libAdvancedDockingSystem.so.10:_ZN3ADS10DockWidget10setFeatureENS0_17DockWidgetFeatureEb
libAdvancedDockingSystem.so.10:_ZN3ADS10DockWidget10setToolBarEP8QToolBar
libAdvancedDockingSystem.so.10:_ZN3ADS10DockWidget10showNormalEv
libAdvancedDockingSystem.so.10:_ZN3ADS10DockWidget10takeWidgetEv
libAdvancedDockingSystem.so.10:_ZN3ADS10DockWidget10toggleViewEb
libAdvancedDockingSystem.so.10:_ZN3ADS10DockWidget11qt_metacallEN11QMetaObject4CallEiPPv
libAdvancedDockingSystem.so.10:_ZN3ADS10DockWidget11qt_metacastEPKc
libAdvancedDockingSystem.so.10:_ZN3ADS10DockWidget11setDockAreaEPNS_14DockAreaWidgetE
libAdvancedDockingSystem.so.10:_ZN3ADS10DockWidget11setFeaturesE6QFlagsINS0_17DockWidgetFeatureEE
libAdvancedDockingSystem.so.10:_ZN3ADS10DockWidget11setFloatingEv
libAdvancedDockingSystem.so.10:_ZN3ADS10DockWidget11viewToggledEb
libAdvancedDockingSystem.so.10:_ZN3ADS10DockWidget12titleChangedERK7QString
libAdvancedDockingSystem.so.10:_ZN3ADS10DockWidget13setTabToolTipERK7QString
libAdvancedDockingSystem.so.10:_ZN3ADS10DockWidget14closeRequestedEv
libAdvancedDockingSystem.so.10:_ZN3ADS10DockWidget14setClosedStateEb
libAdvancedDockingSystem.so.10:_ZN3ADS10DockWidget14setDockManagerEPNS_11DockManagerE
libAdvancedDockingSystem.so.10:_ZN3ADS10DockWidget14showFullScreenEv
libAdvancedDockingSystem.so.10:_ZN3ADS10DockWidget15closeDockWidgetEv
libAdvancedDockingSystem.so.10:_ZN3ADS10DockWidget15featuresChangedE6QFlagsINS0_17DockWidgetFeatureEE
libAdvancedDockingSystem.so.10:_ZN3ADS10DockWidget15setAsCurrentTabEv
libAdvancedDockingSystem.so.10:_ZN3ADS10DockWidget15setToolBarStyleEN2Qt15ToolButtonStyleENS0_6eStateE
libAdvancedDockingSystem.so.10:_ZN3ADS10DockWidget15topLevelChangedEb
libAdvancedDockingSystem.so.10:_ZN3ADS10DockWidget16deleteDockWidgetEv
libAdvancedDockingSystem.so.10:_ZN3ADS10DockWidget16flagAsUnassignedEv
libAdvancedDockingSystem.so.10:_ZN3ADS10DockWidget16staticMetaObjectE
libAdvancedDockingSystem.so.10:_ZN3ADS10DockWidget17visibilityChangedEb
libAdvancedDockingSystem.so.10:_ZN3ADS10DockWidget18setTitleBarActionsE5QListIP7QActionE
libAdvancedDockingSystem.so.10:_ZN3ADS10DockWidget18setToolBarIconSizeERK5QSizeNS0_6eStateE
libAdvancedDockingSystem.so.10:_ZN3ADS10DockWidget18toggleViewInternalEb
libAdvancedDockingSystem.so.10:_ZN3ADS10DockWidget19emitTopLevelChangedEb
libAdvancedDockingSystem.so.10:_ZN3ADS10DockWidget20createDefaultToolBarEv
libAdvancedDockingSystem.so.10:_ZN3ADS10DockWidget22setMinimumSizeHintModeENS0_20eMinimumSizeHintModeE
libAdvancedDockingSystem.so.10:_ZN3ADS10DockWidget23closeDockWidgetInternalEb
libAdvancedDockingSystem.so.10:_ZN3ADS10DockWidget23setToggleViewActionModeENS0_21eToggleViewActionModeE
libAdvancedDockingSystem.so.10:_ZN3ADS10DockWidget23setToolbarFloatingStyleEb
libAdvancedDockingSystem.so.10:_ZN3ADS10DockWidget26emitTopLevelEventForWidgetEPS0_b
libAdvancedDockingSystem.so.10:_ZN3ADS10DockWidget26setToggleViewActionCheckedEb
libAdvancedDockingSystem.so.10:_ZN3ADS10DockWidget5eventEP6QEvent
libAdvancedDockingSystem.so.10:_ZN3ADS10DockWidget5raiseEv
libAdvancedDockingSystem.so.10:_ZN3ADS10DockWidget6closedEv
libAdvancedDockingSystem.so.10:_ZN3ADS10DockWidget7setIconERK5QIcon
libAdvancedDockingSystem.so.10:_ZN3ADS10DockWidget9setWidgetEP7QWidgetNS0_11eInsertModeE
libAdvancedDockingSystem.so.10:_ZN3ADS10DockWidgetC1ERK7QStringP7QWidget
libAdvancedDockingSystem.so.10:_ZN3ADS10DockWidgetC2ERK7QStringP7QWidget
libAdvancedDockingSystem.so.10:_ZN3ADS10DockWidgetD0Ev
libAdvancedDockingSystem.so.10:_ZN3ADS10DockWidgetD1Ev
libAdvancedDockingSystem.so.10:_ZN3ADS10DockWidgetD2Ev
libAdvancedDockingSystem.so.10:_ZN3ADS11DockManager10initializeEv
libAdvancedDockingSystem.so.10:_ZN3ADS11DockManager10workspacesEv
libAdvancedDockingSystem.so.10:_ZN3ADS11DockManager11configFlagsEv
libAdvancedDockingSystem.so.10:_ZN3ADS11DockManager11qt_metacallEN11QMetaObject4CallEiPPv
libAdvancedDockingSystem.so.10:_ZN3ADS11DockManager11qt_metacastEPKc
libAdvancedDockingSystem.so.10:_ZN3ADS11DockManager11setSettingsEP9QSettings
libAdvancedDockingSystem.so.10:_ZN3ADS11DockManager12iconProviderEv
libAdvancedDockingSystem.so.10:_ZN3ADS11DockManager12restoreStateERK10QByteArrayi
libAdvancedDockingSystem.so.10:_ZN3ADS11DockManager13addDockWidgetENS_14DockWidgetAreaEPNS_10DockWidgetEPNS_14DockAreaWidgetE
libAdvancedDockingSystem.so.10:_ZN3ADS11DockManager13openWorkspaceERK7QString
libAdvancedDockingSystem.so.10:_ZN3ADS11DockManager13setConfigFlagENS0_11eConfigFlagEb
libAdvancedDockingSystem.so.10:_ZN3ADS11DockManager13stateRestoredEv
libAdvancedDockingSystem.so.10:_ZN3ADS11DockManager14cloneWorkspaceERK7QStringS3_
libAdvancedDockingSystem.so.10:_ZN3ADS11DockManager14restoringStateEv
libAdvancedDockingSystem.so.10:_ZN3ADS11DockManager14setConfigFlagsE6QFlagsINS0_11eConfigFlagEE
libAdvancedDockingSystem.so.10:_ZN3ADS11DockManager14testConfigFlagENS0_11eConfigFlagE
libAdvancedDockingSystem.so.10:_ZN3ADS11DockManager15createWorkspaceERK7QString
libAdvancedDockingSystem.so.10:_ZN3ADS11DockManager15deleteWorkspaceERK7QString
libAdvancedDockingSystem.so.10:_ZN3ADS11DockManager15dockAreaCreatedEPNS_14DockAreaWidgetE
libAdvancedDockingSystem.so.10:_ZN3ADS11DockManager15exportWorkspaceERK7QStringS3_
libAdvancedDockingSystem.so.10:_ZN3ADS11DockManager15importWorkspaceERK7QString
libAdvancedDockingSystem.so.10:_ZN3ADS11DockManager15renameWorkspaceERK7QStringS3_
libAdvancedDockingSystem.so.10:_ZN3ADS11DockManager15workspaceLoadedE7QString
libAdvancedDockingSystem.so.10:_ZN3ADS11DockManager15workspaceOpenedERK7QString
libAdvancedDockingSystem.so.10:_ZN3ADS11DockManager16addDockWidgetTabENS_14DockWidgetAreaEPNS_10DockWidgetE
libAdvancedDockingSystem.so.10:_ZN3ADS11DockManager16deleteWorkspacesERK5QListI7QStringE
libAdvancedDockingSystem.so.10:_ZN3ADS11DockManager16openingWorkspaceERK7QString
libAdvancedDockingSystem.so.10:_ZN3ADS11DockManager16removeDockWidgetEPNS_10DockWidgetE
libAdvancedDockingSystem.so.10:_ZN3ADS11DockManager16staticMetaObjectE
libAdvancedDockingSystem.so.10:_ZN3ADS11DockManager17dockWidgetRemovedEPNS_10DockWidgetE
libAdvancedDockingSystem.so.10:_ZN3ADS11DockManager17startDragDistanceEv
libAdvancedDockingSystem.so.10:_ZN3ADS11DockManager17workspaceReloadedE7QString
libAdvancedDockingSystem.so.10:_ZN3ADS11DockManager17workspacesRemovedEv
libAdvancedDockingSystem.so.10:_ZN3ADS11DockManager18setModeChangeStateEb
libAdvancedDockingSystem.so.10:_ZN3ADS11DockManager19removeDockContainerEPNS_19DockContainerWidgetE
libAdvancedDockingSystem.so.10:_ZN3ADS11DockManager20aboutToLoadWorkspaceE7QString
libAdvancedDockingSystem.so.10:_ZN3ADS11DockManager20aboutToSaveWorkspaceEv
libAdvancedDockingSystem.so.10:_ZN3ADS11DockManager20removeFloatingWidgetEPNS_21FloatingDockContainerE
libAdvancedDockingSystem.so.10:_ZN3ADS11DockManager20resetWorkspacePresetERK7QString
libAdvancedDockingSystem.so.10:_ZN3ADS11DockManager20saveStartupWorkspaceEv
libAdvancedDockingSystem.so.10:_ZN3ADS11DockManager20setDockWidgetFocusedEPNS_10DockWidgetE
libAdvancedDockingSystem.so.10:_ZN3ADS11DockManager20syncWorkspacePresetsEv
libAdvancedDockingSystem.so.10:_ZN3ADS11DockManager20workspaceListChangedEv
libAdvancedDockingSystem.so.10:_ZN3ADS11DockManager21addDockWidgetFloatingEPNS_10DockWidgetE
libAdvancedDockingSystem.so.10:_ZN3ADS11DockManager21floatingWidgetCreatedEPNS_21FloatingDockContainerE
libAdvancedDockingSystem.so.10:_ZN3ADS11DockManager21registerDockContainerEPNS_19DockContainerWidgetE
libAdvancedDockingSystem.so.10:_ZN3ADS11DockManager21reloadActiveWorkspaceEv
libAdvancedDockingSystem.so.10:_ZN3ADS11DockManager21showWorkspaceManangerEv
libAdvancedDockingSystem.so.10:_ZN3ADS11DockManager22aboutToUnloadWorkspaceE7QString
libAdvancedDockingSystem.so.10:_ZN3ADS11DockManager22addDockWidgetTabToAreaEPNS_10DockWidgetEPNS_14DockAreaWidgetE
libAdvancedDockingSystem.so.10:_ZN3ADS11DockManager22confirmWorkspaceDeleteERK5QListI7QStringE
libAdvancedDockingSystem.so.10:_ZN3ADS11DockManager22registerFloatingWidgetEPNS_21FloatingDockContainerE
libAdvancedDockingSystem.so.10:_ZN3ADS11DockManager23setWorkspacePresetsPathERK7QString
libAdvancedDockingSystem.so.10:_ZN3ADS11DockManager24focusedDockWidgetChangedEPNS_10DockWidgetES2_
libAdvancedDockingSystem.so.10:_ZN3ADS11DockManager24notifyFloatingWidgetDropEPNS_21FloatingDockContainerE
libAdvancedDockingSystem.so.10:_ZN3ADS11DockManager26dockWidgetAboutToBeRemovedEPNS_10DockWidgetE
libAdvancedDockingSystem.so.10:_ZN3ADS11DockManager28notifyWidgetOrAreaRelocationEP7QWidget
libAdvancedDockingSystem.so.10:_ZN3ADS11DockManager4saveEv
libAdvancedDockingSystem.so.10:_ZN3ADS11DockManager9showEventEP10QShowEvent
libAdvancedDockingSystem.so.10:_ZN3ADS11DockManagerC1EP7QWidget
libAdvancedDockingSystem.so.10:_ZN3ADS11DockManagerC2EP7QWidget
libAdvancedDockingSystem.so.10:_ZN3ADS11DockManagerD0Ev
libAdvancedDockingSystem.so.10:_ZN3ADS11DockManagerD1Ev
libAdvancedDockingSystem.so.10:_ZN3ADS11DockManagerD2Ev
libAdvancedDockingSystem.so.10:_ZN3ADS11DockOverlay10paintEventEP11QPaintEvent
libAdvancedDockingSystem.so.10:_ZN3ADS11DockOverlay11hideOverlayEv
libAdvancedDockingSystem.so.10:_ZN3ADS11DockOverlay11qt_metacallEN11QMetaObject4CallEiPPv
libAdvancedDockingSystem.so.10:_ZN3ADS11DockOverlay11qt_metacastEPKc
libAdvancedDockingSystem.so.10:_ZN3ADS11DockOverlay11showOverlayEP7QWidget
libAdvancedDockingSystem.so.10:_ZN3ADS11DockOverlay15setAllowedAreasE6QFlagsINS_14DockWidgetAreaEE
libAdvancedDockingSystem.so.10:_ZN3ADS11DockOverlay16staticMetaObjectE
libAdvancedDockingSystem.so.10:_ZN3ADS11DockOverlay17enableDropPreviewEb
libAdvancedDockingSystem.so.10:_ZN3ADS11DockOverlay5eventEP6QEvent
libAdvancedDockingSystem.so.10:_ZN3ADS11DockOverlay9hideEventEP10QHideEvent
libAdvancedDockingSystem.so.10:_ZN3ADS11DockOverlay9showEventEP10QShowEvent
libAdvancedDockingSystem.so.10:_ZN3ADS11DockOverlayC1EP7QWidgetNS0_5eModeE
libAdvancedDockingSystem.so.10:_ZN3ADS11DockOverlayC2EP7QWidgetNS0_5eModeE
libAdvancedDockingSystem.so.10:_ZN3ADS11DockOverlayD0Ev
libAdvancedDockingSystem.so.10:_ZN3ADS11DockOverlayD1Ev
libAdvancedDockingSystem.so.10:_ZN3ADS11DockOverlayD2Ev
libAdvancedDockingSystem.so.10:_ZN3ADS12DockSplitter11qt_metacallEN11QMetaObject4CallEiPPv
libAdvancedDockingSystem.so.10:_ZN3ADS12DockSplitter11qt_metacastEPKc
libAdvancedDockingSystem.so.10:_ZN3ADS12DockSplitter16staticMetaObjectE
libAdvancedDockingSystem.so.10:_ZN3ADS12DockSplitterC1EN2Qt11OrientationEP7QWidget
libAdvancedDockingSystem.so.10:_ZN3ADS12DockSplitterC1EP7QWidget
libAdvancedDockingSystem.so.10:_ZN3ADS12DockSplitterC2EN2Qt11OrientationEP7QWidget
libAdvancedDockingSystem.so.10:_ZN3ADS12DockSplitterC2EP7QWidget
libAdvancedDockingSystem.so.10:_ZN3ADS12DockSplitterD0Ev
libAdvancedDockingSystem.so.10:_ZN3ADS12DockSplitterD1Ev
libAdvancedDockingSystem.so.10:_ZN3ADS12DockSplitterD2Ev
libAdvancedDockingSystem.so.10:_ZN3ADS12ElidingLabel11qt_metacallEN11QMetaObject4CallEiPPv
libAdvancedDockingSystem.so.10:_ZN3ADS12ElidingLabel11qt_metacastEPKc
libAdvancedDockingSystem.so.10:_ZN3ADS12ElidingLabel11resizeEventEP12QResizeEvent
libAdvancedDockingSystem.so.10:_ZN3ADS12ElidingLabel12setElideModeEN2Qt13TextElideModeE
libAdvancedDockingSystem.so.10:_ZN3ADS12ElidingLabel13doubleClickedEv
libAdvancedDockingSystem.so.10:_ZN3ADS12ElidingLabel13elidedChangedEb
libAdvancedDockingSystem.so.10:_ZN3ADS12ElidingLabel16staticMetaObjectE
libAdvancedDockingSystem.so.10:_ZN3ADS12ElidingLabel17mouseReleaseEventEP11QMouseEvent
libAdvancedDockingSystem.so.10:_ZN3ADS12ElidingLabel21mouseDoubleClickEventEP11QMouseEvent
libAdvancedDockingSystem.so.10:_ZN3ADS12ElidingLabel7clickedEv
libAdvancedDockingSystem.so.10:_ZN3ADS12ElidingLabel7setTextERK7QString
libAdvancedDockingSystem.so.10:_ZN3ADS12ElidingLabelC1EP7QWidget6QFlagsIN2Qt10WindowTypeEE
libAdvancedDockingSystem.so.10:_ZN3ADS12ElidingLabelC1ERK7QStringP7QWidget6QFlagsIN2Qt10WindowTypeEE
libAdvancedDockingSystem.so.10:_ZN3ADS12ElidingLabelC2EP7QWidget6QFlagsIN2Qt10WindowTypeEE
libAdvancedDockingSystem.so.10:_ZN3ADS12ElidingLabelC2ERK7QStringP7QWidget6QFlagsIN2Qt10WindowTypeEE
libAdvancedDockingSystem.so.10:_ZN3ADS12ElidingLabelD0Ev
libAdvancedDockingSystem.so.10:_ZN3ADS12ElidingLabelD1Ev
libAdvancedDockingSystem.so.10:_ZN3ADS12ElidingLabelD2Ev
libAdvancedDockingSystem.so.10:_ZN3ADS12IconProvider18registerCustomIconENS_5eIconERK5QIcon
libAdvancedDockingSystem.so.10:_ZN3ADS12IconProviderC1Ev
libAdvancedDockingSystem.so.10:_ZN3ADS12IconProviderC2Ev
libAdvancedDockingSystem.so.10:_ZN3ADS12IconProviderD0Ev
libAdvancedDockingSystem.so.10:_ZN3ADS12IconProviderD1Ev
libAdvancedDockingSystem.so.10:_ZN3ADS12IconProviderD2Ev
libAdvancedDockingSystem.so.10:_ZN3ADS13DockWidgetTab10setVisibleEb
libAdvancedDockingSystem.so.10:_ZN3ADS13DockWidgetTab11qt_metacallEN11QMetaObject4CallEiPPv
libAdvancedDockingSystem.so.10:_ZN3ADS13DockWidgetTab11qt_metacastEPKc
libAdvancedDockingSystem.so.10:_ZN3ADS13DockWidgetTab11updateStyleEv
libAdvancedDockingSystem.so.10:_ZN3ADS13DockWidgetTab12setActiveTabEb
libAdvancedDockingSystem.so.10:_ZN3ADS13DockWidgetTab12setElideModeEN2Qt13TextElideModeE
libAdvancedDockingSystem.so.10:_ZN3ADS13DockWidgetTab13elidedChangedEb
libAdvancedDockingSystem.so.10:_ZN3ADS13DockWidgetTab14closeRequestedEv
libAdvancedDockingSystem.so.10:_ZN3ADS13DockWidgetTab14mouseMoveEventEP11QMouseEvent
libAdvancedDockingSystem.so.10:_ZN3ADS13DockWidgetTab15mousePressEventEP11QMouseEvent
libAdvancedDockingSystem.so.10:_ZN3ADS13DockWidgetTab16activeTabChangedEv
libAdvancedDockingSystem.so.10:_ZN3ADS13DockWidgetTab16contextMenuEventEP17QContextMenuEvent
libAdvancedDockingSystem.so.10:_ZN3ADS13DockWidgetTab16detachDockWidgetEv
libAdvancedDockingSystem.so.10:_ZN3ADS13DockWidgetTab16staticMetaObjectE
libAdvancedDockingSystem.so.10:_ZN3ADS13DockWidgetTab17mouseReleaseEventEP11QMouseEvent
libAdvancedDockingSystem.so.10:_ZN3ADS13DockWidgetTab17setDockAreaWidgetEPNS_14DockAreaWidgetE
libAdvancedDockingSystem.so.10:_ZN3ADS13DockWidgetTab21mouseDoubleClickEventEP11QMouseEvent
libAdvancedDockingSystem.so.10:_ZN3ADS13DockWidgetTab23closeOtherTabsRequestedEv
libAdvancedDockingSystem.so.10:_ZN3ADS13DockWidgetTab27onDockWidgetFeaturesChangedEv
libAdvancedDockingSystem.so.10:_ZN3ADS13DockWidgetTab5eventEP6QEvent
libAdvancedDockingSystem.so.10:_ZN3ADS13DockWidgetTab5movedERK6QPoint
libAdvancedDockingSystem.so.10:_ZN3ADS13DockWidgetTab7clickedEv
libAdvancedDockingSystem.so.10:_ZN3ADS13DockWidgetTab7setIconERK5QIcon
libAdvancedDockingSystem.so.10:_ZN3ADS13DockWidgetTab7setTextERK7QString
libAdvancedDockingSystem.so.10:_ZN3ADS13DockWidgetTabC1EPNS_10DockWidgetEP7QWidget
libAdvancedDockingSystem.so.10:_ZN3ADS13DockWidgetTabC2EPNS_10DockWidgetEP7QWidget
libAdvancedDockingSystem.so.10:_ZN3ADS13DockWidgetTabD0Ev
libAdvancedDockingSystem.so.10:_ZN3ADS13DockWidgetTabD1Ev
libAdvancedDockingSystem.so.10:_ZN3ADS13DockWidgetTabD2Ev
libAdvancedDockingSystem.so.10:_ZN3ADS14DockAreaTabBar10wheelEventEP11QWheelEvent
libAdvancedDockingSystem.so.10:_ZN3ADS14DockAreaTabBar11eventFilterEP7QObjectP6QEvent
libAdvancedDockingSystem.so.10:_ZN3ADS14DockAreaTabBar11qt_metacallEN11QMetaObject4CallEiPPv
libAdvancedDockingSystem.so.10:_ZN3ADS14DockAreaTabBar11qt_metacastEPKc
libAdvancedDockingSystem.so.10:_ZN3ADS14DockAreaTabBar11removingTabEi
libAdvancedDockingSystem.so.10:_ZN3ADS14DockAreaTabBar11tabInsertedEi
libAdvancedDockingSystem.so.10:_ZN3ADS14DockAreaTabBar12onTabClickedEPNS_13DockWidgetTabE
libAdvancedDockingSystem.so.10:_ZN3ADS14DockAreaTabBar13elidedChangedEb
libAdvancedDockingSystem.so.10:_ZN3ADS14DockAreaTabBar13tabBarClickedEi
libAdvancedDockingSystem.so.10:_ZN3ADS14DockAreaTabBar14currentChangedEi
libAdvancedDockingSystem.so.10:_ZN3ADS14DockAreaTabBar15currentChangingEi
libAdvancedDockingSystem.so.10:_ZN3ADS14DockAreaTabBar15setCurrentIndexEi
libAdvancedDockingSystem.so.10:_ZN3ADS14DockAreaTabBar16onTabWidgetMovedEPNS_13DockWidgetTabERK6QPoint
libAdvancedDockingSystem.so.10:_ZN3ADS14DockAreaTabBar16staticMetaObjectE
libAdvancedDockingSystem.so.10:_ZN3ADS14DockAreaTabBar17tabCloseRequestedEi
libAdvancedDockingSystem.so.10:_ZN3ADS14DockAreaTabBar19onTabCloseRequestedEPNS_13DockWidgetTabE
libAdvancedDockingSystem.so.10:_ZN3ADS14DockAreaTabBar25onCloseOtherTabsRequestedEPNS_13DockWidgetTabE
libAdvancedDockingSystem.so.10:_ZN3ADS14DockAreaTabBar8closeTabEi
libAdvancedDockingSystem.so.10:_ZN3ADS14DockAreaTabBar8tabMovedEii
libAdvancedDockingSystem.so.10:_ZN3ADS14DockAreaTabBar9insertTabEiPNS_13DockWidgetTabE
libAdvancedDockingSystem.so.10:_ZN3ADS14DockAreaTabBar9removeTabEPNS_13DockWidgetTabE
libAdvancedDockingSystem.so.10:_ZN3ADS14DockAreaTabBar9tabClosedEi
libAdvancedDockingSystem.so.10:_ZN3ADS14DockAreaTabBar9tabOpenedEi
libAdvancedDockingSystem.so.10:_ZN3ADS14DockAreaTabBarC1EPNS_14DockAreaWidgetE
libAdvancedDockingSystem.so.10:_ZN3ADS14DockAreaTabBarC2EPNS_14DockAreaWidgetE
libAdvancedDockingSystem.so.10:_ZN3ADS14DockAreaTabBarD0Ev
libAdvancedDockingSystem.so.10:_ZN3ADS14DockAreaTabBarD1Ev
libAdvancedDockingSystem.so.10:_ZN3ADS14DockAreaTabBarD2Ev
libAdvancedDockingSystem.so.10:_ZN3ADS14DockAreaWidget10setVisibleEb
libAdvancedDockingSystem.so.10:_ZN3ADS14DockAreaWidget10toggleViewEb
libAdvancedDockingSystem.so.10:_ZN3ADS14DockAreaWidget11qt_metacallEN11QMetaObject4CallEiPPv
libAdvancedDockingSystem.so.10:_ZN3ADS14DockAreaWidget11qt_metacastEPKc
libAdvancedDockingSystem.so.10:_ZN3ADS14DockAreaWidget11viewToggledEb
libAdvancedDockingSystem.so.10:_ZN3ADS14DockAreaWidget13addDockWidgetEPNS_10DockWidgetE
libAdvancedDockingSystem.so.10:_ZN3ADS14DockAreaWidget13tabBarClickedEi
libAdvancedDockingSystem.so.10:_ZN3ADS14DockAreaWidget14currentChangedEi
libAdvancedDockingSystem.so.10:_ZN3ADS14DockAreaWidget15closeOtherAreasEv
libAdvancedDockingSystem.so.10:_ZN3ADS14DockAreaWidget15currentChangingEi
libAdvancedDockingSystem.so.10:_ZN3ADS14DockAreaWidget15setAllowedAreasE6QFlagsINS_14DockWidgetAreaEE
libAdvancedDockingSystem.so.10:_ZN3ADS14DockAreaWidget15setCurrentIndexEi
libAdvancedDockingSystem.so.10:_ZN3ADS14DockAreaWidget16insertDockWidgetEiPNS_10DockWidgetEb
libAdvancedDockingSystem.so.10:_ZN3ADS14DockAreaWidget16removeDockWidgetEPNS_10DockWidgetE
libAdvancedDockingSystem.so.10:_ZN3ADS14DockAreaWidget16staticMetaObjectE
libAdvancedDockingSystem.so.10:_ZN3ADS14DockAreaWidget17reorderDockWidgetEii
libAdvancedDockingSystem.so.10:_ZN3ADS14DockAreaWidget19onTabCloseRequestedEi
libAdvancedDockingSystem.so.10:_ZN3ADS14DockAreaWidget20setCurrentDockWidgetEPNS_10DockWidgetE
libAdvancedDockingSystem.so.10:_ZN3ADS14DockAreaWidget20toggleDockWidgetViewEPNS_10DockWidgetEb
libAdvancedDockingSystem.so.10:_ZN3ADS14DockAreaWidget24markTitleBarMenuOutdatedEv
libAdvancedDockingSystem.so.10:_ZN3ADS14DockAreaWidget24updateTitleBarVisibilityEv
libAdvancedDockingSystem.so.10:_ZN3ADS14DockAreaWidget28hideAreaWithNoVisibleContentEv
libAdvancedDockingSystem.so.10:_ZN3ADS14DockAreaWidget28internalSetCurrentDockWidgetEPNS_10DockWidgetE
libAdvancedDockingSystem.so.10:_ZN3ADS14DockAreaWidget7indexOfEPNS_10DockWidgetE
libAdvancedDockingSystem.so.10:_ZN3ADS14DockAreaWidget9closeAreaEv
libAdvancedDockingSystem.so.10:_ZN3ADS14DockAreaWidgetC1EPNS_11DockManagerEPNS_19DockContainerWidgetE
libAdvancedDockingSystem.so.10:_ZN3ADS14DockAreaWidgetC2EPNS_11DockManagerEPNS_19DockContainerWidgetE
libAdvancedDockingSystem.so.10:_ZN3ADS14DockAreaWidgetD0Ev
libAdvancedDockingSystem.so.10:_ZN3ADS14DockAreaWidgetD1Ev
libAdvancedDockingSystem.so.10:_ZN3ADS14DockAreaWidgetD2Ev
libAdvancedDockingSystem.so.10:_ZN3ADS16DockAreaTitleBar10setVisibleEb
libAdvancedDockingSystem.so.10:_ZN3ADS16DockAreaTitleBar11qt_metacallEN11QMetaObject4CallEiPPv
libAdvancedDockingSystem.so.10:_ZN3ADS16DockAreaTitleBar11qt_metacastEPKc
libAdvancedDockingSystem.so.10:_ZN3ADS16DockAreaTitleBar12insertWidgetEiP7QWidget
libAdvancedDockingSystem.so.10:_ZN3ADS16DockAreaTitleBar13tabBarClickedEi
libAdvancedDockingSystem.so.10:_ZN3ADS16DockAreaTitleBar14mouseMoveEventEP11QMouseEvent
libAdvancedDockingSystem.so.10:_ZN3ADS16DockAreaTitleBar15mousePressEventEP11QMouseEvent
libAdvancedDockingSystem.so.10:_ZN3ADS16DockAreaTitleBar16contextMenuEventEP17QContextMenuEvent
libAdvancedDockingSystem.so.10:_ZN3ADS16DockAreaTitleBar16staticMetaObjectE
libAdvancedDockingSystem.so.10:_ZN3ADS16DockAreaTitleBar17mouseReleaseEventEP11QMouseEvent
libAdvancedDockingSystem.so.10:_ZN3ADS16DockAreaTitleBar19onCurrentTabChangedEi
libAdvancedDockingSystem.so.10:_ZN3ADS16DockAreaTitleBar20markTabsMenuOutdatedEv
libAdvancedDockingSystem.so.10:_ZN3ADS16DockAreaTitleBar20onCloseButtonClickedEv
libAdvancedDockingSystem.so.10:_ZN3ADS16DockAreaTitleBar21mouseDoubleClickEventEP11QMouseEvent
libAdvancedDockingSystem.so.10:_ZN3ADS16DockAreaTitleBar21onTabsMenuAboutToShowEv
libAdvancedDockingSystem.so.10:_ZN3ADS16DockAreaTitleBar21onUndockButtonClickedEv
libAdvancedDockingSystem.so.10:_ZN3ADS16DockAreaTitleBar25onTabsMenuActionTriggeredEP7QAction
libAdvancedDockingSystem.so.10:_ZN3ADS16DockAreaTitleBar30updateDockWidgetActionsButtonsEv
libAdvancedDockingSystem.so.10:_ZN3ADS16DockAreaTitleBarC1EPNS_14DockAreaWidgetE
libAdvancedDockingSystem.so.10:_ZN3ADS16DockAreaTitleBarC2EPNS_14DockAreaWidgetE
libAdvancedDockingSystem.so.10:_ZN3ADS16DockAreaTitleBarD0Ev
libAdvancedDockingSystem.so.10:_ZN3ADS16DockAreaTitleBarD1Ev
libAdvancedDockingSystem.so.10:_ZN3ADS16DockAreaTitleBarD2Ev
libAdvancedDockingSystem.so.10:_ZN3ADS19DockContainerWidget10dropWidgetEP7QWidgetNS_14DockWidgetAreaEPNS_14DockAreaWidgetE
libAdvancedDockingSystem.so.10:_ZN3ADS19DockContainerWidget11addDockAreaEPNS_14DockAreaWidgetENS_14DockWidgetAreaE
libAdvancedDockingSystem.so.10:_ZN3ADS19DockContainerWidget11qt_metacallEN11QMetaObject4CallEiPPv
libAdvancedDockingSystem.so.10:_ZN3ADS19DockContainerWidget11qt_metacastEPKc
libAdvancedDockingSystem.so.10:_ZN3ADS19DockContainerWidget12restoreStateERNS_18DockingStateReaderEb
libAdvancedDockingSystem.so.10:_ZN3ADS19DockContainerWidget13addDockWidgetENS_14DockWidgetAreaEPNS_10DockWidgetEPNS_14DockAreaWidgetE
libAdvancedDockingSystem.so.10:_ZN3ADS19DockContainerWidget14dockAreasAddedEv
libAdvancedDockingSystem.so.10:_ZN3ADS19DockContainerWidget14removeDockAreaEPNS_14DockAreaWidgetE
libAdvancedDockingSystem.so.10:_ZN3ADS19DockContainerWidget15closeOtherAreasEPNS_14DockAreaWidgetE
libAdvancedDockingSystem.so.10:_ZN3ADS19DockContainerWidget16dockAreasRemovedEv
libAdvancedDockingSystem.so.10:_ZN3ADS19DockContainerWidget16removeDockWidgetEPNS_10DockWidgetE
libAdvancedDockingSystem.so.10:_ZN3ADS19DockContainerWidget16staticMetaObjectE
libAdvancedDockingSystem.so.10:_ZN3ADS19DockContainerWidget18createRootSplitterEv
libAdvancedDockingSystem.so.10:_ZN3ADS19DockContainerWidget18dropFloatingWidgetEPNS_21FloatingDockContainerERK6QPoint
libAdvancedDockingSystem.so.10:_ZN3ADS19DockContainerWidget19dockAreaViewToggledEPNS_14DockAreaWidgetEb
libAdvancedDockingSystem.so.10:_ZN3ADS19DockContainerWidget5eventEP6QEvent
libAdvancedDockingSystem.so.10:_ZN3ADS19DockContainerWidgetC1EPNS_11DockManagerEP7QWidget
libAdvancedDockingSystem.so.10:_ZN3ADS19DockContainerWidgetC2EPNS_11DockManagerEP7QWidget
libAdvancedDockingSystem.so.10:_ZN3ADS19DockContainerWidgetD0Ev
libAdvancedDockingSystem.so.10:_ZN3ADS19DockContainerWidgetD1Ev
libAdvancedDockingSystem.so.10:_ZN3ADS19DockContainerWidgetD2Ev
libAdvancedDockingSystem.so.10:_ZN3ADS19DockFocusController11qt_metacallEN11QMetaObject4CallEiPPv
libAdvancedDockingSystem.so.10:_ZN3ADS19DockFocusController11qt_metacastEPKc
libAdvancedDockingSystem.so.10:_ZN3ADS19DockFocusController15onStateRestoredEv
libAdvancedDockingSystem.so.10:_ZN3ADS19DockFocusController16staticMetaObjectE
libAdvancedDockingSystem.so.10:_ZN3ADS19DockFocusController20setDockWidgetFocusedEPNS_10DockWidgetE
libAdvancedDockingSystem.so.10:_ZN3ADS19DockFocusController24notifyFloatingWidgetDropEPNS_21FloatingDockContainerE
libAdvancedDockingSystem.so.10:_ZN3ADS19DockFocusController25onApplicationFocusChangedEP7QWidgetS2_
libAdvancedDockingSystem.so.10:_ZN3ADS19DockFocusController28notifyWidgetOrAreaRelocationEP7QWidget
libAdvancedDockingSystem.so.10:_ZN3ADS19DockFocusController28onFocusedDockAreaViewToggledEb
libAdvancedDockingSystem.so.10:_ZN3ADS19DockFocusControllerC1EPNS_11DockManagerE
libAdvancedDockingSystem.so.10:_ZN3ADS19DockFocusControllerC2EPNS_11DockManagerE
libAdvancedDockingSystem.so.10:_ZN3ADS19DockFocusControllerD0Ev
libAdvancedDockingSystem.so.10:_ZN3ADS19DockFocusControllerD1Ev
libAdvancedDockingSystem.so.10:_ZN3ADS19DockFocusControllerD2Ev
libAdvancedDockingSystem.so.10:_ZN3ADS21DockComponentsFactory10setFactoryEPS0_
libAdvancedDockingSystem.so.10:_ZN3ADS21DockComponentsFactory19resetDefaultFactoryEv
libAdvancedDockingSystem.so.10:_ZN3ADS21DockComponentsFactory7factoryEv
libAdvancedDockingSystem.so.10:_ZN3ADS21FloatingDockContainer10closeEventEP11QCloseEvent
libAdvancedDockingSystem.so.10:_ZN3ADS21FloatingDockContainer11changeEventEP6QEvent
libAdvancedDockingSystem.so.10:_ZN3ADS21FloatingDockContainer11qt_metacallEN11QMetaObject4CallEiPPv
libAdvancedDockingSystem.so.10:_ZN3ADS21FloatingDockContainer11qt_metacastEPKc
libAdvancedDockingSystem.so.10:_ZN3ADS21FloatingDockContainer12moveFloatingEv
libAdvancedDockingSystem.so.10:_ZN3ADS21FloatingDockContainer12restoreStateERNS_18DockingStateReaderEb
libAdvancedDockingSystem.so.10:_ZN3ADS21FloatingDockContainer13startFloatingERK6QPointRK5QSizeNS_10eDragStateEP7QWidget
libAdvancedDockingSystem.so.10:_ZN3ADS21FloatingDockContainer14finishDraggingEv
libAdvancedDockingSystem.so.10:_ZN3ADS21FloatingDockContainer16staticMetaObjectE
libAdvancedDockingSystem.so.10:_ZN3ADS21FloatingDockContainer17updateWindowTitleEv
libAdvancedDockingSystem.so.10:_ZN3ADS21FloatingDockContainer24onDockAreaCurrentChangedEi
libAdvancedDockingSystem.so.10:_ZN3ADS21FloatingDockContainer25onDockAreasAddedOrRemovedEv
libAdvancedDockingSystem.so.10:_ZN3ADS21FloatingDockContainer9hideEventEP10QHideEvent
libAdvancedDockingSystem.so.10:_ZN3ADS21FloatingDockContainer9showEventEP10QShowEvent
libAdvancedDockingSystem.so.10:_ZN3ADS21FloatingDockContainerC1EPNS_10DockWidgetE
libAdvancedDockingSystem.so.10:_ZN3ADS21FloatingDockContainerC1EPNS_11DockManagerE
libAdvancedDockingSystem.so.10:_ZN3ADS21FloatingDockContainerC1EPNS_14DockAreaWidgetE
libAdvancedDockingSystem.so.10:_ZN3ADS21FloatingDockContainerC2EPNS_10DockWidgetE
libAdvancedDockingSystem.so.10:_ZN3ADS21FloatingDockContainerC2EPNS_11DockManagerE
libAdvancedDockingSystem.so.10:_ZN3ADS21FloatingDockContainerC2EPNS_14DockAreaWidgetE
libAdvancedDockingSystem.so.10:_ZN3ADS21FloatingDockContainerD0Ev
libAdvancedDockingSystem.so.10:_ZN3ADS21FloatingDockContainerD1Ev
libAdvancedDockingSystem.so.10:_ZN3ADS21FloatingDockContainerD2Ev
libAdvancedDockingSystem.so.10:_ZNK3ADS10DockWidget10isFloatingEv
libAdvancedDockingSystem.so.10:_ZNK3ADS10DockWidget10metaObjectEv
libAdvancedDockingSystem.so.10:_ZNK3ADS10DockWidget11dockManagerEv
libAdvancedDockingSystem.so.10:_ZNK3ADS10DockWidget12isCurrentTabEv
libAdvancedDockingSystem.so.10:_ZNK3ADS10DockWidget12isFullScreenEv
libAdvancedDockingSystem.so.10:_ZNK3ADS10DockWidget12toolBarStyleENS0_6eStateE
libAdvancedDockingSystem.so.10:_ZNK3ADS10DockWidget13dockContainerEv
libAdvancedDockingSystem.so.10:_ZNK3ADS10DockWidget14dockAreaWidgetEv
libAdvancedDockingSystem.so.10:_ZNK3ADS10DockWidget15minimumSizeHintEv
libAdvancedDockingSystem.so.10:_ZNK3ADS10DockWidget15titleBarActionsEv
libAdvancedDockingSystem.so.10:_ZNK3ADS10DockWidget15toolBarIconSizeENS0_6eStateE
libAdvancedDockingSystem.so.10:_ZNK3ADS10DockWidget16toggleViewActionEv
libAdvancedDockingSystem.so.10:_ZNK3ADS10DockWidget21isInFloatingContainerEv
libAdvancedDockingSystem.so.10:_ZNK3ADS10DockWidget4iconEv
libAdvancedDockingSystem.so.10:_ZNK3ADS10DockWidget6widgetEv
libAdvancedDockingSystem.so.10:_ZNK3ADS10DockWidget7toolBarEv
libAdvancedDockingSystem.so.10:_ZNK3ADS10DockWidget8featuresEv
libAdvancedDockingSystem.so.10:_ZNK3ADS10DockWidget8isClosedEv
libAdvancedDockingSystem.so.10:_ZNK3ADS10DockWidget8isTabbedEv
libAdvancedDockingSystem.so.10:_ZNK3ADS10DockWidget9saveStateER16QXmlStreamWriter
libAdvancedDockingSystem.so.10:_ZNK3ADS10DockWidget9tabWidgetEv
libAdvancedDockingSystem.so.10:_ZNK3ADS11DockManager10metaObjectEv
libAdvancedDockingSystem.so.10:_ZNK3ADS11DockManager11zOrderIndexEv
libAdvancedDockingSystem.so.10:_ZNK3ADS11DockManager13lastWorkspaceEv
libAdvancedDockingSystem.so.10:_ZNK3ADS11DockManager13loadWorkspaceERK7QString
libAdvancedDockingSystem.so.10:_ZNK3ADS11DockManager14dockContainersEv
libAdvancedDockingSystem.so.10:_ZNK3ADS11DockManager14dockWidgetsMapEv
libAdvancedDockingSystem.so.10:_ZNK3ADS11DockManager14findDockWidgetERK7QString
libAdvancedDockingSystem.so.10:_ZNK3ADS11DockManager15activeWorkspaceEv
libAdvancedDockingSystem.so.10:_ZNK3ADS11DockManager15dockAreaOverlayEv
libAdvancedDockingSystem.so.10:_ZNK3ADS11DockManager15floatingWidgetsEv
libAdvancedDockingSystem.so.10:_ZNK3ADS11DockManager16containerOverlayEv
libAdvancedDockingSystem.so.10:_ZNK3ADS11DockManager16isRestoringStateEv
libAdvancedDockingSystem.so.10:_ZNK3ADS11DockManager16workspacePresetsEv
libAdvancedDockingSystem.so.10:_ZNK3ADS11DockManager17isModeChangeStateEv
libAdvancedDockingSystem.so.10:_ZNK3ADS11DockManager17isWorkspacePresetERK7QString
libAdvancedDockingSystem.so.10:_ZNK3ADS11DockManager17workspaceDateTimeERK7QString
libAdvancedDockingSystem.so.10:_ZNK3ADS11DockManager22workspaceFileExtensionEv
libAdvancedDockingSystem.so.10:_ZNK3ADS11DockManager23autoRestorLastWorkspaceEv
libAdvancedDockingSystem.so.10:_ZNK3ADS11DockManager23fileNameToWorkspaceNameERK7QString
libAdvancedDockingSystem.so.10:_ZNK3ADS11DockManager23workspaceNameToFileNameERK7QString
libAdvancedDockingSystem.so.10:_ZNK3ADS11DockManager23workspaceNameToFilePathERK7QString
libAdvancedDockingSystem.so.10:_ZNK3ADS11DockManager5writeERK7QStringRK10QByteArrayP7QWidget
libAdvancedDockingSystem.so.10:_ZNK3ADS11DockManager5writeERK7QStringRK10QByteArrayPS1_
libAdvancedDockingSystem.so.10:_ZNK3ADS11DockManager9saveStateEi
libAdvancedDockingSystem.so.10:_ZNK3ADS11DockOverlay10metaObjectEv
libAdvancedDockingSystem.so.10:_ZNK3ADS11DockOverlay12allowedAreasEv
libAdvancedDockingSystem.so.10:_ZNK3ADS11DockOverlay15dropOverlayRectEv
libAdvancedDockingSystem.so.10:_ZNK3ADS11DockOverlay18dropPreviewEnabledEv
libAdvancedDockingSystem.so.10:_ZNK3ADS11DockOverlay19dropAreaUnderCursorEv
libAdvancedDockingSystem.so.10:_ZNK3ADS11DockOverlay26visibleDropAreaUnderCursorEv
libAdvancedDockingSystem.so.10:_ZNK3ADS12DockSplitter10lastWidgetEv
libAdvancedDockingSystem.so.10:_ZNK3ADS12DockSplitter10metaObjectEv
libAdvancedDockingSystem.so.10:_ZNK3ADS12DockSplitter11firstWidgetEv
libAdvancedDockingSystem.so.10:_ZNK3ADS12DockSplitter17hasVisibleContentEv
libAdvancedDockingSystem.so.10:_ZNK3ADS12ElidingLabel10metaObjectEv
libAdvancedDockingSystem.so.10:_ZNK3ADS12ElidingLabel15minimumSizeHintEv
libAdvancedDockingSystem.so.10:_ZNK3ADS12ElidingLabel4textEv
libAdvancedDockingSystem.so.10:_ZNK3ADS12ElidingLabel8isElidedEv
libAdvancedDockingSystem.so.10:_ZNK3ADS12ElidingLabel8sizeHintEv
libAdvancedDockingSystem.so.10:_ZNK3ADS12ElidingLabel9elideModeEv
libAdvancedDockingSystem.so.10:_ZNK3ADS12ElidingLabel9hasPixmapEv
libAdvancedDockingSystem.so.10:_ZNK3ADS12IconProvider10customIconENS_5eIconE
libAdvancedDockingSystem.so.10:_ZNK3ADS13DockWidgetTab10dockWidgetEv
libAdvancedDockingSystem.so.10:_ZNK3ADS13DockWidgetTab10isClosableEv
libAdvancedDockingSystem.so.10:_ZNK3ADS13DockWidgetTab10metaObjectEv
libAdvancedDockingSystem.so.10:_ZNK3ADS13DockWidgetTab11isActiveTabEv
libAdvancedDockingSystem.so.10:_ZNK3ADS13DockWidgetTab13isTitleElidedEv
libAdvancedDockingSystem.so.10:_ZNK3ADS13DockWidgetTab14dockAreaWidgetEv
libAdvancedDockingSystem.so.10:_ZNK3ADS13DockWidgetTab4iconEv
libAdvancedDockingSystem.so.10:_ZNK3ADS13DockWidgetTab4textEv
libAdvancedDockingSystem.so.10:_ZNK3ADS14DockAreaTabBar10currentTabEv
libAdvancedDockingSystem.so.10:_ZNK3ADS14DockAreaTabBar10metaObjectEv
libAdvancedDockingSystem.so.10:_ZNK3ADS14DockAreaTabBar12currentIndexEv
libAdvancedDockingSystem.so.10:_ZNK3ADS14DockAreaTabBar15minimumSizeHintEv
libAdvancedDockingSystem.so.10:_ZNK3ADS14DockAreaTabBar3tabEi
libAdvancedDockingSystem.so.10:_ZNK3ADS14DockAreaTabBar5countEv
libAdvancedDockingSystem.so.10:_ZNK3ADS14DockAreaTabBar8sizeHintEv
libAdvancedDockingSystem.so.10:_ZNK3ADS14DockAreaTabBar9isTabOpenEi
libAdvancedDockingSystem.so.10:_ZNK3ADS14DockAreaWidget10dockWidgetEi
libAdvancedDockingSystem.so.10:_ZNK3ADS14DockAreaWidget10metaObjectEv
libAdvancedDockingSystem.so.10:_ZNK3ADS14DockAreaWidget11dockManagerEv
libAdvancedDockingSystem.so.10:_ZNK3ADS14DockAreaWidget11dockWidgetsEv
libAdvancedDockingSystem.so.10:_ZNK3ADS14DockAreaWidget12allowedAreasEv
libAdvancedDockingSystem.so.10:_ZNK3ADS14DockAreaWidget12currentIndexEv
libAdvancedDockingSystem.so.10:_ZNK3ADS14DockAreaWidget13dockContainerEv
libAdvancedDockingSystem.so.10:_ZNK3ADS14DockAreaWidget14titleBarButtonENS_15eTitleBarButtonE
libAdvancedDockingSystem.so.10:_ZNK3ADS14DockAreaWidget15minimumSizeHintEv
libAdvancedDockingSystem.so.10:_ZNK3ADS14DockAreaWidget16dockWidgetsCountEv
libAdvancedDockingSystem.so.10:_ZNK3ADS14DockAreaWidget16titleBarGeometryEv
libAdvancedDockingSystem.so.10:_ZNK3ADS14DockAreaWidget17currentDockWidgetEv
libAdvancedDockingSystem.so.10:_ZNK3ADS14DockAreaWidget17openedDockWidgetsEv
libAdvancedDockingSystem.so.10:_ZNK3ADS14DockAreaWidget18nextOpenDockWidgetEPNS_10DockWidgetE
libAdvancedDockingSystem.so.10:_ZNK3ADS14DockAreaWidget19contentAreaGeometryEv
libAdvancedDockingSystem.so.10:_ZNK3ADS14DockAreaWidget20openDockWidgetsCountEv
libAdvancedDockingSystem.so.10:_ZNK3ADS14DockAreaWidget26indexOfFirstOpenDockWidgetEv
libAdvancedDockingSystem.so.10:_ZNK3ADS14DockAreaWidget8featuresENS_16eBitwiseOperatorE
libAdvancedDockingSystem.so.10:_ZNK3ADS14DockAreaWidget8titleBarEv
libAdvancedDockingSystem.so.10:_ZNK3ADS14DockAreaWidget9saveStateER16QXmlStreamWriter
libAdvancedDockingSystem.so.10:_ZNK3ADS16DockAreaTitleBar10metaObjectEv
libAdvancedDockingSystem.so.10:_ZNK3ADS16DockAreaTitleBar6buttonENS_15eTitleBarButtonE
libAdvancedDockingSystem.so.10:_ZNK3ADS16DockAreaTitleBar6tabBarEv
libAdvancedDockingSystem.so.10:_ZNK3ADS16DockAreaTitleBar7indexOfEP7QWidget
libAdvancedDockingSystem.so.10:_ZNK3ADS19DockContainerWidget10dockAreaAtERK6QPoint
libAdvancedDockingSystem.so.10:_ZNK3ADS19DockContainerWidget10dumpLayoutEv
libAdvancedDockingSystem.so.10:_ZNK3ADS19DockContainerWidget10isFloatingEv
libAdvancedDockingSystem.so.10:_ZNK3ADS19DockContainerWidget10metaObjectEv
libAdvancedDockingSystem.so.10:_ZNK3ADS19DockContainerWidget11dockWidgetsEv
libAdvancedDockingSystem.so.10:_ZNK3ADS19DockContainerWidget11emitAndExitEv
libAdvancedDockingSystem.so.10:_ZNK3ADS19DockContainerWidget11isInFrontOfEPS0_
libAdvancedDockingSystem.so.10:_ZNK3ADS19DockContainerWidget11zOrderIndexEv
libAdvancedDockingSystem.so.10:_ZNK3ADS19DockContainerWidget12rootSplitterEv
libAdvancedDockingSystem.so.10:_ZNK3ADS19DockContainerWidget13dockAreaCountEv
libAdvancedDockingSystem.so.10:_ZNK3ADS19DockContainerWidget14floatingWidgetEv
libAdvancedDockingSystem.so.10:_ZNK3ADS19DockContainerWidget15openedDockAreasEv
libAdvancedDockingSystem.so.10:_ZNK3ADS19DockContainerWidget16topLevelDockAreaEv
libAdvancedDockingSystem.so.10:_ZNK3ADS19DockContainerWidget18topLevelDockWidgetEv
libAdvancedDockingSystem.so.10:_ZNK3ADS19DockContainerWidget20visibleDockAreaCountEv
libAdvancedDockingSystem.so.10:_ZNK3ADS19DockContainerWidget21hasTopLevelDockWidgetEv
libAdvancedDockingSystem.so.10:_ZNK3ADS19DockContainerWidget23lastAddedDockAreaWidgetENS_14DockWidgetAreaE
libAdvancedDockingSystem.so.10:_ZNK3ADS19DockContainerWidget8dockAreaEi
libAdvancedDockingSystem.so.10:_ZNK3ADS19DockContainerWidget8featuresEv
libAdvancedDockingSystem.so.10:_ZNK3ADS19DockContainerWidget9saveStateER16QXmlStreamWriter
libAdvancedDockingSystem.so.10:_ZNK3ADS19DockFocusController10metaObjectEv
libAdvancedDockingSystem.so.10:_ZNK3ADS21DockComponentsFactory19createDockWidgetTabEPNS_10DockWidgetE
libAdvancedDockingSystem.so.10:_ZNK3ADS21DockComponentsFactory20createDockAreaTabBarEPNS_14DockAreaWidgetE
libAdvancedDockingSystem.so.10:_ZNK3ADS21DockComponentsFactory22createDockAreaTitleBarEPNS_14DockAreaWidgetE
libAdvancedDockingSystem.so.10:_ZNK3ADS21FloatingDockContainer10isClosableEv
libAdvancedDockingSystem.so.10:_ZNK3ADS21FloatingDockContainer10metaObjectEv
libAdvancedDockingSystem.so.10:_ZNK3ADS21FloatingDockContainer11dockWidgetsEv
libAdvancedDockingSystem.so.10:_ZNK3ADS21FloatingDockContainer13dockContainerEv
libAdvancedDockingSystem.so.10:_ZNK3ADS21FloatingDockContainer18topLevelDockWidgetEv
libAdvancedDockingSystem.so.10:_ZNK3ADS21FloatingDockContainer21hasTopLevelDockWidgetEv
libAdvancedDockingSystem.so.10:_ZTIN3ADS10DockWidgetE
libAdvancedDockingSystem.so.10:_ZTIN3ADS11DockManagerE
libAdvancedDockingSystem.so.10:_ZTIN3ADS11DockOverlayE
libAdvancedDockingSystem.so.10:_ZTIN3ADS12DockSplitterE
libAdvancedDockingSystem.so.10:_ZTIN3ADS12ElidingLabelE
libAdvancedDockingSystem.so.10:_ZTIN3ADS12IconProviderE
libAdvancedDockingSystem.so.10:_ZTIN3ADS13DockWidgetTabE
libAdvancedDockingSystem.so.10:_ZTIN3ADS14DockAreaTabBarE
libAdvancedDockingSystem.so.10:_ZTIN3ADS14DockAreaWidgetE
libAdvancedDockingSystem.so.10:_ZTIN3ADS16DockAreaTitleBarE
libAdvancedDockingSystem.so.10:_ZTIN3ADS19DockContainerWidgetE
libAdvancedDockingSystem.so.10:_ZTIN3ADS19DockFocusControllerE
libAdvancedDockingSystem.so.10:_ZTIN3ADS21DockComponentsFactoryE
libAdvancedDockingSystem.so.10:_ZTIN3ADS21FloatingDockContainerE
libAdvancedDockingSystem.so.10:_ZTSN3ADS10DockWidgetE
libAdvancedDockingSystem.so.10:_ZTSN3ADS11DockManagerE
libAdvancedDockingSystem.so.10:_ZTSN3ADS11DockOverlayE
libAdvancedDockingSystem.so.10:_ZTSN3ADS12DockSplitterE
libAdvancedDockingSystem.so.10:_ZTSN3ADS12ElidingLabelE
libAdvancedDockingSystem.so.10:_ZTSN3ADS12IconProviderE
libAdvancedDockingSystem.so.10:_ZTSN3ADS13DockWidgetTabE
libAdvancedDockingSystem.so.10:_ZTSN3ADS14DockAreaTabBarE
libAdvancedDockingSystem.so.10:_ZTSN3ADS14DockAreaWidgetE
libAdvancedDockingSystem.so.10:_ZTSN3ADS16DockAreaTitleBarE
libAdvancedDockingSystem.so.10:_ZTSN3ADS19DockContainerWidgetE
libAdvancedDockingSystem.so.10:_ZTSN3ADS19DockFocusControllerE
libAdvancedDockingSystem.so.10:_ZTSN3ADS21DockComponentsFactoryE
libAdvancedDockingSystem.so.10:_ZTSN3ADS21FloatingDockContainerE
libAdvancedDockingSystem.so.10:_ZTVN3ADS10DockWidgetE
libAdvancedDockingSystem.so.10:_ZTVN3ADS11DockManagerE
libAdvancedDockingSystem.so.10:_ZTVN3ADS11DockOverlayE
libAdvancedDockingSystem.so.10:_ZTVN3ADS12DockSplitterE
libAdvancedDockingSystem.so.10:_ZTVN3ADS12ElidingLabelE
libAdvancedDockingSystem.so.10:_ZTVN3ADS12IconProviderE
libAdvancedDockingSystem.so.10:_ZTVN3ADS13DockWidgetTabE
libAdvancedDockingSystem.so.10:_ZTVN3ADS14DockAreaTabBarE
libAdvancedDockingSystem.so.10:_ZTVN3ADS14DockAreaWidgetE
libAdvancedDockingSystem.so.10:_ZTVN3ADS16DockAreaTitleBarE
libAdvancedDockingSystem.so.10:_ZTVN3ADS19DockContainerWidgetE
libAdvancedDockingSystem.so.10:_ZTVN3ADS19DockFocusControllerE
libAdvancedDockingSystem.so.10:_ZTVN3ADS21DockComponentsFactoryE
libAdvancedDockingSystem.so.10:_ZTVN3ADS21FloatingDockContainerE
libAdvancedDockingSystem.so.10:_ZThn16_N3ADS10DockWidgetD0Ev
libAdvancedDockingSystem.so.10:_ZThn16_N3ADS10DockWidgetD1Ev
libAdvancedDockingSystem.so.10:_ZThn16_N3ADS11DockManagerD0Ev
libAdvancedDockingSystem.so.10:_ZThn16_N3ADS11DockManagerD1Ev
libAdvancedDockingSystem.so.10:_ZThn16_N3ADS11DockOverlayD0Ev
libAdvancedDockingSystem.so.10:_ZThn16_N3ADS11DockOverlayD1Ev
libAdvancedDockingSystem.so.10:_ZThn16_N3ADS12DockSplitterD0Ev
libAdvancedDockingSystem.so.10:_ZThn16_N3ADS12DockSplitterD1Ev
libAdvancedDockingSystem.so.10:_ZThn16_N3ADS12ElidingLabelD0Ev
libAdvancedDockingSystem.so.10:_ZThn16_N3ADS12ElidingLabelD1Ev
libAdvancedDockingSystem.so.10:_ZThn16_N3ADS13DockWidgetTabD0Ev
libAdvancedDockingSystem.so.10:_ZThn16_N3ADS13DockWidgetTabD1Ev
libAdvancedDockingSystem.so.10:_ZThn16_N3ADS14DockAreaTabBarD0Ev
libAdvancedDockingSystem.so.10:_ZThn16_N3ADS14DockAreaTabBarD1Ev
libAdvancedDockingSystem.so.10:_ZThn16_N3ADS14DockAreaWidgetD0Ev
libAdvancedDockingSystem.so.10:_ZThn16_N3ADS14DockAreaWidgetD1Ev
libAdvancedDockingSystem.so.10:_ZThn16_N3ADS16DockAreaTitleBarD0Ev
libAdvancedDockingSystem.so.10:_ZThn16_N3ADS16DockAreaTitleBarD1Ev
libAdvancedDockingSystem.so.10:_ZThn16_N3ADS19DockContainerWidgetD0Ev
libAdvancedDockingSystem.so.10:_ZThn16_N3ADS19DockContainerWidgetD1Ev
libAdvancedDockingSystem.so.10:_ZThn16_N3ADS21FloatingDockContainerD0Ev
libAdvancedDockingSystem.so.10:_ZThn16_N3ADS21FloatingDockContainerD1Ev
libAdvancedDockingSystem.so.10:_ZThn40_N3ADS21FloatingDockContainer12moveFloatingEv
libAdvancedDockingSystem.so.10:_ZThn40_N3ADS21FloatingDockContainer13startFloatingERK6QPointRK5QSizeNS_10eDragStateEP7QWidget
libAdvancedDockingSystem.so.10:_ZThn40_N3ADS21FloatingDockContainer14finishDraggingEv
libAdvancedDockingSystem.so.10:_ZThn40_N3ADS21FloatingDockContainerD0Ev
libAdvancedDockingSystem.so.10:_ZThn40_N3ADS21FloatingDockContainerD1Ev
libAggregation.so.10:_ZN11Aggregation9Aggregate10deleteSelfEP7QObject
libAggregation.so.10:_ZN11Aggregation9Aggregate11qt_metacallEN11QMetaObject4CallEiPPv
libAggregation.so.10:_ZN11Aggregation9Aggregate11qt_metacastEPKc
libAggregation.so.10:_ZN11Aggregation9Aggregate12aggregateMapEv
libAggregation.so.10:_ZN11Aggregation9Aggregate15parentAggregateEP7QObject
libAggregation.so.10:_ZN11Aggregation9Aggregate16staticMetaObjectE
libAggregation.so.10:_ZN11Aggregation9Aggregate3addEP7QObject
libAggregation.so.10:_ZN11Aggregation9Aggregate4lockEv
libAggregation.so.10:_ZN11Aggregation9Aggregate6removeEP7QObject
libAggregation.so.10:_ZN11Aggregation9Aggregate7changedEv
libAggregation.so.10:_ZN11Aggregation9AggregateC1EP7QObject
libAggregation.so.10:_ZN11Aggregation9AggregateC2EP7QObject
libAggregation.so.10:_ZN11Aggregation9AggregateD0Ev
libAggregation.so.10:_ZN11Aggregation9AggregateD1Ev
libAggregation.so.10:_ZN11Aggregation9AggregateD2Ev
libAggregation.so.10:_ZNK11Aggregation9Aggregate10metaObjectEv
libAggregation.so.10:_ZTIN11Aggregation9AggregateE
libAggregation.so.10:_ZTSN11Aggregation9AggregateE
libAggregation.so.10:_ZTVN11Aggregation9AggregateE
libAndroid.so:_ZN7Android13AndroidConfig10getAvdNameERK7QString
libAndroid.so:_ZN7Android13AndroidConfig10getJdkPathEv
libAndroid.so:_ZN7Android13AndroidConfig10ndkVersionERKN5Utils8FilePathE
libAndroid.so:_ZN7Android13AndroidConfig11displayNameERKN15ProjectExplorer3AbiE
libAndroid.so:_ZN7Android13AndroidConfig11toolsPrefixERKN15ProjectExplorer3AbiE
libAndroid.so:_ZN7Android13AndroidConfig12addCustomNdkERK7QString
libAndroid.so:_ZN7Android13AndroidConfig13getSDKVersionERK7QString
libAndroid.so:_ZN7Android13AndroidConfig13setDefaultNdkERKN5Utils8FilePathE
libAndroid.so:_ZN7Android13AndroidConfig14defaultSdkPathEv
libAndroid.so:_ZN7Android13AndroidConfig14gdbPathFromNdkERKN15ProjectExplorer3AbiERKN5Utils8FilePathE
libAndroid.so:_ZN7Android13AndroidConfig14setSdkLocationERKN5Utils8FilePathE
libAndroid.so:_ZN7Android13AndroidConfig15apiLevelNameForEPKNS_11SdkPlatformE
libAndroid.so:_ZN7Android13AndroidConfig15lldbPathFromNdkERKN5Utils8FilePathE
libAndroid.so:_ZN7Android13AndroidConfig15makePathFromNdkERKN5Utils8FilePathE
libAndroid.so:_ZN7Android13AndroidConfig15removeCustomNdkERK7QString
libAndroid.so:_ZN7Android13AndroidConfig15setEmulatorArgsERK7QString
libAndroid.so:_ZN7Android13AndroidConfig15toolchainPrefixERKN15ProjectExplorer3AbiE
libAndroid.so:_ZN7Android13AndroidConfig16apiLevelNamesForERK5QListIPNS_11SdkPlatformEE
libAndroid.so:_ZN7Android13AndroidConfig16clangPathFromNdkERKN5Utils8FilePathE
libAndroid.so:_ZN7Android13AndroidConfig17getDevicePropertyERK7QStringS3_
libAndroid.so:_ZN7Android13AndroidConfig18setOpenJDKLocationERKN5Utils8FilePathE
libAndroid.so:_ZN7Android13AndroidConfig18setOpenSslLocationERKN5Utils8FilePathE
libAndroid.so:_ZN7Android13AndroidConfig20toolchainHostFromNdkERKN5Utils8FilePathE
libAndroid.so:_ZN7Android13AndroidConfig20toolchainPathFromNdkERKN5Utils8FilePathENS1_6OsTypeE
libAndroid.so:_ZN7Android13AndroidConfig21parseDependenciesJsonEv
libAndroid.so:_ZN7Android13AndroidConfig21setSdkManagerToolArgsERK5QListI7QStringE
libAndroid.so:_ZN7Android13AndroidConfig22allEssentialsInstalledEPNS_8Internal17AndroidSdkManagerE
libAndroid.so:_ZN7Android13AndroidConfig23setAutomaticKitCreationEb
libAndroid.so:_ZN7Android13AndroidConfig24setTemporarySdkToolsPathERKN5Utils8FilePathE
libAndroid.so:_ZN7Android13AndroidConfig4loadERK9QSettings
libAndroid.so:_ZN7Android13AndroidConfig7getAbisERK7QString
libAndroid.so:_ZN7Android14AndroidManager10minimumSDKEPKN15ProjectExplorer3KitE
libAndroid.so:_ZN7Android14AndroidManager10minimumSDKEPKN15ProjectExplorer6TargetE
libAndroid.so:_ZN7Android14AndroidManager10runCommandERKN5Utils11CommandLineERK10QByteArrayi
libAndroid.so:_ZN7Android14AndroidManager11archTripletERK7QString
libAndroid.so:_ZN7Android14AndroidManager11matchedAbisERK5QListI7QStringES5_
libAndroid.so:_ZN7Android14AndroidManager11packageNameEPKN15ProjectExplorer6TargetE
libAndroid.so:_ZN7Android14AndroidManager11packageNameERKN5Utils8FilePathE
libAndroid.so:_ZN7Android14AndroidManager11packagePathEPKN15ProjectExplorer6TargetE
libAndroid.so:_ZN7Android14AndroidManager11qt_metacallEN11QMetaObject4CallEiPPv
libAndroid.so:_ZN7Android14AndroidManager11qt_metacastEPKc
libAndroid.so:_ZN7Android14AndroidManager12activityNameEPKN15ProjectExplorer6TargetE
libAndroid.so:_ZN7Android14AndroidManager12manifestPathEPKN15ProjectExplorer6TargetE
libAndroid.so:_ZN7Android14AndroidManager13runAdbCommandERK5QListI7QStringERK10QByteArrayi
libAndroid.so:_ZN7Android14AndroidManager13setDeviceAbisEPN15ProjectExplorer6TargetERK5QListI7QStringE
libAndroid.so:_ZN7Android14AndroidManager14androidAbi2AbiERK7QString
libAndroid.so:_ZN7Android14AndroidManager14buildDirectoryEPKN15ProjectExplorer6TargetE
libAndroid.so:_ZN7Android14AndroidManager14buildTargetSDKEPKN15ProjectExplorer6TargetE
libAndroid.so:_ZN7Android14AndroidManager14deviceApiLevelEPKN15ProjectExplorer6TargetE
libAndroid.so:_ZN7Android14AndroidManager15applicationAbisEPKN15ProjectExplorer6TargetE
libAndroid.so:_ZN7Android14AndroidManager15setManifestPathEPN15ProjectExplorer6TargetERKN5Utils8FilePathE
libAndroid.so:_ZN7Android14AndroidManager16staticMetaObjectE
libAndroid.so:_ZN7Android14AndroidManager17defaultMinimumSDKEPKN9QtSupport9QtVersionE
libAndroid.so:_ZN7Android14AndroidManager17isQt5CmakeProjectEPKN15ProjectExplorer6TargetE
libAndroid.so:_ZN7Android14AndroidManager17setDeviceApiLevelEPN15ProjectExplorer6TargetEi
libAndroid.so:_ZN7Android14AndroidManager18deploymentSettingsEPKN15ProjectExplorer6TargetE
libAndroid.so:_ZN7Android14AndroidManager18devicePreferredAbiERK5QListI7QStringES5_
libAndroid.so:_ZN7Android14AndroidManager18deviceSerialNumberEPKN15ProjectExplorer6TargetE
libAndroid.so:_ZN7Android14AndroidManager18installQASIPackageEPN15ProjectExplorer6TargetERKN5Utils8FilePathE
libAndroid.so:_ZN7Android14AndroidManager18manifestSourcePathEPKN15ProjectExplorer6TargetE
libAndroid.so:_ZN7Android14AndroidManager20isQtCreatorGeneratedERKN5Utils8FilePathE
libAndroid.so:_ZN7Android14AndroidManager21androidBuildDirectoryEPKN15ProjectExplorer6TargetE
libAndroid.so:_ZN7Android14AndroidManager21apkDevicePreferredAbiEPKN15ProjectExplorer6TargetE
libAndroid.so:_ZN7Android14AndroidManager21checkKeystorePasswordERKN5Utils8FilePathERK7QString
libAndroid.so:_ZN7Android14AndroidManager21runAdbCommandDetachedERK5QListI7QStringEPS2_b
libAndroid.so:_ZN7Android14AndroidManager21setDeviceSerialNumberEPN15ProjectExplorer6TargetERK7QString
libAndroid.so:_ZN7Android14AndroidManager22androidNameForApiLevelEi
libAndroid.so:_ZN7Android14AndroidManager22checkCertificateExistsERKN5Utils8FilePathERK7QStringS7_
libAndroid.so:_ZN7Android14AndroidManager24checkCertificatePasswordERKN5Utils8FilePathERK7QStringS7_S7_
libAndroid.so:_ZN7Android21AndroidConfigurations10m_instanceE
libAndroid.so:_ZN7Android21AndroidConfigurations10sdkManagerEv
libAndroid.so:_ZN7Android21AndroidConfigurations11qt_metacallEN11QMetaObject4CallEiPPv
libAndroid.so:_ZN7Android21AndroidConfigurations11qt_metacastEPKc
libAndroid.so:_ZN7Android21AndroidConfigurations13aboutToUpdateEv
libAndroid.so:_ZN7Android21AndroidConfigurations13currentConfigEv
libAndroid.so:_ZN7Android21AndroidConfigurations16staticMetaObjectE
libAndroid.so:_ZN7Android21AndroidConfigurations16toolsEnvironmentERKNS_13AndroidConfigE
libAndroid.so:_ZN7Android21AndroidConfigurations19removeOldToolChainsEv
libAndroid.so:_ZN7Android21AndroidConfigurations19updateAndroidDeviceEv
libAndroid.so:_ZN7Android21AndroidConfigurations21registerNewToolChainsEv
libAndroid.so:_ZN7Android21AndroidConfigurations21removeUnusedDebuggersEv
libAndroid.so:_ZN7Android21AndroidConfigurations22updateAutomaticKitListEv
libAndroid.so:_ZN7Android21AndroidConfigurations36registerCustomToolChainsAndDebuggersEv
libAndroid.so:_ZN7Android21AndroidConfigurations4loadEv
libAndroid.so:_ZN7Android21AndroidConfigurations4saveEv
libAndroid.so:_ZN7Android21AndroidConfigurations7updatedEv
libAndroid.so:_ZN7Android21AndroidConfigurations8instanceEv
libAndroid.so:_ZN7Android21AndroidConfigurations9setConfigERKNS_13AndroidConfigE
libAndroid.so:_ZN7Android21AndroidConfigurationsC1Ev
libAndroid.so:_ZN7Android21AndroidConfigurationsC2Ev
libAndroid.so:_ZN7Android21AndroidConfigurationsD0Ev
libAndroid.so:_ZN7Android21AndroidConfigurationsD1Ev
libAndroid.so:_ZN7Android21AndroidConfigurationsD2Ev
libAndroid.so:_ZN7Android23AndroidRunConfiguration11qt_metacallEN11QMetaObject4CallEiPPv
libAndroid.so:_ZN7Android23AndroidRunConfiguration11qt_metacastEPKc
libAndroid.so:_ZN7Android23AndroidRunConfiguration16staticMetaObjectE
libAndroid.so:_ZN7Android23AndroidRunConfigurationC1EPN15ProjectExplorer6TargetEN5Utils2IdE
libAndroid.so:_ZN7Android23AndroidRunConfigurationC2EPN15ProjectExplorer6TargetEN5Utils2IdE
libAndroid.so:_ZN7Android28AndroidExtraLibraryListModel10addEntriesERK5QListI7QStringE
libAndroid.so:_ZN7Android28AndroidExtraLibraryListModel11qt_metacallEN11QMetaObject4CallEiPPv
libAndroid.so:_ZN7Android28AndroidExtraLibraryListModel11qt_metacastEPKc
libAndroid.so:_ZN7Android28AndroidExtraLibraryListModel11updateModelEv
libAndroid.so:_ZN7Android28AndroidExtraLibraryListModel13removeEntriesE5QListI11QModelIndexE
libAndroid.so:_ZN7Android28AndroidExtraLibraryListModel14enabledChangedEb
libAndroid.so:_ZN7Android28AndroidExtraLibraryListModel16staticMetaObjectE
libAndroid.so:_ZN7Android28AndroidExtraLibraryListModelC1EPN15ProjectExplorer11BuildSystemEP7QObject
libAndroid.so:_ZN7Android28AndroidExtraLibraryListModelC2EPN15ProjectExplorer11BuildSystemEP7QObject
libAndroid.so:_ZNK7Android13AndroidConfig10defaultNdkEv
libAndroid.so:_ZNK7Android13AndroidConfig10isValidNdkERK7QString
libAndroid.so:_ZNK7Android13AndroidConfig10ndkVersionEPKN9QtSupport9QtVersionE
libAndroid.so:_ZNK7Android13AndroidConfig10sdkToolsOkEv
libAndroid.so:_ZNK7Android13AndroidConfig11adbToolPathEv
libAndroid.so:_ZNK7Android13AndroidConfig11isConnectedERK7QString
libAndroid.so:_ZNK7Android13AndroidConfig11keytoolPathEv
libAndroid.so:_ZNK7Android13AndroidConfig11ndkLocationEPKN9QtSupport9QtVersionE
libAndroid.so:_ZNK7Android13AndroidConfig11sdkLocationEv
libAndroid.so:_ZNK7Android13AndroidConfig12emulatorArgsEv
libAndroid.so:_ZNK7Android13AndroidConfig13allEssentialsEv
libAndroid.so:_ZNK7Android13AndroidConfig13toolchainHostEPKN9QtSupport9QtVersionE
libAndroid.so:_ZNK7Android13AndroidConfig13toolchainPathEPKN9QtSupport9QtVersionE
libAndroid.so:_ZNK7Android13AndroidConfig14openJDKBinPathEv
libAndroid.so:_ZNK7Android13AndroidConfig15getProductModelERK7QString
libAndroid.so:_ZNK7Android13AndroidConfig15openJDKLocationEv
libAndroid.so:_ZNK7Android13AndroidConfig15openSslLocationEv
libAndroid.so:_ZNK7Android13AndroidConfig15sdkToolsVersionEv
libAndroid.so:_ZNK7Android13AndroidConfig16connectedDevicesEP7QString
libAndroid.so:_ZNK7Android13AndroidConfig16emulatorToolPathEv
libAndroid.so:_ZNK7Android13AndroidConfig16getCustomNdkListEv
libAndroid.so:_ZNK7Android13AndroidConfig17buildToolsVersionEv
libAndroid.so:_ZNK7Android13AndroidConfig17defaultEssentialsEv
libAndroid.so:_ZNK7Android13AndroidConfig18avdManagerToolPathEv
libAndroid.so:_ZNK7Android13AndroidConfig18sdkManagerToolArgsEv
libAndroid.so:_ZNK7Android13AndroidConfig18sdkManagerToolPathEv
libAndroid.so:_ZNK7Android13AndroidConfig19sdkToolsVersionPathEv
libAndroid.so:_ZNK7Android13AndroidConfig20automaticKitCreationEv
libAndroid.so:_ZNK7Android13AndroidConfig20bestNdkPlatformMatchEiPKN9QtSupport9QtVersionE
libAndroid.so:_ZNK7Android13AndroidConfig21availableNdkPlatformsEPKN9QtSupport9QtVersionE
libAndroid.so:_ZNK7Android13AndroidConfig23essentialsFromQtVersionERKN9QtSupport9QtVersionE
libAndroid.so:_ZNK7Android13AndroidConfig23ndkSubPathFromQtVersionERKN9QtSupport9QtVersionE
libAndroid.so:_ZNK7Android13AndroidConfig4saveER9QSettings
libAndroid.so:_ZNK7Android13AndroidConfig7gdbPathERKN15ProjectExplorer3AbiEPKN9QtSupport9QtVersionE
libAndroid.so:_ZNK7Android14AndroidManager10metaObjectEv
libAndroid.so:_ZNK7Android21AndroidConfigurations10metaObjectEv
libAndroid.so:_ZNK7Android23AndroidRunConfiguration10metaObjectEv
libAndroid.so:_ZNK7Android28AndroidExtraLibraryListModel10metaObjectEv
libAndroid.so:_ZNK7Android28AndroidExtraLibraryListModel11columnCountERK11QModelIndex
libAndroid.so:_ZNK7Android28AndroidExtraLibraryListModel4dataERK11QModelIndexi
libAndroid.so:_ZNK7Android28AndroidExtraLibraryListModel5indexEiiRK11QModelIndex
libAndroid.so:_ZNK7Android28AndroidExtraLibraryListModel6parentERK11QModelIndex
libAndroid.so:_ZNK7Android28AndroidExtraLibraryListModel8rowCountERK11QModelIndex
libAndroid.so:_ZTIN7Android14AndroidManagerE
libAndroid.so:_ZTIN7Android21AndroidConfigurationsE
libAndroid.so:_ZTIN7Android23AndroidRunConfigurationE
libAndroid.so:_ZTIN7Android28AndroidExtraLibraryListModelE
libAndroid.so:_ZTSN7Android14AndroidManagerE
libAndroid.so:_ZTSN7Android21AndroidConfigurationsE
libAndroid.so:_ZTSN7Android23AndroidRunConfigurationE
libAndroid.so:_ZTSN7Android28AndroidExtraLibraryListModelE
libAndroid.so:_ZTVN7Android14AndroidManagerE
libAndroid.so:_ZTVN7Android21AndroidConfigurationsE
libAndroid.so:_ZTVN7Android23AndroidRunConfigurationE
libAndroid.so:_ZTVN7Android28AndroidExtraLibraryListModelE
libAndroid.so:qt_plugin_instance
libAndroid.so:qt_plugin_query_metadata_v2
libAutoTest.so:_ZN8Autotest13TestTreeModel11qt_metacallEN11QMetaObject4CallEiPPv
libAutoTest.so:_ZN8Autotest13TestTreeModel11qt_metacastEPKc
libAutoTest.so:_ZN8Autotest13TestTreeModel11removeFilesERK5QListIN5Utils8FilePathEE
libAutoTest.so:_ZN8Autotest13TestTreeModel13onDataChangedERK11QModelIndexS3_RK5QListIiE
libAutoTest.so:_ZN8Autotest13TestTreeModel13sweepChildrenEPNS_12TestTreeItemE
libAutoTest.so:_ZN8Autotest13TestTreeModel14markForRemovalERKN5Utils8FilePathE
libAutoTest.so:_ZN8Autotest13TestTreeModel15filterAndInsertEPNS_12TestTreeItemES2_b
libAutoTest.so:_ZN8Autotest13TestTreeModel15onTargetChangedEPN15ProjectExplorer6TargetE
libAutoTest.so:_ZN8Autotest13TestTreeModel15testItemsByNameERK7QString
libAutoTest.so:_ZN8Autotest13TestTreeModel16clearFailedMarksEv
libAutoTest.so:_ZN8Autotest13TestTreeModel16staticMetaObjectE
libAutoTest.so:_ZN8Autotest13TestTreeModel17handleParseResultEPKNS_15TestParseResultEPNS_12TestTreeItemE
libAutoTest.so:_ZN8Autotest13TestTreeModel18insertItemInParentEPNS_12TestTreeItemES2_b
libAutoTest.so:_ZN8Autotest13TestTreeModel18onParseResultReadyE14QSharedPointerINS_15TestParseResultEE
libAutoTest.so:_ZN8Autotest13TestTreeModel18removeAllTestItemsEv
libAutoTest.so:_ZN8Autotest13TestTreeModel20revalidateCheckStateEPNS_13ITestTreeItemE
libAutoTest.so:_ZN8Autotest13TestTreeModel20synchronizeTestToolsEv
libAutoTest.so:_ZN8Autotest13TestTreeModel20testTreeModelChangedEv
libAutoTest.so:_ZN8Autotest13TestTreeModel21updateCheckStateCacheEv
libAutoTest.so:_ZN8Autotest13TestTreeModel22removeAllTestToolItemsEv
libAutoTest.so:_ZN8Autotest13TestTreeModel23setupParsingConnectionsEv
libAutoTest.so:_ZN8Autotest13TestTreeModel23updatedActiveFrameworksEi
libAutoTest.so:_ZN8Autotest13TestTreeModel25onBuildSystemTestsUpdatedEv
libAutoTest.so:_ZN8Autotest13TestTreeModel25synchronizeTestFrameworksEv
libAutoTest.so:_ZN8Autotest13TestTreeModel31markAllFrameworkItemsForRemovalEv
libAutoTest.so:_ZN8Autotest13TestTreeModel5sweepEv
libAutoTest.so:_ZN8Autotest13TestTreeModel7rebuildERK5QListIN5Utils2IdEE
libAutoTest.so:_ZN8Autotest13TestTreeModel7setDataERK11QModelIndexRK8QVarianti
libAutoTest.so:_ZN8Autotest13TestTreeModel8instanceEv
libAutoTest.so:_ZN8Autotest13TestTreeModelC1EPNS_8Internal14TestCodeParserE
libAutoTest.so:_ZN8Autotest13TestTreeModelC2EPNS_8Internal14TestCodeParserE
libAutoTest.so:_ZN8Autotest13TestTreeModelD0Ev
libAutoTest.so:_ZN8Autotest13TestTreeModelD1Ev
libAutoTest.so:_ZN8Autotest13TestTreeModelD2Ev
libAutoTest.so:_ZN8Autotest8Internal10TestRunner10debugTestsEv
libAutoTest.so:_ZN8Autotest8Internal10TestRunner10onFinishedEv
libAutoTest.so:_ZN8Autotest8Internal10TestRunner11qt_metacallEN11QMetaObject4CallEiPPv
libAutoTest.so:_ZN8Autotest8Internal10TestRunner11qt_metacastEPKc
libAutoTest.so:_ZN8Autotest8Internal10TestRunner12buildProjectEPN15ProjectExplorer7ProjectE
libAutoTest.so:_ZN8Autotest8Internal10TestRunner12reportResultENS_10ResultTypeERK7QString
libAutoTest.so:_ZN8Autotest8Internal10TestRunner12scheduleNextEv
libAutoTest.so:_ZN8Autotest8Internal10TestRunner13buildFinishedEb
libAutoTest.so:_ZN8Autotest8Internal10TestRunner13cancelCurrentENS1_12CancelReasonE
libAutoTest.so:_ZN8Autotest8Internal10TestRunner13onProcessDoneEv
libAutoTest.so:_ZN8Autotest8Internal10TestRunner13reportSummaryERK7QStringRK5QHashINS_10ResultTypeEiE
libAutoTest.so:_ZN8Autotest8Internal10TestRunner14runTestsHelperEv
libAutoTest.so:_ZN8Autotest8Internal10TestRunner14testRunStartedEv
libAutoTest.so:_ZN8Autotest8Internal10TestRunner15runOrDebugTestsEv
libAutoTest.so:_ZN8Autotest8Internal10TestRunner15setUpProcessEnvEv
libAutoTest.so:_ZN8Autotest8Internal10TestRunner15testResultReadyERKNS_10TestResultE
libAutoTest.so:_ZN8Autotest8Internal10TestRunner15testRunFinishedEv
libAutoTest.so:_ZN8Autotest8Internal10TestRunner16hadDisabledTestsEi
libAutoTest.so:_ZN8Autotest8Internal10TestRunner16staticMetaObjectE
libAutoTest.so:_ZN8Autotest8Internal10TestRunner18currentConfigValidEv
libAutoTest.so:_ZN8Autotest8Internal10TestRunner18requestStopTestRunEv
libAutoTest.so:_ZN8Autotest8Internal10TestRunner20onBuildQueueFinishedEb
libAutoTest.so:_ZN8Autotest8Internal10TestRunner20onBuildSystemUpdatedEv
libAutoTest.so:_ZN8Autotest8Internal10TestRunner21resetInternalPointersEv
libAutoTest.so:_ZN8Autotest8Internal10TestRunner26precheckTestConfigurationsEv
libAutoTest.so:_ZN8Autotest8Internal10TestRunner7runTestENS_11TestRunModeEPKNS_13ITestTreeItemE
libAutoTest.so:_ZN8Autotest8Internal10TestRunner8instanceEv
libAutoTest.so:_ZN8Autotest8Internal10TestRunner8runTestsENS_11TestRunModeERK5QListIPNS_18ITestConfigurationEE
libAutoTest.so:_ZN8Autotest8Internal10TestRunnerC1Ev
libAutoTest.so:_ZN8Autotest8Internal10TestRunnerC2Ev
libAutoTest.so:_ZN8Autotest8Internal10TestRunnerD0Ev
libAutoTest.so:_ZN8Autotest8Internal10TestRunnerD1Ev
libAutoTest.so:_ZN8Autotest8Internal10TestRunnerD2Ev
libAutoTest.so:_ZNK8Autotest13TestTreeModel10metaObjectEv
libAutoTest.so:_ZNK8Autotest13TestTreeModel14getFailedTestsEv
libAutoTest.so:_ZNK8Autotest13TestTreeModel14hasFailedTestsEv
libAutoTest.so:_ZNK8Autotest13TestTreeModel15getAllTestCasesEv
libAutoTest.so:_ZNK8Autotest13TestTreeModel15getTestsForFileERKN5Utils8FilePathE
libAutoTest.so:_ZNK8Autotest13TestTreeModel16getSelectedTestsEv
libAutoTest.so:_ZNK8Autotest13TestTreeModel17testToolRootNodesEv
libAutoTest.so:_ZNK8Autotest13TestTreeModel18frameworkRootNodesEv
libAutoTest.so:_ZNK8Autotest13TestTreeModel5flagsERK11QModelIndex
libAutoTest.so:_ZNK8Autotest13TestTreeModel8hasTestsEv
libAutoTest.so:_ZNK8Autotest8Internal10TestRunner10metaObjectEv
libAutoTest.so:_ZTIN8Autotest13TestTreeModelE
libAutoTest.so:_ZTIN8Autotest8Internal10TestRunnerE
libAutoTest.so:_ZTSN8Autotest13TestTreeModelE
libAutoTest.so:_ZTSN8Autotest8Internal10TestRunnerE
libAutoTest.so:_ZTVN8Autotest13TestTreeModelE
libAutoTest.so:_ZTVN8Autotest8Internal10TestRunnerE
libAutoTest.so:qt_plugin_instance
libAutoTest.so:qt_plugin_query_metadata_v2
libAutotoolsProjectManager.so:qt_plugin_instance
libAutotoolsProjectManager.so:qt_plugin_query_metadata_v2
libBareMetal.so:qt_plugin_instance
libBareMetal.so:qt_plugin_query_metadata_v2
libBazaar.so:qt_plugin_instance
libBazaar.so:qt_plugin_query_metadata_v2
libBeautifier.so:qt_plugin_instance
libBeautifier.so:qt_plugin_query_metadata_v2
libBinEditor.so:qt_plugin_instance
libBinEditor.so:qt_plugin_query_metadata_v2
libBookmarks.so:qt_plugin_instance
libBookmarks.so:qt_plugin_query_metadata_v2
libBoot2Qt.so:qt_plugin_instance
libBoot2Qt.so:qt_plugin_query_metadata_v2
libCMakeProjectManager.so:_ZN19CMakeProjectManager11CMakeConfig13fromArgumentsERK5QListI7QStringERS3_
libCMakeProjectManager.so:_ZN19CMakeProjectManager11CMakeConfig8fromFileERKN5Utils8FilePathEP7QString
libCMakeProjectManager.so:_ZN19CMakeProjectManager11CMakeParser10handleLineERK7QStringN5Utils12OutputFormatE
libCMakeProjectManager.so:_ZN19CMakeProjectManager11CMakeParser11qt_metacallEN11QMetaObject4CallEiPPv
libCMakeProjectManager.so:_ZN19CMakeProjectManager11CMakeParser11qt_metacastEPKc
libCMakeProjectManager.so:_ZN19CMakeProjectManager11CMakeParser16staticMetaObjectE
libCMakeProjectManager.so:_ZN19CMakeProjectManager11CMakeParser18setSourceDirectoryERKN5Utils8FilePathE
libCMakeProjectManager.so:_ZN19CMakeProjectManager11CMakeParser5flushEv
libCMakeProjectManager.so:_ZN19CMakeProjectManager11CMakeParserC1Ev
libCMakeProjectManager.so:_ZN19CMakeProjectManager11CMakeParserC2Ev
libCMakeProjectManager.so:_ZN19CMakeProjectManager12CMakeProject11clearIssuesEv
libCMakeProjectManager.so:_ZN19CMakeProjectManager12CMakeProject11qt_metacallEN11QMetaObject4CallEiPPv
libCMakeProjectManager.so:_ZN19CMakeProjectManager12CMakeProject11qt_metacastEPKc
libCMakeProjectManager.so:_ZN19CMakeProjectManager12CMakeProject11readPresetsEv
libCMakeProjectManager.so:_ZN19CMakeProjectManager12CMakeProject11setupTargetEPN15ProjectExplorer6TargetE
libCMakeProjectManager.so:_ZN19CMakeProjectManager12CMakeProject14combinePresetsERNS_8Internal11PresetsDataES3_
libCMakeProjectManager.so:_ZN19CMakeProjectManager12CMakeProject16staticMetaObjectE
libCMakeProjectManager.so:_ZN19CMakeProjectManager12CMakeProject17setupBuildPresetsERNS_8Internal11PresetsDataE
libCMakeProjectManager.so:_ZN19CMakeProjectManager12CMakeProject8addIssueEN15ProjectExplorer4Task8TaskTypeERK7QString
libCMakeProjectManager.so:_ZN19CMakeProjectManager12CMakeProjectC1ERKN5Utils8FilePathE
libCMakeProjectManager.so:_ZN19CMakeProjectManager12CMakeProjectC2ERKN5Utils8FilePathE
libCMakeProjectManager.so:_ZN19CMakeProjectManager12CMakeProjectD0Ev
libCMakeProjectManager.so:_ZN19CMakeProjectManager12CMakeProjectD1Ev
libCMakeProjectManager.so:_ZN19CMakeProjectManager12CMakeProjectD2Ev
libCMakeProjectManager.so:_ZN19CMakeProjectManager14CMakeKitAspect11cmakeToolIdEPKN15ProjectExplorer3KitE
libCMakeProjectManager.so:_ZN19CMakeProjectManager14CMakeKitAspect12setCMakeToolEPN15ProjectExplorer3KitEN5Utils2IdE
libCMakeProjectManager.so:_ZN19CMakeProjectManager14CMakeKitAspect21msgUnsupportedVersionERK10QByteArray
libCMakeProjectManager.so:_ZN19CMakeProjectManager14CMakeKitAspect2idEv
libCMakeProjectManager.so:_ZN19CMakeProjectManager14CMakeKitAspect3fixEPN15ProjectExplorer3KitE
libCMakeProjectManager.so:_ZN19CMakeProjectManager14CMakeKitAspect5setupEPN15ProjectExplorer3KitE
libCMakeProjectManager.so:_ZN19CMakeProjectManager14CMakeKitAspect9cmakeToolEPKN15ProjectExplorer3KitE
libCMakeProjectManager.so:_ZN19CMakeProjectManager14CMakeKitAspectC1Ev
libCMakeProjectManager.so:_ZN19CMakeProjectManager14CMakeKitAspectC2Ev
libCMakeProjectManager.so:_ZN19CMakeProjectManager15CMakeConfigItem10fromStringERK7QString
libCMakeProjectManager.so:_ZN19CMakeProjectManager15CMakeConfigItem15cmakeSplitValueERK7QStringb
libCMakeProjectManager.so:_ZN19CMakeProjectManager15CMakeConfigItem16typeStringToTypeERK10QByteArray
libCMakeProjectManager.so:_ZN19CMakeProjectManager15CMakeConfigItem16typeToTypeStringENS0_4TypeE
libCMakeProjectManager.so:_ZN19CMakeProjectManager15CMakeConfigItem4lessERKS0_S2_
libCMakeProjectManager.so:_ZN19CMakeProjectManager15CMakeConfigItem6toBoolERK7QString
libCMakeProjectManager.so:_ZN19CMakeProjectManager15CMakeConfigItemC1ERK10QByteArrayNS0_4TypeES3_
libCMakeProjectManager.so:_ZN19CMakeProjectManager15CMakeConfigItemC1ERK10QByteArrayNS0_4TypeES3_S3_RK5QListI7QStringE
libCMakeProjectManager.so:_ZN19CMakeProjectManager15CMakeConfigItemC1ERK10QByteArrayS3_
libCMakeProjectManager.so:_ZN19CMakeProjectManager15CMakeConfigItemC1Ev
libCMakeProjectManager.so:_ZN19CMakeProjectManager15CMakeConfigItemC2ERK10QByteArrayNS0_4TypeES3_
libCMakeProjectManager.so:_ZN19CMakeProjectManager15CMakeConfigItemC2ERK10QByteArrayNS0_4TypeES3_S3_RK5QListI7QStringE
libCMakeProjectManager.so:_ZN19CMakeProjectManager15CMakeConfigItemC2ERK10QByteArrayS3_
libCMakeProjectManager.so:_ZN19CMakeProjectManager15CMakeConfigItemC2Ev
libCMakeProjectManager.so:_ZN19CMakeProjectManager16CMakeToolManager10cmakeAddedERKN5Utils2IdE
libCMakeProjectManager.so:_ZN19CMakeProjectManager16CMakeToolManager10cmakeToolsEv
libCMakeProjectManager.so:_ZN19CMakeProjectManager16CMakeToolManager10m_instanceE
libCMakeProjectManager.so:_ZN19CMakeProjectManager16CMakeToolManager11qt_metacallEN11QMetaObject4CallEiPPv
libCMakeProjectManager.so:_ZN19CMakeProjectManager16CMakeToolManager11qt_metacastEPKc
libCMakeProjectManager.so:_ZN19CMakeProjectManager16CMakeToolManager12cmakeRemovedERKN5Utils2IdE
libCMakeProjectManager.so:_ZN19CMakeProjectManager16CMakeToolManager12cmakeUpdatedERKN5Utils2IdE
libCMakeProjectManager.so:_ZN19CMakeProjectManager16CMakeToolManager13findByCommandERKN5Utils8FilePathE
libCMakeProjectManager.so:_ZN19CMakeProjectManager16CMakeToolManager14saveCMakeToolsEv
libCMakeProjectManager.so:_ZN19CMakeProjectManager16CMakeToolManager16cmakeToolsLoadedEv
libCMakeProjectManager.so:_ZN19CMakeProjectManager16CMakeToolManager16defaultCMakeToolEv
libCMakeProjectManager.so:_ZN19CMakeProjectManager16CMakeToolManager16staticMetaObjectE
libCMakeProjectManager.so:_ZN19CMakeProjectManager16CMakeToolManager17cmakeToolsChangedEv
libCMakeProjectManager.so:_ZN19CMakeProjectManager16CMakeToolManager17listDetectedCMakeERK7QStringPS1_
libCMakeProjectManager.so:_ZN19CMakeProjectManager16CMakeToolManager17notifyAboutUpdateEPNS_9CMakeToolE
libCMakeProjectManager.so:_ZN19CMakeProjectManager16CMakeToolManager17registerCMakeToolEOSt10unique_ptrINS_9CMakeToolESt14default_deleteIS2_EE
libCMakeProjectManager.so:_ZN19CMakeProjectManager16CMakeToolManager17restoreCMakeToolsEv
libCMakeProjectManager.so:_ZN19CMakeProjectManager16CMakeToolManager19defaultCMakeChangedEv
libCMakeProjectManager.so:_ZN19CMakeProjectManager16CMakeToolManager19deregisterCMakeToolERKN5Utils2IdE
libCMakeProjectManager.so:_ZN19CMakeProjectManager16CMakeToolManager19registerCMakeByPathERKN5Utils8FilePathERK7QString
libCMakeProjectManager.so:_ZN19CMakeProjectManager16CMakeToolManager19removeDetectedCMakeERK7QStringPS1_
libCMakeProjectManager.so:_ZN19CMakeProjectManager16CMakeToolManager19setDefaultCMakeToolERKN5Utils2IdE
libCMakeProjectManager.so:_ZN19CMakeProjectManager16CMakeToolManager19updateDocumentationEv
libCMakeProjectManager.so:_ZN19CMakeProjectManager16CMakeToolManager24autoDetectCMakeForDeviceERK5QListIN5Utils8FilePathEERK7QStringPS7_
libCMakeProjectManager.so:_ZN19CMakeProjectManager16CMakeToolManager29ensureDefaultCMakeToolIsValidEv
libCMakeProjectManager.so:_ZN19CMakeProjectManager16CMakeToolManager8findByIdERKN5Utils2IdE
libCMakeProjectManager.so:_ZN19CMakeProjectManager16CMakeToolManager8instanceEv
libCMakeProjectManager.so:_ZN19CMakeProjectManager16CMakeToolManagerC1Ev
libCMakeProjectManager.so:_ZN19CMakeProjectManager16CMakeToolManagerC2Ev
libCMakeProjectManager.so:_ZN19CMakeProjectManager16CMakeToolManagerD0Ev
libCMakeProjectManager.so:_ZN19CMakeProjectManager16CMakeToolManagerD1Ev
libCMakeProjectManager.so:_ZN19CMakeProjectManager16CMakeToolManagerD2Ev
libCMakeProjectManager.so:_ZN19CMakeProjectManager23CMakeBuildConfiguration11buildTargetERK7QString
libCMakeProjectManager.so:_ZN19CMakeProjectManager23CMakeBuildConfiguration11qt_metacallEN11QMetaObject4CallEiPPv
libCMakeProjectManager.so:_ZN19CMakeProjectManager23CMakeBuildConfiguration11qt_metacastEPKc
libCMakeProjectManager.so:_ZN19CMakeProjectManager23CMakeBuildConfiguration15hasQmlDebuggingERKNS_11CMakeConfigE
libCMakeProjectManager.so:_ZN19CMakeProjectManager23CMakeBuildConfiguration16staticMetaObjectE
libCMakeProjectManager.so:_ZN19CMakeProjectManager23CMakeBuildConfiguration18createConfigWidgetEv
libCMakeProjectManager.so:_ZN19CMakeProjectManager23CMakeBuildConfiguration18setSourceDirectoryERKN5Utils8FilePathE
libCMakeProjectManager.so:_ZN19CMakeProjectManager23CMakeBuildConfiguration19signingFlagsChangedEv
libCMakeProjectManager.so:_ZN19CMakeProjectManager23CMakeBuildConfiguration20shadowBuildDirectoryERKN5Utils8FilePathEPKN15ProjectExplorer3KitERK7QStringNS5_18BuildConfiguration9BuildTypeE
libCMakeProjectManager.so:_ZN19CMakeProjectManager23CMakeBuildConfiguration26setBuildPresetToBuildStepsEPKN15ProjectExplorer6TargetE
libCMakeProjectManager.so:_ZN19CMakeProjectManager23CMakeBuildConfiguration27configureEnvironmentChangedEv
libCMakeProjectManager.so:_ZN19CMakeProjectManager23CMakeBuildConfiguration28setInitialBuildAndCleanStepsEPKN15ProjectExplorer6TargetE
libCMakeProjectManager.so:_ZN19CMakeProjectManager23CMakeBuildConfiguration5isIosEPKN15ProjectExplorer3KitE
libCMakeProjectManager.so:_ZN19CMakeProjectManager23CMakeBuildConfiguration7fromMapERK4QMapI7QString8QVariantE
libCMakeProjectManager.so:_ZN19CMakeProjectManager23CMakeBuildConfigurationC1EPN15ProjectExplorer6TargetEN5Utils2IdE
libCMakeProjectManager.so:_ZN19CMakeProjectManager23CMakeBuildConfigurationC2EPN15ProjectExplorer6TargetEN5Utils2IdE
libCMakeProjectManager.so:_ZN19CMakeProjectManager23CMakeBuildConfigurationD0Ev
libCMakeProjectManager.so:_ZN19CMakeProjectManager23CMakeBuildConfigurationD1Ev
libCMakeProjectManager.so:_ZN19CMakeProjectManager23CMakeBuildConfigurationD2Ev
libCMakeProjectManager.so:_ZN19CMakeProjectManager23CMakeGeneratorKitAspect10setToolsetEPN15ProjectExplorer3KitERK7QString
libCMakeProjectManager.so:_ZN19CMakeProjectManager23CMakeGeneratorKitAspect11setPlatformEPN15ProjectExplorer3KitERK7QString
libCMakeProjectManager.so:_ZN19CMakeProjectManager23CMakeGeneratorKitAspect12setGeneratorEPN15ProjectExplorer3KitERK7QString
libCMakeProjectManager.so:_ZN19CMakeProjectManager23CMakeGeneratorKitAspect14extraGeneratorEPKN15ProjectExplorer3KitE
libCMakeProjectManager.so:_ZN19CMakeProjectManager23CMakeGeneratorKitAspect17setExtraGeneratorEPN15ProjectExplorer3KitERK7QString
libCMakeProjectManager.so:_ZN19CMakeProjectManager23CMakeGeneratorKitAspect18generatorArgumentsEPKN15ProjectExplorer3KitE
libCMakeProjectManager.so:_ZN19CMakeProjectManager23CMakeGeneratorKitAspect20generatorCMakeConfigEPKN15ProjectExplorer3KitE
libCMakeProjectManager.so:_ZN19CMakeProjectManager23CMakeGeneratorKitAspect22isMultiConfigGeneratorEPKN15ProjectExplorer3KitE
libCMakeProjectManager.so:_ZN19CMakeProjectManager23CMakeGeneratorKitAspect3fixEPN15ProjectExplorer3KitE
libCMakeProjectManager.so:_ZN19CMakeProjectManager23CMakeGeneratorKitAspect3setEPN15ProjectExplorer3KitERK7QStringS6_S6_S6_
libCMakeProjectManager.so:_ZN19CMakeProjectManager23CMakeGeneratorKitAspect5setupEPN15ProjectExplorer3KitE
libCMakeProjectManager.so:_ZN19CMakeProjectManager23CMakeGeneratorKitAspect7toolsetEPKN15ProjectExplorer3KitE
libCMakeProjectManager.so:_ZN19CMakeProjectManager23CMakeGeneratorKitAspect7upgradeEPN15ProjectExplorer3KitE
libCMakeProjectManager.so:_ZN19CMakeProjectManager23CMakeGeneratorKitAspect8platformEPKN15ProjectExplorer3KitE
libCMakeProjectManager.so:_ZN19CMakeProjectManager23CMakeGeneratorKitAspect9generatorEPKN15ProjectExplorer3KitE
libCMakeProjectManager.so:_ZN19CMakeProjectManager23CMakeGeneratorKitAspectC1Ev
libCMakeProjectManager.so:_ZN19CMakeProjectManager23CMakeGeneratorKitAspectC2Ev
libCMakeProjectManager.so:_ZN19CMakeProjectManager27CMakeConfigurationKitAspect12toStringListEPKN15ProjectExplorer3KitE
libCMakeProjectManager.so:_ZN19CMakeProjectManager27CMakeConfigurationKitAspect13configurationEPKN15ProjectExplorer3KitE
libCMakeProjectManager.so:_ZN19CMakeProjectManager27CMakeConfigurationKitAspect14fromStringListEPN15ProjectExplorer3KitERK5QListI7QStringE
libCMakeProjectManager.so:_ZN19CMakeProjectManager27CMakeConfigurationKitAspect14setCMakePresetEPN15ProjectExplorer3KitERK7QString
libCMakeProjectManager.so:_ZN19CMakeProjectManager27CMakeConfigurationKitAspect15toArgumentsListEPKN15ProjectExplorer3KitE
libCMakeProjectManager.so:_ZN19CMakeProjectManager27CMakeConfigurationKitAspect16setConfigurationEPN15ProjectExplorer3KitERKNS_11CMakeConfigE
libCMakeProjectManager.so:_ZN19CMakeProjectManager27CMakeConfigurationKitAspect20defaultConfigurationEPKN15ProjectExplorer3KitE
libCMakeProjectManager.so:_ZN19CMakeProjectManager27CMakeConfigurationKitAspect21cmakePresetConfigItemEPKN15ProjectExplorer3KitE
libCMakeProjectManager.so:_ZN19CMakeProjectManager27CMakeConfigurationKitAspect23additionalConfigurationEPKN15ProjectExplorer3KitE
libCMakeProjectManager.so:_ZN19CMakeProjectManager27CMakeConfigurationKitAspect23setKitDefaultConfigHashEPN15ProjectExplorer3KitE
libCMakeProjectManager.so:_ZN19CMakeProjectManager27CMakeConfigurationKitAspect24computeDefaultConfigHashERKNS_11CMakeConfigERKN5Utils8FilePathE
libCMakeProjectManager.so:_ZN19CMakeProjectManager27CMakeConfigurationKitAspect24kitDefaultConfigHashItemEPKN15ProjectExplorer3KitE
libCMakeProjectManager.so:_ZN19CMakeProjectManager27CMakeConfigurationKitAspect26setAdditionalConfigurationEPN15ProjectExplorer3KitERK7QString
libCMakeProjectManager.so:_ZN19CMakeProjectManager27CMakeConfigurationKitAspect3fixEPN15ProjectExplorer3KitE
libCMakeProjectManager.so:_ZN19CMakeProjectManager27CMakeConfigurationKitAspect5setupEPN15ProjectExplorer3KitE
libCMakeProjectManager.so:_ZN19CMakeProjectManager27CMakeConfigurationKitAspectC1Ev
libCMakeProjectManager.so:_ZN19CMakeProjectManager27CMakeConfigurationKitAspectC2Ev
libCMakeProjectManager.so:_ZN19CMakeProjectManager30CMakeBuildConfigurationFactory15createBuildInfoENS0_9BuildTypeE
libCMakeProjectManager.so:_ZN19CMakeProjectManager30CMakeBuildConfigurationFactory22buildTypeFromByteArrayERK10QByteArray
libCMakeProjectManager.so:_ZN19CMakeProjectManager30CMakeBuildConfigurationFactory25cmakeBuildTypeToBuildTypeERKNS0_9BuildTypeE
libCMakeProjectManager.so:_ZN19CMakeProjectManager30CMakeBuildConfigurationFactoryC1Ev
libCMakeProjectManager.so:_ZN19CMakeProjectManager30CMakeBuildConfigurationFactoryC2Ev
libCMakeProjectManager.so:_ZN19CMakeProjectManager8Internal13CMakeIndenter9indentForERK10QTextBlockRKN10TextEditor11TabSettingsEi
libCMakeProjectManager.so:_ZN19CMakeProjectManager8Internal13CMakeIndenterC1EP13QTextDocument
libCMakeProjectManager.so:_ZN19CMakeProjectManager8Internal13CMakeIndenterC2EP13QTextDocument
libCMakeProjectManager.so:_ZN19CMakeProjectManager8Internal18CMakeAutoCompleter35paragraphSeparatorAboutToBeInsertedER11QTextCursor
libCMakeProjectManager.so:_ZN19CMakeProjectManager8Internal18CMakeAutoCompleterC1Ev
libCMakeProjectManager.so:_ZN19CMakeProjectManager8Internal18CMakeAutoCompleterC2Ev
libCMakeProjectManager.so:_ZN19CMakeProjectManager9CMakeTool11setFilePathERKN5Utils8FilePathE
libCMakeProjectManager.so:_ZN19CMakeProjectManager9CMakeTool13searchQchFileERKN5Utils8FilePathE
libCMakeProjectManager.so:_ZN19CMakeProjectManager9CMakeTool13setPathMapperERKSt8functionIFN5Utils8FilePathERKS3_EE
libCMakeProjectManager.so:_ZN19CMakeProjectManager9CMakeTool14setDisplayNameERK7QString
libCMakeProjectManager.so:_ZN19CMakeProjectManager9CMakeTool14setQchFilePathERKN5Utils8FilePathE
libCMakeProjectManager.so:_ZN19CMakeProjectManager9CMakeTool15cmakeExecutableERKN5Utils8FilePathE
libCMakeProjectManager.so:_ZN19CMakeProjectManager9CMakeTool16documentationUrlERKNS0_7VersionEb
libCMakeProjectManager.so:_ZN19CMakeProjectManager9CMakeTool16openCMakeHelpUrlEPKS0_RK7QString
libCMakeProjectManager.so:_ZN19CMakeProjectManager9CMakeTool19parseVariableOutputERK7QString
libCMakeProjectManager.so:_ZN19CMakeProjectManager9CMakeTool26parseFunctionDetailsOutputERK7QString
libCMakeProjectManager.so:_ZN19CMakeProjectManager9CMakeTool8createIdEv
libCMakeProjectManager.so:_ZN19CMakeProjectManager9CMakeTool8keywordsEv
libCMakeProjectManager.so:_ZN19CMakeProjectManager9CMakeToolC1ENS0_9DetectionERKN5Utils2IdE
libCMakeProjectManager.so:_ZN19CMakeProjectManager9CMakeToolC1ERK4QMapI7QString8QVariantEb
libCMakeProjectManager.so:_ZN19CMakeProjectManager9CMakeToolC2ENS0_9DetectionERKN5Utils2IdE
libCMakeProjectManager.so:_ZN19CMakeProjectManager9CMakeToolC2ERK4QMapI7QString8QVariantEb
libCMakeProjectManager.so:_ZN19CMakeProjectManager9CMakeToolD1Ev
libCMakeProjectManager.so:_ZN19CMakeProjectManager9CMakeToolD2Ev
libCMakeProjectManager.so:_ZNK19CMakeProjectManager11CMakeConfig13stringValueOfERK10QByteArray
libCMakeProjectManager.so:_ZNK19CMakeProjectManager11CMakeConfig15expandedValueOfEPKN15ProjectExplorer3KitERK10QByteArray
libCMakeProjectManager.so:_ZNK19CMakeProjectManager11CMakeConfig15filePathValueOfERK10QByteArray
libCMakeProjectManager.so:_ZNK19CMakeProjectManager11CMakeConfig7valueOfERK10QByteArray
libCMakeProjectManager.so:_ZNK19CMakeProjectManager11CMakeParser10metaObjectEv
libCMakeProjectManager.so:_ZNK19CMakeProjectManager11CMakeParser11resolvePathERK7QString
libCMakeProjectManager.so:_ZNK19CMakeProjectManager12CMakeProject10metaObjectEv
libCMakeProjectManager.so:_ZNK19CMakeProjectManager12CMakeProject11presetsDataEv
libCMakeProjectManager.so:_ZNK19CMakeProjectManager12CMakeProject13projectIssuesEPKN15ProjectExplorer3KitE
libCMakeProjectManager.so:_ZNK19CMakeProjectManager12CMakeProject15projectImporterEv
libCMakeProjectManager.so:_ZNK19CMakeProjectManager12CMakeProject19deploymentKnowledgeEv
libCMakeProjectManager.so:_ZNK19CMakeProjectManager14CMakeKitAspect12toUserOutputEPKN15ProjectExplorer3KitE
libCMakeProjectManager.so:_ZNK19CMakeProjectManager14CMakeKitAspect17availableFeaturesEPKN15ProjectExplorer3KitE
libCMakeProjectManager.so:_ZNK19CMakeProjectManager14CMakeKitAspect18addToMacroExpanderEPN15ProjectExplorer3KitEPN5Utils13MacroExpanderE
libCMakeProjectManager.so:_ZNK19CMakeProjectManager14CMakeKitAspect18createConfigWidgetEPN15ProjectExplorer3KitE
libCMakeProjectManager.so:_ZNK19CMakeProjectManager14CMakeKitAspect8validateEPKN15ProjectExplorer3KitE
libCMakeProjectManager.so:_ZNK19CMakeProjectManager15CMakeConfigItem10toArgumentEPKN5Utils13MacroExpanderE
libCMakeProjectManager.so:_ZNK19CMakeProjectManager15CMakeConfigItem10toArgumentEv
libCMakeProjectManager.so:_ZNK19CMakeProjectManager15CMakeConfigItem13expandedValueEPKN15ProjectExplorer3KitE
libCMakeProjectManager.so:_ZNK19CMakeProjectManager15CMakeConfigItem13expandedValueEPKN5Utils13MacroExpanderE
libCMakeProjectManager.so:_ZNK19CMakeProjectManager15CMakeConfigItem14toCMakeSetLineEPKN5Utils13MacroExpanderE
libCMakeProjectManager.so:_ZNK19CMakeProjectManager15CMakeConfigItem8toStringEPKN5Utils13MacroExpanderE
libCMakeProjectManager.so:_ZNK19CMakeProjectManager15CMakeConfigItemeqERKS0_
libCMakeProjectManager.so:_ZNK19CMakeProjectManager16CMakeToolManager10metaObjectEv
libCMakeProjectManager.so:_ZNK19CMakeProjectManager23CMakeBuildConfiguration10metaObjectEv
libCMakeProjectManager.so:_ZNK19CMakeProjectManager23CMakeBuildConfiguration11buildSystemEv
libCMakeProjectManager.so:_ZNK19CMakeProjectManager23CMakeBuildConfiguration12signingFlagsEv
libCMakeProjectManager.so:_ZNK19CMakeProjectManager23CMakeBuildConfiguration15sourceDirectoryEv
libCMakeProjectManager.so:_ZNK19CMakeProjectManager23CMakeBuildConfiguration16addToEnvironmentERN5Utils11EnvironmentE
libCMakeProjectManager.so:_ZNK19CMakeProjectManager23CMakeBuildConfiguration20configureEnvironmentEv
libCMakeProjectManager.so:_ZNK19CMakeProjectManager23CMakeBuildConfiguration5toMapEv
libCMakeProjectManager.so:_ZNK19CMakeProjectManager23CMakeBuildConfiguration9buildTypeEv
libCMakeProjectManager.so:_ZNK19CMakeProjectManager23CMakeGeneratorKitAspect12defaultValueEPKN15ProjectExplorer3KitE
libCMakeProjectManager.so:_ZNK19CMakeProjectManager23CMakeGeneratorKitAspect12toUserOutputEPKN15ProjectExplorer3KitE
libCMakeProjectManager.so:_ZNK19CMakeProjectManager23CMakeGeneratorKitAspect18createConfigWidgetEPN15ProjectExplorer3KitE
libCMakeProjectManager.so:_ZNK19CMakeProjectManager23CMakeGeneratorKitAspect21addToBuildEnvironmentEPKN15ProjectExplorer3KitERN5Utils11EnvironmentE
libCMakeProjectManager.so:_ZNK19CMakeProjectManager23CMakeGeneratorKitAspect8validateEPKN15ProjectExplorer3KitE
libCMakeProjectManager.so:_ZNK19CMakeProjectManager27CMakeConfigurationKitAspect12defaultValueEPKN15ProjectExplorer3KitE
libCMakeProjectManager.so:_ZNK19CMakeProjectManager27CMakeConfigurationKitAspect12toUserOutputEPKN15ProjectExplorer3KitE
libCMakeProjectManager.so:_ZNK19CMakeProjectManager27CMakeConfigurationKitAspect18createConfigWidgetEPN15ProjectExplorer3KitE
libCMakeProjectManager.so:_ZNK19CMakeProjectManager27CMakeConfigurationKitAspect8validateEPKN15ProjectExplorer3KitE
libCMakeProjectManager.so:_ZNK19CMakeProjectManager8Internal13CMakeIndenter19isElectricCharacterERK5QChar
libCMakeProjectManager.so:_ZNK19CMakeProjectManager8Internal18CMakeAutoCompleter10isInStringERK11QTextCursor
libCMakeProjectManager.so:_ZNK19CMakeProjectManager8Internal18CMakeAutoCompleter11isInCommentERK11QTextCursor
libCMakeProjectManager.so:_ZNK19CMakeProjectManager8Internal18CMakeAutoCompleter19insertMatchingBraceERK11QTextCursorRK7QString5QCharbPi
libCMakeProjectManager.so:_ZNK19CMakeProjectManager8Internal18CMakeAutoCompleter19insertMatchingQuoteERK11QTextCursorRK7QString5QCharbPi
libCMakeProjectManager.so:_ZNK19CMakeProjectManager8Internal18CMakeAutoCompleter23contextAllowsAutoQuotesERK11QTextCursorRK7QString
libCMakeProjectManager.so:_ZNK19CMakeProjectManager8Internal18CMakeAutoCompleter25contextAllowsAutoBracketsERK11QTextCursorRK7QString
libCMakeProjectManager.so:_ZNK19CMakeProjectManager8Internal18CMakeAutoCompleter31contextAllowsElectricCharactersERK11QTextCursor
libCMakeProjectManager.so:_ZNK19CMakeProjectManager9CMakeTool10hasFileApiEv
libCMakeProjectManager.so:_ZNK19CMakeProjectManager9CMakeTool10pathMapperEv
libCMakeProjectManager.so:_ZNK19CMakeProjectManager9CMakeTool10readerTypeEv
libCMakeProjectManager.so:_ZNK19CMakeProjectManager9CMakeTool11displayNameEv
libCMakeProjectManager.so:_ZNK19CMakeProjectManager9CMakeTool11qchFilePathEv
libCMakeProjectManager.so:_ZNK19CMakeProjectManager9CMakeTool14isAutoDetectedEv
libCMakeProjectManager.so:_ZNK19CMakeProjectManager9CMakeTool14versionDisplayEv
libCMakeProjectManager.so:_ZNK19CMakeProjectManager9CMakeTool15cmakeExecutableEv
libCMakeProjectManager.so:_ZNK19CMakeProjectManager9CMakeTool15readInformationEv
libCMakeProjectManager.so:_ZNK19CMakeProjectManager9CMakeTool19supportedGeneratorsEv
libCMakeProjectManager.so:_ZNK19CMakeProjectManager9CMakeTool21fetchFromCapabilitiesEv
libCMakeProjectManager.so:_ZNK19CMakeProjectManager9CMakeTool21parseFromCapabilitiesERK7QString
libCMakeProjectManager.so:_ZNK19CMakeProjectManager9CMakeTool5toMapEv
libCMakeProjectManager.so:_ZNK19CMakeProjectManager9CMakeTool7isValidEv
libCMakeProjectManager.so:_ZNK19CMakeProjectManager9CMakeTool7versionEv
libCMakeProjectManager.so:_ZNK19CMakeProjectManager9CMakeTool8filePathEv
libCMakeProjectManager.so:_ZNK19CMakeProjectManager9CMakeTool8runCMakeERN5Utils10QtcProcessERK5QListI7QStringEi
libCMakeProjectManager.so:_ZNK19CMakeProjectManager9CMakeTool9Generator7matchesERK7QStringS4_
libCMakeProjectManager.so:_ZNK19CMakeProjectManager9CMakeTool9isAutoRunEv
libCMakeProjectManager.so:_ZTIN19CMakeProjectManager11CMakeParserE
libCMakeProjectManager.so:_ZTIN19CMakeProjectManager12CMakeProjectE
libCMakeProjectManager.so:_ZTIN19CMakeProjectManager14CMakeKitAspectE
libCMakeProjectManager.so:_ZTIN19CMakeProjectManager16CMakeToolManagerE
libCMakeProjectManager.so:_ZTIN19CMakeProjectManager23CMakeBuildConfigurationE
libCMakeProjectManager.so:_ZTIN19CMakeProjectManager23CMakeGeneratorKitAspectE
libCMakeProjectManager.so:_ZTIN19CMakeProjectManager27CMakeConfigurationKitAspectE
libCMakeProjectManager.so:_ZTIN19CMakeProjectManager8Internal13CMakeIndenterE
libCMakeProjectManager.so:_ZTIN19CMakeProjectManager8Internal18CMakeAutoCompleterE
libCMakeProjectManager.so:_ZTSN19CMakeProjectManager11CMakeParserE
libCMakeProjectManager.so:_ZTSN19CMakeProjectManager12CMakeProjectE
libCMakeProjectManager.so:_ZTSN19CMakeProjectManager14CMakeKitAspectE
libCMakeProjectManager.so:_ZTSN19CMakeProjectManager16CMakeToolManagerE
libCMakeProjectManager.so:_ZTSN19CMakeProjectManager23CMakeBuildConfigurationE
libCMakeProjectManager.so:_ZTSN19CMakeProjectManager23CMakeGeneratorKitAspectE
libCMakeProjectManager.so:_ZTSN19CMakeProjectManager27CMakeConfigurationKitAspectE
libCMakeProjectManager.so:_ZTSN19CMakeProjectManager8Internal13CMakeIndenterE
libCMakeProjectManager.so:_ZTSN19CMakeProjectManager8Internal18CMakeAutoCompleterE
libCMakeProjectManager.so:_ZTVN19CMakeProjectManager11CMakeParserE
libCMakeProjectManager.so:_ZTVN19CMakeProjectManager12CMakeProjectE
libCMakeProjectManager.so:_ZTVN19CMakeProjectManager14CMakeKitAspectE
libCMakeProjectManager.so:_ZTVN19CMakeProjectManager16CMakeToolManagerE
libCMakeProjectManager.so:_ZTVN19CMakeProjectManager23CMakeBuildConfigurationE
libCMakeProjectManager.so:_ZTVN19CMakeProjectManager23CMakeGeneratorKitAspectE
libCMakeProjectManager.so:_ZTVN19CMakeProjectManager27CMakeConfigurationKitAspectE
libCMakeProjectManager.so:_ZTVN19CMakeProjectManager8Internal13CMakeIndenterE
libCMakeProjectManager.so:_ZTVN19CMakeProjectManager8Internal18CMakeAutoCompleterE
libCMakeProjectManager.so:qt_plugin_instance
libCMakeProjectManager.so:qt_plugin_query_metadata_v2
libCPlusPlus.so.10:_ZN9CPlusPlus10ASTMatcher5matchEPNS_10CaptureASTES2_
libCPlusPlus.so.10:_ZN9CPlusPlus10ASTMatcher5matchEPNS_10PointerASTES2_
libCPlusPlus.so.10:_ZN9CPlusPlus10ASTMatcher5matchEPNS_11OperatorASTES2_
libCPlusPlus.so.10:_ZN9CPlusPlus10ASTMatcher5matchEPNS_11QtMethodASTES2_
libCPlusPlus.so.10:_ZN9CPlusPlus10ASTMatcher5matchEPNS_12ConditionASTES2_
libCPlusPlus.so.10:_ZN9CPlusPlus10ASTMatcher5matchEPNS_12NamespaceASTES2_
libCPlusPlus.so.10:_ZN9CPlusPlus10ASTMatcher5matchEPNS_12NewTypeIdASTES2_
libCPlusPlus.so.10:_ZN9CPlusPlus10ASTMatcher5matchEPNS_12ReferenceASTES2_
libCPlusPlus.so.10:_ZN9CPlusPlus10ASTMatcher5matchEPNS_13DeclaratorASTES2_
libCPlusPlus.so.10:_ZN9CPlusPlus10ASTMatcher5matchEPNS_13EnumeratorASTES2_
libCPlusPlus.so.10:_ZN9CPlusPlus10ASTMatcher5matchEPNS_13SimpleNameASTES2_
libCPlusPlus.so.10:_ZN9CPlusPlus10ASTMatcher5matchEPNS_13TemplateIdASTES2_
libCPlusPlus.so.10:_ZN9CPlusPlus10ASTMatcher5matchEPNS_14ArrayAccessASTES2_
libCPlusPlus.so.10:_ZN9CPlusPlus10ASTMatcher5matchEPNS_14BoolLiteralASTES2_
libCPlusPlus.so.10:_ZN9CPlusPlus10ASTMatcher5matchEPNS_14CatchClauseASTES2_
libCPlusPlus.so.10:_ZN9CPlusPlus10ASTMatcher5matchEPNS_14DoStatementASTES2_
libCPlusPlus.so.10:_ZN9CPlusPlus10ASTMatcher5matchEPNS_14IfStatementASTES2_
libCPlusPlus.so.10:_ZN9CPlusPlus10ASTMatcher5matchEPNS_14LinkageBodyASTES2_
libCPlusPlus.so.10:_ZN9CPlusPlus10ASTMatcher5matchEPNS_14QtObjectTagASTES2_
libCPlusPlus.so.10:_ZN9CPlusPlus10ASTMatcher5matchEPNS_15DeclaratorIdASTES2_
libCPlusPlus.so.10:_ZN9CPlusPlus10ASTMatcher5matchEPNS_15ForStatementASTES2_
libCPlusPlus.so.10:_ZN9CPlusPlus10ASTMatcher5matchEPNS_15GnuAttributeASTES2_
libCPlusPlus.so.10:_ZN9CPlusPlus10ASTMatcher5matchEPNS_15IdExpressionASTES2_
libCPlusPlus.so.10:_ZN9CPlusPlus10ASTMatcher5matchEPNS_15MemberAccessASTES2_
libCPlusPlus.so.10:_ZN9CPlusPlus10ASTMatcher5matchEPNS_15ObjCSelectorASTES2_
libCPlusPlus.so.10:_ZN9CPlusPlus10ASTMatcher5matchEPNS_15ObjCTypeNameASTES2_
libCPlusPlus.so.10:_ZN9CPlusPlus10ASTMatcher5matchEPNS_15PostIncrDecrASTES2_
libCPlusPlus.so.10:_ZN9CPlusPlus10ASTMatcher5matchEPNS_16AnonymousNameASTES2_
libCPlusPlus.so.10:_ZN9CPlusPlus10ASTMatcher5matchEPNS_16AsmDefinitionASTES2_
libCPlusPlus.so.10:_ZN9CPlusPlus10ASTMatcher5matchEPNS_16BaseSpecifierASTES2_
libCPlusPlus.so.10:_ZN9CPlusPlus10ASTMatcher5matchEPNS_16CaseStatementASTES2_
libCPlusPlus.so.10:_ZN9CPlusPlus10ASTMatcher5matchEPNS_16DotDesignatorASTES2_
libCPlusPlus.so.10:_ZN9CPlusPlus10ASTMatcher5matchEPNS_16EnumSpecifierASTES2_
libCPlusPlus.so.10:_ZN9CPlusPlus10ASTMatcher5matchEPNS_16GotoStatementASTES2_
libCPlusPlus.so.10:_ZN9CPlusPlus10ASTMatcher5matchEPNS_16LambdaCaptureASTES2_
libCPlusPlus.so.10:_ZN9CPlusPlus10ASTMatcher5matchEPNS_16NewExpressionASTES2_
libCPlusPlus.so.10:_ZN9CPlusPlus10ASTMatcher5matchEPNS_16QtPrivateSlotASTES2_
libCPlusPlus.so.10:_ZN9CPlusPlus10ASTMatcher5matchEPNS_16QualifiedNameASTES2_
libCPlusPlus.so.10:_ZN9CPlusPlus10ASTMatcher5matchEPNS_16StringLiteralASTES2_
libCPlusPlus.so.10:_ZN9CPlusPlus10ASTMatcher5matchEPNS_17BreakStatementASTES2_
libCPlusPlus.so.10:_ZN9CPlusPlus10ASTMatcher5matchEPNS_17CastExpressionASTES2_
libCPlusPlus.so.10:_ZN9CPlusPlus10ASTMatcher5matchEPNS_17ClassSpecifierASTES2_
libCPlusPlus.so.10:_ZN9CPlusPlus10ASTMatcher5matchEPNS_17DestructorNameASTES2_
libCPlusPlus.so.10:_ZN9CPlusPlus10ASTMatcher5matchEPNS_17MemInitializerASTES2_
libCPlusPlus.so.10:_ZN9CPlusPlus10ASTMatcher5matchEPNS_17NumericLiteralASTES2_
libCPlusPlus.so.10:_ZN9CPlusPlus10ASTMatcher5matchEPNS_17PointerLiteralASTES2_
libCPlusPlus.so.10:_ZN9CPlusPlus10ASTMatcher5matchEPNS_17ThisExpressionASTES2_
libCPlusPlus.so.10:_ZN9CPlusPlus10ASTMatcher5matchEPNS_17UsingDirectiveASTES2_
libCPlusPlus.so.10:_ZN9CPlusPlus10ASTMatcher5matchEPNS_17WhileStatementASTES2_
libCPlusPlus.so.10:_ZN9CPlusPlus10ASTMatcher5matchEPNS_18ArrayDeclaratorASTES2_
libCPlusPlus.so.10:_ZN9CPlusPlus10ASTMatcher5matchEPNS_18CompoundLiteralASTES2_
libCPlusPlus.so.10:_ZN9CPlusPlus10ASTMatcher5matchEPNS_18CtorInitializerASTES2_
libCPlusPlus.so.10:_ZN9CPlusPlus10ASTMatcher5matchEPNS_18PointerToMemberASTES2_
libCPlusPlus.so.10:_ZN9CPlusPlus10ASTMatcher5matchEPNS_18QtInterfaceNameASTES2_
libCPlusPlus.so.10:_ZN9CPlusPlus10ASTMatcher5matchEPNS_18ReturnStatementASTES2_
libCPlusPlus.so.10:_ZN9CPlusPlus10ASTMatcher5matchEPNS_18SimpleSpecifierASTES2_
libCPlusPlus.so.10:_ZN9CPlusPlus10ASTMatcher5matchEPNS_18SwitchStatementASTES2_
libCPlusPlus.so.10:_ZN9CPlusPlus10ASTMatcher5matchEPNS_18ThrowExpressionASTES2_
libCPlusPlus.so.10:_ZN9CPlusPlus10ASTMatcher5matchEPNS_18TranslationUnitASTES2_
libCPlusPlus.so.10:_ZN9CPlusPlus10ASTMatcher5matchEPNS_18TypeofSpecifierASTES2_
libCPlusPlus.so.10:_ZN9CPlusPlus10ASTMatcher5matchEPNS_18UnaryExpressionASTES2_
libCPlusPlus.so.10:_ZN9CPlusPlus10ASTMatcher5matchEPNS_19AliasDeclarationASTES2_
libCPlusPlus.so.10:_ZN9CPlusPlus10ASTMatcher5matchEPNS_19ArrayInitializerASTES2_
libCPlusPlus.so.10:_ZN9CPlusPlus10ASTMatcher5matchEPNS_19BinaryExpressionASTES2_
libCPlusPlus.so.10:_ZN9CPlusPlus10ASTMatcher5matchEPNS_19DeleteExpressionASTES2_
libCPlusPlus.so.10:_ZN9CPlusPlus10ASTMatcher5matchEPNS_19EmptyDeclarationASTES2_
libCPlusPlus.so.10:_ZN9CPlusPlus10ASTMatcher5matchEPNS_19ForeachStatementASTES2_
libCPlusPlus.so.10:_ZN9CPlusPlus10ASTMatcher5matchEPNS_19LabeledStatementASTES2_
libCPlusPlus.so.10:_ZN9CPlusPlus10ASTMatcher5matchEPNS_19LambdaDeclaratorASTES2_
libCPlusPlus.so.10:_ZN9CPlusPlus10ASTMatcher5matchEPNS_19LambdaExpressionASTES2_
libCPlusPlus.so.10:_ZN9CPlusPlus10ASTMatcher5matchEPNS_19LambdaIntroducerASTES2_
libCPlusPlus.so.10:_ZN9CPlusPlus10ASTMatcher5matchEPNS_19NestedDeclaratorASTES2_
libCPlusPlus.so.10:_ZN9CPlusPlus10ASTMatcher5matchEPNS_19NestedExpressionASTES2_
libCPlusPlus.so.10:_ZN9CPlusPlus10ASTMatcher5matchEPNS_19ObjCProtocolRefsASTES2_
libCPlusPlus.so.10:_ZN9CPlusPlus10ASTMatcher5matchEPNS_19SizeofExpressionASTES2_
libCPlusPlus.so.10:_ZN9CPlusPlus10ASTMatcher5matchEPNS_19TypeidExpressionASTES2_
libCPlusPlus.so.10:_ZN9CPlusPlus10ASTMatcher5matchEPNS_20AccessDeclarationASTES2_
libCPlusPlus.so.10:_ZN9CPlusPlus10ASTMatcher5matchEPNS_20AlignofExpressionASTES2_
libCPlusPlus.so.10:_ZN9CPlusPlus10ASTMatcher5matchEPNS_20BracedInitializerASTES2_
libCPlusPlus.so.10:_ZN9CPlusPlus10ASTMatcher5matchEPNS_20BracketDesignatorASTES2_
libCPlusPlus.so.10:_ZN9CPlusPlus10ASTMatcher5matchEPNS_20CompoundStatementASTES2_
libCPlusPlus.so.10:_ZN9CPlusPlus10ASTMatcher5matchEPNS_20ContinueStatementASTES2_
libCPlusPlus.so.10:_ZN9CPlusPlus10ASTMatcher5matchEPNS_20CppCastExpressionASTES2_
libCPlusPlus.so.10:_ZN9CPlusPlus10ASTMatcher5matchEPNS_20DecltypeSpecifierASTES2_
libCPlusPlus.so.10:_ZN9CPlusPlus10ASTMatcher5matchEPNS_20QtEnumDeclarationASTES2_
libCPlusPlus.so.10:_ZN9CPlusPlus10ASTMatcher5matchEPNS_20SimpleDeclarationASTES2_
libCPlusPlus.so.10:_ZN9CPlusPlus10ASTMatcher5matchEPNS_20TryBlockStatementASTES2_
libCPlusPlus.so.10:_ZN9CPlusPlus10ASTMatcher5matchEPNS_21AlignmentSpecifierASTES2_
libCPlusPlus.so.10:_ZN9CPlusPlus10ASTMatcher5matchEPNS_21CompoundExpressionASTES2_
libCPlusPlus.so.10:_ZN9CPlusPlus10ASTMatcher5matchEPNS_21FunctionDeclaratorASTES2_
libCPlusPlus.so.10:_ZN9CPlusPlus10ASTMatcher5matchEPNS_21FunctionDefinitionASTES2_
libCPlusPlus.so.10:_ZN9CPlusPlus10ASTMatcher5matchEPNS_21NamedTypeSpecifierASTES2_
libCPlusPlus.so.10:_ZN9CPlusPlus10ASTMatcher5matchEPNS_21NewArrayDeclaratorASTES2_
libCPlusPlus.so.10:_ZN9CPlusPlus10ASTMatcher5matchEPNS_21OperatorFunctionIdASTES2_
libCPlusPlus.so.10:_ZN9CPlusPlus10ASTMatcher5matchEPNS_21QtFlagsDeclarationASTES2_
libCPlusPlus.so.10:_ZN9CPlusPlus10ASTMatcher5matchEPNS_21TrailingReturnTypeASTES2_
libCPlusPlus.so.10:_ZN9CPlusPlus10ASTMatcher5matchEPNS_22ExpressionListParenASTES2_
libCPlusPlus.so.10:_ZN9CPlusPlus10ASTMatcher5matchEPNS_22ExpressionStatementASTES2_
libCPlusPlus.so.10:_ZN9CPlusPlus10ASTMatcher5matchEPNS_22NestedNameSpecifierASTES2_
libCPlusPlus.so.10:_ZN9CPlusPlus10ASTMatcher5matchEPNS_22ObjCFastEnumerationASTES2_
libCPlusPlus.so.10:_ZN9CPlusPlus10ASTMatcher5matchEPNS_22ObjCMessageArgumentASTES2_
libCPlusPlus.so.10:_ZN9CPlusPlus10ASTMatcher5matchEPNS_22ObjCMethodPrototypeASTES2_
libCPlusPlus.so.10:_ZN9CPlusPlus10ASTMatcher5matchEPNS_22QtMemberDeclarationASTES2_
libCPlusPlus.so.10:_ZN9CPlusPlus10ASTMatcher5matchEPNS_22TemplateDeclarationASTES2_
libCPlusPlus.so.10:_ZN9CPlusPlus10ASTMatcher5matchEPNS_22TypeConstructorCallASTES2_
libCPlusPlus.so.10:_ZN9CPlusPlus10ASTMatcher5matchEPNS_23ConversionFunctionIdASTES2_
libCPlusPlus.so.10:_ZN9CPlusPlus10ASTMatcher5matchEPNS_23DeclarationStatementASTES2_
libCPlusPlus.so.10:_ZN9CPlusPlus10ASTMatcher5matchEPNS_23ExceptionDeclarationASTES2_
libCPlusPlus.so.10:_ZN9CPlusPlus10ASTMatcher5matchEPNS_23LinkageSpecificationASTES2_
libCPlusPlus.so.10:_ZN9CPlusPlus10ASTMatcher5matchEPNS_23ObjCClassDeclarationASTES2_
libCPlusPlus.so.10:_ZN9CPlusPlus10ASTMatcher5matchEPNS_23ObjCEncodeExpressionASTES2_
libCPlusPlus.so.10:_ZN9CPlusPlus10ASTMatcher5matchEPNS_23ObjCSelectorArgumentASTES2_
libCPlusPlus.so.10:_ZN9CPlusPlus10ASTMatcher5matchEPNS_23ParameterDeclarationASTES2_
libCPlusPlus.so.10:_ZN9CPlusPlus10ASTMatcher5matchEPNS_24ConditionalExpressionASTES2_
libCPlusPlus.so.10:_ZN9CPlusPlus10ASTMatcher5matchEPNS_24DesignatedInitializerASTES2_
libCPlusPlus.so.10:_ZN9CPlusPlus10ASTMatcher5matchEPNS_24GnuAttributeSpecifierASTES2_
libCPlusPlus.so.10:_ZN9CPlusPlus10ASTMatcher5matchEPNS_24MsvcDeclspecSpecifierASTES2_
libCPlusPlus.so.10:_ZN9CPlusPlus10ASTMatcher5matchEPNS_24NoExceptSpecificationASTES2_
libCPlusPlus.so.10:_ZN9CPlusPlus10ASTMatcher5matchEPNS_24ObjCMessageExpressionASTES2_
libCPlusPlus.so.10:_ZN9CPlusPlus10ASTMatcher5matchEPNS_24ObjCMethodDeclarationASTES2_
libCPlusPlus.so.10:_ZN9CPlusPlus10ASTMatcher5matchEPNS_24ObjCPropertyAttributeASTES2_
libCPlusPlus.so.10:_ZN9CPlusPlus10ASTMatcher5matchEPNS_24QtPropertyDeclarationASTES2_
libCPlusPlus.so.10:_ZN9CPlusPlus10ASTMatcher5matchEPNS_24StdAttributeSpecifierASTES2_
libCPlusPlus.so.10:_ZN9CPlusPlus10ASTMatcher5matchEPNS_24TemplateTypeParameterASTES2_
libCPlusPlus.so.10:_ZN9CPlusPlus10ASTMatcher5matchEPNS_24TypenameTypeParameterASTES2_
libCPlusPlus.so.10:_ZN9CPlusPlus10ASTMatcher5matchEPNS_25ObjCProtocolExpressionASTES2_
libCPlusPlus.so.10:_ZN9CPlusPlus10ASTMatcher5matchEPNS_25ObjCSelectorExpressionASTES2_
libCPlusPlus.so.10:_ZN9CPlusPlus10ASTMatcher5matchEPNS_25RangeBasedForStatementASTES2_
libCPlusPlus.so.10:_ZN9CPlusPlus10ASTMatcher5matchEPNS_25TypenameCallExpressionASTES2_
libCPlusPlus.so.10:_ZN9CPlusPlus10ASTMatcher5matchEPNS_26DecompositionDeclaratorASTES2_
libCPlusPlus.so.10:_ZN9CPlusPlus10ASTMatcher5matchEPNS_26ElaboratedTypeSpecifierASTES2_
libCPlusPlus.so.10:_ZN9CPlusPlus10ASTMatcher5matchEPNS_26ObjCPropertyDeclarationASTES2_
libCPlusPlus.so.10:_ZN9CPlusPlus10ASTMatcher5matchEPNS_26ObjCProtocolDeclarationASTES2_
libCPlusPlus.so.10:_ZN9CPlusPlus10ASTMatcher5matchEPNS_26ObjCSynthesizedPropertyASTES2_
libCPlusPlus.so.10:_ZN9CPlusPlus10ASTMatcher5matchEPNS_26QtInterfacesDeclarationASTES2_
libCPlusPlus.so.10:_ZN9CPlusPlus10ASTMatcher5matchEPNS_26StaticAssertDeclarationASTES2_
libCPlusPlus.so.10:_ZN9CPlusPlus10ASTMatcher5matchEPNS_27NamespaceAliasDefinitionASTES2_
libCPlusPlus.so.10:_ZN9CPlusPlus10ASTMatcher5matchEPNS_28ObjCSynchronizedStatementASTES2_
libCPlusPlus.so.10:_ZN9CPlusPlus10ASTMatcher5matchEPNS_28ObjCVisibilityDeclarationASTES2_
libCPlusPlus.so.10:_ZN9CPlusPlus10ASTMatcher5matchEPNS_28QtPropertyDeclarationItemASTES2_
libCPlusPlus.so.10:_ZN9CPlusPlus10ASTMatcher5matchEPNS_29NoExceptOperatorExpressionASTES2_
libCPlusPlus.so.10:_ZN9CPlusPlus10ASTMatcher5matchEPNS_29ParameterDeclarationClauseASTES2_
libCPlusPlus.so.10:_ZN9CPlusPlus10ASTMatcher5matchEPNS_30ObjCClassForwardDeclarationASTES2_
libCPlusPlus.so.10:_ZN9CPlusPlus10ASTMatcher5matchEPNS_32DynamicExceptionSpecificationASTES2_
libCPlusPlus.so.10:_ZN9CPlusPlus10ASTMatcher5matchEPNS_33ObjCMessageArgumentDeclarationASTES2_
libCPlusPlus.so.10:_ZN9CPlusPlus10ASTMatcher5matchEPNS_33ObjCProtocolForwardDeclarationASTES2_
libCPlusPlus.so.10:_ZN9CPlusPlus10ASTMatcher5matchEPNS_35ExpressionOrDeclarationStatementASTES2_
libCPlusPlus.so.10:_ZN9CPlusPlus10ASTMatcher5matchEPNS_35ObjCDynamicPropertiesDeclarationASTES2_
libCPlusPlus.so.10:_ZN9CPlusPlus10ASTMatcher5matchEPNS_35ObjCInstanceVariablesDeclarationASTES2_
libCPlusPlus.so.10:_ZN9CPlusPlus10ASTMatcher5matchEPNS_39ObjCSynthesizedPropertiesDeclarationASTES2_
libCPlusPlus.so.10:_ZN9CPlusPlus10ASTMatcher5matchEPNS_7CallASTES2_
libCPlusPlus.so.10:_ZN9CPlusPlus10ASTMatcher5matchEPNS_8UsingASTES2_
libCPlusPlus.so.10:_ZN9CPlusPlus10ASTMatcher5matchEPNS_9TypeIdASTES2_
libCPlusPlus.so.10:_ZN9CPlusPlus10ASTMatcherC1Ev
libCPlusPlus.so.10:_ZN9CPlusPlus10ASTMatcherC2Ev
libCPlusPlus.so.10:_ZN9CPlusPlus10ASTMatcherD0Ev
libCPlusPlus.so.10:_ZN9CPlusPlus10ASTMatcherD1Ev
libCPlusPlus.so.10:_ZN9CPlusPlus10ASTMatcherD2Ev
libCPlusPlus.so.10:_ZN9CPlusPlus10ASTVisitor18setTranslationUnitEPNS_15TranslationUnitE
libCPlusPlus.so.10:_ZN9CPlusPlus10ASTVisitor6acceptEPNS_3ASTE
libCPlusPlus.so.10:_ZN9CPlusPlus10ASTVisitorC1EPNS_15TranslationUnitE
libCPlusPlus.so.10:_ZN9CPlusPlus10ASTVisitorC2EPNS_15TranslationUnitE
libCPlusPlus.so.10:_ZN9CPlusPlus10ASTVisitorD0Ev
libCPlusPlus.so.10:_ZN9CPlusPlus10ASTVisitorD1Ev
libCPlusPlus.so.10:_ZN9CPlusPlus10ASTVisitorD2Ev
libCPlusPlus.so.10:_ZN9CPlusPlus10FindUsages10declaratorEPNS_13DeclaratorASTEPNS_5ScopeE
libCPlusPlus.so.10:_ZN9CPlusPlus10FindUsages10enumeratorEPNS_13EnumeratorASTE
libCPlusPlus.so.10:_ZN9CPlusPlus10FindUsages10expressionEPNS_13ExpressionASTE
libCPlusPlus.so.10:_ZN9CPlusPlus10FindUsages11cppOperatorEPNS_11OperatorASTE
libCPlusPlus.so.10:_ZN9CPlusPlus10FindUsages11declarationEPNS_14DeclarationASTE
libCPlusPlus.so.10:_ZN9CPlusPlus10FindUsages11ptrOperatorEPNS_14PtrOperatorASTE
libCPlusPlus.so.10:_ZN9CPlusPlus10FindUsages11switchScopeEPNS_5ScopeE
libCPlusPlus.so.10:_ZN9CPlusPlus10FindUsages12isLocalScopeEPNS_5ScopeE
libCPlusPlus.so.10:_ZN9CPlusPlus10FindUsages12newPlacementEPNS_22ExpressionListParenASTE
libCPlusPlus.so.10:_ZN9CPlusPlus10FindUsages12objCTypeNameEPNS_15ObjCTypeNameASTE
libCPlusPlus.so.10:_ZN9CPlusPlus10FindUsages12prepareLinesERK10QByteArray
libCPlusPlus.so.10:_ZN9CPlusPlus10FindUsages12reportResultEjPKNS_4NameEPNS_5ScopeE
libCPlusPlus.so.10:_ZN9CPlusPlus10FindUsages12reportResultEjRK5QListINS_10LookupItemEE
libCPlusPlus.so.10:_ZN9CPlusPlus10FindUsages13baseSpecifierEPNS_16BaseSpecifierASTE
libCPlusPlus.so.10:_ZN9CPlusPlus10FindUsages13lambdaCaptureEPNS_16LambdaCaptureASTE
libCPlusPlus.so.10:_ZN9CPlusPlus10FindUsages14coreDeclaratorEPNS_17CoreDeclaratorASTE
libCPlusPlus.so.10:_ZN9CPlusPlus10FindUsages14memInitializerEPNS_17MemInitializerASTE
libCPlusPlus.so.10:_ZN9CPlusPlus10FindUsages15checkExpressionEjjPNS_5ScopeE
libCPlusPlus.so.10:_ZN9CPlusPlus10FindUsages15ctorInitializerEPNS_18CtorInitializerASTE
libCPlusPlus.so.10:_ZN9CPlusPlus10FindUsages15qtInterfaceNameEPNS_18QtInterfaceNameASTE
libCPlusPlus.so.10:_ZN9CPlusPlus10FindUsages15translationUnitEPNS_18TranslationUnitASTE
libCPlusPlus.so.10:_ZN9CPlusPlus10FindUsages16lambdaDeclaratorEPNS_19LambdaDeclaratorASTE
libCPlusPlus.so.10:_ZN9CPlusPlus10FindUsages16lambdaIntroducerEPNS_19LambdaIntroducerASTE
libCPlusPlus.so.10:_ZN9CPlusPlus10FindUsages16objCProtocolRefsEPNS_19ObjCProtocolRefsASTE
libCPlusPlus.so.10:_ZN9CPlusPlus10FindUsages17postfixDeclaratorEPNS_20PostfixDeclaratorASTE
libCPlusPlus.so.10:_ZN9CPlusPlus10FindUsages18newArrayDeclaratorEPNS_21NewArrayDeclaratorASTE
libCPlusPlus.so.10:_ZN9CPlusPlus10FindUsages18trailingReturnTypeEPNS_21TrailingReturnTypeASTE
libCPlusPlus.so.10:_ZN9CPlusPlus10FindUsages19nestedNameSpecifierEPNS_22NestedNameSpecifierASTE
libCPlusPlus.so.10:_ZN9CPlusPlus10FindUsages19objCMessageArgumentEPNS_22ObjCMessageArgumentASTE
libCPlusPlus.so.10:_ZN9CPlusPlus10FindUsages19objCMethodPrototypeEPNS_22ObjCMethodPrototypeASTE
libCPlusPlus.so.10:_ZN9CPlusPlus10FindUsages20objCSelectorArgumentEPNS_23ObjCSelectorArgumentASTE
libCPlusPlus.so.10:_ZN9CPlusPlus10FindUsages21getContainingFunctionEii
libCPlusPlus.so.10:_ZN9CPlusPlus10FindUsages21objCPropertyAttributeEPNS_24ObjCPropertyAttributeASTE
libCPlusPlus.so.10:_ZN9CPlusPlus10FindUsages22exceptionSpecificationEPNS_25ExceptionSpecificationASTE
libCPlusPlus.so.10:_ZN9CPlusPlus10FindUsages23objCSynthesizedPropertyEPNS_26ObjCSynthesizedPropertyASTE
libCPlusPlus.so.10:_ZN9CPlusPlus10FindUsages25qtPropertyDeclarationItemEPNS_28QtPropertyDeclarationItemASTE
libCPlusPlus.so.10:_ZN9CPlusPlus10FindUsages26parameterDeclarationClauseEPNS_29ParameterDeclarationClauseASTE
libCPlusPlus.so.10:_ZN9CPlusPlus10FindUsages30objCMessageArgumentDeclarationEPNS_33ObjCMessageArgumentDeclarationASTE
libCPlusPlus.so.10:_ZN9CPlusPlus10FindUsages32objCInstanceVariablesDeclarationEPNS_35ObjCInstanceVariablesDeclarationASTE
libCPlusPlus.so.10:_ZN9CPlusPlus10FindUsages4nameEPNS_7NameASTE
libCPlusPlus.so.10:_ZN9CPlusPlus10FindUsages5visitEPNS_10CaptureASTE
libCPlusPlus.so.10:_ZN9CPlusPlus10FindUsages5visitEPNS_10PointerASTE
libCPlusPlus.so.10:_ZN9CPlusPlus10FindUsages5visitEPNS_11OperatorASTE
libCPlusPlus.so.10:_ZN9CPlusPlus10FindUsages5visitEPNS_11QtMethodASTE
libCPlusPlus.so.10:_ZN9CPlusPlus10FindUsages5visitEPNS_12ConditionASTE
libCPlusPlus.so.10:_ZN9CPlusPlus10FindUsages5visitEPNS_12NamespaceASTE
libCPlusPlus.so.10:_ZN9CPlusPlus10FindUsages5visitEPNS_12NewTypeIdASTE
libCPlusPlus.so.10:_ZN9CPlusPlus10FindUsages5visitEPNS_12ReferenceASTE
libCPlusPlus.so.10:_ZN9CPlusPlus10FindUsages5visitEPNS_13DeclaratorASTE
libCPlusPlus.so.10:_ZN9CPlusPlus10FindUsages5visitEPNS_13EnumeratorASTE
libCPlusPlus.so.10:_ZN9CPlusPlus10FindUsages5visitEPNS_13SimpleNameASTE
libCPlusPlus.so.10:_ZN9CPlusPlus10FindUsages5visitEPNS_13TemplateIdASTE
libCPlusPlus.so.10:_ZN9CPlusPlus10FindUsages5visitEPNS_14ArrayAccessASTE
libCPlusPlus.so.10:_ZN9CPlusPlus10FindUsages5visitEPNS_14BoolLiteralASTE
libCPlusPlus.so.10:_ZN9CPlusPlus10FindUsages5visitEPNS_14CatchClauseASTE
libCPlusPlus.so.10:_ZN9CPlusPlus10FindUsages5visitEPNS_14DoStatementASTE
libCPlusPlus.so.10:_ZN9CPlusPlus10FindUsages5visitEPNS_14IfStatementASTE
libCPlusPlus.so.10:_ZN9CPlusPlus10FindUsages5visitEPNS_14LinkageBodyASTE
libCPlusPlus.so.10:_ZN9CPlusPlus10FindUsages5visitEPNS_14QtObjectTagASTE
libCPlusPlus.so.10:_ZN9CPlusPlus10FindUsages5visitEPNS_15DeclaratorIdASTE
libCPlusPlus.so.10:_ZN9CPlusPlus10FindUsages5visitEPNS_15ForStatementASTE
libCPlusPlus.so.10:_ZN9CPlusPlus10FindUsages5visitEPNS_15GnuAttributeASTE
libCPlusPlus.so.10:_ZN9CPlusPlus10FindUsages5visitEPNS_15IdExpressionASTE
libCPlusPlus.so.10:_ZN9CPlusPlus10FindUsages5visitEPNS_15MemberAccessASTE
libCPlusPlus.so.10:_ZN9CPlusPlus10FindUsages5visitEPNS_15ObjCSelectorASTE
libCPlusPlus.so.10:_ZN9CPlusPlus10FindUsages5visitEPNS_15ObjCTypeNameASTE
libCPlusPlus.so.10:_ZN9CPlusPlus10FindUsages5visitEPNS_15PostIncrDecrASTE
libCPlusPlus.so.10:_ZN9CPlusPlus10FindUsages5visitEPNS_16AsmDefinitionASTE
libCPlusPlus.so.10:_ZN9CPlusPlus10FindUsages5visitEPNS_16BaseSpecifierASTE
libCPlusPlus.so.10:_ZN9CPlusPlus10FindUsages5visitEPNS_16CaseStatementASTE
libCPlusPlus.so.10:_ZN9CPlusPlus10FindUsages5visitEPNS_16EnumSpecifierASTE
libCPlusPlus.so.10:_ZN9CPlusPlus10FindUsages5visitEPNS_16GotoStatementASTE
libCPlusPlus.so.10:_ZN9CPlusPlus10FindUsages5visitEPNS_16LambdaCaptureASTE
libCPlusPlus.so.10:_ZN9CPlusPlus10FindUsages5visitEPNS_16NewExpressionASTE
libCPlusPlus.so.10:_ZN9CPlusPlus10FindUsages5visitEPNS_16QtPrivateSlotASTE
libCPlusPlus.so.10:_ZN9CPlusPlus10FindUsages5visitEPNS_16QualifiedNameASTE
libCPlusPlus.so.10:_ZN9CPlusPlus10FindUsages5visitEPNS_16StringLiteralASTE
libCPlusPlus.so.10:_ZN9CPlusPlus10FindUsages5visitEPNS_17BreakStatementASTE
libCPlusPlus.so.10:_ZN9CPlusPlus10FindUsages5visitEPNS_17CastExpressionASTE
libCPlusPlus.so.10:_ZN9CPlusPlus10FindUsages5visitEPNS_17ClassSpecifierASTE
libCPlusPlus.so.10:_ZN9CPlusPlus10FindUsages5visitEPNS_17MemInitializerASTE
libCPlusPlus.so.10:_ZN9CPlusPlus10FindUsages5visitEPNS_17NumericLiteralASTE
libCPlusPlus.so.10:_ZN9CPlusPlus10FindUsages5visitEPNS_17PointerLiteralASTE
libCPlusPlus.so.10:_ZN9CPlusPlus10FindUsages5visitEPNS_17ThisExpressionASTE
libCPlusPlus.so.10:_ZN9CPlusPlus10FindUsages5visitEPNS_17UsingDirectiveASTE
libCPlusPlus.so.10:_ZN9CPlusPlus10FindUsages5visitEPNS_17WhileStatementASTE
libCPlusPlus.so.10:_ZN9CPlusPlus10FindUsages5visitEPNS_18ArrayDeclaratorASTE
libCPlusPlus.so.10:_ZN9CPlusPlus10FindUsages5visitEPNS_18CompoundLiteralASTE
libCPlusPlus.so.10:_ZN9CPlusPlus10FindUsages5visitEPNS_18CtorInitializerASTE
libCPlusPlus.so.10:_ZN9CPlusPlus10FindUsages5visitEPNS_18PointerToMemberASTE
libCPlusPlus.so.10:_ZN9CPlusPlus10FindUsages5visitEPNS_18QtInterfaceNameASTE
libCPlusPlus.so.10:_ZN9CPlusPlus10FindUsages5visitEPNS_18ReturnStatementASTE
libCPlusPlus.so.10:_ZN9CPlusPlus10FindUsages5visitEPNS_18SimpleSpecifierASTE
libCPlusPlus.so.10:_ZN9CPlusPlus10FindUsages5visitEPNS_18SwitchStatementASTE
libCPlusPlus.so.10:_ZN9CPlusPlus10FindUsages5visitEPNS_18ThrowExpressionASTE
libCPlusPlus.so.10:_ZN9CPlusPlus10FindUsages5visitEPNS_18TranslationUnitASTE
libCPlusPlus.so.10:_ZN9CPlusPlus10FindUsages5visitEPNS_18TypeofSpecifierASTE
libCPlusPlus.so.10:_ZN9CPlusPlus10FindUsages5visitEPNS_18UnaryExpressionASTE
libCPlusPlus.so.10:_ZN9CPlusPlus10FindUsages5visitEPNS_19ArrayInitializerASTE
libCPlusPlus.so.10:_ZN9CPlusPlus10FindUsages5visitEPNS_19BinaryExpressionASTE
libCPlusPlus.so.10:_ZN9CPlusPlus10FindUsages5visitEPNS_19DeleteExpressionASTE
libCPlusPlus.so.10:_ZN9CPlusPlus10FindUsages5visitEPNS_19EmptyDeclarationASTE
libCPlusPlus.so.10:_ZN9CPlusPlus10FindUsages5visitEPNS_19ForeachStatementASTE
libCPlusPlus.so.10:_ZN9CPlusPlus10FindUsages5visitEPNS_19LabeledStatementASTE
libCPlusPlus.so.10:_ZN9CPlusPlus10FindUsages5visitEPNS_19LambdaDeclaratorASTE
libCPlusPlus.so.10:_ZN9CPlusPlus10FindUsages5visitEPNS_19LambdaExpressionASTE
libCPlusPlus.so.10:_ZN9CPlusPlus10FindUsages5visitEPNS_19LambdaIntroducerASTE
libCPlusPlus.so.10:_ZN9CPlusPlus10FindUsages5visitEPNS_19NestedDeclaratorASTE
libCPlusPlus.so.10:_ZN9CPlusPlus10FindUsages5visitEPNS_19NestedExpressionASTE
libCPlusPlus.so.10:_ZN9CPlusPlus10FindUsages5visitEPNS_19ObjCProtocolRefsASTE
libCPlusPlus.so.10:_ZN9CPlusPlus10FindUsages5visitEPNS_19SizeofExpressionASTE
libCPlusPlus.so.10:_ZN9CPlusPlus10FindUsages5visitEPNS_19TypeidExpressionASTE
libCPlusPlus.so.10:_ZN9CPlusPlus10FindUsages5visitEPNS_20AccessDeclarationASTE
libCPlusPlus.so.10:_ZN9CPlusPlus10FindUsages5visitEPNS_20BracedInitializerASTE
libCPlusPlus.so.10:_ZN9CPlusPlus10FindUsages5visitEPNS_20CompoundStatementASTE
libCPlusPlus.so.10:_ZN9CPlusPlus10FindUsages5visitEPNS_20ContinueStatementASTE
libCPlusPlus.so.10:_ZN9CPlusPlus10FindUsages5visitEPNS_20CppCastExpressionASTE
libCPlusPlus.so.10:_ZN9CPlusPlus10FindUsages5visitEPNS_20DecltypeSpecifierASTE
libCPlusPlus.so.10:_ZN9CPlusPlus10FindUsages5visitEPNS_20QtEnumDeclarationASTE
libCPlusPlus.so.10:_ZN9CPlusPlus10FindUsages5visitEPNS_20SimpleDeclarationASTE
libCPlusPlus.so.10:_ZN9CPlusPlus10FindUsages5visitEPNS_20TryBlockStatementASTE
libCPlusPlus.so.10:_ZN9CPlusPlus10FindUsages5visitEPNS_21CompoundExpressionASTE
libCPlusPlus.so.10:_ZN9CPlusPlus10FindUsages5visitEPNS_21FunctionDeclaratorASTE
libCPlusPlus.so.10:_ZN9CPlusPlus10FindUsages5visitEPNS_21FunctionDefinitionASTE
libCPlusPlus.so.10:_ZN9CPlusPlus10FindUsages5visitEPNS_21NamedTypeSpecifierASTE
libCPlusPlus.so.10:_ZN9CPlusPlus10FindUsages5visitEPNS_21NewArrayDeclaratorASTE
libCPlusPlus.so.10:_ZN9CPlusPlus10FindUsages5visitEPNS_21OperatorFunctionIdASTE
libCPlusPlus.so.10:_ZN9CPlusPlus10FindUsages5visitEPNS_21QtFlagsDeclarationASTE
libCPlusPlus.so.10:_ZN9CPlusPlus10FindUsages5visitEPNS_21TrailingReturnTypeASTE
libCPlusPlus.so.10:_ZN9CPlusPlus10FindUsages5visitEPNS_22ExpressionListParenASTE
libCPlusPlus.so.10:_ZN9CPlusPlus10FindUsages5visitEPNS_22ExpressionStatementASTE
libCPlusPlus.so.10:_ZN9CPlusPlus10FindUsages5visitEPNS_22NestedNameSpecifierASTE
libCPlusPlus.so.10:_ZN9CPlusPlus10FindUsages5visitEPNS_22ObjCFastEnumerationASTE
libCPlusPlus.so.10:_ZN9CPlusPlus10FindUsages5visitEPNS_22ObjCMessageArgumentASTE
libCPlusPlus.so.10:_ZN9CPlusPlus10FindUsages5visitEPNS_22ObjCMethodPrototypeASTE
libCPlusPlus.so.10:_ZN9CPlusPlus10FindUsages5visitEPNS_22QtMemberDeclarationASTE
libCPlusPlus.so.10:_ZN9CPlusPlus10FindUsages5visitEPNS_22TemplateDeclarationASTE
libCPlusPlus.so.10:_ZN9CPlusPlus10FindUsages5visitEPNS_22TypeConstructorCallASTE
libCPlusPlus.so.10:_ZN9CPlusPlus10FindUsages5visitEPNS_23ConversionFunctionIdASTE
libCPlusPlus.so.10:_ZN9CPlusPlus10FindUsages5visitEPNS_23DeclarationStatementASTE
libCPlusPlus.so.10:_ZN9CPlusPlus10FindUsages5visitEPNS_23ExceptionDeclarationASTE
libCPlusPlus.so.10:_ZN9CPlusPlus10FindUsages5visitEPNS_23LinkageSpecificationASTE
libCPlusPlus.so.10:_ZN9CPlusPlus10FindUsages5visitEPNS_23ObjCClassDeclarationASTE
libCPlusPlus.so.10:_ZN9CPlusPlus10FindUsages5visitEPNS_23ObjCEncodeExpressionASTE
libCPlusPlus.so.10:_ZN9CPlusPlus10FindUsages5visitEPNS_23ObjCSelectorArgumentASTE
libCPlusPlus.so.10:_ZN9CPlusPlus10FindUsages5visitEPNS_23ParameterDeclarationASTE
libCPlusPlus.so.10:_ZN9CPlusPlus10FindUsages5visitEPNS_24ConditionalExpressionASTE
libCPlusPlus.so.10:_ZN9CPlusPlus10FindUsages5visitEPNS_24GnuAttributeSpecifierASTE
libCPlusPlus.so.10:_ZN9CPlusPlus10FindUsages5visitEPNS_24MsvcDeclspecSpecifierASTE
libCPlusPlus.so.10:_ZN9CPlusPlus10FindUsages5visitEPNS_24ObjCMessageExpressionASTE
libCPlusPlus.so.10:_ZN9CPlusPlus10FindUsages5visitEPNS_24ObjCMethodDeclarationASTE
libCPlusPlus.so.10:_ZN9CPlusPlus10FindUsages5visitEPNS_24ObjCPropertyAttributeASTE
libCPlusPlus.so.10:_ZN9CPlusPlus10FindUsages5visitEPNS_24QtPropertyDeclarationASTE
libCPlusPlus.so.10:_ZN9CPlusPlus10FindUsages5visitEPNS_24StdAttributeSpecifierASTE
libCPlusPlus.so.10:_ZN9CPlusPlus10FindUsages5visitEPNS_24TemplateTypeParameterASTE
libCPlusPlus.so.10:_ZN9CPlusPlus10FindUsages5visitEPNS_24TypenameTypeParameterASTE
libCPlusPlus.so.10:_ZN9CPlusPlus10FindUsages5visitEPNS_25ObjCProtocolExpressionASTE
libCPlusPlus.so.10:_ZN9CPlusPlus10FindUsages5visitEPNS_25ObjCSelectorExpressionASTE
libCPlusPlus.so.10:_ZN9CPlusPlus10FindUsages5visitEPNS_25RangeBasedForStatementASTE
libCPlusPlus.so.10:_ZN9CPlusPlus10FindUsages5visitEPNS_25TypenameCallExpressionASTE
libCPlusPlus.so.10:_ZN9CPlusPlus10FindUsages5visitEPNS_26DecompositionDeclaratorASTE
libCPlusPlus.so.10:_ZN9CPlusPlus10FindUsages5visitEPNS_26ElaboratedTypeSpecifierASTE
libCPlusPlus.so.10:_ZN9CPlusPlus10FindUsages5visitEPNS_26ObjCPropertyDeclarationASTE
libCPlusPlus.so.10:_ZN9CPlusPlus10FindUsages5visitEPNS_26ObjCProtocolDeclarationASTE
libCPlusPlus.so.10:_ZN9CPlusPlus10FindUsages5visitEPNS_26ObjCSynthesizedPropertyASTE
libCPlusPlus.so.10:_ZN9CPlusPlus10FindUsages5visitEPNS_26QtInterfacesDeclarationASTE
libCPlusPlus.so.10:_ZN9CPlusPlus10FindUsages5visitEPNS_26StaticAssertDeclarationASTE
libCPlusPlus.so.10:_ZN9CPlusPlus10FindUsages5visitEPNS_27NamespaceAliasDefinitionASTE
libCPlusPlus.so.10:_ZN9CPlusPlus10FindUsages5visitEPNS_28ObjCSynchronizedStatementASTE
libCPlusPlus.so.10:_ZN9CPlusPlus10FindUsages5visitEPNS_28ObjCVisibilityDeclarationASTE
libCPlusPlus.so.10:_ZN9CPlusPlus10FindUsages5visitEPNS_28QtPropertyDeclarationItemASTE
libCPlusPlus.so.10:_ZN9CPlusPlus10FindUsages5visitEPNS_29NoExceptOperatorExpressionASTE
libCPlusPlus.so.10:_ZN9CPlusPlus10FindUsages5visitEPNS_29ParameterDeclarationClauseASTE
libCPlusPlus.so.10:_ZN9CPlusPlus10FindUsages5visitEPNS_30ObjCClassForwardDeclarationASTE
libCPlusPlus.so.10:_ZN9CPlusPlus10FindUsages5visitEPNS_32DynamicExceptionSpecificationASTE
libCPlusPlus.so.10:_ZN9CPlusPlus10FindUsages5visitEPNS_33ObjCMessageArgumentDeclarationASTE
libCPlusPlus.so.10:_ZN9CPlusPlus10FindUsages5visitEPNS_33ObjCProtocolForwardDeclarationASTE
libCPlusPlus.so.10:_ZN9CPlusPlus10FindUsages5visitEPNS_35ExpressionOrDeclarationStatementASTE
libCPlusPlus.so.10:_ZN9CPlusPlus10FindUsages5visitEPNS_35ObjCDynamicPropertiesDeclarationASTE
libCPlusPlus.so.10:_ZN9CPlusPlus10FindUsages5visitEPNS_35ObjCInstanceVariablesDeclarationASTE
libCPlusPlus.so.10:_ZN9CPlusPlus10FindUsages5visitEPNS_39ObjCSynthesizedPropertiesDeclarationASTE
libCPlusPlus.so.10:_ZN9CPlusPlus10FindUsages5visitEPNS_7CallASTE
libCPlusPlus.so.10:_ZN9CPlusPlus10FindUsages5visitEPNS_8UsingASTE
libCPlusPlus.so.10:_ZN9CPlusPlus10FindUsages5visitEPNS_9TypeIdASTE
libCPlusPlus.so.10:_ZN9CPlusPlus10FindUsages7captureEPNS_10CaptureASTE
libCPlusPlus.so.10:_ZN9CPlusPlus10FindUsages7getTagsEiii
libCPlusPlus.so.10:_ZN9CPlusPlus10FindUsages9attributeEPNS_15GnuAttributeASTE
libCPlusPlus.so.10:_ZN9CPlusPlus10FindUsages9newTypeIdEPNS_12NewTypeIdASTE
libCPlusPlus.so.10:_ZN9CPlusPlus10FindUsages9specifierEPNS_12SpecifierASTE
libCPlusPlus.so.10:_ZN9CPlusPlus10FindUsages9statementEPNS_12StatementASTE
libCPlusPlus.so.10:_ZN9CPlusPlus10FindUsagesC1ERK10QByteArray14QSharedPointerINS_8DocumentEERKNS_8SnapshotEb
libCPlusPlus.so.10:_ZN9CPlusPlus10FindUsagesC1ERKNS_13LookupContextE
libCPlusPlus.so.10:_ZN9CPlusPlus10FindUsagesC2ERK10QByteArray14QSharedPointerINS_8DocumentEERKNS_8SnapshotEb
libCPlusPlus.so.10:_ZN9CPlusPlus10FindUsagesC2ERKNS_13LookupContextE
libCPlusPlus.so.10:_ZN9CPlusPlus10FindUsagesclEPNS_6SymbolE
libCPlusPlus.so.10:_ZN9CPlusPlus10LookupItem10setBindingEPNS_16ClassOrNamespaceE
libCPlusPlus.so.10:_ZN9CPlusPlus10LookupItem14setDeclarationEPNS_6SymbolE
libCPlusPlus.so.10:_ZN9CPlusPlus10LookupItem7setTypeERKNS_18FullySpecifiedTypeE
libCPlusPlus.so.10:_ZN9CPlusPlus10LookupItem8setScopeEPNS_5ScopeE
libCPlusPlus.so.10:_ZN9CPlusPlus10LookupItemC1Ev
libCPlusPlus.so.10:_ZN9CPlusPlus10LookupItemC2Ev
libCPlusPlus.so.10:_ZN9CPlusPlus10MemoryPool15allocate_helperEm
libCPlusPlus.so.10:_ZN9CPlusPlus10MemoryPool5resetEv
libCPlusPlus.so.10:_ZN9CPlusPlus10MemoryPoolC1Ev
libCPlusPlus.so.10:_ZN9CPlusPlus10MemoryPoolC2Ev
libCPlusPlus.so.10:_ZN9CPlusPlus10MemoryPoolD1Ev
libCPlusPlus.so.10:_ZN9CPlusPlus10MemoryPoolD2Ev
libCPlusPlus.so.10:_ZN9CPlusPlus10ObjCMethod12visitSymbol0EPNS_13SymbolVisitorE
libCPlusPlus.so.10:_ZN9CPlusPlus10ObjCMethod7accept0EPNS_11TypeVisitorE
libCPlusPlus.so.10:_ZN9CPlusPlus10ObjCMethodC1EPNS_15TranslationUnitEiPKNS_4NameE
libCPlusPlus.so.10:_ZN9CPlusPlus10ObjCMethodC1EPNS_5CloneEPNS_5SubstEPS0_
libCPlusPlus.so.10:_ZN9CPlusPlus10ObjCMethodC2EPNS_15TranslationUnitEiPKNS_4NameE
libCPlusPlus.so.10:_ZN9CPlusPlus10ObjCMethodC2EPNS_5CloneEPNS_5SubstEPS0_
libCPlusPlus.so.10:_ZN9CPlusPlus10PointerAST6match0EPNS_3ASTEPNS_10ASTMatcherE
libCPlusPlus.so.10:_ZN9CPlusPlus10PointerAST7accept0EPNS_10ASTVisitorE
libCPlusPlus.so.10:_ZN9CPlusPlus11CloneSymbol11cloneSymbolEPNS_6SymbolEPNS_5SubstE
libCPlusPlus.so.10:_ZN9CPlusPlus11CloneSymbol5visitEPNS_10ObjCMethodE
libCPlusPlus.so.10:_ZN9CPlusPlus11CloneSymbol5visitEPNS_11DeclarationE
libCPlusPlus.so.10:_ZN9CPlusPlus11CloneSymbol5visitEPNS_12ObjCProtocolE
libCPlusPlus.so.10:_ZN9CPlusPlus11CloneSymbol5visitEPNS_13ObjCBaseClassE
libCPlusPlus.so.10:_ZN9CPlusPlus11CloneSymbol5visitEPNS_14NamespaceAliasE
libCPlusPlus.so.10:_ZN9CPlusPlus11CloneSymbol5visitEPNS_16ObjCBaseProtocolE
libCPlusPlus.so.10:_ZN9CPlusPlus11CloneSymbol5visitEPNS_16TypenameArgumentE
libCPlusPlus.so.10:_ZN9CPlusPlus11CloneSymbol5visitEPNS_16UsingDeclarationE
libCPlusPlus.so.10:_ZN9CPlusPlus11CloneSymbol5visitEPNS_21QtPropertyDeclarationE
libCPlusPlus.so.10:_ZN9CPlusPlus11CloneSymbol5visitEPNS_23ForwardClassDeclarationE
libCPlusPlus.so.10:_ZN9CPlusPlus11CloneSymbol5visitEPNS_23ObjCPropertyDeclarationE
libCPlusPlus.so.10:_ZN9CPlusPlus11CloneSymbol5visitEPNS_23UsingNamespaceDirectiveE
libCPlusPlus.so.10:_ZN9CPlusPlus11CloneSymbol5visitEPNS_27ObjCForwardClassDeclarationE
libCPlusPlus.so.10:_ZN9CPlusPlus11CloneSymbol5visitEPNS_30ObjCForwardProtocolDeclarationE
libCPlusPlus.so.10:_ZN9CPlusPlus11CloneSymbol5visitEPNS_4EnumE
libCPlusPlus.so.10:_ZN9CPlusPlus11CloneSymbol5visitEPNS_5BlockE
libCPlusPlus.so.10:_ZN9CPlusPlus11CloneSymbol5visitEPNS_5ClassE
libCPlusPlus.so.10:_ZN9CPlusPlus11CloneSymbol5visitEPNS_6QtEnumE
libCPlusPlus.so.10:_ZN9CPlusPlus11CloneSymbol5visitEPNS_8ArgumentE
libCPlusPlus.so.10:_ZN9CPlusPlus11CloneSymbol5visitEPNS_8FunctionE
libCPlusPlus.so.10:_ZN9CPlusPlus11CloneSymbol5visitEPNS_8TemplateE
libCPlusPlus.so.10:_ZN9CPlusPlus11CloneSymbol5visitEPNS_9BaseClassE
libCPlusPlus.so.10:_ZN9CPlusPlus11CloneSymbol5visitEPNS_9NamespaceE
libCPlusPlus.so.10:_ZN9CPlusPlus11CloneSymbol5visitEPNS_9ObjCClassE
libCPlusPlus.so.10:_ZN9CPlusPlus11CloneSymbolC1EPNS_5CloneE
libCPlusPlus.so.10:_ZN9CPlusPlus11CloneSymbolC2EPNS_5CloneE
libCPlusPlus.so.10:_ZN9CPlusPlus11Declaration12visitSymbol0EPNS_13SymbolVisitorE
libCPlusPlus.so.10:_ZN9CPlusPlus11DeclarationC1EPNS_15TranslationUnitEiPKNS_4NameE
libCPlusPlus.so.10:_ZN9CPlusPlus11DeclarationC1EPNS_5CloneEPNS_5SubstEPS0_
libCPlusPlus.so.10:_ZN9CPlusPlus11DeclarationC2EPNS_15TranslationUnitEiPKNS_4NameE
libCPlusPlus.so.10:_ZN9CPlusPlus11DeclarationC2EPNS_5CloneEPNS_5SubstEPS0_
libCPlusPlus.so.10:_ZN9CPlusPlus11Environment14isBuiltinMacroERKNS_12ByteArrayRefE
libCPlusPlus.so.10:_ZN9CPlusPlus11Environment4bindERKNS_5MacroE
libCPlusPlus.so.10:_ZN9CPlusPlus11Environment5resetEv
libCPlusPlus.so.10:_ZN9CPlusPlus11Environment6rehashEv
libCPlusPlus.so.10:_ZN9CPlusPlus11Environment6removeERKNS_12ByteArrayRefE
libCPlusPlus.so.10:_ZN9CPlusPlus11Environment9addMacrosERK5QListINS_5MacroEE
libCPlusPlus.so.10:_ZN9CPlusPlus11EnvironmentC1Ev
libCPlusPlus.so.10:_ZN9CPlusPlus11EnvironmentC2Ev
libCPlusPlus.so.10:_ZN9CPlusPlus11EnvironmentD1Ev
libCPlusPlus.so.10:_ZN9CPlusPlus11EnvironmentD2Ev
libCPlusPlus.so.10:_ZN9CPlusPlus11IntegerType7accept0EPNS_11TypeVisitorE
libCPlusPlus.so.10:_ZN9CPlusPlus11NameVisitor6acceptEPKNS_4NameE
libCPlusPlus.so.10:_ZN9CPlusPlus11NameVisitorC1Ev
libCPlusPlus.so.10:_ZN9CPlusPlus11NameVisitorC2Ev
libCPlusPlus.so.10:_ZN9CPlusPlus11NameVisitorD0Ev
libCPlusPlus.so.10:_ZN9CPlusPlus11NameVisitorD1Ev
libCPlusPlus.so.10:_ZN9CPlusPlus11NameVisitorD2Ev
libCPlusPlus.so.10:_ZN9CPlusPlus11OperatorAST6match0EPNS_3ASTEPNS_10ASTMatcherE
libCPlusPlus.so.10:_ZN9CPlusPlus11OperatorAST7accept0EPNS_10ASTVisitorE
libCPlusPlus.so.10:_ZN9CPlusPlus11PointerType7accept0EPNS_11TypeVisitorE
libCPlusPlus.so.10:_ZN9CPlusPlus11QtMethodAST6match0EPNS_3ASTEPNS_10ASTMatcherE
libCPlusPlus.so.10:_ZN9CPlusPlus11QtMethodAST7accept0EPNS_10ASTVisitorE
libCPlusPlus.so.10:_ZN9CPlusPlus11SimpleLexer11tokenBeforeERK5QListINS_5TokenEEi
libCPlusPlus.so.10:_ZN9CPlusPlus11SimpleLexer15setSkipCommentsEb
libCPlusPlus.so.10:_ZN9CPlusPlus11SimpleLexer7tokenAtERK5QListINS_5TokenEEi
libCPlusPlus.so.10:_ZN9CPlusPlus11SimpleLexer7tokenAtERK7QStringiiRKNS_16LanguageFeaturesE
libCPlusPlus.so.10:_ZN9CPlusPlus11SimpleLexerC1Ev
libCPlusPlus.so.10:_ZN9CPlusPlus11SimpleLexerC2Ev
libCPlusPlus.so.10:_ZN9CPlusPlus11SimpleLexerD1Ev
libCPlusPlus.so.10:_ZN9CPlusPlus11SimpleLexerD2Ev
libCPlusPlus.so.10:_ZN9CPlusPlus11SimpleLexerclERK7QStringi
libCPlusPlus.so.10:_ZN9CPlusPlus11TypeVisitor6acceptEPNS_4TypeE
libCPlusPlus.so.10:_ZN9CPlusPlus11TypeVisitorC1Ev
libCPlusPlus.so.10:_ZN9CPlusPlus11TypeVisitorC2Ev
libCPlusPlus.so.10:_ZN9CPlusPlus11TypeVisitorD0Ev
libCPlusPlus.so.10:_ZN9CPlusPlus11TypeVisitorD1Ev
libCPlusPlus.so.10:_ZN9CPlusPlus11TypeVisitorD2Ev
libCPlusPlus.so.10:_ZN9CPlusPlus11rewriteNameEPKNS_4NameEPNS_23SubstitutionEnvironmentEPNS_7ControlE
libCPlusPlus.so.10:_ZN9CPlusPlus11rewriteTypeERKNS_18FullySpecifiedTypeEPNS_23SubstitutionEnvironmentEPNS_7ControlE
libCPlusPlus.so.10:_ZN9CPlusPlus12ConditionAST6match0EPNS_3ASTEPNS_10ASTMatcherE
libCPlusPlus.so.10:_ZN9CPlusPlus12ConditionAST7accept0EPNS_10ASTVisitorE
libCPlusPlus.so.10:_ZN9CPlusPlus12MatchingText17isInCommentHelperERK11QTextCursorPNS_5TokenE
libCPlusPlus.so.10:_ZN9CPlusPlus12MatchingText18stringKindAtCursorERK11QTextCursor
libCPlusPlus.so.10:_ZN9CPlusPlus12MatchingText19insertMatchingBraceERK11QTextCursorRK7QString5QCharbPi
libCPlusPlus.so.10:_ZN9CPlusPlus12MatchingText19insertMatchingQuoteERK11QTextCursorRK7QString5QCharbPi
libCPlusPlus.so.10:_ZN9CPlusPlus12MatchingText23contextAllowsAutoQuotesERK11QTextCursorRK7QString
libCPlusPlus.so.10:_ZN9CPlusPlus12MatchingText24insertParagraphSeparatorERK11QTextCursor
libCPlusPlus.so.10:_ZN9CPlusPlus12MatchingText24shouldInsertMatchingTextE5QChar
libCPlusPlus.so.10:_ZN9CPlusPlus12MatchingText24shouldInsertMatchingTextERK11QTextCursor
libCPlusPlus.so.10:_ZN9CPlusPlus12MatchingText28contextAllowsAutoParenthesesERK11QTextCursorRK7QStringSt8functionIFbRK10QTextBlockEE
libCPlusPlus.so.10:_ZN9CPlusPlus12MatchingText31contextAllowsElectricCharactersERK11QTextCursor
libCPlusPlus.so.10:_ZN9CPlusPlus12NamespaceAST6match0EPNS_3ASTEPNS_10ASTMatcherE
libCPlusPlus.so.10:_ZN9CPlusPlus12NamespaceAST7accept0EPNS_10ASTVisitorE
libCPlusPlus.so.10:_ZN9CPlusPlus12NewTypeIdAST6match0EPNS_3ASTEPNS_10ASTMatcherE
libCPlusPlus.so.10:_ZN9CPlusPlus12NewTypeIdAST7accept0EPNS_10ASTVisitorE
libCPlusPlus.so.10:_ZN9CPlusPlus12ObjCProtocol11addProtocolEPNS_16ObjCBaseProtocolE
libCPlusPlus.so.10:_ZN9CPlusPlus12ObjCProtocol12visitSymbol0EPNS_13SymbolVisitorE
libCPlusPlus.so.10:_ZN9CPlusPlus12ObjCProtocol7accept0EPNS_11TypeVisitorE
libCPlusPlus.so.10:_ZN9CPlusPlus12ObjCProtocolC1EPNS_15TranslationUnitEiPKNS_4NameE
libCPlusPlus.so.10:_ZN9CPlusPlus12ObjCProtocolC1EPNS_5CloneEPNS_5SubstEPS0_
libCPlusPlus.so.10:_ZN9CPlusPlus12ObjCProtocolC2EPNS_15TranslationUnitEiPKNS_4NameE
libCPlusPlus.so.10:_ZN9CPlusPlus12ObjCProtocolC2EPNS_5CloneEPNS_5SubstEPS0_
libCPlusPlus.so.10:_ZN9CPlusPlus12Preprocessor10preprocessERK7QStringRK10QByteArrayPS4_S7_bbbjjj
libCPlusPlus.so.10:_ZN9CPlusPlus12Preprocessor11scanCommentEPNS_8Internal7PPTokenE
libCPlusPlus.so.10:_ZN9CPlusPlus12Preprocessor13generateTokenENS_4KindEPKcijbb
libCPlusPlus.so.10:_ZN9CPlusPlus12Preprocessor13handleDefinedEPNS_8Internal7PPTokenE
libCPlusPlus.so.10:_ZN9CPlusPlus12Preprocessor14enforceSpacingERKNS_8Internal7PPTokenEb
libCPlusPlus.so.10:_ZN9CPlusPlus12Preprocessor14evalExpressionEPNS_8Internal7PPTokenERNS1_5ValueE
libCPlusPlus.so.10:_ZN9CPlusPlus12Preprocessor15computeDistanceERKNS_8Internal7PPTokenEb
libCPlusPlus.so.10:_ZN9CPlusPlus12Preprocessor15consumeCommentsEPNS_8Internal7PPTokenE
libCPlusPlus.so.10:_ZN9CPlusPlus12Preprocessor15setKeepCommentsEb
libCPlusPlus.so.10:_ZN9CPlusPlus12Preprocessor16handleIdentifierEPNS_8Internal7PPTokenE
libCPlusPlus.so.10:_ZN9CPlusPlus12Preprocessor16setCancelCheckerERKSt8functionIFbvEE
libCPlusPlus.so.10:_ZN9CPlusPlus12Preprocessor17handleIfDirectiveEPNS_8Internal7PPTokenE
libCPlusPlus.so.10:_ZN9CPlusPlus12Preprocessor18scanActualArgumentEPNS_8Internal7PPTokenEP5QListIS2_E
libCPlusPlus.so.10:_ZN9CPlusPlus12Preprocessor19handleElifDirectiveEPNS_8Internal7PPTokenERKS2_
libCPlusPlus.so.10:_ZN9CPlusPlus12Preprocessor19handleElseDirectiveEPNS_8Internal7PPTokenERKS2_
libCPlusPlus.so.10:_ZN9CPlusPlus12Preprocessor20generateConcatenatedERKNS_8Internal7PPTokenES4_
libCPlusPlus.so.10:_ZN9CPlusPlus12Preprocessor20handleEndIfDirectiveEPNS_8Internal7PPTokenERKS2_
libCPlusPlus.so.10:_ZN9CPlusPlus12Preprocessor20handleIfDefDirectiveEbPNS_8Internal7PPTokenE
libCPlusPlus.so.10:_ZN9CPlusPlus12Preprocessor20handleUndefDirectiveEPNS_8Internal7PPTokenE
libCPlusPlus.so.10:_ZN9CPlusPlus12Preprocessor20maybeStartOutputLineEv
libCPlusPlus.so.10:_ZN9CPlusPlus12Preprocessor20trackExpansionCyclesEPNS_8Internal7PPTokenE
libCPlusPlus.so.10:_ZN9CPlusPlus12Preprocessor21configurationFileNameEv
libCPlusPlus.so.10:_ZN9CPlusPlus12Preprocessor21handleDefineDirectiveEPNS_8Internal7PPTokenE
libCPlusPlus.so.10:_ZN9CPlusPlus12Preprocessor22collectActualArgumentsEPNS_8Internal7PPTokenEP5QListIS4_IS2_EERK10QByteArray
libCPlusPlus.so.10:_ZN9CPlusPlus12Preprocessor22handleIncludeDirectiveEPNS_8Internal7PPTokenEb
libCPlusPlus.so.10:_ZN9CPlusPlus12Preprocessor22synchronizeOutputLinesERKNS_8Internal7PPTokenEb
libCPlusPlus.so.10:_ZN9CPlusPlus12Preprocessor23handleFunctionLikeMacroEPKNS_5MacroER5QListINS_8Internal7PPTokenEERKS4_IS7_Ej
libCPlusPlus.so.10:_ZN9CPlusPlus12Preprocessor24generateOutputLineMarkerEj
libCPlusPlus.so.10:_ZN9CPlusPlus12Preprocessor24skipPreprocesorDirectiveEPNS_8Internal7PPTokenE
libCPlusPlus.so.10:_ZN9CPlusPlus12Preprocessor27handlePreprocessorDirectiveEPNS_8Internal7PPTokenE
libCPlusPlus.so.10:_ZN9CPlusPlus12Preprocessor27setExpandFunctionlikeMacrosEb
libCPlusPlus.so.10:_ZN9CPlusPlus12Preprocessor3lexEPNS_8Internal7PPTokenE
libCPlusPlus.so.10:_ZN9CPlusPlus12Preprocessor3runERK7QStringRK10QByteArraybb
libCPlusPlus.so.10:_ZN9CPlusPlus12Preprocessor3runERKN5Utils8FilePathERK10QByteArraybb
libCPlusPlus.so.10:_ZN9CPlusPlus12Preprocessor5State14popTokenBufferEv
libCPlusPlus.so.10:_ZN9CPlusPlus12Preprocessor5State15pushTokenBufferEPKNS_8Internal7PPTokenES5_PKNS_5MacroE
libCPlusPlus.so.10:_ZN9CPlusPlus12Preprocessor5State30updateIncludeGuardState_helperENS1_21IncludeGuardStateHintEPNS_8Internal7PPTokenE
libCPlusPlus.so.10:_ZN9CPlusPlus12Preprocessor5StateC1Ev
libCPlusPlus.so.10:_ZN9CPlusPlus12Preprocessor5StateC2Ev
libCPlusPlus.so.10:_ZN9CPlusPlus12Preprocessor6expandEPNS_8Internal7PPTokenES3_
libCPlusPlus.so.10:_ZN9CPlusPlus12Preprocessor9pushTokenEPNS_8Internal7PPTokenE
libCPlusPlus.so.10:_ZN9CPlusPlus12PreprocessorC1EPNS_6ClientEPNS_11EnvironmentE
libCPlusPlus.so.10:_ZN9CPlusPlus12PreprocessorC2EPNS_6ClientEPNS_11EnvironmentE
libCPlusPlus.so.10:_ZN9CPlusPlus12ReferenceAST6match0EPNS_3ASTEPNS_10ASTMatcherE
libCPlusPlus.so.10:_ZN9CPlusPlus12ReferenceAST7accept0EPNS_10ASTVisitorE
libCPlusPlus.so.10:_ZN9CPlusPlus13DeclaratorAST6match0EPNS_3ASTEPNS_10ASTMatcherE
libCPlusPlus.so.10:_ZN9CPlusPlus13DeclaratorAST7accept0EPNS_10ASTVisitorE
libCPlusPlus.so.10:_ZN9CPlusPlus13EnumeratorAST6match0EPNS_3ASTEPNS_10ASTMatcherE
libCPlusPlus.so.10:_ZN9CPlusPlus13EnumeratorAST7accept0EPNS_10ASTVisitorE
libCPlusPlus.so.10:_ZN9CPlusPlus13LookupContext11minimalNameEPNS_6SymbolEPNS_16ClassOrNamespaceEPNS_7ControlE
libCPlusPlus.so.10:_ZN9CPlusPlus13LookupContext18fullyQualifiedNameEPNS_6SymbolENS0_21InlineNamespacePolicyE
libCPlusPlus.so.10:_ZN9CPlusPlus13LookupContext4pathEPNS_6SymbolENS0_21InlineNamespacePolicyE
libCPlusPlus.so.10:_ZN9CPlusPlus13LookupContextC1E14QSharedPointerINS_8DocumentEERKNS_8SnapshotE
libCPlusPlus.so.10:_ZN9CPlusPlus13LookupContextC1E14QSharedPointerINS_8DocumentEES3_RKNS_8SnapshotES1_INS_14CreateBindingsEE
libCPlusPlus.so.10:_ZN9CPlusPlus13LookupContextC1ERKS0_
libCPlusPlus.so.10:_ZN9CPlusPlus13LookupContextC1Ev
libCPlusPlus.so.10:_ZN9CPlusPlus13LookupContextC2E14QSharedPointerINS_8DocumentEERKNS_8SnapshotE
libCPlusPlus.so.10:_ZN9CPlusPlus13LookupContextC2E14QSharedPointerINS_8DocumentEES3_RKNS_8SnapshotES1_INS_14CreateBindingsEE
libCPlusPlus.so.10:_ZN9CPlusPlus13LookupContextC2ERKS0_
libCPlusPlus.so.10:_ZN9CPlusPlus13LookupContextC2Ev
libCPlusPlus.so.10:_ZN9CPlusPlus13LookupContextaSERKS0_
libCPlusPlus.so.10:_ZN9CPlusPlus13ObjCBaseClass12visitSymbol0EPNS_13SymbolVisitorE
libCPlusPlus.so.10:_ZN9CPlusPlus13ObjCBaseClassC1EPNS_15TranslationUnitEiPKNS_4NameE
libCPlusPlus.so.10:_ZN9CPlusPlus13ObjCBaseClassC1EPNS_5CloneEPNS_5SubstEPS0_
libCPlusPlus.so.10:_ZN9CPlusPlus13ObjCBaseClassC2EPNS_15TranslationUnitEiPKNS_4NameE
libCPlusPlus.so.10:_ZN9CPlusPlus13ObjCBaseClassC2EPNS_5CloneEPNS_5SubstEPS0_
libCPlusPlus.so.10:_ZN9CPlusPlus13ReferenceType7accept0EPNS_11TypeVisitorE
libCPlusPlus.so.10:_ZN9CPlusPlus13ReferenceTypeC1ERKNS_18FullySpecifiedTypeEb
libCPlusPlus.so.10:_ZN9CPlusPlus13ReferenceTypeC2ERKNS_18FullySpecifiedTypeEb
libCPlusPlus.so.10:_ZN9CPlusPlus13SimpleNameAST6match0EPNS_3ASTEPNS_10ASTMatcherE
libCPlusPlus.so.10:_ZN9CPlusPlus13SimpleNameAST7accept0EPNS_10ASTVisitorE
libCPlusPlus.so.10:_ZN9CPlusPlus13TemplateIdAST6match0EPNS_3ASTEPNS_10ASTMatcherE
libCPlusPlus.so.10:_ZN9CPlusPlus13TemplateIdAST7accept0EPNS_10ASTVisitorE
libCPlusPlus.so.10:_ZN9CPlusPlus13UndefinedType7accept0EPNS_11TypeVisitorE
libCPlusPlus.so.10:_ZN9CPlusPlus13UndefinedType8instanceE
libCPlusPlus.so.10:_ZN9CPlusPlus14ArrayAccessAST6match0EPNS_3ASTEPNS_10ASTMatcherE
libCPlusPlus.so.10:_ZN9CPlusPlus14ArrayAccessAST7accept0EPNS_10ASTVisitorE
libCPlusPlus.so.10:_ZN9CPlusPlus14BoolLiteralAST6match0EPNS_3ASTEPNS_10ASTMatcherE
libCPlusPlus.so.10:_ZN9CPlusPlus14BoolLiteralAST7accept0EPNS_10ASTVisitorE
libCPlusPlus.so.10:_ZN9CPlusPlus14CatchClauseAST6match0EPNS_3ASTEPNS_10ASTMatcherE
libCPlusPlus.so.10:_ZN9CPlusPlus14CatchClauseAST7accept0EPNS_10ASTVisitorE
libCPlusPlus.so.10:_ZN9CPlusPlus14CreateBindings10lookupTypeEPNS_6SymbolEPNS_16ClassOrNamespaceE
libCPlusPlus.so.10:_ZN9CPlusPlus14CreateBindings10lookupTypeERK5QListIPKNS_4NameEEPNS_16ClassOrNamespaceE
libCPlusPlus.so.10:_ZN9CPlusPlus14CreateBindings13lookupInScopeEPKNS_4NameEPNS_5ScopeEP5QListINS_10LookupItemEEPKNS_14TemplateNameIdEPNS_16ClassOrNamespaceE
libCPlusPlus.so.10:_ZN9CPlusPlus14CreateBindings21allocClassOrNamespaceEPNS_16ClassOrNamespaceE
libCPlusPlus.so.10:_ZN9CPlusPlus14CreateBindings27enterGlobalClassOrNamespaceEPNS_6SymbolE
libCPlusPlus.so.10:_ZN9CPlusPlus14CreateBindings28enterClassOrNamespaceBindingEPNS_6SymbolE
libCPlusPlus.so.10:_ZN9CPlusPlus14CreateBindings29switchCurrentClassOrNamespaceEPNS_16ClassOrNamespaceE
libCPlusPlus.so.10:_ZN9CPlusPlus14CreateBindings5visitEPNS_10ObjCMethodE
libCPlusPlus.so.10:_ZN9CPlusPlus14CreateBindings5visitEPNS_11DeclarationE
libCPlusPlus.so.10:_ZN9CPlusPlus14CreateBindings5visitEPNS_12ObjCProtocolE
libCPlusPlus.so.10:_ZN9CPlusPlus14CreateBindings5visitEPNS_13ObjCBaseClassE
libCPlusPlus.so.10:_ZN9CPlusPlus14CreateBindings5visitEPNS_14NamespaceAliasE
libCPlusPlus.so.10:_ZN9CPlusPlus14CreateBindings5visitEPNS_16ObjCBaseProtocolE
libCPlusPlus.so.10:_ZN9CPlusPlus14CreateBindings5visitEPNS_16UsingDeclarationE
libCPlusPlus.so.10:_ZN9CPlusPlus14CreateBindings5visitEPNS_23ForwardClassDeclarationE
libCPlusPlus.so.10:_ZN9CPlusPlus14CreateBindings5visitEPNS_23UsingNamespaceDirectiveE
libCPlusPlus.so.10:_ZN9CPlusPlus14CreateBindings5visitEPNS_27ObjCForwardClassDeclarationE
libCPlusPlus.so.10:_ZN9CPlusPlus14CreateBindings5visitEPNS_30ObjCForwardProtocolDeclarationE
libCPlusPlus.so.10:_ZN9CPlusPlus14CreateBindings5visitEPNS_4EnumE
libCPlusPlus.so.10:_ZN9CPlusPlus14CreateBindings5visitEPNS_5BlockE
libCPlusPlus.so.10:_ZN9CPlusPlus14CreateBindings5visitEPNS_5ClassE
libCPlusPlus.so.10:_ZN9CPlusPlus14CreateBindings5visitEPNS_8FunctionE
libCPlusPlus.so.10:_ZN9CPlusPlus14CreateBindings5visitEPNS_8TemplateE
libCPlusPlus.so.10:_ZN9CPlusPlus14CreateBindings5visitEPNS_9BaseClassE
libCPlusPlus.so.10:_ZN9CPlusPlus14CreateBindings5visitEPNS_9NamespaceE
libCPlusPlus.so.10:_ZN9CPlusPlus14CreateBindings5visitEPNS_9ObjCClassE
libCPlusPlus.so.10:_ZN9CPlusPlus14CreateBindings7processE14QSharedPointerINS_8DocumentEE
libCPlusPlus.so.10:_ZN9CPlusPlus14CreateBindings7processEPNS_6SymbolE
libCPlusPlus.so.10:_ZN9CPlusPlus14CreateBindings7processEPNS_6SymbolEPNS_16ClassOrNamespaceE
libCPlusPlus.so.10:_ZN9CPlusPlus14CreateBindingsC1E14QSharedPointerINS_8DocumentEERKNS_8SnapshotE
libCPlusPlus.so.10:_ZN9CPlusPlus14CreateBindingsC2E14QSharedPointerINS_8DocumentEERKNS_8SnapshotE
libCPlusPlus.so.10:_ZN9CPlusPlus14CreateBindingsD0Ev
libCPlusPlus.so.10:_ZN9CPlusPlus14CreateBindingsD1Ev
libCPlusPlus.so.10:_ZN9CPlusPlus14CreateBindingsD2Ev
libCPlusPlus.so.10:_ZN9CPlusPlus14DoStatementAST6match0EPNS_3ASTEPNS_10ASTMatcherE
libCPlusPlus.so.10:_ZN9CPlusPlus14DoStatementAST7accept0EPNS_10ASTVisitorE
libCPlusPlus.so.10:_ZN9CPlusPlus14IfStatementAST6match0EPNS_3ASTEPNS_10ASTMatcherE
libCPlusPlus.so.10:_ZN9CPlusPlus14IfStatementAST7accept0EPNS_10ASTVisitorE
libCPlusPlus.so.10:_ZN9CPlusPlus14LinkageBodyAST6match0EPNS_3ASTEPNS_10ASTMatcherE
libCPlusPlus.so.10:_ZN9CPlusPlus14LinkageBodyAST7accept0EPNS_10ASTVisitorE
libCPlusPlus.so.10:_ZN9CPlusPlus14NamespaceAlias12visitSymbol0EPNS_13SymbolVisitorE
libCPlusPlus.so.10:_ZN9CPlusPlus14NamespaceAliasC1EPNS_15TranslationUnitEiPKNS_4NameE
libCPlusPlus.so.10:_ZN9CPlusPlus14NamespaceAliasC1EPNS_5CloneEPNS_5SubstEPS0_
libCPlusPlus.so.10:_ZN9CPlusPlus14NamespaceAliasC2EPNS_15TranslationUnitEiPKNS_4NameE
libCPlusPlus.so.10:_ZN9CPlusPlus14NamespaceAliasC2EPNS_5CloneEPNS_5SubstEPS0_
libCPlusPlus.so.10:_ZN9CPlusPlus14NumericLiteralC1EPKci
libCPlusPlus.so.10:_ZN9CPlusPlus14NumericLiteralC2EPKci
libCPlusPlus.so.10:_ZN9CPlusPlus14OperatorNameIdC1ENS0_4KindE
libCPlusPlus.so.10:_ZN9CPlusPlus14OperatorNameIdC2ENS0_4KindE
libCPlusPlus.so.10:_ZN9CPlusPlus14OperatorNameIdD0Ev
libCPlusPlus.so.10:_ZN9CPlusPlus14OperatorNameIdD1Ev
libCPlusPlus.so.10:_ZN9CPlusPlus14OperatorNameIdD2Ev
libCPlusPlus.so.10:_ZN9CPlusPlus14QtObjectTagAST6match0EPNS_3ASTEPNS_10ASTMatcherE
libCPlusPlus.so.10:_ZN9CPlusPlus14QtObjectTagAST7accept0EPNS_10ASTVisitorE
libCPlusPlus.so.10:_ZN9CPlusPlus14SelectorNameIdD0Ev
libCPlusPlus.so.10:_ZN9CPlusPlus14SelectorNameIdD1Ev
libCPlusPlus.so.10:_ZN9CPlusPlus14SelectorNameIdD2Ev
libCPlusPlus.so.10:_ZN9CPlusPlus14TemplateNameIdD0Ev
libCPlusPlus.so.10:_ZN9CPlusPlus14TemplateNameIdD1Ev
libCPlusPlus.so.10:_ZN9CPlusPlus14TemplateNameIdD2Ev
libCPlusPlus.so.10:_ZN9CPlusPlus15AnonymousNameIdC1Ei
libCPlusPlus.so.10:_ZN9CPlusPlus15AnonymousNameIdC2Ei
libCPlusPlus.so.10:_ZN9CPlusPlus15AnonymousNameIdD0Ev
libCPlusPlus.so.10:_ZN9CPlusPlus15AnonymousNameIdD1Ev
libCPlusPlus.so.10:_ZN9CPlusPlus15AnonymousNameIdD2Ev
libCPlusPlus.so.10:_ZN9CPlusPlus15DeclaratorIdAST6match0EPNS_3ASTEPNS_10ASTMatcherE
libCPlusPlus.so.10:_ZN9CPlusPlus15DeclaratorIdAST7accept0EPNS_10ASTVisitorE
libCPlusPlus.so.10:_ZN9CPlusPlus15DependencyTable5buildER20QFutureInterfaceBaseRKNS_8SnapshotE
libCPlusPlus.so.10:_ZN9CPlusPlus15ForStatementAST6match0EPNS_3ASTEPNS_10ASTMatcherE
libCPlusPlus.so.10:_ZN9CPlusPlus15ForStatementAST7accept0EPNS_10ASTVisitorE
libCPlusPlus.so.10:_ZN9CPlusPlus15GnuAttributeAST6match0EPNS_3ASTEPNS_10ASTMatcherE
libCPlusPlus.so.10:_ZN9CPlusPlus15GnuAttributeAST7accept0EPNS_10ASTVisitorE
libCPlusPlus.so.10:_ZN9CPlusPlus15IdExpressionAST6match0EPNS_3ASTEPNS_10ASTMatcherE
libCPlusPlus.so.10:_ZN9CPlusPlus15IdExpressionAST7accept0EPNS_10ASTVisitorE
libCPlusPlus.so.10:_ZN9CPlusPlus15MemberAccessAST6match0EPNS_3ASTEPNS_10ASTMatcherE
libCPlusPlus.so.10:_ZN9CPlusPlus15MemberAccessAST7accept0EPNS_10ASTVisitorE
libCPlusPlus.so.10:_ZN9CPlusPlus15ObjCSelectorAST6match0EPNS_3ASTEPNS_10ASTMatcherE
libCPlusPlus.so.10:_ZN9CPlusPlus15ObjCSelectorAST7accept0EPNS_10ASTVisitorE
libCPlusPlus.so.10:_ZN9CPlusPlus15ObjCTypeNameAST6match0EPNS_3ASTEPNS_10ASTMatcherE
libCPlusPlus.so.10:_ZN9CPlusPlus15ObjCTypeNameAST7accept0EPNS_10ASTVisitorE
libCPlusPlus.so.10:_ZN9CPlusPlus15PostIncrDecrAST6match0EPNS_3ASTEPNS_10ASTMatcherE
libCPlusPlus.so.10:_ZN9CPlusPlus15PostIncrDecrAST7accept0EPNS_10ASTVisitorE
libCPlusPlus.so.10:_ZN9CPlusPlus15QualifiedNameIdD0Ev
libCPlusPlus.so.10:_ZN9CPlusPlus15QualifiedNameIdD1Ev
libCPlusPlus.so.10:_ZN9CPlusPlus15QualifiedNameIdD2Ev
libCPlusPlus.so.10:_ZN9CPlusPlus15SubstitutionMap4bindEPKNS_4NameERKNS_18FullySpecifiedTypeE
libCPlusPlus.so.10:_ZN9CPlusPlus15SubstitutionMapC1Ev
libCPlusPlus.so.10:_ZN9CPlusPlus15SubstitutionMapC2Ev
libCPlusPlus.so.10:_ZN9CPlusPlus15SubstitutionMapD0Ev
libCPlusPlus.so.10:_ZN9CPlusPlus15SubstitutionMapD1Ev
libCPlusPlus.so.10:_ZN9CPlusPlus15SubstitutionMapD2Ev
libCPlusPlus.so.10:_ZN9CPlusPlus15TranslationUnit14pushLineOffsetEi
libCPlusPlus.so.10:_ZN9CPlusPlus15TranslationUnit19setSkipFunctionBodyEb
libCPlusPlus.so.10:_ZN9CPlusPlus15TranslationUnit20pushPreprocessorLineEiiPKNS_13StringLiteralE
libCPlusPlus.so.10:_ZN9CPlusPlus15TranslationUnit24releaseTokensAndCommentsEv
libCPlusPlus.so.10:_ZN9CPlusPlus15TranslationUnit29maybeSplitGreaterGreaterTokenEi
libCPlusPlus.so.10:_ZN9CPlusPlus15TranslationUnit5errorEiPKcz
libCPlusPlus.so.10:_ZN9CPlusPlus15TranslationUnit5fatalEiPKcz
libCPlusPlus.so.10:_ZN9CPlusPlus15TranslationUnit5parseENS0_9ParseModeE
libCPlusPlus.so.10:_ZN9CPlusPlus15TranslationUnit7messageENS_16DiagnosticClient5LevelEiPKcP13__va_list_tag
libCPlusPlus.so.10:_ZN9CPlusPlus15TranslationUnit7releaseEv
libCPlusPlus.so.10:_ZN9CPlusPlus15TranslationUnit7warningEiPKcz
libCPlusPlus.so.10:_ZN9CPlusPlus15TranslationUnit8resetASTEv
libCPlusPlus.so.10:_ZN9CPlusPlus15TranslationUnit8tokenizeEv
libCPlusPlus.so.10:_ZN9CPlusPlus15TranslationUnit9nullTokenE
libCPlusPlus.so.10:_ZN9CPlusPlus15TranslationUnit9setSourceEPKci
libCPlusPlus.so.10:_ZN9CPlusPlus15TranslationUnitC1EPNS_7ControlEPKNS_13StringLiteralE
libCPlusPlus.so.10:_ZN9CPlusPlus15TranslationUnitC2EPNS_7ControlEPKNS_13StringLiteralE
libCPlusPlus.so.10:_ZN9CPlusPlus15TranslationUnitD1Ev
libCPlusPlus.so.10:_ZN9CPlusPlus15TranslationUnitD2Ev
libCPlusPlus.so.10:_ZN9CPlusPlus15UseMinimalNamesC1EPNS_16ClassOrNamespaceE
libCPlusPlus.so.10:_ZN9CPlusPlus15UseMinimalNamesC2EPNS_16ClassOrNamespaceE
libCPlusPlus.so.10:_ZN9CPlusPlus15UseMinimalNamesD0Ev
libCPlusPlus.so.10:_ZN9CPlusPlus15UseMinimalNamesD1Ev
libCPlusPlus.so.10:_ZN9CPlusPlus15UseMinimalNamesD2Ev
libCPlusPlus.so.10:_ZN9CPlusPlus16AnonymousNameAST6match0EPNS_3ASTEPNS_10ASTMatcherE
libCPlusPlus.so.10:_ZN9CPlusPlus16AnonymousNameAST7accept0EPNS_10ASTVisitorE
libCPlusPlus.so.10:_ZN9CPlusPlus16AsmDefinitionAST6match0EPNS_3ASTEPNS_10ASTMatcherE
libCPlusPlus.so.10:_ZN9CPlusPlus16AsmDefinitionAST7accept0EPNS_10ASTVisitorE
libCPlusPlus.so.10:_ZN9CPlusPlus16BackwardsScanner10fetchTokenEi
libCPlusPlus.so.10:_ZN9CPlusPlus16BackwardsScanner18previousBlockStateERK10QTextBlock
libCPlusPlus.so.10:_ZN9CPlusPlus16BackwardsScannerC1ERK11QTextCursorRKNS_16LanguageFeaturesEiRK7QStringb
libCPlusPlus.so.10:_ZN9CPlusPlus16BackwardsScannerC2ERK11QTextCursorRKNS_16LanguageFeaturesEiRK7QStringb
libCPlusPlus.so.10:_ZN9CPlusPlus16BaseSpecifierAST6match0EPNS_3ASTEPNS_10ASTMatcherE
libCPlusPlus.so.10:_ZN9CPlusPlus16BaseSpecifierAST7accept0EPNS_10ASTVisitorE
libCPlusPlus.so.10:_ZN9CPlusPlus16CaseStatementAST6match0EPNS_3ASTEPNS_10ASTMatcherE
libCPlusPlus.so.10:_ZN9CPlusPlus16CaseStatementAST7accept0EPNS_10ASTVisitorE
libCPlusPlus.so.10:_ZN9CPlusPlus16ClassOrNamespace10lookupTypeEPKNS_4NameE
libCPlusPlus.so.10:_ZN9CPlusPlus16ClassOrNamespace10lookupTypeEPKNS_4NameEPNS_5BlockE
libCPlusPlus.so.10:_ZN9CPlusPlus16ClassOrNamespace10nestedTypeEPKNS_4NameEP4QSetIPS0_ES5_
libCPlusPlus.so.10:_ZN9CPlusPlus16ClassOrNamespace13addNestedTypeEPKNS_4NameEPS0_
libCPlusPlus.so.10:_ZN9CPlusPlus16ClassOrNamespace13lookupInScopeERK5QListIPKNS_4NameEE
libCPlusPlus.so.10:_ZN9CPlusPlus16ClassOrNamespace13lookup_helperEPKNS_4NameEPS0_P5QListINS_10LookupItemEEP4QSetIS4_EPKNS_14TemplateNameIdE
libCPlusPlus.so.10:_ZN9CPlusPlus16ClassOrNamespace13lookup_helperEPKNS_4NameEb
libCPlusPlus.so.10:_ZN9CPlusPlus16ClassOrNamespace15addUnscopedEnumEPNS_4EnumE
libCPlusPlus.so.10:_ZN9CPlusPlus16ClassOrNamespace16findBlock_helperEPNS_5BlockEP4QSetIPS0_Eb
libCPlusPlus.so.10:_ZN9CPlusPlus16ClassOrNamespace16findOrCreateTypeEPKNS_4NameEPS0_PNS_5ClassE
libCPlusPlus.so.10:_ZN9CPlusPlus16ClassOrNamespace17lookupType_helperEPKNS_4NameEP4QSetIPS0_EbS5_
libCPlusPlus.so.10:_ZN9CPlusPlus16ClassOrNamespace18findSpecializationEPKNS_14TemplateNameIdERKSt13unordered_mapIS3_PS0_NS1_4HashENS1_6EqualsESaISt4pairIKS3_S5_EEE
libCPlusPlus.so.10:_ZN9CPlusPlus16ClassOrNamespace23NestedClassInstantiator11instantiateEPS0_S2_
libCPlusPlus.so.10:_ZN9CPlusPlus16ClassOrNamespace24instantiateNestedClassesEPS0_RNS_5CloneERNS_5SubstES1_
libCPlusPlus.so.10:_ZN9CPlusPlus16ClassOrNamespace31findOrCreateNestedAnonymousTypeEPKNS_15AnonymousNameIdE
libCPlusPlus.so.10:_ZN9CPlusPlus16ClassOrNamespace4findEPKNS_4NameE
libCPlusPlus.so.10:_ZN9CPlusPlus16ClassOrNamespace5flushEv
libCPlusPlus.so.10:_ZN9CPlusPlus16ClassOrNamespace6lookupEPKNS_4NameE
libCPlusPlus.so.10:_ZN9CPlusPlus16ClassOrNamespace7addTodoEPNS_6SymbolE
libCPlusPlus.so.10:_ZN9CPlusPlus16ClassOrNamespace8addUsingEPS0_
libCPlusPlus.so.10:_ZN9CPlusPlus16ClassOrNamespace8findTypeEPKNS_4NameE
libCPlusPlus.so.10:_ZN9CPlusPlus16ClassOrNamespace9addSymbolEPNS_6SymbolE
libCPlusPlus.so.10:_ZN9CPlusPlus16ClassOrNamespace9findBlockEPNS_5BlockE
libCPlusPlus.so.10:_ZN9CPlusPlus16ClassOrNamespace9getNestedEPKNS_4NameE
libCPlusPlus.so.10:_ZN9CPlusPlus16ClassOrNamespaceC1EPNS_14CreateBindingsEPS0_
libCPlusPlus.so.10:_ZN9CPlusPlus16ClassOrNamespaceC2EPNS_14CreateBindingsEPS0_
libCPlusPlus.so.10:_ZN9CPlusPlus16ClassOrNamespaceD1Ev
libCPlusPlus.so.10:_ZN9CPlusPlus16ClassOrNamespaceD2Ev
libCPlusPlus.so.10:_ZN9CPlusPlus16ConversionNameIdC1ERKNS_18FullySpecifiedTypeE
libCPlusPlus.so.10:_ZN9CPlusPlus16ConversionNameIdC2ERKNS_18FullySpecifiedTypeE
libCPlusPlus.so.10:_ZN9CPlusPlus16ConversionNameIdD0Ev
libCPlusPlus.so.10:_ZN9CPlusPlus16ConversionNameIdD1Ev
libCPlusPlus.so.10:_ZN9CPlusPlus16ConversionNameIdD2Ev
libCPlusPlus.so.10:_ZN9CPlusPlus16DestructorNameIdC1EPKNS_4NameE
libCPlusPlus.so.10:_ZN9CPlusPlus16DestructorNameIdC2EPKNS_4NameE
libCPlusPlus.so.10:_ZN9CPlusPlus16DestructorNameIdD0Ev
libCPlusPlus.so.10:_ZN9CPlusPlus16DestructorNameIdD1Ev
libCPlusPlus.so.10:_ZN9CPlusPlus16DestructorNameIdD2Ev
libCPlusPlus.so.10:_ZN9CPlusPlus16DiagnosticClientC2Ev
libCPlusPlus.so.10:_ZN9CPlusPlus16DiagnosticClientD0Ev
libCPlusPlus.so.10:_ZN9CPlusPlus16DiagnosticClientD1Ev
libCPlusPlus.so.10:_ZN9CPlusPlus16DiagnosticClientD2Ev
libCPlusPlus.so.10:_ZN9CPlusPlus16EnumSpecifierAST6match0EPNS_3ASTEPNS_10ASTMatcherE
libCPlusPlus.so.10:_ZN9CPlusPlus16EnumSpecifierAST7accept0EPNS_10ASTVisitorE
libCPlusPlus.so.10:_ZN9CPlusPlus16FastPreprocessor10macroAddedERKNS_5MacroE
libCPlusPlus.so.10:_ZN9CPlusPlus16FastPreprocessor12sourceNeededEiRKN5Utils8FilePathENS_6Client11IncludeTypeERK5QListIS2_E
libCPlusPlus.so.10:_ZN9CPlusPlus16FastPreprocessor16mergeEnvironmentERKN5Utils8FilePathE
libCPlusPlus.so.10:_ZN9CPlusPlus16FastPreprocessor18markAsIncludeGuardERK10QByteArray
libCPlusPlus.so.10:_ZN9CPlusPlus16FastPreprocessor19startExpandingMacroEiiiRKNS_5MacroERK5QListINS_22MacroArgumentReferenceEE
libCPlusPlus.so.10:_ZN9CPlusPlus16FastPreprocessor20notifyMacroReferenceEiiiRKNS_5MacroE
libCPlusPlus.so.10:_ZN9CPlusPlus16FastPreprocessor26failedMacroDefinitionCheckEiiRKNS_12ByteArrayRefE
libCPlusPlus.so.10:_ZN9CPlusPlus16FastPreprocessor26passedMacroDefinitionCheckEiiiRKNS_5MacroE
libCPlusPlus.so.10:_ZN9CPlusPlus16FastPreprocessor3runE14QSharedPointerINS_8DocumentEERK10QByteArrayb
libCPlusPlus.so.10:_ZN9CPlusPlus16FastPreprocessorC1ERKNS_8SnapshotE
libCPlusPlus.so.10:_ZN9CPlusPlus16FastPreprocessorC2ERKNS_8SnapshotE
libCPlusPlus.so.10:_ZN9CPlusPlus16GotoStatementAST6match0EPNS_3ASTEPNS_10ASTMatcherE
libCPlusPlus.so.10:_ZN9CPlusPlus16GotoStatementAST7accept0EPNS_10ASTVisitorE
libCPlusPlus.so.10:_ZN9CPlusPlus16NewExpressionAST6match0EPNS_3ASTEPNS_10ASTMatcherE
libCPlusPlus.so.10:_ZN9CPlusPlus16NewExpressionAST7accept0EPNS_10ASTVisitorE
libCPlusPlus.so.10:_ZN9CPlusPlus16ObjCBaseProtocol12visitSymbol0EPNS_13SymbolVisitorE
libCPlusPlus.so.10:_ZN9CPlusPlus16ObjCBaseProtocolC1EPNS_15TranslationUnitEiPKNS_4NameE
libCPlusPlus.so.10:_ZN9CPlusPlus16ObjCBaseProtocolC1EPNS_5CloneEPNS_5SubstEPS0_
libCPlusPlus.so.10:_ZN9CPlusPlus16ObjCBaseProtocolC2EPNS_15TranslationUnitEiPKNS_4NameE
libCPlusPlus.so.10:_ZN9CPlusPlus16ObjCBaseProtocolC2EPNS_5CloneEPNS_5SubstEPS0_
libCPlusPlus.so.10:_ZN9CPlusPlus16QtPrivateSlotAST6match0EPNS_3ASTEPNS_10ASTMatcherE
libCPlusPlus.so.10:_ZN9CPlusPlus16QtPrivateSlotAST7accept0EPNS_10ASTVisitorE
libCPlusPlus.so.10:_ZN9CPlusPlus16QualifiedNameAST6match0EPNS_3ASTEPNS_10ASTMatcherE
libCPlusPlus.so.10:_ZN9CPlusPlus16QualifiedNameAST7accept0EPNS_10ASTVisitorE
libCPlusPlus.so.10:_ZN9CPlusPlus16StringLiteralAST6match0EPNS_3ASTEPNS_10ASTMatcherE
libCPlusPlus.so.10:_ZN9CPlusPlus16StringLiteralAST7accept0EPNS_10ASTVisitorE
libCPlusPlus.so.10:_ZN9CPlusPlus16TypeOfExpression4initE14QSharedPointerINS_8DocumentEERKNS_8SnapshotES1_INS_14CreateBindingsEERK4QSetIPKNS_11DeclarationEE
libCPlusPlus.so.10:_ZN9CPlusPlus16TypeOfExpression9referenceEPNS_13ExpressionASTE14QSharedPointerINS_8DocumentEEPNS_5ScopeE
libCPlusPlus.so.10:_ZN9CPlusPlus16TypeOfExpression9referenceERK10QByteArrayPNS_5ScopeENS0_14PreprocessModeE
libCPlusPlus.so.10:_ZN9CPlusPlus16TypeOfExpressionC1Ev
libCPlusPlus.so.10:_ZN9CPlusPlus16TypeOfExpressionC2Ev
libCPlusPlus.so.10:_ZN9CPlusPlus16TypeOfExpressionclEPNS_13ExpressionASTE14QSharedPointerINS_8DocumentEEPNS_5ScopeE
libCPlusPlus.so.10:_ZN9CPlusPlus16TypeOfExpressionclERK10QByteArrayPNS_5ScopeENS0_14PreprocessModeE
libCPlusPlus.so.10:_ZN9CPlusPlus16TypenameArgument12visitSymbol0EPNS_13SymbolVisitorE
libCPlusPlus.so.10:_ZN9CPlusPlus16TypenameArgumentC1EPNS_15TranslationUnitEiPKNS_4NameE
libCPlusPlus.so.10:_ZN9CPlusPlus16TypenameArgumentC1EPNS_5CloneEPNS_5SubstEPS0_
libCPlusPlus.so.10:_ZN9CPlusPlus16TypenameArgumentC2EPNS_15TranslationUnitEiPKNS_4NameE
libCPlusPlus.so.10:_ZN9CPlusPlus16TypenameArgumentC2EPNS_5CloneEPNS_5SubstEPS0_
libCPlusPlus.so.10:_ZN9CPlusPlus16UsingDeclaration12visitSymbol0EPNS_13SymbolVisitorE
libCPlusPlus.so.10:_ZN9CPlusPlus16UsingDeclarationC1EPNS_15TranslationUnitEiPKNS_4NameE
libCPlusPlus.so.10:_ZN9CPlusPlus16UsingDeclarationC1EPNS_5CloneEPNS_5SubstEPS0_
libCPlusPlus.so.10:_ZN9CPlusPlus16UsingDeclarationC2EPNS_15TranslationUnitEiPKNS_4NameE
libCPlusPlus.so.10:_ZN9CPlusPlus16UsingDeclarationC2EPNS_5CloneEPNS_5SubstEPS0_
libCPlusPlus.so.10:_ZN9CPlusPlus17BreakStatementAST6match0EPNS_3ASTEPNS_10ASTMatcherE
libCPlusPlus.so.10:_ZN9CPlusPlus17BreakStatementAST7accept0EPNS_10ASTVisitorE
libCPlusPlus.so.10:_ZN9CPlusPlus17CastExpressionAST6match0EPNS_3ASTEPNS_10ASTMatcherE
libCPlusPlus.so.10:_ZN9CPlusPlus17CastExpressionAST7accept0EPNS_10ASTVisitorE
libCPlusPlus.so.10:_ZN9CPlusPlus17ClassSpecifierAST6match0EPNS_3ASTEPNS_10ASTMatcherE
libCPlusPlus.so.10:_ZN9CPlusPlus17ClassSpecifierAST7accept0EPNS_10ASTVisitorE
libCPlusPlus.so.10:_ZN9CPlusPlus17DestructorNameAST6match0EPNS_3ASTEPNS_10ASTMatcherE
libCPlusPlus.so.10:_ZN9CPlusPlus17DestructorNameAST7accept0EPNS_10ASTVisitorE
libCPlusPlus.so.10:_ZN9CPlusPlus17FindCdbBreakpoint10searchFromEi
libCPlusPlus.so.10:_ZN9CPlusPlus17FindCdbBreakpoint5visitEPNS_14CatchClauseASTE
libCPlusPlus.so.10:_ZN9CPlusPlus17FindCdbBreakpoint5visitEPNS_14DoStatementASTE
libCPlusPlus.so.10:_ZN9CPlusPlus17FindCdbBreakpoint5visitEPNS_14IfStatementASTE
libCPlusPlus.so.10:_ZN9CPlusPlus17FindCdbBreakpoint5visitEPNS_15ForStatementASTE
libCPlusPlus.so.10:_ZN9CPlusPlus17FindCdbBreakpoint5visitEPNS_16GotoStatementASTE
libCPlusPlus.so.10:_ZN9CPlusPlus17FindCdbBreakpoint5visitEPNS_17BreakStatementASTE
libCPlusPlus.so.10:_ZN9CPlusPlus17FindCdbBreakpoint5visitEPNS_17WhileStatementASTE
libCPlusPlus.so.10:_ZN9CPlusPlus17FindCdbBreakpoint5visitEPNS_18ReturnStatementASTE
libCPlusPlus.so.10:_ZN9CPlusPlus17FindCdbBreakpoint5visitEPNS_18SwitchStatementASTE
libCPlusPlus.so.10:_ZN9CPlusPlus17FindCdbBreakpoint5visitEPNS_19ForeachStatementASTE
libCPlusPlus.so.10:_ZN9CPlusPlus17FindCdbBreakpoint5visitEPNS_19LabeledStatementASTE
libCPlusPlus.so.10:_ZN9CPlusPlus17FindCdbBreakpoint5visitEPNS_20CompoundStatementASTE
libCPlusPlus.so.10:_ZN9CPlusPlus17FindCdbBreakpoint5visitEPNS_20ContinueStatementASTE
libCPlusPlus.so.10:_ZN9CPlusPlus17FindCdbBreakpoint5visitEPNS_20TryBlockStatementASTE
libCPlusPlus.so.10:_ZN9CPlusPlus17FindCdbBreakpoint5visitEPNS_21FunctionDefinitionASTE
libCPlusPlus.so.10:_ZN9CPlusPlus17FindCdbBreakpoint5visitEPNS_22ExpressionStatementASTE
libCPlusPlus.so.10:_ZN9CPlusPlus17FindCdbBreakpoint5visitEPNS_22ObjCFastEnumerationASTE
libCPlusPlus.so.10:_ZN9CPlusPlus17FindCdbBreakpoint5visitEPNS_22QtMemberDeclarationASTE
libCPlusPlus.so.10:_ZN9CPlusPlus17FindCdbBreakpoint5visitEPNS_23DeclarationStatementASTE
libCPlusPlus.so.10:_ZN9CPlusPlus17FindCdbBreakpoint5visitEPNS_25RangeBasedForStatementASTE
libCPlusPlus.so.10:_ZN9CPlusPlus17FindCdbBreakpoint5visitEPNS_28ObjCSynchronizedStatementASTE
libCPlusPlus.so.10:_ZN9CPlusPlus17FindCdbBreakpoint8preVisitEPNS_3ASTE
libCPlusPlus.so.10:_ZN9CPlusPlus17FindCdbBreakpoint9foundLineEj
libCPlusPlus.so.10:_ZN9CPlusPlus17FindCdbBreakpointC1EPNS_15TranslationUnitE
libCPlusPlus.so.10:_ZN9CPlusPlus17FindCdbBreakpointC2EPNS_15TranslationUnitE
libCPlusPlus.so.10:_ZN9CPlusPlus17MemInitializerAST6match0EPNS_3ASTEPNS_10ASTMatcherE
libCPlusPlus.so.10:_ZN9CPlusPlus17MemInitializerAST7accept0EPNS_10ASTVisitorE
libCPlusPlus.so.10:_ZN9CPlusPlus17NamePrettyPrinter10switchNameERK7QString
libCPlusPlus.so.10:_ZN9CPlusPlus17NamePrettyPrinter5visitEPKNS_10IdentifierE
libCPlusPlus.so.10:_ZN9CPlusPlus17NamePrettyPrinter5visitEPKNS_14OperatorNameIdE
libCPlusPlus.so.10:_ZN9CPlusPlus17NamePrettyPrinter5visitEPKNS_14SelectorNameIdE
libCPlusPlus.so.10:_ZN9CPlusPlus17NamePrettyPrinter5visitEPKNS_14TemplateNameIdE
libCPlusPlus.so.10:_ZN9CPlusPlus17NamePrettyPrinter5visitEPKNS_15AnonymousNameIdE
libCPlusPlus.so.10:_ZN9CPlusPlus17NamePrettyPrinter5visitEPKNS_15QualifiedNameIdE
libCPlusPlus.so.10:_ZN9CPlusPlus17NamePrettyPrinter5visitEPKNS_16ConversionNameIdE
libCPlusPlus.so.10:_ZN9CPlusPlus17NamePrettyPrinter5visitEPKNS_16DestructorNameIdE
libCPlusPlus.so.10:_ZN9CPlusPlus17NamePrettyPrinterC1EPKNS_8OverviewE
libCPlusPlus.so.10:_ZN9CPlusPlus17NamePrettyPrinterC2EPKNS_8OverviewE
libCPlusPlus.so.10:_ZN9CPlusPlus17NamePrettyPrinterD0Ev
libCPlusPlus.so.10:_ZN9CPlusPlus17NamePrettyPrinterD1Ev
libCPlusPlus.so.10:_ZN9CPlusPlus17NamePrettyPrinterD2Ev
libCPlusPlus.so.10:_ZN9CPlusPlus17NamePrettyPrinterclEPKNS_4NameE
libCPlusPlus.so.10:_ZN9CPlusPlus17NumericLiteralAST6match0EPNS_3ASTEPNS_10ASTMatcherE
libCPlusPlus.so.10:_ZN9CPlusPlus17NumericLiteralAST7accept0EPNS_10ASTVisitorE
libCPlusPlus.so.10:_ZN9CPlusPlus17PointerLiteralAST6match0EPNS_3ASTEPNS_10ASTMatcherE
libCPlusPlus.so.10:_ZN9CPlusPlus17PointerLiteralAST7accept0EPNS_10ASTVisitorE
libCPlusPlus.so.10:_ZN9CPlusPlus17ResolveExpression10addResultsERK5QListINS_10LookupItemEE
libCPlusPlus.so.10:_ZN9CPlusPlus17ResolveExpression10addResultsERK5QListIPNS_6SymbolEE
libCPlusPlus.so.10:_ZN9CPlusPlus17ResolveExpression10expressionEPNS_13ExpressionASTE
libCPlusPlus.so.10:_ZN9CPlusPlus17ResolveExpression10thisObjectEv
libCPlusPlus.so.10:_ZN9CPlusPlus17ResolveExpression13switchResultsERK5QListINS_10LookupItemEE
libCPlusPlus.so.10:_ZN9CPlusPlus17ResolveExpression19maybeValidPrototypeEPNS_8FunctionEj
libCPlusPlus.so.10:_ZN9CPlusPlus17ResolveExpression5visitEPNS_12ConditionASTE
libCPlusPlus.so.10:_ZN9CPlusPlus17ResolveExpression5visitEPNS_13SimpleNameASTE
libCPlusPlus.so.10:_ZN9CPlusPlus17ResolveExpression5visitEPNS_13TemplateIdASTE
libCPlusPlus.so.10:_ZN9CPlusPlus17ResolveExpression5visitEPNS_14ArrayAccessASTE
libCPlusPlus.so.10:_ZN9CPlusPlus17ResolveExpression5visitEPNS_14BoolLiteralASTE
libCPlusPlus.so.10:_ZN9CPlusPlus17ResolveExpression5visitEPNS_15IdExpressionASTE
libCPlusPlus.so.10:_ZN9CPlusPlus17ResolveExpression5visitEPNS_15MemberAccessASTE
libCPlusPlus.so.10:_ZN9CPlusPlus17ResolveExpression5visitEPNS_15PostIncrDecrASTE
libCPlusPlus.so.10:_ZN9CPlusPlus17ResolveExpression5visitEPNS_16NewExpressionASTE
libCPlusPlus.so.10:_ZN9CPlusPlus17ResolveExpression5visitEPNS_16QualifiedNameASTE
libCPlusPlus.so.10:_ZN9CPlusPlus17ResolveExpression5visitEPNS_16StringLiteralASTE
libCPlusPlus.so.10:_ZN9CPlusPlus17ResolveExpression5visitEPNS_17CastExpressionASTE
libCPlusPlus.so.10:_ZN9CPlusPlus17ResolveExpression5visitEPNS_17DestructorNameASTE
libCPlusPlus.so.10:_ZN9CPlusPlus17ResolveExpression5visitEPNS_17NumericLiteralASTE
libCPlusPlus.so.10:_ZN9CPlusPlus17ResolveExpression5visitEPNS_17PointerLiteralASTE
libCPlusPlus.so.10:_ZN9CPlusPlus17ResolveExpression5visitEPNS_17ThisExpressionASTE
libCPlusPlus.so.10:_ZN9CPlusPlus17ResolveExpression5visitEPNS_18CompoundLiteralASTE
libCPlusPlus.so.10:_ZN9CPlusPlus17ResolveExpression5visitEPNS_18ReturnStatementASTE
libCPlusPlus.so.10:_ZN9CPlusPlus17ResolveExpression5visitEPNS_18ThrowExpressionASTE
libCPlusPlus.so.10:_ZN9CPlusPlus17ResolveExpression5visitEPNS_18UnaryExpressionASTE
libCPlusPlus.so.10:_ZN9CPlusPlus17ResolveExpression5visitEPNS_19ArrayInitializerASTE
libCPlusPlus.so.10:_ZN9CPlusPlus17ResolveExpression5visitEPNS_19BinaryExpressionASTE
libCPlusPlus.so.10:_ZN9CPlusPlus17ResolveExpression5visitEPNS_19DeleteExpressionASTE
libCPlusPlus.so.10:_ZN9CPlusPlus17ResolveExpression5visitEPNS_19LambdaExpressionASTE
libCPlusPlus.so.10:_ZN9CPlusPlus17ResolveExpression5visitEPNS_19NestedExpressionASTE
libCPlusPlus.so.10:_ZN9CPlusPlus17ResolveExpression5visitEPNS_19SizeofExpressionASTE
libCPlusPlus.so.10:_ZN9CPlusPlus17ResolveExpression5visitEPNS_19TypeidExpressionASTE
libCPlusPlus.so.10:_ZN9CPlusPlus17ResolveExpression5visitEPNS_20CppCastExpressionASTE
libCPlusPlus.so.10:_ZN9CPlusPlus17ResolveExpression5visitEPNS_21CompoundExpressionASTE
libCPlusPlus.so.10:_ZN9CPlusPlus17ResolveExpression5visitEPNS_21OperatorFunctionIdASTE
libCPlusPlus.so.10:_ZN9CPlusPlus17ResolveExpression5visitEPNS_22TypeConstructorCallASTE
libCPlusPlus.so.10:_ZN9CPlusPlus17ResolveExpression5visitEPNS_23ConversionFunctionIdASTE
libCPlusPlus.so.10:_ZN9CPlusPlus17ResolveExpression5visitEPNS_24ConditionalExpressionASTE
libCPlusPlus.so.10:_ZN9CPlusPlus17ResolveExpression5visitEPNS_24ObjCMessageExpressionASTE
libCPlusPlus.so.10:_ZN9CPlusPlus17ResolveExpression5visitEPNS_25TypenameCallExpressionASTE
libCPlusPlus.so.10:_ZN9CPlusPlus17ResolveExpression5visitEPNS_7CallASTE
libCPlusPlus.so.10:_ZN9CPlusPlus17ResolveExpression5visitEPNS_9TypeIdASTE
libCPlusPlus.so.10:_ZN9CPlusPlus17ResolveExpression7resolveEPNS_13ExpressionASTEPNS_5ScopeEb
libCPlusPlus.so.10:_ZN9CPlusPlus17ResolveExpression9addResultERKNS_18FullySpecifiedTypeEPNS_5ScopeEPNS_16ClassOrNamespaceE
libCPlusPlus.so.10:_ZN9CPlusPlus17ResolveExpression9referenceEPNS_13ExpressionASTEPNS_5ScopeE
libCPlusPlus.so.10:_ZN9CPlusPlus17ResolveExpressionC1ERKNS_13LookupContextERK4QSetIPKNS_11DeclarationEE
libCPlusPlus.so.10:_ZN9CPlusPlus17ResolveExpressionC2ERKNS_13LookupContextERK4QSetIPKNS_11DeclarationEE
libCPlusPlus.so.10:_ZN9CPlusPlus17ResolveExpressionD0Ev
libCPlusPlus.so.10:_ZN9CPlusPlus17ResolveExpressionD1Ev
libCPlusPlus.so.10:_ZN9CPlusPlus17ResolveExpressionD2Ev
libCPlusPlus.so.10:_ZN9CPlusPlus17ResolveExpressionclEPNS_13ExpressionASTEPNS_5ScopeE
libCPlusPlus.so.10:_ZN9CPlusPlus17SymbolNameVisitor6acceptEPNS_6SymbolE
libCPlusPlus.so.10:_ZN9CPlusPlus17SymbolNameVisitorC1Ev
libCPlusPlus.so.10:_ZN9CPlusPlus17SymbolNameVisitorC2Ev
libCPlusPlus.so.10:_ZN9CPlusPlus17ThisExpressionAST6match0EPNS_3ASTEPNS_10ASTMatcherE
libCPlusPlus.so.10:_ZN9CPlusPlus17ThisExpressionAST7accept0EPNS_10ASTVisitorE
libCPlusPlus.so.10:_ZN9CPlusPlus17TypePrettyPrinter10acceptTypeERKNS_18FullySpecifiedTypeE
libCPlusPlus.so.10:_ZN9CPlusPlus17TypePrettyPrinter10switchNameERK7QString
libCPlusPlus.so.10:_ZN9CPlusPlus17TypePrettyPrinter10switchTextERK7QString
libCPlusPlus.so.10:_ZN9CPlusPlus17TypePrettyPrinter11appendSpaceEv
libCPlusPlus.so.10:_ZN9CPlusPlus17TypePrettyPrinter17switchNeedsParensEb
libCPlusPlus.so.10:_ZN9CPlusPlus17TypePrettyPrinter20visitIndirectionTypeENS0_15IndirectionTypeERKNS_18FullySpecifiedTypeEb
libCPlusPlus.so.10:_ZN9CPlusPlus17TypePrettyPrinter23switchIsIndirectionTypeEb
libCPlusPlus.so.10:_ZN9CPlusPlus17TypePrettyPrinter25prependSpaceUnlessBracketEv
libCPlusPlus.so.10:_ZN9CPlusPlus17TypePrettyPrinter25prependWordSeparatorSpaceEv
libCPlusPlus.so.10:_ZN9CPlusPlus17TypePrettyPrinter28prependSpaceAfterIndirectionEb
libCPlusPlus.so.10:_ZN9CPlusPlus17TypePrettyPrinter29prependSpaceBeforeIndirectionERKNS_18FullySpecifiedTypeE
libCPlusPlus.so.10:_ZN9CPlusPlus17TypePrettyPrinter36switchIsIndirectionToArrayOrFunctionEb
libCPlusPlus.so.10:_ZN9CPlusPlus17TypePrettyPrinter5visitEPNS_11IntegerTypeE
libCPlusPlus.so.10:_ZN9CPlusPlus17TypePrettyPrinter5visitEPNS_11PointerTypeE
libCPlusPlus.so.10:_ZN9CPlusPlus17TypePrettyPrinter5visitEPNS_13ReferenceTypeE
libCPlusPlus.so.10:_ZN9CPlusPlus17TypePrettyPrinter5visitEPNS_13UndefinedTypeE
libCPlusPlus.so.10:_ZN9CPlusPlus17TypePrettyPrinter5visitEPNS_19PointerToMemberTypeE
libCPlusPlus.so.10:_ZN9CPlusPlus17TypePrettyPrinter5visitEPNS_4EnumE
libCPlusPlus.so.10:_ZN9CPlusPlus17TypePrettyPrinter5visitEPNS_5ClassE
libCPlusPlus.so.10:_ZN9CPlusPlus17TypePrettyPrinter5visitEPNS_8FunctionE
libCPlusPlus.so.10:_ZN9CPlusPlus17TypePrettyPrinter5visitEPNS_8TemplateE
libCPlusPlus.so.10:_ZN9CPlusPlus17TypePrettyPrinter5visitEPNS_8VoidTypeE
libCPlusPlus.so.10:_ZN9CPlusPlus17TypePrettyPrinter5visitEPNS_9ArrayTypeE
libCPlusPlus.so.10:_ZN9CPlusPlus17TypePrettyPrinter5visitEPNS_9FloatTypeE
libCPlusPlus.so.10:_ZN9CPlusPlus17TypePrettyPrinter5visitEPNS_9NamedTypeE
libCPlusPlus.so.10:_ZN9CPlusPlus17TypePrettyPrinter5visitEPNS_9NamespaceE
libCPlusPlus.so.10:_ZN9CPlusPlus17TypePrettyPrinter9prependCvERKNS_18FullySpecifiedTypeE
libCPlusPlus.so.10:_ZN9CPlusPlus17TypePrettyPrinterC1EPKNS_8OverviewE
libCPlusPlus.so.10:_ZN9CPlusPlus17TypePrettyPrinterC2EPKNS_8OverviewE
libCPlusPlus.so.10:_ZN9CPlusPlus17TypePrettyPrinterD0Ev
libCPlusPlus.so.10:_ZN9CPlusPlus17TypePrettyPrinterD1Ev
libCPlusPlus.so.10:_ZN9CPlusPlus17TypePrettyPrinterD2Ev
libCPlusPlus.so.10:_ZN9CPlusPlus17TypePrettyPrinterclERKNS_18FullySpecifiedTypeE
libCPlusPlus.so.10:_ZN9CPlusPlus17TypePrettyPrinterclERKNS_18FullySpecifiedTypeERK7QString
libCPlusPlus.so.10:_ZN9CPlusPlus17UseQualifiedNamesC1Ev
libCPlusPlus.so.10:_ZN9CPlusPlus17UseQualifiedNamesC2Ev
libCPlusPlus.so.10:_ZN9CPlusPlus17UseQualifiedNamesD0Ev
libCPlusPlus.so.10:_ZN9CPlusPlus17UseQualifiedNamesD1Ev
libCPlusPlus.so.10:_ZN9CPlusPlus17UseQualifiedNamesD2Ev
libCPlusPlus.so.10:_ZN9CPlusPlus17UsingDirectiveAST6match0EPNS_3ASTEPNS_10ASTMatcherE
libCPlusPlus.so.10:_ZN9CPlusPlus17UsingDirectiveAST7accept0EPNS_10ASTVisitorE
libCPlusPlus.so.10:_ZN9CPlusPlus17WhileStatementAST6match0EPNS_3ASTEPNS_10ASTMatcherE
libCPlusPlus.so.10:_ZN9CPlusPlus17WhileStatementAST7accept0EPNS_10ASTVisitorE
libCPlusPlus.so.10:_ZN9CPlusPlus18ArrayDeclaratorAST6match0EPNS_3ASTEPNS_10ASTMatcherE
libCPlusPlus.so.10:_ZN9CPlusPlus18ArrayDeclaratorAST7accept0EPNS_10ASTVisitorE
libCPlusPlus.so.10:_ZN9CPlusPlus18CompoundLiteralAST6match0EPNS_3ASTEPNS_10ASTMatcherE
libCPlusPlus.so.10:_ZN9CPlusPlus18CompoundLiteralAST7accept0EPNS_10ASTVisitorE
libCPlusPlus.so.10:_ZN9CPlusPlus18CtorInitializerAST6match0EPNS_3ASTEPNS_10ASTMatcherE
libCPlusPlus.so.10:_ZN9CPlusPlus18CtorInitializerAST7accept0EPNS_10ASTVisitorE
libCPlusPlus.so.10:_ZN9CPlusPlus18FullySpecifiedTypeC1EPNS_4TypeE
libCPlusPlus.so.10:_ZN9CPlusPlus18FullySpecifiedTypeC1Ev
libCPlusPlus.so.10:_ZN9CPlusPlus18FullySpecifiedTypeC2EPNS_4TypeE
libCPlusPlus.so.10:_ZN9CPlusPlus18FullySpecifiedTypeC2Ev
libCPlusPlus.so.10:_ZN9CPlusPlus18PointerToMemberAST6match0EPNS_3ASTEPNS_10ASTMatcherE
libCPlusPlus.so.10:_ZN9CPlusPlus18PointerToMemberAST7accept0EPNS_10ASTVisitorE
libCPlusPlus.so.10:_ZN9CPlusPlus18QtInterfaceNameAST6match0EPNS_3ASTEPNS_10ASTMatcherE
libCPlusPlus.so.10:_ZN9CPlusPlus18QtInterfaceNameAST7accept0EPNS_10ASTVisitorE
libCPlusPlus.so.10:_ZN9CPlusPlus18ReturnStatementAST6match0EPNS_3ASTEPNS_10ASTMatcherE
libCPlusPlus.so.10:_ZN9CPlusPlus18ReturnStatementAST7accept0EPNS_10ASTVisitorE
libCPlusPlus.so.10:_ZN9CPlusPlus18SimpleSpecifierAST6match0EPNS_3ASTEPNS_10ASTMatcherE
libCPlusPlus.so.10:_ZN9CPlusPlus18SimpleSpecifierAST7accept0EPNS_10ASTVisitorE
libCPlusPlus.so.10:_ZN9CPlusPlus18SwitchStatementAST6match0EPNS_3ASTEPNS_10ASTMatcherE
libCPlusPlus.so.10:_ZN9CPlusPlus18SwitchStatementAST7accept0EPNS_10ASTVisitorE
libCPlusPlus.so.10:_ZN9CPlusPlus18ThrowExpressionAST6match0EPNS_3ASTEPNS_10ASTMatcherE
libCPlusPlus.so.10:_ZN9CPlusPlus18ThrowExpressionAST7accept0EPNS_10ASTVisitorE
libCPlusPlus.so.10:_ZN9CPlusPlus18TranslationUnitAST6match0EPNS_3ASTEPNS_10ASTMatcherE
libCPlusPlus.so.10:_ZN9CPlusPlus18TranslationUnitAST7accept0EPNS_10ASTVisitorE
libCPlusPlus.so.10:_ZN9CPlusPlus18TypeofSpecifierAST6match0EPNS_3ASTEPNS_10ASTMatcherE
libCPlusPlus.so.10:_ZN9CPlusPlus18TypeofSpecifierAST7accept0EPNS_10ASTVisitorE
libCPlusPlus.so.10:_ZN9CPlusPlus18UnaryExpressionAST6match0EPNS_3ASTEPNS_10ASTMatcherE
libCPlusPlus.so.10:_ZN9CPlusPlus18UnaryExpressionAST7accept0EPNS_10ASTVisitorE
libCPlusPlus.so.10:_ZN9CPlusPlus19AliasDeclarationAST6match0EPNS_3ASTEPNS_10ASTMatcherE
libCPlusPlus.so.10:_ZN9CPlusPlus19AliasDeclarationAST7accept0EPNS_10ASTVisitorE
libCPlusPlus.so.10:_ZN9CPlusPlus19ArrayInitializerAST6match0EPNS_3ASTEPNS_10ASTMatcherE
libCPlusPlus.so.10:_ZN9CPlusPlus19ArrayInitializerAST7accept0EPNS_10ASTVisitorE
libCPlusPlus.so.10:_ZN9CPlusPlus19BinaryExpressionAST6match0EPNS_3ASTEPNS_10ASTMatcherE
libCPlusPlus.so.10:_ZN9CPlusPlus19BinaryExpressionAST7accept0EPNS_10ASTVisitorE
libCPlusPlus.so.10:_ZN9CPlusPlus19CppModelManagerBase11qt_metacallEN11QMetaObject4CallEiPPv
libCPlusPlus.so.10:_ZN9CPlusPlus19CppModelManagerBase11qt_metacastEPKc
libCPlusPlus.so.10:_ZN9CPlusPlus19CppModelManagerBase16staticMetaObjectE
libCPlusPlus.so.10:_ZN9CPlusPlus19CppModelManagerBase19setExtraDiagnosticsERK7QStringS3_RK5QListINS_8Document17DiagnosticMessageEE
libCPlusPlus.so.10:_ZN9CPlusPlus19CppModelManagerBase22trySetExtraDiagnosticsERK7QStringS3_RK5QListINS_8Document17DiagnosticMessageEE
libCPlusPlus.so.10:_ZN9CPlusPlus19CppModelManagerBase8instanceEv
libCPlusPlus.so.10:_ZN9CPlusPlus19CppModelManagerBaseC1EP7QObject
libCPlusPlus.so.10:_ZN9CPlusPlus19CppModelManagerBaseC2EP7QObject
libCPlusPlus.so.10:_ZN9CPlusPlus19CppModelManagerBaseD0Ev
libCPlusPlus.so.10:_ZN9CPlusPlus19CppModelManagerBaseD1Ev
libCPlusPlus.so.10:_ZN9CPlusPlus19CppModelManagerBaseD2Ev
libCPlusPlus.so.10:_ZN9CPlusPlus19DeleteExpressionAST6match0EPNS_3ASTEPNS_10ASTMatcherE
libCPlusPlus.so.10:_ZN9CPlusPlus19DeleteExpressionAST7accept0EPNS_10ASTVisitorE
libCPlusPlus.so.10:_ZN9CPlusPlus19EmptyDeclarationAST6match0EPNS_3ASTEPNS_10ASTMatcherE
libCPlusPlus.so.10:_ZN9CPlusPlus19EmptyDeclarationAST7accept0EPNS_10ASTVisitorE
libCPlusPlus.so.10:_ZN9CPlusPlus19ForeachStatementAST6match0EPNS_3ASTEPNS_10ASTMatcherE
libCPlusPlus.so.10:_ZN9CPlusPlus19ForeachStatementAST7accept0EPNS_10ASTVisitorE
libCPlusPlus.so.10:_ZN9CPlusPlus19LabeledStatementAST6match0EPNS_3ASTEPNS_10ASTMatcherE
libCPlusPlus.so.10:_ZN9CPlusPlus19LabeledStatementAST7accept0EPNS_10ASTVisitorE
libCPlusPlus.so.10:_ZN9CPlusPlus19NestedDeclaratorAST6match0EPNS_3ASTEPNS_10ASTMatcherE
libCPlusPlus.so.10:_ZN9CPlusPlus19NestedDeclaratorAST7accept0EPNS_10ASTVisitorE
libCPlusPlus.so.10:_ZN9CPlusPlus19NestedExpressionAST6match0EPNS_3ASTEPNS_10ASTMatcherE
libCPlusPlus.so.10:_ZN9CPlusPlus19NestedExpressionAST7accept0EPNS_10ASTVisitorE
libCPlusPlus.so.10:_ZN9CPlusPlus19ObjCProtocolRefsAST6match0EPNS_3ASTEPNS_10ASTMatcherE
libCPlusPlus.so.10:_ZN9CPlusPlus19ObjCProtocolRefsAST7accept0EPNS_10ASTVisitorE
libCPlusPlus.so.10:_ZN9CPlusPlus19PointerToMemberType7accept0EPNS_11TypeVisitorE
libCPlusPlus.so.10:_ZN9CPlusPlus19PointerToMemberTypeC1EPKNS_4NameERKNS_18FullySpecifiedTypeE
libCPlusPlus.so.10:_ZN9CPlusPlus19PointerToMemberTypeC2EPKNS_4NameERKNS_18FullySpecifiedTypeE
libCPlusPlus.so.10:_ZN9CPlusPlus19SizeofExpressionAST6match0EPNS_3ASTEPNS_10ASTMatcherE
libCPlusPlus.so.10:_ZN9CPlusPlus19SizeofExpressionAST7accept0EPNS_10ASTVisitorE
libCPlusPlus.so.10:_ZN9CPlusPlus19TypeidExpressionAST6match0EPNS_3ASTEPNS_10ASTMatcherE
libCPlusPlus.so.10:_ZN9CPlusPlus19TypeidExpressionAST7accept0EPNS_10ASTVisitorE
libCPlusPlus.so.10:_ZN9CPlusPlus20AccessDeclarationAST6match0EPNS_3ASTEPNS_10ASTMatcherE
libCPlusPlus.so.10:_ZN9CPlusPlus20AccessDeclarationAST7accept0EPNS_10ASTVisitorE
libCPlusPlus.so.10:_ZN9CPlusPlus20AlignofExpressionAST6match0EPNS_3ASTEPNS_10ASTMatcherE
libCPlusPlus.so.10:_ZN9CPlusPlus20AlignofExpressionAST7accept0EPNS_10ASTVisitorE
libCPlusPlus.so.10:_ZN9CPlusPlus20CompoundStatementAST6match0EPNS_3ASTEPNS_10ASTMatcherE
libCPlusPlus.so.10:_ZN9CPlusPlus20CompoundStatementAST7accept0EPNS_10ASTVisitorE
libCPlusPlus.so.10:_ZN9CPlusPlus20ContinueStatementAST6match0EPNS_3ASTEPNS_10ASTMatcherE
libCPlusPlus.so.10:_ZN9CPlusPlus20ContinueStatementAST7accept0EPNS_10ASTVisitorE
libCPlusPlus.so.10:_ZN9CPlusPlus20CppCastExpressionAST6match0EPNS_3ASTEPNS_10ASTMatcherE
libCPlusPlus.so.10:_ZN9CPlusPlus20CppCastExpressionAST7accept0EPNS_10ASTVisitorE
libCPlusPlus.so.10:_ZN9CPlusPlus20DecltypeSpecifierAST6match0EPNS_3ASTEPNS_10ASTMatcherE
libCPlusPlus.so.10:_ZN9CPlusPlus20DecltypeSpecifierAST7accept0EPNS_10ASTVisitorE
libCPlusPlus.so.10:_ZN9CPlusPlus20QtEnumDeclarationAST6match0EPNS_3ASTEPNS_10ASTMatcherE
libCPlusPlus.so.10:_ZN9CPlusPlus20QtEnumDeclarationAST7accept0EPNS_10ASTVisitorE
libCPlusPlus.so.10:_ZN9CPlusPlus20SimpleDeclarationAST6match0EPNS_3ASTEPNS_10ASTMatcherE
libCPlusPlus.so.10:_ZN9CPlusPlus20SimpleDeclarationAST7accept0EPNS_10ASTVisitorE
libCPlusPlus.so.10:_ZN9CPlusPlus20TryBlockStatementAST6match0EPNS_3ASTEPNS_10ASTMatcherE
libCPlusPlus.so.10:_ZN9CPlusPlus20TryBlockStatementAST7accept0EPNS_10ASTVisitorE
libCPlusPlus.so.10:_ZN9CPlusPlus20extractExpressionASTE14QSharedPointerINS_8DocumentEE
libCPlusPlus.so.10:_ZN9CPlusPlus21AlignmentSpecifierAST6match0EPNS_3ASTEPNS_10ASTMatcherE
libCPlusPlus.so.10:_ZN9CPlusPlus21AlignmentSpecifierAST7accept0EPNS_10ASTVisitorE
libCPlusPlus.so.10:_ZN9CPlusPlus21CompoundExpressionAST6match0EPNS_3ASTEPNS_10ASTMatcherE
libCPlusPlus.so.10:_ZN9CPlusPlus21CompoundExpressionAST7accept0EPNS_10ASTVisitorE
libCPlusPlus.so.10:_ZN9CPlusPlus21EnumeratorDeclarationC1EPNS_15TranslationUnitEiPKNS_4NameE
libCPlusPlus.so.10:_ZN9CPlusPlus21EnumeratorDeclarationC2EPNS_15TranslationUnitEiPKNS_4NameE
libCPlusPlus.so.10:_ZN9CPlusPlus21ExpressionUnderCursor17startOfExpressionERNS_16BackwardsScannerEi
libCPlusPlus.so.10:_ZN9CPlusPlus21ExpressionUnderCursor24startOfExpression_helperERNS_16BackwardsScannerEi
libCPlusPlus.so.10:_ZN9CPlusPlus21ExpressionUnderCursorC1ERKNS_16LanguageFeaturesE
libCPlusPlus.so.10:_ZN9CPlusPlus21ExpressionUnderCursorC2ERKNS_16LanguageFeaturesE
libCPlusPlus.so.10:_ZN9CPlusPlus21ExpressionUnderCursorclERK11QTextCursor
libCPlusPlus.so.10:_ZN9CPlusPlus21FunctionDeclaratorAST6match0EPNS_3ASTEPNS_10ASTMatcherE
libCPlusPlus.so.10:_ZN9CPlusPlus21FunctionDeclaratorAST7accept0EPNS_10ASTVisitorE
libCPlusPlus.so.10:_ZN9CPlusPlus21FunctionDefinitionAST6match0EPNS_3ASTEPNS_10ASTMatcherE
libCPlusPlus.so.10:_ZN9CPlusPlus21FunctionDefinitionAST7accept0EPNS_10ASTVisitorE
libCPlusPlus.so.10:_ZN9CPlusPlus21NamedTypeSpecifierAST6match0EPNS_3ASTEPNS_10ASTMatcherE
libCPlusPlus.so.10:_ZN9CPlusPlus21NamedTypeSpecifierAST7accept0EPNS_10ASTVisitorE
libCPlusPlus.so.10:_ZN9CPlusPlus21NewArrayDeclaratorAST6match0EPNS_3ASTEPNS_10ASTMatcherE
libCPlusPlus.so.10:_ZN9CPlusPlus21NewArrayDeclaratorAST7accept0EPNS_10ASTVisitorE
libCPlusPlus.so.10:_ZN9CPlusPlus21OperatorFunctionIdAST6match0EPNS_3ASTEPNS_10ASTMatcherE
libCPlusPlus.so.10:_ZN9CPlusPlus21OperatorFunctionIdAST7accept0EPNS_10ASTVisitorE
libCPlusPlus.so.10:_ZN9CPlusPlus21QtFlagsDeclarationAST6match0EPNS_3ASTEPNS_10ASTMatcherE
libCPlusPlus.so.10:_ZN9CPlusPlus21QtFlagsDeclarationAST7accept0EPNS_10ASTVisitorE
libCPlusPlus.so.10:_ZN9CPlusPlus21QtPropertyDeclaration12visitSymbol0EPNS_13SymbolVisitorE
libCPlusPlus.so.10:_ZN9CPlusPlus21QtPropertyDeclarationC1EPNS_15TranslationUnitEiPKNS_4NameE
libCPlusPlus.so.10:_ZN9CPlusPlus21QtPropertyDeclarationC1EPNS_5CloneEPNS_5SubstEPS0_
libCPlusPlus.so.10:_ZN9CPlusPlus21QtPropertyDeclarationC2EPNS_15TranslationUnitEiPKNS_4NameE
libCPlusPlus.so.10:_ZN9CPlusPlus21QtPropertyDeclarationC2EPNS_5CloneEPNS_5SubstEPS0_
libCPlusPlus.so.10:_ZN9CPlusPlus21SnapshotSymbolVisitor6acceptE14QSharedPointerINS_8DocumentEE
libCPlusPlus.so.10:_ZN9CPlusPlus21SnapshotSymbolVisitor6acceptE14QSharedPointerINS_8DocumentEEP4QSetI7QStringE
libCPlusPlus.so.10:_ZN9CPlusPlus21SnapshotSymbolVisitorC1ERKNS_8SnapshotE
libCPlusPlus.so.10:_ZN9CPlusPlus21SnapshotSymbolVisitorC2ERKNS_8SnapshotE
libCPlusPlus.so.10:_ZN9CPlusPlus21documentForExpressionERK10QByteArray
libCPlusPlus.so.10:_ZN9CPlusPlus22ExpressionListParenAST6match0EPNS_3ASTEPNS_10ASTMatcherE
libCPlusPlus.so.10:_ZN9CPlusPlus22ExpressionListParenAST7accept0EPNS_10ASTVisitorE
libCPlusPlus.so.10:_ZN9CPlusPlus22ExpressionStatementAST6match0EPNS_3ASTEPNS_10ASTMatcherE
libCPlusPlus.so.10:_ZN9CPlusPlus22ExpressionStatementAST7accept0EPNS_10ASTVisitorE
libCPlusPlus.so.10:_ZN9CPlusPlus22NestedNameSpecifierAST6match0EPNS_3ASTEPNS_10ASTMatcherE
libCPlusPlus.so.10:_ZN9CPlusPlus22NestedNameSpecifierAST7accept0EPNS_10ASTVisitorE
libCPlusPlus.so.10:_ZN9CPlusPlus22ObjCFastEnumerationAST6match0EPNS_3ASTEPNS_10ASTMatcherE
libCPlusPlus.so.10:_ZN9CPlusPlus22ObjCFastEnumerationAST7accept0EPNS_10ASTVisitorE
libCPlusPlus.so.10:_ZN9CPlusPlus22ObjCMessageArgumentAST6match0EPNS_3ASTEPNS_10ASTMatcherE
libCPlusPlus.so.10:_ZN9CPlusPlus22ObjCMessageArgumentAST7accept0EPNS_10ASTVisitorE
libCPlusPlus.so.10:_ZN9CPlusPlus22ObjCMethodPrototypeAST6match0EPNS_3ASTEPNS_10ASTMatcherE
libCPlusPlus.so.10:_ZN9CPlusPlus22ObjCMethodPrototypeAST7accept0EPNS_10ASTVisitorE
libCPlusPlus.so.10:_ZN9CPlusPlus22QtMemberDeclarationAST6match0EPNS_3ASTEPNS_10ASTMatcherE
libCPlusPlus.so.10:_ZN9CPlusPlus22QtMemberDeclarationAST7accept0EPNS_10ASTVisitorE
libCPlusPlus.so.10:_ZN9CPlusPlus22TemplateDeclarationAST6match0EPNS_3ASTEPNS_10ASTMatcherE
libCPlusPlus.so.10:_ZN9CPlusPlus22TemplateDeclarationAST7accept0EPNS_10ASTVisitorE
libCPlusPlus.so.10:_ZN9CPlusPlus22TypeConstructorCallAST6match0EPNS_3ASTEPNS_10ASTMatcherE
libCPlusPlus.so.10:_ZN9CPlusPlus22TypeConstructorCallAST7accept0EPNS_10ASTVisitorE
libCPlusPlus.so.10:_ZN9CPlusPlus23ConversionFunctionIdAST6match0EPNS_3ASTEPNS_10ASTMatcherE
libCPlusPlus.so.10:_ZN9CPlusPlus23ConversionFunctionIdAST7accept0EPNS_10ASTVisitorE
libCPlusPlus.so.10:_ZN9CPlusPlus23DeclarationStatementAST6match0EPNS_3ASTEPNS_10ASTMatcherE
libCPlusPlus.so.10:_ZN9CPlusPlus23DeclarationStatementAST7accept0EPNS_10ASTVisitorE
libCPlusPlus.so.10:_ZN9CPlusPlus23ExceptionDeclarationAST6match0EPNS_3ASTEPNS_10ASTMatcherE
libCPlusPlus.so.10:_ZN9CPlusPlus23ExceptionDeclarationAST7accept0EPNS_10ASTVisitorE
libCPlusPlus.so.10:_ZN9CPlusPlus23ForwardClassDeclaration12visitSymbol0EPNS_13SymbolVisitorE
libCPlusPlus.so.10:_ZN9CPlusPlus23ForwardClassDeclaration7accept0EPNS_11TypeVisitorE
libCPlusPlus.so.10:_ZN9CPlusPlus23ForwardClassDeclarationC1EPNS_15TranslationUnitEiPKNS_4NameE
libCPlusPlus.so.10:_ZN9CPlusPlus23ForwardClassDeclarationC1EPNS_5CloneEPNS_5SubstEPS0_
libCPlusPlus.so.10:_ZN9CPlusPlus23ForwardClassDeclarationC2EPNS_15TranslationUnitEiPKNS_4NameE
libCPlusPlus.so.10:_ZN9CPlusPlus23ForwardClassDeclarationC2EPNS_5CloneEPNS_5SubstEPS0_
libCPlusPlus.so.10:_ZN9CPlusPlus23LinkageSpecificationAST6match0EPNS_3ASTEPNS_10ASTMatcherE
libCPlusPlus.so.10:_ZN9CPlusPlus23LinkageSpecificationAST7accept0EPNS_10ASTVisitorE
libCPlusPlus.so.10:_ZN9CPlusPlus23ObjCClassDeclarationAST6match0EPNS_3ASTEPNS_10ASTMatcherE
libCPlusPlus.so.10:_ZN9CPlusPlus23ObjCClassDeclarationAST7accept0EPNS_10ASTVisitorE
libCPlusPlus.so.10:_ZN9CPlusPlus23ObjCEncodeExpressionAST6match0EPNS_3ASTEPNS_10ASTMatcherE
libCPlusPlus.so.10:_ZN9CPlusPlus23ObjCEncodeExpressionAST7accept0EPNS_10ASTVisitorE
libCPlusPlus.so.10:_ZN9CPlusPlus23ObjCPropertyDeclaration12visitSymbol0EPNS_13SymbolVisitorE
libCPlusPlus.so.10:_ZN9CPlusPlus23ObjCPropertyDeclarationC1EPNS_15TranslationUnitEiPKNS_4NameE
libCPlusPlus.so.10:_ZN9CPlusPlus23ObjCPropertyDeclarationC1EPNS_5CloneEPNS_5SubstEPS0_
libCPlusPlus.so.10:_ZN9CPlusPlus23ObjCPropertyDeclarationC2EPNS_15TranslationUnitEiPKNS_4NameE
libCPlusPlus.so.10:_ZN9CPlusPlus23ObjCPropertyDeclarationC2EPNS_5CloneEPNS_5SubstEPS0_
libCPlusPlus.so.10:_ZN9CPlusPlus23ObjCSelectorArgumentAST6match0EPNS_3ASTEPNS_10ASTMatcherE
libCPlusPlus.so.10:_ZN9CPlusPlus23ObjCSelectorArgumentAST7accept0EPNS_10ASTVisitorE
libCPlusPlus.so.10:_ZN9CPlusPlus23ParameterDeclarationAST6match0EPNS_3ASTEPNS_10ASTMatcherE
libCPlusPlus.so.10:_ZN9CPlusPlus23ParameterDeclarationAST7accept0EPNS_10ASTVisitorE
libCPlusPlus.so.10:_ZN9CPlusPlus23SubstitutionEnvironment10setContextERKNS_13LookupContextE
libCPlusPlus.so.10:_ZN9CPlusPlus23SubstitutionEnvironment11switchScopeEPNS_5ScopeE
libCPlusPlus.so.10:_ZN9CPlusPlus23SubstitutionEnvironment5enterEPNS_12SubstitutionE
libCPlusPlus.so.10:_ZN9CPlusPlus23SubstitutionEnvironment5leaveEv
libCPlusPlus.so.10:_ZN9CPlusPlus23SubstitutionEnvironmentC1Ev
libCPlusPlus.so.10:_ZN9CPlusPlus23SubstitutionEnvironmentC2Ev
libCPlusPlus.so.10:_ZN9CPlusPlus23UsingNamespaceDirective12visitSymbol0EPNS_13SymbolVisitorE
libCPlusPlus.so.10:_ZN9CPlusPlus23UsingNamespaceDirectiveC1EPNS_15TranslationUnitEiPKNS_4NameE
libCPlusPlus.so.10:_ZN9CPlusPlus23UsingNamespaceDirectiveC1EPNS_5CloneEPNS_5SubstEPS0_
libCPlusPlus.so.10:_ZN9CPlusPlus23UsingNamespaceDirectiveC2EPNS_15TranslationUnitEiPKNS_4NameE
libCPlusPlus.so.10:_ZN9CPlusPlus23UsingNamespaceDirectiveC2EPNS_5CloneEPNS_5SubstEPS0_
libCPlusPlus.so.10:_ZN9CPlusPlus24ConditionalExpressionAST6match0EPNS_3ASTEPNS_10ASTMatcherE
libCPlusPlus.so.10:_ZN9CPlusPlus24ConditionalExpressionAST7accept0EPNS_10ASTVisitorE
libCPlusPlus.so.10:_ZN9CPlusPlus24GnuAttributeSpecifierAST6match0EPNS_3ASTEPNS_10ASTMatcherE
libCPlusPlus.so.10:_ZN9CPlusPlus24GnuAttributeSpecifierAST7accept0EPNS_10ASTVisitorE
libCPlusPlus.so.10:_ZN9CPlusPlus24MsvcDeclspecSpecifierAST6match0EPNS_3ASTEPNS_10ASTMatcherE
libCPlusPlus.so.10:_ZN9CPlusPlus24MsvcDeclspecSpecifierAST7accept0EPNS_10ASTVisitorE
libCPlusPlus.so.10:_ZN9CPlusPlus24NoExceptSpecificationAST6match0EPNS_3ASTEPNS_10ASTMatcherE
libCPlusPlus.so.10:_ZN9CPlusPlus24NoExceptSpecificationAST7accept0EPNS_10ASTVisitorE
libCPlusPlus.so.10:_ZN9CPlusPlus24ObjCMessageExpressionAST6match0EPNS_3ASTEPNS_10ASTMatcherE
libCPlusPlus.so.10:_ZN9CPlusPlus24ObjCMessageExpressionAST7accept0EPNS_10ASTVisitorE
libCPlusPlus.so.10:_ZN9CPlusPlus24ObjCMethodDeclarationAST6match0EPNS_3ASTEPNS_10ASTMatcherE
libCPlusPlus.so.10:_ZN9CPlusPlus24ObjCMethodDeclarationAST7accept0EPNS_10ASTVisitorE
libCPlusPlus.so.10:_ZN9CPlusPlus24ObjCPropertyAttributeAST6match0EPNS_3ASTEPNS_10ASTMatcherE
libCPlusPlus.so.10:_ZN9CPlusPlus24ObjCPropertyAttributeAST7accept0EPNS_10ASTVisitorE
libCPlusPlus.so.10:_ZN9CPlusPlus24QtPropertyDeclarationAST6match0EPNS_3ASTEPNS_10ASTMatcherE
libCPlusPlus.so.10:_ZN9CPlusPlus24QtPropertyDeclarationAST7accept0EPNS_10ASTVisitorE
libCPlusPlus.so.10:_ZN9CPlusPlus24StdAttributeSpecifierAST6match0EPNS_3ASTEPNS_10ASTMatcherE
libCPlusPlus.so.10:_ZN9CPlusPlus24StdAttributeSpecifierAST7accept0EPNS_10ASTVisitorE
libCPlusPlus.so.10:_ZN9CPlusPlus24TemplateTypeParameterAST6match0EPNS_3ASTEPNS_10ASTMatcherE
libCPlusPlus.so.10:_ZN9CPlusPlus24TemplateTypeParameterAST7accept0EPNS_10ASTVisitorE
libCPlusPlus.so.10:_ZN9CPlusPlus24TypenameTypeParameterAST6match0EPNS_3ASTEPNS_10ASTMatcherE
libCPlusPlus.so.10:_ZN9CPlusPlus24TypenameTypeParameterAST7accept0EPNS_10ASTVisitorE
libCPlusPlus.so.10:_ZN9CPlusPlus24classifyQtContextKeywordEPKci
libCPlusPlus.so.10:_ZN9CPlusPlus25ObjCProtocolExpressionAST6match0EPNS_3ASTEPNS_10ASTMatcherE
libCPlusPlus.so.10:_ZN9CPlusPlus25ObjCProtocolExpressionAST7accept0EPNS_10ASTVisitorE
libCPlusPlus.so.10:_ZN9CPlusPlus25ObjCSelectorExpressionAST6match0EPNS_3ASTEPNS_10ASTMatcherE
libCPlusPlus.so.10:_ZN9CPlusPlus25ObjCSelectorExpressionAST7accept0EPNS_10ASTVisitorE
libCPlusPlus.so.10:_ZN9CPlusPlus25RangeBasedForStatementAST6match0EPNS_3ASTEPNS_10ASTMatcherE
libCPlusPlus.so.10:_ZN9CPlusPlus25RangeBasedForStatementAST7accept0EPNS_10ASTVisitorE
libCPlusPlus.so.10:_ZN9CPlusPlus25TypenameCallExpressionAST6match0EPNS_3ASTEPNS_10ASTMatcherE
libCPlusPlus.so.10:_ZN9CPlusPlus25TypenameCallExpressionAST7accept0EPNS_10ASTVisitorE
libCPlusPlus.so.10:_ZN9CPlusPlus25compareFullyQualifiedNameERK5QListIPKNS_4NameEES6_
libCPlusPlus.so.10:_ZN9CPlusPlus26DecompositionDeclaratorAST6match0EPNS_3ASTEPNS_10ASTMatcherE
libCPlusPlus.so.10:_ZN9CPlusPlus26DecompositionDeclaratorAST7accept0EPNS_10ASTVisitorE
libCPlusPlus.so.10:_ZN9CPlusPlus26ElaboratedTypeSpecifierAST6match0EPNS_3ASTEPNS_10ASTMatcherE
libCPlusPlus.so.10:_ZN9CPlusPlus26ElaboratedTypeSpecifierAST7accept0EPNS_10ASTVisitorE
libCPlusPlus.so.10:_ZN9CPlusPlus26ObjCPropertyDeclarationAST6match0EPNS_3ASTEPNS_10ASTMatcherE
libCPlusPlus.so.10:_ZN9CPlusPlus26ObjCPropertyDeclarationAST7accept0EPNS_10ASTVisitorE
libCPlusPlus.so.10:_ZN9CPlusPlus26ObjCProtocolDeclarationAST6match0EPNS_3ASTEPNS_10ASTMatcherE
libCPlusPlus.so.10:_ZN9CPlusPlus26ObjCProtocolDeclarationAST7accept0EPNS_10ASTVisitorE
libCPlusPlus.so.10:_ZN9CPlusPlus26ObjCSynthesizedPropertyAST6match0EPNS_3ASTEPNS_10ASTMatcherE
libCPlusPlus.so.10:_ZN9CPlusPlus26ObjCSynthesizedPropertyAST7accept0EPNS_10ASTVisitorE
libCPlusPlus.so.10:_ZN9CPlusPlus26QtInterfacesDeclarationAST6match0EPNS_3ASTEPNS_10ASTMatcherE
libCPlusPlus.so.10:_ZN9CPlusPlus26QtInterfacesDeclarationAST7accept0EPNS_10ASTVisitorE
libCPlusPlus.so.10:_ZN9CPlusPlus26StaticAssertDeclarationAST6match0EPNS_3ASTEPNS_10ASTMatcherE
libCPlusPlus.so.10:_ZN9CPlusPlus26StaticAssertDeclarationAST7accept0EPNS_10ASTVisitorE
libCPlusPlus.so.10:_ZN9CPlusPlus27NamespaceAliasDefinitionAST6match0EPNS_3ASTEPNS_10ASTMatcherE
libCPlusPlus.so.10:_ZN9CPlusPlus27NamespaceAliasDefinitionAST7accept0EPNS_10ASTVisitorE
libCPlusPlus.so.10:_ZN9CPlusPlus27ObjCForwardClassDeclaration12visitSymbol0EPNS_13SymbolVisitorE
libCPlusPlus.so.10:_ZN9CPlusPlus27ObjCForwardClassDeclaration7accept0EPNS_11TypeVisitorE
libCPlusPlus.so.10:_ZN9CPlusPlus27ObjCForwardClassDeclarationC1EPNS_15TranslationUnitEiPKNS_4NameE
libCPlusPlus.so.10:_ZN9CPlusPlus27ObjCForwardClassDeclarationC1EPNS_5CloneEPNS_5SubstEPS0_
libCPlusPlus.so.10:_ZN9CPlusPlus27ObjCForwardClassDeclarationC2EPNS_15TranslationUnitEiPKNS_4NameE
libCPlusPlus.so.10:_ZN9CPlusPlus27ObjCForwardClassDeclarationC2EPNS_5CloneEPNS_5SubstEPS0_
libCPlusPlus.so.10:_ZN9CPlusPlus28ObjCSynchronizedStatementAST6match0EPNS_3ASTEPNS_10ASTMatcherE
libCPlusPlus.so.10:_ZN9CPlusPlus28ObjCSynchronizedStatementAST7accept0EPNS_10ASTVisitorE
libCPlusPlus.so.10:_ZN9CPlusPlus28ObjCVisibilityDeclarationAST6match0EPNS_3ASTEPNS_10ASTMatcherE
libCPlusPlus.so.10:_ZN9CPlusPlus28ObjCVisibilityDeclarationAST7accept0EPNS_10ASTVisitorE
libCPlusPlus.so.10:_ZN9CPlusPlus29DeprecatedGenTemplateInstance11instantiateEPKNS_4NameEPNS_6SymbolE14QSharedPointerINS_7ControlEE
libCPlusPlus.so.10:_ZN9CPlusPlus29DeprecatedGenTemplateInstance3genEPNS_6SymbolE
libCPlusPlus.so.10:_ZN9CPlusPlus29DeprecatedGenTemplateInstanceC1E14QSharedPointerINS_7ControlEERK5QListISt4pairIPKNS_10IdentifierENS_18FullySpecifiedTypeEEE
libCPlusPlus.so.10:_ZN9CPlusPlus29DeprecatedGenTemplateInstanceC2E14QSharedPointerINS_7ControlEERK5QListISt4pairIPKNS_10IdentifierENS_18FullySpecifiedTypeEEE
libCPlusPlus.so.10:_ZN9CPlusPlus29NoExceptOperatorExpressionAST6match0EPNS_3ASTEPNS_10ASTMatcherE
libCPlusPlus.so.10:_ZN9CPlusPlus29NoExceptOperatorExpressionAST7accept0EPNS_10ASTVisitorE
libCPlusPlus.so.10:_ZN9CPlusPlus29ParameterDeclarationClauseAST6match0EPNS_3ASTEPNS_10ASTMatcherE
libCPlusPlus.so.10:_ZN9CPlusPlus29ParameterDeclarationClauseAST7accept0EPNS_10ASTVisitorE
libCPlusPlus.so.10:_ZN9CPlusPlus30ObjCClassForwardDeclarationAST6match0EPNS_3ASTEPNS_10ASTMatcherE
libCPlusPlus.so.10:_ZN9CPlusPlus30ObjCClassForwardDeclarationAST7accept0EPNS_10ASTVisitorE
libCPlusPlus.so.10:_ZN9CPlusPlus30ObjCForwardProtocolDeclaration12visitSymbol0EPNS_13SymbolVisitorE
libCPlusPlus.so.10:_ZN9CPlusPlus30ObjCForwardProtocolDeclaration7accept0EPNS_11TypeVisitorE
libCPlusPlus.so.10:_ZN9CPlusPlus30ObjCForwardProtocolDeclarationC1EPNS_15TranslationUnitEiPKNS_4NameE
libCPlusPlus.so.10:_ZN9CPlusPlus30ObjCForwardProtocolDeclarationC1EPNS_5CloneEPNS_5SubstEPS0_
libCPlusPlus.so.10:_ZN9CPlusPlus30ObjCForwardProtocolDeclarationC2EPNS_15TranslationUnitEiPKNS_4NameE
libCPlusPlus.so.10:_ZN9CPlusPlus30ObjCForwardProtocolDeclarationC2EPNS_5CloneEPNS_5SubstEPS0_
libCPlusPlus.so.10:_ZN9CPlusPlus32DynamicExceptionSpecificationAST6match0EPNS_3ASTEPNS_10ASTMatcherE
libCPlusPlus.so.10:_ZN9CPlusPlus32DynamicExceptionSpecificationAST7accept0EPNS_10ASTVisitorE
libCPlusPlus.so.10:_ZN9CPlusPlus32classifyObjectiveCContextKeywordEPKci
libCPlusPlus.so.10:_ZN9CPlusPlus33ObjCMessageArgumentDeclarationAST6match0EPNS_3ASTEPNS_10ASTMatcherE
libCPlusPlus.so.10:_ZN9CPlusPlus33ObjCMessageArgumentDeclarationAST7accept0EPNS_10ASTVisitorE
libCPlusPlus.so.10:_ZN9CPlusPlus33ObjCProtocolForwardDeclarationAST6match0EPNS_3ASTEPNS_10ASTMatcherE
libCPlusPlus.so.10:_ZN9CPlusPlus33ObjCProtocolForwardDeclarationAST7accept0EPNS_10ASTVisitorE
libCPlusPlus.so.10:_ZN9CPlusPlus35ExpressionOrDeclarationStatementAST6match0EPNS_3ASTEPNS_10ASTMatcherE
libCPlusPlus.so.10:_ZN9CPlusPlus35ExpressionOrDeclarationStatementAST7accept0EPNS_10ASTVisitorE
libCPlusPlus.so.10:_ZN9CPlusPlus35ObjCDynamicPropertiesDeclarationAST6match0EPNS_3ASTEPNS_10ASTMatcherE
libCPlusPlus.so.10:_ZN9CPlusPlus35ObjCDynamicPropertiesDeclarationAST7accept0EPNS_10ASTVisitorE
libCPlusPlus.so.10:_ZN9CPlusPlus35ObjCInstanceVariablesDeclarationAST6match0EPNS_3ASTEPNS_10ASTMatcherE
libCPlusPlus.so.10:_ZN9CPlusPlus35ObjCInstanceVariablesDeclarationAST7accept0EPNS_10ASTVisitorE
libCPlusPlus.so.10:_ZN9CPlusPlus39ObjCSynthesizedPropertiesDeclarationAST6match0EPNS_3ASTEPNS_10ASTMatcherE
libCPlusPlus.so.10:_ZN9CPlusPlus39ObjCSynthesizedPropertiesDeclarationAST7accept0EPNS_10ASTVisitorE
libCPlusPlus.so.10:_ZN9CPlusPlus3AST5matchEPS0_PNS_10ASTMatcherE
libCPlusPlus.so.10:_ZN9CPlusPlus3AST5matchEPS0_S1_PNS_10ASTMatcherE
libCPlusPlus.so.10:_ZN9CPlusPlus3AST6acceptEPNS_10ASTVisitorE
libCPlusPlus.so.10:_ZN9CPlusPlus3ASTC2Ev
libCPlusPlus.so.10:_ZN9CPlusPlus3ASTD0Ev
libCPlusPlus.so.10:_ZN9CPlusPlus3ASTD1Ev
libCPlusPlus.so.10:_ZN9CPlusPlus3ASTD2Ev
libCPlusPlus.so.10:_ZN9CPlusPlus4Bind10declaratorEPNS_13DeclaratorASTERKNS_18FullySpecifiedTypeEPPNS_15DeclaratorIdASTEPPNS_26DecompositionDeclaratorASTE
libCPlusPlus.so.10:_ZN9CPlusPlus4Bind10enumeratorEPNS_13EnumeratorASTEPNS_4EnumE
libCPlusPlus.so.10:_ZN9CPlusPlus4Bind10expressionEPNS_13ExpressionASTE
libCPlusPlus.so.10:_ZN9CPlusPlus4Bind11cppOperatorEPNS_11OperatorASTE
libCPlusPlus.so.10:_ZN9CPlusPlus4Bind11declarationEPNS_14DeclarationASTE
libCPlusPlus.so.10:_ZN9CPlusPlus4Bind11ptrOperatorEPNS_14PtrOperatorASTERKNS_18FullySpecifiedTypeE
libCPlusPlus.so.10:_ZN9CPlusPlus4Bind11switchScopeEPNS_5ScopeE
libCPlusPlus.so.10:_ZN9CPlusPlus4Bind12newPlacementEPNS_22ExpressionListParenASTE
libCPlusPlus.so.10:_ZN9CPlusPlus4Bind12objCTypeNameEPNS_15ObjCTypeNameASTE
libCPlusPlus.so.10:_ZN9CPlusPlus4Bind13baseSpecifierEPNS_16BaseSpecifierASTEiPNS_5ClassE
libCPlusPlus.so.10:_ZN9CPlusPlus4Bind13lambdaCaptureEPNS_16LambdaCaptureASTE
libCPlusPlus.so.10:_ZN9CPlusPlus4Bind14coreDeclaratorEPNS_17CoreDeclaratorASTERKNS_18FullySpecifiedTypeE
libCPlusPlus.so.10:_ZN9CPlusPlus4Bind14memInitializerEPNS_17MemInitializerASTEPNS_8FunctionE
libCPlusPlus.so.10:_ZN9CPlusPlus4Bind15asStringLiteralEPKNS_3ASTE
libCPlusPlus.so.10:_ZN9CPlusPlus4Bind15ctorInitializerEPNS_18CtorInitializerASTEPNS_8FunctionE
libCPlusPlus.so.10:_ZN9CPlusPlus4Bind15qtInterfaceNameEPNS_18QtInterfaceNameASTE
libCPlusPlus.so.10:_ZN9CPlusPlus4Bind15switchMethodKeyEi
libCPlusPlus.so.10:_ZN9CPlusPlus4Bind15translationUnitEPNS_18TranslationUnitASTE
libCPlusPlus.so.10:_ZN9CPlusPlus4Bind16lambdaDeclaratorEPNS_19LambdaDeclaratorASTE
libCPlusPlus.so.10:_ZN9CPlusPlus4Bind16lambdaIntroducerEPNS_19LambdaIntroducerASTE
libCPlusPlus.so.10:_ZN9CPlusPlus4Bind16objCProtocolRefsEPNS_19ObjCProtocolRefsASTEPNS_6SymbolE
libCPlusPlus.so.10:_ZN9CPlusPlus4Bind16switchVisibilityEi
libCPlusPlus.so.10:_ZN9CPlusPlus4Bind17isObjCClassMethodEi
libCPlusPlus.so.10:_ZN9CPlusPlus4Bind17postfixDeclaratorEPNS_20PostfixDeclaratorASTERKNS_18FullySpecifiedTypeE
libCPlusPlus.so.10:_ZN9CPlusPlus4Bind17setDeclSpecifiersEPNS_6SymbolERKNS_18FullySpecifiedTypeE
libCPlusPlus.so.10:_ZN9CPlusPlus4Bind18newArrayDeclaratorEPNS_21NewArrayDeclaratorASTERKNS_18FullySpecifiedTypeE
libCPlusPlus.so.10:_ZN9CPlusPlus4Bind18trailingReturnTypeEPNS_21TrailingReturnTypeASTERKNS_18FullySpecifiedTypeE
libCPlusPlus.so.10:_ZN9CPlusPlus4Bind19nestedNameSpecifierEPNS_22NestedNameSpecifierASTE
libCPlusPlus.so.10:_ZN9CPlusPlus4Bind19objCMessageArgumentEPNS_22ObjCMessageArgumentASTE
libCPlusPlus.so.10:_ZN9CPlusPlus4Bind19objCMethodPrototypeEPNS_22ObjCMethodPrototypeASTE
libCPlusPlus.so.10:_ZN9CPlusPlus4Bind20ensureValidClassNameEPPKNS_4NameEi
libCPlusPlus.so.10:_ZN9CPlusPlus4Bind20objCSelectorArgumentEPNS_23ObjCSelectorArgumentASTEPb
libCPlusPlus.so.10:_ZN9CPlusPlus4Bind20switchObjCVisibilityEi
libCPlusPlus.so.10:_ZN9CPlusPlus4Bind21objCPropertyAttributeEPNS_24ObjCPropertyAttributeASTE
libCPlusPlus.so.10:_ZN9CPlusPlus4Bind21setSkipFunctionBodiesEb
libCPlusPlus.so.10:_ZN9CPlusPlus4Bind21visibilityForClassKeyEi
libCPlusPlus.so.10:_ZN9CPlusPlus4Bind22exceptionSpecificationEPNS_25ExceptionSpecificationASTERKNS_18FullySpecifiedTypeE
libCPlusPlus.so.10:_ZN9CPlusPlus4Bind23objCSynthesizedPropertyEPNS_26ObjCSynthesizedPropertyASTE
libCPlusPlus.so.10:_ZN9CPlusPlus4Bind26parameterDeclarationClauseEPNS_29ParameterDeclarationClauseASTEiPNS_8FunctionE
libCPlusPlus.so.10:_ZN9CPlusPlus4Bind28visibilityForAccessSpecifierEi
libCPlusPlus.so.10:_ZN9CPlusPlus4Bind30objCMessageArgumentDeclarationEPNS_33ObjCMessageArgumentDeclarationASTEPNS_10ObjCMethodE
libCPlusPlus.so.10:_ZN9CPlusPlus4Bind32objCInstanceVariablesDeclarationEPNS_35ObjCInstanceVariablesDeclarationASTEPNS_9ObjCClassE
libCPlusPlus.so.10:_ZN9CPlusPlus4Bind32visibilityForObjCAccessSpecifierEi
libCPlusPlus.so.10:_ZN9CPlusPlus4Bind4nameEPNS_7NameASTE
libCPlusPlus.so.10:_ZN9CPlusPlus4Bind5visitEPNS_10CaptureASTE
libCPlusPlus.so.10:_ZN9CPlusPlus4Bind5visitEPNS_10PointerASTE
libCPlusPlus.so.10:_ZN9CPlusPlus4Bind5visitEPNS_11OperatorASTE
libCPlusPlus.so.10:_ZN9CPlusPlus4Bind5visitEPNS_11QtMethodASTE
libCPlusPlus.so.10:_ZN9CPlusPlus4Bind5visitEPNS_12ConditionASTE
libCPlusPlus.so.10:_ZN9CPlusPlus4Bind5visitEPNS_12NamespaceASTE
libCPlusPlus.so.10:_ZN9CPlusPlus4Bind5visitEPNS_12NewTypeIdASTE
libCPlusPlus.so.10:_ZN9CPlusPlus4Bind5visitEPNS_12ReferenceASTE
libCPlusPlus.so.10:_ZN9CPlusPlus4Bind5visitEPNS_13DeclaratorASTE
libCPlusPlus.so.10:_ZN9CPlusPlus4Bind5visitEPNS_13EnumeratorASTE
libCPlusPlus.so.10:_ZN9CPlusPlus4Bind5visitEPNS_13SimpleNameASTE
libCPlusPlus.so.10:_ZN9CPlusPlus4Bind5visitEPNS_13TemplateIdASTE
libCPlusPlus.so.10:_ZN9CPlusPlus4Bind5visitEPNS_14ArrayAccessASTE
libCPlusPlus.so.10:_ZN9CPlusPlus4Bind5visitEPNS_14BoolLiteralASTE
libCPlusPlus.so.10:_ZN9CPlusPlus4Bind5visitEPNS_14CatchClauseASTE
libCPlusPlus.so.10:_ZN9CPlusPlus4Bind5visitEPNS_14DoStatementASTE
libCPlusPlus.so.10:_ZN9CPlusPlus4Bind5visitEPNS_14IfStatementASTE
libCPlusPlus.so.10:_ZN9CPlusPlus4Bind5visitEPNS_14LinkageBodyASTE
libCPlusPlus.so.10:_ZN9CPlusPlus4Bind5visitEPNS_14QtObjectTagASTE
libCPlusPlus.so.10:_ZN9CPlusPlus4Bind5visitEPNS_15DeclaratorIdASTE
libCPlusPlus.so.10:_ZN9CPlusPlus4Bind5visitEPNS_15ForStatementASTE
libCPlusPlus.so.10:_ZN9CPlusPlus4Bind5visitEPNS_15GnuAttributeASTE
libCPlusPlus.so.10:_ZN9CPlusPlus4Bind5visitEPNS_15IdExpressionASTE
libCPlusPlus.so.10:_ZN9CPlusPlus4Bind5visitEPNS_15MemberAccessASTE
libCPlusPlus.so.10:_ZN9CPlusPlus4Bind5visitEPNS_15ObjCSelectorASTE
libCPlusPlus.so.10:_ZN9CPlusPlus4Bind5visitEPNS_15ObjCTypeNameASTE
libCPlusPlus.so.10:_ZN9CPlusPlus4Bind5visitEPNS_15PostIncrDecrASTE
libCPlusPlus.so.10:_ZN9CPlusPlus4Bind5visitEPNS_16AnonymousNameASTE
libCPlusPlus.so.10:_ZN9CPlusPlus4Bind5visitEPNS_16AsmDefinitionASTE
libCPlusPlus.so.10:_ZN9CPlusPlus4Bind5visitEPNS_16BaseSpecifierASTE
libCPlusPlus.so.10:_ZN9CPlusPlus4Bind5visitEPNS_16CaseStatementASTE
libCPlusPlus.so.10:_ZN9CPlusPlus4Bind5visitEPNS_16EnumSpecifierASTE
libCPlusPlus.so.10:_ZN9CPlusPlus4Bind5visitEPNS_16GotoStatementASTE
libCPlusPlus.so.10:_ZN9CPlusPlus4Bind5visitEPNS_16LambdaCaptureASTE
libCPlusPlus.so.10:_ZN9CPlusPlus4Bind5visitEPNS_16NewExpressionASTE
libCPlusPlus.so.10:_ZN9CPlusPlus4Bind5visitEPNS_16QtPrivateSlotASTE
libCPlusPlus.so.10:_ZN9CPlusPlus4Bind5visitEPNS_16QualifiedNameASTE
libCPlusPlus.so.10:_ZN9CPlusPlus4Bind5visitEPNS_16StringLiteralASTE
libCPlusPlus.so.10:_ZN9CPlusPlus4Bind5visitEPNS_17BreakStatementASTE
libCPlusPlus.so.10:_ZN9CPlusPlus4Bind5visitEPNS_17CastExpressionASTE
libCPlusPlus.so.10:_ZN9CPlusPlus4Bind5visitEPNS_17ClassSpecifierASTE
libCPlusPlus.so.10:_ZN9CPlusPlus4Bind5visitEPNS_17DestructorNameASTE
libCPlusPlus.so.10:_ZN9CPlusPlus4Bind5visitEPNS_17MemInitializerASTE
libCPlusPlus.so.10:_ZN9CPlusPlus4Bind5visitEPNS_17NumericLiteralASTE
libCPlusPlus.so.10:_ZN9CPlusPlus4Bind5visitEPNS_17PointerLiteralASTE
libCPlusPlus.so.10:_ZN9CPlusPlus4Bind5visitEPNS_17ThisExpressionASTE
libCPlusPlus.so.10:_ZN9CPlusPlus4Bind5visitEPNS_17UsingDirectiveASTE
libCPlusPlus.so.10:_ZN9CPlusPlus4Bind5visitEPNS_17WhileStatementASTE
libCPlusPlus.so.10:_ZN9CPlusPlus4Bind5visitEPNS_18ArrayDeclaratorASTE
libCPlusPlus.so.10:_ZN9CPlusPlus4Bind5visitEPNS_18CompoundLiteralASTE
libCPlusPlus.so.10:_ZN9CPlusPlus4Bind5visitEPNS_18CtorInitializerASTE
libCPlusPlus.so.10:_ZN9CPlusPlus4Bind5visitEPNS_18PointerToMemberASTE
libCPlusPlus.so.10:_ZN9CPlusPlus4Bind5visitEPNS_18QtInterfaceNameASTE
libCPlusPlus.so.10:_ZN9CPlusPlus4Bind5visitEPNS_18ReturnStatementASTE
libCPlusPlus.so.10:_ZN9CPlusPlus4Bind5visitEPNS_18SimpleSpecifierASTE
libCPlusPlus.so.10:_ZN9CPlusPlus4Bind5visitEPNS_18SwitchStatementASTE
libCPlusPlus.so.10:_ZN9CPlusPlus4Bind5visitEPNS_18ThrowExpressionASTE
libCPlusPlus.so.10:_ZN9CPlusPlus4Bind5visitEPNS_18TranslationUnitASTE
libCPlusPlus.so.10:_ZN9CPlusPlus4Bind5visitEPNS_18TypeofSpecifierASTE
libCPlusPlus.so.10:_ZN9CPlusPlus4Bind5visitEPNS_18UnaryExpressionASTE
libCPlusPlus.so.10:_ZN9CPlusPlus4Bind5visitEPNS_19AliasDeclarationASTE
libCPlusPlus.so.10:_ZN9CPlusPlus4Bind5visitEPNS_19ArrayInitializerASTE
libCPlusPlus.so.10:_ZN9CPlusPlus4Bind5visitEPNS_19BinaryExpressionASTE
libCPlusPlus.so.10:_ZN9CPlusPlus4Bind5visitEPNS_19DeleteExpressionASTE
libCPlusPlus.so.10:_ZN9CPlusPlus4Bind5visitEPNS_19EmptyDeclarationASTE
libCPlusPlus.so.10:_ZN9CPlusPlus4Bind5visitEPNS_19ForeachStatementASTE
libCPlusPlus.so.10:_ZN9CPlusPlus4Bind5visitEPNS_19LabeledStatementASTE
libCPlusPlus.so.10:_ZN9CPlusPlus4Bind5visitEPNS_19LambdaDeclaratorASTE
libCPlusPlus.so.10:_ZN9CPlusPlus4Bind5visitEPNS_19LambdaExpressionASTE
libCPlusPlus.so.10:_ZN9CPlusPlus4Bind5visitEPNS_19LambdaIntroducerASTE
libCPlusPlus.so.10:_ZN9CPlusPlus4Bind5visitEPNS_19NestedDeclaratorASTE
libCPlusPlus.so.10:_ZN9CPlusPlus4Bind5visitEPNS_19NestedExpressionASTE
libCPlusPlus.so.10:_ZN9CPlusPlus4Bind5visitEPNS_19ObjCProtocolRefsASTE
libCPlusPlus.so.10:_ZN9CPlusPlus4Bind5visitEPNS_19SizeofExpressionASTE
libCPlusPlus.so.10:_ZN9CPlusPlus4Bind5visitEPNS_19TypeidExpressionASTE
libCPlusPlus.so.10:_ZN9CPlusPlus4Bind5visitEPNS_20AccessDeclarationASTE
libCPlusPlus.so.10:_ZN9CPlusPlus4Bind5visitEPNS_20BracedInitializerASTE
libCPlusPlus.so.10:_ZN9CPlusPlus4Bind5visitEPNS_20CompoundStatementASTE
libCPlusPlus.so.10:_ZN9CPlusPlus4Bind5visitEPNS_20ContinueStatementASTE
libCPlusPlus.so.10:_ZN9CPlusPlus4Bind5visitEPNS_20CppCastExpressionASTE
libCPlusPlus.so.10:_ZN9CPlusPlus4Bind5visitEPNS_20DecltypeSpecifierASTE
libCPlusPlus.so.10:_ZN9CPlusPlus4Bind5visitEPNS_20QtEnumDeclarationASTE
libCPlusPlus.so.10:_ZN9CPlusPlus4Bind5visitEPNS_20SimpleDeclarationASTE
libCPlusPlus.so.10:_ZN9CPlusPlus4Bind5visitEPNS_20TryBlockStatementASTE
libCPlusPlus.so.10:_ZN9CPlusPlus4Bind5visitEPNS_21AlignmentSpecifierASTE
libCPlusPlus.so.10:_ZN9CPlusPlus4Bind5visitEPNS_21CompoundExpressionASTE
libCPlusPlus.so.10:_ZN9CPlusPlus4Bind5visitEPNS_21FunctionDeclaratorASTE
libCPlusPlus.so.10:_ZN9CPlusPlus4Bind5visitEPNS_21FunctionDefinitionASTE
libCPlusPlus.so.10:_ZN9CPlusPlus4Bind5visitEPNS_21NamedTypeSpecifierASTE
libCPlusPlus.so.10:_ZN9CPlusPlus4Bind5visitEPNS_21NewArrayDeclaratorASTE
libCPlusPlus.so.10:_ZN9CPlusPlus4Bind5visitEPNS_21OperatorFunctionIdASTE
libCPlusPlus.so.10:_ZN9CPlusPlus4Bind5visitEPNS_21QtFlagsDeclarationASTE
libCPlusPlus.so.10:_ZN9CPlusPlus4Bind5visitEPNS_21TrailingReturnTypeASTE
libCPlusPlus.so.10:_ZN9CPlusPlus4Bind5visitEPNS_22ExpressionListParenASTE
libCPlusPlus.so.10:_ZN9CPlusPlus4Bind5visitEPNS_22ExpressionStatementASTE
libCPlusPlus.so.10:_ZN9CPlusPlus4Bind5visitEPNS_22NestedNameSpecifierASTE
libCPlusPlus.so.10:_ZN9CPlusPlus4Bind5visitEPNS_22ObjCFastEnumerationASTE
libCPlusPlus.so.10:_ZN9CPlusPlus4Bind5visitEPNS_22ObjCMessageArgumentASTE
libCPlusPlus.so.10:_ZN9CPlusPlus4Bind5visitEPNS_22ObjCMethodPrototypeASTE
libCPlusPlus.so.10:_ZN9CPlusPlus4Bind5visitEPNS_22QtMemberDeclarationASTE
libCPlusPlus.so.10:_ZN9CPlusPlus4Bind5visitEPNS_22TemplateDeclarationASTE
libCPlusPlus.so.10:_ZN9CPlusPlus4Bind5visitEPNS_22TypeConstructorCallASTE
libCPlusPlus.so.10:_ZN9CPlusPlus4Bind5visitEPNS_23ConversionFunctionIdASTE
libCPlusPlus.so.10:_ZN9CPlusPlus4Bind5visitEPNS_23DeclarationStatementASTE
libCPlusPlus.so.10:_ZN9CPlusPlus4Bind5visitEPNS_23ExceptionDeclarationASTE
libCPlusPlus.so.10:_ZN9CPlusPlus4Bind5visitEPNS_23LinkageSpecificationASTE
libCPlusPlus.so.10:_ZN9CPlusPlus4Bind5visitEPNS_23ObjCClassDeclarationASTE
libCPlusPlus.so.10:_ZN9CPlusPlus4Bind5visitEPNS_23ObjCEncodeExpressionASTE
libCPlusPlus.so.10:_ZN9CPlusPlus4Bind5visitEPNS_23ObjCSelectorArgumentASTE
libCPlusPlus.so.10:_ZN9CPlusPlus4Bind5visitEPNS_23ParameterDeclarationASTE
libCPlusPlus.so.10:_ZN9CPlusPlus4Bind5visitEPNS_24ConditionalExpressionASTE
libCPlusPlus.so.10:_ZN9CPlusPlus4Bind5visitEPNS_24GnuAttributeSpecifierASTE
libCPlusPlus.so.10:_ZN9CPlusPlus4Bind5visitEPNS_24MsvcDeclspecSpecifierASTE
libCPlusPlus.so.10:_ZN9CPlusPlus4Bind5visitEPNS_24ObjCMessageExpressionASTE
libCPlusPlus.so.10:_ZN9CPlusPlus4Bind5visitEPNS_24ObjCMethodDeclarationASTE
libCPlusPlus.so.10:_ZN9CPlusPlus4Bind5visitEPNS_24ObjCPropertyAttributeASTE
libCPlusPlus.so.10:_ZN9CPlusPlus4Bind5visitEPNS_24QtPropertyDeclarationASTE
libCPlusPlus.so.10:_ZN9CPlusPlus4Bind5visitEPNS_24StdAttributeSpecifierASTE
libCPlusPlus.so.10:_ZN9CPlusPlus4Bind5visitEPNS_24TemplateTypeParameterASTE
libCPlusPlus.so.10:_ZN9CPlusPlus4Bind5visitEPNS_24TypenameTypeParameterASTE
libCPlusPlus.so.10:_ZN9CPlusPlus4Bind5visitEPNS_25ObjCProtocolExpressionASTE
libCPlusPlus.so.10:_ZN9CPlusPlus4Bind5visitEPNS_25ObjCSelectorExpressionASTE
libCPlusPlus.so.10:_ZN9CPlusPlus4Bind5visitEPNS_25RangeBasedForStatementASTE
libCPlusPlus.so.10:_ZN9CPlusPlus4Bind5visitEPNS_25TypenameCallExpressionASTE
libCPlusPlus.so.10:_ZN9CPlusPlus4Bind5visitEPNS_26DecompositionDeclaratorASTE
libCPlusPlus.so.10:_ZN9CPlusPlus4Bind5visitEPNS_26ElaboratedTypeSpecifierASTE
libCPlusPlus.so.10:_ZN9CPlusPlus4Bind5visitEPNS_26ObjCPropertyDeclarationASTE
libCPlusPlus.so.10:_ZN9CPlusPlus4Bind5visitEPNS_26ObjCProtocolDeclarationASTE
libCPlusPlus.so.10:_ZN9CPlusPlus4Bind5visitEPNS_26ObjCSynthesizedPropertyASTE
libCPlusPlus.so.10:_ZN9CPlusPlus4Bind5visitEPNS_26QtInterfacesDeclarationASTE
libCPlusPlus.so.10:_ZN9CPlusPlus4Bind5visitEPNS_27NamespaceAliasDefinitionASTE
libCPlusPlus.so.10:_ZN9CPlusPlus4Bind5visitEPNS_28ObjCSynchronizedStatementASTE
libCPlusPlus.so.10:_ZN9CPlusPlus4Bind5visitEPNS_28ObjCVisibilityDeclarationASTE
libCPlusPlus.so.10:_ZN9CPlusPlus4Bind5visitEPNS_28QtPropertyDeclarationItemASTE
libCPlusPlus.so.10:_ZN9CPlusPlus4Bind5visitEPNS_29ParameterDeclarationClauseASTE
libCPlusPlus.so.10:_ZN9CPlusPlus4Bind5visitEPNS_30ObjCClassForwardDeclarationASTE
libCPlusPlus.so.10:_ZN9CPlusPlus4Bind5visitEPNS_32DynamicExceptionSpecificationASTE
libCPlusPlus.so.10:_ZN9CPlusPlus4Bind5visitEPNS_33ObjCMessageArgumentDeclarationASTE
libCPlusPlus.so.10:_ZN9CPlusPlus4Bind5visitEPNS_33ObjCProtocolForwardDeclarationASTE
libCPlusPlus.so.10:_ZN9CPlusPlus4Bind5visitEPNS_35ExpressionOrDeclarationStatementASTE
libCPlusPlus.so.10:_ZN9CPlusPlus4Bind5visitEPNS_35ObjCDynamicPropertiesDeclarationASTE
libCPlusPlus.so.10:_ZN9CPlusPlus4Bind5visitEPNS_35ObjCInstanceVariablesDeclarationASTE
libCPlusPlus.so.10:_ZN9CPlusPlus4Bind5visitEPNS_39ObjCSynthesizedPropertiesDeclarationASTE
libCPlusPlus.so.10:_ZN9CPlusPlus4Bind5visitEPNS_7CallASTE
libCPlusPlus.so.10:_ZN9CPlusPlus4Bind5visitEPNS_8UsingASTE
libCPlusPlus.so.10:_ZN9CPlusPlus4Bind5visitEPNS_9TypeIdASTE
libCPlusPlus.so.10:_ZN9CPlusPlus4Bind7captureEPNS_10CaptureASTE
libCPlusPlus.so.10:_ZN9CPlusPlus4Bind8preVisitEPNS_3ASTE
libCPlusPlus.so.10:_ZN9CPlusPlus4Bind9attributeEPNS_15GnuAttributeASTE
libCPlusPlus.so.10:_ZN9CPlusPlus4Bind9kMaxDepthE
libCPlusPlus.so.10:_ZN9CPlusPlus4Bind9newTypeIdEPNS_12NewTypeIdASTE
libCPlusPlus.so.10:_ZN9CPlusPlus4Bind9postVisitEPNS_3ASTE
libCPlusPlus.so.10:_ZN9CPlusPlus4Bind9specifierEPNS_12SpecifierASTERKNS_18FullySpecifiedTypeE
libCPlusPlus.so.10:_ZN9CPlusPlus4Bind9statementEPNS_12StatementASTE
libCPlusPlus.so.10:_ZN9CPlusPlus4BindC1EPNS_15TranslationUnitE
libCPlusPlus.so.10:_ZN9CPlusPlus4BindC2EPNS_15TranslationUnitE
libCPlusPlus.so.10:_ZN9CPlusPlus4BindclEPNS_12NewTypeIdASTEPNS_5ScopeE
libCPlusPlus.so.10:_ZN9CPlusPlus4BindclEPNS_12StatementASTEPNS_5ScopeE
libCPlusPlus.so.10:_ZN9CPlusPlus4BindclEPNS_13ExpressionASTEPNS_5ScopeE
libCPlusPlus.so.10:_ZN9CPlusPlus4BindclEPNS_14DeclarationASTEPNS_5ScopeE
libCPlusPlus.so.10:_ZN9CPlusPlus4BindclEPNS_18TranslationUnitASTEPNS_9NamespaceE
libCPlusPlus.so.10:_ZN9CPlusPlus4Enum12visitSymbol0EPNS_13SymbolVisitorE
libCPlusPlus.so.10:_ZN9CPlusPlus4Enum7accept0EPNS_11TypeVisitorE
libCPlusPlus.so.10:_ZN9CPlusPlus4EnumC1EPNS_15TranslationUnitEiPKNS_4NameE
libCPlusPlus.so.10:_ZN9CPlusPlus4EnumC1EPNS_5CloneEPNS_5SubstEPS0_
libCPlusPlus.so.10:_ZN9CPlusPlus4EnumC2EPNS_15TranslationUnitEiPKNS_4NameE
libCPlusPlus.so.10:_ZN9CPlusPlus4EnumC2EPNS_5CloneEPNS_5SubstEPS0_
libCPlusPlus.so.10:_ZN9CPlusPlus4Name6acceptEPKS0_PNS_11NameVisitorE
libCPlusPlus.so.10:_ZN9CPlusPlus4NameC2Ev
libCPlusPlus.so.10:_ZN9CPlusPlus4NameD0Ev
libCPlusPlus.so.10:_ZN9CPlusPlus4NameD1Ev
libCPlusPlus.so.10:_ZN9CPlusPlus4NameD2Ev
libCPlusPlus.so.10:_ZN9CPlusPlus4Type6acceptEPNS_11TypeVisitorE
libCPlusPlus.so.10:_ZN9CPlusPlus4Type6acceptEPS0_PNS_11TypeVisitorE
libCPlusPlus.so.10:_ZN9CPlusPlus4TypeD0Ev
libCPlusPlus.so.10:_ZN9CPlusPlus4TypeD1Ev
libCPlusPlus.so.10:_ZN9CPlusPlus4TypeD2Ev
libCPlusPlus.so.10:_ZN9CPlusPlus5Block12visitSymbol0EPNS_13SymbolVisitorE
libCPlusPlus.so.10:_ZN9CPlusPlus5BlockC1EPNS_15TranslationUnitEi
libCPlusPlus.so.10:_ZN9CPlusPlus5BlockC1EPNS_5CloneEPNS_5SubstEPS0_
libCPlusPlus.so.10:_ZN9CPlusPlus5BlockC2EPNS_15TranslationUnitEi
libCPlusPlus.so.10:_ZN9CPlusPlus5BlockC2EPNS_5CloneEPNS_5SubstEPS0_
libCPlusPlus.so.10:_ZN9CPlusPlus5Class12addBaseClassEPNS_9BaseClassE
libCPlusPlus.so.10:_ZN9CPlusPlus5Class12visitSymbol0EPNS_13SymbolVisitorE
libCPlusPlus.so.10:_ZN9CPlusPlus5Class7accept0EPNS_11TypeVisitorE
libCPlusPlus.so.10:_ZN9CPlusPlus5ClassC1EPNS_15TranslationUnitEiPKNS_4NameE
libCPlusPlus.so.10:_ZN9CPlusPlus5ClassC1EPNS_5CloneEPNS_5SubstEPS0_
libCPlusPlus.so.10:_ZN9CPlusPlus5ClassC2EPNS_15TranslationUnitEiPKNS_4NameE
libCPlusPlus.so.10:_ZN9CPlusPlus5ClassC2EPNS_5CloneEPNS_5SubstEPS0_
libCPlusPlus.so.10:_ZN9CPlusPlus5Clone10identifierEPKNS_10IdentifierE
libCPlusPlus.so.10:_ZN9CPlusPlus5Clone11instantiateEPNS_8TemplateEPKNS_18FullySpecifiedTypeEiPNS_5SubstE
libCPlusPlus.so.10:_ZN9CPlusPlus5Clone13stringLiteralEPKNS_13StringLiteralE
libCPlusPlus.so.10:_ZN9CPlusPlus5Clone14numericLiteralEPKNS_14NumericLiteralE
libCPlusPlus.so.10:_ZN9CPlusPlus5Clone4nameEPKNS_4NameEPNS_5SubstE
libCPlusPlus.so.10:_ZN9CPlusPlus5Clone4typeERKNS_18FullySpecifiedTypeEPNS_5SubstE
libCPlusPlus.so.10:_ZN9CPlusPlus5Clone6symbolEPNS_6SymbolEPNS_5SubstE
libCPlusPlus.so.10:_ZN9CPlusPlus5CloneC1EPNS_7ControlE
libCPlusPlus.so.10:_ZN9CPlusPlus5CloneC2EPNS_7ControlE
libCPlusPlus.so.10:_ZN9CPlusPlus5Icons11keywordIconEv
libCPlusPlus.so.10:_ZN9CPlusPlus5Icons13iconForSymbolEPKNS_6SymbolE
libCPlusPlus.so.10:_ZN9CPlusPlus5Icons17iconTypeForSymbolEPKNS_6SymbolE
libCPlusPlus.so.10:_ZN9CPlusPlus5Icons9macroIconEv
libCPlusPlus.so.10:_ZN9CPlusPlus5Lexer11scan_helperEPNS_5TokenE
libCPlusPlus.so.10:_ZN9CPlusPlus5Lexer13scanBackslashENS_4KindE
libCPlusPlus.so.10:_ZN9CPlusPlus5Lexer14scanCppCommentENS_4KindE
libCPlusPlus.so.10:_ZN9CPlusPlus5Lexer14scanIdentifierEPNS_5TokenEj
libCPlusPlus.so.10:_ZN9CPlusPlus5Lexer14scanUntilQuoteEPNS_5TokenEh
libCPlusPlus.so.10:_ZN9CPlusPlus5Lexer15scanCharLiteralEPNS_5TokenEh
libCPlusPlus.so.10:_ZN9CPlusPlus5Lexer15setScanKeywordsEb
libCPlusPlus.so.10:_ZN9CPlusPlus5Lexer16classifyOperatorEPKci
libCPlusPlus.so.10:_ZN9CPlusPlus5Lexer16scanExponentPartEv
libCPlusPlus.so.10:_ZN9CPlusPlus5Lexer17scanDigitSequenceEv
libCPlusPlus.so.10:_ZN9CPlusPlus5Lexer17scanStringLiteralEPNS_5TokenEh
libCPlusPlus.so.10:_ZN9CPlusPlus5Lexer18scanNumericLiteralEPNS_5TokenE
libCPlusPlus.so.10:_ZN9CPlusPlus5Lexer19pushLineStartOffsetEv
libCPlusPlus.so.10:_ZN9CPlusPlus5Lexer19setStartWithNewlineEb
libCPlusPlus.so.10:_ZN9CPlusPlus5Lexer20scanRawStringLiteralEPNS_5TokenEh
libCPlusPlus.so.10:_ZN9CPlusPlus5Lexer20setScanCommentTokensEb
libCPlusPlus.so.10:_ZN9CPlusPlus5Lexer21classifyObjCAtKeywordEPKci
libCPlusPlus.so.10:_ZN9CPlusPlus5Lexer22scanPreprocessorNumberEPNS_5TokenEb
libCPlusPlus.so.10:_ZN9CPlusPlus5Lexer25scanOptionalIntegerSuffixEb
libCPlusPlus.so.10:_ZN9CPlusPlus5Lexer26scanOptionalFloatingSuffixEv
libCPlusPlus.so.10:_ZN9CPlusPlus5Lexer30scanOptionalUserDefinedLiteralEPNS_5TokenE
libCPlusPlus.so.10:_ZN9CPlusPlus5Lexer31setScanAngleStringLiteralTokensEb
libCPlusPlus.so.10:_ZN9CPlusPlus5Lexer34scanUntilRawStringLiteralEndSimpleEv
libCPlusPlus.so.10:_ZN9CPlusPlus5Lexer35scanUntilRawStringLiteralEndPreciseEv
libCPlusPlus.so.10:_ZN9CPlusPlus5Lexer4scanEPNS_5TokenE
libCPlusPlus.so.10:_ZN9CPlusPlus5Lexer8classifyEPKciNS_16LanguageFeaturesE
libCPlusPlus.so.10:_ZN9CPlusPlus5Lexer8setStateEi
libCPlusPlus.so.10:_ZN9CPlusPlus5Lexer9setSourceEPKcS2_
libCPlusPlus.so.10:_ZN9CPlusPlus5LexerC1EPKcS2_
libCPlusPlus.so.10:_ZN9CPlusPlus5LexerC1EPNS_15TranslationUnitE
libCPlusPlus.so.10:_ZN9CPlusPlus5LexerC2EPKcS2_
libCPlusPlus.so.10:_ZN9CPlusPlus5LexerC2EPNS_15TranslationUnitE
libCPlusPlus.so.10:_ZN9CPlusPlus5LexerD1Ev
libCPlusPlus.so.10:_ZN9CPlusPlus5LexerD2Ev
libCPlusPlus.so.10:_ZN9CPlusPlus5MacroC1Ev
libCPlusPlus.so.10:_ZN9CPlusPlus5MacroC2Ev
libCPlusPlus.so.10:_ZN9CPlusPlus5Scope9addMemberEPNS_6SymbolE
libCPlusPlus.so.10:_ZN9CPlusPlus5ScopeC2EPNS_15TranslationUnitEiPKNS_4NameE
libCPlusPlus.so.10:_ZN9CPlusPlus5ScopeC2EPNS_5CloneEPNS_5SubstEPS0_
libCPlusPlus.so.10:_ZN9CPlusPlus5ScopeD0Ev
libCPlusPlus.so.10:_ZN9CPlusPlus5ScopeD1Ev
libCPlusPlus.so.10:_ZN9CPlusPlus5ScopeD2Ev
libCPlusPlus.so.10:_ZN9CPlusPlus5Token4nameEi
libCPlusPlus.so.10:_ZN9CPlusPlus5Token5resetEv
libCPlusPlus.so.10:_ZN9CPlusPlus6ClientC2Ev
libCPlusPlus.so.10:_ZN9CPlusPlus6ClientD0Ev
libCPlusPlus.so.10:_ZN9CPlusPlus6ClientD1Ev
libCPlusPlus.so.10:_ZN9CPlusPlus6ClientD2Ev
libCPlusPlus.so.10:_ZN9CPlusPlus6Parser10parseUsingERPNS_14DeclarationASTE
libCPlusPlus.so.10:_ZN9CPlusPlus6Parser11parseNameIdERPNS_7NameASTE
libCPlusPlus.so.10:_ZN9CPlusPlus6Parser11parseTypeIdERPNS_13ExpressionASTE
libCPlusPlus.so.10:_ZN9CPlusPlus6Parser12parseCaptureERPNS_10CaptureASTE
libCPlusPlus.so.10:_ZN9CPlusPlus6Parser12parseQtFlagsERPNS_14DeclarationASTE
libCPlusPlus.so.10:_ZN9CPlusPlus6Parser13parseOperatorERPNS_11OperatorASTE
libCPlusPlus.so.10:_ZN9CPlusPlus6Parser13parseQtMethodERPNS_13ExpressionASTE
libCPlusPlus.so.10:_ZN9CPlusPlus6Parser14parseConditionERPNS_13ExpressionASTE
libCPlusPlus.so.10:_ZN9CPlusPlus6Parser14parseNamespaceERPNS_14DeclarationASTE
libCPlusPlus.so.10:_ZN9CPlusPlus6Parser14parseNewTypeIdERPNS_12NewTypeIdASTE
libCPlusPlus.so.10:_ZN9CPlusPlus6Parser14parseStatementERPNS_12StatementASTEb
libCPlusPlus.so.10:_ZN9CPlusPlus6Parser15parseAsmOperandEv
libCPlusPlus.so.10:_ZN9CPlusPlus6Parser15parseBaseClauseERPNS_4ListIPNS_16BaseSpecifierASTEEE
libCPlusPlus.so.10:_ZN9CPlusPlus6Parser15parseDeclaratorERPNS_13DeclaratorASTEPNS_4ListIPNS_12SpecifierASTEEEPNS_17ClassSpecifierASTE
libCPlusPlus.so.10:_ZN9CPlusPlus6Parser15parseDesignatorERPNS_13DesignatorASTE
libCPlusPlus.so.10:_ZN9CPlusPlus6Parser15parseEnumeratorERPNS_4ListIPNS_13EnumeratorASTEEE
libCPlusPlus.so.10:_ZN9CPlusPlus6Parser15parseExpressionERPNS_13ExpressionASTE
libCPlusPlus.so.10:_ZN9CPlusPlus6Parser15parseTemplateIdERPNS_7NameASTEi
libCPlusPlus.so.10:_ZN9CPlusPlus6Parser15parseTypeIdListERPNS_4ListIPNS_13ExpressionASTEEE
libCPlusPlus.so.10:_ZN9CPlusPlus6Parser16parseBoolLiteralERPNS_13ExpressionASTE
libCPlusPlus.so.10:_ZN9CPlusPlus6Parser16parseCaptureListERPNS_4ListIPNS_10CaptureASTEEE
libCPlusPlus.so.10:_ZN9CPlusPlus6Parser16parseCatchClauseERPNS_4ListIPNS_14CatchClauseASTEEE
libCPlusPlus.so.10:_ZN9CPlusPlus6Parser16parseDeclarationERPNS_14DeclarationASTE
libCPlusPlus.so.10:_ZN9CPlusPlus6Parser16parseDoStatementERPNS_12StatementASTE
libCPlusPlus.so.10:_ZN9CPlusPlus6Parser16parseIfStatementERPNS_12StatementASTE
libCPlusPlus.so.10:_ZN9CPlusPlus6Parser16parseInitializerERPNS_13ExpressionASTEPi
libCPlusPlus.so.10:_ZN9CPlusPlus6Parser16parseLinkageBodyERPNS_14DeclarationASTE
libCPlusPlus.so.10:_ZN9CPlusPlus6Parser16parsePtrOperatorERPNS_4ListIPNS_14PtrOperatorASTEEE
libCPlusPlus.so.10:_ZN9CPlusPlus6Parser17parseCvQualifiersERPNS_4ListIPNS_12SpecifierASTEEE
libCPlusPlus.so.10:_ZN9CPlusPlus6Parser17parseForStatementERPNS_12StatementASTE
libCPlusPlus.so.10:_ZN9CPlusPlus6Parser17parseFunctionBodyERPNS_12StatementASTE
libCPlusPlus.so.10:_ZN9CPlusPlus6Parser17parseObjCProtocolERPNS_14DeclarationASTEPNS_4ListIPNS_12SpecifierASTEEE
libCPlusPlus.so.10:_ZN9CPlusPlus6Parser17parseObjCSelectorERi
libCPlusPlus.so.10:_ZN9CPlusPlus6Parser17parseObjCTypeNameERPNS_15ObjCTypeNameASTE
libCPlusPlus.so.10:_ZN9CPlusPlus6Parser17parseQtInterfacesERPNS_14DeclarationASTE
libCPlusPlus.so.10:_ZN9CPlusPlus6Parser17parseRefQualifierERi
libCPlusPlus.so.10:_ZN9CPlusPlus6Parser18parseAsmDefinitionERPNS_14DeclarationASTE
libCPlusPlus.so.10:_ZN9CPlusPlus6Parser18parseBaseSpecifierERPNS_4ListIPNS_16BaseSpecifierASTEEE
libCPlusPlus.so.10:_ZN9CPlusPlus6Parser18parseEnumSpecifierERPNS_4ListIPNS_12SpecifierASTEEE
libCPlusPlus.so.10:_ZN9CPlusPlus6Parser18parseGotoStatementERPNS_12StatementASTE
libCPlusPlus.so.10:_ZN9CPlusPlus6Parser18parseInitializer0xERPNS_13ExpressionASTEPi
libCPlusPlus.so.10:_ZN9CPlusPlus6Parser18parseLambdaCaptureERPNS_16LambdaCaptureASTE
libCPlusPlus.so.10:_ZN9CPlusPlus6Parser18parseNewExpressionERPNS_13ExpressionASTE
libCPlusPlus.so.10:_ZN9CPlusPlus6Parser18parseObjCInterfaceERPNS_14DeclarationASTEPNS_4ListIPNS_12SpecifierASTEEE
libCPlusPlus.so.10:_ZN9CPlusPlus6Parser18parseStringLiteralERPNS_13ExpressionASTE
libCPlusPlus.so.10:_ZN9CPlusPlus6Parser18parseTypeParameterERPNS_14DeclarationASTE
libCPlusPlus.so.10:_ZN9CPlusPlus6Parser18skipUntilStatementEv
libCPlusPlus.so.10:_ZN9CPlusPlus6Parser19lookAtTypeParameterEv
libCPlusPlus.so.10:_ZN9CPlusPlus6Parser19parseAsmClobberListEv
libCPlusPlus.so.10:_ZN9CPlusPlus6Parser19parseAsmOperandListEv
libCPlusPlus.so.10:_ZN9CPlusPlus6Parser19parseBreakStatementERPNS_12StatementASTE
libCPlusPlus.so.10:_ZN9CPlusPlus6Parser19parseCastExpressionERPNS_13ExpressionASTE
libCPlusPlus.so.10:_ZN9CPlusPlus6Parser19parseClassSpecifierERPNS_4ListIPNS_12SpecifierASTEEE
libCPlusPlus.so.10:_ZN9CPlusPlus6Parser19parseCoreDeclaratorERPNS_13DeclaratorASTEPNS_4ListIPNS_12SpecifierASTEEEPNS_17ClassSpecifierASTE
libCPlusPlus.so.10:_ZN9CPlusPlus6Parser19parseExpressionListERPNS_4ListIPNS_13ExpressionASTEEE
libCPlusPlus.so.10:_ZN9CPlusPlus6Parser19parseInitDeclaratorERPNS_13DeclaratorASTEPNS_4ListIPNS_12SpecifierASTEEEPNS_17ClassSpecifierASTE
libCPlusPlus.so.10:_ZN9CPlusPlus6Parser19parseMemInitializerERPNS_4ListIPNS_17MemInitializerASTEEE
libCPlusPlus.so.10:_ZN9CPlusPlus6Parser19parseNewInitializerERPNS_13ExpressionASTE
libCPlusPlus.so.10:_ZN9CPlusPlus6Parser19parseNumericLiteralERPNS_13ExpressionASTE
libCPlusPlus.so.10:_ZN9CPlusPlus6Parser19parseObjCExpressionERPNS_13ExpressionASTE
libCPlusPlus.so.10:_ZN9CPlusPlus6Parser19parsePointerLiteralERPNS_13ExpressionASTE
libCPlusPlus.so.10:_ZN9CPlusPlus6Parser19parseThisExpressionERPNS_13ExpressionASTE
libCPlusPlus.so.10:_ZN9CPlusPlus6Parser19parseUsingDirectiveERPNS_14DeclarationASTE
libCPlusPlus.so.10:_ZN9CPlusPlus6Parser19parseWhileStatementERPNS_12StatementASTE
libCPlusPlus.so.10:_ZN9CPlusPlus6Parser20parseCommaExpressionERPNS_13ExpressionASTE
libCPlusPlus.so.10:_ZN9CPlusPlus6Parser20parseCtorInitializerERPNS_18CtorInitializerASTE
libCPlusPlus.so.10:_ZN9CPlusPlus6Parser20parseInitializerListERPNS_4ListIPNS_13ExpressionASTEEE
libCPlusPlus.so.10:_ZN9CPlusPlus6Parser20parseNestedNamespaceERPNS_14DeclarationASTE
libCPlusPlus.so.10:_ZN9CPlusPlus6Parser20parseObjCSelectorArgERPNS_23ObjCSelectorArgumentASTERPNS_22ObjCMessageArgumentASTE
libCPlusPlus.so.10:_ZN9CPlusPlus6Parser20parseReturnStatementERPNS_12StatementASTE
libCPlusPlus.so.10:_ZN9CPlusPlus6Parser20parseSwitchStatementERPNS_12StatementASTE
libCPlusPlus.so.10:_ZN9CPlusPlus6Parser20parseThrowExpressionERPNS_13ExpressionASTE
libCPlusPlus.so.10:_ZN9CPlusPlus6Parser20parseTranslationUnitERPNS_18TranslationUnitASTE
libCPlusPlus.so.10:_ZN9CPlusPlus6Parser20parseUnaryExpressionERPNS_13ExpressionASTE
libCPlusPlus.so.10:_ZN9CPlusPlus6Parser20parseUnqualifiedNameERPNS_7NameASTEb
libCPlusPlus.so.10:_ZN9CPlusPlus6Parser20skipUntilDeclarationEv
libCPlusPlus.so.10:_ZN9CPlusPlus6Parser21parseAliasDeclarationERPNS_14DeclarationASTE
libCPlusPlus.so.10:_ZN9CPlusPlus6Parser21parseBlockDeclarationERPNS_14DeclarationASTE
libCPlusPlus.so.10:_ZN9CPlusPlus6Parser21parseBracedInitList0xERPNS_13ExpressionASTE
libCPlusPlus.so.10:_ZN9CPlusPlus6Parser21parseDeclSpecifierSeqERPNS_4ListIPNS_12SpecifierASTEEEbb
libCPlusPlus.so.10:_ZN9CPlusPlus6Parser21parseDeleteExpressionERPNS_13ExpressionASTE
libCPlusPlus.so.10:_ZN9CPlusPlus6Parser21parseEmptyDeclarationERPNS_14DeclarationASTE
libCPlusPlus.so.10:_ZN9CPlusPlus6Parser21parseForInitStatementERPNS_12StatementASTE
libCPlusPlus.so.10:_ZN9CPlusPlus6Parser21parseForeachStatementERPNS_12StatementASTE
libCPlusPlus.so.10:_ZN9CPlusPlus6Parser21parseGnuAttributeListERPNS_4ListIPNS_15GnuAttributeASTEEE
libCPlusPlus.so.10:_ZN9CPlusPlus6Parser21parseLabeledStatementERPNS_12StatementASTE
libCPlusPlus.so.10:_ZN9CPlusPlus6Parser21parseLambdaDeclaratorERPNS_19LambdaDeclaratorASTE
libCPlusPlus.so.10:_ZN9CPlusPlus6Parser21parseLambdaExpressionERPNS_13ExpressionASTE
libCPlusPlus.so.10:_ZN9CPlusPlus6Parser21parseLambdaIntroducerERPNS_19LambdaIntroducerASTE
libCPlusPlus.so.10:_ZN9CPlusPlus6Parser21parseNestedExpressionERPNS_13ExpressionASTE
libCPlusPlus.so.10:_ZN9CPlusPlus6Parser21parseObjCProtocolRefsERPNS_19ObjCProtocolRefsASTE
libCPlusPlus.so.10:_ZN9CPlusPlus6Parser21parseObjCTryStatementERPNS_12StatementASTE
libCPlusPlus.so.10:_ZN9CPlusPlus6Parser21parseTemplateArgumentERPNS_13ExpressionASTE
libCPlusPlus.so.10:_ZN9CPlusPlus6Parser21parseTypeidExpressionERPNS_13ExpressionASTE
libCPlusPlus.so.10:_ZN9CPlusPlus6Parser22parseAccessDeclarationERPNS_14DeclarationASTE
libCPlusPlus.so.10:_ZN9CPlusPlus6Parser22parseCompoundStatementERPNS_12StatementASTE
libCPlusPlus.so.10:_ZN9CPlusPlus6Parser22parseContinueStatementERPNS_12StatementASTE
libCPlusPlus.so.10:_ZN9CPlusPlus6Parser22parseCppCastExpressionERPNS_13ExpressionASTE
libCPlusPlus.so.10:_ZN9CPlusPlus6Parser22parseInitializerClauseERPNS_13ExpressionASTE
libCPlusPlus.so.10:_ZN9CPlusPlus6Parser22parseInitializerList0xERPNS_4ListIPNS_13ExpressionASTEEE
libCPlusPlus.so.10:_ZN9CPlusPlus6Parser22parseObjCStringLiteralERPNS_13ExpressionASTE
libCPlusPlus.so.10:_ZN9CPlusPlus6Parser22parsePostfixExpressionERPNS_13ExpressionASTE
libCPlusPlus.so.10:_ZN9CPlusPlus6Parser22parsePrimaryExpressionERPNS_13ExpressionASTE
libCPlusPlus.so.10:_ZN9CPlusPlus6Parser22parseQtEnumDeclarationERPNS_14DeclarationASTE
libCPlusPlus.so.10:_ZN9CPlusPlus6Parser22parseSimpleDeclarationERPNS_14DeclarationASTEPNS_17ClassSpecifierASTE
libCPlusPlus.so.10:_ZN9CPlusPlus6Parser22parseTemplateParameterERPNS_14DeclarationASTE
libCPlusPlus.so.10:_ZN9CPlusPlus6Parser22parseTryBlockStatementERPNS_12StatementASTEPPNS_18CtorInitializerASTE
libCPlusPlus.so.10:_ZN9CPlusPlus6Parser23maybeAmbiguousStatementEPNS_23DeclarationStatementASTERPNS_12StatementASTE
libCPlusPlus.so.10:_ZN9CPlusPlus6Parser23parseAbstractDeclaratorERPNS_13DeclaratorASTEPNS_4ListIPNS_12SpecifierASTEEE
libCPlusPlus.so.10:_ZN9CPlusPlus6Parser23parseAttributeSpecifierERPNS_4ListIPNS_12SpecifierASTEEE
libCPlusPlus.so.10:_ZN9CPlusPlus6Parser23parseConstantExpressionERPNS_13ExpressionASTE
libCPlusPlus.so.10:_ZN9CPlusPlus6Parser23parseMemInitializerListERPNS_4ListIPNS_17MemInitializerASTEEE
libCPlusPlus.so.10:_ZN9CPlusPlus6Parser23parseNewArrayDeclaratorERPNS_4ListIPNS_21NewArrayDeclaratorASTEEE
libCPlusPlus.so.10:_ZN9CPlusPlus6Parser23parseObjCContextKeywordEiRi
libCPlusPlus.so.10:_ZN9CPlusPlus6Parser23parseObjCImplementationERPNS_14DeclarationASTE
libCPlusPlus.so.10:_ZN9CPlusPlus6Parser23parseObjCThrowStatementERPNS_12StatementASTE
libCPlusPlus.so.10:_ZN9CPlusPlus6Parser23parseObjCTypeQualifiersERi
libCPlusPlus.so.10:_ZN9CPlusPlus6Parser23parseOperatorFunctionIdERPNS_7NameASTE
libCPlusPlus.so.10:_ZN9CPlusPlus6Parser23parseTrailingReturnTypeERPNS_21TrailingReturnTypeASTE
libCPlusPlus.so.10:_ZN9CPlusPlus6Parser23switchTemplateArgumentsEb
libCPlusPlus.so.10:_ZN9CPlusPlus6Parser24parseExpressionListParenERPNS_13ExpressionASTE
libCPlusPlus.so.10:_ZN9CPlusPlus6Parser24parseExpressionStatementERPNS_12StatementASTE
libCPlusPlus.so.10:_ZN9CPlusPlus6Parser24parseInitializerClause0xERPNS_13ExpressionASTE
libCPlusPlus.so.10:_ZN9CPlusPlus6Parser24parseLogicalOrExpressionERPNS_13ExpressionASTE
libCPlusPlus.so.10:_ZN9CPlusPlus6Parser24parseMemberSpecificationERPNS_14DeclarationASTEPNS_17ClassSpecifierASTE
libCPlusPlus.so.10:_ZN9CPlusPlus6Parser24parseNestedNameSpecifierERPNS_4ListIPNS_22NestedNameSpecifierASTEEEb
libCPlusPlus.so.10:_ZN9CPlusPlus6Parser24parseObjCMessageReceiverERPNS_13ExpressionASTE
libCPlusPlus.so.10:_ZN9CPlusPlus6Parser24parseObjCMethodPrototypeERPNS_22ObjCMethodPrototypeASTE
libCPlusPlus.so.10:_ZN9CPlusPlus6Parser24parseTemplateDeclarationERPNS_14DeclarationASTE
libCPlusPlus.so.10:_ZN9CPlusPlus6Parser24peekAtObjCContextKeywordEi
libCPlusPlus.so.10:_ZN9CPlusPlus6Parser25parseAssignmentExpressionERPNS_13ExpressionASTE
libCPlusPlus.so.10:_ZN9CPlusPlus6Parser25parseBuiltinTypeSpecifierERPNS_4ListIPNS_12SpecifierASTEEE
libCPlusPlus.so.10:_ZN9CPlusPlus6Parser25parseClassOrNamespaceNameERPNS_7NameASTE
libCPlusPlus.so.10:_ZN9CPlusPlus6Parser25parseConversionFunctionIdERPNS_7NameASTE
libCPlusPlus.so.10:_ZN9CPlusPlus6Parser25parseDeclarationStatementERPNS_12StatementASTE
libCPlusPlus.so.10:_ZN9CPlusPlus6Parser25parseExceptionDeclarationERPNS_23ExceptionDeclarationASTE
libCPlusPlus.so.10:_ZN9CPlusPlus6Parser25parseLinkageSpecificationERPNS_14DeclarationASTE
libCPlusPlus.so.10:_ZN9CPlusPlus6Parser25parseObjCEncodeExpressionERPNS_13ExpressionASTE
libCPlusPlus.so.10:_ZN9CPlusPlus6Parser25parseObjCMessageArgumentsERPNS_15ObjCSelectorASTERPNS_4ListIPNS_22ObjCMessageArgumentASTEEE
libCPlusPlus.so.10:_ZN9CPlusPlus6Parser25parseObjCMethodDefinitionERPNS_14DeclarationASTE
libCPlusPlus.so.10:_ZN9CPlusPlus6Parser25parseParameterDeclarationERPNS_23ParameterDeclarationASTE
libCPlusPlus.so.10:_ZN9CPlusPlus6Parser25parseTemplateArgumentListERPNS_4ListIPNS_13ExpressionASTEEE
libCPlusPlus.so.10:_ZN9CPlusPlus6Parser25templateArgumentListEntryEi
libCPlusPlus.so.10:_ZN9CPlusPlus6Parser26parseConditionalExpressionERPNS_13ExpressionASTE
libCPlusPlus.so.10:_ZN9CPlusPlus6Parser26parseCorePostfixExpressionERPNS_13ExpressionASTE
libCPlusPlus.so.10:_ZN9CPlusPlus6Parser26parseDesignatedInitializerERPNS_13ExpressionASTE
libCPlusPlus.so.10:_ZN9CPlusPlus6Parser26parseGnuAttributeSpecifierERPNS_4ListIPNS_12SpecifierASTEEE
libCPlusPlus.so.10:_ZN9CPlusPlus6Parser26parseMsvcDeclspecSpecifierERPNS_4ListIPNS_12SpecifierASTEEE
libCPlusPlus.so.10:_ZN9CPlusPlus6Parser26parseObjCMessageExpressionERPNS_13ExpressionASTE
libCPlusPlus.so.10:_ZN9CPlusPlus6Parser26parseObjCPropertyAttributeERPNS_24ObjCPropertyAttributeASTE
libCPlusPlus.so.10:_ZN9CPlusPlus6Parser26parseQtPropertyDeclarationERPNS_14DeclarationASTE
libCPlusPlus.so.10:_ZN9CPlusPlus6Parser26parseStdAttributeSpecifierERPNS_4ListIPNS_12SpecifierASTEEE
libCPlusPlus.so.10:_ZN9CPlusPlus6Parser26parseTemplateParameterListERPNS_4ListIPNS_14DeclarationASTEEE
libCPlusPlus.so.10:_ZN9CPlusPlus6Parser26parseTemplateTypeParameterERPNS_14DeclarationASTE
libCPlusPlus.so.10:_ZN9CPlusPlus6Parser26parseTypenameTypeParameterERPNS_14DeclarationASTE
libCPlusPlus.so.10:_ZN9CPlusPlus6Parser27parseAbstractCoreDeclaratorERPNS_13DeclaratorASTEPNS_4ListIPNS_12SpecifierASTEEE
libCPlusPlus.so.10:_ZN9CPlusPlus6Parser27parseExceptionSpecificationERPNS_25ExceptionSpecificationASTE
libCPlusPlus.so.10:_ZN9CPlusPlus6Parser27parseNestedNameSpecifierOptERPNS_4ListIPNS_22NestedNameSpecifierASTEEEb
libCPlusPlus.so.10:_ZN9CPlusPlus6Parser27parseObjCKeywordDeclarationERPNS_23ObjCSelectorArgumentASTERPNS_33ObjCMessageArgumentDeclarationASTE
libCPlusPlus.so.10:_ZN9CPlusPlus6Parser27parseObjCProtocolExpressionERPNS_13ExpressionASTE
libCPlusPlus.so.10:_ZN9CPlusPlus6Parser27parseObjCSelectorExpressionERPNS_13ExpressionASTE
libCPlusPlus.so.10:_ZN9CPlusPlus6Parser27parseTypenameCallExpressionERPNS_13ExpressionASTE
libCPlusPlus.so.10:_ZN9CPlusPlus6Parser28parseDecompositionDeclaratorEPNS_4ListIPNS_12SpecifierASTEEE
libCPlusPlus.so.10:_ZN9CPlusPlus6Parser28parseElaboratedTypeSpecifierERPNS_4ListIPNS_12SpecifierASTEEE
libCPlusPlus.so.10:_ZN9CPlusPlus6Parser28parseObjCPropertyDeclarationERPNS_14DeclarationASTEPNS_4ListIPNS_12SpecifierASTEEE
libCPlusPlus.so.10:_ZN9CPlusPlus6Parser28parseOverrideFinalQualifiersERPNS_4ListIPNS_12SpecifierASTEEE
libCPlusPlus.so.10:_ZN9CPlusPlus6Parser28parseStaticAssertDeclarationERPNS_14DeclarationASTE
libCPlusPlus.so.10:_ZN9CPlusPlus6Parser29maybeSplitGreaterGreaterTokenEi
libCPlusPlus.so.10:_ZN9CPlusPlus6Parser29parseNamespaceAliasDefinitionERPNS_14DeclarationASTE
libCPlusPlus.so.10:_ZN9CPlusPlus6Parser29parseObjCMethodDefinitionListERPNS_4ListIPNS_14DeclarationASTEEE
libCPlusPlus.so.10:_ZN9CPlusPlus6Parser29parseParameterDeclarationListERPNS_4ListIPNS_23ParameterDeclarationASTEEE
libCPlusPlus.so.10:_ZN9CPlusPlus6Parser30parseBraceOrEqualInitializer0xERPNS_13ExpressionASTE
libCPlusPlus.so.10:_ZN9CPlusPlus6Parser30parseObjCSynchronizedStatementERPNS_12StatementASTE
libCPlusPlus.so.10:_ZN9CPlusPlus6Parser30parseObjClassInstanceVariablesERPNS_35ObjCInstanceVariablesDeclarationASTE
libCPlusPlus.so.10:_ZN9CPlusPlus6Parser31parseNoExceptOperatorExpressionERPNS_13ExpressionASTE
libCPlusPlus.so.10:_ZN9CPlusPlus6Parser31parseParameterDeclarationClauseERPNS_29ParameterDeclarationClauseASTE
libCPlusPlus.so.10:_ZN9CPlusPlus6Parser32parseObjCClassForwardDeclarationERPNS_14DeclarationASTE
libCPlusPlus.so.10:_ZN9CPlusPlus6Parser35parseDeclaratorOrAbstractDeclaratorERPNS_13DeclaratorASTEPNS_4ListIPNS_12SpecifierASTEEE
libCPlusPlus.so.10:_ZN9CPlusPlus6Parser35parseObjCInterfaceMemberDeclarationERPNS_14DeclarationASTE
libCPlusPlus.so.10:_ZN9CPlusPlus6Parser36parseObjCInstanceVariableDeclarationERPNS_14DeclarationASTE
libCPlusPlus.so.10:_ZN9CPlusPlus6Parser37parseExpressionOrDeclarationStatementERPNS_12StatementASTE
libCPlusPlus.so.10:_ZN9CPlusPlus6Parser37parseExpressionWithOperatorPrecedenceERPNS_13ExpressionASTEi
libCPlusPlus.so.10:_ZN9CPlusPlus6Parser39parseOptionalAttributeSpecifierSequenceERPNS_4ListIPNS_12SpecifierASTEEE
libCPlusPlus.so.10:_ZN9CPlusPlus6Parser4findEii
libCPlusPlus.so.10:_ZN9CPlusPlus6Parser4skipEii
libCPlusPlus.so.10:_ZN9CPlusPlus6Parser5errorEiPKcz
libCPlusPlus.so.10:_ZN9CPlusPlus6Parser5fatalEiPKcz
libCPlusPlus.so.10:_ZN9CPlusPlus6Parser5matchEiPi
libCPlusPlus.so.10:_ZN9CPlusPlus6Parser6rewindEi
libCPlusPlus.so.10:_ZN9CPlusPlus6Parser7warningEiPKcz
libCPlusPlus.so.10:_ZN9CPlusPlus6Parser9parseNameERPNS_7NameASTEb
libCPlusPlus.so.10:_ZN9CPlusPlus6Parser9skipUntilEi
libCPlusPlus.so.10:_ZN9CPlusPlus6ParserC1EPNS_15TranslationUnitE
libCPlusPlus.so.10:_ZN9CPlusPlus6ParserC2EPNS_15TranslationUnitE
libCPlusPlus.so.10:_ZN9CPlusPlus6ParserD1Ev
libCPlusPlus.so.10:_ZN9CPlusPlus6ParserD2Ev
libCPlusPlus.so.10:_ZN9CPlusPlus6QtEnum12visitSymbol0EPNS_13SymbolVisitorE
libCPlusPlus.so.10:_ZN9CPlusPlus6QtEnumC1EPNS_15TranslationUnitEiPKNS_4NameE
libCPlusPlus.so.10:_ZN9CPlusPlus6QtEnumC1EPNS_5CloneEPNS_5SubstEPS0_
libCPlusPlus.so.10:_ZN9CPlusPlus6QtEnumC2EPNS_15TranslationUnitEiPKNS_4NameE
libCPlusPlus.so.10:_ZN9CPlusPlus6QtEnumC2EPNS_5CloneEPNS_5SubstEPS0_
libCPlusPlus.so.10:_ZN9CPlusPlus6Symbol11visitSymbolEPNS_13SymbolVisitorE
libCPlusPlus.so.10:_ZN9CPlusPlus6Symbol11visitSymbolEPS0_PNS_13SymbolVisitorE
libCPlusPlus.so.10:_ZN9CPlusPlus6Symbol17setEnclosingScopeEPNS_5ScopeE
libCPlusPlus.so.10:_ZN9CPlusPlus6Symbol17setSourceLocationEiPNS_15TranslationUnitE
libCPlusPlus.so.10:_ZN9CPlusPlus6Symbol19resetEnclosingScopeEv
libCPlusPlus.so.10:_ZN9CPlusPlus6Symbol4copyEPS0_
libCPlusPlus.so.10:_ZN9CPlusPlus6Symbol7setNameEPKNS_4NameE
libCPlusPlus.so.10:_ZN9CPlusPlus6SymbolC2EPNS_15TranslationUnitEiPKNS_4NameE
libCPlusPlus.so.10:_ZN9CPlusPlus6SymbolC2EPNS_5CloneEPNS_5SubstEPS0_
libCPlusPlus.so.10:_ZN9CPlusPlus6SymbolD0Ev
libCPlusPlus.so.10:_ZN9CPlusPlus6SymbolD1Ev
libCPlusPlus.so.10:_ZN9CPlusPlus6SymbolD2Ev
libCPlusPlus.so.10:_ZN9CPlusPlus7ASTPath8preVisitEPNS_3ASTE
libCPlusPlus.so.10:_ZN9CPlusPlus7ASTPathclEii
libCPlusPlus.so.10:_ZN9CPlusPlus7CallAST6match0EPNS_3ASTEPNS_10ASTMatcherE
libCPlusPlus.so.10:_ZN9CPlusPlus7CallAST7accept0EPNS_10ASTVisitorE
libCPlusPlus.so.10:_ZN9CPlusPlus7Control10identifierEPKc
libCPlusPlus.so.10:_ZN9CPlusPlus7Control10identifierEPKci
libCPlusPlus.so.10:_ZN9CPlusPlus7Control11integerTypeEi
libCPlusPlus.so.10:_ZN9CPlusPlus7Control11newArgumentEiPKNS_4NameE
libCPlusPlus.so.10:_ZN9CPlusPlus7Control11newFunctionEiPKNS_4NameE
libCPlusPlus.so.10:_ZN9CPlusPlus7Control11newTemplateEiPKNS_4NameE
libCPlusPlus.so.10:_ZN9CPlusPlus7Control11pointerTypeERKNS_18FullySpecifiedTypeE
libCPlusPlus.so.10:_ZN9CPlusPlus7Control12newBaseClassEiPKNS_4NameE
libCPlusPlus.so.10:_ZN9CPlusPlus7Control12newNamespaceEiPKNS_4NameE
libCPlusPlus.so.10:_ZN9CPlusPlus7Control12newObjCClassEiPKNS_4NameE
libCPlusPlus.so.10:_ZN9CPlusPlus7Control13newObjCMethodEiPKNS_4NameE
libCPlusPlus.so.10:_ZN9CPlusPlus7Control13referenceTypeERKNS_18FullySpecifiedTypeEb
libCPlusPlus.so.10:_ZN9CPlusPlus7Control13stringLiteralEPKc
libCPlusPlus.so.10:_ZN9CPlusPlus7Control13stringLiteralEPKci
libCPlusPlus.so.10:_ZN9CPlusPlus7Control14newDeclarationEiPKNS_4NameE
libCPlusPlus.so.10:_ZN9CPlusPlus7Control14numericLiteralEPKc
libCPlusPlus.so.10:_ZN9CPlusPlus7Control14numericLiteralEPKci
libCPlusPlus.so.10:_ZN9CPlusPlus7Control14operatorNameIdENS_14OperatorNameId4KindE
libCPlusPlus.so.10:_ZN9CPlusPlus7Control14selectorNameIdEPKPKNS_4NameEib
libCPlusPlus.so.10:_ZN9CPlusPlus7Control14templateNameIdEPKNS_10IdentifierEbPKNS_16TemplateArgumentEi
libCPlusPlus.so.10:_ZN9CPlusPlus7Control15anonymousNameIdEj
libCPlusPlus.so.10:_ZN9CPlusPlus7Control15newObjCProtocolEiPKNS_4NameE
libCPlusPlus.so.10:_ZN9CPlusPlus7Control15qualifiedNameIdEPKNS_4NameES3_
libCPlusPlus.so.10:_ZN9CPlusPlus7Control16conversionNameIdERKNS_18FullySpecifiedTypeE
libCPlusPlus.so.10:_ZN9CPlusPlus7Control16destructorNameIdEPKNS_4NameE
libCPlusPlus.so.10:_ZN9CPlusPlus7Control16newObjCBaseClassEiPKNS_4NameE
libCPlusPlus.so.10:_ZN9CPlusPlus7Control17newNamespaceAliasEiPKNS_4NameE
libCPlusPlus.so.10:_ZN9CPlusPlus7Control19newObjCBaseProtocolEiPKNS_4NameE
libCPlusPlus.so.10:_ZN9CPlusPlus7Control19newTypenameArgumentEiPKNS_4NameE
libCPlusPlus.so.10:_ZN9CPlusPlus7Control19newUsingDeclarationEiPKNS_4NameE
libCPlusPlus.so.10:_ZN9CPlusPlus7Control19pointerToMemberTypeEPKNS_4NameERKNS_18FullySpecifiedTypeE
libCPlusPlus.so.10:_ZN9CPlusPlus7Control19setDiagnosticClientEPNS_16DiagnosticClientE
libCPlusPlus.so.10:_ZN9CPlusPlus7Control21switchTranslationUnitEPNS_15TranslationUnitE
libCPlusPlus.so.10:_ZN9CPlusPlus7Control24newEnumeratorDeclarationEiPKNS_4NameE
libCPlusPlus.so.10:_ZN9CPlusPlus7Control24newQtPropertyDeclarationEiPKNS_4NameE
libCPlusPlus.so.10:_ZN9CPlusPlus7Control26newForwardClassDeclarationEiPKNS_4NameE
libCPlusPlus.so.10:_ZN9CPlusPlus7Control26newObjCPropertyDeclarationEiPKNS_4NameE
libCPlusPlus.so.10:_ZN9CPlusPlus7Control26newUsingNamespaceDirectiveEiPKNS_4NameE
libCPlusPlus.so.10:_ZN9CPlusPlus7Control30newObjCForwardClassDeclarationEiPKNS_4NameE
libCPlusPlus.so.10:_ZN9CPlusPlus7Control31setTopLevelDeclarationProcessorEPNS_28TopLevelDeclarationProcessorE
libCPlusPlus.so.10:_ZN9CPlusPlus7Control33newObjCForwardProtocolDeclarationEiPKNS_4NameE
libCPlusPlus.so.10:_ZN9CPlusPlus7Control6toNameERK5QListIPKNS_4NameEE
libCPlusPlus.so.10:_ZN9CPlusPlus7Control7newEnumEiPKNS_4NameE
libCPlusPlus.so.10:_ZN9CPlusPlus7Control8newBlockEi
libCPlusPlus.so.10:_ZN9CPlusPlus7Control8newClassEiPKNS_4NameE
libCPlusPlus.so.10:_ZN9CPlusPlus7Control8voidTypeEv
libCPlusPlus.so.10:_ZN9CPlusPlus7Control9addSymbolEPNS_6SymbolE
libCPlusPlus.so.10:_ZN9CPlusPlus7Control9arrayTypeERKNS_18FullySpecifiedTypeEi
libCPlusPlus.so.10:_ZN9CPlusPlus7Control9floatTypeEi
libCPlusPlus.so.10:_ZN9CPlusPlus7Control9namedTypeEPKNS_4NameE
libCPlusPlus.so.10:_ZN9CPlusPlus7Control9newQtEnumEiPKNS_4NameE
libCPlusPlus.so.10:_ZN9CPlusPlus7ControlC1Ev
libCPlusPlus.so.10:_ZN9CPlusPlus7ControlC2Ev
libCPlusPlus.so.10:_ZN9CPlusPlus7ControlD1Ev
libCPlusPlus.so.10:_ZN9CPlusPlus7ControlD2Ev
libCPlusPlus.so.10:_ZN9CPlusPlus7Literal8hashCodeEPKcj
libCPlusPlus.so.10:_ZN9CPlusPlus7LiteralC1EPKci
libCPlusPlus.so.10:_ZN9CPlusPlus7LiteralC2EPKci
libCPlusPlus.so.10:_ZN9CPlusPlus7LiteralD0Ev
libCPlusPlus.so.10:_ZN9CPlusPlus7LiteralD1Ev
libCPlusPlus.so.10:_ZN9CPlusPlus7LiteralD2Ev
libCPlusPlus.so.10:_ZN9CPlusPlus7ManagedC1Ev
libCPlusPlus.so.10:_ZN9CPlusPlus7ManagedC2Ev
libCPlusPlus.so.10:_ZN9CPlusPlus7ManagedD0Ev
libCPlusPlus.so.10:_ZN9CPlusPlus7ManagedD1Ev
libCPlusPlus.so.10:_ZN9CPlusPlus7ManagedD2Ev
libCPlusPlus.so.10:_ZN9CPlusPlus7ManageddlEPv
libCPlusPlus.so.10:_ZN9CPlusPlus7ManageddlEPvPNS_10MemoryPoolE
libCPlusPlus.so.10:_ZN9CPlusPlus7ManagednwEmPNS_10MemoryPoolE
libCPlusPlus.so.10:_ZN9CPlusPlus7Matcher5matchEPKNS_10IdentifierES3_
libCPlusPlus.so.10:_ZN9CPlusPlus7Matcher5matchEPKNS_10ObjCMethodES3_
libCPlusPlus.so.10:_ZN9CPlusPlus7Matcher5matchEPKNS_11IntegerTypeES3_
libCPlusPlus.so.10:_ZN9CPlusPlus7Matcher5matchEPKNS_11PointerTypeES3_
libCPlusPlus.so.10:_ZN9CPlusPlus7Matcher5matchEPKNS_12ObjCProtocolES3_
libCPlusPlus.so.10:_ZN9CPlusPlus7Matcher5matchEPKNS_13ReferenceTypeES3_
libCPlusPlus.so.10:_ZN9CPlusPlus7Matcher5matchEPKNS_13UndefinedTypeES3_
libCPlusPlus.so.10:_ZN9CPlusPlus7Matcher5matchEPKNS_14OperatorNameIdES3_
libCPlusPlus.so.10:_ZN9CPlusPlus7Matcher5matchEPKNS_14SelectorNameIdES3_
libCPlusPlus.so.10:_ZN9CPlusPlus7Matcher5matchEPKNS_14TemplateNameIdES3_
libCPlusPlus.so.10:_ZN9CPlusPlus7Matcher5matchEPKNS_15AnonymousNameIdES3_
libCPlusPlus.so.10:_ZN9CPlusPlus7Matcher5matchEPKNS_15QualifiedNameIdES3_
libCPlusPlus.so.10:_ZN9CPlusPlus7Matcher5matchEPKNS_16ConversionNameIdES3_
libCPlusPlus.so.10:_ZN9CPlusPlus7Matcher5matchEPKNS_16DestructorNameIdES3_
libCPlusPlus.so.10:_ZN9CPlusPlus7Matcher5matchEPKNS_19PointerToMemberTypeES3_
libCPlusPlus.so.10:_ZN9CPlusPlus7Matcher5matchEPKNS_23ForwardClassDeclarationES3_
libCPlusPlus.so.10:_ZN9CPlusPlus7Matcher5matchEPKNS_27ObjCForwardClassDeclarationES3_
libCPlusPlus.so.10:_ZN9CPlusPlus7Matcher5matchEPKNS_30ObjCForwardProtocolDeclarationES3_
libCPlusPlus.so.10:_ZN9CPlusPlus7Matcher5matchEPKNS_4EnumES3_
libCPlusPlus.so.10:_ZN9CPlusPlus7Matcher5matchEPKNS_4NameES3_PS0_
libCPlusPlus.so.10:_ZN9CPlusPlus7Matcher5matchEPKNS_4TypeES3_PS0_
libCPlusPlus.so.10:_ZN9CPlusPlus7Matcher5matchEPKNS_5ClassES3_
libCPlusPlus.so.10:_ZN9CPlusPlus7Matcher5matchEPKNS_8FunctionES3_
libCPlusPlus.so.10:_ZN9CPlusPlus7Matcher5matchEPKNS_8TemplateES3_
libCPlusPlus.so.10:_ZN9CPlusPlus7Matcher5matchEPKNS_8VoidTypeES3_
libCPlusPlus.so.10:_ZN9CPlusPlus7Matcher5matchEPKNS_9ArrayTypeES3_
libCPlusPlus.so.10:_ZN9CPlusPlus7Matcher5matchEPKNS_9FloatTypeES3_
libCPlusPlus.so.10:_ZN9CPlusPlus7Matcher5matchEPKNS_9NamedTypeES3_
libCPlusPlus.so.10:_ZN9CPlusPlus7Matcher5matchEPKNS_9NamespaceES3_
libCPlusPlus.so.10:_ZN9CPlusPlus7Matcher5matchEPKNS_9ObjCClassES3_
libCPlusPlus.so.10:_ZN9CPlusPlus7MatcherC1Ev
libCPlusPlus.so.10:_ZN9CPlusPlus7MatcherC2Ev
libCPlusPlus.so.10:_ZN9CPlusPlus7MatcherD0Ev
libCPlusPlus.so.10:_ZN9CPlusPlus7MatcherD1Ev
libCPlusPlus.so.10:_ZN9CPlusPlus7MatcherD2Ev
libCPlusPlus.so.10:_ZN9CPlusPlus8Argument12visitSymbol0EPNS_13SymbolVisitorE
libCPlusPlus.so.10:_ZN9CPlusPlus8ArgumentC1EPNS_15TranslationUnitEiPKNS_4NameE
libCPlusPlus.so.10:_ZN9CPlusPlus8ArgumentC1EPNS_5CloneEPNS_5SubstEPS0_
libCPlusPlus.so.10:_ZN9CPlusPlus8ArgumentC2EPNS_15TranslationUnitEiPKNS_4NameE
libCPlusPlus.so.10:_ZN9CPlusPlus8ArgumentC2EPNS_5CloneEPNS_5SubstEPS0_
libCPlusPlus.so.10:_ZN9CPlusPlus8Document11addMacroUseERKNS_5MacroEiiiiiRK5QListINS_22MacroArgumentReferenceEE
libCPlusPlus.so.10:_ZN9CPlusPlus8Document11appendMacroERKNS_5MacroE
libCPlusPlus.so.10:_ZN9CPlusPlus8Document11swapControlEPNS_7ControlE
libCPlusPlus.so.10:_ZN9CPlusPlus8Document13setUtf8SourceERK10QByteArray
libCPlusPlus.so.10:_ZN9CPlusPlus8Document14addIncludeFileERKNS0_7IncludeE
libCPlusPlus.so.10:_ZN9CPlusPlus8Document15setLastModifiedERK9QDateTime
libCPlusPlus.so.10:_ZN9CPlusPlus8Document16keepSourceAndASTEv
libCPlusPlus.so.10:_ZN9CPlusPlus8Document18setGlobalNamespaceEPNS_9NamespaceE
libCPlusPlus.so.10:_ZN9CPlusPlus8Document18stopSkippingBlocksEi
libCPlusPlus.so.10:_ZN9CPlusPlus8Document19releaseSourceAndASTEv
libCPlusPlus.so.10:_ZN9CPlusPlus8Document19setLanguageFeaturesENS_16LanguageFeaturesE
libCPlusPlus.so.10:_ZN9CPlusPlus8Document19setSkipFunctionBodyEb
libCPlusPlus.so.10:_ZN9CPlusPlus8Document19startSkippingBlocksEi
libCPlusPlus.so.10:_ZN9CPlusPlus8Document20addUndefinedMacroUseERK10QByteArrayii
libCPlusPlus.so.10:_ZN9CPlusPlus8Document5checkENS0_9CheckModeE
libCPlusPlus.so.10:_ZN9CPlusPlus8Document5parseENS0_9ParseModeE
libCPlusPlus.so.10:_ZN9CPlusPlus8Document6createERKN5Utils8FilePathE
libCPlusPlus.so.10:_ZN9CPlusPlus8Document7scopeAtEii
libCPlusPlus.so.10:_ZN9CPlusPlus8Document8tokenizeEv
libCPlusPlus.so.10:_ZN9CPlusPlus8DocumentC1ERKN5Utils8FilePathE
libCPlusPlus.so.10:_ZN9CPlusPlus8DocumentC2ERKN5Utils8FilePathE
libCPlusPlus.so.10:_ZN9CPlusPlus8DocumentD1Ev
libCPlusPlus.so.10:_ZN9CPlusPlus8DocumentD2Ev
libCPlusPlus.so.10:_ZN9CPlusPlus8Function12visitSymbol0EPNS_13SymbolVisitorE
libCPlusPlus.so.10:_ZN9CPlusPlus8Function7accept0EPNS_11TypeVisitorE
libCPlusPlus.so.10:_ZN9CPlusPlus8FunctionC1EPNS_15TranslationUnitEiPKNS_4NameE
libCPlusPlus.so.10:_ZN9CPlusPlus8FunctionC1EPNS_5CloneEPNS_5SubstEPS0_
libCPlusPlus.so.10:_ZN9CPlusPlus8FunctionC2EPNS_15TranslationUnitEiPKNS_4NameE
libCPlusPlus.so.10:_ZN9CPlusPlus8FunctionC2EPNS_5CloneEPNS_5SubstEPS0_
libCPlusPlus.so.10:_ZN9CPlusPlus8Internal7PPToken13squeezeSourceEv
libCPlusPlus.so.10:_ZN9CPlusPlus8OverviewC1Ev
libCPlusPlus.so.10:_ZN9CPlusPlus8OverviewC2Ev
libCPlusPlus.so.10:_ZN9CPlusPlus8Snapshot6insertE14QSharedPointerINS_8DocumentEE
libCPlusPlus.so.10:_ZN9CPlusPlus8Snapshot6removeERKN5Utils8FilePathE
libCPlusPlus.so.10:_ZN9CPlusPlus8SnapshotC1Ev
libCPlusPlus.so.10:_ZN9CPlusPlus8SnapshotC2Ev
libCPlusPlus.so.10:_ZN9CPlusPlus8SnapshotD1Ev
libCPlusPlus.so.10:_ZN9CPlusPlus8SnapshotD2Ev
libCPlusPlus.so.10:_ZN9CPlusPlus8Template12visitSymbol0EPNS_13SymbolVisitorE
libCPlusPlus.so.10:_ZN9CPlusPlus8Template7accept0EPNS_11TypeVisitorE
libCPlusPlus.so.10:_ZN9CPlusPlus8TemplateC1EPNS_15TranslationUnitEiPKNS_4NameE
libCPlusPlus.so.10:_ZN9CPlusPlus8TemplateC1EPNS_5CloneEPNS_5SubstEPS0_
libCPlusPlus.so.10:_ZN9CPlusPlus8TemplateC2EPNS_15TranslationUnitEiPKNS_4NameE
libCPlusPlus.so.10:_ZN9CPlusPlus8TemplateC2EPNS_5CloneEPNS_5SubstEPS0_
libCPlusPlus.so.10:_ZN9CPlusPlus8UsingAST6match0EPNS_3ASTEPNS_10ASTMatcherE
libCPlusPlus.so.10:_ZN9CPlusPlus8UsingAST7accept0EPNS_10ASTVisitorE
libCPlusPlus.so.10:_ZN9CPlusPlus8VoidType7accept0EPNS_11TypeVisitorE
libCPlusPlus.so.10:_ZN9CPlusPlus9ASTParent8preVisitEPNS_3ASTE
libCPlusPlus.so.10:_ZN9CPlusPlus9ASTParent9postVisitEPNS_3ASTE
libCPlusPlus.so.10:_ZN9CPlusPlus9ASTParentC1EPNS_15TranslationUnitEPNS_3ASTE
libCPlusPlus.so.10:_ZN9CPlusPlus9ASTParentC2EPNS_15TranslationUnitEPNS_3ASTE
libCPlusPlus.so.10:_ZN9CPlusPlus9ASTParentD0Ev
libCPlusPlus.so.10:_ZN9CPlusPlus9ASTParentD1Ev
libCPlusPlus.so.10:_ZN9CPlusPlus9ASTParentD2Ev
libCPlusPlus.so.10:_ZN9CPlusPlus9ArrayType7accept0EPNS_11TypeVisitorE
libCPlusPlus.so.10:_ZN9CPlusPlus9ArrayTypeC1ERKNS_18FullySpecifiedTypeEj
libCPlusPlus.so.10:_ZN9CPlusPlus9ArrayTypeC2ERKNS_18FullySpecifiedTypeEj
libCPlusPlus.so.10:_ZN9CPlusPlus9BaseClass12visitSymbol0EPNS_13SymbolVisitorE
libCPlusPlus.so.10:_ZN9CPlusPlus9BaseClassC1EPNS_15TranslationUnitEiPKNS_4NameE
libCPlusPlus.so.10:_ZN9CPlusPlus9BaseClassC1EPNS_5CloneEPNS_5SubstEPS0_
libCPlusPlus.so.10:_ZN9CPlusPlus9BaseClassC2EPNS_15TranslationUnitEiPKNS_4NameE
libCPlusPlus.so.10:_ZN9CPlusPlus9BaseClassC2EPNS_5CloneEPNS_5SubstEPS0_
libCPlusPlus.so.10:_ZN9CPlusPlus9CloneName5visitEPKNS_10IdentifierE
libCPlusPlus.so.10:_ZN9CPlusPlus9CloneName5visitEPKNS_14OperatorNameIdE
libCPlusPlus.so.10:_ZN9CPlusPlus9CloneName5visitEPKNS_14SelectorNameIdE
libCPlusPlus.so.10:_ZN9CPlusPlus9CloneName5visitEPKNS_14TemplateNameIdE
libCPlusPlus.so.10:_ZN9CPlusPlus9CloneName5visitEPKNS_15AnonymousNameIdE
libCPlusPlus.so.10:_ZN9CPlusPlus9CloneName5visitEPKNS_15QualifiedNameIdE
libCPlusPlus.so.10:_ZN9CPlusPlus9CloneName5visitEPKNS_16ConversionNameIdE
libCPlusPlus.so.10:_ZN9CPlusPlus9CloneName5visitEPKNS_16DestructorNameIdE
libCPlusPlus.so.10:_ZN9CPlusPlus9CloneName9cloneNameEPKNS_4NameEPNS_5SubstE
libCPlusPlus.so.10:_ZN9CPlusPlus9CloneNameC1EPNS_5CloneE
libCPlusPlus.so.10:_ZN9CPlusPlus9CloneNameC2EPNS_5CloneE
libCPlusPlus.so.10:_ZN9CPlusPlus9CloneType5visitEPNS_10ObjCMethodE
libCPlusPlus.so.10:_ZN9CPlusPlus9CloneType5visitEPNS_11IntegerTypeE
libCPlusPlus.so.10:_ZN9CPlusPlus9CloneType5visitEPNS_11PointerTypeE
libCPlusPlus.so.10:_ZN9CPlusPlus9CloneType5visitEPNS_12ObjCProtocolE
libCPlusPlus.so.10:_ZN9CPlusPlus9CloneType5visitEPNS_13ReferenceTypeE
libCPlusPlus.so.10:_ZN9CPlusPlus9CloneType5visitEPNS_13UndefinedTypeE
libCPlusPlus.so.10:_ZN9CPlusPlus9CloneType5visitEPNS_19PointerToMemberTypeE
libCPlusPlus.so.10:_ZN9CPlusPlus9CloneType5visitEPNS_23ForwardClassDeclarationE
libCPlusPlus.so.10:_ZN9CPlusPlus9CloneType5visitEPNS_27ObjCForwardClassDeclarationE
libCPlusPlus.so.10:_ZN9CPlusPlus9CloneType5visitEPNS_30ObjCForwardProtocolDeclarationE
libCPlusPlus.so.10:_ZN9CPlusPlus9CloneType5visitEPNS_4EnumE
libCPlusPlus.so.10:_ZN9CPlusPlus9CloneType5visitEPNS_5ClassE
libCPlusPlus.so.10:_ZN9CPlusPlus9CloneType5visitEPNS_8FunctionE
libCPlusPlus.so.10:_ZN9CPlusPlus9CloneType5visitEPNS_8TemplateE
libCPlusPlus.so.10:_ZN9CPlusPlus9CloneType5visitEPNS_8VoidTypeE
libCPlusPlus.so.10:_ZN9CPlusPlus9CloneType5visitEPNS_9ArrayTypeE
libCPlusPlus.so.10:_ZN9CPlusPlus9CloneType5visitEPNS_9FloatTypeE
libCPlusPlus.so.10:_ZN9CPlusPlus9CloneType5visitEPNS_9NamedTypeE
libCPlusPlus.so.10:_ZN9CPlusPlus9CloneType5visitEPNS_9NamespaceE
libCPlusPlus.so.10:_ZN9CPlusPlus9CloneType5visitEPNS_9ObjCClassE
libCPlusPlus.so.10:_ZN9CPlusPlus9CloneType9cloneTypeERKNS_18FullySpecifiedTypeEPNS_5SubstE
libCPlusPlus.so.10:_ZN9CPlusPlus9CloneTypeC1EPNS_5CloneE
libCPlusPlus.so.10:_ZN9CPlusPlus9CloneTypeC2EPNS_5CloneE
libCPlusPlus.so.10:_ZN9CPlusPlus9FloatType7accept0EPNS_11TypeVisitorE
libCPlusPlus.so.10:_ZN9CPlusPlus9NamedType7accept0EPNS_11TypeVisitorE
libCPlusPlus.so.10:_ZN9CPlusPlus9Namespace12visitSymbol0EPNS_13SymbolVisitorE
libCPlusPlus.so.10:_ZN9CPlusPlus9Namespace7accept0EPNS_11TypeVisitorE
libCPlusPlus.so.10:_ZN9CPlusPlus9NamespaceC1EPNS_15TranslationUnitEiPKNS_4NameE
libCPlusPlus.so.10:_ZN9CPlusPlus9NamespaceC1EPNS_5CloneEPNS_5SubstEPS0_
libCPlusPlus.so.10:_ZN9CPlusPlus9NamespaceC2EPNS_15TranslationUnitEiPKNS_4NameE
libCPlusPlus.so.10:_ZN9CPlusPlus9NamespaceC2EPNS_5CloneEPNS_5SubstEPS0_
libCPlusPlus.so.10:_ZN9CPlusPlus9ObjCClass11addProtocolEPNS_16ObjCBaseProtocolE
libCPlusPlus.so.10:_ZN9CPlusPlus9ObjCClass12visitSymbol0EPNS_13SymbolVisitorE
libCPlusPlus.so.10:_ZN9CPlusPlus9ObjCClass7accept0EPNS_11TypeVisitorE
libCPlusPlus.so.10:_ZN9CPlusPlus9ObjCClassC1EPNS_15TranslationUnitEiPKNS_4NameE
libCPlusPlus.so.10:_ZN9CPlusPlus9ObjCClassC1EPNS_5CloneEPNS_5SubstEPS0_
libCPlusPlus.so.10:_ZN9CPlusPlus9ObjCClassC2EPNS_15TranslationUnitEiPKNS_4NameE
libCPlusPlus.so.10:_ZN9CPlusPlus9ObjCClassC2EPNS_5CloneEPNS_5SubstEPS0_
libCPlusPlus.so.10:_ZN9CPlusPlus9TypeIdAST6match0EPNS_3ASTEPNS_10ASTMatcherE
libCPlusPlus.so.10:_ZN9CPlusPlus9TypeIdAST7accept0EPNS_10ASTVisitorE
libCPlusPlus.so.10:_ZNK9CPlusPlus10ASTVisitor10identifierEi
libCPlusPlus.so.10:_ZNK9CPlusPlus10ASTVisitor10tokenCountEv
libCPlusPlus.so.10:_ZNK9CPlusPlus10ASTVisitor11getPositionEiPiS1_PPKNS_13StringLiteralE
libCPlusPlus.so.10:_ZNK9CPlusPlus10ASTVisitor13stringLiteralEi
libCPlusPlus.so.10:_ZNK9CPlusPlus10ASTVisitor14numericLiteralEi
libCPlusPlus.so.10:_ZNK9CPlusPlus10ASTVisitor15translationUnitEv
libCPlusPlus.so.10:_ZNK9CPlusPlus10ASTVisitor16getTokenPositionEiPiS1_PPKNS_13StringLiteralE
libCPlusPlus.so.10:_ZNK9CPlusPlus10ASTVisitor19getTokenEndPositionEiPiS1_
libCPlusPlus.so.10:_ZNK9CPlusPlus10ASTVisitor21getTokenStartPositionEiPiS1_
libCPlusPlus.so.10:_ZNK9CPlusPlus10ASTVisitor5spellEi
libCPlusPlus.so.10:_ZNK9CPlusPlus10ASTVisitor7controlEv
libCPlusPlus.so.10:_ZNK9CPlusPlus10ASTVisitor7literalEi
libCPlusPlus.so.10:_ZNK9CPlusPlus10ASTVisitor7tokenAtEi
libCPlusPlus.so.10:_ZNK9CPlusPlus10ASTVisitor9tokenKindEi
libCPlusPlus.so.10:_ZNK9CPlusPlus10FindUsages10referencesEv
libCPlusPlus.so.10:_ZNK9CPlusPlus10FindUsages12matchingLineERKNS_5TokenE
libCPlusPlus.so.10:_ZNK9CPlusPlus10FindUsages15checkCandidatesERK5QListINS_10LookupItemEE
libCPlusPlus.so.10:_ZNK9CPlusPlus10FindUsages6usagesEv
libCPlusPlus.so.10:_ZNK9CPlusPlus10FindUsages9fetchLineEj
libCPlusPlus.so.10:_ZNK9CPlusPlus10Identifier6match0EPKNS_4NameEPNS_7MatcherE
libCPlusPlus.so.10:_ZNK9CPlusPlus10Identifier7accept0EPNS_11NameVisitorE
libCPlusPlus.so.10:_ZNK9CPlusPlus10LookupItem11declarationEv
libCPlusPlus.so.10:_ZNK9CPlusPlus10LookupItem4typeEv
libCPlusPlus.so.10:_ZNK9CPlusPlus10LookupItem5scopeEv
libCPlusPlus.so.10:_ZNK9CPlusPlus10LookupItem7bindingEv
libCPlusPlus.so.10:_ZNK9CPlusPlus10LookupItemeqERKS0_
libCPlusPlus.so.10:_ZNK9CPlusPlus10LookupItemneERKS0_
libCPlusPlus.so.10:_ZNK9CPlusPlus10ObjCMethod10argumentAtEi
libCPlusPlus.so.10:_ZNK9CPlusPlus10ObjCMethod12hasArgumentsEv
libCPlusPlus.so.10:_ZNK9CPlusPlus10ObjCMethod13argumentCountEv
libCPlusPlus.so.10:_ZNK9CPlusPlus10ObjCMethod13hasReturnTypeEv
libCPlusPlus.so.10:_ZNK9CPlusPlus10ObjCMethod4typeEv
libCPlusPlus.so.10:_ZNK9CPlusPlus10ObjCMethod6match0EPKNS_4TypeEPNS_7MatcherE
libCPlusPlus.so.10:_ZNK9CPlusPlus10PointerAST10firstTokenEv
libCPlusPlus.so.10:_ZNK9CPlusPlus10PointerAST5cloneEPNS_10MemoryPoolE
libCPlusPlus.so.10:_ZNK9CPlusPlus10PointerAST9lastTokenEv
libCPlusPlus.so.10:_ZNK9CPlusPlus11Environment10firstMacroEv
libCPlusPlus.so.10:_ZNK9CPlusPlus11Environment10macroCountEv
libCPlusPlus.so.10:_ZNK9CPlusPlus11Environment4dumpEv
libCPlusPlus.so.10:_ZNK9CPlusPlus11Environment7macroAtEj
libCPlusPlus.so.10:_ZNK9CPlusPlus11Environment7resolveERKNS_12ByteArrayRefE
libCPlusPlus.so.10:_ZNK9CPlusPlus11Environment9lastMacroEv
libCPlusPlus.so.10:_ZNK9CPlusPlus11IntegerType6match0EPKNS_4TypeEPNS_7MatcherE
libCPlusPlus.so.10:_ZNK9CPlusPlus11OperatorAST10firstTokenEv
libCPlusPlus.so.10:_ZNK9CPlusPlus11OperatorAST5cloneEPNS_10MemoryPoolE
libCPlusPlus.so.10:_ZNK9CPlusPlus11OperatorAST9lastTokenEv
libCPlusPlus.so.10:_ZNK9CPlusPlus11PointerType6match0EPKNS_4TypeEPNS_7MatcherE
libCPlusPlus.so.10:_ZNK9CPlusPlus11QtMethodAST10firstTokenEv
libCPlusPlus.so.10:_ZNK9CPlusPlus11QtMethodAST5cloneEPNS_10MemoryPoolE
libCPlusPlus.so.10:_ZNK9CPlusPlus11QtMethodAST9lastTokenEv
libCPlusPlus.so.10:_ZNK9CPlusPlus11SimpleLexer11endedJoinedEv
libCPlusPlus.so.10:_ZNK9CPlusPlus11SimpleLexer12skipCommentsEv
libCPlusPlus.so.10:_ZNK9CPlusPlus12ByteArrayRef10startsWithEPKc
libCPlusPlus.so.10:_ZNK9CPlusPlus12ByteArrayRef5countEc
libCPlusPlus.so.10:_ZNK9CPlusPlus12ConditionAST10firstTokenEv
libCPlusPlus.so.10:_ZNK9CPlusPlus12ConditionAST5cloneEPNS_10MemoryPoolE
libCPlusPlus.so.10:_ZNK9CPlusPlus12ConditionAST9lastTokenEv
libCPlusPlus.so.10:_ZNK9CPlusPlus12NamespaceAST10firstTokenEv
libCPlusPlus.so.10:_ZNK9CPlusPlus12NamespaceAST5cloneEPNS_10MemoryPoolE
libCPlusPlus.so.10:_ZNK9CPlusPlus12NamespaceAST9lastTokenEv
libCPlusPlus.so.10:_ZNK9CPlusPlus12NewTypeIdAST10firstTokenEv
libCPlusPlus.so.10:_ZNK9CPlusPlus12NewTypeIdAST5cloneEPNS_10MemoryPoolE
libCPlusPlus.so.10:_ZNK9CPlusPlus12NewTypeIdAST9lastTokenEv
libCPlusPlus.so.10:_ZNK9CPlusPlus12ObjCProtocol10protocolAtEi
libCPlusPlus.so.10:_ZNK9CPlusPlus12ObjCProtocol13protocolCountEv
libCPlusPlus.so.10:_ZNK9CPlusPlus12ObjCProtocol4typeEv
libCPlusPlus.so.10:_ZNK9CPlusPlus12ObjCProtocol6match0EPKNS_4TypeEPNS_7MatcherE
libCPlusPlus.so.10:_ZNK9CPlusPlus12Preprocessor12keepCommentsEv
libCPlusPlus.so.10:_ZNK9CPlusPlus12Preprocessor19atStartOfOutputLineEv
libCPlusPlus.so.10:_ZNK9CPlusPlus12Preprocessor19startSkippingBlocksERKNS_8Internal7PPTokenE
libCPlusPlus.so.10:_ZNK9CPlusPlus12Preprocessor24expandFunctionlikeMacrosEv
libCPlusPlus.so.10:_ZNK9CPlusPlus12ReferenceAST10firstTokenEv
libCPlusPlus.so.10:_ZNK9CPlusPlus12ReferenceAST5cloneEPNS_10MemoryPoolE
libCPlusPlus.so.10:_ZNK9CPlusPlus12ReferenceAST9lastTokenEv
libCPlusPlus.so.10:_ZNK9CPlusPlus13DeclaratorAST10firstTokenEv
libCPlusPlus.so.10:_ZNK9CPlusPlus13DeclaratorAST5cloneEPNS_10MemoryPoolE
libCPlusPlus.so.10:_ZNK9CPlusPlus13DeclaratorAST9lastTokenEv
libCPlusPlus.so.10:_ZNK9CPlusPlus13EnumeratorAST10firstTokenEv
libCPlusPlus.so.10:_ZNK9CPlusPlus13EnumeratorAST5cloneEPNS_10MemoryPoolE
libCPlusPlus.so.10:_ZNK9CPlusPlus13EnumeratorAST9lastTokenEv
libCPlusPlus.so.10:_ZNK9CPlusPlus13LookupContext10lookupTypeEPKNS_4NameEPNS_5ScopeEPNS_16ClassOrNamespaceE4QSetIPKNS_11DeclarationEE
libCPlusPlus.so.10:_ZNK9CPlusPlus13LookupContext10lookupTypeEPNS_6SymbolEPNS_16ClassOrNamespaceE
libCPlusPlus.so.10:_ZNK9CPlusPlus13LookupContext12lookupParentEPNS_6SymbolE
libCPlusPlus.so.10:_ZNK9CPlusPlus13LookupContext12thisDocumentEv
libCPlusPlus.so.10:_ZNK9CPlusPlus13LookupContext13lookupByUsingEPKNS_4NameEPNS_16ClassOrNamespaceE
libCPlusPlus.so.10:_ZNK9CPlusPlus13LookupContext15globalNamespaceEv
libCPlusPlus.so.10:_ZNK9CPlusPlus13LookupContext18expressionDocumentEv
libCPlusPlus.so.10:_ZNK9CPlusPlus13LookupContext6lookupEPKNS_4NameEPNS_5ScopeE
libCPlusPlus.so.10:_ZNK9CPlusPlus13LookupContext8documentERKN5Utils8FilePathE
libCPlusPlus.so.10:_ZNK9CPlusPlus13LookupContext8snapshotEv
libCPlusPlus.so.10:_ZNK9CPlusPlus13ObjCBaseClass4typeEv
libCPlusPlus.so.10:_ZNK9CPlusPlus13ReferenceType6match0EPKNS_4TypeEPNS_7MatcherE
libCPlusPlus.so.10:_ZNK9CPlusPlus13SimpleNameAST10firstTokenEv
libCPlusPlus.so.10:_ZNK9CPlusPlus13SimpleNameAST5cloneEPNS_10MemoryPoolE
libCPlusPlus.so.10:_ZNK9CPlusPlus13SimpleNameAST9lastTokenEv
libCPlusPlus.so.10:_ZNK9CPlusPlus13TemplateIdAST10firstTokenEv
libCPlusPlus.so.10:_ZNK9CPlusPlus13TemplateIdAST5cloneEPNS_10MemoryPoolE
libCPlusPlus.so.10:_ZNK9CPlusPlus13TemplateIdAST9lastTokenEv
libCPlusPlus.so.10:_ZNK9CPlusPlus13UndefinedType6match0EPKNS_4TypeEPNS_7MatcherE
libCPlusPlus.so.10:_ZNK9CPlusPlus14ArrayAccessAST10firstTokenEv
libCPlusPlus.so.10:_ZNK9CPlusPlus14ArrayAccessAST5cloneEPNS_10MemoryPoolE
libCPlusPlus.so.10:_ZNK9CPlusPlus14ArrayAccessAST9lastTokenEv
libCPlusPlus.so.10:_ZNK9CPlusPlus14BoolLiteralAST10firstTokenEv
libCPlusPlus.so.10:_ZNK9CPlusPlus14BoolLiteralAST5cloneEPNS_10MemoryPoolE
libCPlusPlus.so.10:_ZNK9CPlusPlus14BoolLiteralAST9lastTokenEv
libCPlusPlus.so.10:_ZNK9CPlusPlus14CatchClauseAST10firstTokenEv
libCPlusPlus.so.10:_ZNK9CPlusPlus14CatchClauseAST5cloneEPNS_10MemoryPoolE
libCPlusPlus.so.10:_ZNK9CPlusPlus14CatchClauseAST9lastTokenEv
libCPlusPlus.so.10:_ZNK9CPlusPlus14CreateBindings15globalNamespaceEv
libCPlusPlus.so.10:_ZNK9CPlusPlus14CreateBindings27instantiateTemplateFunctionEPKNS_4NameEPNS_8TemplateE
libCPlusPlus.so.10:_ZNK9CPlusPlus14DoStatementAST10firstTokenEv
libCPlusPlus.so.10:_ZNK9CPlusPlus14DoStatementAST5cloneEPNS_10MemoryPoolE
libCPlusPlus.so.10:_ZNK9CPlusPlus14DoStatementAST9lastTokenEv
libCPlusPlus.so.10:_ZNK9CPlusPlus14IfStatementAST10firstTokenEv
libCPlusPlus.so.10:_ZNK9CPlusPlus14IfStatementAST5cloneEPNS_10MemoryPoolE
libCPlusPlus.so.10:_ZNK9CPlusPlus14IfStatementAST9lastTokenEv
libCPlusPlus.so.10:_ZNK9CPlusPlus14LinkageBodyAST10firstTokenEv
libCPlusPlus.so.10:_ZNK9CPlusPlus14LinkageBodyAST5cloneEPNS_10MemoryPoolE
libCPlusPlus.so.10:_ZNK9CPlusPlus14LinkageBodyAST9lastTokenEv
libCPlusPlus.so.10:_ZNK9CPlusPlus14NamespaceAlias4typeEv
libCPlusPlus.so.10:_ZNK9CPlusPlus14OperatorNameId4kindEv
libCPlusPlus.so.10:_ZNK9CPlusPlus14OperatorNameId6match0EPKNS_4NameEPNS_7MatcherE
libCPlusPlus.so.10:_ZNK9CPlusPlus14OperatorNameId7accept0EPNS_11NameVisitorE
libCPlusPlus.so.10:_ZNK9CPlusPlus14QtObjectTagAST10firstTokenEv
libCPlusPlus.so.10:_ZNK9CPlusPlus14QtObjectTagAST5cloneEPNS_10MemoryPoolE
libCPlusPlus.so.10:_ZNK9CPlusPlus14QtObjectTagAST9lastTokenEv
libCPlusPlus.so.10:_ZNK9CPlusPlus14SelectorNameId10identifierEv
libCPlusPlus.so.10:_ZNK9CPlusPlus14SelectorNameId12hasArgumentsEv
libCPlusPlus.so.10:_ZNK9CPlusPlus14SelectorNameId6match0EPKNS_4NameEPNS_7MatcherE
libCPlusPlus.so.10:_ZNK9CPlusPlus14SelectorNameId6nameAtEi
libCPlusPlus.so.10:_ZNK9CPlusPlus14SelectorNameId7accept0EPNS_11NameVisitorE
libCPlusPlus.so.10:_ZNK9CPlusPlus14SelectorNameId9nameCountEv
libCPlusPlus.so.10:_ZNK9CPlusPlus14TemplateNameId10identifierEv
libCPlusPlus.so.10:_ZNK9CPlusPlus14TemplateNameId18templateArgumentAtEi
libCPlusPlus.so.10:_ZNK9CPlusPlus14TemplateNameId21templateArgumentCountEv
libCPlusPlus.so.10:_ZNK9CPlusPlus14TemplateNameId4HashclEPKS0_
libCPlusPlus.so.10:_ZNK9CPlusPlus14TemplateNameId6EqualsclEPKS0_S3_
libCPlusPlus.so.10:_ZNK9CPlusPlus14TemplateNameId6match0EPKNS_4NameEPNS_7MatcherE
libCPlusPlus.so.10:_ZNK9CPlusPlus14TemplateNameId7accept0EPNS_11NameVisitorE
libCPlusPlus.so.10:_ZNK9CPlusPlus15AnonymousNameId15classTokenIndexEv
libCPlusPlus.so.10:_ZNK9CPlusPlus15AnonymousNameId6match0EPKNS_4NameEPNS_7MatcherE
libCPlusPlus.so.10:_ZNK9CPlusPlus15AnonymousNameId7accept0EPNS_11NameVisitorE
libCPlusPlus.so.10:_ZNK9CPlusPlus15DeclaratorIdAST10firstTokenEv
libCPlusPlus.so.10:_ZNK9CPlusPlus15DeclaratorIdAST5cloneEPNS_10MemoryPoolE
libCPlusPlus.so.10:_ZNK9CPlusPlus15DeclaratorIdAST9lastTokenEv
libCPlusPlus.so.10:_ZNK9CPlusPlus15DependencyTable16filesDependingOnERKN5Utils8FilePathE
libCPlusPlus.so.10:_ZNK9CPlusPlus15ForStatementAST10firstTokenEv
libCPlusPlus.so.10:_ZNK9CPlusPlus15ForStatementAST5cloneEPNS_10MemoryPoolE
libCPlusPlus.so.10:_ZNK9CPlusPlus15ForStatementAST9lastTokenEv
libCPlusPlus.so.10:_ZNK9CPlusPlus15GnuAttributeAST10firstTokenEv
libCPlusPlus.so.10:_ZNK9CPlusPlus15GnuAttributeAST5cloneEPNS_10MemoryPoolE
libCPlusPlus.so.10:_ZNK9CPlusPlus15GnuAttributeAST9lastTokenEv
libCPlusPlus.so.10:_ZNK9CPlusPlus15IdExpressionAST10firstTokenEv
libCPlusPlus.so.10:_ZNK9CPlusPlus15IdExpressionAST5cloneEPNS_10MemoryPoolE
libCPlusPlus.so.10:_ZNK9CPlusPlus15IdExpressionAST9lastTokenEv
libCPlusPlus.so.10:_ZNK9CPlusPlus15MemberAccessAST10firstTokenEv
libCPlusPlus.so.10:_ZNK9CPlusPlus15MemberAccessAST5cloneEPNS_10MemoryPoolE
libCPlusPlus.so.10:_ZNK9CPlusPlus15MemberAccessAST9lastTokenEv
libCPlusPlus.so.10:_ZNK9CPlusPlus15ObjCSelectorAST10firstTokenEv
libCPlusPlus.so.10:_ZNK9CPlusPlus15ObjCSelectorAST5cloneEPNS_10MemoryPoolE
libCPlusPlus.so.10:_ZNK9CPlusPlus15ObjCSelectorAST9lastTokenEv
libCPlusPlus.so.10:_ZNK9CPlusPlus15ObjCTypeNameAST10firstTokenEv
libCPlusPlus.so.10:_ZNK9CPlusPlus15ObjCTypeNameAST5cloneEPNS_10MemoryPoolE
libCPlusPlus.so.10:_ZNK9CPlusPlus15ObjCTypeNameAST9lastTokenEv
libCPlusPlus.so.10:_ZNK9CPlusPlus15PostIncrDecrAST10firstTokenEv
libCPlusPlus.so.10:_ZNK9CPlusPlus15PostIncrDecrAST5cloneEPNS_10MemoryPoolE
libCPlusPlus.so.10:_ZNK9CPlusPlus15PostIncrDecrAST9lastTokenEv
libCPlusPlus.so.10:_ZNK9CPlusPlus15QualifiedNameId10identifierEv
libCPlusPlus.so.10:_ZNK9CPlusPlus15QualifiedNameId4baseEv
libCPlusPlus.so.10:_ZNK9CPlusPlus15QualifiedNameId4nameEv
libCPlusPlus.so.10:_ZNK9CPlusPlus15QualifiedNameId6match0EPKNS_4NameEPNS_7MatcherE
libCPlusPlus.so.10:_ZNK9CPlusPlus15QualifiedNameId7accept0EPNS_11NameVisitorE
libCPlusPlus.so.10:_ZNK9CPlusPlus15SubstitutionMap5applyEPKNS_4NameEPNS_7RewriteE
libCPlusPlus.so.10:_ZNK9CPlusPlus15TranslationUnit10identifierEi
libCPlusPlus.so.10:_ZNK9CPlusPlus15TranslationUnit10memoryPoolEv
libCPlusPlus.so.10:_ZNK9CPlusPlus15TranslationUnit11getPositionEiPiS1_PPKNS_13StringLiteralE
libCPlusPlus.so.10:_ZNK9CPlusPlus15TranslationUnit11isTokenizedEv
libCPlusPlus.so.10:_ZNK9CPlusPlus15TranslationUnit12commentCountEv
libCPlusPlus.so.10:_ZNK9CPlusPlus15TranslationUnit12sourceLengthEv
libCPlusPlus.so.10:_ZNK9CPlusPlus15TranslationUnit13matchingBraceEi
libCPlusPlus.so.10:_ZNK9CPlusPlus15TranslationUnit13stringLiteralEi
libCPlusPlus.so.10:_ZNK9CPlusPlus15TranslationUnit14fileNameLengthEv
libCPlusPlus.so.10:_ZNK9CPlusPlus15TranslationUnit14findLineNumberEi
libCPlusPlus.so.10:_ZNK9CPlusPlus15TranslationUnit14lastSourceCharEv
libCPlusPlus.so.10:_ZNK9CPlusPlus15TranslationUnit14numericLiteralEi
libCPlusPlus.so.10:_ZNK9CPlusPlus15TranslationUnit15firstSourceCharEv
libCPlusPlus.so.10:_ZNK9CPlusPlus15TranslationUnit16findColumnNumberEii
libCPlusPlus.so.10:_ZNK9CPlusPlus15TranslationUnit16getTokenPositionEiPiS1_PPKNS_13StringLiteralE
libCPlusPlus.so.10:_ZNK9CPlusPlus15TranslationUnit16skipFunctionBodyEv
libCPlusPlus.so.10:_ZNK9CPlusPlus15TranslationUnit19getTokenEndPositionEiPiS1_PPKNS_13StringLiteralE
libCPlusPlus.so.10:_ZNK9CPlusPlus15TranslationUnit20findPreprocessorLineEi
libCPlusPlus.so.10:_ZNK9CPlusPlus15TranslationUnit21getTokenStartPositionEiPiS1_PPKNS_13StringLiteralE
libCPlusPlus.so.10:_ZNK9CPlusPlus15TranslationUnit22findPreviousLineOffsetEi
libCPlusPlus.so.10:_ZNK9CPlusPlus15TranslationUnit26getTokenPositionInDocumentEiPK13QTextDocument
libCPlusPlus.so.10:_ZNK9CPlusPlus15TranslationUnit29getTokenEndPositionInDocumentEiPK13QTextDocument
libCPlusPlus.so.10:_ZNK9CPlusPlus15TranslationUnit3astEv
libCPlusPlus.so.10:_ZNK9CPlusPlus15TranslationUnit5spellEi
libCPlusPlus.so.10:_ZNK9CPlusPlus15TranslationUnit6fileIdEv
libCPlusPlus.so.10:_ZNK9CPlusPlus15TranslationUnit7controlEv
libCPlusPlus.so.10:_ZNK9CPlusPlus15TranslationUnit7literalEi
libCPlusPlus.so.10:_ZNK9CPlusPlus15TranslationUnit8fileNameEv
libCPlusPlus.so.10:_ZNK9CPlusPlus15TranslationUnit8isParsedEv
libCPlusPlus.so.10:_ZNK9CPlusPlus15TranslationUnit9commentAtEi
libCPlusPlus.so.10:_ZNK9CPlusPlus15UseMinimalNames5applyEPKNS_4NameEPNS_7RewriteE
libCPlusPlus.so.10:_ZNK9CPlusPlus16AnonymousNameAST5cloneEPNS_10MemoryPoolE
libCPlusPlus.so.10:_ZNK9CPlusPlus16AsmDefinitionAST10firstTokenEv
libCPlusPlus.so.10:_ZNK9CPlusPlus16AsmDefinitionAST5cloneEPNS_10MemoryPoolE
libCPlusPlus.so.10:_ZNK9CPlusPlus16AsmDefinitionAST9lastTokenEv
libCPlusPlus.so.10:_ZNK9CPlusPlus16BackwardsScanner10startTokenEv
libCPlusPlus.so.10:_ZNK9CPlusPlus16BackwardsScanner11startOfLineEi
libCPlusPlus.so.10:_ZNK9CPlusPlus16BackwardsScanner12startOfBlockEi
libCPlusPlus.so.10:_ZNK9CPlusPlus16BackwardsScanner13startPositionEv
libCPlusPlus.so.10:_ZNK9CPlusPlus16BackwardsScanner17indentationStringEi
libCPlusPlus.so.10:_ZNK9CPlusPlus16BackwardsScanner20startOfMatchingBraceEi
libCPlusPlus.so.10:_ZNK9CPlusPlus16BackwardsScanner2LAEi
libCPlusPlus.so.10:_ZNK9CPlusPlus16BackwardsScanner3midEi
libCPlusPlus.so.10:_ZNK9CPlusPlus16BackwardsScanner4sizeEv
libCPlusPlus.so.10:_ZNK9CPlusPlus16BackwardsScanner4textEi
libCPlusPlus.so.10:_ZNK9CPlusPlus16BackwardsScanner4textEv
libCPlusPlus.so.10:_ZNK9CPlusPlus16BackwardsScanner6offsetEv
libCPlusPlus.so.10:_ZNK9CPlusPlus16BackwardsScanner7textRefEi
libCPlusPlus.so.10:_ZNK9CPlusPlus16BackwardsScannerixEi
libCPlusPlus.so.10:_ZNK9CPlusPlus16BaseSpecifierAST10firstTokenEv
libCPlusPlus.so.10:_ZNK9CPlusPlus16BaseSpecifierAST5cloneEPNS_10MemoryPoolE
libCPlusPlus.so.10:_ZNK9CPlusPlus16BaseSpecifierAST9lastTokenEv
libCPlusPlus.so.10:_ZNK9CPlusPlus16CaseStatementAST10firstTokenEv
libCPlusPlus.so.10:_ZNK9CPlusPlus16CaseStatementAST5cloneEPNS_10MemoryPoolE
libCPlusPlus.so.10:_ZNK9CPlusPlus16CaseStatementAST9lastTokenEv
libCPlusPlus.so.10:_ZNK9CPlusPlus16ClassOrNamespace10templateIdEv
libCPlusPlus.so.10:_ZNK9CPlusPlus16ClassOrNamespace13unscopedEnumsEv
libCPlusPlus.so.10:_ZNK9CPlusPlus16ClassOrNamespace15globalNamespaceEv
libCPlusPlus.so.10:_ZNK9CPlusPlus16ClassOrNamespace19instantiationOriginEv
libCPlusPlus.so.10:_ZNK9CPlusPlus16ClassOrNamespace23NestedClassInstantiator13findNamedTypeEPNS_4TypeE
libCPlusPlus.so.10:_ZNK9CPlusPlus16ClassOrNamespace23NestedClassInstantiator20containsTemplateTypeEPNS_11DeclarationE
libCPlusPlus.so.10:_ZNK9CPlusPlus16ClassOrNamespace23NestedClassInstantiator20containsTemplateTypeEPNS_8FunctionE
libCPlusPlus.so.10:_ZNK9CPlusPlus16ClassOrNamespace23NestedClassInstantiator30isInstantiateNestedClassNeededERK5QListIPNS_6SymbolEE
libCPlusPlus.so.10:_ZNK9CPlusPlus16ClassOrNamespace6parentEv
libCPlusPlus.so.10:_ZNK9CPlusPlus16ClassOrNamespace6usingsEv
libCPlusPlus.so.10:_ZNK9CPlusPlus16ClassOrNamespace7symbolsEv
libCPlusPlus.so.10:_ZNK9CPlusPlus16ConversionNameId6match0EPKNS_4NameEPNS_7MatcherE
libCPlusPlus.so.10:_ZNK9CPlusPlus16ConversionNameId7accept0EPNS_11NameVisitorE
libCPlusPlus.so.10:_ZNK9CPlusPlus16DestructorNameId10identifierEv
libCPlusPlus.so.10:_ZNK9CPlusPlus16DestructorNameId4nameEv
libCPlusPlus.so.10:_ZNK9CPlusPlus16DestructorNameId6match0EPKNS_4NameEPNS_7MatcherE
libCPlusPlus.so.10:_ZNK9CPlusPlus16DestructorNameId7accept0EPNS_11NameVisitorE
libCPlusPlus.so.10:_ZNK9CPlusPlus16EnumSpecifierAST10firstTokenEv
libCPlusPlus.so.10:_ZNK9CPlusPlus16EnumSpecifierAST5cloneEPNS_10MemoryPoolE
libCPlusPlus.so.10:_ZNK9CPlusPlus16EnumSpecifierAST9lastTokenEv
libCPlusPlus.so.10:_ZNK9CPlusPlus16GotoStatementAST10firstTokenEv
libCPlusPlus.so.10:_ZNK9CPlusPlus16GotoStatementAST5cloneEPNS_10MemoryPoolE
libCPlusPlus.so.10:_ZNK9CPlusPlus16GotoStatementAST9lastTokenEv
libCPlusPlus.so.10:_ZNK9CPlusPlus16NewExpressionAST10firstTokenEv
libCPlusPlus.so.10:_ZNK9CPlusPlus16NewExpressionAST5cloneEPNS_10MemoryPoolE
libCPlusPlus.so.10:_ZNK9CPlusPlus16NewExpressionAST9lastTokenEv
libCPlusPlus.so.10:_ZNK9CPlusPlus16ObjCBaseProtocol4typeEv
libCPlusPlus.so.10:_ZNK9CPlusPlus16QtPrivateSlotAST10firstTokenEv
libCPlusPlus.so.10:_ZNK9CPlusPlus16QtPrivateSlotAST5cloneEPNS_10MemoryPoolE
libCPlusPlus.so.10:_ZNK9CPlusPlus16QtPrivateSlotAST9lastTokenEv
libCPlusPlus.so.10:_ZNK9CPlusPlus16QualifiedNameAST10firstTokenEv
libCPlusPlus.so.10:_ZNK9CPlusPlus16QualifiedNameAST5cloneEPNS_10MemoryPoolE
libCPlusPlus.so.10:_ZNK9CPlusPlus16QualifiedNameAST9lastTokenEv
libCPlusPlus.so.10:_ZNK9CPlusPlus16StringLiteralAST10firstTokenEv
libCPlusPlus.so.10:_ZNK9CPlusPlus16StringLiteralAST5cloneEPNS_10MemoryPoolE
libCPlusPlus.so.10:_ZNK9CPlusPlus16StringLiteralAST9lastTokenEv
libCPlusPlus.so.10:_ZNK9CPlusPlus16TemplateArgument5matchERKS0_PNS_7MatcherE
libCPlusPlus.so.10:_ZNK9CPlusPlus16TypeOfExpression10preprocessERK10QByteArray
libCPlusPlus.so.10:_ZNK9CPlusPlus16TypeOfExpression13expressionASTEv
libCPlusPlus.so.10:_ZNK9CPlusPlus16TypeOfExpression18processEnvironmentE14QSharedPointerINS_8DocumentEEPNS_11EnvironmentEP4QSetI7QStringE
libCPlusPlus.so.10:_ZNK9CPlusPlus16TypeOfExpression22preprocessedExpressionERK10QByteArray
libCPlusPlus.so.10:_ZNK9CPlusPlus16TypeOfExpression3astEv
libCPlusPlus.so.10:_ZNK9CPlusPlus16TypeOfExpression5scopeEv
libCPlusPlus.so.10:_ZNK9CPlusPlus16TypeOfExpression7contextEv
libCPlusPlus.so.10:_ZNK9CPlusPlus16UsingDeclaration4typeEv
libCPlusPlus.so.10:_ZNK9CPlusPlus17BreakStatementAST10firstTokenEv
libCPlusPlus.so.10:_ZNK9CPlusPlus17BreakStatementAST5cloneEPNS_10MemoryPoolE
libCPlusPlus.so.10:_ZNK9CPlusPlus17BreakStatementAST9lastTokenEv
libCPlusPlus.so.10:_ZNK9CPlusPlus17CastExpressionAST10firstTokenEv
libCPlusPlus.so.10:_ZNK9CPlusPlus17CastExpressionAST5cloneEPNS_10MemoryPoolE
libCPlusPlus.so.10:_ZNK9CPlusPlus17CastExpressionAST9lastTokenEv
libCPlusPlus.so.10:_ZNK9CPlusPlus17ClassSpecifierAST10firstTokenEv
libCPlusPlus.so.10:_ZNK9CPlusPlus17ClassSpecifierAST5cloneEPNS_10MemoryPoolE
libCPlusPlus.so.10:_ZNK9CPlusPlus17ClassSpecifierAST9lastTokenEv
libCPlusPlus.so.10:_ZNK9CPlusPlus17DestructorNameAST10firstTokenEv
libCPlusPlus.so.10:_ZNK9CPlusPlus17DestructorNameAST5cloneEPNS_10MemoryPoolE
libCPlusPlus.so.10:_ZNK9CPlusPlus17DestructorNameAST9lastTokenEv
libCPlusPlus.so.10:_ZNK9CPlusPlus17FindCdbBreakpoint7endLineEPNS_3ASTE
libCPlusPlus.so.10:_ZNK9CPlusPlus17FindCdbBreakpoint7endLineEj
libCPlusPlus.so.10:_ZNK9CPlusPlus17MemInitializerAST10firstTokenEv
libCPlusPlus.so.10:_ZNK9CPlusPlus17MemInitializerAST5cloneEPNS_10MemoryPoolE
libCPlusPlus.so.10:_ZNK9CPlusPlus17MemInitializerAST9lastTokenEv
libCPlusPlus.so.10:_ZNK9CPlusPlus17NamePrettyPrinter8overviewEv
libCPlusPlus.so.10:_ZNK9CPlusPlus17NumericLiteralAST10firstTokenEv
libCPlusPlus.so.10:_ZNK9CPlusPlus17NumericLiteralAST5cloneEPNS_10MemoryPoolE
libCPlusPlus.so.10:_ZNK9CPlusPlus17NumericLiteralAST9lastTokenEv
libCPlusPlus.so.10:_ZNK9CPlusPlus17PointerLiteralAST10firstTokenEv
libCPlusPlus.so.10:_ZNK9CPlusPlus17PointerLiteralAST5cloneEPNS_10MemoryPoolE
libCPlusPlus.so.10:_ZNK9CPlusPlus17PointerLiteralAST9lastTokenEv
libCPlusPlus.so.10:_ZNK9CPlusPlus17ResolveExpression10getMembersEPNS_16ClassOrNamespaceEPKNS_4NameE
libCPlusPlus.so.10:_ZNK9CPlusPlus17ResolveExpression11instantiateEPKNS_4NameEPNS_6SymbolE
libCPlusPlus.so.10:_ZNK9CPlusPlus17ResolveExpression14baseExpressionERK5QListINS_10LookupItemEEiPb
libCPlusPlus.so.10:_ZNK9CPlusPlus17ResolveExpression46findClassForTemplateParameterInExpressionScopeEPNS_16ClassOrNamespaceERKNS_18FullySpecifiedTypeE
libCPlusPlus.so.10:_ZNK9CPlusPlus17ResolveExpression7contextEv
libCPlusPlus.so.10:_ZNK9CPlusPlus17ResolveExpression9findClassERKNS_18FullySpecifiedTypeEPNS_5ScopeEPNS_16ClassOrNamespaceE
libCPlusPlus.so.10:_ZNK9CPlusPlus17ThisExpressionAST10firstTokenEv
libCPlusPlus.so.10:_ZNK9CPlusPlus17ThisExpressionAST5cloneEPNS_10MemoryPoolE
libCPlusPlus.so.10:_ZNK9CPlusPlus17ThisExpressionAST9lastTokenEv
libCPlusPlus.so.10:_ZNK9CPlusPlus17TypePrettyPrinter8overviewEv
libCPlusPlus.so.10:_ZNK9CPlusPlus17UsingDirectiveAST10firstTokenEv
libCPlusPlus.so.10:_ZNK9CPlusPlus17UsingDirectiveAST5cloneEPNS_10MemoryPoolE
libCPlusPlus.so.10:_ZNK9CPlusPlus17UsingDirectiveAST9lastTokenEv
libCPlusPlus.so.10:_ZNK9CPlusPlus17WhileStatementAST10firstTokenEv
libCPlusPlus.so.10:_ZNK9CPlusPlus17WhileStatementAST5cloneEPNS_10MemoryPoolE
libCPlusPlus.so.10:_ZNK9CPlusPlus17WhileStatementAST9lastTokenEv
libCPlusPlus.so.10:_ZNK9CPlusPlus18ArrayDeclaratorAST10firstTokenEv
libCPlusPlus.so.10:_ZNK9CPlusPlus18ArrayDeclaratorAST5cloneEPNS_10MemoryPoolE
libCPlusPlus.so.10:_ZNK9CPlusPlus18ArrayDeclaratorAST9lastTokenEv
libCPlusPlus.so.10:_ZNK9CPlusPlus18CompoundLiteralAST10firstTokenEv
libCPlusPlus.so.10:_ZNK9CPlusPlus18CompoundLiteralAST5cloneEPNS_10MemoryPoolE
libCPlusPlus.so.10:_ZNK9CPlusPlus18CompoundLiteralAST9lastTokenEv
libCPlusPlus.so.10:_ZNK9CPlusPlus18CtorInitializerAST10firstTokenEv
libCPlusPlus.so.10:_ZNK9CPlusPlus18CtorInitializerAST5cloneEPNS_10MemoryPoolE
libCPlusPlus.so.10:_ZNK9CPlusPlus18CtorInitializerAST9lastTokenEv
libCPlusPlus.so.10:_ZNK9CPlusPlus18FullySpecifiedType10simplifiedEv
libCPlusPlus.so.10:_ZNK9CPlusPlus18FullySpecifiedType13qualifiedTypeEv
libCPlusPlus.so.10:_ZNK9CPlusPlus18FullySpecifiedType4hashEv
libCPlusPlus.so.10:_ZNK9CPlusPlus18FullySpecifiedType5matchERKS0_PNS_7MatcherE
libCPlusPlus.so.10:_ZNK9CPlusPlus18FullySpecifiedType7isValidEv
libCPlusPlus.so.10:_ZNK9CPlusPlus18FullySpecifiedTypecvbEv
libCPlusPlus.so.10:_ZNK9CPlusPlus18FullySpecifiedTypeeqERKS0_
libCPlusPlus.so.10:_ZNK9CPlusPlus18FullySpecifiedTypeltERKS0_
libCPlusPlus.so.10:_ZNK9CPlusPlus18PointerToMemberAST10firstTokenEv
libCPlusPlus.so.10:_ZNK9CPlusPlus18PointerToMemberAST5cloneEPNS_10MemoryPoolE
libCPlusPlus.so.10:_ZNK9CPlusPlus18PointerToMemberAST9lastTokenEv
libCPlusPlus.so.10:_ZNK9CPlusPlus18QtInterfaceNameAST10firstTokenEv
libCPlusPlus.so.10:_ZNK9CPlusPlus18QtInterfaceNameAST5cloneEPNS_10MemoryPoolE
libCPlusPlus.so.10:_ZNK9CPlusPlus18QtInterfaceNameAST9lastTokenEv
libCPlusPlus.so.10:_ZNK9CPlusPlus18ReturnStatementAST10firstTokenEv
libCPlusPlus.so.10:_ZNK9CPlusPlus18ReturnStatementAST5cloneEPNS_10MemoryPoolE
libCPlusPlus.so.10:_ZNK9CPlusPlus18ReturnStatementAST9lastTokenEv
libCPlusPlus.so.10:_ZNK9CPlusPlus18SimpleSpecifierAST10firstTokenEv
libCPlusPlus.so.10:_ZNK9CPlusPlus18SimpleSpecifierAST5cloneEPNS_10MemoryPoolE
libCPlusPlus.so.10:_ZNK9CPlusPlus18SimpleSpecifierAST9lastTokenEv
libCPlusPlus.so.10:_ZNK9CPlusPlus18SwitchStatementAST10firstTokenEv
libCPlusPlus.so.10:_ZNK9CPlusPlus18SwitchStatementAST5cloneEPNS_10MemoryPoolE
libCPlusPlus.so.10:_ZNK9CPlusPlus18SwitchStatementAST9lastTokenEv
libCPlusPlus.so.10:_ZNK9CPlusPlus18ThrowExpressionAST10firstTokenEv
libCPlusPlus.so.10:_ZNK9CPlusPlus18ThrowExpressionAST5cloneEPNS_10MemoryPoolE
libCPlusPlus.so.10:_ZNK9CPlusPlus18ThrowExpressionAST9lastTokenEv
libCPlusPlus.so.10:_ZNK9CPlusPlus18TranslationUnitAST10firstTokenEv
libCPlusPlus.so.10:_ZNK9CPlusPlus18TranslationUnitAST5cloneEPNS_10MemoryPoolE
libCPlusPlus.so.10:_ZNK9CPlusPlus18TranslationUnitAST9lastTokenEv
libCPlusPlus.so.10:_ZNK9CPlusPlus18TypeofSpecifierAST10firstTokenEv
libCPlusPlus.so.10:_ZNK9CPlusPlus18TypeofSpecifierAST5cloneEPNS_10MemoryPoolE
libCPlusPlus.so.10:_ZNK9CPlusPlus18TypeofSpecifierAST9lastTokenEv
libCPlusPlus.so.10:_ZNK9CPlusPlus18UnaryExpressionAST10firstTokenEv
libCPlusPlus.so.10:_ZNK9CPlusPlus18UnaryExpressionAST5cloneEPNS_10MemoryPoolE
libCPlusPlus.so.10:_ZNK9CPlusPlus18UnaryExpressionAST9lastTokenEv
libCPlusPlus.so.10:_ZNK9CPlusPlus19AliasDeclarationAST10firstTokenEv
libCPlusPlus.so.10:_ZNK9CPlusPlus19AliasDeclarationAST5cloneEPNS_10MemoryPoolE
libCPlusPlus.so.10:_ZNK9CPlusPlus19AliasDeclarationAST9lastTokenEv
libCPlusPlus.so.10:_ZNK9CPlusPlus19ArrayInitializerAST10firstTokenEv
libCPlusPlus.so.10:_ZNK9CPlusPlus19ArrayInitializerAST5cloneEPNS_10MemoryPoolE
libCPlusPlus.so.10:_ZNK9CPlusPlus19ArrayInitializerAST9lastTokenEv
libCPlusPlus.so.10:_ZNK9CPlusPlus19BinaryExpressionAST10firstTokenEv
libCPlusPlus.so.10:_ZNK9CPlusPlus19BinaryExpressionAST5cloneEPNS_10MemoryPoolE
libCPlusPlus.so.10:_ZNK9CPlusPlus19BinaryExpressionAST9lastTokenEv
libCPlusPlus.so.10:_ZNK9CPlusPlus19CppModelManagerBase10metaObjectEv
libCPlusPlus.so.10:_ZNK9CPlusPlus19CppModelManagerBase8snapshotEv
libCPlusPlus.so.10:_ZNK9CPlusPlus19DeleteExpressionAST10firstTokenEv
libCPlusPlus.so.10:_ZNK9CPlusPlus19DeleteExpressionAST5cloneEPNS_10MemoryPoolE
libCPlusPlus.so.10:_ZNK9CPlusPlus19DeleteExpressionAST9lastTokenEv
libCPlusPlus.so.10:_ZNK9CPlusPlus19EmptyDeclarationAST10firstTokenEv
libCPlusPlus.so.10:_ZNK9CPlusPlus19EmptyDeclarationAST5cloneEPNS_10MemoryPoolE
libCPlusPlus.so.10:_ZNK9CPlusPlus19EmptyDeclarationAST9lastTokenEv
libCPlusPlus.so.10:_ZNK9CPlusPlus19ForeachStatementAST10firstTokenEv
libCPlusPlus.so.10:_ZNK9CPlusPlus19ForeachStatementAST5cloneEPNS_10MemoryPoolE
libCPlusPlus.so.10:_ZNK9CPlusPlus19ForeachStatementAST9lastTokenEv
libCPlusPlus.so.10:_ZNK9CPlusPlus19LabeledStatementAST10firstTokenEv
libCPlusPlus.so.10:_ZNK9CPlusPlus19LabeledStatementAST5cloneEPNS_10MemoryPoolE
libCPlusPlus.so.10:_ZNK9CPlusPlus19LabeledStatementAST9lastTokenEv
libCPlusPlus.so.10:_ZNK9CPlusPlus19NestedDeclaratorAST10firstTokenEv
libCPlusPlus.so.10:_ZNK9CPlusPlus19NestedDeclaratorAST5cloneEPNS_10MemoryPoolE
libCPlusPlus.so.10:_ZNK9CPlusPlus19NestedDeclaratorAST9lastTokenEv
libCPlusPlus.so.10:_ZNK9CPlusPlus19NestedExpressionAST10firstTokenEv
libCPlusPlus.so.10:_ZNK9CPlusPlus19NestedExpressionAST5cloneEPNS_10MemoryPoolE
libCPlusPlus.so.10:_ZNK9CPlusPlus19NestedExpressionAST9lastTokenEv
libCPlusPlus.so.10:_ZNK9CPlusPlus19ObjCProtocolRefsAST10firstTokenEv
libCPlusPlus.so.10:_ZNK9CPlusPlus19ObjCProtocolRefsAST5cloneEPNS_10MemoryPoolE
libCPlusPlus.so.10:_ZNK9CPlusPlus19ObjCProtocolRefsAST9lastTokenEv
libCPlusPlus.so.10:_ZNK9CPlusPlus19PointerToMemberType6match0EPKNS_4TypeEPNS_7MatcherE
libCPlusPlus.so.10:_ZNK9CPlusPlus19SizeofExpressionAST10firstTokenEv
libCPlusPlus.so.10:_ZNK9CPlusPlus19SizeofExpressionAST5cloneEPNS_10MemoryPoolE
libCPlusPlus.so.10:_ZNK9CPlusPlus19SizeofExpressionAST9lastTokenEv
libCPlusPlus.so.10:_ZNK9CPlusPlus19TypeidExpressionAST10firstTokenEv
libCPlusPlus.so.10:_ZNK9CPlusPlus19TypeidExpressionAST5cloneEPNS_10MemoryPoolE
libCPlusPlus.so.10:_ZNK9CPlusPlus19TypeidExpressionAST9lastTokenEv
libCPlusPlus.so.10:_ZNK9CPlusPlus20AccessDeclarationAST10firstTokenEv
libCPlusPlus.so.10:_ZNK9CPlusPlus20AccessDeclarationAST5cloneEPNS_10MemoryPoolE
libCPlusPlus.so.10:_ZNK9CPlusPlus20AccessDeclarationAST9lastTokenEv
libCPlusPlus.so.10:_ZNK9CPlusPlus20AlignofExpressionAST10firstTokenEv
libCPlusPlus.so.10:_ZNK9CPlusPlus20AlignofExpressionAST5cloneEPNS_10MemoryPoolE
libCPlusPlus.so.10:_ZNK9CPlusPlus20AlignofExpressionAST9lastTokenEv
libCPlusPlus.so.10:_ZNK9CPlusPlus20CompoundStatementAST10firstTokenEv
libCPlusPlus.so.10:_ZNK9CPlusPlus20CompoundStatementAST5cloneEPNS_10MemoryPoolE
libCPlusPlus.so.10:_ZNK9CPlusPlus20CompoundStatementAST9lastTokenEv
libCPlusPlus.so.10:_ZNK9CPlusPlus20ContinueStatementAST10firstTokenEv
libCPlusPlus.so.10:_ZNK9CPlusPlus20ContinueStatementAST5cloneEPNS_10MemoryPoolE
libCPlusPlus.so.10:_ZNK9CPlusPlus20ContinueStatementAST9lastTokenEv
libCPlusPlus.so.10:_ZNK9CPlusPlus20CppCastExpressionAST10firstTokenEv
libCPlusPlus.so.10:_ZNK9CPlusPlus20CppCastExpressionAST5cloneEPNS_10MemoryPoolE
libCPlusPlus.so.10:_ZNK9CPlusPlus20CppCastExpressionAST9lastTokenEv
libCPlusPlus.so.10:_ZNK9CPlusPlus20DecltypeSpecifierAST10firstTokenEv
libCPlusPlus.so.10:_ZNK9CPlusPlus20DecltypeSpecifierAST5cloneEPNS_10MemoryPoolE
libCPlusPlus.so.10:_ZNK9CPlusPlus20DecltypeSpecifierAST9lastTokenEv
libCPlusPlus.so.10:_ZNK9CPlusPlus20QtEnumDeclarationAST10firstTokenEv
libCPlusPlus.so.10:_ZNK9CPlusPlus20QtEnumDeclarationAST5cloneEPNS_10MemoryPoolE
libCPlusPlus.so.10:_ZNK9CPlusPlus20QtEnumDeclarationAST9lastTokenEv
libCPlusPlus.so.10:_ZNK9CPlusPlus20SimpleDeclarationAST10firstTokenEv
libCPlusPlus.so.10:_ZNK9CPlusPlus20SimpleDeclarationAST5cloneEPNS_10MemoryPoolE
libCPlusPlus.so.10:_ZNK9CPlusPlus20SimpleDeclarationAST9lastTokenEv
libCPlusPlus.so.10:_ZNK9CPlusPlus20TryBlockStatementAST10firstTokenEv
libCPlusPlus.so.10:_ZNK9CPlusPlus20TryBlockStatementAST5cloneEPNS_10MemoryPoolE
libCPlusPlus.so.10:_ZNK9CPlusPlus20TryBlockStatementAST9lastTokenEv
libCPlusPlus.so.10:_ZNK9CPlusPlus21AlignmentSpecifierAST10firstTokenEv
libCPlusPlus.so.10:_ZNK9CPlusPlus21AlignmentSpecifierAST5cloneEPNS_10MemoryPoolE
libCPlusPlus.so.10:_ZNK9CPlusPlus21AlignmentSpecifierAST9lastTokenEv
libCPlusPlus.so.10:_ZNK9CPlusPlus21CompoundExpressionAST10firstTokenEv
libCPlusPlus.so.10:_ZNK9CPlusPlus21CompoundExpressionAST5cloneEPNS_10MemoryPoolE
libCPlusPlus.so.10:_ZNK9CPlusPlus21CompoundExpressionAST9lastTokenEv
libCPlusPlus.so.10:_ZNK9CPlusPlus21ExpressionUnderCursor19startOfFunctionCallERK11QTextCursor
libCPlusPlus.so.10:_ZNK9CPlusPlus21FunctionDeclaratorAST10firstTokenEv
libCPlusPlus.so.10:_ZNK9CPlusPlus21FunctionDeclaratorAST5cloneEPNS_10MemoryPoolE
libCPlusPlus.so.10:_ZNK9CPlusPlus21FunctionDeclaratorAST9lastTokenEv
libCPlusPlus.so.10:_ZNK9CPlusPlus21FunctionDefinitionAST10firstTokenEv
libCPlusPlus.so.10:_ZNK9CPlusPlus21FunctionDefinitionAST5cloneEPNS_10MemoryPoolE
libCPlusPlus.so.10:_ZNK9CPlusPlus21FunctionDefinitionAST9lastTokenEv
libCPlusPlus.so.10:_ZNK9CPlusPlus21NamedTypeSpecifierAST10firstTokenEv
libCPlusPlus.so.10:_ZNK9CPlusPlus21NamedTypeSpecifierAST5cloneEPNS_10MemoryPoolE
libCPlusPlus.so.10:_ZNK9CPlusPlus21NamedTypeSpecifierAST9lastTokenEv
libCPlusPlus.so.10:_ZNK9CPlusPlus21NewArrayDeclaratorAST10firstTokenEv
libCPlusPlus.so.10:_ZNK9CPlusPlus21NewArrayDeclaratorAST5cloneEPNS_10MemoryPoolE
libCPlusPlus.so.10:_ZNK9CPlusPlus21NewArrayDeclaratorAST9lastTokenEv
libCPlusPlus.so.10:_ZNK9CPlusPlus21OperatorFunctionIdAST10firstTokenEv
libCPlusPlus.so.10:_ZNK9CPlusPlus21OperatorFunctionIdAST5cloneEPNS_10MemoryPoolE
libCPlusPlus.so.10:_ZNK9CPlusPlus21OperatorFunctionIdAST9lastTokenEv
libCPlusPlus.so.10:_ZNK9CPlusPlus21QtFlagsDeclarationAST10firstTokenEv
libCPlusPlus.so.10:_ZNK9CPlusPlus21QtFlagsDeclarationAST5cloneEPNS_10MemoryPoolE
libCPlusPlus.so.10:_ZNK9CPlusPlus21QtFlagsDeclarationAST9lastTokenEv
libCPlusPlus.so.10:_ZNK9CPlusPlus22ExpressionListParenAST10firstTokenEv
libCPlusPlus.so.10:_ZNK9CPlusPlus22ExpressionListParenAST5cloneEPNS_10MemoryPoolE
libCPlusPlus.so.10:_ZNK9CPlusPlus22ExpressionListParenAST9lastTokenEv
libCPlusPlus.so.10:_ZNK9CPlusPlus22ExpressionStatementAST10firstTokenEv
libCPlusPlus.so.10:_ZNK9CPlusPlus22ExpressionStatementAST5cloneEPNS_10MemoryPoolE
libCPlusPlus.so.10:_ZNK9CPlusPlus22ExpressionStatementAST9lastTokenEv
libCPlusPlus.so.10:_ZNK9CPlusPlus22NestedNameSpecifierAST10firstTokenEv
libCPlusPlus.so.10:_ZNK9CPlusPlus22NestedNameSpecifierAST5cloneEPNS_10MemoryPoolE
libCPlusPlus.so.10:_ZNK9CPlusPlus22NestedNameSpecifierAST9lastTokenEv
libCPlusPlus.so.10:_ZNK9CPlusPlus22ObjCFastEnumerationAST10firstTokenEv
libCPlusPlus.so.10:_ZNK9CPlusPlus22ObjCFastEnumerationAST5cloneEPNS_10MemoryPoolE
libCPlusPlus.so.10:_ZNK9CPlusPlus22ObjCFastEnumerationAST9lastTokenEv
libCPlusPlus.so.10:_ZNK9CPlusPlus22ObjCMessageArgumentAST10firstTokenEv
libCPlusPlus.so.10:_ZNK9CPlusPlus22ObjCMessageArgumentAST5cloneEPNS_10MemoryPoolE
libCPlusPlus.so.10:_ZNK9CPlusPlus22ObjCMessageArgumentAST9lastTokenEv
libCPlusPlus.so.10:_ZNK9CPlusPlus22ObjCMethodPrototypeAST10firstTokenEv
libCPlusPlus.so.10:_ZNK9CPlusPlus22ObjCMethodPrototypeAST5cloneEPNS_10MemoryPoolE
libCPlusPlus.so.10:_ZNK9CPlusPlus22ObjCMethodPrototypeAST9lastTokenEv
libCPlusPlus.so.10:_ZNK9CPlusPlus22QtMemberDeclarationAST10firstTokenEv
libCPlusPlus.so.10:_ZNK9CPlusPlus22QtMemberDeclarationAST5cloneEPNS_10MemoryPoolE
libCPlusPlus.so.10:_ZNK9CPlusPlus22QtMemberDeclarationAST9lastTokenEv
libCPlusPlus.so.10:_ZNK9CPlusPlus22TemplateDeclarationAST10firstTokenEv
libCPlusPlus.so.10:_ZNK9CPlusPlus22TemplateDeclarationAST5cloneEPNS_10MemoryPoolE
libCPlusPlus.so.10:_ZNK9CPlusPlus22TemplateDeclarationAST9lastTokenEv
libCPlusPlus.so.10:_ZNK9CPlusPlus22TypeConstructorCallAST10firstTokenEv
libCPlusPlus.so.10:_ZNK9CPlusPlus22TypeConstructorCallAST5cloneEPNS_10MemoryPoolE
libCPlusPlus.so.10:_ZNK9CPlusPlus22TypeConstructorCallAST9lastTokenEv
libCPlusPlus.so.10:_ZNK9CPlusPlus23ConversionFunctionIdAST10firstTokenEv
libCPlusPlus.so.10:_ZNK9CPlusPlus23ConversionFunctionIdAST5cloneEPNS_10MemoryPoolE
libCPlusPlus.so.10:_ZNK9CPlusPlus23ConversionFunctionIdAST9lastTokenEv
libCPlusPlus.so.10:_ZNK9CPlusPlus23DeclarationStatementAST10firstTokenEv
libCPlusPlus.so.10:_ZNK9CPlusPlus23DeclarationStatementAST5cloneEPNS_10MemoryPoolE
libCPlusPlus.so.10:_ZNK9CPlusPlus23DeclarationStatementAST9lastTokenEv
libCPlusPlus.so.10:_ZNK9CPlusPlus23ExceptionDeclarationAST10firstTokenEv
libCPlusPlus.so.10:_ZNK9CPlusPlus23ExceptionDeclarationAST5cloneEPNS_10MemoryPoolE
libCPlusPlus.so.10:_ZNK9CPlusPlus23ExceptionDeclarationAST9lastTokenEv
libCPlusPlus.so.10:_ZNK9CPlusPlus23ForwardClassDeclaration4typeEv
libCPlusPlus.so.10:_ZNK9CPlusPlus23ForwardClassDeclaration6match0EPKNS_4TypeEPNS_7MatcherE
libCPlusPlus.so.10:_ZNK9CPlusPlus23LinkageSpecificationAST10firstTokenEv
libCPlusPlus.so.10:_ZNK9CPlusPlus23LinkageSpecificationAST5cloneEPNS_10MemoryPoolE
libCPlusPlus.so.10:_ZNK9CPlusPlus23LinkageSpecificationAST9lastTokenEv
libCPlusPlus.so.10:_ZNK9CPlusPlus23ObjCClassDeclarationAST10firstTokenEv
libCPlusPlus.so.10:_ZNK9CPlusPlus23ObjCClassDeclarationAST5cloneEPNS_10MemoryPoolE
libCPlusPlus.so.10:_ZNK9CPlusPlus23ObjCClassDeclarationAST9lastTokenEv
libCPlusPlus.so.10:_ZNK9CPlusPlus23ObjCEncodeExpressionAST10firstTokenEv
libCPlusPlus.so.10:_ZNK9CPlusPlus23ObjCEncodeExpressionAST5cloneEPNS_10MemoryPoolE
libCPlusPlus.so.10:_ZNK9CPlusPlus23ObjCEncodeExpressionAST9lastTokenEv
libCPlusPlus.so.10:_ZNK9CPlusPlus23ObjCSelectorArgumentAST10firstTokenEv
libCPlusPlus.so.10:_ZNK9CPlusPlus23ObjCSelectorArgumentAST5cloneEPNS_10MemoryPoolE
libCPlusPlus.so.10:_ZNK9CPlusPlus23ObjCSelectorArgumentAST9lastTokenEv
libCPlusPlus.so.10:_ZNK9CPlusPlus23ParameterDeclarationAST10firstTokenEv
libCPlusPlus.so.10:_ZNK9CPlusPlus23ParameterDeclarationAST5cloneEPNS_10MemoryPoolE
libCPlusPlus.so.10:_ZNK9CPlusPlus23ParameterDeclarationAST9lastTokenEv
libCPlusPlus.so.10:_ZNK9CPlusPlus23SubstitutionEnvironment5applyEPKNS_4NameEPNS_7RewriteE
libCPlusPlus.so.10:_ZNK9CPlusPlus23SubstitutionEnvironment5scopeEv
libCPlusPlus.so.10:_ZNK9CPlusPlus23SubstitutionEnvironment7contextEv
libCPlusPlus.so.10:_ZNK9CPlusPlus23UsingNamespaceDirective4typeEv
libCPlusPlus.so.10:_ZNK9CPlusPlus24ConditionalExpressionAST10firstTokenEv
libCPlusPlus.so.10:_ZNK9CPlusPlus24ConditionalExpressionAST5cloneEPNS_10MemoryPoolE
libCPlusPlus.so.10:_ZNK9CPlusPlus24ConditionalExpressionAST9lastTokenEv
libCPlusPlus.so.10:_ZNK9CPlusPlus24GnuAttributeSpecifierAST10firstTokenEv
libCPlusPlus.so.10:_ZNK9CPlusPlus24GnuAttributeSpecifierAST5cloneEPNS_10MemoryPoolE
libCPlusPlus.so.10:_ZNK9CPlusPlus24GnuAttributeSpecifierAST9lastTokenEv
libCPlusPlus.so.10:_ZNK9CPlusPlus24MsvcDeclspecSpecifierAST10firstTokenEv
libCPlusPlus.so.10:_ZNK9CPlusPlus24MsvcDeclspecSpecifierAST5cloneEPNS_10MemoryPoolE
libCPlusPlus.so.10:_ZNK9CPlusPlus24MsvcDeclspecSpecifierAST9lastTokenEv
libCPlusPlus.so.10:_ZNK9CPlusPlus24NoExceptSpecificationAST10firstTokenEv
libCPlusPlus.so.10:_ZNK9CPlusPlus24NoExceptSpecificationAST5cloneEPNS_10MemoryPoolE
libCPlusPlus.so.10:_ZNK9CPlusPlus24NoExceptSpecificationAST9lastTokenEv
libCPlusPlus.so.10:_ZNK9CPlusPlus24ObjCMessageExpressionAST10firstTokenEv
libCPlusPlus.so.10:_ZNK9CPlusPlus24ObjCMessageExpressionAST5cloneEPNS_10MemoryPoolE
libCPlusPlus.so.10:_ZNK9CPlusPlus24ObjCMessageExpressionAST9lastTokenEv
libCPlusPlus.so.10:_ZNK9CPlusPlus24ObjCMethodDeclarationAST10firstTokenEv
libCPlusPlus.so.10:_ZNK9CPlusPlus24ObjCMethodDeclarationAST5cloneEPNS_10MemoryPoolE
libCPlusPlus.so.10:_ZNK9CPlusPlus24ObjCMethodDeclarationAST9lastTokenEv
libCPlusPlus.so.10:_ZNK9CPlusPlus24ObjCPropertyAttributeAST10firstTokenEv
libCPlusPlus.so.10:_ZNK9CPlusPlus24ObjCPropertyAttributeAST5cloneEPNS_10MemoryPoolE
libCPlusPlus.so.10:_ZNK9CPlusPlus24ObjCPropertyAttributeAST9lastTokenEv
libCPlusPlus.so.10:_ZNK9CPlusPlus24QtPropertyDeclarationAST10firstTokenEv
libCPlusPlus.so.10:_ZNK9CPlusPlus24QtPropertyDeclarationAST5cloneEPNS_10MemoryPoolE
libCPlusPlus.so.10:_ZNK9CPlusPlus24QtPropertyDeclarationAST9lastTokenEv
libCPlusPlus.so.10:_ZNK9CPlusPlus24StdAttributeSpecifierAST10firstTokenEv
libCPlusPlus.so.10:_ZNK9CPlusPlus24StdAttributeSpecifierAST5cloneEPNS_10MemoryPoolE
libCPlusPlus.so.10:_ZNK9CPlusPlus24StdAttributeSpecifierAST9lastTokenEv
libCPlusPlus.so.10:_ZNK9CPlusPlus24TemplateTypeParameterAST10firstTokenEv
libCPlusPlus.so.10:_ZNK9CPlusPlus24TemplateTypeParameterAST5cloneEPNS_10MemoryPoolE
libCPlusPlus.so.10:_ZNK9CPlusPlus24TemplateTypeParameterAST9lastTokenEv
libCPlusPlus.so.10:_ZNK9CPlusPlus24TypenameTypeParameterAST10firstTokenEv
libCPlusPlus.so.10:_ZNK9CPlusPlus24TypenameTypeParameterAST5cloneEPNS_10MemoryPoolE
libCPlusPlus.so.10:_ZNK9CPlusPlus24TypenameTypeParameterAST9lastTokenEv
libCPlusPlus.so.10:_ZNK9CPlusPlus25ObjCProtocolExpressionAST10firstTokenEv
libCPlusPlus.so.10:_ZNK9CPlusPlus25ObjCProtocolExpressionAST5cloneEPNS_10MemoryPoolE
libCPlusPlus.so.10:_ZNK9CPlusPlus25ObjCProtocolExpressionAST9lastTokenEv
libCPlusPlus.so.10:_ZNK9CPlusPlus25ObjCSelectorExpressionAST10firstTokenEv
libCPlusPlus.so.10:_ZNK9CPlusPlus25ObjCSelectorExpressionAST5cloneEPNS_10MemoryPoolE
libCPlusPlus.so.10:_ZNK9CPlusPlus25ObjCSelectorExpressionAST9lastTokenEv
libCPlusPlus.so.10:_ZNK9CPlusPlus25RangeBasedForStatementAST10firstTokenEv
libCPlusPlus.so.10:_ZNK9CPlusPlus25RangeBasedForStatementAST5cloneEPNS_10MemoryPoolE
libCPlusPlus.so.10:_ZNK9CPlusPlus25RangeBasedForStatementAST9lastTokenEv
libCPlusPlus.so.10:_ZNK9CPlusPlus25TypenameCallExpressionAST10firstTokenEv
libCPlusPlus.so.10:_ZNK9CPlusPlus25TypenameCallExpressionAST5cloneEPNS_10MemoryPoolE
libCPlusPlus.so.10:_ZNK9CPlusPlus25TypenameCallExpressionAST9lastTokenEv
libCPlusPlus.so.10:_ZNK9CPlusPlus26DecompositionDeclaratorAST5cloneEPNS_10MemoryPoolE
libCPlusPlus.so.10:_ZNK9CPlusPlus26ElaboratedTypeSpecifierAST10firstTokenEv
libCPlusPlus.so.10:_ZNK9CPlusPlus26ElaboratedTypeSpecifierAST5cloneEPNS_10MemoryPoolE
libCPlusPlus.so.10:_ZNK9CPlusPlus26ElaboratedTypeSpecifierAST9lastTokenEv
libCPlusPlus.so.10:_ZNK9CPlusPlus26ObjCPropertyDeclarationAST10firstTokenEv
libCPlusPlus.so.10:_ZNK9CPlusPlus26ObjCPropertyDeclarationAST5cloneEPNS_10MemoryPoolE
libCPlusPlus.so.10:_ZNK9CPlusPlus26ObjCPropertyDeclarationAST9lastTokenEv
libCPlusPlus.so.10:_ZNK9CPlusPlus26ObjCProtocolDeclarationAST10firstTokenEv
libCPlusPlus.so.10:_ZNK9CPlusPlus26ObjCProtocolDeclarationAST5cloneEPNS_10MemoryPoolE
libCPlusPlus.so.10:_ZNK9CPlusPlus26ObjCProtocolDeclarationAST9lastTokenEv
libCPlusPlus.so.10:_ZNK9CPlusPlus26ObjCSynthesizedPropertyAST10firstTokenEv
libCPlusPlus.so.10:_ZNK9CPlusPlus26ObjCSynthesizedPropertyAST5cloneEPNS_10MemoryPoolE
libCPlusPlus.so.10:_ZNK9CPlusPlus26ObjCSynthesizedPropertyAST9lastTokenEv
libCPlusPlus.so.10:_ZNK9CPlusPlus26QtInterfacesDeclarationAST10firstTokenEv
libCPlusPlus.so.10:_ZNK9CPlusPlus26QtInterfacesDeclarationAST5cloneEPNS_10MemoryPoolE
libCPlusPlus.so.10:_ZNK9CPlusPlus26QtInterfacesDeclarationAST9lastTokenEv
libCPlusPlus.so.10:_ZNK9CPlusPlus26StaticAssertDeclarationAST10firstTokenEv
libCPlusPlus.so.10:_ZNK9CPlusPlus26StaticAssertDeclarationAST5cloneEPNS_10MemoryPoolE
libCPlusPlus.so.10:_ZNK9CPlusPlus26StaticAssertDeclarationAST9lastTokenEv
libCPlusPlus.so.10:_ZNK9CPlusPlus27NamespaceAliasDefinitionAST10firstTokenEv
libCPlusPlus.so.10:_ZNK9CPlusPlus27NamespaceAliasDefinitionAST5cloneEPNS_10MemoryPoolE
libCPlusPlus.so.10:_ZNK9CPlusPlus27NamespaceAliasDefinitionAST9lastTokenEv
libCPlusPlus.so.10:_ZNK9CPlusPlus27ObjCForwardClassDeclaration4typeEv
libCPlusPlus.so.10:_ZNK9CPlusPlus27ObjCForwardClassDeclaration6match0EPKNS_4TypeEPNS_7MatcherE
libCPlusPlus.so.10:_ZNK9CPlusPlus28ObjCSynchronizedStatementAST10firstTokenEv
libCPlusPlus.so.10:_ZNK9CPlusPlus28ObjCSynchronizedStatementAST5cloneEPNS_10MemoryPoolE
libCPlusPlus.so.10:_ZNK9CPlusPlus28ObjCSynchronizedStatementAST9lastTokenEv
libCPlusPlus.so.10:_ZNK9CPlusPlus28ObjCVisibilityDeclarationAST10firstTokenEv
libCPlusPlus.so.10:_ZNK9CPlusPlus28ObjCVisibilityDeclarationAST5cloneEPNS_10MemoryPoolE
libCPlusPlus.so.10:_ZNK9CPlusPlus28ObjCVisibilityDeclarationAST9lastTokenEv
libCPlusPlus.so.10:_ZNK9CPlusPlus29NoExceptOperatorExpressionAST10firstTokenEv
libCPlusPlus.so.10:_ZNK9CPlusPlus29NoExceptOperatorExpressionAST5cloneEPNS_10MemoryPoolE
libCPlusPlus.so.10:_ZNK9CPlusPlus29NoExceptOperatorExpressionAST9lastTokenEv
libCPlusPlus.so.10:_ZNK9CPlusPlus29ParameterDeclarationClauseAST10firstTokenEv
libCPlusPlus.so.10:_ZNK9CPlusPlus29ParameterDeclarationClauseAST5cloneEPNS_10MemoryPoolE
libCPlusPlus.so.10:_ZNK9CPlusPlus29ParameterDeclarationClauseAST9lastTokenEv
libCPlusPlus.so.10:_ZNK9CPlusPlus30ObjCClassForwardDeclarationAST10firstTokenEv
libCPlusPlus.so.10:_ZNK9CPlusPlus30ObjCClassForwardDeclarationAST5cloneEPNS_10MemoryPoolE
libCPlusPlus.so.10:_ZNK9CPlusPlus30ObjCClassForwardDeclarationAST9lastTokenEv
libCPlusPlus.so.10:_ZNK9CPlusPlus30ObjCForwardProtocolDeclaration4typeEv
libCPlusPlus.so.10:_ZNK9CPlusPlus30ObjCForwardProtocolDeclaration6match0EPKNS_4TypeEPNS_7MatcherE
libCPlusPlus.so.10:_ZNK9CPlusPlus32DynamicExceptionSpecificationAST10firstTokenEv
libCPlusPlus.so.10:_ZNK9CPlusPlus32DynamicExceptionSpecificationAST5cloneEPNS_10MemoryPoolE
libCPlusPlus.so.10:_ZNK9CPlusPlus32DynamicExceptionSpecificationAST9lastTokenEv
libCPlusPlus.so.10:_ZNK9CPlusPlus33ObjCMessageArgumentDeclarationAST10firstTokenEv
libCPlusPlus.so.10:_ZNK9CPlusPlus33ObjCMessageArgumentDeclarationAST5cloneEPNS_10MemoryPoolE
libCPlusPlus.so.10:_ZNK9CPlusPlus33ObjCMessageArgumentDeclarationAST9lastTokenEv
libCPlusPlus.so.10:_ZNK9CPlusPlus33ObjCProtocolForwardDeclarationAST10firstTokenEv
libCPlusPlus.so.10:_ZNK9CPlusPlus33ObjCProtocolForwardDeclarationAST5cloneEPNS_10MemoryPoolE
libCPlusPlus.so.10:_ZNK9CPlusPlus33ObjCProtocolForwardDeclarationAST9lastTokenEv
libCPlusPlus.so.10:_ZNK9CPlusPlus35ExpressionOrDeclarationStatementAST10firstTokenEv
libCPlusPlus.so.10:_ZNK9CPlusPlus35ExpressionOrDeclarationStatementAST5cloneEPNS_10MemoryPoolE
libCPlusPlus.so.10:_ZNK9CPlusPlus35ExpressionOrDeclarationStatementAST9lastTokenEv
libCPlusPlus.so.10:_ZNK9CPlusPlus35ObjCDynamicPropertiesDeclarationAST10firstTokenEv
libCPlusPlus.so.10:_ZNK9CPlusPlus35ObjCDynamicPropertiesDeclarationAST5cloneEPNS_10MemoryPoolE
libCPlusPlus.so.10:_ZNK9CPlusPlus35ObjCDynamicPropertiesDeclarationAST9lastTokenEv
libCPlusPlus.so.10:_ZNK9CPlusPlus35ObjCInstanceVariablesDeclarationAST10firstTokenEv
libCPlusPlus.so.10:_ZNK9CPlusPlus35ObjCInstanceVariablesDeclarationAST5cloneEPNS_10MemoryPoolE
libCPlusPlus.so.10:_ZNK9CPlusPlus35ObjCInstanceVariablesDeclarationAST9lastTokenEv
libCPlusPlus.so.10:_ZNK9CPlusPlus39ObjCSynthesizedPropertiesDeclarationAST10firstTokenEv
libCPlusPlus.so.10:_ZNK9CPlusPlus39ObjCSynthesizedPropertiesDeclarationAST5cloneEPNS_10MemoryPoolE
libCPlusPlus.so.10:_ZNK9CPlusPlus39ObjCSynthesizedPropertiesDeclarationAST9lastTokenEv
libCPlusPlus.so.10:_ZNK9CPlusPlus4Bind18skipFunctionBodiesEv
libCPlusPlus.so.10:_ZNK9CPlusPlus4Bind19calculateScopeStartEPNS_23ObjCClassDeclarationASTE
libCPlusPlus.so.10:_ZNK9CPlusPlus4Bind19calculateScopeStartEPNS_26ObjCProtocolDeclarationASTE
libCPlusPlus.so.10:_ZNK9CPlusPlus4Bind8locationEPNS_13DeclaratorASTEi
libCPlusPlus.so.10:_ZNK9CPlusPlus4Bind8locationEPNS_17CoreDeclaratorASTEi
libCPlusPlus.so.10:_ZNK9CPlusPlus4Bind8locationEPNS_7NameASTEi
libCPlusPlus.so.10:_ZNK9CPlusPlus4Enum4typeEv
libCPlusPlus.so.10:_ZNK9CPlusPlus4Enum6match0EPKNS_4TypeEPNS_7MatcherE
libCPlusPlus.so.10:_ZNK9CPlusPlus4Name4HashclEPKS0_
libCPlusPlus.so.10:_ZNK9CPlusPlus4Name5matchEPKS0_PNS_7MatcherE
libCPlusPlus.so.10:_ZNK9CPlusPlus4Name6EqualsclEPKS0_S3_
libCPlusPlus.so.10:_ZNK9CPlusPlus4Name6acceptEPNS_11NameVisitorE
libCPlusPlus.so.10:_ZNK9CPlusPlus4Type15isUndefinedTypeEv
libCPlusPlus.so.10:_ZNK9CPlusPlus4Type5matchEPKS0_PNS_7MatcherE
libCPlusPlus.so.10:_ZNK9CPlusPlus5Block4typeEv
libCPlusPlus.so.10:_ZNK9CPlusPlus5Class11baseClassAtEi
libCPlusPlus.so.10:_ZNK9CPlusPlus5Class14baseClassCountEv
libCPlusPlus.so.10:_ZNK9CPlusPlus5Class4typeEv
libCPlusPlus.so.10:_ZNK9CPlusPlus5Class6match0EPKNS_4TypeEPNS_7MatcherE
libCPlusPlus.so.10:_ZNK9CPlusPlus5Lexer12scanKeywordsEv
libCPlusPlus.so.10:_ZNK9CPlusPlus5Lexer17scanCommentTokensEv
libCPlusPlus.so.10:_ZNK9CPlusPlus5Lexer5stateEv
libCPlusPlus.so.10:_ZNK9CPlusPlus5Macro13decoratedNameEv
libCPlusPlus.so.10:_ZNK9CPlusPlus5Macro22toStringWithLineBreaksEv
libCPlusPlus.so.10:_ZNK9CPlusPlus5Macro8toStringEv
libCPlusPlus.so.10:_ZNK9CPlusPlus5Scope11memberBeginEv
libCPlusPlus.so.10:_ZNK9CPlusPlus5Scope11memberCountEv
libCPlusPlus.so.10:_ZNK9CPlusPlus5Scope4findENS_14OperatorNameId4KindE
libCPlusPlus.so.10:_ZNK9CPlusPlus5Scope4findEPKNS_10IdentifierE
libCPlusPlus.so.10:_ZNK9CPlusPlus5Scope4findEPKNS_16ConversionNameIdE
libCPlusPlus.so.10:_ZNK9CPlusPlus5Scope7isEmptyEv
libCPlusPlus.so.10:_ZNK9CPlusPlus5Scope8memberAtEi
libCPlusPlus.so.10:_ZNK9CPlusPlus5Scope9memberEndEv
libCPlusPlus.so.10:_ZNK9CPlusPlus5Subst5applyEPKNS_4NameE
libCPlusPlus.so.10:_ZNK9CPlusPlus5Token5spellEv
libCPlusPlus.so.10:_ZNK9CPlusPlus6Parser10identifierEPNS_7NameASTE
libCPlusPlus.so.10:_ZNK9CPlusPlus6Parser14lookAtClassKeyEv
libCPlusPlus.so.10:_ZNK9CPlusPlus6Parser17isNestedNamespaceEv
libCPlusPlus.so.10:_ZNK9CPlusPlus6Parser17lookAtCVQualifierEv
libCPlusPlus.so.10:_ZNK9CPlusPlus6Parser18lookAtObjCSelectorEv
libCPlusPlus.so.10:_ZNK9CPlusPlus6Parser18lookAtStdAttributeEv
libCPlusPlus.so.10:_ZNK9CPlusPlus6Parser22peekAtQtContextKeywordEv
libCPlusPlus.so.10:_ZNK9CPlusPlus6Parser23lookAtFunctionSpecifierEv
libCPlusPlus.so.10:_ZNK9CPlusPlus6Parser26lookAtBuiltinTypeSpecifierEv
libCPlusPlus.so.10:_ZNK9CPlusPlus6Parser27lookAtStorageClassSpecifierEv
libCPlusPlus.so.10:_ZNK9CPlusPlus6Parser30maybeForwardOrClassDeclarationEPNS_4ListIPNS_12SpecifierASTEEE
libCPlusPlus.so.10:_ZNK9CPlusPlus6Parser7hasAutoEPNS_4ListIPNS_12SpecifierASTEEE
libCPlusPlus.so.10:_ZNK9CPlusPlus6Parser9classNameEPNS_17ClassSpecifierASTE
libCPlusPlus.so.10:_ZNK9CPlusPlus6Symbol10identifierEv
libCPlusPlus.so.10:_ZNK9CPlusPlus6Symbol13enclosingEnumEv
libCPlusPlus.so.10:_ZNK9CPlusPlus6Symbol14enclosingBlockEv
libCPlusPlus.so.10:_ZNK9CPlusPlus6Symbol14enclosingClassEv
libCPlusPlus.so.10:_ZNK9CPlusPlus6Symbol14fileNameLengthEv
libCPlusPlus.so.10:_ZNK9CPlusPlus6Symbol15unqualifiedNameEv
libCPlusPlus.so.10:_ZNK9CPlusPlus6Symbol17enclosingFunctionEv
libCPlusPlus.so.10:_ZNK9CPlusPlus6Symbol17enclosingTemplateEv
libCPlusPlus.so.10:_ZNK9CPlusPlus6Symbol18enclosingNamespaceEv
libCPlusPlus.so.10:_ZNK9CPlusPlus6Symbol6toLinkEv
libCPlusPlus.so.10:_ZNK9CPlusPlus6Symbol8fileNameEv
libCPlusPlus.so.10:_ZNK9CPlusPlus6Symbol8filePathEv
libCPlusPlus.so.10:_ZNK9CPlusPlus7ASTPath21lastNonGeneratedTokenEPNS_3ASTE
libCPlusPlus.so.10:_ZNK9CPlusPlus7ASTPath22firstNonGeneratedTokenEPNS_3ASTE
libCPlusPlus.so.10:_ZNK9CPlusPlus7CallAST10firstTokenEv
libCPlusPlus.so.10:_ZNK9CPlusPlus7CallAST5cloneEPNS_10MemoryPoolE
libCPlusPlus.so.10:_ZNK9CPlusPlus7CallAST9lastTokenEv
libCPlusPlus.so.10:_ZNK9CPlusPlus7Control10cpp11FinalEv
libCPlusPlus.so.10:_ZNK9CPlusPlus7Control10lastSymbolEv
libCPlusPlus.so.10:_ZNK9CPlusPlus7Control10objcCopyIdEv
libCPlusPlus.so.10:_ZNK9CPlusPlus7Control11firstSymbolEv
libCPlusPlus.so.10:_ZNK9CPlusPlus7Control11symbolCountEv
libCPlusPlus.so.10:_ZNK9CPlusPlus7Control12deprecatedIdEv
libCPlusPlus.so.10:_ZNK9CPlusPlus7Control12objcAssignIdEv
libCPlusPlus.so.10:_ZNK9CPlusPlus7Control12objcGetterIdEv
libCPlusPlus.so.10:_ZNK9CPlusPlus7Control12objcRetainIdEv
libCPlusPlus.so.10:_ZNK9CPlusPlus7Control12objcSetterIdEv
libCPlusPlus.so.10:_ZNK9CPlusPlus7Control13cpp11OverrideEv
libCPlusPlus.so.10:_ZNK9CPlusPlus7Control13unavailableIdEv
libCPlusPlus.so.10:_ZNK9CPlusPlus7Control14findIdentifierEPKci
libCPlusPlus.so.10:_ZNK9CPlusPlus7Control14lastIdentifierEv
libCPlusPlus.so.10:_ZNK9CPlusPlus7Control14objcReadonlyIdEv
libCPlusPlus.so.10:_ZNK9CPlusPlus7Control15firstIdentifierEv
libCPlusPlus.so.10:_ZNK9CPlusPlus7Control15objcNonatomicIdEv
libCPlusPlus.so.10:_ZNK9CPlusPlus7Control15objcReadwriteIdEv
libCPlusPlus.so.10:_ZNK9CPlusPlus7Control15translationUnitEv
libCPlusPlus.so.10:_ZNK9CPlusPlus7Control16diagnosticClientEv
libCPlusPlus.so.10:_ZNK9CPlusPlus7Control17lastStringLiteralEv
libCPlusPlus.so.10:_ZNK9CPlusPlus7Control18findOperatorNameIdENS_14OperatorNameId4KindE
libCPlusPlus.so.10:_ZNK9CPlusPlus7Control18firstStringLiteralEv
libCPlusPlus.so.10:_ZNK9CPlusPlus7Control18lastNumericLiteralEv
libCPlusPlus.so.10:_ZNK9CPlusPlus7Control19firstNumericLiteralEv
libCPlusPlus.so.10:_ZNK9CPlusPlus7Control20findConversionNameIdERKNS_18FullySpecifiedTypeE
libCPlusPlus.so.10:_ZNK9CPlusPlus7Control28topLevelDeclarationProcessorEv
libCPlusPlus.so.10:_ZNK9CPlusPlus7Control9hasSymbolEPNS_6SymbolE
libCPlusPlus.so.10:_ZNK9CPlusPlus7Literal7equalToEPKS0_
libCPlusPlus.so.10:_ZNK9CPlusPlus8Document10functionAtEiiPiS1_
libCPlusPlus.so.10:_ZNK9CPlusPlus8Document11isTokenizedEv
libCPlusPlus.so.10:_ZNK9CPlusPlus8Document13includedFilesEv
libCPlusPlus.so.10:_ZNK9CPlusPlus8Document14findMacroUseAtEi
libCPlusPlus.so.10:_ZNK9CPlusPlus8Document14globalSymbolAtEi
libCPlusPlus.so.10:_ZNK9CPlusPlus8Document16languageFeaturesEv
libCPlusPlus.so.10:_ZNK9CPlusPlus8Document16skipFunctionBodyEv
libCPlusPlus.so.10:_ZNK9CPlusPlus8Document17DiagnosticMessageeqERKS1_
libCPlusPlus.so.10:_ZNK9CPlusPlus8Document17DiagnosticMessageneERKS1_
libCPlusPlus.so.10:_ZNK9CPlusPlus8Document17globalSymbolCountEv
libCPlusPlus.so.10:_ZNK9CPlusPlus8Document19lastVisibleSymbolAtEii
libCPlusPlus.so.10:_ZNK9CPlusPlus8Document21findMacroDefinitionAtEi
libCPlusPlus.so.10:_ZNK9CPlusPlus8Document23findUndefinedMacroUseAtEi
libCPlusPlus.so.10:_ZNK9CPlusPlus8Document8isParsedEv
libCPlusPlus.so.10:_ZNK9CPlusPlus8Function10argumentAtEi
libCPlusPlus.so.10:_ZNK9CPlusPlus8Function12hasArgumentsEv
libCPlusPlus.so.10:_ZNK9CPlusPlus8Function13argumentCountEv
libCPlusPlus.so.10:_ZNK9CPlusPlus8Function13hasReturnTypeEv
libCPlusPlus.so.10:_ZNK9CPlusPlus8Function18isSignatureEqualToEPKS0_PNS_7MatcherE
libCPlusPlus.so.10:_ZNK9CPlusPlus8Function19maybeValidPrototypeEi
libCPlusPlus.so.10:_ZNK9CPlusPlus8Function20minimumArgumentCountEv
libCPlusPlus.so.10:_ZNK9CPlusPlus8Function4typeEv
libCPlusPlus.so.10:_ZNK9CPlusPlus8Function6match0EPKNS_4TypeEPNS_7MatcherE
libCPlusPlus.so.10:_ZNK9CPlusPlus8Overview10prettyNameEPKNS_4NameE
libCPlusPlus.so.10:_ZNK9CPlusPlus8Overview10prettyNameERK5QListIPKNS_4NameEE
libCPlusPlus.so.10:_ZNK9CPlusPlus8Overview10prettyTypeERKNS_18FullySpecifiedTypeEPKNS_4NameE
libCPlusPlus.so.10:_ZNK9CPlusPlus8Overview10prettyTypeERKNS_18FullySpecifiedTypeERK7QString
libCPlusPlus.so.10:_ZNK9CPlusPlus8Snapshot10simplifiedE14QSharedPointerINS_8DocumentEE
libCPlusPlus.so.10:_ZNK9CPlusPlus8Snapshot16filesDependingOnERKN5Utils8FilePathE
libCPlusPlus.so.10:_ZNK9CPlusPlus8Snapshot18documentFromSourceERK10QByteArrayRKN5Utils8FilePathE
libCPlusPlus.so.10:_ZNK9CPlusPlus8Snapshot20preprocessedDocumentERK10QByteArrayRKN5Utils8FilePathEi
libCPlusPlus.so.10:_ZNK9CPlusPlus8Snapshot21updateDependencyTableER20QFutureInterfaceBase
libCPlusPlus.so.10:_ZNK9CPlusPlus8Snapshot21updateDependencyTableEv
libCPlusPlus.so.10:_ZNK9CPlusPlus8Snapshot22allIncludesForDocumentERKN5Utils8FilePathE
libCPlusPlus.so.10:_ZNK9CPlusPlus8Snapshot26includeLocationsOfDocumentERKN5Utils8FilePathE
libCPlusPlus.so.10:_ZNK9CPlusPlus8Snapshot4findERKN5Utils8FilePathE
libCPlusPlus.so.10:_ZNK9CPlusPlus8Snapshot4sizeEv
libCPlusPlus.so.10:_ZNK9CPlusPlus8Snapshot7isEmptyEv
libCPlusPlus.so.10:_ZNK9CPlusPlus8Snapshot8containsERKN5Utils8FilePathE
libCPlusPlus.so.10:_ZNK9CPlusPlus8Snapshot8documentERKN5Utils8FilePathE
libCPlusPlus.so.10:_ZNK9CPlusPlus8SnapshoteqERKS0_
libCPlusPlus.so.10:_ZNK9CPlusPlus8Template11declarationEv
libCPlusPlus.so.10:_ZNK9CPlusPlus8Template22templateParameterCountEv
libCPlusPlus.so.10:_ZNK9CPlusPlus8Template4typeEv
libCPlusPlus.so.10:_ZNK9CPlusPlus8Template6match0EPKNS_4TypeEPNS_7MatcherE
libCPlusPlus.so.10:_ZNK9CPlusPlus8UsingAST10firstTokenEv
libCPlusPlus.so.10:_ZNK9CPlusPlus8UsingAST5cloneEPNS_10MemoryPoolE
libCPlusPlus.so.10:_ZNK9CPlusPlus8UsingAST9lastTokenEv
libCPlusPlus.so.10:_ZNK9CPlusPlus8VoidType6match0EPKNS_4TypeEPNS_7MatcherE
libCPlusPlus.so.10:_ZNK9CPlusPlus9ASTParent11path_helperEPNS_3ASTEP5QListIS2_E
libCPlusPlus.so.10:_ZNK9CPlusPlus9ASTParent4pathEPNS_3ASTE
libCPlusPlus.so.10:_ZNK9CPlusPlus9ASTParent6parentEPNS_3ASTE
libCPlusPlus.so.10:_ZNK9CPlusPlus9ASTParentclEPNS_3ASTE
libCPlusPlus.so.10:_ZNK9CPlusPlus9ArrayType6match0EPKNS_4TypeEPNS_7MatcherE
libCPlusPlus.so.10:_ZNK9CPlusPlus9FloatType6match0EPKNS_4TypeEPNS_7MatcherE
libCPlusPlus.so.10:_ZNK9CPlusPlus9NamedType6match0EPKNS_4TypeEPNS_7MatcherE
libCPlusPlus.so.10:_ZNK9CPlusPlus9Namespace4typeEv
libCPlusPlus.so.10:_ZNK9CPlusPlus9Namespace6match0EPKNS_4TypeEPNS_7MatcherE
libCPlusPlus.so.10:_ZNK9CPlusPlus9ObjCClass10protocolAtEi
libCPlusPlus.so.10:_ZNK9CPlusPlus9ObjCClass13protocolCountEv
libCPlusPlus.so.10:_ZNK9CPlusPlus9ObjCClass4typeEv
libCPlusPlus.so.10:_ZNK9CPlusPlus9ObjCClass6match0EPKNS_4TypeEPNS_7MatcherE
libCPlusPlus.so.10:_ZNK9CPlusPlus9TypeIdAST10firstTokenEv
libCPlusPlus.so.10:_ZNK9CPlusPlus9TypeIdAST5cloneEPNS_10MemoryPoolE
libCPlusPlus.so.10:_ZNK9CPlusPlus9TypeIdAST9lastTokenEv
libCPlusPlus.so.10:_ZTIN9CPlusPlus10ASTMatcherE
libCPlusPlus.so.10:_ZTIN9CPlusPlus10ASTVisitorE
libCPlusPlus.so.10:_ZTIN9CPlusPlus10FindUsagesE
libCPlusPlus.so.10:_ZTIN9CPlusPlus10IdentifierE
libCPlusPlus.so.10:_ZTIN9CPlusPlus10ObjCMethodE
libCPlusPlus.so.10:_ZTIN9CPlusPlus10PointerASTE
libCPlusPlus.so.10:_ZTIN9CPlusPlus11CloneSymbolE
libCPlusPlus.so.10:_ZTIN9CPlusPlus11DeclarationE
libCPlusPlus.so.10:_ZTIN9CPlusPlus11IntegerTypeE
libCPlusPlus.so.10:_ZTIN9CPlusPlus11NameVisitorE
libCPlusPlus.so.10:_ZTIN9CPlusPlus11OperatorASTE
libCPlusPlus.so.10:_ZTIN9CPlusPlus11PointerTypeE
libCPlusPlus.so.10:_ZTIN9CPlusPlus11QtMethodASTE
libCPlusPlus.so.10:_ZTIN9CPlusPlus11TypeVisitorE
libCPlusPlus.so.10:_ZTIN9CPlusPlus12ConditionASTE
libCPlusPlus.so.10:_ZTIN9CPlusPlus12NamespaceASTE
libCPlusPlus.so.10:_ZTIN9CPlusPlus12NewTypeIdASTE
libCPlusPlus.so.10:_ZTIN9CPlusPlus12ObjCProtocolE
libCPlusPlus.so.10:_ZTIN9CPlusPlus12ReferenceASTE
libCPlusPlus.so.10:_ZTIN9CPlusPlus13DeclaratorASTE
libCPlusPlus.so.10:_ZTIN9CPlusPlus13EnumeratorASTE
libCPlusPlus.so.10:_ZTIN9CPlusPlus13ObjCBaseClassE
libCPlusPlus.so.10:_ZTIN9CPlusPlus13ReferenceTypeE
libCPlusPlus.so.10:_ZTIN9CPlusPlus13SimpleNameASTE
libCPlusPlus.so.10:_ZTIN9CPlusPlus13TemplateIdASTE
libCPlusPlus.so.10:_ZTIN9CPlusPlus13UndefinedTypeE
libCPlusPlus.so.10:_ZTIN9CPlusPlus14ArrayAccessASTE
libCPlusPlus.so.10:_ZTIN9CPlusPlus14BoolLiteralASTE
libCPlusPlus.so.10:_ZTIN9CPlusPlus14CatchClauseASTE
libCPlusPlus.so.10:_ZTIN9CPlusPlus14CreateBindingsE
libCPlusPlus.so.10:_ZTIN9CPlusPlus14DoStatementASTE
libCPlusPlus.so.10:_ZTIN9CPlusPlus14IfStatementASTE
libCPlusPlus.so.10:_ZTIN9CPlusPlus14LinkageBodyASTE
libCPlusPlus.so.10:_ZTIN9CPlusPlus14NamespaceAliasE
libCPlusPlus.so.10:_ZTIN9CPlusPlus14OperatorNameIdE
libCPlusPlus.so.10:_ZTIN9CPlusPlus14QtObjectTagASTE
libCPlusPlus.so.10:_ZTIN9CPlusPlus14SelectorNameIdE
libCPlusPlus.so.10:_ZTIN9CPlusPlus14TemplateNameIdE
libCPlusPlus.so.10:_ZTIN9CPlusPlus15AnonymousNameIdE
libCPlusPlus.so.10:_ZTIN9CPlusPlus15DeclaratorIdASTE
libCPlusPlus.so.10:_ZTIN9CPlusPlus15ForStatementASTE
libCPlusPlus.so.10:_ZTIN9CPlusPlus15GnuAttributeASTE
libCPlusPlus.so.10:_ZTIN9CPlusPlus15IdExpressionASTE
libCPlusPlus.so.10:_ZTIN9CPlusPlus15MemberAccessASTE
libCPlusPlus.so.10:_ZTIN9CPlusPlus15ObjCSelectorASTE
libCPlusPlus.so.10:_ZTIN9CPlusPlus15ObjCTypeNameASTE
libCPlusPlus.so.10:_ZTIN9CPlusPlus15PostIncrDecrASTE
libCPlusPlus.so.10:_ZTIN9CPlusPlus15QualifiedNameIdE
libCPlusPlus.so.10:_ZTIN9CPlusPlus15SubstitutionMapE
libCPlusPlus.so.10:_ZTIN9CPlusPlus15UseMinimalNamesE
libCPlusPlus.so.10:_ZTIN9CPlusPlus16AnonymousNameASTE
libCPlusPlus.so.10:_ZTIN9CPlusPlus16AsmDefinitionASTE
libCPlusPlus.so.10:_ZTIN9CPlusPlus16BaseSpecifierASTE
libCPlusPlus.so.10:_ZTIN9CPlusPlus16CaseStatementASTE
libCPlusPlus.so.10:_ZTIN9CPlusPlus16ConversionNameIdE
libCPlusPlus.so.10:_ZTIN9CPlusPlus16DestructorNameIdE
libCPlusPlus.so.10:_ZTIN9CPlusPlus16DiagnosticClientE
libCPlusPlus.so.10:_ZTIN9CPlusPlus16EnumSpecifierASTE
libCPlusPlus.so.10:_ZTIN9CPlusPlus16FastPreprocessorE
libCPlusPlus.so.10:_ZTIN9CPlusPlus16GotoStatementASTE
libCPlusPlus.so.10:_ZTIN9CPlusPlus16NewExpressionASTE
libCPlusPlus.so.10:_ZTIN9CPlusPlus16ObjCBaseProtocolE
libCPlusPlus.so.10:_ZTIN9CPlusPlus16QtPrivateSlotASTE
libCPlusPlus.so.10:_ZTIN9CPlusPlus16QualifiedNameASTE
libCPlusPlus.so.10:_ZTIN9CPlusPlus16StringLiteralASTE
libCPlusPlus.so.10:_ZTIN9CPlusPlus16TypenameArgumentE
libCPlusPlus.so.10:_ZTIN9CPlusPlus16UsingDeclarationE
libCPlusPlus.so.10:_ZTIN9CPlusPlus17BreakStatementASTE
libCPlusPlus.so.10:_ZTIN9CPlusPlus17CastExpressionASTE
libCPlusPlus.so.10:_ZTIN9CPlusPlus17ClassSpecifierASTE
libCPlusPlus.so.10:_ZTIN9CPlusPlus17DestructorNameASTE
libCPlusPlus.so.10:_ZTIN9CPlusPlus17FindCdbBreakpointE
libCPlusPlus.so.10:_ZTIN9CPlusPlus17MemInitializerASTE
libCPlusPlus.so.10:_ZTIN9CPlusPlus17NamePrettyPrinterE
libCPlusPlus.so.10:_ZTIN9CPlusPlus17NumericLiteralASTE
libCPlusPlus.so.10:_ZTIN9CPlusPlus17PointerLiteralASTE
libCPlusPlus.so.10:_ZTIN9CPlusPlus17ResolveExpressionE
libCPlusPlus.so.10:_ZTIN9CPlusPlus17ThisExpressionASTE
libCPlusPlus.so.10:_ZTIN9CPlusPlus17TypePrettyPrinterE
libCPlusPlus.so.10:_ZTIN9CPlusPlus17UseQualifiedNamesE
libCPlusPlus.so.10:_ZTIN9CPlusPlus17UsingDirectiveASTE
libCPlusPlus.so.10:_ZTIN9CPlusPlus17WhileStatementASTE
libCPlusPlus.so.10:_ZTIN9CPlusPlus18ArrayDeclaratorASTE
libCPlusPlus.so.10:_ZTIN9CPlusPlus18CompoundLiteralASTE
libCPlusPlus.so.10:_ZTIN9CPlusPlus18CtorInitializerASTE
libCPlusPlus.so.10:_ZTIN9CPlusPlus18PointerToMemberASTE
libCPlusPlus.so.10:_ZTIN9CPlusPlus18QtInterfaceNameASTE
libCPlusPlus.so.10:_ZTIN9CPlusPlus18ReturnStatementASTE
libCPlusPlus.so.10:_ZTIN9CPlusPlus18SimpleSpecifierASTE
libCPlusPlus.so.10:_ZTIN9CPlusPlus18SwitchStatementASTE
libCPlusPlus.so.10:_ZTIN9CPlusPlus18ThrowExpressionASTE
libCPlusPlus.so.10:_ZTIN9CPlusPlus18TranslationUnitASTE
libCPlusPlus.so.10:_ZTIN9CPlusPlus18TypeofSpecifierASTE
libCPlusPlus.so.10:_ZTIN9CPlusPlus18UnaryExpressionASTE
libCPlusPlus.so.10:_ZTIN9CPlusPlus19AliasDeclarationASTE
libCPlusPlus.so.10:_ZTIN9CPlusPlus19ArrayInitializerASTE
libCPlusPlus.so.10:_ZTIN9CPlusPlus19BinaryExpressionASTE
libCPlusPlus.so.10:_ZTIN9CPlusPlus19CppModelManagerBaseE
libCPlusPlus.so.10:_ZTIN9CPlusPlus19DeleteExpressionASTE
libCPlusPlus.so.10:_ZTIN9CPlusPlus19EmptyDeclarationASTE
libCPlusPlus.so.10:_ZTIN9CPlusPlus19ForeachStatementASTE
libCPlusPlus.so.10:_ZTIN9CPlusPlus19LabeledStatementASTE
libCPlusPlus.so.10:_ZTIN9CPlusPlus19NestedDeclaratorASTE
libCPlusPlus.so.10:_ZTIN9CPlusPlus19NestedExpressionASTE
libCPlusPlus.so.10:_ZTIN9CPlusPlus19ObjCProtocolRefsASTE
libCPlusPlus.so.10:_ZTIN9CPlusPlus19PointerToMemberTypeE
libCPlusPlus.so.10:_ZTIN9CPlusPlus19SizeofExpressionASTE
libCPlusPlus.so.10:_ZTIN9CPlusPlus19TypeidExpressionASTE
libCPlusPlus.so.10:_ZTIN9CPlusPlus20AccessDeclarationASTE
libCPlusPlus.so.10:_ZTIN9CPlusPlus20AlignofExpressionASTE
libCPlusPlus.so.10:_ZTIN9CPlusPlus20CompoundStatementASTE
libCPlusPlus.so.10:_ZTIN9CPlusPlus20ContinueStatementASTE
libCPlusPlus.so.10:_ZTIN9CPlusPlus20CppCastExpressionASTE
libCPlusPlus.so.10:_ZTIN9CPlusPlus20DecltypeSpecifierASTE
libCPlusPlus.so.10:_ZTIN9CPlusPlus20QtEnumDeclarationASTE
libCPlusPlus.so.10:_ZTIN9CPlusPlus20SimpleDeclarationASTE
libCPlusPlus.so.10:_ZTIN9CPlusPlus20TryBlockStatementASTE
libCPlusPlus.so.10:_ZTIN9CPlusPlus21AlignmentSpecifierASTE
libCPlusPlus.so.10:_ZTIN9CPlusPlus21CompoundExpressionASTE
libCPlusPlus.so.10:_ZTIN9CPlusPlus21FunctionDeclaratorASTE
libCPlusPlus.so.10:_ZTIN9CPlusPlus21FunctionDefinitionASTE
libCPlusPlus.so.10:_ZTIN9CPlusPlus21NamedTypeSpecifierASTE
libCPlusPlus.so.10:_ZTIN9CPlusPlus21NewArrayDeclaratorASTE
libCPlusPlus.so.10:_ZTIN9CPlusPlus21OperatorFunctionIdASTE
libCPlusPlus.so.10:_ZTIN9CPlusPlus21QtFlagsDeclarationASTE
libCPlusPlus.so.10:_ZTIN9CPlusPlus21QtPropertyDeclarationE
libCPlusPlus.so.10:_ZTIN9CPlusPlus22ExpressionListParenASTE
libCPlusPlus.so.10:_ZTIN9CPlusPlus22ExpressionStatementASTE
libCPlusPlus.so.10:_ZTIN9CPlusPlus22NestedNameSpecifierASTE
libCPlusPlus.so.10:_ZTIN9CPlusPlus22ObjCFastEnumerationASTE
libCPlusPlus.so.10:_ZTIN9CPlusPlus22ObjCMessageArgumentASTE
libCPlusPlus.so.10:_ZTIN9CPlusPlus22ObjCMethodPrototypeASTE
libCPlusPlus.so.10:_ZTIN9CPlusPlus22QtMemberDeclarationASTE
libCPlusPlus.so.10:_ZTIN9CPlusPlus22TemplateDeclarationASTE
libCPlusPlus.so.10:_ZTIN9CPlusPlus22TypeConstructorCallASTE
libCPlusPlus.so.10:_ZTIN9CPlusPlus23ConversionFunctionIdASTE
libCPlusPlus.so.10:_ZTIN9CPlusPlus23DeclarationStatementASTE
libCPlusPlus.so.10:_ZTIN9CPlusPlus23ExceptionDeclarationASTE
libCPlusPlus.so.10:_ZTIN9CPlusPlus23ForwardClassDeclarationE
libCPlusPlus.so.10:_ZTIN9CPlusPlus23LinkageSpecificationASTE
libCPlusPlus.so.10:_ZTIN9CPlusPlus23ObjCClassDeclarationASTE
libCPlusPlus.so.10:_ZTIN9CPlusPlus23ObjCEncodeExpressionASTE
libCPlusPlus.so.10:_ZTIN9CPlusPlus23ObjCPropertyDeclarationE
libCPlusPlus.so.10:_ZTIN9CPlusPlus23ObjCSelectorArgumentASTE
libCPlusPlus.so.10:_ZTIN9CPlusPlus23ParameterDeclarationASTE
libCPlusPlus.so.10:_ZTIN9CPlusPlus23UsingNamespaceDirectiveE
libCPlusPlus.so.10:_ZTIN9CPlusPlus24ConditionalExpressionASTE
libCPlusPlus.so.10:_ZTIN9CPlusPlus24GnuAttributeSpecifierASTE
libCPlusPlus.so.10:_ZTIN9CPlusPlus24MsvcDeclspecSpecifierASTE
libCPlusPlus.so.10:_ZTIN9CPlusPlus24NoExceptSpecificationASTE
libCPlusPlus.so.10:_ZTIN9CPlusPlus24ObjCMessageExpressionASTE
libCPlusPlus.so.10:_ZTIN9CPlusPlus24ObjCMethodDeclarationASTE
libCPlusPlus.so.10:_ZTIN9CPlusPlus24ObjCPropertyAttributeASTE
libCPlusPlus.so.10:_ZTIN9CPlusPlus24QtPropertyDeclarationASTE
libCPlusPlus.so.10:_ZTIN9CPlusPlus24StdAttributeSpecifierASTE
libCPlusPlus.so.10:_ZTIN9CPlusPlus24TemplateTypeParameterASTE
libCPlusPlus.so.10:_ZTIN9CPlusPlus24TypenameTypeParameterASTE
libCPlusPlus.so.10:_ZTIN9CPlusPlus25ObjCProtocolExpressionASTE
libCPlusPlus.so.10:_ZTIN9CPlusPlus25ObjCSelectorExpressionASTE
libCPlusPlus.so.10:_ZTIN9CPlusPlus25RangeBasedForStatementASTE
libCPlusPlus.so.10:_ZTIN9CPlusPlus25TypenameCallExpressionASTE
libCPlusPlus.so.10:_ZTIN9CPlusPlus26DecompositionDeclaratorASTE
libCPlusPlus.so.10:_ZTIN9CPlusPlus26ElaboratedTypeSpecifierASTE
libCPlusPlus.so.10:_ZTIN9CPlusPlus26ObjCPropertyDeclarationASTE
libCPlusPlus.so.10:_ZTIN9CPlusPlus26ObjCProtocolDeclarationASTE
libCPlusPlus.so.10:_ZTIN9CPlusPlus26ObjCSynthesizedPropertyASTE
libCPlusPlus.so.10:_ZTIN9CPlusPlus26QtInterfacesDeclarationASTE
libCPlusPlus.so.10:_ZTIN9CPlusPlus26StaticAssertDeclarationASTE
libCPlusPlus.so.10:_ZTIN9CPlusPlus27NamespaceAliasDefinitionASTE
libCPlusPlus.so.10:_ZTIN9CPlusPlus27ObjCForwardClassDeclarationE
libCPlusPlus.so.10:_ZTIN9CPlusPlus28ObjCSynchronizedStatementASTE
libCPlusPlus.so.10:_ZTIN9CPlusPlus28ObjCVisibilityDeclarationASTE
libCPlusPlus.so.10:_ZTIN9CPlusPlus29NoExceptOperatorExpressionASTE
libCPlusPlus.so.10:_ZTIN9CPlusPlus29ParameterDeclarationClauseASTE
libCPlusPlus.so.10:_ZTIN9CPlusPlus30ObjCClassForwardDeclarationASTE
libCPlusPlus.so.10:_ZTIN9CPlusPlus30ObjCForwardProtocolDeclarationE
libCPlusPlus.so.10:_ZTIN9CPlusPlus32DynamicExceptionSpecificationASTE
libCPlusPlus.so.10:_ZTIN9CPlusPlus33ObjCMessageArgumentDeclarationASTE
libCPlusPlus.so.10:_ZTIN9CPlusPlus33ObjCProtocolForwardDeclarationASTE
libCPlusPlus.so.10:_ZTIN9CPlusPlus35ExpressionOrDeclarationStatementASTE
libCPlusPlus.so.10:_ZTIN9CPlusPlus35ObjCDynamicPropertiesDeclarationASTE
libCPlusPlus.so.10:_ZTIN9CPlusPlus35ObjCInstanceVariablesDeclarationASTE
libCPlusPlus.so.10:_ZTIN9CPlusPlus39ObjCSynthesizedPropertiesDeclarationASTE
libCPlusPlus.so.10:_ZTIN9CPlusPlus3ASTE
libCPlusPlus.so.10:_ZTIN9CPlusPlus4BindE
libCPlusPlus.so.10:_ZTIN9CPlusPlus4EnumE
libCPlusPlus.so.10:_ZTIN9CPlusPlus4NameE
libCPlusPlus.so.10:_ZTIN9CPlusPlus4TypeE
libCPlusPlus.so.10:_ZTIN9CPlusPlus5BlockE
libCPlusPlus.so.10:_ZTIN9CPlusPlus5ClassE
libCPlusPlus.so.10:_ZTIN9CPlusPlus5ScopeE
libCPlusPlus.so.10:_ZTIN9CPlusPlus6QtEnumE
libCPlusPlus.so.10:_ZTIN9CPlusPlus6SymbolE
libCPlusPlus.so.10:_ZTIN9CPlusPlus7ASTPathE
libCPlusPlus.so.10:_ZTIN9CPlusPlus7CallASTE
libCPlusPlus.so.10:_ZTIN9CPlusPlus7LiteralE
libCPlusPlus.so.10:_ZTIN9CPlusPlus7ManagedE
libCPlusPlus.so.10:_ZTIN9CPlusPlus7MatcherE
libCPlusPlus.so.10:_ZTIN9CPlusPlus8ArgumentE
libCPlusPlus.so.10:_ZTIN9CPlusPlus8FunctionE
libCPlusPlus.so.10:_ZTIN9CPlusPlus8TemplateE
libCPlusPlus.so.10:_ZTIN9CPlusPlus8UsingASTE
libCPlusPlus.so.10:_ZTIN9CPlusPlus8VoidTypeE
libCPlusPlus.so.10:_ZTIN9CPlusPlus9ASTParentE
libCPlusPlus.so.10:_ZTIN9CPlusPlus9ArrayTypeE
libCPlusPlus.so.10:_ZTIN9CPlusPlus9BaseClassE
libCPlusPlus.so.10:_ZTIN9CPlusPlus9CloneNameE
libCPlusPlus.so.10:_ZTIN9CPlusPlus9CloneTypeE
libCPlusPlus.so.10:_ZTIN9CPlusPlus9FloatTypeE
libCPlusPlus.so.10:_ZTIN9CPlusPlus9NamedTypeE
libCPlusPlus.so.10:_ZTIN9CPlusPlus9NamespaceE
libCPlusPlus.so.10:_ZTIN9CPlusPlus9ObjCClassE
libCPlusPlus.so.10:_ZTIN9CPlusPlus9TypeIdASTE
libCPlusPlus.so.10:_ZTSN9CPlusPlus10ASTMatcherE
libCPlusPlus.so.10:_ZTSN9CPlusPlus10ASTVisitorE
libCPlusPlus.so.10:_ZTSN9CPlusPlus10FindUsagesE
libCPlusPlus.so.10:_ZTSN9CPlusPlus10IdentifierE
libCPlusPlus.so.10:_ZTSN9CPlusPlus10ObjCMethodE
libCPlusPlus.so.10:_ZTSN9CPlusPlus10PointerASTE
libCPlusPlus.so.10:_ZTSN9CPlusPlus11CloneSymbolE
libCPlusPlus.so.10:_ZTSN9CPlusPlus11DeclarationE
libCPlusPlus.so.10:_ZTSN9CPlusPlus11IntegerTypeE
libCPlusPlus.so.10:_ZTSN9CPlusPlus11NameVisitorE
libCPlusPlus.so.10:_ZTSN9CPlusPlus11OperatorASTE
libCPlusPlus.so.10:_ZTSN9CPlusPlus11PointerTypeE
libCPlusPlus.so.10:_ZTSN9CPlusPlus11QtMethodASTE
libCPlusPlus.so.10:_ZTSN9CPlusPlus11TypeVisitorE
libCPlusPlus.so.10:_ZTSN9CPlusPlus12ConditionASTE
libCPlusPlus.so.10:_ZTSN9CPlusPlus12NamespaceASTE
libCPlusPlus.so.10:_ZTSN9CPlusPlus12NewTypeIdASTE
libCPlusPlus.so.10:_ZTSN9CPlusPlus12ObjCProtocolE
libCPlusPlus.so.10:_ZTSN9CPlusPlus12ReferenceASTE
libCPlusPlus.so.10:_ZTSN9CPlusPlus13DeclaratorASTE
libCPlusPlus.so.10:_ZTSN9CPlusPlus13EnumeratorASTE
libCPlusPlus.so.10:_ZTSN9CPlusPlus13ObjCBaseClassE
libCPlusPlus.so.10:_ZTSN9CPlusPlus13ReferenceTypeE
libCPlusPlus.so.10:_ZTSN9CPlusPlus13SimpleNameASTE
libCPlusPlus.so.10:_ZTSN9CPlusPlus13TemplateIdASTE
libCPlusPlus.so.10:_ZTSN9CPlusPlus13UndefinedTypeE
libCPlusPlus.so.10:_ZTSN9CPlusPlus14ArrayAccessASTE
libCPlusPlus.so.10:_ZTSN9CPlusPlus14BoolLiteralASTE
libCPlusPlus.so.10:_ZTSN9CPlusPlus14CatchClauseASTE
libCPlusPlus.so.10:_ZTSN9CPlusPlus14CreateBindingsE
libCPlusPlus.so.10:_ZTSN9CPlusPlus14DoStatementASTE
libCPlusPlus.so.10:_ZTSN9CPlusPlus14IfStatementASTE
libCPlusPlus.so.10:_ZTSN9CPlusPlus14LinkageBodyASTE
libCPlusPlus.so.10:_ZTSN9CPlusPlus14NamespaceAliasE
libCPlusPlus.so.10:_ZTSN9CPlusPlus14OperatorNameIdE
libCPlusPlus.so.10:_ZTSN9CPlusPlus14QtObjectTagASTE
libCPlusPlus.so.10:_ZTSN9CPlusPlus14SelectorNameIdE
libCPlusPlus.so.10:_ZTSN9CPlusPlus14TemplateNameIdE
libCPlusPlus.so.10:_ZTSN9CPlusPlus15AnonymousNameIdE
libCPlusPlus.so.10:_ZTSN9CPlusPlus15DeclaratorIdASTE
libCPlusPlus.so.10:_ZTSN9CPlusPlus15ForStatementASTE
libCPlusPlus.so.10:_ZTSN9CPlusPlus15GnuAttributeASTE
libCPlusPlus.so.10:_ZTSN9CPlusPlus15IdExpressionASTE
libCPlusPlus.so.10:_ZTSN9CPlusPlus15MemberAccessASTE
libCPlusPlus.so.10:_ZTSN9CPlusPlus15ObjCSelectorASTE
libCPlusPlus.so.10:_ZTSN9CPlusPlus15ObjCTypeNameASTE
libCPlusPlus.so.10:_ZTSN9CPlusPlus15PostIncrDecrASTE
libCPlusPlus.so.10:_ZTSN9CPlusPlus15QualifiedNameIdE
libCPlusPlus.so.10:_ZTSN9CPlusPlus15SubstitutionMapE
libCPlusPlus.so.10:_ZTSN9CPlusPlus15UseMinimalNamesE
libCPlusPlus.so.10:_ZTSN9CPlusPlus16AnonymousNameASTE
libCPlusPlus.so.10:_ZTSN9CPlusPlus16AsmDefinitionASTE
libCPlusPlus.so.10:_ZTSN9CPlusPlus16BaseSpecifierASTE
libCPlusPlus.so.10:_ZTSN9CPlusPlus16CaseStatementASTE
libCPlusPlus.so.10:_ZTSN9CPlusPlus16ConversionNameIdE
libCPlusPlus.so.10:_ZTSN9CPlusPlus16DestructorNameIdE
libCPlusPlus.so.10:_ZTSN9CPlusPlus16DiagnosticClientE
libCPlusPlus.so.10:_ZTSN9CPlusPlus16EnumSpecifierASTE
libCPlusPlus.so.10:_ZTSN9CPlusPlus16FastPreprocessorE
libCPlusPlus.so.10:_ZTSN9CPlusPlus16GotoStatementASTE
libCPlusPlus.so.10:_ZTSN9CPlusPlus16NewExpressionASTE
libCPlusPlus.so.10:_ZTSN9CPlusPlus16ObjCBaseProtocolE
libCPlusPlus.so.10:_ZTSN9CPlusPlus16QtPrivateSlotASTE
libCPlusPlus.so.10:_ZTSN9CPlusPlus16QualifiedNameASTE
libCPlusPlus.so.10:_ZTSN9CPlusPlus16StringLiteralASTE
libCPlusPlus.so.10:_ZTSN9CPlusPlus16TypenameArgumentE
libCPlusPlus.so.10:_ZTSN9CPlusPlus16UsingDeclarationE
libCPlusPlus.so.10:_ZTSN9CPlusPlus17BreakStatementASTE
libCPlusPlus.so.10:_ZTSN9CPlusPlus17CastExpressionASTE
libCPlusPlus.so.10:_ZTSN9CPlusPlus17ClassSpecifierASTE
libCPlusPlus.so.10:_ZTSN9CPlusPlus17DestructorNameASTE
libCPlusPlus.so.10:_ZTSN9CPlusPlus17FindCdbBreakpointE
libCPlusPlus.so.10:_ZTSN9CPlusPlus17MemInitializerASTE
libCPlusPlus.so.10:_ZTSN9CPlusPlus17NamePrettyPrinterE
libCPlusPlus.so.10:_ZTSN9CPlusPlus17NumericLiteralASTE
libCPlusPlus.so.10:_ZTSN9CPlusPlus17PointerLiteralASTE
libCPlusPlus.so.10:_ZTSN9CPlusPlus17ResolveExpressionE
libCPlusPlus.so.10:_ZTSN9CPlusPlus17ThisExpressionASTE
libCPlusPlus.so.10:_ZTSN9CPlusPlus17TypePrettyPrinterE
libCPlusPlus.so.10:_ZTSN9CPlusPlus17UseQualifiedNamesE
libCPlusPlus.so.10:_ZTSN9CPlusPlus17UsingDirectiveASTE
libCPlusPlus.so.10:_ZTSN9CPlusPlus17WhileStatementASTE
libCPlusPlus.so.10:_ZTSN9CPlusPlus18ArrayDeclaratorASTE
libCPlusPlus.so.10:_ZTSN9CPlusPlus18CompoundLiteralASTE
libCPlusPlus.so.10:_ZTSN9CPlusPlus18CtorInitializerASTE
libCPlusPlus.so.10:_ZTSN9CPlusPlus18PointerToMemberASTE
libCPlusPlus.so.10:_ZTSN9CPlusPlus18QtInterfaceNameASTE
libCPlusPlus.so.10:_ZTSN9CPlusPlus18ReturnStatementASTE
libCPlusPlus.so.10:_ZTSN9CPlusPlus18SimpleSpecifierASTE
libCPlusPlus.so.10:_ZTSN9CPlusPlus18SwitchStatementASTE
libCPlusPlus.so.10:_ZTSN9CPlusPlus18ThrowExpressionASTE
libCPlusPlus.so.10:_ZTSN9CPlusPlus18TranslationUnitASTE
libCPlusPlus.so.10:_ZTSN9CPlusPlus18TypeofSpecifierASTE
libCPlusPlus.so.10:_ZTSN9CPlusPlus18UnaryExpressionASTE
libCPlusPlus.so.10:_ZTSN9CPlusPlus19AliasDeclarationASTE
libCPlusPlus.so.10:_ZTSN9CPlusPlus19ArrayInitializerASTE
libCPlusPlus.so.10:_ZTSN9CPlusPlus19BinaryExpressionASTE
libCPlusPlus.so.10:_ZTSN9CPlusPlus19CppModelManagerBaseE
libCPlusPlus.so.10:_ZTSN9CPlusPlus19DeleteExpressionASTE
libCPlusPlus.so.10:_ZTSN9CPlusPlus19EmptyDeclarationASTE
libCPlusPlus.so.10:_ZTSN9CPlusPlus19ForeachStatementASTE
libCPlusPlus.so.10:_ZTSN9CPlusPlus19LabeledStatementASTE
libCPlusPlus.so.10:_ZTSN9CPlusPlus19NestedDeclaratorASTE
libCPlusPlus.so.10:_ZTSN9CPlusPlus19NestedExpressionASTE
libCPlusPlus.so.10:_ZTSN9CPlusPlus19ObjCProtocolRefsASTE
libCPlusPlus.so.10:_ZTSN9CPlusPlus19PointerToMemberTypeE
libCPlusPlus.so.10:_ZTSN9CPlusPlus19SizeofExpressionASTE
libCPlusPlus.so.10:_ZTSN9CPlusPlus19TypeidExpressionASTE
libCPlusPlus.so.10:_ZTSN9CPlusPlus20AccessDeclarationASTE
libCPlusPlus.so.10:_ZTSN9CPlusPlus20AlignofExpressionASTE
libCPlusPlus.so.10:_ZTSN9CPlusPlus20CompoundStatementASTE
libCPlusPlus.so.10:_ZTSN9CPlusPlus20ContinueStatementASTE
libCPlusPlus.so.10:_ZTSN9CPlusPlus20CppCastExpressionASTE
libCPlusPlus.so.10:_ZTSN9CPlusPlus20DecltypeSpecifierASTE
libCPlusPlus.so.10:_ZTSN9CPlusPlus20QtEnumDeclarationASTE
libCPlusPlus.so.10:_ZTSN9CPlusPlus20SimpleDeclarationASTE
libCPlusPlus.so.10:_ZTSN9CPlusPlus20TryBlockStatementASTE
libCPlusPlus.so.10:_ZTSN9CPlusPlus21AlignmentSpecifierASTE
libCPlusPlus.so.10:_ZTSN9CPlusPlus21CompoundExpressionASTE
libCPlusPlus.so.10:_ZTSN9CPlusPlus21FunctionDeclaratorASTE
libCPlusPlus.so.10:_ZTSN9CPlusPlus21FunctionDefinitionASTE
libCPlusPlus.so.10:_ZTSN9CPlusPlus21NamedTypeSpecifierASTE
libCPlusPlus.so.10:_ZTSN9CPlusPlus21NewArrayDeclaratorASTE
libCPlusPlus.so.10:_ZTSN9CPlusPlus21OperatorFunctionIdASTE
libCPlusPlus.so.10:_ZTSN9CPlusPlus21QtFlagsDeclarationASTE
libCPlusPlus.so.10:_ZTSN9CPlusPlus21QtPropertyDeclarationE
libCPlusPlus.so.10:_ZTSN9CPlusPlus22ExpressionListParenASTE
libCPlusPlus.so.10:_ZTSN9CPlusPlus22ExpressionStatementASTE
libCPlusPlus.so.10:_ZTSN9CPlusPlus22NestedNameSpecifierASTE
libCPlusPlus.so.10:_ZTSN9CPlusPlus22ObjCFastEnumerationASTE
libCPlusPlus.so.10:_ZTSN9CPlusPlus22ObjCMessageArgumentASTE
libCPlusPlus.so.10:_ZTSN9CPlusPlus22ObjCMethodPrototypeASTE
libCPlusPlus.so.10:_ZTSN9CPlusPlus22QtMemberDeclarationASTE
libCPlusPlus.so.10:_ZTSN9CPlusPlus22TemplateDeclarationASTE
libCPlusPlus.so.10:_ZTSN9CPlusPlus22TypeConstructorCallASTE
libCPlusPlus.so.10:_ZTSN9CPlusPlus23ConversionFunctionIdASTE
libCPlusPlus.so.10:_ZTSN9CPlusPlus23DeclarationStatementASTE
libCPlusPlus.so.10:_ZTSN9CPlusPlus23ExceptionDeclarationASTE
libCPlusPlus.so.10:_ZTSN9CPlusPlus23ForwardClassDeclarationE
libCPlusPlus.so.10:_ZTSN9CPlusPlus23LinkageSpecificationASTE
libCPlusPlus.so.10:_ZTSN9CPlusPlus23ObjCClassDeclarationASTE
libCPlusPlus.so.10:_ZTSN9CPlusPlus23ObjCEncodeExpressionASTE
libCPlusPlus.so.10:_ZTSN9CPlusPlus23ObjCPropertyDeclarationE
libCPlusPlus.so.10:_ZTSN9CPlusPlus23ObjCSelectorArgumentASTE
libCPlusPlus.so.10:_ZTSN9CPlusPlus23ParameterDeclarationASTE
libCPlusPlus.so.10:_ZTSN9CPlusPlus23UsingNamespaceDirectiveE
libCPlusPlus.so.10:_ZTSN9CPlusPlus24ConditionalExpressionASTE
libCPlusPlus.so.10:_ZTSN9CPlusPlus24GnuAttributeSpecifierASTE
libCPlusPlus.so.10:_ZTSN9CPlusPlus24MsvcDeclspecSpecifierASTE
libCPlusPlus.so.10:_ZTSN9CPlusPlus24NoExceptSpecificationASTE
libCPlusPlus.so.10:_ZTSN9CPlusPlus24ObjCMessageExpressionASTE
libCPlusPlus.so.10:_ZTSN9CPlusPlus24ObjCMethodDeclarationASTE
libCPlusPlus.so.10:_ZTSN9CPlusPlus24ObjCPropertyAttributeASTE
libCPlusPlus.so.10:_ZTSN9CPlusPlus24QtPropertyDeclarationASTE
libCPlusPlus.so.10:_ZTSN9CPlusPlus24StdAttributeSpecifierASTE
libCPlusPlus.so.10:_ZTSN9CPlusPlus24TemplateTypeParameterASTE
libCPlusPlus.so.10:_ZTSN9CPlusPlus24TypenameTypeParameterASTE
libCPlusPlus.so.10:_ZTSN9CPlusPlus25ObjCProtocolExpressionASTE
libCPlusPlus.so.10:_ZTSN9CPlusPlus25ObjCSelectorExpressionASTE
libCPlusPlus.so.10:_ZTSN9CPlusPlus25RangeBasedForStatementASTE
libCPlusPlus.so.10:_ZTSN9CPlusPlus25TypenameCallExpressionASTE
libCPlusPlus.so.10:_ZTSN9CPlusPlus26DecompositionDeclaratorASTE
libCPlusPlus.so.10:_ZTSN9CPlusPlus26ElaboratedTypeSpecifierASTE
libCPlusPlus.so.10:_ZTSN9CPlusPlus26ObjCPropertyDeclarationASTE
libCPlusPlus.so.10:_ZTSN9CPlusPlus26ObjCProtocolDeclarationASTE
libCPlusPlus.so.10:_ZTSN9CPlusPlus26ObjCSynthesizedPropertyASTE
libCPlusPlus.so.10:_ZTSN9CPlusPlus26QtInterfacesDeclarationASTE
libCPlusPlus.so.10:_ZTSN9CPlusPlus26StaticAssertDeclarationASTE
libCPlusPlus.so.10:_ZTSN9CPlusPlus27NamespaceAliasDefinitionASTE
libCPlusPlus.so.10:_ZTSN9CPlusPlus27ObjCForwardClassDeclarationE
libCPlusPlus.so.10:_ZTSN9CPlusPlus28ObjCSynchronizedStatementASTE
libCPlusPlus.so.10:_ZTSN9CPlusPlus28ObjCVisibilityDeclarationASTE
libCPlusPlus.so.10:_ZTSN9CPlusPlus29NoExceptOperatorExpressionASTE
libCPlusPlus.so.10:_ZTSN9CPlusPlus29ParameterDeclarationClauseASTE
libCPlusPlus.so.10:_ZTSN9CPlusPlus30ObjCClassForwardDeclarationASTE
libCPlusPlus.so.10:_ZTSN9CPlusPlus30ObjCForwardProtocolDeclarationE
libCPlusPlus.so.10:_ZTSN9CPlusPlus32DynamicExceptionSpecificationASTE
libCPlusPlus.so.10:_ZTSN9CPlusPlus33ObjCMessageArgumentDeclarationASTE
libCPlusPlus.so.10:_ZTSN9CPlusPlus33ObjCProtocolForwardDeclarationASTE
libCPlusPlus.so.10:_ZTSN9CPlusPlus35ExpressionOrDeclarationStatementASTE
libCPlusPlus.so.10:_ZTSN9CPlusPlus35ObjCDynamicPropertiesDeclarationASTE
libCPlusPlus.so.10:_ZTSN9CPlusPlus35ObjCInstanceVariablesDeclarationASTE
libCPlusPlus.so.10:_ZTSN9CPlusPlus39ObjCSynthesizedPropertiesDeclarationASTE
libCPlusPlus.so.10:_ZTSN9CPlusPlus3ASTE
libCPlusPlus.so.10:_ZTSN9CPlusPlus4BindE
libCPlusPlus.so.10:_ZTSN9CPlusPlus4EnumE
libCPlusPlus.so.10:_ZTSN9CPlusPlus4NameE
libCPlusPlus.so.10:_ZTSN9CPlusPlus4TypeE
libCPlusPlus.so.10:_ZTSN9CPlusPlus5BlockE
libCPlusPlus.so.10:_ZTSN9CPlusPlus5ClassE
libCPlusPlus.so.10:_ZTSN9CPlusPlus5ScopeE
libCPlusPlus.so.10:_ZTSN9CPlusPlus6QtEnumE
libCPlusPlus.so.10:_ZTSN9CPlusPlus6SymbolE
libCPlusPlus.so.10:_ZTSN9CPlusPlus7ASTPathE
libCPlusPlus.so.10:_ZTSN9CPlusPlus7CallASTE
libCPlusPlus.so.10:_ZTSN9CPlusPlus7LiteralE
libCPlusPlus.so.10:_ZTSN9CPlusPlus7ManagedE
libCPlusPlus.so.10:_ZTSN9CPlusPlus7MatcherE
libCPlusPlus.so.10:_ZTSN9CPlusPlus8ArgumentE
libCPlusPlus.so.10:_ZTSN9CPlusPlus8FunctionE
libCPlusPlus.so.10:_ZTSN9CPlusPlus8TemplateE
libCPlusPlus.so.10:_ZTSN9CPlusPlus8UsingASTE
libCPlusPlus.so.10:_ZTSN9CPlusPlus8VoidTypeE
libCPlusPlus.so.10:_ZTSN9CPlusPlus9ASTParentE
libCPlusPlus.so.10:_ZTSN9CPlusPlus9ArrayTypeE
libCPlusPlus.so.10:_ZTSN9CPlusPlus9BaseClassE
libCPlusPlus.so.10:_ZTSN9CPlusPlus9CloneNameE
libCPlusPlus.so.10:_ZTSN9CPlusPlus9CloneTypeE
libCPlusPlus.so.10:_ZTSN9CPlusPlus9FloatTypeE
libCPlusPlus.so.10:_ZTSN9CPlusPlus9NamedTypeE
libCPlusPlus.so.10:_ZTSN9CPlusPlus9NamespaceE
libCPlusPlus.so.10:_ZTSN9CPlusPlus9ObjCClassE
libCPlusPlus.so.10:_ZTSN9CPlusPlus9TypeIdASTE
libCPlusPlus.so.10:_ZTVN9CPlusPlus10ASTMatcherE
libCPlusPlus.so.10:_ZTVN9CPlusPlus10ASTVisitorE
libCPlusPlus.so.10:_ZTVN9CPlusPlus10FindUsagesE
libCPlusPlus.so.10:_ZTVN9CPlusPlus10IdentifierE
libCPlusPlus.so.10:_ZTVN9CPlusPlus10ObjCMethodE
libCPlusPlus.so.10:_ZTVN9CPlusPlus10PointerASTE
libCPlusPlus.so.10:_ZTVN9CPlusPlus11CloneSymbolE
libCPlusPlus.so.10:_ZTVN9CPlusPlus11DeclarationE
libCPlusPlus.so.10:_ZTVN9CPlusPlus11IntegerTypeE
libCPlusPlus.so.10:_ZTVN9CPlusPlus11NameVisitorE
libCPlusPlus.so.10:_ZTVN9CPlusPlus11OperatorASTE
libCPlusPlus.so.10:_ZTVN9CPlusPlus11PointerTypeE
libCPlusPlus.so.10:_ZTVN9CPlusPlus11QtMethodASTE
libCPlusPlus.so.10:_ZTVN9CPlusPlus11TypeVisitorE
libCPlusPlus.so.10:_ZTVN9CPlusPlus12ConditionASTE
libCPlusPlus.so.10:_ZTVN9CPlusPlus12NamespaceASTE
libCPlusPlus.so.10:_ZTVN9CPlusPlus12NewTypeIdASTE
libCPlusPlus.so.10:_ZTVN9CPlusPlus12ObjCProtocolE
libCPlusPlus.so.10:_ZTVN9CPlusPlus12ReferenceASTE
libCPlusPlus.so.10:_ZTVN9CPlusPlus13DeclaratorASTE
libCPlusPlus.so.10:_ZTVN9CPlusPlus13EnumeratorASTE
libCPlusPlus.so.10:_ZTVN9CPlusPlus13ObjCBaseClassE
libCPlusPlus.so.10:_ZTVN9CPlusPlus13ReferenceTypeE
libCPlusPlus.so.10:_ZTVN9CPlusPlus13SimpleNameASTE
libCPlusPlus.so.10:_ZTVN9CPlusPlus13TemplateIdASTE
libCPlusPlus.so.10:_ZTVN9CPlusPlus13UndefinedTypeE
libCPlusPlus.so.10:_ZTVN9CPlusPlus14ArrayAccessASTE
libCPlusPlus.so.10:_ZTVN9CPlusPlus14BoolLiteralASTE
libCPlusPlus.so.10:_ZTVN9CPlusPlus14CatchClauseASTE
libCPlusPlus.so.10:_ZTVN9CPlusPlus14CreateBindingsE
libCPlusPlus.so.10:_ZTVN9CPlusPlus14DoStatementASTE
libCPlusPlus.so.10:_ZTVN9CPlusPlus14IfStatementASTE
libCPlusPlus.so.10:_ZTVN9CPlusPlus14LinkageBodyASTE
libCPlusPlus.so.10:_ZTVN9CPlusPlus14NamespaceAliasE
libCPlusPlus.so.10:_ZTVN9CPlusPlus14OperatorNameIdE
libCPlusPlus.so.10:_ZTVN9CPlusPlus14QtObjectTagASTE
libCPlusPlus.so.10:_ZTVN9CPlusPlus14SelectorNameIdE
libCPlusPlus.so.10:_ZTVN9CPlusPlus14TemplateNameIdE
libCPlusPlus.so.10:_ZTVN9CPlusPlus15AnonymousNameIdE
libCPlusPlus.so.10:_ZTVN9CPlusPlus15DeclaratorIdASTE
libCPlusPlus.so.10:_ZTVN9CPlusPlus15ForStatementASTE
libCPlusPlus.so.10:_ZTVN9CPlusPlus15GnuAttributeASTE
libCPlusPlus.so.10:_ZTVN9CPlusPlus15IdExpressionASTE
libCPlusPlus.so.10:_ZTVN9CPlusPlus15MemberAccessASTE
libCPlusPlus.so.10:_ZTVN9CPlusPlus15ObjCSelectorASTE
libCPlusPlus.so.10:_ZTVN9CPlusPlus15ObjCTypeNameASTE
libCPlusPlus.so.10:_ZTVN9CPlusPlus15PostIncrDecrASTE
libCPlusPlus.so.10:_ZTVN9CPlusPlus15QualifiedNameIdE
libCPlusPlus.so.10:_ZTVN9CPlusPlus15SubstitutionMapE
libCPlusPlus.so.10:_ZTVN9CPlusPlus15UseMinimalNamesE
libCPlusPlus.so.10:_ZTVN9CPlusPlus16AnonymousNameASTE
libCPlusPlus.so.10:_ZTVN9CPlusPlus16AsmDefinitionASTE
libCPlusPlus.so.10:_ZTVN9CPlusPlus16BaseSpecifierASTE
libCPlusPlus.so.10:_ZTVN9CPlusPlus16CaseStatementASTE
libCPlusPlus.so.10:_ZTVN9CPlusPlus16ConversionNameIdE
libCPlusPlus.so.10:_ZTVN9CPlusPlus16DestructorNameIdE
libCPlusPlus.so.10:_ZTVN9CPlusPlus16DiagnosticClientE
libCPlusPlus.so.10:_ZTVN9CPlusPlus16EnumSpecifierASTE
libCPlusPlus.so.10:_ZTVN9CPlusPlus16FastPreprocessorE
libCPlusPlus.so.10:_ZTVN9CPlusPlus16GotoStatementASTE
libCPlusPlus.so.10:_ZTVN9CPlusPlus16NewExpressionASTE
libCPlusPlus.so.10:_ZTVN9CPlusPlus16ObjCBaseProtocolE
libCPlusPlus.so.10:_ZTVN9CPlusPlus16QtPrivateSlotASTE
libCPlusPlus.so.10:_ZTVN9CPlusPlus16QualifiedNameASTE
libCPlusPlus.so.10:_ZTVN9CPlusPlus16StringLiteralASTE
libCPlusPlus.so.10:_ZTVN9CPlusPlus16TypenameArgumentE
libCPlusPlus.so.10:_ZTVN9CPlusPlus16UsingDeclarationE
libCPlusPlus.so.10:_ZTVN9CPlusPlus17BreakStatementASTE
libCPlusPlus.so.10:_ZTVN9CPlusPlus17CastExpressionASTE
libCPlusPlus.so.10:_ZTVN9CPlusPlus17ClassSpecifierASTE
libCPlusPlus.so.10:_ZTVN9CPlusPlus17DestructorNameASTE
libCPlusPlus.so.10:_ZTVN9CPlusPlus17FindCdbBreakpointE
libCPlusPlus.so.10:_ZTVN9CPlusPlus17MemInitializerASTE
libCPlusPlus.so.10:_ZTVN9CPlusPlus17NamePrettyPrinterE
libCPlusPlus.so.10:_ZTVN9CPlusPlus17NumericLiteralASTE
libCPlusPlus.so.10:_ZTVN9CPlusPlus17PointerLiteralASTE
libCPlusPlus.so.10:_ZTVN9CPlusPlus17ResolveExpressionE
libCPlusPlus.so.10:_ZTVN9CPlusPlus17ThisExpressionASTE
libCPlusPlus.so.10:_ZTVN9CPlusPlus17TypePrettyPrinterE
libCPlusPlus.so.10:_ZTVN9CPlusPlus17UseQualifiedNamesE
libCPlusPlus.so.10:_ZTVN9CPlusPlus17UsingDirectiveASTE
libCPlusPlus.so.10:_ZTVN9CPlusPlus17WhileStatementASTE
libCPlusPlus.so.10:_ZTVN9CPlusPlus18ArrayDeclaratorASTE
libCPlusPlus.so.10:_ZTVN9CPlusPlus18CompoundLiteralASTE
libCPlusPlus.so.10:_ZTVN9CPlusPlus18CtorInitializerASTE
libCPlusPlus.so.10:_ZTVN9CPlusPlus18PointerToMemberASTE
libCPlusPlus.so.10:_ZTVN9CPlusPlus18QtInterfaceNameASTE
libCPlusPlus.so.10:_ZTVN9CPlusPlus18ReturnStatementASTE
libCPlusPlus.so.10:_ZTVN9CPlusPlus18SimpleSpecifierASTE
libCPlusPlus.so.10:_ZTVN9CPlusPlus18SwitchStatementASTE
libCPlusPlus.so.10:_ZTVN9CPlusPlus18ThrowExpressionASTE
libCPlusPlus.so.10:_ZTVN9CPlusPlus18TranslationUnitASTE
libCPlusPlus.so.10:_ZTVN9CPlusPlus18TypeofSpecifierASTE
libCPlusPlus.so.10:_ZTVN9CPlusPlus18UnaryExpressionASTE
libCPlusPlus.so.10:_ZTVN9CPlusPlus19AliasDeclarationASTE
libCPlusPlus.so.10:_ZTVN9CPlusPlus19ArrayInitializerASTE
libCPlusPlus.so.10:_ZTVN9CPlusPlus19BinaryExpressionASTE
libCPlusPlus.so.10:_ZTVN9CPlusPlus19CppModelManagerBaseE
libCPlusPlus.so.10:_ZTVN9CPlusPlus19DeleteExpressionASTE
libCPlusPlus.so.10:_ZTVN9CPlusPlus19EmptyDeclarationASTE
libCPlusPlus.so.10:_ZTVN9CPlusPlus19ForeachStatementASTE
libCPlusPlus.so.10:_ZTVN9CPlusPlus19LabeledStatementASTE
libCPlusPlus.so.10:_ZTVN9CPlusPlus19NestedDeclaratorASTE
libCPlusPlus.so.10:_ZTVN9CPlusPlus19NestedExpressionASTE
libCPlusPlus.so.10:_ZTVN9CPlusPlus19ObjCProtocolRefsASTE
libCPlusPlus.so.10:_ZTVN9CPlusPlus19PointerToMemberTypeE
libCPlusPlus.so.10:_ZTVN9CPlusPlus19SizeofExpressionASTE
libCPlusPlus.so.10:_ZTVN9CPlusPlus19TypeidExpressionASTE
libCPlusPlus.so.10:_ZTVN9CPlusPlus20AccessDeclarationASTE
libCPlusPlus.so.10:_ZTVN9CPlusPlus20AlignofExpressionASTE
libCPlusPlus.so.10:_ZTVN9CPlusPlus20CompoundStatementASTE
libCPlusPlus.so.10:_ZTVN9CPlusPlus20ContinueStatementASTE
libCPlusPlus.so.10:_ZTVN9CPlusPlus20CppCastExpressionASTE
libCPlusPlus.so.10:_ZTVN9CPlusPlus20DecltypeSpecifierASTE
libCPlusPlus.so.10:_ZTVN9CPlusPlus20QtEnumDeclarationASTE
libCPlusPlus.so.10:_ZTVN9CPlusPlus20SimpleDeclarationASTE
libCPlusPlus.so.10:_ZTVN9CPlusPlus20TryBlockStatementASTE
libCPlusPlus.so.10:_ZTVN9CPlusPlus21AlignmentSpecifierASTE
libCPlusPlus.so.10:_ZTVN9CPlusPlus21CompoundExpressionASTE
libCPlusPlus.so.10:_ZTVN9CPlusPlus21FunctionDeclaratorASTE
libCPlusPlus.so.10:_ZTVN9CPlusPlus21FunctionDefinitionASTE
libCPlusPlus.so.10:_ZTVN9CPlusPlus21NamedTypeSpecifierASTE
libCPlusPlus.so.10:_ZTVN9CPlusPlus21NewArrayDeclaratorASTE
libCPlusPlus.so.10:_ZTVN9CPlusPlus21OperatorFunctionIdASTE
libCPlusPlus.so.10:_ZTVN9CPlusPlus21QtFlagsDeclarationASTE
libCPlusPlus.so.10:_ZTVN9CPlusPlus21QtPropertyDeclarationE
libCPlusPlus.so.10:_ZTVN9CPlusPlus22ExpressionListParenASTE
libCPlusPlus.so.10:_ZTVN9CPlusPlus22ExpressionStatementASTE
libCPlusPlus.so.10:_ZTVN9CPlusPlus22NestedNameSpecifierASTE
libCPlusPlus.so.10:_ZTVN9CPlusPlus22ObjCFastEnumerationASTE
libCPlusPlus.so.10:_ZTVN9CPlusPlus22ObjCMessageArgumentASTE
libCPlusPlus.so.10:_ZTVN9CPlusPlus22ObjCMethodPrototypeASTE
libCPlusPlus.so.10:_ZTVN9CPlusPlus22QtMemberDeclarationASTE
libCPlusPlus.so.10:_ZTVN9CPlusPlus22TemplateDeclarationASTE
libCPlusPlus.so.10:_ZTVN9CPlusPlus22TypeConstructorCallASTE
libCPlusPlus.so.10:_ZTVN9CPlusPlus23ConversionFunctionIdASTE
libCPlusPlus.so.10:_ZTVN9CPlusPlus23DeclarationStatementASTE
libCPlusPlus.so.10:_ZTVN9CPlusPlus23ExceptionDeclarationASTE
libCPlusPlus.so.10:_ZTVN9CPlusPlus23ForwardClassDeclarationE
libCPlusPlus.so.10:_ZTVN9CPlusPlus23LinkageSpecificationASTE
libCPlusPlus.so.10:_ZTVN9CPlusPlus23ObjCClassDeclarationASTE
libCPlusPlus.so.10:_ZTVN9CPlusPlus23ObjCEncodeExpressionASTE
libCPlusPlus.so.10:_ZTVN9CPlusPlus23ObjCPropertyDeclarationE
libCPlusPlus.so.10:_ZTVN9CPlusPlus23ObjCSelectorArgumentASTE
libCPlusPlus.so.10:_ZTVN9CPlusPlus23ParameterDeclarationASTE
libCPlusPlus.so.10:_ZTVN9CPlusPlus23UsingNamespaceDirectiveE
libCPlusPlus.so.10:_ZTVN9CPlusPlus24ConditionalExpressionASTE
libCPlusPlus.so.10:_ZTVN9CPlusPlus24GnuAttributeSpecifierASTE
libCPlusPlus.so.10:_ZTVN9CPlusPlus24MsvcDeclspecSpecifierASTE
libCPlusPlus.so.10:_ZTVN9CPlusPlus24NoExceptSpecificationASTE
libCPlusPlus.so.10:_ZTVN9CPlusPlus24ObjCMessageExpressionASTE
libCPlusPlus.so.10:_ZTVN9CPlusPlus24ObjCMethodDeclarationASTE
libCPlusPlus.so.10:_ZTVN9CPlusPlus24ObjCPropertyAttributeASTE
libCPlusPlus.so.10:_ZTVN9CPlusPlus24QtPropertyDeclarationASTE
libCPlusPlus.so.10:_ZTVN9CPlusPlus24StdAttributeSpecifierASTE
libCPlusPlus.so.10:_ZTVN9CPlusPlus24TemplateTypeParameterASTE
libCPlusPlus.so.10:_ZTVN9CPlusPlus24TypenameTypeParameterASTE
libCPlusPlus.so.10:_ZTVN9CPlusPlus25ObjCProtocolExpressionASTE
libCPlusPlus.so.10:_ZTVN9CPlusPlus25ObjCSelectorExpressionASTE
libCPlusPlus.so.10:_ZTVN9CPlusPlus25RangeBasedForStatementASTE
libCPlusPlus.so.10:_ZTVN9CPlusPlus25TypenameCallExpressionASTE
libCPlusPlus.so.10:_ZTVN9CPlusPlus26DecompositionDeclaratorASTE
libCPlusPlus.so.10:_ZTVN9CPlusPlus26ElaboratedTypeSpecifierASTE
libCPlusPlus.so.10:_ZTVN9CPlusPlus26ObjCPropertyDeclarationASTE
libCPlusPlus.so.10:_ZTVN9CPlusPlus26ObjCProtocolDeclarationASTE
libCPlusPlus.so.10:_ZTVN9CPlusPlus26ObjCSynthesizedPropertyASTE
libCPlusPlus.so.10:_ZTVN9CPlusPlus26QtInterfacesDeclarationASTE
libCPlusPlus.so.10:_ZTVN9CPlusPlus26StaticAssertDeclarationASTE
libCPlusPlus.so.10:_ZTVN9CPlusPlus27NamespaceAliasDefinitionASTE
libCPlusPlus.so.10:_ZTVN9CPlusPlus27ObjCForwardClassDeclarationE
libCPlusPlus.so.10:_ZTVN9CPlusPlus28ObjCSynchronizedStatementASTE
libCPlusPlus.so.10:_ZTVN9CPlusPlus28ObjCVisibilityDeclarationASTE
libCPlusPlus.so.10:_ZTVN9CPlusPlus29NoExceptOperatorExpressionASTE
libCPlusPlus.so.10:_ZTVN9CPlusPlus29ParameterDeclarationClauseASTE
libCPlusPlus.so.10:_ZTVN9CPlusPlus30ObjCClassForwardDeclarationASTE
libCPlusPlus.so.10:_ZTVN9CPlusPlus30ObjCForwardProtocolDeclarationE
libCPlusPlus.so.10:_ZTVN9CPlusPlus32DynamicExceptionSpecificationASTE
libCPlusPlus.so.10:_ZTVN9CPlusPlus33ObjCMessageArgumentDeclarationASTE
libCPlusPlus.so.10:_ZTVN9CPlusPlus33ObjCProtocolForwardDeclarationASTE
libCPlusPlus.so.10:_ZTVN9CPlusPlus35ExpressionOrDeclarationStatementASTE
libCPlusPlus.so.10:_ZTVN9CPlusPlus35ObjCDynamicPropertiesDeclarationASTE
libCPlusPlus.so.10:_ZTVN9CPlusPlus35ObjCInstanceVariablesDeclarationASTE
libCPlusPlus.so.10:_ZTVN9CPlusPlus39ObjCSynthesizedPropertiesDeclarationASTE
libCPlusPlus.so.10:_ZTVN9CPlusPlus3ASTE
libCPlusPlus.so.10:_ZTVN9CPlusPlus4BindE
libCPlusPlus.so.10:_ZTVN9CPlusPlus4EnumE
libCPlusPlus.so.10:_ZTVN9CPlusPlus4NameE
libCPlusPlus.so.10:_ZTVN9CPlusPlus4TypeE
libCPlusPlus.so.10:_ZTVN9CPlusPlus5BlockE
libCPlusPlus.so.10:_ZTVN9CPlusPlus5ClassE
libCPlusPlus.so.10:_ZTVN9CPlusPlus5ScopeE
libCPlusPlus.so.10:_ZTVN9CPlusPlus6QtEnumE
libCPlusPlus.so.10:_ZTVN9CPlusPlus6SymbolE
libCPlusPlus.so.10:_ZTVN9CPlusPlus7ASTPathE
libCPlusPlus.so.10:_ZTVN9CPlusPlus7CallASTE
libCPlusPlus.so.10:_ZTVN9CPlusPlus7LiteralE
libCPlusPlus.so.10:_ZTVN9CPlusPlus7ManagedE
libCPlusPlus.so.10:_ZTVN9CPlusPlus7MatcherE
libCPlusPlus.so.10:_ZTVN9CPlusPlus8ArgumentE
libCPlusPlus.so.10:_ZTVN9CPlusPlus8FunctionE
libCPlusPlus.so.10:_ZTVN9CPlusPlus8TemplateE
libCPlusPlus.so.10:_ZTVN9CPlusPlus8UsingASTE
libCPlusPlus.so.10:_ZTVN9CPlusPlus8VoidTypeE
libCPlusPlus.so.10:_ZTVN9CPlusPlus9ASTParentE
libCPlusPlus.so.10:_ZTVN9CPlusPlus9ArrayTypeE
libCPlusPlus.so.10:_ZTVN9CPlusPlus9BaseClassE
libCPlusPlus.so.10:_ZTVN9CPlusPlus9CloneNameE
libCPlusPlus.so.10:_ZTVN9CPlusPlus9CloneTypeE
libCPlusPlus.so.10:_ZTVN9CPlusPlus9FloatTypeE
libCPlusPlus.so.10:_ZTVN9CPlusPlus9NamedTypeE
libCPlusPlus.so.10:_ZTVN9CPlusPlus9NamespaceE
libCPlusPlus.so.10:_ZTVN9CPlusPlus9ObjCClassE
libCPlusPlus.so.10:_ZTVN9CPlusPlus9TypeIdASTE
libCPlusPlus.so.10:_ZThn40_NK9CPlusPlus10Identifier6match0EPKNS_4NameEPNS_7MatcherE
libCPlusPlus.so.10:_ZThn40_NK9CPlusPlus10Identifier7accept0EPNS_11NameVisitorE
libCPlusPlus.so.10:_ZThn72_N9CPlusPlus23ForwardClassDeclaration7accept0EPNS_11TypeVisitorE
libCPlusPlus.so.10:_ZThn72_N9CPlusPlus27ObjCForwardClassDeclaration7accept0EPNS_11TypeVisitorE
libCPlusPlus.so.10:_ZThn72_N9CPlusPlus30ObjCForwardProtocolDeclaration7accept0EPNS_11TypeVisitorE
libCPlusPlus.so.10:_ZThn72_NK9CPlusPlus23ForwardClassDeclaration6match0EPKNS_4TypeEPNS_7MatcherE
libCPlusPlus.so.10:_ZThn72_NK9CPlusPlus27ObjCForwardClassDeclaration6match0EPKNS_4TypeEPNS_7MatcherE
libCPlusPlus.so.10:_ZThn72_NK9CPlusPlus30ObjCForwardProtocolDeclaration6match0EPKNS_4TypeEPNS_7MatcherE
libCPlusPlus.so.10:_ZThn88_N9CPlusPlus10ObjCMethod7accept0EPNS_11TypeVisitorE
libCPlusPlus.so.10:_ZThn88_N9CPlusPlus12ObjCProtocol7accept0EPNS_11TypeVisitorE
libCPlusPlus.so.10:_ZThn88_N9CPlusPlus4Enum7accept0EPNS_11TypeVisitorE
libCPlusPlus.so.10:_ZThn88_N9CPlusPlus5Class7accept0EPNS_11TypeVisitorE
libCPlusPlus.so.10:_ZThn88_N9CPlusPlus8Function7accept0EPNS_11TypeVisitorE
libCPlusPlus.so.10:_ZThn88_N9CPlusPlus8Template7accept0EPNS_11TypeVisitorE
libCPlusPlus.so.10:_ZThn88_N9CPlusPlus9Namespace7accept0EPNS_11TypeVisitorE
libCPlusPlus.so.10:_ZThn88_N9CPlusPlus9ObjCClass7accept0EPNS_11TypeVisitorE
libCPlusPlus.so.10:_ZThn88_NK9CPlusPlus10ObjCMethod6match0EPKNS_4TypeEPNS_7MatcherE
libCPlusPlus.so.10:_ZThn88_NK9CPlusPlus12ObjCProtocol6match0EPKNS_4TypeEPNS_7MatcherE
libCPlusPlus.so.10:_ZThn88_NK9CPlusPlus4Enum6match0EPKNS_4TypeEPNS_7MatcherE
libCPlusPlus.so.10:_ZThn88_NK9CPlusPlus5Class6match0EPKNS_4TypeEPNS_7MatcherE
libCPlusPlus.so.10:_ZThn88_NK9CPlusPlus8Function6match0EPKNS_4TypeEPNS_7MatcherE
libCPlusPlus.so.10:_ZThn88_NK9CPlusPlus8Template6match0EPKNS_4TypeEPNS_7MatcherE
libCPlusPlus.so.10:_ZThn88_NK9CPlusPlus9Namespace6match0EPKNS_4TypeEPNS_7MatcherE
libCPlusPlus.so.10:_ZThn88_NK9CPlusPlus9ObjCClass6match0EPKNS_4TypeEPNS_7MatcherE
libCVS.so:qt_plugin_instance
libCVS.so:qt_plugin_query_metadata_v2
libClangCodeModel.so:qt_plugin_instance
libClangCodeModel.so:qt_plugin_query_metadata_v2
libClangFormat.so:qt_plugin_instance
libClangFormat.so:qt_plugin_query_metadata_v2
libClangTools.so:qt_plugin_instance
libClangTools.so:qt_plugin_query_metadata_v2
libClassView.so:qt_plugin_instance
libClassView.so:qt_plugin_query_metadata_v2
libClearCase.so:qt_plugin_instance
libClearCase.so:qt_plugin_query_metadata_v2
libCoco.so:qt_plugin_instance
libCoco.so:qt_plugin_query_metadata_v2
libCodePaster.so:qt_plugin_instance
libCodePaster.so:qt_plugin_query_metadata_v2
libCompilationDatabaseProjectManager.so:qt_plugin_instance
libCompilationDatabaseProjectManager.so:qt_plugin_query_metadata_v2
libConan.so:qt_plugin_instance
libConan.so:qt_plugin_query_metadata_v2
libCore.so:_ZN14ManhattanStyle11qt_metacallEN11QMetaObject4CallEiPPv
libCore.so:_ZN14ManhattanStyle11qt_metacastEPKc
libCore.so:_ZN14ManhattanStyle16staticMetaObjectE
libCore.so:_ZN14ManhattanStyle19drawButtonSeparatorEP8QPainterRK5QRectb
libCore.so:_ZN14ManhattanStyle6polishEP12QApplication
libCore.so:_ZN14ManhattanStyle6polishEP7QWidget
libCore.so:_ZN14ManhattanStyle6polishER8QPalette
libCore.so:_ZN14ManhattanStyle8unpolishEP12QApplication
libCore.so:_ZN14ManhattanStyle8unpolishEP7QWidget
libCore.so:_ZN14ManhattanStyleC1ERK7QString
libCore.so:_ZN14ManhattanStyleC2ERK7QString
libCore.so:_ZN14ManhattanStyleD0Ev
libCore.so:_ZN14ManhattanStyleD1Ev
libCore.so:_ZN14ManhattanStyleD2Ev
libCore.so:_ZN4Core10DesignMode11qt_metacallEN11QMetaObject4CallEiPPv
libCore.so:_ZN4Core10DesignMode11qt_metacastEPKc
libCore.so:_ZN4Core10DesignMode13updateActionsEv
libCore.so:_ZN4Core10DesignMode13updateContextEN5Utils2IdES2_
libCore.so:_ZN4Core10DesignMode14actionsUpdatedEPNS_7IEditorE
libCore.so:_ZN4Core10DesignMode16setActiveContextERKNS_7ContextE
libCore.so:_ZN4Core10DesignMode16staticMetaObjectE
libCore.so:_ZN4Core10DesignMode20createModeIfRequiredEv
libCore.so:_ZN4Core10DesignMode20currentEditorChangedEPNS_7IEditorE
libCore.so:_ZN4Core10DesignMode20registerDesignWidgetEP7QWidgetRK5QListI7QStringERKNS_7ContextE
libCore.so:_ZN4Core10DesignMode21destroyModeIfRequiredEv
libCore.so:_ZN4Core10DesignMode22unregisterDesignWidgetEP7QWidget
libCore.so:_ZN4Core10DesignMode23setDesignModeIsRequiredEv
libCore.so:_ZN4Core10DesignMode8instanceEv
libCore.so:_ZN4Core10DesignModeC1Ev
libCore.so:_ZN4Core10DesignModeC2Ev
libCore.so:_ZN4Core10DesignModeD0Ev
libCore.so:_ZN4Core10DesignModeD1Ev
libCore.so:_ZN4Core10DesignModeD2Ev
libCore.so:_ZN4Core10EditorType11qt_metacallEN11QMetaObject4CallEiPPv
libCore.so:_ZN4Core10EditorType11qt_metacastEPKc
libCore.so:_ZN4Core10EditorType14allEditorTypesEv
libCore.so:_ZN4Core10EditorType15editorTypeForIdERKN5Utils2IdE
libCore.so:_ZN4Core10EditorType16staticMetaObjectE
libCore.so:_ZN4Core10EditorType18defaultEditorTypesERKN5Utils8MimeTypeE
libCore.so:_ZN4Core10EditorType20preferredEditorTypesERKN5Utils8FilePathE
libCore.so:_ZN4Core10EditorTypeC1Ev
libCore.so:_ZN4Core10EditorTypeC2Ev
libCore.so:_ZN4Core10EditorTypeD0Ev
libCore.so:_ZN4Core10EditorTypeD1Ev
libCore.so:_ZN4Core10EditorTypeD2Ev
libCore.so:_ZN4Core10JsExpander14registerObjectERK7QStringP7QObject
libCore.so:_ZN4Core10JsExpander19registerForExpanderEPN5Utils13MacroExpanderE
libCore.so:_ZN4Core10JsExpander20registerGlobalObjectERK7QStringRKSt8functionIFP7QObjectvEE
libCore.so:_ZN4Core10JsExpander22createGlobalJsExpanderEv
libCore.so:_ZN4Core10JsExpander6engineEv
libCore.so:_ZN4Core10JsExpander8evaluateERK7QStringPS1_
libCore.so:_ZN4Core10JsExpanderC1Ev
libCore.so:_ZN4Core10JsExpanderC2Ev
libCore.so:_ZN4Core10JsExpanderD1Ev
libCore.so:_ZN4Core10JsExpanderD2Ev
libCore.so:_ZN4Core10VcsManager11promptToAddERKN5Utils8FilePathERK5QListIS2_E
libCore.so:_ZN4Core10VcsManager11qt_metacallEN11QMetaObject4CallEiPPv
libCore.so:_ZN4Core10VcsManager11qt_metacastEPKc
libCore.so:_ZN4Core10VcsManager12repositoriesEPKNS_15IVersionControlE
libCore.so:_ZN4Core10VcsManager14promptToDeleteEPNS_15IVersionControlERK5QListIN5Utils8FilePathEE
libCore.so:_ZN4Core10VcsManager14promptToDeleteEPNS_15IVersionControlERKN5Utils8FilePathE
libCore.so:_ZN4Core10VcsManager14promptToDeleteERK5QListIN5Utils8FilePathEE
libCore.so:_ZN4Core10VcsManager14versionControlEN5Utils2IdE
libCore.so:_ZN4Core10VcsManager15versionControlsEv
libCore.so:_ZN4Core10VcsManager16msgAddToVcsTitleEv
libCore.so:_ZN4Core10VcsManager16staticMetaObjectE
libCore.so:_ZN4Core10VcsManager17addVersionControlEPNS_15IVersionControlE
libCore.so:_ZN4Core10VcsManager17repositoryChangedERKN5Utils8FilePathE
libCore.so:_ZN4Core10VcsManager19additionalToolsPathEv
libCore.so:_ZN4Core10VcsManager19msgPromptToAddToVcsERK5QListI7QStringEPKNS_15IVersionControlE
libCore.so:_ZN4Core10VcsManager19msgToAddToVcsFailedERK5QListI7QStringEPKNS_15IVersionControlE
libCore.so:_ZN4Core10VcsManager20configurationChangedEPKNS_15IVersionControlE
libCore.so:_ZN4Core10VcsManager21emitRepositoryChangedERKN5Utils8FilePathE
libCore.so:_ZN4Core10VcsManager21extensionsInitializedEv
libCore.so:_ZN4Core10VcsManager22msgAddToVcsFailedTitleEv
libCore.so:_ZN4Core10VcsManager24clearVersionControlCacheEv
libCore.so:_ZN4Core10VcsManager24findTopLevelForDirectoryERKN5Utils8FilePathE
libCore.so:_ZN4Core10VcsManager26handleConfigurationChangesEPNS_15IVersionControlE
libCore.so:_ZN4Core10VcsManager30findVersionControlForDirectoryERKN5Utils8FilePathEPS2_
libCore.so:_ZN4Core10VcsManager31resetVersionControlForDirectoryERKN5Utils8FilePathE
libCore.so:_ZN4Core10VcsManager8instanceEv
libCore.so:_ZN4Core10VcsManagerC1EP7QObject
libCore.so:_ZN4Core10VcsManagerC2EP7QObject
libCore.so:_ZN4Core10VcsManagerD0Ev
libCore.so:_ZN4Core10VcsManagerD1Ev
libCore.so:_ZN4Core10VcsManagerD2Ev
libCore.so:_ZN4Core11DiffService8instanceEv
libCore.so:_ZN4Core11DiffServiceC2Ev
libCore.so:_ZN4Core11DiffServiceD0Ev
libCore.so:_ZN4Core11DiffServiceD1Ev
libCore.so:_ZN4Core11DiffServiceD2Ev
libCore.so:_ZN4Core11HelpManager11showHelpUrlERK4QUrlNS0_18HelpViewerLocationE
libCore.so:_ZN4Core11HelpManager11showHelpUrlERK7QStringNS0_18HelpViewerLocationE
libCore.so:_ZN4Core11HelpManager14ImplementationC2Ev
libCore.so:_ZN4Core11HelpManager14ImplementationD0Ev
libCore.so:_ZN4Core11HelpManager14ImplementationD1Ev
libCore.so:_ZN4Core11HelpManager14ImplementationD2Ev
libCore.so:_ZN4Core11HelpManager15linksForKeywordERK7QString
libCore.so:_ZN4Core11HelpManager17documentationPathEv
libCore.so:_ZN4Core11HelpManager18linksForIdentifierERK7QString
libCore.so:_ZN4Core11HelpManager21registerDocumentationERK5QListI7QStringE
libCore.so:_ZN4Core11HelpManager23unregisterDocumentationERK5QListI7QStringE
libCore.so:_ZN4Core11HelpManager7Signals11qt_metacallEN11QMetaObject4CallEiPPv
libCore.so:_ZN4Core11HelpManager7Signals11qt_metacastEPKc
libCore.so:_ZN4Core11HelpManager7Signals13setupFinishedEv
libCore.so:_ZN4Core11HelpManager7Signals16staticMetaObjectE
libCore.so:_ZN4Core11HelpManager7Signals20documentationChangedEv
libCore.so:_ZN4Core11HelpManager7Signals8instanceEv
libCore.so:_ZN4Core11HelpManager8fileDataERK4QUrl
libCore.so:_ZN4Core11IFindFilter11qt_metacallEN11QMetaObject4CallEiPPv
libCore.so:_ZN4Core11IFindFilter11qt_metacastEPKc
libCore.so:_ZN4Core11IFindFilter12validChangedEb
libCore.so:_ZN4Core11IFindFilter14allFindFiltersEv
libCore.so:_ZN4Core11IFindFilter14enabledChangedEb
libCore.so:_ZN4Core11IFindFilter16staticMetaObjectE
libCore.so:_ZN4Core11IFindFilter18displayNameChangedEv
libCore.so:_ZN4Core11IFindFilter18pixmapForFindFlagsE6QFlagsINS_8FindFlagEE
libCore.so:_ZN4Core11IFindFilter23descriptionForFindFlagsE6QFlagsINS_8FindFlagEE
libCore.so:_ZN4Core11IFindFilterC2Ev
libCore.so:_ZN4Core11IFindFilterD0Ev
libCore.so:_ZN4Core11IFindFilterD1Ev
libCore.so:_ZN4Core11IFindFilterD2Ev
libCore.so:_ZN4Core11IOutputPane10togglePageEi
libCore.so:_ZN4Core11IOutputPane11flashButtonEv
libCore.so:_ZN4Core11IOutputPane11fontChangedERK5QFont
libCore.so:_ZN4Core11IOutputPane11qt_metacallEN11QMetaObject4CallEiPPv
libCore.so:_ZN4Core11IOutputPane11qt_metacastEPKc
libCore.so:_ZN4Core11IOutputPane12setupContextEPKcP7QWidget
libCore.so:_ZN4Core11IOutputPane12updateFilterEv
libCore.so:_ZN4Core11IOutputPane13setupFilterUiERK7QString
libCore.so:_ZN4Core11IOutputPane14setBadgeNumberEi
libCore.so:_ZN4Core11IOutputPane15zoomInRequestedEi
libCore.so:_ZN4Core11IOutputPane16setCaseSensitiveEb
libCore.so:_ZN4Core11IOutputPane16staticMetaObjectE
libCore.so:_ZN4Core11IOutputPane16zoomOutRequestedEi
libCore.so:_ZN4Core11IOutputPane17visibilityChangedEb
libCore.so:_ZN4Core11IOutputPane18resetZoomRequestedEv
libCore.so:_ZN4Core11IOutputPane19navigateStateUpdateEv
libCore.so:_ZN4Core11IOutputPane19setFilteringEnabledEb
libCore.so:_ZN4Core11IOutputPane19setWheelZoomEnabledEb
libCore.so:_ZN4Core11IOutputPane21setRegularExpressionsEb
libCore.so:_ZN4Core11IOutputPane21setZoomButtonsEnabledEb
libCore.so:_ZN4Core11IOutputPane23wheelZoomEnabledChangedEb
libCore.so:_ZN4Core11IOutputPane25filterOutputButtonClickedEv
libCore.so:_ZN4Core11IOutputPane7setFontERK5QFont
libCore.so:_ZN4Core11IOutputPane8hidePageEv
libCore.so:_ZN4Core11IOutputPane8showPageEi
libCore.so:_ZN4Core11IOutputPaneC2EP7QObject
libCore.so:_ZN4Core11IOutputPaneD0Ev
libCore.so:_ZN4Core11IOutputPaneD1Ev
libCore.so:_ZN4Core11IOutputPaneD2Ev
libCore.so:_ZN4Core11ModeManager10removeModeEPNS_5IModeE
libCore.so:_ZN4Core11ModeManager11currentModeEv
libCore.so:_ZN4Core11ModeManager11qt_metacallEN11QMetaObject4CallEiPPv
libCore.so:_ZN4Core11ModeManager11qt_metacastEPKc
libCore.so:_ZN4Core11ModeManager12activateModeEN5Utils2IdE
libCore.so:_ZN4Core11ModeManager12setModeStyleENS0_5StyleE
libCore.so:_ZN4Core11ModeManager13currentModeIdEv
libCore.so:_ZN4Core11ModeManager14cycleModeStyleEv
libCore.so:_ZN4Core11ModeManager16staticMetaObjectE
libCore.so:_ZN4Core11ModeManager17currentTabChangedEi
libCore.so:_ZN4Core11ModeManager18addProjectSelectorEP7QAction
libCore.so:_ZN4Core11ModeManager18currentModeChangedEN5Utils2IdES2_
libCore.so:_ZN4Core11ModeManager21extensionsInitializedEv
libCore.so:_ZN4Core11ModeManager21setFocusToCurrentModeEv
libCore.so:_ZN4Core11ModeManager23currentTabAboutToChangeEi
libCore.so:_ZN4Core11ModeManager24currentModeAboutToChangeEN5Utils2IdE
libCore.so:_ZN4Core11ModeManager7addModeEPNS_5IModeE
libCore.so:_ZN4Core11ModeManager8instanceEv
libCore.so:_ZN4Core11ModeManager9addActionEP7QActioni
libCore.so:_ZN4Core11ModeManager9modeStyleEv
libCore.so:_ZN4Core11ModeManagerC1EPNS_8Internal10MainWindowEPNS1_14FancyTabWidgetE
libCore.so:_ZN4Core11ModeManagerC2EPNS_8Internal10MainWindowEPNS1_14FancyTabWidgetE
libCore.so:_ZN4Core11ModeManagerD0Ev
libCore.so:_ZN4Core11ModeManagerD1Ev
libCore.so:_ZN4Core11ModeManagerD2Ev
libCore.so:_ZN4Core11SideBarItem11qt_metacallEN11QMetaObject4CallEiPPv
libCore.so:_ZN4Core11SideBarItem11qt_metacastEPKc
libCore.so:_ZN4Core11SideBarItem16staticMetaObjectE
libCore.so:_ZN4Core11SideBarItem20createToolBarWidgetsEv
libCore.so:_ZN4Core11SideBarItemC1EP7QWidgetRK7QString
libCore.so:_ZN4Core11SideBarItemC2EP7QWidgetRK7QString
libCore.so:_ZN4Core11SideBarItemD0Ev
libCore.so:_ZN4Core11SideBarItemD1Ev
libCore.so:_ZN4Core11SideBarItemD2Ev
libCore.so:_ZN4Core12BaseTextFind10replaceAllERK7QStringS3_6QFlagsINS_8FindFlagEE
libCore.so:_ZN4Core12BaseTextFind11qt_metacallEN11QMetaObject4CallEiPPv
libCore.so:_ZN4Core12BaseTextFind11qt_metacastEPKc
libCore.so:_ZN4Core12BaseTextFind11replaceStepERK7QStringS3_6QFlagsINS_8FindFlagEE
libCore.so:_ZN4Core12BaseTextFind12highlightAllERK7QString6QFlagsINS_8FindFlagEE
libCore.so:_ZN4Core12BaseTextFind13setTextCursorERK11QTextCursor
libCore.so:_ZN4Core12BaseTextFind14clearFindScopeEv
libCore.so:_ZN4Core12BaseTextFind15clearHighlightsEv
libCore.so:_ZN4Core12BaseTextFind15defineFindScopeEv
libCore.so:_ZN4Core12BaseTextFind15findIncrementalERK7QString6QFlagsINS_8FindFlagEE
libCore.so:_ZN4Core12BaseTextFind15replaceInternalERK7QStringS3_6QFlagsINS_8FindFlagEE
libCore.so:_ZN4Core12BaseTextFind16findScopeChangedERKN5Utils15MultiTextCursorE
libCore.so:_ZN4Core12BaseTextFind16staticMetaObjectE
libCore.so:_ZN4Core12BaseTextFind17regularExpressionERK7QString6QFlagsINS_8FindFlagEE
libCore.so:_ZN4Core12BaseTextFind21highlightAllRequestedERK7QString6QFlagsINS_8FindFlagEE
libCore.so:_ZN4Core12BaseTextFind22resetIncrementalSearchEv
libCore.so:_ZN4Core12BaseTextFind26setMultiTextCursorProviderERKSt8functionIFN5Utils15MultiTextCursorEvEE
libCore.so:_ZN4Core12BaseTextFind4findERK7QString6QFlagsINS_8FindFlagEE11QTextCursorPb
libCore.so:_ZN4Core12BaseTextFind7replaceERK7QStringS3_6QFlagsINS_8FindFlagEE
libCore.so:_ZN4Core12BaseTextFind8findStepERK7QString6QFlagsINS_8FindFlagEE
libCore.so:_ZN4Core12BaseTextFindC1EP14QPlainTextEdit
libCore.so:_ZN4Core12BaseTextFindC1EP9QTextEdit
libCore.so:_ZN4Core12BaseTextFindC2EP14QPlainTextEdit
libCore.so:_ZN4Core12BaseTextFindC2EP9QTextEdit
libCore.so:_ZN4Core12BaseTextFindD0Ev
libCore.so:_ZN4Core12BaseTextFindD1Ev
libCore.so:_ZN4Core12BaseTextFindD2Ev
libCore.so:_ZN4Core12ExternalTool11qt_metacallEN11QMetaObject4CallEiPPv
libCore.so:_ZN4Core12ExternalTool11qt_metacastEPKc
libCore.so:_ZN4Core12ExternalTool11setFilePathERKN5Utils8FilePathE
libCore.so:_ZN4Core12ExternalTool12setArgumentsERK7QString
libCore.so:_ZN4Core12ExternalTool13createFromXmlERK10QByteArrayP7QStringRKS4_
libCore.so:_ZN4Core12ExternalTool14createFromFileERKN5Utils8FilePathEP7QStringRKS5_
libCore.so:_ZN4Core12ExternalTool14setDescriptionERK7QString
libCore.so:_ZN4Core12ExternalTool14setDisplayNameERK7QString
libCore.so:_ZN4Core12ExternalTool14setExecutablesERK5QListIN5Utils8FilePathEE
libCore.so:_ZN4Core12ExternalTool16setErrorHandlingENS0_14OutputHandlingE
libCore.so:_ZN4Core12ExternalTool16staticMetaObjectE
libCore.so:_ZN4Core12ExternalTool17setOutputHandlingENS0_14OutputHandlingE
libCore.so:_ZN4Core12ExternalTool18setDisplayCategoryERK7QString
libCore.so:_ZN4Core12ExternalTool19setWorkingDirectoryERKN5Utils8FilePathE
libCore.so:_ZN4Core12ExternalTool25setEnvironmentUserChangesERK5QListIN5Utils13NameValueItemEE
libCore.so:_ZN4Core12ExternalTool26setModifiesCurrentDocumentEb
libCore.so:_ZN4Core12ExternalTool28setBaseEnvironmentProviderIdEN5Utils2IdE
libCore.so:_ZN4Core12ExternalTool5setIdERK7QString
libCore.so:_ZN4Core12ExternalTool8setInputERK7QString
libCore.so:_ZN4Core12ExternalTool9setPresetE14QSharedPointerIS0_E
libCore.so:_ZN4Core12ExternalToolC1EPKS0_
libCore.so:_ZN4Core12ExternalToolC1Ev
libCore.so:_ZN4Core12ExternalToolC2EPKS0_
libCore.so:_ZN4Core12ExternalToolC2Ev
libCore.so:_ZN4Core12ExternalToolD0Ev
libCore.so:_ZN4Core12ExternalToolD1Ev
libCore.so:_ZN4Core12ExternalToolD2Ev
libCore.so:_ZN4Core12ExternalToolaSERKS0_
libCore.so:_ZN4Core12IFindSupport10replaceAllERK7QStringS3_6QFlagsINS_8FindFlagEE
libCore.so:_ZN4Core12IFindSupport11qt_metacallEN11QMetaObject4CallEiPPv
libCore.so:_ZN4Core12IFindSupport11qt_metacastEPKc
libCore.so:_ZN4Core12IFindSupport11replaceStepERK7QStringS3_6QFlagsINS_8FindFlagEE
libCore.so:_ZN4Core12IFindSupport16staticMetaObjectE
libCore.so:_ZN4Core12IFindSupport17showWrapIndicatorEP7QWidget
libCore.so:_ZN4Core12IFindSupport7changedEv
libCore.so:_ZN4Core12IFindSupport7replaceERK7QStringS3_6QFlagsINS_8FindFlagEE
libCore.so:_ZN4Core12IFindSupport9selectAllERK7QString6QFlagsINS_8FindFlagEE
libCore.so:_ZN4Core12IOptionsPage11qt_metacallEN11QMetaObject4CallEiPPv
libCore.so:_ZN4Core12IOptionsPage11qt_metacastEPKc
libCore.so:_ZN4Core12IOptionsPage11setLayouterERKSt8functionIFvP7QWidgetEE
libCore.so:_ZN4Core12IOptionsPage11setSettingsEPN5Utils15AspectContainerE
libCore.so:_ZN4Core12IOptionsPage15allOptionsPagesEv
libCore.so:_ZN4Core12IOptionsPage16setWidgetCreatorERKSt8functionIFPNS_18IOptionsPageWidgetEvEE
libCore.so:_ZN4Core12IOptionsPage16staticMetaObjectE
libCore.so:_ZN4Core12IOptionsPage19setCategoryIconPathERKN5Utils8FilePathE
libCore.so:_ZN4Core12IOptionsPage5applyEv
libCore.so:_ZN4Core12IOptionsPage6finishEv
libCore.so:_ZN4Core12IOptionsPage6widgetEv
libCore.so:_ZN4Core12IOptionsPageC1EP7QObjectb
libCore.so:_ZN4Core12IOptionsPageC2EP7QObjectb
libCore.so:_ZN4Core12IOptionsPageD0Ev
libCore.so:_ZN4Core12IOptionsPageD1Ev
libCore.so:_ZN4Core12IOptionsPageD2Ev
libCore.so:_ZN4Core12IWelcomePage11qt_metacallEN11QMetaObject4CallEiPPv
libCore.so:_ZN4Core12IWelcomePage11qt_metacastEPKc
libCore.so:_ZN4Core12IWelcomePage15allWelcomePagesEv
libCore.so:_ZN4Core12IWelcomePage16staticMetaObjectE
libCore.so:_ZN4Core12IWelcomePageC2Ev
libCore.so:_ZN4Core12IWelcomePageD0Ev
libCore.so:_ZN4Core12IWelcomePageD1Ev
libCore.so:_ZN4Core12IWelcomePageD2Ev
libCore.so:_ZN4Core12ItemViewFind11qt_metacallEN11QMetaObject4CallEiPPv
libCore.so:_ZN4Core12ItemViewFind11qt_metacastEPKc
libCore.so:_ZN4Core12ItemViewFind12highlightAllERK7QString6QFlagsINS_8FindFlagEE
libCore.so:_ZN4Core12ItemViewFind14followingIndexERK11QModelIndexbPb
libCore.so:_ZN4Core12ItemViewFind15clearHighlightsEv
libCore.so:_ZN4Core12ItemViewFind15findIncrementalERK7QString6QFlagsINS_8FindFlagEE
libCore.so:_ZN4Core12ItemViewFind16staticMetaObjectE
libCore.so:_ZN4Core12ItemViewFind22resetIncrementalSearchEv
libCore.so:_ZN4Core12ItemViewFind23createSearchableWrapperEP17QAbstractItemViewNS0_11ColorOptionENS0_11FetchOptionE
libCore.so:_ZN4Core12ItemViewFind23createSearchableWrapperEPS0_NS0_11ColorOptionE
libCore.so:_ZN4Core12ItemViewFind4findERK7QString6QFlagsINS_8FindFlagEEbPb
libCore.so:_ZN4Core12ItemViewFind8findStepERK7QString6QFlagsINS_8FindFlagEE
libCore.so:_ZN4Core12ItemViewFindC1EP17QAbstractItemViewiNS0_11FetchOptionE
libCore.so:_ZN4Core12ItemViewFindC2EP17QAbstractItemViewiNS0_11FetchOptionE
libCore.so:_ZN4Core12ItemViewFindD0Ev
libCore.so:_ZN4Core12ItemViewFindD1Ev
libCore.so:_ZN4Core12ItemViewFindD2Ev
libCore.so:_ZN4Core12MiniSplitter12createHandleEv
libCore.so:_ZN4Core12MiniSplitterC1EN2Qt11OrientationEP7QWidgetNS0_13SplitterStyleE
libCore.so:_ZN4Core12MiniSplitterC1EP7QWidgetNS0_13SplitterStyleE
libCore.so:_ZN4Core12MiniSplitterC2EN2Qt11OrientationEP7QWidgetNS0_13SplitterStyleE
libCore.so:_ZN4Core12MiniSplitterC2EP7QWidgetNS0_13SplitterStyleE
libCore.so:_ZN4Core12OptionsPopup11eventFilterEP7QObjectP6QEvent
libCore.so:_ZN4Core12OptionsPopup11qt_metacallEN11QMetaObject4CallEiPPv
libCore.so:_ZN4Core12OptionsPopup11qt_metacastEPKc
libCore.so:_ZN4Core12OptionsPopup16staticMetaObjectE
libCore.so:_ZN4Core12OptionsPopup24createCheckboxForCommandEN5Utils2IdE
libCore.so:_ZN4Core12OptionsPopup5eventEP6QEvent
libCore.so:_ZN4Core12OptionsPopupC1EP7QWidgetRK5QListIN5Utils2IdEE
libCore.so:_ZN4Core12OptionsPopupC2EP7QWidgetRK5QListIN5Utils2IdEE
libCore.so:_ZN4Core12OutputWindow10handleLinkERK6QPoint
libCore.so:_ZN4Core12OutputWindow10wheelEventEP11QWheelEvent
libCore.so:_ZN4Core12OutputWindow11qt_metacallEN11QMetaObject4CallEiPPv
libCore.so:_ZN4Core12OutputWindow11qt_metacastEPKc
libCore.so:_ZN4Core12OutputWindow11resizeEventEP12QResizeEvent
libCore.so:_ZN4Core12OutputWindow11setBaseFontERK5QFont
libCore.so:_ZN4Core12OutputWindow11setFontZoomEf
libCore.so:_ZN4Core12OutputWindow13appendMessageERK7QStringN5Utils12OutputFormatE
libCore.so:_ZN4Core12OutputWindow13keyPressEventEP9QKeyEvent
libCore.so:_ZN4Core12OutputWindow14enableUndoRedoEv
libCore.so:_ZN4Core12OutputWindow14mouseMoveEventEP11QMouseEvent
libCore.so:_ZN4Core12OutputWindow14scrollToBottomEv
libCore.so:_ZN4Core12OutputWindow14setLineParsersERK5QListIPN5Utils16OutputLineParserEE
libCore.so:_ZN4Core12OutputWindow14showPositionOfEj
libCore.so:_ZN4Core12OutputWindow15mousePressEventEP11QMouseEvent
libCore.so:_ZN4Core12OutputWindow15setMaxCharCountEi
libCore.so:_ZN4Core12OutputWindow16filterNewContentEv
libCore.so:_ZN4Core12OutputWindow16staticMetaObjectE
libCore.so:_ZN4Core12OutputWindow16updateAutoScrollEv
libCore.so:_ZN4Core12OutputWindow17grayOutOldContentEv
libCore.so:_ZN4Core12OutputWindow17handleOutputChunkERK7QStringN5Utils12OutputFormatE
libCore.so:_ZN4Core12OutputWindow17mouseReleaseEventEP11QMouseEvent
libCore.so:_ZN4Core12OutputWindow18registerPositionOfEjiii
libCore.so:_ZN4Core12OutputWindow18setWordWrapEnabledEb
libCore.so:_ZN4Core12OutputWindow19setWheelZoomEnabledEb
libCore.so:_ZN4Core12OutputWindow21handleNextOutputChunkEv
libCore.so:_ZN4Core12OutputWindow22updateFilterPropertiesERK7QStringN2Qt15CaseSensitivityEbb
libCore.so:_ZN4Core12OutputWindow5clearEv
libCore.so:_ZN4Core12OutputWindow5flushEv
libCore.so:_ZN4Core12OutputWindow5resetEv
libCore.so:_ZN4Core12OutputWindow9showEventEP10QShowEvent
libCore.so:_ZN4Core12OutputWindow9wheelZoomEv
libCore.so:_ZN4Core12OutputWindowC1ENS_7ContextERK7QStringP7QWidget
libCore.so:_ZN4Core12OutputWindowC2ENS_7ContextERK7QStringP7QWidget
libCore.so:_ZN4Core12OutputWindowD0Ev
libCore.so:_ZN4Core12OutputWindowD1Ev
libCore.so:_ZN4Core12OutputWindowD2Ev
libCore.so:_ZN4Core12SearchResult10addResultsERK5QListINS_16SearchResultItemEENS0_7AddModeE
libCore.so:_ZN4Core12SearchResult11qt_metacallEN11QMetaObject4CallEiPPv
libCore.so:_ZN4Core12SearchResult11qt_metacastEPKc
libCore.so:_ZN4Core12SearchResult11setUserDataERK8QVariant
libCore.so:_ZN4Core12SearchResult12countChangedEi
libCore.so:_ZN4Core12SearchResult12finishSearchEbRK7QString
libCore.so:_ZN4Core12SearchResult16setTextToReplaceERK7QString
libCore.so:_ZN4Core12SearchResult16staticMetaObjectE
libCore.so:_ZN4Core12SearchResult17setReplaceEnabledEb
libCore.so:_ZN4Core12SearchResult17visibilityChangedEb
libCore.so:_ZN4Core12SearchResult18makeNonInteractiveERKSt8functionIFvvEE
libCore.so:_ZN4Core12SearchResult18replaceTextChangedERK7QString
libCore.so:_ZN4Core12SearchResult19requestEnabledCheckEv
libCore.so:_ZN4Core12SearchResult20replaceButtonClickedERK7QStringRK5QListINS_16SearchResultItemEEb
libCore.so:_ZN4Core12SearchResult20searchAgainRequestedEv
libCore.so:_ZN4Core12SearchResult21setSearchAgainEnabledEb
libCore.so:_ZN4Core12SearchResult23setSearchAgainSupportedEb
libCore.so:_ZN4Core12SearchResult26setAdditionalReplaceWidgetEP7QWidget
libCore.so:_ZN4Core12SearchResult5popupEv
libCore.so:_ZN4Core12SearchResult6pausedEb
libCore.so:_ZN4Core12SearchResult7restartEv
libCore.so:_ZN4Core12SearchResult8canceledEv
libCore.so:_ZN4Core12SearchResult9activatedERKNS_16SearchResultItemE
libCore.so:_ZN4Core12SearchResult9addResultERKNS_16SearchResultItemE
libCore.so:_ZN4Core12SearchResult9setFilterEPNS_18SearchResultFilterE
libCore.so:_ZN4Core12SearchResultC1EPNS_8Internal18SearchResultWidgetE
libCore.so:_ZN4Core12SearchResultC2EPNS_8Internal18SearchResultWidgetE
libCore.so:_ZN4Core12TaskProgress11qt_metacallEN11QMetaObject4CallEiPPv
libCore.so:_ZN4Core12TaskProgress11qt_metacastEPKc
libCore.so:_ZN4Core12TaskProgress11setSubtitleERK7QString
libCore.so:_ZN4Core12TaskProgress14setDisplayNameERK7QString
libCore.so:_ZN4Core12TaskProgress15setKeepOnFinishENS_14FutureProgress16KeepOnFinishTypeE
libCore.so:_ZN4Core12TaskProgress16staticMetaObjectE
libCore.so:_ZN4Core12TaskProgress19setAutoStopOnCancelEb
libCore.so:_ZN4Core12TaskProgress22setHalfLifeTimePerTaskEi
libCore.so:_ZN4Core12TaskProgress29setSubtitleVisibleInStatusBarEb
libCore.so:_ZN4Core12TaskProgress5setIdEN5Utils2IdE
libCore.so:_ZN4Core12TaskProgress8canceledEv
libCore.so:_ZN4Core12TaskProgressC1EPN5Utils8TaskTreeE
libCore.so:_ZN4Core12TaskProgressC2EPN5Utils8TaskTreeE
libCore.so:_ZN4Core12TaskProgressD0Ev
libCore.so:_ZN4Core12TaskProgressD1Ev
libCore.so:_ZN4Core12TaskProgressD2Ev
libCore.so:_ZN4Core13ActionManager10createMenuEN5Utils2IdE
libCore.so:_ZN4Core13ActionManager10setContextERKNS_7ContextE
libCore.so:_ZN4Core13ActionManager11qt_metacallEN11QMetaObject4CallEiPPv
libCore.so:_ZN4Core13ActionManager11qt_metacastEPKc
libCore.so:_ZN4Core13ActionManager12commandAddedEN5Utils2IdE
libCore.so:_ZN4Core13ActionManager12saveSettingsEv
libCore.so:_ZN4Core13ActionManager13createMenuBarEN5Utils2IdE
libCore.so:_ZN4Core13ActionManager14createTouchBarEN5Utils2IdERK5QIconRK7QString
libCore.so:_ZN4Core13ActionManager14registerActionEP7QActionN5Utils2IdERKNS_7ContextEb
libCore.so:_ZN4Core13ActionManager15actionContainerEN5Utils2IdE
libCore.so:_ZN4Core13ActionManager16staticMetaObjectE
libCore.so:_ZN4Core13ActionManager16unregisterActionEP7QActionN5Utils2IdE
libCore.so:_ZN4Core13ActionManager18commandListChangedEv
libCore.so:_ZN4Core13ActionManager21withNumberAcceleratorERK7QStringi
libCore.so:_ZN4Core13ActionManager25isPresentationModeEnabledEv
libCore.so:_ZN4Core13ActionManager26setPresentationModeEnabledEb
libCore.so:_ZN4Core13ActionManager7commandEN5Utils2IdE
libCore.so:_ZN4Core13ActionManager8commandsEv
libCore.so:_ZN4Core13ActionManager8instanceEv
libCore.so:_ZN4Core13ActionManagerC1EP7QObject
libCore.so:_ZN4Core13ActionManagerC2EP7QObject
libCore.so:_ZN4Core13ActionManagerD0Ev
libCore.so:_ZN4Core13ActionManagerD1Ev
libCore.so:_ZN4Core13ActionManagerD2Ev
libCore.so:_ZN4Core13CodecSelector11qt_metacallEN11QMetaObject4CallEiPPv
libCore.so:_ZN4Core13CodecSelector11qt_metacastEPKc
libCore.so:_ZN4Core13CodecSelector13buttonClickedEP15QAbstractButton
libCore.so:_ZN4Core13CodecSelector13updateButtonsEv
libCore.so:_ZN4Core13CodecSelector16staticMetaObjectE
libCore.so:_ZN4Core13CodecSelectorC1EP7QWidgetPNS_16BaseTextDocumentE
libCore.so:_ZN4Core13CodecSelectorC2EP7QWidgetPNS_16BaseTextDocumentE
libCore.so:_ZN4Core13CodecSelectorD0Ev
libCore.so:_ZN4Core13CodecSelectorD1Ev
libCore.so:_ZN4Core13CodecSelectorD2Ev
libCore.so:_ZN4Core13CommandAction11qt_metacallEN11QMetaObject4CallEiPPv
libCore.so:_ZN4Core13CommandAction11qt_metacastEPKc
libCore.so:_ZN4Core13CommandAction12setCommandIdEN5Utils2IdE
libCore.so:_ZN4Core13CommandAction13updateToolTipEv
libCore.so:_ZN4Core13CommandAction14setToolTipBaseERK7QString
libCore.so:_ZN4Core13CommandAction16staticMetaObjectE
libCore.so:_ZN4Core13CommandActionC1EN5Utils2IdEP7QWidget
libCore.so:_ZN4Core13CommandActionC1EP7QWidget
libCore.so:_ZN4Core13CommandActionC2EN5Utils2IdEP7QWidget
libCore.so:_ZN4Core13CommandActionC2EP7QWidget
libCore.so:_ZN4Core13CommandButton11qt_metacallEN11QMetaObject4CallEiPPv
libCore.so:_ZN4Core13CommandButton11qt_metacastEPKc
libCore.so:_ZN4Core13CommandButton12setCommandIdEN5Utils2IdE
libCore.so:_ZN4Core13CommandButton13updateToolTipEv
libCore.so:_ZN4Core13CommandButton14setToolTipBaseERK7QString
libCore.so:_ZN4Core13CommandButton16staticMetaObjectE
libCore.so:_ZN4Core13CommandButtonC1EN5Utils2IdEP7QWidget
libCore.so:_ZN4Core13CommandButtonC1EP7QWidget
libCore.so:_ZN4Core13CommandButtonC2EN5Utils2IdEP7QWidget
libCore.so:_ZN4Core13CommandButtonC2EP7QWidget
libCore.so:_ZN4Core13DocumentModel10entryAtRowEi
libCore.so:_ZN4Core13DocumentModel10entryCountEv
libCore.so:_ZN4Core13DocumentModel10lockedIconEv
libCore.so:_ZN4Core13DocumentModel13rowOfDocumentEPNS_9IDocumentE
libCore.so:_ZN4Core13DocumentModel15indexOfDocumentEPNS_9IDocumentE
libCore.so:_ZN4Core13DocumentModel15indexOfFilePathERKN5Utils8FilePathE
libCore.so:_ZN4Core13DocumentModel15openedDocumentsEv
libCore.so:_ZN4Core13DocumentModel16entryForDocumentEPNS_9IDocumentE
libCore.so:_ZN4Core13DocumentModel16entryForFilePathERKN5Utils8FilePathE
libCore.so:_ZN4Core13DocumentModel18editorsForDocumentEPNS_9IDocumentE
libCore.so:_ZN4Core13DocumentModel18editorsForFilePathERKN5Utils8FilePathE
libCore.so:_ZN4Core13DocumentModel19documentForFilePathERKN5Utils8FilePathE
libCore.so:_ZN4Core13DocumentModel19editorsForDocumentsERK5QListIPNS_9IDocumentEE
libCore.so:_ZN4Core13DocumentModel25editorsForOpenedDocumentsEv
libCore.so:_ZN4Core13DocumentModel4initEv
libCore.so:_ZN4Core13DocumentModel5EntryC1Ev
libCore.so:_ZN4Core13DocumentModel5EntryC2Ev
libCore.so:_ZN4Core13DocumentModel5EntryD1Ev
libCore.so:_ZN4Core13DocumentModel5EntryD2Ev
libCore.so:_ZN4Core13DocumentModel5modelEv
libCore.so:_ZN4Core13DocumentModel7destroyEv
libCore.so:_ZN4Core13DocumentModel7entriesEv
libCore.so:_ZN4Core13DocumentModelC1Ev
libCore.so:_ZN4Core13DocumentModelC2Ev
libCore.so:_ZN4Core13EditorManager10openEditorERKN5Utils8FilePathENS1_2IdE6QFlagsINS0_14OpenEditorFlagEEPb
libCore.so:_ZN4Core13EditorManager11aboutToSaveEPNS_9IDocumentE
libCore.so:_ZN4Core13EditorManager11hasSplitterEv
libCore.so:_ZN4Core13EditorManager11qt_metacallEN11QMetaObject4CallEiPPv
libCore.so:_ZN4Core13EditorManager11qt_metacastEPKc
libCore.so:_ZN4Core13EditorManager12closeEditorsERK5QListIPNS_7IEditorEEb
libCore.so:_ZN4Core13EditorManager12editorOpenedEPNS_7IEditorE
libCore.so:_ZN4Core13EditorManager12openEditorAtERKN5Utils4LinkENS1_2IdE6QFlagsINS0_14OpenEditorFlagEEPb
libCore.so:_ZN4Core13EditorManager12restoreStateERK10QByteArray
libCore.so:_ZN4Core13EditorManager12saveDocumentEPNS_9IDocumentE
libCore.so:_ZN4Core13EditorManager12saveDocumentEv
libCore.so:_ZN4Core13EditorManager13clearUniqueIdEPNS_9IDocumentE
libCore.so:_ZN4Core13EditorManager13currentEditorEv
libCore.so:_ZN4Core13EditorManager13editorCreatedEPNS_7IEditorERK7QString
libCore.so:_ZN4Core13EditorManager13editorsClosedE5QListIPNS_7IEditorEE
libCore.so:_ZN4Core13EditorManager13reloadSettingEv
libCore.so:_ZN4Core13EditorManager13revertToSavedEv
libCore.so:_ZN4Core13EditorManager14activateEditorEPNS_7IEditorE6QFlagsINS0_14OpenEditorFlagEE
libCore.so:_ZN4Core13EditorManager14closeDocumentsERK5QListIPNS_13DocumentModel5EntryEE
libCore.so:_ZN4Core13EditorManager14closeDocumentsERK5QListIPNS_9IDocumentEEb
libCore.so:_ZN4Core13EditorManager14documentClosedEPNS_9IDocumentE
libCore.so:_ZN4Core13EditorManager14documentOpenedEPNS_9IDocumentE
libCore.so:_ZN4Core13EditorManager14gotoOtherSplitEv
libCore.so:_ZN4Core13EditorManager14isAutoSaveFileERK7QString
libCore.so:_ZN4Core13EditorManager14saveDocumentAsEv
libCore.so:_ZN4Core13EditorManager14visibleEditorsEv
libCore.so:_ZN4Core13EditorManager15closeAllEditorsEb
libCore.so:_ZN4Core13EditorManager15currentDocumentEv
libCore.so:_ZN4Core13EditorManager15maxTextFileSizeEv
libCore.so:_ZN4Core13EditorManager15splitSideBySideEv
libCore.so:_ZN4Core13EditorManager16defaultTextCodecEv
libCore.so:_ZN4Core13EditorManager16getOpenFilePathsE6QFlagsIN11QFileDialog6OptionEE
libCore.so:_ZN4Core13EditorManager16setReloadSettingENS_9IDocument13ReloadSettingE
libCore.so:_ZN4Core13EditorManager16staticMetaObjectE
libCore.so:_ZN4Core13EditorManager17closeAllDocumentsEv
libCore.so:_ZN4Core13EditorManager17defaultLineEndingEv
libCore.so:_ZN4Core13EditorManager18editorAboutToCloseEPNS_7IEditorE
libCore.so:_ZN4Core13EditorManager18openExternalEditorERKN5Utils8FilePathENS1_2IdE
libCore.so:_ZN4Core13EditorManager18openFilePropertiesERKN5Utils8FilePathE
libCore.so:_ZN4Core13EditorManager18updateWindowTitlesEv
libCore.so:_ZN4Core13EditorManager19addPinEditorActionsEP5QMenuPNS_13DocumentModel5EntryE
libCore.so:_ZN4Core13EditorManager19closeOtherDocumentsEPNS_9IDocumentE
libCore.so:_ZN4Core13EditorManager19closeOtherDocumentsEv
libCore.so:_ZN4Core13EditorManager19hideEditorStatusBarERK7QString
libCore.so:_ZN4Core13EditorManager19setLastEditLocationEPKNS_7IEditorE
libCore.so:_ZN4Core13EditorManager19showEditorStatusBarERK7QStringS3_S3_P7QObjectRKSt8functionIFvvEE
libCore.so:_ZN4Core13EditorManager20currentEditorChangedEPNS_7IEditorE
libCore.so:_ZN4Core13EditorManager20documentStateChangedEPNS_9IDocumentE
libCore.so:_ZN4Core13EditorManager20populateOpenWithMenuEP5QMenuRKN5Utils8FilePathE
libCore.so:_ZN4Core13EditorManager22activateEditorForEntryEPNS_13DocumentModel5EntryE6QFlagsINS0_14OpenEditorFlagEE
libCore.so:_ZN4Core13EditorManager22addCloseEditorListenerERKSt8functionIFbPNS_7IEditorEEE
libCore.so:_ZN4Core13EditorManager22openEditorWithContentsEN5Utils2IdEP7QStringRK10QByteArrayRKS3_6QFlagsINS0_14OpenEditorFlagEE
libCore.so:_ZN4Core13EditorManager22setSessionTitleHandlerESt8functionIF7QStringRKN5Utils8FilePathEEE
libCore.so:_ZN4Core13EditorManager22skipOpeningBigTextFileERKN5Utils8FilePathE
libCore.so:_ZN4Core13EditorManager23findOnFileSystemRequestERK7QString
libCore.so:_ZN4Core13EditorManager24autoSaveAfterRefactoringEv
libCore.so:_ZN4Core13EditorManager24openEditorAtSearchResultERKNS_16SearchResultItemEN5Utils2IdE6QFlagsINS0_14OpenEditorFlagEEPb
libCore.so:_ZN4Core13EditorManager25activateEditorForDocumentEPNS_9IDocumentE6QFlagsINS0_14OpenEditorFlagEE
libCore.so:_ZN4Core13EditorManager25goBackInNavigationHistoryEv
libCore.so:_ZN4Core13EditorManager26currentEditorAboutToChangeEPNS_7IEditorE
libCore.so:_ZN4Core13EditorManager27currentDocumentStateChangedEv
libCore.so:_ZN4Core13EditorManager27cutForwardNavigationHistoryEv
libCore.so:_ZN4Core13EditorManager28addSaveAndCloseEditorActionsEP5QMenuPNS_13DocumentModel5EntryEPNS_7IEditorE
libCore.so:_ZN4Core13EditorManager28goForwardInNavigationHistoryEv
libCore.so:_ZN4Core13EditorManager29setWindowTitleAdditionHandlerESt8functionIF7QStringRKN5Utils8FilePathEEE
libCore.so:_ZN4Core13EditorManager29setWindowTitleVcsTopicHandlerESt8functionIF7QStringRKN5Utils8FilePathEEE
libCore.so:_ZN4Core13EditorManager30addNativeDirAndOpenWithActionsEP5QMenuPNS_13DocumentModel5EntryE
libCore.so:_ZN4Core13EditorManager32slotCloseCurrentEditorOrDocumentEv
libCore.so:_ZN4Core13EditorManager37addCurrentPositionToNavigationHistoryERK10QByteArray
libCore.so:_ZN4Core13EditorManager5savedEPNS_9IDocumentE
libCore.so:_ZN4Core13EditorManager8instanceEv
libCore.so:_ZN4Core13EditorManager9autoSavedEv
libCore.so:_ZN4Core13EditorManager9saveStateEv
libCore.so:_ZN4Core13EditorManagerC1EP7QObject
libCore.so:_ZN4Core13EditorManagerC2EP7QObject
libCore.so:_ZN4Core13EditorManagerD0Ev
libCore.so:_ZN4Core13EditorManagerD1Ev
libCore.so:_ZN4Core13EditorManagerD2Ev
libCore.so:_ZN4Core13EditorToolBar11closeEditorEv
libCore.so:_ZN4Core13EditorToolBar11eventFilterEP7QObjectP6QEvent
libCore.so:_ZN4Core13EditorToolBar11qt_metacallEN11QMetaObject4CallEiPPv
libCore.so:_ZN4Core13EditorToolBar11qt_metacastEPKc
libCore.so:_ZN4Core13EditorToolBar12closeClickedEv
libCore.so:_ZN4Core13EditorToolBar12setCanGoBackEb
libCore.so:_ZN4Core13EditorToolBar13goBackClickedEv
libCore.so:_ZN4Core13EditorToolBar13updateToolBarEP7QWidget
libCore.so:_ZN4Core13EditorToolBar15setCanGoForwardEb
libCore.so:_ZN4Core13EditorToolBar15setMenuProviderERKSt8functionIFvP5QMenuEE
libCore.so:_ZN4Core13EditorToolBar16addCenterToolBarEP7QWidget
libCore.so:_ZN4Core13EditorToolBar16goForwardClickedEv
libCore.so:_ZN4Core13EditorToolBar16setCurrentEditorEPNS_7IEditorE
libCore.so:_ZN4Core13EditorToolBar16staticMetaObjectE
libCore.so:_ZN4Core13EditorToolBar17closeSplitClickedEv
libCore.so:_ZN4Core13EditorToolBar17setCloseSplitIconERK5QIcon
libCore.so:_ZN4Core13EditorToolBar18changeActiveEditorEi
libCore.so:_ZN4Core13EditorToolBar18makeEditorWritableEv
libCore.so:_ZN4Core13EditorToolBar19checkDocumentStatusEPNS_9IDocumentE
libCore.so:_ZN4Core13EditorToolBar19fillListContextMenuEP5QMenu
libCore.so:_ZN4Core13EditorToolBar20currentDocumentMovedEv
libCore.so:_ZN4Core13EditorToolBar20setCloseSplitEnabledEb
libCore.so:_ZN4Core13EditorToolBar20setNavigationVisibleEb
libCore.so:_ZN4Core13EditorToolBar20updateDocumentStatusEPNS_9IDocumentE
libCore.so:_ZN4Core13EditorToolBar20verticalSplitClickedEv
libCore.so:_ZN4Core13EditorToolBar21splitNewWindowClickedEv
libCore.so:_ZN4Core13EditorToolBar21updateActionShortcutsEv
libCore.so:_ZN4Core13EditorToolBar22horizontalSplitClickedEv
libCore.so:_ZN4Core13EditorToolBar22listSelectionActivatedEi
libCore.so:_ZN4Core13EditorToolBar22removeToolbarForEditorEPNS_7IEditorE
libCore.so:_ZN4Core13EditorToolBar23setToolbarCreationFlagsENS0_20ToolbarCreationFlagsE
libCore.so:_ZN4Core13EditorToolBar9addEditorEPNS_7IEditorE
libCore.so:_ZN4Core13EditorToolBarC1EP7QWidget
libCore.so:_ZN4Core13EditorToolBarC2EP7QWidget
libCore.so:_ZN4Core13EditorToolBarD0Ev
libCore.so:_ZN4Core13EditorToolBarD1Ev
libCore.so:_ZN4Core13EditorToolBarD2Ev
libCore.so:_ZN4Core13GeneratedFile11setContentsERK7QString
libCore.so:_ZN4Core13GeneratedFile11setEditorIdEN5Utils2IdE
libCore.so:_ZN4Core13GeneratedFile11setFilePathERKN5Utils8FilePathE
libCore.so:_ZN4Core13GeneratedFile13setAttributesE6QFlagsINS0_9AttributeEE
libCore.so:_ZN4Core13GeneratedFile17setBinaryContentsERK10QByteArray
libCore.so:_ZN4Core13GeneratedFile9setBinaryEb
libCore.so:_ZN4Core13GeneratedFileC1ERKN5Utils8FilePathE
libCore.so:_ZN4Core13GeneratedFileC1ERKS0_
libCore.so:_ZN4Core13GeneratedFileC1Ev
libCore.so:_ZN4Core13GeneratedFileC2ERKN5Utils8FilePathE
libCore.so:_ZN4Core13GeneratedFileC2ERKS0_
libCore.so:_ZN4Core13GeneratedFileC2Ev
libCore.so:_ZN4Core13GeneratedFileD1Ev
libCore.so:_ZN4Core13GeneratedFileD2Ev
libCore.so:_ZN4Core13GeneratedFileaSERKS0_
libCore.so:_ZN4Core13ProgressTimer13handleTimeoutEv
libCore.so:_ZN4Core13ProgressTimerC1ERK20QFutureInterfaceBaseiP7QObject
libCore.so:_ZN4Core13ProgressTimerC2ERK20QFutureInterfaceBaseiP7QObject
libCore.so:_ZN4Core13RestartDialogC1EP7QWidgetRK7QString
libCore.so:_ZN4Core13RestartDialogC2EP7QWidgetRK7QString
libCore.so:_ZN4Core14BaseFileFilter10matchesForER16QFutureInterfaceINS_18LocatorFilterEntryEERK7QString
libCore.so:_ZN4Core14BaseFileFilter11qt_metacallEN11QMetaObject4CallEiPPv
libCore.so:_ZN4Core14BaseFileFilter11qt_metacastEPKc
libCore.so:_ZN4Core14BaseFileFilter12ListIterator4nextEv
libCore.so:_ZN4Core14BaseFileFilter12ListIterator7toFrontEv
libCore.so:_ZN4Core14BaseFileFilter12ListIteratorC1ERK5QListIN5Utils8FilePathEE
libCore.so:_ZN4Core14BaseFileFilter12ListIteratorC2ERK5QListIN5Utils8FilePathEE
libCore.so:_ZN4Core14BaseFileFilter12fileIteratorEv
libCore.so:_ZN4Core14BaseFileFilter12openEditorAtERKNS_18LocatorFilterEntryE
libCore.so:_ZN4Core14BaseFileFilter13matchLevelForERK23QRegularExpressionMatchRK7QString
libCore.so:_ZN4Core14BaseFileFilter13prepareSearchERK7QString
libCore.so:_ZN4Core14BaseFileFilter15setFileIteratorEPNS0_8IteratorE
libCore.so:_ZN4Core14BaseFileFilter16staticMetaObjectE
libCore.so:_ZN4Core14BaseFileFilter24updatePreviousResultDataEv
libCore.so:_ZN4Core14BaseFileFilter8IteratorD0Ev
libCore.so:_ZN4Core14BaseFileFilter8IteratorD1Ev
libCore.so:_ZN4Core14BaseFileFilter8IteratorD2Ev
libCore.so:_ZN4Core14BaseFileFilterC1Ev
libCore.so:_ZN4Core14BaseFileFilterC2Ev
libCore.so:_ZN4Core14BaseFileFilterD0Ev
libCore.so:_ZN4Core14BaseFileFilterD1Ev
libCore.so:_ZN4Core14BaseFileFilterD2Ev
libCore.so:_ZN4Core14BaseFileWizard11qt_metacallEN11QMetaObject4CallEiPPv
libCore.so:_ZN4Core14BaseFileWizard11qt_metacastEPKc
libCore.so:_ZN4Core14BaseFileWizard14extensionPagesEv
libCore.so:_ZN4Core14BaseFileWizard14initializePageEi
libCore.so:_ZN4Core14BaseFileWizard16generateFileListEv
libCore.so:_ZN4Core14BaseFileWizard16staticMetaObjectE
libCore.so:_ZN4Core14BaseFileWizard6acceptEv
libCore.so:_ZN4Core14BaseFileWizard6rejectEv
libCore.so:_ZN4Core14BaseFileWizardC1EPKNS_21BaseFileWizardFactoryERK4QMapI7QString8QVariantEP7QWidget
libCore.so:_ZN4Core14BaseFileWizardC2EPKNS_21BaseFileWizardFactoryERK4QMapI7QString8QVariantEP7QWidget
libCore.so:_ZN4Core14CommandLocator10matchesForER16QFutureInterfaceINS_18LocatorFilterEntryEERK7QString
libCore.so:_ZN4Core14CommandLocator11qt_metacallEN11QMetaObject4CallEiPPv
libCore.so:_ZN4Core14CommandLocator11qt_metacastEPKc
libCore.so:_ZN4Core14CommandLocator13appendCommandEPNS_7CommandE
libCore.so:_ZN4Core14CommandLocator13prepareSearchERK7QString
libCore.so:_ZN4Core14CommandLocator16staticMetaObjectE
libCore.so:_ZN4Core14CommandLocatorC1EN5Utils2IdERK7QStringS5_P7QObject
libCore.so:_ZN4Core14CommandLocatorC2EN5Utils2IdERK7QStringS5_P7QObject
libCore.so:_ZN4Core14CommandLocatorD0Ev
libCore.so:_ZN4Core14CommandLocatorD1Ev
libCore.so:_ZN4Core14CommandLocatorD2Ev
libCore.so:_ZN4Core14FutureProgress10paintEventEP11QPaintEvent
libCore.so:_ZN4Core14FutureProgress10setStartedEv
libCore.so:_ZN4Core14FutureProgress11eventFilterEP7QObjectP6QEvent
libCore.so:_ZN4Core14FutureProgress11fadeStartedEv
libCore.so:_ZN4Core14FutureProgress11qt_metacallEN11QMetaObject4CallEiPPv
libCore.so:_ZN4Core14FutureProgress11qt_metacastEPKc
libCore.so:_ZN4Core14FutureProgress11setFinishedEv
libCore.so:_ZN4Core14FutureProgress11setSubtitleERK7QString
libCore.so:_ZN4Core14FutureProgress13updateToolTipERK7QString
libCore.so:_ZN4Core14FutureProgress15hasErrorChangedEv
libCore.so:_ZN4Core14FutureProgress15setKeepOnFinishENS0_16KeepOnFinishTypeE
libCore.so:_ZN4Core14FutureProgress15setProgressTextERK7QString
libCore.so:_ZN4Core14FutureProgress16setCancelEnabledEb
libCore.so:_ZN4Core14FutureProgress16setProgressRangeEii
libCore.so:_ZN4Core14FutureProgress16setProgressValueEi
libCore.so:_ZN4Core14FutureProgress16staticMetaObjectE
libCore.so:_ZN4Core14FutureProgress17mouseReleaseEventEP11QMouseEvent
libCore.so:_ZN4Core14FutureProgress18setStatusBarWidgetEP7QWidget
libCore.so:_ZN4Core14FutureProgress22statusBarWidgetChangedEv
libCore.so:_ZN4Core14FutureProgress26subtitleInStatusBarChangedEv
libCore.so:_ZN4Core14FutureProgress29setSubtitleVisibleInStatusBarEb
libCore.so:_ZN4Core14FutureProgress6cancelEv
libCore.so:_ZN4Core14FutureProgress7clickedEv
libCore.so:_ZN4Core14FutureProgress7setTypeEN5Utils2IdE
libCore.so:_ZN4Core14FutureProgress8canceledEv
libCore.so:_ZN4Core14FutureProgress8finishedEv
libCore.so:_ZN4Core14FutureProgress8removeMeEv
libCore.so:_ZN4Core14FutureProgress8setTitleERK7QString
libCore.so:_ZN4Core14FutureProgress9setFutureERK7QFutureIvE
libCore.so:_ZN4Core14FutureProgress9setWidgetEP7QWidget
libCore.so:_ZN4Core14FutureProgressC1EP7QWidget
libCore.so:_ZN4Core14FutureProgressC2EP7QWidget
libCore.so:_ZN4Core14FutureProgressD0Ev
libCore.so:_ZN4Core14FutureProgressD1Ev
libCore.so:_ZN4Core14FutureProgressD2Ev
libCore.so:_ZN4Core14IEditorFactory11qt_metacallEN11QMetaObject4CallEiPPv
libCore.so:_ZN4Core14IEditorFactory11qt_metacastEPKc
libCore.so:_ZN4Core14IEditorFactory16setEditorCreatorERKSt8functionIFPNS_7IEditorEvEE
libCore.so:_ZN4Core14IEditorFactory16staticMetaObjectE
libCore.so:_ZN4Core14IEditorFactory18allEditorFactoriesEv
libCore.so:_ZN4Core14IEditorFactory24preferredEditorFactoriesERKN5Utils8FilePathE
libCore.so:_ZN4Core14IEditorFactoryC1Ev
libCore.so:_ZN4Core14IEditorFactoryC2Ev
libCore.so:_ZN4Core14IEditorFactoryD0Ev
libCore.so:_ZN4Core14IEditorFactoryD1Ev
libCore.so:_ZN4Core14IEditorFactoryD2Ev
libCore.so:_ZN4Core14ILocatorFilter10setEnabledEb
libCore.so:_ZN4Core14ILocatorFilter11qt_metacallEN11QMetaObject4CallEiPPv
libCore.so:_ZN4Core14ILocatorFilter11qt_metacastEPKc
libCore.so:_ZN4Core14ILocatorFilter11setPriorityENS0_8PriorityE
libCore.so:_ZN4Core14ILocatorFilter12createRegExpERK7QStringN2Qt15CaseSensitivityEb
libCore.so:_ZN4Core14ILocatorFilter12isOldSettingERK10QByteArray
libCore.so:_ZN4Core14ILocatorFilter12restoreStateERK10QByteArray
libCore.so:_ZN4Core14ILocatorFilter12restoreStateERK11QJsonObject
libCore.so:_ZN4Core14ILocatorFilter13highlightInfoERK23QRegularExpressionMatchNS_18LocatorFilterEntry13HighlightInfo8DataTypeE
libCore.so:_ZN4Core14ILocatorFilter13prepareSearchERK7QString
libCore.so:_ZN4Core14ILocatorFilter14msgPrefixLabelEv
libCore.so:_ZN4Core14ILocatorFilter14setDescriptionERK7QString
libCore.so:_ZN4Core14ILocatorFilter14setDisplayNameERK7QString
libCore.so:_ZN4Core14ILocatorFilter15caseSensitivityERK7QString
libCore.so:_ZN4Core14ILocatorFilter15setConfigurableEb
libCore.so:_ZN4Core14ILocatorFilter16msgPrefixToolTipEv
libCore.so:_ZN4Core14ILocatorFilter16openConfigDialogEP7QWidgetRb
libCore.so:_ZN4Core14ILocatorFilter16openConfigDialogEP7QWidgetS2_
libCore.so:_ZN4Core14ILocatorFilter16staticMetaObjectE
libCore.so:_ZN4Core14ILocatorFilter17allLocatorFiltersEv
libCore.so:_ZN4Core14ILocatorFilter17setShortcutStringERK7QString
libCore.so:_ZN4Core14ILocatorFilter19msgIncludeByDefaultEv
libCore.so:_ZN4Core14ILocatorFilter20setDefaultSearchTextERK7QString
libCore.so:_ZN4Core14ILocatorFilter20setIncludedByDefaultEb
libCore.so:_ZN4Core14ILocatorFilter21setDefaultKeySequenceERK12QKeySequence
libCore.so:_ZN4Core14ILocatorFilter23msgConfigureDialogTitleEv
libCore.so:_ZN4Core14ILocatorFilter24setDefaultShortcutStringERK7QString
libCore.so:_ZN4Core14ILocatorFilter26msgIncludeByDefaultToolTipEv
libCore.so:_ZN4Core14ILocatorFilter27setDefaultIncludedByDefaultEb
libCore.so:_ZN4Core14ILocatorFilter5setIdEN5Utils2IdE
libCore.so:_ZN4Core14ILocatorFilter9setHiddenEb
libCore.so:_ZN4Core14ILocatorFilterC2EP7QObject
libCore.so:_ZN4Core14ILocatorFilterD0Ev
libCore.so:_ZN4Core14ILocatorFilterD1Ev
libCore.so:_ZN4Core14ILocatorFilterD2Ev
libCore.so:_ZN4Core14IWizardFactory10initializeEv
libCore.so:_ZN4Core14IWizardFactory10themedIconERKN5Utils8FilePathE
libCore.so:_ZN4Core14IWizardFactory11qt_metacallEN11QMetaObject4CallEiPPv
libCore.so:_ZN4Core14IWizardFactory11qt_metacastEPKc
libCore.so:_ZN4Core14IWizardFactory13currentWizardEv
libCore.so:_ZN4Core14IWizardFactory14pluginFeaturesEv
libCore.so:_ZN4Core14IWizardFactory15isWizardRunningEv
libCore.so:_ZN4Core14IWizardFactory16staticMetaObjectE
libCore.so:_ZN4Core14IWizardFactory17availableFeaturesEN5Utils2IdE
libCore.so:_ZN4Core14IWizardFactory18allWizardFactoriesEv
libCore.so:_ZN4Core14IWizardFactory20clearWizardFactoriesEv
libCore.so:_ZN4Core14IWizardFactory20requestNewItemDialogERK7QStringRK5QListIPS0_ERKN5Utils8FilePathERK4QMapIS1_8QVariantE
libCore.so:_ZN4Core14IWizardFactory21allAvailablePlatformsEv
libCore.so:_ZN4Core14IWizardFactory21setDetailsPageQmlPathERK7QString
libCore.so:_ZN4Core14IWizardFactory22destroyFeatureProviderEv
libCore.so:_ZN4Core14IWizardFactory22displayNameForPlatformEN5Utils2IdE
libCore.so:_ZN4Core14IWizardFactory22registerFactoryCreatorERKSt8functionIFPS0_vEE
libCore.so:_ZN4Core14IWizardFactory23registerFeatureProviderEPNS_16IFeatureProviderE
libCore.so:_ZN4Core14IWizardFactory7setIconERK5QIconRK7QString
libCore.so:_ZN4Core14IWizardFactory9runWizardERKN5Utils8FilePathEP7QWidgetNS1_2IdERK4QMapI7QString8QVariantEb
libCore.so:_ZN4Core14LocatorManager10showFilterEPNS_14ILocatorFilterE
libCore.so:_ZN4Core14LocatorManager11qt_metacallEN11QMetaObject4CallEiPPv
libCore.so:_ZN4Core14LocatorManager11qt_metacastEPKc
libCore.so:_ZN4Core14LocatorManager15locatorHasFocusEv
libCore.so:_ZN4Core14LocatorManager16staticMetaObjectE
libCore.so:_ZN4Core14LocatorManager24createLocatorInputWidgetEP7QWidget
libCore.so:_ZN4Core14LocatorManager4showERK7QStringii
libCore.so:_ZN4Core14LocatorManagerC1Ev
libCore.so:_ZN4Core14LocatorManagerC2Ev
libCore.so:_ZN4Core14MessageManager11qt_metacallEN11QMetaObject4CallEiPPv
libCore.so:_ZN4Core14MessageManager11qt_metacastEPKc
libCore.so:_ZN4Core14MessageManager13writeFlashingERK5QListI7QStringE
libCore.so:_ZN4Core14MessageManager13writeFlashingERK7QString
libCore.so:_ZN4Core14MessageManager13writeSilentlyERK5QListI7QStringE
libCore.so:_ZN4Core14MessageManager13writeSilentlyERK7QString
libCore.so:_ZN4Core14MessageManager15writeDisruptingERK5QListI7QStringE
libCore.so:_ZN4Core14MessageManager15writeDisruptingERK7QString
libCore.so:_ZN4Core14MessageManager16staticMetaObjectE
libCore.so:_ZN4Core14MessageManager19setWheelZoomEnabledEb
libCore.so:_ZN4Core14MessageManager4initEv
libCore.so:_ZN4Core14MessageManager7setFontERK5QFont
libCore.so:_ZN4Core14MessageManager8instanceEv
libCore.so:_ZN4Core14MessageManagerC1Ev
libCore.so:_ZN4Core14MessageManagerC2Ev
libCore.so:_ZN4Core14MessageManagerD0Ev
libCore.so:_ZN4Core14MessageManagerD1Ev
libCore.so:_ZN4Core14MessageManagerD2Ev
libCore.so:_ZN4Core15ActionContainer11qt_metacallEN11QMetaObject4CallEiPPv
libCore.so:_ZN4Core15ActionContainer11qt_metacastEPKc
libCore.so:_ZN4Core15ActionContainer12addSeparatorEN5Utils2IdE
libCore.so:_ZN4Core15ActionContainer16staticMetaObjectE
libCore.so:_ZN4Core15CommandMappings11qt_metacallEN11QMetaObject4CallEiPPv
libCore.so:_ZN4Core15CommandMappings11qt_metacastEPKc
libCore.so:_ZN4Core15CommandMappings11setModifiedEP15QTreeWidgetItemb
libCore.so:_ZN4Core15CommandMappings12setPageTitleERK7QString
libCore.so:_ZN4Core15CommandMappings13filterChangedERK7QString
libCore.so:_ZN4Core15CommandMappings13setFilterTextERK7QString
libCore.so:_ZN4Core15CommandMappings14resetRequestedEv
libCore.so:_ZN4Core15CommandMappings15setResetVisibleEb
libCore.so:_ZN4Core15CommandMappings15setTargetHeaderERK7QString
libCore.so:_ZN4Core15CommandMappings16staticMetaObjectE
libCore.so:_ZN4Core15CommandMappings21currentCommandChangedEP15QTreeWidgetItem
libCore.so:_ZN4Core15CommandMappings22setImportExportEnabledEb
libCore.so:_ZN4Core15CommandMappings6filterERK7QStringP15QTreeWidgetItem
libCore.so:_ZN4Core15CommandMappingsC2EP7QWidget
libCore.so:_ZN4Core15CommandMappingsD0Ev
libCore.so:_ZN4Core15CommandMappingsD1Ev
libCore.so:_ZN4Core15CommandMappingsD2Ev
libCore.so:_ZN4Core15DirectoryFilter10setFiltersERK5QListI7QStringE
libCore.so:_ZN4Core15DirectoryFilter11qt_metacallEN11QMetaObject4CallEiPPv
libCore.so:_ZN4Core15DirectoryFilter11qt_metacastEPKc
libCore.so:_ZN4Core15DirectoryFilter12addDirectoryERKN5Utils8FilePathE
libCore.so:_ZN4Core15DirectoryFilter12restoreStateERK10QByteArray
libCore.so:_ZN4Core15DirectoryFilter12restoreStateERK11QJsonObject
libCore.so:_ZN4Core15DirectoryFilter14setDirectoriesERK5QListIN5Utils8FilePathEE
libCore.so:_ZN4Core15DirectoryFilter15removeDirectoryERKN5Utils8FilePathE
libCore.so:_ZN4Core15DirectoryFilter16openConfigDialogEP7QWidgetRb
libCore.so:_ZN4Core15DirectoryFilter16staticMetaObjectE
libCore.so:_ZN4Core15DirectoryFilter17setIsCustomFilterEb
libCore.so:_ZN4Core15DirectoryFilter18handleAddDirectoryEv
libCore.so:_ZN4Core15DirectoryFilter18updateFileIteratorEv
libCore.so:_ZN4Core15DirectoryFilter19handleEditDirectoryEv
libCore.so:_ZN4Core15DirectoryFilter19setExclusionFiltersERK5QListI7QStringE
libCore.so:_ZN4Core15DirectoryFilter19updateOptionButtonsEv
libCore.so:_ZN4Core15DirectoryFilter21handleRemoveDirectoryEv
libCore.so:_ZN4Core15DirectoryFilter7refreshER16QFutureInterfaceIvE
libCore.so:_ZN4Core15DirectoryFilterC1EN5Utils2IdE
libCore.so:_ZN4Core15DirectoryFilterC2EN5Utils2IdE
libCore.so:_ZN4Core15DocumentManager11addDocumentEPNS_9IDocumentEb
libCore.so:_ZN4Core15DocumentManager11changedFileERK7QString
libCore.so:_ZN4Core15DocumentManager11filePathKeyERKN5Utils8FilePathENS0_11ResolveModeE
libCore.so:_ZN4Core15DocumentManager11qt_metacallEN11QMetaObject4CallEiPPv
libCore.so:_ZN4Core15DocumentManager11qt_metacastEPKc
libCore.so:_ZN4Core15DocumentManager11recentFilesEv
libCore.so:_ZN4Core15DocumentManager11renamedFileERKN5Utils8FilePathES4_
libCore.so:_ZN4Core15DocumentManager12addDocumentsERK5QListIPNS_9IDocumentEEb
libCore.so:_ZN4Core15DocumentManager12saveDocumentEPNS_9IDocumentERKN5Utils8FilePathEPb
libCore.so:_ZN4Core15DocumentManager12saveSettingsEv
libCore.so:_ZN4Core15DocumentManager13updateSaveAllEv
libCore.so:_ZN4Core15DocumentManager14checkForReloadEv
libCore.so:_ZN4Core15DocumentManager14removeDocumentEPNS_9IDocumentE
libCore.so:_ZN4Core15DocumentManager15documentRenamedEPNS_9IDocumentERKN5Utils8FilePathES6_
libCore.so:_ZN4Core15DocumentManager15getSaveFileNameERK7QStringRKN5Utils8FilePathES3_PS1_
libCore.so:_ZN4Core15DocumentManager16addToRecentFilesERKN5Utils8FilePathENS1_2IdE
libCore.so:_ZN4Core15DocumentManager16clearRecentFilesEv
libCore.so:_ZN4Core15DocumentManager16expectFileChangeERKN5Utils8FilePathE
libCore.so:_ZN4Core15DocumentManager16fileDialogFilterEP7QString
libCore.so:_ZN4Core15DocumentManager16getOpenFileNamesERK7QStringRKN5Utils8FilePathEPS1_6QFlagsIN11QFileDialog6OptionEE
libCore.so:_ZN4Core15DocumentManager16staticMetaObjectE
libCore.so:_ZN4Core15DocumentManager17documentDestroyedEP7QObject
libCore.so:_ZN4Core15DocumentManager17getSaveAsFileNameEPKNS_9IDocumentE
libCore.so:_ZN4Core15DocumentManager17modifiedDocumentsEv
libCore.so:_ZN4Core15DocumentManager17projectsDirectoryEv
libCore.so:_ZN4Core15DocumentManager18unexpectFileChangeERKN5Utils8FilePathE
libCore.so:_ZN4Core15DocumentManager19allDocumentsRenamedERKN5Utils8FilePathES4_
libCore.so:_ZN4Core15DocumentManager19checkForNewFileNameEPNS_9IDocumentE
libCore.so:_ZN4Core15DocumentManager19setFileDialogFilterERK7QString
libCore.so:_ZN4Core15DocumentManager20allFilesFilterStringEv
libCore.so:_ZN4Core15DocumentManager20saveModifiedDocumentEPNS_9IDocumentERK7QStringPbS5_S6_P5QListIS2_E
libCore.so:_ZN4Core15DocumentManager20setProjectsDirectoryERKN5Utils8FilePathE
libCore.so:_ZN4Core15DocumentManager20useProjectsDirectoryEv
libCore.so:_ZN4Core15DocumentManager21registerSaveAllActionEv
libCore.so:_ZN4Core15DocumentManager21saveModifiedDocumentsERK5QListIPNS_9IDocumentEERK7QStringPbS9_SA_PS4_
libCore.so:_ZN4Core15DocumentManager22filesChangedExternallyERK4QSetIN5Utils8FilePathEE
libCore.so:_ZN4Core15DocumentManager22filesChangedInternallyERK5QListIN5Utils8FilePathEE
libCore.so:_ZN4Core15DocumentManager23setUseProjectsDirectoryEb
libCore.so:_ZN4Core15DocumentManager24projectsDirectoryChangedERKN5Utils8FilePathE
libCore.so:_ZN4Core15DocumentManager24saveAllModifiedDocumentsERK7QStringPbS3_S4_P5QListIPNS_9IDocumentEE
libCore.so:_ZN4Core15DocumentManager24showFilePropertiesDialogERKN5Utils8FilePathE
libCore.so:_ZN4Core15DocumentManager26defaultLocationForNewFilesEv
libCore.so:_ZN4Core15DocumentManager26fileDialogInitialDirectoryEv
libCore.so:_ZN4Core15DocumentManager28getSaveFileNameWithExtensionERK7QStringRKN5Utils8FilePathES3_
libCore.so:_ZN4Core15DocumentManager28notifyFilesChangedInternallyERK5QListIN5Utils8FilePathEE
libCore.so:_ZN4Core15DocumentManager28saveModifiedDocumentSilentlyEPNS_9IDocumentEPbP5QListIS2_E
libCore.so:_ZN4Core15DocumentManager29saveModifiedDocumentsSilentlyERK5QListIPNS_9IDocumentEEPbPS4_
libCore.so:_ZN4Core15DocumentManager29setDefaultLocationForNewFilesERKN5Utils8FilePathE
libCore.so:_ZN4Core15DocumentManager30fileDialogLastVisitedDirectoryEv
libCore.so:_ZN4Core15DocumentManager31allDocumentFactoryFiltersStringEP7QString
libCore.so:_ZN4Core15DocumentManager32saveAllModifiedDocumentsSilentlyEPbP5QListIPNS_9IDocumentEE
libCore.so:_ZN4Core15DocumentManager33setFileDialogLastVisitedDirectoryERKN5Utils8FilePathE
libCore.so:_ZN4Core15DocumentManager8instanceEv
libCore.so:_ZN4Core15DocumentManagerC1EP7QObject
libCore.so:_ZN4Core15DocumentManagerC2EP7QObject
libCore.so:_ZN4Core15DocumentManagerD0Ev
libCore.so:_ZN4Core15DocumentManagerD1Ev
libCore.so:_ZN4Core15DocumentManagerD2Ev
libCore.so:_ZN4Core15IExternalEditor11qt_metacallEN11QMetaObject4CallEiPPv
libCore.so:_ZN4Core15IExternalEditor11qt_metacastEPKc
libCore.so:_ZN4Core15IExternalEditor15externalEditorsERKN5Utils8MimeTypeE
libCore.so:_ZN4Core15IExternalEditor16staticMetaObjectE
libCore.so:_ZN4Core15IExternalEditor18allExternalEditorsEv
libCore.so:_ZN4Core15IExternalEditorC2Ev
libCore.so:_ZN4Core15IExternalEditorD0Ev
libCore.so:_ZN4Core15IExternalEditorD1Ev
libCore.so:_ZN4Core15IExternalEditorD2Ev
libCore.so:_ZN4Core15IVersionControl10TopicCache5topicERKN5Utils8FilePathE
libCore.so:_ZN4Core15IVersionControl10TopicCacheD0Ev
libCore.so:_ZN4Core15IVersionControl10TopicCacheD1Ev
libCore.so:_ZN4Core15IVersionControl10TopicCacheD2Ev
libCore.so:_ZN4Core15IVersionControl10handleLinkERKN5Utils8FilePathERK7QString
libCore.so:_ZN4Core15IVersionControl11qt_metacallEN11QMetaObject4CallEiPPv
libCore.so:_ZN4Core15IVersionControl11qt_metacastEPKc
libCore.so:_ZN4Core15IVersionControl12filesChangedERK5QListI7QStringE
libCore.so:_ZN4Core15IVersionControl13setTopicCacheEPNS0_10TopicCacheE
libCore.so:_ZN4Core15IVersionControl16staticMetaObjectE
libCore.so:_ZN4Core15IVersionControl17repositoryChangedERKN5Utils8FilePathE
libCore.so:_ZN4Core15IVersionControl19fillLinkContextMenuEP5QMenuRKN5Utils8FilePathERK7QString
libCore.so:_ZN4Core15IVersionControl20configurationChangedEv
libCore.so:_ZN4Core15IVersionControl7RepoUrlC1ERK7QString
libCore.so:_ZN4Core15IVersionControl7RepoUrlC2ERK7QString
libCore.so:_ZN4Core15IVersionControl8vcsTopicERKN5Utils8FilePathE
libCore.so:_ZN4Core15IVersionControlC2Ev
libCore.so:_ZN4Core15IVersionControlD0Ev
libCore.so:_ZN4Core15IVersionControlD1Ev
libCore.so:_ZN4Core15IVersionControlD2Ev
libCore.so:_ZN4Core15ListModelFilter10timerEventEP11QTimerEvent
libCore.so:_ZN4Core15ListModelFilter15setSearchStringERK7QString
libCore.so:_ZN4Core15ListModelFilter19delayedUpdateFilterEv
libCore.so:_ZN4Core15ListModelFilterC1EPNS_9ListModelEP7QObject
libCore.so:_ZN4Core15ListModelFilterC2EPNS_9ListModelEP7QObject
libCore.so:_ZN4Core15ProcessProgress14setDisplayNameERK7QString
libCore.so:_ZN4Core15ProcessProgress15setKeepOnFinishENS_14FutureProgress16KeepOnFinishTypeE
libCore.so:_ZN4Core15ProcessProgress17setProgressParserERKSt8functionIFvR16QFutureInterfaceIvERK7QStringEE
libCore.so:_ZN4Core15ProcessProgressC1EPN5Utils10QtcProcessE
libCore.so:_ZN4Core15ProcessProgressC2EPN5Utils10QtcProcessE
libCore.so:_ZN4Core15ProcessProgressD0Ev
libCore.so:_ZN4Core15ProcessProgressD1Ev
libCore.so:_ZN4Core15ProcessProgressD2Ev
libCore.so:_ZN4Core15ProgressManager11cancelTasksEN5Utils2IdE
libCore.so:_ZN4Core15ProgressManager11qt_metacallEN11QMetaObject4CallEiPPv
libCore.so:_ZN4Core15ProgressManager11qt_metacastEPKc
libCore.so:_ZN4Core15ProgressManager11taskStartedEN5Utils2IdE
libCore.so:_ZN4Core15ProgressManager12addTimedTaskERK16QFutureInterfaceIvERK7QStringN5Utils2IdEi6QFlagsINS0_12ProgressFlagEE
libCore.so:_ZN4Core15ProgressManager16allTasksFinishedEN5Utils2IdE
libCore.so:_ZN4Core15ProgressManager16staticMetaObjectE
libCore.so:_ZN4Core15ProgressManager19setApplicationLabelERK7QString
libCore.so:_ZN4Core15ProgressManager7addTaskERK7QFutureIvERK7QStringN5Utils2IdE6QFlagsINS0_12ProgressFlagEE
libCore.so:_ZN4Core15ProgressManager8instanceEv
libCore.so:_ZN4Core15ProgressManagerC1Ev
libCore.so:_ZN4Core15ProgressManagerC2Ev
libCore.so:_ZN4Core15ProgressManagerD0Ev
libCore.so:_ZN4Core15ProgressManagerD1Ev
libCore.so:_ZN4Core15ProgressManagerD2Ev
libCore.so:_ZN4Core15RightPaneWidget10m_instanceE
libCore.so:_ZN4Core15RightPaneWidget11clearWidgetEv
libCore.so:_ZN4Core15RightPaneWidget11qt_metacallEN11QMetaObject4CallEiPPv
libCore.so:_ZN4Core15RightPaneWidget11qt_metacastEPKc
libCore.so:_ZN4Core15RightPaneWidget11resizeEventEP12QResizeEvent
libCore.so:_ZN4Core15RightPaneWidget12readSettingsEP9QSettings
libCore.so:_ZN4Core15RightPaneWidget12saveSettingsEPN5Utils11QtcSettingsE
libCore.so:_ZN4Core15RightPaneWidget16staticMetaObjectE
libCore.so:_ZN4Core15RightPaneWidget8instanceEv
libCore.so:_ZN4Core15RightPaneWidget8setShownEb
libCore.so:_ZN4Core15RightPaneWidget9setWidgetEP7QWidget
libCore.so:_ZN4Core15RightPaneWidgetC1Ev
libCore.so:_ZN4Core15RightPaneWidgetC2Ev
libCore.so:_ZN4Core15RightPaneWidgetD0Ev
libCore.so:_ZN4Core15RightPaneWidgetD1Ev
libCore.so:_ZN4Core15RightPaneWidgetD2Ev
libCore.so:_ZN4Core15SectionGridViewC1EP7QWidget
libCore.so:_ZN4Core15SectionGridViewC2EP7QWidget
libCore.so:_ZN4Core16BaseTextDocument11qt_metacallEN11QMetaObject4CallEiPPv
libCore.so:_ZN4Core16BaseTextDocument11qt_metacastEPKc
libCore.so:_ZN4Core16BaseTextDocument13switchUtf8BomEv
libCore.so:_ZN4Core16BaseTextDocument16staticMetaObjectE
libCore.so:_ZN4Core16BaseTextDocument18setSupportsUtf8BomEb
libCore.so:_ZN4Core16BaseTextDocument22setLineTerminationModeEN5Utils14TextFileFormat19LineTerminationModeE
libCore.so:_ZN4Core16BaseTextDocument4readERKN5Utils8FilePathEP5QListI7QStringEPS6_
libCore.so:_ZN4Core16BaseTextDocument4readERKN5Utils8FilePathEP7QStringS6_
libCore.so:_ZN4Core16BaseTextDocument8setCodecEPK10QTextCodec
libCore.so:_ZN4Core16BaseTextDocumentC1EP7QObject
libCore.so:_ZN4Core16BaseTextDocumentC2EP7QObject
libCore.so:_ZN4Core16BaseTextDocumentD0Ev
libCore.so:_ZN4Core16BaseTextDocumentD1Ev
libCore.so:_ZN4Core16BaseTextDocumentD2Ev
libCore.so:_ZN4Core16IDocumentFactory20allDocumentFactoriesEv
libCore.so:_ZN4Core16IDocumentFactory4openERKN5Utils8FilePathE
libCore.so:_ZN4Core16IDocumentFactoryC1Ev
libCore.so:_ZN4Core16IDocumentFactoryC2Ev
libCore.so:_ZN4Core16IDocumentFactoryD1Ev
libCore.so:_ZN4Core16IDocumentFactoryD2Ev
libCore.so:_ZN4Core16ListItemDelegate10tagClickedERK7QString
libCore.so:_ZN4Core16ListItemDelegate11editorEventEP6QEventP18QAbstractItemModelRK20QStyleOptionViewItemRK11QModelIndex
libCore.so:_ZN4Core16ListItemDelegate11qt_metacallEN11QMetaObject4CallEiPPv
libCore.so:_ZN4Core16ListItemDelegate11qt_metacastEPKc
libCore.so:_ZN4Core16ListItemDelegate16staticMetaObjectE
libCore.so:_ZN4Core16ListItemDelegate4goonEv
libCore.so:_ZN4Core16ListItemDelegateC1Ev
libCore.so:_ZN4Core16ListItemDelegateC2Ev
libCore.so:_ZN4Core16NavigationWidget11qt_metacallEN11QMetaObject4CallEiPPv
libCore.so:_ZN4Core16NavigationWidget11qt_metacastEPKc
libCore.so:_ZN4Core16NavigationWidget11resizeEventEP12QResizeEvent
libCore.so:_ZN4Core16NavigationWidget11storedWidthEv
libCore.so:_ZN4Core16NavigationWidget12factoryIndexEN5Utils2IdE
libCore.so:_ZN4Core16NavigationWidget12saveSettingsEPN5Utils11QtcSettingsE
libCore.so:_ZN4Core16NavigationWidget12setFactoriesERK5QListIPNS_24INavigationWidgetFactoryEE
libCore.so:_ZN4Core16NavigationWidget13insertSubItemEii
libCore.so:_ZN4Core16NavigationWidget14closeSubWidgetEPNS_8Internal19NavigationSubWidgetE
libCore.so:_ZN4Core16NavigationWidget15closeSubWidgetsEv
libCore.so:_ZN4Core16NavigationWidget15restoreSettingsEP9QSettings
libCore.so:_ZN4Core16NavigationWidget16staticMetaObjectE
libCore.so:_ZN4Core16NavigationWidget16updateToggleTextEv
libCore.so:_ZN4Core16NavigationWidget17activateSubWidgetEN5Utils2IdENS_4SideE
libCore.so:_ZN4Core16NavigationWidget17activateSubWidgetEN5Utils2IdEi
libCore.so:_ZN4Core16NavigationWidget18placeHolderChangedEPNS_27NavigationWidgetPlaceHolderE
libCore.so:_ZN4Core16NavigationWidget8instanceENS_4SideE
libCore.so:_ZN4Core16NavigationWidget8setShownEb
libCore.so:_ZN4Core16NavigationWidgetC1EP7QActionNS_4SideE
libCore.so:_ZN4Core16NavigationWidgetC2EP7QActionNS_4SideE
libCore.so:_ZN4Core16NavigationWidgetD0Ev
libCore.so:_ZN4Core16NavigationWidgetD1Ev
libCore.so:_ZN4Core16NavigationWidgetD2Ev
libCore.so:_ZN4Core16SettingsDatabase10beginGroupERK7QString
libCore.so:_ZN4Core16SettingsDatabase14endTransactionEv
libCore.so:_ZN4Core16SettingsDatabase16beginTransactionEv
libCore.so:_ZN4Core16SettingsDatabase4syncEv
libCore.so:_ZN4Core16SettingsDatabase6removeERK7QString
libCore.so:_ZN4Core16SettingsDatabase8endGroupEv
libCore.so:_ZN4Core16SettingsDatabase8setValueERK7QStringRK8QVariant
libCore.so:_ZN4Core16SettingsDatabaseC1ERK7QStringS3_P7QObject
libCore.so:_ZN4Core16SettingsDatabaseC2ERK7QStringS3_P7QObject
libCore.so:_ZN4Core16SettingsDatabaseD0Ev
libCore.so:_ZN4Core16SettingsDatabaseD1Ev
libCore.so:_ZN4Core16SettingsDatabaseD2Ev
libCore.so:_ZN4Core16StatusBarManager15restoreSettingsEv
libCore.so:_ZN4Core16StatusBarManager18addStatusBarWidgetEP7QWidgetNS0_17StatusBarPositionERKNS_7ContextE
libCore.so:_ZN4Core16StatusBarManager22destroyStatusBarWidgetEP7QWidget
libCore.so:_ZN4Core16UrlLocatorFilter10matchesForER16QFutureInterfaceINS_18LocatorFilterEntryEERK7QString
libCore.so:_ZN4Core16UrlLocatorFilter11qt_metacallEN11QMetaObject4CallEiPPv
libCore.so:_ZN4Core16UrlLocatorFilter11qt_metacastEPKc
libCore.so:_ZN4Core16UrlLocatorFilter12restoreStateERK10QByteArray
libCore.so:_ZN4Core16UrlLocatorFilter12restoreStateERK11QJsonObject
libCore.so:_ZN4Core16UrlLocatorFilter13addDefaultUrlERK7QString
libCore.so:_ZN4Core16UrlLocatorFilter16openConfigDialogEP7QWidgetRb
libCore.so:_ZN4Core16UrlLocatorFilter16staticMetaObjectE
libCore.so:_ZN4Core16UrlLocatorFilter17setIsCustomFilterEb
libCore.so:_ZN4Core16UrlLocatorFilterC1EN5Utils2IdE
libCore.so:_ZN4Core16UrlLocatorFilterC1ERK7QStringN5Utils2IdE
libCore.so:_ZN4Core16UrlLocatorFilterC2EN5Utils2IdE
libCore.so:_ZN4Core16UrlLocatorFilterC2ERK7QStringN5Utils2IdE
libCore.so:_ZN4Core16UrlLocatorFilterD0Ev
libCore.so:_ZN4Core16UrlLocatorFilterD1Ev
libCore.so:_ZN4Core16UrlLocatorFilterD2Ev
libCore.so:_ZN4Core16WelcomePageFrame10paintEventEP11QPaintEvent
libCore.so:_ZN4Core16WelcomePageFrame13buttonPaletteEbbb
libCore.so:_ZN4Core16WelcomePageFrameC1EP7QWidget
libCore.so:_ZN4Core16WelcomePageFrameC2EP7QWidget
libCore.so:_ZN4Core17FileChangeBlockerC1ERKN5Utils8FilePathE
libCore.so:_ZN4Core17FileChangeBlockerC2ERKN5Utils8FilePathE
libCore.so:_ZN4Core17FileChangeBlockerD1Ev
libCore.so:_ZN4Core17FileChangeBlockerD2Ev
libCore.so:_ZN4Core17SectionedGridView10addSectionERKNS_7SectionERK5QListIPNS_8ListItemEE
libCore.so:_ZN4Core17SectionedGridView15setItemDelegateEP21QAbstractItemDelegate
libCore.so:_ZN4Core17SectionedGridView15setSearchStringERK7QString
libCore.so:_ZN4Core17SectionedGridView17setPixmapFunctionERKSt8functionIF7QPixmap7QStringEE
libCore.so:_ZN4Core17SectionedGridView5clearEv
libCore.so:_ZN4Core17SectionedGridViewC1EP7QWidget
libCore.so:_ZN4Core17SectionedGridViewC2EP7QWidget
libCore.so:_ZN4Core17SectionedGridViewD0Ev
libCore.so:_ZN4Core17SectionedGridViewD1Ev
libCore.so:_ZN4Core17SectionedGridViewD2Ev
libCore.so:_ZN4Core17WelcomePageButton10enterEventEP11QEnterEvent
libCore.so:_ZN4Core17WelcomePageButton10leaveEventEP6QEvent
libCore.so:_ZN4Core17WelcomePageButton12setOnClickedERKSt8functionIFvvEE
libCore.so:_ZN4Core17WelcomePageButton13recheckActiveEv
libCore.so:_ZN4Core17WelcomePageButton15mousePressEventEP11QMouseEvent
libCore.so:_ZN4Core17WelcomePageButton16setActiveCheckerERKSt8functionIFbvEE
libCore.so:_ZN4Core17WelcomePageButton18setWithAccentColorEb
libCore.so:_ZN4Core17WelcomePageButton5clickEv
libCore.so:_ZN4Core17WelcomePageButton7setSizeENS0_4SizeE
libCore.so:_ZN4Core17WelcomePageButton7setTextERK7QString
libCore.so:_ZN4Core17WelcomePageButtonC1EP7QWidget
libCore.so:_ZN4Core17WelcomePageButtonC2EP7QWidget
libCore.so:_ZN4Core17WelcomePageButtonD0Ev
libCore.so:_ZN4Core17WelcomePageButtonD1Ev
libCore.so:_ZN4Core17WelcomePageButtonD2Ev
libCore.so:_ZN4Core18ExternalToolRunner11qt_metacallEN11QMetaObject4CallEiPPv
libCore.so:_ZN4Core18ExternalToolRunner11qt_metacastEPKc
libCore.so:_ZN4Core18ExternalToolRunner16staticMetaObjectE
libCore.so:_ZN4Core18ExternalToolRunner17readStandardErrorEv
libCore.so:_ZN4Core18ExternalToolRunner18readStandardOutputEv
libCore.so:_ZN4Core18ExternalToolRunner3runEv
libCore.so:_ZN4Core18ExternalToolRunner4doneEv
libCore.so:_ZN4Core18ExternalToolRunner7resolveEv
libCore.so:_ZN4Core18ExternalToolRunnerC1EPKNS_12ExternalToolE
libCore.so:_ZN4Core18ExternalToolRunnerC2EPKNS_12ExternalToolE
libCore.so:_ZN4Core18ExternalToolRunnerD0Ev
libCore.so:_ZN4Core18ExternalToolRunnerD1Ev
libCore.so:_ZN4Core18ExternalToolRunnerD2Ev
libCore.so:_ZN4Core18IOptionsPageWidget11qt_metacallEN11QMetaObject4CallEiPPv
libCore.so:_ZN4Core18IOptionsPageWidget11qt_metacastEPKc
libCore.so:_ZN4Core18IOptionsPageWidget16staticMetaObjectE
libCore.so:_ZN4Core18SearchResultFilter11qt_metacallEN11QMetaObject4CallEiPPv
libCore.so:_ZN4Core18SearchResultFilter11qt_metacastEPKc
libCore.so:_ZN4Core18SearchResultFilter13filterChangedEv
libCore.so:_ZN4Core18SearchResultFilter16staticMetaObjectE
libCore.so:_ZN4Core18SearchResultWindow10m_instanceE
libCore.so:_ZN4Core18SearchResultWindow11qt_metacallEN11QMetaObject4CallEiPPv
libCore.so:_ZN4Core18SearchResultWindow11qt_metacastEPKc
libCore.so:_ZN4Core18SearchResultWindow11setTabWidthEi
libCore.so:_ZN4Core18SearchResultWindow12outputWidgetEP7QWidget
libCore.so:_ZN4Core18SearchResultWindow12readSettingsEv
libCore.so:_ZN4Core18SearchResultWindow13clearContentsEv
libCore.so:_ZN4Core18SearchResultWindow13writeSettingsEv
libCore.so:_ZN4Core18SearchResultWindow14startNewSearchERK7QStringS3_S3_NS0_10SearchModeENS0_16PreserveCaseModeES3_
libCore.so:_ZN4Core18SearchResultWindow16staticMetaObjectE
libCore.so:_ZN4Core18SearchResultWindow17setTextEditorFontERK5QFontRK5QHashINS_17SearchResultColor5StyleES5_E
libCore.so:_ZN4Core18SearchResultWindow17visibilityChangedEb
libCore.so:_ZN4Core18SearchResultWindow18openNewSearchPanelEv
libCore.so:_ZN4Core18SearchResultWindow8goToNextEv
libCore.so:_ZN4Core18SearchResultWindow8goToPrevEv
libCore.so:_ZN4Core18SearchResultWindow8instanceEv
libCore.so:_ZN4Core18SearchResultWindow8setFocusEv
libCore.so:_ZN4Core18SearchResultWindowC1EP7QWidget
libCore.so:_ZN4Core18SearchResultWindowC2EP7QWidget
libCore.so:_ZN4Core18SearchResultWindowD0Ev
libCore.so:_ZN4Core18SearchResultWindowD1Ev
libCore.so:_ZN4Core18SearchResultWindowD2Ev
libCore.so:_ZN4Core18WelcomePageHelpers8panelBarEP7QWidget
libCore.so:_ZN4Core18WelcomePageHelpers9brandFontEv
libCore.so:_ZN4Core19ExternalToolManager11qt_metacallEN11QMetaObject4CallEiPPv
libCore.so:_ZN4Core19ExternalToolManager11qt_metacastEPKc
libCore.so:_ZN4Core19ExternalToolManager12readSettingsERK4QMapI7QStringPNS_12ExternalToolEEPS1_IS2_5QListIS4_EE
libCore.so:_ZN4Core19ExternalToolManager14parseDirectoryERK7QStringP4QMapIS1_9QMultiMapIiPNS_12ExternalToolEEEPS4_IS1_S7_Eb
libCore.so:_ZN4Core19ExternalToolManager15toolsByCategoryEv
libCore.so:_ZN4Core19ExternalToolManager16staticMetaObjectE
libCore.so:_ZN4Core19ExternalToolManager18setToolsByCategoryERK4QMapI7QString5QListIPNS_12ExternalToolEEE
libCore.so:_ZN4Core19ExternalToolManager25replaceSelectionRequestedERK7QString
libCore.so:_ZN4Core19ExternalToolManager29emitReplaceSelectionRequestedERK7QString
libCore.so:_ZN4Core19ExternalToolManager8instanceEv
libCore.so:_ZN4Core19ExternalToolManager9toolsByIdEv
libCore.so:_ZN4Core19ExternalToolManagerC1Ev
libCore.so:_ZN4Core19ExternalToolManagerC2Ev
libCore.so:_ZN4Core19ExternalToolManagerD0Ev
libCore.so:_ZN4Core19ExternalToolManagerD1Ev
libCore.so:_ZN4Core19ExternalToolManagerD2Ev
libCore.so:_ZN4Core19NonResizingSplitter11resizeEventEP12QResizeEvent
libCore.so:_ZN4Core19NonResizingSplitterC1EP7QWidgetNS_12MiniSplitter13SplitterStyleE
libCore.so:_ZN4Core19NonResizingSplitterC2EP7QWidgetNS_12MiniSplitter13SplitterStyleE
libCore.so:_ZN4Core19ReadOnlyFilesDialog10setMessageERK7QString
libCore.so:_ZN4Core19ReadOnlyFilesDialog11qt_metacallEN11QMetaObject4CallEiPPv
libCore.so:_ZN4Core19ReadOnlyFilesDialog11qt_metacastEPKc
libCore.so:_ZN4Core19ReadOnlyFilesDialog16staticMetaObjectE
libCore.so:_ZN4Core19ReadOnlyFilesDialog18setShowFailWarningEbRK7QString
libCore.so:_ZN4Core19ReadOnlyFilesDialog4execEv
libCore.so:_ZN4Core19ReadOnlyFilesDialogC1EPNS_9IDocumentEP7QWidgetb
libCore.so:_ZN4Core19ReadOnlyFilesDialogC1ERK5QListIN5Utils8FilePathEEP7QWidget
libCore.so:_ZN4Core19ReadOnlyFilesDialogC1ERK5QListIPNS_9IDocumentEEP7QWidget
libCore.so:_ZN4Core19ReadOnlyFilesDialogC1ERKN5Utils8FilePathEP7QWidget
libCore.so:_ZN4Core19ReadOnlyFilesDialogC2EPNS_9IDocumentEP7QWidgetb
libCore.so:_ZN4Core19ReadOnlyFilesDialogC2ERK5QListIN5Utils8FilePathEEP7QWidget
libCore.so:_ZN4Core19ReadOnlyFilesDialogC2ERK5QListIPNS_9IDocumentEEP7QWidget
libCore.so:_ZN4Core19ReadOnlyFilesDialogC2ERKN5Utils8FilePathEP7QWidget
libCore.so:_ZN4Core19ReadOnlyFilesDialogD0Ev
libCore.so:_ZN4Core19ReadOnlyFilesDialogD1Ev
libCore.so:_ZN4Core19ReadOnlyFilesDialogD2Ev
libCore.so:_ZN4Core20IFileWizardExtension11qt_metacallEN11QMetaObject4CallEiPPv
libCore.so:_ZN4Core20IFileWizardExtension11qt_metacastEPKc
libCore.so:_ZN4Core20IFileWizardExtension16staticMetaObjectE
libCore.so:_ZN4Core20IFileWizardExtensionC2Ev
libCore.so:_ZN4Core20IFileWizardExtensionD0Ev
libCore.so:_ZN4Core20IFileWizardExtensionD1Ev
libCore.so:_ZN4Core20IFileWizardExtensionD2Ev
libCore.so:_ZN4Core20IOptionsPageProvider11qt_metacallEN11QMetaObject4CallEiPPv
libCore.so:_ZN4Core20IOptionsPageProvider11qt_metacastEPKc
libCore.so:_ZN4Core20IOptionsPageProvider16staticMetaObjectE
libCore.so:_ZN4Core20IOptionsPageProvider24allOptionsPagesProvidersEv
libCore.so:_ZN4Core20IOptionsPageProviderC2EP7QObject
libCore.so:_ZN4Core20IOptionsPageProviderD0Ev
libCore.so:_ZN4Core20IOptionsPageProviderD1Ev
libCore.so:_ZN4Core20IOptionsPageProviderD2Ev
libCore.so:_ZN4Core20RightPanePlaceHolder11qt_metacallEN11QMetaObject4CallEiPPv
libCore.so:_ZN4Core20RightPanePlaceHolder11qt_metacastEPKc
libCore.so:_ZN4Core20RightPanePlaceHolder15applyStoredSizeEi
libCore.so:_ZN4Core20RightPanePlaceHolder16staticMetaObjectE
libCore.so:_ZN4Core20RightPanePlaceHolder18currentModeChangedEN5Utils2IdE
libCore.so:_ZN4Core20RightPanePlaceHolder7currentEv
libCore.so:_ZN4Core20RightPanePlaceHolder9m_currentE
libCore.so:_ZN4Core20RightPanePlaceHolderC1EN5Utils2IdEP7QWidget
libCore.so:_ZN4Core20RightPanePlaceHolderC2EN5Utils2IdEP7QWidget
libCore.so:_ZN4Core20RightPanePlaceHolderD0Ev
libCore.so:_ZN4Core20RightPanePlaceHolderD1Ev
libCore.so:_ZN4Core20RightPanePlaceHolderD2Ev
libCore.so:_ZN4Core21BaseFileWizardFactory11qt_metacallEN11QMetaObject4CallEiPPv
libCore.so:_ZN4Core21BaseFileWizardFactory11qt_metacastEPKc
libCore.so:_ZN4Core21BaseFileWizardFactory13buildFileNameERKN5Utils8FilePathERK7QStringS7_
libCore.so:_ZN4Core21BaseFileWizardFactory13runWizardImplERKN5Utils8FilePathEP7QWidgetNS1_2IdERK4QMapI7QString8QVariantEb
libCore.so:_ZN4Core21BaseFileWizardFactory15preferredSuffixERK7QString
libCore.so:_ZN4Core21BaseFileWizardFactory15promptOverwriteEP5QListINS_13GeneratedFileEEP7QString
libCore.so:_ZN4Core21BaseFileWizardFactory16staticMetaObjectE
libCore.so:_ZN4Core21BaseFileWizardFactory23postGenerateOpenEditorsERK5QListINS_13GeneratedFileEEP7QString
libCore.so:_ZN4Core21OpenDocumentsTreeView11eventFilterEP7QObjectP6QEvent
libCore.so:_ZN4Core21OpenDocumentsTreeView11qt_metacallEN11QMetaObject4CallEiPPv
libCore.so:_ZN4Core21OpenDocumentsTreeView11qt_metacastEPKc
libCore.so:_ZN4Core21OpenDocumentsTreeView14closeActivatedERK11QModelIndex
libCore.so:_ZN4Core21OpenDocumentsTreeView16staticMetaObjectE
libCore.so:_ZN4Core21OpenDocumentsTreeView21setCloseButtonVisibleEb
libCore.so:_ZN4Core21OpenDocumentsTreeView8setModelEP18QAbstractItemModel
libCore.so:_ZN4Core21OpenDocumentsTreeViewC1EP7QWidget
libCore.so:_ZN4Core21OpenDocumentsTreeViewC2EP7QWidget
libCore.so:_ZN4Core21OutputPanePlaceHolder10getCurrentEv
libCore.so:_ZN4Core21OutputPanePlaceHolder11qt_metacallEN11QMetaObject4CallEiPPv
libCore.so:_ZN4Core21OutputPanePlaceHolder11qt_metacastEPKc
libCore.so:_ZN4Core21OutputPanePlaceHolder11resizeEventEP12QResizeEvent
libCore.so:_ZN4Core21OutputPanePlaceHolder12setMaximizedEb
libCore.so:_ZN4Core21OutputPanePlaceHolder16isCurrentVisibleEv
libCore.so:_ZN4Core21OutputPanePlaceHolder16staticMetaObjectE
libCore.so:_ZN4Core21OutputPanePlaceHolder18currentModeChangedEN5Utils2IdE
libCore.so:_ZN4Core21OutputPanePlaceHolder23ensureSizeHintAsMinimumEv
libCore.so:_ZN4Core21OutputPanePlaceHolder25visibilityChangeRequestedEb
libCore.so:_ZN4Core21OutputPanePlaceHolder9setHeightEi
libCore.so:_ZN4Core21OutputPanePlaceHolder9showEventEP10QShowEvent
libCore.so:_ZN4Core21OutputPanePlaceHolderC1EN5Utils2IdEP9QSplitter
libCore.so:_ZN4Core21OutputPanePlaceHolderC2EN5Utils2IdEP9QSplitter
libCore.so:_ZN4Core21OutputPanePlaceHolderD0Ev
libCore.so:_ZN4Core21OutputPanePlaceHolderD1Ev
libCore.so:_ZN4Core21OutputPanePlaceHolderD2Ev
libCore.so:_ZN4Core21PromptOverwriteDialog11qt_metacallEN11QMetaObject4CallEiPPv
libCore.so:_ZN4Core21PromptOverwriteDialog11qt_metacastEPKc
libCore.so:_ZN4Core21PromptOverwriteDialog14setFileCheckedERKN5Utils8FilePathEb
libCore.so:_ZN4Core21PromptOverwriteDialog14setFileEnabledERKN5Utils8FilePathEb
libCore.so:_ZN4Core21PromptOverwriteDialog16staticMetaObjectE
libCore.so:_ZN4Core21PromptOverwriteDialog8setFilesERK5QListIN5Utils8FilePathEE
libCore.so:_ZN4Core21PromptOverwriteDialogC1EP7QWidget
libCore.so:_ZN4Core21PromptOverwriteDialogC2EP7QWidget
libCore.so:_ZN4Core22AsynchronousMessageBox11informationERK7QStringS3_
libCore.so:_ZN4Core22AsynchronousMessageBox7warningERK7QStringS3_
libCore.so:_ZN4Core22AsynchronousMessageBox8criticalERK7QStringS3_
libCore.so:_ZN4Core22FindToolBarPlaceHolder10getCurrentEv
libCore.so:_ZN4Core22FindToolBarPlaceHolder10setCurrentEPS0_
libCore.so:_ZN4Core22FindToolBarPlaceHolder11qt_metacallEN11QMetaObject4CallEiPPv
libCore.so:_ZN4Core22FindToolBarPlaceHolder11qt_metacastEPKc
libCore.so:_ZN4Core22FindToolBarPlaceHolder14isUsedByWidgetEP7QWidget
libCore.so:_ZN4Core22FindToolBarPlaceHolder15setLightColoredEb
libCore.so:_ZN4Core22FindToolBarPlaceHolder16staticMetaObjectE
libCore.so:_ZN4Core22FindToolBarPlaceHolder26allFindToolbarPlaceHoldersEv
libCore.so:_ZN4Core22FindToolBarPlaceHolder9m_currentE
libCore.so:_ZN4Core22FindToolBarPlaceHolder9setWidgetEPNS_8Internal11FindToolBarE
libCore.so:_ZN4Core22FindToolBarPlaceHolderC1EP7QWidgetS2_
libCore.so:_ZN4Core22FindToolBarPlaceHolderC2EP7QWidgetS2_
libCore.so:_ZN4Core22FindToolBarPlaceHolderD0Ev
libCore.so:_ZN4Core22FindToolBarPlaceHolderD1Ev
libCore.so:_ZN4Core22FindToolBarPlaceHolderD2Ev
libCore.so:_ZN4Core22FolderNavigationWidget10addNewItemEv
libCore.so:_ZN4Core22FolderNavigationWidget10selectFileERKN5Utils8FilePathE
libCore.so:_ZN4Core22FolderNavigationWidget11eventFilterEP7QObjectP6QEvent
libCore.so:_ZN4Core22FolderNavigationWidget11qt_metacallEN11QMetaObject4CallEiPPv
libCore.so:_ZN4Core22FolderNavigationWidget11qt_metacastEPKc
libCore.so:_ZN4Core22FolderNavigationWidget14setCrumblePathERKN5Utils8FilePathE
libCore.so:_ZN4Core22FolderNavigationWidget15bestRootForFileERKN5Utils8FilePathE
libCore.so:_ZN4Core22FolderNavigationWidget15createNewFolderERK11QModelIndex
libCore.so:_ZN4Core22FolderNavigationWidget15editCurrentItemEv
libCore.so:_ZN4Core22FolderNavigationWidget16contextMenuEventEP17QContextMenuEvent
libCore.so:_ZN4Core22FolderNavigationWidget16setRootDirectoryERKN5Utils8FilePathE
libCore.so:_ZN4Core22FolderNavigationWidget16staticMetaObjectE
libCore.so:_ZN4Core22FolderNavigationWidget16syncWithFilePathERKN5Utils8FilePathE
libCore.so:_ZN4Core22FolderNavigationWidget17removeCurrentItemEv
libCore.so:_ZN4Core22FolderNavigationWidget18setShowBreadCrumbsEb
libCore.so:_ZN4Core22FolderNavigationWidget19insertRootDirectoryERKNS_29FolderNavigationWidgetFactory13RootDirectoryE
libCore.so:_ZN4Core22FolderNavigationWidget19removeRootDirectoryERK7QString
libCore.so:_ZN4Core22FolderNavigationWidget19setShowFoldersOnTopEb
libCore.so:_ZN4Core22FolderNavigationWidget20setHiddenFilesFilterEb
libCore.so:_ZN4Core22FolderNavigationWidget21selectBestRootForFileERKN5Utils8FilePathE
libCore.so:_ZN4Core22FolderNavigationWidget22setAutoSynchronizationEb
libCore.so:_ZN4Core22FolderNavigationWidget25toggleAutoSynchronizationEv
libCore.so:_ZN4Core22FolderNavigationWidget26handleCurrentEditorChangedEPNS_7IEditorE
libCore.so:_ZN4Core22FolderNavigationWidget26setRootAutoSynchronizationEb
libCore.so:_ZN4Core22FolderNavigationWidget8openItemERK11QModelIndex
libCore.so:_ZN4Core22FolderNavigationWidgetC1EP7QWidget
libCore.so:_ZN4Core22FolderNavigationWidgetC2EP7QWidget
libCore.so:_ZN4Core24EditorManagerPlaceHolder11qt_metacallEN11QMetaObject4CallEiPPv
libCore.so:_ZN4Core24EditorManagerPlaceHolder11qt_metacastEPKc
libCore.so:_ZN4Core24EditorManagerPlaceHolder16staticMetaObjectE
libCore.so:_ZN4Core24EditorManagerPlaceHolder9showEventEP10QShowEvent
libCore.so:_ZN4Core24EditorManagerPlaceHolderC1EP7QWidget
libCore.so:_ZN4Core24EditorManagerPlaceHolderC2EP7QWidget
libCore.so:_ZN4Core24EditorManagerPlaceHolderD0Ev
libCore.so:_ZN4Core24EditorManagerPlaceHolderD1Ev
libCore.so:_ZN4Core24EditorManagerPlaceHolderD2Ev
libCore.so:_ZN4Core24INavigationWidgetFactory11addRootPathEN5Utils2IdERK7QStringRK5QIconRKNS1_8FilePathE
libCore.so:_ZN4Core24INavigationWidgetFactory11qt_metacallEN11QMetaObject4CallEiPPv
libCore.so:_ZN4Core24INavigationWidgetFactory11qt_metacastEPKc
libCore.so:_ZN4Core24INavigationWidgetFactory11setPriorityEi
libCore.so:_ZN4Core24INavigationWidgetFactory12saveSettingsEPN5Utils11QtcSettingsEiP7QWidget
libCore.so:_ZN4Core24INavigationWidgetFactory14removeRootPathEN5Utils2IdE
libCore.so:_ZN4Core24INavigationWidgetFactory14setDisplayNameERK7QString
libCore.so:_ZN4Core24INavigationWidgetFactory15restoreSettingsEP9QSettingsiP7QWidget
libCore.so:_ZN4Core24INavigationWidgetFactory16staticMetaObjectE
libCore.so:_ZN4Core24INavigationWidgetFactory21setActivationSequenceERK12QKeySequence
libCore.so:_ZN4Core24INavigationWidgetFactory22allNavigationFactoriesEv
libCore.so:_ZN4Core24INavigationWidgetFactory5setIdEN5Utils2IdE
libCore.so:_ZN4Core24INavigationWidgetFactoryC2Ev
libCore.so:_ZN4Core24INavigationWidgetFactoryD0Ev
libCore.so:_ZN4Core24INavigationWidgetFactoryD1Ev
libCore.so:_ZN4Core24INavigationWidgetFactoryD2Ev
libCore.so:_ZN4Core27NavigationWidgetPlaceHolder10setCurrentENS_4SideEPS0_
libCore.so:_ZN4Core27NavigationWidgetPlaceHolder11qt_metacallEN11QMetaObject4CallEiPPv
libCore.so:_ZN4Core27NavigationWidgetPlaceHolder11qt_metacastEPKc
libCore.so:_ZN4Core27NavigationWidgetPlaceHolder13s_currentLeftE
libCore.so:_ZN4Core27NavigationWidgetPlaceHolder14s_currentRightE
libCore.so:_ZN4Core27NavigationWidgetPlaceHolder15applyStoredSizeEv
libCore.so:_ZN4Core27NavigationWidgetPlaceHolder16staticMetaObjectE
libCore.so:_ZN4Core27NavigationWidgetPlaceHolder24currentModeAboutToChangeEN5Utils2IdE
libCore.so:_ZN4Core27NavigationWidgetPlaceHolder7currentENS_4SideE
libCore.so:_ZN4Core27NavigationWidgetPlaceHolderC1EN5Utils2IdENS_4SideEP7QWidget
libCore.so:_ZN4Core27NavigationWidgetPlaceHolderC2EN5Utils2IdENS_4SideEP7QWidget
libCore.so:_ZN4Core27NavigationWidgetPlaceHolderD0Ev
libCore.so:_ZN4Core27NavigationWidgetPlaceHolderD1Ev
libCore.so:_ZN4Core27NavigationWidgetPlaceHolderD2Ev
libCore.so:_ZN4Core28HighlightScrollBarController12addHighlightENS_9HighlightE
libCore.so:_ZN4Core28HighlightScrollBarController13setLineHeightEd
libCore.so:_ZN4Core28HighlightScrollBarController13setScrollAreaEP19QAbstractScrollArea
libCore.so:_ZN4Core28HighlightScrollBarController15setVisibleRangeEd
libCore.so:_ZN4Core28HighlightScrollBarController16removeHighlightsEN5Utils2IdE
libCore.so:_ZN4Core28HighlightScrollBarController19removeAllHighlightsEv
libCore.so:_ZN4Core28HighlightScrollBarController9setMarginEd
libCore.so:_ZN4Core28HighlightScrollBarControllerD1Ev
libCore.so:_ZN4Core28HighlightScrollBarControllerD2Ev
libCore.so:_ZN4Core29FolderNavigationWidgetFactory11addRootPathEN5Utils2IdERK7QStringRK5QIconRKNS1_8FilePathE
libCore.so:_ZN4Core29FolderNavigationWidgetFactory11fileRenamedERKN5Utils8FilePathES4_
libCore.so:_ZN4Core29FolderNavigationWidgetFactory11qt_metacallEN11QMetaObject4CallEiPPv
libCore.so:_ZN4Core29FolderNavigationWidgetFactory11qt_metacastEPKc
libCore.so:_ZN4Core29FolderNavigationWidgetFactory12createWidgetEv
libCore.so:_ZN4Core29FolderNavigationWidgetFactory12saveSettingsEPN5Utils11QtcSettingsEiP7QWidget
libCore.so:_ZN4Core29FolderNavigationWidgetFactory14removeRootPathEN5Utils2IdE
libCore.so:_ZN4Core29FolderNavigationWidgetFactory15registerActionsEv
libCore.so:_ZN4Core29FolderNavigationWidgetFactory15restoreSettingsEP9QSettingsiP7QWidget
libCore.so:_ZN4Core29FolderNavigationWidgetFactory16staticMetaObjectE
libCore.so:_ZN4Core29FolderNavigationWidgetFactory17aboutToRemoveFileERKN5Utils8FilePathE
libCore.so:_ZN4Core29FolderNavigationWidgetFactory17m_rootDirectoriesE
libCore.so:_ZN4Core29FolderNavigationWidgetFactory18rootDirectoryAddedERKNS0_13RootDirectoryE
libCore.so:_ZN4Core29FolderNavigationWidgetFactory19insertRootDirectoryERKNS0_13RootDirectoryE
libCore.so:_ZN4Core29FolderNavigationWidgetFactory19removeRootDirectoryERK7QString
libCore.so:_ZN4Core29FolderNavigationWidgetFactory20rootDirectoryRemovedERK7QString
libCore.so:_ZN4Core29FolderNavigationWidgetFactory22aboutToShowContextMenuEP5QMenuRKN5Utils8FilePathEb
libCore.so:_ZN4Core29FolderNavigationWidgetFactory22m_fallbackSyncFilePathE
libCore.so:_ZN4Core29FolderNavigationWidgetFactory23setFallbackSyncFilePathERKN5Utils8FilePathE
libCore.so:_ZN4Core29FolderNavigationWidgetFactory27updateProjectsDirectoryRootEv
libCore.so:_ZN4Core29FolderNavigationWidgetFactory8instanceEv
libCore.so:_ZN4Core29FolderNavigationWidgetFactory9rootIndexERK7QString
libCore.so:_ZN4Core29FolderNavigationWidgetFactoryC1Ev
libCore.so:_ZN4Core29FolderNavigationWidgetFactoryC2Ev
libCore.so:_ZN4Core29textDocumentFlagsForFindFlagsE6QFlagsINS_8FindFlagEE
libCore.so:_ZN4Core4Find10initializeEv
libCore.so:_ZN4Core4Find11hasFindFlagENS_8FindFlagE
libCore.so:_ZN4Core4Find11qt_metacallEN11QMetaObject4CallEiPPv
libCore.so:_ZN4Core4Find11qt_metacastEPKc
libCore.so:_ZN4Core4Find11setBackwardEb
libCore.so:_ZN4Core4Find12setWholeWordEb
libCore.so:_ZN4Core4Find13setUseFakeVimEb
libCore.so:_ZN4Core4Find14openFindDialogEPNS_11IFindFilterERK7QString
libCore.so:_ZN4Core4Find15aboutToShutdownEv
libCore.so:_ZN4Core4Find15openFindToolBarENS0_13FindDirectionE
libCore.so:_ZN4Core4Find15setPreserveCaseEb
libCore.so:_ZN4Core4Find16findFlagsChangedEv
libCore.so:_ZN4Core4Find16setCaseSensitiveEb
libCore.so:_ZN4Core4Find16staticMetaObjectE
libCore.so:_ZN4Core4Find19findCompletionModelEv
libCore.so:_ZN4Core4Find20setRegularExpressionEb
libCore.so:_ZN4Core4Find20updateFindCompletionERK7QString6QFlagsINS_8FindFlagEE
libCore.so:_ZN4Core4Find21extensionsInitializedEv
libCore.so:_ZN4Core4Find22replaceCompletionModelEv
libCore.so:_ZN4Core4Find23updateReplaceCompletionERK7QString
libCore.so:_ZN4Core4Find7destroyEv
libCore.so:_ZN4Core4Find8instanceEv
libCore.so:_ZN4Core4Find9findFlagsEv
libCore.so:_ZN4Core5ICore10coreOpenedEv
libCore.so:_ZN4Core5ICore10mainWindowEv
libCore.so:_ZN4Core5ICore10pluginPathEv
libCore.so:_ZN4Core5ICore11libexecPathERK7QString
libCore.so:_ZN4Core5ICore11qt_metacallEN11QMetaObject4CallEiPPv
libCore.so:_ZN4Core5ICore11qt_metacastEPKc
libCore.so:_ZN4Core5ICore11raiseWindowEP7QWidget
libCore.so:_ZN4Core5ICore12dialogParentEv
libCore.so:_ZN4Core5ICore12resourcePathERK7QString
libCore.so:_ZN4Core5ICore12saveSettingsENS0_18SaveSettingsReasonE
libCore.so:_ZN4Core5ICore13contextObjectEP7QWidget
libCore.so:_ZN4Core5ICore13newItemDialogEv
libCore.so:_ZN4Core5ICore13versionStringEv
libCore.so:_ZN4Core5ICore14contextChangedERKNS_7ContextE
libCore.so:_ZN4Core5ICore14ideDisplayNameEv
libCore.so:_ZN4Core5ICore14registerWindowEP7QWidgetRKNS_7ContextE
libCore.so:_ZN4Core5ICore14restartTrimmerEv
libCore.so:_ZN4Core5ICore14userPluginPathEv
libCore.so:_ZN4Core5ICore15clangExecutableERKN5Utils8FilePathE
libCore.so:_ZN4Core5ICore15coreAboutToOpenEv
libCore.so:_ZN4Core5ICore16addContextObjectEPNS_8IContextE
libCore.so:_ZN4Core5ICore16clangdExecutableERKN5Utils8FilePathE
libCore.so:_ZN4Core5ICore16coreAboutToCloseEv
libCore.so:_ZN4Core5ICore16crashReportsPathEv
libCore.so:_ZN4Core5ICore16settingsDatabaseEv
libCore.so:_ZN4Core5ICore16staticMetaObjectE
libCore.so:_ZN4Core5ICore16userResourcePathERK7QString
libCore.so:_ZN4Core5ICore17cacheResourcePathERK7QString
libCore.so:_ZN4Core5ICore17showNewItemDialogERK7QStringRK5QListIPNS_14IWizardFactoryEERKN5Utils8FilePathERK4QMapIS1_8QVariantE
libCore.so:_ZN4Core5ICore17showOptionsDialogEN5Utils2IdEP7QWidget
libCore.so:_ZN4Core5ICore17systemInformationEv
libCore.so:_ZN4Core5ICore18setupScreenShooterERK7QStringP7QWidgetRK5QRect
libCore.so:_ZN4Core5ICore19addPreCloseListenerERKSt8functionIFbvEE
libCore.so:_ZN4Core5ICore19clangTidyExecutableERKN5Utils8FilePathE
libCore.so:_ZN4Core5ICore19removeContextObjectEPNS_8IContextE
libCore.so:_ZN4Core5ICore19setNewDialogFactoryERKSt8functionIFPNS_9NewDialogEP7QWidgetEE
libCore.so:_ZN4Core5ICore20addAdditionalContextERKNS_7ContextENS0_15ContextPriorityE
libCore.so:_ZN4Core5ICore20contextAboutToChangeERK5QListIPNS_8IContextEE
libCore.so:_ZN4Core5ICore20currentContextObjectEv
libCore.so:_ZN4Core5ICore20currentContextWidgetEv
libCore.so:_ZN4Core5ICore20msgShowOptionsDialogEv
libCore.so:_ZN4Core5ICore21clangIncludeDirectoryERK7QStringRKN5Utils8FilePathE
libCore.so:_ZN4Core5ICore21installerResourcePathERK7QString
libCore.so:_ZN4Core5ICore21saveSettingsRequestedENS0_18SaveSettingsReasonE
libCore.so:_ZN4Core5ICore21userInterfaceLanguageEv
libCore.so:_ZN4Core5ICore22appendAboutInformationERK7QString
libCore.so:_ZN4Core5ICore22isNewItemDialogRunningEv
libCore.so:_ZN4Core5ICore22showWarningWithOptionsERK7QStringS3_S3_N5Utils2IdEP7QWidget
libCore.so:_ZN4Core5ICore23removeAdditionalContextERKNS_7ContextE
libCore.so:_ZN4Core5ICore24buildCompatibilityStringEv
libCore.so:_ZN4Core5ICore24systemEnvironmentChangedEv
libCore.so:_ZN4Core5ICore24updateAdditionalContextsERKNS_7ContextES3_NS0_15ContextPriorityE
libCore.so:_ZN4Core5ICore24updateNewItemDialogStateEv
libCore.so:_ZN4Core5ICore25clazyStandaloneExecutableERKN5Utils8FilePathE
libCore.so:_ZN4Core5ICore25newItemDialogStateChangedEv
libCore.so:_ZN4Core5ICore26additionalAboutInformationEv
libCore.so:_ZN4Core5ICore27msgShowOptionsDialogToolTipEv
libCore.so:_ZN4Core5ICore7infoBarEv
libCore.so:_ZN4Core5ICore7printerEv
libCore.so:_ZN4Core5ICore7restartEv
libCore.so:_ZN4Core5ICore8instanceEv
libCore.so:_ZN4Core5ICore8settingsEN9QSettings5ScopeE
libCore.so:_ZN4Core5ICore9openFilesERK5QListIN5Utils8FilePathEENS0_14OpenFilesFlagsE
libCore.so:_ZN4Core5ICore9statusBarEv
libCore.so:_ZN4Core5ICoreC1EPNS_8Internal10MainWindowE
libCore.so:_ZN4Core5ICoreC2EPNS_8Internal10MainWindowE
libCore.so:_ZN4Core5ICoreD0Ev
libCore.so:_ZN4Core5ICoreD1Ev
libCore.so:_ZN4Core5ICoreD2Ev
libCore.so:_ZN4Core5IMode10setEnabledEb
libCore.so:_ZN4Core5IMode11qt_metacallEN11QMetaObject4CallEiPPv
libCore.so:_ZN4Core5IMode11qt_metacastEPKc
libCore.so:_ZN4Core5IMode16staticMetaObjectE
libCore.so:_ZN4Core5IMode19enabledStateChangedEb
libCore.so:_ZN4Core5IModeC1EP7QObject
libCore.so:_ZN4Core5IModeC2EP7QObject
libCore.so:_ZN4Core5Icons11FIND_REGEXPE
libCore.so:_ZN4Core5Icons14MODE_EDIT_FLATE
libCore.so:_ZN4Core5Icons15FIND_WHOLE_WORDE
libCore.so:_ZN4Core5Icons16MODE_DESIGN_FLATE
libCore.so:_ZN4Core5Icons17MODE_EDIT_CLASSICE
libCore.so:_ZN4Core5Icons17QTCREATORLOGO_BIGE
libCore.so:_ZN4Core5Icons18FIND_PRESERVE_CASEE
libCore.so:_ZN4Core5Icons19MODE_DESIGN_CLASSICE
libCore.so:_ZN4Core5Icons20DESKTOP_DEVICE_SMALLE
libCore.so:_ZN4Core5Icons21MODE_EDIT_FLAT_ACTIVEE
libCore.so:_ZN4Core5Icons23FIND_CASE_INSENSITIVELYE
libCore.so:_ZN4Core5Icons23MODE_DESIGN_FLAT_ACTIVEE
libCore.so:_ZN4Core5Icons6QTLOGOE
libCore.so:_ZN4Core7Command11qt_metacallEN11QMetaObject4CallEiPPv
libCore.so:_ZN4Core7Command11qt_metacastEPKc
libCore.so:_ZN4Core7Command12setAttributeENS0_16CommandAttributeE
libCore.so:_ZN4Core7Command14setDescriptionERK7QString
libCore.so:_ZN4Core7Command15removeAttributeENS0_16CommandAttributeE
libCore.so:_ZN4Core7Command15setKeySequencesERK5QListI12QKeySequenceE
libCore.so:_ZN4Core7Command15setTouchBarIconERK5QIcon
libCore.so:_ZN4Core7Command15setTouchBarTextERK7QString
libCore.so:_ZN4Core7Command16staticMetaObjectE
libCore.so:_ZN4Core7Command18activeStateChangedEv
libCore.so:_ZN4Core7Command18keySequenceChangedEv
libCore.so:_ZN4Core7Command21setDefaultKeySequenceERK12QKeySequence
libCore.so:_ZN4Core7Command22setDefaultKeySequencesERK5QListI12QKeySequenceE
libCore.so:_ZN4Core7Command30toolButtonWithAppendedShortcutEP7QActionPS0_
libCore.so:_ZN4Core7CommandC1EN5Utils2IdE
libCore.so:_ZN4Core7CommandC2EN5Utils2IdE
libCore.so:_ZN4Core7CommandD0Ev
libCore.so:_ZN4Core7CommandD1Ev
libCore.so:_ZN4Core7CommandD2Ev
libCore.so:_ZN4Core7IEditor11qt_metacallEN11QMetaObject4CallEiPPv
libCore.so:_ZN4Core7IEditor11qt_metacastEPKc
libCore.so:_ZN4Core7IEditor16editorDuplicatedEPS0_
libCore.so:_ZN4Core7IEditor16staticMetaObjectE
libCore.so:_ZN4Core7IEditor21setDuplicateSupportedEb
libCore.so:_ZN4Core7IEditorC2Ev
libCore.so:_ZN4Core7SideBar11qt_metacallEN11QMetaObject4CallEiPPv
libCore.so:_ZN4Core7SideBar11qt_metacastEPKc
libCore.so:_ZN4Core7SideBar12activateItemERK7QString
libCore.so:_ZN4Core7SideBar12readSettingsEP9QSettingsRK7QString
libCore.so:_ZN4Core7SideBar12saveSettingsEP9QSettingsRK7QString
libCore.so:_ZN4Core7SideBar13sideBarClosedEv
libCore.so:_ZN4Core7SideBar13updateWidgetsEv
libCore.so:_ZN4Core7SideBar14closeSubWidgetEPNS_8Internal13SideBarWidgetE
libCore.so:_ZN4Core7SideBar14setShortcutMapERK4QMapI7QStringPNS_7CommandEE
libCore.so:_ZN4Core7SideBar14splitSubWidgetEPNS_8Internal13SideBarWidgetE
libCore.so:_ZN4Core7SideBar15closeAllWidgetsEv
libCore.so:_ZN4Core7SideBar16staticMetaObjectE
libCore.so:_ZN4Core7SideBar17makeItemAvailableEPNS_11SideBarItemE
libCore.so:_ZN4Core7SideBar17setCloseWhenEmptyEb
libCore.so:_ZN4Core7SideBar19insertSideBarWidgetEiRK7QString
libCore.so:_ZN4Core7SideBar19removeSideBarWidgetEPNS_8Internal13SideBarWidgetE
libCore.so:_ZN4Core7SideBar21availableItemsChangedEv
libCore.so:_ZN4Core7SideBar21setUnavailableItemIdsERK5QListI7QStringE
libCore.so:_ZN4Core7SideBar4itemERK7QString
libCore.so:_ZN4Core7SideBarC1E5QListIPNS_11SideBarItemEES4_
libCore.so:_ZN4Core7SideBarC2E5QListIPNS_11SideBarItemEES4_
libCore.so:_ZN4Core7SideBarD0Ev
libCore.so:_ZN4Core7SideBarD1Ev
libCore.so:_ZN4Core7SideBarD2Ev
libCore.so:_ZN4Core8GridView10leaveEventEP6QEvent
libCore.so:_ZN4Core8GridViewC1EP7QWidget
libCore.so:_ZN4Core8GridViewC2EP7QWidget
libCore.so:_ZN4Core8HelpItem10setDocMarkERK7QString
libCore.so:_ZN4Core8HelpItem10setHelpIdsERK5QListI7QStringE
libCore.so:_ZN4Core8HelpItem10setHelpUrlERK4QUrl
libCore.so:_ZN4Core8HelpItem11setCategoryENS0_8CategoryE
libCore.so:_ZN4Core8HelpItem11setFilePathERKN5Utils8FilePathE
libCore.so:_ZN4Core8HelpItem15setLinkNarrowerERKSt8functionIFSt6vectorISt4pairI7QString4QUrlESaIS6_EERKS0_RKS8_EE
libCore.so:_ZN4Core8HelpItem22extractQtVersionNumberERK4QUrl
libCore.so:_ZN4Core8HelpItemC1EPKc
libCore.so:_ZN4Core8HelpItemC1ERK4QUrl
libCore.so:_ZN4Core8HelpItemC1ERK4QUrlRK7QStringNS0_8CategoryE
libCore.so:_ZN4Core8HelpItemC1ERK5QListI7QStringERKN5Utils8FilePathERKS2_NS0_8CategoryE
libCore.so:_ZN4Core8HelpItemC1ERK7QString
libCore.so:_ZN4Core8HelpItemC1ERK7QStringRKN5Utils8FilePathES3_NS0_8CategoryE
libCore.so:_ZN4Core8HelpItemC1Ev
libCore.so:_ZN4Core8HelpItemC2EPKc
libCore.so:_ZN4Core8HelpItemC2ERK4QUrl
libCore.so:_ZN4Core8HelpItemC2ERK4QUrlRK7QStringNS0_8CategoryE
libCore.so:_ZN4Core8HelpItemC2ERK5QListI7QStringERKN5Utils8FilePathERKS2_NS0_8CategoryE
libCore.so:_ZN4Core8HelpItemC2ERK7QString
libCore.so:_ZN4Core8HelpItemC2ERK7QStringRKN5Utils8FilePathES3_NS0_8CategoryE
libCore.so:_ZN4Core8HelpItemC2Ev
libCore.so:_ZN4Core8IContext11qt_metacallEN11QMetaObject4CallEiPPv
libCore.so:_ZN4Core8IContext11qt_metacastEPKc
libCore.so:_ZN4Core8IContext16staticMetaObjectE
libCore.so:_ZN4Core8Internal9runSearchER16QFutureInterfaceINS_18LocatorFilterEntryEERK5QListIPNS_14ILocatorFilterEERK7QString
libCore.so:_ZN4Core9FileUtils10renameFileERKN5Utils8FilePathES4_NS_19HandleIncludeGuardsE
libCore.so:_ZN4Core9FileUtils11removeFilesERK5QListIN5Utils8FilePathEEb
libCore.so:_ZN4Core9FileUtils12openTerminalERKN5Utils8FilePathERKNS1_11EnvironmentE
libCore.so:_ZN4Core9FileUtils18msgFindInDirectoryEv
libCore.so:_ZN4Core9FileUtils19msgFileSystemActionEv
libCore.so:_ZN4Core9FileUtils20showInFileSystemViewERKN5Utils8FilePathE
libCore.so:_ZN4Core9FileUtils20showInGraphicalShellEP7QWidgetRKN5Utils8FilePathE
libCore.so:_ZN4Core9FileUtils21msgTerminalHereActionEv
libCore.so:_ZN4Core9FileUtils21msgTerminalWithActionEv
libCore.so:_ZN4Core9FileUtils23msgGraphicalShellActionEv
libCore.so:_ZN4Core9FileUtils32updateHeaderFileGuardAfterRenameERK7QStringS3_
libCore.so:_ZN4Core9FileUtils33updateHeaderFileGuardIfApplicableERKN5Utils8FilePathES4_NS_19HandleIncludeGuardsE
libCore.so:_ZN4Core9HighlightC1EN5Utils2IdEiNS1_5Theme5ColorENS0_8PriorityE
libCore.so:_ZN4Core9HighlightC2EN5Utils2IdEiNS1_5Theme5ColorENS0_8PriorityE
libCore.so:_ZN4Core9IDocument11qt_metacallEN11QMetaObject4CallEiPPv
libCore.so:_ZN4Core9IDocument11qt_metacastEPKc
libCore.so:_ZN4Core9IDocument11setContentsERK10QByteArray
libCore.so:_ZN4Core9IDocument11setFilePathERKN5Utils8FilePathE
libCore.so:_ZN4Core9IDocument11setMimeTypeERK7QString
libCore.so:_ZN4Core9IDocument12setTemporaryEb
libCore.so:_ZN4Core9IDocument13aboutToReloadEv
libCore.so:_ZN4Core9IDocument14reloadFinishedEb
libCore.so:_ZN4Core9IDocument15contentsChangedEv
libCore.so:_ZN4Core9IDocument15filePathChangedERKN5Utils8FilePathES4_
libCore.so:_ZN4Core9IDocument15mimeTypeChangedEv
libCore.so:_ZN4Core9IDocument15setRestoredFromERKN5Utils8FilePathE
libCore.so:_ZN4Core9IDocument15setWriteWarningEb
libCore.so:_ZN4Core9IDocument16checkPermissionsEv
libCore.so:_ZN4Core9IDocument16staticMetaObjectE
libCore.so:_ZN4Core9IDocument17setSuspendAllowedEb
libCore.so:_ZN4Core9IDocument18removeAutoSaveFileEv
libCore.so:_ZN4Core9IDocument19minimizableInfoBarsEv
libCore.so:_ZN4Core9IDocument20setUniqueDisplayNameERK7QString
libCore.so:_ZN4Core9IDocument23setPreferredDisplayNameERK7QString
libCore.so:_ZN4Core9IDocument4openEP7QStringRKN5Utils8FilePathES6_
libCore.so:_ZN4Core9IDocument4saveEP7QStringRKN5Utils8FilePathEb
libCore.so:_ZN4Core9IDocument5setIdEN5Utils2IdE
libCore.so:_ZN4Core9IDocument6reloadEP7QStringNS0_10ReloadFlagENS0_10ChangeTypeE
libCore.so:_ZN4Core9IDocument7changedEv
libCore.so:_ZN4Core9IDocument7infoBarEv
libCore.so:_ZN4Core9IDocument8autoSaveEP7QStringRKN5Utils8FilePathE
libCore.so:_ZN4Core9IDocumentC1EP7QObject
libCore.so:_ZN4Core9IDocumentC2EP7QObject
libCore.so:_ZN4Core9IDocumentD0Ev
libCore.so:_ZN4Core9IDocumentD1Ev
libCore.so:_ZN4Core9IDocumentD2Ev
libCore.so:_ZN4Core9ListModel11appendItemsERK5QListIPNS_8ListItemEE
libCore.so:_ZN4Core9ListModel12setOwnsItemsEb
libCore.so:_ZN4Core9ListModel16defaultImageSizeE
libCore.so:_ZN4Core9ListModel17setPixmapFunctionERKSt8functionIF7QPixmap7QStringEE
libCore.so:_ZN4Core9ListModel5clearEv
libCore.so:_ZN4Core9ListModelC1EP7QObject
libCore.so:_ZN4Core9ListModelC2EP7QObject
libCore.so:_ZN4Core9ListModelD0Ev
libCore.so:_ZN4Core9ListModelD1Ev
libCore.so:_ZN4Core9ListModelD2Ev
libCore.so:_ZN4Core9NewDialogC2Ev
libCore.so:_ZN4Core9NewDialogD0Ev
libCore.so:_ZN4Core9NewDialogD1Ev
libCore.so:_ZN4Core9NewDialogD2Ev
libCore.so:_ZN4Core9PatchTool12patchCommandEv
libCore.so:_ZN4Core9PatchTool15confirmPatchingEP7QWidgetNS_11PatchActionEb
libCore.so:_ZN4Core9PatchTool15setPatchCommandERKN5Utils8FilePathE
libCore.so:_ZN4Core9PatchTool8runPatchERK10QByteArrayRKN5Utils8FilePathEiNS_11PatchActionE
libCore.so:_ZN4Core9SearchBoxC1EP7QWidget
libCore.so:_ZN4Core9SearchBoxC2EP7QWidget
libCore.so:_ZN4CorelsE6QDebugRKNS_7ContextE
libCore.so:_ZN4CorelsER6QDebugRKNS_13GeneratedFileE
libCore.so:_ZNK14ManhattanStyle10metaObjectEv
libCore.so:_ZNK14ManhattanStyle11drawControlEN6QStyle14ControlElementEPK12QStyleOptionP8QPainterPK7QWidget
libCore.so:_ZNK14ManhattanStyle11pixelMetricEN6QStyle11PixelMetricEPK12QStyleOptionPK7QWidget
libCore.so:_ZNK14ManhattanStyle12standardIconEN6QStyle14StandardPixmapEPK12QStyleOptionPK7QWidget
libCore.so:_ZNK14ManhattanStyle13drawPrimitiveEN6QStyle16PrimitiveElementEPK12QStyleOptionP8QPainterPK7QWidget
libCore.so:_ZNK14ManhattanStyle14standardPixmapEN6QStyle14StandardPixmapEPK12QStyleOptionPK7QWidget
libCore.so:_ZNK14ManhattanStyle14subControlRectEN6QStyle14ComplexControlEPK19QStyleOptionComplexNS0_10SubControlEPK7QWidget
libCore.so:_ZNK14ManhattanStyle14subElementRectEN6QStyle10SubElementEPK12QStyleOptionPK7QWidget
libCore.so:_ZNK14ManhattanStyle15standardPaletteEv
libCore.so:_ZNK14ManhattanStyle16sizeFromContentsEN6QStyle12ContentsTypeEPK12QStyleOptionRK5QSizePK7QWidget
libCore.so:_ZNK14ManhattanStyle18drawComplexControlEN6QStyle14ComplexControlEPK19QStyleOptionComplexP8QPainterPK7QWidget
libCore.so:_ZNK14ManhattanStyle19generatedIconPixmapEN5QIcon4ModeERK7QPixmapPK12QStyleOption
libCore.so:_ZNK14ManhattanStyle21hitTestComplexControlEN6QStyle14ComplexControlEPK19QStyleOptionComplexRK6QPointPK7QWidget
libCore.so:_ZNK14ManhattanStyle9styleHintEN6QStyle9StyleHintEPK12QStyleOptionPK7QWidgetP16QStyleHintReturn
libCore.so:_ZNK4Core10DesignMode10metaObjectEv
libCore.so:_ZNK4Core10EditorType10metaObjectEv
libCore.so:_ZNK4Core10VcsManager10metaObjectEv
libCore.so:_ZNK4Core11HelpManager7Signals10metaObjectEv
libCore.so:_ZNK4Core11IFindFilter10metaObjectEv
libCore.so:_ZNK4Core11IFindFilter15defaultShortcutEv
libCore.so:_ZNK4Core11IFindFilter18supportedFindFlagsEv
libCore.so:_ZNK4Core11IOutputPane10filterTextEv
libCore.so:_ZNK4Core11IOutputPane10metaObjectEv
libCore.so:_ZNK4Core11IOutputPane14toolBarWidgetsEv
libCore.so:_ZNK4Core11IOutputPane20filterRegexpActionIdEv
libCore.so:_ZNK4Core11IOutputPane22filterInvertedActionIdEv
libCore.so:_ZNK4Core11IOutputPane29filterCaseSensitivityActionIdEv
libCore.so:_ZNK4Core11ModeManager10metaObjectEv
libCore.so:_ZNK4Core11SideBarItem10metaObjectEv
libCore.so:_ZNK4Core11SideBarItem2idEv
libCore.so:_ZNK4Core11SideBarItem5titleEv
libCore.so:_ZNK4Core11SideBarItem6widgetEv
libCore.so:_ZNK4Core12BaseTextFind10isReadOnlyEv
libCore.so:_ZNK4Core12BaseTextFind10metaObjectEv
libCore.so:_ZNK4Core12BaseTextFind10textCursorEv
libCore.so:_ZNK4Core12BaseTextFind15multiTextCursorEv
libCore.so:_ZNK4Core12BaseTextFind15supportsReplaceEv
libCore.so:_ZNK4Core12BaseTextFind17currentFindStringEv
libCore.so:_ZNK4Core12BaseTextFind18supportedFindFlagsEv
libCore.so:_ZNK4Core12BaseTextFind19completedFindStringEv
libCore.so:_ZNK4Core12BaseTextFind7findOneERK18QRegularExpression11QTextCursor6QFlagsIN13QTextDocument8FindFlagEE
libCore.so:_ZNK4Core12BaseTextFind7inScopeERK11QTextCursor
libCore.so:_ZNK4Core12BaseTextFind8documentEv
libCore.so:_ZNK4Core12ExternalTool10metaObjectEv
libCore.so:_ZNK4Core12ExternalTool11descriptionEv
libCore.so:_ZNK4Core12ExternalTool11displayNameEv
libCore.so:_ZNK4Core12ExternalTool11executablesEv
libCore.so:_ZNK4Core12ExternalTool13errorHandlingEv
libCore.so:_ZNK4Core12ExternalTool14outputHandlingEv
libCore.so:_ZNK4Core12ExternalTool15baseEnvironmentEv
libCore.so:_ZNK4Core12ExternalTool15displayCategoryEv
libCore.so:_ZNK4Core12ExternalTool16workingDirectoryEv
libCore.so:_ZNK4Core12ExternalTool22environmentUserChangesEv
libCore.so:_ZNK4Core12ExternalTool23modifiesCurrentDocumentEv
libCore.so:_ZNK4Core12ExternalTool25baseEnvironmentProviderIdEv
libCore.so:_ZNK4Core12ExternalTool2idEv
libCore.so:_ZNK4Core12ExternalTool4saveEP7QString
libCore.so:_ZNK4Core12ExternalTool5inputEv
libCore.so:_ZNK4Core12ExternalTool5orderEv
libCore.so:_ZNK4Core12ExternalTool6presetEv
libCore.so:_ZNK4Core12ExternalTool8filePathEv
libCore.so:_ZNK4Core12ExternalTool9argumentsEv
libCore.so:_ZNK4Core12ExternalTooleqERKS0_
libCore.so:_ZNK4Core12IFindSupport10metaObjectEv
libCore.so:_ZNK4Core12IFindSupport17supportsSelectAllEv
libCore.so:_ZNK4Core12IOptionsPage10metaObjectEv
libCore.so:_ZNK4Core12IOptionsPage12categoryIconEv
libCore.so:_ZNK4Core12IOptionsPage7matchesERK18QRegularExpression
libCore.so:_ZNK4Core12IOptionsPage8keywordsEv
libCore.so:_ZNK4Core12IWelcomePage10metaObjectEv
libCore.so:_ZNK4Core12ItemViewFind10metaObjectEv
libCore.so:_ZNK4Core12ItemViewFind15supportsReplaceEv
libCore.so:_ZNK4Core12ItemViewFind17currentFindStringEv
libCore.so:_ZNK4Core12ItemViewFind18supportedFindFlagsEv
libCore.so:_ZNK4Core12ItemViewFind19completedFindStringEv
libCore.so:_ZNK4Core12ItemViewFind9nextIndexERK11QModelIndexPb
libCore.so:_ZNK4Core12ItemViewFind9prevIndexERK11QModelIndexPb
libCore.so:_ZNK4Core12OptionsPopup10metaObjectEv
libCore.so:_ZNK4Core12OutputWindow10metaObjectEv
libCore.so:_ZNK4Core12OutputWindow12maxCharCountEv
libCore.so:_ZNK4Core12OutputWindow15knowsPositionOfEj
libCore.so:_ZNK4Core12OutputWindow15outputFormatterEv
libCore.so:_ZNK4Core12OutputWindow27createMimeDataFromSelectionEv
libCore.so:_ZNK4Core12OutputWindow8fontZoomEv
libCore.so:_ZNK4Core12SearchResult10metaObjectEv
libCore.so:_ZNK4Core12SearchResult13textToReplaceEv
libCore.so:_ZNK4Core12SearchResult15supportsReplaceEv
libCore.so:_ZNK4Core12SearchResult23additionalReplaceWidgetEv
libCore.so:_ZNK4Core12SearchResult5countEv
libCore.so:_ZNK4Core12SearchResult8userDataEv
libCore.so:_ZNK4Core12TaskProgress10metaObjectEv
libCore.so:_ZNK4Core13ActionManager10metaObjectEv
libCore.so:_ZNK4Core13CodecSelector10metaObjectEv
libCore.so:_ZNK4Core13CodecSelector13selectedCodecEv
libCore.so:_ZNK4Core13CommandAction10metaObjectEv
libCore.so:_ZNK4Core13CommandAction11toolTipBaseEv
libCore.so:_ZNK4Core13CommandButton10metaObjectEv
libCore.so:_ZNK4Core13CommandButton11toolTipBaseEv
libCore.so:_ZNK4Core13DocumentModel5Entry11displayNameEv
libCore.so:_ZNK4Core13DocumentModel5Entry16plainDisplayNameEv
libCore.so:_ZNK4Core13DocumentModel5Entry2idEv
libCore.so:_ZNK4Core13DocumentModel5Entry8filePathEv
libCore.so:_ZNK4Core13EditorManager10metaObjectEv
libCore.so:_ZNK4Core13EditorToolBar10metaObjectEv
libCore.so:_ZNK4Core13GeneratedFile10attributesEv
libCore.so:_ZNK4Core13GeneratedFile14binaryContentsEv
libCore.so:_ZNK4Core13GeneratedFile5writeEP7QString
libCore.so:_ZNK4Core13GeneratedFile8contentsEv
libCore.so:_ZNK4Core13GeneratedFile8editorIdEv
libCore.so:_ZNK4Core13GeneratedFile8filePathEv
libCore.so:_ZNK4Core13GeneratedFile8isBinaryEv
libCore.so:_ZNK4Core14BaseFileFilter10metaObjectEv
libCore.so:_ZNK4Core14BaseFileFilter12ListIterator7hasNextEv
libCore.so:_ZNK4Core14BaseFileFilter12ListIterator8filePathEv
libCore.so:_ZNK4Core14BaseFileFilter6acceptERKNS_18LocatorFilterEntryEP7QStringPiS6_
libCore.so:_ZNK4Core14BaseFileWizard10metaObjectEv
libCore.so:_ZNK4Core14CommandLocator10metaObjectEv
libCore.so:_ZNK4Core14CommandLocator6acceptERKNS_18LocatorFilterEntryEP7QStringPiS6_
libCore.so:_ZNK4Core14FutureProgress10metaObjectEv
libCore.so:_ZNK4Core14FutureProgress12keepOnFinishEv
libCore.so:_ZNK4Core14FutureProgress15isCancelEnabledEv
libCore.so:_ZNK4Core14FutureProgress15statusBarWidgetEv
libCore.so:_ZNK4Core14FutureProgress28isSubtitleVisibleInStatusBarEv
libCore.so:_ZNK4Core14FutureProgress4typeEv
libCore.so:_ZNK4Core14FutureProgress5titleEv
libCore.so:_ZNK4Core14FutureProgress6futureEv
libCore.so:_ZNK4Core14FutureProgress6widgetEv
libCore.so:_ZNK4Core14FutureProgress8hasErrorEv
libCore.so:_ZNK4Core14FutureProgress8isFadingEv
libCore.so:_ZNK4Core14FutureProgress8sizeHintEv
libCore.so:_ZNK4Core14FutureProgress8subtitleEv
libCore.so:_ZNK4Core14IEditorFactory10metaObjectEv
libCore.so:_ZNK4Core14IEditorFactory12createEditorEv
libCore.so:_ZNK4Core14ILocatorFilter10metaObjectEv
libCore.so:_ZNK4Core14ILocatorFilter11descriptionEv
libCore.so:_ZNK4Core14ILocatorFilter11displayNameEv
libCore.so:_ZNK4Core14ILocatorFilter14isConfigurableEv
libCore.so:_ZNK4Core14ILocatorFilter14shortcutStringEv
libCore.so:_ZNK4Core14ILocatorFilter17defaultSearchTextEv
libCore.so:_ZNK4Core14ILocatorFilter18defaultKeySequenceEv
libCore.so:_ZNK4Core14ILocatorFilter19isIncludedByDefaultEv
libCore.so:_ZNK4Core14ILocatorFilter2idEv
libCore.so:_ZNK4Core14ILocatorFilter8actionIdEv
libCore.so:_ZNK4Core14ILocatorFilter8isHiddenEv
libCore.so:_ZNK4Core14ILocatorFilter8priorityEv
libCore.so:_ZNK4Core14ILocatorFilter9isEnabledEv
libCore.so:_ZNK4Core14ILocatorFilter9saveStateER11QJsonObject
libCore.so:_ZNK4Core14ILocatorFilter9saveStateEv
libCore.so:_ZNK4Core14IWizardFactory10metaObjectEv
libCore.so:_ZNK4Core14IWizardFactory11isAvailableEN5Utils2IdE
libCore.so:_ZNK4Core14IWizardFactory18supportedPlatformsEv
libCore.so:_ZNK4Core14IWizardFactory7runPathERKN5Utils8FilePathE
libCore.so:_ZNK4Core14LocatorManager10metaObjectEv
libCore.so:_ZNK4Core14MessageManager10metaObjectEv
libCore.so:_ZNK4Core15ActionContainer10metaObjectEv
libCore.so:_ZNK4Core15CommandMappings10filterTextEv
libCore.so:_ZNK4Core15CommandMappings10metaObjectEv
libCore.so:_ZNK4Core15CommandMappings11commandListEv
libCore.so:_ZNK4Core15CommandMappings12filterColumnERK7QStringP15QTreeWidgetItemi
libCore.so:_ZNK4Core15DirectoryFilter10metaObjectEv
libCore.so:_ZNK4Core15DirectoryFilter11directoriesEv
libCore.so:_ZNK4Core15DirectoryFilter9saveStateER11QJsonObject
libCore.so:_ZNK4Core15DocumentManager10metaObjectEv
libCore.so:_ZNK4Core15IExternalEditor10metaObjectEv
libCore.so:_ZNK4Core15IVersionControl10getRepoUrlERK7QString
libCore.so:_ZNK4Core15IVersionControl10metaObjectEv
libCore.so:_ZNK4Core15IVersionControl11vcsOpenTextEv
libCore.so:_ZNK4Core15IVersionControl14unmanagedFilesERK5QListIN5Utils8FilePathEE
libCore.so:_ZNK4Core15IVersionControl15openSupportModeERKN5Utils8FilePathE
libCore.so:_ZNK4Core15IVersionControl19additionalToolsPathEv
libCore.so:_ZNK4Core15IVersionControl19vcsMakeWritableTextEv
libCore.so:_ZNK4Core15ListModelFilter15sourceListModelEv
libCore.so:_ZNK4Core15ListModelFilter16filterAcceptsRowEiRK11QModelIndex
libCore.so:_ZNK4Core15ListModelFilter36leaveFilterAcceptsRowBeforeFilteringEPKNS_8ListItemEPb
libCore.so:_ZNK4Core15ProgressManager10metaObjectEv
libCore.so:_ZNK4Core15RightPaneWidget10metaObjectEv
libCore.so:_ZNK4Core15RightPaneWidget11storedWidthEv
libCore.so:_ZNK4Core15RightPaneWidget6widgetEv
libCore.so:_ZNK4Core15RightPaneWidget7isShownEv
libCore.so:_ZNK4Core15SectionGridView14heightForWidthEi
libCore.so:_ZNK4Core15SectionGridView17hasHeightForWidthEv
libCore.so:_ZNK4Core16BaseTextDocument10metaObjectEv
libCore.so:_ZNK4Core16BaseTextDocument13supportsCodecEPK10QTextCodec
libCore.so:_ZNK4Core16BaseTextDocument15supportsUtf8BomEv
libCore.so:_ZNK4Core16BaseTextDocument16hasDecodingErrorEv
libCore.so:_ZNK4Core16BaseTextDocument19decodingErrorSampleEv
libCore.so:_ZNK4Core16BaseTextDocument19lineTerminationModeEv
libCore.so:_ZNK4Core16BaseTextDocument5codecEv
libCore.so:_ZNK4Core16BaseTextDocument5writeERKN5Utils8FilePathERK7QStringPS5_
libCore.so:_ZNK4Core16BaseTextDocument5writeERKN5Utils8FilePathERKNS1_14TextFileFormatERK7QStringPS8_
libCore.so:_ZNK4Core16BaseTextDocument6formatEv
libCore.so:_ZNK4Core16ListItemDelegate10metaObjectEv
libCore.so:_ZNK4Core16ListItemDelegate11clickActionEPKNS_8ListItemE
libCore.so:_ZNK4Core16ListItemDelegate17drawPixmapOverlayEPKNS_8ListItemEP8QPainterRK20QStyleOptionViewItemRK5QRect
libCore.so:_ZNK4Core16ListItemDelegate5paintEP8QPainterRK20QStyleOptionViewItemRK11QModelIndex
libCore.so:_ZNK4Core16ListItemDelegate8sizeHintERK20QStyleOptionViewItemRK11QModelIndex
libCore.so:_ZNK4Core16NavigationWidget10commandMapEv
libCore.so:_ZNK4Core16NavigationWidget10metaObjectEv
libCore.so:_ZNK4Core16NavigationWidget11settingsKeyERK7QString
libCore.so:_ZNK4Core16NavigationWidget12factoryModelEv
libCore.so:_ZNK4Core16NavigationWidget13settingsGroupEv
libCore.so:_ZNK4Core16NavigationWidget7isShownEv
libCore.so:_ZNK4Core16SettingsDatabase5groupEv
libCore.so:_ZNK4Core16SettingsDatabase5valueERK7QStringRK8QVariant
libCore.so:_ZNK4Core16SettingsDatabase8containsERK7QString
libCore.so:_ZNK4Core16SettingsDatabase9childKeysEv
libCore.so:_ZNK4Core16UrlLocatorFilter10metaObjectEv
libCore.so:_ZNK4Core16UrlLocatorFilter10remoteUrlsEv
libCore.so:_ZNK4Core16UrlLocatorFilter14isCustomFilterEv
libCore.so:_ZNK4Core16UrlLocatorFilter6acceptERKNS_18LocatorFilterEntryEP7QStringPiS6_
libCore.so:_ZNK4Core16UrlLocatorFilter9saveStateER11QJsonObject
libCore.so:_ZNK4Core18ExternalToolRunner10metaObjectEv
libCore.so:_ZNK4Core18ExternalToolRunner11errorStringEv
libCore.so:_ZNK4Core18ExternalToolRunner8hasErrorEv
libCore.so:_ZNK4Core18IOptionsPageWidget10metaObjectEv
libCore.so:_ZNK4Core18SearchResultFilter10metaObjectEv
libCore.so:_ZNK4Core18SearchResultWindow10metaObjectEv
libCore.so:_ZNK4Core18SearchResultWindow11canNavigateEv
libCore.so:_ZNK4Core18SearchResultWindow11canPreviousEv
libCore.so:_ZNK4Core18SearchResultWindow11displayNameEv
libCore.so:_ZNK4Core18SearchResultWindow14toolBarWidgetsEv
libCore.so:_ZNK4Core18SearchResultWindow19priorityInStatusBarEv
libCore.so:_ZNK4Core18SearchResultWindow7canNextEv
libCore.so:_ZNK4Core18SearchResultWindow8canFocusEv
libCore.so:_ZNK4Core18SearchResultWindow8hasFocusEv
libCore.so:_ZNK4Core19ExternalToolManager10metaObjectEv
libCore.so:_ZNK4Core19ReadOnlyFilesDialog10metaObjectEv
libCore.so:_ZNK4Core20IFileWizardExtension10metaObjectEv
libCore.so:_ZNK4Core20IOptionsPageProvider10metaObjectEv
libCore.so:_ZNK4Core20IOptionsPageProvider12categoryIconEv
libCore.so:_ZNK4Core20RightPanePlaceHolder10metaObjectEv
libCore.so:_ZNK4Core21BaseFileWizardFactory10metaObjectEv
libCore.so:_ZNK4Core21BaseFileWizardFactory10writeFilesERK5QListINS_13GeneratedFileEEP7QString
libCore.so:_ZNK4Core21BaseFileWizardFactory17postGenerateFilesEPK7QWizardRK5QListINS_13GeneratedFileEEP7QString
libCore.so:_ZNK4Core21OpenDocumentsTreeView10metaObjectEv
libCore.so:_ZNK4Core21OutputPanePlaceHolder10metaObjectEv
libCore.so:_ZNK4Core21OutputPanePlaceHolder11isMaximizedEv
libCore.so:_ZNK4Core21OutputPanePlaceHolder16nonMaximizedSizeEv
libCore.so:_ZNK4Core21PromptOverwriteDialog10metaObjectEv
libCore.so:_ZNK4Core21PromptOverwriteDialog11itemForFileERKN5Utils8FilePathE
libCore.so:_ZNK4Core21PromptOverwriteDialog13isFileCheckedERKN5Utils8FilePathE
libCore.so:_ZNK4Core21PromptOverwriteDialog13isFileEnabledERKN5Utils8FilePathE
libCore.so:_ZNK4Core21PromptOverwriteDialog5filesEN2Qt10CheckStateE
libCore.so:_ZNK4Core22FindToolBarPlaceHolder10metaObjectEv
libCore.so:_ZNK4Core22FindToolBarPlaceHolder14isLightColoredEv
libCore.so:_ZNK4Core22FindToolBarPlaceHolder5ownerEv
libCore.so:_ZNK4Core22FolderNavigationWidget10metaObjectEv
libCore.so:_ZNK4Core22FolderNavigationWidget17hiddenFilesFilterEv
libCore.so:_ZNK4Core22FolderNavigationWidget19autoSynchronizationEv
libCore.so:_ZNK4Core22FolderNavigationWidget20isShowingBreadCrumbsEv
libCore.so:_ZNK4Core22FolderNavigationWidget21isShowingFoldersOnTopEv
libCore.so:_ZNK4Core22FolderNavigationWidget23rootAutoSynchronizationEv
libCore.so:_ZNK4Core24EditorManagerPlaceHolder10metaObjectEv
libCore.so:_ZNK4Core24INavigationWidgetFactory10metaObjectEv
libCore.so:_ZNK4Core24INavigationWidgetFactory18activationSequenceEv
libCore.so:_ZNK4Core27NavigationWidgetPlaceHolder10metaObjectEv
libCore.so:_ZNK4Core27NavigationWidgetPlaceHolder11storedWidthEv
libCore.so:_ZNK4Core28HighlightScrollBarController10highlightsEv
libCore.so:_ZNK4Core28HighlightScrollBarController10lineHeightEv
libCore.so:_ZNK4Core28HighlightScrollBarController10scrollAreaEv
libCore.so:_ZNK4Core28HighlightScrollBarController12visibleRangeEv
libCore.so:_ZNK4Core28HighlightScrollBarController6marginEv
libCore.so:_ZNK4Core28HighlightScrollBarController9scrollBarEv
libCore.so:_ZNK4Core29FolderNavigationWidgetFactory10metaObjectEv
libCore.so:_ZNK4Core4Find10metaObjectEv
libCore.so:_ZNK4Core5ICore10metaObjectEv
libCore.so:_ZNK4Core5IMode10metaObjectEv
libCore.so:_ZNK4Core5IMode9isEnabledEv
libCore.so:_ZNK4Core7Command10metaObjectEv
libCore.so:_ZNK4Core7Command11descriptionEv
libCore.so:_ZNK4Core7Command11keySequenceEv
libCore.so:_ZNK4Core7Command12hasAttributeENS0_16CommandAttributeE
libCore.so:_ZNK4Core7Command12isScriptableERKNS_7ContextE
libCore.so:_ZNK4Core7Command12isScriptableEv
libCore.so:_ZNK4Core7Command12keySequencesEv
libCore.so:_ZNK4Core7Command12touchBarIconEv
libCore.so:_ZNK4Core7Command12touchBarTextEv
libCore.so:_ZNK4Core7Command14touchBarActionEv
libCore.so:_ZNK4Core7Command19defaultKeySequencesEv
libCore.so:_ZNK4Core7Command26stringWithAppendedShortcutERK7QString
libCore.so:_ZNK4Core7Command2idEv
libCore.so:_ZNK4Core7Command32augmentActionWithShortcutToolTipEP7QAction
libCore.so:_ZNK4Core7Command6actionEv
libCore.so:_ZNK4Core7Command7contextEv
libCore.so:_ZNK4Core7Command8isActiveEv
libCore.so:_ZNK4Core7IEditor10metaObjectEv
libCore.so:_ZNK4Core7IEditor18duplicateSupportedEv
libCore.so:_ZNK4Core7SideBar10idForTitleERK7QString
libCore.so:_ZNK4Core7SideBar10metaObjectEv
libCore.so:_ZNK4Core7SideBar11shortcutMapEv
libCore.so:_ZNK4Core7SideBar14closeWhenEmptyEv
libCore.so:_ZNK4Core7SideBar16availableItemIdsEv
libCore.so:_ZNK4Core7SideBar18unavailableItemIdsEv
libCore.so:_ZNK4Core7SideBar19availableItemTitlesEv
libCore.so:_ZNK4Core8HelpItem12isFuzzyMatchEv
libCore.so:_ZNK4Core8HelpItem14extractContentEb
libCore.so:_ZNK4Core8HelpItem14firstParagraphEv
libCore.so:_ZNK4Core8HelpItem5linksEv
libCore.so:_ZNK4Core8HelpItem7docMarkEv
libCore.so:_ZNK4Core8HelpItem7helpIdsEv
libCore.so:_ZNK4Core8HelpItem7helpUrlEv
libCore.so:_ZNK4Core8HelpItem7isEmptyEv
libCore.so:_ZNK4Core8HelpItem7isValidEv
libCore.so:_ZNK4Core8HelpItem7keywordEv
libCore.so:_ZNK4Core8HelpItem8categoryEv
libCore.so:_ZNK4Core8HelpItem8filePathEv
libCore.so:_ZNK4Core8HelpItem9bestLinksEv
libCore.so:_ZNK4Core8IContext10metaObjectEv
libCore.so:_ZNK4Core9IDocument10isModifiedEv
libCore.so:_ZNK4Core9IDocument10metaObjectEv
libCore.so:_ZNK4Core9IDocument11displayNameEv
libCore.so:_ZNK4Core9IDocument11isTemporaryEv
libCore.so:_ZNK4Core9IDocument14isFileReadOnlyEv
libCore.so:_ZNK4Core9IDocument14reloadBehaviorENS0_13ChangeTriggerENS0_10ChangeTypeE
libCore.so:_ZNK4Core9IDocument14shouldAutoSaveEv
libCore.so:_ZNK4Core9IDocument15hasWriteWarningEv
libCore.so:_ZNK4Core9IDocument15isSaveAsAllowedEv
libCore.so:_ZNK4Core9IDocument16isSuspendAllowedEv
libCore.so:_ZNK4Core9IDocument16plainDisplayNameEv
libCore.so:_ZNK4Core9IDocument17uniqueDisplayNameEv
libCore.so:_ZNK4Core9IDocument18fallbackSaveAsPathEv
libCore.so:_ZNK4Core9IDocument20preferredDisplayNameEv
libCore.so:_ZNK4Core9IDocument22fallbackSaveAsFileNameEv
libCore.so:_ZNK4Core9IDocument2idEv
libCore.so:_ZNK4Core9IDocument8contentsEv
libCore.so:_ZNK4Core9IDocument8filePathEv
libCore.so:_ZNK4Core9IDocument8mimeTypeEv
libCore.so:_ZNK4Core9ListModel4dataERK11QModelIndexi
libCore.so:_ZNK4Core9ListModel5itemsEv
libCore.so:_ZNK4Core9ListModel8rowCountERK11QModelIndex
libCore.so:_ZTI14ManhattanStyle
libCore.so:_ZTIN4Core10DesignModeE
libCore.so:_ZTIN4Core10EditorTypeE
libCore.so:_ZTIN4Core10VcsManagerE
libCore.so:_ZTIN4Core11DiffServiceE
libCore.so:_ZTIN4Core11HelpManager14ImplementationE
libCore.so:_ZTIN4Core11HelpManager7SignalsE
libCore.so:_ZTIN4Core11IFindFilterE
libCore.so:_ZTIN4Core11IOutputPaneE
libCore.so:_ZTIN4Core11ModeManagerE
libCore.so:_ZTIN4Core11SideBarItemE
libCore.so:_ZTIN4Core12BaseTextFindE
libCore.so:_ZTIN4Core12ExternalToolE
libCore.so:_ZTIN4Core12IFindSupportE
libCore.so:_ZTIN4Core12IOptionsPageE
libCore.so:_ZTIN4Core12IWelcomePageE
libCore.so:_ZTIN4Core12ItemViewFindE
libCore.so:_ZTIN4Core12MiniSplitterE
libCore.so:_ZTIN4Core12OptionsPopupE
libCore.so:_ZTIN4Core12OutputWindowE
libCore.so:_ZTIN4Core12SearchResultE
libCore.so:_ZTIN4Core12TaskProgressE
libCore.so:_ZTIN4Core13ActionManagerE
libCore.so:_ZTIN4Core13CodecSelectorE
libCore.so:_ZTIN4Core13CommandActionE
libCore.so:_ZTIN4Core13CommandButtonE
libCore.so:_ZTIN4Core13EditorManagerE
libCore.so:_ZTIN4Core13EditorToolBarE
libCore.so:_ZTIN4Core14BaseFileFilter12ListIteratorE
libCore.so:_ZTIN4Core14BaseFileFilter8IteratorE
libCore.so:_ZTIN4Core14BaseFileFilterE
libCore.so:_ZTIN4Core14BaseFileWizardE
libCore.so:_ZTIN4Core14CommandLocatorE
libCore.so:_ZTIN4Core14FutureProgressE
libCore.so:_ZTIN4Core14IEditorFactoryE
libCore.so:_ZTIN4Core14ILocatorFilterE
libCore.so:_ZTIN4Core14IWizardFactoryE
libCore.so:_ZTIN4Core14LocatorManagerE
libCore.so:_ZTIN4Core14MessageManagerE
libCore.so:_ZTIN4Core15ActionContainerE
libCore.so:_ZTIN4Core15CommandMappingsE
libCore.so:_ZTIN4Core15DirectoryFilterE
libCore.so:_ZTIN4Core15DocumentManagerE
libCore.so:_ZTIN4Core15IExternalEditorE
libCore.so:_ZTIN4Core15IVersionControl10TopicCacheE
libCore.so:_ZTIN4Core15IVersionControlE
libCore.so:_ZTIN4Core15ListModelFilterE
libCore.so:_ZTIN4Core15ProcessProgressE
libCore.so:_ZTIN4Core15ProgressManagerE
libCore.so:_ZTIN4Core15RightPaneWidgetE
libCore.so:_ZTIN4Core15SectionGridViewE
libCore.so:_ZTIN4Core16BaseTextDocumentE
libCore.so:_ZTIN4Core16ListItemDelegateE
libCore.so:_ZTIN4Core16NavigationWidgetE
libCore.so:_ZTIN4Core16SettingsDatabaseE
libCore.so:_ZTIN4Core16UrlLocatorFilterE
libCore.so:_ZTIN4Core16WelcomePageFrameE
libCore.so:_ZTIN4Core17SectionedGridViewE
libCore.so:_ZTIN4Core17WelcomePageButtonE
libCore.so:_ZTIN4Core18ExternalToolRunnerE
libCore.so:_ZTIN4Core18IOptionsPageWidgetE
libCore.so:_ZTIN4Core18SearchResultFilterE
libCore.so:_ZTIN4Core18SearchResultWindowE
libCore.so:_ZTIN4Core19ExternalToolManagerE
libCore.so:_ZTIN4Core19NonResizingSplitterE
libCore.so:_ZTIN4Core19ReadOnlyFilesDialogE
libCore.so:_ZTIN4Core20IFileWizardExtensionE
libCore.so:_ZTIN4Core20IOptionsPageProviderE
libCore.so:_ZTIN4Core20RightPanePlaceHolderE
libCore.so:_ZTIN4Core21BaseFileWizardFactoryE
libCore.so:_ZTIN4Core21OpenDocumentsTreeViewE
libCore.so:_ZTIN4Core21OutputPanePlaceHolderE
libCore.so:_ZTIN4Core21PromptOverwriteDialogE
libCore.so:_ZTIN4Core22FindToolBarPlaceHolderE
libCore.so:_ZTIN4Core22FolderNavigationWidgetE
libCore.so:_ZTIN4Core24EditorManagerPlaceHolderE
libCore.so:_ZTIN4Core24INavigationWidgetFactoryE
libCore.so:_ZTIN4Core27NavigationWidgetPlaceHolderE
libCore.so:_ZTIN4Core29FolderNavigationWidgetFactoryE
libCore.so:_ZTIN4Core4FindE
libCore.so:_ZTIN4Core5ICoreE
libCore.so:_ZTIN4Core5IModeE
libCore.so:_ZTIN4Core7CommandE
libCore.so:_ZTIN4Core7IEditorE
libCore.so:_ZTIN4Core7SideBarE
libCore.so:_ZTIN4Core8GridViewE
libCore.so:_ZTIN4Core8IContextE
libCore.so:_ZTIN4Core9IDocumentE
libCore.so:_ZTIN4Core9ListModelE
libCore.so:_ZTS14ManhattanStyle
libCore.so:_ZTSN4Core10DesignModeE
libCore.so:_ZTSN4Core10EditorTypeE
libCore.so:_ZTSN4Core10VcsManagerE
libCore.so:_ZTSN4Core11DiffServiceE
libCore.so:_ZTSN4Core11HelpManager14ImplementationE
libCore.so:_ZTSN4Core11HelpManager7SignalsE
libCore.so:_ZTSN4Core11IFindFilterE
libCore.so:_ZTSN4Core11IOutputPaneE
libCore.so:_ZTSN4Core11ModeManagerE
libCore.so:_ZTSN4Core11SideBarItemE
libCore.so:_ZTSN4Core12BaseTextFindE
libCore.so:_ZTSN4Core12ExternalToolE
libCore.so:_ZTSN4Core12IFindSupportE
libCore.so:_ZTSN4Core12IOptionsPageE
libCore.so:_ZTSN4Core12IWelcomePageE
libCore.so:_ZTSN4Core12ItemViewFindE
libCore.so:_ZTSN4Core12MiniSplitterE
libCore.so:_ZTSN4Core12OptionsPopupE
libCore.so:_ZTSN4Core12OutputWindowE
libCore.so:_ZTSN4Core12SearchResultE
libCore.so:_ZTSN4Core12TaskProgressE
libCore.so:_ZTSN4Core13ActionManagerE
libCore.so:_ZTSN4Core13CodecSelectorE
libCore.so:_ZTSN4Core13CommandActionE
libCore.so:_ZTSN4Core13CommandButtonE
libCore.so:_ZTSN4Core13EditorManagerE
libCore.so:_ZTSN4Core13EditorToolBarE
libCore.so:_ZTSN4Core14BaseFileFilter12ListIteratorE
libCore.so:_ZTSN4Core14BaseFileFilter8IteratorE
libCore.so:_ZTSN4Core14BaseFileFilterE
libCore.so:_ZTSN4Core14BaseFileWizardE
libCore.so:_ZTSN4Core14CommandLocatorE
libCore.so:_ZTSN4Core14FutureProgressE
libCore.so:_ZTSN4Core14IEditorFactoryE
libCore.so:_ZTSN4Core14ILocatorFilterE
libCore.so:_ZTSN4Core14IWizardFactoryE
libCore.so:_ZTSN4Core14LocatorManagerE
libCore.so:_ZTSN4Core14MessageManagerE
libCore.so:_ZTSN4Core15ActionContainerE
libCore.so:_ZTSN4Core15CommandMappingsE
libCore.so:_ZTSN4Core15DirectoryFilterE
libCore.so:_ZTSN4Core15DocumentManagerE
libCore.so:_ZTSN4Core15IExternalEditorE
libCore.so:_ZTSN4Core15IVersionControl10TopicCacheE
libCore.so:_ZTSN4Core15IVersionControlE
libCore.so:_ZTSN4Core15ListModelFilterE
libCore.so:_ZTSN4Core15ProcessProgressE
libCore.so:_ZTSN4Core15ProgressManagerE
libCore.so:_ZTSN4Core15RightPaneWidgetE
libCore.so:_ZTSN4Core15SectionGridViewE
libCore.so:_ZTSN4Core16BaseTextDocumentE
libCore.so:_ZTSN4Core16ListItemDelegateE
libCore.so:_ZTSN4Core16NavigationWidgetE
libCore.so:_ZTSN4Core16SettingsDatabaseE
libCore.so:_ZTSN4Core16UrlLocatorFilterE
libCore.so:_ZTSN4Core16WelcomePageFrameE
libCore.so:_ZTSN4Core17SectionedGridViewE
libCore.so:_ZTSN4Core17WelcomePageButtonE
libCore.so:_ZTSN4Core18ExternalToolRunnerE
libCore.so:_ZTSN4Core18IOptionsPageWidgetE
libCore.so:_ZTSN4Core18SearchResultFilterE
libCore.so:_ZTSN4Core18SearchResultWindowE
libCore.so:_ZTSN4Core19ExternalToolManagerE
libCore.so:_ZTSN4Core19NonResizingSplitterE
libCore.so:_ZTSN4Core19ReadOnlyFilesDialogE
libCore.so:_ZTSN4Core20IFileWizardExtensionE
libCore.so:_ZTSN4Core20IOptionsPageProviderE
libCore.so:_ZTSN4Core20RightPanePlaceHolderE
libCore.so:_ZTSN4Core21BaseFileWizardFactoryE
libCore.so:_ZTSN4Core21OpenDocumentsTreeViewE
libCore.so:_ZTSN4Core21OutputPanePlaceHolderE
libCore.so:_ZTSN4Core21PromptOverwriteDialogE
libCore.so:_ZTSN4Core22FindToolBarPlaceHolderE
libCore.so:_ZTSN4Core22FolderNavigationWidgetE
libCore.so:_ZTSN4Core24EditorManagerPlaceHolderE
libCore.so:_ZTSN4Core24INavigationWidgetFactoryE
libCore.so:_ZTSN4Core27NavigationWidgetPlaceHolderE
libCore.so:_ZTSN4Core29FolderNavigationWidgetFactoryE
libCore.so:_ZTSN4Core4FindE
libCore.so:_ZTSN4Core5ICoreE
libCore.so:_ZTSN4Core5IModeE
libCore.so:_ZTSN4Core7CommandE
libCore.so:_ZTSN4Core7IEditorE
libCore.so:_ZTSN4Core7SideBarE
libCore.so:_ZTSN4Core8GridViewE
libCore.so:_ZTSN4Core8IContextE
libCore.so:_ZTSN4Core9IDocumentE
libCore.so:_ZTSN4Core9ListModelE
libCore.so:_ZTV14ManhattanStyle
libCore.so:_ZTVN4Core10DesignModeE
libCore.so:_ZTVN4Core10EditorTypeE
libCore.so:_ZTVN4Core10VcsManagerE
libCore.so:_ZTVN4Core11DiffServiceE
libCore.so:_ZTVN4Core11HelpManager14ImplementationE
libCore.so:_ZTVN4Core11HelpManager7SignalsE
libCore.so:_ZTVN4Core11IFindFilterE
libCore.so:_ZTVN4Core11IOutputPaneE
libCore.so:_ZTVN4Core11ModeManagerE
libCore.so:_ZTVN4Core11SideBarItemE
libCore.so:_ZTVN4Core12BaseTextFindE
libCore.so:_ZTVN4Core12ExternalToolE
libCore.so:_ZTVN4Core12IFindSupportE
libCore.so:_ZTVN4Core12IOptionsPageE
libCore.so:_ZTVN4Core12IWelcomePageE
libCore.so:_ZTVN4Core12ItemViewFindE
libCore.so:_ZTVN4Core12MiniSplitterE
libCore.so:_ZTVN4Core12OptionsPopupE
libCore.so:_ZTVN4Core12OutputWindowE
libCore.so:_ZTVN4Core12SearchResultE
libCore.so:_ZTVN4Core12TaskProgressE
libCore.so:_ZTVN4Core13ActionManagerE
libCore.so:_ZTVN4Core13CodecSelectorE
libCore.so:_ZTVN4Core13CommandActionE
libCore.so:_ZTVN4Core13CommandButtonE
libCore.so:_ZTVN4Core13EditorManagerE
libCore.so:_ZTVN4Core13EditorToolBarE
libCore.so:_ZTVN4Core14BaseFileFilter12ListIteratorE
libCore.so:_ZTVN4Core14BaseFileFilter8IteratorE
libCore.so:_ZTVN4Core14BaseFileFilterE
libCore.so:_ZTVN4Core14BaseFileWizardE
libCore.so:_ZTVN4Core14CommandLocatorE
libCore.so:_ZTVN4Core14FutureProgressE
libCore.so:_ZTVN4Core14IEditorFactoryE
libCore.so:_ZTVN4Core14ILocatorFilterE
libCore.so:_ZTVN4Core14IWizardFactoryE
libCore.so:_ZTVN4Core14LocatorManagerE
libCore.so:_ZTVN4Core14MessageManagerE
libCore.so:_ZTVN4Core15ActionContainerE
libCore.so:_ZTVN4Core15CommandMappingsE
libCore.so:_ZTVN4Core15DirectoryFilterE
libCore.so:_ZTVN4Core15DocumentManagerE
libCore.so:_ZTVN4Core15IExternalEditorE
libCore.so:_ZTVN4Core15IVersionControl10TopicCacheE
libCore.so:_ZTVN4Core15IVersionControlE
libCore.so:_ZTVN4Core15ListModelFilterE
libCore.so:_ZTVN4Core15ProcessProgressE
libCore.so:_ZTVN4Core15ProgressManagerE
libCore.so:_ZTVN4Core15RightPaneWidgetE
libCore.so:_ZTVN4Core15SectionGridViewE
libCore.so:_ZTVN4Core16BaseTextDocumentE
libCore.so:_ZTVN4Core16ListItemDelegateE
libCore.so:_ZTVN4Core16NavigationWidgetE
libCore.so:_ZTVN4Core16SettingsDatabaseE
libCore.so:_ZTVN4Core16UrlLocatorFilterE
libCore.so:_ZTVN4Core16WelcomePageFrameE
libCore.so:_ZTVN4Core17SectionedGridViewE
libCore.so:_ZTVN4Core17WelcomePageButtonE
libCore.so:_ZTVN4Core18ExternalToolRunnerE
libCore.so:_ZTVN4Core18IOptionsPageWidgetE
libCore.so:_ZTVN4Core18SearchResultFilterE
libCore.so:_ZTVN4Core18SearchResultWindowE
libCore.so:_ZTVN4Core19ExternalToolManagerE
libCore.so:_ZTVN4Core19NonResizingSplitterE
libCore.so:_ZTVN4Core19ReadOnlyFilesDialogE
libCore.so:_ZTVN4Core20IFileWizardExtensionE
libCore.so:_ZTVN4Core20IOptionsPageProviderE
libCore.so:_ZTVN4Core20RightPanePlaceHolderE
libCore.so:_ZTVN4Core21BaseFileWizardFactoryE
libCore.so:_ZTVN4Core21OpenDocumentsTreeViewE
libCore.so:_ZTVN4Core21OutputPanePlaceHolderE
libCore.so:_ZTVN4Core21PromptOverwriteDialogE
libCore.so:_ZTVN4Core22FindToolBarPlaceHolderE
libCore.so:_ZTVN4Core22FolderNavigationWidgetE
libCore.so:_ZTVN4Core24EditorManagerPlaceHolderE
libCore.so:_ZTVN4Core24INavigationWidgetFactoryE
libCore.so:_ZTVN4Core27NavigationWidgetPlaceHolderE
libCore.so:_ZTVN4Core29FolderNavigationWidgetFactoryE
libCore.so:_ZTVN4Core4FindE
libCore.so:_ZTVN4Core5ICoreE
libCore.so:_ZTVN4Core5IModeE
libCore.so:_ZTVN4Core7CommandE
libCore.so:_ZTVN4Core7IEditorE
libCore.so:_ZTVN4Core7SideBarE
libCore.so:_ZTVN4Core8GridViewE
libCore.so:_ZTVN4Core8IContextE
libCore.so:_ZTVN4Core9IDocumentE
libCore.so:_ZTVN4Core9ListModelE
libCore.so:_ZThn16_N4Core12OutputWindowD0Ev
libCore.so:_ZThn16_N4Core12OutputWindowD1Ev
libCore.so:_ZThn16_N4Core13CodecSelectorD0Ev
libCore.so:_ZThn16_N4Core13CodecSelectorD1Ev
libCore.so:_ZThn16_N4Core13EditorToolBarD0Ev
libCore.so:_ZThn16_N4Core13EditorToolBarD1Ev
libCore.so:_ZThn16_N4Core14FutureProgressD0Ev
libCore.so:_ZThn16_N4Core14FutureProgressD1Ev
libCore.so:_ZThn16_N4Core15CommandMappingsD0Ev
libCore.so:_ZThn16_N4Core15CommandMappingsD1Ev
libCore.so:_ZThn16_N4Core15RightPaneWidgetD0Ev
libCore.so:_ZThn16_N4Core15RightPaneWidgetD1Ev
libCore.so:_ZThn16_N4Core16NavigationWidgetD0Ev
libCore.so:_ZThn16_N4Core16NavigationWidgetD1Ev
libCore.so:_ZThn16_N4Core17SectionedGridViewD0Ev
libCore.so:_ZThn16_N4Core17SectionedGridViewD1Ev
libCore.so:_ZThn16_N4Core17WelcomePageButtonD0Ev
libCore.so:_ZThn16_N4Core17WelcomePageButtonD1Ev
libCore.so:_ZThn16_N4Core19ReadOnlyFilesDialogD0Ev
libCore.so:_ZThn16_N4Core19ReadOnlyFilesDialogD1Ev
libCore.so:_ZThn16_N4Core20RightPanePlaceHolderD0Ev
libCore.so:_ZThn16_N4Core20RightPanePlaceHolderD1Ev
libCore.so:_ZThn16_N4Core21OutputPanePlaceHolderD0Ev
libCore.so:_ZThn16_N4Core21OutputPanePlaceHolderD1Ev
libCore.so:_ZThn16_N4Core22FindToolBarPlaceHolderD0Ev
libCore.so:_ZThn16_N4Core22FindToolBarPlaceHolderD1Ev
libCore.so:_ZThn16_N4Core24EditorManagerPlaceHolderD0Ev
libCore.so:_ZThn16_N4Core24EditorManagerPlaceHolderD1Ev
libCore.so:_ZThn16_N4Core27NavigationWidgetPlaceHolderD0Ev
libCore.so:_ZThn16_N4Core27NavigationWidgetPlaceHolderD1Ev
libCore.so:_ZThn16_N4Core7SideBarD0Ev
libCore.so:_ZThn16_N4Core7SideBarD1Ev
libCore.so:qt_plugin_instance
libCore.so:qt_plugin_query_metadata_v2
libCppEditor.so:_ZN9CppEditor10XclangArgsERK5QListI7QStringE
libCppEditor.so:_ZN9CppEditor10openEditorERKN5Utils8FilePathEbNS0_2IdE
libCppEditor.so:_ZN9CppEditor11ProjectFile10sourceKindENS0_4KindE
libCppEditor.so:_ZN9CppEditor11ProjectFile17isAmbiguousHeaderERK7QString
libCppEditor.so:_ZN9CppEditor11ProjectFile18classifyByMimeTypeERK7QString
libCppEditor.so:_ZN9CppEditor11ProjectFile19sourceForHeaderKindENS0_4KindE
libCppEditor.so:_ZN9CppEditor11ProjectFile3isCENS0_4KindE
libCppEditor.so:_ZN9CppEditor11ProjectFile5isCxxENS0_4KindE
libCppEditor.so:_ZN9CppEditor11ProjectFile6isObjCENS0_4KindE
libCppEditor.so:_ZN9CppEditor11ProjectFile6isObjCERK7QString
libCppEditor.so:_ZN9CppEditor11ProjectFile8classifyERK7QString
libCppEditor.so:_ZN9CppEditor11ProjectFile8isHeaderENS0_4KindE
libCppEditor.so:_ZN9CppEditor11ProjectFile8isHeaderERKN5Utils8FilePathE
libCppEditor.so:_ZN9CppEditor11ProjectFile8isSourceENS0_4KindE
libCppEditor.so:_ZN9CppEditor11ProjectFileC1ERKN5Utils8FilePathENS0_4KindEb
libCppEditor.so:_ZN9CppEditor11ProjectFileC2ERKN5Utils8FilePathENS0_4KindEb
libCppEditor.so:_ZN9CppEditor11ProjectInfo6createERKN15ProjectExplorer17ProjectUpdateInfoERK5QListI14QSharedPointerIKNS_11ProjectPartEEE
libCppEditor.so:_ZN9CppEditor11ProjectInfoC1ERKN15ProjectExplorer17ProjectUpdateInfoERK5QListI14QSharedPointerIKNS_11ProjectPartEEE
libCppEditor.so:_ZN9CppEditor11ProjectInfoC2ERKN15ProjectExplorer17ProjectUpdateInfoERK5QListI14QSharedPointerIKNS_11ProjectPartEEE
libCppEditor.so:_ZN9CppEditor11ProjectPart21readProjectConfigFileERK7QString
libCppEditor.so:_ZN9CppEditor11ProjectPartC1ERKN5Utils8FilePathERKN15ProjectExplorer14RawProjectPartERK7QStringRK5QListINS_11ProjectFileEENS1_8LanguageE6QFlagsINS1_17LanguageExtensionEERKNS5_19RawProjectPartFlagsERKNS5_13ToolChainInfoE
libCppEditor.so:_ZN9CppEditor11ProjectPartC2ERKN5Utils8FilePathERKN15ProjectExplorer14RawProjectPartERK7QStringRK5QListINS_11ProjectFileEENS1_8LanguageE6QFlagsINS1_17LanguageExtensionEERKNS5_19RawProjectPartFlagsERKNS5_13ToolChainInfoE
libCppEditor.so:_ZN9CppEditor11WorkingCopyC1Ev
libCppEditor.so:_ZN9CppEditor11WorkingCopyC2Ev
libCppEditor.so:_ZN9CppEditor11getPchUsageEv
libCppEditor.so:_ZN9CppEditor11isQtKeywordE11QStringView
libCppEditor.so:_ZN9CppEditor12CheckSymbols11qt_metacallEN11QMetaObject4CallEiPPv
libCppEditor.so:_ZN9CppEditor12CheckSymbols11qt_metacastEPKc
libCppEditor.so:_ZN9CppEditor12CheckSymbols13maybeAddFieldERK5QListIN9CPlusPlus10LookupItemEEPNS2_7NameASTE
libCppEditor.so:_ZN9CppEditor12CheckSymbols14checkNamespaceEPN9CPlusPlus7NameASTE
libCppEditor.so:_ZN9CppEditor12CheckSymbols15checkNestedNameEPN9CPlusPlus16QualifiedNameASTE
libCppEditor.so:_ZN9CppEditor12CheckSymbols16maybeAddFunctionERK5QListIN9CPlusPlus10LookupItemEEPNS2_7NameASTEiNS0_12FunctionKindE
libCppEditor.so:_ZN9CppEditor12CheckSymbols16staticMetaObjectE
libCppEditor.so:_ZN9CppEditor12CheckSymbols19codeWarningsUpdatedE14QSharedPointerIN9CPlusPlus8DocumentEERK5QListINS3_17DiagnosticMessageEE
libCppEditor.so:_ZN9CppEditor12CheckSymbols20maybeAddTypeOrStaticERK5QListIN9CPlusPlus10LookupItemEEPNS2_7NameASTE
libCppEditor.so:_ZN9CppEditor12CheckSymbols24isConstructorDeclarationEPN9CPlusPlus6SymbolE
libCppEditor.so:_ZN9CppEditor12CheckSymbols2goE14QSharedPointerIN9CPlusPlus8DocumentEERKNS2_13LookupContextERK5QListIN10TextEditor18HighlightingResultEE
libCppEditor.so:_ZN9CppEditor12CheckSymbols3runEv
libCppEditor.so:_ZN9CppEditor12CheckSymbols5flushEv
libCppEditor.so:_ZN9CppEditor12CheckSymbols5visitEPN9CPlusPlus12NamespaceASTE
libCppEditor.so:_ZN9CppEditor12CheckSymbols5visitEPN9CPlusPlus13EnumeratorASTE
libCppEditor.so:_ZN9CppEditor12CheckSymbols5visitEPN9CPlusPlus13SimpleNameASTE
libCppEditor.so:_ZN9CppEditor12CheckSymbols5visitEPN9CPlusPlus13TemplateIdASTE
libCppEditor.so:_ZN9CppEditor12CheckSymbols5visitEPN9CPlusPlus15MemberAccessASTE
libCppEditor.so:_ZN9CppEditor12CheckSymbols5visitEPN9CPlusPlus16DotDesignatorASTE
libCppEditor.so:_ZN9CppEditor12CheckSymbols5visitEPN9CPlusPlus16GotoStatementASTE
libCppEditor.so:_ZN9CppEditor12CheckSymbols5visitEPN9CPlusPlus16NewExpressionASTE
libCppEditor.so:_ZN9CppEditor12CheckSymbols5visitEPN9CPlusPlus16QualifiedNameASTE
libCppEditor.so:_ZN9CppEditor12CheckSymbols5visitEPN9CPlusPlus17ClassSpecifierASTE
libCppEditor.so:_ZN9CppEditor12CheckSymbols5visitEPN9CPlusPlus17DestructorNameASTE
libCppEditor.so:_ZN9CppEditor12CheckSymbols5visitEPN9CPlusPlus17MemInitializerASTE
libCppEditor.so:_ZN9CppEditor12CheckSymbols5visitEPN9CPlusPlus17UsingDirectiveASTE
libCppEditor.so:_ZN9CppEditor12CheckSymbols5visitEPN9CPlusPlus18SimpleSpecifierASTE
libCppEditor.so:_ZN9CppEditor12CheckSymbols5visitEPN9CPlusPlus19LabeledStatementASTE
libCppEditor.so:_ZN9CppEditor12CheckSymbols5visitEPN9CPlusPlus19ObjCProtocolRefsASTE
libCppEditor.so:_ZN9CppEditor12CheckSymbols5visitEPN9CPlusPlus20SimpleDeclarationASTE
libCppEditor.so:_ZN9CppEditor12CheckSymbols5visitEPN9CPlusPlus21FunctionDefinitionASTE
libCppEditor.so:_ZN9CppEditor12CheckSymbols5visitEPN9CPlusPlus23ObjCClassDeclarationASTE
libCppEditor.so:_ZN9CppEditor12CheckSymbols5visitEPN9CPlusPlus23ObjCSelectorArgumentASTE
libCppEditor.so:_ZN9CppEditor12CheckSymbols5visitEPN9CPlusPlus23ParameterDeclarationASTE
libCppEditor.so:_ZN9CppEditor12CheckSymbols5visitEPN9CPlusPlus24TemplateTypeParameterASTE
libCppEditor.so:_ZN9CppEditor12CheckSymbols5visitEPN9CPlusPlus24TypenameTypeParameterASTE
libCppEditor.so:_ZN9CppEditor12CheckSymbols5visitEPN9CPlusPlus26ElaboratedTypeSpecifierASTE
libCppEditor.so:_ZN9CppEditor12CheckSymbols5visitEPN9CPlusPlus26ObjCProtocolDeclarationASTE
libCppEditor.so:_ZN9CppEditor12CheckSymbols5visitEPN9CPlusPlus30ObjCClassForwardDeclarationASTE
libCppEditor.so:_ZN9CppEditor12CheckSymbols5visitEPN9CPlusPlus33ObjCProtocolForwardDeclarationASTE
libCppEditor.so:_ZN9CppEditor12CheckSymbols5visitEPN9CPlusPlus7CallASTE
libCppEditor.so:_ZN9CppEditor12CheckSymbols6addUseEPN9CPlusPlus7NameASTENS_19SemanticHighlighter4KindE
libCppEditor.so:_ZN9CppEditor12CheckSymbols6addUseERKN10TextEditor18HighlightingResultE
libCppEditor.so:_ZN9CppEditor12CheckSymbols6addUseEjNS_19SemanticHighlighter4KindE
libCppEditor.so:_ZN9CppEditor12CheckSymbols6createE14QSharedPointerIN9CPlusPlus8DocumentEERKNS2_13LookupContextERK5QListIN10TextEditor18HighlightingResultEE
libCppEditor.so:_ZN9CppEditor12CheckSymbols7addTypeEPN9CPlusPlus16ClassOrNamespaceEPNS1_7NameASTE
libCppEditor.so:_ZN9CppEditor12CheckSymbols7warningEPN9CPlusPlus3ASTERK7QString
libCppEditor.so:_ZN9CppEditor12CheckSymbols7warningEjjRK7QStringj
libCppEditor.so:_ZN9CppEditor12CheckSymbols8preVisitEPN9CPlusPlus3ASTE
libCppEditor.so:_ZN9CppEditor12CheckSymbols9checkNameEPN9CPlusPlus7NameASTEPNS1_5ScopeE
libCppEditor.so:_ZN9CppEditor12CheckSymbols9postVisitEPN9CPlusPlus3ASTE
libCppEditor.so:_ZN9CppEditor12CheckSymbolsC1E14QSharedPointerIN9CPlusPlus8DocumentEERKNS2_13LookupContextERK5QListIN10TextEditor18HighlightingResultEE
libCppEditor.so:_ZN9CppEditor12CheckSymbolsC2E14QSharedPointerIN9CPlusPlus8DocumentEERKNS2_13LookupContextERK5QListIN10TextEditor18HighlightingResultEE
libCppEditor.so:_ZN9CppEditor12CheckSymbolsD0Ev
libCppEditor.so:_ZN9CppEditor12CheckSymbolsD1Ev
libCppEditor.so:_ZN9CppEditor12CheckSymbolsD2Ev
libCppEditor.so:_ZN9CppEditor12SymbolFinder10clearCacheERKN5Utils8FilePathES4_
libCppEditor.so:_ZN9CppEditor12SymbolFinder10clearCacheEv
libCppEditor.so:_ZN9CppEditor12SymbolFinder11insertCacheERKN5Utils8FilePathES4_
libCppEditor.so:_ZN9CppEditor12SymbolFinder13trackCacheUseERKN5Utils8FilePathE
libCppEditor.so:_ZN9CppEditor12SymbolFinder18fileIterationOrderERKN5Utils8FilePathERKN9CPlusPlus8SnapshotE
libCppEditor.so:_ZN9CppEditor12SymbolFinder21checkCacheConsistencyERKN5Utils8FilePathERKN9CPlusPlus8SnapshotE
libCppEditor.so:_ZN9CppEditor12SymbolFinder22findMatchingDefinitionEPN9CPlusPlus6SymbolERKNS1_8SnapshotEb
libCppEditor.so:_ZN9CppEditor12SymbolFinder23findMatchingDeclarationERKN9CPlusPlus13LookupContextEPNS1_8FunctionE
libCppEditor.so:_ZN9CppEditor12SymbolFinder23findMatchingDeclarationERKN9CPlusPlus13LookupContextEPNS1_8FunctionEP5QListIPNS1_11DeclarationEESB_SB_
libCppEditor.so:_ZN9CppEditor12SymbolFinder25findMatchingVarDefinitionEPN9CPlusPlus6SymbolERKNS1_8SnapshotE
libCppEditor.so:_ZN9CppEditor12SymbolFinder28findMatchingClassDeclarationEPN9CPlusPlus6SymbolERKNS1_8SnapshotE
libCppEditor.so:_ZN9CppEditor12SymbolFinderC1Ev
libCppEditor.so:_ZN9CppEditor12SymbolFinderC2Ev
libCppEditor.so:_ZN9CppEditor13CodeFormatter10setTabSizeEi
libCppEditor.so:_ZN9CppEditor13CodeFormatter12initialStateEv
libCppEditor.so:_ZN9CppEditor13CodeFormatter12tryStatementEv
libCppEditor.so:_ZN9CppEditor13CodeFormatter13tokenizeBlockERK10QTextBlockPb
libCppEditor.so:_ZN9CppEditor13CodeFormatter13tryExpressionEb
libCppEditor.so:_ZN9CppEditor13CodeFormatter14tryDeclarationEv
libCppEditor.so:_ZN9CppEditor13CodeFormatter15invalidateCacheEP13QTextDocument
libCppEditor.so:_ZN9CppEditor13CodeFormatter16saveCurrentStateERK10QTextBlock
libCppEditor.so:_ZN9CppEditor13CodeFormatter16staticMetaObjectE
libCppEditor.so:_ZN9CppEditor13CodeFormatter16updateStateUntilERK10QTextBlock
libCppEditor.so:_ZN9CppEditor13CodeFormatter18correctIndentationERK10QTextBlock
libCppEditor.so:_ZN9CppEditor13CodeFormatter19restoreCurrentStateERK10QTextBlock
libCppEditor.so:_ZN9CppEditor13CodeFormatter21indentForNewLineAfterERK10QTextBlockPiS4_
libCppEditor.so:_ZN9CppEditor13CodeFormatter21recalculateStateAfterERK10QTextBlock
libCppEditor.so:_ZN9CppEditor13CodeFormatter21updateLineStateChangeERK10QTextBlock
libCppEditor.so:_ZN9CppEditor13CodeFormatter5enterEi
libCppEditor.so:_ZN9CppEditor13CodeFormatter5leaveEb
libCppEditor.so:_ZN9CppEditor13CodeFormatter8turnIntoEi
libCppEditor.so:_ZN9CppEditor13CodeFormatter9indentForERK10QTextBlockPiS4_
libCppEditor.so:_ZN9CppEditor13CodeFormatterD0Ev
libCppEditor.so:_ZN9CppEditor13CodeFormatterD1Ev
libCppEditor.so:_ZN9CppEditor13CodeFormatterD2Ev
libCppEditor.so:_ZN9CppEditor14ClangdSettings11qt_metacallEN11QMetaObject4CallEiPPv
libCppEditor.so:_ZN9CppEditor14ClangdSettings11qt_metacastEPKc
libCppEditor.so:_ZN9CppEditor14ClangdSettings12loadSettingsEv
libCppEditor.so:_ZN9CppEditor14ClangdSettings12saveSettingsEv
libCppEditor.so:_ZN9CppEditor14ClangdSettings12setUseClangdEb
libCppEditor.so:_ZN9CppEditor14ClangdSettings16priorityToStringERKNS0_16IndexingPriorityE
libCppEditor.so:_ZN9CppEditor14ClangdSettings16staticMetaObjectE
libCppEditor.so:_ZN9CppEditor14ClangdSettings19setUseClangdAndSaveEb
libCppEditor.so:_ZN9CppEditor14ClangdSettings20setDefaultClangdPathERKN5Utils8FilePathE
libCppEditor.so:_ZN9CppEditor14ClangdSettings23priorityToDisplayStringERKNS0_16IndexingPriorityE
libCppEditor.so:_ZN9CppEditor14ClangdSettings24clangdUserConfigFilePathEv
libCppEditor.so:_ZN9CppEditor14ClangdSettings26setCustomDiagnosticConfigsERK5QListINS_21ClangDiagnosticConfigEE
libCppEditor.so:_ZN9CppEditor14ClangdSettings28hardwareFulfillsRequirementsEv
libCppEditor.so:_ZN9CppEditor14ClangdSettings31haveCheckedHardwareRequirementsEv
libCppEditor.so:_ZN9CppEditor14ClangdSettings4Data24defaultCompletionResultsEv
libCppEditor.so:_ZN9CppEditor14ClangdSettings4Data7fromMapERK4QMapI7QString8QVariantE
libCppEditor.so:_ZN9CppEditor14ClangdSettings7changedEv
libCppEditor.so:_ZN9CppEditor14ClangdSettings7setDataERKNS0_4DataE
libCppEditor.so:_ZN9CppEditor14ClangdSettings8instanceEv
libCppEditor.so:_ZN9CppEditor14ClangdSettingsC1Ev
libCppEditor.so:_ZN9CppEditor14ClangdSettingsC2Ev
libCppEditor.so:_ZN9CppEditor14CppHighlighter11qt_metacallEN11QMetaObject4CallEiPPv
libCppEditor.so:_ZN9CppEditor14CppHighlighter11qt_metacastEPKc
libCppEditor.so:_ZN9CppEditor14CppHighlighter13highlightWordE11QStringViewii
libCppEditor.so:_ZN9CppEditor14CppHighlighter14highlightBlockERK7QString
libCppEditor.so:_ZN9CppEditor14CppHighlighter16staticMetaObjectE
libCppEditor.so:_ZN9CppEditor14CppHighlighter19setLanguageFeaturesERKN9CPlusPlus16LanguageFeaturesE
libCppEditor.so:_ZN9CppEditor14CppHighlighter23highlightDoxygenCommentERK7QStringii
libCppEditor.so:_ZN9CppEditor14CppHighlighter25highlightRawStringLiteralE11QStringViewRKN9CPlusPlus5TokenERK7QString
libCppEditor.so:_ZN9CppEditor14CppHighlighterC1EP13QTextDocument
libCppEditor.so:_ZN9CppEditor14CppHighlighterC2EP13QTextDocument
libCppEditor.so:_ZN9CppEditor14CppLocatorData11qt_metacallEN11QMetaObject4CallEiPPv
libCppEditor.so:_ZN9CppEditor14CppLocatorData11qt_metacastEPKc
libCppEditor.so:_ZN9CppEditor14CppLocatorData16staticMetaObjectE
libCppEditor.so:_ZN9CppEditor14CppLocatorData17onDocumentUpdatedERK14QSharedPointerIN9CPlusPlus8DocumentEE
libCppEditor.so:_ZN9CppEditor14CppLocatorData20onAboutToRemoveFilesERK5QListI7QStringE
libCppEditor.so:_ZN9CppEditor14CppLocatorDataC1Ev
libCppEditor.so:_ZN9CppEditor14CppLocatorDataC2Ev
libCppEditor.so:_ZN9CppEditor14SymbolSearcher11qt_metacallEN11QMetaObject4CallEiPPv
libCppEditor.so:_ZN9CppEditor14SymbolSearcher11qt_metacastEPKc
libCppEditor.so:_ZN9CppEditor14SymbolSearcher16staticMetaObjectE
libCppEditor.so:_ZN9CppEditor14SymbolSearcher9runSearchER16QFutureInterfaceIN4Core16SearchResultItemEE
libCppEditor.so:_ZN9CppEditor14SymbolSearcherC1ERKNS0_10ParametersERK4QSetI7QStringE
libCppEditor.so:_ZN9CppEditor14SymbolSearcherC2ERKNS0_10ParametersERK4QSetI7QStringE
libCppEditor.so:_ZN9CppEditor14clangArgsForClERK5QListI7QStringE
libCppEditor.so:_ZN9CppEditor15CppEditorWidget10findLinkAtERK11QTextCursorRKSt8functionIFvRKN5Utils4LinkEEEbb
libCppEditor.so:_ZN9CppEditor15CppEditorWidget10findUsagesE11QTextCursor
libCppEditor.so:_ZN9CppEditor15CppEditorWidget10findUsagesEv
libCppEditor.so:_ZN9CppEditor15CppEditorWidget11qt_metacallEN11QMetaObject4CallEiPPv
libCppEditor.so:_ZN9CppEditor15CppEditorWidget11qt_metacastEPKc
libCppEditor.so:_ZN9CppEditor15CppEditorWidget12renameUsagesERK7QString11QTextCursor
libCppEditor.so:_ZN9CppEditor15CppEditorWidget12renameUsagesERKN5Utils8FilePathERK7QString11QTextCursorRKSt8functionIFvvEE
libCppEditor.so:_ZN9CppEditor15CppEditorWidget12setProposalsEPKN10TextEditor15IAssistProposalES4_
libCppEditor.so:_ZN9CppEditor15CppEditorWidget13keyPressEventEP9QKeyEvent
libCppEditor.so:_ZN9CppEditor15CppEditorWidget13selectBlockUpEv
libCppEditor.so:_ZN9CppEditor15CppEditorWidget14encourageApplyEv
libCppEditor.so:_ZN9CppEditor15CppEditorWidget15selectBlockDownEv
libCppEditor.so:_ZN9CppEditor15CppEditorWidget16abortDeclDefLinkEv
libCppEditor.so:_ZN9CppEditor15CppEditorWidget16contextMenuEventEP17QContextMenuEvent
libCppEditor.so:_ZN9CppEditor15CppEditorWidget16staticMetaObjectE
libCppEditor.so:_ZN9CppEditor15CppEditorWidget18followSymbolToTypeEb
libCppEditor.so:_ZN9CppEditor15CppEditorWidget18processKeyNormallyEP9QKeyEvent
libCppEditor.so:_ZN9CppEditor15CppEditorWidget18updateSemanticInfoERKNS_12SemanticInfoEb
libCppEditor.so:_ZN9CppEditor15CppEditorWidget18updateSemanticInfoEv
libCppEditor.so:_ZN9CppEditor15CppEditorWidget19isWidgetHighlightedEP7QWidget
libCppEditor.so:_ZN9CppEditor15CppEditorWidget20handleOutlineChangedEPK7QWidget
libCppEditor.so:_ZN9CppEditor15CppEditorWidget21onCodeWarningsUpdatedEj5QListIN9QTextEdit14ExtraSelectionEERKS1_IN10TextEditor14RefactorMarkerEE
libCppEditor.so:_ZN9CppEditor15CppEditorWidget22finalizeInitializationEv
libCppEditor.so:_ZN9CppEditor15CppEditorWidget22showPreProcessorWidgetEv
libCppEditor.so:_ZN9CppEditor15CppEditorWidget23applyDeclDefLinkChangesEb
libCppEditor.so:_ZN9CppEditor15CppEditorWidget23renameSymbolUnderCursorEv
libCppEditor.so:_ZN9CppEditor15CppEditorWidget24updateWidgetHighlightingEP7QWidgetb
libCppEditor.so:_ZN9CppEditor15CppEditorWidget25onIfdefedOutBlocksUpdatedEj5QListIN10TextEditor10BlockRangeEE
libCppEditor.so:_ZN9CppEditor15CppEditorWidget25unselectLeadingWhitespaceERK5QListIN9QTextEdit14ExtraSelectionEE
libCppEditor.so:_ZN9CppEditor15CppEditorWidget25updateFunctionDeclDefLinkEv
libCppEditor.so:_ZN9CppEditor15CppEditorWidget26onFunctionDeclDefLinkFoundE14QSharedPointerINS_8Internal19FunctionDeclDefLinkEE
libCppEditor.so:_ZN9CppEditor15CppEditorWidget27switchDeclarationDefinitionEb
libCppEditor.so:_ZN9CppEditor15CppEditorWidget28invokeTextEditorWidgetAssistEN10TextEditor10AssistKindEPNS1_15IAssistProviderE
libCppEditor.so:_ZN9CppEditor15CppEditorWidget28slotCodeStyleSettingsChangedERK8QVariant
libCppEditor.so:_ZN9CppEditor15CppEditorWidget28updateFunctionDeclDefLinkNowEv
libCppEditor.so:_ZN9CppEditor15CppEditorWidget31updatePreprocessorButtonTooltipEv
libCppEditor.so:_ZN9CppEditor15CppEditorWidget34showRenameWarningIfFileIsGeneratedERKN5Utils8FilePathE
libCppEditor.so:_ZN9CppEditor15CppEditorWidget38finalizeInitializationAfterDuplicationEPN10TextEditor16TextEditorWidgetE
libCppEditor.so:_ZN9CppEditor15CppEditorWidget3cutEv
libCppEditor.so:_ZN9CppEditor15CppEditorWidget5eventEP6QEvent
libCppEditor.so:_ZN9CppEditor15CppEditorWidget5pasteEv
libCppEditor.so:_ZN9CppEditor15CppEditorWidget9followUrlERK11QTextCursorRKSt8functionIFvRKN5Utils4LinkEEE
libCppEditor.so:_ZN9CppEditor15CppEditorWidget9selectAllEv
libCppEditor.so:_ZN9CppEditor15CppEditorWidgetC1Ev
libCppEditor.so:_ZN9CppEditor15CppEditorWidgetC2Ev
libCppEditor.so:_ZN9CppEditor15CppEditorWidgetD0Ev
libCppEditor.so:_ZN9CppEditor15CppEditorWidgetD1Ev
libCppEditor.so:_ZN9CppEditor15CppEditorWidgetD2Ev
libCppEditor.so:_ZN9CppEditor15CppModelManager10findUsagesEPN9CPlusPlus6SymbolERKNS1_13LookupContextE
libCppEditor.so:_ZN9CppEditor15CppModelManager10findUsagesERKNS_14CursorInEditorENS0_7BackendE
libCppEditor.so:_ZN9CppEditor15CppModelManager10gcFinishedEv
libCppEditor.so:_ZN9CppEditor15CppModelManager10referencesEPN9CPlusPlus6SymbolERKNS1_13LookupContextE
libCppEditor.so:_ZN9CppEditor15CppModelManager10usesClangdEPKN10TextEditor12TextDocumentE
libCppEditor.so:_ZN9CppEditor15CppModelManager11headerPathsEv
libCppEditor.so:_ZN9CppEditor15CppModelManager11isCppEditorEPN4Core7IEditorE
libCppEditor.so:_ZN9CppEditor15CppModelManager11qt_metacallEN11QMetaObject4CallEiPPv
libCppEditor.so:_ZN9CppEditor15CppModelManager11qt_metacastEPKc
libCppEditor.so:_ZN9CppEditor15CppModelManager12followSymbolERKNS_14CursorInEditorERKSt8functionIFvRKN5Utils4LinkEEEbbNS0_7BackendE
libCppEditor.so:_ZN9CppEditor15CppModelManager12globalRenameERKNS_14CursorInEditorERK7QStringRKSt8functionIFvvEENS0_7BackendE
libCppEditor.so:_ZN9CppEditor15CppModelManager12initCppToolsEv
libCppEditor.so:_ZN9CppEditor15CppModelManager12projectFilesEv
libCppEditor.so:_ZN9CppEditor15CppModelManager12renameUsagesEPN9CPlusPlus6SymbolERKNS1_13LookupContextERK7QStringRKSt8functionIFvvEE
libCppEditor.so:_ZN9CppEditor15CppModelManager12renameUsagesERK14QSharedPointerIN9CPlusPlus8DocumentEERK11QTextCursorRKNS2_8SnapshotERK7QStringRKSt8functionIFvvEE
libCppEditor.so:_ZN9CppEditor15CppModelManager12symbolFinderEv
libCppEditor.so:_ZN9CppEditor15CppModelManager13definedMacrosEv
libCppEditor.so:_ZN9CppEditor15CppModelManager13ensureUpdatedEv
libCppEditor.so:_ZN9CppEditor15CppModelManager13switchDeclDefERKNS_14CursorInEditorERKSt8functionIFvRKN5Utils4LinkEEENS0_7BackendE
libCppEditor.so:_ZN9CppEditor15CppModelManager14onProjectAddedEPN15ProjectExplorer7ProjectE
libCppEditor.so:_ZN9CppEditor15CppModelManager14renameIncludesERKN5Utils8FilePathES4_
libCppEditor.so:_ZN9CppEditor15CppModelManager14setHeaderPathsERK5QListIN15ProjectExplorer10HeaderPathEE
libCppEditor.so:_ZN9CppEditor15CppModelManager15documentUpdatedE14QSharedPointerIN9CPlusPlus8DocumentEE
libCppEditor.so:_ZN9CppEditor15CppModelManager15findMacroUsagesERKN9CPlusPlus5MacroE
libCppEditor.so:_ZN9CppEditor15CppModelManager15indexingSupportEv
libCppEditor.so:_ZN9CppEditor15CppModelManager15replaceDocumentE14QSharedPointerIN9CPlusPlus8DocumentEE
libCppEditor.so:_ZN9CppEditor15CppModelManager15replaceSnapshotERKN9CPlusPlus8SnapshotE
libCppEditor.so:_ZN9CppEditor15CppModelManager16setClassesFilterEOSt10unique_ptrIN4Core14ILocatorFilterESt14default_deleteIS3_EE
libCppEditor.so:_ZN9CppEditor15CppModelManager16setLocatorFilterEOSt10unique_ptrIN4Core14ILocatorFilterESt14default_deleteIS3_EE
libCppEditor.so:_ZN9CppEditor15CppModelManager16sharedThreadPoolEv
libCppEditor.so:_ZN9CppEditor15CppModelManager16staticMetaObjectE
libCppEditor.so:_ZN9CppEditor15CppModelManager17renameMacroUsagesERKN9CPlusPlus5MacroERK7QString
libCppEditor.so:_ZN9CppEditor15CppModelManager17setIncludesFilterEOSt10unique_ptrIN4Core14ILocatorFilterESt14default_deleteIS3_EE
libCppEditor.so:_ZN9CppEditor15CppModelManager17updateProjectInfoERKSt10shared_ptrIKNS_11ProjectInfoEERK4QSetIN5Utils8FilePathEE
libCppEditor.so:_ZN9CppEditor15CppModelManager17updateSourceFilesERK4QSetIN5Utils8FilePathEENS0_24ProgressNotificationModeE
libCppEditor.so:_ZN9CppEditor15CppModelManager18aboutToRemoveFilesERK5QListI7QStringE
libCppEditor.so:_ZN9CppEditor15CppModelManager18diagnosticMessagesEv
libCppEditor.so:_ZN9CppEditor15CppModelManager18diagnosticsChangedERK7QStringS3_
libCppEditor.so:_ZN9CppEditor15CppModelManager18followSymbolToTypeERKNS_14CursorInEditorERKSt8functionIFvRKN5Utils4LinkEEEbNS0_7BackendE
libCppEditor.so:_ZN9CppEditor15CppModelManager18onCoreAboutToCloseEv
libCppEditor.so:_ZN9CppEditor15CppModelManager18setFunctionsFilterEOSt10unique_ptrIN4Core14ILocatorFilterESt14default_deleteIS3_EE
libCppEditor.so:_ZN9CppEditor15CppModelManager18startLocalRenamingERKNS_14CursorInEditorEPKNS_11ProjectPartEOSt8functionIFvRK7QStringRK5QListIN5Utils4LinkEEiEENS0_7BackendE
libCppEditor.so:_ZN9CppEditor15CppModelManager18switchHeaderSourceEbNS0_7BackendE
libCppEditor.so:_ZN9CppEditor15CppModelManager19builtinFollowSymbolEv
libCppEditor.so:_ZN9CppEditor15CppModelManager19emitDocumentUpdatedE14QSharedPointerIN9CPlusPlus8DocumentEE
libCppEditor.so:_ZN9CppEditor15CppModelManager19fallbackProjectPartEv
libCppEditor.so:_ZN9CppEditor15CppModelManager19findUnusedFunctionsERKN5Utils8FilePathE
libCppEditor.so:_ZN9CppEditor15CppModelManager19projectPartsRemovedERK5QListI7QStringE
libCppEditor.so:_ZN9CppEditor15CppModelManager19projectPartsUpdatedEPN15ProjectExplorer7ProjectE
libCppEditor.so:_ZN9CppEditor15CppModelManager19registerJsExtensionEv
libCppEditor.so:_ZN9CppEditor15CppModelManager19setExtraDiagnosticsERK7QStringS3_RK5QListIN9CPlusPlus8Document17DiagnosticMessageEE
libCppEditor.so:_ZN9CppEditor15CppModelManager20buildWorkingCopyListEv
libCppEditor.so:_ZN9CppEditor15CppModelManager20checkForUnusedSymbolEPN4Core12SearchResultERKN5Utils4LinkEPN9CPlusPlus6SymbolERKNS8_13LookupContextERKSt8functionIFvS7_EE
libCppEditor.so:_ZN9CppEditor15CppModelManager20onAboutToLoadSessionEv
libCppEditor.so:_ZN9CppEditor15CppModelManager20setSymbolsFindFilterEOSt10unique_ptrIN4Core11IFindFilterESt14default_deleteIS3_EE
libCppEditor.so:_ZN9CppEditor15CppModelManager20showPreprocessedFileEb
libCppEditor.so:_ZN9CppEditor15CppModelManager20sourceFilesRefreshedERK4QSetI7QStringE
libCppEditor.so:_ZN9CppEditor15CppModelManager21addExtraEditorSupportEPNS_21AbstractEditorSupportE
libCppEditor.so:_ZN9CppEditor15CppModelManager21configurationFileNameEv
libCppEditor.so:_ZN9CppEditor15CppModelManager21createSourceProcessorEv
libCppEditor.so:_ZN9CppEditor15CppModelManager21globalSnapshotChangedEv
libCppEditor.so:_ZN9CppEditor15CppModelManager22activateClangCodeModelEOSt10unique_ptrINS_19ModelManagerSupportESt14default_deleteIS2_EE
libCppEditor.so:_ZN9CppEditor15CppModelManager22enableGarbageCollectorEb
libCppEditor.so:_ZN9CppEditor15CppModelManager22onAboutToRemoveProjectEPN15ProjectExplorer7ProjectE
libCppEditor.so:_ZN9CppEditor15CppModelManager22onActiveProjectChangedEPN15ProjectExplorer7ProjectE
libCppEditor.so:_ZN9CppEditor15CppModelManager22onCurrentEditorChangedEPN4Core7IEditorE
libCppEditor.so:_ZN9CppEditor15CppModelManager22timeStampModifiedFilesERK5QListI14QSharedPointerIN9CPlusPlus8DocumentEEE
libCppEditor.so:_ZN9CppEditor15CppModelManager23removeFilesFromSnapshotERK4QSetIN5Utils8FilePathEE
libCppEditor.so:_ZN9CppEditor15CppModelManager24removeExtraEditorSupportEPNS_21AbstractEditorSupportE
libCppEditor.so:_ZN9CppEditor15CppModelManager24setCurrentDocumentFilterEOSt10unique_ptrIN4Core14ILocatorFilterESt14default_deleteIS3_EE
libCppEditor.so:_ZN9CppEditor15CppModelManager24setupFallbackProjectPartEv
libCppEditor.so:_ZN9CppEditor15CppModelManager25registerCppEditorDocumentEPNS_23CppEditorDocumentHandleE
libCppEditor.so:_ZN9CppEditor15CppModelManager25updateModifiedSourceFilesEv
libCppEditor.so:_ZN9CppEditor15CppModelManager26cppEditorDocumentProcessorERKN5Utils8FilePathE
libCppEditor.so:_ZN9CppEditor15CppModelManager26fallbackProjectPartUpdatedEv
libCppEditor.so:_ZN9CppEditor15CppModelManager27editorConfigurationFileNameEv
libCppEditor.so:_ZN9CppEditor15CppModelManager27unregisterCppEditorDocumentERK7QString
libCppEditor.so:_ZN9CppEditor15CppModelManager28abstractEditorSupportRemovedERK7QString
libCppEditor.so:_ZN9CppEditor15CppModelManager29dumpModelManagerConfigurationERK7QString
libCppEditor.so:_ZN9CppEditor15CppModelManager29finishedRefreshingSourceFilesERK4QSetI7QStringE
libCppEditor.so:_ZN9CppEditor15CppModelManager2GCEv
libCppEditor.so:_ZN9CppEditor15CppModelManager30recalculateProjectPartMappingsEv
libCppEditor.so:_ZN9CppEditor15CppModelManager32emitAbstractEditorSupportRemovedERK7QString
libCppEditor.so:_ZN9CppEditor15CppModelManager36abstractEditorSupportContentsUpdatedERK7QStringS3_RK10QByteArray
libCppEditor.so:_ZN9CppEditor15CppModelManager36createAuxiliaryCurrentDocumentFilterEv
libCppEditor.so:_ZN9CppEditor15CppModelManager40emitAbstractEditorSupportContentsUpdatedERK7QStringS3_RK10QByteArray
libCppEditor.so:_ZN9CppEditor15CppModelManager45removeProjectInfoFilesAndIncludesFromSnapshotERKNS_11ProjectInfoE
libCppEditor.so:_ZN9CppEditor15CppModelManager8instanceEv
libCppEditor.so:_ZN9CppEditor15CppModelManager9delayedGCEv
libCppEditor.so:_ZN9CppEditor15CppModelManagerC1Ev
libCppEditor.so:_ZN9CppEditor15CppModelManagerC2Ev
libCppEditor.so:_ZN9CppEditor15CppModelManagerD0Ev
libCppEditor.so:_ZN9CppEditor15CppModelManagerD1Ev
libCppEditor.so:_ZN9CppEditor15CppModelManagerD2Ev
libCppEditor.so:_ZN9CppEditor15doxygenTagSpellEi
libCppEditor.so:_ZN9CppEditor16CppClassesFilter11qt_metacallEN11QMetaObject4CallEiPPv
libCppEditor.so:_ZN9CppEditor16CppClassesFilter11qt_metacastEPKc
libCppEditor.so:_ZN9CppEditor16CppClassesFilter16staticMetaObjectE
libCppEditor.so:_ZN9CppEditor16CppClassesFilter24filterEntryFromIndexItemE14QSharedPointerINS_9IndexItemEE
libCppEditor.so:_ZN9CppEditor16CppClassesFilterC1EPNS_14CppLocatorDataE
libCppEditor.so:_ZN9CppEditor16CppClassesFilterC2EPNS_14CppLocatorDataE
libCppEditor.so:_ZN9CppEditor16CppClassesFilterD0Ev
libCppEditor.so:_ZN9CppEditor16CppClassesFilterD1Ev
libCppEditor.so:_ZN9CppEditor16CppClassesFilterD2Ev
libCppEditor.so:_ZN9CppEditor16CppLocatorFilter10matchesForER16QFutureInterfaceIN4Core18LocatorFilterEntryEERK7QString
libCppEditor.so:_ZN9CppEditor16CppLocatorFilter11qt_metacallEN11QMetaObject4CallEiPPv
libCppEditor.so:_ZN9CppEditor16CppLocatorFilter11qt_metacastEPKc
libCppEditor.so:_ZN9CppEditor16CppLocatorFilter16staticMetaObjectE
libCppEditor.so:_ZN9CppEditor16CppLocatorFilter24filterEntryFromIndexItemE14QSharedPointerINS_9IndexItemEE
libCppEditor.so:_ZN9CppEditor16CppLocatorFilterC1EPNS_14CppLocatorDataE
libCppEditor.so:_ZN9CppEditor16CppLocatorFilterC2EPNS_14CppLocatorDataE
libCppEditor.so:_ZN9CppEditor16CppLocatorFilterD0Ev
libCppEditor.so:_ZN9CppEditor16CppLocatorFilterD1Ev
libCppEditor.so:_ZN9CppEditor16CppLocatorFilterD2Ev
libCppEditor.so:_ZN9CppEditor16CppToolsSettings10m_instanceE
libCppEditor.so:_ZN9CppEditor16CppToolsSettings11qt_metacallEN11QMetaObject4CallEiPPv
libCppEditor.so:_ZN9CppEditor16CppToolsSettings11qt_metacastEPKc
libCppEditor.so:_ZN9CppEditor16CppToolsSettings16staticMetaObjectE
libCppEditor.so:_ZN9CppEditor16CppToolsSettings19setCommentsSettingsERKN10TextEditor16CommentsSettingsE
libCppEditor.so:_ZN9CppEditor16CppToolsSettings30setSortedEditorDocumentOutlineEb
libCppEditor.so:_ZN9CppEditor16CppToolsSettings35editorDocumentOutlineSortingChangedEb
libCppEditor.so:_ZN9CppEditor16CppToolsSettings8instanceEv
libCppEditor.so:_ZN9CppEditor16CppToolsSettingsC1Ev
libCppEditor.so:_ZN9CppEditor16CppToolsSettingsC2Ev
libCppEditor.so:_ZN9CppEditor16CppToolsSettingsD0Ev
libCppEditor.so:_ZN9CppEditor16CppToolsSettingsD1Ev
libCppEditor.so:_ZN9CppEditor16CppToolsSettingsD2Ev
libCppEditor.so:_ZN9CppEditor16NSCheckerVisitor16currentNamespaceEv
libCppEditor.so:_ZN9CppEditor16NSCheckerVisitor5visitEPN9CPlusPlus12NamespaceASTE
libCppEditor.so:_ZN9CppEditor16NSCheckerVisitor5visitEPN9CPlusPlus17UsingDirectiveASTE
libCppEditor.so:_ZN9CppEditor16NSCheckerVisitor7getNameEPN9CPlusPlus12NamespaceASTE
libCppEditor.so:_ZN9CppEditor16NSCheckerVisitor8endVisitEPN9CPlusPlus12NamespaceASTE
libCppEditor.so:_ZN9CppEditor16NSCheckerVisitor8endVisitEPN9CPlusPlus18TranslationUnitASTE
libCppEditor.so:_ZN9CppEditor16NSCheckerVisitor8preVisitEPN9CPlusPlus3ASTE
libCppEditor.so:_ZN9CppEditor16NSCheckerVisitor9postVisitEPN9CPlusPlus3ASTE
libCppEditor.so:_ZN9CppEditor16NSCheckerVisitorC1EPKNS_18CppRefactoringFileERK5QListI7QStringEi
libCppEditor.so:_ZN9CppEditor16NSCheckerVisitorC2EPKNS_18CppRefactoringFileERK5QListI7QStringEi
libCppEditor.so:_ZN9CppEditor17BuiltinCursorInfo13findLocalUsesERK14QSharedPointerIN9CPlusPlus8DocumentEEii
libCppEditor.so:_ZN9CppEditor17BuiltinCursorInfo3runERKNS_16CursorInfoParamsE
libCppEditor.so:_ZN9CppEditor17CppProjectUpdater11qt_metacallEN11QMetaObject4CallEiPPv
libCppEditor.so:_ZN9CppEditor17CppProjectUpdater11qt_metacastEPKc
libCppEditor.so:_ZN9CppEditor17CppProjectUpdater16staticMetaObjectE
libCppEditor.so:_ZN9CppEditor17CppProjectUpdater6cancelEv
libCppEditor.so:_ZN9CppEditor17CppProjectUpdater6updateERKN15ProjectExplorer17ProjectUpdateInfoE
libCppEditor.so:_ZN9CppEditor17CppProjectUpdater6updateERKN15ProjectExplorer17ProjectUpdateInfoERK5QListIPNS1_13ExtraCompilerEE
libCppEditor.so:_ZN9CppEditor17CppProjectUpdaterC1Ev
libCppEditor.so:_ZN9CppEditor17CppProjectUpdaterC2Ev
libCppEditor.so:_ZN9CppEditor17CppProjectUpdaterD0Ev
libCppEditor.so:_ZN9CppEditor17CppProjectUpdaterD1Ev
libCppEditor.so:_ZN9CppEditor17CppProjectUpdaterD2Ev
libCppEditor.so:_ZN9CppEditor17InsertionLocationC1ERKN5Utils8FilePathERK7QStringS7_ii
libCppEditor.so:_ZN9CppEditor17InsertionLocationC1Ev
libCppEditor.so:_ZN9CppEditor17InsertionLocationC2ERKN5Utils8FilePathERK7QStringS7_ii
libCppEditor.so:_ZN9CppEditor17InsertionLocationC2Ev
libCppEditor.so:_ZN9CppEditor17codeModelSettingsEv
libCppEditor.so:_ZN9CppEditor17getNamespaceNamesEPKN9CPlusPlus6SymbolE
libCppEditor.so:_ZN9CppEditor17getNamespaceNamesEPKN9CPlusPlus9NamespaceE
libCppEditor.so:_ZN9CppEditor17isValidIdentifierERK7QString
libCppEditor.so:_ZN9CppEditor18CppCodeStyleWidget11qt_metacallEN11QMetaObject4CallEiPPv
libCppEditor.so:_ZN9CppEditor18CppCodeStyleWidget11qt_metacastEPKc
libCppEditor.so:_ZN9CppEditor18CppCodeStyleWidget16staticMetaObjectE
libCppEditor.so:_ZN9CppEditor18CppCodeStyleWidget18tabSettingsChangedERKN10TextEditor11TabSettingsE
libCppEditor.so:_ZN9CppEditor18CppCodeStyleWidget24codeStyleSettingsChangedERKNS_20CppCodeStyleSettingsE
libCppEditor.so:_ZN9CppEditor18CppFunctionsFilter11qt_metacallEN11QMetaObject4CallEiPPv
libCppEditor.so:_ZN9CppEditor18CppFunctionsFilter11qt_metacastEPKc
libCppEditor.so:_ZN9CppEditor18CppFunctionsFilter16staticMetaObjectE
libCppEditor.so:_ZN9CppEditor18CppFunctionsFilter24filterEntryFromIndexItemE14QSharedPointerINS_9IndexItemEE
libCppEditor.so:_ZN9CppEditor18CppFunctionsFilterC1EPNS_14CppLocatorDataE
libCppEditor.so:_ZN9CppEditor18CppFunctionsFilterC2EPNS_14CppLocatorDataE
libCppEditor.so:_ZN9CppEditor18CppFunctionsFilterD0Ev
libCppEditor.so:_ZN9CppEditor18CppFunctionsFilterD1Ev
libCppEditor.so:_ZN9CppEditor18CppFunctionsFilterD2Ev
libCppEditor.so:_ZN9CppEditor18CppIndexingSupport18refreshSourceFilesERK4QSetI7QStringENS_15CppModelManager24ProgressNotificationModeE
libCppEditor.so:_ZN9CppEditor18CppIndexingSupport26isFindErrorsIndexingActiveEv
libCppEditor.so:_ZN9CppEditor18CppIndexingSupportC1Ev
libCppEditor.so:_ZN9CppEditor18CppIndexingSupportC2Ev
libCppEditor.so:_ZN9CppEditor18CppIndexingSupportD1Ev
libCppEditor.so:_ZN9CppEditor18CppIndexingSupportD2Ev
libCppEditor.so:_ZN9CppEditor18CppQuickFixFactory11qt_metacallEN11QMetaObject4CallEiPPv
libCppEditor.so:_ZN9CppEditor18CppQuickFixFactory11qt_metacastEPKc
libCppEditor.so:_ZN9CppEditor18CppQuickFixFactory16staticMetaObjectE
libCppEditor.so:_ZN9CppEditor18CppQuickFixFactory20cppQuickFixFactoriesEv
libCppEditor.so:_ZN9CppEditor18CppQuickFixFactoryC2Ev
libCppEditor.so:_ZN9CppEditor18CppQuickFixFactoryD0Ev
libCppEditor.so:_ZN9CppEditor18CppQuickFixFactoryD1Ev
libCppEditor.so:_ZN9CppEditor18CppQuickFixFactoryD2Ev
libCppEditor.so:_ZN9CppEditor18CppRefactoringFile11fileChangedEv
libCppEditor.so:_ZN9CppEditor18CppRefactoringFile14setCppDocumentE14QSharedPointerIN9CPlusPlus8DocumentEE
libCppEditor.so:_ZN9CppEditor18CppRefactoringFileC1EP13QTextDocumentRKN5Utils8FilePathE
libCppEditor.so:_ZN9CppEditor18CppRefactoringFileC1EPN10TextEditor16TextEditorWidgetE
libCppEditor.so:_ZN9CppEditor18CppRefactoringFileC1ERKN5Utils8FilePathERK14QSharedPointerIN10TextEditor22RefactoringChangesDataEE
libCppEditor.so:_ZN9CppEditor18CppRefactoringFileC2EP13QTextDocumentRKN5Utils8FilePathE
libCppEditor.so:_ZN9CppEditor18CppRefactoringFileC2EPN10TextEditor16TextEditorWidgetE
libCppEditor.so:_ZN9CppEditor18CppRefactoringFileC2ERKN5Utils8FilePathERK14QSharedPointerIN10TextEditor22RefactoringChangesDataEE
libCppEditor.so:_ZN9CppEditor18FileIterationOrder12setReferenceERKN5Utils8FilePathERK7QString
libCppEditor.so:_ZN9CppEditor18FileIterationOrder5EntryC1ERKN5Utils8FilePathERK7QStringii
libCppEditor.so:_ZN9CppEditor18FileIterationOrder5EntryC2ERKN5Utils8FilePathERK7QStringii
libCppEditor.so:_ZN9CppEditor18FileIterationOrder6insertERKN5Utils8FilePathERK7QString
libCppEditor.so:_ZN9CppEditor18FileIterationOrder6removeERKN5Utils8FilePathERK7QString
libCppEditor.so:_ZN9CppEditor18FileIterationOrderC1ERKN5Utils8FilePathERK7QString
libCppEditor.so:_ZN9CppEditor18FileIterationOrderC1Ev
libCppEditor.so:_ZN9CppEditor18FileIterationOrderC2ERKN5Utils8FilePathERK7QString
libCppEditor.so:_ZN9CppEditor18FileIterationOrderC2Ev
libCppEditor.so:_ZN9CppEditor18classifyDoxygenTagEPK5QChari
libCppEditor.so:_ZN9CppEditor18findCanonicalMacroERK11QTextCursor14QSharedPointerIN9CPlusPlus8DocumentEE
libCppEditor.so:_ZN9CppEditor18quickFixOperationsEPKN10TextEditor15AssistInterfaceE
libCppEditor.so:_ZN9CppEditor19CppSelectionChanger11qt_metacallEN11QMetaObject4CallEiPPv
libCppEditor.so:_ZN9CppEditor19CppSelectionChanger11qt_metacastEPKc
libCppEditor.so:_ZN9CppEditor19CppSelectionChanger15changeSelectionENS0_9DirectionER11QTextCursor14QSharedPointerIN9CPlusPlus8DocumentEE
libCppEditor.so:_ZN9CppEditor19CppSelectionChanger16staticMetaObjectE
libCppEditor.so:_ZN9CppEditor19CppSelectionChanger19setNodeIndexAndStepENS0_21NodeIndexAndStepStateE
libCppEditor.so:_ZN9CppEditor19CppSelectionChanger19stopChangeSelectionEv
libCppEditor.so:_ZN9CppEditor19CppSelectionChanger20startChangeSelectionEv
libCppEditor.so:_ZN9CppEditor19CppSelectionChanger21updateCursorSelectionER11QTextCursorNS_16ASTNodePositionsE
libCppEditor.so:_ZN9CppEditor19CppSelectionChanger22performSelectionChangeER11QTextCursor
libCppEditor.so:_ZN9CppEditor19CppSelectionChanger23onCursorPositionChangedERK11QTextCursor
libCppEditor.so:_ZN9CppEditor19CppSelectionChanger24findNextASTStepPositionsERK11QTextCursor
libCppEditor.so:_ZN9CppEditor19CppSelectionChanger34findRelevantASTPositionsFromCursorERK5QListIPN9CPlusPlus3ASTEERK11QTextCursori
libCppEditor.so:_ZN9CppEditor19CppSelectionChanger53findRelevantASTPositionsFromCursorWhenNodeIndexNotSetERK5QListIPN9CPlusPlus3ASTEERK11QTextCursor
libCppEditor.so:_ZN9CppEditor19CppSelectionChanger55findRelevantASTPositionsFromCursorFromPreviousNodeIndexERK5QListIPN9CPlusPlus3ASTEERK11QTextCursor
libCppEditor.so:_ZN9CppEditor19CppSelectionChanger59findRelevantASTPositionsFromCursorWhenWholeDocumentSelectedERK5QListIPN9CPlusPlus3ASTEERK11QTextCursor
libCppEditor.so:_ZN9CppEditor19CppSelectionChangerC1EP7QObject
libCppEditor.so:_ZN9CppEditor19CppSelectionChangerC2EP7QObject
libCppEditor.so:_ZN9CppEditor19ModelManagerSupportD0Ev
libCppEditor.so:_ZN9CppEditor19ModelManagerSupportD1Ev
libCppEditor.so:_ZN9CppEditor19ModelManagerSupportD2Ev
libCppEditor.so:_ZN9CppEditor19SemanticHighlighter11qt_metacallEN11QMetaObject4CallEiPPv
libCppEditor.so:_ZN9CppEditor19SemanticHighlighter11qt_metacastEPKc
libCppEditor.so:_ZN9CppEditor19SemanticHighlighter14connectWatcherEv
libCppEditor.so:_ZN9CppEditor19SemanticHighlighter16staticMetaObjectE
libCppEditor.so:_ZN9CppEditor19SemanticHighlighter17disconnectWatcherEv
libCppEditor.so:_ZN9CppEditor19SemanticHighlighter21onHighlighterFinishedEv
libCppEditor.so:_ZN9CppEditor19SemanticHighlighter21setHighlightingRunnerESt8functionIF7QFutureIN10TextEditor18HighlightingResultEEvEE
libCppEditor.so:_ZN9CppEditor19SemanticHighlighter28onHighlighterResultAvailableEii
libCppEditor.so:_ZN9CppEditor19SemanticHighlighter31updateFormatMapFromFontSettingsEv
libCppEditor.so:_ZN9CppEditor19SemanticHighlighter3runEv
libCppEditor.so:_ZN9CppEditor19SemanticHighlighterC1EPN10TextEditor12TextDocumentE
libCppEditor.so:_ZN9CppEditor19SemanticHighlighterC2EPN10TextEditor12TextDocumentE
libCppEditor.so:_ZN9CppEditor19SemanticHighlighterD0Ev
libCppEditor.so:_ZN9CppEditor19SemanticHighlighterD1Ev
libCppEditor.so:_ZN9CppEditor19SemanticHighlighterD2Ev
libCppEditor.so:_ZN9CppEditor19SendDocumentTracker18applyContentChangeEi
libCppEditor.so:_ZN9CppEditor19SendDocumentTracker19setLastSentRevisionEi
libCppEditor.so:_ZN9CppEditor19SendDocumentTracker25setLastCompletionPositionEi
libCppEditor.so:_ZN9CppEditor19isInCommentOrStringEPKN10TextEditor15AssistInterfaceEN9CPlusPlus16LanguageFeaturesE
libCppEditor.so:_ZN9CppEditor19isOwnershipRAIITypeEPN9CPlusPlus6SymbolERKNS0_13LookupContextE
libCppEditor.so:_ZN9CppEditor20CppCodeModelSettings10toSettingsEP9QSettings
libCppEditor.so:_ZN9CppEditor20CppCodeModelSettings11qt_metacallEN11QMetaObject4CallEiPPv
libCppEditor.so:_ZN9CppEditor20CppCodeModelSettings11qt_metacastEPKc
libCppEditor.so:_ZN9CppEditor20CppCodeModelSettings11setPCHUsageENS0_8PCHUsageE
libCppEditor.so:_ZN9CppEditor20CppCodeModelSettings12fromSettingsEP9QSettings
libCppEditor.so:_ZN9CppEditor20CppCodeModelSettings14setIgnoreFilesEb
libCppEditor.so:_ZN9CppEditor20CppCodeModelSettings16setIgnorePatternERK7QString
libCppEditor.so:_ZN9CppEditor20CppCodeModelSettings16staticMetaObjectE
libCppEditor.so:_ZN9CppEditor20CppCodeModelSettings23setSkipIndexingBigFilesEb
libCppEditor.so:_ZN9CppEditor20CppCodeModelSettings25setEnableLowerClazyLevelsEb
libCppEditor.so:_ZN9CppEditor20CppCodeModelSettings27setIndexerFileSizeLimitInMbEi
libCppEditor.so:_ZN9CppEditor20CppCodeModelSettings33clangDiagnosticConfigsInvalidatedERK5QListIN5Utils2IdEE
libCppEditor.so:_ZN9CppEditor20CppCodeModelSettings38setInterpretAmbigiousHeadersAsCHeadersEb
libCppEditor.so:_ZN9CppEditor20CppCodeModelSettings7changedEv
libCppEditor.so:_ZN9CppEditor20CppCodeStyleSettings19getProjectCodeStyleEPN15ProjectExplorer7ProjectE
libCppEditor.so:_ZN9CppEditor20CppCodeStyleSettings21getProjectTabSettingsEPN15ProjectExplorer7ProjectE
libCppEditor.so:_ZN9CppEditor20CppCodeStyleSettings22currentGlobalCodeStyleEv
libCppEditor.so:_ZN9CppEditor20CppCodeStyleSettings23currentProjectCodeStyleEv
libCppEditor.so:_ZN9CppEditor20CppCodeStyleSettings24currentGlobalTabSettingsEv
libCppEditor.so:_ZN9CppEditor20CppCodeStyleSettings25currentProjectTabSettingsEv
libCppEditor.so:_ZN9CppEditor20CppCodeStyleSettings30currentGlobalCodeStyleOverviewEv
libCppEditor.so:_ZN9CppEditor20CppCodeStyleSettings31currentProjectCodeStyleOverviewEv
libCppEditor.so:_ZN9CppEditor20CppCodeStyleSettings7fromMapERK4QMapI7QString8QVariantE
libCppEditor.so:_ZN9CppEditor20CppCodeStyleSettingsC1Ev
libCppEditor.so:_ZN9CppEditor20CppCodeStyleSettingsC2Ev
libCppEditor.so:_ZN9CppEditor20QtStyleCodeFormatter14setTabSettingsERKN10TextEditor11TabSettingsE
libCppEditor.so:_ZN9CppEditor20QtStyleCodeFormatter20setCodeStyleSettingsERKNS_20CppCodeStyleSettingsE
libCppEditor.so:_ZN9CppEditor20QtStyleCodeFormatter25shouldClearPaddingOnEnterEi
libCppEditor.so:_ZN9CppEditor20QtStyleCodeFormatterC1ERKN10TextEditor11TabSettingsERKNS_20CppCodeStyleSettingsE
libCppEditor.so:_ZN9CppEditor20QtStyleCodeFormatterC1Ev
libCppEditor.so:_ZN9CppEditor20QtStyleCodeFormatterC2ERKN10TextEditor11TabSettingsERKNS_20CppCodeStyleSettingsE
libCppEditor.so:_ZN9CppEditor20QtStyleCodeFormatterC2Ev
libCppEditor.so:_ZN9CppEditor21AbstractEditorSupport11qt_metacallEN11QMetaObject4CallEiPPv
libCppEditor.so:_ZN9CppEditor21AbstractEditorSupport11qt_metacastEPKc
libCppEditor.so:_ZN9CppEditor21AbstractEditorSupport13usePragmaOnceEv
libCppEditor.so:_ZN9CppEditor21AbstractEditorSupport14updateDocumentEv
libCppEditor.so:_ZN9CppEditor21AbstractEditorSupport15licenseTemplateERKN5Utils8FilePathERK7QString
libCppEditor.so:_ZN9CppEditor21AbstractEditorSupport16staticMetaObjectE
libCppEditor.so:_ZN9CppEditor21AbstractEditorSupportC2EPNS_15CppModelManagerEP7QObject
libCppEditor.so:_ZN9CppEditor21AbstractEditorSupportD0Ev
libCppEditor.so:_ZN9CppEditor21AbstractEditorSupportD1Ev
libCppEditor.so:_ZN9CppEditor21AbstractEditorSupportD2Ev
libCppEditor.so:_ZN9CppEditor21ClangDiagnosticConfig12setClazyModeERKNS0_9ClazyModeE
libCppEditor.so:_ZN9CppEditor21ClangDiagnosticConfig13setIsReadOnlyEb
libCppEditor.so:_ZN9CppEditor21ClangDiagnosticConfig14setDisplayNameERK7QString
libCppEditor.so:_ZN9CppEditor21ClangDiagnosticConfig15setClangOptionsERK5QListI7QStringE
libCppEditor.so:_ZN9CppEditor21ClangDiagnosticConfig16setClangTidyModeENS0_8TidyModeE
libCppEditor.so:_ZN9CppEditor21ClangDiagnosticConfig19setTidyCheckOptionsERK7QStringRK4QMapIS1_S1_E
libCppEditor.so:_ZN9CppEditor21ClangDiagnosticConfig25setUseBuildSystemWarningsEb
libCppEditor.so:_ZN9CppEditor21ClangDiagnosticConfig32setTidyChecksOptionsFromSettingsERK8QVariant
libCppEditor.so:_ZN9CppEditor21ClangDiagnosticConfig5setIdERKN5Utils2IdE
libCppEditor.so:_ZN9CppEditor21ClangDiagnosticConfig9setChecksENS_13ClangToolTypeERK7QString
libCppEditor.so:_ZN9CppEditor21ClangdProjectSettings11setSettingsERKNS_14ClangdSettings4DataE
libCppEditor.so:_ZN9CppEditor21ClangdProjectSettings12loadSettingsEv
libCppEditor.so:_ZN9CppEditor21ClangdProjectSettings12saveSettingsEv
libCppEditor.so:_ZN9CppEditor21ClangdProjectSettings13blockIndexingEv
libCppEditor.so:_ZN9CppEditor21ClangdProjectSettings15unblockIndexingEv
libCppEditor.so:_ZN9CppEditor21ClangdProjectSettings20setUseGlobalSettingsEb
libCppEditor.so:_ZN9CppEditor21ClangdProjectSettings21setDiagnosticConfigIdEN5Utils2IdE
libCppEditor.so:_ZN9CppEditor21ClangdProjectSettingsC1EPN15ProjectExplorer7ProjectE
libCppEditor.so:_ZN9CppEditor21ClangdProjectSettingsC2EPN15ProjectExplorer7ProjectE
libCppEditor.so:_ZN9CppEditor21CppRefactoringChanges4fileEPN10TextEditor16TextEditorWidgetERK14QSharedPointerIN9CPlusPlus8DocumentEE
libCppEditor.so:_ZN9CppEditor21CppRefactoringChangesC1ERKN9CPlusPlus8SnapshotE
libCppEditor.so:_ZN9CppEditor21CppRefactoringChangesC2ERKN9CPlusPlus8SnapshotE
libCppEditor.so:_ZN9CppEditor21CppSearchResultFilter12createWidgetEv
libCppEditor.so:_ZN9CppEditor21CppSearchResultFilter8setValueERbb
libCppEditor.so:_ZN9CppEditor21InsertionPointLocator18accessSpecToStringENS0_10AccessSpecE
libCppEditor.so:_ZN9CppEditor21InsertionPointLocatorC1ERKNS_21CppRefactoringChangesE
libCppEditor.so:_ZN9CppEditor21InsertionPointLocatorC2ERKNS_21CppRefactoringChangesE
libCppEditor.so:_ZN9CppEditor21identifierUnderCursorEP11QTextCursor
libCppEditor.so:_ZN9CppEditor21isValidIdentifierCharERK5QChar
libCppEditor.so:_ZN9CppEditor21projectForProjectInfoERKNS_11ProjectInfoE
libCppEditor.so:_ZN9CppEditor21projectForProjectPartERKNS_11ProjectPartE
