libKF6ColorScheme.so.6:_ZN12KColorSchemeC1EN8QPalette10ColorGroupENS_8ColorSetE28QExplicitlySharedDataPointerI13KSharedConfigE
libKF6ColorScheme.so.6:_ZN12KColorSchemeD1Ev
libKF6ColorScheme.so.6:_ZNK12KColorScheme10foregroundENS_14ForegroundRoleE
libKF6Completion.so.6:_ZN16KHistoryComboBox12addToHistoryERK7QString
libKF6Completion.so.6:_ZN16KHistoryComboBox12clearHistoryEv
libKF6Completion.so.6:_ZN16KHistoryComboBox15setHistoryItemsERK5QListI7QStringEb
libKF6Completion.so.6:_ZN16KHistoryComboBoxC1EP7QWidget
libKF6Completion.so.6:_ZNK16KHistoryComboBox12historyItemsEv
libKF6ConfigGui.so.6:_ZN17KStandardShortcut11forwardWordEv
libKF6ConfigGui.so.6:_ZN17KStandardShortcut12backwardWordEv
libKF6ConfigGui.so.6:_ZN17KStandardShortcut14deleteWordBackEv
libKF6ConfigGui.so.6:_ZN17KStandardShortcut14pasteSelectionEv
libKF6ConfigGui.so.6:_ZN17KStandardShortcut15beginningOfLineEv
libKF6ConfigGui.so.6:_ZN17KStandardShortcut17deleteWordForwardEv
libKF6ConfigGui.so.6:_ZN17KStandardShortcut3cutEv
libKF6ConfigGui.so.6:_ZN17KStandardShortcut3endEv
libKF6ConfigGui.so.6:_ZN17KStandardShortcut4copyEv
libKF6ConfigGui.so.6:_ZN17KStandardShortcut4findEv
libKF6ConfigGui.so.6:_ZN17KStandardShortcut4nextEv
libKF6ConfigGui.so.6:_ZN17KStandardShortcut4redoEv
libKF6ConfigGui.so.6:_ZN17KStandardShortcut4undoEv
libKF6ConfigGui.so.6:_ZN17KStandardShortcut5beginEv
libKF6ConfigGui.so.6:_ZN17KStandardShortcut5pasteEv
libKF6ConfigGui.so.6:_ZN17KStandardShortcut5priorEv
libKF6ConfigGui.so.6:_ZN17KStandardShortcut7replaceEv
libKF6ConfigGui.so.6:_ZN17KStandardShortcut8findNextEv
libKF6ConfigGui.so.6:_ZN17KStandardShortcut8findPrevEv
libKF6ConfigGui.so.6:_ZN17KStandardShortcut9endOfLineEv
libKF6ConfigWidgets.so.6:_ZN15KStandardAction17_k_createInternalENS_14StandardActionEP7QObject
libKF6I18n.so.6:_Z6ki18ndPKcS0_
libKF6I18n.so.6:_Z7ki18ndcPKcS0_S0_
libKF6I18n.so.6:_Z7ki18ndpPKcS0_S0_
libKF6I18n.so.6:_ZN16KLocalizedStringC1EPKcS1_S1_S1_b
libKF6I18n.so.6:_ZN16KLocalizedStringC1ERKS_
libKF6I18n.so.6:_ZN16KLocalizedStringC1Ev
libKF6I18n.so.6:_ZN16KLocalizedStringD1Ev
libKF6I18n.so.6:_ZN16KLocalizedStringaSERKS_
libKF6I18n.so.6:_ZNK16KLocalizedString4subsERK7QStringi5QChar
libKF6I18n.so.6:_ZNK16KLocalizedString4subsEiii5QChar
libKF6I18n.so.6:_ZNK16KLocalizedString7isEmptyEv
libKF6I18n.so.6:_ZNK16KLocalizedString8toStringEv
libKF6SonnetCore.so.6:_ZN6Sonnet17BackgroundChecker14changeLanguageERK7QString
libKF6SonnetCore.so.6:_ZN6Sonnet17BackgroundCheckerC1EP7QObject
libKF6SonnetCore.so.6:_ZN6Sonnet7SpellerC1ERK7QString
libKF6SonnetCore.so.6:_ZN6Sonnet7SpellerD1Ev
libKF6SonnetCore.so.6:_ZNK6Sonnet7Speller15defaultLanguageEv
libKF6SonnetCore.so.6:_ZNK6Sonnet7Speller17availableBackendsEv
libKF6SonnetCore.so.6:_ZNK6Sonnet7Speller21availableDictionariesEv
libKF6SonnetUi.so.6:_ZN6Sonnet11Highlighter18setCurrentLanguageERK7QString
libKF6SonnetUi.so.6:_ZN6Sonnet11HighlighterC1EP9QTextEditRK6QColor
libKF6SonnetUi.so.6:_ZN6Sonnet12ConfigDialog11setLanguageERK7QString
libKF6SonnetUi.so.6:_ZN6Sonnet12ConfigDialogC1EP7QWidget
libKF6SonnetUi.so.6:_ZN6Sonnet12ConfigDialogD1Ev
libKF6SonnetUi.so.6:_ZN6Sonnet19SpellCheckDecorator11eventFilterEP7QObjectP6QEvent
libKF6SonnetUi.so.6:_ZN6Sonnet19SpellCheckDecorator11qt_metacallEN11QMetaObject4CallEiPPv
libKF6SonnetUi.so.6:_ZN6Sonnet19SpellCheckDecorator11qt_metacastEPKc
libKF6SonnetUi.so.6:_ZN6Sonnet19SpellCheckDecorator14setHighlighterEPNS_11HighlighterE
libKF6SonnetUi.so.6:_ZN6Sonnet19SpellCheckDecorator16staticMetaObjectE
libKF6SonnetUi.so.6:_ZN6Sonnet19SpellCheckDecoratorC2EP9QTextEdit
libKF6SonnetUi.so.6:_ZN6Sonnet19SpellCheckDecoratorD2Ev
libKF6SonnetUi.so.6:_ZN6Sonnet6Dialog11autoCorrectERK7QStringS3_
libKF6SonnetUi.so.6:_ZN6Sonnet6Dialog11misspellingERK7QStringi
libKF6SonnetUi.so.6:_ZN6Sonnet6Dialog14spellCheckDoneERK7QString
libKF6SonnetUi.so.6:_ZN6Sonnet6Dialog15languageChangedERK7QString
libKF6SonnetUi.so.6:_ZN6Sonnet6Dialog16spellCheckStatusERK7QString
libKF6SonnetUi.so.6:_ZN6Sonnet6Dialog16staticMetaObjectE
libKF6SonnetUi.so.6:_ZN6Sonnet6Dialog17activeAutoCorrectEb
libKF6SonnetUi.so.6:_ZN6Sonnet6Dialog4showEv
libKF6SonnetUi.so.6:_ZN6Sonnet6Dialog6cancelEv
libKF6SonnetUi.so.6:_ZN6Sonnet6Dialog7replaceERK7QStringiS3_
libKF6SonnetUi.so.6:_ZN6Sonnet6Dialog9setBufferERK7QString
libKF6SonnetUi.so.6:_ZN6Sonnet6DialogC1EPNS_17BackgroundCheckerEP7QWidget
libKF6SonnetUi.so.6:_ZNK6Sonnet12ConfigDialog8languageEv
libKF6SonnetUi.so.6:_ZNK6Sonnet19SpellCheckDecorator10metaObjectEv
libKF6SonnetUi.so.6:_ZNK6Sonnet19SpellCheckDecorator11highlighterEv
libKF6SonnetUi.so.6:_ZTIN6Sonnet19SpellCheckDecoratorE
libKF6WidgetsAddons.so.6:_ZN11KFontAction7setFontERK7QString
libKF6WidgetsAddons.so.6:_ZN11KFontActionC1ERK7QStringP7QObject
libKF6WidgetsAddons.so.6:_ZN11KMessageBox11informationEP7QWidgetRK7QStringS4_S4_6QFlagsINS_6OptionEE
libKF6WidgetsAddons.so.6:_ZN11KMessageBox18questionTwoActionsEP7QWidgetRK7QStringS4_RK8KGuiItemS7_S4_6QFlagsINS_6OptionEE
libKF6WidgetsAddons.so.6:_ZN11KMessageBox5errorEP7QWidgetRK7QStringS4_6QFlagsINS_6OptionEE
libKF6WidgetsAddons.so.6:_ZN13KSelectAction13textTriggeredERK7QString
libKF6WidgetsAddons.so.6:_ZN13KSelectAction14indexTriggeredEi
libKF6WidgetsAddons.so.6:_ZN13KSelectAction14setCurrentItemEi
libKF6WidgetsAddons.so.6:_ZN13KSelectAction16staticMetaObjectE
libKF6WidgetsAddons.so.6:_ZN13KSelectAction8setItemsERK5QListI7QStringE
libKF6WidgetsAddons.so.6:_ZN13KSelectActionC1ERK5QIconRK7QStringP7QObject
libKF6WidgetsAddons.so.6:_ZN13KSelectActionC1ERK7QStringP7QObject
libKF6WidgetsAddons.so.6:_ZN13KToggleActionC1ERK5QIconRK7QStringP7QObject
libKF6WidgetsAddons.so.6:_ZN13KToggleActionC1ERK7QStringP7QObject
libKF6WidgetsAddons.so.6:_ZN15KFontSizeAction11setFontSizeEi
libKF6WidgetsAddons.so.6:_ZN15KFontSizeAction15fontSizeChangedEi
libKF6WidgetsAddons.so.6:_ZN15KFontSizeAction16staticMetaObjectE
libKF6WidgetsAddons.so.6:_ZN15KFontSizeActionC1ERK7QStringP7QObject
libKF6WidgetsAddons.so.6:_ZN16KStandardGuiItem4contEv
libKF6WidgetsAddons.so.6:_ZN16KStandardGuiItem4findEv
libKF6WidgetsAddons.so.6:_ZN16KStandardGuiItem4stopEv
libKF6WidgetsAddons.so.6:_ZN7KCursor17setAutoHideCursorEP7QWidgetbb
libKF6WidgetsAddons.so.6:_ZN8KGuiItem6assignEP11QPushButtonRKS_
libKF6WidgetsAddons.so.6:_ZN8KGuiItemC1ERK7QStringS2_S2_S2_
libKF6WidgetsAddons.so.6:_ZN8KGuiItemD1Ev
libQt6Core.so.6:_Z21qRegisterResourceDataiPKhS0_S0_
libQt6Core.so.6:_Z23qUnregisterResourceDataiPKhS0_S0_
libQt6Core.so.6:_Z23qt_qFindChildren_helperPK7QObjectRK11QMetaObjectP5QListIPvE6QFlagsIN2Qt15FindChildOptionEE
libQt6Core.so.6:_Z30qt_QMetaEnum_flagDebugOperatorR6QDebugyPK11QMetaObjectPKc
libQt6Core.so.6:_Z5qHash11QStringViewm
libQt6Core.so.6:_ZN10QArrayData19reallocateUnalignedEPS_PvxxNS_16AllocationOptionE
libQt6Core.so.6:_ZN10QArrayData8allocateEPPS_xxxNS_16AllocationOptionE
libQt6Core.so.6:_ZN10QByteArray11reallocDataExN10QArrayData16AllocationOptionE
libQt6Core.so.6:_ZN10QByteArray6appendEc
libQt6Core.so.6:_ZN10QByteArray6insertEx14QByteArrayView
libQt6Core.so.6:_ZN11QDataStreamlsEi
libQt6Core.so.6:_ZN11QDataStreamrsERi
libQt6Core.so.6:_ZN11QMetaObject10ConnectionD1Ev
libQt6Core.so.6:_ZN11QMetaObject16invokeMethodImplEP7QObjectPN9QtPrivate15QSlotObjectBaseEN2Qt14ConnectionTypeEPv
libQt6Core.so.6:_ZN11QMetaObject8activateEP7QObjectPKS_iPPv
libQt6Core.so.6:_ZN11QTextStreamlsEc
libQt6Core.so.6:_ZN11QTextStreamlsEi
libQt6Core.so.6:_ZN15QtSharedPointer20ExternalRefCountData9getAndRefEPK7QObject
libQt6Core.so.6:_ZN18QRegularExpressionC1ERK7QString6QFlagsINS_13PatternOptionEE
libQt6Core.so.6:_ZN18QRegularExpressionD1Ev
libQt6Core.so.6:_ZN21QAbstractConcatenable14appendLatin1ToE13QLatin1StringP5QChar
libQt6Core.so.6:_ZN23QRegularExpressionMatchC1Ev
libQt6Core.so.6:_ZN23QRegularExpressionMatchD1Ev
libQt6Core.so.6:_ZN23QRegularExpressionMatchaSERKS_
libQt6Core.so.6:_ZN5QChar15isLetter_helperEDi
libQt6Core.so.6:_ZN5QChar8categoryEDi
libQt6Core.so.6:_ZN6QDebugD1Ev
libQt6Core.so.6:_ZN7QObject10childEventEP11QChildEvent
libQt6Core.so.6:_ZN7QObject10disconnectEPKS_PKcS1_S3_
libQt6Core.so.6:_ZN7QObject10timerEventEP11QTimerEvent
libQt6Core.so.6:_ZN7QObject11connectImplEPKS_PPvS1_S3_PN9QtPrivate15QSlotObjectBaseEN2Qt14ConnectionTypeEPKiPK11QMetaObject
libQt6Core.so.6:_ZN7QObject11customEventEP6QEvent
libQt6Core.so.6:_ZN7QObject11deleteLaterEv
libQt6Core.so.6:_ZN7QObject11eventFilterEPS_P6QEvent
libQt6Core.so.6:_ZN7QObject11qt_metacallEN11QMetaObject4CallEiPPv
libQt6Core.so.6:_ZN7QObject11qt_metacastEPKc
libQt6Core.so.6:_ZN7QObject13connectNotifyERK11QMetaMethod
libQt6Core.so.6:_ZN7QObject14disconnectImplEPKS_PPvS1_S3_PK11QMetaObject
libQt6Core.so.6:_ZN7QObject15doSetObjectNameERK7QString
libQt6Core.so.6:_ZN7QObject16disconnectNotifyERK11QMetaMethod
libQt6Core.so.6:_ZN7QObject16staticMetaObjectE
libQt6Core.so.6:_ZN7QObject5eventEP6QEvent
libQt6Core.so.6:_ZN7QObject9setParentEPS_
libQt6Core.so.6:_ZN7QObjectC2EPS_
libQt6Core.so.6:_ZN7QObjectD2Ev
libQt6Core.so.6:_ZN7QString10fromLatin1E14QByteArrayView
libQt6Core.so.6:_ZN7QString14toLower_helperERS_
libQt6Core.so.6:_ZN7QString14trimmed_helperERKS_
libQt6Core.so.6:_ZN7QString14trimmed_helperERS_
libQt6Core.so.6:_ZN7QString6_emptyE
libQt6Core.so.6:_ZN7QString6appendE13QLatin1String
libQt6Core.so.6:_ZN7QString6appendE5QChar
libQt6Core.so.6:_ZN7QString6appendEPK5QCharx
libQt6Core.so.6:_ZN7QString6appendERKS_
libQt6Core.so.6:_ZN7QString6numberEii
libQt6Core.so.6:_ZN7QString7replaceE13QLatin1StringRKS_N2Qt15CaseSensitivityE
libQt6Core.so.6:_ZN7QString7replaceERK18QRegularExpressionRKS_
libQt6Core.so.6:_ZN7QString7replaceERKS_S1_N2Qt15CaseSensitivityE
libQt6Core.so.6:_ZN7QString7replaceExxRKS_
libQt6Core.so.6:_ZN7QString8truncateEx
libQt6Core.so.6:_ZN7QStringC1ExN2Qt14InitializationE
libQt6Core.so.6:_ZN7QStringaSERKS_
libQt6Core.so.6:_ZN8QVariantC1ERK5QListI7QStringE
libQt6Core.so.6:_ZN8QVariantC1ERK7QString
libQt6Core.so.6:_ZN8QVariantC1Eb
libQt6Core.so.6:_ZN8QVariantC1Ed
libQt6Core.so.6:_ZN8QVariantC1Ei
libQt6Core.so.6:_ZN8QVariantD1Ev
libQt6Core.so.6:_ZN9QHashSeed10globalSeedEv
libQt6Core.so.6:_ZN9QMetaType14registerHelperEPKN9QtPrivate18QMetaTypeInterfaceE
libQt6Core.so.6:_ZN9QMetaType25registerNormalizedTypedefERK10QByteArrayS_
libQt6Core.so.6:_ZN9QSettingsC1ERK7QStringS2_P7QObject
libQt6Core.so.6:_ZN9QSettingsD1Ev
libQt6Core.so.6:_ZN9QtPrivate12argToQStringE13QLatin1StringmPPKNS_7ArgBaseE
libQt6Core.so.6:_ZN9QtPrivate12equalStringsE11QStringViewS0_
libQt6Core.so.6:_ZN9QtPrivate25QMetaTypeInterfaceWrapperI7QStringE8metaTypeE
libQt6Core.so.6:_ZN9QtPrivate25QMetaTypeInterfaceWrapperIbE8metaTypeE
libQt6Core.so.6:_ZN9QtPrivate25QMetaTypeInterfaceWrapperIiE8metaTypeE
libQt6Core.so.6:_ZNK11QMetaObject9classNameEv
libQt6Core.so.6:_ZNK11QObjectData17dynamicMetaObjectEv
libQt6Core.so.6:_ZNK18QRegularExpression12captureCountEv
libQt6Core.so.6:_ZNK18QRegularExpression5matchERK7QStringxNS_9MatchTypeE6QFlagsINS_11MatchOptionEE
libQt6Core.so.6:_ZNK18QRegularExpression7isValidEv
libQt6Core.so.6:_ZNK23QRegularExpressionMatch13capturedStartEi
libQt6Core.so.6:_ZNK23QRegularExpressionMatch14capturedLengthEi
libQt6Core.so.6:_ZNK23QRegularExpressionMatch17regularExpressionEv
libQt6Core.so.6:_ZNK23QRegularExpressionMatch8capturedEi
libQt6Core.so.6:_ZNK7QString10startsWithE5QCharN2Qt15CaseSensitivityE
libQt6Core.so.6:_ZNK7QString10startsWithERKS_N2Qt15CaseSensitivityE
libQt6Core.so.6:_ZNK7QString11lastIndexOfERK18QRegularExpressionxP23QRegularExpressionMatch
libQt6Core.so.6:_ZNK7QString11lastIndexOfERKS_xN2Qt15CaseSensitivityE
libQt6Core.so.6:_ZNK7QString13toHtmlEscapedEv
libQt6Core.so.6:_ZNK7QString3argERKS_i5QChar
libQt6Core.so.6:_ZNK7QString3argExii5QChar
libQt6Core.so.6:_ZNK7QString3midExx
libQt6Core.so.6:_ZNK7QString7indexOfERKS_xN2Qt15CaseSensitivityE
libQt6Core.so.6:_ZNK7QString8endsWithE5QCharN2Qt15CaseSensitivityE
libQt6Core.so.6:_ZNK8QVariant6toBoolEv
libQt6Core.so.6:_ZNK8QVariant8toStringEv
libQt6Core.so.6:_ZNK9QSettings5valueE14QAnyStringViewRK8QVariant
libQt6Core.so.6:_ZTI7QObject
libQt6Core.so.6:qt_version_tag
libQt6Gui.so.6:_ZN11QTextCursor10createListERK15QTextListFormat
libQt6Gui.so.6:_ZN11QTextCursor10deleteCharEv
libQt6Gui.so.6:_ZN11QTextCursor10insertHtmlERK7QString
libQt6Gui.so.6:_ZN11QTextCursor10insertTextERK7QString
libQt6Gui.so.6:_ZN11QTextCursor10insertTextERK7QStringRK15QTextCharFormat
libQt6Gui.so.6:_ZN11QTextCursor11insertBlockERK16QTextBlockFormatRK15QTextCharFormat
libQt6Gui.so.6:_ZN11QTextCursor11setPositionEiNS_8MoveModeE
libQt6Gui.so.6:_ZN11QTextCursor12endEditBlockEv
libQt6Gui.so.6:_ZN11QTextCursor12movePositionENS_13MoveOperationENS_8MoveModeEi
libQt6Gui.so.6:_ZN11QTextCursor13setCharFormatERK15QTextCharFormat
libQt6Gui.so.6:_ZN11QTextCursor14beginEditBlockEv
libQt6Gui.so.6:_ZN11QTextCursor14clearSelectionEv
libQt6Gui.so.6:_ZN11QTextCursor14insertFragmentERK21QTextDocumentFragment
libQt6Gui.so.6:_ZN11QTextCursor14setBlockFormatERK16QTextBlockFormat
libQt6Gui.so.6:_ZN11QTextCursor15mergeCharFormatERK15QTextCharFormat
libQt6Gui.so.6:_ZN11QTextCursor16mergeBlockFormatERK16QTextBlockFormat
libQt6Gui.so.6:_ZN11QTextCursor18deletePreviousCharEv
libQt6Gui.so.6:_ZN11QTextCursor18removeSelectedTextEv
libQt6Gui.so.6:_ZN11QTextCursor20mergeBlockCharFormatERK15QTextCharFormat
libQt6Gui.so.6:_ZN11QTextCursor21joinPreviousEditBlockEv
libQt6Gui.so.6:_ZN11QTextCursor6selectENS_13SelectionTypeE
libQt6Gui.so.6:_ZN11QTextCursorC1EP13QTextDocument
libQt6Gui.so.6:_ZN11QTextCursorC1ERK10QTextBlock
libQt6Gui.so.6:_ZN11QTextCursorC1ERKS_
libQt6Gui.so.6:_ZN11QTextCursorD1Ev
libQt6Gui.so.6:_ZN11QTextFormat11setPropertyEiRK8QVariant
libQt6Gui.so.6:_ZN11QTextFormat14setObjectIndexEi
libQt6Gui.so.6:_ZN11QTextFormatC2ERKS_
libQt6Gui.so.6:_ZN11QTextFormatD1Ev
libQt6Gui.so.6:_ZN11QTextFormatD2Ev
libQt6Gui.so.6:_ZN11QTextFormataSERKS_
libQt6Gui.so.6:_ZN11QTextObject9setFormatERK11QTextFormat
libQt6Gui.so.6:_ZN12QActionGroup12setExclusiveEb
libQt6Gui.so.6:_ZN12QActionGroup9addActionEP7QAction
libQt6Gui.so.6:_ZN12QActionGroupC1EP7QObject
libQt6Gui.so.6:_ZN12QKeySequenceC1E15QKeyCombinationS0_S0_S0_
libQt6Gui.so.6:_ZN12QKeySequenceC1Eiiii
libQt6Gui.so.6:_ZN12QKeySequenceD1Ev
libQt6Gui.so.6:_ZN13QTextDocument12setPlainTextERK7QString
libQt6Gui.so.6:_ZN13QTextDocumentC1EP7QObject
libQt6Gui.so.6:_ZN13QTextDocumentD1Ev
libQt6Gui.so.6:_ZN15QGuiApplication9clipboardEv
libQt6Gui.so.6:_ZN15QTextCharFormat17setUnderlineStyleENS_14UnderlineStyleE
libQt6Gui.so.6:_ZN15QTextCharFormat7setFontERK5QFontNS_33FontPropertiesInheritanceBehaviorE
libQt6Gui.so.6:_ZN15QTextCharFormatC1Ev
libQt6Gui.so.6:_ZN15QTextListFormatC1Ev
libQt6Gui.so.6:_ZN16QTextBlockFormatC1Ev
libQt6Gui.so.6:_ZN18QSyntaxHighlighter11rehighlightEv
libQt6Gui.so.6:_ZN21QTextDocumentFragmentC1EPK13QTextDocument
libQt6Gui.so.6:_ZN21QTextDocumentFragmentC1Ev
libQt6Gui.so.6:_ZN21QTextDocumentFragmentD1Ev
libQt6Gui.so.6:_ZN21QTextDocumentFragmentaSERKS_
libQt6Gui.so.6:_ZN2Qt15mightBeRichTextERK7QString
libQt6Gui.so.6:_ZN5QFont12setStrikeOutEb
libQt6Gui.so.6:_ZN5QFont12setUnderlineEb
libQt6Gui.so.6:_ZN5QFont16staticMetaObjectE
libQt6Gui.so.6:_ZN5QFont8setStyleENS_5StyleE
libQt6Gui.so.6:_ZN5QFont9setWeightENS_6WeightE
libQt6Gui.so.6:_ZN5QFontC1ERKS_
libQt6Gui.so.6:_ZN5QFontC1Ev
libQt6Gui.so.6:_ZN5QFontD1Ev
libQt6Gui.so.6:_ZN5QIcon9fromThemeERK7QString
libQt6Gui.so.6:_ZN5QIcon9fromThemeERK7QStringRKS_
libQt6Gui.so.6:_ZN5QIconC1ERK7QString
libQt6Gui.so.6:_ZN5QIconC1Ev
libQt6Gui.so.6:_ZN5QIconD1Ev
libQt6Gui.so.6:_ZN6QBrushC1ERK6QColorN2Qt10BrushStyleE
libQt6Gui.so.6:_ZN6QBrushD1Ev
libQt6Gui.so.6:_ZN7QAction10setCheckedEb
libQt6Gui.so.6:_ZN7QAction10setEnabledEb
libQt6Gui.so.6:_ZN7QAction11qt_metacallEN11QMetaObject4CallEiPPv
libQt6Gui.so.6:_ZN7QAction11qt_metacastEPKc
libQt6Gui.so.6:_ZN7QAction11setIconTextERK7QString
libQt6Gui.so.6:_ZN7QAction11setShortcutERK12QKeySequence
libQt6Gui.so.6:_ZN7QAction12setCheckableEb
libQt6Gui.so.6:_ZN7QAction14setActionGroupEP12QActionGroup
libQt6Gui.so.6:_ZN7QAction16staticMetaObjectE
libQt6Gui.so.6:_ZN7QAction5eventEP6QEvent
libQt6Gui.so.6:_ZN7QAction7setDataERK8QVariant
libQt6Gui.so.6:_ZN7QAction7setFontERK5QFont
libQt6Gui.so.6:_ZN7QAction7setIconERK5QIcon
libQt6Gui.so.6:_ZN7QAction7toggledEb
libQt6Gui.so.6:_ZN7QAction9triggeredEb
libQt6Gui.so.6:_ZN7QActionC1ERK5QIconRK7QStringP7QObject
libQt6Gui.so.6:_ZN7QActionC2ERK7QStringP7QObject
libQt6Gui.so.6:_ZN7QActionD2Ev
libQt6Gui.so.6:_ZN7QCursorC1EN2Qt11CursorShapeE
libQt6Gui.so.6:_ZN7QCursorC1ERK7QPixmapii
libQt6Gui.so.6:_ZN7QCursorD1Ev
libQt6Gui.so.6:_ZN7QPixmapD1Ev
libQt6Gui.so.6:_ZN8QPalette8setBrushENS_10ColorGroupENS_9ColorRoleERK6QBrush
libQt6Gui.so.6:_ZN8QPaletteC1ERKS_
libQt6Gui.so.6:_ZN8QPaletteC1Ev
libQt6Gui.so.6:_ZN8QPaletteD1Ev
libQt6Gui.so.6:_ZN9QTextList3addERK10QTextBlock
libQt6Gui.so.6:_ZN9QTextList6removeERK10QTextBlock
libQt6Gui.so.6:_ZNK10QClipboard4textENS_4ModeE
libQt6Gui.so.6:_ZNK10QTextBlock10charFormatEv
libQt6Gui.so.6:_ZNK10QTextBlock11blockFormatEv
libQt6Gui.so.6:_ZNK10QTextBlock4nextEv
libQt6Gui.so.6:_ZNK10QTextBlock4textEv
libQt6Gui.so.6:_ZNK10QTextBlock7isValidEv
libQt6Gui.so.6:_ZNK10QTextBlock8positionEv
libQt6Gui.so.6:_ZNK10QTextBlock8previousEv
libQt6Gui.so.6:_ZNK10QTextBlock8textListEv
libQt6Gui.so.6:_ZNK11QTextCursor10atBlockEndEv
libQt6Gui.so.6:_ZNK11QTextCursor10charFormatEv
libQt6Gui.so.6:_ZNK11QTextCursor11blockFormatEv
libQt6Gui.so.6:_ZNK11QTextCursor11currentListEv
libQt6Gui.so.6:_ZNK11QTextCursor12atBlockStartEv
libQt6Gui.so.6:_ZNK11QTextCursor12hasSelectionEv
libQt6Gui.so.6:_ZNK11QTextCursor12selectedTextEv
libQt6Gui.so.6:_ZNK11QTextCursor12selectionEndEv
libQt6Gui.so.6:_ZNK11QTextCursor5atEndEv
libQt6Gui.so.6:_ZNK11QTextCursor5blockEv
libQt6Gui.so.6:_ZNK11QTextCursor6anchorEv
libQt6Gui.so.6:_ZNK11QTextCursor7atStartEv
libQt6Gui.so.6:_ZNK11QTextCursor8positionEv
libQt6Gui.so.6:_ZNK11QTextFormat11intPropertyEi
libQt6Gui.so.6:_ZNK11QTextFormat12boolPropertyEi
libQt6Gui.so.6:_ZNK11QTextFormat12toListFormatEv
libQt6Gui.so.6:_ZNK11QTextFormat13brushPropertyEi
libQt6Gui.so.6:_ZNK11QTextFormat13colorPropertyEi
libQt6Gui.so.6:_ZNK11QTextFormat14stringPropertyEi
libQt6Gui.so.6:_ZNK11QTextObject6formatEv
libQt6Gui.so.6:_ZNK12QKeySequenceeqERKS_
libQt6Gui.so.6:_ZNK13QTextDocument11toPlainTextEv
libQt6Gui.so.6:_ZNK13QTextDocument5beginEv
libQt6Gui.so.6:_ZNK13QTextDocument7isEmptyEv
libQt6Gui.so.6:_ZNK15QTextCharFormat4fontEv
libQt6Gui.so.6:_ZNK5QFont5styleEv
libQt6Gui.so.6:_ZNK5QFont6familyEv
libQt6Gui.so.6:_ZNK5QFont6weightEv
libQt6Gui.so.6:_ZNK5QFont9pointSizeEv
libQt6Gui.so.6:_ZNK5QFont9strikeOutEv
libQt6Gui.so.6:_ZNK5QFont9underlineEv
libQt6Gui.so.6:_ZNK5QFonteqERKS_
libQt6Gui.so.6:_ZNK5QFontltERKS_
libQt6Gui.so.6:_ZNK5QIcon6pixmapERK5QSizeNS_4ModeENS_5StateE
libQt6Gui.so.6:_ZNK6QBrushcv8QVariantEv
libQt6Gui.so.6:_ZNK6QColorcv8QVariantEv
libQt6Gui.so.6:_ZNK6QColoreqERKS_
libQt6Gui.so.6:_ZNK7QAction10metaObjectEv
libQt6Gui.so.6:_ZNK7QAction4dataEv
libQt6Gui.so.6:_ZNK8QPalette5brushENS_10ColorGroupENS_9ColorRoleE
libQt6Gui.so.6:_ZNK9QKeyEvent7matchesEN12QKeySequence11StandardKeyE
libQt6Gui.so.6:_ZNK9QKeyEvent9modifiersEv
libQt6Gui.so.6:_ZNK9QTextList4itemEi
libQt6Gui.so.6:_ZTI7QAction
libQt6Gui.so.6:_Zls6QDebugRK5QFont
libQt6Gui.so.6:_Zls6QDebugRK6QColor
libQt6Gui.so.6:_ZlsR11QDataStreamRK5QFont
libQt6Gui.so.6:_ZlsR11QDataStreamRK6QColor
libQt6Gui.so.6:_ZrsR11QDataStreamR5QFont
libQt6Gui.so.6:_ZrsR11QDataStreamR6QColor
libQt6TextToSpeech.so.6:_ZN13QTextToSpeech3sayERK7QString
libQt6TextToSpeech.so.6:_ZN13QTextToSpeechC1EP7QObject
libQt6Widgets.so.6:_ZN10QBoxLayout9addLayoutEP7QLayouti
libQt6Widgets.so.6:_ZN10QBoxLayout9addWidgetEP7QWidgeti6QFlagsIN2Qt13AlignmentFlagEE
libQt6Widgets.so.6:_ZN11QGridLayout9addWidgetEP7QWidgetii6QFlagsIN2Qt13AlignmentFlagEE
libQt6Widgets.so.6:_ZN11QGridLayout9addWidgetEP7QWidgetiiii6QFlagsIN2Qt13AlignmentFlagEE
libQt6Widgets.so.6:_ZN11QGridLayoutC1EP7QWidget
libQt6Widgets.so.6:_ZN11QPushButton10setDefaultEb
libQt6Widgets.so.6:_ZN11QPushButtonC1EP7QWidget
libQt6Widgets.so.6:_ZN11QPushButtonC1ERK7QStringP7QWidget
libQt6Widgets.so.6:_ZN11QVBoxLayoutC1EP7QWidget
libQt6Widgets.so.6:_ZN12QColorDialog8getColorERK6QColorP7QWidgetRK7QString6QFlagsINS_17ColorDialogOptionEE
libQt6Widgets.so.6:_ZN15QAbstractButton10setCheckedEb
libQt6Widgets.so.6:_ZN15QAbstractButton16staticMetaObjectE
libQt6Widgets.so.6:_ZN15QAbstractButton7clickedEb
libQt6Widgets.so.6:_ZN15QAbstractButton7toggledEb
libQt6Widgets.so.6:_ZN15QAbstractSlider13triggerActionENS_12SliderActionE
libQt6Widgets.so.6:_ZN16QAbstractSpinBox10closeEventEP11QCloseEvent
libQt6Widgets.so.6:_ZN16QAbstractSpinBox10paintEventEP11QPaintEvent
libQt6Widgets.so.6:_ZN16QAbstractSpinBox10timerEventEP11QTimerEvent
libQt6Widgets.so.6:_ZN16QAbstractSpinBox10wheelEventEP11QWheelEvent
libQt6Widgets.so.6:_ZN16QAbstractSpinBox11changeEventEP6QEvent
libQt6Widgets.so.6:_ZN16QAbstractSpinBox11resizeEventEP12QResizeEvent
libQt6Widgets.so.6:_ZN16QAbstractSpinBox12focusInEventEP11QFocusEvent
libQt6Widgets.so.6:_ZN16QAbstractSpinBox13focusOutEventEP11QFocusEvent
libQt6Widgets.so.6:_ZN16QAbstractSpinBox13keyPressEventEP9QKeyEvent
libQt6Widgets.so.6:_ZN16QAbstractSpinBox14mouseMoveEventEP11QMouseEvent
libQt6Widgets.so.6:_ZN16QAbstractSpinBox15keyReleaseEventEP9QKeyEvent
libQt6Widgets.so.6:_ZN16QAbstractSpinBox15mousePressEventEP11QMouseEvent
libQt6Widgets.so.6:_ZN16QAbstractSpinBox16contextMenuEventEP17QContextMenuEvent
libQt6Widgets.so.6:_ZN16QAbstractSpinBox17mouseReleaseEventEP11QMouseEvent
libQt6Widgets.so.6:_ZN16QAbstractSpinBox5clearEv
libQt6Widgets.so.6:_ZN16QAbstractSpinBox6stepByEi
libQt6Widgets.so.6:_ZN16QAbstractSpinBox9hideEventEP10QHideEvent
libQt6Widgets.so.6:_ZN16QAbstractSpinBox9showEventEP10QShowEvent
libQt6Widgets.so.6:_ZN16QDialogButtonBox16staticMetaObjectE
libQt6Widgets.so.6:_ZN16QDialogButtonBox18setStandardButtonsE6QFlagsINS_14StandardButtonEE
libQt6Widgets.so.6:_ZN16QDialogButtonBox8acceptedEv
libQt6Widgets.so.6:_ZN16QDialogButtonBox8rejectedEv
libQt6Widgets.so.6:_ZN16QDialogButtonBox9addButtonEP15QAbstractButtonNS_10ButtonRoleE
libQt6Widgets.so.6:_ZN16QDialogButtonBoxC1EP7QWidget
libQt6Widgets.so.6:_ZN19QAbstractScrollArea11eventFilterEP7QObjectP6QEvent
libQt6Widgets.so.6:_ZN19QAbstractScrollArea13setupViewportEP7QWidget
libQt6Widgets.so.6:_ZN19QAbstractScrollArea13viewportEventEP6QEvent
libQt6Widgets.so.6:_ZN5QMenu11aboutToShowEv
libQt6Widgets.so.6:_ZN5QMenu12addSeparatorEv
libQt6Widgets.so.6:_ZN5QMenu16staticMetaObjectE
libQt6Widgets.so.6:_ZN5QMenu4execERK6QPointP7QAction
libQt6Widgets.so.6:_ZN5QMenu5clearEv
libQt6Widgets.so.6:_ZN5QMenu7addMenuEPS_
libQt6Widgets.so.6:_ZN5QMenu9triggeredEP7QAction
libQt6Widgets.so.6:_ZN5QMenuC1EP7QWidget
libQt6Widgets.so.6:_ZN5QMenuC1ERK7QStringP7QWidget
libQt6Widgets.so.6:_ZN6QLabel7setTextERK7QString
libQt6Widgets.so.6:_ZN6QLabel8setBuddyEP7QWidget
libQt6Widgets.so.6:_ZN6QLabelC1EP7QWidget6QFlagsIN2Qt10WindowTypeEE
libQt6Widgets.so.6:_ZN6QLabelC1ERK7QStringP7QWidget6QFlagsIN2Qt10WindowTypeEE
libQt6Widgets.so.6:_ZN7QDialog10closeEventEP11QCloseEvent
libQt6Widgets.so.6:_ZN7QDialog10setVisibleEb
libQt6Widgets.so.6:_ZN7QDialog11eventFilterEP7QObjectP6QEvent
libQt6Widgets.so.6:_ZN7QDialog11qt_metacallEN11QMetaObject4CallEiPPv
libQt6Widgets.so.6:_ZN7QDialog11qt_metacastEPKc
libQt6Widgets.so.6:_ZN7QDialog11resizeEventEP12QResizeEvent
libQt6Widgets.so.6:_ZN7QDialog13keyPressEventEP9QKeyEvent
libQt6Widgets.so.6:_ZN7QDialog16contextMenuEventEP17QContextMenuEvent
libQt6Widgets.so.6:_ZN7QDialog16staticMetaObjectE
libQt6Widgets.so.6:_ZN7QDialog4doneEi
libQt6Widgets.so.6:_ZN7QDialog4execEv
libQt6Widgets.so.6:_ZN7QDialog4openEv
libQt6Widgets.so.6:_ZN7QDialog6acceptEv
libQt6Widgets.so.6:_ZN7QDialog6rejectEv
libQt6Widgets.so.6:_ZN7QDialog8acceptedEv
libQt6Widgets.so.6:_ZN7QDialog8finishedEi
libQt6Widgets.so.6:_ZN7QDialog8setModalEb
libQt6Widgets.so.6:_ZN7QDialog9showEventEP10QShowEvent
libQt6Widgets.so.6:_ZN7QDialogC2EP7QWidget6QFlagsIN2Qt10WindowTypeEE
libQt6Widgets.so.6:_ZN7QDialogD2Ev
libQt6Widgets.so.6:_ZN7QWidget10closeEventEP11QCloseEvent
libQt6Widgets.so.6:_ZN7QWidget10enterEventEP11QEnterEvent
libQt6Widgets.so.6:_ZN7QWidget10leaveEventEP6QEvent
libQt6Widgets.so.6:_ZN7QWidget10paintEventEP11QPaintEvent
libQt6Widgets.so.6:_ZN7QWidget10setEnabledEb
libQt6Widgets.so.6:_ZN7QWidget10setPaletteERK8QPalette
libQt6Widgets.so.6:_ZN7QWidget10setVisibleEb
libQt6Widgets.so.6:_ZN7QWidget10wheelEventEP11QWheelEvent
libQt6Widgets.so.6:_ZN7QWidget11actionEventEP12QActionEvent
libQt6Widgets.so.6:_ZN7QWidget11changeEventEP6QEvent
libQt6Widgets.so.6:_ZN7QWidget11nativeEventERK10QByteArrayPvPx
libQt6Widgets.so.6:_ZN7QWidget11setTabOrderEPS_S0_
libQt6Widgets.so.6:_ZN7QWidget11tabletEventEP12QTabletEvent
libQt6Widgets.so.6:_ZN7QWidget12focusInEventEP11QFocusEvent
libQt6Widgets.so.6:_ZN7QWidget12insertActionEP7QActionS1_
libQt6Widgets.so.6:_ZN7QWidget12setAttributeEN2Qt15WidgetAttributeEb
libQt6Widgets.so.6:_ZN7QWidget12setWhatsThisERK7QString
libQt6Widgets.so.6:_ZN7QWidget13dragMoveEventEP14QDragMoveEvent
libQt6Widgets.so.6:_ZN7QWidget13focusOutEventEP11QFocusEvent
libQt6Widgets.so.6:_ZN7QWidget13setWindowIconERK5QIcon
libQt6Widgets.so.6:_ZN7QWidget14activateWindowEv
libQt6Widgets.so.6:_ZN7QWidget14dragEnterEventEP15QDragEnterEvent
libQt6Widgets.so.6:_ZN7QWidget14dragLeaveEventEP15QDragLeaveEvent
libQt6Widgets.so.6:_ZN7QWidget14mouseMoveEventEP11QMouseEvent
libQt6Widgets.so.6:_ZN7QWidget14setWindowTitleERK7QString
libQt6Widgets.so.6:_ZN7QWidget15keyReleaseEventEP9QKeyEvent
libQt6Widgets.so.6:_ZN7QWidget15mousePressEventEP11QMouseEvent
libQt6Widgets.so.6:_ZN7QWidget16inputMethodEventEP17QInputMethodEvent
libQt6Widgets.so.6:_ZN7QWidget16staticMetaObjectE
libQt6Widgets.so.6:_ZN7QWidget17mouseReleaseEventEP11QMouseEvent
libQt6Widgets.so.6:_ZN7QWidget17setUpdatesEnabledEb
libQt6Widgets.so.6:_ZN7QWidget18focusNextPrevChildEb
libQt6Widgets.so.6:_ZN7QWidget21mouseDoubleClickEventEP11QMouseEvent
libQt6Widgets.so.6:_ZN7QWidget4hideEv
libQt6Widgets.so.6:_ZN7QWidget4showEv
libQt6Widgets.so.6:_ZN7QWidget5closeEv
libQt6Widgets.so.6:_ZN7QWidget5eventEP6QEvent
libQt6Widgets.so.6:_ZN7QWidget6updateEv
libQt6Widgets.so.6:_ZN7QWidget8setFocusEN2Qt11FocusReasonE
libQt6Widgets.so.6:_ZN7QWidget9addActionEP7QAction
libQt6Widgets.so.6:_ZN7QWidget9addActionERK5QIconRK7QString
libQt6Widgets.so.6:_ZN7QWidget9addActionERK7QString
libQt6Widgets.so.6:_ZN7QWidget9dropEventEP10QDropEvent
libQt6Widgets.so.6:_ZN7QWidget9hideEventEP10QHideEvent
libQt6Widgets.so.6:_ZN7QWidget9moveEventEP10QMoveEvent
libQt6Widgets.so.6:_ZN7QWidget9setCursorERK7QCursor
libQt6Widgets.so.6:_ZN7QWidgetC1EPS_6QFlagsIN2Qt10WindowTypeEE
libQt6Widgets.so.6:_ZN8QSpinBox11qt_metacallEN11QMetaObject4CallEiPPv
libQt6Widgets.so.6:_ZN8QSpinBox11qt_metacastEPKc
libQt6Widgets.so.6:_ZN8QSpinBox12valueChangedEi
libQt6Widgets.so.6:_ZN8QSpinBox16staticMetaObjectE
libQt6Widgets.so.6:_ZN8QSpinBox5eventEP6QEvent
libQt6Widgets.so.6:_ZN8QSpinBox9setSuffixERK7QString
libQt6Widgets.so.6:_ZN8QSpinBoxC2EP7QWidget
libQt6Widgets.so.6:_ZN8QSpinBoxD2Ev
libQt6Widgets.so.6:_ZN9QCheckBoxC1ERK7QStringP7QWidget
libQt6Widgets.so.6:_ZN9QComboBox11setMaxCountEi
libQt6Widgets.so.6:_ZN9QComboBox15editTextChangedERK7QString
libQt6Widgets.so.6:_ZN9QComboBox16staticMetaObjectE
libQt6Widgets.so.6:_ZN9QComboBox20setDuplicatesEnabledEb
libQt6Widgets.so.6:_ZN9QGroupBoxC1ERK7QStringP7QWidget
libQt6Widgets.so.6:_ZN9QLineEdit11textChangedERK7QString
libQt6Widgets.so.6:_ZN9QLineEdit16staticMetaObjectE
libQt6Widgets.so.6:_ZN9QLineEdit17setCursorPositionEi
libQt6Widgets.so.6:_ZN9QLineEdit21setClearButtonEnabledEb
libQt6Widgets.so.6:_ZN9QLineEdit6insertERK7QString
libQt6Widgets.so.6:_ZN9QLineEdit7setTextERK7QString
libQt6Widgets.so.6:_ZN9QLineEdit9selectAllEv
libQt6Widgets.so.6:_ZN9QLineEditC1EP7QWidget
libQt6Widgets.so.6:_ZN9QTextEdit10paintEventEP11QPaintEvent
libQt6Widgets.so.6:_ZN9QTextEdit10timerEventEP11QTimerEvent
libQt6Widgets.so.6:_ZN9QTextEdit10wheelEventEP11QWheelEvent
libQt6Widgets.so.6:_ZN9QTextEdit11changeEventEP6QEvent
libQt6Widgets.so.6:_ZN9QTextEdit11qt_metacallEN11QMetaObject4CallEiPPv
libQt6Widgets.so.6:_ZN9QTextEdit11qt_metacastEPKc
libQt6Widgets.so.6:_ZN9QTextEdit11resizeEventEP12QResizeEvent
libQt6Widgets.so.6:_ZN9QTextEdit11setReadOnlyEb
libQt6Widgets.so.6:_ZN9QTextEdit12focusInEventEP11QFocusEvent
libQt6Widgets.so.6:_ZN9QTextEdit12loadResourceEiRK4QUrl
libQt6Widgets.so.6:_ZN9QTextEdit12setAlignmentE6QFlagsIN2Qt13AlignmentFlagEE
libQt6Widgets.so.6:_ZN9QTextEdit12setPlainTextERK7QString
libQt6Widgets.so.6:_ZN9QTextEdit13dragMoveEventEP14QDragMoveEvent
libQt6Widgets.so.6:_ZN9QTextEdit13focusOutEventEP11QFocusEvent
libQt6Widgets.so.6:_ZN9QTextEdit13keyPressEventEP9QKeyEvent
libQt6Widgets.so.6:_ZN9QTextEdit13setTextCursorERK11QTextCursor
libQt6Widgets.so.6:_ZN9QTextEdit14dragEnterEventEP15QDragEnterEvent
libQt6Widgets.so.6:_ZN9QTextEdit14dragLeaveEventEP15QDragLeaveEvent
libQt6Widgets.so.6:_ZN9QTextEdit14mouseMoveEventEP11QMouseEvent
libQt6Widgets.so.6:_ZN9QTextEdit15doSetTextCursorERK11QTextCursor
libQt6Widgets.so.6:_ZN9QTextEdit15insertPlainTextERK7QString
libQt6Widgets.so.6:_ZN9QTextEdit15keyReleaseEventEP9QKeyEvent
libQt6Widgets.so.6:_ZN9QTextEdit15mousePressEventEP11QMouseEvent
libQt6Widgets.so.6:_ZN9QTextEdit16inputMethodEventEP17QInputMethodEvent
libQt6Widgets.so.6:_ZN9QTextEdit16scrollContentsByEii
libQt6Widgets.so.6:_ZN9QTextEdit16staticMetaObjectE
libQt6Widgets.so.6:_ZN9QTextEdit17mouseReleaseEventEP11QMouseEvent
libQt6Widgets.so.6:_ZN9QTextEdit17setAcceptRichTextEb
libQt6Widgets.so.6:_ZN9QTextEdit18focusNextPrevChildEb
libQt6Widgets.so.6:_ZN9QTextEdit18insertFromMimeDataEPK9QMimeData
libQt6Widgets.so.6:_ZN9QTextEdit18setTabChangesFocusEb
libQt6Widgets.so.6:_ZN9QTextEdit19ensureCursorVisibleEv
libQt6Widgets.so.6:_ZN9QTextEdit21cursorPositionChangedEv
libQt6Widgets.so.6:_ZN9QTextEdit21mouseDoubleClickEventEP11QMouseEvent
libQt6Widgets.so.6:_ZN9QTextEdit22mergeCurrentCharFormatERK15QTextCharFormat
libQt6Widgets.so.6:_ZN9QTextEdit24currentCharFormatChangedERK15QTextCharFormat
libQt6Widgets.so.6:_ZN9QTextEdit25createStandardContextMenuEv
libQt6Widgets.so.6:_ZN9QTextEdit3cutEv
libQt6Widgets.so.6:_ZN9QTextEdit4copyEv
libQt6Widgets.so.6:_ZN9QTextEdit4redoEv
libQt6Widgets.so.6:_ZN9QTextEdit4undoEv
libQt6Widgets.so.6:_ZN9QTextEdit5eventEP6QEvent
libQt6Widgets.so.6:_ZN9QTextEdit5pasteEv
libQt6Widgets.so.6:_ZN9QTextEdit7setHtmlERK7QString
libQt6Widgets.so.6:_ZN9QTextEdit9dropEventEP10QDropEvent
libQt6Widgets.so.6:_ZN9QTextEdit9showEventEP10QShowEvent
libQt6Widgets.so.6:_ZN9QTextEditC2EP7QWidget
libQt6Widgets.so.6:_ZN9QTextEditC2ERK7QStringP7QWidget
libQt6Widgets.so.6:_ZN9QTextEditD2Ev
libQt6Widgets.so.6:_ZNK15QAbstractButton9isCheckedEv
libQt6Widgets.so.6:_ZNK16QAbstractSpinBox11stepEnabledEv
libQt6Widgets.so.6:_ZNK16QAbstractSpinBox15initStyleOptionEP19QStyleOptionSpinBox
libQt6Widgets.so.6:_ZNK16QAbstractSpinBox15minimumSizeHintEv
libQt6Widgets.so.6:_ZNK16QAbstractSpinBox16inputMethodQueryEN2Qt16InputMethodQueryE
libQt6Widgets.so.6:_ZNK16QAbstractSpinBox8sizeHintEv
libQt6Widgets.so.6:_ZNK16QDialogButtonBox6buttonENS_14StandardButtonE
libQt6Widgets.so.6:_ZNK19QAbstractScrollArea15minimumSizeHintEv
libQt6Widgets.so.6:_ZNK19QAbstractScrollArea16viewportSizeHintEv
libQt6Widgets.so.6:_ZNK19QAbstractScrollArea17verticalScrollBarEv
libQt6Widgets.so.6:_ZNK19QAbstractScrollArea8sizeHintEv
libQt6Widgets.so.6:_ZNK19QAbstractScrollArea8viewportEv
libQt6Widgets.so.6:_ZNK6QFrame15initStyleOptionEP17QStyleOptionFrame
libQt6Widgets.so.6:_ZNK7QDialog15minimumSizeHintEv
libQt6Widgets.so.6:_ZNK7QDialog8sizeHintEv
libQt6Widgets.so.6:_ZNK7QWidget10redirectedEP6QPoint
libQt6Widgets.so.6:_ZNK7QWidget10windowIconEv
libQt6Widgets.so.6:_ZNK7QWidget11initPainterEP8QPainter
libQt6Widgets.so.6:_ZNK7QWidget11mapToGlobalERK6QPoint
libQt6Widgets.so.6:_ZNK7QWidget11paintEngineEv
libQt6Widgets.so.6:_ZNK7QWidget13sharedPainterEv
libQt6Widgets.so.6:_ZNK7QWidget14heightForWidthEi
libQt6Widgets.so.6:_ZNK7QWidget14windowModalityEv
libQt6Widgets.so.6:_ZNK7QWidget16inputMethodQueryEN2Qt16InputMethodQueryE
libQt6Widgets.so.6:_ZNK7QWidget17hasHeightForWidthEv
libQt6Widgets.so.6:_ZNK7QWidget20testAttribute_helperEN2Qt15WidgetAttributeE
libQt6Widgets.so.6:_ZNK7QWidget6metricEN12QPaintDevice17PaintDeviceMetricE
libQt6Widgets.so.6:_ZNK7QWidget7actionsEv
libQt6Widgets.so.6:_ZNK7QWidget7devTypeEv
libQt6Widgets.so.6:_ZNK7QWidget7paletteEv
libQt6Widgets.so.6:_ZNK7QWidget8hasFocusEv
libQt6Widgets.so.6:_ZNK8QSpinBox13textFromValueEi
libQt6Widgets.so.6:_ZNK8QSpinBox13valueFromTextERK7QString
libQt6Widgets.so.6:_ZNK8QSpinBox5fixupER7QString
libQt6Widgets.so.6:_ZNK8QSpinBox5valueEv
libQt6Widgets.so.6:_ZNK8QSpinBox8validateER7QStringRi
libQt6Widgets.so.6:_ZNK9QComboBox11currentTextEv
libQt6Widgets.so.6:_ZNK9QComboBox8lineEditEv
libQt6Widgets.so.6:_ZNK9QLineEdit14cursorPositionEv
libQt6Widgets.so.6:_ZNK9QLineEdit4textEv
libQt6Widgets.so.6:_ZNK9QTextEdit10cursorRectERK11QTextCursor
libQt6Widgets.so.6:_ZNK9QTextEdit10isReadOnlyEv
libQt6Widgets.so.6:_ZNK9QTextEdit10textCursorEv
libQt6Widgets.so.6:_ZNK9QTextEdit11toPlainTextEv
libQt6Widgets.so.6:_ZNK9QTextEdit15tabChangesFocusEv
libQt6Widgets.so.6:_ZNK9QTextEdit16inputMethodQueryEN2Qt16InputMethodQueryE
libQt6Widgets.so.6:_ZNK9QTextEdit17currentCharFormatEv
libQt6Widgets.so.6:_ZNK9QTextEdit21canInsertFromMimeDataEPK9QMimeData
libQt6Widgets.so.6:_ZNK9QTextEdit27createMimeDataFromSelectionEv
libQt6Widgets.so.6:_ZNK9QTextEdit6toHtmlEv
libQt6Widgets.so.6:_ZNK9QTextEdit8documentEv
libQt6Widgets.so.6:_ZNK9QTextEdit9alignmentEv
libQt6Widgets.so.6:_ZNK9QTextEdit9textColorEv
libQt6Widgets.so.6:_ZTI7QDialog
libQt6Widgets.so.6:_ZTI8QSpinBox
libQt6Widgets.so.6:_ZTI9QTextEdit
libQt6Widgets.so.6:_ZThn16_NK7QWidget10redirectedEP6QPoint
libQt6Widgets.so.6:_ZThn16_NK7QWidget11initPainterEP8QPainter
libQt6Widgets.so.6:_ZThn16_NK7QWidget11paintEngineEv
libQt6Widgets.so.6:_ZThn16_NK7QWidget13sharedPainterEv
libQt6Widgets.so.6:_ZThn16_NK7QWidget6metricEN12QPaintDevice17PaintDeviceMetricE
libQt6Widgets.so.6:_ZThn16_NK7QWidget7devTypeEv
libc.so.6:__cxa_atexit
libc.so.6:__stack_chk_fail
libc.so.6:free
libc.so.6:memcmp
libc.so.6:memcpy
libc.so.6:memmove
libc.so.6:strcmp
libc.so.6:strlen
libstdc++.so.6:_ZSt18_Rb_tree_incrementPKSt18_Rb_tree_node_base
libstdc++.so.6:_ZTVN10__cxxabiv117__class_type_infoE
libstdc++.so.6:_ZTVN10__cxxabiv120__si_class_type_infoE
libstdc++.so.6:_ZTVN10__cxxabiv121__vmi_class_type_infoE
libstdc++.so.6:_ZdaPv
libstdc++.so.6:_ZdlPv
libstdc++.so.6:_Znam
libstdc++.so.6:_Znwm
libstdc++.so.6:__cxa_guard_acquire
libstdc++.so.6:__cxa_guard_release
