libKPim5IncidenceEditor.so.5:_ZN17IncidenceEditorNG12EditorConfig15setEditorConfigEPS0_
libKPim5IncidenceEditor.so.5:_ZN17IncidenceEditorNG12EditorConfig8instanceEv
libKPim5IncidenceEditor.so.5:_ZN17IncidenceEditorNG12EditorConfig9templatesEN13KCalendarCore13IncidenceBase13IncidenceTypeE
libKPim5IncidenceEditor.so.5:_ZN17IncidenceEditorNG12EditorConfigC1Ev
libKPim5IncidenceEditor.so.5:_ZN17IncidenceEditorNG12EditorConfigC2Ev
libKPim5IncidenceEditor.so.5:_ZN17IncidenceEditorNG12EditorConfigD0Ev
libKPim5IncidenceEditor.so.5:_ZN17IncidenceEditorNG12EditorConfigD1Ev
libKPim5IncidenceEditor.so.5:_ZN17IncidenceEditorNG12EditorConfigD2Ev
libKPim5IncidenceEditor.so.5:_ZN17IncidenceEditorNG15IncidenceDialog10closeEventEP11QCloseEvent
libKPim5IncidenceEditor.so.5:_ZN17IncidenceEditorNG15IncidenceDialog10readConfigEv
libKPim5IncidenceEditor.so.5:_ZN17IncidenceEditorNG15IncidenceDialog11qt_metacallEN11QMetaObject4CallEiPPv
libKPim5IncidenceEditor.so.5:_ZN17IncidenceEditorNG15IncidenceDialog11qt_metacastEPKc
libKPim5IncidenceEditor.so.5:_ZN17IncidenceEditorNG15IncidenceDialog11writeConfigEv
libKPim5IncidenceEditor.so.5:_ZN17IncidenceEditorNG15IncidenceDialog16incidenceCreatedERKN7Akonadi4ItemE
libKPim5IncidenceEditor.so.5:_ZN17IncidenceEditorNG15IncidenceDialog16selectCollectionERKN7Akonadi10CollectionE
libKPim5IncidenceEditor.so.5:_ZN17IncidenceEditorNG15IncidenceDialog16staticMetaObjectE
libKPim5IncidenceEditor.so.5:_ZN17IncidenceEditorNG15IncidenceDialog17setInitiallyDirtyEb
libKPim5IncidenceEditor.so.5:_ZN17IncidenceEditorNG15IncidenceDialog17slotButtonClickedEP15QAbstractButton
libKPim5IncidenceEditor.so.5:_ZN17IncidenceEditorNG15IncidenceDialog20setIsCounterProposalEb
libKPim5IncidenceEditor.so.5:_ZN17IncidenceEditorNG15IncidenceDialog30handleSelectedCollectionChangeERKN7Akonadi10CollectionE
libKPim5IncidenceEditor.so.5:_ZN17IncidenceEditorNG15IncidenceDialog4loadERKN7Akonadi4ItemERK5QDate
libKPim5IncidenceEditor.so.5:_ZN17IncidenceEditorNG15IncidenceDialog6rejectEv
libKPim5IncidenceEditor.so.5:_ZN17IncidenceEditorNG15IncidenceDialogC1EPN7Akonadi16IncidenceChangerEP7QWidget6QFlagsIN2Qt10WindowTypeEE
libKPim5IncidenceEditor.so.5:_ZN17IncidenceEditorNG15IncidenceDialogC2EPN7Akonadi16IncidenceChangerEP7QWidget6QFlagsIN2Qt10WindowTypeEE
libKPim5IncidenceEditor.so.5:_ZN17IncidenceEditorNG15IncidenceDialogD0Ev
libKPim5IncidenceEditor.so.5:_ZN17IncidenceEditorNG15IncidenceDialogD1Ev
libKPim5IncidenceEditor.so.5:_ZN17IncidenceEditorNG15IncidenceDialogD2Ev
libKPim5IncidenceEditor.so.5:_ZN17IncidenceEditorNG15IncidenceEditor11qt_metacallEN11QMetaObject4CallEiPPv
libKPim5IncidenceEditor.so.5:_ZN17IncidenceEditorNG15IncidenceEditor11qt_metacastEPKc
libKPim5IncidenceEditor.so.5:_ZN17IncidenceEditorNG15IncidenceEditor16checkDirtyStatusEv
libKPim5IncidenceEditor.so.5:_ZN17IncidenceEditorNG15IncidenceEditor16staticMetaObjectE
libKPim5IncidenceEditor.so.5:_ZN17IncidenceEditorNG15IncidenceEditor17focusInvalidFieldEv
libKPim5IncidenceEditor.so.5:_ZN17IncidenceEditorNG15IncidenceEditor18dirtyStatusChangedEb
libKPim5IncidenceEditor.so.5:_ZN17IncidenceEditorNG15IncidenceEditor4loadERKN7Akonadi4ItemE
libKPim5IncidenceEditor.so.5:_ZN17IncidenceEditorNG15IncidenceEditor4saveERN7Akonadi4ItemE
libKPim5IncidenceEditor.so.5:_ZN17IncidenceEditorNG15IncidenceEditorC1EP7QObject
libKPim5IncidenceEditor.so.5:_ZN17IncidenceEditorNG15IncidenceEditorC2EP7QObject
libKPim5IncidenceEditor.so.5:_ZN17IncidenceEditorNG15IncidenceEditorD0Ev
libKPim5IncidenceEditor.so.5:_ZN17IncidenceEditorNG15IncidenceEditorD1Ev
libKPim5IncidenceEditor.so.5:_ZN17IncidenceEditorNG15IncidenceEditorD2Ev
libKPim5IncidenceEditor.so.5:_ZN17IncidenceEditorNG16ConflictResolver11qt_metacallEN11QMetaObject4CallEiPPv
libKPim5IncidenceEditor.so.5:_ZN17IncidenceEditorNG16ConflictResolver11qt_metacastEPKc
libKPim5IncidenceEditor.so.5:_ZN17IncidenceEditorNG16ConflictResolver12findFreeSlotERKN13KCalendarCore6PeriodE
libKPim5IncidenceEditor.so.5:_ZN17IncidenceEditorNG16ConflictResolver13setLatestDateE5QDate
libKPim5IncidenceEditor.so.5:_ZN17IncidenceEditorNG16ConflictResolver13setLatestTimeE5QTime
libKPim5IncidenceEditor.so.5:_ZN17IncidenceEditorNG16ConflictResolver13setResolutionEi
libKPim5IncidenceEditor.so.5:_ZN17IncidenceEditorNG16ConflictResolver14clearAttendeesEv
libKPim5IncidenceEditor.so.5:_ZN17IncidenceEditorNG16ConflictResolver14insertAttendeeERK14QSharedPointerIN15CalendarSupport12FreeBusyItemEE
libKPim5IncidenceEditor.so.5:_ZN17IncidenceEditorNG16ConflictResolver14insertAttendeeERKN13KCalendarCore8AttendeeE
libKPim5IncidenceEditor.so.5:_ZN17IncidenceEditorNG16ConflictResolver14removeAttendeeERKN13KCalendarCore8AttendeeE
libKPim5IncidenceEditor.so.5:_ZN17IncidenceEditorNG16ConflictResolver15setEarliestDateE5QDate
libKPim5IncidenceEditor.so.5:_ZN17IncidenceEditorNG16ConflictResolver15setEarliestTimeE5QTime
libKPim5IncidenceEditor.so.5:_ZN17IncidenceEditorNG16ConflictResolver16containsAttendeeERKN13KCalendarCore8AttendeeE
libKPim5IncidenceEditor.so.5:_ZN17IncidenceEditorNG16ConflictResolver16dateTimesChangedERK9QDateTimeS3_
libKPim5IncidenceEditor.so.5:_ZN17IncidenceEditorNG16ConflictResolver16findAllFreeSlotsEv
libKPim5IncidenceEditor.so.5:_ZN17IncidenceEditorNG16ConflictResolver16staticMetaObjectE
libKPim5IncidenceEditor.so.5:_ZN17IncidenceEditorNG16ConflictResolver17conflictsDetectedEi
libKPim5IncidenceEditor.so.5:_ZN17IncidenceEditorNG16ConflictResolver17setLatestDateTimeERK9QDateTime
libKPim5IncidenceEditor.so.5:_ZN17IncidenceEditorNG16ConflictResolver17setMandatoryRolesERK4QSetIN13KCalendarCore8Attendee4RoleEE
libKPim5IncidenceEditor.so.5:_ZN17IncidenceEditorNG16ConflictResolver18calculateConflictsEv
libKPim5IncidenceEditor.so.5:_ZN17IncidenceEditorNG16ConflictResolver18freeSlotsAvailableERK7QVectorIN13KCalendarCore6PeriodEE
libKPim5IncidenceEditor.so.5:_ZN17IncidenceEditorNG16ConflictResolver18setAllowedWeekdaysERK9QBitArray
libKPim5IncidenceEditor.so.5:_ZN17IncidenceEditorNG16ConflictResolver19freebusyDataChangedEv
libKPim5IncidenceEditor.so.5:_ZN17IncidenceEditorNG16ConflictResolver19setEarliestDateTimeERK9QDateTime
libKPim5IncidenceEditor.so.5:_ZN17IncidenceEditorNG16ConflictResolver21matchesRoleConstraintERKN13KCalendarCore8AttendeeE
libKPim5IncidenceEditor.so.5:_ZN17IncidenceEditorNG16ConflictResolver7tryDateER9QDateTimeS2_
libKPim5IncidenceEditor.so.5:_ZN17IncidenceEditorNG16ConflictResolver7tryDateERK14QSharedPointerIN13KCalendarCore8FreeBusyEER9QDateTimeS8_
libKPim5IncidenceEditor.so.5:_ZN17IncidenceEditorNG16ConflictResolverC1EP7QWidgetP7QObject
libKPim5IncidenceEditor.so.5:_ZN17IncidenceEditorNG16ConflictResolverC2EP7QWidgetP7QObject
libKPim5IncidenceEditor.so.5:_ZN17IncidenceEditorNG17IncidenceDefaults12setAttendeesERK11QStringList
libKPim5IncidenceEditor.so.5:_ZN17IncidenceEditorNG17IncidenceDefaults13setFullEmailsERK11QStringList
libKPim5IncidenceEditor.so.5:_ZN17IncidenceEditorNG17IncidenceDefaults14setAttachmentsERK11QStringListS3_S3_b
libKPim5IncidenceEditor.so.5:_ZN17IncidenceEditorNG17IncidenceDefaults14setEndDateTimeERK9QDateTime
libKPim5IncidenceEditor.so.5:_ZN17IncidenceEditorNG17IncidenceDefaults16setStartDateTimeERK9QDateTime
libKPim5IncidenceEditor.so.5:_ZN17IncidenceEditorNG17IncidenceDefaults18setGroupWareDomainERK7QString
libKPim5IncidenceEditor.so.5:_ZN17IncidenceEditorNG17IncidenceDefaults19invalidEmailAddressEv
libKPim5IncidenceEditor.so.5:_ZN17IncidenceEditorNG17IncidenceDefaults19setRelatedIncidenceERK14QSharedPointerIN13KCalendarCore9IncidenceEE
libKPim5IncidenceEditor.so.5:_ZN17IncidenceEditorNG17IncidenceDefaults24minimalIncidenceDefaultsEb
libKPim5IncidenceEditor.so.5:_ZN17IncidenceEditorNG17IncidenceDefaultsC1ERKS0_
libKPim5IncidenceEditor.so.5:_ZN17IncidenceEditorNG17IncidenceDefaultsC1Eb
libKPim5IncidenceEditor.so.5:_ZN17IncidenceEditorNG17IncidenceDefaultsC2ERKS0_
libKPim5IncidenceEditor.so.5:_ZN17IncidenceEditorNG17IncidenceDefaultsC2Eb
libKPim5IncidenceEditor.so.5:_ZN17IncidenceEditorNG17IncidenceDefaultsD1Ev
libKPim5IncidenceEditor.so.5:_ZN17IncidenceEditorNG17IncidenceDefaultsD2Ev
libKPim5IncidenceEditor.so.5:_ZN17IncidenceEditorNG17IncidenceDefaultsaSERKS0_
libKPim5IncidenceEditor.so.5:_ZN17IncidenceEditorNG17KTimeZoneComboBox11qt_metacallEN11QMetaObject4CallEiPPv
libKPim5IncidenceEditor.so.5:_ZN17IncidenceEditorNG17KTimeZoneComboBox11qt_metacastEPKc
libKPim5IncidenceEditor.so.5:_ZN17IncidenceEditorNG17KTimeZoneComboBox11setFloatingEbRK9QTimeZone
libKPim5IncidenceEditor.so.5:_ZN17IncidenceEditorNG17KTimeZoneComboBox14selectTimeZoneERK9QTimeZone
libKPim5IncidenceEditor.so.5:_ZN17IncidenceEditorNG17KTimeZoneComboBox16staticMetaObjectE
libKPim5IncidenceEditor.so.5:_ZN17IncidenceEditorNG17KTimeZoneComboBox17selectTimeZoneForERK9QDateTime
libKPim5IncidenceEditor.so.5:_ZN17IncidenceEditorNG17KTimeZoneComboBox19selectLocalTimeZoneEv
libKPim5IncidenceEditor.so.5:_ZN17IncidenceEditorNG17KTimeZoneComboBoxC1EP7QWidget
libKPim5IncidenceEditor.so.5:_ZN17IncidenceEditorNG17KTimeZoneComboBoxC2EP7QWidget
libKPim5IncidenceEditor.so.5:_ZN17IncidenceEditorNG17KTimeZoneComboBoxD0Ev
libKPim5IncidenceEditor.so.5:_ZN17IncidenceEditorNG17KTimeZoneComboBoxD1Ev
libKPim5IncidenceEditor.so.5:_ZN17IncidenceEditorNG17KTimeZoneComboBoxD2Ev
libKPim5IncidenceEditor.so.5:_ZN17IncidenceEditorNG18ResourceManagement10readConfigEv
libKPim5IncidenceEditor.so.5:_ZN17IncidenceEditorNG18ResourceManagement11qt_metacallEN11QMetaObject4CallEiPPv
libKPim5IncidenceEditor.so.5:_ZN17IncidenceEditorNG18ResourceManagement11qt_metacastEPKc
libKPim5IncidenceEditor.so.5:_ZN17IncidenceEditorNG18ResourceManagement11showDetailsERKN5KLDAP10LdapObjectERKNS1_10LdapClientE
libKPim5IncidenceEditor.so.5:_ZN17IncidenceEditorNG18ResourceManagement11writeConfigEv
libKPim5IncidenceEditor.so.5:_ZN17IncidenceEditorNG18ResourceManagement15slotDateChangedERK5QDateS3_
libKPim5IncidenceEditor.so.5:_ZN17IncidenceEditorNG18ResourceManagement15slotShowDetailsERK11QModelIndex
libKPim5IncidenceEditor.so.5:_ZN17IncidenceEditorNG18ResourceManagement15slotStartSearchERK7QString
libKPim5IncidenceEditor.so.5:_ZN17IncidenceEditorNG18ResourceManagement16staticMetaObjectE
libKPim5IncidenceEditor.so.5:_ZN17IncidenceEditorNG18ResourceManagement17slotLayoutChangedEv
libKPim5IncidenceEditor.so.5:_ZN17IncidenceEditorNG18ResourceManagement23slotOwnerSearchFinishedEv
libKPim5IncidenceEditor.so.5:_ZN17IncidenceEditorNG18ResourceManagementC1EP7QWidget
libKPim5IncidenceEditor.so.5:_ZN17IncidenceEditorNG18ResourceManagementC2EP7QWidget
libKPim5IncidenceEditor.so.5:_ZN17IncidenceEditorNG18ResourceManagementD0Ev
libKPim5IncidenceEditor.so.5:_ZN17IncidenceEditorNG18ResourceManagementD1Ev
libKPim5IncidenceEditor.so.5:_ZN17IncidenceEditorNG18ResourceManagementD2Ev
libKPim5IncidenceEditor.so.5:_ZN17IncidenceEditorNG19GroupwareUiDelegate11setCalendarERK14QSharedPointerIN7Akonadi11ETMCalendarEE
libKPim5IncidenceEditor.so.5:_ZN17IncidenceEditorNG19GroupwareUiDelegate14createCalendarEv
libKPim5IncidenceEditor.so.5:_ZN17IncidenceEditorNG19GroupwareUiDelegate22requestIncidenceEditorERKN7Akonadi4ItemE
libKPim5IncidenceEditor.so.5:_ZN17IncidenceEditorNG22IncidenceDialogFactory16createTodoEditorERK7QStringS3_RK11QStringListS6_S6_S6_bRKN7Akonadi10CollectionEbP7QWidget6QFlagsIN2Qt10WindowTypeEE
libKPim5IncidenceEditor.so.5:_ZN17IncidenceEditorNG22IncidenceDialogFactory17createEventEditorERK7QStringS3_RK11QStringListS6_S6_S6_bRKN7Akonadi10CollectionEbP7QWidget6QFlagsIN2Qt10WindowTypeEE
libKPim5IncidenceEditor.so.5:_ZN17IncidenceEditorNG22IncidenceDialogFactory6createEbN13KCalendarCore13IncidenceBase13IncidenceTypeEPN7Akonadi16IncidenceChangerEP7QWidget6QFlagsIN2Qt10WindowTypeEE
libKPim5IncidenceEditor.so.5:_ZN17IncidenceEditorNG22KOrganizerEditorConfig9templatesEN13KCalendarCore13IncidenceBase13IncidenceTypeE
libKPim5IncidenceEditor.so.5:_ZN17IncidenceEditorNG22KOrganizerEditorConfigC1Ev
libKPim5IncidenceEditor.so.5:_ZN17IncidenceEditorNG22KOrganizerEditorConfigC2Ev
libKPim5IncidenceEditor.so.5:_ZN17IncidenceEditorNG22KOrganizerEditorConfigD0Ev
libKPim5IncidenceEditor.so.5:_ZN17IncidenceEditorNG22KOrganizerEditorConfigD1Ev
libKPim5IncidenceEditor.so.5:_ZN17IncidenceEditorNG22KOrganizerEditorConfigD2Ev
libKPim5IncidenceEditor.so.5:_ZN17IncidenceEditorNG23FreeBusyGanttProxyModel11qt_metacallEN11QMetaObject4CallEiPPv
libKPim5IncidenceEditor.so.5:_ZN17IncidenceEditorNG23FreeBusyGanttProxyModel11qt_metacastEPKc
libKPim5IncidenceEditor.so.5:_ZN17IncidenceEditorNG23FreeBusyGanttProxyModel16staticMetaObjectE
libKPim5IncidenceEditor.so.5:_ZN17IncidenceEditorNG23FreeBusyGanttProxyModelC1EP7QObject
libKPim5IncidenceEditor.so.5:_ZN17IncidenceEditorNG23FreeBusyGanttProxyModelC2EP7QObject
libKPim5IncidenceEditor.so.5:_ZN17IncidenceEditorNG23IncidenceEditorSettings11qt_metacallEN11QMetaObject4CallEiPPv
libKPim5IncidenceEditor.so.5:_ZN17IncidenceEditorNG23IncidenceEditorSettings11qt_metacastEPKc
libKPim5IncidenceEditor.so.5:_ZN17IncidenceEditorNG23IncidenceEditorSettings16staticMetaObjectE
libKPim5IncidenceEditor.so.5:_ZN17IncidenceEditorNG23IncidenceEditorSettings4selfEv
libKPim5IncidenceEditor.so.5:_ZN17IncidenceEditorNG23IncidenceEditorSettings5mSelfE
libKPim5IncidenceEditor.so.5:_ZN17IncidenceEditorNG23IncidenceEditorSettingsC1Ev
libKPim5IncidenceEditor.so.5:_ZN17IncidenceEditorNG23IncidenceEditorSettingsC2Ev
libKPim5IncidenceEditor.so.5:_ZN17IncidenceEditorNG23IncidenceEditorSettingsD0Ev
libKPim5IncidenceEditor.so.5:_ZN17IncidenceEditorNG23IncidenceEditorSettingsD1Ev
libKPim5IncidenceEditor.so.5:_ZN17IncidenceEditorNG23IncidenceEditorSettingsD2Ev
libKPim5IncidenceEditor.so.5:_ZN17IncidenceEditorNG30IndividualMailComponentFactory11onSetUpdateERK14QSharedPointerIN13KCalendarCore9IncidenceEERK7QVectorINS2_8AttendeeEE
libKPim5IncidenceEditor.so.5:_ZN17IncidenceEditorNG30IndividualMailComponentFactory11qt_metacallEN11QMetaObject4CallEiPPv
libKPim5IncidenceEditor.so.5:_ZN17IncidenceEditorNG30IndividualMailComponentFactory11qt_metacastEPKc
libKPim5IncidenceEditor.so.5:_ZN17IncidenceEditorNG30IndividualMailComponentFactory16staticMetaObjectE
libKPim5IncidenceEditor.so.5:_ZN17IncidenceEditorNG30IndividualMailComponentFactory21createMessageQueueJobERK14QSharedPointerIN13KCalendarCore13IncidenceBaseEERKN19KIdentityManagement8IdentityEP7QObject
libKPim5IncidenceEditor.so.5:_ZN17IncidenceEditorNG30IndividualMailComponentFactory30createITIPHanderDialogDelegateERK14QSharedPointerIN13KCalendarCore9IncidenceEENS2_10iTIPMethodEP7QWidget
libKPim5IncidenceEditor.so.5:_ZN17IncidenceEditorNG30IndividualMailComponentFactory9onSetEditERK14QSharedPointerIN13KCalendarCore9IncidenceEERK7QVectorINS2_8AttendeeEE
libKPim5IncidenceEditor.so.5:_ZN17IncidenceEditorNG30IndividualMailComponentFactoryC1EP7QObject
libKPim5IncidenceEditor.so.5:_ZN17IncidenceEditorNG30IndividualMailComponentFactoryC2EP7QObject
libKPim5IncidenceEditor.so.5:_ZNK17IncidenceEditorNG12EditorConfig10fullEmailsEv
libKPim5IncidenceEditor.so.5:_ZNK17IncidenceEditorNG12EditorConfig37showTimeZoneSelectorInIncidenceEditorEv
libKPim5IncidenceEditor.so.5:_ZNK17IncidenceEditorNG12EditorConfig5emailEv
libKPim5IncidenceEditor.so.5:_ZNK17IncidenceEditorNG12EditorConfig8fullNameEv
libKPim5IncidenceEditor.so.5:_ZNK17IncidenceEditorNG12EditorConfig8thatIsMeERK7QString
libKPim5IncidenceEditor.so.5:_ZNK17IncidenceEditorNG12EditorConfig9allEmailsEv
libKPim5IncidenceEditor.so.5:_ZNK17IncidenceEditorNG15IncidenceDialog10metaObjectEv
libKPim5IncidenceEditor.so.5:_ZNK17IncidenceEditorNG15IncidenceDialog17invalidCollectionEv
libKPim5IncidenceEditor.so.5:_ZNK17IncidenceEditorNG15IncidenceDialog17typeAheadReceiverEv
libKPim5IncidenceEditor.so.5:_ZNK17IncidenceEditorNG15IncidenceDialog4itemEv
libKPim5IncidenceEditor.so.5:_ZNK17IncidenceEditorNG15IncidenceEditor10metaObjectEv
libKPim5IncidenceEditor.so.5:_ZNK17IncidenceEditorNG15IncidenceEditor14printDebugInfoEv
libKPim5IncidenceEditor.so.5:_ZNK17IncidenceEditorNG15IncidenceEditor15lastErrorStringEv
libKPim5IncidenceEditor.so.5:_ZNK17IncidenceEditorNG15IncidenceEditor4typeEv
libKPim5IncidenceEditor.so.5:_ZNK17IncidenceEditorNG15IncidenceEditor7isValidEv
libKPim5IncidenceEditor.so.5:_ZNK17IncidenceEditorNG16ConflictResolver10metaObjectEv
libKPim5IncidenceEditor.so.5:_ZNK17IncidenceEditorNG16ConflictResolver14availableSlotsEv
libKPim5IncidenceEditor.so.5:_ZNK17IncidenceEditorNG16ConflictResolver5modelEv
libKPim5IncidenceEditor.so.5:_ZNK17IncidenceEditorNG17IncidenceDefaults11setDefaultsERK14QSharedPointerIN13KCalendarCore9IncidenceEE
libKPim5IncidenceEditor.so.5:_ZNK17IncidenceEditorNG17KTimeZoneComboBox10isFloatingEv
libKPim5IncidenceEditor.so.5:_ZNK17IncidenceEditorNG17KTimeZoneComboBox10metaObjectEv
libKPim5IncidenceEditor.so.5:_ZNK17IncidenceEditorNG17KTimeZoneComboBox15applyTimeZoneToER9QDateTime
libKPim5IncidenceEditor.so.5:_ZNK17IncidenceEditorNG17KTimeZoneComboBox16selectedTimeZoneEv
libKPim5IncidenceEditor.so.5:_ZNK17IncidenceEditorNG18ResourceManagement10metaObjectEv
libKPim5IncidenceEditor.so.5:_ZNK17IncidenceEditorNG18ResourceManagement12selectedItemEv
libKPim5IncidenceEditor.so.5:_ZNK17IncidenceEditorNG22KOrganizerEditorConfig10fullEmailsEv
libKPim5IncidenceEditor.so.5:_ZNK17IncidenceEditorNG22KOrganizerEditorConfig12reminderTimeEv
libKPim5IncidenceEditor.so.5:_ZNK17IncidenceEditorNG22KOrganizerEditorConfig13audioFilePathEv
libKPim5IncidenceEditor.so.5:_ZNK17IncidenceEditorNG22KOrganizerEditorConfig15defaultDurationEv
libKPim5IncidenceEditor.so.5:_ZNK17IncidenceEditorNG22KOrganizerEditorConfig17reminderTimeUnitsEv
libKPim5IncidenceEditor.so.5:_ZNK17IncidenceEditorNG22KOrganizerEditorConfig20activeDesignerFieldsEv
libKPim5IncidenceEditor.so.5:_ZNK17IncidenceEditorNG22KOrganizerEditorConfig20defaultTodoRemindersEv
libKPim5IncidenceEditor.so.5:_ZNK17IncidenceEditorNG22KOrganizerEditorConfig21defaultEventRemindersEv
libKPim5IncidenceEditor.so.5:_ZNK17IncidenceEditorNG22KOrganizerEditorConfig25defaultAudioFileRemindersEv
libKPim5IncidenceEditor.so.5:_ZNK17IncidenceEditorNG22KOrganizerEditorConfig37showTimeZoneSelectorInIncidenceEditorEv
libKPim5IncidenceEditor.so.5:_ZNK17IncidenceEditorNG22KOrganizerEditorConfig5emailEv
libKPim5IncidenceEditor.so.5:_ZNK17IncidenceEditorNG22KOrganizerEditorConfig6configEv
libKPim5IncidenceEditor.so.5:_ZNK17IncidenceEditorNG22KOrganizerEditorConfig8fullNameEv
libKPim5IncidenceEditor.so.5:_ZNK17IncidenceEditorNG22KOrganizerEditorConfig8thatIsMeERK7QString
libKPim5IncidenceEditor.so.5:_ZNK17IncidenceEditorNG22KOrganizerEditorConfig9allEmailsEv
libKPim5IncidenceEditor.so.5:_ZNK17IncidenceEditorNG22KOrganizerEditorConfig9startTimeEv
libKPim5IncidenceEditor.so.5:_ZNK17IncidenceEditorNG23FreeBusyGanttProxyModel10metaObjectEv
libKPim5IncidenceEditor.so.5:_ZNK17IncidenceEditorNG23FreeBusyGanttProxyModel10tooltipifyERKN13KCalendarCore14FreeBusyPeriodE
libKPim5IncidenceEditor.so.5:_ZNK17IncidenceEditorNG23FreeBusyGanttProxyModel4dataERK11QModelIndexi
libKPim5IncidenceEditor.so.5:_ZNK17IncidenceEditorNG23IncidenceEditorSettings10metaObjectEv
libKPim5IncidenceEditor.so.5:_ZNK17IncidenceEditorNG30IndividualMailComponentFactory10metaObjectEv
libKPim5IncidenceEditor.so.5:_ZThn16_N17IncidenceEditorNG15IncidenceDialogD0Ev
libKPim5IncidenceEditor.so.5:_ZThn16_N17IncidenceEditorNG15IncidenceDialogD1Ev
libKPim5IncidenceEditor.so.5:_ZThn16_N17IncidenceEditorNG17KTimeZoneComboBoxD0Ev
libKPim5IncidenceEditor.so.5:_ZThn16_N17IncidenceEditorNG17KTimeZoneComboBoxD1Ev
libKPim5IncidenceEditor.so.5:_ZThn16_N17IncidenceEditorNG18ResourceManagementD0Ev
libKPim5IncidenceEditor.so.5:_ZThn16_N17IncidenceEditorNG18ResourceManagementD1Ev
libKPim5IncidenceEditor.so.5:__bss_start
libKPim5IncidenceEditor.so.5:_edata
libKPim5IncidenceEditor.so.5:_end
