arkpart.so:_ZZZN11ArkSettings24isShowInfoPanelImmutableEvENKUlvE_clEvE15qstring_literal
arkpart.so:_ZZZN11ArkSettings24isSplitterSizesImmutableEvENKUlvE_clEvE15qstring_literal
arkpart.so:qt_plugin_instance
arkpart.so:qt_plugin_query_metadata
compressfileitemaction.so:qt_plugin_instance
compressfileitemaction.so:qt_plugin_query_metadata
extractfileitemaction.so:qt_plugin_instance
extractfileitemaction.so:qt_plugin_query_metadata
extracthere.so:qt_plugin_instance
extracthere.so:qt_plugin_query_metadata
kerfuffle_cli7z.so:qt_plugin_instance
kerfuffle_cli7z.so:qt_plugin_query_metadata
kerfuffle_clirar.so:qt_plugin_instance
kerfuffle_clirar.so:qt_plugin_query_metadata
kerfuffle_cliunarchiver.so:_ZTSN9Kerfuffle5QueryE
kerfuffle_cliunarchiver.so:qt_plugin_instance
kerfuffle_cliunarchiver.so:qt_plugin_query_metadata
kerfuffle_clizip.so:_ZN9CliPlugin11qt_metacallEN11QMetaObject4CallEiPPv
kerfuffle_clizip.so:_ZN9CliPlugin11qt_metacastEPKc
kerfuffle_clizip.so:_ZN9CliPlugin12finishMovingEb
kerfuffle_clizip.so:_ZN9CliPlugin12readListLineERK7QString
kerfuffle_clizip.so:_ZN9CliPlugin12resetParsingEv
kerfuffle_clizip.so:_ZN9CliPlugin13isDiskFullMsgERK7QString
kerfuffle_clizip.so:_ZN9CliPlugin14continueMovingEb
kerfuffle_clizip.so:_ZN9CliPlugin15isFileExistsMsgERK7QString
kerfuffle_clizip.so:_ZN9CliPlugin15readExtractLineERK7QString
kerfuffle_clizip.so:_ZN9CliPlugin16isPasswordPromptERK7QString
kerfuffle_clizip.so:_ZN9CliPlugin16staticMetaObjectE
kerfuffle_clizip.so:_ZN9CliPlugin18isWrongPasswordMsgERK7QString
kerfuffle_clizip.so:_ZN9CliPlugin18setupCliPropertiesEv
kerfuffle_clizip.so:_ZN9CliPlugin19isCorruptArchiveMsgERK7QString
kerfuffle_clizip.so:_ZN9CliPlugin19setMovingAddedFilesEv
kerfuffle_clizip.so:_ZN9CliPlugin20isFileExistsFileNameERK7QString
kerfuffle_clizip.so:_ZN9CliPlugin24convertCompressionMethodERK7QString
kerfuffle_clizip.so:_ZN9CliPlugin9moveFilesERK7QVectorIPN9Kerfuffle7Archive5EntryEES4_RKNS1_18CompressionOptionsE
kerfuffle_clizip.so:_ZN9CliPluginC1EP7QObjectRK5QListI8QVariantE
kerfuffle_clizip.so:_ZN9CliPluginC2EP7QObjectRK5QListI8QVariantE
kerfuffle_clizip.so:_ZN9CliPluginD0Ev
kerfuffle_clizip.so:_ZN9CliPluginD1Ev
kerfuffle_clizip.so:_ZN9CliPluginD2Ev
kerfuffle_clizip.so:_ZNK9CliPlugin10metaObjectEv
kerfuffle_clizip.so:_ZNK9CliPlugin14escapeFileNameERK7QString
kerfuffle_clizip.so:_ZNK9CliPlugin19moveRequiredSignalsEv
kerfuffle_clizip.so:_ZTI9CliPlugin
kerfuffle_clizip.so:_ZTS9CliPlugin
kerfuffle_clizip.so:_ZTV9CliPlugin
kerfuffle_clizip.so:qt_plugin_instance
kerfuffle_clizip.so:qt_plugin_query_metadata
kerfuffle_libarchive.so:_ZTSN9Kerfuffle5QueryE
kerfuffle_libarchive.so:qt_plugin_instance
kerfuffle_libarchive.so:qt_plugin_query_metadata
kerfuffle_libarchive_readonly.so:_ZTSN9Kerfuffle5QueryE
kerfuffle_libarchive_readonly.so:qt_plugin_instance
kerfuffle_libarchive_readonly.so:qt_plugin_query_metadata
kerfuffle_libbz2.so:_ZN17LibBzip2Interface11qt_metacallEN11QMetaObject4CallEiPPv
kerfuffle_libbz2.so:_ZN17LibBzip2Interface11qt_metacastEPKc
kerfuffle_libbz2.so:_ZN17LibBzip2Interface16staticMetaObjectE
kerfuffle_libbz2.so:_ZN17LibBzip2InterfaceC1EP7QObjectRK5QListI8QVariantE
kerfuffle_libbz2.so:_ZN17LibBzip2InterfaceC2EP7QObjectRK5QListI8QVariantE
kerfuffle_libbz2.so:_ZN17LibBzip2InterfaceD0Ev
kerfuffle_libbz2.so:_ZN17LibBzip2InterfaceD1Ev
kerfuffle_libbz2.so:_ZN17LibBzip2InterfaceD2Ev
kerfuffle_libbz2.so:_ZNK17LibBzip2Interface10metaObjectEv
kerfuffle_libbz2.so:_ZTI17LibBzip2Interface
kerfuffle_libbz2.so:_ZTS17LibBzip2Interface
kerfuffle_libbz2.so:_ZTSN9Kerfuffle5QueryE
kerfuffle_libbz2.so:_ZTV17LibBzip2Interface
kerfuffle_libbz2.so:qt_plugin_instance
kerfuffle_libbz2.so:qt_plugin_query_metadata
kerfuffle_libgz.so:_ZN16LibGzipInterface11qt_metacallEN11QMetaObject4CallEiPPv
kerfuffle_libgz.so:_ZN16LibGzipInterface11qt_metacastEPKc
kerfuffle_libgz.so:_ZN16LibGzipInterface16staticMetaObjectE
kerfuffle_libgz.so:_ZN16LibGzipInterfaceC1EP7QObjectRK5QListI8QVariantE
kerfuffle_libgz.so:_ZN16LibGzipInterfaceC2EP7QObjectRK5QListI8QVariantE
kerfuffle_libgz.so:_ZN16LibGzipInterfaceD0Ev
kerfuffle_libgz.so:_ZN16LibGzipInterfaceD1Ev
kerfuffle_libgz.so:_ZN16LibGzipInterfaceD2Ev
kerfuffle_libgz.so:_ZNK16LibGzipInterface10metaObjectEv
kerfuffle_libgz.so:_ZTI16LibGzipInterface
kerfuffle_libgz.so:_ZTS16LibGzipInterface
kerfuffle_libgz.so:_ZTSN9Kerfuffle5QueryE
kerfuffle_libgz.so:_ZTV16LibGzipInterface
kerfuffle_libgz.so:qt_plugin_instance
kerfuffle_libgz.so:qt_plugin_query_metadata
kerfuffle_libxz.so:_ZN14LibXzInterface11qt_metacallEN11QMetaObject4CallEiPPv
kerfuffle_libxz.so:_ZN14LibXzInterface11qt_metacastEPKc
kerfuffle_libxz.so:_ZN14LibXzInterface16staticMetaObjectE
kerfuffle_libxz.so:_ZN14LibXzInterfaceC1EP7QObjectRK5QListI8QVariantE
kerfuffle_libxz.so:_ZN14LibXzInterfaceC2EP7QObjectRK5QListI8QVariantE
kerfuffle_libxz.so:_ZN14LibXzInterfaceD0Ev
kerfuffle_libxz.so:_ZN14LibXzInterfaceD1Ev
kerfuffle_libxz.so:_ZN14LibXzInterfaceD2Ev
kerfuffle_libxz.so:_ZNK14LibXzInterface10metaObjectEv
kerfuffle_libxz.so:_ZTI14LibXzInterface
kerfuffle_libxz.so:_ZTS14LibXzInterface
kerfuffle_libxz.so:_ZTSN9Kerfuffle5QueryE
kerfuffle_libxz.so:_ZTV14LibXzInterface
kerfuffle_libxz.so:qt_plugin_instance
kerfuffle_libxz.so:qt_plugin_query_metadata
kerfuffle_libzip.so:_ZTSN9Kerfuffle5QueryE
kerfuffle_libzip.so:qt_plugin_instance
kerfuffle_libzip.so:qt_plugin_query_metadata
libkerfuffle.so.21:_ZN11ArkSettings11itemChangedEy
libkerfuffle.so.21:_ZN11ArkSettings11qt_metacallEN11QMetaObject4CallEiPPv
libkerfuffle.so.21:_ZN11ArkSettings11qt_metacastEPKc
libkerfuffle.so.21:_ZN11ArkSettings16staticMetaObjectE
libkerfuffle.so.21:_ZN11ArkSettings20preservePathsChangedEv
libkerfuffle.so.21:_ZN11ArkSettings20showInfoPanelChangedEv
libkerfuffle.so.21:_ZN11ArkSettings20splitterSizesChangedEv
libkerfuffle.so.21:_ZN11ArkSettings22disabledPluginsChangedEv
libkerfuffle.so.21:_ZN11ArkSettings24defaultOpenActionChangedEv
libkerfuffle.so.21:_ZN11ArkSettings25extractToSubfolderChangedEv
libkerfuffle.so.21:_ZN11ArkSettings27closeAfterExtractionChangedEv
libkerfuffle.so.21:_ZN11ArkSettings27limitPreviewFileSizeChangedEv
libkerfuffle.so.21:_ZN11ArkSettings27previewFileSizeLimitChangedEv
libkerfuffle.so.21:_ZN11ArkSettings28showEncryptionWarningChangedEv
libkerfuffle.so.21:_ZN11ArkSettings43openDestinationFolderAfterExtractionChangedEv
libkerfuffle.so.21:_ZN11ArkSettings4selfEv
libkerfuffle.so.21:_ZN11ArkSettingsC1Ev
libkerfuffle.so.21:_ZN11ArkSettingsC2Ev
libkerfuffle.so.21:_ZN11ArkSettingsD0Ev
libkerfuffle.so.21:_ZN11ArkSettingsD1Ev
libkerfuffle.so.21:_ZN11ArkSettingsD2Ev
libkerfuffle.so.21:_ZN9Kerfuffle10CommentJob11qt_metacallEN11QMetaObject4CallEiPPv
libkerfuffle.so.21:_ZN9Kerfuffle10CommentJob11qt_metacastEPKc
libkerfuffle.so.21:_ZN9Kerfuffle10CommentJob16staticMetaObjectE
libkerfuffle.so.21:_ZN9Kerfuffle10CommentJob6doWorkEv
libkerfuffle.so.21:_ZN9Kerfuffle10CommentJobC1ERK7QStringPNS_25ReadWriteArchiveInterfaceE
libkerfuffle.so.21:_ZN9Kerfuffle10CommentJobC2ERK7QStringPNS_25ReadWriteArchiveInterfaceE
libkerfuffle.so.21:_ZN9Kerfuffle10ExtractJob11qt_metacallEN11QMetaObject4CallEiPPv
libkerfuffle.so.21:_ZN9Kerfuffle10ExtractJob11qt_metacastEPKc
libkerfuffle.so.21:_ZN9Kerfuffle10ExtractJob16staticMetaObjectE
libkerfuffle.so.21:_ZN9Kerfuffle10ExtractJob6doWorkEv
libkerfuffle.so.21:_ZN9Kerfuffle10ExtractJobC1ERK7QVectorIPNS_7Archive5EntryEERK7QStringNS_17ExtractionOptionsEPNS_24ReadOnlyArchiveInterfaceE
libkerfuffle.so.21:_ZN9Kerfuffle10ExtractJobC2ERK7QVectorIPNS_7Archive5EntryEERK7QStringNS_17ExtractionOptionsEPNS_24ReadOnlyArchiveInterfaceE
libkerfuffle.so.21:_ZN9Kerfuffle10PreviewJob11qt_metacallEN11QMetaObject4CallEiPPv
libkerfuffle.so.21:_ZN9Kerfuffle10PreviewJob11qt_metacastEPKc
libkerfuffle.so.21:_ZN9Kerfuffle10PreviewJob16staticMetaObjectE
libkerfuffle.so.21:_ZN9Kerfuffle10PreviewJobC1EPNS_7Archive5EntryEbPNS_24ReadOnlyArchiveInterfaceE
libkerfuffle.so.21:_ZN9Kerfuffle10PreviewJobC2EPNS_7Archive5EntryEbPNS_24ReadOnlyArchiveInterfaceE
libkerfuffle.so.21:_ZN9Kerfuffle11OpenWithJob11qt_metacallEN11QMetaObject4CallEiPPv
libkerfuffle.so.21:_ZN9Kerfuffle11OpenWithJob11qt_metacastEPKc
libkerfuffle.so.21:_ZN9Kerfuffle11OpenWithJob16staticMetaObjectE
libkerfuffle.so.21:_ZN9Kerfuffle11OpenWithJobC1EPNS_7Archive5EntryEbPNS_24ReadOnlyArchiveInterfaceE
libkerfuffle.so.21:_ZN9Kerfuffle11OpenWithJobC2EPNS_7Archive5EntryEbPNS_24ReadOnlyArchiveInterfaceE
libkerfuffle.so.21:_ZN9Kerfuffle12AddToArchive11qt_metacallEN11QMetaObject4CallEiPPv
libkerfuffle.so.21:_ZN9Kerfuffle12AddToArchive11qt_metacastEPKc
libkerfuffle.so.21:_ZN9Kerfuffle12AddToArchive11setFilenameERK4QUrl
libkerfuffle.so.21:_ZN9Kerfuffle12AddToArchive11setMimeTypeERK7QString
libkerfuffle.so.21:_ZN9Kerfuffle12AddToArchive11setPasswordERK7QString
libkerfuffle.so.21:_ZN9Kerfuffle12AddToArchive12slotFinishedEP4KJob
libkerfuffle.so.21:_ZN9Kerfuffle12AddToArchive12slotStartJobEv
libkerfuffle.so.21:_ZN9Kerfuffle12AddToArchive13showAddDialogEv
libkerfuffle.so.21:_ZN9Kerfuffle12AddToArchive14detectFileNameEv
libkerfuffle.so.21:_ZN9Kerfuffle12AddToArchive16staticMetaObjectE
libkerfuffle.so.21:_ZN9Kerfuffle12AddToArchive20setChangeToFirstPathEb
libkerfuffle.so.21:_ZN9Kerfuffle12AddToArchive21setAutoFilenameSuffixERK7QString
libkerfuffle.so.21:_ZN9Kerfuffle12AddToArchive26setHeaderEncryptionEnabledEb
libkerfuffle.so.21:_ZN9Kerfuffle12AddToArchive5startEv
libkerfuffle.so.21:_ZN9Kerfuffle12AddToArchive6doKillEv
libkerfuffle.so.21:_ZN9Kerfuffle12AddToArchive8addInputERK4QUrl
libkerfuffle.so.21:_ZN9Kerfuffle12AddToArchiveC1EP7QObject
libkerfuffle.so.21:_ZN9Kerfuffle12AddToArchiveC2EP7QObject
libkerfuffle.so.21:_ZN9Kerfuffle12AddToArchiveD0Ev
libkerfuffle.so.21:_ZN9Kerfuffle12AddToArchiveD1Ev
libkerfuffle.so.21:_ZN9Kerfuffle12AddToArchiveD2Ev
libkerfuffle.so.21:_ZN9Kerfuffle12CliInterface10addCommentERK7QString
libkerfuffle.so.21:_ZN9Kerfuffle12CliInterface10handleLineERK7QString
libkerfuffle.so.21:_ZN9Kerfuffle12CliInterface10isEmptyDirERK4QDir
libkerfuffle.so.21:_ZN9Kerfuffle12CliInterface10readStdoutEb
libkerfuffle.so.21:_ZN9Kerfuffle12CliInterface10runProcessERK7QStringRK11QStringList
libkerfuffle.so.21:_ZN9Kerfuffle12CliInterface11deleteFilesERK7QVectorIPNS_7Archive5EntryEE
libkerfuffle.so.21:_ZN9Kerfuffle12CliInterface11killProcessEb
libkerfuffle.so.21:_ZN9Kerfuffle12CliInterface11qt_metacallEN11QMetaObject4CallEiPPv
libkerfuffle.so.21:_ZN9Kerfuffle12CliInterface11qt_metacastEPKc
libkerfuffle.so.21:_ZN9Kerfuffle12CliInterface11testArchiveEv
libkerfuffle.so.21:_ZN9Kerfuffle12CliInterface12extractFilesERK7QVectorIPNS_7Archive5EntryEERK7QStringRKNS_17ExtractionOptionsE
libkerfuffle.so.21:_ZN9Kerfuffle12CliInterface13finishCopyingEb
libkerfuffle.so.21:_ZN9Kerfuffle12CliInterface13isDiskFullMsgERK7QString
libkerfuffle.so.21:_ZN9Kerfuffle12CliInterface13passwordQueryEv
libkerfuffle.so.21:_ZN9Kerfuffle12CliInterface13setAddedFilesEv
libkerfuffle.so.21:_ZN9Kerfuffle12CliInterface14readDeleteLineERK7QString
libkerfuffle.so.21:_ZN9Kerfuffle12CliInterface14writeToProcessERK10QByteArray
libkerfuffle.so.21:_ZN9Kerfuffle12CliInterface15continueCopyingEb
libkerfuffle.so.21:_ZN9Kerfuffle12CliInterface15isFileExistsMsgERK7QString
libkerfuffle.so.21:_ZN9Kerfuffle12CliInterface15processFinishedEiN8QProcess10ExitStatusE
libkerfuffle.so.21:_ZN9Kerfuffle12CliInterface16isPasswordPromptERK7QString
libkerfuffle.so.21:_ZN9Kerfuffle12CliInterface16setNewMovedFilesERK7QVectorIPNS_7Archive5EntryEEPKS3_i
libkerfuffle.so.21:_ZN9Kerfuffle12CliInterface16staticMetaObjectE
libkerfuffle.so.21:_ZN9Kerfuffle12CliInterface17cleanUpExtractingEv
libkerfuffle.so.21:_ZN9Kerfuffle12CliInterface17moveToDestinationERK4QDirS3_b
libkerfuffle.so.21:_ZN9Kerfuffle12CliInterface17setListEmptyLinesEb
libkerfuffle.so.21:_ZN9Kerfuffle12CliInterface18isWrongPasswordMsgERK7QString
libkerfuffle.so.21:_ZN9Kerfuffle12CliInterface19isCorruptArchiveMsgERK7QString
libkerfuffle.so.21:_ZN9Kerfuffle12CliInterface20isFileExistsFileNameERK7QString
libkerfuffle.so.21:_ZN9Kerfuffle12CliInterface22extractProcessFinishedEiN8QProcess10ExitStatusE
libkerfuffle.so.21:_ZN9Kerfuffle12CliInterface22moveDroppedFilesToDestERK7QVectorIPNS_7Archive5EntryEERK7QString
libkerfuffle.so.21:_ZN9Kerfuffle12CliInterface23handleFileExistsMessageERK7QString
libkerfuffle.so.21:_ZN9Kerfuffle12CliInterface25entryPathDestinationPairsERK7QVectorIPNS_7Archive5EntryEEPKS3_
libkerfuffle.so.21:_ZN9Kerfuffle12CliInterface27restoreWorkingDirExtractionEv
libkerfuffle.so.21:_ZN9Kerfuffle12CliInterface4listEv
libkerfuffle.so.21:_ZN9Kerfuffle12CliInterface6doKillEv
libkerfuffle.so.21:_ZN9Kerfuffle12CliInterface7cleanUpEv
libkerfuffle.so.21:_ZN9Kerfuffle12CliInterface7onEntryEPNS_7Archive5EntryE
libkerfuffle.so.21:_ZN9Kerfuffle12CliInterface8addFilesERK7QVectorIPNS_7Archive5EntryEEPKS3_RKNS_18CompressionOptionsEj
libkerfuffle.so.21:_ZN9Kerfuffle12CliInterface9copyFilesERK7QVectorIPNS_7Archive5EntryEES4_RKNS_18CompressionOptionsE
libkerfuffle.so.21:_ZN9Kerfuffle12CliInterface9moveFilesERK7QVectorIPNS_7Archive5EntryEES4_RKNS_18CompressionOptionsE
libkerfuffle.so.21:_ZN9Kerfuffle12CliInterfaceC1EP7QObjectRK5QListI8QVariantE
libkerfuffle.so.21:_ZN9Kerfuffle12CliInterfaceC2EP7QObjectRK5QListI8QVariantE
libkerfuffle.so.21:_ZN9Kerfuffle12CliInterfaceD0Ev
libkerfuffle.so.21:_ZN9Kerfuffle12CliInterfaceD1Ev
libkerfuffle.so.21:_ZN9Kerfuffle12CliInterfaceD2Ev
libkerfuffle.so.21:_ZN9Kerfuffle12CreateDialog11qt_metacallEN11QMetaObject4CallEiPPv
libkerfuffle.so.21:_ZN9Kerfuffle12CreateDialog11qt_metacastEPKc
libkerfuffle.so.21:_ZN9Kerfuffle12CreateDialog11setFileNameERK7QString
libkerfuffle.so.21:_ZN9Kerfuffle12CreateDialog11setMimeTypeERK7QString
libkerfuffle.so.21:_ZN9Kerfuffle12CreateDialog16staticMetaObjectE
libkerfuffle.so.21:_ZN9Kerfuffle12CreateDialog17loadConfigurationEv
libkerfuffle.so.21:_ZN9Kerfuffle12CreateDialog17slotUpdateWidgetsEi
libkerfuffle.so.21:_ZN9Kerfuffle12CreateDialog18slotFileNameEditedERK7QString
libkerfuffle.so.21:_ZN9Kerfuffle12CreateDialog25slotUpdateDefaultMimeTypeEv
libkerfuffle.so.21:_ZN9Kerfuffle12CreateDialog27slotUpdateFilenameExtensionEi
libkerfuffle.so.21:_ZN9Kerfuffle12CreateDialog6acceptEv
libkerfuffle.so.21:_ZN9Kerfuffle12CreateDialogC1EP7QWidgetRK7QStringRK4QUrl
libkerfuffle.so.21:_ZN9Kerfuffle12CreateDialogC2EP7QWidgetRK7QStringRK4QUrl
libkerfuffle.so.21:_ZN9Kerfuffle12SettingsPage11qt_metacallEN11QMetaObject4CallEiPPv
libkerfuffle.so.21:_ZN9Kerfuffle12SettingsPage11qt_metacastEPKc
libkerfuffle.so.21:_ZN9Kerfuffle12SettingsPage16staticMetaObjectE
libkerfuffle.so.21:_ZN9Kerfuffle12SettingsPage19slotSettingsChangedEv
libkerfuffle.so.21:_ZN9Kerfuffle12SettingsPage25slotDefaultsButtonClickedEv
libkerfuffle.so.21:_ZN9Kerfuffle12SettingsPageC1EP7QWidgetRK7QStringS5_
libkerfuffle.so.21:_ZN9Kerfuffle12SettingsPageC2EP7QWidgetRK7QStringS5_
libkerfuffle.so.21:_ZN9Kerfuffle13ArchiveFormat12fromMetadataERK9QMimeTypeRK15KPluginMetaData
libkerfuffle.so.21:_ZN9Kerfuffle13ArchiveFormatC1ERK9QMimeTypeNS_7Archive14EncryptionTypeEiiibbbRK4QMapI7QString8QVariantERKS7_RK11QStringListSD_
libkerfuffle.so.21:_ZN9Kerfuffle13ArchiveFormatC1Ev
libkerfuffle.so.21:_ZN9Kerfuffle13ArchiveFormatC2ERK9QMimeTypeNS_7Archive14EncryptionTypeEiiibbbRK4QMapI7QString8QVariantERKS7_RK11QStringListSD_
libkerfuffle.so.21:_ZN9Kerfuffle13ArchiveFormatC2Ev
libkerfuffle.so.21:_ZN9Kerfuffle13CliProperties10deleteArgsERK7QStringRK7QVectorIPNS_7Archive5EntryEES3_
libkerfuffle.so.21:_ZN9Kerfuffle13CliProperties11commentArgsERK7QStringS3_
libkerfuffle.so.21:_ZN9Kerfuffle13CliProperties11extractArgsERK7QStringRK11QStringListbS3_
libkerfuffle.so.21:_ZN9Kerfuffle13CliProperties11qt_metacallEN11QMetaObject4CallEiPPv
libkerfuffle.so.21:_ZN9Kerfuffle13CliProperties11qt_metacastEPKc
libkerfuffle.so.21:_ZN9Kerfuffle13CliProperties15isTestPassedMsgERK7QString
libkerfuffle.so.21:_ZN9Kerfuffle13CliProperties16staticMetaObjectE
libkerfuffle.so.21:_ZN9Kerfuffle13CliProperties7addArgsERK7QStringRK11QStringListS3_biS3_S3_m
libkerfuffle.so.21:_ZN9Kerfuffle13CliProperties8listArgsERK7QStringS3_
libkerfuffle.so.21:_ZN9Kerfuffle13CliProperties8moveArgsERK7QStringRK7QVectorIPNS_7Archive5EntryEES7_S3_
libkerfuffle.so.21:_ZN9Kerfuffle13CliProperties8testArgsERK7QStringS3_
libkerfuffle.so.21:_ZN9Kerfuffle13CliPropertiesC1EP7QObjectRK15KPluginMetaDataRK9QMimeType
libkerfuffle.so.21:_ZN9Kerfuffle13CliPropertiesC2EP7QObjectRK15KPluginMetaDataRK9QMimeType
libkerfuffle.so.21:_ZN9Kerfuffle13PluginManager11loadPluginsEv
libkerfuffle.so.21:_ZN9Kerfuffle13PluginManager11qt_metacallEN11QMetaObject4CallEiPPv
libkerfuffle.so.21:_ZN9Kerfuffle13PluginManager11qt_metacastEPKc
libkerfuffle.so.21:_ZN9Kerfuffle13PluginManager13sortByCommentERK4QSetI7QStringE
libkerfuffle.so.21:_ZN9Kerfuffle13PluginManager16libarchiveHasLzoEv
libkerfuffle.so.21:_ZN9Kerfuffle13PluginManager16staticMetaObjectE
libkerfuffle.so.21:_ZN9Kerfuffle13PluginManager18preferredPluginForERK9QMimeType
libkerfuffle.so.21:_ZN9Kerfuffle13PluginManager19preferredPluginsForERK9QMimeType
libkerfuffle.so.21:_ZN9Kerfuffle13PluginManagerC1EP7QObject
libkerfuffle.so.21:_ZN9Kerfuffle13PluginManagerC2EP7QObject
libkerfuffle.so.21:_ZN9Kerfuffle14OverwriteQuery11newFilenameEv
libkerfuffle.so.21:_ZN9Kerfuffle14OverwriteQuery12noRenameModeEv
libkerfuffle.so.21:_ZN9Kerfuffle14OverwriteQuery12responseSkipEv
libkerfuffle.so.21:_ZN9Kerfuffle14OverwriteQuery12setMultiModeEb
libkerfuffle.so.21:_ZN9Kerfuffle14OverwriteQuery14responseRenameEv
libkerfuffle.so.21:_ZN9Kerfuffle14OverwriteQuery15setNoRenameModeEb
libkerfuffle.so.21:_ZN9Kerfuffle14OverwriteQuery16responseAutoSkipEv
libkerfuffle.so.21:_ZN9Kerfuffle14OverwriteQuery17responseCancelledEv
libkerfuffle.so.21:_ZN9Kerfuffle14OverwriteQuery17responseOverwriteEv
libkerfuffle.so.21:_ZN9Kerfuffle14OverwriteQuery20responseOverwriteAllEv
libkerfuffle.so.21:_ZN9Kerfuffle14OverwriteQuery7executeEv
libkerfuffle.so.21:_ZN9Kerfuffle14OverwriteQuery9multiModeEv
libkerfuffle.so.21:_ZN9Kerfuffle14OverwriteQueryC1ERK7QString
libkerfuffle.so.21:_ZN9Kerfuffle14OverwriteQueryC2ERK7QString
libkerfuffle.so.21:_ZN9Kerfuffle14SettingsDialog11qt_metacallEN11QMetaObject4CallEiPPv
libkerfuffle.so.21:_ZN9Kerfuffle14SettingsDialog11qt_metacastEPKc
libkerfuffle.so.21:_ZN9Kerfuffle14SettingsDialog16staticMetaObjectE
libkerfuffle.so.21:_ZN9Kerfuffle14SettingsDialog20updateWidgetsDefaultEv
libkerfuffle.so.21:_ZN9Kerfuffle14SettingsDialog21defaultsButtonClickedEv
libkerfuffle.so.21:_ZN9Kerfuffle14SettingsDialogC1EP7QWidgetRK7QStringP19KCoreConfigSkeleton
libkerfuffle.so.21:_ZN9Kerfuffle14SettingsDialogC2EP7QWidgetRK7QStringP19KCoreConfigSkeleton
libkerfuffle.so.21:_ZN9Kerfuffle14TempExtractJob11qt_metacallEN11QMetaObject4CallEiPPv
libkerfuffle.so.21:_ZN9Kerfuffle14TempExtractJob11qt_metacastEPKc
libkerfuffle.so.21:_ZN9Kerfuffle14TempExtractJob16staticMetaObjectE
libkerfuffle.so.21:_ZN9Kerfuffle14TempExtractJob6doWorkEv
libkerfuffle.so.21:_ZN9Kerfuffle14TempExtractJobC1EPNS_7Archive5EntryEbPNS_24ReadOnlyArchiveInterfaceE
libkerfuffle.so.21:_ZN9Kerfuffle14TempExtractJobC2EPNS_7Archive5EntryEbPNS_24ReadOnlyArchiveInterfaceE
libkerfuffle.so.21:_ZN9Kerfuffle15BatchExtractJob11qt_metacallEN11QMetaObject4CallEiPPv
libkerfuffle.so.21:_ZN9Kerfuffle15BatchExtractJob11qt_metacastEPKc
libkerfuffle.so.21:_ZN9Kerfuffle15BatchExtractJob16setupDestinationEv
libkerfuffle.so.21:_ZN9Kerfuffle15BatchExtractJob16staticMetaObjectE
libkerfuffle.so.21:_ZN9Kerfuffle15BatchExtractJob19slotExtractProgressEd
libkerfuffle.so.21:_ZN9Kerfuffle15BatchExtractJob19slotLoadingFinishedEP4KJob
libkerfuffle.so.21:_ZN9Kerfuffle15BatchExtractJob19slotLoadingProgressEd
libkerfuffle.so.21:_ZN9Kerfuffle15BatchExtractJob6doKillEv
libkerfuffle.so.21:_ZN9Kerfuffle15BatchExtractJob6doWorkEv
libkerfuffle.so.21:_ZN9Kerfuffle15BatchExtractJobC1EPNS_7LoadJobERK7QStringbb
libkerfuffle.so.21:_ZN9Kerfuffle15BatchExtractJobC2EPNS_7LoadJobERK7QStringbb
libkerfuffle.so.21:_ZN9Kerfuffle16ExtractionDialog10setBusyGuiEv
libkerfuffle.so.21:_ZN9Kerfuffle16ExtractionDialog11qt_metacallEN11QMetaObject4CallEiPPv
libkerfuffle.so.21:_ZN9Kerfuffle16ExtractionDialog11qt_metacastEPKc
libkerfuffle.so.21:_ZN9Kerfuffle16ExtractionDialog11setReadyGuiEv
libkerfuffle.so.21:_ZN9Kerfuffle16ExtractionDialog12loadSettingsEv
libkerfuffle.so.21:_ZN9Kerfuffle16ExtractionDialog12setSubfolderERK7QString
libkerfuffle.so.21:_ZN9Kerfuffle16ExtractionDialog12slotAcceptedEv
libkerfuffle.so.21:_ZN9Kerfuffle16ExtractionDialog13setCurrentUrlERK4QUrl
libkerfuffle.so.21:_ZN9Kerfuffle16ExtractionDialog13writeSettingsEv
libkerfuffle.so.21:_ZN9Kerfuffle16ExtractionDialog15batchModeOptionEv
libkerfuffle.so.21:_ZN9Kerfuffle16ExtractionDialog16setAutoSubfolderEb
libkerfuffle.so.21:_ZN9Kerfuffle16ExtractionDialog16setPreservePathsEb
libkerfuffle.so.21:_ZN9Kerfuffle16ExtractionDialog16staticMetaObjectE
libkerfuffle.so.21:_ZN9Kerfuffle16ExtractionDialog17restoreWindowSizeEv
libkerfuffle.so.21:_ZN9Kerfuffle16ExtractionDialog20setShowSelectedFilesEb
libkerfuffle.so.21:_ZN9Kerfuffle16ExtractionDialog21setExtractToSubfolderEb
libkerfuffle.so.21:_ZN9Kerfuffle16ExtractionDialog23setCloseAfterExtractionEb
libkerfuffle.so.21:_ZN9Kerfuffle16ExtractionDialog39setOpenDestinationFolderAfterExtractionEb
libkerfuffle.so.21:_ZN9Kerfuffle16ExtractionDialogC1EP7QWidget
libkerfuffle.so.21:_ZN9Kerfuffle16ExtractionDialogC2EP7QWidget
libkerfuffle.so.21:_ZN9Kerfuffle16ExtractionDialogD0Ev
libkerfuffle.so.21:_ZN9Kerfuffle16ExtractionDialogD1Ev
libkerfuffle.so.21:_ZN9Kerfuffle16ExtractionDialogD2Ev
libkerfuffle.so.21:_ZN9Kerfuffle16LoadCorruptQuery11responseYesEv
libkerfuffle.so.21:_ZN9Kerfuffle16LoadCorruptQuery7executeEv
libkerfuffle.so.21:_ZN9Kerfuffle16LoadCorruptQueryC1ERK7QString
libkerfuffle.so.21:_ZN9Kerfuffle16LoadCorruptQueryC2ERK7QString
libkerfuffle.so.21:_ZN9Kerfuffle16PropertiesDialog11qt_metacallEN11QMetaObject4CallEiPPv
libkerfuffle.so.21:_ZN9Kerfuffle16PropertiesDialog11qt_metacastEPKc
libkerfuffle.so.21:_ZN9Kerfuffle16PropertiesDialog12showChecksumEN18QCryptographicHash9AlgorithmERK7QStringP6QLabel
libkerfuffle.so.21:_ZN9Kerfuffle16PropertiesDialog16staticMetaObjectE
libkerfuffle.so.21:_ZN9Kerfuffle16PropertiesDialog8calcHashEN18QCryptographicHash9AlgorithmERK7QString
libkerfuffle.so.21:_ZN9Kerfuffle16PropertiesDialogC1EP7QWidgetPNS_7ArchiveEyyy
libkerfuffle.so.21:_ZN9Kerfuffle16PropertiesDialogC2EP7QWidgetPNS_7ArchiveEyyy
libkerfuffle.so.21:_ZN9Kerfuffle17ExtractionOptions16setPreservePathsEb
libkerfuffle.so.21:_ZN9Kerfuffle17ExtractionOptions19setAlwaysUseTempDirEb
libkerfuffle.so.21:_ZN9Kerfuffle17ExtractionOptions21setDragAndDropEnabledEb
libkerfuffle.so.21:_ZN9Kerfuffle17determineMimeTypeERK7QString
libkerfuffle.so.21:_ZN9Kerfuffle18CompressionOptions13setVolumeSizeEm
libkerfuffle.so.21:_ZN9Kerfuffle18CompressionOptions16setGlobalWorkDirERK7QString
libkerfuffle.so.21:_ZN9Kerfuffle18CompressionOptions19setCompressionLevelEi
libkerfuffle.so.21:_ZN9Kerfuffle18CompressionOptions19setEncryptionMethodERK7QString
libkerfuffle.so.21:_ZN9Kerfuffle18CompressionOptions20setCompressionMethodERK7QString
libkerfuffle.so.21:_ZN9Kerfuffle18PluginSettingsPage11qt_metacallEN11QMetaObject4CallEiPPv
libkerfuffle.so.21:_ZN9Kerfuffle18PluginSettingsPage11qt_metacastEPKc
libkerfuffle.so.21:_ZN9Kerfuffle18PluginSettingsPage15slotItemChangedEP15QTreeWidgetItem
libkerfuffle.so.21:_ZN9Kerfuffle18PluginSettingsPage16staticMetaObjectE
libkerfuffle.so.21:_ZN9Kerfuffle18PluginSettingsPage19slotSettingsChangedEv
libkerfuffle.so.21:_ZN9Kerfuffle18PluginSettingsPage25slotDefaultsButtonClickedEv
libkerfuffle.so.21:_ZN9Kerfuffle18PluginSettingsPageC1EP7QWidgetRK7QStringS5_
libkerfuffle.so.21:_ZN9Kerfuffle18PluginSettingsPageC2EP7QWidgetRK7QStringS5_
libkerfuffle.so.21:_ZN9Kerfuffle19GeneralSettingsPage11qt_metacallEN11QMetaObject4CallEiPPv
libkerfuffle.so.21:_ZN9Kerfuffle19GeneralSettingsPage11qt_metacastEPKc
libkerfuffle.so.21:_ZN9Kerfuffle19GeneralSettingsPage16staticMetaObjectE
libkerfuffle.so.21:_ZN9Kerfuffle19GeneralSettingsPageC1EP7QWidgetRK7QStringS5_
libkerfuffle.so.21:_ZN9Kerfuffle19GeneralSettingsPageC2EP7QWidgetRK7QStringS5_
libkerfuffle.so.21:_ZN9Kerfuffle19PasswordNeededQuery17responseCancelledEv
libkerfuffle.so.21:_ZN9Kerfuffle19PasswordNeededQuery7executeEv
libkerfuffle.so.21:_ZN9Kerfuffle19PasswordNeededQuery8passwordEv
libkerfuffle.so.21:_ZN9Kerfuffle19PasswordNeededQueryC1ERK7QStringb
libkerfuffle.so.21:_ZN9Kerfuffle19PasswordNeededQueryC2ERK7QStringb
libkerfuffle.so.21:_ZN9Kerfuffle19PreviewSettingsPage11qt_metacallEN11QMetaObject4CallEiPPv
libkerfuffle.so.21:_ZN9Kerfuffle19PreviewSettingsPage11qt_metacastEPKc
libkerfuffle.so.21:_ZN9Kerfuffle19PreviewSettingsPage11slotToggledEb
libkerfuffle.so.21:_ZN9Kerfuffle19PreviewSettingsPage16staticMetaObjectE
libkerfuffle.so.21:_ZN9Kerfuffle19PreviewSettingsPageC1EP7QWidgetRK7QStringS5_
libkerfuffle.so.21:_ZN9Kerfuffle19PreviewSettingsPageC2EP7QWidgetRK7QStringS5_
libkerfuffle.so.21:_ZN9Kerfuffle22ExtractionSettingsPage11qt_metacallEN11QMetaObject4CallEiPPv
libkerfuffle.so.21:_ZN9Kerfuffle22ExtractionSettingsPage11qt_metacastEPKc
libkerfuffle.so.21:_ZN9Kerfuffle22ExtractionSettingsPage16staticMetaObjectE
libkerfuffle.so.21:_ZN9Kerfuffle22ExtractionSettingsPageC1EP7QWidgetRK7QStringS5_
libkerfuffle.so.21:_ZN9Kerfuffle22ExtractionSettingsPageC2EP7QWidgetRK7QStringS5_
libkerfuffle.so.21:_ZN9Kerfuffle23ContinueExtractionQuery12dontAskAgainEv
libkerfuffle.so.21:_ZN9Kerfuffle23ContinueExtractionQuery17responseCancelledEv
libkerfuffle.so.21:_ZN9Kerfuffle23ContinueExtractionQuery7executeEv
libkerfuffle.so.21:_ZN9Kerfuffle23ContinueExtractionQueryC1ERK7QStringS3_
libkerfuffle.so.21:_ZN9Kerfuffle23ContinueExtractionQueryC2ERK7QStringS3_
libkerfuffle.so.21:_ZN9Kerfuffle24CompressionOptionsWidget11qt_metacallEN11QMetaObject4CallEiPPv
libkerfuffle.so.21:_ZN9Kerfuffle24CompressionOptionsWidget11qt_metacastEPKc
libkerfuffle.so.21:_ZN9Kerfuffle24CompressionOptionsWidget11setMimeTypeERK9QMimeType
libkerfuffle.so.21:_ZN9Kerfuffle24CompressionOptionsWidget13updateWidgetsEv
libkerfuffle.so.21:_ZN9Kerfuffle24CompressionOptionsWidget16staticMetaObjectE
libkerfuffle.so.21:_ZN9Kerfuffle24CompressionOptionsWidget20setEncryptionVisibleEb
libkerfuffle.so.21:_ZN9Kerfuffle24CompressionOptionsWidget21slotCompMethodChangedERK7QString
libkerfuffle.so.21:_ZN9Kerfuffle24CompressionOptionsWidget22slotMultiVolumeCheckedEi
libkerfuffle.so.21:_ZN9Kerfuffle24CompressionOptionsWidget27slotEncryptionMethodChangedERK7QString
libkerfuffle.so.21:_ZN9Kerfuffle24CompressionOptionsWidgetC1EP7QWidgetRKNS_18CompressionOptionsE
libkerfuffle.so.21:_ZN9Kerfuffle24CompressionOptionsWidgetC2EP7QWidgetRKNS_18CompressionOptionsE
libkerfuffle.so.21:_ZN9Kerfuffle24ReadOnlyArchiveInterface10setCorruptEb
libkerfuffle.so.21:_ZN9Kerfuffle24ReadOnlyArchiveInterface11qt_metacallEN11QMetaObject4CallEiPPv
libkerfuffle.so.21:_ZN9Kerfuffle24ReadOnlyArchiveInterface11qt_metacastEPKc
libkerfuffle.so.21:_ZN9Kerfuffle24ReadOnlyArchiveInterface11setPasswordERK7QString
libkerfuffle.so.21:_ZN9Kerfuffle24ReadOnlyArchiveInterface11testSuccessEv
libkerfuffle.so.21:_ZN9Kerfuffle24ReadOnlyArchiveInterface14entryFullPathsERK7QVectorIPNS_7Archive5EntryEENS_10PathFormatE
libkerfuffle.so.21:_ZN9Kerfuffle24ReadOnlyArchiveInterface14setMultiVolumeEb
libkerfuffle.so.21:_ZN9Kerfuffle24ReadOnlyArchiveInterface16staticMetaObjectE
libkerfuffle.so.21:_ZN9Kerfuffle24ReadOnlyArchiveInterface21encryptionMethodFoundERK7QString
libkerfuffle.so.21:_ZN9Kerfuffle24ReadOnlyArchiveInterface21waitForFinishedSignalEv
libkerfuffle.so.21:_ZN9Kerfuffle24ReadOnlyArchiveInterface22compressionMethodFoundERK7QString
libkerfuffle.so.21:_ZN9Kerfuffle24ReadOnlyArchiveInterface22entriesWithoutChildrenERK7QVectorIPNS_7Archive5EntryEE
libkerfuffle.so.21:_ZN9Kerfuffle24ReadOnlyArchiveInterface24setWaitForFinishedSignalEb
libkerfuffle.so.21:_ZN9Kerfuffle24ReadOnlyArchiveInterface25entryPathsFromDestinationE11QStringListPKNS_7Archive5EntryEi
libkerfuffle.so.21:_ZN9Kerfuffle24ReadOnlyArchiveInterface26setHeaderEncryptionEnabledEb
libkerfuffle.so.21:_ZN9Kerfuffle24ReadOnlyArchiveInterface4infoERK7QString
libkerfuffle.so.21:_ZN9Kerfuffle24ReadOnlyArchiveInterface4openEv
libkerfuffle.so.21:_ZN9Kerfuffle24ReadOnlyArchiveInterface5entryEPNS_7Archive5EntryE
libkerfuffle.so.21:_ZN9Kerfuffle24ReadOnlyArchiveInterface5errorERK7QStringS3_i
libkerfuffle.so.21:_ZN9Kerfuffle24ReadOnlyArchiveInterface6doKillEv
libkerfuffle.so.21:_ZN9Kerfuffle24ReadOnlyArchiveInterface7onEntryEPNS_7Archive5EntryE
libkerfuffle.so.21:_ZN9Kerfuffle24ReadOnlyArchiveInterface8finishedEb
libkerfuffle.so.21:_ZN9Kerfuffle24ReadOnlyArchiveInterface8progressEd
libkerfuffle.so.21:_ZN9Kerfuffle24ReadOnlyArchiveInterface9cancelledEv
libkerfuffle.so.21:_ZN9Kerfuffle24ReadOnlyArchiveInterface9userQueryEPNS_5QueryE
libkerfuffle.so.21:_ZN9Kerfuffle24ReadOnlyArchiveInterfaceC1EP7QObjectRK5QListI8QVariantE
libkerfuffle.so.21:_ZN9Kerfuffle24ReadOnlyArchiveInterfaceC2EP7QObjectRK5QListI8QVariantE
libkerfuffle.so.21:_ZN9Kerfuffle24ReadOnlyArchiveInterfaceD0Ev
libkerfuffle.so.21:_ZN9Kerfuffle24ReadOnlyArchiveInterfaceD1Ev
libkerfuffle.so.21:_ZN9Kerfuffle24ReadOnlyArchiveInterfaceD2Ev
libkerfuffle.so.21:_ZN9Kerfuffle25ReadWriteArchiveInterface11qt_metacallEN11QMetaObject4CallEiPPv
libkerfuffle.so.21:_ZN9Kerfuffle25ReadWriteArchiveInterface11qt_metacastEPKc
libkerfuffle.so.21:_ZN9Kerfuffle25ReadWriteArchiveInterface12entryRemovedERK7QString
libkerfuffle.so.21:_ZN9Kerfuffle25ReadWriteArchiveInterface14onEntryRemovedERK7QString
libkerfuffle.so.21:_ZN9Kerfuffle25ReadWriteArchiveInterface16staticMetaObjectE
libkerfuffle.so.21:_ZN9Kerfuffle25ReadWriteArchiveInterfaceC1EP7QObjectRK5QListI8QVariantE
libkerfuffle.so.21:_ZN9Kerfuffle25ReadWriteArchiveInterfaceC2EP7QObjectRK5QListI8QVariantE
libkerfuffle.so.21:_ZN9Kerfuffle25ReadWriteArchiveInterfaceD0Ev
libkerfuffle.so.21:_ZN9Kerfuffle25ReadWriteArchiveInterfaceD1Ev
libkerfuffle.so.21:_ZN9Kerfuffle25ReadWriteArchiveInterfaceD2Ev
libkerfuffle.so.21:_ZN9Kerfuffle3Job10onFinishedEb
libkerfuffle.so.21:_ZN9Kerfuffle3Job10onProgressEd
libkerfuffle.so.21:_ZN9Kerfuffle3Job11onCancelledEv
libkerfuffle.so.21:_ZN9Kerfuffle3Job11onUserQueryEPNS_5QueryE
libkerfuffle.so.21:_ZN9Kerfuffle3Job11qt_metacallEN11QMetaObject4CallEiPPv
libkerfuffle.so.21:_ZN9Kerfuffle3Job11qt_metacastEPKc
libkerfuffle.so.21:_ZN9Kerfuffle3Job12entryRemovedERK7QString
libkerfuffle.so.21:_ZN9Kerfuffle3Job14onEntryRemovedERK7QString
libkerfuffle.so.21:_ZN9Kerfuffle3Job16archiveInterfaceEv
libkerfuffle.so.21:_ZN9Kerfuffle3Job16staticMetaObjectE
libkerfuffle.so.21:_ZN9Kerfuffle3Job32connectToArchiveInterfaceSignalsEv
libkerfuffle.so.21:_ZN9Kerfuffle3Job5startEv
libkerfuffle.so.21:_ZN9Kerfuffle3Job6doKillEv
libkerfuffle.so.21:_ZN9Kerfuffle3Job6onInfoERK7QString
libkerfuffle.so.21:_ZN9Kerfuffle3Job7Private11qt_metacallEN11QMetaObject4CallEiPPv
libkerfuffle.so.21:_ZN9Kerfuffle3Job7Private11qt_metacastEPKc
libkerfuffle.so.21:_ZN9Kerfuffle3Job7Private16staticMetaObjectE
libkerfuffle.so.21:_ZN9Kerfuffle3Job7Private3runEv
libkerfuffle.so.21:_ZN9Kerfuffle3Job7onEntryEPNS_7Archive5EntryE
libkerfuffle.so.21:_ZN9Kerfuffle3Job7onErrorERK7QStringS3_i
libkerfuffle.so.21:_ZN9Kerfuffle3Job8newEntryEPNS_7Archive5EntryE
libkerfuffle.so.21:_ZN9Kerfuffle3Job9userQueryEPNS_5QueryE
libkerfuffle.so.21:_ZN9Kerfuffle3JobC1EPNS_24ReadOnlyArchiveInterfaceE
libkerfuffle.so.21:_ZN9Kerfuffle3JobC1EPNS_7ArchiveE
libkerfuffle.so.21:_ZN9Kerfuffle3JobC1EPNS_7ArchiveEPNS_24ReadOnlyArchiveInterfaceE
libkerfuffle.so.21:_ZN9Kerfuffle3JobC2EPNS_24ReadOnlyArchiveInterfaceE
libkerfuffle.so.21:_ZN9Kerfuffle3JobC2EPNS_7ArchiveE
libkerfuffle.so.21:_ZN9Kerfuffle3JobC2EPNS_7ArchiveEPNS_24ReadOnlyArchiveInterfaceE
libkerfuffle.so.21:_ZN9Kerfuffle3JobD0Ev
libkerfuffle.so.21:_ZN9Kerfuffle3JobD1Ev
libkerfuffle.so.21:_ZN9Kerfuffle3JobD2Ev
libkerfuffle.so.21:_ZN9Kerfuffle5Query11setResponseERK8QVariant
libkerfuffle.so.21:_ZN9Kerfuffle5Query15waitForResponseEv
libkerfuffle.so.21:_ZN9Kerfuffle5QueryC1Ev
libkerfuffle.so.21:_ZN9Kerfuffle5QueryC2Ev
libkerfuffle.so.21:_ZN9Kerfuffle6AddJob10onFinishedEb
libkerfuffle.so.21:_ZN9Kerfuffle6AddJob11qt_metacallEN11QMetaObject4CallEiPPv
libkerfuffle.so.21:_ZN9Kerfuffle6AddJob11qt_metacastEPKc
libkerfuffle.so.21:_ZN9Kerfuffle6AddJob16staticMetaObjectE
libkerfuffle.so.21:_ZN9Kerfuffle6AddJob6doWorkEv
libkerfuffle.so.21:_ZN9Kerfuffle6AddJobC1ERK7QVectorIPNS_7Archive5EntryEEPKS3_RKNS_18CompressionOptionsEPNS_25ReadWriteArchiveInterfaceE
libkerfuffle.so.21:_ZN9Kerfuffle6AddJobC2ERK7QVectorIPNS_7Archive5EntryEEPKS3_RKNS_18CompressionOptionsEPNS_25ReadWriteArchiveInterfaceE
libkerfuffle.so.21:_ZN9Kerfuffle6Plugin10setEnabledEb
libkerfuffle.so.21:_ZN9Kerfuffle6Plugin11qt_metacallEN11QMetaObject4CallEiPPv
libkerfuffle.so.21:_ZN9Kerfuffle6Plugin11qt_metacastEPKc
libkerfuffle.so.21:_ZN9Kerfuffle6Plugin14enabledChangedEv
libkerfuffle.so.21:_ZN9Kerfuffle6Plugin15findExecutablesERK11QStringList
libkerfuffle.so.21:_ZN9Kerfuffle6Plugin16staticMetaObjectE
libkerfuffle.so.21:_ZN9Kerfuffle6PluginC1EP7QObjectRK15KPluginMetaData
libkerfuffle.so.21:_ZN9Kerfuffle6PluginC2EP7QObjectRK15KPluginMetaData
libkerfuffle.so.21:_ZN9Kerfuffle7Archive10addCommentERK7QString
libkerfuffle.so.21:_ZN9Kerfuffle7Archive11createEmptyERK7QStringS3_P7QObject
libkerfuffle.so.21:_ZN9Kerfuffle7Archive11deleteFilesER7QVectorIPNS0_5EntryEE
libkerfuffle.so.21:_ZN9Kerfuffle7Archive11onUserQueryEPNS_5QueryE
libkerfuffle.so.21:_ZN9Kerfuffle7Archive11qt_metacallEN11QMetaObject4CallEiPPv
libkerfuffle.so.21:_ZN9Kerfuffle7Archive11qt_metacastEPKc
libkerfuffle.so.21:_ZN9Kerfuffle7Archive11testArchiveEv
libkerfuffle.so.21:_ZN9Kerfuffle7Archive12batchExtractERK7QStringS3_bbP7QObject
libkerfuffle.so.21:_ZN9Kerfuffle7Archive12extractFilesERK7QVectorIPNS0_5EntryEERK7QStringNS_17ExtractionOptionsE
libkerfuffle.so.21:_ZN9Kerfuffle7Archive13onAddFinishedEP4KJob
libkerfuffle.so.21:_ZN9Kerfuffle7Archive14setMultiVolumeEb
libkerfuffle.so.21:_ZN9Kerfuffle7Archive16staticMetaObjectE
libkerfuffle.so.21:_ZN9Kerfuffle7Archive23onEncryptionMethodFoundERK7QString
libkerfuffle.so.21:_ZN9Kerfuffle7Archive24onCompressionMethodFoundERK7QString
libkerfuffle.so.21:_ZN9Kerfuffle7Archive4loadERK7QStringP7QObject
libkerfuffle.so.21:_ZN9Kerfuffle7Archive4loadERK7QStringPNS_6PluginEP7QObject
libkerfuffle.so.21:_ZN9Kerfuffle7Archive4loadERK7QStringS3_P7QObject
libkerfuffle.so.21:_ZN9Kerfuffle7Archive4openEPNS0_5EntryE
libkerfuffle.so.21:_ZN9Kerfuffle7Archive5Entry10setEntryAtEiPS1_
libkerfuffle.so.21:_ZN9Kerfuffle7Archive5Entry11appendEntryEPS1_
libkerfuffle.so.21:_ZN9Kerfuffle7Archive5Entry11qt_metacallEN11QMetaObject4CallEiPPv
libkerfuffle.so.21:_ZN9Kerfuffle7Archive5Entry11qt_metacastEPKc
libkerfuffle.so.21:_ZN9Kerfuffle7Archive5Entry11setFullPathERK7QString
libkerfuffle.so.21:_ZN9Kerfuffle7Archive5Entry12copyMetaDataEPKS1_
libkerfuffle.so.21:_ZN9Kerfuffle7Archive5Entry13removeEntryAtEi
libkerfuffle.so.21:_ZN9Kerfuffle7Archive5Entry14setIsDirectoryEb
libkerfuffle.so.21:_ZN9Kerfuffle7Archive5Entry15setIsExecutableEb
libkerfuffle.so.21:_ZN9Kerfuffle7Archive5Entry16staticMetaObjectE
libkerfuffle.so.21:_ZN9Kerfuffle7Archive5Entry7entriesEv
libkerfuffle.so.21:_ZN9Kerfuffle7Archive5Entry9setParentEPS1_
libkerfuffle.so.21:_ZN9Kerfuffle7Archive5EntryC1EP7QObjectRK7QStringS6_
libkerfuffle.so.21:_ZN9Kerfuffle7Archive5EntryC2EP7QObjectRK7QStringS6_
libkerfuffle.so.21:_ZN9Kerfuffle7Archive5EntryD0Ev
libkerfuffle.so.21:_ZN9Kerfuffle7Archive5EntryD1Ev
libkerfuffle.so.21:_ZN9Kerfuffle7Archive5EntryD2Ev
libkerfuffle.so.21:_ZN9Kerfuffle7Archive6createERK7QStringP7QObject
libkerfuffle.so.21:_ZN9Kerfuffle7Archive6createERK7QStringPNS_6PluginEP7QObject
libkerfuffle.so.21:_ZN9Kerfuffle7Archive6createERK7QStringS3_P7QObject
libkerfuffle.so.21:_ZN9Kerfuffle7Archive6createERK7QStringS3_RK7QVectorIPNS0_5EntryEERKNS_18CompressionOptionsEP7QObject
libkerfuffle.so.21:_ZN9Kerfuffle7Archive7encryptERK7QStringb
libkerfuffle.so.21:_ZN9Kerfuffle7Archive7previewEPNS0_5EntryE
libkerfuffle.so.21:_ZN9Kerfuffle7Archive8addFilesERK7QVectorIPNS0_5EntryEEPKS2_RKNS_18CompressionOptionsE
libkerfuffle.so.21:_ZN9Kerfuffle7Archive8mimeTypeEv
libkerfuffle.so.21:_ZN9Kerfuffle7Archive8openWithEPNS0_5EntryE
libkerfuffle.so.21:_ZN9Kerfuffle7Archive9copyFilesERK7QVectorIPNS0_5EntryEES3_RKNS_18CompressionOptionsE
libkerfuffle.so.21:_ZN9Kerfuffle7Archive9interfaceEv
libkerfuffle.so.21:_ZN9Kerfuffle7Archive9moveFilesERK7QVectorIPNS0_5EntryEES3_RKNS_18CompressionOptionsE
libkerfuffle.so.21:_ZN9Kerfuffle7ArchiveC1ENS_12ArchiveErrorEP7QObject
libkerfuffle.so.21:_ZN9Kerfuffle7ArchiveC1EPNS_24ReadOnlyArchiveInterfaceEbP7QObject
libkerfuffle.so.21:_ZN9Kerfuffle7ArchiveC2ENS_12ArchiveErrorEP7QObject
libkerfuffle.so.21:_ZN9Kerfuffle7ArchiveC2EPNS_24ReadOnlyArchiveInterfaceEbP7QObject
libkerfuffle.so.21:_ZN9Kerfuffle7ArchiveD0Ev
libkerfuffle.so.21:_ZN9Kerfuffle7ArchiveD1Ev
libkerfuffle.so.21:_ZN9Kerfuffle7ArchiveD2Ev
libkerfuffle.so.21:_ZN9Kerfuffle7CopyJob10onFinishedEb
libkerfuffle.so.21:_ZN9Kerfuffle7CopyJob11qt_metacallEN11QMetaObject4CallEiPPv
libkerfuffle.so.21:_ZN9Kerfuffle7CopyJob11qt_metacastEPKc
libkerfuffle.so.21:_ZN9Kerfuffle7CopyJob16staticMetaObjectE
libkerfuffle.so.21:_ZN9Kerfuffle7CopyJob6doWorkEv
libkerfuffle.so.21:_ZN9Kerfuffle7CopyJobC1ERK7QVectorIPNS_7Archive5EntryEES4_RKNS_18CompressionOptionsEPNS_25ReadWriteArchiveInterfaceE
libkerfuffle.so.21:_ZN9Kerfuffle7CopyJobC2ERK7QVectorIPNS_7Archive5EntryEES4_RKNS_18CompressionOptionsEPNS_25ReadWriteArchiveInterfaceE
libkerfuffle.so.21:_ZN9Kerfuffle7LoadJob10onFinishedEb
libkerfuffle.so.21:_ZN9Kerfuffle7LoadJob10onNewEntryEPKNS_7Archive5EntryE
libkerfuffle.so.21:_ZN9Kerfuffle7LoadJob11qt_metacallEN11QMetaObject4CallEiPPv
libkerfuffle.so.21:_ZN9Kerfuffle7LoadJob11qt_metacastEPKc
libkerfuffle.so.21:_ZN9Kerfuffle7LoadJob16staticMetaObjectE
libkerfuffle.so.21:_ZN9Kerfuffle7LoadJob6doWorkEv
libkerfuffle.so.21:_ZN9Kerfuffle7LoadJobC1EPNS_24ReadOnlyArchiveInterfaceE
libkerfuffle.so.21:_ZN9Kerfuffle7LoadJobC1EPNS_7ArchiveE
libkerfuffle.so.21:_ZN9Kerfuffle7LoadJobC1EPNS_7ArchiveEPNS_24ReadOnlyArchiveInterfaceE
libkerfuffle.so.21:_ZN9Kerfuffle7LoadJobC2EPNS_24ReadOnlyArchiveInterfaceE
libkerfuffle.so.21:_ZN9Kerfuffle7LoadJobC2EPNS_7ArchiveE
libkerfuffle.so.21:_ZN9Kerfuffle7LoadJobC2EPNS_7ArchiveEPNS_24ReadOnlyArchiveInterfaceE
libkerfuffle.so.21:_ZN9Kerfuffle7MoveJob10onFinishedEb
libkerfuffle.so.21:_ZN9Kerfuffle7MoveJob11qt_metacallEN11QMetaObject4CallEiPPv
libkerfuffle.so.21:_ZN9Kerfuffle7MoveJob11qt_metacastEPKc
libkerfuffle.so.21:_ZN9Kerfuffle7MoveJob16staticMetaObjectE
libkerfuffle.so.21:_ZN9Kerfuffle7MoveJob6doWorkEv
libkerfuffle.so.21:_ZN9Kerfuffle7MoveJobC1ERK7QVectorIPNS_7Archive5EntryEES4_RKNS_18CompressionOptionsEPNS_25ReadWriteArchiveInterfaceE
libkerfuffle.so.21:_ZN9Kerfuffle7MoveJobC2ERK7QVectorIPNS_7Archive5EntryEES4_RKNS_18CompressionOptionsEPNS_25ReadWriteArchiveInterfaceE
libkerfuffle.so.21:_ZN9Kerfuffle7OpenJob11qt_metacallEN11QMetaObject4CallEiPPv
libkerfuffle.so.21:_ZN9Kerfuffle7OpenJob11qt_metacastEPKc
libkerfuffle.so.21:_ZN9Kerfuffle7OpenJob16staticMetaObjectE
libkerfuffle.so.21:_ZN9Kerfuffle7OpenJobC1EPNS_7Archive5EntryEbPNS_24ReadOnlyArchiveInterfaceE
libkerfuffle.so.21:_ZN9Kerfuffle7OpenJobC2EPNS_7Archive5EntryEbPNS_24ReadOnlyArchiveInterfaceE
libkerfuffle.so.21:_ZN9Kerfuffle7Options23setEncryptedArchiveHintEb
libkerfuffle.so.21:_ZN9Kerfuffle7TestJob11qt_metacallEN11QMetaObject4CallEiPPv
libkerfuffle.so.21:_ZN9Kerfuffle7TestJob11qt_metacastEPKc
libkerfuffle.so.21:_ZN9Kerfuffle7TestJob13onTestSuccessEv
libkerfuffle.so.21:_ZN9Kerfuffle7TestJob13testSucceededEv
libkerfuffle.so.21:_ZN9Kerfuffle7TestJob16staticMetaObjectE
libkerfuffle.so.21:_ZN9Kerfuffle7TestJob6doWorkEv
libkerfuffle.so.21:_ZN9Kerfuffle7TestJobC1EPNS_24ReadOnlyArchiveInterfaceE
libkerfuffle.so.21:_ZN9Kerfuffle7TestJobC2EPNS_24ReadOnlyArchiveInterfaceE
libkerfuffle.so.21:_ZN9Kerfuffle9AddDialog11qt_metacallEN11QMetaObject4CallEiPPv
libkerfuffle.so.21:_ZN9Kerfuffle9AddDialog11qt_metacastEPKc
libkerfuffle.so.21:_ZN9Kerfuffle9AddDialog15slotOpenOptionsEv
libkerfuffle.so.21:_ZN9Kerfuffle9AddDialog16staticMetaObjectE
libkerfuffle.so.21:_ZN9Kerfuffle9AddDialogC1EP7QWidgetRK7QStringRK4QUrlRK9QMimeTypeRKNS_18CompressionOptionsE
libkerfuffle.so.21:_ZN9Kerfuffle9AddDialogC2EP7QWidgetRK7QStringRK4QUrlRK9QMimeTypeRKNS_18CompressionOptionsE
libkerfuffle.so.21:_ZN9Kerfuffle9AddDialogD0Ev
libkerfuffle.so.21:_ZN9Kerfuffle9AddDialogD1Ev
libkerfuffle.so.21:_ZN9Kerfuffle9AddDialogD2Ev
libkerfuffle.so.21:_ZN9Kerfuffle9CreateJob11qt_metacallEN11QMetaObject4CallEiPPv
libkerfuffle.so.21:_ZN9Kerfuffle9CreateJob11qt_metacastEPKc
libkerfuffle.so.21:_ZN9Kerfuffle9CreateJob14setMultiVolumeEb
libkerfuffle.so.21:_ZN9Kerfuffle9CreateJob16enableEncryptionERK7QStringb
libkerfuffle.so.21:_ZN9Kerfuffle9CreateJob16staticMetaObjectE
libkerfuffle.so.21:_ZN9Kerfuffle9CreateJob6doKillEv
libkerfuffle.so.21:_ZN9Kerfuffle9CreateJob6doWorkEv
libkerfuffle.so.21:_ZN9Kerfuffle9CreateJobC1EPNS_7ArchiveERK7QVectorIPNS1_5EntryEERKNS_18CompressionOptionsE
libkerfuffle.so.21:_ZN9Kerfuffle9CreateJobC2EPNS_7ArchiveERK7QVectorIPNS1_5EntryEERKNS_18CompressionOptionsE
libkerfuffle.so.21:_ZN9Kerfuffle9DeleteJob11qt_metacallEN11QMetaObject4CallEiPPv
libkerfuffle.so.21:_ZN9Kerfuffle9DeleteJob11qt_metacastEPKc
libkerfuffle.so.21:_ZN9Kerfuffle9DeleteJob16staticMetaObjectE
libkerfuffle.so.21:_ZN9Kerfuffle9DeleteJob6doWorkEv
libkerfuffle.so.21:_ZN9Kerfuffle9DeleteJobC1ERK7QVectorIPNS_7Archive5EntryEEPNS_25ReadWriteArchiveInterfaceE
libkerfuffle.so.21:_ZN9Kerfuffle9DeleteJobC2ERK7QVectorIPNS_7Archive5EntryEEPNS_25ReadWriteArchiveInterfaceE
libkerfuffle.so.21:_ZN9KerfufflelsE6QDebugNS_17ExtractionOptionsE
libkerfuffle.so.21:_ZN9KerfufflelsE6QDebugPKNS_7Archive5EntryE
libkerfuffle.so.21:_ZN9KerfufflelsE6QDebugRKNS_18CompressionOptionsE
libkerfuffle.so.21:_ZN9KerfufflelsE6QDebugRKNS_7Archive5EntryE
libkerfuffle.so.21:_ZNK11ArkSettings10metaObjectEv
libkerfuffle.so.21:_ZNK9Kerfuffle10CommentJob10metaObjectEv
libkerfuffle.so.21:_ZNK9Kerfuffle10ExtractJob10metaObjectEv
libkerfuffle.so.21:_ZNK9Kerfuffle10ExtractJob17extractionOptionsEv
libkerfuffle.so.21:_ZNK9Kerfuffle10ExtractJob20destinationDirectoryEv
libkerfuffle.so.21:_ZNK9Kerfuffle10PreviewJob10metaObjectEv
libkerfuffle.so.21:_ZNK9Kerfuffle11OpenWithJob10metaObjectEv
libkerfuffle.so.21:_ZNK9Kerfuffle12AddToArchive10metaObjectEv
libkerfuffle.so.21:_ZNK9Kerfuffle12AddToArchive14detectBaseNameERK7QVectorIPNS_7Archive5EntryEE
libkerfuffle.so.21:_ZNK9Kerfuffle12CliInterface10metaObjectEv
libkerfuffle.so.21:_ZNK9Kerfuffle12CliInterface13cliPropertiesEv
libkerfuffle.so.21:_ZNK9Kerfuffle12CliInterface14escapeFileNameERK7QString
libkerfuffle.so.21:_ZNK9Kerfuffle12CliInterface15multiVolumeNameEv
libkerfuffle.so.21:_ZNK9Kerfuffle12CliInterface16extractFilesListERK7QVectorIPNS_7Archive5EntryEE
libkerfuffle.so.21:_ZNK9Kerfuffle12CliInterface19copyRequiredSignalsEv
libkerfuffle.so.21:_ZNK9Kerfuffle12CreateDialog10metaObjectEv
libkerfuffle.so.21:_ZNK9Kerfuffle12CreateDialog10volumeSizeEv
libkerfuffle.so.21:_ZNK9Kerfuffle12CreateDialog11selectedUrlEv
libkerfuffle.so.21:_ZNK9Kerfuffle12CreateDialog15currentMimeTypeEv
libkerfuffle.so.21:_ZNK9Kerfuffle12CreateDialog16compressionLevelEv
libkerfuffle.so.21:_ZNK9Kerfuffle12CreateDialog16encryptionMethodEv
libkerfuffle.so.21:_ZNK9Kerfuffle12CreateDialog17compressionMethodEv
libkerfuffle.so.21:_ZNK9Kerfuffle12CreateDialog19isEncryptionEnabledEv
libkerfuffle.so.21:_ZNK9Kerfuffle12CreateDialog21isEncryptionAvailableEv
libkerfuffle.so.21:_ZNK9Kerfuffle12CreateDialog25isHeaderEncryptionEnabledEv
libkerfuffle.so.21:_ZNK9Kerfuffle12CreateDialog27isHeaderEncryptionAvailableEv
libkerfuffle.so.21:_ZNK9Kerfuffle12CreateDialog8passwordEv
libkerfuffle.so.21:_ZNK9Kerfuffle12SettingsPage10metaObjectEv
libkerfuffle.so.21:_ZNK9Kerfuffle12SettingsPage4nameEv
libkerfuffle.so.21:_ZNK9Kerfuffle12SettingsPage8iconNameEv
libkerfuffle.so.21:_ZNK9Kerfuffle13ArchiveFormat14encryptionTypeEv
libkerfuffle.so.21:_ZNK9Kerfuffle13ArchiveFormat15supportsTestingEv
libkerfuffle.so.21:_ZNK9Kerfuffle13ArchiveFormat17encryptionMethodsEv
libkerfuffle.so.21:_ZNK9Kerfuffle13ArchiveFormat18compressionMethodsEv
libkerfuffle.so.21:_ZNK9Kerfuffle13ArchiveFormat19maxCompressionLevelEv
libkerfuffle.so.21:_ZNK9Kerfuffle13ArchiveFormat19minCompressionLevelEv
libkerfuffle.so.21:_ZNK9Kerfuffle13ArchiveFormat19supportsMultiVolumeEv
libkerfuffle.so.21:_ZNK9Kerfuffle13ArchiveFormat20supportsWriteCommentEv
libkerfuffle.so.21:_ZNK9Kerfuffle13ArchiveFormat23defaultCompressionLevelEv
libkerfuffle.so.21:_ZNK9Kerfuffle13ArchiveFormat23defaultEncryptionMethodEv
libkerfuffle.so.21:_ZNK9Kerfuffle13ArchiveFormat24defaultCompressionMethodEv
libkerfuffle.so.21:_ZNK9Kerfuffle13ArchiveFormat7isValidEv
libkerfuffle.so.21:_ZNK9Kerfuffle13CliProperties10metaObjectEv
libkerfuffle.so.21:_ZNK9Kerfuffle13CliProperties23substituteCommentSwitchERK7QString
libkerfuffle.so.21:_ZNK9Kerfuffle13CliProperties24substitutePasswordSwitchERK7QStringb
libkerfuffle.so.21:_ZNK9Kerfuffle13CliProperties27substituteMultiVolumeSwitchEm
libkerfuffle.so.21:_ZNK9Kerfuffle13CliProperties32substituteCompressionLevelSwitchEi
libkerfuffle.so.21:_ZNK9Kerfuffle13CliProperties32substituteEncryptionMethodSwitchERK7QString
libkerfuffle.so.21:_ZNK9Kerfuffle13CliProperties33substituteCompressionMethodSwitchERK7QString
libkerfuffle.so.21:_ZNK9Kerfuffle13PluginManager10metaObjectEv
libkerfuffle.so.21:_ZNK9Kerfuffle13PluginManager14enabledPluginsEv
libkerfuffle.so.21:_ZNK9Kerfuffle13PluginManager16availablePluginsEv
libkerfuffle.so.21:_ZNK9Kerfuffle13PluginManager16installedPluginsEv
libkerfuffle.so.21:_ZNK9Kerfuffle13PluginManager18supportedMimeTypesENS0_15MimeSortingModeE
libkerfuffle.so.21:_ZNK9Kerfuffle13PluginManager19preferredPluginsForERK9QMimeTypeb
libkerfuffle.so.21:_ZNK9Kerfuffle13PluginManager21availableWritePluginsEv
libkerfuffle.so.21:_ZNK9Kerfuffle13PluginManager23preferredWritePluginForERK9QMimeType
libkerfuffle.so.21:_ZNK9Kerfuffle13PluginManager23supportedWriteMimeTypesENS0_15MimeSortingModeE
libkerfuffle.so.21:_ZNK9Kerfuffle13PluginManager24preferredWritePluginsForERK9QMimeType
libkerfuffle.so.21:_ZNK9Kerfuffle13PluginManager8filterByERK7QVectorIPNS_6PluginEERK9QMimeType
libkerfuffle.so.21:_ZNK9Kerfuffle14SettingsDialog10metaObjectEv
libkerfuffle.so.21:_ZNK9Kerfuffle14TempExtractJob10metaObjectEv
libkerfuffle.so.21:_ZNK9Kerfuffle14TempExtractJob13extractionDirEv
libkerfuffle.so.21:_ZNK9Kerfuffle14TempExtractJob17extractionOptionsEv
libkerfuffle.so.21:_ZNK9Kerfuffle14TempExtractJob17validatedFilePathEv
libkerfuffle.so.21:_ZNK9Kerfuffle14TempExtractJob7tempDirEv
libkerfuffle.so.21:_ZNK9Kerfuffle15BatchExtractJob10metaObjectEv
libkerfuffle.so.21:_ZNK9Kerfuffle16ExtractionDialog10metaObjectEv
libkerfuffle.so.21:_ZNK9Kerfuffle16ExtractionDialog13preservePathsEv
libkerfuffle.so.21:_ZNK9Kerfuffle16ExtractionDialog14autoSubfoldersEv
libkerfuffle.so.21:_ZNK9Kerfuffle16ExtractionDialog15extractAllFilesEv
libkerfuffle.so.21:_ZNK9Kerfuffle16ExtractionDialog18extractToSubfolderEv
libkerfuffle.so.21:_ZNK9Kerfuffle16ExtractionDialog20closeAfterExtractionEv
libkerfuffle.so.21:_ZNK9Kerfuffle16ExtractionDialog20destinationDirectoryEv
libkerfuffle.so.21:_ZNK9Kerfuffle16ExtractionDialog30openDestinationAfterExtractionEv
libkerfuffle.so.21:_ZNK9Kerfuffle16ExtractionDialog9subfolderEv
libkerfuffle.so.21:_ZNK9Kerfuffle16PropertiesDialog10metaObjectEv
libkerfuffle.so.21:_ZNK9Kerfuffle17ExtractionOptions13preservePathsEv
libkerfuffle.so.21:_ZNK9Kerfuffle17ExtractionOptions16alwaysUseTempDirEv
libkerfuffle.so.21:_ZNK9Kerfuffle17ExtractionOptions20isDragAndDropEnabledEv
libkerfuffle.so.21:_ZNK9Kerfuffle18CompressionOptions10volumeSizeEv
libkerfuffle.so.21:_ZNK9Kerfuffle18CompressionOptions13globalWorkDirEv
libkerfuffle.so.21:_ZNK9Kerfuffle18CompressionOptions15isVolumeSizeSetEv
libkerfuffle.so.21:_ZNK9Kerfuffle18CompressionOptions16compressionLevelEv
libkerfuffle.so.21:_ZNK9Kerfuffle18CompressionOptions16encryptionMethodEv
libkerfuffle.so.21:_ZNK9Kerfuffle18CompressionOptions17compressionMethodEv
libkerfuffle.so.21:_ZNK9Kerfuffle18CompressionOptions21isCompressionLevelSetEv
libkerfuffle.so.21:_ZNK9Kerfuffle18PluginSettingsPage10metaObjectEv
libkerfuffle.so.21:_ZNK9Kerfuffle19GeneralSettingsPage10metaObjectEv
libkerfuffle.so.21:_ZNK9Kerfuffle19PreviewSettingsPage10metaObjectEv
libkerfuffle.so.21:_ZNK9Kerfuffle22ExtractionSettingsPage10metaObjectEv
libkerfuffle.so.21:_ZNK9Kerfuffle24CompressionOptionsWidget10metaObjectEv
libkerfuffle.so.21:_ZNK9Kerfuffle24CompressionOptionsWidget10volumeSizeEv
libkerfuffle.so.21:_ZNK9Kerfuffle24CompressionOptionsWidget13archiveFormatEv
libkerfuffle.so.21:_ZNK9Kerfuffle24CompressionOptionsWidget14passwordStatusEv
libkerfuffle.so.21:_ZNK9Kerfuffle24CompressionOptionsWidget16compressionLevelEv
libkerfuffle.so.21:_ZNK9Kerfuffle24CompressionOptionsWidget16encryptionMethodEv
libkerfuffle.so.21:_ZNK9Kerfuffle24CompressionOptionsWidget17compressionMethodEv
libkerfuffle.so.21:_ZNK9Kerfuffle24CompressionOptionsWidget19commpressionOptionsEv
libkerfuffle.so.21:_ZNK9Kerfuffle24CompressionOptionsWidget19isEncryptionEnabledEv
libkerfuffle.so.21:_ZNK9Kerfuffle24CompressionOptionsWidget21isEncryptionAvailableEv
libkerfuffle.so.21:_ZNK9Kerfuffle24CompressionOptionsWidget25isHeaderEncryptionEnabledEv
libkerfuffle.so.21:_ZNK9Kerfuffle24CompressionOptionsWidget27isHeaderEncryptionAvailableEv
libkerfuffle.so.21:_ZNK9Kerfuffle24CompressionOptionsWidget8passwordEv
libkerfuffle.so.21:_ZNK9Kerfuffle24ReadOnlyArchiveInterface10isReadOnlyEv
libkerfuffle.so.21:_ZNK9Kerfuffle24ReadOnlyArchiveInterface10metaObjectEv
libkerfuffle.so.21:_ZNK9Kerfuffle24ReadOnlyArchiveInterface13isMultiVolumeEv
libkerfuffle.so.21:_ZNK9Kerfuffle24ReadOnlyArchiveInterface15multiVolumeNameEv
libkerfuffle.so.21:_ZNK9Kerfuffle24ReadOnlyArchiveInterface15numberOfEntriesEv
libkerfuffle.so.21:_ZNK9Kerfuffle24ReadOnlyArchiveInterface15numberOfVolumesEv
libkerfuffle.so.21:_ZNK9Kerfuffle24ReadOnlyArchiveInterface19copyRequiredSignalsEv
libkerfuffle.so.21:_ZNK9Kerfuffle24ReadOnlyArchiveInterface19moveRequiredSignalsEv
libkerfuffle.so.21:_ZNK9Kerfuffle24ReadOnlyArchiveInterface25isHeaderEncryptionEnabledEv
libkerfuffle.so.21:_ZNK9Kerfuffle24ReadOnlyArchiveInterface26hasBatchExtractionProgressEv
libkerfuffle.so.21:_ZNK9Kerfuffle24ReadOnlyArchiveInterface7commentEv
libkerfuffle.so.21:_ZNK9Kerfuffle24ReadOnlyArchiveInterface8filenameEv
libkerfuffle.so.21:_ZNK9Kerfuffle24ReadOnlyArchiveInterface8isLockedEv
libkerfuffle.so.21:_ZNK9Kerfuffle24ReadOnlyArchiveInterface8mimetypeEv
libkerfuffle.so.21:_ZNK9Kerfuffle24ReadOnlyArchiveInterface8passwordEv
libkerfuffle.so.21:_ZNK9Kerfuffle24ReadOnlyArchiveInterface9isCorruptEv
libkerfuffle.so.21:_ZNK9Kerfuffle25ReadWriteArchiveInterface10isReadOnlyEv
libkerfuffle.so.21:_ZNK9Kerfuffle25ReadWriteArchiveInterface10metaObjectEv
libkerfuffle.so.21:_ZNK9Kerfuffle3Job10metaObjectEv
libkerfuffle.so.21:_ZNK9Kerfuffle3Job11errorStringEv
libkerfuffle.so.21:_ZNK9Kerfuffle3Job7Private10metaObjectEv
libkerfuffle.so.21:_ZNK9Kerfuffle3Job7archiveEv
libkerfuffle.so.21:_ZNK9Kerfuffle5Query8responseEv
libkerfuffle.so.21:_ZNK9Kerfuffle6AddJob10metaObjectEv
libkerfuffle.so.21:_ZNK9Kerfuffle6Plugin10metaObjectEv
libkerfuffle.so.21:_ZNK9Kerfuffle6Plugin11isReadWriteEv
libkerfuffle.so.21:_ZNK9Kerfuffle6Plugin19readOnlyExecutablesEv
libkerfuffle.so.21:_ZNK9Kerfuffle6Plugin20readWriteExecutablesEv
libkerfuffle.so.21:_ZNK9Kerfuffle6Plugin22hasRequiredExecutablesEv
libkerfuffle.so.21:_ZNK9Kerfuffle6Plugin7isValidEv
libkerfuffle.so.21:_ZNK9Kerfuffle6Plugin8metaDataEv
libkerfuffle.so.21:_ZNK9Kerfuffle6Plugin8priorityEv
libkerfuffle.so.21:_ZNK9Kerfuffle6Plugin9isEnabledEv
libkerfuffle.so.21:_ZNK9Kerfuffle7Archive10hasCommentEv
libkerfuffle.so.21:_ZNK9Kerfuffle7Archive10isReadOnlyEv
libkerfuffle.so.21:_ZNK9Kerfuffle7Archive10metaObjectEv
libkerfuffle.so.21:_ZNK9Kerfuffle7Archive10packedSizeEv
libkerfuffle.so.21:_ZNK9Kerfuffle7Archive12isSingleFileEv
libkerfuffle.so.21:_ZNK9Kerfuffle7Archive12unpackedSizeEv
libkerfuffle.so.21:_ZNK9Kerfuffle7Archive13isMultiVolumeEv
libkerfuffle.so.21:_ZNK9Kerfuffle7Archive13subfolderNameEv
libkerfuffle.so.21:_ZNK9Kerfuffle7Archive14encryptionTypeEv
libkerfuffle.so.21:_ZNK9Kerfuffle7Archive14isSingleFolderEv
libkerfuffle.so.21:_ZNK9Kerfuffle7Archive15multiVolumeNameEv
libkerfuffle.so.21:_ZNK9Kerfuffle7Archive15numberOfEntriesEv
libkerfuffle.so.21:_ZNK9Kerfuffle7Archive15numberOfVolumesEv
libkerfuffle.so.21:_ZNK9Kerfuffle7Archive16completeBaseNameEv
libkerfuffle.so.21:_ZNK9Kerfuffle7Archive26hasMultipleTopLevelEntriesEv
libkerfuffle.so.21:_ZNK9Kerfuffle7Archive5Entry10findByPathERK11QStringListi
libkerfuffle.so.21:_ZNK9Kerfuffle7Archive5Entry10metaObjectEv
libkerfuffle.so.21:_ZNK9Kerfuffle7Archive5Entry12isExecutableEv
libkerfuffle.so.21:_ZNK9Kerfuffle7Archive5Entry13countChildrenERjS2_
libkerfuffle.so.21:_ZNK9Kerfuffle7Archive5Entry3rowEv
libkerfuffle.so.21:_ZNK9Kerfuffle7Archive5Entry4findE11QStringView
libkerfuffle.so.21:_ZNK9Kerfuffle7Archive5Entry4iconEv
libkerfuffle.so.21:_ZNK9Kerfuffle7Archive5Entry4nameEv
libkerfuffle.so.21:_ZNK9Kerfuffle7Archive5Entry5isDirEv
libkerfuffle.so.21:_ZNK9Kerfuffle7Archive5Entry7entriesEv
libkerfuffle.so.21:_ZNK9Kerfuffle7Archive5Entry8fullPathENS_10PathFormatE
libkerfuffle.so.21:_ZNK9Kerfuffle7Archive5Entry8nameViewEv
libkerfuffle.so.21:_ZNK9Kerfuffle7Archive5Entry9getParentEv
libkerfuffle.so.21:_ZNK9Kerfuffle7Archive5EntryeqERKS1_
libkerfuffle.so.21:_ZNK9Kerfuffle7Archive5errorEv
libkerfuffle.so.21:_ZNK9Kerfuffle7Archive7commentEv
libkerfuffle.so.21:_ZNK9Kerfuffle7Archive7isEmptyEv
libkerfuffle.so.21:_ZNK9Kerfuffle7Archive7isValidEv
libkerfuffle.so.21:_ZNK9Kerfuffle7Archive8fileNameEv
libkerfuffle.so.21:_ZNK9Kerfuffle7Archive8passwordEv
libkerfuffle.so.21:_ZNK9Kerfuffle7CopyJob10metaObjectEv
libkerfuffle.so.21:_ZNK9Kerfuffle7LoadJob10metaObjectEv
libkerfuffle.so.21:_ZNK9Kerfuffle7LoadJob13subfolderNameEv
libkerfuffle.so.21:_ZNK9Kerfuffle7LoadJob18extractedFilesSizeEv
libkerfuffle.so.21:_ZNK9Kerfuffle7LoadJob19isPasswordProtectedEv
libkerfuffle.so.21:_ZNK9Kerfuffle7LoadJob21isSingleFolderArchiveEv
libkerfuffle.so.21:_ZNK9Kerfuffle7MoveJob10metaObjectEv
libkerfuffle.so.21:_ZNK9Kerfuffle7OpenJob10metaObjectEv
libkerfuffle.so.21:_ZNK9Kerfuffle7Options20encryptedArchiveHintEv
libkerfuffle.so.21:_ZNK9Kerfuffle7TestJob10metaObjectEv
libkerfuffle.so.21:_ZNK9Kerfuffle9AddDialog10metaObjectEv
libkerfuffle.so.21:_ZNK9Kerfuffle9AddDialog13selectedFilesEv
libkerfuffle.so.21:_ZNK9Kerfuffle9AddDialog18compressionOptionsEv
libkerfuffle.so.21:_ZNK9Kerfuffle9CreateJob10metaObjectEv
libkerfuffle.so.21:_ZNK9Kerfuffle9DeleteJob10metaObjectEv
libkerfuffle.so.21:_ZTI11ArkSettings
libkerfuffle.so.21:_ZTIN9Kerfuffle10CommentJobE
libkerfuffle.so.21:_ZTIN9Kerfuffle10ExtractJobE
libkerfuffle.so.21:_ZTIN9Kerfuffle10PreviewJobE
libkerfuffle.so.21:_ZTIN9Kerfuffle11OpenWithJobE
libkerfuffle.so.21:_ZTIN9Kerfuffle12AddToArchiveE
libkerfuffle.so.21:_ZTIN9Kerfuffle12CliInterfaceE
libkerfuffle.so.21:_ZTIN9Kerfuffle12CreateDialogE
libkerfuffle.so.21:_ZTIN9Kerfuffle12SettingsPageE
libkerfuffle.so.21:_ZTIN9Kerfuffle13CliPropertiesE
libkerfuffle.so.21:_ZTIN9Kerfuffle13PluginManagerE
libkerfuffle.so.21:_ZTIN9Kerfuffle14OverwriteQueryE
libkerfuffle.so.21:_ZTIN9Kerfuffle14SettingsDialogE
libkerfuffle.so.21:_ZTIN9Kerfuffle14TempExtractJobE
libkerfuffle.so.21:_ZTIN9Kerfuffle15BatchExtractJobE
libkerfuffle.so.21:_ZTIN9Kerfuffle16ExtractionDialogE
libkerfuffle.so.21:_ZTIN9Kerfuffle16LoadCorruptQueryE
libkerfuffle.so.21:_ZTIN9Kerfuffle16PropertiesDialogE
libkerfuffle.so.21:_ZTIN9Kerfuffle18PluginSettingsPageE
libkerfuffle.so.21:_ZTIN9Kerfuffle19GeneralSettingsPageE
libkerfuffle.so.21:_ZTIN9Kerfuffle19PasswordNeededQueryE
libkerfuffle.so.21:_ZTIN9Kerfuffle19PreviewSettingsPageE
libkerfuffle.so.21:_ZTIN9Kerfuffle22ExtractionSettingsPageE
libkerfuffle.so.21:_ZTIN9Kerfuffle23ContinueExtractionQueryE
libkerfuffle.so.21:_ZTIN9Kerfuffle24CompressionOptionsWidgetE
libkerfuffle.so.21:_ZTIN9Kerfuffle24ReadOnlyArchiveInterfaceE
libkerfuffle.so.21:_ZTIN9Kerfuffle25ReadWriteArchiveInterfaceE
libkerfuffle.so.21:_ZTIN9Kerfuffle3Job7PrivateE
libkerfuffle.so.21:_ZTIN9Kerfuffle3JobE
libkerfuffle.so.21:_ZTIN9Kerfuffle5QueryE
libkerfuffle.so.21:_ZTIN9Kerfuffle6AddJobE
libkerfuffle.so.21:_ZTIN9Kerfuffle6PluginE
libkerfuffle.so.21:_ZTIN9Kerfuffle7Archive5EntryE
libkerfuffle.so.21:_ZTIN9Kerfuffle7ArchiveE
libkerfuffle.so.21:_ZTIN9Kerfuffle7CopyJobE
libkerfuffle.so.21:_ZTIN9Kerfuffle7LoadJobE
libkerfuffle.so.21:_ZTIN9Kerfuffle7MoveJobE
libkerfuffle.so.21:_ZTIN9Kerfuffle7OpenJobE
libkerfuffle.so.21:_ZTIN9Kerfuffle7TestJobE
libkerfuffle.so.21:_ZTIN9Kerfuffle9AddDialogE
libkerfuffle.so.21:_ZTIN9Kerfuffle9CreateJobE
libkerfuffle.so.21:_ZTIN9Kerfuffle9DeleteJobE
libkerfuffle.so.21:_ZTS11ArkSettings
libkerfuffle.so.21:_ZTSN9Kerfuffle10CommentJobE
libkerfuffle.so.21:_ZTSN9Kerfuffle10ExtractJobE
libkerfuffle.so.21:_ZTSN9Kerfuffle10PreviewJobE
libkerfuffle.so.21:_ZTSN9Kerfuffle11OpenWithJobE
libkerfuffle.so.21:_ZTSN9Kerfuffle12AddToArchiveE
libkerfuffle.so.21:_ZTSN9Kerfuffle12CliInterfaceE
libkerfuffle.so.21:_ZTSN9Kerfuffle12CreateDialogE
libkerfuffle.so.21:_ZTSN9Kerfuffle12SettingsPageE
libkerfuffle.so.21:_ZTSN9Kerfuffle13CliPropertiesE
libkerfuffle.so.21:_ZTSN9Kerfuffle13PluginManagerE
libkerfuffle.so.21:_ZTSN9Kerfuffle14OverwriteQueryE
libkerfuffle.so.21:_ZTSN9Kerfuffle14SettingsDialogE
libkerfuffle.so.21:_ZTSN9Kerfuffle14TempExtractJobE
libkerfuffle.so.21:_ZTSN9Kerfuffle15BatchExtractJobE
libkerfuffle.so.21:_ZTSN9Kerfuffle16ExtractionDialogE
libkerfuffle.so.21:_ZTSN9Kerfuffle16LoadCorruptQueryE
libkerfuffle.so.21:_ZTSN9Kerfuffle16PropertiesDialogE
libkerfuffle.so.21:_ZTSN9Kerfuffle18PluginSettingsPageE
libkerfuffle.so.21:_ZTSN9Kerfuffle19GeneralSettingsPageE
libkerfuffle.so.21:_ZTSN9Kerfuffle19PasswordNeededQueryE
libkerfuffle.so.21:_ZTSN9Kerfuffle19PreviewSettingsPageE
libkerfuffle.so.21:_ZTSN9Kerfuffle22ExtractionSettingsPageE
libkerfuffle.so.21:_ZTSN9Kerfuffle23ContinueExtractionQueryE
libkerfuffle.so.21:_ZTSN9Kerfuffle24CompressionOptionsWidgetE
libkerfuffle.so.21:_ZTSN9Kerfuffle24ReadOnlyArchiveInterfaceE
libkerfuffle.so.21:_ZTSN9Kerfuffle25ReadWriteArchiveInterfaceE
libkerfuffle.so.21:_ZTSN9Kerfuffle3Job7PrivateE
libkerfuffle.so.21:_ZTSN9Kerfuffle3JobE
libkerfuffle.so.21:_ZTSN9Kerfuffle5QueryE
libkerfuffle.so.21:_ZTSN9Kerfuffle6AddJobE
libkerfuffle.so.21:_ZTSN9Kerfuffle6PluginE
libkerfuffle.so.21:_ZTSN9Kerfuffle7Archive5EntryE
libkerfuffle.so.21:_ZTSN9Kerfuffle7ArchiveE
libkerfuffle.so.21:_ZTSN9Kerfuffle7CopyJobE
libkerfuffle.so.21:_ZTSN9Kerfuffle7LoadJobE
libkerfuffle.so.21:_ZTSN9Kerfuffle7MoveJobE
libkerfuffle.so.21:_ZTSN9Kerfuffle7OpenJobE
libkerfuffle.so.21:_ZTSN9Kerfuffle7TestJobE
libkerfuffle.so.21:_ZTSN9Kerfuffle9AddDialogE
libkerfuffle.so.21:_ZTSN9Kerfuffle9CreateJobE
libkerfuffle.so.21:_ZTSN9Kerfuffle9DeleteJobE
libkerfuffle.so.21:_ZTV11ArkSettings
libkerfuffle.so.21:_ZTVN9Kerfuffle10CommentJobE
libkerfuffle.so.21:_ZTVN9Kerfuffle10ExtractJobE
libkerfuffle.so.21:_ZTVN9Kerfuffle10PreviewJobE
libkerfuffle.so.21:_ZTVN9Kerfuffle11OpenWithJobE
libkerfuffle.so.21:_ZTVN9Kerfuffle12AddToArchiveE
libkerfuffle.so.21:_ZTVN9Kerfuffle12CliInterfaceE
libkerfuffle.so.21:_ZTVN9Kerfuffle12CreateDialogE
libkerfuffle.so.21:_ZTVN9Kerfuffle12SettingsPageE
libkerfuffle.so.21:_ZTVN9Kerfuffle13CliPropertiesE
libkerfuffle.so.21:_ZTVN9Kerfuffle13PluginManagerE
libkerfuffle.so.21:_ZTVN9Kerfuffle14OverwriteQueryE
libkerfuffle.so.21:_ZTVN9Kerfuffle14SettingsDialogE
libkerfuffle.so.21:_ZTVN9Kerfuffle14TempExtractJobE
libkerfuffle.so.21:_ZTVN9Kerfuffle15BatchExtractJobE
libkerfuffle.so.21:_ZTVN9Kerfuffle16ExtractionDialogE
libkerfuffle.so.21:_ZTVN9Kerfuffle16LoadCorruptQueryE
libkerfuffle.so.21:_ZTVN9Kerfuffle16PropertiesDialogE
libkerfuffle.so.21:_ZTVN9Kerfuffle18PluginSettingsPageE
libkerfuffle.so.21:_ZTVN9Kerfuffle19GeneralSettingsPageE
libkerfuffle.so.21:_ZTVN9Kerfuffle19PasswordNeededQueryE
libkerfuffle.so.21:_ZTVN9Kerfuffle19PreviewSettingsPageE
libkerfuffle.so.21:_ZTVN9Kerfuffle22ExtractionSettingsPageE
libkerfuffle.so.21:_ZTVN9Kerfuffle23ContinueExtractionQueryE
libkerfuffle.so.21:_ZTVN9Kerfuffle24CompressionOptionsWidgetE
libkerfuffle.so.21:_ZTVN9Kerfuffle24ReadOnlyArchiveInterfaceE
libkerfuffle.so.21:_ZTVN9Kerfuffle25ReadWriteArchiveInterfaceE
libkerfuffle.so.21:_ZTVN9Kerfuffle3Job7PrivateE
libkerfuffle.so.21:_ZTVN9Kerfuffle3JobE
libkerfuffle.so.21:_ZTVN9Kerfuffle6AddJobE
libkerfuffle.so.21:_ZTVN9Kerfuffle6PluginE
libkerfuffle.so.21:_ZTVN9Kerfuffle7Archive5EntryE
libkerfuffle.so.21:_ZTVN9Kerfuffle7ArchiveE
libkerfuffle.so.21:_ZTVN9Kerfuffle7CopyJobE
libkerfuffle.so.21:_ZTVN9Kerfuffle7LoadJobE
libkerfuffle.so.21:_ZTVN9Kerfuffle7MoveJobE
libkerfuffle.so.21:_ZTVN9Kerfuffle7OpenJobE
libkerfuffle.so.21:_ZTVN9Kerfuffle7TestJobE
libkerfuffle.so.21:_ZTVN9Kerfuffle9AddDialogE
libkerfuffle.so.21:_ZTVN9Kerfuffle9CreateJobE
libkerfuffle.so.21:_ZTVN9Kerfuffle9DeleteJobE
libkerfuffle.so.21:_ZThn16_N9Kerfuffle16ExtractionDialogD0Ev
libkerfuffle.so.21:_ZThn16_N9Kerfuffle16ExtractionDialogD1Ev
libkerfuffle.so.21:_ZThn16_N9Kerfuffle9AddDialogD0Ev
libkerfuffle.so.21:_ZThn16_N9Kerfuffle9AddDialogD1Ev
libkerfuffle.so.21:_ZZZN11ArkSettings24isPreservePathsImmutableEvENKUlvE_clEvE15qstring_literal
libkerfuffle.so.21:_ZZZN11ArkSettings24isShowInfoPanelImmutableEvENKUlvE_clEvE15qstring_literal
libkerfuffle.so.21:_ZZZN11ArkSettings24isSplitterSizesImmutableEvENKUlvE_clEvE15qstring_literal
libkerfuffle.so.21:_ZZZN11ArkSettings26isDisabledPluginsImmutableEvENKUlvE_clEvE15qstring_literal
libkerfuffle.so.21:_ZZZN11ArkSettings28isDefaultOpenActionImmutableEvENKUlvE_clEvE15qstring_literal
libkerfuffle.so.21:_ZZZN11ArkSettings29isExtractToSubfolderImmutableEvENKUlvE_clEvE15qstring_literal
libkerfuffle.so.21:_ZZZN11ArkSettings31isCloseAfterExtractionImmutableEvENKUlvE_clEvE15qstring_literal
libkerfuffle.so.21:_ZZZN11ArkSettings31isLimitPreviewFileSizeImmutableEvENKUlvE_clEvE15qstring_literal
libkerfuffle.so.21:_ZZZN11ArkSettings31isPreviewFileSizeLimitImmutableEvENKUlvE_clEvE15qstring_literal
libkerfuffle.so.21:_ZZZN11ArkSettings32isShowEncryptionWarningImmutableEvENKUlvE_clEvE15qstring_literal
libkerfuffle.so.21:_ZZZN11ArkSettings47isOpenDestinationFolderAfterExtractionImmutableEvENKUlvE_clEvE15qstring_literal
