libQt6NetworkAuth.so.6:Qt_6
libQt6NetworkAuth.so.6:Qt_6.0
libQt6NetworkAuth.so.6:Qt_6.1
libQt6NetworkAuth.so.6:Qt_6.2
libQt6NetworkAuth.so.6:Qt_6.3
libQt6NetworkAuth.so.6:Qt_6.4
libQt6NetworkAuth.so.6:Qt_6.5
libQt6NetworkAuth.so.6:Qt_6_PRIVATE_API
libQt6NetworkAuth.so.6:_ZN14QAbstractOAuth11qt_metacallEN11QMetaObject4CallEiPPv
libQt6NetworkAuth.so.6:_ZN14QAbstractOAuth11qt_metacastEPKc
libQt6NetworkAuth.so.6:_ZN14QAbstractOAuth12tokenChangedERK7QString
libQt6NetworkAuth.so.6:_ZN14QAbstractOAuth13requestFailedENS_5ErrorE
libQt6NetworkAuth.so.6:_ZN14QAbstractOAuth13statusChangedENS_6StatusE
libQt6NetworkAuth.so.6:_ZN14QAbstractOAuth14setContentTypeENS_11ContentTypeE
libQt6NetworkAuth.so.6:_ZN14QAbstractOAuth15setReplyHandlerEP26QAbstractOAuthReplyHandler
libQt6NetworkAuth.so.6:_ZN14QAbstractOAuth16staticMetaObjectE
libQt6NetworkAuth.so.6:_ZN14QAbstractOAuth17replyDataReceivedERK10QByteArray
libQt6NetworkAuth.so.6:_ZN14QAbstractOAuth18contentTypeChangedENS_11ContentTypeE
libQt6NetworkAuth.so.6:_ZN14QAbstractOAuth18extraTokensChangedERK4QMapI7QString8QVariantE
libQt6NetworkAuth.so.6:_ZN14QAbstractOAuth19setAuthorizationUrlERK4QUrl
libQt6NetworkAuth.so.6:_ZN14QAbstractOAuth19setClientIdentifierERK7QString
libQt6NetworkAuth.so.6:_ZN14QAbstractOAuth20authorizeWithBrowserERK4QUrl
libQt6NetworkAuth.so.6:_ZN14QAbstractOAuth20generateRandomStringEh
libQt6NetworkAuth.so.6:_ZN14QAbstractOAuth23authorizationUrlChangedERK4QUrl
libQt6NetworkAuth.so.6:_ZN14QAbstractOAuth23clientIdentifierChangedERK7QString
libQt6NetworkAuth.so.6:_ZN14QAbstractOAuth23setNetworkAccessManagerEP21QNetworkAccessManager
libQt6NetworkAuth.so.6:_ZN14QAbstractOAuth26resourceOwnerAuthorizationERK4QUrlRK9QMultiMapI7QString8QVariantE
libQt6NetworkAuth.so.6:_ZN14QAbstractOAuth27setModifyParametersFunctionERKSt8functionIFvNS_5StageEP9QMultiMapI7QString8QVariantEEE
libQt6NetworkAuth.so.6:_ZN14QAbstractOAuth7grantedEv
libQt6NetworkAuth.so.6:_ZN14QAbstractOAuth8finishedEP13QNetworkReply
libQt6NetworkAuth.so.6:_ZN14QAbstractOAuth8setTokenERK7QString
libQt6NetworkAuth.so.6:_ZN14QAbstractOAuth9setStatusENS_6StatusE
libQt6NetworkAuth.so.6:_ZN14QAbstractOAuthC1ER21QAbstractOAuthPrivateP7QObject
libQt6NetworkAuth.so.6:_ZN14QAbstractOAuthC2ER21QAbstractOAuthPrivateP7QObject
libQt6NetworkAuth.so.6:_ZN14QAbstractOAuthD0Ev
libQt6NetworkAuth.so.6:_ZN14QAbstractOAuthD1Ev
libQt6NetworkAuth.so.6:_ZN14QAbstractOAuthD2Ev
libQt6NetworkAuth.so.6:_ZN15QAbstractOAuth211qt_metacallEN11QMetaObject4CallEiPPv
libQt6NetworkAuth.so.6:_ZN15QAbstractOAuth211qt_metacastEPKc
libQt6NetworkAuth.so.6:_ZN15QAbstractOAuth212scopeChangedERK7QString
libQt6NetworkAuth.so.6:_ZN15QAbstractOAuth212setUserAgentERK7QString
libQt6NetworkAuth.so.6:_ZN15QAbstractOAuth212stateChangedERK7QString
libQt6NetworkAuth.so.6:_ZN15QAbstractOAuth214deleteResourceERK4QUrlRK4QMapI7QString8QVariantE
libQt6NetworkAuth.so.6:_ZN15QAbstractOAuth214prepareRequestEP15QNetworkRequestRK10QByteArrayS4_
libQt6NetworkAuth.so.6:_ZN15QAbstractOAuth215setRefreshTokenERK7QString
libQt6NetworkAuth.so.6:_ZN15QAbstractOAuth215setResponseTypeERK7QString
libQt6NetworkAuth.so.6:_ZN15QAbstractOAuth216staticMetaObjectE
libQt6NetworkAuth.so.6:_ZN15QAbstractOAuth216userAgentChangedERK7QString
libQt6NetworkAuth.so.6:_ZN15QAbstractOAuth219expirationAtChangedERK9QDateTime
libQt6NetworkAuth.so.6:_ZN15QAbstractOAuth219refreshTokenChangedERK7QString
libQt6NetworkAuth.so.6:_ZN15QAbstractOAuth219responseTypeChangedERK7QString
libQt6NetworkAuth.so.6:_ZN15QAbstractOAuth219setSslConfigurationERK17QSslConfiguration
libQt6NetworkAuth.so.6:_ZN15QAbstractOAuth222createAuthenticatedUrlERK4QUrlRK4QMapI7QString8QVariantE
libQt6NetworkAuth.so.6:_ZN15QAbstractOAuth223sslConfigurationChangedERK17QSslConfiguration
libQt6NetworkAuth.so.6:_ZN15QAbstractOAuth228setClientIdentifierSharedKeyERK7QString
libQt6NetworkAuth.so.6:_ZN15QAbstractOAuth229authorizationCallbackReceivedERK4QMapI7QString8QVariantE
libQt6NetworkAuth.so.6:_ZN15QAbstractOAuth232clientIdentifierSharedKeyChangedERK7QString
libQt6NetworkAuth.so.6:_ZN15QAbstractOAuth23getERK4QUrlRK4QMapI7QString8QVariantE
libQt6NetworkAuth.so.6:_ZN15QAbstractOAuth23putERK4QUrlP14QHttpMultiPart
libQt6NetworkAuth.so.6:_ZN15QAbstractOAuth23putERK4QUrlRK10QByteArray
libQt6NetworkAuth.so.6:_ZN15QAbstractOAuth23putERK4QUrlRK4QMapI7QString8QVariantE
libQt6NetworkAuth.so.6:_ZN15QAbstractOAuth24headERK4QUrlRK4QMapI7QString8QVariantE
libQt6NetworkAuth.so.6:_ZN15QAbstractOAuth24postERK4QUrlP14QHttpMultiPart
libQt6NetworkAuth.so.6:_ZN15QAbstractOAuth24postERK4QUrlRK10QByteArray
libQt6NetworkAuth.so.6:_ZN15QAbstractOAuth24postERK4QUrlRK4QMapI7QString8QVariantE
libQt6NetworkAuth.so.6:_ZN15QAbstractOAuth25errorERK7QStringS2_RK4QUrl
libQt6NetworkAuth.so.6:_ZN15QAbstractOAuth28setScopeERK7QString
libQt6NetworkAuth.so.6:_ZN15QAbstractOAuth28setStateERK7QString
libQt6NetworkAuth.so.6:_ZN15QAbstractOAuth2C1EP21QNetworkAccessManagerP7QObject
libQt6NetworkAuth.so.6:_ZN15QAbstractOAuth2C1EP7QObject
libQt6NetworkAuth.so.6:_ZN15QAbstractOAuth2C1ER22QAbstractOAuth2PrivateP7QObject
libQt6NetworkAuth.so.6:_ZN15QAbstractOAuth2C2EP21QNetworkAccessManagerP7QObject
libQt6NetworkAuth.so.6:_ZN15QAbstractOAuth2C2EP7QObject
libQt6NetworkAuth.so.6:_ZN15QAbstractOAuth2C2ER22QAbstractOAuth2PrivateP7QObject
libQt6NetworkAuth.so.6:_ZN15QAbstractOAuth2D0Ev
libQt6NetworkAuth.so.6:_ZN15QAbstractOAuth2D1Ev
libQt6NetworkAuth.so.6:_ZN15QAbstractOAuth2D2Ev
libQt6NetworkAuth.so.6:_ZN16QOAuth1Signature13setParametersERK9QMultiMapI7QString8QVariantE
libQt6NetworkAuth.so.6:_ZN16QOAuth1Signature14addRequestBodyERK9QUrlQuery
libQt6NetworkAuth.so.6:_ZN16QOAuth1Signature14setTokenSecretERK7QString
libQt6NetworkAuth.so.6:_ZN16QOAuth1Signature18setClientSharedKeyERK7QString
libQt6NetworkAuth.so.6:_ZN16QOAuth1Signature20setHttpRequestMethodENS_17HttpRequestMethodE
libQt6NetworkAuth.so.6:_ZN16QOAuth1Signature21setCustomMethodStringERK10QByteArray
libQt6NetworkAuth.so.6:_ZN16QOAuth1Signature4swapERS_
libQt6NetworkAuth.so.6:_ZN16QOAuth1Signature4takeERK7QString
libQt6NetworkAuth.so.6:_ZN16QOAuth1Signature6insertERK7QStringRK8QVariant
libQt6NetworkAuth.so.6:_ZN16QOAuth1Signature6setUrlERK4QUrl
libQt6NetworkAuth.so.6:_ZN16QOAuth1Signature9plainTextERK7QStringS2_
libQt6NetworkAuth.so.6:_ZN16QOAuth1SignatureC1EOS_
libQt6NetworkAuth.so.6:_ZN16QOAuth1SignatureC1ERK4QUrlNS_17HttpRequestMethodERK9QMultiMapI7QString8QVariantE
libQt6NetworkAuth.so.6:_ZN16QOAuth1SignatureC1ERK4QUrlRK7QStringS5_NS_17HttpRequestMethodERK9QMultiMapIS3_8QVariantE
libQt6NetworkAuth.so.6:_ZN16QOAuth1SignatureC1ERKS_
libQt6NetworkAuth.so.6:_ZN16QOAuth1SignatureC2EOS_
libQt6NetworkAuth.so.6:_ZN16QOAuth1SignatureC2ERK4QUrlNS_17HttpRequestMethodERK9QMultiMapI7QString8QVariantE
libQt6NetworkAuth.so.6:_ZN16QOAuth1SignatureC2ERK4QUrlRK7QStringS5_NS_17HttpRequestMethodERK9QMultiMapIS3_8QVariantE
libQt6NetworkAuth.so.6:_ZN16QOAuth1SignatureC2ERKS_
libQt6NetworkAuth.so.6:_ZN16QOAuth1SignatureD1Ev
libQt6NetworkAuth.so.6:_ZN16QOAuth1SignatureD2Ev
libQt6NetworkAuth.so.6:_ZN16QOAuth1SignatureaSEOS_
libQt6NetworkAuth.so.6:_ZN16QOAuth1SignatureaSERKS_
libQt6NetworkAuth.so.6:_ZN21QOAuthOobReplyHandler11qt_metacallEN11QMetaObject4CallEiPPv
libQt6NetworkAuth.so.6:_ZN21QOAuthOobReplyHandler11qt_metacastEPKc
libQt6NetworkAuth.so.6:_ZN21QOAuthOobReplyHandler13parseResponseERK10QByteArray
libQt6NetworkAuth.so.6:_ZN21QOAuthOobReplyHandler16staticMetaObjectE
libQt6NetworkAuth.so.6:_ZN21QOAuthOobReplyHandler20networkReplyFinishedEP13QNetworkReply
libQt6NetworkAuth.so.6:_ZN21QOAuthOobReplyHandlerC1EP7QObject
libQt6NetworkAuth.so.6:_ZN21QOAuthOobReplyHandlerC2EP7QObject
libQt6NetworkAuth.so.6:_ZN26QAbstractOAuthReplyHandler11qt_metacallEN11QMetaObject4CallEiPPv
libQt6NetworkAuth.so.6:_ZN26QAbstractOAuthReplyHandler11qt_metacastEPKc
libQt6NetworkAuth.so.6:_ZN26QAbstractOAuthReplyHandler14tokensReceivedERK4QMapI7QString8QVariantE
libQt6NetworkAuth.so.6:_ZN26QAbstractOAuthReplyHandler16callbackReceivedERK4QMapI7QString8QVariantE
libQt6NetworkAuth.so.6:_ZN26QAbstractOAuthReplyHandler16staticMetaObjectE
libQt6NetworkAuth.so.6:_ZN26QAbstractOAuthReplyHandler17replyDataReceivedERK10QByteArray
libQt6NetworkAuth.so.6:_ZN26QAbstractOAuthReplyHandler20callbackDataReceivedERK10QByteArray
libQt6NetworkAuth.so.6:_ZN26QAbstractOAuthReplyHandlerC1EP7QObject
libQt6NetworkAuth.so.6:_ZN26QAbstractOAuthReplyHandlerC1ER14QObjectPrivateP7QObject
libQt6NetworkAuth.so.6:_ZN26QAbstractOAuthReplyHandlerC2EP7QObject
libQt6NetworkAuth.so.6:_ZN26QAbstractOAuthReplyHandlerC2ER14QObjectPrivateP7QObject
libQt6NetworkAuth.so.6:_ZN26QAbstractOAuthReplyHandlerD0Ev
libQt6NetworkAuth.so.6:_ZN26QAbstractOAuthReplyHandlerD1Ev
libQt6NetworkAuth.so.6:_ZN26QAbstractOAuthReplyHandlerD2Ev
libQt6NetworkAuth.so.6:_ZN28QOAuth2AuthorizationCodeFlow11qt_metacallEN11QMetaObject4CallEiPPv
libQt6NetworkAuth.so.6:_ZN28QOAuth2AuthorizationCodeFlow11qt_metacastEPKc
libQt6NetworkAuth.so.6:_ZN28QOAuth2AuthorizationCodeFlow16staticMetaObjectE
libQt6NetworkAuth.so.6:_ZN28QOAuth2AuthorizationCodeFlow17setAccessTokenUrlERK4QUrl
libQt6NetworkAuth.so.6:_ZN28QOAuth2AuthorizationCodeFlow18refreshAccessTokenEv
libQt6NetworkAuth.so.6:_ZN28QOAuth2AuthorizationCodeFlow18requestAccessTokenERK7QString
libQt6NetworkAuth.so.6:_ZN28QOAuth2AuthorizationCodeFlow20buildAuthenticateUrlERK9QMultiMapI7QString8QVariantE
libQt6NetworkAuth.so.6:_ZN28QOAuth2AuthorizationCodeFlow21accessTokenUrlChangedERK4QUrl
libQt6NetworkAuth.so.6:_ZN28QOAuth2AuthorizationCodeFlow26resourceOwnerAuthorizationERK4QUrlRK9QMultiMapI7QString8QVariantE
libQt6NetworkAuth.so.6:_ZN28QOAuth2AuthorizationCodeFlow5grantEv
libQt6NetworkAuth.so.6:_ZN28QOAuth2AuthorizationCodeFlowC1EP21QNetworkAccessManagerP7QObject
libQt6NetworkAuth.so.6:_ZN28QOAuth2AuthorizationCodeFlowC1EP7QObject
libQt6NetworkAuth.so.6:_ZN28QOAuth2AuthorizationCodeFlowC1ERK4QUrlS2_P21QNetworkAccessManagerP7QObject
libQt6NetworkAuth.so.6:_ZN28QOAuth2AuthorizationCodeFlowC1ERK7QStringP21QNetworkAccessManagerP7QObject
libQt6NetworkAuth.so.6:_ZN28QOAuth2AuthorizationCodeFlowC1ERK7QStringRK4QUrlS5_P21QNetworkAccessManagerP7QObject
libQt6NetworkAuth.so.6:_ZN28QOAuth2AuthorizationCodeFlowC2EP21QNetworkAccessManagerP7QObject
libQt6NetworkAuth.so.6:_ZN28QOAuth2AuthorizationCodeFlowC2EP7QObject
libQt6NetworkAuth.so.6:_ZN28QOAuth2AuthorizationCodeFlowC2ERK4QUrlS2_P21QNetworkAccessManagerP7QObject
libQt6NetworkAuth.so.6:_ZN28QOAuth2AuthorizationCodeFlowC2ERK7QStringP21QNetworkAccessManagerP7QObject
libQt6NetworkAuth.so.6:_ZN28QOAuth2AuthorizationCodeFlowC2ERK7QStringRK4QUrlS5_P21QNetworkAccessManagerP7QObject
libQt6NetworkAuth.so.6:_ZN28QOAuth2AuthorizationCodeFlowD0Ev
libQt6NetworkAuth.so.6:_ZN28QOAuth2AuthorizationCodeFlowD1Ev
libQt6NetworkAuth.so.6:_ZN28QOAuth2AuthorizationCodeFlowD2Ev
libQt6NetworkAuth.so.6:_ZN28QOAuthHttpServerReplyHandler11qt_metacallEN11QMetaObject4CallEiPPv
libQt6NetworkAuth.so.6:_ZN28QOAuthHttpServerReplyHandler11qt_metacastEPKc
libQt6NetworkAuth.so.6:_ZN28QOAuthHttpServerReplyHandler15setCallbackPathERK7QString
libQt6NetworkAuth.so.6:_ZN28QOAuthHttpServerReplyHandler15setCallbackTextERK7QString
libQt6NetworkAuth.so.6:_ZN28QOAuthHttpServerReplyHandler16staticMetaObjectE
libQt6NetworkAuth.so.6:_ZN28QOAuthHttpServerReplyHandler5closeEv
libQt6NetworkAuth.so.6:_ZN28QOAuthHttpServerReplyHandler6listenERK12QHostAddresst
libQt6NetworkAuth.so.6:_ZN28QOAuthHttpServerReplyHandlerC1EP7QObject
libQt6NetworkAuth.so.6:_ZN28QOAuthHttpServerReplyHandlerC1ERK12QHostAddresstP7QObject
libQt6NetworkAuth.so.6:_ZN28QOAuthHttpServerReplyHandlerC1EtP7QObject
libQt6NetworkAuth.so.6:_ZN28QOAuthHttpServerReplyHandlerC2EP7QObject
libQt6NetworkAuth.so.6:_ZN28QOAuthHttpServerReplyHandlerC2ERK12QHostAddresstP7QObject
libQt6NetworkAuth.so.6:_ZN28QOAuthHttpServerReplyHandlerC2EtP7QObject
libQt6NetworkAuth.so.6:_ZN28QOAuthHttpServerReplyHandlerD0Ev
libQt6NetworkAuth.so.6:_ZN28QOAuthHttpServerReplyHandlerD1Ev
libQt6NetworkAuth.so.6:_ZN28QOAuthHttpServerReplyHandlerD2Ev
libQt6NetworkAuth.so.6:_ZN7QOAuth111qt_metacallEN11QMetaObject4CallEiPPv
libQt6NetworkAuth.so.6:_ZN7QOAuth111qt_metacastEPKc
libQt6NetworkAuth.so.6:_ZN7QOAuth114deleteResourceERK4QUrlRK4QMapI7QString8QVariantE
libQt6NetworkAuth.so.6:_ZN7QOAuth114prepareRequestEP15QNetworkRequestRK10QByteArrayS4_
libQt6NetworkAuth.so.6:_ZN7QOAuth114setTokenSecretERK7QString
libQt6NetworkAuth.so.6:_ZN7QOAuth116staticMetaObjectE
libQt6NetworkAuth.so.6:_ZN7QOAuth118setSignatureMethodENS_15SignatureMethodE
libQt6NetworkAuth.so.6:_ZN7QOAuth118tokenSecretChangedERK7QString
libQt6NetworkAuth.so.6:_ZN7QOAuth119setTokenCredentialsERK7QStringS2_
libQt6NetworkAuth.so.6:_ZN7QOAuth119setTokenCredentialsERKSt4pairI7QStringS1_E
libQt6NetworkAuth.so.6:_ZN7QOAuth120setClientCredentialsERK7QStringS2_
libQt6NetworkAuth.so.6:_ZN7QOAuth120setClientCredentialsERKSt4pairI7QStringS1_E
libQt6NetworkAuth.so.6:_ZN7QOAuth121setClientSharedSecretERK7QString
libQt6NetworkAuth.so.6:_ZN7QOAuth122setTokenCredentialsUrlERK4QUrl
libQt6NetworkAuth.so.6:_ZN7QOAuth122signatureMethodChangedENS_15SignatureMethodE
libQt6NetworkAuth.so.6:_ZN7QOAuth123requestTokenCredentialsEN21QNetworkAccessManager9OperationERK4QUrlRKSt4pairI7QStringS6_ERK4QMapIS6_8QVariantE
libQt6NetworkAuth.so.6:_ZN7QOAuth125clientSharedSecretChangedERK7QString
libQt6NetworkAuth.so.6:_ZN7QOAuth125continueGrantWithVerifierERK7QString
libQt6NetworkAuth.so.6:_ZN7QOAuth126setTemporaryCredentialsUrlERK4QUrl
libQt6NetworkAuth.so.6:_ZN7QOAuth126tokenCredentialsUrlChangedERK4QUrl
libQt6NetworkAuth.so.6:_ZN7QOAuth127generateAuthorizationHeaderERK4QMapI7QString8QVariantE
libQt6NetworkAuth.so.6:_ZN7QOAuth127requestTemporaryCredentialsEN21QNetworkAccessManager9OperationERK4QUrlRK4QMapI7QString8QVariantE
libQt6NetworkAuth.so.6:_ZN7QOAuth130temporaryCredentialsUrlChangedERK4QUrl
libQt6NetworkAuth.so.6:_ZN7QOAuth13getERK4QUrlRK4QMapI7QString8QVariantE
libQt6NetworkAuth.so.6:_ZN7QOAuth13putERK4QUrlRK4QMapI7QString8QVariantE
libQt6NetworkAuth.so.6:_ZN7QOAuth14headERK4QUrlRK4QMapI7QString8QVariantE
libQt6NetworkAuth.so.6:_ZN7QOAuth14postERK4QUrlRK4QMapI7QString8QVariantE
libQt6NetworkAuth.so.6:_ZN7QOAuth15grantEv
libQt6NetworkAuth.so.6:_ZN7QOAuth15nonceEv
libQt6NetworkAuth.so.6:_ZN7QOAuth15setupEP15QNetworkRequestRK4QMapI7QString8QVariantEN21QNetworkAccessManager9OperationE
libQt6NetworkAuth.so.6:_ZN7QOAuth15setupEP15QNetworkRequestRK4QMapI7QString8QVariantERK10QByteArray
libQt6NetworkAuth.so.6:_ZN7QOAuth1C1EP21QNetworkAccessManagerP7QObject
libQt6NetworkAuth.so.6:_ZN7QOAuth1C1EP7QObject
libQt6NetworkAuth.so.6:_ZN7QOAuth1C1ERK7QStringS2_P21QNetworkAccessManagerP7QObject
libQt6NetworkAuth.so.6:_ZN7QOAuth1C2EP21QNetworkAccessManagerP7QObject
libQt6NetworkAuth.so.6:_ZN7QOAuth1C2EP7QObject
libQt6NetworkAuth.so.6:_ZN7QOAuth1C2ERK7QStringS2_P21QNetworkAccessManagerP7QObject
libQt6NetworkAuth.so.6:_ZNK14QAbstractOAuth10metaObjectEv
libQt6NetworkAuth.so.6:_ZNK14QAbstractOAuth11contentTypeEv
libQt6NetworkAuth.so.6:_ZNK14QAbstractOAuth11extraTokensEv
libQt6NetworkAuth.so.6:_ZNK14QAbstractOAuth12replyHandlerEv
libQt6NetworkAuth.so.6:_ZNK14QAbstractOAuth16authorizationUrlEv
libQt6NetworkAuth.so.6:_ZNK14QAbstractOAuth16clientIdentifierEv
libQt6NetworkAuth.so.6:_ZNK14QAbstractOAuth20networkAccessManagerEv
libQt6NetworkAuth.so.6:_ZNK14QAbstractOAuth24modifyParametersFunctionEv
libQt6NetworkAuth.so.6:_ZNK14QAbstractOAuth5tokenEv
libQt6NetworkAuth.so.6:_ZNK14QAbstractOAuth6statusEv
libQt6NetworkAuth.so.6:_ZNK14QAbstractOAuth8callbackEv
libQt6NetworkAuth.so.6:_ZNK15QAbstractOAuth210metaObjectEv
libQt6NetworkAuth.so.6:_ZNK15QAbstractOAuth212expirationAtEv
libQt6NetworkAuth.so.6:_ZNK15QAbstractOAuth212refreshTokenEv
libQt6NetworkAuth.so.6:_ZNK15QAbstractOAuth212responseTypeEv
libQt6NetworkAuth.so.6:_ZNK15QAbstractOAuth216sslConfigurationEv
libQt6NetworkAuth.so.6:_ZNK15QAbstractOAuth225clientIdentifierSharedKeyEv
libQt6NetworkAuth.so.6:_ZNK15QAbstractOAuth25scopeEv
libQt6NetworkAuth.so.6:_ZNK15QAbstractOAuth25stateEv
libQt6NetworkAuth.so.6:_ZNK15QAbstractOAuth29userAgentEv
libQt6NetworkAuth.so.6:_ZNK16QOAuth1Signature10parametersEv
libQt6NetworkAuth.so.6:_ZNK16QOAuth1Signature11tokenSecretEv
libQt6NetworkAuth.so.6:_ZNK16QOAuth1Signature15clientSharedKeyEv
libQt6NetworkAuth.so.6:_ZNK16QOAuth1Signature17httpRequestMethodEv
libQt6NetworkAuth.so.6:_ZNK16QOAuth1Signature18customMethodStringEv
libQt6NetworkAuth.so.6:_ZNK16QOAuth1Signature3urlEv
libQt6NetworkAuth.so.6:_ZNK16QOAuth1Signature4keysEv
libQt6NetworkAuth.so.6:_ZNK16QOAuth1Signature5valueERK7QStringRK8QVariant
libQt6NetworkAuth.so.6:_ZNK16QOAuth1Signature7rsaSha1Ev
libQt6NetworkAuth.so.6:_ZNK16QOAuth1Signature8hmacSha1Ev
libQt6NetworkAuth.so.6:_ZNK16QOAuth1Signature9plainTextEv
libQt6NetworkAuth.so.6:_ZNK21QOAuthOobReplyHandler10metaObjectEv
libQt6NetworkAuth.so.6:_ZNK21QOAuthOobReplyHandler8callbackEv
libQt6NetworkAuth.so.6:_ZNK26QAbstractOAuthReplyHandler10metaObjectEv
libQt6NetworkAuth.so.6:_ZNK28QOAuth2AuthorizationCodeFlow10metaObjectEv
libQt6NetworkAuth.so.6:_ZNK28QOAuth2AuthorizationCodeFlow14accessTokenUrlEv
libQt6NetworkAuth.so.6:_ZNK28QOAuthHttpServerReplyHandler10metaObjectEv
libQt6NetworkAuth.so.6:_ZNK28QOAuthHttpServerReplyHandler11isListeningEv
libQt6NetworkAuth.so.6:_ZNK28QOAuthHttpServerReplyHandler12callbackPathEv
libQt6NetworkAuth.so.6:_ZNK28QOAuthHttpServerReplyHandler12callbackTextEv
libQt6NetworkAuth.so.6:_ZNK28QOAuthHttpServerReplyHandler4portEv
libQt6NetworkAuth.so.6:_ZNK28QOAuthHttpServerReplyHandler8callbackEv
libQt6NetworkAuth.so.6:_ZNK7QOAuth110metaObjectEv
libQt6NetworkAuth.so.6:_ZNK7QOAuth111tokenSecretEv
libQt6NetworkAuth.so.6:_ZNK7QOAuth115signatureMethodEv
libQt6NetworkAuth.so.6:_ZNK7QOAuth116tokenCredentialsEv
libQt6NetworkAuth.so.6:_ZNK7QOAuth117clientCredentialsEv
libQt6NetworkAuth.so.6:_ZNK7QOAuth118clientSharedSecretEv
libQt6NetworkAuth.so.6:_ZNK7QOAuth119tokenCredentialsUrlEv
libQt6NetworkAuth.so.6:_ZNK7QOAuth123temporaryCredentialsUrlEv
