libQt6Core.so.6:_Z11qUncompressPKhx
libQt6Core.so.6:_Z15compareThreeWayRK9QDateTimeS1_
libQt6Core.so.6:_Z20qEnvironmentVariablePKc
libQt6Core.so.6:_Z21qRegisterResourceDataiPKhS0_S0_
libQt6Core.so.6:_Z23qUnregisterResourceDataiPKhS0_S0_
libQt6Core.so.6:_Z26qt_QMetaEnum_debugOperatorR6QDebugxPK11QMetaObjectPKc
libQt6Core.so.6:_Z30qt_QMetaEnum_flagDebugOperatorR6QDebugyPK11QMetaObjectPKc
libQt6Core.so.6:_Z5qHash11QStringViewm
libQt6Core.so.6:_Z5qHash14QByteArrayViewm
libQt6Core.so.6:_Z7qgetenvPKc
libQt6Core.so.6:_Z9qBadAllocv
libQt6Core.so.6:_ZN10QArrayData10deallocateEPS_xx
libQt6Core.so.6:_ZN10QArrayData19reallocateUnalignedEPS_PvxxNS_16AllocationOptionE
libQt6Core.so.6:_ZN10QArrayData8allocateEPPS_xxxNS_16AllocationOptionE
libQt6Core.so.6:_ZN10QByteArray10fromBase64ERKS_6QFlagsINS_12Base64OptionEE
libQt6Core.so.6:_ZN10QByteArray11reallocDataExN10QArrayData16AllocationOptionE
libQt6Core.so.6:_ZN10QByteArray14trimmed_helperERKS_
libQt6Core.so.6:_ZN10QByteArray5clearEv
libQt6Core.so.6:_ZN10QByteArray6_emptyE
libQt6Core.so.6:_ZN10QByteArray6appendERKS_
libQt6Core.so.6:_ZN10QByteArray6appendEc
libQt6Core.so.6:_ZN10QByteArray6insertEx14QByteArrayView
libQt6Core.so.6:_ZN10QByteArray6numberEii
libQt6Core.so.6:_ZN10QByteArray6resizeEx
libQt6Core.so.6:_ZN10QByteArray8truncateEx
libQt6Core.so.6:_ZN10QByteArrayC1EPKcx
libQt6Core.so.6:_ZN10QByteArrayC1ExN2Qt14InitializationE
libQt6Core.so.6:_ZN10QByteArrayC1Exc
libQt6Core.so.6:_ZN11QBasicMutex12lockInternalEv
libQt6Core.so.6:_ZN11QBasicMutex15destroyInternalEPv
libQt6Core.so.6:_ZN11QBasicMutex19unlockInternalFutexEPv
libQt6Core.so.6:_ZN11QDataStream11resetStatusEv
libQt6Core.so.6:_ZN11QDataStream11skipRawDataEx
libQt6Core.so.6:_ZN11QDataStream16startTransactionEv
libQt6Core.so.6:_ZN11QDataStream17commitTransactionEv
libQt6Core.so.6:_ZN11QDataStream9setStatusENS_6StatusE
libQt6Core.so.6:_ZN11QDataStreamC1EP10QByteArray6QFlagsIN13QIODeviceBase12OpenModeFlagEE
libQt6Core.so.6:_ZN11QDataStreamC1EP9QIODevice
libQt6Core.so.6:_ZN11QDataStreamC1ERK10QByteArray
libQt6Core.so.6:_ZN11QDataStreamD1Ev
libQt6Core.so.6:_ZN11QDataStreamlsEi
libQt6Core.so.6:_ZN11QDataStreamlsEx
libQt6Core.so.6:_ZN11QDataStreamrsERDi
libQt6Core.so.6:_ZN11QDataStreamrsERi
libQt6Core.so.6:_ZN11QDataStreamrsERx
libQt6Core.so.6:_ZN11QFileDevice5closeEv
libQt6Core.so.6:_ZN11QFileDevice5flushEv
libQt6Core.so.6:_ZN11QMetaObject10ConnectionC1Ev
libQt6Core.so.6:_ZN11QMetaObject10ConnectionD1Ev
libQt6Core.so.6:_ZN11QMetaObject14normalizedTypeEPKc
libQt6Core.so.6:_ZN11QMetaObject8activateEP7QObjectPKS_iPPv
libQt6Core.so.6:_ZN11QTextStream20setAutoDetectUnicodeEb
libQt6Core.so.6:_ZN11QTextStream24setGenerateByteOrderMarkEb
libQt6Core.so.6:_ZN11QTextStream7readAllEv
libQt6Core.so.6:_ZN11QTextStream8readLineEx
libQt6Core.so.6:_ZN11QTextStreamC1EP9QIODevice
libQt6Core.so.6:_ZN11QTextStreamD1Ev
libQt6Core.so.6:_ZN11QTextStreamlsEPKc
libQt6Core.so.6:_ZN11QTextStreamlsEPKv
libQt6Core.so.6:_ZN11QTextStreamlsERK7QString
libQt6Core.so.6:_ZN11QTextStreamlsEc
libQt6Core.so.6:_ZN11QTextStreamlsEi
libQt6Core.so.6:_ZN11QTextStreamlsEx
libQt6Core.so.6:_ZN11QThreadPool14globalInstanceEv
libQt6Core.so.6:_ZN11QThreadPool5startEP9QRunnablei
libQt6Core.so.6:_ZN11QTranslator4loadERK7QStringS2_S2_S2_
libQt6Core.so.6:_ZN11QTranslatorC1EP7QObject
libQt6Core.so.6:_ZN11QTranslatorD1Ev
libQt6Core.so.6:_ZN12QLibraryInfo4pathENS_11LibraryPathE
libQt6Core.so.6:_ZN13QElapsedTimer5startEv
libQt6Core.so.6:_ZN13QElapsedTimer7restartEv
libQt6Core.so.6:_ZN14QDeadlineTimerC1ExN2Qt9TimerTypeE
libQt6Core.so.6:_ZN14QStandardPaths16writableLocationENS_16StandardLocationE
libQt6Core.so.6:_ZN14QStandardPaths9locateAllENS_16StandardLocationERK7QString6QFlagsINS_12LocateOptionEE
libQt6Core.so.6:_ZN14QTemporaryFile4openE6QFlagsIN13QIODeviceBase12OpenModeFlagEE
libQt6Core.so.6:_ZN14QTemporaryFileC1ERK7QString
libQt6Core.so.6:_ZN14QTemporaryFileD1Ev
libQt6Core.so.6:_ZN16QCoreApplication12setAttributeEN2Qt20ApplicationAttributeEb
libQt6Core.so.6:_ZN16QCoreApplication13processEventsE6QFlagsIN10QEventLoop17ProcessEventsFlagEE
libQt6Core.so.6:_ZN16QCoreApplication15applicationNameEv
libQt6Core.so.6:_ZN16QCoreApplication17installTranslatorEP11QTranslator
libQt6Core.so.6:_ZN16QCoreApplication18applicationDirPathEv
libQt6Core.so.6:_ZN16QCoreApplication18applicationVersionEv
libQt6Core.so.6:_ZN16QCoreApplication18setApplicationNameERK7QString
libQt6Core.so.6:_ZN16QCoreApplication19applicationFilePathEv
libQt6Core.so.6:_ZN16QCoreApplication19setOrganizationNameERK7QString
libQt6Core.so.6:_ZN16QCoreApplication21setApplicationVersionERK7QString
libQt6Core.so.6:_ZN16QCoreApplication21setOrganizationDomainERK7QString
libQt6Core.so.6:_ZN16QCoreApplication4selfE
libQt6Core.so.6:_ZN16QCoreApplication9sendEventEP7QObjectP6QEvent
libQt6Core.so.6:_ZN16QCoreApplication9translateEPKcS1_S1_i
libQt6Core.so.6:_ZN16QDebugStateSaverC1ER6QDebug
libQt6Core.so.6:_ZN16QDebugStateSaverD1Ev
libQt6Core.so.6:_ZN16QLoggingCategoryC1EPKc9QtMsgType
libQt6Core.so.6:_ZN16QLoggingCategoryD1Ev
libQt6Core.so.6:_ZN16QRandomGenerator10_fillRangeEPvx
libQt6Core.so.6:_ZN16QStringConverterC2E14QAnyStringView6QFlagsIN20QStringConverterBase4FlagEE
libQt6Core.so.6:_ZN16QXmlStreamReader11addDataImplERK10QByteArray
libQt6Core.so.6:_ZN16QXmlStreamReader18skipCurrentElementEv
libQt6Core.so.6:_ZN16QXmlStreamReader20readNextStartElementEv
libQt6Core.so.6:_ZN16QXmlStreamReader22setNamespaceProcessingEb
libQt6Core.so.6:_ZN16QXmlStreamReader5clearEv
libQt6Core.so.6:_ZN16QXmlStreamReader8readNextEv
libQt6Core.so.6:_ZN16QXmlStreamReader9setDeviceEP9QIODevice
libQt6Core.so.6:_ZN16QXmlStreamReaderC1Ev
libQt6Core.so.6:_ZN16QXmlStreamReaderD1Ev
libQt6Core.so.6:_ZN16QXmlStreamWriter14writeAttributeE14QAnyStringViewS0_
libQt6Core.so.6:_ZN16QXmlStreamWriter14writeNamespaceE14QAnyStringViewS0_
libQt6Core.so.6:_ZN16QXmlStreamWriter15writeAttributesERK20QXmlStreamAttributes
libQt6Core.so.6:_ZN16QXmlStreamWriter15writeCharactersE14QAnyStringView
libQt6Core.so.6:_ZN16QXmlStreamWriter15writeEndElementEv
libQt6Core.so.6:_ZN16QXmlStreamWriter16writeEndDocumentEv
libQt6Core.so.6:_ZN16QXmlStreamWriter17setAutoFormattingEb
libQt6Core.so.6:_ZN16QXmlStreamWriter17writeEmptyElementE14QAnyStringView
libQt6Core.so.6:_ZN16QXmlStreamWriter17writeStartElementE14QAnyStringView
libQt6Core.so.6:_ZN16QXmlStreamWriter18writeStartDocumentE14QAnyStringViewb
libQt6Core.so.6:_ZN16QXmlStreamWriter18writeStartDocumentEv
libQt6Core.so.6:_ZN16QXmlStreamWriter23setAutoFormattingIndentEi
libQt6Core.so.6:_ZN16QXmlStreamWriter8writeDTDE14QAnyStringView
libQt6Core.so.6:_ZN16QXmlStreamWriter9setDeviceEP9QIODevice
libQt6Core.so.6:_ZN16QXmlStreamWriterC1Ev
libQt6Core.so.6:_ZN16QXmlStreamWriterD1Ev
libQt6Core.so.6:_ZN18QAbstractItemModel10insertRowsEiiRK11QModelIndex
libQt6Core.so.6:_ZN18QAbstractItemModel10modelResetENS_14QPrivateSignalE
libQt6Core.so.6:_ZN18QAbstractItemModel10removeRowsEiiRK11QModelIndex
libQt6Core.so.6:_ZN18QAbstractItemModel11dataChangedERK11QModelIndexS2_RK5QListIiE
libQt6Core.so.6:_ZN18QAbstractItemModel11moveColumnsERK11QModelIndexiiS2_i
libQt6Core.so.6:_ZN18QAbstractItemModel11qt_metacallEN11QMetaObject4CallEiPPv
libQt6Core.so.6:_ZN18QAbstractItemModel11qt_metacastEPKc
libQt6Core.so.6:_ZN18QAbstractItemModel11setItemDataERK11QModelIndexRK4QMapIi8QVariantE
libQt6Core.so.6:_ZN18QAbstractItemModel12dropMimeDataEPK9QMimeDataN2Qt10DropActionEiiRK11QModelIndex
libQt6Core.so.6:_ZN18QAbstractItemModel13clearItemDataERK11QModelIndex
libQt6Core.so.6:_ZN18QAbstractItemModel13endInsertRowsEv
libQt6Core.so.6:_ZN18QAbstractItemModel13endRemoveRowsEv
libQt6Core.so.6:_ZN18QAbstractItemModel13endResetModelEv
libQt6Core.so.6:_ZN18QAbstractItemModel13insertColumnsEiiRK11QModelIndex
libQt6Core.so.6:_ZN18QAbstractItemModel13removeColumnsEiiRK11QModelIndex
libQt6Core.so.6:_ZN18QAbstractItemModel13setHeaderDataEiN2Qt11OrientationERK8QVarianti
libQt6Core.so.6:_ZN18QAbstractItemModel15beginInsertRowsERK11QModelIndexii
libQt6Core.so.6:_ZN18QAbstractItemModel15beginRemoveRowsERK11QModelIndexii
libQt6Core.so.6:_ZN18QAbstractItemModel15beginResetModelEv
libQt6Core.so.6:_ZN18QAbstractItemModel16staticMetaObjectE
libQt6Core.so.6:_ZN18QAbstractItemModel17resetInternalDataEv
libQt6Core.so.6:_ZN18QAbstractItemModel4sortEiN2Qt9SortOrderE
libQt6Core.so.6:_ZN18QAbstractItemModel6revertEv
libQt6Core.so.6:_ZN18QAbstractItemModel6submitEv
libQt6Core.so.6:_ZN18QAbstractItemModel7setDataERK11QModelIndexRK8QVarianti
libQt6Core.so.6:_ZN18QAbstractItemModel8moveRowsERK11QModelIndexiiS2_i
libQt6Core.so.6:_ZN18QAbstractItemModel9fetchMoreERK11QModelIndex
libQt6Core.so.6:_ZN18QAbstractItemModelC2EP7QObject
libQt6Core.so.6:_ZN18QAbstractItemModelD2Ev
libQt6Core.so.6:_ZN18QAbstractListModel11qt_metacallEN11QMetaObject4CallEiPPv
libQt6Core.so.6:_ZN18QAbstractListModel11qt_metacastEPKc
libQt6Core.so.6:_ZN18QAbstractListModel16staticMetaObjectE
libQt6Core.so.6:_ZN18QAbstractListModelC2EP7QObject
libQt6Core.so.6:_ZN18QAbstractListModelD2Ev
libQt6Core.so.6:_ZN18QCommandLineOptionD1Ev
libQt6Core.so.6:_ZN18QCommandLineParser13addHelpOptionEv
libQt6Core.so.6:_ZN18QCommandLineParser16addVersionOptionEv
libQt6Core.so.6:_ZN18QCommandLineParser21addPositionalArgumentERK7QStringS2_S2_
libQt6Core.so.6:_ZN18QCommandLineParser25setApplicationDescriptionERK7QString
libQt6Core.so.6:_ZN18QCommandLineParser7processERK16QCoreApplication
libQt6Core.so.6:_ZN18QCommandLineParserC1Ev
libQt6Core.so.6:_ZN18QCommandLineParserD1Ev
libQt6Core.so.6:_ZN18QCryptographicHash7addDataEP9QIODevice
libQt6Core.so.6:_ZN18QCryptographicHashC1ENS_9AlgorithmE
libQt6Core.so.6:_ZN18QCryptographicHashD1Ev
libQt6Core.so.6:_ZN18QFileSystemWatcher10removePathERK7QString
libQt6Core.so.6:_ZN18QFileSystemWatcher11fileChangedERK7QStringNS_14QPrivateSignalE
libQt6Core.so.6:_ZN18QFileSystemWatcher16staticMetaObjectE
libQt6Core.so.6:_ZN18QFileSystemWatcher7addPathERK7QString
libQt6Core.so.6:_ZN18QFileSystemWatcherC1EP7QObject
libQt6Core.so.6:_ZN18QRandomGenerator646globalEv
libQt6Core.so.6:_ZN18QRegularExpressionC1ERK7QString6QFlagsINS_13PatternOptionEE
libQt6Core.so.6:_ZN18QRegularExpressionD1Ev
libQt6Core.so.6:_ZN19QAbstractTableModel11qt_metacallEN11QMetaObject4CallEiPPv
libQt6Core.so.6:_ZN19QAbstractTableModel11qt_metacastEPKc
libQt6Core.so.6:_ZN19QAbstractTableModel12dropMimeDataEPK9QMimeDataN2Qt10DropActionEiiRK11QModelIndex
libQt6Core.so.6:_ZN19QAbstractTableModel16staticMetaObjectE
libQt6Core.so.6:_ZN19QAbstractTableModelC2EP7QObject
libQt6Core.so.6:_ZN19QAbstractTableModelD2Ev
libQt6Core.so.6:_ZN19QItemSelectionModel14currentChangedERK11QModelIndexS2_
libQt6Core.so.6:_ZN19QItemSelectionModel16staticMetaObjectE
libQt6Core.so.6:_ZN19QUnhandledExceptionC1ENSt15__exception_ptr13exception_ptrE
libQt6Core.so.6:_ZN19QUnhandledExceptionD1Ev
libQt6Core.so.6:_ZN20QFutureInterfaceBase11setRunnableEP9QRunnable
libQt6Core.so.6:_ZN20QFutureInterfaceBase13reportStartedEv
libQt6Core.so.6:_ZN20QFutureInterfaceBase13setThreadPoolEP11QThreadPool
libQt6Core.so.6:_ZN20QFutureInterfaceBase13waitForResultEi
libQt6Core.so.6:_ZN20QFutureInterfaceBase14reportCanceledEv
libQt6Core.so.6:_ZN20QFutureInterfaceBase14reportFinishedEv
libQt6Core.so.6:_ZN20QFutureInterfaceBase15reportExceptionERK10QException
libQt6Core.so.6:_ZN20QFutureInterfaceBase15resultStoreBaseEv
libQt6Core.so.6:_ZN20QFutureInterfaceBase15waitForFinishedEv
libQt6Core.so.6:_ZN20QFutureInterfaceBase18reportResultsReadyEii
libQt6Core.so.6:_ZN20QFutureInterfaceBase4swapERS_
libQt6Core.so.6:_ZN20QFutureInterfaceBaseC2ENS_5StateE
libQt6Core.so.6:_ZN20QFutureInterfaceBaseC2ERKS_
libQt6Core.so.6:_ZN20QFutureInterfaceBaseD2Ev
libQt6Core.so.6:_ZN20QStringConverterBase5State5clearEv
libQt6Core.so.6:_ZN20QXmlStreamAttributes6appendERK7QStringS2_
libQt6Core.so.6:_ZN21QPersistentModelIndexD1Ev
libQt6Core.so.6:_ZN21QSortFilterProxyModel20setFilterFixedStringERK7QString
libQt6Core.so.6:_ZN21QSortFilterProxyModel24setFilterCaseSensitivityEN2Qt15CaseSensitivityE
libQt6Core.so.6:_ZN21QSortFilterProxyModelC1EP7QObject
libQt6Core.so.6:_ZN23QRegularExpressionMatchD1Ev
libQt6Core.so.6:_ZN2Qt16staticMetaObjectE
libQt6Core.so.6:_ZN2Qt4endlER11QTextStream
libQt6Core.so.6:_ZN31QRegularExpressionMatchIterator4nextEv
libQt6Core.so.6:_ZN31QRegularExpressionMatchIteratorD1Ev
libQt6Core.so.6:_ZN4QDir11searchPathsERK7QString
libQt6Core.so.6:_ZN4QDir14setSearchPathsERK7QStringRK5QListIS0_E
libQt6Core.so.6:_ZN4QDir17removeRecursivelyEv
libQt6Core.so.6:_ZN4QDir18toNativeSeparatorsERK7QString
libQt6Core.so.6:_ZN4QDir20fromNativeSeparatorsERK7QString
libQt6Core.so.6:_ZN4QDir4cdUpEv
libQt6Core.so.6:_ZN4QDir6removeERK7QString
libQt6Core.so.6:_ZN4QDir6renameERK7QStringS2_
libQt6Core.so.6:_ZN4QDir8homePathEv
libQt6Core.so.6:_ZN4QDir8rootPathEv
libQt6Core.so.6:_ZN4QDir8tempPathEv
libQt6Core.so.6:_ZN4QDir9cleanPathERK7QString
libQt6Core.so.6:_ZN4QDirC1ERK7QString
libQt6Core.so.6:_ZN4QDirC1ERK7QStringS2_6QFlagsINS_8SortFlagEES3_INS_6FilterEE
libQt6Core.so.6:_ZN4QDirD1Ev
libQt6Core.so.6:_ZN4QUrl13fromLocalFileERK7QString
libQt6Core.so.6:_ZN4QUrl19fromPercentEncodingERK10QByteArray
libQt6Core.so.6:_ZN4QUrlD1Ev
libQt6Core.so.6:_ZN5QChar10digitValueEDi
libQt6Core.so.6:_ZN5QChar14isSpace_helperEDi
libQt6Core.so.6:_ZN5QChar23isLetterOrNumber_helperEDi
libQt6Core.so.6:_ZN5QChar7isPrintEDi
libQt6Core.so.6:_ZN5QChar8categoryEDi
libQt6Core.so.6:_ZN5QDate10fromStringE11QStringViewN2Qt10DateFormatE
libQt6Core.so.6:_ZN5QDate11currentDateEv
libQt6Core.so.6:_ZN5QDateC1Eiii
libQt6Core.so.6:_ZN5QFile14setPermissionsE6QFlagsIN11QFileDevice10PermissionEE
libQt6Core.so.6:_ZN5QFile14setPermissionsERK7QString6QFlagsIN11QFileDevice10PermissionEE
libQt6Core.so.6:_ZN5QFile16staticMetaObjectE
libQt6Core.so.6:_ZN5QFile4copyERK7QStringS2_
libQt6Core.so.6:_ZN5QFile4linkERK7QStringS2_
libQt6Core.so.6:_ZN5QFile4openE6QFlagsIN13QIODeviceBase12OpenModeFlagEE
libQt6Core.so.6:_ZN5QFile6existsERK7QString
libQt6Core.so.6:_ZN5QFile6removeERK7QString
libQt6Core.so.6:_ZN5QFile6removeEv
libQt6Core.so.6:_ZN5QFile6renameERK7QStringS2_
libQt6Core.so.6:_ZN5QFileC1ERK7QString
libQt6Core.so.6:_ZN5QFileD1Ev
libQt6Core.so.6:_ZN5QTime10fromStringE11QStringViewN2Qt10DateFormatE
libQt6Core.so.6:_ZN5QTime11currentTimeEv
libQt6Core.so.6:_ZN5QTimeC1Eiiii
libQt6Core.so.6:_ZN5QUuid10createUuidEv
libQt6Core.so.6:_ZN6QDebug12putByteArrayEPKcmNS_13Latin1ContentE
libQt6Core.so.6:_ZN6QDebug9putStringEPK5QCharm
libQt6Core.so.6:_ZN6QDebugD1Ev
libQt6Core.so.6:_ZN6QEventC1ENS_4TypeE
libQt6Core.so.6:_ZN6QEventD1Ev
libQt6Core.so.6:_ZN6QTimer11setIntervalEi
libQt6Core.so.6:_ZN6QTimer13setSingleShotEb
libQt6Core.so.6:_ZN6QTimer14singleShotImplENSt6chrono8durationIlSt5ratioILl1ELl1000000000EEEEN2Qt9TimerTypeEPK7QObjectPN9QtPrivate15QSlotObjectBaseE
libQt6Core.so.6:_ZN6QTimer16staticMetaObjectE
libQt6Core.so.6:_ZN6QTimer4stopEv
libQt6Core.so.6:_ZN6QTimer5startENSt6chrono8durationIlSt5ratioILl1ELl1000EEEE
libQt6Core.so.6:_ZN6QTimer5startEi
libQt6Core.so.6:_ZN6QTimer5startEv
libQt6Core.so.6:_ZN6QTimer7timeoutENS_14QPrivateSignalE
libQt6Core.so.6:_ZN6QTimerC1EP7QObject
libQt6Core.so.6:_ZN7QBuffer4openE6QFlagsIN13QIODeviceBase12OpenModeFlagEE
libQt6Core.so.6:_ZN7QBuffer5closeEv
libQt6Core.so.6:_ZN7QBuffer7setDataERK10QByteArray
libQt6Core.so.6:_ZN7QBufferC1EP10QByteArrayP7QObject
libQt6Core.so.6:_ZN7QBufferC1EP7QObject
libQt6Core.so.6:_ZN7QBufferD1Ev
libQt6Core.so.6:_ZN7QLocale10setDefaultERKS_
libQt6Core.so.6:_ZN7QLocaleC1E11QStringView
libQt6Core.so.6:_ZN7QLocaleC1Ev
libQt6Core.so.6:_ZN7QLocaleD1Ev
libQt6Core.so.6:_ZN7QLocaleaSERKS_
libQt6Core.so.6:_ZN7QObject10childEventEP11QChildEvent
libQt6Core.so.6:_ZN7QObject10disconnectERKN11QMetaObject10ConnectionE
libQt6Core.so.6:_ZN7QObject10timerEventEP11QTimerEvent
libQt6Core.so.6:_ZN7QObject11connectImplEPKS_PPvS1_S3_PN9QtPrivate15QSlotObjectBaseEN2Qt14ConnectionTypeEPKiPK11QMetaObject
libQt6Core.so.6:_ZN7QObject11customEventEP6QEvent
libQt6Core.so.6:_ZN7QObject11deleteLaterEv
libQt6Core.so.6:_ZN7QObject11eventFilterEPS_P6QEvent
libQt6Core.so.6:_ZN7QObject11qt_metacallEN11QMetaObject4CallEiPPv
libQt6Core.so.6:_ZN7QObject11qt_metacastEPKc
libQt6Core.so.6:_ZN7QObject12blockSignalsEb
libQt6Core.so.6:_ZN7QObject12moveToThreadEP7QThreadN2Qt15Disambiguated_tE
libQt6Core.so.6:_ZN7QObject13connectNotifyERK11QMetaMethod
libQt6Core.so.6:_ZN7QObject14disconnectImplEPKS_PPvS1_S3_PK11QMetaObject
libQt6Core.so.6:_ZN7QObject16disconnectNotifyERK11QMetaMethod
libQt6Core.so.6:_ZN7QObject16staticMetaObjectE
libQt6Core.so.6:_ZN7QObject17removeEventFilterEPS_
libQt6Core.so.6:_ZN7QObject18installEventFilterEPS_
libQt6Core.so.6:_ZN7QObject5eventEP6QEvent
libQt6Core.so.6:_ZN7QObject9destroyedEPS_
libQt6Core.so.6:_ZN7QObjectC2EPS_
libQt6Core.so.6:_ZN7QObjectD2Ev
libQt6Core.so.6:_ZN7QString10fromLatin1E14QByteArrayView
libQt6Core.so.6:_ZN7QString11reallocDataExN10QArrayData16AllocationOptionE
libQt6Core.so.6:_ZN7QString13fromLocal8BitE14QByteArrayView
libQt6Core.so.6:_ZN7QString13sliced_helperERS_xx
libQt6Core.so.6:_ZN7QString13toUtf8_helperERKS_
libQt6Core.so.6:_ZN7QString14compare_helperEPK5QCharxPKcxN2Qt15CaseSensitivityE
libQt6Core.so.6:_ZN7QString14toLower_helperERKS_
libQt6Core.so.6:_ZN7QString14toLower_helperERS_
libQt6Core.so.6:_ZN7QString14toUpper_helperERS_
libQt6Core.so.6:_ZN7QString14trimmed_helperERS_
libQt6Core.so.6:_ZN7QString17simplified_helperERKS_
libQt6Core.so.6:_ZN7QString17simplified_helperERS_
libQt6Core.so.6:_ZN7QString17toIntegral_helperE11QStringViewPbi
libQt6Core.so.6:_ZN7QString17toIntegral_helperE11QStringViewPbj
libQt6Core.so.6:_ZN7QString18toLocal8Bit_helperEPK5QCharx
libQt6Core.so.6:_ZN7QString4chopEx
libQt6Core.so.6:_ZN7QString6_emptyE
libQt6Core.so.6:_ZN7QString6appendE20QBasicUtf8StringViewILb0EE
libQt6Core.so.6:_ZN7QString6appendE5QChar
libQt6Core.so.6:_ZN7QString6appendEPK5QCharx
libQt6Core.so.6:_ZN7QString6appendERKS_
libQt6Core.so.6:_ZN7QString6assignE14QAnyStringView
libQt6Core.so.6:_ZN7QString6insertEx20QBasicUtf8StringViewILb0EE
libQt6Core.so.6:_ZN7QString6insertEx5QChar
libQt6Core.so.6:_ZN7QString6insertExPK5QCharx
libQt6Core.so.6:_ZN7QString6numberEdci
libQt6Core.so.6:_ZN7QString6numberEii
libQt6Core.so.6:_ZN7QString6numberEji
libQt6Core.so.6:_ZN7QString6removeE5QCharN2Qt15CaseSensitivityE
libQt6Core.so.6:_ZN7QString6removeERKS_N2Qt15CaseSensitivityE
libQt6Core.so.6:_ZN7QString6removeExx
libQt6Core.so.6:_ZN7QString7replaceE13QLatin1StringS0_N2Qt15CaseSensitivityE
libQt6Core.so.6:_ZN7QString7replaceE5QCharS0_N2Qt15CaseSensitivityE
libQt6Core.so.6:_ZN7QString7replaceERK18QRegularExpressionRKS_
libQt6Core.so.6:_ZN7QString7replaceERKS_13QLatin1StringN2Qt15CaseSensitivityE
libQt6Core.so.6:_ZN7QString7replaceERKS_S1_N2Qt15CaseSensitivityE
libQt6Core.so.6:_ZN7QString7replaceExxRKS_
libQt6Core.so.6:_ZN7QString8fromUcs4EPKDix
libQt6Core.so.6:_ZN7QString8fromUtf8E14QByteArrayView
libQt6Core.so.6:_ZN7QString8truncateEx
libQt6Core.so.6:_ZN7QStringC1E5QChar
libQt6Core.so.6:_ZN7QStringC1EPK5QCharx
libQt6Core.so.6:_ZN7QStringC1Ex5QChar
libQt6Core.so.6:_ZN7QStringC1ExN2Qt14InitializationE
libQt6Core.so.6:_ZN7QStringaSERKS_
libQt6Core.so.6:_ZN7QThread11qt_metacallEN11QMetaObject4CallEiPPv
libQt6Core.so.6:_ZN7QThread11qt_metacastEPKc
libQt6Core.so.6:_ZN7QThread16staticMetaObjectE
libQt6Core.so.6:_ZN7QThread4quitEv
libQt6Core.so.6:_ZN7QThread4waitE14QDeadlineTimer
libQt6Core.so.6:_ZN7QThread5eventEP6QEvent
libQt6Core.so.6:_ZN7QThread5startENS_8PriorityE
libQt6Core.so.6:_ZN7QThreadC1EP7QObject
libQt6Core.so.6:_ZN7QThreadC2EP7QObject
libQt6Core.so.6:_ZN7QThreadD2Ev
libQt6Core.so.6:_ZN8QLibrary4loadEv
libQt6Core.so.6:_ZN8QLibrary7resolveEPKc
libQt6Core.so.6:_ZN8QLibraryC1ERK7QStringP7QObject
libQt6Core.so.6:_ZN8QLibraryD1Ev
libQt6Core.so.6:_ZN8QVariant13moveConstructE9QMetaTypePv
libQt6Core.so.6:_ZN8QVariantC1E13QLatin1String
libQt6Core.so.6:_ZN8QVariantC1E5QSize
libQt6Core.so.6:_ZN8QVariantC1ERK10QByteArray
libQt6Core.so.6:_ZN8QVariantC1ERK5QHashI7QStringS_E
libQt6Core.so.6:_ZN8QVariantC1ERK5QListI7QStringE
libQt6Core.so.6:_ZN8QVariantC1ERK5QListIS_E
libQt6Core.so.6:_ZN8QVariantC1ERK7QString
libQt6Core.so.6:_ZN8QVariantC1ERKS_
libQt6Core.so.6:_ZN8QVariantC1Eb
libQt6Core.so.6:_ZN8QVariantC1Ed
libQt6Core.so.6:_ZN8QVariantC1Ei
libQt6Core.so.6:_ZN8QVariantC1Ej
libQt6Core.so.6:_ZN8QVariantC1Ey
libQt6Core.so.6:_ZN8QVariantD1Ev
libQt6Core.so.6:_ZN9QDateTime10fromStringE11QStringViewN2Qt10DateFormatE
libQt6Core.so.6:_ZN9QDateTime15currentDateTimeEv
libQt6Core.so.6:_ZN9QDateTime18currentDateTimeUtcEv
libQt6Core.so.6:_ZN9QDateTime7setDateE5QDateNS_20TransitionResolutionE
libQt6Core.so.6:_ZN9QDateTime7setTimeE5QTimeNS_20TransitionResolutionE
libQt6Core.so.6:_ZN9QDateTimeC1E5QDate5QTimeNS_20TransitionResolutionE
libQt6Core.so.6:_ZN9QDateTimeC1EOS_
libQt6Core.so.6:_ZN9QDateTimeC1ERKS_
libQt6Core.so.6:_ZN9QDateTimeC1Ev
libQt6Core.so.6:_ZN9QDateTimeD1Ev
libQt6Core.so.6:_ZN9QDateTimeaSERKS_
libQt6Core.so.6:_ZN9QFileInfoC1ERK7QString
libQt6Core.so.6:_ZN9QFileInfoD1Ev
libQt6Core.so.6:_ZN9QHashSeed10globalSeedEv
libQt6Core.so.6:_ZN9QIODevice16staticMetaObjectE
libQt6Core.so.6:_ZN9QIODevice18setTextModeEnabledEb
libQt6Core.so.6:_ZN9QIODevice4peekEPcx
libQt6Core.so.6:_ZN9QIODevice4peekEx
libQt6Core.so.6:_ZN9QIODevice4readEPcx
libQt6Core.so.6:_ZN9QIODevice4readEx
libQt6Core.so.6:_ZN9QIODevice5writeEPKc
libQt6Core.so.6:_ZN9QIODevice5writeEPKcx
libQt6Core.so.6:_ZN9QIODevice5writeERK10QByteArray
libQt6Core.so.6:_ZN9QIODevice7readAllEv
libQt6Core.so.6:_ZN9QIODevice9readyReadEv
libQt6Core.so.6:_ZN9QLockFile16setStaleLockTimeENSt6chrono8durationIlSt5ratioILl1ELl1000EEEE
libQt6Core.so.6:_ZN9QLockFile7tryLockENSt6chrono8durationIlSt5ratioILl1ELl1000EEEE
libQt6Core.so.6:_ZN9QLockFileC1ERK7QString
libQt6Core.so.6:_ZN9QLockFileD1Ev
libQt6Core.so.6:_ZN9QMetaType14registerHelperEPKN9QtPrivate18QMetaTypeInterfaceE
libQt6Core.so.6:_ZN9QMetaType25registerNormalizedTypedefERK10QByteArrayS_
libQt6Core.so.6:_ZN9QMetaType7convertES_PKvS_Pv
libQt6Core.so.6:_ZN9QMimeData7setDataERK7QStringRK10QByteArray
libQt6Core.so.6:_ZN9QMimeData7setHtmlERK7QString
libQt6Core.so.6:_ZN9QMimeData7setTextERK7QString
libQt6Core.so.6:_ZN9QMimeDataC1Ev
libQt6Core.so.6:_ZN9QRunnableD2Ev
libQt6Core.so.6:_ZN9QSettings10beginGroupE14QAnyStringView
libQt6Core.so.6:_ZN9QSettings16setDefaultFormatENS_6FormatE
libQt6Core.so.6:_ZN9QSettings4syncEv
libQt6Core.so.6:_ZN9QSettings6removeE14QAnyStringView
libQt6Core.so.6:_ZN9QSettings7setPathENS_6FormatENS_5ScopeERK7QString
libQt6Core.so.6:_ZN9QSettings8endGroupEv
libQt6Core.so.6:_ZN9QSettings8setValueE14QAnyStringViewRK8QVariant
libQt6Core.so.6:_ZN9QSettingsC1EP7QObject
libQt6Core.so.6:_ZN9QSettingsC1ERK7QStringNS_6FormatEP7QObject
libQt6Core.so.6:_ZN9QSettingsD1Ev
libQt6Core.so.6:_ZN9QTimeLine12setDirectionENS_9DirectionE
libQt6Core.so.6:_ZN9QTimeLine12valueChangedEdNS_14QPrivateSignalE
libQt6Core.so.6:_ZN9QTimeLine16staticMetaObjectE
libQt6Core.so.6:_ZN9QTimeLine5startEv
libQt6Core.so.6:_ZN9QTimeLine8finishedENS_14QPrivateSignalE
libQt6Core.so.6:_ZN9QTimeLineC1EiP7QObject
libQt6Core.so.6:_ZN9QtPrivate10findStringE11QStringViewxS0_N2Qt15CaseSensitivityE
libQt6Core.so.6:_ZN9QtPrivate10startsWithE14QByteArrayViewS0_
libQt6Core.so.6:_ZN9QtPrivate11lastIndexOfE11QStringViewxDsN2Qt15CaseSensitivityE
libQt6Core.so.6:_ZN9QtPrivate11lastIndexOfE11QStringViewxS0_N2Qt15CaseSensitivityE
libQt6Core.so.6:_ZN9QtPrivate12argToQStringE14QAnyStringViewmPPKNS_7ArgBaseE
libQt6Core.so.6:_ZN9QtPrivate12equalStringsE11QStringView13QLatin1String
libQt6Core.so.6:_ZN9QtPrivate12equalStringsE11QStringViewS0_
libQt6Core.so.6:_ZN9QtPrivate12equalStringsE13QLatin1String11QStringView
libQt6Core.so.6:_ZN9QtPrivate13findByteArrayE14QByteArrayViewxS0_
libQt6Core.so.6:_ZN9QtPrivate15ResultStoreBase9addResultEiPKv
libQt6Core.so.6:_ZN9QtPrivate16QStringList_joinEPK5QListI7QStringEPK5QCharx
libQt6Core.so.6:_ZN9QtPrivate16QStringList_joinERK5QListI7QStringE13QLatin1String
libQt6Core.so.6:_ZN9QtPrivate16QStringList_sortEP5QListI7QStringEN2Qt15CaseSensitivityE
libQt6Core.so.6:_ZN9QtPrivate19QStringList_indexOfEPK5QListI7QStringERK18QRegularExpressionx
libQt6Core.so.6:_ZN9QtPrivate20QStringList_containsEPK5QListI7QStringE11QStringViewN2Qt15CaseSensitivityE
libQt6Core.so.6:_ZN9QtPrivate25QMetaTypeInterfaceWrapperI10QByteArrayE8metaTypeE
libQt6Core.so.6:_ZN9QtPrivate25QMetaTypeInterfaceWrapperI11QModelIndexE8metaTypeE
libQt6Core.so.6:_ZN9QtPrivate25QMetaTypeInterfaceWrapperI5QRectE8metaTypeE
libQt6Core.so.6:_ZN9QtPrivate25QMetaTypeInterfaceWrapperI5QTimeE8metaTypeE
libQt6Core.so.6:_ZN9QtPrivate25QMetaTypeInterfaceWrapperI6QPointE8metaTypeE
libQt6Core.so.6:_ZN9QtPrivate25QMetaTypeInterfaceWrapperI7QStringE8metaTypeE
libQt6Core.so.6:_ZN9QtPrivate25QMetaTypeInterfaceWrapperIP7QObjectE8metaTypeE
libQt6Core.so.6:_ZN9QtPrivate25QMetaTypeInterfaceWrapperIbE8metaTypeE
libQt6Core.so.6:_ZN9QtPrivate25QMetaTypeInterfaceWrapperIiE8metaTypeE
libQt6Core.so.6:_ZN9QtPrivate28QStringList_removeDuplicatesEP5QListI7QStringE
libQt6Core.so.6:_ZN9QtPrivate28QStringList_replaceInStringsEP5QListI7QStringE11QStringViewS4_N2Qt15CaseSensitivityE
libQt6Core.so.6:_ZN9QtPrivate28QStringList_replaceInStringsEP5QListI7QStringERK18QRegularExpressionRKS1_
libQt6Core.so.6:_ZN9QtPrivate8qustrchrE11QStringViewDs
libQt6Core.so.6:_ZNK10QByteArray11toStdStringB5cxx11Ev
libQt6Core.so.6:_ZNK10QByteArray5toHexEc
libQt6Core.so.6:_ZNK10QByteArray5toIntEPbi
libQt6Core.so.6:_ZNK10QByteArray8toBase64E6QFlagsINS_12Base64OptionEE
libQt6Core.so.6:_ZNK11QDataStream26isDeviceTransactionStartedEv
libQt6Core.so.6:_ZNK11QFileDevice5atEndEv
libQt6Core.so.6:_ZNK11QFileDevice5errorEv
libQt6Core.so.6:_ZNK11QFileDevice6handleEv
libQt6Core.so.6:_ZNK11QMetaObject2trEPKcS1_i
libQt6Core.so.6:_ZNK11QMetaObject4castEPK7QObject
libQt6Core.so.6:_ZNK11QMetaObject9classNameEv
libQt6Core.so.6:_ZNK11QObjectData17dynamicMetaObjectEv
libQt6Core.so.6:_ZNK11QTextStream5atEndEv
libQt6Core.so.6:_ZNK11QTextStream6statusEv
libQt6Core.so.6:_ZNK14QDeadlineTimer10hasExpiredEv
libQt6Core.so.6:_ZNK14QDeadlineTimer13remainingTimeEv
libQt6Core.so.6:_ZNK14QItemSelection7indexesEv
libQt6Core.so.6:_ZNK14QMessageLogger5debugEPKcz
libQt6Core.so.6:_ZNK14QMessageLogger5debugEv
libQt6Core.so.6:_ZNK14QMessageLogger5fatalEPKcz
libQt6Core.so.6:_ZNK14QMessageLogger7warningEPKcz
libQt6Core.so.6:_ZNK14QMessageLogger7warningEv
libQt6Core.so.6:_ZNK14QTemporaryFile8fileNameEv
libQt6Core.so.6:_ZNK16QXmlStreamReader10attributesEv
libQt6Core.so.6:_ZNK16QXmlStreamReader11errorStringEv
libQt6Core.so.6:_ZNK16QXmlStreamReader12isWhitespaceEv
libQt6Core.so.6:_ZNK16QXmlStreamReader13qualifiedNameEv
libQt6Core.so.6:_ZNK16QXmlStreamReader4textEv
libQt6Core.so.6:_ZNK16QXmlStreamReader5errorEv
libQt6Core.so.6:_ZNK16QXmlStreamReader9tokenTypeEv
libQt6Core.so.6:_ZNK16QXmlStreamWriter8hasErrorEv
libQt6Core.so.6:_ZNK18QAbstractItemModel10headerDataEiN2Qt11OrientationEi
libQt6Core.so.6:_ZNK18QAbstractItemModel11hasChildrenERK11QModelIndex
libQt6Core.so.6:_ZNK18QAbstractItemModel12canFetchMoreERK11QModelIndex
libQt6Core.so.6:_ZNK18QAbstractItemModel15canDropMimeDataEPK9QMimeDataN2Qt10DropActionEiiRK11QModelIndex
libQt6Core.so.6:_ZNK18QAbstractItemModel20supportedDragActionsEv
libQt6Core.so.6:_ZNK18QAbstractItemModel20supportedDropActionsEv
libQt6Core.so.6:_ZNK18QAbstractItemModel4spanERK11QModelIndex
libQt6Core.so.6:_ZNK18QAbstractItemModel5buddyERK11QModelIndex
libQt6Core.so.6:_ZNK18QAbstractItemModel5matchERK11QModelIndexiRK8QVarianti6QFlagsIN2Qt9MatchFlagEE
libQt6Core.so.6:_ZNK18QAbstractItemModel7siblingEiiRK11QModelIndex
libQt6Core.so.6:_ZNK18QAbstractItemModel8itemDataERK11QModelIndex
libQt6Core.so.6:_ZNK18QAbstractItemModel8mimeDataERK5QListI11QModelIndexE
libQt6Core.so.6:_ZNK18QAbstractItemModel9mimeTypesEv
libQt6Core.so.6:_ZNK18QAbstractItemModel9multiDataERK11QModelIndex18QModelRoleDataSpan
libQt6Core.so.6:_ZNK18QAbstractItemModel9roleNamesEv
libQt6Core.so.6:_ZNK18QAbstractListModel11columnCountERK11QModelIndex
libQt6Core.so.6:_ZNK18QAbstractListModel11hasChildrenERK11QModelIndex
libQt6Core.so.6:_ZNK18QAbstractListModel5flagsERK11QModelIndex
libQt6Core.so.6:_ZNK18QAbstractListModel5indexEiiRK11QModelIndex
libQt6Core.so.6:_ZNK18QAbstractListModel6parentERK11QModelIndex
libQt6Core.so.6:_ZNK18QAbstractListModel7siblingEiiRK11QModelIndex
libQt6Core.so.6:_ZNK18QCommandLineParser19positionalArgumentsEv
libQt6Core.so.6:_ZNK18QCryptographicHash6resultEv
libQt6Core.so.6:_ZNK18QRegularExpression11globalMatchERK7QStringxNS_9MatchTypeE6QFlagsINS_11MatchOptionEE
libQt6Core.so.6:_ZNK18QRegularExpression5matchERK7QStringxNS_9MatchTypeE6QFlagsINS_11MatchOptionEE
libQt6Core.so.6:_ZNK19QAbstractTableModel11hasChildrenERK11QModelIndex
libQt6Core.so.6:_ZNK19QAbstractTableModel5indexEiiRK11QModelIndex
libQt6Core.so.6:_ZNK19QAbstractTableModel6parentERK11QModelIndex
libQt6Core.so.6:_ZNK19QAbstractTableModel7siblingEiiRK11QModelIndex
libQt6Core.so.6:_ZNK19QItemSelectionModel9selectionEv
libQt6Core.so.6:_ZNK20QFutureInterfaceBase10isCanceledEv
libQt6Core.so.6:_ZNK20QFutureInterfaceBase10queryStateENS_5StateE
libQt6Core.so.6:_ZNK20QFutureInterfaceBase11resultCountEv
libQt6Core.so.6:_ZNK20QFutureInterfaceBase12hasExceptionEv
libQt6Core.so.6:_ZNK20QFutureInterfaceBase15resultStoreBaseEv
libQt6Core.so.6:_ZNK20QFutureInterfaceBase15runContinuationEv
libQt6Core.so.6:_ZNK20QFutureInterfaceBase4refTEv
libQt6Core.so.6:_ZNK20QFutureInterfaceBase5mutexEv
libQt6Core.so.6:_ZNK20QFutureInterfaceBase6derefTEv
libQt6Core.so.6:_ZNK20QXmlStreamAttributes5valueE14QAnyStringView
libQt6Core.so.6:_ZNK23QRegularExpressionMatch8capturedEi
libQt6Core.so.6:_ZNK23QRegularExpressionMatch8hasMatchEv
libQt6Core.so.6:_ZNK31QRegularExpressionMatchIterator7hasNextEv
libQt6Core.so.6:_ZNK4QDir11nameFiltersEv
libQt6Core.so.6:_ZNK4QDir12absolutePathEv
libQt6Core.so.6:_ZNK4QDir16absoluteFilePathERK7QString
libQt6Core.so.6:_ZNK4QDir5mkdirERK7QStringSt8optionalI6QFlagsIN11QFileDevice10PermissionEEE
libQt6Core.so.6:_ZNK4QDir5rmdirERK7QString
libQt6Core.so.6:_ZNK4QDir6existsERK7QString
libQt6Core.so.6:_ZNK4QDir6existsEv
libQt6Core.so.6:_ZNK4QDir6mkpathERK7QStringSt8optionalI6QFlagsIN11QFileDevice10PermissionEEE
libQt6Core.so.6:_ZNK4QDir8filePathERK7QString
libQt6Core.so.6:_ZNK4QDir9entryListE6QFlagsINS_6FilterEES0_INS_8SortFlagEE
libQt6Core.so.6:_ZNK4QDir9entryListERK5QListI7QStringE6QFlagsINS_6FilterEES5_INS_8SortFlagEE
libQt6Core.so.6:_ZNK4QUrl11toLocalFileEv
libQt6Core.so.6:_ZNK5QDate3dayEv
libQt6Core.so.6:_ZNK5QDate4yearEv
libQt6Core.so.6:_ZNK5QDate5monthEv
libQt6Core.so.6:_ZNK5QDate6daysToES_
libQt6Core.so.6:_ZNK5QDate7addDaysEx
libQt6Core.so.6:_ZNK5QDate8toStringEN2Qt10DateFormatE
libQt6Core.so.6:_ZNK5QDate9dayOfWeekEv
libQt6Core.so.6:_ZNK5QFile4sizeEv
libQt6Core.so.6:_ZNK5QFile6existsEv
libQt6Core.so.6:_ZNK5QRect8containsERK6QPointb
libQt6Core.so.6:_ZNK5QRect8containsERKS_b
libQt6Core.so.6:_ZNK5QSize6scaledERKS_N2Qt15AspectRatioModeE
libQt6Core.so.6:_ZNK5QTime4hourEv
libQt6Core.so.6:_ZNK5QTime4msecEv
libQt6Core.so.6:_ZNK5QTime6minuteEv
libQt6Core.so.6:_ZNK5QTime6secondEv
libQt6Core.so.6:_ZNK5QTime6secsToES_
libQt6Core.so.6:_ZNK5QTime7addSecsEi
libQt6Core.so.6:_ZNK5QTime7msecsToES_
libQt6Core.so.6:_ZNK5QTime8addMSecsEi
libQt6Core.so.6:_ZNK5QTime8toStringE11QStringView
libQt6Core.so.6:_ZNK5QTime8toStringEN2Qt10DateFormatE
libQt6Core.so.6:_ZNK5QUuid8toStringENS_12StringFormatE
libQt6Core.so.6:_ZNK6QTimer8isActiveEv
libQt6Core.so.6:_ZNK7QBuffer4dataEv
libQt6Core.so.6:_ZNK7QLocale10timeFormatENS_10FormatTypeE
libQt6Core.so.6:_ZNK7QLocale13textDirectionEv
libQt6Core.so.6:_ZNK7QLocale14firstDayOfWeekEv
libQt6Core.so.6:_ZNK7QLocale18nativeLanguageNameEv
libQt6Core.so.6:_ZNK7QLocale19nativeTerritoryNameEv
libQt6Core.so.6:_ZNK7QLocale19standaloneMonthNameEiNS_10FormatTypeE
libQt6Core.so.6:_ZNK7QLocale4nameENS_12TagSeparatorE
libQt6Core.so.6:_ZNK7QLocale7dayNameEiNS_10FormatTypeE
libQt6Core.so.6:_ZNK7QLocale7percentEv
libQt6Core.so.6:_ZNK7QLocale8languageEv
libQt6Core.so.6:_ZNK7QLocale8toStringE5QDateNS_10FormatTypeE
libQt6Core.so.6:_ZNK7QLocale8toStringE5QTimeNS_10FormatTypeE
libQt6Core.so.6:_ZNK7QLocale9territoryEv
libQt6Core.so.6:_ZNK7QObject10metaObjectEv
libQt6Core.so.6:_ZNK7QObject6senderEv
libQt6Core.so.6:_ZNK7QString10startsWithE13QLatin1StringN2Qt15CaseSensitivityE
libQt6Core.so.6:_ZNK7QString10startsWithERKS_N2Qt15CaseSensitivityE
libQt6Core.so.6:_ZNK7QString18localeAwareCompareERKS_
libQt6Core.so.6:_ZNK7QString5splitE5QChar6QFlagsIN2Qt18SplitBehaviorFlagsEENS2_15CaseSensitivityE
libQt6Core.so.6:_ZNK7QString5splitERKS_6QFlagsIN2Qt18SplitBehaviorFlagsEENS3_15CaseSensitivityE
libQt6Core.so.6:_ZNK7QString7compareERKS_N2Qt15CaseSensitivityE
libQt6Core.so.6:_ZNK7QString7indexOfERKS_xN2Qt15CaseSensitivityE
libQt6Core.so.6:_ZNK7QString7sectionERKS_xx6QFlagsINS_11SectionFlagEE
libQt6Core.so.6:_ZNK7QString8arg_implE14QAnyStringViewi5QChar
libQt6Core.so.6:_ZNK7QString8arg_implEdici5QChar
libQt6Core.so.6:_ZNK7QString8arg_implExii5QChar
libQt6Core.so.6:_ZNK7QString8arg_implEyii5QChar
libQt6Core.so.6:_ZNK7QString8endsWithE5QCharN2Qt15CaseSensitivityE
libQt6Core.so.6:_ZNK7QString8endsWithERKS_N2Qt15CaseSensitivityE
libQt6Core.so.6:_ZNK7QString8toDoubleEPb
libQt6Core.so.6:_ZNK7QThread9isRunningEv
libQt6Core.so.6:_ZNK8QVariant11toByteArrayEv
libQt6Core.so.6:_ZNK8QVariant12toStringListEv
libQt6Core.so.6:_ZNK8QVariant5toIntEPb
libQt6Core.so.6:_ZNK8QVariant6equalsERKS_
libQt6Core.so.6:_ZNK8QVariant6isNullEv
libQt6Core.so.6:_ZNK8QVariant6toBoolEv
libQt6Core.so.6:_ZNK8QVariant6toDateEv
libQt6Core.so.6:_ZNK8QVariant6toHashEv
libQt6Core.so.6:_ZNK8QVariant6toListEv
libQt6Core.so.6:_ZNK8QVariant6toSizeEv
libQt6Core.so.6:_ZNK8QVariant6toUIntEPb
libQt6Core.so.6:_ZNK8QVariant8toStringEv
libQt6Core.so.6:_ZNK9QDateTime4dateEv
libQt6Core.so.6:_ZNK9QDateTime4timeEv
libQt6Core.so.6:_ZNK9QDateTime6daysToERKS_
libQt6Core.so.6:_ZNK9QDateTime6equalsERKS_
libQt6Core.so.6:_ZNK9QDateTime6isNullEv
libQt6Core.so.6:_ZNK9QDateTime6secsToERKS_
libQt6Core.so.6:_ZNK9QDateTime7addSecsEx
libQt6Core.so.6:_ZNK9QDateTime7isValidEv
libQt6Core.so.6:_ZNK9QDateTime8toStringEN2Qt10DateFormatE
libQt6Core.so.6:_ZNK9QDateTime8toStringERK7QString
libQt6Core.so.6:_ZNK9QFileInfo10isReadableEv
libQt6Core.so.6:_ZNK9QFileInfo10isWritableEv
libQt6Core.so.6:_ZNK9QFileInfo11permissionsEv
libQt6Core.so.6:_ZNK9QFileInfo12absolutePathEv
libQt6Core.so.6:_ZNK9QFileInfo16absoluteFilePathEv
libQt6Core.so.6:_ZNK9QFileInfo16completeBaseNameEv
libQt6Core.so.6:_ZNK9QFileInfo17canonicalFilePathEv
libQt6Core.so.6:_ZNK9QFileInfo4sizeEv
libQt6Core.so.6:_ZNK9QFileInfo6existsEv
libQt6Core.so.6:_ZNK9QFileInfo6suffixEv
libQt6Core.so.6:_ZNK9QFileInfo8baseNameEv
libQt6Core.so.6:_ZNK9QFileInfo8fileNameEv
libQt6Core.so.6:_ZNK9QFileInfo8fileTimeEN11QFileDevice8FileTimeE
libQt6Core.so.6:_ZNK9QIODevice10isReadableEv
libQt6Core.so.6:_ZNK9QIODevice10isWritableEv
libQt6Core.so.6:_ZNK9QIODevice6isOpenEv
libQt6Core.so.6:_ZNK9QIODevice8openModeEv
libQt6Core.so.6:_ZNK9QMimeData4dataERK7QString
libQt6Core.so.6:_ZNK9QMimeData4htmlEv
libQt6Core.so.6:_ZNK9QMimeData4textEv
libQt6Core.so.6:_ZNK9QMimeData4urlsEv
libQt6Core.so.6:_ZNK9QMimeData7hasHtmlEv
libQt6Core.so.6:_ZNK9QMimeData7hasTextEv
libQt6Core.so.6:_ZNK9QMimeData7hasUrlsEv
libQt6Core.so.6:_ZNK9QSettings5valueE14QAnyStringView
libQt6Core.so.6:_ZNK9QSettings5valueE14QAnyStringViewRK8QVariant
libQt6Core.so.6:_ZNK9QSettings8containsE14QAnyStringView
libQt6Core.so.6:_ZNK9QSettings9childKeysEv
libQt6Core.so.6:_ZNK9QtPrivate15ResultStoreBase10filterModeEv
libQt6Core.so.6:_ZNK9QtPrivate15ResultStoreBase23containsValidResultItemEi
libQt6Core.so.6:_ZNK9QtPrivate15ResultStoreBase5countEv
libQt6Core.so.6:_ZNK9QtPrivate15ResultStoreBase8resultAtEi
libQt6Core.so.6:_ZNKR7QString14nullTerminatedEv
libQt6Core.so.6:_ZNKR7QString3midExx
libQt6Core.so.6:_ZNO10QByteArray3midExx
libQt6Core.so.6:_ZNO7QString14nullTerminatedEv
libQt6Core.so.6:_ZNO7QString3midExx
libQt6Core.so.6:_ZTI10QException
libQt6Core.so.6:_ZTI18QAbstractItemModel
libQt6Core.so.6:_ZTI18QAbstractListModel
libQt6Core.so.6:_ZTI19QAbstractTableModel
libQt6Core.so.6:_ZTI20QFutureInterfaceBase
libQt6Core.so.6:_ZTI7QObject
libQt6Core.so.6:_ZTI7QThread
libQt6Core.so.6:_ZTI9QRunnable
libQt6Core.so.6:_ZlsR11QDataStreamRK10QByteArray
libQt6Core.so.6:_ZrsR11QDataStreamR10QByteArray
libQt6Core.so.6:qt_version_tag
libQt6Gui.so.6:_Z12qt_blurImageP8QPainterR6QImagedbbi
libQt6Gui.so.6:_Z5qHashRK12QKeySequencem
libQt6Gui.so.6:_ZN10QTextBlock11setUserDataEP18QTextBlockUserData
libQt6Gui.so.6:_ZN10QTextBlock8iteratorppEv
libQt6Gui.so.6:_ZN11QTextCursor10deleteCharEv
libQt6Gui.so.6:_ZN11QTextCursor10insertTextERK7QString
libQt6Gui.so.6:_ZN11QTextCursor10insertTextERK7QStringRK15QTextCharFormat
libQt6Gui.so.6:_ZN11QTextCursor11insertBlockERK16QTextBlockFormat
libQt6Gui.so.6:_ZN11QTextCursor11insertBlockERK16QTextBlockFormatRK15QTextCharFormat
libQt6Gui.so.6:_ZN11QTextCursor11insertBlockEv
libQt6Gui.so.6:_ZN11QTextCursor11setPositionEiNS_8MoveModeE
libQt6Gui.so.6:_ZN11QTextCursor12endEditBlockEv
libQt6Gui.so.6:_ZN11QTextCursor12movePositionENS_13MoveOperationENS_8MoveModeEi
libQt6Gui.so.6:_ZN11QTextCursor13setCharFormatERK15QTextCharFormat
libQt6Gui.so.6:_ZN11QTextCursor14beginEditBlockEv
libQt6Gui.so.6:_ZN11QTextCursor14clearSelectionEv
libQt6Gui.so.6:_ZN11QTextCursor14insertFragmentERK21QTextDocumentFragment
libQt6Gui.so.6:_ZN11QTextCursor14setBlockFormatERK16QTextBlockFormat
libQt6Gui.so.6:_ZN11QTextCursor15mergeCharFormatERK15QTextCharFormat
libQt6Gui.so.6:_ZN11QTextCursor16mergeBlockFormatERK16QTextBlockFormat
libQt6Gui.so.6:_ZN11QTextCursor18deletePreviousCharEv
libQt6Gui.so.6:_ZN11QTextCursor18removeSelectedTextEv
libQt6Gui.so.6:_ZN11QTextCursor20mergeBlockCharFormatERK15QTextCharFormat
libQt6Gui.so.6:_ZN11QTextCursorC1EP13QTextDocument
libQt6Gui.so.6:_ZN11QTextCursorC1ERKS_
libQt6Gui.so.6:_ZN11QTextCursorC1Ev
libQt6Gui.so.6:_ZN11QTextCursorD1Ev
libQt6Gui.so.6:_ZN11QTextCursoraSERKS_
libQt6Gui.so.6:_ZN11QTextFormat11setPropertyEiRK8QVariant
libQt6Gui.so.6:_ZN11QTextFormat5mergeERKS_
libQt6Gui.so.6:_ZN11QTextFormatC1ERKS_
libQt6Gui.so.6:_ZN11QTextFormatC2ERKS_
libQt6Gui.so.6:_ZN11QTextFormatD1Ev
libQt6Gui.so.6:_ZN11QTextFormatD2Ev
libQt6Gui.so.6:_ZN11QTextFormataSERKS_
libQt6Gui.so.6:_ZN11QTextObject9setFormatERK11QTextFormat
libQt6Gui.so.6:_ZN12QActionGroup12setExclusiveEb
libQt6Gui.so.6:_ZN12QActionGroup16staticMetaObjectE
libQt6Gui.so.6:_ZN12QActionGroup9addActionEP7QAction
libQt6Gui.so.6:_ZN12QActionGroup9triggeredEP7QAction
libQt6Gui.so.6:_ZN12QActionGroupC1EP7QObject
libQt6Gui.so.6:_ZN12QFontMetricsC1ERK5QFont
libQt6Gui.so.6:_ZN12QFontMetricsC1ERK5QFontPK12QPaintDevice
libQt6Gui.so.6:_ZN12QFontMetricsD1Ev
libQt6Gui.so.6:_ZN12QImageReader13setScaledSizeERK5QSize
libQt6Gui.so.6:_ZN12QImageReader21supportedImageFormatsEv
libQt6Gui.so.6:_ZN12QImageReader4readEv
libQt6Gui.so.6:_ZN12QImageReaderC1ERK7QStringRK10QByteArray
libQt6Gui.so.6:_ZN12QImageReaderD1Ev
libQt6Gui.so.6:_ZN12QKeySequence10fromStringERK7QStringNS_14SequenceFormatE
libQt6Gui.so.6:_ZN12QKeySequence16staticMetaObjectE
libQt6Gui.so.6:_ZN12QKeySequenceC1E15QKeyCombinationS0_S0_S0_
libQt6Gui.so.6:_ZN12QKeySequenceC1ENS_11StandardKeyE
libQt6Gui.so.6:_ZN12QKeySequenceC1ERK7QStringNS_14SequenceFormatE
libQt6Gui.so.6:_ZN12QKeySequenceC1ERKS_
libQt6Gui.so.6:_ZN12QKeySequenceC1Eiiii
libQt6Gui.so.6:_ZN12QKeySequenceC1Ev
libQt6Gui.so.6:_ZN12QKeySequenceD1Ev
libQt6Gui.so.6:_ZN12QKeySequenceaSERKS_
libQt6Gui.so.6:_ZN12QPaintDeviceC2Ev
libQt6Gui.so.6:_ZN12QPainterPath14addRoundedRectERK6QRectFddN2Qt8SizeModeE
libQt6Gui.so.6:_ZN12QPainterPath7addRectERK6QRectF
libQt6Gui.so.6:_ZN12QPainterPathC1Ev
libQt6Gui.so.6:_ZN12QPainterPathD1Ev
libQt6Gui.so.6:_ZN13QFontDatabase11smoothSizesERK7QStringS2_
libQt6Gui.so.6:_ZN13QFontDatabase13standardSizesEv
libQt6Gui.so.6:_ZN13QTextDocument11setModifiedEb
libQt6Gui.so.6:_ZN13QTextDocument11setPageSizeERK6QSizeF
libQt6Gui.so.6:_ZN13QTextDocument12setPlainTextERK7QString
libQt6Gui.so.6:_ZN13QTextDocument14contentsChangeEiii
libQt6Gui.so.6:_ZN13QTextDocument14setIndentWidthEd
libQt6Gui.so.6:_ZN13QTextDocument16staticMetaObjectE
libQt6Gui.so.6:_ZN13QTextDocument16undoCommandAddedEv
libQt6Gui.so.6:_ZN13QTextDocument17blockCountChangedEi
libQt6Gui.so.6:_ZN13QTextDocument18setUndoRedoEnabledEb
libQt6Gui.so.6:_ZN13QTextDocument19modificationChangedEb
libQt6Gui.so.6:_ZN13QTextDocument7setHtmlERK7QString
libQt6Gui.so.6:_ZN13QTextDocumentC1EP7QObject
libQt6Gui.so.6:_ZN13QTextDocumentD1Ev
libQt6Gui.so.6:_ZN15QGuiApplication13primaryScreenEv
libQt6Gui.so.6:_ZN15QGuiApplication13setWindowIconERK5QIcon
libQt6Gui.so.6:_ZN15QGuiApplication15layoutDirectionEv
libQt6Gui.so.6:_ZN15QGuiApplication18setDesktopFileNameERK7QString
libQt6Gui.so.6:_ZN15QGuiApplication25setApplicationDisplayNameERK7QString
libQt6Gui.so.6:_ZN15QGuiApplication7paletteEv
libQt6Gui.so.6:_ZN15QGuiApplication9clipboardEv
libQt6Gui.so.6:_ZN15QTextCharFormat17setUnderlineStyleENS_14UnderlineStyleE
libQt6Gui.so.6:_ZN15QTextCharFormatC1Ev
libQt6Gui.so.6:_ZN16QDoubleValidatorC1EddiP7QObject
libQt6Gui.so.6:_ZN16QTextBlockFormatC1Ev
libQt6Gui.so.6:_ZN16QTextFrameFormat9setMarginEd
libQt6Gui.so.6:_ZN17QPagedPaintDevice11setPageSizeERK9QPageSize
libQt6Gui.so.6:_ZN18QSyntaxHighlighter11qt_metacallEN11QMetaObject4CallEiPPv
libQt6Gui.so.6:_ZN18QSyntaxHighlighter11qt_metacastEPKc
libQt6Gui.so.6:_ZN18QSyntaxHighlighter11rehighlightEv
libQt6Gui.so.6:_ZN18QSyntaxHighlighter16rehighlightBlockERK10QTextBlock
libQt6Gui.so.6:_ZN18QSyntaxHighlighter16staticMetaObjectE
libQt6Gui.so.6:_ZN18QSyntaxHighlighter9setFormatEiiRK15QTextCharFormat
libQt6Gui.so.6:_ZN18QSyntaxHighlighterC2EP7QObject
libQt6Gui.so.6:_ZN18QSyntaxHighlighterD2Ev
libQt6Gui.so.6:_ZN18QTextBlockUserDataD2Ev
libQt6Gui.so.6:_ZN21QTextDocumentFragmentC1EPK13QTextDocument
libQt6Gui.so.6:_ZN21QTextDocumentFragmentC1ERKS_
libQt6Gui.so.6:_ZN21QTextDocumentFragmentD1Ev
libQt6Gui.so.6:_ZN21QTextDocumentFragmentaSERKS_
libQt6Gui.so.6:_ZN27QAbstractTextDocumentLayout14setPaintDeviceEP12QPaintDevice
libQt6Gui.so.6:_ZN4QPenC1ERK6QBrushdN2Qt8PenStyleENS3_11PenCapStyleENS3_12PenJoinStyleE
libQt6Gui.so.6:_ZN4QPenD1Ev
libQt6Gui.so.6:_ZN5QFont10fromStringERK7QString
libQt6Gui.so.6:_ZN5QFont12setPointSizeEi
libQt6Gui.so.6:_ZN5QFont13setPointSizeFEd
libQt6Gui.so.6:_ZN5QFont16setStyleStrategyENS_13StyleStrategyE
libQt6Gui.so.6:_ZN5QFont16staticMetaObjectE
libQt6Gui.so.6:_ZN5QFont9setWeightENS_6WeightE
libQt6Gui.so.6:_ZN5QFontC1ERK7QStringiib
libQt6Gui.so.6:_ZN5QFontC1ERKS_
libQt6Gui.so.6:_ZN5QFontC1Ev
libQt6Gui.so.6:_ZN5QFontD1Ev
libQt6Gui.so.6:_ZN5QFontaSERKS_
libQt6Gui.so.6:_ZN5QIcon12setThemeNameERK7QString
libQt6Gui.so.6:_ZN5QIcon16themeSearchPathsEv
libQt6Gui.so.6:_ZN5QIcon19setThemeSearchPathsERK5QListI7QStringE
libQt6Gui.so.6:_ZN5QIcon20setFallbackThemeNameERK7QString
libQt6Gui.so.6:_ZN5QIcon9fromThemeERK7QString
libQt6Gui.so.6:_ZN5QIcon9fromThemeERK7QStringRKS_
libQt6Gui.so.6:_ZN5QIcon9themeNameEv
libQt6Gui.so.6:_ZN5QIconC1ERK7QPixmap
libQt6Gui.so.6:_ZN5QIconC1ERK7QString
libQt6Gui.so.6:_ZN5QIconC1Ev
libQt6Gui.so.6:_ZN5QIconD1Ev
libQt6Gui.so.6:_ZN5QIconaSERKS_
libQt6Gui.so.6:_ZN6QBrushC1EN2Qt11GlobalColorENS0_10BrushStyleE
libQt6Gui.so.6:_ZN6QBrushC1ERK6QColorN2Qt10BrushStyleE
libQt6Gui.so.6:_ZN6QBrushC1ERK6QImage
libQt6Gui.so.6:_ZN6QBrushC1Ev
libQt6Gui.so.6:_ZN6QBrushD1Ev
libQt6Gui.so.6:_ZN6QBrushaSE6QColor
libQt6Gui.so.6:_ZN6QBrushaSERKS_
libQt6Gui.so.6:_ZN6QColor10fromStringE14QAnyStringView
libQt6Gui.so.6:_ZN6QColor8setAlphaEi
libQt6Gui.so.6:_ZN6QColorC1EN2Qt11GlobalColorE
libQt6Gui.so.6:_ZN6QImage16staticMetaObjectE
libQt6Gui.so.6:_ZN6QImage19setDevicePixelRatioEd
libQt6Gui.so.6:_ZN6QImage4fillEN2Qt11GlobalColorE
libQt6Gui.so.6:_ZN6QImage4fillEj
libQt6Gui.so.6:_ZN6QImage8scanLineEi
libQt6Gui.so.6:_ZN6QImageC1ERK5QSizeNS_6FormatE
libQt6Gui.so.6:_ZN6QImageC1ERK7QStringPKc
libQt6Gui.so.6:_ZN6QImageC1ERKS_
libQt6Gui.so.6:_ZN6QImageC1EiiNS_6FormatE
libQt6Gui.so.6:_ZN6QImageC1Ev
libQt6Gui.so.6:_ZN6QImageD1Ev
libQt6Gui.so.6:_ZN6QImageaSERKS_
libQt6Gui.so.6:_ZN7QAction10setCheckedEb
libQt6Gui.so.6:_ZN7QAction10setEnabledEb
libQt6Gui.so.6:_ZN7QAction10setToolTipERK7QString
libQt6Gui.so.6:_ZN7QAction11setMenuRoleENS_8MenuRoleE
libQt6Gui.so.6:_ZN7QAction11setShortcutERK12QKeySequence
libQt6Gui.so.6:_ZN7QAction12setCheckableEb
libQt6Gui.so.6:_ZN7QAction12setStatusTipERK7QString
libQt6Gui.so.6:_ZN7QAction14setActionGroupEP12QActionGroup
libQt6Gui.so.6:_ZN7QAction16staticMetaObjectE
libQt6Gui.so.6:_ZN7QAction7changedEv
libQt6Gui.so.6:_ZN7QAction7setDataERK8QVariant
libQt6Gui.so.6:_ZN7QAction7setTextERK7QString
libQt6Gui.so.6:_ZN7QAction8activateENS_11ActionEventE
libQt6Gui.so.6:_ZN7QAction9triggeredEb
libQt6Gui.so.6:_ZN7QActionC1EP7QObject
libQt6Gui.so.6:_ZN7QActionC1ERK5QIconRK7QStringP7QObject
libQt6Gui.so.6:_ZN7QActionC1ERK7QStringP7QObject
libQt6Gui.so.6:_ZN7QCursor3posEv
libQt6Gui.so.6:_ZN7QCursorC1EN2Qt11CursorShapeE
libQt6Gui.so.6:_ZN7QCursorD1Ev
libQt6Gui.so.6:_ZN7QPixmap19setDevicePixelRatioEd
libQt6Gui.so.6:_ZN7QPixmap4fillERK6QColor
libQt6Gui.so.6:_ZN7QPixmap4loadERK7QStringPKc6QFlagsIN2Qt19ImageConversionFlagEE
libQt6Gui.so.6:_ZN7QPixmap9fromImageERK6QImage6QFlagsIN2Qt19ImageConversionFlagEE
libQt6Gui.so.6:_ZN7QPixmapC1ERK5QSize
libQt6Gui.so.6:_ZN7QPixmapC1ERKS_
libQt6Gui.so.6:_ZN7QPixmapC1Eii
libQt6Gui.so.6:_ZN7QPixmapC1Ev
libQt6Gui.so.6:_ZN7QPixmapD1Ev
libQt6Gui.so.6:_ZN7QRegionC1ERK5QRectNS_10RegionTypeE
libQt6Gui.so.6:_ZN7QRegionC1EiiiiNS_10RegionTypeE
libQt6Gui.so.6:_ZN7QRegionC1Ev
libQt6Gui.so.6:_ZN7QRegionD1Ev
libQt6Gui.so.6:_ZN8QPainter10drawPixmapERK6QRectFRK7QPixmapS2_
libQt6Gui.so.6:_ZN8QPainter10drawPixmapERK7QPointFRK7QPixmap
libQt6Gui.so.6:_ZN8QPainter10setOpacityEd
libQt6Gui.so.6:_ZN8QPainter11drawEllipseERK6QRectF
libQt6Gui.so.6:_ZN8QPainter11drawPolygonEPK7QPointFiN2Qt8FillRuleE
libQt6Gui.so.6:_ZN8QPainter11setClipPathERK12QPainterPathN2Qt13ClipOperationE
libQt6Gui.so.6:_ZN8QPainter11setClipRectERK6QRectFN2Qt13ClipOperationE
libQt6Gui.so.6:_ZN8QPainter11setClippingEb
libQt6Gui.so.6:_ZN8QPainter13setRenderHintENS_10RenderHintEb
libQt6Gui.so.6:_ZN8QPainter15drawRoundedRectERK6QRectFddN2Qt8SizeModeE
libQt6Gui.so.6:_ZN8QPainter3endEv
libQt6Gui.so.6:_ZN8QPainter4saveEv
libQt6Gui.so.6:_ZN8QPainter5beginEP12QPaintDevice
libQt6Gui.so.6:_ZN8QPainter5scaleEdd
libQt6Gui.so.6:_ZN8QPainter6setPenEN2Qt8PenStyleE
libQt6Gui.so.6:_ZN8QPainter6setPenERK4QPen
libQt6Gui.so.6:_ZN8QPainter6setPenERK6QColor
libQt6Gui.so.6:_ZN8QPainter7drawPieERK6QRectFii
libQt6Gui.so.6:_ZN8QPainter7restoreEv
libQt6Gui.so.6:_ZN8QPainter7setFontERK5QFont
libQt6Gui.so.6:_ZN8QPainter8drawTextERK7QPointFRK7QString
libQt6Gui.so.6:_ZN8QPainter8fillPathERK12QPainterPathRK6QBrush
libQt6Gui.so.6:_ZN8QPainter8fillRectERK6QRectFRK6QBrush
libQt6Gui.so.6:_ZN8QPainter8fillRectERK6QRectFRK6QColor
libQt6Gui.so.6:_ZN8QPainter8setBrushE6QColor
libQt6Gui.so.6:_ZN8QPainter9drawImageERK6QRectFRK6QImageS2_6QFlagsIN2Qt19ImageConversionFlagEE
libQt6Gui.so.6:_ZN8QPainter9drawImageERK7QPointFRK6QImage
libQt6Gui.so.6:_ZN8QPainter9drawRectsEPK6QRectFi
libQt6Gui.so.6:_ZN8QPainter9translateERK7QPointF
libQt6Gui.so.6:_ZN8QPainterC1EP12QPaintDevice
libQt6Gui.so.6:_ZN8QPainterD1Ev
libQt6Gui.so.6:_ZN8QPalette8setBrushENS_10ColorGroupENS_9ColorRoleERK6QBrush
libQt6Gui.so.6:_ZN8QPaletteC1ERKS_
libQt6Gui.so.6:_ZN8QPaletteC1Ev
libQt6Gui.so.6:_ZN8QPaletteD1Ev
libQt6Gui.so.6:_ZN9QPageSizeC1ENS_10PageSizeIdE
libQt6Gui.so.6:_ZN9QPageSizeD1Ev
libQt6Gui.so.6:_ZN9QShortcut16staticMetaObjectE
libQt6Gui.so.6:_ZN9QShortcut6setKeyERK12QKeySequence
libQt6Gui.so.6:_ZN9QShortcut9activatedEv
libQt6Gui.so.6:_ZN9QShortcutC1ERK12QKeySequenceP7QObjectPKcS6_N2Qt15ShortcutContextE
libQt6Gui.so.6:_ZNK10QClipboard4textENS_4ModeE
libQt6Gui.so.6:_ZNK10QTextBlock10charFormatEv
libQt6Gui.so.6:_ZNK10QTextBlock11blockFormatEv
libQt6Gui.so.6:_ZNK10QTextBlock11blockNumberEv
libQt6Gui.so.6:_ZNK10QTextBlock16blockFormatIndexEv
libQt6Gui.so.6:_ZNK10QTextBlock3endEv
libQt6Gui.so.6:_ZNK10QTextBlock4nextEv
libQt6Gui.so.6:_ZNK10QTextBlock4textEv
libQt6Gui.so.6:_ZNK10QTextBlock5beginEv
libQt6Gui.so.6:_ZNK10QTextBlock7isValidEv
libQt6Gui.so.6:_ZNK10QTextBlock8iterator8fragmentEv
libQt6Gui.so.6:_ZNK10QTextBlock8positionEv
libQt6Gui.so.6:_ZNK10QTextBlock8previousEv
libQt6Gui.so.6:_ZNK10QTextBlock8userDataEv
libQt6Gui.so.6:_ZNK11QEventPoint14globalPositionEv
libQt6Gui.so.6:_ZNK11QEventPoint8positionEv
libQt6Gui.so.6:_ZNK11QTextCursor10atBlockEndEv
libQt6Gui.so.6:_ZNK11QTextCursor10charFormatEv
libQt6Gui.so.6:_ZNK11QTextCursor11blockFormatEv
libQt6Gui.so.6:_ZNK11QTextCursor11blockNumberEv
libQt6Gui.so.6:_ZNK11QTextCursor12atBlockStartEv
libQt6Gui.so.6:_ZNK11QTextCursor12hasSelectionEv
libQt6Gui.so.6:_ZNK11QTextCursor12selectedTextEv
libQt6Gui.so.6:_ZNK11QTextCursor12selectionEndEv
libQt6Gui.so.6:_ZNK11QTextCursor14selectionStartEv
libQt6Gui.so.6:_ZNK11QTextCursor5atEndEv
libQt6Gui.so.6:_ZNK11QTextCursor5blockEv
libQt6Gui.so.6:_ZNK11QTextCursor6isNullEv
libQt6Gui.so.6:_ZNK11QTextCursor7atStartEv
libQt6Gui.so.6:_ZNK11QTextCursor8documentEv
libQt6Gui.so.6:_ZNK11QTextCursor8positionEv
libQt6Gui.so.6:_ZNK11QTextCursor9selectionEv
libQt6Gui.so.6:_ZNK11QTextFormat11hasPropertyEi
libQt6Gui.so.6:_ZNK11QTextFormat11intPropertyEi
libQt6Gui.so.6:_ZNK11QTextFormat12boolPropertyEi
libQt6Gui.so.6:_ZNK11QTextFormat12toCharFormatEv
libQt6Gui.so.6:_ZNK11QTextFormat13propertyCountEv
libQt6Gui.so.6:_ZNK11QTextFormat13toBlockFormatEv
libQt6Gui.so.6:_ZNK11QTextFormat13toFrameFormatEv
libQt6Gui.so.6:_ZNK11QTextFormat14doublePropertyEi
libQt6Gui.so.6:_ZNK11QTextFormat4typeEv
libQt6Gui.so.6:_ZNK11QTextObject6formatEv
libQt6Gui.so.6:_ZNK12QActionGroup13checkedActionEv
libQt6Gui.so.6:_ZNK12QActionGroup7actionsEv
libQt6Gui.so.6:_ZNK12QFontMetrics10elidedTextERK7QStringN2Qt13TextElideModeEii
libQt6Gui.so.6:_ZNK12QFontMetrics12boundingRectERK7QString
libQt6Gui.so.6:_ZNK12QFontMetrics16averageCharWidthEv
libQt6Gui.so.6:_ZNK12QFontMetrics6ascentEv
libQt6Gui.so.6:_ZNK12QFontMetrics6heightEv
libQt6Gui.so.6:_ZNK12QImageReader4sizeEv
libQt6Gui.so.6:_ZNK12QImageReader7canReadEv
libQt6Gui.so.6:_ZNK12QKeySequence7isEmptyEv
libQt6Gui.so.6:_ZNK12QKeySequence8toStringENS_14SequenceFormatE
libQt6Gui.so.6:_ZNK12QKeySequencecv8QVariantEv
libQt6Gui.so.6:_ZNK12QKeySequenceeqERKS_
libQt6Gui.so.6:_ZNK12QKeySequenceltERKS_
libQt6Gui.so.6:_ZNK12QPaintDevice16devicePixelRatioEv
libQt6Gui.so.6:_ZNK13QTextDocument10allFormatsEv
libQt6Gui.so.6:_ZNK13QTextDocument10blockCountEv
libQt6Gui.so.6:_ZNK13QTextDocument10isModifiedEv
libQt6Gui.so.6:_ZNK13QTextDocument11characterAtEi
libQt6Gui.so.6:_ZNK13QTextDocument11defaultFontEv
libQt6Gui.so.6:_ZNK13QTextDocument11indentWidthEv
libQt6Gui.so.6:_ZNK13QTextDocument11toPlainTextEv
libQt6Gui.so.6:_ZNK13QTextDocument14characterCountEv
libQt6Gui.so.6:_ZNK13QTextDocument14documentLayoutEv
libQt6Gui.so.6:_ZNK13QTextDocument15isRedoAvailableEv
libQt6Gui.so.6:_ZNK13QTextDocument15isUndoAvailableEv
libQt6Gui.so.6:_ZNK13QTextDocument17findBlockByNumberEi
libQt6Gui.so.6:_ZNK13QTextDocument18availableUndoStepsEv
libQt6Gui.so.6:_ZNK13QTextDocument4findERK18QRegularExpressionRK11QTextCursor6QFlagsINS_8FindFlagEE
libQt6Gui.so.6:_ZNK13QTextDocument4findERK7QStringRK11QTextCursor6QFlagsINS_8FindFlagEE
libQt6Gui.so.6:_ZNK13QTextDocument5beginEv
libQt6Gui.so.6:_ZNK13QTextDocument5cloneEP7QObject
libQt6Gui.so.6:_ZNK13QTextDocument9findBlockEi
libQt6Gui.so.6:_ZNK13QTextDocument9pageCountEv
libQt6Gui.so.6:_ZNK13QTextDocument9rootFrameEv
libQt6Gui.so.6:_ZNK13QTextFragment10charFormatEv
libQt6Gui.so.6:_ZNK13QTextFragment15charFormatIndexEv
libQt6Gui.so.6:_ZNK13QTextFragment4textEv
libQt6Gui.so.6:_ZNK13QTextFragment6lengthEv
libQt6Gui.so.6:_ZNK15QTextCharFormat13fontUnderlineEv
libQt6Gui.so.6:_ZNK18QSyntaxHighlighter12currentBlockEv
libQt6Gui.so.6:_ZNK18QSyntaxHighlighter20currentBlockUserDataEv
libQt6Gui.so.6:_ZNK21QTextDocumentFragment11toPlainTextEv
libQt6Gui.so.6:_ZNK5QFont10pointSizeFEv
libQt6Gui.so.6:_ZNK5QFont13styleStrategyEv
libQt6Gui.so.6:_ZNK5QFont6familyEv
libQt6Gui.so.6:_ZNK5QFont8toStringEv
libQt6Gui.so.6:_ZNK5QFont9pointSizeEv
libQt6Gui.so.6:_ZNK5QFontcv8QVariantEv
libQt6Gui.so.6:_ZNK5QFonteqERKS_
libQt6Gui.so.6:_ZNK5QFontltERKS_
libQt6Gui.so.6:_ZNK5QFontneERKS_
libQt6Gui.so.6:_ZNK5QIcon6isNullEv
libQt6Gui.so.6:_ZNK5QIcon6pixmapERK5QSizeNS_4ModeENS_5StateE
libQt6Gui.so.6:_ZNK5QIconcv8QVariantEv
libQt6Gui.so.6:_ZNK6QBrushcv8QVariantEv
libQt6Gui.so.6:_ZNK6QColor3redEv
libQt6Gui.so.6:_ZNK6QColor3rgbEv
libQt6Gui.so.6:_ZNK6QColor4blueEv
libQt6Gui.so.6:_ZNK6QColor4nameENS_10NameFormatE
libQt6Gui.so.6:_ZNK6QColor5greenEv
libQt6Gui.so.6:_ZNK6QColor6darkerEi
libQt6Gui.so.6:_ZNK6QColor7lighterEi
libQt6Gui.so.6:_ZNK6QColorcv8QVariantEv
libQt6Gui.so.6:_ZNK6QColoreqERKS_
libQt6Gui.so.6:_ZNK6QColorneERKS_
libQt6Gui.so.6:_ZNK6QImage4copyERK5QRect
libQt6Gui.so.6:_ZNK6QImage4rectEv
libQt6Gui.so.6:_ZNK6QImage4saveERK7QStringPKci
libQt6Gui.so.6:_ZNK6QImage4sizeEv
libQt6Gui.so.6:_ZNK6QImage5widthEv
libQt6Gui.so.6:_ZNK6QImage6heightEv
libQt6Gui.so.6:_ZNK6QImage6scaledERK5QSizeN2Qt15AspectRatioModeENS3_18TransformationModeE
libQt6Gui.so.6:_ZNK6QImageeqERKS_
libQt6Gui.so.6:_ZNK7QAction4dataEv
libQt6Gui.so.6:_ZNK7QAction4iconEv
libQt6Gui.so.6:_ZNK7QAction4textEv
libQt6Gui.so.6:_ZNK7QAction8iconTextEv
libQt6Gui.so.6:_ZNK7QAction8menuRoleEv
libQt6Gui.so.6:_ZNK7QAction8shortcutEv
libQt6Gui.so.6:_ZNK7QAction9statusTipEv
libQt6Gui.so.6:_ZNK7QPixmap4sizeEv
libQt6Gui.so.6:_ZNK7QPixmap5widthEv
libQt6Gui.so.6:_ZNK7QPixmap6heightEv
libQt6Gui.so.6:_ZNK7QPixmap6isNullEv
libQt6Gui.so.6:_ZNK7QScreen17availableGeometryEv
libQt6Gui.so.6:_ZNK7QScreen4sizeEv
libQt6Gui.so.6:_ZNK8QPainter11fontMetricsEv
libQt6Gui.so.6:_ZNK8QPainter6deviceEv
libQt6Gui.so.6:_ZNK8QPainter8isActiveEv
libQt6Gui.so.6:_ZNK8QPalette5brushENS_10ColorGroupENS_9ColorRoleE
libQt6Gui.so.6:_ZNK9QKeyEvent7matchesEN12QKeySequence11StandardKeyE
libQt6Gui.so.6:_ZNK9QKeyEvent9modifiersEv
libQt6Gui.so.6:_ZNK9QShortcut3keyEv
libQt6Gui.so.6:_ZTI18QSyntaxHighlighter
libQt6Gui.so.6:_ZTI18QTextBlockUserData
libQt6Gui.so.6:_ZTV6QImage
libQt6Gui.so.6:_ZTV7QPixmap
libQt6Gui.so.6:_Zls6QDebugRK12QKeySequence
libQt6Gui.so.6:_Zls6QDebugRK5QFont
libQt6Gui.so.6:_Zls6QDebugRK6QColor
libQt6Gui.so.6:_Zls6QDebugRK6QImage
libQt6Gui.so.6:_ZlsR11QDataStreamRK12QKeySequence
libQt6Gui.so.6:_ZlsR11QDataStreamRK5QFont
libQt6Gui.so.6:_ZlsR11QDataStreamRK6QColor
libQt6Gui.so.6:_ZlsR11QDataStreamRK6QImage
libQt6Gui.so.6:_ZrsR11QDataStreamR12QKeySequence
libQt6Gui.so.6:_ZrsR11QDataStreamR5QFont
libQt6Gui.so.6:_ZrsR11QDataStreamR6QColor
libQt6Gui.so.6:_ZrsR11QDataStreamR6QImage
libQt6Multimedia.so.6:_ZN12QSoundEffect4playEv
libQt6Multimedia.so.6:_ZN12QSoundEffect9setSourceERK4QUrl
libQt6Multimedia.so.6:_ZN12QSoundEffectC1EP7QObject
libQt6Multimedia.so.6:_ZNK12QSoundEffect6sourceEv
libQt6Multimedia.so.6:_ZNK12QSoundEffect6statusEv
libQt6Multimedia.so.6:_ZNK12QSoundEffect9isPlayingEv
libQt6Network.so.6:_ZN12QLocalServer12removeServerERK7QString
libQt6Network.so.6:_ZN12QLocalServer13newConnectionEv
libQt6Network.so.6:_ZN12QLocalServer16staticMetaObjectE
libQt6Network.so.6:_ZN12QLocalServer6listenERK7QString
libQt6Network.so.6:_ZN12QLocalServerC1EP7QObject
libQt6Network.so.6:_ZN12QLocalSocket12disconnectedEv
libQt6Network.so.6:_ZN12QLocalSocket15connectToServerERK7QString6QFlagsIN13QIODeviceBase12OpenModeFlagEE
libQt6Network.so.6:_ZN12QLocalSocket16staticMetaObjectE
libQt6Network.so.6:_ZN12QLocalSocket16waitForConnectedEi
libQt6Network.so.6:_ZN12QLocalSocket19waitForBytesWrittenEi
libQt6Network.so.6:_ZN12QLocalSocket19waitForDisconnectedEi
libQt6Network.so.6:_ZN12QLocalSocket20disconnectFromServerEv
libQt6Network.so.6:_ZN12QLocalSocketC1EP7QObject
libQt6Network.so.6:_ZN12QLocalSocketD1Ev
libQt6Network.so.6:_ZNK12QLocalServer11errorStringEv
libQt6Network.so.6:_ZNK12QLocalSocket12bytesToWriteEv
libQt6Network.so.6:_ZNK12QLocalSocket5stateEv
libQt6Network.so.6:_Zls6QDebugN12QLocalSocket16LocalSocketStateE
libQt6PrintSupport.so.6:_ZN12QPrintDialog4execEv
libQt6PrintSupport.so.6:_ZN12QPrintDialogC1EP8QPrinterP7QWidget
libQt6PrintSupport.so.6:_ZN12QPrintDialogD1Ev
libQt6PrintSupport.so.6:_ZN16QPageSetupDialog4execEv
libQt6PrintSupport.so.6:_ZN16QPageSetupDialogC1EP8QPrinterP7QWidget
libQt6PrintSupport.so.6:_ZN16QPageSetupDialogD1Ev
libQt6PrintSupport.so.6:_ZN8QPrinter9setFromToEii
libQt6PrintSupport.so.6:_ZN8QPrinterC1ENS_11PrinterModeE
libQt6PrintSupport.so.6:_ZNK8QPrinter10resolutionEv
libQt6PrintSupport.so.6:_ZNK8QPrinter6toPageEv
libQt6PrintSupport.so.6:_ZNK8QPrinter8fromPageEv
libQt6Widgets.so.6:_ZN10QBoxLayout10addSpacingEi
libQt6Widgets.so.6:_ZN10QBoxLayout10addStretchEi
libQt6Widgets.so.6:_ZN10QBoxLayout10setSpacingEi
libQt6Widgets.so.6:_ZN10QBoxLayout12insertWidgetEiP7QWidgeti6QFlagsIN2Qt13AlignmentFlagEE
libQt6Widgets.so.6:_ZN10QBoxLayout9addLayoutEP7QLayouti
libQt6Widgets.so.6:_ZN10QBoxLayout9addWidgetEP7QWidgeti6QFlagsIN2Qt13AlignmentFlagEE
libQt6Widgets.so.6:_ZN10QTabWidget15setCurrentIndexEi
libQt6Widgets.so.6:_ZN10QTabWidget20setUsesScrollButtonsEb
libQt6Widgets.so.6:_ZN10QTabWidget6addTabEP7QWidgetRK7QString
libQt6Widgets.so.6:_ZN10QTabWidgetC1EP7QWidget
libQt6Widgets.so.6:_ZN10QTableView11setShowGridEb
libQt6Widgets.so.6:_ZN10QTableView12setRowHeightEii
libQt6Widgets.so.6:_ZN10QTableView14setColumnWidthEii
libQt6Widgets.so.6:_ZN10QTableView8setModelEP18QAbstractItemModel
libQt6Widgets.so.6:_ZN10QTableViewC1EP7QWidget
libQt6Widgets.so.6:_ZN11QFileDialog15getOpenFileNameEP7QWidgetRK7QStringS4_S4_PS2_6QFlagsINS_6OptionEE
libQt6Widgets.so.6:_ZN11QFileDialog15getSaveFileNameEP7QWidgetRK7QStringS4_S4_PS2_6QFlagsINS_6OptionEE
libQt6Widgets.so.6:_ZN11QFileDialog16getOpenFileNamesEP7QWidgetRK7QStringS4_S4_PS2_6QFlagsINS_6OptionEE
libQt6Widgets.so.6:_ZN11QFormLayout16setFormAlignmentE6QFlagsIN2Qt13AlignmentFlagEE
libQt6Widgets.so.6:_ZN11QFormLayout20setFieldGrowthPolicyENS_17FieldGrowthPolicyE
libQt6Widgets.so.6:_ZN11QFormLayout6addRowEP7QWidget
libQt6Widgets.so.6:_ZN11QFormLayout6addRowERK7QStringP7QLayout
libQt6Widgets.so.6:_ZN11QFormLayout6addRowERK7QStringP7QWidget
libQt6Widgets.so.6:_ZN11QFormLayoutC1EP7QWidget
libQt6Widgets.so.6:_ZN11QGridLayout10setSpacingEi
libQt6Widgets.so.6:_ZN11QGridLayout13setRowStretchEii
libQt6Widgets.so.6:_ZN11QGridLayout16setColumnStretchEii
libQt6Widgets.so.6:_ZN11QGridLayout19setRowMinimumHeightEii
libQt6Widgets.so.6:_ZN11QGridLayout21setColumnMinimumWidthEii
libQt6Widgets.so.6:_ZN11QGridLayout9addLayoutEP7QLayoutiiii6QFlagsIN2Qt13AlignmentFlagEE
libQt6Widgets.so.6:_ZN11QGridLayout9addWidgetEP7QWidgetii6QFlagsIN2Qt13AlignmentFlagEE
libQt6Widgets.so.6:_ZN11QGridLayout9addWidgetEP7QWidgetiiii6QFlagsIN2Qt13AlignmentFlagEE
libQt6Widgets.so.6:_ZN11QGridLayoutC1EP7QWidget
libQt6Widgets.so.6:_ZN11QHBoxLayoutC1EP7QWidget
libQt6Widgets.so.6:_ZN11QHBoxLayoutC1Ev
libQt6Widgets.so.6:_ZN11QHeaderView18setSectionsMovableEb
libQt6Widgets.so.6:_ZN11QHeaderView20setSectionResizeModeENS_10ResizeModeE
libQt6Widgets.so.6:_ZN11QHeaderView20setSectionResizeModeEiNS_10ResizeModeE
libQt6Widgets.so.6:_ZN11QHeaderView20setSectionsClickableEb
libQt6Widgets.so.6:_ZN11QHeaderView21setDefaultSectionSizeEi
libQt6Widgets.so.6:_ZN11QHeaderView21setMinimumSectionSizeEi
libQt6Widgets.so.6:_ZN11QListWidget10insertItemEiP15QListWidgetItem
libQt6Widgets.so.6:_ZN11QListWidget10insertItemEiRK7QString
libQt6Widgets.so.6:_ZN11QListWidget12scrollToItemEPK15QListWidgetItemN17QAbstractItemView10ScrollHintE
libQt6Widgets.so.6:_ZN11QListWidget13itemActivatedEP15QListWidgetItem
libQt6Widgets.so.6:_ZN11QListWidget13setCurrentRowEi
libQt6Widgets.so.6:_ZN11QListWidget14setCurrentItemEP15QListWidgetItem
libQt6Widgets.so.6:_ZN11QListWidget16staticMetaObjectE
libQt6Widgets.so.6:_ZN11QListWidget17currentRowChangedEi
libQt6Widgets.so.6:_ZN11QListWidget17setSortingEnabledEb
libQt6Widgets.so.6:_ZN11QListWidget18currentItemChangedEP15QListWidgetItemS1_
libQt6Widgets.so.6:_ZN11QListWidget20itemSelectionChangedEv
libQt6Widgets.so.6:_ZN11QListWidget5clearEv
libQt6Widgets.so.6:_ZN11QListWidget8takeItemEi
libQt6Widgets.so.6:_ZN11QListWidget9sortItemsEN2Qt9SortOrderE
libQt6Widgets.so.6:_ZN11QListWidgetC1EP7QWidget
libQt6Widgets.so.6:_ZN11QMainWindow10addToolBarEP8QToolBar
libQt6Widgets.so.6:_ZN11QMainWindow11qt_metacallEN11QMetaObject4CallEiPPv
libQt6Widgets.so.6:_ZN11QMainWindow11qt_metacastEPKc
libQt6Widgets.so.6:_ZN11QMainWindow11setIconSizeERK5QSize
libQt6Widgets.so.6:_ZN11QMainWindow15createPopupMenuEv
libQt6Widgets.so.6:_ZN11QMainWindow16contextMenuEventEP17QContextMenuEvent
libQt6Widgets.so.6:_ZN11QMainWindow16setCentralWidgetEP7QWidget
libQt6Widgets.so.6:_ZN11QMainWindow16staticMetaObjectE
libQt6Widgets.so.6:_ZN11QMainWindow5eventEP6QEvent
libQt6Widgets.so.6:_ZN11QMainWindowC2EP7QWidget6QFlagsIN2Qt10WindowTypeEE
libQt6Widgets.so.6:_ZN11QMainWindowD2Ev
libQt6Widgets.so.6:_ZN11QMessageBox11informationEP7QWidgetRK7QStringS4_6QFlagsINS_14StandardButtonEES6_
libQt6Widgets.so.6:_ZN11QMessageBox14setWindowTitleERK7QString
libQt6Widgets.so.6:_ZN11QMessageBox15setDetailedTextERK7QString
libQt6Widgets.so.6:_ZN11QMessageBox16setDefaultButtonENS_14StandardButtonE
libQt6Widgets.so.6:_ZN11QMessageBox16setDefaultButtonEP11QPushButton
libQt6Widgets.so.6:_ZN11QMessageBox18setInformativeTextERK7QString
libQt6Widgets.so.6:_ZN11QMessageBox18setStandardButtonsE6QFlagsINS_14StandardButtonEE
libQt6Widgets.so.6:_ZN11QMessageBox5aboutEP7QWidgetRK7QStringS4_
libQt6Widgets.so.6:_ZN11QMessageBox7setIconENS_4IconE
libQt6Widgets.so.6:_ZN11QMessageBox7setTextERK7QString
libQt6Widgets.so.6:_ZN11QMessageBox7warningEP7QWidgetRK7QStringS4_6QFlagsINS_14StandardButtonEES6_
libQt6Widgets.so.6:_ZN11QMessageBox8criticalEP7QWidgetRK7QStringS4_6QFlagsINS_14StandardButtonEES6_
libQt6Widgets.so.6:_ZN11QMessageBox8questionEP7QWidgetRK7QStringS4_6QFlagsINS_14StandardButtonEES6_
libQt6Widgets.so.6:_ZN11QMessageBox9addButtonENS_14StandardButtonE
libQt6Widgets.so.6:_ZN11QMessageBox9addButtonERK7QStringNS_10ButtonRoleE
libQt6Widgets.so.6:_ZN11QMessageBoxC1EP7QWidget
libQt6Widgets.so.6:_ZN11QMessageBoxD1Ev
libQt6Widgets.so.6:_ZN11QPushButton10paintEventEP11QPaintEvent
libQt6Widgets.so.6:_ZN11QPushButton10setDefaultEb
libQt6Widgets.so.6:_ZN11QPushButton11qt_metacallEN11QMetaObject4CallEiPPv
libQt6Widgets.so.6:_ZN11QPushButton11qt_metacastEPKc
libQt6Widgets.so.6:_ZN11QPushButton12focusInEventEP11QFocusEvent
libQt6Widgets.so.6:_ZN11QPushButton13focusOutEventEP11QFocusEvent
libQt6Widgets.so.6:_ZN11QPushButton13keyPressEventEP9QKeyEvent
libQt6Widgets.so.6:_ZN11QPushButton14mouseMoveEventEP11QMouseEvent
libQt6Widgets.so.6:_ZN11QPushButton14setAutoDefaultEb
libQt6Widgets.so.6:_ZN11QPushButton16staticMetaObjectE
libQt6Widgets.so.6:_ZN11QPushButton5eventEP6QEvent
libQt6Widgets.so.6:_ZN11QPushButton7setMenuEP5QMenu
libQt6Widgets.so.6:_ZN11QPushButtonC1ERK7QStringP7QWidget
libQt6Widgets.so.6:_ZN11QPushButtonC2EP7QWidget
libQt6Widgets.so.6:_ZN11QPushButtonD2Ev
libQt6Widgets.so.6:_ZN11QScrollArea18setWidgetResizableEb
libQt6Widgets.so.6:_ZN11QScrollArea19ensureWidgetVisibleEP7QWidgetii
libQt6Widgets.so.6:_ZN11QScrollArea9setWidgetEP7QWidget
libQt6Widgets.so.6:_ZN11QScrollAreaC1EP7QWidget
libQt6Widgets.so.6:_ZN11QToolButton12setArrowTypeEN2Qt9ArrowTypeE
libQt6Widgets.so.6:_ZN11QToolButton12setAutoRaiseEb
libQt6Widgets.so.6:_ZN11QToolButton12setPopupModeENS_19ToolButtonPopupModeE
libQt6Widgets.so.6:_ZN11QToolButton7setMenuEP5QMenu
libQt6Widgets.so.6:_ZN11QToolButtonC1EP7QWidget
libQt6Widgets.so.6:_ZN11QTreeWidget14setColumnCountEi
libQt6Widgets.so.6:_ZN11QTreeWidget14setCurrentItemEP15QTreeWidgetItem
libQt6Widgets.so.6:_ZN11QTreeWidget15setHeaderLabelsERK5QListI7QStringE
libQt6Widgets.so.6:_ZN11QTreeWidget16staticMetaObjectE
libQt6Widgets.so.6:_ZN11QTreeWidget17itemDoubleClickedEP15QTreeWidgetItemi
libQt6Widgets.so.6:_ZN11QTreeWidget20itemSelectionChangedEv
libQt6Widgets.so.6:_ZN11QTreeWidgetC1EP7QWidget
libQt6Widgets.so.6:_ZN11QVBoxLayoutC1EP7QWidget
libQt6Widgets.so.6:_ZN11QVBoxLayoutC1Ev
libQt6Widgets.so.6:_ZN12QApplication12activeWindowEv
libQt6Widgets.so.6:_ZN12QApplication17activePopupWidgetEv
libQt6Widgets.so.6:_ZN12QApplication4execEv
libQt6Widgets.so.6:_ZN12QApplication5styleEv
libQt6Widgets.so.6:_ZN12QApplication7aboutQtEv
libQt6Widgets.so.6:_ZN12QApplication8widgetAtERK6QPoint
libQt6Widgets.so.6:_ZN12QApplicationC1ERiPPci
libQt6Widgets.so.6:_ZN12QApplicationD1Ev
libQt6Widgets.so.6:_ZN12QColorDialog8getColorERK6QColorP7QWidgetRK7QString6QFlagsINS_17ColorDialogOptionEE
libQt6Widgets.so.6:_ZN12QInputDialog7getTextEP7QWidgetRK7QStringS4_N9QLineEdit8EchoModeES4_Pb6QFlagsIN2Qt10WindowTypeEES8_INS9_15InputMethodHintEE
libQt6Widgets.so.6:_ZN12QRadioButtonC1ERK7QStringP7QWidget
libQt6Widgets.so.6:_ZN12QStyleOptionC2Eii
libQt6Widgets.so.6:_ZN12QStyleOptionD2Ev
libQt6Widgets.so.6:_ZN12QStyleOptionaSERKS_
libQt6Widgets.so.6:_ZN12QTableWidget11setRowCountEi
libQt6Widgets.so.6:_ZN12QTableWidget12insertColumnEi
libQt6Widgets.so.6:_ZN12QTableWidget12removeColumnEi
libQt6Widgets.so.6:_ZN12QTableWidget14setColumnCountEi
libQt6Widgets.so.6:_ZN12QTableWidget16staticMetaObjectE
libQt6Widgets.so.6:_ZN12QTableWidget18currentItemChangedEP16QTableWidgetItemS1_
libQt6Widgets.so.6:_ZN12QTableWidget7setItemEiiP16QTableWidgetItem
libQt6Widgets.so.6:_ZN12QTableWidgetC1EP7QWidget
libQt6Widgets.so.6:_ZN13QDateTimeEdit11timeChangedE5QTime
libQt6Widgets.so.6:_ZN13QDateTimeEdit16setDisplayFormatERK7QString
libQt6Widgets.so.6:_ZN13QDateTimeEdit16staticMetaObjectE
libQt6Widgets.so.6:_ZN13QDateTimeEdit17setCurrentSectionENS_7SectionE
libQt6Widgets.so.6:_ZN13QDateTimeEdit7setTimeE5QTime
libQt6Widgets.so.6:_ZN13QFontComboBox14setCurrentFontERK5QFont
libQt6Widgets.so.6:_ZN13QFontComboBoxC1EP7QWidget
libQt6Widgets.so.6:_ZN13QGraphicsView12setSceneRectERK6QRectF
libQt6Widgets.so.6:_ZN13QGraphicsView9fitInViewERK6QRectFN2Qt15AspectRatioModeE
libQt6Widgets.so.6:_ZN13QGraphicsViewC1EP14QGraphicsSceneP7QWidget
libQt6Widgets.so.6:_ZN14QGraphicsScene13addSimpleTextERK7QStringRK5QFont
libQt6Widgets.so.6:_ZN14QGraphicsScene18setBackgroundBrushERK6QBrush
libQt6Widgets.so.6:_ZN14QGraphicsSceneC1EP7QObject
libQt6Widgets.so.6:_ZN14QStackedWidget12removeWidgetEP7QWidget
libQt6Widgets.so.6:_ZN14QStackedWidget15setCurrentIndexEi
libQt6Widgets.so.6:_ZN14QStackedWidget16setCurrentWidgetEP7QWidget
libQt6Widgets.so.6:_ZN14QStackedWidget9addWidgetEP7QWidget
libQt6Widgets.so.6:_ZN14QStackedWidgetC1EP7QWidget
libQt6Widgets.so.6:_ZN15QAbstractButton10setCheckedEb
libQt6Widgets.so.6:_ZN15QAbstractButton10timerEventEP11QTimerEvent
libQt6Widgets.so.6:_ZN15QAbstractButton11changeEventEP6QEvent
libQt6Widgets.so.6:_ZN15QAbstractButton11setIconSizeERK5QSize
libQt6Widgets.so.6:_ZN15QAbstractButton13checkStateSetEv
libQt6Widgets.so.6:_ZN15QAbstractButton14nextCheckStateEv
libQt6Widgets.so.6:_ZN15QAbstractButton15keyReleaseEventEP9QKeyEvent
libQt6Widgets.so.6:_ZN15QAbstractButton15mousePressEventEP11QMouseEvent
libQt6Widgets.so.6:_ZN15QAbstractButton16staticMetaObjectE
libQt6Widgets.so.6:_ZN15QAbstractButton17mouseReleaseEventEP11QMouseEvent
libQt6Widgets.so.6:_ZN15QAbstractButton7clickedEb
libQt6Widgets.so.6:_ZN15QAbstractButton7setIconERK5QIcon
libQt6Widgets.so.6:_ZN15QAbstractButton7setTextERK7QString
libQt6Widgets.so.6:_ZN15QAbstractButton7toggledEb
libQt6Widgets.so.6:_ZN15QAbstractSlider10setMaximumEi
libQt6Widgets.so.6:_ZN15QAbstractSlider12rangeChangedEii
libQt6Widgets.so.6:_ZN15QAbstractSlider15actionTriggeredEi
libQt6Widgets.so.6:_ZN15QAbstractSlider16staticMetaObjectE
libQt6Widgets.so.6:_ZN15QAbstractSlider8setValueEi
libQt6Widgets.so.6:_ZN15QGraphicsEffect10setEnabledEb
libQt6Widgets.so.6:_ZN15QListWidgetItem4readER11QDataStream
libQt6Widgets.so.6:_ZN15QListWidgetItem7setDataEiRK8QVariant
libQt6Widgets.so.6:_ZN15QListWidgetItem8setFlagsE6QFlagsIN2Qt8ItemFlagEE
libQt6Widgets.so.6:_ZN15QListWidgetItemC1ERK5QIconRK7QStringP11QListWidgeti
libQt6Widgets.so.6:_ZN15QListWidgetItemC1ERK7QStringP11QListWidgeti
libQt6Widgets.so.6:_ZN15QListWidgetItemC2ERK5QIconRK7QStringP11QListWidgeti
libQt6Widgets.so.6:_ZN15QListWidgetItemD2Ev
libQt6Widgets.so.6:_ZN15QProgressDialog10setMaximumEi
libQt6Widgets.so.6:_ZN15QProgressDialog10setMinimumEi
libQt6Widgets.so.6:_ZN15QProgressDialog12setLabelTextERK7QString
libQt6Widgets.so.6:_ZN15QProgressDialog15setCancelButtonEP11QPushButton
libQt6Widgets.so.6:_ZN15QProgressDialog18setMinimumDurationEi
libQt6Widgets.so.6:_ZN15QProgressDialog5resetEv
libQt6Widgets.so.6:_ZN15QProgressDialog8setRangeEii
libQt6Widgets.so.6:_ZN15QProgressDialog8setValueEi
libQt6Widgets.so.6:_ZN15QProgressDialogC1EP7QWidget6QFlagsIN2Qt10WindowTypeEE
libQt6Widgets.so.6:_ZN15QProgressDialogC1ERK7QStringS2_iiP7QWidget6QFlagsIN2Qt10WindowTypeEE
libQt6Widgets.so.6:_ZN15QProgressDialogD1Ev
libQt6Widgets.so.6:_ZN15QTreeWidgetItem7setDataEiiRK8QVariant
libQt6Widgets.so.6:_ZN15QTreeWidgetItemC1EP11QTreeWidgetRK5QListI7QStringEi
libQt6Widgets.so.6:_ZN16QAbstractSpinBox11setWrappingEb
libQt6Widgets.so.6:_ZN16QAbstractSpinBox17setCorrectionModeENS_14CorrectionModeE
libQt6Widgets.so.6:_ZN16QDialogButtonBox16staticMetaObjectE
libQt6Widgets.so.6:_ZN16QDialogButtonBox8acceptedEv
libQt6Widgets.so.6:_ZN16QDialogButtonBox8rejectedEv
libQt6Widgets.so.6:_ZN16QDialogButtonBox9addButtonERK7QStringNS_10ButtonRoleE
libQt6Widgets.so.6:_ZN16QDialogButtonBoxC1E6QFlagsINS_14StandardButtonEEN2Qt11OrientationEP7QWidget
libQt6Widgets.so.6:_ZN16QDialogButtonBoxC1EN2Qt11OrientationEP7QWidget
libQt6Widgets.so.6:_ZN16QKeySequenceEdit14setKeySequenceERK12QKeySequence
libQt6Widgets.so.6:_ZN16QKeySequenceEdit15editingFinishedEv
libQt6Widgets.so.6:_ZN16QKeySequenceEdit16staticMetaObjectE
libQt6Widgets.so.6:_ZN16QKeySequenceEdit5clearEv
libQt6Widgets.so.6:_ZN16QKeySequenceEditC1EP7QWidget
libQt6Widgets.so.6:_ZN16QTableWidgetItem11setSelectedEb
libQt6Widgets.so.6:_ZN16QTableWidgetItem8setFlagsE6QFlagsIN2Qt8ItemFlagEE
libQt6Widgets.so.6:_ZN16QTableWidgetItemC1ERK7QStringi
libQt6Widgets.so.6:_ZN16QTableWidgetItemC1Ei
libQt6Widgets.so.6:_ZN17QAbstractItemView11setIconSizeERK5QSize
libQt6Widgets.so.6:_ZN17QAbstractItemView13doubleClickedERK11QModelIndex
libQt6Widgets.so.6:_ZN17QAbstractItemView14clearSelectionEv
libQt6Widgets.so.6:_ZN17QAbstractItemView14scrollToBottomEv
libQt6Widgets.so.6:_ZN17QAbstractItemView14setDragEnabledEb
libQt6Widgets.so.6:_ZN17QAbstractItemView15setCurrentIndexERK11QModelIndex
libQt6Widgets.so.6:_ZN17QAbstractItemView15setDragDropModeENS_12DragDropModeE
libQt6Widgets.so.6:_ZN17QAbstractItemView15setItemDelegateEP21QAbstractItemDelegate
libQt6Widgets.so.6:_ZN17QAbstractItemView16setSelectionModeENS_13SelectionModeE
libQt6Widgets.so.6:_ZN17QAbstractItemView16staticMetaObjectE
libQt6Widgets.so.6:_ZN17QAbstractItemView19setTabKeyNavigationEb
libQt6Widgets.so.6:_ZN17QAbstractItemView21setDropIndicatorShownEb
libQt6Widgets.so.6:_ZN17QAbstractItemView21setVerticalScrollModeENS_10ScrollModeE
libQt6Widgets.so.6:_ZN17QAbstractItemView23setAlternatingRowColorsEb
libQt6Widgets.so.6:_ZN19QAbstractScrollArea11eventFilterEP7QObjectP6QEvent
libQt6Widgets.so.6:_ZN19QAbstractScrollArea13setupViewportEP7QWidget
libQt6Widgets.so.6:_ZN19QAbstractScrollArea13viewportEventEP6QEvent
libQt6Widgets.so.6:_ZN19QAbstractScrollArea26setVerticalScrollBarPolicyEN2Qt15ScrollBarPolicyE
libQt6Widgets.so.6:_ZN19QAbstractScrollArea28setHorizontalScrollBarPolicyEN2Qt15ScrollBarPolicyE
libQt6Widgets.so.6:_ZN19QStyledItemDelegate11editorEventEP6QEventP18QAbstractItemModelRK20QStyleOptionViewItemRK11QModelIndex
libQt6Widgets.so.6:_ZN19QStyledItemDelegate11eventFilterEP7QObjectP6QEvent
libQt6Widgets.so.6:_ZN19QStyledItemDelegate11qt_metacallEN11QMetaObject4CallEiPPv
libQt6Widgets.so.6:_ZN19QStyledItemDelegate11qt_metacastEPKc
libQt6Widgets.so.6:_ZN19QStyledItemDelegateC2EP7QObject
libQt6Widgets.so.6:_ZN19QStyledItemDelegateD2Ev
libQt6Widgets.so.6:_ZN21QAbstractItemDelegate9helpEventEP10QHelpEventP17QAbstractItemViewRK20QStyleOptionViewItemRK11QModelIndex
libQt6Widgets.so.6:_ZN22QGraphicsOpacityEffect10setOpacityEd
libQt6Widgets.so.6:_ZN22QGraphicsOpacityEffectC1EP7QObject
libQt6Widgets.so.6:_ZN23QGraphicsSimpleTextItem7setFontERK5QFont
libQt6Widgets.so.6:_ZN23QGraphicsSimpleTextItem7setTextERK7QString
libQt6Widgets.so.6:_ZN26QAbstractGraphicsShapeItem8setBrushERK6QBrush
libQt6Widgets.so.6:_ZN5QMenu11aboutToHideEv
libQt6Widgets.so.6:_ZN5QMenu11aboutToShowEv
libQt6Widgets.so.6:_ZN5QMenu12addSeparatorEv
libQt6Widgets.so.6:_ZN5QMenu16staticMetaObjectE
libQt6Widgets.so.6:_ZN5QMenu4execERK6QPointP7QAction
libQt6Widgets.so.6:_ZN5QMenu5clearEv
libQt6Widgets.so.6:_ZN5QMenu5popupERK6QPointP7QAction
libQt6Widgets.so.6:_ZN5QMenu7addMenuEPS_
libQt6Widgets.so.6:_ZN5QMenu7addMenuERK7QString
libQt6Widgets.so.6:_ZN5QMenu8setTitleERK7QString
libQt6Widgets.so.6:_ZN5QMenu9triggeredEP7QAction
libQt6Widgets.so.6:_ZN5QMenuC1EP7QWidget
libQt6Widgets.so.6:_ZN6QFrame10paintEventEP11QPaintEvent
libQt6Widgets.so.6:_ZN6QFrame11changeEventEP6QEvent
libQt6Widgets.so.6:_ZN6QFrame11qt_metacallEN11QMetaObject4CallEiPPv
libQt6Widgets.so.6:_ZN6QFrame11qt_metacastEPKc
libQt6Widgets.so.6:_ZN6QFrame13setFrameStyleEi
libQt6Widgets.so.6:_ZN6QFrame16staticMetaObjectE
libQt6Widgets.so.6:_ZN6QFrame5eventEP6QEvent
libQt6Widgets.so.6:_ZN6QFrameC1EP7QWidget6QFlagsIN2Qt10WindowTypeEE
libQt6Widgets.so.6:_ZN6QFrameC2EP7QWidget6QFlagsIN2Qt10WindowTypeEE
libQt6Widgets.so.6:_ZN6QFrameD2Ev
libQt6Widgets.so.6:_ZN6QLabel10paintEventEP11QPaintEvent
libQt6Widgets.so.6:_ZN6QLabel11changeEventEP6QEvent
libQt6Widgets.so.6:_ZN6QLabel11qt_metacallEN11QMetaObject4CallEiPPv
libQt6Widgets.so.6:_ZN6QLabel11qt_metacastEPKc
libQt6Widgets.so.6:_ZN6QLabel11setWordWrapEb
libQt6Widgets.so.6:_ZN6QLabel12focusInEventEP11QFocusEvent
libQt6Widgets.so.6:_ZN6QLabel12setAlignmentE6QFlagsIN2Qt13AlignmentFlagEE
libQt6Widgets.so.6:_ZN6QLabel13focusOutEventEP11QFocusEvent
libQt6Widgets.so.6:_ZN6QLabel13keyPressEventEP9QKeyEvent
libQt6Widgets.so.6:_ZN6QLabel14mouseMoveEventEP11QMouseEvent
libQt6Widgets.so.6:_ZN6QLabel15mousePressEventEP11QMouseEvent
libQt6Widgets.so.6:_ZN6QLabel16contextMenuEventEP17QContextMenuEvent
libQt6Widgets.so.6:_ZN6QLabel16staticMetaObjectE
libQt6Widgets.so.6:_ZN6QLabel17mouseReleaseEventEP11QMouseEvent
libQt6Widgets.so.6:_ZN6QLabel18focusNextPrevChildEb
libQt6Widgets.so.6:_ZN6QLabel23setTextInteractionFlagsE6QFlagsIN2Qt19TextInteractionFlagEE
libQt6Widgets.so.6:_ZN6QLabel5clearEv
libQt6Widgets.so.6:_ZN6QLabel5eventEP6QEvent
libQt6Widgets.so.6:_ZN6QLabel7setTextERK7QString
libQt6Widgets.so.6:_ZN6QLabel9setPixmapERK7QPixmap
libQt6Widgets.so.6:_ZN6QLabelC1EP7QWidget6QFlagsIN2Qt10WindowTypeEE
libQt6Widgets.so.6:_ZN6QLabelC1ERK7QStringP7QWidget6QFlagsIN2Qt10WindowTypeEE
libQt6Widgets.so.6:_ZN6QLabelC2EP7QWidget6QFlagsIN2Qt10WindowTypeEE
libQt6Widgets.so.6:_ZN6QLabelD2Ev
libQt6Widgets.so.6:_ZN7QDialog10closeEventEP11QCloseEvent
libQt6Widgets.so.6:_ZN7QDialog10setVisibleEb
libQt6Widgets.so.6:_ZN7QDialog11eventFilterEP7QObjectP6QEvent
libQt6Widgets.so.6:_ZN7QDialog11qt_metacallEN11QMetaObject4CallEiPPv
libQt6Widgets.so.6:_ZN7QDialog11qt_metacastEPKc
libQt6Widgets.so.6:_ZN7QDialog11resizeEventEP12QResizeEvent
libQt6Widgets.so.6:_ZN7QDialog13keyPressEventEP9QKeyEvent
libQt6Widgets.so.6:_ZN7QDialog16contextMenuEventEP17QContextMenuEvent
libQt6Widgets.so.6:_ZN7QDialog16staticMetaObjectE
libQt6Widgets.so.6:_ZN7QDialog4doneEi
libQt6Widgets.so.6:_ZN7QDialog4execEv
libQt6Widgets.so.6:_ZN7QDialog4openEv
libQt6Widgets.so.6:_ZN7QDialog6acceptEv
libQt6Widgets.so.6:_ZN7QDialog6rejectEv
libQt6Widgets.so.6:_ZN7QDialog8setModalEb
libQt6Widgets.so.6:_ZN7QDialog9showEventEP10QShowEvent
libQt6Widgets.so.6:_ZN7QDialogC2EP7QWidget6QFlagsIN2Qt10WindowTypeEE
libQt6Widgets.so.6:_ZN7QDialogD2Ev
libQt6Widgets.so.6:_ZN7QLayout17setSizeConstraintENS_14SizeConstraintE
libQt6Widgets.so.6:_ZN7QLayout18setContentsMarginsEiiii
libQt6Widgets.so.6:_ZN7QTabBar10setMovableEb
libQt6Widgets.so.6:_ZN7QTabBar10setTabTextEiRK7QString
libQt6Widgets.so.6:_ZN7QTabBar12setExpandingEb
libQt6Widgets.so.6:_ZN7QTabBar13setTabToolTipEiRK7QString
libQt6Widgets.so.6:_ZN7QTabBar14currentChangedEi
libQt6Widgets.so.6:_ZN7QTabBar15setCurrentIndexEi
libQt6Widgets.so.6:_ZN7QTabBar15setDocumentModeEb
libQt6Widgets.so.6:_ZN7QTabBar15setTabsClosableEb
libQt6Widgets.so.6:_ZN7QTabBar16staticMetaObjectE
libQt6Widgets.so.6:_ZN7QTabBar17tabCloseRequestedEi
libQt6Widgets.so.6:_ZN7QTabBar20setUsesScrollButtonsEb
libQt6Widgets.so.6:_ZN7QTabBar6addTabERK7QString
libQt6Widgets.so.6:_ZN7QTabBar8setShapeENS_5ShapeE
libQt6Widgets.so.6:_ZN7QTabBar8tabMovedEii
libQt6Widgets.so.6:_ZN7QTabBar9removeTabEi
libQt6Widgets.so.6:_ZN7QTabBarC1EP7QWidget
libQt6Widgets.so.6:_ZN7QWidget10addActionsERK5QListIP7QActionE
libQt6Widgets.so.6:_ZN7QWidget10clearFocusEv
libQt6Widgets.so.6:_ZN7QWidget10closeEventEP11QCloseEvent
libQt6Widgets.so.6:_ZN7QWidget10enterEventEP11QEnterEvent
libQt6Widgets.so.6:_ZN7QWidget10leaveEventEP6QEvent
libQt6Widgets.so.6:_ZN7QWidget10paintEventEP11QPaintEvent
libQt6Widgets.so.6:_ZN7QWidget10setEnabledEb
libQt6Widgets.so.6:_ZN7QWidget10setPaletteERK8QPalette
libQt6Widgets.so.6:_ZN7QWidget10setToolTipERK7QString
libQt6Widgets.so.6:_ZN7QWidget10setVisibleEb
libQt6Widgets.so.6:_ZN7QWidget10wheelEventEP11QWheelEvent
libQt6Widgets.so.6:_ZN7QWidget11actionEventEP12QActionEvent
libQt6Widgets.so.6:_ZN7QWidget11changeEventEP6QEvent
libQt6Widgets.so.6:_ZN7QWidget11nativeEventERK10QByteArrayPvPx
libQt6Widgets.so.6:_ZN7QWidget11qt_metacallEN11QMetaObject4CallEiPPv
libQt6Widgets.so.6:_ZN7QWidget11qt_metacastEPKc
libQt6Widgets.so.6:_ZN7QWidget11resizeEventEP12QResizeEvent
libQt6Widgets.so.6:_ZN7QWidget11setDisabledEb
libQt6Widgets.so.6:_ZN7QWidget11setGeometryERK5QRect
libQt6Widgets.so.6:_ZN7QWidget11tabletEventEP12QTabletEvent
libQt6Widgets.so.6:_ZN7QWidget11unsetCursorEv
libQt6Widgets.so.6:_ZN7QWidget12focusInEventEP11QFocusEvent
libQt6Widgets.so.6:_ZN7QWidget12insertActionEP7QActionS1_
libQt6Widgets.so.6:_ZN7QWidget12removeActionEP7QAction
libQt6Widgets.so.6:_ZN7QWidget12setAttributeEN2Qt15WidgetAttributeEb
libQt6Widgets.so.6:_ZN7QWidget12setFixedSizeERK5QSize
libQt6Widgets.so.6:_ZN7QWidget12setFixedSizeEii
libQt6Widgets.so.6:_ZN7QWidget13dragMoveEventEP14QDragMoveEvent
libQt6Widgets.so.6:_ZN7QWidget13focusOutEventEP11QFocusEvent
libQt6Widgets.so.6:_ZN7QWidget13keyPressEventEP9QKeyEvent
libQt6Widgets.so.6:_ZN7QWidget13setFixedWidthEi
libQt6Widgets.so.6:_ZN7QWidget13setFocusProxyEPS_
libQt6Widgets.so.6:_ZN7QWidget13setSizePolicyE11QSizePolicy
libQt6Widgets.so.6:_ZN7QWidget13setStyleSheetERK7QString
libQt6Widgets.so.6:_ZN7QWidget13showMinimizedEv
libQt6Widgets.so.6:_ZN7QWidget14activateWindowEv
libQt6Widgets.so.6:_ZN7QWidget14dragEnterEventEP15QDragEnterEvent
libQt6Widgets.so.6:_ZN7QWidget14dragLeaveEventEP15QDragLeaveEvent
libQt6Widgets.so.6:_ZN7QWidget14mouseMoveEventEP11QMouseEvent
libQt6Widgets.so.6:_ZN7QWidget14setAcceptDropsEb
libQt6Widgets.so.6:_ZN7QWidget14setFixedHeightEi
libQt6Widgets.so.6:_ZN7QWidget14setFocusPolicyEN2Qt11FocusPolicyE
libQt6Widgets.so.6:_ZN7QWidget14setMinimumSizeEii
libQt6Widgets.so.6:_ZN7QWidget14setWindowStateE6QFlagsIN2Qt11WindowStateEE
libQt6Widgets.so.6:_ZN7QWidget14setWindowTitleERK7QString
libQt6Widgets.so.6:_ZN7QWidget14updateGeometryEv
libQt6Widgets.so.6:_ZN7QWidget15keyReleaseEventEP9QKeyEvent
libQt6Widgets.so.6:_ZN7QWidget15mousePressEventEP11QMouseEvent
libQt6Widgets.so.6:_ZN7QWidget15restoreGeometryERK10QByteArray
libQt6Widgets.so.6:_ZN7QWidget15setMaximumWidthEi
libQt6Widgets.so.6:_ZN7QWidget15setMinimumWidthEi
libQt6Widgets.so.6:_ZN7QWidget16contextMenuEventEP17QContextMenuEvent
libQt6Widgets.so.6:_ZN7QWidget16inputMethodEventEP17QInputMethodEvent
libQt6Widgets.so.6:_ZN7QWidget16setMaximumHeightEi
libQt6Widgets.so.6:_ZN7QWidget16setMinimumHeightEi
libQt6Widgets.so.6:_ZN7QWidget16staticMetaObjectE
libQt6Widgets.so.6:_ZN7QWidget17mouseReleaseEventEP11QMouseEvent
libQt6Widgets.so.6:_ZN7QWidget17setBackgroundRoleEN8QPalette9ColorRoleE
libQt6Widgets.so.6:_ZN7QWidget17setGraphicsEffectEP15QGraphicsEffect
libQt6Widgets.so.6:_ZN7QWidget17setWindowFilePathERK7QString
libQt6Widgets.so.6:_ZN7QWidget17setWindowModalityEN2Qt14WindowModalityE
libQt6Widgets.so.6:_ZN7QWidget17setWindowModifiedEb
libQt6Widgets.so.6:_ZN7QWidget18focusNextPrevChildEb
libQt6Widgets.so.6:_ZN7QWidget20setContextMenuPolicyEN2Qt17ContextMenuPolicyE
libQt6Widgets.so.6:_ZN7QWidget21mouseDoubleClickEventEP11QMouseEvent
libQt6Widgets.so.6:_ZN7QWidget21setAutoFillBackgroundEb
libQt6Widgets.so.6:_ZN7QWidget26customContextMenuRequestedERK6QPoint
libQt6Widgets.so.6:_ZN7QWidget4hideEv
libQt6Widgets.so.6:_ZN7QWidget4moveERK6QPoint
libQt6Widgets.so.6:_ZN7QWidget4showEv
libQt6Widgets.so.6:_ZN7QWidget5closeEv
libQt6Widgets.so.6:_ZN7QWidget5eventEP6QEvent
libQt6Widgets.so.6:_ZN7QWidget5raiseEv
libQt6Widgets.so.6:_ZN7QWidget6renderEP12QPaintDeviceRK6QPointRK7QRegion6QFlagsINS_10RenderFlagEE
libQt6Widgets.so.6:_ZN7QWidget6resizeERK5QSize
libQt6Widgets.so.6:_ZN7QWidget6updateEv
libQt6Widgets.so.6:_ZN7QWidget7repaintEv
libQt6Widgets.so.6:_ZN7QWidget7setFontERK5QFont
libQt6Widgets.so.6:_ZN7QWidget7setMaskERK7QRegion
libQt6Widgets.so.6:_ZN7QWidget8setFocusEN2Qt11FocusReasonE
libQt6Widgets.so.6:_ZN7QWidget9addActionEP7QAction
libQt6Widgets.so.6:_ZN7QWidget9addActionERK5QIconRK7QString
libQt6Widgets.so.6:_ZN7QWidget9addActionERK7QString
libQt6Widgets.so.6:_ZN7QWidget9clearMaskEv
libQt6Widgets.so.6:_ZN7QWidget9dropEventEP10QDropEvent
libQt6Widgets.so.6:_ZN7QWidget9hideEventEP10QHideEvent
libQt6Widgets.so.6:_ZN7QWidget9moveEventEP10QMoveEvent
libQt6Widgets.so.6:_ZN7QWidget9setCursorERK7QCursor
libQt6Widgets.so.6:_ZN7QWidget9setHiddenEb
libQt6Widgets.so.6:_ZN7QWidget9setParentEPS_
libQt6Widgets.so.6:_ZN7QWidget9showEventEP10QShowEvent
libQt6Widgets.so.6:_ZN7QWidgetC1EPS_6QFlagsIN2Qt10WindowTypeEE
libQt6Widgets.so.6:_ZN7QWidgetC2EPS_6QFlagsIN2Qt10WindowTypeEE
libQt6Widgets.so.6:_ZN7QWidgetD2Ev
libQt6Widgets.so.6:_ZN8QMenuBar16setNativeMenuBarEb
libQt6Widgets.so.6:_ZN8QMenuBar7addMenuERK7QString
libQt6Widgets.so.6:_ZN8QSpinBox12valueChangedEi
libQt6Widgets.so.6:_ZN8QSpinBox13setSingleStepEi
libQt6Widgets.so.6:_ZN8QSpinBox16staticMetaObjectE
libQt6Widgets.so.6:_ZN8QSpinBox8setRangeEii
libQt6Widgets.so.6:_ZN8QSpinBox8setValueEi
libQt6Widgets.so.6:_ZN8QSpinBox9setSuffixERK7QString
libQt6Widgets.so.6:_ZN8QSpinBoxC1EP7QWidget
libQt6Widgets.so.6:_ZN8QToolBar10setMovableEb
libQt6Widgets.so.6:_ZN8QToolBar12addSeparatorEv
libQt6Widgets.so.6:_ZN8QToolBar12setFloatableEb
libQt6Widgets.so.6:_ZN8QToolBar18setToolButtonStyleEN2Qt15ToolButtonStyleE
libQt6Widgets.so.6:_ZN8QToolBar5clearEv
libQt6Widgets.so.6:_ZN8QToolBarC1EP7QWidget
libQt6Widgets.so.6:_ZN8QToolTip8showTextERK6QPointRK7QStringP7QWidgetRK5QRecti
libQt6Widgets.so.6:_ZN9QCheckBoxC1ERK7QStringP7QWidget
libQt6Widgets.so.6:_ZN9QComboBox10insertItemEiRK5QIconRK7QStringRK8QVariant
libQt6Widgets.so.6:_ZN9QComboBox10removeItemEi
libQt6Widgets.so.6:_ZN9QComboBox11insertItemsEiRK5QListI7QStringE
libQt6Widgets.so.6:_ZN9QComboBox11setEditTextERK7QString
libQt6Widgets.so.6:_ZN9QComboBox11setEditableEb
libQt6Widgets.so.6:_ZN9QComboBox12setValidatorEPK10QValidator
libQt6Widgets.so.6:_ZN9QComboBox15editTextChangedERK7QString
libQt6Widgets.so.6:_ZN9QComboBox15setCurrentIndexEi
libQt6Widgets.so.6:_ZN9QComboBox16staticMetaObjectE
libQt6Widgets.so.6:_ZN9QComboBox18setMaxVisibleItemsEi
libQt6Widgets.so.6:_ZN9QComboBox19currentIndexChangedEi
libQt6Widgets.so.6:_ZN9QComboBox24setMinimumContentsLengthEi
libQt6Widgets.so.6:_ZN9QComboBox5clearEv
libQt6Widgets.so.6:_ZN9QComboBox9activatedEi
libQt6Widgets.so.6:_ZN9QComboBoxC1EP7QWidget
libQt6Widgets.so.6:_ZN9QGroupBox10setCheckedEb
libQt6Widgets.so.6:_ZN9QGroupBox12setCheckableEb
libQt6Widgets.so.6:_ZN9QGroupBox16staticMetaObjectE
libQt6Widgets.so.6:_ZN9QGroupBox7clickedEb
libQt6Widgets.so.6:_ZN9QGroupBoxC1ERK7QStringP7QWidget
libQt6Widgets.so.6:_ZN9QLineEdit11textChangedERK7QString
libQt6Widgets.so.6:_ZN9QLineEdit12setMaxLengthEi
libQt6Widgets.so.6:_ZN9QLineEdit16staticMetaObjectE
libQt6Widgets.so.6:_ZN9QLineEdit18setPlaceholderTextERK7QString
libQt6Widgets.so.6:_ZN9QLineEdit3delEv
libQt6Widgets.so.6:_ZN9QLineEdit5clearEv
libQt6Widgets.so.6:_ZN9QLineEdit6insertERK7QString
libQt6Widgets.so.6:_ZN9QLineEdit7setTextERK7QString
libQt6Widgets.so.6:_ZN9QLineEditC1EP7QWidget
libQt6Widgets.so.6:_ZN9QLineEditC1ERK7QStringP7QWidget
libQt6Widgets.so.6:_ZN9QListView11setGridSizeERK5QSize
libQt6Widgets.so.6:_ZN9QListView11setMovementENS_8MovementE
libQt6Widgets.so.6:_ZN9QListView11setViewModeENS_8ViewModeE
libQt6Widgets.so.6:_ZN9QListView11setWordWrapEb
libQt6Widgets.so.6:_ZN9QListView13setResizeModeENS_10ResizeModeE
libQt6Widgets.so.6:_ZN9QListView19setUniformItemSizesEb
libQt6Widgets.so.6:_ZN9QListViewC1EP7QWidget
libQt6Widgets.so.6:_ZN9QSizeGripC1EP7QWidget
libQt6Widgets.so.6:_ZN9QSplitter12restoreStateERK10QByteArray
libQt6Widgets.so.6:_ZN9QSplitter16setStretchFactorEii
libQt6Widgets.so.6:_ZN9QSplitter8setSizesERK5QListIiE
libQt6Widgets.so.6:_ZN9QSplitter9addWidgetEP7QWidget
libQt6Widgets.so.6:_ZN9QSplitterC1EP7QWidget
libQt6Widgets.so.6:_ZN9QTextEdit10moveCursorEN11QTextCursor13MoveOperationENS0_8MoveModeE
libQt6Widgets.so.6:_ZN9QTextEdit10paintEventEP11QPaintEvent
libQt6Widgets.so.6:_ZN9QTextEdit10timerEventEP11QTimerEvent
libQt6Widgets.so.6:_ZN9QTextEdit10wheelEventEP11QWheelEvent
libQt6Widgets.so.6:_ZN9QTextEdit11changeEventEP6QEvent
libQt6Widgets.so.6:_ZN9QTextEdit11qt_metacallEN11QMetaObject4CallEiPPv
libQt6Widgets.so.6:_ZN9QTextEdit11qt_metacastEPKc
libQt6Widgets.so.6:_ZN9QTextEdit11resizeEventEP12QResizeEvent
libQt6Widgets.so.6:_ZN9QTextEdit11setReadOnlyEb
libQt6Widgets.so.6:_ZN9QTextEdit11textChangedEv
libQt6Widgets.so.6:_ZN9QTextEdit12focusInEventEP11QFocusEvent
libQt6Widgets.so.6:_ZN9QTextEdit12loadResourceEiRK4QUrl
libQt6Widgets.so.6:_ZN9QTextEdit12setAlignmentE6QFlagsIN2Qt13AlignmentFlagEE
libQt6Widgets.so.6:_ZN9QTextEdit12setPlainTextERK7QString
libQt6Widgets.so.6:_ZN9QTextEdit13copyAvailableEb
libQt6Widgets.so.6:_ZN9QTextEdit13dragMoveEventEP14QDragMoveEvent
libQt6Widgets.so.6:_ZN9QTextEdit13focusOutEventEP11QFocusEvent
libQt6Widgets.so.6:_ZN9QTextEdit13keyPressEventEP9QKeyEvent
libQt6Widgets.so.6:_ZN9QTextEdit13redoAvailableEb
libQt6Widgets.so.6:_ZN9QTextEdit13setFontItalicEb
libQt6Widgets.so.6:_ZN9QTextEdit13setFontWeightEi
libQt6Widgets.so.6:_ZN9QTextEdit13setTextCursorERK11QTextCursor
libQt6Widgets.so.6:_ZN9QTextEdit13undoAvailableEb
libQt6Widgets.so.6:_ZN9QTextEdit14dragEnterEventEP15QDragEnterEvent
libQt6Widgets.so.6:_ZN9QTextEdit14dragLeaveEventEP15QDragLeaveEvent
libQt6Widgets.so.6:_ZN9QTextEdit14mouseMoveEventEP11QMouseEvent
libQt6Widgets.so.6:_ZN9QTextEdit14setCursorWidthEi
libQt6Widgets.so.6:_ZN9QTextEdit15doSetTextCursorERK11QTextCursor
libQt6Widgets.so.6:_ZN9QTextEdit15insertPlainTextERK7QString
libQt6Widgets.so.6:_ZN9QTextEdit15keyReleaseEventEP9QKeyEvent
libQt6Widgets.so.6:_ZN9QTextEdit15mousePressEventEP11QMouseEvent
libQt6Widgets.so.6:_ZN9QTextEdit16inputMethodEventEP17QInputMethodEvent
libQt6Widgets.so.6:_ZN9QTextEdit16scrollContentsByEii
libQt6Widgets.so.6:_ZN9QTextEdit16selectionChangedEv
libQt6Widgets.so.6:_ZN9QTextEdit16setFontUnderlineEb
libQt6Widgets.so.6:_ZN9QTextEdit16setOverwriteModeEb
libQt6Widgets.so.6:_ZN9QTextEdit16staticMetaObjectE
libQt6Widgets.so.6:_ZN9QTextEdit17mouseReleaseEventEP11QMouseEvent
libQt6Widgets.so.6:_ZN9QTextEdit18focusNextPrevChildEb
libQt6Widgets.so.6:_ZN9QTextEdit18setExtraSelectionsERK5QListINS_14ExtraSelectionEE
libQt6Widgets.so.6:_ZN9QTextEdit18setTabStopDistanceEd
libQt6Widgets.so.6:_ZN9QTextEdit19ensureCursorVisibleEv
libQt6Widgets.so.6:_ZN9QTextEdit21cursorPositionChangedEv
libQt6Widgets.so.6:_ZN9QTextEdit21mouseDoubleClickEventEP11QMouseEvent
libQt6Widgets.so.6:_ZN9QTextEdit22mergeCurrentCharFormatERK15QTextCharFormat
libQt6Widgets.so.6:_ZN9QTextEdit24currentCharFormatChangedERK15QTextCharFormat
libQt6Widgets.so.6:_ZN9QTextEdit25createStandardContextMenuEv
libQt6Widgets.so.6:_ZN9QTextEdit3cutEv
libQt6Widgets.so.6:_ZN9QTextEdit4copyEv
libQt6Widgets.so.6:_ZN9QTextEdit4redoEv
libQt6Widgets.so.6:_ZN9QTextEdit4undoEv
libQt6Widgets.so.6:_ZN9QTextEdit5eventEP6QEvent
libQt6Widgets.so.6:_ZN9QTextEdit5pasteEv
libQt6Widgets.so.6:_ZN9QTextEdit7setHtmlERK7QString
libQt6Widgets.so.6:_ZN9QTextEdit9dropEventEP10QDropEvent
libQt6Widgets.so.6:_ZN9QTextEdit9selectAllEv
libQt6Widgets.so.6:_ZN9QTextEdit9showEventEP10QShowEvent
libQt6Widgets.so.6:_ZN9QTextEditC1EP7QWidget
libQt6Widgets.so.6:_ZN9QTextEditC2EP7QWidget
libQt6Widgets.so.6:_ZN9QTextEditD1Ev
libQt6Widgets.so.6:_ZN9QTextEditD2Ev
libQt6Widgets.so.6:_ZN9QTimeEditC1EP7QWidget
libQt6Widgets.so.6:_ZN9QTreeView12sortByColumnEiN2Qt9SortOrderE
libQt6Widgets.so.6:_ZN9QTreeView15setColumnHiddenEib
libQt6Widgets.so.6:_ZN9QTreeView18setItemsExpandableEb
libQt6Widgets.so.6:_ZN9QTreeView18setRootIsDecoratedEb
libQt6Widgets.so.6:_ZNK10QTabWidget12currentIndexEv
libQt6Widgets.so.6:_ZNK10QTableView14verticalHeaderEv
libQt6Widgets.so.6:_ZNK10QTableView16horizontalHeaderEv
libQt6Widgets.so.6:_ZNK10QTableView9rowHeightEi
libQt6Widgets.so.6:_ZNK11QFormLayout13labelForFieldEP7QWidget
libQt6Widgets.so.6:_ZNK11QGridLayout16rowMinimumHeightEi
libQt6Widgets.so.6:_ZNK11QGridLayout8cellRectEii
libQt6Widgets.so.6:_ZNK11QHeaderView11sectionSizeEi
libQt6Widgets.so.6:_ZNK11QHeaderView15sectionSizeHintEi
libQt6Widgets.so.6:_ZNK11QListWidget10currentRowEv
libQt6Widgets.so.6:_ZNK11QListWidget11currentItemEv
libQt6Widgets.so.6:_ZNK11QListWidget13selectedItemsEv
libQt6Widgets.so.6:_ZNK11QListWidget4itemEi
libQt6Widgets.so.6:_ZNK11QListWidget5countEv
libQt6Widgets.so.6:_ZNK11QListWidget9findItemsERK7QString6QFlagsIN2Qt9MatchFlagEE
libQt6Widgets.so.6:_ZNK11QMainWindow13centralWidgetEv
libQt6Widgets.so.6:_ZNK11QMainWindow7menuBarEv
libQt6Widgets.so.6:_ZNK11QMessageBox13clickedButtonEv
libQt6Widgets.so.6:_ZNK11QMessageBox6buttonENS_14StandardButtonE
libQt6Widgets.so.6:_ZNK11QPushButton15initStyleOptionEP18QStyleOptionButton
libQt6Widgets.so.6:_ZNK11QPushButton15minimumSizeHintEv
libQt6Widgets.so.6:_ZNK11QPushButton8sizeHintEv
libQt6Widgets.so.6:_ZNK11QPushButton9hitButtonERK6QPoint
libQt6Widgets.so.6:_ZNK11QTreeWidget11currentItemEv
libQt6Widgets.so.6:_ZNK11QTreeWidget12topLevelItemEi
libQt6Widgets.so.6:_ZNK11QTreeWidget17topLevelItemCountEv
libQt6Widgets.so.6:_ZNK12QTableWidget11columnCountEv
libQt6Widgets.so.6:_ZNK12QTableWidget4itemEii
libQt6Widgets.so.6:_ZNK13QDateTimeEdit4timeEv
libQt6Widgets.so.6:_ZNK13QFontComboBox11currentFontEv
libQt6Widgets.so.6:_ZNK15QAbstractButton4iconEv
libQt6Widgets.so.6:_ZNK15QAbstractButton9isCheckedEv
libQt6Widgets.so.6:_ZNK15QAbstractSlider5valueEv
libQt6Widgets.so.6:_ZNK15QAbstractSlider7maximumEv
libQt6Widgets.so.6:_ZNK15QAbstractSlider7minimumEv
libQt6Widgets.so.6:_ZNK15QListWidgetItem10isSelectedEv
libQt6Widgets.so.6:_ZNK15QListWidgetItem4dataEi
libQt6Widgets.so.6:_ZNK15QListWidgetItem5cloneEv
libQt6Widgets.so.6:_ZNK15QListWidgetItem5writeER11QDataStream
libQt6Widgets.so.6:_ZNK15QProgressDialog11wasCanceledEv
libQt6Widgets.so.6:_ZNK16QDialogButtonBox6buttonENS_14StandardButtonE
libQt6Widgets.so.6:_ZNK16QKeySequenceEdit11keySequenceEv
libQt6Widgets.so.6:_ZNK17QAbstractItemView12currentIndexEv
libQt6Widgets.so.6:_ZNK17QAbstractItemView14selectionModelEv
libQt6Widgets.so.6:_ZNK17QAbstractItemView5modelEv
libQt6Widgets.so.6:_ZNK17QAbstractItemView8iconSizeEv
libQt6Widgets.so.6:_ZNK17QAbstractItemView9rootIndexEv
libQt6Widgets.so.6:_ZNK19QAbstractScrollArea15minimumSizeHintEv
libQt6Widgets.so.6:_ZNK19QAbstractScrollArea16viewportSizeHintEv
libQt6Widgets.so.6:_ZNK19QAbstractScrollArea17verticalScrollBarEv
libQt6Widgets.so.6:_ZNK19QAbstractScrollArea19horizontalScrollBarEv
libQt6Widgets.so.6:_ZNK19QAbstractScrollArea8sizeHintEv
libQt6Widgets.so.6:_ZNK19QAbstractScrollArea8viewportEv
libQt6Widgets.so.6:_ZNK19QStyledItemDelegate10metaObjectEv
libQt6Widgets.so.6:_ZNK19QStyledItemDelegate11displayTextERK8QVariantRK7QLocale
libQt6Widgets.so.6:_ZNK19QStyledItemDelegate12createEditorEP7QWidgetRK20QStyleOptionViewItemRK11QModelIndex
libQt6Widgets.so.6:_ZNK19QStyledItemDelegate12setModelDataEP7QWidgetP18QAbstractItemModelRK11QModelIndex
libQt6Widgets.so.6:_ZNK19QStyledItemDelegate13setEditorDataEP7QWidgetRK11QModelIndex
libQt6Widgets.so.6:_ZNK19QStyledItemDelegate15initStyleOptionEP20QStyleOptionViewItemRK11QModelIndex
libQt6Widgets.so.6:_ZNK19QStyledItemDelegate20updateEditorGeometryEP7QWidgetRK20QStyleOptionViewItemRK11QModelIndex
libQt6Widgets.so.6:_ZNK19QStyledItemDelegate5paintEP8QPainterRK20QStyleOptionViewItemRK11QModelIndex
libQt6Widgets.so.6:_ZNK19QStyledItemDelegate8sizeHintERK20QStyleOptionViewItemRK11QModelIndex
libQt6Widgets.so.6:_ZNK21QAbstractItemDelegate13destroyEditorEP7QWidgetRK11QModelIndex
libQt6Widgets.so.6:_ZNK21QAbstractItemDelegate13paintingRolesEv
libQt6Widgets.so.6:_ZNK22QGraphicsOpacityEffect7opacityEv
libQt6Widgets.so.6:_ZNK23QGraphicsSimpleTextItem4fontEv
libQt6Widgets.so.6:_ZNK5QMenu10menuActionEv
libQt6Widgets.so.6:_ZNK5QMenu7isEmptyEv
libQt6Widgets.so.6:_ZNK6QFrame10metaObjectEv
libQt6Widgets.so.6:_ZNK6QFrame15initStyleOptionEP17QStyleOptionFrame
libQt6Widgets.so.6:_ZNK6QFrame8sizeHintEv
libQt6Widgets.so.6:_ZNK6QLabel14heightForWidthEi
libQt6Widgets.so.6:_ZNK6QLabel15minimumSizeHintEv
libQt6Widgets.so.6:_ZNK6QLabel4textEv
libQt6Widgets.so.6:_ZNK6QLabel8sizeHintEv
libQt6Widgets.so.6:_ZNK7QDialog15minimumSizeHintEv
libQt6Widgets.so.6:_ZNK7QDialog8sizeHintEv
libQt6Widgets.so.6:_ZNK7QLayout15contentsMarginsEv
libQt6Widgets.so.6:_ZNK7QTabBar12currentIndexEv
libQt6Widgets.so.6:_ZNK7QTabBar5countEv
libQt6Widgets.so.6:_ZNK7QWidget10redirectedEP6QPoint
libQt6Widgets.so.6:_ZNK7QWidget11initPainterEP8QPainter
libQt6Widgets.so.6:_ZNK7QWidget11mapToGlobalERK6QPoint
libQt6Widgets.so.6:_ZNK7QWidget11mapToParentERK6QPoint
libQt6Widgets.so.6:_ZNK7QWidget11maximumSizeEv
libQt6Widgets.so.6:_ZNK7QWidget11minimumSizeEv
libQt6Widgets.so.6:_ZNK7QWidget11paintEngineEv
libQt6Widgets.so.6:_ZNK7QWidget11windowStateEv
libQt6Widgets.so.6:_ZNK7QWidget11windowTitleEv
libQt6Widgets.so.6:_ZNK7QWidget12saveGeometryEv
libQt6Widgets.so.6:_ZNK7QWidget13mapFromGlobalERK6QPoint
libQt6Widgets.so.6:_ZNK7QWidget13mapFromGlobalERK7QPointF
libQt6Widgets.so.6:_ZNK7QWidget13sharedPainterEv
libQt6Widgets.so.6:_ZNK7QWidget14backgroundRoleEv
libQt6Widgets.so.6:_ZNK7QWidget14foregroundRoleEv
libQt6Widgets.so.6:_ZNK7QWidget14heightForWidthEi
libQt6Widgets.so.6:_ZNK7QWidget14isActiveWindowEv
libQt6Widgets.so.6:_ZNK7QWidget15minimumSizeHintEv
libQt6Widgets.so.6:_ZNK7QWidget16inputMethodQueryEN2Qt16InputMethodQueryE
libQt6Widgets.so.6:_ZNK7QWidget17hasHeightForWidthEv
libQt6Widgets.so.6:_ZNK7QWidget3posEv
libQt6Widgets.so.6:_ZNK7QWidget5styleEv
libQt6Widgets.so.6:_ZNK7QWidget6metricEN12QPaintDevice17PaintDeviceMetricE
libQt6Widgets.so.6:_ZNK7QWidget6screenEv
libQt6Widgets.so.6:_ZNK7QWidget6windowEv
libQt6Widgets.so.6:_ZNK7QWidget7actionsEv
libQt6Widgets.so.6:_ZNK7QWidget7devTypeEv
libQt6Widgets.so.6:_ZNK7QWidget7paletteEv
libQt6Widgets.so.6:_ZNK7QWidget8hasFocusEv
libQt6Widgets.so.6:_ZNK7QWidget8sizeHintEv
libQt6Widgets.so.6:_ZNK8QSpinBox5valueEv
libQt6Widgets.so.6:_ZNK9QComboBox11currentTextEv
libQt6Widgets.so.6:_ZNK9QComboBox12currentIndexEv
libQt6Widgets.so.6:_ZNK9QComboBox5countEv
libQt6Widgets.so.6:_ZNK9QComboBox5modelEv
libQt6Widgets.so.6:_ZNK9QComboBox8findDataERK8QVarianti6QFlagsIN2Qt9MatchFlagEE
libQt6Widgets.so.6:_ZNK9QComboBox8itemDataEii
libQt6Widgets.so.6:_ZNK9QGroupBox9isCheckedEv
libQt6Widgets.so.6:_ZNK9QLineEdit14cursorPositionEv
libQt6Widgets.so.6:_ZNK9QLineEdit4textEv
libQt6Widgets.so.6:_ZNK9QSplitter9saveStateEv
libQt6Widgets.so.6:_ZNK9QTextEdit10cursorRectEv
libQt6Widgets.so.6:_ZNK9QTextEdit10isReadOnlyEv
libQt6Widgets.so.6:_ZNK9QTextEdit10metaObjectEv
libQt6Widgets.so.6:_ZNK9QTextEdit10textCursorEv
libQt6Widgets.so.6:_ZNK9QTextEdit13overwriteModeEv
libQt6Widgets.so.6:_ZNK9QTextEdit16inputMethodQueryEN2Qt16InputMethodQueryE
libQt6Widgets.so.6:_ZNK9QTextEdit17currentCharFormatEv
libQt6Widgets.so.6:_ZNK9QTextEdit17cursorForPositionERK6QPoint
libQt6Widgets.so.6:_ZNK9QTextEdit8documentEv
libQt6Widgets.so.6:_ZNK9QTextEdit9alignmentEv
libQt6Widgets.so.6:_ZNK9QTreeView6headerEv
libQt6Widgets.so.6:_ZTI11QMainWindow
libQt6Widgets.so.6:_ZTI11QPushButton
libQt6Widgets.so.6:_ZTI15QListWidgetItem
libQt6Widgets.so.6:_ZTI19QStyledItemDelegate
libQt6Widgets.so.6:_ZTI6QFrame
libQt6Widgets.so.6:_ZTI6QLabel
libQt6Widgets.so.6:_ZTI7QDialog
libQt6Widgets.so.6:_ZTI7QWidget
libQt6Widgets.so.6:_ZTI9QTextEdit
libQt6Widgets.so.6:_ZThn16_NK7QWidget10redirectedEP6QPoint
libQt6Widgets.so.6:_ZThn16_NK7QWidget11initPainterEP8QPainter
libQt6Widgets.so.6:_ZThn16_NK7QWidget11paintEngineEv
libQt6Widgets.so.6:_ZThn16_NK7QWidget13sharedPainterEv
libQt6Widgets.so.6:_ZThn16_NK7QWidget6metricEN12QPaintDevice17PaintDeviceMetricE
libQt6Widgets.so.6:_ZThn16_NK7QWidget7devTypeEv
libc.so.6:__cxa_atexit
libc.so.6:__errno_location
libc.so.6:__libc_start_main
libc.so.6:__stack_chk_fail
libc.so.6:fsync
libc.so.6:getpwuid
libc.so.6:getuid
libc.so.6:iconv
libc.so.6:iconv_close
libc.so.6:iconv_open
libc.so.6:memchr
libc.so.6:memcmp
libc.so.6:memcpy
libc.so.6:memmove
libc.so.6:memset
libc.so.6:strcmp
libc.so.6:strlen
libgcc_s.so.1:_Unwind_Resume
libhunspell-1.7.so.0:_ZN8Hunspell16get_dic_encodingEv
libhunspell-1.7.so.0:_ZN8Hunspell3addERKNSt7__cxx1112basic_stringIcSt11char_traitsIcESaIcEEE
libhunspell-1.7.so.0:_ZN8Hunspell5spellERKNSt7__cxx1112basic_stringIcSt11char_traitsIcESaIcEEEPiPS5_
libhunspell-1.7.so.0:_ZN8Hunspell6removeERKNSt7__cxx1112basic_stringIcSt11char_traitsIcESaIcEEE
libhunspell-1.7.so.0:_ZN8Hunspell7suggestERKNSt7__cxx1112basic_stringIcSt11char_traitsIcESaIcEEE
libhunspell-1.7.so.0:_ZN8HunspellC1EPKcS1_S1_
libhunspell-1.7.so.0:_ZN8HunspellD1Ev
libm.so.6:lround
libstdc++.so.6:_ZNSt15__exception_ptr13exception_ptr10_M_releaseEv
libstdc++.so.6:_ZNSt7__cxx1112basic_stringIcSt11char_traitsIcESaIcEE10_M_disposeEv
libstdc++.so.6:_ZNSt7__cxx1112basic_stringIcSt11char_traitsIcESaIcEE9_M_createERmm
libstdc++.so.6:_ZSt17current_exceptionv
libstdc++.so.6:_ZSt18_Rb_tree_incrementPSt18_Rb_tree_node_base
libstdc++.so.6:_ZSt20__throw_length_errorPKc
libstdc++.so.6:_ZTVN10__cxxabiv117__class_type_infoE
libstdc++.so.6:_ZTVN10__cxxabiv120__si_class_type_infoE
libstdc++.so.6:_ZdaPv
libstdc++.so.6:_ZdaPvm
libstdc++.so.6:_ZdlPv
libstdc++.so.6:_ZdlPvm
libstdc++.so.6:_Znam
libstdc++.so.6:_Znwm
libstdc++.so.6:__cxa_allocate_exception
libstdc++.so.6:__cxa_begin_catch
libstdc++.so.6:__cxa_call_terminate
libstdc++.so.6:__cxa_end_catch
libstdc++.so.6:__cxa_free_exception
libstdc++.so.6:__cxa_guard_abort
libstdc++.so.6:__cxa_guard_acquire
libstdc++.so.6:__cxa_guard_release
libstdc++.so.6:__cxa_throw
libstdc++.so.6:__dynamic_cast
libstdc++.so.6:__gxx_personality_v0
libz.so.1:crc32
libz.so.1:deflate
libz.so.1:deflateEnd
libz.so.1:deflateInit2_
libz.so.1:gzclose
libz.so.1:gzdopen
libz.so.1:gzread
libz.so.1:gzwrite
libz.so.1:inflate
libz.so.1:inflateEnd
libz.so.1:inflateInit2_
