UNKNOWN:Mix_AllocateChannels
UNKNOWN:Mix_CloseAudio
UNKNOWN:Mix_FreeChunk
UNKNOWN:Mix_FreeMusic
UNKNOWN:Mix_HaltChannel
UNKNOWN:Mix_HaltMusic
UNKNOWN:Mix_LoadMUS
UNKNOWN:Mix_LoadWAV_RW
UNKNOWN:Mix_OpenAudio
UNKNOWN:Mix_PauseMusic
UNKNOWN:Mix_PlayChannelTimed
UNKNOWN:Mix_PlayMusic
UNKNOWN:Mix_ResumeMusic
UNKNOWN:Mix_Volume
UNKNOWN:Mix_VolumeChunk
UNKNOWN:Mix_VolumeMusic
libSDL-1.2.so.0:SDL_CreateRGBSurface
libSDL-1.2.so.0:SDL_Delay
libSDL-1.2.so.0:SDL_DisplayFormatAlpha
libSDL-1.2.so.0:SDL_FillRect
libSDL-1.2.so.0:SDL_Flip
libSDL-1.2.so.0:SDL_FreeRW
libSDL-1.2.so.0:SDL_FreeSurface
libSDL-1.2.so.0:SDL_GetError
libSDL-1.2.so.0:SDL_GetKeyState
libSDL-1.2.so.0:SDL_Init
libSDL-1.2.so.0:SDL_JoystickClose
libSDL-1.2.so.0:SDL_JoystickEventState
libSDL-1.2.so.0:SDL_JoystickOpen
libSDL-1.2.so.0:SDL_ListModes
libSDL-1.2.so.0:SDL_LoadBMP_RW
libSDL-1.2.so.0:SDL_MapRGB
libSDL-1.2.so.0:SDL_MapRGBA
libSDL-1.2.so.0:SDL_NumJoysticks
libSDL-1.2.so.0:SDL_PollEvent
libSDL-1.2.so.0:SDL_PushEvent
libSDL-1.2.so.0:SDL_Quit
libSDL-1.2.so.0:SDL_RWFromFile
libSDL-1.2.so.0:SDL_RWFromMem
libSDL-1.2.so.0:SDL_SetAlpha
libSDL-1.2.so.0:SDL_SetColorKey
libSDL-1.2.so.0:SDL_SetVideoMode
libSDL-1.2.so.0:SDL_ShowCursor
libSDL-1.2.so.0:SDL_UpperBlit
libSDL-1.2.so.0:SDL_WM_SetCaption
libSDL-1.2.so.0:SDL_WM_SetIcon
libc.so.6:__ctype_b_loc
libc.so.6:__ctype_tolower_loc
libc.so.6:__cxa_atexit
libc.so.6:__fprintf_chk
libc.so.6:__isoc99_sscanf
libc.so.6:__libc_start_main
libc.so.6:__snprintf_chk
libc.so.6:__sprintf_chk
libc.so.6:__stack_chk_fail
libc.so.6:__strcpy_chk
libc.so.6:__vsprintf_chk
libc.so.6:__xstat
libc.so.6:alphasort
libc.so.6:fclose
libc.so.6:ferror
libc.so.6:fopen
libc.so.6:fputc
libc.so.6:fputs
libc.so.6:fread
libc.so.6:free
libc.so.6:fseek
libc.so.6:ftell
libc.so.6:fwrite
libc.so.6:getenv
libc.so.6:gettimeofday
libc.so.6:localtime
libc.so.6:malloc
libc.so.6:memcmp
libc.so.6:memcpy
libc.so.6:memmove
libc.so.6:memset
libc.so.6:mkdir
libc.so.6:puts
libc.so.6:rand
libc.so.6:readlink
libc.so.6:scandir
libc.so.6:srand
libc.so.6:stderr
libc.so.6:stdout
libc.so.6:strcasecmp
libc.so.6:strchr
libc.so.6:strcmp
libc.so.6:strcpy
libc.so.6:strerror
libc.so.6:strlen
libc.so.6:strncmp
libc.so.6:strncpy
libc.so.6:strrchr
libc.so.6:strtod
libc.so.6:strtol
libc.so.6:time
libc.so.6:usleep
libgcc_s.so.1:_Unwind_Resume
libpthread.so.0:__errno_location
libstdc++.so.6:_ZNKSt12__basic_fileIcE7is_openEv
libstdc++.so.6:_ZNKSt5ctypeIcE13_M_widen_initEv
libstdc++.so.6:_ZNKSt7__cxx1112basic_stringIcSt11char_traitsIcESaIcEE4findEPKcmm
libstdc++.so.6:_ZNKSt7__cxx1112basic_stringIcSt11char_traitsIcESaIcEE4findEcm
libstdc++.so.6:_ZNSi3getEv
libstdc++.so.6:_ZNSi4peekEv
libstdc++.so.6:_ZNSo5flushEv
libstdc++.so.6:_ZNSo5writeEPKcl
libstdc++.so.6:_ZNSo9_M_insertImEERSoT_
libstdc++.so.6:_ZNSolsEi
libstdc++.so.6:_ZNSt12__basic_fileIcED1Ev
libstdc++.so.6:_ZNSt13basic_filebufIcSt11char_traitsIcEE4openEPKcSt13_Ios_Openmode
libstdc++.so.6:_ZNSt13basic_filebufIcSt11char_traitsIcEE5closeEv
libstdc++.so.6:_ZNSt13basic_filebufIcSt11char_traitsIcEEC1Ev
libstdc++.so.6:_ZNSt13basic_filebufIcSt11char_traitsIcEED1Ev
libstdc++.so.6:_ZNSt14basic_ifstreamIcSt11char_traitsIcEED1Ev
libstdc++.so.6:_ZNSt6localeC1Ev
libstdc++.so.6:_ZNSt6localeD1Ev
libstdc++.so.6:_ZNSt7__cxx1112basic_stringIcSt11char_traitsIcESaIcEE10_M_replaceEmmPKcm
libstdc++.so.6:_ZNSt7__cxx1112basic_stringIcSt11char_traitsIcESaIcEE7reserveEm
libstdc++.so.6:_ZNSt7__cxx1112basic_stringIcSt11char_traitsIcESaIcEE9_M_appendEPKcm
libstdc++.so.6:_ZNSt7__cxx1112basic_stringIcSt11char_traitsIcESaIcEE9_M_assignERKS4_
libstdc++.so.6:_ZNSt7__cxx1112basic_stringIcSt11char_traitsIcESaIcEE9_M_createERmm
libstdc++.so.6:_ZNSt7__cxx1112basic_stringIcSt11char_traitsIcESaIcEE9_M_mutateEmmPKcm
libstdc++.so.6:_ZNSt7__cxx1112basic_stringIcSt11char_traitsIcESaIcEE9push_backEc
libstdc++.so.6:_ZNSt7__cxx1119basic_ostringstreamIcSt11char_traitsIcESaIcEED1Ev
libstdc++.so.6:_ZNSt8__detail15_List_node_base7_M_hookEPS0_
libstdc++.so.6:_ZNSt8__detail15_List_node_base9_M_unhookEv
libstdc++.so.6:_ZNSt8ios_base4InitC1Ev
libstdc++.so.6:_ZNSt8ios_base4InitD1Ev
libstdc++.so.6:_ZNSt8ios_baseC2Ev
libstdc++.so.6:_ZNSt8ios_baseD2Ev
libstdc++.so.6:_ZNSt9basic_iosIcSt11char_traitsIcEE4initEPSt15basic_streambufIcS1_E
libstdc++.so.6:_ZNSt9basic_iosIcSt11char_traitsIcEE5clearESt12_Ios_Iostate
libstdc++.so.6:_ZSt16__ostream_insertIcSt11char_traitsIcEERSt13basic_ostreamIT_T0_ES6_PKS3_l
libstdc++.so.6:_ZSt16__throw_bad_castv
libstdc++.so.6:_ZSt17__throw_bad_allocv
libstdc++.so.6:_ZSt18_Rb_tree_decrementPSt18_Rb_tree_node_base
libstdc++.so.6:_ZSt18_Rb_tree_incrementPSt18_Rb_tree_node_base
libstdc++.so.6:_ZSt19__throw_logic_errorPKc
libstdc++.so.6:_ZSt20__throw_length_errorPKc
libstdc++.so.6:_ZSt24__throw_out_of_range_fmtPKcz
libstdc++.so.6:_ZSt29_Rb_tree_insert_and_rebalancebPSt18_Rb_tree_node_baseS0_RS_
libstdc++.so.6:_ZSt7getlineIcSt11char_traitsIcESaIcEERSt13basic_istreamIT_T0_ES7_RNSt7__cxx1112basic_stringIS4_S5_T1_EES4_
libstdc++.so.6:_ZTTNSt7__cxx1119basic_ostringstreamIcSt11char_traitsIcESaIcEEE
libstdc++.so.6:_ZTTSt14basic_ifstreamIcSt11char_traitsIcEE
libstdc++.so.6:_ZTTSt14basic_ofstreamIcSt11char_traitsIcEE
libstdc++.so.6:_ZTVN10__cxxabiv117__class_type_infoE
libstdc++.so.6:_ZTVN10__cxxabiv120__si_class_type_infoE
libstdc++.so.6:_ZTVNSt7__cxx1115basic_stringbufIcSt11char_traitsIcESaIcEEE
libstdc++.so.6:_ZTVNSt7__cxx1119basic_ostringstreamIcSt11char_traitsIcESaIcEEE
libstdc++.so.6:_ZTVSt13basic_filebufIcSt11char_traitsIcEE
libstdc++.so.6:_ZTVSt14basic_ifstreamIcSt11char_traitsIcEE
libstdc++.so.6:_ZTVSt14basic_ofstreamIcSt11char_traitsIcEE
libstdc++.so.6:_ZTVSt15basic_streambufIcSt11char_traitsIcEE
libstdc++.so.6:_ZTVSt9basic_iosIcSt11char_traitsIcEE
libstdc++.so.6:_ZdaPv
libstdc++.so.6:_ZdlPv
libstdc++.so.6:_Znam
libstdc++.so.6:_Znwm
libstdc++.so.6:__cxa_begin_catch
libstdc++.so.6:__cxa_end_catch
libstdc++.so.6:__cxa_guard_abort
libstdc++.so.6:__cxa_guard_acquire
libstdc++.so.6:__cxa_guard_release
libstdc++.so.6:__cxa_pure_virtual
libstdc++.so.6:__cxa_rethrow
libstdc++.so.6:__gxx_personality_v0
