bombermaaan:CommandChunk
bombermaaan:Snapshot
bombermaaan:TimeElapsedSinceLastCommandChunk
bombermaaan:_IO_stdin_used
bombermaaan:_Z10TiXmlFOpenPKcS0_
bombermaaan:_Z10_findclosel
bombermaaan:_Z10_findfirstPKcP11_finddata_t
bombermaaan:_Z12FindResourcePviPKc
bombermaaan:_Z12LoadResourcePvP7HRSRC__
bombermaaan:_Z12LockResourceP9HGLOBAL__
bombermaaan:_Z14SizeofResourcePvP7HRSRC__
bombermaaan:_Z23QueryPerformanceCounterP14_LARGE_INTEGER
bombermaaan:_Z25NtQueryPerformanceCounterP14_LARGE_INTEGERS0_
bombermaaan:_Z25QueryPerformanceFrequencyP14_LARGE_INTEGER
bombermaaan:_Z9GetObjectiiPPv
bombermaaan:_Z9_findnextlP11_finddata_t
bombermaaan:_ZN10CAiManager6CreateEP8COptions
bombermaaan:_ZN10CAiManager6UpdateEf
bombermaaan:_ZN10CAiManager7DestroyEv
bombermaaan:_ZN10CAiManagerC1Ev
bombermaaan:_ZN10CAiManagerC2Ev
bombermaaan:_ZN10CAiManagerD0Ev
bombermaaan:_ZN10CAiManagerD1Ev
bombermaaan:_ZN10CAiManagerD2Ev
bombermaaan:_ZN10CExplosion14OnReadSnapshotER14CArenaSnapshot
bombermaaan:_ZN10CExplosion15OnWriteSnapshotER14CArenaSnapshot
bombermaaan:_ZN10CExplosion4BurnEii14EBurnDirection
bombermaaan:_ZN10CExplosion6CreateEiii
bombermaaan:_ZN10CExplosion6UpdateEf
bombermaaan:_ZN10CExplosion7DestroyEv
bombermaaan:_ZN10CExplosion7DisplayEv
bombermaaan:_ZN10CExplosion8PutFlameEiii
bombermaaan:_ZN10CExplosionC1Ev
bombermaaan:_ZN10CExplosionC2Ev
bombermaaan:_ZN10CExplosionD0Ev
bombermaaan:_ZN10CExplosionD1Ev
bombermaaan:_ZN10CExplosionD2Ev
bombermaaan:_ZN10CMainInput4OpenEv
bombermaaan:_ZN10CMainInput5CloseEv
bombermaaan:_ZN10CMainInput6CreateEv
bombermaaan:_ZN10CMainInput6UpdateEv
bombermaaan:_ZN10CMainInput7DestroyEv
bombermaaan:_ZN10CMainInput8IsOpenedEv
bombermaaan:_ZN10CMainInputC1Ev
bombermaaan:_ZN10CMainInputC2Ev
bombermaaan:_ZN10CMainInputD1Ev
bombermaaan:_ZN10CMainInputD2Ev
bombermaaan:_ZN10CMenuInput10OnPreviousEv
bombermaaan:_ZN10CMenuInput4OnUpEv
bombermaaan:_ZN10CMenuInput6OnDownEv
bombermaaan:_ZN10CMenuInput6OnLeftEv
bombermaaan:_ZN10CMenuInput6OnNextEv
bombermaaan:_ZN10CMenuInput7OnRightEv
bombermaaan:_ZN10CMenuInput8OnCreateEv
bombermaaan:_ZN10CMenuInput8OnUpdateEv
bombermaaan:_ZN10CMenuInput9OnDestroyEv
bombermaaan:_ZN10CMenuInput9OnDisplayEv
bombermaaan:_ZN10CMenuInputC1Ev
bombermaaan:_ZN10CMenuInputC2Ev
bombermaaan:_ZN10CMenuInputD0Ev
bombermaaan:_ZN10CMenuInputD1Ev
bombermaaan:_ZN10CMenuInputD2Ev
bombermaaan:_ZN10CMenuLevel10OnPreviousEv
bombermaaan:_ZN10CMenuLevel4OnUpEv
bombermaaan:_ZN10CMenuLevel6OnDownEv
bombermaaan:_ZN10CMenuLevel6OnLeftEv
bombermaaan:_ZN10CMenuLevel6OnNextEv
bombermaaan:_ZN10CMenuLevel7OnRightEv
bombermaaan:_ZN10CMenuLevel8OnCreateEv
bombermaaan:_ZN10CMenuLevel8OnUpdateEv
bombermaaan:_ZN10CMenuLevel9OnDestroyEv
bombermaaan:_ZN10CMenuLevel9OnDisplayEv
bombermaaan:_ZN10CMenuLevelC1Ev
bombermaaan:_ZN10CMenuLevelC2Ev
bombermaaan:_ZN10CMenuLevelD0Ev
bombermaaan:_ZN10CMenuLevelD1Ev
bombermaaan:_ZN10CMenuLevelD2Ev
bombermaaan:_ZN10CMenuMatch10OnPreviousEv
bombermaaan:_ZN10CMenuMatch4OnUpEv
bombermaaan:_ZN10CMenuMatch6OnDownEv
bombermaaan:_ZN10CMenuMatch6OnLeftEv
bombermaaan:_ZN10CMenuMatch6OnNextEv
bombermaaan:_ZN10CMenuMatch7OnRightEv
bombermaaan:_ZN10CMenuMatch8OnCreateEv
bombermaaan:_ZN10CMenuMatch8OnUpdateEv
bombermaaan:_ZN10CMenuMatch9OnDestroyEv
bombermaaan:_ZN10CMenuMatch9OnDisplayEv
bombermaaan:_ZN10CMenuMatchC1Ev
bombermaaan:_ZN10CMenuMatchC2Ev
bombermaaan:_ZN10CMenuMatchD0Ev
bombermaaan:_ZN10CMenuMatchD1Ev
bombermaaan:_ZN10CMenuMatchD2Ev
bombermaaan:_ZN10CMenuYesNo6CreateEv
bombermaaan:_ZN10CMenuYesNo6UpdateE9EGameMode
bombermaaan:_ZN10CMenuYesNo7DestroyEv
bombermaaan:_ZN10CMenuYesNo7DisplayEv
bombermaaan:_ZN10CMenuYesNoC1Ev
bombermaaan:_ZN10CMenuYesNoC2Ev
bombermaaan:_ZN10CMenuYesNoD1Ev
bombermaaan:_ZN10CMenuYesNoD2Ev
bombermaaan:_ZN11CBomberMove12ReadSnapshotER14CArenaSnapshot
bombermaaan:_ZN11CBomberMove13WriteSnapshotER14CArenaSnapshot
bombermaaan:_ZN11CBomberMove6CreateEiii
bombermaaan:_ZN11CBomberMove6UpdateEf
bombermaaan:_ZN11CBomberMove7CanMoveE11EBomberMove
bombermaaan:_ZN11CBomberMove7CommandE11EBomberMove
bombermaaan:_ZN11CBomberMove7DestroyEv
bombermaaan:_ZN11CBomberMove7TryMoveEf
bombermaaan:_ZN11CBomberMove8TurnTestE11EBomberMove
bombermaaan:_ZN11CBomberMoveC1Ev
bombermaaan:_ZN11CBomberMoveC2Ev
bombermaaan:_ZN11CBomberMoveD1Ev
bombermaaan:_ZN11CBomberMoveD2Ev
bombermaaan:_ZN11CMenuBomber10OnPreviousEv
bombermaaan:_ZN11CMenuBomber4OnUpEv
bombermaaan:_ZN11CMenuBomber6OnDownEv
bombermaaan:_ZN11CMenuBomber6OnLeftEv
bombermaaan:_ZN11CMenuBomber6OnNextEv
bombermaaan:_ZN11CMenuBomber7OnRightEv
bombermaaan:_ZN11CMenuBomber8OnCreateEv
bombermaaan:_ZN11CMenuBomber8OnUpdateEv
bombermaaan:_ZN11CMenuBomber9OnDestroyEv
bombermaaan:_ZN11CMenuBomber9OnDisplayEv
bombermaaan:_ZN11CMenuBomberC1Ev
bombermaaan:_ZN11CMenuBomberC2Ev
bombermaaan:_ZN11CMenuBomberD0Ev
bombermaaan:_ZN11CMenuBomberD1Ev
bombermaaan:_ZN11CMenuBomberD2Ev
bombermaaan:_ZN11CModeScreen6CreateEv
bombermaaan:_ZN11CModeScreen7DestroyEv
bombermaaan:_ZN11CModeScreenC1Ev
bombermaaan:_ZN11CModeScreenC2Ev
bombermaaan:_ZN11CModeScreenD0Ev
bombermaaan:_ZN11CModeScreenD1Ev
bombermaaan:_ZN11CModeScreenD2Ev
bombermaaan:_ZN12CArenaCloser12ReadSnapshotER14CArenaSnapshot
bombermaaan:_ZN12CArenaCloser13WriteSnapshotER14CArenaSnapshot
bombermaaan:_ZN12CArenaCloser19CreateSpiralClosingEv
bombermaaan:_ZN12CArenaCloser21CreateVerticalClosingEv
bombermaaan:_ZN12CArenaCloser23CreateHorizontalClosingEv
bombermaaan:_ZN12CArenaCloser4StopEv
bombermaaan:_ZN12CArenaCloser5StartEv
bombermaaan:_ZN12CArenaCloser6CreateEv
bombermaaan:_ZN12CArenaCloser6UpdateEf
bombermaaan:_ZN12CArenaCloser7DestroyEv
bombermaaan:_ZN12CArenaCloserC1Ev
bombermaaan:_ZN12CArenaCloserC2Ev
bombermaaan:_ZN12CArenaCloserD1Ev
bombermaaan:_ZN12CArenaCloserD2Ev
bombermaaan:_ZN12CPlayerInput10CreateNameEv
bombermaaan:_ZN12CPlayerInput11TestControlEi
bombermaaan:_ZN12CPlayerInput14GetControlNameEi
bombermaaan:_ZN12CPlayerInput15TestMenuControlEi
bombermaaan:_ZN12CPlayerInput19GetActivatedControlEv
bombermaaan:_ZN12CPlayerInput4OpenEv
bombermaaan:_ZN12CPlayerInput5CloseEv
bombermaaan:_ZN12CPlayerInput6CreateEi
bombermaaan:_ZN12CPlayerInput6UpdateEv
bombermaaan:_ZN12CPlayerInput7DestroyEv
bombermaaan:_ZN12CPlayerInput8IsOpenedEv
bombermaaan:_ZN12CPlayerInputC1Ev
bombermaaan:_ZN12CPlayerInputC2Ev
bombermaaan:_ZN12CPlayerInputD1Ev
bombermaaan:_ZN12CPlayerInputD2Ev
bombermaaan:_ZN12CSnowManager6CreateEv
bombermaaan:_ZN12CSnowManager6UpdateEf
bombermaaan:_ZN12CSnowManager7DestroyEv
bombermaaan:_ZN12CSnowManager7DisplayEv
bombermaaan:_ZN12CSnowManagerC1Ev
bombermaaan:_ZN12CSnowManagerC2Ev
bombermaaan:_ZN12CSnowManagerD1Ev
bombermaaan:_ZN12CSnowManagerD2Ev
bombermaaan:_ZN12TiXmlComment5ParseEPKcP16TiXmlParsingData13TiXmlEncoding
bombermaaan:_ZN12TiXmlComment8StreamInEPSiPNSt7__cxx1112basic_stringIcSt11char_traitsIcESaIcEEE
bombermaaan:_ZN12TiXmlCommentC1ERKS_
bombermaaan:_ZN12TiXmlCommentC2ERKS_
bombermaaan:_ZN12TiXmlCommentaSERKS_
bombermaaan:_ZN12TiXmlElement12SetAttributeEPKcS1_
bombermaaan:_ZN12TiXmlElement12SetAttributeEPKci
bombermaaan:_ZN12TiXmlElement12SetAttributeERKNSt7__cxx1112basic_stringIcSt11char_traitsIcESaIcEEES7_
bombermaaan:_ZN12TiXmlElement12SetAttributeERKNSt7__cxx1112basic_stringIcSt11char_traitsIcESaIcEEEi
bombermaaan:_ZN12TiXmlElement15RemoveAttributeEPKc
bombermaaan:_ZN12TiXmlElement18SetDoubleAttributeEPKcd
bombermaaan:_ZN12TiXmlElement18SetDoubleAttributeERKNSt7__cxx1112basic_stringIcSt11char_traitsIcESaIcEEEd
bombermaaan:_ZN12TiXmlElement5ParseEPKcP16TiXmlParsingData13TiXmlEncoding
bombermaaan:_ZN12TiXmlElement8StreamInEPSiPNSt7__cxx1112basic_stringIcSt11char_traitsIcESaIcEEE
bombermaaan:_ZN12TiXmlElement9ClearThisEv
bombermaaan:_ZN12TiXmlElement9ReadValueEPKcP16TiXmlParsingData13TiXmlEncoding
bombermaaan:_ZN12TiXmlElementC1EPKc
bombermaaan:_ZN12TiXmlElementC1ERKNSt7__cxx1112basic_stringIcSt11char_traitsIcESaIcEEE
bombermaaan:_ZN12TiXmlElementC1ERKS_
bombermaaan:_ZN12TiXmlElementC2EPKc
bombermaaan:_ZN12TiXmlElementC2ERKNSt7__cxx1112basic_stringIcSt11char_traitsIcESaIcEEE
bombermaaan:_ZN12TiXmlElementC2ERKS_
bombermaaan:_ZN12TiXmlElementD0Ev
bombermaaan:_ZN12TiXmlElementD1Ev
bombermaaan:_ZN12TiXmlElementD2Ev
bombermaaan:_ZN12TiXmlElementaSERKS_
bombermaaan:_ZN12TiXmlPrinter10VisitEnterERK12TiXmlElementPK14TiXmlAttribute
bombermaaan:_ZN12TiXmlPrinter10VisitEnterERK13TiXmlDocument
bombermaaan:_ZN12TiXmlPrinter5VisitERK12TiXmlComment
bombermaaan:_ZN12TiXmlPrinter5VisitERK12TiXmlUnknown
bombermaaan:_ZN12TiXmlPrinter5VisitERK16TiXmlDeclaration
bombermaaan:_ZN12TiXmlPrinter5VisitERK9TiXmlText
bombermaaan:_ZN12TiXmlPrinter9VisitExitERK12TiXmlElement
bombermaaan:_ZN12TiXmlPrinter9VisitExitERK13TiXmlDocument
bombermaaan:_ZN12TiXmlUnknown5ParseEPKcP16TiXmlParsingData13TiXmlEncoding
bombermaaan:_ZN12TiXmlUnknown8StreamInEPSiPNSt7__cxx1112basic_stringIcSt11char_traitsIcESaIcEEE
bombermaaan:_ZN13CCloudManager6CreateEv
bombermaaan:_ZN13CCloudManager6UpdateEf
bombermaaan:_ZN13CCloudManager7DestroyEv
bombermaaan:_ZN13CCloudManager7DisplayEv
bombermaaan:_ZN13CCloudManagerC1Ev
bombermaaan:_ZN13CCloudManagerC2Ev
bombermaaan:_ZN13CCloudManagerD1Ev
bombermaaan:_ZN13CCloudManagerD2Ev
bombermaaan:_ZN13CCommandChunk5ResetEv
bombermaaan:_ZN13CCommandChunk5StoreE11EBomberMove13EBomberActionf
bombermaaan:_ZN13CCommandChunk6CreateEv
bombermaaan:_ZN13CCommandChunk7DestroyEv
bombermaaan:_ZN13CHurryMessage6UpdateEf
bombermaaan:_ZN13CHurryMessage7DisplayEv
bombermaaan:_ZN13CHurryMessageC1EP8CDisplayP6CSound
bombermaaan:_ZN13CHurryMessageC2EP8CDisplayP6CSound
bombermaaan:_ZN13CHurryMessageD1Ev
bombermaaan:_ZN13CHurryMessageD2Ev
bombermaaan:_ZN13CPauseMessage6GetOutEv
bombermaaan:_ZN13CPauseMessage6UpdateEf
bombermaaan:_ZN13CPauseMessage7DisplayEv
bombermaaan:_ZN13CPauseMessageC1EP8CDisplayP6CSound
bombermaaan:_ZN13CPauseMessageC2EP8CDisplayP6CSound
bombermaaan:_ZN13CPauseMessageD1Ev
bombermaaan:_ZN13CPauseMessageD2Ev
bombermaaan:_ZN13CRandomMosaic18CreateRandomMosaicEP8CDisplayiiff12EMosaicColorb
bombermaaan:_ZN13CRandomMosaic22m_MosaicTilePropertiesE
bombermaaan:_ZN13TiXmlDocument5ParseEPKcP16TiXmlParsingData13TiXmlEncoding
bombermaaan:_ZN13TiXmlDocument8LoadFileE13TiXmlEncoding
bombermaaan:_ZN13TiXmlDocument8LoadFileEP8_IO_FILE13TiXmlEncoding
bombermaaan:_ZN13TiXmlDocument8LoadFileEPKc13TiXmlEncoding
bombermaaan:_ZN13TiXmlDocument8SetErrorEiPKcP16TiXmlParsingData13TiXmlEncoding
bombermaaan:_ZN13TiXmlDocument8StreamInEPSiPNSt7__cxx1112basic_stringIcSt11char_traitsIcESaIcEEE
bombermaaan:_ZN13TiXmlDocumentC1EPKc
bombermaaan:_ZN13TiXmlDocumentC1ERKNSt7__cxx1112basic_stringIcSt11char_traitsIcESaIcEEE
bombermaaan:_ZN13TiXmlDocumentC1ERKS_
bombermaaan:_ZN13TiXmlDocumentC1Ev
bombermaaan:_ZN13TiXmlDocumentC2EPKc
bombermaaan:_ZN13TiXmlDocumentC2ERKNSt7__cxx1112basic_stringIcSt11char_traitsIcESaIcEEE
bombermaaan:_ZN13TiXmlDocumentC2ERKS_
bombermaaan:_ZN13TiXmlDocumentC2Ev
bombermaaan:_ZN13TiXmlDocumentaSERKS_
bombermaaan:_ZN14CArenaSnapshot10WriteFloatEf
bombermaaan:_ZN14CArenaSnapshot11ReadBooleanEPb
bombermaaan:_ZN14CArenaSnapshot11ReadIntegerEPi
bombermaaan:_ZN14CArenaSnapshot12WriteBooleanEb
bombermaaan:_ZN14CArenaSnapshot12WriteIntegerEi
bombermaaan:_ZN14CArenaSnapshot5BeginEv
bombermaaan:_ZN14CArenaSnapshot6CreateEv
bombermaaan:_ZN14CArenaSnapshot7DestroyEv
bombermaaan:_ZN14CArenaSnapshot9ReadFloatEPf
bombermaaan:_ZN14TiXmlAttribute11SetIntValueEi
bombermaaan:_ZN14TiXmlAttribute14SetDoubleValueEd
bombermaaan:_ZN14TiXmlAttribute5ParseEPKcP16TiXmlParsingData13TiXmlEncoding
bombermaaan:_ZN16TiXmlDeclaration5ParseEPKcP16TiXmlParsingData13TiXmlEncoding
bombermaaan:_ZN16TiXmlDeclaration8StreamInEPSiPNSt7__cxx1112basic_stringIcSt11char_traitsIcESaIcEEE
bombermaaan:_ZN16TiXmlDeclarationC1EPKcS1_S1_
bombermaaan:_ZN16TiXmlDeclarationC1ERKNSt7__cxx1112basic_stringIcSt11char_traitsIcESaIcEEES7_S7_
bombermaaan:_ZN16TiXmlDeclarationC1ERKS_
bombermaaan:_ZN16TiXmlDeclarationC2EPKcS1_S1_
bombermaaan:_ZN16TiXmlDeclarationC2ERKNSt7__cxx1112basic_stringIcSt11char_traitsIcESaIcEEES7_S7_
bombermaaan:_ZN16TiXmlDeclarationC2ERKS_
bombermaaan:_ZN16TiXmlDeclarationaSERKS_
bombermaaan:_ZN16TiXmlParsingData5StampEPKc13TiXmlEncoding
bombermaaan:_ZN17TiXmlAttributeSet12FindOrCreateEPKc
bombermaaan:_ZN17TiXmlAttributeSet12FindOrCreateERKNSt7__cxx1112basic_stringIcSt11char_traitsIcESaIcEEE
bombermaaan:_ZN17TiXmlAttributeSet3AddEP14TiXmlAttribute
bombermaaan:_ZN17TiXmlAttributeSet6RemoveEP14TiXmlAttribute
bombermaaan:_ZN17TiXmlAttributeSetC1Ev
bombermaaan:_ZN17TiXmlAttributeSetC2Ev
bombermaaan:_ZN17TiXmlAttributeSetD1Ev
bombermaaan:_ZN17TiXmlAttributeSetD2Ev
bombermaaan:_ZN4CLog11GetDebugLogEv
bombermaaan:_ZN4CLog12LogLastErrorEv
bombermaaan:_ZN4CLog13WriteDebugMsgE13EDebugSectionPKcz
bombermaaan:_ZN4CLog4OpenEPKc
bombermaaan:_ZN4CLog5CloseEv
bombermaaan:_ZN4CLog5WriteEPKcz
bombermaaan:_ZN4CLog6GetLogEv
bombermaaan:_ZN4CLog9WriteLineEPKcz
bombermaaan:_ZN4CLogC1Ev
bombermaaan:_ZN4CLogC2Ev
bombermaaan:_ZN4CLogD0Ev
bombermaaan:_ZN4CLogD1Ev
bombermaaan:_ZN4CLogD2Ev
bombermaaan:_ZN5CBomb10IsObstacleEii
bombermaaan:_ZN5CBomb10ManageMoveEf
bombermaaan:_ZN5CBomb10StopMovingEv
bombermaaan:_ZN5CBomb11StartFlyingE8EBombFly15EBombFlightType
bombermaaan:_ZN5CBomb11StartMovingE9EBombKicki
bombermaaan:_ZN5CBomb12ManageFlightEf
bombermaaan:_ZN5CBomb12m_PunchMoveXE
bombermaaan:_ZN5CBomb12m_PunchMoveYE
bombermaaan:_ZN5CBomb12m_ThrowMoveXE
bombermaaan:_ZN5CBomb12m_ThrowMoveYE
bombermaaan:_ZN5CBomb13CenterOnBlockEv
bombermaaan:_ZN5CBomb13m_BounceMoveXE
bombermaaan:_ZN5CBomb13m_BounceMoveYE
bombermaaan:_ZN5CBomb14OnReadSnapshotER14CArenaSnapshot
bombermaaan:_ZN5CBomb15OnWriteSnapshotER14CArenaSnapshot
bombermaaan:_ZN5CBomb17_Debug_WriteToLogEv
bombermaaan:_ZN5CBomb4BurnEv
bombermaaan:_ZN5CBomb5CrushEv
bombermaaan:_ZN5CBomb6BounceEf
bombermaaan:_ZN5CBomb6CreateEiiifi
bombermaaan:_ZN5CBomb6UpdateEf
bombermaaan:_ZN5CBomb7DestroyEv
bombermaaan:_ZN5CBomb7DisplayEv
bombermaaan:_ZN5CBomb7ExplodeEv
bombermaaan:_ZN5CBomb7TryMoveEf
bombermaaan:_ZN5CBomb9CrushItemEii
bombermaaan:_ZN5CBombC1Ev
bombermaaan:_ZN5CBombC2Ev
bombermaaan:_ZN5CBombD0Ev
bombermaaan:_ZN5CBombD1Ev
bombermaaan:_ZN5CBombD2Ev
bombermaaan:_ZN5CDemo10CloseInputEv
bombermaaan:_ZN5CDemo10CreateFontEv
bombermaaan:_ZN5CDemo10ManageExitEv
bombermaaan:_ZN5CDemo11UpdateMatchEv
bombermaaan:_ZN5CDemo12SetupOptionsEv
bombermaaan:_ZN5CDemo14UpdateDemoTextEv
bombermaaan:_ZN5CDemo15DisplayDemoTextEv
bombermaaan:_ZN5CDemo15ManageMatchOverEv
bombermaaan:_ZN5CDemo18DisplayMatchScreenEv
bombermaaan:_ZN5CDemo20CreateMainComponentsEv
bombermaaan:_ZN5CDemo20ManageHurryUpMessageEv
bombermaaan:_ZN5CDemo21DestroyHurryUpMessageEv
bombermaaan:_ZN5CDemo21DestroyMainComponentsEv
bombermaaan:_ZN5CDemo21DisplayHurryUpMessageEv
bombermaaan:_ZN5CDemo21ProcessPlayerCommandsEv
bombermaaan:_ZN5CDemo6CreateEv
bombermaaan:_ZN5CDemo6UpdateEv
bombermaaan:_ZN5CDemo7DestroyEv
bombermaaan:_ZN5CDemo7DisplayEv
bombermaaan:_ZN5CDemo8PlaySongEv
bombermaaan:_ZN5CDemo8StopSongEv
bombermaaan:_ZN5CDemo9OpenInputEv
bombermaaan:_ZN5CDemoC1Ev
bombermaaan:_ZN5CDemoC2Ev
bombermaaan:_ZN5CDemoD0Ev
bombermaaan:_ZN5CDemoD1Ev
bombermaaan:_ZN5CDemoD2Ev
bombermaaan:_ZN5CFont10DrawStringEiiPKc
bombermaaan:_ZN5CFont13DrawCenteredXEiiiPKcz
bombermaaan:_ZN5CFont13DrawCenteredYEiiiPKcz
bombermaaan:_ZN5CFont14DrawCenteredXYEiiiiPKcz
bombermaaan:_ZN5CFont14GetColorOffsetE10EFontColor
bombermaaan:_ZN5CFont18SetShadowDirectionE16EShadowDirection
bombermaaan:_ZN5CFont4DrawEiiPKcz
bombermaaan:_ZN5CFont6CreateEv
bombermaaan:_ZN5CFont7DestroyEv
bombermaaan:_ZN5CFontC1Ev
bombermaaan:_ZN5CFontC2Ev
bombermaaan:_ZN5CFontD1Ev
bombermaaan:_ZN5CFontD2Ev
bombermaaan:_ZN5CGame12OnSysCommandEll
bombermaaan:_ZN5CGame13OnActivateAppEll
bombermaaan:_ZN5CGame13StartGameModeE9EGameMode
bombermaaan:_ZN5CGame14FinishGameModeEv
bombermaaan:_ZN5CGame14OnJoystickAxisEll
bombermaaan:_ZN5CGame14OnWindowActiveEv
bombermaaan:_ZN5CGame16OnJoystickButtonEll
bombermaaan:_ZN5CGame17GetGameModeObjectE9EGameMode
bombermaaan:_ZN5CGame6CreateEPPci
bombermaaan:_ZN5CGame6OnMoveEll
bombermaaan:_ZN5CGame6OnSizeEll
bombermaaan:_ZN5CGame7DestroyEv
bombermaaan:_ZN5CGame7OnKeyUpEll
bombermaaan:_ZN5CGame7OnPaintEll
bombermaaan:_ZN5CGame9OnKeyDownEll
bombermaaan:_ZN5CGameC1EP11HINSTANCE__PPc
bombermaaan:_ZN5CGameC2EP11HINSTANCE__PPc
bombermaaan:_ZN5CGameD0Ev
bombermaaan:_ZN5CGameD1Ev
bombermaaan:_ZN5CGameD2Ev
bombermaaan:_ZN5CHelp10CloseInputEv
bombermaaan:_ZN5CHelp6CreateEv
bombermaaan:_ZN5CHelp6UpdateEv
bombermaaan:_ZN5CHelp7DestroyEv
bombermaaan:_ZN5CHelp7DisplayEv
bombermaaan:_ZN5CHelp9OpenInputEv
bombermaaan:_ZN5CHelpC1Ev
bombermaaan:_ZN5CHelpC2Ev
bombermaaan:_ZN5CHelpD0Ev
bombermaaan:_ZN5CHelpD1Ev
bombermaaan:_ZN5CHelpD2Ev
bombermaaan:_ZN5CItem10SetSpritesEv
bombermaaan:_ZN5CItem11CreateItemsEP6CArena10EItemPlaceiiiiiiiiii
bombermaaan:_ZN5CItem14OnReadSnapshotER14CArenaSnapshot
bombermaaan:_ZN5CItem15OnWriteSnapshotER14CArenaSnapshot
bombermaaan:_ZN5CItem4BurnE14EBurnDirection
bombermaaan:_ZN5CItem5CrushEv
bombermaaan:_ZN5CItem6CreateEii9EItemTypebb
bombermaaan:_ZN5CItem6UpdateEf
bombermaaan:_ZN5CItem7DestroyEv
bombermaaan:_ZN5CItem7DisplayEv
bombermaaan:_ZN5CItemC1Ev
bombermaaan:_ZN5CItemC2Ev
bombermaaan:_ZN5CItemD0Ev
bombermaaan:_ZN5CItemD1Ev
bombermaaan:_ZN5CItemD2Ev
bombermaaan:_ZN5CMenu10CloseInputEv
bombermaaan:_ZN5CMenu11SetMenuModeE9EMenuMode
bombermaaan:_ZN5CMenu13StartMenuModeE9EMenuMode
bombermaaan:_ZN5CMenu14FinishMenuModeEv
bombermaaan:_ZN5CMenu6CreateEv
bombermaaan:_ZN5CMenu6UpdateEv
bombermaaan:_ZN5CMenu7DestroyEv
bombermaaan:_ZN5CMenu7DisplayEv
bombermaaan:_ZN5CMenu9OpenInputEv
bombermaaan:_ZN5CMenuC1Ev
bombermaaan:_ZN5CMenuC2Ev
bombermaaan:_ZN5CMenuD0Ev
bombermaaan:_ZN5CMenuD1Ev
bombermaaan:_ZN5CMenuD2Ev
bombermaaan:_ZN5CTeam12IsVictoriousEv
bombermaaan:_ZN5CTeam13SetVictoriousEb
bombermaaan:_ZN5CTeam9GetTeamIdEv
bombermaaan:_ZN5CTeam9SetTeamIdEi
bombermaaan:_ZN5CTeamC1Ev
bombermaaan:_ZN5CTeamC2Ev
bombermaaan:_ZN5CTeamD0Ev
bombermaaan:_ZN5CTeamD1Ev
bombermaaan:_ZN5CTeamD2Ev
bombermaaan:_ZN5CWall14OnReadSnapshotER14CArenaSnapshot
bombermaaan:_ZN5CWall15OnWriteSnapshotER14CArenaSnapshot
bombermaaan:_ZN5CWall4BurnEv
bombermaaan:_ZN5CWall5CrushEv
bombermaaan:_ZN5CWall6CreateEii9EWallType
bombermaaan:_ZN5CWall6UpdateEf
bombermaaan:_ZN5CWall7DestroyEv
bombermaaan:_ZN5CWall7DisplayEv
bombermaaan:_ZN5CWallC1Ev
bombermaaan:_ZN5CWallC2Ev
bombermaaan:_ZN5CWallD0Ev
bombermaaan:_ZN5CWallD1Ev
bombermaaan:_ZN5CWallD2Ev
bombermaaan:_ZN6CArena10ClearBlockEii
bombermaaan:_ZN6CArena10DeleteBombEi
bombermaaan:_ZN6CArena10DeleteItemEi
bombermaaan:_ZN6CArena10DeleteWallEi
bombermaaan:_ZN6CArena10UpdateViewEv
bombermaaan:_ZN6CArena11DeleteFloorEi
bombermaaan:_ZN6CArena12DeleteBomberEi
bombermaaan:_ZN6CArena12NewExplosionEiii
bombermaaan:_ZN6CArena12ReadSnapshotER14CArenaSnapshot
bombermaaan:_ZN6CArena13WriteSnapshotER14CArenaSnapshot
bombermaaan:_ZN6CArena14GetFloorActionEii
bombermaaan:_ZN6CArena14UpdateElementsEf
bombermaaan:_ZN6CArena15DeleteExplosionEi
bombermaaan:_ZN6CArena18UpdateSingleBomberEif
bombermaaan:_ZN6CArena6CreateEv
bombermaaan:_ZN6CArena6UpdateEf
bombermaaan:_ZN6CArena7DestroyEv
bombermaaan:_ZN6CArena7DisplayEv
bombermaaan:_ZN6CArena7NewBombEiiifi
bombermaaan:_ZN6CArena7NewItemEii9EItemTypebb
bombermaaan:_ZN6CArena7NewWallEii9EWallType
bombermaaan:_ZN6CArena8NewFloorEii10EBlockType
bombermaaan:_ZN6CArena9NewBomberEiii
bombermaaan:_ZN6CArenaC1Ev
bombermaaan:_ZN6CArenaC2Ev
bombermaaan:_ZN6CArenaD1Ev
bombermaaan:_ZN6CArenaD2Ev
bombermaaan:_ZN6CArenaaSERKS_
bombermaaan:_ZN6CBoard6CreateEv
bombermaaan:_ZN6CBoard6UpdateEv
bombermaaan:_ZN6CBoard7DestroyEv
bombermaaan:_ZN6CBoard7DisplayEv
bombermaaan:_ZN6CBoardC1Ev
bombermaaan:_ZN6CBoardC2Ev
bombermaaan:_ZN6CBoardD1Ev
bombermaaan:_ZN6CBoardD2Ev
bombermaaan:_ZN6CClock10CountHoursERf
bombermaaan:_ZN6CClock12CountMinutesERf
bombermaaan:_ZN6CClock12CountSecondsERf
bombermaaan:_ZN6CClock15CountSeconds100ERf
bombermaaan:_ZN6CClock5ResetEv
bombermaaan:_ZN6CClock6CreateE10EClockType10EClockModeiiii
bombermaaan:_ZN6CClock6UpdateEf
bombermaaan:_ZN6CClock7DestroyEv
bombermaaan:_ZN6CClockC1Ev
bombermaaan:_ZN6CClockC2Ev
bombermaaan:_ZN6CClockD1Ev
bombermaaan:_ZN6CClockD2Ev
bombermaaan:_ZN6CDebug11GetInstanceEv
bombermaaan:_ZN6CDebug6CreateEv
bombermaaan:_ZN6CDebug7DestroyEv
bombermaaan:_ZN6CDebug9HandleKeyEmm
bombermaaan:_ZN6CDebugC1Ev
bombermaaan:_ZN6CDebugC2Ev
bombermaaan:_ZN6CDebugD1Ev
bombermaaan:_ZN6CDebugD2Ev
bombermaaan:_ZN6CFloor14OnReadSnapshotER14CArenaSnapshot
bombermaaan:_ZN6CFloor15OnWriteSnapshotER14CArenaSnapshot
bombermaaan:_ZN6CFloor5CrushEv
bombermaaan:_ZN6CFloor6CreateEii12EFloorAction
bombermaaan:_ZN6CFloor6UpdateEf
bombermaaan:_ZN6CFloor7DestroyEv
bombermaaan:_ZN6CFloor7DisplayEv
bombermaaan:_ZN6CFloorC1Ev
bombermaaan:_ZN6CFloorC2Ev
bombermaaan:_ZN6CFloorD0Ev
bombermaaan:_ZN6CFloorD1Ev
bombermaaan:_ZN6CFloorD2Ev
bombermaaan:_ZN6CInput6CreateEv
bombermaaan:_ZN6CInput7DestroyEv
bombermaaan:_ZN6CInputC1Ev
bombermaaan:_ZN6CInputC2Ev
bombermaaan:_ZN6CInputD1Ev
bombermaaan:_ZN6CInputD2Ev
bombermaaan:_ZN6CLevel12LoadFromFileEv
bombermaaan:_ZN6CLevel12LoadVersion1ERSt14basic_ifstreamIcSt11char_traitsIcEE
bombermaaan:_ZN6CLevel12LoadVersion2ENSt7__cxx1112basic_stringIcSt11char_traitsIcESaIcEEE
bombermaaan:_ZN6CLevel21CheckMaxNumberOfItemsEPj
bombermaaan:_ZN6CLevel8ValidateEv
bombermaaan:_ZN6CLevelC1ENSt7__cxx1112basic_stringIcSt11char_traitsIcESaIcEEES5_
bombermaaan:_ZN6CLevelC2ENSt7__cxx1112basic_stringIcSt11char_traitsIcESaIcEEES5_
bombermaaan:_ZN6CLevelD1Ev
bombermaaan:_ZN6CLevelD2Ev
bombermaaan:_ZN6CMatch10CloseInputEv
bombermaaan:_ZN6CMatch11UpdateMatchEv
bombermaaan:_ZN6CMatch15ManageMatchOverEv
bombermaaan:_ZN6CMatch18DisplayMatchScreenEv
bombermaaan:_ZN6CMatch18ManagePauseMessageEv
bombermaaan:_ZN6CMatch19DestroyPauseMessageEv
bombermaaan:_ZN6CMatch19DisplayPauseMessageEv
bombermaaan:_ZN6CMatch20CreateMainComponentsEv
bombermaaan:_ZN6CMatch20ManageHurryUpMessageEv
bombermaaan:_ZN6CMatch21DestroyHurryUpMessageEv
bombermaaan:_ZN6CMatch21DestroyMainComponentsEv
bombermaaan:_ZN6CMatch21DisplayHurryUpMessageEv
bombermaaan:_ZN6CMatch21ProcessPlayerCommandsEv
bombermaaan:_ZN6CMatch22_Debug_WriteBombsToLogEv
bombermaaan:_ZN6CMatch6CreateEv
bombermaaan:_ZN6CMatch6UpdateEv
bombermaaan:_ZN6CMatch7DestroyEv
bombermaaan:_ZN6CMatch7DisplayEv
bombermaaan:_ZN6CMatch8PlaySongEv
bombermaaan:_ZN6CMatch8StopSongEv
bombermaaan:_ZN6CMatch9OpenInputEv
bombermaaan:_ZN6CMatchC1Ev
bombermaaan:_ZN6CMatchC2Ev
bombermaaan:_ZN6CMatchD0Ev
bombermaaan:_ZN6CMatchD1Ev
bombermaaan:_ZN6CMatchD2Ev
bombermaaan:_ZN6CSound10FreeSampleE7ESample
bombermaaan:_ZN6CSound10LoadSampleE7ESampleiPKc
bombermaaan:_ZN6CSound10PlaySampleE7ESample
bombermaaan:_ZN6CSound13SetSongVolumeE5ESongi
bombermaaan:_ZN6CSound14StopAllSamplesEv
bombermaaan:_ZN6CSound15SetSampleVolumeEi
bombermaaan:_ZN6CSound16GetSoundResourceEiRPvRm
bombermaaan:_ZN6CSound16SetProgramFolderERKNSt7__cxx1112basic_stringIcSt11char_traitsIcESaIcEEE
bombermaaan:_ZN6CSound6CreateEv
bombermaaan:_ZN6CSound7DestroyEv
bombermaaan:_ZN6CSound8FreeSongE5ESong
bombermaaan:_ZN6CSound8LoadSongE5ESongiPKc
bombermaaan:_ZN6CSound8PlaySongE5ESong
bombermaaan:_ZN6CSound8SetPauseEb
bombermaaan:_ZN6CSound8StopSongE5ESong
bombermaaan:_ZN6CSoundC1Ev
bombermaaan:_ZN6CSoundC2Ev
bombermaaan:_ZN6CSoundD1Ev
bombermaaan:_ZN6CSoundD2Ev
bombermaaan:_ZN6CTitle10CloseInputEv
bombermaaan:_ZN6CTitle6CreateEv
bombermaaan:_ZN6CTitle6UpdateEv
bombermaaan:_ZN6CTitle7DestroyEv
bombermaaan:_ZN6CTitle7DisplayEv
bombermaaan:_ZN6CTitle9OpenInputEv
bombermaaan:_ZN6CTitleC1Ev
bombermaaan:_ZN6CTitleC2Ev
bombermaaan:_ZN6CTitleD0Ev
bombermaaan:_ZN6CTitleD1Ev
bombermaaan:_ZN6CTitleD2Ev
bombermaaan:_ZN7CBomber10IsObstacleEii
bombermaaan:_ZN7CBomber10ItemEffectE9EItemType
bombermaaan:_ZN7CBomber11GetBombTimeEv
bombermaaan:_ZN7CBomber11MakeBombFlyE15EBombFlightType
bombermaaan:_ZN7CBomber11ReturnItemsEf
bombermaaan:_ZN7CBomber11TryKickBombEii9EBombKick
bombermaaan:_ZN7CBomber12GetFlameSizeEv
bombermaaan:_ZN7CBomber13ContaminationEv
bombermaaan:_ZN7CBomber14OnReadSnapshotER14CArenaSnapshot
bombermaaan:_ZN7CBomber15OnWriteSnapshotER14CArenaSnapshot
bombermaaan:_ZN7CBomber18GetPixelsPerSecondEv
bombermaaan:_ZN7CBomber20m_BomberSpriteTablesE
bombermaaan:_ZN7CBomber3DieEv
bombermaaan:_ZN7CBomber4BurnEv
bombermaaan:_ZN7CBomber4HealEv
bombermaaan:_ZN7CBomber5CrushEv
bombermaaan:_ZN7CBomber5StuntEv
bombermaaan:_ZN7CBomber6ActionEv
bombermaaan:_ZN7CBomber6CreateEiiiP8COptions
bombermaaan:_ZN7CBomber6UpdateEf
bombermaaan:_ZN7CBomber7AnimateEf
bombermaaan:_ZN7CBomber7CommandE11EBomberMove13EBomberAction
bombermaaan:_ZN7CBomber7DestroyEv
bombermaaan:_ZN7CBomber7DisplayEv
bombermaaan:_ZN7CBomber9UsedBombsEv
bombermaaan:_ZN7CBomberC1Ev
bombermaaan:_ZN7CBomberC2Ev
bombermaaan:_ZN7CBomberD0Ev
bombermaaan:_ZN7CBomberD1Ev
bombermaaan:_ZN7CBomberD2Ev
bombermaaan:_ZN7CMosaic6CreateEiiiiiiiiff
bombermaaan:_ZN7CMosaic6UpdateEf
bombermaaan:_ZN7CMosaic7DestroyEv
bombermaaan:_ZN7CMosaic7DisplayEv
bombermaaan:_ZN7CMosaicC1Ev
bombermaaan:_ZN7CMosaicC2Ev
bombermaaan:_ZN7CMosaicD1Ev
bombermaaan:_ZN7CMosaicD2Ev
bombermaaan:_ZN7CScores16RaisePlayerScoreEi
bombermaaan:_ZN7CScores19RaiseDrawGamesCountEv
bombermaaan:_ZN7CScores5ResetEv
bombermaaan:_ZN7CScoresC1Ev
bombermaaan:_ZN7CScoresC2Ev
bombermaaan:_ZN7CScoresD1Ev
bombermaaan:_ZN7CScoresD2Ev
bombermaaan:_ZN7CWindow11MessagePumpEv
bombermaaan:_ZN7CWindow12OnInitDialogEll
bombermaaan:_ZN7CWindow12OnSysCommandEll
bombermaaan:_ZN7CWindow13OnActivateAppEll
bombermaaan:_ZN7CWindow13SetClientSizeEii
bombermaaan:_ZN7CWindow14OnJoystickAxisEll
bombermaaan:_ZN7CWindow14OnWindowActiveEv
bombermaaan:_ZN7CWindow16OnJoystickButtonEll
bombermaaan:_ZN7CWindow4ShowEv
bombermaaan:_ZN7CWindow6OnMoveEll
bombermaaan:_ZN7CWindow6OnSizeEll
bombermaaan:_ZN7CWindow7OnCloseEll
bombermaaan:_ZN7CWindow7OnKeyUpEll
bombermaaan:_ZN7CWindow7OnPaintEll
bombermaaan:_ZN7CWindow7OnTimerEll
bombermaaan:_ZN7CWindow7WinProcEjll
bombermaaan:_ZN7CWindow8OnCreateEP6HWND__ll
bombermaaan:_ZN7CWindow9OnCommandEll
bombermaaan:_ZN7CWindow9OnDestroyEll
bombermaaan:_ZN7CWindow9OnKeyDownEll
bombermaaan:_ZN7CWindowC1EP11HINSTANCE__PKci
bombermaaan:_ZN7CWindowC2EP11HINSTANCE__PKci
bombermaaan:_ZN7CWindowD0Ev
bombermaaan:_ZN7CWindowD1Ev
bombermaaan:_ZN7CWindowD2Ev
bombermaaan:_ZN7CWinner10CloseInputEv
bombermaaan:_ZN7CWinner6CreateEv
bombermaaan:_ZN7CWinner6UpdateEv
bombermaaan:_ZN7CWinner7DestroyEv
bombermaaan:_ZN7CWinner7DisplayEv
bombermaaan:_ZN7CWinner9OpenInputEv
bombermaaan:_ZN7CWinnerC1Ev
bombermaaan:_ZN7CWinnerC2Ev
bombermaaan:_ZN7CWinnerD0Ev
bombermaaan:_ZN7CWinnerD1Ev
bombermaaan:_ZN7CWinnerD2Ev
bombermaaan:_ZN8CAiArena6CreateEv
bombermaaan:_ZN8CAiArena6UpdateEf
bombermaaan:_ZN8CAiArena7DestroyEv
bombermaaan:_ZN8CAiArenaC1Ev
bombermaaan:_ZN8CAiArenaC2Ev
bombermaaan:_ZN8CAiArenaD0Ev
bombermaaan:_ZN8CAiArenaD1Ev
bombermaaan:_ZN8CAiArenaD2Ev
bombermaaan:_ZN8CConsole10GetConsoleEv
bombermaaan:_ZN8CConsole4OpenEv
bombermaaan:_ZN8CConsole5CloseEv
bombermaaan:_ZN8CConsole5WriteEPKcz
bombermaaan:_ZN8CConsoleC1Ev
bombermaaan:_ZN8CConsoleC2Ev
bombermaaan:_ZN8CConsoleD1Ev
bombermaaan:_ZN8CConsoleD2Ev
bombermaaan:_ZN8CCredits10CloseInputEv
bombermaaan:_ZN8CCredits6CreateEv
bombermaaan:_ZN8CCredits6UpdateEv
bombermaaan:_ZN8CCredits7DestroyEv
bombermaaan:_ZN8CCredits7DisplayEv
bombermaaan:_ZN8CCredits9OpenInputEv
bombermaaan:_ZN8CCreditsC1Ev
bombermaaan:_ZN8CCreditsC2Ev
bombermaaan:_ZN8CCreditsD0Ev
bombermaaan:_ZN8CCreditsD1Ev
bombermaaan:_ZN8CCreditsD2Ev
bombermaaan:_ZN8CDisplay11LoadSpritesEiiiibiPKc
bombermaaan:_ZN8CDisplay16SetProgramFolderERKNSt7__cxx1112basic_stringIcSt11char_traitsIcESaIcEEE
bombermaaan:_ZN8CDisplay22IsDisplayModeAvailableE12EDisplayMode
bombermaaan:_ZN8CDisplay6CreateE12EDisplayMode
bombermaaan:_ZN8CDisplay6CreateEiib
bombermaaan:_ZN8CDisplay7DestroyEv
bombermaaan:_ZN8CDisplayC1Ev
bombermaaan:_ZN8CDisplayC2Ev
bombermaaan:_ZN8CDisplayD1Ev
bombermaaan:_ZN8CDisplayD2Ev
bombermaaan:_ZN8CElement12ReadSnapshotER14CArenaSnapshot
bombermaaan:_ZN8CElement13WriteSnapshotER14CArenaSnapshot
bombermaaan:_ZN8CElement6CreateEv
bombermaaan:_ZN8CElement7DestroyEv
bombermaaan:_ZN8CElementC1Ev
bombermaaan:_ZN8CElementC2Ev
bombermaaan:_ZN8CElementD0Ev
bombermaaan:_ZN8CElementD1Ev
bombermaaan:_ZN8CElementD2Ev
bombermaaan:_ZN8COptions10LoadLevelsENSt7__cxx1112basic_stringIcSt11char_traitsIcESaIcEEES5_
bombermaaan:_ZN8COptions12WriteXMLDataEv
bombermaaan:_ZN8COptions14ReadIntFromXMLER13TiXmlDocumentNSt7__cxx1112basic_stringIcSt11char_traitsIcESaIcEEES7_Pi
bombermaaan:_ZN8COptions14SaveBeforeExitEv
bombermaaan:_ZN8COptions16SetDefaultValuesEv
bombermaaan:_ZN8COptions17LoadConfigurationEv
bombermaaan:_ZN8COptions6CreateEbNSt7__cxx1112basic_stringIcSt11char_traitsIcESaIcEEES5_
bombermaaan:_ZN8COptions7DestroyEv
bombermaaan:_ZN8COptionsC1ERKS_
bombermaaan:_ZN8COptionsC1Ev
bombermaaan:_ZN8COptionsC2ERKS_
bombermaaan:_ZN8COptionsC2Ev
bombermaaan:_ZN8COptionsD1Ev
bombermaaan:_ZN8COptionsD2Ev
bombermaaan:_ZN8COptionsaSERKS_
bombermaaan:_ZN8CVictory10CloseInputEv
bombermaaan:_ZN8CVictory13ResetConfettiEP9SConfetti
bombermaaan:_ZN8CVictory6CreateEv
bombermaaan:_ZN8CVictory6UpdateEv
bombermaaan:_ZN8CVictory7DestroyEv
bombermaaan:_ZN8CVictory7DisplayEv
bombermaaan:_ZN8CVictory8StopSongEv
bombermaaan:_ZN8CVictory9OpenInputEv
bombermaaan:_ZN8CVictoryC1Ev
bombermaaan:_ZN8CVictoryC2Ev
bombermaaan:_ZN8CVictoryD0Ev
bombermaaan:_ZN8CVictoryD1Ev
bombermaaan:_ZN8CVictoryD2Ev
bombermaaan:_ZN9CAiBomber10DropBombOKEii
bombermaaan:_ZN9CAiBomber10ModeAttackEv
bombermaaan:_ZN9CAiBomber10m_BurnMarkE
bombermaaan:_ZN9CAiBomber11ModeDefenceEf
bombermaaan:_ZN9CAiBomber15SetComputerModeE13EComputerMode
bombermaaan:_ZN9CAiBomber16ModeSecondActionEv
bombermaaan:_ZN9CAiBomber17EnemyNearAndFrontEP15EEnemyDirectionb
bombermaaan:_ZN9CAiBomber19UpdateAccessibilityEv
bombermaaan:_ZN9CAiBomber23EnemyNearRemoteFuseBombER5CBomb
bombermaaan:_ZN9CAiBomber26TeamMateNearRemoteFuseBombER5CBomb
bombermaaan:_ZN9CAiBomber4GoToEii
bombermaaan:_ZN9CAiBomber6CreateEi
bombermaaan:_ZN9CAiBomber6UpdateEf
bombermaaan:_ZN9CAiBomber7DestroyEv
bombermaaan:_ZN9CAiBomber8ItemMarkEii
bombermaaan:_ZN9CAiBomber8ModeItemEf
bombermaaan:_ZN9CAiBomber8ModeWalkEf
bombermaaan:_ZN9CAiBomber9EnemyNearEii
bombermaaan:_ZN9CAiBomber9ModeThinkEv
bombermaaan:_ZN9CAiBomber9ModeThrowEv
bombermaaan:_ZN9CAiBomberC1Ev
bombermaaan:_ZN9CAiBomberC2Ev
bombermaaan:_ZN9CAiBomberD0Ev
bombermaaan:_ZN9CAiBomberD1Ev
bombermaaan:_ZN9CAiBomberD2Ev
bombermaaan:_ZN9CControls10CloseInputEv
bombermaaan:_ZN9CControls6CreateEv
bombermaaan:_ZN9CControls6UpdateEv
bombermaaan:_ZN9CControls7DestroyEv
bombermaaan:_ZN9CControls7DisplayEv
bombermaaan:_ZN9CControls9OpenInputEv
bombermaaan:_ZN9CControlsC1Ev
bombermaaan:_ZN9CControlsC2Ev
bombermaaan:_ZN9CControlsD0Ev
bombermaaan:_ZN9CControlsD1Ev
bombermaaan:_ZN9CControlsD2Ev
bombermaaan:_ZN9CDrawGame10CloseInputEv
bombermaaan:_ZN9CDrawGame6CreateEv
bombermaaan:_ZN9CDrawGame6UpdateEv
bombermaaan:_ZN9CDrawGame7DestroyEv
bombermaaan:_ZN9CDrawGame7DisplayEv
bombermaaan:_ZN9CDrawGame9OpenInputEv
bombermaaan:_ZN9CDrawGameC1Ev
bombermaaan:_ZN9CDrawGameC2Ev
bombermaaan:_ZN9CDrawGameD0Ev
bombermaaan:_ZN9CDrawGameD1Ev
bombermaaan:_ZN9CDrawGameD2Ev
bombermaaan:_ZN9CInputSDL12UpdateDeviceEP13_SDL_JoystickPvi
bombermaaan:_ZN9CInputSDL12UpdateDeviceEPvi
bombermaaan:_ZN9CInputSDL14UpdateJoystickEi
bombermaaan:_ZN9CInputSDL14UpdateKeyboardEv
bombermaaan:_ZN9CInputSDL20MakeKeyFriendlyNamesEv
bombermaaan:_ZN9CInputSDL6CreateEv
bombermaaan:_ZN9CInputSDL7DestroyEv
bombermaaan:_ZN9CInputSDLC1Ev
bombermaaan:_ZN9CInputSDLC2Ev
bombermaaan:_ZN9CInputSDLD1Ev
bombermaaan:_ZN9CInputSDLD2Ev
bombermaaan:_ZN9CMenuBase4ExitE11EMenuAction
bombermaaan:_ZN9CMenuBase6CreateEv
bombermaaan:_ZN9CMenuBase6UpdateEv
bombermaaan:_ZN9CMenuBase7DestroyEv
bombermaaan:_ZN9CMenuBase7DisplayEv
bombermaaan:_ZN9CMenuBaseC1Ev
bombermaaan:_ZN9CMenuBaseC2Ev
bombermaaan:_ZN9CMenuBaseD0Ev
bombermaaan:_ZN9CMenuBaseD1Ev
bombermaaan:_ZN9CMenuBaseD2Ev
bombermaaan:_ZN9CMenuTeam10OnPreviousEv
bombermaaan:_ZN9CMenuTeam4OnUpEv
bombermaaan:_ZN9CMenuTeam6OnDownEv
bombermaaan:_ZN9CMenuTeam6OnLeftEv
bombermaaan:_ZN9CMenuTeam6OnNextEv
bombermaaan:_ZN9CMenuTeam7OnRightEv
bombermaaan:_ZN9CMenuTeam8OnCreateEv
bombermaaan:_ZN9CMenuTeam8OnUpdateEv
bombermaaan:_ZN9CMenuTeam9OnDestroyEv
bombermaaan:_ZN9CMenuTeam9OnDisplayEv
bombermaaan:_ZN9CMenuTeamC1Ev
bombermaaan:_ZN9CMenuTeamC2Ev
bombermaaan:_ZN9CMenuTeamD0Ev
bombermaaan:_ZN9CMenuTeamD1Ev
bombermaaan:_ZN9CMenuTeamD2Ev
bombermaaan:_ZN9CScroller11OutOfBoundsEv
bombermaaan:_ZN9CScroller6CreateEiiiifff
bombermaaan:_ZN9CScroller6UpdateEf
bombermaaan:_ZN9CScroller7DestroyEv
bombermaaan:_ZN9CScrollerC1Ev
bombermaaan:_ZN9CScrollerC2Ev
bombermaaan:_ZN9CScrollerD1Ev
bombermaaan:_ZN9CScrollerD2Ev
bombermaaan:_ZN9CVideoSDL10DrawSpriteEiiP7tagRECTS1_iiii
bombermaaan:_ZN9CVideoSDL11FreeSpritesEv
bombermaaan:_ZN9CVideoSDL11LoadSpritesEiiiibiPKc
bombermaaan:_ZN9CVideoSDL11LoadSpritesEiiiibii
bombermaaan:_ZN9CVideoSDL12OnWindowMoveEv
bombermaaan:_ZN9CVideoSDL12UpdateScreenEv
bombermaaan:_ZN9CVideoSDL15GetNumberOfBitsEm
bombermaaan:_ZN9CVideoSDL15IsModeAvailableEiii
bombermaaan:_ZN9CVideoSDL16SetProgramFolderERKNSt7__cxx1112basic_stringIcSt11char_traitsIcESaIcEEE
bombermaaan:_ZN9CVideoSDL18DrawDebugRectangleEiiiihhhii
bombermaaan:_ZN9CVideoSDL19SetTransparentColorEiii
bombermaaan:_ZN9CVideoSDL24RemoveAllDebugRectanglesEv
bombermaaan:_ZN9CVideoSDL5ClearEv
bombermaaan:_ZN9CVideoSDL6CreateEiiib
bombermaaan:_ZN9CVideoSDL7DestroyEv
bombermaaan:_ZN9CVideoSDL9UpdateAllEv
bombermaaan:_ZN9CVideoSDLC1Ev
bombermaaan:_ZN9CVideoSDLC2Ev
bombermaaan:_ZN9CVideoSDLD1Ev
bombermaaan:_ZN9CVideoSDLD2Ev
bombermaaan:_ZN9TiXmlBase10IsAlphaNumEh13TiXmlEncoding
bombermaaan:_ZN9TiXmlBase11StringEqualEPKcS1_b13TiXmlEncoding
bombermaaan:_ZN9TiXmlBase11errorStringE
bombermaaan:_ZN9TiXmlBase12EncodeStringERKNSt7__cxx1112basic_stringIcSt11char_traitsIcESaIcEEEPS5_
bombermaaan:_ZN9TiXmlBase13utf8ByteTableE
bombermaaan:_ZN9TiXmlBase14SkipWhiteSpaceEPKc13TiXmlEncoding
bombermaaan:_ZN9TiXmlBase16StreamWhiteSpaceEPSiPNSt7__cxx1112basic_stringIcSt11char_traitsIcESaIcEEE
bombermaaan:_ZN9TiXmlBase18ConvertUTF32ToUTF8EmPcPi
bombermaaan:_ZN9TiXmlBase18condenseWhiteSpaceE
bombermaaan:_ZN9TiXmlBase6entityE
bombermaaan:_ZN9TiXmlBase7IsAlphaEh13TiXmlEncoding
bombermaaan:_ZN9TiXmlBase8ReadNameEPKcPNSt7__cxx1112basic_stringIcSt11char_traitsIcESaIcEEE13TiXmlEncoding
bombermaaan:_ZN9TiXmlBase8ReadTextEPKcPNSt7__cxx1112basic_stringIcSt11char_traitsIcESaIcEEEbS1_b13TiXmlEncoding
bombermaaan:_ZN9TiXmlBase8StreamToEPSiiPNSt7__cxx1112basic_stringIcSt11char_traitsIcESaIcEEE
bombermaaan:_ZN9TiXmlBase9GetEntityEPKcPcPi13TiXmlEncoding
bombermaaan:_ZN9TiXmlNode11RemoveChildEPS_
bombermaaan:_ZN9TiXmlNode12LinkEndChildEPS_
bombermaaan:_ZN9TiXmlNode12ReplaceChildEPS_RKS_
bombermaaan:_ZN9TiXmlNode14InsertEndChildERKS_
bombermaaan:_ZN9TiXmlNode16InsertAfterChildEPS_RKS_
bombermaaan:_ZN9TiXmlNode17InsertBeforeChildEPS_RKS_
bombermaaan:_ZN9TiXmlNode5ClearEv
bombermaaan:_ZN9TiXmlNode8IdentifyEPKc13TiXmlEncoding
bombermaaan:_ZN9TiXmlNodeC1ENS_8NodeTypeE
bombermaaan:_ZN9TiXmlNodeC2ENS_8NodeTypeE
bombermaaan:_ZN9TiXmlNodeD0Ev
bombermaaan:_ZN9TiXmlNodeD1Ev
bombermaaan:_ZN9TiXmlNodeD2Ev
bombermaaan:_ZN9TiXmlText5ParseEPKcP16TiXmlParsingData13TiXmlEncoding
bombermaaan:_ZN9TiXmlText8StreamInEPSiPNSt7__cxx1112basic_stringIcSt11char_traitsIcESaIcEEE
bombermaaan:_ZNK11TiXmlHandle10FirstChildEPKc
bombermaaan:_ZNK11TiXmlHandle10FirstChildEv
bombermaaan:_ZNK11TiXmlHandle12ChildElementEPKci
bombermaaan:_ZNK11TiXmlHandle12ChildElementEi
bombermaaan:_ZNK11TiXmlHandle17FirstChildElementEPKc
bombermaaan:_ZNK11TiXmlHandle17FirstChildElementEv
bombermaaan:_ZNK11TiXmlHandle5ChildEPKci
bombermaaan:_ZNK11TiXmlHandle5ChildEi
bombermaaan:_ZNK12TiXmlComment5CloneEv
bombermaaan:_ZNK12TiXmlComment5PrintEP8_IO_FILEi
bombermaaan:_ZNK12TiXmlComment6AcceptEP12TiXmlVisitor
bombermaaan:_ZNK12TiXmlComment6CopyToEPS_
bombermaaan:_ZNK12TiXmlElement17QueryIntAttributeEPKcPi
bombermaaan:_ZNK12TiXmlElement17QueryIntAttributeERKNSt7__cxx1112basic_stringIcSt11char_traitsIcESaIcEEEPi
bombermaaan:_ZNK12TiXmlElement18QueryBoolAttributeEPKcPb
bombermaaan:_ZNK12TiXmlElement20QueryDoubleAttributeEPKcPd
bombermaaan:_ZNK12TiXmlElement20QueryDoubleAttributeERKNSt7__cxx1112basic_stringIcSt11char_traitsIcESaIcEEEPd
bombermaaan:_ZNK12TiXmlElement22QueryUnsignedAttributeEPKcPj
bombermaaan:_ZNK12TiXmlElement5CloneEv
bombermaaan:_ZNK12TiXmlElement5PrintEP8_IO_FILEi
bombermaaan:_ZNK12TiXmlElement6AcceptEP12TiXmlVisitor
bombermaaan:_ZNK12TiXmlElement6CopyToEPS_
bombermaaan:_ZNK12TiXmlElement7GetTextEv
bombermaaan:_ZNK12TiXmlElement9AttributeEPKc
bombermaaan:_ZNK12TiXmlElement9AttributeEPKcPd
bombermaaan:_ZNK12TiXmlElement9AttributeEPKcPi
bombermaaan:_ZNK12TiXmlElement9AttributeERKNSt7__cxx1112basic_stringIcSt11char_traitsIcESaIcEEE
bombermaaan:_ZNK12TiXmlElement9AttributeERKNSt7__cxx1112basic_stringIcSt11char_traitsIcESaIcEEEPd
bombermaaan:_ZNK12TiXmlElement9AttributeERKNSt7__cxx1112basic_stringIcSt11char_traitsIcESaIcEEEPi
bombermaaan:_ZNK12TiXmlUnknown5CloneEv
bombermaaan:_ZNK12TiXmlUnknown5PrintEP8_IO_FILEi
bombermaaan:_ZNK12TiXmlUnknown6AcceptEP12TiXmlVisitor
bombermaaan:_ZNK12TiXmlUnknown6CopyToEPS_
bombermaaan:_ZNK13TiXmlDocument5CloneEv
bombermaaan:_ZNK13TiXmlDocument5PrintEP8_IO_FILEi
bombermaaan:_ZNK13TiXmlDocument6AcceptEP12TiXmlVisitor
bombermaaan:_ZNK13TiXmlDocument6CopyToEPS_
bombermaaan:_ZNK13TiXmlDocument8SaveFileEP8_IO_FILE
bombermaaan:_ZNK13TiXmlDocument8SaveFileEPKc
bombermaaan:_ZNK13TiXmlDocument8SaveFileEv
bombermaaan:_ZNK14TiXmlAttribute11DoubleValueEv
bombermaaan:_ZNK14TiXmlAttribute13QueryIntValueEPi
bombermaaan:_ZNK14TiXmlAttribute16QueryDoubleValueEPd
bombermaaan:_ZNK14TiXmlAttribute4NextEv
bombermaaan:_ZNK14TiXmlAttribute5PrintEP8_IO_FILEiPNSt7__cxx1112basic_stringIcSt11char_traitsIcESaIcEEE
bombermaaan:_ZNK14TiXmlAttribute8IntValueEv
bombermaaan:_ZNK14TiXmlAttribute8PreviousEv
bombermaaan:_ZNK16TiXmlDeclaration5CloneEv
bombermaaan:_ZNK16TiXmlDeclaration5PrintEP8_IO_FILEiPNSt7__cxx1112basic_stringIcSt11char_traitsIcESaIcEEE
bombermaaan:_ZNK16TiXmlDeclaration6AcceptEP12TiXmlVisitor
bombermaaan:_ZNK16TiXmlDeclaration6CopyToEPS_
bombermaaan:_ZNK17TiXmlAttributeSet4FindEPKc
bombermaaan:_ZNK17TiXmlAttributeSet4FindERKNSt7__cxx1112basic_stringIcSt11char_traitsIcESaIcEEE
bombermaaan:_ZNK9TiXmlNode10FirstChildEPKc
bombermaaan:_ZNK9TiXmlNode11GetDocumentEv
bombermaaan:_ZNK9TiXmlNode11NextSiblingEPKc
bombermaaan:_ZNK9TiXmlNode15IterateChildrenEPKS_
bombermaaan:_ZNK9TiXmlNode15IterateChildrenEPKcPKS_
bombermaaan:_ZNK9TiXmlNode15PreviousSiblingEPKc
bombermaaan:_ZNK9TiXmlNode17FirstChildElementEPKc
bombermaaan:_ZNK9TiXmlNode17FirstChildElementEv
bombermaaan:_ZNK9TiXmlNode18NextSiblingElementEPKc
bombermaaan:_ZNK9TiXmlNode18NextSiblingElementEv
bombermaaan:_ZNK9TiXmlNode6CopyToEPS_
bombermaaan:_ZNK9TiXmlNode9LastChildEPKc
bombermaaan:_ZNK9TiXmlText5BlankEv
bombermaaan:_ZNK9TiXmlText5CloneEv
bombermaaan:_ZNK9TiXmlText5PrintEP8_IO_FILEi
bombermaaan:_ZNK9TiXmlText6AcceptEP12TiXmlVisitor
bombermaaan:_ZNK9TiXmlText6CopyToEPS_
bombermaaan:_ZlsRNSt7__cxx1112basic_stringIcSt11char_traitsIcESaIcEEERK9TiXmlNode
bombermaaan:_ZlsRSoRK9TiXmlNode
bombermaaan:_ZrsRSiR9TiXmlNode
bombermaaan:__bss_start
bombermaaan:__data_start
bombermaaan:_edata
bombermaaan:_end
bombermaaan:_start
bombermaaan:main
