liblensfun.so.1:_Z10_lf_addobjPPPvPKvmPFbS3_S3_E
liblensfun.so.1:_Z10_lf_addstrPPPcPKc
liblensfun.so.1:_Z10_lf_delobjPPPvi
liblensfun.so.1:_Z10_lf_setstrPPcPKc
liblensfun.so.1:_Z10_lf_strcmpPKcS0_
liblensfun.so.1:_Z12_lf_mlstrcmpPKcPc
liblensfun.so.1:_Z13_lf_list_freePPv
liblensfun.so.1:_Z14_lf_xml_printfP8_GStringPKcz
liblensfun.so.1:_Z15_lf_interpolatefffff
liblensfun.so.1:_Z16_lf_lens_comparePKvS0_
liblensfun.so.1:_Z17_lf_mount_comparePKvS0_
liblensfun.so.1:_Z18_lf_camera_comparePKvS0_
liblensfun.so.1:_Z20_lf_xml_printf_mlstrP8_GStringPKcS2_Pc
liblensfun.so.1:_Z21_lf_lens_name_comparePK6lfLensS1_
liblensfun.so.1:_Z22_lf_lens_compare_scorePK6lfLensS1_P13lfFuzzyStrCmpPPKc
liblensfun.so.1:_Z23_lf_detect_cpu_featuresv
liblensfun.so.1:_Z25_lf_ptr_array_find_sortedPK10_GPtrArrayPvPFiPKvS4_E
liblensfun.so.1:_Z26get_hugin_focal_correctionPK6lfLensf
liblensfun.so.1:_Z27_lf_lens_parameters_comparePK6lfLensS1_
liblensfun.so.1:_Z27_lf_ptr_array_insert_sortedP10_GPtrArrayPvPFiPKvS3_E
liblensfun.so.1:_Z27_lf_ptr_array_insert_uniqueP10_GPtrArrayPvPFiPKvS3_EPFvS1_E
liblensfun.so.1:_Z27_lf_read_database_timestampPKc
liblensfun.so.1:_ZN10lfDatabase13LoadDirectoryEPKc
liblensfun.so.1:_ZN10lfDatabase4LoadEPKc
liblensfun.so.1:_ZN10lfDatabase4LoadEPKcS1_m
liblensfun.so.1:_ZN10lfDatabase4LoadEv
liblensfun.so.1:_ZN10lfDatabase4SaveEPKPK7lfMountPKPK8lfCameraPKPK6lfLens
liblensfun.so.1:_ZN10lfDatabase6CreateEv
liblensfun.so.1:_ZN10lfDatabase7AddLensEP6lfLens
liblensfun.so.1:_ZN10lfDatabase7DestroyEv
liblensfun.so.1:_ZN10lfDatabase8AddMountEP7lfMount
liblensfun.so.1:_ZN10lfDatabase9AddCameraEP8lfCamera
liblensfun.so.1:_ZN10lfDatabaseC1Ev
liblensfun.so.1:_ZN10lfDatabaseC2Ev
liblensfun.so.1:_ZN10lfDatabaseD1Ev
liblensfun.so.1:_ZN10lfDatabaseD2Ev
liblensfun.so.1:_ZN10lfModifier10InitializeEPK6lfLens13lfPixelFormatffff10lfLensTypeib
liblensfun.so.1:_ZN10lfModifier11AddCallbackEPvP14lfCallbackDataiS0_m
liblensfun.so.1:_ZN10lfModifier12GetAutoScaleEb
liblensfun.so.1:_ZN10lfModifier16AddColorCallbackEPFvPvffS0_iiEiS0_m
liblensfun.so.1:_ZN10lfModifier16AddCoordCallbackEPFvPvPfiEiS0_m
liblensfun.so.1:_ZN10lfModifier17ModifyCoord_ScaleEPvPfi
liblensfun.so.1:_ZN10lfModifier18GetRealFocalLengthEPK6lfLensf
liblensfun.so.1:_ZN10lfModifier19AddSubpixelCallbackEPFvPvPfiEiS0_m
liblensfun.so.1:_ZN10lfModifier21AddCoordCallbackScaleEfb
liblensfun.so.1:_ZN10lfModifier21ModifyCoord_TCA_Poly3EPvPfi
liblensfun.so.1:_ZN10lfModifier22AddSubpixelCallbackTCAER14lfLensCalibTCAb
liblensfun.so.1:_ZN10lfModifier22ModifyCoord_Dist_Poly3EPvPfi
liblensfun.so.1:_ZN10lfModifier22ModifyCoord_Dist_Poly5EPvPfi
liblensfun.so.1:_ZN10lfModifier22ModifyCoord_TCA_LinearEPvPfi
liblensfun.so.1:_ZN10lfModifier23ModifyCoord_Dist_PTLensEPvPfi
liblensfun.so.1:_ZN10lfModifier23ModifyCoord_UnTCA_Poly3EPvPfi
liblensfun.so.1:_ZN10lfModifier24AddCoordCallbackGeometryE10lfLensTypeS0_f
liblensfun.so.1:_ZN10lfModifier24ModifyCoord_UnDist_Poly3EPvPfi
liblensfun.so.1:_ZN10lfModifier24ModifyCoord_UnDist_Poly5EPvPfi
liblensfun.so.1:_ZN10lfModifier24ModifyCoord_UnTCA_LinearEPvPfi
liblensfun.so.1:_ZN10lfModifier25ModifyCoord_UnDist_PTLensEPvPfi
liblensfun.so.1:_ZN10lfModifier26AddColorCallbackVignettingER21lfLensCalibVignetting13lfPixelFormatb
liblensfun.so.1:_ZN10lfModifier26AddCoordCallbackDistortionER21lfLensCalibDistortionb
liblensfun.so.1:_ZN10lfModifier26ModifyCoord_Dist_Poly3_SSEEPvPfi
liblensfun.so.1:_ZN10lfModifier27ModifyCoord_Dist_PTLens_SSEEPvPfi
liblensfun.so.1:_ZN10lfModifier27ModifyCoord_Geom_ERect_RectEPvPfi
liblensfun.so.1:_ZN10lfModifier27ModifyCoord_Geom_Rect_ERectEPvPfi
liblensfun.so.1:_ZN10lfModifier28ModifyCoord_Geom_ERect_ThobyEPvPfi
liblensfun.so.1:_ZN10lfModifier28ModifyCoord_Geom_Thoby_ERectEPvPfi
liblensfun.so.1:_ZN10lfModifier29ModifyCoord_Geom_FishEye_RectEPvPfi
liblensfun.so.1:_ZN10lfModifier29ModifyCoord_Geom_Rect_FishEyeEPvPfi
liblensfun.so.1:_ZN10lfModifier29ModifyCoord_UnDist_PTLens_SSEEPvPfi
liblensfun.so.1:_ZN10lfModifier30ModifyCoord_Geom_ERect_FishEyeEPvPfi
liblensfun.so.1:_ZN10lfModifier30ModifyCoord_Geom_FishEye_ERectEPvPfi
liblensfun.so.1:_ZN10lfModifier31ModifyColor_DeVignetting_PA_SSEEPvffPfii
liblensfun.so.1:_ZN10lfModifier31ModifyCoord_Geom_Panoramic_RectEPvPfi
liblensfun.so.1:_ZN10lfModifier31ModifyCoord_Geom_Rect_PanoramicEPvPfi
liblensfun.so.1:_ZN10lfModifier32ModifyColor_DeVignetting_PA_SSE2EPvffPtii
liblensfun.so.1:_ZN10lfModifier32ModifyCoord_Geom_ERect_EquisolidEPvPfi
liblensfun.so.1:_ZN10lfModifier32ModifyCoord_Geom_ERect_PanoramicEPvPfi
liblensfun.so.1:_ZN10lfModifier32ModifyCoord_Geom_Equisolid_ERectEPvPfi
liblensfun.so.1:_ZN10lfModifier32ModifyCoord_Geom_Panoramic_ERectEPvPfi
liblensfun.so.1:_ZN10lfModifier34ModifyCoord_Geom_FishEye_PanoramicEPvPfi
liblensfun.so.1:_ZN10lfModifier34ModifyCoord_Geom_Panoramic_FishEyeEPvPfi
liblensfun.so.1:_ZN10lfModifier35ModifyCoord_Geom_ERect_OrthographicEPvPfi
liblensfun.so.1:_ZN10lfModifier35ModifyCoord_Geom_Orthographic_ERectEPvPfi
liblensfun.so.1:_ZN10lfModifier36ModifyCoord_Geom_ERect_StereographicEPvPfi
liblensfun.so.1:_ZN10lfModifier36ModifyCoord_Geom_Stereographic_ERectEPvPfi
liblensfun.so.1:_ZN10lfModifier6CreateEPK6lfLensfii
liblensfun.so.1:_ZN10lfModifier7DestroyEv
liblensfun.so.1:_ZN10lfModifierC1EPK6lfLensfii
liblensfun.so.1:_ZN10lfModifierC2EPK6lfLensfii
liblensfun.so.1:_ZN10lfModifierD1Ev
liblensfun.so.1:_ZN10lfModifierD2Ev
liblensfun.so.1:_ZN13lfFuzzyStrCmp4FreeEP10_GPtrArray
liblensfun.so.1:_ZN13lfFuzzyStrCmp5SplitEPKcP10_GPtrArray
liblensfun.so.1:_ZN13lfFuzzyStrCmp7CompareEPKc
liblensfun.so.1:_ZN13lfFuzzyStrCmp7CompareEPc
liblensfun.so.1:_ZN13lfFuzzyStrCmpC1EPKcb
liblensfun.so.1:_ZN13lfFuzzyStrCmpC2EPKcb
liblensfun.so.1:_ZN13lfFuzzyStrCmpD1Ev
liblensfun.so.1:_ZN13lfFuzzyStrCmpD2Ev
liblensfun.so.1:_ZN6lfLens11AddCalibFovEPK14lfLensCalibFov
liblensfun.so.1:_ZN6lfLens11AddCalibTCAEPK14lfLensCalibTCA
liblensfun.so.1:_ZN6lfLens11GetCropDescE10lfCropModePPKcPPPK11lfParameter
liblensfun.so.1:_ZN6lfLens12AddCalibCropEPK15lfLensCalibCrop
liblensfun.so.1:_ZN6lfLens14RemoveCalibFovEi
liblensfun.so.1:_ZN6lfLens14RemoveCalibTCAEi
liblensfun.so.1:_ZN6lfLens15GetLensTypeDescE10lfLensTypePPKc
liblensfun.so.1:_ZN6lfLens15GetTCAModelDescE10lfTCAModelPPKcPPPK11lfParameter
liblensfun.so.1:_ZN6lfLens15GuessParametersEv
liblensfun.so.1:_ZN6lfLens15RemoveCalibCropEi
liblensfun.so.1:_ZN6lfLens17AddCalibRealFocalEPK20lfLensCalibRealFocal
liblensfun.so.1:_ZN6lfLens18AddCalibDistortionEPK21lfLensCalibDistortion
liblensfun.so.1:_ZN6lfLens18AddCalibVignettingEPK21lfLensCalibVignetting
liblensfun.so.1:_ZN6lfLens20RemoveCalibRealFocalEi
liblensfun.so.1:_ZN6lfLens21RemoveCalibDistortionEi
liblensfun.so.1:_ZN6lfLens21RemoveCalibVignettingEi
liblensfun.so.1:_ZN6lfLens22GetDistortionModelDescE17lfDistortionModelPPKcPPPK11lfParameter
liblensfun.so.1:_ZN6lfLens22GetVignettingModelDescE17lfVignettingModelPPKcPPPK11lfParameter
liblensfun.so.1:_ZN6lfLens5CheckEv
liblensfun.so.1:_ZN6lfLens8AddMountEPKc
liblensfun.so.1:_ZN6lfLens8SetMakerEPKcS1_
liblensfun.so.1:_ZN6lfLens8SetModelEPKcS1_
liblensfun.so.1:_ZN6lfLensC1Ev
liblensfun.so.1:_ZN6lfLensC2Ev
liblensfun.so.1:_ZN6lfLensD1Ev
liblensfun.so.1:_ZN6lfLensD2Ev
liblensfun.so.1:_ZN6lfLensaSERKS_
liblensfun.so.1:_ZN7lfMount5CheckEv
liblensfun.so.1:_ZN7lfMount7SetNameEPKcS1_
liblensfun.so.1:_ZN7lfMount9AddCompatEPKc
liblensfun.so.1:_ZN7lfMountC1Ev
liblensfun.so.1:_ZN7lfMountC2Ev
liblensfun.so.1:_ZN7lfMountD1Ev
liblensfun.so.1:_ZN7lfMountD2Ev
liblensfun.so.1:_ZN7lfMountaSERKS_
liblensfun.so.1:_ZN8lfCamera10SetVariantEPKcS1_
liblensfun.so.1:_ZN8lfCamera5CheckEv
liblensfun.so.1:_ZN8lfCamera8SetMakerEPKcS1_
liblensfun.so.1:_ZN8lfCamera8SetModelEPKcS1_
liblensfun.so.1:_ZN8lfCamera8SetMountEPKc
liblensfun.so.1:_ZN8lfCameraC1Ev
liblensfun.so.1:_ZN8lfCameraC2Ev
liblensfun.so.1:_ZN8lfCameraD1Ev
liblensfun.so.1:_ZN8lfCameraD2Ev
liblensfun.so.1:_ZN8lfCameraaSERKS_
liblensfun.so.1:_ZNK10lfDatabase10FindLensesEPK6lfLensi
liblensfun.so.1:_ZNK10lfDatabase10FindLensesEPK8lfCameraPKcS4_i
liblensfun.so.1:_ZNK10lfDatabase10GetCamerasEv
liblensfun.so.1:_ZNK10lfDatabase11FindCamerasEPKcS1_
liblensfun.so.1:_ZNK10lfDatabase14FindCamerasExtEPKcS1_i
liblensfun.so.1:_ZNK10lfDatabase4SaveEPKc
liblensfun.so.1:_ZNK10lfDatabase4SaveEPKcPKPK7lfMountPKPK8lfCameraPKPK6lfLens
liblensfun.so.1:_ZNK10lfDatabase9FindMountEPKc
liblensfun.so.1:_ZNK10lfDatabase9GetLensesEv
liblensfun.so.1:_ZNK10lfDatabase9GetMountsEv
liblensfun.so.1:_ZNK10lfDatabase9MountNameEPKc
liblensfun.so.1:_ZNK10lfModifier22ApplyColorModificationEPvffiiii
liblensfun.so.1:_ZNK10lfModifier22GetTransformedDistanceE7lfPoint
liblensfun.so.1:_ZNK10lfModifier23ApplyGeometryDistortionEffiiPf
liblensfun.so.1:_ZNK10lfModifier23ApplySubpixelDistortionEffiiPf
liblensfun.so.1:_ZNK10lfModifier25AutoscaleResidualDistanceEPf
liblensfun.so.1:_ZNK10lfModifier31ApplySubpixelGeometryDistortionEffiiPf
liblensfun.so.1:_ZNK6lfLens14InterpolateFovEfR14lfLensCalibFov
liblensfun.so.1:_ZNK6lfLens14InterpolateTCAEfR14lfLensCalibTCA
liblensfun.so.1:_ZNK6lfLens15InterpolateCropEfR15lfLensCalibCrop
liblensfun.so.1:_ZNK6lfLens20InterpolateRealFocalEfR20lfLensCalibRealFocal
liblensfun.so.1:_ZNK6lfLens21InterpolateDistortionEfR21lfLensCalibDistortion
liblensfun.so.1:_ZNK6lfLens21InterpolateVignettingEfffR21lfLensCalibVignetting
liblensfun.so.1:lf_camera_check
liblensfun.so.1:lf_camera_copy
liblensfun.so.1:lf_camera_destroy
liblensfun.so.1:lf_camera_new
liblensfun.so.1:lf_db_destroy
liblensfun.so.1:lf_db_find_cameras
liblensfun.so.1:lf_db_find_cameras_ext
liblensfun.so.1:lf_db_find_lenses
liblensfun.so.1:lf_db_find_lenses_hd
liblensfun.so.1:lf_db_find_mount
liblensfun.so.1:lf_db_get_cameras
liblensfun.so.1:lf_db_get_lenses
liblensfun.so.1:lf_db_get_mounts
liblensfun.so.1:lf_db_load
liblensfun.so.1:lf_db_load_data
liblensfun.so.1:lf_db_load_file
liblensfun.so.1:lf_db_mount_name
liblensfun.so.1:lf_db_new
liblensfun.so.1:lf_db_save
liblensfun.so.1:lf_db_save_all
liblensfun.so.1:lf_db_save_file
liblensfun.so.1:lf_free
liblensfun.so.1:lf_get_crop_desc
liblensfun.so.1:lf_get_distortion_model_desc
liblensfun.so.1:lf_get_lens_type_desc
liblensfun.so.1:lf_get_tca_model_desc
liblensfun.so.1:lf_get_vignetting_model_desc
liblensfun.so.1:lf_lens_add_calib_crop
liblensfun.so.1:lf_lens_add_calib_distortion
liblensfun.so.1:lf_lens_add_calib_fov
liblensfun.so.1:lf_lens_add_calib_real_focal
liblensfun.so.1:lf_lens_add_calib_tca
liblensfun.so.1:lf_lens_add_calib_vignetting
liblensfun.so.1:lf_lens_check
liblensfun.so.1:lf_lens_copy
liblensfun.so.1:lf_lens_destroy
liblensfun.so.1:lf_lens_guess_parameters
liblensfun.so.1:lf_lens_interpolate_crop
liblensfun.so.1:lf_lens_interpolate_distortion
liblensfun.so.1:lf_lens_interpolate_fov
liblensfun.so.1:lf_lens_interpolate_real_focal
liblensfun.so.1:lf_lens_interpolate_tca
liblensfun.so.1:lf_lens_interpolate_vignetting
liblensfun.so.1:lf_lens_new
liblensfun.so.1:lf_lens_remove_calib_crop
liblensfun.so.1:lf_lens_remove_calib_distortion
liblensfun.so.1:lf_lens_remove_calib_fov
liblensfun.so.1:lf_lens_remove_calib_real_focal
liblensfun.so.1:lf_lens_remove_calib_tca
liblensfun.so.1:lf_lens_remove_calib_vignetting
liblensfun.so.1:lf_mlstr_add
liblensfun.so.1:lf_mlstr_dup
liblensfun.so.1:lf_mlstr_get
liblensfun.so.1:lf_modifier_add_color_callback
liblensfun.so.1:lf_modifier_add_color_callback_vignetting
liblensfun.so.1:lf_modifier_add_coord_callback
liblensfun.so.1:lf_modifier_add_coord_callback_distortion
liblensfun.so.1:lf_modifier_add_coord_callback_geometry
liblensfun.so.1:lf_modifier_add_coord_callback_scale
liblensfun.so.1:lf_modifier_add_subpixel_callback
liblensfun.so.1:lf_modifier_add_subpixel_callback_TCA
liblensfun.so.1:lf_modifier_apply_color_modification
liblensfun.so.1:lf_modifier_apply_geometry_distortion
liblensfun.so.1:lf_modifier_apply_subpixel_distortion
liblensfun.so.1:lf_modifier_apply_subpixel_geometry_distortion
liblensfun.so.1:lf_modifier_destroy
liblensfun.so.1:lf_modifier_get_auto_scale
liblensfun.so.1:lf_modifier_initialize
liblensfun.so.1:lf_modifier_new
liblensfun.so.1:lf_mount_check
liblensfun.so.1:lf_mount_destroy
liblensfun.so.1:lf_mount_new
