ixion.so:PyInit_ixion
libixion-0.18.so.0:_ZN5ixion11abs_range_t12set_all_rowsEv
libixion-0.18.so.0:_ZN5ixion11abs_range_t15set_all_columnsEv
libixion-0.18.so.0:_ZN5ixion11abs_range_t7reorderEv
libixion-0.18.so.0:_ZN5ixion11abs_range_tC1ENS0_12init_invalidE
libixion-0.18.so.0:_ZN5ixion11abs_range_tC1ERKNS_13abs_address_tE
libixion-0.18.so.0:_ZN5ixion11abs_range_tC1ERKNS_13abs_address_tEii
libixion-0.18.so.0:_ZN5ixion11abs_range_tC1Eiii
libixion-0.18.so.0:_ZN5ixion11abs_range_tC1Eiiiii
libixion-0.18.so.0:_ZN5ixion11abs_range_tC1Ev
libixion-0.18.so.0:_ZN5ixion11abs_range_tC2ENS0_12init_invalidE
libixion-0.18.so.0:_ZN5ixion11abs_range_tC2ERKNS_13abs_address_tE
libixion-0.18.so.0:_ZN5ixion11abs_range_tC2ERKNS_13abs_address_tEii
libixion-0.18.so.0:_ZN5ixion11abs_range_tC2Eiii
libixion-0.18.so.0:_ZN5ixion11abs_range_tC2Eiiiii
libixion-0.18.so.0:_ZN5ixion11abs_range_tC2Ev
libixion-0.18.so.0:_ZN5ixion11cell_accessC1EOS0_
libixion-0.18.so.0:_ZN5ixion11cell_accessC1ERKNS_13model_contextERKNS_13abs_address_tE
libixion-0.18.so.0:_ZN5ixion11cell_accessC2EOS0_
libixion-0.18.so.0:_ZN5ixion11cell_accessC2ERKNS_13model_contextERKNS_13abs_address_tE
libixion-0.18.so.0:_ZN5ixion11cell_accessD1Ev
libixion-0.18.so.0:_ZN5ixion11cell_accessD2Ev
libixion-0.18.so.0:_ZN5ixion11cell_accessaSEOS0_
libixion-0.18.so.0:_ZN5ixion12column_unsetE
libixion-0.18.so.0:_ZN5ixion12formula_cell10set_tokensERKN5boost13intrusive_ptrINS_20formula_tokens_storeEEE
libixion-0.18.so.0:_ZN5ixion12formula_cell14check_circularERKNS_13model_contextERKNS_13abs_address_tE
libixion-0.18.so.0:_ZN5ixion12formula_cell16set_result_cacheENS_14formula_resultE
libixion-0.18.so.0:_ZN5ixion12formula_cell5resetEv
libixion-0.18.so.0:_ZN5ixion12formula_cell9interpretERNS_13model_contextERKNS_13abs_address_tE
libixion-0.18.so.0:_ZN5ixion12formula_cellC1ERKN5boost13intrusive_ptrINS_20formula_tokens_storeEEE
libixion-0.18.so.0:_ZN5ixion12formula_cellC1EiiRKN5boost13intrusive_ptrINS_11calc_statusEEERKNS2_INS_20formula_tokens_storeEEE
libixion-0.18.so.0:_ZN5ixion12formula_cellC1Ev
libixion-0.18.so.0:_ZN5ixion12formula_cellC2ERKN5boost13intrusive_ptrINS_20formula_tokens_storeEEE
libixion-0.18.so.0:_ZN5ixion12formula_cellC2EiiRKN5boost13intrusive_ptrINS_11calc_statusEEERKNS2_INS_20formula_tokens_storeEEE
libixion-0.18.so.0:_ZN5ixion12formula_cellC2Ev
libixion-0.18.so.0:_ZN5ixion12formula_cellD1Ev
libixion-0.18.so.0:_ZN5ixion12formula_cellD2Ev
libixion-0.18.so.0:_ZN5ixion12global_scopeE
libixion-0.18.so.0:_ZN5ixion12rc_address_tC1ERKS0_
libixion-0.18.so.0:_ZN5ixion12rc_address_tC1Eiibb
libixion-0.18.so.0:_ZN5ixion12rc_address_tC1Ev
libixion-0.18.so.0:_ZN5ixion12rc_address_tC2ERKS0_
libixion-0.18.so.0:_ZN5ixion12rc_address_tC2Eiibb
libixion-0.18.so.0:_ZN5ixion12rc_address_tC2Ev
libixion-0.18.so.0:_ZN5ixion13abs_address_tC1ENS0_12init_invalidE
libixion-0.18.so.0:_ZN5ixion13abs_address_tC1ERKS0_
libixion-0.18.so.0:_ZN5ixion13abs_address_tC1Eiii
libixion-0.18.so.0:_ZN5ixion13abs_address_tC1Ev
libixion-0.18.so.0:_ZN5ixion13abs_address_tC2ENS0_12init_invalidE
libixion-0.18.so.0:_ZN5ixion13abs_address_tC2ERKS0_
libixion-0.18.so.0:_ZN5ixion13abs_address_tC2Eiii
libixion-0.18.so.0:_ZN5ixion13abs_address_tC2Ev
libixion-0.18.so.0:_ZN5ixion13formula_errorC1ENS_15formula_error_tE
libixion-0.18.so.0:_ZN5ixion13formula_errorC1ENS_15formula_error_tENSt7__cxx1112basic_stringIcSt11char_traitsIcESaIcEEE
libixion-0.18.so.0:_ZN5ixion13formula_errorC1EOS0_
libixion-0.18.so.0:_ZN5ixion13formula_errorC2ENS_15formula_error_tE
libixion-0.18.so.0:_ZN5ixion13formula_errorC2ENS_15formula_error_tENSt7__cxx1112basic_stringIcSt11char_traitsIcESaIcEEE
libixion-0.18.so.0:_ZN5ixion13formula_errorC2EOS0_
libixion-0.18.so.0:_ZN5ixion13formula_errorD0Ev
libixion-0.18.so.0:_ZN5ixion13formula_errorD1Ev
libixion-0.18.so.0:_ZN5ixion13formula_errorD2Ev
libixion-0.18.so.0:_ZN5ixion13formula_tokenC1ENS_18formula_function_tE
libixion-0.18.so.0:_ZN5ixion13formula_tokenC1ENS_9fopcode_tE
libixion-0.18.so.0:_ZN5ixion13formula_tokenC1ENSt7__cxx1112basic_stringIcSt11char_traitsIcESaIcEEE
libixion-0.18.so.0:_ZN5ixion13formula_tokenC1EOS0_
libixion-0.18.so.0:_ZN5ixion13formula_tokenC1ERKNS_7range_tE
libixion-0.18.so.0:_ZN5ixion13formula_tokenC1ERKNS_7table_tE
libixion-0.18.so.0:_ZN5ixion13formula_tokenC1ERKNS_9address_tE
libixion-0.18.so.0:_ZN5ixion13formula_tokenC1ERKS0_
libixion-0.18.so.0:_ZN5ixion13formula_tokenC1Ed
libixion-0.18.so.0:_ZN5ixion13formula_tokenC1Ej
libixion-0.18.so.0:_ZN5ixion13formula_tokenC2ENS_18formula_function_tE
libixion-0.18.so.0:_ZN5ixion13formula_tokenC2ENS_9fopcode_tE
libixion-0.18.so.0:_ZN5ixion13formula_tokenC2ENSt7__cxx1112basic_stringIcSt11char_traitsIcESaIcEEE
libixion-0.18.so.0:_ZN5ixion13formula_tokenC2EOS0_
libixion-0.18.so.0:_ZN5ixion13formula_tokenC2ERKNS_7range_tE
libixion-0.18.so.0:_ZN5ixion13formula_tokenC2ERKNS_7table_tE
libixion-0.18.so.0:_ZN5ixion13formula_tokenC2ERKNS_9address_tE
libixion-0.18.so.0:_ZN5ixion13formula_tokenC2ERKS0_
libixion-0.18.so.0:_ZN5ixion13formula_tokenC2Ed
libixion-0.18.so.0:_ZN5ixion13formula_tokenC2Ej
libixion-0.18.so.0:_ZN5ixion13formula_tokenD1Ev
libixion-0.18.so.0:_ZN5ixion13formula_tokenD2Ev
libixion-0.18.so.0:_ZN5ixion13general_error11set_messageERKNSt7__cxx1112basic_stringIcSt11char_traitsIcESaIcEEE
libixion-0.18.so.0:_ZN5ixion13general_errorC1ERKNSt7__cxx1112basic_stringIcSt11char_traitsIcESaIcEEE
libixion-0.18.so.0:_ZN5ixion13general_errorC1Ev
libixion-0.18.so.0:_ZN5ixion13general_errorC2ERKNSt7__cxx1112basic_stringIcSt11char_traitsIcESaIcEEE
libixion-0.18.so.0:_ZN5ixion13general_errorC2Ev
libixion-0.18.so.0:_ZN5ixion13general_errorD0Ev
libixion-0.18.so.0:_ZN5ixion13general_errorD1Ev
libixion-0.18.so.0:_ZN5ixion13general_errorD2Ev
libixion-0.18.so.0:_ZN5ixion13invalid_sheetE
libixion-0.18.so.0:_ZN5ixion13model_context10add_stringESt17basic_string_viewIcSt11char_traitsIcEE
libixion-0.18.so.0:_ZN5ixion13model_context10empty_cellERKNS_13abs_address_tE
libixion-0.18.so.0:_ZN5ixion13model_context10input_cellC1EDn
libixion-0.18.so.0:_ZN5ixion13model_context10input_cellC1EPKc
libixion-0.18.so.0:_ZN5ixion13model_context10input_cellC1ERKS1_
libixion-0.18.so.0:_ZN5ixion13model_context10input_cellC1Eb
libixion-0.18.so.0:_ZN5ixion13model_context10input_cellC1Ed
libixion-0.18.so.0:_ZN5ixion13model_context10input_cellC2EDn
libixion-0.18.so.0:_ZN5ixion13model_context10input_cellC2EPKc
libixion-0.18.so.0:_ZN5ixion13model_context10input_cellC2ERKS1_
libixion-0.18.so.0:_ZN5ixion13model_context10input_cellC2Eb
libixion-0.18.so.0:_ZN5ixion13model_context10input_cellC2Ed
libixion-0.18.so.0:_ZN5ixion13model_context10set_configERKNS_6configE
libixion-0.18.so.0:_ZN5ixion13model_context12append_sheetENSt7__cxx1112basic_stringIcSt11char_traitsIcESaIcEEE
libixion-0.18.so.0:_ZN5ixion13model_context13append_stringESt17basic_string_viewIcSt11char_traitsIcEE
libixion-0.18.so.0:_ZN5ixion13model_context14set_sheet_sizeERKNS_9rc_size_tE
libixion-0.18.so.0:_ZN5ixion13model_context15fill_down_cellsERKNS_13abs_address_tEm
libixion-0.18.so.0:_ZN5ixion13model_context15set_cell_valuesEiSt16initializer_listINS0_9input_rowEE
libixion-0.18.so.0:_ZN5ixion13model_context15set_string_cellERKNS_13abs_address_tESt17basic_string_viewIcSt11char_traitsIcEE
libixion-0.18.so.0:_ZN5ixion13model_context15set_string_cellERKNS_13abs_address_tEj
libixion-0.18.so.0:_ZN5ixion13model_context16get_cell_trackerEv
libixion-0.18.so.0:_ZN5ixion13model_context16get_formula_cellERKNS_13abs_address_tE
libixion-0.18.so.0:_ZN5ixion13model_context16set_boolean_cellERKNS_13abs_address_tEb
libixion-0.18.so.0:_ZN5ixion13model_context16set_formula_cellERKNS_13abs_address_tERKN5boost13intrusive_ptrINS_20formula_tokens_storeEEE
libixion-0.18.so.0:_ZN5ixion13model_context16set_formula_cellERKNS_13abs_address_tERKN5boost13intrusive_ptrINS_20formula_tokens_storeEEENS_14formula_resultE
libixion-0.18.so.0:_ZN5ixion13model_context16set_formula_cellERKNS_13abs_address_tESt6vectorINS_13formula_tokenESaIS5_EE
libixion-0.18.so.0:_ZN5ixion13model_context16set_numeric_cellERKNS_13abs_address_tEd
libixion-0.18.so.0:_ZN5ixion13model_context17get_table_handlerEv
libixion-0.18.so.0:_ZN5ixion13model_context17set_table_handlerEPNS_5iface13table_handlerE
libixion-0.18.so.0:_ZN5ixion13model_context20set_named_expressionENSt7__cxx1112basic_stringIcSt11char_traitsIcESaIcEEERKNS_13abs_address_tESt6vectorINS_13formula_tokenESaISB_EE
libixion-0.18.so.0:_ZN5ixion13model_context20set_named_expressionENSt7__cxx1112basic_stringIcSt11char_traitsIcESaIcEEESt6vectorINS_13formula_tokenESaIS8_EE
libixion-0.18.so.0:_ZN5ixion13model_context20set_named_expressionEiNSt7__cxx1112basic_stringIcSt11char_traitsIcESaIcEEERKNS_13abs_address_tESt6vectorINS_13formula_tokenESaISB_EE
libixion-0.18.so.0:_ZN5ixion13model_context20set_named_expressionEiNSt7__cxx1112basic_stringIcSt11char_traitsIcESaIcEEESt6vectorINS_13formula_tokenESaIS8_EE
libixion-0.18.so.0:_ZN5ixion13model_context22create_session_handlerEv
libixion-0.18.so.0:_ZN5ixion13model_context23session_handler_factory6createEv
libixion-0.18.so.0:_ZN5ixion13model_context23session_handler_factoryD0Ev
libixion-0.18.so.0:_ZN5ixion13model_context23session_handler_factoryD1Ev
libixion-0.18.so.0:_ZN5ixion13model_context23session_handler_factoryD2Ev
libixion-0.18.so.0:_ZN5ixion13model_context25set_grouped_formula_cellsERKNS_11abs_range_tESt6vectorINS_13formula_tokenESaIS5_EE
libixion-0.18.so.0:_ZN5ixion13model_context25set_grouped_formula_cellsERKNS_11abs_range_tESt6vectorINS_13formula_tokenESaIS5_EENS_14formula_resultE
libixion-0.18.so.0:_ZN5ixion13model_context27set_session_handler_factoryEPNS0_23session_handler_factoryE
libixion-0.18.so.0:_ZN5ixion13model_context6notifyENS_15formula_event_tE
libixion-0.18.so.0:_ZN5ixion13model_context9input_rowC1ESt16initializer_listINS0_10input_cellEE
libixion-0.18.so.0:_ZN5ixion13model_context9input_rowC2ESt16initializer_listINS0_10input_cellEE
libixion-0.18.so.0:_ZN5ixion13model_contextC1ERKNS_9rc_size_tE
libixion-0.18.so.0:_ZN5ixion13model_contextC1Ev
libixion-0.18.so.0:_ZN5ixion13model_contextC2ERKNS_9rc_size_tE
libixion-0.18.so.0:_ZN5ixion13model_contextC2Ev
libixion-0.18.so.0:_ZN5ixion13model_contextD1Ev
libixion-0.18.so.0:_ZN5ixion13model_contextD2Ev
libixion-0.18.so.0:_ZN5ixion14abs_rc_range_t12set_all_rowsEv
libixion-0.18.so.0:_ZN5ixion14abs_rc_range_t15set_all_columnsEv
libixion-0.18.so.0:_ZN5ixion14abs_rc_range_tC1ENS0_12init_invalidE
libixion-0.18.so.0:_ZN5ixion14abs_rc_range_tC1ERKNS_11abs_range_tE
libixion-0.18.so.0:_ZN5ixion14abs_rc_range_tC1ERKS0_
libixion-0.18.so.0:_ZN5ixion14abs_rc_range_tC1Ev
libixion-0.18.so.0:_ZN5ixion14abs_rc_range_tC2ENS0_12init_invalidE
libixion-0.18.so.0:_ZN5ixion14abs_rc_range_tC2ERKNS_11abs_range_tE
libixion-0.18.so.0:_ZN5ixion14abs_rc_range_tC2ERKS0_
libixion-0.18.so.0:_ZN5ixion14abs_rc_range_tC2Ev
libixion-0.18.so.0:_ZN5ixion14file_not_foundC1ERKNSt7__cxx1112basic_stringIcSt11char_traitsIcESaIcEEE
libixion-0.18.so.0:_ZN5ixion14file_not_foundC2ERKNSt7__cxx1112basic_stringIcSt11char_traitsIcESaIcEEE
libixion-0.18.so.0:_ZN5ixion14file_not_foundD0Ev
libixion-0.18.so.0:_ZN5ixion14file_not_foundD1Ev
libixion-0.18.so.0:_ZN5ixion14file_not_foundD2Ev
libixion-0.18.so.0:_ZN5ixion14formula_name_tC1Ev
libixion-0.18.so.0:_ZN5ixion14formula_name_tC2Ev
libixion-0.18.so.0:_ZN5ixion14formula_result10get_matrixEv
libixion-0.18.so.0:_ZN5ixion14formula_result10set_matrixENS_6matrixE
libixion-0.18.so.0:_ZN5ixion14formula_result11set_booleanEb
libixion-0.18.so.0:_ZN5ixion14formula_result16set_string_valueENSt7__cxx1112basic_stringIcSt11char_traitsIcESaIcEEE
libixion-0.18.so.0:_ZN5ixion14formula_result5parseESt17basic_string_viewIcSt11char_traitsIcEE
libixion-0.18.so.0:_ZN5ixion14formula_result5resetEv
libixion-0.18.so.0:_ZN5ixion14formula_result9set_errorENS_15formula_error_tE
libixion-0.18.so.0:_ZN5ixion14formula_result9set_valueEd
libixion-0.18.so.0:_ZN5ixion14formula_resultC1ENS_15formula_error_tE
libixion-0.18.so.0:_ZN5ixion14formula_resultC1ENS_6matrixE
libixion-0.18.so.0:_ZN5ixion14formula_resultC1ENSt7__cxx1112basic_stringIcSt11char_traitsIcESaIcEEE
libixion-0.18.so.0:_ZN5ixion14formula_resultC1EOS0_
libixion-0.18.so.0:_ZN5ixion14formula_resultC1ERKS0_
libixion-0.18.so.0:_ZN5ixion14formula_resultC1Eb
libixion-0.18.so.0:_ZN5ixion14formula_resultC1Ed
libixion-0.18.so.0:_ZN5ixion14formula_resultC1Ev
libixion-0.18.so.0:_ZN5ixion14formula_resultC2ENS_15formula_error_tE
libixion-0.18.so.0:_ZN5ixion14formula_resultC2ENS_6matrixE
libixion-0.18.so.0:_ZN5ixion14formula_resultC2ENSt7__cxx1112basic_stringIcSt11char_traitsIcESaIcEEE
libixion-0.18.so.0:_ZN5ixion14formula_resultC2EOS0_
libixion-0.18.so.0:_ZN5ixion14formula_resultC2ERKS0_
libixion-0.18.so.0:_ZN5ixion14formula_resultC2Eb
libixion-0.18.so.0:_ZN5ixion14formula_resultC2Ed
libixion-0.18.so.0:_ZN5ixion14formula_resultC2Ev
libixion-0.18.so.0:_ZN5ixion14formula_resultD1Ev
libixion-0.18.so.0:_ZN5ixion14formula_resultD2Ev
libixion-0.18.so.0:_ZN5ixion14formula_resultaSES0_
libixion-0.18.so.0:_ZN5ixion14is_valid_sheetEi
libixion-0.18.so.0:_ZN5ixion14model_iterator4cellC1Eii
libixion-0.18.so.0:_ZN5ixion14model_iterator4cellC1EiiPKNS_12formula_cellE
libixion-0.18.so.0:_ZN5ixion14model_iterator4cellC1Eiib
libixion-0.18.so.0:_ZN5ixion14model_iterator4cellC1Eiid
libixion-0.18.so.0:_ZN5ixion14model_iterator4cellC1Eiij
libixion-0.18.so.0:_ZN5ixion14model_iterator4cellC1Ev
libixion-0.18.so.0:_ZN5ixion14model_iterator4cellC2Eii
libixion-0.18.so.0:_ZN5ixion14model_iterator4cellC2EiiPKNS_12formula_cellE
libixion-0.18.so.0:_ZN5ixion14model_iterator4cellC2Eiib
libixion-0.18.so.0:_ZN5ixion14model_iterator4cellC2Eiid
libixion-0.18.so.0:_ZN5ixion14model_iterator4cellC2Eiij
libixion-0.18.so.0:_ZN5ixion14model_iterator4cellC2Ev
libixion-0.18.so.0:_ZN5ixion14model_iterator4nextEv
libixion-0.18.so.0:_ZN5ixion14model_iteratorC1EOS0_
libixion-0.18.so.0:_ZN5ixion14model_iteratorC1ERKNS_6detail18model_context_implEiRKNS_14abs_rc_range_tENS_14rc_direction_tE
libixion-0.18.so.0:_ZN5ixion14model_iteratorC1Ev
libixion-0.18.so.0:_ZN5ixion14model_iteratorC2EOS0_
libixion-0.18.so.0:_ZN5ixion14model_iteratorC2ERKNS_6detail18model_context_implEiRKNS_14abs_rc_range_tENS_14rc_direction_tE
libixion-0.18.so.0:_ZN5ixion14model_iteratorC2Ev
libixion-0.18.so.0:_ZN5ixion14model_iteratorD1Ev
libixion-0.18.so.0:_ZN5ixion14model_iteratorD2Ev
libixion-0.18.so.0:_ZN5ixion14model_iteratoraSEOS0_
libixion-0.18.so.0:_ZN5ixion14numeric_matrix4swapERS0_
libixion-0.18.so.0:_ZN5ixion14numeric_matrixC1EOS0_
libixion-0.18.so.0:_ZN5ixion14numeric_matrixC1ESt6vectorIdSaIdEEmm
libixion-0.18.so.0:_ZN5ixion14numeric_matrixC1Emm
libixion-0.18.so.0:_ZN5ixion14numeric_matrixC1Ev
libixion-0.18.so.0:_ZN5ixion14numeric_matrixC2EOS0_
libixion-0.18.so.0:_ZN5ixion14numeric_matrixC2ESt6vectorIdSaIdEEmm
libixion-0.18.so.0:_ZN5ixion14numeric_matrixC2Emm
libixion-0.18.so.0:_ZN5ixion14numeric_matrixC2Ev
libixion-0.18.so.0:_ZN5ixion14numeric_matrixD1Ev
libixion-0.18.so.0:_ZN5ixion14numeric_matrixD2Ev
libixion-0.18.so.0:_ZN5ixion14numeric_matrixaSES0_
libixion-0.18.so.0:_ZN5ixion14numeric_matrixclEmm
libixion-0.18.so.0:_ZN5ixion15empty_string_idE
libixion-0.18.so.0:_ZN5ixion15formula_group_tC1ERKNS_9rc_size_tEmb
libixion-0.18.so.0:_ZN5ixion15formula_group_tC1ERKS0_
libixion-0.18.so.0:_ZN5ixion15formula_group_tC1Ev
libixion-0.18.so.0:_ZN5ixion15formula_group_tC2ERKNS_9rc_size_tEmb
libixion-0.18.so.0:_ZN5ixion15formula_group_tC2ERKS0_
libixion-0.18.so.0:_ZN5ixion15formula_group_tC2Ev
libixion-0.18.so.0:_ZN5ixion15formula_group_tD1Ev
libixion-0.18.so.0:_ZN5ixion15formula_group_tD2Ev
libixion-0.18.so.0:_ZN5ixion15formula_group_taSERKS0_
libixion-0.18.so.0:_ZN5ixion15get_opcode_nameENS_9fopcode_tE
libixion-0.18.so.0:_ZN5ixion15row_upper_boundE
libixion-0.18.so.0:_ZN5ixion16abs_rc_address_tC1ENS0_12init_invalidE
libixion-0.18.so.0:_ZN5ixion16abs_rc_address_tC1ERKNS_13abs_address_tE
libixion-0.18.so.0:_ZN5ixion16abs_rc_address_tC1ERKS0_
libixion-0.18.so.0:_ZN5ixion16abs_rc_address_tC1Eii
libixion-0.18.so.0:_ZN5ixion16abs_rc_address_tC1Ev
libixion-0.18.so.0:_ZN5ixion16abs_rc_address_tC2ENS0_12init_invalidE
libixion-0.18.so.0:_ZN5ixion16abs_rc_address_tC2ERKNS_13abs_address_tE
libixion-0.18.so.0:_ZN5ixion16abs_rc_address_tC2ERKS0_
libixion-0.18.so.0:_ZN5ixion16abs_rc_address_tC2Eii
libixion-0.18.so.0:_ZN5ixion16abs_rc_address_tC2Ev
libixion-0.18.so.0:_ZN5ixion16get_current_timeEv
libixion-0.18.so.0:_ZN5ixion17get_version_majorEv
libixion-0.18.so.0:_ZN5ixion17get_version_microEv
libixion-0.18.so.0:_ZN5ixion17get_version_minorEv
libixion-0.18.so.0:_ZN5ixion17query_dirty_cellsERNS_13model_contextERKSt13unordered_setINS_13abs_address_tENS3_4hashESt8equal_toIS3_ESaIS3_EE
libixion-0.18.so.0:_ZN5ixion18column_upper_boundE
libixion-0.18.so.0:_ZN5ixion18dirty_cell_tracker12add_volatileERKNS_11abs_range_tE
libixion-0.18.so.0:_ZN5ixion18dirty_cell_tracker15remove_volatileERKNS_11abs_range_tE
libixion-0.18.so.0:_ZN5ixion18dirty_cell_tracker3addERKNS_11abs_range_tES3_
libixion-0.18.so.0:_ZN5ixion18dirty_cell_tracker6removeERKNS_11abs_range_tES3_
libixion-0.18.so.0:_ZN5ixion18dirty_cell_trackerC1Ev
libixion-0.18.so.0:_ZN5ixion18dirty_cell_trackerC2Ev
libixion-0.18.so.0:_ZN5ixion18dirty_cell_trackerD1Ev
libixion-0.18.so.0:_ZN5ixion18dirty_cell_trackerD2Ev
libixion-0.18.so.0:_ZN5ixion18named_expression_tC1EOS0_
libixion-0.18.so.0:_ZN5ixion18named_expression_tC1ERKNS_13abs_address_tESt6vectorINS_13formula_tokenESaIS5_EE
libixion-0.18.so.0:_ZN5ixion18named_expression_tC1Ev
libixion-0.18.so.0:_ZN5ixion18named_expression_tC2EOS0_
libixion-0.18.so.0:_ZN5ixion18named_expression_tC2ERKNS_13abs_address_tESt6vectorINS_13formula_tokenESaIS5_EE
libixion-0.18.so.0:_ZN5ixion18named_expression_tC2Ev
libixion-0.18.so.0:_ZN5ixion18named_expression_tD1Ev
libixion-0.18.so.0:_ZN5ixion18named_expression_tD2Ev
libixion-0.18.so.0:_ZN5ixion19model_context_errorC1ERKNSt7__cxx1112basic_stringIcSt11char_traitsIcESaIcEEENS0_10error_typeE
libixion-0.18.so.0:_ZN5ixion19model_context_errorC2ERKNSt7__cxx1112basic_stringIcSt11char_traitsIcESaIcEEENS0_10error_typeE
libixion-0.18.so.0:_ZN5ixion19model_context_errorD0Ev
libixion-0.18.so.0:_ZN5ixion19model_context_errorD1Ev
libixion-0.18.so.0:_ZN5ixion19model_context_errorD2Ev
libixion-0.18.so.0:_ZN5ixion19print_formula_tokenB5cxx11ERKNS_13model_contextERKNS_13abs_address_tERKNS_21formula_name_resolverERKNS_13formula_tokenE
libixion-0.18.so.0:_ZN5ixion20abs_address_iterator14const_iteratorC1EOS1_
libixion-0.18.so.0:_ZN5ixion20abs_address_iterator14const_iteratorC1ERKNS_11abs_range_tENS_14rc_direction_tEb
libixion-0.18.so.0:_ZN5ixion20abs_address_iterator14const_iteratorC1ERKS1_
libixion-0.18.so.0:_ZN5ixion20abs_address_iterator14const_iteratorC1Ev
libixion-0.18.so.0:_ZN5ixion20abs_address_iterator14const_iteratorC2EOS1_
libixion-0.18.so.0:_ZN5ixion20abs_address_iterator14const_iteratorC2ERKNS_11abs_range_tENS_14rc_direction_tEb
libixion-0.18.so.0:_ZN5ixion20abs_address_iterator14const_iteratorC2ERKS1_
libixion-0.18.so.0:_ZN5ixion20abs_address_iterator14const_iteratorC2Ev
libixion-0.18.so.0:_ZN5ixion20abs_address_iterator14const_iteratorD1Ev
libixion-0.18.so.0:_ZN5ixion20abs_address_iterator14const_iteratorD2Ev
libixion-0.18.so.0:_ZN5ixion20abs_address_iterator14const_iteratormmEi
libixion-0.18.so.0:_ZN5ixion20abs_address_iterator14const_iteratormmEv
libixion-0.18.so.0:_ZN5ixion20abs_address_iterator14const_iteratorppEi
libixion-0.18.so.0:_ZN5ixion20abs_address_iterator14const_iteratorppEv
libixion-0.18.so.0:_ZN5ixion20abs_address_iteratorC1ERKNS_11abs_range_tENS_14rc_direction_tE
libixion-0.18.so.0:_ZN5ixion20abs_address_iteratorC2ERKNS_11abs_range_tENS_14rc_direction_tE
libixion-0.18.so.0:_ZN5ixion20abs_address_iteratorD1Ev
libixion-0.18.so.0:_ZN5ixion20abs_address_iteratorD2Ev
libixion-0.18.so.0:_ZN5ixion20column_block_shape_tC1ERKS0_
libixion-0.18.so.0:_ZN5ixion20column_block_shape_tC1EmmmNS_14column_block_tEPv
libixion-0.18.so.0:_ZN5ixion20column_block_shape_tC1Ev
libixion-0.18.so.0:_ZN5ixion20column_block_shape_tC2ERKS0_
libixion-0.18.so.0:_ZN5ixion20column_block_shape_tC2EmmmNS_14column_block_tEPv
libixion-0.18.so.0:_ZN5ixion20column_block_shape_tC2Ev
libixion-0.18.so.0:_ZN5ixion20column_block_shape_taSERKS0_
libixion-0.18.so.0:_ZN5ixion20formula_tokens_store11release_refEv
libixion-0.18.so.0:_ZN5ixion20formula_tokens_store3getEv
libixion-0.18.so.0:_ZN5ixion20formula_tokens_store6createEv
libixion-0.18.so.0:_ZN5ixion20formula_tokens_store7add_refEv
libixion-0.18.so.0:_ZN5ixion20formula_tokens_storeC1Ev
libixion-0.18.so.0:_ZN5ixion20formula_tokens_storeC2Ev
libixion-0.18.so.0:_ZN5ixion20formula_tokens_storeD1Ev
libixion-0.18.so.0:_ZN5ixion20formula_tokens_storeD2Ev
libixion-0.18.so.0:_ZN5ixion20parse_formula_stringERNS_13model_contextERKNS_13abs_address_tERKNS_21formula_name_resolverESt17basic_string_viewIcSt11char_traitsIcEE
libixion-0.18.so.0:_ZN5ixion20print_formula_tokensB5cxx11ERKNS_13model_contextERKNS_13abs_address_tERKNS_21formula_name_resolverERKSt6vectorINS_13formula_tokenESaISA_EE
libixion-0.18.so.0:_ZN5ixion21formula_name_resolver3getENS_23formula_name_resolver_tEPKNS_13model_contextE
libixion-0.18.so.0:_ZN5ixion21get_api_version_majorEv
libixion-0.18.so.0:_ZN5ixion21get_api_version_minorEv
libixion-0.18.so.0:_ZN5ixion21not_implemented_errorC1ERKNSt7__cxx1112basic_stringIcSt11char_traitsIcESaIcEEE
libixion-0.18.so.0:_ZN5ixion21not_implemented_errorC2ERKNSt7__cxx1112basic_stringIcSt11char_traitsIcESaIcEEE
libixion-0.18.so.0:_ZN5ixion21not_implemented_errorD0Ev
libixion-0.18.so.0:_ZN5ixion21not_implemented_errorD1Ev
libixion-0.18.so.0:_ZN5ixion21not_implemented_errorD2Ev
libixion-0.18.so.0:_ZN5ixion21register_formula_cellERNS_13model_contextERKNS_13abs_address_tEPKNS_12formula_cellE
libixion-0.18.so.0:_ZN5ixion21to_formula_error_typeESt17basic_string_viewIcSt11char_traitsIcEE
libixion-0.18.so.0:_ZN5ixion22calculate_sorted_cellsERNS_13model_contextERKSt6vectorINS_11abs_range_tESaIS3_EEm
libixion-0.18.so.0:_ZN5ixion22get_formula_error_nameENS_15formula_error_tE
libixion-0.18.so.0:_ZN5ixion23unregister_formula_cellERNS_13model_contextERKNS_13abs_address_tE
libixion-0.18.so.0:_ZN5ixion25get_formula_function_nameENS_18formula_function_tE
libixion-0.18.so.0:_ZN5ixion25get_formula_opcode_stringENS_9fopcode_tE
libixion-0.18.so.0:_ZN5ixion26formula_registration_errorC1ERKNSt7__cxx1112basic_stringIcSt11char_traitsIcESaIcEEE
libixion-0.18.so.0:_ZN5ixion26formula_registration_errorC2ERKNSt7__cxx1112basic_stringIcSt11char_traitsIcESaIcEEE
libixion-0.18.so.0:_ZN5ixion26formula_registration_errorD0Ev
libixion-0.18.so.0:_ZN5ixion26formula_registration_errorD1Ev
libixion-0.18.so.0:_ZN5ixion26formula_registration_errorD2Ev
libixion-0.18.so.0:_ZN5ixion26named_expressions_iterator4nextEv
libixion-0.18.so.0:_ZN5ixion26named_expressions_iteratorC1ERKNS_13model_contextEi
libixion-0.18.so.0:_ZN5ixion26named_expressions_iteratorC1ERKS0_
libixion-0.18.so.0:_ZN5ixion26named_expressions_iteratorC1Ev
libixion-0.18.so.0:_ZN5ixion26named_expressions_iteratorC2ERKNS_13model_contextEi
libixion-0.18.so.0:_ZN5ixion26named_expressions_iteratorC2ERKS0_
libixion-0.18.so.0:_ZN5ixion26named_expressions_iteratorC2Ev
libixion-0.18.so.0:_ZN5ixion26named_expressions_iteratorD1Ev
libixion-0.18.so.0:_ZN5ixion26named_expressions_iteratorD2Ev
libixion-0.18.so.0:_ZN5ixion26named_expressions_iteratoraSERKS0_
libixion-0.18.so.0:_ZN5ixion26query_and_sort_dirty_cellsERNS_13model_contextERKSt13unordered_setINS_11abs_range_tENS3_4hashESt8equal_toIS3_ESaIS3_EEPS9_
libixion-0.18.so.0:_ZN5ixion27create_formula_error_tokensERNS_13model_contextESt17basic_string_viewIcSt11char_traitsIcEES5_
libixion-0.18.so.0:_ZN5ixion27get_formula_function_opcodeESt17basic_string_viewIcSt11char_traitsIcEE
libixion-0.18.so.0:_ZN5ixion5draft12init_modulesEv
libixion-0.18.so.0:_ZN5ixion5draft13unload_moduleEPv
libixion-0.18.so.0:_ZN5ixion5draft14compute_engine17compute_fibonacciERNS0_5arrayE
libixion-0.18.so.0:_ZN5ixion5draft14compute_engine6createESt17basic_string_viewIcSt11char_traitsIcEE
libixion-0.18.so.0:_ZN5ixion5draft14compute_engine9add_classEPvSt17basic_string_viewIcSt11char_traitsIcEEPFPS1_vEPFvPKS1_E
libixion-0.18.so.0:_ZN5ixion5draft14compute_engineC1Ev
libixion-0.18.so.0:_ZN5ixion5draft14compute_engineC2Ev
libixion-0.18.so.0:_ZN5ixion5draft14compute_engineD0Ev
libixion-0.18.so.0:_ZN5ixion5draft14compute_engineD1Ev
libixion-0.18.so.0:_ZN5ixion5draft14compute_engineD2Ev
libixion-0.18.so.0:_ZN5ixion5iface13table_handlerD0Ev
libixion-0.18.so.0:_ZN5ixion5iface13table_handlerD1Ev
libixion-0.18.so.0:_ZN5ixion5iface13table_handlerD2Ev
libixion-0.18.so.0:_ZN5ixion5iface15session_handlerD0Ev
libixion-0.18.so.0:_ZN5ixion5iface15session_handlerD1Ev
libixion-0.18.so.0:_ZN5ixion5iface15session_handlerD2Ev
libixion-0.18.so.0:_ZN5ixion6configC1ERKS0_
libixion-0.18.so.0:_ZN5ixion6configC1Ev
libixion-0.18.so.0:_ZN5ixion6configC2ERKS0_
libixion-0.18.so.0:_ZN5ixion6configC2Ev
libixion-0.18.so.0:_ZN5ixion6matrix3setEmmNS_15formula_error_tE
libixion-0.18.so.0:_ZN5ixion6matrix3setEmmRKNSt7__cxx1112basic_stringIcSt11char_traitsIcESaIcEEE
libixion-0.18.so.0:_ZN5ixion6matrix3setEmmb
libixion-0.18.so.0:_ZN5ixion6matrix3setEmmd
libixion-0.18.so.0:_ZN5ixion6matrix4swapERS0_
libixion-0.18.so.0:_ZN5ixion6matrixC1EOS0_
libixion-0.18.so.0:_ZN5ixion6matrixC1ERKNS_14numeric_matrixE
libixion-0.18.so.0:_ZN5ixion6matrixC1ERKS0_
libixion-0.18.so.0:_ZN5ixion6matrixC1Emm
libixion-0.18.so.0:_ZN5ixion6matrixC1EmmNS_15formula_error_tE
libixion-0.18.so.0:_ZN5ixion6matrixC1EmmRKNSt7__cxx1112basic_stringIcSt11char_traitsIcESaIcEEE
libixion-0.18.so.0:_ZN5ixion6matrixC1Emmb
libixion-0.18.so.0:_ZN5ixion6matrixC1Emmd
libixion-0.18.so.0:_ZN5ixion6matrixC1Ev
libixion-0.18.so.0:_ZN5ixion6matrixC2EOS0_
libixion-0.18.so.0:_ZN5ixion6matrixC2ERKNS_14numeric_matrixE
libixion-0.18.so.0:_ZN5ixion6matrixC2ERKS0_
libixion-0.18.so.0:_ZN5ixion6matrixC2Emm
libixion-0.18.so.0:_ZN5ixion6matrixC2EmmNS_15formula_error_tE
libixion-0.18.so.0:_ZN5ixion6matrixC2EmmRKNSt7__cxx1112basic_stringIcSt11char_traitsIcESaIcEEE
libixion-0.18.so.0:_ZN5ixion6matrixC2Emmb
libixion-0.18.so.0:_ZN5ixion6matrixC2Emmd
libixion-0.18.so.0:_ZN5ixion6matrixC2Ev
libixion-0.18.so.0:_ZN5ixion6matrixD1Ev
libixion-0.18.so.0:_ZN5ixion6matrixD2Ev
libixion-0.18.so.0:_ZN5ixion6matrixaSES0_
libixion-0.18.so.0:_ZN5ixion7range_t12set_absoluteEb
libixion-0.18.so.0:_ZN5ixion7range_t12set_all_rowsEv
libixion-0.18.so.0:_ZN5ixion7range_t15set_all_columnsEv
libixion-0.18.so.0:_ZN5ixion7range_tC1ERKNS_11abs_range_tE
libixion-0.18.so.0:_ZN5ixion7range_tC1ERKNS_9address_tES3_
libixion-0.18.so.0:_ZN5ixion7range_tC1ERKS0_
libixion-0.18.so.0:_ZN5ixion7range_tC1Ev
libixion-0.18.so.0:_ZN5ixion7range_tC2ERKNS_11abs_range_tE
libixion-0.18.so.0:_ZN5ixion7range_tC2ERKNS_9address_tES3_
libixion-0.18.so.0:_ZN5ixion7range_tC2ERKS0_
libixion-0.18.so.0:_ZN5ixion7range_tC2Ev
libixion-0.18.so.0:_ZN5ixion7table_tC1Ev
libixion-0.18.so.0:_ZN5ixion7table_tC2Ev
libixion-0.18.so.0:_ZN5ixion7to_boolESt17basic_string_viewIcSt11char_traitsIcEE
libixion-0.18.so.0:_ZN5ixion8document10empty_cellENS0_8cell_posE
libixion-0.18.so.0:_ZN5ixion8document12append_sheetENSt7__cxx1112basic_stringIcSt11char_traitsIcESaIcEEE
libixion-0.18.so.0:_ZN5ixion8document15set_string_cellENS0_8cell_posESt17basic_string_viewIcSt11char_traitsIcEE
libixion-0.18.so.0:_ZN5ixion8document16set_boolean_cellENS0_8cell_posEb
libixion-0.18.so.0:_ZN5ixion8document16set_formula_cellENS0_8cell_posESt17basic_string_viewIcSt11char_traitsIcEE
libixion-0.18.so.0:_ZN5ixion8document16set_numeric_cellENS0_8cell_posEd
libixion-0.18.so.0:_ZN5ixion8document8cell_posC1EPKc
libixion-0.18.so.0:_ZN5ixion8document8cell_posC1EPKcm
libixion-0.18.so.0:_ZN5ixion8document8cell_posC1ERKNS_13abs_address_tE
libixion-0.18.so.0:_ZN5ixion8document8cell_posC1ERKNSt7__cxx1112basic_stringIcSt11char_traitsIcESaIcEEE
libixion-0.18.so.0:_ZN5ixion8document8cell_posC2EPKc
libixion-0.18.so.0:_ZN5ixion8document8cell_posC2EPKcm
libixion-0.18.so.0:_ZN5ixion8document8cell_posC2ERKNS_13abs_address_tE
libixion-0.18.so.0:_ZN5ixion8document8cell_posC2ERKNSt7__cxx1112basic_stringIcSt11char_traitsIcESaIcEEE
libixion-0.18.so.0:_ZN5ixion8document9calculateEm
libixion-0.18.so.0:_ZN5ixion8documentC1ENS_23formula_name_resolver_tE
libixion-0.18.so.0:_ZN5ixion8documentC1Ev
libixion-0.18.so.0:_ZN5ixion8documentC2ENS_23formula_name_resolver_tE
libixion-0.18.so.0:_ZN5ixion8documentC2Ev
libixion-0.18.so.0:_ZN5ixion8documentD1Ev
libixion-0.18.so.0:_ZN5ixion8documentD2Ev
libixion-0.18.so.0:_ZN5ixion9address_t12set_absoluteEb
libixion-0.18.so.0:_ZN5ixion9address_tC1ERKNS_13abs_address_tE
libixion-0.18.so.0:_ZN5ixion9address_tC1ERKS0_
libixion-0.18.so.0:_ZN5ixion9address_tC1Eiiibbb
libixion-0.18.so.0:_ZN5ixion9address_tC1Ev
libixion-0.18.so.0:_ZN5ixion9address_tC2ERKNS_13abs_address_tE
libixion-0.18.so.0:_ZN5ixion9address_tC2ERKS0_
libixion-0.18.so.0:_ZN5ixion9address_tC2Eiiibbb
libixion-0.18.so.0:_ZN5ixion9address_tC2Ev
libixion-0.18.so.0:_ZN5ixion9rc_size_tC1ERKS0_
libixion-0.18.so.0:_ZN5ixion9rc_size_tC1Eii
libixion-0.18.so.0:_ZN5ixion9rc_size_tC1Ev
libixion-0.18.so.0:_ZN5ixion9rc_size_tC2ERKS0_
libixion-0.18.so.0:_ZN5ixion9rc_size_tC2Eii
libixion-0.18.so.0:_ZN5ixion9rc_size_tC2Ev
libixion-0.18.so.0:_ZN5ixion9rc_size_tD1Ev
libixion-0.18.so.0:_ZN5ixion9rc_size_tD2Ev
libixion-0.18.so.0:_ZN5ixion9rc_size_taSERKS0_
libixion-0.18.so.0:_ZN5ixion9row_unsetE
libixion-0.18.so.0:_ZN5ixion9to_doubleESt17basic_string_viewIcSt11char_traitsIcEE
libixion-0.18.so.0:_ZN5ixioneqERKNS_11abs_range_tES2_
libixion-0.18.so.0:_ZN5ixioneqERKNS_13abs_address_tES2_
libixion-0.18.so.0:_ZN5ixioneqERKNS_14abs_rc_range_tES2_
libixion-0.18.so.0:_ZN5ixioneqERKNS_16abs_rc_address_tES2_
libixion-0.18.so.0:_ZN5ixioneqERKNS_7range_tES2_
libixion-0.18.so.0:_ZN5ixioneqERKNS_9address_tES2_
libixion-0.18.so.0:_ZN5ixionlsERSoNS_14formula_result11result_typeE
libixion-0.18.so.0:_ZN5ixionlsERSoRKNS_11abs_range_tE
libixion-0.18.so.0:_ZN5ixionlsERSoRKNS_13abs_address_tE
libixion-0.18.so.0:_ZN5ixionlsERSoRKNS_13formula_tokenE
libixion-0.18.so.0:_ZN5ixionlsERSoRKNS_14abs_rc_range_tE
libixion-0.18.so.0:_ZN5ixionlsERSoRKNS_14model_iterator4cellE
libixion-0.18.so.0:_ZN5ixionlsERSoRKNS_16abs_rc_address_tE
libixion-0.18.so.0:_ZN5ixionlsERSoRKNS_20column_block_shape_tE
libixion-0.18.so.0:_ZN5ixionlsERSoRKNS_7range_tE
libixion-0.18.so.0:_ZN5ixionlsERSoRKNS_7table_tE
libixion-0.18.so.0:_ZN5ixionlsERSoRKNS_9address_tE
libixion-0.18.so.0:_ZN5ixionltERKNS_11abs_range_tES2_
libixion-0.18.so.0:_ZN5ixionltERKNS_13abs_address_tES2_
libixion-0.18.so.0:_ZN5ixionltERKNS_14abs_rc_range_tES2_
libixion-0.18.so.0:_ZN5ixionltERKNS_16abs_rc_address_tES2_
libixion-0.18.so.0:_ZN5ixionltERKNS_9address_tES2_
libixion-0.18.so.0:_ZN5ixionneERKNS_11abs_range_tES2_
libixion-0.18.so.0:_ZN5ixionneERKNS_13abs_address_tES2_
libixion-0.18.so.0:_ZN5ixionneERKNS_14abs_rc_range_tES2_
libixion-0.18.so.0:_ZN5ixionneERKNS_16abs_rc_address_tES2_
libixion-0.18.so.0:_ZN5ixionneERKNS_7range_tES2_
libixion-0.18.so.0:_ZN5ixionneERKNS_9address_tES2_
libixion-0.18.so.0:_ZNK5ixion11abs_range_t11all_columnsEv
libixion-0.18.so.0:_ZNK5ixion11abs_range_t4hashclERKS0_
libixion-0.18.so.0:_ZNK5ixion11abs_range_t5validEv
libixion-0.18.so.0:_ZNK5ixion11abs_range_t8all_rowsEv
libixion-0.18.so.0:_ZNK5ixion11abs_range_t8containsERKNS_13abs_address_tE
libixion-0.18.so.0:_ZNK5ixion11cell_access14get_value_typeEv
libixion-0.18.so.0:_ZNK5ixion11cell_access15get_error_valueEv
libixion-0.18.so.0:_ZNK5ixion11cell_access16get_formula_cellEv
libixion-0.18.so.0:_ZNK5ixion11cell_access16get_string_valueEv
libixion-0.18.so.0:_ZNK5ixion11cell_access17get_boolean_valueEv
libixion-0.18.so.0:_ZNK5ixion11cell_access17get_numeric_valueEv
libixion-0.18.so.0:_ZNK5ixion11cell_access18get_formula_resultEv
libixion-0.18.so.0:_ZNK5ixion11cell_access21get_string_identifierEv
libixion-0.18.so.0:_ZNK5ixion11cell_access8get_typeEv
libixion-0.18.so.0:_ZNK5ixion12formula_cell10get_stringENS_28formula_result_wait_policy_tE
libixion-0.18.so.0:_ZNK5ixion12formula_cell10get_tokensEv
libixion-0.18.so.0:_ZNK5ixion12formula_cell14get_ref_tokensERKNS_13model_contextERKNS_13abs_address_tE
libixion-0.18.so.0:_ZNK5ixion12formula_cell16get_result_cacheENS_28formula_result_wait_policy_tE
libixion-0.18.so.0:_ZNK5ixion12formula_cell19get_parent_positionERKNS_13abs_address_tE
libixion-0.18.so.0:_ZNK5ixion12formula_cell20get_group_propertiesEv
libixion-0.18.so.0:_ZNK5ixion12formula_cell20get_raw_result_cacheENS_28formula_result_wait_policy_tE
libixion-0.18.so.0:_ZNK5ixion12formula_cell9get_valueENS_28formula_result_wait_policy_tE
libixion-0.18.so.0:_ZNK5ixion12rc_address_t4hashclERKS0_
libixion-0.18.so.0:_ZNK5ixion13abs_address_t4hashclERKS0_
libixion-0.18.so.0:_ZNK5ixion13abs_address_t5validEv
libixion-0.18.so.0:_ZNK5ixion13abs_address_t8get_nameB5cxx11Ev
libixion-0.18.so.0:_ZNK5ixion13formula_error4whatEv
libixion-0.18.so.0:_ZNK5ixion13formula_error9get_errorEv
libixion-0.18.so.0:_ZNK5ixion13formula_tokeneqERKS0_
libixion-0.18.so.0:_ZNK5ixion13formula_tokenneERKS0_
libixion-0.18.so.0:_ZNK5ixion13general_error4whatEv
libixion-0.18.so.0:_ZNK5ixion13model_context10get_configEv
libixion-0.18.so.0:_ZNK5ixion13model_context10get_stringB5cxx11Ej
libixion-0.18.so.0:_ZNK5ixion13model_context11count_rangeERKNS_11abs_range_tENS_8values_tE
libixion-0.18.so.0:_ZNK5ixion13model_context12dump_stringsEv
libixion-0.18.so.0:_ZNK5ixion13model_context12get_celltypeERKNS_13abs_address_tE
libixion-0.18.so.0:_ZNK5ixion13model_context14get_data_rangeEi
libixion-0.18.so.0:_ZNK5ixion13model_context14get_sheet_nameB5cxx11Ei
libixion-0.18.so.0:_ZNK5ixion13model_context14get_sheet_sizeEv
libixion-0.18.so.0:_ZNK5ixion13model_context15get_cell_accessERKNS_13abs_address_tE
libixion-0.18.so.0:_ZNK5ixion13model_context15get_range_valueERKNS_11abs_range_tE
libixion-0.18.so.0:_ZNK5ixion13model_context15get_sheet_countEv
libixion-0.18.so.0:_ZNK5ixion13model_context15get_sheet_indexESt17basic_string_viewIcSt11char_traitsIcEE
libixion-0.18.so.0:_ZNK5ixion13model_context16get_cell_trackerEv
libixion-0.18.so.0:_ZNK5ixion13model_context16get_formula_cellERKNS_13abs_address_tE
libixion-0.18.so.0:_ZNK5ixion13model_context16get_string_countEv
libixion-0.18.so.0:_ZNK5ixion13model_context16get_string_valueERKNS_13abs_address_tE
libixion-0.18.so.0:_ZNK5ixion13model_context17get_boolean_valueERKNS_13abs_address_tE
libixion-0.18.so.0:_ZNK5ixion13model_context17get_numeric_valueERKNS_13abs_address_tE
libixion-0.18.so.0:_ZNK5ixion13model_context17get_table_handlerEv
libixion-0.18.so.0:_ZNK5ixion13model_context18get_formula_resultERKNS_13abs_address_tE
libixion-0.18.so.0:_ZNK5ixion13model_context18get_model_iteratorEiNS_14rc_direction_tERKNS_14abs_rc_range_tE
libixion-0.18.so.0:_ZNK5ixion13model_context19get_cell_value_typeERKNS_13abs_address_tE
libixion-0.18.so.0:_ZNK5ixion13model_context20get_named_expressionEiSt17basic_string_viewIcSt11char_traitsIcEE
libixion-0.18.so.0:_ZNK5ixion13model_context21get_string_identifierERKNS_13abs_address_tE
libixion-0.18.so.0:_ZNK5ixion13model_context26get_identifier_from_stringESt17basic_string_viewIcSt11char_traitsIcEE
libixion-0.18.so.0:_ZNK5ixion13model_context30get_formula_result_wait_policyEv
libixion-0.18.so.0:_ZNK5ixion13model_context30get_named_expressions_iteratorEi
libixion-0.18.so.0:_ZNK5ixion13model_context30get_named_expressions_iteratorEv
libixion-0.18.so.0:_ZNK5ixion13model_context4walkEiRKNS_14abs_rc_range_tESt8functionIFbiiiRKNS_20column_block_shape_tEEE
libixion-0.18.so.0:_ZNK5ixion13model_context5emptyEv
libixion-0.18.so.0:_ZNK5ixion13model_context8is_emptyERKNS_11abs_range_tE
libixion-0.18.so.0:_ZNK5ixion13model_context8is_emptyERKNS_13abs_address_tE
libixion-0.18.so.0:_ZNK5ixion13model_context9input_row5cellsEv
libixion-0.18.so.0:_ZNK5ixion14abs_rc_range_t11all_columnsEv
libixion-0.18.so.0:_ZNK5ixion14abs_rc_range_t4hashclERKS0_
libixion-0.18.so.0:_ZNK5ixion14abs_rc_range_t5validEv
libixion-0.18.so.0:_ZNK5ixion14abs_rc_range_t8all_rowsEv
libixion-0.18.so.0:_ZNK5ixion14abs_rc_range_t8containsERKNS_16abs_rc_address_tE
libixion-0.18.so.0:_ZNK5ixion14formula_name_t9to_stringB5cxx11Ev
libixion-0.18.so.0:_ZNK5ixion14formula_result10get_matrixEv
libixion-0.18.so.0:_ZNK5ixion14formula_result10get_stringB5cxx11Ev
libixion-0.18.so.0:_ZNK5ixion14formula_result11get_booleanEv
libixion-0.18.so.0:_ZNK5ixion14formula_result3strB5cxx11ERKNS_13model_contextE
libixion-0.18.so.0:_ZNK5ixion14formula_result8get_typeEv
libixion-0.18.so.0:_ZNK5ixion14formula_result9get_errorEv
libixion-0.18.so.0:_ZNK5ixion14formula_result9get_valueEv
libixion-0.18.so.0:_ZNK5ixion14formula_resulteqERKS0_
libixion-0.18.so.0:_ZNK5ixion14formula_resultneERKS0_
libixion-0.18.so.0:_ZNK5ixion14model_iterator3getEv
libixion-0.18.so.0:_ZNK5ixion14model_iterator3hasEv
libixion-0.18.so.0:_ZNK5ixion14model_iterator4celleqERKS1_
libixion-0.18.so.0:_ZNK5ixion14model_iterator4cellneERKS1_
libixion-0.18.so.0:_ZNK5ixion14numeric_matrix8col_sizeEv
libixion-0.18.so.0:_ZNK5ixion14numeric_matrix8row_sizeEv
libixion-0.18.so.0:_ZNK5ixion14numeric_matrixclEmm
libixion-0.18.so.0:_ZNK5ixion16abs_rc_address_t4hashclERKS0_
libixion-0.18.so.0:_ZNK5ixion16abs_rc_address_t5validEv
libixion-0.18.so.0:_ZNK5ixion18dirty_cell_tracker17query_dirty_cellsERKNS_11abs_range_tE
libixion-0.18.so.0:_ZNK5ixion18dirty_cell_tracker17query_dirty_cellsERKSt13unordered_setINS_11abs_range_tENS2_4hashESt8equal_toIS2_ESaIS2_EE
libixion-0.18.so.0:_ZNK5ixion18dirty_cell_tracker26query_and_sort_dirty_cellsERKNS_11abs_range_tE
libixion-0.18.so.0:_ZNK5ixion18dirty_cell_tracker26query_and_sort_dirty_cellsERKSt13unordered_setINS_11abs_range_tENS2_4hashESt8equal_toIS2_ESaIS2_EEPS8_
libixion-0.18.so.0:_ZNK5ixion18dirty_cell_tracker5emptyEv
libixion-0.18.so.0:_ZNK5ixion18dirty_cell_tracker9to_stringB5cxx11Ev
libixion-0.18.so.0:_ZNK5ixion19model_context_error14get_error_typeEv
libixion-0.18.so.0:_ZNK5ixion20abs_address_iterator14const_iteratordeEv
libixion-0.18.so.0:_ZNK5ixion20abs_address_iterator14const_iteratoreqERKS1_
libixion-0.18.so.0:_ZNK5ixion20abs_address_iterator14const_iteratorneERKS1_
libixion-0.18.so.0:_ZNK5ixion20abs_address_iterator14const_iteratorptEv
libixion-0.18.so.0:_ZNK5ixion20abs_address_iterator3endEv
libixion-0.18.so.0:_ZNK5ixion20abs_address_iterator4cendEv
libixion-0.18.so.0:_ZNK5ixion20abs_address_iterator5beginEv
libixion-0.18.so.0:_ZNK5ixion20abs_address_iterator6cbeginEv
libixion-0.18.so.0:_ZNK5ixion20formula_tokens_store19get_reference_countEv
libixion-0.18.so.0:_ZNK5ixion20formula_tokens_store3getEv
libixion-0.18.so.0:_ZNK5ixion26named_expressions_iterator3getEv
libixion-0.18.so.0:_ZNK5ixion26named_expressions_iterator3hasEv
libixion-0.18.so.0:_ZNK5ixion26named_expressions_iterator4sizeEv
libixion-0.18.so.0:_ZNK5ixion5draft14compute_engine8get_nameEv
libixion-0.18.so.0:_ZNK5ixion6matrix10as_numericEv
libixion-0.18.so.0:_ZNK5ixion6matrix10is_numericEmm
libixion-0.18.so.0:_ZNK5ixion6matrix10is_numericEv
libixion-0.18.so.0:_ZNK5ixion6matrix11get_booleanEmm
libixion-0.18.so.0:_ZNK5ixion6matrix11get_numericEmm
libixion-0.18.so.0:_ZNK5ixion6matrix3getEmm
libixion-0.18.so.0:_ZNK5ixion6matrix8col_sizeEv
libixion-0.18.so.0:_ZNK5ixion6matrix8row_sizeEv
libixion-0.18.so.0:_ZNK5ixion6matrixeqERKS0_
libixion-0.18.so.0:_ZNK5ixion6matrixneERKS0_
libixion-0.18.so.0:_ZNK5ixion7range_t11all_columnsEv
libixion-0.18.so.0:_ZNK5ixion7range_t4hashclERKS0_
libixion-0.18.so.0:_ZNK5ixion7range_t5validEv
libixion-0.18.so.0:_ZNK5ixion7range_t6to_absERKNS_13abs_address_tE
libixion-0.18.so.0:_ZNK5ixion7range_t8all_rowsEv
libixion-0.18.so.0:_ZNK5ixion7table_teqERKS0_
libixion-0.18.so.0:_ZNK5ixion7table_tneERKS0_
libixion-0.18.so.0:_ZNK5ixion8document15get_cell_accessENS0_8cell_posE
libixion-0.18.so.0:_ZNK5ixion8document16get_string_valueENS0_8cell_posE
libixion-0.18.so.0:_ZNK5ixion8document17get_numeric_valueENS0_8cell_posE
libixion-0.18.so.0:_ZNK5ixion9address_t4hashclERKS0_
libixion-0.18.so.0:_ZNK5ixion9address_t5validEv
libixion-0.18.so.0:_ZNK5ixion9address_t6to_absERKNS_13abs_address_tE
libixion-0.18.so.0:_ZNK5ixion9address_t8get_nameB5cxx11Ev
