libkdecorations3.so.6:_Z5qHashRKN12KDecoration320DecorationButtonTypeEm
libkdecorations3.so.6:_ZN12KDecoration310Decoration10setBordersERK9QMarginsF
libkdecorations3.so.6:_ZN12KDecoration310Decoration10wheelEventEP11QWheelEvent
libkdecorations3.so.6:_ZN12KDecoration310Decoration11createStateEv
libkdecorations3.so.6:_ZN12KDecoration310Decoration11qt_metacallEN11QMetaObject4CallEiPPv
libkdecorations3.so.6:_ZN12KDecoration310Decoration11qt_metacastEPKc
libkdecorations3.so.6:_ZN12KDecoration310Decoration11setSettingsERKSt10shared_ptrINS_18DecorationSettingsEE
libkdecorations3.so.6:_ZN12KDecoration310Decoration11setTitleBarERK6QRectF
libkdecorations3.so.6:_ZN12KDecoration310Decoration12requestCloseEv
libkdecorations3.so.6:_ZN12KDecoration310Decoration13opaqueChangedEb
libkdecorations3.so.6:_ZN12KDecoration310Decoration13setBlurRegionERK7QRegion
libkdecorations3.so.6:_ZN12KDecoration310Decoration13shadowChangedERKSt10shared_ptrINS_16DecorationShadowEE
libkdecorations3.so.6:_ZN12KDecoration310Decoration14bordersChangedEv
libkdecorations3.so.6:_ZN12KDecoration310Decoration14hoverMoveEventEP11QHoverEvent
libkdecorations3.so.6:_ZN12KDecoration310Decoration14mouseMoveEventEP11QMouseEvent
libkdecorations3.so.6:_ZN12KDecoration310Decoration15hoverEnterEventEP11QHoverEvent
libkdecorations3.so.6:_ZN12KDecoration310Decoration15hoverLeaveEventEP11QHoverEvent
libkdecorations3.so.6:_ZN12KDecoration310Decoration15mousePressEventEP11QMouseEvent
libkdecorations3.so.6:_ZN12KDecoration310Decoration15requestMinimizeEv
libkdecorations3.so.6:_ZN12KDecoration310Decoration15setBorderRadiusERKNS_12BorderRadiusE
libkdecorations3.so.6:_ZN12KDecoration310Decoration15titleBarChangedEv
libkdecorations3.so.6:_ZN12KDecoration310Decoration16nextStateChangedESt10shared_ptrINS_15DecorationStateEE
libkdecorations3.so.6:_ZN12KDecoration310Decoration16setBorderOutlineERKNS_13BorderOutlineE
libkdecorations3.so.6:_ZN12KDecoration310Decoration16staticMetaObjectE
libkdecorations3.so.6:_ZN12KDecoration310Decoration17blurRegionChangedEv
libkdecorations3.so.6:_ZN12KDecoration310Decoration17mouseReleaseEventEP11QMouseEvent
libkdecorations3.so.6:_ZN12KDecoration310Decoration18requestContextHelpEv
libkdecorations3.so.6:_ZN12KDecoration310Decoration18requestHideToolTipEv
libkdecorations3.so.6:_ZN12KDecoration310Decoration18requestShowToolTipERK7QString
libkdecorations3.so.6:_ZN12KDecoration310Decoration18requestToggleShadeEv
libkdecorations3.so.6:_ZN12KDecoration310Decoration19borderRadiusChangedEv
libkdecorations3.so.6:_ZN12KDecoration310Decoration19currentStateChangedESt10shared_ptrINS_15DecorationStateEE
libkdecorations3.so.6:_ZN12KDecoration310Decoration19showApplicationMenuEi
libkdecorations3.so.6:_ZN12KDecoration310Decoration20borderOutlineChangedEv
libkdecorations3.so.6:_ZN12KDecoration310Decoration20setResizeOnlyBordersERK9QMarginsF
libkdecorations3.so.6:_ZN12KDecoration310Decoration21requestShowWindowMenuERK5QRect
libkdecorations3.so.6:_ZN12KDecoration310Decoration21requestShowWindowMenuEv
libkdecorations3.so.6:_ZN12KDecoration310Decoration22requestToggleKeepAboveEv
libkdecorations3.so.6:_ZN12KDecoration310Decoration22requestToggleKeepBelowEv
libkdecorations3.so.6:_ZN12KDecoration310Decoration24resizeOnlyBordersChangedEv
libkdecorations3.so.6:_ZN12KDecoration310Decoration24sectionUnderMouseChangedEN2Qt18WindowFrameSectionE
libkdecorations3.so.6:_ZN12KDecoration310Decoration25requestToggleMaximizationE6QFlagsIN2Qt11MouseButtonEE
libkdecorations3.so.6:_ZN12KDecoration310Decoration26requestShowApplicationMenuERK5QRecti
libkdecorations3.so.6:_ZN12KDecoration310Decoration26requestToggleOnAllDesktopsEv
libkdecorations3.so.6:_ZN12KDecoration310Decoration5applyESt10shared_ptrINS_15DecorationStateEE
libkdecorations3.so.6:_ZN12KDecoration310Decoration5eventEP6QEvent
libkdecorations3.so.6:_ZN12KDecoration310Decoration5popupERKNS_10PositionerEP5QMenu
libkdecorations3.so.6:_ZN12KDecoration310Decoration6createEv
libkdecorations3.so.6:_ZN12KDecoration310Decoration6updateERK6QRectF
libkdecorations3.so.6:_ZN12KDecoration310Decoration6updateEv
libkdecorations3.so.6:_ZN12KDecoration310Decoration7damagedERK7QRegion
libkdecorations3.so.6:_ZN12KDecoration310Decoration8setStateESt8functionIFvPNS_15DecorationStateEEE
libkdecorations3.so.6:_ZN12KDecoration310Decoration9setOpaqueEb
libkdecorations3.so.6:_ZN12KDecoration310Decoration9setShadowERKSt10shared_ptrINS_16DecorationShadowEE
libkdecorations3.so.6:_ZN12KDecoration310DecorationC2EP7QObjectRK5QListI8QVariantE
libkdecorations3.so.6:_ZN12KDecoration310DecorationD0Ev
libkdecorations3.so.6:_ZN12KDecoration310DecorationD1Ev
libkdecorations3.so.6:_ZN12KDecoration310DecorationD2Ev
libkdecorations3.so.6:_ZN12KDecoration310Positioner13setAnchorRectERK6QRectF
libkdecorations3.so.6:_ZN12KDecoration310PositionerC1ERKS0_
libkdecorations3.so.6:_ZN12KDecoration310PositionerC1Ev
libkdecorations3.so.6:_ZN12KDecoration310PositionerC2ERKS0_
libkdecorations3.so.6:_ZN12KDecoration310PositionerC2Ev
libkdecorations3.so.6:_ZN12KDecoration310PositionerD1Ev
libkdecorations3.so.6:_ZN12KDecoration310PositionerD2Ev
libkdecorations3.so.6:_ZN12KDecoration312BorderRadiusC1Ed
libkdecorations3.so.6:_ZN12KDecoration312BorderRadiusC1Edddd
libkdecorations3.so.6:_ZN12KDecoration312BorderRadiusC1Ev
libkdecorations3.so.6:_ZN12KDecoration312BorderRadiusC2Ed
libkdecorations3.so.6:_ZN12KDecoration312BorderRadiusC2Edddd
libkdecorations3.so.6:_ZN12KDecoration312BorderRadiusC2Ev
libkdecorations3.so.6:_ZN12KDecoration313BorderOutlineC1EdRK6QColorRKNS_12BorderRadiusE
libkdecorations3.so.6:_ZN12KDecoration313BorderOutlineC1Ev
libkdecorations3.so.6:_ZN12KDecoration313BorderOutlineC2EdRK6QColorRKNS_12BorderRadiusE
libkdecorations3.so.6:_ZN12KDecoration313BorderOutlineC2Ev
libkdecorations3.so.6:_ZN12KDecoration315DecoratedWindow11iconChangedE5QIcon
libkdecorations3.so.6:_ZN12KDecoration315DecoratedWindow11qt_metacallEN11QMetaObject4CallEiPPv
libkdecorations3.so.6:_ZN12KDecoration315DecoratedWindow11qt_metacastEPKc
libkdecorations3.so.6:_ZN12KDecoration315DecoratedWindow11sizeChangedERK6QSizeF
libkdecorations3.so.6:_ZN12KDecoration315DecoratedWindow12scaleChangedEv
libkdecorations3.so.6:_ZN12KDecoration315DecoratedWindow12widthChangedEd
libkdecorations3.so.6:_ZN12KDecoration315DecoratedWindow13activeChangedEb
libkdecorations3.so.6:_ZN12KDecoration315DecoratedWindow13heightChangedEd
libkdecorations3.so.6:_ZN12KDecoration315DecoratedWindow13shadedChangedEb
libkdecorations3.so.6:_ZN12KDecoration315DecoratedWindow14captionChangedE7QString
libkdecorations3.so.6:_ZN12KDecoration315DecoratedWindow14paletteChangedERK8QPalette
libkdecorations3.so.6:_ZN12KDecoration315DecoratedWindow15moveableChangedEb
libkdecorations3.so.6:_ZN12KDecoration315DecoratedWindow16closeableChangedEb
libkdecorations3.so.6:_ZN12KDecoration315DecoratedWindow16keepAboveChangedEb
libkdecorations3.so.6:_ZN12KDecoration315DecoratedWindow16keepBelowChangedEb
libkdecorations3.so.6:_ZN12KDecoration315DecoratedWindow16maximizedChangedEb
libkdecorations3.so.6:_ZN12KDecoration315DecoratedWindow16nextScaleChangedEv
libkdecorations3.so.6:_ZN12KDecoration315DecoratedWindow16shadeableChangedEb
libkdecorations3.so.6:_ZN12KDecoration315DecoratedWindow16staticMetaObjectE
libkdecorations3.so.6:_ZN12KDecoration315DecoratedWindow17resizeableChangedEb
libkdecorations3.so.6:_ZN12KDecoration315DecoratedWindow19maximizeableChangedEb
libkdecorations3.so.6:_ZN12KDecoration315DecoratedWindow19minimizeableChangedEb
libkdecorations3.so.6:_ZN12KDecoration315DecoratedWindow19showApplicationMenuEi
libkdecorations3.so.6:_ZN12KDecoration315DecoratedWindow20onAllDesktopsChangedEb
libkdecorations3.so.6:_ZN12KDecoration315DecoratedWindow22applicationMenuChangedEv
libkdecorations3.so.6:_ZN12KDecoration315DecoratedWindow25hasApplicationMenuChangedEb
libkdecorations3.so.6:_ZN12KDecoration315DecoratedWindow26adjacentScreenEdgesChangedE6QFlagsIN2Qt4EdgeEE
libkdecorations3.so.6:_ZN12KDecoration315DecoratedWindow26maximizedVerticallyChangedEb
libkdecorations3.so.6:_ZN12KDecoration315DecoratedWindow26providesContextHelpChangedEb
libkdecorations3.so.6:_ZN12KDecoration315DecoratedWindow28applicationMenuActiveChangedEb
libkdecorations3.so.6:_ZN12KDecoration315DecoratedWindow28maximizedHorizontallyChangedEb
libkdecorations3.so.6:_ZN12KDecoration315DecoratedWindowC1EPNS_10DecorationEPNS_16DecorationBridgeE
libkdecorations3.so.6:_ZN12KDecoration315DecoratedWindowC2EPNS_10DecorationEPNS_16DecorationBridgeE
libkdecorations3.so.6:_ZN12KDecoration315DecoratedWindowD0Ev
libkdecorations3.so.6:_ZN12KDecoration315DecoratedWindowD1Ev
libkdecorations3.so.6:_ZN12KDecoration315DecoratedWindowD2Ev
libkdecorations3.so.6:_ZN12KDecoration315DecorationState10setBordersERK9QMarginsF
libkdecorations3.so.6:_ZN12KDecoration315DecorationState15setBorderRadiusERKNS_12BorderRadiusE
libkdecorations3.so.6:_ZN12KDecoration315DecorationState16setBorderOutlineERKNS_13BorderOutlineE
libkdecorations3.so.6:_ZN12KDecoration315DecorationStateC1ERKS0_
libkdecorations3.so.6:_ZN12KDecoration315DecorationStateC1Ev
libkdecorations3.so.6:_ZN12KDecoration315DecorationStateC2ERKS0_
libkdecorations3.so.6:_ZN12KDecoration315DecorationStateC2Ev
libkdecorations3.so.6:_ZN12KDecoration315DecorationStateD0Ev
libkdecorations3.so.6:_ZN12KDecoration315DecorationStateD1Ev
libkdecorations3.so.6:_ZN12KDecoration315DecorationStateD2Ev
libkdecorations3.so.6:_ZN12KDecoration316DecorationButton10setCheckedEb
libkdecorations3.so.6:_ZN12KDecoration316DecorationButton10setEnabledEb
libkdecorations3.so.6:_ZN12KDecoration316DecorationButton10setVisibleEb
libkdecorations3.so.6:_ZN12KDecoration316DecorationButton10wheelEventEP11QWheelEvent
libkdecorations3.so.6:_ZN12KDecoration316DecorationButton11pointerLeftEv
libkdecorations3.so.6:_ZN12KDecoration316DecorationButton11qt_metacallEN11QMetaObject4CallEiPPv
libkdecorations3.so.6:_ZN12KDecoration316DecorationButton11qt_metacastEPKc
libkdecorations3.so.6:_ZN12KDecoration316DecorationButton11setGeometryERK6QRectF
libkdecorations3.so.6:_ZN12KDecoration316DecorationButton12setCheckableEb
libkdecorations3.so.6:_ZN12KDecoration316DecorationButton13doubleClickedEv
libkdecorations3.so.6:_ZN12KDecoration316DecorationButton14checkedChangedEb
libkdecorations3.so.6:_ZN12KDecoration316DecorationButton14enabledChangedEb
libkdecorations3.so.6:_ZN12KDecoration316DecorationButton14hoverMoveEventEP11QHoverEvent
libkdecorations3.so.6:_ZN12KDecoration316DecorationButton14hoveredChangedEb
libkdecorations3.so.6:_ZN12KDecoration316DecorationButton14mouseMoveEventEP11QMouseEvent
libkdecorations3.so.6:_ZN12KDecoration316DecorationButton14pointerEnteredEv
libkdecorations3.so.6:_ZN12KDecoration316DecorationButton14pressedChangedEb
libkdecorations3.so.6:_ZN12KDecoration316DecorationButton15geometryChangedERK6QRectF
libkdecorations3.so.6:_ZN12KDecoration316DecorationButton15hoverEnterEventEP11QHoverEvent
libkdecorations3.so.6:_ZN12KDecoration316DecorationButton15hoverLeaveEventEP11QHoverEvent
libkdecorations3.so.6:_ZN12KDecoration316DecorationButton15mousePressEventEP11QMouseEvent
libkdecorations3.so.6:_ZN12KDecoration316DecorationButton16checkableChangedEb
libkdecorations3.so.6:_ZN12KDecoration316DecorationButton16staticMetaObjectE
libkdecorations3.so.6:_ZN12KDecoration316DecorationButton17mouseReleaseEventEP11QMouseEvent
libkdecorations3.so.6:_ZN12KDecoration316DecorationButton17visibilityChangedEb
libkdecorations3.so.6:_ZN12KDecoration316DecorationButton18setAcceptedButtonsE6QFlagsIN2Qt11MouseButtonEE
libkdecorations3.so.6:_ZN12KDecoration316DecorationButton22acceptedButtonsChangedE6QFlagsIN2Qt11MouseButtonEE
libkdecorations3.so.6:_ZN12KDecoration316DecorationButton5eventEP6QEvent
libkdecorations3.so.6:_ZN12KDecoration316DecorationButton6updateERK6QRectF
libkdecorations3.so.6:_ZN12KDecoration316DecorationButton6updateEv
libkdecorations3.so.6:_ZN12KDecoration316DecorationButton7clickedEN2Qt11MouseButtonE
libkdecorations3.so.6:_ZN12KDecoration316DecorationButton7pressedEv
libkdecorations3.so.6:_ZN12KDecoration316DecorationButton8releasedEv
libkdecorations3.so.6:_ZN12KDecoration316DecorationButtonC2ENS_20DecorationButtonTypeEPNS_10DecorationEP7QObject
libkdecorations3.so.6:_ZN12KDecoration316DecorationButtonD0Ev
libkdecorations3.so.6:_ZN12KDecoration316DecorationButtonD1Ev
libkdecorations3.so.6:_ZN12KDecoration316DecorationButtonD2Ev
libkdecorations3.so.6:_ZN12KDecoration316DecorationShadow10setPaddingERK9QMarginsF
libkdecorations3.so.6:_ZN12KDecoration316DecorationShadow11qt_metacallEN11QMetaObject4CallEiPPv
libkdecorations3.so.6:_ZN12KDecoration316DecorationShadow11qt_metacastEPKc
libkdecorations3.so.6:_ZN12KDecoration316DecorationShadow13shadowChangedERK6QImage
libkdecorations3.so.6:_ZN12KDecoration316DecorationShadow14paddingChangedEv
libkdecorations3.so.6:_ZN12KDecoration316DecorationShadow16staticMetaObjectE
libkdecorations3.so.6:_ZN12KDecoration316DecorationShadow18setInnerShadowRectERK6QRectF
libkdecorations3.so.6:_ZN12KDecoration316DecorationShadow22innerShadowRectChangedEv
libkdecorations3.so.6:_ZN12KDecoration316DecorationShadow9setShadowERK6QImage
libkdecorations3.so.6:_ZN12KDecoration316DecorationShadowC1Ev
libkdecorations3.so.6:_ZN12KDecoration316DecorationShadowC2Ev
libkdecorations3.so.6:_ZN12KDecoration316DecorationShadowD0Ev
libkdecorations3.so.6:_ZN12KDecoration316DecorationShadowD1Ev
libkdecorations3.so.6:_ZN12KDecoration316DecorationShadowD2Ev
libkdecorations3.so.6:_ZN12KDecoration318DecorationSettings11fontChangedERK5QFont
libkdecorations3.so.6:_ZN12KDecoration318DecorationSettings11qt_metacallEN11QMetaObject4CallEiPPv
libkdecorations3.so.6:_ZN12KDecoration318DecorationSettings11qt_metacastEPKc
libkdecorations3.so.6:_ZN12KDecoration318DecorationSettings12reconfiguredEv
libkdecorations3.so.6:_ZN12KDecoration318DecorationSettings14spacingChangedEv
libkdecorations3.so.6:_ZN12KDecoration318DecorationSettings15gridUnitChangedEi
libkdecorations3.so.6:_ZN12KDecoration318DecorationSettings16staticMetaObjectE
libkdecorations3.so.6:_ZN12KDecoration318DecorationSettings17borderSizeChangedENS_10BorderSizeE
libkdecorations3.so.6:_ZN12KDecoration318DecorationSettings28alphaChannelSupportedChangedEb
libkdecorations3.so.6:_ZN12KDecoration318DecorationSettings28decorationButtonsLeftChangedERK5QListINS_20DecorationButtonTypeEE
libkdecorations3.so.6:_ZN12KDecoration318DecorationSettings29decorationButtonsRightChangedERK5QListINS_20DecorationButtonTypeEE
libkdecorations3.so.6:_ZN12KDecoration318DecorationSettings29onAllDesktopsAvailableChangedEb
libkdecorations3.so.6:_ZN12KDecoration318DecorationSettings31closeOnDoubleClickOnMenuChangedEb
libkdecorations3.so.6:_ZN12KDecoration318DecorationSettingsC1EPNS_16DecorationBridgeEP7QObject
libkdecorations3.so.6:_ZN12KDecoration318DecorationSettingsC2EPNS_16DecorationBridgeEP7QObject
libkdecorations3.so.6:_ZN12KDecoration318DecorationSettingsD0Ev
libkdecorations3.so.6:_ZN12KDecoration318DecorationSettingsD1Ev
libkdecorations3.so.6:_ZN12KDecoration318DecorationSettingsD2Ev
libkdecorations3.so.6:_ZN12KDecoration321DecorationButtonGroup10posChangedERK7QPointF
libkdecorations3.so.6:_ZN12KDecoration321DecorationButtonGroup10setSpacingEd
libkdecorations3.so.6:_ZN12KDecoration321DecorationButtonGroup11qt_metacallEN11QMetaObject4CallEiPPv
libkdecorations3.so.6:_ZN12KDecoration321DecorationButtonGroup11qt_metacastEPKc
libkdecorations3.so.6:_ZN12KDecoration321DecorationButtonGroup12removeButtonENS_20DecorationButtonTypeE
libkdecorations3.so.6:_ZN12KDecoration321DecorationButtonGroup12removeButtonEPNS_16DecorationButtonE
libkdecorations3.so.6:_ZN12KDecoration321DecorationButtonGroup14spacingChangedEd
libkdecorations3.so.6:_ZN12KDecoration321DecorationButtonGroup15geometryChangedERK6QRectF
libkdecorations3.so.6:_ZN12KDecoration321DecorationButtonGroup16staticMetaObjectE
libkdecorations3.so.6:_ZN12KDecoration321DecorationButtonGroup5paintEP8QPainterRK6QRectF
libkdecorations3.so.6:_ZN12KDecoration321DecorationButtonGroup6setPosERK7QPointF
libkdecorations3.so.6:_ZN12KDecoration321DecorationButtonGroup9addButtonEPNS_16DecorationButtonE
libkdecorations3.so.6:_ZN12KDecoration321DecorationButtonGroupC1ENS0_8PositionEPNS_10DecorationESt8functionIFPNS_16DecorationButtonENS_20DecorationButtonTypeES3_P7QObjectEE
libkdecorations3.so.6:_ZN12KDecoration321DecorationButtonGroupC1EPNS_10DecorationE
libkdecorations3.so.6:_ZN12KDecoration321DecorationButtonGroupC2ENS0_8PositionEPNS_10DecorationESt8functionIFPNS_16DecorationButtonENS_20DecorationButtonTypeES3_P7QObjectEE
libkdecorations3.so.6:_ZN12KDecoration321DecorationButtonGroupC2EPNS_10DecorationE
libkdecorations3.so.6:_ZN12KDecoration321DecorationButtonGroupD0Ev
libkdecorations3.so.6:_ZN12KDecoration321DecorationButtonGroupD1Ev
libkdecorations3.so.6:_ZN12KDecoration321DecorationButtonGroupD2Ev
libkdecorations3.so.6:_ZN12KDecoration323DecorationThemeMetaData11setPluginIdERK7QString
libkdecorations3.so.6:_ZN12KDecoration323DecorationThemeMetaData12setThemeNameERK7QString
libkdecorations3.so.6:_ZN12KDecoration323DecorationThemeMetaData13setBorderSizeENS_10BorderSizeE
libkdecorations3.so.6:_ZN12KDecoration323DecorationThemeMetaData14setVisibleNameERK7QString
libkdecorations3.so.6:_ZN12KDecoration323DecorationThemeMetaData20setConfigurationNameERK7QString
libkdecorations3.so.6:_ZN12KDecoration323DecorationThemeMetaDataC1ERKS0_
libkdecorations3.so.6:_ZN12KDecoration323DecorationThemeMetaDataC1Ev
libkdecorations3.so.6:_ZN12KDecoration323DecorationThemeMetaDataC2ERKS0_
libkdecorations3.so.6:_ZN12KDecoration323DecorationThemeMetaDataC2Ev
libkdecorations3.so.6:_ZN12KDecoration323DecorationThemeMetaDataD0Ev
libkdecorations3.so.6:_ZN12KDecoration323DecorationThemeMetaDataD1Ev
libkdecorations3.so.6:_ZN12KDecoration323DecorationThemeMetaDataD2Ev
libkdecorations3.so.6:_ZN12KDecoration323DecorationThemeMetaDataaSERKS0_
libkdecorations3.so.6:_ZN12KDecoration323DecorationThemeProvider11qt_metacallEN11QMetaObject4CallEiPPv
libkdecorations3.so.6:_ZN12KDecoration323DecorationThemeProvider11qt_metacastEPKc
libkdecorations3.so.6:_ZN12KDecoration323DecorationThemeProvider16staticMetaObjectE
libkdecorations3.so.6:_ZN12KDecoration323DecorationThemeProviderC2EP7QObject
libkdecorations3.so.6:_ZNK12KDecoration310Decoration10blurRegionEv
libkdecorations3.so.6:_ZNK12KDecoration310Decoration10borderLeftEv
libkdecorations3.so.6:_ZNK12KDecoration310Decoration10metaObjectEv
libkdecorations3.so.6:_ZNK12KDecoration310Decoration11borderRightEv
libkdecorations3.so.6:_ZNK12KDecoration310Decoration12borderBottomEv
libkdecorations3.so.6:_ZNK12KDecoration310Decoration12borderRadiusEv
libkdecorations3.so.6:_ZNK12KDecoration310Decoration12currentStateEv
libkdecorations3.so.6:_ZNK12KDecoration310Decoration13borderOutlineEv
libkdecorations3.so.6:_ZNK12KDecoration310Decoration17resizeOnlyBordersEv
libkdecorations3.so.6:_ZNK12KDecoration310Decoration17sectionUnderMouseEv
libkdecorations3.so.6:_ZNK12KDecoration310Decoration19resizeOnlyBorderTopEv
libkdecorations3.so.6:_ZNK12KDecoration310Decoration20resizeOnlyBorderLeftEv
libkdecorations3.so.6:_ZNK12KDecoration310Decoration21resizeOnlyBorderRightEv
libkdecorations3.so.6:_ZNK12KDecoration310Decoration22resizeOnlyBorderBottomEv
libkdecorations3.so.6:_ZNK12KDecoration310Decoration4rectEv
libkdecorations3.so.6:_ZNK12KDecoration310Decoration4sizeEv
libkdecorations3.so.6:_ZNK12KDecoration310Decoration6shadowEv
libkdecorations3.so.6:_ZNK12KDecoration310Decoration6windowEv
libkdecorations3.so.6:_ZNK12KDecoration310Decoration7bordersEv
libkdecorations3.so.6:_ZNK12KDecoration310Decoration8isOpaqueEv
libkdecorations3.so.6:_ZNK12KDecoration310Decoration8settingsEv
libkdecorations3.so.6:_ZNK12KDecoration310Decoration8titleBarEv
libkdecorations3.so.6:_ZNK12KDecoration310Decoration9borderTopEv
libkdecorations3.so.6:_ZNK12KDecoration310Decoration9nextStateEv
libkdecorations3.so.6:_ZNK12KDecoration310Positioner10anchorRectEv
libkdecorations3.so.6:_ZNK12KDecoration312BorderRadius10bottomLeftEv
libkdecorations3.so.6:_ZNK12KDecoration312BorderRadius11bottomRightEv
libkdecorations3.so.6:_ZNK12KDecoration312BorderRadius7topLeftEv
libkdecorations3.so.6:_ZNK12KDecoration312BorderRadius8topRightEv
libkdecorations3.so.6:_ZNK12KDecoration313BorderOutline5colorEv
libkdecorations3.so.6:_ZNK12KDecoration313BorderOutline6isNullEv
libkdecorations3.so.6:_ZNK12KDecoration313BorderOutline6radiusEv
libkdecorations3.so.6:_ZNK12KDecoration313BorderOutline9thicknessEv
libkdecorations3.so.6:_ZNK12KDecoration315DecoratedWindow10decorationEv
libkdecorations3.so.6:_ZNK12KDecoration315DecoratedWindow10isMoveableEv
libkdecorations3.so.6:_ZNK12KDecoration315DecoratedWindow10metaObjectEv
libkdecorations3.so.6:_ZNK12KDecoration315DecoratedWindow11isCloseableEv
libkdecorations3.so.6:_ZNK12KDecoration315DecoratedWindow11isKeepAboveEv
libkdecorations3.so.6:_ZNK12KDecoration315DecoratedWindow11isKeepBelowEv
libkdecorations3.so.6:_ZNK12KDecoration315DecoratedWindow11isMaximizedEv
libkdecorations3.so.6:_ZNK12KDecoration315DecoratedWindow11isShadeableEv
libkdecorations3.so.6:_ZNK12KDecoration315DecoratedWindow11windowClassEv
libkdecorations3.so.6:_ZNK12KDecoration315DecoratedWindow12isResizeableEv
libkdecorations3.so.6:_ZNK12KDecoration315DecoratedWindow14isMaximizeableEv
libkdecorations3.so.6:_ZNK12KDecoration315DecoratedWindow14isMinimizeableEv
libkdecorations3.so.6:_ZNK12KDecoration315DecoratedWindow15isOnAllDesktopsEv
libkdecorations3.so.6:_ZNK12KDecoration315DecoratedWindow18hasApplicationMenuEv
libkdecorations3.so.6:_ZNK12KDecoration315DecoratedWindow19adjacentScreenEdgesEv
libkdecorations3.so.6:_ZNK12KDecoration315DecoratedWindow19providesContextHelpEv
libkdecorations3.so.6:_ZNK12KDecoration315DecoratedWindow21isMaximizedVerticallyEv
libkdecorations3.so.6:_ZNK12KDecoration315DecoratedWindow23isApplicationMenuActiveEv
libkdecorations3.so.6:_ZNK12KDecoration315DecoratedWindow23isMaximizedHorizontallyEv
libkdecorations3.so.6:_ZNK12KDecoration315DecoratedWindow25applicationMenuObjectPathEv
libkdecorations3.so.6:_ZNK12KDecoration315DecoratedWindow26applicationMenuServiceNameEv
libkdecorations3.so.6:_ZNK12KDecoration315DecoratedWindow4iconEv
libkdecorations3.so.6:_ZNK12KDecoration315DecoratedWindow4sizeEv
libkdecorations3.so.6:_ZNK12KDecoration315DecoratedWindow5colorEN8QPalette10ColorGroupENS1_9ColorRoleE
libkdecorations3.so.6:_ZNK12KDecoration315DecoratedWindow5colorENS_10ColorGroupENS_9ColorRoleE
libkdecorations3.so.6:_ZNK12KDecoration315DecoratedWindow5scaleEv
libkdecorations3.so.6:_ZNK12KDecoration315DecoratedWindow5widthEv
libkdecorations3.so.6:_ZNK12KDecoration315DecoratedWindow6heightEv
libkdecorations3.so.6:_ZNK12KDecoration315DecoratedWindow7captionEv
libkdecorations3.so.6:_ZNK12KDecoration315DecoratedWindow7isModalEv
libkdecorations3.so.6:_ZNK12KDecoration315DecoratedWindow7paletteEv
libkdecorations3.so.6:_ZNK12KDecoration315DecoratedWindow8isActiveEv
libkdecorations3.so.6:_ZNK12KDecoration315DecoratedWindow8isShadedEv
libkdecorations3.so.6:_ZNK12KDecoration315DecoratedWindow9nextScaleEv
libkdecorations3.so.6:_ZNK12KDecoration315DecorationState12borderRadiusEv
libkdecorations3.so.6:_ZNK12KDecoration315DecorationState13borderOutlineEv
libkdecorations3.so.6:_ZNK12KDecoration315DecorationState5cloneEv
libkdecorations3.so.6:_ZNK12KDecoration315DecorationState7bordersEv
libkdecorations3.so.6:_ZNK12KDecoration316DecorationButton10decorationEv
libkdecorations3.so.6:_ZNK12KDecoration316DecorationButton10metaObjectEv
libkdecorations3.so.6:_ZNK12KDecoration316DecorationButton11isCheckableEv
libkdecorations3.so.6:_ZNK12KDecoration316DecorationButton15acceptedButtonsEv
libkdecorations3.so.6:_ZNK12KDecoration316DecorationButton4sizeEv
libkdecorations3.so.6:_ZNK12KDecoration316DecorationButton4typeEv
libkdecorations3.so.6:_ZNK12KDecoration316DecorationButton8containsERK7QPointF
libkdecorations3.so.6:_ZNK12KDecoration316DecorationButton8geometryEv
libkdecorations3.so.6:_ZNK12KDecoration316DecorationButton9isCheckedEv
libkdecorations3.so.6:_ZNK12KDecoration316DecorationButton9isEnabledEv
libkdecorations3.so.6:_ZNK12KDecoration316DecorationButton9isHoveredEv
libkdecorations3.so.6:_ZNK12KDecoration316DecorationButton9isPressedEv
libkdecorations3.so.6:_ZNK12KDecoration316DecorationButton9isVisibleEv
libkdecorations3.so.6:_ZNK12KDecoration316DecorationShadow10metaObjectEv
libkdecorations3.so.6:_ZNK12KDecoration316DecorationShadow10paddingTopEv
libkdecorations3.so.6:_ZNK12KDecoration316DecorationShadow11paddingLeftEv
libkdecorations3.so.6:_ZNK12KDecoration316DecorationShadow11topGeometryEv
libkdecorations3.so.6:_ZNK12KDecoration316DecorationShadow12leftGeometryEv
libkdecorations3.so.6:_ZNK12KDecoration316DecorationShadow12paddingRightEv
libkdecorations3.so.6:_ZNK12KDecoration316DecorationShadow13paddingBottomEv
libkdecorations3.so.6:_ZNK12KDecoration316DecorationShadow13rightGeometryEv
libkdecorations3.so.6:_ZNK12KDecoration316DecorationShadow14bottomGeometryEv
libkdecorations3.so.6:_ZNK12KDecoration316DecorationShadow15innerShadowRectEv
libkdecorations3.so.6:_ZNK12KDecoration316DecorationShadow15topLeftGeometryEv
libkdecorations3.so.6:_ZNK12KDecoration316DecorationShadow16topRightGeometryEv
libkdecorations3.so.6:_ZNK12KDecoration316DecorationShadow18bottomLeftGeometryEv
libkdecorations3.so.6:_ZNK12KDecoration316DecorationShadow19bottomRightGeometryEv
libkdecorations3.so.6:_ZNK12KDecoration316DecorationShadow6shadowEv
libkdecorations3.so.6:_ZNK12KDecoration316DecorationShadow7paddingEv
libkdecorations3.so.6:_ZNK12KDecoration318DecorationSettings10borderSizeEv
libkdecorations3.so.6:_ZNK12KDecoration318DecorationSettings10metaObjectEv
libkdecorations3.so.6:_ZNK12KDecoration318DecorationSettings11fontMetricsEv
libkdecorations3.so.6:_ZNK12KDecoration318DecorationSettings12largeSpacingEv
libkdecorations3.so.6:_ZNK12KDecoration318DecorationSettings12smallSpacingEv
libkdecorations3.so.6:_ZNK12KDecoration318DecorationSettings21decorationButtonsLeftEv
libkdecorations3.so.6:_ZNK12KDecoration318DecorationSettings22decorationButtonsRightEv
libkdecorations3.so.6:_ZNK12KDecoration318DecorationSettings23isAlphaChannelSupportedEv
libkdecorations3.so.6:_ZNK12KDecoration318DecorationSettings24isOnAllDesktopsAvailableEv
libkdecorations3.so.6:_ZNK12KDecoration318DecorationSettings26isCloseOnDoubleClickOnMenuEv
libkdecorations3.so.6:_ZNK12KDecoration318DecorationSettings4fontEv
libkdecorations3.so.6:_ZNK12KDecoration318DecorationSettings8gridUnitEv
libkdecorations3.so.6:_ZNK12KDecoration321DecorationButtonGroup10decorationEv
libkdecorations3.so.6:_ZNK12KDecoration321DecorationButtonGroup10metaObjectEv
libkdecorations3.so.6:_ZNK12KDecoration321DecorationButtonGroup3posEv
libkdecorations3.so.6:_ZNK12KDecoration321DecorationButtonGroup7buttonsEv
libkdecorations3.so.6:_ZNK12KDecoration321DecorationButtonGroup7spacingEv
libkdecorations3.so.6:_ZNK12KDecoration321DecorationButtonGroup8geometryEv
libkdecorations3.so.6:_ZNK12KDecoration321DecorationButtonGroup9hasButtonENS_20DecorationButtonTypeE
libkdecorations3.so.6:_ZNK12KDecoration323DecorationThemeMetaData10borderSizeEv
libkdecorations3.so.6:_ZNK12KDecoration323DecorationThemeMetaData11visibleNameEv
libkdecorations3.so.6:_ZNK12KDecoration323DecorationThemeMetaData17configurationNameEv
libkdecorations3.so.6:_ZNK12KDecoration323DecorationThemeMetaData8pluginIdEv
libkdecorations3.so.6:_ZNK12KDecoration323DecorationThemeMetaData9themeNameEv
libkdecorations3.so.6:_ZNK12KDecoration323DecorationThemeProvider10metaObjectEv
libkdecorations3.so.6:_ZTIN12KDecoration310DecorationE
libkdecorations3.so.6:_ZTIN12KDecoration315DecoratedWindowE
libkdecorations3.so.6:_ZTIN12KDecoration315DecorationStateE
libkdecorations3.so.6:_ZTIN12KDecoration316DecorationButtonE
libkdecorations3.so.6:_ZTIN12KDecoration316DecorationShadowE
libkdecorations3.so.6:_ZTIN12KDecoration318DecorationSettingsE
libkdecorations3.so.6:_ZTIN12KDecoration321DecorationButtonGroupE
libkdecorations3.so.6:_ZTIN12KDecoration323DecorationThemeMetaDataE
libkdecorations3.so.6:_ZTIN12KDecoration323DecorationThemeProviderE
libkdecorations3.so.6:_ZTSN12KDecoration310DecorationE
libkdecorations3.so.6:_ZTSN12KDecoration315DecoratedWindowE
libkdecorations3.so.6:_ZTSN12KDecoration315DecorationStateE
libkdecorations3.so.6:_ZTSN12KDecoration316DecorationButtonE
libkdecorations3.so.6:_ZTSN12KDecoration316DecorationShadowE
libkdecorations3.so.6:_ZTSN12KDecoration318DecorationSettingsE
libkdecorations3.so.6:_ZTSN12KDecoration321DecorationButtonGroupE
libkdecorations3.so.6:_ZTSN12KDecoration323DecorationThemeMetaDataE
libkdecorations3.so.6:_ZTSN12KDecoration323DecorationThemeProviderE
libkdecorations3.so.6:_ZTVN12KDecoration310DecorationE
libkdecorations3.so.6:_ZTVN12KDecoration315DecoratedWindowE
libkdecorations3.so.6:_ZTVN12KDecoration315DecorationStateE
libkdecorations3.so.6:_ZTVN12KDecoration316DecorationButtonE
libkdecorations3.so.6:_ZTVN12KDecoration316DecorationShadowE
libkdecorations3.so.6:_ZTVN12KDecoration318DecorationSettingsE
libkdecorations3.so.6:_ZTVN12KDecoration321DecorationButtonGroupE
libkdecorations3.so.6:_ZTVN12KDecoration323DecorationThemeMetaDataE
libkdecorations3.so.6:_ZTVN12KDecoration323DecorationThemeProviderE
libkdecorations3private.so.2:_ZN12KDecoration316DecorationBridge11qt_metacallEN11QMetaObject4CallEiPPv
libkdecorations3private.so.2:_ZN12KDecoration316DecorationBridge11qt_metacastEPKc
libkdecorations3private.so.2:_ZN12KDecoration316DecorationBridge16staticMetaObjectE
libkdecorations3private.so.2:_ZN12KDecoration316DecorationBridgeC2EP7QObject
libkdecorations3private.so.2:_ZN12KDecoration316DecorationBridgeD0Ev
libkdecorations3private.so.2:_ZN12KDecoration316DecorationBridgeD1Ev
libkdecorations3private.so.2:_ZN12KDecoration316DecorationBridgeD2Ev
libkdecorations3private.so.2:_ZN12KDecoration322DecoratedWindowPrivate10decorationEv
libkdecorations3private.so.2:_ZN12KDecoration322DecoratedWindowPrivate6windowEv
libkdecorations3private.so.2:_ZN12KDecoration322DecoratedWindowPrivateC2EPNS_15DecoratedWindowEPNS_10DecorationE
libkdecorations3private.so.2:_ZN12KDecoration322DecoratedWindowPrivateD0Ev
libkdecorations3private.so.2:_ZN12KDecoration322DecoratedWindowPrivateD1Ev
libkdecorations3private.so.2:_ZN12KDecoration322DecoratedWindowPrivateD2Ev
libkdecorations3private.so.2:_ZN12KDecoration324DecoratedWindowPrivateV2C2EPNS_15DecoratedWindowEPNS_10DecorationE
libkdecorations3private.so.2:_ZN12KDecoration324DecoratedWindowPrivateV3C2EPNS_15DecoratedWindowEPNS_10DecorationE
libkdecorations3private.so.2:_ZN12KDecoration325DecorationSettingsPrivate11setGridUnitEi
libkdecorations3private.so.2:_ZN12KDecoration325DecorationSettingsPrivate15setLargeSpacingEi
libkdecorations3private.so.2:_ZN12KDecoration325DecorationSettingsPrivate15setSmallSpacingEi
libkdecorations3private.so.2:_ZN12KDecoration325DecorationSettingsPrivate18decorationSettingsEv
libkdecorations3private.so.2:_ZN12KDecoration325DecorationSettingsPrivateC2EPNS_18DecorationSettingsE
libkdecorations3private.so.2:_ZN12KDecoration325DecorationSettingsPrivateD0Ev
libkdecorations3private.so.2:_ZN12KDecoration325DecorationSettingsPrivateD1Ev
libkdecorations3private.so.2:_ZN12KDecoration325DecorationSettingsPrivateD2Ev
libkdecorations3private.so.2:_ZNK12KDecoration316DecorationBridge10metaObjectEv
libkdecorations3private.so.2:_ZNK12KDecoration322DecoratedWindowPrivate10decorationEv
libkdecorations3private.so.2:_ZNK12KDecoration322DecoratedWindowPrivate5colorENS_10ColorGroupENS_9ColorRoleE
libkdecorations3private.so.2:_ZNK12KDecoration325DecorationSettingsPrivate11fontMetricsEv
libkdecorations3private.so.2:_ZNK12KDecoration325DecorationSettingsPrivate12largeSpacingEv
libkdecorations3private.so.2:_ZNK12KDecoration325DecorationSettingsPrivate12smallSpacingEv
libkdecorations3private.so.2:_ZNK12KDecoration325DecorationSettingsPrivate18decorationSettingsEv
libkdecorations3private.so.2:_ZNK12KDecoration325DecorationSettingsPrivate4fontEv
libkdecorations3private.so.2:_ZNK12KDecoration325DecorationSettingsPrivate8gridUnitEv
libkdecorations3private.so.2:_ZTIN12KDecoration316DecorationBridgeE
libkdecorations3private.so.2:_ZTIN12KDecoration322DecoratedWindowPrivateE
libkdecorations3private.so.2:_ZTIN12KDecoration325DecorationSettingsPrivateE
libkdecorations3private.so.2:_ZTSN12KDecoration316DecorationBridgeE
libkdecorations3private.so.2:_ZTSN12KDecoration322DecoratedWindowPrivateE
libkdecorations3private.so.2:_ZTSN12KDecoration325DecorationSettingsPrivateE
libkdecorations3private.so.2:_ZTVN12KDecoration316DecorationBridgeE
libkdecorations3private.so.2:_ZTVN12KDecoration322DecoratedWindowPrivateE
libkdecorations3private.so.2:_ZTVN12KDecoration325DecorationSettingsPrivateE
