UNKNOWN:_ZTI11ZLXMLReader
UNKNOWN:_ZTI12ZLOptionView
UNKNOWN:_ZTI12ZLTreeDialog
UNKNOWN:_ZTI14ZLPaintContext
UNKNOWN:_ZTI15ZLDialogContent
UNKNOWN:_ZTI15ZLDialogManager
UNKNOWN:_ZTI15ZLMessageSender
UNKNOWN:_ZTI15ZLUnixFSManager
UNKNOWN:_ZTI16ZLNetworkManager
UNKNOWN:_ZTI16ZLProgressDialog
UNKNOWN:_ZTI17ZLUnixTimeManager
UNKNOWN:_ZTI22ZLCommunicationManager
UNKNOWN:_ZTI22ZLDesktopOptionsDialog
UNKNOWN:_ZTI22ZLMessageOutputChannel
UNKNOWN:_ZTI22ZLibraryImplementation
UNKNOWN:_ZTI23ZLDesktopOpenFileDialog
UNKNOWN:_ZTI23ZLFontFamilyOptionEntry
UNKNOWN:_ZTI6ZLView
UNKNOWN:_ZTI8ZLDialog
UNKNOWN:_ZTI8ZLOption
UNKNOWN:_ZTIN16ZLNetworkRequest8ListenerE
UNKNOWN:_ZTIN19ZLApplicationWindow15VisualParameterE
UNKNOWN:_ZTV12ZLTreeDialog
UNKNOWN:_ZTV14ZLStringOption
UNKNOWN:_ZTV15ZLUnixFSManager
UNKNOWN:_ZTV16ZLNetworkRequest
UNKNOWN:_ZTV17ZLUnixTimeManager
UNKNOWN:_ZTV22ZLDesktopOptionsDialog
UNKNOWN:_ZTV23ZLDesktopOpenFileDialog
UNKNOWN:_ZTV30IConvEncodingConverterProvider
libQt5Core.so.5:_Z11qt_assert_xPKcS0_S0_i
libQt5Core.so.5:_Z13qFlagLocationPKc
libQt5Core.so.5:_Z16qt_check_pointerPKci
libQt5Core.so.5:_Z5qHashRK7QStringj
libQt5Core.so.5:_Z9qt_assertPKcS0_i
libQt5Core.so.5:_ZN10QArrayData10deallocateEPS_mm
libQt5Core.so.5:_ZN10QArrayData11shared_nullE
libQt5Core.so.5:_ZN10QArrayData8allocateEmmm6QFlagsINS_16AllocationOptionEE
libQt5Core.so.5:_ZN10QByteArray11reallocDataEj6QFlagsIN10QArrayData16AllocationOptionEE
libQt5Core.so.5:_ZN10QByteArray14toLower_helperERKS_
libQt5Core.so.5:_ZN10QByteArray6appendEPKc
libQt5Core.so.5:_ZN10QByteArray6appendERKS_
libQt5Core.so.5:_ZN10QByteArray6appendEc
libQt5Core.so.5:_ZN10QByteArrayC1EPKci
libQt5Core.so.5:_ZN10QByteArrayaSERKS_
libQt5Core.so.5:_ZN10QEventLoop4execE6QFlagsINS_17ProcessEventsFlagEE
libQt5Core.so.5:_ZN10QEventLoop4quitEv
libQt5Core.so.5:_ZN10QEventLoopC1EP7QObject
libQt5Core.so.5:_ZN10QEventLoopD1Ev
libQt5Core.so.5:_ZN10QTextCodec12codecForNameERK10QByteArray
libQt5Core.so.5:_ZN10QTextCodec17setCodecForLocaleEPS_
libQt5Core.so.5:_ZN11QMetaObject10ConnectionD1Ev
libQt5Core.so.5:_ZN11QMetaObject12invokeMethodEP7QObjectPKcN2Qt14ConnectionTypeE22QGenericReturnArgument16QGenericArgumentS7_S7_S7_S7_S7_S7_S7_S7_S7_
libQt5Core.so.5:_ZN11QMetaObject14normalizedTypeEPKc
libQt5Core.so.5:_ZN11QMetaObject8activateEP7QObjectPKS_iPPv
libQt5Core.so.5:_ZN11QThreadPool14globalInstanceEv
libQt5Core.so.5:_ZN11QThreadPool5startEP9QRunnablei
libQt5Core.so.5:_ZN12QMapDataBase10createDataEv
libQt5Core.so.5:_ZN12QMapDataBase10createNodeEiiP12QMapNodeBaseb
libQt5Core.so.5:_ZN12QMapDataBase11shared_nullE
libQt5Core.so.5:_ZN12QMapDataBase18recalcMostLeftNodeEv
libQt5Core.so.5:_ZN12QMapDataBase8freeDataEPS_
libQt5Core.so.5:_ZN12QMapDataBase8freeTreeEP12QMapNodeBasei
libQt5Core.so.5:_ZN16QCoreApplication13processEventsE6QFlagsIN10QEventLoop17ProcessEventsFlagEE
libQt5Core.so.5:_ZN16QCoreApplication18applicationDirPathEv
libQt5Core.so.5:_ZN16QCoreApplication4selfE
libQt5Core.so.5:_ZN16QStringListModelC1ERK11QStringListP7QObject
libQt5Core.so.5:_ZN4QDir8homePathEv
libQt5Core.so.5:_ZN4QDirC1ERK7QString
libQt5Core.so.5:_ZN4QDirD1Ev
libQt5Core.so.5:_ZN4QUrl13fromUserInputERK7QString
libQt5Core.so.5:_ZN4QUrlD1Ev
libQt5Core.so.5:_ZN5QFile4openE6QFlagsIN9QIODevice12OpenModeFlagEE
libQt5Core.so.5:_ZN5QFileC1ERK7QString
libQt5Core.so.5:_ZN5QFileD1Ev
libQt5Core.so.5:_ZN6QTimer11setIntervalEi
libQt5Core.so.5:_ZN6QTimer16staticMetaObjectE
libQt5Core.so.5:_ZN6QTimer4stopEv
libQt5Core.so.5:_ZN6QTimer5startEi
libQt5Core.so.5:_ZN6QTimer5startEv
libQt5Core.so.5:_ZN6QTimerC1EP7QObject
libQt5Core.so.5:_ZN7QBuffer4openE6QFlagsIN9QIODevice12OpenModeFlagEE
libQt5Core.so.5:_ZN7QBufferC1EP10QByteArrayP7QObject
libQt5Core.so.5:_ZN7QBufferD1Ev
libQt5Core.so.5:_ZN7QObject10childEventEP11QChildEvent
libQt5Core.so.5:_ZN7QObject10disconnectEPKS_PKcS1_S3_
libQt5Core.so.5:_ZN7QObject10startTimerEiN2Qt9TimerTypeE
libQt5Core.so.5:_ZN7QObject10timerEventEP11QTimerEvent
libQt5Core.so.5:_ZN7QObject11customEventEP6QEvent
libQt5Core.so.5:_ZN7QObject11deleteLaterEv
libQt5Core.so.5:_ZN7QObject11eventFilterEPS_P6QEvent
libQt5Core.so.5:_ZN7QObject11qt_metacallEN11QMetaObject4CallEiPPv
libQt5Core.so.5:_ZN7QObject11qt_metacastEPKc
libQt5Core.so.5:_ZN7QObject11setPropertyEPKcRK8QVariant
libQt5Core.so.5:_ZN7QObject13connectNotifyERK11QMetaMethod
libQt5Core.so.5:_ZN7QObject13setObjectNameERK7QString
libQt5Core.so.5:_ZN7QObject16disconnectNotifyERK11QMetaMethod
libQt5Core.so.5:_ZN7QObject16staticMetaObjectE
libQt5Core.so.5:_ZN7QObject5eventEP6QEvent
libQt5Core.so.5:_ZN7QObject7connectEPKS_PKcS1_S3_N2Qt14ConnectionTypeE
libQt5Core.so.5:_ZN7QObject9killTimerEi
libQt5Core.so.5:_ZN7QObjectC2EPS_
libQt5Core.so.5:_ZN7QObjectD2Ev
libQt5Core.so.5:_ZN7QString13toUtf8_helperERKS_
libQt5Core.so.5:_ZN7QString14compare_helperEPK5QChariPKciN2Qt15CaseSensitivityE
libQt5Core.so.5:_ZN7QString15fromUtf8_helperEPKci
libQt5Core.so.5:_ZN7QString16fromAscii_helperEPKci
libQt5Core.so.5:_ZN7QString17fromLatin1_helperEPKci
libQt5Core.so.5:_ZN7QString20fromLocal8Bit_helperEPKci
libQt5Core.so.5:_ZN7QString6appendERKS_
libQt5Core.so.5:_ZN7QStringaSERKS_
libQt5Core.so.5:_ZN8QVariantC1Eb
libQt5Core.so.5:_ZN8QVariantC1EiPKvj
libQt5Core.so.5:_ZN8QVariantD1Ev
libQt5Core.so.5:_ZN9QFileInfoC1ERK7QString
libQt5Core.so.5:_ZN9QFileInfoD1Ev
libQt5Core.so.5:_ZN9QHashData11free_helperEPFvPNS_4NodeEE
libQt5Core.so.5:_ZN9QHashData11shared_nullE
libQt5Core.so.5:_ZN9QHashData12allocateNodeEi
libQt5Core.so.5:_ZN9QHashData13detach_helperEPFvPNS_4NodeEPvEPFvS1_Eii
libQt5Core.so.5:_ZN9QHashData6rehashEi
libQt5Core.so.5:_ZN9QHashData8freeNodeEPv
libQt5Core.so.5:_ZN9QHashData8nextNodeEPNS_4NodeE
libQt5Core.so.5:_ZN9QIODevice5writeEPKcx
libQt5Core.so.5:_ZN9QIODevice7readAllEv
libQt5Core.so.5:_ZN9QListData11detach_growEPii
libQt5Core.so.5:_ZN9QListData11shared_nullE
libQt5Core.so.5:_ZN9QListData6appendEv
libQt5Core.so.5:_ZN9QListData6detachEi
libQt5Core.so.5:_ZN9QListData6removeEi
libQt5Core.so.5:_ZN9QListData7disposeEPNS_4DataE
libQt5Core.so.5:_ZN9QListData7prependEv
libQt5Core.so.5:_ZN9QListData7reallocEi
libQt5Core.so.5:_ZN9QMetaType22registerNormalizedTypeERK10QByteArrayPFvPvEPFS3_S3_PKvEi6QFlagsINS_8TypeFlagEEPK11QMetaObject
libQt5Core.so.5:_ZN9QMetaType9typeFlagsEi
libQt5Core.so.5:_ZN9QRunnableD2Ev
libQt5Core.so.5:_ZN9QUrlQuery12addQueryItemERK7QStringS2_
libQt5Core.so.5:_ZN9QUrlQueryC1Ev
libQt5Core.so.5:_ZN9QUrlQueryD1Ev
libQt5Core.so.5:_ZN9QtPrivate12argToQStringE11QStringViewmPPKNS_7ArgBaseE
libQt5Core.so.5:_ZN9QtPrivate16QStringList_joinERK11QStringList13QLatin1String
libQt5Core.so.5:_ZNK10QByteArray7indexOfEPKci
libQt5Core.so.5:_ZNK11QMetaObject4castEP7QObject
libQt5Core.so.5:_ZNK11QMetaObject9classNameEv
libQt5Core.so.5:_ZNK11QObjectData17dynamicMetaObjectEv
libQt5Core.so.5:_ZNK14QMessageLogger7warningEPKcz
libQt5Core.so.5:_ZNK4QDir12absolutePathEv
libQt5Core.so.5:_ZNK4QDir6existsEv
libQt5Core.so.5:_ZNK4QDir6mkpathERK7QString
libQt5Core.so.5:_ZNK4QUrl11toLocalFileEv
libQt5Core.so.5:_ZNK4QUrl4hostE6QFlagsINS_25ComponentFormattingOptionEE
libQt5Core.so.5:_ZNK4QUrl7isValidEv
libQt5Core.so.5:_ZNK4QUrl8resolvedERKS_
libQt5Core.so.5:_ZNK4QUrl8toStringE12QUrlTwoFlagsINS_19UrlFormattingOptionENS_25ComponentFormattingOptionEE
libQt5Core.so.5:_ZNK7QObject6senderEv
libQt5Core.so.5:_ZNK7QObject8propertyEPKc
libQt5Core.so.5:_ZNK7QString10startsWithE5QCharN2Qt15CaseSensitivityE
libQt5Core.so.5:_ZNK7QString3argERKS_i5QChar
libQt5Core.so.5:_ZNK7QString3argExii5QChar
libQt5Core.so.5:_ZNK7QString3midEii
libQt5Core.so.5:_ZNK8QVariant11toByteArrayEv
libQt5Core.so.5:_ZNK8QVariant5toUrlEv
libQt5Core.so.5:_ZNK8QVariant7convertEiPv
libQt5Core.so.5:_ZNK8QVariant8userTypeEv
libQt5Core.so.5:_ZNK8QVariant9constDataEv
libQt5Core.so.5:_ZNK9QFileInfo11absoluteDirEv
libQt5Core.so.5:_ZNK9QIODevice11errorStringEv
libQt5Core.so.5:_ZNK9QUrlQuery5queryE6QFlagsIN4QUrl25ComponentFormattingOptionEE
libQt5Core.so.5:_ZTI7QObject
libQt5Core.so.5:_ZTI9QRunnable
libQt5Core.so.5:_ZeqRK7QStringS1_
libQt5Core.so.5:qt_version_tag
libQt5Gui.so.5:_ZN10QClipboard7setTextERK7QStringNS_4ModeE
libQt5Gui.so.5:_ZN10QClipboard8setImageERK6QImageNS_4ModeE
libQt5Gui.so.5:_ZN12QFontMetricsD1Ev
libQt5Gui.so.5:_ZN13QFontDatabaseC1Ev
libQt5Gui.so.5:_ZN15QGuiApplication18setLayoutDirectionEN2Qt15LayoutDirectionE
libQt5Gui.so.5:_ZN15QGuiApplication9clipboardEv
libQt5Gui.so.5:_ZN4QPenC1ERK6QBrushdN2Qt8PenStyleENS3_11PenCapStyleENS3_12PenJoinStyleE
libQt5Gui.so.5:_ZN4QPenD1Ev
libQt5Gui.so.5:_ZN5QFont12setPointSizeEi
libQt5Gui.so.5:_ZN5QFont8setStyleENS_5StyleE
libQt5Gui.so.5:_ZN5QFont9setFamilyERK7QString
libQt5Gui.so.5:_ZN5QFont9setWeightEi
libQt5Gui.so.5:_ZN5QFontC1ERK7QStringiib
libQt5Gui.so.5:_ZN5QFontC1ERKS_
libQt5Gui.so.5:_ZN5QFontD1Ev
libQt5Gui.so.5:_ZN5QIconC1ERK7QPixmap
libQt5Gui.so.5:_ZN5QIconC1Ev
libQt5Gui.so.5:_ZN5QIconD1Ev
libQt5Gui.so.5:_ZN6QBrushC1ERK6QColorN2Qt10BrushStyleE
libQt5Gui.so.5:_ZN6QBrushD1Ev
libQt5Gui.so.5:_ZN6QColor7fromHsvEiiii
libQt5Gui.so.5:_ZN6QColor9setAlphaFEd
libQt5Gui.so.5:_ZN6QColorC1EN2Qt11GlobalColorE
libQt5Gui.so.5:_ZN6QColorC1Ej
libQt5Gui.so.5:_ZN6QColoraSERKS_
libQt5Gui.so.5:_ZN6QImage12loadFromDataEPKhiPKc
libQt5Gui.so.5:_ZN6QImage8setPixelEiij
libQt5Gui.so.5:_ZN6QImageC1EiiNS_6FormatE
libQt5Gui.so.5:_ZN6QImageD1Ev
libQt5Gui.so.5:_ZN7QCursorC1EN2Qt11CursorShapeE
libQt5Gui.so.5:_ZN7QCursorC1Ev
libQt5Gui.so.5:_ZN7QCursorD1Ev
libQt5Gui.so.5:_ZN7QPixmap4fillERK6QColor
libQt5Gui.so.5:_ZN7QPixmap9fromImageERK6QImage6QFlagsIN2Qt19ImageConversionFlagEE
libQt5Gui.so.5:_ZN7QPixmapC1ERK5QSize
libQt5Gui.so.5:_ZN7QPixmapC1ERK7QStringPKc6QFlagsIN2Qt19ImageConversionFlagEE
libQt5Gui.so.5:_ZN7QPixmapC1ERKS_
libQt5Gui.so.5:_ZN7QPixmapC1Eii
libQt5Gui.so.5:_ZN7QPixmapC1Ev
libQt5Gui.so.5:_ZN7QPixmapD1Ev
libQt5Gui.so.5:_ZN7QPixmapaSERKS_
libQt5Gui.so.5:_ZN8QPainter10drawPixmapERK7QPointFRK7QPixmap
libQt5Gui.so.5:_ZN8QPainter10drawPointsEPK6QPointi
libQt5Gui.so.5:_ZN8QPainter11drawEllipseERK5QRect
libQt5Gui.so.5:_ZN8QPainter13setRenderHintENS_10RenderHintEb
libQt5Gui.so.5:_ZN8QPainter15drawRoundedRectERK6QRectFddN2Qt8SizeModeE
libQt5Gui.so.5:_ZN8QPainter18setLayoutDirectionEN2Qt15LayoutDirectionE
libQt5Gui.so.5:_ZN8QPainter3endEv
libQt5Gui.so.5:_ZN8QPainter4saveEv
libQt5Gui.so.5:_ZN8QPainter5beginEP12QPaintDevice
libQt5Gui.so.5:_ZN8QPainter6rotateEd
libQt5Gui.so.5:_ZN8QPainter6setPenEN2Qt8PenStyleE
libQt5Gui.so.5:_ZN8QPainter6setPenERK4QPen
libQt5Gui.so.5:_ZN8QPainter7restoreEv
libQt5Gui.so.5:_ZN8QPainter7setFontERK5QFont
libQt5Gui.so.5:_ZN8QPainter8drawTextERK7QPointFRK7QString
libQt5Gui.so.5:_ZN8QPainter8fillRectERK5QRectRK6QBrush
libQt5Gui.so.5:_ZN8QPainter8fillRectERK5QRectRK6QColor
libQt5Gui.so.5:_ZN8QPainter8setBrushERK6QBrush
libQt5Gui.so.5:_ZN8QPainter9drawImageERK7QPointFRK6QImage
libQt5Gui.so.5:_ZN8QPainter9drawLinesEPK5QLinei
libQt5Gui.so.5:_ZN8QPainter9translateERK7QPointF
libQt5Gui.so.5:_ZN8QPainterC1EP12QPaintDevice
libQt5Gui.so.5:_ZN8QPainterC1Ev
libQt5Gui.so.5:_ZN8QPainterD1Ev
libQt5Gui.so.5:_ZN8QPalette8setBrushENS_10ColorGroupENS_9ColorRoleERK6QBrush
libQt5Gui.so.5:_ZN8QPaletteC1ERKS_
libQt5Gui.so.5:_ZN8QPaletteD1Ev
libQt5Gui.so.5:_ZN9QFontInfoC1ERK5QFont
libQt5Gui.so.5:_ZN9QFontInfoD1Ev
libQt5Gui.so.5:_ZNK12QFontMetrics5widthE5QChar
libQt5Gui.so.5:_ZNK12QFontMetrics5widthERK7QStringi
libQt5Gui.so.5:_ZNK12QFontMetrics7descentEv
libQt5Gui.so.5:_ZNK13QFontDatabase8familiesENS_13WritingSystemE
libQt5Gui.so.5:_ZNK5QFont5styleEv
libQt5Gui.so.5:_ZNK5QFont6familyEv
libQt5Gui.so.5:_ZNK5QFont6weightEv
libQt5Gui.so.5:_ZNK5QFont9pointSizeEv
libQt5Gui.so.5:_ZNK6QColor3redEv
libQt5Gui.so.5:_ZNK6QColor4blueEv
libQt5Gui.so.5:_ZNK6QColor5alphaEv
libQt5Gui.so.5:_ZNK6QColor5greenEv
libQt5Gui.so.5:_ZNK6QColor6alphaFEv
libQt5Gui.so.5:_ZNK6QImage4rectEv
libQt5Gui.so.5:_ZNK6QImage4saveEP9QIODevicePKci
libQt5Gui.so.5:_ZNK6QImage5pixelEii
libQt5Gui.so.5:_ZNK6QImage5widthEv
libQt5Gui.so.5:_ZNK6QImage6heightEv
libQt5Gui.so.5:_ZNK6QImage6scaledERK5QSizeN2Qt15AspectRatioModeENS3_18TransformationModeE
libQt5Gui.so.5:_ZNK7QPixmap14scaledToHeightEiN2Qt18TransformationModeE
libQt5Gui.so.5:_ZNK7QPixmap4sizeEv
libQt5Gui.so.5:_ZNK7QPixmap5widthEv
libQt5Gui.so.5:_ZNK7QPixmap6heightEv
libQt5Gui.so.5:_ZNK7QPixmap6isNullEv
libQt5Gui.so.5:_ZNK7QPixmap6scaledERK5QSizeN2Qt15AspectRatioModeENS3_18TransformationModeE
libQt5Gui.so.5:_ZNK7QPixmap7toImageEv
libQt5Gui.so.5:_ZNK8QPainter11fontMetricsEv
libQt5Gui.so.5:_ZNK8QPainter4fontEv
libQt5Gui.so.5:_ZNK8QPainter5brushEv
libQt5Gui.so.5:_ZNK8QPainter6deviceEv
libQt5Gui.so.5:_ZNK9QFontInfo6familyEv
libQt5Gui.so.5:_ZNK9QKeyEvent9modifiersEv
libQt5Network.so.5:_ZN13QNetworkProxyC1ENS_9ProxyTypeERK7QStringtS3_S3_
libQt5Network.so.5:_ZN13QNetworkProxyD1Ev
libQt5Network.so.5:_ZN13QNetworkReply15ignoreSslErrorsERK5QListI9QSslErrorE
libQt5Network.so.5:_ZN13QNetworkReply16staticMetaObjectE
libQt5Network.so.5:_ZN14QAuthenticator11setPasswordERK7QString
libQt5Network.so.5:_ZN14QAuthenticator7setUserERK7QString
libQt5Network.so.5:_ZN14QNetworkCookie12parseCookiesERK10QByteArray
libQt5Network.so.5:_ZN14QNetworkCookieD1Ev
libQt5Network.so.5:_ZN15QNetworkRequest12setRawHeaderERK10QByteArrayS2_
libQt5Network.so.5:_ZN15QNetworkRequest19setSslConfigurationERK17QSslConfiguration
libQt5Network.so.5:_ZN15QNetworkRequest6setUrlERK4QUrl
libQt5Network.so.5:_ZN15QNetworkRequestC1ERKS_
libQt5Network.so.5:_ZN15QNetworkRequestC1Ev
libQt5Network.so.5:_ZN15QNetworkRequestD1Ev
libQt5Network.so.5:_ZN17QNetworkCookieJar11qt_metacallEN11QMetaObject4CallEiPPv
libQt5Network.so.5:_ZN17QNetworkCookieJar11qt_metacastEPKc
libQt5Network.so.5:_ZN17QNetworkCookieJar12deleteCookieERK14QNetworkCookie
libQt5Network.so.5:_ZN17QNetworkCookieJar12insertCookieERK14QNetworkCookie
libQt5Network.so.5:_ZN17QNetworkCookieJar12updateCookieERK14QNetworkCookie
libQt5Network.so.5:_ZN17QNetworkCookieJar13setAllCookiesERK5QListI14QNetworkCookieE
libQt5Network.so.5:_ZN17QNetworkCookieJar16staticMetaObjectE
libQt5Network.so.5:_ZN17QNetworkCookieJar17setCookiesFromUrlERK5QListI14QNetworkCookieERK4QUrl
libQt5Network.so.5:_ZN17QNetworkCookieJarC2EP7QObject
libQt5Network.so.5:_ZN17QNetworkCookieJarD2Ev
libQt5Network.so.5:_ZN17QNetworkDiskCache17setCacheDirectoryERK7QString
libQt5Network.so.5:_ZN17QNetworkDiskCacheC1EP7QObject
libQt5Network.so.5:_ZN17QSslConfiguration20defaultConfigurationEv
libQt5Network.so.5:_ZN17QSslConfigurationD1Ev
libQt5Network.so.5:_ZN21QNetworkAccessManager12setCookieJarEP17QNetworkCookieJar
libQt5Network.so.5:_ZN21QNetworkAccessManager3getERK15QNetworkRequest
libQt5Network.so.5:_ZN21QNetworkAccessManager4postERK15QNetworkRequestRK10QByteArray
libQt5Network.so.5:_ZN21QNetworkAccessManager8setCacheEP21QAbstractNetworkCache
libQt5Network.so.5:_ZN21QNetworkAccessManager8setProxyERK13QNetworkProxy
libQt5Network.so.5:_ZN21QNetworkAccessManagerC1EP7QObject
libQt5Network.so.5:_ZN21QNetworkAccessManagerD1Ev
libQt5Network.so.5:_ZNK13QNetworkReply13rawHeaderListEv
libQt5Network.so.5:_ZNK13QNetworkReply3urlEv
libQt5Network.so.5:_ZNK13QNetworkReply5errorEv
libQt5Network.so.5:_ZNK13QNetworkReply7requestEv
libQt5Network.so.5:_ZNK13QNetworkReply9attributeEN15QNetworkRequest9AttributeE
libQt5Network.so.5:_ZNK13QNetworkReply9rawHeaderERK10QByteArray
libQt5Network.so.5:_ZNK14QNetworkCookie9toRawFormENS_7RawFormE
libQt5Network.so.5:_ZNK15QNetworkRequest3urlEv
libQt5Network.so.5:_ZNK17QNetworkCookieJar10allCookiesEv
libQt5Network.so.5:_ZNK17QNetworkCookieJar13cookiesForUrlERK4QUrl
libQt5Network.so.5:_ZNK17QNetworkCookieJar14validateCookieERK14QNetworkCookieRK4QUrl
libQt5Network.so.5:_ZTI17QNetworkCookieJar
libQt5Widgets.so.5:_ZN10QBoxLayout10addStretchEi
libQt5Widgets.so.5:_ZN10QBoxLayout10setSpacingEi
libQt5Widgets.so.5:_ZN10QBoxLayout9addLayoutEP7QLayouti
libQt5Widgets.so.5:_ZN10QBoxLayout9addWidgetEP7QWidgeti6QFlagsIN2Qt13AlignmentFlagEE
libQt5Widgets.so.5:_ZN10QCompleter17setCompletionModeENS_14CompletionModeE
libQt5Widgets.so.5:_ZN10QCompleter18setCaseSensitivityEN2Qt15CaseSensitivityE
libQt5Widgets.so.5:_ZN10QCompleter8setModelEP18QAbstractItemModel
libQt5Widgets.so.5:_ZN10QCompleterC1EP7QObject
libQt5Widgets.so.5:_ZN10QScrollBar10paintEventEP11QPaintEvent
libQt5Widgets.so.5:_ZN10QScrollBar10wheelEventEP11QWheelEvent
libQt5Widgets.so.5:_ZN10QScrollBar11qt_metacallEN11QMetaObject4CallEiPPv
libQt5Widgets.so.5:_ZN10QScrollBar11qt_metacastEPKc
libQt5Widgets.so.5:_ZN10QScrollBar12sliderChangeEN15QAbstractSlider12SliderChangeE
libQt5Widgets.so.5:_ZN10QScrollBar14mouseMoveEventEP11QMouseEvent
libQt5Widgets.so.5:_ZN10QScrollBar15mousePressEventEP11QMouseEvent
libQt5Widgets.so.5:_ZN10QScrollBar16contextMenuEventEP17QContextMenuEvent
libQt5Widgets.so.5:_ZN10QScrollBar17mouseReleaseEventEP11QMouseEvent
libQt5Widgets.so.5:_ZN10QScrollBar5eventEP6QEvent
libQt5Widgets.so.5:_ZN10QScrollBar9hideEventEP10QHideEvent
libQt5Widgets.so.5:_ZN10QScrollBarC2EN2Qt11OrientationEP7QWidget
libQt5Widgets.so.5:_ZN10QScrollBarD2Ev
libQt5Widgets.so.5:_ZN10QTabWidget16setCurrentWidgetEP7QWidget
libQt5Widgets.so.5:_ZN10QTabWidget6addTabEP7QWidgetRK7QString
libQt5Widgets.so.5:_ZN10QTabWidgetC1EP7QWidget
libQt5Widgets.so.5:_ZN11QDockWidget11setFloatingEb
libQt5Widgets.so.5:_ZN11QDockWidget15setAllowedAreasE6QFlagsIN2Qt14DockWidgetAreaEE
libQt5Widgets.so.5:_ZN11QDockWidget9setWidgetEP7QWidget
libQt5Widgets.so.5:_ZN11QDockWidgetC1EP7QWidget6QFlagsIN2Qt10WindowTypeEE
libQt5Widgets.so.5:_ZN11QFileDialog10selectFileERK7QString
libQt5Widgets.so.5:_ZN11QFileDialog12setDirectoryERK7QString
libQt5Widgets.so.5:_ZN11QFileDialogC1EP7QWidgetRK7QStringS4_S4_
libQt5Widgets.so.5:_ZN11QGridLayout10setSpacingEi
libQt5Widgets.so.5:_ZN11QGridLayout13setRowStretchEii
libQt5Widgets.so.5:_ZN11QGridLayout16setColumnStretchEii
libQt5Widgets.so.5:_ZN11QGridLayout9addWidgetEP7QWidgetii6QFlagsIN2Qt13AlignmentFlagEE
libQt5Widgets.so.5:_ZN11QGridLayout9addWidgetEP7QWidgetiiii6QFlagsIN2Qt13AlignmentFlagEE
libQt5Widgets.so.5:_ZN11QGridLayoutC1EP7QWidget
libQt5Widgets.so.5:_ZN11QGridLayoutC1Ev
libQt5Widgets.so.5:_ZN11QHBoxLayoutC1Ev
libQt5Widgets.so.5:_ZN11QLayoutItem12setAlignmentE6QFlagsIN2Qt13AlignmentFlagEE
libQt5Widgets.so.5:_ZN11QMainWindow10addToolBarEP8QToolBar
libQt5Widgets.so.5:_ZN11QMainWindow11qt_metacallEN11QMetaObject4CallEiPPv
libQt5Widgets.so.5:_ZN11QMainWindow11qt_metacastEPKc
libQt5Widgets.so.5:_ZN11QMainWindow15createPopupMenuEv
libQt5Widgets.so.5:_ZN11QMainWindow16contextMenuEventEP17QContextMenuEvent
libQt5Widgets.so.5:_ZN11QMainWindow16setCentralWidgetEP7QWidget
libQt5Widgets.so.5:_ZN11QMainWindow16staticMetaObjectE
libQt5Widgets.so.5:_ZN11QMainWindow5eventEP6QEvent
libQt5Widgets.so.5:_ZN11QMainWindowC2EP7QWidget6QFlagsIN2Qt10WindowTypeEE
libQt5Widgets.so.5:_ZN11QMainWindowD2Ev
libQt5Widgets.so.5:_ZN11QMessageBox11informationEP7QWidgetRK7QStringS4_S4_S4_S4_ii
libQt5Widgets.so.5:_ZN11QMessageBox8criticalEP7QWidgetRK7QStringS4_S4_S4_S4_ii
libQt5Widgets.so.5:_ZN11QMessageBox8questionEP7QWidgetRK7QStringS4_S4_S4_S4_ii
libQt5Widgets.so.5:_ZN11QPushButton10paintEventEP11QPaintEvent
libQt5Widgets.so.5:_ZN11QPushButton11qt_metacallEN11QMetaObject4CallEiPPv
libQt5Widgets.so.5:_ZN11QPushButton11qt_metacastEPKc
libQt5Widgets.so.5:_ZN11QPushButton12focusInEventEP11QFocusEvent
libQt5Widgets.so.5:_ZN11QPushButton13focusOutEventEP11QFocusEvent
libQt5Widgets.so.5:_ZN11QPushButton13keyPressEventEP9QKeyEvent
libQt5Widgets.so.5:_ZN11QPushButton14setAutoDefaultEb
libQt5Widgets.so.5:_ZN11QPushButton16staticMetaObjectE
libQt5Widgets.so.5:_ZN11QPushButton5eventEP6QEvent
libQt5Widgets.so.5:_ZN11QPushButtonC1EP7QWidget
libQt5Widgets.so.5:_ZN11QPushButtonC2EP7QWidget
libQt5Widgets.so.5:_ZN11QPushButtonD2Ev
libQt5Widgets.so.5:_ZN11QScrollArea11eventFilterEP7QObjectP6QEvent
libQt5Widgets.so.5:_ZN11QScrollArea11qt_metacallEN11QMetaObject4CallEiPPv
libQt5Widgets.so.5:_ZN11QScrollArea11qt_metacastEPKc
libQt5Widgets.so.5:_ZN11QScrollArea11resizeEventEP12QResizeEvent
libQt5Widgets.so.5:_ZN11QScrollArea16scrollContentsByEii
libQt5Widgets.so.5:_ZN11QScrollArea16staticMetaObjectE
libQt5Widgets.so.5:_ZN11QScrollArea18focusNextPrevChildEb
libQt5Widgets.so.5:_ZN11QScrollArea18setWidgetResizableEb
libQt5Widgets.so.5:_ZN11QScrollArea5eventEP6QEvent
libQt5Widgets.so.5:_ZN11QScrollArea9setWidgetEP7QWidget
libQt5Widgets.so.5:_ZN11QScrollAreaC1EP7QWidget
libQt5Widgets.so.5:_ZN11QScrollAreaC2EP7QWidget
libQt5Widgets.so.5:_ZN11QScrollAreaD2Ev
libQt5Widgets.so.5:_ZN11QToolButton12setPopupModeENS_19ToolButtonPopupModeE
libQt5Widgets.so.5:_ZN11QToolButton16setDefaultActionEP7QAction
libQt5Widgets.so.5:_ZN11QToolButton7setMenuEP5QMenu
libQt5Widgets.so.5:_ZN11QToolButtonC1EP7QWidget
libQt5Widgets.so.5:_ZN11QVBoxLayoutC1EP7QWidget
libQt5Widgets.so.5:_ZN11QVBoxLayoutC1Ev
libQt5Widgets.so.5:_ZN12QApplication11qt_metacallEN11QMetaObject4CallEiPPv
libQt5Widgets.so.5:_ZN12QApplication11qt_metacastEPKc
libQt5Widgets.so.5:_ZN12QApplication12activeWindowEv
libQt5Widgets.so.5:_ZN12QApplication13compressEventEP6QEventP7QObjectP14QPostEventList
libQt5Widgets.so.5:_ZN12QApplication13setStyleSheetERK7QString
libQt5Widgets.so.5:_ZN12QApplication16staticMetaObjectE
libQt5Widgets.so.5:_ZN12QApplication4execEv
libQt5Widgets.so.5:_ZN12QApplication5eventEP6QEvent
libQt5Widgets.so.5:_ZN12QApplication6notifyEP7QObjectP6QEvent
libQt5Widgets.so.5:_ZN12QApplication7desktopEv
libQt5Widgets.so.5:_ZN12QApplicationC2ERiPPci
libQt5Widgets.so.5:_ZN12QApplicationD2Ev
libQt5Widgets.so.5:_ZN12QProgressBar8setRangeEii
libQt5Widgets.so.5:_ZN12QProgressBarC1EP7QWidget
libQt5Widgets.so.5:_ZN12QRadioButtonC1EP7QWidget
libQt5Widgets.so.5:_ZN15QAbstractButton10setCheckedEb
libQt5Widgets.so.5:_ZN15QAbstractButton10timerEventEP11QTimerEvent
libQt5Widgets.so.5:_ZN15QAbstractButton11changeEventEP6QEvent
libQt5Widgets.so.5:_ZN15QAbstractButton11setIconSizeERK5QSize
libQt5Widgets.so.5:_ZN15QAbstractButton13checkStateSetEv
libQt5Widgets.so.5:_ZN15QAbstractButton14mouseMoveEventEP11QMouseEvent
libQt5Widgets.so.5:_ZN15QAbstractButton14nextCheckStateEv
libQt5Widgets.so.5:_ZN15QAbstractButton15keyReleaseEventEP9QKeyEvent
libQt5Widgets.so.5:_ZN15QAbstractButton15mousePressEventEP11QMouseEvent
libQt5Widgets.so.5:_ZN15QAbstractButton17mouseReleaseEventEP11QMouseEvent
libQt5Widgets.so.5:_ZN15QAbstractButton7setIconERK5QIcon
libQt5Widgets.so.5:_ZN15QAbstractButton7setTextERK7QString
libQt5Widgets.so.5:_ZN15QAbstractSlider10setMaximumEi
libQt5Widgets.so.5:_ZN15QAbstractSlider10setMinimumEi
libQt5Widgets.so.5:_ZN15QAbstractSlider10timerEventEP11QTimerEvent
libQt5Widgets.so.5:_ZN15QAbstractSlider11changeEventEP6QEvent
libQt5Widgets.so.5:_ZN15QAbstractSlider11setPageStepEi
libQt5Widgets.so.5:_ZN15QAbstractSlider11setTrackingEb
libQt5Widgets.so.5:_ZN15QAbstractSlider13keyPressEventEP9QKeyEvent
libQt5Widgets.so.5:_ZN15QAbstractSlider13setSingleStepEi
libQt5Widgets.so.5:_ZN15QAbstractSlider8setValueEi
libQt5Widgets.so.5:_ZN19QAbstractScrollArea10paintEventEP11QPaintEvent
libQt5Widgets.so.5:_ZN19QAbstractScrollArea10wheelEventEP11QWheelEvent
libQt5Widgets.so.5:_ZN19QAbstractScrollArea13dragMoveEventEP14QDragMoveEvent
libQt5Widgets.so.5:_ZN19QAbstractScrollArea13keyPressEventEP9QKeyEvent
libQt5Widgets.so.5:_ZN19QAbstractScrollArea13setupViewportEP7QWidget
libQt5Widgets.so.5:_ZN19QAbstractScrollArea13viewportEventEP6QEvent
libQt5Widgets.so.5:_ZN19QAbstractScrollArea14dragEnterEventEP15QDragEnterEvent
libQt5Widgets.so.5:_ZN19QAbstractScrollArea14dragLeaveEventEP15QDragLeaveEvent
libQt5Widgets.so.5:_ZN19QAbstractScrollArea14mouseMoveEventEP11QMouseEvent
libQt5Widgets.so.5:_ZN19QAbstractScrollArea15mousePressEventEP11QMouseEvent
libQt5Widgets.so.5:_ZN19QAbstractScrollArea16contextMenuEventEP17QContextMenuEvent
libQt5Widgets.so.5:_ZN19QAbstractScrollArea17mouseReleaseEventEP11QMouseEvent
libQt5Widgets.so.5:_ZN19QAbstractScrollArea21mouseDoubleClickEventEP11QMouseEvent
libQt5Widgets.so.5:_ZN19QAbstractScrollArea26setVerticalScrollBarPolicyEN2Qt15ScrollBarPolicyE
libQt5Widgets.so.5:_ZN19QAbstractScrollArea28setHorizontalScrollBarPolicyEN2Qt15ScrollBarPolicyE
libQt5Widgets.so.5:_ZN19QAbstractScrollArea9dropEventEP10QDropEvent
libQt5Widgets.so.5:_ZN25QGraphicsDropShadowEffect13setBlurRadiusEd
libQt5Widgets.so.5:_ZN25QGraphicsDropShadowEffect9setOffsetERK7QPointF
libQt5Widgets.so.5:_ZN25QGraphicsDropShadowEffectC1EP7QObject
libQt5Widgets.so.5:_ZN5QMenu5clearEv
libQt5Widgets.so.5:_ZN5QMenuC1EP7QWidget
libQt5Widgets.so.5:_ZN6QFrame10paintEventEP11QPaintEvent
libQt5Widgets.so.5:_ZN6QFrame11changeEventEP6QEvent
libQt5Widgets.so.5:_ZN6QFrame11qt_metacallEN11QMetaObject4CallEiPPv
libQt5Widgets.so.5:_ZN6QFrame11qt_metacastEPKc
libQt5Widgets.so.5:_ZN6QFrame12setLineWidthEi
libQt5Widgets.so.5:_ZN6QFrame13setFrameShapeENS_5ShapeE
libQt5Widgets.so.5:_ZN6QFrame13setFrameStyleEi
libQt5Widgets.so.5:_ZN6QFrame16staticMetaObjectE
libQt5Widgets.so.5:_ZN6QFrame5eventEP6QEvent
libQt5Widgets.so.5:_ZN6QFrameC2EP7QWidget6QFlagsIN2Qt10WindowTypeEE
libQt5Widgets.so.5:_ZN6QFrameD2Ev
libQt5Widgets.so.5:_ZN6QLabel10paintEventEP11QPaintEvent
libQt5Widgets.so.5:_ZN6QLabel11changeEventEP6QEvent
libQt5Widgets.so.5:_ZN6QLabel11qt_metacallEN11QMetaObject4CallEiPPv
libQt5Widgets.so.5:_ZN6QLabel11qt_metacastEPKc
libQt5Widgets.so.5:_ZN6QLabel11setWordWrapEb
libQt5Widgets.so.5:_ZN6QLabel12focusInEventEP11QFocusEvent
libQt5Widgets.so.5:_ZN6QLabel12setAlignmentE6QFlagsIN2Qt13AlignmentFlagEE
libQt5Widgets.so.5:_ZN6QLabel13focusOutEventEP11QFocusEvent
libQt5Widgets.so.5:_ZN6QLabel13keyPressEventEP9QKeyEvent
libQt5Widgets.so.5:_ZN6QLabel14mouseMoveEventEP11QMouseEvent
libQt5Widgets.so.5:_ZN6QLabel16contextMenuEventEP17QContextMenuEvent
libQt5Widgets.so.5:_ZN6QLabel17mouseReleaseEventEP11QMouseEvent
libQt5Widgets.so.5:_ZN6QLabel18focusNextPrevChildEb
libQt5Widgets.so.5:_ZN6QLabel5clearEv
libQt5Widgets.so.5:_ZN6QLabel5eventEP6QEvent
libQt5Widgets.so.5:_ZN6QLabel7setTextERK7QString
libQt5Widgets.so.5:_ZN6QLabel9setMarginEi
libQt5Widgets.so.5:_ZN6QLabel9setPixmapERK7QPixmap
libQt5Widgets.so.5:_ZN6QLabelC1EP7QWidget6QFlagsIN2Qt10WindowTypeEE
libQt5Widgets.so.5:_ZN6QLabelC1ERK7QStringP7QWidget6QFlagsIN2Qt10WindowTypeEE
libQt5Widgets.so.5:_ZN6QLabelC2EP7QWidget6QFlagsIN2Qt10WindowTypeEE
libQt5Widgets.so.5:_ZN6QLabelD2Ev
libQt5Widgets.so.5:_ZN7QAction10setCheckedEb
libQt5Widgets.so.5:_ZN7QAction10setEnabledEb
libQt5Widgets.so.5:_ZN7QAction10setToolTipERK7QString
libQt5Widgets.so.5:_ZN7QAction10setVisibleEb
libQt5Widgets.so.5:_ZN7QAction11qt_metacallEN11QMetaObject4CallEiPPv
libQt5Widgets.so.5:_ZN7QAction11qt_metacastEPKc
libQt5Widgets.so.5:_ZN7QAction12setCheckableEb
libQt5Widgets.so.5:_ZN7QAction16staticMetaObjectE
libQt5Widgets.so.5:_ZN7QAction5eventEP6QEvent
libQt5Widgets.so.5:_ZN7QAction7setIconERK5QIcon
libQt5Widgets.so.5:_ZN7QAction7setTextERK7QString
libQt5Widgets.so.5:_ZN7QActionC2EP7QObject
libQt5Widgets.so.5:_ZN7QActionD2Ev
libQt5Widgets.so.5:_ZN7QDialog10closeEventEP11QCloseEvent
libQt5Widgets.so.5:_ZN7QDialog10setVisibleEb
libQt5Widgets.so.5:_ZN7QDialog11eventFilterEP7QObjectP6QEvent
libQt5Widgets.so.5:_ZN7QDialog11qt_metacallEN11QMetaObject4CallEiPPv
libQt5Widgets.so.5:_ZN7QDialog11qt_metacastEPKc
libQt5Widgets.so.5:_ZN7QDialog11resizeEventEP12QResizeEvent
libQt5Widgets.so.5:_ZN7QDialog13keyPressEventEP9QKeyEvent
libQt5Widgets.so.5:_ZN7QDialog16contextMenuEventEP17QContextMenuEvent
libQt5Widgets.so.5:_ZN7QDialog16staticMetaObjectE
libQt5Widgets.so.5:_ZN7QDialog4doneEi
libQt5Widgets.so.5:_ZN7QDialog4execEv
libQt5Widgets.so.5:_ZN7QDialog4openEv
libQt5Widgets.so.5:_ZN7QDialog6acceptEv
libQt5Widgets.so.5:_ZN7QDialog6rejectEv
libQt5Widgets.so.5:_ZN7QDialog8setModalEb
libQt5Widgets.so.5:_ZN7QDialog9showEventEP10QShowEvent
libQt5Widgets.so.5:_ZN7QDialogC2EP7QWidget6QFlagsIN2Qt10WindowTypeEE
libQt5Widgets.so.5:_ZN7QDialogD2Ev
libQt5Widgets.so.5:_ZN7QLayout17setSizeConstraintENS_14SizeConstraintE
libQt5Widgets.so.5:_ZN7QLayout18setContentsMarginsEiiii
libQt5Widgets.so.5:_ZN7QLayout9addWidgetEP7QWidget
libQt5Widgets.so.5:_ZN7QLayout9setMarginEi
libQt5Widgets.so.5:_ZN7QSliderC1EN2Qt11OrientationEP7QWidget
libQt5Widgets.so.5:_ZN7QWidget10closeEventEP11QCloseEvent
libQt5Widgets.so.5:_ZN7QWidget10enterEventEP6QEvent
libQt5Widgets.so.5:_ZN7QWidget10leaveEventEP6QEvent
libQt5Widgets.so.5:_ZN7QWidget10paintEventEP11QPaintEvent
libQt5Widgets.so.5:_ZN7QWidget10setEnabledEb
libQt5Widgets.so.5:_ZN7QWidget10setPaletteERK8QPalette
libQt5Widgets.so.5:_ZN7QWidget10setToolTipERK7QString
libQt5Widgets.so.5:_ZN7QWidget10setVisibleEb
libQt5Widgets.so.5:_ZN7QWidget10showNormalEv
libQt5Widgets.so.5:_ZN7QWidget10wheelEventEP11QWheelEvent
libQt5Widgets.so.5:_ZN7QWidget11actionEventEP12QActionEvent
libQt5Widgets.so.5:_ZN7QWidget11changeEventEP6QEvent
libQt5Widgets.so.5:_ZN7QWidget11nativeEventERK10QByteArrayPvPl
libQt5Widgets.so.5:_ZN7QWidget11qt_metacallEN11QMetaObject4CallEiPPv
libQt5Widgets.so.5:_ZN7QWidget11qt_metacastEPKc
libQt5Widgets.so.5:_ZN7QWidget11resizeEventEP12QResizeEvent
libQt5Widgets.so.5:_ZN7QWidget11tabletEventEP12QTabletEvent
libQt5Widgets.so.5:_ZN7QWidget12focusInEventEP11QFocusEvent
libQt5Widgets.so.5:_ZN7QWidget12grabKeyboardEv
libQt5Widgets.so.5:_ZN7QWidget12setAttributeEN2Qt15WidgetAttributeEb
libQt5Widgets.so.5:_ZN7QWidget12setFixedSizeERK5QSize
libQt5Widgets.so.5:_ZN7QWidget12setFixedSizeEii
libQt5Widgets.so.5:_ZN7QWidget13dragMoveEventEP14QDragMoveEvent
libQt5Widgets.so.5:_ZN7QWidget13focusOutEventEP11QFocusEvent
libQt5Widgets.so.5:_ZN7QWidget13keyPressEventEP9QKeyEvent
libQt5Widgets.so.5:_ZN7QWidget13setFixedWidthEi
libQt5Widgets.so.5:_ZN7QWidget13setSizePolicyE11QSizePolicy
libQt5Widgets.so.5:_ZN7QWidget13setStyleSheetERK7QString
libQt5Widgets.so.5:_ZN7QWidget13setWindowIconERK5QIcon
libQt5Widgets.so.5:_ZN7QWidget13showMaximizedEv
libQt5Widgets.so.5:_ZN7QWidget14dragEnterEventEP15QDragEnterEvent
libQt5Widgets.so.5:_ZN7QWidget14dragLeaveEventEP15QDragLeaveEvent
libQt5Widgets.so.5:_ZN7QWidget14mouseMoveEventEP11QMouseEvent
libQt5Widgets.so.5:_ZN7QWidget14setFixedHeightEi
libQt5Widgets.so.5:_ZN7QWidget14setFocusPolicyEN2Qt11FocusPolicyE
libQt5Widgets.so.5:_ZN7QWidget14setMaximumSizeEii
libQt5Widgets.so.5:_ZN7QWidget14setMinimumSizeEii
libQt5Widgets.so.5:_ZN7QWidget14setWindowFlagsE6QFlagsIN2Qt10WindowTypeEE
libQt5Widgets.so.5:_ZN7QWidget14setWindowTitleERK7QString
libQt5Widgets.so.5:_ZN7QWidget14showFullScreenEv
libQt5Widgets.so.5:_ZN7QWidget15keyReleaseEventEP9QKeyEvent
libQt5Widgets.so.5:_ZN7QWidget15mousePressEventEP11QMouseEvent
libQt5Widgets.so.5:_ZN7QWidget15releaseKeyboardEv
libQt5Widgets.so.5:_ZN7QWidget15setMinimumWidthEi
libQt5Widgets.so.5:_ZN7QWidget16contextMenuEventEP17QContextMenuEvent
libQt5Widgets.so.5:_ZN7QWidget16inputMethodEventEP17QInputMethodEvent
libQt5Widgets.so.5:_ZN7QWidget16staticMetaObjectE
libQt5Widgets.so.5:_ZN7QWidget17mouseReleaseEventEP11QMouseEvent
libQt5Widgets.so.5:_ZN7QWidget17setGraphicsEffectEP15QGraphicsEffect
libQt5Widgets.so.5:_ZN7QWidget18focusNextPrevChildEb
libQt5Widgets.so.5:_ZN7QWidget21mouseDoubleClickEventEP11QMouseEvent
libQt5Widgets.so.5:_ZN7QWidget21setAutoFillBackgroundEb
libQt5Widgets.so.5:_ZN7QWidget4hideEv
libQt5Widgets.so.5:_ZN7QWidget4moveERK6QPoint
libQt5Widgets.so.5:_ZN7QWidget4showEv
libQt5Widgets.so.5:_ZN7QWidget5closeEv
libQt5Widgets.so.5:_ZN7QWidget5eventEP6QEvent
libQt5Widgets.so.5:_ZN7QWidget6resizeERK5QSize
libQt5Widgets.so.5:_ZN7QWidget6updateEv
libQt5Widgets.so.5:_ZN7QWidget8setFocusEN2Qt11FocusReasonE
libQt5Widgets.so.5:_ZN7QWidget9addActionEP7QAction
libQt5Widgets.so.5:_ZN7QWidget9dropEventEP10QDropEvent
libQt5Widgets.so.5:_ZN7QWidget9hideEventEP10QHideEvent
libQt5Widgets.so.5:_ZN7QWidget9moveEventEP10QMoveEvent
libQt5Widgets.so.5:_ZN7QWidget9setCursorERK7QCursor
libQt5Widgets.so.5:_ZN7QWidget9setLayoutEP7QLayout
libQt5Widgets.so.5:_ZN7QWidget9showEventEP10QShowEvent
libQt5Widgets.so.5:_ZN7QWidgetC1EPS_6QFlagsIN2Qt10WindowTypeEE
libQt5Widgets.so.5:_ZN7QWidgetC2EPS_6QFlagsIN2Qt10WindowTypeEE
libQt5Widgets.so.5:_ZN7QWidgetD2Ev
libQt5Widgets.so.5:_ZN8QSpinBox10setMaximumEi
libQt5Widgets.so.5:_ZN8QSpinBox10setMinimumEi
libQt5Widgets.so.5:_ZN8QSpinBox13setSingleStepEi
libQt5Widgets.so.5:_ZN8QSpinBox8setValueEi
libQt5Widgets.so.5:_ZN8QSpinBoxC1EP7QWidget
libQt5Widgets.so.5:_ZN8QToolBar10setMovableEb
libQt5Widgets.so.5:_ZN8QToolBar11setIconSizeERK5QSize
libQt5Widgets.so.5:_ZN8QToolBar12addSeparatorEv
libQt5Widgets.so.5:_ZN8QToolBar9addWidgetEP7QWidget
libQt5Widgets.so.5:_ZN8QToolBarC1EP7QWidget
libQt5Widgets.so.5:_ZN9QCheckBox11setTristateEb
libQt5Widgets.so.5:_ZN9QCheckBox13setCheckStateEN2Qt10CheckStateE
libQt5Widgets.so.5:_ZN9QCheckBoxC1ERK7QStringP7QWidget
libQt5Widgets.so.5:_ZN9QComboBox10insertItemEiRK5QIconRK7QStringRK8QVariant
libQt5Widgets.so.5:_ZN9QComboBox10removeItemEi
libQt5Widgets.so.5:_ZN9QComboBox11setEditableEb
libQt5Widgets.so.5:_ZN9QComboBox15setCurrentIndexEi
libQt5Widgets.so.5:_ZN9QComboBoxC1EP7QWidget
libQt5Widgets.so.5:_ZN9QGroupBoxC1ERK7QStringP7QWidget
libQt5Widgets.so.5:_ZN9QLineEdit10paintEventEP11QPaintEvent
libQt5Widgets.so.5:_ZN9QLineEdit11changeEventEP6QEvent
libQt5Widgets.so.5:_ZN9QLineEdit11qt_metacallEN11QMetaObject4CallEiPPv
libQt5Widgets.so.5:_ZN9QLineEdit11qt_metacastEPKc
libQt5Widgets.so.5:_ZN9QLineEdit11setEchoModeENS_8EchoModeE
libQt5Widgets.so.5:_ZN9QLineEdit11setReadOnlyEb
libQt5Widgets.so.5:_ZN9QLineEdit12focusInEventEP11QFocusEvent
libQt5Widgets.so.5:_ZN9QLineEdit12setAlignmentE6QFlagsIN2Qt13AlignmentFlagEE
libQt5Widgets.so.5:_ZN9QLineEdit12setCompleterEP10QCompleter
libQt5Widgets.so.5:_ZN9QLineEdit12setMaxLengthEi
libQt5Widgets.so.5:_ZN9QLineEdit13cursorForwardEbi
libQt5Widgets.so.5:_ZN9QLineEdit13dragMoveEventEP14QDragMoveEvent
libQt5Widgets.so.5:_ZN9QLineEdit13focusOutEventEP11QFocusEvent
libQt5Widgets.so.5:_ZN9QLineEdit13keyPressEventEP9QKeyEvent
libQt5Widgets.so.5:_ZN9QLineEdit14dragEnterEventEP15QDragEnterEvent
libQt5Widgets.so.5:_ZN9QLineEdit14dragLeaveEventEP15QDragLeaveEvent
libQt5Widgets.so.5:_ZN9QLineEdit14mouseMoveEventEP11QMouseEvent
libQt5Widgets.so.5:_ZN9QLineEdit15mousePressEventEP11QMouseEvent
libQt5Widgets.so.5:_ZN9QLineEdit16contextMenuEventEP17QContextMenuEvent
libQt5Widgets.so.5:_ZN9QLineEdit16inputMethodEventEP17QInputMethodEvent
libQt5Widgets.so.5:_ZN9QLineEdit16staticMetaObjectE
libQt5Widgets.so.5:_ZN9QLineEdit17mouseReleaseEventEP11QMouseEvent
libQt5Widgets.so.5:_ZN9QLineEdit18setPlaceholderTextERK7QString
libQt5Widgets.so.5:_ZN9QLineEdit21mouseDoubleClickEventEP11QMouseEvent
libQt5Widgets.so.5:_ZN9QLineEdit5eventEP6QEvent
libQt5Widgets.so.5:_ZN9QLineEdit7setTextERK7QString
libQt5Widgets.so.5:_ZN9QLineEdit9dropEventEP10QDropEvent
libQt5Widgets.so.5:_ZN9QLineEditC1EP7QWidget
libQt5Widgets.so.5:_ZN9QLineEditC2EP7QWidget
libQt5Widgets.so.5:_ZN9QLineEditD2Ev
libQt5Widgets.so.5:_ZN9QSplitter22setChildrenCollapsibleEb
libQt5Widgets.so.5:_ZN9QSplitter8setSizesERK5QListIiE
libQt5Widgets.so.5:_ZN9QSplitter9addWidgetEP7QWidget
libQt5Widgets.so.5:_ZN9QSplitterC1EP7QWidget
libQt5Widgets.so.5:_ZNK10QScrollBar10metaObjectEv
libQt5Widgets.so.5:_ZNK10QScrollBar8sizeHintEv
libQt5Widgets.so.5:_ZNK10QTabWidget12currentIndexEv
libQt5Widgets.so.5:_ZNK11QFileDialog13selectedFilesEv
libQt5Widgets.so.5:_ZNK11QFileDialog9directoryEv
libQt5Widgets.so.5:_ZNK11QMainWindow13centralWidgetEv
libQt5Widgets.so.5:_ZNK11QMainWindow7menuBarEv
libQt5Widgets.so.5:_ZNK11QPushButton10metaObjectEv
libQt5Widgets.so.5:_ZNK11QPushButton15minimumSizeHintEv
libQt5Widgets.so.5:_ZNK11QPushButton8sizeHintEv
libQt5Widgets.so.5:_ZNK11QPushButton9hitButtonERK6QPoint
libQt5Widgets.so.5:_ZNK11QScrollArea16viewportSizeHintEv
libQt5Widgets.so.5:_ZNK11QToolButton4menuEv
libQt5Widgets.so.5:_ZNK15QAbstractButton9isCheckedEv
libQt5Widgets.so.5:_ZNK15QAbstractSlider11orientationEv
libQt5Widgets.so.5:_ZNK15QAbstractSlider5valueEv
libQt5Widgets.so.5:_ZNK15QAbstractSlider7maximumEv
libQt5Widgets.so.5:_ZNK15QAbstractSlider8pageStepEv
libQt5Widgets.so.5:_ZNK19QAbstractScrollArea15minimumSizeHintEv
libQt5Widgets.so.5:_ZNK19QAbstractScrollArea17verticalScrollBarEv
libQt5Widgets.so.5:_ZNK6QFrame8sizeHintEv
libQt5Widgets.so.5:_ZNK6QLabel10metaObjectEv
libQt5Widgets.so.5:_ZNK6QLabel14heightForWidthEi
libQt5Widgets.so.5:_ZNK6QLabel15minimumSizeHintEv
libQt5Widgets.so.5:_ZNK6QLabel8sizeHintEv
libQt5Widgets.so.5:_ZNK7QDialog10metaObjectEv
libQt5Widgets.so.5:_ZNK7QDialog15minimumSizeHintEv
libQt5Widgets.so.5:_ZNK7QDialog8sizeHintEv
libQt5Widgets.so.5:_ZNK7QLayout12parentWidgetEv
libQt5Widgets.so.5:_ZNK7QWidget10metaObjectEv
libQt5Widgets.so.5:_ZNK7QWidget10redirectedEP6QPoint
libQt5Widgets.so.5:_ZNK7QWidget11initPainterEP8QPainter
libQt5Widgets.so.5:_ZNK7QWidget11isMaximizedEv
libQt5Widgets.so.5:_ZNK7QWidget11paintEngineEv
libQt5Widgets.so.5:_ZNK7QWidget13sharedPainterEv
libQt5Widgets.so.5:_ZNK7QWidget14backgroundRoleEv
libQt5Widgets.so.5:_ZNK7QWidget14heightForWidthEi
libQt5Widgets.so.5:_ZNK7QWidget15minimumSizeHintEv
libQt5Widgets.so.5:_ZNK7QWidget16inputMethodQueryEN2Qt16InputMethodQueryE
libQt5Widgets.so.5:_ZNK7QWidget17hasHeightForWidthEv
libQt5Widgets.so.5:_ZNK7QWidget1xEv
libQt5Widgets.so.5:_ZNK7QWidget1yEv
libQt5Widgets.so.5:_ZNK7QWidget3posEv
libQt5Widgets.so.5:_ZNK7QWidget5styleEv
libQt5Widgets.so.5:_ZNK7QWidget6cursorEv
libQt5Widgets.so.5:_ZNK7QWidget6layoutEv
libQt5Widgets.so.5:_ZNK7QWidget6metricEN12QPaintDevice17PaintDeviceMetricE
libQt5Widgets.so.5:_ZNK7QWidget7devTypeEv
libQt5Widgets.so.5:_ZNK7QWidget7paletteEv
libQt5Widgets.so.5:_ZNK7QWidget8sizeHintEv
libQt5Widgets.so.5:_ZNK8QSpinBox5valueEv
libQt5Widgets.so.5:_ZNK9QCheckBox10checkStateEv
libQt5Widgets.so.5:_ZNK9QComboBox11currentTextEv
libQt5Widgets.so.5:_ZNK9QComboBox5countEv
libQt5Widgets.so.5:_ZNK9QLineEdit10metaObjectEv
libQt5Widgets.so.5:_ZNK9QLineEdit15minimumSizeHintEv
libQt5Widgets.so.5:_ZNK9QLineEdit16inputMethodQueryEN2Qt16InputMethodQueryE
libQt5Widgets.so.5:_ZNK9QLineEdit4textEv
libQt5Widgets.so.5:_ZNK9QLineEdit8sizeHintEv
libQt5Widgets.so.5:_ZNK9QLineEdit9completerEv
libQt5Widgets.so.5:_ZTI10QScrollBar
libQt5Widgets.so.5:_ZTI11QMainWindow
libQt5Widgets.so.5:_ZTI11QPushButton
libQt5Widgets.so.5:_ZTI11QScrollArea
libQt5Widgets.so.5:_ZTI12QApplication
libQt5Widgets.so.5:_ZTI6QFrame
libQt5Widgets.so.5:_ZTI6QLabel
libQt5Widgets.so.5:_ZTI7QAction
libQt5Widgets.so.5:_ZTI7QDialog
libQt5Widgets.so.5:_ZTI7QWidget
libQt5Widgets.so.5:_ZTI9QLineEdit
libQt5Widgets.so.5:_ZThn16_NK7QWidget10redirectedEP6QPoint
libQt5Widgets.so.5:_ZThn16_NK7QWidget11initPainterEP8QPainter
libQt5Widgets.so.5:_ZThn16_NK7QWidget11paintEngineEv
libQt5Widgets.so.5:_ZThn16_NK7QWidget13sharedPainterEv
libQt5Widgets.so.5:_ZThn16_NK7QWidget6metricEN12QPaintDevice17PaintDeviceMetricE
libQt5Widgets.so.5:_ZThn16_NK7QWidget7devTypeEv
libbz2.so.1.0:BZ2_bzDecompress
libbz2.so.1.0:BZ2_bzDecompressEnd
libbz2.so.1.0:BZ2_bzDecompressInit
libc.so.6:__cxa_atexit
libc.so.6:__libc_start_main
libc.so.6:__stack_chk_fail
libc.so.6:access
libc.so.6:closedir
libc.so.6:exit
libc.so.6:fclose
libc.so.6:fdopen
libc.so.6:fopen
libc.so.6:fork
libc.so.6:fread
libc.so.6:fseek
libc.so.6:ftell
libc.so.6:ftime
libc.so.6:fwrite
libc.so.6:getenv
libc.so.6:iconv
libc.so.6:iconv_close
libc.so.6:iconv_open
libc.so.6:isalnum
libc.so.6:isalpha
libc.so.6:isprint
libc.so.6:isspace
libc.so.6:isxdigit
libc.so.6:localtime
libc.so.6:lstat
libc.so.6:memcmp
libc.so.6:memcpy
libc.so.6:memmove
libc.so.6:memset
libc.so.6:mkdir
libc.so.6:mkstemp
libc.so.6:opendir
libc.so.6:readdir
libc.so.6:readlink
libc.so.6:rename
libc.so.6:setlocale
libc.so.6:sprintf
libc.so.6:stat
libc.so.6:strchr
libc.so.6:strcmp
libc.so.6:strcpy
libc.so.6:strlen
libc.so.6:strncpy
libc.so.6:strtod
libc.so.6:strtol
libc.so.6:strtoll
libc.so.6:system
libc.so.6:toupper
libc.so.6:umask
libc.so.6:unlink
libexpat.so.1:XML_ExternalEntityParserCreate
libexpat.so.1:XML_GetCurrentByteIndex
libexpat.so.1:XML_Parse
libexpat.so.1:XML_ParserCreate
libexpat.so.1:XML_ParserFree
libexpat.so.1:XML_ParserReset
libexpat.so.1:XML_SetCharacterDataHandler
libexpat.so.1:XML_SetEncoding
libexpat.so.1:XML_SetEndElementHandler
libexpat.so.1:XML_SetStartElementHandler
libexpat.so.1:XML_SetUnknownEncodingHandler
libexpat.so.1:XML_SetUserData
libexpat.so.1:XML_UseForeignDTD
libfribidi.so.0:fribidi_log2vis
libsqlite3.so.0:sqlite3_bind_double
libsqlite3.so.0:sqlite3_bind_int
libsqlite3.so.0:sqlite3_bind_null
libsqlite3.so.0:sqlite3_bind_parameter_count
libsqlite3.so.0:sqlite3_bind_parameter_index
libsqlite3.so.0:sqlite3_bind_parameter_name
libsqlite3.so.0:sqlite3_bind_text
libsqlite3.so.0:sqlite3_close
libsqlite3.so.0:sqlite3_column_count
libsqlite3.so.0:sqlite3_column_double
libsqlite3.so.0:sqlite3_column_int
libsqlite3.so.0:sqlite3_column_text
libsqlite3.so.0:sqlite3_column_type
libsqlite3.so.0:sqlite3_errcode
libsqlite3.so.0:sqlite3_errmsg
libsqlite3.so.0:sqlite3_finalize
libsqlite3.so.0:sqlite3_open
libsqlite3.so.0:sqlite3_prepare_v2
libsqlite3.so.0:sqlite3_reset
libsqlite3.so.0:sqlite3_step
libstdc++.so.6:_ZNKSt5ctypeIcE13_M_widen_initEv
libstdc++.so.6:_ZNKSt7__cxx1112basic_stringIcSt11char_traitsIcESaIcEE12find_last_ofEPKcmm
libstdc++.so.6:_ZNKSt7__cxx1112basic_stringIcSt11char_traitsIcESaIcEE13find_first_ofEPKcmm
libstdc++.so.6:_ZNKSt7__cxx1112basic_stringIcSt11char_traitsIcESaIcEE17find_first_not_ofEPKcmm
libstdc++.so.6:_ZNKSt7__cxx1112basic_stringIcSt11char_traitsIcESaIcEE4findEPKcmm
libstdc++.so.6:_ZNKSt7__cxx1112basic_stringIcSt11char_traitsIcESaIcEE4findEcm
libstdc++.so.6:_ZNKSt7__cxx1112basic_stringIcSt11char_traitsIcESaIcEE5rfindEPKcmm
libstdc++.so.6:_ZNKSt7__cxx1112basic_stringIcSt11char_traitsIcESaIcEE5rfindEcm
libstdc++.so.6:_ZNKSt7__cxx1112basic_stringIcSt11char_traitsIcESaIcEE7compareEPKc
libstdc++.so.6:_ZNKSt7__cxx1112basic_stringIcSt11char_traitsIcESaIcEE7compareEmmPKc
libstdc++.so.6:_ZNKSt7__cxx1112basic_stringIcSt11char_traitsIcESaIcEE7compareEmmRKS4_
libstdc++.so.6:_ZNSo3putEc
libstdc++.so.6:_ZNSo5flushEv
libstdc++.so.6:_ZNSo9_M_insertIlEERSoT_
libstdc++.so.6:_ZNSo9_M_insertImEERSoT_
libstdc++.so.6:_ZNSolsEi
libstdc++.so.6:_ZNSt7__cxx1112basic_stringIcSt11char_traitsIcESaIcEE10_M_replaceEmmPKcm
libstdc++.so.6:_ZNSt7__cxx1112basic_stringIcSt11char_traitsIcESaIcEE12_M_constructEmc
libstdc++.so.6:_ZNSt7__cxx1112basic_stringIcSt11char_traitsIcESaIcEE14_M_replace_auxEmmmc
libstdc++.so.6:_ZNSt7__cxx1112basic_stringIcSt11char_traitsIcESaIcEE4swapERS4_
libstdc++.so.6:_ZNSt7__cxx1112basic_stringIcSt11char_traitsIcESaIcEE6resizeEmc
libstdc++.so.6:_ZNSt7__cxx1112basic_stringIcSt11char_traitsIcESaIcEE7reserveEm
libstdc++.so.6:_ZNSt7__cxx1112basic_stringIcSt11char_traitsIcESaIcEE8_M_eraseEmm
libstdc++.so.6:_ZNSt7__cxx1112basic_stringIcSt11char_traitsIcESaIcEE9_M_appendEPKcm
libstdc++.so.6:_ZNSt7__cxx1112basic_stringIcSt11char_traitsIcESaIcEE9_M_assignERKS4_
libstdc++.so.6:_ZNSt7__cxx1112basic_stringIcSt11char_traitsIcESaIcEE9_M_createERmm
libstdc++.so.6:_ZNSt7__cxx1112basic_stringIcSt11char_traitsIcESaIcEE9_M_mutateEmmPKcm
libstdc++.so.6:_ZNSt7__cxx1112basic_stringIcSt11char_traitsIcESaIcEEC1EPKcRKS3_
libstdc++.so.6:_ZNSt7__cxx1112basic_stringIcSt11char_traitsIcESaIcEED1Ev
libstdc++.so.6:_ZNSt8__detail15_List_node_base7_M_hookEPS0_
libstdc++.so.6:_ZNSt8__detail15_List_node_base9_M_unhookEv
libstdc++.so.6:_ZNSt8ios_base4InitC1Ev
libstdc++.so.6:_ZNSt8ios_base4InitD1Ev
libstdc++.so.6:_ZSt16__ostream_insertIcSt11char_traitsIcEERSt13basic_ostreamIT_T0_ES6_PKS3_l
libstdc++.so.6:_ZSt16__throw_bad_castv
libstdc++.so.6:_ZSt17__throw_bad_allocv
libstdc++.so.6:_ZSt18_Rb_tree_decrementPKSt18_Rb_tree_node_base
libstdc++.so.6:_ZSt18_Rb_tree_decrementPSt18_Rb_tree_node_base
libstdc++.so.6:_ZSt18_Rb_tree_incrementPKSt18_Rb_tree_node_base
libstdc++.so.6:_ZSt18_Rb_tree_incrementPSt18_Rb_tree_node_base
libstdc++.so.6:_ZSt19__throw_logic_errorPKc
libstdc++.so.6:_ZSt20__throw_length_errorPKc
libstdc++.so.6:_ZSt24__throw_out_of_range_fmtPKcz
libstdc++.so.6:_ZSt28_Rb_tree_rebalance_for_erasePSt18_Rb_tree_node_baseRS_
libstdc++.so.6:_ZSt29_Rb_tree_insert_and_rebalancebPSt18_Rb_tree_node_baseS0_RS_
libstdc++.so.6:_ZSt4cerr
libstdc++.so.6:_ZTVN10__cxxabiv117__class_type_infoE
libstdc++.so.6:_ZTVN10__cxxabiv120__si_class_type_infoE
libstdc++.so.6:_ZTVN10__cxxabiv121__vmi_class_type_infoE
libstdc++.so.6:_ZdaPv
libstdc++.so.6:_ZdlPvm
libstdc++.so.6:_Znam
libstdc++.so.6:_Znwm
libstdc++.so.6:__cxa_guard_acquire
libstdc++.so.6:__cxa_guard_release
libstdc++.so.6:__cxa_pure_virtual
libunibreak.so.3:init_linebreak
libunibreak.so.3:set_linebreaks_utf8
libz.so.1:inflate
libz.so.1:inflateEnd
libz.so.1:inflateInit2_
