libKDSoapWSDiscoveryClient.so.0:_ZN17WSDiscoveryClient11qt_metacallEN11QMetaObject4CallEiPPv
libKDSoapWSDiscoveryClient.so.0:_ZN17WSDiscoveryClient11qt_metacastEPKc
libKDSoapWSDiscoveryClient.so.0:_ZN17WSDiscoveryClient11sendResolveERK7QString
libKDSoapWSDiscoveryClient.so.0:_ZN17WSDiscoveryClient15receivedMessageERK13KDSoapMessageRK13KDSoapHeadersRK12QHostAddresst
libKDSoapWSDiscoveryClient.so.0:_ZN17WSDiscoveryClient16staticMetaObjectE
libKDSoapWSDiscoveryClient.so.0:_ZN17WSDiscoveryClient18probeMatchReceivedERK24WSDiscoveryTargetService
libKDSoapWSDiscoveryClient.so.0:_ZN17WSDiscoveryClient20resolveMatchReceivedERK24WSDiscoveryTargetService
libKDSoapWSDiscoveryClient.so.0:_ZN17WSDiscoveryClient5startEt
libKDSoapWSDiscoveryClient.so.0:_ZN17WSDiscoveryClient9sendProbeERK5QListI7KDQNameERKS0_I4QUrlE
libKDSoapWSDiscoveryClient.so.0:_ZN17WSDiscoveryClientC1EP7QObject
libKDSoapWSDiscoveryClient.so.0:_ZN17WSDiscoveryClientC2EP7QObject
libKDSoapWSDiscoveryClient.so.0:_ZN17WSDiscoveryClientD0Ev
libKDSoapWSDiscoveryClient.so.0:_ZN17WSDiscoveryClientD1Ev
libKDSoapWSDiscoveryClient.so.0:_ZN17WSDiscoveryClientD2Ev
libKDSoapWSDiscoveryClient.so.0:_ZN19WSDiscoveryProbeJob11qt_metacallEN11QMetaObject4CallEiPPv
libKDSoapWSDiscoveryClient.so.0:_ZN19WSDiscoveryProbeJob11qt_metacastEPKc
libKDSoapWSDiscoveryClient.so.0:_ZN19WSDiscoveryProbeJob11setIntervalEi
libKDSoapWSDiscoveryClient.so.0:_ZN19WSDiscoveryProbeJob11setTypeListERK5QListI7KDQNameE
libKDSoapWSDiscoveryClient.so.0:_ZN19WSDiscoveryProbeJob12setScopeListERK5QListI4QUrlE
libKDSoapWSDiscoveryClient.so.0:_ZN19WSDiscoveryProbeJob13matchReceivedERK24WSDiscoveryTargetService
libKDSoapWSDiscoveryClient.so.0:_ZN19WSDiscoveryProbeJob16staticMetaObjectE
libKDSoapWSDiscoveryClient.so.0:_ZN19WSDiscoveryProbeJob18probeMatchReceivedERK24WSDiscoveryTargetService
libKDSoapWSDiscoveryClient.so.0:_ZN19WSDiscoveryProbeJob4stopEv
libKDSoapWSDiscoveryClient.so.0:_ZN19WSDiscoveryProbeJob5startEv
libKDSoapWSDiscoveryClient.so.0:_ZN19WSDiscoveryProbeJob7addTypeERK7KDQName
libKDSoapWSDiscoveryClient.so.0:_ZN19WSDiscoveryProbeJob7timeoutEv
libKDSoapWSDiscoveryClient.so.0:_ZN19WSDiscoveryProbeJob8addScopeERK4QUrl
libKDSoapWSDiscoveryClient.so.0:_ZN19WSDiscoveryProbeJobC1EP17WSDiscoveryClient
libKDSoapWSDiscoveryClient.so.0:_ZN19WSDiscoveryProbeJobC2EP17WSDiscoveryClient
libKDSoapWSDiscoveryClient.so.0:_ZN24WSDiscoveryTargetService11setLastSeenERK9QDateTime
libKDSoapWSDiscoveryClient.so.0:_ZN24WSDiscoveryTargetService11setTypeListERK5QListI7KDQNameE
libKDSoapWSDiscoveryClient.so.0:_ZN24WSDiscoveryTargetService12setScopeListERK5QListI4QUrlE
libKDSoapWSDiscoveryClient.so.0:_ZN24WSDiscoveryTargetService12setXAddrListERK5QListI4QUrlE
libKDSoapWSDiscoveryClient.so.0:_ZN24WSDiscoveryTargetService14updateLastSeenEv
libKDSoapWSDiscoveryClient.so.0:_ZN24WSDiscoveryTargetService20setEndpointReferenceERK7QString
libKDSoapWSDiscoveryClient.so.0:_ZN24WSDiscoveryTargetServiceC1ERK7QString
libKDSoapWSDiscoveryClient.so.0:_ZN24WSDiscoveryTargetServiceC1ERKS_
libKDSoapWSDiscoveryClient.so.0:_ZN24WSDiscoveryTargetServiceC1Ev
libKDSoapWSDiscoveryClient.so.0:_ZN24WSDiscoveryTargetServiceC2ERK7QString
libKDSoapWSDiscoveryClient.so.0:_ZN24WSDiscoveryTargetServiceC2ERKS_
libKDSoapWSDiscoveryClient.so.0:_ZN24WSDiscoveryTargetServiceC2Ev
libKDSoapWSDiscoveryClient.so.0:_ZN24WSDiscoveryTargetServiceD1Ev
libKDSoapWSDiscoveryClient.so.0:_ZN24WSDiscoveryTargetServiceD2Ev
libKDSoapWSDiscoveryClient.so.0:_ZN28WSDiscoveryServiceAggregator11qt_metacallEN11QMetaObject4CallEiPPv
libKDSoapWSDiscoveryClient.so.0:_ZN28WSDiscoveryServiceAggregator11qt_metacastEPKc
libKDSoapWSDiscoveryClient.so.0:_ZN28WSDiscoveryServiceAggregator13updateServiceERK24WSDiscoveryTargetService
libKDSoapWSDiscoveryClient.so.0:_ZN28WSDiscoveryServiceAggregator14serviceUpdatedERK14QSharedPointerI24WSDiscoveryTargetServiceE
libKDSoapWSDiscoveryClient.so.0:_ZN28WSDiscoveryServiceAggregator16staticMetaObjectE
libKDSoapWSDiscoveryClient.so.0:_ZN28WSDiscoveryServiceAggregatorC1EP7QObject
libKDSoapWSDiscoveryClient.so.0:_ZN28WSDiscoveryServiceAggregatorC2EP7QObject
libKDSoapWSDiscoveryClient.so.0:_ZN28WSDiscoveryServiceAggregatorD0Ev
libKDSoapWSDiscoveryClient.so.0:_ZN28WSDiscoveryServiceAggregatorD1Ev
libKDSoapWSDiscoveryClient.so.0:_ZN28WSDiscoveryServiceAggregatorD2Ev
libKDSoapWSDiscoveryClient.so.0:_ZNK17WSDiscoveryClient10metaObjectEv
libKDSoapWSDiscoveryClient.so.0:_ZNK19WSDiscoveryProbeJob10metaObjectEv
libKDSoapWSDiscoveryClient.so.0:_ZNK19WSDiscoveryProbeJob8intervalEv
libKDSoapWSDiscoveryClient.so.0:_ZNK19WSDiscoveryProbeJob8typeListEv
libKDSoapWSDiscoveryClient.so.0:_ZNK19WSDiscoveryProbeJob9scopeListEv
libKDSoapWSDiscoveryClient.so.0:_ZNK24WSDiscoveryTargetService14isMatchingTypeERK7KDQName
libKDSoapWSDiscoveryClient.so.0:_ZNK24WSDiscoveryTargetService15isMatchingScopeERK4QUrl
libKDSoapWSDiscoveryClient.so.0:_ZNK24WSDiscoveryTargetService17endpointReferenceEv
libKDSoapWSDiscoveryClient.so.0:_ZNK24WSDiscoveryTargetService8lastSeenEv
libKDSoapWSDiscoveryClient.so.0:_ZNK24WSDiscoveryTargetService8typeListEv
libKDSoapWSDiscoveryClient.so.0:_ZNK24WSDiscoveryTargetService9scopeListEv
libKDSoapWSDiscoveryClient.so.0:_ZNK24WSDiscoveryTargetService9xAddrListEv
libKDSoapWSDiscoveryClient.so.0:_ZNK28WSDiscoveryServiceAggregator10metaObjectEv
libKDSoapWSDiscoveryClient.so.0:_ZTI17WSDiscoveryClient
libKDSoapWSDiscoveryClient.so.0:_ZTI19WSDiscoveryProbeJob
libKDSoapWSDiscoveryClient.so.0:_ZTI28WSDiscoveryServiceAggregator
libKDSoapWSDiscoveryClient.so.0:_ZTS17WSDiscoveryClient
libKDSoapWSDiscoveryClient.so.0:_ZTS19WSDiscoveryProbeJob
libKDSoapWSDiscoveryClient.so.0:_ZTS28WSDiscoveryServiceAggregator
libKDSoapWSDiscoveryClient.so.0:_ZTV17WSDiscoveryClient
libKDSoapWSDiscoveryClient.so.0:_ZTV19WSDiscoveryProbeJob
libKDSoapWSDiscoveryClient.so.0:_ZTV28WSDiscoveryServiceAggregator
