crashpad_handler:_IO_stdin_used
crashpad_handler:_ZdaPv
crashpad_handler:_ZdaPvRKSt9nothrow_t
crashpad_handler:_ZdaPvSt11align_val_t
crashpad_handler:_ZdaPvSt11align_val_tRKSt9nothrow_t
crashpad_handler:_ZdaPvm
crashpad_handler:_ZdaPvmSt11align_val_t
crashpad_handler:_ZdlPv
crashpad_handler:_ZdlPvRKSt9nothrow_t
crashpad_handler:_ZdlPvSt11align_val_t
crashpad_handler:_ZdlPvSt11align_val_tRKSt9nothrow_t
crashpad_handler:_ZdlPvm
crashpad_handler:_ZdlPvmSt11align_val_t
crashpad_handler:_Znam
crashpad_handler:_ZnamRKSt9nothrow_t
crashpad_handler:_ZnamSt11align_val_t
crashpad_handler:_ZnamSt11align_val_tRKSt9nothrow_t
crashpad_handler:_Znwm
crashpad_handler:_ZnwmRKSt9nothrow_t
crashpad_handler:_ZnwmSt11align_val_t
crashpad_handler:_ZnwmSt11align_val_tRKSt9nothrow_t
crashpad_handler:__data_start
crashpad_handler:__libc_csu_fini
crashpad_handler:__libc_csu_init
crashpad_handler:_start
crashpad_handler:calloc
crashpad_handler:cfree
crashpad_handler:free
crashpad_handler:malloc
crashpad_handler:malloc_size
crashpad_handler:malloc_usable_size
crashpad_handler:memalign
crashpad_handler:posix_memalign
crashpad_handler:pvalloc
crashpad_handler:realloc
crashpad_handler:valloc
libEGL.so:eglBindAPI
libEGL.so:eglBindTexImage
libEGL.so:eglChooseConfig
libEGL.so:eglClientWaitSync
libEGL.so:eglClientWaitSyncKHR
libEGL.so:eglCopyBuffers
libEGL.so:eglCreateContext
libEGL.so:eglCreateDeviceANGLE
libEGL.so:eglCreateImage
libEGL.so:eglCreateImageKHR
libEGL.so:eglCreatePbufferFromClientBuffer
libEGL.so:eglCreatePbufferSurface
libEGL.so:eglCreatePixmapSurface
libEGL.so:eglCreatePlatformPixmapSurface
libEGL.so:eglCreatePlatformPixmapSurfaceEXT
libEGL.so:eglCreatePlatformWindowSurface
libEGL.so:eglCreatePlatformWindowSurfaceEXT
libEGL.so:eglCreateStreamKHR
libEGL.so:eglCreateStreamProducerD3DTextureANGLE
libEGL.so:eglCreateSync
libEGL.so:eglCreateSyncKHR
libEGL.so:eglCreateWindowSurface
libEGL.so:eglDebugMessageControlKHR
libEGL.so:eglDestroyContext
libEGL.so:eglDestroyImage
libEGL.so:eglDestroyImageKHR
libEGL.so:eglDestroyStreamKHR
libEGL.so:eglDestroySurface
libEGL.so:eglDestroySync
libEGL.so:eglDestroySyncKHR
libEGL.so:eglDupNativeFenceFDANDROID
libEGL.so:eglGetCompositorTimingANDROID
libEGL.so:eglGetCompositorTimingSupportedANDROID
libEGL.so:eglGetConfigAttrib
libEGL.so:eglGetConfigs
libEGL.so:eglGetCurrentContext
libEGL.so:eglGetCurrentDisplay
libEGL.so:eglGetCurrentSurface
libEGL.so:eglGetDisplay
libEGL.so:eglGetError
libEGL.so:eglGetFrameTimestampSupportedANDROID
libEGL.so:eglGetFrameTimestampsANDROID
libEGL.so:eglGetMscRateCHROMIUM
libEGL.so:eglGetNativeClientBufferANDROID
libEGL.so:eglGetNextFrameIdANDROID
libEGL.so:eglGetPlatformDisplay
libEGL.so:eglGetPlatformDisplayEXT
libEGL.so:eglGetProcAddress
libEGL.so:eglGetSyncAttrib
libEGL.so:eglGetSyncAttribKHR
libEGL.so:eglGetSyncValuesCHROMIUM
libEGL.so:eglInitialize
libEGL.so:eglLabelObjectKHR
libEGL.so:eglMakeCurrent
libEGL.so:eglPostSubBufferNV
libEGL.so:eglPresentationTimeANDROID
libEGL.so:eglProgramCacheGetAttribANGLE
libEGL.so:eglProgramCachePopulateANGLE
libEGL.so:eglProgramCacheQueryANGLE
libEGL.so:eglProgramCacheResizeANGLE
libEGL.so:eglQueryAPI
libEGL.so:eglQueryContext
libEGL.so:eglQueryDebugKHR
libEGL.so:eglQueryDeviceAttribEXT
libEGL.so:eglQueryDeviceStringEXT
libEGL.so:eglQueryDisplayAttribANGLE
libEGL.so:eglQueryDisplayAttribEXT
libEGL.so:eglQueryStreamKHR
libEGL.so:eglQueryStreamu64KHR
libEGL.so:eglQueryString
libEGL.so:eglQueryStringiANGLE
libEGL.so:eglQuerySurface
libEGL.so:eglQuerySurfacePointerANGLE
libEGL.so:eglReleaseDeviceANGLE
libEGL.so:eglReleaseTexImage
libEGL.so:eglReleaseThread
libEGL.so:eglSetBlobCacheFuncsANDROID
libEGL.so:eglStreamAttribKHR
libEGL.so:eglStreamConsumerAcquireKHR
libEGL.so:eglStreamConsumerGLTextureExternalAttribsNV
libEGL.so:eglStreamConsumerGLTextureExternalKHR
libEGL.so:eglStreamConsumerReleaseKHR
libEGL.so:eglStreamPostD3DTextureANGLE
libEGL.so:eglSurfaceAttrib
libEGL.so:eglSwapBuffers
libEGL.so:eglSwapBuffersWithDamageKHR
libEGL.so:eglSwapBuffersWithFrameTokenANGLE
libEGL.so:eglSwapInterval
libEGL.so:eglTerminate
libEGL.so:eglWaitClient
libEGL.so:eglWaitGL
libEGL.so:eglWaitNative
libEGL.so:eglWaitSync
libEGL.so:libEGL_swiftshader
libGLESv2.so:ANGLEGetDisplayPlatform
libGLESv2.so:ANGLEResetDisplayPlatform
libGLESv2.so:EGL_BindAPI
libGLESv2.so:EGL_BindTexImage
libGLESv2.so:EGL_ChooseConfig
libGLESv2.so:EGL_ClientWaitSync
libGLESv2.so:EGL_ClientWaitSyncKHR
libGLESv2.so:EGL_CopyBuffers
libGLESv2.so:EGL_CreateContext
libGLESv2.so:EGL_CreateDeviceANGLE
libGLESv2.so:EGL_CreateImage
libGLESv2.so:EGL_CreateImageKHR
libGLESv2.so:EGL_CreatePbufferFromClientBuffer
libGLESv2.so:EGL_CreatePbufferSurface
libGLESv2.so:EGL_CreatePixmapSurface
libGLESv2.so:EGL_CreatePlatformPixmapSurface
libGLESv2.so:EGL_CreatePlatformPixmapSurfaceEXT
libGLESv2.so:EGL_CreatePlatformWindowSurface
libGLESv2.so:EGL_CreatePlatformWindowSurfaceEXT
libGLESv2.so:EGL_CreateStreamKHR
libGLESv2.so:EGL_CreateStreamProducerD3DTextureANGLE
libGLESv2.so:EGL_CreateSync
libGLESv2.so:EGL_CreateSyncKHR
libGLESv2.so:EGL_CreateWindowSurface
libGLESv2.so:EGL_DebugMessageControlKHR
libGLESv2.so:EGL_DestroyContext
libGLESv2.so:EGL_DestroyImage
libGLESv2.so:EGL_DestroyImageKHR
libGLESv2.so:EGL_DestroyStreamKHR
libGLESv2.so:EGL_DestroySurface
libGLESv2.so:EGL_DestroySync
libGLESv2.so:EGL_DestroySyncKHR
libGLESv2.so:EGL_DupNativeFenceFDANDROID
libGLESv2.so:EGL_GetCompositorTimingANDROID
libGLESv2.so:EGL_GetCompositorTimingSupportedANDROID
libGLESv2.so:EGL_GetConfigAttrib
libGLESv2.so:EGL_GetConfigs
libGLESv2.so:EGL_GetCurrentContext
libGLESv2.so:EGL_GetCurrentDisplay
libGLESv2.so:EGL_GetCurrentSurface
libGLESv2.so:EGL_GetDisplay
libGLESv2.so:EGL_GetError
libGLESv2.so:EGL_GetFrameTimestampSupportedANDROID
libGLESv2.so:EGL_GetFrameTimestampsANDROID
libGLESv2.so:EGL_GetMscRateCHROMIUM
libGLESv2.so:EGL_GetNativeClientBufferANDROID
libGLESv2.so:EGL_GetNextFrameIdANDROID
libGLESv2.so:EGL_GetPlatformDisplay
libGLESv2.so:EGL_GetPlatformDisplayEXT
libGLESv2.so:EGL_GetProcAddress
libGLESv2.so:EGL_GetSyncAttrib
libGLESv2.so:EGL_GetSyncAttribKHR
libGLESv2.so:EGL_GetSyncValuesCHROMIUM
libGLESv2.so:EGL_Initialize
libGLESv2.so:EGL_LabelObjectKHR
libGLESv2.so:EGL_MakeCurrent
libGLESv2.so:EGL_PostSubBufferNV
libGLESv2.so:EGL_PresentationTimeANDROID
libGLESv2.so:EGL_ProgramCacheGetAttribANGLE
libGLESv2.so:EGL_ProgramCachePopulateANGLE
libGLESv2.so:EGL_ProgramCacheQueryANGLE
libGLESv2.so:EGL_ProgramCacheResizeANGLE
libGLESv2.so:EGL_QueryAPI
libGLESv2.so:EGL_QueryContext
libGLESv2.so:EGL_QueryDebugKHR
libGLESv2.so:EGL_QueryDeviceAttribEXT
libGLESv2.so:EGL_QueryDeviceStringEXT
libGLESv2.so:EGL_QueryDisplayAttribANGLE
libGLESv2.so:EGL_QueryDisplayAttribEXT
libGLESv2.so:EGL_QueryStreamKHR
libGLESv2.so:EGL_QueryStreamu64KHR
libGLESv2.so:EGL_QueryString
libGLESv2.so:EGL_QueryStringiANGLE
libGLESv2.so:EGL_QuerySurface
libGLESv2.so:EGL_QuerySurfacePointerANGLE
libGLESv2.so:EGL_ReleaseDeviceANGLE
libGLESv2.so:EGL_ReleaseTexImage
libGLESv2.so:EGL_ReleaseThread
libGLESv2.so:EGL_SetBlobCacheFuncsANDROID
libGLESv2.so:EGL_StreamAttribKHR
libGLESv2.so:EGL_StreamConsumerAcquireKHR
libGLESv2.so:EGL_StreamConsumerGLTextureExternalAttribsNV
libGLESv2.so:EGL_StreamConsumerGLTextureExternalKHR
libGLESv2.so:EGL_StreamConsumerReleaseKHR
libGLESv2.so:EGL_StreamPostD3DTextureANGLE
libGLESv2.so:EGL_SurfaceAttrib
libGLESv2.so:EGL_SwapBuffers
libGLESv2.so:EGL_SwapBuffersWithDamageKHR
libGLESv2.so:EGL_SwapBuffersWithFrameTokenANGLE
libGLESv2.so:EGL_SwapInterval
libGLESv2.so:EGL_Terminate
libGLESv2.so:EGL_WaitClient
libGLESv2.so:EGL_WaitGL
libGLESv2.so:EGL_WaitNative
libGLESv2.so:EGL_WaitSync
libGLESv2.so:EGL_WaitSyncKHR
libGLESv2.so:_ZN2gl10AlphaFuncxEji
libGLESv2.so:_ZN2gl10BeginQueryEjj
libGLESv2.so:_ZN2gl10BindBufferEjj
libGLESv2.so:_ZN2gl10BlendColorEffff
libGLESv2.so:_ZN2gl10BlendFunciEjjj
libGLESv2.so:_ZN2gl10BufferDataEjlPKvj
libGLESv2.so:_ZN2gl10ClearColorEffff
libGLESv2.so:_ZN2gl10ClipPlanefEjPKf
libGLESv2.so:_ZN2gl10ClipPlanexEjPKi
libGLESv2.so:_ZN2gl10ColorMaskiEjhhhh
libGLESv2.so:_ZN2gl10DeleteSyncEP8__GLsync
libGLESv2.so:_ZN2gl10DrawArraysEjii
libGLESv2.so:_ZN2gl10GenBuffersEiPj
libGLESv2.so:_ZN2gl10GenQueriesEiPj
libGLESv2.so:_ZN2gl10GetLightfvEjjPf
libGLESv2.so:_ZN2gl10GetLightxvEjjPi
libGLESv2.so:_ZN2gl10GetQueryivEjjPi
libGLESv2.so:_ZN2gl10GetStringiEjj
libGLESv2.so:_ZN2gl10IsEnablediEjj
libGLESv2.so:_ZN2gl10IsQueryEXTEj
libGLESv2.so:_ZN2gl10LineWidthxEi
libGLESv2.so:_ZN2gl10MaterialfvEjjPKf
libGLESv2.so:_ZN2gl10MaterialxvEjjPKi
libGLESv2.so:_ZN2gl10MatrixModeEj
libGLESv2.so:_ZN2gl10PointSizexEi
libGLESv2.so:_ZN2gl10PushMatrixEv
libGLESv2.so:_ZN2gl10ReadBufferEj
libGLESv2.so:_ZN2gl10ReadPixelsEiiiijjPv
libGLESv2.so:_ZN2gl10SetFenceNVEjj
libGLESv2.so:_ZN2gl10ShadeModelEj
libGLESv2.so:_ZN2gl10TexGenfOESEjjf
libGLESv2.so:_ZN2gl10TexGeniOESEjji
libGLESv2.so:_ZN2gl10TexGenxOESEjji
libGLESv2.so:_ZN2gl10TexImage2DEjiiiiijjPKv
libGLESv2.so:_ZN2gl10TexImage3DEjiiiiiijjPKv
libGLESv2.so:_ZN2gl10TranslatefEfff
libGLESv2.so:_ZN2gl10TranslatexEiii
libGLESv2.so:_ZN2gl10Uniform1fvEiiPKf
libGLESv2.so:_ZN2gl10Uniform1ivEiiPKi
libGLESv2.so:_ZN2gl10Uniform1uiEij
libGLESv2.so:_ZN2gl10Uniform2fvEiiPKf
libGLESv2.so:_ZN2gl10Uniform2ivEiiPKi
libGLESv2.so:_ZN2gl10Uniform2uiEijj
libGLESv2.so:_ZN2gl10Uniform3fvEiiPKf
libGLESv2.so:_ZN2gl10Uniform3ivEiiPKi
libGLESv2.so:_ZN2gl10Uniform3uiEijjj
libGLESv2.so:_ZN2gl10Uniform4fvEiiPKf
libGLESv2.so:_ZN2gl10Uniform4ivEiiPKi
libGLESv2.so:_ZN2gl10Uniform4uiEijjjj
libGLESv2.so:_ZN2gl10UseProgramEj
libGLESv2.so:_ZN2gl11BindSamplerEjj
libGLESv2.so:_ZN2gl11BindTextureEjj
libGLESv2.so:_ZN2gl11ClearColorxEiiii
libGLESv2.so:_ZN2gl11ClearDepthfEf
libGLESv2.so:_ZN2gl11ClearDepthxEi
libGLESv2.so:_ZN2gl11DepthRangefEff
libGLESv2.so:_ZN2gl11DepthRangexEii
libGLESv2.so:_ZN2gl11DrawBuffersEiPKj
libGLESv2.so:_ZN2gl11DrawTexfOESEfffff
libGLESv2.so:_ZN2gl11DrawTexiOESEiiiii
libGLESv2.so:_ZN2gl11DrawTexsOESEsssss
libGLESv2.so:_ZN2gl11DrawTexxOESEiiiii
libGLESv2.so:_ZN2gl11EndQueryEXTEj
libGLESv2.so:_ZN2gl11GenFencesNVEiPj
libGLESv2.so:_ZN2gl11GenSamplersEiPj
libGLESv2.so:_ZN2gl11GenTexturesEiPj
libGLESv2.so:_ZN2gl11GetBooleanvEjPh
libGLESv2.so:_ZN2gl11GetIntegervEjPi
libGLESv2.so:_ZN2gl11GetPointervEjPPv
libGLESv2.so:_ZN2gl11GetShaderivEjjPi
libGLESv2.so:_ZN2gl11GetTexEnvfvEjjPf
libGLESv2.so:_ZN2gl11GetTexEnvivEjjPi
libGLESv2.so:_ZN2gl11GetTexEnvxvEjjPi
libGLESv2.so:_ZN2gl11LightModelfEjf
libGLESv2.so:_ZN2gl11LightModelxEji
libGLESv2.so:_ZN2gl11LinkProgramEj
libGLESv2.so:_ZN2gl11LoadMatrixfEPKf
libGLESv2.so:_ZN2gl11LoadMatrixxEPKi
libGLESv2.so:_ZN2gl11MultMatrixfEPKf
libGLESv2.so:_ZN2gl11MultMatrixxEPKi
libGLESv2.so:_ZN2gl11ObjectLabelEjjiPKc
libGLESv2.so:_ZN2gl11PixelStoreiEji
libGLESv2.so:_ZN2gl11ReadnPixelsEiiiijjiPv
libGLESv2.so:_ZN2gl11SampleMaskiEjj
libGLESv2.so:_ZN2gl11StencilFuncEjij
libGLESv2.so:_ZN2gl11StencilMaskEj
libGLESv2.so:_ZN2gl11TestFenceNVEj
libGLESv2.so:_ZN2gl11TexGenfvOESEjjPKf
libGLESv2.so:_ZN2gl11TexGenivOESEjjPKi
libGLESv2.so:_ZN2gl11TexGenxvOESEjjPKi
libGLESv2.so:_ZN2gl11Uniform1uivEiiPKj
libGLESv2.so:_ZN2gl11Uniform2uivEiiPKj
libGLESv2.so:_ZN2gl11Uniform3uivEiiPKj
libGLESv2.so:_ZN2gl11Uniform4uivEiiPKj
libGLESv2.so:_ZN2gl11UnmapBufferEj
libGLESv2.so:_ZN2gl12AttachShaderEjj
libGLESv2.so:_ZN2gl12BlendBarrierEv
libGLESv2.so:_ZN2gl12ClearStencilEi
libGLESv2.so:_ZN2gl12ColorPointerEijiPKv
libGLESv2.so:_ZN2gl12CreateShaderEj
libGLESv2.so:_ZN2gl12DeleteShaderEj
libGLESv2.so:_ZN2gl12DetachShaderEjj
libGLESv2.so:_ZN2gl12DrawElementsEjijPKv
libGLESv2.so:_ZN2gl12DrawTexfvOESEPKf
libGLESv2.so:_ZN2gl12DrawTexivOESEPKi
libGLESv2.so:_ZN2gl12DrawTexsvOESEPKs
libGLESv2.so:_ZN2gl12DrawTexxvOESEPKi
libGLESv2.so:_ZN2gl12GetFenceivNVEjjPi
libGLESv2.so:_ZN2gl12GetProgramivEjjPi
libGLESv2.so:_ZN2gl12GetUniformfvEjiPf
libGLESv2.so:_ZN2gl12GetUniformivEjiPi
libGLESv2.so:_ZN2gl12LightModelfvEjPKf
libGLESv2.so:_ZN2gl12LightModelxvEjPKi
libGLESv2.so:_ZN2gl12LoadIdentityEv
libGLESv2.so:_ZN2gl12MapBufferOESEjj
libGLESv2.so:_ZN2gl12ShaderBinaryEiPKjjPKvi
libGLESv2.so:_ZN2gl12ShaderSourceEjiPKPKcPKi
libGLESv2.so:_ZN2gl12TexStorage2DEjijii
libGLESv2.so:_ZN2gl12TexStorage3DEjijiii
libGLESv2.so:_ZN2gl13ActiveTextureEj
libGLESv2.so:_ZN2gl13BeginQueryEXTEjj
libGLESv2.so:_ZN2gl13BlendEquationEj
libGLESv2.so:_ZN2gl13BufferSubDataEjllPKv
libGLESv2.so:_ZN2gl13ClearBufferfiEjifi
libGLESv2.so:_ZN2gl13ClearBufferfvEjiPKf
libGLESv2.so:_ZN2gl13ClearBufferivEjiPKi
libGLESv2.so:_ZN2gl13CompileShaderEj
libGLESv2.so:_ZN2gl13CreateProgramEv
libGLESv2.so:_ZN2gl13DeleteBuffersEiPKj
libGLESv2.so:_ZN2gl13DeleteProgramEj
libGLESv2.so:_ZN2gl13DeleteQueriesEiPKj
libGLESv2.so:_ZN2gl13FinishFenceNVEj
libGLESv2.so:_ZN2gl13GenQueriesEXTEiPj
libGLESv2.so:_ZN2gl13GetBooleani_vEjjPh
libGLESv2.so:_ZN2gl13GetClipPlanefEjPf
libGLESv2.so:_ZN2gl13GetClipPlanexEjPi
libGLESv2.so:_ZN2gl13GetInteger64vEjPl
libGLESv2.so:_ZN2gl13GetIntegeri_vEjjPi
libGLESv2.so:_ZN2gl13GetMaterialfvEjjPf
libGLESv2.so:_ZN2gl13GetMaterialxvEjjPi
libGLESv2.so:_ZN2gl13GetQueryivEXTEjjPi
libGLESv2.so:_ZN2gl13GetUniformuivEjiPj
libGLESv2.so:_ZN2gl13GetnUniformfvEjiiPf
libGLESv2.so:_ZN2gl13GetnUniformivEjiiPi
libGLESv2.so:_ZN2gl13IsFramebufferEj
libGLESv2.so:_ZN2gl13IsVertexArrayEj
libGLESv2.so:_ZN2gl13MemoryBarrierEj
libGLESv2.so:_ZN2gl13NormalPointerEjiPKv
libGLESv2.so:_ZN2gl13PolygonOffsetEff
libGLESv2.so:_ZN2gl13PopDebugGroupEv
libGLESv2.so:_ZN2gl13ProgramBinaryEjjPKvi
libGLESv2.so:_ZN2gl13TexImage3DOESEjijiiiijjPKv
libGLESv2.so:_ZN2gl13TexParameterfEjjf
libGLESv2.so:_ZN2gl13TexParameteriEjji
libGLESv2.so:_ZN2gl13TexParameterxEjji
libGLESv2.so:_ZN2gl13TexSubImage2DEjiiiiijjPKv
libGLESv2.so:_ZN2gl13TexSubImage3DEjiiiiiiijjPKv
libGLESv2.so:_ZN2gl13VertexPointerEijiPKv
libGLESv2.so:_ZN2gl14BindBufferBaseEjjj
libGLESv2.so:_ZN2gl14BlendEquationiEjj
libGLESv2.so:_ZN2gl14ClearBufferuivEjiPKj
libGLESv2.so:_ZN2gl14ClientWaitSyncEP8__GLsyncjm
libGLESv2.so:_ZN2gl14CopyTexImage2DEjijiiiii
libGLESv2.so:_ZN2gl14DeleteFencesNVEiPKj
libGLESv2.so:_ZN2gl14DeleteSamplersEiPKj
libGLESv2.so:_ZN2gl14DeleteTexturesEiPKj
libGLESv2.so:_ZN2gl14DrawBuffersEXTEiPKj
libGLESv2.so:_ZN2gl14GenerateMipmapEj
libGLESv2.so:_ZN2gl14GetObjectLabelEjjiPiPc
libGLESv2.so:_ZN2gl14GetPointervKHREjPPv
libGLESv2.so:_ZN2gl14GetTexGenfvOESEjjPf
libGLESv2.so:_ZN2gl14GetTexGenivOESEjjPi
libGLESv2.so:_ZN2gl14GetTexGenxvOESEjjPi
libGLESv2.so:_ZN2gl14GetnUniformuivEjiiPj
libGLESv2.so:_ZN2gl14IsPathCHROMIUMEj
libGLESv2.so:_ZN2gl14IsRenderbufferEj
libGLESv2.so:_ZN2gl14IsSemaphoreEXTEj
libGLESv2.so:_ZN2gl14MapBufferRangeEjllj
libGLESv2.so:_ZN2gl14ObjectLabelKHREjjiPKc
libGLESv2.so:_ZN2gl14ObjectPtrLabelEPKviPKc
libGLESv2.so:_ZN2gl14PolygonOffsetxEii
libGLESv2.so:_ZN2gl14PushDebugGroupEjjiPKc
libGLESv2.so:_ZN2gl14ReadnPixelsEXTEiiiijjiPv
libGLESv2.so:_ZN2gl14SampleCoverageEfh
libGLESv2.so:_ZN2gl14TexBufferRangeEjjjll
libGLESv2.so:_ZN2gl14TexParameterfvEjjPKf
libGLESv2.so:_ZN2gl14TexParameterivEjjPKi
libGLESv2.so:_ZN2gl14TexParameterxvEjjPKi
libGLESv2.so:_ZN2gl14UnmapBufferOESEj
libGLESv2.so:_ZN2gl14VertexAttrib1fEjf
libGLESv2.so:_ZN2gl14VertexAttrib2fEjff
libGLESv2.so:_ZN2gl14VertexAttrib3fEjfff
libGLESv2.so:_ZN2gl14VertexAttrib4fEjffff
libGLESv2.so:_ZN2gl15BindBufferRangeEjjjll
libGLESv2.so:_ZN2gl15BindFramebufferEjj
libGLESv2.so:_ZN2gl15BindVertexArrayEj
libGLESv2.so:_ZN2gl15BlitFramebufferEiiiiiiiijj
libGLESv2.so:_ZN2gl15DispatchComputeEjjj
libGLESv2.so:_ZN2gl15GenFramebuffersEiPj
libGLESv2.so:_ZN2gl15GenVertexArraysEiPj
libGLESv2.so:_ZN2gl15GetActiveAttribEjjiPiS0_PjPc
libGLESv2.so:_ZN2gl15GetInteger64i_vEjjPl
libGLESv2.so:_ZN2gl15GetShaderSourceEjiPiPc
libGLESv2.so:_ZN2gl15MultiTexCoord4fEjffff
libGLESv2.so:_ZN2gl15MultiTexCoord4xEjiiii
libGLESv2.so:_ZN2gl15PatchParameteriEji
libGLESv2.so:_ZN2gl15PointParameterfEjf
libGLESv2.so:_ZN2gl15PointParameterxEji
libGLESv2.so:_ZN2gl15QueryCounterEXTEjj
libGLESv2.so:_ZN2gl15QueryMatrixxOESEPiS0_
libGLESv2.so:_ZN2gl15SampleCoveragexEih
libGLESv2.so:_ZN2gl15TexCoordPointerEijiPKv
libGLESv2.so:_ZN2gl15TexParameterIivEjjPKi
libGLESv2.so:_ZN2gl15TexStorage1DEXTEjiji
libGLESv2.so:_ZN2gl15TexStorage2DEXTEjijii
libGLESv2.so:_ZN2gl15TexStorage3DEXTEjijiii
libGLESv2.so:_ZN2gl15ValidateProgramEj
libGLESv2.so:_ZN2gl15VertexAttrib1fvEjPKf
libGLESv2.so:_ZN2gl15VertexAttrib2fvEjPKf
libGLESv2.so:_ZN2gl15VertexAttrib3fvEjPKf
libGLESv2.so:_ZN2gl15VertexAttrib4fvEjPKf
libGLESv2.so:_ZN2gl15VertexAttribI4iEjiiii
libGLESv2.so:_ZN2gl16BindImageTextureEjjihijj
libGLESv2.so:_ZN2gl16BindRenderbufferEjj
libGLESv2.so:_ZN2gl16BindVertexBufferEjjli
libGLESv2.so:_ZN2gl16CopyImageSubDataEjjiiiijjiiiiiii
libGLESv2.so:_ZN2gl16DeleteQueriesEXTEiPKj
libGLESv2.so:_ZN2gl16FogfContextANGLEEPvjf
libGLESv2.so:_ZN2gl16FogxContextANGLEEPvji
libGLESv2.so:_ZN2gl16GenPathsCHROMIUMEi
libGLESv2.so:_ZN2gl16GenRenderbuffersEiPj
libGLESv2.so:_ZN2gl16GenSemaphoresEXTEiPj
libGLESv2.so:_ZN2gl16GetActiveUniformEjjiPiS0_PjPc
libGLESv2.so:_ZN2gl16GetMultisamplefvEjjPf
libGLESv2.so:_ZN2gl16GetProgramBinaryEjiPiPjPv
libGLESv2.so:_ZN2gl16GetShaderInfoLogEjiPiPc
libGLESv2.so:_ZN2gl16GetTexImageANGLEEjijjPv
libGLESv2.so:_ZN2gl16GetnUniformfvEXTEjiiPf
libGLESv2.so:_ZN2gl16GetnUniformivEXTEjiiPi
libGLESv2.so:_ZN2gl16HintContextANGLEEPvjj
libGLESv2.so:_ZN2gl16IsFramebufferOESEj
libGLESv2.so:_ZN2gl16IsVertexArrayOESEj
libGLESv2.so:_ZN2gl16MinSampleShadingEf
libGLESv2.so:_ZN2gl16PointParameterfvEjPKf
libGLESv2.so:_ZN2gl16PointParameterxvEjPKi
libGLESv2.so:_ZN2gl16PopDebugGroupKHREv
libGLESv2.so:_ZN2gl16ProgramBinaryOESEjjPKvi
libGLESv2.so:_ZN2gl16ProgramUniform1fEjif
libGLESv2.so:_ZN2gl16ProgramUniform1iEjii
libGLESv2.so:_ZN2gl16ProgramUniform2fEjiff
libGLESv2.so:_ZN2gl16ProgramUniform2iEjiii
libGLESv2.so:_ZN2gl16ProgramUniform3fEjifff
libGLESv2.so:_ZN2gl16ProgramUniform3iEjiiii
libGLESv2.so:_ZN2gl16ProgramUniform4fEjiffff
libGLESv2.so:_ZN2gl16ProgramUniform4iEjiiiii
libGLESv2.so:_ZN2gl16SampleMaskiANGLEEjj
libGLESv2.so:_ZN2gl16TexParameterIuivEjjPKj
libGLESv2.so:_ZN2gl16TexSubImage3DOESEjiiiiiiijjPKv
libGLESv2.so:_ZN2gl16UniformMatrix2fvEiihPKf
libGLESv2.so:_ZN2gl16UniformMatrix3fvEiihPKf
libGLESv2.so:_ZN2gl16UniformMatrix4fvEiihPKf
libGLESv2.so:_ZN2gl16UseProgramStagesEjjj
libGLESv2.so:_ZN2gl16VertexAttribI4ivEjPKi
libGLESv2.so:_ZN2gl16VertexAttribI4uiEjjjjj
libGLESv2.so:_ZN2gl16WaitSemaphoreEXTEjjPKjjS1_S1_
libGLESv2.so:_ZN2gl16WeightPointerOESEijiPKv
libGLESv2.so:_ZN2gl17BlendFuncSeparateEjjjj
libGLESv2.so:_ZN2gl17ClearContextANGLEEPvj
libGLESv2.so:_ZN2gl17CopyBufferSubDataEjjlll
libGLESv2.so:_ZN2gl17CopyTexSubImage2DEjiiiiiii
libGLESv2.so:_ZN2gl17CopyTexSubImage3DEjiiiiiiii
libGLESv2.so:_ZN2gl17DrawRangeElementsEjjjijPKv
libGLESv2.so:_ZN2gl17EnableClientStateEj
libGLESv2.so:_ZN2gl17FlushContextANGLEEPv
libGLESv2.so:_ZN2gl17FogfvContextANGLEEPvjPKf
libGLESv2.so:_ZN2gl17FogxvContextANGLEEPvjPKi
libGLESv2.so:_ZN2gl17GenerateMipmapOESEj
libGLESv2.so:_ZN2gl17GetAttribLocationEjPKc
libGLESv2.so:_ZN2gl17GetBufferPointervEjjPPv
libGLESv2.so:_ZN2gl17GetObjectLabelKHREjjiPiPc
libGLESv2.so:_ZN2gl17GetObjectPtrLabelEPKviPiPc
libGLESv2.so:_ZN2gl17GetProgramInfoLogEjiPiPc
libGLESv2.so:_ZN2gl17GetQueryObjectuivEjjPj
libGLESv2.so:_ZN2gl17GetTexParameterfvEjjPf
libGLESv2.so:_ZN2gl17GetTexParameterivEjjPi
libGLESv2.so:_ZN2gl17GetTexParameterxvEjjPi
libGLESv2.so:_ZN2gl17GetUniformIndicesEjiPKPKcPj
libGLESv2.so:_ZN2gl17GetVertexAttribfvEjjPf
libGLESv2.so:_ZN2gl17GetVertexAttribivEjjPi
libGLESv2.so:_ZN2gl17ImportMemoryFdEXTEjmji
libGLESv2.so:_ZN2gl17IsMemoryObjectEXTEj
libGLESv2.so:_ZN2gl17IsProgramPipelineEj
libGLESv2.so:_ZN2gl17IsRenderbufferOESEj
libGLESv2.so:_ZN2gl17MapBufferRangeEXTEjllj
libGLESv2.so:_ZN2gl17ObjectPtrLabelKHREPKviPKc
libGLESv2.so:_ZN2gl17PopGroupMarkerEXTEv
libGLESv2.so:_ZN2gl17ProgramParameteriEjji
libGLESv2.so:_ZN2gl17ProgramUniform1fvEjiiPKf
libGLESv2.so:_ZN2gl17ProgramUniform1ivEjiiPKi
libGLESv2.so:_ZN2gl17ProgramUniform1uiEjij
libGLESv2.so:_ZN2gl17ProgramUniform2fvEjiiPKf
libGLESv2.so:_ZN2gl17ProgramUniform2ivEjiiPKi
libGLESv2.so:_ZN2gl17ProgramUniform2uiEjijj
libGLESv2.so:_ZN2gl17ProgramUniform3fvEjiiPKf
libGLESv2.so:_ZN2gl17ProgramUniform3ivEjiiPKi
libGLESv2.so:_ZN2gl17ProgramUniform3uiEjijjj
libGLESv2.so:_ZN2gl17ProgramUniform4fvEjiiPKf
libGLESv2.so:_ZN2gl17ProgramUniform4ivEjiiPKi
libGLESv2.so:_ZN2gl17ProgramUniform4uiEjijjjj
libGLESv2.so:_ZN2gl17PushDebugGroupKHREjjiPKc
libGLESv2.so:_ZN2gl17SamplerParameterfEjjf
libGLESv2.so:_ZN2gl17SamplerParameteriEjji
libGLESv2.so:_ZN2gl17StencilOpSeparateEjjjj
libGLESv2.so:_ZN2gl17VertexAttribI4uivEjPKj
libGLESv2.so:_ZN2gl18BindAttribLocationEjjPKc
libGLESv2.so:_ZN2gl18BindFramebufferOESEjj
libGLESv2.so:_ZN2gl18BindVertexArrayOESEj
libGLESv2.so:_ZN2gl18BlendFuncSeparateiEjjjjj
libGLESv2.so:_ZN2gl18CopyTexture3DANGLEEjijjiijhhh
libGLESv2.so:_ZN2gl18DebugMessageInsertEjjjjiPKc
libGLESv2.so:_ZN2gl18DeleteFramebuffersEiPKj
libGLESv2.so:_ZN2gl18DeleteVertexArraysEiPKj
libGLESv2.so:_ZN2gl18DisableClientStateEj
libGLESv2.so:_ZN2gl18DrawArraysIndirectEjPKv
libGLESv2.so:_ZN2gl18EnableContextANGLEEPvj
libGLESv2.so:_ZN2gl18FinishContextANGLEEPv
libGLESv2.so:_ZN2gl18FramebufferTextureEjjji
libGLESv2.so:_ZN2gl18GenFramebuffersOESEiPj
libGLESv2.so:_ZN2gl18GenVertexArraysOESEiPj
libGLESv2.so:_ZN2gl18GetAttachedShadersEjiPiPj
libGLESv2.so:_ZN2gl18GetDebugMessageLogEjiPjS0_S0_S0_PiPc
libGLESv2.so:_ZN2gl18GetTexParameterIivEjjPi
libGLESv2.so:_ZN2gl18GetUniformLocationEjPKc
libGLESv2.so:_ZN2gl18GetVertexAttribIivEjjPi
libGLESv2.so:_ZN2gl18IsSyncContextANGLEEPvP8__GLsync
libGLESv2.so:_ZN2gl18LightfContextANGLEEPvjjf
libGLESv2.so:_ZN2gl18LightxContextANGLEEPvjji
libGLESv2.so:_ZN2gl18OrthofContextANGLEEPvffffff
libGLESv2.so:_ZN2gl18OrthoxContextANGLEEPviiiiii
libGLESv2.so:_ZN2gl18ProgramUniform1uivEjiiPKj
libGLESv2.so:_ZN2gl18ProgramUniform2uivEjiiPKj
libGLESv2.so:_ZN2gl18ProgramUniform3uivEjiiPKj
libGLESv2.so:_ZN2gl18ProgramUniform4uivEjiiPKj
libGLESv2.so:_ZN2gl18PushGroupMarkerEXTEiPKc
libGLESv2.so:_ZN2gl18SamplerParameterfvEjjPKf
libGLESv2.so:_ZN2gl18SamplerParameterivEjjPKi
libGLESv2.so:_ZN2gl18ScalefContextANGLEEPvfff
libGLESv2.so:_ZN2gl18ScalexContextANGLEEPviii
libGLESv2.so:_ZN2gl18SignalSemaphoreEXTEjjPKjjS1_S1_
libGLESv2.so:_ZN2gl18TexParameterIivOESEjjPKi
libGLESv2.so:_ZN2gl18TexStorageMem2DEXTEjijiijm
libGLESv2.so:_ZN2gl18TexStorageMem3DEXTEjijiiijm
libGLESv2.so:_ZN2gl18UniformMatrix2x3fvEiihPKf
libGLESv2.so:_ZN2gl18UniformMatrix2x4fvEiihPKf
libGLESv2.so:_ZN2gl18UniformMatrix3x2fvEiihPKf
libGLESv2.so:_ZN2gl18UniformMatrix3x4fvEiihPKf
libGLESv2.so:_ZN2gl18UniformMatrix4x2fvEiihPKf
libGLESv2.so:_ZN2gl18UniformMatrix4x3fvEiihPKf
libGLESv2.so:_ZN2gl18VertexAttribFormatEjijhj
libGLESv2.so:_ZN2gl19ActiveShaderProgramEjj
libGLESv2.so:_ZN2gl19BindProgramPipelineEj
libGLESv2.so:_ZN2gl19BindRenderbufferOESEjj
libGLESv2.so:_ZN2gl19BufferStorageMemEXTEjljm
libGLESv2.so:_ZN2gl19ClientActiveTextureEj
libGLESv2.so:_ZN2gl19Color4fContextANGLEEPvffff
libGLESv2.so:_ZN2gl19Color4xContextANGLEEPviiii
libGLESv2.so:_ZN2gl19CopyTextureCHROMIUMEjijjiijhhh
libGLESv2.so:_ZN2gl19DebugMessageControlEjjjiPKjh
libGLESv2.so:_ZN2gl19DeletePathsCHROMIUMEji
libGLESv2.so:_ZN2gl19DeleteRenderbuffersEiPKj
libGLESv2.so:_ZN2gl19DeleteSemaphoresEXTEiPKj
libGLESv2.so:_ZN2gl19DisableContextANGLEEPvj
libGLESv2.so:_ZN2gl19DrawArraysInstancedEjiii
libGLESv2.so:_ZN2gl19EnableiContextANGLEEPvjj
libGLESv2.so:_ZN2gl19GenProgramPipelinesEiPj
libGLESv2.so:_ZN2gl19GenRenderbuffersOESEiPj
libGLESv2.so:_ZN2gl19GetActiveUniformsivEjiPKjjPi
libGLESv2.so:_ZN2gl19GetFragDataIndexEXTEjPKc
libGLESv2.so:_ZN2gl19GetFragDataLocationEjPKc
libGLESv2.so:_ZN2gl19GetInternalformativEjjjiPi
libGLESv2.so:_ZN2gl19GetProgramBinaryOESEjiPiPjPv
libGLESv2.so:_ZN2gl19GetQueryObjectivEXTEjjPi
libGLESv2.so:_ZN2gl19GetTexParameterIuivEjjPj
libGLESv2.so:_ZN2gl19GetUnsignedBytevEXTEjPh
libGLESv2.so:_ZN2gl19GetVertexAttribIuivEjjPj
libGLESv2.so:_ZN2gl19IsQueryContextANGLEEPvj
libGLESv2.so:_ZN2gl19IsTransformFeedbackEj
libGLESv2.so:_ZN2gl19LightfvContextANGLEEPvjjPKf
libGLESv2.so:_ZN2gl19LightxvContextANGLEEPvjjPKi
libGLESv2.so:_ZN2gl19LogicOpContextANGLEEPvj
libGLESv2.so:_ZN2gl19LoseContextCHROMIUMEjj
libGLESv2.so:_ZN2gl19MatrixLoadfCHROMIUMEjPKf
libGLESv2.so:_ZN2gl19PointSizePointerOESEjiPKv
libGLESv2.so:_ZN2gl19RenderbufferStorageEjjii
libGLESv2.so:_ZN2gl19RotatefContextANGLEEPvffff
libGLESv2.so:_ZN2gl19RotatexContextANGLEEPviiii
libGLESv2.so:_ZN2gl19SamplerParameterIivEjjPKi
libGLESv2.so:_ZN2gl19ScissorContextANGLEEPviiii
libGLESv2.so:_ZN2gl19StencilFuncSeparateEjjij
libGLESv2.so:_ZN2gl19StencilMaskSeparateEjj
libGLESv2.so:_ZN2gl19TexEnvfContextANGLEEPvjjf
libGLESv2.so:_ZN2gl19TexEnviContextANGLEEPvjji
libGLESv2.so:_ZN2gl19TexEnvxContextANGLEEPvjji
libGLESv2.so:_ZN2gl19TexParameterIuivOESEjjPKj
libGLESv2.so:_ZN2gl19UniformBlockBindingEjjj
libGLESv2.so:_ZN2gl19VertexAttribBindingEjj
libGLESv2.so:_ZN2gl19VertexAttribDivisorEjj
libGLESv2.so:_ZN2gl19VertexAttribIFormatEjijj
libGLESv2.so:_ZN2gl19VertexAttribPointerEjijhiPKv
libGLESv2.so:_ZN2gl20BlitFramebufferANGLEEiiiiiiiijj
libGLESv2.so:_ZN2gl20Color4ubContextANGLEEPvhhhh
libGLESv2.so:_ZN2gl20CompressedTexImage2DEjijiiiiPKv
libGLESv2.so:_ZN2gl20CompressedTexImage3DEjijiiiiiPKv
libGLESv2.so:_ZN2gl20CopyTexSubImage3DOESEjiiiiiiii
libGLESv2.so:_ZN2gl20CreateShaderProgramvEjiPKPKc
libGLESv2.so:_ZN2gl20CullFaceContextANGLEEPvj
libGLESv2.so:_ZN2gl20DebugMessageCallbackEPFvjjjjiPKcPKvES3_
libGLESv2.so:_ZN2gl20DisableiContextANGLEEPvjj
libGLESv2.so:_ZN2gl20DrawElementsIndirectEjjPKv
libGLESv2.so:_ZN2gl20EndQueryContextANGLEEPvj
libGLESv2.so:_ZN2gl20EndTransformFeedbackEv
libGLESv2.so:_ZN2gl20FramebufferTexture2DEjjjji
libGLESv2.so:_ZN2gl20FrustumfContextANGLEEPvffffff
libGLESv2.so:_ZN2gl20FrustumxContextANGLEEPviiiiii
libGLESv2.so:_ZN2gl20GetBufferParameterivEjjPi
libGLESv2.so:_ZN2gl20GetBufferPointervOESEjjPPv
libGLESv2.so:_ZN2gl20GetErrorContextANGLEEPv
libGLESv2.so:_ZN2gl20GetFloatvRobustANGLEEjiPiPf
libGLESv2.so:_ZN2gl20GetObjectPtrLabelKHREPKviPiPc
libGLESv2.so:_ZN2gl20GetProgramPipelineivEjjPi
libGLESv2.so:_ZN2gl20GetProgramResourceivEjjjiPKjiPiS2_
libGLESv2.so:_ZN2gl20GetQueryObjectuivEXTEjjPj
libGLESv2.so:_ZN2gl20GetUniformBlockIndexEjPKc
libGLESv2.so:_ZN2gl20ImportSemaphoreFdEXTEjji
libGLESv2.so:_ZN2gl20InsertEventMarkerEXTEiPKc
libGLESv2.so:_ZN2gl20IsBufferContextANGLEEPvj
libGLESv2.so:_ZN2gl20IsShaderContextANGLEEPvj
libGLESv2.so:_ZN2gl20MultiDrawArraysANGLEEjPKiS1_i
libGLESv2.so:_ZN2gl20Normal3fContextANGLEEPvfff
libGLESv2.so:_ZN2gl20Normal3xContextANGLEEPviii
libGLESv2.so:_ZN2gl20PathCommandsCHROMIUMEjiPKhijPKv
libGLESv2.so:_ZN2gl20PrimitiveBoundingBoxEffffffff
libGLESv2.so:_ZN2gl20ProvokingVertexANGLEEj
libGLESv2.so:_ZN2gl20SamplerParameterIuivEjjPKj
libGLESv2.so:_ZN2gl20TexEnvfvContextANGLEEPvjjPKf
libGLESv2.so:_ZN2gl20TexEnvivContextANGLEEPvjjPKi
libGLESv2.so:_ZN2gl20TexEnvxvContextANGLEEPvjjPKi
libGLESv2.so:_ZN2gl20VertexAttribIPointerEjijiPKv
libGLESv2.so:_ZN2gl20VertexBindingDivisorEjj
libGLESv2.so:_ZN2gl20ViewportContextANGLEEPviiii
libGLESv2.so:_ZN2gl20WaitSyncContextANGLEEPvP8__GLsyncjm
libGLESv2.so:_ZN2gl21AlphaFuncContextANGLEEPvjf
libGLESv2.so:_ZN2gl21BindTransformFeedbackEjj
libGLESv2.so:_ZN2gl21BlendEquationSeparateEjj
libGLESv2.so:_ZN2gl21BlendFuncContextANGLEEPvjj
libGLESv2.so:_ZN2gl21ColorMaskContextANGLEEPvhhhh
libGLESv2.so:_ZN2gl21CopySubTexture3DANGLEEjijjiiiiiiiiiihhh
libGLESv2.so:_ZN2gl21CoverFillPathCHROMIUMEjj
libGLESv2.so:_ZN2gl21DebugMessageInsertKHREjjjjiPKc
libGLESv2.so:_ZN2gl21DeleteFramebuffersOESEiPKj
libGLESv2.so:_ZN2gl21DeleteVertexArraysOESEiPKj
libGLESv2.so:_ZN2gl21DepthFuncContextANGLEEPvj
libGLESv2.so:_ZN2gl21DepthMaskContextANGLEEPvh
libGLESv2.so:_ZN2gl21DisableExtensionANGLEEPKc
libGLESv2.so:_ZN2gl21DiscardFramebufferEXTEjiPKj
libGLESv2.so:_ZN2gl21DrawElementsInstancedEjijPKvi
libGLESv2.so:_ZN2gl21FenceSyncContextANGLEEPvjj
libGLESv2.so:_ZN2gl21FramebufferParameteriEjji
libGLESv2.so:_ZN2gl21FramebufferTextureEXTEjjji
libGLESv2.so:_ZN2gl21FrontFaceContextANGLEEPvj
libGLESv2.so:_ZN2gl21GenTransformFeedbacksEiPj
libGLESv2.so:_ZN2gl21GetDebugMessageLogKHREjiPjS0_S0_S0_PiPc
libGLESv2.so:_ZN2gl21GetFixedvContextANGLEEPvjPi
libGLESv2.so:_ZN2gl21GetFloatvContextANGLEEPvjPf
libGLESv2.so:_ZN2gl21GetMultisamplefvANGLEEjjPf
libGLESv2.so:_ZN2gl21GetProgramInterfaceivEjjjPi
libGLESv2.so:_ZN2gl21GetQueryObjecti64vEXTEjjPl
libGLESv2.so:_ZN2gl21GetQueryivRobustANGLEEjjiPiS0_
libGLESv2.so:_ZN2gl21GetSamplerParameterfvEjjPf
libGLESv2.so:_ZN2gl21GetSamplerParameterivEjjPi
libGLESv2.so:_ZN2gl21GetStringContextANGLEEPvj
libGLESv2.so:_ZN2gl21GetSyncivContextANGLEEPvP8__GLsyncjiPiS3_
libGLESv2.so:_ZN2gl21GetTexParameterIivOESEjjPi
libGLESv2.so:_ZN2gl21GetUnsignedBytei_vEXTEjjPh
libGLESv2.so:_ZN2gl21InvalidateFramebufferEjiPKj
libGLESv2.so:_ZN2gl21IsEnabledContextANGLEEPvj
libGLESv2.so:_ZN2gl21IsFenceNVContextANGLEEPvj
libGLESv2.so:_ZN2gl21IsProgramContextANGLEEPvj
libGLESv2.so:_ZN2gl21IsSamplerContextANGLEEPvj
libGLESv2.so:_ZN2gl21IsTextureContextANGLEEPvj
libGLESv2.so:_ZN2gl21LineWidthContextANGLEEPvf
libGLESv2.so:_ZN2gl21MaterialfContextANGLEEPvjjf
libGLESv2.so:_ZN2gl21MaterialxContextANGLEEPvjji
libGLESv2.so:_ZN2gl21MatrixIndexPointerOESEijiPKv
libGLESv2.so:_ZN2gl21MemoryBarrierByRegionEj
libGLESv2.so:_ZN2gl21PointSizeContextANGLEEPvf
libGLESv2.so:_ZN2gl21PopMatrixContextANGLEEPv
libGLESv2.so:_ZN2gl21ReadPixelsRobustANGLEEiiiijjiPiS0_S0_Pv
libGLESv2.so:_ZN2gl21ReleaseShaderCompilerEv
libGLESv2.so:_ZN2gl21RequestExtensionANGLEEPKc
libGLESv2.so:_ZN2gl21StencilOpContextANGLEEPvjjj
libGLESv2.so:_ZN2gl21TexBufferContextANGLEEPvjjj
libGLESv2.so:_ZN2gl21TexImage2DRobustANGLEEjiiiiijjiPKv
libGLESv2.so:_ZN2gl21TexImage3DRobustANGLEEjiiiiiijjiPKv
libGLESv2.so:_ZN2gl21Uniform1fContextANGLEEPvif
libGLESv2.so:_ZN2gl21Uniform1iContextANGLEEPvii
libGLESv2.so:_ZN2gl21Uniform2fContextANGLEEPviff
libGLESv2.so:_ZN2gl21Uniform2iContextANGLEEPviii
libGLESv2.so:_ZN2gl21Uniform3fContextANGLEEPvifff
libGLESv2.so:_ZN2gl21Uniform3iContextANGLEEPviiii
libGLESv2.so:_ZN2gl21Uniform4fContextANGLEEPviffff
libGLESv2.so:_ZN2gl21Uniform4iContextANGLEEPviiiii
libGLESv2.so:_ZN2gl22AlphaFuncxContextANGLEEPvji
libGLESv2.so:_ZN2gl22BeginQueryContextANGLEEPvjj
libGLESv2.so:_ZN2gl22BeginTransformFeedbackEj
libGLESv2.so:_ZN2gl22BindBufferContextANGLEEPvjj
libGLESv2.so:_ZN2gl22BlendColorContextANGLEEPvffff
libGLESv2.so:_ZN2gl22BlendEquationSeparateiEjjj
libGLESv2.so:_ZN2gl22BlendFunciContextANGLEEPvjjj
libGLESv2.so:_ZN2gl22BufferDataContextANGLEEPvjlPKvj
libGLESv2.so:_ZN2gl22CheckFramebufferStatusEj
libGLESv2.so:_ZN2gl22ClearColorContextANGLEEPvffff
libGLESv2.so:_ZN2gl22ClipPlanefContextANGLEEPvjPKf
libGLESv2.so:_ZN2gl22ClipPlanexContextANGLEEPvjPKi
libGLESv2.so:_ZN2gl22ColorMaskiContextANGLEEPvjhhhh
libGLESv2.so:_ZN2gl22CopySubTextureCHROMIUMEjijjiiiiiiihhh
libGLESv2.so:_ZN2gl22CreateMemoryObjectsEXTEiPj
libGLESv2.so:_ZN2gl22DebugMessageControlKHREjjjiPKjh
libGLESv2.so:_ZN2gl22DeleteMemoryObjectsEXTEiPKj
libGLESv2.so:_ZN2gl22DeleteProgramPipelinesEiPKj
libGLESv2.so:_ZN2gl22DeleteRenderbuffersOESEiPKj
libGLESv2.so:_ZN2gl22DeleteSyncContextANGLEEPvP8__GLsync
libGLESv2.so:_ZN2gl22DrawArraysContextANGLEEPvjii
libGLESv2.so:_ZN2gl22DrawArraysInstancedEXTEjiii
libGLESv2.so:_ZN2gl22DrawElementsBaseVertexEjijPKvi
libGLESv2.so:_ZN2gl22FlushMappedBufferRangeEjll
libGLESv2.so:_ZN2gl22GenBuffersContextANGLEEPviPj
libGLESv2.so:_ZN2gl22GenQueriesContextANGLEEPviPj
libGLESv2.so:_ZN2gl22GetBooleanvRobustANGLEEjiPiPh
libGLESv2.so:_ZN2gl22GetBufferParameteri64vEjjPl
libGLESv2.so:_ZN2gl22GetGraphicsResetStatusEv
libGLESv2.so:_ZN2gl22GetIntegervRobustANGLEEjiPiS0_
libGLESv2.so:_ZN2gl22GetLightfvContextANGLEEPvjjPf
libGLESv2.so:_ZN2gl22GetLightxvContextANGLEEPvjjPi
libGLESv2.so:_ZN2gl22GetProgramResourceNameEjjjiPiPc
libGLESv2.so:_ZN2gl22GetQueryObjectui64vEXTEjjPm
libGLESv2.so:_ZN2gl22GetQueryivContextANGLEEPvjjPi
libGLESv2.so:_ZN2gl22GetSamplerParameterIivEjjPi
libGLESv2.so:_ZN2gl22GetShaderivRobustANGLEEjjiPiS0_
libGLESv2.so:_ZN2gl22GetStringiContextANGLEEPvjj
libGLESv2.so:_ZN2gl22GetTexLevelParameterfvEjijPf
libGLESv2.so:_ZN2gl22GetTexLevelParameterivEjijPi
libGLESv2.so:_ZN2gl22GetTexParameterIuivOESEjjPj
libGLESv2.so:_ZN2gl22InvalidateTextureANGLEEj
libGLESv2.so:_ZN2gl22IsEnablediContextANGLEEPvjj
libGLESv2.so:_ZN2gl22IsQueryEXTContextANGLEEPvj
libGLESv2.so:_ZN2gl22LineWidthxContextANGLEEPvi
libGLESv2.so:_ZN2gl22MaterialfvContextANGLEEPvjjPKf
libGLESv2.so:_ZN2gl22MaterialxvContextANGLEEPvjjPKi
libGLESv2.so:_ZN2gl22MatrixModeContextANGLEEPvj
libGLESv2.so:_ZN2gl22MultiDrawElementsANGLEEjPKijPKPKvi
libGLESv2.so:_ZN2gl22PathParameterfCHROMIUMEjjf
libGLESv2.so:_ZN2gl22PathParameteriCHROMIUMEjji
libGLESv2.so:_ZN2gl22PauseTransformFeedbackEv
libGLESv2.so:_ZN2gl22PointSizexContextANGLEEPvi
libGLESv2.so:_ZN2gl22PushMatrixContextANGLEEPv
libGLESv2.so:_ZN2gl22ReadBufferContextANGLEEPvj
libGLESv2.so:_ZN2gl22ReadPixelsContextANGLEEPviiiijjS0_
libGLESv2.so:_ZN2gl22ReadnPixelsRobustANGLEEiiiijjiPiS0_S0_Pv
libGLESv2.so:_ZN2gl22RenderbufferStorageOESEjjii
libGLESv2.so:_ZN2gl22SamplerParameterIivOESEjjPKi
libGLESv2.so:_ZN2gl22SetFenceNVContextANGLEEPvjj
libGLESv2.so:_ZN2gl22ShadeModelContextANGLEEPvj
libGLESv2.so:_ZN2gl22TexGenfOESContextANGLEEPvjjf
libGLESv2.so:_ZN2gl22TexGeniOESContextANGLEEPvjji
libGLESv2.so:_ZN2gl22TexGenxOESContextANGLEEPvjji
libGLESv2.so:_ZN2gl22TexImage2DContextANGLEEPvjiiiiijjPKv
libGLESv2.so:_ZN2gl22TexImage3DContextANGLEEPvjiiiiiijjPKv
libGLESv2.so:_ZN2gl22TranslatefContextANGLEEPvfff
libGLESv2.so:_ZN2gl22TranslatexContextANGLEEPviii
libGLESv2.so:_ZN2gl22Uniform1fvContextANGLEEPviiPKf
libGLESv2.so:_ZN2gl22Uniform1ivContextANGLEEPviiPKi
libGLESv2.so:_ZN2gl22Uniform1uiContextANGLEEPvij
libGLESv2.so:_ZN2gl22Uniform2fvContextANGLEEPviiPKf
libGLESv2.so:_ZN2gl22Uniform2ivContextANGLEEPviiPKi
libGLESv2.so:_ZN2gl22Uniform2uiContextANGLEEPvijj
libGLESv2.so:_ZN2gl22Uniform3fvContextANGLEEPviiPKf
libGLESv2.so:_ZN2gl22Uniform3ivContextANGLEEPviiPKi
libGLESv2.so:_ZN2gl22Uniform3uiContextANGLEEPvijjj
libGLESv2.so:_ZN2gl22Uniform4fvContextANGLEEPviiPKf
libGLESv2.so:_ZN2gl22Uniform4ivContextANGLEEPviiPKi
libGLESv2.so:_ZN2gl22Uniform4uiContextANGLEEPvijjjj
libGLESv2.so:_ZN2gl22UseProgramContextANGLEEPvj
libGLESv2.so:_ZN2gl22VertexAttribDivisorEXTEjj
libGLESv2.so:_ZN2gl23BindFragDataLocationEXTEjjPKc
libGLESv2.so:_ZN2gl23BindSamplerContextANGLEEPvjj
libGLESv2.so:_ZN2gl23BindTextureContextANGLEEPvjj
libGLESv2.so:_ZN2gl23ClearColorxContextANGLEEPviiii
libGLESv2.so:_ZN2gl23ClearDepthfContextANGLEEPvf
libGLESv2.so:_ZN2gl23ClearDepthxContextANGLEEPvi
libGLESv2.so:_ZN2gl23CompressedTexImage3DOESEjijiiiiiPKv
libGLESv2.so:_ZN2gl23CompressedTexSubImage2DEjiiiiijiPKv
libGLESv2.so:_ZN2gl23CompressedTexSubImage3DEjiiiiiiijiPKv
libGLESv2.so:_ZN2gl23CoverStrokePathCHROMIUMEjj
libGLESv2.so:_ZN2gl23CurrentPaletteMatrixOESEj
libGLESv2.so:_ZN2gl23DebugMessageCallbackKHREPFvjjjjiPKcPKvES3_
libGLESv2.so:_ZN2gl23DepthRangefContextANGLEEPvff
libGLESv2.so:_ZN2gl23DepthRangexContextANGLEEPvii
libGLESv2.so:_ZN2gl23DispatchComputeIndirectEl
libGLESv2.so:_ZN2gl23DrawBuffersContextANGLEEPviPKj
libGLESv2.so:_ZN2gl23DrawTexfOESContextANGLEEPvfffff
libGLESv2.so:_ZN2gl23DrawTexiOESContextANGLEEPviiiii
libGLESv2.so:_ZN2gl23DrawTexsOESContextANGLEEPvsssss
libGLESv2.so:_ZN2gl23DrawTexxOESContextANGLEEPviiiii
libGLESv2.so:_ZN2gl23EnableVertexAttribArrayEj
libGLESv2.so:_ZN2gl23EndQueryEXTContextANGLEEPvj
libGLESv2.so:_ZN2gl23FramebufferRenderbufferEjjjj
libGLESv2.so:_ZN2gl23FramebufferTexture2DOESEjjjji
libGLESv2.so:_ZN2gl23FramebufferTexture3DOESEjjjjii
libGLESv2.so:_ZN2gl23FramebufferTextureLayerEjjjii
libGLESv2.so:_ZN2gl23GenFencesNVContextANGLEEPviPj
libGLESv2.so:_ZN2gl23GenSamplersContextANGLEEPviPj
libGLESv2.so:_ZN2gl23GenTexturesContextANGLEEPviPj
libGLESv2.so:_ZN2gl23GetActiveUniformBlockivEjjjPi
libGLESv2.so:_ZN2gl23GetBooleanvContextANGLEEPvjPh
libGLESv2.so:_ZN2gl23GetIntegervContextANGLEEPvjPi
libGLESv2.so:_ZN2gl23GetPointervContextANGLEEPvjPS0_
libGLESv2.so:_ZN2gl23GetProgramResourceIndexEjjPKc
libGLESv2.so:_ZN2gl23GetProgramivRobustANGLEEjjiPiS0_
libGLESv2.so:_ZN2gl23GetSamplerParameterIuivEjjPj
libGLESv2.so:_ZN2gl23GetShaderivContextANGLEEPvjjPi
libGLESv2.so:_ZN2gl23GetTexEnvfvContextANGLEEPvjjPf
libGLESv2.so:_ZN2gl23GetTexEnvivContextANGLEEPvjjPi
libGLESv2.so:_ZN2gl23GetTexEnvxvContextANGLEEPvjjPi
libGLESv2.so:_ZN2gl23GetUniformfvRobustANGLEEjiiPiPf
libGLESv2.so:_ZN2gl23GetUniformivRobustANGLEEjiiPiS0_
libGLESv2.so:_ZN2gl23GetVertexAttribPointervEjjPPv
libGLESv2.so:_ZN2gl23LightModelfContextANGLEEPvjf
libGLESv2.so:_ZN2gl23LightModelxContextANGLEEPvji
libGLESv2.so:_ZN2gl23LinkProgramContextANGLEEPvj
libGLESv2.so:_ZN2gl23LoadMatrixfContextANGLEEPvPKf
libGLESv2.so:_ZN2gl23LoadMatrixxContextANGLEEPvPKi
libGLESv2.so:_ZN2gl23MultMatrixfContextANGLEEPvPKf
libGLESv2.so:_ZN2gl23MultMatrixxContextANGLEEPvPKi
libGLESv2.so:_ZN2gl23ObjectLabelContextANGLEEPvjjiPKc
libGLESv2.so:_ZN2gl23PathStencilFuncCHROMIUMEjij
libGLESv2.so:_ZN2gl23PixelStoreiContextANGLEEPvji
libGLESv2.so:_ZN2gl23ProgramUniformMatrix2fvEjiihPKf
libGLESv2.so:_ZN2gl23ProgramUniformMatrix3fvEjiihPKf
libGLESv2.so:_ZN2gl23ProgramUniformMatrix4fvEjiihPKf
libGLESv2.so:_ZN2gl23ReadnPixelsContextANGLEEPviiiijjiS0_
libGLESv2.so:_ZN2gl23ResumeTransformFeedbackEv
libGLESv2.so:_ZN2gl23SampleMaskiContextANGLEEPvjj
libGLESv2.so:_ZN2gl23SamplerParameterIuivOESEjjPKj
libGLESv2.so:_ZN2gl23StencilFillPathCHROMIUMEjjj
libGLESv2.so:_ZN2gl23StencilFuncContextANGLEEPvjij
libGLESv2.so:_ZN2gl23StencilMaskContextANGLEEPvj
libGLESv2.so:_ZN2gl23TestFenceNVContextANGLEEPvj
libGLESv2.so:_ZN2gl23TexGenfvOESContextANGLEEPvjjPKf
libGLESv2.so:_ZN2gl23TexGenivOESContextANGLEEPvjjPKi
libGLESv2.so:_ZN2gl23TexGenxvOESContextANGLEEPvjjPKi
libGLESv2.so:_ZN2gl23TexImage2DExternalANGLEEjiiiiijj
libGLESv2.so:_ZN2gl23TexStorage2DMultisampleEjijiih
libGLESv2.so:_ZN2gl23TexStorage3DMultisampleEjijiiih
libGLESv2.so:_ZN2gl23Uniform1uivContextANGLEEPviiPKj
libGLESv2.so:_ZN2gl23Uniform2uivContextANGLEEPviiPKj
libGLESv2.so:_ZN2gl23Uniform3uivContextANGLEEPviiPKj
libGLESv2.so:_ZN2gl23Uniform4uivContextANGLEEPviiPKj
libGLESv2.so:_ZN2gl23UnmapBufferContextANGLEEPvj
libGLESv2.so:_ZN2gl23ValidateProgramPipelineEj
libGLESv2.so:_ZN2gl24AttachShaderContextANGLEEPvjj
libGLESv2.so:_ZN2gl24BlendBarrierContextANGLEEPv
libGLESv2.so:_ZN2gl24ClearStencilContextANGLEEPvi
libGLESv2.so:_ZN2gl24ColorPointerContextANGLEEPvijiPKv
libGLESv2.so:_ZN2gl24CreateShaderContextANGLEEPvj
libGLESv2.so:_ZN2gl24DeleteShaderContextANGLEEPvj
libGLESv2.so:_ZN2gl24DeleteTransformFeedbacksEiPKj
libGLESv2.so:_ZN2gl24DetachShaderContextANGLEEPvjj
libGLESv2.so:_ZN2gl24DisableVertexAttribArrayEj
libGLESv2.so:_ZN2gl24DrawArraysInstancedANGLEEjiii
libGLESv2.so:_ZN2gl24DrawElementsContextANGLEEPvjijPKv
libGLESv2.so:_ZN2gl24DrawElementsInstancedEXTEjijPKvi
libGLESv2.so:_ZN2gl24DrawTexfvOESContextANGLEEPvPKf
libGLESv2.so:_ZN2gl24DrawTexivOESContextANGLEEPvPKi
libGLESv2.so:_ZN2gl24DrawTexsvOESContextANGLEEPvPKs
libGLESv2.so:_ZN2gl24DrawTexxvOESContextANGLEEPvPKi
libGLESv2.so:_ZN2gl24GetBooleani_vRobustANGLEEjjiPiPh
libGLESv2.so:_ZN2gl24GetFenceivNVContextANGLEEPvjjPi
libGLESv2.so:_ZN2gl24GetInteger64vRobustANGLEEjiPiPl
libGLESv2.so:_ZN2gl24GetIntegeri_vRobustANGLEEjjiPiS0_
libGLESv2.so:_ZN2gl24GetProgramivContextANGLEEPvjjPi
libGLESv2.so:_ZN2gl24GetShaderPrecisionFormatEjjPiS0_
libGLESv2.so:_ZN2gl24GetUniformfvContextANGLEEPvjiPf
libGLESv2.so:_ZN2gl24GetUniformivContextANGLEEPvjiPi
libGLESv2.so:_ZN2gl24GetUniformuivRobustANGLEEjiiPiPj
libGLESv2.so:_ZN2gl24GetnUniformfvRobustANGLEEjiiPiPf
libGLESv2.so:_ZN2gl24GetnUniformivRobustANGLEEjiiPiS0_
libGLESv2.so:_ZN2gl24InvalidateSubFramebufferEjiPKjiiii
libGLESv2.so:_ZN2gl24LightModelfvContextANGLEEPvjPKf
libGLESv2.so:_ZN2gl24LightModelxvContextANGLEEPvjPKi
libGLESv2.so:_ZN2gl24LoadIdentityContextANGLEEPv
libGLESv2.so:_ZN2gl24MapBufferOESContextANGLEEPvjj
libGLESv2.so:_ZN2gl24ShaderBinaryContextANGLEEPviPKjjPKvi
libGLESv2.so:_ZN2gl24ShaderSourceContextANGLEEPvjiPKPKcPKi
libGLESv2.so:_ZN2gl24TexStorage2DContextANGLEEPvjijii
libGLESv2.so:_ZN2gl24TexStorage3DContextANGLEEPvjijiii
libGLESv2.so:_ZN2gl24TexSubImage2DRobustANGLEEjiiiiijjiPKv
libGLESv2.so:_ZN2gl24TexSubImage3DRobustANGLEEjiiiiiiijjiPKv
libGLESv2.so:_ZN2gl24VertexAttribDivisorANGLEEjj
libGLESv2.so:_ZN2gl25ActiveTextureContextANGLEEPvj
libGLESv2.so:_ZN2gl25BeginQueryEXTContextANGLEEPvjj
libGLESv2.so:_ZN2gl25BlendEquationContextANGLEEPvj
libGLESv2.so:_ZN2gl25BufferSubDataContextANGLEEPvjllPKv
libGLESv2.so:_ZN2gl25CheckFramebufferStatusOESEj
libGLESv2.so:_ZN2gl25ClearBufferfiContextANGLEEPvjifi
libGLESv2.so:_ZN2gl25ClearBufferfvContextANGLEEPvjiPKf
libGLESv2.so:_ZN2gl25ClearBufferivContextANGLEEPvjiPKi
libGLESv2.so:_ZN2gl25CompileShaderContextANGLEEPvj
libGLESv2.so:_ZN2gl25CreateProgramContextANGLEEPv
libGLESv2.so:_ZN2gl25DeleteBuffersContextANGLEEPviPKj
libGLESv2.so:_ZN2gl25DeleteProgramContextANGLEEPvj
libGLESv2.so:_ZN2gl25DeleteQueriesContextANGLEEPviPKj
libGLESv2.so:_ZN2gl25DrawElementsBaseVertexEXTEjijPKvi
libGLESv2.so:_ZN2gl25DrawElementsBaseVertexOESEjijPKvi
libGLESv2.so:_ZN2gl25FinishFenceNVContextANGLEEPvj
libGLESv2.so:_ZN2gl25FlushMappedBufferRangeEXTEjll
libGLESv2.so:_ZN2gl25GenQueriesEXTContextANGLEEPviPj
libGLESv2.so:_ZN2gl25GetActiveUniformBlockNameEjjiPiPc
libGLESv2.so:_ZN2gl25GetBooleani_vContextANGLEEPvjjPh
libGLESv2.so:_ZN2gl25GetClipPlanefContextANGLEEPvjPf
libGLESv2.so:_ZN2gl25GetClipPlanexContextANGLEEPvjPi
libGLESv2.so:_ZN2gl25GetFramebufferParameterivEjjPi
libGLESv2.so:_ZN2gl25GetGraphicsResetStatusEXTEv
libGLESv2.so:_ZN2gl25GetInteger64vContextANGLEEPvjPl
libGLESv2.so:_ZN2gl25GetIntegeri_vContextANGLEEPvjjPi
libGLESv2.so:_ZN2gl25GetMaterialfvContextANGLEEPvjjPf
libGLESv2.so:_ZN2gl25GetMaterialxvContextANGLEEPvjjPi
libGLESv2.so:_ZN2gl25GetProgramPipelineInfoLogEjiPiPc
libGLESv2.so:_ZN2gl25GetQueryivEXTContextANGLEEPvjjPi
libGLESv2.so:_ZN2gl25GetRenderbufferImageANGLEEjjjPv
libGLESv2.so:_ZN2gl25GetSamplerParameterIivOESEjjPi
libGLESv2.so:_ZN2gl25GetUniformuivContextANGLEEPvjiPj
libGLESv2.so:_ZN2gl25GetnUniformfvContextANGLEEPvjiiPf
libGLESv2.so:_ZN2gl25GetnUniformivContextANGLEEPvjiiPi
libGLESv2.so:_ZN2gl25GetnUniformuivRobustANGLEEjiiPiPj
libGLESv2.so:_ZN2gl25IsFramebufferContextANGLEEPvj
libGLESv2.so:_ZN2gl25IsVertexArrayContextANGLEEPvj
libGLESv2.so:_ZN2gl25MemoryBarrierContextANGLEEPvj
libGLESv2.so:_ZN2gl25NormalPointerContextANGLEEPvjiPKv
libGLESv2.so:_ZN2gl25PolygonOffsetContextANGLEEPvff
libGLESv2.so:_ZN2gl25PopDebugGroupContextANGLEEPv
libGLESv2.so:_ZN2gl25ProgramBinaryContextANGLEEPvjjPKvi
libGLESv2.so:_ZN2gl25ProgramUniformMatrix2x3fvEjiihPKf
libGLESv2.so:_ZN2gl25ProgramUniformMatrix2x4fvEjiihPKf
libGLESv2.so:_ZN2gl25ProgramUniformMatrix3x2fvEjiihPKf
libGLESv2.so:_ZN2gl25ProgramUniformMatrix3x4fvEjiihPKf
libGLESv2.so:_ZN2gl25ProgramUniformMatrix4x2fvEjiihPKf
libGLESv2.so:_ZN2gl25ProgramUniformMatrix4x3fvEjiihPKf
libGLESv2.so:_ZN2gl25StencilStrokePathCHROMIUMEjij
libGLESv2.so:_ZN2gl25TexImage3DOESContextANGLEEPvjijiiiijjPKv
libGLESv2.so:_ZN2gl25TexParameterfContextANGLEEPvjjf
libGLESv2.so:_ZN2gl25TexParameterfvRobustANGLEEjjiPKf
libGLESv2.so:_ZN2gl25TexParameteriContextANGLEEPvjji
libGLESv2.so:_ZN2gl25TexParameterivRobustANGLEEjjiPKi
libGLESv2.so:_ZN2gl25TexParameterxContextANGLEEPvjji
libGLESv2.so:_ZN2gl25TexSubImage2DContextANGLEEPvjiiiiijjPKv
libGLESv2.so:_ZN2gl25TexSubImage3DContextANGLEEPvjiiiiiiijjPKv
libGLESv2.so:_ZN2gl25TransformFeedbackVaryingsEjiPKPKcj
libGLESv2.so:_ZN2gl25VertexPointerContextANGLEEPvijiPKv
libGLESv2.so:_ZN2gl26BindBufferBaseContextANGLEEPvjjj
libGLESv2.so:_ZN2gl26BlendEquationiContextANGLEEPvjj
libGLESv2.so:_ZN2gl26ClearBufferuivContextANGLEEPvjiPKj
libGLESv2.so:_ZN2gl26ClientWaitSyncContextANGLEEPvP8__GLsyncjm
libGLESv2.so:_ZN2gl26CompressedTexSubImage3DOESEjiiiiiiijiPKv
libGLESv2.so:_ZN2gl26CopyTexImage2DContextANGLEEPvjijiiiii
libGLESv2.so:_ZN2gl26CoverageModulationCHROMIUMEj
libGLESv2.so:_ZN2gl26DeleteFencesNVContextANGLEEPviPKj
libGLESv2.so:_ZN2gl26DeleteSamplersContextANGLEEPviPKj
libGLESv2.so:_ZN2gl26DeleteTexturesContextANGLEEPviPKj
libGLESv2.so:_ZN2gl26DrawBuffersEXTContextANGLEEPviPKj
libGLESv2.so:_ZN2gl26DrawElementsInstancedANGLEEjijPKvi
libGLESv2.so:_ZN2gl26EGLImageTargetTexture2DOESEjPv
libGLESv2.so:_ZN2gl26FramebufferRenderbufferOESEjjjj
libGLESv2.so:_ZN2gl26GenerateMipmapContextANGLEEPvj
libGLESv2.so:_ZN2gl26GetInteger64i_vRobustANGLEEjjiPiPl
libGLESv2.so:_ZN2gl26GetObjectLabelContextANGLEEPvjjiPiPc
libGLESv2.so:_ZN2gl26GetPathParameterfvCHROMIUMEjjPf
libGLESv2.so:_ZN2gl26GetPathParameterivCHROMIUMEjjPi
libGLESv2.so:_ZN2gl26GetPointervKHRContextANGLEEPvjPS0_
libGLESv2.so:_ZN2gl26GetProgramResourceLocationEjjPKc
libGLESv2.so:_ZN2gl26GetRenderbufferParameterivEjjPi
libGLESv2.so:_ZN2gl26GetSamplerParameterIuivOESEjjPj
libGLESv2.so:_ZN2gl26GetTexGenfvOESContextANGLEEPvjjPf
libGLESv2.so:_ZN2gl26GetTexGenivOESContextANGLEEPvjjPi
libGLESv2.so:_ZN2gl26GetTexGenxvOESContextANGLEEPvjjPi
libGLESv2.so:_ZN2gl26GetnUniformuivContextANGLEEPvjiiPj
libGLESv2.so:_ZN2gl26IsPathCHROMIUMContextANGLEEPvj
libGLESv2.so:_ZN2gl26IsRenderbufferContextANGLEEPvj
libGLESv2.so:_ZN2gl26IsSemaphoreEXTContextANGLEEPvj
libGLESv2.so:_ZN2gl26MapBufferRangeContextANGLEEPvjllj
libGLESv2.so:_ZN2gl26MatrixLoadIdentityCHROMIUMEj
libGLESv2.so:_ZN2gl26MemoryObjectParameterivEXTEjjPKi
libGLESv2.so:_ZN2gl26ObjectLabelKHRContextANGLEEPvjjiPKc
libGLESv2.so:_ZN2gl26ObjectPtrLabelContextANGLEEPvPKviPKc
libGLESv2.so:_ZN2gl26PolygonOffsetxContextANGLEEPvii
libGLESv2.so:_ZN2gl26PushDebugGroupContextANGLEEPvjjiPKc
libGLESv2.so:_ZN2gl26ReadnPixelsEXTContextANGLEEPviiiijjiS0_
libGLESv2.so:_ZN2gl26SampleCoverageContextANGLEEPvfh
libGLESv2.so:_ZN2gl26SemaphoreParameterui64vEXTEjjPKm
libGLESv2.so:_ZN2gl26TexBufferRangeContextANGLEEPvjjjll
libGLESv2.so:_ZN2gl26TexParameterIivRobustANGLEEjjiPKi
libGLESv2.so:_ZN2gl26TexParameterfvContextANGLEEPvjjPKf
libGLESv2.so:_ZN2gl26TexParameterivContextANGLEEPvjjPKi
libGLESv2.so:_ZN2gl26TexParameterxvContextANGLEEPvjjPKi
libGLESv2.so:_ZN2gl26TexStorage3DMultisampleOESEjijiiih
libGLESv2.so:_ZN2gl26UnmapBufferOESContextANGLEEPvj
libGLESv2.so:_ZN2gl26VertexAttrib1fContextANGLEEPvjf
libGLESv2.so:_ZN2gl26VertexAttrib2fContextANGLEEPvjff
libGLESv2.so:_ZN2gl26VertexAttrib3fContextANGLEEPvjfff
libGLESv2.so:_ZN2gl26VertexAttrib4fContextANGLEEPvjffff
libGLESv2.so:_ZN2gl27BindBufferRangeContextANGLEEPvjjjll
libGLESv2.so:_ZN2gl27BindFramebufferContextANGLEEPvjj
libGLESv2.so:_ZN2gl27BindUniformLocationCHROMIUMEjiPKc
libGLESv2.so:_ZN2gl27BindVertexArrayContextANGLEEPvj
libGLESv2.so:_ZN2gl27BlitFramebufferContextANGLEEPviiiiiiiijj
libGLESv2.so:_ZN2gl27DispatchComputeContextANGLEEPvjjj
libGLESv2.so:_ZN2gl27DrawRangeElementsBaseVertexEjjjijPKvi
libGLESv2.so:_ZN2gl27GenFramebuffersContextANGLEEPviPj
libGLESv2.so:_ZN2gl27GenVertexArraysContextANGLEEPviPj
libGLESv2.so:_ZN2gl27GetActiveAttribContextANGLEEPvjjiPiS1_PjPc
libGLESv2.so:_ZN2gl27GetInteger64i_vContextANGLEEPvjjPl
libGLESv2.so:_ZN2gl27GetMultisamplefvRobustANGLEEjjiPiPf
libGLESv2.so:_ZN2gl27GetQueryObjectivRobustANGLEEjjiPiS0_
libGLESv2.so:_ZN2gl27GetShaderSourceContextANGLEEPvjiPiPc
libGLESv2.so:_ZN2gl27GetTexLevelParameterfvANGLEEjijPf
libGLESv2.so:_ZN2gl27GetTexLevelParameterivANGLEEjijPi
libGLESv2.so:_ZN2gl27GetTransformFeedbackVaryingEjjiPiS0_PjPc
libGLESv2.so:_ZN2gl27MaxShaderCompilerThreadsKHREj
libGLESv2.so:_ZN2gl27MultiTexCoord4fContextANGLEEPvjffff
libGLESv2.so:_ZN2gl27MultiTexCoord4xContextANGLEEPvjiiii
libGLESv2.so:_ZN2gl27PatchParameteriContextANGLEEPvji
libGLESv2.so:_ZN2gl27PointParameterfContextANGLEEPvjf
libGLESv2.so:_ZN2gl27PointParameterxContextANGLEEPvji
libGLESv2.so:_ZN2gl27QueryCounterEXTContextANGLEEPvjj
libGLESv2.so:_ZN2gl27QueryMatrixxOESContextANGLEEPvPiS1_
libGLESv2.so:_ZN2gl27SampleCoveragexContextANGLEEPvih
libGLESv2.so:_ZN2gl27TexCoordPointerContextANGLEEPvijiPKv
libGLESv2.so:_ZN2gl27TexParameterIivContextANGLEEPvjjPKi
libGLESv2.so:_ZN2gl27TexParameterIuivRobustANGLEEjjiPKj
libGLESv2.so:_ZN2gl27TexStorage1DEXTContextANGLEEPvjiji
libGLESv2.so:_ZN2gl27TexStorage2DEXTContextANGLEEPvjijii
libGLESv2.so:_ZN2gl27TexStorage3DEXTContextANGLEEPvjijiii
libGLESv2.so:_ZN2gl27ValidateProgramContextANGLEEPvj
libGLESv2.so:_ZN2gl27VertexAttrib1fvContextANGLEEPvjPKf
libGLESv2.so:_ZN2gl27VertexAttrib2fvContextANGLEEPvjPKf
libGLESv2.so:_ZN2gl27VertexAttrib3fvContextANGLEEPvjPKf
libGLESv2.so:_ZN2gl27VertexAttrib4fvContextANGLEEPvjPKf
libGLESv2.so:_ZN2gl27VertexAttribI4iContextANGLEEPvjiiii
libGLESv2.so:_ZN2gl28BindImageTextureContextANGLEEPvjjihijj
libGLESv2.so:_ZN2gl28BindRenderbufferContextANGLEEPvjj
libGLESv2.so:_ZN2gl28BindVertexBufferContextANGLEEPvjjli
libGLESv2.so:_ZN2gl28CopyImageSubDataContextANGLEEPvjjiiiijjiiiiiii
libGLESv2.so:_ZN2gl28DeleteQueriesEXTContextANGLEEPviPKj
libGLESv2.so:_ZN2gl28GenPathsCHROMIUMContextANGLEEPvi
libGLESv2.so:_ZN2gl28GenRenderbuffersContextANGLEEPviPj
libGLESv2.so:_ZN2gl28GenSemaphoresEXTContextANGLEEPviPj
libGLESv2.so:_ZN2gl28GetActiveUniformContextANGLEEPvjjiPiS1_PjPc
libGLESv2.so:_ZN2gl28GetBufferPointervRobustANGLEEjjiPiPPv
libGLESv2.so:_ZN2gl28GetMultisamplefvContextANGLEEPvjjPf
libGLESv2.so:_ZN2gl28GetProgramBinaryContextANGLEEPvjiPiPjS0_
libGLESv2.so:_ZN2gl28GetQueryObjectuivRobustANGLEEjjiPiPj
libGLESv2.so:_ZN2gl28GetShaderInfoLogContextANGLEEPvjiPiPc
libGLESv2.so:_ZN2gl28GetTexImageANGLEContextANGLEEPvjijjS0_
libGLESv2.so:_ZN2gl28GetTexParameterfvRobustANGLEEjjiPiPf
libGLESv2.so:_ZN2gl28GetTexParameterivRobustANGLEEjjiPiS0_
libGLESv2.so:_ZN2gl28GetVertexAttribfvRobustANGLEEjjiPiPf
libGLESv2.so:_ZN2gl28GetVertexAttribivRobustANGLEEjjiPiS0_
libGLESv2.so:_ZN2gl28GetnUniformfvEXTContextANGLEEPvjiiPf
libGLESv2.so:_ZN2gl28GetnUniformivEXTContextANGLEEPvjiiPi
libGLESv2.so:_ZN2gl28IsFramebufferOESContextANGLEEPvj
libGLESv2.so:_ZN2gl28IsVertexArrayOESContextANGLEEPvj
libGLESv2.so:_ZN2gl28MinSampleShadingContextANGLEEPvf
libGLESv2.so:_ZN2gl28PointParameterfvContextANGLEEPvjPKf
libGLESv2.so:_ZN2gl28PointParameterxvContextANGLEEPvjPKi
libGLESv2.so:_ZN2gl28PopDebugGroupKHRContextANGLEEPv
libGLESv2.so:_ZN2gl28ProgramBinaryOESContextANGLEEPvjjPKvi
libGLESv2.so:_ZN2gl28ProgramUniform1fContextANGLEEPvjif
libGLESv2.so:_ZN2gl28ProgramUniform1iContextANGLEEPvjii
libGLESv2.so:_ZN2gl28ProgramUniform2fContextANGLEEPvjiff
libGLESv2.so:_ZN2gl28ProgramUniform2iContextANGLEEPvjiii
libGLESv2.so:_ZN2gl28ProgramUniform3fContextANGLEEPvjifff
libGLESv2.so:_ZN2gl28ProgramUniform3iContextANGLEEPvjiiii
libGLESv2.so:_ZN2gl28ProgramUniform4fContextANGLEEPvjiffff
libGLESv2.so:_ZN2gl28ProgramUniform4iContextANGLEEPvjiiiii
libGLESv2.so:_ZN2gl28SampleMaskiANGLEContextANGLEEPvjj
libGLESv2.so:_ZN2gl28TexParameterIuivContextANGLEEPvjjPKj
libGLESv2.so:_ZN2gl28TexStorage2DMultisampleANGLEEjijiih
libGLESv2.so:_ZN2gl28TexSubImage3DOESContextANGLEEPvjiiiiiiijjPKv
libGLESv2.so:_ZN2gl28UniformMatrix2fvContextANGLEEPviihPKf
libGLESv2.so:_ZN2gl28UniformMatrix3fvContextANGLEEPviihPKf
libGLESv2.so:_ZN2gl28UniformMatrix4fvContextANGLEEPviihPKf
libGLESv2.so:_ZN2gl28UseProgramStagesContextANGLEEPvjjj
libGLESv2.so:_ZN2gl28VertexAttribI4ivContextANGLEEPvjPKi
libGLESv2.so:_ZN2gl28VertexAttribI4uiContextANGLEEPvjjjjj
libGLESv2.so:_ZN2gl28WaitSemaphoreEXTContextANGLEEPvjjPKjjS2_S2_
libGLESv2.so:_ZN2gl28WeightPointerOESContextANGLEEPvijiPKv
libGLESv2.so:_ZN2gl29BlendFuncSeparateContextANGLEEPvjjjj
libGLESv2.so:_ZN2gl29CompressedCopyTextureCHROMIUMEjj
libGLESv2.so:_ZN2gl29CopyBufferSubDataContextANGLEEPvjjlll
libGLESv2.so:_ZN2gl29CopyTexSubImage2DContextANGLEEPvjiiiiiii
libGLESv2.so:_ZN2gl29CopyTexSubImage3DContextANGLEEPvjiiiiiiii
libGLESv2.so:_ZN2gl29DrawRangeElementsContextANGLEEPvjjjijPKv
libGLESv2.so:_ZN2gl29EnableClientStateContextANGLEEPvj
libGLESv2.so:_ZN2gl29GenerateMipmapOESContextANGLEEPvj
libGLESv2.so:_ZN2gl29GetAttribLocationContextANGLEEPvjPKc
libGLESv2.so:_ZN2gl29GetBufferPointervContextANGLEEPvjjPS0_
libGLESv2.so:_ZN2gl29GetMemoryObjectParameterivEXTEjjPi
libGLESv2.so:_ZN2gl29GetObjectLabelKHRContextANGLEEPvjjiPiPc
libGLESv2.so:_ZN2gl29GetObjectPtrLabelContextANGLEEPvPKviPiPc
libGLESv2.so:_ZN2gl29GetProgramInfoLogContextANGLEEPvjiPiPc
libGLESv2.so:_ZN2gl29GetQueryObjecti64vRobustANGLEEjjiPiPl
libGLESv2.so:_ZN2gl29GetQueryObjectuivContextANGLEEPvjjPj
libGLESv2.so:_ZN2gl29GetRenderbufferParameterivOESEjjPi
libGLESv2.so:_ZN2gl29GetSemaphoreParameterui64vEXTEjjPm
libGLESv2.so:_ZN2gl29GetTexParameterIivRobustANGLEEjjiPiS0_
libGLESv2.so:_ZN2gl29GetTexParameterfvContextANGLEEPvjjPf
libGLESv2.so:_ZN2gl29GetTexParameterivContextANGLEEPvjjPi
libGLESv2.so:_ZN2gl29GetTexParameterxvContextANGLEEPvjjPi
libGLESv2.so:_ZN2gl29GetUniformIndicesContextANGLEEPvjiPKPKcPj
libGLESv2.so:_ZN2gl29GetVertexAttribIivRobustANGLEEjjiPiS0_
libGLESv2.so:_ZN2gl29GetVertexAttribfvContextANGLEEPvjjPf
libGLESv2.so:_ZN2gl29GetVertexAttribivContextANGLEEPvjjPi
libGLESv2.so:_ZN2gl29ImportMemoryFdEXTContextANGLEEPvjmji
libGLESv2.so:_ZN2gl29IsMemoryObjectEXTContextANGLEEPvj
libGLESv2.so:_ZN2gl29IsProgramPipelineContextANGLEEPvj
libGLESv2.so:_ZN2gl29IsRenderbufferOESContextANGLEEPvj
libGLESv2.so:_ZN2gl29MapBufferRangeEXTContextANGLEEPvjllj
libGLESv2.so:_ZN2gl29MultiDrawArraysInstancedANGLEEjPKiS1_S1_i
libGLESv2.so:_ZN2gl29ObjectPtrLabelKHRContextANGLEEPvPKviPKc
libGLESv2.so:_ZN2gl29PopGroupMarkerEXTContextANGLEEPv
libGLESv2.so:_ZN2gl29ProgramParameteriContextANGLEEPvjji
libGLESv2.so:_ZN2gl29ProgramUniform1fvContextANGLEEPvjiiPKf
libGLESv2.so:_ZN2gl29ProgramUniform1ivContextANGLEEPvjiiPKi
libGLESv2.so:_ZN2gl29ProgramUniform1uiContextANGLEEPvjij
libGLESv2.so:_ZN2gl29ProgramUniform2fvContextANGLEEPvjiiPKf
libGLESv2.so:_ZN2gl29ProgramUniform2ivContextANGLEEPvjiiPKi
libGLESv2.so:_ZN2gl29ProgramUniform2uiContextANGLEEPvjijj
libGLESv2.so:_ZN2gl29ProgramUniform3fvContextANGLEEPvjiiPKf
libGLESv2.so:_ZN2gl29ProgramUniform3ivContextANGLEEPvjiiPKi
libGLESv2.so:_ZN2gl29ProgramUniform3uiContextANGLEEPvjijjj
libGLESv2.so:_ZN2gl29ProgramUniform4fvContextANGLEEPvjiiPKf
libGLESv2.so:_ZN2gl29ProgramUniform4ivContextANGLEEPvjiiPKi
libGLESv2.so:_ZN2gl29ProgramUniform4uiContextANGLEEPvjijjjj
libGLESv2.so:_ZN2gl29PushDebugGroupKHRContextANGLEEPvjjiPKc
libGLESv2.so:_ZN2gl29SamplerParameterfContextANGLEEPvjjf
libGLESv2.so:_ZN2gl29SamplerParameterfvRobustANGLEEjjiPKf
libGLESv2.so:_ZN2gl29SamplerParameteriContextANGLEEPvjji
libGLESv2.so:_ZN2gl29SamplerParameterivRobustANGLEEjjiPKi
libGLESv2.so:_ZN2gl29StencilOpSeparateContextANGLEEPvjjjj
libGLESv2.so:_ZN2gl29TexStorageMem2DMultisampleEXTEjijiihjm
libGLESv2.so:_ZN2gl29TexStorageMem3DMultisampleEXTEjijiiihjm
libGLESv2.so:_ZN2gl29VertexAttribI4uivContextANGLEEPvjPKj
libGLESv2.so:_ZN2gl30BindAttribLocationContextANGLEEPvjjPKc
libGLESv2.so:_ZN2gl30BindFragDataLocationIndexedEXTEjjjPKc
libGLESv2.so:_ZN2gl30BindFramebufferOESContextANGLEEPvjj
libGLESv2.so:_ZN2gl30BindVertexArrayOESContextANGLEEPvj
libGLESv2.so:_ZN2gl30BlendFuncSeparateiContextANGLEEPvjjjjj
libGLESv2.so:_ZN2gl30CopyTexture3DANGLEContextANGLEEPvjijjiijhhh
libGLESv2.so:_ZN2gl30CoverFillPathInstancedCHROMIUMEijPKvjjjPKf
libGLESv2.so:_ZN2gl30DebugMessageInsertContextANGLEEPvjjjjiPKc
libGLESv2.so:_ZN2gl30DeleteFramebuffersContextANGLEEPviPKj
libGLESv2.so:_ZN2gl30DeleteVertexArraysContextANGLEEPviPKj
libGLESv2.so:_ZN2gl30DisableClientStateContextANGLEEPvj
libGLESv2.so:_ZN2gl30DrawArraysIndirectContextANGLEEPvjPKv
libGLESv2.so:_ZN2gl30DrawRangeElementsBaseVertexEXTEjjjijPKvi
libGLESv2.so:_ZN2gl30DrawRangeElementsBaseVertexOESEjjjijPKvi
libGLESv2.so:_ZN2gl30FramebufferTextureContextANGLEEPvjjji
libGLESv2.so:_ZN2gl30FramebufferTextureMultiviewOVREjjjiii
libGLESv2.so:_ZN2gl30GenFramebuffersOESContextANGLEEPviPj
libGLESv2.so:_ZN2gl30GenVertexArraysOESContextANGLEEPviPj
libGLESv2.so:_ZN2gl30GetAttachedShadersContextANGLEEPvjiPiPj
libGLESv2.so:_ZN2gl30GetDebugMessageLogContextANGLEEPvjiPjS1_S1_S1_PiPc
libGLESv2.so:_ZN2gl30GetInternalformativRobustANGLEEjjjiPiS0_
libGLESv2.so:_ZN2gl30GetQueryObjectui64vRobustANGLEEjjiPiPm
libGLESv2.so:_ZN2gl30GetTexParameterIivContextANGLEEPvjjPi
libGLESv2.so:_ZN2gl30GetTexParameterIuivRobustANGLEEjjiPiPj
libGLESv2.so:_ZN2gl30GetTranslatedShaderSourceANGLEEjiPiPc
libGLESv2.so:_ZN2gl30GetUniformLocationContextANGLEEPvjPKc
libGLESv2.so:_ZN2gl30GetVertexAttribIivContextANGLEEPvjjPi
libGLESv2.so:_ZN2gl30GetVertexAttribIuivRobustANGLEEjjiPiPj
libGLESv2.so:_ZN2gl30MultiDrawElementsBaseVertexEXTEjPKijPKPKviS1_
libGLESv2.so:_ZN2gl30ProgramUniform1uivContextANGLEEPvjiiPKj
libGLESv2.so:_ZN2gl30ProgramUniform2uivContextANGLEEPvjiiPKj
libGLESv2.so:_ZN2gl30ProgramUniform3uivContextANGLEEPvjiiPKj
libGLESv2.so:_ZN2gl30ProgramUniform4uivContextANGLEEPvjiiPKj
libGLESv2.so:_ZN2gl30PushGroupMarkerEXTContextANGLEEPviPKc
libGLESv2.so:_ZN2gl30RenderbufferStorageMultisampleEjijii
libGLESv2.so:_ZN2gl30SamplerParameterIivRobustANGLEEjjiPKi
libGLESv2.so:_ZN2gl30SamplerParameterfvContextANGLEEPvjjPKf
libGLESv2.so:_ZN2gl30SamplerParameterivContextANGLEEPvjjPKi
libGLESv2.so:_ZN2gl30SignalSemaphoreEXTContextANGLEEPvjjPKjjS2_S2_
libGLESv2.so:_ZN2gl30TexParameterIivOESContextANGLEEPvjjPKi
libGLESv2.so:_ZN2gl30TexStorageMem2DEXTContextANGLEEPvjijiijm
libGLESv2.so:_ZN2gl30TexStorageMem3DEXTContextANGLEEPvjijiiijm
libGLESv2.so:_ZN2gl30UniformMatrix2x3fvContextANGLEEPviihPKf
libGLESv2.so:_ZN2gl30UniformMatrix2x4fvContextANGLEEPviihPKf
libGLESv2.so:_ZN2gl30UniformMatrix3x2fvContextANGLEEPviihPKf
libGLESv2.so:_ZN2gl30UniformMatrix3x4fvContextANGLEEPviihPKf
libGLESv2.so:_ZN2gl30UniformMatrix4x2fvContextANGLEEPviihPKf
libGLESv2.so:_ZN2gl30UniformMatrix4x3fvContextANGLEEPviihPKf
libGLESv2.so:_ZN2gl30VertexAttribFormatContextANGLEEPvjijhj
libGLESv2.so:_ZN2gl31ActiveShaderProgramContextANGLEEPvjj
libGLESv2.so:_ZN2gl31BindProgramPipelineContextANGLEEPvj
libGLESv2.so:_ZN2gl31BindRenderbufferOESContextANGLEEPvjj
libGLESv2.so:_ZN2gl31BufferStorageMemEXTContextANGLEEPvjljm
libGLESv2.so:_ZN2gl31ClientActiveTextureContextANGLEEPvj
libGLESv2.so:_ZN2gl31CompressedTexImage2DRobustANGLEEjijiiiiiPKv
libGLESv2.so:_ZN2gl31CompressedTexImage3DRobustANGLEEjijiiiiiiPKv
libGLESv2.so:_ZN2gl31CopyTextureCHROMIUMContextANGLEEPvjijjiijhhh
libGLESv2.so:_ZN2gl31DebugMessageControlContextANGLEEPvjjjiPKjh
libGLESv2.so:_ZN2gl31DeletePathsCHROMIUMContextANGLEEPvji
libGLESv2.so:_ZN2gl31DeleteRenderbuffersContextANGLEEPviPKj
libGLESv2.so:_ZN2gl31DeleteSemaphoresEXTContextANGLEEPviPKj
libGLESv2.so:_ZN2gl31DrawArraysInstancedContextANGLEEPvjiii
libGLESv2.so:_ZN2gl31DrawElementsInstancedBaseVertexEjijPKvii
libGLESv2.so:_ZN2gl31GenProgramPipelinesContextANGLEEPviPj
libGLESv2.so:_ZN2gl31GenRenderbuffersOESContextANGLEEPviPj
libGLESv2.so:_ZN2gl31GetActiveUniformsivContextANGLEEPvjiPKjjPi
libGLESv2.so:_ZN2gl31GetBufferParameterivRobustANGLEEjjiPiS0_
libGLESv2.so:_ZN2gl31GetFragDataIndexEXTContextANGLEEPvjPKc
libGLESv2.so:_ZN2gl31GetFragDataLocationContextANGLEEPvjPKc
libGLESv2.so:_ZN2gl31GetInternalformativContextANGLEEPvjjjiPi
libGLESv2.so:_ZN2gl31GetProgramBinaryOESContextANGLEEPvjiPiPjS0_
libGLESv2.so:_ZN2gl31GetQueryObjectivEXTContextANGLEEPvjjPi
libGLESv2.so:_ZN2gl31GetTexParameterIuivContextANGLEEPvjjPj
libGLESv2.so:_ZN2gl31GetUnsignedBytevEXTContextANGLEEPvjPh
libGLESv2.so:_ZN2gl31GetVertexAttribIuivContextANGLEEPvjjPj
libGLESv2.so:_ZN2gl31IsTransformFeedbackContextANGLEEPvj
libGLESv2.so:_ZN2gl31LoseContextCHROMIUMContextANGLEEPvjj
libGLESv2.so:_ZN2gl31MatrixLoadfCHROMIUMContextANGLEEPvjPKf
libGLESv2.so:_ZN2gl31MultiDrawElementsInstancedANGLEEjPKijPKPKvS1_i
libGLESv2.so:_ZN2gl31PointSizePointerOESContextANGLEEPvjiPKv
libGLESv2.so:_ZN2gl31RenderbufferStorageContextANGLEEPvjjii
libGLESv2.so:_ZN2gl31SamplerParameterIivContextANGLEEPvjjPKi
libGLESv2.so:_ZN2gl31SamplerParameterIuivRobustANGLEEjjiPKj
libGLESv2.so:_ZN2gl31StencilFuncSeparateContextANGLEEPvjjij
libGLESv2.so:_ZN2gl31StencilMaskSeparateContextANGLEEPvjj
libGLESv2.so:_ZN2gl31TexParameterIuivOESContextANGLEEPvjjPKj
libGLESv2.so:_ZN2gl31UniformBlockBindingContextANGLEEPvjjj
libGLESv2.so:_ZN2gl31VertexAttribBindingContextANGLEEPvjj
libGLESv2.so:_ZN2gl31VertexAttribDivisorContextANGLEEPvjj
libGLESv2.so:_ZN2gl31VertexAttribIFormatContextANGLEEPvjijj
libGLESv2.so:_ZN2gl31VertexAttribPointerContextANGLEEPvjijhiPKv
libGLESv2.so:_ZN2gl32BlitFramebufferANGLEContextANGLEEPviiiiiiiijj
libGLESv2.so:_ZN2gl32CompressedTexImage2DContextANGLEEPvjijiiiiPKv
libGLESv2.so:_ZN2gl32CompressedTexImage3DContextANGLEEPvjijiiiiiPKv
libGLESv2.so:_ZN2gl32CopyTexSubImage3DOESContextANGLEEPvjiiiiiiii
libGLESv2.so:_ZN2gl32CoverStrokePathInstancedCHROMIUMEijPKvjjjPKf
libGLESv2.so:_ZN2gl32CreateShaderProgramvContextANGLEEPvjiPKPKc
libGLESv2.so:_ZN2gl32DebugMessageCallbackContextANGLEEPvPFvjjjjiPKcPKvES4_
libGLESv2.so:_ZN2gl32DrawElementsIndirectContextANGLEEPvjjPKv
libGLESv2.so:_ZN2gl32EndTransformFeedbackContextANGLEEPv
libGLESv2.so:_ZN2gl32FramebufferTexture2DContextANGLEEPvjjjji
libGLESv2.so:_ZN2gl32GetBufferParameterivContextANGLEEPvjjPi
libGLESv2.so:_ZN2gl32GetBufferPointervOESContextANGLEEPvjjPS0_
libGLESv2.so:_ZN2gl32GetFloatvRobustANGLEContextANGLEEPvjiPiPf
libGLESv2.so:_ZN2gl32GetObjectPtrLabelKHRContextANGLEEPvPKviPiPc
libGLESv2.so:_ZN2gl32GetProgramInterfaceivRobustANGLEEjjjiPiS0_
libGLESv2.so:_ZN2gl32GetProgramPipelineivContextANGLEEPvjjPi
libGLESv2.so:_ZN2gl32GetProgramResourceivContextANGLEEPvjjjiPKjiPiS3_
libGLESv2.so:_ZN2gl32GetQueryObjectuivEXTContextANGLEEPvjjPj
libGLESv2.so:_ZN2gl32GetSamplerParameterfvRobustANGLEEjjiPiPf
libGLESv2.so:_ZN2gl32GetSamplerParameterivRobustANGLEEjjiPiS0_
libGLESv2.so:_ZN2gl32GetUniformBlockIndexContextANGLEEPvjPKc
libGLESv2.so:_ZN2gl32ImportSemaphoreFdEXTContextANGLEEPvjji
libGLESv2.so:_ZN2gl32InsertEventMarkerEXTContextANGLEEPviPKc
libGLESv2.so:_ZN2gl32MultiDrawArraysANGLEContextANGLEEPvjPKiS2_i
libGLESv2.so:_ZN2gl32PathCommandsCHROMIUMContextANGLEEPvjiPKhijPKv
libGLESv2.so:_ZN2gl32PrimitiveBoundingBoxContextANGLEEPvffffffff
libGLESv2.so:_ZN2gl32ProvokingVertexANGLEContextANGLEEPvj
libGLESv2.so:_ZN2gl32SamplerParameterIuivContextANGLEEPvjjPKj
libGLESv2.so:_ZN2gl32StencilFillPathInstancedCHROMIUMEijPKvjjjjPKf
libGLESv2.so:_ZN2gl32StencilThenCoverFillPathCHROMIUMEjjjj
libGLESv2.so:_ZN2gl32VertexAttribIPointerContextANGLEEPvjijiPKv
libGLESv2.so:_ZN2gl32VertexBindingDivisorContextANGLEEPvjj
libGLESv2.so:_ZN2gl33BindFragmentInputLocationCHROMIUMEjiPKc
libGLESv2.so:_ZN2gl33BindTransformFeedbackContextANGLEEPvjj
libGLESv2.so:_ZN2gl33BlendEquationSeparateContextANGLEEPvjj
libGLESv2.so:_ZN2gl33CopySubTexture3DANGLEContextANGLEEPvjijjiiiiiiiiiihhh
libGLESv2.so:_ZN2gl33CoverFillPathCHROMIUMContextANGLEEPvjj
libGLESv2.so:_ZN2gl33DebugMessageInsertKHRContextANGLEEPvjjjjiPKc
libGLESv2.so:_ZN2gl33DeleteFramebuffersOESContextANGLEEPviPKj
libGLESv2.so:_ZN2gl33DeleteVertexArraysOESContextANGLEEPviPKj
libGLESv2.so:_ZN2gl33DisableExtensionANGLEContextANGLEEPvPKc
libGLESv2.so:_ZN2gl33DiscardFramebufferEXTContextANGLEEPvjiPKj
libGLESv2.so:_ZN2gl33DrawElementsInstancedContextANGLEEPvjijPKvi
libGLESv2.so:_ZN2gl33FramebufferParameteriContextANGLEEPvjji
libGLESv2.so:_ZN2gl33FramebufferTextureEXTContextANGLEEPvjjji
libGLESv2.so:_ZN2gl33GenTransformFeedbacksContextANGLEEPviPj
libGLESv2.so:_ZN2gl33GetBufferParameteri64vRobustANGLEEjjiPiPl
libGLESv2.so:_ZN2gl33GetDebugMessageLogKHRContextANGLEEPvjiPjS1_S1_S1_PiPc
libGLESv2.so:_ZN2gl33GetMultisamplefvANGLEContextANGLEEPvjjPf
libGLESv2.so:_ZN2gl33GetPointervRobustANGLERobustANGLEEjiPiPPv
libGLESv2.so:_ZN2gl33GetProgramInterfaceivContextANGLEEPvjjjPi
libGLESv2.so:_ZN2gl33GetQueryObjecti64vEXTContextANGLEEPvjjPl
libGLESv2.so:_ZN2gl33GetQueryivRobustANGLEContextANGLEEPvjjiPiS1_
libGLESv2.so:_ZN2gl33GetSamplerParameterIivRobustANGLEEjjiPiS0_
libGLESv2.so:_ZN2gl33GetSamplerParameterfvContextANGLEEPvjjPf
libGLESv2.so:_ZN2gl33GetSamplerParameterivContextANGLEEPvjjPi
libGLESv2.so:_ZN2gl33GetTexLevelParameterfvRobustANGLEEjijiPiPf
libGLESv2.so:_ZN2gl33GetTexLevelParameterivRobustANGLEEjijiPiS0_
libGLESv2.so:_ZN2gl33GetTexParameterIivOESContextANGLEEPvjjPi
libGLESv2.so:_ZN2gl33GetUnsignedBytei_vEXTContextANGLEEPvjjPh
libGLESv2.so:_ZN2gl33InvalidateFramebufferContextANGLEEPvjiPKj
libGLESv2.so:_ZN2gl33LoadPaletteFromModelViewMatrixOESEv
libGLESv2.so:_ZN2gl33MatrixIndexPointerOESContextANGLEEPvijiPKv
libGLESv2.so:_ZN2gl33MemoryBarrierByRegionContextANGLEEPvj
libGLESv2.so:_ZN2gl33ReadPixelsRobustANGLEContextANGLEEPviiiijjiPiS1_S1_S0_
libGLESv2.so:_ZN2gl33ReleaseShaderCompilerContextANGLEEPv
libGLESv2.so:_ZN2gl33RenderbufferStorageMultisampleEXTEjijii
libGLESv2.so:_ZN2gl33RequestExtensionANGLEContextANGLEEPvPKc
libGLESv2.so:_ZN2gl33TexImage2DRobustANGLEContextANGLEEPvjiiiiijjiPKv
libGLESv2.so:_ZN2gl33TexImage3DRobustANGLEContextANGLEEPvjiiiiiijjiPKv
libGLESv2.so:_ZN2gl34BeginTransformFeedbackContextANGLEEPvj
libGLESv2.so:_ZN2gl34BlendEquationSeparateiContextANGLEEPvjjj
libGLESv2.so:_ZN2gl34CheckFramebufferStatusContextANGLEEPvj
libGLESv2.so:_ZN2gl34CompressedTexSubImage2DRobustANGLEEjiiiiijiiPKv
libGLESv2.so:_ZN2gl34CompressedTexSubImage3DRobustANGLEEjiiiiiiijiiPKv
libGLESv2.so:_ZN2gl34CopySubTextureCHROMIUMContextANGLEEPvjijjiiiiiiihhh
libGLESv2.so:_ZN2gl34CreateMemoryObjectsEXTContextANGLEEPviPj
libGLESv2.so:_ZN2gl34DebugMessageControlKHRContextANGLEEPvjjjiPKjh
libGLESv2.so:_ZN2gl34DeleteMemoryObjectsEXTContextANGLEEPviPKj
libGLESv2.so:_ZN2gl34DeleteProgramPipelinesContextANGLEEPviPKj
libGLESv2.so:_ZN2gl34DeleteRenderbuffersOESContextANGLEEPviPKj
libGLESv2.so:_ZN2gl34DrawArraysInstancedEXTContextANGLEEPvjiii
libGLESv2.so:_ZN2gl34DrawElementsBaseVertexContextANGLEEPvjijPKvi
libGLESv2.so:_ZN2gl34DrawElementsInstancedBaseVertexEXTEjijPKvii
libGLESv2.so:_ZN2gl34DrawElementsInstancedBaseVertexOESEjijPKvii
libGLESv2.so:_ZN2gl34FlushMappedBufferRangeContextANGLEEPvjll
libGLESv2.so:_ZN2gl34FramebufferTexture2DMultisampleEXTEjjjjii
libGLESv2.so:_ZN2gl34GetActiveUniformBlockivRobustANGLEEjjjiPiS0_
libGLESv2.so:_ZN2gl34GetBooleanvRobustANGLEContextANGLEEPvjiPiPh
libGLESv2.so:_ZN2gl34GetBufferParameteri64vContextANGLEEPvjjPl
libGLESv2.so:_ZN2gl34GetGraphicsResetStatusContextANGLEEPv
libGLESv2.so:_ZN2gl34GetIntegervRobustANGLEContextANGLEEPvjiPiS1_
libGLESv2.so:_ZN2gl34GetProgramResourceLocationIndexEXTEjjPKc
libGLESv2.so:_ZN2gl34GetProgramResourceNameContextANGLEEPvjjjiPiPc
libGLESv2.so:_ZN2gl34GetQueryObjectui64vEXTContextANGLEEPvjjPm
libGLESv2.so:_ZN2gl34GetSamplerParameterIivContextANGLEEPvjjPi
libGLESv2.so:_ZN2gl34GetSamplerParameterIuivRobustANGLEEjjiPiPj
libGLESv2.so:_ZN2gl34GetShaderivRobustANGLEContextANGLEEPvjjiPiS1_
libGLESv2.so:_ZN2gl34GetTexLevelParameterfvContextANGLEEPvjijPf
libGLESv2.so:_ZN2gl34GetTexLevelParameterivContextANGLEEPvjijPi
libGLESv2.so:_ZN2gl34GetTexParameterIuivOESContextANGLEEPvjjPj
libGLESv2.so:_ZN2gl34GetVertexAttribPointervRobustANGLEEjjiPiPPv
libGLESv2.so:_ZN2gl34InvalidateTextureANGLEContextANGLEEPvj
libGLESv2.so:_ZN2gl34MultiDrawElementsANGLEContextANGLEEPvjPKijPKPKvi
libGLESv2.so:_ZN2gl34PathParameterfCHROMIUMContextANGLEEPvjjf
libGLESv2.so:_ZN2gl34PathParameteriCHROMIUMContextANGLEEPvjji
libGLESv2.so:_ZN2gl34PauseTransformFeedbackContextANGLEEPv
libGLESv2.so:_ZN2gl34ReadnPixelsRobustANGLEContextANGLEEPviiiijjiPiS1_S1_S0_
libGLESv2.so:_ZN2gl34RenderbufferStorageOESContextANGLEEPvjjii
libGLESv2.so:_ZN2gl34SamplerParameterIivOESContextANGLEEPvjjPKi
libGLESv2.so:_ZN2gl34StencilStrokePathInstancedCHROMIUMEijPKvjijjPKf
libGLESv2.so:_ZN2gl34StencilThenCoverStrokePathCHROMIUMEjijj
libGLESv2.so:_ZN2gl34VertexAttribDivisorEXTContextANGLEEPvjj
libGLESv2.so:_ZN2gl35BindFragDataLocationEXTContextANGLEEPvjjPKc
libGLESv2.so:_ZN2gl35CompressedTexImage3DOESContextANGLEEPvjijiiiiiPKv
libGLESv2.so:_ZN2gl35CompressedTexSubImage2DContextANGLEEPvjiiiiijiPKv
libGLESv2.so:_ZN2gl35CompressedTexSubImage3DContextANGLEEPvjiiiiiiijiPKv
libGLESv2.so:_ZN2gl35CoverStrokePathCHROMIUMContextANGLEEPvjj
libGLESv2.so:_ZN2gl35CurrentPaletteMatrixOESContextANGLEEPvj
libGLESv2.so:_ZN2gl35DebugMessageCallbackKHRContextANGLEEPvPFvjjjjiPKcPKvES4_
libGLESv2.so:_ZN2gl35DispatchComputeIndirectContextANGLEEPvl
libGLESv2.so:_ZN2gl35EnableVertexAttribArrayContextANGLEEPvj
libGLESv2.so:_ZN2gl35FramebufferRenderbufferContextANGLEEPvjjjj
libGLESv2.so:_ZN2gl35FramebufferTexture2DOESContextANGLEEPvjjjji
libGLESv2.so:_ZN2gl35FramebufferTexture3DOESContextANGLEEPvjjjjii
libGLESv2.so:_ZN2gl35FramebufferTextureLayerContextANGLEEPvjjjii
libGLESv2.so:_ZN2gl35GetActiveUniformBlockivContextANGLEEPvjjjPi
libGLESv2.so:_ZN2gl35GetFramebufferAttachmentParameterivEjjjPi
libGLESv2.so:_ZN2gl35GetProgramResourceIndexContextANGLEEPvjjPKc
libGLESv2.so:_ZN2gl35GetProgramivRobustANGLEContextANGLEEPvjjiPiS1_
libGLESv2.so:_ZN2gl35GetSamplerParameterIuivContextANGLEEPvjjPj
libGLESv2.so:_ZN2gl35GetUniformfvRobustANGLEContextANGLEEPvjiiPiPf
libGLESv2.so:_ZN2gl35GetUniformivRobustANGLEContextANGLEEPvjiiPiS1_
libGLESv2.so:_ZN2gl35GetVertexAttribPointervContextANGLEEPvjjPS0_
libGLESv2.so:_ZN2gl35PathStencilFuncCHROMIUMContextANGLEEPvjij
libGLESv2.so:_ZN2gl35ProgramPathFragmentInputGenCHROMIUMEjijiPKf
libGLESv2.so:_ZN2gl35ProgramUniformMatrix2fvContextANGLEEPvjiihPKf
libGLESv2.so:_ZN2gl35ProgramUniformMatrix3fvContextANGLEEPvjiihPKf
libGLESv2.so:_ZN2gl35ProgramUniformMatrix4fvContextANGLEEPvjiihPKf
libGLESv2.so:_ZN2gl35RenderbufferStorageMultisampleANGLEEjijii
libGLESv2.so:_ZN2gl35ResumeTransformFeedbackContextANGLEEPv
libGLESv2.so:_ZN2gl35SamplerParameterIuivOESContextANGLEEPvjjPKj
libGLESv2.so:_ZN2gl35StencilFillPathCHROMIUMContextANGLEEPvjjj
libGLESv2.so:_ZN2gl35TexImage2DExternalANGLEContextANGLEEPvjiiiiijj
libGLESv2.so:_ZN2gl35TexStorage2DMultisampleContextANGLEEPvjijiih
libGLESv2.so:_ZN2gl35TexStorage3DMultisampleContextANGLEEPvjijiiih
libGLESv2.so:_ZN2gl35ValidateProgramPipelineContextANGLEEPvj
libGLESv2.so:_ZN2gl36DeleteTransformFeedbacksContextANGLEEPviPKj
libGLESv2.so:_ZN2gl36DisableVertexAttribArrayContextANGLEEPvj
libGLESv2.so:_ZN2gl36DrawArraysInstancedANGLEContextANGLEEPvjiii
libGLESv2.so:_ZN2gl36DrawArraysInstancedBaseInstanceANGLEEjiiij
libGLESv2.so:_ZN2gl36DrawElementsInstancedEXTContextANGLEEPvjijPKvi
libGLESv2.so:_ZN2gl36EGLImageTargetRenderbufferStorageOESEjPv
libGLESv2.so:_ZN2gl36GetBooleani_vRobustANGLEContextANGLEEPvjjiPiPh
libGLESv2.so:_ZN2gl36GetFramebufferParameterivRobustANGLEEjjiPiS0_
libGLESv2.so:_ZN2gl36GetInteger64vRobustANGLEContextANGLEEPvjiPiPl
libGLESv2.so:_ZN2gl36GetIntegeri_vRobustANGLEContextANGLEEPvjjiPiS1_
libGLESv2.so:_ZN2gl36GetShaderPrecisionFormatContextANGLEEPvjjPiS1_
libGLESv2.so:_ZN2gl36GetUniformuivRobustANGLEContextANGLEEPvjiiPiPj
libGLESv2.so:_ZN2gl36GetnUniformfvRobustANGLEContextANGLEEPvjiiPiPf
libGLESv2.so:_ZN2gl36GetnUniformivRobustANGLEContextANGLEEPvjiiPiS1_
libGLESv2.so:_ZN2gl36InvalidateSubFramebufferContextANGLEEPvjiPKjiiii
libGLESv2.so:_ZN2gl36TexSubImage2DRobustANGLEContextANGLEEPvjiiiiijjiPKv
libGLESv2.so:_ZN2gl36TexSubImage3DRobustANGLEContextANGLEEPvjiiiiiiijjiPKv
libGLESv2.so:_ZN2gl36VertexAttribDivisorANGLEContextANGLEEPvjj
libGLESv2.so:_ZN2gl37CheckFramebufferStatusOESContextANGLEEPvj
libGLESv2.so:_ZN2gl37DrawElementsBaseVertexEXTContextANGLEEPvjijPKvi
libGLESv2.so:_ZN2gl37DrawElementsBaseVertexOESContextANGLEEPvjijPKvi
libGLESv2.so:_ZN2gl37FlushMappedBufferRangeEXTContextANGLEEPvjll
libGLESv2.so:_ZN2gl37GetActiveUniformBlockNameContextANGLEEPvjjiPiPc
libGLESv2.so:_ZN2gl37GetFramebufferParameterivContextANGLEEPvjjPi
libGLESv2.so:_ZN2gl37GetGraphicsResetStatusEXTContextANGLEEPv
libGLESv2.so:_ZN2gl37GetProgramPipelineInfoLogContextANGLEEPvjiPiPc
libGLESv2.so:_ZN2gl37GetRenderbufferImageANGLEContextANGLEEPvjjjS0_
libGLESv2.so:_ZN2gl37GetRenderbufferParameterivRobustANGLEEjjiPiS0_
libGLESv2.so:_ZN2gl37GetSamplerParameterIivOESContextANGLEEPvjjPi
libGLESv2.so:_ZN2gl37GetnUniformuivRobustANGLEContextANGLEEPvjiiPiPj
libGLESv2.so:_ZN2gl37ProgramUniformMatrix2x3fvContextANGLEEPvjiihPKf
libGLESv2.so:_ZN2gl37ProgramUniformMatrix2x4fvContextANGLEEPvjiihPKf
libGLESv2.so:_ZN2gl37ProgramUniformMatrix3x2fvContextANGLEEPvjiihPKf
libGLESv2.so:_ZN2gl37ProgramUniformMatrix3x4fvContextANGLEEPvjiihPKf
libGLESv2.so:_ZN2gl37ProgramUniformMatrix4x2fvContextANGLEEPvjiihPKf
libGLESv2.so:_ZN2gl37ProgramUniformMatrix4x3fvContextANGLEEPvjiihPKf
libGLESv2.so:_ZN2gl37StencilStrokePathCHROMIUMContextANGLEEPvjij
libGLESv2.so:_ZN2gl37TexParameterfvRobustANGLEContextANGLEEPvjjiPKf
libGLESv2.so:_ZN2gl37TexParameterivRobustANGLEContextANGLEEPvjjiPKi
libGLESv2.so:_ZN2gl37TransformFeedbackVaryingsContextANGLEEPvjiPKPKcj
libGLESv2.so:_ZN2gl38CompressedTexSubImage3DOESContextANGLEEPvjiiiiiiijiPKv
libGLESv2.so:_ZN2gl38CoverageModulationCHROMIUMContextANGLEEPvj
libGLESv2.so:_ZN2gl38DrawElementsInstancedANGLEContextANGLEEPvjijPKvi
libGLESv2.so:_ZN2gl38EGLImageTargetTexture2DOESContextANGLEEPvjS0_
libGLESv2.so:_ZN2gl38FramebufferRenderbufferOESContextANGLEEPvjjjj
libGLESv2.so:_ZN2gl38GetFramebufferAttachmentParameterivOESEjjjPi
libGLESv2.so:_ZN2gl38GetInteger64i_vRobustANGLEContextANGLEEPvjjiPiPl
libGLESv2.so:_ZN2gl38GetPathParameterfvCHROMIUMContextANGLEEPvjjPf
libGLESv2.so:_ZN2gl38GetPathParameterivCHROMIUMContextANGLEEPvjjPi
libGLESv2.so:_ZN2gl38GetProgramResourceLocationContextANGLEEPvjjPKc
libGLESv2.so:_ZN2gl38GetRenderbufferParameterivContextANGLEEPvjjPi
libGLESv2.so:_ZN2gl38GetSamplerParameterIuivOESContextANGLEEPvjjPj
libGLESv2.so:_ZN2gl38MatrixLoadIdentityCHROMIUMContextANGLEEPvj
libGLESv2.so:_ZN2gl38MemoryObjectParameterivEXTContextANGLEEPvjjPKi
libGLESv2.so:_ZN2gl38SemaphoreParameterui64vEXTContextANGLEEPvjjPKm
libGLESv2.so:_ZN2gl38TexParameterIivRobustANGLEContextANGLEEPvjjiPKi
libGLESv2.so:_ZN2gl38TexStorage3DMultisampleOESContextANGLEEPvjijiiih
libGLESv2.so:_ZN2gl39BindUniformLocationCHROMIUMContextANGLEEPvjiPKc
libGLESv2.so:_ZN2gl39DrawRangeElementsBaseVertexContextANGLEEPvjjjijPKvi
libGLESv2.so:_ZN2gl39GetMultisamplefvRobustANGLEContextANGLEEPvjjiPiPf
libGLESv2.so:_ZN2gl39GetQueryObjectivRobustANGLEContextANGLEEPvjjiPiS1_
libGLESv2.so:_ZN2gl39GetTexLevelParameterfvANGLEContextANGLEEPvjijPf
libGLESv2.so:_ZN2gl39GetTexLevelParameterivANGLEContextANGLEEPvjijPi
libGLESv2.so:_ZN2gl39GetTransformFeedbackVaryingContextANGLEEPvjjiPiS1_PjPc
libGLESv2.so:_ZN2gl39MaxShaderCompilerThreadsKHRContextANGLEEPvj
libGLESv2.so:_ZN2gl39TexParameterIuivRobustANGLEContextANGLEEPvjjiPKj
libGLESv2.so:_ZN2gl40GetBufferPointervRobustANGLEContextANGLEEPvjjiPiPS0_
libGLESv2.so:_ZN2gl40GetQueryObjectuivRobustANGLEContextANGLEEPvjjiPiPj
libGLESv2.so:_ZN2gl40GetTexParameterfvRobustANGLEContextANGLEEPvjjiPiPf
libGLESv2.so:_ZN2gl40GetTexParameterivRobustANGLEContextANGLEEPvjjiPiS1_
libGLESv2.so:_ZN2gl40GetVertexAttribfvRobustANGLEContextANGLEEPvjjiPiPf
libGLESv2.so:_ZN2gl40GetVertexAttribivRobustANGLEContextANGLEEPvjjiPiS1_
libGLESv2.so:_ZN2gl40TexStorage2DMultisampleANGLEContextANGLEEPvjijiih
libGLESv2.so:_ZN2gl41CompressedCopyTextureCHROMIUMContextANGLEEPvjj
libGLESv2.so:_ZN2gl41GetMemoryObjectParameterivEXTContextANGLEEPvjjPi
libGLESv2.so:_ZN2gl41GetQueryObjecti64vRobustANGLEContextANGLEEPvjjiPiPl
libGLESv2.so:_ZN2gl41GetRenderbufferParameterivOESContextANGLEEPvjjPi
libGLESv2.so:_ZN2gl41GetSemaphoreParameterui64vEXTContextANGLEEPvjjPm
libGLESv2.so:_ZN2gl41GetTexParameterIivRobustANGLEContextANGLEEPvjjiPiS1_
libGLESv2.so:_ZN2gl41GetVertexAttribIivRobustANGLEContextANGLEEPvjjiPiS1_
libGLESv2.so:_ZN2gl41MultiDrawArraysInstancedANGLEContextANGLEEPvjPKiS2_S2_i
libGLESv2.so:_ZN2gl41MultiDrawArraysInstancedBaseInstanceANGLEEjPKiS1_S1_PKji
libGLESv2.so:_ZN2gl41SamplerParameterfvRobustANGLEContextANGLEEPvjjiPKf
libGLESv2.so:_ZN2gl41SamplerParameterivRobustANGLEContextANGLEEPvjjiPKi
libGLESv2.so:_ZN2gl41StencilThenCoverFillPathInstancedCHROMIUMEijPKvjjjjjPKf
libGLESv2.so:_ZN2gl41TexStorageMem2DMultisampleEXTContextANGLEEPvjijiihjm
libGLESv2.so:_ZN2gl41TexStorageMem3DMultisampleEXTContextANGLEEPvjijiiihjm
libGLESv2.so:_ZN2gl42BindFragDataLocationIndexedEXTContextANGLEEPvjjjPKc
libGLESv2.so:_ZN2gl42CoverFillPathInstancedCHROMIUMContextANGLEEPvijPKvjjjPKf
libGLESv2.so:_ZN2gl42DrawRangeElementsBaseVertexEXTContextANGLEEPvjjjijPKvi
libGLESv2.so:_ZN2gl42DrawRangeElementsBaseVertexOESContextANGLEEPvjjjijPKvi
libGLESv2.so:_ZN2gl42FramebufferTextureMultiviewOVRContextANGLEEPvjjjiii
libGLESv2.so:_ZN2gl42GetInternalformativRobustANGLEContextANGLEEPvjjjiPiS1_
libGLESv2.so:_ZN2gl42GetQueryObjectui64vRobustANGLEContextANGLEEPvjjiPiPm
libGLESv2.so:_ZN2gl42GetTexParameterIuivRobustANGLEContextANGLEEPvjjiPiPj
libGLESv2.so:_ZN2gl42GetTranslatedShaderSourceANGLEContextANGLEEPvjiPiPc
libGLESv2.so:_ZN2gl42GetVertexAttribIuivRobustANGLEContextANGLEEPvjjiPiPj
libGLESv2.so:_ZN2gl42MultiDrawElementsBaseVertexEXTContextANGLEEPvjPKijPKPKviS2_
libGLESv2.so:_ZN2gl42RenderbufferStorageMultisampleContextANGLEEPvjijii
libGLESv2.so:_ZN2gl42SamplerParameterIivRobustANGLEContextANGLEEPvjjiPKi
libGLESv2.so:_ZN2gl43CompressedTexImage2DRobustANGLEContextANGLEEPvjijiiiiiPKv
libGLESv2.so:_ZN2gl43CompressedTexImage3DRobustANGLEContextANGLEEPvjijiiiiiiPKv
libGLESv2.so:_ZN2gl43DrawElementsInstancedBaseVertexContextANGLEEPvjijPKvii
libGLESv2.so:_ZN2gl43GetBufferParameterivRobustANGLEContextANGLEEPvjjiPiS1_
libGLESv2.so:_ZN2gl43MultiDrawElementsInstancedANGLEContextANGLEEPvjPKijPKPKvS2_i
libGLESv2.so:_ZN2gl43SamplerParameterIuivRobustANGLEContextANGLEEPvjjiPKj
libGLESv2.so:_ZN2gl43StencilThenCoverStrokePathInstancedCHROMIUMEijPKvjijjjPKf
libGLESv2.so:_ZN2gl44CoverStrokePathInstancedCHROMIUMContextANGLEEPvijPKvjjjPKf
libGLESv2.so:_ZN2gl44GetProgramInterfaceivRobustANGLEContextANGLEEPvjjjiPiS1_
libGLESv2.so:_ZN2gl44GetSamplerParameterfvRobustANGLEContextANGLEEPvjjiPiPf
libGLESv2.so:_ZN2gl44GetSamplerParameterivRobustANGLEContextANGLEEPvjjiPiS1_
libGLESv2.so:_ZN2gl44StencilFillPathInstancedCHROMIUMContextANGLEEPvijPKvjjjjPKf
libGLESv2.so:_ZN2gl44StencilThenCoverFillPathCHROMIUMContextANGLEEPvjjjj
libGLESv2.so:_ZN2gl45BindFragmentInputLocationCHROMIUMContextANGLEEPvjiPKc
libGLESv2.so:_ZN2gl45GetBufferParameteri64vRobustANGLEContextANGLEEPvjjiPiPl
libGLESv2.so:_ZN2gl45GetPointervRobustANGLERobustANGLEContextANGLEEPvjiPiPS0_
libGLESv2.so:_ZN2gl45GetSamplerParameterIivRobustANGLEContextANGLEEPvjjiPiS1_
libGLESv2.so:_ZN2gl45GetTexLevelParameterfvRobustANGLEContextANGLEEPvjijiPiPf
libGLESv2.so:_ZN2gl45GetTexLevelParameterivRobustANGLEContextANGLEEPvjijiPiS1_
libGLESv2.so:_ZN2gl45LoadPaletteFromModelViewMatrixOESContextANGLEEPv
libGLESv2.so:_ZN2gl45RenderbufferStorageMultisampleEXTContextANGLEEPvjijii
libGLESv2.so:_ZN2gl46CompressedTexSubImage2DRobustANGLEContextANGLEEPvjiiiiijiiPKv
libGLESv2.so:_ZN2gl46CompressedTexSubImage3DRobustANGLEContextANGLEEPvjiiiiiiijiiPKv
libGLESv2.so:_ZN2gl46DrawElementsInstancedBaseVertexEXTContextANGLEEPvjijPKvii
libGLESv2.so:_ZN2gl46DrawElementsInstancedBaseVertexOESContextANGLEEPvjijPKvii
libGLESv2.so:_ZN2gl46FramebufferTexture2DMultisampleEXTContextANGLEEPvjjjjii
libGLESv2.so:_ZN2gl46GetActiveUniformBlockivRobustANGLEContextANGLEEPvjjjiPiS1_
libGLESv2.so:_ZN2gl46GetFramebufferAttachmentParameterivRobustANGLEEjjjiPiS0_
libGLESv2.so:_ZN2gl46GetProgramResourceLocationIndexEXTContextANGLEEPvjjPKc
libGLESv2.so:_ZN2gl46GetSamplerParameterIuivRobustANGLEContextANGLEEPvjjiPiPj
libGLESv2.so:_ZN2gl46GetVertexAttribPointervRobustANGLEContextANGLEEPvjjiPiPS0_
libGLESv2.so:_ZN2gl46StencilStrokePathInstancedCHROMIUMContextANGLEEPvijPKvjijjPKf
libGLESv2.so:_ZN2gl46StencilThenCoverStrokePathCHROMIUMContextANGLEEPvjijj
libGLESv2.so:_ZN2gl47GetFramebufferAttachmentParameterivContextANGLEEPvjjjPi
libGLESv2.so:_ZN2gl47ProgramPathFragmentInputGenCHROMIUMContextANGLEEPvjijiPKf
libGLESv2.so:_ZN2gl47RenderbufferStorageMultisampleANGLEContextANGLEEPvjijii
libGLESv2.so:_ZN2gl48DrawArraysInstancedBaseInstanceANGLEContextANGLEEPvjiiij
libGLESv2.so:_ZN2gl48DrawElementsInstancedBaseVertexBaseInstanceANGLEEjijPKviij
libGLESv2.so:_ZN2gl48EGLImageTargetRenderbufferStorageOESContextANGLEEPvjS0_
libGLESv2.so:_ZN2gl48GetFramebufferParameterivRobustANGLEContextANGLEEPvjjiPiS1_
libGLESv2.so:_ZN2gl49GetRenderbufferParameterivRobustANGLEContextANGLEEPvjjiPiS1_
libGLESv2.so:_ZN2gl4FogfEjf
libGLESv2.so:_ZN2gl4FogxEji
libGLESv2.so:_ZN2gl4HintEjj
libGLESv2.so:_ZN2gl50GetFramebufferAttachmentParameterivOESContextANGLEEPvjjjPi
libGLESv2.so:_ZN2gl53MultiDrawArraysInstancedBaseInstanceANGLEContextANGLEEPvjPKiS2_S2_PKji
libGLESv2.so:_ZN2gl53MultiDrawElementsInstancedBaseVertexBaseInstanceANGLEEjPKijPKPKvS1_S1_PKji
libGLESv2.so:_ZN2gl53StencilThenCoverFillPathInstancedCHROMIUMContextANGLEEPvijPKvjjjjjPKf
libGLESv2.so:_ZN2gl55StencilThenCoverStrokePathInstancedCHROMIUMContextANGLEEPvijPKvjijjjPKf
libGLESv2.so:_ZN2gl58GetFramebufferAttachmentParameterivRobustANGLEContextANGLEEPvjjjiPiS1_
libGLESv2.so:_ZN2gl5ClearEj
libGLESv2.so:_ZN2gl5FlushEv
libGLESv2.so:_ZN2gl5FogfvEjPKf
libGLESv2.so:_ZN2gl5FogxvEjPKi
libGLESv2.so:_ZN2gl60DrawElementsInstancedBaseVertexBaseInstanceANGLEContextANGLEEPvjijPKviij
libGLESv2.so:_ZN2gl65MultiDrawElementsInstancedBaseVertexBaseInstanceANGLEContextANGLEEPvjPKijPKPKvS2_S2_PKji
libGLESv2.so:_ZN2gl6EnableEj
libGLESv2.so:_ZN2gl6FinishEv
libGLESv2.so:_ZN2gl6IsSyncEP8__GLsync
libGLESv2.so:_ZN2gl6LightfEjjf
libGLESv2.so:_ZN2gl6LightxEjji
libGLESv2.so:_ZN2gl6OrthofEffffff
libGLESv2.so:_ZN2gl6OrthoxEiiiiii
libGLESv2.so:_ZN2gl6ScalefEfff
libGLESv2.so:_ZN2gl6ScalexEiii
libGLESv2.so:_ZN2gl7Color4fEffff
libGLESv2.so:_ZN2gl7Color4xEiiii
libGLESv2.so:_ZN2gl7DisableEj
libGLESv2.so:_ZN2gl7EnableiEjj
libGLESv2.so:_ZN2gl7IsQueryEj
libGLESv2.so:_ZN2gl7LightfvEjjPKf
libGLESv2.so:_ZN2gl7LightxvEjjPKi
libGLESv2.so:_ZN2gl7LogicOpEj
libGLESv2.so:_ZN2gl7RotatefEffff
libGLESv2.so:_ZN2gl7RotatexEiiii
libGLESv2.so:_ZN2gl7ScissorEiiii
libGLESv2.so:_ZN2gl7TexEnvfEjjf
libGLESv2.so:_ZN2gl7TexEnviEjji
libGLESv2.so:_ZN2gl7TexEnvxEjji
libGLESv2.so:_ZN2gl8Color4ubEhhhh
libGLESv2.so:_ZN2gl8CullFaceEj
libGLESv2.so:_ZN2gl8DisableiEjj
libGLESv2.so:_ZN2gl8EndQueryEj
libGLESv2.so:_ZN2gl8FrustumfEffffff
libGLESv2.so:_ZN2gl8FrustumxEiiiiii
libGLESv2.so:_ZN2gl8GetErrorEv
libGLESv2.so:_ZN2gl8IsBufferEj
libGLESv2.so:_ZN2gl8IsShaderEj
libGLESv2.so:_ZN2gl8Normal3fEfff
libGLESv2.so:_ZN2gl8Normal3xEiii
libGLESv2.so:_ZN2gl8TexEnvfvEjjPKf
libGLESv2.so:_ZN2gl8TexEnvivEjjPKi
libGLESv2.so:_ZN2gl8TexEnvxvEjjPKi
libGLESv2.so:_ZN2gl8ViewportEiiii
libGLESv2.so:_ZN2gl8WaitSyncEP8__GLsyncjm
libGLESv2.so:_ZN2gl9AlphaFuncEjf
libGLESv2.so:_ZN2gl9BlendFuncEjj
libGLESv2.so:_ZN2gl9ColorMaskEhhhh
libGLESv2.so:_ZN2gl9DepthFuncEj
libGLESv2.so:_ZN2gl9DepthMaskEh
libGLESv2.so:_ZN2gl9FenceSyncEjj
libGLESv2.so:_ZN2gl9FrontFaceEj
libGLESv2.so:_ZN2gl9GetFixedvEjPi
libGLESv2.so:_ZN2gl9GetFloatvEjPf
libGLESv2.so:_ZN2gl9GetStringEj
libGLESv2.so:_ZN2gl9GetSyncivEP8__GLsyncjiPiS2_
libGLESv2.so:_ZN2gl9IsEnabledEj
libGLESv2.so:_ZN2gl9IsFenceNVEj
libGLESv2.so:_ZN2gl9IsProgramEj
libGLESv2.so:_ZN2gl9IsSamplerEj
libGLESv2.so:_ZN2gl9IsTextureEj
libGLESv2.so:_ZN2gl9LineWidthEf
libGLESv2.so:_ZN2gl9MaterialfEjjf
libGLESv2.so:_ZN2gl9MaterialxEjji
libGLESv2.so:_ZN2gl9PointSizeEf
libGLESv2.so:_ZN2gl9PopMatrixEv
libGLESv2.so:_ZN2gl9StencilOpEjjj
libGLESv2.so:_ZN2gl9TexBufferEjjj
libGLESv2.so:_ZN2gl9Uniform1fEif
libGLESv2.so:_ZN2gl9Uniform1iEii
libGLESv2.so:_ZN2gl9Uniform2fEiff
libGLESv2.so:_ZN2gl9Uniform2iEiii
libGLESv2.so:_ZN2gl9Uniform3fEifff
libGLESv2.so:_ZN2gl9Uniform3iEiiii
libGLESv2.so:_ZN2gl9Uniform4fEiffff
libGLESv2.so:_ZN2gl9Uniform4iEiiiii
libGLESv2.so:__bss_start
libGLESv2.so:_edata
libGLESv2.so:_end
libGLESv2.so:glActiveShaderProgram
libGLESv2.so:glActiveShaderProgramContextANGLE
libGLESv2.so:glActiveTexture
libGLESv2.so:glActiveTextureContextANGLE
libGLESv2.so:glAlphaFunc
libGLESv2.so:glAlphaFuncContextANGLE
libGLESv2.so:glAlphaFuncx
libGLESv2.so:glAlphaFuncxContextANGLE
libGLESv2.so:glAttachShader
libGLESv2.so:glAttachShaderContextANGLE
libGLESv2.so:glBeginQuery
libGLESv2.so:glBeginQueryContextANGLE
libGLESv2.so:glBeginQueryEXT
libGLESv2.so:glBeginQueryEXTContextANGLE
libGLESv2.so:glBeginTransformFeedback
libGLESv2.so:glBeginTransformFeedbackContextANGLE
libGLESv2.so:glBindAttribLocation
libGLESv2.so:glBindAttribLocationContextANGLE
libGLESv2.so:glBindBuffer
libGLESv2.so:glBindBufferBase
libGLESv2.so:glBindBufferBaseContextANGLE
libGLESv2.so:glBindBufferContextANGLE
libGLESv2.so:glBindBufferRange
libGLESv2.so:glBindBufferRangeContextANGLE
libGLESv2.so:glBindFragDataLocationEXT
libGLESv2.so:glBindFragDataLocationEXTContextANGLE
libGLESv2.so:glBindFragDataLocationIndexedEXT
libGLESv2.so:glBindFragDataLocationIndexedEXTContextANGLE
libGLESv2.so:glBindFragmentInputLocationCHROMIUM
libGLESv2.so:glBindFragmentInputLocationCHROMIUMContextANGLE
libGLESv2.so:glBindFramebuffer
libGLESv2.so:glBindFramebufferContextANGLE
libGLESv2.so:glBindFramebufferOES
libGLESv2.so:glBindFramebufferOESContextANGLE
libGLESv2.so:glBindImageTexture
libGLESv2.so:glBindImageTextureContextANGLE
libGLESv2.so:glBindProgramPipeline
libGLESv2.so:glBindProgramPipelineContextANGLE
libGLESv2.so:glBindRenderbuffer
libGLESv2.so:glBindRenderbufferContextANGLE
libGLESv2.so:glBindRenderbufferOES
libGLESv2.so:glBindRenderbufferOESContextANGLE
libGLESv2.so:glBindSampler
libGLESv2.so:glBindSamplerContextANGLE
libGLESv2.so:glBindTexture
libGLESv2.so:glBindTextureContextANGLE
libGLESv2.so:glBindTransformFeedback
libGLESv2.so:glBindTransformFeedbackContextANGLE
libGLESv2.so:glBindUniformLocationCHROMIUM
libGLESv2.so:glBindUniformLocationCHROMIUMContextANGLE
libGLESv2.so:glBindVertexArray
libGLESv2.so:glBindVertexArrayContextANGLE
libGLESv2.so:glBindVertexArrayOES
libGLESv2.so:glBindVertexArrayOESContextANGLE
libGLESv2.so:glBindVertexBuffer
libGLESv2.so:glBindVertexBufferContextANGLE
libGLESv2.so:glBlendBarrier
libGLESv2.so:glBlendBarrierContextANGLE
libGLESv2.so:glBlendColor
libGLESv2.so:glBlendColorContextANGLE
libGLESv2.so:glBlendEquation
libGLESv2.so:glBlendEquationContextANGLE
libGLESv2.so:glBlendEquationSeparate
libGLESv2.so:glBlendEquationSeparateContextANGLE
libGLESv2.so:glBlendEquationSeparatei
libGLESv2.so:glBlendEquationSeparateiContextANGLE
libGLESv2.so:glBlendEquationi
libGLESv2.so:glBlendEquationiContextANGLE
libGLESv2.so:glBlendFunc
libGLESv2.so:glBlendFuncContextANGLE
libGLESv2.so:glBlendFuncSeparate
libGLESv2.so:glBlendFuncSeparateContextANGLE
libGLESv2.so:glBlendFuncSeparatei
libGLESv2.so:glBlendFuncSeparateiContextANGLE
libGLESv2.so:glBlendFunci
libGLESv2.so:glBlendFunciContextANGLE
libGLESv2.so:glBlitFramebuffer
libGLESv2.so:glBlitFramebufferANGLE
libGLESv2.so:glBlitFramebufferANGLEContextANGLE
libGLESv2.so:glBlitFramebufferContextANGLE
libGLESv2.so:glBufferData
libGLESv2.so:glBufferDataContextANGLE
libGLESv2.so:glBufferStorageMemEXT
libGLESv2.so:glBufferStorageMemEXTContextANGLE
libGLESv2.so:glBufferSubData
libGLESv2.so:glBufferSubDataContextANGLE
libGLESv2.so:glCheckFramebufferStatus
libGLESv2.so:glCheckFramebufferStatusContextANGLE
libGLESv2.so:glCheckFramebufferStatusOES
libGLESv2.so:glCheckFramebufferStatusOESContextANGLE
libGLESv2.so:glClear
libGLESv2.so:glClearBufferfi
libGLESv2.so:glClearBufferfiContextANGLE
libGLESv2.so:glClearBufferfv
libGLESv2.so:glClearBufferfvContextANGLE
libGLESv2.so:glClearBufferiv
libGLESv2.so:glClearBufferivContextANGLE
libGLESv2.so:glClearBufferuiv
libGLESv2.so:glClearBufferuivContextANGLE
libGLESv2.so:glClearColor
libGLESv2.so:glClearColorContextANGLE
libGLESv2.so:glClearColorx
libGLESv2.so:glClearColorxContextANGLE
libGLESv2.so:glClearContextANGLE
libGLESv2.so:glClearDepthf
libGLESv2.so:glClearDepthfContextANGLE
libGLESv2.so:glClearDepthx
libGLESv2.so:glClearDepthxContextANGLE
libGLESv2.so:glClearStencil
libGLESv2.so:glClearStencilContextANGLE
libGLESv2.so:glClientActiveTexture
libGLESv2.so:glClientActiveTextureContextANGLE
libGLESv2.so:glClientWaitSync
libGLESv2.so:glClientWaitSyncContextANGLE
libGLESv2.so:glClipPlanef
libGLESv2.so:glClipPlanefContextANGLE
libGLESv2.so:glClipPlanex
libGLESv2.so:glClipPlanexContextANGLE
libGLESv2.so:glColor4f
libGLESv2.so:glColor4fContextANGLE
libGLESv2.so:glColor4ub
libGLESv2.so:glColor4ubContextANGLE
libGLESv2.so:glColor4x
libGLESv2.so:glColor4xContextANGLE
libGLESv2.so:glColorMask
libGLESv2.so:glColorMaskContextANGLE
libGLESv2.so:glColorMaski
libGLESv2.so:glColorMaskiContextANGLE
libGLESv2.so:glColorPointer
libGLESv2.so:glColorPointerContextANGLE
libGLESv2.so:glCompileShader
libGLESv2.so:glCompileShaderContextANGLE
libGLESv2.so:glCompressedCopyTextureCHROMIUM
libGLESv2.so:glCompressedCopyTextureCHROMIUMContextANGLE
libGLESv2.so:glCompressedTexImage2D
libGLESv2.so:glCompressedTexImage2DContextANGLE
libGLESv2.so:glCompressedTexImage2DRobustANGLE
libGLESv2.so:glCompressedTexImage2DRobustANGLEContextANGLE
libGLESv2.so:glCompressedTexImage3D
libGLESv2.so:glCompressedTexImage3DContextANGLE
libGLESv2.so:glCompressedTexImage3DOES
libGLESv2.so:glCompressedTexImage3DOESContextANGLE
libGLESv2.so:glCompressedTexImage3DRobustANGLE
libGLESv2.so:glCompressedTexImage3DRobustANGLEContextANGLE
libGLESv2.so:glCompressedTexSubImage2D
libGLESv2.so:glCompressedTexSubImage2DContextANGLE
libGLESv2.so:glCompressedTexSubImage2DRobustANGLE
libGLESv2.so:glCompressedTexSubImage2DRobustANGLEContextANGLE
libGLESv2.so:glCompressedTexSubImage3D
libGLESv2.so:glCompressedTexSubImage3DContextANGLE
libGLESv2.so:glCompressedTexSubImage3DOES
libGLESv2.so:glCompressedTexSubImage3DOESContextANGLE
libGLESv2.so:glCompressedTexSubImage3DRobustANGLE
libGLESv2.so:glCompressedTexSubImage3DRobustANGLEContextANGLE
libGLESv2.so:glCopyBufferSubData
libGLESv2.so:glCopyBufferSubDataContextANGLE
libGLESv2.so:glCopyImageSubData
libGLESv2.so:glCopyImageSubDataContextANGLE
libGLESv2.so:glCopySubTexture3DANGLE
libGLESv2.so:glCopySubTexture3DANGLEContextANGLE
libGLESv2.so:glCopySubTextureCHROMIUM
libGLESv2.so:glCopySubTextureCHROMIUMContextANGLE
libGLESv2.so:glCopyTexImage2D
libGLESv2.so:glCopyTexImage2DContextANGLE
libGLESv2.so:glCopyTexSubImage2D
libGLESv2.so:glCopyTexSubImage2DContextANGLE
libGLESv2.so:glCopyTexSubImage3D
libGLESv2.so:glCopyTexSubImage3DContextANGLE
libGLESv2.so:glCopyTexSubImage3DOES
libGLESv2.so:glCopyTexSubImage3DOESContextANGLE
libGLESv2.so:glCopyTexture3DANGLE
libGLESv2.so:glCopyTexture3DANGLEContextANGLE
libGLESv2.so:glCopyTextureCHROMIUM
libGLESv2.so:glCopyTextureCHROMIUMContextANGLE
libGLESv2.so:glCoverFillPathCHROMIUM
libGLESv2.so:glCoverFillPathCHROMIUMContextANGLE
libGLESv2.so:glCoverFillPathInstancedCHROMIUM
libGLESv2.so:glCoverFillPathInstancedCHROMIUMContextANGLE
libGLESv2.so:glCoverStrokePathCHROMIUM
libGLESv2.so:glCoverStrokePathCHROMIUMContextANGLE
libGLESv2.so:glCoverStrokePathInstancedCHROMIUM
libGLESv2.so:glCoverStrokePathInstancedCHROMIUMContextANGLE
libGLESv2.so:glCoverageModulationCHROMIUM
libGLESv2.so:glCoverageModulationCHROMIUMContextANGLE
libGLESv2.so:glCreateMemoryObjectsEXT
libGLESv2.so:glCreateMemoryObjectsEXTContextANGLE
libGLESv2.so:glCreateProgram
libGLESv2.so:glCreateProgramContextANGLE
libGLESv2.so:glCreateShader
libGLESv2.so:glCreateShaderContextANGLE
libGLESv2.so:glCreateShaderProgramv
libGLESv2.so:glCreateShaderProgramvContextANGLE
libGLESv2.so:glCullFace
libGLESv2.so:glCullFaceContextANGLE
libGLESv2.so:glCurrentPaletteMatrixOES
libGLESv2.so:glCurrentPaletteMatrixOESContextANGLE
libGLESv2.so:glDebugMessageCallback
libGLESv2.so:glDebugMessageCallbackContextANGLE
libGLESv2.so:glDebugMessageCallbackKHR
libGLESv2.so:glDebugMessageCallbackKHRContextANGLE
libGLESv2.so:glDebugMessageControl
libGLESv2.so:glDebugMessageControlContextANGLE
libGLESv2.so:glDebugMessageControlKHR
libGLESv2.so:glDebugMessageControlKHRContextANGLE
libGLESv2.so:glDebugMessageInsert
libGLESv2.so:glDebugMessageInsertContextANGLE
libGLESv2.so:glDebugMessageInsertKHR
libGLESv2.so:glDebugMessageInsertKHRContextANGLE
libGLESv2.so:glDeleteBuffers
libGLESv2.so:glDeleteBuffersContextANGLE
libGLESv2.so:glDeleteFencesNV
libGLESv2.so:glDeleteFencesNVContextANGLE
libGLESv2.so:glDeleteFramebuffers
libGLESv2.so:glDeleteFramebuffersContextANGLE
libGLESv2.so:glDeleteFramebuffersOES
libGLESv2.so:glDeleteFramebuffersOESContextANGLE
libGLESv2.so:glDeleteMemoryObjectsEXT
libGLESv2.so:glDeleteMemoryObjectsEXTContextANGLE
libGLESv2.so:glDeletePathsCHROMIUM
libGLESv2.so:glDeletePathsCHROMIUMContextANGLE
libGLESv2.so:glDeleteProgram
libGLESv2.so:glDeleteProgramContextANGLE
libGLESv2.so:glDeleteProgramPipelines
libGLESv2.so:glDeleteProgramPipelinesContextANGLE
libGLESv2.so:glDeleteQueries
libGLESv2.so:glDeleteQueriesContextANGLE
libGLESv2.so:glDeleteQueriesEXT
libGLESv2.so:glDeleteQueriesEXTContextANGLE
libGLESv2.so:glDeleteRenderbuffers
libGLESv2.so:glDeleteRenderbuffersContextANGLE
libGLESv2.so:glDeleteRenderbuffersOES
libGLESv2.so:glDeleteRenderbuffersOESContextANGLE
libGLESv2.so:glDeleteSamplers
libGLESv2.so:glDeleteSamplersContextANGLE
libGLESv2.so:glDeleteSemaphoresEXT
libGLESv2.so:glDeleteSemaphoresEXTContextANGLE
libGLESv2.so:glDeleteShader
libGLESv2.so:glDeleteShaderContextANGLE
libGLESv2.so:glDeleteSync
libGLESv2.so:glDeleteSyncContextANGLE
libGLESv2.so:glDeleteTextures
libGLESv2.so:glDeleteTexturesContextANGLE
libGLESv2.so:glDeleteTransformFeedbacks
libGLESv2.so:glDeleteTransformFeedbacksContextANGLE
libGLESv2.so:glDeleteVertexArrays
libGLESv2.so:glDeleteVertexArraysContextANGLE
libGLESv2.so:glDeleteVertexArraysOES
libGLESv2.so:glDeleteVertexArraysOESContextANGLE
libGLESv2.so:glDepthFunc
libGLESv2.so:glDepthFuncContextANGLE
libGLESv2.so:glDepthMask
libGLESv2.so:glDepthMaskContextANGLE
libGLESv2.so:glDepthRangef
libGLESv2.so:glDepthRangefContextANGLE
libGLESv2.so:glDepthRangex
libGLESv2.so:glDepthRangexContextANGLE
libGLESv2.so:glDetachShader
libGLESv2.so:glDetachShaderContextANGLE
libGLESv2.so:glDisable
libGLESv2.so:glDisableClientState
libGLESv2.so:glDisableClientStateContextANGLE
libGLESv2.so:glDisableContextANGLE
libGLESv2.so:glDisableExtensionANGLEContextANGLE
libGLESv2.so:glDisableVertexAttribArray
libGLESv2.so:glDisableVertexAttribArrayContextANGLE
libGLESv2.so:glDisablei
libGLESv2.so:glDisableiContextANGLE
libGLESv2.so:glDiscardFramebufferEXT
libGLESv2.so:glDiscardFramebufferEXTContextANGLE
libGLESv2.so:glDispatchCompute
libGLESv2.so:glDispatchComputeContextANGLE
libGLESv2.so:glDispatchComputeIndirect
libGLESv2.so:glDispatchComputeIndirectContextANGLE
libGLESv2.so:glDrawArrays
libGLESv2.so:glDrawArraysContextANGLE
libGLESv2.so:glDrawArraysIndirect
libGLESv2.so:glDrawArraysIndirectContextANGLE
libGLESv2.so:glDrawArraysInstanced
libGLESv2.so:glDrawArraysInstancedANGLE
libGLESv2.so:glDrawArraysInstancedANGLEContextANGLE
libGLESv2.so:glDrawArraysInstancedBaseInstanceANGLE
libGLESv2.so:glDrawArraysInstancedBaseInstanceANGLEContextANGLE
libGLESv2.so:glDrawArraysInstancedContextANGLE
libGLESv2.so:glDrawArraysInstancedEXT
libGLESv2.so:glDrawArraysInstancedEXTContextANGLE
libGLESv2.so:glDrawBuffers
libGLESv2.so:glDrawBuffersContextANGLE
libGLESv2.so:glDrawBuffersEXT
libGLESv2.so:glDrawBuffersEXTContextANGLE
libGLESv2.so:glDrawElements
libGLESv2.so:glDrawElementsBaseVertex
libGLESv2.so:glDrawElementsBaseVertexContextANGLE
libGLESv2.so:glDrawElementsBaseVertexEXT
libGLESv2.so:glDrawElementsBaseVertexEXTContextANGLE
libGLESv2.so:glDrawElementsBaseVertexOES
libGLESv2.so:glDrawElementsBaseVertexOESContextANGLE
libGLESv2.so:glDrawElementsContextANGLE
libGLESv2.so:glDrawElementsIndirect
libGLESv2.so:glDrawElementsIndirectContextANGLE
libGLESv2.so:glDrawElementsInstanced
libGLESv2.so:glDrawElementsInstancedANGLE
libGLESv2.so:glDrawElementsInstancedANGLEContextANGLE
libGLESv2.so:glDrawElementsInstancedBaseVertex
libGLESv2.so:glDrawElementsInstancedBaseVertexBaseInstanceANGLE
libGLESv2.so:glDrawElementsInstancedBaseVertexBaseInstanceANGLEContextANGLE
libGLESv2.so:glDrawElementsInstancedBaseVertexContextANGLE
libGLESv2.so:glDrawElementsInstancedBaseVertexEXT
libGLESv2.so:glDrawElementsInstancedBaseVertexEXTContextANGLE
libGLESv2.so:glDrawElementsInstancedBaseVertexOES
libGLESv2.so:glDrawElementsInstancedBaseVertexOESContextANGLE
libGLESv2.so:glDrawElementsInstancedContextANGLE
libGLESv2.so:glDrawElementsInstancedEXT
libGLESv2.so:glDrawElementsInstancedEXTContextANGLE
libGLESv2.so:glDrawRangeElements
libGLESv2.so:glDrawRangeElementsBaseVertex
libGLESv2.so:glDrawRangeElementsBaseVertexContextANGLE
libGLESv2.so:glDrawRangeElementsBaseVertexEXT
libGLESv2.so:glDrawRangeElementsBaseVertexEXTContextANGLE
libGLESv2.so:glDrawRangeElementsBaseVertexOES
libGLESv2.so:glDrawRangeElementsBaseVertexOESContextANGLE
libGLESv2.so:glDrawRangeElementsContextANGLE
libGLESv2.so:glDrawTexfOES
libGLESv2.so:glDrawTexfOESContextANGLE
libGLESv2.so:glDrawTexfvOES
libGLESv2.so:glDrawTexfvOESContextANGLE
libGLESv2.so:glDrawTexiOES
libGLESv2.so:glDrawTexiOESContextANGLE
libGLESv2.so:glDrawTexivOES
libGLESv2.so:glDrawTexivOESContextANGLE
libGLESv2.so:glDrawTexsOES
libGLESv2.so:glDrawTexsOESContextANGLE
libGLESv2.so:glDrawTexsvOES
libGLESv2.so:glDrawTexsvOESContextANGLE
libGLESv2.so:glDrawTexxOES
libGLESv2.so:glDrawTexxOESContextANGLE
libGLESv2.so:glDrawTexxvOES
libGLESv2.so:glDrawTexxvOESContextANGLE
libGLESv2.so:glEGLImageTargetRenderbufferStorageOES
libGLESv2.so:glEGLImageTargetRenderbufferStorageOESContextANGLE
libGLESv2.so:glEGLImageTargetTexture2DOES
libGLESv2.so:glEGLImageTargetTexture2DOESContextANGLE
libGLESv2.so:glEnable
libGLESv2.so:glEnableClientState
libGLESv2.so:glEnableClientStateContextANGLE
libGLESv2.so:glEnableContextANGLE
libGLESv2.so:glEnableVertexAttribArray
libGLESv2.so:glEnableVertexAttribArrayContextANGLE
libGLESv2.so:glEnablei
libGLESv2.so:glEnableiContextANGLE
libGLESv2.so:glEndQuery
libGLESv2.so:glEndQueryContextANGLE
libGLESv2.so:glEndQueryEXT
libGLESv2.so:glEndQueryEXTContextANGLE
libGLESv2.so:glEndTransformFeedback
libGLESv2.so:glEndTransformFeedbackContextANGLE
libGLESv2.so:glFenceSync
libGLESv2.so:glFenceSyncContextANGLE
libGLESv2.so:glFinish
libGLESv2.so:glFinishContextANGLE
libGLESv2.so:glFinishFenceNV
libGLESv2.so:glFinishFenceNVContextANGLE
libGLESv2.so:glFlush
libGLESv2.so:glFlushContextANGLE
libGLESv2.so:glFlushMappedBufferRange
libGLESv2.so:glFlushMappedBufferRangeContextANGLE
libGLESv2.so:glFlushMappedBufferRangeEXT
libGLESv2.so:glFlushMappedBufferRangeEXTContextANGLE
libGLESv2.so:glFogf
libGLESv2.so:glFogfContextANGLE
libGLESv2.so:glFogfv
libGLESv2.so:glFogfvContextANGLE
libGLESv2.so:glFogx
libGLESv2.so:glFogxContextANGLE
libGLESv2.so:glFogxv
libGLESv2.so:glFogxvContextANGLE
libGLESv2.so:glFramebufferParameteri
libGLESv2.so:glFramebufferParameteriContextANGLE
libGLESv2.so:glFramebufferRenderbuffer
libGLESv2.so:glFramebufferRenderbufferContextANGLE
libGLESv2.so:glFramebufferRenderbufferOES
libGLESv2.so:glFramebufferRenderbufferOESContextANGLE
libGLESv2.so:glFramebufferTexture
libGLESv2.so:glFramebufferTexture2D
libGLESv2.so:glFramebufferTexture2DContextANGLE
libGLESv2.so:glFramebufferTexture2DMultisampleEXT
libGLESv2.so:glFramebufferTexture2DMultisampleEXTContextANGLE
libGLESv2.so:glFramebufferTexture2DOES
libGLESv2.so:glFramebufferTexture2DOESContextANGLE
libGLESv2.so:glFramebufferTexture3DOES
libGLESv2.so:glFramebufferTexture3DOESContextANGLE
libGLESv2.so:glFramebufferTextureContextANGLE
libGLESv2.so:glFramebufferTextureEXT
libGLESv2.so:glFramebufferTextureEXTContextANGLE
libGLESv2.so:glFramebufferTextureLayer
libGLESv2.so:glFramebufferTextureLayerContextANGLE
libGLESv2.so:glFramebufferTextureMultiviewOVR
libGLESv2.so:glFramebufferTextureMultiviewOVRContextANGLE
libGLESv2.so:glFrontFace
libGLESv2.so:glFrontFaceContextANGLE
libGLESv2.so:glFrustumf
libGLESv2.so:glFrustumfContextANGLE
libGLESv2.so:glFrustumx
libGLESv2.so:glFrustumxContextANGLE
libGLESv2.so:glGenBuffers
libGLESv2.so:glGenBuffersContextANGLE
libGLESv2.so:glGenFencesNV
libGLESv2.so:glGenFencesNVContextANGLE
libGLESv2.so:glGenFramebuffers
libGLESv2.so:glGenFramebuffersContextANGLE
libGLESv2.so:glGenFramebuffersOES
libGLESv2.so:glGenFramebuffersOESContextANGLE
libGLESv2.so:glGenPathsCHROMIUM
libGLESv2.so:glGenPathsCHROMIUMContextANGLE
libGLESv2.so:glGenProgramPipelines
libGLESv2.so:glGenProgramPipelinesContextANGLE
libGLESv2.so:glGenQueries
libGLESv2.so:glGenQueriesContextANGLE
libGLESv2.so:glGenQueriesEXT
libGLESv2.so:glGenQueriesEXTContextANGLE
libGLESv2.so:glGenRenderbuffers
libGLESv2.so:glGenRenderbuffersContextANGLE
libGLESv2.so:glGenRenderbuffersOES
libGLESv2.so:glGenRenderbuffersOESContextANGLE
libGLESv2.so:glGenSamplers
libGLESv2.so:glGenSamplersContextANGLE
libGLESv2.so:glGenSemaphoresEXT
libGLESv2.so:glGenSemaphoresEXTContextANGLE
libGLESv2.so:glGenTextures
libGLESv2.so:glGenTexturesContextANGLE
libGLESv2.so:glGenTransformFeedbacks
libGLESv2.so:glGenTransformFeedbacksContextANGLE
libGLESv2.so:glGenVertexArrays
libGLESv2.so:glGenVertexArraysContextANGLE
libGLESv2.so:glGenVertexArraysOES
libGLESv2.so:glGenVertexArraysOESContextANGLE
libGLESv2.so:glGenerateMipmap
libGLESv2.so:glGenerateMipmapContextANGLE
libGLESv2.so:glGenerateMipmapOES
libGLESv2.so:glGenerateMipmapOESContextANGLE
libGLESv2.so:glGetActiveAttrib
libGLESv2.so:glGetActiveAttribContextANGLE
libGLESv2.so:glGetActiveUniform
libGLESv2.so:glGetActiveUniformBlockName
libGLESv2.so:glGetActiveUniformBlockNameContextANGLE
libGLESv2.so:glGetActiveUniformBlockiv
libGLESv2.so:glGetActiveUniformBlockivContextANGLE
libGLESv2.so:glGetActiveUniformBlockivRobustANGLE
libGLESv2.so:glGetActiveUniformBlockivRobustANGLEContextANGLE
libGLESv2.so:glGetActiveUniformContextANGLE
libGLESv2.so:glGetActiveUniformsiv
libGLESv2.so:glGetActiveUniformsivContextANGLE
libGLESv2.so:glGetAttachedShaders
libGLESv2.so:glGetAttachedShadersContextANGLE
libGLESv2.so:glGetAttribLocation
libGLESv2.so:glGetAttribLocationContextANGLE
libGLESv2.so:glGetBooleani_v
libGLESv2.so:glGetBooleani_vContextANGLE
libGLESv2.so:glGetBooleani_vRobustANGLE
libGLESv2.so:glGetBooleani_vRobustANGLEContextANGLE
libGLESv2.so:glGetBooleanv
libGLESv2.so:glGetBooleanvContextANGLE
libGLESv2.so:glGetBooleanvRobustANGLE
libGLESv2.so:glGetBooleanvRobustANGLEContextANGLE
libGLESv2.so:glGetBufferParameteri64v
libGLESv2.so:glGetBufferParameteri64vContextANGLE
libGLESv2.so:glGetBufferParameteri64vRobustANGLE
libGLESv2.so:glGetBufferParameteri64vRobustANGLEContextANGLE
libGLESv2.so:glGetBufferParameteriv
libGLESv2.so:glGetBufferParameterivContextANGLE
libGLESv2.so:glGetBufferParameterivRobustANGLE
libGLESv2.so:glGetBufferParameterivRobustANGLEContextANGLE
libGLESv2.so:glGetBufferPointerv
libGLESv2.so:glGetBufferPointervContextANGLE
libGLESv2.so:glGetBufferPointervOES
libGLESv2.so:glGetBufferPointervOESContextANGLE
libGLESv2.so:glGetBufferPointervRobustANGLE
libGLESv2.so:glGetBufferPointervRobustANGLEContextANGLE
libGLESv2.so:glGetClipPlanef
libGLESv2.so:glGetClipPlanefContextANGLE
libGLESv2.so:glGetClipPlanex
libGLESv2.so:glGetClipPlanexContextANGLE
libGLESv2.so:glGetDebugMessageLog
libGLESv2.so:glGetDebugMessageLogContextANGLE
libGLESv2.so:glGetDebugMessageLogKHR
libGLESv2.so:glGetDebugMessageLogKHRContextANGLE
libGLESv2.so:glGetError
libGLESv2.so:glGetErrorContextANGLE
libGLESv2.so:glGetFenceivNV
libGLESv2.so:glGetFenceivNVContextANGLE
libGLESv2.so:glGetFixedv
libGLESv2.so:glGetFixedvContextANGLE
libGLESv2.so:glGetFloatv
libGLESv2.so:glGetFloatvContextANGLE
libGLESv2.so:glGetFloatvRobustANGLE
libGLESv2.so:glGetFloatvRobustANGLEContextANGLE
libGLESv2.so:glGetFragDataIndexEXT
libGLESv2.so:glGetFragDataIndexEXTContextANGLE
libGLESv2.so:glGetFragDataLocation
libGLESv2.so:glGetFragDataLocationContextANGLE
libGLESv2.so:glGetFramebufferAttachmentParameteriv
libGLESv2.so:glGetFramebufferAttachmentParameterivContextANGLE
libGLESv2.so:glGetFramebufferAttachmentParameterivOES
libGLESv2.so:glGetFramebufferAttachmentParameterivOESContextANGLE
libGLESv2.so:glGetFramebufferAttachmentParameterivRobustANGLE
libGLESv2.so:glGetFramebufferAttachmentParameterivRobustANGLEContextANGLE
libGLESv2.so:glGetFramebufferParameteriv
libGLESv2.so:glGetFramebufferParameterivContextANGLE
libGLESv2.so:glGetFramebufferParameterivRobustANGLE
libGLESv2.so:glGetFramebufferParameterivRobustANGLEContextANGLE
libGLESv2.so:glGetGraphicsResetStatus
libGLESv2.so:glGetGraphicsResetStatusContextANGLE
libGLESv2.so:glGetGraphicsResetStatusEXT
libGLESv2.so:glGetGraphicsResetStatusEXTContextANGLE
libGLESv2.so:glGetInteger64i_v
libGLESv2.so:glGetInteger64i_vContextANGLE
libGLESv2.so:glGetInteger64i_vRobustANGLE
libGLESv2.so:glGetInteger64i_vRobustANGLEContextANGLE
libGLESv2.so:glGetInteger64v
libGLESv2.so:glGetInteger64vContextANGLE
libGLESv2.so:glGetInteger64vRobustANGLE
libGLESv2.so:glGetInteger64vRobustANGLEContextANGLE
libGLESv2.so:glGetIntegeri_v
libGLESv2.so:glGetIntegeri_vContextANGLE
libGLESv2.so:glGetIntegeri_vRobustANGLE
libGLESv2.so:glGetIntegeri_vRobustANGLEContextANGLE
libGLESv2.so:glGetIntegerv
libGLESv2.so:glGetIntegervContextANGLE
libGLESv2.so:glGetIntegervRobustANGLE
libGLESv2.so:glGetIntegervRobustANGLEContextANGLE
libGLESv2.so:glGetInternalformativ
libGLESv2.so:glGetInternalformativContextANGLE
libGLESv2.so:glGetInternalformativRobustANGLE
libGLESv2.so:glGetInternalformativRobustANGLEContextANGLE
libGLESv2.so:glGetLightfv
libGLESv2.so:glGetLightfvContextANGLE
libGLESv2.so:glGetLightxv
libGLESv2.so:glGetLightxvContextANGLE
libGLESv2.so:glGetMaterialfv
libGLESv2.so:glGetMaterialfvContextANGLE
libGLESv2.so:glGetMaterialxv
libGLESv2.so:glGetMaterialxvContextANGLE
libGLESv2.so:glGetMemoryObjectParameterivEXT
libGLESv2.so:glGetMemoryObjectParameterivEXTContextANGLE
libGLESv2.so:glGetMultisamplefv
libGLESv2.so:glGetMultisamplefvANGLE
libGLESv2.so:glGetMultisamplefvANGLEContextANGLE
libGLESv2.so:glGetMultisamplefvContextANGLE
libGLESv2.so:glGetMultisamplefvRobustANGLE
libGLESv2.so:glGetMultisamplefvRobustANGLEContextANGLE
libGLESv2.so:glGetObjectLabel
libGLESv2.so:glGetObjectLabelContextANGLE
libGLESv2.so:glGetObjectLabelKHR
libGLESv2.so:glGetObjectLabelKHRContextANGLE
libGLESv2.so:glGetObjectPtrLabel
libGLESv2.so:glGetObjectPtrLabelContextANGLE
libGLESv2.so:glGetObjectPtrLabelKHR
libGLESv2.so:glGetObjectPtrLabelKHRContextANGLE
libGLESv2.so:glGetPathParameterfvCHROMIUM
libGLESv2.so:glGetPathParameterfvCHROMIUMContextANGLE
libGLESv2.so:glGetPathParameterivCHROMIUM
libGLESv2.so:glGetPathParameterivCHROMIUMContextANGLE
libGLESv2.so:glGetPointerv
libGLESv2.so:glGetPointervContextANGLE
libGLESv2.so:glGetPointervKHR
libGLESv2.so:glGetPointervKHRContextANGLE
libGLESv2.so:glGetPointervRobustANGLERobustANGLE
libGLESv2.so:glGetPointervRobustANGLERobustANGLEContextANGLE
libGLESv2.so:glGetProgramBinary
libGLESv2.so:glGetProgramBinaryContextANGLE
libGLESv2.so:glGetProgramBinaryOES
libGLESv2.so:glGetProgramBinaryOESContextANGLE
libGLESv2.so:glGetProgramInfoLog
libGLESv2.so:glGetProgramInfoLogContextANGLE
libGLESv2.so:glGetProgramInterfaceiv
libGLESv2.so:glGetProgramInterfaceivContextANGLE
libGLESv2.so:glGetProgramInterfaceivRobustANGLE
libGLESv2.so:glGetProgramInterfaceivRobustANGLEContextANGLE
libGLESv2.so:glGetProgramPipelineInfoLog
libGLESv2.so:glGetProgramPipelineInfoLogContextANGLE
libGLESv2.so:glGetProgramPipelineiv
libGLESv2.so:glGetProgramPipelineivContextANGLE
libGLESv2.so:glGetProgramResourceIndex
libGLESv2.so:glGetProgramResourceIndexContextANGLE
libGLESv2.so:glGetProgramResourceLocation
libGLESv2.so:glGetProgramResourceLocationContextANGLE
libGLESv2.so:glGetProgramResourceLocationIndexEXT
libGLESv2.so:glGetProgramResourceLocationIndexEXTContextANGLE
libGLESv2.so:glGetProgramResourceName
libGLESv2.so:glGetProgramResourceNameContextANGLE
libGLESv2.so:glGetProgramResourceiv
libGLESv2.so:glGetProgramResourceivContextANGLE
libGLESv2.so:glGetProgramiv
libGLESv2.so:glGetProgramivContextANGLE
libGLESv2.so:glGetProgramivRobustANGLE
libGLESv2.so:glGetProgramivRobustANGLEContextANGLE
libGLESv2.so:glGetQueryObjecti64vEXT
libGLESv2.so:glGetQueryObjecti64vEXTContextANGLE
libGLESv2.so:glGetQueryObjecti64vRobustANGLE
libGLESv2.so:glGetQueryObjecti64vRobustANGLEContextANGLE
libGLESv2.so:glGetQueryObjectivEXT
libGLESv2.so:glGetQueryObjectivEXTContextANGLE
libGLESv2.so:glGetQueryObjectivRobustANGLE
libGLESv2.so:glGetQueryObjectivRobustANGLEContextANGLE
libGLESv2.so:glGetQueryObjectui64vEXT
libGLESv2.so:glGetQueryObjectui64vEXTContextANGLE
libGLESv2.so:glGetQueryObjectui64vRobustANGLE
libGLESv2.so:glGetQueryObjectui64vRobustANGLEContextANGLE
libGLESv2.so:glGetQueryObjectuiv
libGLESv2.so:glGetQueryObjectuivContextANGLE
libGLESv2.so:glGetQueryObjectuivEXT
libGLESv2.so:glGetQueryObjectuivEXTContextANGLE
libGLESv2.so:glGetQueryObjectuivRobustANGLE
libGLESv2.so:glGetQueryObjectuivRobustANGLEContextANGLE
libGLESv2.so:glGetQueryiv
libGLESv2.so:glGetQueryivContextANGLE
libGLESv2.so:glGetQueryivEXT
libGLESv2.so:glGetQueryivEXTContextANGLE
libGLESv2.so:glGetQueryivRobustANGLE
libGLESv2.so:glGetQueryivRobustANGLEContextANGLE
libGLESv2.so:glGetRenderbufferImageANGLE
libGLESv2.so:glGetRenderbufferImageANGLEContextANGLE
libGLESv2.so:glGetRenderbufferParameteriv
libGLESv2.so:glGetRenderbufferParameterivContextANGLE
libGLESv2.so:glGetRenderbufferParameterivOES
libGLESv2.so:glGetRenderbufferParameterivOESContextANGLE
libGLESv2.so:glGetRenderbufferParameterivRobustANGLE
libGLESv2.so:glGetRenderbufferParameterivRobustANGLEContextANGLE
libGLESv2.so:glGetSamplerParameterIiv
libGLESv2.so:glGetSamplerParameterIivContextANGLE
libGLESv2.so:glGetSamplerParameterIivOES
libGLESv2.so:glGetSamplerParameterIivOESContextANGLE
libGLESv2.so:glGetSamplerParameterIivRobustANGLE
libGLESv2.so:glGetSamplerParameterIivRobustANGLEContextANGLE
libGLESv2.so:glGetSamplerParameterIuiv
libGLESv2.so:glGetSamplerParameterIuivContextANGLE
libGLESv2.so:glGetSamplerParameterIuivOES
libGLESv2.so:glGetSamplerParameterIuivOESContextANGLE
libGLESv2.so:glGetSamplerParameterIuivRobustANGLE
libGLESv2.so:glGetSamplerParameterIuivRobustANGLEContextANGLE
libGLESv2.so:glGetSamplerParameterfv
libGLESv2.so:glGetSamplerParameterfvContextANGLE
libGLESv2.so:glGetSamplerParameterfvRobustANGLE
libGLESv2.so:glGetSamplerParameterfvRobustANGLEContextANGLE
libGLESv2.so:glGetSamplerParameteriv
libGLESv2.so:glGetSamplerParameterivContextANGLE
libGLESv2.so:glGetSamplerParameterivRobustANGLE
libGLESv2.so:glGetSamplerParameterivRobustANGLEContextANGLE
libGLESv2.so:glGetSemaphoreParameterui64vEXT
libGLESv2.so:glGetSemaphoreParameterui64vEXTContextANGLE
libGLESv2.so:glGetShaderInfoLog
libGLESv2.so:glGetShaderInfoLogContextANGLE
libGLESv2.so:glGetShaderPrecisionFormat
libGLESv2.so:glGetShaderPrecisionFormatContextANGLE
libGLESv2.so:glGetShaderSource
libGLESv2.so:glGetShaderSourceContextANGLE
libGLESv2.so:glGetShaderiv
libGLESv2.so:glGetShaderivContextANGLE
libGLESv2.so:glGetShaderivRobustANGLE
libGLESv2.so:glGetShaderivRobustANGLEContextANGLE
libGLESv2.so:glGetString
libGLESv2.so:glGetStringContextANGLE
libGLESv2.so:glGetStringi
libGLESv2.so:glGetStringiContextANGLE
libGLESv2.so:glGetSynciv
libGLESv2.so:glGetSyncivContextANGLE
libGLESv2.so:glGetTexEnvfv
libGLESv2.so:glGetTexEnvfvContextANGLE
libGLESv2.so:glGetTexEnviv
libGLESv2.so:glGetTexEnvivContextANGLE
libGLESv2.so:glGetTexEnvxv
libGLESv2.so:glGetTexEnvxvContextANGLE
libGLESv2.so:glGetTexGenfvOES
libGLESv2.so:glGetTexGenfvOESContextANGLE
libGLESv2.so:glGetTexGenivOES
libGLESv2.so:glGetTexGenivOESContextANGLE
libGLESv2.so:glGetTexGenxvOES
libGLESv2.so:glGetTexGenxvOESContextANGLE
libGLESv2.so:glGetTexImageANGLE
libGLESv2.so:glGetTexImageANGLEContextANGLE
libGLESv2.so:glGetTexLevelParameterfv
libGLESv2.so:glGetTexLevelParameterfvANGLE
libGLESv2.so:glGetTexLevelParameterfvANGLEContextANGLE
libGLESv2.so:glGetTexLevelParameterfvContextANGLE
libGLESv2.so:glGetTexLevelParameterfvRobustANGLE
libGLESv2.so:glGetTexLevelParameterfvRobustANGLEContextANGLE
libGLESv2.so:glGetTexLevelParameteriv
libGLESv2.so:glGetTexLevelParameterivANGLE
libGLESv2.so:glGetTexLevelParameterivANGLEContextANGLE
libGLESv2.so:glGetTexLevelParameterivContextANGLE
libGLESv2.so:glGetTexLevelParameterivRobustANGLE
libGLESv2.so:glGetTexLevelParameterivRobustANGLEContextANGLE
libGLESv2.so:glGetTexParameterIiv
libGLESv2.so:glGetTexParameterIivContextANGLE
libGLESv2.so:glGetTexParameterIivOES
libGLESv2.so:glGetTexParameterIivOESContextANGLE
libGLESv2.so:glGetTexParameterIivRobustANGLE
libGLESv2.so:glGetTexParameterIivRobustANGLEContextANGLE
libGLESv2.so:glGetTexParameterIuiv
libGLESv2.so:glGetTexParameterIuivContextANGLE
libGLESv2.so:glGetTexParameterIuivOES
libGLESv2.so:glGetTexParameterIuivOESContextANGLE
libGLESv2.so:glGetTexParameterIuivRobustANGLE
libGLESv2.so:glGetTexParameterIuivRobustANGLEContextANGLE
libGLESv2.so:glGetTexParameterfv
libGLESv2.so:glGetTexParameterfvContextANGLE
libGLESv2.so:glGetTexParameterfvRobustANGLE
libGLESv2.so:glGetTexParameterfvRobustANGLEContextANGLE
libGLESv2.so:glGetTexParameteriv
libGLESv2.so:glGetTexParameterivContextANGLE
libGLESv2.so:glGetTexParameterivRobustANGLE
libGLESv2.so:glGetTexParameterivRobustANGLEContextANGLE
libGLESv2.so:glGetTexParameterxv
libGLESv2.so:glGetTexParameterxvContextANGLE
libGLESv2.so:glGetTransformFeedbackVarying
libGLESv2.so:glGetTransformFeedbackVaryingContextANGLE
libGLESv2.so:glGetTranslatedShaderSourceANGLE
libGLESv2.so:glGetTranslatedShaderSourceANGLEContextANGLE
libGLESv2.so:glGetUniformBlockIndex
libGLESv2.so:glGetUniformBlockIndexContextANGLE
libGLESv2.so:glGetUniformIndices
libGLESv2.so:glGetUniformIndicesContextANGLE
libGLESv2.so:glGetUniformLocation
libGLESv2.so:glGetUniformLocationContextANGLE
libGLESv2.so:glGetUniformfv
libGLESv2.so:glGetUniformfvContextANGLE
libGLESv2.so:glGetUniformfvRobustANGLE
libGLESv2.so:glGetUniformfvRobustANGLEContextANGLE
libGLESv2.so:glGetUniformiv
libGLESv2.so:glGetUniformivContextANGLE
libGLESv2.so:glGetUniformivRobustANGLE
libGLESv2.so:glGetUniformivRobustANGLEContextANGLE
libGLESv2.so:glGetUniformuiv
libGLESv2.so:glGetUniformuivContextANGLE
libGLESv2.so:glGetUniformuivRobustANGLE
libGLESv2.so:glGetUniformuivRobustANGLEContextANGLE
libGLESv2.so:glGetUnsignedBytei_vEXT
libGLESv2.so:glGetUnsignedBytei_vEXTContextANGLE
libGLESv2.so:glGetUnsignedBytevEXT
libGLESv2.so:glGetUnsignedBytevEXTContextANGLE
libGLESv2.so:glGetVertexAttribIiv
libGLESv2.so:glGetVertexAttribIivContextANGLE
libGLESv2.so:glGetVertexAttribIivRobustANGLE
libGLESv2.so:glGetVertexAttribIivRobustANGLEContextANGLE
libGLESv2.so:glGetVertexAttribIuiv
libGLESv2.so:glGetVertexAttribIuivContextANGLE
libGLESv2.so:glGetVertexAttribIuivRobustANGLE
libGLESv2.so:glGetVertexAttribIuivRobustANGLEContextANGLE
libGLESv2.so:glGetVertexAttribPointerv
libGLESv2.so:glGetVertexAttribPointervContextANGLE
libGLESv2.so:glGetVertexAttribPointervRobustANGLE
libGLESv2.so:glGetVertexAttribPointervRobustANGLEContextANGLE
libGLESv2.so:glGetVertexAttribfv
libGLESv2.so:glGetVertexAttribfvContextANGLE
libGLESv2.so:glGetVertexAttribfvRobustANGLE
libGLESv2.so:glGetVertexAttribfvRobustANGLEContextANGLE
libGLESv2.so:glGetVertexAttribiv
libGLESv2.so:glGetVertexAttribivContextANGLE
libGLESv2.so:glGetVertexAttribivRobustANGLE
libGLESv2.so:glGetVertexAttribivRobustANGLEContextANGLE
libGLESv2.so:glGetnUniformfv
libGLESv2.so:glGetnUniformfvContextANGLE
libGLESv2.so:glGetnUniformfvEXT
libGLESv2.so:glGetnUniformfvEXTContextANGLE
libGLESv2.so:glGetnUniformfvRobustANGLE
libGLESv2.so:glGetnUniformfvRobustANGLEContextANGLE
libGLESv2.so:glGetnUniformiv
libGLESv2.so:glGetnUniformivContextANGLE
libGLESv2.so:glGetnUniformivEXT
libGLESv2.so:glGetnUniformivEXTContextANGLE
libGLESv2.so:glGetnUniformivRobustANGLE
libGLESv2.so:glGetnUniformivRobustANGLEContextANGLE
libGLESv2.so:glGetnUniformuiv
libGLESv2.so:glGetnUniformuivContextANGLE
libGLESv2.so:glGetnUniformuivRobustANGLE
libGLESv2.so:glGetnUniformuivRobustANGLEContextANGLE
libGLESv2.so:glHint
libGLESv2.so:glHintContextANGLE
libGLESv2.so:glImportMemoryFdEXT
libGLESv2.so:glImportMemoryFdEXTContextANGLE
libGLESv2.so:glImportSemaphoreFdEXT
libGLESv2.so:glImportSemaphoreFdEXTContextANGLE
libGLESv2.so:glInsertEventMarkerEXT
libGLESv2.so:glInsertEventMarkerEXTContextANGLE
libGLESv2.so:glInvalidateFramebuffer
libGLESv2.so:glInvalidateFramebufferContextANGLE
libGLESv2.so:glInvalidateSubFramebuffer
libGLESv2.so:glInvalidateSubFramebufferContextANGLE
libGLESv2.so:glInvalidateTextureANGLE
libGLESv2.so:glInvalidateTextureANGLEContextANGLE
libGLESv2.so:glIsBuffer
libGLESv2.so:glIsBufferContextANGLE
libGLESv2.so:glIsEnabled
libGLESv2.so:glIsEnabledContextANGLE
libGLESv2.so:glIsEnabledi
libGLESv2.so:glIsEnablediContextANGLE
libGLESv2.so:glIsFenceNV
libGLESv2.so:glIsFenceNVContextANGLE
libGLESv2.so:glIsFramebuffer
libGLESv2.so:glIsFramebufferContextANGLE
libGLESv2.so:glIsFramebufferOES
libGLESv2.so:glIsFramebufferOESContextANGLE
libGLESv2.so:glIsMemoryObjectEXT
libGLESv2.so:glIsMemoryObjectEXTContextANGLE
libGLESv2.so:glIsPathCHROMIUM
libGLESv2.so:glIsPathCHROMIUMContextANGLE
libGLESv2.so:glIsProgram
libGLESv2.so:glIsProgramContextANGLE
libGLESv2.so:glIsProgramPipeline
libGLESv2.so:glIsProgramPipelineContextANGLE
libGLESv2.so:glIsQuery
libGLESv2.so:glIsQueryContextANGLE
libGLESv2.so:glIsQueryEXT
libGLESv2.so:glIsQueryEXTContextANGLE
libGLESv2.so:glIsRenderbuffer
libGLESv2.so:glIsRenderbufferContextANGLE
libGLESv2.so:glIsRenderbufferOES
libGLESv2.so:glIsRenderbufferOESContextANGLE
libGLESv2.so:glIsSampler
libGLESv2.so:glIsSamplerContextANGLE
libGLESv2.so:glIsSemaphoreEXT
libGLESv2.so:glIsSemaphoreEXTContextANGLE
libGLESv2.so:glIsShader
libGLESv2.so:glIsShaderContextANGLE
libGLESv2.so:glIsSync
libGLESv2.so:glIsSyncContextANGLE
libGLESv2.so:glIsTexture
libGLESv2.so:glIsTextureContextANGLE
libGLESv2.so:glIsTransformFeedback
libGLESv2.so:glIsTransformFeedbackContextANGLE
libGLESv2.so:glIsVertexArray
libGLESv2.so:glIsVertexArrayContextANGLE
libGLESv2.so:glIsVertexArrayOES
libGLESv2.so:glIsVertexArrayOESContextANGLE
libGLESv2.so:glLightModelf
libGLESv2.so:glLightModelfContextANGLE
libGLESv2.so:glLightModelfv
libGLESv2.so:glLightModelfvContextANGLE
libGLESv2.so:glLightModelx
libGLESv2.so:glLightModelxContextANGLE
libGLESv2.so:glLightModelxv
libGLESv2.so:glLightModelxvContextANGLE
libGLESv2.so:glLightf
libGLESv2.so:glLightfContextANGLE
libGLESv2.so:glLightfv
libGLESv2.so:glLightfvContextANGLE
libGLESv2.so:glLightx
libGLESv2.so:glLightxContextANGLE
libGLESv2.so:glLightxv
libGLESv2.so:glLightxvContextANGLE
libGLESv2.so:glLineWidth
libGLESv2.so:glLineWidthContextANGLE
libGLESv2.so:glLineWidthx
libGLESv2.so:glLineWidthxContextANGLE
libGLESv2.so:glLinkProgram
libGLESv2.so:glLinkProgramContextANGLE
libGLESv2.so:glLoadIdentity
libGLESv2.so:glLoadIdentityContextANGLE
libGLESv2.so:glLoadMatrixf
libGLESv2.so:glLoadMatrixfContextANGLE
libGLESv2.so:glLoadMatrixx
libGLESv2.so:glLoadMatrixxContextANGLE
libGLESv2.so:glLoadPaletteFromModelViewMatrixOES
libGLESv2.so:glLoadPaletteFromModelViewMatrixOESContextANGLE
libGLESv2.so:glLogicOp
libGLESv2.so:glLogicOpContextANGLE
libGLESv2.so:glLoseContextCHROMIUM
libGLESv2.so:glLoseContextCHROMIUMContextANGLE
libGLESv2.so:glMapBufferOES
libGLESv2.so:glMapBufferOESContextANGLE
libGLESv2.so:glMapBufferRange
libGLESv2.so:glMapBufferRangeContextANGLE
libGLESv2.so:glMapBufferRangeEXT
libGLESv2.so:glMapBufferRangeEXTContextANGLE
libGLESv2.so:glMaterialf
libGLESv2.so:glMaterialfContextANGLE
libGLESv2.so:glMaterialfv
libGLESv2.so:glMaterialfvContextANGLE
libGLESv2.so:glMaterialx
libGLESv2.so:glMaterialxContextANGLE
libGLESv2.so:glMaterialxv
libGLESv2.so:glMaterialxvContextANGLE
libGLESv2.so:glMatrixIndexPointerOES
libGLESv2.so:glMatrixIndexPointerOESContextANGLE
libGLESv2.so:glMatrixLoadIdentityCHROMIUM
libGLESv2.so:glMatrixLoadIdentityCHROMIUMContextANGLE
libGLESv2.so:glMatrixLoadfCHROMIUM
libGLESv2.so:glMatrixLoadfCHROMIUMContextANGLE
libGLESv2.so:glMatrixMode
libGLESv2.so:glMatrixModeContextANGLE
libGLESv2.so:glMaxShaderCompilerThreadsKHR
libGLESv2.so:glMaxShaderCompilerThreadsKHRContextANGLE
libGLESv2.so:glMemoryBarrier
libGLESv2.so:glMemoryBarrierByRegion
libGLESv2.so:glMemoryBarrierByRegionContextANGLE
libGLESv2.so:glMemoryBarrierContextANGLE
libGLESv2.so:glMemoryObjectParameterivEXT
libGLESv2.so:glMemoryObjectParameterivEXTContextANGLE
libGLESv2.so:glMinSampleShading
libGLESv2.so:glMinSampleShadingContextANGLE
libGLESv2.so:glMultMatrixf
libGLESv2.so:glMultMatrixfContextANGLE
libGLESv2.so:glMultMatrixx
libGLESv2.so:glMultMatrixxContextANGLE
libGLESv2.so:glMultiDrawArraysANGLE
libGLESv2.so:glMultiDrawArraysANGLEContextANGLE
libGLESv2.so:glMultiDrawArraysInstancedANGLE
libGLESv2.so:glMultiDrawArraysInstancedANGLEContextANGLE
libGLESv2.so:glMultiDrawArraysInstancedBaseInstanceANGLE
libGLESv2.so:glMultiDrawArraysInstancedBaseInstanceANGLEContextANGLE
libGLESv2.so:glMultiDrawElementsANGLE
libGLESv2.so:glMultiDrawElementsANGLEContextANGLE
libGLESv2.so:glMultiDrawElementsBaseVertexEXT
libGLESv2.so:glMultiDrawElementsBaseVertexEXTContextANGLE
libGLESv2.so:glMultiDrawElementsInstancedANGLE
libGLESv2.so:glMultiDrawElementsInstancedANGLEContextANGLE
libGLESv2.so:glMultiDrawElementsInstancedBaseVertexBaseInstanceANGLE
libGLESv2.so:glMultiDrawElementsInstancedBaseVertexBaseInstanceANGLEContextANGLE
libGLESv2.so:glMultiTexCoord4f
libGLESv2.so:glMultiTexCoord4fContextANGLE
libGLESv2.so:glMultiTexCoord4x
libGLESv2.so:glMultiTexCoord4xContextANGLE
libGLESv2.so:glNormal3f
libGLESv2.so:glNormal3fContextANGLE
libGLESv2.so:glNormal3x
libGLESv2.so:glNormal3xContextANGLE
libGLESv2.so:glNormalPointer
libGLESv2.so:glNormalPointerContextANGLE
libGLESv2.so:glObjectLabel
libGLESv2.so:glObjectLabelContextANGLE
libGLESv2.so:glObjectLabelKHR
libGLESv2.so:glObjectLabelKHRContextANGLE
libGLESv2.so:glObjectPtrLabel
libGLESv2.so:glObjectPtrLabelContextANGLE
libGLESv2.so:glObjectPtrLabelKHR
libGLESv2.so:glObjectPtrLabelKHRContextANGLE
libGLESv2.so:glOrthof
libGLESv2.so:glOrthofContextANGLE
libGLESv2.so:glOrthox
libGLESv2.so:glOrthoxContextANGLE
libGLESv2.so:glPatchParameteri
libGLESv2.so:glPatchParameteriContextANGLE
libGLESv2.so:glPathCommandsCHROMIUM
libGLESv2.so:glPathCommandsCHROMIUMContextANGLE
libGLESv2.so:glPathParameterfCHROMIUM
libGLESv2.so:glPathParameterfCHROMIUMContextANGLE
libGLESv2.so:glPathParameteriCHROMIUM
libGLESv2.so:glPathParameteriCHROMIUMContextANGLE
libGLESv2.so:glPathStencilFuncCHROMIUM
libGLESv2.so:glPathStencilFuncCHROMIUMContextANGLE
libGLESv2.so:glPauseTransformFeedback
libGLESv2.so:glPauseTransformFeedbackContextANGLE
libGLESv2.so:glPixelStorei
libGLESv2.so:glPixelStoreiContextANGLE
libGLESv2.so:glPointParameterf
libGLESv2.so:glPointParameterfContextANGLE
libGLESv2.so:glPointParameterfv
libGLESv2.so:glPointParameterfvContextANGLE
libGLESv2.so:glPointParameterx
libGLESv2.so:glPointParameterxContextANGLE
libGLESv2.so:glPointParameterxv
libGLESv2.so:glPointParameterxvContextANGLE
libGLESv2.so:glPointSize
libGLESv2.so:glPointSizeContextANGLE
libGLESv2.so:glPointSizePointerOES
libGLESv2.so:glPointSizePointerOESContextANGLE
libGLESv2.so:glPointSizex
libGLESv2.so:glPointSizexContextANGLE
libGLESv2.so:glPolygonOffset
libGLESv2.so:glPolygonOffsetContextANGLE
libGLESv2.so:glPolygonOffsetx
libGLESv2.so:glPolygonOffsetxContextANGLE
libGLESv2.so:glPopDebugGroup
libGLESv2.so:glPopDebugGroupContextANGLE
libGLESv2.so:glPopDebugGroupKHR
libGLESv2.so:glPopDebugGroupKHRContextANGLE
libGLESv2.so:glPopGroupMarkerEXT
libGLESv2.so:glPopGroupMarkerEXTContextANGLE
libGLESv2.so:glPopMatrix
libGLESv2.so:glPopMatrixContextANGLE
libGLESv2.so:glPrimitiveBoundingBox
libGLESv2.so:glPrimitiveBoundingBoxContextANGLE
libGLESv2.so:glProgramBinary
libGLESv2.so:glProgramBinaryContextANGLE
libGLESv2.so:glProgramBinaryOES
libGLESv2.so:glProgramBinaryOESContextANGLE
libGLESv2.so:glProgramParameteri
libGLESv2.so:glProgramParameteriContextANGLE
libGLESv2.so:glProgramPathFragmentInputGenCHROMIUM
libGLESv2.so:glProgramPathFragmentInputGenCHROMIUMContextANGLE
libGLESv2.so:glProgramUniform1f
libGLESv2.so:glProgramUniform1fContextANGLE
libGLESv2.so:glProgramUniform1fv
libGLESv2.so:glProgramUniform1fvContextANGLE
libGLESv2.so:glProgramUniform1i
libGLESv2.so:glProgramUniform1iContextANGLE
libGLESv2.so:glProgramUniform1iv
libGLESv2.so:glProgramUniform1ivContextANGLE
libGLESv2.so:glProgramUniform1ui
libGLESv2.so:glProgramUniform1uiContextANGLE
libGLESv2.so:glProgramUniform1uiv
libGLESv2.so:glProgramUniform1uivContextANGLE
libGLESv2.so:glProgramUniform2f
libGLESv2.so:glProgramUniform2fContextANGLE
libGLESv2.so:glProgramUniform2fv
libGLESv2.so:glProgramUniform2fvContextANGLE
libGLESv2.so:glProgramUniform2i
libGLESv2.so:glProgramUniform2iContextANGLE
libGLESv2.so:glProgramUniform2iv
libGLESv2.so:glProgramUniform2ivContextANGLE
libGLESv2.so:glProgramUniform2ui
libGLESv2.so:glProgramUniform2uiContextANGLE
libGLESv2.so:glProgramUniform2uiv
libGLESv2.so:glProgramUniform2uivContextANGLE
libGLESv2.so:glProgramUniform3f
libGLESv2.so:glProgramUniform3fContextANGLE
libGLESv2.so:glProgramUniform3fv
libGLESv2.so:glProgramUniform3fvContextANGLE
libGLESv2.so:glProgramUniform3i
libGLESv2.so:glProgramUniform3iContextANGLE
libGLESv2.so:glProgramUniform3iv
libGLESv2.so:glProgramUniform3ivContextANGLE
libGLESv2.so:glProgramUniform3ui
libGLESv2.so:glProgramUniform3uiContextANGLE
libGLESv2.so:glProgramUniform3uiv
libGLESv2.so:glProgramUniform3uivContextANGLE
libGLESv2.so:glProgramUniform4f
libGLESv2.so:glProgramUniform4fContextANGLE
libGLESv2.so:glProgramUniform4fv
libGLESv2.so:glProgramUniform4fvContextANGLE
libGLESv2.so:glProgramUniform4i
libGLESv2.so:glProgramUniform4iContextANGLE
libGLESv2.so:glProgramUniform4iv
libGLESv2.so:glProgramUniform4ivContextANGLE
libGLESv2.so:glProgramUniform4ui
libGLESv2.so:glProgramUniform4uiContextANGLE
libGLESv2.so:glProgramUniform4uiv
libGLESv2.so:glProgramUniform4uivContextANGLE
libGLESv2.so:glProgramUniformMatrix2fv
libGLESv2.so:glProgramUniformMatrix2fvContextANGLE
libGLESv2.so:glProgramUniformMatrix2x3fv
libGLESv2.so:glProgramUniformMatrix2x3fvContextANGLE
libGLESv2.so:glProgramUniformMatrix2x4fv
libGLESv2.so:glProgramUniformMatrix2x4fvContextANGLE
libGLESv2.so:glProgramUniformMatrix3fv
libGLESv2.so:glProgramUniformMatrix3fvContextANGLE
libGLESv2.so:glProgramUniformMatrix3x2fv
libGLESv2.so:glProgramUniformMatrix3x2fvContextANGLE
libGLESv2.so:glProgramUniformMatrix3x4fv
libGLESv2.so:glProgramUniformMatrix3x4fvContextANGLE
libGLESv2.so:glProgramUniformMatrix4fv
libGLESv2.so:glProgramUniformMatrix4fvContextANGLE
libGLESv2.so:glProgramUniformMatrix4x2fv
libGLESv2.so:glProgramUniformMatrix4x2fvContextANGLE
libGLESv2.so:glProgramUniformMatrix4x3fv
libGLESv2.so:glProgramUniformMatrix4x3fvContextANGLE
libGLESv2.so:glProvokingVertexANGLE
libGLESv2.so:glProvokingVertexANGLEContextANGLE
libGLESv2.so:glPushDebugGroup
libGLESv2.so:glPushDebugGroupContextANGLE
libGLESv2.so:glPushDebugGroupKHR
libGLESv2.so:glPushDebugGroupKHRContextANGLE
libGLESv2.so:glPushGroupMarkerEXT
libGLESv2.so:glPushGroupMarkerEXTContextANGLE
libGLESv2.so:glPushMatrix
libGLESv2.so:glPushMatrixContextANGLE
libGLESv2.so:glQueryCounterEXT
libGLESv2.so:glQueryCounterEXTContextANGLE
libGLESv2.so:glQueryMatrixxOES
libGLESv2.so:glQueryMatrixxOESContextANGLE
libGLESv2.so:glReadBuffer
libGLESv2.so:glReadBufferContextANGLE
libGLESv2.so:glReadPixels
libGLESv2.so:glReadPixelsContextANGLE
libGLESv2.so:glReadPixelsRobustANGLE
libGLESv2.so:glReadPixelsRobustANGLEContextANGLE
libGLESv2.so:glReadnPixels
libGLESv2.so:glReadnPixelsContextANGLE
libGLESv2.so:glReadnPixelsEXT
libGLESv2.so:glReadnPixelsEXTContextANGLE
libGLESv2.so:glReadnPixelsRobustANGLE
libGLESv2.so:glReadnPixelsRobustANGLEContextANGLE
libGLESv2.so:glReleaseShaderCompiler
libGLESv2.so:glReleaseShaderCompilerContextANGLE
libGLESv2.so:glRenderbufferStorage
libGLESv2.so:glRenderbufferStorageContextANGLE
libGLESv2.so:glRenderbufferStorageMultisample
libGLESv2.so:glRenderbufferStorageMultisampleANGLE
libGLESv2.so:glRenderbufferStorageMultisampleANGLEContextANGLE
libGLESv2.so:glRenderbufferStorageMultisampleContextANGLE
libGLESv2.so:glRenderbufferStorageMultisampleEXT
libGLESv2.so:glRenderbufferStorageMultisampleEXTContextANGLE
libGLESv2.so:glRenderbufferStorageOES
libGLESv2.so:glRenderbufferStorageOESContextANGLE
libGLESv2.so:glRequestExtensionANGLE
libGLESv2.so:glRequestExtensionANGLEContextANGLE
libGLESv2.so:glResumeTransformFeedback
libGLESv2.so:glResumeTransformFeedbackContextANGLE
libGLESv2.so:glRotatef
libGLESv2.so:glRotatefContextANGLE
libGLESv2.so:glRotatex
libGLESv2.so:glRotatexContextANGLE
libGLESv2.so:glSampleCoverage
libGLESv2.so:glSampleCoverageContextANGLE
libGLESv2.so:glSampleCoveragex
libGLESv2.so:glSampleCoveragexContextANGLE
libGLESv2.so:glSampleMaski
libGLESv2.so:glSampleMaskiANGLE
libGLESv2.so:glSampleMaskiANGLEContextANGLE
libGLESv2.so:glSampleMaskiContextANGLE
libGLESv2.so:glSamplerParameterIiv
libGLESv2.so:glSamplerParameterIivContextANGLE
libGLESv2.so:glSamplerParameterIivOES
libGLESv2.so:glSamplerParameterIivOESContextANGLE
libGLESv2.so:glSamplerParameterIivRobustANGLE
libGLESv2.so:glSamplerParameterIivRobustANGLEContextANGLE
libGLESv2.so:glSamplerParameterIuiv
libGLESv2.so:glSamplerParameterIuivContextANGLE
libGLESv2.so:glSamplerParameterIuivOES
libGLESv2.so:glSamplerParameterIuivOESContextANGLE
libGLESv2.so:glSamplerParameterIuivRobustANGLE
libGLESv2.so:glSamplerParameterIuivRobustANGLEContextANGLE
libGLESv2.so:glSamplerParameterf
libGLESv2.so:glSamplerParameterfContextANGLE
libGLESv2.so:glSamplerParameterfv
libGLESv2.so:glSamplerParameterfvContextANGLE
libGLESv2.so:glSamplerParameterfvRobustANGLE
libGLESv2.so:glSamplerParameterfvRobustANGLEContextANGLE
libGLESv2.so:glSamplerParameteri
libGLESv2.so:glSamplerParameteriContextANGLE
libGLESv2.so:glSamplerParameteriv
libGLESv2.so:glSamplerParameterivContextANGLE
libGLESv2.so:glSamplerParameterivRobustANGLE
libGLESv2.so:glSamplerParameterivRobustANGLEContextANGLE
libGLESv2.so:glScalef
libGLESv2.so:glScalefContextANGLE
libGLESv2.so:glScalex
libGLESv2.so:glScalexContextANGLE
libGLESv2.so:glScissor
libGLESv2.so:glScissorContextANGLE
libGLESv2.so:glSemaphoreParameterui64vEXT
libGLESv2.so:glSemaphoreParameterui64vEXTContextANGLE
libGLESv2.so:glSetFenceNV
libGLESv2.so:glSetFenceNVContextANGLE
libGLESv2.so:glShadeModel
libGLESv2.so:glShadeModelContextANGLE
libGLESv2.so:glShaderBinary
libGLESv2.so:glShaderBinaryContextANGLE
libGLESv2.so:glShaderSource
libGLESv2.so:glShaderSourceContextANGLE
libGLESv2.so:glSignalSemaphoreEXT
libGLESv2.so:glSignalSemaphoreEXTContextANGLE
libGLESv2.so:glStencilFillPathCHROMIUM
libGLESv2.so:glStencilFillPathCHROMIUMContextANGLE
libGLESv2.so:glStencilFillPathInstancedCHROMIUM
libGLESv2.so:glStencilFillPathInstancedCHROMIUMContextANGLE
libGLESv2.so:glStencilFunc
libGLESv2.so:glStencilFuncContextANGLE
libGLESv2.so:glStencilFuncSeparate
libGLESv2.so:glStencilFuncSeparateContextANGLE
libGLESv2.so:glStencilMask
libGLESv2.so:glStencilMaskContextANGLE
libGLESv2.so:glStencilMaskSeparate
libGLESv2.so:glStencilMaskSeparateContextANGLE
libGLESv2.so:glStencilOp
libGLESv2.so:glStencilOpContextANGLE
libGLESv2.so:glStencilOpSeparate
libGLESv2.so:glStencilOpSeparateContextANGLE
libGLESv2.so:glStencilStrokePathCHROMIUM
libGLESv2.so:glStencilStrokePathCHROMIUMContextANGLE
libGLESv2.so:glStencilStrokePathInstancedCHROMIUM
libGLESv2.so:glStencilStrokePathInstancedCHROMIUMContextANGLE
libGLESv2.so:glStencilThenCoverFillPathCHROMIUM
libGLESv2.so:glStencilThenCoverFillPathCHROMIUMContextANGLE
libGLESv2.so:glStencilThenCoverFillPathInstancedCHROMIUM
libGLESv2.so:glStencilThenCoverFillPathInstancedCHROMIUMContextANGLE
libGLESv2.so:glStencilThenCoverStrokePathCHROMIUM
libGLESv2.so:glStencilThenCoverStrokePathCHROMIUMContextANGLE
libGLESv2.so:glStencilThenCoverStrokePathInstancedCHROMIUM
libGLESv2.so:glStencilThenCoverStrokePathInstancedCHROMIUMContextANGLE
libGLESv2.so:glTestFenceNV
libGLESv2.so:glTestFenceNVContextANGLE
libGLESv2.so:glTexBuffer
libGLESv2.so:glTexBufferContextANGLE
libGLESv2.so:glTexBufferRange
libGLESv2.so:glTexBufferRangeContextANGLE
libGLESv2.so:glTexCoordPointer
libGLESv2.so:glTexCoordPointerContextANGLE
libGLESv2.so:glTexEnvf
libGLESv2.so:glTexEnvfContextANGLE
libGLESv2.so:glTexEnvfv
libGLESv2.so:glTexEnvfvContextANGLE
libGLESv2.so:glTexEnvi
libGLESv2.so:glTexEnviContextANGLE
libGLESv2.so:glTexEnviv
libGLESv2.so:glTexEnvivContextANGLE
libGLESv2.so:glTexEnvx
libGLESv2.so:glTexEnvxContextANGLE
libGLESv2.so:glTexEnvxv
libGLESv2.so:glTexEnvxvContextANGLE
libGLESv2.so:glTexGenfOES
libGLESv2.so:glTexGenfOESContextANGLE
libGLESv2.so:glTexGenfvOES
libGLESv2.so:glTexGenfvOESContextANGLE
libGLESv2.so:glTexGeniOES
libGLESv2.so:glTexGeniOESContextANGLE
libGLESv2.so:glTexGenivOES
libGLESv2.so:glTexGenivOESContextANGLE
libGLESv2.so:glTexGenxOES
libGLESv2.so:glTexGenxOESContextANGLE
libGLESv2.so:glTexGenxvOES
libGLESv2.so:glTexGenxvOESContextANGLE
libGLESv2.so:glTexImage2D
libGLESv2.so:glTexImage2DContextANGLE
libGLESv2.so:glTexImage2DExternalANGLE
libGLESv2.so:glTexImage2DExternalANGLEContextANGLE
libGLESv2.so:glTexImage2DRobustANGLE
libGLESv2.so:glTexImage2DRobustANGLEContextANGLE
libGLESv2.so:glTexImage3D
libGLESv2.so:glTexImage3DContextANGLE
libGLESv2.so:glTexImage3DOES
libGLESv2.so:glTexImage3DOESContextANGLE
libGLESv2.so:glTexImage3DRobustANGLE
libGLESv2.so:glTexImage3DRobustANGLEContextANGLE
libGLESv2.so:glTexParameterIiv
libGLESv2.so:glTexParameterIivContextANGLE
libGLESv2.so:glTexParameterIivOES
libGLESv2.so:glTexParameterIivOESContextANGLE
libGLESv2.so:glTexParameterIivRobustANGLE
libGLESv2.so:glTexParameterIivRobustANGLEContextANGLE
libGLESv2.so:glTexParameterIuiv
libGLESv2.so:glTexParameterIuivContextANGLE
libGLESv2.so:glTexParameterIuivOES
libGLESv2.so:glTexParameterIuivOESContextANGLE
libGLESv2.so:glTexParameterIuivRobustANGLE
libGLESv2.so:glTexParameterIuivRobustANGLEContextANGLE
libGLESv2.so:glTexParameterf
libGLESv2.so:glTexParameterfContextANGLE
libGLESv2.so:glTexParameterfv
libGLESv2.so:glTexParameterfvContextANGLE
libGLESv2.so:glTexParameterfvRobustANGLE
libGLESv2.so:glTexParameterfvRobustANGLEContextANGLE
libGLESv2.so:glTexParameteri
libGLESv2.so:glTexParameteriContextANGLE
libGLESv2.so:glTexParameteriv
libGLESv2.so:glTexParameterivContextANGLE
libGLESv2.so:glTexParameterivRobustANGLE
libGLESv2.so:glTexParameterivRobustANGLEContextANGLE
libGLESv2.so:glTexParameterx
libGLESv2.so:glTexParameterxContextANGLE
libGLESv2.so:glTexParameterxv
libGLESv2.so:glTexParameterxvContextANGLE
libGLESv2.so:glTexStorage1DEXT
libGLESv2.so:glTexStorage1DEXTContextANGLE
libGLESv2.so:glTexStorage2D
libGLESv2.so:glTexStorage2DContextANGLE
libGLESv2.so:glTexStorage2DEXT
libGLESv2.so:glTexStorage2DEXTContextANGLE
libGLESv2.so:glTexStorage2DMultisample
libGLESv2.so:glTexStorage2DMultisampleANGLE
libGLESv2.so:glTexStorage2DMultisampleANGLEContextANGLE
libGLESv2.so:glTexStorage2DMultisampleContextANGLE
libGLESv2.so:glTexStorage3D
libGLESv2.so:glTexStorage3DContextANGLE
libGLESv2.so:glTexStorage3DEXT
libGLESv2.so:glTexStorage3DEXTContextANGLE
libGLESv2.so:glTexStorage3DMultisample
libGLESv2.so:glTexStorage3DMultisampleContextANGLE
libGLESv2.so:glTexStorage3DMultisampleOES
libGLESv2.so:glTexStorage3DMultisampleOESContextANGLE
libGLESv2.so:glTexStorageMem2DEXT
libGLESv2.so:glTexStorageMem2DEXTContextANGLE
libGLESv2.so:glTexStorageMem2DMultisampleEXT
libGLESv2.so:glTexStorageMem2DMultisampleEXTContextANGLE
libGLESv2.so:glTexStorageMem3DEXT
libGLESv2.so:glTexStorageMem3DEXTContextANGLE
libGLESv2.so:glTexStorageMem3DMultisampleEXT
libGLESv2.so:glTexStorageMem3DMultisampleEXTContextANGLE
libGLESv2.so:glTexSubImage2D
libGLESv2.so:glTexSubImage2DContextANGLE
libGLESv2.so:glTexSubImage2DRobustANGLE
libGLESv2.so:glTexSubImage2DRobustANGLEContextANGLE
libGLESv2.so:glTexSubImage3D
libGLESv2.so:glTexSubImage3DContextANGLE
libGLESv2.so:glTexSubImage3DOES
libGLESv2.so:glTexSubImage3DOESContextANGLE
libGLESv2.so:glTexSubImage3DRobustANGLE
libGLESv2.so:glTexSubImage3DRobustANGLEContextANGLE
libGLESv2.so:glTransformFeedbackVaryings
libGLESv2.so:glTransformFeedbackVaryingsContextANGLE
libGLESv2.so:glTranslatef
libGLESv2.so:glTranslatefContextANGLE
libGLESv2.so:glTranslatex
libGLESv2.so:glTranslatexContextANGLE
libGLESv2.so:glUniform1f
libGLESv2.so:glUniform1fContextANGLE
libGLESv2.so:glUniform1fv
libGLESv2.so:glUniform1fvContextANGLE
libGLESv2.so:glUniform1i
libGLESv2.so:glUniform1iContextANGLE
libGLESv2.so:glUniform1iv
libGLESv2.so:glUniform1ivContextANGLE
libGLESv2.so:glUniform1ui
libGLESv2.so:glUniform1uiContextANGLE
libGLESv2.so:glUniform1uiv
libGLESv2.so:glUniform1uivContextANGLE
libGLESv2.so:glUniform2f
libGLESv2.so:glUniform2fContextANGLE
libGLESv2.so:glUniform2fv
libGLESv2.so:glUniform2fvContextANGLE
libGLESv2.so:glUniform2i
libGLESv2.so:glUniform2iContextANGLE
libGLESv2.so:glUniform2iv
libGLESv2.so:glUniform2ivContextANGLE
libGLESv2.so:glUniform2ui
libGLESv2.so:glUniform2uiContextANGLE
libGLESv2.so:glUniform2uiv
libGLESv2.so:glUniform2uivContextANGLE
libGLESv2.so:glUniform3f
libGLESv2.so:glUniform3fContextANGLE
libGLESv2.so:glUniform3fv
libGLESv2.so:glUniform3fvContextANGLE
libGLESv2.so:glUniform3i
libGLESv2.so:glUniform3iContextANGLE
libGLESv2.so:glUniform3iv
libGLESv2.so:glUniform3ivContextANGLE
libGLESv2.so:glUniform3ui
libGLESv2.so:glUniform3uiContextANGLE
libGLESv2.so:glUniform3uiv
libGLESv2.so:glUniform3uivContextANGLE
libGLESv2.so:glUniform4f
libGLESv2.so:glUniform4fContextANGLE
libGLESv2.so:glUniform4fv
libGLESv2.so:glUniform4fvContextANGLE
libGLESv2.so:glUniform4i
libGLESv2.so:glUniform4iContextANGLE
libGLESv2.so:glUniform4iv
libGLESv2.so:glUniform4ivContextANGLE
libGLESv2.so:glUniform4ui
libGLESv2.so:glUniform4uiContextANGLE
libGLESv2.so:glUniform4uiv
libGLESv2.so:glUniform4uivContextANGLE
libGLESv2.so:glUniformBlockBinding
libGLESv2.so:glUniformBlockBindingContextANGLE
libGLESv2.so:glUniformMatrix2fv
libGLESv2.so:glUniformMatrix2fvContextANGLE
libGLESv2.so:glUniformMatrix2x3fv
libGLESv2.so:glUniformMatrix2x3fvContextANGLE
libGLESv2.so:glUniformMatrix2x4fv
libGLESv2.so:glUniformMatrix2x4fvContextANGLE
libGLESv2.so:glUniformMatrix3fv
libGLESv2.so:glUniformMatrix3fvContextANGLE
libGLESv2.so:glUniformMatrix3x2fv
libGLESv2.so:glUniformMatrix3x2fvContextANGLE
libGLESv2.so:glUniformMatrix3x4fv
libGLESv2.so:glUniformMatrix3x4fvContextANGLE
libGLESv2.so:glUniformMatrix4fv
libGLESv2.so:glUniformMatrix4fvContextANGLE
libGLESv2.so:glUniformMatrix4x2fv
libGLESv2.so:glUniformMatrix4x2fvContextANGLE
libGLESv2.so:glUniformMatrix4x3fv
libGLESv2.so:glUniformMatrix4x3fvContextANGLE
libGLESv2.so:glUnmapBuffer
libGLESv2.so:glUnmapBufferContextANGLE
libGLESv2.so:glUnmapBufferOES
libGLESv2.so:glUnmapBufferOESContextANGLE
libGLESv2.so:glUseProgram
libGLESv2.so:glUseProgramContextANGLE
libGLESv2.so:glUseProgramStages
libGLESv2.so:glUseProgramStagesContextANGLE
libGLESv2.so:glValidateProgram
libGLESv2.so:glValidateProgramContextANGLE
libGLESv2.so:glValidateProgramPipeline
libGLESv2.so:glValidateProgramPipelineContextANGLE
libGLESv2.so:glVertexAttrib1f
libGLESv2.so:glVertexAttrib1fContextANGLE
libGLESv2.so:glVertexAttrib1fv
libGLESv2.so:glVertexAttrib1fvContextANGLE
libGLESv2.so:glVertexAttrib2f
libGLESv2.so:glVertexAttrib2fContextANGLE
libGLESv2.so:glVertexAttrib2fv
libGLESv2.so:glVertexAttrib2fvContextANGLE
libGLESv2.so:glVertexAttrib3f
libGLESv2.so:glVertexAttrib3fContextANGLE
libGLESv2.so:glVertexAttrib3fv
libGLESv2.so:glVertexAttrib3fvContextANGLE
libGLESv2.so:glVertexAttrib4f
libGLESv2.so:glVertexAttrib4fContextANGLE
libGLESv2.so:glVertexAttrib4fv
libGLESv2.so:glVertexAttrib4fvContextANGLE
libGLESv2.so:glVertexAttribBinding
libGLESv2.so:glVertexAttribBindingContextANGLE
libGLESv2.so:glVertexAttribDivisor
libGLESv2.so:glVertexAttribDivisorANGLE
libGLESv2.so:glVertexAttribDivisorANGLEContextANGLE
libGLESv2.so:glVertexAttribDivisorContextANGLE
libGLESv2.so:glVertexAttribDivisorEXT
libGLESv2.so:glVertexAttribDivisorEXTContextANGLE
libGLESv2.so:glVertexAttribFormat
libGLESv2.so:glVertexAttribFormatContextANGLE
libGLESv2.so:glVertexAttribI4i
libGLESv2.so:glVertexAttribI4iContextANGLE
libGLESv2.so:glVertexAttribI4iv
libGLESv2.so:glVertexAttribI4ivContextANGLE
libGLESv2.so:glVertexAttribI4ui
libGLESv2.so:glVertexAttribI4uiContextANGLE
libGLESv2.so:glVertexAttribI4uiv
libGLESv2.so:glVertexAttribI4uivContextANGLE
libGLESv2.so:glVertexAttribIFormat
libGLESv2.so:glVertexAttribIFormatContextANGLE
libGLESv2.so:glVertexAttribIPointer
libGLESv2.so:glVertexAttribIPointerContextANGLE
libGLESv2.so:glVertexAttribPointer
libGLESv2.so:glVertexAttribPointerContextANGLE
libGLESv2.so:glVertexBindingDivisor
libGLESv2.so:glVertexBindingDivisorContextANGLE
libGLESv2.so:glVertexPointer
libGLESv2.so:glVertexPointerContextANGLE
libGLESv2.so:glViewport
libGLESv2.so:glViewportContextANGLE
libGLESv2.so:glWaitSemaphoreEXT
libGLESv2.so:glWaitSemaphoreEXTContextANGLE
libGLESv2.so:glWaitSync
libGLESv2.so:glWaitSyncContextANGLE
libGLESv2.so:glWeightPointerOES
libGLESv2.so:glWeightPointerOESContextANGLE
libGLESv2.so:libGLESv2_swiftshader
libffmpeg.so:av_ac3_parse_header
libffmpeg.so:av_add_i
libffmpeg.so:av_add_index_entry
libffmpeg.so:av_add_q
libffmpeg.so:av_add_stable
libffmpeg.so:av_adts_header_parse
libffmpeg.so:av_aes_alloc
libffmpeg.so:av_aes_crypt
libffmpeg.so:av_aes_ctr_alloc
libffmpeg.so:av_aes_ctr_crypt
libffmpeg.so:av_aes_ctr_free
libffmpeg.so:av_aes_ctr_get_iv
libffmpeg.so:av_aes_ctr_increment_iv
libffmpeg.so:av_aes_ctr_init
libffmpeg.so:av_aes_ctr_set_full_iv
libffmpeg.so:av_aes_ctr_set_iv
libffmpeg.so:av_aes_ctr_set_random_iv
libffmpeg.so:av_aes_init
libffmpeg.so:av_aes_size
libffmpeg.so:av_append_packet
libffmpeg.so:av_append_path_component
libffmpeg.so:av_apply_bitstream_filters
libffmpeg.so:av_asprintf
libffmpeg.so:av_assert0_fpu
libffmpeg.so:av_base64_decode
libffmpeg.so:av_base64_encode
libffmpeg.so:av_basename
libffmpeg.so:av_bitstream_filter_close
libffmpeg.so:av_bitstream_filter_filter
libffmpeg.so:av_bitstream_filter_init
libffmpeg.so:av_bitstream_filter_next
libffmpeg.so:av_bmg_get
libffmpeg.so:av_bprint_append_data
libffmpeg.so:av_bprint_channel_layout
libffmpeg.so:av_bprint_chars
libffmpeg.so:av_bprint_clear
libffmpeg.so:av_bprint_escape
libffmpeg.so:av_bprint_finalize
libffmpeg.so:av_bprint_get_buffer
libffmpeg.so:av_bprint_init
libffmpeg.so:av_bprint_init_for_buffer
libffmpeg.so:av_bprint_strftime
libffmpeg.so:av_bprintf
libffmpeg.so:av_bsf_alloc
libffmpeg.so:av_bsf_flush
libffmpeg.so:av_bsf_free
libffmpeg.so:av_bsf_get_by_name
libffmpeg.so:av_bsf_get_class
libffmpeg.so:av_bsf_get_null_filter
libffmpeg.so:av_bsf_init
libffmpeg.so:av_bsf_iterate
libffmpeg.so:av_bsf_list_alloc
libffmpeg.so:av_bsf_list_append
libffmpeg.so:av_bsf_list_append2
libffmpeg.so:av_bsf_list_finalize
libffmpeg.so:av_bsf_list_free
libffmpeg.so:av_bsf_list_parse_str
libffmpeg.so:av_bsf_next
libffmpeg.so:av_bsf_receive_packet
libffmpeg.so:av_bsf_send_packet
libffmpeg.so:av_buffer_alloc
libffmpeg.so:av_buffer_allocz
libffmpeg.so:av_buffer_create
libffmpeg.so:av_buffer_default_free
libffmpeg.so:av_buffer_get_opaque
libffmpeg.so:av_buffer_get_ref_count
libffmpeg.so:av_buffer_is_writable
libffmpeg.so:av_buffer_make_writable
libffmpeg.so:av_buffer_pool_get
libffmpeg.so:av_buffer_pool_init
libffmpeg.so:av_buffer_pool_init2
libffmpeg.so:av_buffer_pool_uninit
libffmpeg.so:av_buffer_realloc
libffmpeg.so:av_buffer_ref
libffmpeg.so:av_buffer_unref
libffmpeg.so:av_calloc
libffmpeg.so:av_camellia_alloc
libffmpeg.so:av_camellia_crypt
libffmpeg.so:av_camellia_init
libffmpeg.so:av_camellia_size
libffmpeg.so:av_channel_layout_extract_channel
libffmpeg.so:av_chroma_location_from_name
libffmpeg.so:av_chroma_location_name
libffmpeg.so:av_cmp_i
libffmpeg.so:av_codec_ffversion
libffmpeg.so:av_codec_get_chroma_intra_matrix
libffmpeg.so:av_codec_get_codec_descriptor
libffmpeg.so:av_codec_get_codec_properties
libffmpeg.so:av_codec_get_id
libffmpeg.so:av_codec_get_lowres
libffmpeg.so:av_codec_get_max_lowres
libffmpeg.so:av_codec_get_pkt_timebase
libffmpeg.so:av_codec_get_seek_preroll
libffmpeg.so:av_codec_get_tag
libffmpeg.so:av_codec_get_tag2
libffmpeg.so:av_codec_is_decoder
libffmpeg.so:av_codec_is_encoder
libffmpeg.so:av_codec_iterate
libffmpeg.so:av_codec_next
libffmpeg.so:av_codec_set_chroma_intra_matrix
libffmpeg.so:av_codec_set_codec_descriptor
libffmpeg.so:av_codec_set_lowres
libffmpeg.so:av_codec_set_pkt_timebase
libffmpeg.so:av_codec_set_seek_preroll
libffmpeg.so:av_color_primaries_from_name
libffmpeg.so:av_color_primaries_name
libffmpeg.so:av_color_range_from_name
libffmpeg.so:av_color_range_name
libffmpeg.so:av_color_space_from_name
libffmpeg.so:av_color_space_name
libffmpeg.so:av_color_transfer_from_name
libffmpeg.so:av_color_transfer_name
libffmpeg.so:av_compare_mod
libffmpeg.so:av_compare_ts
libffmpeg.so:av_content_light_metadata_alloc
libffmpeg.so:av_content_light_metadata_create_side_data
libffmpeg.so:av_copy_packet
libffmpeg.so:av_copy_packet_side_data
libffmpeg.so:av_cpb_properties_alloc
libffmpeg.so:av_cpu_count
libffmpeg.so:av_cpu_max_align
libffmpeg.so:av_crc
libffmpeg.so:av_crc_get_table
libffmpeg.so:av_crc_init
libffmpeg.so:av_d2q
libffmpeg.so:av_d2str
libffmpeg.so:av_d3d11va_alloc_context
libffmpeg.so:av_dct_calc
libffmpeg.so:av_dct_end
libffmpeg.so:av_dct_init
libffmpeg.so:av_default_get_category
libffmpeg.so:av_default_item_name
libffmpeg.so:av_demuxer_iterate
libffmpeg.so:av_demuxer_open
libffmpeg.so:av_dict_copy
libffmpeg.so:av_dict_count
libffmpeg.so:av_dict_free
libffmpeg.so:av_dict_get
libffmpeg.so:av_dict_get_string
libffmpeg.so:av_dict_parse_string
libffmpeg.so:av_dict_set
libffmpeg.so:av_dict_set_int
libffmpeg.so:av_dirac_parse_sequence_header
libffmpeg.so:av_dirname
libffmpeg.so:av_display_matrix_flip
libffmpeg.so:av_display_rotation_get
libffmpeg.so:av_display_rotation_set
libffmpeg.so:av_div_i
libffmpeg.so:av_div_q
libffmpeg.so:av_downmix_info_update_side_data
libffmpeg.so:av_dump_format
libffmpeg.so:av_dup_packet
libffmpeg.so:av_dv_codec_profile
libffmpeg.so:av_dv_codec_profile2
libffmpeg.so:av_dv_frame_profile
libffmpeg.so:av_dynamic_hdr_plus_alloc
libffmpeg.so:av_dynamic_hdr_plus_create_side_data
libffmpeg.so:av_dynarray2_add
libffmpeg.so:av_dynarray_add
libffmpeg.so:av_dynarray_add_nofree
libffmpeg.so:av_encryption_info_add_side_data
libffmpeg.so:av_encryption_info_alloc
libffmpeg.so:av_encryption_info_clone
libffmpeg.so:av_encryption_info_free
libffmpeg.so:av_encryption_info_get_side_data
libffmpeg.so:av_encryption_init_info_add_side_data
libffmpeg.so:av_encryption_init_info_alloc
libffmpeg.so:av_encryption_init_info_free
libffmpeg.so:av_encryption_init_info_get_side_data
libffmpeg.so:av_escape
libffmpeg.so:av_expr_count_vars
libffmpeg.so:av_expr_eval
libffmpeg.so:av_expr_free
libffmpeg.so:av_expr_parse
libffmpeg.so:av_expr_parse_and_eval
libffmpeg.so:av_fast_malloc
libffmpeg.so:av_fast_mallocz
libffmpeg.so:av_fast_padded_malloc
libffmpeg.so:av_fast_padded_mallocz
libffmpeg.so:av_fast_realloc
libffmpeg.so:av_fft_calc
libffmpeg.so:av_fft_end
libffmpeg.so:av_fft_init
libffmpeg.so:av_fft_permute
libffmpeg.so:av_fifo_alloc
libffmpeg.so:av_fifo_alloc_array
libffmpeg.so:av_fifo_drain
libffmpeg.so:av_fifo_free
libffmpeg.so:av_fifo_freep
libffmpeg.so:av_fifo_generic_peek
libffmpeg.so:av_fifo_generic_peek_at
libffmpeg.so:av_fifo_generic_read
libffmpeg.so:av_fifo_generic_write
libffmpeg.so:av_fifo_grow
libffmpeg.so:av_fifo_realloc2
libffmpeg.so:av_fifo_reset
libffmpeg.so:av_fifo_size
libffmpeg.so:av_fifo_space
libffmpeg.so:av_filename_number_test
libffmpeg.so:av_find_best_pix_fmt_of_2
libffmpeg.so:av_find_best_stream
libffmpeg.so:av_find_default_stream_index
libffmpeg.so:av_find_info_tag
libffmpeg.so:av_find_input_format
libffmpeg.so:av_find_nearest_q_idx
libffmpeg.so:av_find_program_from_stream
libffmpeg.so:av_fmt_ctx_get_duration_estimation_method
libffmpeg.so:av_fopen_utf8
libffmpeg.so:av_force_cpu_flags
libffmpeg.so:av_format_ffversion
libffmpeg.so:av_format_get_audio_codec
libffmpeg.so:av_format_get_control_message_cb
libffmpeg.so:av_format_get_data_codec
libffmpeg.so:av_format_get_metadata_header_padding
libffmpeg.so:av_format_get_opaque
libffmpeg.so:av_format_get_open_cb
libffmpeg.so:av_format_get_probe_score
libffmpeg.so:av_format_get_subtitle_codec
libffmpeg.so:av_format_get_video_codec
libffmpeg.so:av_format_inject_global_side_data
libffmpeg.so:av_format_set_audio_codec
libffmpeg.so:av_format_set_control_message_cb
libffmpeg.so:av_format_set_data_codec
libffmpeg.so:av_format_set_metadata_header_padding
libffmpeg.so:av_format_set_opaque
libffmpeg.so:av_format_set_open_cb
libffmpeg.so:av_format_set_subtitle_codec
libffmpeg.so:av_format_set_video_codec
libffmpeg.so:av_fourcc_make_string
libffmpeg.so:av_frame_alloc
libffmpeg.so:av_frame_apply_cropping
libffmpeg.so:av_frame_clone
libffmpeg.so:av_frame_copy
libffmpeg.so:av_frame_copy_props
libffmpeg.so:av_frame_free
libffmpeg.so:av_frame_get_best_effort_timestamp
libffmpeg.so:av_frame_get_buffer
libffmpeg.so:av_frame_get_channel_layout
libffmpeg.so:av_frame_get_channels
libffmpeg.so:av_frame_get_color_range
libffmpeg.so:av_frame_get_colorspace
libffmpeg.so:av_frame_get_decode_error_flags
libffmpeg.so:av_frame_get_metadata
libffmpeg.so:av_frame_get_pkt_duration
libffmpeg.so:av_frame_get_pkt_pos
libffmpeg.so:av_frame_get_pkt_size
libffmpeg.so:av_frame_get_plane_buffer
libffmpeg.so:av_frame_get_qp_table
libffmpeg.so:av_frame_get_sample_rate
libffmpeg.so:av_frame_get_side_data
libffmpeg.so:av_frame_is_writable
libffmpeg.so:av_frame_make_writable
libffmpeg.so:av_frame_move_ref
libffmpeg.so:av_frame_new_side_data
libffmpeg.so:av_frame_new_side_data_from_buf
libffmpeg.so:av_frame_ref
libffmpeg.so:av_frame_remove_side_data
libffmpeg.so:av_frame_set_best_effort_timestamp
libffmpeg.so:av_frame_set_channel_layout
libffmpeg.so:av_frame_set_channels
libffmpeg.so:av_frame_set_color_range
libffmpeg.so:av_frame_set_colorspace
libffmpeg.so:av_frame_set_decode_error_flags
libffmpeg.so:av_frame_set_metadata
libffmpeg.so:av_frame_set_pkt_duration
libffmpeg.so:av_frame_set_pkt_pos
libffmpeg.so:av_frame_set_pkt_size
libffmpeg.so:av_frame_set_qp_table
libffmpeg.so:av_frame_set_sample_rate
libffmpeg.so:av_frame_side_data_name
libffmpeg.so:av_frame_unref
libffmpeg.so:av_free
libffmpeg.so:av_free_packet
libffmpeg.so:av_freep
libffmpeg.so:av_gcd
libffmpeg.so:av_get_alt_sample_fmt
libffmpeg.so:av_get_audio_frame_duration
libffmpeg.so:av_get_audio_frame_duration2
libffmpeg.so:av_get_bits_per_pixel
libffmpeg.so:av_get_bits_per_sample
libffmpeg.so:av_get_bytes_per_sample
libffmpeg.so:av_get_channel_description
libffmpeg.so:av_get_channel_layout
libffmpeg.so:av_get_channel_layout_channel_index
libffmpeg.so:av_get_channel_layout_nb_channels
libffmpeg.so:av_get_channel_layout_string
libffmpeg.so:av_get_channel_name
libffmpeg.so:av_get_codec_tag_string
libffmpeg.so:av_get_colorspace_name
libffmpeg.so:av_get_cpu_flags
libffmpeg.so:av_get_default_channel_layout
libffmpeg.so:av_get_exact_bits_per_sample
libffmpeg.so:av_get_extended_channel_layout
libffmpeg.so:av_get_frame_filename
libffmpeg.so:av_get_frame_filename2
libffmpeg.so:av_get_known_color_name
libffmpeg.so:av_get_media_type_string
libffmpeg.so:av_get_output_timestamp
libffmpeg.so:av_get_packed_sample_fmt
libffmpeg.so:av_get_packet
libffmpeg.so:av_get_padded_bits_per_pixel
libffmpeg.so:av_get_pcm_codec
libffmpeg.so:av_get_picture_type_char
libffmpeg.so:av_get_pix_fmt
libffmpeg.so:av_get_pix_fmt_loss
libffmpeg.so:av_get_pix_fmt_name
libffmpeg.so:av_get_pix_fmt_string
libffmpeg.so:av_get_planar_sample_fmt
libffmpeg.so:av_get_profile_name
libffmpeg.so:av_get_random_seed
libffmpeg.so:av_get_sample_fmt
libffmpeg.so:av_get_sample_fmt_name
libffmpeg.so:av_get_sample_fmt_string
libffmpeg.so:av_get_standard_channel_layout
libffmpeg.so:av_get_time_base_q
libffmpeg.so:av_get_token
libffmpeg.so:av_gettime
libffmpeg.so:av_gettime_relative
libffmpeg.so:av_gettime_relative_is_monotonic
libffmpeg.so:av_grow_packet
libffmpeg.so:av_guess_codec
libffmpeg.so:av_guess_format
libffmpeg.so:av_guess_frame_rate
libffmpeg.so:av_guess_sample_aspect_ratio
libffmpeg.so:av_hex_dump
libffmpeg.so:av_hex_dump_log
libffmpeg.so:av_hwaccel_next
libffmpeg.so:av_hwdevice_ctx_alloc
libffmpeg.so:av_hwdevice_ctx_create
libffmpeg.so:av_hwdevice_ctx_create_derived
libffmpeg.so:av_hwdevice_ctx_init
libffmpeg.so:av_hwdevice_find_type_by_name
libffmpeg.so:av_hwdevice_get_hwframe_constraints
libffmpeg.so:av_hwdevice_get_type_name
libffmpeg.so:av_hwdevice_hwconfig_alloc
libffmpeg.so:av_hwdevice_iterate_types
libffmpeg.so:av_hwframe_constraints_free
libffmpeg.so:av_hwframe_ctx_alloc
libffmpeg.so:av_hwframe_ctx_create_derived
libffmpeg.so:av_hwframe_ctx_init
libffmpeg.so:av_hwframe_get_buffer
libffmpeg.so:av_hwframe_map
libffmpeg.so:av_hwframe_transfer_data
libffmpeg.so:av_hwframe_transfer_get_formats
libffmpeg.so:av_i2int
libffmpeg.so:av_iformat_next
libffmpeg.so:av_image_alloc
libffmpeg.so:av_image_check_sar
libffmpeg.so:av_image_check_size
libffmpeg.so:av_image_check_size2
libffmpeg.so:av_image_copy
libffmpeg.so:av_image_copy_plane
libffmpeg.so:av_image_copy_to_buffer
libffmpeg.so:av_image_copy_uc_from
libffmpeg.so:av_image_fill_arrays
libffmpeg.so:av_image_fill_black
libffmpeg.so:av_image_fill_linesizes
libffmpeg.so:av_image_fill_max_pixsteps
libffmpeg.so:av_image_fill_pointers
libffmpeg.so:av_image_get_buffer_size
libffmpeg.so:av_image_get_linesize
libffmpeg.so:av_imdct_calc
libffmpeg.so:av_imdct_half
libffmpeg.so:av_index_search_timestamp
libffmpeg.so:av_init_packet
libffmpeg.so:av_int2i
libffmpeg.so:av_int_list_length_for_size
libffmpeg.so:av_interleaved_write_frame
libffmpeg.so:av_interleaved_write_uncoded_frame
libffmpeg.so:av_jni_get_java_vm
libffmpeg.so:av_jni_set_java_vm
libffmpeg.so:av_lfg_init
libffmpeg.so:av_lfg_init_from_data
libffmpeg.so:av_lockmgr_register
libffmpeg.so:av_log
libffmpeg.so:av_log2
libffmpeg.so:av_log2_16bit
libffmpeg.so:av_log2_i
libffmpeg.so:av_log_default_callback
libffmpeg.so:av_log_format_line
libffmpeg.so:av_log_format_line2
libffmpeg.so:av_log_get_flags
libffmpeg.so:av_log_get_level
libffmpeg.so:av_log_set_callback
libffmpeg.so:av_log_set_flags
libffmpeg.so:av_log_set_level
libffmpeg.so:av_malloc
libffmpeg.so:av_malloc_array
libffmpeg.so:av_mallocz
libffmpeg.so:av_mallocz_array
libffmpeg.so:av_mastering_display_metadata_alloc
libffmpeg.so:av_mastering_display_metadata_create_side_data
libffmpeg.so:av_match_ext
libffmpeg.so:av_match_list
libffmpeg.so:av_match_name
libffmpeg.so:av_max_alloc
libffmpeg.so:av_md5_alloc
libffmpeg.so:av_md5_final
libffmpeg.so:av_md5_init
libffmpeg.so:av_md5_size
libffmpeg.so:av_md5_sum
libffmpeg.so:av_md5_update
libffmpeg.so:av_mdct_calc
libffmpeg.so:av_mdct_end
libffmpeg.so:av_mdct_init
libffmpeg.so:av_mediacodec_alloc_context
libffmpeg.so:av_mediacodec_default_free
libffmpeg.so:av_mediacodec_default_init
libffmpeg.so:av_mediacodec_release_buffer
libffmpeg.so:av_mediacodec_render_buffer_at_time
libffmpeg.so:av_memcpy_backptr
libffmpeg.so:av_memdup
libffmpeg.so:av_mod_i
libffmpeg.so:av_mul_i
libffmpeg.so:av_mul_q
libffmpeg.so:av_muxer_iterate
libffmpeg.so:av_nearer_q
libffmpeg.so:av_new_packet
libffmpeg.so:av_new_program
libffmpeg.so:av_oformat_next
libffmpeg.so:av_opt_child_class_next
libffmpeg.so:av_opt_child_next
libffmpeg.so:av_opt_copy
libffmpeg.so:av_opt_eval_double
libffmpeg.so:av_opt_eval_flags
libffmpeg.so:av_opt_eval_float
libffmpeg.so:av_opt_eval_int
libffmpeg.so:av_opt_eval_int64
libffmpeg.so:av_opt_eval_q
libffmpeg.so:av_opt_find
libffmpeg.so:av_opt_find2
libffmpeg.so:av_opt_flag_is_set
libffmpeg.so:av_opt_free
libffmpeg.so:av_opt_freep_ranges
libffmpeg.so:av_opt_get
libffmpeg.so:av_opt_get_channel_layout
libffmpeg.so:av_opt_get_dict_val
libffmpeg.so:av_opt_get_double
libffmpeg.so:av_opt_get_image_size
libffmpeg.so:av_opt_get_int
libffmpeg.so:av_opt_get_key_value
libffmpeg.so:av_opt_get_pixel_fmt
libffmpeg.so:av_opt_get_q
libffmpeg.so:av_opt_get_sample_fmt
libffmpeg.so:av_opt_get_video_rate
libffmpeg.so:av_opt_is_set_to_default
libffmpeg.so:av_opt_is_set_to_default_by_name
libffmpeg.so:av_opt_next
libffmpeg.so:av_opt_ptr
libffmpeg.so:av_opt_query_ranges
libffmpeg.so:av_opt_query_ranges_default
libffmpeg.so:av_opt_serialize
libffmpeg.so:av_opt_set
libffmpeg.so:av_opt_set_bin
libffmpeg.so:av_opt_set_channel_layout
libffmpeg.so:av_opt_set_defaults
libffmpeg.so:av_opt_set_defaults2
libffmpeg.so:av_opt_set_dict
libffmpeg.so:av_opt_set_dict2
libffmpeg.so:av_opt_set_dict_val
libffmpeg.so:av_opt_set_double
libffmpeg.so:av_opt_set_from_string
libffmpeg.so:av_opt_set_image_size
libffmpeg.so:av_opt_set_int
libffmpeg.so:av_opt_set_pixel_fmt
libffmpeg.so:av_opt_set_q
libffmpeg.so:av_opt_set_sample_fmt
libffmpeg.so:av_opt_set_video_rate
libffmpeg.so:av_opt_show2
libffmpeg.so:av_packet_add_side_data
libffmpeg.so:av_packet_alloc
libffmpeg.so:av_packet_clone
libffmpeg.so:av_packet_copy_props
libffmpeg.so:av_packet_free
libffmpeg.so:av_packet_free_side_data
libffmpeg.so:av_packet_from_data
libffmpeg.so:av_packet_get_side_data
libffmpeg.so:av_packet_make_refcounted
libffmpeg.so:av_packet_make_writable
libffmpeg.so:av_packet_merge_side_data
libffmpeg.so:av_packet_move_ref
libffmpeg.so:av_packet_new_side_data
libffmpeg.so:av_packet_pack_dictionary
libffmpeg.so:av_packet_ref
libffmpeg.so:av_packet_rescale_ts
libffmpeg.so:av_packet_shrink_side_data
libffmpeg.so:av_packet_side_data_name
libffmpeg.so:av_packet_split_side_data
libffmpeg.so:av_packet_unpack_dictionary
libffmpeg.so:av_packet_unref
libffmpeg.so:av_parse_color
libffmpeg.so:av_parse_cpu_caps
libffmpeg.so:av_parse_cpu_flags
libffmpeg.so:av_parse_ratio
libffmpeg.so:av_parse_time
libffmpeg.so:av_parse_video_rate
libffmpeg.so:av_parse_video_size
libffmpeg.so:av_parser_change
libffmpeg.so:av_parser_close
libffmpeg.so:av_parser_init
libffmpeg.so:av_parser_iterate
libffmpeg.so:av_parser_next
libffmpeg.so:av_parser_parse2
libffmpeg.so:av_picture_copy
libffmpeg.so:av_picture_crop
libffmpeg.so:av_picture_pad
libffmpeg.so:av_pix_fmt_count_planes
libffmpeg.so:av_pix_fmt_desc_get
libffmpeg.so:av_pix_fmt_desc_get_id
libffmpeg.so:av_pix_fmt_desc_next
libffmpeg.so:av_pix_fmt_get_chroma_sub_sample
libffmpeg.so:av_pix_fmt_swap_endianness
libffmpeg.so:av_pixelutils_get_sad_fn
libffmpeg.so:av_pkt_dump2
libffmpeg.so:av_pkt_dump_log2
libffmpeg.so:av_probe_input_buffer
libffmpeg.so:av_probe_input_buffer2
libffmpeg.so:av_probe_input_format
libffmpeg.so:av_probe_input_format2
libffmpeg.so:av_probe_input_format3
libffmpeg.so:av_program_add_stream_index
libffmpeg.so:av_q2intfloat
libffmpeg.so:av_qsv_alloc_context
libffmpeg.so:av_rdft_calc
libffmpeg.so:av_rdft_end
libffmpeg.so:av_rdft_init
libffmpeg.so:av_read_frame
libffmpeg.so:av_read_image_line
libffmpeg.so:av_read_image_line2
libffmpeg.so:av_read_pause
libffmpeg.so:av_read_play
libffmpeg.so:av_realloc
libffmpeg.so:av_realloc_array
libffmpeg.so:av_realloc_f
libffmpeg.so:av_reallocp
libffmpeg.so:av_reallocp_array
libffmpeg.so:av_reduce
libffmpeg.so:av_register_all
libffmpeg.so:av_register_bitstream_filter
libffmpeg.so:av_register_codec_parser
libffmpeg.so:av_register_hwaccel
libffmpeg.so:av_register_input_format
libffmpeg.so:av_register_output_format
libffmpeg.so:av_rescale
libffmpeg.so:av_rescale_delta
libffmpeg.so:av_rescale_q
libffmpeg.so:av_rescale_q_rnd
libffmpeg.so:av_rescale_rnd
libffmpeg.so:av_sample_fmt_is_planar
libffmpeg.so:av_samples_alloc
libffmpeg.so:av_samples_alloc_array_and_samples
libffmpeg.so:av_samples_copy
libffmpeg.so:av_samples_fill_arrays
libffmpeg.so:av_samples_get_buffer_size
libffmpeg.so:av_samples_set_silence
libffmpeg.so:av_seek_frame
libffmpeg.so:av_set_cpu_flags_mask
libffmpeg.so:av_set_options_string
libffmpeg.so:av_sha_alloc
libffmpeg.so:av_sha_final
libffmpeg.so:av_sha_init
libffmpeg.so:av_sha_size
libffmpeg.so:av_sha_update
libffmpeg.so:av_shr_i
libffmpeg.so:av_shrink_packet
libffmpeg.so:av_small_strptime
libffmpeg.so:av_spherical_alloc
libffmpeg.so:av_spherical_from_name
libffmpeg.so:av_spherical_projection_name
libffmpeg.so:av_spherical_tile_bounds
libffmpeg.so:av_stereo3d_alloc
libffmpeg.so:av_stereo3d_create_side_data
libffmpeg.so:av_stereo3d_from_name
libffmpeg.so:av_stereo3d_type_name
libffmpeg.so:av_strcasecmp
libffmpeg.so:av_strdup
libffmpeg.so:av_stream_add_side_data
libffmpeg.so:av_stream_get_codec_timebase
libffmpeg.so:av_stream_get_end_pts
libffmpeg.so:av_stream_get_parser
libffmpeg.so:av_stream_get_r_frame_rate
libffmpeg.so:av_stream_get_recommended_encoder_configuration
libffmpeg.so:av_stream_get_side_data
libffmpeg.so:av_stream_new_side_data
libffmpeg.so:av_stream_set_r_frame_rate
libffmpeg.so:av_stream_set_recommended_encoder_configuration
libffmpeg.so:av_strerror
libffmpeg.so:av_strireplace
libffmpeg.so:av_stristart
libffmpeg.so:av_stristr
libffmpeg.so:av_strlcat
libffmpeg.so:av_strlcatf
libffmpeg.so:av_strlcpy
libffmpeg.so:av_strncasecmp
libffmpeg.so:av_strndup
libffmpeg.so:av_strnstr
libffmpeg.so:av_strstart
libffmpeg.so:av_strtod
libffmpeg.so:av_strtok
libffmpeg.so:av_sub_i
libffmpeg.so:av_sub_q
libffmpeg.so:av_tea_alloc
libffmpeg.so:av_tea_crypt
libffmpeg.so:av_tea_init
libffmpeg.so:av_tea_size
libffmpeg.so:av_thread_message_flush
libffmpeg.so:av_thread_message_queue_alloc
libffmpeg.so:av_thread_message_queue_free
libffmpeg.so:av_thread_message_queue_nb_elems
libffmpeg.so:av_thread_message_queue_recv
libffmpeg.so:av_thread_message_queue_send
libffmpeg.so:av_thread_message_queue_set_err_recv
libffmpeg.so:av_thread_message_queue_set_err_send
libffmpeg.so:av_thread_message_queue_set_free_func
libffmpeg.so:av_timecode_adjust_ntsc_framenum2
libffmpeg.so:av_timecode_check_frame_rate
libffmpeg.so:av_timecode_get_smpte_from_framenum
libffmpeg.so:av_timecode_init
libffmpeg.so:av_timecode_init_from_string
libffmpeg.so:av_timecode_make_mpeg_tc_string
libffmpeg.so:av_timecode_make_smpte_tc_string
libffmpeg.so:av_timecode_make_string
libffmpeg.so:av_timegm
libffmpeg.so:av_twofish_alloc
libffmpeg.so:av_twofish_crypt
libffmpeg.so:av_twofish_init
libffmpeg.so:av_twofish_size
libffmpeg.so:av_tx_init
libffmpeg.so:av_tx_uninit
libffmpeg.so:av_url_split
libffmpeg.so:av_usleep
libffmpeg.so:av_utf8_decode
libffmpeg.so:av_util_ffversion
libffmpeg.so:av_vbprintf
libffmpeg.so:av_version_info
libffmpeg.so:av_vlog
libffmpeg.so:av_vorbis_parse_frame
libffmpeg.so:av_vorbis_parse_frame_flags
libffmpeg.so:av_vorbis_parse_free
libffmpeg.so:av_vorbis_parse_init
libffmpeg.so:av_vorbis_parse_reset
libffmpeg.so:av_write_frame
libffmpeg.so:av_write_image_line
libffmpeg.so:av_write_image_line2
libffmpeg.so:av_write_trailer
libffmpeg.so:av_write_uncoded_frame
libffmpeg.so:av_write_uncoded_frame_query
libffmpeg.so:av_xiphlacing
libffmpeg.so:avcodec_align_dimensions
libffmpeg.so:avcodec_align_dimensions2
libffmpeg.so:avcodec_alloc_context3
libffmpeg.so:avcodec_chroma_pos_to_enum
libffmpeg.so:avcodec_close
libffmpeg.so:avcodec_configuration
libffmpeg.so:avcodec_copy_context
libffmpeg.so:avcodec_dct_alloc
libffmpeg.so:avcodec_dct_get_class
libffmpeg.so:avcodec_dct_init
libffmpeg.so:avcodec_decode_audio4
libffmpeg.so:avcodec_decode_subtitle2
libffmpeg.so:avcodec_decode_video2
libffmpeg.so:avcodec_default_execute
libffmpeg.so:avcodec_default_execute2
libffmpeg.so:avcodec_default_get_buffer2
libffmpeg.so:avcodec_default_get_format
libffmpeg.so:avcodec_descriptor_get
libffmpeg.so:avcodec_descriptor_get_by_name
libffmpeg.so:avcodec_descriptor_next
libffmpeg.so:avcodec_encode_audio2
libffmpeg.so:avcodec_encode_subtitle
libffmpeg.so:avcodec_encode_video2
libffmpeg.so:avcodec_enum_to_chroma_pos
libffmpeg.so:avcodec_fill_audio_frame
libffmpeg.so:avcodec_find_best_pix_fmt2
libffmpeg.so:avcodec_find_best_pix_fmt_of_2
libffmpeg.so:avcodec_find_best_pix_fmt_of_list
libffmpeg.so:avcodec_find_decoder
libffmpeg.so:avcodec_find_decoder_by_name
libffmpeg.so:avcodec_find_encoder
libffmpeg.so:avcodec_find_encoder_by_name
libffmpeg.so:avcodec_flush_buffers
libffmpeg.so:avcodec_free_context
libffmpeg.so:avcodec_get_chroma_sub_sample
libffmpeg.so:avcodec_get_class
libffmpeg.so:avcodec_get_context_defaults3
libffmpeg.so:avcodec_get_frame_class
libffmpeg.so:avcodec_get_hw_config
libffmpeg.so:avcodec_get_hw_frames_parameters
libffmpeg.so:avcodec_get_name
libffmpeg.so:avcodec_get_pix_fmt_loss
libffmpeg.so:avcodec_get_subtitle_rect_class
libffmpeg.so:avcodec_get_type
libffmpeg.so:avcodec_is_open
libffmpeg.so:avcodec_license
libffmpeg.so:avcodec_open2
libffmpeg.so:avcodec_parameters_alloc
libffmpeg.so:avcodec_parameters_copy
libffmpeg.so:avcodec_parameters_free
libffmpeg.so:avcodec_parameters_from_context
libffmpeg.so:avcodec_parameters_to_context
libffmpeg.so:avcodec_pix_fmt_to_codec_tag
libffmpeg.so:avcodec_profile_name
libffmpeg.so:avcodec_receive_frame
libffmpeg.so:avcodec_receive_packet
libffmpeg.so:avcodec_register
libffmpeg.so:avcodec_register_all
libffmpeg.so:avcodec_send_frame
libffmpeg.so:avcodec_send_packet
libffmpeg.so:avcodec_string
libffmpeg.so:avcodec_version
libffmpeg.so:avformat_alloc_context
libffmpeg.so:avformat_alloc_output_context2
libffmpeg.so:avformat_close_input
libffmpeg.so:avformat_configuration
libffmpeg.so:avformat_find_stream_info
libffmpeg.so:avformat_flush
libffmpeg.so:avformat_free_context
libffmpeg.so:avformat_get_class
libffmpeg.so:avformat_get_mov_audio_tags
libffmpeg.so:avformat_get_mov_video_tags
libffmpeg.so:avformat_get_riff_audio_tags
libffmpeg.so:avformat_get_riff_video_tags
libffmpeg.so:avformat_init_output
libffmpeg.so:avformat_license
libffmpeg.so:avformat_match_stream_specifier
libffmpeg.so:avformat_network_deinit
libffmpeg.so:avformat_network_init
libffmpeg.so:avformat_new_stream
libffmpeg.so:avformat_open_input
libffmpeg.so:avformat_query_codec
libffmpeg.so:avformat_queue_attached_pictures
libffmpeg.so:avformat_seek_file
libffmpeg.so:avformat_transfer_internal_stream_timing_info
libffmpeg.so:avformat_version
libffmpeg.so:avformat_write_header
libffmpeg.so:avio_accept
libffmpeg.so:avio_alloc_context
libffmpeg.so:avio_check
libffmpeg.so:avio_close
libffmpeg.so:avio_close_dir
libffmpeg.so:avio_close_dyn_buf
libffmpeg.so:avio_closep
libffmpeg.so:avio_context_free
libffmpeg.so:avio_enum_protocols
libffmpeg.so:avio_feof
libffmpeg.so:avio_find_protocol_name
libffmpeg.so:avio_flush
libffmpeg.so:avio_free_directory_entry
libffmpeg.so:avio_get_dyn_buf
libffmpeg.so:avio_get_str
libffmpeg.so:avio_get_str16be
libffmpeg.so:avio_get_str16le
libffmpeg.so:avio_handshake
libffmpeg.so:avio_open
libffmpeg.so:avio_open2
libffmpeg.so:avio_open_dir
libffmpeg.so:avio_open_dyn_buf
libffmpeg.so:avio_pause
libffmpeg.so:avio_print_string_array
libffmpeg.so:avio_printf
libffmpeg.so:avio_put_str
libffmpeg.so:avio_put_str16be
libffmpeg.so:avio_put_str16le
libffmpeg.so:avio_r8
libffmpeg.so:avio_rb16
libffmpeg.so:avio_rb24
libffmpeg.so:avio_rb32
libffmpeg.so:avio_rb64
libffmpeg.so:avio_read
libffmpeg.so:avio_read_dir
libffmpeg.so:avio_read_partial
libffmpeg.so:avio_read_to_bprint
libffmpeg.so:avio_rl16
libffmpeg.so:avio_rl24
libffmpeg.so:avio_rl32
libffmpeg.so:avio_rl64
libffmpeg.so:avio_seek
libffmpeg.so:avio_seek_time
libffmpeg.so:avio_size
libffmpeg.so:avio_skip
libffmpeg.so:avio_w8
libffmpeg.so:avio_wb16
libffmpeg.so:avio_wb24
libffmpeg.so:avio_wb32
libffmpeg.so:avio_wb64
libffmpeg.so:avio_wl16
libffmpeg.so:avio_wl24
libffmpeg.so:avio_wl32
libffmpeg.so:avio_wl64
libffmpeg.so:avio_write
libffmpeg.so:avio_write_marker
libffmpeg.so:avpicture_alloc
libffmpeg.so:avpicture_fill
libffmpeg.so:avpicture_free
libffmpeg.so:avpicture_get_size
libffmpeg.so:avpicture_layout
libffmpeg.so:avpriv_ac3_channel_layout_tab
libffmpeg.so:avpriv_ac3_parse_header
libffmpeg.so:avpriv_align_put_bits
libffmpeg.so:avpriv_alloc_fixed_dsp
libffmpeg.so:avpriv_bprint_to_extradata
libffmpeg.so:avpriv_codec_get_cap_skip_frame_fill_param
libffmpeg.so:avpriv_copy_bits
libffmpeg.so:avpriv_dict_set_timestamp
libffmpeg.so:avpriv_find_pix_fmt
libffmpeg.so:avpriv_find_start_code
libffmpeg.so:avpriv_float_dsp_alloc
libffmpeg.so:avpriv_get_gamma_from_trc
libffmpeg.so:avpriv_get_raw_pix_fmt_tags
libffmpeg.so:avpriv_get_trc_function_from_trc
libffmpeg.so:avpriv_io_delete
libffmpeg.so:avpriv_io_move
libffmpeg.so:avpriv_mpa_bitrate_tab
libffmpeg.so:avpriv_mpa_freq_tab
libffmpeg.so:avpriv_mpeg4audio_get_config
libffmpeg.so:avpriv_mpeg4audio_get_config2
libffmpeg.so:avpriv_mpeg4audio_sample_rates
libffmpeg.so:avpriv_mpegaudio_decode_header
libffmpeg.so:avpriv_new_chapter
libffmpeg.so:avpriv_open
libffmpeg.so:avpriv_pix_fmt_bps_avi
libffmpeg.so:avpriv_pix_fmt_bps_mov
libffmpeg.so:avpriv_put_string
libffmpeg.so:avpriv_register_devices
libffmpeg.so:avpriv_report_missing_feature
libffmpeg.so:avpriv_request_sample
libffmpeg.so:avpriv_scalarproduct_float_c
libffmpeg.so:avpriv_set_pts_info
libffmpeg.so:avpriv_set_systematic_pal2
libffmpeg.so:avpriv_slicethread_create
libffmpeg.so:avpriv_slicethread_execute
libffmpeg.so:avpriv_slicethread_free
libffmpeg.so:avpriv_split_xiph_headers
libffmpeg.so:avpriv_tempfile
libffmpeg.so:avpriv_toupper4
libffmpeg.so:avsubtitle_free
libffmpeg.so:avutil_configuration
libffmpeg.so:avutil_license
libffmpeg.so:avutil_version
libffmpeg.so:ff_aac_profiles
libffmpeg.so:ff_ac3_bap_tab
libffmpeg.so:ff_ac3_bitrate_tab
libffmpeg.so:ff_ac3_channels_tab
libffmpeg.so:ff_ac3_db_per_bit_tab
libffmpeg.so:ff_ac3_dec_channel_map
libffmpeg.so:ff_ac3_enc_channel_map
libffmpeg.so:ff_ac3_fast_decay_tab
libffmpeg.so:ff_ac3_fast_gain_tab
libffmpeg.so:ff_ac3_floor_tab
libffmpeg.so:ff_ac3_frame_size_tab
libffmpeg.so:ff_ac3_hearing_threshold_tab
libffmpeg.so:ff_ac3_log_add_tab
libffmpeg.so:ff_ac3_rematrix_band_tab
libffmpeg.so:ff_ac3_sample_rate_tab
libffmpeg.so:ff_ac3_slow_decay_tab
libffmpeg.so:ff_ac3_slow_gain_tab
libffmpeg.so:ff_ac3_window
libffmpeg.so:ff_add_cpb_side_data
libffmpeg.so:ff_add_index_entry
libffmpeg.so:ff_add_param_change
libffmpeg.so:ff_alloc_a53_sei
libffmpeg.so:ff_alloc_dir_entry
libffmpeg.so:ff_alloc_entries
libffmpeg.so:ff_alloc_extradata
libffmpeg.so:ff_alloc_packet
libffmpeg.so:ff_alloc_packet2
libffmpeg.so:ff_arib_caption_profiles
libffmpeg.so:ff_attach_decode_data
libffmpeg.so:ff_av1_profiles
libffmpeg.so:ff_avg_pixels16_xy2_mmx
libffmpeg.so:ff_avg_pixels8_xy2_mmx
libffmpeg.so:ff_avio_class
libffmpeg.so:ff_bprint_to_codecpar_extradata
libffmpeg.so:ff_brktimegm
libffmpeg.so:ff_bsf_child_class_next
libffmpeg.so:ff_bsf_get_packet
libffmpeg.so:ff_bsf_get_packet_ref
libffmpeg.so:ff_celt_alpha_coef
libffmpeg.so:ff_celt_band_end
libffmpeg.so:ff_celt_beta_coef
libffmpeg.so:ff_celt_bit_deinterleave
libffmpeg.so:ff_celt_bit_interleave
libffmpeg.so:ff_celt_bitalloc
libffmpeg.so:ff_celt_cache_bits
libffmpeg.so:ff_celt_cache_index
libffmpeg.so:ff_celt_coarse_energy_dist
libffmpeg.so:ff_celt_freq_bands
libffmpeg.so:ff_celt_freq_range
libffmpeg.so:ff_celt_hadamard_order
libffmpeg.so:ff_celt_log2_frac
libffmpeg.so:ff_celt_log_freq_range
libffmpeg.so:ff_celt_mean_energy
libffmpeg.so:ff_celt_model_alloc_trim
libffmpeg.so:ff_celt_model_energy_small
libffmpeg.so:ff_celt_model_spread
libffmpeg.so:ff_celt_model_tapset
libffmpeg.so:ff_celt_postfilter_taps
libffmpeg.so:ff_celt_pvq_u
libffmpeg.so:ff_celt_pvq_u_row
libffmpeg.so:ff_celt_qn_exp2
libffmpeg.so:ff_celt_quant_bands
libffmpeg.so:ff_celt_static_alloc
libffmpeg.so:ff_celt_static_caps
libffmpeg.so:ff_celt_tf_select
libffmpeg.so:ff_celt_window
libffmpeg.so:ff_celt_window2
libffmpeg.so:ff_check_interrupt
libffmpeg.so:ff_check_pixfmt_descriptors
libffmpeg.so:ff_choose_chroma_location
libffmpeg.so:ff_choose_timebase
libffmpeg.so:ff_codec_bmp_tags
libffmpeg.so:ff_codec_bmp_tags_unofficial
libffmpeg.so:ff_codec_get_id
libffmpeg.so:ff_codec_get_tag
libffmpeg.so:ff_codec_guid_get_id
libffmpeg.so:ff_codec_movaudio_tags
libffmpeg.so:ff_codec_movdata_tags
libffmpeg.so:ff_codec_movsubtitle_tags
libffmpeg.so:ff_codec_movvideo_tags
libffmpeg.so:ff_codec_open2_recursive
libffmpeg.so:ff_codec_wav_guids
libffmpeg.so:ff_codec_wav_tags
libffmpeg.so:ff_color_frame
libffmpeg.so:ff_combine_frame
libffmpeg.so:ff_compute_frame_duration
libffmpeg.so:ff_configure_buffers_for_index
libffmpeg.so:ff_copy_whiteblacklists
libffmpeg.so:ff_cos_1024
libffmpeg.so:ff_cos_1024_double
libffmpeg.so:ff_cos_1024_fixed
libffmpeg.so:ff_cos_1024_float
libffmpeg.so:ff_cos_128
libffmpeg.so:ff_cos_128_double
libffmpeg.so:ff_cos_128_fixed
libffmpeg.so:ff_cos_128_float
libffmpeg.so:ff_cos_131072
libffmpeg.so:ff_cos_131072_double
libffmpeg.so:ff_cos_131072_fixed
libffmpeg.so:ff_cos_131072_float
libffmpeg.so:ff_cos_16
libffmpeg.so:ff_cos_16384
libffmpeg.so:ff_cos_16384_double
libffmpeg.so:ff_cos_16384_fixed
libffmpeg.so:ff_cos_16384_float
libffmpeg.so:ff_cos_16_double
libffmpeg.so:ff_cos_16_fixed
libffmpeg.so:ff_cos_16_float
libffmpeg.so:ff_cos_2048
libffmpeg.so:ff_cos_2048_double
libffmpeg.so:ff_cos_2048_fixed
libffmpeg.so:ff_cos_2048_float
libffmpeg.so:ff_cos_256
libffmpeg.so:ff_cos_256_double
libffmpeg.so:ff_cos_256_fixed
libffmpeg.so:ff_cos_256_float
libffmpeg.so:ff_cos_32
libffmpeg.so:ff_cos_32768
libffmpeg.so:ff_cos_32768_double
libffmpeg.so:ff_cos_32768_fixed
libffmpeg.so:ff_cos_32768_float
libffmpeg.so:ff_cos_32_double
libffmpeg.so:ff_cos_32_fixed
libffmpeg.so:ff_cos_32_float
libffmpeg.so:ff_cos_4096
libffmpeg.so:ff_cos_4096_double
libffmpeg.so:ff_cos_4096_fixed
libffmpeg.so:ff_cos_4096_float
libffmpeg.so:ff_cos_512
libffmpeg.so:ff_cos_512_double
libffmpeg.so:ff_cos_512_fixed
libffmpeg.so:ff_cos_512_float
libffmpeg.so:ff_cos_53_double
libffmpeg.so:ff_cos_53_float
libffmpeg.so:ff_cos_64
libffmpeg.so:ff_cos_64_double
libffmpeg.so:ff_cos_64_fixed
libffmpeg.so:ff_cos_64_float
libffmpeg.so:ff_cos_65536
libffmpeg.so:ff_cos_65536_double
libffmpeg.so:ff_cos_65536_fixed
libffmpeg.so:ff_cos_65536_float
libffmpeg.so:ff_cos_8192
libffmpeg.so:ff_cos_8192_double
libffmpeg.so:ff_cos_8192_fixed
libffmpeg.so:ff_cos_8192_float
libffmpeg.so:ff_cos_tabs
libffmpeg.so:ff_cos_tabs_fixed
libffmpeg.so:ff_crc04C11DB7_update
libffmpeg.so:ff_crcA001_update
libffmpeg.so:ff_crcEDB88320_update
libffmpeg.so:ff_crop_tab
libffmpeg.so:ff_data_to_hex
libffmpeg.so:ff_dca_profiles
libffmpeg.so:ff_dct32_fixed
libffmpeg.so:ff_dct32_float
libffmpeg.so:ff_dct_end
libffmpeg.so:ff_dct_init
libffmpeg.so:ff_dct_init_x86
libffmpeg.so:ff_decode_bsfs_init
libffmpeg.so:ff_decode_bsfs_uninit
libffmpeg.so:ff_decode_frame_props
libffmpeg.so:ff_decode_get_hw_frames_ctx
libffmpeg.so:ff_decode_get_packet
libffmpeg.so:ff_dnxhd_profiles
libffmpeg.so:ff_dv_frame_profile
libffmpeg.so:ff_eac3_custom_channel_map_locations
libffmpeg.so:ff_eac3_default_chmap
libffmpeg.so:ff_eac3_default_cpl_band_struct
libffmpeg.so:ff_emulated_edge_mc_16
libffmpeg.so:ff_emulated_edge_mc_8
libffmpeg.so:ff_fetch_timestamp
libffmpeg.so:ff_fft_end
libffmpeg.so:ff_fft_end_fixed
libffmpeg.so:ff_fft_end_fixed_32
libffmpeg.so:ff_fft_init
libffmpeg.so:ff_fft_init_fixed
libffmpeg.so:ff_fft_init_fixed_32
libffmpeg.so:ff_fft_init_x86
libffmpeg.so:ff_fft_lut_init
libffmpeg.so:ff_fft_offsets_lut
libffmpeg.so:ff_find_last_ts
libffmpeg.so:ff_find_stream_index
libffmpeg.so:ff_fixed_dsp_init_x86
libffmpeg.so:ff_flac_blocksize_table
libffmpeg.so:ff_flac_codec
libffmpeg.so:ff_flac_decode_frame_header
libffmpeg.so:ff_flac_decoder
libffmpeg.so:ff_flac_demuxer
libffmpeg.so:ff_flac_get_max_frame_size
libffmpeg.so:ff_flac_is_extradata_valid
libffmpeg.so:ff_flac_parse_picture
libffmpeg.so:ff_flac_parse_streaminfo
libffmpeg.so:ff_flac_parser
libffmpeg.so:ff_flac_sample_rate_table
libffmpeg.so:ff_flac_set_channel_layout
libffmpeg.so:ff_flacdsp_init
libffmpeg.so:ff_flacdsp_init_x86
libffmpeg.so:ff_float_dsp_init_x86
libffmpeg.so:ff_format_io_close
libffmpeg.so:ff_format_output_open
libffmpeg.so:ff_format_set_url
libffmpeg.so:ff_frame_thread_free
libffmpeg.so:ff_frame_thread_init
libffmpeg.so:ff_free_stream
libffmpeg.so:ff_free_vlc
libffmpeg.so:ff_gen_search
libffmpeg.so:ff_generate_avci_extradata
libffmpeg.so:ff_get_bmp_header
libffmpeg.so:ff_get_buffer
libffmpeg.so:ff_get_chomp_line
libffmpeg.so:ff_get_cpu_flags_x86
libffmpeg.so:ff_get_cpu_max_align_x86
libffmpeg.so:ff_get_extradata
libffmpeg.so:ff_get_format
libffmpeg.so:ff_get_formatted_ntp_time
libffmpeg.so:ff_get_guid
libffmpeg.so:ff_get_line
libffmpeg.so:ff_get_packet_palette
libffmpeg.so:ff_get_pcm_codec_id
libffmpeg.so:ff_get_qtpalette
libffmpeg.so:ff_get_v_length
libffmpeg.so:ff_get_wav_header
libffmpeg.so:ff_golomb_vlc_len
libffmpeg.so:ff_guess_coded_bitrate
libffmpeg.so:ff_h264_pred_init
libffmpeg.so:ff_h264_pred_init_x86
libffmpeg.so:ff_h264_profiles
libffmpeg.so:ff_hevc_profiles
libffmpeg.so:ff_hex_to_data
libffmpeg.so:ff_hpeldsp_init
libffmpeg.so:ff_hpeldsp_init_x86
libffmpeg.so:ff_hpeldsp_vp3_init_x86
libffmpeg.so:ff_hwframe_map_create
libffmpeg.so:ff_hwframe_map_replace
libffmpeg.so:ff_id3v1_genre_str
libffmpeg.so:ff_id3v1_read
libffmpeg.so:ff_id3v2_34_metadata_conv
libffmpeg.so:ff_id3v2_3_tags
libffmpeg.so:ff_id3v2_4_metadata_conv
libffmpeg.so:ff_id3v2_4_tags
libffmpeg.so:ff_id3v2_free_extra_meta
libffmpeg.so:ff_id3v2_match
libffmpeg.so:ff_id3v2_mime_tags
libffmpeg.so:ff_id3v2_parse_apic
libffmpeg.so:ff_id3v2_parse_chapters
libffmpeg.so:ff_id3v2_parse_priv
libffmpeg.so:ff_id3v2_parse_priv_dict
libffmpeg.so:ff_id3v2_picture_types
libffmpeg.so:ff_id3v2_read
libffmpeg.so:ff_id3v2_read_dict
libffmpeg.so:ff_id3v2_tag_len
libffmpeg.so:ff_id3v2_tags
libffmpeg.so:ff_image_copy_plane_uc_from_x86
libffmpeg.so:ff_imdct36_blocks_fixed
libffmpeg.so:ff_imdct36_blocks_float
libffmpeg.so:ff_imdct_calc_c
libffmpeg.so:ff_imdct_calc_c_fixed
libffmpeg.so:ff_imdct_calc_c_fixed_32
libffmpeg.so:ff_imdct_half_c
libffmpeg.so:ff_imdct_half_c_fixed
libffmpeg.so:ff_imdct_half_c_fixed_32
libffmpeg.so:ff_index_search_timestamp
libffmpeg.so:ff_init_ff_cos_tabs
libffmpeg.so:ff_init_ff_cos_tabs_fixed
libffmpeg.so:ff_init_ff_cos_tabs_fixed_32
libffmpeg.so:ff_init_lls_x86
libffmpeg.so:ff_init_mpadsp_tabs_fixed
libffmpeg.so:ff_init_mpadsp_tabs_float
libffmpeg.so:ff_init_vlc_sparse
libffmpeg.so:ff_int_from_list_or_default
libffmpeg.so:ff_interleave_add_packet
libffmpeg.so:ff_interleave_packet_per_dts
libffmpeg.so:ff_interleaved_dirac_golomb_vlc_code
libffmpeg.so:ff_interleaved_golomb_vlc_len
libffmpeg.so:ff_interleaved_peek
libffmpeg.so:ff_interleaved_se_golomb_vlc_code
libffmpeg.so:ff_interleaved_ue_golomb_vlc_code
libffmpeg.so:ff_inverse
libffmpeg.so:ff_is_http_proto
libffmpeg.so:ff_jpeg2000_profiles
libffmpeg.so:ff_libopus_decoder
libffmpeg.so:ff_list_bsf
libffmpeg.so:ff_lock_avformat
libffmpeg.so:ff_log2_run
libffmpeg.so:ff_log2_tab
libffmpeg.so:ff_make_absolute_url
libffmpeg.so:ff_match_2uint16
libffmpeg.so:ff_matroska_demuxer
libffmpeg.so:ff_matroska_video_stereo_mode
libffmpeg.so:ff_matroska_video_stereo_plane
libffmpeg.so:ff_mdct_calc_c
libffmpeg.so:ff_mdct_calc_c_fixed
libffmpeg.so:ff_mdct_calc_c_fixed_32
libffmpeg.so:ff_mdct_calcw_c
libffmpeg.so:ff_mdct_end
libffmpeg.so:ff_mdct_end_fixed
libffmpeg.so:ff_mdct_end_fixed_32
libffmpeg.so:ff_mdct_init
libffmpeg.so:ff_mdct_init_fixed
libffmpeg.so:ff_mdct_init_fixed_32
libffmpeg.so:ff_mdct_win_fixed
libffmpeg.so:ff_mdct_win_float
libffmpeg.so:ff_metadata_conv
libffmpeg.so:ff_metadata_conv_ctx
libffmpeg.so:ff_mjpeg_encode_huffman_close
libffmpeg.so:ff_mjpeg_encode_huffman_init
libffmpeg.so:ff_mjpeg_profiles
libffmpeg.so:ff_mjpegenc_huffman_compute_bits
libffmpeg.so:ff_mkdir_p
libffmpeg.so:ff_mkv_codec_tags
libffmpeg.so:ff_mkv_image_mime_tags
libffmpeg.so:ff_mkv_metadata_conv
libffmpeg.so:ff_mkv_mime_tags
libffmpeg.so:ff_mkv_stereo3d_conv
libffmpeg.so:ff_mov_demuxer
libffmpeg.so:ff_mov_get_channel_layout
libffmpeg.so:ff_mov_get_channel_layout_tag
libffmpeg.so:ff_mov_iso639_to_lang
libffmpeg.so:ff_mov_lang_to_iso639
libffmpeg.so:ff_mov_read_chan
libffmpeg.so:ff_mov_read_esds
libffmpeg.so:ff_mov_read_stsd_entries
libffmpeg.so:ff_mov_write_chan
libffmpeg.so:ff_mp3_decoder
libffmpeg.so:ff_mp3_demuxer
libffmpeg.so:ff_mp4_obj_type
libffmpeg.so:ff_mp4_parse_es_descr
libffmpeg.so:ff_mp4_read_dec_config_descr
libffmpeg.so:ff_mp4_read_descr
libffmpeg.so:ff_mp4_read_descr_len
libffmpeg.so:ff_mpa_alloc_tables
libffmpeg.so:ff_mpa_decode_header
libffmpeg.so:ff_mpa_enwindow
libffmpeg.so:ff_mpa_l2_select_table
libffmpeg.so:ff_mpa_quant_bits
libffmpeg.so:ff_mpa_quant_steps
libffmpeg.so:ff_mpa_sblimit_table
libffmpeg.so:ff_mpa_synth_filter_fixed
libffmpeg.so:ff_mpa_synth_filter_float
libffmpeg.so:ff_mpa_synth_init_fixed
libffmpeg.so:ff_mpa_synth_init_float
libffmpeg.so:ff_mpa_synth_window_fixed
libffmpeg.so:ff_mpa_synth_window_float
libffmpeg.so:ff_mpadsp_apply_window_fixed
libffmpeg.so:ff_mpadsp_apply_window_float
libffmpeg.so:ff_mpadsp_init
libffmpeg.so:ff_mpadsp_init_x86
libffmpeg.so:ff_mpeg12_find_best_frame_rate
libffmpeg.so:ff_mpeg12_frame_rate_tab
libffmpeg.so:ff_mpeg2_video_profiles
libffmpeg.so:ff_mpeg4_video_profiles
libffmpeg.so:ff_mpeg4audio_channels
libffmpeg.so:ff_mpeg4audio_get_config_gb
libffmpeg.so:ff_mpeg4video_split
libffmpeg.so:ff_mpegaudio_parser
libffmpeg.so:ff_ntp_time
libffmpeg.so:ff_null_bsf
libffmpeg.so:ff_ogg_demuxer
libffmpeg.so:ff_ogm_audio_codec
libffmpeg.so:ff_ogm_old_codec
libffmpeg.so:ff_ogm_text_codec
libffmpeg.so:ff_ogm_video_codec
libffmpeg.so:ff_old_flac_codec
libffmpeg.so:ff_opus_codec
libffmpeg.so:ff_opus_default_coupled_streams
libffmpeg.so:ff_opus_error_to_averror
libffmpeg.so:ff_opus_parse_extradata
libffmpeg.so:ff_opus_parse_packet
libffmpeg.so:ff_opus_parser
libffmpeg.so:ff_opus_rc_dec_cdf
libffmpeg.so:ff_opus_rc_dec_init
libffmpeg.so:ff_opus_rc_dec_laplace
libffmpeg.so:ff_opus_rc_dec_log
libffmpeg.so:ff_opus_rc_dec_raw_init
libffmpeg.so:ff_opus_rc_dec_uint
libffmpeg.so:ff_opus_rc_dec_uint_step
libffmpeg.so:ff_opus_rc_dec_uint_tri
libffmpeg.so:ff_opus_rc_enc_cdf
libffmpeg.so:ff_opus_rc_enc_end
libffmpeg.so:ff_opus_rc_enc_init
libffmpeg.so:ff_opus_rc_enc_laplace
libffmpeg.so:ff_opus_rc_enc_log
libffmpeg.so:ff_opus_rc_enc_uint
libffmpeg.so:ff_opus_rc_enc_uint_step
libffmpeg.so:ff_opus_rc_enc_uint_tri
libffmpeg.so:ff_opus_rc_get_raw
libffmpeg.so:ff_opus_rc_put_raw
libffmpeg.so:ff_packet_list_free
libffmpeg.so:ff_packet_list_get
libffmpeg.so:ff_packet_list_put
libffmpeg.so:ff_parse_close
libffmpeg.so:ff_parse_creation_time_metadata
libffmpeg.so:ff_parse_key_value
libffmpeg.so:ff_pb_0
libffmpeg.so:ff_pb_1
libffmpeg.so:ff_pb_15
libffmpeg.so:ff_pb_2
libffmpeg.so:ff_pb_3
libffmpeg.so:ff_pb_80
libffmpeg.so:ff_pb_FC
libffmpeg.so:ff_pb_FE
libffmpeg.so:ff_pcm_alaw_decoder
libffmpeg.so:ff_pcm_f32le_decoder
libffmpeg.so:ff_pcm_mulaw_decoder
libffmpeg.so:ff_pcm_read_packet
libffmpeg.so:ff_pcm_read_seek
libffmpeg.so:ff_pcm_s16be_decoder
libffmpeg.so:ff_pcm_s16le_decoder
libffmpeg.so:ff_pcm_s24be_decoder
libffmpeg.so:ff_pcm_s24le_decoder
libffmpeg.so:ff_pcm_s32le_decoder
libffmpeg.so:ff_pcm_u8_decoder
libffmpeg.so:ff_pd_1
libffmpeg.so:ff_pd_16
libffmpeg.so:ff_pd_32
libffmpeg.so:ff_pd_65535
libffmpeg.so:ff_pd_8192
libffmpeg.so:ff_prores_profiles
libffmpeg.so:ff_ps_neg
libffmpeg.so:ff_put_pixels16_xy2_mmx
libffmpeg.so:ff_put_pixels8_xy2_mmx
libffmpeg.so:ff_put_v
libffmpeg.so:ff_pw_1
libffmpeg.so:ff_pw_1019
libffmpeg.so:ff_pw_1023
libffmpeg.so:ff_pw_1024
libffmpeg.so:ff_pw_128
libffmpeg.so:ff_pw_15
libffmpeg.so:ff_pw_16
libffmpeg.so:ff_pw_17
libffmpeg.so:ff_pw_18
libffmpeg.so:ff_pw_2
libffmpeg.so:ff_pw_20
libffmpeg.so:ff_pw_2048
libffmpeg.so:ff_pw_255
libffmpeg.so:ff_pw_256
libffmpeg.so:ff_pw_3
libffmpeg.so:ff_pw_32
libffmpeg.so:ff_pw_4
libffmpeg.so:ff_pw_4095
libffmpeg.so:ff_pw_4096
libffmpeg.so:ff_pw_42
libffmpeg.so:ff_pw_5
libffmpeg.so:ff_pw_512
libffmpeg.so:ff_pw_53
libffmpeg.so:ff_pw_64
libffmpeg.so:ff_pw_8
libffmpeg.so:ff_pw_8192
libffmpeg.so:ff_pw_9
libffmpeg.so:ff_pw_96
libffmpeg.so:ff_pw_m1
libffmpeg.so:ff_raw_audio_read_header
libffmpeg.so:ff_raw_data_read_header
libffmpeg.so:ff_raw_options
libffmpeg.so:ff_raw_pix_fmt_tags
libffmpeg.so:ff_raw_read_partial_packet
libffmpeg.so:ff_raw_subtitle_read_header
libffmpeg.so:ff_raw_video_read_header
libffmpeg.so:ff_rawvideo_options
libffmpeg.so:ff_rdft_end
libffmpeg.so:ff_rdft_init
libffmpeg.so:ff_read_frame_flush
libffmpeg.so:ff_read_line_to_bprint
libffmpeg.so:ff_read_line_to_bprint_overwrite
libffmpeg.so:ff_read_packet
libffmpeg.so:ff_read_riff_info
libffmpeg.so:ff_reduce_index
libffmpeg.so:ff_reget_buffer
libffmpeg.so:ff_replaygain_export
libffmpeg.so:ff_replaygain_export_raw
libffmpeg.so:ff_reset_entries
libffmpeg.so:ff_reverse
libffmpeg.so:ff_rfps_add_frame
libffmpeg.so:ff_rfps_calculate
libffmpeg.so:ff_riff_info_conv
libffmpeg.so:ff_rm_reorder_sipr_data
libffmpeg.so:ff_sbc_profiles
libffmpeg.so:ff_se_golomb_vlc_code
libffmpeg.so:ff_seek_frame_binary
libffmpeg.so:ff_set_dimensions
libffmpeg.so:ff_set_sar
libffmpeg.so:ff_side_data_set_encoder_stats
libffmpeg.so:ff_side_data_update_matrix_encoding
libffmpeg.so:ff_silk_cosine
libffmpeg.so:ff_silk_lsf_codebook_nbmb
libffmpeg.so:ff_silk_lsf_codebook_wb
libffmpeg.so:ff_silk_lsf_min_spacing_nbmb
libffmpeg.so:ff_silk_lsf_min_spacing_wb
libffmpeg.so:ff_silk_lsf_ordering_nbmb
libffmpeg.so:ff_silk_lsf_ordering_wb
libffmpeg.so:ff_silk_lsf_pred_weights_nbmb
libffmpeg.so:ff_silk_lsf_pred_weights_wb
libffmpeg.so:ff_silk_lsf_s2_model_sel_nbmb
libffmpeg.so:ff_silk_lsf_s2_model_sel_wb
libffmpeg.so:ff_silk_lsf_weight_sel_nbmb
libffmpeg.so:ff_silk_lsf_weight_sel_wb
libffmpeg.so:ff_silk_ltp_filter0_taps
libffmpeg.so:ff_silk_ltp_filter1_taps
libffmpeg.so:ff_silk_ltp_filter2_taps
libffmpeg.so:ff_silk_ltp_scale_factor
libffmpeg.so:ff_silk_model_exc_rate
libffmpeg.so:ff_silk_model_excitation_lsb
libffmpeg.so:ff_silk_model_excitation_sign
libffmpeg.so:ff_silk_model_frame_type_active
libffmpeg.so:ff_silk_model_frame_type_inactive
libffmpeg.so:ff_silk_model_gain_delta
libffmpeg.so:ff_silk_model_gain_highbits
libffmpeg.so:ff_silk_model_gain_lowbits
libffmpeg.so:ff_silk_model_lcg_seed
libffmpeg.so:ff_silk_model_lsf_interpolation_offset
libffmpeg.so:ff_silk_model_lsf_s1
libffmpeg.so:ff_silk_model_lsf_s2
libffmpeg.so:ff_silk_model_lsf_s2_ext
libffmpeg.so:ff_silk_model_ltp_filter
libffmpeg.so:ff_silk_model_ltp_filter0_sel
libffmpeg.so:ff_silk_model_ltp_filter1_sel
libffmpeg.so:ff_silk_model_ltp_filter2_sel
libffmpeg.so:ff_silk_model_ltp_scale_index
libffmpeg.so:ff_silk_model_mid_only
libffmpeg.so:ff_silk_model_pitch_contour_mbwb10ms
libffmpeg.so:ff_silk_model_pitch_contour_mbwb20ms
libffmpeg.so:ff_silk_model_pitch_contour_nb10ms
libffmpeg.so:ff_silk_model_pitch_contour_nb20ms
libffmpeg.so:ff_silk_model_pitch_delta
libffmpeg.so:ff_silk_model_pitch_highbits
libffmpeg.so:ff_silk_model_pitch_lowbits_mb
libffmpeg.so:ff_silk_model_pitch_lowbits_nb
libffmpeg.so:ff_silk_model_pitch_lowbits_wb
libffmpeg.so:ff_silk_model_pulse_count
libffmpeg.so:ff_silk_model_pulse_location
libffmpeg.so:ff_silk_model_stereo_s1
libffmpeg.so:ff_silk_model_stereo_s2
libffmpeg.so:ff_silk_model_stereo_s3
libffmpeg.so:ff_silk_pitch_max_lag
libffmpeg.so:ff_silk_pitch_min_lag
libffmpeg.so:ff_silk_pitch_offset_mbwb10ms
libffmpeg.so:ff_silk_pitch_offset_mbwb20ms
libffmpeg.so:ff_silk_pitch_offset_nb10ms
libffmpeg.so:ff_silk_pitch_offset_nb20ms
libffmpeg.so:ff_silk_pitch_scale
libffmpeg.so:ff_silk_quant_offset
libffmpeg.so:ff_silk_shell_blocks
libffmpeg.so:ff_silk_stereo_interp_len
libffmpeg.so:ff_silk_stereo_weights
libffmpeg.so:ff_sipr_subpk_size
libffmpeg.so:ff_skeleton_codec
libffmpeg.so:ff_slice_thread_execute_with_mainfunc
libffmpeg.so:ff_slice_thread_free
libffmpeg.so:ff_slice_thread_init
libffmpeg.so:ff_sqrt_tab
libffmpeg.so:ff_standardize_creation_time
libffmpeg.so:ff_stream_add_bitstream_filter
libffmpeg.so:ff_stream_encode_params_copy
libffmpeg.so:ff_theora_codec
libffmpeg.so:ff_theora_decoder
libffmpeg.so:ff_thread_await_progress
libffmpeg.so:ff_thread_await_progress2
libffmpeg.so:ff_thread_can_start_frame
libffmpeg.so:ff_thread_decode_frame
libffmpeg.so:ff_thread_finish_setup
libffmpeg.so:ff_thread_flush
libffmpeg.so:ff_thread_free
libffmpeg.so:ff_thread_get_buffer
libffmpeg.so:ff_thread_get_format
libffmpeg.so:ff_thread_init
libffmpeg.so:ff_thread_ref_frame
libffmpeg.so:ff_thread_release_buffer
libffmpeg.so:ff_thread_report_progress
libffmpeg.so:ff_thread_report_progress2
libffmpeg.so:ff_tx_gen_compound_mapping
libffmpeg.so:ff_tx_gen_ptwo_revtab
libffmpeg.so:ff_tx_init_mdct_fft_double
libffmpeg.so:ff_tx_init_mdct_fft_float
libffmpeg.so:ff_ue_golomb_len
libffmpeg.so:ff_ue_golomb_vlc_code
libffmpeg.so:ff_unlock_avformat
libffmpeg.so:ff_update_cur_dts
libffmpeg.so:ff_url_join
libffmpeg.so:ff_urlcontext_child_class_next
libffmpeg.so:ff_vc1_profiles
libffmpeg.so:ff_videodsp_init
libffmpeg.so:ff_videodsp_init_x86
libffmpeg.so:ff_vorbis_channel_layout_offsets
libffmpeg.so:ff_vorbis_channel_layouts
libffmpeg.so:ff_vorbis_codec
libffmpeg.so:ff_vorbis_comment
libffmpeg.so:ff_vorbis_decoder
libffmpeg.so:ff_vorbis_encoding_channel_layout_offsets
libffmpeg.so:ff_vorbis_floor1_inverse_db_table
libffmpeg.so:ff_vorbis_floor1_render_list
libffmpeg.so:ff_vorbis_inverse_coupling
libffmpeg.so:ff_vorbis_len2vlc
libffmpeg.so:ff_vorbis_nth_root
libffmpeg.so:ff_vorbis_parser
libffmpeg.so:ff_vorbis_ready_floor1_list
libffmpeg.so:ff_vorbis_stream_comment
libffmpeg.so:ff_vorbis_vwin
libffmpeg.so:ff_vorbiscomment_length
libffmpeg.so:ff_vorbiscomment_metadata_conv
libffmpeg.so:ff_vorbiscomment_write
libffmpeg.so:ff_vorbisdsp_init
libffmpeg.so:ff_vorbisdsp_init_x86
libffmpeg.so:ff_vp3_decoder
libffmpeg.so:ff_vp3_parser
libffmpeg.so:ff_vp3dsp_h_loop_filter_12
libffmpeg.so:ff_vp3dsp_idct10_add
libffmpeg.so:ff_vp3dsp_idct10_put
libffmpeg.so:ff_vp3dsp_init
libffmpeg.so:ff_vp3dsp_init_x86
libffmpeg.so:ff_vp3dsp_set_bounding_values
libffmpeg.so:ff_vp3dsp_v_loop_filter_12
libffmpeg.so:ff_vp56_init_range_decoder
libffmpeg.so:ff_vp56_norm_shift
libffmpeg.so:ff_vp78dsp_init
libffmpeg.so:ff_vp78dsp_init_x86
libffmpeg.so:ff_vp8_codec
libffmpeg.so:ff_vp8_dct_cat_prob
libffmpeg.so:ff_vp8_decode_frame
libffmpeg.so:ff_vp8_decode_free
libffmpeg.so:ff_vp8_decode_init
libffmpeg.so:ff_vp8_decoder
libffmpeg.so:ff_vp8_parser
libffmpeg.so:ff_vp8dsp_init
libffmpeg.so:ff_vp8dsp_init_x86
libffmpeg.so:ff_vp9_parser
libffmpeg.so:ff_vp9_profiles
libffmpeg.so:ff_w_tab_sr
libffmpeg.so:ff_wav_codec_get_id
libffmpeg.so:ff_wav_demuxer
libffmpeg.so:ff_webm_codec_tags
libffmpeg.so:ff_webm_dash_manifest_demuxer
libffmpeg.so:ff_write_chained
libffmpeg.so:ff_zigzag_direct
libffmpeg.so:ff_zigzag_scan
libffmpeg.so:ffio_close_null_buf
libffmpeg.so:ffio_ensure_seekback
libffmpeg.so:ffio_fdopen
libffmpeg.so:ffio_fill
libffmpeg.so:ffio_free_dyn_buf
libffmpeg.so:ffio_get_checksum
libffmpeg.so:ffio_geturlcontext
libffmpeg.so:ffio_init_checksum
libffmpeg.so:ffio_init_context
libffmpeg.so:ffio_limit
libffmpeg.so:ffio_open_dyn_packet_buf
libffmpeg.so:ffio_open_null_buf
libffmpeg.so:ffio_open_whitelist
libffmpeg.so:ffio_read_indirect
libffmpeg.so:ffio_read_size
libffmpeg.so:ffio_read_varlen
libffmpeg.so:ffio_realloc_buf
libffmpeg.so:ffio_rewind_with_probe_data
libffmpeg.so:ffio_set_buf_size
libffmpeg.so:ffurl_accept
libffmpeg.so:ffurl_alloc
libffmpeg.so:ffurl_close
libffmpeg.so:ffurl_closep
libffmpeg.so:ffurl_connect
libffmpeg.so:ffurl_context_class
libffmpeg.so:ffurl_get_file_handle
libffmpeg.so:ffurl_get_multi_file_handle
libffmpeg.so:ffurl_get_protocols
libffmpeg.so:ffurl_get_short_seek
libffmpeg.so:ffurl_handshake
libffmpeg.so:ffurl_open
libffmpeg.so:ffurl_open_whitelist
libffmpeg.so:ffurl_read
libffmpeg.so:ffurl_read_complete
libffmpeg.so:ffurl_seek
libffmpeg.so:ffurl_shutdown
libffmpeg.so:ffurl_size
libffmpeg.so:ffurl_write
libnode.so:
libnode.so:ACCESS_DESCRIPTION_free
libnode.so:ACCESS_DESCRIPTION_it
libnode.so:ACCESS_DESCRIPTION_new
libnode.so:ADMISSIONS_free
libnode.so:ADMISSIONS_get0_admissionAuthority
libnode.so:ADMISSIONS_get0_namingAuthority
libnode.so:ADMISSIONS_get0_professionInfos
libnode.so:ADMISSIONS_it
libnode.so:ADMISSIONS_new
libnode.so:ADMISSIONS_set0_admissionAuthority
libnode.so:ADMISSIONS_set0_namingAuthority
libnode.so:ADMISSIONS_set0_professionInfos
libnode.so:ADMISSION_SYNTAX_free
libnode.so:ADMISSION_SYNTAX_get0_admissionAuthority
libnode.so:ADMISSION_SYNTAX_get0_contentsOfAdmissions
libnode.so:ADMISSION_SYNTAX_it
libnode.so:ADMISSION_SYNTAX_new
libnode.so:ADMISSION_SYNTAX_set0_admissionAuthority
libnode.so:ADMISSION_SYNTAX_set0_contentsOfAdmissions
libnode.so:AES_bi_ige_encrypt
libnode.so:AES_cbc_encrypt
libnode.so:AES_cfb128_encrypt
libnode.so:AES_cfb1_encrypt
libnode.so:AES_cfb8_encrypt
libnode.so:AES_decrypt
libnode.so:AES_ecb_encrypt
libnode.so:AES_encrypt
libnode.so:AES_ige_encrypt
libnode.so:AES_ofb128_encrypt
libnode.so:AES_options
libnode.so:AES_set_decrypt_key
libnode.so:AES_set_encrypt_key
libnode.so:AES_unwrap_key
libnode.so:AES_wrap_key
libnode.so:ASIdOrRange_free
libnode.so:ASIdOrRange_it
libnode.so:ASIdOrRange_new
libnode.so:ASIdentifierChoice_free
libnode.so:ASIdentifierChoice_it
libnode.so:ASIdentifierChoice_new
libnode.so:ASIdentifiers_free
libnode.so:ASIdentifiers_it
libnode.so:ASIdentifiers_new
libnode.so:ASN1_ANY_it
libnode.so:ASN1_BIT_STRING_check
libnode.so:ASN1_BIT_STRING_free
libnode.so:ASN1_BIT_STRING_get_bit
libnode.so:ASN1_BIT_STRING_it
libnode.so:ASN1_BIT_STRING_name_print
libnode.so:ASN1_BIT_STRING_new
libnode.so:ASN1_BIT_STRING_num_asc
libnode.so:ASN1_BIT_STRING_set
libnode.so:ASN1_BIT_STRING_set_asc
libnode.so:ASN1_BIT_STRING_set_bit
libnode.so:ASN1_BMPSTRING_free
libnode.so:ASN1_BMPSTRING_it
libnode.so:ASN1_BMPSTRING_new
libnode.so:ASN1_BOOLEAN_it
libnode.so:ASN1_ENUMERATED_free
libnode.so:ASN1_ENUMERATED_get
libnode.so:ASN1_ENUMERATED_get_int64
libnode.so:ASN1_ENUMERATED_it
libnode.so:ASN1_ENUMERATED_new
libnode.so:ASN1_ENUMERATED_set
libnode.so:ASN1_ENUMERATED_set_int64
libnode.so:ASN1_ENUMERATED_to_BN
libnode.so:ASN1_FBOOLEAN_it
libnode.so:ASN1_GENERALIZEDTIME_adj
libnode.so:ASN1_GENERALIZEDTIME_check
libnode.so:ASN1_GENERALIZEDTIME_free
libnode.so:ASN1_GENERALIZEDTIME_it
libnode.so:ASN1_GENERALIZEDTIME_new
libnode.so:ASN1_GENERALIZEDTIME_print
libnode.so:ASN1_GENERALIZEDTIME_set
libnode.so:ASN1_GENERALIZEDTIME_set_string
libnode.so:ASN1_GENERALSTRING_free
libnode.so:ASN1_GENERALSTRING_it
libnode.so:ASN1_GENERALSTRING_new
libnode.so:ASN1_IA5STRING_free
libnode.so:ASN1_IA5STRING_it
libnode.so:ASN1_IA5STRING_new
libnode.so:ASN1_INTEGER_cmp
libnode.so:ASN1_INTEGER_dup
libnode.so:ASN1_INTEGER_free
libnode.so:ASN1_INTEGER_get
libnode.so:ASN1_INTEGER_get_int64
libnode.so:ASN1_INTEGER_get_uint64
libnode.so:ASN1_INTEGER_it
libnode.so:ASN1_INTEGER_new
libnode.so:ASN1_INTEGER_set
libnode.so:ASN1_INTEGER_set_int64
libnode.so:ASN1_INTEGER_set_uint64
libnode.so:ASN1_INTEGER_to_BN
libnode.so:ASN1_ITEM_get
libnode.so:ASN1_ITEM_lookup
libnode.so:ASN1_NULL_free
libnode.so:ASN1_NULL_it
libnode.so:ASN1_NULL_new
libnode.so:ASN1_OBJECT_create
libnode.so:ASN1_OBJECT_free
libnode.so:ASN1_OBJECT_it
libnode.so:ASN1_OBJECT_new
libnode.so:ASN1_OCTET_STRING_NDEF_it
libnode.so:ASN1_OCTET_STRING_cmp
libnode.so:ASN1_OCTET_STRING_dup
libnode.so:ASN1_OCTET_STRING_free
libnode.so:ASN1_OCTET_STRING_it
libnode.so:ASN1_OCTET_STRING_new
libnode.so:ASN1_OCTET_STRING_set
libnode.so:ASN1_PCTX_free
libnode.so:ASN1_PCTX_get_cert_flags
libnode.so:ASN1_PCTX_get_flags
libnode.so:ASN1_PCTX_get_nm_flags
libnode.so:ASN1_PCTX_get_oid_flags
libnode.so:ASN1_PCTX_get_str_flags
libnode.so:ASN1_PCTX_new
libnode.so:ASN1_PCTX_set_cert_flags
libnode.so:ASN1_PCTX_set_flags
libnode.so:ASN1_PCTX_set_nm_flags
libnode.so:ASN1_PCTX_set_oid_flags
libnode.so:ASN1_PCTX_set_str_flags
libnode.so:ASN1_PRINTABLESTRING_free
libnode.so:ASN1_PRINTABLESTRING_it
libnode.so:ASN1_PRINTABLESTRING_new
libnode.so:ASN1_PRINTABLE_free
libnode.so:ASN1_PRINTABLE_it
libnode.so:ASN1_PRINTABLE_new
libnode.so:ASN1_PRINTABLE_type
libnode.so:ASN1_SCTX_free
libnode.so:ASN1_SCTX_get_app_data
libnode.so:ASN1_SCTX_get_flags
libnode.so:ASN1_SCTX_get_item
libnode.so:ASN1_SCTX_get_template
libnode.so:ASN1_SCTX_new
libnode.so:ASN1_SCTX_set_app_data
libnode.so:ASN1_SEQUENCE_ANY_it
libnode.so:ASN1_SEQUENCE_it
libnode.so:ASN1_SET_ANY_it
libnode.so:ASN1_STRING_TABLE_add
libnode.so:ASN1_STRING_TABLE_cleanup
libnode.so:ASN1_STRING_TABLE_get
libnode.so:ASN1_STRING_clear_free
libnode.so:ASN1_STRING_cmp
libnode.so:ASN1_STRING_copy
libnode.so:ASN1_STRING_data
libnode.so:ASN1_STRING_dup
libnode.so:ASN1_STRING_free
libnode.so:ASN1_STRING_get0_data
libnode.so:ASN1_STRING_get_default_mask
libnode.so:ASN1_STRING_length
libnode.so:ASN1_STRING_length_set
libnode.so:ASN1_STRING_new
libnode.so:ASN1_STRING_print
libnode.so:ASN1_STRING_print_ex
libnode.so:ASN1_STRING_print_ex_fp
libnode.so:ASN1_STRING_set
libnode.so:ASN1_STRING_set0
libnode.so:ASN1_STRING_set_by_NID
libnode.so:ASN1_STRING_set_default_mask
libnode.so:ASN1_STRING_set_default_mask_asc
libnode.so:ASN1_STRING_to_UTF8
libnode.so:ASN1_STRING_type
libnode.so:ASN1_STRING_type_new
libnode.so:ASN1_T61STRING_free
libnode.so:ASN1_T61STRING_it
libnode.so:ASN1_T61STRING_new
libnode.so:ASN1_TBOOLEAN_it
libnode.so:ASN1_TIME_adj
libnode.so:ASN1_TIME_check
libnode.so:ASN1_TIME_cmp_time_t
libnode.so:ASN1_TIME_compare
libnode.so:ASN1_TIME_diff
libnode.so:ASN1_TIME_free
libnode.so:ASN1_TIME_it
libnode.so:ASN1_TIME_new
libnode.so:ASN1_TIME_normalize
libnode.so:ASN1_TIME_print
libnode.so:ASN1_TIME_set
libnode.so:ASN1_TIME_set_string
libnode.so:ASN1_TIME_set_string_X509
libnode.so:ASN1_TIME_to_generalizedtime
libnode.so:ASN1_TIME_to_tm
libnode.so:ASN1_TYPE_cmp
libnode.so:ASN1_TYPE_free
libnode.so:ASN1_TYPE_get
libnode.so:ASN1_TYPE_get_int_octetstring
libnode.so:ASN1_TYPE_get_octetstring
libnode.so:ASN1_TYPE_new
libnode.so:ASN1_TYPE_pack_sequence
libnode.so:ASN1_TYPE_set
libnode.so:ASN1_TYPE_set1
libnode.so:ASN1_TYPE_set_int_octetstring
libnode.so:ASN1_TYPE_set_octetstring
libnode.so:ASN1_TYPE_unpack_sequence
libnode.so:ASN1_UNIVERSALSTRING_free
libnode.so:ASN1_UNIVERSALSTRING_it
libnode.so:ASN1_UNIVERSALSTRING_new
libnode.so:ASN1_UNIVERSALSTRING_to_string
libnode.so:ASN1_UTCTIME_adj
libnode.so:ASN1_UTCTIME_check
libnode.so:ASN1_UTCTIME_cmp_time_t
libnode.so:ASN1_UTCTIME_free
libnode.so:ASN1_UTCTIME_it
libnode.so:ASN1_UTCTIME_new
libnode.so:ASN1_UTCTIME_print
libnode.so:ASN1_UTCTIME_set
libnode.so:ASN1_UTCTIME_set_string
libnode.so:ASN1_UTF8STRING_free
libnode.so:ASN1_UTF8STRING_it
libnode.so:ASN1_UTF8STRING_new
libnode.so:ASN1_VISIBLESTRING_free
libnode.so:ASN1_VISIBLESTRING_it
libnode.so:ASN1_VISIBLESTRING_new
libnode.so:ASN1_add_oid_module
libnode.so:ASN1_add_stable_module
libnode.so:ASN1_bn_print
libnode.so:ASN1_buf_print
libnode.so:ASN1_check_infinite_end
libnode.so:ASN1_const_check_infinite_end
libnode.so:ASN1_d2i_bio
libnode.so:ASN1_d2i_fp
libnode.so:ASN1_digest
libnode.so:ASN1_dup
libnode.so:ASN1_generate_nconf
libnode.so:ASN1_generate_v3
libnode.so:ASN1_get_object
libnode.so:ASN1_i2d_bio
libnode.so:ASN1_i2d_fp
libnode.so:ASN1_item_d2i
libnode.so:ASN1_item_d2i_bio
libnode.so:ASN1_item_d2i_fp
libnode.so:ASN1_item_digest
libnode.so:ASN1_item_dup
libnode.so:ASN1_item_ex_d2i
libnode.so:ASN1_item_ex_free
libnode.so:ASN1_item_ex_i2d
libnode.so:ASN1_item_ex_new
libnode.so:ASN1_item_free
libnode.so:ASN1_item_i2d
libnode.so:ASN1_item_i2d_bio
libnode.so:ASN1_item_i2d_fp
libnode.so:ASN1_item_ndef_i2d
libnode.so:ASN1_item_new
libnode.so:ASN1_item_pack
libnode.so:ASN1_item_print
libnode.so:ASN1_item_sign
libnode.so:ASN1_item_sign_ctx
libnode.so:ASN1_item_unpack
libnode.so:ASN1_item_verify
libnode.so:ASN1_mbstring_copy
libnode.so:ASN1_mbstring_ncopy
libnode.so:ASN1_object_size
libnode.so:ASN1_parse
libnode.so:ASN1_parse_dump
libnode.so:ASN1_put_eoc
libnode.so:ASN1_put_object
libnode.so:ASN1_sign
libnode.so:ASN1_str2mask
libnode.so:ASN1_tag2bit
libnode.so:ASN1_tag2str
libnode.so:ASN1_verify
libnode.so:ASRange_free
libnode.so:ASRange_it
libnode.so:ASRange_new
libnode.so:ASYNC_WAIT_CTX_clear_fd
libnode.so:ASYNC_WAIT_CTX_free
libnode.so:ASYNC_WAIT_CTX_get_all_fds
libnode.so:ASYNC_WAIT_CTX_get_changed_fds
libnode.so:ASYNC_WAIT_CTX_get_fd
libnode.so:ASYNC_WAIT_CTX_new
libnode.so:ASYNC_WAIT_CTX_set_wait_fd
libnode.so:ASYNC_block_pause
libnode.so:ASYNC_cleanup_thread
libnode.so:ASYNC_get_current_job
libnode.so:ASYNC_get_wait_ctx
libnode.so:ASYNC_init_thread
libnode.so:ASYNC_is_capable
libnode.so:ASYNC_pause_job
libnode.so:ASYNC_start_job
libnode.so:ASYNC_unblock_pause
libnode.so:AUTHORITY_INFO_ACCESS_free
libnode.so:AUTHORITY_INFO_ACCESS_it
libnode.so:AUTHORITY_INFO_ACCESS_new
libnode.so:AUTHORITY_KEYID_free
libnode.so:AUTHORITY_KEYID_it
libnode.so:AUTHORITY_KEYID_new
libnode.so:BASIC_CONSTRAINTS_free
libnode.so:BASIC_CONSTRAINTS_it
libnode.so:BASIC_CONSTRAINTS_new
libnode.so:BF_cbc_encrypt
libnode.so:BF_cfb64_encrypt
libnode.so:BF_decrypt
libnode.so:BF_ecb_encrypt
libnode.so:BF_encrypt
libnode.so:BF_ofb64_encrypt
libnode.so:BF_options
libnode.so:BF_set_key
libnode.so:BIGNUM_it
libnode.so:BIO_ADDRINFO_address
libnode.so:BIO_ADDRINFO_family
libnode.so:BIO_ADDRINFO_free
libnode.so:BIO_ADDRINFO_next
libnode.so:BIO_ADDRINFO_protocol
libnode.so:BIO_ADDRINFO_sockaddr
libnode.so:BIO_ADDRINFO_sockaddr_size
libnode.so:BIO_ADDRINFO_socktype
libnode.so:BIO_ADDR_clear
libnode.so:BIO_ADDR_family
libnode.so:BIO_ADDR_free
libnode.so:BIO_ADDR_hostname_string
libnode.so:BIO_ADDR_make
libnode.so:BIO_ADDR_new
libnode.so:BIO_ADDR_path_string
libnode.so:BIO_ADDR_rawaddress
libnode.so:BIO_ADDR_rawmake
libnode.so:BIO_ADDR_rawport
libnode.so:BIO_ADDR_service_string
libnode.so:BIO_ADDR_sockaddr
libnode.so:BIO_ADDR_sockaddr_noconst
libnode.so:BIO_ADDR_sockaddr_size
libnode.so:BIO_CONNECT_free
libnode.so:BIO_CONNECT_new
libnode.so:BIO_accept
libnode.so:BIO_accept_ex
libnode.so:BIO_asn1_get_prefix
libnode.so:BIO_asn1_get_suffix
libnode.so:BIO_asn1_set_prefix
libnode.so:BIO_asn1_set_suffix
libnode.so:BIO_bind
libnode.so:BIO_callback_ctrl
libnode.so:BIO_clear_flags
libnode.so:BIO_closesocket
libnode.so:BIO_connect
libnode.so:BIO_copy_next_retry
libnode.so:BIO_ctrl
libnode.so:BIO_ctrl_get_read_request
libnode.so:BIO_ctrl_get_write_guarantee
libnode.so:BIO_ctrl_pending
libnode.so:BIO_ctrl_reset_read_request
libnode.so:BIO_ctrl_wpending
libnode.so:BIO_debug_callback
libnode.so:BIO_dgram_non_fatal_error
libnode.so:BIO_dump
libnode.so:BIO_dump_cb
libnode.so:BIO_dump_fp
libnode.so:BIO_dump_indent
libnode.so:BIO_dump_indent_cb
libnode.so:BIO_dump_indent_fp
libnode.so:BIO_dup_chain
libnode.so:BIO_f_asn1
libnode.so:BIO_f_base64
libnode.so:BIO_f_buffer
libnode.so:BIO_f_cipher
libnode.so:BIO_f_linebuffer
libnode.so:BIO_f_md
libnode.so:BIO_f_nbio_test
libnode.so:BIO_f_null
libnode.so:BIO_f_reliable
libnode.so:BIO_f_ssl
libnode.so:BIO_fd_non_fatal_error
libnode.so:BIO_fd_should_retry
libnode.so:BIO_find_type
libnode.so:BIO_free
libnode.so:BIO_free_all
libnode.so:BIO_get_accept_socket
libnode.so:BIO_get_callback
libnode.so:BIO_get_callback_arg
libnode.so:BIO_get_callback_ex
libnode.so:BIO_get_data
libnode.so:BIO_get_ex_data
libnode.so:BIO_get_host_ip
libnode.so:BIO_get_init
libnode.so:BIO_get_new_index
libnode.so:BIO_get_port
libnode.so:BIO_get_retry_BIO
libnode.so:BIO_get_retry_reason
libnode.so:BIO_get_shutdown
libnode.so:BIO_gethostbyname
libnode.so:BIO_gets
libnode.so:BIO_hex_string
libnode.so:BIO_indent
libnode.so:BIO_int_ctrl
libnode.so:BIO_listen
libnode.so:BIO_lookup
libnode.so:BIO_lookup_ex
libnode.so:BIO_meth_free
libnode.so:BIO_meth_get_callback_ctrl
libnode.so:BIO_meth_get_create
libnode.so:BIO_meth_get_ctrl
libnode.so:BIO_meth_get_destroy
libnode.so:BIO_meth_get_gets
libnode.so:BIO_meth_get_puts
libnode.so:BIO_meth_get_read
libnode.so:BIO_meth_get_read_ex
libnode.so:BIO_meth_get_write
libnode.so:BIO_meth_get_write_ex
libnode.so:BIO_meth_new
libnode.so:BIO_meth_set_callback_ctrl
libnode.so:BIO_meth_set_create
libnode.so:BIO_meth_set_ctrl
libnode.so:BIO_meth_set_destroy
libnode.so:BIO_meth_set_gets
libnode.so:BIO_meth_set_puts
libnode.so:BIO_meth_set_read
libnode.so:BIO_meth_set_read_ex
libnode.so:BIO_meth_set_write
libnode.so:BIO_meth_set_write_ex
libnode.so:BIO_method_name
libnode.so:BIO_method_type
libnode.so:BIO_new
libnode.so:BIO_new_CMS
libnode.so:BIO_new_NDEF
libnode.so:BIO_new_PKCS7
libnode.so:BIO_new_accept
libnode.so:BIO_new_bio_pair
libnode.so:BIO_new_buffer_ssl_connect
libnode.so:BIO_new_connect
libnode.so:BIO_new_dgram
libnode.so:BIO_new_fd
libnode.so:BIO_new_file
libnode.so:BIO_new_fp
libnode.so:BIO_new_mem_buf
libnode.so:BIO_new_socket
libnode.so:BIO_new_ssl
libnode.so:BIO_new_ssl_connect
libnode.so:BIO_next
libnode.so:BIO_nread
libnode.so:BIO_nread0
libnode.so:BIO_number_read
libnode.so:BIO_number_written
libnode.so:BIO_nwrite
libnode.so:BIO_nwrite0
libnode.so:BIO_parse_hostserv
libnode.so:BIO_pop
libnode.so:BIO_printf
libnode.so:BIO_ptr_ctrl
libnode.so:BIO_push
libnode.so:BIO_puts
libnode.so:BIO_read
libnode.so:BIO_read_ex
libnode.so:BIO_s_accept
libnode.so:BIO_s_bio
libnode.so:BIO_s_connect
libnode.so:BIO_s_datagram
libnode.so:BIO_s_fd
libnode.so:BIO_s_file
libnode.so:BIO_s_log
libnode.so:BIO_s_mem
libnode.so:BIO_s_null
libnode.so:BIO_s_secmem
libnode.so:BIO_s_socket
libnode.so:BIO_set_callback
libnode.so:BIO_set_callback_arg
libnode.so:BIO_set_callback_ex
libnode.so:BIO_set_cipher
libnode.so:BIO_set_data
libnode.so:BIO_set_ex_data
libnode.so:BIO_set_flags
libnode.so:BIO_set_init
libnode.so:BIO_set_next
libnode.so:BIO_set_retry_reason
libnode.so:BIO_set_shutdown
libnode.so:BIO_set_tcp_ndelay
libnode.so:BIO_snprintf
libnode.so:BIO_sock_error
libnode.so:BIO_sock_info
libnode.so:BIO_sock_init
libnode.so:BIO_sock_non_fatal_error
libnode.so:BIO_sock_should_retry
libnode.so:BIO_socket
libnode.so:BIO_socket_ioctl
libnode.so:BIO_socket_nbio
libnode.so:BIO_ssl_copy_session_id
libnode.so:BIO_ssl_shutdown
libnode.so:BIO_test_flags
libnode.so:BIO_up_ref
libnode.so:BIO_vfree
libnode.so:BIO_vprintf
libnode.so:BIO_vsnprintf
libnode.so:BIO_write
libnode.so:BIO_write_ex
libnode.so:BLAKE2b_Final
libnode.so:BLAKE2b_Init
libnode.so:BLAKE2b_Update
libnode.so:BLAKE2s_Final
libnode.so:BLAKE2s_Init
libnode.so:BLAKE2s_Update
libnode.so:BN_BLINDING_convert
libnode.so:BN_BLINDING_convert_ex
libnode.so:BN_BLINDING_create_param
libnode.so:BN_BLINDING_free
libnode.so:BN_BLINDING_get_flags
libnode.so:BN_BLINDING_invert
libnode.so:BN_BLINDING_invert_ex
libnode.so:BN_BLINDING_is_current_thread
libnode.so:BN_BLINDING_lock
libnode.so:BN_BLINDING_new
libnode.so:BN_BLINDING_set_current_thread
libnode.so:BN_BLINDING_set_flags
libnode.so:BN_BLINDING_unlock
libnode.so:BN_BLINDING_update
libnode.so:BN_CTX_end
libnode.so:BN_CTX_free
libnode.so:BN_CTX_get
libnode.so:BN_CTX_new
libnode.so:BN_CTX_secure_new
libnode.so:BN_CTX_start
libnode.so:BN_GENCB_call
libnode.so:BN_GENCB_free
libnode.so:BN_GENCB_get_arg
libnode.so:BN_GENCB_new
libnode.so:BN_GENCB_set
libnode.so:BN_GENCB_set_old
libnode.so:BN_GF2m_add
libnode.so:BN_GF2m_arr2poly
libnode.so:BN_GF2m_mod
libnode.so:BN_GF2m_mod_arr
libnode.so:BN_GF2m_mod_div
libnode.so:BN_GF2m_mod_div_arr
libnode.so:BN_GF2m_mod_exp
libnode.so:BN_GF2m_mod_exp_arr
libnode.so:BN_GF2m_mod_inv
libnode.so:BN_GF2m_mod_inv_arr
libnode.so:BN_GF2m_mod_mul
libnode.so:BN_GF2m_mod_mul_arr
libnode.so:BN_GF2m_mod_solve_quad
libnode.so:BN_GF2m_mod_solve_quad_arr
libnode.so:BN_GF2m_mod_sqr
libnode.so:BN_GF2m_mod_sqr_arr
libnode.so:BN_GF2m_mod_sqrt
libnode.so:BN_GF2m_mod_sqrt_arr
libnode.so:BN_GF2m_poly2arr
libnode.so:BN_MONT_CTX_copy
libnode.so:BN_MONT_CTX_free
libnode.so:BN_MONT_CTX_init
libnode.so:BN_MONT_CTX_new
libnode.so:BN_MONT_CTX_set
libnode.so:BN_MONT_CTX_set_locked
libnode.so:BN_RECP_CTX_free
libnode.so:BN_RECP_CTX_init
libnode.so:BN_RECP_CTX_new
libnode.so:BN_RECP_CTX_set
libnode.so:BN_X931_derive_prime_ex
libnode.so:BN_X931_generate_Xpq
libnode.so:BN_X931_generate_prime_ex
libnode.so:BN_abs_is_word
libnode.so:BN_add
libnode.so:BN_add_word
libnode.so:BN_asc2bn
libnode.so:BN_bin2bn
libnode.so:BN_bn2bin
libnode.so:BN_bn2binpad
libnode.so:BN_bn2dec
libnode.so:BN_bn2hex
libnode.so:BN_bn2lebinpad
libnode.so:BN_bn2mpi
libnode.so:BN_bntest_rand
libnode.so:BN_clear
libnode.so:BN_clear_bit
libnode.so:BN_clear_free
libnode.so:BN_cmp
libnode.so:BN_consttime_swap
libnode.so:BN_copy
libnode.so:BN_dec2bn
libnode.so:BN_div
libnode.so:BN_div_recp
libnode.so:BN_div_word
libnode.so:BN_dup
libnode.so:BN_exp
libnode.so:BN_free
libnode.so:BN_from_montgomery
libnode.so:BN_gcd
libnode.so:BN_generate_dsa_nonce
libnode.so:BN_generate_prime
libnode.so:BN_generate_prime_ex
libnode.so:BN_get0_nist_prime_192
libnode.so:BN_get0_nist_prime_224
libnode.so:BN_get0_nist_prime_256
libnode.so:BN_get0_nist_prime_384
libnode.so:BN_get0_nist_prime_521
libnode.so:BN_get_flags
libnode.so:BN_get_params
libnode.so:BN_get_rfc2409_prime_1024
libnode.so:BN_get_rfc2409_prime_768
libnode.so:BN_get_rfc3526_prime_1536
libnode.so:BN_get_rfc3526_prime_2048
libnode.so:BN_get_rfc3526_prime_3072
libnode.so:BN_get_rfc3526_prime_4096
libnode.so:BN_get_rfc3526_prime_6144
libnode.so:BN_get_rfc3526_prime_8192
libnode.so:BN_get_word
libnode.so:BN_hex2bn
libnode.so:BN_is_bit_set
libnode.so:BN_is_negative
libnode.so:BN_is_odd
libnode.so:BN_is_one
libnode.so:BN_is_prime
libnode.so:BN_is_prime_ex
libnode.so:BN_is_prime_fasttest
libnode.so:BN_is_prime_fasttest_ex
libnode.so:BN_is_word
libnode.so:BN_is_zero
libnode.so:BN_kronecker
libnode.so:BN_lebin2bn
libnode.so:BN_lshift
libnode.so:BN_lshift1
libnode.so:BN_mask_bits
libnode.so:BN_mod_add
libnode.so:BN_mod_add_quick
libnode.so:BN_mod_exp
libnode.so:BN_mod_exp2_mont
libnode.so:BN_mod_exp_mont
libnode.so:BN_mod_exp_mont_consttime
libnode.so:BN_mod_exp_mont_word
libnode.so:BN_mod_exp_recp
libnode.so:BN_mod_exp_simple
libnode.so:BN_mod_inverse
libnode.so:BN_mod_lshift
libnode.so:BN_mod_lshift1
libnode.so:BN_mod_lshift1_quick
libnode.so:BN_mod_lshift_quick
libnode.so:BN_mod_mul
libnode.so:BN_mod_mul_montgomery
libnode.so:BN_mod_mul_reciprocal
libnode.so:BN_mod_sqr
libnode.so:BN_mod_sqrt
libnode.so:BN_mod_sub
libnode.so:BN_mod_sub_quick
libnode.so:BN_mod_word
libnode.so:BN_mpi2bn
libnode.so:BN_mul
libnode.so:BN_mul_word
libnode.so:BN_new
libnode.so:BN_nist_mod_192
libnode.so:BN_nist_mod_224
libnode.so:BN_nist_mod_256
libnode.so:BN_nist_mod_384
libnode.so:BN_nist_mod_521
libnode.so:BN_nist_mod_func
libnode.so:BN_nnmod
libnode.so:BN_num_bits
libnode.so:BN_num_bits_word
libnode.so:BN_options
libnode.so:BN_print
libnode.so:BN_print_fp
libnode.so:BN_priv_rand
libnode.so:BN_priv_rand_range
libnode.so:BN_pseudo_rand
libnode.so:BN_pseudo_rand_range
libnode.so:BN_rand
libnode.so:BN_rand_range
libnode.so:BN_reciprocal
libnode.so:BN_rshift
libnode.so:BN_rshift1
libnode.so:BN_secure_new
libnode.so:BN_security_bits
libnode.so:BN_set_bit
libnode.so:BN_set_flags
libnode.so:BN_set_negative
libnode.so:BN_set_params
libnode.so:BN_set_word
libnode.so:BN_sqr
libnode.so:BN_sub
libnode.so:BN_sub_word
libnode.so:BN_swap
libnode.so:BN_to_ASN1_ENUMERATED
libnode.so:BN_to_ASN1_INTEGER
libnode.so:BN_to_montgomery
libnode.so:BN_uadd
libnode.so:BN_ucmp
libnode.so:BN_usub
libnode.so:BN_value_one
libnode.so:BN_with_flags
libnode.so:BN_zero_ex
libnode.so:BUF_MEM_free
libnode.so:BUF_MEM_grow
libnode.so:BUF_MEM_grow_clean
libnode.so:BUF_MEM_new
libnode.so:BUF_MEM_new_ex
libnode.so:BUF_reverse
libnode.so:BrotliDecoderCreateInstance
libnode.so:BrotliDecoderDecompress
libnode.so:BrotliDecoderDecompressStream
libnode.so:BrotliDecoderDestroyInstance
libnode.so:BrotliDecoderErrorString
libnode.so:BrotliDecoderGetErrorCode
libnode.so:BrotliDecoderHasMoreOutput
libnode.so:BrotliDecoderIsFinished
libnode.so:BrotliDecoderIsUsed
libnode.so:BrotliDecoderSetParameter
libnode.so:BrotliDecoderTakeOutput
libnode.so:BrotliDecoderVersion
libnode.so:BrotliEncoderCompress
libnode.so:BrotliEncoderCompressStream
libnode.so:BrotliEncoderCreateInstance
libnode.so:BrotliEncoderDestroyInstance
libnode.so:BrotliEncoderHasMoreOutput
libnode.so:BrotliEncoderIsFinished
libnode.so:BrotliEncoderMaxCompressedSize
libnode.so:BrotliEncoderSetParameter
libnode.so:BrotliEncoderTakeOutput
libnode.so:BrotliEncoderVersion
libnode.so:BrotliGetDictionary
libnode.so:BrotliGetTransforms
libnode.so:BrotliSetDictionaryData
libnode.so:BrotliTransformDictionaryWord
libnode.so:CAST_S_table0
libnode.so:CAST_S_table1
libnode.so:CAST_S_table2
libnode.so:CAST_S_table3
libnode.so:CAST_S_table4
libnode.so:CAST_S_table5
libnode.so:CAST_S_table6
libnode.so:CAST_S_table7
libnode.so:CAST_cbc_encrypt
libnode.so:CAST_cfb64_encrypt
libnode.so:CAST_decrypt
libnode.so:CAST_ecb_encrypt
libnode.so:CAST_encrypt
libnode.so:CAST_ofb64_encrypt
libnode.so:CAST_set_key
libnode.so:CBIGNUM_it
libnode.so:CERTIFICATEPOLICIES_free
libnode.so:CERTIFICATEPOLICIES_it
libnode.so:CERTIFICATEPOLICIES_new
libnode.so:CMAC_CTX_cleanup
libnode.so:CMAC_CTX_copy
libnode.so:CMAC_CTX_free
libnode.so:CMAC_CTX_get0_cipher_ctx
libnode.so:CMAC_CTX_new
libnode.so:CMAC_Final
libnode.so:CMAC_Init
libnode.so:CMAC_Update
libnode.so:CMAC_resume
libnode.so:CMS_Attributes_Sign_it
libnode.so:CMS_Attributes_Verify_it
libnode.so:CMS_CertificateChoices_it
libnode.so:CMS_CompressedData_it
libnode.so:CMS_ContentInfo_free
libnode.so:CMS_ContentInfo_it
libnode.so:CMS_ContentInfo_new
libnode.so:CMS_ContentInfo_print_ctx
libnode.so:CMS_DigestedData_it
libnode.so:CMS_EncryptedData_decrypt
libnode.so:CMS_EncryptedData_encrypt
libnode.so:CMS_EncryptedData_it
libnode.so:CMS_EncryptedData_set1_key
libnode.so:CMS_EnvelopedData_create
libnode.so:CMS_EnvelopedData_it
libnode.so:CMS_IssuerAndSerialNumber_it
libnode.so:CMS_KEKRecipientInfo_it
libnode.so:CMS_KeyAgreeRecipientInfo_it
libnode.so:CMS_KeyTransRecipientInfo_it
libnode.so:CMS_OriginatorPublicKey_it
libnode.so:CMS_OtherKeyAttribute_it
libnode.so:CMS_PasswordRecipientInfo_it
libnode.so:CMS_ReceiptRequest_create0
libnode.so:CMS_ReceiptRequest_free
libnode.so:CMS_ReceiptRequest_get0_values
libnode.so:CMS_ReceiptRequest_it
libnode.so:CMS_ReceiptRequest_new
libnode.so:CMS_Receipt_it
libnode.so:CMS_RecipientEncryptedKey_cert_cmp
libnode.so:CMS_RecipientEncryptedKey_get0_id
libnode.so:CMS_RecipientEncryptedKey_it
libnode.so:CMS_RecipientInfo_decrypt
libnode.so:CMS_RecipientInfo_encrypt
libnode.so:CMS_RecipientInfo_get0_pkey_ctx
libnode.so:CMS_RecipientInfo_it
libnode.so:CMS_RecipientInfo_kari_decrypt
libnode.so:CMS_RecipientInfo_kari_get0_alg
libnode.so:CMS_RecipientInfo_kari_get0_ctx
libnode.so:CMS_RecipientInfo_kari_get0_orig_id
libnode.so:CMS_RecipientInfo_kari_get0_reks
libnode.so:CMS_RecipientInfo_kari_orig_id_cmp
libnode.so:CMS_RecipientInfo_kari_set0_pkey
libnode.so:CMS_RecipientInfo_kekri_get0_id
libnode.so:CMS_RecipientInfo_kekri_id_cmp
libnode.so:CMS_RecipientInfo_ktri_cert_cmp
libnode.so:CMS_RecipientInfo_ktri_get0_algs
libnode.so:CMS_RecipientInfo_ktri_get0_signer_id
libnode.so:CMS_RecipientInfo_set0_key
libnode.so:CMS_RecipientInfo_set0_password
libnode.so:CMS_RecipientInfo_set0_pkey
libnode.so:CMS_RecipientInfo_type
libnode.so:CMS_RecipientKeyIdentifier_it
libnode.so:CMS_RevocationInfoChoice_it
libnode.so:CMS_SharedInfo_encode
libnode.so:CMS_SignedData_init
libnode.so:CMS_SignedData_it
libnode.so:CMS_SignerInfo_cert_cmp
libnode.so:CMS_SignerInfo_get0_algs
libnode.so:CMS_SignerInfo_get0_md_ctx
libnode.so:CMS_SignerInfo_get0_pkey_ctx
libnode.so:CMS_SignerInfo_get0_signature
libnode.so:CMS_SignerInfo_get0_signer_id
libnode.so:CMS_SignerInfo_it
libnode.so:CMS_SignerInfo_set1_signer_cert
libnode.so:CMS_SignerInfo_sign
libnode.so:CMS_SignerInfo_verify
libnode.so:CMS_SignerInfo_verify_content
libnode.so:CMS_add0_CertificateChoices
libnode.so:CMS_add0_RevocationInfoChoice
libnode.so:CMS_add0_cert
libnode.so:CMS_add0_crl
libnode.so:CMS_add0_recipient_key
libnode.so:CMS_add0_recipient_password
libnode.so:CMS_add1_ReceiptRequest
libnode.so:CMS_add1_cert
libnode.so:CMS_add1_crl
libnode.so:CMS_add1_recipient_cert
libnode.so:CMS_add1_signer
libnode.so:CMS_add_simple_smimecap
libnode.so:CMS_add_smimecap
libnode.so:CMS_add_standard_smimecap
libnode.so:CMS_compress
libnode.so:CMS_data
libnode.so:CMS_dataFinal
libnode.so:CMS_dataInit
libnode.so:CMS_data_create
libnode.so:CMS_decrypt
libnode.so:CMS_decrypt_set1_key
libnode.so:CMS_decrypt_set1_password
libnode.so:CMS_decrypt_set1_pkey
libnode.so:CMS_digest_create
libnode.so:CMS_digest_verify
libnode.so:CMS_encrypt
libnode.so:CMS_final
libnode.so:CMS_get0_RecipientInfos
libnode.so:CMS_get0_SignerInfos
libnode.so:CMS_get0_content
libnode.so:CMS_get0_eContentType
libnode.so:CMS_get0_signers
libnode.so:CMS_get0_type
libnode.so:CMS_get1_ReceiptRequest
libnode.so:CMS_get1_certs
libnode.so:CMS_get1_crls
libnode.so:CMS_is_detached
libnode.so:CMS_set1_eContentType
libnode.so:CMS_set1_signers_certs
libnode.so:CMS_set_detached
libnode.so:CMS_si_check_attributes
libnode.so:CMS_sign
libnode.so:CMS_sign_receipt
libnode.so:CMS_signed_add1_attr
libnode.so:CMS_signed_add1_attr_by_NID
libnode.so:CMS_signed_add1_attr_by_OBJ
libnode.so:CMS_signed_add1_attr_by_txt
libnode.so:CMS_signed_delete_attr
libnode.so:CMS_signed_get0_data_by_OBJ
libnode.so:CMS_signed_get_attr
libnode.so:CMS_signed_get_attr_by_NID
libnode.so:CMS_signed_get_attr_by_OBJ
libnode.so:CMS_signed_get_attr_count
libnode.so:CMS_stream
libnode.so:CMS_uncompress
libnode.so:CMS_unsigned_add1_attr
libnode.so:CMS_unsigned_add1_attr_by_NID
libnode.so:CMS_unsigned_add1_attr_by_OBJ
libnode.so:CMS_unsigned_add1_attr_by_txt
libnode.so:CMS_unsigned_delete_attr
libnode.so:CMS_unsigned_get0_data_by_OBJ
libnode.so:CMS_unsigned_get_attr
libnode.so:CMS_unsigned_get_attr_by_NID
libnode.so:CMS_unsigned_get_attr_by_OBJ
libnode.so:CMS_unsigned_get_attr_count
libnode.so:CMS_verify
libnode.so:CMS_verify_receipt
libnode.so:CONF_dump_bio
libnode.so:CONF_dump_fp
libnode.so:CONF_free
libnode.so:CONF_get1_default_config_file
libnode.so:CONF_get_number
libnode.so:CONF_get_section
libnode.so:CONF_get_string
libnode.so:CONF_imodule_get_flags
libnode.so:CONF_imodule_get_module
libnode.so:CONF_imodule_get_name
libnode.so:CONF_imodule_get_usr_data
libnode.so:CONF_imodule_get_value
libnode.so:CONF_imodule_set_flags
libnode.so:CONF_imodule_set_usr_data
libnode.so:CONF_load
libnode.so:CONF_load_bio
libnode.so:CONF_load_fp
libnode.so:CONF_module_add
libnode.so:CONF_module_get_usr_data
libnode.so:CONF_module_set_usr_data
libnode.so:CONF_modules_finish
libnode.so:CONF_modules_load
libnode.so:CONF_modules_load_file
libnode.so:CONF_modules_unload
libnode.so:CONF_parse_list
libnode.so:CONF_set_default_method
libnode.so:CONF_set_nconf
libnode.so:CRL_DIST_POINTS_free
libnode.so:CRL_DIST_POINTS_it
libnode.so:CRL_DIST_POINTS_new
libnode.so:CRYPTO_128_unwrap
libnode.so:CRYPTO_128_unwrap_pad
libnode.so:CRYPTO_128_wrap
libnode.so:CRYPTO_128_wrap_pad
libnode.so:CRYPTO_THREAD_cleanup_local
libnode.so:CRYPTO_THREAD_compare_id
libnode.so:CRYPTO_THREAD_get_current_id
libnode.so:CRYPTO_THREAD_get_local
libnode.so:CRYPTO_THREAD_init_local
libnode.so:CRYPTO_THREAD_lock_free
libnode.so:CRYPTO_THREAD_lock_new
libnode.so:CRYPTO_THREAD_read_lock
libnode.so:CRYPTO_THREAD_run_once
libnode.so:CRYPTO_THREAD_set_local
libnode.so:CRYPTO_THREAD_unlock
libnode.so:CRYPTO_THREAD_write_lock
libnode.so:CRYPTO_atomic_add
libnode.so:CRYPTO_cbc128_decrypt
libnode.so:CRYPTO_cbc128_encrypt
libnode.so:CRYPTO_ccm128_aad
libnode.so:CRYPTO_ccm128_decrypt
libnode.so:CRYPTO_ccm128_decrypt_ccm64
libnode.so:CRYPTO_ccm128_encrypt
libnode.so:CRYPTO_ccm128_encrypt_ccm64
libnode.so:CRYPTO_ccm128_init
libnode.so:CRYPTO_ccm128_setiv
libnode.so:CRYPTO_ccm128_tag
libnode.so:CRYPTO_cfb128_1_encrypt
libnode.so:CRYPTO_cfb128_8_encrypt
libnode.so:CRYPTO_cfb128_encrypt
libnode.so:CRYPTO_clear_free
libnode.so:CRYPTO_clear_realloc
libnode.so:CRYPTO_ctr128_encrypt
libnode.so:CRYPTO_ctr128_encrypt_ctr32
libnode.so:CRYPTO_cts128_decrypt
libnode.so:CRYPTO_cts128_decrypt_block
libnode.so:CRYPTO_cts128_encrypt
libnode.so:CRYPTO_cts128_encrypt_block
libnode.so:CRYPTO_dup_ex_data
libnode.so:CRYPTO_free
libnode.so:CRYPTO_free_ex_data
libnode.so:CRYPTO_free_ex_index
libnode.so:CRYPTO_gcm128_aad
libnode.so:CRYPTO_gcm128_decrypt
libnode.so:CRYPTO_gcm128_decrypt_ctr32
libnode.so:CRYPTO_gcm128_encrypt
libnode.so:CRYPTO_gcm128_encrypt_ctr32
libnode.so:CRYPTO_gcm128_finish
libnode.so:CRYPTO_gcm128_init
libnode.so:CRYPTO_gcm128_new
libnode.so:CRYPTO_gcm128_release
libnode.so:CRYPTO_gcm128_setiv
libnode.so:CRYPTO_gcm128_tag
libnode.so:CRYPTO_get_ex_data
libnode.so:CRYPTO_get_ex_new_index
libnode.so:CRYPTO_get_mem_functions
libnode.so:CRYPTO_malloc
libnode.so:CRYPTO_mem_ctrl
libnode.so:CRYPTO_memcmp
libnode.so:CRYPTO_memdup
libnode.so:CRYPTO_new_ex_data
libnode.so:CRYPTO_nistcts128_decrypt
libnode.so:CRYPTO_nistcts128_decrypt_block
libnode.so:CRYPTO_nistcts128_encrypt
libnode.so:CRYPTO_nistcts128_encrypt_block
libnode.so:CRYPTO_ocb128_aad
libnode.so:CRYPTO_ocb128_cleanup
libnode.so:CRYPTO_ocb128_copy_ctx
libnode.so:CRYPTO_ocb128_decrypt
libnode.so:CRYPTO_ocb128_encrypt
libnode.so:CRYPTO_ocb128_finish
libnode.so:CRYPTO_ocb128_init
libnode.so:CRYPTO_ocb128_new
libnode.so:CRYPTO_ocb128_setiv
libnode.so:CRYPTO_ocb128_tag
libnode.so:CRYPTO_ofb128_encrypt
libnode.so:CRYPTO_realloc
libnode.so:CRYPTO_secure_actual_size
libnode.so:CRYPTO_secure_allocated
libnode.so:CRYPTO_secure_clear_free
libnode.so:CRYPTO_secure_free
libnode.so:CRYPTO_secure_malloc
libnode.so:CRYPTO_secure_malloc_done
libnode.so:CRYPTO_secure_malloc_init
libnode.so:CRYPTO_secure_malloc_initialized
libnode.so:CRYPTO_secure_used
libnode.so:CRYPTO_secure_zalloc
libnode.so:CRYPTO_set_ex_data
libnode.so:CRYPTO_set_mem_debug
libnode.so:CRYPTO_set_mem_functions
libnode.so:CRYPTO_strdup
libnode.so:CRYPTO_strndup
libnode.so:CRYPTO_xts128_encrypt
libnode.so:CRYPTO_zalloc
libnode.so:CTLOG_STORE_free
libnode.so:CTLOG_STORE_get0_log_by_id
libnode.so:CTLOG_STORE_load_default_file
libnode.so:CTLOG_STORE_load_file
libnode.so:CTLOG_STORE_new
libnode.so:CTLOG_free
libnode.so:CTLOG_get0_log_id
libnode.so:CTLOG_get0_name
libnode.so:CTLOG_get0_public_key
libnode.so:CTLOG_new
libnode.so:CTLOG_new_from_base64
libnode.so:CT_POLICY_EVAL_CTX_free
libnode.so:CT_POLICY_EVAL_CTX_get0_cert
libnode.so:CT_POLICY_EVAL_CTX_get0_issuer
libnode.so:CT_POLICY_EVAL_CTX_get0_log_store
libnode.so:CT_POLICY_EVAL_CTX_get_time
libnode.so:CT_POLICY_EVAL_CTX_new
libnode.so:CT_POLICY_EVAL_CTX_set1_cert
libnode.so:CT_POLICY_EVAL_CTX_set1_issuer
libnode.so:CT_POLICY_EVAL_CTX_set_shared_CTLOG_STORE
libnode.so:CT_POLICY_EVAL_CTX_set_time
libnode.so:Camellia_DecryptBlock
libnode.so:Camellia_DecryptBlock_Rounds
libnode.so:Camellia_Ekeygen
libnode.so:Camellia_EncryptBlock
libnode.so:Camellia_EncryptBlock_Rounds
libnode.so:Camellia_cbc_encrypt
libnode.so:Camellia_cfb128_encrypt
libnode.so:Camellia_cfb1_encrypt
libnode.so:Camellia_cfb8_encrypt
libnode.so:Camellia_ctr128_encrypt
libnode.so:Camellia_decrypt
libnode.so:Camellia_ecb_encrypt
libnode.so:Camellia_encrypt
libnode.so:Camellia_ofb128_encrypt
libnode.so:Camellia_set_key
libnode.so:ChaCha20_ctr32
libnode.so:DES_SPtrans
libnode.so:DES_cbc_cksum
libnode.so:DES_cbc_encrypt
libnode.so:DES_cfb64_encrypt
libnode.so:DES_cfb_encrypt
libnode.so:DES_check_key_parity
libnode.so:DES_crypt
libnode.so:DES_decrypt3
libnode.so:DES_ecb3_encrypt
libnode.so:DES_ecb_encrypt
libnode.so:DES_ede3_cbc_encrypt
libnode.so:DES_ede3_cfb64_encrypt
libnode.so:DES_ede3_cfb_encrypt
libnode.so:DES_ede3_ofb64_encrypt
libnode.so:DES_encrypt1
libnode.so:DES_encrypt2
libnode.so:DES_encrypt3
libnode.so:DES_fcrypt
libnode.so:DES_is_weak_key
libnode.so:DES_key_sched
libnode.so:DES_ncbc_encrypt
libnode.so:DES_ofb64_encrypt
libnode.so:DES_ofb_encrypt
libnode.so:DES_options
libnode.so:DES_pcbc_encrypt
libnode.so:DES_quad_cksum
libnode.so:DES_random_key
libnode.so:DES_set_key
libnode.so:DES_set_key_checked
libnode.so:DES_set_key_unchecked
libnode.so:DES_set_odd_parity
libnode.so:DES_string_to_2keys
libnode.so:DES_string_to_key
libnode.so:DES_xcbc_encrypt
libnode.so:DH_KDF_X9_42
libnode.so:DH_OpenSSL
libnode.so:DH_bits
libnode.so:DH_check
libnode.so:DH_check_ex
libnode.so:DH_check_params
libnode.so:DH_check_params_ex
libnode.so:DH_check_pub_key
libnode.so:DH_check_pub_key_ex
libnode.so:DH_clear_flags
libnode.so:DH_compute_key
libnode.so:DH_compute_key_padded
libnode.so:DH_free
libnode.so:DH_generate_key
libnode.so:DH_generate_parameters
libnode.so:DH_generate_parameters_ex
libnode.so:DH_get0_engine
libnode.so:DH_get0_g
libnode.so:DH_get0_key
libnode.so:DH_get0_p
libnode.so:DH_get0_pqg
libnode.so:DH_get0_priv_key
libnode.so:DH_get0_pub_key
libnode.so:DH_get0_q
libnode.so:DH_get_1024_160
libnode.so:DH_get_2048_224
libnode.so:DH_get_2048_256
libnode.so:DH_get_default_method
libnode.so:DH_get_ex_data
libnode.so:DH_get_length
libnode.so:DH_get_nid
libnode.so:DH_meth_dup
libnode.so:DH_meth_free
libnode.so:DH_meth_get0_app_data
libnode.so:DH_meth_get0_name
libnode.so:DH_meth_get_bn_mod_exp
libnode.so:DH_meth_get_compute_key
libnode.so:DH_meth_get_finish
libnode.so:DH_meth_get_flags
libnode.so:DH_meth_get_generate_key
libnode.so:DH_meth_get_generate_params
libnode.so:DH_meth_get_init
libnode.so:DH_meth_new
libnode.so:DH_meth_set0_app_data
libnode.so:DH_meth_set1_name
libnode.so:DH_meth_set_bn_mod_exp
libnode.so:DH_meth_set_compute_key
libnode.so:DH_meth_set_finish
libnode.so:DH_meth_set_flags
libnode.so:DH_meth_set_generate_key
libnode.so:DH_meth_set_generate_params
libnode.so:DH_meth_set_init
libnode.so:DH_new
libnode.so:DH_new_by_nid
libnode.so:DH_new_method
libnode.so:DH_security_bits
libnode.so:DH_set0_key
libnode.so:DH_set0_pqg
libnode.so:DH_set_default_method
libnode.so:DH_set_ex_data
libnode.so:DH_set_flags
libnode.so:DH_set_length
libnode.so:DH_set_method
libnode.so:DH_size
libnode.so:DH_test_flags
libnode.so:DH_up_ref
libnode.so:DHparams_dup
libnode.so:DHparams_it
libnode.so:DHparams_print
libnode.so:DHparams_print_fp
libnode.so:DIRECTORYSTRING_free
libnode.so:DIRECTORYSTRING_it
libnode.so:DIRECTORYSTRING_new
libnode.so:DISPLAYTEXT_free
libnode.so:DISPLAYTEXT_it
libnode.so:DISPLAYTEXT_new
libnode.so:DIST_POINT_NAME_free
libnode.so:DIST_POINT_NAME_it
libnode.so:DIST_POINT_NAME_new
libnode.so:DIST_POINT_free
libnode.so:DIST_POINT_it
libnode.so:DIST_POINT_new
libnode.so:DIST_POINT_set_dpname
libnode.so:DSA_OpenSSL
libnode.so:DSA_SIG_free
libnode.so:DSA_SIG_get0
libnode.so:DSA_SIG_new
libnode.so:DSA_SIG_set0
libnode.so:DSA_bits
libnode.so:DSA_clear_flags
libnode.so:DSA_do_sign
libnode.so:DSA_do_verify
libnode.so:DSA_dup_DH
libnode.so:DSA_free
libnode.so:DSA_generate_key
libnode.so:DSA_generate_parameters
libnode.so:DSA_generate_parameters_ex
libnode.so:DSA_get0_engine
libnode.so:DSA_get0_g
libnode.so:DSA_get0_key
libnode.so:DSA_get0_p
libnode.so:DSA_get0_pqg
libnode.so:DSA_get0_priv_key
libnode.so:DSA_get0_pub_key
libnode.so:DSA_get0_q
libnode.so:DSA_get_default_method
libnode.so:DSA_get_ex_data
libnode.so:DSA_get_method
libnode.so:DSA_meth_dup
libnode.so:DSA_meth_free
libnode.so:DSA_meth_get0_app_data
libnode.so:DSA_meth_get0_name
libnode.so:DSA_meth_get_bn_mod_exp
libnode.so:DSA_meth_get_finish
libnode.so:DSA_meth_get_flags
libnode.so:DSA_meth_get_init
libnode.so:DSA_meth_get_keygen
libnode.so:DSA_meth_get_mod_exp
libnode.so:DSA_meth_get_paramgen
libnode.so:DSA_meth_get_sign
libnode.so:DSA_meth_get_sign_setup
libnode.so:DSA_meth_get_verify
libnode.so:DSA_meth_new
libnode.so:DSA_meth_set0_app_data
libnode.so:DSA_meth_set1_name
libnode.so:DSA_meth_set_bn_mod_exp
libnode.so:DSA_meth_set_finish
libnode.so:DSA_meth_set_flags
libnode.so:DSA_meth_set_init
libnode.so:DSA_meth_set_keygen
libnode.so:DSA_meth_set_mod_exp
libnode.so:DSA_meth_set_paramgen
libnode.so:DSA_meth_set_sign
libnode.so:DSA_meth_set_sign_setup
libnode.so:DSA_meth_set_verify
libnode.so:DSA_new
libnode.so:DSA_new_method
libnode.so:DSA_print
libnode.so:DSA_print_fp
libnode.so:DSA_security_bits
libnode.so:DSA_set0_key
libnode.so:DSA_set0_pqg
libnode.so:DSA_set_default_method
libnode.so:DSA_set_ex_data
libnode.so:DSA_set_flags
libnode.so:DSA_set_method
libnode.so:DSA_sign
libnode.so:DSA_sign_setup
libnode.so:DSA_size
libnode.so:DSA_test_flags
libnode.so:DSA_up_ref
libnode.so:DSA_verify
libnode.so:DSAparams_dup
libnode.so:DSAparams_print
libnode.so:DSAparams_print_fp
libnode.so:DSO_METHOD_openssl
libnode.so:DSO_bind_func
libnode.so:DSO_convert_filename
libnode.so:DSO_ctrl
libnode.so:DSO_dsobyaddr
libnode.so:DSO_flags
libnode.so:DSO_free
libnode.so:DSO_get_filename
libnode.so:DSO_global_lookup
libnode.so:DSO_load
libnode.so:DSO_merge
libnode.so:DSO_new
libnode.so:DSO_pathbyaddr
libnode.so:DSO_set_filename
libnode.so:DSO_up_ref
libnode.so:DTLS_RECORD_LAYER_clear
libnode.so:DTLS_RECORD_LAYER_free
libnode.so:DTLS_RECORD_LAYER_new
libnode.so:DTLS_RECORD_LAYER_set_saved_w_epoch
libnode.so:DTLS_RECORD_LAYER_set_write_sequence
libnode.so:DTLS_client_method
libnode.so:DTLS_get_data_mtu
libnode.so:DTLS_method
libnode.so:DTLS_server_method
libnode.so:DTLS_set_timer_cb
libnode.so:DTLSv1_2_client_method
libnode.so:DTLSv1_2_enc_data
libnode.so:DTLSv1_2_method
libnode.so:DTLSv1_2_server_method
libnode.so:DTLSv1_client_method
libnode.so:DTLSv1_enc_data
libnode.so:DTLSv1_listen
libnode.so:DTLSv1_method
libnode.so:DTLSv1_server_method
libnode.so:ECDH_KDF_X9_62
libnode.so:ECDH_compute_key
libnode.so:ECDSA_SIG_free
libnode.so:ECDSA_SIG_get0
libnode.so:ECDSA_SIG_get0_r
libnode.so:ECDSA_SIG_get0_s
libnode.so:ECDSA_SIG_new
libnode.so:ECDSA_SIG_set0
libnode.so:ECDSA_do_sign
libnode.so:ECDSA_do_sign_ex
libnode.so:ECDSA_do_verify
libnode.so:ECDSA_sign
libnode.so:ECDSA_sign_ex
libnode.so:ECDSA_sign_setup
libnode.so:ECDSA_size
libnode.so:ECDSA_verify
libnode.so:ECPARAMETERS_free
libnode.so:ECPARAMETERS_it
libnode.so:ECPARAMETERS_new
libnode.so:ECPKPARAMETERS_free
libnode.so:ECPKPARAMETERS_it
libnode.so:ECPKPARAMETERS_new
libnode.so:ECPKParameters_print
libnode.so:ECPKParameters_print_fp
libnode.so:ECParameters_print
libnode.so:ECParameters_print_fp
libnode.so:EC_GF2m_simple_method
libnode.so:EC_GFp_mont_method
libnode.so:EC_GFp_nist_method
libnode.so:EC_GFp_simple_method
libnode.so:EC_GROUP_check
libnode.so:EC_GROUP_check_discriminant
libnode.so:EC_GROUP_clear_free
libnode.so:EC_GROUP_cmp
libnode.so:EC_GROUP_copy
libnode.so:EC_GROUP_dup
libnode.so:EC_GROUP_free
libnode.so:EC_GROUP_get0_cofactor
libnode.so:EC_GROUP_get0_generator
libnode.so:EC_GROUP_get0_order
libnode.so:EC_GROUP_get0_seed
libnode.so:EC_GROUP_get_asn1_flag
libnode.so:EC_GROUP_get_basis_type
libnode.so:EC_GROUP_get_cofactor
libnode.so:EC_GROUP_get_curve
libnode.so:EC_GROUP_get_curve_GF2m
libnode.so:EC_GROUP_get_curve_GFp
libnode.so:EC_GROUP_get_curve_name
libnode.so:EC_GROUP_get_degree
libnode.so:EC_GROUP_get_ecparameters
libnode.so:EC_GROUP_get_ecpkparameters
libnode.so:EC_GROUP_get_mont_data
libnode.so:EC_GROUP_get_order
libnode.so:EC_GROUP_get_pentanomial_basis
libnode.so:EC_GROUP_get_point_conversion_form
libnode.so:EC_GROUP_get_seed_len
libnode.so:EC_GROUP_get_trinomial_basis
libnode.so:EC_GROUP_have_precompute_mult
libnode.so:EC_GROUP_method_of
libnode.so:EC_GROUP_new
libnode.so:EC_GROUP_new_by_curve_name
libnode.so:EC_GROUP_new_curve_GF2m
libnode.so:EC_GROUP_new_curve_GFp
libnode.so:EC_GROUP_new_from_ecparameters
libnode.so:EC_GROUP_new_from_ecpkparameters
libnode.so:EC_GROUP_order_bits
libnode.so:EC_GROUP_precompute_mult
libnode.so:EC_GROUP_set_asn1_flag
libnode.so:EC_GROUP_set_curve
libnode.so:EC_GROUP_set_curve_GF2m
libnode.so:EC_GROUP_set_curve_GFp
libnode.so:EC_GROUP_set_curve_name
libnode.so:EC_GROUP_set_generator
libnode.so:EC_GROUP_set_point_conversion_form
libnode.so:EC_GROUP_set_seed
libnode.so:EC_KEY_METHOD_free
libnode.so:EC_KEY_METHOD_get_compute_key
libnode.so:EC_KEY_METHOD_get_init
libnode.so:EC_KEY_METHOD_get_keygen
libnode.so:EC_KEY_METHOD_get_sign
libnode.so:EC_KEY_METHOD_get_verify
libnode.so:EC_KEY_METHOD_new
libnode.so:EC_KEY_METHOD_set_compute_key
libnode.so:EC_KEY_METHOD_set_init
libnode.so:EC_KEY_METHOD_set_keygen
libnode.so:EC_KEY_METHOD_set_sign
libnode.so:EC_KEY_METHOD_set_verify
libnode.so:EC_KEY_OpenSSL
libnode.so:EC_KEY_can_sign
libnode.so:EC_KEY_check_key
libnode.so:EC_KEY_clear_flags
libnode.so:EC_KEY_copy
libnode.so:EC_KEY_dup
libnode.so:EC_KEY_free
libnode.so:EC_KEY_generate_key
libnode.so:EC_KEY_get0_engine
libnode.so:EC_KEY_get0_group
libnode.so:EC_KEY_get0_private_key
libnode.so:EC_KEY_get0_public_key
libnode.so:EC_KEY_get_conv_form
libnode.so:EC_KEY_get_default_method
libnode.so:EC_KEY_get_enc_flags
libnode.so:EC_KEY_get_ex_data
libnode.so:EC_KEY_get_flags
libnode.so:EC_KEY_get_method
libnode.so:EC_KEY_key2buf
libnode.so:EC_KEY_new
libnode.so:EC_KEY_new_by_curve_name
libnode.so:EC_KEY_new_method
libnode.so:EC_KEY_oct2key
libnode.so:EC_KEY_oct2priv
libnode.so:EC_KEY_precompute_mult
libnode.so:EC_KEY_print
libnode.so:EC_KEY_print_fp
libnode.so:EC_KEY_priv2buf
libnode.so:EC_KEY_priv2oct
libnode.so:EC_KEY_set_asn1_flag
libnode.so:EC_KEY_set_conv_form
libnode.so:EC_KEY_set_default_method
libnode.so:EC_KEY_set_enc_flags
libnode.so:EC_KEY_set_ex_data
libnode.so:EC_KEY_set_flags
libnode.so:EC_KEY_set_group
libnode.so:EC_KEY_set_method
libnode.so:EC_KEY_set_private_key
libnode.so:EC_KEY_set_public_key
libnode.so:EC_KEY_set_public_key_affine_coordinates
libnode.so:EC_KEY_up_ref
libnode.so:EC_METHOD_get_field_type
libnode.so:EC_POINT_add
libnode.so:EC_POINT_bn2point
libnode.so:EC_POINT_clear_free
libnode.so:EC_POINT_cmp
libnode.so:EC_POINT_copy
libnode.so:EC_POINT_dbl
libnode.so:EC_POINT_dup
libnode.so:EC_POINT_free
libnode.so:EC_POINT_get_Jprojective_coordinates_GFp
libnode.so:EC_POINT_get_affine_coordinates
libnode.so:EC_POINT_get_affine_coordinates_GF2m
libnode.so:EC_POINT_get_affine_coordinates_GFp
libnode.so:EC_POINT_hex2point
libnode.so:EC_POINT_invert
libnode.so:EC_POINT_is_at_infinity
libnode.so:EC_POINT_is_on_curve
libnode.so:EC_POINT_make_affine
libnode.so:EC_POINT_method_of
libnode.so:EC_POINT_mul
libnode.so:EC_POINT_new
libnode.so:EC_POINT_oct2point
libnode.so:EC_POINT_point2bn
libnode.so:EC_POINT_point2buf
libnode.so:EC_POINT_point2hex
libnode.so:EC_POINT_point2oct
libnode.so:EC_POINT_set_Jprojective_coordinates_GFp
libnode.so:EC_POINT_set_affine_coordinates
libnode.so:EC_POINT_set_affine_coordinates_GF2m
libnode.so:EC_POINT_set_affine_coordinates_GFp
libnode.so:EC_POINT_set_compressed_coordinates
libnode.so:EC_POINT_set_compressed_coordinates_GF2m
libnode.so:EC_POINT_set_compressed_coordinates_GFp
libnode.so:EC_POINT_set_to_infinity
libnode.so:EC_POINTs_make_affine
libnode.so:EC_POINTs_mul
libnode.so:EC_PRIVATEKEY_free
libnode.so:EC_PRIVATEKEY_new
libnode.so:EC_curve_nid2nist
libnode.so:EC_curve_nist2nid
libnode.so:EC_ec_pre_comp_dup
libnode.so:EC_ec_pre_comp_free
libnode.so:EC_get_builtin_curves
libnode.so:EC_pre_comp_free
libnode.so:ED25519_public_from_private
libnode.so:ED25519_sign
libnode.so:ED25519_verify
libnode.so:ED448_public_from_private
libnode.so:ED448_sign
libnode.so:ED448_verify
libnode.so:ED448ph_sign
libnode.so:ED448ph_verify
libnode.so:EDIPARTYNAME_free
libnode.so:EDIPARTYNAME_it
libnode.so:EDIPARTYNAME_new
libnode.so:ENGINE_add
libnode.so:ENGINE_add_conf_module
libnode.so:ENGINE_by_id
libnode.so:ENGINE_cmd_is_executable
libnode.so:ENGINE_ctrl
libnode.so:ENGINE_ctrl_cmd
libnode.so:ENGINE_ctrl_cmd_string
libnode.so:ENGINE_finish
libnode.so:ENGINE_free
libnode.so:ENGINE_get_DH
libnode.so:ENGINE_get_DSA
libnode.so:ENGINE_get_EC
libnode.so:ENGINE_get_RAND
libnode.so:ENGINE_get_RSA
libnode.so:ENGINE_get_cipher
libnode.so:ENGINE_get_cipher_engine
libnode.so:ENGINE_get_ciphers
libnode.so:ENGINE_get_cmd_defns
libnode.so:ENGINE_get_ctrl_function
libnode.so:ENGINE_get_default_DH
libnode.so:ENGINE_get_default_DSA
libnode.so:ENGINE_get_default_EC
libnode.so:ENGINE_get_default_RAND
libnode.so:ENGINE_get_default_RSA
libnode.so:ENGINE_get_destroy_function
libnode.so:ENGINE_get_digest
libnode.so:ENGINE_get_digest_engine
libnode.so:ENGINE_get_digests
libnode.so:ENGINE_get_ex_data
libnode.so:ENGINE_get_finish_function
libnode.so:ENGINE_get_first
libnode.so:ENGINE_get_flags
libnode.so:ENGINE_get_id
libnode.so:ENGINE_get_init_function
libnode.so:ENGINE_get_last
libnode.so:ENGINE_get_load_privkey_function
libnode.so:ENGINE_get_load_pubkey_function
libnode.so:ENGINE_get_name
libnode.so:ENGINE_get_next
libnode.so:ENGINE_get_pkey_asn1_meth
libnode.so:ENGINE_get_pkey_asn1_meth_engine
libnode.so:ENGINE_get_pkey_asn1_meth_str
libnode.so:ENGINE_get_pkey_asn1_meths
libnode.so:ENGINE_get_pkey_meth
libnode.so:ENGINE_get_pkey_meth_engine
libnode.so:ENGINE_get_pkey_meths
libnode.so:ENGINE_get_prev
libnode.so:ENGINE_get_ssl_client_cert_function
libnode.so:ENGINE_get_static_state
libnode.so:ENGINE_get_table_flags
libnode.so:ENGINE_init
libnode.so:ENGINE_load_builtin_engines
libnode.so:ENGINE_load_private_key
libnode.so:ENGINE_load_public_key
libnode.so:ENGINE_load_ssl_client_cert
libnode.so:ENGINE_new
libnode.so:ENGINE_pkey_asn1_find_str
libnode.so:ENGINE_register_DH
libnode.so:ENGINE_register_DSA
libnode.so:ENGINE_register_EC
libnode.so:ENGINE_register_RAND
libnode.so:ENGINE_register_RSA
libnode.so:ENGINE_register_all_DH
libnode.so:ENGINE_register_all_DSA
libnode.so:ENGINE_register_all_EC
libnode.so:ENGINE_register_all_RAND
libnode.so:ENGINE_register_all_RSA
libnode.so:ENGINE_register_all_ciphers
libnode.so:ENGINE_register_all_complete
libnode.so:ENGINE_register_all_digests
libnode.so:ENGINE_register_all_pkey_asn1_meths
libnode.so:ENGINE_register_all_pkey_meths
libnode.so:ENGINE_register_ciphers
libnode.so:ENGINE_register_complete
libnode.so:ENGINE_register_digests
libnode.so:ENGINE_register_pkey_asn1_meths
libnode.so:ENGINE_register_pkey_meths
libnode.so:ENGINE_remove
libnode.so:ENGINE_set_DH
libnode.so:ENGINE_set_DSA
libnode.so:ENGINE_set_EC
libnode.so:ENGINE_set_RAND
libnode.so:ENGINE_set_RSA
libnode.so:ENGINE_set_ciphers
libnode.so:ENGINE_set_cmd_defns
libnode.so:ENGINE_set_ctrl_function
libnode.so:ENGINE_set_default
libnode.so:ENGINE_set_default_DH
libnode.so:ENGINE_set_default_DSA
libnode.so:ENGINE_set_default_EC
libnode.so:ENGINE_set_default_RAND
libnode.so:ENGINE_set_default_RSA
libnode.so:ENGINE_set_default_ciphers
libnode.so:ENGINE_set_default_digests
libnode.so:ENGINE_set_default_pkey_asn1_meths
libnode.so:ENGINE_set_default_pkey_meths
libnode.so:ENGINE_set_default_string
libnode.so:ENGINE_set_destroy_function
libnode.so:ENGINE_set_digests
libnode.so:ENGINE_set_ex_data
libnode.so:ENGINE_set_finish_function
libnode.so:ENGINE_set_flags
libnode.so:ENGINE_set_id
libnode.so:ENGINE_set_init_function
libnode.so:ENGINE_set_load_privkey_function
libnode.so:ENGINE_set_load_pubkey_function
libnode.so:ENGINE_set_load_ssl_client_cert_function
libnode.so:ENGINE_set_name
libnode.so:ENGINE_set_pkey_asn1_meths
libnode.so:ENGINE_set_pkey_meths
libnode.so:ENGINE_set_table_flags
libnode.so:ENGINE_unregister_DH
libnode.so:ENGINE_unregister_DSA
libnode.so:ENGINE_unregister_EC
libnode.so:ENGINE_unregister_RAND
libnode.so:ENGINE_unregister_RSA
libnode.so:ENGINE_unregister_ciphers
libnode.so:ENGINE_unregister_digests
libnode.so:ENGINE_unregister_pkey_asn1_meths
libnode.so:ENGINE_unregister_pkey_meths
libnode.so:ENGINE_up_ref
libnode.so:ERR_add_error_data
libnode.so:ERR_add_error_vdata
libnode.so:ERR_clear_error
libnode.so:ERR_clear_last_mark
libnode.so:ERR_error_string
libnode.so:ERR_error_string_n
libnode.so:ERR_func_error_string
libnode.so:ERR_get_error
libnode.so:ERR_get_error_line
libnode.so:ERR_get_error_line_data
libnode.so:ERR_get_next_error_library
libnode.so:ERR_get_state
libnode.so:ERR_lib_error_string
libnode.so:ERR_load_ASN1_strings
libnode.so:ERR_load_ASYNC_strings
libnode.so:ERR_load_BIO_strings
libnode.so:ERR_load_BN_strings
libnode.so:ERR_load_BUF_strings
libnode.so:ERR_load_CMS_strings
libnode.so:ERR_load_CONF_strings
libnode.so:ERR_load_CRYPTO_strings
libnode.so:ERR_load_CT_strings
libnode.so:ERR_load_DH_strings
libnode.so:ERR_load_DSA_strings
libnode.so:ERR_load_DSO_strings
libnode.so:ERR_load_EC_strings
libnode.so:ERR_load_ENGINE_strings
libnode.so:ERR_load_ERR_strings
libnode.so:ERR_load_EVP_strings
libnode.so:ERR_load_KDF_strings
libnode.so:ERR_load_OBJ_strings
libnode.so:ERR_load_OCSP_strings
libnode.so:ERR_load_OSSL_STORE_strings
libnode.so:ERR_load_PEM_strings
libnode.so:ERR_load_PKCS12_strings
libnode.so:ERR_load_PKCS7_strings
libnode.so:ERR_load_RAND_strings
libnode.so:ERR_load_RSA_strings
libnode.so:ERR_load_SM2_strings
libnode.so:ERR_load_SSL_strings
libnode.so:ERR_load_TS_strings
libnode.so:ERR_load_UI_strings
libnode.so:ERR_load_X509V3_strings
libnode.so:ERR_load_X509_strings
libnode.so:ERR_load_strings
libnode.so:ERR_load_strings_const
libnode.so:ERR_peek_error
libnode.so:ERR_peek_error_line
libnode.so:ERR_peek_error_line_data
libnode.so:ERR_peek_last_error
libnode.so:ERR_peek_last_error_line
libnode.so:ERR_peek_last_error_line_data
libnode.so:ERR_pop_to_mark
libnode.so:ERR_print_errors
libnode.so:ERR_print_errors_cb
libnode.so:ERR_print_errors_fp
libnode.so:ERR_put_error
libnode.so:ERR_reason_error_string
libnode.so:ERR_remove_state
libnode.so:ERR_remove_thread_state
libnode.so:ERR_set_error_data
libnode.so:ERR_set_mark
libnode.so:ERR_unload_strings
libnode.so:ESS_CERT_ID_V2_dup
libnode.so:ESS_CERT_ID_V2_free
libnode.so:ESS_CERT_ID_V2_new
libnode.so:ESS_CERT_ID_dup
libnode.so:ESS_CERT_ID_free
libnode.so:ESS_CERT_ID_new
libnode.so:ESS_ISSUER_SERIAL_dup
libnode.so:ESS_ISSUER_SERIAL_free
libnode.so:ESS_ISSUER_SERIAL_new
libnode.so:ESS_SIGNING_CERT_V2_dup
libnode.so:ESS_SIGNING_CERT_V2_free
libnode.so:ESS_SIGNING_CERT_V2_new
libnode.so:ESS_SIGNING_CERT_dup
libnode.so:ESS_SIGNING_CERT_free
libnode.so:ESS_SIGNING_CERT_new
libnode.so:EVP_BytesToKey
libnode.so:EVP_CIPHER_CTX_block_size
libnode.so:EVP_CIPHER_CTX_buf_noconst
libnode.so:EVP_CIPHER_CTX_cipher
libnode.so:EVP_CIPHER_CTX_clear_flags
libnode.so:EVP_CIPHER_CTX_copy
libnode.so:EVP_CIPHER_CTX_ctrl
libnode.so:EVP_CIPHER_CTX_encrypting
libnode.so:EVP_CIPHER_CTX_free
libnode.so:EVP_CIPHER_CTX_get_app_data
libnode.so:EVP_CIPHER_CTX_get_cipher_data
libnode.so:EVP_CIPHER_CTX_iv
libnode.so:EVP_CIPHER_CTX_iv_length
libnode.so:EVP_CIPHER_CTX_iv_noconst
libnode.so:EVP_CIPHER_CTX_key_length
libnode.so:EVP_CIPHER_CTX_new
libnode.so:EVP_CIPHER_CTX_nid
libnode.so:EVP_CIPHER_CTX_num
libnode.so:EVP_CIPHER_CTX_original_iv
libnode.so:EVP_CIPHER_CTX_rand_key
libnode.so:EVP_CIPHER_CTX_reset
libnode.so:EVP_CIPHER_CTX_set_app_data
libnode.so:EVP_CIPHER_CTX_set_cipher_data
libnode.so:EVP_CIPHER_CTX_set_flags
libnode.so:EVP_CIPHER_CTX_set_key_length
libnode.so:EVP_CIPHER_CTX_set_num
libnode.so:EVP_CIPHER_CTX_set_padding
libnode.so:EVP_CIPHER_CTX_test_flags
libnode.so:EVP_CIPHER_asn1_to_param
libnode.so:EVP_CIPHER_block_size
libnode.so:EVP_CIPHER_do_all
libnode.so:EVP_CIPHER_do_all_sorted
libnode.so:EVP_CIPHER_flags
libnode.so:EVP_CIPHER_get_asn1_iv
libnode.so:EVP_CIPHER_impl_ctx_size
libnode.so:EVP_CIPHER_iv_length
libnode.so:EVP_CIPHER_key_length
libnode.so:EVP_CIPHER_meth_dup
libnode.so:EVP_CIPHER_meth_free
libnode.so:EVP_CIPHER_meth_get_cleanup
libnode.so:EVP_CIPHER_meth_get_ctrl
libnode.so:EVP_CIPHER_meth_get_do_cipher
libnode.so:EVP_CIPHER_meth_get_get_asn1_params
libnode.so:EVP_CIPHER_meth_get_init
libnode.so:EVP_CIPHER_meth_get_set_asn1_params
libnode.so:EVP_CIPHER_meth_new
libnode.so:EVP_CIPHER_meth_set_cleanup
libnode.so:EVP_CIPHER_meth_set_ctrl
libnode.so:EVP_CIPHER_meth_set_do_cipher
libnode.so:EVP_CIPHER_meth_set_flags
libnode.so:EVP_CIPHER_meth_set_get_asn1_params
libnode.so:EVP_CIPHER_meth_set_impl_ctx_size
libnode.so:EVP_CIPHER_meth_set_init
libnode.so:EVP_CIPHER_meth_set_iv_length
libnode.so:EVP_CIPHER_meth_set_set_asn1_params
libnode.so:EVP_CIPHER_nid
libnode.so:EVP_CIPHER_param_to_asn1
libnode.so:EVP_CIPHER_set_asn1_iv
libnode.so:EVP_CIPHER_type
libnode.so:EVP_Cipher
libnode.so:EVP_CipherFinal
libnode.so:EVP_CipherFinal_ex
libnode.so:EVP_CipherInit
libnode.so:EVP_CipherInit_ex
libnode.so:EVP_CipherUpdate
libnode.so:EVP_DecodeBlock
libnode.so:EVP_DecodeFinal
libnode.so:EVP_DecodeInit
libnode.so:EVP_DecodeUpdate
libnode.so:EVP_DecryptFinal
libnode.so:EVP_DecryptFinal_ex
libnode.so:EVP_DecryptInit
libnode.so:EVP_DecryptInit_ex
libnode.so:EVP_DecryptUpdate
libnode.so:EVP_Digest
libnode.so:EVP_DigestFinal
libnode.so:EVP_DigestFinalXOF
libnode.so:EVP_DigestFinal_ex
libnode.so:EVP_DigestInit
libnode.so:EVP_DigestInit_ex
libnode.so:EVP_DigestSign
libnode.so:EVP_DigestSignFinal
libnode.so:EVP_DigestSignInit
libnode.so:EVP_DigestUpdate
libnode.so:EVP_DigestVerify
libnode.so:EVP_DigestVerifyFinal
libnode.so:EVP_DigestVerifyInit
libnode.so:EVP_ENCODE_CTX_copy
libnode.so:EVP_ENCODE_CTX_free
libnode.so:EVP_ENCODE_CTX_new
libnode.so:EVP_ENCODE_CTX_num
libnode.so:EVP_EncodeBlock
libnode.so:EVP_EncodeFinal
libnode.so:EVP_EncodeInit
libnode.so:EVP_EncodeUpdate
libnode.so:EVP_EncryptFinal
libnode.so:EVP_EncryptFinal_ex
libnode.so:EVP_EncryptInit
libnode.so:EVP_EncryptInit_ex
libnode.so:EVP_EncryptUpdate
libnode.so:EVP_MD_CTX_clear_flags
libnode.so:EVP_MD_CTX_copy
libnode.so:EVP_MD_CTX_copy_ex
libnode.so:EVP_MD_CTX_ctrl
libnode.so:EVP_MD_CTX_free
libnode.so:EVP_MD_CTX_md
libnode.so:EVP_MD_CTX_md_data
libnode.so:EVP_MD_CTX_new
libnode.so:EVP_MD_CTX_pkey_ctx
libnode.so:EVP_MD_CTX_reset
libnode.so:EVP_MD_CTX_set_flags
libnode.so:EVP_MD_CTX_set_pkey_ctx
libnode.so:EVP_MD_CTX_set_update_fn
libnode.so:EVP_MD_CTX_test_flags
libnode.so:EVP_MD_CTX_update_fn
libnode.so:EVP_MD_block_size
libnode.so:EVP_MD_do_all
libnode.so:EVP_MD_do_all_sorted
libnode.so:EVP_MD_flags
libnode.so:EVP_MD_meth_dup
libnode.so:EVP_MD_meth_free
libnode.so:EVP_MD_meth_get_app_datasize
libnode.so:EVP_MD_meth_get_cleanup
libnode.so:EVP_MD_meth_get_copy
libnode.so:EVP_MD_meth_get_ctrl
libnode.so:EVP_MD_meth_get_final
libnode.so:EVP_MD_meth_get_flags
libnode.so:EVP_MD_meth_get_init
libnode.so:EVP_MD_meth_get_input_blocksize
libnode.so:EVP_MD_meth_get_result_size
libnode.so:EVP_MD_meth_get_update
libnode.so:EVP_MD_meth_new
libnode.so:EVP_MD_meth_set_app_datasize
libnode.so:EVP_MD_meth_set_cleanup
libnode.so:EVP_MD_meth_set_copy
libnode.so:EVP_MD_meth_set_ctrl
libnode.so:EVP_MD_meth_set_final
libnode.so:EVP_MD_meth_set_flags
libnode.so:EVP_MD_meth_set_init
libnode.so:EVP_MD_meth_set_input_blocksize
libnode.so:EVP_MD_meth_set_result_size
libnode.so:EVP_MD_meth_set_update
libnode.so:EVP_MD_pkey_type
libnode.so:EVP_MD_size
libnode.so:EVP_MD_type
libnode.so:EVP_OpenFinal
libnode.so:EVP_OpenInit
libnode.so:EVP_PBE_CipherInit
libnode.so:EVP_PBE_alg_add
libnode.so:EVP_PBE_alg_add_type
libnode.so:EVP_PBE_cleanup
libnode.so:EVP_PBE_find
libnode.so:EVP_PBE_get
libnode.so:EVP_PBE_scrypt
libnode.so:EVP_PKCS82PKEY
libnode.so:EVP_PKEY2PKCS8
libnode.so:EVP_PKEY_CTX_ctrl
libnode.so:EVP_PKEY_CTX_ctrl_str
libnode.so:EVP_PKEY_CTX_ctrl_uint64
libnode.so:EVP_PKEY_CTX_dup
libnode.so:EVP_PKEY_CTX_free
libnode.so:EVP_PKEY_CTX_get0_peerkey
libnode.so:EVP_PKEY_CTX_get0_pkey
libnode.so:EVP_PKEY_CTX_get_app_data
libnode.so:EVP_PKEY_CTX_get_cb
libnode.so:EVP_PKEY_CTX_get_data
libnode.so:EVP_PKEY_CTX_get_keygen_info
libnode.so:EVP_PKEY_CTX_get_operation
libnode.so:EVP_PKEY_CTX_hex2ctrl
libnode.so:EVP_PKEY_CTX_md
libnode.so:EVP_PKEY_CTX_new
libnode.so:EVP_PKEY_CTX_new_id
libnode.so:EVP_PKEY_CTX_set0_keygen_info
libnode.so:EVP_PKEY_CTX_set_app_data
libnode.so:EVP_PKEY_CTX_set_cb
libnode.so:EVP_PKEY_CTX_set_data
libnode.so:EVP_PKEY_CTX_str2ctrl
libnode.so:EVP_PKEY_add1_attr
libnode.so:EVP_PKEY_add1_attr_by_NID
libnode.so:EVP_PKEY_add1_attr_by_OBJ
libnode.so:EVP_PKEY_add1_attr_by_txt
libnode.so:EVP_PKEY_asn1_add0
libnode.so:EVP_PKEY_asn1_add_alias
libnode.so:EVP_PKEY_asn1_copy
libnode.so:EVP_PKEY_asn1_find
libnode.so:EVP_PKEY_asn1_find_str
libnode.so:EVP_PKEY_asn1_free
libnode.so:EVP_PKEY_asn1_get0
libnode.so:EVP_PKEY_asn1_get0_info
libnode.so:EVP_PKEY_asn1_get_count
libnode.so:EVP_PKEY_asn1_new
libnode.so:EVP_PKEY_asn1_set_check
libnode.so:EVP_PKEY_asn1_set_ctrl
libnode.so:EVP_PKEY_asn1_set_free
libnode.so:EVP_PKEY_asn1_set_get_priv_key
libnode.so:EVP_PKEY_asn1_set_get_pub_key
libnode.so:EVP_PKEY_asn1_set_item
libnode.so:EVP_PKEY_asn1_set_param
libnode.so:EVP_PKEY_asn1_set_param_check
libnode.so:EVP_PKEY_asn1_set_private
libnode.so:EVP_PKEY_asn1_set_public
libnode.so:EVP_PKEY_asn1_set_public_check
libnode.so:EVP_PKEY_asn1_set_security_bits
libnode.so:EVP_PKEY_asn1_set_set_priv_key
libnode.so:EVP_PKEY_asn1_set_set_pub_key
libnode.so:EVP_PKEY_asn1_set_siginf
libnode.so:EVP_PKEY_assign
libnode.so:EVP_PKEY_base_id
libnode.so:EVP_PKEY_bits
libnode.so:EVP_PKEY_check
libnode.so:EVP_PKEY_cmp
libnode.so:EVP_PKEY_cmp_parameters
libnode.so:EVP_PKEY_copy_parameters
libnode.so:EVP_PKEY_decrypt
libnode.so:EVP_PKEY_decrypt_init
libnode.so:EVP_PKEY_decrypt_old
libnode.so:EVP_PKEY_delete_attr
libnode.so:EVP_PKEY_derive
libnode.so:EVP_PKEY_derive_init
libnode.so:EVP_PKEY_derive_set_peer
libnode.so:EVP_PKEY_encrypt
libnode.so:EVP_PKEY_encrypt_init
libnode.so:EVP_PKEY_encrypt_old
libnode.so:EVP_PKEY_free
libnode.so:EVP_PKEY_get0
libnode.so:EVP_PKEY_get0_DH
libnode.so:EVP_PKEY_get0_DSA
libnode.so:EVP_PKEY_get0_EC_KEY
libnode.so:EVP_PKEY_get0_RSA
libnode.so:EVP_PKEY_get0_asn1
libnode.so:EVP_PKEY_get0_engine
libnode.so:EVP_PKEY_get0_hmac
libnode.so:EVP_PKEY_get0_poly1305
libnode.so:EVP_PKEY_get0_siphash
libnode.so:EVP_PKEY_get1_DH
libnode.so:EVP_PKEY_get1_DSA
libnode.so:EVP_PKEY_get1_EC_KEY
libnode.so:EVP_PKEY_get1_RSA
libnode.so:EVP_PKEY_get1_tls_encodedpoint
libnode.so:EVP_PKEY_get_attr
libnode.so:EVP_PKEY_get_attr_by_NID
libnode.so:EVP_PKEY_get_attr_by_OBJ
libnode.so:EVP_PKEY_get_attr_count
libnode.so:EVP_PKEY_get_default_digest_nid
libnode.so:EVP_PKEY_get_raw_private_key
libnode.so:EVP_PKEY_get_raw_public_key
libnode.so:EVP_PKEY_id
libnode.so:EVP_PKEY_keygen
libnode.so:EVP_PKEY_keygen_init
libnode.so:EVP_PKEY_meth_add0
libnode.so:EVP_PKEY_meth_copy
libnode.so:EVP_PKEY_meth_find
libnode.so:EVP_PKEY_meth_free
libnode.so:EVP_PKEY_meth_get0
libnode.so:EVP_PKEY_meth_get0_info
libnode.so:EVP_PKEY_meth_get_check
libnode.so:EVP_PKEY_meth_get_cleanup
libnode.so:EVP_PKEY_meth_get_copy
libnode.so:EVP_PKEY_meth_get_count
libnode.so:EVP_PKEY_meth_get_ctrl
libnode.so:EVP_PKEY_meth_get_decrypt
libnode.so:EVP_PKEY_meth_get_derive
libnode.so:EVP_PKEY_meth_get_digest_custom
libnode.so:EVP_PKEY_meth_get_digestsign
libnode.so:EVP_PKEY_meth_get_digestverify
libnode.so:EVP_PKEY_meth_get_encrypt
libnode.so:EVP_PKEY_meth_get_init
libnode.so:EVP_PKEY_meth_get_keygen
libnode.so:EVP_PKEY_meth_get_param_check
libnode.so:EVP_PKEY_meth_get_paramgen
libnode.so:EVP_PKEY_meth_get_public_check
libnode.so:EVP_PKEY_meth_get_sign
libnode.so:EVP_PKEY_meth_get_signctx
libnode.so:EVP_PKEY_meth_get_verify
libnode.so:EVP_PKEY_meth_get_verify_recover
libnode.so:EVP_PKEY_meth_get_verifyctx
libnode.so:EVP_PKEY_meth_new
libnode.so:EVP_PKEY_meth_remove
libnode.so:EVP_PKEY_meth_set_check
libnode.so:EVP_PKEY_meth_set_cleanup
libnode.so:EVP_PKEY_meth_set_copy
libnode.so:EVP_PKEY_meth_set_ctrl
libnode.so:EVP_PKEY_meth_set_decrypt
libnode.so:EVP_PKEY_meth_set_derive
libnode.so:EVP_PKEY_meth_set_digest_custom
libnode.so:EVP_PKEY_meth_set_digestsign
libnode.so:EVP_PKEY_meth_set_digestverify
libnode.so:EVP_PKEY_meth_set_encrypt
libnode.so:EVP_PKEY_meth_set_init
libnode.so:EVP_PKEY_meth_set_keygen
libnode.so:EVP_PKEY_meth_set_param_check
libnode.so:EVP_PKEY_meth_set_paramgen
libnode.so:EVP_PKEY_meth_set_public_check
libnode.so:EVP_PKEY_meth_set_sign
libnode.so:EVP_PKEY_meth_set_signctx
libnode.so:EVP_PKEY_meth_set_verify
libnode.so:EVP_PKEY_meth_set_verify_recover
libnode.so:EVP_PKEY_meth_set_verifyctx
libnode.so:EVP_PKEY_missing_parameters
libnode.so:EVP_PKEY_new
libnode.so:EVP_PKEY_new_CMAC_key
libnode.so:EVP_PKEY_new_mac_key
libnode.so:EVP_PKEY_new_raw_private_key
libnode.so:EVP_PKEY_new_raw_public_key
libnode.so:EVP_PKEY_param_check
libnode.so:EVP_PKEY_paramgen
libnode.so:EVP_PKEY_paramgen_init
libnode.so:EVP_PKEY_print_params
libnode.so:EVP_PKEY_print_private
libnode.so:EVP_PKEY_print_public
libnode.so:EVP_PKEY_public_check
libnode.so:EVP_PKEY_save_parameters
libnode.so:EVP_PKEY_security_bits
libnode.so:EVP_PKEY_set1_DH
libnode.so:EVP_PKEY_set1_DSA
libnode.so:EVP_PKEY_set1_EC_KEY
libnode.so:EVP_PKEY_set1_RSA
libnode.so:EVP_PKEY_set1_engine
libnode.so:EVP_PKEY_set1_tls_encodedpoint
libnode.so:EVP_PKEY_set_alias_type
libnode.so:EVP_PKEY_set_type
libnode.so:EVP_PKEY_set_type_str
libnode.so:EVP_PKEY_sign
libnode.so:EVP_PKEY_sign_init
libnode.so:EVP_PKEY_size
libnode.so:EVP_PKEY_type
libnode.so:EVP_PKEY_up_ref
libnode.so:EVP_PKEY_verify
libnode.so:EVP_PKEY_verify_init
libnode.so:EVP_PKEY_verify_recover
libnode.so:EVP_PKEY_verify_recover_init
libnode.so:EVP_SealFinal
libnode.so:EVP_SealInit
libnode.so:EVP_SignFinal
libnode.so:EVP_VerifyFinal
libnode.so:EVP_add_alg_module
libnode.so:EVP_add_cipher
libnode.so:EVP_add_digest
libnode.so:EVP_aes_128_cbc
libnode.so:EVP_aes_128_cbc_hmac_sha1
libnode.so:EVP_aes_128_cbc_hmac_sha256
libnode.so:EVP_aes_128_ccm
libnode.so:EVP_aes_128_cfb
libnode.so:EVP_aes_128_cfb1
libnode.so:EVP_aes_128_cfb128
libnode.so:EVP_aes_128_cfb8
libnode.so:EVP_aes_128_ctr
libnode.so:EVP_aes_128_ecb
libnode.so:EVP_aes_128_gcm
libnode.so:EVP_aes_128_ocb
libnode.so:EVP_aes_128_ofb
libnode.so:EVP_aes_128_wrap
libnode.so:EVP_aes_128_wrap_pad
libnode.so:EVP_aes_128_xts
libnode.so:EVP_aes_192_cbc
libnode.so:EVP_aes_192_ccm
libnode.so:EVP_aes_192_cfb
libnode.so:EVP_aes_192_cfb1
libnode.so:EVP_aes_192_cfb128
libnode.so:EVP_aes_192_cfb8
libnode.so:EVP_aes_192_ctr
libnode.so:EVP_aes_192_ecb
libnode.so:EVP_aes_192_gcm
libnode.so:EVP_aes_192_ocb
libnode.so:EVP_aes_192_ofb
libnode.so:EVP_aes_192_wrap
libnode.so:EVP_aes_192_wrap_pad
libnode.so:EVP_aes_256_cbc
libnode.so:EVP_aes_256_cbc_hmac_sha1
libnode.so:EVP_aes_256_cbc_hmac_sha256
libnode.so:EVP_aes_256_ccm
libnode.so:EVP_aes_256_cfb
libnode.so:EVP_aes_256_cfb1
libnode.so:EVP_aes_256_cfb128
libnode.so:EVP_aes_256_cfb8
libnode.so:EVP_aes_256_ctr
libnode.so:EVP_aes_256_ecb
libnode.so:EVP_aes_256_gcm
libnode.so:EVP_aes_256_ocb
libnode.so:EVP_aes_256_ofb
libnode.so:EVP_aes_256_wrap
libnode.so:EVP_aes_256_wrap_pad
libnode.so:EVP_aes_256_xts
libnode.so:EVP_aria_128_cbc
libnode.so:EVP_aria_128_ccm
libnode.so:EVP_aria_128_cfb1
libnode.so:EVP_aria_128_cfb128
libnode.so:EVP_aria_128_cfb8
libnode.so:EVP_aria_128_ctr
libnode.so:EVP_aria_128_ecb
libnode.so:EVP_aria_128_gcm
libnode.so:EVP_aria_128_ofb
libnode.so:EVP_aria_192_cbc
libnode.so:EVP_aria_192_ccm
libnode.so:EVP_aria_192_cfb1
libnode.so:EVP_aria_192_cfb128
libnode.so:EVP_aria_192_cfb8
libnode.so:EVP_aria_192_ctr
libnode.so:EVP_aria_192_ecb
libnode.so:EVP_aria_192_gcm
libnode.so:EVP_aria_192_ofb
libnode.so:EVP_aria_256_cbc
libnode.so:EVP_aria_256_ccm
libnode.so:EVP_aria_256_cfb1
libnode.so:EVP_aria_256_cfb128
libnode.so:EVP_aria_256_cfb8
libnode.so:EVP_aria_256_ctr
libnode.so:EVP_aria_256_ecb
libnode.so:EVP_aria_256_gcm
libnode.so:EVP_aria_256_ofb
libnode.so:EVP_bf_cbc
libnode.so:EVP_bf_cfb
libnode.so:EVP_bf_cfb64
libnode.so:EVP_bf_ecb
libnode.so:EVP_bf_ofb
libnode.so:EVP_blake2b512
libnode.so:EVP_blake2s256
libnode.so:EVP_camellia_128_cbc
libnode.so:EVP_camellia_128_cfb1
libnode.so:EVP_camellia_128_cfb128
libnode.so:EVP_camellia_128_cfb8
libnode.so:EVP_camellia_128_ctr
libnode.so:EVP_camellia_128_ecb
libnode.so:EVP_camellia_128_ofb
libnode.so:EVP_camellia_192_cbc
libnode.so:EVP_camellia_192_cfb1
libnode.so:EVP_camellia_192_cfb128
libnode.so:EVP_camellia_192_cfb8
libnode.so:EVP_camellia_192_ctr
libnode.so:EVP_camellia_192_ecb
libnode.so:EVP_camellia_192_ofb
libnode.so:EVP_camellia_256_cbc
libnode.so:EVP_camellia_256_cfb1
libnode.so:EVP_camellia_256_cfb128
libnode.so:EVP_camellia_256_cfb8
libnode.so:EVP_camellia_256_ctr
libnode.so:EVP_camellia_256_ecb
libnode.so:EVP_camellia_256_ofb
libnode.so:EVP_cast5_cbc
libnode.so:EVP_cast5_cfb
libnode.so:EVP_cast5_cfb64
libnode.so:EVP_cast5_ecb
libnode.so:EVP_cast5_ofb
libnode.so:EVP_chacha20
libnode.so:EVP_chacha20_poly1305
libnode.so:EVP_des_cbc
libnode.so:EVP_des_cfb
libnode.so:EVP_des_cfb1
libnode.so:EVP_des_cfb64
libnode.so:EVP_des_cfb8
libnode.so:EVP_des_ecb
libnode.so:EVP_des_ede
libnode.so:EVP_des_ede3
libnode.so:EVP_des_ede3_cbc
libnode.so:EVP_des_ede3_cfb
libnode.so:EVP_des_ede3_cfb1
libnode.so:EVP_des_ede3_cfb64
libnode.so:EVP_des_ede3_cfb8
libnode.so:EVP_des_ede3_ecb
libnode.so:EVP_des_ede3_ofb
libnode.so:EVP_des_ede3_wrap
libnode.so:EVP_des_ede_cbc
libnode.so:EVP_des_ede_cfb
libnode.so:EVP_des_ede_cfb64
libnode.so:EVP_des_ede_ecb
libnode.so:EVP_des_ede_ofb
libnode.so:EVP_des_ofb
libnode.so:EVP_desx_cbc
libnode.so:EVP_enc_null
libnode.so:EVP_get_cipherbyname
libnode.so:EVP_get_digestbyname
libnode.so:EVP_get_pw_prompt
libnode.so:EVP_idea_cbc
libnode.so:EVP_idea_cfb
libnode.so:EVP_idea_cfb64
libnode.so:EVP_idea_ecb
libnode.so:EVP_idea_ofb
libnode.so:EVP_md4
libnode.so:EVP_md5
libnode.so:EVP_md5_sha1
libnode.so:EVP_md_null
libnode.so:EVP_mdc2
libnode.so:EVP_rc2_40_cbc
libnode.so:EVP_rc2_64_cbc
libnode.so:EVP_rc2_cbc
libnode.so:EVP_rc2_cfb
libnode.so:EVP_rc2_cfb64
libnode.so:EVP_rc2_ecb
libnode.so:EVP_rc2_ofb
libnode.so:EVP_rc4
libnode.so:EVP_rc4_40
libnode.so:EVP_rc4_hmac_md5
libnode.so:EVP_read_pw_string
libnode.so:EVP_read_pw_string_min
libnode.so:EVP_ripemd160
libnode.so:EVP_seed_cbc
libnode.so:EVP_seed_cfb128
libnode.so:EVP_seed_ecb
libnode.so:EVP_seed_ofb
libnode.so:EVP_set_pw_prompt
libnode.so:EVP_sha1
libnode.so:EVP_sha224
libnode.so:EVP_sha256
libnode.so:EVP_sha384
libnode.so:EVP_sha3_224
libnode.so:EVP_sha3_256
libnode.so:EVP_sha3_384
libnode.so:EVP_sha3_512
libnode.so:EVP_sha512
libnode.so:EVP_sha512_224
libnode.so:EVP_sha512_256
libnode.so:EVP_shake128
libnode.so:EVP_shake256
libnode.so:EVP_sm3
libnode.so:EVP_sm4_cbc
libnode.so:EVP_sm4_cfb128
libnode.so:EVP_sm4_ctr
libnode.so:EVP_sm4_ecb
libnode.so:EVP_sm4_ofb
libnode.so:EVP_whirlpool
libnode.so:EXTENDED_KEY_USAGE_free
libnode.so:EXTENDED_KEY_USAGE_it
libnode.so:EXTENDED_KEY_USAGE_new
libnode.so:FIPS_mode
libnode.so:FIPS_mode_set
libnode.so:GENERAL_NAMES_free
libnode.so:GENERAL_NAMES_it
libnode.so:GENERAL_NAMES_new
libnode.so:GENERAL_NAME_cmp
libnode.so:GENERAL_NAME_dup
libnode.so:GENERAL_NAME_free
libnode.so:GENERAL_NAME_get0_otherName
libnode.so:GENERAL_NAME_get0_value
libnode.so:GENERAL_NAME_it
libnode.so:GENERAL_NAME_new
libnode.so:GENERAL_NAME_print
libnode.so:GENERAL_NAME_set0_othername
libnode.so:GENERAL_NAME_set0_value
libnode.so:GENERAL_SUBTREE_free
libnode.so:GENERAL_SUBTREE_it
libnode.so:GENERAL_SUBTREE_new
libnode.so:GOST_KX_MESSAGE_free
libnode.so:GOST_KX_MESSAGE_it
libnode.so:GOST_KX_MESSAGE_new
libnode.so:HMAC
libnode.so:HMAC_CTX_copy
libnode.so:HMAC_CTX_free
libnode.so:HMAC_CTX_get_md
libnode.so:HMAC_CTX_new
libnode.so:HMAC_CTX_reset
libnode.so:HMAC_CTX_set_flags
libnode.so:HMAC_Final
libnode.so:HMAC_Init
libnode.so:HMAC_Init_ex
libnode.so:HMAC_Update
libnode.so:HMAC_size
libnode.so:IDEA_cbc_encrypt
libnode.so:IDEA_cfb64_encrypt
libnode.so:IDEA_ecb_encrypt
libnode.so:IDEA_encrypt
libnode.so:IDEA_ofb64_encrypt
libnode.so:IDEA_options
libnode.so:IDEA_set_decrypt_key
libnode.so:IDEA_set_encrypt_key
libnode.so:INT32_it
libnode.so:INT64_it
libnode.so:IPAddressChoice_free
libnode.so:IPAddressChoice_it
libnode.so:IPAddressChoice_new
libnode.so:IPAddressFamily_free
libnode.so:IPAddressFamily_it
libnode.so:IPAddressFamily_new
libnode.so:IPAddressOrRange_free
libnode.so:IPAddressOrRange_it
libnode.so:IPAddressOrRange_new
libnode.so:IPAddressRange_free
libnode.so:IPAddressRange_it
libnode.so:IPAddressRange_new
libnode.so:ISSUING_DIST_POINT_free
libnode.so:ISSUING_DIST_POINT_it
libnode.so:ISSUING_DIST_POINT_new
libnode.so:LONG_it
libnode.so:MD4
libnode.so:MD4_Final
libnode.so:MD4_Init
libnode.so:MD4_Transform
libnode.so:MD4_Update
libnode.so:MD5
libnode.so:MD5_Final
libnode.so:MD5_Init
libnode.so:MD5_Transform
libnode.so:MD5_Update
libnode.so:MDC2
libnode.so:MDC2_Final
libnode.so:MDC2_Init
libnode.so:MDC2_Update
libnode.so:NAME_CONSTRAINTS_check
libnode.so:NAME_CONSTRAINTS_check_CN
libnode.so:NAME_CONSTRAINTS_free
libnode.so:NAME_CONSTRAINTS_it
libnode.so:NAME_CONSTRAINTS_new
libnode.so:NAMING_AUTHORITY_free
libnode.so:NAMING_AUTHORITY_get0_authorityId
libnode.so:NAMING_AUTHORITY_get0_authorityText
libnode.so:NAMING_AUTHORITY_get0_authorityURL
libnode.so:NAMING_AUTHORITY_it
libnode.so:NAMING_AUTHORITY_new
libnode.so:NAMING_AUTHORITY_set0_authorityId
libnode.so:NAMING_AUTHORITY_set0_authorityText
libnode.so:NAMING_AUTHORITY_set0_authorityURL
libnode.so:NCONF_WIN32
libnode.so:NCONF_default
libnode.so:NCONF_dump_bio
libnode.so:NCONF_dump_fp
libnode.so:NCONF_free
libnode.so:NCONF_free_data
libnode.so:NCONF_get_number_e
libnode.so:NCONF_get_section
libnode.so:NCONF_get_string
libnode.so:NCONF_load
libnode.so:NCONF_load_bio
libnode.so:NCONF_load_fp
libnode.so:NCONF_new
libnode.so:NETSCAPE_CERT_SEQUENCE_free
libnode.so:NETSCAPE_CERT_SEQUENCE_it
libnode.so:NETSCAPE_CERT_SEQUENCE_new
libnode.so:NETSCAPE_ENCRYPTED_PKEY_free
libnode.so:NETSCAPE_ENCRYPTED_PKEY_new
libnode.so:NETSCAPE_PKEY_free
libnode.so:NETSCAPE_PKEY_new
libnode.so:NETSCAPE_SPKAC_free
libnode.so:NETSCAPE_SPKAC_it
libnode.so:NETSCAPE_SPKAC_new
libnode.so:NETSCAPE_SPKI_b64_decode
libnode.so:NETSCAPE_SPKI_b64_encode
libnode.so:NETSCAPE_SPKI_free
libnode.so:NETSCAPE_SPKI_get_pubkey
libnode.so:NETSCAPE_SPKI_it
libnode.so:NETSCAPE_SPKI_new
libnode.so:NETSCAPE_SPKI_print
libnode.so:NETSCAPE_SPKI_set_pubkey
libnode.so:NETSCAPE_SPKI_sign
libnode.so:NETSCAPE_SPKI_verify
libnode.so:NOTICEREF_free
libnode.so:NOTICEREF_it
libnode.so:NOTICEREF_new
libnode.so:OBJ_NAME_add
libnode.so:OBJ_NAME_cleanup
libnode.so:OBJ_NAME_do_all
libnode.so:OBJ_NAME_do_all_sorted
libnode.so:OBJ_NAME_get
libnode.so:OBJ_NAME_init
libnode.so:OBJ_NAME_new_index
libnode.so:OBJ_NAME_remove
libnode.so:OBJ_add_object
libnode.so:OBJ_add_sigid
libnode.so:OBJ_bsearch_
libnode.so:OBJ_bsearch_ex_
libnode.so:OBJ_bsearch_ssl_cipher_id
libnode.so:OBJ_cmp
libnode.so:OBJ_create
libnode.so:OBJ_create_objects
libnode.so:OBJ_dup
libnode.so:OBJ_find_sigid_algs
libnode.so:OBJ_find_sigid_by_algs
libnode.so:OBJ_get0_data
libnode.so:OBJ_length
libnode.so:OBJ_ln2nid
libnode.so:OBJ_new_nid
libnode.so:OBJ_nid2ln
libnode.so:OBJ_nid2obj
libnode.so:OBJ_nid2sn
libnode.so:OBJ_obj2nid
libnode.so:OBJ_obj2txt
libnode.so:OBJ_sigid_free
libnode.so:OBJ_sn2nid
libnode.so:OBJ_txt2nid
libnode.so:OBJ_txt2obj
libnode.so:OCSP_BASICRESP_add1_ext_i2d
libnode.so:OCSP_BASICRESP_add_ext
libnode.so:OCSP_BASICRESP_delete_ext
libnode.so:OCSP_BASICRESP_free
libnode.so:OCSP_BASICRESP_get1_ext_d2i
libnode.so:OCSP_BASICRESP_get_ext
libnode.so:OCSP_BASICRESP_get_ext_by_NID
libnode.so:OCSP_BASICRESP_get_ext_by_OBJ
libnode.so:OCSP_BASICRESP_get_ext_by_critical
libnode.so:OCSP_BASICRESP_get_ext_count
libnode.so:OCSP_BASICRESP_it
libnode.so:OCSP_BASICRESP_new
libnode.so:OCSP_CERTID_dup
libnode.so:OCSP_CERTID_free
libnode.so:OCSP_CERTID_it
libnode.so:OCSP_CERTID_new
libnode.so:OCSP_CERTSTATUS_free
libnode.so:OCSP_CERTSTATUS_it
libnode.so:OCSP_CERTSTATUS_new
libnode.so:OCSP_CRLID_free
libnode.so:OCSP_CRLID_it
libnode.so:OCSP_CRLID_new
libnode.so:OCSP_ONEREQ_add1_ext_i2d
libnode.so:OCSP_ONEREQ_add_ext
libnode.so:OCSP_ONEREQ_delete_ext
libnode.so:OCSP_ONEREQ_free
libnode.so:OCSP_ONEREQ_get1_ext_d2i
libnode.so:OCSP_ONEREQ_get_ext
libnode.so:OCSP_ONEREQ_get_ext_by_NID
libnode.so:OCSP_ONEREQ_get_ext_by_OBJ
libnode.so:OCSP_ONEREQ_get_ext_by_critical
libnode.so:OCSP_ONEREQ_get_ext_count
libnode.so:OCSP_ONEREQ_it
libnode.so:OCSP_ONEREQ_new
libnode.so:OCSP_REQINFO_free
libnode.so:OCSP_REQINFO_it
libnode.so:OCSP_REQINFO_new
libnode.so:OCSP_REQUEST_add1_ext_i2d
libnode.so:OCSP_REQUEST_add_ext
libnode.so:OCSP_REQUEST_delete_ext
libnode.so:OCSP_REQUEST_free
libnode.so:OCSP_REQUEST_get1_ext_d2i
libnode.so:OCSP_REQUEST_get_ext
libnode.so:OCSP_REQUEST_get_ext_by_NID
libnode.so:OCSP_REQUEST_get_ext_by_OBJ
libnode.so:OCSP_REQUEST_get_ext_by_critical
libnode.so:OCSP_REQUEST_get_ext_count
libnode.so:OCSP_REQUEST_it
libnode.so:OCSP_REQUEST_new
libnode.so:OCSP_REQUEST_print
libnode.so:OCSP_REQ_CTX_add1_header
libnode.so:OCSP_REQ_CTX_free
libnode.so:OCSP_REQ_CTX_get0_mem_bio
libnode.so:OCSP_REQ_CTX_http
libnode.so:OCSP_REQ_CTX_i2d
libnode.so:OCSP_REQ_CTX_nbio
libnode.so:OCSP_REQ_CTX_nbio_d2i
libnode.so:OCSP_REQ_CTX_new
libnode.so:OCSP_REQ_CTX_set1_req
libnode.so:OCSP_RESPBYTES_free
libnode.so:OCSP_RESPBYTES_it
libnode.so:OCSP_RESPBYTES_new
libnode.so:OCSP_RESPDATA_free
libnode.so:OCSP_RESPDATA_it
libnode.so:OCSP_RESPDATA_new
libnode.so:OCSP_RESPID_free
libnode.so:OCSP_RESPID_it
libnode.so:OCSP_RESPID_match
libnode.so:OCSP_RESPID_new
libnode.so:OCSP_RESPID_set_by_key
libnode.so:OCSP_RESPID_set_by_name
libnode.so:OCSP_RESPONSE_free
libnode.so:OCSP_RESPONSE_it
libnode.so:OCSP_RESPONSE_new
libnode.so:OCSP_RESPONSE_print
libnode.so:OCSP_REVOKEDINFO_free
libnode.so:OCSP_REVOKEDINFO_it
libnode.so:OCSP_REVOKEDINFO_new
libnode.so:OCSP_SERVICELOC_free
libnode.so:OCSP_SERVICELOC_it
libnode.so:OCSP_SERVICELOC_new
libnode.so:OCSP_SIGNATURE_free
libnode.so:OCSP_SIGNATURE_it
libnode.so:OCSP_SIGNATURE_new
libnode.so:OCSP_SINGLERESP_add1_ext_i2d
libnode.so:OCSP_SINGLERESP_add_ext
libnode.so:OCSP_SINGLERESP_delete_ext
libnode.so:OCSP_SINGLERESP_free
libnode.so:OCSP_SINGLERESP_get0_id
libnode.so:OCSP_SINGLERESP_get1_ext_d2i
libnode.so:OCSP_SINGLERESP_get_ext
libnode.so:OCSP_SINGLERESP_get_ext_by_NID
libnode.so:OCSP_SINGLERESP_get_ext_by_OBJ
libnode.so:OCSP_SINGLERESP_get_ext_by_critical
libnode.so:OCSP_SINGLERESP_get_ext_count
libnode.so:OCSP_SINGLERESP_it
libnode.so:OCSP_SINGLERESP_new
libnode.so:OCSP_accept_responses_new
libnode.so:OCSP_archive_cutoff_new
libnode.so:OCSP_basic_add1_cert
libnode.so:OCSP_basic_add1_nonce
libnode.so:OCSP_basic_add1_status
libnode.so:OCSP_basic_sign
libnode.so:OCSP_basic_sign_ctx
libnode.so:OCSP_basic_verify
libnode.so:OCSP_cert_id_new
libnode.so:OCSP_cert_status_str
libnode.so:OCSP_cert_to_id
libnode.so:OCSP_check_nonce
libnode.so:OCSP_check_validity
libnode.so:OCSP_copy_nonce
libnode.so:OCSP_crlID_new
libnode.so:OCSP_crl_reason_str
libnode.so:OCSP_id_cmp
libnode.so:OCSP_id_get0_info
libnode.so:OCSP_id_issuer_cmp
libnode.so:OCSP_onereq_get0_id
libnode.so:OCSP_parse_url
libnode.so:OCSP_request_add0_id
libnode.so:OCSP_request_add1_cert
libnode.so:OCSP_request_add1_nonce
libnode.so:OCSP_request_is_signed
libnode.so:OCSP_request_onereq_count
libnode.so:OCSP_request_onereq_get0
libnode.so:OCSP_request_set1_name
libnode.so:OCSP_request_sign
libnode.so:OCSP_request_verify
libnode.so:OCSP_resp_count
libnode.so:OCSP_resp_find
libnode.so:OCSP_resp_find_status
libnode.so:OCSP_resp_get0
libnode.so:OCSP_resp_get0_certs
libnode.so:OCSP_resp_get0_id
libnode.so:OCSP_resp_get0_produced_at
libnode.so:OCSP_resp_get0_respdata
libnode.so:OCSP_resp_get0_signature
libnode.so:OCSP_resp_get0_signer
libnode.so:OCSP_resp_get0_tbs_sigalg
libnode.so:OCSP_resp_get1_id
libnode.so:OCSP_response_create
libnode.so:OCSP_response_get1_basic
libnode.so:OCSP_response_status
libnode.so:OCSP_response_status_str
libnode.so:OCSP_sendreq_bio
libnode.so:OCSP_sendreq_nbio
libnode.so:OCSP_sendreq_new
libnode.so:OCSP_set_max_response_length
libnode.so:OCSP_single_get0_status
libnode.so:OCSP_url_svcloc_new
libnode.so:OPENSSL_DIR_end
libnode.so:OPENSSL_DIR_read
libnode.so:OPENSSL_INIT_free
libnode.so:OPENSSL_INIT_new
libnode.so:OPENSSL_INIT_set_config_appname
libnode.so:OPENSSL_INIT_set_config_file_flags
libnode.so:OPENSSL_INIT_set_config_filename
libnode.so:OPENSSL_LH_delete
libnode.so:OPENSSL_LH_doall
libnode.so:OPENSSL_LH_doall_arg
libnode.so:OPENSSL_LH_error
libnode.so:OPENSSL_LH_free
libnode.so:OPENSSL_LH_get_down_load
libnode.so:OPENSSL_LH_insert
libnode.so:OPENSSL_LH_new
libnode.so:OPENSSL_LH_node_stats
libnode.so:OPENSSL_LH_node_stats_bio
libnode.so:OPENSSL_LH_node_usage_stats
libnode.so:OPENSSL_LH_node_usage_stats_bio
libnode.so:OPENSSL_LH_num_items
libnode.so:OPENSSL_LH_retrieve
libnode.so:OPENSSL_LH_set_down_load
libnode.so:OPENSSL_LH_stats
libnode.so:OPENSSL_LH_stats_bio
libnode.so:OPENSSL_LH_strhash
libnode.so:OPENSSL_asc2uni
libnode.so:OPENSSL_atexit
libnode.so:OPENSSL_buf2hexstr
libnode.so:OPENSSL_cipher_name
libnode.so:OPENSSL_cleanse
libnode.so:OPENSSL_cleanup
libnode.so:OPENSSL_config
libnode.so:OPENSSL_cpuid_setup
libnode.so:OPENSSL_die
libnode.so:OPENSSL_fork_child
libnode.so:OPENSSL_fork_parent
libnode.so:OPENSSL_fork_prepare
libnode.so:OPENSSL_gmtime
libnode.so:OPENSSL_gmtime_adj
libnode.so:OPENSSL_gmtime_diff
libnode.so:OPENSSL_hexchar2int
libnode.so:OPENSSL_hexstr2buf
libnode.so:OPENSSL_ia32cap_P
libnode.so:OPENSSL_init
libnode.so:OPENSSL_init_crypto
libnode.so:OPENSSL_init_ssl
libnode.so:OPENSSL_instrument_bus
libnode.so:OPENSSL_instrument_bus2
libnode.so:OPENSSL_isservice
libnode.so:OPENSSL_issetugid
libnode.so:OPENSSL_load_builtin_modules
libnode.so:OPENSSL_memcmp
libnode.so:OPENSSL_rdtsc
libnode.so:OPENSSL_showfatal
libnode.so:OPENSSL_sk_deep_copy
libnode.so:OPENSSL_sk_delete
libnode.so:OPENSSL_sk_delete_ptr
libnode.so:OPENSSL_sk_dup
libnode.so:OPENSSL_sk_find
libnode.so:OPENSSL_sk_find_ex
libnode.so:OPENSSL_sk_free
libnode.so:OPENSSL_sk_insert
libnode.so:OPENSSL_sk_is_sorted
libnode.so:OPENSSL_sk_new
libnode.so:OPENSSL_sk_new_null
libnode.so:OPENSSL_sk_new_reserve
libnode.so:OPENSSL_sk_num
libnode.so:OPENSSL_sk_pop
libnode.so:OPENSSL_sk_pop_free
libnode.so:OPENSSL_sk_push
libnode.so:OPENSSL_sk_reserve
libnode.so:OPENSSL_sk_set
libnode.so:OPENSSL_sk_set_cmp_func
libnode.so:OPENSSL_sk_shift
libnode.so:OPENSSL_sk_sort
libnode.so:OPENSSL_sk_unshift
libnode.so:OPENSSL_sk_value
libnode.so:OPENSSL_sk_zero
libnode.so:OPENSSL_strlcat
libnode.so:OPENSSL_strlcpy
libnode.so:OPENSSL_strnlen
libnode.so:OPENSSL_thread_stop
libnode.so:OPENSSL_uni2asc
libnode.so:OPENSSL_uni2utf8
libnode.so:OPENSSL_utf82uni
libnode.so:OSSL_STORE_INFO_free
libnode.so:OSSL_STORE_INFO_get0_CERT
libnode.so:OSSL_STORE_INFO_get0_CRL
libnode.so:OSSL_STORE_INFO_get0_NAME
libnode.so:OSSL_STORE_INFO_get0_NAME_description
libnode.so:OSSL_STORE_INFO_get0_PARAMS
libnode.so:OSSL_STORE_INFO_get0_PKEY
libnode.so:OSSL_STORE_INFO_get1_CERT
libnode.so:OSSL_STORE_INFO_get1_CRL
libnode.so:OSSL_STORE_INFO_get1_NAME
libnode.so:OSSL_STORE_INFO_get1_NAME_description
libnode.so:OSSL_STORE_INFO_get1_PARAMS
libnode.so:OSSL_STORE_INFO_get1_PKEY
libnode.so:OSSL_STORE_INFO_get_type
libnode.so:OSSL_STORE_INFO_new_CERT
libnode.so:OSSL_STORE_INFO_new_CRL
libnode.so:OSSL_STORE_INFO_new_NAME
libnode.so:OSSL_STORE_INFO_new_PARAMS
libnode.so:OSSL_STORE_INFO_new_PKEY
libnode.so:OSSL_STORE_INFO_set0_NAME_description
libnode.so:OSSL_STORE_INFO_type_string
libnode.so:OSSL_STORE_LOADER_free
libnode.so:OSSL_STORE_LOADER_get0_engine
libnode.so:OSSL_STORE_LOADER_get0_scheme
libnode.so:OSSL_STORE_LOADER_new
libnode.so:OSSL_STORE_LOADER_set_close
libnode.so:OSSL_STORE_LOADER_set_ctrl
libnode.so:OSSL_STORE_LOADER_set_eof
libnode.so:OSSL_STORE_LOADER_set_error
libnode.so:OSSL_STORE_LOADER_set_expect
libnode.so:OSSL_STORE_LOADER_set_find
libnode.so:OSSL_STORE_LOADER_set_load
libnode.so:OSSL_STORE_LOADER_set_open
libnode.so:OSSL_STORE_SEARCH_by_alias
libnode.so:OSSL_STORE_SEARCH_by_issuer_serial
libnode.so:OSSL_STORE_SEARCH_by_key_fingerprint
libnode.so:OSSL_STORE_SEARCH_by_name
libnode.so:OSSL_STORE_SEARCH_free
libnode.so:OSSL_STORE_SEARCH_get0_bytes
libnode.so:OSSL_STORE_SEARCH_get0_digest
libnode.so:OSSL_STORE_SEARCH_get0_name
libnode.so:OSSL_STORE_SEARCH_get0_serial
libnode.so:OSSL_STORE_SEARCH_get0_string
libnode.so:OSSL_STORE_SEARCH_get_type
libnode.so:OSSL_STORE_close
libnode.so:OSSL_STORE_ctrl
libnode.so:OSSL_STORE_do_all_loaders
libnode.so:OSSL_STORE_eof
libnode.so:OSSL_STORE_error
libnode.so:OSSL_STORE_expect
libnode.so:OSSL_STORE_find
libnode.so:OSSL_STORE_load
libnode.so:OSSL_STORE_open
libnode.so:OSSL_STORE_register_loader
libnode.so:OSSL_STORE_supports_search
libnode.so:OSSL_STORE_unregister_loader
libnode.so:OSSL_STORE_vctrl
libnode.so:OTHERNAME_cmp
libnode.so:OTHERNAME_free
libnode.so:OTHERNAME_it
libnode.so:OTHERNAME_new
libnode.so:OpenSSL_version
libnode.so:OpenSSL_version_num
libnode.so:PBE2PARAM_free
libnode.so:PBE2PARAM_it
libnode.so:PBE2PARAM_new
libnode.so:PBEPARAM_free
libnode.so:PBEPARAM_it
libnode.so:PBEPARAM_new
libnode.so:PBKDF2PARAM_free
libnode.so:PBKDF2PARAM_it
libnode.so:PBKDF2PARAM_new
libnode.so:PEM_ASN1_read
libnode.so:PEM_ASN1_read_bio
libnode.so:PEM_ASN1_write
libnode.so:PEM_ASN1_write_bio
libnode.so:PEM_SignFinal
libnode.so:PEM_SignInit
libnode.so:PEM_SignUpdate
libnode.so:PEM_X509_INFO_read
libnode.so:PEM_X509_INFO_read_bio
libnode.so:PEM_X509_INFO_write_bio
libnode.so:PEM_bytes_read_bio
libnode.so:PEM_bytes_read_bio_secmem
libnode.so:PEM_def_callback
libnode.so:PEM_dek_info
libnode.so:PEM_do_header
libnode.so:PEM_get_EVP_CIPHER_INFO
libnode.so:PEM_proc_type
libnode.so:PEM_read
libnode.so:PEM_read_CMS
libnode.so:PEM_read_DHparams
libnode.so:PEM_read_DSAPrivateKey
libnode.so:PEM_read_DSA_PUBKEY
libnode.so:PEM_read_DSAparams
libnode.so:PEM_read_ECPKParameters
libnode.so:PEM_read_ECPrivateKey
libnode.so:PEM_read_EC_PUBKEY
libnode.so:PEM_read_NETSCAPE_CERT_SEQUENCE
libnode.so:PEM_read_PKCS7
libnode.so:PEM_read_PKCS8
libnode.so:PEM_read_PKCS8_PRIV_KEY_INFO
libnode.so:PEM_read_PUBKEY
libnode.so:PEM_read_PrivateKey
libnode.so:PEM_read_RSAPrivateKey
libnode.so:PEM_read_RSAPublicKey
libnode.so:PEM_read_RSA_PUBKEY
libnode.so:PEM_read_SSL_SESSION
libnode.so:PEM_read_X509
libnode.so:PEM_read_X509_AUX
libnode.so:PEM_read_X509_CRL
libnode.so:PEM_read_X509_REQ
libnode.so:PEM_read_bio
libnode.so:PEM_read_bio_CMS
libnode.so:PEM_read_bio_DHparams
libnode.so:PEM_read_bio_DSAPrivateKey
libnode.so:PEM_read_bio_DSA_PUBKEY
libnode.so:PEM_read_bio_DSAparams
libnode.so:PEM_read_bio_ECPKParameters
libnode.so:PEM_read_bio_ECPrivateKey
libnode.so:PEM_read_bio_EC_PUBKEY
libnode.so:PEM_read_bio_NETSCAPE_CERT_SEQUENCE
libnode.so:PEM_read_bio_PKCS7
libnode.so:PEM_read_bio_PKCS8
libnode.so:PEM_read_bio_PKCS8_PRIV_KEY_INFO
libnode.so:PEM_read_bio_PUBKEY
libnode.so:PEM_read_bio_Parameters
libnode.so:PEM_read_bio_PrivateKey
libnode.so:PEM_read_bio_RSAPrivateKey
libnode.so:PEM_read_bio_RSAPublicKey
libnode.so:PEM_read_bio_RSA_PUBKEY
libnode.so:PEM_read_bio_SSL_SESSION
libnode.so:PEM_read_bio_X509
libnode.so:PEM_read_bio_X509_AUX
libnode.so:PEM_read_bio_X509_CRL
libnode.so:PEM_read_bio_X509_REQ
libnode.so:PEM_read_bio_ex
libnode.so:PEM_write
libnode.so:PEM_write_CMS
libnode.so:PEM_write_DHparams
libnode.so:PEM_write_DHxparams
libnode.so:PEM_write_DSAPrivateKey
libnode.so:PEM_write_DSA_PUBKEY
libnode.so:PEM_write_DSAparams
libnode.so:PEM_write_ECPKParameters
libnode.so:PEM_write_ECPrivateKey
libnode.so:PEM_write_EC_PUBKEY
libnode.so:PEM_write_NETSCAPE_CERT_SEQUENCE
libnode.so:PEM_write_PKCS7
libnode.so:PEM_write_PKCS8
libnode.so:PEM_write_PKCS8PrivateKey
libnode.so:PEM_write_PKCS8PrivateKey_nid
libnode.so:PEM_write_PKCS8_PRIV_KEY_INFO
libnode.so:PEM_write_PUBKEY
libnode.so:PEM_write_PrivateKey
libnode.so:PEM_write_RSAPrivateKey
libnode.so:PEM_write_RSAPublicKey
libnode.so:PEM_write_RSA_PUBKEY
libnode.so:PEM_write_SSL_SESSION
libnode.so:PEM_write_X509
libnode.so:PEM_write_X509_AUX
libnode.so:PEM_write_X509_CRL
libnode.so:PEM_write_X509_REQ
libnode.so:PEM_write_X509_REQ_NEW
libnode.so:PEM_write_bio
libnode.so:PEM_write_bio_ASN1_stream
libnode.so:PEM_write_bio_CMS
libnode.so:PEM_write_bio_CMS_stream
libnode.so:PEM_write_bio_DHparams
libnode.so:PEM_write_bio_DHxparams
libnode.so:PEM_write_bio_DSAPrivateKey
libnode.so:PEM_write_bio_DSA_PUBKEY
libnode.so:PEM_write_bio_DSAparams
libnode.so:PEM_write_bio_ECPKParameters
libnode.so:PEM_write_bio_ECPrivateKey
libnode.so:PEM_write_bio_EC_PUBKEY
libnode.so:PEM_write_bio_NETSCAPE_CERT_SEQUENCE
libnode.so:PEM_write_bio_PKCS7
libnode.so:PEM_write_bio_PKCS7_stream
libnode.so:PEM_write_bio_PKCS8
libnode.so:PEM_write_bio_PKCS8PrivateKey
libnode.so:PEM_write_bio_PKCS8PrivateKey_nid
libnode.so:PEM_write_bio_PKCS8_PRIV_KEY_INFO
libnode.so:PEM_write_bio_PUBKEY
libnode.so:PEM_write_bio_Parameters
libnode.so:PEM_write_bio_PrivateKey
libnode.so:PEM_write_bio_PrivateKey_traditional
libnode.so:PEM_write_bio_RSAPrivateKey
libnode.so:PEM_write_bio_RSAPublicKey
libnode.so:PEM_write_bio_RSA_PUBKEY
libnode.so:PEM_write_bio_SSL_SESSION
libnode.so:PEM_write_bio_X509
libnode.so:PEM_write_bio_X509_AUX
libnode.so:PEM_write_bio_X509_CRL
libnode.so:PEM_write_bio_X509_REQ
libnode.so:PEM_write_bio_X509_REQ_NEW
libnode.so:PKCS12_AUTHSAFES_it
libnode.so:PKCS12_BAGS_free
libnode.so:PKCS12_BAGS_it
libnode.so:PKCS12_BAGS_new
libnode.so:PKCS12_MAC_DATA_free
libnode.so:PKCS12_MAC_DATA_it
libnode.so:PKCS12_MAC_DATA_new
libnode.so:PKCS12_PBE_add
libnode.so:PKCS12_PBE_keyivgen
libnode.so:PKCS12_SAFEBAGS_it
libnode.so:PKCS12_SAFEBAG_create0_p8inf
libnode.so:PKCS12_SAFEBAG_create0_pkcs8
libnode.so:PKCS12_SAFEBAG_create_cert
libnode.so:PKCS12_SAFEBAG_create_crl
libnode.so:PKCS12_SAFEBAG_create_pkcs8_encrypt
libnode.so:PKCS12_SAFEBAG_free
libnode.so:PKCS12_SAFEBAG_get0_attr
libnode.so:PKCS12_SAFEBAG_get0_attrs
libnode.so:PKCS12_SAFEBAG_get0_p8inf
libnode.so:PKCS12_SAFEBAG_get0_pkcs8
libnode.so:PKCS12_SAFEBAG_get0_safes
libnode.so:PKCS12_SAFEBAG_get0_type
libnode.so:PKCS12_SAFEBAG_get1_cert
libnode.so:PKCS12_SAFEBAG_get1_crl
libnode.so:PKCS12_SAFEBAG_get_bag_nid
libnode.so:PKCS12_SAFEBAG_get_nid
libnode.so:PKCS12_SAFEBAG_it
libnode.so:PKCS12_SAFEBAG_new
libnode.so:PKCS12_add_CSPName_asc
libnode.so:PKCS12_add_cert
libnode.so:PKCS12_add_friendlyname_asc
libnode.so:PKCS12_add_friendlyname_uni
libnode.so:PKCS12_add_friendlyname_utf8
libnode.so:PKCS12_add_key
libnode.so:PKCS12_add_localkeyid
libnode.so:PKCS12_add_safe
libnode.so:PKCS12_add_safes
libnode.so:PKCS12_create
libnode.so:PKCS12_decrypt_skey
libnode.so:PKCS12_free
libnode.so:PKCS12_gen_mac
libnode.so:PKCS12_get0_mac
libnode.so:PKCS12_get_attr
libnode.so:PKCS12_get_attr_gen
libnode.so:PKCS12_get_friendlyname
libnode.so:PKCS12_init
libnode.so:PKCS12_it
libnode.so:PKCS12_item_decrypt_d2i
libnode.so:PKCS12_item_i2d_encrypt
libnode.so:PKCS12_item_pack_safebag
libnode.so:PKCS12_key_gen_asc
libnode.so:PKCS12_key_gen_uni
libnode.so:PKCS12_key_gen_utf8
libnode.so:PKCS12_mac_present
libnode.so:PKCS12_new
libnode.so:PKCS12_newpass
libnode.so:PKCS12_pack_authsafes
libnode.so:PKCS12_pack_p7data
libnode.so:PKCS12_pack_p7encdata
libnode.so:PKCS12_parse
libnode.so:PKCS12_pbe_crypt
libnode.so:PKCS12_set_mac
libnode.so:PKCS12_setup_mac
libnode.so:PKCS12_unpack_authsafes
libnode.so:PKCS12_unpack_p7data
libnode.so:PKCS12_unpack_p7encdata
libnode.so:PKCS12_verify_mac
libnode.so:PKCS1_MGF1
libnode.so:PKCS5_PBE_add
libnode.so:PKCS5_PBE_keyivgen
libnode.so:PKCS5_PBKDF2_HMAC
libnode.so:PKCS5_PBKDF2_HMAC_SHA1
libnode.so:PKCS5_pbe2_set
libnode.so:PKCS5_pbe2_set_iv
libnode.so:PKCS5_pbe2_set_scrypt
libnode.so:PKCS5_pbe_set
libnode.so:PKCS5_pbe_set0_algor
libnode.so:PKCS5_pbkdf2_set
libnode.so:PKCS5_v2_PBE_keyivgen
libnode.so:PKCS5_v2_PBKDF2_keyivgen
libnode.so:PKCS5_v2_scrypt_keyivgen
libnode.so:PKCS7_ATTR_SIGN_it
libnode.so:PKCS7_ATTR_VERIFY_it
libnode.so:PKCS7_DIGEST_free
libnode.so:PKCS7_DIGEST_it
libnode.so:PKCS7_DIGEST_new
libnode.so:PKCS7_ENCRYPT_free
libnode.so:PKCS7_ENCRYPT_it
libnode.so:PKCS7_ENCRYPT_new
libnode.so:PKCS7_ENC_CONTENT_free
libnode.so:PKCS7_ENC_CONTENT_it
libnode.so:PKCS7_ENC_CONTENT_new
libnode.so:PKCS7_ENVELOPE_free
libnode.so:PKCS7_ENVELOPE_it
libnode.so:PKCS7_ENVELOPE_new
libnode.so:PKCS7_ISSUER_AND_SERIAL_digest
libnode.so:PKCS7_ISSUER_AND_SERIAL_free
libnode.so:PKCS7_ISSUER_AND_SERIAL_it
libnode.so:PKCS7_ISSUER_AND_SERIAL_new
libnode.so:PKCS7_RECIP_INFO_free
libnode.so:PKCS7_RECIP_INFO_get0_alg
libnode.so:PKCS7_RECIP_INFO_it
libnode.so:PKCS7_RECIP_INFO_new
libnode.so:PKCS7_RECIP_INFO_set
libnode.so:PKCS7_SIGNED_free
libnode.so:PKCS7_SIGNED_it
libnode.so:PKCS7_SIGNED_new
libnode.so:PKCS7_SIGNER_INFO_free
libnode.so:PKCS7_SIGNER_INFO_get0_algs
libnode.so:PKCS7_SIGNER_INFO_it
libnode.so:PKCS7_SIGNER_INFO_new
libnode.so:PKCS7_SIGNER_INFO_set
libnode.so:PKCS7_SIGNER_INFO_sign
libnode.so:PKCS7_SIGN_ENVELOPE_free
libnode.so:PKCS7_SIGN_ENVELOPE_it
libnode.so:PKCS7_SIGN_ENVELOPE_new
libnode.so:PKCS7_add0_attrib_signing_time
libnode.so:PKCS7_add1_attrib_digest
libnode.so:PKCS7_add_attrib_content_type
libnode.so:PKCS7_add_attrib_smimecap
libnode.so:PKCS7_add_attribute
libnode.so:PKCS7_add_certificate
libnode.so:PKCS7_add_crl
libnode.so:PKCS7_add_recipient
libnode.so:PKCS7_add_recipient_info
libnode.so:PKCS7_add_signature
libnode.so:PKCS7_add_signed_attribute
libnode.so:PKCS7_add_signer
libnode.so:PKCS7_cert_from_signer_info
libnode.so:PKCS7_content_new
libnode.so:PKCS7_ctrl
libnode.so:PKCS7_dataDecode
libnode.so:PKCS7_dataFinal
libnode.so:PKCS7_dataInit
libnode.so:PKCS7_dataVerify
libnode.so:PKCS7_decrypt
libnode.so:PKCS7_digest_from_attributes
libnode.so:PKCS7_dup
libnode.so:PKCS7_encrypt
libnode.so:PKCS7_final
libnode.so:PKCS7_free
libnode.so:PKCS7_get0_signers
libnode.so:PKCS7_get_attribute
libnode.so:PKCS7_get_issuer_and_serial
libnode.so:PKCS7_get_signed_attribute
libnode.so:PKCS7_get_signer_info
libnode.so:PKCS7_get_smimecap
libnode.so:PKCS7_it
libnode.so:PKCS7_new
libnode.so:PKCS7_print_ctx
libnode.so:PKCS7_set0_type_other
libnode.so:PKCS7_set_attributes
libnode.so:PKCS7_set_cipher
libnode.so:PKCS7_set_content
libnode.so:PKCS7_set_digest
libnode.so:PKCS7_set_signed_attributes
libnode.so:PKCS7_set_type
libnode.so:PKCS7_sign
libnode.so:PKCS7_sign_add_signer
libnode.so:PKCS7_signatureVerify
libnode.so:PKCS7_simple_smimecap
libnode.so:PKCS7_stream
libnode.so:PKCS7_to_TS_TST_INFO
libnode.so:PKCS7_verify
libnode.so:PKCS8_PRIV_KEY_INFO_free
libnode.so:PKCS8_PRIV_KEY_INFO_it
libnode.so:PKCS8_PRIV_KEY_INFO_new
libnode.so:PKCS8_add_keyusage
libnode.so:PKCS8_decrypt
libnode.so:PKCS8_encrypt
libnode.so:PKCS8_get_attr
libnode.so:PKCS8_pkey_add1_attr_by_NID
libnode.so:PKCS8_pkey_get0
libnode.so:PKCS8_pkey_get0_attrs
libnode.so:PKCS8_pkey_set0
libnode.so:PKCS8_set0_pbe
libnode.so:PKEY_USAGE_PERIOD_free
libnode.so:PKEY_USAGE_PERIOD_it
libnode.so:PKEY_USAGE_PERIOD_new
libnode.so:POLICYINFO_free
libnode.so:POLICYINFO_it
libnode.so:POLICYINFO_new
libnode.so:POLICYQUALINFO_free
libnode.so:POLICYQUALINFO_it
libnode.so:POLICYQUALINFO_new
libnode.so:POLICY_CONSTRAINTS_free
libnode.so:POLICY_CONSTRAINTS_it
libnode.so:POLICY_CONSTRAINTS_new
libnode.so:POLICY_MAPPINGS_it
libnode.so:POLICY_MAPPING_free
libnode.so:POLICY_MAPPING_it
libnode.so:POLICY_MAPPING_new
libnode.so:PROFESSION_INFO_free
libnode.so:PROFESSION_INFO_get0_addProfessionInfo
libnode.so:PROFESSION_INFO_get0_namingAuthority
libnode.so:PROFESSION_INFO_get0_professionItems
libnode.so:PROFESSION_INFO_get0_professionOIDs
libnode.so:PROFESSION_INFO_get0_registrationNumber
libnode.so:PROFESSION_INFO_it
libnode.so:PROFESSION_INFO_new
libnode.so:PROFESSION_INFO_set0_addProfessionInfo
libnode.so:PROFESSION_INFO_set0_namingAuthority
libnode.so:PROFESSION_INFO_set0_professionItems
libnode.so:PROFESSION_INFO_set0_professionOIDs
libnode.so:PROFESSION_INFO_set0_registrationNumber
libnode.so:PROXY_CERT_INFO_EXTENSION_free
libnode.so:PROXY_CERT_INFO_EXTENSION_it
libnode.so:PROXY_CERT_INFO_EXTENSION_new
libnode.so:PROXY_POLICY_free
libnode.so:PROXY_POLICY_it
libnode.so:PROXY_POLICY_new
libnode.so:Poly1305_Final
libnode.so:Poly1305_Init
libnode.so:Poly1305_Update
libnode.so:Poly1305_ctx_size
libnode.so:RAND_DRBG_bytes
libnode.so:RAND_DRBG_free
libnode.so:RAND_DRBG_generate
libnode.so:RAND_DRBG_get0_master
libnode.so:RAND_DRBG_get0_private
libnode.so:RAND_DRBG_get0_public
libnode.so:RAND_DRBG_get_ex_data
libnode.so:RAND_DRBG_instantiate
libnode.so:RAND_DRBG_new
libnode.so:RAND_DRBG_reseed
libnode.so:RAND_DRBG_secure_new
libnode.so:RAND_DRBG_set
libnode.so:RAND_DRBG_set_callbacks
libnode.so:RAND_DRBG_set_defaults
libnode.so:RAND_DRBG_set_ex_data
libnode.so:RAND_DRBG_set_reseed_defaults
libnode.so:RAND_DRBG_set_reseed_interval
libnode.so:RAND_DRBG_set_reseed_time_interval
libnode.so:RAND_DRBG_uninstantiate
libnode.so:RAND_OpenSSL
libnode.so:RAND_add
libnode.so:RAND_bytes
libnode.so:RAND_file_name
libnode.so:RAND_get_rand_method
libnode.so:RAND_keep_random_devices_open
libnode.so:RAND_load_file
libnode.so:RAND_poll
libnode.so:RAND_priv_bytes
libnode.so:RAND_pseudo_bytes
libnode.so:RAND_seed
libnode.so:RAND_set_rand_engine
libnode.so:RAND_set_rand_method
libnode.so:RAND_status
libnode.so:RAND_write_file
libnode.so:RC2_cbc_encrypt
libnode.so:RC2_cfb64_encrypt
libnode.so:RC2_decrypt
libnode.so:RC2_ecb_encrypt
libnode.so:RC2_encrypt
libnode.so:RC2_ofb64_encrypt
libnode.so:RC2_set_key
libnode.so:RC4
libnode.so:RC4_options
libnode.so:RC4_set_key
libnode.so:RECORD_LAYER_clear
libnode.so:RECORD_LAYER_get_rrec_length
libnode.so:RECORD_LAYER_init
libnode.so:RECORD_LAYER_is_sslv2_record
libnode.so:RECORD_LAYER_processed_read_pending
libnode.so:RECORD_LAYER_read_pending
libnode.so:RECORD_LAYER_release
libnode.so:RECORD_LAYER_reset_read_sequence
libnode.so:RECORD_LAYER_reset_write_sequence
libnode.so:RECORD_LAYER_write_pending
libnode.so:RIPEMD160
libnode.so:RIPEMD160_Final
libnode.so:RIPEMD160_Init
libnode.so:RIPEMD160_Transform
libnode.so:RIPEMD160_Update
libnode.so:RSAPrivateKey_dup
libnode.so:RSAPrivateKey_it
libnode.so:RSAPublicKey_dup
libnode.so:RSAPublicKey_it
libnode.so:RSA_OAEP_PARAMS_free
libnode.so:RSA_OAEP_PARAMS_it
libnode.so:RSA_OAEP_PARAMS_new
libnode.so:RSA_PKCS1_OpenSSL
libnode.so:RSA_PRIME_INFO_it
libnode.so:RSA_PSS_PARAMS_free
libnode.so:RSA_PSS_PARAMS_it
libnode.so:RSA_PSS_PARAMS_new
libnode.so:RSA_X931_derive_ex
libnode.so:RSA_X931_generate_key_ex
libnode.so:RSA_X931_hash_id
libnode.so:RSA_bits
libnode.so:RSA_blinding_off
libnode.so:RSA_blinding_on
libnode.so:RSA_check_key
libnode.so:RSA_check_key_ex
libnode.so:RSA_clear_flags
libnode.so:RSA_flags
libnode.so:RSA_free
libnode.so:RSA_generate_key
libnode.so:RSA_generate_key_ex
libnode.so:RSA_generate_multi_prime_key
libnode.so:RSA_get0_crt_params
libnode.so:RSA_get0_d
libnode.so:RSA_get0_dmp1
libnode.so:RSA_get0_dmq1
libnode.so:RSA_get0_e
libnode.so:RSA_get0_engine
libnode.so:RSA_get0_factors
libnode.so:RSA_get0_iqmp
libnode.so:RSA_get0_key
libnode.so:RSA_get0_multi_prime_crt_params
libnode.so:RSA_get0_multi_prime_factors
libnode.so:RSA_get0_n
libnode.so:RSA_get0_p
libnode.so:RSA_get0_pss_params
libnode.so:RSA_get0_q
libnode.so:RSA_get_default_method
libnode.so:RSA_get_ex_data
libnode.so:RSA_get_method
libnode.so:RSA_get_multi_prime_extra_count
libnode.so:RSA_get_version
libnode.so:RSA_meth_dup
libnode.so:RSA_meth_free
libnode.so:RSA_meth_get0_app_data
libnode.so:RSA_meth_get0_name
libnode.so:RSA_meth_get_bn_mod_exp
libnode.so:RSA_meth_get_finish
libnode.so:RSA_meth_get_flags
libnode.so:RSA_meth_get_init
libnode.so:RSA_meth_get_keygen
libnode.so:RSA_meth_get_mod_exp
libnode.so:RSA_meth_get_multi_prime_keygen
libnode.so:RSA_meth_get_priv_dec
libnode.so:RSA_meth_get_priv_enc
libnode.so:RSA_meth_get_pub_dec
libnode.so:RSA_meth_get_pub_enc
libnode.so:RSA_meth_get_sign
libnode.so:RSA_meth_get_verify
libnode.so:RSA_meth_new
libnode.so:RSA_meth_set0_app_data
libnode.so:RSA_meth_set1_name
libnode.so:RSA_meth_set_bn_mod_exp
libnode.so:RSA_meth_set_finish
libnode.so:RSA_meth_set_flags
libnode.so:RSA_meth_set_init
libnode.so:RSA_meth_set_keygen
libnode.so:RSA_meth_set_mod_exp
libnode.so:RSA_meth_set_multi_prime_keygen
libnode.so:RSA_meth_set_priv_dec
libnode.so:RSA_meth_set_priv_enc
libnode.so:RSA_meth_set_pub_dec
libnode.so:RSA_meth_set_pub_enc
libnode.so:RSA_meth_set_sign
libnode.so:RSA_meth_set_verify
libnode.so:RSA_new
libnode.so:RSA_new_method
libnode.so:RSA_null_method
libnode.so:RSA_padding_add_PKCS1_OAEP
libnode.so:RSA_padding_add_PKCS1_OAEP_mgf1
libnode.so:RSA_padding_add_PKCS1_PSS
libnode.so:RSA_padding_add_PKCS1_PSS_mgf1
libnode.so:RSA_padding_add_PKCS1_type_1
libnode.so:RSA_padding_add_PKCS1_type_2
libnode.so:RSA_padding_add_SSLv23
libnode.so:RSA_padding_add_X931
libnode.so:RSA_padding_add_none
libnode.so:RSA_padding_check_PKCS1_OAEP
libnode.so:RSA_padding_check_PKCS1_OAEP_mgf1
libnode.so:RSA_padding_check_PKCS1_type_1
libnode.so:RSA_padding_check_PKCS1_type_2
libnode.so:RSA_padding_check_SSLv23
libnode.so:RSA_padding_check_X931
libnode.so:RSA_padding_check_none
libnode.so:RSA_pkey_ctx_ctrl
libnode.so:RSA_print
libnode.so:RSA_print_fp
libnode.so:RSA_private_decrypt
libnode.so:RSA_private_encrypt
libnode.so:RSA_public_decrypt
libnode.so:RSA_public_encrypt
libnode.so:RSA_security_bits
libnode.so:RSA_set0_crt_params
libnode.so:RSA_set0_factors
libnode.so:RSA_set0_key
libnode.so:RSA_set0_multi_prime_params
libnode.so:RSA_set_default_method
libnode.so:RSA_set_ex_data
libnode.so:RSA_set_flags
libnode.so:RSA_set_method
libnode.so:RSA_setup_blinding
libnode.so:RSA_sign
libnode.so:RSA_sign_ASN1_OCTET_STRING
libnode.so:RSA_size
libnode.so:RSA_test_flags
libnode.so:RSA_up_ref
libnode.so:RSA_verify
libnode.so:RSA_verify_ASN1_OCTET_STRING
libnode.so:RSA_verify_PKCS1_PSS
libnode.so:RSA_verify_PKCS1_PSS_mgf1
libnode.so:SCRYPT_PARAMS_free
libnode.so:SCRYPT_PARAMS_it
libnode.so:SCRYPT_PARAMS_new
libnode.so:SCT_CTX_free
libnode.so:SCT_CTX_new
libnode.so:SCT_CTX_set1_cert
libnode.so:SCT_CTX_set1_issuer
libnode.so:SCT_CTX_set1_issuer_pubkey
libnode.so:SCT_CTX_set1_pubkey
libnode.so:SCT_CTX_set_time
libnode.so:SCT_CTX_verify
libnode.so:SCT_LIST_free
libnode.so:SCT_LIST_print
libnode.so:SCT_LIST_validate
libnode.so:SCT_free
libnode.so:SCT_get0_extensions
libnode.so:SCT_get0_log_id
libnode.so:SCT_get0_signature
libnode.so:SCT_get_log_entry_type
libnode.so:SCT_get_signature_nid
libnode.so:SCT_get_source
libnode.so:SCT_get_timestamp
libnode.so:SCT_get_validation_status
libnode.so:SCT_get_version
libnode.so:SCT_is_complete
libnode.so:SCT_new
libnode.so:SCT_new_from_base64
libnode.so:SCT_print
libnode.so:SCT_set0_extensions
libnode.so:SCT_set0_log_id
libnode.so:SCT_set0_signature
libnode.so:SCT_set1_extensions
libnode.so:SCT_set1_log_id
libnode.so:SCT_set1_signature
libnode.so:SCT_set_log_entry_type
libnode.so:SCT_set_signature_nid
libnode.so:SCT_set_source
libnode.so:SCT_set_timestamp
libnode.so:SCT_set_version
libnode.so:SCT_signature_is_complete
libnode.so:SCT_validate
libnode.so:SCT_validation_status_string
libnode.so:SEED_cbc_encrypt
libnode.so:SEED_cfb128_encrypt
libnode.so:SEED_decrypt
libnode.so:SEED_ecb_encrypt
libnode.so:SEED_encrypt
libnode.so:SEED_ofb128_encrypt
libnode.so:SEED_set_key
libnode.so:SHA1
libnode.so:SHA1_Final
libnode.so:SHA1_Init
libnode.so:SHA1_Transform
libnode.so:SHA1_Update
libnode.so:SHA224
libnode.so:SHA224_Final
libnode.so:SHA224_Init
libnode.so:SHA224_Update
libnode.so:SHA256
libnode.so:SHA256_Final
libnode.so:SHA256_Init
libnode.so:SHA256_Transform
libnode.so:SHA256_Update
libnode.so:SHA384
libnode.so:SHA384_Final
libnode.so:SHA384_Init
libnode.so:SHA384_Update
libnode.so:SHA3_absorb
libnode.so:SHA3_squeeze
libnode.so:SHA512
libnode.so:SHA512_Final
libnode.so:SHA512_Init
libnode.so:SHA512_Transform
libnode.so:SHA512_Update
libnode.so:SM2_Ciphertext_free
libnode.so:SM2_Ciphertext_it
libnode.so:SM2_Ciphertext_new
libnode.so:SM4_decrypt
libnode.so:SM4_encrypt
libnode.so:SM4_set_key
libnode.so:SMIME_crlf_copy
libnode.so:SMIME_read_ASN1
libnode.so:SMIME_read_CMS
libnode.so:SMIME_read_PKCS7
libnode.so:SMIME_text
libnode.so:SMIME_write_ASN1
libnode.so:SMIME_write_CMS
libnode.so:SMIME_write_PKCS7
libnode.so:SRP_Calc_A
libnode.so:SRP_Calc_A_param
libnode.so:SRP_Calc_B
libnode.so:SRP_Calc_client_key
libnode.so:SRP_Calc_server_key
libnode.so:SRP_Calc_u
libnode.so:SRP_Calc_x
libnode.so:SRP_VBASE_free
libnode.so:SRP_VBASE_get1_by_user
libnode.so:SRP_VBASE_get_by_user
libnode.so:SRP_VBASE_init
libnode.so:SRP_VBASE_new
libnode.so:SRP_Verify_A_mod_N
libnode.so:SRP_Verify_B_mod_N
libnode.so:SRP_check_known_gN_param
libnode.so:SRP_create_verifier
libnode.so:SRP_create_verifier_BN
libnode.so:SRP_get_default_gN
libnode.so:SRP_user_pwd_free
libnode.so:SSL3_BUFFER_clear
libnode.so:SSL3_BUFFER_release
libnode.so:SSL3_BUFFER_set_data
libnode.so:SSL3_RECORD_clear
libnode.so:SSL3_RECORD_release
libnode.so:SSL3_RECORD_set_seq_num
libnode.so:SSL_CIPHER_description
libnode.so:SSL_CIPHER_find
libnode.so:SSL_CIPHER_get_auth_nid
libnode.so:SSL_CIPHER_get_bits
libnode.so:SSL_CIPHER_get_cipher_nid
libnode.so:SSL_CIPHER_get_digest_nid
libnode.so:SSL_CIPHER_get_handshake_digest
libnode.so:SSL_CIPHER_get_id
libnode.so:SSL_CIPHER_get_kx_nid
libnode.so:SSL_CIPHER_get_name
libnode.so:SSL_CIPHER_get_protocol_id
libnode.so:SSL_CIPHER_get_version
libnode.so:SSL_CIPHER_is_aead
libnode.so:SSL_CIPHER_standard_name
libnode.so:SSL_COMP_add_compression_method
libnode.so:SSL_COMP_get0_name
libnode.so:SSL_COMP_get_compression_methods
libnode.so:SSL_COMP_get_id
libnode.so:SSL_COMP_get_name
libnode.so:SSL_COMP_set0_compression_methods
libnode.so:SSL_CONF_CTX_clear_flags
libnode.so:SSL_CONF_CTX_finish
libnode.so:SSL_CONF_CTX_free
libnode.so:SSL_CONF_CTX_new
libnode.so:SSL_CONF_CTX_set1_prefix
libnode.so:SSL_CONF_CTX_set_flags
libnode.so:SSL_CONF_CTX_set_ssl
libnode.so:SSL_CONF_CTX_set_ssl_ctx
libnode.so:SSL_CONF_cmd
libnode.so:SSL_CONF_cmd_argv
libnode.so:SSL_CONF_cmd_value_type
libnode.so:SSL_CTX_SRP_CTX_free
libnode.so:SSL_CTX_SRP_CTX_init
libnode.so:SSL_CTX_add1_to_CA_list
libnode.so:SSL_CTX_add_client_CA
libnode.so:SSL_CTX_add_client_custom_ext
libnode.so:SSL_CTX_add_custom_ext
libnode.so:SSL_CTX_add_server_custom_ext
libnode.so:SSL_CTX_add_session
libnode.so:SSL_CTX_callback_ctrl
libnode.so:SSL_CTX_check_private_key
libnode.so:SSL_CTX_clear_options
libnode.so:SSL_CTX_config
libnode.so:SSL_CTX_ct_is_enabled
libnode.so:SSL_CTX_ctrl
libnode.so:SSL_CTX_dane_clear_flags
libnode.so:SSL_CTX_dane_enable
libnode.so:SSL_CTX_dane_mtype_set
libnode.so:SSL_CTX_dane_set_flags
libnode.so:SSL_CTX_enable_ct
libnode.so:SSL_CTX_flush_sessions
libnode.so:SSL_CTX_free
libnode.so:SSL_CTX_get0_CA_list
libnode.so:SSL_CTX_get0_certificate
libnode.so:SSL_CTX_get0_ctlog_store
libnode.so:SSL_CTX_get0_param
libnode.so:SSL_CTX_get0_privatekey
libnode.so:SSL_CTX_get0_security_ex_data
libnode.so:SSL_CTX_get_cert_store
libnode.so:SSL_CTX_get_ciphers
libnode.so:SSL_CTX_get_client_CA_list
libnode.so:SSL_CTX_get_client_cert_cb
libnode.so:SSL_CTX_get_default_passwd_cb
libnode.so:SSL_CTX_get_default_passwd_cb_userdata
libnode.so:SSL_CTX_get_ex_data
libnode.so:SSL_CTX_get_info_callback
libnode.so:SSL_CTX_get_keylog_callback
libnode.so:SSL_CTX_get_max_early_data
libnode.so:SSL_CTX_get_num_tickets
libnode.so:SSL_CTX_get_options
libnode.so:SSL_CTX_get_quiet_shutdown
libnode.so:SSL_CTX_get_record_padding_callback_arg
libnode.so:SSL_CTX_get_recv_max_early_data
libnode.so:SSL_CTX_get_security_callback
libnode.so:SSL_CTX_get_security_level
libnode.so:SSL_CTX_get_ssl_method
libnode.so:SSL_CTX_get_timeout
libnode.so:SSL_CTX_get_verify_callback
libnode.so:SSL_CTX_get_verify_depth
libnode.so:SSL_CTX_get_verify_mode
libnode.so:SSL_CTX_has_client_custom_ext
libnode.so:SSL_CTX_load_verify_locations
libnode.so:SSL_CTX_new
libnode.so:SSL_CTX_remove_session
libnode.so:SSL_CTX_sess_get_get_cb
libnode.so:SSL_CTX_sess_get_new_cb
libnode.so:SSL_CTX_sess_get_remove_cb
libnode.so:SSL_CTX_sess_set_get_cb
libnode.so:SSL_CTX_sess_set_new_cb
libnode.so:SSL_CTX_sess_set_remove_cb
libnode.so:SSL_CTX_sessions
libnode.so:SSL_CTX_set0_CA_list
libnode.so:SSL_CTX_set0_ctlog_store
libnode.so:SSL_CTX_set0_security_ex_data
libnode.so:SSL_CTX_set1_cert_store
libnode.so:SSL_CTX_set1_param
libnode.so:SSL_CTX_set_allow_early_data_cb
libnode.so:SSL_CTX_set_alpn_protos
libnode.so:SSL_CTX_set_alpn_select_cb
libnode.so:SSL_CTX_set_block_padding
libnode.so:SSL_CTX_set_cert_cb
libnode.so:SSL_CTX_set_cert_store
libnode.so:SSL_CTX_set_cert_verify_callback
libnode.so:SSL_CTX_set_cipher_list
libnode.so:SSL_CTX_set_ciphersuites
libnode.so:SSL_CTX_set_client_CA_list
libnode.so:SSL_CTX_set_client_cert_cb
libnode.so:SSL_CTX_set_client_cert_engine
libnode.so:SSL_CTX_set_client_hello_cb
libnode.so:SSL_CTX_set_cookie_generate_cb
libnode.so:SSL_CTX_set_cookie_verify_cb
libnode.so:SSL_CTX_set_ct_validation_callback
libnode.so:SSL_CTX_set_ctlog_list_file
libnode.so:SSL_CTX_set_default_ctlog_list_file
libnode.so:SSL_CTX_set_default_passwd_cb
libnode.so:SSL_CTX_set_default_passwd_cb_userdata
libnode.so:SSL_CTX_set_default_read_buffer_len
libnode.so:SSL_CTX_set_default_verify_dir
libnode.so:SSL_CTX_set_default_verify_file
libnode.so:SSL_CTX_set_default_verify_paths
libnode.so:SSL_CTX_set_ex_data
libnode.so:SSL_CTX_set_generate_session_id
libnode.so:SSL_CTX_set_info_callback
libnode.so:SSL_CTX_set_keylog_callback
libnode.so:SSL_CTX_set_max_early_data
libnode.so:SSL_CTX_set_msg_callback
libnode.so:SSL_CTX_set_next_proto_select_cb
libnode.so:SSL_CTX_set_next_protos_advertised_cb
libnode.so:SSL_CTX_set_not_resumable_session_callback
libnode.so:SSL_CTX_set_num_tickets
libnode.so:SSL_CTX_set_options
libnode.so:SSL_CTX_set_post_handshake_auth
libnode.so:SSL_CTX_set_psk_client_callback
libnode.so:SSL_CTX_set_psk_find_session_callback
libnode.so:SSL_CTX_set_psk_server_callback
libnode.so:SSL_CTX_set_psk_use_session_callback
libnode.so:SSL_CTX_set_purpose
libnode.so:SSL_CTX_set_quiet_shutdown
libnode.so:SSL_CTX_set_record_padding_callback
libnode.so:SSL_CTX_set_record_padding_callback_arg
libnode.so:SSL_CTX_set_recv_max_early_data
libnode.so:SSL_CTX_set_security_callback
libnode.so:SSL_CTX_set_security_level
libnode.so:SSL_CTX_set_session_id_context
libnode.so:SSL_CTX_set_session_ticket_cb
libnode.so:SSL_CTX_set_srp_cb_arg
libnode.so:SSL_CTX_set_srp_client_pwd_callback
libnode.so:SSL_CTX_set_srp_password
libnode.so:SSL_CTX_set_srp_strength
libnode.so:SSL_CTX_set_srp_username
libnode.so:SSL_CTX_set_srp_username_callback
libnode.so:SSL_CTX_set_srp_verify_param_callback
libnode.so:SSL_CTX_set_ssl_version
libnode.so:SSL_CTX_set_stateless_cookie_generate_cb
libnode.so:SSL_CTX_set_stateless_cookie_verify_cb
libnode.so:SSL_CTX_set_timeout
libnode.so:SSL_CTX_set_tlsext_max_fragment_length
libnode.so:SSL_CTX_set_tlsext_use_srtp
libnode.so:SSL_CTX_set_tmp_dh_callback
libnode.so:SSL_CTX_set_trust
libnode.so:SSL_CTX_set_verify
libnode.so:SSL_CTX_set_verify_depth
libnode.so:SSL_CTX_up_ref
libnode.so:SSL_CTX_use_PrivateKey
libnode.so:SSL_CTX_use_PrivateKey_ASN1
libnode.so:SSL_CTX_use_PrivateKey_file
libnode.so:SSL_CTX_use_RSAPrivateKey
libnode.so:SSL_CTX_use_RSAPrivateKey_ASN1
libnode.so:SSL_CTX_use_RSAPrivateKey_file
libnode.so:SSL_CTX_use_cert_and_key
libnode.so:SSL_CTX_use_certificate
libnode.so:SSL_CTX_use_certificate_ASN1
libnode.so:SSL_CTX_use_certificate_chain_file
libnode.so:SSL_CTX_use_certificate_file
libnode.so:SSL_CTX_use_psk_identity_hint
libnode.so:SSL_CTX_use_serverinfo
libnode.so:SSL_CTX_use_serverinfo_ex
libnode.so:SSL_CTX_use_serverinfo_file
libnode.so:SSL_SESSION_dup
libnode.so:SSL_SESSION_free
libnode.so:SSL_SESSION_get0_alpn_selected
libnode.so:SSL_SESSION_get0_cipher
libnode.so:SSL_SESSION_get0_hostname
libnode.so:SSL_SESSION_get0_id_context
libnode.so:SSL_SESSION_get0_peer
libnode.so:SSL_SESSION_get0_ticket
libnode.so:SSL_SESSION_get0_ticket_appdata
libnode.so:SSL_SESSION_get_compress_id
libnode.so:SSL_SESSION_get_ex_data
libnode.so:SSL_SESSION_get_id
libnode.so:SSL_SESSION_get_master_key
libnode.so:SSL_SESSION_get_max_early_data
libnode.so:SSL_SESSION_get_max_fragment_length
libnode.so:SSL_SESSION_get_protocol_version
libnode.so:SSL_SESSION_get_ticket_lifetime_hint
libnode.so:SSL_SESSION_get_time
libnode.so:SSL_SESSION_get_timeout
libnode.so:SSL_SESSION_has_ticket
libnode.so:SSL_SESSION_is_resumable
libnode.so:SSL_SESSION_new
libnode.so:SSL_SESSION_print
libnode.so:SSL_SESSION_print_fp
libnode.so:SSL_SESSION_print_keylog
libnode.so:SSL_SESSION_set1_alpn_selected
libnode.so:SSL_SESSION_set1_hostname
libnode.so:SSL_SESSION_set1_id
libnode.so:SSL_SESSION_set1_id_context
libnode.so:SSL_SESSION_set1_master_key
libnode.so:SSL_SESSION_set1_ticket_appdata
libnode.so:SSL_SESSION_set_cipher
libnode.so:SSL_SESSION_set_ex_data
libnode.so:SSL_SESSION_set_max_early_data
libnode.so:SSL_SESSION_set_protocol_version
libnode.so:SSL_SESSION_set_time
libnode.so:SSL_SESSION_set_timeout
libnode.so:SSL_SESSION_up_ref
libnode.so:SSL_SRP_CTX_free
libnode.so:SSL_SRP_CTX_init
libnode.so:SSL_accept
libnode.so:SSL_add1_host
libnode.so:SSL_add1_to_CA_list
libnode.so:SSL_add_client_CA
libnode.so:SSL_add_dir_cert_subjects_to_stack
libnode.so:SSL_add_file_cert_subjects_to_stack
libnode.so:SSL_add_ssl_module
libnode.so:SSL_alert_desc_string
libnode.so:SSL_alert_desc_string_long
libnode.so:SSL_alert_type_string
libnode.so:SSL_alert_type_string_long
libnode.so:SSL_alloc_buffers
libnode.so:SSL_bytes_to_cipher_list
libnode.so:SSL_callback_ctrl
libnode.so:SSL_certs_clear
libnode.so:SSL_check_chain
libnode.so:SSL_check_private_key
libnode.so:SSL_clear
libnode.so:SSL_clear_options
libnode.so:SSL_client_hello_get0_ciphers
libnode.so:SSL_client_hello_get0_compression_methods
libnode.so:SSL_client_hello_get0_ext
libnode.so:SSL_client_hello_get0_legacy_version
libnode.so:SSL_client_hello_get0_random
libnode.so:SSL_client_hello_get0_session_id
libnode.so:SSL_client_hello_get1_extensions_present
libnode.so:SSL_client_hello_isv2
libnode.so:SSL_client_version
libnode.so:SSL_config
libnode.so:SSL_connect
libnode.so:SSL_copy_session_id
libnode.so:SSL_ct_is_enabled
libnode.so:SSL_ctrl
libnode.so:SSL_dane_clear_flags
libnode.so:SSL_dane_enable
libnode.so:SSL_dane_set_flags
libnode.so:SSL_dane_tlsa_add
libnode.so:SSL_do_handshake
libnode.so:SSL_dup
libnode.so:SSL_dup_CA_list
libnode.so:SSL_enable_ct
libnode.so:SSL_export_keying_material
libnode.so:SSL_export_keying_material_early
libnode.so:SSL_extension_supported
libnode.so:SSL_free
libnode.so:SSL_free_buffers
libnode.so:SSL_get0_CA_list
libnode.so:SSL_get0_alpn_selected
libnode.so:SSL_get0_dane
libnode.so:SSL_get0_dane_authority
libnode.so:SSL_get0_dane_tlsa
libnode.so:SSL_get0_next_proto_negotiated
libnode.so:SSL_get0_param
libnode.so:SSL_get0_peer_CA_list
libnode.so:SSL_get0_peer_scts
libnode.so:SSL_get0_peername
libnode.so:SSL_get0_security_ex_data
libnode.so:SSL_get0_verified_chain
libnode.so:SSL_get1_session
libnode.so:SSL_get1_supported_ciphers
libnode.so:SSL_get_SSL_CTX
libnode.so:SSL_get_all_async_fds
libnode.so:SSL_get_certificate
libnode.so:SSL_get_changed_async_fds
libnode.so:SSL_get_cipher_list
libnode.so:SSL_get_ciphers
libnode.so:SSL_get_client_CA_list
libnode.so:SSL_get_client_ciphers
libnode.so:SSL_get_client_random
libnode.so:SSL_get_current_cipher
libnode.so:SSL_get_current_compression
libnode.so:SSL_get_current_expansion
libnode.so:SSL_get_default_passwd_cb
libnode.so:SSL_get_default_passwd_cb_userdata
libnode.so:SSL_get_default_timeout
libnode.so:SSL_get_early_data_status
libnode.so:SSL_get_error
libnode.so:SSL_get_ex_data
libnode.so:SSL_get_ex_data_X509_STORE_CTX_idx
libnode.so:SSL_get_fd
libnode.so:SSL_get_finished
libnode.so:SSL_get_info_callback
libnode.so:SSL_get_key_update_type
libnode.so:SSL_get_max_early_data
libnode.so:SSL_get_num_tickets
libnode.so:SSL_get_options
libnode.so:SSL_get_peer_cert_chain
libnode.so:SSL_get_peer_certificate
libnode.so:SSL_get_peer_finished
libnode.so:SSL_get_peer_signature_type_nid
libnode.so:SSL_get_pending_cipher
libnode.so:SSL_get_privatekey
libnode.so:SSL_get_psk_identity
libnode.so:SSL_get_psk_identity_hint
libnode.so:SSL_get_quiet_shutdown
libnode.so:SSL_get_rbio
libnode.so:SSL_get_read_ahead
libnode.so:SSL_get_record_padding_callback_arg
libnode.so:SSL_get_recv_max_early_data
libnode.so:SSL_get_rfd
libnode.so:SSL_get_security_callback
libnode.so:SSL_get_security_level
libnode.so:SSL_get_selected_srtp_profile
libnode.so:SSL_get_server_random
libnode.so:SSL_get_servername
libnode.so:SSL_get_servername_type
libnode.so:SSL_get_session
libnode.so:SSL_get_shared_ciphers
libnode.so:SSL_get_shared_sigalgs
libnode.so:SSL_get_shutdown
libnode.so:SSL_get_sigalgs
libnode.so:SSL_get_signature_type_nid
libnode.so:SSL_get_srp_N
libnode.so:SSL_get_srp_g
libnode.so:SSL_get_srp_userinfo
libnode.so:SSL_get_srp_username
libnode.so:SSL_get_srtp_profiles
libnode.so:SSL_get_ssl_method
libnode.so:SSL_get_state
libnode.so:SSL_get_verify_callback
libnode.so:SSL_get_verify_depth
libnode.so:SSL_get_verify_mode
libnode.so:SSL_get_verify_result
libnode.so:SSL_get_version
libnode.so:SSL_get_wbio
libnode.so:SSL_get_wfd
libnode.so:SSL_has_matching_session_id
libnode.so:SSL_has_pending
libnode.so:SSL_in_before
libnode.so:SSL_in_init
libnode.so:SSL_is_dtls
libnode.so:SSL_is_init_finished
libnode.so:SSL_is_server
libnode.so:SSL_key_update
libnode.so:SSL_load_client_CA_file
libnode.so:SSL_new
libnode.so:SSL_peek
libnode.so:SSL_peek_ex
libnode.so:SSL_pending
libnode.so:SSL_read
libnode.so:SSL_read_early_data
libnode.so:SSL_read_ex
libnode.so:SSL_renegotiate
libnode.so:SSL_renegotiate_abbreviated
libnode.so:SSL_renegotiate_pending
libnode.so:SSL_rstate_string
libnode.so:SSL_rstate_string_long
libnode.so:SSL_select_next_proto
libnode.so:SSL_session_reused
libnode.so:SSL_set0_CA_list
libnode.so:SSL_set0_rbio
libnode.so:SSL_set0_security_ex_data
libnode.so:SSL_set0_wbio
libnode.so:SSL_set1_host
libnode.so:SSL_set1_param
libnode.so:SSL_set_SSL_CTX
libnode.so:SSL_set_accept_state
libnode.so:SSL_set_allow_early_data_cb
libnode.so:SSL_set_alpn_protos
libnode.so:SSL_set_bio
libnode.so:SSL_set_block_padding
libnode.so:SSL_set_cert_cb
libnode.so:SSL_set_cipher_list
libnode.so:SSL_set_ciphersuites
libnode.so:SSL_set_client_CA_list
libnode.so:SSL_set_connect_state
libnode.so:SSL_set_ct_validation_callback
libnode.so:SSL_set_debug
libnode.so:SSL_set_default_passwd_cb
libnode.so:SSL_set_default_passwd_cb_userdata
libnode.so:SSL_set_default_read_buffer_len
libnode.so:SSL_set_ex_data
libnode.so:SSL_set_fd
libnode.so:SSL_set_generate_session_id
libnode.so:SSL_set_hostflags
libnode.so:SSL_set_info_callback
libnode.so:SSL_set_max_early_data
libnode.so:SSL_set_msg_callback
libnode.so:SSL_set_not_resumable_session_callback
libnode.so:SSL_set_num_tickets
libnode.so:SSL_set_options
libnode.so:SSL_set_post_handshake_auth
libnode.so:SSL_set_psk_client_callback
libnode.so:SSL_set_psk_find_session_callback
libnode.so:SSL_set_psk_server_callback
libnode.so:SSL_set_psk_use_session_callback
libnode.so:SSL_set_purpose
libnode.so:SSL_set_quiet_shutdown
libnode.so:SSL_set_read_ahead
libnode.so:SSL_set_record_padding_callback
libnode.so:SSL_set_record_padding_callback_arg
libnode.so:SSL_set_recv_max_early_data
libnode.so:SSL_set_rfd
libnode.so:SSL_set_security_callback
libnode.so:SSL_set_security_level
libnode.so:SSL_set_session
libnode.so:SSL_set_session_id_context
libnode.so:SSL_set_session_secret_cb
libnode.so:SSL_set_session_ticket_ext
libnode.so:SSL_set_session_ticket_ext_cb
libnode.so:SSL_set_shutdown
libnode.so:SSL_set_srp_server_param
libnode.so:SSL_set_srp_server_param_pw
libnode.so:SSL_set_ssl_method
libnode.so:SSL_set_tlsext_max_fragment_length
libnode.so:SSL_set_tlsext_use_srtp
libnode.so:SSL_set_tmp_dh_callback
libnode.so:SSL_set_trust
libnode.so:SSL_set_verify
libnode.so:SSL_set_verify_depth
libnode.so:SSL_set_verify_result
libnode.so:SSL_set_wfd
libnode.so:SSL_shutdown
libnode.so:SSL_srp_server_param_with_username
libnode.so:SSL_state_string
libnode.so:SSL_state_string_long
libnode.so:SSL_stateless
libnode.so:SSL_trace
libnode.so:SSL_up_ref
libnode.so:SSL_use_PrivateKey
libnode.so:SSL_use_PrivateKey_ASN1
libnode.so:SSL_use_PrivateKey_file
libnode.so:SSL_use_RSAPrivateKey
libnode.so:SSL_use_RSAPrivateKey_ASN1
libnode.so:SSL_use_RSAPrivateKey_file
libnode.so:SSL_use_cert_and_key
libnode.so:SSL_use_certificate
libnode.so:SSL_use_certificate_ASN1
libnode.so:SSL_use_certificate_chain_file
libnode.so:SSL_use_certificate_file
libnode.so:SSL_use_psk_identity_hint
libnode.so:SSL_verify_client_post_handshake
libnode.so:SSL_version
libnode.so:SSL_version_str
libnode.so:SSL_waiting_for_async
libnode.so:SSL_want
libnode.so:SSL_write
libnode.so:SSL_write_early_data
libnode.so:SSL_write_ex
libnode.so:SSLv3_enc_data
libnode.so:SXNETID_free
libnode.so:SXNETID_it
libnode.so:SXNETID_new
libnode.so:SXNET_add_id_INTEGER
libnode.so:SXNET_add_id_asc
libnode.so:SXNET_add_id_ulong
libnode.so:SXNET_free
libnode.so:SXNET_get_id_INTEGER
libnode.so:SXNET_get_id_asc
libnode.so:SXNET_get_id_ulong
libnode.so:SXNET_it
libnode.so:SXNET_new
libnode.so:SipHash_Final
libnode.so:SipHash_Init
libnode.so:SipHash_Update
libnode.so:SipHash_ctx_size
libnode.so:SipHash_hash_size
libnode.so:SipHash_set_hash_size
libnode.so:TLS_FEATURE_free
libnode.so:TLS_FEATURE_new
libnode.so:TLS_client_method
libnode.so:TLS_method
libnode.so:TLS_server_method
libnode.so:TLSv1_1_client_method
libnode.so:TLSv1_1_enc_data
libnode.so:TLSv1_1_method
libnode.so:TLSv1_1_server_method
libnode.so:TLSv1_2_client_method
libnode.so:TLSv1_2_enc_data
libnode.so:TLSv1_2_method
libnode.so:TLSv1_2_server_method
libnode.so:TLSv1_3_enc_data
libnode.so:TLSv1_client_method
libnode.so:TLSv1_enc_data
libnode.so:TLSv1_method
libnode.so:TLSv1_server_method
libnode.so:TS_ACCURACY_dup
libnode.so:TS_ACCURACY_free
libnode.so:TS_ACCURACY_get_micros
libnode.so:TS_ACCURACY_get_millis
libnode.so:TS_ACCURACY_get_seconds
libnode.so:TS_ACCURACY_new
libnode.so:TS_ACCURACY_set_micros
libnode.so:TS_ACCURACY_set_millis
libnode.so:TS_ACCURACY_set_seconds
libnode.so:TS_ASN1_INTEGER_print_bio
libnode.so:TS_CONF_get_tsa_section
libnode.so:TS_CONF_load_cert
libnode.so:TS_CONF_load_certs
libnode.so:TS_CONF_load_key
libnode.so:TS_CONF_set_accuracy
libnode.so:TS_CONF_set_certs
libnode.so:TS_CONF_set_clock_precision_digits
libnode.so:TS_CONF_set_crypto_device
libnode.so:TS_CONF_set_def_policy
libnode.so:TS_CONF_set_default_engine
libnode.so:TS_CONF_set_digests
libnode.so:TS_CONF_set_ess_cert_id_chain
libnode.so:TS_CONF_set_ess_cert_id_digest
libnode.so:TS_CONF_set_ordering
libnode.so:TS_CONF_set_policies
libnode.so:TS_CONF_set_serial
libnode.so:TS_CONF_set_signer_cert
libnode.so:TS_CONF_set_signer_digest
libnode.so:TS_CONF_set_signer_key
libnode.so:TS_CONF_set_tsa_name
libnode.so:TS_MSG_IMPRINT_dup
libnode.so:TS_MSG_IMPRINT_free
libnode.so:TS_MSG_IMPRINT_get_algo
libnode.so:TS_MSG_IMPRINT_get_msg
libnode.so:TS_MSG_IMPRINT_new
libnode.so:TS_MSG_IMPRINT_print_bio
libnode.so:TS_MSG_IMPRINT_set_algo
libnode.so:TS_MSG_IMPRINT_set_msg
libnode.so:TS_OBJ_print_bio
libnode.so:TS_REQ_add_ext
libnode.so:TS_REQ_delete_ext
libnode.so:TS_REQ_dup
libnode.so:TS_REQ_ext_free
libnode.so:TS_REQ_free
libnode.so:TS_REQ_get_cert_req
libnode.so:TS_REQ_get_ext
libnode.so:TS_REQ_get_ext_by_NID
libnode.so:TS_REQ_get_ext_by_OBJ
libnode.so:TS_REQ_get_ext_by_critical
libnode.so:TS_REQ_get_ext_count
libnode.so:TS_REQ_get_ext_d2i
libnode.so:TS_REQ_get_exts
libnode.so:TS_REQ_get_msg_imprint
libnode.so:TS_REQ_get_nonce
libnode.so:TS_REQ_get_policy_id
libnode.so:TS_REQ_get_version
libnode.so:TS_REQ_new
libnode.so:TS_REQ_print_bio
libnode.so:TS_REQ_set_cert_req
libnode.so:TS_REQ_set_msg_imprint
libnode.so:TS_REQ_set_nonce
libnode.so:TS_REQ_set_policy_id
libnode.so:TS_REQ_set_version
libnode.so:TS_REQ_to_TS_VERIFY_CTX
libnode.so:TS_RESP_CTX_add_failure_info
libnode.so:TS_RESP_CTX_add_flags
libnode.so:TS_RESP_CTX_add_md
libnode.so:TS_RESP_CTX_add_policy
libnode.so:TS_RESP_CTX_free
libnode.so:TS_RESP_CTX_get_request
libnode.so:TS_RESP_CTX_get_tst_info
libnode.so:TS_RESP_CTX_new
libnode.so:TS_RESP_CTX_set_accuracy
libnode.so:TS_RESP_CTX_set_certs
libnode.so:TS_RESP_CTX_set_clock_precision_digits
libnode.so:TS_RESP_CTX_set_def_policy
libnode.so:TS_RESP_CTX_set_ess_cert_id_digest
libnode.so:TS_RESP_CTX_set_extension_cb
libnode.so:TS_RESP_CTX_set_serial_cb
libnode.so:TS_RESP_CTX_set_signer_cert
libnode.so:TS_RESP_CTX_set_signer_digest
libnode.so:TS_RESP_CTX_set_signer_key
libnode.so:TS_RESP_CTX_set_status_info
libnode.so:TS_RESP_CTX_set_status_info_cond
libnode.so:TS_RESP_CTX_set_time_cb
libnode.so:TS_RESP_create_response
libnode.so:TS_RESP_dup
libnode.so:TS_RESP_free
libnode.so:TS_RESP_get_status_info
libnode.so:TS_RESP_get_token
libnode.so:TS_RESP_get_tst_info
libnode.so:TS_RESP_new
libnode.so:TS_RESP_print_bio
libnode.so:TS_RESP_set_status_info
libnode.so:TS_RESP_set_tst_info
libnode.so:TS_RESP_verify_response
libnode.so:TS_RESP_verify_signature
libnode.so:TS_RESP_verify_token
libnode.so:TS_STATUS_INFO_dup
libnode.so:TS_STATUS_INFO_free
libnode.so:TS_STATUS_INFO_get0_failure_info
libnode.so:TS_STATUS_INFO_get0_status
libnode.so:TS_STATUS_INFO_get0_text
libnode.so:TS_STATUS_INFO_new
libnode.so:TS_STATUS_INFO_print_bio
libnode.so:TS_STATUS_INFO_set_status
libnode.so:TS_TST_INFO_add_ext
libnode.so:TS_TST_INFO_delete_ext
libnode.so:TS_TST_INFO_dup
libnode.so:TS_TST_INFO_ext_free
libnode.so:TS_TST_INFO_free
libnode.so:TS_TST_INFO_get_accuracy
libnode.so:TS_TST_INFO_get_ext
libnode.so:TS_TST_INFO_get_ext_by_NID
libnode.so:TS_TST_INFO_get_ext_by_OBJ
libnode.so:TS_TST_INFO_get_ext_by_critical
libnode.so:TS_TST_INFO_get_ext_count
libnode.so:TS_TST_INFO_get_ext_d2i
libnode.so:TS_TST_INFO_get_exts
libnode.so:TS_TST_INFO_get_msg_imprint
libnode.so:TS_TST_INFO_get_nonce
libnode.so:TS_TST_INFO_get_ordering
libnode.so:TS_TST_INFO_get_policy_id
libnode.so:TS_TST_INFO_get_serial
libnode.so:TS_TST_INFO_get_time
libnode.so:TS_TST_INFO_get_tsa
libnode.so:TS_TST_INFO_get_version
libnode.so:TS_TST_INFO_new
libnode.so:TS_TST_INFO_print_bio
libnode.so:TS_TST_INFO_set_accuracy
libnode.so:TS_TST_INFO_set_msg_imprint
libnode.so:TS_TST_INFO_set_nonce
libnode.so:TS_TST_INFO_set_ordering
libnode.so:TS_TST_INFO_set_policy_id
libnode.so:TS_TST_INFO_set_serial
libnode.so:TS_TST_INFO_set_time
libnode.so:TS_TST_INFO_set_tsa
libnode.so:TS_TST_INFO_set_version
libnode.so:TS_VERIFY_CTS_set_certs
libnode.so:TS_VERIFY_CTX_add_flags
libnode.so:TS_VERIFY_CTX_cleanup
libnode.so:TS_VERIFY_CTX_free
libnode.so:TS_VERIFY_CTX_init
libnode.so:TS_VERIFY_CTX_new
libnode.so:TS_VERIFY_CTX_set_data
libnode.so:TS_VERIFY_CTX_set_flags
libnode.so:TS_VERIFY_CTX_set_imprint
libnode.so:TS_VERIFY_CTX_set_store
libnode.so:TS_X509_ALGOR_print_bio
libnode.so:TS_ext_print_bio
libnode.so:TXT_DB_create_index
libnode.so:TXT_DB_free
libnode.so:TXT_DB_get_by_index
libnode.so:TXT_DB_insert
libnode.so:TXT_DB_read
libnode.so:TXT_DB_write
libnode.so:T_CString_int64ToString_65
libnode.so:T_CString_integerToString_65
libnode.so:T_CString_stringToInteger_65
libnode.so:T_CString_toLowerCase_65
libnode.so:T_CString_toUpperCase_65
libnode.so:UCNV_FROM_U_CALLBACK_ESCAPE_65
libnode.so:UCNV_FROM_U_CALLBACK_SKIP_65
libnode.so:UCNV_FROM_U_CALLBACK_STOP_65
libnode.so:UCNV_FROM_U_CALLBACK_SUBSTITUTE_65
libnode.so:UCNV_TO_U_CALLBACK_ESCAPE_65
libnode.so:UCNV_TO_U_CALLBACK_SKIP_65
libnode.so:UCNV_TO_U_CALLBACK_STOP_65
libnode.so:UCNV_TO_U_CALLBACK_SUBSTITUTE_65
libnode.so:UDataMemory_createNewInstance_65
libnode.so:UDataMemory_init_65
libnode.so:UDataMemory_isLoaded_65
libnode.so:UDataMemory_normalizeDataPointer_65
libnode.so:UDataMemory_setData_65
libnode.so:UDatamemory_assign_65
libnode.so:UINT32_it
libnode.so:UINT64_it
libnode.so:UI_OpenSSL
libnode.so:UI_UTIL_read_pw
libnode.so:UI_UTIL_read_pw_string
libnode.so:UI_UTIL_wrap_read_pem_callback
libnode.so:UI_add_error_string
libnode.so:UI_add_info_string
libnode.so:UI_add_input_boolean
libnode.so:UI_add_input_string
libnode.so:UI_add_user_data
libnode.so:UI_add_verify_string
libnode.so:UI_construct_prompt
libnode.so:UI_create_method
libnode.so:UI_ctrl
libnode.so:UI_destroy_method
libnode.so:UI_dup_error_string
libnode.so:UI_dup_info_string
libnode.so:UI_dup_input_boolean
libnode.so:UI_dup_input_string
libnode.so:UI_dup_user_data
libnode.so:UI_dup_verify_string
libnode.so:UI_free
libnode.so:UI_get0_action_string
libnode.so:UI_get0_output_string
libnode.so:UI_get0_result
libnode.so:UI_get0_result_string
libnode.so:UI_get0_test_string
libnode.so:UI_get0_user_data
libnode.so:UI_get_default_method
libnode.so:UI_get_ex_data
libnode.so:UI_get_input_flags
libnode.so:UI_get_method
libnode.so:UI_get_result_length
libnode.so:UI_get_result_maxsize
libnode.so:UI_get_result_minsize
libnode.so:UI_get_result_string_length
libnode.so:UI_get_string_type
libnode.so:UI_method_get_closer
libnode.so:UI_method_get_data_destructor
libnode.so:UI_method_get_data_duplicator
libnode.so:UI_method_get_ex_data
libnode.so:UI_method_get_flusher
libnode.so:UI_method_get_opener
libnode.so:UI_method_get_prompt_constructor
libnode.so:UI_method_get_reader
libnode.so:UI_method_get_writer
libnode.so:UI_method_set_closer
libnode.so:UI_method_set_data_duplicator
libnode.so:UI_method_set_ex_data
libnode.so:UI_method_set_flusher
libnode.so:UI_method_set_opener
libnode.so:UI_method_set_prompt_constructor
libnode.so:UI_method_set_reader
libnode.so:UI_method_set_writer
libnode.so:UI_new
libnode.so:UI_new_method
libnode.so:UI_null
libnode.so:UI_process
libnode.so:UI_set_default_method
libnode.so:UI_set_ex_data
libnode.so:UI_set_method
libnode.so:UI_set_result
libnode.so:UI_set_result_ex
libnode.so:USERNOTICE_free
libnode.so:USERNOTICE_it
libnode.so:USERNOTICE_new
libnode.so:UTF8_getc
libnode.so:UTF8_putc
libnode.so:WHIRLPOOL
libnode.so:WHIRLPOOL_BitUpdate
libnode.so:WHIRLPOOL_Final
libnode.so:WHIRLPOOL_Init
libnode.so:WHIRLPOOL_Update
libnode.so:WPACKET_allocate_bytes
libnode.so:WPACKET_cleanup
libnode.so:WPACKET_close
libnode.so:WPACKET_fill_lengths
libnode.so:WPACKET_finish
libnode.so:WPACKET_get_curr
libnode.so:WPACKET_get_length
libnode.so:WPACKET_get_total_written
libnode.so:WPACKET_init
libnode.so:WPACKET_init_len
libnode.so:WPACKET_init_static_len
libnode.so:WPACKET_memcpy
libnode.so:WPACKET_memset
libnode.so:WPACKET_put_bytes__
libnode.so:WPACKET_reserve_bytes
libnode.so:WPACKET_set_flags
libnode.so:WPACKET_set_max_size
libnode.so:WPACKET_start_sub_packet
libnode.so:WPACKET_start_sub_packet_len__
libnode.so:WPACKET_sub_allocate_bytes__
libnode.so:WPACKET_sub_memcpy__
libnode.so:WPACKET_sub_reserve_bytes__
libnode.so:X25519
libnode.so:X25519_public_from_private
libnode.so:X448
libnode.so:X448_public_from_private
libnode.so:X509V3_EXT_CRL_add_conf
libnode.so:X509V3_EXT_CRL_add_nconf
libnode.so:X509V3_EXT_REQ_add_conf
libnode.so:X509V3_EXT_REQ_add_nconf
libnode.so:X509V3_EXT_add
libnode.so:X509V3_EXT_add_alias
libnode.so:X509V3_EXT_add_conf
libnode.so:X509V3_EXT_add_list
libnode.so:X509V3_EXT_add_nconf
libnode.so:X509V3_EXT_add_nconf_sk
libnode.so:X509V3_EXT_cleanup
libnode.so:X509V3_EXT_conf
libnode.so:X509V3_EXT_conf_nid
libnode.so:X509V3_EXT_d2i
libnode.so:X509V3_EXT_get
libnode.so:X509V3_EXT_get_nid
libnode.so:X509V3_EXT_i2d
libnode.so:X509V3_EXT_nconf
libnode.so:X509V3_EXT_nconf_nid
libnode.so:X509V3_EXT_print
libnode.so:X509V3_EXT_print_fp
libnode.so:X509V3_EXT_val_prn
libnode.so:X509V3_NAME_from_section
libnode.so:X509V3_add1_i2d
libnode.so:X509V3_add_standard_extensions
libnode.so:X509V3_add_value
libnode.so:X509V3_add_value_bool
libnode.so:X509V3_add_value_bool_nf
libnode.so:X509V3_add_value_int
libnode.so:X509V3_add_value_uchar
libnode.so:X509V3_conf_free
libnode.so:X509V3_extensions_print
libnode.so:X509V3_get_d2i
libnode.so:X509V3_get_section
libnode.so:X509V3_get_string
libnode.so:X509V3_get_value_bool
libnode.so:X509V3_get_value_int
libnode.so:X509V3_parse_list
libnode.so:X509V3_section_free
libnode.so:X509V3_set_conf_lhash
libnode.so:X509V3_set_ctx
libnode.so:X509V3_set_nconf
libnode.so:X509V3_string_free
libnode.so:X509_ALGORS_it
libnode.so:X509_ALGOR_cmp
libnode.so:X509_ALGOR_dup
libnode.so:X509_ALGOR_free
libnode.so:X509_ALGOR_get0
libnode.so:X509_ALGOR_it
libnode.so:X509_ALGOR_new
libnode.so:X509_ALGOR_set0
libnode.so:X509_ALGOR_set_md
libnode.so:X509_ATTRIBUTE_count
libnode.so:X509_ATTRIBUTE_create
libnode.so:X509_ATTRIBUTE_create_by_NID
libnode.so:X509_ATTRIBUTE_create_by_OBJ
libnode.so:X509_ATTRIBUTE_create_by_txt
libnode.so:X509_ATTRIBUTE_dup
libnode.so:X509_ATTRIBUTE_free
libnode.so:X509_ATTRIBUTE_get0_data
libnode.so:X509_ATTRIBUTE_get0_object
libnode.so:X509_ATTRIBUTE_get0_type
libnode.so:X509_ATTRIBUTE_it
libnode.so:X509_ATTRIBUTE_new
libnode.so:X509_ATTRIBUTE_set1_data
libnode.so:X509_ATTRIBUTE_set1_object
libnode.so:X509_CERT_AUX_free
libnode.so:X509_CERT_AUX_it
libnode.so:X509_CERT_AUX_new
libnode.so:X509_CINF_free
libnode.so:X509_CINF_it
libnode.so:X509_CINF_new
libnode.so:X509_CRL_INFO_free
libnode.so:X509_CRL_INFO_it
libnode.so:X509_CRL_INFO_new
libnode.so:X509_CRL_METHOD_free
libnode.so:X509_CRL_METHOD_new
libnode.so:X509_CRL_add0_revoked
libnode.so:X509_CRL_add1_ext_i2d
libnode.so:X509_CRL_add_ext
libnode.so:X509_CRL_check_suiteb
libnode.so:X509_CRL_cmp
libnode.so:X509_CRL_delete_ext
libnode.so:X509_CRL_diff
libnode.so:X509_CRL_digest
libnode.so:X509_CRL_dup
libnode.so:X509_CRL_free
libnode.so:X509_CRL_get0_by_cert
libnode.so:X509_CRL_get0_by_serial
libnode.so:X509_CRL_get0_extensions
libnode.so:X509_CRL_get0_lastUpdate
libnode.so:X509_CRL_get0_nextUpdate
libnode.so:X509_CRL_get0_signature
libnode.so:X509_CRL_get_REVOKED
libnode.so:X509_CRL_get_ext
libnode.so:X509_CRL_get_ext_by_NID
libnode.so:X509_CRL_get_ext_by_OBJ
libnode.so:X509_CRL_get_ext_by_critical
libnode.so:X509_CRL_get_ext_count
libnode.so:X509_CRL_get_ext_d2i
libnode.so:X509_CRL_get_issuer
libnode.so:X509_CRL_get_lastUpdate
libnode.so:X509_CRL_get_meth_data
libnode.so:X509_CRL_get_nextUpdate
libnode.so:X509_CRL_get_signature_nid
libnode.so:X509_CRL_get_version
libnode.so:X509_CRL_http_nbio
libnode.so:X509_CRL_it
libnode.so:X509_CRL_match
libnode.so:X509_CRL_new
libnode.so:X509_CRL_print
libnode.so:X509_CRL_print_ex
libnode.so:X509_CRL_print_fp
libnode.so:X509_CRL_set1_lastUpdate
libnode.so:X509_CRL_set1_nextUpdate
libnode.so:X509_CRL_set_default_method
libnode.so:X509_CRL_set_issuer_name
libnode.so:X509_CRL_set_meth_data
libnode.so:X509_CRL_set_version
libnode.so:X509_CRL_sign
libnode.so:X509_CRL_sign_ctx
libnode.so:X509_CRL_sort
libnode.so:X509_CRL_up_ref
libnode.so:X509_CRL_verify
libnode.so:X509_EXTENSIONS_it
libnode.so:X509_EXTENSION_create_by_NID
libnode.so:X509_EXTENSION_create_by_OBJ
libnode.so:X509_EXTENSION_dup
libnode.so:X509_EXTENSION_free
libnode.so:X509_EXTENSION_get_critical
libnode.so:X509_EXTENSION_get_data
libnode.so:X509_EXTENSION_get_object
libnode.so:X509_EXTENSION_it
libnode.so:X509_EXTENSION_new
libnode.so:X509_EXTENSION_set_critical
libnode.so:X509_EXTENSION_set_data
libnode.so:X509_EXTENSION_set_object
libnode.so:X509_INFO_free
libnode.so:X509_INFO_new
libnode.so:X509_LOOKUP_by_alias
libnode.so:X509_LOOKUP_by_fingerprint
libnode.so:X509_LOOKUP_by_issuer_serial
libnode.so:X509_LOOKUP_by_subject
libnode.so:X509_LOOKUP_ctrl
libnode.so:X509_LOOKUP_file
libnode.so:X509_LOOKUP_free
libnode.so:X509_LOOKUP_get_method_data
libnode.so:X509_LOOKUP_get_store
libnode.so:X509_LOOKUP_hash_dir
libnode.so:X509_LOOKUP_init
libnode.so:X509_LOOKUP_meth_free
libnode.so:X509_LOOKUP_meth_get_ctrl
libnode.so:X509_LOOKUP_meth_get_free
libnode.so:X509_LOOKUP_meth_get_get_by_alias
libnode.so:X509_LOOKUP_meth_get_get_by_fingerprint
libnode.so:X509_LOOKUP_meth_get_get_by_issuer_serial
libnode.so:X509_LOOKUP_meth_get_get_by_subject
libnode.so:X509_LOOKUP_meth_get_init
libnode.so:X509_LOOKUP_meth_get_new_item
libnode.so:X509_LOOKUP_meth_get_shutdown
libnode.so:X509_LOOKUP_meth_new
libnode.so:X509_LOOKUP_meth_set_ctrl
libnode.so:X509_LOOKUP_meth_set_free
libnode.so:X509_LOOKUP_meth_set_get_by_alias
libnode.so:X509_LOOKUP_meth_set_get_by_fingerprint
libnode.so:X509_LOOKUP_meth_set_get_by_issuer_serial
libnode.so:X509_LOOKUP_meth_set_get_by_subject
libnode.so:X509_LOOKUP_meth_set_init
libnode.so:X509_LOOKUP_meth_set_new_item
libnode.so:X509_LOOKUP_meth_set_shutdown
libnode.so:X509_LOOKUP_new
libnode.so:X509_LOOKUP_set_method_data
libnode.so:X509_LOOKUP_shutdown
libnode.so:X509_NAME_ENTRY_create_by_NID
libnode.so:X509_NAME_ENTRY_create_by_OBJ
libnode.so:X509_NAME_ENTRY_create_by_txt
libnode.so:X509_NAME_ENTRY_dup
libnode.so:X509_NAME_ENTRY_free
libnode.so:X509_NAME_ENTRY_get_data
libnode.so:X509_NAME_ENTRY_get_object
libnode.so:X509_NAME_ENTRY_it
libnode.so:X509_NAME_ENTRY_new
libnode.so:X509_NAME_ENTRY_set
libnode.so:X509_NAME_ENTRY_set_data
libnode.so:X509_NAME_ENTRY_set_object
libnode.so:X509_NAME_add_entry
libnode.so:X509_NAME_add_entry_by_NID
libnode.so:X509_NAME_add_entry_by_OBJ
libnode.so:X509_NAME_add_entry_by_txt
libnode.so:X509_NAME_cmp
libnode.so:X509_NAME_delete_entry
libnode.so:X509_NAME_digest
libnode.so:X509_NAME_dup
libnode.so:X509_NAME_entry_count
libnode.so:X509_NAME_free
libnode.so:X509_NAME_get0_der
libnode.so:X509_NAME_get_entry
libnode.so:X509_NAME_get_index_by_NID
libnode.so:X509_NAME_get_index_by_OBJ
libnode.so:X509_NAME_get_text_by_NID
libnode.so:X509_NAME_get_text_by_OBJ
libnode.so:X509_NAME_hash
libnode.so:X509_NAME_hash_old
libnode.so:X509_NAME_it
libnode.so:X509_NAME_new
libnode.so:X509_NAME_oneline
libnode.so:X509_NAME_print
libnode.so:X509_NAME_print_ex
libnode.so:X509_NAME_print_ex_fp
libnode.so:X509_NAME_set
libnode.so:X509_OBJECT_free
libnode.so:X509_OBJECT_get0_X509
libnode.so:X509_OBJECT_get0_X509_CRL
libnode.so:X509_OBJECT_get_type
libnode.so:X509_OBJECT_idx_by_subject
libnode.so:X509_OBJECT_new
libnode.so:X509_OBJECT_retrieve_by_subject
libnode.so:X509_OBJECT_retrieve_match
libnode.so:X509_OBJECT_set1_X509
libnode.so:X509_OBJECT_set1_X509_CRL
libnode.so:X509_OBJECT_up_ref_count
libnode.so:X509_PKEY_free
libnode.so:X509_PKEY_new
libnode.so:X509_POLICY_NODE_print
libnode.so:X509_PUBKEY_free
libnode.so:X509_PUBKEY_get
libnode.so:X509_PUBKEY_get0
libnode.so:X509_PUBKEY_get0_param
libnode.so:X509_PUBKEY_it
libnode.so:X509_PUBKEY_new
libnode.so:X509_PUBKEY_set
libnode.so:X509_PUBKEY_set0_param
libnode.so:X509_PURPOSE_add
libnode.so:X509_PURPOSE_cleanup
libnode.so:X509_PURPOSE_get0
libnode.so:X509_PURPOSE_get0_name
libnode.so:X509_PURPOSE_get0_sname
libnode.so:X509_PURPOSE_get_by_id
libnode.so:X509_PURPOSE_get_by_sname
libnode.so:X509_PURPOSE_get_count
libnode.so:X509_PURPOSE_get_id
libnode.so:X509_PURPOSE_get_trust
libnode.so:X509_PURPOSE_set
libnode.so:X509_REQ_INFO_free
libnode.so:X509_REQ_INFO_it
libnode.so:X509_REQ_INFO_new
libnode.so:X509_REQ_add1_attr
libnode.so:X509_REQ_add1_attr_by_NID
libnode.so:X509_REQ_add1_attr_by_OBJ
libnode.so:X509_REQ_add1_attr_by_txt
libnode.so:X509_REQ_add_extensions
libnode.so:X509_REQ_add_extensions_nid
libnode.so:X509_REQ_check_private_key
libnode.so:X509_REQ_delete_attr
libnode.so:X509_REQ_digest
libnode.so:X509_REQ_dup
libnode.so:X509_REQ_extension_nid
libnode.so:X509_REQ_free
libnode.so:X509_REQ_get0_pubkey
libnode.so:X509_REQ_get0_signature
libnode.so:X509_REQ_get1_email
libnode.so:X509_REQ_get_X509_PUBKEY
libnode.so:X509_REQ_get_attr
libnode.so:X509_REQ_get_attr_by_NID
libnode.so:X509_REQ_get_attr_by_OBJ
libnode.so:X509_REQ_get_attr_count
libnode.so:X509_REQ_get_extension_nids
libnode.so:X509_REQ_get_extensions
libnode.so:X509_REQ_get_pubkey
libnode.so:X509_REQ_get_signature_nid
libnode.so:X509_REQ_get_subject_name
libnode.so:X509_REQ_get_version
libnode.so:X509_REQ_it
libnode.so:X509_REQ_new
libnode.so:X509_REQ_print
libnode.so:X509_REQ_print_ex
libnode.so:X509_REQ_print_fp
libnode.so:X509_REQ_set_extension_nids
libnode.so:X509_REQ_set_pubkey
libnode.so:X509_REQ_set_subject_name
libnode.so:X509_REQ_set_version
libnode.so:X509_REQ_sign
libnode.so:X509_REQ_sign_ctx
libnode.so:X509_REQ_to_X509
libnode.so:X509_REQ_verify
libnode.so:X509_REVOKED_add1_ext_i2d
libnode.so:X509_REVOKED_add_ext
libnode.so:X509_REVOKED_delete_ext
libnode.so:X509_REVOKED_dup
libnode.so:X509_REVOKED_free
libnode.so:X509_REVOKED_get0_extensions
libnode.so:X509_REVOKED_get0_revocationDate
libnode.so:X509_REVOKED_get0_serialNumber
libnode.so:X509_REVOKED_get_ext
libnode.so:X509_REVOKED_get_ext_by_NID
libnode.so:X509_REVOKED_get_ext_by_OBJ
libnode.so:X509_REVOKED_get_ext_by_critical
libnode.so:X509_REVOKED_get_ext_count
libnode.so:X509_REVOKED_get_ext_d2i
libnode.so:X509_REVOKED_it
libnode.so:X509_REVOKED_new
libnode.so:X509_REVOKED_set_revocationDate
libnode.so:X509_REVOKED_set_serialNumber
libnode.so:X509_SIG_INFO_get
libnode.so:X509_SIG_INFO_set
libnode.so:X509_SIG_free
libnode.so:X509_SIG_get0
libnode.so:X509_SIG_getm
libnode.so:X509_SIG_it
libnode.so:X509_SIG_new
libnode.so:X509_STORE_CTX_cleanup
libnode.so:X509_STORE_CTX_free
libnode.so:X509_STORE_CTX_get0_cert
libnode.so:X509_STORE_CTX_get0_chain
libnode.so:X509_STORE_CTX_get0_current_crl
libnode.so:X509_STORE_CTX_get0_current_issuer
libnode.so:X509_STORE_CTX_get0_param
libnode.so:X509_STORE_CTX_get0_parent_ctx
libnode.so:X509_STORE_CTX_get0_policy_tree
libnode.so:X509_STORE_CTX_get0_store
libnode.so:X509_STORE_CTX_get0_untrusted
libnode.so:X509_STORE_CTX_get1_certs
libnode.so:X509_STORE_CTX_get1_chain
libnode.so:X509_STORE_CTX_get1_crls
libnode.so:X509_STORE_CTX_get1_issuer
libnode.so:X509_STORE_CTX_get_by_subject
libnode.so:X509_STORE_CTX_get_cert_crl
libnode.so:X509_STORE_CTX_get_check_crl
libnode.so:X509_STORE_CTX_get_check_issued
libnode.so:X509_STORE_CTX_get_check_policy
libnode.so:X509_STORE_CTX_get_check_revocation
libnode.so:X509_STORE_CTX_get_cleanup
libnode.so:X509_STORE_CTX_get_current_cert
libnode.so:X509_STORE_CTX_get_error
libnode.so:X509_STORE_CTX_get_error_depth
libnode.so:X509_STORE_CTX_get_ex_data
libnode.so:X509_STORE_CTX_get_explicit_policy
libnode.so:X509_STORE_CTX_get_get_crl
libnode.so:X509_STORE_CTX_get_get_issuer
libnode.so:X509_STORE_CTX_get_lookup_certs
libnode.so:X509_STORE_CTX_get_lookup_crls
libnode.so:X509_STORE_CTX_get_num_untrusted
libnode.so:X509_STORE_CTX_get_obj_by_subject
libnode.so:X509_STORE_CTX_get_verify
libnode.so:X509_STORE_CTX_get_verify_cb
libnode.so:X509_STORE_CTX_init
libnode.so:X509_STORE_CTX_new
libnode.so:X509_STORE_CTX_purpose_inherit
libnode.so:X509_STORE_CTX_set0_crls
libnode.so:X509_STORE_CTX_set0_dane
libnode.so:X509_STORE_CTX_set0_param
libnode.so:X509_STORE_CTX_set0_trusted_stack
libnode.so:X509_STORE_CTX_set0_untrusted
libnode.so:X509_STORE_CTX_set0_verified_chain
libnode.so:X509_STORE_CTX_set_cert
libnode.so:X509_STORE_CTX_set_current_cert
libnode.so:X509_STORE_CTX_set_default
libnode.so:X509_STORE_CTX_set_depth
libnode.so:X509_STORE_CTX_set_error
libnode.so:X509_STORE_CTX_set_error_depth
libnode.so:X509_STORE_CTX_set_ex_data
libnode.so:X509_STORE_CTX_set_flags
libnode.so:X509_STORE_CTX_set_purpose
libnode.so:X509_STORE_CTX_set_time
libnode.so:X509_STORE_CTX_set_trust
libnode.so:X509_STORE_CTX_set_verify
libnode.so:X509_STORE_CTX_set_verify_cb
libnode.so:X509_STORE_add_cert
libnode.so:X509_STORE_add_crl
libnode.so:X509_STORE_add_lookup
libnode.so:X509_STORE_free
libnode.so:X509_STORE_get0_objects
libnode.so:X509_STORE_get0_param
libnode.so:X509_STORE_get_cert_crl
libnode.so:X509_STORE_get_check_crl
libnode.so:X509_STORE_get_check_issued
libnode.so:X509_STORE_get_check_policy
libnode.so:X509_STORE_get_check_revocation
libnode.so:X509_STORE_get_cleanup
libnode.so:X509_STORE_get_ex_data
libnode.so:X509_STORE_get_get_crl
libnode.so:X509_STORE_get_get_issuer
libnode.so:X509_STORE_get_lookup_certs
libnode.so:X509_STORE_get_lookup_crls
libnode.so:X509_STORE_get_verify
libnode.so:X509_STORE_get_verify_cb
libnode.so:X509_STORE_load_locations
libnode.so:X509_STORE_lock
libnode.so:X509_STORE_new
libnode.so:X509_STORE_set1_param
libnode.so:X509_STORE_set_cert_crl
libnode.so:X509_STORE_set_check_crl
libnode.so:X509_STORE_set_check_issued
libnode.so:X509_STORE_set_check_policy
libnode.so:X509_STORE_set_check_revocation
libnode.so:X509_STORE_set_cleanup
libnode.so:X509_STORE_set_default_paths
libnode.so:X509_STORE_set_depth
libnode.so:X509_STORE_set_ex_data
libnode.so:X509_STORE_set_flags
libnode.so:X509_STORE_set_get_crl
libnode.so:X509_STORE_set_get_issuer
libnode.so:X509_STORE_set_lookup_certs
libnode.so:X509_STORE_set_lookup_crls
libnode.so:X509_STORE_set_purpose
libnode.so:X509_STORE_set_trust
libnode.so:X509_STORE_set_verify
libnode.so:X509_STORE_set_verify_cb
libnode.so:X509_STORE_unlock
libnode.so:X509_STORE_up_ref
libnode.so:X509_TRUST_add
libnode.so:X509_TRUST_cleanup
libnode.so:X509_TRUST_get0
libnode.so:X509_TRUST_get0_name
libnode.so:X509_TRUST_get_by_id
libnode.so:X509_TRUST_get_count
libnode.so:X509_TRUST_get_flags
libnode.so:X509_TRUST_get_trust
libnode.so:X509_TRUST_set
libnode.so:X509_TRUST_set_default
libnode.so:X509_VAL_free
libnode.so:X509_VAL_it
libnode.so:X509_VAL_new
libnode.so:X509_VERIFY_PARAM_add0_policy
libnode.so:X509_VERIFY_PARAM_add0_table
libnode.so:X509_VERIFY_PARAM_add1_host
libnode.so:X509_VERIFY_PARAM_clear_flags
libnode.so:X509_VERIFY_PARAM_free
libnode.so:X509_VERIFY_PARAM_get0
libnode.so:X509_VERIFY_PARAM_get0_name
libnode.so:X509_VERIFY_PARAM_get0_peername
libnode.so:X509_VERIFY_PARAM_get_auth_level
libnode.so:X509_VERIFY_PARAM_get_count
libnode.so:X509_VERIFY_PARAM_get_depth
libnode.so:X509_VERIFY_PARAM_get_flags
libnode.so:X509_VERIFY_PARAM_get_hostflags
libnode.so:X509_VERIFY_PARAM_get_inh_flags
libnode.so:X509_VERIFY_PARAM_get_time
libnode.so:X509_VERIFY_PARAM_inherit
libnode.so:X509_VERIFY_PARAM_lookup
libnode.so:X509_VERIFY_PARAM_move_peername
libnode.so:X509_VERIFY_PARAM_new
libnode.so:X509_VERIFY_PARAM_set1
libnode.so:X509_VERIFY_PARAM_set1_email
libnode.so:X509_VERIFY_PARAM_set1_host
libnode.so:X509_VERIFY_PARAM_set1_ip
libnode.so:X509_VERIFY_PARAM_set1_ip_asc
libnode.so:X509_VERIFY_PARAM_set1_name
libnode.so:X509_VERIFY_PARAM_set1_policies
libnode.so:X509_VERIFY_PARAM_set_auth_level
libnode.so:X509_VERIFY_PARAM_set_depth
libnode.so:X509_VERIFY_PARAM_set_flags
libnode.so:X509_VERIFY_PARAM_set_hostflags
libnode.so:X509_VERIFY_PARAM_set_inh_flags
libnode.so:X509_VERIFY_PARAM_set_purpose
libnode.so:X509_VERIFY_PARAM_set_time
libnode.so:X509_VERIFY_PARAM_set_trust
libnode.so:X509_VERIFY_PARAM_table_cleanup
libnode.so:X509_add1_ext_i2d
libnode.so:X509_add1_reject_object
libnode.so:X509_add1_trust_object
libnode.so:X509_add_ext
libnode.so:X509_alias_get0
libnode.so:X509_alias_set1
libnode.so:X509_aux_print
libnode.so:X509_certificate_type
libnode.so:X509_chain_check_suiteb
libnode.so:X509_chain_up_ref
libnode.so:X509_check_akid
libnode.so:X509_check_ca
libnode.so:X509_check_email
libnode.so:X509_check_host
libnode.so:X509_check_ip
libnode.so:X509_check_ip_asc
libnode.so:X509_check_issued
libnode.so:X509_check_private_key
libnode.so:X509_check_purpose
libnode.so:X509_check_trust
libnode.so:X509_cmp
libnode.so:X509_cmp_current_time
libnode.so:X509_cmp_time
libnode.so:X509_delete_ext
libnode.so:X509_digest
libnode.so:X509_dup
libnode.so:X509_email_free
libnode.so:X509_find_by_issuer_and_serial
libnode.so:X509_find_by_subject
libnode.so:X509_free
libnode.so:X509_get0_authority_issuer
libnode.so:X509_get0_authority_key_id
libnode.so:X509_get0_authority_serial
libnode.so:X509_get0_extensions
libnode.so:X509_get0_notAfter
libnode.so:X509_get0_notBefore
libnode.so:X509_get0_pubkey
libnode.so:X509_get0_pubkey_bitstr
libnode.so:X509_get0_reject_objects
libnode.so:X509_get0_serialNumber
libnode.so:X509_get0_signature
libnode.so:X509_get0_subject_key_id
libnode.so:X509_get0_tbs_sigalg
libnode.so:X509_get0_trust_objects
libnode.so:X509_get0_uids
libnode.so:X509_get1_email
libnode.so:X509_get1_ocsp
libnode.so:X509_get_X509_PUBKEY
libnode.so:X509_get_default_cert_area
libnode.so:X509_get_default_cert_dir
libnode.so:X509_get_default_cert_dir_env
libnode.so:X509_get_default_cert_file
libnode.so:X509_get_default_cert_file_env
libnode.so:X509_get_default_private_dir
libnode.so:X509_get_ex_data
libnode.so:X509_get_ext
libnode.so:X509_get_ext_by_NID
libnode.so:X509_get_ext_by_OBJ
libnode.so:X509_get_ext_by_critical
libnode.so:X509_get_ext_count
libnode.so:X509_get_ext_d2i
libnode.so:X509_get_extended_key_usage
libnode.so:X509_get_extension_flags
libnode.so:X509_get_issuer_name
libnode.so:X509_get_key_usage
libnode.so:X509_get_pathlen
libnode.so:X509_get_proxy_pathlen
libnode.so:X509_get_pubkey
libnode.so:X509_get_pubkey_parameters
libnode.so:X509_get_serialNumber
libnode.so:X509_get_signature_info
libnode.so:X509_get_signature_nid
libnode.so:X509_get_signature_type
libnode.so:X509_get_subject_name
libnode.so:X509_get_version
libnode.so:X509_getm_notAfter
libnode.so:X509_getm_notBefore
libnode.so:X509_gmtime_adj
libnode.so:X509_http_nbio
libnode.so:X509_issuer_and_serial_cmp
libnode.so:X509_issuer_and_serial_hash
libnode.so:X509_issuer_name_cmp
libnode.so:X509_issuer_name_hash
libnode.so:X509_issuer_name_hash_old
libnode.so:X509_it
libnode.so:X509_keyid_get0
libnode.so:X509_keyid_set1
libnode.so:X509_load_cert_crl_file
libnode.so:X509_load_cert_file
libnode.so:X509_load_crl_file
libnode.so:X509_new
libnode.so:X509_ocspid_print
libnode.so:X509_policy_check
libnode.so:X509_policy_level_get0_node
libnode.so:X509_policy_level_node_count
libnode.so:X509_policy_node_get0_parent
libnode.so:X509_policy_node_get0_policy
libnode.so:X509_policy_node_get0_qualifiers
libnode.so:X509_policy_tree_free
libnode.so:X509_policy_tree_get0_level
libnode.so:X509_policy_tree_get0_policies
libnode.so:X509_policy_tree_get0_user_policies
libnode.so:X509_policy_tree_level_count
libnode.so:X509_print
libnode.so:X509_print_ex
libnode.so:X509_print_ex_fp
libnode.so:X509_print_fp
libnode.so:X509_pubkey_digest
libnode.so:X509_reject_clear
libnode.so:X509_set1_notAfter
libnode.so:X509_set1_notBefore
libnode.so:X509_set_ex_data
libnode.so:X509_set_issuer_name
libnode.so:X509_set_proxy_flag
libnode.so:X509_set_proxy_pathlen
libnode.so:X509_set_pubkey
libnode.so:X509_set_serialNumber
libnode.so:X509_set_subject_name
libnode.so:X509_set_version
libnode.so:X509_sign
libnode.so:X509_sign_ctx
libnode.so:X509_signature_dump
libnode.so:X509_signature_print
libnode.so:X509_subject_name_cmp
libnode.so:X509_subject_name_hash
libnode.so:X509_subject_name_hash_old
libnode.so:X509_supported_extension
libnode.so:X509_time_adj
libnode.so:X509_time_adj_ex
libnode.so:X509_to_X509_REQ
libnode.so:X509_trust_clear
libnode.so:X509_trusted
libnode.so:X509_up_ref
libnode.so:X509_verify
libnode.so:X509_verify_cert
libnode.so:X509_verify_cert_error_string
libnode.so:X509at_add1_attr
libnode.so:X509at_add1_attr_by_NID
libnode.so:X509at_add1_attr_by_OBJ
libnode.so:X509at_add1_attr_by_txt
libnode.so:X509at_delete_attr
libnode.so:X509at_get0_data_by_OBJ
libnode.so:X509at_get_attr
libnode.so:X509at_get_attr_by_NID
libnode.so:X509at_get_attr_by_OBJ
libnode.so:X509at_get_attr_count
libnode.so:X509v3_add_ext
libnode.so:X509v3_addr_add_inherit
libnode.so:X509v3_addr_add_prefix
libnode.so:X509v3_addr_add_range
libnode.so:X509v3_addr_canonize
libnode.so:X509v3_addr_get_afi
libnode.so:X509v3_addr_get_range
libnode.so:X509v3_addr_inherits
libnode.so:X509v3_addr_is_canonical
libnode.so:X509v3_addr_subset
libnode.so:X509v3_addr_validate_path
libnode.so:X509v3_addr_validate_resource_set
libnode.so:X509v3_asid_add_id_or_range
libnode.so:X509v3_asid_add_inherit
libnode.so:X509v3_asid_canonize
libnode.so:X509v3_asid_inherits
libnode.so:X509v3_asid_is_canonical
libnode.so:X509v3_asid_subset
libnode.so:X509v3_asid_validate_path
libnode.so:X509v3_asid_validate_resource_set
libnode.so:X509v3_delete_ext
libnode.so:X509v3_get_ext
libnode.so:X509v3_get_ext_by_NID
libnode.so:X509v3_get_ext_by_OBJ
libnode.so:X509v3_get_ext_by_critical
libnode.so:X509v3_get_ext_count
libnode.so:X9_62_CHARACTERISTIC_TWO_free
libnode.so:X9_62_CHARACTERISTIC_TWO_new
libnode.so:X9_62_PENTANOMIAL_free
libnode.so:X9_62_PENTANOMIAL_new
libnode.so:ZINT32_it
libnode.so:ZINT64_it
libnode.so:ZLONG_it
libnode.so:ZUINT32_it
libnode.so:ZUINT64_it
libnode.so:_ASCIIData_65
libnode.so:_CESU8Data_65
libnode.so:_CONF_add_string
libnode.so:_CONF_free_data
libnode.so:_CONF_get_section
libnode.so:_CONF_get_section_values
libnode.so:_CONF_get_string
libnode.so:_CONF_new_data
libnode.so:_CONF_new_section
libnode.so:_ISO2022Data_65
libnode.so:_Latin1Data_65
libnode.so:_MBCSData_65
libnode.so:_UTF16BEData_65
libnode.so:_UTF16Data_65
libnode.so:_UTF16LEData_65
libnode.so:_UTF16v2Data_65
libnode.so:_UTF8Data_65
libnode.so:_Z10Initializev
libnode.so:_Z12_register_fsv
libnode.so:_Z12_register_osv
libnode.so:_Z12_register_uvv
libnode.so:_Z12_register_v8v
libnode.so:_Z13_register_icuv
libnode.so:_Z13_register_urlv
libnode.so:_Z14_register_utilv
libnode.so:_Z14_register_wasiv
libnode.so:_Z14_register_zlibv
libnode.so:_Z15_register_http2v
libnode.so:_Z15_register_typesv
libnode.so:_Z16_register_bufferv
libnode.so:_Z16_register_configv
libnode.so:_Z16_register_cryptov
libnode.so:_Z16_register_domainv
libnode.so:_Z16_register_errorsv
libnode.so:_Z16_register_fs_dirv
libnode.so:_Z16_register_reportv
libnode.so:_Z16_register_serdesv
libnode.so:_Z16_register_timersv
libnode.so:_Z16_register_workerv
libnode.so:_Z16ucasemap_mapUTF8ijPN6icu_6513BreakIteratorEPKciPFvijS1_PKhiRNS_8ByteSinkEPNS_5EditsER10UErrorCodeES7_S9_SB_
libnode.so:_Z16ucasemap_mapUTF8ijPN6icu_6513BreakIteratorEPciPKciPFvijS1_PKhiRNS_8ByteSinkEPNS_5EditsER10UErrorCodeESA_SC_
libnode.so:_Z17_register_optionsv
libnode.so:_Z17_register_symbolsv
libnode.so:_Z18_register_tcp_wrapv
libnode.so:_Z18_register_tls_wrapv
libnode.so:_Z18_register_tty_wrapv
libnode.so:_Z18_register_udp_wrapv
libnode.so:_Z18_register_watchdogv
libnode.so:_Z19_register_inspectorv
libnode.so:_Z19_register_js_streamv
libnode.so:_Z19_register_messagingv
libnode.so:_Z19_register_pipe_wrapv
libnode.so:_Z19uprv_decNumberClassPK9decNumberP10decContext
libnode.so:_Z20_register_async_wrapv
libnode.so:_Z20_register_cares_wrapv
libnode.so:_Z20_register_contextifyv
libnode.so:_Z20_register_heap_utilsv
libnode.so:_Z20_register_spawn_syncv
libnode.so:_Z20_register_task_queuev
libnode.so:_Z21_register_credentialsv
libnode.so:_Z21_register_http_parserv
libnode.so:_Z21_register_module_wrapv
libnode.so:_Z21_register_performancev
libnode.so:_Z21_register_signal_wrapv
libnode.so:_Z21_register_stream_pipev
libnode.so:_Z21_register_stream_wrapv
libnode.so:_Z21uprv_currencyLeads_65PKcRN6icu_6510UnicodeSetER10UErrorCode
libnode.so:_Z22_register_process_wrapv
libnode.so:_Z22_register_trace_eventsv
libnode.so:_Z23_register_fs_event_wrapv
libnode.so:_Z23_register_native_modulev
libnode.so:_Z24_register_string_decoderv
libnode.so:_Z25_register_process_methodsv
libnode.so:_Z30napi_module_register_by_symbolN2v85LocalINS_6ObjectEEENS0_INS_5ValueEEENS0_INS_7ContextEEEPFP12napi_value__P10napi_env__S8_E
libnode.so:_Z33uscript_getSampleUnicodeString_6511UScriptCode
libnode.so:_Z34uspoof_getSkeletonUnicodeString_65PK13USpoofCheckerjRKN6icu_6513UnicodeStringERS3_P10UErrorCode
libnode.so:_ZN4node10AsyncHooks20grow_async_ids_stackEv
libnode.so:_ZN4node10BaseObject8DeleteMeEPv
libnode.so:_ZN4node10FatalErrorEPKcS1_
libnode.so:_ZN4node10HandleWrap11OnGCCollectEv
libnode.so:_ZN4node10HandleWrap17MarkAsInitializedEv
libnode.so:_ZN4node10HandleWrap19MarkAsUninitializedEv
libnode.so:_ZN4node10HandleWrap22GetConstructorTemplateEPNS_11EnvironmentE
libnode.so:_ZN4node10HandleWrap3RefERKN2v820FunctionCallbackInfoINS1_5ValueEEE
libnode.so:_ZN4node10HandleWrap5CloseEN2v85LocalINS1_5ValueEEE
libnode.so:_ZN4node10HandleWrap5CloseERKN2v820FunctionCallbackInfoINS1_5ValueEEE
libnode.so:_ZN4node10HandleWrap5UnrefERKN2v820FunctionCallbackInfoINS1_5ValueEEE
libnode.so:_ZN4node10HandleWrap6HasRefERKN2v820FunctionCallbackInfoINS1_5ValueEEE
libnode.so:_ZN4node10HandleWrap7OnCloseEP11uv_handle_s
libnode.so:_ZN4node10HandleWrapC2EPNS_11EnvironmentEN2v85LocalINS3_6ObjectEEEP11uv_handle_sNS_9AsyncWrap12ProviderTypeE
libnode.so:_ZN4node10InitializeEN2v85LocalINS0_6ObjectEEENS1_INS0_5ValueEEENS1_INS0_7ContextEEEPv
libnode.so:_ZN4node10MapKVStore3SetEPN2v87IsolateENS1_5LocalINS1_6StringEEES6_
libnode.so:_ZN4node10MapKVStore6DeleteEPN2v87IsolateENS1_5LocalINS1_6StringEEE
libnode.so:_ZN4node10NewContextEPN2v87IsolateENS0_5LocalINS0_14ObjectTemplateEEEb
libnode.so:_ZN4node10NewIsolateENSt3__110shared_ptrINS_20ArrayBufferAllocatorEEEP9uv_loop_sPNS_20MultiIsolatePlatformE
libnode.so:_ZN4node10NewIsolateEPN2v87Isolate12CreateParamsEP9uv_loop_sPNS_20MultiIsolatePlatformE
libnode.so:_ZN4node10NewIsolateEPNS_20ArrayBufferAllocatorEP9uv_loop_s
libnode.so:_ZN4node10NewIsolateEPNS_20ArrayBufferAllocatorEP9uv_loop_sPNS_20MultiIsolatePlatformE
libnode.so:_ZN4node10ResetStdioEv
libnode.so:_ZN4node10SignalExitEiP9siginfo_tPv
libnode.so:_ZN4node10StreamBase10AddMethodsEPNS_11EnvironmentEN2v85LocalINS3_16FunctionTemplateEEE
libnode.so:_ZN4node10StreamBase10ReadStopJSERKN2v820FunctionCallbackInfoINS1_5ValueEEE
libnode.so:_ZN4node10StreamBase11GetExternalERKN2v820FunctionCallbackInfoINS1_5ValueEEE
libnode.so:_ZN4node10StreamBase11ReadStartJSERKN2v820FunctionCallbackInfoINS1_5ValueEEE
libnode.so:_ZN4node10StreamBase11WriteBufferERKN2v820FunctionCallbackInfoINS1_5ValueEEE
libnode.so:_ZN4node10StreamBase12GetBytesReadERKN2v820FunctionCallbackInfoINS1_5ValueEEE
libnode.so:_ZN4node10StreamBase13UseUserBufferERKN2v820FunctionCallbackInfoINS1_5ValueEEE
libnode.so:_ZN4node10StreamBase14SetWriteResultERKNS_17StreamWriteResultE
libnode.so:_ZN4node10StreamBase15CreateWriteWrapEN2v85LocalINS1_6ObjectEEE
libnode.so:_ZN4node10StreamBase15GetBytesWrittenERKN2v820FunctionCallbackInfoINS1_5ValueEEE
libnode.so:_ZN4node10StreamBase18CallJSOnreadMethodElN2v85LocalINS1_11ArrayBufferEEEmNS0_18StreamBaseJSChecksE
libnode.so:_ZN4node10StreamBase18CreateShutdownWrapEN2v85LocalINS1_6ObjectEEE
libnode.so:_ZN4node10StreamBase5GetFDERKN2v820FunctionCallbackInfoINS1_5ValueEEE
libnode.so:_ZN4node10StreamBase5GetFDEv
libnode.so:_ZN4node10StreamBase6WritevERKN2v820FunctionCallbackInfoINS1_5ValueEEE
libnode.so:_ZN4node10StreamBase8ShutdownERKN2v820FunctionCallbackInfoINS1_5ValueEEE
libnode.so:_ZN4node10StreamBase9AddMethodEPNS_11EnvironmentEN2v85LocalINS3_9SignatureEEENS3_17PropertyAttributeENS4_INS3_16FunctionTemplateEEEPFvRKNS3_20FunctionCallbackInfoINS3_5ValueEEEENS4_INS3_6StringEEE
libnode.so:_ZN4node10StreamBase9GetObjectEv
libnode.so:_ZN4node10StreamBase9IsIPCPipeEv
libnode.so:_ZN4node10StreamPipe11ProcessDataEmONS_15AllocatedBufferE
libnode.so:_ZN4node10StreamPipe13PendingWritesERKN2v820FunctionCallbackInfoINS1_5ValueEEE
libnode.so:_ZN4node10StreamPipe16ReadableListener12OnStreamReadElRK8uv_buf_t
libnode.so:_ZN4node10StreamPipe16ReadableListener13OnStreamAllocEm
libnode.so:_ZN4node10StreamPipe16ReadableListener15OnStreamDestroyEv
libnode.so:_ZN4node10StreamPipe16WritableListener12OnStreamReadElRK8uv_buf_t
libnode.so:_ZN4node10StreamPipe16WritableListener13OnStreamAllocEm
libnode.so:_ZN4node10StreamPipe16WritableListener15OnStreamDestroyEv
libnode.so:_ZN4node10StreamPipe16WritableListener18OnStreamAfterWriteEPNS_9WriteWrapEi
libnode.so:_ZN4node10StreamPipe16WritableListener18OnStreamWantsWriteEm
libnode.so:_ZN4node10StreamPipe16WritableListener21OnStreamAfterShutdownEPNS_12ShutdownWrapEi
libnode.so:_ZN4node10StreamPipe3NewERKN2v820FunctionCallbackInfoINS1_5ValueEEE
libnode.so:_ZN4node10StreamPipe5StartERKN2v820FunctionCallbackInfoINS1_5ValueEEE
libnode.so:_ZN4node10StreamPipe6UnpipeERKN2v820FunctionCallbackInfoINS1_5ValueEEE
libnode.so:_ZN4node10StreamPipe6UnpipeEb
libnode.so:_ZN4node10StreamPipe8IsClosedERKN2v820FunctionCallbackInfoINS1_5ValueEEE
libnode.so:_ZN4node10StreamPipeC1EPNS_10StreamBaseES2_N2v85LocalINS3_6ObjectEEE
libnode.so:_ZN4node10StreamPipeC2EPNS_10StreamBaseES2_N2v85LocalINS3_6ObjectEEE
libnode.so:_ZN4node10StreamPipeD0Ev
libnode.so:_ZN4node10StreamPipeD1Ev
libnode.so:_ZN4node10StreamPipeD2Ev
libnode.so:_ZN4node10Utf8StringEPN2v87IsolateERKNSt3__112basic_stringIcNS3_11char_traitsIcEENS3_9allocatorIcEEEE
libnode.so:_ZN4node10contextify10InitializeEN2v85LocalINS1_6ObjectEEENS2_INS1_5ValueEEENS2_INS1_7ContextEEEPv
libnode.so:_ZN4node10contextify15CompiledFnEntry12WeakCallbackERKN2v816WeakCallbackInfoIS1_EE
libnode.so:_ZN4node10contextify15CompiledFnEntryC1EPNS_11EnvironmentEN2v85LocalINS4_6ObjectEEEjNS5_INS4_14ScriptOrModuleEEE
libnode.so:_ZN4node10contextify15CompiledFnEntryC2EPNS_11EnvironmentEN2v85LocalINS4_6ObjectEEEjNS5_INS4_14ScriptOrModuleEEE
libnode.so:_ZN4node10contextify15CompiledFnEntryD0Ev
libnode.so:_ZN4node10contextify15CompiledFnEntryD1Ev
libnode.so:_ZN4node10contextify15CompiledFnEntryD2Ev
libnode.so:_ZN4node10contextify16ContextifyScript10InstanceOfEPNS_11EnvironmentERKN2v85LocalINS4_5ValueEEE
libnode.so:_ZN4node10contextify16ContextifyScript11EvalMachineEPNS_11EnvironmentElbbbRKN2v820FunctionCallbackInfoINS4_5ValueEEE
libnode.so:_ZN4node10contextify16ContextifyScript12RunInContextERKN2v820FunctionCallbackInfoINS2_5ValueEEE
libnode.so:_ZN4node10contextify16ContextifyScript16CreateCachedDataERKN2v820FunctionCallbackInfoINS2_5ValueEEE
libnode.so:_ZN4node10contextify16ContextifyScript16RunInThisContextERKN2v820FunctionCallbackInfoINS2_5ValueEEE
libnode.so:_ZN4node10contextify16ContextifyScript3NewERKN2v820FunctionCallbackInfoINS2_5ValueEEE
libnode.so:_ZN4node10contextify16ContextifyScript4InitEPNS_11EnvironmentEN2v85LocalINS4_6ObjectEEE
libnode.so:_ZN4node10contextify16ContextifyScriptC1EPNS_11EnvironmentEN2v85LocalINS4_6ObjectEEE
libnode.so:_ZN4node10contextify16ContextifyScriptC2EPNS_11EnvironmentEN2v85LocalINS4_6ObjectEEE
libnode.so:_ZN4node10contextify16ContextifyScriptD0Ev
libnode.so:_ZN4node10contextify16ContextifyScriptD1Ev
libnode.so:_ZN4node10contextify16ContextifyScriptD2Ev
libnode.so:_ZN4node10contextify17ContextifyContext11CleanupHookEPv
libnode.so:_ZN4node10contextify17ContextifyContext11MakeContextERKN2v820FunctionCallbackInfoINS2_5ValueEEE
libnode.so:_ZN4node10contextify17ContextifyContext12WeakCallbackERKN2v816WeakCallbackInfoIS1_EE
libnode.so:_ZN4node10contextify17ContextifyContext15CompileFunctionERKN2v820FunctionCallbackInfoINS2_5ValueEEE
libnode.so:_ZN4node10contextify17ContextifyContext15CreateV8ContextEPNS_11EnvironmentEN2v85LocalINS4_6ObjectEEERKNS0_14ContextOptionsE
libnode.so:_ZN4node10contextify17ContextifyContext17CreateDataWrapperEPNS_11EnvironmentE
libnode.so:_ZN4node10contextify17ContextifyContext22PropertyGetterCallbackEN2v85LocalINS2_4NameEEERKNS2_20PropertyCallbackInfoINS2_5ValueEEE
libnode.so:_ZN4node10contextify17ContextifyContext22PropertySetterCallbackEN2v85LocalINS2_4NameEEENS3_INS2_5ValueEEERKNS2_20PropertyCallbackInfoIS6_EE
libnode.so:_ZN4node10contextify17ContextifyContext23PropertyDefinerCallbackEN2v85LocalINS2_4NameEEERKNS2_18PropertyDescriptorERKNS2_20PropertyCallbackInfoINS2_5ValueEEE
libnode.so:_ZN4node10contextify17ContextifyContext23PropertyDeleterCallbackEN2v85LocalINS2_4NameEEERKNS2_20PropertyCallbackInfoINS2_7BooleanEEE
libnode.so:_ZN4node10contextify17ContextifyContext26PropertyDescriptorCallbackEN2v85LocalINS2_4NameEEERKNS2_20PropertyCallbackInfoINS2_5ValueEEE
libnode.so:_ZN4node10contextify17ContextifyContext26PropertyEnumeratorCallbackERKN2v820PropertyCallbackInfoINS2_5ArrayEEE
libnode.so:_ZN4node10contextify17ContextifyContext29IndexedPropertyGetterCallbackEjRKN2v820PropertyCallbackInfoINS2_5ValueEEE
libnode.so:_ZN4node10contextify17ContextifyContext29IndexedPropertySetterCallbackEjN2v85LocalINS2_5ValueEEERKNS2_20PropertyCallbackInfoIS4_EE
libnode.so:_ZN4node10contextify17ContextifyContext30ContextFromContextifiedSandboxEPNS_11EnvironmentERKN2v85LocalINS4_6ObjectEEE
libnode.so:_ZN4node10contextify17ContextifyContext30IndexedPropertyDefinerCallbackEjRKN2v818PropertyDescriptorERKNS2_20PropertyCallbackInfoINS2_5ValueEEE
libnode.so:_ZN4node10contextify17ContextifyContext30IndexedPropertyDeleterCallbackEjRKN2v820PropertyCallbackInfoINS2_7BooleanEEE
libnode.so:_ZN4node10contextify17ContextifyContext33IndexedPropertyDescriptorCallbackEjRKN2v820PropertyCallbackInfoINS2_5ValueEEE
libnode.so:_ZN4node10contextify17ContextifyContext4InitEPNS_11EnvironmentEN2v85LocalINS4_6ObjectEEE
libnode.so:_ZN4node10contextify17ContextifyContext9IsContextERKN2v820FunctionCallbackInfoINS2_5ValueEEE
libnode.so:_ZN4node10contextify17ContextifyContextC1EPNS_11EnvironmentEN2v85LocalINS4_6ObjectEEERKNS0_14ContextOptionsE
libnode.so:_ZN4node10contextify17ContextifyContextC2EPNS_11EnvironmentEN2v85LocalINS4_6ObjectEEERKNS0_14ContextOptionsE
libnode.so:_ZN4node10contextify17ContextifyContextD1Ev
libnode.so:_ZN4node10contextify17ContextifyContextD2Ev
libnode.so:_ZN4node10task_queue21PromiseRejectCallbackEN2v820PromiseRejectMessageE
libnode.so:_ZN4node11AddressToJSEPNS_11EnvironmentEPK8sockaddrN2v85LocalINS5_6ObjectEEE
libnode.so:_ZN4node11BufferValueC1EPN2v87IsolateENS1_5LocalINS1_5ValueEEE
libnode.so:_ZN4node11BufferValueC2EPN2v87IsolateENS1_5LocalINS1_5ValueEEE
libnode.so:_ZN4node11ConnectWrapC1EPNS_11EnvironmentEN2v85LocalINS3_6ObjectEEENS_9AsyncWrap12ProviderTypeE
libnode.so:_ZN4node11ConnectWrapC2EPNS_11EnvironmentEN2v85LocalINS3_6ObjectEEENS_9AsyncWrap12ProviderTypeE
libnode.so:_ZN4node11DecodeBytesEPN2v87IsolateENS0_5LocalINS0_5ValueEEENS_8encodingE
libnode.so:_ZN4node11DecodeWriteEPN2v87IsolateEPcmNS0_5LocalINS0_5ValueEEENS_8encodingE
libnode.so:_ZN4node11Environment10BeforeExitEPFvPvES1_
libnode.so:_ZN4node11Environment10ReallocateEPcmm
libnode.so:_ZN4node11Environment10RunCleanupEv
libnode.so:_ZN4node11Environment12KickNextTickEv
libnode.so:_ZN4node11Environment13BootstrapNodeEv
libnode.so:_ZN4node11Environment13ScheduleTimerEl
libnode.so:_ZN4node11Environment14CheckImmediateEP10uv_check_s
libnode.so:_ZN4node11Environment14CleanupHandlesEv
libnode.so:_ZN4node11Environment14ToggleTimerRefEb
libnode.so:_ZN4node11Environment15InitializeLibuvEb
libnode.so:_ZN4node11Environment15kNodeContextTagE
libnode.so:_ZN4node11Environment16CreatePropertiesEv
libnode.so:_ZN4node11Environment16RunBootstrappingEv
libnode.so:_ZN4node11Environment16thread_local_envE
libnode.so:_ZN4node11Environment17RunWeakRefCleanupEv
libnode.so:_ZN4node11Environment18BuildEmbedderGraphEPN2v87IsolateEPNS1_13EmbedderGraphEPv
libnode.so:_ZN4node11Environment18RunAtExitCallbacksEv
libnode.so:_ZN4node11Environment18ToggleImmediateRefEb
libnode.so:_ZN4node11Environment18kNodeContextTagPtrE
libnode.so:_ZN4node11Environment21InitializeDiagnosticsEv
libnode.so:_ZN4node11Environment21RunAndClearInterruptsEv
libnode.so:_ZN4node11Environment22CollectUVExceptionInfoEN2v85LocalINS1_5ValueEEEiPKcS6_S6_S6_
libnode.so:_ZN4node11Environment22RegisterHandleCleanupsEv
libnode.so:_ZN4node11Environment22RequestInterruptFromV8Ev
libnode.so:_ZN4node11Environment22RunBeforeExitCallbacksEv
libnode.so:_ZN4node11Environment24BootstrapInternalLoadersEv
libnode.so:_ZN4node11Environment24StopProfilerIdleNotifierEv
libnode.so:_ZN4node11Environment24stop_sub_worker_contextsEv
libnode.so:_ZN4node11Environment25CleanupFinalizationGroupsEv
libnode.so:_ZN4node11Environment25StartProfilerIdleNotifierEv
libnode.so:_ZN4node11Environment27RunAndClearNativeImmediatesEb
libnode.so:_ZN4node11Environment4ExitEi
libnode.so:_ZN4node11Environment6AtExitEPFvPvES1_
libnode.so:_ZN4node11Environment6GetNowEv
libnode.so:_ZN4node11Environment7ExitEnvEv
libnode.so:_ZN4node11Environment9RunTimersEP10uv_timer_s
libnode.so:_ZN4node11EnvironmentC1EPNS_11IsolateDataEN2v85LocalINS3_7ContextEEERKNSt3__16vectorINS7_12basic_stringIcNS7_11char_traitsIcEENS7_9allocatorIcEEEENSC_ISE_EEEESI_NS_16EnvironmentFlags5FlagsENS_8ThreadIdE
libnode.so:_ZN4node11EnvironmentC2EPNS_11IsolateDataEN2v85LocalINS3_7ContextEEERKNSt3__16vectorINS7_12basic_stringIcNS7_11char_traitsIcEENS7_9allocatorIcEEEENSC_ISE_EEEESI_NS_16EnvironmentFlags5FlagsENS_8ThreadIdE
libnode.so:_ZN4node11EnvironmentD0Ev
libnode.so:_ZN4node11EnvironmentD1Ev
libnode.so:_ZN4node11EnvironmentD2Ev
libnode.so:_ZN4node11GetExecPathERKNSt3__16vectorINS0_12basic_stringIcNS0_11char_traitsIcEENS0_9allocatorIcEEEENS5_IS7_EEEE
libnode.so:_ZN4node11IsolateData16CreatePropertiesEv
libnode.so:_ZN4node11IsolateData21DeserializePropertiesEPKNSt3__16vectorImNS1_9allocatorImEEEE
libnode.so:_ZN4node11IsolateData9SerializeEPN2v815SnapshotCreatorE
libnode.so:_ZN4node11IsolateDataC1EPN2v87IsolateEP9uv_loop_sPNS_20MultiIsolatePlatformEPNS_20ArrayBufferAllocatorEPKNSt3__16vectorImNSA_9allocatorImEEEE
libnode.so:_ZN4node11IsolateDataC2EPN2v87IsolateEP9uv_loop_sPNS_20MultiIsolatePlatformEPNS_20ArrayBufferAllocatorEPKNSt3__16vectorImNSA_9allocatorImEEEE
libnode.so:_ZN4node11ProcessEmitEPNS_11EnvironmentEPKcN2v85LocalINS4_5ValueEEE
libnode.so:_ZN4node11PromiseWrap19getIsChainedPromiseEN2v85LocalINS1_6StringEEERKNS1_20PropertyCallbackInfoINS1_5ValueEEE
libnode.so:_ZN4node11PromiseWrap3NewEPNS_11EnvironmentEN2v85LocalINS3_7PromiseEEEPS0_b
libnode.so:_ZN4node11SplitStringERKNSt3__112basic_stringIcNS0_11char_traitsIcEENS0_9allocatorIcEEEEc
libnode.so:_ZN4node11StatWatcher10InitializeEPNS_11EnvironmentEN2v85LocalINS3_6ObjectEEE
libnode.so:_ZN4node11StatWatcher3NewERKN2v820FunctionCallbackInfoINS1_5ValueEEE
libnode.so:_ZN4node11StatWatcher5StartERKN2v820FunctionCallbackInfoINS1_5ValueEEE
libnode.so:_ZN4node11StatWatcher8CallbackEP12uv_fs_poll_siPK9uv_stat_tS5_
libnode.so:_ZN4node11StatWatcherC1EPNS_2fs11BindingDataEN2v85LocalINS4_6ObjectEEEb
libnode.so:_ZN4node11StatWatcherC2EPNS_2fs11BindingDataEN2v85LocalINS4_6ObjectEEEb
libnode.so:_ZN4node11StringBytes10hex_encodeEPKcm
libnode.so:_ZN4node11StringBytes10hex_encodeEPKcmPcm
libnode.so:_ZN4node11StringBytes11StorageSizeEPN2v87IsolateENS1_5LocalINS1_5ValueEEENS_8encodingE
libnode.so:_ZN4node11StringBytes4SizeEPN2v87IsolateENS1_5LocalINS1_5ValueEEENS_8encodingE
libnode.so:_ZN4node11StringBytes5WriteEPN2v87IsolateEPcmNS1_5LocalINS1_5ValueEEENS_8encodingEPi
libnode.so:_ZN4node11StringBytes6EncodeEPN2v87IsolateEPKcNS_8encodingEPNS1_5LocalINS1_5ValueEEE
libnode.so:_ZN4node11StringBytes6EncodeEPN2v87IsolateEPKcmNS_8encodingEPNS1_5LocalINS1_5ValueEEE
libnode.so:_ZN4node11StringBytes6EncodeEPN2v87IsolateEPKtmPNS1_5LocalINS1_5ValueEEE
libnode.so:_ZN4node11StringBytes9WriteUCS2EPN2v87IsolateEPcmNS1_5LocalINS1_6StringEEEiPm
libnode.so:_ZN4node11UDPListenerD0Ev
libnode.so:_ZN4node11UDPListenerD1Ev
libnode.so:_ZN4node11UDPListenerD2Ev
libnode.so:_ZN4node11UDPWrapBase10AddMethodsEPNS_11EnvironmentEN2v85LocalINS3_16FunctionTemplateEEE
libnode.so:_ZN4node11UDPWrapBase10FromObjectEN2v85LocalINS1_6ObjectEEE
libnode.so:_ZN4node11UDPWrapBase12set_listenerEPNS_11UDPListenerE
libnode.so:_ZN4node11UDPWrapBase8RecvStopERKN2v820FunctionCallbackInfoINS1_5ValueEEE
libnode.so:_ZN4node11UDPWrapBase9RecvStartERKN2v820FunctionCallbackInfoINS1_5ValueEEE
libnode.so:_ZN4node11UDPWrapBaseD0Ev
libnode.so:_ZN4node11UDPWrapBaseD1Ev
libnode.so:_ZN4node11UDPWrapBaseD2Ev
libnode.so:_ZN4node11UVExceptionEPN2v87IsolateEiPKcS4_S4_S4_
libnode.so:_ZN4node11credentials10SafeGetenvEPKcPNSt3__112basic_stringIcNS3_11char_traitsIcEENS3_9allocatorIcEEEEPNS_11EnvironmentE
libnode.so:_ZN4node11per_process11cli_optionsE
libnode.so:_ZN4node11per_process11umask_mutexE
libnode.so:_ZN4node11per_process11v8_platformE
libnode.so:_ZN4node11per_process12reverted_cveE
libnode.so:_ZN4node11per_process13env_var_mutexE
libnode.so:_ZN4node11per_process14v8_initializedE
libnode.so:_ZN4node11per_process15linux_at_secureE
libnode.so:_ZN4node11per_process15node_start_timeE
libnode.so:_ZN4node11per_process15v8_is_profilingE
libnode.so:_ZN4node11per_process17cli_options_mutexE
libnode.so:_ZN4node11per_process18enabled_debug_listE
libnode.so:_ZN4node11per_process18system_environmentE
libnode.so:_ZN4node11per_process8metadataE
libnode.so:_ZN4node11performance10InitializeEN2v85LocalINS1_6ObjectEEENS2_INS1_5ValueEEENS2_INS1_7ContextEEEPv
libnode.so:_ZN4node11performance10timeOriginE
libnode.so:_ZN4node11performance12ELDHistogram11RecordDeltaEv
libnode.so:_ZN4node11performance12ELDHistogram21DelayIntervalCallbackEP10uv_timer_s
libnode.so:_ZN4node11performance12ELDHistogram6EnableEv
libnode.so:_ZN4node11performance12ELDHistogram7DisableEv
libnode.so:_ZN4node11performance12ELDHistogramC1EPNS_11EnvironmentEN2v85LocalINS4_6ObjectEEEi
libnode.so:_ZN4node11performance12ELDHistogramC2EPNS_11EnvironmentEN2v85LocalINS4_6ObjectEEEi
libnode.so:_ZN4node11performance13MarkMilestoneERKN2v820FunctionCallbackInfoINS1_5ValueEEE
libnode.so:_ZN4node11performance16PerformanceEntry3NewERKN2v820FunctionCallbackInfoINS2_5ValueEEE
libnode.so:_ZN4node11performance16PerformanceEntry6NotifyEPNS_11EnvironmentENS0_20PerformanceEntryTypeEN2v85LocalINS5_5ValueEEE
libnode.so:_ZN4node11performance16PerformanceState4MarkENS0_20PerformanceMilestoneEm
libnode.so:_ZN4node11performance17TimerFunctionCallERKN2v820FunctionCallbackInfoINS1_5ValueEEE
libnode.so:_ZN4node11performance20performance_v8_startE
libnode.so:_ZN4node11performance21PerformanceGCCallbackEPNS_11EnvironmentENSt3__110unique_ptrINS0_18GCPerformanceEntryENS3_14default_deleteIS5_EEEE
libnode.so:_ZN4node11performance24MarkGarbageCollectionEndEPN2v87IsolateENS1_6GCTypeENS1_15GCCallbackFlagsEPv
libnode.so:_ZN4node11performance25SetupPerformanceObserversERKN2v820FunctionCallbackInfoINS1_5ValueEEE
libnode.so:_ZN4node11performance26MarkGarbageCollectionStartEPN2v87IsolateENS1_6GCTypeENS1_15GCCallbackFlagsEPv
libnode.so:_ZN4node11performance28GarbageCollectionCleanupHookEPv
libnode.so:_ZN4node11performance4MarkERKN2v820FunctionCallbackInfoINS1_5ValueEEE
libnode.so:_ZN4node11performance6NotifyERKN2v820FunctionCallbackInfoINS1_5ValueEEE
libnode.so:_ZN4node11performance7MeasureERKN2v820FunctionCallbackInfoINS1_5ValueEEE
libnode.so:_ZN4node11performance8TimerifyERKN2v820FunctionCallbackInfoINS1_5ValueEEE
libnode.so:_ZN4node11performance9ClearMarkERKN2v820FunctionCallbackInfoINS1_5ValueEEE
libnode.so:_ZN4node12DebugOptions12CheckOptionsEPNSt3__16vectorINS1_12basic_stringIcNS1_11char_traitsIcEENS1_9allocatorIcEEEENS6_IS8_EEEE
libnode.so:_ZN4node12FreePlatformEPNS_20MultiIsolatePlatformE
libnode.so:_ZN4node12MakeCallbackEPN2v87IsolateENS0_5LocalINS0_6ObjectEEENS3_INS0_6StringEEEiPNS3_INS0_5ValueEEE
libnode.so:_ZN4node12MakeCallbackEPN2v87IsolateENS0_5LocalINS0_6ObjectEEENS3_INS0_6StringEEEiPNS3_INS0_5ValueEEENS_13async_contextE
libnode.so:_ZN4node12MakeCallbackEPN2v87IsolateENS0_5LocalINS0_6ObjectEEENS3_INS0_8FunctionEEEiPNS3_INS0_5ValueEEE
libnode.so:_ZN4node12MakeCallbackEPN2v87IsolateENS0_5LocalINS0_6ObjectEEENS3_INS0_8FunctionEEEiPNS3_INS0_5ValueEEENS_13async_contextE
libnode.so:_ZN4node12MakeCallbackEPN2v87IsolateENS0_5LocalINS0_6ObjectEEEPKciPNS3_INS0_5ValueEEE
libnode.so:_ZN4node12MakeCallbackEPN2v87IsolateENS0_5LocalINS0_6ObjectEEEPKciPNS3_INS0_5ValueEEENS_13async_contextE
libnode.so:_ZN4node12NodePlatform10DrainTasksEPN2v87IsolateE
libnode.so:_ZN4node12NodePlatform10ForIsolateEPN2v87IsolateE
libnode.so:_ZN4node12NodePlatform14ForNodeIsolateEPN2v87IsolateE
libnode.so:_ZN4node12NodePlatform15RegisterIsolateEPN2v87IsolateEP9uv_loop_s
libnode.so:_ZN4node12NodePlatform15RegisterIsolateEPN2v87IsolateEPNS_23IsolatePlatformDelegateE
libnode.so:_ZN4node12NodePlatform16IdleTasksEnabledEPN2v87IsolateE
libnode.so:_ZN4node12NodePlatform17UnregisterIsolateEPN2v87IsolateE
libnode.so:_ZN4node12NodePlatform18CallOnWorkerThreadENSt3__110unique_ptrIN2v84TaskENS1_14default_deleteIS4_EEEE
libnode.so:_ZN4node12NodePlatform20FlushForegroundTasksEPN2v87IsolateE
libnode.so:_ZN4node12NodePlatform20GetStackTracePrinterEv
libnode.so:_ZN4node12NodePlatform20GetTracingControllerEv
libnode.so:_ZN4node12NodePlatform21NumberOfWorkerThreadsEv
libnode.so:_ZN4node12NodePlatform22CurrentClockTimeMillisEv
libnode.so:_ZN4node12NodePlatform23GetForegroundTaskRunnerEPN2v87IsolateE
libnode.so:_ZN4node12NodePlatform25CallDelayedOnWorkerThreadENSt3__110unique_ptrIN2v84TaskENS1_14default_deleteIS4_EEEEd
libnode.so:_ZN4node12NodePlatform26AddIsolateFinishedCallbackEPN2v87IsolateEPFvPvES4_
libnode.so:_ZN4node12NodePlatform27MonotonicallyIncreasingTimeEv
libnode.so:_ZN4node12NodePlatform8ShutdownEv
libnode.so:_ZN4node12NodePlatformC1EiPN2v817TracingControllerE
libnode.so:_ZN4node12NodePlatformC2EiPN2v817TracingControllerE
libnode.so:_ZN4node12NodePlatformD0Ev
libnode.so:_ZN4node12NodePlatformD1Ev
libnode.so:_ZN4node12NodePlatformD2Ev
libnode.so:_ZN4node12OnFatalErrorEPKcS1_
libnode.so:_ZN4node12ProtoThrowerERKN2v820FunctionCallbackInfoINS0_5ValueEEE
libnode.so:_ZN4node12RealEnvStore3SetEPN2v87IsolateENS1_5LocalINS1_6StringEEES6_
libnode.so:_ZN4node12RealEnvStore6DeleteEPN2v87IsolateENS1_5LocalINS1_6StringEEE
libnode.so:_ZN4node12ShutdownWrap6OnDoneEi
libnode.so:_ZN4node12TwoByteValueC1EPN2v87IsolateENS1_5LocalINS1_5ValueEEE
libnode.so:_ZN4node12TwoByteValueC2EPN2v87IsolateENS1_5LocalINS1_5ValueEEE
libnode.so:_ZN4node12node_is_nwjsE
libnode.so:_ZN4node12signo_stringEi
libnode.so:_ZN4node13AsyncResource12MakeCallbackEN2v85LocalINS1_6StringEEEiPNS2_INS1_5ValueEEE
libnode.so:_ZN4node13AsyncResource12MakeCallbackEN2v85LocalINS1_8FunctionEEEiPNS2_INS1_5ValueEEE
libnode.so:_ZN4node13AsyncResource12MakeCallbackEPKciPN2v85LocalINS3_5ValueEEE
libnode.so:_ZN4node13AsyncResource12get_resourceEv
libnode.so:_ZN4node13AsyncResource13CallbackScopeC1EPS0_
libnode.so:_ZN4node13AsyncResource13CallbackScopeC2EPS0_
libnode.so:_ZN4node13AsyncResourceC1EPN2v87IsolateENS1_5LocalINS1_6ObjectEEEPKcd
libnode.so:_ZN4node13AsyncResourceC2EPN2v87IsolateENS1_5LocalINS1_6ObjectEEEPKcd
libnode.so:_ZN4node13AsyncResourceD0Ev
libnode.so:_ZN4node13AsyncResourceD1Ev
libnode.so:_ZN4node13AsyncResourceD2Ev
libnode.so:_ZN4node13CallbackScopeC1EPN2v87IsolateENS1_5LocalINS1_6ObjectEEENS_13async_contextE
libnode.so:_ZN4node13CallbackScopeC2EPN2v87IsolateENS1_5LocalINS1_6ObjectEEENS_13async_contextE
libnode.so:_ZN4node13CallbackScopeD1Ev
libnode.so:_ZN4node13CallbackScopeD2Ev
libnode.so:_ZN4node13DumpBacktraceEP8_IO_FILE
libnode.so:_ZN4node13EmitAsyncInitEPN2v87IsolateENS0_5LocalINS0_6ObjectEEENS3_INS0_6StringEEEd
libnode.so:_ZN4node13EmitAsyncInitEPN2v87IsolateENS0_5LocalINS0_6ObjectEEEPKcd
libnode.so:_ZN4node13HistogramBase10GetExceedsERKN2v820FunctionCallbackInfoINS1_5ValueEEE
libnode.so:_ZN4node13HistogramBase10InitializeEPNS_11EnvironmentE
libnode.so:_ZN4node13HistogramBase13GetPercentileERKN2v820FunctionCallbackInfoINS1_5ValueEEE
libnode.so:_ZN4node13HistogramBase14GetPercentilesERKN2v820FunctionCallbackInfoINS1_5ValueEEE
libnode.so:_ZN4node13HistogramBase3NewEPNS_11EnvironmentElli
libnode.so:_ZN4node13HistogramBase6GetMaxERKN2v820FunctionCallbackInfoINS1_5ValueEEE
libnode.so:_ZN4node13HistogramBase6GetMinERKN2v820FunctionCallbackInfoINS1_5ValueEEE
libnode.so:_ZN4node13HistogramBase7DoResetERKN2v820FunctionCallbackInfoINS1_5ValueEEE
libnode.so:_ZN4node13HistogramBase7GetMeanERKN2v820FunctionCallbackInfoINS1_5ValueEEE
libnode.so:_ZN4node13HistogramBase9GetStddevERKN2v820FunctionCallbackInfoINS1_5ValueEEE
libnode.so:_ZN4node13HistogramBaseC1EPNS_11EnvironmentEN2v85LocalINS3_6ObjectEEElli
libnode.so:_ZN4node13HistogramBaseC2EPNS_11EnvironmentEN2v85LocalINS3_6ObjectEEElli
libnode.so:_ZN4node13MemoryTracker10TrackFieldEPKcRKNS_19CleanupHookCallbackES2_
libnode.so:_ZN4node13ParseEncodingEPKcNS_8encodingE
libnode.so:_ZN4node13ParseEncodingEPN2v87IsolateENS0_5LocalINS0_5ValueEEENS_8encodingE
libnode.so:_ZN4node13SocketAddress10ToSockAddrEiPKcjP16sockaddr_storage
libnode.so:_ZN4node13SocketAddress12FromPeerNameERK8uv_tcp_s
libnode.so:_ZN4node13SocketAddress12FromPeerNameERK8uv_udp_s
libnode.so:_ZN4node13SocketAddress12FromSockNameERK8uv_tcp_s
libnode.so:_ZN4node13SocketAddress12FromSockNameERK8uv_udp_s
libnode.so:_ZN4node13SocketAddress3NewEPKcjPS0_
libnode.so:_ZN4node13SocketAddress3NewEiPKcjPS0_
libnode.so:_ZN4node13StringDecoder10DecodeDataEPN2v87IsolateEPKcPm
libnode.so:_ZN4node13StringDecoder9FlushDataEPN2v87IsolateE
libnode.so:_ZN4node13WriteFileSyncEPKc8uv_buf_t
libnode.so:_ZN4node13WriteFileSyncEPN2v87IsolateEPKcNS0_5LocalINS0_6StringEEE
libnode.so:_ZN4node13g_dom_contextE
libnode.so:_ZN4node13native_module14has_code_cacheE
libnode.so:_ZN4node13native_module15NativeModuleEnv10InitializeEN2v85LocalINS2_6ObjectEEENS3_INS2_5ValueEEENS3_INS2_7ContextEEEPv
libnode.so:_ZN4node13native_module15NativeModuleEnv12RecordResultEPKcNS0_18NativeModuleLoader6ResultEPNS_11EnvironmentE
libnode.so:_ZN4node13native_module15NativeModuleEnv13GetCacheUsageERKN2v820FunctionCallbackInfoINS2_5ValueEEE
libnode.so:_ZN4node13native_module15NativeModuleEnv15CompileFunctionERKN2v820FunctionCallbackInfoINS2_5ValueEEE
libnode.so:_ZN4node13native_module15NativeModuleEnv15GetConfigStringEPN2v87IsolateE
libnode.so:_ZN4node13native_module15NativeModuleEnv15GetSourceObjectEN2v85LocalINS2_7ContextEEE
libnode.so:_ZN4node13native_module15NativeModuleEnv15ModuleIdsGetterEN2v85LocalINS2_4NameEEERKNS2_20PropertyCallbackInfoINS2_5ValueEEE
libnode.so:_ZN4node13native_module15NativeModuleEnv16LookupAndCompileEN2v85LocalINS2_7ContextEEEPKcPNSt3__16vectorINS3_INS2_6StringEEENS8_9allocatorISB_EEEEPNS_11EnvironmentE
libnode.so:_ZN4node13native_module15NativeModuleEnv18ConfigStringGetterEN2v85LocalINS2_4NameEEERKNS2_20PropertyCallbackInfoINS2_5ValueEEE
libnode.so:_ZN4node13native_module15NativeModuleEnv19GetModuleCategoriesEN2v85LocalINS2_4NameEEERKNS2_20PropertyCallbackInfoINS2_5ValueEEE
libnode.so:_ZN4node13native_module15NativeModuleEnv19InitializeCodeCacheEv
libnode.so:_ZN4node13native_module15NativeModuleEnv3AddEPKcRKNS_10UnionBytesE
libnode.so:_ZN4node13native_module15NativeModuleEnv6ExistsEPKc
libnode.so:_ZN4node13native_module18NativeModuleLoader10code_cacheEv
libnode.so:_ZN4node13native_module18NativeModuleLoader11GetInstanceEv
libnode.so:_ZN4node13native_module18NativeModuleLoader12GetModuleIdsEv
libnode.so:_ZN4node13native_module18NativeModuleLoader13CanBeRequiredEPKc
libnode.so:_ZN4node13native_module18NativeModuleLoader15CompileAsModuleEN2v85LocalINS2_7ContextEEEPKcPNS1_6ResultE
libnode.so:_ZN4node13native_module18NativeModuleLoader15GetConfigStringEPN2v87IsolateE
libnode.so:_ZN4node13native_module18NativeModuleLoader15GetSourceObjectEN2v85LocalINS2_7ContextEEE
libnode.so:_ZN4node13native_module18NativeModuleLoader16CannotBeRequiredEPKc
libnode.so:_ZN4node13native_module18NativeModuleLoader16GetCanBeRequiredEv
libnode.so:_ZN4node13native_module18NativeModuleLoader16LookupAndCompileEN2v85LocalINS2_7ContextEEEPKcPNSt3__16vectorINS3_INS2_6StringEEENS8_9allocatorISB_EEEEPNS1_6ResultE
libnode.so:_ZN4node13native_module18NativeModuleLoader19GetCannotBeRequiredEv
libnode.so:_ZN4node13native_module18NativeModuleLoader20LoadJavaScriptSourceEv
libnode.so:_ZN4node13native_module18NativeModuleLoader23LoadBuiltinModuleSourceEPN2v87IsolateEPKc
libnode.so:_ZN4node13native_module18NativeModuleLoader26InitializeModuleCategoriesEv
libnode.so:_ZN4node13native_module18NativeModuleLoader3AddEPKcRKNS_10UnionBytesE
libnode.so:_ZN4node13native_module18NativeModuleLoader6ExistsEPKc
libnode.so:_ZN4node13native_module18NativeModuleLoader9GetConfigEv
libnode.so:_ZN4node13native_module18NativeModuleLoader9instance_E
libnode.so:_ZN4node13native_module18NativeModuleLoaderC1Ev
libnode.so:_ZN4node13native_module18NativeModuleLoaderC2Ev
libnode.so:_ZN4node13native_module7ToJsSetEN2v85LocalINS1_7ContextEEERKNSt3__13setINS5_12basic_stringIcNS5_11char_traitsIcEENS5_9allocatorIcEEEENS5_4lessISC_EENSA_ISC_EEEE
libnode.so:_ZN4node14CreatePlatformEiPN2v817TracingControllerE
libnode.so:_ZN4node14CreatePlatformEiPNS_7tracing17TracingControllerE
libnode.so:_ZN4node14EmitBeforeExitEPNS_11EnvironmentE
libnode.so:_ZN4node14ErrnoExceptionEPN2v87IsolateEiPKcS4_S4_
libnode.so:_ZN4node14FatalExceptionEPN2v87IsolateERKNS0_8TryCatchE
libnode.so:_ZN4node14PrintExceptionEPN2v87IsolateENS0_5LocalINS0_7ContextEEENS3_INS0_5ValueEEENS3_INS0_7MessageEEE
libnode.so:_ZN4node14SigintWatchdog12HandleSigintEv
libnode.so:_ZN4node14SigintWatchdogC1EPN2v87IsolateEPb
libnode.so:_ZN4node14SigintWatchdogC2EPN2v87IsolateEPb
libnode.so:_ZN4node14SigintWatchdogD0Ev
libnode.so:_ZN4node14SigintWatchdogD1Ev
libnode.so:_ZN4node14SigintWatchdogD2Ev
libnode.so:_ZN4node14StartExecutionEPNS_11EnvironmentENSt3__18functionIFN2v810MaybeLocalINS4_5ValueEEERKNS_26StartExecutionCallbackInfoEEEE
libnode.so:_ZN4node14StreamListener18OnStreamAfterWriteEPNS_9WriteWrapEi
libnode.so:_ZN4node14StreamListener21OnStreamAfterShutdownEPNS_12ShutdownWrapEi
libnode.so:_ZN4node14StreamListenerD0Ev
libnode.so:_ZN4node14StreamListenerD1Ev
libnode.so:_ZN4node14StreamListenerD2Ev
libnode.so:_ZN4node14StreamResource10ClearErrorEv
libnode.so:_ZN4node14StreamResource10DoTryWriteEPP8uv_buf_tPm
libnode.so:_ZN4node14StreamResourceD0Ev
libnode.so:_ZN4node14StreamResourceD1Ev
libnode.so:_ZN4node14StreamResourceD2Ev
libnode.so:_ZN4node14options_parser10GetOptionsERKN2v820FunctionCallbackInfoINS1_5ValueEEE
libnode.so:_ZN4node14options_parser10InitializeEN2v85LocalINS1_6ObjectEEENS2_INS1_5ValueEEENS2_INS1_7ContextEEEPv
libnode.so:_ZN4node14options_parser13SplitHostPortERKNSt3__112basic_stringIcNS1_11char_traitsIcEENS1_9allocatorIcEEEEPNS1_6vectorIS7_NS5_IS7_EEEE
libnode.so:_ZN4node14options_parser17GetBashCompletionEv
libnode.so:_ZN4node14options_parser18DebugOptionsParserC1Ev
libnode.so:_ZN4node14options_parser18DebugOptionsParserC2Ev
libnode.so:_ZN4node14options_parser23PerIsolateOptionsParserC1ERKNS0_24EnvironmentOptionsParserE
libnode.so:_ZN4node14options_parser23PerIsolateOptionsParserC2ERKNS0_24EnvironmentOptionsParserE
libnode.so:_ZN4node14options_parser23PerProcessOptionsParserC1ERKNS0_23PerIsolateOptionsParserE
libnode.so:_ZN4node14options_parser23PerProcessOptionsParserC2ERKNS0_23PerIsolateOptionsParserE
libnode.so:_ZN4node14options_parser24EnvironmentOptionsParserC1Ev
libnode.so:_ZN4node14options_parser24EnvironmentOptionsParserC2Ev
libnode.so:_ZN4node14options_parser5ParseINS_17PerIsolateOptionsENS_7OptionsEEEvPNSt3__16vectorINS4_12basic_stringIcNS4_11char_traitsIcEENS4_9allocatorIcEEEENS9_ISB_EEEESE_SE_PT_NS_20OptionEnvvarSettingsESE_
libnode.so:_ZN4node14options_parser5ParseINS_17PerProcessOptionsENS_7OptionsEEEvPNSt3__16vectorINS4_12basic_stringIcNS4_11char_traitsIcEENS4_9allocatorIcEEEENS9_ISB_EEEESE_SE_PT_NS_20OptionEnvvarSettingsESE_
libnode.so:_ZN4node14thread_ctx_keyE
libnode.so:_ZN4node14unbase64_tableE
libnode.so:_ZN4node15DefineConstantsEPN2v87IsolateENS0_5LocalINS0_6ObjectEEE
libnode.so:_ZN4node15EscapeJsonCharsERKNSt3__112basic_stringIcNS0_11char_traitsIcEENS0_9allocatorIcEEEE
libnode.so:_ZN4node15FreeEnvironmentEPNS_11EnvironmentE
libnode.so:_ZN4node15FreeIsolateDataEPNS_11IsolateDataE
libnode.so:_ZN4node15GenDebugSymbolsEv
libnode.so:_ZN4node15GetProcessTitleEPKc
libnode.so:_ZN4node15LargePagesErrorEi
libnode.so:_ZN4node15LibuvStreamWrap10DoShutdownEPNS_12ShutdownWrapE
libnode.so:_ZN4node15LibuvStreamWrap10DoTryWriteEPP8uv_buf_tPm
libnode.so:_ZN4node15LibuvStreamWrap10InitializeEN2v85LocalINS1_6ObjectEEENS2_INS1_5ValueEEENS2_INS1_7ContextEEEPv
libnode.so:_ZN4node15LibuvStreamWrap11SetBlockingERKN2v820FunctionCallbackInfoINS1_5ValueEEE
libnode.so:_ZN4node15LibuvStreamWrap12AfterUvWriteEP10uv_write_si
libnode.so:_ZN4node15LibuvStreamWrap12GetAsyncWrapEv
libnode.so:_ZN4node15LibuvStreamWrap15AfterUvShutdownEP13uv_shutdown_si
libnode.so:_ZN4node15LibuvStreamWrap15CreateWriteWrapEN2v85LocalINS1_6ObjectEEE
libnode.so:_ZN4node15LibuvStreamWrap17GetWriteQueueSizeERKN2v820FunctionCallbackInfoINS1_5ValueEEE
libnode.so:_ZN4node15LibuvStreamWrap18CreateShutdownWrapEN2v85LocalINS1_6ObjectEEE
libnode.so:_ZN4node15LibuvStreamWrap22GetConstructorTemplateEPNS_11EnvironmentE
libnode.so:_ZN4node15LibuvStreamWrap4FromEPNS_11EnvironmentEN2v85LocalINS3_6ObjectEEE
libnode.so:_ZN4node15LibuvStreamWrap5GetFDEv
libnode.so:_ZN4node15LibuvStreamWrap7DoWriteEPNS_9WriteWrapEP8uv_buf_tmP11uv_stream_s
libnode.so:_ZN4node15LibuvStreamWrap7IsAliveEv
libnode.so:_ZN4node15LibuvStreamWrap8OnUvReadElPK8uv_buf_t
libnode.so:_ZN4node15LibuvStreamWrap8ReadStopEv
libnode.so:_ZN4node15LibuvStreamWrap9IsClosingEv
libnode.so:_ZN4node15LibuvStreamWrap9IsIPCPipeEv
libnode.so:_ZN4node15LibuvStreamWrap9OnUvAllocEmP8uv_buf_t
libnode.so:_ZN4node15LibuvStreamWrap9ReadStartEv
libnode.so:_ZN4node15LibuvStreamWrapC2EPNS_11EnvironmentEN2v85LocalINS3_6ObjectEEEP11uv_stream_sNS_9AsyncWrap12ProviderTypeE
libnode.so:_ZN4node15LoadEnvironmentEPNS_11EnvironmentE
libnode.so:_ZN4node15LoadEnvironmentEPNS_11EnvironmentENSt3__18functionIFN2v810MaybeLocalINS4_5ValueEEERKNS_26StartExecutionCallbackInfoEEEENS2_10unique_ptrINS_21InspectorParentHandleENS2_14default_deleteISE_EEEE
libnode.so:_ZN4node15LoadEnvironmentEPNS_11EnvironmentEPKcNSt3__110unique_ptrINS_21InspectorParentHandleENS4_14default_deleteIS6_EEEE
libnode.so:_ZN4node15NodeCategorySet10InitializeEN2v85LocalINS1_6ObjectEEENS2_INS1_5ValueEEENS2_INS1_7ContextEEEPv
libnode.so:_ZN4node15NodeCategorySet3NewERKN2v820FunctionCallbackInfoINS1_5ValueEEE
libnode.so:_ZN4node15NodeCategorySet6EnableERKN2v820FunctionCallbackInfoINS1_5ValueEEE
libnode.so:_ZN4node15NodeCategorySet7DisableERKN2v820FunctionCallbackInfoINS1_5ValueEEE
libnode.so:_ZN4node15PrintStackTraceEPN2v87IsolateENS0_5LocalINS0_10StackTraceEEE
libnode.so:_ZN4node16AddLinkedBindingEPNS_11EnvironmentEPKcPFvN2v85LocalINS4_6ObjectEEENS5_INS4_5ValueEEENS5_INS4_7ContextEEEPvESC_
libnode.so:_ZN4node16AddLinkedBindingEPNS_11EnvironmentERKNS_11node_moduleE
libnode.so:_ZN4node16EmitAsyncDestroyEPN2v87IsolateENS_13async_contextE
libnode.so:_ZN4node16EmitAsyncDestroyEPNS_11EnvironmentENS_13async_contextE
libnode.so:_ZN4node16EnabledDebugList5ParseEPNS_11EnvironmentE
libnode.so:_ZN4node16EnabledDebugList5ParseERKNSt3__112basic_stringIcNS1_11char_traitsIcEENS1_9allocatorIcEEEEb
libnode.so:_ZN4node16GetActiveHandlesERKN2v820FunctionCallbackInfoINS0_5ValueEEE
libnode.so:_ZN4node16HandleEnvOptionsENSt3__110shared_ptrINS_18EnvironmentOptionsEEE
libnode.so:_ZN4node16HandleEnvOptionsENSt3__110shared_ptrINS_18EnvironmentOptionsEEENS0_8functionIFNS0_12basic_stringIcNS0_11char_traitsIcEENS0_9allocatorIcEEEEPKcEEE
libnode.so:_ZN4node16NodeMainInstance21CreateMainEnvironmentEPi
libnode.so:_ZN4node16NodeMainInstance21GetIsolateDataIndexesEv
libnode.so:_ZN4node16NodeMainInstance23GetEmbeddedSnapshotBlobEv
libnode.so:_ZN4node16NodeMainInstance3RunEv
libnode.so:_ZN4node16NodeMainInstance6CreateEPN2v87IsolateEP9uv_loop_sPNS_20MultiIsolatePlatformERKNSt3__16vectorINS8_12basic_stringIcNS8_11char_traitsIcEENS8_9allocatorIcEEEENSD_ISF_EEEESJ_
libnode.so:_ZN4node16NodeMainInstance7DisposeEv
libnode.so:_ZN4node16NodeMainInstanceC1EPN2v87Isolate12CreateParamsEP9uv_loop_sPNS_20MultiIsolatePlatformERKNSt3__16vectorINS9_12basic_stringIcNS9_11char_traitsIcEENS9_9allocatorIcEEEENSE_ISG_EEEESK_PKNSA_ImNSE_ImEEEE
libnode.so:_ZN4node16NodeMainInstanceC1EPN2v87IsolateEP9uv_loop_sPNS_20MultiIsolatePlatformERKNSt3__16vectorINS8_12basic_stringIcNS8_11char_traitsIcEENS8_9allocatorIcEEEENSD_ISF_EEEESJ_
libnode.so:_ZN4node16NodeMainInstanceC2EPN2v87Isolate12CreateParamsEP9uv_loop_sPNS_20MultiIsolatePlatformERKNSt3__16vectorINS9_12basic_stringIcNS9_11char_traitsIcEENS9_9allocatorIcEEEENSE_ISG_EEEESK_PKNSA_ImNSE_ImEEEE
libnode.so:_ZN4node16NodeMainInstanceC2EPN2v87IsolateEP9uv_loop_sPNS_20MultiIsolatePlatformERKNSt3__16vectorINS8_12basic_stringIcNS8_11char_traitsIcEENS8_9allocatorIcEEEENSD_ISF_EEEESJ_
libnode.so:_ZN4node16NodeMainInstanceD1Ev
libnode.so:_ZN4node16NodeMainInstanceD2Ev
libnode.so:_ZN4node16g_worker_supportE
libnode.so:_ZN4node17CreateEnvVarProxyEN2v85LocalINS0_7ContextEEEPNS0_7IsolateENS1_INS0_6ObjectEEE
libnode.so:_ZN4node17CreateEnvironmentEPNS_11IsolateDataEN2v85LocalINS2_7ContextEEERKNSt3__16vectorINS6_12basic_stringIcNS6_11char_traitsIcEENS6_9allocatorIcEEEENSB_ISD_EEEESH_NS_16EnvironmentFlags5FlagsENS_8ThreadIdENS6_10unique_ptrINS_21InspectorParentHandleENS6_14default_deleteISM_EEEE
libnode.so:_ZN4node17CreateEnvironmentEPNS_11IsolateDataEN2v85LocalINS2_7ContextEEEiPKPKciS9_
libnode.so:_ZN4node17CreateIsolateDataEPN2v87IsolateEP9uv_loop_sPNS_20MultiIsolatePlatformEPNS_20ArrayBufferAllocatorE
libnode.so:_ZN4node17GetOpenSSLVersionEv
libnode.so:_ZN4node17InitializeContextEN2v85LocalINS0_7ContextEEE
libnode.so:_ZN4node17PerIsolateOptions12CheckOptionsEPNSt3__16vectorINS1_12basic_stringIcNS1_11char_traitsIcEENS1_9allocatorIcEEEENS6_IS8_EEEE
libnode.so:_ZN4node17PerProcessOptions12CheckOptionsEPNSt3__16vectorINS1_12basic_stringIcNS1_11char_traitsIcEENS1_9allocatorIcEEEENS6_IS8_EEEE
libnode.so:_ZN4node17ProcessGlobalArgsEPNSt3__16vectorINS0_12basic_stringIcNS0_11char_traitsIcEENS0_9allocatorIcEEEENS5_IS7_EEEESA_SA_NS_20OptionEnvvarSettingsE
libnode.so:_ZN4node17SyncProcessRunner10InitializeEN2v85LocalINS1_6ObjectEEENS2_INS1_5ValueEEENS2_INS1_7ContextEEEPv
libnode.so:_ZN4node17SyncProcessRunner12CopyJsStringEN2v85LocalINS1_5ValueEEEPPKc
libnode.so:_ZN4node17SyncProcessRunner12ExitCallbackEP12uv_process_sli
libnode.so:_ZN4node17SyncProcessRunner12ParseOptionsEN2v85LocalINS1_5ValueEEE
libnode.so:_ZN4node17SyncProcessRunner12SetPipeErrorEi
libnode.so:_ZN4node17SyncProcessRunner14CloseKillTimerEv
libnode.so:_ZN4node17SyncProcessRunner15CloseStdioPipesEv
libnode.so:_ZN4node17SyncProcessRunner16BuildOutputArrayEv
libnode.so:_ZN4node17SyncProcessRunner16ParseStdioOptionEiN2v85LocalINS1_6ObjectEEE
libnode.so:_ZN4node17SyncProcessRunner17BuildResultObjectEv
libnode.so:_ZN4node17SyncProcessRunner17CopyJsStringArrayEN2v85LocalINS1_5ValueEEEPPc
libnode.so:_ZN4node17SyncProcessRunner17KillTimerCallbackEP10uv_timer_s
libnode.so:_ZN4node17SyncProcessRunner17ParseStdioOptionsEN2v85LocalINS1_5ValueEEE
libnode.so:_ZN4node17SyncProcessRunner18OnKillTimerTimeoutEv
libnode.so:_ZN4node17SyncProcessRunner22KillTimerCloseCallbackEP11uv_handle_s
libnode.so:_ZN4node17SyncProcessRunner23TryInitializeAndRunLoopEN2v85LocalINS1_5ValueEEE
libnode.so:_ZN4node17SyncProcessRunner25CloseHandlesAndDeleteLoopEv
libnode.so:_ZN4node17SyncProcessRunner35IncrementBufferSizeAndCheckOverflowEl
libnode.so:_ZN4node17SyncProcessRunner3RunEN2v85LocalINS1_5ValueEEE
libnode.so:_ZN4node17SyncProcessRunner4KillEv
libnode.so:_ZN4node17SyncProcessRunner5IsSetEN2v85LocalINS1_5ValueEEE
libnode.so:_ZN4node17SyncProcessRunner5SpawnERKN2v820FunctionCallbackInfoINS1_5ValueEEE
libnode.so:_ZN4node17SyncProcessRunner6OnExitEli
libnode.so:_ZN4node17SyncProcessRunner8GetErrorEv
libnode.so:_ZN4node17SyncProcessRunner8SetErrorEi
libnode.so:_ZN4node17SyncProcessRunnerC1EPNS_11EnvironmentE
libnode.so:_ZN4node17SyncProcessRunnerC2EPNS_11EnvironmentE
libnode.so:_ZN4node17SyncProcessRunnerD1Ev
libnode.so:_ZN4node17SyncProcessRunnerD2Ev
libnode.so:_ZN4node18CallNWTickCallbackEPNS_11EnvironmentEN2v85LocalINS2_5ValueEEE
libnode.so:_ZN4node18CheckedUvLoopCloseEP9uv_loop_s
libnode.so:_ZN4node18DiagnosticFilename12MakeFilenameEmPKcS2_
libnode.so:_ZN4node18DiagnosticFilename9LocalTimeEP2tm
libnode.so:_ZN4node18EnvironmentOptions12CheckOptionsEPNSt3__16vectorINS1_12basic_stringIcNS1_11char_traitsIcEENS1_9allocatorIcEEEENS6_IS8_EEEE
libnode.so:_ZN4node18HasSignalJSHandlerEi
libnode.so:_ZN4node18PatchProcessObjectERKN2v820FunctionCallbackInfoINS0_5ValueEEE
libnode.so:_ZN4node18ProcessEmitWarningEPNS_11EnvironmentEPKcz
libnode.so:_ZN4node18SetFlagsFromStringERKN2v820FunctionCallbackInfoINS0_5ValueEEE
libnode.so:_ZN4node18StartupDataHandler12RelativePathEPPcPKcS4_
libnode.so:_ZN4node18StartupDataHandler13LoadFromFilesEPKcS2_
libnode.so:_ZN4node18StartupDataHandler4LoadEPKcPN2v811StartupDataEPFvS5_E
libnode.so:_ZN4node18StartupDataHandlerC1EPKcS2_S2_
libnode.so:_ZN4node18StartupDataHandlerC2EPKcS2_S2_
libnode.so:_ZN4node18StartupDataHandlerD1Ev
libnode.so:_ZN4node18StartupDataHandlerD2Ev
libnode.so:_ZN4node18thread_ctx_createdE
libnode.so:_ZN4node19AppendExceptionLineEPNS_11EnvironmentEN2v85LocalINS2_5ValueEEENS3_INS2_7MessageEEENS_17ErrorHandlingModeE
libnode.so:_ZN4node19CreateProcessObjectEPNS_11EnvironmentEb
libnode.so:_ZN4node19DefineZlibConstantsEN2v85LocalINS0_6ObjectEEE
libnode.so:_ZN4node19ExecuteBootstrapperEPNS_11EnvironmentEPKcPNSt3__16vectorIN2v85LocalINS6_6StringEEENS4_9allocatorIS9_EEEEPNS5_INS7_INS6_5ValueEEENSA_ISF_EEEE
libnode.so:_ZN4node19GetCurrentEventLoopEPN2v87IsolateE
libnode.so:_ZN4node19InitThreadLocalOnceEv
libnode.so:_ZN4node19SetIsolateUpForNodeEPN2v87IsolateE
libnode.so:_ZN4node19SetIsolateUpForNodeEPN2v87IsolateERKNS_15IsolateSettingsE
libnode.so:_ZN4node19TraceSigintWatchdog12HandleSigintEv
libnode.so:_ZN4node19TraceSigintWatchdog15HandleInterruptEv
libnode.so:_ZN4node19TraceSigintWatchdog3NewERKN2v820FunctionCallbackInfoINS1_5ValueEEE
libnode.so:_ZN4node19TraceSigintWatchdog4InitEPNS_11EnvironmentEN2v85LocalINS3_6ObjectEEE
libnode.so:_ZN4node19TraceSigintWatchdog4StopERKN2v820FunctionCallbackInfoINS1_5ValueEEE
libnode.so:_ZN4node19TraceSigintWatchdog5StartERKN2v820FunctionCallbackInfoINS1_5ValueEEE
libnode.so:_ZN4node19TraceSigintWatchdogC1EPNS_11EnvironmentEN2v85LocalINS3_6ObjectEEE
libnode.so:_ZN4node19TraceSigintWatchdogC2EPNS_11EnvironmentEN2v85LocalINS3_6ObjectEEE
libnode.so:_ZN4node19node_is_initializedE
libnode.so:_ZN4node19sockaddr_for_familyEiPKctP16sockaddr_storage
libnode.so:_ZN4node20ArrayBufferAllocator6CreateEb
libnode.so:_ZN4node20CachedDataVersionTagERKN2v820FunctionCallbackInfoINS0_5ValueEEE
libnode.so:_ZN4node20CollectExceptionInfoEPNS_11EnvironmentEN2v85LocalINS2_6ObjectEEEiPKcS7_S7_S7_S7_
libnode.so:_ZN4node20GetEnabledCategoriesERKN2v820FunctionCallbackInfoINS0_5ValueEEE
libnode.so:_ZN4node20GetPerContextExportsEN2v85LocalINS0_7ContextEEE
libnode.so:_ZN4node20InternalMakeCallbackEPNS_11EnvironmentEN2v85LocalINS2_6ObjectEEES5_NS3_INS2_8FunctionEEEiPNS3_INS2_5ValueEEENS_13async_contextE
libnode.so:_ZN4node20IsExceptionDecoratedEPNS_11EnvironmentEN2v85LocalINS2_5ValueEEE
libnode.so:_ZN4node20MultiIsolatePlatform25CancelPendingDelayedTasksEPN2v87IsolateE
libnode.so:_ZN4node20MultiIsolatePlatform6CreateEiPN2v817TracingControllerE
libnode.so:_ZN4node20PrintCaughtExceptionEPN2v87IsolateENS0_5LocalINS0_7ContextEEERKNS0_8TryCatchE
libnode.so:_ZN4node20SigintWatchdogHelper10UnregisterEPNS_18SigintWatchdogBaseE
libnode.so:_ZN4node20SigintWatchdogHelper12HandleSignalEiP9siginfo_tPv
libnode.so:_ZN4node20SigintWatchdogHelper16HasPendingSignalEv
libnode.so:_ZN4node20SigintWatchdogHelper17RunSigintWatchdogEPv
libnode.so:_ZN4node20SigintWatchdogHelper26InformWatchdogsAboutSignalEv
libnode.so:_ZN4node20SigintWatchdogHelper4StopEv
libnode.so:_ZN4node20SigintWatchdogHelper5StartEv
libnode.so:_ZN4node20SigintWatchdogHelper8RegisterEPNS_18SigintWatchdogBaseE
libnode.so:_ZN4node20SigintWatchdogHelper8instanceE
libnode.so:_ZN4node20SigintWatchdogHelperC1Ev
libnode.so:_ZN4node20SigintWatchdogHelperC2Ev
libnode.so:_ZN4node20SigintWatchdogHelperD1Ev
libnode.so:_ZN4node20SigintWatchdogHelperD2Ev
libnode.so:_ZN4node20SyncProcessStdioPipe10InitializeEP9uv_loop_s
libnode.so:_ZN4node20SyncProcessStdioPipe12ReadCallbackEP11uv_stream_slPK8uv_buf_t
libnode.so:_ZN4node20SyncProcessStdioPipe13AllocCallbackEP11uv_handle_smP8uv_buf_t
libnode.so:_ZN4node20SyncProcessStdioPipe13CloseCallbackEP11uv_handle_s
libnode.so:_ZN4node20SyncProcessStdioPipe13WriteCallbackEP10uv_write_si
libnode.so:_ZN4node20SyncProcessStdioPipe16ShutdownCallbackEP13uv_shutdown_si
libnode.so:_ZN4node20SyncProcessStdioPipe5CloseEv
libnode.so:_ZN4node20SyncProcessStdioPipe5StartEv
libnode.so:_ZN4node20SyncProcessStdioPipeC1EPNS_17SyncProcessRunnerEbb8uv_buf_t
libnode.so:_ZN4node20SyncProcessStdioPipeC2EPNS_17SyncProcessRunnerEbb8uv_buf_t
libnode.so:_ZN4node20SyncProcessStdioPipeD1Ev
libnode.so:_ZN4node20SyncProcessStdioPipeD2Ev
libnode.so:_ZN4node21GetCurrentEnvironmentEN2v85LocalINS0_7ContextEEE
libnode.so:_ZN4node21InitializePrimordialsEN2v85LocalINS0_7ContextEEE
libnode.so:_ZN4node21InspectorParentHandleD0Ev
libnode.so:_ZN4node21InspectorParentHandleD1Ev
libnode.so:_ZN4node21InspectorParentHandleD2Ev
libnode.so:_ZN4node21InternalCallbackScope5CloseEv
libnode.so:_ZN4node21InternalCallbackScopeC1EPNS_11EnvironmentEN2v85LocalINS3_6ObjectEEERKNS_13async_contextEi
libnode.so:_ZN4node21InternalCallbackScopeC1EPNS_9AsyncWrapEi
libnode.so:_ZN4node21InternalCallbackScopeC2EPNS_11EnvironmentEN2v85LocalINS3_6ObjectEEERKNS_13async_contextEi
libnode.so:_ZN4node21InternalCallbackScopeC2EPNS_9AsyncWrapEi
libnode.so:_ZN4node21InternalCallbackScopeD1Ev
libnode.so:_ZN4node21InternalCallbackScopeD2Ev
libnode.so:_ZN4node21LowMemoryNotificationEv
libnode.so:_ZN4node21MarkBootstrapCompleteERKN2v820FunctionCallbackInfoINS0_5ValueEEE
libnode.so:_ZN4node21RegisterSignalHandlerEiPFviP9siginfo_tPvEb
libnode.so:_ZN4node21SetProcessExitHandlerEPNS_11EnvironmentEONSt3__18functionIFvS1_iEEE
libnode.so:_ZN4node21ThrowErrStringTooLongEPN2v87IsolateE
libnode.so:_ZN4node21experimental_warningsE
libnode.so:_ZN4node22CustomBufferJSListener12OnStreamReadElRK8uv_buf_t
libnode.so:_ZN4node22CustomBufferJSListener13OnStreamAllocEm
libnode.so:_ZN4node22EmitToJSStreamListener12OnStreamReadElRK8uv_buf_t
libnode.so:_ZN4node22EmitToJSStreamListener13OnStreamAllocEm
libnode.so:_ZN4node22InitializeNodeWithArgsEPNSt3__16vectorINS0_12basic_stringIcNS0_11char_traitsIcEENS0_9allocatorIcEEEENS5_IS7_EEEESA_SA_
libnode.so:_ZN4node22ParseNodeOptionsEnvVarERKNSt3__112basic_stringIcNS0_11char_traitsIcEENS0_9allocatorIcEEEEPNS0_6vectorIS6_NS4_IS6_EEEE
libnode.so:_ZN4node22PerIsolatePlatformData10FlushTasksEP10uv_async_s
libnode.so:_ZN4node22PerIsolatePlatformData12PostIdleTaskENSt3__110unique_ptrIN2v88IdleTaskENS1_14default_deleteIS4_EEEE
libnode.so:_ZN4node22PerIsolatePlatformData15PostDelayedTaskENSt3__110unique_ptrIN2v84TaskENS1_14default_deleteIS4_EEEEd
libnode.so:_ZN4node22PerIsolatePlatformData17RunForegroundTaskENSt3__110unique_ptrIN2v84TaskENS1_14default_deleteIS4_EEEE
libnode.so:_ZN4node22PerIsolatePlatformData17RunForegroundTaskEP10uv_timer_s
libnode.so:_ZN4node22PerIsolatePlatformData19AddShutdownCallbackEPFvPvES1_
libnode.so:_ZN4node22PerIsolatePlatformData19DecreaseHandleCountEv
libnode.so:_ZN4node22PerIsolatePlatformData19PostNonNestableTaskENSt3__110unique_ptrIN2v84TaskENS1_14default_deleteIS4_EEEE
libnode.so:_ZN4node22PerIsolatePlatformData23GetForegroundTaskRunnerEv
libnode.so:_ZN4node22PerIsolatePlatformData24DeleteFromScheduledTasksEPNS_11DelayedTaskE
libnode.so:_ZN4node22PerIsolatePlatformData26PostNonNestableDelayedTaskENSt3__110unique_ptrIN2v84TaskENS1_14default_deleteIS4_EEEEd
libnode.so:_ZN4node22PerIsolatePlatformData28FlushForegroundTasksInternalEv
libnode.so:_ZN4node22PerIsolatePlatformData8PostTaskENSt3__110unique_ptrIN2v84TaskENS1_14default_deleteIS4_EEEE
libnode.so:_ZN4node22PerIsolatePlatformData8ShutdownEv
libnode.so:_ZN4node22PerIsolatePlatformDataC1EPN2v87IsolateEP9uv_loop_s
libnode.so:_ZN4node22PerIsolatePlatformDataC2EPN2v87IsolateEP9uv_loop_s
libnode.so:_ZN4node22PerIsolatePlatformDataD0Ev
libnode.so:_ZN4node22PerIsolatePlatformDataD1Ev
libnode.so:_ZN4node22PerIsolatePlatformDataD2Ev
libnode.so:_ZN4node22SetIsolateMiscHandlersEPN2v87IsolateERKNS_15IsolateSettingsE
libnode.so:_ZN4node22TearDownOncePerProcessEv
libnode.so:_ZN4node23GetMultiIsolatePlatformEPNS_11EnvironmentE
libnode.so:_ZN4node23GetMultiIsolatePlatformEPNS_11IsolateDataE
libnode.so:_ZN4node23SetIsolateErrorHandlersEPN2v87IsolateERKNS_15IsolateSettingsE
libnode.so:_ZN4node23WorkerThreadsTaskRunner13BlockingDrainEv
libnode.so:_ZN4node23WorkerThreadsTaskRunner15PostDelayedTaskENSt3__110unique_ptrIN2v84TaskENS1_14default_deleteIS4_EEEEd
libnode.so:_ZN4node23WorkerThreadsTaskRunner8PostTaskENSt3__110unique_ptrIN2v84TaskENS1_14default_deleteIS4_EEEE
libnode.so:_ZN4node23WorkerThreadsTaskRunner8ShutdownEv
libnode.so:_ZN4node23WorkerThreadsTaskRunnerC1Ei
libnode.so:_ZN4node23WorkerThreadsTaskRunnerC2Ei
libnode.so:_ZN4node24FreeArrayBufferAllocatorEPNS_20ArrayBufferAllocatorE
libnode.so:_ZN4node24GetInspectorParentHandleEPNS_11EnvironmentENS_8ThreadIdEPKc
libnode.so:_ZN4node24InitializeContextRuntimeEN2v85LocalINS0_7ContextEEE
libnode.so:_ZN4node24InitializeOncePerProcessEiPPc
libnode.so:_ZN4node24NodeArrayBufferAllocator10ReallocateEPvmm
libnode.so:_ZN4node24NodeArrayBufferAllocator21AllocateUninitializedEm
libnode.so:_ZN4node24NodeArrayBufferAllocator4FreeEPvm
libnode.so:_ZN4node24NodeArrayBufferAllocator4FreeEPvmN2v811ArrayBuffer9Allocator14AllocationModeE
libnode.so:_ZN4node24NodeArrayBufferAllocator8AllocateEm
libnode.so:_ZN4node25AddEnvironmentCleanupHookEPN2v87IsolateEPFvPvES3_
libnode.so:_ZN4node25DefaultProcessExitHandlerEPNS_11EnvironmentEi
libnode.so:_ZN4node25MapStaticCodeToLargePagesEv
libnode.so:_ZN4node25ProcessEmitWarningGenericEPNS_11EnvironmentEPKcS3_S3_
libnode.so:_ZN4node25TrapWebAssemblyOrContinueEiP9siginfo_tPv
libnode.so:_ZN4node26CreateArrayBufferAllocatorEv
libnode.so:_ZN4node26DecreaseSignalHandlerCountEi
libnode.so:_ZN4node26TrackingTraceStateObserver24UpdateTraceCategoryStateEv
libnode.so:_ZN4node27AllocateEnvironmentThreadIdEv
libnode.so:_ZN4node27AsyncHooksGetTriggerAsyncIdEPN2v87IsolateE
libnode.so:_ZN4node27GetHumanReadableProcessNameEv
libnode.so:_ZN4node27PrintLibuvHandleInformationEP9uv_loop_sP8_IO_FILE
libnode.so:_ZN4node28GetCurrentTimeInMicrosecondsEv
libnode.so:_ZN4node28InitializeContextForSnapshotEN2v85LocalINS0_7ContextEEE
libnode.so:_ZN4node28NativeSymbolDebuggingContext18GetLoadedLibrariesEv
libnode.so:_ZN4node28NativeSymbolDebuggingContext3NewEv
libnode.so:_ZN4node28RemoveEnvironmentCleanupHookEPN2v87IsolateEPFvPvES3_
libnode.so:_ZN4node29AsyncHooksGetExecutionAsyncIdEPN2v87IsolateE
libnode.so:_ZN4node29DebuggingArrayBufferAllocator10ReallocateEPvmm
libnode.so:_ZN4node29DebuggingArrayBufferAllocator15RegisterPointerEPvm
libnode.so:_ZN4node29DebuggingArrayBufferAllocator17UnregisterPointerEPvm
libnode.so:_ZN4node29DebuggingArrayBufferAllocator21AllocateUninitializedEm
libnode.so:_ZN4node29DebuggingArrayBufferAllocator23RegisterPointerInternalEPvm
libnode.so:_ZN4node29DebuggingArrayBufferAllocator25UnregisterPointerInternalEPvm
libnode.so:_ZN4node29DebuggingArrayBufferAllocator4FreeEPvm
libnode.so:_ZN4node29DebuggingArrayBufferAllocator8AllocateEm
libnode.so:_ZN4node29DebuggingArrayBufferAllocatorD0Ev
libnode.so:_ZN4node29DebuggingArrayBufferAllocatorD1Ev
libnode.so:_ZN4node29DebuggingArrayBufferAllocatorD2Ev
libnode.so:_ZN4node29ProcessEmitDeprecationWarningEPNS_11EnvironmentEPKcS3_
libnode.so:_ZN4node29SetIsolateCreateParamsForNodeEPN2v87Isolate12CreateParamsE
libnode.so:_ZN4node2fs10FileHandle10AfterCloseEv
libnode.so:_ZN4node2fs10FileHandle10DoShutdownEPNS_12ShutdownWrapE
libnode.so:_ZN4node2fs10FileHandle12ClosePromiseEv
libnode.so:_ZN4node2fs10FileHandle18CreateShutdownWrapEN2v85LocalINS2_6ObjectEEE
libnode.so:_ZN4node2fs10FileHandle3NewEPNS0_11BindingDataEiN2v85LocalINS4_6ObjectEEE
libnode.so:_ZN4node2fs10FileHandle3NewERKN2v820FunctionCallbackInfoINS2_5ValueEEE
libnode.so:_ZN4node2fs10FileHandle5CloseERKN2v820FunctionCallbackInfoINS2_5ValueEEE
libnode.so:_ZN4node2fs10FileHandle7DoWriteEPNS_9WriteWrapEP8uv_buf_tmP11uv_stream_s
libnode.so:_ZN4node2fs10FileHandle8CloseReq11file_handleEv
libnode.so:_ZN4node2fs10FileHandle8CloseReq6RejectEN2v85LocalINS3_5ValueEEE
libnode.so:_ZN4node2fs10FileHandle8CloseReq7ResolveEv
libnode.so:_ZN4node2fs10FileHandle8CloseReqC1EPNS_11EnvironmentEN2v85LocalINS5_6ObjectEEENS6_INS5_7PromiseEEENS6_INS5_5ValueEEE
libnode.so:_ZN4node2fs10FileHandle8CloseReqC2EPNS_11EnvironmentEN2v85LocalINS5_6ObjectEEENS6_INS5_7PromiseEEENS6_INS5_5ValueEEE
libnode.so:_ZN4node2fs10FileHandle8CloseReqD0Ev
libnode.so:_ZN4node2fs10FileHandle8CloseReqD1Ev
libnode.so:_ZN4node2fs10FileHandle8CloseReqD2Ev
libnode.so:_ZN4node2fs10FileHandle8ReadStopEv
libnode.so:_ZN4node2fs10FileHandle9ReadStartEv
libnode.so:_ZN4node2fs10FileHandle9ReleaseFDERKN2v820FunctionCallbackInfoINS2_5ValueEEE
libnode.so:_ZN4node2fs10FileHandleC1EPNS0_11BindingDataEN2v85LocalINS4_6ObjectEEEi
libnode.so:_ZN4node2fs10FileHandleC2EPNS0_11BindingDataEN2v85LocalINS4_6ObjectEEEi
libnode.so:_ZN4node2fs10FileHandleD0Ev
libnode.so:_ZN4node2fs10FileHandleD1Ev
libnode.so:_ZN4node2fs10FileHandleD2Ev
libnode.so:_ZN4node2fs10InitializeEN2v85LocalINS1_6ObjectEEENS2_INS1_5ValueEEENS2_INS1_7ContextEEEPv
libnode.so:_ZN4node2fs10MKDirpSyncEP9uv_loop_sP7uv_fs_sRKNSt3__112basic_stringIcNS5_11char_traitsIcEENS5_9allocatorIcEEEEiPFvS4_E
libnode.so:_ZN4node2fs11AfterMkdirpEP7uv_fs_s
libnode.so:_ZN4node2fs11AfterNoArgsEP7uv_fs_s
libnode.so:_ZN4node2fs11MKDirpAsyncEP9uv_loop_sP7uv_fs_sPKciPFvS4_E
libnode.so:_ZN4node2fs12AfterIntegerEP7uv_fs_s
libnode.so:_ZN4node2fs12AfterScanDirEP7uv_fs_s
libnode.so:_ZN4node2fs13FSReqCallback11ResolveStatEPK9uv_stat_t
libnode.so:_ZN4node2fs13FSReqCallback14SetReturnValueERKN2v820FunctionCallbackInfoINS2_5ValueEEE
libnode.so:_ZN4node2fs13FSReqCallback6RejectEN2v85LocalINS2_5ValueEEE
libnode.so:_ZN4node2fs13FSReqCallback7ResolveEN2v85LocalINS2_5ValueEEE
libnode.so:_ZN4node2fs14AfterStringPtrEP7uv_fs_s
libnode.so:_ZN4node2fs14CallMKDirpSyncEPNS_11EnvironmentERKN2v820FunctionCallbackInfoINS3_5ValueEEEPNS0_13FSReqWrapSyncEPKci
libnode.so:_ZN4node2fs15AfterStringPathEP7uv_fs_s
libnode.so:_ZN4node2fs15FSReqAfterScope6RejectEP7uv_fs_s
libnode.so:_ZN4node2fs15FSReqAfterScope7ProceedEv
libnode.so:_ZN4node2fs15FSReqAfterScopeC1EPNS0_9FSReqBaseEP7uv_fs_s
libnode.so:_ZN4node2fs15FSReqAfterScopeC2EPNS0_9FSReqBaseEP7uv_fs_s
libnode.so:_ZN4node2fs15FSReqAfterScopeD1Ev
libnode.so:_ZN4node2fs15FSReqAfterScopeD2Ev
libnode.so:_ZN4node2fs16NewFSReqCallbackERKN2v820FunctionCallbackInfoINS1_5ValueEEE
libnode.so:_ZN4node2fs18FileHandleReadWrapC1EPNS0_10FileHandleEN2v85LocalINS4_6ObjectEEE
libnode.so:_ZN4node2fs18FileHandleReadWrapC2EPNS0_10FileHandleEN2v85LocalINS4_6ObjectEEE
libnode.so:_ZN4node2fs18FileHandleReadWrapD0Ev
libnode.so:_ZN4node2fs18FileHandleReadWrapD1Ev
libnode.so:_ZN4node2fs18FileHandleReadWrapD2Ev
libnode.so:_ZN4node2fs18FromNamespacedPathEPNSt3__112basic_stringIcNS1_11char_traitsIcEENS1_9allocatorIcEEEE
libnode.so:_ZN4node2fs19AfterOpenFileHandleEP7uv_fs_s
libnode.so:_ZN4node2fs21AfterScanDirWithTypesEP7uv_fs_s
libnode.so:_ZN4node2fs5CloseERKN2v820FunctionCallbackInfoINS1_5ValueEEE
libnode.so:_ZN4node2fs6AccessERKN2v820FunctionCallbackInfoINS1_5ValueEEE
libnode.so:_ZN4node2fs8BasenameERKNSt3__112basic_stringIcNS1_11char_traitsIcEENS1_9allocatorIcEEEES9_
libnode.so:_ZN4node2fs9AfterStatEP7uv_fs_s
libnode.so:_ZN4node2fs9FSReqBaseD0Ev
libnode.so:_ZN4node2fs9FSReqBaseD1Ev
libnode.so:_ZN4node2fs9FSReqBaseD2Ev
libnode.so:_ZN4node2os10InitializeEN2v85LocalINS1_6ObjectEEENS2_INS1_5ValueEEENS2_INS1_7ContextEEEPv
libnode.so:_ZN4node30ProcessEmitExperimentalWarningEPNS_11EnvironmentEPKc
libnode.so:_ZN4node30ReportWritesToJSStreamListener18OnStreamAfterWriteEPNS_9WriteWrapEi
libnode.so:_ZN4node30ReportWritesToJSStreamListener21OnStreamAfterShutdownEPNS_12ShutdownWrapEi
libnode.so:_ZN4node30ReportWritesToJSStreamListener24OnStreamAfterReqFinishedEPNS_9StreamReqEi
libnode.so:_ZN4node31UpdateHeapSpaceStatisticsBufferERKN2v820FunctionCallbackInfoINS0_5ValueEEE
libnode.so:_ZN4node31UpdateHeapStatisticsArrayBufferERKN2v820FunctionCallbackInfoINS0_5ValueEEE
libnode.so:_ZN4node33GetMainThreadMultiIsolatePlatformEv
libnode.so:_ZN4node35UpdateHeapCodeStatisticsArrayBufferERKN2v820FunctionCallbackInfoINS0_5ValueEEE
libnode.so:_ZN4node3url3URL12FromFilePathERKNSt3__112basic_stringIcNS2_11char_traitsIcEENS2_9allocatorIcEEEE
libnode.so:_ZN4node3url3URL5ParseEPKcmNS0_15url_parse_stateEPNS0_8url_dataEbPKS5_b
libnode.so:_ZN4node4EmitEPNS_11EnvironmentEdNS_10AsyncHooks6FieldsEN2v85LocalINS4_8FunctionEEE
libnode.so:_ZN4node4InitEPiPPKcS0_PS3_
libnode.so:_ZN4node4StopEPNS_11EnvironmentE
libnode.so:_ZN4node4heap10InitializeEN2v85LocalINS1_6ObjectEEENS2_INS1_5ValueEEENS2_INS1_7ContextEEEPv
libnode.so:_ZN4node4heap18BuildEmbedderGraphERKN2v820FunctionCallbackInfoINS1_5ValueEEE
libnode.so:_ZN4node4heap18DeleteHeapSnapshotEPKN2v812HeapSnapshotE
libnode.so:_ZN4node4heap19TriggerHeapSnapshotERKN2v820FunctionCallbackInfoINS1_5ValueEEE
libnode.so:_ZN4node4heap24CreateHeapSnapshotStreamEPNS_11EnvironmentEONSt3__110unique_ptrIKN2v812HeapSnapshotENS_15FunctionDeleterIS7_XadL_ZNS0_18DeleteHeapSnapshotEPS7_EEEEEE
libnode.so:_ZN4node4heap24CreateHeapSnapshotStreamERKN2v820FunctionCallbackInfoINS1_5ValueEEE
libnode.so:_ZN4node4i18n10InitializeEN2v85LocalINS1_6ObjectEEENS2_INS1_5ValueEEENS2_INS1_7ContextEEEPv
libnode.so:_ZN4node4i18n15ConverterObject3HasERKN2v820FunctionCallbackInfoINS2_5ValueEEE
libnode.so:_ZN4node4i18n15ConverterObject6CreateERKN2v820FunctionCallbackInfoINS2_5ValueEEE
libnode.so:_ZN4node4i18n15ConverterObject6DecodeERKN2v820FunctionCallbackInfoINS2_5ValueEEE
libnode.so:_ZN4node4i18n15ConverterObjectC1EPNS_11EnvironmentEN2v85LocalINS4_6ObjectEEEP10UConverteriPKc
libnode.so:_ZN4node4i18n15ConverterObjectC2EPNS_11EnvironmentEN2v85LocalINS4_6ObjectEEEP10UConverteriPKc
libnode.so:_ZN4node4i18n22InitializeICUDirectoryERKNSt3__112basic_stringIcNS1_11char_traitsIcEENS1_9allocatorIcEEEE
libnode.so:_ZN4node4i18n7ToASCIIEPNS_16MaybeStackBufferIcLm1024EEEPKcmNS0_9idna_modeE
libnode.so:_ZN4node4i18n9Converter15set_subst_charsEPKc
libnode.so:_ZN4node4i18n9Converter5resetEv
libnode.so:_ZN4node4i18n9ConverterC1EP10UConverterPKc
libnode.so:_ZN4node4i18n9ConverterC1EPKcS3_
libnode.so:_ZN4node4i18n9ConverterC2EP10UConverterPKc
libnode.so:_ZN4node4i18n9ConverterC2EPKcS3_
libnode.so:_ZN4node4i18n9ToUnicodeEPNS_16MaybeStackBufferIcLm1024EEEPKcm
libnode.so:_ZN4node4util10InitializeEN2v85LocalINS1_6ObjectEEENS2_INS1_5ValueEEENS2_INS1_7ContextEEEPv
libnode.so:_ZN4node4util24ArrayBufferViewHasBufferERKN2v820FunctionCallbackInfoINS1_5ValueEEE
libnode.so:_ZN4node4wasi4WASI10EnvironGetERKN2v820FunctionCallbackInfoINS2_5ValueEEE
libnode.so:_ZN4node4wasi4WASI10FdAllocateERKN2v820FunctionCallbackInfoINS2_5ValueEEE
libnode.so:_ZN4node4wasi4WASI10FdDatasyncERKN2v820FunctionCallbackInfoINS2_5ValueEEE
libnode.so:_ZN4node4wasi4WASI10FdRenumberERKN2v820FunctionCallbackInfoINS2_5ValueEEE
libnode.so:_ZN4node4wasi4WASI10PathRenameERKN2v820FunctionCallbackInfoINS2_5ValueEEE
libnode.so:_ZN4node4wasi4WASI10PollOneoffERKN2v820FunctionCallbackInfoINS2_5ValueEEE
libnode.so:_ZN4node4wasi4WASI10SchedYieldERKN2v820FunctionCallbackInfoINS2_5ValueEEE
libnode.so:_ZN4node4wasi4WASI10_SetMemoryERKN2v820FunctionCallbackInfoINS2_5ValueEEE
libnode.so:_ZN4node4wasi4WASI11ClockResGetERKN2v820FunctionCallbackInfoINS2_5ValueEEE
libnode.so:_ZN4node4wasi4WASI11FdFdstatGetERKN2v820FunctionCallbackInfoINS2_5ValueEEE
libnode.so:_ZN4node4wasi4WASI11PathSymlinkERKN2v820FunctionCallbackInfoINS2_5ValueEEE
libnode.so:_ZN4node4wasi4WASI12ArgsSizesGetERKN2v820FunctionCallbackInfoINS2_5ValueEEE
libnode.so:_ZN4node4wasi4WASI12ClockTimeGetERKN2v820FunctionCallbackInfoINS2_5ValueEEE
libnode.so:_ZN4node4wasi4WASI12FdPrestatGetERKN2v820FunctionCallbackInfoINS2_5ValueEEE
libnode.so:_ZN4node4wasi4WASI12PathReadlinkERKN2v820FunctionCallbackInfoINS2_5ValueEEE
libnode.so:_ZN4node4wasi4WASI12SockShutdownERKN2v820FunctionCallbackInfoINS2_5ValueEEE
libnode.so:_ZN4node4wasi4WASI12backingStoreEPPcPm
libnode.so:_ZN4node4wasi4WASI13FdFilestatGetERKN2v820FunctionCallbackInfoINS2_5ValueEEE
libnode.so:_ZN4node4wasi4WASI14PathUnlinkFileERKN2v820FunctionCallbackInfoINS2_5ValueEEE
libnode.so:_ZN4node4wasi4WASI15EnvironSizesGetERKN2v820FunctionCallbackInfoINS2_5ValueEEE
libnode.so:_ZN4node4wasi4WASI15PathFilestatGetERKN2v820FunctionCallbackInfoINS2_5ValueEEE
libnode.so:_ZN4node4wasi4WASI16FdFdstatSetFlagsERKN2v820FunctionCallbackInfoINS2_5ValueEEE
libnode.so:_ZN4node4wasi4WASI16FdPrestatDirNameERKN2v820FunctionCallbackInfoINS2_5ValueEEE
libnode.so:_ZN4node4wasi4WASI17FdFdstatSetRightsERKN2v820FunctionCallbackInfoINS2_5ValueEEE
libnode.so:_ZN4node4wasi4WASI17FdFilestatSetSizeERKN2v820FunctionCallbackInfoINS2_5ValueEEE
libnode.so:_ZN4node4wasi4WASI18FdFilestatSetTimesERKN2v820FunctionCallbackInfoINS2_5ValueEEE
libnode.so:_ZN4node4wasi4WASI19PathCreateDirectoryERKN2v820FunctionCallbackInfoINS2_5ValueEEE
libnode.so:_ZN4node4wasi4WASI19PathRemoveDirectoryERKN2v820FunctionCallbackInfoINS2_5ValueEEE
libnode.so:_ZN4node4wasi4WASI20PathFilestatSetTimesERKN2v820FunctionCallbackInfoINS2_5ValueEEE
libnode.so:_ZN4node4wasi4WASI21DecreaseAllocatedSizeEm
libnode.so:_ZN4node4wasi4WASI21IncreaseAllocatedSizeEm
libnode.so:_ZN4node4wasi4WASI3NewERKN2v820FunctionCallbackInfoINS2_5ValueEEE
libnode.so:_ZN4node4wasi4WASI6FdReadERKN2v820FunctionCallbackInfoINS2_5ValueEEE
libnode.so:_ZN4node4wasi4WASI6FdSeekERKN2v820FunctionCallbackInfoINS2_5ValueEEE
libnode.so:_ZN4node4wasi4WASI6FdSyncERKN2v820FunctionCallbackInfoINS2_5ValueEEE
libnode.so:_ZN4node4wasi4WASI6FdTellERKN2v820FunctionCallbackInfoINS2_5ValueEEE
libnode.so:_ZN4node4wasi4WASI7ArgsGetERKN2v820FunctionCallbackInfoINS2_5ValueEEE
libnode.so:_ZN4node4wasi4WASI7FdCloseERKN2v820FunctionCallbackInfoINS2_5ValueEEE
libnode.so:_ZN4node4wasi4WASI7FdPreadERKN2v820FunctionCallbackInfoINS2_5ValueEEE
libnode.so:_ZN4node4wasi4WASI7FdWriteERKN2v820FunctionCallbackInfoINS2_5ValueEEE
libnode.so:_ZN4node4wasi4WASI8FdAdviseERKN2v820FunctionCallbackInfoINS2_5ValueEEE
libnode.so:_ZN4node4wasi4WASI8FdPwriteERKN2v820FunctionCallbackInfoINS2_5ValueEEE
libnode.so:_ZN4node4wasi4WASI8PathLinkERKN2v820FunctionCallbackInfoINS2_5ValueEEE
libnode.so:_ZN4node4wasi4WASI8PathOpenERKN2v820FunctionCallbackInfoINS2_5ValueEEE
libnode.so:_ZN4node4wasi4WASI8ProcExitERKN2v820FunctionCallbackInfoINS2_5ValueEEE
libnode.so:_ZN4node4wasi4WASI8SockRecvERKN2v820FunctionCallbackInfoINS2_5ValueEEE
libnode.so:_ZN4node4wasi4WASI8SockSendERKN2v820FunctionCallbackInfoINS2_5ValueEEE
libnode.so:_ZN4node4wasi4WASI9FdReaddirERKN2v820FunctionCallbackInfoINS2_5ValueEEE
libnode.so:_ZN4node4wasi4WASI9ProcRaiseERKN2v820FunctionCallbackInfoINS2_5ValueEEE
libnode.so:_ZN4node4wasi4WASI9RandomGetERKN2v820FunctionCallbackInfoINS2_5ValueEEE
libnode.so:_ZN4node4wasi4WASIC1EPNS_11EnvironmentEN2v85LocalINS4_6ObjectEEEP16uvwasi_options_s
libnode.so:_ZN4node4wasi4WASIC2EPNS_11EnvironmentEN2v85LocalINS4_6ObjectEEEP16uvwasi_options_s
libnode.so:_ZN4node4wasi4WASID0Ev
libnode.so:_ZN4node4wasi4WASID1Ev
libnode.so:_ZN4node4wasi4WASID2Ev
libnode.so:_ZN4node5AbortEv
libnode.so:_ZN4node5DummyERKN2v820FunctionCallbackInfoINS0_5ValueEEE
libnode.so:_ZN4node5StartEiPPc
libnode.so:_ZN4node5http210Http2ScopeC1EPNS0_11Http2StreamE
libnode.so:_ZN4node5http210Http2ScopeC1EPNS0_12Http2SessionE
libnode.so:_ZN4node5http210Http2ScopeC2EPNS0_11Http2StreamE
libnode.so:_ZN4node5http210Http2ScopeC2EPNS0_12Http2SessionE
libnode.so:_ZN4node5http210Http2ScopeD1Ev
libnode.so:_ZN4node5http210Http2ScopeD2Ev
libnode.so:_ZN4node5http210InitializeEN2v85LocalINS1_6ObjectEEENS2_INS1_5ValueEEENS2_INS1_7ContextEEEPv
libnode.so:_ZN4node5http211Http2Stream10DoShutdownEPNS_12ShutdownWrapE
libnode.so:_ZN4node5http211Http2Stream10OnTrailersEv
libnode.so:_ZN4node5http211Http2Stream10SubmitInfoERKNS_9NgHeadersINS0_18Http2HeadersTraitsEEE
libnode.so:_ZN4node5http211Http2Stream11PushPromiseERKN2v820FunctionCallbackInfoINS2_5ValueEEE
libnode.so:_ZN4node5http211Http2Stream12RefreshStateERKN2v820FunctionCallbackInfoINS2_5ValueEEE
libnode.so:_ZN4node5http211Http2Stream12StartHeadersE24nghttp2_headers_category
libnode.so:_ZN4node5http211Http2Stream14EmitStatisticsEv
libnode.so:_ZN4node5http211Http2Stream14FlushRstStreamEv
libnode.so:_ZN4node5http211Http2Stream14SubmitPriorityEP21nghttp2_priority_specb
libnode.so:_ZN4node5http211Http2Stream14SubmitResponseERKNS_9NgHeadersINS0_18Http2HeadersTraitsEEEi
libnode.so:_ZN4node5http211Http2Stream14SubmitTrailersERKNS_9NgHeadersINS0_18Http2HeadersTraitsEEE
libnode.so:_ZN4node5http211Http2Stream15SubmitRstStreamEj
libnode.so:_ZN4node5http211Http2Stream17SubmitPushPromiseERKNS_9NgHeadersINS0_18Http2HeadersTraitsEEEPii
libnode.so:_ZN4node5http211Http2Stream18CreateShutdownWrapEN2v85LocalINS2_6ObjectEEE
libnode.so:_ZN4node5http211Http2Stream3NewEPNS0_12Http2SessionEi24nghttp2_headers_categoryi
libnode.so:_ZN4node5http211Http2Stream4InfoERKN2v820FunctionCallbackInfoINS2_5ValueEEE
libnode.so:_ZN4node5http211Http2Stream5CloseEi
libnode.so:_ZN4node5http211Http2Stream5GetIDERKN2v820FunctionCallbackInfoINS2_5ValueEEE
libnode.so:_ZN4node5http211Http2Stream7DestroyERKN2v820FunctionCallbackInfoINS2_5ValueEEE
libnode.so:_ZN4node5http211Http2Stream7DestroyEv
libnode.so:_ZN4node5http211Http2Stream7DoWriteEPNS_9WriteWrapEP8uv_buf_tmP11uv_stream_s
libnode.so:_ZN4node5http211Http2Stream7RespondERKN2v820FunctionCallbackInfoINS2_5ValueEEE
libnode.so:_ZN4node5http211Http2Stream8PriorityERKN2v820FunctionCallbackInfoINS2_5ValueEEE
libnode.so:_ZN4node5http211Http2Stream8Provider6Stream6OnReadEP15nghttp2_sessioniPhmPjP19nghttp2_data_sourcePv
libnode.so:_ZN4node5http211Http2Stream8Provider6StreamC1EPS1_i
libnode.so:_ZN4node5http211Http2Stream8Provider6StreamC1Ei
libnode.so:_ZN4node5http211Http2Stream8Provider6StreamC2EPS1_i
libnode.so:_ZN4node5http211Http2Stream8Provider6StreamC2Ei
libnode.so:_ZN4node5http211Http2Stream8ProviderC1EPS1_i
libnode.so:_ZN4node5http211Http2Stream8ProviderC1Ei
libnode.so:_ZN4node5http211Http2Stream8ProviderC2EPS1_i
libnode.so:_ZN4node5http211Http2Stream8ProviderC2Ei
libnode.so:_ZN4node5http211Http2Stream8ProviderD0Ev
libnode.so:_ZN4node5http211Http2Stream8ProviderD1Ev
libnode.so:_ZN4node5http211Http2Stream8ProviderD2Ev
libnode.so:_ZN4node5http211Http2Stream8ReadStopEv
libnode.so:_ZN4node5http211Http2Stream8TrailersERKN2v820FunctionCallbackInfoINS2_5ValueEEE
libnode.so:_ZN4node5http211Http2Stream9AddHeaderEP13nghttp2_rcbufS3_h
libnode.so:_ZN4node5http211Http2Stream9ReadStartEv
libnode.so:_ZN4node5http211Http2Stream9RstStreamERKN2v820FunctionCallbackInfoINS2_5ValueEEE
libnode.so:_ZN4node5http211Http2StreamC1EPNS0_12Http2SessionEN2v85LocalINS4_6ObjectEEEi24nghttp2_headers_categoryi
libnode.so:_ZN4node5http211Http2StreamC2EPNS0_12Http2SessionEN2v85LocalINS4_6ObjectEEEi24nghttp2_headers_categoryi
libnode.so:_ZN4node5http211Http2StreamD0Ev
libnode.so:_ZN4node5http211Http2StreamD1Ev
libnode.so:_ZN4node5http211Http2StreamD2Ev
libnode.so:_ZN4node5http211Http2StreamdeEv
libnode.so:_ZN4node5http212Http2OptionsC1EPNS0_10Http2StateENS0_20nghttp2_session_typeE
libnode.so:_ZN4node5http212Http2OptionsC2EPNS0_10Http2StateENS0_20nghttp2_session_typeE
libnode.so:_ZN4node5http212Http2Session10OnSendDataEP15nghttp2_sessionP13nghttp2_framePKhmP19nghttp2_data_sourcePv
libnode.so:_ZN4node5http212Http2Session11AddSettingsENS_17BaseObjectPtrImplINS1_13Http2SettingsELb0EEE
libnode.so:_ZN4node5http212Http2Session11OnFrameSentEP15nghttp2_sessionPK13nghttp2_framePv
libnode.so:_ZN4node5http212Http2Session11PopSettingsEv
libnode.so:_ZN4node5http212Http2Session12OnStreamReadElRK8uv_buf_t
libnode.so:_ZN4node5http212Http2Session12RefreshStateERKN2v820FunctionCallbackInfoINS2_5ValueEEE
libnode.so:_ZN4node5http212Http2Session13ClearOutgoingEi
libnode.so:_ZN4node5http212Http2Session13Http2Settings15RefreshDefaultsEPNS0_10Http2StateE
libnode.so:_ZN4node5http212Http2Session13Http2Settings4DoneEb
libnode.so:_ZN4node5http212Http2Session13Http2Settings4InitEPNS0_10Http2StateE
libnode.so:_ZN4node5http212Http2Session13Http2Settings4PackEv
libnode.so:_ZN4node5http212Http2Session13Http2Settings4SendEv
libnode.so:_ZN4node5http212Http2Session13Http2Settings6UpdateEPS1_PFjP15nghttp2_session19nghttp2_settings_idE
libnode.so:_ZN4node5http212Http2Session13Http2SettingsC1EPNS0_10Http2StateEPS1_N2v85LocalINS6_6ObjectEEEm
libnode.so:_ZN4node5http212Http2Session13Http2SettingsC2EPNS0_10Http2StateEPS1_N2v85LocalINS6_6ObjectEEEm
libnode.so:_ZN4node5http212Http2Session13OnNghttpErrorEP15nghttp2_sessionPKcmPv
libnode.so:_ZN4node5http212Http2Session13OnStreamAllocEm
libnode.so:_ZN4node5http212Http2Session13OnStreamCloseEP15nghttp2_sessionijPv
libnode.so:_ZN4node5http212Http2Session13SubmitRequestEP21nghttp2_priority_specRKNS_9NgHeadersINS0_18Http2HeadersTraitsEEEPii
libnode.so:_ZN4node5http212Http2Session14EmitStatisticsEv
libnode.so:_ZN4node5http212Http2Session14OnFrameNotSentEP15nghttp2_sessionPK13nghttp2_frameiPv
libnode.so:_ZN4node5http212Http2Session14OnFrameReceiveEP15nghttp2_sessionPK13nghttp2_framePv
libnode.so:_ZN4node5http212Http2Session14OnInvalidFrameEP15nghttp2_sessionPK13nghttp2_frameiPv
libnode.so:_ZN4node5http212Http2Session15HandleDataFrameEPK13nghttp2_frame
libnode.so:_ZN4node5http212Http2Session15HandlePingFrameEPK13nghttp2_frame
libnode.so:_ZN4node5http212Http2Session15OnInvalidHeaderEP15nghttp2_sessionPK13nghttp2_frameP13nghttp2_rcbufS8_hPv
libnode.so:_ZN4node5http212Http2Session15OnSelectPaddingEP15nghttp2_sessionPK13nghttp2_framemPv
libnode.so:_ZN4node5http212Http2Session15SendPendingDataEv
libnode.so:_ZN4node5http212Http2Session15SetNextStreamIDERKN2v820FunctionCallbackInfoINS2_5ValueEEE
libnode.so:_ZN4node5http212Http2Session16ConsumeHTTP2DataEv
libnode.so:_ZN4node5http212Http2Session16MaybeStopReadingEv
libnode.so:_ZN4node5http212Http2Session16OnHeaderCallbackEP15nghttp2_sessionPK13nghttp2_frameP13nghttp2_rcbufS8_hPv
libnode.so:_ZN4node5http212Http2Session16UpdateChunksSentERKN2v820FunctionCallbackInfoINS2_5ValueEEE
libnode.so:_ZN4node5http212Http2Session17HandleAltSvcFrameEPK13nghttp2_frame
libnode.so:_ZN4node5http212Http2Session17HandleGoawayFrameEPK13nghttp2_frame
libnode.so:_ZN4node5http212Http2Session17HandleOriginFrameEPK13nghttp2_frame
libnode.so:_ZN4node5http212Http2Session17StopTrackingRcbufEP13nghttp2_rcbuf
libnode.so:_ZN4node5http212Http2Session18HandleHeadersFrameEPK13nghttp2_frame
libnode.so:_ZN4node5http212Http2Session18MaybeScheduleWriteEv
libnode.so:_ZN4node5http212Http2Session18OnStreamAfterWriteEPNS_9WriteWrapEi
libnode.so:_ZN4node5http212Http2Session18PushOutgoingBufferEONS0_18NgHttp2StreamWriteE
libnode.so:_ZN4node5http212Http2Session19HandlePriorityFrameEPK13nghttp2_frame
libnode.so:_ZN4node5http212Http2Session19HandleSettingsFrameEPK13nghttp2_frame
libnode.so:_ZN4node5http212Http2Session19OnDataChunkReceivedEP15nghttp2_sessionhiPKhmPv
libnode.so:_ZN4node5http212Http2Session20CopyDataIntoOutgoingEPKhm
libnode.so:_ZN4node5http212Http2Session21DecreaseAllocatedSizeEm
libnode.so:_ZN4node5http212Http2Session21IncreaseAllocatedSizeEm
libnode.so:_ZN4node5http212Http2Session21OnDWordAlignedPaddingEmm
libnode.so:_ZN4node5http212Http2Session21OnMaxFrameSizePaddingEmm
libnode.so:_ZN4node5http212Http2Session21callback_struct_savedE
libnode.so:_ZN4node5http212Http2Session22OnBeginHeadersCallbackEP15nghttp2_sessionPK13nghttp2_framePv
libnode.so:_ZN4node5http212Http2Session26HasWritesOnSocketForStreamEPNS0_11Http2StreamE
libnode.so:_ZN4node5http212Http2Session3NewERKN2v820FunctionCallbackInfoINS2_5ValueEEE
libnode.so:_ZN4node5http212Http2Session4PingERKN2v820FunctionCallbackInfoINS2_5ValueEEE
libnode.so:_ZN4node5http212Http2Session5CloseEjb
libnode.so:_ZN4node5http212Http2Session6AltSvcERKN2v820FunctionCallbackInfoINS2_5ValueEEE
libnode.so:_ZN4node5http212Http2Session6AltSvcEiPhmS2_m
libnode.so:_ZN4node5http212Http2Session6GoawayERKN2v820FunctionCallbackInfoINS2_5ValueEEE
libnode.so:_ZN4node5http212Http2Session6GoawayEjiPKhm
libnode.so:_ZN4node5http212Http2Session6OriginEP20nghttp2_origin_entrym
libnode.so:_ZN4node5http212Http2Session6OriginERKN2v820FunctionCallbackInfoINS2_5ValueEEE
libnode.so:_ZN4node5http212Http2Session7AddPingENS_17BaseObjectPtrImplINS1_9Http2PingELb0EEE
libnode.so:_ZN4node5http212Http2Session7ConsumeEN2v85LocalINS2_6ObjectEEE
libnode.so:_ZN4node5http212Http2Session7ConsumeERKN2v820FunctionCallbackInfoINS2_5ValueEEE
libnode.so:_ZN4node5http212Http2Session7DestroyERKN2v820FunctionCallbackInfoINS2_5ValueEEE
libnode.so:_ZN4node5http212Http2Session7PopPingEv
libnode.so:_ZN4node5http212Http2Session7RequestERKN2v820FunctionCallbackInfoINS2_5ValueEEE
libnode.so:_ZN4node5http212Http2Session8SettingsERKN2v820FunctionCallbackInfoINS2_5ValueEEE
libnode.so:_ZN4node5http212Http2Session9Http2Ping17DetachFromSessionEv
libnode.so:_ZN4node5http212Http2Session9Http2Ping4DoneEbPKh
libnode.so:_ZN4node5http212Http2Session9Http2Ping4SendEPKh
libnode.so:_ZN4node5http212Http2Session9Http2PingC1EPS1_N2v85LocalINS4_6ObjectEEE
libnode.so:_ZN4node5http212Http2Session9Http2PingC2EPS1_N2v85LocalINS4_6ObjectEEE
libnode.so:_ZN4node5http212Http2SessionC1EPNS0_10Http2StateEN2v85LocalINS4_6ObjectEEENS0_20nghttp2_session_typeE
libnode.so:_ZN4node5http212Http2SessionC2EPNS0_10Http2StateEN2v85LocalINS4_6ObjectEEENS0_20nghttp2_session_typeE
libnode.so:_ZN4node5http212Http2SessionD0Ev
libnode.so:_ZN4node5http212Http2SessionD1Ev
libnode.so:_ZN4node5http212Http2SessionD2Ev
libnode.so:_ZN4node5http212PackSettingsERKN2v820FunctionCallbackInfoINS1_5ValueEEE
libnode.so:_ZN4node5http213Http2PriorityC1EPNS_11EnvironmentEN2v85LocalINS4_5ValueEEES7_S7_
libnode.so:_ZN4node5http213Http2PriorityC2EPNS_11EnvironmentEN2v85LocalINS4_5ValueEEES7_S7_
libnode.so:_ZN4node5http215HttpErrorStringERKN2v820FunctionCallbackInfoINS1_5ValueEEE
libnode.so:_ZN4node5http219Http2StreamListener12OnStreamReadElRK8uv_buf_t
libnode.so:_ZN4node5http219Http2StreamListener13OnStreamAllocEm
libnode.so:_ZN4node5http220SetCallbackFunctionsERKN2v820FunctionCallbackInfoINS1_5ValueEEE
libnode.so:_ZN4node5http222RefreshDefaultSettingsERKN2v820FunctionCallbackInfoINS1_5ValueEEE
libnode.so:_ZN4node5http27OriginsC1EPN2v87IsolateENS2_5LocalINS2_7ContextEEENS5_INS2_6StringEEEm
libnode.so:_ZN4node5http27OriginsC2EPN2v87IsolateENS2_5LocalINS2_7ContextEEENS5_INS2_6StringEEEm
libnode.so:_ZN4node6AssertERKNS_13AssertionInfoE
libnode.so:_ZN4node6AtExitEPFvPvES0_
libnode.so:_ZN4node6AtExitEPNS_11EnvironmentEPFvPvES2_
libnode.so:_ZN4node6Buffer11HasInstanceEN2v85LocalINS1_5ValueEEE
libnode.so:_ZN4node6Buffer11HasInstanceEN2v85LocalINS1_6ObjectEEE
libnode.so:_ZN4node6Buffer3NewEPN2v87IsolateENS1_5LocalINS1_11ArrayBufferEEEmm
libnode.so:_ZN4node6Buffer3NewEPN2v87IsolateENS1_5LocalINS1_6StringEEENS_8encodingE
libnode.so:_ZN4node6Buffer3NewEPN2v87IsolateEPcm
libnode.so:_ZN4node6Buffer3NewEPN2v87IsolateEPcmPFvS4_PvES5_
libnode.so:_ZN4node6Buffer3NewEPN2v87IsolateEm
libnode.so:_ZN4node6Buffer3NewEPNS_11EnvironmentEN2v85LocalINS3_11ArrayBufferEEEmm
libnode.so:_ZN4node6Buffer3NewEPNS_11EnvironmentEPcmPFvS3_PvES4_
libnode.so:_ZN4node6Buffer3NewEPNS_11EnvironmentEPcmb
libnode.so:_ZN4node6Buffer3NewEPNS_11EnvironmentEm
libnode.so:_ZN4node6Buffer4CopyEPN2v87IsolateEPKcm
libnode.so:_ZN4node6Buffer4CopyEPNS_11EnvironmentEPKcm
libnode.so:_ZN4node6Buffer4DataEN2v85LocalINS1_5ValueEEE
libnode.so:_ZN4node6Buffer4DataEN2v85LocalINS1_6ObjectEEE
libnode.so:_ZN4node6Buffer6LengthEN2v85LocalINS1_5ValueEEE
libnode.so:_ZN4node6Buffer6LengthEN2v85LocalINS1_6ObjectEEE
libnode.so:_ZN4node6EncodeEPN2v87IsolateEPKcmNS_8encodingE
libnode.so:_ZN4node6EncodeEPN2v87IsolateEPKtm
libnode.so:_ZN4node6FWriteEP8_IO_FILERKNSt3__112basic_stringIcNS2_11char_traitsIcEENS2_9allocatorIcEEEE
libnode.so:_ZN4node6crypto10ByteSource10FromBufferEN2v85LocalINS2_5ValueEEEb
libnode.so:_ZN4node6crypto10ByteSource10FromStringEPNS_11EnvironmentEN2v85LocalINS4_6StringEEEb
libnode.so:_ZN4node6crypto10ByteSource18FromStringOrBufferEPNS_11EnvironmentEN2v85LocalINS4_5ValueEEE
libnode.so:_ZN4node6crypto10ByteSource18NullTerminatedCopyEPNS_11EnvironmentEN2v85LocalINS4_5ValueEEE
libnode.so:_ZN4node6crypto10ByteSource22FromSymmetricKeyObjectEN2v85LocalINS2_5ValueEEE
libnode.so:_ZN4node6crypto10ByteSource7ForeignEPKcm
libnode.so:_ZN4node6crypto10ByteSource9AllocatedEPcm
libnode.so:_ZN4node6crypto10ByteSourceC1EOS1_
libnode.so:_ZN4node6crypto10ByteSourceC1EPKcPcm
libnode.so:_ZN4node6crypto10ByteSourceC2EOS1_
libnode.so:_ZN4node6crypto10ByteSourceC2EPKcPcm
libnode.so:_ZN4node6crypto10ByteSourceD1Ev
libnode.so:_ZN4node6crypto10ByteSourceD2Ev
libnode.so:_ZN4node6crypto10ByteSourceaSEOS1_
libnode.so:_ZN4node6crypto10CheckThrowEPNS_11EnvironmentENS0_8SignBase5ErrorE
libnode.so:_ZN4node6crypto10CipherBase10CommonInitEPKcPK13evp_cipher_stPKhiS8_ij
libnode.so:_ZN4node6crypto10CipherBase10GetAuthTagERKN2v820FunctionCallbackInfoINS2_5ValueEEE
libnode.so:_ZN4node6crypto10CipherBase10InitializeEPNS_11EnvironmentEN2v85LocalINS4_6ObjectEEE
libnode.so:_ZN4node6crypto10CipherBase10SetAuthTagERKN2v820FunctionCallbackInfoINS2_5ValueEEE
libnode.so:_ZN4node6crypto10CipherBase14SetAutoPaddingERKN2v820FunctionCallbackInfoINS2_5ValueEEE
libnode.so:_ZN4node6crypto10CipherBase14SetAutoPaddingEb
libnode.so:_ZN4node6crypto10CipherBase17InitAuthenticatedEPKcij
libnode.so:_ZN4node6crypto10CipherBase21CheckCCMMessageLengthEi
libnode.so:_ZN4node6crypto10CipherBase25MaybePassAuthTagToOpenSSLEv
libnode.so:_ZN4node6crypto10CipherBase3NewERKN2v820FunctionCallbackInfoINS2_5ValueEEE
libnode.so:_ZN4node6crypto10CipherBase4InitEPKcS3_ij
libnode.so:_ZN4node6crypto10CipherBase4InitERKN2v820FunctionCallbackInfoINS2_5ValueEEE
libnode.so:_ZN4node6crypto10CipherBase5FinalEPNS_15AllocatedBufferE
libnode.so:_ZN4node6crypto10CipherBase5FinalERKN2v820FunctionCallbackInfoINS2_5ValueEEE
libnode.so:_ZN4node6crypto10CipherBase6InitIvEPKcPKhiS5_ij
libnode.so:_ZN4node6crypto10CipherBase6InitIvERKN2v820FunctionCallbackInfoINS2_5ValueEEE
libnode.so:_ZN4node6crypto10CipherBase6SetAADEPKcji
libnode.so:_ZN4node6crypto10CipherBase6SetAADERKN2v820FunctionCallbackInfoINS2_5ValueEEE
libnode.so:_ZN4node6crypto10CipherBase6UpdateEPKciPNS_15AllocatedBufferE
libnode.so:_ZN4node6crypto10CipherBase6UpdateERKN2v820FunctionCallbackInfoINS2_5ValueEEE
libnode.so:_ZN4node6crypto10CipherBaseC1EPNS_11EnvironmentEN2v85LocalINS4_6ObjectEEENS1_10CipherKindE
libnode.so:_ZN4node6crypto10CipherBaseC2EPNS_11EnvironmentEN2v85LocalINS4_6ObjectEEENS1_10CipherKindE
libnode.so:_ZN4node6crypto10ConvertKeyERKN2v820FunctionCallbackInfoINS1_5ValueEEE
libnode.so:_ZN4node6crypto10GetCiphersERKN2v820FunctionCallbackInfoINS1_5ValueEEE
libnode.so:_ZN4node6crypto10InitializeEN2v85LocalINS1_6ObjectEEENS2_INS1_5ValueEEENS2_INS1_7ContextEEEPv
libnode.so:_ZN4node6crypto11GetPeerCertEPNS_11EnvironmentERKNSt3__110unique_ptrI6ssl_stNS_15FunctionDeleterIS5_XadL_Z8SSL_freeEEEEEEbb
libnode.so:_ZN4node6crypto11RandomBytesERKN2v820FunctionCallbackInfoINS1_5ValueEEE
libnode.so:_ZN4node6crypto11SignOneShotERKN2v820FunctionCallbackInfoINS1_5ValueEEE
libnode.so:_ZN4node6crypto11VerifySpkacEPKcj
libnode.so:_ZN4node6crypto11VerifySpkacERKN2v820FunctionCallbackInfoINS1_5ValueEEE
libnode.so:_ZN4node6crypto12X509ToObjectEPNS_11EnvironmentEP7x509_st
libnode.so:_ZN4node6crypto13DiffieHellman10InitializeEPNS_11EnvironmentEN2v85LocalINS4_6ObjectEEE
libnode.so:_ZN4node6crypto13DiffieHellman12GenerateKeysERKN2v820FunctionCallbackInfoINS2_5ValueEEE
libnode.so:_ZN4node6crypto13DiffieHellman12GetGeneratorERKN2v820FunctionCallbackInfoINS2_5ValueEEE
libnode.so:_ZN4node6crypto13DiffieHellman12GetPublicKeyERKN2v820FunctionCallbackInfoINS2_5ValueEEE
libnode.so:_ZN4node6crypto13DiffieHellman12SetPublicKeyERKN2v820FunctionCallbackInfoINS2_5ValueEEE
libnode.so:_ZN4node6crypto13DiffieHellman13ComputeSecretERKN2v820FunctionCallbackInfoINS2_5ValueEEE
libnode.so:_ZN4node6crypto13DiffieHellman13GetPrivateKeyERKN2v820FunctionCallbackInfoINS2_5ValueEEE
libnode.so:_ZN4node6crypto13DiffieHellman13SetPrivateKeyERKN2v820FunctionCallbackInfoINS2_5ValueEEE
libnode.so:_ZN4node6crypto13DiffieHellman13VerifyContextEv
libnode.so:_ZN4node6crypto13DiffieHellman17VerifyErrorGetterERKN2v820FunctionCallbackInfoINS2_5ValueEEE
libnode.so:_ZN4node6crypto13DiffieHellman18DiffieHellmanGroupERKN2v820FunctionCallbackInfoINS2_5ValueEEE
libnode.so:_ZN4node6crypto13DiffieHellman3NewERKN2v820FunctionCallbackInfoINS2_5ValueEEE
libnode.so:_ZN4node6crypto13DiffieHellman4InitEPKciS3_i
libnode.so:_ZN4node6crypto13DiffieHellman4InitEPKcii
libnode.so:_ZN4node6crypto13DiffieHellman4InitEii
libnode.so:_ZN4node6crypto13DiffieHellman6SetKeyERKN2v820FunctionCallbackInfoINS2_5ValueEEEPFiP5dh_stP9bignum_stEPKc
libnode.so:_ZN4node6crypto13DiffieHellman8GetFieldERKN2v820FunctionCallbackInfoINS2_5ValueEEEPFPK9bignum_stPK5dh_stEPKc
libnode.so:_ZN4node6crypto13DiffieHellman8GetPrimeERKN2v820FunctionCallbackInfoINS2_5ValueEEE
libnode.so:_ZN4node6crypto13DiffieHellmanC1EPNS_11EnvironmentEN2v85LocalINS4_6ObjectEEE
libnode.so:_ZN4node6crypto13DiffieHellmanC2EPNS_11EnvironmentEN2v85LocalINS4_6ObjectEEE
libnode.so:_ZN4node6crypto13EntropySourceEPhm
libnode.so:_ZN4node6crypto13GetCipherInfoEPNS_11EnvironmentERKNSt3__110unique_ptrI6ssl_stNS_15FunctionDeleterIS5_XadL_Z8SSL_freeEEEEEE
libnode.so:_ZN4node6crypto13GetCipherNameEPNS_11EnvironmentERKNSt3__110unique_ptrI6ssl_stNS_15FunctionDeleterIS5_XadL_Z8SSL_freeEEEEEE
libnode.so:_ZN4node6crypto13GetSSLCiphersERKN2v820FunctionCallbackInfoINS1_5ValueEEE
libnode.so:_ZN4node6crypto13GetServerNameEP6ssl_st
libnode.so:_ZN4node6crypto13GetTLSSessionEN2v85LocalINS1_5ValueEEE
libnode.so:_ZN4node6crypto13GetTLSSessionEPKhm
libnode.so:_ZN4node6crypto13SecureContext10InitializeEPNS_11EnvironmentEN2v85LocalINS4_6ObjectEEE
libnode.so:_ZN4node6crypto13SecureContext10LoadPKCS12ERKN2v820FunctionCallbackInfoINS2_5ValueEEE
libnode.so:_ZN4node6crypto13SecureContext10SetCiphersERKN2v820FunctionCallbackInfoINS2_5ValueEEE
libnode.so:_ZN4node6crypto13SecureContext10SetDHParamERKN2v820FunctionCallbackInfoINS2_5ValueEEE
libnode.so:_ZN4node6crypto13SecureContext10SetOptionsERKN2v820FunctionCallbackInfoINS2_5ValueEEE
libnode.so:_ZN4node6crypto13SecureContext10SetSigalgsERKN2v820FunctionCallbackInfoINS2_5ValueEEE
libnode.so:_ZN4node6crypto13SecureContext11GetMaxProtoERKN2v820FunctionCallbackInfoINS2_5ValueEEE
libnode.so:_ZN4node6crypto13SecureContext11GetMinProtoERKN2v820FunctionCallbackInfoINS2_5ValueEEE
libnode.so:_ZN4node6crypto13SecureContext11SetMaxProtoERKN2v820FunctionCallbackInfoINS2_5ValueEEE
libnode.so:_ZN4node6crypto13SecureContext11SetMinProtoERKN2v820FunctionCallbackInfoINS2_5ValueEEE
libnode.so:_ZN4node6crypto13SecureContext12AddRootCertsERKN2v820FunctionCallbackInfoINS2_5ValueEEE
libnode.so:_ZN4node6crypto13SecureContext12SetECDHCurveERKN2v820FunctionCallbackInfoINS2_5ValueEEE
libnode.so:_ZN4node6crypto13SecureContext12SetEngineKeyERKN2v820FunctionCallbackInfoINS2_5ValueEEE
libnode.so:_ZN4node6crypto13SecureContext13GetTicketKeysERKN2v820FunctionCallbackInfoINS2_5ValueEEE
libnode.so:_ZN4node6crypto13SecureContext13SetTicketKeysERKN2v820FunctionCallbackInfoINS2_5ValueEEE
libnode.so:_ZN4node6crypto13SecureContext15SetCipherSuitesERKN2v820FunctionCallbackInfoINS2_5ValueEEE
libnode.so:_ZN4node6crypto13SecureContext17SetFreeListLengthERKN2v820FunctionCallbackInfoINS2_5ValueEEE
libnode.so:_ZN4node6crypto13SecureContext17SetSessionTimeoutERKN2v820FunctionCallbackInfoINS2_5ValueEEE
libnode.so:_ZN4node6crypto13SecureContext17TicketKeyCallbackEP6ssl_stPhS4_P17evp_cipher_ctx_stP11hmac_ctx_sti
libnode.so:_ZN4node6crypto13SecureContext19SetClientCertEngineERKN2v820FunctionCallbackInfoINS2_5ValueEEE
libnode.so:_ZN4node6crypto13SecureContext19SetSessionIdContextERKN2v820FunctionCallbackInfoINS2_5ValueEEE
libnode.so:_ZN4node6crypto13SecureContext23EnableTicketKeyCallbackERKN2v820FunctionCallbackInfoINS2_5ValueEEE
libnode.so:_ZN4node6crypto13SecureContext27TicketCompatibilityCallbackEP6ssl_stPhS4_P17evp_cipher_ctx_stP11hmac_ctx_sti
libnode.so:_ZN4node6crypto13SecureContext3NewERKN2v820FunctionCallbackInfoINS2_5ValueEEE
libnode.so:_ZN4node6crypto13SecureContext4InitERKN2v820FunctionCallbackInfoINS2_5ValueEEE
libnode.so:_ZN4node6crypto13SecureContext5CloseERKN2v820FunctionCallbackInfoINS2_5ValueEEE
libnode.so:_ZN4node6crypto13SecureContext6AddCRLERKN2v820FunctionCallbackInfoINS2_5ValueEEE
libnode.so:_ZN4node6crypto13SecureContext6SetKeyERKN2v820FunctionCallbackInfoINS2_5ValueEEE
libnode.so:_ZN4node6crypto13SecureContext7SetCertERKN2v820FunctionCallbackInfoINS2_5ValueEEE
libnode.so:_ZN4node6crypto13SecureContext9AddCACertERKN2v820FunctionCallbackInfoINS2_5ValueEEE
libnode.so:_ZN4node6crypto13SecureContext9CtxGetterERKN2v820FunctionCallbackInfoINS2_5ValueEEE
libnode.so:_ZN4node6crypto13SecureContextC1EPNS_11EnvironmentEN2v85LocalINS4_6ObjectEEE
libnode.so:_ZN4node6crypto13SecureContextC2EPNS_11EnvironmentEN2v85LocalINS4_6ObjectEEE
libnode.so:_ZN4node6crypto13SecureContextD0Ev
libnode.so:_ZN4node6crypto13SecureContextD1Ev
libnode.so:_ZN4node6crypto13SecureContextD2Ev
libnode.so:_ZN4node6crypto13SetTLSSessionERKNSt3__110unique_ptrI6ssl_stNS_15FunctionDeleterIS3_XadL_Z8SSL_freeEEEEEEPKhm
libnode.so:_ZN4node6crypto13SetTLSSessionERKNSt3__110unique_ptrI6ssl_stNS_15FunctionDeleterIS3_XadL_Z8SSL_freeEEEEEERKNS2_I14ssl_session_stNS4_IS9_XadL_Z16SSL_SESSION_freeEEEEEE
libnode.so:_ZN4node6crypto13UseSNIContextERKNSt3__110unique_ptrI6ssl_stNS_15FunctionDeleterIS3_XadL_Z8SSL_freeEEEEEEPNS0_13SecureContextE
libnode.so:_ZN4node6crypto13VerifyOneShotERKN2v820FunctionCallbackInfoINS1_5ValueEEE
libnode.so:_ZN4node6crypto13X509ErrorCodeEl
libnode.so:_ZN4node6crypto14ENGINE_free_fnEP9engine_st
libnode.so:_ZN4node6crypto14InitCryptoOnceEv
libnode.so:_ZN4node6crypto14ManagedEVPPKeyC1EONSt3__110unique_ptrI11evp_pkey_stNS_15FunctionDeleterIS4_XadL_Z13EVP_PKEY_freeEEEEEE
libnode.so:_ZN4node6crypto14ManagedEVPPKeyC1ERKS1_
libnode.so:_ZN4node6crypto14ManagedEVPPKeyC2EONSt3__110unique_ptrI11evp_pkey_stNS_15FunctionDeleterIS4_XadL_Z13EVP_PKEY_freeEEEEEE
libnode.so:_ZN4node6crypto14ManagedEVPPKeyC2ERKS1_
libnode.so:_ZN4node6crypto14ManagedEVPPKeyaSERKS1_
libnode.so:_ZN4node6crypto14VerifyCallbackEiP17x509_store_ctx_st
libnode.so:_ZN4node6crypto15ECPointToBufferEPNS_11EnvironmentEPK11ec_group_stPK11ec_point_st23point_conversion_form_tPPKc
libnode.so:_ZN4node6crypto15ExportChallengeEPKci
libnode.so:_ZN4node6crypto15ExportChallengeERKN2v820FunctionCallbackInfoINS1_5ValueEEE
libnode.so:_ZN4node6crypto15ExportPublicKeyEPNS_11EnvironmentEPKciPm
libnode.so:_ZN4node6crypto15ExportPublicKeyERKN2v820FunctionCallbackInfoINS1_5ValueEEE
libnode.so:_ZN4node6crypto15GenerateKeyPairERKN2v820FunctionCallbackInfoINS1_5ValueEEEjNSt3__110unique_ptrINS0_23KeyPairGenerationConfigENS7_14default_deleteIS9_EEEE
libnode.so:_ZN4node6crypto15GetEphemeralKeyEPNS_11EnvironmentERKNSt3__110unique_ptrI6ssl_stNS_15FunctionDeleterIS5_XadL_Z8SSL_freeEEEEEE
libnode.so:_ZN4node6crypto15TimingSafeEqualERKN2v820FunctionCallbackInfoINS1_5ValueEEE
libnode.so:_ZN4node6crypto15UseExtraCaCertsERKNSt3__112basic_stringIcNS1_11char_traitsIcEENS1_9allocatorIcEEEE
libnode.so:_ZN4node6crypto16GetCertificateCNEP7x509_st
libnode.so:_ZN4node6crypto16GetCipherVersionEPNS_11EnvironmentERKNSt3__110unique_ptrI6ssl_stNS_15FunctionDeleterIS5_XadL_Z8SSL_freeEEEEEE
libnode.so:_ZN4node6crypto16ThrowCryptoErrorEPNS_11EnvironmentEmPKc
libnode.so:_ZN4node6crypto17ClientHelloParser11ParseHeaderEPKhm
libnode.so:_ZN4node6crypto17ClientHelloParser14ParseExtensionEtPKhm
libnode.so:_ZN4node6crypto17ClientHelloParser17ParseRecordHeaderEPKhm
libnode.so:_ZN4node6crypto17ClientHelloParser19ParseTLSClientHelloEPKhm
libnode.so:_ZN4node6crypto17ClientHelloParser5ParseEPKhm
libnode.so:_ZN4node6crypto17GenerateKeyPairDHERKN2v820FunctionCallbackInfoINS1_5ValueEEE
libnode.so:_ZN4node6crypto17GenerateKeyPairECERKN2v820FunctionCallbackInfoINS1_5ValueEEE
libnode.so:_ZN4node6crypto18GenerateKeyPairDSAERKN2v820FunctionCallbackInfoINS1_5ValueEEE
libnode.so:_ZN4node6crypto18GenerateKeyPairNidERKN2v820FunctionCallbackInfoINS1_5ValueEEE
libnode.so:_ZN4node6crypto18GenerateKeyPairRSAERKN2v820FunctionCallbackInfoINS1_5ValueEEE
libnode.so:_ZN4node6crypto18GetClientHelloALPNERKNSt3__110unique_ptrI6ssl_stNS_15FunctionDeleterIS3_XadL_Z8SSL_freeEEEEEE
libnode.so:_ZN4node6crypto18GetSSLOCSPResponseEPNS_11EnvironmentEP6ssl_stN2v85LocalINS5_5ValueEEE
libnode.so:_ZN4node6crypto18SSL_CTX_get_issuerEP10ssl_ctx_stP7x509_stPS4_
libnode.so:_ZN4node6crypto19GetRootCertificatesERKN2v820FunctionCallbackInfoINS1_5ValueEEE
libnode.so:_ZN4node6crypto21GenerateKeyPairRSAPSSERKN2v820FunctionCallbackInfoINS1_5ValueEEE
libnode.so:_ZN4node6crypto21GetCipherStandardNameEPNS_11EnvironmentERKNSt3__110unique_ptrI6ssl_stNS_15FunctionDeleterIS5_XadL_Z8SSL_freeEEEEEE
libnode.so:_ZN4node6crypto21GetClientHelloCiphersEPNS_11EnvironmentERKNSt3__110unique_ptrI6ssl_stNS_15FunctionDeleterIS5_XadL_Z8SSL_freeEEEEEE
libnode.so:_ZN4node6crypto21VerifyPeerCertificateERKNSt3__110unique_ptrI6ssl_stNS_15FunctionDeleterIS3_XadL_Z8SSL_freeEEEEEEl
libnode.so:_ZN4node6crypto22GetCertificateAltNamesEP7x509_st
libnode.so:_ZN4node6crypto22GetValidationErrorCodeEPNS_11EnvironmentEi
libnode.so:_ZN4node6crypto22StatelessDiffieHellmanEPNS_11EnvironmentENS0_14ManagedEVPPKeyES3_
libnode.so:_ZN4node6crypto22StatelessDiffieHellmanERKN2v820FunctionCallbackInfoINS1_5ValueEEE
libnode.so:_ZN4node6crypto24GetClientHelloServerNameERKNSt3__110unique_ptrI6ssl_stNS_15FunctionDeleterIS3_XadL_Z8SSL_freeEEEEEE
libnode.so:_ZN4node6crypto24GetValidationErrorReasonEPNS_11EnvironmentEi
libnode.so:_ZN4node6crypto25ENGINE_finish_and_free_fnEP9engine_st
libnode.so:_ZN4node6crypto29SSL_CTX_use_certificate_chainEP10ssl_ctx_stONSt3__110unique_ptrI6bio_stNS_15FunctionDeleterIS5_XadL_Z12BIO_free_allEEEEEEPNS4_I7x509_stNS6_ISA_XadL_Z9X509_freeEEEEEESD_
libnode.so:_ZN4node6crypto29SSL_CTX_use_certificate_chainEP10ssl_ctx_stONSt3__110unique_ptrI7x509_stNS_15FunctionDeleterIS5_XadL_Z9X509_freeEEEEEEP13stack_st_X509PS8_SC_
libnode.so:_ZN4node6crypto4ECDH10InitializeEPNS_11EnvironmentEN2v85LocalINS4_6ObjectEEE
libnode.so:_ZN4node6crypto4ECDH12GenerateKeysERKN2v820FunctionCallbackInfoINS2_5ValueEEE
libnode.so:_ZN4node6crypto4ECDH12GetPublicKeyERKN2v820FunctionCallbackInfoINS2_5ValueEEE
libnode.so:_ZN4node6crypto4ECDH12SetPublicKeyERKN2v820FunctionCallbackInfoINS2_5ValueEEE
libnode.so:_ZN4node6crypto4ECDH13BufferToPointEPNS_11EnvironmentEPK11ec_group_stN2v85LocalINS7_5ValueEEE
libnode.so:_ZN4node6crypto4ECDH13ComputeSecretERKN2v820FunctionCallbackInfoINS2_5ValueEEE
libnode.so:_ZN4node6crypto4ECDH13GetPrivateKeyERKN2v820FunctionCallbackInfoINS2_5ValueEEE
libnode.so:_ZN4node6crypto4ECDH13SetPrivateKeyERKN2v820FunctionCallbackInfoINS2_5ValueEEE
libnode.so:_ZN4node6crypto4ECDH14IsKeyPairValidEv
libnode.so:_ZN4node6crypto4ECDH18IsKeyValidForCurveERKNSt3__110unique_ptrI9bignum_stNS_15FunctionDeleterIS4_XadL_Z7BN_freeEEEEEE
libnode.so:_ZN4node6crypto4ECDH3NewERKN2v820FunctionCallbackInfoINS2_5ValueEEE
libnode.so:_ZN4node6crypto4ECDHC1EPNS_11EnvironmentEN2v85LocalINS4_6ObjectEEEONSt3__110unique_ptrI9ec_key_stNS_15FunctionDeleterISA_XadL_Z11EC_KEY_freeEEEEEE
libnode.so:_ZN4node6crypto4ECDHC2EPNS_11EnvironmentEN2v85LocalINS4_6ObjectEEEONSt3__110unique_ptrI9ec_key_stNS_15FunctionDeleterISA_XadL_Z11EC_KEY_freeEEEEEE
libnode.so:_ZN4node6crypto4ECDHD0Ev
libnode.so:_ZN4node6crypto4ECDHD1Ev
libnode.so:_ZN4node6crypto4ECDHD2Ev
libnode.so:_ZN4node6crypto4Hash10HashDigestERKN2v820FunctionCallbackInfoINS2_5ValueEEE
libnode.so:_ZN4node6crypto4Hash10HashUpdateEPKci
libnode.so:_ZN4node6crypto4Hash10HashUpdateERKN2v820FunctionCallbackInfoINS2_5ValueEEE
libnode.so:_ZN4node6crypto4Hash10InitializeEPNS_11EnvironmentEN2v85LocalINS4_6ObjectEEE
libnode.so:_ZN4node6crypto4Hash3NewERKN2v820FunctionCallbackInfoINS2_5ValueEEE
libnode.so:_ZN4node6crypto4Hash8HashInitEPK9evp_md_stN2v85MaybeIjEE
libnode.so:_ZN4node6crypto4HashC1EPNS_11EnvironmentEN2v85LocalINS4_6ObjectEEE
libnode.so:_ZN4node6crypto4HashC2EPNS_11EnvironmentEN2v85LocalINS4_6ObjectEEE
libnode.so:_ZN4node6crypto4HashD0Ev
libnode.so:_ZN4node6crypto4HashD1Ev
libnode.so:_ZN4node6crypto4HashD2Ev
libnode.so:_ZN4node6crypto4Hmac10HmacDigestERKN2v820FunctionCallbackInfoINS2_5ValueEEE
libnode.so:_ZN4node6crypto4Hmac10HmacUpdateEPKci
libnode.so:_ZN4node6crypto4Hmac10HmacUpdateERKN2v820FunctionCallbackInfoINS2_5ValueEEE
libnode.so:_ZN4node6crypto4Hmac10InitializeEPNS_11EnvironmentEN2v85LocalINS4_6ObjectEEE
libnode.so:_ZN4node6crypto4Hmac3NewERKN2v820FunctionCallbackInfoINS2_5ValueEEE
libnode.so:_ZN4node6crypto4Hmac8HmacInitEPKcS3_i
libnode.so:_ZN4node6crypto4Hmac8HmacInitERKN2v820FunctionCallbackInfoINS2_5ValueEEE
libnode.so:_ZN4node6crypto4HmacC1EPNS_11EnvironmentEN2v85LocalINS4_6ObjectEEE
libnode.so:_ZN4node6crypto4HmacC2EPNS_11EnvironmentEN2v85LocalINS4_6ObjectEEE
libnode.so:_ZN4node6crypto4Sign10InitializeEPNS_11EnvironmentEN2v85LocalINS4_6ObjectEEE
libnode.so:_ZN4node6crypto4Sign10SignUpdateERKN2v820FunctionCallbackInfoINS2_5ValueEEE
libnode.so:_ZN4node6crypto4Sign3NewERKN2v820FunctionCallbackInfoINS2_5ValueEEE
libnode.so:_ZN4node6crypto4Sign8SignInitERKN2v820FunctionCallbackInfoINS2_5ValueEEE
libnode.so:_ZN4node6crypto4Sign9SignFinalERKN2v820FunctionCallbackInfoINS2_5ValueEEE
libnode.so:_ZN4node6crypto4Sign9SignFinalERKNS0_14ManagedEVPPKeyEiRKN2v85MaybeIiEENS0_9DSASigEncE
libnode.so:_ZN4node6crypto4SignC1EPNS_11EnvironmentEN2v85LocalINS4_6ObjectEEE
libnode.so:_ZN4node6crypto4SignC2EPNS_11EnvironmentEN2v85LocalINS4_6ObjectEEE
libnode.so:_ZN4node6crypto5error8DecorateEPNS_11EnvironmentEN2v85LocalINS4_6ObjectEEEm
libnode.so:_ZN4node6crypto6ScryptERKN2v820FunctionCallbackInfoINS1_5ValueEEE
libnode.so:_ZN4node6crypto6Verify10InitializeEPNS_11EnvironmentEN2v85LocalINS4_6ObjectEEE
libnode.so:_ZN4node6crypto6Verify10VerifyInitERKN2v820FunctionCallbackInfoINS2_5ValueEEE
libnode.so:_ZN4node6crypto6Verify11VerifyFinalERKN2v820FunctionCallbackInfoINS2_5ValueEEE
libnode.so:_ZN4node6crypto6Verify11VerifyFinalERKNS0_14ManagedEVPPKeyERKNS0_10ByteSourceEiRKN2v85MaybeIiEEPb
libnode.so:_ZN4node6crypto6Verify12VerifyUpdateERKN2v820FunctionCallbackInfoINS2_5ValueEEE
libnode.so:_ZN4node6crypto6Verify3NewERKN2v820FunctionCallbackInfoINS2_5ValueEEE
libnode.so:_ZN4node6crypto6VerifyC1EPNS_11EnvironmentEN2v85LocalINS4_6ObjectEEE
libnode.so:_ZN4node6crypto6VerifyC2EPNS_11EnvironmentEN2v85LocalINS4_6ObjectEEE
libnode.so:_ZN4node6crypto7GetCertEPNS_11EnvironmentERKNSt3__110unique_ptrI6ssl_stNS_15FunctionDeleterIS5_XadL_Z8SSL_freeEEEEEE
libnode.so:_ZN4node6crypto7NodeBIO12PeekMultipleEPPcPmS4_
libnode.so:_ZN4node6crypto7NodeBIO12PeekWritableEPm
libnode.so:_ZN4node6crypto7NodeBIO15TryMoveReadHeadEv
libnode.so:_ZN4node6crypto7NodeBIO19TryAllocateForWriteEm
libnode.so:_ZN4node6crypto7NodeBIO3NewEP6bio_st
libnode.so:_ZN4node6crypto7NodeBIO3NewEPNS_11EnvironmentE
libnode.so:_ZN4node6crypto7NodeBIO4CtrlEP6bio_stilPv
libnode.so:_ZN4node6crypto7NodeBIO4FreeEP6bio_st
libnode.so:_ZN4node6crypto7NodeBIO4GetsEP6bio_stPci
libnode.so:_ZN4node6crypto7NodeBIO4PeekEPm
libnode.so:_ZN4node6crypto7NodeBIO4PutsEP6bio_stPKc
libnode.so:_ZN4node6crypto7NodeBIO4ReadEP6bio_stPci
libnode.so:_ZN4node6crypto7NodeBIO4ReadEPcm
libnode.so:_ZN4node6crypto7NodeBIO5ResetEv
libnode.so:_ZN4node6crypto7NodeBIO5WriteEP6bio_stPKci
libnode.so:_ZN4node6crypto7NodeBIO5WriteEPKcm
libnode.so:_ZN4node6crypto7NodeBIO6CommitEm
libnode.so:_ZN4node6crypto7NodeBIO7FromBIOEP6bio_st
libnode.so:_ZN4node6crypto7NodeBIO7IndexOfEcm
libnode.so:_ZN4node6crypto7NodeBIO8NewFixedEPKcmPNS_11EnvironmentE
libnode.so:_ZN4node6crypto7NodeBIO9FreeEmptyEv
libnode.so:_ZN4node6crypto7NodeBIO9GetMethodEv
libnode.so:_ZN4node6crypto7NodeBIOD0Ev
libnode.so:_ZN4node6crypto7NodeBIOD1Ev
libnode.so:_ZN4node6crypto7NodeBIOD2Ev
libnode.so:_ZN4node6crypto7SetALPNERKNSt3__110unique_ptrI6ssl_stNS_15FunctionDeleterIS3_XadL_Z8SSL_freeEEEEEEN2v85LocalINS9_5ValueEEE
libnode.so:_ZN4node6crypto7SetALPNERKNSt3__110unique_ptrI6ssl_stNS_15FunctionDeleterIS3_XadL_Z8SSL_freeEEEEEERKNS1_12basic_stringIcNS1_11char_traitsIcEENS1_9allocatorIcEEEE
libnode.so:_ZN4node6crypto8SignBase10CheckThrowENS1_5ErrorE
libnode.so:_ZN4node6crypto8SignBase4InitEPKc
libnode.so:_ZN4node6crypto8SignBase6UpdateEPKci
libnode.so:_ZN4node6crypto8SignBaseC1EPNS_11EnvironmentEN2v85LocalINS4_6ObjectEEE
libnode.so:_ZN4node6crypto8SignBaseC2EPNS_11EnvironmentEN2v85LocalINS4_6ObjectEEE
libnode.so:_ZN4node6crypto9GetCurvesERKN2v820FunctionCallbackInfoINS1_5ValueEEE
libnode.so:_ZN4node6crypto9GetHashesERKN2v820FunctionCallbackInfoINS1_5ValueEEE
libnode.so:_ZN4node6crypto9KeyObject10InitPublicERKNS0_14ManagedEVPPKeyE
libnode.so:_ZN4node6crypto9KeyObject10InitSecretEN2v85LocalINS2_15ArrayBufferViewEEE
libnode.so:_ZN4node6crypto9KeyObject10InitializeEPNS_11EnvironmentEN2v85LocalINS4_6ObjectEEE
libnode.so:_ZN4node6crypto9KeyObject11InitPrivateERKNS0_14ManagedEVPPKeyE
libnode.so:_ZN4node6crypto9KeyObject19GetSymmetricKeySizeERKN2v820FunctionCallbackInfoINS2_5ValueEEE
libnode.so:_ZN4node6crypto9KeyObject20GetAsymmetricKeyTypeERKN2v820FunctionCallbackInfoINS2_5ValueEEE
libnode.so:_ZN4node6crypto9KeyObject3NewERKN2v820FunctionCallbackInfoINS2_5ValueEEE
libnode.so:_ZN4node6crypto9KeyObject4InitERKN2v820FunctionCallbackInfoINS2_5ValueEEE
libnode.so:_ZN4node6crypto9KeyObject6CreateEPNS_11EnvironmentENS0_7KeyTypeERKNS0_14ManagedEVPPKeyE
libnode.so:_ZN4node6crypto9KeyObject6ExportERKN2v820FunctionCallbackInfoINS2_5ValueEEE
libnode.so:_ZN4node6crypto9KeyObjectC1EPNS_11EnvironmentEN2v85LocalINS4_6ObjectEEENS0_7KeyTypeE
libnode.so:_ZN4node6crypto9KeyObjectC2EPNS_11EnvironmentEN2v85LocalINS4_6ObjectEEENS0_7KeyTypeE
libnode.so:_ZN4node6crypto9LogSecretERKNSt3__110unique_ptrI6ssl_stNS_15FunctionDeleterIS3_XadL_Z8SSL_freeEEEEEEPKcPKhm
libnode.so:_ZN4node6crypto9SetEngineERKN2v820FunctionCallbackInfoINS1_5ValueEEE
libnode.so:_ZN4node6crypto9SetGroupsEPNS0_13SecureContextEPKc
libnode.so:_ZN4node6domain10InitializeEN2v85LocalINS1_6ObjectEEENS2_INS1_5ValueEEENS2_INS1_7ContextEEEPv
libnode.so:_ZN4node6domain6EnableERKN2v820FunctionCallbackInfoINS1_5ValueEEE
libnode.so:_ZN4node6errors10InitializeEN2v85LocalINS1_6ObjectEEENS2_INS1_5ValueEEENS2_INS1_7ContextEEEPv
libnode.so:_ZN4node6errors12errno_stringEi
libnode.so:_ZN4node6errors13TryCatchScopeD1Ev
libnode.so:_ZN4node6errors13TryCatchScopeD2Ev
libnode.so:_ZN4node6errors18DecorateErrorStackEPNS_11EnvironmentERKNS0_13TryCatchScopeE
libnode.so:_ZN4node6errors24TriggerUncaughtExceptionEPN2v87IsolateENS1_5LocalINS1_5ValueEEENS4_INS1_7MessageEEEb
libnode.so:_ZN4node6errors24TriggerUncaughtExceptionEPN2v87IsolateERKNS1_8TryCatchE
libnode.so:_ZN4node6errors25PerIsolateMessageListenerEN2v85LocalINS1_7MessageEEENS2_INS1_5ValueEEE
libnode.so:_ZN4node6errors28SetPrepareStackTraceCallbackERKN2v820FunctionCallbackInfoINS1_5ValueEEE
libnode.so:_ZN4node6fs_dir10AfterCloseEP7uv_fs_s
libnode.so:_ZN4node6fs_dir10InitializeEN2v85LocalINS1_6ObjectEEENS2_INS1_5ValueEEENS2_INS1_7ContextEEEPv
libnode.so:_ZN4node6fs_dir12AfterOpenDirEP7uv_fs_s
libnode.so:_ZN4node6fs_dir9DirHandle3NewEPNS_11EnvironmentEP8uv_dir_s
libnode.so:_ZN4node6fs_dir9DirHandle3NewERKN2v820FunctionCallbackInfoINS2_5ValueEEE
libnode.so:_ZN4node6fs_dir9DirHandle4ReadERKN2v820FunctionCallbackInfoINS2_5ValueEEE
libnode.so:_ZN4node6fs_dir9DirHandle5CloseERKN2v820FunctionCallbackInfoINS2_5ValueEEE
libnode.so:_ZN4node6fs_dir9DirHandleC1EPNS_11EnvironmentEN2v85LocalINS4_6ObjectEEEP8uv_dir_s
libnode.so:_ZN4node6fs_dir9DirHandleC2EPNS_11EnvironmentEN2v85LocalINS4_6ObjectEEEP8uv_dir_s
libnode.so:_ZN4node6fs_dir9DirHandleD0Ev
libnode.so:_ZN4node6fs_dir9DirHandleD1Ev
libnode.so:_ZN4node6fs_dir9DirHandleD2Ev
libnode.so:_ZN4node6loader10ModuleWrap10InitializeEN2v85LocalINS2_6ObjectEEENS3_INS2_5ValueEEENS3_INS2_7ContextEEEPv
libnode.so:_ZN4node6loader10ModuleWrap11InstantiateERKN2v820FunctionCallbackInfoINS2_5ValueEEE
libnode.so:_ZN4node6loader10ModuleWrap12GetNamespaceERKN2v820FunctionCallbackInfoINS2_5ValueEEE
libnode.so:_ZN4node6loader10ModuleWrap13GetFromModuleEPNS_11EnvironmentEN2v85LocalINS4_6ModuleEEE
libnode.so:_ZN4node6loader10ModuleWrap15ResolveCallbackEN2v85LocalINS2_7ContextEEENS3_INS2_6StringEEENS3_INS2_6ModuleEEE
libnode.so:_ZN4node6loader10ModuleWrap16CreateCachedDataERKN2v820FunctionCallbackInfoINS2_5ValueEEE
libnode.so:_ZN4node6loader10ModuleWrap18SetSyntheticExportERKN2v820FunctionCallbackInfoINS2_5ValueEEE
libnode.so:_ZN4node6loader10ModuleWrap29GetStaticDependencySpecifiersERKN2v820FunctionCallbackInfoINS2_5ValueEEE
libnode.so:_ZN4node6loader10ModuleWrap34SetImportModuleDynamicallyCallbackERKN2v820FunctionCallbackInfoINS2_5ValueEEE
libnode.so:_ZN4node6loader10ModuleWrap37SetInitializeImportMetaObjectCallbackERKN2v820FunctionCallbackInfoINS2_5ValueEEE
libnode.so:_ZN4node6loader10ModuleWrap38HostInitializeImportMetaObjectCallbackEN2v85LocalINS2_7ContextEEENS3_INS2_6ModuleEEENS3_INS2_6ObjectEEE
libnode.so:_ZN4node6loader10ModuleWrap38SyntheticModuleEvaluationStepsCallbackEN2v85LocalINS2_7ContextEEENS3_INS2_6ModuleEEE
libnode.so:_ZN4node6loader10ModuleWrap3NewERKN2v820FunctionCallbackInfoINS2_5ValueEEE
libnode.so:_ZN4node6loader10ModuleWrap4LinkERKN2v820FunctionCallbackInfoINS2_5ValueEEE
libnode.so:_ZN4node6loader10ModuleWrap8EvaluateERKN2v820FunctionCallbackInfoINS2_5ValueEEE
libnode.so:_ZN4node6loader10ModuleWrap8GetErrorERKN2v820FunctionCallbackInfoINS2_5ValueEEE
libnode.so:_ZN4node6loader10ModuleWrap9GetFromIDEPNS_11EnvironmentEj
libnode.so:_ZN4node6loader10ModuleWrap9GetStatusERKN2v820FunctionCallbackInfoINS2_5ValueEEE
libnode.so:_ZN4node6loader10ModuleWrapC1EPNS_11EnvironmentEN2v85LocalINS4_6ObjectEEENS5_INS4_6ModuleEEENS5_INS4_6StringEEE
libnode.so:_ZN4node6loader10ModuleWrapC2EPNS_11EnvironmentEN2v85LocalINS4_6ObjectEEENS5_INS4_6ModuleEEENS5_INS4_6StringEEE
libnode.so:_ZN4node6loader10ModuleWrapD0Ev
libnode.so:_ZN4node6loader10ModuleWrapD1Ev
libnode.so:_ZN4node6loader10ModuleWrapD2Ev
libnode.so:_ZN4node6worker11MessagePort11PostMessageEPNS_11EnvironmentEN2v85LocalINS4_5ValueEEERKNS_16MaybeStackBufferIS7_Lm8EEE
libnode.so:_ZN4node6worker11MessagePort11PostMessageERKN2v820FunctionCallbackInfoINS2_5ValueEEE
libnode.so:_ZN4node6worker11MessagePort12TriggerAsyncEv
libnode.so:_ZN4node6worker11MessagePort13MoveToContextERKN2v820FunctionCallbackInfoINS2_5ValueEEE
libnode.so:_ZN4node6worker11MessagePort14ReceiveMessageEN2v85LocalINS2_7ContextEEEb
libnode.so:_ZN4node6worker11MessagePort14ReceiveMessageERKN2v820FunctionCallbackInfoINS2_5ValueEEE
libnode.so:_ZN4node6worker11MessagePort3NewEPNS_11EnvironmentEN2v85LocalINS4_7ContextEEENSt3__110unique_ptrINS0_15MessagePortDataENS8_14default_deleteISA_EEEE
libnode.so:_ZN4node6worker11MessagePort3NewERKN2v820FunctionCallbackInfoINS2_5ValueEEE
libnode.so:_ZN4node6worker11MessagePort4StopERKN2v820FunctionCallbackInfoINS2_5ValueEEE
libnode.so:_ZN4node6worker11MessagePort4StopEv
libnode.so:_ZN4node6worker11MessagePort5CloseEN2v85LocalINS2_5ValueEEE
libnode.so:_ZN4node6worker11MessagePort5DrainERKN2v820FunctionCallbackInfoINS2_5ValueEEE
libnode.so:_ZN4node6worker11MessagePort5StartERKN2v820FunctionCallbackInfoINS2_5ValueEEE
libnode.so:_ZN4node6worker11MessagePort5StartEv
libnode.so:_ZN4node6worker11MessagePort6DetachEv
libnode.so:_ZN4node6worker11MessagePort7OnCloseEv
libnode.so:_ZN4node6worker11MessagePort8EntangleEPS1_PNS0_15MessagePortDataE
libnode.so:_ZN4node6worker11MessagePort8EntangleEPS1_S2_
libnode.so:_ZN4node6worker11MessagePort9OnMessageEv
libnode.so:_ZN4node6worker11MessagePortC1EPNS_11EnvironmentEN2v85LocalINS4_7ContextEEENS5_INS4_6ObjectEEE
libnode.so:_ZN4node6worker11MessagePortC2EPNS_11EnvironmentEN2v85LocalINS4_7ContextEEENS5_INS4_6ObjectEEE
libnode.so:_ZN4node6worker11MessagePortD0Ev
libnode.so:_ZN4node6worker11MessagePortD1Ev
libnode.so:_ZN4node6worker11MessagePortD2Ev
libnode.so:_ZN4node6worker15MessagePortData11DisentangleEv
libnode.so:_ZN4node6worker15MessagePortData18AddToIncomingQueueEONS0_7MessageE
libnode.so:_ZN4node6worker15MessagePortData8EntangleEPS1_S2_
libnode.so:_ZN4node6worker15MessagePortDataC1EPNS0_11MessagePortE
libnode.so:_ZN4node6worker15MessagePortDataC2EPNS0_11MessagePortE
libnode.so:_ZN4node6worker15MessagePortDataD0Ev
libnode.so:_ZN4node6worker15MessagePortDataD1Ev
libnode.so:_ZN4node6worker15MessagePortDataD2Ev
libnode.so:_ZN4node6worker33GetMessagePortConstructorTemplateEPNS_11EnvironmentE
libnode.so:_ZN4node6worker6Worker10JoinThreadEv
libnode.so:_ZN4node6worker6Worker10StopThreadERKN2v820FunctionCallbackInfoINS2_5ValueEEE
libnode.so:_ZN4node6worker6Worker11StartThreadERKN2v820FunctionCallbackInfoINS2_5ValueEEE
libnode.so:_ZN4node6worker6Worker13NearHeapLimitEPvmm
libnode.so:_ZN4node6worker6Worker16TakeHeapSnapshotERKN2v820FunctionCallbackInfoINS2_5ValueEEE
libnode.so:_ZN4node6worker6Worker17GetResourceLimitsERKN2v820FunctionCallbackInfoINS2_5ValueEEE
libnode.so:_ZN4node6worker6Worker20CreateEnvMessagePortEPNS_11EnvironmentE
libnode.so:_ZN4node6worker6Worker25UpdateResourceConstraintsEPN2v819ResourceConstraintsE
libnode.so:_ZN4node6worker6Worker3NewERKN2v820FunctionCallbackInfoINS2_5ValueEEE
libnode.so:_ZN4node6worker6Worker3RefERKN2v820FunctionCallbackInfoINS2_5ValueEEE
libnode.so:_ZN4node6worker6Worker3RunEv
libnode.so:_ZN4node6worker6Worker4ExitEi
libnode.so:_ZN4node6worker6Worker5UnrefERKN2v820FunctionCallbackInfoINS2_5ValueEEE
libnode.so:_ZN4node6worker6WorkerC1EPNS_11EnvironmentEN2v85LocalINS4_6ObjectEEERKNSt3__112basic_stringIcNS8_11char_traitsIcEENS8_9allocatorIcEEEENS8_10shared_ptrINS_17PerIsolateOptionsEEEONS8_6vectorISE_NSC_ISE_EEEENSH_INS_7KVStoreEEE
libnode.so:_ZN4node6worker6WorkerC2EPNS_11EnvironmentEN2v85LocalINS4_6ObjectEEERKNSt3__112basic_stringIcNS8_11char_traitsIcEENS8_9allocatorIcEEEENS8_10shared_ptrINS_17PerIsolateOptionsEEEONS8_6vectorISE_NSC_ISE_EEEENSH_INS_7KVStoreEEE
libnode.so:_ZN4node6worker6WorkerD0Ev
libnode.so:_ZN4node6worker6WorkerD1Ev
libnode.so:_ZN4node6worker6WorkerD2Ev
libnode.so:_ZN4node6worker7Message11DeserializeEPNS_11EnvironmentEN2v85LocalINS4_7ContextEEE
libnode.so:_ZN4node6worker7Message13AddWASMModuleEON2v818CompiledWasmModuleE
libnode.so:_ZN4node6worker7Message14AddMessagePortEONSt3__110unique_ptrINS0_15MessagePortDataENS2_14default_deleteIS4_EEEE
libnode.so:_ZN4node6worker7Message20AddSharedArrayBufferENSt3__110shared_ptrIN2v812BackingStoreEEE
libnode.so:_ZN4node6worker7Message9SerializeEPNS_11EnvironmentEN2v85LocalINS4_7ContextEEENS5_INS4_5ValueEEERKNS_16MaybeStackBufferIS9_Lm8EEENS5_INS4_6ObjectEEE
libnode.so:_ZN4node6worker7MessageC1EONS_14MallocedBufferIcEE
libnode.so:_ZN4node6worker7MessageC2EONS_14MallocedBufferIcEE
libnode.so:_ZN4node7KVStore16AssignFromObjectEN2v85LocalINS1_7ContextEEENS2_INS1_6ObjectEEE
libnode.so:_ZN4node7KVStore16CreateMapKVStoreEv
libnode.so:_ZN4node7TCPWrap10InitializeEN2v85LocalINS1_6ObjectEEENS2_INS1_5ValueEEENS2_INS1_7ContextEEEPv
libnode.so:_ZN4node7TCPWrap10SetNoDelayERKN2v820FunctionCallbackInfoINS1_5ValueEEE
libnode.so:_ZN4node7TCPWrap11InstantiateEPNS_11EnvironmentEPNS_9AsyncWrapENS0_10SocketTypeE
libnode.so:_ZN4node7TCPWrap12SetKeepAliveERKN2v820FunctionCallbackInfoINS1_5ValueEEE
libnode.so:_ZN4node7TCPWrap3NewERKN2v820FunctionCallbackInfoINS1_5ValueEEE
libnode.so:_ZN4node7TCPWrap4BindERKN2v820FunctionCallbackInfoINS1_5ValueEEE
libnode.so:_ZN4node7TCPWrap4OpenERKN2v820FunctionCallbackInfoINS1_5ValueEEE
libnode.so:_ZN4node7TCPWrap5Bind6ERKN2v820FunctionCallbackInfoINS1_5ValueEEE
libnode.so:_ZN4node7TCPWrap6ListenERKN2v820FunctionCallbackInfoINS1_5ValueEEE
libnode.so:_ZN4node7TCPWrap7ConnectERKN2v820FunctionCallbackInfoINS1_5ValueEEE
libnode.so:_ZN4node7TCPWrap8Connect6ERKN2v820FunctionCallbackInfoINS1_5ValueEEE
libnode.so:_ZN4node7TCPWrapC1EPNS_11EnvironmentEN2v85LocalINS3_6ObjectEEENS_9AsyncWrap12ProviderTypeE
libnode.so:_ZN4node7TCPWrapC2EPNS_11EnvironmentEN2v85LocalINS3_6ObjectEEENS_9AsyncWrap12ProviderTypeE
libnode.so:_ZN4node7TLSWrap10ClearErrorEv
libnode.so:_ZN4node7TLSWrap10DestroySSLERKN2v820FunctionCallbackInfoINS1_5ValueEEE
libnode.so:_ZN4node7TLSWrap10DoShutdownEPNS_12ShutdownWrapE
libnode.so:_ZN4node7TLSWrap10InitializeEN2v85LocalINS1_6ObjectEEENS2_INS1_5ValueEEENS2_INS1_7ContextEEEPv
libnode.so:_ZN4node7TLSWrap11EnableTraceERKN2v820FunctionCallbackInfoINS1_5ValueEEE
libnode.so:_ZN4node7TLSWrap11GetSSLErrorEiPiPNSt3__112basic_stringIcNS2_11char_traitsIcEENS2_9allocatorIcEEEE
libnode.so:_ZN4node7TLSWrap12EnableCertCbERKN2v820FunctionCallbackInfoINS1_5ValueEEE
libnode.so:_ZN4node7TLSWrap12GetAsyncWrapEv
libnode.so:_ZN4node7TLSWrap12InvokeQueuedEiPKc
libnode.so:_ZN4node7TLSWrap12OnStreamReadElRK8uv_buf_t
libnode.so:_ZN4node7TLSWrap13GetServernameERKN2v820FunctionCallbackInfoINS1_5ValueEEE
libnode.so:_ZN4node7TLSWrap13OnStreamAllocEm
libnode.so:_ZN4node7TLSWrap13SetServernameERKN2v820FunctionCallbackInfoINS1_5ValueEEE
libnode.so:_ZN4node7TLSWrap13SetVerifyModeERKN2v820FunctionCallbackInfoINS1_5ValueEEE
libnode.so:_ZN4node7TLSWrap15SSLInfoCallbackEPK6ssl_stii
libnode.so:_ZN4node7TLSWrap16NewSessionDoneCbEv
libnode.so:_ZN4node7TLSWrap17EnablePskCallbackERKN2v820FunctionCallbackInfoINS1_5ValueEEE
libnode.so:_ZN4node7TLSWrap17GetWriteQueueSizeERKN2v820FunctionCallbackInfoINS1_5ValueEEE
libnode.so:_ZN4node7TLSWrap17PskClientCallbackEP6ssl_stPKcPcjPhj
libnode.so:_ZN4node7TLSWrap17PskServerCallbackEP6ssl_stPKcPhj
libnode.so:_ZN4node7TLSWrap18CreateShutdownWrapEN2v85LocalINS1_6ObjectEEE
libnode.so:_ZN4node7TLSWrap18OnStreamAfterWriteEPNS_9WriteWrapEi
libnode.so:_ZN4node7TLSWrap18SetPskIdentityHintERKN2v820FunctionCallbackInfoINS1_5ValueEEE
libnode.so:_ZN4node7TLSWrap20EnableKeylogCallbackERKN2v820FunctionCallbackInfoINS1_5ValueEEE
libnode.so:_ZN4node7TLSWrap21OnClientHelloParseEndEPv
libnode.so:_ZN4node7TLSWrap22EnableSessionCallbacksERKN2v820FunctionCallbackInfoINS1_5ValueEEE
libnode.so:_ZN4node7TLSWrap24SelectSNIContextCallbackEP6ssl_stPiPv
libnode.so:_ZN4node7TLSWrap4WrapERKN2v820FunctionCallbackInfoINS1_5ValueEEE
libnode.so:_ZN4node7TLSWrap5GetFDEv
libnode.so:_ZN4node7TLSWrap5StartERKN2v820FunctionCallbackInfoINS1_5ValueEEE
libnode.so:_ZN4node7TLSWrap6EncOutEv
libnode.so:_ZN4node7TLSWrap7ClearInEv
libnode.so:_ZN4node7TLSWrap7DoWriteEPNS_9WriteWrapEP8uv_buf_tmP11uv_stream_s
libnode.so:_ZN4node7TLSWrap7InitSSLEv
libnode.so:_ZN4node7TLSWrap7IsAliveEv
libnode.so:_ZN4node7TLSWrap7ReceiveERKN2v820FunctionCallbackInfoINS1_5ValueEEE
libnode.so:_ZN4node7TLSWrap8ClearOutEv
libnode.so:_ZN4node7TLSWrap8ReadStopEv
libnode.so:_ZN4node7TLSWrap9IsClosingEv
libnode.so:_ZN4node7TLSWrap9IsIPCPipeEv
libnode.so:_ZN4node7TLSWrap9ReadStartEv
libnode.so:_ZN4node7TLSWrapC1EPNS_11EnvironmentEN2v85LocalINS3_6ObjectEEENS_6crypto7SSLWrapIS0_E4KindEPNS_10StreamBaseEPNS7_13SecureContextE
libnode.so:_ZN4node7TLSWrapC2EPNS_11EnvironmentEN2v85LocalINS3_6ObjectEEENS_6crypto7SSLWrapIS0_E4KindEPNS_10StreamBaseEPNS7_13SecureContextE
libnode.so:_ZN4node7TLSWrapD0Ev
libnode.so:_ZN4node7TLSWrapD1Ev
libnode.so:_ZN4node7TLSWrapD2Ev
libnode.so:_ZN4node7TTYWrap10InitializeEN2v85LocalINS1_6ObjectEEENS2_INS1_5ValueEEENS2_INS1_7ContextEEEPv
libnode.so:_ZN4node7TTYWrap10SetRawModeERKN2v820FunctionCallbackInfoINS1_5ValueEEE
libnode.so:_ZN4node7TTYWrap13GetWindowSizeERKN2v820FunctionCallbackInfoINS1_5ValueEEE
libnode.so:_ZN4node7TTYWrap3NewERKN2v820FunctionCallbackInfoINS1_5ValueEEE
libnode.so:_ZN4node7TTYWrap5IsTTYERKN2v820FunctionCallbackInfoINS1_5ValueEEE
libnode.so:_ZN4node7TTYWrapC1EPNS_11EnvironmentEN2v85LocalINS3_6ObjectEEEibPi
libnode.so:_ZN4node7TTYWrapC2EPNS_11EnvironmentEN2v85LocalINS3_6ObjectEEEibPi
libnode.so:_ZN4node7UDPWrap10BufferSizeERKN2v820FunctionCallbackInfoINS1_5ValueEEE
libnode.so:_ZN4node7UDPWrap10DisconnectERKN2v820FunctionCallbackInfoINS1_5ValueEEE
libnode.so:_ZN4node7UDPWrap10InitializeEN2v85LocalINS1_6ObjectEEENS2_INS1_5ValueEEENS2_INS1_7ContextEEEPv
libnode.so:_ZN4node7UDPWrap10OnSendDoneEPNS_7ReqWrapI13uv_udp_send_sEEi
libnode.so:_ZN4node7UDPWrap11GetPeerNameEv
libnode.so:_ZN4node7UDPWrap11GetSockNameEv
libnode.so:_ZN4node7UDPWrap11InstantiateEPNS_11EnvironmentEPNS_9AsyncWrapENS0_10SocketTypeE
libnode.so:_ZN4node7UDPWrap12GetAsyncWrapEv
libnode.so:_ZN4node7UDPWrap12SetBroadcastERKN2v820FunctionCallbackInfoINS1_5ValueEEE
libnode.so:_ZN4node7UDPWrap13AddMembershipERKN2v820FunctionCallbackInfoINS1_5ValueEEE
libnode.so:_ZN4node7UDPWrap13SetMembershipERKN2v820FunctionCallbackInfoINS1_5ValueEEE13uv_membership
libnode.so:_ZN4node7UDPWrap14CreateSendWrapEm
libnode.so:_ZN4node7UDPWrap14DropMembershipERKN2v820FunctionCallbackInfoINS1_5ValueEEE
libnode.so:_ZN4node7UDPWrap15SetMulticastTTLERKN2v820FunctionCallbackInfoINS1_5ValueEEE
libnode.so:_ZN4node7UDPWrap19SetSourceMembershipERKN2v820FunctionCallbackInfoINS1_5ValueEEE13uv_membership
libnode.so:_ZN4node7UDPWrap20SetMulticastLoopbackERKN2v820FunctionCallbackInfoINS1_5ValueEEE
libnode.so:_ZN4node7UDPWrap21SetMulticastInterfaceERKN2v820FunctionCallbackInfoINS1_5ValueEEE
libnode.so:_ZN4node7UDPWrap27AddSourceSpecificMembershipERKN2v820FunctionCallbackInfoINS1_5ValueEEE
libnode.so:_ZN4node7UDPWrap28DropSourceSpecificMembershipERKN2v820FunctionCallbackInfoINS1_5ValueEEE
libnode.so:_ZN4node7UDPWrap3NewERKN2v820FunctionCallbackInfoINS1_5ValueEEE
libnode.so:_ZN4node7UDPWrap4BindERKN2v820FunctionCallbackInfoINS1_5ValueEEE
libnode.so:_ZN4node7UDPWrap4OpenERKN2v820FunctionCallbackInfoINS1_5ValueEEE
libnode.so:_ZN4node7UDPWrap4SendEP8uv_buf_tmPK8sockaddr
libnode.so:_ZN4node7UDPWrap4SendERKN2v820FunctionCallbackInfoINS1_5ValueEEE
libnode.so:_ZN4node7UDPWrap5Bind6ERKN2v820FunctionCallbackInfoINS1_5ValueEEE
libnode.so:_ZN4node7UDPWrap5GetFDERKN2v820FunctionCallbackInfoINS1_5ValueEEE
libnode.so:_ZN4node7UDPWrap5Send6ERKN2v820FunctionCallbackInfoINS1_5ValueEEE
libnode.so:_ZN4node7UDPWrap6DoBindERKN2v820FunctionCallbackInfoINS1_5ValueEEEi
libnode.so:_ZN4node7UDPWrap6DoSendERKN2v820FunctionCallbackInfoINS1_5ValueEEEi
libnode.so:_ZN4node7UDPWrap6OnRecvEP8uv_udp_slPK8uv_buf_tPK8sockaddrj
libnode.so:_ZN4node7UDPWrap6OnRecvElRK8uv_buf_tPK8sockaddrj
libnode.so:_ZN4node7UDPWrap6SetTTLERKN2v820FunctionCallbackInfoINS1_5ValueEEE
libnode.so:_ZN4node7UDPWrap7ConnectERKN2v820FunctionCallbackInfoINS1_5ValueEEE
libnode.so:_ZN4node7UDPWrap7OnAllocEP11uv_handle_smP8uv_buf_t
libnode.so:_ZN4node7UDPWrap7OnAllocEm
libnode.so:_ZN4node7UDPWrap8Connect6ERKN2v820FunctionCallbackInfoINS1_5ValueEEE
libnode.so:_ZN4node7UDPWrap8RecvStopEv
libnode.so:_ZN4node7UDPWrap9DoConnectERKN2v820FunctionCallbackInfoINS1_5ValueEEEi
libnode.so:_ZN4node7UDPWrap9RecvStartEv
libnode.so:_ZN4node7UDPWrapC1EPNS_11EnvironmentEN2v85LocalINS3_6ObjectEEE
libnode.so:_ZN4node7UDPWrapC2EPNS_11EnvironmentEN2v85LocalINS3_6ObjectEEE
libnode.so:_ZN4node7binding16GetLinkedBindingERKN2v820FunctionCallbackInfoINS1_5ValueEEE
libnode.so:_ZN4node7binding18GetInternalBindingERKN2v820FunctionCallbackInfoINS1_5ValueEEE
libnode.so:_ZN4node7binding22RegisterBuiltinModulesEv
libnode.so:_ZN4node7binding4DLib16GetSymbolAddressEPKc
libnode.so:_ZN4node7binding4DLib21SaveInGlobalHandleMapEPNS_11node_moduleE
libnode.so:_ZN4node7binding4DLib33GetSavedModuleFromGlobalHandleMapEv
libnode.so:_ZN4node7binding4DLib4OpenEv
libnode.so:_ZN4node7binding4DLib5CloseEv
libnode.so:_ZN4node7binding4DLibC1EPKci
libnode.so:_ZN4node7binding4DLibC2EPKci
libnode.so:_ZN4node7binding6DLOpenERKN2v820FunctionCallbackInfoINS1_5ValueEEE
libnode.so:_ZN4node8EmitExitEPNS_11EnvironmentE
libnode.so:_ZN4node8JSStream10DoShutdownEPNS_12ShutdownWrapE
libnode.so:_ZN4node8JSStream10InitializeEN2v85LocalINS1_6ObjectEEENS2_INS1_5ValueEEENS2_INS1_7ContextEEEPv
libnode.so:_ZN4node8JSStream10ReadBufferERKN2v820FunctionCallbackInfoINS1_5ValueEEE
libnode.so:_ZN4node8JSStream12GetAsyncWrapEv
libnode.so:_ZN4node8JSStream3NewERKN2v820FunctionCallbackInfoINS1_5ValueEEE
libnode.so:_ZN4node8JSStream7DoWriteEPNS_9WriteWrapEP8uv_buf_tmP11uv_stream_s
libnode.so:_ZN4node8JSStream7EmitEOFERKN2v820FunctionCallbackInfoINS1_5ValueEEE
libnode.so:_ZN4node8JSStream7IsAliveEv
libnode.so:_ZN4node8JSStream8ReadStopEv
libnode.so:_ZN4node8JSStream9IsClosingEv
libnode.so:_ZN4node8JSStream9ReadStartEv
libnode.so:_ZN4node8JSStreamC1EPNS_11EnvironmentEN2v85LocalINS3_6ObjectEEE
libnode.so:_ZN4node8JSStreamC2EPNS_11EnvironmentEN2v85LocalINS3_6ObjectEEE
libnode.so:_ZN4node8Metadata7ReleaseC1Ev
libnode.so:_ZN4node8Metadata7ReleaseC2Ev
libnode.so:_ZN4node8Metadata8Versions22InitializeIntlVersionsEv
libnode.so:_ZN4node8Metadata8VersionsC1Ev
libnode.so:_ZN4node8Metadata8VersionsC2Ev
libnode.so:_ZN4node8MetadataC1Ev
libnode.so:_ZN4node8MetadataC2Ev
libnode.so:_ZN4node8PipeWrap10InitializeEN2v85LocalINS1_6ObjectEEENS2_INS1_5ValueEEENS2_INS1_7ContextEEEPv
libnode.so:_ZN4node8PipeWrap11InstantiateEPNS_11EnvironmentEPNS_9AsyncWrapENS0_10SocketTypeE
libnode.so:_ZN4node8PipeWrap3NewERKN2v820FunctionCallbackInfoINS1_5ValueEEE
libnode.so:_ZN4node8PipeWrap4BindERKN2v820FunctionCallbackInfoINS1_5ValueEEE
libnode.so:_ZN4node8PipeWrap4OpenERKN2v820FunctionCallbackInfoINS1_5ValueEEE
libnode.so:_ZN4node8PipeWrap6FchmodERKN2v820FunctionCallbackInfoINS1_5ValueEEE
libnode.so:_ZN4node8PipeWrap6ListenERKN2v820FunctionCallbackInfoINS1_5ValueEEE
libnode.so:_ZN4node8PipeWrap7ConnectERKN2v820FunctionCallbackInfoINS1_5ValueEEE
libnode.so:_ZN4node8PipeWrapC1EPNS_11EnvironmentEN2v85LocalINS3_6ObjectEEENS_9AsyncWrap12ProviderTypeEb
libnode.so:_ZN4node8PipeWrapC2EPNS_11EnvironmentEN2v85LocalINS3_6ObjectEEENS_9AsyncWrap12ProviderTypeEb
libnode.so:_ZN4node8RawDebugERKN2v820FunctionCallbackInfoINS0_5ValueEEE
libnode.so:_ZN4node8ReindentERKNSt3__112basic_stringIcNS0_11char_traitsIcEENS0_9allocatorIcEEEEi
libnode.so:_ZN4node8SendWrapC1EPNS_11EnvironmentEN2v85LocalINS3_6ObjectEEEb
libnode.so:_ZN4node8SendWrapC2EPNS_11EnvironmentEN2v85LocalINS3_6ObjectEEEb
libnode.so:_ZN4node8Watchdog3RunEPv
libnode.so:_ZN4node8Watchdog5TimerEP10uv_timer_s
libnode.so:_ZN4node8WatchdogC1EPN2v87IsolateEmPb
libnode.so:_ZN4node8WatchdogC2EPN2v87IsolateEmPb
libnode.so:_ZN4node8WatchdogD1Ev
libnode.so:_ZN4node8WatchdogD2Ev
libnode.so:_ZN4node9AsyncWrap10AsyncResetEN2v85LocalINS1_6ObjectEEEdb
libnode.so:_ZN4node9AsyncWrap10AsyncResetERKN2v820FunctionCallbackInfoINS1_5ValueEEE
libnode.so:_ZN4node9AsyncWrap10EmitBeforeEPNS_11EnvironmentEd
libnode.so:_ZN4node9AsyncWrap10GetAsyncIdERKN2v820FunctionCallbackInfoINS1_5ValueEEE
libnode.so:_ZN4node9AsyncWrap10InitializeEN2v85LocalINS1_6ObjectEEENS2_INS1_5ValueEEENS2_INS1_7ContextEEEPv
libnode.so:_ZN4node9AsyncWrap11EmitDestroyEPNS_11EnvironmentEd
libnode.so:_ZN4node9AsyncWrap11EmitDestroyEv
libnode.so:_ZN4node9AsyncWrap11GetResourceEv
libnode.so:_ZN4node9AsyncWrap12MakeCallbackEN2v85LocalINS1_8FunctionEEEiPNS2_INS1_5ValueEEE
libnode.so:_ZN4node9AsyncWrap12WeakCallbackERKN2v816WeakCallbackInfoINS_12DestroyParamEEE
libnode.so:_ZN4node9AsyncWrap13EmitAsyncInitEPNS_11EnvironmentEN2v85LocalINS3_6ObjectEEENS4_INS3_6StringEEEdd
libnode.so:_ZN4node9AsyncWrap15GetProviderTypeERKN2v820FunctionCallbackInfoINS1_5ValueEEE
libnode.so:_ZN4node9AsyncWrap15PopAsyncContextERKN2v820FunctionCallbackInfoINS1_5ValueEEE
libnode.so:_ZN4node9AsyncWrap16PushAsyncContextERKN2v820FunctionCallbackInfoINS1_5ValueEEE
libnode.so:_ZN4node9AsyncWrap18EmitPromiseResolveEPNS_11EnvironmentEd
libnode.so:_ZN4node9AsyncWrap19EmitTraceEventAfterENS0_12ProviderTypeEd
libnode.so:_ZN4node9AsyncWrap19QueueDestroyAsyncIdERKN2v820FunctionCallbackInfoINS1_5ValueEEE
libnode.so:_ZN4node9AsyncWrap20EmitTraceEventBeforeEv
libnode.so:_ZN4node9AsyncWrap21EmitTraceEventDestroyEv
libnode.so:_ZN4node9AsyncWrap22GetConstructorTemplateEPNS_11EnvironmentE
libnode.so:_ZN4node9AsyncWrap23DestroyAsyncIdsCallbackEPNS_11EnvironmentE
libnode.so:_ZN4node9AsyncWrap8GetOwnerEPNS_11EnvironmentEN2v85LocalINS3_6ObjectEEE
libnode.so:_ZN4node9AsyncWrap8GetOwnerEv
libnode.so:_ZN4node9AsyncWrap9EmitAfterEPNS_11EnvironmentEd
libnode.so:_ZN4node9AsyncWrapC2EPNS_11EnvironmentEN2v85LocalINS3_6ObjectEEE
libnode.so:_ZN4node9AsyncWrapC2EPNS_11EnvironmentEN2v85LocalINS3_6ObjectEEENS0_12ProviderTypeEd
libnode.so:_ZN4node9AsyncWrapC2EPNS_11EnvironmentEN2v85LocalINS3_6ObjectEEENS0_12ProviderTypeEdb
libnode.so:_ZN4node9AsyncWrapD0Ev
libnode.so:_ZN4node9AsyncWrapD1Ev
libnode.so:_ZN4node9AsyncWrapD2Ev
libnode.so:_ZN4node9HistogramC1Elli
libnode.so:_ZN4node9HistogramC2Elli
libnode.so:_ZN4node9RunAtExitEPNS_11EnvironmentE
libnode.so:_ZN4node9Utf8ValueC1EPN2v87IsolateENS1_5LocalINS1_5ValueEEE
libnode.so:_ZN4node9Utf8ValueC2EPN2v87IsolateENS1_5LocalINS1_5ValueEEE
libnode.so:_ZN4node9WriteWrap6OnDoneEi
libnode.so:_ZN4node9g_contextE
libnode.so:_ZN6icu_6510Appendable12appendStringEPKDsi
libnode.so:_ZN6icu_6510Appendable15appendCodePointEi
libnode.so:_ZN6icu_6510Appendable15getAppendBufferEiiPDsiPi
libnode.so:_ZN6icu_6510Appendable21reserveAppendCapacityEi
libnode.so:_ZN6icu_6510AppendableD0Ev
libnode.so:_ZN6icu_6510AppendableD1Ev
libnode.so:_ZN6icu_6510AppendableD2Ev
libnode.so:_ZN6icu_6510BucketListD0Ev
libnode.so:_ZN6icu_6510BucketListD1Ev
libnode.so:_ZN6icu_6510BucketListD2Ev
libnode.so:_ZN6icu_6510CECalendar6ceToJDEiiii
libnode.so:_ZN6icu_6510CECalendar6jdToCEEiiRiS1_S1_
libnode.so:_ZN6icu_6510CECalendarC2ERKNS_6LocaleER10UErrorCode
libnode.so:_ZN6icu_6510CECalendarC2ERKS0_
libnode.so:_ZN6icu_6510CECalendarD0Ev
libnode.so:_ZN6icu_6510CECalendarD1Ev
libnode.so:_ZN6icu_6510CECalendarD2Ev
libnode.so:_ZN6icu_6510CECalendaraSERKS0_
libnode.so:_ZN6icu_6510CharString14appendPathPartENS_11StringPieceER10UErrorCode
libnode.so:_ZN6icu_6510CharString14ensureCapacityEiiR10UErrorCode
libnode.so:_ZN6icu_6510CharString15getAppendBufferEiiRiR10UErrorCode
libnode.so:_ZN6icu_6510CharString20appendInvariantCharsEPKDsiR10UErrorCode
libnode.so:_ZN6icu_6510CharString20appendInvariantCharsERKNS_13UnicodeStringER10UErrorCode
libnode.so:_ZN6icu_6510CharString27ensureEndsWithFileSeparatorER10UErrorCode
libnode.so:_ZN6icu_6510CharString6appendEPKciR10UErrorCode
libnode.so:_ZN6icu_6510CharString6appendEcR10UErrorCode
libnode.so:_ZN6icu_6510CharString8copyFromERKS0_R10UErrorCode
libnode.so:_ZN6icu_6510CharString8truncateEi
libnode.so:_ZN6icu_6510CharStringC1EOS0_
libnode.so:_ZN6icu_6510CharStringC2EOS0_
libnode.so:_ZN6icu_6510CharStringaSEOS0_
libnode.so:_ZN6icu_6510DateFormat10setContextE15UDisplayContextR10UErrorCode
libnode.so:_ZN6icu_6510DateFormat10setLenientEa
libnode.so:_ZN6icu_6510DateFormat11setCalendarERKNS_8CalendarE
libnode.so:_ZN6icu_6510DateFormat11setTimeZoneERKNS_8TimeZoneE
libnode.so:_ZN6icu_6510DateFormat13adoptCalendarEPNS_8CalendarE
libnode.so:_ZN6icu_6510DateFormat13adoptTimeZoneEPNS_8TimeZoneE
libnode.so:_ZN6icu_6510DateFormat14createInstanceEv
libnode.so:_ZN6icu_6510DateFormat14getBestPatternERKNS_6LocaleERKNS_13UnicodeStringER10UErrorCode
libnode.so:_ZN6icu_6510DateFormat15setNumberFormatERKNS_12NumberFormatE
libnode.so:_ZN6icu_6510DateFormat17adoptNumberFormatEPNS_12NumberFormatE
libnode.so:_ZN6icu_6510DateFormat18createDateInstanceENS0_6EStyleERKNS_6LocaleE
libnode.so:_ZN6icu_6510DateFormat18createTimeInstanceENS0_6EStyleERKNS_6LocaleE
libnode.so:_ZN6icu_6510DateFormat18setCalendarLenientEa
libnode.so:_ZN6icu_6510DateFormat19getAvailableLocalesERi
libnode.so:_ZN6icu_6510DateFormat19setBooleanAttributeE27UDateFormatBooleanAttributeaR10UErrorCode
libnode.so:_ZN6icu_6510DateFormat22createDateTimeInstanceENS0_6EStyleES1_RKNS_6LocaleE
libnode.so:_ZN6icu_6510DateFormat25createInstanceForSkeletonEPNS_8CalendarERKNS_13UnicodeStringERKNS_6LocaleER10UErrorCode
libnode.so:_ZN6icu_6510DateFormat25createInstanceForSkeletonERKNS_13UnicodeStringER10UErrorCode
libnode.so:_ZN6icu_6510DateFormat25createInstanceForSkeletonERKNS_13UnicodeStringERKNS_6LocaleER10UErrorCode
libnode.so:_ZN6icu_6510DateFormat6createENS0_6EStyleES1_RKNS_6LocaleE
libnode.so:_ZN6icu_6510DateFormatC2ERKS0_
libnode.so:_ZN6icu_6510DateFormatC2Ev
libnode.so:_ZN6icu_6510DateFormatD0Ev
libnode.so:_ZN6icu_6510DateFormatD1Ev
libnode.so:_ZN6icu_6510DateFormatD2Ev
libnode.so:_ZN6icu_6510DateFormataSERKS0_
libnode.so:_ZN6icu_6510GenderInfo11getInstanceERKNS_6LocaleER10UErrorCode
libnode.so:_ZN6icu_6510GenderInfo12loadInstanceERKNS_6LocaleER10UErrorCode
libnode.so:_ZN6icu_6510GenderInfo18getNeutralInstanceEv
libnode.so:_ZN6icu_6510GenderInfo21getMaleTaintsInstanceEv
libnode.so:_ZN6icu_6510GenderInfo23getMixedNeutralInstanceEv
libnode.so:_ZN6icu_6510GenderInfoC1Ev
libnode.so:_ZN6icu_6510GenderInfoC2Ev
libnode.so:_ZN6icu_6510GenderInfoD0Ev
libnode.so:_ZN6icu_6510GenderInfoD1Ev
libnode.so:_ZN6icu_6510GenderInfoD2Ev
libnode.so:_ZN6icu_6510GreekUpper13getLetterDataEi
libnode.so:_ZN6icu_6510GreekUpper16getDiacriticDataEi
libnode.so:_ZN6icu_6510GreekUpper23isFollowedByCasedLetterEPKDsii
libnode.so:_ZN6icu_6510GreekUpper23isFollowedByCasedLetterEPKhii
libnode.so:_ZN6icu_6510GreekUpper7toUpperEjPDsiPKDsiPNS_5EditsER10UErrorCode
libnode.so:_ZN6icu_6510GreekUpper7toUpperEjPKhiRNS_8ByteSinkEPNS_5EditsER10UErrorCode
libnode.so:_ZN6icu_6510ICUService10unregisterEPKvR10UErrorCode
libnode.so:_ZN6icu_6510ICUService11clearCachesEv
libnode.so:_ZN6icu_6510ICUService15registerFactoryEPNS_17ICUServiceFactoryER10UErrorCode
libnode.so:_ZN6icu_6510ICUService16registerInstanceEPNS_7UObjectERKNS_13UnicodeStringER10UErrorCode
libnode.so:_ZN6icu_6510ICUService16registerInstanceEPNS_7UObjectERKNS_13UnicodeStringEaR10UErrorCode
libnode.so:_ZN6icu_6510ICUService17clearServiceCacheEv
libnode.so:_ZN6icu_6510ICUService19createSimpleFactoryEPNS_7UObjectERKNS_13UnicodeStringEaR10UErrorCode
libnode.so:_ZN6icu_6510ICUService21reInitializeFactoriesEv
libnode.so:_ZN6icu_6510ICUService5resetEv
libnode.so:_ZN6icu_6510ICUServiceC2ERKNS_13UnicodeStringE
libnode.so:_ZN6icu_6510ICUServiceC2Ev
libnode.so:_ZN6icu_6510ICUServiceD0Ev
libnode.so:_ZN6icu_6510ICUServiceD1Ev
libnode.so:_ZN6icu_6510ICUServiceD2Ev
libnode.so:_ZN6icu_6510Normalizer10quickCheckERKNS_13UnicodeStringE18UNormalizationModeiR10UErrorCode
libnode.so:_ZN6icu_6510Normalizer11clearBufferEv
libnode.so:_ZN6icu_6510Normalizer11concatenateERKNS_13UnicodeStringES3_RS1_18UNormalizationModeiR10UErrorCode
libnode.so:_ZN6icu_6510Normalizer12isNormalizedERKNS_13UnicodeStringE18UNormalizationModeiR10UErrorCode
libnode.so:_ZN6icu_6510Normalizer12setIndexOnlyEi
libnode.so:_ZN6icu_6510Normalizer13nextNormalizeEv
libnode.so:_ZN6icu_6510Normalizer16getStaticClassIDEv
libnode.so:_ZN6icu_6510Normalizer17previousNormalizeEv
libnode.so:_ZN6icu_6510Normalizer4initEv
libnode.so:_ZN6icu_6510Normalizer4lastEv
libnode.so:_ZN6icu_6510Normalizer4nextEv
libnode.so:_ZN6icu_6510Normalizer5firstEv
libnode.so:_ZN6icu_6510Normalizer5resetEv
libnode.so:_ZN6icu_6510Normalizer7composeERKNS_13UnicodeStringEaiRS1_R10UErrorCode
libnode.so:_ZN6icu_6510Normalizer7currentEv
libnode.so:_ZN6icu_6510Normalizer7getTextERNS_13UnicodeStringE
libnode.so:_ZN6icu_6510Normalizer7setModeE18UNormalizationMode
libnode.so:_ZN6icu_6510Normalizer7setTextENS_14ConstChar16PtrEiR10UErrorCode
libnode.so:_ZN6icu_6510Normalizer7setTextERKNS_13UnicodeStringER10UErrorCode
libnode.so:_ZN6icu_6510Normalizer7setTextERKNS_17CharacterIteratorER10UErrorCode
libnode.so:_ZN6icu_6510Normalizer8previousEv
libnode.so:_ZN6icu_6510Normalizer9decomposeERKNS_13UnicodeStringEaiRS1_R10UErrorCode
libnode.so:_ZN6icu_6510Normalizer9normalizeERKNS_13UnicodeStringE18UNormalizationModeiRS1_R10UErrorCode
libnode.so:_ZN6icu_6510Normalizer9setOptionEia
libnode.so:_ZN6icu_6510NormalizerC1ENS_14ConstChar16PtrEi18UNormalizationMode
libnode.so:_ZN6icu_6510NormalizerC1ERKNS_13UnicodeStringE18UNormalizationMode
libnode.so:_ZN6icu_6510NormalizerC1ERKNS_17CharacterIteratorE18UNormalizationMode
libnode.so:_ZN6icu_6510NormalizerC1ERKS0_
libnode.so:_ZN6icu_6510NormalizerC2ENS_14ConstChar16PtrEi18UNormalizationMode
libnode.so:_ZN6icu_6510NormalizerC2ERKNS_13UnicodeStringE18UNormalizationMode
libnode.so:_ZN6icu_6510NormalizerC2ERKNS_17CharacterIteratorE18UNormalizationMode
libnode.so:_ZN6icu_6510NormalizerC2ERKS0_
libnode.so:_ZN6icu_6510NormalizerD0Ev
libnode.so:_ZN6icu_6510NormalizerD1Ev
libnode.so:_ZN6icu_6510NormalizerD2Ev
libnode.so:_ZN6icu_6510PatternMap16getDuplicateElemERKNS_13UnicodeStringERKNS_11PtnSkeletonEPNS_7PtnElemE
libnode.so:_ZN6icu_6510PatternMap3addERKNS_13UnicodeStringERKNS_11PtnSkeletonES3_aR10UErrorCode
libnode.so:_ZN6icu_6510PatternMap8copyFromERKS0_R10UErrorCode
libnode.so:_ZN6icu_6510PatternMapC1Ev
libnode.so:_ZN6icu_6510PatternMapC2Ev
libnode.so:_ZN6icu_6510PatternMapD0Ev
libnode.so:_ZN6icu_6510PatternMapD1Ev
libnode.so:_ZN6icu_6510PatternMapD2Ev
libnode.so:_ZN6icu_6510Quantifier16getStaticClassIDEv
libnode.so:_ZN6icu_6510Quantifier7matchesERKNS_11ReplaceableERiia
libnode.so:_ZN6icu_6510Quantifier7setDataEPKNS_23TransliterationRuleDataE
libnode.so:_ZN6icu_6510QuantifierC1EPNS_14UnicodeFunctorEjj
libnode.so:_ZN6icu_6510QuantifierC1ERKS0_
libnode.so:_ZN6icu_6510QuantifierC2EPNS_14UnicodeFunctorEjj
libnode.so:_ZN6icu_6510QuantifierC2ERKS0_
libnode.so:_ZN6icu_6510QuantifierD0Ev
libnode.so:_ZN6icu_6510QuantifierD1Ev
libnode.so:_ZN6icu_6510QuantifierD2Ev
libnode.so:_ZN6icu_6510StringPair6createERKNS_13UnicodeStringES3_R10UErrorCode
libnode.so:_ZN6icu_6510StringPairC1ERKNS_13UnicodeStringES3_
libnode.so:_ZN6icu_6510StringPairC2ERKNS_13UnicodeStringES3_
libnode.so:_ZN6icu_6510UCharsTrie10branchNextEPKDsii
libnode.so:_ZN6icu_6510UCharsTrie15findUniqueValueEPKDsaRi
libnode.so:_ZN6icu_6510UCharsTrie16nextForCodePointEi
libnode.so:_ZN6icu_6510UCharsTrie17firstForCodePointEi
libnode.so:_ZN6icu_6510UCharsTrie19getNextBranchUCharsEPKDsiRNS_10AppendableE
libnode.so:_ZN6icu_6510UCharsTrie25findUniqueValueFromBranchEPKDsiaRi
libnode.so:_ZN6icu_6510UCharsTrie4nextENS_14ConstChar16PtrEi
libnode.so:_ZN6icu_6510UCharsTrie4nextEi
libnode.so:_ZN6icu_6510UCharsTrie8Iterator10branchNextEPKDsiR10UErrorCode
libnode.so:_ZN6icu_6510UCharsTrie8Iterator4nextER10UErrorCode
libnode.so:_ZN6icu_6510UCharsTrie8Iterator5resetEv
libnode.so:_ZN6icu_6510UCharsTrie8IteratorC1ENS_14ConstChar16PtrEiR10UErrorCode
libnode.so:_ZN6icu_6510UCharsTrie8IteratorC1ERKS0_iR10UErrorCode
libnode.so:_ZN6icu_6510UCharsTrie8IteratorC2ENS_14ConstChar16PtrEiR10UErrorCode
libnode.so:_ZN6icu_6510UCharsTrie8IteratorC2ERKS0_iR10UErrorCode
libnode.so:_ZN6icu_6510UCharsTrie8IteratorD1Ev
libnode.so:_ZN6icu_6510UCharsTrie8IteratorD2Ev
libnode.so:_ZN6icu_6510UCharsTrie8nextImplEPKDsi
libnode.so:_ZN6icu_6510UCharsTrieD1Ev
libnode.so:_ZN6icu_6510UCharsTrieD2Ev
libnode.so:_ZN6icu_6510UStringSetD0Ev
libnode.so:_ZN6icu_6510UStringSetD1Ev
libnode.so:_ZN6icu_6510UStringSetD2Ev
libnode.so:_ZN6icu_6510UnicodeSet10complementERKNS_13UnicodeStringE
libnode.so:_ZN6icu_6510UnicodeSet10complementEi
libnode.so:_ZN6icu_6510UnicodeSet10complementEii
libnode.so:_ZN6icu_6510UnicodeSet10complementEv
libnode.so:_ZN6icu_6510UnicodeSet10createFromERKNS_13UnicodeStringE
libnode.so:_ZN6icu_6510UnicodeSet10setPatternEPKDsi
libnode.so:_ZN6icu_6510UnicodeSet10setToBogusEv
libnode.so:_ZN6icu_6510UnicodeSet11applyFilterEPFaiPvES1_PKS0_R10UErrorCode
libnode.so:_ZN6icu_6510UnicodeSet11exclusiveOrEPKiia
libnode.so:_ZN6icu_6510UnicodeSet11getSingleCPERKNS_13UnicodeStringE
libnode.so:_ZN6icu_6510UnicodeSet11swapBuffersEv
libnode.so:_ZN6icu_6510UnicodeSet12_appendToPatERNS_13UnicodeStringERKS1_a
libnode.so:_ZN6icu_6510UnicodeSet12_appendToPatERNS_13UnicodeStringEia
libnode.so:_ZN6icu_6510UnicodeSet12applyPatternERKNS_13UnicodeStringER10UErrorCode
libnode.so:_ZN6icu_6510UnicodeSet12applyPatternERKNS_13UnicodeStringERNS_13ParsePositionEjPKNS_11SymbolTableER10UErrorCode
libnode.so:_ZN6icu_6510UnicodeSet12applyPatternERKNS_13UnicodeStringEjPKNS_11SymbolTableER10UErrorCode
libnode.so:_ZN6icu_6510UnicodeSet12applyPatternERNS_21RuleCharacterIteratorEPKNS_11SymbolTableERNS_13UnicodeStringEjMS0_FRS0_iEiR10UErrorCode
libnode.so:_ZN6icu_6510UnicodeSet12nextCapacityEi
libnode.so:_ZN6icu_6510UnicodeSet13complementAllERKNS_13UnicodeStringE
libnode.so:_ZN6icu_6510UnicodeSet13complementAllERKS0_
libnode.so:_ZN6icu_6510UnicodeSet13createFromAllERKNS_13UnicodeStringE
libnode.so:_ZN6icu_6510UnicodeSet14ensureCapacityEi
libnode.so:_ZN6icu_6510UnicodeSet14releasePatternEv
libnode.so:_ZN6icu_6510UnicodeSet15allocateStringsER10UErrorCode
libnode.so:_ZN6icu_6510UnicodeSet16getStaticClassIDEv
libnode.so:_ZN6icu_6510UnicodeSet16removeAllStringsEv
libnode.so:_ZN6icu_6510UnicodeSet16resemblesPatternERKNS_13UnicodeStringEi
libnode.so:_ZN6icu_6510UnicodeSet18applyPropertyAliasERKNS_13UnicodeStringES3_R10UErrorCode
libnode.so:_ZN6icu_6510UnicodeSet20applyPropertyPatternERKNS_13UnicodeStringERNS_13ParsePositionER10UErrorCode
libnode.so:_ZN6icu_6510UnicodeSet20applyPropertyPatternERNS_21RuleCharacterIteratorERNS_13UnicodeStringER10UErrorCode
libnode.so:_ZN6icu_6510UnicodeSet20ensureBufferCapacityEi
libnode.so:_ZN6icu_6510UnicodeSet21applyIntPropertyValueE9UPropertyiR10UErrorCode
libnode.so:_ZN6icu_6510UnicodeSet23applyPatternIgnoreSpaceERKNS_13UnicodeStringERNS_13ParsePositionEPKNS_11SymbolTableER10UErrorCode
libnode.so:_ZN6icu_6510UnicodeSet24resemblesPropertyPatternERKNS_13UnicodeStringEi
libnode.so:_ZN6icu_6510UnicodeSet24resemblesPropertyPatternERNS_21RuleCharacterIteratorEi
libnode.so:_ZN6icu_6510UnicodeSet3addEPKiia
libnode.so:_ZN6icu_6510UnicodeSet3addERKNS_13UnicodeStringE
libnode.so:_ZN6icu_6510UnicodeSet3addEi
libnode.so:_ZN6icu_6510UnicodeSet3addEii
libnode.so:_ZN6icu_6510UnicodeSet3setEii
libnode.so:_ZN6icu_6510UnicodeSet4_addERKNS_13UnicodeStringE
libnode.so:_ZN6icu_6510UnicodeSet5clearEv
libnode.so:_ZN6icu_6510UnicodeSet6addAllERKNS_13UnicodeStringE
libnode.so:_ZN6icu_6510UnicodeSet6addAllERKS0_
libnode.so:_ZN6icu_6510UnicodeSet6freezeEv
libnode.so:_ZN6icu_6510UnicodeSet6removeERKNS_13UnicodeStringE
libnode.so:_ZN6icu_6510UnicodeSet6removeEi
libnode.so:_ZN6icu_6510UnicodeSet6removeEii
libnode.so:_ZN6icu_6510UnicodeSet6retainEPKiia
libnode.so:_ZN6icu_6510UnicodeSet6retainEi
libnode.so:_ZN6icu_6510UnicodeSet6retainEii
libnode.so:_ZN6icu_6510UnicodeSet7compactEv
libnode.so:_ZN6icu_6510UnicodeSet7matchesERKNS_11ReplaceableERiia
libnode.so:_ZN6icu_6510UnicodeSet8copyFromERKS0_a
libnode.so:_ZN6icu_6510UnicodeSet9closeOverEi
libnode.so:_ZN6icu_6510UnicodeSet9matchRestERKNS_11ReplaceableEiiRKNS_13UnicodeStringE
libnode.so:_ZN6icu_6510UnicodeSet9removeAllERKNS_13UnicodeStringE
libnode.so:_ZN6icu_6510UnicodeSet9removeAllERKS0_
libnode.so:_ZN6icu_6510UnicodeSet9retainAllERKNS_13UnicodeStringE
libnode.so:_ZN6icu_6510UnicodeSet9retainAllERKS0_
libnode.so:_ZN6icu_6510UnicodeSetC1EPKtiNS0_14ESerializationER10UErrorCode
libnode.so:_ZN6icu_6510UnicodeSetC1ERKNS_13UnicodeStringER10UErrorCode
libnode.so:_ZN6icu_6510UnicodeSetC1ERKNS_13UnicodeStringERNS_13ParsePositionEjPKNS_11SymbolTableER10UErrorCode
libnode.so:_ZN6icu_6510UnicodeSetC1ERKNS_13UnicodeStringEjPKNS_11SymbolTableER10UErrorCode
libnode.so:_ZN6icu_6510UnicodeSetC1ERKS0_
libnode.so:_ZN6icu_6510UnicodeSetC1ERKS0_a
libnode.so:_ZN6icu_6510UnicodeSetC1Eii
libnode.so:_ZN6icu_6510UnicodeSetC1Ev
libnode.so:_ZN6icu_6510UnicodeSetC2EPKtiNS0_14ESerializationER10UErrorCode
libnode.so:_ZN6icu_6510UnicodeSetC2ERKNS_13UnicodeStringER10UErrorCode
libnode.so:_ZN6icu_6510UnicodeSetC2ERKNS_13UnicodeStringERNS_13ParsePositionEjPKNS_11SymbolTableER10UErrorCode
libnode.so:_ZN6icu_6510UnicodeSetC2ERKNS_13UnicodeStringEjPKNS_11SymbolTableER10UErrorCode
libnode.so:_ZN6icu_6510UnicodeSetC2ERKS0_
libnode.so:_ZN6icu_6510UnicodeSetC2ERKS0_a
libnode.so:_ZN6icu_6510UnicodeSetC2Eii
libnode.so:_ZN6icu_6510UnicodeSetC2Ev
libnode.so:_ZN6icu_6510UnicodeSetD0Ev
libnode.so:_ZN6icu_6510UnicodeSetD1Ev
libnode.so:_ZN6icu_6510UnicodeSetD2Ev
libnode.so:_ZN6icu_6510UnicodeSetaSERKS0_
libnode.so:_ZN6icu_6510util64_powEjt
libnode.so:_ZN6icu_6510util64_touElPDsjja
libnode.so:_ZN6icu_6511CEFinalizerD0Ev
libnode.so:_ZN6icu_6511CEFinalizerD1Ev
libnode.so:_ZN6icu_6511CEFinalizerD2Ev
libnode.so:_ZN6icu_6511CheckResult12validateThisEP17USpoofCheckResultR10UErrorCode
libnode.so:_ZN6icu_6511CheckResult12validateThisEPK17USpoofCheckResultR10UErrorCode
libnode.so:_ZN6icu_6511CheckResult17toCombinedBitmaskEi
libnode.so:_ZN6icu_6511CheckResult19asUSpoofCheckResultEv
libnode.so:_ZN6icu_6511CheckResult5clearEv
libnode.so:_ZN6icu_6511CheckResultC1Ev
libnode.so:_ZN6icu_6511CheckResultC2Ev
libnode.so:_ZN6icu_6511CheckResultD0Ev
libnode.so:_ZN6icu_6511CheckResultD1Ev
libnode.so:_ZN6icu_6511CheckResultD2Ev
libnode.so:_ZN6icu_6511Formattable10adoptArrayEPS0_i
libnode.so:_ZN6icu_6511Formattable11adoptObjectEPNS_7UObjectE
libnode.so:_ZN6icu_6511Formattable11adoptStringEPNS_13UnicodeStringE
libnode.so:_ZN6icu_6511Formattable16getDecimalNumberER10UErrorCode
libnode.so:_ZN6icu_6511Formattable16getStaticClassIDEv
libnode.so:_ZN6icu_6511Formattable16setDecimalNumberENS_11StringPieceER10UErrorCode
libnode.so:_ZN6icu_6511Formattable20adoptDecimalQuantityEPNS_6number4impl15DecimalQuantityE
libnode.so:_ZN6icu_6511Formattable21internalGetCharStringER10UErrorCode
libnode.so:_ZN6icu_6511Formattable4initEv
libnode.so:_ZN6icu_6511Formattable7disposeEv
libnode.so:_ZN6icu_6511Formattable7setDateEd
libnode.so:_ZN6icu_6511Formattable7setLongEi
libnode.so:_ZN6icu_6511Formattable8setArrayEPKS0_i
libnode.so:_ZN6icu_6511Formattable8setInt64El
libnode.so:_ZN6icu_6511Formattable9getStringER10UErrorCode
libnode.so:_ZN6icu_6511Formattable9setDoubleEd
libnode.so:_ZN6icu_6511Formattable9setStringERKNS_13UnicodeStringE
libnode.so:_ZN6icu_6511FormattableC1ENS_11StringPieceER10UErrorCode
libnode.so:_ZN6icu_6511FormattableC1EPKS0_i
libnode.so:_ZN6icu_6511FormattableC1EPKc
libnode.so:_ZN6icu_6511FormattableC1EPNS_13UnicodeStringE
libnode.so:_ZN6icu_6511FormattableC1EPNS_7UObjectE
libnode.so:_ZN6icu_6511FormattableC1ERKNS_13UnicodeStringE
libnode.so:_ZN6icu_6511FormattableC1ERKS0_
libnode.so:_ZN6icu_6511FormattableC1Ed
libnode.so:_ZN6icu_6511FormattableC1EdNS0_6ISDATEE
libnode.so:_ZN6icu_6511FormattableC1Ei
libnode.so:_ZN6icu_6511FormattableC1El
libnode.so:_ZN6icu_6511FormattableC1Ev
libnode.so:_ZN6icu_6511FormattableC2ENS_11StringPieceER10UErrorCode
libnode.so:_ZN6icu_6511FormattableC2EPKS0_i
libnode.so:_ZN6icu_6511FormattableC2EPKc
libnode.so:_ZN6icu_6511FormattableC2EPNS_13UnicodeStringE
libnode.so:_ZN6icu_6511FormattableC2EPNS_7UObjectE
libnode.so:_ZN6icu_6511FormattableC2ERKNS_13UnicodeStringE
libnode.so:_ZN6icu_6511FormattableC2ERKS0_
libnode.so:_ZN6icu_6511FormattableC2Ed
libnode.so:_ZN6icu_6511FormattableC2EdNS0_6ISDATEE
libnode.so:_ZN6icu_6511FormattableC2Ei
libnode.so:_ZN6icu_6511FormattableC2El
libnode.so:_ZN6icu_6511FormattableC2Ev
libnode.so:_ZN6icu_6511FormattableD0Ev
libnode.so:_ZN6icu_6511FormattableD1Ev
libnode.so:_ZN6icu_6511FormattableD2Ev
libnode.so:_ZN6icu_6511FormattableaSERKS0_
libnode.so:_ZN6icu_6511ICUNotifier11addListenerEPKNS_13EventListenerER10UErrorCode
libnode.so:_ZN6icu_6511ICUNotifier13notifyChangedEv
libnode.so:_ZN6icu_6511ICUNotifier14removeListenerEPKNS_13EventListenerER10UErrorCode
libnode.so:_ZN6icu_6511ICUNotifierC2Ev
libnode.so:_ZN6icu_6511ICUNotifierD0Ev
libnode.so:_ZN6icu_6511ICUNotifierD1Ev
libnode.so:_ZN6icu_6511ICUNotifierD2Ev
libnode.so:_ZN6icu_6511ICU_Utility11parseNumberERKNS_13UnicodeStringERia
libnode.so:_ZN6icu_6511ICU_Utility12appendNumberERNS_13UnicodeStringEiii
libnode.so:_ZN6icu_6511ICU_Utility12appendToRuleERNS_13UnicodeStringEPKNS_14UnicodeMatcherEaS2_
libnode.so:_ZN6icu_6511ICU_Utility12appendToRuleERNS_13UnicodeStringERKS1_aaS2_
libnode.so:_ZN6icu_6511ICU_Utility12appendToRuleERNS_13UnicodeStringEiaaS2_
libnode.so:_ZN6icu_6511ICU_Utility12parseIntegerERKNS_13UnicodeStringERii
libnode.so:_ZN6icu_6511ICU_Utility12parsePatternERKNS_13UnicodeStringERKNS_11ReplaceableEii
libnode.so:_ZN6icu_6511ICU_Utility12parsePatternERKNS_13UnicodeStringEiiS3_Pi
libnode.so:_ZN6icu_6511ICU_Utility13isUnprintableEi
libnode.so:_ZN6icu_6511ICU_Utility14skipWhitespaceERKNS_13UnicodeStringERia
libnode.so:_ZN6icu_6511ICU_Utility17escapeUnprintableERNS_13UnicodeStringEi
libnode.so:_ZN6icu_6511ICU_Utility17parseAsciiIntegerERKNS_13UnicodeStringERi
libnode.so:_ZN6icu_6511ICU_Utility22parseUnicodeIdentifierERKNS_13UnicodeStringERi
libnode.so:_ZN6icu_6511ICU_Utility9parseCharERKNS_13UnicodeStringERiDs
libnode.so:_ZN6icu_6511LocaleBased12setLocaleIDsEPKcS2_
libnode.so:_ZN6icu_6511LocaleBased12setLocaleIDsERKNS_6LocaleES3_
libnode.so:_ZN6icu_6511MeasureUnit10createAcreER10UErrorCode
libnode.so:_ZN6icu_6511MeasureUnit10createByteER10UErrorCode
libnode.so:_ZN6icu_6511MeasureUnit10createFootER10UErrorCode
libnode.so:_ZN6icu_6511MeasureUnit10createGramER10UErrorCode
libnode.so:_ZN6icu_6511MeasureUnit10createHourER10UErrorCode
libnode.so:_ZN6icu_6511MeasureUnit10createInchER10UErrorCode
libnode.so:_ZN6icu_6511MeasureUnit10createKnotER10UErrorCode
libnode.so:_ZN6icu_6511MeasureUnit10createMileER10UErrorCode
libnode.so:_ZN6icu_6511MeasureUnit10createMoleER10UErrorCode
libnode.so:_ZN6icu_6511MeasureUnit10createPintER10UErrorCode
libnode.so:_ZN6icu_6511MeasureUnit10createVoltER10UErrorCode
libnode.so:_ZN6icu_6511MeasureUnit10createWattER10UErrorCode
libnode.so:_ZN6icu_6511MeasureUnit10createWeekER10UErrorCode
libnode.so:_ZN6icu_6511MeasureUnit10createYardER10UErrorCode
libnode.so:_ZN6icu_6511MeasureUnit10createYearER10UErrorCode
libnode.so:_ZN6icu_6511MeasureUnit10getCalorieEv
libnode.so:_ZN6icu_6511MeasureUnit10getCelsiusEv
libnode.so:_ZN6icu_6511MeasureUnit10getCenturyEv
libnode.so:_ZN6icu_6511MeasureUnit10getFurlongEv
libnode.so:_ZN6icu_6511MeasureUnit10getGigabitEv
libnode.so:_ZN6icu_6511MeasureUnit10getHectareEv
libnode.so:_ZN6icu_6511MeasureUnit10getKilobitEv
libnode.so:_ZN6icu_6511MeasureUnit10getMegabitEv
libnode.so:_ZN6icu_6511MeasureUnit10getPercentEv
libnode.so:_ZN6icu_6511MeasureUnit10getTerabitEv
libnode.so:_ZN6icu_6511MeasureUnit10getThermUsEv
libnode.so:_ZN6icu_6511MeasureUnit10initNoUnitEPKc
libnode.so:_ZN6icu_6511MeasureUnit11createCaratER10UErrorCode
libnode.so:_ZN6icu_6511MeasureUnit11createDunamER10UErrorCode
libnode.so:_ZN6icu_6511MeasureUnit11createHertzER10UErrorCode
libnode.so:_ZN6icu_6511MeasureUnit11createJouleER10UErrorCode
libnode.so:_ZN6icu_6511MeasureUnit11createKaratER10UErrorCode
libnode.so:_ZN6icu_6511MeasureUnit11createLiterER10UErrorCode
libnode.so:_ZN6icu_6511MeasureUnit11createMeterER10UErrorCode
libnode.so:_ZN6icu_6511MeasureUnit11createMonthER10UErrorCode
libnode.so:_ZN6icu_6511MeasureUnit11createOunceER10UErrorCode
libnode.so:_ZN6icu_6511MeasureUnit11createPixelER10UErrorCode
libnode.so:_ZN6icu_6511MeasureUnit11createPointER10UErrorCode
libnode.so:_ZN6icu_6511MeasureUnit11createPoundER10UErrorCode
libnode.so:_ZN6icu_6511MeasureUnit11createQuartER10UErrorCode
libnode.so:_ZN6icu_6511MeasureUnit11createStoneER10UErrorCode
libnode.so:_ZN6icu_6511MeasureUnit11getAcreFootEv
libnode.so:_ZN6icu_6511MeasureUnit11getGigabyteEv
libnode.so:_ZN6icu_6511MeasureUnit11getGigawattEv
libnode.so:_ZN6icu_6511MeasureUnit11getKilobyteEv
libnode.so:_ZN6icu_6511MeasureUnit11getKilogramEv
libnode.so:_ZN6icu_6511MeasureUnit11getKilowattEv
libnode.so:_ZN6icu_6511MeasureUnit11getMegabyteEv
libnode.so:_ZN6icu_6511MeasureUnit11getMegawattEv
libnode.so:_ZN6icu_6511MeasureUnit11getMillibarEv
libnode.so:_ZN6icu_6511MeasureUnit11getPermilleEv
libnode.so:_ZN6icu_6511MeasureUnit11getPetabyteEv
libnode.so:_ZN6icu_6511MeasureUnit11getTeaspoonEv
libnode.so:_ZN6icu_6511MeasureUnit11getTerabyteEv
libnode.so:_ZN6icu_6511MeasureUnit12createAmpereER10UErrorCode
libnode.so:_ZN6icu_6511MeasureUnit12createBarrelER10UErrorCode
libnode.so:_ZN6icu_6511MeasureUnit12createBushelER10UErrorCode
libnode.so:_ZN6icu_6511MeasureUnit12createDaltonER10UErrorCode
libnode.so:_ZN6icu_6511MeasureUnit12createDecadeER10UErrorCode
libnode.so:_ZN6icu_6511MeasureUnit12createDegreeER10UErrorCode
libnode.so:_ZN6icu_6511MeasureUnit12createFathomER10UErrorCode
libnode.so:_ZN6icu_6511MeasureUnit12createGForceER10UErrorCode
libnode.so:_ZN6icu_6511MeasureUnit12createGallonER10UErrorCode
libnode.so:_ZN6icu_6511MeasureUnit12createInchHgER10UErrorCode
libnode.so:_ZN6icu_6511MeasureUnit12createKelvinER10UErrorCode
libnode.so:_ZN6icu_6511MeasureUnit12createMinuteER10UErrorCode
libnode.so:_ZN6icu_6511MeasureUnit12createNewtonER10UErrorCode
libnode.so:_ZN6icu_6511MeasureUnit12createParsecER10UErrorCode
libnode.so:_ZN6icu_6511MeasureUnit12createPascalER10UErrorCode
libnode.so:_ZN6icu_6511MeasureUnit12createRadianER10UErrorCode
libnode.so:_ZN6icu_6511MeasureUnit12createSecondER10UErrorCode
libnode.so:_ZN6icu_6511MeasureUnit12getArcMinuteEv
libnode.so:_ZN6icu_6511MeasureUnit12getArcSecondEv
libnode.so:_ZN6icu_6511MeasureUnit12getAvailableEPKcPS0_iR10UErrorCode
libnode.so:_ZN6icu_6511MeasureUnit12getAvailableEPS0_iR10UErrorCode
libnode.so:_ZN6icu_6511MeasureUnit12getCubicFootEv
libnode.so:_ZN6icu_6511MeasureUnit12getCubicInchEv
libnode.so:_ZN6icu_6511MeasureUnit12getCubicMileEv
libnode.so:_ZN6icu_6511MeasureUnit12getCubicYardEv
libnode.so:_ZN6icu_6511MeasureUnit12getCupMetricEv
libnode.so:_ZN6icu_6511MeasureUnit12getDayPersonEv
libnode.so:_ZN6icu_6511MeasureUnit12getDeciliterEv
libnode.so:_ZN6icu_6511MeasureUnit12getDecimeterEv
libnode.so:_ZN6icu_6511MeasureUnit12getEarthMassEv
libnode.so:_ZN6icu_6511MeasureUnit12getGigahertzEv
libnode.so:_ZN6icu_6511MeasureUnit12getKilohertzEv
libnode.so:_ZN6icu_6511MeasureUnit12getKilojouleEv
libnode.so:_ZN6icu_6511MeasureUnit12getKilometerEv
libnode.so:_ZN6icu_6511MeasureUnit12getLightYearEv
libnode.so:_ZN6icu_6511MeasureUnit12getMegahertzEv
libnode.so:_ZN6icu_6511MeasureUnit12getMegaliterEv
libnode.so:_ZN6icu_6511MeasureUnit12getMegapixelEv
libnode.so:_ZN6icu_6511MeasureUnit12getMetricTonEv
libnode.so:_ZN6icu_6511MeasureUnit12getMicrogramEv
libnode.so:_ZN6icu_6511MeasureUnit12getMilligramEv
libnode.so:_ZN6icu_6511MeasureUnit12getMilliwattEv
libnode.so:_ZN6icu_6511MeasureUnit12getNanometerEv
libnode.so:_ZN6icu_6511MeasureUnit12getOunceTroyEv
libnode.so:_ZN6icu_6511MeasureUnit12getPermyriadEv
libnode.so:_ZN6icu_6511MeasureUnit12getPicometerEv
libnode.so:_ZN6icu_6511MeasureUnit12getPoundFootEv
libnode.so:_ZN6icu_6511MeasureUnit12getSolarMassEv
libnode.so:_ZN6icu_6511MeasureUnit12initCurrencyEPKc
libnode.so:_ZN6icu_6511MeasureUnit13createCalorieER10UErrorCode
libnode.so:_ZN6icu_6511MeasureUnit13createCelsiusER10UErrorCode
libnode.so:_ZN6icu_6511MeasureUnit13createCenturyER10UErrorCode
libnode.so:_ZN6icu_6511MeasureUnit13createFurlongER10UErrorCode
libnode.so:_ZN6icu_6511MeasureUnit13createGigabitER10UErrorCode
libnode.so:_ZN6icu_6511MeasureUnit13createHectareER10UErrorCode
libnode.so:_ZN6icu_6511MeasureUnit13createKilobitER10UErrorCode
libnode.so:_ZN6icu_6511MeasureUnit13createMegabitER10UErrorCode
libnode.so:_ZN6icu_6511MeasureUnit13createPercentER10UErrorCode
libnode.so:_ZN6icu_6511MeasureUnit13createTerabitER10UErrorCode
libnode.so:_ZN6icu_6511MeasureUnit13createThermUsER10UErrorCode
libnode.so:_ZN6icu_6511MeasureUnit13getAtmosphereEv
libnode.so:_ZN6icu_6511MeasureUnit13getCentiliterEv
libnode.so:_ZN6icu_6511MeasureUnit13getCentimeterEv
libnode.so:_ZN6icu_6511MeasureUnit13getCubicMeterEv
libnode.so:_ZN6icu_6511MeasureUnit13getDotPerInchEv
libnode.so:_ZN6icu_6511MeasureUnit13getFahrenheitEv
libnode.so:_ZN6icu_6511MeasureUnit13getFluidOunceEv
libnode.so:_ZN6icu_6511MeasureUnit13getHectoliterEv
libnode.so:_ZN6icu_6511MeasureUnit13getHorsepowerEv
libnode.so:_ZN6icu_6511MeasureUnit13getIndexCountEv
libnode.so:_ZN6icu_6511MeasureUnit13getKilopascalEv
libnode.so:_ZN6icu_6511MeasureUnit13getMegapascalEv
libnode.so:_ZN6icu_6511MeasureUnit13getMicrometerEv
libnode.so:_ZN6icu_6511MeasureUnit13getMilliliterEv
libnode.so:_ZN6icu_6511MeasureUnit13getMillimeterEv
libnode.so:_ZN6icu_6511MeasureUnit13getNanosecondEv
libnode.so:_ZN6icu_6511MeasureUnit13getPintMetricEv
libnode.so:_ZN6icu_6511MeasureUnit13getPoundForceEv
libnode.so:_ZN6icu_6511MeasureUnit13getSquareFootEv
libnode.so:_ZN6icu_6511MeasureUnit13getSquareInchEv
libnode.so:_ZN6icu_6511MeasureUnit13getSquareMileEv
libnode.so:_ZN6icu_6511MeasureUnit13getSquareYardEv
libnode.so:_ZN6icu_6511MeasureUnit13getTablespoonEv
libnode.so:_ZN6icu_6511MeasureUnit13getWeekPersonEv
libnode.so:_ZN6icu_6511MeasureUnit13getYearPersonEv
libnode.so:_ZN6icu_6511MeasureUnit14createAcreFootER10UErrorCode
libnode.so:_ZN6icu_6511MeasureUnit14createGigabyteER10UErrorCode
libnode.so:_ZN6icu_6511MeasureUnit14createGigawattER10UErrorCode
libnode.so:_ZN6icu_6511MeasureUnit14createKilobyteER10UErrorCode
libnode.so:_ZN6icu_6511MeasureUnit14createKilogramER10UErrorCode
libnode.so:_ZN6icu_6511MeasureUnit14createKilowattER10UErrorCode
libnode.so:_ZN6icu_6511MeasureUnit14createMegabyteER10UErrorCode
libnode.so:_ZN6icu_6511MeasureUnit14createMegawattER10UErrorCode
libnode.so:_ZN6icu_6511MeasureUnit14createMillibarER10UErrorCode
libnode.so:_ZN6icu_6511MeasureUnit14createPermilleER10UErrorCode
libnode.so:_ZN6icu_6511MeasureUnit14createPetabyteER10UErrorCode
libnode.so:_ZN6icu_6511MeasureUnit14createTeaspoonER10UErrorCode
libnode.so:_ZN6icu_6511MeasureUnit14createTerabyteER10UErrorCode
libnode.so:_ZN6icu_6511MeasureUnit14getFoodcalorieEv
libnode.so:_ZN6icu_6511MeasureUnit14getHectopascalEv
libnode.so:_ZN6icu_6511MeasureUnit14getKilocalorieEv
libnode.so:_ZN6icu_6511MeasureUnit14getMicrosecondEv
libnode.so:_ZN6icu_6511MeasureUnit14getMilePerHourEv
libnode.so:_ZN6icu_6511MeasureUnit14getMilliampereEv
libnode.so:_ZN6icu_6511MeasureUnit14getMillisecondEv
libnode.so:_ZN6icu_6511MeasureUnit14getMonthPersonEv
libnode.so:_ZN6icu_6511MeasureUnit14getNewtonMeterEv
libnode.so:_ZN6icu_6511MeasureUnit14getSolarRadiusEv
libnode.so:_ZN6icu_6511MeasureUnit14getSquareMeterEv
libnode.so:_ZN6icu_6511MeasureUnit15createArcMinuteER10UErrorCode
libnode.so:_ZN6icu_6511MeasureUnit15createArcSecondER10UErrorCode
libnode.so:_ZN6icu_6511MeasureUnit15createCubicFootER10UErrorCode
libnode.so:_ZN6icu_6511MeasureUnit15createCubicInchER10UErrorCode
libnode.so:_ZN6icu_6511MeasureUnit15createCubicMileER10UErrorCode
libnode.so:_ZN6icu_6511MeasureUnit15createCubicYardER10UErrorCode
libnode.so:_ZN6icu_6511MeasureUnit15createCupMetricER10UErrorCode
libnode.so:_ZN6icu_6511MeasureUnit15createDayPersonER10UErrorCode
libnode.so:_ZN6icu_6511MeasureUnit15createDeciliterER10UErrorCode
libnode.so:_ZN6icu_6511MeasureUnit15createDecimeterER10UErrorCode
libnode.so:_ZN6icu_6511MeasureUnit15createEarthMassER10UErrorCode
libnode.so:_ZN6icu_6511MeasureUnit15createGigahertzER10UErrorCode
libnode.so:_ZN6icu_6511MeasureUnit15createKilohertzER10UErrorCode
libnode.so:_ZN6icu_6511MeasureUnit15createKilojouleER10UErrorCode
libnode.so:_ZN6icu_6511MeasureUnit15createKilometerER10UErrorCode
libnode.so:_ZN6icu_6511MeasureUnit15createLightYearER10UErrorCode
libnode.so:_ZN6icu_6511MeasureUnit15createMegahertzER10UErrorCode
libnode.so:_ZN6icu_6511MeasureUnit15createMegaliterER10UErrorCode
libnode.so:_ZN6icu_6511MeasureUnit15createMegapixelER10UErrorCode
libnode.so:_ZN6icu_6511MeasureUnit15createMetricTonER10UErrorCode
libnode.so:_ZN6icu_6511MeasureUnit15createMicrogramER10UErrorCode
libnode.so:_ZN6icu_6511MeasureUnit15createMilligramER10UErrorCode
libnode.so:_ZN6icu_6511MeasureUnit15createMilliwattER10UErrorCode
libnode.so:_ZN6icu_6511MeasureUnit15createNanometerER10UErrorCode
libnode.so:_ZN6icu_6511MeasureUnit15createOunceTroyER10UErrorCode
libnode.so:_ZN6icu_6511MeasureUnit15createPermyriadER10UErrorCode
libnode.so:_ZN6icu_6511MeasureUnit15createPicometerER10UErrorCode
libnode.so:_ZN6icu_6511MeasureUnit15createPoundFootER10UErrorCode
libnode.so:_ZN6icu_6511MeasureUnit15createSolarMassER10UErrorCode
libnode.so:_ZN6icu_6511MeasureUnit15getElectronvoltEv
libnode.so:_ZN6icu_6511MeasureUnit15getKilowattHourEv
libnode.so:_ZN6icu_6511MeasureUnit15getNauticalMileEv
libnode.so:_ZN6icu_6511MeasureUnit15getPixelPerInchEv
libnode.so:_ZN6icu_6511MeasureUnit16createAtmosphereER10UErrorCode
libnode.so:_ZN6icu_6511MeasureUnit16createCentiliterER10UErrorCode
libnode.so:_ZN6icu_6511MeasureUnit16createCentimeterER10UErrorCode
libnode.so:_ZN6icu_6511MeasureUnit16createCubicMeterER10UErrorCode
libnode.so:_ZN6icu_6511MeasureUnit16createDotPerInchER10UErrorCode
libnode.so:_ZN6icu_6511MeasureUnit16createFahrenheitER10UErrorCode
libnode.so:_ZN6icu_6511MeasureUnit16createFluidOunceER10UErrorCode
libnode.so:_ZN6icu_6511MeasureUnit16createHectoliterER10UErrorCode
libnode.so:_ZN6icu_6511MeasureUnit16createHorsepowerER10UErrorCode
libnode.so:_ZN6icu_6511MeasureUnit16createKilopascalER10UErrorCode
libnode.so:_ZN6icu_6511MeasureUnit16createMegapascalER10UErrorCode
libnode.so:_ZN6icu_6511MeasureUnit16createMicrometerER10UErrorCode
libnode.so:_ZN6icu_6511MeasureUnit16createMilliliterER10UErrorCode
libnode.so:_ZN6icu_6511MeasureUnit16createMillimeterER10UErrorCode
libnode.so:_ZN6icu_6511MeasureUnit16createNanosecondER10UErrorCode
libnode.so:_ZN6icu_6511MeasureUnit16createPintMetricER10UErrorCode
libnode.so:_ZN6icu_6511MeasureUnit16createPoundForceER10UErrorCode
libnode.so:_ZN6icu_6511MeasureUnit16createSquareFootER10UErrorCode
libnode.so:_ZN6icu_6511MeasureUnit16createSquareInchER10UErrorCode
libnode.so:_ZN6icu_6511MeasureUnit16createSquareMileER10UErrorCode
libnode.so:_ZN6icu_6511MeasureUnit16createSquareYardER10UErrorCode
libnode.so:_ZN6icu_6511MeasureUnit16createTablespoonER10UErrorCode
libnode.so:_ZN6icu_6511MeasureUnit16createWeekPersonER10UErrorCode
libnode.so:_ZN6icu_6511MeasureUnit16createYearPersonER10UErrorCode
libnode.so:_ZN6icu_6511MeasureUnit16getMilePerGallonEv
libnode.so:_ZN6icu_6511MeasureUnit16getStaticClassIDEv
libnode.so:_ZN6icu_6511MeasureUnit17createFoodcalorieER10UErrorCode
libnode.so:_ZN6icu_6511MeasureUnit17createHectopascalER10UErrorCode
libnode.so:_ZN6icu_6511MeasureUnit17createKilocalorieER10UErrorCode
libnode.so:_ZN6icu_6511MeasureUnit17createMicrosecondER10UErrorCode
libnode.so:_ZN6icu_6511MeasureUnit17createMilePerHourER10UErrorCode
libnode.so:_ZN6icu_6511MeasureUnit17createMilliampereER10UErrorCode
libnode.so:_ZN6icu_6511MeasureUnit17createMillisecondER10UErrorCode
libnode.so:_ZN6icu_6511MeasureUnit17createMonthPersonER10UErrorCode
libnode.so:_ZN6icu_6511MeasureUnit17createNewtonMeterER10UErrorCode
libnode.so:_ZN6icu_6511MeasureUnit17createSolarRadiusER10UErrorCode
libnode.so:_ZN6icu_6511MeasureUnit17createSquareMeterER10UErrorCode
libnode.so:_ZN6icu_6511MeasureUnit17getAvailableTypesER10UErrorCode
libnode.so:_ZN6icu_6511MeasureUnit17getCubicKilometerEv
libnode.so:_ZN6icu_6511MeasureUnit17getGallonImperialEv
libnode.so:_ZN6icu_6511MeasureUnit17getMeterPerSecondEv
libnode.so:_ZN6icu_6511MeasureUnit17getPartPerMillionEv
libnode.so:_ZN6icu_6511MeasureUnit18createElectronvoltER10UErrorCode
libnode.so:_ZN6icu_6511MeasureUnit18createKilowattHourER10UErrorCode
libnode.so:_ZN6icu_6511MeasureUnit18createNauticalMileER10UErrorCode
libnode.so:_ZN6icu_6511MeasureUnit18createPixelPerInchER10UErrorCode
libnode.so:_ZN6icu_6511MeasureUnit18getCubicCentimeterEv
libnode.so:_ZN6icu_6511MeasureUnit18getRevolutionAngleEv
libnode.so:_ZN6icu_6511MeasureUnit18getSolarLuminosityEv
libnode.so:_ZN6icu_6511MeasureUnit18getSquareKilometerEv
libnode.so:_ZN6icu_6511MeasureUnit18resolveUnitPerUnitERKS0_S2_Pb
libnode.so:_ZN6icu_6511MeasureUnit19createMilePerGallonER10UErrorCode
libnode.so:_ZN6icu_6511MeasureUnit19getAstronomicalUnitEv
libnode.so:_ZN6icu_6511MeasureUnit19getDotPerCentimeterEv
libnode.so:_ZN6icu_6511MeasureUnit19getKilometerPerHourEv
libnode.so:_ZN6icu_6511MeasureUnit19getMileScandinavianEv
libnode.so:_ZN6icu_6511MeasureUnit19getSquareCentimeterEv
libnode.so:_ZN6icu_6511MeasureUnit20createCubicKilometerER10UErrorCode
libnode.so:_ZN6icu_6511MeasureUnit20createGallonImperialER10UErrorCode
libnode.so:_ZN6icu_6511MeasureUnit20createMeterPerSecondER10UErrorCode
libnode.so:_ZN6icu_6511MeasureUnit20createPartPerMillionER10UErrorCode
libnode.so:_ZN6icu_6511MeasureUnit20getLiterPerKilometerEv
libnode.so:_ZN6icu_6511MeasureUnit20getMillimolePerLiterEv
libnode.so:_ZN6icu_6511MeasureUnit21createCubicCentimeterER10UErrorCode
libnode.so:_ZN6icu_6511MeasureUnit21createRevolutionAngleER10UErrorCode
libnode.so:_ZN6icu_6511MeasureUnit21createSolarLuminosityER10UErrorCode
libnode.so:_ZN6icu_6511MeasureUnit21createSquareKilometerER10UErrorCode
libnode.so:_ZN6icu_6511MeasureUnit21getBritishThermalUnitEv
libnode.so:_ZN6icu_6511MeasureUnit21getFluidOunceImperialEv
libnode.so:_ZN6icu_6511MeasureUnit21getGenericTemperatureEv
libnode.so:_ZN6icu_6511MeasureUnit21getPixelPerCentimeterEv
libnode.so:_ZN6icu_6511MeasureUnit21getPoundPerSquareInchEv
libnode.so:_ZN6icu_6511MeasureUnit22createAstronomicalUnitER10UErrorCode
libnode.so:_ZN6icu_6511MeasureUnit22createDotPerCentimeterER10UErrorCode
libnode.so:_ZN6icu_6511MeasureUnit22createKilometerPerHourER10UErrorCode
libnode.so:_ZN6icu_6511MeasureUnit22createMileScandinavianER10UErrorCode
libnode.so:_ZN6icu_6511MeasureUnit22createSquareCentimeterER10UErrorCode
libnode.so:_ZN6icu_6511MeasureUnit22getMillimeterOfMercuryEv
libnode.so:_ZN6icu_6511MeasureUnit23createLiterPerKilometerER10UErrorCode
libnode.so:_ZN6icu_6511MeasureUnit23createMillimolePerLiterER10UErrorCode
libnode.so:_ZN6icu_6511MeasureUnit24createBritishThermalUnitER10UErrorCode
libnode.so:_ZN6icu_6511MeasureUnit24createFluidOunceImperialER10UErrorCode
libnode.so:_ZN6icu_6511MeasureUnit24createGenericTemperatureER10UErrorCode
libnode.so:_ZN6icu_6511MeasureUnit24createPixelPerCentimeterER10UErrorCode
libnode.so:_ZN6icu_6511MeasureUnit24createPoundPerSquareInchER10UErrorCode
libnode.so:_ZN6icu_6511MeasureUnit24getLiterPer100KilometersEv
libnode.so:_ZN6icu_6511MeasureUnit24getMeterPerSecondSquaredEv
libnode.so:_ZN6icu_6511MeasureUnit24getMilePerGallonImperialEv
libnode.so:_ZN6icu_6511MeasureUnit24getMilligramPerDeciliterEv
libnode.so:_ZN6icu_6511MeasureUnit25createMillimeterOfMercuryER10UErrorCode
libnode.so:_ZN6icu_6511MeasureUnit27createLiterPer100KilometersER10UErrorCode
libnode.so:_ZN6icu_6511MeasureUnit27createMeterPerSecondSquaredER10UErrorCode
libnode.so:_ZN6icu_6511MeasureUnit27createMilePerGallonImperialER10UErrorCode
libnode.so:_ZN6icu_6511MeasureUnit27createMilligramPerDeciliterER10UErrorCode
libnode.so:_ZN6icu_6511MeasureUnit33internalGetIndexForTypeAndSubtypeEPKcS2_
libnode.so:_ZN6icu_6511MeasureUnit5getEmEv
libnode.so:_ZN6icu_6511MeasureUnit5setToEii
libnode.so:_ZN6icu_6511MeasureUnit6createEiiR10UErrorCode
libnode.so:_ZN6icu_6511MeasureUnit6getBarEv
libnode.so:_ZN6icu_6511MeasureUnit6getBitEv
libnode.so:_ZN6icu_6511MeasureUnit6getCupEv
libnode.so:_ZN6icu_6511MeasureUnit6getDayEv
libnode.so:_ZN6icu_6511MeasureUnit6getLuxEv
libnode.so:_ZN6icu_6511MeasureUnit6getOhmEv
libnode.so:_ZN6icu_6511MeasureUnit6getTonEv
libnode.so:_ZN6icu_6511MeasureUnit7getAcreEv
libnode.so:_ZN6icu_6511MeasureUnit7getByteEv
libnode.so:_ZN6icu_6511MeasureUnit7getFootEv
libnode.so:_ZN6icu_6511MeasureUnit7getGramEv
libnode.so:_ZN6icu_6511MeasureUnit7getHourEv
libnode.so:_ZN6icu_6511MeasureUnit7getInchEv
libnode.so:_ZN6icu_6511MeasureUnit7getKnotEv
libnode.so:_ZN6icu_6511MeasureUnit7getMileEv
libnode.so:_ZN6icu_6511MeasureUnit7getMoleEv
libnode.so:_ZN6icu_6511MeasureUnit7getPintEv
libnode.so:_ZN6icu_6511MeasureUnit7getVoltEv
libnode.so:_ZN6icu_6511MeasureUnit7getWattEv
libnode.so:_ZN6icu_6511MeasureUnit7getWeekEv
libnode.so:_ZN6icu_6511MeasureUnit7getYardEv
libnode.so:_ZN6icu_6511MeasureUnit7getYearEv
libnode.so:_ZN6icu_6511MeasureUnit8createEmER10UErrorCode
libnode.so:_ZN6icu_6511MeasureUnit8getCaratEv
libnode.so:_ZN6icu_6511MeasureUnit8getDunamEv
libnode.so:_ZN6icu_6511MeasureUnit8getHertzEv
libnode.so:_ZN6icu_6511MeasureUnit8getJouleEv
libnode.so:_ZN6icu_6511MeasureUnit8getKaratEv
libnode.so:_ZN6icu_6511MeasureUnit8getLiterEv
libnode.so:_ZN6icu_6511MeasureUnit8getMeterEv
libnode.so:_ZN6icu_6511MeasureUnit8getMonthEv
libnode.so:_ZN6icu_6511MeasureUnit8getOunceEv
libnode.so:_ZN6icu_6511MeasureUnit8getPixelEv
libnode.so:_ZN6icu_6511MeasureUnit8getPointEv
libnode.so:_ZN6icu_6511MeasureUnit8getPoundEv
libnode.so:_ZN6icu_6511MeasureUnit8getQuartEv
libnode.so:_ZN6icu_6511MeasureUnit8getStoneEv
libnode.so:_ZN6icu_6511MeasureUnit8initTimeEPKc
libnode.so:_ZN6icu_6511MeasureUnit9createBarER10UErrorCode
libnode.so:_ZN6icu_6511MeasureUnit9createBitER10UErrorCode
libnode.so:_ZN6icu_6511MeasureUnit9createCupER10UErrorCode
libnode.so:_ZN6icu_6511MeasureUnit9createDayER10UErrorCode
libnode.so:_ZN6icu_6511MeasureUnit9createLuxER10UErrorCode
libnode.so:_ZN6icu_6511MeasureUnit9createOhmER10UErrorCode
libnode.so:_ZN6icu_6511MeasureUnit9createTonER10UErrorCode
libnode.so:_ZN6icu_6511MeasureUnit9getAmpereEv
libnode.so:_ZN6icu_6511MeasureUnit9getBarrelEv
libnode.so:_ZN6icu_6511MeasureUnit9getBushelEv
libnode.so:_ZN6icu_6511MeasureUnit9getDaltonEv
libnode.so:_ZN6icu_6511MeasureUnit9getDecadeEv
libnode.so:_ZN6icu_6511MeasureUnit9getDegreeEv
libnode.so:_ZN6icu_6511MeasureUnit9getFathomEv
libnode.so:_ZN6icu_6511MeasureUnit9getGForceEv
libnode.so:_ZN6icu_6511MeasureUnit9getGallonEv
libnode.so:_ZN6icu_6511MeasureUnit9getInchHgEv
libnode.so:_ZN6icu_6511MeasureUnit9getKelvinEv
libnode.so:_ZN6icu_6511MeasureUnit9getMinuteEv
libnode.so:_ZN6icu_6511MeasureUnit9getNewtonEv
libnode.so:_ZN6icu_6511MeasureUnit9getParsecEv
libnode.so:_ZN6icu_6511MeasureUnit9getPascalEv
libnode.so:_ZN6icu_6511MeasureUnit9getRadianEv
libnode.so:_ZN6icu_6511MeasureUnit9getSecondEv
libnode.so:_ZN6icu_6511MeasureUnitC1ERKS0_
libnode.so:_ZN6icu_6511MeasureUnitC1Ev
libnode.so:_ZN6icu_6511MeasureUnitC2ERKS0_
libnode.so:_ZN6icu_6511MeasureUnitC2Ev
libnode.so:_ZN6icu_6511MeasureUnitD0Ev
libnode.so:_ZN6icu_6511MeasureUnitD1Ev
libnode.so:_ZN6icu_6511MeasureUnitD2Ev
libnode.so:_ZN6icu_6511MeasureUnitaSERKS0_
libnode.so:_ZN6icu_6511MessageImpl24appendReducedApostrophesERKNS_13UnicodeStringEiiRS1_
libnode.so:_ZN6icu_6511MessageImpl33appendSubMessageWithoutSkipSyntaxERKNS_14MessagePatternEiRNS_13UnicodeStringE
libnode.so:_ZN6icu_6511NGramParser15parseCharactersEPNS_9InputTextE
libnode.so:_ZN6icu_6511NGramParser5parseEPNS_9InputTextE
libnode.so:_ZN6icu_6511NGramParser6lookupEi
libnode.so:_ZN6icu_6511NGramParser6searchEPKii
libnode.so:_ZN6icu_6511NGramParser7addByteEi
libnode.so:_ZN6icu_6511NGramParser8nextByteEPNS_9InputTextE
libnode.so:_ZN6icu_6511NGramParserC1EPKiPKh
libnode.so:_ZN6icu_6511NGramParserC2EPKiPKh
libnode.so:_ZN6icu_6511NGramParserD0Ev
libnode.so:_ZN6icu_6511NGramParserD1Ev
libnode.so:_ZN6icu_6511NGramParserD2Ev
libnode.so:_ZN6icu_6511Normalizer211getInstanceEPKcS2_19UNormalization2ModeR10UErrorCode
libnode.so:_ZN6icu_6511Normalizer214getNFCInstanceER10UErrorCode
libnode.so:_ZN6icu_6511Normalizer214getNFDInstanceER10UErrorCode
