cjpeg:_IO_stdin_used
cjpeg:__bss_start
cjpeg:__data_start
cjpeg:_edata
cjpeg:_end
cjpeg:_start
cjpeg:jinit_read_bmp
cjpeg:jinit_read_gif
cjpeg:jinit_read_ppm
cjpeg:jinit_read_targa
cjpeg:keymatch
cjpeg:main
cjpeg:memdst
cjpeg:read_quant_tables
cjpeg:read_scan_script
cjpeg:read_stdin
cjpeg:set_quality_ratings
cjpeg:set_quant_slots
cjpeg:set_sample_factors
cjpeg:write_stdout
djpeg:_IO_stdin_used
djpeg:__bss_start
djpeg:__data_start
djpeg:_edata
djpeg:_end
djpeg:_start
djpeg:crop
djpeg:crop_height
djpeg:crop_width
djpeg:crop_x
djpeg:crop_y
djpeg:jinit_write_bmp
djpeg:jinit_write_gif
djpeg:jinit_write_ppm
djpeg:jinit_write_targa
djpeg:keymatch
djpeg:main
djpeg:memsrc
djpeg:read_color_map
djpeg:read_quant_tables
djpeg:read_scan_script
djpeg:read_stdin
djpeg:set_quality_ratings
djpeg:set_quant_slots
djpeg:set_sample_factors
djpeg:skip
djpeg:skip_end
djpeg:skip_start
djpeg:write_stdout
jpegtran:_IO_stdin_used
jpegtran:__bss_start
jpegtran:__data_start
jpegtran:_edata
jpegtran:_end
jpegtran:_start
jpegtran:jcopy_markers_execute
jpegtran:jcopy_markers_setup
jpegtran:jtransform_adjust_parameters
jpegtran:jtransform_execute_transform
jpegtran:jtransform_parse_crop_spec
jpegtran:jtransform_perfect_transform
jpegtran:jtransform_request_workspace
jpegtran:keymatch
jpegtran:main
jpegtran:read_quant_tables
jpegtran:read_scan_script
jpegtran:read_stdin
jpegtran:set_quality_ratings
jpegtran:set_quant_slots
jpegtran:set_sample_factors
jpegtran:write_stdout
libISpell.so:BC
libISpell.so:LaTeX_Mode
libISpell.so:Try
libISpell.so:Trynum
libISpell.so:_read_fd
libISpell.so:_write_fd
libISpell.so:add_expansion_copy
libISpell.so:addvheader
libISpell.so:aflag
libISpell.so:askfilename
libISpell.so:askmode
libISpell.so:askverbose
libISpell.so:backup
libISpell.so:bc_spell_checker
libISpell.so:cap_ok
libISpell.so:casecmp
libISpell.so:cd
libISpell.so:cflag
libISpell.so:changes
libISpell.so:chartypes
libISpell.so:checkfile
libISpell.so:checkline
libISpell.so:chk_aff
libISpell.so:chupcase
libISpell.so:cl
libISpell.so:cm
libISpell.so:co
libISpell.so:combinecaps
libISpell.so:compoundflag
libISpell.so:compoundgood
libISpell.so:contextbufs
libISpell.so:contextoffset
libISpell.so:contextsize
libISpell.so:copyout
libISpell.so:correct
libISpell.so:correct_verbose_mode
libISpell.so:ctoken
libISpell.so:currentfile
libISpell.so:defmtpgm
libISpell.so:defstringgroup
libISpell.so:deftflag
libISpell.so:done
libISpell.so:dumpflag
libISpell.so:dumpmode
libISpell.so:easypossibilities
libISpell.so:eflag
libISpell.so:exp_table_dump
libISpell.so:exp_table_empty
libISpell.so:exp_table_init
libISpell.so:expand_pre
libISpell.so:expand_suf
libISpell.so:fflag
libISpell.so:fieldfree
libISpell.so:fieldmake
libISpell.so:fieldread
libISpell.so:fieldwrite
libISpell.so:filteredbuf
libISpell.so:findfiletype
libISpell.so:flagpr
libISpell.so:get_expansion
libISpell.so:get_flags
libISpell.so:get_orig_word
libISpell.so:givehelp
libISpell.so:good
libISpell.so:hash
libISpell.so:hashheader
libISpell.so:hashname
libISpell.so:hashsize
libISpell.so:hashstrings
libISpell.so:hashtbl
libISpell.so:hits
libISpell.so:ho
libISpell.so:htmlchecklist
libISpell.so:htmlignorelist
libISpell.so:icharcmp
libISpell.so:icharcpy
libISpell.so:icharlen
libISpell.so:icharncmp
libISpell.so:ichartosstr
libISpell.so:ichartostr
libISpell.so:ierase
libISpell.so:imove
libISpell.so:incfileflag
libISpell.so:infile
libISpell.so:init_keyword_table
libISpell.so:initckch
libISpell.so:inpossibilities
libISpell.so:ins_root_cap
libISpell.so:insidehtml
libISpell.so:inverse
libISpell.so:ispell_main
libISpell.so:itoken
libISpell.so:last_slash
libISpell.so:laststringch
libISpell.so:lflag
libISpell.so:li
libISpell.so:linit
libISpell.so:logfile
libISpell.so:lookup
libISpell.so:lowcase
libISpell.so:makedent
libISpell.so:makepossibilities
libISpell.so:math_mode
libISpell.so:maxposslen
libISpell.so:minimenusize
libISpell.so:minword
libISpell.so:myfree
libISpell.so:mymalloc
libISpell.so:nd
libISpell.so:nodictflag
libISpell.so:normal
libISpell.so:num_expansions
libISpell.so:numhits
libISpell.so:numpflags
libISpell.so:numsflags
libISpell.so:outfile
libISpell.so:pcount
libISpell.so:pflagindex
libISpell.so:pflaglist
libISpell.so:pipemode
libISpell.so:possibilities
libISpell.so:prefstringchar
libISpell.so:printichar
libISpell.so:quit
libISpell.so:readonly
libISpell.so:se
libISpell.so:sflagindex
libISpell.so:sflaglist
libISpell.so:sg
libISpell.so:shellescape
libISpell.so:skipoverword
libISpell.so:so
libISpell.so:sortit
libISpell.so:sourcefile
libISpell.so:stop
libISpell.so:stringcharlen
libISpell.so:strtoichar
libISpell.so:strtosichar
libISpell.so:te
libISpell.so:tempfile
libISpell.so:termcap
libISpell.so:terminit
libISpell.so:termptr
libISpell.so:termstr
libISpell.so:terse
libISpell.so:texskip1list
libISpell.so:texskip2list
libISpell.so:tflag
libISpell.so:tgetent
libISpell.so:tgetnum
libISpell.so:tgetstr
libISpell.so:tgoto
libISpell.so:ti
libISpell.so:toutent
libISpell.so:tputs
libISpell.so:treeinit
libISpell.so:treeinsert
libISpell.so:treelookup
libISpell.so:treeoutput
libISpell.so:tryhardflag
libISpell.so:uerasechar
libISpell.so:ukillchar
libISpell.so:upcase
libISpell.so:vflag
libISpell.so:whatcap
libISpell.so:xflag
libISpell.so:xgets
libQt5Keychain.so.1:_ZN12GnomeKeyring11isAvailableEv
libQt5Keychain.so.1:_ZN12GnomeKeyring11qt_metacallEN11QMetaObject4CallEiPPv
libQt5Keychain.so.1:_ZN12GnomeKeyring11qt_metacastEPKc
libQt5Keychain.so.1:_ZN12GnomeKeyring16staticMetaObjectE
libQt5Keychain.so.1:_ZN12GnomeKeyring21GNOME_KEYRING_DEFAULTE
libQt5Keychain.so.1:_ZN12GnomeKeyring21find_network_passwordEPKcS1_S1_PFvNS_6ResultEbS1_PvES3_PFvS3_E
libQt5Keychain.so.1:_ZN12GnomeKeyring22store_network_passwordEPKcS1_S1_S1_S1_S1_PFvNS_6ResultEPvES3_PFvS3_E
libQt5Keychain.so.1:_ZN12GnomeKeyring23delete_network_passwordEPKcS1_PFvNS_6ResultEPvES3_PFvS3_E
libQt5Keychain.so.1:_ZN12GnomeKeyring8instanceEv
libQt5Keychain.so.1:_ZN12GnomeKeyringC1Ev
libQt5Keychain.so.1:_ZN12GnomeKeyringC2Ev
libQt5Keychain.so.1:_ZN16LibSecretKeyring11isAvailableEv
libQt5Keychain.so.1:_ZN16LibSecretKeyring12findPasswordERK7QStringS2_PN9QKeychain10JobPrivateE
libQt5Keychain.so.1:_ZN16LibSecretKeyring13writePasswordERK7QStringS2_S2_N9QKeychain10JobPrivate4ModeERK10QByteArrayPS4_
libQt5Keychain.so.1:_ZN16LibSecretKeyring14deletePasswordERK7QStringS2_PN9QKeychain10JobPrivateE
libQt5Keychain.so.1:_ZN16LibSecretKeyring8instanceEv
libQt5Keychain.so.1:_ZN16LibSecretKeyringC1Ev
libQt5Keychain.so.1:_ZN16LibSecretKeyringC2Ev
libQt5Keychain.so.1:_ZN22OrgKdeKWalletInterface11qt_metacallEN11QMetaObject4CallEiPPv
libQt5Keychain.so.1:_ZN22OrgKdeKWalletInterface11qt_metacastEPKc
libQt5Keychain.so.1:_ZN22OrgKdeKWalletInterface12walletClosedERK7QString
libQt5Keychain.so.1:_ZN22OrgKdeKWalletInterface12walletClosedEi
libQt5Keychain.so.1:_ZN22OrgKdeKWalletInterface12walletOpenedERK7QString
libQt5Keychain.so.1:_ZN22OrgKdeKWalletInterface13folderUpdatedERK7QStringS2_
libQt5Keychain.so.1:_ZN22OrgKdeKWalletInterface13walletCreatedERK7QString
libQt5Keychain.so.1:_ZN22OrgKdeKWalletInterface13walletDeletedERK7QString
libQt5Keychain.so.1:_ZN22OrgKdeKWalletInterface15walletListDirtyEv
libQt5Keychain.so.1:_ZN22OrgKdeKWalletInterface16allWalletsClosedEv
libQt5Keychain.so.1:_ZN22OrgKdeKWalletInterface16staticMetaObjectE
libQt5Keychain.so.1:_ZN22OrgKdeKWalletInterface17folderListUpdatedERK7QString
libQt5Keychain.so.1:_ZN22OrgKdeKWalletInterface17walletAsyncOpenedEii
libQt5Keychain.so.1:_ZN22OrgKdeKWalletInterface23applicationDisconnectedERK7QStringS2_
libQt5Keychain.so.1:_ZN22OrgKdeKWalletInterfaceC1ERK7QStringS2_RK15QDBusConnectionP7QObject
libQt5Keychain.so.1:_ZN22OrgKdeKWalletInterfaceC2ERK7QStringS2_RK15QDBusConnectionP7QObject
libQt5Keychain.so.1:_ZN22OrgKdeKWalletInterfaceD0Ev
libQt5Keychain.so.1:_ZN22OrgKdeKWalletInterfaceD1Ev
libQt5Keychain.so.1:_ZN22OrgKdeKWalletInterfaceD2Ev
libQt5Keychain.so.1:_ZN9QKeychain10JobPrivate11qt_metacallEN11QMetaObject4CallEiPPv
libQt5Keychain.so.1:_ZN9QKeychain10JobPrivate11qt_metacastEPKc
libQt5Keychain.so.1:_ZN9QKeychain10JobPrivate12modeToStringENS0_4ModeE
libQt5Keychain.so.1:_ZN9QKeychain10JobPrivate12stringToModeERK7QString
libQt5Keychain.so.1:_ZN9QKeychain10JobPrivate15kwalletFinishedEP23QDBusPendingCallWatcher
libQt5Keychain.so.1:_ZN9QKeychain10JobPrivate16staticMetaObjectE
libQt5Keychain.so.1:_ZN9QKeychain10JobPrivate18kwalletWalletFoundEP23QDBusPendingCallWatcher
libQt5Keychain.so.1:_ZN9QKeychain10JobPrivate19gnomeKeyring_readCbEiPKcPS0_
libQt5Keychain.so.1:_ZN9QKeychain10JobPrivate19kwalletOpenFinishedEP23QDBusPendingCallWatcher
libQt5Keychain.so.1:_ZN9QKeychain10JobPrivate20gnomeKeyring_writeCbEiPS0_
libQt5Keychain.so.1:_ZN9QKeychain10JobPrivateC1ERK7QStringPNS_3JobE
libQt5Keychain.so.1:_ZN9QKeychain10JobPrivateC2ERK7QStringPNS_3JobE
libQt5Keychain.so.1:_ZN9QKeychain11JobExecutor10s_instanceE
libQt5Keychain.so.1:_ZN9QKeychain11JobExecutor11jobFinishedEPNS_3JobE
libQt5Keychain.so.1:_ZN9QKeychain11JobExecutor11qt_metacallEN11QMetaObject4CallEiPPv
libQt5Keychain.so.1:_ZN9QKeychain11JobExecutor11qt_metacastEPKc
libQt5Keychain.so.1:_ZN9QKeychain11JobExecutor12jobDestroyedEP7QObject
libQt5Keychain.so.1:_ZN9QKeychain11JobExecutor16staticMetaObjectE
libQt5Keychain.so.1:_ZN9QKeychain11JobExecutor22startNextIfNoneRunningEv
libQt5Keychain.so.1:_ZN9QKeychain11JobExecutor7enqueueEPNS_3JobE
libQt5Keychain.so.1:_ZN9QKeychain11JobExecutor8instanceEv
libQt5Keychain.so.1:_ZN9QKeychain11JobExecutorC1Ev
libQt5Keychain.so.1:_ZN9QKeychain11JobExecutorC2Ev
libQt5Keychain.so.1:_ZN9QKeychain14PlainTextStore4readERK7QString
libQt5Keychain.so.1:_ZN9QKeychain14PlainTextStore5writeERK7QStringRK10QByteArrayNS_10JobPrivate4ModeE
libQt5Keychain.so.1:_ZN9QKeychain14PlainTextStore6removeERK7QString
libQt5Keychain.so.1:_ZN9QKeychain14PlainTextStore8readDataERK7QString
libQt5Keychain.so.1:_ZN9QKeychain14PlainTextStore8readModeERK7QString
libQt5Keychain.so.1:_ZN9QKeychain14PlainTextStore8setErrorENS_5ErrorERK7QString
libQt5Keychain.so.1:_ZN9QKeychain14PlainTextStoreC1ERK7QStringP9QSettings
libQt5Keychain.so.1:_ZN9QKeychain14PlainTextStoreC2ERK7QStringP9QSettings
libQt5Keychain.so.1:_ZN9QKeychain15ReadPasswordJob11qt_metacallEN11QMetaObject4CallEiPPv
libQt5Keychain.so.1:_ZN9QKeychain15ReadPasswordJob11qt_metacastEPKc
libQt5Keychain.so.1:_ZN9QKeychain15ReadPasswordJob16staticMetaObjectE
libQt5Keychain.so.1:_ZN9QKeychain15ReadPasswordJobC1ERK7QStringP7QObject
libQt5Keychain.so.1:_ZN9QKeychain15ReadPasswordJobC2ERK7QStringP7QObject
libQt5Keychain.so.1:_ZN9QKeychain15ReadPasswordJobD0Ev
libQt5Keychain.so.1:_ZN9QKeychain15ReadPasswordJobD1Ev
libQt5Keychain.so.1:_ZN9QKeychain15ReadPasswordJobD2Ev
libQt5Keychain.so.1:_ZN9QKeychain16WritePasswordJob11qt_metacallEN11QMetaObject4CallEiPPv
libQt5Keychain.so.1:_ZN9QKeychain16WritePasswordJob11qt_metacastEPKc
libQt5Keychain.so.1:_ZN9QKeychain16WritePasswordJob11setTextDataERK7QString
libQt5Keychain.so.1:_ZN9QKeychain16WritePasswordJob13setBinaryDataERK10QByteArray
libQt5Keychain.so.1:_ZN9QKeychain16WritePasswordJob16staticMetaObjectE
libQt5Keychain.so.1:_ZN9QKeychain16WritePasswordJobC1ERK7QStringP7QObject
libQt5Keychain.so.1:_ZN9QKeychain16WritePasswordJobC2ERK7QStringP7QObject
libQt5Keychain.so.1:_ZN9QKeychain16WritePasswordJobD0Ev
libQt5Keychain.so.1:_ZN9QKeychain16WritePasswordJobD1Ev
libQt5Keychain.so.1:_ZN9QKeychain16WritePasswordJobD2Ev
libQt5Keychain.so.1:_ZN9QKeychain17DeletePasswordJob11qt_metacallEN11QMetaObject4CallEiPPv
libQt5Keychain.so.1:_ZN9QKeychain17DeletePasswordJob11qt_metacastEPKc
libQt5Keychain.so.1:_ZN9QKeychain17DeletePasswordJob16staticMetaObjectE
libQt5Keychain.so.1:_ZN9QKeychain17DeletePasswordJobC1ERK7QStringP7QObject
libQt5Keychain.so.1:_ZN9QKeychain17DeletePasswordJobC2ERK7QStringP7QObject
libQt5Keychain.so.1:_ZN9QKeychain17DeletePasswordJobD0Ev
libQt5Keychain.so.1:_ZN9QKeychain17DeletePasswordJobD1Ev
libQt5Keychain.so.1:_ZN9QKeychain17DeletePasswordJobD2Ev
libQt5Keychain.so.1:_ZN9QKeychain22ReadPasswordJobPrivate11qt_metacallEN11QMetaObject4CallEiPPv
libQt5Keychain.so.1:_ZN9QKeychain22ReadPasswordJobPrivate11qt_metacastEPKc
libQt5Keychain.so.1:_ZN9QKeychain22ReadPasswordJobPrivate14scheduledStartEv
libQt5Keychain.so.1:_ZN9QKeychain22ReadPasswordJobPrivate15fallbackOnErrorERK10QDBusError
libQt5Keychain.so.1:_ZN9QKeychain22ReadPasswordJobPrivate15kwalletFinishedEP23QDBusPendingCallWatcher
libQt5Keychain.so.1:_ZN9QKeychain22ReadPasswordJobPrivate16staticMetaObjectE
libQt5Keychain.so.1:_ZN9QKeychain22ReadPasswordJobPrivate19kwalletOpenFinishedEP23QDBusPendingCallWatcher
libQt5Keychain.so.1:_ZN9QKeychain22ReadPasswordJobPrivate24kwalletEntryTypeFinishedEP23QDBusPendingCallWatcher
libQt5Keychain.so.1:_ZN9QKeychain22ReadPasswordJobPrivateC1ERK7QStringPNS_15ReadPasswordJobE
libQt5Keychain.so.1:_ZN9QKeychain22ReadPasswordJobPrivateC2ERK7QStringPNS_15ReadPasswordJobE
libQt5Keychain.so.1:_ZN9QKeychain23WritePasswordJobPrivate11qt_metacallEN11QMetaObject4CallEiPPv
libQt5Keychain.so.1:_ZN9QKeychain23WritePasswordJobPrivate11qt_metacastEPKc
libQt5Keychain.so.1:_ZN9QKeychain23WritePasswordJobPrivate14scheduledStartEv
libQt5Keychain.so.1:_ZN9QKeychain23WritePasswordJobPrivate15fallbackOnErrorERK10QDBusError
libQt5Keychain.so.1:_ZN9QKeychain23WritePasswordJobPrivate16staticMetaObjectE
libQt5Keychain.so.1:_ZN9QKeychain23WritePasswordJobPrivateC1ERK7QStringPNS_16WritePasswordJobE
libQt5Keychain.so.1:_ZN9QKeychain23WritePasswordJobPrivateC2ERK7QStringPNS_16WritePasswordJobE
libQt5Keychain.so.1:_ZN9QKeychain24DeletePasswordJobPrivate11qt_metacallEN11QMetaObject4CallEiPPv
libQt5Keychain.so.1:_ZN9QKeychain24DeletePasswordJobPrivate11qt_metacastEPKc
libQt5Keychain.so.1:_ZN9QKeychain24DeletePasswordJobPrivate14scheduledStartEv
libQt5Keychain.so.1:_ZN9QKeychain24DeletePasswordJobPrivate15fallbackOnErrorERK10QDBusError
libQt5Keychain.so.1:_ZN9QKeychain24DeletePasswordJobPrivate16staticMetaObjectE
libQt5Keychain.so.1:_ZN9QKeychain24DeletePasswordJobPrivateC1ERK7QStringPNS_17DeletePasswordJobE
libQt5Keychain.so.1:_ZN9QKeychain24DeletePasswordJobPrivateC2ERK7QStringPNS_17DeletePasswordJobE
libQt5Keychain.so.1:_ZN9QKeychain3Job11qt_metacallEN11QMetaObject4CallEiPPv
libQt5Keychain.so.1:_ZN9QKeychain3Job11qt_metacastEPKc
libQt5Keychain.so.1:_ZN9QKeychain3Job11setSettingsEP9QSettings
libQt5Keychain.so.1:_ZN9QKeychain3Job12emitFinishedEv
libQt5Keychain.so.1:_ZN9QKeychain3Job13setAutoDeleteEb
libQt5Keychain.so.1:_ZN9QKeychain3Job14scheduledStartEv
libQt5Keychain.so.1:_ZN9QKeychain3Job14setErrorStringERK7QString
libQt5Keychain.so.1:_ZN9QKeychain3Job16staticMetaObjectE
libQt5Keychain.so.1:_ZN9QKeychain3Job19setInsecureFallbackEb
libQt5Keychain.so.1:_ZN9QKeychain3Job21emitFinishedWithErrorENS_5ErrorERK7QString
libQt5Keychain.so.1:_ZN9QKeychain3Job5startEv
libQt5Keychain.so.1:_ZN9QKeychain3Job6setKeyERK7QString
libQt5Keychain.so.1:_ZN9QKeychain3Job7doStartEv
libQt5Keychain.so.1:_ZN9QKeychain3Job8finishedEPS0_
libQt5Keychain.so.1:_ZN9QKeychain3Job8setErrorENS_5ErrorE
libQt5Keychain.so.1:_ZN9QKeychain3JobC1EPNS_10JobPrivateEP7QObject
libQt5Keychain.so.1:_ZN9QKeychain3JobC2EPNS_10JobPrivateEP7QObject
libQt5Keychain.so.1:_ZN9QKeychain3JobD0Ev
libQt5Keychain.so.1:_ZN9QKeychain3JobD1Ev
libQt5Keychain.so.1:_ZN9QKeychain3JobD2Ev
libQt5Keychain.so.1:_ZNK12GnomeKeyring10metaObjectEv
libQt5Keychain.so.1:_ZNK22OrgKdeKWalletInterface10metaObjectEv
libQt5Keychain.so.1:_ZNK9QKeychain10JobPrivate10metaObjectEv
libQt5Keychain.so.1:_ZNK9QKeychain11JobExecutor10metaObjectEv
libQt5Keychain.so.1:_ZNK9QKeychain14PlainTextStore8containsERK7QString
libQt5Keychain.so.1:_ZNK9QKeychain15ReadPasswordJob10binaryDataEv
libQt5Keychain.so.1:_ZNK9QKeychain15ReadPasswordJob10metaObjectEv
libQt5Keychain.so.1:_ZNK9QKeychain15ReadPasswordJob8textDataEv
libQt5Keychain.so.1:_ZNK9QKeychain16WritePasswordJob10metaObjectEv
libQt5Keychain.so.1:_ZNK9QKeychain17DeletePasswordJob10metaObjectEv
libQt5Keychain.so.1:_ZNK9QKeychain22ReadPasswordJobPrivate10metaObjectEv
libQt5Keychain.so.1:_ZNK9QKeychain23WritePasswordJobPrivate10metaObjectEv
libQt5Keychain.so.1:_ZNK9QKeychain24DeletePasswordJobPrivate10metaObjectEv
libQt5Keychain.so.1:_ZNK9QKeychain3Job10autoDeleteEv
libQt5Keychain.so.1:_ZNK9QKeychain3Job10metaObjectEv
libQt5Keychain.so.1:_ZNK9QKeychain3Job11errorStringEv
libQt5Keychain.so.1:_ZNK9QKeychain3Job16insecureFallbackEv
libQt5Keychain.so.1:_ZNK9QKeychain3Job3keyEv
libQt5Keychain.so.1:_ZNK9QKeychain3Job5errorEv
libQt5Keychain.so.1:_ZNK9QKeychain3Job7serviceEv
libQt5Keychain.so.1:_ZNK9QKeychain3Job8settingsEv
libapp-plugin.so:_ZN13PluginDataAPI11qt_metacallEN11QMetaObject4CallEiPPv
libapp-plugin.so:_ZN13PluginDataAPI11qt_metacastEPKc
libapp-plugin.so:_ZN13PluginDataAPI12dataReceivedERKNS_16PluginCapabilityE7QVectorI9QMultiMapI7QStringS5_EE
libapp-plugin.so:_ZN13PluginDataAPI14getInputFieldsERKNS_16PluginCapabilityE
libapp-plugin.so:_ZN13PluginDataAPI14setInputFieldsERKNS_16PluginCapabilityERK4QMapI7QString8QVariantE
libapp-plugin.so:_ZN13PluginDataAPI15getPluginLoaderEv
libapp-plugin.so:_ZN13PluginDataAPI16staticMetaObjectE
libapp-plugin.so:_ZN13PluginDataAPI17loadConfigurationERKNS_16PluginCapabilityE
libapp-plugin.so:_ZN13PluginDataAPI17saveConfigurationERKNS_16PluginCapabilityE
libapp-plugin.so:_ZN13PluginDataAPI18inputFieldsChangedERKNS_16PluginCapabilityERK4QMapI7QString8QVariantE
libapp-plugin.so:_ZN13PluginDataAPI20getInputFieldsToSaveERKNS_16PluginCapabilityE
libapp-plugin.so:_ZN13PluginDataAPI22cleanAllConfigurationsEv
libapp-plugin.so:_ZN13PluginDataAPI23setSectionConfigurationERK7QString
libapp-plugin.so:_ZN13PluginDataAPI7messageERK9QtMsgTypeRK7QString
libapp-plugin.so:_ZN13PluginDataAPIC1EP14LinphonePluginPvP13QPluginLoader
libapp-plugin.so:_ZN13PluginDataAPIC2EP14LinphonePluginPvP13QPluginLoader
libapp-plugin.so:_ZN13PluginDataAPID0Ev
libapp-plugin.so:_ZN13PluginDataAPID1Ev
libapp-plugin.so:_ZN13PluginDataAPID2Ev
libapp-plugin.so:_ZN19PluginNetworkHelper11handleErrorEN13QNetworkReply12NetworkErrorE
libapp-plugin.so:_ZN19PluginNetworkHelper11qt_metacallEN11QMetaObject4CallEiPPv
libapp-plugin.so:_ZN19PluginNetworkHelper11qt_metacastEPKc
libapp-plugin.so:_ZN19PluginNetworkHelper14handleFinishedEv
libapp-plugin.so:_ZN19PluginNetworkHelper15handleReadyDataEv
libapp-plugin.so:_ZN19PluginNetworkHelper15handleSslErrorsERK5QListI9QSslErrorE
libapp-plugin.so:_ZN19PluginNetworkHelper15requestFinishedERK10QByteArray
libapp-plugin.so:_ZN19PluginNetworkHelper16staticMetaObjectE
libapp-plugin.so:_ZN19PluginNetworkHelper7messageERK9QtMsgTypeRK7QString
libapp-plugin.so:_ZN19PluginNetworkHelper7requestEv
libapp-plugin.so:_ZN19PluginNetworkHelperC1Ev
libapp-plugin.so:_ZN19PluginNetworkHelperC2Ev
libapp-plugin.so:_ZN19PluginNetworkHelperD0Ev
libapp-plugin.so:_ZN19PluginNetworkHelperD1Ev
libapp-plugin.so:_ZN19PluginNetworkHelperD2Ev
libapp-plugin.so:_ZNK13PluginDataAPI10metaObjectEv
libapp-plugin.so:_ZNK19PluginNetworkHelper10metaObjectEv
libbctoolbox-tester.so.1:bc_assert
libbctoolbox-tester.so.1:bc_free
libbctoolbox-tester.so.1:bc_get_number_of_failures
libbctoolbox-tester.so.1:bc_set_trace_handler
libbctoolbox-tester.so.1:bc_sprintf
libbctoolbox-tester.so.1:bc_sprintfva
libbctoolbox-tester.so.1:bc_tester_add_suite
libbctoolbox-tester.so.1:bc_tester_current_suite_name
libbctoolbox-tester.so.1:bc_tester_current_test_name
libbctoolbox-tester.so.1:bc_tester_current_test_tags
libbctoolbox-tester.so.1:bc_tester_file
libbctoolbox-tester.so.1:bc_tester_get_failed_asserts
libbctoolbox-tester.so.1:bc_tester_get_max_parallel_processes
libbctoolbox-tester.so.1:bc_tester_get_resource_dir_prefix
libbctoolbox-tester.so.1:bc_tester_get_writable_dir_prefix
libbctoolbox-tester.so.1:bc_tester_helper
libbctoolbox-tester.so.1:bc_tester_init
libbctoolbox-tester.so.1:bc_tester_list_suites
libbctoolbox-tester.so.1:bc_tester_list_tests
libbctoolbox-tester.so.1:bc_tester_logfile_handler
libbctoolbox-tester.so.1:bc_tester_nb_suites
libbctoolbox-tester.so.1:bc_tester_nb_tests
libbctoolbox-tester.so.1:bc_tester_parse_args
libbctoolbox-tester.so.1:bc_tester_printf
libbctoolbox-tester.so.1:bc_tester_process_events
libbctoolbox-tester.so.1:bc_tester_register_suite
libbctoolbox-tester.so.1:bc_tester_register_suite_by_name
libbctoolbox-tester.so.1:bc_tester_register_suites
libbctoolbox-tester.so.1:bc_tester_res
libbctoolbox-tester.so.1:bc_tester_run_parallel
libbctoolbox-tester.so.1:bc_tester_run_tests
libbctoolbox-tester.so.1:bc_tester_set_global_timeout
libbctoolbox-tester.so.1:bc_tester_set_logfile_func
libbctoolbox-tester.so.1:bc_tester_set_max_failed_tests_threshold
libbctoolbox-tester.so.1:bc_tester_set_max_parallel_suites
libbctoolbox-tester.so.1:bc_tester_set_max_vm
libbctoolbox-tester.so.1:bc_tester_set_process_events_func
libbctoolbox-tester.so.1:bc_tester_set_resource_dir_prefix
libbctoolbox-tester.so.1:bc_tester_set_silent_func
libbctoolbox-tester.so.1:bc_tester_set_verbose_func
libbctoolbox-tester.so.1:bc_tester_set_writable_dir_prefix
libbctoolbox-tester.so.1:bc_tester_silent_handler
libbctoolbox-tester.so.1:bc_tester_start
libbctoolbox-tester.so.1:bc_tester_suite_index
libbctoolbox-tester.so.1:bc_tester_suite_name
libbctoolbox-tester.so.1:bc_tester_test_index
libbctoolbox-tester.so.1:bc_tester_test_name
libbctoolbox-tester.so.1:bc_tester_uninit
libbctoolbox-tester.so.1:bc_tester_verbose_handler
libbctoolbox.so.1:_ZN14BctbxExceptionC1ERKNSt7__cxx1112basic_stringIcSt11char_traitsIcESaIcEEE
libbctoolbox.so.1:_ZN14BctbxExceptionC1ERKS_
libbctoolbox.so.1:_ZN14BctbxExceptionC2ERKNSt7__cxx1112basic_stringIcSt11char_traitsIcESaIcEEE
libbctoolbox.so.1:_ZN14BctbxExceptionC2ERKS_
libbctoolbox.so.1:_ZN9bctoolbox11AEADDecryptINS_12AES256GCM128EEEbRKSt6vectorIhSaIhEES6_S6_S6_S6_RS4_
libbctoolbox.so.1:_ZN9bctoolbox11AEADEncryptINS_12AES256GCM128EEESt6vectorIhSaIhEERKS4_S6_S6_S6_RS4_
libbctoolbox.so.1:_ZN9bctoolbox12AES_key_wrapERKSt6vectorIhSaIhEES4_RS2_NS_5AesIdE
libbctoolbox.so.1:_ZN9bctoolbox12decodeBase64ERKNSt7__cxx1112basic_stringIcSt11char_traitsIcESaIcEEE
libbctoolbox.so.1:_ZN9bctoolbox12encodeBase64B5cxx11ERKSt6vectorIhSaIhEE
libbctoolbox.so.1:_ZN9bctoolbox13VfsEncryption11parseHeaderEv
libbctoolbox.so.1:_ZN9bctoolbox13VfsEncryption11writeHeaderEP16bctbx_vfs_file_t
libbctoolbox.so.1:_ZN9bctoolbox13VfsEncryption12chunkSizeSetEm
libbctoolbox.so.1:_ZN9bctoolbox13VfsEncryption14s_openCallbackE
libbctoolbox.so.1:_ZN9bctoolbox13VfsEncryption15openCallbackGetEv
libbctoolbox.so.1:_ZN9bctoolbox13VfsEncryption15openCallbackSetERKSt8functionIFvRS0_EE
libbctoolbox.so.1:_ZN9bctoolbox13VfsEncryption17secretMaterialSetERKSt6vectorIhSaIhEE
libbctoolbox.so.1:_ZN9bctoolbox13VfsEncryption18encryptionSuiteSetENS_15EncryptionSuiteE
libbctoolbox.so.1:_ZN9bctoolbox13VfsEncryption5writeERKSt6vectorIhSaIhEEm
libbctoolbox.so.1:_ZN9bctoolbox13VfsEncryption8truncateEm
libbctoolbox.so.1:_ZN9bctoolbox13VfsEncryptionC1EP16bctbx_vfs_file_tRKNSt7__cxx1112basic_stringIcSt11char_traitsIcESaIcEEEii
libbctoolbox.so.1:_ZN9bctoolbox13VfsEncryptionC2EP16bctbx_vfs_file_tRKNSt7__cxx1112basic_stringIcSt11char_traitsIcESaIcEEEii
libbctoolbox.so.1:_ZN9bctoolbox13VfsEncryptionD1Ev
libbctoolbox.so.1:_ZN9bctoolbox13VfsEncryptionD2Ev
libbctoolbox.so.1:_ZN9bctoolbox14AES_key_unwrapERKSt6vectorIhSaIhEES4_RS2_NS_5AesIdE
libbctoolbox.so.1:_ZN9bctoolbox14bcEncryptedVfsE
libbctoolbox.so.1:_ZN9bctoolbox21encryptionSuiteStringB5cxx11ENS_15EncryptionSuiteE
libbctoolbox.so.1:_ZN9bctoolbox22VfsEM_AES256GCM_SHA25612decryptChunkEjRKSt6vectorIhSaIhEE
libbctoolbox.so.1:_ZN9bctoolbox22VfsEM_AES256GCM_SHA25612encryptChunkEjRKSt6vectorIhSaIhEE
libbctoolbox.so.1:_ZN9bctoolbox22VfsEM_AES256GCM_SHA25612encryptChunkEjRSt6vectorIhSaIhEERKS3_
libbctoolbox.so.1:_ZN9bctoolbox22VfsEM_AES256GCM_SHA25614checkIntegrityERKNS_13VfsEncryptionE
libbctoolbox.so.1:_ZN9bctoolbox22VfsEM_AES256GCM_SHA25614deriveChunkKeyEj
libbctoolbox.so.1:_ZN9bctoolbox22VfsEM_AES256GCM_SHA25620moduleFileHeaderSizeEv
libbctoolbox.so.1:_ZN9bctoolbox22VfsEM_AES256GCM_SHA25623setModuleSecretMaterialERKSt6vectorIhSaIhEE
libbctoolbox.so.1:_ZN9bctoolbox22VfsEM_AES256GCM_SHA256C1ERKSt6vectorIhSaIhEE
libbctoolbox.so.1:_ZN9bctoolbox22VfsEM_AES256GCM_SHA256C1Ev
libbctoolbox.so.1:_ZN9bctoolbox22VfsEM_AES256GCM_SHA256C2ERKSt6vectorIhSaIhEE
libbctoolbox.so.1:_ZN9bctoolbox22VfsEM_AES256GCM_SHA256C2Ev
libbctoolbox.so.1:_ZN9bctoolbox22VfsEM_AES256GCM_SHA256D0Ev
libbctoolbox.so.1:_ZN9bctoolbox22VfsEM_AES256GCM_SHA256D1Ev
libbctoolbox.so.1:_ZN9bctoolbox22VfsEM_AES256GCM_SHA256D2Ev
libbctoolbox.so.1:_ZN9bctoolbox24VfsEncryptionModuleDummy12decryptChunkEjRKSt6vectorIhSaIhEE
libbctoolbox.so.1:_ZN9bctoolbox24VfsEncryptionModuleDummy12encryptChunkEjRKSt6vectorIhSaIhEE
libbctoolbox.so.1:_ZN9bctoolbox24VfsEncryptionModuleDummy12encryptChunkEjRSt6vectorIhSaIhEERKS3_
libbctoolbox.so.1:_ZN9bctoolbox24VfsEncryptionModuleDummy14checkIntegrityERKNS_13VfsEncryptionE
libbctoolbox.so.1:_ZN9bctoolbox24VfsEncryptionModuleDummy20moduleFileHeaderSizeEv
libbctoolbox.so.1:_ZN9bctoolbox24VfsEncryptionModuleDummy23setModuleSecretMaterialERKSt6vectorIhSaIhEE
libbctoolbox.so.1:_ZN9bctoolbox24VfsEncryptionModuleDummyC1ERKSt6vectorIhSaIhEE
libbctoolbox.so.1:_ZN9bctoolbox24VfsEncryptionModuleDummyC1Ev
libbctoolbox.so.1:_ZN9bctoolbox24VfsEncryptionModuleDummyC2ERKSt6vectorIhSaIhEE
libbctoolbox.so.1:_ZN9bctoolbox24VfsEncryptionModuleDummyC2Ev
libbctoolbox.so.1:_ZN9bctoolbox3RNG10cRandomizeEPhm
libbctoolbox.so.1:_ZN9bctoolbox3RNG10cRandomizeEv
libbctoolbox.so.1:_ZN9bctoolbox3RNG10pImplClassE
libbctoolbox.so.1:_ZN9bctoolbox3RNG9randomizeEPhm
libbctoolbox.so.1:_ZN9bctoolbox3RNG9randomizeEm
libbctoolbox.so.1:_ZN9bctoolbox3RNG9randomizeEv
libbctoolbox.so.1:_ZN9bctoolbox3RNGC1Ev
libbctoolbox.so.1:_ZN9bctoolbox3RNGC2Ev
libbctoolbox.so.1:_ZN9bctoolbox3RNGD1Ev
libbctoolbox.so.1:_ZN9bctoolbox3RNGD2Ev
libbctoolbox.so.1:_ZN9bctoolbox4HKDFINS_6SHA256EEESt6vectorIhSaIhEERKS4_S6_RKNSt7__cxx1112basic_stringIcSt11char_traitsIcESaIcEEEm
libbctoolbox.so.1:_ZN9bctoolbox4HKDFINS_6SHA256EEESt6vectorIhSaIhEERKS4_S6_S6_m
libbctoolbox.so.1:_ZN9bctoolbox4HKDFINS_6SHA384EEESt6vectorIhSaIhEERKS4_S6_RKNSt7__cxx1112basic_stringIcSt11char_traitsIcESaIcEEEm
libbctoolbox.so.1:_ZN9bctoolbox4HKDFINS_6SHA384EEESt6vectorIhSaIhEERKS4_S6_S6_m
libbctoolbox.so.1:_ZN9bctoolbox4HKDFINS_6SHA512EEESt6vectorIhSaIhEERKS4_S6_RKNSt7__cxx1112basic_stringIcSt11char_traitsIcESaIcEEEm
libbctoolbox.so.1:_ZN9bctoolbox4HKDFINS_6SHA512EEESt6vectorIhSaIhEERKS4_S6_S6_m
libbctoolbox.so.1:_ZN9bctoolbox4HMACINS_4SHA1EEESt6vectorIhSaIhEERKS4_S6_
libbctoolbox.so.1:_ZN9bctoolbox4HMACINS_6SHA256EEESt6vectorIhSaIhEERKS4_S6_
libbctoolbox.so.1:_ZN9bctoolbox4HMACINS_6SHA384EEESt6vectorIhSaIhEERKS4_S6_
libbctoolbox.so.1:_ZN9bctoolbox4HMACINS_6SHA512EEESt6vectorIhSaIhEERKS4_S6_
libbctoolbox.so.1:_ZN9bctoolbox5Utils21isExecutableInstalledERKNSt7__cxx1112basic_stringIcSt11char_traitsIcESaIcEEES8_
libbctoolbox.so.1:_ZN9bctoolbox5Utils23getMemoryReportAsStringB5cxx11Ev
libbctoolbox.so.1:_ZN9bctoolbox5Utils4foldERKNSt7__cxx1112basic_stringIcSt11char_traitsIcESaIcEEE
libbctoolbox.so.1:_ZN9bctoolbox5Utils5splitERKNSt7__cxx1112basic_stringIcSt11char_traitsIcESaIcEEES8_
libbctoolbox.so.1:_ZN9bctoolbox5Utils6unfoldERKNSt7__cxx1112basic_stringIcSt11char_traitsIcESaIcEEE
libbctoolbox.so.1:_ZN9bctoolbox5Utils7replaceERNSt7__cxx1112basic_stringIcSt11char_traitsIcESaIcEEERKS6_S9_b
libbctoolbox.so.1:_ZN9bctoolbox7LogTags20sThreadLocalInstanceE
libbctoolbox.so.1:_ZNK14BctbxException15printStackTraceERSo
libbctoolbox.so.1:_ZNK14BctbxException15printStackTraceEv
libbctoolbox.so.1:_ZNK14BctbxException3strB5cxx11Ev
libbctoolbox.so.1:_ZNK14BctbxException4whatEv
libbctoolbox.so.1:_ZNK9bctoolbox13VfsEncryption11fileSizeGetEv
libbctoolbox.so.1:_ZNK9bctoolbox13VfsEncryption11filenameGetB5cxx11Ev
libbctoolbox.so.1:_ZNK9bctoolbox13VfsEncryption12chunkSizeGetEv
libbctoolbox.so.1:_ZNK9bctoolbox13VfsEncryption12rawHeaderGetEv
libbctoolbox.so.1:_ZNK9bctoolbox13VfsEncryption13getChunkIndexEm
libbctoolbox.so.1:_ZNK9bctoolbox13VfsEncryption14getChunkOffsetEj
libbctoolbox.so.1:_ZNK9bctoolbox13VfsEncryption14rawFileSizeGetEv
libbctoolbox.so.1:_ZNK9bctoolbox13VfsEncryption15rawChunkSizeGetEv
libbctoolbox.so.1:_ZNK9bctoolbox13VfsEncryption18encryptionSuiteGetEv
libbctoolbox.so.1:_ZNK9bctoolbox13VfsEncryption4readEmm
libbctoolbox.so.1:_ZNK9bctoolbox22VfsEM_AES256GCM_SHA25618getChunkHeaderSizeEv
libbctoolbox.so.1:_ZNK9bctoolbox22VfsEM_AES256GCM_SHA25619getModuleFileHeaderERKNS_13VfsEncryptionE
libbctoolbox.so.1:_ZNK9bctoolbox22VfsEM_AES256GCM_SHA25621getSecretMaterialSizeEv
libbctoolbox.so.1:_ZNK9bctoolbox22VfsEM_AES256GCM_SHA25623getModuleFileHeaderSizeEv
libbctoolbox.so.1:_ZNK9bctoolbox24VfsEncryptionModuleDummy13getChunkIndexERKSt6vectorIhSaIhEE
libbctoolbox.so.1:_ZNK9bctoolbox24VfsEncryptionModuleDummy17chunkIntegrityTagERKSt6vectorIhSaIhEE
libbctoolbox.so.1:_ZNK9bctoolbox24VfsEncryptionModuleDummy18getChunkHeaderSizeEv
libbctoolbox.so.1:_ZNK9bctoolbox24VfsEncryptionModuleDummy19getModuleFileHeaderERKNS_13VfsEncryptionE
libbctoolbox.so.1:_ZNK9bctoolbox24VfsEncryptionModuleDummy21getSecretMaterialSizeEv
libbctoolbox.so.1:_ZNK9bctoolbox24VfsEncryptionModuleDummy23getModuleFileHeaderSizeEv
libbctoolbox.so.1:_ZNK9bctoolbox24VfsEncryptionModuleDummy8globalIVEv
libbctoolbox.so.1:_ZTHN9bctoolbox7LogTags20sThreadLocalInstanceE
libbctoolbox.so.1:_ZlsRSoRK14BctbxException
libbctoolbox.so.1:__bctbx_thread_create
libbctoolbox.so.1:__bctbx_thread_join
libbctoolbox.so.1:__bctbx_thread_self
libbctoolbox.so.1:_bctbx_freeaddrinfo
libbctoolbox.so.1:_bctbx_list_remove
libbctoolbox.so.1:_bctbx_list_remove_custom
libbctoolbox.so.1:_bctbx_logv_flush
libbctoolbox.so.1:bcStandardVfs
libbctoolbox.so.1:bctbx_CreateDHMContext
libbctoolbox.so.1:bctbx_CreateECDHContext
libbctoolbox.so.1:bctbx_CreateEDDSAContext
libbctoolbox.so.1:bctbx_DHMComputeSecret
libbctoolbox.so.1:bctbx_DHMCreatePublic
libbctoolbox.so.1:bctbx_DestroyDHMContext
libbctoolbox.so.1:bctbx_DestroyECDHContext
libbctoolbox.so.1:bctbx_DestroyEDDSAContext
libbctoolbox.so.1:bctbx_ECDHComputeSecret
libbctoolbox.so.1:bctbx_ECDHCreateKeyPair
libbctoolbox.so.1:bctbx_ECDHDerivePublicKey
libbctoolbox.so.1:bctbx_ECDHSetPeerPublicKey
libbctoolbox.so.1:bctbx_ECDHSetSecretKey
libbctoolbox.so.1:bctbx_ECDHSetSelfPublicKey
libbctoolbox.so.1:bctbx_EDDSACreateKeyPair
libbctoolbox.so.1:bctbx_EDDSADerivePublicKey
libbctoolbox.so.1:bctbx_EDDSA_ECDH_privateKeyConversion
libbctoolbox.so.1:bctbx_EDDSA_ECDH_publicKeyConversion
libbctoolbox.so.1:bctbx_EDDSA_setPublicKey
libbctoolbox.so.1:bctbx_EDDSA_setSecretKey
libbctoolbox.so.1:bctbx_EDDSA_sign
libbctoolbox.so.1:bctbx_EDDSA_verify
libbctoolbox.so.1:bctbx_add_log_handler
libbctoolbox.so.1:bctbx_addrinfo_sort
libbctoolbox.so.1:bctbx_addrinfo_to_ip_address
libbctoolbox.so.1:bctbx_addrinfo_to_printable_ip_address
libbctoolbox.so.1:bctbx_aes128CfbDecrypt
libbctoolbox.so.1:bctbx_aes128CfbEncrypt
libbctoolbox.so.1:bctbx_aes256CfbDecrypt
libbctoolbox.so.1:bctbx_aes256CfbEncrypt
libbctoolbox.so.1:bctbx_aes_gcm_context_new
libbctoolbox.so.1:bctbx_aes_gcm_decryptFile
libbctoolbox.so.1:bctbx_aes_gcm_decrypt_and_auth
libbctoolbox.so.1:bctbx_aes_gcm_encryptFile
libbctoolbox.so.1:bctbx_aes_gcm_encrypt_and_tag
libbctoolbox.so.1:bctbx_aes_gcm_finish
libbctoolbox.so.1:bctbx_aes_gcm_process_chunk
libbctoolbox.so.1:bctbx_base64_decode
libbctoolbox.so.1:bctbx_base64_encode
libbctoolbox.so.1:bctbx_basename
libbctoolbox.so.1:bctbx_bind
libbctoolbox.so.1:bctbx_byte_to_char
libbctoolbox.so.1:bctbx_char_to_byte
libbctoolbox.so.1:bctbx_clean
libbctoolbox.so.1:bctbx_clear_thread_log_level
libbctoolbox.so.1:bctbx_client_pipe_close
libbctoolbox.so.1:bctbx_client_pipe_connect
libbctoolbox.so.1:bctbx_concat
libbctoolbox.so.1:bctbx_connect
libbctoolbox.so.1:bctbx_convert_any_to_utf8
libbctoolbox.so.1:bctbx_convert_string
libbctoolbox.so.1:bctbx_convert_utf8_to_any
libbctoolbox.so.1:bctbx_create_file_log_handler
libbctoolbox.so.1:bctbx_create_log_handler
libbctoolbox.so.1:bctbx_create_log_tags_copy
libbctoolbox.so.1:bctbx_crypto_have_ecc
libbctoolbox.so.1:bctbx_directory_exists
libbctoolbox.so.1:bctbx_dirname
libbctoolbox.so.1:bctbx_dtls_srtp_supported
libbctoolbox.so.1:bctbx_escape
libbctoolbox.so.1:bctbx_file_close
libbctoolbox.so.1:bctbx_file_exist
libbctoolbox.so.1:bctbx_file_fprintf
libbctoolbox.so.1:bctbx_file_get_nxtline
libbctoolbox.so.1:bctbx_file_is_encrypted
libbctoolbox.so.1:bctbx_file_log_handler_reopen
libbctoolbox.so.1:bctbx_file_open
libbctoolbox.so.1:bctbx_file_open2
libbctoolbox.so.1:bctbx_file_read
libbctoolbox.so.1:bctbx_file_read2
libbctoolbox.so.1:bctbx_file_seek
libbctoolbox.so.1:bctbx_file_size
libbctoolbox.so.1:bctbx_file_sync
libbctoolbox.so.1:bctbx_file_truncate
libbctoolbox.so.1:bctbx_file_write
libbctoolbox.so.1:bctbx_file_write2
libbctoolbox.so.1:bctbx_free
libbctoolbox.so.1:bctbx_freeaddrinfo
libbctoolbox.so.1:bctbx_get_char
libbctoolbox.so.1:bctbx_get_code_page
libbctoolbox.so.1:bctbx_get_cur_time
libbctoolbox.so.1:bctbx_get_cur_time_ms
libbctoolbox.so.1:bctbx_get_default_encoding
libbctoolbox.so.1:bctbx_get_local_ip_for
libbctoolbox.so.1:bctbx_get_log_handlers
libbctoolbox.so.1:bctbx_get_log_level_mask
libbctoolbox.so.1:bctbx_get_log_tags
libbctoolbox.so.1:bctbx_get_utc_cur_time
libbctoolbox.so.1:bctbx_getaddrinfo
libbctoolbox.so.1:bctbx_getnameinfo
libbctoolbox.so.1:bctbx_getsockname
libbctoolbox.so.1:bctbx_getsockopt
libbctoolbox.so.1:bctbx_hmacSha1
libbctoolbox.so.1:bctbx_hmacSha256
libbctoolbox.so.1:bctbx_hmacSha384
libbctoolbox.so.1:bctbx_hmacSha512
libbctoolbox.so.1:bctbx_init_logger
libbctoolbox.so.1:bctbx_int8_to_str
libbctoolbox.so.1:bctbx_ip_address_to_addrinfo
libbctoolbox.so.1:bctbx_is_matching_regex
libbctoolbox.so.1:bctbx_is_matching_regex_log
libbctoolbox.so.1:bctbx_is_multicast_addr
libbctoolbox.so.1:bctbx_iterator_cchar_delete
libbctoolbox.so.1:bctbx_iterator_cchar_equals
libbctoolbox.so.1:bctbx_iterator_cchar_get_next
libbctoolbox.so.1:bctbx_iterator_cchar_get_next_and_delete
libbctoolbox.so.1:bctbx_iterator_cchar_get_pair
libbctoolbox.so.1:bctbx_iterator_ullong_delete
libbctoolbox.so.1:bctbx_iterator_ullong_equals
libbctoolbox.so.1:bctbx_iterator_ullong_get_next
libbctoolbox.so.1:bctbx_iterator_ullong_get_next_and_delete
libbctoolbox.so.1:bctbx_iterator_ullong_get_pair
libbctoolbox.so.1:bctbx_key_agreement_algo_list
libbctoolbox.so.1:bctbx_list_append
libbctoolbox.so.1:bctbx_list_append_link
libbctoolbox.so.1:bctbx_list_concat
libbctoolbox.so.1:bctbx_list_copy
libbctoolbox.so.1:bctbx_list_copy_reverse_with_data
libbctoolbox.so.1:bctbx_list_copy_with_data
libbctoolbox.so.1:bctbx_list_delete_custom
libbctoolbox.so.1:bctbx_list_erase_link
libbctoolbox.so.1:bctbx_list_find
libbctoolbox.so.1:bctbx_list_find_custom
libbctoolbox.so.1:bctbx_list_first_elem
libbctoolbox.so.1:bctbx_list_for_each
libbctoolbox.so.1:bctbx_list_for_each2
libbctoolbox.so.1:bctbx_list_free
libbctoolbox.so.1:bctbx_list_free_with_data
libbctoolbox.so.1:bctbx_list_get_data
libbctoolbox.so.1:bctbx_list_index
libbctoolbox.so.1:bctbx_list_insert
libbctoolbox.so.1:bctbx_list_insert_sorted
libbctoolbox.so.1:bctbx_list_last_elem
libbctoolbox.so.1:bctbx_list_new
libbctoolbox.so.1:bctbx_list_next
libbctoolbox.so.1:bctbx_list_nth_data
libbctoolbox.so.1:bctbx_list_pop_front
libbctoolbox.so.1:bctbx_list_position
libbctoolbox.so.1:bctbx_list_prepend
libbctoolbox.so.1:bctbx_list_prepend_link
libbctoolbox.so.1:bctbx_list_remove
libbctoolbox.so.1:bctbx_list_remove_custom
libbctoolbox.so.1:bctbx_list_remove_custom_with_data
libbctoolbox.so.1:bctbx_list_remove_with_data
libbctoolbox.so.1:bctbx_list_size
libbctoolbox.so.1:bctbx_list_unlink
libbctoolbox.so.1:bctbx_locale_to_utf8
libbctoolbox.so.1:bctbx_log_domain_destroy
libbctoolbox.so.1:bctbx_log_domain_get_thread_log_level_mask
libbctoolbox.so.1:bctbx_log_handler_get_user_data
libbctoolbox.so.1:bctbx_log_handler_set_domain
libbctoolbox.so.1:bctbx_log_handler_set_user_data
libbctoolbox.so.1:bctbx_log_handlers_free
libbctoolbox.so.1:bctbx_log_level_enabled
libbctoolbox.so.1:bctbx_log_tags_destroy
libbctoolbox.so.1:bctbx_logv
libbctoolbox.so.1:bctbx_logv_file
libbctoolbox.so.1:bctbx_logv_file_destroy
libbctoolbox.so.1:bctbx_logv_flush
libbctoolbox.so.1:bctbx_logv_out
libbctoolbox.so.1:bctbx_logv_out_cb
libbctoolbox.so.1:bctbx_logv_out_destroy
libbctoolbox.so.1:bctbx_malloc
libbctoolbox.so.1:bctbx_malloc0
libbctoolbox.so.1:bctbx_map_cchar_begin
libbctoolbox.so.1:bctbx_map_cchar_end
libbctoolbox.so.1:bctbx_map_cchar_erase
libbctoolbox.so.1:bctbx_map_cchar_find_custom
libbctoolbox.so.1:bctbx_map_cchar_find_key
libbctoolbox.so.1:bctbx_map_cchar_insert
libbctoolbox.so.1:bctbx_map_cchar_insert_and_delete
libbctoolbox.so.1:bctbx_map_cchar_insert_and_delete_with_returned_it
libbctoolbox.so.1:bctbx_map_cchar_size
libbctoolbox.so.1:bctbx_map_ullong_begin
libbctoolbox.so.1:bctbx_map_ullong_end
libbctoolbox.so.1:bctbx_map_ullong_erase
libbctoolbox.so.1:bctbx_map_ullong_find_custom
libbctoolbox.so.1:bctbx_map_ullong_find_key
libbctoolbox.so.1:bctbx_map_ullong_insert
libbctoolbox.so.1:bctbx_map_ullong_insert_and_delete
libbctoolbox.so.1:bctbx_map_ullong_insert_and_delete_with_returned_it
libbctoolbox.so.1:bctbx_map_ullong_size
libbctoolbox.so.1:bctbx_md5
libbctoolbox.so.1:bctbx_mkdir
libbctoolbox.so.1:bctbx_mmap_cchar_delete
libbctoolbox.so.1:bctbx_mmap_cchar_delete_with_data
libbctoolbox.so.1:bctbx_mmap_cchar_new
libbctoolbox.so.1:bctbx_mmap_ullong_delete
libbctoolbox.so.1:bctbx_mmap_ullong_delete_with_data
libbctoolbox.so.1:bctbx_mmap_ullong_new
libbctoolbox.so.1:bctbx_name_to_addrinfo
libbctoolbox.so.1:bctbx_noescape_rules_add_alfanums
libbctoolbox.so.1:bctbx_noescape_rules_add_list
libbctoolbox.so.1:bctbx_noescape_rules_add_range
libbctoolbox.so.1:bctbx_pair_cchar_delete
libbctoolbox.so.1:bctbx_pair_cchar_get_first
libbctoolbox.so.1:bctbx_pair_cchar_get_second
libbctoolbox.so.1:bctbx_pair_cchar_new
libbctoolbox.so.1:bctbx_pair_ullong_delete
libbctoolbox.so.1:bctbx_pair_ullong_get_first
libbctoolbox.so.1:bctbx_pair_ullong_get_second
libbctoolbox.so.1:bctbx_pair_ullong_new
libbctoolbox.so.1:bctbx_param_string_get_bool_value
libbctoolbox.so.1:bctbx_param_string_get_value
libbctoolbox.so.1:bctbx_parse_directory
libbctoolbox.so.1:bctbx_paste_log_tags
libbctoolbox.so.1:bctbx_pipe_read
libbctoolbox.so.1:bctbx_pipe_write
libbctoolbox.so.1:bctbx_pop_log_tag
libbctoolbox.so.1:bctbx_push_log_tag
libbctoolbox.so.1:bctbx_random
libbctoolbox.so.1:bctbx_random_bytes
libbctoolbox.so.1:bctbx_read
libbctoolbox.so.1:bctbx_realloc
libbctoolbox.so.1:bctbx_recv
libbctoolbox.so.1:bctbx_recvfrom
libbctoolbox.so.1:bctbx_remove_log_handler
libbctoolbox.so.1:bctbx_replace
libbctoolbox.so.1:bctbx_rmdir
libbctoolbox.so.1:bctbx_rng_context_free
libbctoolbox.so.1:bctbx_rng_context_new
libbctoolbox.so.1:bctbx_rng_get
libbctoolbox.so.1:bctbx_send
libbctoolbox.so.1:bctbx_sendto
libbctoolbox.so.1:bctbx_server_pipe_accept_client
libbctoolbox.so.1:bctbx_server_pipe_close
libbctoolbox.so.1:bctbx_server_pipe_close_client
libbctoolbox.so.1:bctbx_server_pipe_create
libbctoolbox.so.1:bctbx_server_pipe_create_by_path
libbctoolbox.so.1:bctbx_set_default_encoding
libbctoolbox.so.1:bctbx_set_log_file
libbctoolbox.so.1:bctbx_set_log_handler
libbctoolbox.so.1:bctbx_set_log_handler_for_domain
libbctoolbox.so.1:bctbx_set_log_level
libbctoolbox.so.1:bctbx_set_log_level_mask
libbctoolbox.so.1:bctbx_set_log_thread_id
libbctoolbox.so.1:bctbx_set_memory_functions
libbctoolbox.so.1:bctbx_set_self_thread_name
libbctoolbox.so.1:bctbx_set_stack_trace_hooks
libbctoolbox.so.1:bctbx_set_thread_log_level
libbctoolbox.so.1:bctbx_setsockopt
libbctoolbox.so.1:bctbx_sha256
libbctoolbox.so.1:bctbx_sha384
libbctoolbox.so.1:bctbx_sha512
libbctoolbox.so.1:bctbx_shutdown
libbctoolbox.so.1:bctbx_signing_key_free
libbctoolbox.so.1:bctbx_signing_key_get_pem
libbctoolbox.so.1:bctbx_signing_key_new
libbctoolbox.so.1:bctbx_signing_key_parse
libbctoolbox.so.1:bctbx_signing_key_parse_file
libbctoolbox.so.1:bctbx_sleep_ms
libbctoolbox.so.1:bctbx_sleep_until
libbctoolbox.so.1:bctbx_sockaddr_equals
libbctoolbox.so.1:bctbx_sockaddr_ipv4_to_ipv6
libbctoolbox.so.1:bctbx_sockaddr_ipv6_to_ipv4
libbctoolbox.so.1:bctbx_sockaddr_remove_nat64_mapping
libbctoolbox.so.1:bctbx_sockaddr_remove_v4_mapping
libbctoolbox.so.1:bctbx_sockaddr_to_ip_address
libbctoolbox.so.1:bctbx_sockaddr_to_printable_ip_address
libbctoolbox.so.1:bctbx_socket
libbctoolbox.so.1:bctbx_socket_close
libbctoolbox.so.1:bctbx_socket_error
libbctoolbox.so.1:bctbx_socket_set_non_blocking
libbctoolbox.so.1:bctbx_ssl_close_notify
libbctoolbox.so.1:bctbx_ssl_config_defaults
libbctoolbox.so.1:bctbx_ssl_config_free
libbctoolbox.so.1:bctbx_ssl_config_get_private_config
libbctoolbox.so.1:bctbx_ssl_config_new
libbctoolbox.so.1:bctbx_ssl_config_set_authmode
libbctoolbox.so.1:bctbx_ssl_config_set_ca_chain
libbctoolbox.so.1:bctbx_ssl_config_set_callback_cli_cert
libbctoolbox.so.1:bctbx_ssl_config_set_callback_verify
libbctoolbox.so.1:bctbx_ssl_config_set_ciphersuites
libbctoolbox.so.1:bctbx_ssl_config_set_crypto_library_config
libbctoolbox.so.1:bctbx_ssl_config_set_dtls_srtp_protection_profiles
libbctoolbox.so.1:bctbx_ssl_config_set_endpoint
libbctoolbox.so.1:bctbx_ssl_config_set_own_cert
libbctoolbox.so.1:bctbx_ssl_config_set_rng
libbctoolbox.so.1:bctbx_ssl_config_set_transport
libbctoolbox.so.1:bctbx_ssl_context_free
libbctoolbox.so.1:bctbx_ssl_context_new
libbctoolbox.so.1:bctbx_ssl_context_setup
libbctoolbox.so.1:bctbx_ssl_get_ciphersuite
libbctoolbox.so.1:bctbx_ssl_get_ciphersuite_id
libbctoolbox.so.1:bctbx_ssl_get_dtls_srtp_key_material
libbctoolbox.so.1:bctbx_ssl_get_dtls_srtp_protection_profile
libbctoolbox.so.1:bctbx_ssl_get_implementation_type
libbctoolbox.so.1:bctbx_ssl_get_peer_certificate
libbctoolbox.so.1:bctbx_ssl_get_version
libbctoolbox.so.1:bctbx_ssl_handshake
libbctoolbox.so.1:bctbx_ssl_read
libbctoolbox.so.1:bctbx_ssl_recv_callback
libbctoolbox.so.1:bctbx_ssl_send_callback
libbctoolbox.so.1:bctbx_ssl_session_reset
libbctoolbox.so.1:bctbx_ssl_set_hostname
libbctoolbox.so.1:bctbx_ssl_set_io_callbacks
libbctoolbox.so.1:bctbx_ssl_set_mtu
libbctoolbox.so.1:bctbx_ssl_write
libbctoolbox.so.1:bctbx_str_to_uint32
libbctoolbox.so.1:bctbx_str_to_uint64
libbctoolbox.so.1:bctbx_str_to_uint8
libbctoolbox.so.1:bctbx_strcasecmp
libbctoolbox.so.1:bctbx_strcat_printf
libbctoolbox.so.1:bctbx_strcat_vprintf
libbctoolbox.so.1:bctbx_strcmp
libbctoolbox.so.1:bctbx_strdup
libbctoolbox.so.1:bctbx_strdup_printf
libbctoolbox.so.1:bctbx_strdup_vprintf
libbctoolbox.so.1:bctbx_strerror
libbctoolbox.so.1:bctbx_string_to_wide_string
libbctoolbox.so.1:bctbx_strndup
libbctoolbox.so.1:bctbx_time_string_to_sec
libbctoolbox.so.1:bctbx_timespec_add
libbctoolbox.so.1:bctbx_timespec_compare
libbctoolbox.so.1:bctbx_uint32_to_str
libbctoolbox.so.1:bctbx_uint64_to_str
libbctoolbox.so.1:bctbx_unescaped_string
libbctoolbox.so.1:bctbx_unescaped_string_only_chars_in_rules
libbctoolbox.so.1:bctbx_uninit_logger
libbctoolbox.so.1:bctbx_utf8_to_locale
libbctoolbox.so.1:bctbx_vfs_get_default
libbctoolbox.so.1:bctbx_vfs_get_standard
libbctoolbox.so.1:bctbx_vfs_set_default
libbctoolbox.so.1:bctbx_vsocket_api_get_default
libbctoolbox.so.1:bctbx_vsocket_api_get_standard
libbctoolbox.so.1:bctbx_vsocket_api_set_default
libbctoolbox.so.1:bctbx_write
libbctoolbox.so.1:bctbx_x509_certificate_flags_to_string
libbctoolbox.so.1:bctbx_x509_certificate_free
libbctoolbox.so.1:bctbx_x509_certificate_generate_selfsigned
libbctoolbox.so.1:bctbx_x509_certificate_get_der
libbctoolbox.so.1:bctbx_x509_certificate_get_der_length
libbctoolbox.so.1:bctbx_x509_certificate_get_fingerprint
libbctoolbox.so.1:bctbx_x509_certificate_get_info_string
libbctoolbox.so.1:bctbx_x509_certificate_get_signature_hash_function
libbctoolbox.so.1:bctbx_x509_certificate_get_subject_dn
libbctoolbox.so.1:bctbx_x509_certificate_get_subjects
libbctoolbox.so.1:bctbx_x509_certificate_new
libbctoolbox.so.1:bctbx_x509_certificate_parse
libbctoolbox.so.1:bctbx_x509_certificate_parse_file
libbctoolbox.so.1:bctbx_x509_certificate_parse_path
libbctoolbox.so.1:bctbx_x509_certificate_remap_flag
libbctoolbox.so.1:bctbx_x509_certificate_set_flag
libbctoolbox.so.1:bctbx_x509_certificate_unset_flag
libbctoolbox.so.1:bctbx_x509_certificates_chain_get_pem
libbctoolbox.so.1:bctbx_x509_crt_profile_default
libbcunit.so.1.0.1:CU_add_suite
libbcunit.so.1.0.1:CU_add_suite_with_setup_and_teardown
libbcunit.so.1.0.1:CU_add_test
libbcunit.so.1.0.1:CU_assertImplementation
libbcunit.so.1.0.1:CU_automated_enable_junit_xml
libbcunit.so.1.0.1:CU_automated_enable_partial_junit
libbcunit.so.1.0.1:CU_automated_package_name_get
libbcunit.so.1.0.1:CU_automated_package_name_set
libbcunit.so.1.0.1:CU_automated_run_tests
libbcunit.so.1.0.1:CU_basic_get_mode
libbcunit.so.1.0.1:CU_basic_run_suite
libbcunit.so.1.0.1:CU_basic_run_test
libbcunit.so.1.0.1:CU_basic_run_tests
libbcunit.so.1.0.1:CU_basic_set_mode
libbcunit.so.1.0.1:CU_basic_show_failures
libbcunit.so.1.0.1:CU_cleanup_registry
libbcunit.so.1.0.1:CU_clear_previous_results
libbcunit.so.1.0.1:CU_compare_strings
libbcunit.so.1.0.1:CU_console_run_tests
libbcunit.so.1.0.1:CU_create_new_registry
libbcunit.so.1.0.1:CU_destroy_existing_registry
libbcunit.so.1.0.1:CU_get_all_test_complete_handler
libbcunit.so.1.0.1:CU_get_current_suite
libbcunit.so.1.0.1:CU_get_current_test
libbcunit.so.1.0.1:CU_get_elapsed_time
libbcunit.so.1.0.1:CU_get_error
libbcunit.so.1.0.1:CU_get_error_action
libbcunit.so.1.0.1:CU_get_error_msg
libbcunit.so.1.0.1:CU_get_fail_on_inactive
libbcunit.so.1.0.1:CU_get_failure_list
libbcunit.so.1.0.1:CU_get_number_of_asserts
libbcunit.so.1.0.1:CU_get_number_of_failure_records
libbcunit.so.1.0.1:CU_get_number_of_failures
libbcunit.so.1.0.1:CU_get_number_of_successes
libbcunit.so.1.0.1:CU_get_number_of_suites_failed
libbcunit.so.1.0.1:CU_get_number_of_suites_inactive
libbcunit.so.1.0.1:CU_get_number_of_suites_run
libbcunit.so.1.0.1:CU_get_number_of_tests_failed
libbcunit.so.1.0.1:CU_get_number_of_tests_inactive
libbcunit.so.1.0.1:CU_get_number_of_tests_run
libbcunit.so.1.0.1:CU_get_registry
libbcunit.so.1.0.1:CU_get_run_results_string
libbcunit.so.1.0.1:CU_get_run_summary
libbcunit.so.1.0.1:CU_get_suite
libbcunit.so.1.0.1:CU_get_suite_at_pos
libbcunit.so.1.0.1:CU_get_suite_by_index
libbcunit.so.1.0.1:CU_get_suite_by_name
libbcunit.so.1.0.1:CU_get_suite_cleanup_failure_handler
libbcunit.so.1.0.1:CU_get_suite_complete_handler
libbcunit.so.1.0.1:CU_get_suite_init_failure_handler
libbcunit.so.1.0.1:CU_get_suite_pos
libbcunit.so.1.0.1:CU_get_suite_pos_by_name
libbcunit.so.1.0.1:CU_get_suite_start_handler
libbcunit.so.1.0.1:CU_get_test
libbcunit.so.1.0.1:CU_get_test_at_pos
libbcunit.so.1.0.1:CU_get_test_by_index
libbcunit.so.1.0.1:CU_get_test_by_name
libbcunit.so.1.0.1:CU_get_test_complete_handler
libbcunit.so.1.0.1:CU_get_test_pos
libbcunit.so.1.0.1:CU_get_test_pos_by_name
libbcunit.so.1.0.1:CU_get_test_start_handler
libbcunit.so.1.0.1:CU_get_wall_time
libbcunit.so.1.0.1:CU_initialize_registry
libbcunit.so.1.0.1:CU_is_test_running
libbcunit.so.1.0.1:CU_list_tests_to_file
libbcunit.so.1.0.1:CU_number_width
libbcunit.so.1.0.1:CU_print_run_results
libbcunit.so.1.0.1:CU_register_nsuites
libbcunit.so.1.0.1:CU_register_suites
libbcunit.so.1.0.1:CU_registry_initialized
libbcunit.so.1.0.1:CU_run_all_tests
libbcunit.so.1.0.1:CU_run_suite
libbcunit.so.1.0.1:CU_run_test
libbcunit.so.1.0.1:CU_set_all_test_complete_handler
libbcunit.so.1.0.1:CU_set_error
libbcunit.so.1.0.1:CU_set_error_action
libbcunit.so.1.0.1:CU_set_fail_on_inactive
libbcunit.so.1.0.1:CU_set_output_filename
libbcunit.so.1.0.1:CU_set_registry
libbcunit.so.1.0.1:CU_set_suite_active
libbcunit.so.1.0.1:CU_set_suite_cleanup_failure_handler
libbcunit.so.1.0.1:CU_set_suite_cleanupfunc
libbcunit.so.1.0.1:CU_set_suite_complete_handler
libbcunit.so.1.0.1:CU_set_suite_init_failure_handler
libbcunit.so.1.0.1:CU_set_suite_initfunc
libbcunit.so.1.0.1:CU_set_suite_name
libbcunit.so.1.0.1:CU_set_suite_start_handler
libbcunit.so.1.0.1:CU_set_test_active
libbcunit.so.1.0.1:CU_set_test_complete_handler
libbcunit.so.1.0.1:CU_set_test_func
libbcunit.so.1.0.1:CU_set_test_name
libbcunit.so.1.0.1:CU_set_test_start_handler
libbcunit.so.1.0.1:CU_set_trace_handler
libbcunit.so.1.0.1:CU_trace_handler
libbcunit.so.1.0.1:CU_translate_special_characters
libbcunit.so.1.0.1:CU_translated_strlen
libbcunit.so.1.0.1:CU_trim
libbcunit.so.1.0.1:CU_trim_left
libbcunit.so.1.0.1:CU_trim_right
libbcunit.so.1.0.1:all_test_complete_handler
libbcunit.so.1.0.1:endTime
libbcunit.so.1.0.1:otherPrintf
libbcunit.so.1.0.1:startTime
libbcunit.so.1.0.1:suite_cleanup_failure_handler
libbcunit.so.1.0.1:suite_init_failure_handler
libbcunit.so.1.0.1:test_complete_handler
libbcunit.so.1.0.1:test_start_handler
libbelcard.so.1:_Z12belcard_foldRKNSt7__cxx1112basic_stringIcSt11char_traitsIcESaIcEEE
libbelcard.so.1:_Z14belcard_unfoldRKNSt7__cxx1112basic_stringIcSt11char_traitsIcESaIcEEE
libbelcard.so.1:_Z16loadVcardGrammarv
libbelcard.so.1:_Z17belcard_read_fileRKNSt7__cxx1112basic_stringIcSt11char_traitsIcESaIcEEE
libbelcard.so.1:_Z31comparePropertiesUsingPrefParamRKSt10shared_ptrIN7belcard15BelCardPropertyEES4_
libbelcard.so.1:_ZN7belcard10BelCardGeo23setHandlerAndCollectorsEPN4belr6ParserISt10shared_ptrINS_14BelCardGenericEEEE
libbelcard.so.1:_ZN7belcard10BelCardGeo5parseERKNSt7__cxx1112basic_stringIcSt11char_traitsIcESaIcEEE
libbelcard.so.1:_ZN7belcard10BelCardGeoC1Ev
libbelcard.so.1:_ZN7belcard10BelCardGeoC2Ev
libbelcard.so.1:_ZN7belcard10BelCardKey23setHandlerAndCollectorsEPN4belr6ParserISt10shared_ptrINS_14BelCardGenericEEEE
libbelcard.so.1:_ZN7belcard10BelCardKey5parseERKNSt7__cxx1112basic_stringIcSt11char_traitsIcESaIcEEE
libbelcard.so.1:_ZN7belcard10BelCardKeyC1Ev
libbelcard.so.1:_ZN7belcard10BelCardKeyC2Ev
libbelcard.so.1:_ZN7belcard10BelCardURL23setHandlerAndCollectorsEPN4belr6ParserISt10shared_ptrINS_14BelCardGenericEEEE
libbelcard.so.1:_ZN7belcard10BelCardURL5parseERKNSt7__cxx1112basic_stringIcSt11char_traitsIcESaIcEEE
libbelcard.so.1:_ZN7belcard10BelCardURLC1Ev
libbelcard.so.1:_ZN7belcard10BelCardURLC2Ev
libbelcard.so.1:_ZN7belcard10BelCardXML23setHandlerAndCollectorsEPN4belr6ParserISt10shared_ptrINS_14BelCardGenericEEEE
libbelcard.so.1:_ZN7belcard10BelCardXML5parseERKNSt7__cxx1112basic_stringIcSt11char_traitsIcESaIcEEE
libbelcard.so.1:_ZN7belcard10BelCardXMLC1Ev
libbelcard.so.1:_ZN7belcard10BelCardXMLC2Ev
libbelcard.so.1:_ZN7belcard11BelCardImpp23setHandlerAndCollectorsEPN4belr6ParserISt10shared_ptrINS_14BelCardGenericEEEE
libbelcard.so.1:_ZN7belcard11BelCardImpp5parseERKNSt7__cxx1112basic_stringIcSt11char_traitsIcESaIcEEE
libbelcard.so.1:_ZN7belcard11BelCardImppC1Ev
libbelcard.so.1:_ZN7belcard11BelCardImppC2Ev
libbelcard.so.1:_ZN7belcard11BelCardKind23setHandlerAndCollectorsEPN4belr6ParserISt10shared_ptrINS_14BelCardGenericEEEE
libbelcard.so.1:_ZN7belcard11BelCardKind5parseERKNSt7__cxx1112basic_stringIcSt11char_traitsIcESaIcEEE
libbelcard.so.1:_ZN7belcard11BelCardKindC1Ev
libbelcard.so.1:_ZN7belcard11BelCardKindC2Ev
libbelcard.so.1:_ZN7belcard11BelCardLang23setHandlerAndCollectorsEPN4belr6ParserISt10shared_ptrINS_14BelCardGenericEEEE
libbelcard.so.1:_ZN7belcard11BelCardLang5parseERKNSt7__cxx1112basic_stringIcSt11char_traitsIcESaIcEEE
libbelcard.so.1:_ZN7belcard11BelCardLangC1Ev
libbelcard.so.1:_ZN7belcard11BelCardLangC2Ev
libbelcard.so.1:_ZN7belcard11BelCardList23setHandlerAndCollectorsEPN4belr6ParserISt10shared_ptrINS_14BelCardGenericEEEE
libbelcard.so.1:_ZN7belcard11BelCardList7addCardERKSt10shared_ptrINS_7BelCardEE
libbelcard.so.1:_ZN7belcard11BelCardListC1Ev
libbelcard.so.1:_ZN7belcard11BelCardListC2Ev
libbelcard.so.1:_ZN7belcard11BelCardLogo23setHandlerAndCollectorsEPN4belr6ParserISt10shared_ptrINS_14BelCardGenericEEEE
libbelcard.so.1:_ZN7belcard11BelCardLogo5parseERKNSt7__cxx1112basic_stringIcSt11char_traitsIcESaIcEEE
libbelcard.so.1:_ZN7belcard11BelCardLogoC1Ev
libbelcard.so.1:_ZN7belcard11BelCardLogoC2Ev
libbelcard.so.1:_ZN7belcard11BelCardName11setPrefixesERKNSt7__cxx1112basic_stringIcSt11char_traitsIcESaIcEEE
libbelcard.so.1:_ZN7belcard11BelCardName11setSuffixesERKNSt7__cxx1112basic_stringIcSt11char_traitsIcESaIcEEE
libbelcard.so.1:_ZN7belcard11BelCardName12setGivenNameERKNSt7__cxx1112basic_stringIcSt11char_traitsIcESaIcEEE
libbelcard.so.1:_ZN7belcard11BelCardName13setFamilyNameERKNSt7__cxx1112basic_stringIcSt11char_traitsIcESaIcEEE
libbelcard.so.1:_ZN7belcard11BelCardName17setAdditionalNameERKNSt7__cxx1112basic_stringIcSt11char_traitsIcESaIcEEE
libbelcard.so.1:_ZN7belcard11BelCardName23setHandlerAndCollectorsEPN4belr6ParserISt10shared_ptrINS_14BelCardGenericEEEE
libbelcard.so.1:_ZN7belcard11BelCardName5parseERKNSt7__cxx1112basic_stringIcSt11char_traitsIcESaIcEEE
libbelcard.so.1:_ZN7belcard11BelCardNameC1Ev
libbelcard.so.1:_ZN7belcard11BelCardNameC2Ev
libbelcard.so.1:_ZN7belcard11BelCardNote23setHandlerAndCollectorsEPN4belr6ParserISt10shared_ptrINS_14BelCardGenericEEEE
libbelcard.so.1:_ZN7belcard11BelCardNote5parseERKNSt7__cxx1112basic_stringIcSt11char_traitsIcESaIcEEE
libbelcard.so.1:_ZN7belcard11BelCardNoteC1Ev
libbelcard.so.1:_ZN7belcard11BelCardNoteC2Ev
libbelcard.so.1:_ZN7belcard11BelCardRole23setHandlerAndCollectorsEPN4belr6ParserISt10shared_ptrINS_14BelCardGenericEEEE
libbelcard.so.1:_ZN7belcard11BelCardRole5parseERKNSt7__cxx1112basic_stringIcSt11char_traitsIcESaIcEEE
libbelcard.so.1:_ZN7belcard11BelCardRoleC1Ev
libbelcard.so.1:_ZN7belcard11BelCardRoleC2Ev
libbelcard.so.1:_ZN7belcard12BelCardEmail23setHandlerAndCollectorsEPN4belr6ParserISt10shared_ptrINS_14BelCardGenericEEEE
libbelcard.so.1:_ZN7belcard12BelCardEmail5parseERKNSt7__cxx1112basic_stringIcSt11char_traitsIcESaIcEEE
libbelcard.so.1:_ZN7belcard12BelCardEmailC1Ev
libbelcard.so.1:_ZN7belcard12BelCardEmailC2Ev
libbelcard.so.1:_ZN7belcard12BelCardFBURL23setHandlerAndCollectorsEPN4belr6ParserISt10shared_ptrINS_14BelCardGenericEEEE
libbelcard.so.1:_ZN7belcard12BelCardFBURL5parseERKNSt7__cxx1112basic_stringIcSt11char_traitsIcESaIcEEE
libbelcard.so.1:_ZN7belcard12BelCardFBURLC1Ev
libbelcard.so.1:_ZN7belcard12BelCardFBURLC2Ev
libbelcard.so.1:_ZN7belcard12BelCardParam23setHandlerAndCollectorsEPN4belr6ParserISt10shared_ptrINS_14BelCardGenericEEEE
libbelcard.so.1:_ZN7belcard12BelCardParam33setAllParamsHandlersAndCollectorsEPN4belr6ParserISt10shared_ptrINS_14BelCardGenericEEEE
libbelcard.so.1:_ZN7belcard12BelCardParam5parseERKNSt7__cxx1112basic_stringIcSt11char_traitsIcESaIcEEE
libbelcard.so.1:_ZN7belcard12BelCardParam7setNameERKNSt7__cxx1112basic_stringIcSt11char_traitsIcESaIcEEE
libbelcard.so.1:_ZN7belcard12BelCardParam8setValueERKNSt7__cxx1112basic_stringIcSt11char_traitsIcESaIcEEE
libbelcard.so.1:_ZN7belcard12BelCardParamC1Ev
libbelcard.so.1:_ZN7belcard12BelCardParamC2Ev
libbelcard.so.1:_ZN7belcard12BelCardPhoto23setHandlerAndCollectorsEPN4belr6ParserISt10shared_ptrINS_14BelCardGenericEEEE
libbelcard.so.1:_ZN7belcard12BelCardPhoto5parseERKNSt7__cxx1112basic_stringIcSt11char_traitsIcESaIcEEE
libbelcard.so.1:_ZN7belcard12BelCardPhotoC1Ev
libbelcard.so.1:_ZN7belcard12BelCardPhotoC2Ev
libbelcard.so.1:_ZN7belcard12BelCardSound23setHandlerAndCollectorsEPN4belr6ParserISt10shared_ptrINS_14BelCardGenericEEEE
libbelcard.so.1:_ZN7belcard12BelCardSound5parseERKNSt7__cxx1112basic_stringIcSt11char_traitsIcESaIcEEE
libbelcard.so.1:_ZN7belcard12BelCardSoundC1Ev
libbelcard.so.1:_ZN7belcard12BelCardSoundC2Ev
libbelcard.so.1:_ZN7belcard12BelCardTitle23setHandlerAndCollectorsEPN4belr6ParserISt10shared_ptrINS_14BelCardGenericEEEE
libbelcard.so.1:_ZN7belcard12BelCardTitle5parseERKNSt7__cxx1112basic_stringIcSt11char_traitsIcESaIcEEE
libbelcard.so.1:_ZN7belcard12BelCardTitleC1Ev
libbelcard.so.1:_ZN7belcard12BelCardTitleC2Ev
libbelcard.so.1:_ZN7belcard13BelCardCALURI23setHandlerAndCollectorsEPN4belr6ParserISt10shared_ptrINS_14BelCardGenericEEEE
libbelcard.so.1:_ZN7belcard13BelCardCALURI5parseERKNSt7__cxx1112basic_stringIcSt11char_traitsIcESaIcEEE
libbelcard.so.1:_ZN7belcard13BelCardCALURIC1Ev
libbelcard.so.1:_ZN7belcard13BelCardCALURIC2Ev
libbelcard.so.1:_ZN7belcard13BelCardGender23setHandlerAndCollectorsEPN4belr6ParserISt10shared_ptrINS_14BelCardGenericEEEE
libbelcard.so.1:_ZN7belcard13BelCardGender5parseERKNSt7__cxx1112basic_stringIcSt11char_traitsIcESaIcEEE
libbelcard.so.1:_ZN7belcard13BelCardGenderC1Ev
libbelcard.so.1:_ZN7belcard13BelCardGenderC2Ev
libbelcard.so.1:_ZN7belcard13BelCardMember23setHandlerAndCollectorsEPN4belr6ParserISt10shared_ptrINS_14BelCardGenericEEEE
libbelcard.so.1:_ZN7belcard13BelCardMember5parseERKNSt7__cxx1112basic_stringIcSt11char_traitsIcESaIcEEE
libbelcard.so.1:_ZN7belcard13BelCardMemberC1Ev
libbelcard.so.1:_ZN7belcard13BelCardMemberC2Ev
libbelcard.so.1:_ZN7belcard13BelCardParser11getInstanceEv
libbelcard.so.1:_ZN7belcard13BelCardParser5parseERKNSt7__cxx1112basic_stringIcSt11char_traitsIcESaIcEEE
libbelcard.so.1:_ZN7belcard13BelCardParser6_parseERKNSt7__cxx1112basic_stringIcSt11char_traitsIcESaIcEEES8_
libbelcard.so.1:_ZN7belcard13BelCardParser8parseOneERKNSt7__cxx1112basic_stringIcSt11char_traitsIcESaIcEEE
libbelcard.so.1:_ZN7belcard13BelCardParser9parseFileERKNSt7__cxx1112basic_stringIcSt11char_traitsIcESaIcEEE
libbelcard.so.1:_ZN7belcard13BelCardParserC1Ev
libbelcard.so.1:_ZN7belcard13BelCardParserC2Ev
libbelcard.so.1:_ZN7belcard13BelCardParserD1Ev
libbelcard.so.1:_ZN7belcard13BelCardParserD2Ev
libbelcard.so.1:_ZN7belcard13BelCardSource23setHandlerAndCollectorsEPN4belr6ParserISt10shared_ptrINS_14BelCardGenericEEEE
libbelcard.so.1:_ZN7belcard13BelCardSource5parseERKNSt7__cxx1112basic_stringIcSt11char_traitsIcESaIcEEE
libbelcard.so.1:_ZN7belcard13BelCardSourceC1Ev
libbelcard.so.1:_ZN7belcard13BelCardSourceC2Ev
libbelcard.so.1:_ZN7belcard14BelCardAddress10setCountryERKNSt7__cxx1112basic_stringIcSt11char_traitsIcESaIcEEE
libbelcard.so.1:_ZN7belcard14BelCardAddress11setLocalityERKNSt7__cxx1112basic_stringIcSt11char_traitsIcESaIcEEE
libbelcard.so.1:_ZN7belcard14BelCardAddress13setLabelParamERKSt10shared_ptrINS_17BelCardLabelParamEE
libbelcard.so.1:_ZN7belcard14BelCardAddress13setPostalCodeERKNSt7__cxx1112basic_stringIcSt11char_traitsIcESaIcEEE
libbelcard.so.1:_ZN7belcard14BelCardAddress16setPostOfficeBoxERKNSt7__cxx1112basic_stringIcSt11char_traitsIcESaIcEEE
libbelcard.so.1:_ZN7belcard14BelCardAddress18setExtendedAddressERKNSt7__cxx1112basic_stringIcSt11char_traitsIcESaIcEEE
libbelcard.so.1:_ZN7belcard14BelCardAddress23setHandlerAndCollectorsEPN4belr6ParserISt10shared_ptrINS_14BelCardGenericEEEE
libbelcard.so.1:_ZN7belcard14BelCardAddress5parseERKNSt7__cxx1112basic_stringIcSt11char_traitsIcESaIcEEE
libbelcard.so.1:_ZN7belcard14BelCardAddress9setRegionERKNSt7__cxx1112basic_stringIcSt11char_traitsIcESaIcEEE
libbelcard.so.1:_ZN7belcard14BelCardAddress9setStreetERKNSt7__cxx1112basic_stringIcSt11char_traitsIcESaIcEEE
libbelcard.so.1:_ZN7belcard14BelCardAddressC1Ev
libbelcard.so.1:_ZN7belcard14BelCardAddressC2Ev
libbelcard.so.1:_ZN7belcard14BelCardRelated23setHandlerAndCollectorsEPN4belr6ParserISt10shared_ptrINS_14BelCardGenericEEEE
libbelcard.so.1:_ZN7belcard14BelCardRelated5parseERKNSt7__cxx1112basic_stringIcSt11char_traitsIcESaIcEEE
libbelcard.so.1:_ZN7belcard14BelCardRelatedC1Ev
libbelcard.so.1:_ZN7belcard14BelCardRelatedC2Ev
libbelcard.so.1:_ZN7belcard15BelCardBirthday23setHandlerAndCollectorsEPN4belr6ParserISt10shared_ptrINS_14BelCardGenericEEEE
libbelcard.so.1:_ZN7belcard15BelCardBirthday5parseERKNSt7__cxx1112basic_stringIcSt11char_traitsIcESaIcEEE
libbelcard.so.1:_ZN7belcard15BelCardBirthdayC1Ev
libbelcard.so.1:_ZN7belcard15BelCardBirthdayC2Ev
libbelcard.so.1:_ZN7belcard15BelCardFullName23setHandlerAndCollectorsEPN4belr6ParserISt10shared_ptrINS_14BelCardGenericEEEE
libbelcard.so.1:_ZN7belcard15BelCardFullName5parseERKNSt7__cxx1112basic_stringIcSt11char_traitsIcESaIcEEE
libbelcard.so.1:_ZN7belcard15BelCardFullNameC1Ev
libbelcard.so.1:_ZN7belcard15BelCardFullNameC2Ev
libbelcard.so.1:_ZN7belcard15BelCardGeoParam23setHandlerAndCollectorsEPN4belr6ParserISt10shared_ptrINS_14BelCardGenericEEEE
libbelcard.so.1:_ZN7belcard15BelCardGeoParam5parseERKNSt7__cxx1112basic_stringIcSt11char_traitsIcESaIcEEE
libbelcard.so.1:_ZN7belcard15BelCardGeoParamC1Ev
libbelcard.so.1:_ZN7belcard15BelCardGeoParamC2Ev
libbelcard.so.1:_ZN7belcard15BelCardNickname23setHandlerAndCollectorsEPN4belr6ParserISt10shared_ptrINS_14BelCardGenericEEEE
libbelcard.so.1:_ZN7belcard15BelCardNickname5parseERKNSt7__cxx1112basic_stringIcSt11char_traitsIcESaIcEEE
libbelcard.so.1:_ZN7belcard15BelCardNicknameC1Ev
libbelcard.so.1:_ZN7belcard15BelCardNicknameC2Ev
libbelcard.so.1:_ZN7belcard15BelCardProperty11removeParamERKSt10shared_ptrINS_12BelCardParamEE
libbelcard.so.1:_ZN7belcard15BelCardProperty11setGeoParamERKSt10shared_ptrINS_15BelCardGeoParamEE
libbelcard.so.1:_ZN7belcard15BelCardProperty12setPrefParamERKSt10shared_ptrINS_16BelCardPrefParamEE
libbelcard.so.1:_ZN7belcard15BelCardProperty12setTypeParamERKSt10shared_ptrINS_16BelCardTypeParamEE
libbelcard.so.1:_ZN7belcard15BelCardProperty13setValueParamERKSt10shared_ptrINS_17BelCardValueParamEE
libbelcard.so.1:_ZN7belcard15BelCardProperty14setSortAsParamERKSt10shared_ptrINS_18BelCardSortAsParamEE
libbelcard.so.1:_ZN7belcard15BelCardProperty15setParamIdParamERKSt10shared_ptrINS_19BelCardParamIdParamEE
libbelcard.so.1:_ZN7belcard15BelCardProperty16setCALSCALEParamERKSt10shared_ptrINS_20BelCardCALSCALEParamEE
libbelcard.so.1:_ZN7belcard15BelCardProperty16setLanguageParamERKSt10shared_ptrINS_20BelCardLanguageParamEE
libbelcard.so.1:_ZN7belcard15BelCardProperty16setTimezoneParamERKSt10shared_ptrINS_20BelCardTimezoneParamEE
libbelcard.so.1:_ZN7belcard15BelCardProperty17setMediaTypeParamERKSt10shared_ptrINS_21BelCardMediaTypeParamEE
libbelcard.so.1:_ZN7belcard15BelCardProperty21setAlternativeIdParamERKSt10shared_ptrINS_25BelCardAlternativeIdParamEE
libbelcard.so.1:_ZN7belcard15BelCardProperty23setHandlerAndCollectorsEPN4belr6ParserISt10shared_ptrINS_14BelCardGenericEEEE
libbelcard.so.1:_ZN7belcard15BelCardProperty5parseERKNSt7__cxx1112basic_stringIcSt11char_traitsIcESaIcEEE
libbelcard.so.1:_ZN7belcard15BelCardProperty7setNameERKNSt7__cxx1112basic_stringIcSt11char_traitsIcESaIcEEE
libbelcard.so.1:_ZN7belcard15BelCardProperty8addParamERKSt10shared_ptrINS_12BelCardParamEE
libbelcard.so.1:_ZN7belcard15BelCardProperty8setGroupERKNSt7__cxx1112basic_stringIcSt11char_traitsIcESaIcEEE
libbelcard.so.1:_ZN7belcard15BelCardProperty8setValueERKNSt7__cxx1112basic_stringIcSt11char_traitsIcESaIcEEE
libbelcard.so.1:_ZN7belcard15BelCardPropertyC1Ev
libbelcard.so.1:_ZN7belcard15BelCardPropertyC2Ev
libbelcard.so.1:_ZN7belcard15BelCardRevision23setHandlerAndCollectorsEPN4belr6ParserISt10shared_ptrINS_14BelCardGenericEEEE
libbelcard.so.1:_ZN7belcard15BelCardRevision5parseERKNSt7__cxx1112basic_stringIcSt11char_traitsIcESaIcEEE
libbelcard.so.1:_ZN7belcard15BelCardRevisionC1Ev
libbelcard.so.1:_ZN7belcard15BelCardRevisionC2Ev
libbelcard.so.1:_ZN7belcard15BelCardTimezone23setHandlerAndCollectorsEPN4belr6ParserISt10shared_ptrINS_14BelCardGenericEEEE
libbelcard.so.1:_ZN7belcard15BelCardTimezone5parseERKNSt7__cxx1112basic_stringIcSt11char_traitsIcESaIcEEE
libbelcard.so.1:_ZN7belcard15BelCardTimezoneC1Ev
libbelcard.so.1:_ZN7belcard15BelCardTimezoneC2Ev
libbelcard.so.1:_ZN7belcard15BelCardUniqueId23setHandlerAndCollectorsEPN4belr6ParserISt10shared_ptrINS_14BelCardGenericEEEE
libbelcard.so.1:_ZN7belcard15BelCardUniqueId5parseERKNSt7__cxx1112basic_stringIcSt11char_traitsIcESaIcEEE
libbelcard.so.1:_ZN7belcard15BelCardUniqueIdC1Ev
libbelcard.so.1:_ZN7belcard15BelCardUniqueIdC2Ev
libbelcard.so.1:_ZN7belcard16BelCardCALADRURI23setHandlerAndCollectorsEPN4belr6ParserISt10shared_ptrINS_14BelCardGenericEEEE
libbelcard.so.1:_ZN7belcard16BelCardCALADRURI5parseERKNSt7__cxx1112basic_stringIcSt11char_traitsIcESaIcEEE
libbelcard.so.1:_ZN7belcard16BelCardCALADRURIC1Ev
libbelcard.so.1:_ZN7belcard16BelCardCALADRURIC2Ev
libbelcard.so.1:_ZN7belcard16BelCardDeathDate23setHandlerAndCollectorsEPN4belr6ParserISt10shared_ptrINS_14BelCardGenericEEEE
libbelcard.so.1:_ZN7belcard16BelCardDeathDate5parseERKNSt7__cxx1112basic_stringIcSt11char_traitsIcESaIcEEE
libbelcard.so.1:_ZN7belcard16BelCardDeathDateC1Ev
libbelcard.so.1:_ZN7belcard16BelCardDeathDateC2Ev
libbelcard.so.1:_ZN7belcard16BelCardPrefParam23setHandlerAndCollectorsEPN4belr6ParserISt10shared_ptrINS_14BelCardGenericEEEE
libbelcard.so.1:_ZN7belcard16BelCardPrefParam5parseERKNSt7__cxx1112basic_stringIcSt11char_traitsIcESaIcEEE
libbelcard.so.1:_ZN7belcard16BelCardPrefParamC1Ev
libbelcard.so.1:_ZN7belcard16BelCardPrefParamC2Ev
libbelcard.so.1:_ZN7belcard16BelCardProductId23setHandlerAndCollectorsEPN4belr6ParserISt10shared_ptrINS_14BelCardGenericEEEE
libbelcard.so.1:_ZN7belcard16BelCardProductId5parseERKNSt7__cxx1112basic_stringIcSt11char_traitsIcESaIcEEE
libbelcard.so.1:_ZN7belcard16BelCardProductIdC1Ev
libbelcard.so.1:_ZN7belcard16BelCardProductIdC2Ev
libbelcard.so.1:_ZN7belcard16BelCardTypeParam23setHandlerAndCollectorsEPN4belr6ParserISt10shared_ptrINS_14BelCardGenericEEEE
libbelcard.so.1:_ZN7belcard16BelCardTypeParam5parseERKNSt7__cxx1112basic_stringIcSt11char_traitsIcESaIcEEE
libbelcard.so.1:_ZN7belcard16BelCardTypeParamC1Ev
libbelcard.so.1:_ZN7belcard16BelCardTypeParamC2Ev
libbelcard.so.1:_ZN7belcard17BelCardBirthPlace23setHandlerAndCollectorsEPN4belr6ParserISt10shared_ptrINS_14BelCardGenericEEEE
libbelcard.so.1:_ZN7belcard17BelCardBirthPlace5parseERKNSt7__cxx1112basic_stringIcSt11char_traitsIcESaIcEEE
libbelcard.so.1:_ZN7belcard17BelCardBirthPlaceC1Ev
libbelcard.so.1:_ZN7belcard17BelCardBirthPlaceC2Ev
libbelcard.so.1:_ZN7belcard17BelCardCategories23setHandlerAndCollectorsEPN4belr6ParserISt10shared_ptrINS_14BelCardGenericEEEE
libbelcard.so.1:_ZN7belcard17BelCardCategories5parseERKNSt7__cxx1112basic_stringIcSt11char_traitsIcESaIcEEE
libbelcard.so.1:_ZN7belcard17BelCardCategoriesC1Ev
libbelcard.so.1:_ZN7belcard17BelCardCategoriesC2Ev
libbelcard.so.1:_ZN7belcard17BelCardDeathPlace23setHandlerAndCollectorsEPN4belr6ParserISt10shared_ptrINS_14BelCardGenericEEEE
libbelcard.so.1:_ZN7belcard17BelCardDeathPlace5parseERKNSt7__cxx1112basic_stringIcSt11char_traitsIcESaIcEEE
libbelcard.so.1:_ZN7belcard17BelCardDeathPlaceC1Ev
libbelcard.so.1:_ZN7belcard17BelCardDeathPlaceC2Ev
libbelcard.so.1:_ZN7belcard17BelCardLabelParam23setHandlerAndCollectorsEPN4belr6ParserISt10shared_ptrINS_14BelCardGenericEEEE
libbelcard.so.1:_ZN7belcard17BelCardLabelParam5parseERKNSt7__cxx1112basic_stringIcSt11char_traitsIcESaIcEEE
libbelcard.so.1:_ZN7belcard17BelCardLabelParamC1Ev
libbelcard.so.1:_ZN7belcard17BelCardLabelParamC2Ev
libbelcard.so.1:_ZN7belcard17BelCardValueParam23setHandlerAndCollectorsEPN4belr6ParserISt10shared_ptrINS_14BelCardGenericEEEE
libbelcard.so.1:_ZN7belcard17BelCardValueParam5parseERKNSt7__cxx1112basic_stringIcSt11char_traitsIcESaIcEEE
libbelcard.so.1:_ZN7belcard17BelCardValueParamC1Ev
libbelcard.so.1:_ZN7belcard17BelCardValueParamC2Ev
libbelcard.so.1:_ZN7belcard18BelCardAnniversary23setHandlerAndCollectorsEPN4belr6ParserISt10shared_ptrINS_14BelCardGenericEEEE
libbelcard.so.1:_ZN7belcard18BelCardAnniversary5parseERKNSt7__cxx1112basic_stringIcSt11char_traitsIcESaIcEEE
libbelcard.so.1:_ZN7belcard18BelCardAnniversaryC1Ev
libbelcard.so.1:_ZN7belcard18BelCardAnniversaryC2Ev
libbelcard.so.1:_ZN7belcard18BelCardPhoneNumber23setHandlerAndCollectorsEPN4belr6ParserISt10shared_ptrINS_14BelCardGenericEEEE
libbelcard.so.1:_ZN7belcard18BelCardPhoneNumber5parseERKNSt7__cxx1112basic_stringIcSt11char_traitsIcESaIcEEE
libbelcard.so.1:_ZN7belcard18BelCardPhoneNumberC1Ev
libbelcard.so.1:_ZN7belcard18BelCardPhoneNumberC2Ev
libbelcard.so.1:_ZN7belcard18BelCardSortAsParam23setHandlerAndCollectorsEPN4belr6ParserISt10shared_ptrINS_14BelCardGenericEEEE
libbelcard.so.1:_ZN7belcard18BelCardSortAsParam5parseERKNSt7__cxx1112basic_stringIcSt11char_traitsIcESaIcEEE
libbelcard.so.1:_ZN7belcard18BelCardSortAsParamC1Ev
libbelcard.so.1:_ZN7belcard18BelCardSortAsParamC2Ev
libbelcard.so.1:_ZN7belcard19BelCardOrganization23setHandlerAndCollectorsEPN4belr6ParserISt10shared_ptrINS_14BelCardGenericEEEE
libbelcard.so.1:_ZN7belcard19BelCardOrganization5parseERKNSt7__cxx1112basic_stringIcSt11char_traitsIcESaIcEEE
libbelcard.so.1:_ZN7belcard19BelCardOrganizationC1Ev
libbelcard.so.1:_ZN7belcard19BelCardOrganizationC2Ev
libbelcard.so.1:_ZN7belcard19BelCardParamIdParam23setHandlerAndCollectorsEPN4belr6ParserISt10shared_ptrINS_14BelCardGenericEEEE
libbelcard.so.1:_ZN7belcard19BelCardParamIdParam5parseERKNSt7__cxx1112basic_stringIcSt11char_traitsIcESaIcEEE
libbelcard.so.1:_ZN7belcard19BelCardParamIdParamC1Ev
libbelcard.so.1:_ZN7belcard19BelCardParamIdParamC2Ev
libbelcard.so.1:_ZN7belcard20BelCardCALSCALEParam23setHandlerAndCollectorsEPN4belr6ParserISt10shared_ptrINS_14BelCardGenericEEEE
libbelcard.so.1:_ZN7belcard20BelCardCALSCALEParam5parseERKNSt7__cxx1112basic_stringIcSt11char_traitsIcESaIcEEE
libbelcard.so.1:_ZN7belcard20BelCardCALSCALEParamC1Ev
libbelcard.so.1:_ZN7belcard20BelCardCALSCALEParamC2Ev
libbelcard.so.1:_ZN7belcard20BelCardLanguageParam23setHandlerAndCollectorsEPN4belr6ParserISt10shared_ptrINS_14BelCardGenericEEEE
libbelcard.so.1:_ZN7belcard20BelCardLanguageParam5parseERKNSt7__cxx1112basic_stringIcSt11char_traitsIcESaIcEEE
libbelcard.so.1:_ZN7belcard20BelCardLanguageParamC1Ev
libbelcard.so.1:_ZN7belcard20BelCardLanguageParamC2Ev
libbelcard.so.1:_ZN7belcard20BelCardTimezoneParam23setHandlerAndCollectorsEPN4belr6ParserISt10shared_ptrINS_14BelCardGenericEEEE
libbelcard.so.1:_ZN7belcard20BelCardTimezoneParam5parseERKNSt7__cxx1112basic_stringIcSt11char_traitsIcESaIcEEE
libbelcard.so.1:_ZN7belcard20BelCardTimezoneParamC1Ev
libbelcard.so.1:_ZN7belcard20BelCardTimezoneParamC2Ev
libbelcard.so.1:_ZN7belcard21BelCardMediaTypeParam23setHandlerAndCollectorsEPN4belr6ParserISt10shared_ptrINS_14BelCardGenericEEEE
libbelcard.so.1:_ZN7belcard21BelCardMediaTypeParam5parseERKNSt7__cxx1112basic_stringIcSt11char_traitsIcESaIcEEE
libbelcard.so.1:_ZN7belcard21BelCardMediaTypeParamC1Ev
libbelcard.so.1:_ZN7belcard21BelCardMediaTypeParamC2Ev
libbelcard.so.1:_ZN7belcard25BelCardAlternativeIdParam23setHandlerAndCollectorsEPN4belr6ParserISt10shared_ptrINS_14BelCardGenericEEEE
libbelcard.so.1:_ZN7belcard25BelCardAlternativeIdParam5parseERKNSt7__cxx1112basic_stringIcSt11char_traitsIcESaIcEEE
libbelcard.so.1:_ZN7belcard25BelCardAlternativeIdParamC1Ev
libbelcard.so.1:_ZN7belcard25BelCardAlternativeIdParamC2Ev
libbelcard.so.1:_ZN7belcard25BelCardClientProductIdMap23setHandlerAndCollectorsEPN4belr6ParserISt10shared_ptrINS_14BelCardGenericEEEE
libbelcard.so.1:_ZN7belcard25BelCardClientProductIdMap5parseERKNSt7__cxx1112basic_stringIcSt11char_traitsIcESaIcEEE
libbelcard.so.1:_ZN7belcard25BelCardClientProductIdMapC1Ev
libbelcard.so.1:_ZN7belcard25BelCardClientProductIdMapC2Ev
libbelcard.so.1:_ZN7belcard7BelCard10_addCALURIERKSt10shared_ptrINS_13BelCardCALURIEE
libbelcard.so.1:_ZN7belcard7BelCard10_addMemberERKSt10shared_ptrINS_13BelCardMemberEE
libbelcard.so.1:_ZN7belcard7BelCard10_addSourceERKSt10shared_ptrINS_13BelCardSourceEE
libbelcard.so.1:_ZN7belcard7BelCard10_setGenderERKSt10shared_ptrINS_13BelCardGenderEE
libbelcard.so.1:_ZN7belcard7BelCard10addAddressERKSt10shared_ptrINS_14BelCardAddressEE
libbelcard.so.1:_ZN7belcard7BelCard10addRelatedERKSt10shared_ptrINS_14BelCardRelatedEE
libbelcard.so.1:_ZN7belcard7BelCard10removeImppERKSt10shared_ptrINS_11BelCardImppEE
libbelcard.so.1:_ZN7belcard7BelCard10removeLangERKSt10shared_ptrINS_11BelCardLangEE
libbelcard.so.1:_ZN7belcard7BelCard10removeLogoERKSt10shared_ptrINS_11BelCardLogoEE
libbelcard.so.1:_ZN7belcard7BelCard10removeNoteERKSt10shared_ptrINS_11BelCardNoteEE
libbelcard.so.1:_ZN7belcard7BelCard10removeRoleERKSt10shared_ptrINS_11BelCardRoleEE
libbelcard.so.1:_ZN7belcard7BelCard11_addAddressERKSt10shared_ptrINS_14BelCardAddressEE
libbelcard.so.1:_ZN7belcard7BelCard11_addRelatedERKSt10shared_ptrINS_14BelCardRelatedEE
libbelcard.so.1:_ZN7belcard7BelCard11addNicknameERKSt10shared_ptrINS_15BelCardNicknameEE
libbelcard.so.1:_ZN7belcard7BelCard11addPropertyERKSt10shared_ptrINS_15BelCardPropertyEE
libbelcard.so.1:_ZN7belcard7BelCard11addTimezoneERKSt10shared_ptrINS_15BelCardTimezoneEE
libbelcard.so.1:_ZN7belcard7BelCard11removeEmailERKSt10shared_ptrINS_12BelCardEmailEE
libbelcard.so.1:_ZN7belcard7BelCard11removeFBURLERKSt10shared_ptrINS_12BelCardFBURLEE
libbelcard.so.1:_ZN7belcard7BelCard11removePhotoERKSt10shared_ptrINS_12BelCardPhotoEE
libbelcard.so.1:_ZN7belcard7BelCard11removeSoundERKSt10shared_ptrINS_12BelCardSoundEE
libbelcard.so.1:_ZN7belcard7BelCard11removeTitleERKSt10shared_ptrINS_12BelCardTitleEE
libbelcard.so.1:_ZN7belcard7BelCard11setBirthdayERKSt10shared_ptrINS_15BelCardBirthdayEE
libbelcard.so.1:_ZN7belcard7BelCard11setFullNameERKSt10shared_ptrINS_15BelCardFullNameEE
libbelcard.so.1:_ZN7belcard7BelCard11setRevisionERKSt10shared_ptrINS_15BelCardRevisionEE
libbelcard.so.1:_ZN7belcard7BelCard11setUniqueIdERKSt10shared_ptrINS_15BelCardUniqueIdEE
libbelcard.so.1:_ZN7belcard7BelCard12_addNicknameERKSt10shared_ptrINS_15BelCardNicknameEE
libbelcard.so.1:_ZN7belcard7BelCard12_addTimezoneERKSt10shared_ptrINS_15BelCardTimezoneEE
libbelcard.so.1:_ZN7belcard7BelCard12_setBirthdayERKSt10shared_ptrINS_15BelCardBirthdayEE
libbelcard.so.1:_ZN7belcard7BelCard12_setFullNameERKSt10shared_ptrINS_15BelCardFullNameEE
libbelcard.so.1:_ZN7belcard7BelCard12_setRevisionERKSt10shared_ptrINS_15BelCardRevisionEE
libbelcard.so.1:_ZN7belcard7BelCard12_setUniqueIdERKSt10shared_ptrINS_15BelCardUniqueIdEE
libbelcard.so.1:_ZN7belcard7BelCard12addCALADRURIERKSt10shared_ptrINS_16BelCardCALADRURIEE
libbelcard.so.1:_ZN7belcard7BelCard12removeCALURIERKSt10shared_ptrINS_13BelCardCALURIEE
libbelcard.so.1:_ZN7belcard7BelCard12removeMemberERKSt10shared_ptrINS_13BelCardMemberEE
libbelcard.so.1:_ZN7belcard7BelCard12removeSourceERKSt10shared_ptrINS_13BelCardSourceEE
libbelcard.so.1:_ZN7belcard7BelCard12setDeathDateERKSt10shared_ptrINS_16BelCardDeathDateEE
libbelcard.so.1:_ZN7belcard7BelCard12setProductIdERKSt10shared_ptrINS_16BelCardProductIdEE
libbelcard.so.1:_ZN7belcard7BelCard13_addCALADRURIERKSt10shared_ptrINS_16BelCardCALADRURIEE
libbelcard.so.1:_ZN7belcard7BelCard13_setDeathDateERKSt10shared_ptrINS_16BelCardDeathDateEE
libbelcard.so.1:_ZN7belcard7BelCard13_setProductIdERKSt10shared_ptrINS_16BelCardProductIdEE
libbelcard.so.1:_ZN7belcard7BelCard13addCategoriesERKSt10shared_ptrINS_17BelCardCategoriesEE
libbelcard.so.1:_ZN7belcard7BelCard13removeAddressERKSt10shared_ptrINS_14BelCardAddressEE
libbelcard.so.1:_ZN7belcard7BelCard13removeRelatedERKSt10shared_ptrINS_14BelCardRelatedEE
libbelcard.so.1:_ZN7belcard7BelCard13setBirthPlaceERKSt10shared_ptrINS_17BelCardBirthPlaceEE
libbelcard.so.1:_ZN7belcard7BelCard13setDeathPlaceERKSt10shared_ptrINS_17BelCardDeathPlaceEE
libbelcard.so.1:_ZN7belcard7BelCard14_addCategoriesERKSt10shared_ptrINS_17BelCardCategoriesEE
libbelcard.so.1:_ZN7belcard7BelCard14_setBirthPlaceERKSt10shared_ptrINS_17BelCardBirthPlaceEE
libbelcard.so.1:_ZN7belcard7BelCard14_setDeathPlaceERKSt10shared_ptrINS_17BelCardDeathPlaceEE
libbelcard.so.1:_ZN7belcard7BelCard14addPhoneNumberERKSt10shared_ptrINS_18BelCardPhoneNumberEE
libbelcard.so.1:_ZN7belcard7BelCard14removeNicknameERKSt10shared_ptrINS_15BelCardNicknameEE
libbelcard.so.1:_ZN7belcard7BelCard14removePropertyERKSt10shared_ptrINS_15BelCardPropertyEE
libbelcard.so.1:_ZN7belcard7BelCard14removeTimezoneERKSt10shared_ptrINS_15BelCardTimezoneEE
libbelcard.so.1:_ZN7belcard7BelCard14setAnniversaryERKSt10shared_ptrINS_18BelCardAnniversaryEE
libbelcard.so.1:_ZN7belcard7BelCard14toFoldedStringB5cxx11Ev
libbelcard.so.1:_ZN7belcard7BelCard15_addPhoneNumberERKSt10shared_ptrINS_18BelCardPhoneNumberEE
libbelcard.so.1:_ZN7belcard7BelCard15_setAnniversaryERKSt10shared_ptrINS_18BelCardAnniversaryEE
libbelcard.so.1:_ZN7belcard7BelCard15addOrganizationERKSt10shared_ptrINS_19BelCardOrganizationEE
libbelcard.so.1:_ZN7belcard7BelCard15removeCALADRURIERKSt10shared_ptrINS_16BelCardCALADRURIEE
libbelcard.so.1:_ZN7belcard7BelCard16_addOrganizationERKSt10shared_ptrINS_19BelCardOrganizationEE
libbelcard.so.1:_ZN7belcard7BelCard16removeCategoriesERKSt10shared_ptrINS_17BelCardCategoriesEE
libbelcard.so.1:_ZN7belcard7BelCard17removePhoneNumberERKSt10shared_ptrINS_18BelCardPhoneNumberEE
libbelcard.so.1:_ZN7belcard7BelCard18removeOrganizationERKSt10shared_ptrINS_19BelCardOrganizationEE
libbelcard.so.1:_ZN7belcard7BelCard19addExtendedPropertyERKSt10shared_ptrINS_15BelCardPropertyEE
libbelcard.so.1:_ZN7belcard7BelCard20_addExtendedPropertyERKSt10shared_ptrINS_15BelCardPropertyEE
libbelcard.so.1:_ZN7belcard7BelCard21addClientProductIdMapERKSt10shared_ptrINS_25BelCardClientProductIdMapEE
libbelcard.so.1:_ZN7belcard7BelCard22_addClientProductIdMapERKSt10shared_ptrINS_25BelCardClientProductIdMapEE
libbelcard.so.1:_ZN7belcard7BelCard22getSkipFieldValidationEv
libbelcard.so.1:_ZN7belcard7BelCard22removeExtendedPropertyERKSt10shared_ptrINS_15BelCardPropertyEE
libbelcard.so.1:_ZN7belcard7BelCard22setSkipFieldValidationEb
libbelcard.so.1:_ZN7belcard7BelCard23setHandlerAndCollectorsEPN4belr6ParserISt10shared_ptrINS_14BelCardGenericEEEE
libbelcard.so.1:_ZN7belcard7BelCard24removeClientProductIdMapERKSt10shared_ptrINS_25BelCardClientProductIdMapEE
libbelcard.so.1:_ZN7belcard7BelCard6addGeoERKSt10shared_ptrINS_10BelCardGeoEE
libbelcard.so.1:_ZN7belcard7BelCard6addKeyERKSt10shared_ptrINS_10BelCardKeyEE
libbelcard.so.1:_ZN7belcard7BelCard6addURLERKSt10shared_ptrINS_10BelCardURLEE
libbelcard.so.1:_ZN7belcard7BelCard6addXMLERKSt10shared_ptrINS_10BelCardXMLEE
libbelcard.so.1:_ZN7belcard7BelCard7_addGeoERKSt10shared_ptrINS_10BelCardGeoEE
libbelcard.so.1:_ZN7belcard7BelCard7_addKeyERKSt10shared_ptrINS_10BelCardKeyEE
libbelcard.so.1:_ZN7belcard7BelCard7_addURLERKSt10shared_ptrINS_10BelCardURLEE
libbelcard.so.1:_ZN7belcard7BelCard7_addXMLERKSt10shared_ptrINS_10BelCardXMLEE
libbelcard.so.1:_ZN7belcard7BelCard7addImppERKSt10shared_ptrINS_11BelCardImppEE
libbelcard.so.1:_ZN7belcard7BelCard7addLangERKSt10shared_ptrINS_11BelCardLangEE
libbelcard.so.1:_ZN7belcard7BelCard7addLogoERKSt10shared_ptrINS_11BelCardLogoEE
libbelcard.so.1:_ZN7belcard7BelCard7addNoteERKSt10shared_ptrINS_11BelCardNoteEE
libbelcard.so.1:_ZN7belcard7BelCard7addRoleERKSt10shared_ptrINS_11BelCardRoleEE
libbelcard.so.1:_ZN7belcard7BelCard7setKindERKSt10shared_ptrINS_11BelCardKindEE
libbelcard.so.1:_ZN7belcard7BelCard7setNameERKSt10shared_ptrINS_11BelCardNameEE
libbelcard.so.1:_ZN7belcard7BelCard8_addImppERKSt10shared_ptrINS_11BelCardImppEE
libbelcard.so.1:_ZN7belcard7BelCard8_addLangERKSt10shared_ptrINS_11BelCardLangEE
libbelcard.so.1:_ZN7belcard7BelCard8_addLogoERKSt10shared_ptrINS_11BelCardLogoEE
libbelcard.so.1:_ZN7belcard7BelCard8_addNoteERKSt10shared_ptrINS_11BelCardNoteEE
libbelcard.so.1:_ZN7belcard7BelCard8_addRoleERKSt10shared_ptrINS_11BelCardRoleEE
libbelcard.so.1:_ZN7belcard7BelCard8_setKindERKSt10shared_ptrINS_11BelCardKindEE
libbelcard.so.1:_ZN7belcard7BelCard8_setNameERKSt10shared_ptrINS_11BelCardNameEE
libbelcard.so.1:_ZN7belcard7BelCard8addEmailERKSt10shared_ptrINS_12BelCardEmailEE
libbelcard.so.1:_ZN7belcard7BelCard8addFBURLERKSt10shared_ptrINS_12BelCardFBURLEE
libbelcard.so.1:_ZN7belcard7BelCard8addPhotoERKSt10shared_ptrINS_12BelCardPhotoEE
libbelcard.so.1:_ZN7belcard7BelCard8addSoundERKSt10shared_ptrINS_12BelCardSoundEE
libbelcard.so.1:_ZN7belcard7BelCard8addTitleERKSt10shared_ptrINS_12BelCardTitleEE
libbelcard.so.1:_ZN7belcard7BelCard9_addEmailERKSt10shared_ptrINS_12BelCardEmailEE
libbelcard.so.1:_ZN7belcard7BelCard9_addFBURLERKSt10shared_ptrINS_12BelCardFBURLEE
libbelcard.so.1:_ZN7belcard7BelCard9_addPhotoERKSt10shared_ptrINS_12BelCardPhotoEE
libbelcard.so.1:_ZN7belcard7BelCard9_addSoundERKSt10shared_ptrINS_12BelCardSoundEE
libbelcard.so.1:_ZN7belcard7BelCard9_addTitleERKSt10shared_ptrINS_12BelCardTitleEE
libbelcard.so.1:_ZN7belcard7BelCard9addCALURIERKSt10shared_ptrINS_13BelCardCALURIEE
libbelcard.so.1:_ZN7belcard7BelCard9addMemberERKSt10shared_ptrINS_13BelCardMemberEE
libbelcard.so.1:_ZN7belcard7BelCard9addSourceERKSt10shared_ptrINS_13BelCardSourceEE
libbelcard.so.1:_ZN7belcard7BelCard9removeGeoERKSt10shared_ptrINS_10BelCardGeoEE
libbelcard.so.1:_ZN7belcard7BelCard9removeKeyERKSt10shared_ptrINS_10BelCardKeyEE
libbelcard.so.1:_ZN7belcard7BelCard9removeURLERKSt10shared_ptrINS_10BelCardURLEE
libbelcard.so.1:_ZN7belcard7BelCard9removeXMLERKSt10shared_ptrINS_10BelCardXMLEE
libbelcard.so.1:_ZN7belcard7BelCard9setGenderERKSt10shared_ptrINS_13BelCardGenderEE
libbelcard.so.1:_ZN7belcard7BelCardC1Ev
libbelcard.so.1:_ZN7belcard7BelCardC2Ev
libbelcard.so.1:_ZNK7belcard11BelCardList8getCardsB5cxx11Ev
libbelcard.so.1:_ZNK7belcard11BelCardList9serializeERSo
libbelcard.so.1:_ZNK7belcard11BelCardName11getPrefixesB5cxx11Ev
libbelcard.so.1:_ZNK7belcard11BelCardName11getSuffixesB5cxx11Ev
libbelcard.so.1:_ZNK7belcard11BelCardName12getGivenNameB5cxx11Ev
libbelcard.so.1:_ZNK7belcard11BelCardName13getFamilyNameB5cxx11Ev
libbelcard.so.1:_ZNK7belcard11BelCardName17getAdditionalNameB5cxx11Ev
libbelcard.so.1:_ZNK7belcard11BelCardName9serializeERSo
libbelcard.so.1:_ZNK7belcard12BelCardParam7getNameB5cxx11Ev
libbelcard.so.1:_ZNK7belcard12BelCardParam8getValueB5cxx11Ev
libbelcard.so.1:_ZNK7belcard12BelCardParam9serializeERSo
libbelcard.so.1:_ZNK7belcard14BelCardAddress10getCountryB5cxx11Ev
libbelcard.so.1:_ZNK7belcard14BelCardAddress11getLocalityB5cxx11Ev
libbelcard.so.1:_ZNK7belcard14BelCardAddress13getLabelParamEv
libbelcard.so.1:_ZNK7belcard14BelCardAddress13getPostalCodeB5cxx11Ev
libbelcard.so.1:_ZNK7belcard14BelCardAddress16getPostOfficeBoxB5cxx11Ev
libbelcard.so.1:_ZNK7belcard14BelCardAddress18getExtendedAddressB5cxx11Ev
libbelcard.so.1:_ZNK7belcard14BelCardAddress9getRegionB5cxx11Ev
libbelcard.so.1:_ZNK7belcard14BelCardAddress9getStreetB5cxx11Ev
libbelcard.so.1:_ZNK7belcard14BelCardAddress9serializeERSo
libbelcard.so.1:_ZNK7belcard15BelCardProperty11getGeoParamEv
libbelcard.so.1:_ZNK7belcard15BelCardProperty12getPrefParamEv
libbelcard.so.1:_ZNK7belcard15BelCardProperty12getTypeParamEv
libbelcard.so.1:_ZNK7belcard15BelCardProperty13getValueParamEv
libbelcard.so.1:_ZNK7belcard15BelCardProperty14getSortAsParamEv
libbelcard.so.1:_ZNK7belcard15BelCardProperty15getParamIdParamEv
libbelcard.so.1:_ZNK7belcard15BelCardProperty16getCALSCALEParamEv
libbelcard.so.1:_ZNK7belcard15BelCardProperty16getLanguageParamEv
libbelcard.so.1:_ZNK7belcard15BelCardProperty16getTimezoneParamEv
libbelcard.so.1:_ZNK7belcard15BelCardProperty17getMediaTypeParamEv
libbelcard.so.1:_ZNK7belcard15BelCardProperty21getAlternativeIdParamEv
libbelcard.so.1:_ZNK7belcard15BelCardProperty7getNameB5cxx11Ev
libbelcard.so.1:_ZNK7belcard15BelCardProperty8getGroupB5cxx11Ev
libbelcard.so.1:_ZNK7belcard15BelCardProperty8getValueB5cxx11Ev
libbelcard.so.1:_ZNK7belcard15BelCardProperty9getParamsB5cxx11Ev
libbelcard.so.1:_ZNK7belcard15BelCardProperty9serializeERSo
libbelcard.so.1:_ZNK7belcard7BelCard10getCALURIsB5cxx11Ev
libbelcard.so.1:_ZNK7belcard7BelCard10getMembersB5cxx11Ev
libbelcard.so.1:_ZNK7belcard7BelCard10getRelatedB5cxx11Ev
libbelcard.so.1:_ZNK7belcard7BelCard11getBirthdayEv
libbelcard.so.1:_ZNK7belcard7BelCard11getFullNameEv
libbelcard.so.1:_ZNK7belcard7BelCard11getRevisionEv
libbelcard.so.1:_ZNK7belcard7BelCard11getUniqueIdEv
libbelcard.so.1:_ZNK7belcard7BelCard12getAddressesB5cxx11Ev
libbelcard.so.1:_ZNK7belcard7BelCard12getDeathDateEv
libbelcard.so.1:_ZNK7belcard7BelCard12getNicknamesB5cxx11Ev
libbelcard.so.1:_ZNK7belcard7BelCard12getProductIdEv
libbelcard.so.1:_ZNK7belcard7BelCard12getTimezonesB5cxx11Ev
libbelcard.so.1:_ZNK7belcard7BelCard13getBirthPlaceEv
libbelcard.so.1:_ZNK7belcard7BelCard13getCALADRURIsB5cxx11Ev
libbelcard.so.1:_ZNK7belcard7BelCard13getCategoriesB5cxx11Ev
libbelcard.so.1:_ZNK7belcard7BelCard13getDeathPlaceEv
libbelcard.so.1:_ZNK7belcard7BelCard13getPropertiesB5cxx11Ev
libbelcard.so.1:_ZNK7belcard7BelCard14getAnniversaryEv
libbelcard.so.1:_ZNK7belcard7BelCard15getPhoneNumbersB5cxx11Ev
libbelcard.so.1:_ZNK7belcard7BelCard16getOrganizationsB5cxx11Ev
libbelcard.so.1:_ZNK7belcard7BelCard19assertRFCComplianceEv
libbelcard.so.1:_ZNK7belcard7BelCard21getExtendedPropertiesB5cxx11Ev
libbelcard.so.1:_ZNK7belcard7BelCard22getClientProductIdMapsB5cxx11Ev
libbelcard.so.1:_ZNK7belcard7BelCard6getXMLB5cxx11Ev
libbelcard.so.1:_ZNK7belcard7BelCard7getGeosB5cxx11Ev
libbelcard.so.1:_ZNK7belcard7BelCard7getImppB5cxx11Ev
libbelcard.so.1:_ZNK7belcard7BelCard7getKeysB5cxx11Ev
libbelcard.so.1:_ZNK7belcard7BelCard7getKindEv
libbelcard.so.1:_ZNK7belcard7BelCard7getNameEv
libbelcard.so.1:_ZNK7belcard7BelCard7getURLsB5cxx11Ev
libbelcard.so.1:_ZNK7belcard7BelCard8getLangsB5cxx11Ev
libbelcard.so.1:_ZNK7belcard7BelCard8getLogosB5cxx11Ev
libbelcard.so.1:_ZNK7belcard7BelCard8getNotesB5cxx11Ev
libbelcard.so.1:_ZNK7belcard7BelCard8getRolesB5cxx11Ev
libbelcard.so.1:_ZNK7belcard7BelCard9getEmailsB5cxx11Ev
libbelcard.so.1:_ZNK7belcard7BelCard9getFBURLsB5cxx11Ev
libbelcard.so.1:_ZNK7belcard7BelCard9getGenderEv
libbelcard.so.1:_ZNK7belcard7BelCard9getPhotosB5cxx11Ev
libbelcard.so.1:_ZNK7belcard7BelCard9getSoundsB5cxx11Ev
libbelcard.so.1:_ZNK7belcard7BelCard9getSourceB5cxx11Ev
libbelcard.so.1:_ZNK7belcard7BelCard9getTitlesB5cxx11Ev
libbelcard.so.1:_ZNK7belcard7BelCard9serializeERSo
libbelle-sip.so.1:ANTLR3_TREE_ADAPTORDebugNew
libbelle-sip.so.1:ANTLR3_TREE_ADAPTORNew
libbelle-sip.so.1:ConvertUTF16toUTF32
libbelle-sip.so.1:ConvertUTF16toUTF8
libbelle-sip.so.1:ConvertUTF32toUTF16
libbelle-sip.so.1:ConvertUTF32toUTF8
libbelle-sip.so.1:ConvertUTF8toUTF16
libbelle-sip.so.1:ConvertUTF8toUTF32
libbelle-sip.so.1:_Z20belle_sdp_info_cloneP15_belle_sdp_infoPKS_
libbelle-sip.so.1:_Z20belle_sdp_time_cloneP15_belle_sdp_timePKS_
libbelle-sip.so.1:_Z21belle_sdp_email_cloneP16_belle_sdp_emailPKS_
libbelle-sip.so.1:_Z21belle_sdp_media_cloneP16_belle_sdp_mediaPKS_
libbelle-sip.so.1:_Z22belle_sdp_info_destroyP15_belle_sdp_info
libbelle-sip.so.1:_Z22belle_sdp_info_marshalP15_belle_sdp_infoPcmPm
libbelle-sip.so.1:_Z22belle_sdp_origin_cloneP17_belle_sdp_originPKS_
libbelle-sip.so.1:_Z22belle_sdp_time_destroyP15_belle_sdp_time
libbelle-sip.so.1:_Z22belle_sdp_time_marshalP15_belle_sdp_timePcmPm
libbelle-sip.so.1:_Z23belle_sdp_email_destroyP16_belle_sdp_email
libbelle-sip.so.1:_Z23belle_sdp_email_marshalP16_belle_sdp_emailPcmPm
libbelle-sip.so.1:_Z23belle_sdp_media_destroyP16_belle_sdp_media
libbelle-sip.so.1:_Z23belle_sdp_media_marshalP16_belle_sdp_mediaPcmPm
libbelle-sip.so.1:_Z23belle_sdp_version_cloneP18_belle_sdp_versionPKS_
libbelle-sip.so.1:_Z24belle_sdp_origin_destroyP17_belle_sdp_origin
libbelle-sip.so.1:_Z24belle_sdp_origin_marshalP17_belle_sdp_originPcmPm
libbelle-sip.so.1:_Z25belle_sdp_attribute_cloneP20_belle_sdp_attributePKS_
libbelle-sip.so.1:_Z25belle_sdp_bandwidth_cloneP20_belle_sdp_bandwidthPKS_
libbelle-sip.so.1:_Z25belle_sdp_version_destroyP18_belle_sdp_version
libbelle-sip.so.1:_Z25belle_sdp_version_marshalP18_belle_sdp_versionPcmPm
libbelle-sip.so.1:_Z26belle_sdp_connection_cloneP21_belle_sdp_connectionPKS_
libbelle-sip.so.1:_Z27belle_sdp_attribute_destroyP20_belle_sdp_attribute
libbelle-sip.so.1:_Z27belle_sdp_attribute_marshalP20_belle_sdp_attributePcmPm
libbelle-sip.so.1:_Z27belle_sdp_bandwidth_destroyP20_belle_sdp_bandwidth
libbelle-sip.so.1:_Z27belle_sdp_bandwidth_marshalP20_belle_sdp_bandwidthPcmPm
libbelle-sip.so.1:_Z28belle_sdp_connection_destroyP21_belle_sdp_connection
libbelle-sip.so.1:_Z28belle_sdp_connection_marshalP21_belle_sdp_connectionPcmPm
libbelle-sip.so.1:_Z28belle_sdp_session_name_cloneP23_belle_sdp_session_namePKS_
libbelle-sip.so.1:_Z29belle_sdp_raw_attribute_cloneP24_belle_sdp_raw_attributePKS_
libbelle-sip.so.1:_Z30belle_sdp_acap_attribute_cloneP25_belle_sdp_acap_attributePKS_
libbelle-sip.so.1:_Z30belle_sdp_acfg_attribute_cloneP25_belle_sdp_acfg_attributePKS_
libbelle-sip.so.1:_Z30belle_sdp_creq_attribute_cloneP25_belle_sdp_creq_attributePKS_
libbelle-sip.so.1:_Z30belle_sdp_csup_attribute_cloneP25_belle_sdp_csup_attributePKS_
libbelle-sip.so.1:_Z30belle_sdp_pcfg_attribute_cloneP25_belle_sdp_pcfg_attributePKS_
libbelle-sip.so.1:_Z30belle_sdp_session_name_destroyP23_belle_sdp_session_name
libbelle-sip.so.1:_Z30belle_sdp_session_name_marshalP23_belle_sdp_session_namePcmPm
libbelle-sip.so.1:_Z30belle_sdp_tcap_attribute_cloneP25_belle_sdp_tcap_attributePKS_
libbelle-sip.so.1:_Z31belle_sdp_label_attribute_cloneP26_belle_sdp_label_attributePKS_
libbelle-sip.so.1:_Z31belle_sdp_raw_attribute_destroyP24_belle_sdp_raw_attribute
libbelle-sip.so.1:_Z31belle_sdp_raw_attribute_marshalP24_belle_sdp_raw_attributePcmPm
libbelle-sip.so.1:_Z32belle_sdp_acap_attribute_destroyP25_belle_sdp_acap_attribute
libbelle-sip.so.1:_Z32belle_sdp_acap_attribute_marshalP25_belle_sdp_acap_attributePcmPm
libbelle-sip.so.1:_Z32belle_sdp_acfg_attribute_destroyP25_belle_sdp_acfg_attribute
libbelle-sip.so.1:_Z32belle_sdp_acfg_attribute_marshalP25_belle_sdp_acfg_attributePcmPm
libbelle-sip.so.1:_Z32belle_sdp_creq_attribute_destroyP25_belle_sdp_creq_attribute
libbelle-sip.so.1:_Z32belle_sdp_creq_attribute_marshalP25_belle_sdp_creq_attributePcmPm
libbelle-sip.so.1:_Z32belle_sdp_csup_attribute_destroyP25_belle_sdp_csup_attribute
libbelle-sip.so.1:_Z32belle_sdp_csup_attribute_marshalP25_belle_sdp_csup_attributePcmPm
libbelle-sip.so.1:_Z32belle_sdp_pcfg_attribute_destroyP25_belle_sdp_pcfg_attribute
libbelle-sip.so.1:_Z32belle_sdp_pcfg_attribute_marshalP25_belle_sdp_pcfg_attributePcmPm
libbelle-sip.so.1:_Z32belle_sdp_tcap_attribute_destroyP25_belle_sdp_tcap_attribute
libbelle-sip.so.1:_Z32belle_sdp_tcap_attribute_marshalP25_belle_sdp_tcap_attributePcmPm
libbelle-sip.so.1:_Z32belle_sdp_time_description_cloneP27_belle_sdp_time_descriptionPKS_
libbelle-sip.so.1:_Z32belle_sip_main_loop_cpp_do_laterP19belle_sip_main_loopRKSt8functionIFvvEE
libbelle-sip.so.1:_Z32belle_sip_main_loop_cpp_do_laterP19belle_sip_main_loopRKSt8functionIFvvEEPKc
libbelle-sip.so.1:_Z33belle_sdp_content_attribute_cloneP28_belle_sdp_content_attributePKS_
libbelle-sip.so.1:_Z33belle_sdp_label_attribute_destroyP26_belle_sdp_label_attribute
libbelle-sip.so.1:_Z33belle_sdp_label_attribute_marshalP26_belle_sdp_label_attributePcmPm
libbelle-sip.so.1:_Z33belle_sdp_media_description_cloneP28_belle_sdp_media_descriptionPKS_
libbelle-sip.so.1:_Z33belle_sdp_rtcp_fb_attribute_cloneP28_belle_sdp_rtcp_fb_attributePKS_
libbelle-sip.so.1:_Z33belle_sdp_rtcp_xr_attribute_cloneP28_belle_sdp_rtcp_xr_attributePKS_
libbelle-sip.so.1:_Z34belle_sdp_base_description_marshalP27_belle_sdp_base_descriptionPcmPm
libbelle-sip.so.1:_Z34belle_sdp_time_description_destroyP27_belle_sdp_time_description
libbelle-sip.so.1:_Z34belle_sdp_time_description_marshalP27_belle_sdp_time_descriptionPcmPm
libbelle-sip.so.1:_Z35belle_sdp_content_attribute_destroyP28_belle_sdp_content_attribute
libbelle-sip.so.1:_Z35belle_sdp_content_attribute_marshalP28_belle_sdp_content_attributePcmPm
libbelle-sip.so.1:_Z35belle_sdp_media_description_destroyP28_belle_sdp_media_description
libbelle-sip.so.1:_Z35belle_sdp_media_description_marshalP28_belle_sdp_media_descriptionPcmPm
libbelle-sip.so.1:_Z35belle_sdp_rtcp_fb_attribute_destroyP28_belle_sdp_rtcp_fb_attribute
libbelle-sip.so.1:_Z35belle_sdp_rtcp_fb_attribute_marshalP28_belle_sdp_rtcp_fb_attributePcmPm
libbelle-sip.so.1:_Z35belle_sdp_rtcp_xr_attribute_destroyP28_belle_sdp_rtcp_xr_attribute
libbelle-sip.so.1:_Z35belle_sdp_rtcp_xr_attribute_marshalP28_belle_sdp_rtcp_xr_attributePcmPm
libbelle-sip.so.1:_Z35belle_sdp_session_description_cloneP30_belle_sdp_session_descriptionPKS_
libbelle-sip.so.1:_Z37belle_sdp_session_description_destroyP30_belle_sdp_session_description
libbelle-sip.so.1:_Z37belle_sdp_session_description_marshalP30_belle_sdp_session_descriptionPcmPm
libbelle-sip.so.1:_Z38belle_sip_main_loop_create_cpp_timeoutP19belle_sip_main_loopPSt8functionIFijEEjPKc
libbelle-sip.so.1:_Z38belle_sip_main_loop_create_cpp_timeoutP19belle_sip_main_loopRKSt8functionIFijEEjPKc
libbelle-sip.so.1:_Z40belle_sdp_base_description_add_attributeP27_belle_sdp_base_descriptionP20_belle_sdp_attribute
libbelle-sip.so.1:_Z40belle_sdp_base_description_add_bandwidthP27_belle_sdp_base_descriptionPK20_belle_sdp_bandwidth
libbelle-sip.so.1:_Z40belle_sdp_base_description_get_attributePK27_belle_sdp_base_descriptionPKc
libbelle-sip.so.1:_Z40belle_sdp_base_description_get_bandwidthPK27_belle_sdp_base_descriptionPKc
libbelle-sip.so.1:_Z40belle_sdp_base_description_set_bandwidthP27_belle_sdp_base_descriptionPKci
libbelle-sip.so.1:_Z40belle_sip_main_loop_create_cpp_timeout_2P19belle_sip_main_loopRKSt8functionIFbvEEjRKNSt7__cxx1112basic_stringIcSt11char_traitsIcESaIcEEE
libbelle-sip.so.1:_Z41belle_sdp_base_description_get_attributesPK27_belle_sdp_base_description
libbelle-sip.so.1:_Z41belle_sdp_base_description_set_attributesP27_belle_sdp_base_descriptionP11_bctbx_list
libbelle-sip.so.1:_Z41belle_sdp_base_description_set_bandwidthsP27_belle_sdp_base_descriptionP11_bctbx_list
libbelle-sip.so.1:_Z42belle_sdp_media_description_get_mime_typesPK28_belle_sdp_media_description
libbelle-sip.so.1:_Z43belle_sdp_base_description_remove_attributeP27_belle_sdp_base_descriptionPKc
libbelle-sip.so.1:_Z43belle_sdp_base_description_remove_bandwidthP27_belle_sdp_base_descriptionPKc
libbelle-sip.so.1:_Z46belle_sdp_base_description_get_attribute_valuePK27_belle_sdp_base_descriptionPKc
libbelle-sip.so.1:_Z46belle_sdp_base_description_get_bandwidth_valuePK27_belle_sdp_base_descriptionPKc
libbelle-sip.so.1:_Z46belle_sdp_base_description_set_attribute_valueP27_belle_sdp_base_descriptionPKcS2_
libbelle-sip.so.1:_Z52belle_sdp_base_description_find_attributes_with_namePK27_belle_sdp_base_descriptionPKc
libbelle-sip.so.1:_ZN8bellesip3SDP6Parser11getInstanceEv
libbelle-sip.so.1:_ZN8bellesip3SDP6Parser11loadGrammarEv
libbelle-sip.so.1:_ZN8bellesip3SDP6Parser5parseERKNSt7__cxx1112basic_stringIcSt11char_traitsIcESaIcEEES9_
libbelle-sip.so.1:_ZN8bellesip3SDP6Parser8instanceE
libbelle-sip.so.1:_ZN8bellesip3SDP6ParserC1Ev
libbelle-sip.so.1:_ZN8bellesip3SDP6ParserC2Ev
libbelle-sip.so.1:_ZN8bellesip6Object10getCObjectEv
libbelle-sip.so.1:_ZN8bellesip6Object12getCppObjectEPKv
libbelle-sip.so.1:_ZN8bellesip6Object12getCppObjectEPv
libbelle-sip.so.1:_ZN8bellesip6Object3refEv
libbelle-sip.so.1:_ZN8bellesip6Object4initEv
libbelle-sip.so.1:_ZN8bellesip6Object5unrefEv
libbelle-sip.so.1:_ZN8bellesip6Object7marshalEPcmPm
libbelle-sip.so.1:_ZN8bellesip6ObjectC1EOS0_
libbelle-sip.so.1:_ZN8bellesip6ObjectC1ERKS0_
libbelle-sip.so.1:_ZN8bellesip6ObjectC1Ev
libbelle-sip.so.1:_ZN8bellesip6ObjectC2EOS0_
libbelle-sip.so.1:_ZN8bellesip6ObjectC2ERKS0_
libbelle-sip.so.1:_ZN8bellesip6ObjectC2Ev
libbelle-sip.so.1:_ZN8bellesip6ObjectD0Ev
libbelle-sip.so.1:_ZN8bellesip6ObjectD1Ev
libbelle-sip.so.1:_ZN8bellesip6ObjectD2Ev
libbelle-sip.so.1:_ZNK8bellesip6Object10constUnrefEv
libbelle-sip.so.1:_ZNK8bellesip6Object10getCObjectEv
libbelle-sip.so.1:_ZNK8bellesip6Object3refEv
libbelle-sip.so.1:_ZNK8bellesip6Object5cloneEv
libbelle-sip.so.1:_ZNK8bellesip6Object8toStringB5cxx11Ev
libbelle-sip.so.1:_belle_sip_dialog_match
libbelle-sip.so.1:_belle_sip_header_contact_set_expires
libbelle-sip.so.1:_belle_sip_header_contact_set_q
libbelle-sip.so.1:_belle_sip_header_via_set_port
libbelle-sip.so.1:_belle_sip_header_via_set_rport
libbelle-sip.so.1:_belle_sip_header_via_set_ttl
libbelle-sip.so.1:_belle_sip_listening_point_get_channel
libbelle-sip.so.1:_belle_sip_message_get_header_by_type_id
libbelle-sip.so.1:_belle_sip_object_copy
libbelle-sip.so.1:_belle_sip_object_describe_type
libbelle-sip.so.1:_belle_sip_object_init
libbelle-sip.so.1:_belle_sip_object_is_instance_of
libbelle-sip.so.1:_belle_sip_object_new
libbelle-sip.so.1:_belle_sip_str_dup_and_unquote_string
libbelle-sip.so.1:antlr38BitSetupStream
libbelle-sip.so.1:antlr3ArboretumNew
libbelle-sip.so.1:antlr3BaseRecognizerNew
libbelle-sip.so.1:antlr3BaseTreeAdaptorInit
libbelle-sip.so.1:antlr3BaseTreeNew
libbelle-sip.so.1:antlr3BitsetCopy
libbelle-sip.so.1:antlr3BitsetList
libbelle-sip.so.1:antlr3BitsetLoad
libbelle-sip.so.1:antlr3BitsetNew
libbelle-sip.so.1:antlr3BitsetOf
libbelle-sip.so.1:antlr3BitsetSetAPI
libbelle-sip.so.1:antlr3CommonTokenDebugStreamSourceNew
libbelle-sip.so.1:antlr3CommonTokenNew
libbelle-sip.so.1:antlr3CommonTokenStreamNew
libbelle-sip.so.1:antlr3CommonTokenStreamSourceNew
libbelle-sip.so.1:antlr3CommonTreeNew
libbelle-sip.so.1:antlr3CommonTreeNewFromToken
libbelle-sip.so.1:antlr3CommonTreeNodeStreamNew
libbelle-sip.so.1:antlr3CommonTreeNodeStreamNewStream
libbelle-sip.so.1:antlr3CommonTreeNodeStreamNewTree
libbelle-sip.so.1:antlr3DebugListenerNew
libbelle-sip.so.1:antlr3EBCDICSetupStream
libbelle-sip.so.1:antlr3EnumNew
libbelle-sip.so.1:antlr3ExceptionNew
libbelle-sip.so.1:antlr3Fclose
libbelle-sip.so.1:antlr3FileStreamNew
libbelle-sip.so.1:antlr3Fopen
libbelle-sip.so.1:antlr3Fread
libbelle-sip.so.1:antlr3Fsize
libbelle-sip.so.1:antlr3GenericSetupStream
libbelle-sip.so.1:antlr3Hash
libbelle-sip.so.1:antlr3HashTableNew
libbelle-sip.so.1:antlr3IntStreamNew
libbelle-sip.so.1:antlr3IntTrieNew
libbelle-sip.so.1:antlr3LexerNew
libbelle-sip.so.1:antlr3LexerNewStream
libbelle-sip.so.1:antlr3ListNew
libbelle-sip.so.1:antlr3MTExceptionNew
libbelle-sip.so.1:antlr3MTNExceptionNew
libbelle-sip.so.1:antlr3ParserNew
libbelle-sip.so.1:antlr3ParserNewStream
libbelle-sip.so.1:antlr3ParserNewStreamDbg
libbelle-sip.so.1:antlr3RecognitionExceptionNew
libbelle-sip.so.1:antlr3RewriteRuleNODEStreamNewAE
libbelle-sip.so.1:antlr3RewriteRuleNODEStreamNewAEE
libbelle-sip.so.1:antlr3RewriteRuleNODEStreamNewAEV
libbelle-sip.so.1:antlr3RewriteRuleSubtreeStreamNewAE
libbelle-sip.so.1:antlr3RewriteRuleSubtreeStreamNewAEE
libbelle-sip.so.1:antlr3RewriteRuleSubtreeStreamNewAEV
libbelle-sip.so.1:antlr3RewriteRuleTOKENStreamNewAE
libbelle-sip.so.1:antlr3RewriteRuleTOKENStreamNewAEE
libbelle-sip.so.1:antlr3RewriteRuleTOKENStreamNewAEV
libbelle-sip.so.1:antlr3SetCTAPI
libbelle-sip.so.1:antlr3SetTokenAPI
libbelle-sip.so.1:antlr3SetVectorApi
libbelle-sip.so.1:antlr3StackNew
libbelle-sip.so.1:antlr3StringFactoryNew
libbelle-sip.so.1:antlr3StringStreamNew
libbelle-sip.so.1:antlr3TokenFactoryNew
libbelle-sip.so.1:antlr3TokenStreamNew
libbelle-sip.so.1:antlr3TopoNew
libbelle-sip.so.1:antlr3TreeNodeStreamNew
libbelle-sip.so.1:antlr3TreeParserNewStream
libbelle-sip.so.1:antlr3UTF16SetupStream
libbelle-sip.so.1:antlr3UTF32SetupStream
libbelle-sip.so.1:antlr3UTF8SetupStream
libbelle-sip.so.1:antlr3VectorFactoryNew
libbelle-sip.so.1:antlr3VectorNew
libbelle-sip.so.1:antlr3c8toAntlrc
libbelle-sip.so.1:antlr3dfapredict
libbelle-sip.so.1:antlr3dfaspecialStateTransition
libbelle-sip.so.1:antlr3dfaspecialTransition
libbelle-sip.so.1:antlr3read8Bit
libbelle-sip.so.1:authorization_context_get_algorithm
libbelle-sip.so.1:authorization_context_get_nonce
libbelle-sip.so.1:authorization_context_get_nonce_count
libbelle-sip.so.1:authorization_context_get_opaque
libbelle-sip.so.1:authorization_context_get_qop
libbelle-sip.so.1:authorization_context_get_realm
libbelle-sip.so.1:authorization_context_get_scheme
libbelle-sip.so.1:authorization_context_get_user_id
libbelle-sip.so.1:authorization_context_set_algorithm
libbelle-sip.so.1:authorization_context_set_nonce
libbelle-sip.so.1:authorization_context_set_nonce_count
libbelle-sip.so.1:authorization_context_set_opaque
libbelle-sip.so.1:authorization_context_set_qop
libbelle-sip.so.1:authorization_context_set_realm
libbelle-sip.so.1:authorization_context_set_scheme
libbelle-sip.so.1:authorization_context_set_user_id
libbelle-sip.so.1:belle_generic_uri_get_host
libbelle-sip.so.1:belle_generic_uri_get_opaque_part
libbelle-sip.so.1:belle_generic_uri_get_path
libbelle-sip.so.1:belle_generic_uri_get_port
libbelle-sip.so.1:belle_generic_uri_get_query
libbelle-sip.so.1:belle_generic_uri_get_scheme
libbelle-sip.so.1:belle_generic_uri_get_user
libbelle-sip.so.1:belle_generic_uri_get_user_password
libbelle-sip.so.1:belle_generic_uri_init
libbelle-sip.so.1:belle_generic_uri_marshal
libbelle-sip.so.1:belle_generic_uri_new
libbelle-sip.so.1:belle_generic_uri_parse
libbelle-sip.so.1:belle_generic_uri_set_host
libbelle-sip.so.1:belle_generic_uri_set_opaque_part
libbelle-sip.so.1:belle_generic_uri_set_path
libbelle-sip.so.1:belle_generic_uri_set_port
libbelle-sip.so.1:belle_generic_uri_set_query
libbelle-sip.so.1:belle_generic_uri_set_scheme
libbelle-sip.so.1:belle_generic_uri_set_user
libbelle-sip.so.1:belle_generic_uri_set_user_password
libbelle-sip.so.1:belle_generic_uri_t_vptr_get
libbelle-sip.so.1:belle_generic_uri_to_escaped_path
libbelle-sip.so.1:belle_generic_uri_to_escaped_query
libbelle-sip.so.1:belle_generic_uri_to_string
libbelle-sip.so.1:belle_http_auth_helper_create_authorization
libbelle-sip.so.1:belle_http_callbacks_t_vptr_get
libbelle-sip.so.1:belle_http_channel_context_new
libbelle-sip.so.1:belle_http_channel_context_t_vptr_get
libbelle-sip.so.1:belle_http_channel_is_busy
libbelle-sip.so.1:belle_http_header_authorization_get_uri
libbelle-sip.so.1:belle_http_header_authorization_marshal
libbelle-sip.so.1:belle_http_header_authorization_new
libbelle-sip.so.1:belle_http_header_authorization_set_uri
libbelle-sip.so.1:belle_http_header_authorization_t_vptr_get
libbelle-sip.so.1:belle_http_header_create
libbelle-sip.so.1:belle_http_provider_cancel_request
libbelle-sip.so.1:belle_http_provider_get_channels
libbelle-sip.so.1:belle_http_provider_new
libbelle-sip.so.1:belle_http_provider_send_request
libbelle-sip.so.1:belle_http_provider_set_recv_error
libbelle-sip.so.1:belle_http_provider_set_tls_crypto_config
libbelle-sip.so.1:belle_http_provider_set_tls_verify_policy
libbelle-sip.so.1:belle_http_provider_t_vptr_get
libbelle-sip.so.1:belle_http_request_cancel
libbelle-sip.so.1:belle_http_request_create
libbelle-sip.so.1:belle_http_request_get_channel
libbelle-sip.so.1:belle_http_request_get_listener
libbelle-sip.so.1:belle_http_request_get_method
libbelle-sip.so.1:belle_http_request_get_response
libbelle-sip.so.1:belle_http_request_get_uri
libbelle-sip.so.1:belle_http_request_is_cancelled
libbelle-sip.so.1:belle_http_request_listener_create_from_callbacks
libbelle-sip.so.1:belle_http_request_new
libbelle-sip.so.1:belle_http_request_parse
libbelle-sip.so.1:belle_http_request_set_channel
libbelle-sip.so.1:belle_http_request_set_listener
libbelle-sip.so.1:belle_http_request_set_method
libbelle-sip.so.1:belle_http_request_set_response
libbelle-sip.so.1:belle_http_request_set_uri
libbelle-sip.so.1:belle_http_request_t_vptr_get
libbelle-sip.so.1:belle_http_response_destroy
libbelle-sip.so.1:belle_http_response_get_reason_phrase
libbelle-sip.so.1:belle_http_response_get_status_code
libbelle-sip.so.1:belle_http_response_marshal
libbelle-sip.so.1:belle_http_response_new
libbelle-sip.so.1:belle_http_response_parse
libbelle-sip.so.1:belle_http_response_set_reason_phrase
libbelle-sip.so.1:belle_http_response_set_status_code
libbelle-sip.so.1:belle_http_response_t_vptr_get
libbelle-sip.so.1:belle_sdp_acap_attribute_get_id
libbelle-sip.so.1:belle_sdp_acap_attribute_get_name
libbelle-sip.so.1:belle_sdp_acap_attribute_get_value
libbelle-sip.so.1:belle_sdp_acap_attribute_new
libbelle-sip.so.1:belle_sdp_acap_attribute_parse
libbelle-sip.so.1:belle_sdp_acap_attribute_set_id
libbelle-sip.so.1:belle_sdp_acap_attribute_set_name
libbelle-sip.so.1:belle_sdp_acap_attribute_set_value
libbelle-sip.so.1:belle_sdp_acap_attribute_t_vptr_get
libbelle-sip.so.1:belle_sdp_acfg_attribute_add_config
libbelle-sip.so.1:belle_sdp_acfg_attribute_get_configs
libbelle-sip.so.1:belle_sdp_acfg_attribute_get_id
libbelle-sip.so.1:belle_sdp_acfg_attribute_new
libbelle-sip.so.1:belle_sdp_acfg_attribute_parse
libbelle-sip.so.1:belle_sdp_acfg_attribute_set_id
libbelle-sip.so.1:belle_sdp_acfg_attribute_t_vptr_get
libbelle-sip.so.1:belle_sdp_attribute_create
libbelle-sip.so.1:belle_sdp_attribute_get_name
libbelle-sip.so.1:belle_sdp_attribute_get_value
libbelle-sip.so.1:belle_sdp_attribute_has_value
libbelle-sip.so.1:belle_sdp_attribute_holder_get_attribute
libbelle-sip.so.1:belle_sdp_attribute_holder_new
libbelle-sip.so.1:belle_sdp_attribute_holder_set_attribute
libbelle-sip.so.1:belle_sdp_attribute_new
libbelle-sip.so.1:belle_sdp_attribute_parse
libbelle-sip.so.1:belle_sdp_attribute_set_name
libbelle-sip.so.1:belle_sdp_attribute_t_vptr_get
libbelle-sip.so.1:belle_sdp_bandwidth_get_type
libbelle-sip.so.1:belle_sdp_bandwidth_get_value
libbelle-sip.so.1:belle_sdp_bandwidth_new
libbelle-sip.so.1:belle_sdp_bandwidth_parse
libbelle-sip.so.1:belle_sdp_bandwidth_set_type
libbelle-sip.so.1:belle_sdp_bandwidth_set_value
libbelle-sip.so.1:belle_sdp_bandwidth_t_vptr_get
libbelle-sip.so.1:belle_sdp_base_description_t_vptr_get
libbelle-sip.so.1:belle_sdp_connection_create
libbelle-sip.so.1:belle_sdp_connection_get_address
libbelle-sip.so.1:belle_sdp_connection_get_address_type
libbelle-sip.so.1:belle_sdp_connection_get_network_type
libbelle-sip.so.1:belle_sdp_connection_get_range
libbelle-sip.so.1:belle_sdp_connection_get_ttl
libbelle-sip.so.1:belle_sdp_connection_new
libbelle-sip.so.1:belle_sdp_connection_parse
libbelle-sip.so.1:belle_sdp_connection_set_address
libbelle-sip.so.1:belle_sdp_connection_set_address_type
libbelle-sip.so.1:belle_sdp_connection_set_network_type
libbelle-sip.so.1:belle_sdp_connection_set_range
libbelle-sip.so.1:belle_sdp_connection_set_ttl
libbelle-sip.so.1:belle_sdp_connection_t_vptr_get
libbelle-sip.so.1:belle_sdp_content_attribute_add_media_tag
libbelle-sip.so.1:belle_sdp_content_attribute_get_media_tags
libbelle-sip.so.1:belle_sdp_content_attribute_new
libbelle-sip.so.1:belle_sdp_content_attribute_parse
libbelle-sip.so.1:belle_sdp_content_attribute_t_vptr_get
libbelle-sip.so.1:belle_sdp_creq_attribute_add_option_tag
libbelle-sip.so.1:belle_sdp_creq_attribute_get_option_tags
libbelle-sip.so.1:belle_sdp_creq_attribute_new
libbelle-sip.so.1:belle_sdp_creq_attribute_parse
libbelle-sip.so.1:belle_sdp_creq_attribute_t_vptr_get
libbelle-sip.so.1:belle_sdp_csup_attribute_add_option_tag
libbelle-sip.so.1:belle_sdp_csup_attribute_get_option_tags
libbelle-sip.so.1:belle_sdp_csup_attribute_new
libbelle-sip.so.1:belle_sdp_csup_attribute_parse
libbelle-sip.so.1:belle_sdp_csup_attribute_t_vptr_get
libbelle-sip.so.1:belle_sdp_email_get_value
libbelle-sip.so.1:belle_sdp_email_new
libbelle-sip.so.1:belle_sdp_email_parse
libbelle-sip.so.1:belle_sdp_email_set_value
libbelle-sip.so.1:belle_sdp_email_t_vptr_get
libbelle-sip.so.1:belle_sdp_info_get_value
libbelle-sip.so.1:belle_sdp_info_new
libbelle-sip.so.1:belle_sdp_info_parse
libbelle-sip.so.1:belle_sdp_info_set_value
libbelle-sip.so.1:belle_sdp_info_t_vptr_get
libbelle-sip.so.1:belle_sdp_label_attribute_get_pointer
libbelle-sip.so.1:belle_sdp_label_attribute_new
libbelle-sip.so.1:belle_sdp_label_attribute_parse
libbelle-sip.so.1:belle_sdp_label_attribute_set_pointer
libbelle-sip.so.1:belle_sdp_label_attribute_t_vptr_get
libbelle-sip.so.1:belle_sdp_media_create
libbelle-sip.so.1:belle_sdp_media_description_add_attribute
libbelle-sip.so.1:belle_sdp_media_description_add_attribute_holder
libbelle-sip.so.1:belle_sdp_media_description_add_bandwidth
libbelle-sip.so.1:belle_sdp_media_description_add_dynamic_payloads
libbelle-sip.so.1:belle_sdp_media_description_append_values_from_mime_parameter
libbelle-sip.so.1:belle_sdp_media_description_build_mime_parameters
libbelle-sip.so.1:belle_sdp_media_description_create
libbelle-sip.so.1:belle_sdp_media_description_find_attributes_with_name
libbelle-sip.so.1:belle_sdp_media_description_get_attribute
libbelle-sip.so.1:belle_sdp_media_description_get_attribute_value
libbelle-sip.so.1:belle_sdp_media_description_get_attributes
libbelle-sip.so.1:belle_sdp_media_description_get_bandwidth
libbelle-sip.so.1:belle_sdp_media_description_get_bandwidths
libbelle-sip.so.1:belle_sdp_media_description_get_connection
libbelle-sip.so.1:belle_sdp_media_description_get_info
libbelle-sip.so.1:belle_sdp_media_description_get_media
libbelle-sip.so.1:belle_sdp_media_description_new
libbelle-sip.so.1:belle_sdp_media_description_parse
libbelle-sip.so.1:belle_sdp_media_description_remove_attribute
libbelle-sip.so.1:belle_sdp_media_description_remove_bandwidth
libbelle-sip.so.1:belle_sdp_media_description_set_attribute_value
libbelle-sip.so.1:belle_sdp_media_description_set_attributes
libbelle-sip.so.1:belle_sdp_media_description_set_bandwidth
libbelle-sip.so.1:belle_sdp_media_description_set_bandwidths
libbelle-sip.so.1:belle_sdp_media_description_set_connection
libbelle-sip.so.1:belle_sdp_media_description_set_info
libbelle-sip.so.1:belle_sdp_media_description_set_media
libbelle-sip.so.1:belle_sdp_media_description_t_vptr_get
libbelle-sip.so.1:belle_sdp_media_get_media_formats
libbelle-sip.so.1:belle_sdp_media_get_media_port
libbelle-sip.so.1:belle_sdp_media_get_media_type
libbelle-sip.so.1:belle_sdp_media_get_port_count
libbelle-sip.so.1:belle_sdp_media_get_protocol
libbelle-sip.so.1:belle_sdp_media_media_formats_add
libbelle-sip.so.1:belle_sdp_media_new
libbelle-sip.so.1:belle_sdp_media_parse
libbelle-sip.so.1:belle_sdp_media_set_media_formats
libbelle-sip.so.1:belle_sdp_media_set_media_port
libbelle-sip.so.1:belle_sdp_media_set_media_type
libbelle-sip.so.1:belle_sdp_media_set_port_count
libbelle-sip.so.1:belle_sdp_media_set_protocol
libbelle-sip.so.1:belle_sdp_media_t_vptr_get
libbelle-sip.so.1:belle_sdp_mime_parameter_create
libbelle-sip.so.1:belle_sdp_mime_parameter_get_channel_count
libbelle-sip.so.1:belle_sdp_mime_parameter_get_max_ptime
libbelle-sip.so.1:belle_sdp_mime_parameter_get_media_format
libbelle-sip.so.1:belle_sdp_mime_parameter_get_parameters
libbelle-sip.so.1:belle_sdp_mime_parameter_get_ptime
libbelle-sip.so.1:belle_sdp_mime_parameter_get_rate
libbelle-sip.so.1:belle_sdp_mime_parameter_get_type
libbelle-sip.so.1:belle_sdp_mime_parameter_new
libbelle-sip.so.1:belle_sdp_mime_parameter_set_channel_count
libbelle-sip.so.1:belle_sdp_mime_parameter_set_max_ptime
libbelle-sip.so.1:belle_sdp_mime_parameter_set_media_format
libbelle-sip.so.1:belle_sdp_mime_parameter_set_parameters
libbelle-sip.so.1:belle_sdp_mime_parameter_set_ptime
libbelle-sip.so.1:belle_sdp_mime_parameter_set_rate
libbelle-sip.so.1:belle_sdp_mime_parameter_set_type
libbelle-sip.so.1:belle_sdp_mime_parameter_t_vptr_get
libbelle-sip.so.1:belle_sdp_origin_create
libbelle-sip.so.1:belle_sdp_origin_get_address
libbelle-sip.so.1:belle_sdp_origin_get_address_type
libbelle-sip.so.1:belle_sdp_origin_get_network_type
libbelle-sip.so.1:belle_sdp_origin_get_session_id
libbelle-sip.so.1:belle_sdp_origin_get_session_version
libbelle-sip.so.1:belle_sdp_origin_get_username
libbelle-sip.so.1:belle_sdp_origin_new
libbelle-sip.so.1:belle_sdp_origin_parse
libbelle-sip.so.1:belle_sdp_origin_set_address
libbelle-sip.so.1:belle_sdp_origin_set_address_type
libbelle-sip.so.1:belle_sdp_origin_set_network_type
libbelle-sip.so.1:belle_sdp_origin_set_session_id
libbelle-sip.so.1:belle_sdp_origin_set_session_version
libbelle-sip.so.1:belle_sdp_origin_set_username
libbelle-sip.so.1:belle_sdp_origin_t_vptr_get
libbelle-sip.so.1:belle_sdp_pcfg_attribute_add_config
libbelle-sip.so.1:belle_sdp_pcfg_attribute_get_configs
libbelle-sip.so.1:belle_sdp_pcfg_attribute_get_id
libbelle-sip.so.1:belle_sdp_pcfg_attribute_new
libbelle-sip.so.1:belle_sdp_pcfg_attribute_parse
libbelle-sip.so.1:belle_sdp_pcfg_attribute_set_id
libbelle-sip.so.1:belle_sdp_pcfg_attribute_t_vptr_get
libbelle-sip.so.1:belle_sdp_raw_attribute_create
libbelle-sip.so.1:belle_sdp_raw_attribute_new
libbelle-sip.so.1:belle_sdp_raw_attribute_set_name
libbelle-sip.so.1:belle_sdp_raw_attribute_set_value
libbelle-sip.so.1:belle_sdp_raw_attribute_t_vptr_get
libbelle-sip.so.1:belle_sdp_rtcp_fb_attribute_get_id
libbelle-sip.so.1:belle_sdp_rtcp_fb_attribute_get_param
libbelle-sip.so.1:belle_sdp_rtcp_fb_attribute_get_smaxpr
libbelle-sip.so.1:belle_sdp_rtcp_fb_attribute_get_trr_int
libbelle-sip.so.1:belle_sdp_rtcp_fb_attribute_get_type
libbelle-sip.so.1:belle_sdp_rtcp_fb_attribute_new
libbelle-sip.so.1:belle_sdp_rtcp_fb_attribute_parse
libbelle-sip.so.1:belle_sdp_rtcp_fb_attribute_set_id
libbelle-sip.so.1:belle_sdp_rtcp_fb_attribute_set_param
libbelle-sip.so.1:belle_sdp_rtcp_fb_attribute_set_raw_id
libbelle-sip.so.1:belle_sdp_rtcp_fb_attribute_set_raw_param
libbelle-sip.so.1:belle_sdp_rtcp_fb_attribute_set_raw_type
libbelle-sip.so.1:belle_sdp_rtcp_fb_attribute_set_smaxpr
libbelle-sip.so.1:belle_sdp_rtcp_fb_attribute_set_trr_int
libbelle-sip.so.1:belle_sdp_rtcp_fb_attribute_set_type
libbelle-sip.so.1:belle_sdp_rtcp_fb_attribute_t_vptr_get
libbelle-sip.so.1:belle_sdp_rtcp_xr_attribute_add_stat_summary_flag
libbelle-sip.so.1:belle_sdp_rtcp_xr_attribute_enable_stat_summary
libbelle-sip.so.1:belle_sdp_rtcp_xr_attribute_enable_voip_metrics
libbelle-sip.so.1:belle_sdp_rtcp_xr_attribute_get_rcvr_rtt_max_size
libbelle-sip.so.1:belle_sdp_rtcp_xr_attribute_get_rcvr_rtt_mode
libbelle-sip.so.1:belle_sdp_rtcp_xr_attribute_get_stat_summary_flags
libbelle-sip.so.1:belle_sdp_rtcp_xr_attribute_has_stat_summary
libbelle-sip.so.1:belle_sdp_rtcp_xr_attribute_has_voip_metrics
libbelle-sip.so.1:belle_sdp_rtcp_xr_attribute_new
libbelle-sip.so.1:belle_sdp_rtcp_xr_attribute_parse
libbelle-sip.so.1:belle_sdp_rtcp_xr_attribute_set_rcvr_rtt_max_size
libbelle-sip.so.1:belle_sdp_rtcp_xr_attribute_set_rcvr_rtt_mode
libbelle-sip.so.1:belle_sdp_rtcp_xr_attribute_set_stat_summary
libbelle-sip.so.1:belle_sdp_rtcp_xr_attribute_set_voip_metrics
libbelle-sip.so.1:belle_sdp_rtcp_xr_attribute_t_vptr_get
libbelle-sip.so.1:belle_sdp_session_description_add_attribute
libbelle-sip.so.1:belle_sdp_session_description_add_attribute_holder
libbelle-sip.so.1:belle_sdp_session_description_add_bandwidth
libbelle-sip.so.1:belle_sdp_session_description_add_media_description
libbelle-sip.so.1:belle_sdp_session_description_find_attributes_with_name
libbelle-sip.so.1:belle_sdp_session_description_get_attribute
libbelle-sip.so.1:belle_sdp_session_description_get_attribute_value
libbelle-sip.so.1:belle_sdp_session_description_get_attributes
libbelle-sip.so.1:belle_sdp_session_description_get_bandwidth
libbelle-sip.so.1:belle_sdp_session_description_get_bandwidths
libbelle-sip.so.1:belle_sdp_session_description_get_connection
libbelle-sip.so.1:belle_sdp_session_description_get_emails
libbelle-sip.so.1:belle_sdp_session_description_get_info
libbelle-sip.so.1:belle_sdp_session_description_get_media_descriptions
libbelle-sip.so.1:belle_sdp_session_description_get_origin
libbelle-sip.so.1:belle_sdp_session_description_get_phones
libbelle-sip.so.1:belle_sdp_session_description_get_session_name
libbelle-sip.so.1:belle_sdp_session_description_get_time_descriptions
libbelle-sip.so.1:belle_sdp_session_description_get_uri
libbelle-sip.so.1:belle_sdp_session_description_get_version
libbelle-sip.so.1:belle_sdp_session_description_get_zone_adjustments
libbelle-sip.so.1:belle_sdp_session_description_new
libbelle-sip.so.1:belle_sdp_session_description_parse
libbelle-sip.so.1:belle_sdp_session_description_remove_attribute
libbelle-sip.so.1:belle_sdp_session_description_remove_bandwidth
libbelle-sip.so.1:belle_sdp_session_description_set_attribute_value
libbelle-sip.so.1:belle_sdp_session_description_set_attributes
libbelle-sip.so.1:belle_sdp_session_description_set_bandwidth
libbelle-sip.so.1:belle_sdp_session_description_set_bandwidths
libbelle-sip.so.1:belle_sdp_session_description_set_connection
libbelle-sip.so.1:belle_sdp_session_description_set_emails
libbelle-sip.so.1:belle_sdp_session_description_set_info
libbelle-sip.so.1:belle_sdp_session_description_set_media_descriptions
libbelle-sip.so.1:belle_sdp_session_description_set_origin
libbelle-sip.so.1:belle_sdp_session_description_set_phones
libbelle-sip.so.1:belle_sdp_session_description_set_session_name
libbelle-sip.so.1:belle_sdp_session_description_set_time_description
libbelle-sip.so.1:belle_sdp_session_description_set_time_descriptions
libbelle-sip.so.1:belle_sdp_session_description_set_uri
libbelle-sip.so.1:belle_sdp_session_description_set_version
libbelle-sip.so.1:belle_sdp_session_description_set_zone_adjustments
libbelle-sip.so.1:belle_sdp_session_description_t_vptr_get
libbelle-sip.so.1:belle_sdp_session_name_create
libbelle-sip.so.1:belle_sdp_session_name_get_value
libbelle-sip.so.1:belle_sdp_session_name_new
libbelle-sip.so.1:belle_sdp_session_name_set_value
libbelle-sip.so.1:belle_sdp_session_name_t_vptr_get
libbelle-sip.so.1:belle_sdp_tcap_attribute_add_proto
libbelle-sip.so.1:belle_sdp_tcap_attribute_get_id
libbelle-sip.so.1:belle_sdp_tcap_attribute_get_protos
libbelle-sip.so.1:belle_sdp_tcap_attribute_new
libbelle-sip.so.1:belle_sdp_tcap_attribute_parse
libbelle-sip.so.1:belle_sdp_tcap_attribute_set_id
libbelle-sip.so.1:belle_sdp_tcap_attribute_t_vptr_get
libbelle-sip.so.1:belle_sdp_time_description_create
libbelle-sip.so.1:belle_sdp_time_description_get_repeate_times
libbelle-sip.so.1:belle_sdp_time_description_get_time
libbelle-sip.so.1:belle_sdp_time_description_new
libbelle-sip.so.1:belle_sdp_time_description_set_repeate_times
libbelle-sip.so.1:belle_sdp_time_description_set_time
libbelle-sip.so.1:belle_sdp_time_description_t_vptr_get
libbelle-sip.so.1:belle_sdp_time_get_start
libbelle-sip.so.1:belle_sdp_time_get_stop
libbelle-sip.so.1:belle_sdp_time_new
libbelle-sip.so.1:belle_sdp_time_set_start
libbelle-sip.so.1:belle_sdp_time_set_stop
libbelle-sip.so.1:belle_sdp_time_t_vptr_get
libbelle-sip.so.1:belle_sdp_version_create
libbelle-sip.so.1:belle_sdp_version_get_version
libbelle-sip.so.1:belle_sdp_version_new
libbelle-sip.so.1:belle_sdp_version_set_version
libbelle-sip.so.1:belle_sdp_version_t_vptr_get
libbelle-sip.so.1:belle_sip_auth_define_size
libbelle-sip.so.1:belle_sip_auth_event_create
libbelle-sip.so.1:belle_sip_auth_event_destroy
libbelle-sip.so.1:belle_sip_auth_event_get_algorithm
libbelle-sip.so.1:belle_sip_auth_event_get_client_certificates_chain
libbelle-sip.so.1:belle_sip_auth_event_get_distinguished_name
libbelle-sip.so.1:belle_sip_auth_event_get_domain
libbelle-sip.so.1:belle_sip_auth_event_get_ha1
libbelle-sip.so.1:belle_sip_auth_event_get_mode
libbelle-sip.so.1:belle_sip_auth_event_get_passwd
libbelle-sip.so.1:belle_sip_auth_event_get_realm
libbelle-sip.so.1:belle_sip_auth_event_get_signing_key
libbelle-sip.so.1:belle_sip_auth_event_get_userid
libbelle-sip.so.1:belle_sip_auth_event_get_username
libbelle-sip.so.1:belle_sip_auth_event_set_algorithm
libbelle-sip.so.1:belle_sip_auth_event_set_client_certificates_chain
libbelle-sip.so.1:belle_sip_auth_event_set_distinguished_name
libbelle-sip.so.1:belle_sip_auth_event_set_domain
libbelle-sip.so.1:belle_sip_auth_event_set_ha1
libbelle-sip.so.1:belle_sip_auth_event_set_passwd
libbelle-sip.so.1:belle_sip_auth_event_set_realm
libbelle-sip.so.1:belle_sip_auth_event_set_signing_key
libbelle-sip.so.1:belle_sip_auth_event_set_userid
libbelle-sip.so.1:belle_sip_auth_event_set_username
libbelle-sip.so.1:belle_sip_auth_helper_compute_ha1
libbelle-sip.so.1:belle_sip_auth_helper_compute_ha1_for_algorithm
libbelle-sip.so.1:belle_sip_auth_helper_compute_ha2
libbelle-sip.so.1:belle_sip_auth_helper_compute_ha2_for_algorithm
libbelle-sip.so.1:belle_sip_auth_helper_compute_response
libbelle-sip.so.1:belle_sip_auth_helper_compute_response_for_algorithm
libbelle-sip.so.1:belle_sip_auth_helper_compute_response_qop_auth
libbelle-sip.so.1:belle_sip_auth_helper_compute_response_qop_auth_for_algorithm
libbelle-sip.so.1:belle_sip_auth_helper_create_authorization
libbelle-sip.so.1:belle_sip_auth_helper_create_proxy_authorization
libbelle-sip.so.1:belle_sip_auth_helper_create_www_authenticate
libbelle-sip.so.1:belle_sip_auth_helper_fill_authorization
libbelle-sip.so.1:belle_sip_auth_helper_fill_proxy_authorization
libbelle-sip.so.1:belle_sip_authorization_destroy
libbelle-sip.so.1:belle_sip_authorization_get_algorithm
libbelle-sip.so.1:belle_sip_begin_background_task
libbelle-sip.so.1:belle_sip_body_handler_add_header
libbelle-sip.so.1:belle_sip_body_handler_begin_recv_transfer
libbelle-sip.so.1:belle_sip_body_handler_begin_send_transfer
libbelle-sip.so.1:belle_sip_body_handler_end_transfer
libbelle-sip.so.1:belle_sip_body_handler_get_headers
libbelle-sip.so.1:belle_sip_body_handler_get_size
libbelle-sip.so.1:belle_sip_body_handler_get_transfered_size
libbelle-sip.so.1:belle_sip_body_handler_init
libbelle-sip.so.1:belle_sip_body_handler_recv_chunk
libbelle-sip.so.1:belle_sip_body_handler_remove_header_from_ptr
libbelle-sip.so.1:belle_sip_body_handler_send_chunk
libbelle-sip.so.1:belle_sip_body_handler_set_size
libbelle-sip.so.1:belle_sip_body_handler_t_vptr
libbelle-sip.so.1:belle_sip_body_handler_t_vptr_get
libbelle-sip.so.1:belle_sip_buffering_file_body_handler_new
libbelle-sip.so.1:belle_sip_buffering_user_body_handler_new
libbelle-sip.so.1:belle_sip_callbacks_t_vptr_get
libbelle-sip.so.1:belle_sip_certificate_chain_new
libbelle-sip.so.1:belle_sip_certificates_chain_get_fingerprint
libbelle-sip.so.1:belle_sip_certificates_chain_get_pem
libbelle-sip.so.1:belle_sip_certificates_chain_parse
libbelle-sip.so.1:belle_sip_certificates_chain_parse_file
libbelle-sip.so.1:belle_sip_certificates_chain_t_vptr_get
libbelle-sip.so.1:belle_sip_channel_add_listener
libbelle-sip.so.1:belle_sip_channel_check_dns_reusability
libbelle-sip.so.1:belle_sip_channel_close
libbelle-sip.so.1:belle_sip_channel_connect
libbelle-sip.so.1:belle_sip_channel_create_routable_uri
libbelle-sip.so.1:belle_sip_channel_find_from_list
libbelle-sip.so.1:belle_sip_channel_find_from_list_with_addrinfo
libbelle-sip.so.1:belle_sip_channel_force_close
libbelle-sip.so.1:belle_sip_channel_get_local_address
libbelle-sip.so.1:belle_sip_channel_get_peer
libbelle-sip.so.1:belle_sip_channel_get_public_address
libbelle-sip.so.1:belle_sip_channel_get_transport_name
libbelle-sip.so.1:belle_sip_channel_get_transport_name_lower_case
libbelle-sip.so.1:belle_sip_channel_init
libbelle-sip.so.1:belle_sip_channel_init_with_addr
libbelle-sip.so.1:belle_sip_channel_is_reliable
libbelle-sip.so.1:belle_sip_channel_matches
libbelle-sip.so.1:belle_sip_channel_new_tls
libbelle-sip.so.1:belle_sip_channel_new_udp
libbelle-sip.so.1:belle_sip_channel_new_udp_with_addr
libbelle-sip.so.1:belle_sip_channel_notify_server_error
libbelle-sip.so.1:belle_sip_channel_notify_timeout
libbelle-sip.so.1:belle_sip_channel_parse_stream
libbelle-sip.so.1:belle_sip_channel_prepare
libbelle-sip.so.1:belle_sip_channel_process_data
libbelle-sip.so.1:belle_sip_channel_queue_message
libbelle-sip.so.1:belle_sip_channel_recv
libbelle-sip.so.1:belle_sip_channel_remove_listener
libbelle-sip.so.1:belle_sip_channel_resolve
libbelle-sip.so.1:belle_sip_channel_send
libbelle-sip.so.1:belle_sip_channel_set_public_ip_port
libbelle-sip.so.1:belle_sip_channel_set_ready
libbelle-sip.so.1:belle_sip_channel_set_socket
libbelle-sip.so.1:belle_sip_channel_state_to_string
libbelle-sip.so.1:belle_sip_channel_t_vptr
libbelle-sip.so.1:belle_sip_channel_t_vptr_get
libbelle-sip.so.1:belle_sip_client_transaction_add_response
libbelle-sip.so.1:belle_sip_client_transaction_create_authenticated_request
libbelle-sip.so.1:belle_sip_client_transaction_create_cancel
libbelle-sip.so.1:belle_sip_client_transaction_create_refresher
libbelle-sip.so.1:belle_sip_client_transaction_get_route
libbelle-sip.so.1:belle_sip_client_transaction_init
libbelle-sip.so.1:belle_sip_client_transaction_is_notify_matching_pending_subscribe
libbelle-sip.so.1:belle_sip_client_transaction_notify_response
libbelle-sip.so.1:belle_sip_client_transaction_send_request
libbelle-sip.so.1:belle_sip_client_transaction_send_request_to
libbelle-sip.so.1:belle_sip_client_transaction_stop_retransmissions
libbelle-sip.so.1:belle_sip_client_transaction_t_vptr
libbelle-sip.so.1:belle_sip_client_transaction_t_vptr_get
libbelle-sip.so.1:belle_sip_combined_resolver_context_t_vptr
libbelle-sip.so.1:belle_sip_combined_resolver_context_t_vptr_get
libbelle-sip.so.1:belle_sip_cpp_object_delete
libbelle-sip.so.1:belle_sip_cpp_object_get_address
libbelle-sip.so.1:belle_sip_cpp_object_get_type_name
libbelle-sip.so.1:belle_sip_cpp_object_t_vptr_get
libbelle-sip.so.1:belle_sip_dialog_can_accept_request
libbelle-sip.so.1:belle_sip_dialog_can_create_asynchronous_request
libbelle-sip.so.1:belle_sip_dialog_can_create_synchronous_request
libbelle-sip.so.1:belle_sip_dialog_check_ack_sent
libbelle-sip.so.1:belle_sip_dialog_check_incoming_request_ordering
libbelle-sip.so.1:belle_sip_dialog_create_ack
libbelle-sip.so.1:belle_sip_dialog_create_queued_request
libbelle-sip.so.1:belle_sip_dialog_create_queued_request_from
libbelle-sip.so.1:belle_sip_dialog_create_request
libbelle-sip.so.1:belle_sip_dialog_create_request_from
libbelle-sip.so.1:belle_sip_dialog_delete
libbelle-sip.so.1:belle_sip_dialog_enable_pending_trans_checking
libbelle-sip.so.1:belle_sip_dialog_establish
libbelle-sip.so.1:belle_sip_dialog_establish_from_notify
libbelle-sip.so.1:belle_sip_dialog_establish_full
libbelle-sip.so.1:belle_sip_dialog_expired
libbelle-sip.so.1:belle_sip_dialog_get_application_data
libbelle-sip.so.1:belle_sip_dialog_get_call_id
libbelle-sip.so.1:belle_sip_dialog_get_last_transaction
libbelle-sip.so.1:belle_sip_dialog_get_local_party
libbelle-sip.so.1:belle_sip_dialog_get_local_seq_number
libbelle-sip.so.1:belle_sip_dialog_get_local_tag
libbelle-sip.so.1:belle_sip_dialog_get_previous_state
libbelle-sip.so.1:belle_sip_dialog_get_remote_party
libbelle-sip.so.1:belle_sip_dialog_get_remote_seq_number
libbelle-sip.so.1:belle_sip_dialog_get_remote_tag
libbelle-sip.so.1:belle_sip_dialog_get_remote_target
libbelle-sip.so.1:belle_sip_dialog_get_request_retry_timeout
libbelle-sip.so.1:belle_sip_dialog_get_route_set
libbelle-sip.so.1:belle_sip_dialog_get_state
libbelle-sip.so.1:belle_sip_dialog_get_termination_cause
libbelle-sip.so.1:belle_sip_dialog_handle_ack
libbelle-sip.so.1:belle_sip_dialog_is_secure
libbelle-sip.so.1:belle_sip_dialog_is_server
libbelle-sip.so.1:belle_sip_dialog_match
libbelle-sip.so.1:belle_sip_dialog_new
libbelle-sip.so.1:belle_sip_dialog_pending_trans_checking_enabled
libbelle-sip.so.1:belle_sip_dialog_queue_client_transaction
libbelle-sip.so.1:belle_sip_dialog_request_pending
libbelle-sip.so.1:belle_sip_dialog_send_ack
libbelle-sip.so.1:belle_sip_dialog_set_application_data
libbelle-sip.so.1:belle_sip_dialog_set_simulate_lost_ack_enabled
libbelle-sip.so.1:belle_sip_dialog_state_to_string
libbelle-sip.so.1:belle_sip_dialog_stop_200Ok_retrans
libbelle-sip.so.1:belle_sip_dialog_t_vptr_get
libbelle-sip.so.1:belle_sip_dialog_terminate_on_bye
libbelle-sip.so.1:belle_sip_dialog_terminated_event_get_dialog
libbelle-sip.so.1:belle_sip_dialog_terminated_event_is_expired
libbelle-sip.so.1:belle_sip_dialog_update
libbelle-sip.so.1:belle_sip_dialog_update_request
libbelle-sip.so.1:belle_sip_digest_authentication_policy_get_allow_md5
libbelle-sip.so.1:belle_sip_digest_authentication_policy_get_allow_no_qop
libbelle-sip.so.1:belle_sip_digest_authentication_policy_new
libbelle-sip.so.1:belle_sip_digest_authentication_policy_set_allow_md5
libbelle-sip.so.1:belle_sip_digest_authentication_policy_set_allow_no_qop
libbelle-sip.so.1:belle_sip_digest_authentication_policy_t_vptr_get
libbelle-sip.so.1:belle_sip_display_name_to_backslashed_escaped_string
libbelle-sip.so.1:belle_sip_dns_srv_create
libbelle-sip.so.1:belle_sip_dns_srv_get_port
libbelle-sip.so.1:belle_sip_dns_srv_get_priority
libbelle-sip.so.1:belle_sip_dns_srv_get_target
libbelle-sip.so.1:belle_sip_dns_srv_get_weight
libbelle-sip.so.1:belle_sip_dns_srv_t_vptr_get
libbelle-sip.so.1:belle_sip_dual_resolver_context_t_vptr
libbelle-sip.so.1:belle_sip_dual_resolver_context_t_vptr_get
libbelle-sip.so.1:belle_sip_end_background_task
libbelle-sip.so.1:belle_sip_fast_uri_parse
libbelle-sip.so.1:belle_sip_fd_source_init
libbelle-sip.so.1:belle_sip_fd_source_new
libbelle-sip.so.1:belle_sip_file_body_handler_get_file_size
libbelle-sip.so.1:belle_sip_file_body_handler_new
libbelle-sip.so.1:belle_sip_file_body_handler_set_user_body_handler
libbelle-sip.so.1:belle_sip_file_body_handler_t_vptr
libbelle-sip.so.1:belle_sip_file_body_handler_t_vptr_get
libbelle-sip.so.1:belle_sip_generate_self_signed_certificate
libbelle-sip.so.1:belle_sip_get_certificate_and_pkey_in_dir
libbelle-sip.so.1:belle_sip_get_char
libbelle-sip.so.1:belle_sip_get_src_addr_for
libbelle-sip.so.1:belle_sip_get_well_known_reason_phrase
libbelle-sip.so.1:belle_sip_header_accept_create
libbelle-sip.so.1:belle_sip_header_accept_get_subtype
libbelle-sip.so.1:belle_sip_header_accept_get_type
libbelle-sip.so.1:belle_sip_header_accept_marshal
libbelle-sip.so.1:belle_sip_header_accept_new
libbelle-sip.so.1:belle_sip_header_accept_parse
libbelle-sip.so.1:belle_sip_header_accept_set_subtype
libbelle-sip.so.1:belle_sip_header_accept_set_type
libbelle-sip.so.1:belle_sip_header_accept_t_vptr_get
libbelle-sip.so.1:belle_sip_header_address_clone
libbelle-sip.so.1:belle_sip_header_address_create
libbelle-sip.so.1:belle_sip_header_address_create2
libbelle-sip.so.1:belle_sip_header_address_equals
libbelle-sip.so.1:belle_sip_header_address_fast_parse
libbelle-sip.so.1:belle_sip_header_address_get_absolute_uri
libbelle-sip.so.1:belle_sip_header_address_get_automatic
libbelle-sip.so.1:belle_sip_header_address_get_displayname
libbelle-sip.so.1:belle_sip_header_address_get_uri
libbelle-sip.so.1:belle_sip_header_address_marshal
libbelle-sip.so.1:belle_sip_header_address_new
libbelle-sip.so.1:belle_sip_header_address_parse
libbelle-sip.so.1:belle_sip_header_address_set_absolute_uri
libbelle-sip.so.1:belle_sip_header_address_set_automatic
libbelle-sip.so.1:belle_sip_header_address_set_displayname
libbelle-sip.so.1:belle_sip_header_address_set_quoted_displayname
libbelle-sip.so.1:belle_sip_header_address_set_uri
libbelle-sip.so.1:belle_sip_header_address_t_vptr_get
libbelle-sip.so.1:belle_sip_header_allow_create
libbelle-sip.so.1:belle_sip_header_allow_get_method
libbelle-sip.so.1:belle_sip_header_allow_marshal
libbelle-sip.so.1:belle_sip_header_allow_new
libbelle-sip.so.1:belle_sip_header_allow_parse
libbelle-sip.so.1:belle_sip_header_allow_set_method
libbelle-sip.so.1:belle_sip_header_allow_t_vptr_get
libbelle-sip.so.1:belle_sip_header_authentication_info_get_cnonce
libbelle-sip.so.1:belle_sip_header_authentication_info_get_next_nonce
libbelle-sip.so.1:belle_sip_header_authentication_info_get_nonce_count
libbelle-sip.so.1:belle_sip_header_authentication_info_get_qop
libbelle-sip.so.1:belle_sip_header_authentication_info_get_rsp_auth
libbelle-sip.so.1:belle_sip_header_authentication_info_init
libbelle-sip.so.1:belle_sip_header_authentication_info_marshal
libbelle-sip.so.1:belle_sip_header_authentication_info_new
libbelle-sip.so.1:belle_sip_header_authentication_info_parse
libbelle-sip.so.1:belle_sip_header_authentication_info_set_cnonce
libbelle-sip.so.1:belle_sip_header_authentication_info_set_next_nonce
libbelle-sip.so.1:belle_sip_header_authentication_info_set_nonce_count
libbelle-sip.so.1:belle_sip_header_authentication_info_set_qop
libbelle-sip.so.1:belle_sip_header_authentication_info_set_rsp_auth
libbelle-sip.so.1:belle_sip_header_authentication_info_t_vptr_get
libbelle-sip.so.1:belle_sip_header_authorization_get_algorithm
libbelle-sip.so.1:belle_sip_header_authorization_get_cnonce
libbelle-sip.so.1:belle_sip_header_authorization_get_nonce
libbelle-sip.so.1:belle_sip_header_authorization_get_nonce_count
libbelle-sip.so.1:belle_sip_header_authorization_get_nonce_count_as_string
libbelle-sip.so.1:belle_sip_header_authorization_get_opaque
libbelle-sip.so.1:belle_sip_header_authorization_get_qop
libbelle-sip.so.1:belle_sip_header_authorization_get_realm
libbelle-sip.so.1:belle_sip_header_authorization_get_response
libbelle-sip.so.1:belle_sip_header_authorization_get_scheme
libbelle-sip.so.1:belle_sip_header_authorization_get_uri
libbelle-sip.so.1:belle_sip_header_authorization_get_username
libbelle-sip.so.1:belle_sip_header_authorization_marshal
libbelle-sip.so.1:belle_sip_header_authorization_new
libbelle-sip.so.1:belle_sip_header_authorization_parse
libbelle-sip.so.1:belle_sip_header_authorization_set_algorithm
libbelle-sip.so.1:belle_sip_header_authorization_set_cnonce
libbelle-sip.so.1:belle_sip_header_authorization_set_nonce
libbelle-sip.so.1:belle_sip_header_authorization_set_nonce_count
libbelle-sip.so.1:belle_sip_header_authorization_set_opaque
libbelle-sip.so.1:belle_sip_header_authorization_set_qop
libbelle-sip.so.1:belle_sip_header_authorization_set_realm
libbelle-sip.so.1:belle_sip_header_authorization_set_response
libbelle-sip.so.1:belle_sip_header_authorization_set_scheme
libbelle-sip.so.1:belle_sip_header_authorization_set_uri
libbelle-sip.so.1:belle_sip_header_authorization_set_username
libbelle-sip.so.1:belle_sip_header_authorization_t_vptr_get
libbelle-sip.so.1:belle_sip_header_call_id_equals
libbelle-sip.so.1:belle_sip_header_call_id_get_call_id
libbelle-sip.so.1:belle_sip_header_call_id_marshal
libbelle-sip.so.1:belle_sip_header_call_id_new
libbelle-sip.so.1:belle_sip_header_call_id_parse
libbelle-sip.so.1:belle_sip_header_call_id_set_call_id
libbelle-sip.so.1:belle_sip_header_call_id_t_vptr_get
libbelle-sip.so.1:belle_sip_header_contact_clone
libbelle-sip.so.1:belle_sip_header_contact_create
libbelle-sip.so.1:belle_sip_header_contact_destroy
libbelle-sip.so.1:belle_sip_header_contact_equals
libbelle-sip.so.1:belle_sip_header_contact_equals_with_uri_omitting
libbelle-sip.so.1:belle_sip_header_contact_get_automatic
libbelle-sip.so.1:belle_sip_header_contact_get_expires
libbelle-sip.so.1:belle_sip_header_contact_get_q
libbelle-sip.so.1:belle_sip_header_contact_get_qvalue
libbelle-sip.so.1:belle_sip_header_contact_is_unknown
libbelle-sip.so.1:belle_sip_header_contact_is_wildcard
libbelle-sip.so.1:belle_sip_header_contact_marshal
libbelle-sip.so.1:belle_sip_header_contact_new
libbelle-sip.so.1:belle_sip_header_contact_not_equals
libbelle-sip.so.1:belle_sip_header_contact_not_equals_with_uri_omitting
libbelle-sip.so.1:belle_sip_header_contact_parse
libbelle-sip.so.1:belle_sip_header_contact_set_automatic
libbelle-sip.so.1:belle_sip_header_contact_set_expires
libbelle-sip.so.1:belle_sip_header_contact_set_qvalue
libbelle-sip.so.1:belle_sip_header_contact_set_unknown
libbelle-sip.so.1:belle_sip_header_contact_set_wildcard
libbelle-sip.so.1:belle_sip_header_contact_t_vptr_get
libbelle-sip.so.1:belle_sip_header_content_disposition_create
libbelle-sip.so.1:belle_sip_header_content_disposition_get_content_disposition
libbelle-sip.so.1:belle_sip_header_content_disposition_marshal
libbelle-sip.so.1:belle_sip_header_content_disposition_new
libbelle-sip.so.1:belle_sip_header_content_disposition_parse
libbelle-sip.so.1:belle_sip_header_content_disposition_set_content_disposition
libbelle-sip.so.1:belle_sip_header_content_disposition_t_vptr_get
libbelle-sip.so.1:belle_sip_header_content_length_create
libbelle-sip.so.1:belle_sip_header_content_length_get_content_length
libbelle-sip.so.1:belle_sip_header_content_length_marshal
libbelle-sip.so.1:belle_sip_header_content_length_new
libbelle-sip.so.1:belle_sip_header_content_length_parse
libbelle-sip.so.1:belle_sip_header_content_length_set_content_length
libbelle-sip.so.1:belle_sip_header_content_length_t_vptr_get
libbelle-sip.so.1:belle_sip_header_content_type_create
libbelle-sip.so.1:belle_sip_header_content_type_get_subtype
libbelle-sip.so.1:belle_sip_header_content_type_get_type
libbelle-sip.so.1:belle_sip_header_content_type_marshal
libbelle-sip.so.1:belle_sip_header_content_type_new
libbelle-sip.so.1:belle_sip_header_content_type_parse
libbelle-sip.so.1:belle_sip_header_content_type_set_subtype
libbelle-sip.so.1:belle_sip_header_content_type_set_type
libbelle-sip.so.1:belle_sip_header_content_type_t_vptr_get
libbelle-sip.so.1:belle_sip_header_create
libbelle-sip.so.1:belle_sip_header_cseq_create
libbelle-sip.so.1:belle_sip_header_cseq_get_method
libbelle-sip.so.1:belle_sip_header_cseq_get_seq_number
libbelle-sip.so.1:belle_sip_header_cseq_marshal
libbelle-sip.so.1:belle_sip_header_cseq_new
libbelle-sip.so.1:belle_sip_header_cseq_parse
libbelle-sip.so.1:belle_sip_header_cseq_set_method
libbelle-sip.so.1:belle_sip_header_cseq_set_seq_number
libbelle-sip.so.1:belle_sip_header_cseq_t_vptr_get
libbelle-sip.so.1:belle_sip_header_date_create_from_time
libbelle-sip.so.1:belle_sip_header_date_get_date
libbelle-sip.so.1:belle_sip_header_date_get_time
libbelle-sip.so.1:belle_sip_header_date_marshal
libbelle-sip.so.1:belle_sip_header_date_new
libbelle-sip.so.1:belle_sip_header_date_parse
libbelle-sip.so.1:belle_sip_header_date_set_date
libbelle-sip.so.1:belle_sip_header_date_set_time
libbelle-sip.so.1:belle_sip_header_date_t_vptr_get
libbelle-sip.so.1:belle_sip_header_diversion_clone
libbelle-sip.so.1:belle_sip_header_diversion_create
libbelle-sip.so.1:belle_sip_header_diversion_create2
libbelle-sip.so.1:belle_sip_header_diversion_get_raw_tag
libbelle-sip.so.1:belle_sip_header_diversion_get_tag
libbelle-sip.so.1:belle_sip_header_diversion_marshal
libbelle-sip.so.1:belle_sip_header_diversion_new
libbelle-sip.so.1:belle_sip_header_diversion_parse
libbelle-sip.so.1:belle_sip_header_diversion_set_random_tag
libbelle-sip.so.1:belle_sip_header_diversion_set_raw_tag
libbelle-sip.so.1:belle_sip_header_diversion_set_tag
libbelle-sip.so.1:belle_sip_header_diversion_t_vptr_get
libbelle-sip.so.1:belle_sip_header_event_create
libbelle-sip.so.1:belle_sip_header_event_get_id
libbelle-sip.so.1:belle_sip_header_event_get_package_name
libbelle-sip.so.1:belle_sip_header_event_marshal
libbelle-sip.so.1:belle_sip_header_event_new
libbelle-sip.so.1:belle_sip_header_event_parse
libbelle-sip.so.1:belle_sip_header_event_set_id
libbelle-sip.so.1:belle_sip_header_event_set_package_name
libbelle-sip.so.1:belle_sip_header_event_t_vptr_get
libbelle-sip.so.1:belle_sip_header_expires_create
libbelle-sip.so.1:belle_sip_header_expires_get_expires
libbelle-sip.so.1:belle_sip_header_expires_marshal
libbelle-sip.so.1:belle_sip_header_expires_new
libbelle-sip.so.1:belle_sip_header_expires_parse
libbelle-sip.so.1:belle_sip_header_expires_set_expires
libbelle-sip.so.1:belle_sip_header_expires_t_vptr_get
libbelle-sip.so.1:belle_sip_header_extension_create
libbelle-sip.so.1:belle_sip_header_extension_get_value
libbelle-sip.so.1:belle_sip_header_extension_marshal
libbelle-sip.so.1:belle_sip_header_extension_new
libbelle-sip.so.1:belle_sip_header_extension_set_value
libbelle-sip.so.1:belle_sip_header_extension_t_vptr_get
libbelle-sip.so.1:belle_sip_header_from_create
libbelle-sip.so.1:belle_sip_header_from_create2
libbelle-sip.so.1:belle_sip_header_from_get_raw_tag
libbelle-sip.so.1:belle_sip_header_from_get_tag
libbelle-sip.so.1:belle_sip_header_from_marshal
libbelle-sip.so.1:belle_sip_header_from_new
libbelle-sip.so.1:belle_sip_header_from_parse
libbelle-sip.so.1:belle_sip_header_from_set_random_tag
libbelle-sip.so.1:belle_sip_header_from_set_raw_tag
libbelle-sip.so.1:belle_sip_header_from_set_tag
libbelle-sip.so.1:belle_sip_header_from_t_vptr_get
libbelle-sip.so.1:belle_sip_header_get_name
libbelle-sip.so.1:belle_sip_header_get_next
libbelle-sip.so.1:belle_sip_header_get_unparsed_value
libbelle-sip.so.1:belle_sip_header_init
libbelle-sip.so.1:belle_sip_header_marshal
libbelle-sip.so.1:belle_sip_header_max_forwards_create
libbelle-sip.so.1:belle_sip_header_max_forwards_decrement_max_forwards
libbelle-sip.so.1:belle_sip_header_max_forwards_get_max_forwards
libbelle-sip.so.1:belle_sip_header_max_forwards_marshal
libbelle-sip.so.1:belle_sip_header_max_forwards_new
libbelle-sip.so.1:belle_sip_header_max_forwards_parse
libbelle-sip.so.1:belle_sip_header_max_forwards_set_max_forwards
libbelle-sip.so.1:belle_sip_header_max_forwards_t_vptr_get
libbelle-sip.so.1:belle_sip_header_p_preferred_identity_clone
libbelle-sip.so.1:belle_sip_header_p_preferred_identity_create
libbelle-sip.so.1:belle_sip_header_p_preferred_identity_destroy
libbelle-sip.so.1:belle_sip_header_p_preferred_identity_marshal
libbelle-sip.so.1:belle_sip_header_p_preferred_identity_new
libbelle-sip.so.1:belle_sip_header_p_preferred_identity_parse
libbelle-sip.so.1:belle_sip_header_p_preferred_identity_t_vptr_get
libbelle-sip.so.1:belle_sip_header_parse
libbelle-sip.so.1:belle_sip_header_privacy_add_privacy
libbelle-sip.so.1:belle_sip_header_privacy_create
libbelle-sip.so.1:belle_sip_header_privacy_get_privacy
libbelle-sip.so.1:belle_sip_header_privacy_marshal
libbelle-sip.so.1:belle_sip_header_privacy_new
libbelle-sip.so.1:belle_sip_header_privacy_parse
libbelle-sip.so.1:belle_sip_header_privacy_set_privacy
libbelle-sip.so.1:belle_sip_header_privacy_t_vptr_get
libbelle-sip.so.1:belle_sip_header_proxy_authenticate_marshal
libbelle-sip.so.1:belle_sip_header_proxy_authenticate_new
libbelle-sip.so.1:belle_sip_header_proxy_authenticate_parse
libbelle-sip.so.1:belle_sip_header_proxy_authenticate_t_vptr_get
libbelle-sip.so.1:belle_sip_header_proxy_authorization_marshal
libbelle-sip.so.1:belle_sip_header_proxy_authorization_new
libbelle-sip.so.1:belle_sip_header_proxy_authorization_parse
libbelle-sip.so.1:belle_sip_header_proxy_authorization_t_vptr_get
libbelle-sip.so.1:belle_sip_header_reason_get_cause
libbelle-sip.so.1:belle_sip_header_reason_get_protocol
libbelle-sip.so.1:belle_sip_header_reason_get_text
libbelle-sip.so.1:belle_sip_header_reason_get_unquoted_text
libbelle-sip.so.1:belle_sip_header_reason_marshal
libbelle-sip.so.1:belle_sip_header_reason_new
libbelle-sip.so.1:belle_sip_header_reason_parse
libbelle-sip.so.1:belle_sip_header_reason_set_cause
libbelle-sip.so.1:belle_sip_header_reason_set_protocol
libbelle-sip.so.1:belle_sip_header_reason_set_text
libbelle-sip.so.1:belle_sip_header_reason_set_unquoted_text
libbelle-sip.so.1:belle_sip_header_reason_t_vptr_get
libbelle-sip.so.1:belle_sip_header_record_route_get_auto_outgoing
libbelle-sip.so.1:belle_sip_header_record_route_marshal
libbelle-sip.so.1:belle_sip_header_record_route_new
libbelle-sip.so.1:belle_sip_header_record_route_new_auto_outgoing
libbelle-sip.so.1:belle_sip_header_record_route_parse
libbelle-sip.so.1:belle_sip_header_record_route_t_vptr_get
libbelle-sip.so.1:belle_sip_header_refer_to_clone
libbelle-sip.so.1:belle_sip_header_refer_to_create
libbelle-sip.so.1:belle_sip_header_refer_to_marshal
libbelle-sip.so.1:belle_sip_header_refer_to_new
libbelle-sip.so.1:belle_sip_header_refer_to_parse
libbelle-sip.so.1:belle_sip_header_refer_to_t_vptr_get
libbelle-sip.so.1:belle_sip_header_referred_by_clone
libbelle-sip.so.1:belle_sip_header_referred_by_create
libbelle-sip.so.1:belle_sip_header_referred_by_marshal
libbelle-sip.so.1:belle_sip_header_referred_by_new
libbelle-sip.so.1:belle_sip_header_referred_by_parse
libbelle-sip.so.1:belle_sip_header_referred_by_t_vptr_get
libbelle-sip.so.1:belle_sip_header_replaces_create
libbelle-sip.so.1:belle_sip_header_replaces_create2
libbelle-sip.so.1:belle_sip_header_replaces_get_call_id
libbelle-sip.so.1:belle_sip_header_replaces_get_from_tag
libbelle-sip.so.1:belle_sip_header_replaces_get_to_tag
libbelle-sip.so.1:belle_sip_header_replaces_marshal
libbelle-sip.so.1:belle_sip_header_replaces_new
libbelle-sip.so.1:belle_sip_header_replaces_parse
libbelle-sip.so.1:belle_sip_header_replaces_set_call_id
libbelle-sip.so.1:belle_sip_header_replaces_set_from_tag
libbelle-sip.so.1:belle_sip_header_replaces_set_to_tag
libbelle-sip.so.1:belle_sip_header_replaces_t_vptr_get
libbelle-sip.so.1:belle_sip_header_replaces_value_to_escaped_string
libbelle-sip.so.1:belle_sip_header_require_add_require
libbelle-sip.so.1:belle_sip_header_require_create
libbelle-sip.so.1:belle_sip_header_require_get_require
libbelle-sip.so.1:belle_sip_header_require_marshal
libbelle-sip.so.1:belle_sip_header_require_new
libbelle-sip.so.1:belle_sip_header_require_parse
libbelle-sip.so.1:belle_sip_header_require_set_require
libbelle-sip.so.1:belle_sip_header_require_t_vptr_get
libbelle-sip.so.1:belle_sip_header_retry_after_create
libbelle-sip.so.1:belle_sip_header_retry_after_get_retry_after
libbelle-sip.so.1:belle_sip_header_retry_after_marshal
libbelle-sip.so.1:belle_sip_header_retry_after_new
libbelle-sip.so.1:belle_sip_header_retry_after_parse
libbelle-sip.so.1:belle_sip_header_retry_after_set_retry_after
libbelle-sip.so.1:belle_sip_header_retry_after_t_vptr_get
libbelle-sip.so.1:belle_sip_header_route_create
libbelle-sip.so.1:belle_sip_header_route_equals
libbelle-sip.so.1:belle_sip_header_route_marshal
libbelle-sip.so.1:belle_sip_header_route_new
libbelle-sip.so.1:belle_sip_header_route_parse
libbelle-sip.so.1:belle_sip_header_route_t_vptr_get
libbelle-sip.so.1:belle_sip_header_service_route_marshal
libbelle-sip.so.1:belle_sip_header_service_route_new
libbelle-sip.so.1:belle_sip_header_service_route_parse
libbelle-sip.so.1:belle_sip_header_service_route_t_vptr_get
libbelle-sip.so.1:belle_sip_header_session_expires_create
libbelle-sip.so.1:belle_sip_header_session_expires_get_delta
libbelle-sip.so.1:belle_sip_header_session_expires_get_refresher
libbelle-sip.so.1:belle_sip_header_session_expires_get_refresher_value
libbelle-sip.so.1:belle_sip_header_session_expires_marshal
libbelle-sip.so.1:belle_sip_header_session_expires_new
libbelle-sip.so.1:belle_sip_header_session_expires_parse
libbelle-sip.so.1:belle_sip_header_session_expires_set_delta
libbelle-sip.so.1:belle_sip_header_session_expires_set_refresher
libbelle-sip.so.1:belle_sip_header_session_expires_set_refresher_value
libbelle-sip.so.1:belle_sip_header_session_expires_t_vptr_get
libbelle-sip.so.1:belle_sip_header_set_name
libbelle-sip.so.1:belle_sip_header_set_next
libbelle-sip.so.1:belle_sip_header_subscription_state_create
libbelle-sip.so.1:belle_sip_header_subscription_state_get_expires
libbelle-sip.so.1:belle_sip_header_subscription_state_get_reason
libbelle-sip.so.1:belle_sip_header_subscription_state_get_retry_after
libbelle-sip.so.1:belle_sip_header_subscription_state_get_state
libbelle-sip.so.1:belle_sip_header_subscription_state_marshal
libbelle-sip.so.1:belle_sip_header_subscription_state_new
libbelle-sip.so.1:belle_sip_header_subscription_state_parse
libbelle-sip.so.1:belle_sip_header_subscription_state_set_expires
libbelle-sip.so.1:belle_sip_header_subscription_state_set_reason
libbelle-sip.so.1:belle_sip_header_subscription_state_set_retry_after
libbelle-sip.so.1:belle_sip_header_subscription_state_set_state
libbelle-sip.so.1:belle_sip_header_subscription_state_t_vptr_get
libbelle-sip.so.1:belle_sip_header_supported_add_supported
libbelle-sip.so.1:belle_sip_header_supported_contains_tag
libbelle-sip.so.1:belle_sip_header_supported_create
libbelle-sip.so.1:belle_sip_header_supported_get_supported
libbelle-sip.so.1:belle_sip_header_supported_marshal
libbelle-sip.so.1:belle_sip_header_supported_new
libbelle-sip.so.1:belle_sip_header_supported_parse
libbelle-sip.so.1:belle_sip_header_supported_set_supported
libbelle-sip.so.1:belle_sip_header_supported_t_vptr_get
libbelle-sip.so.1:belle_sip_header_t_vptr_get
libbelle-sip.so.1:belle_sip_header_to_clone
libbelle-sip.so.1:belle_sip_header_to_create
libbelle-sip.so.1:belle_sip_header_to_create2
libbelle-sip.so.1:belle_sip_header_to_get_raw_tag
libbelle-sip.so.1:belle_sip_header_to_get_tag
libbelle-sip.so.1:belle_sip_header_to_marshal
libbelle-sip.so.1:belle_sip_header_to_new
libbelle-sip.so.1:belle_sip_header_to_parse
libbelle-sip.so.1:belle_sip_header_to_set_random_tag
libbelle-sip.so.1:belle_sip_header_to_set_raw_tag
libbelle-sip.so.1:belle_sip_header_to_set_tag
libbelle-sip.so.1:belle_sip_header_to_t_vptr_get
libbelle-sip.so.1:belle_sip_header_user_agent_add_product
libbelle-sip.so.1:belle_sip_header_user_agent_get_products
libbelle-sip.so.1:belle_sip_header_user_agent_get_products_as_string
libbelle-sip.so.1:belle_sip_header_user_agent_marshal
libbelle-sip.so.1:belle_sip_header_user_agent_new
libbelle-sip.so.1:belle_sip_header_user_agent_parse
libbelle-sip.so.1:belle_sip_header_user_agent_set_products
libbelle-sip.so.1:belle_sip_header_user_agent_t_vptr_get
libbelle-sip.so.1:belle_sip_header_via_create
libbelle-sip.so.1:belle_sip_header_via_get_branch
libbelle-sip.so.1:belle_sip_header_via_get_host
libbelle-sip.so.1:belle_sip_header_via_get_listening_port
libbelle-sip.so.1:belle_sip_header_via_get_maddr
libbelle-sip.so.1:belle_sip_header_via_get_port
libbelle-sip.so.1:belle_sip_header_via_get_protocol
libbelle-sip.so.1:belle_sip_header_via_get_received
libbelle-sip.so.1:belle_sip_header_via_get_rport
libbelle-sip.so.1:belle_sip_header_via_get_transport
libbelle-sip.so.1:belle_sip_header_via_get_transport_lowercase
libbelle-sip.so.1:belle_sip_header_via_get_ttl
libbelle-sip.so.1:belle_sip_header_via_marshal
libbelle-sip.so.1:belle_sip_header_via_new
libbelle-sip.so.1:belle_sip_header_via_parse
libbelle-sip.so.1:belle_sip_header_via_set_branch
libbelle-sip.so.1:belle_sip_header_via_set_host
libbelle-sip.so.1:belle_sip_header_via_set_maddr
libbelle-sip.so.1:belle_sip_header_via_set_port
libbelle-sip.so.1:belle_sip_header_via_set_protocol
libbelle-sip.so.1:belle_sip_header_via_set_received
libbelle-sip.so.1:belle_sip_header_via_set_rport
libbelle-sip.so.1:belle_sip_header_via_set_transport
libbelle-sip.so.1:belle_sip_header_via_set_ttl
libbelle-sip.so.1:belle_sip_header_via_t_vptr_get
libbelle-sip.so.1:belle_sip_header_www_authenticate_add_qop
libbelle-sip.so.1:belle_sip_header_www_authenticate_get_algorithm
libbelle-sip.so.1:belle_sip_header_www_authenticate_get_domain
libbelle-sip.so.1:belle_sip_header_www_authenticate_get_nonce
libbelle-sip.so.1:belle_sip_header_www_authenticate_get_opaque
libbelle-sip.so.1:belle_sip_header_www_authenticate_get_qop
libbelle-sip.so.1:belle_sip_header_www_authenticate_get_qop_first
libbelle-sip.so.1:belle_sip_header_www_authenticate_get_realm
libbelle-sip.so.1:belle_sip_header_www_authenticate_get_scheme
libbelle-sip.so.1:belle_sip_header_www_authenticate_init
libbelle-sip.so.1:belle_sip_header_www_authenticate_is_stale
libbelle-sip.so.1:belle_sip_header_www_authenticate_marshal
libbelle-sip.so.1:belle_sip_header_www_authenticate_new
libbelle-sip.so.1:belle_sip_header_www_authenticate_parse
libbelle-sip.so.1:belle_sip_header_www_authenticate_set_algorithm
libbelle-sip.so.1:belle_sip_header_www_authenticate_set_domain
libbelle-sip.so.1:belle_sip_header_www_authenticate_set_nonce
libbelle-sip.so.1:belle_sip_header_www_authenticate_set_opaque
libbelle-sip.so.1:belle_sip_header_www_authenticate_set_qop
libbelle-sip.so.1:belle_sip_header_www_authenticate_set_realm
libbelle-sip.so.1:belle_sip_header_www_authenticate_set_scheme
libbelle-sip.so.1:belle_sip_header_www_authenticate_set_stale
libbelle-sip.so.1:belle_sip_header_www_authenticate_t_vptr_get
libbelle-sip.so.1:belle_sip_headers_container_get
libbelle-sip.so.1:belle_sip_headers_marshal
libbelle-sip.so.1:belle_sip_hop_new
libbelle-sip.so.1:belle_sip_hop_new_from_generic_uri
libbelle-sip.so.1:belle_sip_hop_new_from_uri
libbelle-sip.so.1:belle_sip_hop_t_vptr_get
libbelle-sip.so.1:belle_sip_ict_new
libbelle-sip.so.1:belle_sip_ict_t_vptr
libbelle-sip.so.1:belle_sip_ict_t_vptr_get
libbelle-sip.so.1:belle_sip_init_sockets
libbelle-sip.so.1:belle_sip_io_error_event_get_host
libbelle-sip.so.1:belle_sip_io_error_event_get_source
libbelle-sip.so.1:belle_sip_io_error_event_get_transport
libbelle-sip.so.1:belle_sip_io_error_event_port
libbelle-sip.so.1:belle_sip_ist_new
libbelle-sip.so.1:belle_sip_ist_process_ack
libbelle-sip.so.1:belle_sip_ist_t_vptr
libbelle-sip.so.1:belle_sip_ist_t_vptr_get
libbelle-sip.so.1:belle_sip_listener_create_from_callbacks
libbelle-sip.so.1:belle_sip_listening_point_add_channel
libbelle-sip.so.1:belle_sip_listening_point_clean_channels
libbelle-sip.so.1:belle_sip_listening_point_clean_unreliable_channels
libbelle-sip.so.1:belle_sip_listening_point_create_channel
libbelle-sip.so.1:belle_sip_listening_point_get_channel
libbelle-sip.so.1:belle_sip_listening_point_get_channel_count
libbelle-sip.so.1:belle_sip_listening_point_get_ip_address
libbelle-sip.so.1:belle_sip_listening_point_get_keep_alive
libbelle-sip.so.1:belle_sip_listening_point_get_port
libbelle-sip.so.1:belle_sip_listening_point_get_transport
libbelle-sip.so.1:belle_sip_listening_point_get_uri
libbelle-sip.so.1:belle_sip_listening_point_get_well_known_port
libbelle-sip.so.1:belle_sip_listening_point_init
libbelle-sip.so.1:belle_sip_listening_point_remove_channel
libbelle-sip.so.1:belle_sip_listening_point_send_keep_alive
libbelle-sip.so.1:belle_sip_listening_point_set_channel_listener
libbelle-sip.so.1:belle_sip_listening_point_set_keep_alive
libbelle-sip.so.1:belle_sip_listening_point_t_vptr
libbelle-sip.so.1:belle_sip_listening_point_t_vptr_get
libbelle-sip.so.1:belle_sip_main_loop_add_source
libbelle-sip.so.1:belle_sip_main_loop_add_timeout
libbelle-sip.so.1:belle_sip_main_loop_cancel_source
libbelle-sip.so.1:belle_sip_main_loop_create_timeout
libbelle-sip.so.1:belle_sip_main_loop_create_timeout_with_remove_cb
libbelle-sip.so.1:belle_sip_main_loop_do_later
libbelle-sip.so.1:belle_sip_main_loop_do_later_with_name
libbelle-sip.so.1:belle_sip_main_loop_find_source
libbelle-sip.so.1:belle_sip_main_loop_new
libbelle-sip.so.1:belle_sip_main_loop_quit
libbelle-sip.so.1:belle_sip_main_loop_remove_source
libbelle-sip.so.1:belle_sip_main_loop_run
libbelle-sip.so.1:belle_sip_main_loop_sleep
libbelle-sip.so.1:belle_sip_main_loop_t_vptr_get
libbelle-sip.so.1:belle_sip_main_loop_wake_up
libbelle-sip.so.1:belle_sip_md5_append
libbelle-sip.so.1:belle_sip_md5_finish
libbelle-sip.so.1:belle_sip_md5_init
libbelle-sip.so.1:belle_sip_mdns_register
libbelle-sip.so.1:belle_sip_mdns_register_available
libbelle-sip.so.1:belle_sip_mdns_unregister
libbelle-sip.so.1:belle_sip_memory_body_handler_apply_encoding
libbelle-sip.so.1:belle_sip_memory_body_handler_get_buffer
libbelle-sip.so.1:belle_sip_memory_body_handler_new
libbelle-sip.so.1:belle_sip_memory_body_handler_new_copy_from_buffer
libbelle-sip.so.1:belle_sip_memory_body_handler_new_from_buffer
libbelle-sip.so.1:belle_sip_memory_body_handler_set_buffer
libbelle-sip.so.1:belle_sip_memory_body_handler_t_vptr
libbelle-sip.so.1:belle_sip_memory_body_handler_t_vptr_get
libbelle-sip.so.1:belle_sip_memory_body_handler_unapply_encoding
libbelle-sip.so.1:belle_sip_messageLexerNew
libbelle-sip.so.1:belle_sip_messageLexerNewSSD
libbelle-sip.so.1:belle_sip_messageParserNew
libbelle-sip.so.1:belle_sip_messageParserNewSSD
libbelle-sip.so.1:belle_sip_messageParserTokenNames
libbelle-sip.so.1:belle_sip_message_add_first
libbelle-sip.so.1:belle_sip_message_add_header
libbelle-sip.so.1:belle_sip_message_add_headers
libbelle-sip.so.1:belle_sip_message_assign_body
libbelle-sip.so.1:belle_sip_message_check_headers
libbelle-sip.so.1:belle_sip_message_get_all_headers
libbelle-sip.so.1:belle_sip_message_get_body
libbelle-sip.so.1:belle_sip_message_get_body_handler
libbelle-sip.so.1:belle_sip_message_get_body_size
libbelle-sip.so.1:belle_sip_message_get_header
libbelle-sip.so.1:belle_sip_message_get_headers
libbelle-sip.so.1:belle_sip_message_init
libbelle-sip.so.1:belle_sip_message_is_request
libbelle-sip.so.1:belle_sip_message_is_response
libbelle-sip.so.1:belle_sip_message_parse
libbelle-sip.so.1:belle_sip_message_parse_raw
libbelle-sip.so.1:belle_sip_message_remove_first
libbelle-sip.so.1:belle_sip_message_remove_header
libbelle-sip.so.1:belle_sip_message_remove_header_from_ptr
libbelle-sip.so.1:belle_sip_message_remove_last
libbelle-sip.so.1:belle_sip_message_set_body
libbelle-sip.so.1:belle_sip_message_set_body_handler
libbelle-sip.so.1:belle_sip_message_set_header
libbelle-sip.so.1:belle_sip_message_t_vptr_get
libbelle-sip.so.1:belle_sip_message_to_string
libbelle-sip.so.1:belle_sip_multipart_body_handler_add_part
libbelle-sip.so.1:belle_sip_multipart_body_handler_get_boundary
libbelle-sip.so.1:belle_sip_multipart_body_handler_get_parts
libbelle-sip.so.1:belle_sip_multipart_body_handler_is_related
libbelle-sip.so.1:belle_sip_multipart_body_handler_new
libbelle-sip.so.1:belle_sip_multipart_body_handler_new_from_buffer
libbelle-sip.so.1:belle_sip_multipart_body_handler_set_related
libbelle-sip.so.1:belle_sip_multipart_body_handler_t_vptr
libbelle-sip.so.1:belle_sip_multipart_body_handler_t_vptr_get
libbelle-sip.so.1:belle_sip_nict_new
libbelle-sip.so.1:belle_sip_nict_t_vptr
libbelle-sip.so.1:belle_sip_nict_t_vptr_get
libbelle-sip.so.1:belle_sip_nist_new
libbelle-sip.so.1:belle_sip_nist_t_vptr
libbelle-sip.so.1:belle_sip_nist_t_vptr_get
libbelle-sip.so.1:belle_sip_object_cast
libbelle-sip.so.1:belle_sip_object_clone
libbelle-sip.so.1:belle_sip_object_clone_and_ref
libbelle-sip.so.1:belle_sip_object_data_clear
libbelle-sip.so.1:belle_sip_object_data_clone
libbelle-sip.so.1:belle_sip_object_data_exists
libbelle-sip.so.1:belle_sip_object_data_foreach
libbelle-sip.so.1:belle_sip_object_data_get
libbelle-sip.so.1:belle_sip_object_data_grab
libbelle-sip.so.1:belle_sip_object_data_merge
libbelle-sip.so.1:belle_sip_object_data_remove
libbelle-sip.so.1:belle_sip_object_data_set
libbelle-sip.so.1:belle_sip_object_delete
libbelle-sip.so.1:belle_sip_object_describe
libbelle-sip.so.1:belle_sip_object_describe_type_from_name
libbelle-sip.so.1:belle_sip_object_dump_active_objects
libbelle-sip.so.1:belle_sip_object_enable_leak_detector
libbelle-sip.so.1:belle_sip_object_enable_marshal_check
libbelle-sip.so.1:belle_sip_object_flush_active_objects
libbelle-sip.so.1:belle_sip_object_get_interface_methods
libbelle-sip.so.1:belle_sip_object_get_name
libbelle-sip.so.1:belle_sip_object_get_object_count
libbelle-sip.so.1:belle_sip_object_implements
libbelle-sip.so.1:belle_sip_object_inhibit_leak_detector
libbelle-sip.so.1:belle_sip_object_interface_cast
libbelle-sip.so.1:belle_sip_object_is_initially_unowned
libbelle-sip.so.1:belle_sip_object_marshal
libbelle-sip.so.1:belle_sip_object_pool_add
libbelle-sip.so.1:belle_sip_object_pool_clean
libbelle-sip.so.1:belle_sip_object_pool_cleanable
libbelle-sip.so.1:belle_sip_object_pool_get_current
libbelle-sip.so.1:belle_sip_object_pool_new
libbelle-sip.so.1:belle_sip_object_pool_push
libbelle-sip.so.1:belle_sip_object_pool_remove
libbelle-sip.so.1:belle_sip_object_pool_t_vptr_get
libbelle-sip.so.1:belle_sip_object_ref
libbelle-sip.so.1:belle_sip_object_remove_from_leak_detector
libbelle-sip.so.1:belle_sip_object_set_name
libbelle-sip.so.1:belle_sip_object_t_vptr
libbelle-sip.so.1:belle_sip_object_t_vptr_get
libbelle-sip.so.1:belle_sip_object_to_string
libbelle-sip.so.1:belle_sip_object_uninit
libbelle-sip.so.1:belle_sip_object_unref
libbelle-sip.so.1:belle_sip_object_unref_2
libbelle-sip.so.1:belle_sip_object_weak_ref
libbelle-sip.so.1:belle_sip_object_weak_unref
libbelle-sip.so.1:belle_sip_octets_to_text
libbelle-sip.so.1:belle_sip_param_pair_case_comp_func
libbelle-sip.so.1:belle_sip_param_pair_comp_func
libbelle-sip.so.1:belle_sip_param_pair_destroy
libbelle-sip.so.1:belle_sip_param_pair_new
libbelle-sip.so.1:belle_sip_parameters_clean
libbelle-sip.so.1:belle_sip_parameters_copy_parameters_from
libbelle-sip.so.1:belle_sip_parameters_get_case_parameter
libbelle-sip.so.1:belle_sip_parameters_get_parameter
libbelle-sip.so.1:belle_sip_parameters_get_parameter_base
libbelle-sip.so.1:belle_sip_parameters_get_parameter_names
libbelle-sip.so.1:belle_sip_parameters_get_parameters
libbelle-sip.so.1:belle_sip_parameters_has_parameter
libbelle-sip.so.1:belle_sip_parameters_init
libbelle-sip.so.1:belle_sip_parameters_marshal
libbelle-sip.so.1:belle_sip_parameters_new
libbelle-sip.so.1:belle_sip_parameters_remove_parameter
libbelle-sip.so.1:belle_sip_parameters_set
libbelle-sip.so.1:belle_sip_parameters_set_parameter
libbelle-sip.so.1:belle_sip_parameters_t_vptr_get
libbelle-sip.so.1:belle_sip_provider_add_authorization
libbelle-sip.so.1:belle_sip_provider_add_client_transaction
libbelle-sip.so.1:belle_sip_provider_add_dialog
libbelle-sip.so.1:belle_sip_provider_add_internal_sip_listener
libbelle-sip.so.1:belle_sip_provider_add_listening_point
libbelle-sip.so.1:belle_sip_provider_add_server_transaction
libbelle-sip.so.1:belle_sip_provider_add_sip_listener
libbelle-sip.so.1:belle_sip_provider_clean_channels
libbelle-sip.so.1:belle_sip_provider_clean_unreliable_channels
libbelle-sip.so.1:belle_sip_provider_create_call_id
libbelle-sip.so.1:belle_sip_provider_create_client_transaction
libbelle-sip.so.1:belle_sip_provider_create_dialog
libbelle-sip.so.1:belle_sip_provider_create_dialog_internal
libbelle-sip.so.1:belle_sip_provider_create_inbound_record_route
libbelle-sip.so.1:belle_sip_provider_create_server_transaction
libbelle-sip.so.1:belle_sip_provider_dispatch_message
libbelle-sip.so.1:belle_sip_provider_enable_nat_helper
libbelle-sip.so.1:belle_sip_provider_enable_response_integrity_checking
libbelle-sip.so.1:belle_sip_provider_enable_rport
libbelle-sip.so.1:belle_sip_provider_enable_unconditional_answer
libbelle-sip.so.1:belle_sip_provider_find_dialog
libbelle-sip.so.1:belle_sip_provider_find_dialog_from_message
libbelle-sip.so.1:belle_sip_provider_find_dialog_with_remote_tag
libbelle-sip.so.1:belle_sip_provider_find_matching_client_transaction
libbelle-sip.so.1:belle_sip_provider_find_matching_client_transaction_from_req
libbelle-sip.so.1:belle_sip_provider_find_matching_pending_subscribe_client_transaction_from_notify_req
libbelle-sip.so.1:belle_sip_provider_find_matching_server_transaction
libbelle-sip.so.1:belle_sip_provider_find_matching_transaction
libbelle-sip.so.1:belle_sip_provider_get_channel
libbelle-sip.so.1:belle_sip_provider_get_listening_point
libbelle-sip.so.1:belle_sip_provider_get_listening_points
libbelle-sip.so.1:belle_sip_provider_get_sip_stack
libbelle-sip.so.1:belle_sip_provider_is_rport_enabled
libbelle-sip.so.1:belle_sip_provider_is_us
libbelle-sip.so.1:belle_sip_provider_nat_helper_enabled
libbelle-sip.so.1:belle_sip_provider_new
libbelle-sip.so.1:belle_sip_provider_release_channel
libbelle-sip.so.1:belle_sip_provider_remove_client_transaction
libbelle-sip.so.1:belle_sip_provider_remove_dialog
libbelle-sip.so.1:belle_sip_provider_remove_internal_sip_listener
libbelle-sip.so.1:belle_sip_provider_remove_listening_point
libbelle-sip.so.1:belle_sip_provider_remove_server_transaction
libbelle-sip.so.1:belle_sip_provider_remove_sip_listener
libbelle-sip.so.1:belle_sip_provider_send_request
libbelle-sip.so.1:belle_sip_provider_send_response
libbelle-sip.so.1:belle_sip_provider_set_recv_error
libbelle-sip.so.1:belle_sip_provider_set_transaction_terminated
libbelle-sip.so.1:belle_sip_provider_set_unconditional_answer
libbelle-sip.so.1:belle_sip_provider_t_vptr_get
libbelle-sip.so.1:belle_sip_random
libbelle-sip.so.1:belle_sip_random_bytes
libbelle-sip.so.1:belle_sip_random_token
libbelle-sip.so.1:belle_sip_random_token_with_charset
libbelle-sip.so.1:belle_sip_refresher_enable_manual_mode
libbelle-sip.so.1:belle_sip_refresher_get_auth_events
libbelle-sip.so.1:belle_sip_refresher_get_contact
libbelle-sip.so.1:belle_sip_refresher_get_expires
libbelle-sip.so.1:belle_sip_refresher_get_local_address
libbelle-sip.so.1:belle_sip_refresher_get_public_address
libbelle-sip.so.1:belle_sip_refresher_get_realm
libbelle-sip.so.1:belle_sip_refresher_get_retry_after
libbelle-sip.so.1:belle_sip_refresher_get_transaction
libbelle-sip.so.1:belle_sip_refresher_new
libbelle-sip.so.1:belle_sip_refresher_refresh
libbelle-sip.so.1:belle_sip_refresher_set_listener
libbelle-sip.so.1:belle_sip_refresher_set_realm
libbelle-sip.so.1:belle_sip_refresher_set_retry_after
libbelle-sip.so.1:belle_sip_refresher_start
libbelle-sip.so.1:belle_sip_refresher_stop
libbelle-sip.so.1:belle_sip_refresher_t_vptr_get
libbelle-sip.so.1:belle_sip_request_check_uris_components
libbelle-sip.so.1:belle_sip_request_clone_with_body
libbelle-sip.so.1:belle_sip_request_create
libbelle-sip.so.1:belle_sip_request_event_get_dialog
libbelle-sip.so.1:belle_sip_request_event_get_request
libbelle-sip.so.1:belle_sip_request_event_get_server_transaction
libbelle-sip.so.1:belle_sip_request_extract_origin
libbelle-sip.so.1:belle_sip_request_get_absolute_uri
libbelle-sip.so.1:belle_sip_request_get_method
libbelle-sip.so.1:belle_sip_request_get_rfc2543_branch
libbelle-sip.so.1:belle_sip_request_get_uri
libbelle-sip.so.1:belle_sip_request_marshal
libbelle-sip.so.1:belle_sip_request_new
libbelle-sip.so.1:belle_sip_request_parse
libbelle-sip.so.1:belle_sip_request_set_absolute_uri
libbelle-sip.so.1:belle_sip_request_set_dialog
libbelle-sip.so.1:belle_sip_request_set_method
libbelle-sip.so.1:belle_sip_request_set_rfc2543_branch
libbelle-sip.so.1:belle_sip_request_set_uri
libbelle-sip.so.1:belle_sip_request_t_vptr_get
libbelle-sip.so.1:belle_sip_resolver_context_cancel
libbelle-sip.so.1:belle_sip_resolver_context_init
libbelle-sip.so.1:belle_sip_resolver_context_notify
libbelle-sip.so.1:belle_sip_resolver_context_t_vptr
libbelle-sip.so.1:belle_sip_resolver_context_t_vptr_get
libbelle-sip.so.1:belle_sip_resolver_results_create
libbelle-sip.so.1:belle_sip_resolver_results_get_addrinfos
libbelle-sip.so.1:belle_sip_resolver_results_get_name
libbelle-sip.so.1:belle_sip_resolver_results_get_srv_from_addrinfo
libbelle-sip.so.1:belle_sip_resolver_results_get_srv_records
libbelle-sip.so.1:belle_sip_resolver_results_get_ttl
libbelle-sip.so.1:belle_sip_resolver_results_t_vptr_get
libbelle-sip.so.1:belle_sip_response_create_from_request
libbelle-sip.so.1:belle_sip_response_destroy
libbelle-sip.so.1:belle_sip_response_event_get_client_transaction
libbelle-sip.so.1:belle_sip_response_event_get_dialog
libbelle-sip.so.1:belle_sip_response_event_get_response
libbelle-sip.so.1:belle_sip_response_fill_for_dialog
libbelle-sip.so.1:belle_sip_response_fix_contact
libbelle-sip.so.1:belle_sip_response_get_reason_phrase
libbelle-sip.so.1:belle_sip_response_get_return_hop
libbelle-sip.so.1:belle_sip_response_get_status_code
libbelle-sip.so.1:belle_sip_response_marshal
libbelle-sip.so.1:belle_sip_response_new
libbelle-sip.so.1:belle_sip_response_parse
libbelle-sip.so.1:belle_sip_response_set_reason_phrase
libbelle-sip.so.1:belle_sip_response_set_status_code
libbelle-sip.so.1:belle_sip_response_t_vptr_get
libbelle-sip.so.1:belle_sip_server_transaction_init
libbelle-sip.so.1:belle_sip_server_transaction_on_request
libbelle-sip.so.1:belle_sip_server_transaction_send_response
libbelle-sip.so.1:belle_sip_server_transaction_t_vptr
libbelle-sip.so.1:belle_sip_server_transaction_t_vptr_get
libbelle-sip.so.1:belle_sip_set_log_handler
libbelle-sip.so.1:belle_sip_set_socket_api
libbelle-sip.so.1:belle_sip_signing_key_get_pem
libbelle-sip.so.1:belle_sip_signing_key_new
libbelle-sip.so.1:belle_sip_signing_key_parse
libbelle-sip.so.1:belle_sip_signing_key_parse_file
libbelle-sip.so.1:belle_sip_signing_key_t_vptr_get
libbelle-sip.so.1:belle_sip_simple_resolver_context_t_vptr
libbelle-sip.so.1:belle_sip_simple_resolver_context_t_vptr_get
libbelle-sip.so.1:belle_sip_snprintf
libbelle-sip.so.1:belle_sip_snprintf_valist
libbelle-sip.so.1:belle_sip_socket_enable_dual_stack
libbelle-sip.so.1:belle_sip_socket_set_dscp
libbelle-sip.so.1:belle_sip_socket_set_nonblocking
libbelle-sip.so.1:belle_sip_socket_source_init
libbelle-sip.so.1:belle_sip_socket_source_new
libbelle-sip.so.1:belle_sip_source_cancel
libbelle-sip.so.1:belle_sip_source_get_id
libbelle-sip.so.1:belle_sip_source_get_socket
libbelle-sip.so.1:belle_sip_source_get_timeout
libbelle-sip.so.1:belle_sip_source_get_timeout_int64
libbelle-sip.so.1:belle_sip_source_get_user_data
libbelle-sip.so.1:belle_sip_source_set_events
libbelle-sip.so.1:belle_sip_source_set_notify
libbelle-sip.so.1:belle_sip_source_set_remove_cb
libbelle-sip.so.1:belle_sip_source_set_timeout
libbelle-sip.so.1:belle_sip_source_set_timeout_int64
libbelle-sip.so.1:belle_sip_source_set_user_data
libbelle-sip.so.1:belle_sip_source_t_vptr_get
libbelle-sip.so.1:belle_sip_source_uninit
libbelle-sip.so.1:belle_sip_stack_check_digest_compatibility
libbelle-sip.so.1:belle_sip_stack_content_encoding_available
libbelle-sip.so.1:belle_sip_stack_create_http_provider
libbelle-sip.so.1:belle_sip_stack_create_http_provider_with_transports
libbelle-sip.so.1:belle_sip_stack_create_listening_point
libbelle-sip.so.1:belle_sip_stack_create_provider
libbelle-sip.so.1:belle_sip_stack_delete_listening_point
libbelle-sip.so.1:belle_sip_stack_delete_provider
libbelle-sip.so.1:belle_sip_stack_dns_search_enabled
libbelle-sip.so.1:belle_sip_stack_dns_srv_enabled
libbelle-sip.so.1:belle_sip_stack_enable_dns_search
libbelle-sip.so.1:belle_sip_stack_enable_dns_srv
libbelle-sip.so.1:belle_sip_stack_enable_reconnect_to_primary_asap
libbelle-sip.so.1:belle_sip_stack_get_default_dscp
libbelle-sip.so.1:belle_sip_stack_get_digest_authentication_policy
libbelle-sip.so.1:belle_sip_stack_get_dns_engine
libbelle-sip.so.1:belle_sip_stack_get_dns_resolv_conf_file
libbelle-sip.so.1:belle_sip_stack_get_dns_timeout
libbelle-sip.so.1:belle_sip_stack_get_dns_user_hosts_file
libbelle-sip.so.1:belle_sip_stack_get_http_inactive_transport_timeout
libbelle-sip.so.1:belle_sip_stack_get_http_proxy_host
libbelle-sip.so.1:belle_sip_stack_get_http_proxy_port
libbelle-sip.so.1:belle_sip_stack_get_inactive_transport_timeout
libbelle-sip.so.1:belle_sip_stack_get_main_loop
libbelle-sip.so.1:belle_sip_stack_get_next_hop
libbelle-sip.so.1:belle_sip_stack_get_timer_config
libbelle-sip.so.1:belle_sip_stack_get_transport_timeout
libbelle-sip.so.1:belle_sip_stack_get_unreliable_connection_timeout
libbelle-sip.so.1:belle_sip_stack_get_well_known_port
libbelle-sip.so.1:belle_sip_stack_get_well_known_port_tls
libbelle-sip.so.1:belle_sip_stack_main
libbelle-sip.so.1:belle_sip_stack_new
libbelle-sip.so.1:belle_sip_stack_reconnect_to_primary_asap_enabled
libbelle-sip.so.1:belle_sip_stack_resolve
libbelle-sip.so.1:belle_sip_stack_resolve_a
libbelle-sip.so.1:belle_sip_stack_resolve_srv
libbelle-sip.so.1:belle_sip_stack_set_client_bind_port
libbelle-sip.so.1:belle_sip_stack_set_default_dscp
libbelle-sip.so.1:belle_sip_stack_set_digest_authentication_policy
libbelle-sip.so.1:belle_sip_stack_set_dns_engine
libbelle-sip.so.1:belle_sip_stack_set_dns_resolv_conf_file
libbelle-sip.so.1:belle_sip_stack_set_dns_servers
libbelle-sip.so.1:belle_sip_stack_set_dns_timeout
libbelle-sip.so.1:belle_sip_stack_set_dns_user_hosts_file
libbelle-sip.so.1:belle_sip_stack_set_http_inactive_transport_timeout
libbelle-sip.so.1:belle_sip_stack_set_http_proxy_host
libbelle-sip.so.1:belle_sip_stack_set_http_proxy_port
libbelle-sip.so.1:belle_sip_stack_set_inactive_transport_timeout
libbelle-sip.so.1:belle_sip_stack_set_resolver_send_error
libbelle-sip.so.1:belle_sip_stack_set_resolver_tx_delay
libbelle-sip.so.1:belle_sip_stack_set_send_error
libbelle-sip.so.1:belle_sip_stack_set_timer_config
libbelle-sip.so.1:belle_sip_stack_set_transport_timeout
libbelle-sip.so.1:belle_sip_stack_set_tx_delay
libbelle-sip.so.1:belle_sip_stack_set_unreliable_connection_timeout
libbelle-sip.so.1:belle_sip_stack_set_well_known_port
libbelle-sip.so.1:belle_sip_stack_set_well_known_port_tls
libbelle-sip.so.1:belle_sip_stack_simulate_non_working_srv
libbelle-sip.so.1:belle_sip_stack_sleep
libbelle-sip.so.1:belle_sip_stack_t_vptr_get
libbelle-sip.so.1:belle_sip_stack_tls_available
libbelle-sip.so.1:belle_sip_stream_channel_init_client
libbelle-sip.so.1:belle_sip_stream_channel_new_child
libbelle-sip.so.1:belle_sip_stream_channel_new_client
libbelle-sip.so.1:belle_sip_stream_channel_t_vptr
libbelle-sip.so.1:belle_sip_stream_channel_t_vptr_get
libbelle-sip.so.1:belle_sip_stream_listening_point_destroy_server_socket
libbelle-sip.so.1:belle_sip_stream_listening_point_init
libbelle-sip.so.1:belle_sip_stream_listening_point_new
libbelle-sip.so.1:belle_sip_stream_listening_point_setup_server_socket
libbelle-sip.so.1:belle_sip_stream_listening_point_t_vptr
libbelle-sip.so.1:belle_sip_stream_listening_point_t_vptr_get
libbelle-sip.so.1:belle_sip_string_to_backslash_less_unescaped_string
libbelle-sip.so.1:belle_sip_time_ms
libbelle-sip.so.1:belle_sip_timeout_event_get_client_transaction
libbelle-sip.so.1:belle_sip_timeout_event_get_server_transaction
libbelle-sip.so.1:belle_sip_timeout_source_new
libbelle-sip.so.1:belle_sip_tls_channel_set_client_certificate_key
libbelle-sip.so.1:belle_sip_tls_channel_set_client_certificates_chain
libbelle-sip.so.1:belle_sip_tls_channel_t_vptr
libbelle-sip.so.1:belle_sip_tls_channel_t_vptr_get
libbelle-sip.so.1:belle_sip_tls_listening_point_available
libbelle-sip.so.1:belle_sip_tls_listening_point_get_crypto_config
libbelle-sip.so.1:belle_sip_tls_listening_point_new
libbelle-sip.so.1:belle_sip_tls_listening_point_set_crypto_config
libbelle-sip.so.1:belle_sip_tls_listening_point_set_root_ca
libbelle-sip.so.1:belle_sip_tls_listening_point_set_verify_exceptions
libbelle-sip.so.1:belle_sip_tls_listening_point_set_verify_policy
libbelle-sip.so.1:belle_sip_tls_listening_point_t_vptr
libbelle-sip.so.1:belle_sip_tls_listening_point_t_vptr_get
libbelle-sip.so.1:belle_sip_tls_set_verify_error_cb
libbelle-sip.so.1:belle_sip_to_unescaped_string
libbelle-sip.so.1:belle_sip_transaction_get_application_data
libbelle-sip.so.1:belle_sip_transaction_get_application_data_internal
libbelle-sip.so.1:belle_sip_transaction_get_branch_id
libbelle-sip.so.1:belle_sip_transaction_get_dialog
libbelle-sip.so.1:belle_sip_transaction_get_method
libbelle-sip.so.1:belle_sip_transaction_get_request
libbelle-sip.so.1:belle_sip_transaction_get_response
libbelle-sip.so.1:belle_sip_transaction_get_state
libbelle-sip.so.1:belle_sip_transaction_notify_timeout
libbelle-sip.so.1:belle_sip_transaction_set_application_data
libbelle-sip.so.1:belle_sip_transaction_set_dialog
libbelle-sip.so.1:belle_sip_transaction_set_state
libbelle-sip.so.1:belle_sip_transaction_state_is_transient
libbelle-sip.so.1:belle_sip_transaction_state_to_string
libbelle-sip.so.1:belle_sip_transaction_t_vptr
libbelle-sip.so.1:belle_sip_transaction_t_vptr_get
libbelle-sip.so.1:belle_sip_transaction_terminate
libbelle-sip.so.1:belle_sip_transaction_terminated_event_get_client_transaction
libbelle-sip.so.1:belle_sip_transaction_terminated_event_get_server_transaction
libbelle-sip.so.1:belle_sip_udp_channel_t_vptr
libbelle-sip.so.1:belle_sip_udp_channel_t_vptr_get
libbelle-sip.so.1:belle_sip_udp_listening_point_new
libbelle-sip.so.1:belle_sip_udp_listening_point_t_vptr
libbelle-sip.so.1:belle_sip_udp_listening_point_t_vptr_get
libbelle-sip.so.1:belle_sip_uninit_sockets
libbelle-sip.so.1:belle_sip_unquote_strdup
libbelle-sip.so.1:belle_sip_uri_check_components_from_context
libbelle-sip.so.1:belle_sip_uri_check_components_from_request_uri
libbelle-sip.so.1:belle_sip_uri_create
libbelle-sip.so.1:belle_sip_uri_equals
libbelle-sip.so.1:belle_sip_uri_equals_with_uri_omitting
libbelle-sip.so.1:belle_sip_uri_fix
libbelle-sip.so.1:belle_sip_uri_get_header
libbelle-sip.so.1:belle_sip_uri_get_header_names
libbelle-sip.so.1:belle_sip_uri_get_headers
libbelle-sip.so.1:belle_sip_uri_get_host
libbelle-sip.so.1:belle_sip_uri_get_listening_port
libbelle-sip.so.1:belle_sip_uri_get_maddr_param
libbelle-sip.so.1:belle_sip_uri_get_method_param
libbelle-sip.so.1:belle_sip_uri_get_port
libbelle-sip.so.1:belle_sip_uri_get_transport_param
libbelle-sip.so.1:belle_sip_uri_get_ttl_param
libbelle-sip.so.1:belle_sip_uri_get_user
libbelle-sip.so.1:belle_sip_uri_get_user_param
libbelle-sip.so.1:belle_sip_uri_get_user_password
libbelle-sip.so.1:belle_sip_uri_has_lr_param
libbelle-sip.so.1:belle_sip_uri_headers_clean
libbelle-sip.so.1:belle_sip_uri_is_secure
libbelle-sip.so.1:belle_sip_uri_marshal
libbelle-sip.so.1:belle_sip_uri_new
libbelle-sip.so.1:belle_sip_uri_parse
libbelle-sip.so.1:belle_sip_uri_remove_header
libbelle-sip.so.1:belle_sip_uri_set_header
libbelle-sip.so.1:belle_sip_uri_set_host
libbelle-sip.so.1:belle_sip_uri_set_lr_param
libbelle-sip.so.1:belle_sip_uri_set_maddr_param
libbelle-sip.so.1:belle_sip_uri_set_method_param
libbelle-sip.so.1:belle_sip_uri_set_port
libbelle-sip.so.1:belle_sip_uri_set_secure
libbelle-sip.so.1:belle_sip_uri_set_transport_param
libbelle-sip.so.1:belle_sip_uri_set_ttl_param
libbelle-sip.so.1:belle_sip_uri_set_user
libbelle-sip.so.1:belle_sip_uri_set_user_param
libbelle-sip.so.1:belle_sip_uri_set_user_password
libbelle-sip.so.1:belle_sip_uri_t_vptr_get
libbelle-sip.so.1:belle_sip_uri_to_escaped_header
libbelle-sip.so.1:belle_sip_uri_to_escaped_parameter
libbelle-sip.so.1:belle_sip_uri_to_escaped_username
libbelle-sip.so.1:belle_sip_uri_to_escaped_userpasswd
libbelle-sip.so.1:belle_sip_uri_to_string
libbelle-sip.so.1:belle_sip_user_body_handler_new
libbelle-sip.so.1:belle_sip_user_body_handler_t_vptr
libbelle-sip.so.1:belle_sip_user_body_handler_t_vptr_get
libbelle-sip.so.1:belle_sip_username_unescape_unnecessary_characters
libbelle-sip.so.1:belle_sip_util_copy_headers
libbelle-sip.so.1:belle_sip_verify_cb_error_wrapper
libbelle-sip.so.1:belle_sip_version_to_string
libbelle-sip.so.1:belle_tls_crypto_config_get_verify_exceptions
libbelle-sip.so.1:belle_tls_crypto_config_new
libbelle-sip.so.1:belle_tls_crypto_config_set_postcheck_callback
libbelle-sip.so.1:belle_tls_crypto_config_set_root_ca
libbelle-sip.so.1:belle_tls_crypto_config_set_root_ca_data
libbelle-sip.so.1:belle_tls_crypto_config_set_ssl_config
libbelle-sip.so.1:belle_tls_crypto_config_set_verify_callback
libbelle-sip.so.1:belle_tls_crypto_config_set_verify_exceptions
libbelle-sip.so.1:belle_tls_crypto_config_t_vptr_get
libbelle-sip.so.1:belle_tls_verify_policy_get_exceptions
libbelle-sip.so.1:belle_tls_verify_policy_new
libbelle-sip.so.1:belle_tls_verify_policy_set_exceptions
libbelle-sip.so.1:belle_tls_verify_policy_set_root_ca
libbelle-sip.so.1:cache
libbelle-sip.so.1:channel_set_state
libbelle-sip.so.1:dns_a_arpa
libbelle-sip.so.1:dns_a_cmp
libbelle-sip.so.1:dns_a_parse
libbelle-sip.so.1:dns_a_print
libbelle-sip.so.1:dns_a_push
libbelle-sip.so.1:dns_aaaa_arpa
libbelle-sip.so.1:dns_aaaa_cmp
libbelle-sip.so.1:dns_aaaa_parse
libbelle-sip.so.1:dns_aaaa_print
libbelle-sip.so.1:dns_aaaa_push
libbelle-sip.so.1:dns_ai_clear
libbelle-sip.so.1:dns_ai_close
libbelle-sip.so.1:dns_ai_elapsed
libbelle-sip.so.1:dns_ai_events
libbelle-sip.so.1:dns_ai_nextent
libbelle-sip.so.1:dns_ai_open
libbelle-sip.so.1:dns_ai_poll
libbelle-sip.so.1:dns_ai_pollfd
libbelle-sip.so.1:dns_ai_print
libbelle-sip.so.1:dns_ai_stat
libbelle-sip.so.1:dns_ai_timeout
libbelle-sip.so.1:dns_any_cmp
libbelle-sip.so.1:dns_any_cname
libbelle-sip.so.1:dns_any_init
libbelle-sip.so.1:dns_any_parse
libbelle-sip.so.1:dns_any_print
libbelle-sip.so.1:dns_any_push
libbelle-sip.so.1:dns_cache_close
libbelle-sip.so.1:dns_cache_init
libbelle-sip.so.1:dns_cname_cmp
libbelle-sip.so.1:dns_cname_cname
libbelle-sip.so.1:dns_cname_parse
libbelle-sip.so.1:dns_cname_print
libbelle-sip.so.1:dns_cname_push
libbelle-sip.so.1:dns_d_anchor
libbelle-sip.so.1:dns_d_cleave
libbelle-sip.so.1:dns_d_cname
libbelle-sip.so.1:dns_d_comp
libbelle-sip.so.1:dns_d_expand
libbelle-sip.so.1:dns_d_init
libbelle-sip.so.1:dns_d_push
libbelle-sip.so.1:dns_d_skip
libbelle-sip.so.1:dns_debug_p
libbelle-sip.so.1:dns_hints_acquire
libbelle-sip.so.1:dns_hints_close
libbelle-sip.so.1:dns_hints_dump
libbelle-sip.so.1:dns_hints_grep
libbelle-sip.so.1:dns_hints_insert
libbelle-sip.so.1:dns_hints_insert_resconf
libbelle-sip.so.1:dns_hints_local
libbelle-sip.so.1:dns_hints_mortal
libbelle-sip.so.1:dns_hints_open
libbelle-sip.so.1:dns_hints_query
libbelle-sip.so.1:dns_hints_release
libbelle-sip.so.1:dns_hints_root
libbelle-sip.so.1:dns_hosts_acquire
libbelle-sip.so.1:dns_hosts_close
libbelle-sip.so.1:dns_hosts_dump
libbelle-sip.so.1:dns_hosts_insert
libbelle-sip.so.1:dns_hosts_loadfile
libbelle-sip.so.1:dns_hosts_loadpath
libbelle-sip.so.1:dns_hosts_local
libbelle-sip.so.1:dns_hosts_mortal
libbelle-sip.so.1:dns_hosts_open
libbelle-sip.so.1:dns_hosts_query
libbelle-sip.so.1:dns_hosts_release
libbelle-sip.so.1:dns_iclass
libbelle-sip.so.1:dns_iopcode
libbelle-sip.so.1:dns_ircode
libbelle-sip.so.1:dns_isection
libbelle-sip.so.1:dns_itype
libbelle-sip.so.1:dns_mx_cmp
libbelle-sip.so.1:dns_mx_cname
libbelle-sip.so.1:dns_mx_parse
libbelle-sip.so.1:dns_mx_print
libbelle-sip.so.1:dns_mx_push
libbelle-sip.so.1:dns_ns_cmp
libbelle-sip.so.1:dns_ns_cname
libbelle-sip.so.1:dns_ns_parse
libbelle-sip.so.1:dns_ns_print
libbelle-sip.so.1:dns_ns_push
libbelle-sip.so.1:dns_nssconf_dump
libbelle-sip.so.1:dns_nssconf_loadfile
libbelle-sip.so.1:dns_nssconf_loadpath
libbelle-sip.so.1:dns_opt_class
libbelle-sip.so.1:dns_opt_cmp
libbelle-sip.so.1:dns_opt_init
libbelle-sip.so.1:dns_opt_parse
libbelle-sip.so.1:dns_opt_print
libbelle-sip.so.1:dns_opt_push
libbelle-sip.so.1:dns_opt_ttl
libbelle-sip.so.1:dns_p_copy
libbelle-sip.so.1:dns_p_count
libbelle-sip.so.1:dns_p_dictadd
libbelle-sip.so.1:dns_p_dump
libbelle-sip.so.1:dns_p_grow
libbelle-sip.so.1:dns_p_init
libbelle-sip.so.1:dns_p_make
libbelle-sip.so.1:dns_p_merge
libbelle-sip.so.1:dns_p_push
libbelle-sip.so.1:dns_p_rcode
libbelle-sip.so.1:dns_p_study
libbelle-sip.so.1:dns_ptr_cmp
libbelle-sip.so.1:dns_ptr_cname
libbelle-sip.so.1:dns_ptr_parse
libbelle-sip.so.1:dns_ptr_print
libbelle-sip.so.1:dns_ptr_push
libbelle-sip.so.1:dns_ptr_qname
libbelle-sip.so.1:dns_random_p
libbelle-sip.so.1:dns_res_acquire
libbelle-sip.so.1:dns_res_check
libbelle-sip.so.1:dns_res_clear
libbelle-sip.so.1:dns_res_close
libbelle-sip.so.1:dns_res_elapsed
libbelle-sip.so.1:dns_res_enable_search
libbelle-sip.so.1:dns_res_events
libbelle-sip.so.1:dns_res_fetch
libbelle-sip.so.1:dns_res_mortal
libbelle-sip.so.1:dns_res_open
libbelle-sip.so.1:dns_res_poll
libbelle-sip.so.1:dns_res_pollfd
libbelle-sip.so.1:dns_res_query
libbelle-sip.so.1:dns_res_release
libbelle-sip.so.1:dns_res_reset
libbelle-sip.so.1:dns_res_sethints
libbelle-sip.so.1:dns_res_stat
libbelle-sip.so.1:dns_res_stub
libbelle-sip.so.1:dns_res_submit
libbelle-sip.so.1:dns_res_submit2
libbelle-sip.so.1:dns_res_timeout
libbelle-sip.so.1:dns_res_was_asymetric
libbelle-sip.so.1:dns_resconf_acquire
libbelle-sip.so.1:dns_resconf_close
libbelle-sip.so.1:dns_resconf_dump
libbelle-sip.so.1:dns_resconf_loadfile
libbelle-sip.so.1:dns_resconf_loadpath
libbelle-sip.so.1:dns_resconf_local
libbelle-sip.so.1:dns_resconf_mortal
libbelle-sip.so.1:dns_resconf_open
libbelle-sip.so.1:dns_resconf_pton
libbelle-sip.so.1:dns_resconf_release
libbelle-sip.so.1:dns_resconf_root
libbelle-sip.so.1:dns_resconf_search
libbelle-sip.so.1:dns_resconf_setiface
libbelle-sip.so.1:dns_rr_cmp
libbelle-sip.so.1:dns_rr_copy
libbelle-sip.so.1:dns_rr_grep
libbelle-sip.so.1:dns_rr_i_init
libbelle-sip.so.1:dns_rr_i_order
libbelle-sip.so.1:dns_rr_i_packet
libbelle-sip.so.1:dns_rr_i_shuffle
libbelle-sip.so.1:dns_rr_parse
libbelle-sip.so.1:dns_rr_print
libbelle-sip.so.1:dns_rr_skip
libbelle-sip.so.1:dns_so_check
libbelle-sip.so.1:dns_so_clear
libbelle-sip.so.1:dns_so_close
libbelle-sip.so.1:dns_so_elapsed
libbelle-sip.so.1:dns_so_events
libbelle-sip.so.1:dns_so_fetch
libbelle-sip.so.1:dns_so_mkqid
libbelle-sip.so.1:dns_so_open
libbelle-sip.so.1:dns_so_poll
libbelle-sip.so.1:dns_so_pollfd
libbelle-sip.so.1:dns_so_query
libbelle-sip.so.1:dns_so_reset
libbelle-sip.so.1:dns_so_stat
libbelle-sip.so.1:dns_so_submit
libbelle-sip.so.1:dns_soa_cmp
libbelle-sip.so.1:dns_soa_parse
libbelle-sip.so.1:dns_soa_print
libbelle-sip.so.1:dns_soa_push
libbelle-sip.so.1:dns_srv_cmp
libbelle-sip.so.1:dns_srv_cname
libbelle-sip.so.1:dns_srv_parse
libbelle-sip.so.1:dns_srv_print
libbelle-sip.so.1:dns_srv_push
libbelle-sip.so.1:dns_sshfp_cmp
libbelle-sip.so.1:dns_sshfp_parse
libbelle-sip.so.1:dns_sshfp_print
libbelle-sip.so.1:dns_sshfp_push
libbelle-sip.so.1:dns_strclass
libbelle-sip.so.1:dns_strerror
libbelle-sip.so.1:dns_strlcat
libbelle-sip.so.1:dns_strlcpy
libbelle-sip.so.1:dns_stropcode
libbelle-sip.so.1:dns_strrcode
libbelle-sip.so.1:dns_strsection
libbelle-sip.so.1:dns_strtype
libbelle-sip.so.1:dns_txt_cmp
libbelle-sip.so.1:dns_txt_init
libbelle-sip.so.1:dns_txt_parse
libbelle-sip.so.1:dns_txt_print
libbelle-sip.so.1:dns_txt_push
libbelle-sip.so.1:dns_v_abi
libbelle-sip.so.1:dns_v_api
libbelle-sip.so.1:dns_v_rel
libbelle-sip.so.1:dns_vendor
libbelle-sip.so.1:e2a
libbelle-sip.so.1:fillBufferExt
libbelle-sip.so.1:finalize_stream_connection
libbelle-sip.so.1:get_first_contact_in_unknown_state
libbelle-sip.so.1:get_or_create_container
libbelle-sip.so.1:isLegalUTF8Sequence
libbelle-sip.so.1:pbelle_sip_messageParser_accept_paramPop
libbelle-sip.so.1:pbelle_sip_messageParser_authority_hostportPop
libbelle-sip.so.1:pbelle_sip_messageParser_authority_userinfoPop
libbelle-sip.so.1:pbelle_sip_messageParser_common_requestPop
libbelle-sip.so.1:pbelle_sip_messageParser_contact_paramPop
libbelle-sip.so.1:pbelle_sip_messageParser_fast_hostPop
libbelle-sip.so.1:pbelle_sip_messageParser_fast_hostportPop
libbelle-sip.so.1:pbelle_sip_messageParser_fast_uriPop
libbelle-sip.so.1:pbelle_sip_messageParser_generic_paramPop
libbelle-sip.so.1:pbelle_sip_messageParser_generic_uriPop
libbelle-sip.so.1:pbelle_sip_messageParser_generic_uri_for_from_to_contact_addr_specPop
libbelle-sip.so.1:pbelle_sip_messageParser_header_acceptPop
libbelle-sip.so.1:pbelle_sip_messageParser_header_allowPop
libbelle-sip.so.1:pbelle_sip_messageParser_header_authentication_infoPop
libbelle-sip.so.1:pbelle_sip_messageParser_header_authorizationPop
libbelle-sip.so.1:pbelle_sip_messageParser_header_call_idPop
libbelle-sip.so.1:pbelle_sip_messageParser_header_contactPop
libbelle-sip.so.1:pbelle_sip_messageParser_header_content_dispositionPop
libbelle-sip.so.1:pbelle_sip_messageParser_header_content_lengthPop
libbelle-sip.so.1:pbelle_sip_messageParser_header_content_typePop
libbelle-sip.so.1:pbelle_sip_messageParser_header_cseqPop
libbelle-sip.so.1:pbelle_sip_messageParser_header_datePop
libbelle-sip.so.1:pbelle_sip_messageParser_header_diversionPop
libbelle-sip.so.1:pbelle_sip_messageParser_header_eventPop
libbelle-sip.so.1:pbelle_sip_messageParser_header_expiresPop
libbelle-sip.so.1:pbelle_sip_messageParser_header_extension_basePop
libbelle-sip.so.1:pbelle_sip_messageParser_header_fromPop
libbelle-sip.so.1:pbelle_sip_messageParser_header_max_forwardsPop
libbelle-sip.so.1:pbelle_sip_messageParser_header_privacyPop
libbelle-sip.so.1:pbelle_sip_messageParser_header_proxy_authenticatePop
libbelle-sip.so.1:pbelle_sip_messageParser_header_proxy_authorizationPop
libbelle-sip.so.1:pbelle_sip_messageParser_header_reasonPop
libbelle-sip.so.1:pbelle_sip_messageParser_header_reason_paramPop
libbelle-sip.so.1:pbelle_sip_messageParser_header_record_routePop
libbelle-sip.so.1:pbelle_sip_messageParser_header_replacesPop
libbelle-sip.so.1:pbelle_sip_messageParser_header_requirePop
libbelle-sip.so.1:pbelle_sip_messageParser_header_retry_afterPop
libbelle-sip.so.1:pbelle_sip_messageParser_header_routePop
libbelle-sip.so.1:pbelle_sip_messageParser_header_service_routePop
libbelle-sip.so.1:pbelle_sip_messageParser_header_session_expiresPop
libbelle-sip.so.1:pbelle_sip_messageParser_header_subscription_statePop
libbelle-sip.so.1:pbelle_sip_messageParser_header_supportedPop
libbelle-sip.so.1:pbelle_sip_messageParser_header_toPop
libbelle-sip.so.1:pbelle_sip_messageParser_header_user_agentPop
libbelle-sip.so.1:pbelle_sip_messageParser_header_viaPop
libbelle-sip.so.1:pbelle_sip_messageParser_header_www_authenticatePop
libbelle-sip.so.1:pbelle_sip_messageParser_headersPop
libbelle-sip.so.1:pbelle_sip_messageParser_hostPop
libbelle-sip.so.1:pbelle_sip_messageParser_hostportPop
libbelle-sip.so.1:pbelle_sip_messageParser_http_request_linePop
libbelle-sip.so.1:pbelle_sip_messageParser_messagePop
libbelle-sip.so.1:pbelle_sip_messageParser_message_rawPop
libbelle-sip.so.1:pbelle_sip_messageParser_paramless_uriPop
libbelle-sip.so.1:pbelle_sip_messageParser_qop_optsPop
libbelle-sip.so.1:pbelle_sip_messageParser_rec_routePop
libbelle-sip.so.1:pbelle_sip_messageParser_request_linePop
libbelle-sip.so.1:pbelle_sip_messageParser_route_paramPop
libbelle-sip.so.1:pbelle_sip_messageParser_srv_routePop
libbelle-sip.so.1:pbelle_sip_messageParser_status_linePop
libbelle-sip.so.1:pbelle_sip_messageParser_uriPop
libbelle-sip.so.1:pbelle_sip_messageParser_uri_headerPop
libbelle-sip.so.1:pbelle_sip_messageParser_uri_parametersPop
libbelle-sip.so.1:pbelle_sip_messageParser_userinfoPop
libbelle-sip.so.1:pbelle_sip_messageParser_via_parmPop
libbelle-sip.so.1:stream_channel_close
libbelle-sip.so.1:stream_channel_connect
libbelle-sip.so.1:stream_channel_recv
libbelle-sip.so.1:stream_channel_send
libbelle-sip.so.1:udp_channel_connect
libbelle-sip.so.1:udp_listening_point_create_udp_socket
libbelr.so.1:_ZN4belr10ABNFNumval11parseValuesERKNSt7__cxx1112basic_stringIcSt11char_traitsIcESaIcEEEi
libbelr.so.1:_ZN4belr10ABNFNumval15buildRecognizerERKSt10shared_ptrINS_7GrammarEE
libbelr.so.1:_ZN4belr10ABNFNumval6createEv
libbelr.so.1:_ZN4belr10ABNFNumval9setBinValERKNSt7__cxx1112basic_stringIcSt11char_traitsIcESaIcEEE
libbelr.so.1:_ZN4belr10ABNFNumval9setDecValERKNSt7__cxx1112basic_stringIcSt11char_traitsIcESaIcEEE
libbelr.so.1:_ZN4belr10ABNFNumval9setHexValERKNSt7__cxx1112basic_stringIcSt11char_traitsIcESaIcEEE
libbelr.so.1:_ZN4belr10ABNFOption14setAlternationERKSt10shared_ptrINS_15ABNFAlternationEE
libbelr.so.1:_ZN4belr10ABNFOption15buildRecognizerERKSt10shared_ptrINS_7GrammarEE
libbelr.so.1:_ZN4belr10ABNFOption6createEv
libbelr.so.1:_ZN4belr10Foundation14charRecognizerEib
libbelr.so.1:_ZN4belr10Foundation4loopEv
libbelr.so.1:_ZN4belr10Foundation8selectorEb
libbelr.so.1:_ZN4belr10Foundation8sequenceEv
libbelr.so.1:_ZN4belr10Recognizer16getTransitionMapEPNS_13TransitionMapE
libbelr.so.1:_ZN4belr10Recognizer17_getTransitionMapEPNS_13TransitionMapE
libbelr.so.1:_ZN4belr10Recognizer4feedERNS_17ParserContextBaseERKNSt7__cxx1112basic_stringIcSt11char_traitsIcESaIcEEEm
libbelr.so.1:_ZN4belr10Recognizer5buildERNS_20BinaryGrammarBuilderE
libbelr.so.1:_ZN4belr10Recognizer7setNameERKNSt7__cxx1112basic_stringIcSt11char_traitsIcESaIcEEE
libbelr.so.1:_ZN4belr10Recognizer8optimizeEi
libbelr.so.1:_ZN4belr10Recognizer8optimizeEv
libbelr.so.1:_ZN4belr10Recognizer9serializeERNS_18BinaryOutputStreamEb
libbelr.so.1:_ZN4belr10RecognizerC1ERNS_20BinaryGrammarBuilderE
libbelr.so.1:_ZN4belr10RecognizerC2ERNS_20BinaryGrammarBuilderE
libbelr.so.1:_ZN4belr11ABNFElement10setCharValERKNSt7__cxx1112basic_stringIcSt11char_traitsIcESaIcEEE
libbelr.so.1:_ZN4belr11ABNFElement10setElementERKSt10shared_ptrINS_11ABNFBuilderEE
libbelr.so.1:_ZN4belr11ABNFElement11setProseValERKNSt7__cxx1112basic_stringIcSt11char_traitsIcESaIcEEE
libbelr.so.1:_ZN4belr11ABNFElement11setRulenameERKNSt7__cxx1112basic_stringIcSt11char_traitsIcESaIcEEE
libbelr.so.1:_ZN4belr11ABNFElement15buildRecognizerERKSt10shared_ptrINS_7GrammarEE
libbelr.so.1:_ZN4belr11ABNFElement6createEv
libbelr.so.1:_ZN4belr11ABNFGrammar10crlf_or_lfEv
libbelr.so.1:_ZN4belr11ABNFGrammar10defined_asEv
libbelr.so.1:_ZN4belr11ABNFGrammar10repeat_maxEv
libbelr.so.1:_ZN4belr11ABNFGrammar10repeat_minEv
libbelr.so.1:_ZN4belr11ABNFGrammar10repetitionEv
libbelr.so.1:_ZN4belr11ABNFGrammar11alternationEv
libbelr.so.1:_ZN4belr11ABNFGrammar12repeat_countEv
libbelr.so.1:_ZN4belr11ABNFGrammar13concatenationEv
libbelr.so.1:_ZN4belr11ABNFGrammar4c_nlEv
libbelr.so.1:_ZN4belr11ABNFGrammar4ruleEv
libbelr.so.1:_ZN4belr11ABNFGrammar5c_wspEv
libbelr.so.1:_ZN4belr11ABNFGrammar5groupEv
libbelr.so.1:_ZN4belr11ABNFGrammar6optionEv
libbelr.so.1:_ZN4belr11ABNFGrammar6repeatEv
libbelr.so.1:_ZN4belr11ABNFGrammar7bin_valEv
libbelr.so.1:_ZN4belr11ABNFGrammar7commentEv
libbelr.so.1:_ZN4belr11ABNFGrammar7dec_valEv
libbelr.so.1:_ZN4belr11ABNFGrammar7elementEv
libbelr.so.1:_ZN4belr11ABNFGrammar7hex_valEv
libbelr.so.1:_ZN4belr11ABNFGrammar7num_valEv
libbelr.so.1:_ZN4belr11ABNFGrammar8char_valEv
libbelr.so.1:_ZN4belr11ABNFGrammar8elementsEv
libbelr.so.1:_ZN4belr11ABNFGrammar8rulelistEv
libbelr.so.1:_ZN4belr11ABNFGrammar8rulenameEv
libbelr.so.1:_ZN4belr11ABNFGrammar9prose_valEv
libbelr.so.1:_ZN4belr11ABNFGrammarC1Ev
libbelr.so.1:_ZN4belr11ABNFGrammarC2Ev
libbelr.so.1:_ZN4belr11DebugParser10parseInputERKNSt7__cxx1112basic_stringIcSt11char_traitsIcESaIcEEES8_Pm
libbelr.so.1:_ZN4belr11DebugParser16setObservedRulesERKNSt7__cxx114listINS1_12basic_stringIcSt11char_traitsIcESaIcEEESaIS7_EEE
libbelr.so.1:_ZN4belr11DebugParserC1ERKSt10shared_ptrINS_7GrammarEE
libbelr.so.1:_ZN4belr11DebugParserC2ERKSt10shared_ptrINS_7GrammarEE
libbelr.so.1:_ZN4belr12ABNFRuleList15buildRecognizerERKSt10shared_ptrINS_7GrammarEE
libbelr.so.1:_ZN4belr12ABNFRuleList6createEv
libbelr.so.1:_ZN4belr12ABNFRuleList7addRuleERKSt10shared_ptrINS_8ABNFRuleEE
libbelr.so.1:_ZN4belr12DebugElement6createERKNSt7__cxx1112basic_stringIcSt11char_traitsIcESaIcEEES8_
libbelr.so.1:_ZN4belr12DebugElement8addChildERKSt10shared_ptrIS0_E
libbelr.so.1:_ZN4belr12DebugElementC1ERKNSt7__cxx1112basic_stringIcSt11char_traitsIcESaIcEEES8_
libbelr.so.1:_ZN4belr12DebugElementC2ERKNSt7__cxx1112basic_stringIcSt11char_traitsIcESaIcEEES8_
libbelr.so.1:_ZN4belr13GrammarLoader14isAbsolutePathERKNSt7__cxx1112basic_stringIcSt11char_traitsIcESaIcEEE
libbelr.so.1:_ZN4belr13GrammarLoader3getEv
libbelr.so.1:_ZN4belr13GrammarLoader4loadERKNSt7__cxx1112basic_stringIcSt11char_traitsIcESaIcEEE
libbelr.so.1:_ZN4belr13GrammarLoader5clearEv
libbelr.so.1:_ZN4belr13GrammarLoader6lookupERKNSt7__cxx1112basic_stringIcSt11char_traitsIcESaIcEEERKNS1_4listIS6_SaIS6_EEE
libbelr.so.1:_ZN4belr13GrammarLoader7addPathERKNSt7__cxx1112basic_stringIcSt11char_traitsIcESaIcEEE
libbelr.so.1:_ZN4belr13GrammarLoader9sInstanceE
libbelr.so.1:_ZN4belr13GrammarLoaderC1Ev
libbelr.so.1:_ZN4belr13GrammarLoaderC2Ev
libbelr.so.1:_ZN4belr13TransitionMap5mergeEPKS0_
libbelr.so.1:_ZN4belr13TransitionMap9intersectEPKS0_
libbelr.so.1:_ZN4belr13TransitionMap9intersectEPKS0_PS0_
libbelr.so.1:_ZN4belr13TransitionMapC1Ev
libbelr.so.1:_ZN4belr13TransitionMapC2Ev
libbelr.so.1:_ZN4belr14ABNFRepetition10setElementERKSt10shared_ptrINS_11ABNFElementEE
libbelr.so.1:_ZN4belr14ABNFRepetition15buildRecognizerERKSt10shared_ptrINS_7GrammarEE
libbelr.so.1:_ZN4belr14ABNFRepetition6createEv
libbelr.so.1:_ZN4belr14ABNFRepetition6setMaxEi
libbelr.so.1:_ZN4belr14ABNFRepetition6setMinEi
libbelr.so.1:_ZN4belr14ABNFRepetition8setCountEi
libbelr.so.1:_ZN4belr14ABNFRepetition9setRepeatERKNSt7__cxx1112basic_stringIcSt11char_traitsIcESaIcEEE
libbelr.so.1:_ZN4belr14CharRecognizer10_serializeERNS_18BinaryOutputStreamE
libbelr.so.1:_ZN4belr14CharRecognizer5_feedERNS_17ParserContextBaseERKNSt7__cxx1112basic_stringIcSt11char_traitsIcESaIcEEEm
libbelr.so.1:_ZN4belr14CharRecognizer9_optimizeEi
libbelr.so.1:_ZN4belr14CharRecognizerC1ERNS_20BinaryGrammarBuilderE
libbelr.so.1:_ZN4belr14CharRecognizerC1Eib
libbelr.so.1:_ZN4belr14CharRecognizerC2ERNS_20BinaryGrammarBuilderE
libbelr.so.1:_ZN4belr14CharRecognizerC2Eib
libbelr.so.1:_ZN4belr15ABNFAlternation15buildRecognizerERKSt10shared_ptrINS_7GrammarEE
libbelr.so.1:_ZN4belr15ABNFAlternation16addConcatenationERKSt10shared_ptrINS_17ABNFConcatenationEE
libbelr.so.1:_ZN4belr15ABNFAlternation22buildRecognizerNoOptimERKSt10shared_ptrINS_7GrammarEE
libbelr.so.1:_ZN4belr15ABNFAlternation6createEv
libbelr.so.1:_ZN4belr15RecognizerAlias10_serializeERNS_18BinaryOutputStreamE
libbelr.so.1:_ZN4belr15RecognizerAlias10getPointedEv
libbelr.so.1:_ZN4belr15RecognizerAlias10setPointedERKSt10shared_ptrINS_10RecognizerEE
libbelr.so.1:_ZN4belr15RecognizerAlias5_feedERNS_17ParserContextBaseERKNSt7__cxx1112basic_stringIcSt11char_traitsIcESaIcEEEm
libbelr.so.1:_ZN4belr15RecognizerAlias9_optimizeEi
libbelr.so.1:_ZN4belr15RecognizerAliasC1ERNS_20BinaryGrammarBuilderE
libbelr.so.1:_ZN4belr15RecognizerAliasC2ERNS_20BinaryGrammarBuilderE
libbelr.so.1:_ZN4belr17ABNFConcatenation13addRepetitionERKSt10shared_ptrINS_14ABNFRepetitionEE
libbelr.so.1:_ZN4belr17ABNFConcatenation15buildRecognizerERKSt10shared_ptrINS_7GrammarEE
libbelr.so.1:_ZN4belr17ABNFConcatenation6createEv
libbelr.so.1:_ZN4belr17BinaryInputStream10readStringB5cxx11Ev
libbelr.so.1:_ZN4belr17BinaryInputStream7readIntEv
libbelr.so.1:_ZN4belr17BinaryInputStream9readUCharEv
libbelr.so.1:_ZN4belr17ExclusiveSelector5_feedERNS_17ParserContextBaseERKNSt7__cxx1112basic_stringIcSt11char_traitsIcESaIcEEEm
libbelr.so.1:_ZN4belr17ExclusiveSelectorC1ERNS_20BinaryGrammarBuilderE
libbelr.so.1:_ZN4belr17ExclusiveSelectorC1Ev
libbelr.so.1:_ZN4belr17ExclusiveSelectorC2ERNS_20BinaryGrammarBuilderE
libbelr.so.1:_ZN4belr17ExclusiveSelectorC2Ev
libbelr.so.1:_ZN4belr17RecognizerPointer10_serializeERNS_18BinaryOutputStreamE
libbelr.so.1:_ZN4belr17RecognizerPointer10getPointedEv
libbelr.so.1:_ZN4belr17RecognizerPointer10setPointedERKSt10shared_ptrINS_10RecognizerEE
libbelr.so.1:_ZN4belr17RecognizerPointer5_feedERNS_17ParserContextBaseERKNSt7__cxx1112basic_stringIcSt11char_traitsIcESaIcEEEm
libbelr.so.1:_ZN4belr17RecognizerPointer9_optimizeEi
libbelr.so.1:_ZN4belr18ABNFGrammarBuilder14createFromAbnfERKNSt7__cxx1112basic_stringIcSt11char_traitsIcESaIcEEERKSt10shared_ptrINS_7GrammarEE
libbelr.so.1:_ZN4belr18ABNFGrammarBuilder18createFromAbnfFileERKNSt7__cxx1112basic_stringIcSt11char_traitsIcESaIcEEERKSt10shared_ptrINS_7GrammarEE
libbelr.so.1:_ZN4belr18ABNFGrammarBuilderC1Ev
libbelr.so.1:_ZN4belr18ABNFGrammarBuilderC2Ev
libbelr.so.1:_ZN4belr18BinaryOutputStream10writeUCharEh
libbelr.so.1:_ZN4belr18BinaryOutputStream11writeStringERKNSt7__cxx1112basic_stringIcSt11char_traitsIcESaIcEEE
libbelr.so.1:_ZN4belr18BinaryOutputStream8writeIntEi
libbelr.so.1:_ZN4belr20BinaryGrammarBuilder7getRuleERKNSt7__cxx1112basic_stringIcSt11char_traitsIcESaIcEEE
libbelr.so.1:_ZN4belr20BinaryGrammarBuilderC1ERNS_7GrammarE
libbelr.so.1:_ZN4belr20BinaryGrammarBuilderC2ERNS_7GrammarE
libbelr.so.1:_ZN4belr4Loop10_serializeERNS_18BinaryOutputStreamE
libbelr.so.1:_ZN4belr4Loop13setRecognizerERKSt10shared_ptrINS_10RecognizerEEii
libbelr.so.1:_ZN4belr4Loop17_getTransitionMapEPNS_13TransitionMapE
libbelr.so.1:_ZN4belr4Loop5_feedERNS_17ParserContextBaseERKNSt7__cxx1112basic_stringIcSt11char_traitsIcESaIcEEEm
libbelr.so.1:_ZN4belr4Loop9_optimizeEi
libbelr.so.1:_ZN4belr4LoopC1ERNS_20BinaryGrammarBuilderE
libbelr.so.1:_ZN4belr4LoopC2ERNS_20BinaryGrammarBuilderE
libbelr.so.1:_ZN4belr5Utils10char_rangeEii
libbelr.so.1:_ZN4belr5Utils7literalERKNSt7__cxx1112basic_stringIcSt11char_traitsIcESaIcEEE
libbelr.so.1:_ZN4belr5fatalEPKc
libbelr.so.1:_ZN4belr7Grammar10extendRuleERKNSt7__cxx1112basic_stringIcSt11char_traitsIcESaIcEEERKSt10shared_ptrINS_10RecognizerEE
libbelr.so.1:_ZN4belr7Grammar4loadERKNSt7__cxx1112basic_stringIcSt11char_traitsIcESaIcEEE
libbelr.so.1:_ZN4belr7Grammar4saveERKNSt7__cxx1112basic_stringIcSt11char_traitsIcESaIcEEE
libbelr.so.1:_ZN4belr7Grammar7addRuleERKNSt7__cxx1112basic_stringIcSt11char_traitsIcESaIcEEERKSt10shared_ptrINS_10RecognizerEE
libbelr.so.1:_ZN4belr7Grammar7getRuleERKNSt7__cxx1112basic_stringIcSt11char_traitsIcESaIcEEE
libbelr.so.1:_ZN4belr7Grammar7includeERKSt10shared_ptrIS0_E
libbelr.so.1:_ZN4belr7Grammar8findRuleERKNSt7__cxx1112basic_stringIcSt11char_traitsIcESaIcEEE
libbelr.so.1:_ZN4belr7Grammar8optimizeEv
libbelr.so.1:_ZN4belr7GrammarC1ERKNSt7__cxx1112basic_stringIcSt11char_traitsIcESaIcEEE
libbelr.so.1:_ZN4belr7GrammarC2ERKNSt7__cxx1112basic_stringIcSt11char_traitsIcESaIcEEE
libbelr.so.1:_ZN4belr7GrammarD1Ev
libbelr.so.1:_ZN4belr7GrammarD2Ev
libbelr.so.1:_ZN4belr7Literal10_serializeERNS_18BinaryOutputStreamE
libbelr.so.1:_ZN4belr7Literal17_getTransitionMapEPNS_13TransitionMapE
libbelr.so.1:_ZN4belr7Literal5_feedERNS_17ParserContextBaseERKNSt7__cxx1112basic_stringIcSt11char_traitsIcESaIcEEEm
libbelr.so.1:_ZN4belr7Literal9_optimizeEi
libbelr.so.1:_ZN4belr7LiteralC1ERKNSt7__cxx1112basic_stringIcSt11char_traitsIcESaIcEEE
libbelr.so.1:_ZN4belr7LiteralC1ERNS_20BinaryGrammarBuilderE
libbelr.so.1:_ZN4belr7LiteralC2ERKNSt7__cxx1112basic_stringIcSt11char_traitsIcESaIcEEE
libbelr.so.1:_ZN4belr7LiteralC2ERNS_20BinaryGrammarBuilderE
libbelr.so.1:_ZN4belr7tolowerERKNSt7__cxx1112basic_stringIcSt11char_traitsIcESaIcEEE
libbelr.so.1:_ZN4belr8ABNFRule12setDefinedAsERKNSt7__cxx1112basic_stringIcSt11char_traitsIcESaIcEEE
libbelr.so.1:_ZN4belr8ABNFRule14setAlternationERKSt10shared_ptrINS_15ABNFAlternationEE
libbelr.so.1:_ZN4belr8ABNFRule15buildRecognizerERKSt10shared_ptrINS_7GrammarEE
libbelr.so.1:_ZN4belr8ABNFRule6createEv
libbelr.so.1:_ZN4belr8ABNFRule7setNameERKNSt7__cxx1112basic_stringIcSt11char_traitsIcESaIcEEE
libbelr.so.1:_ZN4belr8Selector10_serializeERNS_18BinaryOutputStreamE
libbelr.so.1:_ZN4belr8Selector13addRecognizerERKSt10shared_ptrINS_10RecognizerEE
libbelr.so.1:_ZN4belr8Selector14_feedExclusiveERNS_17ParserContextBaseERKNSt7__cxx1112basic_stringIcSt11char_traitsIcESaIcEEEm
libbelr.so.1:_ZN4belr8Selector17_getTransitionMapEPNS_13TransitionMapE
libbelr.so.1:_ZN4belr8Selector5_feedERNS_17ParserContextBaseERKNSt7__cxx1112basic_stringIcSt11char_traitsIcESaIcEEEm
libbelr.so.1:_ZN4belr8Selector9_optimizeEi
libbelr.so.1:_ZN4belr8SelectorC1ERNS_20BinaryGrammarBuilderE
libbelr.so.1:_ZN4belr8SelectorC1Eb
libbelr.so.1:_ZN4belr8SelectorC2ERNS_20BinaryGrammarBuilderE
libbelr.so.1:_ZN4belr8SelectorC2Eb
libbelr.so.1:_ZN4belr8Sequence10_serializeERNS_18BinaryOutputStreamE
libbelr.so.1:_ZN4belr8Sequence13addRecognizerERKSt10shared_ptrINS_10RecognizerEE
libbelr.so.1:_ZN4belr8Sequence17_getTransitionMapEPNS_13TransitionMapE
libbelr.so.1:_ZN4belr8Sequence5_feedERNS_17ParserContextBaseERKNSt7__cxx1112basic_stringIcSt11char_traitsIcESaIcEEEm
libbelr.so.1:_ZN4belr8Sequence9_optimizeEi
libbelr.so.1:_ZN4belr8SequenceC1ERNS_20BinaryGrammarBuilderE
libbelr.so.1:_ZN4belr8SequenceC2ERNS_20BinaryGrammarBuilderE
libbelr.so.1:_ZN4belr9ABNFGroup14setAlternationERKSt10shared_ptrINS_15ABNFAlternationEE
libbelr.so.1:_ZN4belr9ABNFGroup15buildRecognizerERKSt10shared_ptrINS_7GrammarEE
libbelr.so.1:_ZN4belr9ABNFGroup6createEv
libbelr.so.1:_ZN4belr9CharRange10_serializeERNS_18BinaryOutputStreamE
libbelr.so.1:_ZN4belr9CharRange5_feedERNS_17ParserContextBaseERKNSt7__cxx1112basic_stringIcSt11char_traitsIcESaIcEEEm
libbelr.so.1:_ZN4belr9CharRange9_optimizeEi
libbelr.so.1:_ZN4belr9CharRangeC1ERNS_20BinaryGrammarBuilderE
libbelr.so.1:_ZN4belr9CharRangeC1Eii
libbelr.so.1:_ZN4belr9CharRangeC2ERNS_20BinaryGrammarBuilderE
libbelr.so.1:_ZN4belr9CharRangeC2Eii
libbelr.so.1:_ZN4belr9CoreRules2crEv
libbelr.so.1:_ZN4belr9CoreRules2lfEv
libbelr.so.1:_ZN4belr9CoreRules2spEv
libbelr.so.1:_ZN4belr9CoreRules3bitEv
libbelr.so.1:_ZN4belr9CoreRules3ctlEv
libbelr.so.1:_ZN4belr9CoreRules3wspEv
libbelr.so.1:_ZN4belr9CoreRules4crlfEv
libbelr.so.1:_ZN4belr9CoreRules4htabEv
libbelr.so.1:_ZN4belr9CoreRules4lwspEv
libbelr.so.1:_ZN4belr9CoreRules5alphaEv
libbelr.so.1:_ZN4belr9CoreRules5char_Ev
libbelr.so.1:_ZN4belr9CoreRules5digitEv
libbelr.so.1:_ZN4belr9CoreRules5octetEv
libbelr.so.1:_ZN4belr9CoreRules5vcharEv
libbelr.so.1:_ZN4belr9CoreRules6dquoteEv
libbelr.so.1:_ZN4belr9CoreRules6hexdigEv
libbelr.so.1:_ZN4belr9CoreRulesC1Ev
libbelr.so.1:_ZN4belr9CoreRulesC2Ev
libbelr.so.1:_ZNK4belr10ABNFNumval8describeERSo
libbelr.so.1:_ZNK4belr10ABNFOption8describeERSo
libbelr.so.1:_ZNK4belr10Recognizer7getNameB5cxx11Ev
libbelr.so.1:_ZNK4belr11ABNFElement8describeERSo
libbelr.so.1:_ZNK4belr11ABNFElement9isDefinedEv
libbelr.so.1:_ZNK4belr12ABNFRuleList8describeERSo
libbelr.so.1:_ZNK4belr12DebugElement12findChildrenERKNSt7__cxx1112basic_stringIcSt11char_traitsIcESaIcEEERNS1_4listISt10shared_ptrIS0_ESaISB_EEE
libbelr.so.1:_ZNK4belr12DebugElement8getValueB5cxx11Ev
libbelr.so.1:_ZNK4belr12DebugElement8tostreamEiRSo
libbelr.so.1:_ZNK4belr14ABNFRepetition8describeERSo
libbelr.so.1:_ZNK4belr15ABNFAlternation8describeERSo
libbelr.so.1:_ZNK4belr17ABNFConcatenation8describeERSo
libbelr.so.1:_ZNK4belr7Grammar10isCompleteEv
libbelr.so.1:_ZNK4belr7Grammar11getNumRulesEv
libbelr.so.1:_ZNK4belr8ABNFRule11isExtensionEv
libbelr.so.1:_ZNK4belr8ABNFRule8describeERSo
libbelr.so.1:_ZNK4belr9ABNFGroup8describeERSo
libbv16.so:Autocor
libbv16.so:BV16_BitPack
libbv16.so:BV16_BitUnPack
libbv16.so:BV16_Decode
libbv16.so:BV16_Encode
libbv16.so:BV16_PLC
libbv16.so:F2s
libbv16.so:Fcopy
libbv16.so:Fzero
libbv16.so:MPTH
libbv16.so:Reset_BV16_Decoder
libbv16.so:Reset_BV16_Encoder
libbv16.so:STWAL
libbv16.so:a2lsp
libbv16.so:adf
libbv16.so:apfilter
libbv16.so:azfilter
libbv16.so:bdf
libbv16.so:bv16_Levinson
libbv16.so:bwel
libbv16.so:cccb
libbv16.so:coarsepitch
libbv16.so:estlevel
libbv16.so:excdec_w_LT_synth
libbv16.so:excquan
libbv16.so:gaindec
libbv16.so:gaindec_fe
libbv16.so:gainplc
libbv16.so:gainquan
libbv16.so:gfsp
libbv16.so:gfsz
libbv16.so:grid
libbv16.so:hpfa
libbv16.so:hpfb
libbv16.so:idxord
libbv16.so:lgclimit
libbv16.so:lgmean
libbv16.so:lgp
libbv16.so:lgpecb
libbv16.so:lgpecb_nh
libbv16.so:lsp2a
libbv16.so:lspdec
libbv16.so:lspecb1
libbv16.so:lspecb2
libbv16.so:lspmean
libbv16.so:lspp
libbv16.so:lspplc
libbv16.so:lspquan
libbv16.so:pitchtapquan
libbv16.so:postfilter
libbv16.so:pp3dec
libbv16.so:pp9cb
libbv16.so:refinepitch
libbv16.so:sstwin
libbv16.so:stblchck
libbv16.so:stblz_lsp
libbv16.so:svqwmse
libbv16.so:vqdec
libbv16.so:vqmse
libbv16.so:winl
libbv16.so:x
libbv16.so:x2
libbzrtp.so.0:CRC32LookupTable
libbzrtp.so.0:_Z34bzrtpUtils_getMandatoryCryptoTypeshPh
libbzrtp.so.0:bzrtpUtils_getAllAvailableCryptoTypes
libbzrtp.so.0:bzrtpUtils_getAvailableCryptoTypes
libbzrtp.so.0:bzrtp_CRC32
libbzrtp.so.0:bzrtp_DestroyKey
libbzrtp.so.0:bzrtp_KEM_decaps
libbzrtp.so.0:bzrtp_KEM_encaps
libbzrtp.so.0:bzrtp_KEM_generateKeyPair
libbzrtp.so.0:bzrtp_KEM_getPublicKey
libbzrtp.so.0:bzrtp_KEM_getSharedSecret
libbzrtp.so.0:bzrtp_SASVerified
libbzrtp.so.0:bzrtp_addChannel
libbzrtp.so.0:bzrtp_addMandatoryCryptoTypesIfNeeded
libbzrtp.so.0:bzrtp_algoToString
libbzrtp.so.0:bzrtp_available_key_agreement
libbzrtp.so.0:bzrtp_backToSecureMode
libbzrtp.so.0:bzrtp_base256
libbzrtp.so.0:bzrtp_base32
libbzrtp.so.0:bzrtp_cache_getPeerStatus_lock
libbzrtp.so.0:bzrtp_cache_getZuid
libbzrtp.so.0:bzrtp_cache_read
libbzrtp.so.0:bzrtp_cache_read_lock
libbzrtp.so.0:bzrtp_cache_write
libbzrtp.so.0:bzrtp_cache_write_active
libbzrtp.so.0:bzrtp_cache_write_lock
libbzrtp.so.0:bzrtp_computeCommitMessageVariableLength
libbzrtp.so.0:bzrtp_computeKeyAgreementPublicValueLength
libbzrtp.so.0:bzrtp_computeKeyAgreementSharedSecretLength
libbzrtp.so.0:bzrtp_confirmGoClear
libbzrtp.so.0:bzrtp_createBzrtpContext
libbzrtp.so.0:bzrtp_createKEMContext
libbzrtp.so.0:bzrtp_createZrtpPacket
libbzrtp.so.0:bzrtp_cryptoAlgoAgreement
libbzrtp.so.0:bzrtp_cryptoAlgoTypeIntToString
libbzrtp.so.0:bzrtp_cryptoAlgoTypeStringToInt
libbzrtp.so.0:bzrtp_destroyBzrtpContext
libbzrtp.so.0:bzrtp_destroyKEMContext
libbzrtp.so.0:bzrtp_destroyKeyMaterial
libbzrtp.so.0:bzrtp_exportKey
libbzrtp.so.0:bzrtp_freeZrtpPacket
libbzrtp.so.0:bzrtp_getAuxiliarySharedSecretMismatch
libbzrtp.so.0:bzrtp_getChannelStatus
libbzrtp.so.0:bzrtp_getPeerAssociatedSecrets
libbzrtp.so.0:bzrtp_getSelfHelloHash
libbzrtp.so.0:bzrtp_getSelfZID
libbzrtp.so.0:bzrtp_getSelfZID_lock
libbzrtp.so.0:bzrtp_getSupportedCryptoTypes
libbzrtp.so.0:bzrtp_get_MTU
libbzrtp.so.0:bzrtp_initBzrtpContext
libbzrtp.so.0:bzrtp_initCache
libbzrtp.so.0:bzrtp_initCache_lock
libbzrtp.so.0:bzrtp_isKem
libbzrtp.so.0:bzrtp_isPostQuantum
libbzrtp.so.0:bzrtp_is_PQ_available
libbzrtp.so.0:bzrtp_iterate
libbzrtp.so.0:bzrtp_keyDerivationFunction
libbzrtp.so.0:bzrtp_packetBuild
libbzrtp.so.0:bzrtp_packetCheck
libbzrtp.so.0:bzrtp_packetParser
libbzrtp.so.0:bzrtp_packetSetSequenceNumber
libbzrtp.so.0:bzrtp_processMessage
libbzrtp.so.0:bzrtp_resetRetransmissionTimer
libbzrtp.so.0:bzrtp_resetSASVerified
libbzrtp.so.0:bzrtp_selectCommonAlgo
libbzrtp.so.0:bzrtp_sendGoClear
libbzrtp.so.0:bzrtp_setAuxiliarySharedSecret
libbzrtp.so.0:bzrtp_setCallbacks
libbzrtp.so.0:bzrtp_setClientData
libbzrtp.so.0:bzrtp_setFlags
libbzrtp.so.0:bzrtp_setPeerHelloHash
libbzrtp.so.0:bzrtp_setSupportedCryptoTypes
libbzrtp.so.0:bzrtp_setZIDCache
libbzrtp.so.0:bzrtp_setZIDCache_lock
libbzrtp.so.0:bzrtp_set_MTU
libbzrtp.so.0:bzrtp_startChannelEngine
libbzrtp.so.0:bzrtp_updateCachedSecrets
libbzrtp.so.0:bzrtp_updateCryptoFunctionPointers
libbzrtp.so.0:pgpWordsEven
libbzrtp.so.0:pgpWordsOdd
libbzrtp.so.0:state_clear
libbzrtp.so.0:state_confirmation_initiatorSendingConfirm2
libbzrtp.so.0:state_confirmation_responderSendingConfirm1
libbzrtp.so.0:state_discovery_init
libbzrtp.so.0:state_discovery_waitingForHello
libbzrtp.so.0:state_discovery_waitingForHelloAck
libbzrtp.so.0:state_keyAgreement_initiatorSendingDHPart2
libbzrtp.so.0:state_keyAgreement_responderSendingDHPart1
libbzrtp.so.0:state_keyAgreement_sendingCommit
libbzrtp.so.0:state_secure
libbzrtp.so.0:state_sending_GoClear
libdecaf.so.0:DECAF_ED25519_NO_CONTEXT
libdecaf.so.0:DECAF_SHA3_224_params_s
libdecaf.so.0:DECAF_SHA3_256_params_s
libdecaf.so.0:DECAF_SHA3_384_params_s
libdecaf.so.0:DECAF_SHA3_512_params_s
libdecaf.so.0:DECAF_SHAKE128_params_s
libdecaf.so.0:DECAF_SHAKE256_params_s
libdecaf.so.0:decaf_255_alignof_precomputed_s
libdecaf.so.0:decaf_255_base_double_scalarmul_non_secret
libdecaf.so.0:decaf_255_direct_scalarmul
libdecaf.so.0:decaf_255_invert_elligator_nonuniform
libdecaf.so.0:decaf_255_invert_elligator_uniform
libdecaf.so.0:decaf_255_point_add
libdecaf.so.0:decaf_255_point_base
libdecaf.so.0:decaf_255_point_cond_sel
libdecaf.so.0:decaf_255_point_debugging_pscale
libdecaf.so.0:decaf_255_point_debugging_torque
libdecaf.so.0:decaf_255_point_decode
libdecaf.so.0:decaf_255_point_decode_like_eddsa_and_mul_by_ratio
libdecaf.so.0:decaf_255_point_destroy
libdecaf.so.0:decaf_255_point_double
libdecaf.so.0:decaf_255_point_double_scalarmul
libdecaf.so.0:decaf_255_point_dual_scalarmul
libdecaf.so.0:decaf_255_point_encode
libdecaf.so.0:decaf_255_point_eq
libdecaf.so.0:decaf_255_point_from_hash_nonuniform
libdecaf.so.0:decaf_255_point_from_hash_uniform
libdecaf.so.0:decaf_255_point_identity
libdecaf.so.0:decaf_255_point_mul_by_ratio_and_encode_like_eddsa
libdecaf.so.0:decaf_255_point_mul_by_ratio_and_encode_like_x25519
libdecaf.so.0:decaf_255_point_negate
libdecaf.so.0:decaf_255_point_scalarmul
libdecaf.so.0:decaf_255_point_sub
libdecaf.so.0:decaf_255_point_valid
libdecaf.so.0:decaf_255_precompute
libdecaf.so.0:decaf_255_precomputed_base
libdecaf.so.0:decaf_255_precomputed_destroy
libdecaf.so.0:decaf_255_precomputed_scalarmul
libdecaf.so.0:decaf_255_scalar_add
libdecaf.so.0:decaf_255_scalar_cond_sel
libdecaf.so.0:decaf_255_scalar_decode
libdecaf.so.0:decaf_255_scalar_decode_long
libdecaf.so.0:decaf_255_scalar_destroy
libdecaf.so.0:decaf_255_scalar_encode
libdecaf.so.0:decaf_255_scalar_eq
libdecaf.so.0:decaf_255_scalar_halve
libdecaf.so.0:decaf_255_scalar_invert
libdecaf.so.0:decaf_255_scalar_mul
libdecaf.so.0:decaf_255_scalar_one
libdecaf.so.0:decaf_255_scalar_set_unsigned
libdecaf.so.0:decaf_255_scalar_sub
libdecaf.so.0:decaf_255_scalar_zero
libdecaf.so.0:decaf_255_sizeof_precomputed_s
libdecaf.so.0:decaf_448_alignof_precomputed_s
libdecaf.so.0:decaf_448_base_double_scalarmul_non_secret
libdecaf.so.0:decaf_448_direct_scalarmul
libdecaf.so.0:decaf_448_invert_elligator_nonuniform
libdecaf.so.0:decaf_448_invert_elligator_uniform
libdecaf.so.0:decaf_448_point_add
libdecaf.so.0:decaf_448_point_base
libdecaf.so.0:decaf_448_point_cond_sel
libdecaf.so.0:decaf_448_point_debugging_pscale
libdecaf.so.0:decaf_448_point_debugging_torque
libdecaf.so.0:decaf_448_point_decode
libdecaf.so.0:decaf_448_point_decode_like_eddsa_and_mul_by_ratio
libdecaf.so.0:decaf_448_point_destroy
libdecaf.so.0:decaf_448_point_double
libdecaf.so.0:decaf_448_point_double_scalarmul
libdecaf.so.0:decaf_448_point_dual_scalarmul
libdecaf.so.0:decaf_448_point_encode
libdecaf.so.0:decaf_448_point_eq
libdecaf.so.0:decaf_448_point_from_hash_nonuniform
libdecaf.so.0:decaf_448_point_from_hash_uniform
libdecaf.so.0:decaf_448_point_identity
libdecaf.so.0:decaf_448_point_mul_by_ratio_and_encode_like_eddsa
libdecaf.so.0:decaf_448_point_mul_by_ratio_and_encode_like_x448
libdecaf.so.0:decaf_448_point_negate
libdecaf.so.0:decaf_448_point_scalarmul
libdecaf.so.0:decaf_448_point_sub
libdecaf.so.0:decaf_448_point_valid
libdecaf.so.0:decaf_448_precompute
libdecaf.so.0:decaf_448_precomputed_base
libdecaf.so.0:decaf_448_precomputed_destroy
libdecaf.so.0:decaf_448_precomputed_scalarmul
libdecaf.so.0:decaf_448_scalar_add
libdecaf.so.0:decaf_448_scalar_cond_sel
libdecaf.so.0:decaf_448_scalar_decode
libdecaf.so.0:decaf_448_scalar_decode_long
libdecaf.so.0:decaf_448_scalar_destroy
libdecaf.so.0:decaf_448_scalar_encode
libdecaf.so.0:decaf_448_scalar_eq
libdecaf.so.0:decaf_448_scalar_halve
libdecaf.so.0:decaf_448_scalar_invert
libdecaf.so.0:decaf_448_scalar_mul
libdecaf.so.0:decaf_448_scalar_one
libdecaf.so.0:decaf_448_scalar_set_unsigned
libdecaf.so.0:decaf_448_scalar_sub
libdecaf.so.0:decaf_448_scalar_zero
libdecaf.so.0:decaf_448_sizeof_precomputed_s
libdecaf.so.0:decaf_bzero
libdecaf.so.0:decaf_ed25519_convert_private_key_to_x25519
libdecaf.so.0:decaf_ed25519_convert_public_key_to_x25519
libdecaf.so.0:decaf_ed25519_derive_keypair
libdecaf.so.0:decaf_ed25519_derive_public_key
libdecaf.so.0:decaf_ed25519_keypair_destroy
libdecaf.so.0:decaf_ed25519_keypair_extract_private_key
libdecaf.so.0:decaf_ed25519_keypair_extract_public_key
libdecaf.so.0:decaf_ed25519_keypair_sign
libdecaf.so.0:decaf_ed25519_keypair_sign_prehash
libdecaf.so.0:decaf_ed25519_prehash_init
libdecaf.so.0:decaf_ed25519_sign
libdecaf.so.0:decaf_ed25519_sign_prehash
libdecaf.so.0:decaf_ed25519_verify
libdecaf.so.0:decaf_ed25519_verify_prehash
libdecaf.so.0:decaf_ed448_convert_private_key_to_x448
libdecaf.so.0:decaf_ed448_convert_public_key_to_x448
libdecaf.so.0:decaf_ed448_derive_keypair
libdecaf.so.0:decaf_ed448_derive_public_key
libdecaf.so.0:decaf_ed448_keypair_destroy
libdecaf.so.0:decaf_ed448_keypair_extract_private_key
libdecaf.so.0:decaf_ed448_keypair_extract_public_key
libdecaf.so.0:decaf_ed448_keypair_sign
libdecaf.so.0:decaf_ed448_keypair_sign_prehash
libdecaf.so.0:decaf_ed448_prehash_init
libdecaf.so.0:decaf_ed448_sign
libdecaf.so.0:decaf_ed448_sign_prehash
libdecaf.so.0:decaf_ed448_verify
libdecaf.so.0:decaf_ed448_verify_prehash
libdecaf.so.0:decaf_memeq
libdecaf.so.0:decaf_sha3_default_output_bytes
libdecaf.so.0:decaf_sha3_destroy
libdecaf.so.0:decaf_sha3_final
libdecaf.so.0:decaf_sha3_hash
libdecaf.so.0:decaf_sha3_init
libdecaf.so.0:decaf_sha3_max_output_bytes
libdecaf.so.0:decaf_sha3_output
libdecaf.so.0:decaf_sha3_reset
libdecaf.so.0:decaf_sha3_update
libdecaf.so.0:decaf_sha512_final
libdecaf.so.0:decaf_sha512_init
libdecaf.so.0:decaf_sha512_update
libdecaf.so.0:decaf_spongerng_init_from_buffer
libdecaf.so.0:decaf_spongerng_init_from_dev_urandom
libdecaf.so.0:decaf_spongerng_init_from_file
libdecaf.so.0:decaf_spongerng_next
libdecaf.so.0:decaf_spongerng_stir
libdecaf.so.0:decaf_x25519
libdecaf.so.0:decaf_x25519_base_point
libdecaf.so.0:decaf_x25519_derive_public_key
libdecaf.so.0:decaf_x25519_generate_key
libdecaf.so.0:decaf_x448
libdecaf.so.0:decaf_x448_base_point
libdecaf.so.0:decaf_x448_derive_public_key
libdecaf.so.0:decaf_x448_generate_key
libgsm.so:Gsm_Coder
libgsm.so:Gsm_Decoder
libgsm.so:Gsm_LPC_Analysis
libgsm.so:Gsm_Long_Term_Predictor
libgsm.so:Gsm_Long_Term_Synthesis_Filtering
libgsm.so:Gsm_Preprocess
libgsm.so:Gsm_RPE_Decoding
libgsm.so:Gsm_RPE_Encoding
libgsm.so:Gsm_Short_Term_Analysis_Filter
libgsm.so:Gsm_Short_Term_Synthesis_Filter
libgsm.so:gsm_A
libgsm.so:gsm_B
libgsm.so:gsm_DLB
libgsm.so:gsm_FAC
libgsm.so:gsm_H
libgsm.so:gsm_INVA
libgsm.so:gsm_L_add
libgsm.so:gsm_L_asl
libgsm.so:gsm_L_asr
libgsm.so:gsm_L_mult
libgsm.so:gsm_L_sub
libgsm.so:gsm_MAC
libgsm.so:gsm_MIC
libgsm.so:gsm_NRFAC
libgsm.so:gsm_QLB
libgsm.so:gsm_abs
libgsm.so:gsm_add
libgsm.so:gsm_asl
libgsm.so:gsm_asr
libgsm.so:gsm_create
libgsm.so:gsm_decode
libgsm.so:gsm_destroy
libgsm.so:gsm_div
libgsm.so:gsm_encode
libgsm.so:gsm_explode
libgsm.so:gsm_implode
libgsm.so:gsm_mult
libgsm.so:gsm_mult_r
libgsm.so:gsm_norm
libgsm.so:gsm_option
libgsm.so:gsm_print
libgsm.so:gsm_sub
libjpeg.so.62:LIBJPEGTURBO_6.2
libjpeg.so.62:LIBJPEG_6.2
libjpeg.so.62:jcopy_block_row
libjpeg.so.62:jcopy_sample_rows
libjpeg.so.62:jdiv_round_up
libjpeg.so.62:jinit_1pass_quantizer
libjpeg.so.62:jinit_2pass_quantizer
libjpeg.so.62:jinit_arith_decoder
libjpeg.so.62:jinit_arith_encoder
libjpeg.so.62:jinit_c_coef_controller
libjpeg.so.62:jinit_c_main_controller
libjpeg.so.62:jinit_c_master_control
libjpeg.so.62:jinit_c_prep_controller
libjpeg.so.62:jinit_color_converter
libjpeg.so.62:jinit_color_deconverter
libjpeg.so.62:jinit_compress_master
libjpeg.so.62:jinit_d_coef_controller
libjpeg.so.62:jinit_d_main_controller
libjpeg.so.62:jinit_d_post_controller
libjpeg.so.62:jinit_downsampler
libjpeg.so.62:jinit_forward_dct
libjpeg.so.62:jinit_huff_decoder
libjpeg.so.62:jinit_huff_encoder
libjpeg.so.62:jinit_input_controller
libjpeg.so.62:jinit_inverse_dct
libjpeg.so.62:jinit_marker_reader
libjpeg.so.62:jinit_marker_writer
libjpeg.so.62:jinit_master_decompress
libjpeg.so.62:jinit_memory_mgr
libjpeg.so.62:jinit_merged_upsampler
libjpeg.so.62:jinit_phuff_decoder
libjpeg.so.62:jinit_phuff_encoder
libjpeg.so.62:jinit_upsampler
libjpeg.so.62:jpeg_CreateCompress
libjpeg.so.62:jpeg_CreateDecompress
libjpeg.so.62:jpeg_abort
libjpeg.so.62:jpeg_abort_compress
libjpeg.so.62:jpeg_abort_decompress
libjpeg.so.62:jpeg_add_quant_table
libjpeg.so.62:jpeg_alloc_huff_table
libjpeg.so.62:jpeg_alloc_quant_table
libjpeg.so.62:jpeg_aritab
libjpeg.so.62:jpeg_calc_output_dimensions
libjpeg.so.62:jpeg_consume_input
libjpeg.so.62:jpeg_copy_critical_parameters
libjpeg.so.62:jpeg_crop_scanline
libjpeg.so.62:jpeg_default_colorspace
libjpeg.so.62:jpeg_destroy
libjpeg.so.62:jpeg_destroy_compress
libjpeg.so.62:jpeg_destroy_decompress
libjpeg.so.62:jpeg_fdct_float
libjpeg.so.62:jpeg_fdct_ifast
libjpeg.so.62:jpeg_fdct_islow
libjpeg.so.62:jpeg_fill_bit_buffer
libjpeg.so.62:jpeg_finish_compress
libjpeg.so.62:jpeg_finish_decompress
libjpeg.so.62:jpeg_finish_output
libjpeg.so.62:jpeg_free_large
libjpeg.so.62:jpeg_free_small
libjpeg.so.62:jpeg_gen_optimal_table
libjpeg.so.62:jpeg_get_large
libjpeg.so.62:jpeg_get_small
libjpeg.so.62:jpeg_has_multiple_scans
libjpeg.so.62:jpeg_huff_decode
libjpeg.so.62:jpeg_idct_10x10
libjpeg.so.62:jpeg_idct_11x11
libjpeg.so.62:jpeg_idct_12x12
libjpeg.so.62:jpeg_idct_13x13
libjpeg.so.62:jpeg_idct_14x14
libjpeg.so.62:jpeg_idct_15x15
libjpeg.so.62:jpeg_idct_16x16
libjpeg.so.62:jpeg_idct_1x1
libjpeg.so.62:jpeg_idct_2x2
libjpeg.so.62:jpeg_idct_3x3
libjpeg.so.62:jpeg_idct_4x4
libjpeg.so.62:jpeg_idct_5x5
libjpeg.so.62:jpeg_idct_6x6
libjpeg.so.62:jpeg_idct_7x7
libjpeg.so.62:jpeg_idct_9x9
libjpeg.so.62:jpeg_idct_float
libjpeg.so.62:jpeg_idct_ifast
libjpeg.so.62:jpeg_idct_islow
libjpeg.so.62:jpeg_input_complete
libjpeg.so.62:jpeg_make_c_derived_tbl
libjpeg.so.62:jpeg_make_d_derived_tbl
libjpeg.so.62:jpeg_mem_available
libjpeg.so.62:jpeg_mem_dest
libjpeg.so.62:jpeg_mem_init
libjpeg.so.62:jpeg_mem_src
libjpeg.so.62:jpeg_mem_term
libjpeg.so.62:jpeg_natural_order
libjpeg.so.62:jpeg_new_colormap
libjpeg.so.62:jpeg_open_backing_store
libjpeg.so.62:jpeg_quality_scaling
libjpeg.so.62:jpeg_read_coefficients
libjpeg.so.62:jpeg_read_header
libjpeg.so.62:jpeg_read_icc_profile
libjpeg.so.62:jpeg_read_raw_data
libjpeg.so.62:jpeg_read_scanlines
libjpeg.so.62:jpeg_resync_to_restart
libjpeg.so.62:jpeg_save_markers
libjpeg.so.62:jpeg_set_colorspace
libjpeg.so.62:jpeg_set_defaults
libjpeg.so.62:jpeg_set_linear_quality
libjpeg.so.62:jpeg_set_marker_processor
libjpeg.so.62:jpeg_set_quality
libjpeg.so.62:jpeg_simple_progression
libjpeg.so.62:jpeg_skip_scanlines
libjpeg.so.62:jpeg_start_compress
libjpeg.so.62:jpeg_start_decompress
libjpeg.so.62:jpeg_start_output
libjpeg.so.62:jpeg_std_error
libjpeg.so.62:jpeg_std_message_table
libjpeg.so.62:jpeg_stdio_dest
libjpeg.so.62:jpeg_stdio_src
libjpeg.so.62:jpeg_suppress_tables
libjpeg.so.62:jpeg_write_coefficients
libjpeg.so.62:jpeg_write_icc_profile
libjpeg.so.62:jpeg_write_m_byte
libjpeg.so.62:jpeg_write_m_header
libjpeg.so.62:jpeg_write_marker
libjpeg.so.62:jpeg_write_raw_data
libjpeg.so.62:jpeg_write_scanlines
libjpeg.so.62:jpeg_write_tables
libjpeg.so.62:jround_up
libjpeg.so.62:jzero_far
libjsoncpp.so.24:_ZN4Json10FastWriter10writeValueERKNS_5ValueE
libjsoncpp.so.24:_ZN4Json10FastWriter18omitEndingLineFeedEv
libjsoncpp.so.24:_ZN4Json10FastWriter20dropNullPlaceholdersEv
libjsoncpp.so.24:_ZN4Json10FastWriter23enableYAMLCompatibilityEv
libjsoncpp.so.24:_ZN4Json10FastWriter5writeB5cxx11ERKNS_5ValueE
libjsoncpp.so.24:_ZN4Json10FastWriterC1Ev
libjsoncpp.so.24:_ZN4Json10FastWriterC2Ev
libjsoncpp.so.24:_ZN4Json10LogicErrorC1ERKNSt7__cxx1112basic_stringIcSt11char_traitsIcESaIcEEE
libjsoncpp.so.24:_ZN4Json10LogicErrorC2ERKNSt7__cxx1112basic_stringIcSt11char_traitsIcESaIcEEE
libjsoncpp.so.24:_ZN4Json11OurFeatures3allEv
libjsoncpp.so.24:_ZN4Json11writeStringB5cxx11ERKNS_12StreamWriter7FactoryERKNS_5ValueE
libjsoncpp.so.24:_ZN4Json12PathArgumentC1ENSt7__cxx1112basic_stringIcSt11char_traitsIcESaIcEEE
libjsoncpp.so.24:_ZN4Json12PathArgumentC1EPKc
libjsoncpp.so.24:_ZN4Json12PathArgumentC1Ej
libjsoncpp.so.24:_ZN4Json12PathArgumentC1Ev
libjsoncpp.so.24:_ZN4Json12PathArgumentC2ENSt7__cxx1112basic_stringIcSt11char_traitsIcESaIcEEE
libjsoncpp.so.24:_ZN4Json12PathArgumentC2EPKc
libjsoncpp.so.24:_ZN4Json12PathArgumentC2Ej
libjsoncpp.so.24:_ZN4Json12PathArgumentC2Ev
libjsoncpp.so.24:_ZN4Json12RuntimeErrorC1ERKNSt7__cxx1112basic_stringIcSt11char_traitsIcESaIcEEE
libjsoncpp.so.24:_ZN4Json12RuntimeErrorC2ERKNSt7__cxx1112basic_stringIcSt11char_traitsIcESaIcEEE
libjsoncpp.so.24:_ZN4Json12StreamWriter7FactoryD0Ev
libjsoncpp.so.24:_ZN4Json12StreamWriter7FactoryD1Ev
libjsoncpp.so.24:_ZN4Json12StreamWriter7FactoryD2Ev
libjsoncpp.so.24:_ZN4Json12StreamWriterC1Ev
libjsoncpp.so.24:_ZN4Json12StreamWriterC2Ev
libjsoncpp.so.24:_ZN4Json12StreamWriterD0Ev
libjsoncpp.so.24:_ZN4Json12StreamWriterD1Ev
libjsoncpp.so.24:_ZN4Json12StreamWriterD2Ev
libjsoncpp.so.24:_ZN4Json12StyledWriter10writeValueERKNS_5ValueE
libjsoncpp.so.24:_ZN4Json12StyledWriter11writeIndentEv
libjsoncpp.so.24:_ZN4Json12StyledWriter15writeArrayValueERKNS_5ValueE
libjsoncpp.so.24:_ZN4Json12StyledWriter15writeWithIndentERKNSt7__cxx1112basic_stringIcSt11char_traitsIcESaIcEEE
libjsoncpp.so.24:_ZN4Json12StyledWriter16isMultilineArrayERKNS_5ValueE
libjsoncpp.so.24:_ZN4Json12StyledWriter18hasCommentForValueERKNS_5ValueE
libjsoncpp.so.24:_ZN4Json12StyledWriter23writeCommentBeforeValueERKNS_5ValueE
libjsoncpp.so.24:_ZN4Json12StyledWriter32writeCommentAfterValueOnSameLineERKNS_5ValueE
libjsoncpp.so.24:_ZN4Json12StyledWriter5writeB5cxx11ERKNS_5ValueE
libjsoncpp.so.24:_ZN4Json12StyledWriter6indentEv
libjsoncpp.so.24:_ZN4Json12StyledWriter8unindentEv
libjsoncpp.so.24:_ZN4Json12StyledWriter9pushValueERKNSt7__cxx1112basic_stringIcSt11char_traitsIcESaIcEEE
libjsoncpp.so.24:_ZN4Json12StyledWriterC1Ev
libjsoncpp.so.24:_ZN4Json12StyledWriterC2Ev
libjsoncpp.so.24:_ZN4Json13ValueIteratorC1ERKNS_18ValueConstIteratorE
libjsoncpp.so.24:_ZN4Json13ValueIteratorC1ERKS0_
libjsoncpp.so.24:_ZN4Json13ValueIteratorC1ERKSt17_Rb_tree_iteratorISt4pairIKNS_5Value8CZStringES3_EE
libjsoncpp.so.24:_ZN4Json13ValueIteratorC1Ev
libjsoncpp.so.24:_ZN4Json13ValueIteratorC2ERKNS_18ValueConstIteratorE
libjsoncpp.so.24:_ZN4Json13ValueIteratorC2ERKS0_
libjsoncpp.so.24:_ZN4Json13ValueIteratorC2ERKSt17_Rb_tree_iteratorISt4pairIKNS_5Value8CZStringES3_EE
libjsoncpp.so.24:_ZN4Json13ValueIteratorC2Ev
libjsoncpp.so.24:_ZN4Json13ValueIteratoraSERKS0_
libjsoncpp.so.24:_ZN4Json13valueToStringB5cxx11Eb
libjsoncpp.so.24:_ZN4Json13valueToStringB5cxx11EdjNS_13PrecisionTypeE
libjsoncpp.so.24:_ZN4Json13valueToStringB5cxx11Ei
libjsoncpp.so.24:_ZN4Json13valueToStringB5cxx11Ej
libjsoncpp.so.24:_ZN4Json13valueToStringB5cxx11El
libjsoncpp.so.24:_ZN4Json13valueToStringB5cxx11Em
libjsoncpp.so.24:_ZN4Json15parseFromStreamERKNS_10CharReader7FactoryERSiPNS_5ValueEPNSt7__cxx1112basic_stringIcSt11char_traitsIcESaIcEEE
libjsoncpp.so.24:_ZN4Json15throwLogicErrorERKNSt7__cxx1112basic_stringIcSt11char_traitsIcESaIcEEE
libjsoncpp.so.24:_ZN4Json17CharReaderBuilder10strictModeEPNS_5ValueE
libjsoncpp.so.24:_ZN4Json17CharReaderBuilder11setDefaultsEPNS_5ValueE
libjsoncpp.so.24:_ZN4Json17CharReaderBuilderC1Ev
libjsoncpp.so.24:_ZN4Json17CharReaderBuilderC2Ev
libjsoncpp.so.24:_ZN4Json17CharReaderBuilderD0Ev
libjsoncpp.so.24:_ZN4Json17CharReaderBuilderD1Ev
libjsoncpp.so.24:_ZN4Json17CharReaderBuilderD2Ev
libjsoncpp.so.24:_ZN4Json17CharReaderBuilderixERKNSt7__cxx1112basic_stringIcSt11char_traitsIcESaIcEEE
libjsoncpp.so.24:_ZN4Json17ValueIteratorBase4copyERKS0_
libjsoncpp.so.24:_ZN4Json17ValueIteratorBase5derefEv
libjsoncpp.so.24:_ZN4Json17ValueIteratorBase9decrementEv
libjsoncpp.so.24:_ZN4Json17ValueIteratorBase9incrementEv
libjsoncpp.so.24:_ZN4Json17ValueIteratorBaseC1ERKSt17_Rb_tree_iteratorISt4pairIKNS_5Value8CZStringES3_EE
libjsoncpp.so.24:_ZN4Json17ValueIteratorBaseC1Ev
libjsoncpp.so.24:_ZN4Json17ValueIteratorBaseC2ERKSt17_Rb_tree_iteratorISt4pairIKNS_5Value8CZStringES3_EE
libjsoncpp.so.24:_ZN4Json17ValueIteratorBaseC2Ev
libjsoncpp.so.24:_ZN4Json17throwRuntimeErrorERKNSt7__cxx1112basic_stringIcSt11char_traitsIcESaIcEEE
libjsoncpp.so.24:_ZN4Json18StyledStreamWriter10writeValueERKNS_5ValueE
libjsoncpp.so.24:_ZN4Json18StyledStreamWriter11writeIndentEv
libjsoncpp.so.24:_ZN4Json18StyledStreamWriter15writeArrayValueERKNS_5ValueE
libjsoncpp.so.24:_ZN4Json18StyledStreamWriter15writeWithIndentERKNSt7__cxx1112basic_stringIcSt11char_traitsIcESaIcEEE
libjsoncpp.so.24:_ZN4Json18StyledStreamWriter16isMultilineArrayERKNS_5ValueE
libjsoncpp.so.24:_ZN4Json18StyledStreamWriter18hasCommentForValueERKNS_5ValueE
libjsoncpp.so.24:_ZN4Json18StyledStreamWriter23writeCommentBeforeValueERKNS_5ValueE
libjsoncpp.so.24:_ZN4Json18StyledStreamWriter32writeCommentAfterValueOnSameLineERKNS_5ValueE
libjsoncpp.so.24:_ZN4Json18StyledStreamWriter5writeERSoRKNS_5ValueE
libjsoncpp.so.24:_ZN4Json18StyledStreamWriter6indentEv
libjsoncpp.so.24:_ZN4Json18StyledStreamWriter8unindentEv
libjsoncpp.so.24:_ZN4Json18StyledStreamWriter9pushValueERKNSt7__cxx1112basic_stringIcSt11char_traitsIcESaIcEEE
libjsoncpp.so.24:_ZN4Json18StyledStreamWriterC1ENSt7__cxx1112basic_stringIcSt11char_traitsIcESaIcEEE
libjsoncpp.so.24:_ZN4Json18StyledStreamWriterC2ENSt7__cxx1112basic_stringIcSt11char_traitsIcESaIcEEE
libjsoncpp.so.24:_ZN4Json18ValueConstIteratorC1ERKNS_13ValueIteratorE
libjsoncpp.so.24:_ZN4Json18ValueConstIteratorC1ERKSt17_Rb_tree_iteratorISt4pairIKNS_5Value8CZStringES3_EE
libjsoncpp.so.24:_ZN4Json18ValueConstIteratorC1Ev
libjsoncpp.so.24:_ZN4Json18ValueConstIteratorC2ERKNS_13ValueIteratorE
libjsoncpp.so.24:_ZN4Json18ValueConstIteratorC2ERKSt17_Rb_tree_iteratorISt4pairIKNS_5Value8CZStringES3_EE
libjsoncpp.so.24:_ZN4Json18ValueConstIteratorC2Ev
libjsoncpp.so.24:_ZN4Json18ValueConstIteratoraSERKNS_17ValueIteratorBaseE
libjsoncpp.so.24:_ZN4Json19StreamWriterBuilder11setDefaultsEPNS_5ValueE
libjsoncpp.so.24:_ZN4Json19StreamWriterBuilderC1Ev
libjsoncpp.so.24:_ZN4Json19StreamWriterBuilderC2Ev
libjsoncpp.so.24:_ZN4Json19StreamWriterBuilderD0Ev
libjsoncpp.so.24:_ZN4Json19StreamWriterBuilderD1Ev
libjsoncpp.so.24:_ZN4Json19StreamWriterBuilderD2Ev
libjsoncpp.so.24:_ZN4Json19StreamWriterBuilderixERKNSt7__cxx1112basic_stringIcSt11char_traitsIcESaIcEEE
libjsoncpp.so.24:_ZN4Json19valueToQuotedStringB5cxx11EPKc
libjsoncpp.so.24:_ZN4Json23BuiltStyledStreamWriter10writeValueERKNS_5ValueE
libjsoncpp.so.24:_ZN4Json23BuiltStyledStreamWriter11writeIndentEv
libjsoncpp.so.24:_ZN4Json23BuiltStyledStreamWriter15writeArrayValueERKNS_5ValueE
libjsoncpp.so.24:_ZN4Json23BuiltStyledStreamWriter15writeWithIndentERKNSt7__cxx1112basic_stringIcSt11char_traitsIcESaIcEEE
libjsoncpp.so.24:_ZN4Json23BuiltStyledStreamWriter16isMultilineArrayERKNS_5ValueE
libjsoncpp.so.24:_ZN4Json23BuiltStyledStreamWriter18hasCommentForValueERKNS_5ValueE
libjsoncpp.so.24:_ZN4Json23BuiltStyledStreamWriter23writeCommentBeforeValueERKNS_5ValueE
libjsoncpp.so.24:_ZN4Json23BuiltStyledStreamWriter32writeCommentAfterValueOnSameLineERKNS_5ValueE
libjsoncpp.so.24:_ZN4Json23BuiltStyledStreamWriter5writeERKNS_5ValueEPSo
libjsoncpp.so.24:_ZN4Json23BuiltStyledStreamWriter6indentEv
libjsoncpp.so.24:_ZN4Json23BuiltStyledStreamWriter8unindentEv
libjsoncpp.so.24:_ZN4Json23BuiltStyledStreamWriter9pushValueERKNSt7__cxx1112basic_stringIcSt11char_traitsIcESaIcEEE
libjsoncpp.so.24:_ZN4Json23BuiltStyledStreamWriterC1ENSt7__cxx1112basic_stringIcSt11char_traitsIcESaIcEEENS_12CommentStyle4EnumES6_S6_S6_bbjNS_13PrecisionTypeE
libjsoncpp.so.24:_ZN4Json23BuiltStyledStreamWriterC2ENSt7__cxx1112basic_stringIcSt11char_traitsIcESaIcEEENS_12CommentStyle4EnumES6_S6_S6_bbjNS_13PrecisionTypeE
libjsoncpp.so.24:_ZN4Json4Path11invalidPathERKNSt7__cxx1112basic_stringIcSt11char_traitsIcESaIcEEEi
libjsoncpp.so.24:_ZN4Json4Path12addPathInArgERKNSt7__cxx1112basic_stringIcSt11char_traitsIcESaIcEEERKSt6vectorIPKNS_12PathArgumentESaISC_EERN9__gnu_cxx17__normal_iteratorIPKSC_SE_EENSA_4KindE
libjsoncpp.so.24:_ZN4Json4Path8makePathERKNSt7__cxx1112basic_stringIcSt11char_traitsIcESaIcEEERKSt6vectorIPKNS_12PathArgumentESaISC_EE
libjsoncpp.so.24:_ZN4Json4PathC1ERKNSt7__cxx1112basic_stringIcSt11char_traitsIcESaIcEEERKNS_12PathArgumentESB_SB_SB_SB_
libjsoncpp.so.24:_ZN4Json4PathC2ERKNSt7__cxx1112basic_stringIcSt11char_traitsIcESaIcEEERKNS_12PathArgumentESB_SB_SB_SB_
libjsoncpp.so.24:_ZN4Json5Value10dupPayloadERKS0_
libjsoncpp.so.24:_ZN4Json5Value10setCommentENSt7__cxx1112basic_stringIcSt11char_traitsIcESaIcEEENS_16CommentPlacementE
libjsoncpp.so.24:_ZN4Json5Value11copyPayloadERKS0_
libjsoncpp.so.24:_ZN4Json5Value11removeIndexEjPS0_
libjsoncpp.so.24:_ZN4Json5Value11swapPayloadERS0_
libjsoncpp.so.24:_ZN4Json5Value12removeMemberEPKc
libjsoncpp.so.24:_ZN4Json5Value12removeMemberEPKcPS0_
libjsoncpp.so.24:_ZN4Json5Value12removeMemberEPKcS2_PS0_
libjsoncpp.so.24:_ZN4Json5Value12removeMemberERKNSt7__cxx1112basic_stringIcSt11char_traitsIcESaIcEEE
libjsoncpp.so.24:_ZN4Json5Value12removeMemberERKNSt7__cxx1112basic_stringIcSt11char_traitsIcESaIcEEEPS0_
libjsoncpp.so.24:_ZN4Json5Value13nullSingletonEv
libjsoncpp.so.24:_ZN4Json5Value14releasePayloadEv
libjsoncpp.so.24:_ZN4Json5Value14setOffsetLimitEl
libjsoncpp.so.24:_ZN4Json5Value14setOffsetStartEl
libjsoncpp.so.24:_ZN4Json5Value16resolveReferenceEPKc
libjsoncpp.so.24:_ZN4Json5Value16resolveReferenceEPKcS2_
libjsoncpp.so.24:_ZN4Json5Value3endEv
libjsoncpp.so.24:_ZN4Json5Value4copyERKS0_
libjsoncpp.so.24:_ZN4Json5Value4nullE
libjsoncpp.so.24:_ZN4Json5Value4swapERS0_
libjsoncpp.so.24:_ZN4Json5Value5beginEv
libjsoncpp.so.24:_ZN4Json5Value5clearEv
libjsoncpp.so.24:_ZN4Json5Value6appendEOS0_
libjsoncpp.so.24:_ZN4Json5Value6appendERKS0_
libjsoncpp.so.24:_ZN4Json5Value6demandEPKcS2_
libjsoncpp.so.24:_ZN4Json5Value6insertEjOS0_
libjsoncpp.so.24:_ZN4Json5Value6insertEjRKS0_
libjsoncpp.so.24:_ZN4Json5Value6resizeEj
libjsoncpp.so.24:_ZN4Json5Value7dupMetaERKS0_
libjsoncpp.so.24:_ZN4Json5Value7nullRefE
libjsoncpp.so.24:_ZN4Json5Value8CZString4swapERS1_
libjsoncpp.so.24:_ZN4Json5Value8CZStringC1EOS1_
libjsoncpp.so.24:_ZN4Json5Value8CZStringC1EPKcjNS1_17DuplicationPolicyE
libjsoncpp.so.24:_ZN4Json5Value8CZStringC1ERKS1_
libjsoncpp.so.24:_ZN4Json5Value8CZStringC1Ej
libjsoncpp.so.24:_ZN4Json5Value8CZStringC2EOS1_
libjsoncpp.so.24:_ZN4Json5Value8CZStringC2EPKcjNS1_17DuplicationPolicyE
libjsoncpp.so.24:_ZN4Json5Value8CZStringC2ERKS1_
libjsoncpp.so.24:_ZN4Json5Value8CZStringC2Ej
libjsoncpp.so.24:_ZN4Json5Value8CZStringD1Ev
libjsoncpp.so.24:_ZN4Json5Value8CZStringD2Ev
libjsoncpp.so.24:_ZN4Json5Value8CZStringaSEOS1_
libjsoncpp.so.24:_ZN4Json5Value8CZStringaSERKS1_
libjsoncpp.so.24:_ZN4Json5Value8Comments3setENS_16CommentPlacementENSt7__cxx1112basic_stringIcSt11char_traitsIcESaIcEEE
libjsoncpp.so.24:_ZN4Json5Value8CommentsC1EOS1_
libjsoncpp.so.24:_ZN4Json5Value8CommentsC1ERKS1_
libjsoncpp.so.24:_ZN4Json5Value8CommentsC2EOS1_
libjsoncpp.so.24:_ZN4Json5Value8CommentsC2ERKS1_
libjsoncpp.so.24:_ZN4Json5Value8CommentsaSEOS1_
libjsoncpp.so.24:_ZN4Json5Value8CommentsaSERKS1_
libjsoncpp.so.24:_ZN4Json5Value9initBasicENS_9ValueTypeEb
libjsoncpp.so.24:_ZN4Json5ValueC1ENS_9ValueTypeE
libjsoncpp.so.24:_ZN4Json5ValueC1EOS0_
libjsoncpp.so.24:_ZN4Json5ValueC1EPKc
libjsoncpp.so.24:_ZN4Json5ValueC1EPKcS2_
libjsoncpp.so.24:_ZN4Json5ValueC1ERKNS_12StaticStringE
libjsoncpp.so.24:_ZN4Json5ValueC1ERKNSt7__cxx1112basic_stringIcSt11char_traitsIcESaIcEEE
libjsoncpp.so.24:_ZN4Json5ValueC1ERKS0_
libjsoncpp.so.24:_ZN4Json5ValueC1Eb
libjsoncpp.so.24:_ZN4Json5ValueC1Ed
libjsoncpp.so.24:_ZN4Json5ValueC1Ei
libjsoncpp.so.24:_ZN4Json5ValueC1Ej
libjsoncpp.so.24:_ZN4Json5ValueC1El
libjsoncpp.so.24:_ZN4Json5ValueC1Em
libjsoncpp.so.24:_ZN4Json5ValueC2ENS_9ValueTypeE
libjsoncpp.so.24:_ZN4Json5ValueC2EOS0_
libjsoncpp.so.24:_ZN4Json5ValueC2EPKc
libjsoncpp.so.24:_ZN4Json5ValueC2EPKcS2_
libjsoncpp.so.24:_ZN4Json5ValueC2ERKNS_12StaticStringE
libjsoncpp.so.24:_ZN4Json5ValueC2ERKNSt7__cxx1112basic_stringIcSt11char_traitsIcESaIcEEE
libjsoncpp.so.24:_ZN4Json5ValueC2ERKS0_
libjsoncpp.so.24:_ZN4Json5ValueC2Eb
libjsoncpp.so.24:_ZN4Json5ValueC2Ed
libjsoncpp.so.24:_ZN4Json5ValueC2Ei
libjsoncpp.so.24:_ZN4Json5ValueC2Ej
libjsoncpp.so.24:_ZN4Json5ValueC2El
libjsoncpp.so.24:_ZN4Json5ValueC2Em
libjsoncpp.so.24:_ZN4Json5ValueD1Ev
libjsoncpp.so.24:_ZN4Json5ValueD2Ev
libjsoncpp.so.24:_ZN4Json5ValueaSEOS0_
libjsoncpp.so.24:_ZN4Json5ValueaSERKS0_
libjsoncpp.so.24:_ZN4Json5ValueixEPKc
libjsoncpp.so.24:_ZN4Json5ValueixERKNS_12StaticStringE
libjsoncpp.so.24:_ZN4Json5ValueixERKNSt7__cxx1112basic_stringIcSt11char_traitsIcESaIcEEE
libjsoncpp.so.24:_ZN4Json5ValueixEi
libjsoncpp.so.24:_ZN4Json5ValueixEj
libjsoncpp.so.24:_ZN4Json6Reader10addCommentEPKcS2_NS_16CommentPlacementE
libjsoncpp.so.24:_ZN4Json6Reader10readNumberEv
libjsoncpp.so.24:_ZN4Json6Reader10readObjectERNS0_5TokenE
libjsoncpp.so.24:_ZN4Json6Reader10readStringEv
libjsoncpp.so.24:_ZN4Json6Reader10skipSpacesEv
libjsoncpp.so.24:_ZN4Json6Reader11getNextCharEv
libjsoncpp.so.24:_ZN4Json6Reader11readCommentEv
libjsoncpp.so.24:_ZN4Json6Reader12currentValueEv
libjsoncpp.so.24:_ZN4Json6Reader12decodeDoubleERNS0_5TokenE
libjsoncpp.so.24:_ZN4Json6Reader12decodeDoubleERNS0_5TokenERNS_5ValueE
libjsoncpp.so.24:_ZN4Json6Reader12decodeNumberERNS0_5TokenE
libjsoncpp.so.24:_ZN4Json6Reader12decodeNumberERNS0_5TokenERNS_5ValueE
libjsoncpp.so.24:_ZN4Json6Reader12decodeStringERNS0_5TokenE
libjsoncpp.so.24:_ZN4Json6Reader12decodeStringERNS0_5TokenERNSt7__cxx1112basic_stringIcSt11char_traitsIcESaIcEEE
libjsoncpp.so.24:_ZN4Json6Reader12normalizeEOLB5cxx11EPKcS2_
libjsoncpp.so.24:_ZN4Json6Reader15containsNewLineEPKcS2_
libjsoncpp.so.24:_ZN4Json6Reader16recoverFromErrorENS0_9TokenTypeE
libjsoncpp.so.24:_ZN4Json6Reader17readCStyleCommentEv
libjsoncpp.so.24:_ZN4Json6Reader17skipCommentTokensERNS0_5TokenE
libjsoncpp.so.24:_ZN4Json6Reader18addErrorAndRecoverERKNSt7__cxx1112basic_stringIcSt11char_traitsIcESaIcEEERNS0_5TokenENS0_9TokenTypeE
libjsoncpp.so.24:_ZN4Json6Reader19readCppStyleCommentEv
libjsoncpp.so.24:_ZN4Json6Reader22decodeUnicodeCodePointERNS0_5TokenERPKcS4_Rj
libjsoncpp.so.24:_ZN4Json6Reader27decodeUnicodeEscapeSequenceERNS0_5TokenERPKcS4_Rj
libjsoncpp.so.24:_ZN4Json6Reader5matchEPKci
libjsoncpp.so.24:_ZN4Json6Reader5parseEPKcS2_RNS_5ValueEb
libjsoncpp.so.24:_ZN4Json6Reader5parseERKNSt7__cxx1112basic_stringIcSt11char_traitsIcESaIcEEERNS_5ValueEb
libjsoncpp.so.24:_ZN4Json6Reader5parseERSiRNS_5ValueEb
libjsoncpp.so.24:_ZN4Json6Reader8addErrorERKNSt7__cxx1112basic_stringIcSt11char_traitsIcESaIcEEERNS0_5TokenEPKc
libjsoncpp.so.24:_ZN4Json6Reader9pushErrorERKNS_5ValueERKNSt7__cxx1112basic_stringIcSt11char_traitsIcESaIcEEE
libjsoncpp.so.24:_ZN4Json6Reader9pushErrorERKNS_5ValueERKNSt7__cxx1112basic_stringIcSt11char_traitsIcESaIcEEES3_
libjsoncpp.so.24:_ZN4Json6Reader9readArrayERNS0_5TokenE
libjsoncpp.so.24:_ZN4Json6Reader9readTokenERNS0_5TokenE
libjsoncpp.so.24:_ZN4Json6Reader9readValueEv
libjsoncpp.so.24:_ZN4Json6ReaderC1ERKNS_8FeaturesE
libjsoncpp.so.24:_ZN4Json6ReaderC1Ev
libjsoncpp.so.24:_ZN4Json6ReaderC2ERKNS_8FeaturesE
libjsoncpp.so.24:_ZN4Json6ReaderC2Ev
libjsoncpp.so.24:_ZN4Json6WriterD0Ev
libjsoncpp.so.24:_ZN4Json6WriterD1Ev
libjsoncpp.so.24:_ZN4Json6WriterD2Ev
libjsoncpp.so.24:_ZN4Json8Features10strictModeEv
libjsoncpp.so.24:_ZN4Json8Features3allEv
libjsoncpp.so.24:_ZN4Json8FeaturesC1Ev
libjsoncpp.so.24:_ZN4Json8FeaturesC2Ev
libjsoncpp.so.24:_ZN4Json9ExceptionC1ENSt7__cxx1112basic_stringIcSt11char_traitsIcESaIcEEE
libjsoncpp.so.24:_ZN4Json9ExceptionC2ENSt7__cxx1112basic_stringIcSt11char_traitsIcESaIcEEE
libjsoncpp.so.24:_ZN4Json9ExceptionD0Ev
libjsoncpp.so.24:_ZN4Json9ExceptionD1Ev
libjsoncpp.so.24:_ZN4Json9ExceptionD2Ev
libjsoncpp.so.24:_ZN4Json9OurReader10addCommentEPKcS2_NS_16CommentPlacementE
libjsoncpp.so.24:_ZN4Json9OurReader10readNumberEb
libjsoncpp.so.24:_ZN4Json9OurReader10readObjectERNS0_5TokenE
libjsoncpp.so.24:_ZN4Json9OurReader10readStringEv
libjsoncpp.so.24:_ZN4Json9OurReader10skipSpacesEv
libjsoncpp.so.24:_ZN4Json9OurReader11getNextCharEv
libjsoncpp.so.24:_ZN4Json9OurReader11readCommentEv
libjsoncpp.so.24:_ZN4Json9OurReader12currentValueEv
libjsoncpp.so.24:_ZN4Json9OurReader12decodeDoubleERNS0_5TokenE
libjsoncpp.so.24:_ZN4Json9OurReader12decodeDoubleERNS0_5TokenERNS_5ValueE
libjsoncpp.so.24:_ZN4Json9OurReader12decodeNumberERNS0_5TokenE
libjsoncpp.so.24:_ZN4Json9OurReader12decodeNumberERNS0_5TokenERNS_5ValueE
libjsoncpp.so.24:_ZN4Json9OurReader12decodeStringERNS0_5TokenE
libjsoncpp.so.24:_ZN4Json9OurReader12decodeStringERNS0_5TokenERNSt7__cxx1112basic_stringIcSt11char_traitsIcESaIcEEE
libjsoncpp.so.24:_ZN4Json9OurReader12normalizeEOLB5cxx11EPKcS2_
libjsoncpp.so.24:_ZN4Json9OurReader15containsNewLineEPKcS2_
libjsoncpp.so.24:_ZN4Json9OurReader16recoverFromErrorENS0_9TokenTypeE
libjsoncpp.so.24:_ZN4Json9OurReader17readCStyleCommentEPb
libjsoncpp.so.24:_ZN4Json9OurReader17skipCommentTokensERNS0_5TokenE
libjsoncpp.so.24:_ZN4Json9OurReader18addErrorAndRecoverERKNSt7__cxx1112basic_stringIcSt11char_traitsIcESaIcEEERNS0_5TokenENS0_9TokenTypeE
libjsoncpp.so.24:_ZN4Json9OurReader19readCppStyleCommentEv
libjsoncpp.so.24:_ZN4Json9OurReader21readStringSingleQuoteEv
libjsoncpp.so.24:_ZN4Json9OurReader22decodeUnicodeCodePointERNS0_5TokenERPKcS4_Rj
libjsoncpp.so.24:_ZN4Json9OurReader27decodeUnicodeEscapeSequenceERNS0_5TokenERPKcS4_Rj
libjsoncpp.so.24:_ZN4Json9OurReader5matchEPKci
libjsoncpp.so.24:_ZN4Json9OurReader5parseEPKcS2_RNS_5ValueEb
libjsoncpp.so.24:_ZN4Json9OurReader7skipBomEb
libjsoncpp.so.24:_ZN4Json9OurReader8addErrorERKNSt7__cxx1112basic_stringIcSt11char_traitsIcESaIcEEERNS0_5TokenEPKc
libjsoncpp.so.24:_ZN4Json9OurReader9readArrayERNS0_5TokenE
libjsoncpp.so.24:_ZN4Json9OurReader9readTokenERNS0_5TokenE
libjsoncpp.so.24:_ZN4Json9OurReader9readValueEv
libjsoncpp.so.24:_ZN4Json9OurReaderC1ERKNS_11OurFeaturesE
libjsoncpp.so.24:_ZN4Json9OurReaderC2ERKNS_11OurFeaturesE
libjsoncpp.so.24:_ZN4JsonlsERSoRKNS_5ValueE
libjsoncpp.so.24:_ZN4JsonrsERSiRNS_5ValueE
libjsoncpp.so.24:_ZNK4Json17CharReaderBuilder13newCharReaderEv
libjsoncpp.so.24:_ZNK4Json17CharReaderBuilder8validateEPNS_5ValueE
libjsoncpp.so.24:_ZNK4Json17ValueIteratorBase10memberNameEPPKc
libjsoncpp.so.24:_ZNK4Json17ValueIteratorBase10memberNameEv
libjsoncpp.so.24:_ZNK4Json17ValueIteratorBase15computeDistanceERKS0_
libjsoncpp.so.24:_ZNK4Json17ValueIteratorBase3keyEv
libjsoncpp.so.24:_ZNK4Json17ValueIteratorBase4nameB5cxx11Ev
libjsoncpp.so.24:_ZNK4Json17ValueIteratorBase5derefEv
libjsoncpp.so.24:_ZNK4Json17ValueIteratorBase5indexEv
libjsoncpp.so.24:_ZNK4Json17ValueIteratorBase7isEqualERKS0_
libjsoncpp.so.24:_ZNK4Json19StreamWriterBuilder15newStreamWriterEv
libjsoncpp.so.24:_ZNK4Json19StreamWriterBuilder8validateEPNS_5ValueE
libjsoncpp.so.24:_ZNK4Json4Path4makeERNS_5ValueE
libjsoncpp.so.24:_ZNK4Json4Path7resolveERKNS_5ValueE
libjsoncpp.so.24:_ZNK4Json4Path7resolveERKNS_5ValueES3_
libjsoncpp.so.24:_ZNK4Json5Value10getCommentB5cxx11ENS_16CommentPlacementE
libjsoncpp.so.24:_ZNK4Json5Value10hasCommentENS_16CommentPlacementE
libjsoncpp.so.24:_ZNK4Json5Value10isIntegralEv
libjsoncpp.so.24:_ZNK4Json5Value12asLargestIntEv
libjsoncpp.so.24:_ZNK4Json5Value12isValidIndexEj
libjsoncpp.so.24:_ZNK4Json5Value13asLargestUIntEv
libjsoncpp.so.24:_ZNK4Json5Value14getMemberNamesB5cxx11Ev
libjsoncpp.so.24:_ZNK4Json5Value14getOffsetLimitEv
libjsoncpp.so.24:_ZNK4Json5Value14getOffsetStartEv
libjsoncpp.so.24:_ZNK4Json5Value14toStyledStringB5cxx11Ev
libjsoncpp.so.24:_ZNK4Json5Value15isConvertibleToENS_9ValueTypeE
libjsoncpp.so.24:_ZNK4Json5Value3endEv
libjsoncpp.so.24:_ZNK4Json5Value3getEPKcRKS0_
libjsoncpp.so.24:_ZNK4Json5Value3getEPKcS2_RKS0_
libjsoncpp.so.24:_ZNK4Json5Value3getERKNSt7__cxx1112basic_stringIcSt11char_traitsIcESaIcEEERKS0_
libjsoncpp.so.24:_ZNK4Json5Value3getEjRKS0_
libjsoncpp.so.24:_ZNK4Json5Value4findEPKcS2_
libjsoncpp.so.24:_ZNK4Json5Value4sizeEv
libjsoncpp.so.24:_ZNK4Json5Value4typeEv
libjsoncpp.so.24:_ZNK4Json5Value5asIntEv
libjsoncpp.so.24:_ZNK4Json5Value5beginEv
libjsoncpp.so.24:_ZNK4Json5Value5emptyEv
libjsoncpp.so.24:_ZNK4Json5Value5isIntEv
libjsoncpp.so.24:_ZNK4Json5Value6asBoolEv
libjsoncpp.so.24:_ZNK4Json5Value6asUIntEv
libjsoncpp.so.24:_ZNK4Json5Value6isBoolEv
libjsoncpp.so.24:_ZNK4Json5Value6isNullEv
libjsoncpp.so.24:_ZNK4Json5Value6isUIntEv
libjsoncpp.so.24:_ZNK4Json5Value7asFloatEv
libjsoncpp.so.24:_ZNK4Json5Value7asInt64Ev
libjsoncpp.so.24:_ZNK4Json5Value7compareERKS0_
libjsoncpp.so.24:_ZNK4Json5Value7isArrayEv
libjsoncpp.so.24:_ZNK4Json5Value7isInt64Ev
libjsoncpp.so.24:_ZNK4Json5Value8CZString14isStaticStringEv
libjsoncpp.so.24:_ZNK4Json5Value8CZString4dataEv
libjsoncpp.so.24:_ZNK4Json5Value8CZString5indexEv
libjsoncpp.so.24:_ZNK4Json5Value8CZString6lengthEv
libjsoncpp.so.24:_ZNK4Json5Value8CZStringeqERKS1_
libjsoncpp.so.24:_ZNK4Json5Value8CZStringltERKS1_
libjsoncpp.so.24:_ZNK4Json5Value8Comments3getB5cxx11ENS_16CommentPlacementE
libjsoncpp.so.24:_ZNK4Json5Value8Comments3hasENS_16CommentPlacementE
libjsoncpp.so.24:_ZNK4Json5Value8asDoubleEv
libjsoncpp.so.24:_ZNK4Json5Value8asStringB5cxx11Ev
libjsoncpp.so.24:_ZNK4Json5Value8asUInt64Ev
libjsoncpp.so.24:_ZNK4Json5Value8isDoubleEv
libjsoncpp.so.24:_ZNK4Json5Value8isMemberEPKc
libjsoncpp.so.24:_ZNK4Json5Value8isMemberEPKcS2_
libjsoncpp.so.24:_ZNK4Json5Value8isMemberERKNSt7__cxx1112basic_stringIcSt11char_traitsIcESaIcEEE
libjsoncpp.so.24:_ZNK4Json5Value8isObjectEv
libjsoncpp.so.24:_ZNK4Json5Value8isStringEv
libjsoncpp.so.24:_ZNK4Json5Value8isUInt64Ev
libjsoncpp.so.24:_ZNK4Json5Value9asCStringEv
libjsoncpp.so.24:_ZNK4Json5Value9getStringEPPKcS3_
libjsoncpp.so.24:_ZNK4Json5Value9isNumericEv
libjsoncpp.so.24:_ZNK4Json5ValuecvbEv
libjsoncpp.so.24:_ZNK4Json5ValueeqERKS0_
libjsoncpp.so.24:_ZNK4Json5ValuegeERKS0_
libjsoncpp.so.24:_ZNK4Json5ValuegtERKS0_
libjsoncpp.so.24:_ZNK4Json5ValueixEPKc
libjsoncpp.so.24:_ZNK4Json5ValueixERKNSt7__cxx1112basic_stringIcSt11char_traitsIcESaIcEEE
libjsoncpp.so.24:_ZNK4Json5ValueixEi
libjsoncpp.so.24:_ZNK4Json5ValueixEj
libjsoncpp.so.24:_ZNK4Json5ValueleERKS0_
libjsoncpp.so.24:_ZNK4Json5ValueltERKS0_
libjsoncpp.so.24:_ZNK4Json5ValueneERKS0_
libjsoncpp.so.24:_ZNK4Json6Reader19getStructuredErrorsEv
libjsoncpp.so.24:_ZNK4Json6Reader24getFormatedErrorMessagesB5cxx11Ev
libjsoncpp.so.24:_ZNK4Json6Reader24getLocationLineAndColumnB5cxx11EPKc
libjsoncpp.so.24:_ZNK4Json6Reader24getLocationLineAndColumnEPKcRiS3_
libjsoncpp.so.24:_ZNK4Json6Reader25getFormattedErrorMessagesB5cxx11Ev
libjsoncpp.so.24:_ZNK4Json6Reader4goodEv
libjsoncpp.so.24:_ZNK4Json9Exception4whatEv
libjsoncpp.so.24:_ZNK4Json9OurReader19getStructuredErrorsEv
libjsoncpp.so.24:_ZNK4Json9OurReader24getLocationLineAndColumnB5cxx11EPKc
libjsoncpp.so.24:_ZNK4Json9OurReader24getLocationLineAndColumnEPKcRiS3_
libjsoncpp.so.24:_ZNK4Json9OurReader25getFormattedErrorMessagesB5cxx11Ev
liblber.so.2:ber_alloc
liblber.so.2:ber_alloc_t
liblber.so.2:ber_bprint
liblber.so.2:ber_bvarray_add
liblber.so.2:ber_bvarray_add_x
liblber.so.2:ber_bvarray_dup_x
liblber.so.2:ber_bvarray_free
liblber.so.2:ber_bvarray_free_x
liblber.so.2:ber_bvdup
liblber.so.2:ber_bvecadd
liblber.so.2:ber_bvecadd_x
liblber.so.2:ber_bvecfree
liblber.so.2:ber_bvecfree_x
liblber.so.2:ber_bvfree
liblber.so.2:ber_bvfree_x
liblber.so.2:ber_bvreplace
liblber.so.2:ber_bvreplace_x
liblber.so.2:ber_decode_int
liblber.so.2:ber_decode_oid
liblber.so.2:ber_dump
liblber.so.2:ber_dup
liblber.so.2:ber_dupbv
liblber.so.2:ber_dupbv_x
liblber.so.2:ber_encode_oid
liblber.so.2:ber_errno_addr
liblber.so.2:ber_error_print
liblber.so.2:ber_first_element
liblber.so.2:ber_flatten
liblber.so.2:ber_flatten2
liblber.so.2:ber_flush
liblber.so.2:ber_flush2
liblber.so.2:ber_free
liblber.so.2:ber_free_buf
liblber.so.2:ber_get_bitstringa
liblber.so.2:ber_get_boolean
liblber.so.2:ber_get_enum
liblber.so.2:ber_get_int
liblber.so.2:ber_get_next
liblber.so.2:ber_get_null
liblber.so.2:ber_get_option
liblber.so.2:ber_get_stringa
liblber.so.2:ber_get_stringa_null
liblber.so.2:ber_get_stringal
liblber.so.2:ber_get_stringb
liblber.so.2:ber_get_stringbv
liblber.so.2:ber_get_stringbv_null
liblber.so.2:ber_get_tag
liblber.so.2:ber_init
liblber.so.2:ber_init2
liblber.so.2:ber_init_w_nullc
liblber.so.2:ber_int_errno_fn
liblber.so.2:ber_int_log_proc
liblber.so.2:ber_int_memory_fns
liblber.so.2:ber_int_options
liblber.so.2:ber_int_sb_close
liblber.so.2:ber_int_sb_destroy
liblber.so.2:ber_int_sb_init
liblber.so.2:ber_int_sb_read
liblber.so.2:ber_int_sb_write
liblber.so.2:ber_len
liblber.so.2:ber_log_bprint
liblber.so.2:ber_log_dump
liblber.so.2:ber_log_sos_dump
liblber.so.2:ber_mem2bv
liblber.so.2:ber_mem2bv_x
liblber.so.2:ber_memalloc
liblber.so.2:ber_memalloc_x
liblber.so.2:ber_memcalloc
liblber.so.2:ber_memcalloc_x
liblber.so.2:ber_memfree
liblber.so.2:ber_memfree_x
liblber.so.2:ber_memrealloc
liblber.so.2:ber_memrealloc_x
liblber.so.2:ber_memvfree
liblber.so.2:ber_memvfree_x
liblber.so.2:ber_next_element
liblber.so.2:ber_peek_element
liblber.so.2:ber_peek_tag
liblber.so.2:ber_printf
liblber.so.2:ber_ptrlen
liblber.so.2:ber_put_berval
liblber.so.2:ber_put_bitstring
liblber.so.2:ber_put_boolean
liblber.so.2:ber_put_enum
liblber.so.2:ber_put_int
liblber.so.2:ber_put_null
liblber.so.2:ber_put_ostring
liblber.so.2:ber_put_seq
liblber.so.2:ber_put_set
liblber.so.2:ber_put_string
liblber.so.2:ber_pvt_err_file
liblber.so.2:ber_pvt_log_output
liblber.so.2:ber_pvt_log_print
liblber.so.2:ber_pvt_log_printf
liblber.so.2:ber_pvt_opt_on
liblber.so.2:ber_pvt_sb_buf_destroy
liblber.so.2:ber_pvt_sb_buf_init
liblber.so.2:ber_pvt_sb_copy_out
liblber.so.2:ber_pvt_sb_do_write
liblber.so.2:ber_pvt_sb_grow_buffer
liblber.so.2:ber_pvt_socket_set_nonblock
liblber.so.2:ber_read
liblber.so.2:ber_realloc
liblber.so.2:ber_remaining
liblber.so.2:ber_reset
liblber.so.2:ber_rewind
liblber.so.2:ber_scanf
liblber.so.2:ber_set_option
liblber.so.2:ber_skip_data
liblber.so.2:ber_skip_element
liblber.so.2:ber_skip_raw
liblber.so.2:ber_skip_tag
liblber.so.2:ber_sockbuf_add_io
liblber.so.2:ber_sockbuf_alloc
liblber.so.2:ber_sockbuf_ctrl
liblber.so.2:ber_sockbuf_free
liblber.so.2:ber_sockbuf_io_debug
liblber.so.2:ber_sockbuf_io_fd
liblber.so.2:ber_sockbuf_io_readahead
liblber.so.2:ber_sockbuf_io_tcp
liblber.so.2:ber_sockbuf_remove_io
liblber.so.2:ber_sos_dump
liblber.so.2:ber_start
liblber.so.2:ber_start_seq
liblber.so.2:ber_start_set
liblber.so.2:ber_str2bv
liblber.so.2:ber_str2bv_x
liblber.so.2:ber_strdup
liblber.so.2:ber_strdup_x
liblber.so.2:ber_strndup
liblber.so.2:ber_strndup_x
liblber.so.2:ber_strnlen
liblber.so.2:ber_write
liblber.so.2:der_alloc
liblber.so.2:lutil_debug
liblber.so.2:lutil_debug_file
libldap.so.2:ldap_X509dn2bv
libldap.so.2:ldap_abandon
libldap.so.2:ldap_abandon_ext
libldap.so.2:ldap_add
libldap.so.2:ldap_add_ext
libldap.so.2:ldap_add_ext_s
libldap.so.2:ldap_add_result_entry
libldap.so.2:ldap_add_s
libldap.so.2:ldap_alloc_ber_with_options
libldap.so.2:ldap_append_referral
libldap.so.2:ldap_attributetype2bv
libldap.so.2:ldap_attributetype2name
libldap.so.2:ldap_attributetype2str
libldap.so.2:ldap_attributetype_free
libldap.so.2:ldap_avl_apply
libldap.so.2:ldap_avl_delete
libldap.so.2:ldap_avl_dup_error
libldap.so.2:ldap_avl_dup_ok
libldap.so.2:ldap_avl_find
libldap.so.2:ldap_avl_find2
libldap.so.2:ldap_avl_find_lin
libldap.so.2:ldap_avl_free
libldap.so.2:ldap_avl_getfirst
libldap.so.2:ldap_avl_getnext
libldap.so.2:ldap_avl_insert
libldap.so.2:ldap_avl_prefixapply
libldap.so.2:ldap_bind
libldap.so.2:ldap_bind_s
libldap.so.2:ldap_build_add_req
libldap.so.2:ldap_build_bind_req
libldap.so.2:ldap_build_compare_req
libldap.so.2:ldap_build_delete_req
libldap.so.2:ldap_build_extended_req
libldap.so.2:ldap_build_moddn_req
libldap.so.2:ldap_build_modify_req
libldap.so.2:ldap_build_search_req
libldap.so.2:ldap_bv2dn
libldap.so.2:ldap_bv2dn_x
libldap.so.2:ldap_bv2escaped_filter_value
libldap.so.2:ldap_bv2escaped_filter_value_len
libldap.so.2:ldap_bv2escaped_filter_value_x
libldap.so.2:ldap_bv2rdn
libldap.so.2:ldap_bv2rdn_x
libldap.so.2:ldap_cancel
libldap.so.2:ldap_cancel_s
libldap.so.2:ldap_charray2str
libldap.so.2:ldap_charray_add
libldap.so.2:ldap_charray_dup
libldap.so.2:ldap_charray_free
libldap.so.2:ldap_charray_inlist
libldap.so.2:ldap_charray_merge
libldap.so.2:ldap_chase_referrals
libldap.so.2:ldap_chase_v3referrals
libldap.so.2:ldap_clear_select_write
libldap.so.2:ldap_compare
libldap.so.2:ldap_compare_ext
libldap.so.2:ldap_compare_ext_s
libldap.so.2:ldap_compare_s
libldap.so.2:ldap_connect
libldap.so.2:ldap_connect_to_host
libldap.so.2:ldap_connect_to_path
libldap.so.2:ldap_contentrule2bv
libldap.so.2:ldap_contentrule2name
libldap.so.2:ldap_contentrule2str
libldap.so.2:ldap_contentrule_free
libldap.so.2:ldap_control_create
libldap.so.2:ldap_control_dup
libldap.so.2:ldap_control_find
libldap.so.2:ldap_control_free
libldap.so.2:ldap_controls_dup
libldap.so.2:ldap_controls_free
libldap.so.2:ldap_count_entries
libldap.so.2:ldap_count_messages
libldap.so.2:ldap_count_references
libldap.so.2:ldap_count_values
libldap.so.2:ldap_count_values_len
libldap.so.2:ldap_create
libldap.so.2:ldap_create_accountusability_control
libldap.so.2:ldap_create_assertion_control
libldap.so.2:ldap_create_assertion_control_value
libldap.so.2:ldap_create_control
libldap.so.2:ldap_create_deref_control
libldap.so.2:ldap_create_deref_control_value
libldap.so.2:ldap_create_dirsync_control
libldap.so.2:ldap_create_dirsync_value
libldap.so.2:ldap_create_extended_dn_control
libldap.so.2:ldap_create_extended_dn_value
libldap.so.2:ldap_create_page_control
libldap.so.2:ldap_create_page_control_value
libldap.so.2:ldap_create_passwordpolicy_control
libldap.so.2:ldap_create_persistentsearch_control
libldap.so.2:ldap_create_persistentsearch_control_value
libldap.so.2:ldap_create_server_notification_control
libldap.so.2:ldap_create_session_tracking_control
libldap.so.2:ldap_create_session_tracking_value
libldap.so.2:ldap_create_show_deleted_control
libldap.so.2:ldap_create_sort_control
libldap.so.2:ldap_create_sort_control_value
libldap.so.2:ldap_create_sort_keylist
libldap.so.2:ldap_create_vlv_control
libldap.so.2:ldap_create_vlv_control_value
libldap.so.2:ldap_dcedn2dn
libldap.so.2:ldap_delete
libldap.so.2:ldap_delete_ext
libldap.so.2:ldap_delete_ext_s
libldap.so.2:ldap_delete_result_entry
libldap.so.2:ldap_delete_s
libldap.so.2:ldap_derefresponse_free
libldap.so.2:ldap_destroy
libldap.so.2:ldap_dn2ad_canonical
libldap.so.2:ldap_dn2bv
libldap.so.2:ldap_dn2bv_x
libldap.so.2:ldap_dn2dcedn
libldap.so.2:ldap_dn2domain
libldap.so.2:ldap_dn2str
libldap.so.2:ldap_dn2ufn
libldap.so.2:ldap_dn_normalize
libldap.so.2:ldap_dnfree
libldap.so.2:ldap_dnfree_x
libldap.so.2:ldap_do_free_request
libldap.so.2:ldap_domain2dn
libldap.so.2:ldap_domain2hostlist
libldap.so.2:ldap_dump_connection
libldap.so.2:ldap_dump_requests_and_responses
libldap.so.2:ldap_dup
libldap.so.2:ldap_err2string
libldap.so.2:ldap_explode_dn
libldap.so.2:ldap_explode_rdn
libldap.so.2:ldap_extended_operation
libldap.so.2:ldap_extended_operation_s
libldap.so.2:ldap_find_control
libldap.so.2:ldap_find_request_by_msgid
libldap.so.2:ldap_first_attribute
libldap.so.2:ldap_first_entry
libldap.so.2:ldap_first_message
libldap.so.2:ldap_first_reference
libldap.so.2:ldap_free_connection
libldap.so.2:ldap_free_request
libldap.so.2:ldap_free_select_info
libldap.so.2:ldap_free_sort_keylist
libldap.so.2:ldap_free_urldesc
libldap.so.2:ldap_free_urllist
libldap.so.2:ldap_get_attribute_ber
libldap.so.2:ldap_get_dn
libldap.so.2:ldap_get_dn_ber
libldap.so.2:ldap_get_entry_controls
libldap.so.2:ldap_get_message_ber
libldap.so.2:ldap_get_option
libldap.so.2:ldap_get_values
libldap.so.2:ldap_get_values_len
libldap.so.2:ldap_init
libldap.so.2:ldap_init_fd
libldap.so.2:ldap_initialize
libldap.so.2:ldap_install_tls
libldap.so.2:ldap_int_bisect_delete
libldap.so.2:ldap_int_bisect_find
libldap.so.2:ldap_int_bisect_insert
libldap.so.2:ldap_int_check_async_open
libldap.so.2:ldap_int_client_controls
libldap.so.2:ldap_int_connect_cbs
libldap.so.2:ldap_int_decode_b64_inplace
libldap.so.2:ldap_int_error_init
libldap.so.2:ldap_int_flush_request
libldap.so.2:ldap_int_global_options
libldap.so.2:ldap_int_hostname
libldap.so.2:ldap_int_hostname_mutex
libldap.so.2:ldap_int_inet4or6
libldap.so.2:ldap_int_initialize
libldap.so.2:ldap_int_initialize_global_options
libldap.so.2:ldap_int_msgtype2str
libldap.so.2:ldap_int_open_connection
libldap.so.2:ldap_int_parse_numericoid
libldap.so.2:ldap_int_parse_ruleid
libldap.so.2:ldap_int_poll
libldap.so.2:ldap_int_put_controls
libldap.so.2:ldap_int_resolv_mutex
libldap.so.2:ldap_int_sasl_bind
libldap.so.2:ldap_int_sasl_close
libldap.so.2:ldap_int_sasl_external
libldap.so.2:ldap_int_sasl_init
libldap.so.2:ldap_int_select
libldap.so.2:ldap_int_stackguard
libldap.so.2:ldap_int_thread_destroy
libldap.so.2:ldap_int_thread_initialize
libldap.so.2:ldap_int_thread_pool_shutdown
libldap.so.2:ldap_int_thread_pool_startup
libldap.so.2:ldap_int_timeval_dup
libldap.so.2:ldap_int_tls_destroy
libldap.so.2:ldap_int_tls_impl
libldap.so.2:ldap_int_tls_start
libldap.so.2:ldap_int_utils_init
libldap.so.2:ldap_is_ldap_url
libldap.so.2:ldap_is_ldapi_url
libldap.so.2:ldap_is_ldaps_url
libldap.so.2:ldap_is_read_ready
libldap.so.2:ldap_is_write_ready
libldap.so.2:ldap_ld_free
libldap.so.2:ldap_ldif_record_done
libldap.so.2:ldap_log_printf
libldap.so.2:ldap_mark_select_clear
libldap.so.2:ldap_mark_select_read
libldap.so.2:ldap_mark_select_write
libldap.so.2:ldap_matchingrule2bv
libldap.so.2:ldap_matchingrule2name
libldap.so.2:ldap_matchingrule2str
libldap.so.2:ldap_matchingrule_free
libldap.so.2:ldap_matchingruleuse2bv
libldap.so.2:ldap_matchingruleuse2name
libldap.so.2:ldap_matchingruleuse2str
libldap.so.2:ldap_matchingruleuse_free
libldap.so.2:ldap_memalloc
libldap.so.2:ldap_memcalloc
libldap.so.2:ldap_memfree
libldap.so.2:ldap_memrealloc
libldap.so.2:ldap_memvfree
libldap.so.2:ldap_modify
libldap.so.2:ldap_modify_ext
libldap.so.2:ldap_modify_ext_s
libldap.so.2:ldap_modify_s
libldap.so.2:ldap_modrdn
libldap.so.2:ldap_modrdn2
libldap.so.2:ldap_modrdn2_s
libldap.so.2:ldap_modrdn_s
libldap.so.2:ldap_mods_free
libldap.so.2:ldap_msgdelete
libldap.so.2:ldap_msgfree
libldap.so.2:ldap_msgid
libldap.so.2:ldap_msgtype
libldap.so.2:ldap_nameform2bv
libldap.so.2:ldap_nameform2name
libldap.so.2:ldap_nameform2str
libldap.so.2:ldap_nameform_free
libldap.so.2:ldap_new_connection
libldap.so.2:ldap_new_select_info
libldap.so.2:ldap_next_attribute
libldap.so.2:ldap_next_entry
libldap.so.2:ldap_next_message
libldap.so.2:ldap_next_reference
libldap.so.2:ldap_objectclass2bv
libldap.so.2:ldap_objectclass2name
libldap.so.2:ldap_objectclass2str
libldap.so.2:ldap_objectclass_free
libldap.so.2:ldap_open
libldap.so.2:ldap_open_defconn
libldap.so.2:ldap_open_internal_connection
libldap.so.2:ldap_parse_accountusability_control
libldap.so.2:ldap_parse_deref_control
libldap.so.2:ldap_parse_derefresponse_control
libldap.so.2:ldap_parse_dirsync_control
libldap.so.2:ldap_parse_entrychange_control
libldap.so.2:ldap_parse_extended_result
libldap.so.2:ldap_parse_intermediate
libldap.so.2:ldap_parse_ldif_record
libldap.so.2:ldap_parse_ldif_record_x
libldap.so.2:ldap_parse_page_control
libldap.so.2:ldap_parse_pageresponse_control
libldap.so.2:ldap_parse_passwd
libldap.so.2:ldap_parse_password_expiring_control
libldap.so.2:ldap_parse_passwordpolicy_control
libldap.so.2:ldap_parse_reference
libldap.so.2:ldap_parse_refresh
libldap.so.2:ldap_parse_result
libldap.so.2:ldap_parse_sasl_bind_result
libldap.so.2:ldap_parse_session_tracking_control
libldap.so.2:ldap_parse_sortresponse_control
libldap.so.2:ldap_parse_verify_credentials
libldap.so.2:ldap_parse_vlvresponse_control
libldap.so.2:ldap_parse_whoami
libldap.so.2:ldap_passwd
libldap.so.2:ldap_passwd_s
libldap.so.2:ldap_passwordpolicy_err2txt
libldap.so.2:ldap_perror
libldap.so.2:ldap_put_vrFilter
libldap.so.2:ldap_pvt_bv2scope
libldap.so.2:ldap_pvt_conf_option
libldap.so.2:ldap_pvt_csnstr
libldap.so.2:ldap_pvt_ctime
libldap.so.2:ldap_pvt_discard
libldap.so.2:ldap_pvt_filter_value_unescape
libldap.so.2:ldap_pvt_find_wildcard
libldap.so.2:ldap_pvt_get_controls
libldap.so.2:ldap_pvt_get_fqdn
libldap.so.2:ldap_pvt_get_hname
libldap.so.2:ldap_pvt_gethostbyaddr_a
libldap.so.2:ldap_pvt_gethostbyname_a
libldap.so.2:ldap_pvt_gettime
libldap.so.2:ldap_pvt_hex_unescape
libldap.so.2:ldap_pvt_put_control
libldap.so.2:ldap_pvt_put_filter
libldap.so.2:ldap_pvt_runqueue_find
libldap.so.2:ldap_pvt_runqueue_insert
libldap.so.2:ldap_pvt_runqueue_isrunning
libldap.so.2:ldap_pvt_runqueue_next_sched
libldap.so.2:ldap_pvt_runqueue_persistent_backload
libldap.so.2:ldap_pvt_runqueue_remove
libldap.so.2:ldap_pvt_runqueue_resched
libldap.so.2:ldap_pvt_runqueue_runtask
libldap.so.2:ldap_pvt_runqueue_stoptask
libldap.so.2:ldap_pvt_sasl_generic_install
libldap.so.2:ldap_pvt_sasl_generic_remove
libldap.so.2:ldap_pvt_sasl_getmechs
libldap.so.2:ldap_pvt_scope2bv
libldap.so.2:ldap_pvt_scope2str
libldap.so.2:ldap_pvt_search
libldap.so.2:ldap_pvt_search_s
libldap.so.2:ldap_pvt_sockaddrstr
libldap.so.2:ldap_pvt_sockbuf_io_sasl_generic
libldap.so.2:ldap_pvt_str2lower
libldap.so.2:ldap_pvt_str2lowerbv
libldap.so.2:ldap_pvt_str2scope
libldap.so.2:ldap_pvt_str2upper
libldap.so.2:ldap_pvt_str2upperbv
libldap.so.2:ldap_pvt_strtok
libldap.so.2:ldap_pvt_thread_cond_broadcast
libldap.so.2:ldap_pvt_thread_cond_destroy
libldap.so.2:ldap_pvt_thread_cond_init
libldap.so.2:ldap_pvt_thread_cond_signal
libldap.so.2:ldap_pvt_thread_cond_wait
libldap.so.2:ldap_pvt_thread_create
libldap.so.2:ldap_pvt_thread_destroy
libldap.so.2:ldap_pvt_thread_exit
libldap.so.2:ldap_pvt_thread_get_concurrency
libldap.so.2:ldap_pvt_thread_initialize
libldap.so.2:ldap_pvt_thread_join
libldap.so.2:ldap_pvt_thread_key_create
libldap.so.2:ldap_pvt_thread_key_destroy
libldap.so.2:ldap_pvt_thread_key_getdata
libldap.so.2:ldap_pvt_thread_key_setdata
libldap.so.2:ldap_pvt_thread_kill
libldap.so.2:ldap_pvt_thread_mutex_destroy
libldap.so.2:ldap_pvt_thread_mutex_init
libldap.so.2:ldap_pvt_thread_mutex_lock
libldap.so.2:ldap_pvt_thread_mutex_recursive_init
libldap.so.2:ldap_pvt_thread_mutex_trylock
libldap.so.2:ldap_pvt_thread_mutex_unlock
libldap.so.2:ldap_pvt_thread_pool_backload
libldap.so.2:ldap_pvt_thread_pool_close
libldap.so.2:ldap_pvt_thread_pool_context
libldap.so.2:ldap_pvt_thread_pool_context_reset
libldap.so.2:ldap_pvt_thread_pool_destroy
libldap.so.2:ldap_pvt_thread_pool_free
libldap.so.2:ldap_pvt_thread_pool_getkey
libldap.so.2:ldap_pvt_thread_pool_idle
libldap.so.2:ldap_pvt_thread_pool_init
libldap.so.2:ldap_pvt_thread_pool_init_q
libldap.so.2:ldap_pvt_thread_pool_maxthreads
libldap.so.2:ldap_pvt_thread_pool_pause
libldap.so.2:ldap_pvt_thread_pool_pausecheck_native
libldap.so.2:ldap_pvt_thread_pool_pausequery
libldap.so.2:ldap_pvt_thread_pool_pausewait
libldap.so.2:ldap_pvt_thread_pool_pausing
libldap.so.2:ldap_pvt_thread_pool_purgekey
libldap.so.2:ldap_pvt_thread_pool_query
libldap.so.2:ldap_pvt_thread_pool_queues
libldap.so.2:ldap_pvt_thread_pool_resume
libldap.so.2:ldap_pvt_thread_pool_retract
libldap.so.2:ldap_pvt_thread_pool_setkey
libldap.so.2:ldap_pvt_thread_pool_submit
libldap.so.2:ldap_pvt_thread_pool_submit2
libldap.so.2:ldap_pvt_thread_pool_tid
libldap.so.2:ldap_pvt_thread_pool_unidle
libldap.so.2:ldap_pvt_thread_pool_walk
libldap.so.2:ldap_pvt_thread_rdwr_destroy
libldap.so.2:ldap_pvt_thread_rdwr_init
libldap.so.2:ldap_pvt_thread_rdwr_rlock
libldap.so.2:ldap_pvt_thread_rdwr_rtrylock
libldap.so.2:ldap_pvt_thread_rdwr_runlock
libldap.so.2:ldap_pvt_thread_rdwr_wlock
libldap.so.2:ldap_pvt_thread_rdwr_wtrylock
libldap.so.2:ldap_pvt_thread_rdwr_wunlock
libldap.so.2:ldap_pvt_thread_self
libldap.so.2:ldap_pvt_thread_set_concurrency
libldap.so.2:ldap_pvt_thread_sleep
libldap.so.2:ldap_pvt_thread_yield
libldap.so.2:ldap_pvt_tls_accept
libldap.so.2:ldap_pvt_tls_check_hostname
libldap.so.2:ldap_pvt_tls_config
libldap.so.2:ldap_pvt_tls_connect
libldap.so.2:ldap_pvt_tls_ctx_free
libldap.so.2:ldap_pvt_tls_destroy
libldap.so.2:ldap_pvt_tls_get_cipher
libldap.so.2:ldap_pvt_tls_get_endpoint
libldap.so.2:ldap_pvt_tls_get_my_dn
libldap.so.2:ldap_pvt_tls_get_option
libldap.so.2:ldap_pvt_tls_get_peer_dn
libldap.so.2:ldap_pvt_tls_get_peercert
libldap.so.2:ldap_pvt_tls_get_strength
libldap.so.2:ldap_pvt_tls_get_unique
libldap.so.2:ldap_pvt_tls_get_version
libldap.so.2:ldap_pvt_tls_init
libldap.so.2:ldap_pvt_tls_init_def_ctx
libldap.so.2:ldap_pvt_tls_inplace
libldap.so.2:ldap_pvt_tls_sb_ctx
libldap.so.2:ldap_pvt_tls_set_option
libldap.so.2:ldap_pvt_url_scheme2proto
libldap.so.2:ldap_pvt_url_scheme2proxied
libldap.so.2:ldap_pvt_url_scheme2tls
libldap.so.2:ldap_pvt_url_scheme_port
libldap.so.2:ldap_rdn2bv
libldap.so.2:ldap_rdn2bv_x
libldap.so.2:ldap_rdn2str
libldap.so.2:ldap_rdnfree
libldap.so.2:ldap_rdnfree_x
libldap.so.2:ldap_refresh
libldap.so.2:ldap_refresh_s
libldap.so.2:ldap_rename
libldap.so.2:ldap_rename2
libldap.so.2:ldap_rename2_s
libldap.so.2:ldap_rename_s
libldap.so.2:ldap_req_cmp
libldap.so.2:ldap_result
libldap.so.2:ldap_result2error
libldap.so.2:ldap_return_request
libldap.so.2:ldap_sasl_bind
libldap.so.2:ldap_sasl_bind_s
libldap.so.2:ldap_sasl_interactive_bind
libldap.so.2:ldap_sasl_interactive_bind_s
libldap.so.2:ldap_scherr2str
libldap.so.2:ldap_search
libldap.so.2:ldap_search_ext
libldap.so.2:ldap_search_ext_s
libldap.so.2:ldap_search_s
libldap.so.2:ldap_search_st
libldap.so.2:ldap_send_initial_request
libldap.so.2:ldap_send_server_request
libldap.so.2:ldap_send_unbind
libldap.so.2:ldap_set_ber_options
libldap.so.2:ldap_set_nextref_proc
libldap.so.2:ldap_set_option
libldap.so.2:ldap_set_rebind_proc
libldap.so.2:ldap_set_urllist_proc
libldap.so.2:ldap_simple_bind
libldap.so.2:ldap_simple_bind_s
libldap.so.2:ldap_sort_entries
libldap.so.2:ldap_sort_strcasecmp
libldap.so.2:ldap_sort_values
libldap.so.2:ldap_start_tls
libldap.so.2:ldap_start_tls_s
libldap.so.2:ldap_str2attributetype
libldap.so.2:ldap_str2charray
libldap.so.2:ldap_str2contentrule
libldap.so.2:ldap_str2dn
libldap.so.2:ldap_str2matchingrule
libldap.so.2:ldap_str2matchingruleuse
libldap.so.2:ldap_str2nameform
libldap.so.2:ldap_str2objectclass
libldap.so.2:ldap_str2rdn
libldap.so.2:ldap_str2structurerule
libldap.so.2:ldap_str2syntax
libldap.so.2:ldap_strdup
libldap.so.2:ldap_structurerule2bv
libldap.so.2:ldap_structurerule2name
libldap.so.2:ldap_structurerule2str
libldap.so.2:ldap_structurerule_free
libldap.so.2:ldap_sync_destroy
libldap.so.2:ldap_sync_init
libldap.so.2:ldap_sync_init_refresh_and_persist
libldap.so.2:ldap_sync_init_refresh_only
libldap.so.2:ldap_sync_initialize
libldap.so.2:ldap_sync_poll
libldap.so.2:ldap_syntax2bv
libldap.so.2:ldap_syntax2name
libldap.so.2:ldap_syntax2str
libldap.so.2:ldap_syntax_free
libldap.so.2:ldap_tavl_delete
libldap.so.2:ldap_tavl_end
libldap.so.2:ldap_tavl_find
libldap.so.2:ldap_tavl_find2
libldap.so.2:ldap_tavl_find3
libldap.so.2:ldap_tavl_free
libldap.so.2:ldap_tavl_insert
libldap.so.2:ldap_tavl_next
libldap.so.2:ldap_tls_inplace
libldap.so.2:ldap_turn
libldap.so.2:ldap_turn_s
libldap.so.2:ldap_txn_end
libldap.so.2:ldap_txn_end_s
libldap.so.2:ldap_txn_start
libldap.so.2:ldap_txn_start_s
libldap.so.2:ldap_ucs_to_utf8s
libldap.so.2:ldap_unbind
libldap.so.2:ldap_unbind_ext
libldap.so.2:ldap_unbind_ext_s
libldap.so.2:ldap_unbind_s
libldap.so.2:ldap_url_desc2str
libldap.so.2:ldap_url_dup
libldap.so.2:ldap_url_duplist
libldap.so.2:ldap_url_list2hosts
libldap.so.2:ldap_url_list2urls
libldap.so.2:ldap_url_parse
libldap.so.2:ldap_url_parse_ext
libldap.so.2:ldap_url_parsehosts
libldap.so.2:ldap_url_parselist
libldap.so.2:ldap_url_parselist_ext
libldap.so.2:ldap_utf8_bytes
libldap.so.2:ldap_utf8_charlen
libldap.so.2:ldap_utf8_charlen2
libldap.so.2:ldap_utf8_chars
libldap.so.2:ldap_utf8_copy
libldap.so.2:ldap_utf8_isalnum
libldap.so.2:ldap_utf8_isalpha
libldap.so.2:ldap_utf8_isascii
libldap.so.2:ldap_utf8_isdigit
libldap.so.2:ldap_utf8_islower
libldap.so.2:ldap_utf8_isspace
libldap.so.2:ldap_utf8_isupper
libldap.so.2:ldap_utf8_isxdigit
libldap.so.2:ldap_utf8_lentab
libldap.so.2:ldap_utf8_mintab
libldap.so.2:ldap_utf8_next
libldap.so.2:ldap_utf8_offset
libldap.so.2:ldap_utf8_prev
libldap.so.2:ldap_utf8_strchr
libldap.so.2:ldap_utf8_strcspn
libldap.so.2:ldap_utf8_strpbrk
libldap.so.2:ldap_utf8_strspn
libldap.so.2:ldap_utf8_strtok
libldap.so.2:ldap_validate_and_fill_sourceip
libldap.so.2:ldap_value_dup
libldap.so.2:ldap_value_free
libldap.so.2:ldap_value_free_len
libldap.so.2:ldap_verify_credentials
libldap.so.2:ldap_verify_credentials_s
libldap.so.2:ldap_whoami
libldap.so.2:ldap_whoami_s
libldap.so.2:ldap_x_mb_to_utf8
libldap.so.2:ldap_x_mbs_to_utf8s
libldap.so.2:ldap_x_ucs4_to_utf8
libldap.so.2:ldap_x_utf8_to_mb
libldap.so.2:ldap_x_utf8_to_ucs4
libldap.so.2:ldap_x_utf8_to_wc
libldap.so.2:ldap_x_utf8s_to_mbs
libldap.so.2:ldap_x_utf8s_to_wcs
libldap.so.2:ldap_x_wc_to_utf8
libldap.so.2:ldap_x_wcs_to_utf8s
libldap.so.2:ldif_close
libldap.so.2:ldif_countlines
libldap.so.2:ldif_debug
libldap.so.2:ldif_fetch_url
libldap.so.2:ldif_getline
libldap.so.2:ldif_is_not_printable
libldap.so.2:ldif_must_b64_encode_register
libldap.so.2:ldif_must_b64_encode_release
libldap.so.2:ldif_open
libldap.so.2:ldif_open_mem
libldap.so.2:ldif_open_url
libldap.so.2:ldif_parse_line
libldap.so.2:ldif_parse_line2
libldap.so.2:ldif_put
libldap.so.2:ldif_put_wrap
libldap.so.2:ldif_read_record
libldap.so.2:ldif_sput
libldap.so.2:ldif_sput_wrap
liblime.so.0:_ZN4lime11LimeManager11create_userERKNSt7__cxx1112basic_stringIcSt11char_traitsIcESaIcEEES8_NS_7CurveIdERKSt8functionIFvNS_14CallbackReturnES6_EE
liblime.so.0:_ZN4lime11LimeManager11create_userERKNSt7__cxx1112basic_stringIcSt11char_traitsIcESaIcEEES8_NS_7CurveIdEtRKSt8functionIFvNS_14CallbackReturnES6_EE
liblime.so.0:_ZN4lime11LimeManager11delete_userERKNSt7__cxx1112basic_stringIcSt11char_traitsIcESaIcEEERKSt8functionIFvNS_14CallbackReturnES6_EE
liblime.so.0:_ZN4lime11LimeManager12is_localUserERKNSt7__cxx1112basic_stringIcSt11char_traitsIcESaIcEEE
liblime.so.0:_ZN4lime11LimeManager14stale_sessionsERKNSt7__cxx1112basic_stringIcSt11char_traitsIcESaIcEEES8_
liblime.so.0:_ZN4lime11LimeManager17delete_peerDeviceERKNSt7__cxx1112basic_stringIcSt11char_traitsIcESaIcEEE
liblime.so.0:_ZN4lime11LimeManager17get_x3dhServerUrlERKNSt7__cxx1112basic_stringIcSt11char_traitsIcESaIcEEE
liblime.so.0:_ZN4lime11LimeManager17set_x3dhServerUrlERKNSt7__cxx1112basic_stringIcSt11char_traitsIcESaIcEEES8_
liblime.so.0:_ZN4lime11LimeManager19get_selfIdentityKeyERKNSt7__cxx1112basic_stringIcSt11char_traitsIcESaIcEEERSt6vectorIhSaIhEE
liblime.so.0:_ZN4lime11LimeManager20get_peerDeviceStatusERKNSt7__cxx1112basic_stringIcSt11char_traitsIcESaIcEEE
liblime.so.0:_ZN4lime11LimeManager20get_peerDeviceStatusERKNSt7__cxx114listINS1_12basic_stringIcSt11char_traitsIcESaIcEEESaIS7_EEE
liblime.so.0:_ZN4lime11LimeManager20set_peerDeviceStatusERKNSt7__cxx1112basic_stringIcSt11char_traitsIcESaIcEEENS_16PeerDeviceStatusE
liblime.so.0:_ZN4lime11LimeManager20set_peerDeviceStatusERKNSt7__cxx1112basic_stringIcSt11char_traitsIcESaIcEEERKSt6vectorIhSaIhEENS_16PeerDeviceStatusE
liblime.so.0:_ZN4lime11LimeManager6updateERKNSt7__cxx1112basic_stringIcSt11char_traitsIcESaIcEEERKSt8functionIFvNS_14CallbackReturnES6_EE
liblime.so.0:_ZN4lime11LimeManager6updateERKNSt7__cxx1112basic_stringIcSt11char_traitsIcESaIcEEERKSt8functionIFvNS_14CallbackReturnES6_EEtt
liblime.so.0:_ZN4lime11LimeManager7decryptERKNSt7__cxx1112basic_stringIcSt11char_traitsIcESaIcEEERKSt6vectorIhSaIhEES8_SD_RSB_
liblime.so.0:_ZN4lime11LimeManager7decryptERKNSt7__cxx1112basic_stringIcSt11char_traitsIcESaIcEEERKSt6vectorIhSaIhEES8_SD_SD_RSB_
liblime.so.0:_ZN4lime11LimeManager7decryptERKNSt7__cxx1112basic_stringIcSt11char_traitsIcESaIcEEES8_S8_RKSt6vectorIhSaIhEERSB_
liblime.so.0:_ZN4lime11LimeManager7decryptERKNSt7__cxx1112basic_stringIcSt11char_traitsIcESaIcEEES8_S8_RKSt6vectorIhSaIhEESD_RSB_
liblime.so.0:_ZN4lime11LimeManager7encryptERKNSt7__cxx1112basic_stringIcSt11char_traitsIcESaIcEEESt10shared_ptrIKSt6vectorIhSaIhEEES9_ISA_INS_13RecipientDataESaISF_EEESE_S9_ISC_ERKSt8functionIFvNS_14CallbackReturnES6_EENS_16EncryptionPolicyE
liblime.so.0:_ZN4lime11LimeManager7encryptERKNSt7__cxx1112basic_stringIcSt11char_traitsIcESaIcEEESt10shared_ptrIS7_ES9_ISt6vectorINS_13RecipientDataESaISC_EEES9_IKSB_IhSaIhEEES9_ISH_ERKSt8functionIFvNS_14CallbackReturnES6_EENS_16EncryptionPolicyE
liblime.so.0:_ZN4lime11LimeManager7is_userERKNSt7__cxx1112basic_stringIcSt11char_traitsIcESaIcEEE
liblime.so.0:_ZN4lime11LimeManager9load_userERSt10shared_ptrINS_11LimeGenericEERKNSt7__cxx1112basic_stringIcSt11char_traitsIcESaIcEEEb
liblime.so.0:_ZN4lime11LimeManagerC1ERKNSt7__cxx1112basic_stringIcSt11char_traitsIcESaIcEEERKSt8functionIFvS8_S8_RKSt6vectorIhSaIhEERKS9_IFviSE_EEEE
liblime.so.0:_ZN4lime11LimeManagerC1ERKNSt7__cxx1112basic_stringIcSt11char_traitsIcESaIcEEERKSt8functionIFvS8_S8_RKSt6vectorIhSaIhEERKS9_IFviSE_EEEESt10shared_ptrISt15recursive_mutexE
liblime.so.0:_ZN4lime11LimeManagerC2ERKNSt7__cxx1112basic_stringIcSt11char_traitsIcESaIcEEERKSt8functionIFvS8_S8_RKSt6vectorIhSaIhEERKS9_IFviSE_EEEE
liblime.so.0:_ZN4lime11LimeManagerC2ERKNSt7__cxx1112basic_stringIcSt11char_traitsIcESaIcEEERKSt8functionIFvS8_S8_RKSt6vectorIhSaIhEERKS9_IFviSE_EEEESt10shared_ptrISt15recursive_mutexE
liblime.so.0:_ZN4lime11cleanBufferEPhm
liblime.so.0:_ZN4lime12AEAD_decryptINS_9AES256GCMEEEbPKhmS3_mS3_mS3_mS3_mPh
liblime.so.0:_ZN4lime12AEAD_encryptINS_9AES256GCMEEEvPKhmS3_mS3_mS3_mPhmS4_
liblime.so.0:_ZN4lime13load_LimeUserESt10shared_ptrINS_2DbEERKNSt7__cxx1112basic_stringIcSt11char_traitsIcESaIcEEERKSt8functionIFvSA_SA_RKSt6vectorIhSaIhEERKSB_IFviSG_EEEEb
liblime.so.0:_ZN4lime14bctbx_ECDHInitINS_4C255EEEP24bctbx_ECDHContext_structv
liblime.so.0:_ZN4lime14bctbx_ECDHInitINS_4C448EEEP24bctbx_ECDHContext_structv
liblime.so.0:_ZN4lime15bctbx_EDDSAInitINS_4C255EEEP25bctbx_EDDSAContext_structv
liblime.so.0:_ZN4lime15bctbx_EDDSAInitINS_4C448EEEP25bctbx_EDDSAContext_structv
liblime.so.0:_ZN4lime15insert_LimeUserESt10shared_ptrINS_2DbEERKNSt7__cxx1112basic_stringIcSt11char_traitsIcESaIcEEESA_NS_7CurveIdEtRKSt8functionIFvSA_SA_RKSt6vectorIhSaIhEERKSC_IFviSH_EEEERKSC_IFvNS_14CallbackReturnES8_EE
liblime.so.0:_ZN4lime2Db12is_localUserERKNSt7__cxx1112basic_stringIcSt11char_traitsIcESaIcEEE
liblime.so.0:_ZN4lime2Db12set_updateTsERKNSt7__cxx1112basic_stringIcSt11char_traitsIcESaIcEEE
liblime.so.0:_ZN4lime2Db13load_LimeUserERKNSt7__cxx1112basic_stringIcSt11char_traitsIcESaIcEEERlRNS_7CurveIdERS6_b
liblime.so.0:_ZN4lime2Db15delete_LimeUserERKNSt7__cxx1112basic_stringIcSt11char_traitsIcESaIcEEE
liblime.so.0:_ZN4lime2Db16clean_DRSessionsEv
liblime.so.0:_ZN4lime2Db17delete_peerDeviceERKNSt7__cxx1112basic_stringIcSt11char_traitsIcESaIcEEE
liblime.so.0:_ZN4lime2Db17start_transactionEv
liblime.so.0:_ZN4lime2Db18commit_transactionEv
liblime.so.0:_ZN4lime2Db18is_updateRequestedERKNSt7__cxx1112basic_stringIcSt11char_traitsIcESaIcEEE
liblime.so.0:_ZN4lime2Db20get_peerDeviceStatusERKNSt7__cxx1112basic_stringIcSt11char_traitsIcESaIcEEE
liblime.so.0:_ZN4lime2Db20get_peerDeviceStatusERKNSt7__cxx114listINS1_12basic_stringIcSt11char_traitsIcESaIcEEESaIS7_EEE
liblime.so.0:_ZN4lime2Db20rollback_transactionEv
liblime.so.0:_ZN4lime2Db20set_peerDeviceStatusERKNSt7__cxx1112basic_stringIcSt11char_traitsIcESaIcEEENS_16PeerDeviceStatusE
liblime.so.0:_ZN4lime2Db20set_peerDeviceStatusERKNSt7__cxx1112basic_stringIcSt11char_traitsIcESaIcEEERKSt6vectorIhSaIhEENS_16PeerDeviceStatusE
liblime.so.0:_ZN4lime2Db9clean_SPkEv
liblime.so.0:_ZN4lime2DbC1ERKNSt7__cxx1112basic_stringIcSt11char_traitsIcESaIcEEESt10shared_ptrISt15recursive_mutexE
liblime.so.0:_ZN4lime2DbC2ERKNSt7__cxx1112basic_stringIcSt11char_traitsIcESaIcEEESt10shared_ptrISt15recursive_mutexE
liblime.so.0:_ZN4lime4HMACINS_6SHA512EEEvPKhmS3_mPhm
liblime.so.0:_ZN4lime8make_RNGEv
liblinphone++.so.10:_ZN8linphone10CallParams10enableAvpfEb
liblinphone++.so.10:_ZN8linphone10CallParams10setAccountERKSt10shared_ptrINS_7AccountEE
liblinphone++.so.10:_ZN8linphone10CallParams10setPrivacyEj
liblinphone++.so.10:_ZN8linphone10CallParams11enableAudioEb
liblinphone++.so.10:_ZN8linphone10CallParams11enableVideoEb
liblinphone++.so.10:_ZN8linphone10CallParams13setFromHeaderERKNSt7__cxx1112basic_stringIcSt11char_traitsIcESaIcEEE
liblinphone++.so.10:_ZN8linphone10CallParams13setRecordFileERKNSt7__cxx1112basic_stringIcSt11char_traitsIcESaIcEEE
liblinphone++.so.10:_ZN8linphone10CallParams13setSrtpSuitesERKNSt7__cxx114listINS_9SrtpSuiteESaIS3_EEE
liblinphone++.so.10:_ZN8linphone10CallParams14setProxyConfigERKSt10shared_ptrINS_11ProxyConfigEE
liblinphone++.so.10:_ZN8linphone10CallParams14setSessionNameERKNSt7__cxx1112basic_stringIcSt11char_traitsIcESaIcEEE
liblinphone++.so.10:_ZN8linphone10CallParams15addCustomHeaderERKNSt7__cxx1112basic_stringIcSt11char_traitsIcESaIcEEES8_
liblinphone++.so.10:_ZN8linphone10CallParams15enableRtpBundleEb
liblinphone++.so.10:_ZN8linphone10CallParams16addCustomContentERKSt10shared_ptrINS_7ContentEE
liblinphone++.so.10:_ZN8linphone10CallParams17setAudioDirectionENS_14MediaDirectionE
liblinphone++.so.10:_ZN8linphone10CallParams17setVideoDirectionENS_14MediaDirectionE
liblinphone++.so.10:_ZN8linphone10CallParams18enableLowBandwidthEb
liblinphone++.so.10:_ZN8linphone10CallParams18enableRealtimeTextEb
liblinphone++.so.10:_ZN8linphone10CallParams18setMediaEncryptionENS_15MediaEncryptionE
liblinphone++.so.10:_ZN8linphone10CallParams19setInputAudioDeviceERKSt10shared_ptrINS_11AudioDeviceEE
liblinphone++.so.10:_ZN8linphone10CallParams20enableAudioMulticastEb
liblinphone++.so.10:_ZN8linphone10CallParams20enableVideoMulticastEb
liblinphone++.so.10:_ZN8linphone10CallParams20setOutputAudioDeviceERKSt10shared_ptrINS_11AudioDeviceEE
liblinphone++.so.10:_ZN8linphone10CallParams21addCustomSdpAttributeERKNSt7__cxx1112basic_stringIcSt11char_traitsIcESaIcEEES8_
liblinphone++.so.10:_ZN8linphone10CallParams21enableCfgLinesMergingEb
liblinphone++.so.10:_ZN8linphone10CallParams21enableTcapLineMergingEb
liblinphone++.so.10:_ZN8linphone10CallParams21enableToneIndicationsEb
liblinphone++.so.10:_ZN8linphone10CallParams22setAudioBandwidthLimitEi
liblinphone++.so.10:_ZN8linphone10CallParams23enableEarlyMediaSendingEb
liblinphone++.so.10:_ZN8linphone10CallParams24clearCustomSdpAttributesEv
liblinphone++.so.10:_ZN8linphone10CallParams24setConferenceVideoLayoutENS_10Conference6LayoutE
liblinphone++.so.10:_ZN8linphone10CallParams26addCustomSdpMediaAttributeENS_10StreamTypeERKNSt7__cxx1112basic_stringIcSt11char_traitsIcESaIcEEES9_
liblinphone++.so.10:_ZN8linphone10CallParams28enableCapabilityNegotiationsEb
liblinphone++.so.10:_ZN8linphone10CallParams29clearCustomSdpMediaAttributesENS_10StreamTypeE
liblinphone++.so.10:_ZN8linphone10CallParams32setRealtimeTextKeepaliveIntervalEj
liblinphone++.so.10:_ZN8linphone10CallParams35enableCapabilityNegotiationReinviteEb
liblinphone++.so.10:_ZN8linphone10CallParams9enableMicEb
liblinphone++.so.10:_ZN8linphone10CallParamsC1EPvb
liblinphone++.so.10:_ZN8linphone10CallParamsC2EPvb
liblinphone++.so.10:_ZN8linphone10Conference10setSubjectERKNSt7__cxx1112basic_stringIcSt11char_traitsIcESaIcEEE
liblinphone++.so.10:_ZN8linphone10Conference11addListenerERKSt10shared_ptrINS_18ConferenceListenerEE
liblinphone++.so.10:_ZN8linphone10Conference11setUsernameERKNSt7__cxx1112basic_stringIcSt11char_traitsIcESaIcEEE
liblinphone++.so.10:_ZN8linphone10Conference12updateParamsERKSt10shared_ptrIKNS_16ConferenceParamsEE
liblinphone++.so.10:_ZN8linphone10Conference13stopRecordingEv
liblinphone++.so.10:_ZN8linphone10Conference14addParticipantERKSt10shared_ptrIKNS_7AddressEE
liblinphone++.so.10:_ZN8linphone10Conference14addParticipantERKSt10shared_ptrINS_4CallEE
liblinphone++.so.10:_ZN8linphone10Conference14removeListenerERKSt10shared_ptrINS_18ConferenceListenerEE
liblinphone++.so.10:_ZN8linphone10Conference14startRecordingERKNSt7__cxx1112basic_stringIcSt11char_traitsIcESaIcEEE
liblinphone++.so.10:_ZN8linphone10Conference15addParticipantsERKNSt7__cxx114listISt10shared_ptrINS_4CallEESaIS5_EEE
liblinphone++.so.10:_ZN8linphone10Conference15addParticipantsERKNSt7__cxx114listISt10shared_ptrINS_7AddressEESaIS5_EEE
liblinphone++.so.10:_ZN8linphone10Conference15createCallbacksEv
liblinphone++.so.10:_ZN8linphone10Conference15findParticipantERKSt10shared_ptrIKNS_7AddressEE
liblinphone++.so.10:_ZN8linphone10Conference17removeParticipantERKSt10shared_ptrIKNS_7AddressEE
liblinphone++.so.10:_ZN8linphone10Conference17removeParticipantERKSt10shared_ptrINS_11ParticipantEE
liblinphone++.so.10:_ZN8linphone10Conference17removeParticipantERKSt10shared_ptrINS_4CallEE
liblinphone++.so.10:_ZN8linphone10Conference18inviteParticipantsERKNSt7__cxx114listISt10shared_ptrINS_7AddressEESaIS5_EEERKS3_IKNS_10CallParamsEE
liblinphone++.so.10:_ZN8linphone10Conference18setMicrophoneMutedEb
liblinphone++.so.10:_ZN8linphone10Conference19setInputAudioDeviceERKSt10shared_ptrINS_11AudioDeviceEE
liblinphone++.so.10:_ZN8linphone10Conference20setConferenceAddressERKSt10shared_ptrINS_7AddressEE
liblinphone++.so.10:_ZN8linphone10Conference20setOutputAudioDeviceERKSt10shared_ptrINS_11AudioDeviceEE
liblinphone++.so.10:_ZN8linphone10Conference25setParticipantAdminStatusERKSt10shared_ptrINS_11ParticipantEEb
liblinphone++.so.10:_ZN8linphone10Conference26getParticipantDeviceVolumeERKSt10shared_ptrINS_17ParticipantDeviceEE
liblinphone++.so.10:_ZN8linphone10Conference35setLocalParticipantStreamCapabilityENS_14MediaDirectionENS_10StreamTypeE
liblinphone++.so.10:_ZN8linphone10Conference5enterEv
liblinphone++.so.10:_ZN8linphone10Conference5leaveEv
liblinphone++.so.10:_ZN8linphone10Conference5setIdERKNSt7__cxx1112basic_stringIcSt11char_traitsIcESaIcEEE
liblinphone++.so.10:_ZN8linphone10Conference9terminateEv
liblinphone++.so.10:_ZN8linphone10ConferenceC1EPvb
liblinphone++.so.10:_ZN8linphone10ConferenceC2EPvb
liblinphone++.so.10:_ZN8linphone10Dictionary5clearEv
liblinphone++.so.10:_ZN8linphone10Dictionary6removeERKNSt7__cxx1112basic_stringIcSt11char_traitsIcESaIcEEE
liblinphone++.so.10:_ZN8linphone10Dictionary6setIntERKNSt7__cxx1112basic_stringIcSt11char_traitsIcESaIcEEEi
liblinphone++.so.10:_ZN8linphone10Dictionary8setFloatERKNSt7__cxx1112basic_stringIcSt11char_traitsIcESaIcEEEf
liblinphone++.so.10:_ZN8linphone10Dictionary8setInt64ERKNSt7__cxx1112basic_stringIcSt11char_traitsIcESaIcEEEl
liblinphone++.so.10:_ZN8linphone10Dictionary9setStringERKNSt7__cxx1112basic_stringIcSt11char_traitsIcESaIcEEES8_
liblinphone++.so.10:_ZN8linphone10DictionaryC1EPvb
liblinphone++.so.10:_ZN8linphone10DictionaryC2EPvb
liblinphone++.so.10:_ZN8linphone10FriendList11addListenerERKSt10shared_ptrINS_18FriendListListenerEE
liblinphone++.so.10:_ZN8linphone10FriendList12removeFriendERKSt10shared_ptrINS_6FriendEE
liblinphone++.so.10:_ZN8linphone10FriendList13setRlsAddressERKSt10shared_ptrIKNS_7AddressEE
liblinphone++.so.10:_ZN8linphone10FriendList14addLocalFriendERKSt10shared_ptrINS_6FriendEE
liblinphone++.so.10:_ZN8linphone10FriendList14notifyPresenceERKSt10shared_ptrINS_13PresenceModelEE
liblinphone++.so.10:_ZN8linphone10FriendList14removeListenerERKSt10shared_ptrINS_18FriendListListenerEE
liblinphone++.so.10:_ZN8linphone10FriendList14setDisplayNameERKNSt7__cxx1112basic_stringIcSt11char_traitsIcESaIcEEE
liblinphone++.so.10:_ZN8linphone10FriendList14updateRevisionEi
liblinphone++.so.10:_ZN8linphone10FriendList15createCallbacksEv
liblinphone++.so.10:_ZN8linphone10FriendList18updateDirtyFriendsEv
liblinphone++.so.10:_ZN8linphone10FriendList19enableSubscriptionsEb
liblinphone++.so.10:_ZN8linphone10FriendList19updateSubscriptionsEv
liblinphone++.so.10:_ZN8linphone10FriendList20subscriptionsEnabledEv
liblinphone++.so.10:_ZN8linphone10FriendList21enableDatabaseStorageEb
liblinphone++.so.10:_ZN8linphone10FriendList23setSubscriptionBodylessEb
liblinphone++.so.10:_ZN8linphone10FriendList25exportFriendsAsVcard4FileERKNSt7__cxx1112basic_stringIcSt11char_traitsIcESaIcEEE
liblinphone++.so.10:_ZN8linphone10FriendList27importFriendsFromVcard4FileERKNSt7__cxx1112basic_stringIcSt11char_traitsIcESaIcEEE
liblinphone++.so.10:_ZN8linphone10FriendList28synchronizeFriendsFromServerEv
liblinphone++.so.10:_ZN8linphone10FriendList29importFriendsFromVcard4BufferERKNSt7__cxx1112basic_stringIcSt11char_traitsIcESaIcEEE
liblinphone++.so.10:_ZN8linphone10FriendList6setUriERKNSt7__cxx1112basic_stringIcSt11char_traitsIcESaIcEEE
liblinphone++.so.10:_ZN8linphone10FriendList7getTypeEv
liblinphone++.so.10:_ZN8linphone10FriendList7setTypeENS0_4TypeE
liblinphone++.so.10:_ZN8linphone10FriendList9addFriendERKSt10shared_ptrINS_6FriendEE
liblinphone++.so.10:_ZN8linphone10FriendList9setRlsUriERKNSt7__cxx1112basic_stringIcSt11char_traitsIcESaIcEEE
liblinphone++.so.10:_ZN8linphone10FriendListC1EPvb
liblinphone++.so.10:_ZN8linphone10FriendListC2EPvb
liblinphone++.so.10:_ZN8linphone10LdapParams10setEnabledEb
liblinphone++.so.10:_ZN8linphone10LdapParams10setTimeoutEi
liblinphone++.so.10:_ZN8linphone10LdapParams11setMinCharsEi
liblinphone++.so.10:_ZN8linphone10LdapParams11setPasswordERKNSt7__cxx1112basic_stringIcSt11char_traitsIcESaIcEEE
liblinphone++.so.10:_ZN8linphone10LdapParams12setSipDomainERKNSt7__cxx1112basic_stringIcSt11char_traitsIcESaIcEEE
liblinphone++.so.10:_ZN8linphone10LdapParams13setAuthMethodENS_4Ldap10AuthMethodE
liblinphone++.so.10:_ZN8linphone10LdapParams13setBaseObjectERKNSt7__cxx1112basic_stringIcSt11char_traitsIcESaIcEEE
liblinphone++.so.10:_ZN8linphone10LdapParams13setDebugLevelENS_4Ldap10DebugLevelE
liblinphone++.so.10:_ZN8linphone10LdapParams13setMaxResultsEi
liblinphone++.so.10:_ZN8linphone10LdapParams14setCustomValueERKNSt7__cxx1112basic_stringIcSt11char_traitsIcESaIcEEES8_
liblinphone++.so.10:_ZN8linphone10LdapParams15setSipAttributeERKNSt7__cxx1112basic_stringIcSt11char_traitsIcESaIcEEE
liblinphone++.so.10:_ZN8linphone10LdapParams15setTimeoutTlsMsEi
liblinphone++.so.10:_ZN8linphone10LdapParams16setNameAttributeERKNSt7__cxx1112basic_stringIcSt11char_traitsIcESaIcEEE
liblinphone++.so.10:_ZN8linphone10LdapParams37setServerCertificatesVerificationModeENS_4Ldap20CertVerificationModeE
liblinphone++.so.10:_ZN8linphone10LdapParams8setDelayEi
liblinphone++.so.10:_ZN8linphone10LdapParams9enableSalEb
liblinphone++.so.10:_ZN8linphone10LdapParams9enableTlsEb
liblinphone++.so.10:_ZN8linphone10LdapParams9setBindDnERKNSt7__cxx1112basic_stringIcSt11char_traitsIcESaIcEEE
liblinphone++.so.10:_ZN8linphone10LdapParams9setFilterERKNSt7__cxx1112basic_stringIcSt11char_traitsIcESaIcEEE
liblinphone++.so.10:_ZN8linphone10LdapParams9setServerERKNSt7__cxx1112basic_stringIcSt11char_traitsIcESaIcEEE
liblinphone++.so.10:_ZN8linphone10LdapParamsC1EPvb
liblinphone++.so.10:_ZN8linphone10LdapParamsC2EPvb
liblinphone++.so.10:_ZN8linphone10Transports10setTcpPortEi
liblinphone++.so.10:_ZN8linphone10Transports10setTlsPortEi
liblinphone++.so.10:_ZN8linphone10Transports10setUdpPortEi
liblinphone++.so.10:_ZN8linphone10Transports11setDtlsPortEi
liblinphone++.so.10:_ZN8linphone10TransportsC1EPvb
liblinphone++.so.10:_ZN8linphone10TransportsC2EPvb
liblinphone++.so.10:_ZN8linphone11AudioDeviceC1EPvb
liblinphone++.so.10:_ZN8linphone11AudioDeviceC2EPvb
liblinphone++.so.10:_ZN8linphone11ChatMessage10addContentERKSt10shared_ptrINS_7ContentEE
liblinphone++.so.10:_ZN8linphone11ChatMessage10setAppdataERKNSt7__cxx1112basic_stringIcSt11char_traitsIcESaIcEEE
liblinphone++.so.10:_ZN8linphone11ChatMessage11addListenerERKSt10shared_ptrINS_19ChatMessageListenerEE
liblinphone++.so.10:_ZN8linphone11ChatMessage11setUtf8TextERKNSt7__cxx1112basic_stringIcSt11char_traitsIcESaIcEEE
liblinphone++.so.10:_ZN8linphone11ChatMessage13removeContentERKSt10shared_ptrINS_7ContentEE
liblinphone++.so.10:_ZN8linphone11ChatMessage13setToBeStoredEb
liblinphone++.so.10:_ZN8linphone11ChatMessage14addFileContentERKSt10shared_ptrINS_7ContentEE
liblinphone++.so.10:_ZN8linphone11ChatMessage14addTextContentERKNSt7__cxx1112basic_stringIcSt11char_traitsIcESaIcEEE
liblinphone++.so.10:_ZN8linphone11ChatMessage14createReactionERKNSt7__cxx1112basic_stringIcSt11char_traitsIcESaIcEEE
liblinphone++.so.10:_ZN8linphone11ChatMessage14removeListenerERKSt10shared_ptrINS_19ChatMessageListenerEE
liblinphone++.so.10:_ZN8linphone11ChatMessage14setContentTypeERKNSt7__cxx1112basic_stringIcSt11char_traitsIcESaIcEEE
liblinphone++.so.10:_ZN8linphone11ChatMessage15addCustomHeaderERKNSt7__cxx1112basic_stringIcSt11char_traitsIcESaIcEEES8_
liblinphone++.so.10:_ZN8linphone11ChatMessage15createCallbacksEv
liblinphone++.so.10:_ZN8linphone11ChatMessage15downloadContentERKSt10shared_ptrINS_7ContentEE
liblinphone++.so.10:_ZN8linphone11ChatMessage15getReplyMessageEv
liblinphone++.so.10:_ZN8linphone11ChatMessage17getReplyMessageIdB5cxx11Ev
liblinphone++.so.10:_ZN8linphone11ChatMessage18addUtf8TextContentERKNSt7__cxx1112basic_stringIcSt11char_traitsIcESaIcEEE
liblinphone++.so.10:_ZN8linphone11ChatMessage18cancelFileTransferEv
liblinphone++.so.10:_ZN8linphone11ChatMessage18removeCustomHeaderERKNSt7__cxx1112basic_stringIcSt11char_traitsIcESaIcEEE
liblinphone++.so.10:_ZN8linphone11ChatMessage18setExternalBodyUrlERKNSt7__cxx1112basic_stringIcSt11char_traitsIcESaIcEEE
liblinphone++.so.10:_ZN8linphone11ChatMessage28getReplyMessageSenderAddressEv
liblinphone++.so.10:_ZN8linphone11ChatMessage4sendEv
liblinphone++.so.10:_ZN8linphone11ChatMessage7isReplyEv
liblinphone++.so.10:_ZN8linphone11ChatMessage7putCharEj
liblinphone++.so.10:_ZN8linphone11ChatMessage9isForwardEv
liblinphone++.so.10:_ZN8linphone11ChatMessageC1EPvb
liblinphone++.so.10:_ZN8linphone11ChatMessageC2EPvb
liblinphone++.so.10:_ZN8linphone11InfoMessage10setContentERKSt10shared_ptrIKNS_7ContentEE
liblinphone++.so.10:_ZN8linphone11InfoMessage9addHeaderERKNSt7__cxx1112basic_stringIcSt11char_traitsIcESaIcEEES8_
liblinphone++.so.10:_ZN8linphone11InfoMessageC1EPvb
liblinphone++.so.10:_ZN8linphone11InfoMessageC2EPvb
liblinphone++.so.10:_ZN8linphone11MagicSearch11addListenerERKSt10shared_ptrINS_19MagicSearchListenerEE
liblinphone++.so.10:_ZN8linphone11MagicSearch11getContactsERKNSt7__cxx1112basic_stringIcSt11char_traitsIcESaIcEEES8_i
liblinphone++.so.10:_ZN8linphone11MagicSearch12setDelimiterERKNSt7__cxx1112basic_stringIcSt11char_traitsIcESaIcEEE
liblinphone++.so.10:_ZN8linphone11MagicSearch12setMaxWeightEj
liblinphone++.so.10:_ZN8linphone11MagicSearch12setMinWeightEj
liblinphone++.so.10:_ZN8linphone11MagicSearch14removeListenerERKSt10shared_ptrINS_19MagicSearchListenerEE
liblinphone++.so.10:_ZN8linphone11MagicSearch14setSearchLimitEj
liblinphone++.so.10:_ZN8linphone11MagicSearch15createCallbacksEv
liblinphone++.so.10:_ZN8linphone11MagicSearch15getContactsListERKNSt7__cxx1112basic_stringIcSt11char_traitsIcESaIcEEES8_iNS0_11AggregationE
liblinphone++.so.10:_ZN8linphone11MagicSearch15getUseDelimiterEv
liblinphone++.so.10:_ZN8linphone11MagicSearch15setUseDelimiterEb
liblinphone++.so.10:_ZN8linphone11MagicSearch16getContactsAsyncERKNSt7__cxx1112basic_stringIcSt11char_traitsIcESaIcEEES8_i
liblinphone++.so.10:_ZN8linphone11MagicSearch16resetSearchCacheEv
liblinphone++.so.10:_ZN8linphone11MagicSearch16setLimitedSearchEb
liblinphone++.so.10:_ZN8linphone11MagicSearch20getContactsListAsyncERKNSt7__cxx1112basic_stringIcSt11char_traitsIcESaIcEEES8_iNS0_11AggregationE
liblinphone++.so.10:_ZN8linphone11MagicSearch24getContactListFromFilterERKNSt7__cxx1112basic_stringIcSt11char_traitsIcESaIcEEES8_
liblinphone++.so.10:_ZN8linphone11MagicSearch29getContactListFromFilterAsyncERKNSt7__cxx1112basic_stringIcSt11char_traitsIcESaIcEEES8_
liblinphone++.so.10:_ZN8linphone11MagicSearchC1EPvb
liblinphone++.so.10:_ZN8linphone11MagicSearchC2EPvb
liblinphone++.so.10:_ZN8linphone11ParticipantC1EPvb
liblinphone++.so.10:_ZN8linphone11ParticipantC2EPvb
liblinphone++.so.10:_ZN8linphone11PayloadType11setRecvFmtpERKNSt7__cxx1112basic_stringIcSt11char_traitsIcESaIcEEE
liblinphone++.so.10:_ZN8linphone11PayloadType11setSendFmtpERKNSt7__cxx1112basic_stringIcSt11char_traitsIcESaIcEEE
liblinphone++.so.10:_ZN8linphone11PayloadType16setNormalBitrateEi
liblinphone++.so.10:_ZN8linphone11PayloadType6enableEb
liblinphone++.so.10:_ZN8linphone11PayloadType9setNumberEi
liblinphone++.so.10:_ZN8linphone11PayloadTypeC1EPvb
liblinphone++.so.10:_ZN8linphone11PayloadTypeC2EPvb
liblinphone++.so.10:_ZN8linphone11ProxyConfig10setExpiresEi
liblinphone++.so.10:_ZN8linphone11ProxyConfig10setPrivacyEj
liblinphone++.so.10:_ZN8linphone11ProxyConfig11avpfEnabledEv
liblinphone++.so.10:_ZN8linphone11ProxyConfig11setAvpfModeENS_8AVPFModeE
liblinphone++.so.10:_ZN8linphone11ProxyConfig12setNatPolicyERKSt10shared_ptrINS_9NatPolicyEE
liblinphone++.so.10:_ZN8linphone11ProxyConfig13enablePublishEb
liblinphone++.so.10:_ZN8linphone11ProxyConfig13getDependencyEv
liblinphone++.so.10:_ZN8linphone11ProxyConfig13pauseRegisterEv
liblinphone++.so.10:_ZN8linphone11ProxyConfig13setDependencyERKSt10shared_ptrIS0_E
liblinphone++.so.10:_ZN8linphone11ProxyConfig13setDialPrefixERKNSt7__cxx1112basic_stringIcSt11char_traitsIcESaIcEEE
liblinphone++.so.10:_ZN8linphone11ProxyConfig13setServerAddrERKNSt7__cxx1112basic_stringIcSt11char_traitsIcESaIcEEE
liblinphone++.so.10:_ZN8linphone11ProxyConfig14enableRegisterEb
liblinphone++.so.10:_ZN8linphone11ProxyConfig15getCustomHeaderERKNSt7__cxx1112basic_stringIcSt11char_traitsIcESaIcEEE
liblinphone++.so.10:_ZN8linphone11ProxyConfig15normalizeSipUriERKNSt7__cxx1112basic_stringIcSt11char_traitsIcESaIcEEE
liblinphone++.so.10:_ZN8linphone11ProxyConfig15refreshRegisterEv
liblinphone++.so.10:_ZN8linphone11ProxyConfig15setCustomHeaderERKNSt7__cxx1112basic_stringIcSt11char_traitsIcESaIcEEES8_
liblinphone++.so.10:_ZN8linphone11ProxyConfig17setAvpfRrIntervalEh
liblinphone++.so.10:_ZN8linphone11ProxyConfig17setDialEscapePlusEb
liblinphone++.so.10:_ZN8linphone11ProxyConfig17setPublishExpiresEi
liblinphone++.so.10:_ZN8linphone11ProxyConfig18setIdentityAddressERKSt10shared_ptrINS_7AddressEE
liblinphone++.so.10:_ZN8linphone11ProxyConfig20normalizePhoneNumberERKNSt7__cxx1112basic_stringIcSt11char_traitsIcESaIcEEE
liblinphone++.so.10:_ZN8linphone11ProxyConfig20setContactParametersERKNSt7__cxx1112basic_stringIcSt11char_traitsIcESaIcEEE
liblinphone++.so.10:_ZN8linphone11ProxyConfig22enableQualityReportingEb
liblinphone++.so.10:_ZN8linphone11ProxyConfig23qualityReportingEnabledEv
liblinphone++.so.10:_ZN8linphone11ProxyConfig23setConferenceFactoryUriERKNSt7__cxx1112basic_stringIcSt11char_traitsIcESaIcEEE
liblinphone++.so.10:_ZN8linphone11ProxyConfig23setContactUriParametersERKNSt7__cxx1112basic_stringIcSt11char_traitsIcESaIcEEE
liblinphone++.so.10:_ZN8linphone11ProxyConfig25setPushNotificationConfigERKSt10shared_ptrINS_22PushNotificationConfigEE
liblinphone++.so.10:_ZN8linphone11ProxyConfig26setPushNotificationAllowedEb
liblinphone++.so.10:_ZN8linphone11ProxyConfig27getQualityReportingIntervalEv
liblinphone++.so.10:_ZN8linphone11ProxyConfig27setQualityReportingIntervalEi
liblinphone++.so.10:_ZN8linphone11ProxyConfig28setQualityReportingCollectorERKNSt7__cxx1112basic_stringIcSt11char_traitsIcESaIcEEE
liblinphone++.so.10:_ZN8linphone11ProxyConfig32setRemotePushNotificationAllowedEb
liblinphone++.so.10:_ZN8linphone11ProxyConfig4doneEv
liblinphone++.so.10:_ZN8linphone11ProxyConfig4editEv
liblinphone++.so.10:_ZN8linphone11ProxyConfig8getIdkeyB5cxx11Ev
liblinphone++.so.10:_ZN8linphone11ProxyConfig8setIdkeyERKNSt7__cxx1112basic_stringIcSt11char_traitsIcESaIcEEE
liblinphone++.so.10:_ZN8linphone11ProxyConfig8setRealmERKNSt7__cxx1112basic_stringIcSt11char_traitsIcESaIcEEE
liblinphone++.so.10:_ZN8linphone11ProxyConfig8setRouteERKNSt7__cxx1112basic_stringIcSt11char_traitsIcESaIcEEE
liblinphone++.so.10:_ZN8linphone11ProxyConfig9setRefKeyERKNSt7__cxx1112basic_stringIcSt11char_traitsIcESaIcEEE
liblinphone++.so.10:_ZN8linphone11ProxyConfig9setRoutesERKNSt7__cxx114listINS1_12basic_stringIcSt11char_traitsIcESaIcEEESaIS7_EEE
liblinphone++.so.10:_ZN8linphone11ProxyConfigC1EPvb
liblinphone++.so.10:_ZN8linphone11ProxyConfigC2EPvb
liblinphone++.so.10:_ZN8linphone12PresenceNote10setContentERKNSt7__cxx1112basic_stringIcSt11char_traitsIcESaIcEEE
liblinphone++.so.10:_ZN8linphone12PresenceNote7setLangERKNSt7__cxx1112basic_stringIcSt11char_traitsIcESaIcEEE
liblinphone++.so.10:_ZN8linphone12PresenceNoteC1EPvb
liblinphone++.so.10:_ZN8linphone12PresenceNoteC2EPvb
liblinphone++.so.10:_ZN8linphone12SearchResultC1EPvb
liblinphone++.so.10:_ZN8linphone12SearchResultC2EPvb
liblinphone++.so.10:_ZN8linphone12TunnelConfig22setRemoteUdpMirrorPortEi
liblinphone++.so.10:_ZN8linphone12TunnelConfig7setHostERKNSt7__cxx1112basic_stringIcSt11char_traitsIcESaIcEEE
liblinphone++.so.10:_ZN8linphone12TunnelConfig7setPortEi
liblinphone++.so.10:_ZN8linphone12TunnelConfig8setDelayEi
liblinphone++.so.10:_ZN8linphone12TunnelConfig8setHost2ERKNSt7__cxx1112basic_stringIcSt11char_traitsIcESaIcEEE
liblinphone++.so.10:_ZN8linphone12TunnelConfig8setPort2Ei
liblinphone++.so.10:_ZN8linphone12TunnelConfigC1EPvb
liblinphone++.so.10:_ZN8linphone12TunnelConfigC2EPvb
liblinphone++.so.10:_ZN8linphone13AccountParams10setExpiresEi
liblinphone++.so.10:_ZN8linphone13AccountParams10setPrivacyEj
liblinphone++.so.10:_ZN8linphone13AccountParams11setAvpfModeENS_8AVPFModeE
liblinphone++.so.10:_ZN8linphone13AccountParams12setNatPolicyERKSt10shared_ptrINS_9NatPolicyEE
liblinphone++.so.10:_ZN8linphone13AccountParams12setTransportENS_13TransportTypeE
liblinphone++.so.10:_ZN8linphone13AccountParams13enablePublishEb
liblinphone++.so.10:_ZN8linphone13AccountParams13newWithConfigERKSt10shared_ptrINS_4CoreEEi
liblinphone++.so.10:_ZN8linphone13AccountParams13setPictureUriERKNSt7__cxx1112basic_stringIcSt11char_traitsIcESaIcEEE
liblinphone++.so.10:_ZN8linphone13AccountParams13setServerAddrERKNSt7__cxx1112basic_stringIcSt11char_traitsIcESaIcEEE
liblinphone++.so.10:_ZN8linphone13AccountParams14addCustomParamERKNSt7__cxx1112basic_stringIcSt11char_traitsIcESaIcEEES8_
liblinphone++.so.10:_ZN8linphone13AccountParams14enableRegisterEb
liblinphone++.so.10:_ZN8linphone13AccountParams15enableRtpBundleEb
liblinphone++.so.10:_ZN8linphone13AccountParams16setCustomContactERKSt10shared_ptrINS_7AddressEE
liblinphone++.so.10:_ZN8linphone13AccountParams16setLimeServerUrlERKNSt7__cxx1112basic_stringIcSt11char_traitsIcESaIcEEE
liblinphone++.so.10:_ZN8linphone13AccountParams16setServerAddressERKSt10shared_ptrINS_7AddressEE
liblinphone++.so.10:_ZN8linphone13AccountParams17setAvpfRrIntervalEh
liblinphone++.so.10:_ZN8linphone13AccountParams17setPublishExpiresEi
liblinphone++.so.10:_ZN8linphone13AccountParams18setIdentityAddressERKSt10shared_ptrINS_7AddressEE
liblinphone++.so.10:_ZN8linphone13AccountParams18setRoutesAddressesERKNSt7__cxx114listISt10shared_ptrINS_7AddressEESaIS5_EEE
liblinphone++.so.10:_ZN8linphone13AccountParams19enableOutboundProxyEb
liblinphone++.so.10:_ZN8linphone13AccountParams20enableDialEscapePlusEb
liblinphone++.so.10:_ZN8linphone13AccountParams20setContactParametersERKNSt7__cxx1112basic_stringIcSt11char_traitsIcESaIcEEE
liblinphone++.so.10:_ZN8linphone13AccountParams22enableQualityReportingEb
liblinphone++.so.10:_ZN8linphone13AccountParams22setInternationalPrefixERKNSt7__cxx1112basic_stringIcSt11char_traitsIcESaIcEEE
liblinphone++.so.10:_ZN8linphone13AccountParams23setConferenceFactoryUriERKNSt7__cxx1112basic_stringIcSt11char_traitsIcESaIcEEE
liblinphone++.so.10:_ZN8linphone13AccountParams23setContactUriParametersERKNSt7__cxx1112basic_stringIcSt11char_traitsIcESaIcEEE
liblinphone++.so.10:_ZN8linphone13AccountParams25enableCpimInBasicChatRoomEb
liblinphone++.so.10:_ZN8linphone13AccountParams25enableRtpBundleAssumptionEb
liblinphone++.so.10:_ZN8linphone13AccountParams25setPushNotificationConfigERKSt10shared_ptrINS_22PushNotificationConfigEE
liblinphone++.so.10:_ZN8linphone13AccountParams26setPushNotificationAllowedEb
liblinphone++.so.10:_ZN8linphone13AccountParams27setConferenceFactoryAddressERKSt10shared_ptrIKNS_7AddressEE
liblinphone++.so.10:_ZN8linphone13AccountParams27setQualityReportingIntervalEi
liblinphone++.so.10:_ZN8linphone13AccountParams28setQualityReportingCollectorERKNSt7__cxx1112basic_stringIcSt11char_traitsIcESaIcEEE
liblinphone++.so.10:_ZN8linphone13AccountParams32setRemotePushNotificationAllowedEb
liblinphone++.so.10:_ZN8linphone13AccountParams37setAudioVideoConferenceFactoryAddressERKSt10shared_ptrIKNS_7AddressEE
liblinphone++.so.10:_ZN8linphone13AccountParams41setUseInternationalPrefixForCallsAndChatsEb
liblinphone++.so.10:_ZN8linphone13AccountParams8setIdkeyERKNSt7__cxx1112basic_stringIcSt11char_traitsIcESaIcEEE
liblinphone++.so.10:_ZN8linphone13AccountParams8setRealmERKNSt7__cxx1112basic_stringIcSt11char_traitsIcESaIcEEE
liblinphone++.so.10:_ZN8linphone13AccountParams9setRefKeyERKNSt7__cxx1112basic_stringIcSt11char_traitsIcESaIcEEE
liblinphone++.so.10:_ZN8linphone13AccountParamsC1EPvb
liblinphone++.so.10:_ZN8linphone13AccountParamsC2EPvb
liblinphone++.so.10:_ZN8linphone13ImNotifPolicy18setRecvIsComposingEb
liblinphone++.so.10:_ZN8linphone13ImNotifPolicy18setSendIsComposingEb
liblinphone++.so.10:_ZN8linphone13ImNotifPolicy20setRecvImdnDeliveredEb
liblinphone++.so.10:_ZN8linphone13ImNotifPolicy20setRecvImdnDisplayedEb
liblinphone++.so.10:_ZN8linphone13ImNotifPolicy20setSendImdnDeliveredEb
liblinphone++.so.10:_ZN8linphone13ImNotifPolicy20setSendImdnDisplayedEb
liblinphone++.so.10:_ZN8linphone13ImNotifPolicy24setRecvImdnDeliveryErrorEb
liblinphone++.so.10:_ZN8linphone13ImNotifPolicy24setSendImdnDeliveryErrorEb
liblinphone++.so.10:_ZN8linphone13ImNotifPolicy5clearEv
liblinphone++.so.10:_ZN8linphone13ImNotifPolicy9enableAllEv
liblinphone++.so.10:_ZN8linphone13ImNotifPolicyC1EPvb
liblinphone++.so.10:_ZN8linphone13ImNotifPolicyC2EPvb
liblinphone++.so.10:_ZN8linphone13PresenceModel10addServiceERKSt10shared_ptrINS_15PresenceServiceEE
liblinphone++.so.10:_ZN8linphone13PresenceModel10clearNotesEv
liblinphone++.so.10:_ZN8linphone13PresenceModel10setContactERKNSt7__cxx1112basic_stringIcSt11char_traitsIcESaIcEEE
liblinphone++.so.10:_ZN8linphone13PresenceModel11addActivityERKSt10shared_ptrINS_16PresenceActivityEE
liblinphone++.so.10:_ZN8linphone13PresenceModel11setActivityENS_16PresenceActivity4TypeERKNSt7__cxx1112basic_stringIcSt11char_traitsIcESaIcEEE
liblinphone++.so.10:_ZN8linphone13PresenceModel12clearPersonsEv
liblinphone++.so.10:_ZN8linphone13PresenceModel13clearServicesEv
liblinphone++.so.10:_ZN8linphone13PresenceModel13setPresentityERKSt10shared_ptrIKNS_7AddressEE
liblinphone++.so.10:_ZN8linphone13PresenceModel14setBasicStatusENS_19PresenceBasicStatusE
liblinphone++.so.10:_ZN8linphone13PresenceModel15clearActivitiesEv
liblinphone++.so.10:_ZN8linphone13PresenceModel15newWithActivityENS_16PresenceActivity4TypeERKNSt7__cxx1112basic_stringIcSt11char_traitsIcESaIcEEE
liblinphone++.so.10:_ZN8linphone13PresenceModel22newWithActivityAndNoteENS_16PresenceActivity4TypeERKNSt7__cxx1112basic_stringIcSt11char_traitsIcESaIcEEESA_SA_
liblinphone++.so.10:_ZN8linphone13PresenceModel7addNoteERKNSt7__cxx1112basic_stringIcSt11char_traitsIcESaIcEEES8_
liblinphone++.so.10:_ZN8linphone13PresenceModel9addPersonERKSt10shared_ptrINS_14PresencePersonEE
liblinphone++.so.10:_ZN8linphone13PresenceModelC1EPvb
liblinphone++.so.10:_ZN8linphone13PresenceModelC2EPvb
liblinphone++.so.10:_ZN8linphone13XmlRpcRequest11addListenerERKSt10shared_ptrINS_21XmlRpcRequestListenerEE
liblinphone++.so.10:_ZN8linphone13XmlRpcRequest12addStringArgERKNSt7__cxx1112basic_stringIcSt11char_traitsIcESaIcEEE
liblinphone++.so.10:_ZN8linphone13XmlRpcRequest14removeListenerERKSt10shared_ptrINS_21XmlRpcRequestListenerEE
liblinphone++.so.10:_ZN8linphone13XmlRpcRequest15createCallbacksEv
liblinphone++.so.10:_ZN8linphone13XmlRpcRequest9addIntArgEi
liblinphone++.so.10:_ZN8linphone13XmlRpcRequestC1EPvb
liblinphone++.so.10:_ZN8linphone13XmlRpcRequestC2EPvb
liblinphone++.so.10:_ZN8linphone13XmlRpcSession11sendRequestERKSt10shared_ptrINS_13XmlRpcRequestEE
liblinphone++.so.10:_ZN8linphone13XmlRpcSession13createRequestENS_13XmlRpcArgTypeERKNSt7__cxx1112basic_stringIcSt11char_traitsIcESaIcEEE
liblinphone++.so.10:_ZN8linphone13XmlRpcSession7releaseEv
liblinphone++.so.10:_ZN8linphone13XmlRpcSessionC1EPvb
liblinphone++.so.10:_ZN8linphone13XmlRpcSessionC2EPvb
liblinphone++.so.10:_ZN8linphone14AccountCreator10setPnParamERKNSt7__cxx1112basic_stringIcSt11char_traitsIcESaIcEEE
liblinphone++.so.10:_ZN8linphone14AccountCreator11addListenerERKSt10shared_ptrINS_22AccountCreatorListenerEE
liblinphone++.so.10:_ZN8linphone14AccountCreator11isAliasUsedEv
liblinphone++.so.10:_ZN8linphone14AccountCreator11linkAccountEv
liblinphone++.so.10:_ZN8linphone14AccountCreator11setLanguageERKNSt7__cxx1112basic_stringIcSt11char_traitsIcESaIcEEE
liblinphone++.so.10:_ZN8linphone14AccountCreator11setPasswordERKNSt7__cxx1112basic_stringIcSt11char_traitsIcESaIcEEE
liblinphone++.so.10:_ZN8linphone14AccountCreator11setUsernameERKNSt7__cxx1112basic_stringIcSt11char_traitsIcESaIcEEE
liblinphone++.so.10:_ZN8linphone14AccountCreator12setAlgorithmERKNSt7__cxx1112basic_stringIcSt11char_traitsIcESaIcEEE
liblinphone++.so.10:_ZN8linphone14AccountCreator12setAsDefaultEb
liblinphone++.so.10:_ZN8linphone14AccountCreator12setTransportENS_13TransportTypeE
liblinphone++.so.10:_ZN8linphone14AccountCreator13activateAliasEv
liblinphone++.so.10:_ZN8linphone14AccountCreator13createAccountEv
liblinphone++.so.10:_ZN8linphone14AccountCreator13setPnProviderERKNSt7__cxx1112basic_stringIcSt11char_traitsIcESaIcEEE
liblinphone++.so.10:_ZN8linphone14AccountCreator13updateAccountEv
liblinphone++.so.10:_ZN8linphone14AccountCreator14isAccountExistEv
liblinphone++.so.10:_ZN8linphone14AccountCreator14recoverAccountEv
liblinphone++.so.10:_ZN8linphone14AccountCreator14removeListenerERKSt10shared_ptrINS_22AccountCreatorListenerEE
liblinphone++.so.10:_ZN8linphone14AccountCreator14setDisplayNameERKNSt7__cxx1112basic_stringIcSt11char_traitsIcESaIcEEE
liblinphone++.so.10:_ZN8linphone14AccountCreator14setPhoneNumberERKNSt7__cxx1112basic_stringIcSt11char_traitsIcESaIcEEES8_
liblinphone++.so.10:_ZN8linphone14AccountCreator14setProxyConfigERKSt10shared_ptrINS_11ProxyConfigEE
liblinphone++.so.10:_ZN8linphone14AccountCreator15activateAccountEv
liblinphone++.so.10:_ZN8linphone14AccountCreator15createCallbacksEv
liblinphone++.so.10:_ZN8linphone14AccountCreator15isAccountLinkedEv
liblinphone++.so.10:_ZN8linphone14AccountCreator16requestAuthTokenEv
liblinphone++.so.10:_ZN8linphone14AccountCreator17createPushAccountEv
liblinphone++.so.10:_ZN8linphone14AccountCreator17setActivationCodeERKNSt7__cxx1112basic_stringIcSt11char_traitsIcESaIcEEE
liblinphone++.so.10:_ZN8linphone14AccountCreator18isAccountActivatedEv
liblinphone++.so.10:_ZN8linphone14AccountCreator19useTestAdminAccountEv
liblinphone++.so.10:_ZN8linphone14AccountCreator20loginLinphoneAccountEv
liblinphone++.so.10:_ZN8linphone14AccountCreator30setAccountCreationRequestTokenERKNSt7__cxx1112basic_stringIcSt11char_traitsIcESaIcEEE
liblinphone++.so.10:_ZN8linphone14AccountCreator34requestAccountCreationRequestTokenEv
liblinphone++.so.10:_ZN8linphone14AccountCreator44requestAccountCreationTokenUsingRequestTokenEv
liblinphone++.so.10:_ZN8linphone14AccountCreator5resetEv
liblinphone++.so.10:_ZN8linphone14AccountCreator6createERKSt10shared_ptrINS_4CoreEE
liblinphone++.so.10:_ZN8linphone14AccountCreator6setHa1ERKNSt7__cxx1112basic_stringIcSt11char_traitsIcESaIcEEE
liblinphone++.so.10:_ZN8linphone14AccountCreator8setEmailERKNSt7__cxx1112basic_stringIcSt11char_traitsIcESaIcEEE
liblinphone++.so.10:_ZN8linphone14AccountCreator8setRouteERKNSt7__cxx1112basic_stringIcSt11char_traitsIcESaIcEEE
liblinphone++.so.10:_ZN8linphone14AccountCreator8setTokenERKNSt7__cxx1112basic_stringIcSt11char_traitsIcESaIcEEE
liblinphone++.so.10:_ZN8linphone14AccountCreator9setDomainERKNSt7__cxx1112basic_stringIcSt11char_traitsIcESaIcEEE
liblinphone++.so.10:_ZN8linphone14AccountCreator9setPnPridERKNSt7__cxx1112basic_stringIcSt11char_traitsIcESaIcEEE
liblinphone++.so.10:_ZN8linphone14AccountCreatorC1EPvb
liblinphone++.so.10:_ZN8linphone14AccountCreatorC2EPvb
liblinphone++.so.10:_ZN8linphone14ChatRoomParams10setBackendENS_8ChatRoom7BackendE
liblinphone++.so.10:_ZN8linphone14ChatRoomParams10setSubjectERKNSt7__cxx1112basic_stringIcSt11char_traitsIcESaIcEEE
liblinphone++.so.10:_ZN8linphone14ChatRoomParams11enableGroupEb
liblinphone++.so.10:_ZN8linphone14ChatRoomParams16enableEncryptionEb
liblinphone++.so.10:_ZN8linphone14ChatRoomParams16setEphemeralModeENS_8ChatRoom13EphemeralModeE
liblinphone++.so.10:_ZN8linphone14ChatRoomParams20setEncryptionBackendENS_8ChatRoom17EncryptionBackendE
liblinphone++.so.10:_ZN8linphone14ChatRoomParams20setEphemeralLifetimeEl
liblinphone++.so.10:_ZN8linphone14ChatRoomParams9enableRttEb
liblinphone++.so.10:_ZN8linphone14ChatRoomParamsC1EPvb
liblinphone++.so.10:_ZN8linphone14ChatRoomParamsC2EPvb
liblinphone++.so.10:_ZN8linphone14ConferenceInfo10setSubjectERKNSt7__cxx1112basic_stringIcSt11char_traitsIcESaIcEEE
liblinphone++.so.10:_ZN8linphone14ConferenceInfo11setDateTimeEl
liblinphone++.so.10:_ZN8linphone14ConferenceInfo11setDurationEj
liblinphone++.so.10:_ZN8linphone14ConferenceInfo12setOrganizerERKSt10shared_ptrIKNS_7AddressEE
liblinphone++.so.10:_ZN8linphone14ConferenceInfo14addParticipantERKSt10shared_ptrIKNS_15ParticipantInfoEE
liblinphone++.so.10:_ZN8linphone14ConferenceInfo14addParticipantERKSt10shared_ptrIKNS_7AddressEE
liblinphone++.so.10:_ZN8linphone14ConferenceInfo14setDescriptionERKNSt7__cxx1112basic_stringIcSt11char_traitsIcESaIcEEE
liblinphone++.so.10:_ZN8linphone14ConferenceInfo15findParticipantERKSt10shared_ptrIKNS_7AddressEE
liblinphone++.so.10:_ZN8linphone14ConferenceInfo15setParticipantsERKNSt7__cxx114listISt10shared_ptrINS_7AddressEESaIS5_EEE
liblinphone++.so.10:_ZN8linphone14ConferenceInfo16setSecurityLevelENS_10Conference13SecurityLevelE
liblinphone++.so.10:_ZN8linphone14ConferenceInfo17removeParticipantERKSt10shared_ptrIKNS_7AddressEE
liblinphone++.so.10:_ZN8linphone14ConferenceInfo17updateParticipantERKSt10shared_ptrIKNS_15ParticipantInfoEE
liblinphone++.so.10:_ZN8linphone14ConferenceInfo19addParticipantInfosERKNSt7__cxx114listISt10shared_ptrINS_15ParticipantInfoEESaIS5_EEE
liblinphone++.so.10:_ZN8linphone14ConferenceInfo19setParticipantInfosERKNSt7__cxx114listISt10shared_ptrINS_15ParticipantInfoEESaIS5_EEE
liblinphone++.so.10:_ZN8linphone14ConferenceInfoC1EPvb
liblinphone++.so.10:_ZN8linphone14ConferenceInfoC2EPvb
liblinphone++.so.10:_ZN8linphone14LoggingService11addListenerERKSt10shared_ptrINS_22LoggingServiceListenerEE
liblinphone++.so.10:_ZN8linphone14LoggingService11setLogLevelENS_8LogLevelE
liblinphone++.so.10:_ZN8linphone14LoggingService14removeListenerERKSt10shared_ptrINS_22LoggingServiceListenerEE
liblinphone++.so.10:_ZN8linphone14LoggingService15createCallbacksEv
liblinphone++.so.10:_ZN8linphone14LoggingService15setLogLevelMaskEj
liblinphone++.so.10:_ZN8linphone14LoggingService21enableStackTraceDumpsEb
liblinphone++.so.10:_ZN8linphone14LoggingService3getEv
liblinphone++.so.10:_ZN8linphone14LoggingService5debugERKNSt7__cxx1112basic_stringIcSt11char_traitsIcESaIcEEE
liblinphone++.so.10:_ZN8linphone14LoggingService5errorERKNSt7__cxx1112basic_stringIcSt11char_traitsIcESaIcEEE
liblinphone++.so.10:_ZN8linphone14LoggingService5fatalERKNSt7__cxx1112basic_stringIcSt11char_traitsIcESaIcEEE
liblinphone++.so.10:_ZN8linphone14LoggingService5traceERKNSt7__cxx1112basic_stringIcSt11char_traitsIcESaIcEEE
liblinphone++.so.10:_ZN8linphone14LoggingService7messageERKNSt7__cxx1112basic_stringIcSt11char_traitsIcESaIcEEE
liblinphone++.so.10:_ZN8linphone14LoggingService7warningERKNSt7__cxx1112basic_stringIcSt11char_traitsIcESaIcEEE
liblinphone++.so.10:_ZN8linphone14LoggingService9getDomainB5cxx11Ev
liblinphone++.so.10:_ZN8linphone14LoggingService9setDomainERKNSt7__cxx1112basic_stringIcSt11char_traitsIcESaIcEEE
liblinphone++.so.10:_ZN8linphone14LoggingServiceC1EPvb
liblinphone++.so.10:_ZN8linphone14LoggingServiceC2EPvb
liblinphone++.so.10:_ZN8linphone14PresencePerson10clearNotesEv
liblinphone++.so.10:_ZN8linphone14PresencePerson11addActivityERKSt10shared_ptrINS_16PresenceActivityEE
liblinphone++.so.10:_ZN8linphone14PresencePerson15clearActivitiesEv
liblinphone++.so.10:_ZN8linphone14PresencePerson17addActivitiesNoteERKSt10shared_ptrINS_12PresenceNoteEE
liblinphone++.so.10:_ZN8linphone14PresencePerson20clearActivitiesNotesEv
liblinphone++.so.10:_ZN8linphone14PresencePerson5setIdERKNSt7__cxx1112basic_stringIcSt11char_traitsIcESaIcEEE
liblinphone++.so.10:_ZN8linphone14PresencePerson7addNoteERKSt10shared_ptrINS_12PresenceNoteEE
liblinphone++.so.10:_ZN8linphone14PresencePersonC1EPvb
liblinphone++.so.10:_ZN8linphone14PresencePersonC2EPvb
liblinphone++.so.10:_ZN8linphone14RecorderParams11setWindowIdEPv
liblinphone++.so.10:_ZN8linphone14RecorderParams13setFileFormatENS_8Recorder10FileFormatE
liblinphone++.so.10:_ZN8linphone14RecorderParams13setVideoCodecERKNSt7__cxx1112basic_stringIcSt11char_traitsIcESaIcEEE
liblinphone++.so.10:_ZN8linphone14RecorderParams13setWebcamNameERKNSt7__cxx1112basic_stringIcSt11char_traitsIcESaIcEEE
liblinphone++.so.10:_ZN8linphone14RecorderParams14setAudioDeviceERKSt10shared_ptrIKNS_11AudioDeviceEE
liblinphone++.so.10:_ZN8linphone14RecorderParamsC1EPvb
liblinphone++.so.10:_ZN8linphone14RecorderParamsC2EPvb
liblinphone++.so.10:_ZN8linphone15ParticipantInfo12addParameterERKNSt7__cxx1112basic_stringIcSt11char_traitsIcESaIcEEES8_
liblinphone++.so.10:_ZN8linphone15ParticipantInfo15removeParameterERKNSt7__cxx1112basic_stringIcSt11char_traitsIcESaIcEEE
liblinphone++.so.10:_ZN8linphone15ParticipantInfo7setRoleENS_11Participant4RoleE
liblinphone++.so.10:_ZN8linphone15ParticipantInfoC1EPvb
liblinphone++.so.10:_ZN8linphone15ParticipantInfoC2EPvb
liblinphone++.so.10:_ZN8linphone15PresenceService10clearNotesEv
liblinphone++.so.10:_ZN8linphone15PresenceService10setContactERKNSt7__cxx1112basic_stringIcSt11char_traitsIcESaIcEEE
liblinphone++.so.10:_ZN8linphone15PresenceService14setBasicStatusENS_19PresenceBasicStatusE
liblinphone++.so.10:_ZN8linphone15PresenceService22setServiceDescriptionsERKNSt7__cxx114listINS1_12basic_stringIcSt11char_traitsIcESaIcEEESaIS7_EEE
liblinphone++.so.10:_ZN8linphone15PresenceService5setIdERKNSt7__cxx1112basic_stringIcSt11char_traitsIcESaIcEEE
liblinphone++.so.10:_ZN8linphone15PresenceService7addNoteERKSt10shared_ptrINS_12PresenceNoteEE
liblinphone++.so.10:_ZN8linphone15PresenceServiceC1EPvb
liblinphone++.so.10:_ZN8linphone15PresenceServiceC2EPvb
liblinphone++.so.10:_ZN8linphone15StringUtilities12cStringToCppB5cxx11EPKc
liblinphone++.so.10:_ZN8linphone15StringUtilities12cStringToCppB5cxx11EPc
liblinphone++.so.10:_ZN8linphone15StringUtilities12cppStringToCERKNSt7__cxx1112basic_stringIcSt11char_traitsIcESaIcEEE
liblinphone++.so.10:_ZN8linphone15StringUtilities21cStringArrayToCppListB5cxx11EPPKc
liblinphone++.so.10:_ZN8linphone15VideoDefinition13setDefinitionEjj
liblinphone++.so.10:_ZN8linphone15VideoDefinition7setNameERKNSt7__cxx1112basic_stringIcSt11char_traitsIcESaIcEEE
liblinphone++.so.10:_ZN8linphone15VideoDefinition8setWidthEj
liblinphone++.so.10:_ZN8linphone15VideoDefinition9setHeightEj
liblinphone++.so.10:_ZN8linphone15VideoDefinitionC1EPvb
liblinphone++.so.10:_ZN8linphone15VideoDefinitionC2EPvb
liblinphone++.so.10:_ZN8linphone16ConferenceParams10enableChatEb
liblinphone++.so.10:_ZN8linphone16ConferenceParams10setEndTimeEl
liblinphone++.so.10:_ZN8linphone16ConferenceParams10setSubjectERKNSt7__cxx1112basic_stringIcSt11char_traitsIcESaIcEEE
liblinphone++.so.10:_ZN8linphone16ConferenceParams11enableAudioEb
liblinphone++.so.10:_ZN8linphone16ConferenceParams11enableVideoEb
liblinphone++.so.10:_ZN8linphone16ConferenceParams12setStartTimeEl
liblinphone++.so.10:_ZN8linphone16ConferenceParams14setDescriptionERKNSt7__cxx1112basic_stringIcSt11char_traitsIcESaIcEEE
liblinphone++.so.10:_ZN8linphone16ConferenceParams16setSecurityLevelENS_10Conference13SecurityLevelE
liblinphone++.so.10:_ZN8linphone16ConferenceParams22enableLocalParticipantEb
liblinphone++.so.10:_ZN8linphone16ConferenceParams22setParticipantListTypeENS_10Conference19ParticipantListTypeE
liblinphone++.so.10:_ZN8linphone16ConferenceParams27setConferenceFactoryAddressERKSt10shared_ptrIKNS_7AddressEE
liblinphone++.so.10:_ZN8linphone16ConferenceParams30enableOneParticipantConferenceEb
liblinphone++.so.10:_ZN8linphone16ConferenceParams9setHiddenEb
liblinphone++.so.10:_ZN8linphone16ConferenceParamsC1EPvb
liblinphone++.so.10:_ZN8linphone16ConferenceParamsC2EPvb
liblinphone++.so.10:_ZN8linphone16ListenableObject11setListenerERKSt10shared_ptrINS_8ListenerEE
liblinphone++.so.10:_ZN8linphone16ListenableObject17sListenerDataNameB5cxx11E
liblinphone++.so.10:_ZN8linphone16ListenableObject21getListenerFromObjectEPv
liblinphone++.so.10:_ZN8linphone16ListenableObjectC1EPvb
liblinphone++.so.10:_ZN8linphone16ListenableObjectC2EPvb
liblinphone++.so.10:_ZN8linphone16PresenceActivity14setDescriptionERKNSt7__cxx1112basic_stringIcSt11char_traitsIcESaIcEEE
liblinphone++.so.10:_ZN8linphone16PresenceActivity7setTypeENS0_4TypeE
liblinphone++.so.10:_ZN8linphone16PresenceActivityC1EPvb
liblinphone++.so.10:_ZN8linphone16PresenceActivityC2EPvb
liblinphone++.so.10:_ZN8linphone17FriendPhoneNumber14setPhoneNumberERKNSt7__cxx1112basic_stringIcSt11char_traitsIcESaIcEEE
liblinphone++.so.10:_ZN8linphone17FriendPhoneNumber8setLabelERKNSt7__cxx1112basic_stringIcSt11char_traitsIcESaIcEEE
liblinphone++.so.10:_ZN8linphone17FriendPhoneNumberC1EPvb
liblinphone++.so.10:_ZN8linphone17FriendPhoneNumberC2EPvb
liblinphone++.so.10:_ZN8linphone17ParticipantDevice11addListenerERKSt10shared_ptrINS_25ParticipantDeviceListenerEE
liblinphone++.so.10:_ZN8linphone17ParticipantDevice14removeListenerERKSt10shared_ptrINS_25ParticipantDeviceListenerEE
liblinphone++.so.10:_ZN8linphone17ParticipantDevice15createCallbacksEv
liblinphone++.so.10:_ZN8linphone17ParticipantDevice22setNativeVideoWindowIdEPv
liblinphone++.so.10:_ZN8linphone17ParticipantDeviceC1EPvb
liblinphone++.so.10:_ZN8linphone17ParticipantDeviceC2EPvb
liblinphone++.so.10:_ZN8linphone17SignalInformation11getStrengthEv
liblinphone++.so.10:_ZN8linphone17SignalInformation13getSignalTypeEv
liblinphone++.so.10:_ZN8linphone17SignalInformation13getSignalUnitEv
liblinphone++.so.10:_ZN8linphone17SignalInformation13setSignalTypeENS_10SignalTypeE
liblinphone++.so.10:_ZN8linphone17SignalInformation13setSignalUnitENS_18SignalStrengthUnitE
liblinphone++.so.10:_ZN8linphone17SignalInformation8setValueEf
liblinphone++.so.10:_ZN8linphone17SignalInformationC1EPvb
liblinphone++.so.10:_ZN8linphone17SignalInformationC2EPvb
liblinphone++.so.10:_ZN8linphone19ChatMessageReaction4sendEv
liblinphone++.so.10:_ZN8linphone19ChatMessageReactionC1EPvb
liblinphone++.so.10:_ZN8linphone19ChatMessageReactionC2EPvb
liblinphone++.so.10:_ZN8linphone19ConferenceScheduler10setAccountERKSt10shared_ptrINS_7AccountEE
liblinphone++.so.10:_ZN8linphone19ConferenceScheduler11addListenerERKSt10shared_ptrINS_27ConferenceSchedulerListenerEE
liblinphone++.so.10:_ZN8linphone19ConferenceScheduler14removeListenerERKSt10shared_ptrINS_27ConferenceSchedulerListenerEE
liblinphone++.so.10:_ZN8linphone19ConferenceScheduler15createCallbacksEv
liblinphone++.so.10:_ZN8linphone19ConferenceScheduler15sendInvitationsERKSt10shared_ptrINS_14ChatRoomParamsEE
liblinphone++.so.10:_ZN8linphone19ConferenceScheduler16cancelConferenceERKSt10shared_ptrINS_14ConferenceInfoEE
liblinphone++.so.10:_ZN8linphone19ConferenceScheduler7setInfoERKSt10shared_ptrINS_14ConferenceInfoEE
liblinphone++.so.10:_ZN8linphone19ConferenceSchedulerC1EPvb
liblinphone++.so.10:_ZN8linphone19ConferenceSchedulerC2EPvb
liblinphone++.so.10:_ZN8linphone20ParticipantImdnStateC1EPvb
liblinphone++.so.10:_ZN8linphone20ParticipantImdnStateC2EPvb
liblinphone++.so.10:_ZN8linphone21MultiListenableObject11addListenerERKSt10shared_ptrINS_8ListenerEE
liblinphone++.so.10:_ZN8linphone21MultiListenableObject11sCbsPtrNameE
liblinphone++.so.10:_ZN8linphone21MultiListenableObject14removeListenerERKSt10shared_ptrINS_8ListenerEE
liblinphone++.so.10:_ZN8linphone21MultiListenableObject17sListenerListNameE
liblinphone++.so.10:_ZN8linphone21MultiListenableObjectC1EPvb
liblinphone++.so.10:_ZN8linphone21MultiListenableObjectC2EPvb
liblinphone++.so.10:_ZN8linphone21VideoActivationPolicy22setAutomaticallyAcceptEb
liblinphone++.so.10:_ZN8linphone21VideoActivationPolicy24setAutomaticallyInitiateEb
liblinphone++.so.10:_ZN8linphone21VideoActivationPolicyC1EPvb
liblinphone++.so.10:_ZN8linphone21VideoActivationPolicyC2EPvb
liblinphone++.so.10:_ZN8linphone21VideoSourceDescriptor11setCameraIdERKNSt7__cxx1112basic_stringIcSt11char_traitsIcESaIcEEE
liblinphone++.so.10:_ZN8linphone21VideoSourceDescriptor7setCallERKSt10shared_ptrINS_4CallEE
liblinphone++.so.10:_ZN8linphone21VideoSourceDescriptor8setImageERKNSt7__cxx1112basic_stringIcSt11char_traitsIcESaIcEEE
liblinphone++.so.10:_ZN8linphone21VideoSourceDescriptorC1EPvb
liblinphone++.so.10:_ZN8linphone21VideoSourceDescriptorC2EPvb
liblinphone++.so.10:_ZN8linphone22PushNotificationConfig10setCallSndERKNSt7__cxx1112basic_stringIcSt11char_traitsIcESaIcEEE
liblinphone++.so.10:_ZN8linphone22PushNotificationConfig10setCallStrERKNSt7__cxx1112basic_stringIcSt11char_traitsIcESaIcEEE
liblinphone++.so.10:_ZN8linphone22PushNotificationConfig11setProviderERKNSt7__cxx1112basic_stringIcSt11char_traitsIcESaIcEEE
liblinphone++.so.10:_ZN8linphone22PushNotificationConfig12setVoipTokenERKNSt7__cxx1112basic_stringIcSt11char_traitsIcESaIcEEE
liblinphone++.so.10:_ZN8linphone22PushNotificationConfig14setRemoteTokenERKNSt7__cxx1112basic_stringIcSt11char_traitsIcESaIcEEE
liblinphone++.so.10:_ZN8linphone22PushNotificationConfig15setGroupChatStrERKNSt7__cxx1112basic_stringIcSt11char_traitsIcESaIcEEE
liblinphone++.so.10:_ZN8linphone22PushNotificationConfig19setBundleIdentifierERKNSt7__cxx1112basic_stringIcSt11char_traitsIcESaIcEEE
liblinphone++.so.10:_ZN8linphone22PushNotificationConfig21setRemotePushIntervalERKNSt7__cxx1112basic_stringIcSt11char_traitsIcESaIcEEE
liblinphone++.so.10:_ZN8linphone22PushNotificationConfig7setPridERKNSt7__cxx1112basic_stringIcSt11char_traitsIcESaIcEEE
liblinphone++.so.10:_ZN8linphone22PushNotificationConfig8setParamERKNSt7__cxx1112basic_stringIcSt11char_traitsIcESaIcEEE
liblinphone++.so.10:_ZN8linphone22PushNotificationConfig9setMsgSndERKNSt7__cxx1112basic_stringIcSt11char_traitsIcESaIcEEE
liblinphone++.so.10:_ZN8linphone22PushNotificationConfig9setMsgStrERKNSt7__cxx1112basic_stringIcSt11char_traitsIcESaIcEEE
liblinphone++.so.10:_ZN8linphone22PushNotificationConfig9setTeamIdERKNSt7__cxx1112basic_stringIcSt11char_traitsIcESaIcEEE
liblinphone++.so.10:_ZN8linphone22PushNotificationConfigC1EPvb
liblinphone++.so.10:_ZN8linphone22PushNotificationConfigC2EPvb
liblinphone++.so.10:_ZN8linphone22StringBctbxListWrapper18bctbxListToCppListB5cxx11EP11_bctbx_list
liblinphone++.so.10:_ZN8linphone22StringBctbxListWrapper18bctbxListToCppListB5cxx11EPK11_bctbx_list
liblinphone++.so.10:_ZN8linphone22StringBctbxListWrapperC1ERKNSt7__cxx114listINS1_12basic_stringIcSt11char_traitsIcESaIcEEESaIS7_EEE
liblinphone++.so.10:_ZN8linphone22StringBctbxListWrapperC2ERKNSt7__cxx114listINS1_12basic_stringIcSt11char_traitsIcESaIcEEESaIS7_EEE
liblinphone++.so.10:_ZN8linphone22StringBctbxListWrapperD0Ev
liblinphone++.so.10:_ZN8linphone22StringBctbxListWrapperD1Ev
liblinphone++.so.10:_ZN8linphone22StringBctbxListWrapperD2Ev
liblinphone++.so.10:_ZN8linphone23PushNotificationMessageC1EPvb
liblinphone++.so.10:_ZN8linphone23PushNotificationMessageC2EPvb
liblinphone++.so.10:_ZN8linphone25ParticipantDeviceIdentity23setCapabilityDescriptorERKNSt7__cxx1112basic_stringIcSt11char_traitsIcESaIcEEE
liblinphone++.so.10:_ZN8linphone25ParticipantDeviceIdentity23setCapabilityDescriptorERKNSt7__cxx114listINS1_12basic_stringIcSt11char_traitsIcESaIcEEESaIS7_EEE
liblinphone++.so.10:_ZN8linphone25ParticipantDeviceIdentityC1EPvb
liblinphone++.so.10:_ZN8linphone25ParticipantDeviceIdentityC2EPvb
liblinphone++.so.10:_ZN8linphone26DigestAuthenticationPolicy11setAllowMd5Eb
liblinphone++.so.10:_ZN8linphone26DigestAuthenticationPolicy13setAllowNoQopEb
liblinphone++.so.10:_ZN8linphone26DigestAuthenticationPolicyC1EPvb
liblinphone++.so.10:_ZN8linphone26DigestAuthenticationPolicyC2EPvb
liblinphone++.so.10:_ZN8linphone4Call10redirectToERKSt10shared_ptrINS_7AddressEE
liblinphone++.so.10:_ZN8linphone4Call10transferToERKSt10shared_ptrINS_7AddressEE
liblinphone++.so.10:_ZN8linphone4Call11addListenerERKSt10shared_ptrINS_12CallListenerEE
liblinphone++.so.10:_ZN8linphone4Call11cancelDtmfsEv
liblinphone++.so.10:_ZN8linphone4Call11deferUpdateEv
liblinphone++.so.10:_ZN8linphone4Call11getChatRoomEv
liblinphone++.so.10:_ZN8linphone4Call11isRecordingEv
liblinphone++.so.10:_ZN8linphone4Call12acceptUpdateERKSt10shared_ptrIKNS_10CallParamsEE
liblinphone++.so.10:_ZN8linphone4Call12enableCameraEb
liblinphone++.so.10:_ZN8linphone4Call12getTextStatsEv
liblinphone++.so.10:_ZN8linphone4Call13getAudioStatsEv
liblinphone++.so.10:_ZN8linphone4Call13getVideoStatsEv
liblinphone++.so.10:_ZN8linphone4Call13notifyRingingEv
liblinphone++.so.10:_ZN8linphone4Call13stopRecordingEv
liblinphone++.so.10:_ZN8linphone4Call14removeListenerERKSt10shared_ptrINS_12CallListenerEE
liblinphone++.so.10:_ZN8linphone4Call14sendVfuRequestEv
liblinphone++.so.10:_ZN8linphone4Call14setVideoSourceERKSt10shared_ptrIKNS_21VideoSourceDescriptorEE
liblinphone++.so.10:_ZN8linphone4Call14startRecordingEv
liblinphone++.so.10:_ZN8linphone4Call15createCallbacksEv
liblinphone++.so.10:_ZN8linphone4Call15getReplacedCallEv
liblinphone++.so.10:_ZN8linphone4Call15sendInfoMessageERKSt10shared_ptrIKNS_11InfoMessageEE
liblinphone++.so.10:_ZN8linphone4Call15setSpeakerMutedEb
liblinphone++.so.10:_ZN8linphone4Call16acceptEarlyMediaEv
liblinphone++.so.10:_ZN8linphone4Call16acceptWithParamsERKSt10shared_ptrIKNS_10CallParamsEE
liblinphone++.so.10:_ZN8linphone4Call16getRemoteContactB5cxx11Ev
liblinphone++.so.10:_ZN8linphone4Call16getTransferStateEv
liblinphone++.so.10:_ZN8linphone4Call17askedToAutoanswerEv
liblinphone++.so.10:_ZN8linphone4Call17enableEchoLimiterEb
liblinphone++.so.10:_ZN8linphone4Call17takeVideoSnapshotERKNSt7__cxx1112basic_stringIcSt11char_traitsIcESaIcEEE
liblinphone++.so.10:_ZN8linphone4Call17transferToAnotherERKSt10shared_ptrIS0_E
liblinphone++.so.10:_ZN8linphone4Call18getRemoteUserAgentB5cxx11Ev
liblinphone++.so.10:_ZN8linphone4Call18setMicrophoneMutedEb
liblinphone++.so.10:_ZN8linphone4Call19setInputAudioDeviceERKSt10shared_ptrINS_11AudioDeviceEE
liblinphone++.so.10:_ZN8linphone4Call19takePreviewSnapshotERKNSt7__cxx1112basic_stringIcSt11char_traitsIcESaIcEEE
liblinphone++.so.10:_ZN8linphone4Call20declineWithErrorInfoERKSt10shared_ptrIKNS_9ErrorInfoEE
liblinphone++.so.10:_ZN8linphone4Call20setOutputAudioDeviceERKSt10shared_ptrINS_11AudioDeviceEE
liblinphone++.so.10:_ZN8linphone4Call20setSpeakerVolumeGainEf
liblinphone++.so.10:_ZN8linphone4Call22enableEchoCancellationEb
liblinphone++.so.10:_ZN8linphone4Call22getAuthenticationTokenB5cxx11Ev
liblinphone++.so.10:_ZN8linphone4Call22setNativeVideoWindowIdEPv
liblinphone++.so.10:_ZN8linphone4Call22terminateWithErrorInfoERKSt10shared_ptrIKNS_9ErrorInfoEE
liblinphone++.so.10:_ZN8linphone4Call23getRemoteContactAddressEv
liblinphone++.so.10:_ZN8linphone4Call23setMicrophoneVolumeGainEf
liblinphone++.so.10:_ZN8linphone4Call26acceptEarlyMediaWithParamsERKSt10shared_ptrIKNS_10CallParamsEE
liblinphone++.so.10:_ZN8linphone4Call30setAuthenticationTokenVerifiedEb
liblinphone++.so.10:_ZN8linphone4Call34requestNotifyNextVideoFrameDecodedEv
liblinphone++.so.10:_ZN8linphone4Call4zoomEfff
liblinphone++.so.10:_ZN8linphone4Call5pauseEv
liblinphone++.so.10:_ZN8linphone4Call6acceptEv
liblinphone++.so.10:_ZN8linphone4Call6resumeEv
liblinphone++.so.10:_ZN8linphone4Call6updateERKSt10shared_ptrIKNS_10CallParamsEE
liblinphone++.so.10:_ZN8linphone4Call7declineENS_6ReasonE
liblinphone++.so.10:_ZN8linphone4Call8getStatsENS_10StreamTypeE
liblinphone++.so.10:_ZN8linphone4Call8redirectERKNSt7__cxx1112basic_stringIcSt11char_traitsIcESaIcEEE
liblinphone++.so.10:_ZN8linphone4Call8sendDtmfEc
liblinphone++.so.10:_ZN8linphone4Call8transferERKNSt7__cxx1112basic_stringIcSt11char_traitsIcESaIcEEE
liblinphone++.so.10:_ZN8linphone4Call9getPlayerEv
liblinphone++.so.10:_ZN8linphone4Call9sendDtmfsERKNSt7__cxx1112basic_stringIcSt11char_traitsIcESaIcEEE
liblinphone++.so.10:_ZN8linphone4Call9setParamsERKSt10shared_ptrIKNS_10CallParamsEE
liblinphone++.so.10:_ZN8linphone4Call9terminateEv
liblinphone++.so.10:_ZN8linphone4CallC1EPvb
liblinphone++.so.10:_ZN8linphone4CallC2EPvb
liblinphone++.so.10:_ZN8linphone4Core10addAccountERKSt10shared_ptrINS_7AccountEE
liblinphone++.so.10:_ZN8linphone4Core10clearLdapsEv
liblinphone++.so.10:_ZN8linphone4Core10configSyncEv
liblinphone++.so.10:_ZN8linphone4Core10createLdapEv
liblinphone++.so.10:_ZN8linphone4Core10enableChatEv
liblinphone++.so.10:_ZN8linphone4Core10enableIpv6Eb
liblinphone++.so.10:_ZN8linphone4Core10getVersionB5cxx11Ev
liblinphone++.so.10:_ZN8linphone4Core10micEnabledEv
liblinphone++.so.10:_ZN8linphone4Core10removeLdapERKSt10shared_ptrINS_4LdapEE
liblinphone++.so.10:_ZN8linphone4Core10setSipDscpEi
liblinphone++.so.10:_ZN8linphone4Core10setTlsCertERKNSt7__cxx1112basic_stringIcSt11char_traitsIcESaIcEEE
liblinphone++.so.10:_ZN8linphone4Core11addAuthInfoERKSt10shared_ptrIKNS_8AuthInfoEE
liblinphone++.so.10:_ZN8linphone4Core11addListenerERKSt10shared_ptrINS_12CoreListenerEE
liblinphone++.so.10:_ZN8linphone4Core11disableChatENS_6ReasonE
liblinphone++.so.10:_ZN8linphone4Core11findCallLogERKNSt7__cxx1112basic_stringIcSt11char_traitsIcESaIcEEEi
liblinphone++.so.10:_ZN8linphone4Core11getCallLogsB5cxx11Ev
liblinphone++.so.10:_ZN8linphone4Core11getChatRoomERKSt10shared_ptrIKNS_7AddressEE
liblinphone++.so.10:_ZN8linphone4Core11getChatRoomERKSt10shared_ptrIKNS_7AddressEES6_
liblinphone++.so.10:_ZN8linphone4Core11getIdentityB5cxx11Ev
liblinphone++.so.10:_ZN8linphone4Core11getLdapListB5cxx11Ev
liblinphone++.so.10:_ZN8linphone4Core11getMaxCallsEv
liblinphone++.so.10:_ZN8linphone4Core11getUseFilesEv
liblinphone++.so.10:_ZN8linphone4Core11ipv6EnabledEv
liblinphone++.so.10:_ZN8linphone4Core11setAvpfModeENS_8AVPFModeE
liblinphone++.so.10:_ZN8linphone4Core11setMaxCallsEi
liblinphone++.so.10:_ZN8linphone4Core11setPlayFileERKNSt7__cxx1112basic_stringIcSt11char_traitsIcESaIcEEE
liblinphone++.so.10:_ZN8linphone4Core11setRingbackERKNSt7__cxx1112basic_stringIcSt11char_traitsIcESaIcEEE
liblinphone++.so.10:_ZN8linphone4Core11setTextPortEi
liblinphone++.so.10:_ZN8linphone4Core11setUseFilesEb
liblinphone++.so.10:_ZN8linphone4Core11stopRingingEv
liblinphone++.so.10:_ZN8linphone4Core12createConfigERKNSt7__cxx1112basic_stringIcSt11char_traitsIcESaIcEEE
liblinphone++.so.10:_ZN8linphone4Core12createFriendEv
liblinphone++.so.10:_ZN8linphone4Core12createNotifyERKSt10shared_ptrINS_7AddressEERKNSt7__cxx1112basic_stringIcSt11char_traitsIcESaIcEEE
liblinphone++.so.10:_ZN8linphone4Core12enableAlertsEb
liblinphone++.so.10:_ZN8linphone4Core12enableDnsSrvEb
liblinphone++.so.10:_ZN8linphone4Core12findAuthInfoERKNSt7__cxx1112basic_stringIcSt11char_traitsIcESaIcEEES8_S8_
liblinphone++.so.10:_ZN8linphone4Core12getChatRoomsB5cxx11Ev
liblinphone++.so.10:_ZN8linphone4Core12getMicGainDbEv
liblinphone++.so.10:_ZN8linphone4Core12getUserAgentB5cxx11Ev
liblinphone++.so.10:_ZN8linphone4Core12interpretUrlERKNSt7__cxx1112basic_stringIcSt11char_traitsIcESaIcEEE
liblinphone++.so.10:_ZN8linphone4Core12interpretUrlERKNSt7__cxx1112basic_stringIcSt11char_traitsIcESaIcEEEb
liblinphone++.so.10:_ZN8linphone4Core12setAudioDscpEi
liblinphone++.so.10:_ZN8linphone4Core12setAudioPortEi
liblinphone++.so.10:_ZN8linphone4Core12setMicGainDbEf
liblinphone++.so.10:_ZN8linphone4Core12setNatPolicyERKSt10shared_ptrINS_9NatPolicyEE
liblinphone++.so.10:_ZN8linphone4Core12setUserAgentERKNSt7__cxx1112basic_stringIcSt11char_traitsIcESaIcEEES8_
liblinphone++.so.10:_ZN8linphone4Core12setVideoDscpEi
liblinphone++.so.10:_ZN8linphone4Core12setVideoPortEi
liblinphone++.so.10:_ZN8linphone4Core12videoEnabledEv
liblinphone++.so.10:_ZN8linphone4Core13addFriendListERKSt10shared_ptrINS_10FriendListEE
liblinphone++.so.10:_ZN8linphone4Core13clearAccountsEv
liblinphone++.so.10:_ZN8linphone4Core13clearCallLogsEv
liblinphone++.so.10:_ZN8linphone4Core13createAccountERKSt10shared_ptrINS_13AccountParamsEE
liblinphone++.so.10:_ZN8linphone4Core13createAddressERKNSt7__cxx1112basic_stringIcSt11char_traitsIcESaIcEEE
liblinphone++.so.10:_ZN8linphone4Core13createCallLogERKSt10shared_ptrINS_7AddressEES5_NS_4Call3DirEillNS6_6StatusEbf
liblinphone++.so.10:_ZN8linphone4Core13createContentEv
liblinphone++.so.10:_ZN8linphone4Core13createPublishERKSt10shared_ptrINS_7AddressEERKNSt7__cxx1112basic_stringIcSt11char_traitsIcESaIcEEEi
liblinphone++.so.10:_ZN8linphone4Core13enableCallkitEb
liblinphone++.so.10:_ZN8linphone4Core13getConferenceEv
liblinphone++.so.10:_ZN8linphone4Core13getIncTimeoutEv
liblinphone++.so.10:_ZN8linphone4Core13getTransportsEv
liblinphone++.so.10:_ZN8linphone4Core13getZrtpStatusERKNSt7__cxx1112basic_stringIcSt11char_traitsIcESaIcEEE
liblinphone++.so.10:_ZN8linphone4Core13inviteAddressERKSt10shared_ptrIKNS_7AddressEE
liblinphone++.so.10:_ZN8linphone4Core13ldapAvailableEv
liblinphone++.so.10:_ZN8linphone4Core13pauseAllCallsEv
liblinphone++.so.10:_ZN8linphone4Core13removeAccountERKSt10shared_ptrINS_7AccountEE
liblinphone++.so.10:_ZN8linphone4Core13removeCallLogERKSt10shared_ptrINS_7CallLogEE
liblinphone++.so.10:_ZN8linphone4Core13serializeLogsEv
liblinphone++.so.10:_ZN8linphone4Core13setDnsServersERKNSt7__cxx114listINS1_12basic_stringIcSt11char_traitsIcESaIcEEESaIS7_EEE
liblinphone++.so.10:_ZN8linphone4Core13setIncTimeoutEi
liblinphone++.so.10:_ZN8linphone4Core13setNatAddressERKNSt7__cxx1112basic_stringIcSt11char_traitsIcESaIcEEE
liblinphone++.so.10:_ZN8linphone4Core13setRecordFileERKNSt7__cxx1112basic_stringIcSt11char_traitsIcESaIcEEE
liblinphone++.so.10:_ZN8linphone4Core13setRootCaDataERKNSt7__cxx1112basic_stringIcSt11char_traitsIcESaIcEEE
liblinphone++.so.10:_ZN8linphone4Core13setStunServerERKNSt7__cxx1112basic_stringIcSt11char_traitsIcESaIcEEE
liblinphone++.so.10:_ZN8linphone4Core13setTlsKeyPathERKNSt7__cxx1112basic_stringIcSt11char_traitsIcESaIcEEE
liblinphone++.so.10:_ZN8linphone4Core13setTransportsERKSt10shared_ptrIKNS_10TransportsEE
liblinphone++.so.10:_ZN8linphone4Core13upnpAvailableEv
liblinphone++.so.10:_ZN8linphone4Core14addProxyConfigERKSt10shared_ptrINS_11ProxyConfigEE
liblinphone++.so.10:_ZN8linphone4Core14checkForUpdateERKNSt7__cxx1112basic_stringIcSt11char_traitsIcESaIcEEE
liblinphone++.so.10:_ZN8linphone4Core14createChatRoomERKNSt7__cxx1112basic_stringIcSt11char_traitsIcESaIcEEERKNS1_4listISt10shared_ptrINS_7AddressEESaISC_EEE
liblinphone++.so.10:_ZN8linphone4Core14createChatRoomERKSt10shared_ptrIKNS_14ChatRoomParamsEERKNSt7__cxx1112basic_stringIcSt11char_traitsIcESaIcEEERKNS7_4listIS1_INS_7AddressEESaISH_EEE
liblinphone++.so.10:_ZN8linphone4Core14createChatRoomERKSt10shared_ptrIKNS_14ChatRoomParamsEERKS1_IKNS_7AddressEERKNSt7__cxx1112basic_stringIcSt11char_traitsIcESaIcEEERKNSC_4listIS1_IS7_ESaISL_EEE
liblinphone++.so.10:_ZN8linphone4Core14createChatRoomERKSt10shared_ptrIKNS_14ChatRoomParamsEERKS1_IKNS_7AddressEERKNSt7__cxx114listIS1_IS7_ESaISE_EEE
liblinphone++.so.10:_ZN8linphone4Core14createChatRoomERKSt10shared_ptrIKNS_14ChatRoomParamsEERKS1_IKNS_7AddressEESB_
liblinphone++.so.10:_ZN8linphone4Core14createChatRoomERKSt10shared_ptrIKNS_7AddressEE
liblinphone++.so.10:_ZN8linphone4Core14createRecorderERKSt10shared_ptrINS_14RecorderParamsEE
liblinphone++.so.10:_ZN8linphone4Core14deleteChatRoomERKSt10shared_ptrINS_8ChatRoomEE
liblinphone++.so.10:_ZN8linphone4Core14enableLimeX3DhEb
liblinphone++.so.10:_ZN8linphone4Core14enableSelfViewEb
liblinphone++.so.10:_ZN8linphone4Core14enableWifiOnlyEb
liblinphone++.so.10:_ZN8linphone4Core14getCallHistoryB5cxx11ERKSt10shared_ptrIKNS_7AddressEES6_
liblinphone++.so.10:_ZN8linphone4Core14getDnsSetByAppEv
liblinphone++.so.10:_ZN8linphone4Core14getMediaDeviceB5cxx11Ev
liblinphone++.so.10:_ZN8linphone4Core14getPayloadTypeERKNSt7__cxx1112basic_stringIcSt11char_traitsIcESaIcEEEii
liblinphone++.so.10:_ZN8linphone4Core14getUploadPtimeEv
liblinphone++.so.10:_ZN8linphone4Core14getZrtpCacheDbEv
liblinphone++.so.10:_ZN8linphone4Core14removeAuthInfoERKSt10shared_ptrIKNS_8AuthInfoEE
liblinphone++.so.10:_ZN8linphone4Core14removeListenerERKSt10shared_ptrINS_12CoreListenerEE
liblinphone++.so.10:_ZN8linphone4Core14setMediaDeviceERKNSt7__cxx1112basic_stringIcSt11char_traitsIcESaIcEEE
liblinphone++.so.10:_ZN8linphone4Core14setTlsCertPathERKNSt7__cxx1112basic_stringIcSt11char_traitsIcESaIcEEE
liblinphone++.so.10:_ZN8linphone4Core14setUploadPtimeEi
liblinphone++.so.10:_ZN8linphone4Core14setVideoDeviceERKNSt7__cxx1112basic_stringIcSt11char_traitsIcESaIcEEE
liblinphone++.so.10:_ZN8linphone4Core14setVideoPresetERKNSt7__cxx1112basic_stringIcSt11char_traitsIcESaIcEEE
liblinphone++.so.10:_ZN8linphone4Core14stopEchoTesterEv
liblinphone++.so.10:_ZN8linphone4Core14vcardSupportedEv
liblinphone++.so.10:_ZN8linphone4Core14verifyServerCnEb
liblinphone++.so.10:_ZN8linphone4Core14videoSupportedEv
liblinphone++.so.10:_ZN8linphone4Core15addLinphoneSpecERKNSt7__cxx1112basic_stringIcSt11char_traitsIcESaIcEEE
liblinphone++.so.10:_ZN8linphone4Core15addSupportedTagERKNSt7__cxx1112basic_stringIcSt11char_traitsIcESaIcEEE
liblinphone++.so.10:_ZN8linphone4Core15addToConferenceERKSt10shared_ptrINS_4CallEE
liblinphone++.so.10:_ZN8linphone4Core15createCallbacksEv
liblinphone++.so.10:_ZN8linphone4Core15createNatPolicyEv
liblinphone++.so.10:_ZN8linphone4Core15createSubscribeERKSt10shared_ptrINS_7AddressEERKNSt7__cxx1112basic_stringIcSt11char_traitsIcESaIcEEEi
liblinphone++.so.10:_ZN8linphone4Core15createSubscribeERKSt10shared_ptrINS_7AddressEERKS1_INS_11ProxyConfigEERKNSt7__cxx1112basic_stringIcSt11char_traitsIcESaIcEEEi
liblinphone++.so.10:_ZN8linphone4Core15enableDnsSearchEb
liblinphone++.so.10:_ZN8linphone4Core15enableKeepAliveEb
liblinphone++.so.10:_ZN8linphone4Core15enableRtpBundleEb
liblinphone++.so.10:_ZN8linphone4Core15enableSdp200AckEb
liblinphone++.so.10:_ZN8linphone4Core15enterBackgroundEv
liblinphone++.so.10:_ZN8linphone4Core15enterConferenceEv
liblinphone++.so.10:_ZN8linphone4Core15enterForegroundEv
liblinphone++.so.10:_ZN8linphone4Core15getRingerDeviceB5cxx11Ev
liblinphone++.so.10:_ZN8linphone4Core15hasCrappyOpenglEv
liblinphone++.so.10:_ZN8linphone4Core15leaveConferenceEv
liblinphone++.so.10:_ZN8linphone4Core15reloadMsPluginsERKNSt7__cxx1112basic_stringIcSt11char_traitsIcESaIcEEE
liblinphone++.so.10:_ZN8linphone4Core15setNortpTimeoutEi
liblinphone++.so.10:_ZN8linphone4Core15setRingerDeviceERKNSt7__cxx1112basic_stringIcSt11char_traitsIcESaIcEEE
liblinphone++.so.10:_ZN8linphone4Core15setSupportedTagERKNSt7__cxx1112basic_stringIcSt11char_traitsIcESaIcEEE
liblinphone++.so.10:_ZN8linphone4Core15startEchoTesterEj
liblinphone++.so.10:_ZN8linphone4Core15tunnelAvailableEv
liblinphone++.so.10:_ZN8linphone4Core15wifiOnlyEnabledEv
liblinphone++.so.10:_ZN8linphone4Core16clearAllAuthInfoEv
liblinphone++.so.10:_ZN8linphone4Core16clearProxyConfigEv
liblinphone++.so.10:_ZN8linphone4Core16createCallParamsERKSt10shared_ptrINS_4CallEE
liblinphone++.so.10:_ZN8linphone4Core16createFriendListEv
liblinphone++.so.10:_ZN8linphone4Core16createLdapParamsEv
liblinphone++.so.10:_ZN8linphone4Core16ensureRegisteredEv
liblinphone++.so.10:_ZN8linphone4Core16getAudioJittcompEv
liblinphone++.so.10:_ZN8linphone4Core16getCaptureDeviceB5cxx11Ev
liblinphone++.so.10:_ZN8linphone4Core16getDownloadPtimeEv
liblinphone++.so.10:_ZN8linphone4Core16getGuessHostnameEv
liblinphone++.so.10:_ZN8linphone4Core16getInCallTimeoutEv
liblinphone++.so.10:_ZN8linphone4Core16getLoadedPluginsB5cxx11Ev
liblinphone++.so.10:_ZN8linphone4Core16getStaticPictureB5cxx11Ev
liblinphone++.so.10:_ZN8linphone4Core16getVideoJittcompEv
liblinphone++.so.10:_ZN8linphone4Core16inviteWithParamsERKNSt7__cxx1112basic_stringIcSt11char_traitsIcESaIcEEERKSt10shared_ptrIKNS_10CallParamsEE
liblinphone++.so.10:_ZN8linphone4Core16isVerifyServerCnEv
liblinphone++.so.10:_ZN8linphone4Core16keepAliveEnabledEv
liblinphone++.so.10:_ZN8linphone4Core16notifyAllFriendsERKSt10shared_ptrINS_13PresenceModelEE
liblinphone++.so.10:_ZN8linphone4Core16refreshRegistersEv
liblinphone++.so.10:_ZN8linphone4Core16rejectSubscriberERKSt10shared_ptrINS_6FriendEE
liblinphone++.so.10:_ZN8linphone4Core16removeFriendListERKSt10shared_ptrINS_10FriendListEE
liblinphone++.so.10:_ZN8linphone4Core16setAudioJittcompEi
liblinphone++.so.10:_ZN8linphone4Core16setCaptureDeviceERKNSt7__cxx1112basic_stringIcSt11char_traitsIcESaIcEEE
liblinphone++.so.10:_ZN8linphone4Core16setDnsServersAppERKNSt7__cxx114listINS1_12basic_stringIcSt11char_traitsIcESaIcEEESaIS7_EEE
liblinphone++.so.10:_ZN8linphone4Core16setDownloadPtimeEi
liblinphone++.so.10:_ZN8linphone4Core16setGuessHostnameEb
liblinphone++.so.10:_ZN8linphone4Core16setHttpProxyHostERKNSt7__cxx1112basic_stringIcSt11char_traitsIcESaIcEEE
liblinphone++.so.10:_ZN8linphone4Core16setHttpProxyPortEi
liblinphone++.so.10:_ZN8linphone4Core16setInCallTimeoutEi
liblinphone++.so.10:_ZN8linphone4Core16setPresenceModelERKSt10shared_ptrINS_13PresenceModelEE
liblinphone++.so.10:_ZN8linphone4Core16setStaticPictureERKNSt7__cxx1112basic_stringIcSt11char_traitsIcESaIcEEE
liblinphone++.so.10:_ZN8linphone4Core16setTextPortRangeEii
liblinphone++.so.10:_ZN8linphone4Core16setVideoJittcompEi
liblinphone++.so.10:_ZN8linphone4Core16usePreviewWindowEb
liblinphone++.so.10:_ZN8linphone4Core17audioRouteChangedEv
liblinphone++.so.10:_ZN8linphone4Core17createInfoMessageEv
liblinphone++.so.10:_ZN8linphone4Core17createLocalPlayerERKNSt7__cxx1112basic_stringIcSt11char_traitsIcESaIcEEES8_Pv
liblinphone++.so.10:_ZN8linphone4Core17createMagicSearchEv
liblinphone++.so.10:_ZN8linphone4Core17createProxyConfigEv
liblinphone++.so.10:_ZN8linphone4Core17enableAutoIterateEb
liblinphone++.so.10:_ZN8linphone4Core17enableEchoLimiterEb
liblinphone++.so.10:_ZN8linphone4Core17enableRecordAwareEb
liblinphone++.so.10:_ZN8linphone4Core17enableZrtpGoClearEb
liblinphone++.so.10:_ZN8linphone4Core17getAccountByIdkeyERKNSt7__cxx1112basic_stringIcSt11char_traitsIcESaIcEEE
liblinphone++.so.10:_ZN8linphone4Core17getConferenceSizeEv
liblinphone++.so.10:_ZN8linphone4Core17getDelayedTimeoutEv
liblinphone++.so.10:_ZN8linphone4Core17getDeviceRotationEv
liblinphone++.so.10:_ZN8linphone4Core17getPlaybackDeviceB5cxx11Ev
liblinphone++.so.10:_ZN8linphone4Core17getPlaybackGainDbEv
liblinphone++.so.10:_ZN8linphone4Core17getPrimaryContactB5cxx11Ev
liblinphone++.so.10:_ZN8linphone4Core17getTransportsUsedEv
liblinphone++.so.10:_ZN8linphone4Core17getUseInfoForDtmfEv
liblinphone++.so.10:_ZN8linphone4Core17loadConfigFromXmlERKNSt7__cxx1112basic_stringIcSt11char_traitsIcESaIcEEE
liblinphone++.so.10:_ZN8linphone4Core17removeProxyConfigERKSt10shared_ptrINS_11ProxyConfigEE
liblinphone++.so.10:_ZN8linphone4Core17setAudioPortRangeEii
liblinphone++.so.10:_ZN8linphone4Core17setAvpfRrIntervalEi
liblinphone++.so.10:_ZN8linphone4Core17setDefaultAccountERKSt10shared_ptrINS_7AccountEE
liblinphone++.so.10:_ZN8linphone4Core17setDelayedTimeoutEi
liblinphone++.so.10:_ZN8linphone4Core17setDeviceRotationEi
liblinphone++.so.10:_ZN8linphone4Core17setPlaybackDeviceERKNSt7__cxx1112basic_stringIcSt11char_traitsIcESaIcEEE
liblinphone++.so.10:_ZN8linphone4Core17setPlaybackGainDbEf
liblinphone++.so.10:_ZN8linphone4Core17setPrimaryContactERKNSt7__cxx1112basic_stringIcSt11char_traitsIcESaIcEEE
liblinphone++.so.10:_ZN8linphone4Core17setUseInfoForDtmfEb
liblinphone++.so.10:_ZN8linphone4Core17setVideoPortRangeEii
liblinphone++.so.10:_ZN8linphone4Core17terminateAllCallsEv
liblinphone++.so.10:_ZN8linphone4Core18addAllToConferenceEv
liblinphone++.so.10:_ZN8linphone4Core18createPresenceNoteERKNSt7__cxx1112basic_stringIcSt11char_traitsIcESaIcEEES8_
liblinphone++.so.10:_ZN8linphone4Core18enableVideoCaptureEb
liblinphone++.so.10:_ZN8linphone4Core18enableVideoDisplayEb
liblinphone++.so.10:_ZN8linphone4Core18enableVideoPreviewEb
liblinphone++.so.10:_ZN8linphone4Core18findContactsByCharERKNSt7__cxx1112basic_stringIcSt11char_traitsIcESaIcEEEb
liblinphone++.so.10:_ZN8linphone4Core18getChatRoomFromUriERKNSt7__cxx1112basic_stringIcSt11char_traitsIcESaIcEEE
liblinphone++.so.10:_ZN8linphone4Core18getZrtpSecretsFileB5cxx11Ev
liblinphone++.so.10:_ZN8linphone4Core18isNetworkReachableEv
liblinphone++.so.10:_ZN8linphone4Core18recordAwareEnabledEv
liblinphone++.so.10:_ZN8linphone4Core18reloadSoundDevicesEv
liblinphone++.so.10:_ZN8linphone4Core18reloadVideoDevicesEv
liblinphone++.so.10:_ZN8linphone4Core18removeLinphoneSpecERKNSt7__cxx1112basic_stringIcSt11char_traitsIcESaIcEEE
liblinphone++.so.10:_ZN8linphone4Core18removeSupportedTagERKNSt7__cxx1112basic_stringIcSt11char_traitsIcESaIcEEE
liblinphone++.so.10:_ZN8linphone4Core18resetLogCollectionEv
liblinphone++.so.10:_ZN8linphone4Core18setMediaEncryptionENS_15MediaEncryptionE
liblinphone++.so.10:_ZN8linphone4Core18setProvisioningUriERKNSt7__cxx1112basic_stringIcSt11char_traitsIcESaIcEEE
liblinphone++.so.10:_ZN8linphone4Core18setUploadBandwidthEi
liblinphone++.so.10:_ZN8linphone4Core18setZrtpSecretsFileERKNSt7__cxx1112basic_stringIcSt11char_traitsIcESaIcEEE
liblinphone++.so.10:_ZN8linphone4Core19createAccountParamsEv
liblinphone++.so.10:_ZN8linphone4Core19createPresenceModelEv
liblinphone++.so.10:_ZN8linphone4Core19createXmlRpcSessionERKNSt7__cxx1112basic_stringIcSt11char_traitsIcESaIcEEE
liblinphone++.so.10:_ZN8linphone4Core19enableLogCollectionENS_18LogCollectionStateE
liblinphone++.so.10:_ZN8linphone4Core19enableNativeRingingEb
liblinphone++.so.10:_ZN8linphone4Core19fileFormatSupportedERKNSt7__cxx1112basic_stringIcSt11char_traitsIcESaIcEEE
liblinphone++.so.10:_ZN8linphone4Core19getMissedCallsCountEv
liblinphone++.so.10:_ZN8linphone4Core19getSrtpCryptoSuitesB5cxx11Ev
liblinphone++.so.10:_ZN8linphone4Core19getStaticPictureFpsEv
liblinphone++.so.10:_ZN8linphone4Core19getTextPayloadTypesB5cxx11Ev
liblinphone++.so.10:_ZN8linphone4Core19realtimeTextEnabledEv
liblinphone++.so.10:_ZN8linphone4Core19setInputAudioDeviceERKSt10shared_ptrINS_11AudioDeviceEE
liblinphone++.so.10:_ZN8linphone4Core19setNetworkReachableEb
liblinphone++.so.10:_ZN8linphone4Core19setQrcodeDecodeRectEiiii
liblinphone++.so.10:_ZN8linphone4Core19setSrtpCryptoSuitesERKNSt7__cxx1112basic_stringIcSt11char_traitsIcESaIcEEE
liblinphone++.so.10:_ZN8linphone4Core19setStaticPictureFpsEf
liblinphone++.so.10:_ZN8linphone4Core19setTextPayloadTypesERKNSt7__cxx114listISt10shared_ptrINS_11PayloadTypeEESaIS5_EEE
liblinphone++.so.10:_ZN8linphone4Core19takePreviewSnapshotERKNSt7__cxx1112basic_stringIcSt11char_traitsIcESaIcEEE
liblinphone++.so.10:_ZN8linphone4Core19terminateConferenceEv
liblinphone++.so.10:_ZN8linphone4Core19uploadLogCollectionEv
liblinphone++.so.10:_ZN8linphone4Core19videoCaptureEnabledEv
liblinphone++.so.10:_ZN8linphone4Core19videoDisplayEnabledEv
liblinphone++.so.10:_ZN8linphone4Core20activateAudioSessionEb
liblinphone++.so.10:_ZN8linphone4Core20createAccountCreatorERKNSt7__cxx1112basic_stringIcSt11char_traitsIcESaIcEEE
liblinphone++.so.10:_ZN8linphone4Core20createLdapWithParamsERKSt10shared_ptrINS_10LdapParamsEE
liblinphone++.so.10:_ZN8linphone4Core20createOneShotPublishERKSt10shared_ptrINS_7AddressEERKNSt7__cxx1112basic_stringIcSt11char_traitsIcESaIcEEE
liblinphone++.so.10:_ZN8linphone4Core20createPresencePersonERKNSt7__cxx1112basic_stringIcSt11char_traitsIcESaIcEEE
liblinphone++.so.10:_ZN8linphone4Core20enableAudioMulticastEb
liblinphone++.so.10:_ZN8linphone4Core20enableForcedIceRelayEb
liblinphone++.so.10:_ZN8linphone4Core20enableVideoMulticastEb
liblinphone++.so.10:_ZN8linphone4Core20getAccountCreatorUrlB5cxx11Ev
liblinphone++.so.10:_ZN8linphone4Core20getAudioPayloadTypesB5cxx11Ev
liblinphone++.so.10:_ZN8linphone4Core20getLimeX3DhServerUrlB5cxx11Ev
liblinphone++.so.10:_ZN8linphone4Core20getLinphoneSpecsListB5cxx11Ev
liblinphone++.so.10:_ZN8linphone4Core20getLogCollectionPathB5cxx11Ev
liblinphone++.so.10:_ZN8linphone4Core20getUseRfc2833ForDtmfEv
liblinphone++.so.10:_ZN8linphone4Core20getVideoPayloadTypesB5cxx11Ev
liblinphone++.so.10:_ZN8linphone4Core20isRecordAwareEnabledEv
liblinphone++.so.10:_ZN8linphone4Core20logCollectionEnabledEv
liblinphone++.so.10:_ZN8linphone4Core20removeFromConferenceERKSt10shared_ptrINS_4CallEE
liblinphone++.so.10:_ZN8linphone4Core20setAccountCreatorUrlERKNSt7__cxx1112basic_stringIcSt11char_traitsIcESaIcEEE
liblinphone++.so.10:_ZN8linphone4Core20setAudioMulticastTtlEi
liblinphone++.so.10:_ZN8linphone4Core20setAudioPayloadTypesERKNSt7__cxx114listISt10shared_ptrINS_11PayloadTypeEESaIS5_EEE
liblinphone++.so.10:_ZN8linphone4Core20setDownloadBandwidthEi
liblinphone++.so.10:_ZN8linphone4Core20setExpectedBandwidthEi
liblinphone++.so.10:_ZN8linphone4Core20setLimeX3DhServerUrlERKNSt7__cxx1112basic_stringIcSt11char_traitsIcESaIcEEE
liblinphone++.so.10:_ZN8linphone4Core20setLinphoneSpecsListERKNSt7__cxx114listINS1_12basic_stringIcSt11char_traitsIcESaIcEEESaIS7_EEE
liblinphone++.so.10:_ZN8linphone4Core20setLogCollectionPathERKNSt7__cxx1112basic_stringIcSt11char_traitsIcESaIcEEE
liblinphone++.so.10:_ZN8linphone4Core20setMediaResourceModeENS_17MediaResourceModeE
liblinphone++.so.10:_ZN8linphone4Core20setOutputAudioDeviceERKSt10shared_ptrINS_11AudioDeviceEE
liblinphone++.so.10:_ZN8linphone4Core20setUseRfc2833ForDtmfEb
liblinphone++.so.10:_ZN8linphone4Core20setVideoMulticastTtlEi
liblinphone++.so.10:_ZN8linphone4Core20setVideoPayloadTypesERKNSt7__cxx114listISt10shared_ptrINS_11PayloadTypeEESaIS5_EEE
liblinphone++.so.10:_ZN8linphone4Core20soundResourcesLockedEv
liblinphone++.so.10:_ZN8linphone4Core21addContentTypeSupportERKNSt7__cxx1112basic_stringIcSt11char_traitsIcESaIcEEE
liblinphone++.so.10:_ZN8linphone4Core21addProvisioningHeaderERKNSt7__cxx1112basic_stringIcSt11char_traitsIcESaIcEEES8_
liblinphone++.so.10:_ZN8linphone4Core21compressLogCollectionB5cxx11Ev
liblinphone++.so.10:_ZN8linphone4Core21configureAudioSessionEv
liblinphone++.so.10:_ZN8linphone4Core21createPresenceServiceERKNSt7__cxx1112basic_stringIcSt11char_traitsIcESaIcEEENS_19PresenceBasicStatusES8_
liblinphone++.so.10:_ZN8linphone4Core21enableAutoSendRingingEb
liblinphone++.so.10:_ZN8linphone4Core21enableCfgLinesMergingEb
liblinphone++.so.10:_ZN8linphone4Core21enableTcapLineMergingEb
liblinphone++.so.10:_ZN8linphone4Core21findCallLogFromCallIdERKNSt7__cxx1112basic_stringIcSt11char_traitsIcESaIcEEE
liblinphone++.so.10:_ZN8linphone4Core21getFileTransferServerB5cxx11Ev
liblinphone++.so.10:_ZN8linphone4Core21getPreferredFramerateEv
liblinphone++.so.10:_ZN8linphone4Core21getProxyConfigByIdkeyERKNSt7__cxx1112basic_stringIcSt11char_traitsIcESaIcEEE
liblinphone++.so.10:_ZN8linphone4Core21getVideoDisplayFilterB5cxx11Ev
liblinphone++.so.10:_ZN8linphone4Core21migrateLogsFromRcToDbEv
liblinphone++.so.10:_ZN8linphone4Core21preemptSoundResourcesEv
liblinphone++.so.10:_ZN8linphone4Core21resetMissedCallsCountEv
liblinphone++.so.10:_ZN8linphone4Core21setAudioMulticastAddrERKNSt7__cxx1112basic_stringIcSt11char_traitsIcESaIcEEE
liblinphone++.so.10:_ZN8linphone4Core21setDefaultProxyConfigERKSt10shared_ptrINS_11ProxyConfigEE
liblinphone++.so.10:_ZN8linphone4Core21setFileTransferServerERKNSt7__cxx1112basic_stringIcSt11char_traitsIcESaIcEEE
liblinphone++.so.10:_ZN8linphone4Core21setPreferredFramerateEf
liblinphone++.so.10:_ZN8linphone4Core21setRemoteRingbackToneERKNSt7__cxx1112basic_stringIcSt11char_traitsIcESaIcEEE
liblinphone++.so.10:_ZN8linphone4Core21setVideoDisplayFilterERKNSt7__cxx1112basic_stringIcSt11char_traitsIcESaIcEEE
liblinphone++.so.10:_ZN8linphone4Core21setVideoMulticastAddrERKNSt7__cxx1112basic_stringIcSt11char_traitsIcESaIcEEE
liblinphone++.so.10:_ZN8linphone4Core21soundDeviceCanCaptureERKNSt7__cxx1112basic_stringIcSt11char_traitsIcESaIcEEE
liblinphone++.so.10:_ZN8linphone4Core22autoSendRingingEnabledEv
liblinphone++.so.10:_ZN8linphone4Core22createConferenceParamsERKSt10shared_ptrINS_10ConferenceEE
liblinphone++.so.10:_ZN8linphone4Core22createPresenceActivityENS_16PresenceActivity4TypeERKNSt7__cxx1112basic_stringIcSt11char_traitsIcESaIcEEE
liblinphone++.so.10:_ZN8linphone4Core22enableConferenceServerEb
liblinphone++.so.10:_ZN8linphone4Core22enableEchoCancellationEb
liblinphone++.so.10:_ZN8linphone4Core22enablePushNotificationEb
liblinphone++.so.10:_ZN8linphone4Core22enableVideoSourceReuseEb
liblinphone++.so.10:_ZN8linphone4Core22getDisableRecordOnMuteEv
liblinphone++.so.10:_ZN8linphone4Core22getFriendsDatabasePathB5cxx11Ev
liblinphone++.so.10:_ZN8linphone4Core22getLastOutgoingCallLogEv
liblinphone++.so.10:_ZN8linphone4Core22getLogCollectionPrefixB5cxx11Ev
liblinphone++.so.10:_ZN8linphone4Core22getSipTransportTimeoutEv
liblinphone++.so.10:_ZN8linphone4Core22isMediaFilterSupportedERKNSt7__cxx1112basic_stringIcSt11char_traitsIcESaIcEEE
liblinphone++.so.10:_ZN8linphone4Core22setDisableRecordOnMuteEb
liblinphone++.so.10:_ZN8linphone4Core22setFriendsDatabasePathERKNSt7__cxx1112basic_stringIcSt11char_traitsIcESaIcEEE
liblinphone++.so.10:_ZN8linphone4Core22setLogCollectionPrefixERKNSt7__cxx1112basic_stringIcSt11char_traitsIcESaIcEEE
liblinphone++.so.10:_ZN8linphone4Core22setNativeVideoWindowIdEPv
liblinphone++.so.10:_ZN8linphone4Core22setSipNetworkReachableEb
liblinphone++.so.10:_ZN8linphone4Core22setSipTransportTimeoutEi
liblinphone++.so.10:_ZN8linphone4Core22soundDeviceCanPlaybackERKNSt7__cxx1112basic_stringIcSt11char_traitsIcESaIcEEE
liblinphone++.so.10:_ZN8linphone4Core23createFriendWithAddressERKNSt7__cxx1112basic_stringIcSt11char_traitsIcESaIcEEE
liblinphone++.so.10:_ZN8linphone4Core23getCallLogsDatabasePathB5cxx11Ev
liblinphone++.so.10:_ZN8linphone4Core23getCameraSensorRotationEv
liblinphone++.so.10:_ZN8linphone4Core23getPostQuantumAvailableEv
liblinphone++.so.10:_ZN8linphone4Core23getPrimaryContactParsedEv
liblinphone++.so.10:_ZN8linphone4Core23getUserCertificatesPathB5cxx11Ev
liblinphone++.so.10:_ZN8linphone4Core23getZrtpKeyAgreementListB5cxx11Ev
liblinphone++.so.10:_ZN8linphone4Core23hasBuiltinEchoCancellerEv
liblinphone++.so.10:_ZN8linphone4Core23inviteAddressWithParamsERKSt10shared_ptrIKNS_7AddressEERKS1_IKNS_10CallParamsEE
liblinphone++.so.10:_ZN8linphone4Core23inviteAddressWithParamsERKSt10shared_ptrIKNS_7AddressEERKS1_IKNS_10CallParamsEERKNSt7__cxx1112basic_stringIcSt11char_traitsIcESaIcEEERKS1_IKNS_7ContentEE
liblinphone++.so.10:_ZN8linphone4Core23isIncomingInvitePendingEv
liblinphone++.so.10:_ZN8linphone4Core23migrateToMultiTransportEv
liblinphone++.so.10:_ZN8linphone4Core23processPushNotificationERKNSt7__cxx1112basic_stringIcSt11char_traitsIcESaIcEEE
liblinphone++.so.10:_ZN8linphone4Core23pushNotificationEnabledEv
liblinphone++.so.10:_ZN8linphone4Core23setCallLogsDatabasePathERKNSt7__cxx1112basic_stringIcSt11char_traitsIcESaIcEEE
liblinphone++.so.10:_ZN8linphone4Core23setConsolidatedPresenceENS_20ConsolidatedPresenceE
liblinphone++.so.10:_ZN8linphone4Core23setUserCertificatesPathERKNSt7__cxx1112basic_stringIcSt11char_traitsIcESaIcEEE
liblinphone++.so.10:_ZN8linphone4Core23stopConferenceRecordingEv
liblinphone++.so.10:_ZN8linphone4Core24clearProvisioningHeadersEv
liblinphone++.so.10:_ZN8linphone4Core24didRegisterForRemotePushEPv
liblinphone++.so.10:_ZN8linphone4Core24enableQrcodeVideoPreviewEb
liblinphone++.so.10:_ZN8linphone4Core24getNativePreviewWindowIdEv
liblinphone++.so.10:_ZN8linphone4Core24mediaEncryptionSupportedENS_15MediaEncryptionE
liblinphone++.so.10:_ZN8linphone4Core24removeContentTypeSupportERKNSt7__cxx1112basic_stringIcSt11char_traitsIcESaIcEEE
liblinphone++.so.10:_ZN8linphone4Core24setAccountCreatorBackendENS_14AccountCreator7BackendE
liblinphone++.so.10:_ZN8linphone4Core24setAdaptiveRateAlgorithmERKNSt7__cxx1112basic_stringIcSt11char_traitsIcESaIcEEE
liblinphone++.so.10:_ZN8linphone4Core24setMediaNetworkReachableEb
liblinphone++.so.10:_ZN8linphone4Core24setNativePreviewWindowIdEPv
liblinphone++.so.10:_ZN8linphone4Core24setTag100RelSupportLevelENS_12SupportLevelE
liblinphone++.so.10:_ZN8linphone4Core24setVideoActivationPolicyERKSt10shared_ptrIKNS_21VideoActivationPolicyEE
liblinphone++.so.10:_ZN8linphone4Core24startConferenceRecordingERKNSt7__cxx1112basic_stringIcSt11char_traitsIcESaIcEEE
liblinphone++.so.10:_ZN8linphone4Core24verifyServerCertificatesEb
liblinphone++.so.10:_ZN8linphone4Core25createClientGroupChatRoomERKNSt7__cxx1112basic_stringIcSt11char_traitsIcESaIcEEEb
liblinphone++.so.10:_ZN8linphone4Core25createClientGroupChatRoomERKNSt7__cxx1112basic_stringIcSt11char_traitsIcESaIcEEEbb
liblinphone++.so.10:_ZN8linphone4Core25createConferenceSchedulerEv
liblinphone++.so.10:_ZN8linphone4Core25enableAdaptiveRateControlEb
liblinphone++.so.10:_ZN8linphone4Core25enableGenericComfortNoiseEb
liblinphone++.so.10:_ZN8linphone4Core25isPushNotificationEnabledEv
liblinphone++.so.10:_ZN8linphone4Core25setPreviewVideoDefinitionERKSt10shared_ptrINS_15VideoDefinitionEE
liblinphone++.so.10:_ZN8linphone4Core25setZrtpKeyAgreementSuitesERKNSt7__cxx114listINS_16ZrtpKeyAgreementESaIS3_EEE
liblinphone++.so.10:_ZN8linphone4Core26createConferenceWithParamsERKSt10shared_ptrIKNS_16ConferenceParamsEE
liblinphone++.so.10:_ZN8linphone4Core26createPrimaryContactParsedEv
liblinphone++.so.10:_ZN8linphone4Core26enableRetransmissionOnNackEb
liblinphone++.so.10:_ZN8linphone4Core26isMediaEncryptionMandatoryEv
liblinphone++.so.10:_ZN8linphone4Core26isMediaEncryptionSupportedENS_15MediaEncryptionE
liblinphone++.so.10:_ZN8linphone4Core26isVerifyServerCertificatesEv
liblinphone++.so.10:_ZN8linphone4Core26setDefaultConferenceLayoutENS_10Conference6LayoutE
liblinphone++.so.10:_ZN8linphone4Core26setDefaultInputAudioDeviceERKSt10shared_ptrINS_11AudioDeviceEE
liblinphone++.so.10:_ZN8linphone4Core26setEchoCancellerFilterNameERKNSt7__cxx1112basic_stringIcSt11char_traitsIcESaIcEEE
liblinphone++.so.10:_ZN8linphone4Core26setPushIncomingCallTimeoutEi
liblinphone++.so.10:_ZN8linphone4Core27createDefaultChatRoomParamsEv
liblinphone++.so.10:_ZN8linphone4Core27createNativePreviewWindowIdEv
liblinphone++.so.10:_ZN8linphone4Core27deleteConferenceInformationERKSt10shared_ptrINS_14ConferenceInfoEE
liblinphone++.so.10:_ZN8linphone4Core27enableAudioAdaptiveJittcompEb
liblinphone++.so.10:_ZN8linphone4Core27enableCapabilityNegociationEb
liblinphone++.so.10:_ZN8linphone4Core27enableVideoAdaptiveJittcompEb
liblinphone++.so.10:_ZN8linphone4Core27getCurrentCallRemoteAddressEv
liblinphone++.so.10:_ZN8linphone4Core27getLogCollectionMaxFileSizeEv
liblinphone++.so.10:_ZN8linphone4Core27isPushNotificationAvailableEv
liblinphone++.so.10:_ZN8linphone4Core27retransmissionOnNackEnabledEv
liblinphone++.so.10:_ZN8linphone4Core27setDefaultEphemeralLifetimeEl
liblinphone++.so.10:_ZN8linphone4Core27setDefaultOutputAudioDeviceERKSt10shared_ptrINS_11AudioDeviceEE
liblinphone++.so.10:_ZN8linphone4Core27setLogCollectionMaxFileSizeEm
liblinphone++.so.10:_ZN8linphone4Core27setMediaEncryptionMandatoryEb
liblinphone++.so.10:_ZN8linphone4Core27setPreferredVideoDefinitionERKSt10shared_ptrINS_15VideoDefinitionEE
liblinphone++.so.10:_ZN8linphone4Core27setVideoCodecPriorityPolicyENS_19CodecPriorityPolicyE
liblinphone++.so.10:_ZN8linphone4Core28audioAdaptiveJittcompEnabledEv
liblinphone++.so.10:_ZN8linphone4Core28enableAutoDownloadIcalendarsEb
liblinphone++.so.10:_ZN8linphone4Core28enableFriendListSubscriptionEb
liblinphone++.so.10:_ZN8linphone4Core28getConferenceInformationListB5cxx11Ev
liblinphone++.so.10:_ZN8linphone4Core28getDefaultVideoDisplayFilterB5cxx11Ev
liblinphone++.so.10:_ZN8linphone4Core28notifyNotifyPresenceReceivedERKSt10shared_ptrINS_6FriendEE
liblinphone++.so.10:_ZN8linphone4Core28videoAdaptiveJittcompEnabledEv
liblinphone++.so.10:_ZN8linphone4Core29autoDownloadIcalendarsEnabledEv
liblinphone++.so.10:_ZN8linphone4Core29enableVibrationOnIncomingCallEb
liblinphone++.so.10:_ZN8linphone4Core29friendListSubscriptionEnabledEv
liblinphone++.so.10:_ZN8linphone4Core29getConferenceLocalInputVolumeEv
liblinphone++.so.10:_ZN8linphone4Core29setDigestAuthenticationPolicyERKSt10shared_ptrINS_26DigestAuthenticationPolicyEE
liblinphone++.so.10:_ZN8linphone4Core29startEchoCancellerCalibrationEv
liblinphone++.so.10:_ZN8linphone4Core30vibrationOnIncomingCallEnabledEv
liblinphone++.so.10:_ZN8linphone4Core31chatRoomSetDefaultEphemeralModeENS_8ChatRoom13EphemeralModeE
liblinphone++.so.10:_ZN8linphone4Core31createPresenceModelWithActivityENS_16PresenceActivity4TypeERKNSt7__cxx1112basic_stringIcSt11char_traitsIcESaIcEEE
liblinphone++.so.10:_ZN8linphone4Core31getLogCollectionUploadServerUrlB5cxx11Ev
liblinphone++.so.10:_ZN8linphone4Core31isAutoDownloadIcalendarsEnabledEv
liblinphone++.so.10:_ZN8linphone4Core31isFriendListSubscriptionEnabledEv
liblinphone++.so.10:_ZN8linphone4Core31setLogCollectionUploadServerUrlERKNSt7__cxx1112basic_stringIcSt11char_traitsIcESaIcEEE
liblinphone++.so.10:_ZN8linphone4Core31setPreviewVideoDefinitionByNameERKNSt7__cxx1112basic_stringIcSt11char_traitsIcESaIcEEE
liblinphone++.so.10:_ZN8linphone4Core31setRingDuringIncomingEarlyMediaEb
liblinphone++.so.10:_ZN8linphone4Core32enableConferenceIcsInMessageBodyEb
liblinphone++.so.10:_ZN8linphone4Core32findConferenceInformationFromUriERKSt10shared_ptrINS_7AddressEE
liblinphone++.so.10:_ZN8linphone4Core32getZrtpAvailableKeyAgreementListB5cxx11Ev
liblinphone++.so.10:_ZN8linphone4Core32isVibrationOnIncomingCallEnabledEv
liblinphone++.so.10:_ZN8linphone4Core32realtimeTextSetKeepaliveIntervalEj
liblinphone++.so.10:_ZN8linphone4Core32resetEchoCancellationCalibrationEv
liblinphone++.so.10:_ZN8linphone4Core32setAutoIterateBackgroundScheduleEi
liblinphone++.so.10:_ZN8linphone4Core32setAutoIterateForegroundScheduleEi
liblinphone++.so.10:_ZN8linphone4Core32setConferenceParticipantListTypeENS_10Conference19ParticipantListTypeE
liblinphone++.so.10:_ZN8linphone4Core33enableAutoDownloadVoiceRecordingsEb
liblinphone++.so.10:_ZN8linphone4Core33enableAutomaticHttpProxyDetectionEb
liblinphone++.so.10:_ZN8linphone4Core33getChatMessagesAggregationEnabledEv
liblinphone++.so.10:_ZN8linphone4Core33setChatMessagesAggregationEnabledEb
liblinphone++.so.10:_ZN8linphone4Core33setPreferredVideoDefinitionByNameERKNSt7__cxx1112basic_stringIcSt11char_traitsIcESaIcEEE
liblinphone++.so.10:_ZN8linphone4Core34autoDownloadVoiceRecordingsEnabledEv
liblinphone++.so.10:_ZN8linphone4Core34enableZeroRtpPortForStreamInactiveEb
liblinphone++.so.10:_ZN8linphone4Core34getFutureConferenceInformationListB5cxx11Ev
liblinphone++.so.10:_ZN8linphone4Core34isEchoCancellerCalibrationRequiredEv
liblinphone++.so.10:_ZN8linphone4Core34isSenderNameHiddenInForwardMessageEv
liblinphone++.so.10:_ZN8linphone4Core35enableCapabilityNegotiationReinviteEb
liblinphone++.so.10:_ZN8linphone4Core36isAutoDownloadVoiceRecordingsEnabledEv
liblinphone++.so.10:_ZN8linphone4Core37getConferenceInformationListAfterTimeB5cxx11El
liblinphone++.so.10:_ZN8linphone4Core38createPresenceModelWithActivityAndNoteENS_16PresenceActivity4TypeERKNSt7__cxx1112basic_stringIcSt11char_traitsIcESaIcEEESA_SA_
liblinphone++.so.10:_ZN8linphone4Core38enableSenderNameHiddenInForwardMessageEb
liblinphone++.so.10:_ZN8linphone4Core38getMaxSizeForAutoDownloadIncomingFilesEv
liblinphone++.so.10:_ZN8linphone4Core38setMaxSizeForAutoDownloadIncomingFilesEi
liblinphone++.so.10:_ZN8linphone4Core39notifyNotifyPresenceReceivedForUriOrTelERKSt10shared_ptrINS_6FriendEERKNSt7__cxx1112basic_stringIcSt11char_traitsIcESaIcEEERKS1_IKNS_13PresenceModelEE
liblinphone++.so.10:_ZN8linphone4Core44didRegisterForRemotePushWithStringifiedTokenERKNSt7__cxx1112basic_stringIcSt11char_traitsIcESaIcEEE
liblinphone++.so.10:_ZN8linphone4Core4stopEv
liblinphone++.so.10:_ZN8linphone4Core5startEv
liblinphone++.so.10:_ZN8linphone4Core6inviteERKNSt7__cxx1112basic_stringIcSt11char_traitsIcESaIcEEE
liblinphone++.so.10:_ZN8linphone4Core6setMtuEi
liblinphone++.so.10:_ZN8linphone4Core7addLdapERKSt10shared_ptrINS_4LdapEE
liblinphone++.so.10:_ZN8linphone4Core7iterateEv
liblinphone++.so.10:_ZN8linphone4Core7publishERKSt10shared_ptrINS_7AddressEERKNSt7__cxx1112basic_stringIcSt11char_traitsIcESaIcEEEiRKS1_IKNS_7ContentEE
liblinphone++.so.10:_ZN8linphone4Core7setRingERKNSt7__cxx1112basic_stringIcSt11char_traitsIcESaIcEEE
liblinphone++.so.10:_ZN8linphone4Core7setToneENS_6ToneIDERKNSt7__cxx1112basic_stringIcSt11char_traitsIcESaIcEEE
liblinphone++.so.10:_ZN8linphone4Core8getCallsB5cxx11Ev
liblinphone++.so.10:_ZN8linphone4Core8playDtmfEci
liblinphone++.so.10:_ZN8linphone4Core8setLabelERKNSt7__cxx1112basic_stringIcSt11char_traitsIcESaIcEEE
liblinphone++.so.10:_ZN8linphone4Core8stopDtmfEv
liblinphone++.so.10:_ZN8linphone4Core9enableAgcEb
liblinphone++.so.10:_ZN8linphone4Core9enableMicEb
liblinphone++.so.10:_ZN8linphone4Core9getRootCaB5cxx11Ev
liblinphone++.so.10:_ZN8linphone4Core9playLocalERKNSt7__cxx1112basic_stringIcSt11char_traitsIcESaIcEEE
liblinphone++.so.10:_ZN8linphone4Core9setRootCaERKNSt7__cxx1112basic_stringIcSt11char_traitsIcESaIcEEE
liblinphone++.so.10:_ZN8linphone4Core9setTlsKeyERKNSt7__cxx1112basic_stringIcSt11char_traitsIcESaIcEEE
liblinphone++.so.10:_ZN8linphone4Core9stopAsyncEv
liblinphone++.so.10:_ZN8linphone4Core9subscribeERKSt10shared_ptrINS_7AddressEERKNSt7__cxx1112basic_stringIcSt11char_traitsIcESaIcEEEiRKS1_IKNS_7ContentEE
liblinphone++.so.10:_ZN8linphone4CoreC1EPvb
liblinphone++.so.10:_ZN8linphone4CoreC2EPvb
liblinphone++.so.10:_ZN8linphone4Ldap13newWithParamsERKSt10shared_ptrINS_4CoreEERKS1_INS_10LdapParamsEE
liblinphone++.so.10:_ZN8linphone4Ldap7getCoreEv
liblinphone++.so.10:_ZN8linphone4Ldap8setIndexEi
liblinphone++.so.10:_ZN8linphone4Ldap9getParamsEv
liblinphone++.so.10:_ZN8linphone4Ldap9setParamsERKSt10shared_ptrINS_10LdapParamsEE
liblinphone++.so.10:_ZN8linphone4LdapC1EPvb
liblinphone++.so.10:_ZN8linphone4LdapC2EPvb
liblinphone++.so.10:_ZN8linphone5Alert11addListenerERKSt10shared_ptrINS_13AlertListenerEE
liblinphone++.so.10:_ZN8linphone5Alert12typeToStringB5cxx11ENS0_4TypeE
liblinphone++.so.10:_ZN8linphone5Alert14removeListenerERKSt10shared_ptrINS_13AlertListenerEE
liblinphone++.so.10:_ZN8linphone5Alert15createCallbacksEv
liblinphone++.so.10:_ZN8linphone5Alert18notifyOnTerminatedEv
liblinphone++.so.10:_ZN8linphone5AlertC1EPvb
liblinphone++.so.10:_ZN8linphone5AlertC2EPvb
liblinphone++.so.10:_ZN8linphone5Event11addListenerERKSt10shared_ptrINS_13EventListenerEE
liblinphone++.so.10:_ZN8linphone5Event11denyPublishENS_6ReasonE
liblinphone++.so.10:_ZN8linphone5Event11sendPublishERKSt10shared_ptrIKNS_7ContentEE
liblinphone++.so.10:_ZN8linphone5Event12pausePublishEv
liblinphone++.so.10:_ZN8linphone5Event13acceptPublishEv
liblinphone++.so.10:_ZN8linphone5Event13sendSubscribeERKSt10shared_ptrIKNS_7ContentEE
liblinphone++.so.10:_ZN8linphone5Event13updatePublishERKSt10shared_ptrIKNS_7ContentEE
liblinphone++.so.10:_ZN8linphone5Event14refreshPublishEv
liblinphone++.so.10:_ZN8linphone5Event14removeListenerERKSt10shared_ptrINS_13EventListenerEE
liblinphone++.so.10:_ZN8linphone5Event15addCustomHeaderERKNSt7__cxx1112basic_stringIcSt11char_traitsIcESaIcEEES8_
liblinphone++.so.10:_ZN8linphone5Event15createCallbacksEv
liblinphone++.so.10:_ZN8linphone5Event15getCustomHeaderERKNSt7__cxx1112basic_stringIcSt11char_traitsIcESaIcEEE
liblinphone++.so.10:_ZN8linphone5Event15updateSubscribeERKSt10shared_ptrIKNS_7ContentEE
liblinphone++.so.10:_ZN8linphone5Event16denySubscriptionENS_6ReasonE
liblinphone++.so.10:_ZN8linphone5Event16refreshSubscribeEv
liblinphone++.so.10:_ZN8linphone5Event18acceptSubscriptionEv
liblinphone++.so.10:_ZN8linphone5Event18getSubscriptionDirEv
liblinphone++.so.10:_ZN8linphone5Event18removeCustomHeaderERKNSt7__cxx1112basic_stringIcSt11char_traitsIcESaIcEEE
liblinphone++.so.10:_ZN8linphone5Event6notifyERKSt10shared_ptrIKNS_7ContentEE
liblinphone++.so.10:_ZN8linphone5Event9terminateEv
liblinphone++.so.10:_ZN8linphone5EventC1EPvb
liblinphone++.so.10:_ZN8linphone5EventC2EPvb
liblinphone++.so.10:_ZN8linphone5Range6setMaxEi
liblinphone++.so.10:_ZN8linphone5Range6setMinEi
liblinphone++.so.10:_ZN8linphone5RangeC1EPvb
liblinphone++.so.10:_ZN8linphone5RangeC2EPvb
liblinphone++.so.10:_ZN8linphone5Vcard11removePhotoEv
liblinphone++.so.10:_ZN8linphone5Vcard11setFullNameERKNSt7__cxx1112basic_stringIcSt11char_traitsIcESaIcEEE
liblinphone++.so.10:_ZN8linphone5Vcard11setJobTitleERKNSt7__cxx1112basic_stringIcSt11char_traitsIcESaIcEEE
liblinphone++.so.10:_ZN8linphone5Vcard12setGivenNameERKNSt7__cxx1112basic_stringIcSt11char_traitsIcESaIcEEE
liblinphone++.so.10:_ZN8linphone5Vcard13addSipAddressERKNSt7__cxx1112basic_stringIcSt11char_traitsIcESaIcEEE
liblinphone++.so.10:_ZN8linphone5Vcard13setFamilyNameERKNSt7__cxx1112basic_stringIcSt11char_traitsIcESaIcEEE
liblinphone++.so.10:_ZN8linphone5Vcard14addPhoneNumberERKNSt7__cxx1112basic_stringIcSt11char_traitsIcESaIcEEE
liblinphone++.so.10:_ZN8linphone5Vcard14asVcard4StringB5cxx11Ev
liblinphone++.so.10:_ZN8linphone5Vcard14removeJobTitleEv
liblinphone++.so.10:_ZN8linphone5Vcard15getSipAddressesB5cxx11Ev
liblinphone++.so.10:_ZN8linphone5Vcard15setOrganizationERKNSt7__cxx1112basic_stringIcSt11char_traitsIcESaIcEEE
liblinphone++.so.10:_ZN8linphone5Vcard16generateUniqueIdEv
liblinphone++.so.10:_ZN8linphone5Vcard16removeSipAddressERKNSt7__cxx1112basic_stringIcSt11char_traitsIcESaIcEEE
liblinphone++.so.10:_ZN8linphone5Vcard17removePhoneNumberERKNSt7__cxx1112basic_stringIcSt11char_traitsIcESaIcEEE
liblinphone++.so.10:_ZN8linphone5Vcard17setSkipValidationEb
liblinphone++.so.10:_ZN8linphone5Vcard18editMainSipAddressERKNSt7__cxx1112basic_stringIcSt11char_traitsIcESaIcEEE
liblinphone++.so.10:_ZN8linphone5Vcard18removeOrganizationEv
liblinphone++.so.10:_ZN8linphone5Vcard19addExtendedPropertyERKNSt7__cxx1112basic_stringIcSt11char_traitsIcESaIcEEES8_
liblinphone++.so.10:_ZN8linphone5Vcard23addPhoneNumberWithLabelERKSt10shared_ptrINS_17FriendPhoneNumberEE
liblinphone++.so.10:_ZN8linphone5Vcard26removePhoneNumberWithLabelERKSt10shared_ptrIKNS_17FriendPhoneNumberEE
liblinphone++.so.10:_ZN8linphone5Vcard30removeExtentedPropertiesByNameERKNSt7__cxx1112basic_stringIcSt11char_traitsIcESaIcEEE
liblinphone++.so.10:_ZN8linphone5Vcard6setUidERKNSt7__cxx1112basic_stringIcSt11char_traitsIcESaIcEEE
liblinphone++.so.10:_ZN8linphone5Vcard6setUrlERKNSt7__cxx1112basic_stringIcSt11char_traitsIcESaIcEEE
liblinphone++.so.10:_ZN8linphone5Vcard7setEtagERKNSt7__cxx1112basic_stringIcSt11char_traitsIcESaIcEEE
liblinphone++.so.10:_ZN8linphone5Vcard8getVcardEv
liblinphone++.so.10:_ZN8linphone5Vcard8setPhotoERKNSt7__cxx1112basic_stringIcSt11char_traitsIcESaIcEEE
liblinphone++.so.10:_ZN8linphone5VcardC1EPvb
liblinphone++.so.10:_ZN8linphone5VcardC2EPvb
liblinphone++.so.10:_ZN8linphone6Buffer10setContentEPKhm
liblinphone++.so.10:_ZN8linphone6Buffer11newFromDataEPKhm
liblinphone++.so.10:_ZN8linphone6Buffer13newFromStringERKNSt7__cxx1112basic_stringIcSt11char_traitsIcESaIcEEE
liblinphone++.so.10:_ZN8linphone6Buffer16setStringContentERKNSt7__cxx1112basic_stringIcSt11char_traitsIcESaIcEEE
liblinphone++.so.10:_ZN8linphone6Buffer7setSizeEm
liblinphone++.so.10:_ZN8linphone6BufferC1EPvb
liblinphone++.so.10:_ZN8linphone6BufferC2EPvb
liblinphone++.so.10:_ZN8linphone6Config10cleanEntryERKNSt7__cxx1112basic_stringIcSt11char_traitsIcESaIcEEES8_
liblinphone++.so.10:_ZN8linphone6Config12cleanSectionERKNSt7__cxx1112basic_stringIcSt11char_traitsIcESaIcEEE
liblinphone++.so.10:_ZN8linphone6Config13newFromBufferERKNSt7__cxx1112basic_stringIcSt11char_traitsIcESaIcEEE
liblinphone++.so.10:_ZN8linphone6Config13setStringListERKNSt7__cxx1112basic_stringIcSt11char_traitsIcESaIcEEES8_RKNS1_4listIS6_SaIS6_EEE
liblinphone++.so.10:_ZN8linphone6Config14newWithFactoryERKNSt7__cxx1112basic_stringIcSt11char_traitsIcESaIcEEES8_
liblinphone++.so.10:_ZN8linphone6Config15loadFromXmlFileERKNSt7__cxx1112basic_stringIcSt11char_traitsIcESaIcEEE
liblinphone++.so.10:_ZN8linphone6Config16getKeysNamesListERKNSt7__cxx1112basic_stringIcSt11char_traitsIcESaIcEEE
liblinphone++.so.10:_ZN8linphone6Config17loadFromXmlStringERKNSt7__cxx1112basic_stringIcSt11char_traitsIcESaIcEEE
liblinphone++.so.10:_ZN8linphone6Config19setSkipFlagForEntryERKNSt7__cxx1112basic_stringIcSt11char_traitsIcESaIcEEES8_b
liblinphone++.so.10:_ZN8linphone6Config20getSectionsNamesListB5cxx11Ev
liblinphone++.so.10:_ZN8linphone6Config21setSkipFlagForSectionERKNSt7__cxx1112basic_stringIcSt11char_traitsIcESaIcEEEb
liblinphone++.so.10:_ZN8linphone6Config24setOverwriteFlagForEntryERKNSt7__cxx1112basic_stringIcSt11char_traitsIcESaIcEEES8_b
liblinphone++.so.10:_ZN8linphone6Config26setOverwriteFlagForSectionERKNSt7__cxx1112basic_stringIcSt11char_traitsIcESaIcEEEb
liblinphone++.so.10:_ZN8linphone6Config4syncEv
liblinphone++.so.10:_ZN8linphone6Config6reloadEv
liblinphone++.so.10:_ZN8linphone6Config6setIntERKNSt7__cxx1112basic_stringIcSt11char_traitsIcESaIcEEES8_i
liblinphone++.so.10:_ZN8linphone6Config7setBoolERKNSt7__cxx1112basic_stringIcSt11char_traitsIcESaIcEEES8_b
liblinphone++.so.10:_ZN8linphone6Config8readFileERKNSt7__cxx1112basic_stringIcSt11char_traitsIcESaIcEEE
liblinphone++.so.10:_ZN8linphone6Config8setFloatERKNSt7__cxx1112basic_stringIcSt11char_traitsIcESaIcEEES8_f
liblinphone++.so.10:_ZN8linphone6Config8setInt64ERKNSt7__cxx1112basic_stringIcSt11char_traitsIcESaIcEEES8_l
liblinphone++.so.10:_ZN8linphone6Config8setRangeERKNSt7__cxx1112basic_stringIcSt11char_traitsIcESaIcEEES8_ii
liblinphone++.so.10:_ZN8linphone6Config9setIntHexERKNSt7__cxx1112basic_stringIcSt11char_traitsIcESaIcEEES8_i
liblinphone++.so.10:_ZN8linphone6Config9setStringERKNSt7__cxx1112basic_stringIcSt11char_traitsIcESaIcEEES8_S8_
liblinphone++.so.10:_ZN8linphone6ConfigC1EPvb
liblinphone++.so.10:_ZN8linphone6ConfigC2EPvb
liblinphone++.so.10:_ZN8linphone6Friend10addAddressERKSt10shared_ptrIKNS_7AddressEE
liblinphone++.so.10:_ZN8linphone6Friend10setAddressERKSt10shared_ptrIKNS_7AddressEE
liblinphone++.so.10:_ZN8linphone6Friend10setStarredEb
liblinphone++.so.10:_ZN8linphone6Friend11addListenerERKSt10shared_ptrINS_14FriendListenerEE
liblinphone++.so.10:_ZN8linphone6Friend11createVcardERKNSt7__cxx1112basic_stringIcSt11char_traitsIcESaIcEEE
liblinphone++.so.10:_ZN8linphone6Friend11setJobTitleERKNSt7__cxx1112basic_stringIcSt11char_traitsIcESaIcEEE
liblinphone++.so.10:_ZN8linphone6Friend12newFromVcardERKSt10shared_ptrINS_5VcardEE
liblinphone++.so.10:_ZN8linphone6Friend12setNativeUriERKNSt7__cxx1112basic_stringIcSt11char_traitsIcESaIcEEE
liblinphone++.so.10:_ZN8linphone6Friend13removeAddressERKSt10shared_ptrIKNS_7AddressEE
liblinphone++.so.10:_ZN8linphone6Friend14addPhoneNumberERKNSt7__cxx1112basic_stringIcSt11char_traitsIcESaIcEEE
liblinphone++.so.10:_ZN8linphone6Friend14removeListenerERKSt10shared_ptrINS_14FriendListenerEE
liblinphone++.so.10:_ZN8linphone6Friend15createCallbacksEv
liblinphone++.so.10:_ZN8linphone6Friend15setOrganizationERKNSt7__cxx1112basic_stringIcSt11char_traitsIcESaIcEEE
liblinphone++.so.10:_ZN8linphone6Friend16enableSubscribesEb
liblinphone++.so.10:_ZN8linphone6Friend16setPresenceModelERKSt10shared_ptrINS_13PresenceModelEE
liblinphone++.so.10:_ZN8linphone6Friend17removePhoneNumberERKNSt7__cxx1112basic_stringIcSt11char_traitsIcESaIcEEE
liblinphone++.so.10:_ZN8linphone6Friend21setIncSubscribePolicyENS_15SubscribePolicyE
liblinphone++.so.10:_ZN8linphone6Friend23addPhoneNumberWithLabelERKSt10shared_ptrINS_17FriendPhoneNumberEE
liblinphone++.so.10:_ZN8linphone6Friend26removePhoneNumberWithLabelERKSt10shared_ptrIKNS_17FriendPhoneNumberEE
liblinphone++.so.10:_ZN8linphone6Friend27setPresenceModelForUriOrTelERKNSt7__cxx1112basic_stringIcSt11char_traitsIcESaIcEEERKSt10shared_ptrINS_13PresenceModelEE
liblinphone++.so.10:_ZN8linphone6Friend4doneEv
liblinphone++.so.10:_ZN8linphone6Friend4editEv
liblinphone++.so.10:_ZN8linphone6Friend4saveERKSt10shared_ptrINS_4CoreEE
liblinphone++.so.10:_ZN8linphone6Friend6removeEv
liblinphone++.so.10:_ZN8linphone6Friend7setNameERKNSt7__cxx1112basic_stringIcSt11char_traitsIcESaIcEEE
liblinphone++.so.10:_ZN8linphone6Friend8setPhotoERKNSt7__cxx1112basic_stringIcSt11char_traitsIcESaIcEEE
liblinphone++.so.10:_ZN8linphone6Friend8setVcardERKSt10shared_ptrINS_5VcardEE
liblinphone++.so.10:_ZN8linphone6Friend9setRefKeyERKNSt7__cxx1112basic_stringIcSt11char_traitsIcESaIcEEE
liblinphone++.so.10:_ZN8linphone6FriendC1EPvb
liblinphone++.so.10:_ZN8linphone6FriendC2EPvb
liblinphone++.so.10:_ZN8linphone6Object10dataExistsERKNSt7__cxx1112basic_stringIcSt11char_traitsIcESaIcEEE
liblinphone++.so.10:_ZN8linphone6Object12sUserDataKeyB5cxx11E
liblinphone++.so.10:_ZN8linphone6Object15sharedPtrToCPtrERKSt10shared_ptrIKS0_E
liblinphone++.so.10:_ZN8linphone6Object18getBackPtrFromCPtrEPKv
liblinphone++.so.10:_ZN8linphone6Object9unrefCPtrEPv
liblinphone++.so.10:_ZN8linphone6Object9unsetDataERKNSt7__cxx1112basic_stringIcSt11char_traitsIcESaIcEEE
liblinphone++.so.10:_ZN8linphone6ObjectC1EPvb
liblinphone++.so.10:_ZN8linphone6ObjectC2EPvb
liblinphone++.so.10:_ZN8linphone6ObjectD0Ev
liblinphone++.so.10:_ZN8linphone6ObjectD1Ev
liblinphone++.so.10:_ZN8linphone6ObjectD2Ev
liblinphone++.so.10:_ZN8linphone6Player11addListenerERKSt10shared_ptrINS_14PlayerListenerEE
liblinphone++.so.10:_ZN8linphone6Player11getDurationEv
liblinphone++.so.10:_ZN8linphone6Player11setWindowIdEPv
liblinphone++.so.10:_ZN8linphone6Player13getVolumeGainEv
liblinphone++.so.10:_ZN8linphone6Player13setVolumeGainEf
liblinphone++.so.10:_ZN8linphone6Player14createWindowIdEv
liblinphone++.so.10:_ZN8linphone6Player14removeListenerERKSt10shared_ptrINS_14PlayerListenerEE
liblinphone++.so.10:_ZN8linphone6Player15createCallbacksEv
liblinphone++.so.10:_ZN8linphone6Player18getCurrentPositionEv
liblinphone++.so.10:_ZN8linphone6Player19getIsVideoAvailableEv
liblinphone++.so.10:_ZN8linphone6Player4openERKNSt7__cxx1112basic_stringIcSt11char_traitsIcESaIcEEE
liblinphone++.so.10:_ZN8linphone6Player4seekEi
liblinphone++.so.10:_ZN8linphone6Player5closeEv
liblinphone++.so.10:_ZN8linphone6Player5pauseEv
liblinphone++.so.10:_ZN8linphone6Player5startEv
liblinphone++.so.10:_ZN8linphone6Player8getStateEv
liblinphone++.so.10:_ZN8linphone6PlayerC1EPvb
liblinphone++.so.10:_ZN8linphone6PlayerC2EPvb
liblinphone++.so.10:_ZN8linphone6Tunnel11getUsernameB5cxx11Ev
liblinphone++.so.10:_ZN8linphone6Tunnel11setUsernameERKNSt7__cxx1112basic_stringIcSt11char_traitsIcESaIcEEE
liblinphone++.so.10:_ZN8linphone6Tunnel12cleanServersEv
liblinphone++.so.10:_ZN8linphone6Tunnel12removeServerERKSt10shared_ptrINS_12TunnelConfigEE
liblinphone++.so.10:_ZN8linphone6Tunnel12setHttpProxyERKNSt7__cxx1112basic_stringIcSt11char_traitsIcESaIcEEEiS8_S8_
liblinphone++.so.10:_ZN8linphone6Tunnel14enableDualModeEb
liblinphone++.so.10:_ZN8linphone6Tunnel20setHttpProxyAuthInfoERKNSt7__cxx1112basic_stringIcSt11char_traitsIcESaIcEEES8_
liblinphone++.so.10:_ZN8linphone6Tunnel7setModeENS0_4ModeE
liblinphone++.so.10:_ZN8linphone6Tunnel9addServerERKSt10shared_ptrINS_12TunnelConfigEE
liblinphone++.so.10:_ZN8linphone6Tunnel9enableSipEb
liblinphone++.so.10:_ZN8linphone6Tunnel9getDomainB5cxx11Ev
liblinphone++.so.10:_ZN8linphone6Tunnel9reconnectEv
liblinphone++.so.10:_ZN8linphone6Tunnel9setDomainERKNSt7__cxx1112basic_stringIcSt11char_traitsIcESaIcEEE
liblinphone++.so.10:_ZN8linphone6TunnelC1EPvb
liblinphone++.so.10:_ZN8linphone6TunnelC2EPvb
liblinphone++.so.10:_ZN8linphone7Account11addListenerERKSt10shared_ptrINS_15AccountListenerEE
liblinphone++.so.10:_ZN8linphone7Account11avpfEnabledEv
liblinphone++.so.10:_ZN8linphone7Account12findAuthInfoEv
liblinphone++.so.10:_ZN8linphone7Account12getErrorInfoEv
liblinphone++.so.10:_ZN8linphone7Account12getTransportEv
liblinphone++.so.10:_ZN8linphone7Account13getDependencyEv
liblinphone++.so.10:_ZN8linphone7Account13isAvpfEnabledEv
liblinphone++.so.10:_ZN8linphone7Account13newWithConfigERKSt10shared_ptrINS_4CoreEERKS1_INS_13AccountParamsEERKS1_INS_11ProxyConfigEE
liblinphone++.so.10:_ZN8linphone7Account13pauseRegisterEv
liblinphone++.so.10:_ZN8linphone7Account13setDependencyERKSt10shared_ptrIS0_E
liblinphone++.so.10:_ZN8linphone7Account14addCustomParamERKNSt7__cxx1112basic_stringIcSt11char_traitsIcESaIcEEES8_
liblinphone++.so.10:_ZN8linphone7Account14removeListenerERKSt10shared_ptrINS_15AccountListenerEE
liblinphone++.so.10:_ZN8linphone7Account15createCallbacksEv
liblinphone++.so.10:_ZN8linphone7Account15getCustomHeaderERKNSt7__cxx1112basic_stringIcSt11char_traitsIcESaIcEEE
liblinphone++.so.10:_ZN8linphone7Account15normalizeSipUriERKNSt7__cxx1112basic_stringIcSt11char_traitsIcESaIcEEE
liblinphone++.so.10:_ZN8linphone7Account15refreshRegisterEv
liblinphone++.so.10:_ZN8linphone7Account15setCustomHeaderERKNSt7__cxx1112basic_stringIcSt11char_traitsIcESaIcEEES8_
liblinphone++.so.10:_ZN8linphone7Account17getContactAddressEv
liblinphone++.so.10:_ZN8linphone7Account17setContactAddressERKSt10shared_ptrIKNS_7AddressEE
liblinphone++.so.10:_ZN8linphone7Account21resetMissedCallsCountEv
liblinphone++.so.10:_ZN8linphone7Account7getCoreEv
liblinphone++.so.10:_ZN8linphone7Account8getErrorEv
liblinphone++.so.10:_ZN8linphone7Account8getStateEv
liblinphone++.so.10:_ZN8linphone7Account9setParamsERKSt10shared_ptrINS_13AccountParamsEE
liblinphone++.so.10:_ZN8linphone7AccountC1EPvb
liblinphone++.so.10:_ZN8linphone7AccountC2EPvb
liblinphone++.so.10:_ZN8linphone7Address11setPasswordERKNSt7__cxx1112basic_stringIcSt11char_traitsIcESaIcEEE
liblinphone++.so.10:_ZN8linphone7Address11setUriParamERKNSt7__cxx1112basic_stringIcSt11char_traitsIcESaIcEEES8_
liblinphone++.so.10:_ZN8linphone7Address11setUsernameERKNSt7__cxx1112basic_stringIcSt11char_traitsIcESaIcEEE
liblinphone++.so.10:_ZN8linphone7Address12setTransportENS_13TransportTypeE
liblinphone++.so.10:_ZN8linphone7Address12setUriParamsERKNSt7__cxx1112basic_stringIcSt11char_traitsIcESaIcEEE
liblinphone++.so.10:_ZN8linphone7Address14removeUriParamERKNSt7__cxx1112basic_stringIcSt11char_traitsIcESaIcEEE
liblinphone++.so.10:_ZN8linphone7Address14setDisplayNameERKNSt7__cxx1112basic_stringIcSt11char_traitsIcESaIcEEE
liblinphone++.so.10:_ZN8linphone7Address14setMethodParamERKNSt7__cxx1112basic_stringIcSt11char_traitsIcESaIcEEE
liblinphone++.so.10:_ZN8linphone7Address5cleanEv
liblinphone++.so.10:_ZN8linphone7Address7setPortEi
liblinphone++.so.10:_ZN8linphone7Address8setParamERKNSt7__cxx1112basic_stringIcSt11char_traitsIcESaIcEEES8_
liblinphone++.so.10:_ZN8linphone7Address9setDomainERKNSt7__cxx1112basic_stringIcSt11char_traitsIcESaIcEEE
liblinphone++.so.10:_ZN8linphone7Address9setHeaderERKNSt7__cxx1112basic_stringIcSt11char_traitsIcESaIcEEES8_
liblinphone++.so.10:_ZN8linphone7Address9setSecureEb
liblinphone++.so.10:_ZN8linphone7AddressC1EPvb
liblinphone++.so.10:_ZN8linphone7AddressC2EPvb
liblinphone++.so.10:_ZN8linphone7CallLog13wasConferenceEv
liblinphone++.so.10:_ZN8linphone7CallLog16setRemoteAddressERKSt10shared_ptrINS_7AddressEE
liblinphone++.so.10:_ZN8linphone7CallLog17getConferenceInfoEv
liblinphone++.so.10:_ZN8linphone7CallLog9setRefKeyERKNSt7__cxx1112basic_stringIcSt11char_traitsIcESaIcEEE
liblinphone++.so.10:_ZN8linphone7CallLogC1EPvb
liblinphone++.so.10:_ZN8linphone7CallLogC2EPvb
liblinphone++.so.10:_ZN8linphone7Content10setSubtypeERKNSt7__cxx1112basic_stringIcSt11char_traitsIcESaIcEEE
liblinphone++.so.10:_ZN8linphone7Content11setEncodingERKNSt7__cxx1112basic_stringIcSt11char_traitsIcESaIcEEE
liblinphone++.so.10:_ZN8linphone7Content11setFilePathERKNSt7__cxx1112basic_stringIcSt11char_traitsIcESaIcEEE
liblinphone++.so.10:_ZN8linphone7Content11setUtf8TextERKNSt7__cxx1112basic_stringIcSt11char_traitsIcESaIcEEE
liblinphone++.so.10:_ZN8linphone7Content14setDispositionERKNSt7__cxx1112basic_stringIcSt11char_traitsIcESaIcEEE
liblinphone++.so.10:_ZN8linphone7Content15addCustomHeaderERKNSt7__cxx1112basic_stringIcSt11char_traitsIcESaIcEEES8_
liblinphone++.so.10:_ZN8linphone7Content15getFileDurationEv
liblinphone++.so.10:_ZN8linphone7Content15setStringBufferERKNSt7__cxx1112basic_stringIcSt11char_traitsIcESaIcEEE
liblinphone++.so.10:_ZN8linphone7Content23addContentTypeParameterERKNSt7__cxx1112basic_stringIcSt11char_traitsIcESaIcEEES8_
liblinphone++.so.10:_ZN8linphone7Content6setKeyERKNSt7__cxx1112basic_stringIcSt11char_traitsIcESaIcEEEm
liblinphone++.so.10:_ZN8linphone7Content7setNameERKNSt7__cxx1112basic_stringIcSt11char_traitsIcESaIcEEE
liblinphone++.so.10:_ZN8linphone7Content7setSizeEm
liblinphone++.so.10:_ZN8linphone7Content7setTypeERKNSt7__cxx1112basic_stringIcSt11char_traitsIcESaIcEEE
liblinphone++.so.10:_ZN8linphone7Content9setBufferEPKhm
liblinphone++.so.10:_ZN8linphone7ContentC1EPvb
liblinphone++.so.10:_ZN8linphone7ContentC2EPvb
liblinphone++.so.10:_ZN8linphone7Factory10getDataDirB5cxx11EPv
liblinphone++.so.10:_ZN8linphone7Factory10setDataDirERKNSt7__cxx1112basic_stringIcSt11char_traitsIcESaIcEEE
liblinphone++.so.10:_ZN8linphone7Factory11createRangeEv
liblinphone++.so.10:_ZN8linphone7Factory11createVcardEv
liblinphone++.so.10:_ZN8linphone7Factory11getCacheDirB5cxx11EPv
liblinphone++.so.10:_ZN8linphone7Factory11setCacheDirERKNSt7__cxx1112basic_stringIcSt11char_traitsIcESaIcEEE
liblinphone++.so.10:_ZN8linphone7Factory12createBufferEv
liblinphone++.so.10:_ZN8linphone7Factory12createConfigERKNSt7__cxx1112basic_stringIcSt11char_traitsIcESaIcEEE
liblinphone++.so.10:_ZN8linphone7Factory12createQrcodeERKNSt7__cxx1112basic_stringIcSt11char_traitsIcESaIcEEEjjj
liblinphone++.so.10:_ZN8linphone7Factory12getConfigDirB5cxx11EPv
liblinphone++.so.10:_ZN8linphone7Factory12setConfigDirERKNSt7__cxx1112basic_stringIcSt11char_traitsIcESaIcEEE
liblinphone++.so.10:_ZN8linphone7Factory13createContentEv
liblinphone++.so.10:_ZN8linphone7Factory14getDownloadDirB5cxx11EPv
liblinphone++.so.10:_ZN8linphone7Factory14setDownloadDirERKNSt7__cxx1112basic_stringIcSt11char_traitsIcESaIcEEE
liblinphone++.so.10:_ZN8linphone7Factory15createErrorInfoEv
liblinphone++.so.10:_ZN8linphone7Factory15getMspluginsDirB5cxx11Ev
liblinphone++.so.10:_ZN8linphone7Factory15isImdnAvailableEv
liblinphone++.so.10:_ZN8linphone7Factory15setMspluginsDirERKNSt7__cxx1112basic_stringIcSt11char_traitsIcESaIcEEE
liblinphone++.so.10:_ZN8linphone7Factory15writeQrcodeFileERKNSt7__cxx1112basic_stringIcSt11char_traitsIcESaIcEEES8_jjj
liblinphone++.so.10:_ZN8linphone7Factory16createTransportsEv
liblinphone++.so.10:_ZN8linphone7Factory16setVfsEncryptionEtPKhm
liblinphone++.so.10:_ZN8linphone7Factory17isQrcodeAvailableEv
liblinphone++.so.10:_ZN8linphone7Factory18createTunnelConfigEv
liblinphone++.so.10:_ZN8linphone7Factory18setTopResourcesDirERKNSt7__cxx1112basic_stringIcSt11char_traitsIcESaIcEEE
liblinphone++.so.10:_ZN8linphone7Factory19enableLogCollectionENS_18LogCollectionStateE
liblinphone++.so.10:_ZN8linphone7Factory19getDataResourcesDirB5cxx11Ev
liblinphone++.so.10:_ZN8linphone7Factory19getRingResourcesDirB5cxx11Ev
liblinphone++.so.10:_ZN8linphone7Factory19setDataResourcesDirERKNSt7__cxx1112basic_stringIcSt11char_traitsIcESaIcEEE
liblinphone++.so.10:_ZN8linphone7Factory19setRingResourcesDirERKNSt7__cxx1112basic_stringIcSt11char_traitsIcESaIcEEE
liblinphone++.so.10:_ZN8linphone7Factory20createBufferFromDataEPKhm
liblinphone++.so.10:_ZN8linphone7Factory20createConferenceInfoEv
liblinphone++.so.10:_ZN8linphone7Factory20getImageResourcesDirB5cxx11Ev
liblinphone++.so.10:_ZN8linphone7Factory20getSoundResourcesDirB5cxx11Ev
liblinphone++.so.10:_ZN8linphone7Factory20setImageResourcesDirERKNSt7__cxx1112basic_stringIcSt11char_traitsIcESaIcEEE
liblinphone++.so.10:_ZN8linphone7Factory20setLogCollectionPathERKNSt7__cxx1112basic_stringIcSt11char_traitsIcESaIcEEE
liblinphone++.so.10:_ZN8linphone7Factory20setSoundResourcesDirERKNSt7__cxx1112basic_stringIcSt11char_traitsIcESaIcEEE
liblinphone++.so.10:_ZN8linphone7Factory21createContentFromFileERKNSt7__cxx1112basic_stringIcSt11char_traitsIcESaIcEEE
liblinphone++.so.10:_ZN8linphone7Factory21createParticipantInfoERKSt10shared_ptrINS_7AddressEE
liblinphone++.so.10:_ZN8linphone7Factory22createBufferFromStringERKNSt7__cxx1112basic_stringIcSt11char_traitsIcESaIcEEE
liblinphone++.so.10:_ZN8linphone7Factory22createConfigFromStringERKNSt7__cxx1112basic_stringIcSt11char_traitsIcESaIcEEE
liblinphone++.so.10:_ZN8linphone7Factory23createConfigWithFactoryERKNSt7__cxx1112basic_stringIcSt11char_traitsIcESaIcEEES8_
liblinphone++.so.10:_ZN8linphone7Factory23createSignalInformationEv
liblinphone++.so.10:_ZN8linphone7Factory24getLiblinphonePluginsDirB5cxx11Ev
liblinphone++.so.10:_ZN8linphone7Factory24setLiblinphonePluginsDirERKNSt7__cxx1112basic_stringIcSt11char_traitsIcESaIcEEE
liblinphone++.so.10:_ZN8linphone7Factory26isChatroomBackendAvailableENS_8ChatRoom7BackendE
liblinphone++.so.10:_ZN8linphone7Factory26isDatabaseStorageAvailableEv
liblinphone++.so.10:_ZN8linphone7Factory27createVideoActivationPolicyEv
liblinphone++.so.10:_ZN8linphone7Factory27createVideoSourceDescriptorEv
liblinphone++.so.10:_ZN8linphone7Factory3getEv
liblinphone++.so.10:_ZN8linphone7Factory40createConferenceInfoFromIcalendarContentERKSt10shared_ptrINS_7ContentEE
liblinphone++.so.10:_ZN8linphone7Factory5cleanEv
liblinphone++.so.10:_ZN8linphone7FactoryC1EPvb
liblinphone++.so.10:_ZN8linphone7FactoryC2EPvb
liblinphone++.so.10:_ZN8linphone7Headers3addERKNSt7__cxx1112basic_stringIcSt11char_traitsIcESaIcEEES8_
liblinphone++.so.10:_ZN8linphone7Headers6removeERKNSt7__cxx1112basic_stringIcSt11char_traitsIcESaIcEEE
liblinphone++.so.10:_ZN8linphone7Headers8getValueERKNSt7__cxx1112basic_stringIcSt11char_traitsIcESaIcEEE
liblinphone++.so.10:_ZN8linphone7HeadersC1EPvb
liblinphone++.so.10:_ZN8linphone7HeadersC2EPvb
liblinphone++.so.10:_ZN8linphone8AuthInfo10setTlsCertERKNSt7__cxx1112basic_stringIcSt11char_traitsIcESaIcEEE
liblinphone++.so.10:_ZN8linphone8AuthInfo11setPasswordERKNSt7__cxx1112basic_stringIcSt11char_traitsIcESaIcEEE
liblinphone++.so.10:_ZN8linphone8AuthInfo11setUsernameERKNSt7__cxx1112basic_stringIcSt11char_traitsIcESaIcEEE
liblinphone++.so.10:_ZN8linphone8AuthInfo12setAlgorithmERKNSt7__cxx1112basic_stringIcSt11char_traitsIcESaIcEEE
liblinphone++.so.10:_ZN8linphone8AuthInfo13setTlsKeyPathERKNSt7__cxx1112basic_stringIcSt11char_traitsIcESaIcEEE
liblinphone++.so.10:_ZN8linphone8AuthInfo14setTlsCertPathERKNSt7__cxx1112basic_stringIcSt11char_traitsIcESaIcEEE
liblinphone++.so.10:_ZN8linphone8AuthInfo21addAvailableAlgorithmERKNSt7__cxx1112basic_stringIcSt11char_traitsIcESaIcEEE
liblinphone++.so.10:_ZN8linphone8AuthInfo22setAvailableAlgorithmsERKNSt7__cxx114listINS1_12basic_stringIcSt11char_traitsIcESaIcEEESaIS7_EEE
liblinphone++.so.10:_ZN8linphone8AuthInfo24clearAvailableAlgorithmsEv
liblinphone++.so.10:_ZN8linphone8AuthInfo6setHa1ERKNSt7__cxx1112basic_stringIcSt11char_traitsIcESaIcEEE
liblinphone++.so.10:_ZN8linphone8AuthInfo8setRealmERKNSt7__cxx1112basic_stringIcSt11char_traitsIcESaIcEEE
liblinphone++.so.10:_ZN8linphone8AuthInfo9setDomainERKNSt7__cxx1112basic_stringIcSt11char_traitsIcESaIcEEE
liblinphone++.so.10:_ZN8linphone8AuthInfo9setTlsKeyERKNSt7__cxx1112basic_stringIcSt11char_traitsIcESaIcEEE
liblinphone++.so.10:_ZN8linphone8AuthInfo9setUseridERKNSt7__cxx1112basic_stringIcSt11char_traitsIcESaIcEEE
liblinphone++.so.10:_ZN8linphone8AuthInfoC1EPvb
liblinphone++.so.10:_ZN8linphone8AuthInfoC2EPvb
liblinphone++.so.10:_ZN8linphone8ChatRoom10getHistoryB5cxx11Ei
liblinphone++.so.10:_ZN8linphone8ChatRoom10markAsReadEv
liblinphone++.so.10:_ZN8linphone8ChatRoom10setSubjectERKNSt7__cxx1112basic_stringIcSt11char_traitsIcESaIcEEE
liblinphone++.so.10:_ZN8linphone8ChatRoom11addListenerERKSt10shared_ptrINS_16ChatRoomListenerEE
liblinphone++.so.10:_ZN8linphone8ChatRoom11findMessageERKNSt7__cxx1112basic_stringIcSt11char_traitsIcESaIcEEE
liblinphone++.so.10:_ZN8linphone8ChatRoom13createMessageERKNSt7__cxx1112basic_stringIcSt11char_traitsIcESaIcEEE
liblinphone++.so.10:_ZN8linphone8ChatRoom13deleteHistoryEv
liblinphone++.so.10:_ZN8linphone8ChatRoom13deleteMessageERKSt10shared_ptrINS_11ChatMessageEE
liblinphone++.so.10:_ZN8linphone8ChatRoom13stateToStringB5cxx11ENS0_5StateE
liblinphone++.so.10:_ZN8linphone8ChatRoom14addParticipantERKSt10shared_ptrINS_7AddressEE
liblinphone++.so.10:_ZN8linphone8ChatRoom14allowMultipartEv
liblinphone++.so.10:_ZN8linphone8ChatRoom14getHistorySizeEv
liblinphone++.so.10:_ZN8linphone8ChatRoom14getPeerAddressEv
liblinphone++.so.10:_ZN8linphone8ChatRoom14removeListenerERKSt10shared_ptrINS_16ChatRoomListenerEE
liblinphone++.so.10:_ZN8linphone8ChatRoom15addParticipantsERKNSt7__cxx114listISt10shared_ptrINS_7AddressEESaIS5_EEE
liblinphone++.so.10:_ZN8linphone8ChatRoom15createCallbacksEv
liblinphone++.so.10:_ZN8linphone8ChatRoom15enableEphemeralEb
liblinphone++.so.10:_ZN8linphone8ChatRoom15getHistoryRangeB5cxx11Eii
liblinphone++.so.10:_ZN8linphone8ChatRoom15getLocalAddressEv
liblinphone++.so.10:_ZN8linphone8ChatRoom16getHistoryEventsB5cxx11Ei
liblinphone++.so.10:_ZN8linphone8ChatRoom16getSecurityLevelEv
liblinphone++.so.10:_ZN8linphone8ChatRoom16getUnreadHistoryB5cxx11Ev
liblinphone++.so.10:_ZN8linphone8ChatRoom16setEphemeralModeENS0_13EphemeralModeE
liblinphone++.so.10:_ZN8linphone8ChatRoom17removeParticipantERKSt10shared_ptrINS_11ParticipantEE
liblinphone++.so.10:_ZN8linphone8ChatRoom18createEmptyMessageEv
liblinphone++.so.10:_ZN8linphone8ChatRoom18createReplyMessageERKSt10shared_ptrINS_11ChatMessageEE
liblinphone++.so.10:_ZN8linphone8ChatRoom18receiveChatMessageERKSt10shared_ptrINS_11ChatMessageEE
liblinphone++.so.10:_ZN8linphone8ChatRoom18removeParticipantsERKNSt7__cxx114listISt10shared_ptrINS_11ParticipantEESaIS5_EEE
liblinphone++.so.10:_ZN8linphone8ChatRoom20createForwardMessageERKSt10shared_ptrINS_11ChatMessageEE
liblinphone++.so.10:_ZN8linphone8ChatRoom20getHistoryEventsSizeEv
liblinphone++.so.10:_ZN8linphone8ChatRoom20setConferenceAddressERKSt10shared_ptrINS_7AddressEE
liblinphone++.so.10:_ZN8linphone8ChatRoom20setEphemeralLifetimeEl
liblinphone++.so.10:_ZN8linphone8ChatRoom21createMessageFromUtf8ERKNSt7__cxx1112basic_stringIcSt11char_traitsIcESaIcEEE
liblinphone++.so.10:_ZN8linphone8ChatRoom21getComposingAddressesB5cxx11Ev
liblinphone++.so.10:_ZN8linphone8ChatRoom21getHistoryRangeEventsB5cxx11Eii
liblinphone++.so.10:_ZN8linphone8ChatRoom21setParticipantDevicesERKSt10shared_ptrINS_7AddressEERKNSt7__cxx114listIS1_INS_25ParticipantDeviceIdentityEESaIS9_EEE
liblinphone++.so.10:_ZN8linphone8ChatRoom22getUnreadMessagesCountEv
liblinphone++.so.10:_ZN8linphone8ChatRoom23getHistoryMessageEventsB5cxx11Ei
liblinphone++.so.10:_ZN8linphone8ChatRoom23getLastMessageInHistoryEv
liblinphone++.so.10:_ZN8linphone8ChatRoom25createFileTransferMessageERKSt10shared_ptrINS_7ContentEE
liblinphone++.so.10:_ZN8linphone8ChatRoom25setParticipantAdminStatusERKSt10shared_ptrINS_11ParticipantEEb
liblinphone++.so.10:_ZN8linphone8ChatRoom27createVoiceRecordingMessageERKSt10shared_ptrINS_8RecorderEE
liblinphone++.so.10:_ZN8linphone8ChatRoom28getHistoryRangeMessageEventsB5cxx11Eii
liblinphone++.so.10:_ZN8linphone8ChatRoom35notifyParticipantDeviceRegistrationERKSt10shared_ptrIKNS_7AddressEE
liblinphone++.so.10:_ZN8linphone8ChatRoom5leaveEv
liblinphone++.so.10:_ZN8linphone8ChatRoom7composeEv
liblinphone++.so.10:_ZN8linphone8ChatRoom7getCharEv
liblinphone++.so.10:_ZN8linphone8ChatRoom7isEmptyEv
liblinphone++.so.10:_ZN8linphone8ChatRoom8setMutedEb
liblinphone++.so.10:_ZN8linphone8ChatRoom9allowCpimEv
liblinphone++.so.10:_ZN8linphone8ChatRoomC1EPvb
liblinphone++.so.10:_ZN8linphone8ChatRoomC2EPvb
liblinphone++.so.10:_ZN8linphone8DialPlan10byCccAsIntEi
liblinphone++.so.10:_ZN8linphone8DialPlan10getAllListB5cxx11Ev
liblinphone++.so.10:_ZN8linphone8DialPlan16lookupCccFromIsoERKNSt7__cxx1112basic_stringIcSt11char_traitsIcESaIcEEE
liblinphone++.so.10:_ZN8linphone8DialPlan17lookupCccFromE164ERKNSt7__cxx1112basic_stringIcSt11char_traitsIcESaIcEEE
liblinphone++.so.10:_ZN8linphone8DialPlan5byCccERKNSt7__cxx1112basic_stringIcSt11char_traitsIcESaIcEEE
liblinphone++.so.10:_ZN8linphone8DialPlanC1EPvb
liblinphone++.so.10:_ZN8linphone8DialPlanC2EPvb
liblinphone++.so.10:_ZN8linphone8EventLog18deleteFromDatabaseEv
liblinphone++.so.10:_ZN8linphone8EventLogC1EPvb
liblinphone++.so.10:_ZN8linphone8EventLogC2EPvb
liblinphone++.so.10:_ZN8linphone8ListenerD0Ev
liblinphone++.so.10:_ZN8linphone8ListenerD1Ev
liblinphone++.so.10:_ZN8linphone8ListenerD2Ev
liblinphone++.so.10:_ZN8linphone8Recorder13createContentEv
liblinphone++.so.10:_ZN8linphone8Recorder4openERKNSt7__cxx1112basic_stringIcSt11char_traitsIcESaIcEEE
liblinphone++.so.10:_ZN8linphone8Recorder5closeEv
liblinphone++.so.10:_ZN8linphone8Recorder5pauseEv
liblinphone++.so.10:_ZN8linphone8Recorder5startEv
liblinphone++.so.10:_ZN8linphone8Recorder9setParamsERKSt10shared_ptrINS_14RecorderParamsEE
liblinphone++.so.10:_ZN8linphone8RecorderC1EPvb
liblinphone++.so.10:_ZN8linphone8RecorderC2EPvb
liblinphone++.so.10:_ZN8linphone9CallStatsC1EPvb
liblinphone++.so.10:_ZN8linphone9CallStatsC2EPvb
liblinphone++.so.10:_ZN8linphone9ErrorInfo11setProtocolERKNSt7__cxx1112basic_stringIcSt11char_traitsIcESaIcEEE
liblinphone++.so.10:_ZN8linphone9ErrorInfo11setWarningsERKNSt7__cxx1112basic_stringIcSt11char_traitsIcESaIcEEE
liblinphone++.so.10:_ZN8linphone9ErrorInfo13setRetryAfterEi
liblinphone++.so.10:_ZN8linphone9ErrorInfo15setProtocolCodeEi
liblinphone++.so.10:_ZN8linphone9ErrorInfo15setSubErrorInfoERKSt10shared_ptrIS0_E
liblinphone++.so.10:_ZN8linphone9ErrorInfo3setERKNSt7__cxx1112basic_stringIcSt11char_traitsIcESaIcEEENS_6ReasonEiS8_S8_
liblinphone++.so.10:_ZN8linphone9ErrorInfo9setPhraseERKNSt7__cxx1112basic_stringIcSt11char_traitsIcESaIcEEE
liblinphone++.so.10:_ZN8linphone9ErrorInfo9setReasonENS_6ReasonE
liblinphone++.so.10:_ZN8linphone9ErrorInfoC1EPvb
liblinphone++.so.10:_ZN8linphone9ErrorInfoC2EPvb
liblinphone++.so.10:_ZN8linphone9NatPolicy10enableStunEb
liblinphone++.so.10:_ZN8linphone9NatPolicy10enableTurnEb
liblinphone++.so.10:_ZN8linphone9NatPolicy10enableUpnpEb
liblinphone++.so.10:_ZN8linphone9NatPolicy13setStunServerERKNSt7__cxx1112basic_stringIcSt11char_traitsIcESaIcEEE
liblinphone++.so.10:_ZN8linphone9NatPolicy15setNatV4AddressERKNSt7__cxx1112basic_stringIcSt11char_traitsIcESaIcEEE
liblinphone++.so.10:_ZN8linphone9NatPolicy15setNatV6AddressERKNSt7__cxx1112basic_stringIcSt11char_traitsIcESaIcEEE
liblinphone++.so.10:_ZN8linphone9NatPolicy17resolveStunServerEv
liblinphone++.so.10:_ZN8linphone9NatPolicy21setStunServerUsernameERKNSt7__cxx1112basic_stringIcSt11char_traitsIcESaIcEEE
liblinphone++.so.10:_ZN8linphone9NatPolicy22enableTcpTurnTransportEb
liblinphone++.so.10:_ZN8linphone9NatPolicy22enableTlsTurnTransportEb
liblinphone++.so.10:_ZN8linphone9NatPolicy22enableUdpTurnTransportEb
liblinphone++.so.10:_ZN8linphone9NatPolicy5clearEv
liblinphone++.so.10:_ZN8linphone9NatPolicy9enableIceEb
liblinphone++.so.10:_ZN8linphone9NatPolicyC1EPvb
liblinphone++.so.10:_ZN8linphone9NatPolicyC2EPvb
liblinphone++.so.10:_ZNK8linphone10CallParams10getAccountEv
liblinphone++.so.10:_ZNK8linphone10CallParams10getPrivacyEv
liblinphone++.so.10:_ZNK8linphone10CallParams10micEnabledEv
liblinphone++.so.10:_ZNK8linphone10CallParams11avpfEnabledEv
liblinphone++.so.10:_ZNK8linphone10CallParams11isRecordingEv
liblinphone++.so.10:_ZNK8linphone10CallParams12audioEnabledEv
liblinphone++.so.10:_ZNK8linphone10CallParams12videoEnabledEv
liblinphone++.so.10:_ZNK8linphone10CallParams13getFromHeaderB5cxx11Ev
liblinphone++.so.10:_ZNK8linphone10CallParams13getRecordFileB5cxx11Ev
liblinphone++.so.10:_ZNK8linphone10CallParams13getRtpProfileB5cxx11Ev
liblinphone++.so.10:_ZNK8linphone10CallParams13getSrtpSuitesB5cxx11Ev
liblinphone++.so.10:_ZNK8linphone10CallParams14cfgLinesMergedEv
liblinphone++.so.10:_ZNK8linphone10CallParams14getProxyConfigEv
liblinphone++.so.10:_ZNK8linphone10CallParams14getSessionNameB5cxx11Ev
liblinphone++.so.10:_ZNK8linphone10CallParams15getCustomHeaderERKNSt7__cxx1112basic_stringIcSt11char_traitsIcESaIcEEE
liblinphone++.so.10:_ZNK8linphone10CallParams15tcapLinesMergedEv
liblinphone++.so.10:_ZNK8linphone10CallParams16getSentFramerateEv
liblinphone++.so.10:_ZNK8linphone10CallParams16rtpBundleEnabledEv
liblinphone++.so.10:_ZNK8linphone10CallParams17getAudioDirectionEv
liblinphone++.so.10:_ZNK8linphone10CallParams17getCustomContentsB5cxx11Ev
liblinphone++.so.10:_ZNK8linphone10CallParams17getVideoDirectionEv
liblinphone++.so.10:_ZNK8linphone10CallParams18getMediaEncryptionEv
liblinphone++.so.10:_ZNK8linphone10CallParams19getInputAudioDeviceEv
liblinphone++.so.10:_ZNK8linphone10CallParams19lowBandwidthEnabledEv
liblinphone++.so.10:_ZNK8linphone10CallParams19realtimeTextEnabledEv
liblinphone++.so.10:_ZNK8linphone10CallParams20getOutputAudioDeviceEv
liblinphone++.so.10:_ZNK8linphone10CallParams20getReceivedFramerateEv
liblinphone++.so.10:_ZNK8linphone10CallParams21audioMulticastEnabledEv
liblinphone++.so.10:_ZNK8linphone10CallParams21getCustomSdpAttributeERKNSt7__cxx1112basic_stringIcSt11char_traitsIcESaIcEEE
liblinphone++.so.10:_ZNK8linphone10CallParams21hasCustomSdpAttributeERKNSt7__cxx1112basic_stringIcSt11char_traitsIcESaIcEEE
liblinphone++.so.10:_ZNK8linphone10CallParams21videoMulticastEnabledEv
liblinphone++.so.10:_ZNK8linphone10CallParams22getLocalConferenceModeEv
liblinphone++.so.10:_ZNK8linphone10CallParams22getSentVideoDefinitionEv
liblinphone++.so.10:_ZNK8linphone10CallParams22getUsedTextPayloadTypeEv
liblinphone++.so.10:_ZNK8linphone10CallParams22toneIndicationsEnabledEv
liblinphone++.so.10:_ZNK8linphone10CallParams23getUsedAudioPayloadTypeEv
liblinphone++.so.10:_ZNK8linphone10CallParams23getUsedVideoPayloadTypeEv
liblinphone++.so.10:_ZNK8linphone10CallParams24earlyMediaSendingEnabledEv
liblinphone++.so.10:_ZNK8linphone10CallParams24getConferenceVideoLayoutEv
liblinphone++.so.10:_ZNK8linphone10CallParams26getCustomSdpMediaAttributeENS_10StreamTypeERKNSt7__cxx1112basic_stringIcSt11char_traitsIcESaIcEEE
liblinphone++.so.10:_ZNK8linphone10CallParams26getReceivedVideoDefinitionEv
liblinphone++.so.10:_ZNK8linphone10CallParams26hasCustomSdpMediaAttributeENS_10StreamTypeERKNSt7__cxx1112basic_stringIcSt11char_traitsIcESaIcEEE
liblinphone++.so.10:_ZNK8linphone10CallParams26isMediaEncryptionSupportedENS_15MediaEncryptionE
liblinphone++.so.10:_ZNK8linphone10CallParams29capabilityNegotiationsEnabledEv
liblinphone++.so.10:_ZNK8linphone10CallParams32getRealtimeTextKeepaliveIntervalEv
liblinphone++.so.10:_ZNK8linphone10CallParams36capabilityNegotiationReinviteEnabledEv
liblinphone++.so.10:_ZNK8linphone10CallParams38isCapabilityNegotiationReinviteEnabledEv
liblinphone++.so.10:_ZNK8linphone10CallParams4copyEv
liblinphone++.so.10:_ZNK8linphone10Conference10getSubjectB5cxx11Ev
liblinphone++.so.10:_ZNK8linphone10Conference11getDurationEv
liblinphone++.so.10:_ZNK8linphone10Conference11getUsernameB5cxx11Ev
liblinphone++.so.10:_ZNK8linphone10Conference11isRecordingEv
liblinphone++.so.10:_ZNK8linphone10Conference12getStartTimeEv
liblinphone++.so.10:_ZNK8linphone10Conference14getInputVolumeEv
liblinphone++.so.10:_ZNK8linphone10Conference15getParticipantsB5cxx11Ev
liblinphone++.so.10:_ZNK8linphone10Conference16getCurrentParamsEv
liblinphone++.so.10:_ZNK8linphone10Conference18getMicrophoneMutedEv
liblinphone++.so.10:_ZNK8linphone10Conference18getParticipantListB5cxx11Ev
liblinphone++.so.10:_ZNK8linphone10Conference19getInputAudioDeviceEv
liblinphone++.so.10:_ZNK8linphone10Conference19getParticipantCountEv
liblinphone++.so.10:_ZNK8linphone10Conference20getConferenceAddressEv
liblinphone++.so.10:_ZNK8linphone10Conference20getOutputAudioDeviceEv
liblinphone++.so.10:_ZNK8linphone10Conference24getParticipantDeviceListB5cxx11Ev
liblinphone++.so.10:_ZNK8linphone10Conference33getActiveSpeakerParticipantDeviceEv
liblinphone++.so.10:_ZNK8linphone10Conference4isInEv
liblinphone++.so.10:_ZNK8linphone10Conference4isMeERKSt10shared_ptrIKNS_7AddressEE
liblinphone++.so.10:_ZNK8linphone10Conference5getIdB5cxx11Ev
liblinphone++.so.10:_ZNK8linphone10Conference5getMeEv
liblinphone++.so.10:_ZNK8linphone10Conference7getCallEv
liblinphone++.so.10:_ZNK8linphone10Conference7getCoreEv
liblinphone++.so.10:_ZNK8linphone10Conference8getStateEv
liblinphone++.so.10:_ZNK8linphone10Dictionary5cloneEv
liblinphone++.so.10:_ZNK8linphone10Dictionary6getIntERKNSt7__cxx1112basic_stringIcSt11char_traitsIcESaIcEEE
liblinphone++.so.10:_ZNK8linphone10Dictionary6hasKeyERKNSt7__cxx1112basic_stringIcSt11char_traitsIcESaIcEEE
liblinphone++.so.10:_ZNK8linphone10Dictionary8getFloatERKNSt7__cxx1112basic_stringIcSt11char_traitsIcESaIcEEE
liblinphone++.so.10:_ZNK8linphone10Dictionary8getInt64ERKNSt7__cxx1112basic_stringIcSt11char_traitsIcESaIcEEE
liblinphone++.so.10:_ZNK8linphone10Dictionary9getStringERKNSt7__cxx1112basic_stringIcSt11char_traitsIcESaIcEEE
liblinphone++.so.10:_ZNK8linphone10FriendList10getFriendsB5cxx11Ev
liblinphone++.so.10:_ZNK8linphone10FriendList13getRlsAddressEv
liblinphone++.so.10:_ZNK8linphone10FriendList14getDisplayNameB5cxx11Ev
liblinphone++.so.10:_ZNK8linphone10FriendList15findFriendByUriERKNSt7__cxx1112basic_stringIcSt11char_traitsIcESaIcEEE
liblinphone++.so.10:_ZNK8linphone10FriendList16findFriendsByUriERKNSt7__cxx1112basic_stringIcSt11char_traitsIcESaIcEEE
liblinphone++.so.10:_ZNK8linphone10FriendList18findFriendByRefKeyERKNSt7__cxx1112basic_stringIcSt11char_traitsIcESaIcEEE
liblinphone++.so.10:_ZNK8linphone10FriendList19findFriendByAddressERKSt10shared_ptrIKNS_7AddressEE
liblinphone++.so.10:_ZNK8linphone10FriendList20findFriendsByAddressB5cxx11ERKSt10shared_ptrIKNS_7AddressEE
liblinphone++.so.10:_ZNK8linphone10FriendList22databaseStorageEnabledEv
liblinphone++.so.10:_ZNK8linphone10FriendList22isSubscriptionBodylessEv
liblinphone++.so.10:_ZNK8linphone10FriendList23findFriendByPhoneNumberERKNSt7__cxx1112basic_stringIcSt11char_traitsIcESaIcEEE
liblinphone++.so.10:_ZNK8linphone10FriendList6getUriB5cxx11Ev
liblinphone++.so.10:_ZNK8linphone10FriendList7getCoreEv
liblinphone++.so.10:_ZNK8linphone10FriendList9getRlsUriB5cxx11Ev
liblinphone++.so.10:_ZNK8linphone10LdapParams10getEnabledEv
liblinphone++.so.10:_ZNK8linphone10LdapParams10getTimeoutEv
liblinphone++.so.10:_ZNK8linphone10LdapParams10salEnabledEv
liblinphone++.so.10:_ZNK8linphone10LdapParams10tlsEnabledEv
liblinphone++.so.10:_ZNK8linphone10LdapParams11getMinCharsEv
liblinphone++.so.10:_ZNK8linphone10LdapParams11getPasswordB5cxx11Ev
liblinphone++.so.10:_ZNK8linphone10LdapParams12getSipDomainB5cxx11Ev
liblinphone++.so.10:_ZNK8linphone10LdapParams13getAuthMethodEv
liblinphone++.so.10:_ZNK8linphone10LdapParams13getBaseObjectB5cxx11Ev
liblinphone++.so.10:_ZNK8linphone10LdapParams13getDebugLevelEv
liblinphone++.so.10:_ZNK8linphone10LdapParams13getMaxResultsEv
liblinphone++.so.10:_ZNK8linphone10LdapParams14getCustomValueERKNSt7__cxx1112basic_stringIcSt11char_traitsIcESaIcEEE
liblinphone++.so.10:_ZNK8linphone10LdapParams15getSipAttributeB5cxx11Ev
liblinphone++.so.10:_ZNK8linphone10LdapParams15getTimeoutTlsMsEv
liblinphone++.so.10:_ZNK8linphone10LdapParams16getNameAttributeB5cxx11Ev
liblinphone++.so.10:_ZNK8linphone10LdapParams37getServerCertificatesVerificationModeEv
liblinphone++.so.10:_ZNK8linphone10LdapParams5checkEv
liblinphone++.so.10:_ZNK8linphone10LdapParams5cloneEv
liblinphone++.so.10:_ZNK8linphone10LdapParams8getDelayEv
liblinphone++.so.10:_ZNK8linphone10LdapParams9getBindDnB5cxx11Ev
liblinphone++.so.10:_ZNK8linphone10LdapParams9getFilterB5cxx11Ev
liblinphone++.so.10:_ZNK8linphone10LdapParams9getServerB5cxx11Ev
liblinphone++.so.10:_ZNK8linphone10Transports10getTcpPortEv
liblinphone++.so.10:_ZNK8linphone10Transports10getTlsPortEv
liblinphone++.so.10:_ZNK8linphone10Transports10getUdpPortEv
liblinphone++.so.10:_ZNK8linphone10Transports11getDtlsPortEv
liblinphone++.so.10:_ZNK8linphone11AudioDevice13getDeviceNameB5cxx11Ev
liblinphone++.so.10:_ZNK8linphone11AudioDevice13getDriverNameB5cxx11Ev
liblinphone++.so.10:_ZNK8linphone11AudioDevice13hasCapabilityENS0_12CapabilitiesE
liblinphone++.so.10:_ZNK8linphone11AudioDevice15getCapabilitiesEv
liblinphone++.so.10:_ZNK8linphone11AudioDevice5getIdB5cxx11Ev
liblinphone++.so.10:_ZNK8linphone11AudioDevice7getTypeEv
liblinphone++.so.10:_ZNK8linphone11ChatMessage10getAppdataB5cxx11Ev
liblinphone++.so.10:_ZNK8linphone11ChatMessage10isOutgoingEv
liblinphone++.so.10:_ZNK8linphone11ChatMessage11getChatRoomEv
liblinphone++.so.10:_ZNK8linphone11ChatMessage11getContentsB5cxx11Ev
liblinphone++.so.10:_ZNK8linphone11ChatMessage11getUtf8TextB5cxx11Ev
liblinphone++.so.10:_ZNK8linphone11ChatMessage11isEphemeralEv
liblinphone++.so.10:_ZNK8linphone11ChatMessage12getErrorInfoEv
liblinphone++.so.10:_ZNK8linphone11ChatMessage12getMessageIdB5cxx11Ev
liblinphone++.so.10:_ZNK8linphone11ChatMessage12getReactionsB5cxx11Ev
liblinphone++.so.10:_ZNK8linphone11ChatMessage12getToAddressEv
liblinphone++.so.10:_ZNK8linphone11ChatMessage13getToBeStoredEv
liblinphone++.so.10:_ZNK8linphone11ChatMessage14getContentTypeB5cxx11Ev
liblinphone++.so.10:_ZNK8linphone11ChatMessage14getForwardInfoB5cxx11Ev
liblinphone++.so.10:_ZNK8linphone11ChatMessage14getFromAddressEv
liblinphone++.so.10:_ZNK8linphone11ChatMessage14getOwnReactionEv
liblinphone++.so.10:_ZNK8linphone11ChatMessage14getTextContentB5cxx11Ev
liblinphone++.so.10:_ZNK8linphone11ChatMessage14hasTextContentEv
liblinphone++.so.10:_ZNK8linphone11ChatMessage14isFileTransferEv
liblinphone++.so.10:_ZNK8linphone11ChatMessage15getCustomHeaderERKNSt7__cxx1112basic_stringIcSt11char_traitsIcESaIcEEE
liblinphone++.so.10:_ZNK8linphone11ChatMessage15getLocalAddressEv
liblinphone++.so.10:_ZNK8linphone11ChatMessage18getExternalBodyUrlB5cxx11Ev
liblinphone++.so.10:_ZNK8linphone11ChatMessage20getEphemeralLifetimeEv
liblinphone++.so.10:_ZNK8linphone11ChatMessage22getEphemeralExpireTimeEv
liblinphone++.so.10:_ZNK8linphone11ChatMessage24isFileTransferInProgressEv
liblinphone++.so.10:_ZNK8linphone11ChatMessage26getFileTransferInformationEv
liblinphone++.so.10:_ZNK8linphone11ChatMessage26getParticipantsByImdnStateB5cxx11ENS0_5StateE
liblinphone++.so.10:_ZNK8linphone11ChatMessage30hasConferenceInvitationContentEv
liblinphone++.so.10:_ZNK8linphone11ChatMessage6isReadEv
liblinphone++.so.10:_ZNK8linphone11ChatMessage6isTextEv
liblinphone++.so.10:_ZNK8linphone11ChatMessage7getCoreEv
liblinphone++.so.10:_ZNK8linphone11ChatMessage7getTimeEv
liblinphone++.so.10:_ZNK8linphone11ChatMessage8getStateEv
liblinphone++.so.10:_ZNK8linphone11ChatMessage9getCallIdB5cxx11Ev
liblinphone++.so.10:_ZNK8linphone11ChatMessage9isSecuredEv
liblinphone++.so.10:_ZNK8linphone11InfoMessage10getContentEv
liblinphone++.so.10:_ZNK8linphone11InfoMessage9getHeaderERKNSt7__cxx1112basic_stringIcSt11char_traitsIcESaIcEEE
liblinphone++.so.10:_ZNK8linphone11MagicSearch12getDelimiterB5cxx11Ev
liblinphone++.so.10:_ZNK8linphone11MagicSearch12getMaxWeightEv
liblinphone++.so.10:_ZNK8linphone11MagicSearch12getMinWeightEv
liblinphone++.so.10:_ZNK8linphone11MagicSearch13getLastSearchB5cxx11Ev
liblinphone++.so.10:_ZNK8linphone11MagicSearch14getSearchLimitEv
liblinphone++.so.10:_ZNK8linphone11MagicSearch16getLimitedSearchEv
liblinphone++.so.10:_ZNK8linphone11Participant10findDeviceERKSt10shared_ptrIKNS_4CallEE
liblinphone++.so.10:_ZNK8linphone11Participant10findDeviceERKSt10shared_ptrIKNS_7AddressEE
liblinphone++.so.10:_ZNK8linphone11Participant10getAddressEv
liblinphone++.so.10:_ZNK8linphone11Participant10getDevicesB5cxx11Ev
liblinphone++.so.10:_ZNK8linphone11Participant15getCreationTimeEv
liblinphone++.so.10:_ZNK8linphone11Participant16getSecurityLevelEv
liblinphone++.so.10:_ZNK8linphone11Participant7getRoleEv
liblinphone++.so.10:_ZNK8linphone11Participant7isAdminEv
liblinphone++.so.10:_ZNK8linphone11Participant7isFocusEv
liblinphone++.so.10:_ZNK8linphone11PayloadType10weakEqualsERKSt10shared_ptrIKS0_E
liblinphone++.so.10:_ZNK8linphone11PayloadType11getChannelsEv
liblinphone++.so.10:_ZNK8linphone11PayloadType11getMimeTypeB5cxx11Ev
liblinphone++.so.10:_ZNK8linphone11PayloadType11getRecvFmtpB5cxx11Ev
liblinphone++.so.10:_ZNK8linphone11PayloadType11getSendFmtpB5cxx11Ev
liblinphone++.so.10:_ZNK8linphone11PayloadType12getClockRateEv
liblinphone++.so.10:_ZNK8linphone11PayloadType14getDescriptionB5cxx11Ev
liblinphone++.so.10:_ZNK8linphone11PayloadType16getNormalBitrateEv
liblinphone++.so.10:_ZNK8linphone11PayloadType21getEncoderDescriptionB5cxx11Ev
liblinphone++.so.10:_ZNK8linphone11PayloadType5cloneEv
liblinphone++.so.10:_ZNK8linphone11PayloadType5isVbrEv
liblinphone++.so.10:_ZNK8linphone11PayloadType7enabledEv
liblinphone++.so.10:_ZNK8linphone11PayloadType7getTypeEv
liblinphone++.so.10:_ZNK8linphone11PayloadType8isUsableEv
liblinphone++.so.10:_ZNK8linphone11PayloadType9getNumberEv
liblinphone++.so.10:_ZNK8linphone11ProxyConfig10getContactEv
liblinphone++.so.10:_ZNK8linphone11ProxyConfig10getExpiresEv
liblinphone++.so.10:_ZNK8linphone11ProxyConfig10getPrivacyEv
liblinphone++.so.10:_ZNK8linphone11ProxyConfig11getAvpfModeEv
liblinphone++.so.10:_ZNK8linphone11ProxyConfig12findAuthInfoEv
liblinphone++.so.10:_ZNK8linphone11ProxyConfig12getErrorInfoEv
liblinphone++.so.10:_ZNK8linphone11ProxyConfig12getNatPolicyEv
liblinphone++.so.10:_ZNK8linphone11ProxyConfig12getTransportB5cxx11Ev
liblinphone++.so.10:_ZNK8linphone11ProxyConfig13getDialPrefixB5cxx11Ev
liblinphone++.so.10:_ZNK8linphone11ProxyConfig13getServerAddrB5cxx11Ev
liblinphone++.so.10:_ZNK8linphone11ProxyConfig14publishEnabledEv
liblinphone++.so.10:_ZNK8linphone11ProxyConfig15registerEnabledEv
liblinphone++.so.10:_ZNK8linphone11ProxyConfig17getAvpfRrIntervalEv
liblinphone++.so.10:_ZNK8linphone11ProxyConfig17getDialEscapePlusEv
liblinphone++.so.10:_ZNK8linphone11ProxyConfig17getPublishExpiresEv
liblinphone++.so.10:_ZNK8linphone11ProxyConfig18getIdentityAddressEv
liblinphone++.so.10:_ZNK8linphone11ProxyConfig20getContactParametersB5cxx11Ev
liblinphone++.so.10:_ZNK8linphone11ProxyConfig23getConferenceFactoryUriB5cxx11Ev
liblinphone++.so.10:_ZNK8linphone11ProxyConfig23getContactUriParametersB5cxx11Ev
liblinphone++.so.10:_ZNK8linphone11ProxyConfig25getPushNotificationConfigEv
liblinphone++.so.10:_ZNK8linphone11ProxyConfig25getUnreadChatMessageCountEv
liblinphone++.so.10:_ZNK8linphone11ProxyConfig25isPushNotificationAllowedEv
liblinphone++.so.10:_ZNK8linphone11ProxyConfig27isPushNotificationAvailableEv
liblinphone++.so.10:_ZNK8linphone11ProxyConfig28getQualityReportingCollectorB5cxx11Ev
liblinphone++.so.10:_ZNK8linphone11ProxyConfig31isRemotePushNotificationAllowedEv
liblinphone++.so.10:_ZNK8linphone11ProxyConfig7getCoreEv
liblinphone++.so.10:_ZNK8linphone11ProxyConfig8getErrorEv
liblinphone++.so.10:_ZNK8linphone11ProxyConfig8getRealmB5cxx11Ev
liblinphone++.so.10:_ZNK8linphone11ProxyConfig8getStateEv
liblinphone++.so.10:_ZNK8linphone11ProxyConfig9getDomainB5cxx11Ev
liblinphone++.so.10:_ZNK8linphone11ProxyConfig9getRefKeyB5cxx11Ev
liblinphone++.so.10:_ZNK8linphone11ProxyConfig9getRoutesB5cxx11Ev
liblinphone++.so.10:_ZNK8linphone12PresenceNote10getContentB5cxx11Ev
liblinphone++.so.10:_ZNK8linphone12PresenceNote7getLangB5cxx11Ev
liblinphone++.so.10:_ZNK8linphone12SearchResult10getAddressEv
liblinphone++.so.10:_ZNK8linphone12SearchResult13hasCapabilityENS_6Friend10CapabilityE
liblinphone++.so.10:_ZNK8linphone12SearchResult14getPhoneNumberB5cxx11Ev
liblinphone++.so.10:_ZNK8linphone12SearchResult14getSourceFlagsEv
liblinphone++.so.10:_ZNK8linphone12SearchResult15getCapabilitiesEv
liblinphone++.so.10:_ZNK8linphone12SearchResult9getFriendEv
liblinphone++.so.10:_ZNK8linphone12SearchResult9getWeightEv
liblinphone++.so.10:_ZNK8linphone12TunnelConfig22getRemoteUdpMirrorPortEv
liblinphone++.so.10:_ZNK8linphone12TunnelConfig7getHostB5cxx11Ev
liblinphone++.so.10:_ZNK8linphone12TunnelConfig7getPortEv
liblinphone++.so.10:_ZNK8linphone12TunnelConfig8getDelayEv
liblinphone++.so.10:_ZNK8linphone12TunnelConfig8getHost2B5cxx11Ev
liblinphone++.so.10:_ZNK8linphone12TunnelConfig8getPort2Ev
liblinphone++.so.10:_ZNK8linphone13AccountParams10getExpiresEv
liblinphone++.so.10:_ZNK8linphone13AccountParams10getPrivacyEv
liblinphone++.so.10:_ZNK8linphone13AccountParams11getAvpfModeEv
liblinphone++.so.10:_ZNK8linphone13AccountParams11getIdentityB5cxx11Ev
liblinphone++.so.10:_ZNK8linphone13AccountParams12getNatPolicyEv
liblinphone++.so.10:_ZNK8linphone13AccountParams12getTransportEv
liblinphone++.so.10:_ZNK8linphone13AccountParams13getPictureUriB5cxx11Ev
liblinphone++.so.10:_ZNK8linphone13AccountParams13getServerAddrB5cxx11Ev
liblinphone++.so.10:_ZNK8linphone13AccountParams14getCustomParamERKNSt7__cxx1112basic_stringIcSt11char_traitsIcESaIcEEE
liblinphone++.so.10:_ZNK8linphone13AccountParams14publishEnabledEv
liblinphone++.so.10:_ZNK8linphone13AccountParams15registerEnabledEv
liblinphone++.so.10:_ZNK8linphone13AccountParams16getCustomContactEv
liblinphone++.so.10:_ZNK8linphone13AccountParams16getLimeServerUrlB5cxx11Ev
liblinphone++.so.10:_ZNK8linphone13AccountParams16getServerAddressEv
liblinphone++.so.10:_ZNK8linphone13AccountParams16rtpBundleEnabledEv
liblinphone++.so.10:_ZNK8linphone13AccountParams17getAvpfRrIntervalEv
liblinphone++.so.10:_ZNK8linphone13AccountParams17getPublishExpiresEv
liblinphone++.so.10:_ZNK8linphone13AccountParams18getIdentityAddressEv
liblinphone++.so.10:_ZNK8linphone13AccountParams18getRoutesAddressesB5cxx11Ev
liblinphone++.so.10:_ZNK8linphone13AccountParams20getContactParametersB5cxx11Ev
liblinphone++.so.10:_ZNK8linphone13AccountParams20outboundProxyEnabledEv
liblinphone++.so.10:_ZNK8linphone13AccountParams21dialEscapePlusEnabledEv
liblinphone++.so.10:_ZNK8linphone13AccountParams22getInternationalPrefixB5cxx11Ev
liblinphone++.so.10:_ZNK8linphone13AccountParams23getConferenceFactoryUriB5cxx11Ev
liblinphone++.so.10:_ZNK8linphone13AccountParams23getContactUriParametersB5cxx11Ev
liblinphone++.so.10:_ZNK8linphone13AccountParams23qualityReportingEnabledEv
liblinphone++.so.10:_ZNK8linphone13AccountParams25getPushNotificationConfigEv
liblinphone++.so.10:_ZNK8linphone13AccountParams26cpimInBasicChatRoomEnabledEv
liblinphone++.so.10:_ZNK8linphone13AccountParams26getPushNotificationAllowedEv
liblinphone++.so.10:_ZNK8linphone13AccountParams26rtpBundleAssumptionEnabledEv
liblinphone++.so.10:_ZNK8linphone13AccountParams27getConferenceFactoryAddressEv
liblinphone++.so.10:_ZNK8linphone13AccountParams27getQualityReportingIntervalEv
liblinphone++.so.10:_ZNK8linphone13AccountParams27isPushNotificationAvailableEv
liblinphone++.so.10:_ZNK8linphone13AccountParams28getQualityReportingCollectorB5cxx11Ev
liblinphone++.so.10:_ZNK8linphone13AccountParams32getRemotePushNotificationAllowedEv
liblinphone++.so.10:_ZNK8linphone13AccountParams37getAudioVideoConferenceFactoryAddressEv
liblinphone++.so.10:_ZNK8linphone13AccountParams41getUseInternationalPrefixForCallsAndChatsEv
liblinphone++.so.10:_ZNK8linphone13AccountParams5cloneEv
liblinphone++.so.10:_ZNK8linphone13AccountParams8getIdkeyB5cxx11Ev
liblinphone++.so.10:_ZNK8linphone13AccountParams8getRealmB5cxx11Ev
liblinphone++.so.10:_ZNK8linphone13AccountParams9getDomainB5cxx11Ev
liblinphone++.so.10:_ZNK8linphone13AccountParams9getRefKeyB5cxx11Ev
liblinphone++.so.10:_ZNK8linphone13ImNotifPolicy18getRecvIsComposingEv
liblinphone++.so.10:_ZNK8linphone13ImNotifPolicy18getSendIsComposingEv
liblinphone++.so.10:_ZNK8linphone13ImNotifPolicy20getRecvImdnDeliveredEv
liblinphone++.so.10:_ZNK8linphone13ImNotifPolicy20getRecvImdnDisplayedEv
liblinphone++.so.10:_ZNK8linphone13ImNotifPolicy20getSendImdnDeliveredEv
liblinphone++.so.10:_ZNK8linphone13ImNotifPolicy20getSendImdnDisplayedEv
liblinphone++.so.10:_ZNK8linphone13ImNotifPolicy24getRecvImdnDeliveryErrorEv
liblinphone++.so.10:_ZNK8linphone13ImNotifPolicy24getSendImdnDeliveryErrorEv
liblinphone++.so.10:_ZNK8linphone13PresenceModel10getContactB5cxx11Ev
liblinphone++.so.10:_ZNK8linphone13PresenceModel11getActivityEv
liblinphone++.so.10:_ZNK8linphone13PresenceModel12getNbPersonsEv
liblinphone++.so.10:_ZNK8linphone13PresenceModel12getNthPersonEj
liblinphone++.so.10:_ZNK8linphone13PresenceModel12getTimestampEv
liblinphone++.so.10:_ZNK8linphone13PresenceModel13getNbServicesEv
liblinphone++.so.10:_ZNK8linphone13PresenceModel13getNthServiceEj
liblinphone++.so.10:_ZNK8linphone13PresenceModel13getPresentityEv
liblinphone++.so.10:_ZNK8linphone13PresenceModel13hasCapabilityENS_6Friend10CapabilityE
liblinphone++.so.10:_ZNK8linphone13PresenceModel14getBasicStatusEv
liblinphone++.so.10:_ZNK8linphone13PresenceModel14getNthActivityEj
liblinphone++.so.10:_ZNK8linphone13PresenceModel15getCapabilitiesEv
liblinphone++.so.10:_ZNK8linphone13PresenceModel15getNbActivitiesEv
liblinphone++.so.10:_ZNK8linphone13PresenceModel20getCapabilityVersionENS_6Friend10CapabilityE
liblinphone++.so.10:_ZNK8linphone13PresenceModel23getConsolidatedPresenceEv
liblinphone++.so.10:_ZNK8linphone13PresenceModel24hasCapabilityWithVersionENS_6Friend10CapabilityEf
liblinphone++.so.10:_ZNK8linphone13PresenceModel26getLatestActivityTimestampEv
liblinphone++.so.10:_ZNK8linphone13PresenceModel30hasCapabilityWithVersionOrMoreENS_6Friend10CapabilityEf
liblinphone++.so.10:_ZNK8linphone13PresenceModel7getNoteERKNSt7__cxx1112basic_stringIcSt11char_traitsIcESaIcEEE
liblinphone++.so.10:_ZNK8linphone13PresenceModel8isOnlineEv
liblinphone++.so.10:_ZNK8linphone13XmlRpcRequest10getContentB5cxx11Ev
liblinphone++.so.10:_ZNK8linphone13XmlRpcRequest14getIntResponseEv
liblinphone++.so.10:_ZNK8linphone13XmlRpcRequest14getRawResponseB5cxx11Ev
liblinphone++.so.10:_ZNK8linphone13XmlRpcRequest15getListResponseB5cxx11Ev
liblinphone++.so.10:_ZNK8linphone13XmlRpcRequest17getStringResponseB5cxx11Ev
liblinphone++.so.10:_ZNK8linphone13XmlRpcRequest9getStatusEv
liblinphone++.so.10:_ZNK8linphone14AccountCreator10getPnParamB5cxx11Ev
liblinphone++.so.10:_ZNK8linphone14AccountCreator11getLanguageB5cxx11Ev
liblinphone++.so.10:_ZNK8linphone14AccountCreator11getPasswordB5cxx11Ev
liblinphone++.so.10:_ZNK8linphone14AccountCreator11getUsernameB5cxx11Ev
liblinphone++.so.10:_ZNK8linphone14AccountCreator12getAlgorithmB5cxx11Ev
liblinphone++.so.10:_ZNK8linphone14AccountCreator12getTransportEv
liblinphone++.so.10:_ZNK8linphone14AccountCreator13getPnProviderB5cxx11Ev
liblinphone++.so.10:_ZNK8linphone14AccountCreator14getDisplayNameB5cxx11Ev
liblinphone++.so.10:_ZNK8linphone14AccountCreator14getPhoneNumberB5cxx11Ev
liblinphone++.so.10:_ZNK8linphone14AccountCreator15getSetAsDefaultEv
liblinphone++.so.10:_ZNK8linphone14AccountCreator17createProxyConfigEv
liblinphone++.so.10:_ZNK8linphone14AccountCreator17getActivationCodeB5cxx11Ev
liblinphone++.so.10:_ZNK8linphone14AccountCreator19createAccountInCoreEv
liblinphone++.so.10:_ZNK8linphone14AccountCreator19getPhoneCountryCodeB5cxx11Ev
liblinphone++.so.10:_ZNK8linphone14AccountCreator30getAccountCreationRequestTokenB5cxx11Ev
liblinphone++.so.10:_ZNK8linphone14AccountCreator6getHa1B5cxx11Ev
liblinphone++.so.10:_ZNK8linphone14AccountCreator8getEmailB5cxx11Ev
liblinphone++.so.10:_ZNK8linphone14AccountCreator8getRouteB5cxx11Ev
liblinphone++.so.10:_ZNK8linphone14AccountCreator8getTokenB5cxx11Ev
liblinphone++.so.10:_ZNK8linphone14AccountCreator9getDomainB5cxx11Ev
liblinphone++.so.10:_ZNK8linphone14AccountCreator9getPnPridB5cxx11Ev
liblinphone++.so.10:_ZNK8linphone14ChatRoomParams10getBackendEv
liblinphone++.so.10:_ZNK8linphone14ChatRoomParams10getSubjectB5cxx11Ev
liblinphone++.so.10:_ZNK8linphone14ChatRoomParams10rttEnabledEv
liblinphone++.so.10:_ZNK8linphone14ChatRoomParams12groupEnabledEv
liblinphone++.so.10:_ZNK8linphone14ChatRoomParams16getEphemeralModeEv
liblinphone++.so.10:_ZNK8linphone14ChatRoomParams17encryptionEnabledEv
liblinphone++.so.10:_ZNK8linphone14ChatRoomParams20getEncryptionBackendEv
liblinphone++.so.10:_ZNK8linphone14ChatRoomParams20getEphemeralLifetimeEv
liblinphone++.so.10:_ZNK8linphone14ChatRoomParams7isValidEv
liblinphone++.so.10:_ZNK8linphone14ConferenceInfo10getSubjectB5cxx11Ev
liblinphone++.so.10:_ZNK8linphone14ConferenceInfo11getDateTimeEv
liblinphone++.so.10:_ZNK8linphone14ConferenceInfo11getDurationEv
liblinphone++.so.10:_ZNK8linphone14ConferenceInfo12getOrganizerEv
liblinphone++.so.10:_ZNK8linphone14ConferenceInfo14getDescriptionB5cxx11Ev
liblinphone++.so.10:_ZNK8linphone14ConferenceInfo15getParticipantsB5cxx11Ev
liblinphone++.so.10:_ZNK8linphone14ConferenceInfo16getSecurityLevelEv
liblinphone++.so.10:_ZNK8linphone14ConferenceInfo18getIcalendarStringB5cxx11Ev
liblinphone++.so.10:_ZNK8linphone14ConferenceInfo19getParticipantInfosB5cxx11Ev
liblinphone++.so.10:_ZNK8linphone14ConferenceInfo5cloneEv
liblinphone++.so.10:_ZNK8linphone14ConferenceInfo6getUriEv
liblinphone++.so.10:_ZNK8linphone14ConferenceInfo8getStateEv
liblinphone++.so.10:_ZNK8linphone14LoggingService10setLogFileERKNSt7__cxx1112basic_stringIcSt11char_traitsIcESaIcEEES8_m
liblinphone++.so.10:_ZNK8linphone14LoggingService15getLogLevelMaskEv
liblinphone++.so.10:_ZNK8linphone14PresencePerson10getNbNotesEv
liblinphone++.so.10:_ZNK8linphone14PresencePerson10getNthNoteEj
liblinphone++.so.10:_ZNK8linphone14PresencePerson14getNthActivityEj
liblinphone++.so.10:_ZNK8linphone14PresencePerson15getNbActivitiesEv
liblinphone++.so.10:_ZNK8linphone14PresencePerson20getNbActivitiesNotesEv
liblinphone++.so.10:_ZNK8linphone14PresencePerson20getNthActivitiesNoteEj
liblinphone++.so.10:_ZNK8linphone14PresencePerson5getIdB5cxx11Ev
liblinphone++.so.10:_ZNK8linphone14RecorderParams11getWindowIdEv
liblinphone++.so.10:_ZNK8linphone14RecorderParams13getFileFormatEv
liblinphone++.so.10:_ZNK8linphone14RecorderParams13getVideoCodecB5cxx11Ev
liblinphone++.so.10:_ZNK8linphone14RecorderParams13getWebcamNameB5cxx11Ev
liblinphone++.so.10:_ZNK8linphone14RecorderParams14getAudioDeviceEv
liblinphone++.so.10:_ZNK8linphone14RecorderParams5cloneEv
liblinphone++.so.10:_ZNK8linphone15ParticipantInfo10getAddressEv
liblinphone++.so.10:_ZNK8linphone15ParticipantInfo12hasParameterERKNSt7__cxx1112basic_stringIcSt11char_traitsIcESaIcEEE
liblinphone++.so.10:_ZNK8linphone15ParticipantInfo17getParameterValueERKNSt7__cxx1112basic_stringIcSt11char_traitsIcESaIcEEE
liblinphone++.so.10:_ZNK8linphone15ParticipantInfo5cloneEv
liblinphone++.so.10:_ZNK8linphone15ParticipantInfo7getRoleEv
liblinphone++.so.10:_ZNK8linphone15PresenceService10getContactB5cxx11Ev
liblinphone++.so.10:_ZNK8linphone15PresenceService10getNbNotesEv
liblinphone++.so.10:_ZNK8linphone15PresenceService10getNthNoteEj
liblinphone++.so.10:_ZNK8linphone15PresenceService14getBasicStatusEv
liblinphone++.so.10:_ZNK8linphone15PresenceService22getServiceDescriptionsB5cxx11Ev
liblinphone++.so.10:_ZNK8linphone15PresenceService5getIdB5cxx11Ev
liblinphone++.so.10:_ZNK8linphone15VideoDefinition11isUndefinedEv
liblinphone++.so.10:_ZNK8linphone15VideoDefinition12strictEqualsERKSt10shared_ptrIKS0_E
liblinphone++.so.10:_ZNK8linphone15VideoDefinition5cloneEv
liblinphone++.so.10:_ZNK8linphone15VideoDefinition6equalsERKSt10shared_ptrIKS0_E
liblinphone++.so.10:_ZNK8linphone15VideoDefinition7getNameB5cxx11Ev
liblinphone++.so.10:_ZNK8linphone15VideoDefinition8getWidthEv
liblinphone++.so.10:_ZNK8linphone15VideoDefinition9getHeightEv
liblinphone++.so.10:_ZNK8linphone16ConferenceParams10getAccountEv
liblinphone++.so.10:_ZNK8linphone16ConferenceParams10getEndTimeEv
liblinphone++.so.10:_ZNK8linphone16ConferenceParams10getSubjectB5cxx11Ev
liblinphone++.so.10:_ZNK8linphone16ConferenceParams11chatEnabledEv
liblinphone++.so.10:_ZNK8linphone16ConferenceParams11getProxyCfgEv
liblinphone++.so.10:_ZNK8linphone16ConferenceParams12audioEnabledEv
liblinphone++.so.10:_ZNK8linphone16ConferenceParams12getStartTimeEv
liblinphone++.so.10:_ZNK8linphone16ConferenceParams12videoEnabledEv
liblinphone++.so.10:_ZNK8linphone16ConferenceParams13isChatEnabledEv
liblinphone++.so.10:_ZNK8linphone16ConferenceParams14getDescriptionB5cxx11Ev
liblinphone++.so.10:_ZNK8linphone16ConferenceParams14isAudioEnabledEv
liblinphone++.so.10:_ZNK8linphone16ConferenceParams14isVideoEnabledEv
liblinphone++.so.10:_ZNK8linphone16ConferenceParams16getSecurityLevelEv
liblinphone++.so.10:_ZNK8linphone16ConferenceParams22getParticipantListTypeEv
liblinphone++.so.10:_ZNK8linphone16ConferenceParams23localParticipantEnabledEv
liblinphone++.so.10:_ZNK8linphone16ConferenceParams25isLocalParticipantEnabledEv
liblinphone++.so.10:_ZNK8linphone16ConferenceParams27getConferenceFactoryAddressEv
liblinphone++.so.10:_ZNK8linphone16ConferenceParams31oneParticipantConferenceEnabledEv
liblinphone++.so.10:_ZNK8linphone16ConferenceParams33isOneParticipantConferenceEnabledEv
liblinphone++.so.10:_ZNK8linphone16ConferenceParams5cloneEv
liblinphone++.so.10:_ZNK8linphone16ConferenceParams8isHiddenEv
liblinphone++.so.10:_ZNK8linphone16PresenceActivity14getDescriptionB5cxx11Ev
liblinphone++.so.10:_ZNK8linphone16PresenceActivity7getTypeEv
liblinphone++.so.10:_ZNK8linphone16PresenceActivity8toStringB5cxx11Ev
liblinphone++.so.10:_ZNK8linphone17FriendPhoneNumber14getPhoneNumberB5cxx11Ev
liblinphone++.so.10:_ZNK8linphone17FriendPhoneNumber5cloneEv
liblinphone++.so.10:_ZNK8linphone17FriendPhoneNumber8getLabelB5cxx11Ev
liblinphone++.so.10:_ZNK8linphone17ParticipantDevice10getAddressEv
liblinphone++.so.10:_ZNK8linphone17ParticipantDevice10getIsMutedEv
liblinphone++.so.10:_ZNK8linphone17ParticipantDevice13getIsSpeakingEv
liblinphone++.so.10:_ZNK8linphone17ParticipantDevice14isInConferenceEv
liblinphone++.so.10:_ZNK8linphone17ParticipantDevice16getJoiningMethodEv
liblinphone++.so.10:_ZNK8linphone17ParticipantDevice16getSecurityLevelEv
liblinphone++.so.10:_ZNK8linphone17ParticipantDevice16getTimeOfJoiningEv
liblinphone++.so.10:_ZNK8linphone17ParticipantDevice19getStreamCapabilityENS_10StreamTypeE
liblinphone++.so.10:_ZNK8linphone17ParticipantDevice21getStreamAvailabilityENS_10StreamTypeE
liblinphone++.so.10:_ZNK8linphone17ParticipantDevice22getDisconnectionMethodEv
liblinphone++.so.10:_ZNK8linphone17ParticipantDevice22getDisconnectionReasonB5cxx11Ev
liblinphone++.so.10:_ZNK8linphone17ParticipantDevice22getNativeVideoWindowIdEv
liblinphone++.so.10:_ZNK8linphone17ParticipantDevice22getTimeOfDisconnectionEv
liblinphone++.so.10:_ZNK8linphone17ParticipantDevice25createNativeVideoWindowIdEv
liblinphone++.so.10:_ZNK8linphone17ParticipantDevice7getNameB5cxx11Ev
liblinphone++.so.10:_ZNK8linphone17ParticipantDevice7getSsrcENS_10StreamTypeE
liblinphone++.so.10:_ZNK8linphone17ParticipantDevice8getStateEv
liblinphone++.so.10:_ZNK8linphone17SignalInformation5cloneEv
liblinphone++.so.10:_ZNK8linphone19ChatMessageReaction14getFromAddressEv
liblinphone++.so.10:_ZNK8linphone19ChatMessageReaction7getBodyB5cxx11Ev
liblinphone++.so.10:_ZNK8linphone19ChatMessageReaction9getCallIdB5cxx11Ev
liblinphone++.so.10:_ZNK8linphone19ConferenceScheduler10getAccountEv
liblinphone++.so.10:_ZNK8linphone19ConferenceScheduler7getCoreEv
liblinphone++.so.10:_ZNK8linphone19ConferenceScheduler7getInfoEv
liblinphone++.so.10:_ZNK8linphone20ParticipantImdnState14getParticipantEv
liblinphone++.so.10:_ZNK8linphone20ParticipantImdnState18getStateChangeTimeEv
liblinphone++.so.10:_ZNK8linphone20ParticipantImdnState8getStateEv
liblinphone++.so.10:_ZNK8linphone21MultiListenableObject12getListenersB5cxx11Ev
liblinphone++.so.10:_ZNK8linphone21VideoActivationPolicy22getAutomaticallyAcceptEv
liblinphone++.so.10:_ZNK8linphone21VideoActivationPolicy24getAutomaticallyInitiateEv
liblinphone++.so.10:_ZNK8linphone21VideoSourceDescriptor11getCameraIdB5cxx11Ev
liblinphone++.so.10:_ZNK8linphone21VideoSourceDescriptor5cloneEv
liblinphone++.so.10:_ZNK8linphone21VideoSourceDescriptor7getCallEv
liblinphone++.so.10:_ZNK8linphone21VideoSourceDescriptor7getTypeEv
liblinphone++.so.10:_ZNK8linphone21VideoSourceDescriptor8getImageB5cxx11Ev
liblinphone++.so.10:_ZNK8linphone22PushNotificationConfig10getCallSndB5cxx11Ev
liblinphone++.so.10:_ZNK8linphone22PushNotificationConfig10getCallStrB5cxx11Ev
liblinphone++.so.10:_ZNK8linphone22PushNotificationConfig11getProviderB5cxx11Ev
liblinphone++.so.10:_ZNK8linphone22PushNotificationConfig12getVoipTokenB5cxx11Ev
liblinphone++.so.10:_ZNK8linphone22PushNotificationConfig14getRemoteTokenB5cxx11Ev
liblinphone++.so.10:_ZNK8linphone22PushNotificationConfig15getGroupChatStrB5cxx11Ev
liblinphone++.so.10:_ZNK8linphone22PushNotificationConfig19getBundleIdentifierB5cxx11Ev
liblinphone++.so.10:_ZNK8linphone22PushNotificationConfig5cloneEv
liblinphone++.so.10:_ZNK8linphone22PushNotificationConfig7getPridB5cxx11Ev
liblinphone++.so.10:_ZNK8linphone22PushNotificationConfig7isEqualERKSt10shared_ptrIKS0_E
liblinphone++.so.10:_ZNK8linphone22PushNotificationConfig8getParamB5cxx11Ev
liblinphone++.so.10:_ZNK8linphone22PushNotificationConfig9getMsgSndB5cxx11Ev
liblinphone++.so.10:_ZNK8linphone22PushNotificationConfig9getMsgStrB5cxx11Ev
liblinphone++.so.10:_ZNK8linphone22PushNotificationConfig9getTeamIdB5cxx11Ev
liblinphone++.so.10:_ZNK8linphone23PushNotificationMessage11isIcalendarEv
liblinphone++.so.10:_ZNK8linphone23PushNotificationMessage18getReactionContentB5cxx11Ev
liblinphone++.so.10:_ZNK8linphone23PushNotificationMessage25isConferenceInvitationNewEv
liblinphone++.so.10:_ZNK8linphone23PushNotificationMessage28isConferenceInvitationUpdateEv
liblinphone++.so.10:_ZNK8linphone23PushNotificationMessage34isConferenceInvitationCancellationEv
liblinphone++.so.10:_ZNK8linphone25ParticipantDeviceIdentity10getAddressEv
liblinphone++.so.10:_ZNK8linphone25ParticipantDeviceIdentity23getCapabilityDescriptorB5cxx11Ev
liblinphone++.so.10:_ZNK8linphone25ParticipantDeviceIdentity27getCapabilityDescriptorListB5cxx11Ev
liblinphone++.so.10:_ZNK8linphone26DigestAuthenticationPolicy11getAllowMd5Ev
liblinphone++.so.10:_ZNK8linphone26DigestAuthenticationPolicy13getAllowNoQopEv
liblinphone++.so.10:_ZNK8linphone4Call10getCallLogEv
liblinphone++.so.10:_ZNK8linphone4Call10getReferToB5cxx11Ev
liblinphone++.so.10:_ZNK8linphone4Call11getDurationEv
liblinphone++.so.10:_ZNK8linphone4Call11getToHeaderERKNSt7__cxx1112basic_stringIcSt11char_traitsIcESaIcEEE
liblinphone++.so.10:_ZNK8linphone4Call12getErrorInfoEv
liblinphone++.so.10:_ZNK8linphone4Call12getToAddressEv
liblinphone++.so.10:_ZNK8linphone4Call13cameraEnabledEv
liblinphone++.so.10:_ZNK8linphone4Call13getConferenceEv
liblinphone++.so.10:_ZNK8linphone4Call13getPlayVolumeEv
liblinphone++.so.10:_ZNK8linphone4Call14confirmGoClearEv
liblinphone++.so.10:_ZNK8linphone4Call14getStreamCountEv
liblinphone++.so.10:_ZNK8linphone4Call14getVideoSourceEv
liblinphone++.so.10:_ZNK8linphone4Call15getRecordVolumeEv
liblinphone++.so.10:_ZNK8linphone4Call15getRemoteParamsEv
liblinphone++.so.10:_ZNK8linphone4Call15getSpeakerMutedEv
liblinphone++.so.10:_ZNK8linphone4Call15mediaInProgressEv
liblinphone++.so.10:_ZNK8linphone4Call16getCurrentParamsEv
liblinphone++.so.10:_ZNK8linphone4Call16getRemoteAddressEv
liblinphone++.so.10:_ZNK8linphone4Call17getAverageQualityEv
liblinphone++.so.10:_ZNK8linphone4Call17getCurrentQualityEv
liblinphone++.so.10:_ZNK8linphone4Call17getRequestAddressEv
liblinphone++.so.10:_ZNK8linphone4Call17getTransfererCallEv
liblinphone++.so.10:_ZNK8linphone4Call18echoLimiterEnabledEv
liblinphone++.so.10:_ZNK8linphone4Call18getMicrophoneMutedEv
liblinphone++.so.10:_ZNK8linphone4Call18hasTransferPendingEv
liblinphone++.so.10:_ZNK8linphone4Call19getDiversionAddressEv
liblinphone++.so.10:_ZNK8linphone4Call19getInputAudioDeviceEv
liblinphone++.so.10:_ZNK8linphone4Call20getOutputAudioDeviceEv
liblinphone++.so.10:_ZNK8linphone4Call20getSpeakerVolumeGainEv
liblinphone++.so.10:_ZNK8linphone4Call21getTransferTargetCallEv
liblinphone++.so.10:_ZNK8linphone4Call22getNativeVideoWindowIdEv
liblinphone++.so.10:_ZNK8linphone4Call23echoCancellationEnabledEv
liblinphone++.so.10:_ZNK8linphone4Call23getMicrophoneVolumeGainEv
liblinphone++.so.10:_ZNK8linphone4Call24getRemoteAddressAsStringB5cxx11Ev
liblinphone++.so.10:_ZNK8linphone4Call25createNativeVideoWindowIdEv
liblinphone++.so.10:_ZNK8linphone4Call30getAuthenticationTokenVerifiedEv
liblinphone++.so.10:_ZNK8linphone4Call6getDirEv
liblinphone++.so.10:_ZNK8linphone4Call7getCoreEv
liblinphone++.so.10:_ZNK8linphone4Call8getStateEv
liblinphone++.so.10:_ZNK8linphone4Call9getParamsEv
liblinphone++.so.10:_ZNK8linphone4Call9getReasonEv
liblinphone++.so.10:_ZNK8linphone4Call9oglRenderEv
liblinphone++.so.10:_ZNK8linphone4Core10agcEnabledEv
liblinphone++.so.10:_ZNK8linphone4Core10findFriendERKSt10shared_ptrIKNS_7AddressEE
liblinphone++.so.10:_ZNK8linphone4Core10getCallsNbEv
liblinphone++.so.10:_ZNK8linphone4Core10getSipDscpEv
liblinphone++.so.10:_ZNK8linphone4Core10getTlsCertB5cxx11Ev
liblinphone++.so.10:_ZNK8linphone4Core11chatEnabledEv
liblinphone++.so.10:_ZNK8linphone4Core11findFriendsB5cxx11ERKSt10shared_ptrIKNS_7AddressEE
liblinphone++.so.10:_ZNK8linphone4Core11getAvpfModeEv
liblinphone++.so.10:_ZNK8linphone4Core11getPlayFileB5cxx11Ev
liblinphone++.so.10:_ZNK8linphone4Core11getRingbackB5cxx11Ev
liblinphone++.so.10:_ZNK8linphone4Core11getTextPortEv
liblinphone++.so.10:_ZNK8linphone4Core12findChatRoomERKSt10shared_ptrIKNS_7AddressEES6_
liblinphone++.so.10:_ZNK8linphone4Core12getAudioDscpEv
liblinphone++.so.10:_ZNK8linphone4Core12getAudioPortEv
liblinphone++.so.10:_ZNK8linphone4Core12getNatPolicyEv
liblinphone++.so.10:_ZNK8linphone4Core12getUpnpStateEv
liblinphone++.so.10:_ZNK8linphone4Core12getVideoDscpEv
liblinphone++.so.10:_ZNK8linphone4Core12getVideoPortEv
liblinphone++.so.10:_ZNK8linphone4Core13alertsEnabledEv
liblinphone++.so.10:_ZNK8linphone4Core13dnsSrvEnabledEv
liblinphone++.so.10:_ZNK8linphone4Core13getNatAddressB5cxx11Ev
liblinphone++.so.10:_ZNK8linphone4Core13getRecordFileB5cxx11Ev
liblinphone++.so.10:_ZNK8linphone4Core13getStunServerB5cxx11Ev
liblinphone++.so.10:_ZNK8linphone4Core13getTlsKeyPathB5cxx11Ev
liblinphone++.so.10:_ZNK8linphone4Core14callkitEnabledEv
liblinphone++.so.10:_ZNK8linphone4Core14getAccountListB5cxx11Ev
liblinphone++.so.10:_ZNK8linphone4Core14getCurrentCallEv
liblinphone++.so.10:_ZNK8linphone4Core14getGlobalStateEv
liblinphone++.so.10:_ZNK8linphone4Core14getTlsCertPathB5cxx11Ev
liblinphone++.so.10:_ZNK8linphone4Core14getVideoDeviceB5cxx11Ev
liblinphone++.so.10:_ZNK8linphone4Core14getVideoPresetB5cxx11Ev
liblinphone++.so.10:_ZNK8linphone4Core14isInBackgroundEv
liblinphone++.so.10:_ZNK8linphone4Core14isInConferenceEv
liblinphone++.so.10:_ZNK8linphone4Core14isPluginLoadedERKNSt7__cxx1112basic_stringIcSt11char_traitsIcESaIcEEE
liblinphone++.so.10:_ZNK8linphone4Core14searchChatRoomERKSt10shared_ptrIKNS_14ChatRoomParamsEERKS1_IKNS_7AddressEESB_RKNSt7__cxx114listIS1_IS7_ESaISE_EEE
liblinphone++.so.10:_ZNK8linphone4Core15findCallFromUriERKNSt7__cxx1112basic_stringIcSt11char_traitsIcESaIcEEE
liblinphone++.so.10:_ZNK8linphone4Core15getAudioDevicesB5cxx11Ev
liblinphone++.so.10:_ZNK8linphone4Core15getAuthInfoListB5cxx11Ev
liblinphone++.so.10:_ZNK8linphone4Core15getCallByCallidERKNSt7__cxx1112basic_stringIcSt11char_traitsIcESaIcEEE
liblinphone++.so.10:_ZNK8linphone4Core15getFriendsListsB5cxx11Ev
liblinphone++.so.10:_ZNK8linphone4Core15getNortpTimeoutEv
liblinphone++.so.10:_ZNK8linphone4Core15limeX3DhEnabledEv
liblinphone++.so.10:_ZNK8linphone4Core15selfViewEnabledEv
liblinphone++.so.10:_ZNK8linphone4Core16dnsSearchEnabledEv
liblinphone++.so.10:_ZNK8linphone4Core16getHttpProxyHostB5cxx11Ev
liblinphone++.so.10:_ZNK8linphone4Core16getHttpProxyPortEv
liblinphone++.so.10:_ZNK8linphone4Core16getImNotifPolicyEv
liblinphone++.so.10:_ZNK8linphone4Core16getPresenceModelEv
liblinphone++.so.10:_ZNK8linphone4Core16previewOglRenderEv
liblinphone++.so.10:_ZNK8linphone4Core16rtpBundleEnabledEv
liblinphone++.so.10:_ZNK8linphone4Core16sdp200AckEnabledEv
liblinphone++.so.10:_ZNK8linphone4Core16searchConferenceERKSt10shared_ptrIKNS_16ConferenceParamsEERKS1_IKNS_7AddressEESB_RKNSt7__cxx114listIS1_IS7_ESaISE_EEE
liblinphone++.so.10:_ZNK8linphone4Core16searchConferenceERKSt10shared_ptrIKNS_7AddressEE
liblinphone++.so.10:_ZNK8linphone4Core17getAvpfRrIntervalEv
liblinphone++.so.10:_ZNK8linphone4Core17getDefaultAccountEv
liblinphone++.so.10:_ZNK8linphone4Core17getFriendByRefKeyERKNSt7__cxx1112basic_stringIcSt11char_traitsIcESaIcEEE
liblinphone++.so.10:_ZNK8linphone4Core17getTextPortsRangeEv
liblinphone++.so.10:_ZNK8linphone4Core17limeX3DhAvailableEv
liblinphone++.so.10:_ZNK8linphone4Core18autoIterateEnabledEv
liblinphone++.so.10:_ZNK8linphone4Core18echoLimiterEnabledEv
liblinphone++.so.10:_ZNK8linphone4Core18getAudioPortsRangeEv
liblinphone++.so.10:_ZNK8linphone4Core18getMediaEncryptionEv
liblinphone++.so.10:_ZNK8linphone4Core18getProvisioningUriB5cxx11Ev
liblinphone++.so.10:_ZNK8linphone4Core18getProxyConfigListB5cxx11Ev
liblinphone++.so.10:_ZNK8linphone4Core18getUploadBandwidthEv
liblinphone++.so.10:_ZNK8linphone4Core18getVideoPortsRangeEv
liblinphone++.so.10:_ZNK8linphone4Core18setEnableSipUpdateEi
liblinphone++.so.10:_ZNK8linphone4Core18zrtpGoClearEnabledEv
liblinphone++.so.10:_ZNK8linphone4Core19getFriendListByNameERKNSt7__cxx1112basic_stringIcSt11char_traitsIcESaIcEEE
liblinphone++.so.10:_ZNK8linphone4Core19getInputAudioDeviceEv
liblinphone++.so.10:_ZNK8linphone4Core19getSoundDevicesListB5cxx11Ev
liblinphone++.so.10:_ZNK8linphone4Core19getVideoDevicesListB5cxx11Ev
liblinphone++.so.10:_ZNK8linphone4Core19videoPreviewEnabledEv
liblinphone++.so.10:_ZNK8linphone4Core20createRecorderParamsEv
liblinphone++.so.10:_ZNK8linphone4Core20enableSessionExpiresEb
liblinphone++.so.10:_ZNK8linphone4Core20findOneToOneChatRoomERKSt10shared_ptrIKNS_7AddressEES6_b
liblinphone++.so.10:_ZNK8linphone4Core20getAudioMulticastTtlEv
liblinphone++.so.10:_ZNK8linphone4Core20getDefaultFriendListEv
liblinphone++.so.10:_ZNK8linphone4Core20getDownloadBandwidthEv
liblinphone++.so.10:_ZNK8linphone4Core20getMediaResourceModeEv
liblinphone++.so.10:_ZNK8linphone4Core20getOutputAudioDeviceEv
liblinphone++.so.10:_ZNK8linphone4Core20getVideoMulticastTtlEv
liblinphone++.so.10:_ZNK8linphone4Core20isAutoIterateEnabledEv
liblinphone++.so.10:_ZNK8linphone4Core20nativeRingingEnabledEv
liblinphone++.so.10:_ZNK8linphone4Core21audioMulticastEnabledEv
liblinphone++.so.10:_ZNK8linphone4Core21forcedIceRelayEnabledEv
liblinphone++.so.10:_ZNK8linphone4Core21getAudioMulticastAddrB5cxx11Ev
liblinphone++.so.10:_ZNK8linphone4Core21getDefaultProxyConfigEv
liblinphone++.so.10:_ZNK8linphone4Core21getRemoteRingbackToneB5cxx11Ev
liblinphone++.so.10:_ZNK8linphone4Core21getVideoMulticastAddrB5cxx11Ev
liblinphone++.so.10:_ZNK8linphone4Core21sessionExpiresEnabledEv
liblinphone++.so.10:_ZNK8linphone4Core21videoMulticastEnabledEv
liblinphone++.so.10:_ZNK8linphone4Core22cfgLinesMergingEnabledEv
liblinphone++.so.10:_ZNK8linphone4Core22getCallByRemoteAddressERKNSt7__cxx1112basic_stringIcSt11char_traitsIcESaIcEEE
liblinphone++.so.10:_ZNK8linphone4Core22getNativeVideoWindowIdEv
liblinphone++.so.10:_ZNK8linphone4Core22getSessionExpiresValueEv
liblinphone++.so.10:_ZNK8linphone4Core22isContentTypeSupportedERKNSt7__cxx1112basic_stringIcSt11char_traitsIcESaIcEEE
liblinphone++.so.10:_ZNK8linphone4Core22isNativeRingingEnabledEv
liblinphone++.so.10:_ZNK8linphone4Core22localPermissionEnabledEv
liblinphone++.so.10:_ZNK8linphone4Core22setSessionExpiresValueEi
liblinphone++.so.10:_ZNK8linphone4Core23conferenceServerEnabledEv
liblinphone++.so.10:_ZNK8linphone4Core23echoCancellationEnabledEv
liblinphone++.so.10:_ZNK8linphone4Core23findFriendByPhoneNumberERKNSt7__cxx1112basic_stringIcSt11char_traitsIcESaIcEEE
liblinphone++.so.10:_ZNK8linphone4Core23getCallByRemoteAddress2ERKSt10shared_ptrIKNS_7AddressEE
liblinphone++.so.10:_ZNK8linphone4Core23getConsolidatedPresenceEv
liblinphone++.so.10:_ZNK8linphone4Core23getExtendedAudioDevicesB5cxx11Ev
liblinphone++.so.10:_ZNK8linphone4Core23tcapLinesMergingEnabledEv
liblinphone++.so.10:_ZNK8linphone4Core24getAccountCreatorBackendEv
liblinphone++.so.10:_ZNK8linphone4Core24getAdaptiveRateAlgorithmB5cxx11Ev
liblinphone++.so.10:_ZNK8linphone4Core24getTag100RelSupportLevelEv
liblinphone++.so.10:_ZNK8linphone4Core24getUpnpExternalIpaddressB5cxx11Ev
liblinphone++.so.10:_ZNK8linphone4Core24getVideoActivationPolicyEv
liblinphone++.so.10:_ZNK8linphone4Core25createNativeVideoWindowIdEv
liblinphone++.so.10:_ZNK8linphone4Core25enableCallToneIndicationsEb
liblinphone++.so.10:_ZNK8linphone4Core25getPreviewVideoDefinitionEv
liblinphone++.so.10:_ZNK8linphone4Core25getPushNotificationConfigEv
liblinphone++.so.10:_ZNK8linphone4Core25getSessionExpiresMinValueEv
liblinphone++.so.10:_ZNK8linphone4Core25getUnreadChatMessageCountEv
liblinphone++.so.10:_ZNK8linphone4Core25qrcodeVideoPreviewEnabledEv
liblinphone++.so.10:_ZNK8linphone4Core25setSessionExpiresMinValueEi
liblinphone++.so.10:_ZNK8linphone4Core26adaptiveRateControlEnabledEv
liblinphone++.so.10:_ZNK8linphone4Core26callToneIndicationsEnabledEv
liblinphone++.so.10:_ZNK8linphone4Core26genericComfortNoiseEnabledEv
liblinphone++.so.10:_ZNK8linphone4Core26getDefaultConferenceLayoutEv
liblinphone++.so.10:_ZNK8linphone4Core26getDefaultInputAudioDeviceEv
liblinphone++.so.10:_ZNK8linphone4Core26getEchoCancellerFilterNameB5cxx11Ev
liblinphone++.so.10:_ZNK8linphone4Core26getPushIncomingCallTimeoutEv
liblinphone++.so.10:_ZNK8linphone4Core27getDefaultEphemeralLifetimeEv
liblinphone++.so.10:_ZNK8linphone4Core27getDefaultOutputAudioDeviceEv
liblinphone++.so.10:_ZNK8linphone4Core27getPreferredVideoDefinitionEv
liblinphone++.so.10:_ZNK8linphone4Core27getSupportedFileFormatsListB5cxx11Ev
liblinphone++.so.10:_ZNK8linphone4Core27getVideoCodecPriorityPolicyEv
liblinphone++.so.10:_ZNK8linphone4Core28capabilityNegociationEnabledEv
liblinphone++.so.10:_ZNK8linphone4Core29getDigestAuthenticationPolicyEv
liblinphone++.so.10:_ZNK8linphone4Core30getEchoCancellationCalibrationEv
liblinphone++.so.10:_ZNK8linphone4Core31chatRoomGetDefaultEphemeralModeEv
liblinphone++.so.10:_ZNK8linphone4Core31getRingDuringIncomingEarlyMediaEv
liblinphone++.so.10:_ZNK8linphone4Core31getSessionExpiresRefresherValueEv
liblinphone++.so.10:_ZNK8linphone4Core31setSessionExpiresRefresherValueENS_23SessionExpiresRefresherE
liblinphone++.so.10:_ZNK8linphone4Core32getAutoIterateBackgroundScheduleEv
liblinphone++.so.10:_ZNK8linphone4Core32getAutoIterateForegroundScheduleEv
liblinphone++.so.10:_ZNK8linphone4Core32getConferenceParticipantListTypeEv
liblinphone++.so.10:_ZNK8linphone4Core32getCurrentPreviewVideoDefinitionEv
liblinphone++.so.10:_ZNK8linphone4Core32realtimeTextGetKeepaliveIntervalEv
liblinphone++.so.10:_ZNK8linphone4Core33conferenceIcsInMessageBodyEnabledEv
liblinphone++.so.10:_ZNK8linphone4Core34automaticHttpProxyDetectionEnabledEv
liblinphone++.so.10:_ZNK8linphone4Core34getUnreadChatMessageCountFromLocalERKSt10shared_ptrIKNS_7AddressEE
liblinphone++.so.10:_ZNK8linphone4Core35zeroRtpPortForStreamInactiveEnabledEv
liblinphone++.so.10:_ZNK8linphone4Core36capabilityNegotiationReinviteEnabledEv
liblinphone++.so.10:_ZNK8linphone4Core41getUnreadChatMessageCountFromActiveLocalsEv
liblinphone++.so.10:_ZNK8linphone4Core6getMtuEv
liblinphone++.so.10:_ZNK8linphone4Core6inCallEv
liblinphone++.so.10:_ZNK8linphone4Core7getRingB5cxx11Ev
liblinphone++.so.10:_ZNK8linphone4Core8getLabelB5cxx11Ev
liblinphone++.so.10:_ZNK8linphone4Core9getConfigEv
liblinphone++.so.10:_ZNK8linphone4Core9getTlsKeyB5cxx11Ev
liblinphone++.so.10:_ZNK8linphone4Core9getTunnelEv
liblinphone++.so.10:_ZNK8linphone4Ldap8getIndexEv
liblinphone++.so.10:_ZNK8linphone5Alert10getEndTimeEv
liblinphone++.so.10:_ZNK8linphone5Alert12getStartTimeEv
liblinphone++.so.10:_ZNK8linphone5Alert15getInformationsEv
liblinphone++.so.10:_ZNK8linphone5Alert5cloneEv
liblinphone++.so.10:_ZNK8linphone5Alert7getCallEv
liblinphone++.so.10:_ZNK8linphone5Alert7getTypeEv
liblinphone++.so.10:_ZNK8linphone5Alert8getStateEv
liblinphone++.so.10:_ZNK8linphone5Event11getResourceEv
liblinphone++.so.10:_ZNK8linphone5Event12getErrorInfoEv
liblinphone++.so.10:_ZNK8linphone5Event15getPublishStateEv
liblinphone++.so.10:_ZNK8linphone5Event16getRemoteContactEv
liblinphone++.so.10:_ZNK8linphone5Event20getSubscriptionStateEv
liblinphone++.so.10:_ZNK8linphone5Event5getToEv
liblinphone++.so.10:_ZNK8linphone5Event7getCoreEv
liblinphone++.so.10:_ZNK8linphone5Event7getFromEv
liblinphone++.so.10:_ZNK8linphone5Event7getNameB5cxx11Ev
liblinphone++.so.10:_ZNK8linphone5Event9getReasonEv
liblinphone++.so.10:_ZNK8linphone5Range6getMaxEv
liblinphone++.so.10:_ZNK8linphone5Range6getMinEv
liblinphone++.so.10:_ZNK8linphone5Vcard11getFullNameB5cxx11Ev
liblinphone++.so.10:_ZNK8linphone5Vcard11getJobTitleB5cxx11Ev
liblinphone++.so.10:_ZNK8linphone5Vcard12getGivenNameB5cxx11Ev
liblinphone++.so.10:_ZNK8linphone5Vcard13getFamilyNameB5cxx11Ev
liblinphone++.so.10:_ZNK8linphone5Vcard15getOrganizationB5cxx11Ev
liblinphone++.so.10:_ZNK8linphone5Vcard15getPhoneNumbersB5cxx11Ev
liblinphone++.so.10:_ZNK8linphone5Vcard17getSkipValidationEv
liblinphone++.so.10:_ZNK8linphone5Vcard24getPhoneNumbersWithLabelB5cxx11Ev
liblinphone++.so.10:_ZNK8linphone5Vcard33getExtendedPropertiesValuesByNameERKNSt7__cxx1112basic_stringIcSt11char_traitsIcESaIcEEE
liblinphone++.so.10:_ZNK8linphone5Vcard5cloneEv
liblinphone++.so.10:_ZNK8linphone5Vcard6getUidB5cxx11Ev
liblinphone++.so.10:_ZNK8linphone5Vcard6getUrlB5cxx11Ev
liblinphone++.so.10:_ZNK8linphone5Vcard7getEtagB5cxx11Ev
liblinphone++.so.10:_ZNK8linphone5Vcard8getPhotoB5cxx11Ev
liblinphone++.so.10:_ZNK8linphone6Buffer10getContentEv
liblinphone++.so.10:_ZNK8linphone6Buffer16getStringContentB5cxx11Ev
liblinphone++.so.10:_ZNK8linphone6Buffer7getSizeEv
liblinphone++.so.10:_ZNK8linphone6Buffer7isEmptyEv
liblinphone++.so.10:_ZNK8linphone6Config10hasSectionERKNSt7__cxx1112basic_stringIcSt11char_traitsIcESaIcEEE
liblinphone++.so.10:_ZNK8linphone6Config13getDefaultIntERKNSt7__cxx1112basic_stringIcSt11char_traitsIcESaIcEEES8_i
liblinphone++.so.10:_ZNK8linphone6Config13getStringListERKNSt7__cxx1112basic_stringIcSt11char_traitsIcESaIcEEES8_RKNS1_4listIS6_SaIS6_EEE
liblinphone++.so.10:_ZNK8linphone6Config15getDefaultFloatERKNSt7__cxx1112basic_stringIcSt11char_traitsIcESaIcEEES8_f
liblinphone++.so.10:_ZNK8linphone6Config15getDefaultInt64ERKNSt7__cxx1112basic_stringIcSt11char_traitsIcESaIcEEES8_l
liblinphone++.so.10:_ZNK8linphone6Config16getDefaultStringERKNSt7__cxx1112basic_stringIcSt11char_traitsIcESaIcEEES8_S8_
liblinphone++.so.10:_ZNK8linphone6Config17writeRelativeFileERKNSt7__cxx1112basic_stringIcSt11char_traitsIcESaIcEEES8_
liblinphone++.so.10:_ZNK8linphone6Config18relativeFileExistsERKNSt7__cxx1112basic_stringIcSt11char_traitsIcESaIcEEE
liblinphone++.so.10:_ZNK8linphone6Config19getSkipFlagForEntryERKNSt7__cxx1112basic_stringIcSt11char_traitsIcESaIcEEES8_
liblinphone++.so.10:_ZNK8linphone6Config21getSectionParamStringERKNSt7__cxx1112basic_stringIcSt11char_traitsIcESaIcEEES8_S8_
liblinphone++.so.10:_ZNK8linphone6Config21getSkipFlagForSectionERKNSt7__cxx1112basic_stringIcSt11char_traitsIcESaIcEEE
liblinphone++.so.10:_ZNK8linphone6Config24getOverwriteFlagForEntryERKNSt7__cxx1112basic_stringIcSt11char_traitsIcESaIcEEES8_
liblinphone++.so.10:_ZNK8linphone6Config26getOverwriteFlagForSectionERKNSt7__cxx1112basic_stringIcSt11char_traitsIcESaIcEEE
liblinphone++.so.10:_ZNK8linphone6Config4dumpB5cxx11Ev
liblinphone++.so.10:_ZNK8linphone6Config6getIntERKNSt7__cxx1112basic_stringIcSt11char_traitsIcESaIcEEES8_i
liblinphone++.so.10:_ZNK8linphone6Config7getBoolERKNSt7__cxx1112basic_stringIcSt11char_traitsIcESaIcEEES8_b
liblinphone++.so.10:_ZNK8linphone6Config8getFloatERKNSt7__cxx1112basic_stringIcSt11char_traitsIcESaIcEEES8_f
liblinphone++.so.10:_ZNK8linphone6Config8getInt64ERKNSt7__cxx1112basic_stringIcSt11char_traitsIcESaIcEEES8_l
liblinphone++.so.10:_ZNK8linphone6Config8getRangeERKNSt7__cxx1112basic_stringIcSt11char_traitsIcESaIcEEES8_PiS9_ii
liblinphone++.so.10:_ZNK8linphone6Config8hasEntryERKNSt7__cxx1112basic_stringIcSt11char_traitsIcESaIcEEES8_
liblinphone++.so.10:_ZNK8linphone6Config9dumpAsXmlB5cxx11Ev
liblinphone++.so.10:_ZNK8linphone6Config9getStringERKNSt7__cxx1112basic_stringIcSt11char_traitsIcESaIcEEES8_S8_
liblinphone++.so.10:_ZNK8linphone6Friend10getAddressEv
liblinphone++.so.10:_ZNK8linphone6Friend10getStarredEv
liblinphone++.so.10:_ZNK8linphone6Friend11getJobTitleB5cxx11Ev
liblinphone++.so.10:_ZNK8linphone6Friend12getAddressesB5cxx11Ev
liblinphone++.so.10:_ZNK8linphone6Friend12getNativeUriB5cxx11Ev
liblinphone++.so.10:_ZNK8linphone6Friend13hasCapabilityENS0_10CapabilityE
liblinphone++.so.10:_ZNK8linphone6Friend14hasPhoneNumberERKNSt7__cxx1112basic_stringIcSt11char_traitsIcESaIcEEE
liblinphone++.so.10:_ZNK8linphone6Friend15getCapabilitiesEv
liblinphone++.so.10:_ZNK8linphone6Friend15getOrganizationB5cxx11Ev
liblinphone++.so.10:_ZNK8linphone6Friend15getPhoneNumbersB5cxx11Ev
liblinphone++.so.10:_ZNK8linphone6Friend16getPresenceModelEv
liblinphone++.so.10:_ZNK8linphone6Friend17subscribesEnabledEv
liblinphone++.so.10:_ZNK8linphone6Friend18isPresenceReceivedEv
liblinphone++.so.10:_ZNK8linphone6Friend20getCapabilityVersionENS0_10CapabilityE
liblinphone++.so.10:_ZNK8linphone6Friend20getSubscriptionStateEv
liblinphone++.so.10:_ZNK8linphone6Friend21getIncSubscribePolicyEv
liblinphone++.so.10:_ZNK8linphone6Friend23getConsolidatedPresenceEv
liblinphone++.so.10:_ZNK8linphone6Friend24getPhoneNumbersWithLabelB5cxx11Ev
liblinphone++.so.10:_ZNK8linphone6Friend24hasCapabilityWithVersionENS0_10CapabilityEf
liblinphone++.so.10:_ZNK8linphone6Friend27getPresenceModelForUriOrTelERKNSt7__cxx1112basic_stringIcSt11char_traitsIcESaIcEEE
liblinphone++.so.10:_ZNK8linphone6Friend30hasCapabilityWithVersionOrMoreENS0_10CapabilityEf
liblinphone++.so.10:_ZNK8linphone6Friend6inListEv
liblinphone++.so.10:_ZNK8linphone6Friend7getCoreEv
liblinphone++.so.10:_ZNK8linphone6Friend7getNameB5cxx11Ev
liblinphone++.so.10:_ZNK8linphone6Friend8getPhotoB5cxx11Ev
liblinphone++.so.10:_ZNK8linphone6Friend8getVcardEv
liblinphone++.so.10:_ZNK8linphone6Friend9getRefKeyB5cxx11Ev
liblinphone++.so.10:_ZNK8linphone6Object11getUserDataB5cxx11Ev
liblinphone++.so.10:_ZNK8linphone6Player7getCoreEv
liblinphone++.so.10:_ZNK8linphone6Tunnel10getServersB5cxx11Ev
liblinphone++.so.10:_ZNK8linphone6Tunnel10sipEnabledEv
liblinphone++.so.10:_ZNK8linphone6Tunnel12getActivatedEv
liblinphone++.so.10:_ZNK8linphone6Tunnel15dualModeEnabledEv
liblinphone++.so.10:_ZNK8linphone6Tunnel7getModeEv
liblinphone++.so.10:_ZNK8linphone6Tunnel9connectedEv
liblinphone++.so.10:_ZNK8linphone7Account11getCallLogsB5cxx11Ev
liblinphone++.so.10:_ZNK8linphone7Account12getChatRoomsB5cxx11Ev
liblinphone++.so.10:_ZNK8linphone7Account13clearCallLogsEv
liblinphone++.so.10:_ZNK8linphone7Account13isPhoneNumberERKNSt7__cxx1112basic_stringIcSt11char_traitsIcESaIcEEE
liblinphone++.so.10:_ZNK8linphone7Account14getCustomParamERKNSt7__cxx1112basic_stringIcSt11char_traitsIcESaIcEEE
liblinphone++.so.10:_ZNK8linphone7Account19getMissedCallsCountEv
liblinphone++.so.10:_ZNK8linphone7Account20normalizePhoneNumberERKNSt7__cxx1112basic_stringIcSt11char_traitsIcESaIcEEE
liblinphone++.so.10:_ZNK8linphone7Account21getCallLogsForAddressB5cxx11ERKSt10shared_ptrIKNS_7AddressEE
liblinphone++.so.10:_ZNK8linphone7Account25getUnreadChatMessageCountEv
liblinphone++.so.10:_ZNK8linphone7Account28getConferenceInformationListB5cxx11Ev
liblinphone++.so.10:_ZNK8linphone7Account5cloneEv
liblinphone++.so.10:_ZNK8linphone7Account9getParamsEv
liblinphone++.so.10:_ZNK8linphone7Address11getPasswordB5cxx11Ev
liblinphone++.so.10:_ZNK8linphone7Address11getUriParamERKNSt7__cxx1112basic_stringIcSt11char_traitsIcESaIcEEE
liblinphone++.so.10:_ZNK8linphone7Address11getUsernameB5cxx11Ev
liblinphone++.so.10:_ZNK8linphone7Address11hasUriParamERKNSt7__cxx1112basic_stringIcSt11char_traitsIcESaIcEEE
liblinphone++.so.10:_ZNK8linphone7Address12getTransportEv
liblinphone++.so.10:_ZNK8linphone7Address14getDisplayNameB5cxx11Ev
liblinphone++.so.10:_ZNK8linphone7Address14getMethodParamB5cxx11Ev
liblinphone++.so.10:_ZNK8linphone7Address15asStringUriOnlyB5cxx11Ev
liblinphone++.so.10:_ZNK8linphone7Address5cloneEv
liblinphone++.so.10:_ZNK8linphone7Address5equalERKSt10shared_ptrIKS0_E
liblinphone++.so.10:_ZNK8linphone7Address5isSipEv
liblinphone++.so.10:_ZNK8linphone7Address7getPortEv
liblinphone++.so.10:_ZNK8linphone7Address7isValidEv
liblinphone++.so.10:_ZNK8linphone7Address8asStringB5cxx11Ev
liblinphone++.so.10:_ZNK8linphone7Address8getParamERKNSt7__cxx1112basic_stringIcSt11char_traitsIcESaIcEEE
liblinphone++.so.10:_ZNK8linphone7Address8hasParamERKNSt7__cxx1112basic_stringIcSt11char_traitsIcESaIcEEE
liblinphone++.so.10:_ZNK8linphone7Address9getDomainB5cxx11Ev
liblinphone++.so.10:_ZNK8linphone7Address9getHeaderERKNSt7__cxx1112basic_stringIcSt11char_traitsIcESaIcEEE
liblinphone++.so.10:_ZNK8linphone7Address9getSchemeB5cxx11Ev
liblinphone++.so.10:_ZNK8linphone7Address9getSecureEv
liblinphone++.so.10:_ZNK8linphone7Address9weakEqualERKSt10shared_ptrIKS0_E
liblinphone++.so.10:_ZNK8linphone7CallLog10getQualityEv
liblinphone++.so.10:_ZNK8linphone7CallLog11getDurationEv
liblinphone++.so.10:_ZNK8linphone7CallLog12getErrorInfoEv
liblinphone++.so.10:_ZNK8linphone7CallLog12getStartDateEv
liblinphone++.so.10:_ZNK8linphone7CallLog12getToAddressEv
liblinphone++.so.10:_ZNK8linphone7CallLog12videoEnabledEv
liblinphone++.so.10:_ZNK8linphone7CallLog14getFromAddressEv
liblinphone++.so.10:_ZNK8linphone7CallLog15getLocalAddressEv
liblinphone++.so.10:_ZNK8linphone7CallLog16getRemoteAddressEv
liblinphone++.so.10:_ZNK8linphone7CallLog5toStrB5cxx11Ev
liblinphone++.so.10:_ZNK8linphone7CallLog6getDirEv
liblinphone++.so.10:_ZNK8linphone7CallLog9getCallIdB5cxx11Ev
liblinphone++.so.10:_ZNK8linphone7CallLog9getRefKeyB5cxx11Ev
liblinphone++.so.10:_ZNK8linphone7CallLog9getStatusEv
liblinphone++.so.10:_ZNK8linphone7Content10getKeySizeEv
liblinphone++.so.10:_ZNK8linphone7Content10getSubtypeB5cxx11Ev
liblinphone++.so.10:_ZNK8linphone7Content11getEncodingB5cxx11Ev
liblinphone++.so.10:_ZNK8linphone7Content11getFilePathB5cxx11Ev
liblinphone++.so.10:_ZNK8linphone7Content11getFileSizeEv
liblinphone++.so.10:_ZNK8linphone7Content11getUtf8TextB5cxx11Ev
liblinphone++.so.10:_ZNK8linphone7Content11isIcalendarEv
liblinphone++.so.10:_ZNK8linphone7Content11isMultipartEv
liblinphone++.so.10:_ZNK8linphone7Content14getDispositionB5cxx11Ev
liblinphone++.so.10:_ZNK8linphone7Content14isFileTransferEv
liblinphone++.so.10:_ZNK8linphone7Content15exportPlainFileB5cxx11Ev
liblinphone++.so.10:_ZNK8linphone7Content15getCustomHeaderERKNSt7__cxx1112basic_stringIcSt11char_traitsIcESaIcEEE
liblinphone++.so.10:_ZNK8linphone7Content15getStringBufferB5cxx11Ev
liblinphone++.so.10:_ZNK8linphone7Content15isFileEncryptedEv
liblinphone++.so.10:_ZNK8linphone7Content16findPartByHeaderERKNSt7__cxx1112basic_stringIcSt11char_traitsIcESaIcEEES8_
liblinphone++.so.10:_ZNK8linphone7Content16getPlainFilePathB5cxx11Ev
liblinphone++.so.10:_ZNK8linphone7Content16isVoiceRecordingEv
liblinphone++.so.10:_ZNK8linphone7Content6getKeyB5cxx11Ev
liblinphone++.so.10:_ZNK8linphone7Content6isFileEv
liblinphone++.so.10:_ZNK8linphone7Content6isTextEv
liblinphone++.so.10:_ZNK8linphone7Content7getNameB5cxx11Ev
liblinphone++.so.10:_ZNK8linphone7Content7getPartEi
liblinphone++.so.10:_ZNK8linphone7Content7getSizeEv
liblinphone++.so.10:_ZNK8linphone7Content7getTypeB5cxx11Ev
liblinphone++.so.10:_ZNK8linphone7Content8getPartsB5cxx11Ev
liblinphone++.so.10:_ZNK8linphone7Content9getBufferEv
liblinphone++.so.10:_ZNK8linphone7Factory10createCoreERKNSt7__cxx1112basic_stringIcSt11char_traitsIcESaIcEEES8_Pv
liblinphone++.so.10:_ZNK8linphone7Factory12getDialPlansB5cxx11Ev
liblinphone++.so.10:_ZNK8linphone7Factory12isDataDirSetEv
liblinphone++.so.10:_ZNK8linphone7Factory13createAddressERKNSt7__cxx1112basic_stringIcSt11char_traitsIcESaIcEEE
liblinphone++.so.10:_ZNK8linphone7Factory13isCacheDirSetEv
liblinphone++.so.10:_ZNK8linphone7Factory14createAuthInfoERKNSt7__cxx1112basic_stringIcSt11char_traitsIcESaIcEEES8_S8_S8_S8_S8_
liblinphone++.so.10:_ZNK8linphone7Factory14createAuthInfoERKNSt7__cxx1112basic_stringIcSt11char_traitsIcESaIcEEES8_S8_S8_S8_S8_S8_
liblinphone++.so.10:_ZNK8linphone7Factory14isConfigDirSetEv
liblinphone++.so.10:_ZNK8linphone7Factory16isDownloadDirSetEv
liblinphone++.so.10:_ZNK8linphone7Factory18getTopResourcesDirB5cxx11Ev
liblinphone++.so.10:_ZNK8linphone7Factory20createCoreWithConfigERKSt10shared_ptrINS_6ConfigEEPv
liblinphone++.so.10:_ZNK8linphone7Factory21createVideoDefinitionEjj
liblinphone++.so.10:_ZNK8linphone7Factory22computeHa1ForAlgorithmERKNSt7__cxx1112basic_stringIcSt11char_traitsIcESaIcEEES8_S8_S8_
liblinphone++.so.10:_ZNK8linphone7Factory23createFriendPhoneNumberERKNSt7__cxx1112basic_stringIcSt11char_traitsIcESaIcEEES8_
liblinphone++.so.10:_ZNK8linphone7Factory28getSupportedVideoDefinitionsB5cxx11Ev
liblinphone++.so.10:_ZNK8linphone7Factory29createVideoDefinitionFromNameERKNSt7__cxx1112basic_stringIcSt11char_traitsIcESaIcEEE
liblinphone++.so.10:_ZNK8linphone7Factory30getRecommendedVideoDefinitionsB5cxx11Ev
liblinphone++.so.10:_ZNK8linphone7Factory31createParticipantDeviceIdentityERKSt10shared_ptrIKNS_7AddressEERKNSt7__cxx1112basic_stringIcSt11char_traitsIcESaIcEEE
liblinphone++.so.10:_ZNK8linphone7Factory32createDigestAuthenticationPolicyEv
liblinphone++.so.10:_ZNK8linphone8AuthInfo10getTlsCertB5cxx11Ev
liblinphone++.so.10:_ZNK8linphone8AuthInfo11getPasswordB5cxx11Ev
liblinphone++.so.10:_ZNK8linphone8AuthInfo11getUsernameB5cxx11Ev
liblinphone++.so.10:_ZNK8linphone8AuthInfo12getAlgorithmB5cxx11Ev
liblinphone++.so.10:_ZNK8linphone8AuthInfo13getTlsKeyPathB5cxx11Ev
liblinphone++.so.10:_ZNK8linphone8AuthInfo14getTlsCertPathB5cxx11Ev
liblinphone++.so.10:_ZNK8linphone8AuthInfo20isEqualButAlgorithmsERKSt10shared_ptrIKS0_E
liblinphone++.so.10:_ZNK8linphone8AuthInfo22getAvailableAlgorithmsB5cxx11Ev
liblinphone++.so.10:_ZNK8linphone8AuthInfo5cloneEv
liblinphone++.so.10:_ZNK8linphone8AuthInfo6getHa1B5cxx11Ev
liblinphone++.so.10:_ZNK8linphone8AuthInfo8getRealmB5cxx11Ev
liblinphone++.so.10:_ZNK8linphone8AuthInfo9getDomainB5cxx11Ev
liblinphone++.so.10:_ZNK8linphone8AuthInfo9getTlsKeyB5cxx11Ev
liblinphone++.so.10:_ZNK8linphone8AuthInfo9getUseridB5cxx11Ev
liblinphone++.so.10:_ZNK8linphone8ChatRoom10getSubjectB5cxx11Ev
liblinphone++.so.10:_ZNK8linphone8ChatRoom10isReadOnlyEv
liblinphone++.so.10:_ZNK8linphone8ChatRoom11hasBeenLeftEv
liblinphone++.so.10:_ZNK8linphone8ChatRoom13hasCapabilityEi
liblinphone++.so.10:_ZNK8linphone8ChatRoom15findParticipantERKSt10shared_ptrINS_7AddressEE
liblinphone++.so.10:_ZNK8linphone8ChatRoom15getCapabilitiesEv
liblinphone++.so.10:_ZNK8linphone8ChatRoom15getCreationTimeEv
liblinphone++.so.10:_ZNK8linphone8ChatRoom15getParticipantsB5cxx11Ev
liblinphone++.so.10:_ZNK8linphone8ChatRoom16ephemeralEnabledEv
liblinphone++.so.10:_ZNK8linphone8ChatRoom16getCurrentParamsEv
liblinphone++.so.10:_ZNK8linphone8ChatRoom16getEphemeralModeEv
liblinphone++.so.10:_ZNK8linphone8ChatRoom17getLastUpdateTimeEv
liblinphone++.so.10:_ZNK8linphone8ChatRoom17getNbParticipantsEv
liblinphone++.so.10:_ZNK8linphone8ChatRoom17isRemoteComposingEv
liblinphone++.so.10:_ZNK8linphone8ChatRoom20getConferenceAddressEv
liblinphone++.so.10:_ZNK8linphone8ChatRoom20getEphemeralLifetimeEv
liblinphone++.so.10:_ZNK8linphone8ChatRoom21canHandleParticipantsEv
liblinphone++.so.10:_ZNK8linphone8ChatRoom35ephemeralSupportedByAllParticipantsEv
liblinphone++.so.10:_ZNK8linphone8ChatRoom5getMeEv
liblinphone++.so.10:_ZNK8linphone8ChatRoom7getCallEv
liblinphone++.so.10:_ZNK8linphone8ChatRoom7getCoreEv
liblinphone++.so.10:_ZNK8linphone8ChatRoom8getMutedEv
liblinphone++.so.10:_ZNK8linphone8ChatRoom8getStateEv
liblinphone++.so.10:_ZNK8linphone8DialPlan10getCountryB5cxx11Ev
liblinphone++.so.10:_ZNK8linphone8DialPlan17getIsoCountryCodeB5cxx11Ev
liblinphone++.so.10:_ZNK8linphone8DialPlan21getCountryCallingCodeB5cxx11Ev
liblinphone++.so.10:_ZNK8linphone8DialPlan23getNationalNumberLengthEv
liblinphone++.so.10:_ZNK8linphone8DialPlan26getInternationalCallPrefixB5cxx11Ev
liblinphone++.so.10:_ZNK8linphone8DialPlan7getFlagB5cxx11Ev
liblinphone++.so.10:_ZNK8linphone8DialPlan9isGenericEv
liblinphone++.so.10:_ZNK8linphone8EventLog10getCallLogEv
liblinphone++.so.10:_ZNK8linphone8EventLog10getSubjectB5cxx11Ev
liblinphone++.so.10:_ZNK8linphone8EventLog11getNotifyIdEv
liblinphone++.so.10:_ZNK8linphone8EventLog14getChatMessageEv
liblinphone++.so.10:_ZNK8linphone8EventLog14getPeerAddressEv
liblinphone++.so.10:_ZNK8linphone8EventLog15getCreationTimeEv
liblinphone++.so.10:_ZNK8linphone8EventLog15getLocalAddressEv
liblinphone++.so.10:_ZNK8linphone8EventLog16getDeviceAddressEv
liblinphone++.so.10:_ZNK8linphone8EventLog17getConferenceInfoEv
liblinphone++.so.10:_ZNK8linphone8EventLog20getSecurityEventTypeEv
liblinphone++.so.10:_ZNK8linphone8EventLog21getParticipantAddressEv
liblinphone++.so.10:_ZNK8linphone8EventLog27getEphemeralMessageLifetimeEv
liblinphone++.so.10:_ZNK8linphone8EventLog35getSecurityEventFaultyDeviceAddressEv
liblinphone++.so.10:_ZNK8linphone8EventLog7getTypeEv
liblinphone++.so.10:_ZNK8linphone8Recorder11getDurationEv
liblinphone++.so.10:_ZNK8linphone8Recorder16getCaptureVolumeEv
liblinphone++.so.10:_ZNK8linphone8Recorder7getFileB5cxx11Ev
liblinphone++.so.10:_ZNK8linphone8Recorder8getStateEv
liblinphone++.so.10:_ZNK8linphone8Recorder9getParamsEv
liblinphone++.so.10:_ZNK8linphone9CallStats11getIceStateEv
liblinphone++.so.10:_ZNK8linphone9CallStats12getUpnpStateEv
liblinphone++.so.10:_ZNK8linphone9CallStats14getZrtpSasAlgoB5cxx11Ev
liblinphone++.so.10:_ZNK8linphone9CallStats15getZrtpHashAlgoB5cxx11Ev
liblinphone++.so.10:_ZNK8linphone9CallStats16getLocalLateRateEv
liblinphone++.so.10:_ZNK8linphone9CallStats16getLocalLossRateEv
liblinphone++.so.10:_ZNK8linphone9CallStats17getRoundTripDelayEv
liblinphone++.so.10:_ZNK8linphone9CallStats17getSenderLossRateEv
liblinphone++.so.10:_ZNK8linphone9CallStats17getZrtpCipherAlgoB5cxx11Ev
liblinphone++.so.10:_ZNK8linphone9CallStats18getUploadBandwidthEv
liblinphone++.so.10:_ZNK8linphone9CallStats18getZrtpAuthTagAlgoB5cxx11Ev
liblinphone++.so.10:_ZNK8linphone9CallStats19getIpFamilyOfRemoteEv
liblinphone++.so.10:_ZNK8linphone9CallStats19getReceiverLossRateEv
liblinphone++.so.10:_ZNK8linphone9CallStats20getDownloadBandwidthEv
liblinphone++.so.10:_ZNK8linphone9CallStats21getJitterBufferSizeMsEv
liblinphone++.so.10:_ZNK8linphone9CallStats22getRtcpUploadBandwidthEv
liblinphone++.so.10:_ZNK8linphone9CallStats23getZrtpKeyAgreementAlgoB5cxx11Ev
liblinphone++.so.10:_ZNK8linphone9CallStats24getRtcpDownloadBandwidthEv
liblinphone++.so.10:_ZNK8linphone9CallStats27getSenderInterarrivalJitterEv
liblinphone++.so.10:_ZNK8linphone9CallStats29getEstimatedDownloadBandwidthEv
liblinphone++.so.10:_ZNK8linphone9CallStats29getReceiverInterarrivalJitterEv
liblinphone++.so.10:_ZNK8linphone9CallStats30getLatePacketsCumulativeNumberEv
liblinphone++.so.10:_ZNK8linphone9CallStats33isZrtpKeyAgreementAlgoPostQuantumEv
liblinphone++.so.10:_ZNK8linphone9CallStats7getTypeEv
liblinphone++.so.10:_ZNK8linphone9ErrorInfo11getProtocolB5cxx11Ev
liblinphone++.so.10:_ZNK8linphone9ErrorInfo11getWarningsB5cxx11Ev
liblinphone++.so.10:_ZNK8linphone9ErrorInfo13getRetryAfterEv
liblinphone++.so.10:_ZNK8linphone9ErrorInfo15getProtocolCodeEv
liblinphone++.so.10:_ZNK8linphone9ErrorInfo15getSubErrorInfoEv
liblinphone++.so.10:_ZNK8linphone9ErrorInfo9getPhraseB5cxx11Ev
liblinphone++.so.10:_ZNK8linphone9ErrorInfo9getReasonEv
liblinphone++.so.10:_ZNK8linphone9NatPolicy10iceEnabledEv
liblinphone++.so.10:_ZNK8linphone9NatPolicy11stunEnabledEv
liblinphone++.so.10:_ZNK8linphone9NatPolicy11turnEnabledEv
liblinphone++.so.10:_ZNK8linphone9NatPolicy11upnpEnabledEv
liblinphone++.so.10:_ZNK8linphone9NatPolicy13getStunServerB5cxx11Ev
liblinphone++.so.10:_ZNK8linphone9NatPolicy15getNatV4AddressB5cxx11Ev
liblinphone++.so.10:_ZNK8linphone9NatPolicy15getNatV6AddressB5cxx11Ev
liblinphone++.so.10:_ZNK8linphone9NatPolicy21getStunServerUsernameB5cxx11Ev
liblinphone++.so.10:_ZNK8linphone9NatPolicy23tcpTurnTransportEnabledEv
liblinphone++.so.10:_ZNK8linphone9NatPolicy23tlsTurnTransportEnabledEv
liblinphone++.so.10:_ZNK8linphone9NatPolicy23udpTurnTransportEnabledEv
liblinphone++.so.10:_ZNK8linphone9NatPolicy5cloneEv
liblinphone++.so.10:_ZNK8linphone9NatPolicy7getCoreEv
liblinphone.so.10:LinphoneContactProvider_vptr
liblinphone.so.10:LinphoneVcard_vptr_get
liblinphone.so.10:_Z11enum_lookupPKcPP15enum_lookup_res
liblinphone.so.10:_Z11lp_item_newPKcS0_
liblinphone.so.10:_Z11lp_realpathPKcPc
liblinphone.so.10:_Z12log_bad_castPKc
liblinphone.so.10:_Z13ec_tester_newP10_MSFactoryP10_MSSndCardS2_j
liblinphone.so.10:_Z13lp_item_writeP7_LpItemP9_LpConfig
liblinphone.so.10:_Z14lp_comment_newPKc
liblinphone.so.10:_Z14lp_section_newPKc
liblinphone.so.10:_Z15lp_item_destroyPv
liblinphone.so.10:_Z16check_core_stateP13_LinphoneCorePN15LinphonePrivate5SalOpE
liblinphone.so.10:_Z16lp_section_writeP10_LpSectionP9_LpConfig
liblinphone.so.10:_Z17ec_calibrator_newP10_MSFactoryP10_MSSndCardS2_jPFvP13_LinphoneCore27_LinphoneEcCalibratorStatusiPvEPFvS6_ESA_S6_
liblinphone.so.10:_Z17ec_tester_destroyP11_EchoTester
liblinphone.so.10:_Z17lp_item_set_valueP7_LpItemPKc
liblinphone.so.10:_Z17net_config_uninitP13_LinphoneCore
liblinphone.so.10:_Z17rtp_config_uninitP13_LinphoneCore
liblinphone.so.10:_Z17sip_config_uninitP13_LinphoneCore
liblinphone.so.10:_Z18lp_section_destroyP10_LpSection
liblinphone.so.10:_Z18misc_config_uninitP13_LinphoneCore
liblinphone.so.10:_Z19_linphone_Core_initv
liblinphone.so.10:_Z19ec_calibrator_startP13_EcCalibrator
liblinphone.so.10:_Z19lp_section_add_itemP10_LpSectionP7_LpItem
liblinphone.so.10:_Z20__policy_enum_to_str24_LinphoneSubscribePolicy
liblinphone.so.10:_Z20__policy_str_to_enumPKc
liblinphone.so.10:_Z20enum_lookup_res_freeP15enum_lookup_res
liblinphone.so.10:_Z20lc_callback_obj_initP14_LCCallbackObjPFvP13_LinphoneCorePvES3_
liblinphone.so.10:_Z20lp_section_find_itemPK10_LpSectionPKc
liblinphone.so.10:_Z20lp_section_get_itemsPK10_LpSection
liblinphone.so.10:_Z20lp_section_param_newPKcS0_
liblinphone.so.10:_Z20sal_auth_info_createP20belle_sip_auth_event
liblinphone.so.10:_Z20sal_reason_to_string9SalReason
liblinphone.so.10:_Z21LinphoneCore_vptr_getv
liblinphone.so.10:_Z21friends_config_uninitP13_LinphoneCore
liblinphone.so.10:_Z21linphone_config_parseP9_LpConfigP16bctbx_vfs_file_t
liblinphone.so.10:_Z21lp_section_find_paramPK10_LpSectionPKc
liblinphone.so.10:_Z22LinphoneRange_vptr_getv
liblinphone.so.10:_Z22lc_callback_obj_invokeP14_LCCallbackObjP13_LinphoneCore
liblinphone.so.10:_Z22linphone_tunnel_enableP15_LinphoneTunnelh
liblinphone.so.10:_Z22lp_section_param_writeP15_LpSectionParamP9_LpConfig
liblinphone.so.10:_Z22lp_section_remove_itemP10_LpSectionP7_LpItem
liblinphone.so.10:_Z23LinphoneBuffer_vptr_getv
liblinphone.so.10:_Z23LinphoneConfig_vptr_getv
liblinphone.so.10:_Z23LinphoneFriend_vptr_getv
liblinphone.so.10:_Z23LinphonePlayer_vptr_getv
liblinphone.so.10:_Z23_linphone_ChatRoom_initv
liblinphone.so.10:_Z23_linphone_EventLog_initv
liblinphone.so.10:_Z23linphone_player_destroyP15_LinphonePlayer
liblinphone.so.10:_Z23linphone_tunnel_destroyP15_LinphoneTunnel
liblinphone.so.10:_Z23linphone_tunnel_enabledPK15_LinphoneTunnel
liblinphone.so.10:_Z23lp_section_find_commentPK10_LpSectionPKc
liblinphone.so.10:_Z24LinphoneCoreCbs_vptr_getv
liblinphone.so.10:_Z24create_rtcp_xr_attributePK23OrtpRtcpXrConfiguration
liblinphone.so.10:_Z24linphone_error_to_string15_LinphoneReason
liblinphone.so.10:_Z24lp_section_param_destroyPv
liblinphone.so.10:_Z24sqlite3_bctbx_vfs_createv
liblinphone.so.10:_Z25LinphoneChatRoom_vptr_getv
liblinphone.so.10:_Z25LinphoneEventLog_vptr_getv
liblinphone.so.10:_Z25_linphone_CallParams_initv
liblinphone.so.10:_Z25_sal_reason_from_sip_codei
liblinphone.so.10:_Z25add_rtcp_fb_ack_attributeP28_belle_sdp_media_descriptiona28_belle_sdp_rtcp_fb_val_param
liblinphone.so.10:_Z25add_rtcp_fb_ccm_attributeP28_belle_sdp_media_descriptiona28_belle_sdp_rtcp_fb_val_param
liblinphone.so.10:_Z25linphone_update_check_newP13_LinphoneCorePKcP35structbelle_http_request_listener_t
liblinphone.so.10:_Z26LinphoneCallStats_vptr_getv
liblinphone.so.10:_Z26LinphoneErrorInfo_vptr_getv
liblinphone.so.10:_Z26LinphoneFriendCbs_vptr_getv
liblinphone.so.10:_Z26LinphonePlayerCbs_vptr_getv
liblinphone.so.10:_Z26_linphone_ChatMessage_initv
liblinphone.so.10:_Z26_linphone_MagicSearch_initv
liblinphone.so.10:_Z26add_rtcp_fb_nack_attributeP28_belle_sdp_media_descriptiona28_belle_sdp_rtcp_fb_val_param
liblinphone.so.10:_Z26linphone_core_send_publishP13_LinphoneCoreP22_LinphonePresenceModel
liblinphone.so.10:_Z26sqlite3_bctbx_vfs_registeri
liblinphone.so.10:_Z27LinphoneCallParams_vptr_getv
liblinphone.so.10:_Z27LinphoneFriendList_vptr_getv
liblinphone.so.10:_Z27LinphoneTransports_vptr_getv
liblinphone.so.10:_Z27linphone_config_add_sectionP9_LpConfigP10_LpSection
liblinphone.so.10:_Z27linphone_proxy_config_applyP20_LinphoneProxyConfigP13_LinphoneCore
liblinphone.so.10:_Z27linphone_tunnel_auto_detectP15_LinphoneTunnel
liblinphone.so.10:_Z28LinphoneChatMessage_vptr_getv
liblinphone.so.10:_Z28LinphoneChatRoomCbs_vptr_getv
liblinphone.so.10:_Z28LinphoneInfoMessage_vptr_getv
liblinphone.so.10:_Z28LinphoneMagicSearch_vptr_getv
liblinphone.so.10:_Z28LinphoneProxyConfig_vptr_getv
liblinphone.so.10:_Z28linphone_call_params_destroyP19_LinphoneCallParams
liblinphone.so.10:_Z28linphone_config_find_sectionPK9_LpConfigPKc
liblinphone.so.10:_Z28linphone_content_get_authTagPK16_LinphoneContent
liblinphone.so.10:_Z28linphone_content_set_authTagP16_LinphoneContentPKcm
liblinphone.so.10:_Z28linphone_core_add_subscriberP13_LinphoneCorePKcPN15LinphonePrivate5SalOpE
liblinphone.so.10:_Z28linphone_error_info_from_salP18_LinphoneErrorInfoPK12SalErrorInfo
liblinphone.so.10:_Z28sqlite3_bctbx_vfs_unregisterv
liblinphone.so.10:_Z29LinphonePresenceNote_vptr_getv
liblinphone.so.10:_Z29LinphoneTunnelConfig_vptr_getv
liblinphone.so.10:_Z29_linphone_call_get_local_descPK13_LinphoneCall
liblinphone.so.10:_Z29add_rtcp_fb_trr_int_attributeP28_belle_sdp_media_descriptionat
liblinphone.so.10:_Z29linphone_info_message_destroyP20_LinphoneInfoMessage
liblinphone.so.10:_Z30LinphoneContactSearch_vptr_getv
liblinphone.so.10:_Z30LinphoneFriendListCbs_vptr_getv
liblinphone.so.10:_Z30LinphoneImNotifPolicy_vptr_getv
liblinphone.so.10:_Z30LinphonePresenceModel_vptr_getv
liblinphone.so.10:_Z30LinphoneXmlRpcRequest_vptr_getv
liblinphone.so.10:_Z30LinphoneXmlRpcSession_vptr_getv
liblinphone.so.10:_Z30__linphone_friend_do_subscribeP15_LinphoneFriend
liblinphone.so.10:_Z30_linphone_call_get_remote_descPK13_LinphoneCall
liblinphone.so.10:_Z30_linphone_call_get_result_descPK13_LinphoneCall
liblinphone.so.10:_Z30_linphone_core_new_with_configP16_LinphoneCoreCbsP9_LpConfigPvS3_hh
liblinphone.so.10:_Z30linphone_config_remove_sectionP9_LpConfigP10_LpSection
liblinphone.so.10:_Z30linphone_core_set_srtp_enabledP13_LinphoneCoreh
liblinphone.so.10:_Z30linphone_proxy_config_set_etagP20_LinphoneProxyConfigPKc
liblinphone.so.10:_Z31LinphoneAccountCreator_vptr_getv
liblinphone.so.10:_Z31LinphoneChatMessageCbs_vptr_getv
liblinphone.so.10:_Z31LinphoneLoggingService_vptr_getv
liblinphone.so.10:_Z31LinphoneMagicSearchCbs_vptr_getv
liblinphone.so.10:_Z31LinphonePresencePerson_vptr_getv
liblinphone.so.10:_Z31linphone_contact_search_comparePKvS0_
liblinphone.so.10:_Z31linphone_error_info_get_detailsPK18_LinphoneErrorInfo
liblinphone.so.10:_Z32LinphoneContactProvider_vptr_getv
liblinphone.so.10:_Z32LinphonePresenceService_vptr_getv
liblinphone.so.10:_Z32LinphoneVideoDefinition_vptr_getv
liblinphone.so.10:_Z32linphone_core_zrtp_cache_db_initP13_LinphoneCorePKc
liblinphone.so.10:_Z33LinphonePresenceActivity_vptr_getv
liblinphone.so.10:_Z33LinphoneXmlRpcRequestCbs_vptr_getv
liblinphone.so.10:_Z33linphone_config_add_section_paramP10_LpSectionP15_LpSectionParam
liblinphone.so.10:_Z33linphone_content_get_authTag_sizePK16_LinphoneContent
liblinphone.so.10:_Z33linphone_error_info_fields_to_salPK18_LinphoneErrorInfoP12SalErrorInfo
liblinphone.so.10:_Z34LinphoneAccountCreatorCbs_vptr_getv
liblinphone.so.10:_Z34LinphoneLoggingServiceCbs_vptr_getv
liblinphone.so.10:_Z34_linphone_video_definition_marshalPK24_LinphoneVideoDefinitionPcmPm
liblinphone.so.10:_Z34linphone_call_get_refer_to_addressPK13_LinphoneCall
liblinphone.so.10:_Z34linphone_factory_create_dictionaryP16_LinphoneFactory
liblinphone.so.10:_Z34sdp_parse_media_rtcp_xr_parametersPK28_belle_sdp_media_descriptionP23OrtpRtcpXrConfiguration
liblinphone.so.10:_Z35LinphoneImEncryptionEngine_vptr_getv
liblinphone.so.10:_Z35_linphone_ParticipantImdnState_initv
liblinphone.so.10:_Z35linphone_core_get_device_identifierPK13_LinphoneCore
liblinphone.so.10:_Z35linphone_core_set_device_identifierP13_LinphoneCorePKc
liblinphone.so.10:_Z35linphone_subscription_dir_to_string24_LinphoneSubscriptionDir
liblinphone.so.10:_Z35linphone_tunnel_auto_detect_enabledP15_LinphoneTunnel
liblinphone.so.10:_Z36linphone_call_params_new_for_wrapperv
liblinphone.so.10:_Z36sdp_parse_session_rtcp_xr_parametersPK30_belle_sdp_session_descriptionP23OrtpRtcpXrConfiguration
liblinphone.so.10:_Z37LinphoneParticipantImdnState_vptr_getv
liblinphone.so.10:_Z37linphone_friend_set_current_callbacksP15_LinphoneFriendP18_LinphoneFriendCbs
liblinphone.so.10:_Z38LinphoneAccountCreatorService_vptr_getv
liblinphone.so.10:_Z38LinphoneImEncryptionEngineCbs_vptr_getv
liblinphone.so.10:_Z38LinphoneVideoActivationPolicy_vptr_getv
liblinphone.so.10:_Z38linphone_core_remove_dependent_accountP13_LinphoneCoreP16_LinphoneAccount
liblinphone.so.10:_Z38linphone_error_info_from_sal_reason_eiP18_LinphoneErrorInfoPK12SalErrorInfo
liblinphone.so.10:_Z38linphone_proxy_config_normalize_numberP20_LinphoneProxyConfigPKcPcm
liblinphone.so.10:_Z38linphone_push_notification_message_newPKchS0_S0_S0_S0_S0_S0_hhhh
liblinphone.so.10:_Z40linphone_presence_service_add_capabilityP24_LinphonePresenceServicePKcS2_
liblinphone.so.10:_Z41linphone_logging_service_release_instancev
liblinphone.so.10:_Z41linphone_remote_provisioning_split_headerPKc
liblinphone.so.10:_Z42linphone_core_set_input_audio_device_by_idP13_LinphoneCorePKc
liblinphone.so.10:_Z42linphone_core_sound_resources_need_lockingP13_LinphoneCorePK19_LinphoneCallParams
liblinphone.so.10:_Z43linphone_conference_params_get_utf8_subjectPK25_LinphoneConferenceParams
liblinphone.so.10:_Z43linphone_conference_params_set_utf8_subjectP25_LinphoneConferenceParamsPKc
liblinphone.so.10:_Z43linphone_core_set_output_audio_device_by_idP13_LinphoneCorePKc
liblinphone.so.10:_Z43linphone_magic_search_set_current_callbacksP20_LinphoneMagicSearchP23_LinphoneMagicSearchCbs
liblinphone.so.10:_Z44linphone_core_cbs_get_rpublish_state_changedP16_LinphoneCoreCbs
liblinphone.so.10:_Z46linphone_core_cbs_get_reaction_removed_privateP16_LinphoneCoreCbs
liblinphone.so.10:_Z48linphone_presence_service_get_capability_versionPK24_LinphonePresenceService25_LinphoneFriendCapability
liblinphone.so.10:_Z49linphone_account_creator_cbs_get_confirmation_keyPK26_LinphoneAccountCreatorCbs
liblinphone.so.10:_Z52linphone_account_creator_service_confirmation_key_cbPK30_LinphoneAccountCreatorService
liblinphone.so.10:_Z53linphone_core_cbs_log_collection_upload_state_changedP16_LinphoneCoreCbs
liblinphone.so.10:_Z53linphone_presence_service_has_capability_with_versionPK24_LinphonePresenceService25_LinphoneFriendCapabilityf
liblinphone.so.10:_Z59linphone_core_generate_srtp_crypto_suites_array_from_stringP13_LinphoneCorePKc
liblinphone.so.10:_Z61linphone_presence_service_has_capability_with_version_or_morePK24_LinphonePresenceService25_LinphoneFriendCapabilityf
liblinphone.so.10:_Z64linphone_core_cbs_get_rlog_collection_upload_progress_indicationP16_LinphoneCoreCbs
liblinphone.so.10:_Z7is_enumPKcPPc
liblinphone.so.10:_ZN10namespace_11Lang_member25_xsd_Lang_member_indexes_E
liblinphone.so.10:_ZN10namespace_11Lang_member26_xsd_Lang_member_literals_E
liblinphone.so.10:_ZN10namespace_11Lang_memberC1ENS0_5ValueE
liblinphone.so.10:_ZN10namespace_11Lang_memberC1EPKc
liblinphone.so.10:_ZN10namespace_11Lang_memberC1ERKN11xercesc_3_110DOMElementEN3xsd3cxx4tree5flagsEPNS7_5_typeE
liblinphone.so.10:_ZN10namespace_11Lang_memberC1ERKN11xercesc_3_17DOMAttrEN3xsd3cxx4tree5flagsEPNS7_5_typeE
liblinphone.so.10:_ZN10namespace_11Lang_memberC1ERKN3xsd3cxx4tree6stringIcNS3_11simple_typeIcNS3_5_typeEEEEE
liblinphone.so.10:_ZN10namespace_11Lang_memberC1ERKNSt7__cxx1112basic_stringIcSt11char_traitsIcESaIcEEE
liblinphone.so.10:_ZN10namespace_11Lang_memberC1ERKNSt7__cxx1112basic_stringIcSt11char_traitsIcESaIcEEEPKN11xercesc_3_110DOMElementEN3xsd3cxx4tree5flagsEPNSF_5_typeE
liblinphone.so.10:_ZN10namespace_11Lang_memberC1ERKS0_N3xsd3cxx4tree5flagsEPNS5_5_typeE
liblinphone.so.10:_ZN10namespace_11Lang_memberC2ENS0_5ValueE
liblinphone.so.10:_ZN10namespace_11Lang_memberC2EPKc
liblinphone.so.10:_ZN10namespace_11Lang_memberC2ERKN11xercesc_3_110DOMElementEN3xsd3cxx4tree5flagsEPNS7_5_typeE
liblinphone.so.10:_ZN10namespace_11Lang_memberC2ERKN11xercesc_3_17DOMAttrEN3xsd3cxx4tree5flagsEPNS7_5_typeE
liblinphone.so.10:_ZN10namespace_11Lang_memberC2ERKN3xsd3cxx4tree6stringIcNS3_11simple_typeIcNS3_5_typeEEEEE
liblinphone.so.10:_ZN10namespace_11Lang_memberC2ERKNSt7__cxx1112basic_stringIcSt11char_traitsIcESaIcEEE
liblinphone.so.10:_ZN10namespace_11Lang_memberC2ERKNSt7__cxx1112basic_stringIcSt11char_traitsIcESaIcEEEPKN11xercesc_3_110DOMElementEN3xsd3cxx4tree5flagsEPNSF_5_typeE
liblinphone.so.10:_ZN10namespace_11Lang_memberC2ERKS0_N3xsd3cxx4tree5flagsEPNS5_5_typeE
liblinphone.so.10:_ZN10namespace_11Lang_memberaSENS0_5ValueE
liblinphone.so.10:_ZN10namespace_4LangC1EPKc
liblinphone.so.10:_ZN10namespace_4LangC1ERKN11xercesc_3_110DOMElementEN3xsd3cxx4tree5flagsEPNS7_5_typeE
liblinphone.so.10:_ZN10namespace_4LangC1ERKN11xercesc_3_17DOMAttrEN3xsd3cxx4tree5flagsEPNS7_5_typeE
liblinphone.so.10:_ZN10namespace_4LangC1ERKNSt7__cxx1112basic_stringIcSt11char_traitsIcESaIcEEE
liblinphone.so.10:_ZN10namespace_4LangC1ERKNSt7__cxx1112basic_stringIcSt11char_traitsIcESaIcEEEPKN11xercesc_3_110DOMElementEN3xsd3cxx4tree5flagsEPNSF_5_typeE
liblinphone.so.10:_ZN10namespace_4LangC1ERKS0_N3xsd3cxx4tree5flagsEPNS5_5_typeE
liblinphone.so.10:_ZN10namespace_4LangC2EPKc
liblinphone.so.10:_ZN10namespace_4LangC2ERKN11xercesc_3_110DOMElementEN3xsd3cxx4tree5flagsEPNS7_5_typeE
liblinphone.so.10:_ZN10namespace_4LangC2ERKN11xercesc_3_17DOMAttrEN3xsd3cxx4tree5flagsEPNS7_5_typeE
liblinphone.so.10:_ZN10namespace_4LangC2ERKNSt7__cxx1112basic_stringIcSt11char_traitsIcESaIcEEE
liblinphone.so.10:_ZN10namespace_4LangC2ERKNSt7__cxx1112basic_stringIcSt11char_traitsIcESaIcEEEPKN11xercesc_3_110DOMElementEN3xsd3cxx4tree5flagsEPNSF_5_typeE
liblinphone.so.10:_ZN10namespace_4LangC2ERKS0_N3xsd3cxx4tree5flagsEPNS5_5_typeE
liblinphone.so.10:_ZN10namespace_5Space19_xsd_Space_indexes_E
liblinphone.so.10:_ZN10namespace_5Space20_xsd_Space_literals_E
liblinphone.so.10:_ZN10namespace_5SpaceC1ENS0_5ValueE
liblinphone.so.10:_ZN10namespace_5SpaceC1EPKc
liblinphone.so.10:_ZN10namespace_5SpaceC1ERKN11xercesc_3_110DOMElementEN3xsd3cxx4tree5flagsEPNS7_5_typeE
liblinphone.so.10:_ZN10namespace_5SpaceC1ERKN11xercesc_3_17DOMAttrEN3xsd3cxx4tree5flagsEPNS7_5_typeE
liblinphone.so.10:_ZN10namespace_5SpaceC1ERKN3xsd3cxx4tree6ncnameIcNS3_4nameIcNS3_5tokenIcNS3_17normalized_stringIcNS3_6stringIcNS3_11simple_typeIcNS3_5_typeEEEEEEEEEEEEE
liblinphone.so.10:_ZN10namespace_5SpaceC1ERKNSt7__cxx1112basic_stringIcSt11char_traitsIcESaIcEEE
liblinphone.so.10:_ZN10namespace_5SpaceC1ERKNSt7__cxx1112basic_stringIcSt11char_traitsIcESaIcEEEPKN11xercesc_3_110DOMElementEN3xsd3cxx4tree5flagsEPNSF_5_typeE
liblinphone.so.10:_ZN10namespace_5SpaceC1ERKS0_N3xsd3cxx4tree5flagsEPNS5_5_typeE
liblinphone.so.10:_ZN10namespace_5SpaceC2ENS0_5ValueE
liblinphone.so.10:_ZN10namespace_5SpaceC2EPKc
liblinphone.so.10:_ZN10namespace_5SpaceC2ERKN11xercesc_3_110DOMElementEN3xsd3cxx4tree5flagsEPNS7_5_typeE
liblinphone.so.10:_ZN10namespace_5SpaceC2ERKN11xercesc_3_17DOMAttrEN3xsd3cxx4tree5flagsEPNS7_5_typeE
liblinphone.so.10:_ZN10namespace_5SpaceC2ERKN3xsd3cxx4tree6ncnameIcNS3_4nameIcNS3_5tokenIcNS3_17normalized_stringIcNS3_6stringIcNS3_11simple_typeIcNS3_5_typeEEEEEEEEEEEEE
liblinphone.so.10:_ZN10namespace_5SpaceC2ERKNSt7__cxx1112basic_stringIcSt11char_traitsIcESaIcEEE
liblinphone.so.10:_ZN10namespace_5SpaceC2ERKNSt7__cxx1112basic_stringIcSt11char_traitsIcESaIcEEEPKN11xercesc_3_110DOMElementEN3xsd3cxx4tree5flagsEPNSF_5_typeE
liblinphone.so.10:_ZN10namespace_5SpaceC2ERKS0_N3xsd3cxx4tree5flagsEPNS5_5_typeE
liblinphone.so.10:_ZN10namespace_5SpaceaSENS0_5ValueE
liblinphone.so.10:_ZN10namespace_lsERN11xercesc_3_110DOMElementERKNS_11Lang_memberE
liblinphone.so.10:_ZN10namespace_lsERN11xercesc_3_110DOMElementERKNS_4LangE
liblinphone.so.10:_ZN10namespace_lsERN11xercesc_3_110DOMElementERKNS_5SpaceE
liblinphone.so.10:_ZN10namespace_lsERN11xercesc_3_17DOMAttrERKNS_11Lang_memberE
liblinphone.so.10:_ZN10namespace_lsERN11xercesc_3_17DOMAttrERKNS_4LangE
liblinphone.so.10:_ZN10namespace_lsERN11xercesc_3_17DOMAttrERKNS_5SpaceE
liblinphone.so.10:_ZN10namespace_lsERN3xsd3cxx4tree11list_streamIcEERKNS_11Lang_memberE
liblinphone.so.10:_ZN10namespace_lsERN3xsd3cxx4tree11list_streamIcEERKNS_4LangE
liblinphone.so.10:_ZN10namespace_lsERN3xsd3cxx4tree11list_streamIcEERKNS_5SpaceE
liblinphone.so.10:_ZN10namespace_lsERSoNS_11Lang_member5ValueE
liblinphone.so.10:_ZN10namespace_lsERSoNS_5Space5ValueE
liblinphone.so.10:_ZN10namespace_lsERSoRKNS_11Lang_memberE
liblinphone.so.10:_ZN10namespace_lsERSoRKNS_4LangE
liblinphone.so.10:_ZN10namespace_lsERSoRKNS_5SpaceE
liblinphone.so.10:_ZN15LinphonePrivate10AbstractDb10disconnectEv
liblinphone.so.10:_ZN15LinphonePrivate10AbstractDb14forceReconnectEv
liblinphone.so.10:_ZN15LinphonePrivate10AbstractDb15registerBackendENS0_7BackendE
liblinphone.so.10:_ZN15LinphonePrivate10AbstractDb4initEv
liblinphone.so.10:_ZN15LinphonePrivate10AbstractDb6importENS0_7BackendERKNSt7__cxx1112basic_stringIcSt11char_traitsIcESaIcEEE
liblinphone.so.10:_ZN15LinphonePrivate10AbstractDb7connectENS0_7BackendERKNSt7__cxx1112basic_stringIcSt11char_traitsIcESaIcEEE
liblinphone.so.10:_ZN15LinphonePrivate10AbstractDbC1ERNS_17AbstractDbPrivateE
liblinphone.so.10:_ZN15LinphonePrivate10AbstractDbC2ERNS_17AbstractDbPrivateE
liblinphone.so.10:_ZN15LinphonePrivate10AccountCbs27setRegistrationStateChangedEPFvP16_LinphoneAccount26_LinphoneRegistrationStatePKcE
liblinphone.so.10:_ZN15LinphonePrivate10AlertTimer9isTimeoutEb
liblinphone.so.10:_ZN15LinphonePrivate10AlertTimerC1Em
liblinphone.so.10:_ZN15LinphonePrivate10AlertTimerC2Em
liblinphone.so.10:_ZN15LinphonePrivate10BaseObject11setCBackPtrEPv
liblinphone.so.10:_ZN15LinphonePrivate10BaseObjectC1ERNS_17BaseObjectPrivateE
liblinphone.so.10:_ZN15LinphonePrivate10BaseObjectC2ERNS_17BaseObjectPrivateE
liblinphone.so.10:_ZN15LinphonePrivate10BaseObjectD0Ev
liblinphone.so.10:_ZN15LinphonePrivate10BaseObjectD1Ev
liblinphone.so.10:_ZN15LinphonePrivate10BaseObjectD2Ev
liblinphone.so.10:_ZN15LinphonePrivate10Conference10setSubjectERKNSt7__cxx1112basic_stringIcSt11char_traitsIcESaIcEEE
liblinphone.so.10:_ZN15LinphonePrivate10Conference11setUsernameERKNSt7__cxx1112basic_stringIcSt11char_traitsIcESaIcEEE
liblinphone.so.10:_ZN15LinphonePrivate10Conference13setLastNotifyEj
liblinphone.so.10:_ZN15LinphonePrivate10Conference14addParticipantERKSt10shared_ptrINS_15ParticipantInfoEE
liblinphone.so.10:_ZN15LinphonePrivate10Conference14addParticipantERKSt10shared_ptrINS_7AddressEE
liblinphone.so.10:_ZN15LinphonePrivate10Conference14addParticipantESt10shared_ptrINS_4CallEE
liblinphone.so.10:_ZN15LinphonePrivate10Conference14setUtf8SubjectERKNSt7__cxx1112basic_stringIcSt11char_traitsIcESaIcEEE
liblinphone.so.10:_ZN15LinphonePrivate10Conference15addParticipantsERKNSt7__cxx114listISt10shared_ptrINS_4CallEESaIS5_EEE
liblinphone.so.10:_ZN15LinphonePrivate10Conference15addParticipantsERKNSt7__cxx114listISt10shared_ptrINS_7AddressEESaIS5_EEE
liblinphone.so.10:_ZN15LinphonePrivate10Conference15notifyFullStateEv
liblinphone.so.10:_ZN15LinphonePrivate10Conference15resetLastNotifyEv
liblinphone.so.10:_ZN15LinphonePrivate10Conference15setConferenceIdERKNS_12ConferenceIdE
liblinphone.so.10:_ZN15LinphonePrivate10Conference17clearParticipantsEv
liblinphone.so.10:_ZN15LinphonePrivate10Conference17notifyMutedDeviceEjb
liblinphone.so.10:_ZN15LinphonePrivate10Conference17removeParticipantERKSt10shared_ptrINS_11ParticipantEE
liblinphone.so.10:_ZN15LinphonePrivate10Conference17updateMainSessionEv
liblinphone.so.10:_ZN15LinphonePrivate10Conference18notifyStateChangedENS_19ConferenceInterface5StateE
liblinphone.so.10:_ZN15LinphonePrivate10Conference18removeParticipantsERKNSt7__cxx114listISt10shared_ptrINS_11ParticipantEESaIS5_EEE
liblinphone.so.10:_ZN15LinphonePrivate10Conference20notifySpeakingDeviceEjb
liblinphone.so.10:_ZN15LinphonePrivate10Conference20notifySubjectChangedElbNSt7__cxx1112basic_stringIcSt11char_traitsIcESaIcEEE
liblinphone.so.10:_ZN15LinphonePrivate10Conference20setConferenceAddressERKSt10shared_ptrINS_7AddressEE
liblinphone.so.10:_ZN15LinphonePrivate10Conference21SecurityModeParameterB5cxx11E
liblinphone.so.10:_ZN15LinphonePrivate10Conference22notifyParticipantAddedElbRKSt10shared_ptrINS_11ParticipantEE
liblinphone.so.10:_ZN15LinphonePrivate10Conference23notifyLocalMutedDevicesEb
liblinphone.so.10:_ZN15LinphonePrivate10Conference24notifyParticipantRemovedElbRKSt10shared_ptrINS_11ParticipantEE
liblinphone.so.10:_ZN15LinphonePrivate10Conference24notifyParticipantSetRoleElbRKSt10shared_ptrINS_11ParticipantEENS2_4RoleE
liblinphone.so.10:_ZN15LinphonePrivate10Conference25notifyParticipantSetAdminElbRKSt10shared_ptrINS_11ParticipantEEb
liblinphone.so.10:_ZN15LinphonePrivate10Conference25setParticipantAdminStatusERKSt10shared_ptrINS_11ParticipantEEb
liblinphone.so.10:_ZN15LinphonePrivate10Conference26notifyEphemeralModeChangedElbNS_8EventLog4TypeE
liblinphone.so.10:_ZN15LinphonePrivate10Conference27notifyAvailableMediaChangedElbSt3mapINS_27ConferenceMediaCapabilitiesEbSt4lessIS2_ESaISt4pairIKS2_bEEE
liblinphone.so.10:_ZN15LinphonePrivate10Conference28notifyParticipantDeviceAddedElbRKSt10shared_ptrINS_11ParticipantEERKS1_INS_17ParticipantDeviceEE
liblinphone.so.10:_ZN15LinphonePrivate10Conference29notifyEphemeralMessageEnabledElbb
liblinphone.so.10:_ZN15LinphonePrivate10Conference30notifyEphemeralLifetimeChangedElbl
liblinphone.so.10:_ZN15LinphonePrivate10Conference30notifyParticipantDeviceRemovedElbRKSt10shared_ptrINS_11ParticipantEERKS1_INS_17ParticipantDeviceEE
liblinphone.so.10:_ZN15LinphonePrivate10Conference35notifyParticipantDeviceStateChangedElbRKSt10shared_ptrINS_11ParticipantEERKS1_INS_17ParticipantDeviceEE
liblinphone.so.10:_ZN15LinphonePrivate10Conference35setLocalParticipantStreamCapabilityERK23_LinphoneMediaDirection19_LinphoneStreamType
liblinphone.so.10:_ZN15LinphonePrivate10Conference36notifyActiveSpeakerParticipantDeviceERKSt10shared_ptrINS_17ParticipantDeviceEE
liblinphone.so.10:_ZN15LinphonePrivate10Conference45notifyParticipantDeviceMediaCapabilityChangedElbRKSt10shared_ptrINS_11ParticipantEERKS1_INS_17ParticipantDeviceEE
liblinphone.so.10:_ZN15LinphonePrivate10Conference47notifyParticipantDeviceMediaAvailabilityChangedElbRKSt10shared_ptrINS_11ParticipantEERKS1_INS_17ParticipantDeviceEE
liblinphone.so.10:_ZN15LinphonePrivate10Conference4joinERKSt10shared_ptrINS_7AddressEE
liblinphone.so.10:_ZN15LinphonePrivate10Conference4joinEv
liblinphone.so.10:_ZN15LinphonePrivate10Conference5leaveEv
liblinphone.so.10:_ZN15LinphonePrivate10Conference6updateERKNS_25ConferenceParamsInterfaceE
liblinphone.so.10:_ZN15LinphonePrivate10Conference8setStateENS_19ConferenceInterface5StateE
liblinphone.so.10:_ZN15LinphonePrivate10Conference9setLayoutENS_16ConferenceLayoutE
liblinphone.so.10:_ZN15LinphonePrivate10ConferenceC1ERKSt10shared_ptrINS_4CoreEERKS1_INS_7AddressEEPNS_19CallSessionListenerES1_INS_16ConferenceParamsEE
liblinphone.so.10:_ZN15LinphonePrivate10ConferenceC2ERKSt10shared_ptrINS_4CoreEERKS1_INS_7AddressEEPNS_19CallSessionListenerES1_INS_16ConferenceParamsEE
liblinphone.so.10:_ZN15LinphonePrivate10ConferenceD0Ev
liblinphone.so.10:_ZN15LinphonePrivate10ConferenceD1Ev
liblinphone.so.10:_ZN15LinphonePrivate10ConferenceD2Ev
liblinphone.so.10:_ZN15LinphonePrivate10Dictionary11setPropertyERKNSt7__cxx1112basic_stringIcSt11char_traitsIcESaIcEEES8_
liblinphone.so.10:_ZN15LinphonePrivate10Dictionary11setPropertyERKNSt7__cxx1112basic_stringIcSt11char_traitsIcESaIcEEEf
liblinphone.so.10:_ZN15LinphonePrivate10Dictionary11setPropertyERKNSt7__cxx1112basic_stringIcSt11char_traitsIcESaIcEEEi
liblinphone.so.10:_ZN15LinphonePrivate10Dictionary11setPropertyERKNSt7__cxx1112basic_stringIcSt11char_traitsIcESaIcEEEx
liblinphone.so.10:_ZN15LinphonePrivate10IceService11setListenerEPNS_18IceServiceListenerE
liblinphone.so.10:_ZN15LinphonePrivate10IceService12checkSessionE7IceRoleb
liblinphone.so.10:_ZN15LinphonePrivate10IceService12resetSessionEv
liblinphone.so.10:_ZN15LinphonePrivate10IceService13createStreamsERKNS_18OfferAnswerContextE
liblinphone.so.10:_ZN15LinphonePrivate10IceService13deleteSessionEv
liblinphone.so.10:_ZN15LinphonePrivate10IceService13finishPrepareEv
liblinphone.so.10:_ZN15LinphonePrivate10IceService14handleIceEventEPK4msgb
liblinphone.so.10:_ZN15LinphonePrivate10IceService14restartSessionE7IceRole
liblinphone.so.10:_ZN15LinphonePrivate10IceService16sessionConfirmedERKNS_18OfferAnswerContextE
liblinphone.so.10:_ZN15LinphonePrivate10IceService17gatheringFinishedEv
liblinphone.so.10:_ZN15LinphonePrivate10IceService19gatherIceCandidatesEv
liblinphone.so.10:_ZN15LinphonePrivate10IceService21gatherLocalCandidatesEv
liblinphone.so.10:_ZN15LinphonePrivate10IceService23chooseDefaultCandidatesERKNS_18OfferAnswerContextE
liblinphone.so.10:_ZN15LinphonePrivate10IceService24clearUnusedIceCandidatesERKSt10shared_ptrINS_19SalMediaDescriptionEES5_b
liblinphone.so.10:_ZN15LinphonePrivate10IceService24getIceDefaultAddrAndPortEtRKSt10shared_ptrINS_19SalMediaDescriptionEERKNS_20SalStreamDescriptionERNSt7__cxx1112basic_stringIcSt11char_traitsIcESaIcEEERi
liblinphone.so.10:_ZN15LinphonePrivate10IceService25fillLocalMediaDescriptionERNS_18OfferAnswerContextE
liblinphone.so.10:_ZN15LinphonePrivate10IceService25hasLocalNetworkPermissionERKNSt7__cxx114listINS1_12basic_stringIcSt11char_traitsIcESaIcEEESaIS7_EEE
liblinphone.so.10:_ZN15LinphonePrivate10IceService25hasLocalNetworkPermissionEv
liblinphone.so.10:_ZN15LinphonePrivate10IceService26iceFoundInMediaDescriptionERKSt10shared_ptrINS_19SalMediaDescriptionEE
liblinphone.so.10:_ZN15LinphonePrivate10IceService27checkLocalNetworkPermissionERKNSt7__cxx1112basic_stringIcSt11char_traitsIcESaIcEEE
liblinphone.so.10:_ZN15LinphonePrivate10IceService28addPredefinedSflrxCandidatesERKSt10shared_ptrINS_9NatPolicyEE
liblinphone.so.10:_ZN15LinphonePrivate10IceService28reinviteNeedsDeferedResponseERKSt10shared_ptrINS_19SalMediaDescriptionEE
liblinphone.so.10:_ZN15LinphonePrivate10IceService32updateFromRemoteMediaDescriptionERKSt10shared_ptrINS_19SalMediaDescriptionEES5_b
liblinphone.so.10:_ZN15LinphonePrivate10IceService33getIcePreferredStunServerAddrinfoEPK8addrinfo
liblinphone.so.10:_ZN15LinphonePrivate10IceService34updateLocalMediaDescriptionFromIceERSt10shared_ptrINS_19SalMediaDescriptionEE
liblinphone.so.10:_ZN15LinphonePrivate10IceService40createIceCheckListsAndParseIceAttributesERKSt10shared_ptrINS_19SalMediaDescriptionEEb
liblinphone.so.10:_ZN15LinphonePrivate10IceService41checkForIceRestartAndSetRemoteCredentialsERKSt10shared_ptrINS_19SalMediaDescriptionEEb
liblinphone.so.10:_ZN15LinphonePrivate10IceService4stopEv
liblinphone.so.10:_ZN15LinphonePrivate10IceService6finishEv
liblinphone.so.10:_ZN15LinphonePrivate10IceService6renderERKNS_18OfferAnswerContextENS_11CallSession5StateE
liblinphone.so.10:_ZN15LinphonePrivate10IceService7prepareEv
liblinphone.so.10:_ZN15LinphonePrivate10IceServiceC1ERNS_12StreamsGroupE
liblinphone.so.10:_ZN15LinphonePrivate10IceServiceC2ERNS_12StreamsGroupE
liblinphone.so.10:_ZN15LinphonePrivate10IceServiceD0Ev
liblinphone.so.10:_ZN15LinphonePrivate10IceServiceD1Ev
liblinphone.so.10:_ZN15LinphonePrivate10IceServiceD2Ev
liblinphone.so.10:_ZN15LinphonePrivate10LdapParams10setEnabledEb
liblinphone.so.10:_ZN15LinphonePrivate10LdapParams10setTimeoutEi
liblinphone.so.10:_ZN15LinphonePrivate10LdapParams11setMinCharsEi
liblinphone.so.10:_ZN15LinphonePrivate10LdapParams11setPasswordERKNSt7__cxx1112basic_stringIcSt11char_traitsIcESaIcEEE
liblinphone.so.10:_ZN15LinphonePrivate10LdapParams12setSipDomainERKNSt7__cxx1112basic_stringIcSt11char_traitsIcESaIcEEE
liblinphone.so.10:_ZN15LinphonePrivate10LdapParams13setAuthMethodE23_LinphoneLdapAuthMethod
liblinphone.so.10:_ZN15LinphonePrivate10LdapParams13setBaseObjectERKNSt7__cxx1112basic_stringIcSt11char_traitsIcESaIcEEE
liblinphone.so.10:_ZN15LinphonePrivate10LdapParams13setDebugLevelE23_LinphoneLdapDebugLevel
liblinphone.so.10:_ZN15LinphonePrivate10LdapParams13setMaxResultsEi
liblinphone.so.10:_ZN15LinphonePrivate10LdapParams14getCustomValueERKNSt7__cxx1112basic_stringIcSt11char_traitsIcESaIcEEE
liblinphone.so.10:_ZN15LinphonePrivate10LdapParams14setCustomValueERKNSt7__cxx1112basic_stringIcSt11char_traitsIcESaIcEEES8_
liblinphone.so.10:_ZN15LinphonePrivate10LdapParams15setSipAttributeERKNSt7__cxx1112basic_stringIcSt11char_traitsIcESaIcEEE
liblinphone.so.10:_ZN15LinphonePrivate10LdapParams15setTimeoutTlsMsEi
liblinphone.so.10:_ZN15LinphonePrivate10LdapParams16setNameAttributeERKNSt7__cxx1112basic_stringIcSt11char_traitsIcESaIcEEE
liblinphone.so.10:_ZN15LinphonePrivate10LdapParams17writeToConfigFileEP9_LpConfigRKNSt7__cxx1112basic_stringIcSt11char_traitsIcESaIcEEE
liblinphone.so.10:_ZN15LinphonePrivate10LdapParams37setServerCertificatesVerificationModeE33_LinphoneLdapCertVerificationMode
liblinphone.so.10:_ZN15LinphonePrivate10LdapParams8setDelayEi
liblinphone.so.10:_ZN15LinphonePrivate10LdapParams9enableSalEb
liblinphone.so.10:_ZN15LinphonePrivate10LdapParams9enableTlsEb
liblinphone.so.10:_ZN15LinphonePrivate10LdapParams9setBindDnERKNSt7__cxx1112basic_stringIcSt11char_traitsIcESaIcEEE
liblinphone.so.10:_ZN15LinphonePrivate10LdapParams9setFilterERKNSt7__cxx1112basic_stringIcSt11char_traitsIcESaIcEEE
liblinphone.so.10:_ZN15LinphonePrivate10LdapParams9setServerERKNSt7__cxx1112basic_stringIcSt11char_traitsIcESaIcEEE
liblinphone.so.10:_ZN15LinphonePrivate10LdapParamsC1EP9_LpConfigRKNSt7__cxx1112basic_stringIcSt11char_traitsIcESaIcEEE
liblinphone.so.10:_ZN15LinphonePrivate10LdapParamsC1ERKS0_
liblinphone.so.10:_ZN15LinphonePrivate10LdapParamsC1Ev
liblinphone.so.10:_ZN15LinphonePrivate10LdapParamsC2EP9_LpConfigRKNSt7__cxx1112basic_stringIcSt11char_traitsIcESaIcEEE
liblinphone.so.10:_ZN15LinphonePrivate10LdapParamsC2ERKS0_
liblinphone.so.10:_ZN15LinphonePrivate10LdapParamsC2Ev
liblinphone.so.10:_ZN15LinphonePrivate10LdapParamsD0Ev
liblinphone.so.10:_ZN15LinphonePrivate10LdapParamsD1Ev
liblinphone.so.10:_ZN15LinphonePrivate10LdapParamsD2Ev
liblinphone.so.10:_ZN15LinphonePrivate10SalReferOp12processErrorEv
liblinphone.so.10:_ZN15LinphonePrivate10SalReferOp13fillCallbacksEv
liblinphone.so.10:_ZN15LinphonePrivate10SalReferOp16processIoErrorCbEPvPK24belle_sip_io_error_event
liblinphone.so.10:_ZN15LinphonePrivate10SalReferOp16processTimeoutCbEPvPK23belle_sip_timeout_event
liblinphone.so.10:_ZN15LinphonePrivate10SalReferOp21processRequestEventCbEPvPK23belle_sip_request_event
liblinphone.so.10:_ZN15LinphonePrivate10SalReferOp22processResponseEventCbEPvPK24belle_sip_response_event
liblinphone.so.10:_ZN15LinphonePrivate10SalReferOp5replyE9SalReason
liblinphone.so.10:_ZN15LinphonePrivate10SalReferOp9sendReferEPK10SalAddress
liblinphone.so.10:_ZN15LinphonePrivate10SalReferOpC1EPNS_3SalE
liblinphone.so.10:_ZN15LinphonePrivate10SalReferOpC2EPNS_3SalE
liblinphone.so.10:_ZN15LinphonePrivate10Statements3getENS0_6InsertENS_10AbstractDb7BackendE
liblinphone.so.10:_ZN15LinphonePrivate10Statements3getENS0_6SelectE
liblinphone.so.10:_ZN15LinphonePrivate10StunClient15sendStunRequestEiPK8sockaddrjib
liblinphone.so.10:_ZN15LinphonePrivate10StunClient16createStunSocketEi
liblinphone.so.10:_ZN15LinphonePrivate10StunClient16recvStunResponseEiRNS0_9CandidateERi
liblinphone.so.10:_ZN15LinphonePrivate10StunClient3runEiii
liblinphone.so.10:_ZN15LinphonePrivate11AudioDeviceC1EP10_MSSndCard
liblinphone.so.10:_ZN15LinphonePrivate11AudioDeviceC2EP10_MSSndCard
liblinphone.so.10:_ZN15LinphonePrivate11AudioDeviceD0Ev
liblinphone.so.10:_ZN15LinphonePrivate11AudioDeviceD1Ev
liblinphone.so.10:_ZN15LinphonePrivate11AudioDeviceD2Ev
liblinphone.so.10:_ZN15LinphonePrivate11CallSession11deferUpdateEv
liblinphone.so.10:_ZN15LinphonePrivate11CallSession11setListenerEPNS_19CallSessionListenerE
liblinphone.so.10:_ZN15LinphonePrivate11CallSession11startInviteERKSt10shared_ptrINS_7AddressEERKNSt7__cxx1112basic_stringIcSt11char_traitsIcESaIcEEES1_IKNS_7ContentEE
liblinphone.so.10:_ZN15LinphonePrivate11CallSession12acceptUpdateEPKNS_17CallSessionParamsE
liblinphone.so.10:_ZN15LinphonePrivate11CallSession12isEarlyStateENS0_5StateE
liblinphone.so.10:_ZN15LinphonePrivate11CallSession13acceptDefaultEv
liblinphone.so.10:_ZN15LinphonePrivate11CallSession13assignAccountERKSt10shared_ptrINS_7AccountEE
liblinphone.so.10:_ZN15LinphonePrivate11CallSession14isOpConfiguredEv
liblinphone.so.10:_ZN15LinphonePrivate11CallSession15getRemoteParamsEv
liblinphone.so.10:_ZN15LinphonePrivate11CallSession15setStateToEndedEv
liblinphone.so.10:_ZN15LinphonePrivate11CallSession16addPendingActionESt8functionIFivEE
liblinphone.so.10:_ZN15LinphonePrivate11CallSession16initiateIncomingEv
liblinphone.so.10:_ZN15LinphonePrivate11CallSession16initiateOutgoingERKNSt7__cxx1112basic_stringIcSt11char_traitsIcESaIcEEESt10shared_ptrIKNS_7ContentEE
liblinphone.so.10:_ZN15LinphonePrivate11CallSession17predefinedSubjectB5cxx11E
liblinphone.so.10:_ZN15LinphonePrivate11CallSession18declineNotAnsweredE15_LinphoneReason
liblinphone.so.10:_ZN15LinphonePrivate11CallSession18hasTransferPendingEv
liblinphone.so.10:_ZN15LinphonePrivate11CallSession19isPredefinedSubjectERKNSt7__cxx1112basic_stringIcSt11char_traitsIcESaIcEEE
liblinphone.so.10:_ZN15LinphonePrivate11CallSession24updateContactAddressInOpEv
liblinphone.so.10:_ZN15LinphonePrivate11CallSession25startIncomingNotificationEb
liblinphone.so.10:_ZN15LinphonePrivate11CallSession29startPushIncomingNotificationEv
liblinphone.so.10:_ZN15LinphonePrivate11CallSession30startBasicIncomingNotificationEb
liblinphone.so.10:_ZN15LinphonePrivate11CallSession6acceptEPKNS_17CallSessionParamsE
liblinphone.so.10:_ZN15LinphonePrivate11CallSession6updateEPKNS_17CallSessionParamsENS0_12UpdateMethodERKNSt7__cxx1112basic_stringIcSt11char_traitsIcESaIcEEESt10shared_ptrINS_7ContentEE
liblinphone.so.10:_ZN15LinphonePrivate11CallSession7declineE15_LinphoneReason
liblinphone.so.10:_ZN15LinphonePrivate11CallSession7declineEPK18_LinphoneErrorInfo
liblinphone.so.10:_ZN15LinphonePrivate11CallSession7iterateElb
liblinphone.so.10:_ZN15LinphonePrivate11CallSession8redirectERKNS_7AddressE
liblinphone.so.10:_ZN15LinphonePrivate11CallSession8redirectERKNSt7__cxx1112basic_stringIcSt11char_traitsIcESaIcEEE
liblinphone.so.10:_ZN15LinphonePrivate11CallSession8transferERKNSt7__cxx1112basic_stringIcSt11char_traitsIcESaIcEEE
liblinphone.so.10:_ZN15LinphonePrivate11CallSession8transferERKSt10shared_ptrINS_7AddressEE
liblinphone.so.10:_ZN15LinphonePrivate11CallSession8transferERKSt10shared_ptrIS0_E
liblinphone.so.10:_ZN15LinphonePrivate11CallSession9acceptingEv
liblinphone.so.10:_ZN15LinphonePrivate11CallSession9configureE16_LinphoneCallDirRKNSt7__cxx1112basic_stringIcSt11char_traitsIcESaIcEEE
liblinphone.so.10:_ZN15LinphonePrivate11CallSession9configureE16_LinphoneCallDirRKSt10shared_ptrINS_7AccountEEPNS_9SalCallOpERKS2_IKNS_7AddressEESD_
liblinphone.so.10:_ZN15LinphonePrivate11CallSession9terminateEPK18_LinphoneErrorInfo
liblinphone.so.10:_ZN15LinphonePrivate11CallSessionC1ERKSt10shared_ptrINS_4CoreEEPKNS_17CallSessionParamsEPNS_19CallSessionListenerE
liblinphone.so.10:_ZN15LinphonePrivate11CallSessionC1ERNS_18CallSessionPrivateERKSt10shared_ptrINS_4CoreEE
liblinphone.so.10:_ZN15LinphonePrivate11CallSessionC2ERKSt10shared_ptrINS_4CoreEEPKNS_17CallSessionParamsEPNS_19CallSessionListenerE
liblinphone.so.10:_ZN15LinphonePrivate11CallSessionC2ERNS_18CallSessionPrivateERKSt10shared_ptrINS_4CoreEE
liblinphone.so.10:_ZN15LinphonePrivate11CallSessionD0Ev
liblinphone.so.10:_ZN15LinphonePrivate11CallSessionD1Ev
liblinphone.so.10:_ZN15LinphonePrivate11CallSessionD2Ev
liblinphone.so.10:_ZN15LinphonePrivate11ChatMessage10addContentESt10shared_ptrINS_7ContentEE
liblinphone.so.10:_ZN15LinphonePrivate11ChatMessage11addListenerESt10shared_ptrINS_19ChatMessageListenerEE
liblinphone.so.10:_ZN15LinphonePrivate11ChatMessage12downloadFileESt10shared_ptrINS_19FileTransferContentEE
liblinphone.so.10:_ZN15LinphonePrivate11ChatMessage12putCharacterEj
liblinphone.so.10:_ZN15LinphonePrivate11ChatMessage12setIsSecuredEb
liblinphone.so.10:_ZN15LinphonePrivate11ChatMessage13removeContentESt10shared_ptrINS_7ContentEE
liblinphone.so.10:_ZN15LinphonePrivate11ChatMessage13setToBeStoredEb
liblinphone.so.10:_ZN15LinphonePrivate11ChatMessage14removeListenerESt10shared_ptrINS_19ChatMessageListenerEE
liblinphone.so.10:_ZN15LinphonePrivate11ChatMessage18cancelFileTransferEv
liblinphone.so.10:_ZN15LinphonePrivate11ChatMessage18setInternalContentERKNS_7ContentE
liblinphone.so.10:_ZN15LinphonePrivate11ChatMessage26deleteChatMessageFromCacheEv
liblinphone.so.10:_ZN15LinphonePrivate11ChatMessage27fileUploadEndBackgroundTaskEv
liblinphone.so.10:_ZN15LinphonePrivate11ChatMessage4sendEv
liblinphone.so.10:_ZN15LinphonePrivate11ChatMessageC1ERKSt10shared_ptrINS_16AbstractChatRoomEENS0_9DirectionE
liblinphone.so.10:_ZN15LinphonePrivate11ChatMessageC1ERNS_18ChatMessagePrivateE
liblinphone.so.10:_ZN15LinphonePrivate11ChatMessageC2ERKSt10shared_ptrINS_16AbstractChatRoomEENS0_9DirectionE
liblinphone.so.10:_ZN15LinphonePrivate11ChatMessageC2ERNS_18ChatMessagePrivateE
liblinphone.so.10:_ZN15LinphonePrivate11ChatMessageD0Ev
liblinphone.so.10:_ZN15LinphonePrivate11ChatMessageD1Ev
liblinphone.so.10:_ZN15LinphonePrivate11ChatMessageD2Ev
liblinphone.so.10:_ZN15LinphonePrivate11ContentType10setSubTypeERKNSt7__cxx1112basic_stringIcSt11char_traitsIcESaIcEEE
liblinphone.so.10:_ZN15LinphonePrivate11ContentType11OctetStreamE
liblinphone.so.10:_ZN15LinphonePrivate11ContentType12ExternalBodyE
liblinphone.so.10:_ZN15LinphonePrivate11ContentType12FileTransferE
liblinphone.so.10:_ZN15LinphonePrivate11ContentType13ImIsComposingE
liblinphone.so.10:_ZN15LinphonePrivate11ContentType13ResourceListsE
liblinphone.so.10:_ZN15LinphonePrivate11ContentType14ConferenceInfoE
liblinphone.so.10:_ZN15LinphonePrivate11ContentType14VoiceRecordingE
liblinphone.so.10:_ZN15LinphonePrivate11ContentType3SdpE
liblinphone.so.10:_ZN15LinphonePrivate11ContentType4CpimE
liblinphone.so.10:_ZN15LinphonePrivate11ContentType4ImdnE
