libQt6ShaderTools.so.6:Qt_6
libQt6ShaderTools.so.6:Qt_6.0
libQt6ShaderTools.so.6:Qt_6.1
libQt6ShaderTools.so.6:Qt_6.2
libQt6ShaderTools.so.6:Qt_6.3
libQt6ShaderTools.so.6:Qt_6.4
libQt6ShaderTools.so.6:Qt_6.5
libQt6ShaderTools.so.6:Qt_6_PRIVATE_API
libQt6ShaderTools.so.6:_ZN12QShaderBaker11setPreambleERK10QByteArray
libQt6ShaderTools.so.6:_ZN12QShaderBaker15setSourceDeviceEP9QIODeviceN7QShader5StageERK7QString
libQt6ShaderTools.so.6:_ZN12QShaderBaker15setSourceStringERK10QByteArrayN7QShader5StageERK7QString
libQt6ShaderTools.so.6:_ZN12QShaderBaker15setSpirvOptionsE6QFlagsINS_11SpirvOptionEE
libQt6ShaderTools.so.6:_ZN12QShaderBaker17setSourceFileNameERK7QString
libQt6ShaderTools.so.6:_ZN12QShaderBaker17setSourceFileNameERK7QStringN7QShader5StageE
libQt6ShaderTools.so.6:_ZN12QShaderBaker19setGeneratedShadersERK5QListISt4pairIN7QShader6SourceE14QShaderVersionEE
libQt6ShaderTools.so.6:_ZN12QShaderBaker19setTessellationModeEN18QShaderDescription16TessellationModeE
libQt6ShaderTools.so.6:_ZN12QShaderBaker23setPerTargetCompilationEb
libQt6ShaderTools.so.6:_ZN12QShaderBaker26setGeneratedShaderVariantsERK5QListIN7QShader7VariantEE
libQt6ShaderTools.so.6:_ZN12QShaderBaker32setBreakOnShaderTranslationErrorEb
libQt6ShaderTools.so.6:_ZN12QShaderBaker32setTessellationOutputVertexCountEi
libQt6ShaderTools.so.6:_ZN12QShaderBaker42setBatchableVertexShaderExtraInputLocationEi
libQt6ShaderTools.so.6:_ZN12QShaderBaker4bakeEv
libQt6ShaderTools.so.6:_ZN12QShaderBakerC1Ev
libQt6ShaderTools.so.6:_ZN12QShaderBakerC2Ev
libQt6ShaderTools.so.6:_ZN12QShaderBakerD1Ev
libQt6ShaderTools.so.6:_ZN12QShaderBakerD2Ev
libQt6ShaderTools.so.6:_ZN12QSpirvShader14setSpirvBinaryERK10QByteArrayN7QShader5StageE
libQt6ShaderTools.so.6:_ZN12QSpirvShaderC1Ev
libQt6ShaderTools.so.6:_ZN12QSpirvShaderC2Ev
libQt6ShaderTools.so.6:_ZN12QSpirvShaderD1Ev
libQt6ShaderTools.so.6:_ZN12QSpirvShaderD2Ev
libQt6ShaderTools.so.6:_ZN14QSpirvCompiler11setPreambleERK10QByteArray
libQt6ShaderTools.so.6:_ZN14QSpirvCompiler14compileToSpirvEv
libQt6ShaderTools.so.6:_ZN14QSpirvCompiler15setSourceDeviceEP9QIODeviceN7QShader5StageERK7QString
libQt6ShaderTools.so.6:_ZN14QSpirvCompiler15setSourceStringERK10QByteArrayN7QShader5StageERK7QString
libQt6ShaderTools.so.6:_ZN14QSpirvCompiler17setSourceFileNameERK7QString
libQt6ShaderTools.so.6:_ZN14QSpirvCompiler17setSourceFileNameERK7QStringN7QShader5StageE
libQt6ShaderTools.so.6:_ZN14QSpirvCompiler32setSGBatchingVertexInputLocationEi
libQt6ShaderTools.so.6:_ZN14QSpirvCompiler8setFlagsE6QFlagsINS_4FlagEE
libQt6ShaderTools.so.6:_ZN14QSpirvCompilerC1Ev
libQt6ShaderTools.so.6:_ZN14QSpirvCompilerC2Ev
libQt6ShaderTools.so.6:_ZN14QSpirvCompilerD1Ev
libQt6ShaderTools.so.6:_ZN14QSpirvCompilerD2Ev
libQt6ShaderTools.so.6:_ZN20QSpirvShaderRemapper15remapLogHandlerERKNSt7__cxx1112basic_stringIcSt11char_traitsIcESaIcEEE
libQt6ShaderTools.so.6:_ZN20QSpirvShaderRemapper17remapErrorHandlerERKNSt7__cxx1112basic_stringIcSt11char_traitsIcESaIcEEE
libQt6ShaderTools.so.6:_ZN20QSpirvShaderRemapper5remapERK10QByteArray6QFlagsIN12QSpirvShader9RemapFlagEE
libQt6ShaderTools.so.6:_ZNK12QShaderBaker12errorMessageEv
libQt6ShaderTools.so.6:_ZNK12QSpirvShader11spirvBinaryEv
libQt6ShaderTools.so.6:_ZNK12QSpirvShader14translateToMSLEi6QFlagsINS_7MslFlagEEN7QShader5StageEP4QMapIiSt4pairIiiEEPNS3_16NativeShaderInfoERKNS_16TessellationInfoE
libQt6ShaderTools.so.6:_ZNK12QSpirvShader15translateToGLSLEi6QFlagsINS_8GlslFlagEEP5QListINS_37SeparateToCombinedImageSamplerMappingEE
libQt6ShaderTools.so.6:_ZNK12QSpirvShader15translateToHLSLEiP4QMapIiSt4pairIiiEE
libQt6ShaderTools.so.6:_ZNK12QSpirvShader17shaderDescriptionEv
libQt6ShaderTools.so.6:_ZNK12QSpirvShader19remappedSpirvBinaryE6QFlagsINS_9RemapFlagEEP7QString
libQt6ShaderTools.so.6:_ZNK12QSpirvShader23translationErrorMessageEv
libQt6ShaderTools.so.6:_ZNK14QSpirvCompiler12errorMessageEv
