libsword.so.1.7.4:ExprMatch
libsword.so.1.7.4:TGZnotfound
libsword.so.1.7.4:_ZN5sword10GBFStrongs11processTextERNS_5SWBufEPKNS_5SWKeyEPKNS_8SWModuleE
libsword.so.1.7.4:_ZN5sword10GBFStrongsC1Ev
libsword.so.1.7.4:_ZN5sword10GBFStrongsC2Ev
libsword.so.1.7.4:_ZN5sword10GBFStrongsD0Ev
libsword.so.1.7.4:_ZN5sword10GBFStrongsD1Ev
libsword.so.1.7.4:_ZN5sword10GBFStrongsD2Ev
libsword.so.1.7.4:_ZN5sword10InstallMgr10remoteCopyEPNS_13InstallSourceEPKcS4_bS4_
libsword.so.1.7.4:_ZN5sword10InstallMgr12clearSourcesEv
libsword.so.1.7.4:_ZN5sword10InstallMgr12removeModuleEPNS_5SWMgrEPKc
libsword.so.1.7.4:_ZN5sword10InstallMgr13installModuleEPNS_5SWMgrEPKcS4_PNS_13InstallSourceE
libsword.so.1.7.4:_ZN5sword10InstallMgr15getModuleStatusERKNS_5SWMgrES3_
libsword.so.1.7.4:_ZN5sword10InstallMgr15isDefaultModuleEPKc
libsword.so.1.7.4:_ZN5sword10InstallMgr15readInstallConfEv
libsword.so.1.7.4:_ZN5sword10InstallMgr15saveInstallConfEv
libsword.so.1.7.4:_ZN5sword10InstallMgr18createFTPTransportEPKcPNS_14StatusReporterE
libsword.so.1.7.4:_ZN5sword10InstallMgr19createHTTPTransportEPKcPNS_14StatusReporterE
libsword.so.1.7.4:_ZN5sword10InstallMgr19refreshRemoteSourceEPNS_13InstallSourceE
libsword.so.1.7.4:_ZN5sword10InstallMgr32refreshRemoteSourceConfigurationEv
libsword.so.1.7.4:_ZN5sword10InstallMgr9terminateEv
libsword.so.1.7.4:_ZN5sword10InstallMgrC1EPKcPNS_14StatusReporterENS_5SWBufES5_
libsword.so.1.7.4:_ZN5sword10InstallMgrC2EPKcPNS_14StatusReporterENS_5SWBufES5_
libsword.so.1.7.4:_ZN5sword10InstallMgrD0Ev
libsword.so.1.7.4:_ZN5sword10InstallMgrD1Ev
libsword.so.1.7.4:_ZN5sword10InstallMgrD2Ev
libsword.so.1.7.4:_ZN5sword10Latin1UTF811processTextERNS_5SWBufEPKNS_5SWKeyEPKNS_8SWModuleE
libsword.so.1.7.4:_ZN5sword10Latin1UTF8C1Ev
libsword.so.1.7.4:_ZN5sword10Latin1UTF8C2Ev
libsword.so.1.7.4:_ZN5sword10OSISWordJS11processTextERNS_5SWBufEPKNS_5SWKeyEPKNS_8SWModuleE
libsword.so.1.7.4:_ZN5sword10OSISWordJSC1Ev
libsword.so.1.7.4:_ZN5sword10OSISWordJSC2Ev
libsword.so.1.7.4:_ZN5sword10OSISWordJSD0Ev
libsword.so.1.7.4:_ZN5sword10OSISWordJSD1Ev
libsword.so.1.7.4:_ZN5sword10OSISWordJSD2Ev
libsword.so.1.7.4:_ZN5sword10QuoteStack11handleQuoteEPcS1_RNS_5SWBufE
libsword.so.1.7.4:_ZN5sword10QuoteStack13QuoteInstance15pushStartStreamERNS_5SWBufE
libsword.so.1.7.4:_ZN5sword10QuoteStack5clearEv
libsword.so.1.7.4:_ZN5sword10QuoteStackC1Ev
libsword.so.1.7.4:_ZN5sword10QuoteStackC2Ev
libsword.so.1.7.4:_ZN5sword10QuoteStackD0Ev
libsword.so.1.7.4:_ZN5sword10QuoteStackD1Ev
libsword.so.1.7.4:_ZN5sword10QuoteStackD2Ev
libsword.so.1.7.4:_ZN5sword10RawGenBook11deleteEntryEv
libsword.so.1.7.4:_ZN5sword10RawGenBook12createModuleEPKc
libsword.so.1.7.4:_ZN5sword10RawGenBook8setEntryEPKcl
libsword.so.1.7.4:_ZN5sword10RawGenBook9linkEntryEPKNS_5SWKeyE
libsword.so.1.7.4:_ZN5sword10RawGenBookC1EPKcS2_S2_PNS_9SWDisplayEcccS2_S2_
libsword.so.1.7.4:_ZN5sword10RawGenBookC2EPKcS2_S2_PNS_9SWDisplayEcccS2_S2_
libsword.so.1.7.4:_ZN5sword10RawGenBookD0Ev
libsword.so.1.7.4:_ZN5sword10RawGenBookD1Ev
libsword.so.1.7.4:_ZN5sword10RawGenBookD2Ev
libsword.so.1.7.4:_ZN5sword10SWCompress11cycleStreamEv
libsword.so.1.7.4:_ZN5sword10SWCompress3BufEPKcPm
libsword.so.1.7.4:_ZN5sword10SWCompress4InitEv
libsword.so.1.7.4:_ZN5sword10SWCompress4zBufEPmPc
libsword.so.1.7.4:_ZN5sword10SWCompress6DecodeEv
libsword.so.1.7.4:_ZN5sword10SWCompress6EncodeEv
libsword.so.1.7.4:_ZN5sword10SWCompress8GetCharsEPcm
libsword.so.1.7.4:_ZN5sword10SWCompress9SendCharsEPcm
libsword.so.1.7.4:_ZN5sword10SWCompressC1Ev
libsword.so.1.7.4:_ZN5sword10SWCompressC2Ev
libsword.so.1.7.4:_ZN5sword10SWCompressD0Ev
libsword.so.1.7.4:_ZN5sword10SWCompressD1Ev
libsword.so.1.7.4:_ZN5sword10SWCompressD2Ev
libsword.so.1.7.4:_ZN5sword10ThMLWordJS11processTextERNS_5SWBufEPKNS_5SWKeyEPKNS_8SWModuleE
libsword.so.1.7.4:_ZN5sword10ThMLWordJSC1Ev
libsword.so.1.7.4:_ZN5sword10ThMLWordJSC2Ev
libsword.so.1.7.4:_ZN5sword10ThMLWordJSD0Ev
libsword.so.1.7.4:_ZN5sword10ThMLWordJSD1Ev
libsword.so.1.7.4:_ZN5sword10ThMLWordJSD2Ev
libsword.so.1.7.4:_ZN5sword10TreeKeyIdx10firstChildEv
libsword.so.1.7.4:_ZN5sword10TreeKeyIdx11appendChildEv
libsword.so.1.7.4:_ZN5sword10TreeKeyIdx11hasChildrenEv
libsword.so.1.7.4:_ZN5sword10TreeKeyIdx11nextSiblingEv
libsword.so.1.7.4:_ZN5sword10TreeKeyIdx11setPositionENS_11SW_POSITIONE
libsword.so.1.7.4:_ZN5sword10TreeKeyIdx11setUserDataEPKci
libsword.so.1.7.4:_ZN5sword10TreeKeyIdx12getLocalNameEv
libsword.so.1.7.4:_ZN5sword10TreeKeyIdx12insertBeforeEv
libsword.so.1.7.4:_ZN5sword10TreeKeyIdx12saveTreeNodeEPNS0_8TreeNodeE
libsword.so.1.7.4:_ZN5sword10TreeKeyIdx12setLocalNameEPKc
libsword.so.1.7.4:_ZN5sword10TreeKeyIdx15previousSiblingEv
libsword.so.1.7.4:_ZN5sword10TreeKeyIdx19saveTreeNodeOffsetsEPNS0_8TreeNodeE
libsword.so.1.7.4:_ZN5sword10TreeKeyIdx4initEv
libsword.so.1.7.4:_ZN5sword10TreeKeyIdx4rootEv
libsword.so.1.7.4:_ZN5sword10TreeKeyIdx4saveEv
libsword.so.1.7.4:_ZN5sword10TreeKeyIdx6appendEv
libsword.so.1.7.4:_ZN5sword10TreeKeyIdx6createEPKc
libsword.so.1.7.4:_ZN5sword10TreeKeyIdx6parentEv
libsword.so.1.7.4:_ZN5sword10TreeKeyIdx6removeEv
libsword.so.1.7.4:_ZN5sword10TreeKeyIdx7compareERKNS_5SWKeyE
libsword.so.1.7.4:_ZN5sword10TreeKeyIdx7setTextEPKc
libsword.so.1.7.4:_ZN5sword10TreeKeyIdx8TreeNode5clearEv
libsword.so.1.7.4:_ZN5sword10TreeKeyIdx8TreeNodeC1Ev
libsword.so.1.7.4:_ZN5sword10TreeKeyIdx8TreeNodeC2Ev
libsword.so.1.7.4:_ZN5sword10TreeKeyIdx8TreeNodeD1Ev
libsword.so.1.7.4:_ZN5sword10TreeKeyIdx8TreeNodeD2Ev
libsword.so.1.7.4:_ZN5sword10TreeKeyIdx8_compareERKS0_
libsword.so.1.7.4:_ZN5sword10TreeKeyIdx8copyFromERKNS_5SWKeyE
libsword.so.1.7.4:_ZN5sword10TreeKeyIdx8copyFromERKS0_
libsword.so.1.7.4:_ZN5sword10TreeKeyIdx8getLevelEv
libsword.so.1.7.4:_ZN5sword10TreeKeyIdx9decrementEi
libsword.so.1.7.4:_ZN5sword10TreeKeyIdx9incrementEi
libsword.so.1.7.4:_ZN5sword10TreeKeyIdx9setOffsetEm
libsword.so.1.7.4:_ZN5sword10TreeKeyIdxC1EPKci
libsword.so.1.7.4:_ZN5sword10TreeKeyIdxC1ERKS0_
libsword.so.1.7.4:_ZN5sword10TreeKeyIdxC2EPKci
libsword.so.1.7.4:_ZN5sword10TreeKeyIdxC2ERKS0_
libsword.so.1.7.4:_ZN5sword10TreeKeyIdxD0Ev
libsword.so.1.7.4:_ZN5sword10TreeKeyIdxD1Ev
libsword.so.1.7.4:_ZN5sword10TreeKeyIdxD2Ev
libsword.so.1.7.4:_ZN5sword10UTF8Latin111processTextERNS_5SWBufEPKNS_5SWKeyEPKNS_8SWModuleE
libsword.so.1.7.4:_ZN5sword10UTF8Latin1C1Ec
libsword.so.1.7.4:_ZN5sword10UTF8Latin1C2Ec
libsword.so.1.7.4:_ZN5sword10UnicodeRTF11processTextERNS_5SWBufEPKNS_5SWKeyEPKNS_8SWModuleE
libsword.so.1.7.4:_ZN5sword10UnicodeRTFC1Ev
libsword.so.1.7.4:_ZN5sword10UnicodeRTFC2Ev
libsword.so.1.7.4:_ZN5sword10XzCompress6DecodeEv
libsword.so.1.7.4:_ZN5sword10XzCompress6EncodeEv
libsword.so.1.7.4:_ZN5sword10XzCompressC1Ev
libsword.so.1.7.4:_ZN5sword10XzCompressC2Ev
libsword.so.1.7.4:_ZN5sword10XzCompressD0Ev
libsword.so.1.7.4:_ZN5sword10XzCompressD1Ev
libsword.so.1.7.4:_ZN5sword10XzCompressD2Ev
libsword.so.1.7.4:_ZN5sword11GBFHTMLHREF10MyUserDataC1EPKNS_8SWModuleEPKNS_5SWKeyE
libsword.so.1.7.4:_ZN5sword11GBFHTMLHREF10MyUserDataC2EPKNS_8SWModuleEPKNS_5SWKeyE
libsword.so.1.7.4:_ZN5sword11GBFHTMLHREF11handleTokenERNS_5SWBufEPKcPNS_19BasicFilterUserDataE
libsword.so.1.7.4:_ZN5sword11GBFHTMLHREFC1Ev
libsword.so.1.7.4:_ZN5sword11GBFHTMLHREFC2Ev
libsword.so.1.7.4:_ZN5sword11GBFHeadings11processTextERNS_5SWBufEPKNS_5SWKeyEPKNS_8SWModuleE
libsword.so.1.7.4:_ZN5sword11GBFHeadingsC1Ev
libsword.so.1.7.4:_ZN5sword11GBFHeadingsC2Ev
libsword.so.1.7.4:_ZN5sword11GBFHeadingsD0Ev
libsword.so.1.7.4:_ZN5sword11GBFHeadingsD1Ev
libsword.so.1.7.4:_ZN5sword11GBFHeadingsD2Ev
libsword.so.1.7.4:_ZN5sword11Latin1UTF1611processTextERNS_5SWBufEPKNS_5SWKeyEPKNS_8SWModuleE
libsword.so.1.7.4:_ZN5sword11Latin1UTF16C1Ev
libsword.so.1.7.4:_ZN5sword11Latin1UTF16C2Ev
libsword.so.1.7.4:_ZN5sword11OSISGlosses11processTextERNS_5SWBufEPKNS_5SWKeyEPKNS_8SWModuleE
libsword.so.1.7.4:_ZN5sword11OSISGlossesC1Ev
libsword.so.1.7.4:_ZN5sword11OSISGlossesC2Ev
libsword.so.1.7.4:_ZN5sword11OSISGlossesD0Ev
libsword.so.1.7.4:_ZN5sword11OSISGlossesD1Ev
libsword.so.1.7.4:_ZN5sword11OSISGlossesD2Ev
libsword.so.1.7.4:_ZN5sword11OSISStrongs11processTextERNS_5SWBufEPKNS_5SWKeyEPKNS_8SWModuleE
libsword.so.1.7.4:_ZN5sword11OSISStrongsC1Ev
libsword.so.1.7.4:_ZN5sword11OSISStrongsC2Ev
libsword.so.1.7.4:_ZN5sword11OSISStrongsD0Ev
libsword.so.1.7.4:_ZN5sword11OSISStrongsD1Ev
libsword.so.1.7.4:_ZN5sword11OSISStrongsD2Ev
libsword.so.1.7.4:_ZN5sword11PapyriPlain11processTextERNS_5SWBufEPKNS_5SWKeyEPKNS_8SWModuleE
libsword.so.1.7.4:_ZN5sword11PapyriPlainC1Ev
libsword.so.1.7.4:_ZN5sword11PapyriPlainC2Ev
libsword.so.1.7.4:_ZN5sword11SWFilterMgr12getParentMgrEv
libsword.so.1.7.4:_ZN5sword11SWFilterMgr12setParentMgrEPNS_5SWMgrE
libsword.so.1.7.4:_ZN5sword11SWFilterMgr13AddRawFiltersEPNS_8SWModuleERNS_19multimapwithdefaultINS_5SWBufES4_St4lessIS4_EEE
libsword.so.1.7.4:_ZN5sword11SWFilterMgr15AddLocalOptionsEPNS_8SWModuleERNS_19multimapwithdefaultINS_5SWBufES4_St4lessIS4_EEESt17_Rb_tree_iteratorISt4pairIKS4_S4_EESD_
libsword.so.1.7.4:_ZN5sword11SWFilterMgr15AddStripFiltersEPNS_8SWModuleERNS_19multimapwithdefaultINS_5SWBufES4_St4lessIS4_EEE
libsword.so.1.7.4:_ZN5sword11SWFilterMgr16AddGlobalOptionsEPNS_8SWModuleERNS_19multimapwithdefaultINS_5SWBufES4_St4lessIS4_EEESt17_Rb_tree_iteratorISt4pairIKS4_S4_EESD_
libsword.so.1.7.4:_ZN5sword11SWFilterMgr16AddRenderFiltersEPNS_8SWModuleERNS_19multimapwithdefaultINS_5SWBufES4_St4lessIS4_EEE
libsword.so.1.7.4:_ZN5sword11SWFilterMgr18AddEncodingFiltersEPNS_8SWModuleERNS_19multimapwithdefaultINS_5SWBufES4_St4lessIS4_EEE
libsword.so.1.7.4:_ZN5sword11SWFilterMgrC1Ev
libsword.so.1.7.4:_ZN5sword11SWFilterMgrC2Ev
libsword.so.1.7.4:_ZN5sword11SWFilterMgrD0Ev
libsword.so.1.7.4:_ZN5sword11SWFilterMgrD1Ev
libsword.so.1.7.4:_ZN5sword11SWFilterMgrD2Ev
libsword.so.1.7.4:_ZN5sword11TEIHTMLHREF10MyUserDataC1EPKNS_8SWModuleEPKNS_5SWKeyE
libsword.so.1.7.4:_ZN5sword11TEIHTMLHREF10MyUserDataC2EPKNS_8SWModuleEPKNS_5SWKeyE
libsword.so.1.7.4:_ZN5sword11TEIHTMLHREF11handleTokenERNS_5SWBufEPKcPNS_19BasicFilterUserDataE
libsword.so.1.7.4:_ZN5sword11TEIHTMLHREFC1Ev
libsword.so.1.7.4:_ZN5sword11TEIHTMLHREFC2Ev
libsword.so.1.7.4:_ZN5sword11ThMLStrongs11processTextERNS_5SWBufEPKNS_5SWKeyEPKNS_8SWModuleE
libsword.so.1.7.4:_ZN5sword11ThMLStrongsC1Ev
libsword.so.1.7.4:_ZN5sword11ThMLStrongsC2Ev
libsword.so.1.7.4:_ZN5sword11ThMLStrongsD0Ev
libsword.so.1.7.4:_ZN5sword11ThMLStrongsD1Ev
libsword.so.1.7.4:_ZN5sword11ThMLStrongsD2Ev
libsword.so.1.7.4:_ZN5sword11ZipCompress6DecodeEv
libsword.so.1.7.4:_ZN5sword11ZipCompress6EncodeEv
libsword.so.1.7.4:_ZN5sword11ZipCompressC1Ev
libsword.so.1.7.4:_ZN5sword11ZipCompressC2Ev
libsword.so.1.7.4:_ZN5sword11ZipCompressD0Ev
libsword.so.1.7.4:_ZN5sword11ZipCompressD1Ev
libsword.so.1.7.4:_ZN5sword11ZipCompressD2Ev
libsword.so.1.7.4:_ZN5sword11utf8ToWCharEPKc
libsword.so.1.7.4:_ZN5sword11wcharToUTF8EPKw
libsword.so.1.7.4:_ZN5sword12CipherFilter11processTextERNS_5SWBufEPKNS_5SWKeyEPKNS_8SWModuleE
libsword.so.1.7.4:_ZN5sword12CipherFilter9getCipherEv
libsword.so.1.7.4:_ZN5sword12CipherFilterC1EPKc
libsword.so.1.7.4:_ZN5sword12CipherFilterC2EPKc
libsword.so.1.7.4:_ZN5sword12CipherFilterD0Ev
libsword.so.1.7.4:_ZN5sword12CipherFilterD1Ev
libsword.so.1.7.4:_ZN5sword12CipherFilterD2Ev
libsword.so.1.7.4:_ZN5sword12EntriesBlock10getRawDataEPm
libsword.so.1.7.4:_ZN5sword12EntriesBlock11removeEntryEi
libsword.so.1.7.4:_ZN5sword12EntriesBlock12getEntrySizeEi
libsword.so.1.7.4:_ZN5sword12EntriesBlock12getMetaEntryEiPmS1_
libsword.so.1.7.4:_ZN5sword12EntriesBlock12setMetaEntryEimm
libsword.so.1.7.4:_ZN5sword12EntriesBlock8addEntryEPKc
libsword.so.1.7.4:_ZN5sword12EntriesBlock8getCountEv
libsword.so.1.7.4:_ZN5sword12EntriesBlock8getEntryEi
libsword.so.1.7.4:_ZN5sword12EntriesBlock8setCountEi
libsword.so.1.7.4:_ZN5sword12EntriesBlockC1EPKcm
libsword.so.1.7.4:_ZN5sword12EntriesBlockC1Ev
libsword.so.1.7.4:_ZN5sword12EntriesBlockC2EPKcm
libsword.so.1.7.4:_ZN5sword12EntriesBlockC2Ev
libsword.so.1.7.4:_ZN5sword12EntriesBlockD1Ev
libsword.so.1.7.4:_ZN5sword12EntriesBlockD2Ev
libsword.so.1.7.4:_ZN5sword12GBFFootnotes11processTextERNS_5SWBufEPKNS_5SWKeyEPKNS_8SWModuleE
libsword.so.1.7.4:_ZN5sword12GBFFootnotesC1Ev
libsword.so.1.7.4:_ZN5sword12GBFFootnotesC2Ev
libsword.so.1.7.4:_ZN5sword12GBFFootnotesD0Ev
libsword.so.1.7.4:_ZN5sword12GBFFootnotesD1Ev
libsword.so.1.7.4:_ZN5sword12GBFFootnotesD2Ev
libsword.so.1.7.4:_ZN5sword12LZSSCompress6DecodeEv
libsword.so.1.7.4:_ZN5sword12LZSSCompress6EncodeEv
libsword.so.1.7.4:_ZN5sword12LZSSCompress7Private10DeleteNodeEs
libsword.so.1.7.4:_ZN5sword12LZSSCompress7Private10InsertNodeEs
libsword.so.1.7.4:_ZN5sword12LZSSCompress7Private8InitTreeEv
libsword.so.1.7.4:_ZN5sword12LZSSCompressC1Ev
libsword.so.1.7.4:_ZN5sword12LZSSCompressC2Ev
libsword.so.1.7.4:_ZN5sword12LZSSCompressD0Ev
libsword.so.1.7.4:_ZN5sword12LZSSCompressD1Ev
libsword.so.1.7.4:_ZN5sword12LZSSCompressD2Ev
libsword.so.1.7.4:_ZN5sword12OSISHTMLHREF10MyUserDataC1EPKNS_8SWModuleEPKNS_5SWKeyE
libsword.so.1.7.4:_ZN5sword12OSISHTMLHREF10MyUserDataC2EPKNS_8SWModuleEPKNS_5SWKeyE
libsword.so.1.7.4:_ZN5sword12OSISHTMLHREF10MyUserDataD0Ev
libsword.so.1.7.4:_ZN5sword12OSISHTMLHREF10MyUserDataD1Ev
libsword.so.1.7.4:_ZN5sword12OSISHTMLHREF10MyUserDataD2Ev
libsword.so.1.7.4:_ZN5sword12OSISHTMLHREF11handleTokenERNS_5SWBufEPKcPNS_19BasicFilterUserDataE
libsword.so.1.7.4:_ZN5sword12OSISHTMLHREFC1Ev
libsword.so.1.7.4:_ZN5sword12OSISHTMLHREFC2Ev
libsword.so.1.7.4:_ZN5sword12OSISHeadings11handleTokenERNS_5SWBufEPKcPNS_19BasicFilterUserDataE
libsword.so.1.7.4:_ZN5sword12OSISHeadings14createUserDataEPKNS_8SWModuleEPKNS_5SWKeyE
libsword.so.1.7.4:_ZN5sword12OSISHeadingsC1Ev
libsword.so.1.7.4:_ZN5sword12OSISHeadingsC2Ev
libsword.so.1.7.4:_ZN5sword12OSISScripref11processTextERNS_5SWBufEPKNS_5SWKeyEPKNS_8SWModuleE
libsword.so.1.7.4:_ZN5sword12OSISScriprefC1Ev
libsword.so.1.7.4:_ZN5sword12OSISScriprefC2Ev
libsword.so.1.7.4:_ZN5sword12OSISScriprefD0Ev
libsword.so.1.7.4:_ZN5sword12OSISScriprefD1Ev
libsword.so.1.7.4:_ZN5sword12OSISScriprefD2Ev
libsword.so.1.7.4:_ZN5sword12OSISVariants11processTextERNS_5SWBufEPKNS_5SWKeyEPKNS_8SWModuleE
libsword.so.1.7.4:_ZN5sword12OSISVariantsC1Ev
libsword.so.1.7.4:_ZN5sword12OSISVariantsC2Ev
libsword.so.1.7.4:_ZN5sword12OSISVariantsD0Ev
libsword.so.1.7.4:_ZN5sword12OSISVariantsD1Ev
libsword.so.1.7.4:_ZN5sword12OSISVariantsD2Ev
libsword.so.1.7.4:_ZN5sword12SWSearchable11nullPercentEcPv
libsword.so.1.7.4:_ZN5sword12SWSearchable21createSearchFrameworkEPFvcPvES1_
libsword.so.1.7.4:_ZN5sword12SWSearchable21deleteSearchFrameworkEv
libsword.so.1.7.4:_ZN5sword12SWSearchable26isSearchOptimallySupportedEPKciiPNS_5SWKeyE
libsword.so.1.7.4:_ZN5sword12SWSearchableC1Ev
libsword.so.1.7.4:_ZN5sword12SWSearchableC2Ev
libsword.so.1.7.4:_ZN5sword12SWSearchableD0Ev
libsword.so.1.7.4:_ZN5sword12SWSearchableD1Ev
libsword.so.1.7.4:_ZN5sword12SWSearchableD2Ev
libsword.so.1.7.4:_ZN5sword12ThMLHTMLHREF10MyUserDataC1EPKNS_8SWModuleEPKNS_5SWKeyE
libsword.so.1.7.4:_ZN5sword12ThMLHTMLHREF10MyUserDataC2EPKNS_8SWModuleEPKNS_5SWKeyE
libsword.so.1.7.4:_ZN5sword12ThMLHTMLHREF11handleTokenERNS_5SWBufEPKcPNS_19BasicFilterUserDataE
libsword.so.1.7.4:_ZN5sword12ThMLHTMLHREFC1Ev
libsword.so.1.7.4:_ZN5sword12ThMLHTMLHREFC2Ev
libsword.so.1.7.4:_ZN5sword12ThMLHeadings11processTextERNS_5SWBufEPKNS_5SWKeyEPKNS_8SWModuleE
libsword.so.1.7.4:_ZN5sword12ThMLHeadingsC1Ev
libsword.so.1.7.4:_ZN5sword12ThMLHeadingsC2Ev
libsword.so.1.7.4:_ZN5sword12ThMLHeadingsD0Ev
libsword.so.1.7.4:_ZN5sword12ThMLHeadingsD1Ev
libsword.so.1.7.4:_ZN5sword12ThMLHeadingsD2Ev
libsword.so.1.7.4:_ZN5sword12ThMLScripref11processTextERNS_5SWBufEPKNS_5SWKeyEPKNS_8SWModuleE
libsword.so.1.7.4:_ZN5sword12ThMLScriprefC1Ev
libsword.so.1.7.4:_ZN5sword12ThMLScriprefC2Ev
libsword.so.1.7.4:_ZN5sword12ThMLScriprefD0Ev
libsword.so.1.7.4:_ZN5sword12ThMLScriprefD1Ev
libsword.so.1.7.4:_ZN5sword12ThMLScriprefD2Ev
libsword.so.1.7.4:_ZN5sword12ThMLVariants11processTextERNS_5SWBufEPKNS_5SWKeyEPKNS_8SWModuleE
libsword.so.1.7.4:_ZN5sword12ThMLVariantsC1Ev
libsword.so.1.7.4:_ZN5sword12ThMLVariantsC2Ev
libsword.so.1.7.4:_ZN5sword12ThMLVariantsD0Ev
libsword.so.1.7.4:_ZN5sword12ThMLVariantsD1Ev
libsword.so.1.7.4:_ZN5sword12ThMLVariantsD2Ev
libsword.so.1.7.4:_ZN5sword12VerseTreeKey10getTreeKeyEv
libsword.so.1.7.4:_ZN5sword12VerseTreeKey11setPositionENS_11SW_POSITIONE
libsword.so.1.7.4:_ZN5sword12VerseTreeKey15positionChangedEv
libsword.so.1.7.4:_ZN5sword12VerseTreeKey15syncVerseToTreeEv
libsword.so.1.7.4:_ZN5sword12VerseTreeKey4initEPNS_7TreeKeyE
libsword.so.1.7.4:_ZN5sword12VerseTreeKey9NormalizeEc
libsword.so.1.7.4:_ZN5sword12VerseTreeKey9decrementEi
libsword.so.1.7.4:_ZN5sword12VerseTreeKey9incrementEi
libsword.so.1.7.4:_ZN5sword12VerseTreeKeyC1EPNS_7TreeKeyEPKNS_5SWKeyE
libsword.so.1.7.4:_ZN5sword12VerseTreeKeyC1EPNS_7TreeKeyEPKc
libsword.so.1.7.4:_ZN5sword12VerseTreeKeyC1EPNS_7TreeKeyEPKcS4_
libsword.so.1.7.4:_ZN5sword12VerseTreeKeyC1ERKS0_
libsword.so.1.7.4:_ZN5sword12VerseTreeKeyC2EPNS_7TreeKeyEPKNS_5SWKeyE
libsword.so.1.7.4:_ZN5sword12VerseTreeKeyC2EPNS_7TreeKeyEPKc
libsword.so.1.7.4:_ZN5sword12VerseTreeKeyC2EPNS_7TreeKeyEPKcS4_
libsword.so.1.7.4:_ZN5sword12VerseTreeKeyC2ERKS0_
libsword.so.1.7.4:_ZN5sword12VerseTreeKeyD0Ev
libsword.so.1.7.4:_ZN5sword12VerseTreeKeyD1Ev
libsword.so.1.7.4:_ZN5sword12VerseTreeKeyD2Ev
libsword.so.1.7.4:_ZN5sword13Bzip2Compress6DecodeEv
libsword.so.1.7.4:_ZN5sword13Bzip2Compress6EncodeEv
libsword.so.1.7.4:_ZN5sword13Bzip2CompressC1Ev
libsword.so.1.7.4:_ZN5sword13Bzip2CompressC2Ev
libsword.so.1.7.4:_ZN5sword13Bzip2CompressD0Ev
libsword.so.1.7.4:_ZN5sword13Bzip2CompressD1Ev
libsword.so.1.7.4:_ZN5sword13Bzip2CompressD2Ev
libsword.so.1.7.4:_ZN5sword13InstallSource5flushEv
libsword.so.1.7.4:_ZN5sword13InstallSource6getMgrEv
libsword.so.1.7.4:_ZN5sword13InstallSourceC1EPKcS2_
libsword.so.1.7.4:_ZN5sword13InstallSourceC2EPKcS2_
libsword.so.1.7.4:_ZN5sword13InstallSourceD0Ev
libsword.so.1.7.4:_ZN5sword13InstallSourceD1Ev
libsword.so.1.7.4:_ZN5sword13InstallSourceD2Ev
libsword.so.1.7.4:_ZN5sword13OSISFootnotes11processTextERNS_5SWBufEPKNS_5SWKeyEPKNS_8SWModuleE
libsword.so.1.7.4:_ZN5sword13OSISFootnotesC1Ev
libsword.so.1.7.4:_ZN5sword13OSISFootnotesC2Ev
libsword.so.1.7.4:_ZN5sword13OSISFootnotesD0Ev
libsword.so.1.7.4:_ZN5sword13OSISFootnotesD1Ev
libsword.so.1.7.4:_ZN5sword13OSISFootnotesD2Ev
libsword.so.1.7.4:_ZN5sword13SWBasicFilter11handleTokenERNS_5SWBufEPKcPNS_19BasicFilterUserDataE
libsword.so.1.7.4:_ZN5sword13SWBasicFilter11processTextERNS_5SWBufEPKNS_5SWKeyEPKNS_8SWModuleE
libsword.so.1.7.4:_ZN5sword13SWBasicFilter11setTokenEndEPKc
libsword.so.1.7.4:_ZN5sword13SWBasicFilter12setEscapeEndEPKc
libsword.so.1.7.4:_ZN5sword13SWBasicFilter13setTokenStartEPKc
libsword.so.1.7.4:_ZN5sword13SWBasicFilter14setEscapeStartEPKc
libsword.so.1.7.4:_ZN5sword13SWBasicFilter15substituteTokenERNS_5SWBufEPKc
libsword.so.1.7.4:_ZN5sword13SWBasicFilter18addTokenSubstituteEPKcS2_
libsword.so.1.7.4:_ZN5sword13SWBasicFilter18appendEscapeStringERNS_5SWBufEPKc
libsword.so.1.7.4:_ZN5sword13SWBasicFilter18handleEscapeStringERNS_5SWBufEPKcPNS_19BasicFilterUserDataE
libsword.so.1.7.4:_ZN5sword13SWBasicFilter21removeTokenSubstituteEPKc
libsword.so.1.7.4:_ZN5sword13SWBasicFilter21setTokenCaseSensitiveEb
libsword.so.1.7.4:_ZN5sword13SWBasicFilter22addAllowedEscapeStringEPKc
libsword.so.1.7.4:_ZN5sword13SWBasicFilter22substituteEscapeStringERNS_5SWBufEPKc
libsword.so.1.7.4:_ZN5sword13SWBasicFilter23passAllowedEscapeStringERNS_5SWBufEPKc
libsword.so.1.7.4:_ZN5sword13SWBasicFilter23setPassThruUnknownTokenEb
libsword.so.1.7.4:_ZN5sword13SWBasicFilter25addEscapeStringSubstituteEPKcS2_
libsword.so.1.7.4:_ZN5sword13SWBasicFilter25handleNumericEscapeStringERNS_5SWBufEPKc
libsword.so.1.7.4:_ZN5sword13SWBasicFilter25removeAllowedEscapeStringEPKc
libsword.so.1.7.4:_ZN5sword13SWBasicFilter28removeEscapeStringSubstituteEPKc
libsword.so.1.7.4:_ZN5sword13SWBasicFilter28setEscapeStringCaseSensitiveEb
libsword.so.1.7.4:_ZN5sword13SWBasicFilter30setPassThruNumericEscapeStringEb
libsword.so.1.7.4:_ZN5sword13SWBasicFilter30setPassThruUnknownEscapeStringEb
libsword.so.1.7.4:_ZN5sword13SWBasicFilterC1Ev
libsword.so.1.7.4:_ZN5sword13SWBasicFilterC2Ev
libsword.so.1.7.4:_ZN5sword13SWBasicFilterD0Ev
libsword.so.1.7.4:_ZN5sword13SWBasicFilterD1Ev
libsword.so.1.7.4:_ZN5sword13SWBasicFilterD2Ev
libsword.so.1.7.4:_ZN5sword13ThMLFootnotes11processTextERNS_5SWBufEPKNS_5SWKeyEPKNS_8SWModuleE
libsword.so.1.7.4:_ZN5sword13ThMLFootnotesC1Ev
libsword.so.1.7.4:_ZN5sword13ThMLFootnotesC2Ev
libsword.so.1.7.4:_ZN5sword13ThMLFootnotesD0Ev
libsword.so.1.7.4:_ZN5sword13ThMLFootnotesD1Ev
libsword.so.1.7.4:_ZN5sword13ThMLFootnotesD2Ev
libsword.so.1.7.4:_ZN5sword13findSizeStartEPKc
libsword.so.1.7.4:_ZN5sword14SWOptionFilter14getOptionValueEv
libsword.so.1.7.4:_ZN5sword14SWOptionFilter14setOptionValueEPKc
libsword.so.1.7.4:_ZN5sword14SWOptionFilterC1EPKcS2_PKNSt7__cxx114listINS_5SWBufESaIS5_EEE
libsword.so.1.7.4:_ZN5sword14SWOptionFilterC1Ev
libsword.so.1.7.4:_ZN5sword14SWOptionFilterC2EPKcS2_PKNSt7__cxx114listINS_5SWBufESaIS5_EEE
libsword.so.1.7.4:_ZN5sword14SWOptionFilterC2Ev
libsword.so.1.7.4:_ZN5sword14SWOptionFilterD0Ev
libsword.so.1.7.4:_ZN5sword14SWOptionFilterD1Ev
libsword.so.1.7.4:_ZN5sword14SWOptionFilterD2Ev
libsword.so.1.7.4:_ZN5sword14StatusReporter12statusUpdateEdd
libsword.so.1.7.4:_ZN5sword14StatusReporter6updateEmm
libsword.so.1.7.4:_ZN5sword14StatusReporter9preStatusEllPKc
libsword.so.1.7.4:_ZN5sword15GreekLexAttribs11processTextERNS_5SWBufEPKNS_5SWKeyEPKNS_8SWModuleE
libsword.so.1.7.4:_ZN5sword15GreekLexAttribsC1Ev
libsword.so.1.7.4:_ZN5sword15GreekLexAttribsC2Ev
libsword.so.1.7.4:_ZN5sword15MarkupFilterMgr13CreateFiltersEc
libsword.so.1.7.4:_ZN5sword15MarkupFilterMgr16AddRenderFiltersEPNS_8SWModuleERNS_19multimapwithdefaultINS_5SWBufES4_St4lessIS4_EEE
libsword.so.1.7.4:_ZN5sword15MarkupFilterMgr6MarkupEc
libsword.so.1.7.4:_ZN5sword15MarkupFilterMgrC1Ecc
libsword.so.1.7.4:_ZN5sword15MarkupFilterMgrC2Ecc
libsword.so.1.7.4:_ZN5sword15MarkupFilterMgrD0Ev
libsword.so.1.7.4:_ZN5sword15MarkupFilterMgrD1Ev
libsword.so.1.7.4:_ZN5sword15MarkupFilterMgrD2Ev
libsword.so.1.7.4:_ZN5sword15RemoteTransport10getDirListEPKc
libsword.so.1.7.4:_ZN5sword15RemoteTransport13copyDirectoryEPKcS2_S2_S2_
libsword.so.1.7.4:_ZN5sword15RemoteTransport6getURLEPKcS2_PNS_5SWBufE
libsword.so.1.7.4:_ZN5sword15RemoteTransportC1EPKcPNS_14StatusReporterE
libsword.so.1.7.4:_ZN5sword15RemoteTransportC2EPKcPNS_14StatusReporterE
libsword.so.1.7.4:_ZN5sword15RemoteTransportD0Ev
libsword.so.1.7.4:_ZN5sword15RemoteTransportD1Ev
libsword.so.1.7.4:_ZN5sword15RemoteTransportD2Ev
libsword.so.1.7.4:_ZN5sword15assureValidUTF8EPKc
libsword.so.1.7.4:_ZN5sword16CURLFTPTransport6getURLEPKcS2_PNS_5SWBufE
libsword.so.1.7.4:_ZN5sword16CURLFTPTransportC1EPKcPNS_14StatusReporterE
libsword.so.1.7.4:_ZN5sword16CURLFTPTransportC2EPKcPNS_14StatusReporterE
libsword.so.1.7.4:_ZN5sword16CURLFTPTransportD0Ev
libsword.so.1.7.4:_ZN5sword16CURLFTPTransportD1Ev
libsword.so.1.7.4:_ZN5sword16CURLFTPTransportD2Ev
libsword.so.1.7.4:_ZN5sword16UTF8ArabicPoints11processTextERNS_5SWBufEPKNS_5SWKeyEPKNS_8SWModuleE
libsword.so.1.7.4:_ZN5sword16UTF8ArabicPointsC1Ev
libsword.so.1.7.4:_ZN5sword16UTF8ArabicPointsC2Ev
libsword.so.1.7.4:_ZN5sword16UTF8ArabicPointsD0Ev
libsword.so.1.7.4:_ZN5sword16UTF8ArabicPointsD1Ev
libsword.so.1.7.4:_ZN5sword16UTF8ArabicPointsD2Ev
libsword.so.1.7.4:_ZN5sword16UTF8Cantillation11processTextERNS_5SWBufEPKNS_5SWKeyEPKNS_8SWModuleE
libsword.so.1.7.4:_ZN5sword16UTF8CantillationC1Ev
libsword.so.1.7.4:_ZN5sword16UTF8CantillationC2Ev
libsword.so.1.7.4:_ZN5sword16UTF8CantillationD0Ev
libsword.so.1.7.4:_ZN5sword16UTF8CantillationD1Ev
libsword.so.1.7.4:_ZN5sword16UTF8CantillationD2Ev
libsword.so.1.7.4:_ZN5sword16UTF8GreekAccents11processTextERNS_5SWBufEPKNS_5SWKeyEPKNS_8SWModuleE
libsword.so.1.7.4:_ZN5sword16UTF8GreekAccentsC1Ev
libsword.so.1.7.4:_ZN5sword16UTF8GreekAccentsC2Ev
libsword.so.1.7.4:_ZN5sword16UTF8GreekAccentsD0Ev
libsword.so.1.7.4:_ZN5sword16UTF8GreekAccentsD1Ev
libsword.so.1.7.4:_ZN5sword16UTF8GreekAccentsD2Ev
libsword.so.1.7.4:_ZN5sword16UTF8HebrewPoints11processTextERNS_5SWBufEPKNS_5SWKeyEPKNS_8SWModuleE
libsword.so.1.7.4:_ZN5sword16UTF8HebrewPointsC1Ev
libsword.so.1.7.4:_ZN5sword16UTF8HebrewPointsC2Ev
libsword.so.1.7.4:_ZN5sword16UTF8HebrewPointsD0Ev
libsword.so.1.7.4:_ZN5sword16UTF8HebrewPointsD1Ev
libsword.so.1.7.4:_ZN5sword16UTF8HebrewPointsD2Ev
libsword.so.1.7.4:_ZN5sword16VersificationMgr25getSystemVersificationMgrEv
libsword.so.1.7.4:_ZN5sword16VersificationMgr25setSystemVersificationMgrEPS0_
libsword.so.1.7.4:_ZN5sword16VersificationMgr27registerVersificationSystemEPKcPKNS_5sbookES5_Pi
libsword.so.1.7.4:_ZN5sword16VersificationMgr27registerVersificationSystemEPKcPKNS_7TreeKeyE
libsword.so.1.7.4:_ZN5sword16VersificationMgr4Book4initEv
libsword.so.1.7.4:_ZN5sword16VersificationMgr4BookC1ERKS1_
libsword.so.1.7.4:_ZN5sword16VersificationMgr4BookC2ERKS1_
libsword.so.1.7.4:_ZN5sword16VersificationMgr4BookD1Ev
libsword.so.1.7.4:_ZN5sword16VersificationMgr4BookD2Ev
libsword.so.1.7.4:_ZN5sword16VersificationMgr4BookaSERKS1_
libsword.so.1.7.4:_ZN5sword16VersificationMgr4initEv
libsword.so.1.7.4:_ZN5sword16VersificationMgr6System13loadFromSBookEPKNS_5sbookES4_Pi
libsword.so.1.7.4:_ZN5sword16VersificationMgr6System4initEv
libsword.so.1.7.4:_ZN5sword16VersificationMgr6SystemC1ERKS1_
libsword.so.1.7.4:_ZN5sword16VersificationMgr6SystemC2ERKS1_
libsword.so.1.7.4:_ZN5sword16VersificationMgr6SystemD1Ev
libsword.so.1.7.4:_ZN5sword16VersificationMgr6SystemD2Ev
libsword.so.1.7.4:_ZN5sword16VersificationMgr6SystemaSERKS1_
libsword.so.1.7.4:_ZN5sword16VersificationMgrD0Ev
libsword.so.1.7.4:_ZN5sword16VersificationMgrD1Ev
libsword.so.1.7.4:_ZN5sword16VersificationMgrD2Ev
libsword.so.1.7.4:_ZN5sword17CURLHTTPTransport10getDirListEPKc
libsword.so.1.7.4:_ZN5sword17CURLHTTPTransport6getURLEPKcS2_PNS_5SWBufE
libsword.so.1.7.4:_ZN5sword17CURLHTTPTransportC1EPKcPNS_14StatusReporterE
libsword.so.1.7.4:_ZN5sword17CURLHTTPTransportC2EPKcPNS_14StatusReporterE
libsword.so.1.7.4:_ZN5sword17CURLHTTPTransportD0Ev
libsword.so.1.7.4:_ZN5sword17CURLHTTPTransportD1Ev
libsword.so.1.7.4:_ZN5sword17CURLHTTPTransportD2Ev
libsword.so.1.7.4:_ZN5sword17EncodingFilterMgr13AddRawFiltersEPNS_8SWModuleERNS_19multimapwithdefaultINS_5SWBufES4_St4lessIS4_EEE
libsword.so.1.7.4:_ZN5sword17EncodingFilterMgr18AddEncodingFiltersEPNS_8SWModuleERNS_19multimapwithdefaultINS_5SWBufES4_St4lessIS4_EEE
libsword.so.1.7.4:_ZN5sword17EncodingFilterMgr8EncodingEc
libsword.so.1.7.4:_ZN5sword17EncodingFilterMgrC1Ec
libsword.so.1.7.4:_ZN5sword17EncodingFilterMgrC2Ec
libsword.so.1.7.4:_ZN5sword17EncodingFilterMgrD0Ev
libsword.so.1.7.4:_ZN5sword17EncodingFilterMgrD1Ev
libsword.so.1.7.4:_ZN5sword17EncodingFilterMgrD2Ev
libsword.so.1.7.4:_ZN5sword17GBFRedLetterWords11processTextERNS_5SWBufEPKNS_5SWKeyEPKNS_8SWModuleE
libsword.so.1.7.4:_ZN5sword17GBFRedLetterWordsC1Ev
libsword.so.1.7.4:_ZN5sword17GBFRedLetterWordsC2Ev
libsword.so.1.7.4:_ZN5sword17GBFRedLetterWordsD0Ev
libsword.so.1.7.4:_ZN5sword17GBFRedLetterWordsD1Ev
libsword.so.1.7.4:_ZN5sword17GBFRedLetterWordsD2Ev
libsword.so.1.7.4:_ZN5sword18OSISRedLetterWords11processTextERNS_5SWBufEPKNS_5SWKeyEPKNS_8SWModuleE
libsword.so.1.7.4:_ZN5sword18OSISRedLetterWordsC1Ev
libsword.so.1.7.4:_ZN5sword18OSISRedLetterWordsC2Ev
libsword.so.1.7.4:_ZN5sword18OSISRedLetterWordsD0Ev
libsword.so.1.7.4:_ZN5sword18OSISRedLetterWordsD1Ev
libsword.so.1.7.4:_ZN5sword18OSISRedLetterWordsD2Ev
libsword.so.1.7.4:_ZN5sword18OSISReferenceLinks11processTextERNS_5SWBufEPKNS_5SWKeyEPKNS_8SWModuleE
libsword.so.1.7.4:_ZN5sword18OSISReferenceLinksC1EPKcS2_S2_S2_S2_
libsword.so.1.7.4:_ZN5sword18OSISReferenceLinksC2EPKcS2_S2_S2_S2_
libsword.so.1.7.4:_ZN5sword18OSISReferenceLinksD0Ev
libsword.so.1.7.4:_ZN5sword18OSISReferenceLinksD1Ev
libsword.so.1.7.4:_ZN5sword18OSISReferenceLinksD2Ev
libsword.so.1.7.4:_ZN5sword18getUTF8FromUniCharEj
libsword.so.1.7.4:_ZN5sword18getUniCharFromUTF8EPPKh
libsword.so.1.7.4:_ZN5sword21OSISMorphSegmentation11processTextERNS_5SWBufEPKNS_5SWKeyEPKNS_8SWModuleE
libsword.so.1.7.4:_ZN5sword21OSISMorphSegmentationC1Ev
libsword.so.1.7.4:_ZN5sword21OSISMorphSegmentationC2Ev
libsword.so.1.7.4:_ZN5sword21OSISMorphSegmentationD0Ev
libsword.so.1.7.4:_ZN5sword21OSISMorphSegmentationD1Ev
libsword.so.1.7.4:_ZN5sword21OSISMorphSegmentationD2Ev
libsword.so.1.7.4:_ZN5sword3URL5parseEv
libsword.so.1.7.4:_ZN5sword3URL6decodeEPKc
libsword.so.1.7.4:_ZN5sword3URL6encodeEPKc
libsword.so.1.7.4:_ZN5sword3URLC1EPKc
libsword.so.1.7.4:_ZN5sword3URLC2EPKc
libsword.so.1.7.4:_ZN5sword3zLD11deleteEntryEv
libsword.so.1.7.4:_ZN5sword3zLD8setEntryEPKcl
libsword.so.1.7.4:_ZN5sword3zLD9incrementEi
libsword.so.1.7.4:_ZN5sword3zLD9linkEntryEPKNS_5SWKeyE
libsword.so.1.7.4:_ZN5sword3zLDC1EPKcS2_S2_lPNS_10SWCompressEPNS_9SWDisplayEcccS2_bb
libsword.so.1.7.4:_ZN5sword3zLDC2EPKcS2_S2_lPNS_10SWCompressEPNS_9SWDisplayEcccS2_bb
libsword.so.1.7.4:_ZN5sword3zLDD0Ev
libsword.so.1.7.4:_ZN5sword3zLDD1Ev
libsword.so.1.7.4:_ZN5sword3zLDD2Ev
libsword.so.1.7.4:_ZN5sword4SWLD10strongsPadEPc
libsword.so.1.7.4:_ZN5sword4SWLD11setPositionENS_11SW_POSITIONE
libsword.so.1.7.4:_ZN5sword4SWLDC1EPKcS2_PNS_9SWDisplayEcccS2_b
libsword.so.1.7.4:_ZN5sword4SWLDC2EPKcS2_PNS_9SWDisplayEcccS2_b
libsword.so.1.7.4:_ZN5sword4SWLDD0Ev
libsword.so.1.7.4:_ZN5sword4SWLDD1Ev
libsword.so.1.7.4:_ZN5sword4SWLDD2Ev
libsword.so.1.7.4:_ZN5sword4zCom11deleteEntryEv
libsword.so.1.7.4:_ZN5sword4zCom8setEntryEPKcl
libsword.so.1.7.4:_ZN5sword4zCom9incrementEi
libsword.so.1.7.4:_ZN5sword4zCom9linkEntryEPKNS_5SWKeyE
libsword.so.1.7.4:_ZN5sword4zCom9sameBlockEPNS_8VerseKeyES2_
libsword.so.1.7.4:_ZN5sword4zComC1EPKcS2_S2_iPNS_10SWCompressEPNS_9SWDisplayEcccS2_S2_
libsword.so.1.7.4:_ZN5sword4zComC2EPKcS2_S2_iPNS_10SWCompressEPNS_9SWDisplayEcccS2_S2_
libsword.so.1.7.4:_ZN5sword4zComD0Ev
libsword.so.1.7.4:_ZN5sword4zComD1Ev
libsword.so.1.7.4:_ZN5sword4zComD2Ev
libsword.so.1.7.4:_ZN5sword4zStr12createModuleEPKc
libsword.so.1.7.4:_ZN5sword4zStr7setTextEPKcS2_l
libsword.so.1.7.4:_ZN5sword4zStr9linkEntryEPKcS2_
libsword.so.1.7.4:_ZN5sword4zStrC1EPKcilPNS_10SWCompressEb
libsword.so.1.7.4:_ZN5sword4zStrC2EPKcilPNS_10SWCompressEb
libsword.so.1.7.4:_ZN5sword4zStrD0Ev
libsword.so.1.7.4:_ZN5sword4zStrD1Ev
libsword.so.1.7.4:_ZN5sword4zStrD2Ev
libsword.so.1.7.4:_ZN5sword5RawLD11deleteEntryEv
libsword.so.1.7.4:_ZN5sword5RawLD8setEntryEPKcl
libsword.so.1.7.4:_ZN5sword5RawLD9incrementEi
libsword.so.1.7.4:_ZN5sword5RawLD9linkEntryEPKNS_5SWKeyE
libsword.so.1.7.4:_ZN5sword5RawLDC1EPKcS2_S2_PNS_9SWDisplayEcccS2_bb
libsword.so.1.7.4:_ZN5sword5RawLDC2EPKcS2_S2_PNS_9SWDisplayEcccS2_bb
libsword.so.1.7.4:_ZN5sword5RawLDD0Ev
libsword.so.1.7.4:_ZN5sword5RawLDD1Ev
libsword.so.1.7.4:_ZN5sword5RawLDD2Ev
libsword.so.1.7.4:_ZN5sword5SWBuf12setFormattedEPKcz
libsword.so.1.7.4:_ZN5sword5SWBuf15appendFormattedEPKcz
libsword.so.1.7.4:_ZN5sword5SWBuf6appendEPKcl
libsword.so.1.7.4:_ZN5sword5SWBuf6insertEmPKcml
libsword.so.1.7.4:_ZN5sword5SWBuf7setSizeEm
libsword.so.1.7.4:_ZN5sword5SWBufC1EPKcm
libsword.so.1.7.4:_ZN5sword5SWBufC1ERKS0_m
libsword.so.1.7.4:_ZN5sword5SWBufC1Ecm
libsword.so.1.7.4:_ZN5sword5SWBufC2EPKcm
libsword.so.1.7.4:_ZN5sword5SWBufC2ERKS0_m
libsword.so.1.7.4:_ZN5sword5SWBufC2Ecm
libsword.so.1.7.4:_ZN5sword5SWCom8setIndexEl
libsword.so.1.7.4:_ZN5sword5SWComC1EPKcS2_PNS_9SWDisplayEcccS2_S2_
libsword.so.1.7.4:_ZN5sword5SWComC2EPKcS2_PNS_9SWDisplayEcccS2_S2_
libsword.so.1.7.4:_ZN5sword5SWComD0Ev
libsword.so.1.7.4:_ZN5sword5SWComD1Ev
libsword.so.1.7.4:_ZN5sword5SWComD2Ev
libsword.so.1.7.4:_ZN5sword5SWKey10setPersistEb
libsword.so.1.7.4:_ZN5sword5SWKey11setPositionENS_11SW_POSITIONE
libsword.so.1.7.4:_ZN5sword5SWKey4initEv
libsword.so.1.7.4:_ZN5sword5SWKey7compareERKS0_
libsword.so.1.7.4:_ZN5sword5SWKey7setTextEPKc
libsword.so.1.7.4:_ZN5sword5SWKey8copyFromERKS0_
libsword.so.1.7.4:_ZN5sword5SWKey8popErrorEv
libsword.so.1.7.4:_ZN5sword5SWKey9decrementEi
libsword.so.1.7.4:_ZN5sword5SWKey9incrementEi
libsword.so.1.7.4:_ZN5sword5SWKeyC1EPKc
libsword.so.1.7.4:_ZN5sword5SWKeyC1ERKS0_
libsword.so.1.7.4:_ZN5sword5SWKeyC2EPKc
libsword.so.1.7.4:_ZN5sword5SWKeyC2ERKS0_
libsword.so.1.7.4:_ZN5sword5SWKeyD0Ev
libsword.so.1.7.4:_ZN5sword5SWKeyD1Ev
libsword.so.1.7.4:_ZN5sword5SWKeyD2Ev
libsword.so.1.7.4:_ZN5sword5SWLog12getSystemLogEv
libsword.so.1.7.4:_ZN5sword5SWLog12setSystemLogEPS0_
libsword.so.1.7.4:_ZN5sword5SWMgr10CreateModsEb
libsword.so.1.7.4:_ZN5sword5SWMgr10DeleteModsEv
libsword.so.1.7.4:_ZN5sword5SWMgr10commonInitEPNS_8SWConfigES2_bPNS_11SWFilterMgrEb
libsword.so.1.7.4:_ZN5sword5SWMgr10filterTextEPKcRNS_5SWBufEPKNS_5SWKeyEPKNS_8SWModuleE
libsword.so.1.7.4:_ZN5sword5SWMgr10findConfigEPcPS1_S2_PNSt7__cxx114listINS_5SWBufESaIS5_EEEPPNS_8SWConfigE
libsword.so.1.7.4:_ZN5sword5SWMgr10getHomeDirEv
libsword.so.1.7.4:_ZN5sword5SWMgr11InstallScanEPKc
libsword.so.1.7.4:_ZN5sword5SWMgr12createModuleEPKcS2_RNS_19multimapwithdefaultINS_5SWBufES4_St4lessIS4_EEE
libsword.so.1.7.4:_ZN5sword5SWMgr12deleteModuleEPKc
libsword.so.1.7.4:_ZN5sword5SWMgr12setCipherKeyEPKcS2_
libsword.so.1.7.4:_ZN5sword5SWMgr13AddRawFiltersEPNS_8SWModuleERNS_19multimapwithdefaultINS_5SWBufES4_St4lessIS4_EEE
libsword.so.1.7.4:_ZN5sword5SWMgr13loadConfigDirEPKc
libsword.so.1.7.4:_ZN5sword5SWMgr14AddModToConfigEPNS_8FileDescEPKc
libsword.so.1.7.4:_ZN5sword5SWMgr14augmentModulesEPKcb
libsword.so.1.7.4:_ZN5sword5SWMgr15AddLocalOptionsEPNS_8SWModuleERNS_19multimapwithdefaultINS_5SWBufES4_St4lessIS4_EEESt17_Rb_tree_iteratorISt4pairIKS4_S4_EESD_
libsword.so.1.7.4:_ZN5sword5SWMgr15AddStripFiltersEPNS_8SWModuleERNS_19multimapwithdefaultINS_5SWBufES4_St4lessIS4_EEE
libsword.so.1.7.4:_ZN5sword5SWMgr15AddStripFiltersEPNS_8SWModuleERNS_19multimapwithdefaultINS_5SWBufES4_St4lessIS4_EEESt17_Rb_tree_iteratorISt4pairIKS4_S4_EESD_
libsword.so.1.7.4:_ZN5sword5SWMgr15getGlobalOptionEPKc
libsword.so.1.7.4:_ZN5sword5SWMgr15setGlobalOptionEPKcS2_
libsword.so.1.7.4:_ZN5sword5SWMgr16AddGlobalOptionsEPNS_8SWModuleERNS_19multimapwithdefaultINS_5SWBufES4_St4lessIS4_EEESt17_Rb_tree_iteratorISt4pairIKS4_S4_EESD_
libsword.so.1.7.4:_ZN5sword5SWMgr16AddRenderFiltersEPNS_8SWModuleERNS_19multimapwithdefaultINS_5SWBufES4_St4lessIS4_EEE
libsword.so.1.7.4:_ZN5sword5SWMgr16getGlobalOptionsB5cxx11Ev
libsword.so.1.7.4:_ZN5sword5SWMgr18AddEncodingFiltersEPNS_8SWModuleERNS_19multimapwithdefaultINS_5SWBufES4_St4lessIS4_EEE
libsword.so.1.7.4:_ZN5sword5SWMgr18getGlobalOptionTipEPKc
libsword.so.1.7.4:_ZN5sword5SWMgr21getGlobalOptionValuesB5cxx11EPKc
libsword.so.1.7.4:_ZN5sword5SWMgr4LoadEv
libsword.so.1.7.4:_ZN5sword5SWMgr4initEv
libsword.so.1.7.4:_ZN5sword5SWMgrC1EPKcbPNS_11SWFilterMgrEbb
libsword.so.1.7.4:_ZN5sword5SWMgrC1EPNS_11SWFilterMgrEb
libsword.so.1.7.4:_ZN5sword5SWMgrC1EPNS_8SWConfigES2_bPNS_11SWFilterMgrEb
libsword.so.1.7.4:_ZN5sword5SWMgrC2EPKcbPNS_11SWFilterMgrEbb
libsword.so.1.7.4:_ZN5sword5SWMgrC2EPNS_11SWFilterMgrEb
libsword.so.1.7.4:_ZN5sword5SWMgrC2EPNS_8SWConfigES2_bPNS_11SWFilterMgrEb
libsword.so.1.7.4:_ZN5sword5SWMgrD0Ev
libsword.so.1.7.4:_ZN5sword5SWMgrD1Ev
libsword.so.1.7.4:_ZN5sword5SWMgrD2Ev
libsword.so.1.7.4:_ZN5sword5zText11deleteEntryEv
libsword.so.1.7.4:_ZN5sword5zText8setEntryEPKcl
libsword.so.1.7.4:_ZN5sword5zText9incrementEi
libsword.so.1.7.4:_ZN5sword5zText9linkEntryEPKNS_5SWKeyE
libsword.so.1.7.4:_ZN5sword5zText9sameBlockEPNS_8VerseKeyES2_
libsword.so.1.7.4:_ZN5sword5zTextC1EPKcS2_S2_iPNS_10SWCompressEPNS_9SWDisplayEcccS2_S2_
libsword.so.1.7.4:_ZN5sword5zTextC2EPKcS2_S2_iPNS_10SWCompressEPNS_9SWDisplayEcccS2_S2_
libsword.so.1.7.4:_ZN5sword5zTextD0Ev
libsword.so.1.7.4:_ZN5sword5zTextD1Ev
libsword.so.1.7.4:_ZN5sword5zTextD2Ev
libsword.so.1.7.4:_ZN5sword6GBFRTF11processTextERNS_5SWBufEPKNS_5SWKeyEPKNS_8SWModuleE
libsword.so.1.7.4:_ZN5sword6GBFRTFC1Ev
libsword.so.1.7.4:_ZN5sword6GBFRTFC2Ev
libsword.so.1.7.4:_ZN5sword6RawCom11deleteEntryEv
libsword.so.1.7.4:_ZN5sword6RawCom8setEntryEPKcl
libsword.so.1.7.4:_ZN5sword6RawCom9incrementEi
libsword.so.1.7.4:_ZN5sword6RawCom9linkEntryEPKNS_5SWKeyE
libsword.so.1.7.4:_ZN5sword6RawComC1EPKcS2_S2_PNS_9SWDisplayEcccS2_S2_
libsword.so.1.7.4:_ZN5sword6RawComC2EPKcS2_S2_PNS_9SWDisplayEcccS2_S2_
libsword.so.1.7.4:_ZN5sword6RawComD0Ev
libsword.so.1.7.4:_ZN5sword6RawComD1Ev
libsword.so.1.7.4:_ZN5sword6RawComD2Ev
libsword.so.1.7.4:_ZN5sword6RawLD411deleteEntryEv
libsword.so.1.7.4:_ZN5sword6RawLD48setEntryEPKcl
libsword.so.1.7.4:_ZN5sword6RawLD49incrementEi
libsword.so.1.7.4:_ZN5sword6RawLD49linkEntryEPKNS_5SWKeyE
libsword.so.1.7.4:_ZN5sword6RawLD4C1EPKcS2_S2_PNS_9SWDisplayEcccS2_bb
libsword.so.1.7.4:_ZN5sword6RawLD4C2EPKcS2_S2_PNS_9SWDisplayEcccS2_bb
libsword.so.1.7.4:_ZN5sword6RawLD4D0Ev
libsword.so.1.7.4:_ZN5sword6RawLD4D1Ev
libsword.so.1.7.4:_ZN5sword6RawLD4D2Ev
libsword.so.1.7.4:_ZN5sword6RawStr11doLinkEntryEPKcS2_
libsword.so.1.7.4:_ZN5sword6RawStr12createModuleEPKc
libsword.so.1.7.4:_ZN5sword6RawStr9doSetTextEPKcS2_l
libsword.so.1.7.4:_ZN5sword6RawStrC1EPKcib
libsword.so.1.7.4:_ZN5sword6RawStrC2EPKcib
libsword.so.1.7.4:_ZN5sword6RawStrD0Ev
libsword.so.1.7.4:_ZN5sword6RawStrD1Ev
libsword.so.1.7.4:_ZN5sword6RawStrD2Ev
libsword.so.1.7.4:_ZN5sword6SWText8setIndexEl
libsword.so.1.7.4:_ZN5sword6SWTextC1EPKcS2_PNS_9SWDisplayEcccS2_S2_
libsword.so.1.7.4:_ZN5sword6SWTextC2EPKcS2_PNS_9SWDisplayEcccS2_S2_
libsword.so.1.7.4:_ZN5sword6SWTextD0Ev
libsword.so.1.7.4:_ZN5sword6SWTextD1Ev
libsword.so.1.7.4:_ZN5sword6SWTextD2Ev
libsword.so.1.7.4:_ZN5sword6StrKey4initEv
libsword.so.1.7.4:_ZN5sword6StrKeyC1EPKc
libsword.so.1.7.4:_ZN5sword6StrKeyC2EPKc
libsword.so.1.7.4:_ZN5sword6StrKeyD0Ev
libsword.so.1.7.4:_ZN5sword6StrKeyD1Ev
libsword.so.1.7.4:_ZN5sword6StrKeyD2Ev
libsword.so.1.7.4:_ZN5sword6TEIRTF10MyUserDataC1EPKNS_8SWModuleEPKNS_5SWKeyE
libsword.so.1.7.4:_ZN5sword6TEIRTF10MyUserDataC2EPKNS_8SWModuleEPKNS_5SWKeyE
libsword.so.1.7.4:_ZN5sword6TEIRTF11handleTokenERNS_5SWBufEPKcPNS_19BasicFilterUserDataE
libsword.so.1.7.4:_ZN5sword6TEIRTFC1Ev
libsword.so.1.7.4:_ZN5sword6TEIRTFC2Ev
libsword.so.1.7.4:_ZN5sword6XMLTag12setAttributeEPKcS2_ic
libsword.so.1.7.4:_ZN5sword6XMLTag7setTextEPKc
libsword.so.1.7.4:_ZN5sword6XMLTagC1EPKc
libsword.so.1.7.4:_ZN5sword6XMLTagC1ERKS0_
libsword.so.1.7.4:_ZN5sword6XMLTagC2EPKc
libsword.so.1.7.4:_ZN5sword6XMLTagC2ERKS0_
libsword.so.1.7.4:_ZN5sword6XMLTagD1Ev
libsword.so.1.7.4:_ZN5sword6XMLTagD2Ev
libsword.so.1.7.4:_ZN5sword6stdstrEPPcPKcj
libsword.so.1.7.4:_ZN5sword6zVerse11doLinkEntryEcll
libsword.so.1.7.4:_ZN5sword6zVerse12createModuleEPKciS2_
libsword.so.1.7.4:_ZN5sword6zVerse9doSetTextEclPKcl
libsword.so.1.7.4:_ZN5sword6zVerseC1EPKciiPNS_10SWCompressE
libsword.so.1.7.4:_ZN5sword6zVerseC2EPKciiPNS_10SWCompressE
libsword.so.1.7.4:_ZN5sword6zVerseD0Ev
libsword.so.1.7.4:_ZN5sword6zVerseD1Ev
libsword.so.1.7.4:_ZN5sword6zVerseD2Ev
libsword.so.1.7.4:_ZN5sword7FileMgr10existsFileEPKcS2_
libsword.so.1.7.4:_ZN5sword7FileMgr10removeFileEPKc
libsword.so.1.7.4:_ZN5sword7FileMgr11isDirectoryEPKc
libsword.so.1.7.4:_ZN5sword7FileMgr12createParentEPKc
libsword.so.1.7.4:_ZN5sword7FileMgr16getSystemFileMgrEv
libsword.so.1.7.4:_ZN5sword7FileMgr16openFileReadOnlyEPKc
libsword.so.1.7.4:_ZN5sword7FileMgr16setSystemFileMgrEPS0_
libsword.so.1.7.4:_ZN5sword7FileMgr17createPathAndFileEPKc
libsword.so.1.7.4:_ZN5sword7FileMgr19resourceConsumptionEv
libsword.so.1.7.4:_ZN5sword7FileMgr4openEPKcib
libsword.so.1.7.4:_ZN5sword7FileMgr4openEPKciib
libsword.so.1.7.4:_ZN5sword7FileMgr5closeEPNS_8FileDescE
libsword.so.1.7.4:_ZN5sword7FileMgr5flushEv
libsword.so.1.7.4:_ZN5sword7FileMgr5truncEPNS_8FileDescE
libsword.so.1.7.4:_ZN5sword7FileMgr7copyDirEPKcS2_
libsword.so.1.7.4:_ZN5sword7FileMgr7getLineEPNS_8FileDescERNS_5SWBufE
libsword.so.1.7.4:_ZN5sword7FileMgr7sysOpenEPNS_8FileDescE
libsword.so.1.7.4:_ZN5sword7FileMgr8copyFileEPKcS2_
libsword.so.1.7.4:_ZN5sword7FileMgr9existsDirEPKcS2_
libsword.so.1.7.4:_ZN5sword7FileMgr9removeDirEPKc
libsword.so.1.7.4:_ZN5sword7FileMgrC1Ei
libsword.so.1.7.4:_ZN5sword7FileMgrC2Ei
libsword.so.1.7.4:_ZN5sword7FileMgrD0Ev
libsword.so.1.7.4:_ZN5sword7FileMgrD1Ev
libsword.so.1.7.4:_ZN5sword7FileMgrD2Ev
libsword.so.1.7.4:_ZN5sword7GBFHTML11handleTokenERNS_5SWBufEPKcPNS_19BasicFilterUserDataE
libsword.so.1.7.4:_ZN5sword7GBFHTMLC1Ev
libsword.so.1.7.4:_ZN5sword7GBFHTMLC2Ev
libsword.so.1.7.4:_ZN5sword7GBFOSIS11processTextERNS_5SWBufEPKNS_5SWKeyEPKNS_8SWModuleE
libsword.so.1.7.4:_ZN5sword7GBFOSISC1Ev
libsword.so.1.7.4:_ZN5sword7GBFOSISC2Ev
libsword.so.1.7.4:_ZN5sword7GBFOSISD0Ev
libsword.so.1.7.4:_ZN5sword7GBFOSISD1Ev
libsword.so.1.7.4:_ZN5sword7GBFOSISD2Ev
libsword.so.1.7.4:_ZN5sword7GBFThML11processTextERNS_5SWBufEPKNS_5SWKeyEPKNS_8SWModuleE
libsword.so.1.7.4:_ZN5sword7GBFThMLC1Ev
libsword.so.1.7.4:_ZN5sword7GBFThMLC2Ev
libsword.so.1.7.4:_ZN5sword7HREFComC1EPKcS2_S2_S2_PNS_9SWDisplayE
libsword.so.1.7.4:_ZN5sword7HREFComC2EPKcS2_S2_S2_PNS_9SWDisplayE
libsword.so.1.7.4:_ZN5sword7HREFComD0Ev
libsword.so.1.7.4:_ZN5sword7HREFComD1Ev
libsword.so.1.7.4:_ZN5sword7HREFComD2Ev
libsword.so.1.7.4:_ZN5sword7ListKey10getElementEi
libsword.so.1.7.4:_ZN5sword7ListKey11setPositionENS_11SW_POSITIONE
libsword.so.1.7.4:_ZN5sword7ListKey12setToElementEiNS_11SW_POSITIONE
libsword.so.1.7.4:_ZN5sword7ListKey3addERKNS_5SWKeyE
libsword.so.1.7.4:_ZN5sword7ListKey4initEv
libsword.so.1.7.4:_ZN5sword7ListKey4sortEv
libsword.so.1.7.4:_ZN5sword7ListKey5clearEv
libsword.so.1.7.4:_ZN5sword7ListKey6removeEv
libsword.so.1.7.4:_ZN5sword7ListKey7setTextEPKc
libsword.so.1.7.4:_ZN5sword7ListKey8copyFromERKS0_
libsword.so.1.7.4:_ZN5sword7ListKey9decrementEi
libsword.so.1.7.4:_ZN5sword7ListKey9incrementEi
libsword.so.1.7.4:_ZN5sword7ListKeyC1EPKc
libsword.so.1.7.4:_ZN5sword7ListKeyC1ERKS0_
libsword.so.1.7.4:_ZN5sword7ListKeyC2EPKc
libsword.so.1.7.4:_ZN5sword7ListKeyC2ERKS0_
libsword.so.1.7.4:_ZN5sword7ListKeyD0Ev
libsword.so.1.7.4:_ZN5sword7ListKeyD1Ev
libsword.so.1.7.4:_ZN5sword7ListKeyD2Ev
libsword.so.1.7.4:_ZN5sword7OSISRTF11handleTokenERNS_5SWBufEPKcPNS_19BasicFilterUserDataE
libsword.so.1.7.4:_ZN5sword7OSISRTF11processTextERNS_5SWBufEPKNS_5SWKeyEPKNS_8SWModuleE
libsword.so.1.7.4:_ZN5sword7OSISRTF14createUserDataEPKNS_8SWModuleEPKNS_5SWKeyE
libsword.so.1.7.4:_ZN5sword7OSISRTFC1Ev
libsword.so.1.7.4:_ZN5sword7OSISRTFC2Ev
libsword.so.1.7.4:_ZN5sword7RTFHTML11processTextERNS_5SWBufEPKNS_5SWKeyEPKNS_8SWModuleE
libsword.so.1.7.4:_ZN5sword7RTFHTMLC1Ev
libsword.so.1.7.4:_ZN5sword7RTFHTMLC2Ev
libsword.so.1.7.4:_ZN5sword7RawCom411deleteEntryEv
libsword.so.1.7.4:_ZN5sword7RawCom48setEntryEPKcl
libsword.so.1.7.4:_ZN5sword7RawCom49incrementEi
libsword.so.1.7.4:_ZN5sword7RawCom49linkEntryEPKNS_5SWKeyE
libsword.so.1.7.4:_ZN5sword7RawCom4C1EPKcS2_S2_PNS_9SWDisplayEcccS2_S2_
libsword.so.1.7.4:_ZN5sword7RawCom4C2EPKcS2_S2_PNS_9SWDisplayEcccS2_S2_
libsword.so.1.7.4:_ZN5sword7RawCom4D0Ev
libsword.so.1.7.4:_ZN5sword7RawCom4D1Ev
libsword.so.1.7.4:_ZN5sword7RawCom4D2Ev
libsword.so.1.7.4:_ZN5sword7RawStr411doLinkEntryEPKcS2_
libsword.so.1.7.4:_ZN5sword7RawStr412createModuleEPKc
libsword.so.1.7.4:_ZN5sword7RawStr49doSetTextEPKcS2_l
libsword.so.1.7.4:_ZN5sword7RawStr4C1EPKcib
libsword.so.1.7.4:_ZN5sword7RawStr4C2EPKcib
libsword.so.1.7.4:_ZN5sword7RawStr4D0Ev
libsword.so.1.7.4:_ZN5sword7RawStr4D1Ev
libsword.so.1.7.4:_ZN5sword7RawStr4D2Ev
libsword.so.1.7.4:_ZN5sword7RawText11deleteEntryEv
libsword.so.1.7.4:_ZN5sword7RawText8setEntryEPKcl
libsword.so.1.7.4:_ZN5sword7RawText9incrementEi
libsword.so.1.7.4:_ZN5sword7RawText9linkEntryEPKNS_5SWKeyE
libsword.so.1.7.4:_ZN5sword7RawTextC1EPKcS2_S2_PNS_9SWDisplayEcccS2_S2_
libsword.so.1.7.4:_ZN5sword7RawTextC2EPKcS2_S2_PNS_9SWDisplayEcccS2_S2_
libsword.so.1.7.4:_ZN5sword7RawTextD0Ev
libsword.so.1.7.4:_ZN5sword7RawTextD1Ev
libsword.so.1.7.4:_ZN5sword7RawTextD2Ev
libsword.so.1.7.4:_ZN5sword7ThMLGBF11processTextERNS_5SWBufEPKNS_5SWKeyEPKNS_8SWModuleE
libsword.so.1.7.4:_ZN5sword7ThMLGBFC1Ev
libsword.so.1.7.4:_ZN5sword7ThMLGBFC2Ev
libsword.so.1.7.4:_ZN5sword7ThMLRTF10MyUserDataC1EPKNS_8SWModuleEPKNS_5SWKeyE
libsword.so.1.7.4:_ZN5sword7ThMLRTF10MyUserDataC2EPKNS_8SWModuleEPKNS_5SWKeyE
libsword.so.1.7.4:_ZN5sword7ThMLRTF11handleTokenERNS_5SWBufEPKcPNS_19BasicFilterUserDataE
libsword.so.1.7.4:_ZN5sword7ThMLRTF11processTextERNS_5SWBufEPKNS_5SWKeyEPKNS_8SWModuleE
libsword.so.1.7.4:_ZN5sword7ThMLRTFC1Ev
libsword.so.1.7.4:_ZN5sword7ThMLRTFC2Ev
libsword.so.1.7.4:_ZN5sword7TreeKey13assureKeyPathEPKc
libsword.so.1.7.4:_ZN5sword7TreeKey4initEv
libsword.so.1.7.4:_ZN5sword7isromanEPKci
libsword.so.1.7.4:_ZN5sword7stricmpEPKcS1_
libsword.so.1.7.4:_ZN5sword7stristrEPKcS1_
libsword.so.1.7.4:_ZN5sword8FileDesc4readEPvl
libsword.so.1.7.4:_ZN5sword8FileDesc4seekEli
libsword.so.1.7.4:_ZN5sword8FileDesc5getFdEv
libsword.so.1.7.4:_ZN5sword8FileDesc5writeEPKvl
libsword.so.1.7.4:_ZN5sword8FileDescC1EPNS_7FileMgrEPKciib
libsword.so.1.7.4:_ZN5sword8FileDescC2EPNS_7FileMgrEPKciib
libsword.so.1.7.4:_ZN5sword8FileDescD0Ev
libsword.so.1.7.4:_ZN5sword8FileDescD1Ev
libsword.so.1.7.4:_ZN5sword8FileDescD2Ev
libsword.so.1.7.4:_ZN5sword8GBFMorph11processTextERNS_5SWBufEPKNS_5SWKeyEPKNS_8SWModuleE
libsword.so.1.7.4:_ZN5sword8GBFMorphC1Ev
libsword.so.1.7.4:_ZN5sword8GBFMorphC2Ev
libsword.so.1.7.4:_ZN5sword8GBFMorphD0Ev
libsword.so.1.7.4:_ZN5sword8GBFMorphD1Ev
libsword.so.1.7.4:_ZN5sword8GBFMorphD2Ev
libsword.so.1.7.4:_ZN5sword8GBFPlain11processTextERNS_5SWBufEPKNS_5SWKeyEPKNS_8SWModuleE
libsword.so.1.7.4:_ZN5sword8GBFPlainC1Ev
libsword.so.1.7.4:_ZN5sword8GBFPlainC2Ev
libsword.so.1.7.4:_ZN5sword8GBFWEBIF11handleTokenERNS_5SWBufEPKcPNS_19BasicFilterUserDataE
libsword.so.1.7.4:_ZN5sword8GBFWEBIFC1Ev
libsword.so.1.7.4:_ZN5sword8GBFWEBIFC2Ev
libsword.so.1.7.4:_ZN5sword8GBFXHTML10MyUserDataC1EPKNS_8SWModuleEPKNS_5SWKeyE
libsword.so.1.7.4:_ZN5sword8GBFXHTML10MyUserDataC2EPKNS_8SWModuleEPKNS_5SWKeyE
libsword.so.1.7.4:_ZN5sword8GBFXHTML11handleTokenERNS_5SWBufEPKcPNS_19BasicFilterUserDataE
libsword.so.1.7.4:_ZN5sword8GBFXHTMLC1Ev
libsword.so.1.7.4:_ZN5sword8GBFXHTMLC2Ev
libsword.so.1.7.4:_ZN5sword8OSISEnum11processTextERNS_5SWBufEPKNS_5SWKeyEPKNS_8SWModuleE
libsword.so.1.7.4:_ZN5sword8OSISEnumC1Ev
libsword.so.1.7.4:_ZN5sword8OSISEnumC2Ev
libsword.so.1.7.4:_ZN5sword8OSISEnumD0Ev
libsword.so.1.7.4:_ZN5sword8OSISEnumD1Ev
libsword.so.1.7.4:_ZN5sword8OSISEnumD2Ev
libsword.so.1.7.4:_ZN5sword8OSISOSIS10MyUserDataC1EPKNS_8SWModuleEPKNS_5SWKeyE
libsword.so.1.7.4:_ZN5sword8OSISOSIS10MyUserDataC2EPKNS_8SWModuleEPKNS_5SWKeyE
libsword.so.1.7.4:_ZN5sword8OSISOSIS11handleTokenERNS_5SWBufEPKcPNS_19BasicFilterUserDataE
libsword.so.1.7.4:_ZN5sword8OSISOSIS11processTextERNS_5SWBufEPKNS_5SWKeyEPKNS_8SWModuleE
libsword.so.1.7.4:_ZN5sword8OSISOSISC1Ev
libsword.so.1.7.4:_ZN5sword8OSISOSISC2Ev
libsword.so.1.7.4:_ZN5sword8OSISXlit11processTextERNS_5SWBufEPKNS_5SWKeyEPKNS_8SWModuleE
libsword.so.1.7.4:_ZN5sword8OSISXlitC1Ev
libsword.so.1.7.4:_ZN5sword8OSISXlitC2Ev
libsword.so.1.7.4:_ZN5sword8OSISXlitD0Ev
libsword.so.1.7.4:_ZN5sword8OSISXlitD1Ev
libsword.so.1.7.4:_ZN5sword8OSISXlitD2Ev
libsword.so.1.7.4:_ZN5sword8RawFiles11deleteEntryEv
libsword.so.1.7.4:_ZN5sword8RawFiles12createModuleEPKc
libsword.so.1.7.4:_ZN5sword8RawFiles15getNextFilenameEv
libsword.so.1.7.4:_ZN5sword8RawFiles8setEntryEPKcl
libsword.so.1.7.4:_ZN5sword8RawFiles9linkEntryEPKNS_5SWKeyE
libsword.so.1.7.4:_ZN5sword8RawFilesC1EPKcS2_S2_PNS_9SWDisplayEcccS2_
libsword.so.1.7.4:_ZN5sword8RawFilesC2EPKcS2_S2_PNS_9SWDisplayEcccS2_
libsword.so.1.7.4:_ZN5sword8RawFilesD0Ev
libsword.so.1.7.4:_ZN5sword8RawFilesD1Ev
libsword.so.1.7.4:_ZN5sword8RawFilesD2Ev
libsword.so.1.7.4:_ZN5sword8RawText411deleteEntryEv
libsword.so.1.7.4:_ZN5sword8RawText48setEntryEPKcl
libsword.so.1.7.4:_ZN5sword8RawText49incrementEi
libsword.so.1.7.4:_ZN5sword8RawText49linkEntryEPKNS_5SWKeyE
libsword.so.1.7.4:_ZN5sword8RawText4C1EPKcS2_S2_PNS_9SWDisplayEcccS2_S2_
libsword.so.1.7.4:_ZN5sword8RawText4C2EPKcS2_S2_PNS_9SWDisplayEcccS2_S2_
libsword.so.1.7.4:_ZN5sword8RawText4D0Ev
libsword.so.1.7.4:_ZN5sword8RawText4D1Ev
libsword.so.1.7.4:_ZN5sword8RawText4D2Ev
libsword.so.1.7.4:_ZN5sword8RawVerse11doLinkEntryEcll
libsword.so.1.7.4:_ZN5sword8RawVerse12createModuleEPKcS2_
libsword.so.1.7.4:_ZN5sword8RawVerse9doSetTextEclPKcl
libsword.so.1.7.4:_ZN5sword8RawVerseC1EPKci
libsword.so.1.7.4:_ZN5sword8RawVerseC2EPKci
libsword.so.1.7.4:_ZN5sword8RawVerseD0Ev
libsword.so.1.7.4:_ZN5sword8RawVerseD1Ev
libsword.so.1.7.4:_ZN5sword8RawVerseD2Ev
libsword.so.1.7.4:_ZN5sword8SCSUUTF810UTF8OutputEmPh
libsword.so.1.7.4:_ZN5sword8SCSUUTF811processTextERNS_5SWBufEPKNS_5SWKeyEPKNS_8SWModuleE
libsword.so.1.7.4:_ZN5sword8SCSUUTF8C1Ev
libsword.so.1.7.4:_ZN5sword8SCSUUTF8C2Ev
libsword.so.1.7.4:_ZN5sword8SWCacher10lastAccessEv
libsword.so.1.7.4:_ZN5sword8SWCacher19resourceConsumptionEv
libsword.so.1.7.4:_ZN5sword8SWCacher5flushEv
libsword.so.1.7.4:_ZN5sword8SWCacherC1Ev
libsword.so.1.7.4:_ZN5sword8SWCacherC2Ev
libsword.so.1.7.4:_ZN5sword8SWCacherD0Ev
libsword.so.1.7.4:_ZN5sword8SWCacherD1Ev
libsword.so.1.7.4:_ZN5sword8SWCacherD2Ev
libsword.so.1.7.4:_ZN5sword8SWCipher12setCipherKeyEPKc
libsword.so.1.7.4:_ZN5sword8SWCipher3BufEPKcm
libsword.so.1.7.4:_ZN5sword8SWCipher6DecodeEv
libsword.so.1.7.4:_ZN5sword8SWCipher6EncodeEv
libsword.so.1.7.4:_ZN5sword8SWCipher9cipherBufEPmPKc
libsword.so.1.7.4:_ZN5sword8SWCipherC1EPh
libsword.so.1.7.4:_ZN5sword8SWCipherC2EPh
libsword.so.1.7.4:_ZN5sword8SWCipherD0Ev
libsword.so.1.7.4:_ZN5sword8SWCipherD1Ev
libsword.so.1.7.4:_ZN5sword8SWCipherD2Ev
libsword.so.1.7.4:_ZN5sword8SWConfig4LoadEv
libsword.so.1.7.4:_ZN5sword8SWConfig4SaveEv
libsword.so.1.7.4:_ZN5sword8SWConfig7augmentERS0_
libsword.so.1.7.4:_ZN5sword8SWConfigC1EPKc
libsword.so.1.7.4:_ZN5sword8SWConfigC1Ev
libsword.so.1.7.4:_ZN5sword8SWConfigC2EPKc
libsword.so.1.7.4:_ZN5sword8SWConfigC2Ev
libsword.so.1.7.4:_ZN5sword8SWConfigD0Ev
libsword.so.1.7.4:_ZN5sword8SWConfigD1Ev
libsword.so.1.7.4:_ZN5sword8SWConfigD2Ev
libsword.so.1.7.4:_ZN5sword8SWConfigixEPKc
libsword.so.1.7.4:_ZN5sword8SWLocale11getEncodingEv
libsword.so.1.7.4:_ZN5sword8SWLocale14getBookAbbrevsEPi
libsword.so.1.7.4:_ZN5sword8SWLocale14getDescriptionEv
libsword.so.1.7.4:_ZN5sword8SWLocale7augmentERS0_
libsword.so.1.7.4:_ZN5sword8SWLocale7getNameEv
libsword.so.1.7.4:_ZN5sword8SWLocale9translateEPKc
libsword.so.1.7.4:_ZN5sword8SWLocaleC1EPKc
libsword.so.1.7.4:_ZN5sword8SWLocaleC2EPKc
libsword.so.1.7.4:_ZN5sword8SWLocaleD0Ev
libsword.so.1.7.4:_ZN5sword8SWLocaleD1Ev
libsword.so.1.7.4:_ZN5sword8SWLocaleD2Ev
libsword.so.1.7.4:_ZN5sword8SWModule10renderTextEPKNS_5SWKeyE
libsword.so.1.7.4:_ZN5sword8SWModule10renderTextEPKcib
libsword.so.1.7.4:_ZN5sword8SWModule10setDisplayEPNS_9SWDisplayE
libsword.so.1.7.4:_ZN5sword8SWModule11setPositionENS_11SW_POSITIONE
libsword.so.1.7.4:_ZN5sword8SWModule12createModuleEPKc
libsword.so.1.7.4:_ZN5sword8SWModule18hasSearchFrameworkEv
libsword.so.1.7.4:_ZN5sword8SWModule21createSearchFrameworkEPFvcPvES1_
libsword.so.1.7.4:_ZN5sword8SWModule21deleteSearchFrameworkEv
libsword.so.1.7.4:_ZN5sword8SWModule6searchEPKciiPNS_5SWKeyEPbPFvcPvES6_
libsword.so.1.7.4:_ZN5sword8SWModule6setKeyEPKNS_5SWKeyE
libsword.so.1.7.4:_ZN5sword8SWModule7displayEv
libsword.so.1.7.4:_ZN5sword8SWModule8popErrorEv
libsword.so.1.7.4:_ZN5sword8SWModule8prepTextERNS_5SWBufE
libsword.so.1.7.4:_ZN5sword8SWModule8setEntryEPKcl
libsword.so.1.7.4:_ZN5sword8SWModule9decrementEi
libsword.so.1.7.4:_ZN5sword8SWModule9incrementEi
libsword.so.1.7.4:_ZN5sword8SWModule9linkEntryEPKNS_5SWKeyE
libsword.so.1.7.4:_ZN5sword8SWModule9setConfigEPNS_19multimapwithdefaultINS_5SWBufES2_St4lessIS2_EEE
libsword.so.1.7.4:_ZN5sword8SWModule9stripTextEPKNS_5SWKeyE
libsword.so.1.7.4:_ZN5sword8SWModule9stripTextEPKci
libsword.so.1.7.4:_ZN5sword8SWModuleC1EPKcS2_PNS_9SWDisplayES2_cccS2_
libsword.so.1.7.4:_ZN5sword8SWModuleC2EPKcS2_PNS_9SWDisplayES2_cccS2_
libsword.so.1.7.4:_ZN5sword8SWModuleD0Ev
libsword.so.1.7.4:_ZN5sword8SWModuleD1Ev
libsword.so.1.7.4:_ZN5sword8SWModuleD2Ev
libsword.so.1.7.4:_ZN5sword8TEIPlain11handleTokenERNS_5SWBufEPKcPNS_19BasicFilterUserDataE
libsword.so.1.7.4:_ZN5sword8TEIPlainC1Ev
libsword.so.1.7.4:_ZN5sword8TEIPlainC2Ev
libsword.so.1.7.4:_ZN5sword8TEIXHTML10MyUserDataC1EPKNS_8SWModuleEPKNS_5SWKeyE
libsword.so.1.7.4:_ZN5sword8TEIXHTML10MyUserDataC2EPKNS_8SWModuleEPKNS_5SWKeyE
libsword.so.1.7.4:_ZN5sword8TEIXHTML11handleTokenERNS_5SWBufEPKcPNS_19BasicFilterUserDataE
libsword.so.1.7.4:_ZN5sword8TEIXHTMLC1Ev
libsword.so.1.7.4:_ZN5sword8TEIXHTMLC2Ev
libsword.so.1.7.4:_ZN5sword8ThMLHTML11handleTokenERNS_5SWBufEPKcPNS_19BasicFilterUserDataE
libsword.so.1.7.4:_ZN5sword8ThMLHTMLC1Ev
libsword.so.1.7.4:_ZN5sword8ThMLHTMLC2Ev
libsword.so.1.7.4:_ZN5sword8ThMLOSIS11processTextERNS_5SWBufEPKNS_5SWKeyEPKNS_8SWModuleE
libsword.so.1.7.4:_ZN5sword8ThMLOSISC1Ev
libsword.so.1.7.4:_ZN5sword8ThMLOSISC2Ev
libsword.so.1.7.4:_ZN5sword8ThMLOSISD0Ev
libsword.so.1.7.4:_ZN5sword8ThMLOSISD1Ev
libsword.so.1.7.4:_ZN5sword8ThMLOSISD2Ev
libsword.so.1.7.4:_ZN5sword8UTF8HTML11processTextERNS_5SWBufEPKNS_5SWKeyEPKNS_8SWModuleE
libsword.so.1.7.4:_ZN5sword8UTF8HTMLC1Ev
libsword.so.1.7.4:_ZN5sword8UTF8HTMLC2Ev
libsword.so.1.7.4:_ZN5sword8VerseKey10setChapterEi
libsword.so.1.7.4:_ZN5sword8VerseKey11checkBoundsEv
libsword.so.1.7.4:_ZN5sword8VerseKey11clearBoundsEv
libsword.so.1.7.4:_ZN5sword8VerseKey11setBookNameEPKc
libsword.so.1.7.4:_ZN5sword8VerseKey11setPositionENS_11SW_POSITIONE
libsword.so.1.7.4:_ZN5sword8VerseKey12positionFromERKNS_5SWKeyE
libsword.so.1.7.4:_ZN5sword8VerseKey12setFromOtherERKS0_
libsword.so.1.7.4:_ZN5sword8VerseKey12setTestamentEc
libsword.so.1.7.4:_ZN5sword8VerseKey13convertToOSISEPKcPKNS_5SWKeyE
libsword.so.1.7.4:_ZN5sword8VerseKey13setLowerBoundERKS0_
libsword.so.1.7.4:_ZN5sword8VerseKey13setUpperBoundERKS0_
libsword.so.1.7.4:_ZN5sword8VerseKey14parseVerseListEPKcS2_bb
libsword.so.1.7.4:_ZN5sword8VerseKey16setAutoNormalizeEb
libsword.so.1.7.4:_ZN5sword8VerseKey22setVersificationSystemEPKc
libsword.so.1.7.4:_ZN5sword8VerseKey4initEPKc
libsword.so.1.7.4:_ZN5sword8VerseKey5parseEb
libsword.so.1.7.4:_ZN5sword8VerseKey7compareERKNS_5SWKeyE
libsword.so.1.7.4:_ZN5sword8VerseKey7setBookEc
libsword.so.1.7.4:_ZN5sword8VerseKey8_compareERKS0_
libsword.so.1.7.4:_ZN5sword8VerseKey8copyFromERKNS_5SWKeyE
libsword.so.1.7.4:_ZN5sword8VerseKey8copyFromERKS0_
libsword.so.1.7.4:_ZN5sword8VerseKey8setIndexEl
libsword.so.1.7.4:_ZN5sword8VerseKey8setVerseEi
libsword.so.1.7.4:_ZN5sword8VerseKey9decrementEi
libsword.so.1.7.4:_ZN5sword8VerseKey9incrementEi
libsword.so.1.7.4:_ZN5sword8VerseKey9normalizeEb
libsword.so.1.7.4:_ZN5sword8VerseKey9setIntrosEb
libsword.so.1.7.4:_ZN5sword8VerseKey9setSuffixEc
libsword.so.1.7.4:_ZN5sword8VerseKeyC1EPKNS_5SWKeyE
libsword.so.1.7.4:_ZN5sword8VerseKeyC1EPKc
libsword.so.1.7.4:_ZN5sword8VerseKeyC1EPKcS2_S2_
libsword.so.1.7.4:_ZN5sword8VerseKeyC1ERKNS_5SWKeyE
libsword.so.1.7.4:_ZN5sword8VerseKeyC1ERKS0_
libsword.so.1.7.4:_ZN5sword8VerseKeyC2EPKNS_5SWKeyE
libsword.so.1.7.4:_ZN5sword8VerseKeyC2EPKc
libsword.so.1.7.4:_ZN5sword8VerseKeyC2EPKcS2_S2_
libsword.so.1.7.4:_ZN5sword8VerseKeyC2ERKNS_5SWKeyE
libsword.so.1.7.4:_ZN5sword8VerseKeyC2ERKS0_
libsword.so.1.7.4:_ZN5sword8VerseKeyD0Ev
libsword.so.1.7.4:_ZN5sword8VerseKeyD1Ev
libsword.so.1.7.4:_ZN5sword8VerseKeyD2Ev
libsword.so.1.7.4:_ZN5sword8from_romEPKc
libsword.so.1.7.4:_ZN5sword8sapphire10hash_finalEPhh
libsword.so.1.7.4:_ZN5sword8sapphire10initializeEPhh
libsword.so.1.7.4:_ZN5sword8sapphire4burnEv
libsword.so.1.7.4:_ZN5sword8sapphire7decryptEh
libsword.so.1.7.4:_ZN5sword8sapphire7encryptEh
libsword.so.1.7.4:_ZN5sword8sapphire7keyrandEiPhhS1_Pj
libsword.so.1.7.4:_ZN5sword8sapphire9hash_initEv
libsword.so.1.7.4:_ZN5sword8sapphireC1EPhh
libsword.so.1.7.4:_ZN5sword8sapphireC2EPhh
libsword.so.1.7.4:_ZN5sword8sapphireD1Ev
libsword.so.1.7.4:_ZN5sword8sapphireD2Ev
libsword.so.1.7.4:_ZN5sword8strnicmpEPKcS1_i
libsword.so.1.7.4:_ZN5sword8strstripEPc
libsword.so.1.7.4:_ZN5sword9GBFWordJS11processTextERNS_5SWBufEPKNS_5SWKeyEPKNS_8SWModuleE
libsword.so.1.7.4:_ZN5sword9GBFWordJSC1Ev
libsword.so.1.7.4:_ZN5sword9GBFWordJSC2Ev
libsword.so.1.7.4:_ZN5sword9GBFWordJSD0Ev
libsword.so.1.7.4:_ZN5sword9GBFWordJSD1Ev
libsword.so.1.7.4:_ZN5sword9GBFWordJSD2Ev
libsword.so.1.7.4:_ZN5sword9LocaleMgr13deleteLocalesEv
libsword.so.1.7.4:_ZN5sword9LocaleMgr13loadConfigDirEPKc
libsword.so.1.7.4:_ZN5sword9LocaleMgr18getSystemLocaleMgrEv
libsword.so.1.7.4:_ZN5sword9LocaleMgr18setSystemLocaleMgrEPS0_
libsword.so.1.7.4:_ZN5sword9LocaleMgr19getAvailableLocalesB5cxx11Ev
libsword.so.1.7.4:_ZN5sword9LocaleMgr20getDefaultLocaleNameEv
libsword.so.1.7.4:_ZN5sword9LocaleMgr20setDefaultLocaleNameEPKc
libsword.so.1.7.4:_ZN5sword9LocaleMgr9getLocaleEPKc
libsword.so.1.7.4:_ZN5sword9LocaleMgr9translateEPKcS2_
libsword.so.1.7.4:_ZN5sword9LocaleMgrC1EPKc
libsword.so.1.7.4:_ZN5sword9LocaleMgrC2EPKc
libsword.so.1.7.4:_ZN5sword9LocaleMgrD0Ev
libsword.so.1.7.4:_ZN5sword9LocaleMgrD1Ev
libsword.so.1.7.4:_ZN5sword9LocaleMgrD2Ev
libsword.so.1.7.4:_ZN5sword9OSISLemma11processTextERNS_5SWBufEPKNS_5SWKeyEPKNS_8SWModuleE
libsword.so.1.7.4:_ZN5sword9OSISLemmaC1Ev
libsword.so.1.7.4:_ZN5sword9OSISLemmaC2Ev
libsword.so.1.7.4:_ZN5sword9OSISLemmaD0Ev
libsword.so.1.7.4:_ZN5sword9OSISLemmaD1Ev
libsword.so.1.7.4:_ZN5sword9OSISLemmaD2Ev
libsword.so.1.7.4:_ZN5sword9OSISMorph11processTextERNS_5SWBufEPKNS_5SWKeyEPKNS_8SWModuleE
libsword.so.1.7.4:_ZN5sword9OSISMorphC1Ev
libsword.so.1.7.4:_ZN5sword9OSISMorphC2Ev
libsword.so.1.7.4:_ZN5sword9OSISMorphD0Ev
libsword.so.1.7.4:_ZN5sword9OSISMorphD1Ev
libsword.so.1.7.4:_ZN5sword9OSISMorphD2Ev
libsword.so.1.7.4:_ZN5sword9OSISPlain11handleTokenERNS_5SWBufEPKcPNS_19BasicFilterUserDataE
libsword.so.1.7.4:_ZN5sword9OSISPlain14createUserDataEPKNS_8SWModuleEPKNS_5SWKeyE
libsword.so.1.7.4:_ZN5sword9OSISPlainC1Ev
libsword.so.1.7.4:_ZN5sword9OSISPlainC2Ev
libsword.so.1.7.4:_ZN5sword9OSISWEBIF11handleTokenERNS_5SWBufEPKcPNS_19BasicFilterUserDataE
libsword.so.1.7.4:_ZN5sword9OSISWEBIF14createUserDataEPKNS_8SWModuleEPKNS_5SWKeyE
libsword.so.1.7.4:_ZN5sword9OSISWEBIFC1Ev
libsword.so.1.7.4:_ZN5sword9OSISWEBIFC2Ev
libsword.so.1.7.4:_ZN5sword9OSISXHTML10MyUserData13outputNewlineERNS_5SWBufE
libsword.so.1.7.4:_ZN5sword9OSISXHTML10MyUserDataC1EPKNS_8SWModuleEPKNS_5SWKeyE
libsword.so.1.7.4:_ZN5sword9OSISXHTML10MyUserDataC2EPKNS_8SWModuleEPKNS_5SWKeyE
libsword.so.1.7.4:_ZN5sword9OSISXHTML10MyUserDataD0Ev
libsword.so.1.7.4:_ZN5sword9OSISXHTML10MyUserDataD1Ev
libsword.so.1.7.4:_ZN5sword9OSISXHTML10MyUserDataD2Ev
libsword.so.1.7.4:_ZN5sword9OSISXHTML11handleTokenERNS_5SWBufEPKcPNS_19BasicFilterUserDataE
libsword.so.1.7.4:_ZN5sword9OSISXHTML14createUserDataEPKNS_8SWModuleEPKNS_5SWKeyE
libsword.so.1.7.4:_ZN5sword9OSISXHTMLC1Ev
libsword.so.1.7.4:_ZN5sword9OSISXHTMLC2Ev
libsword.so.1.7.4:_ZN5sword9RawVerse411doLinkEntryEcll
libsword.so.1.7.4:_ZN5sword9RawVerse412createModuleEPKcS2_
libsword.so.1.7.4:_ZN5sword9RawVerse49doSetTextEclPKcl
libsword.so.1.7.4:_ZN5sword9RawVerse4C1EPKci
libsword.so.1.7.4:_ZN5sword9RawVerse4C2EPKci
libsword.so.1.7.4:_ZN5sword9RawVerse4D0Ev
libsword.so.1.7.4:_ZN5sword9RawVerse4D1Ev
libsword.so.1.7.4:_ZN5sword9RawVerse4D2Ev
libsword.so.1.7.4:_ZN5sword9SWGenBookC1EPKcS2_PNS_9SWDisplayEcccS2_
libsword.so.1.7.4:_ZN5sword9SWGenBookC2EPKcS2_PNS_9SWDisplayEcccS2_
libsword.so.1.7.4:_ZN5sword9SWGenBookD0Ev
libsword.so.1.7.4:_ZN5sword9SWGenBookD1Ev
libsword.so.1.7.4:_ZN5sword9SWGenBookD2Ev
libsword.so.1.7.4:_ZN5sword9SWVersionC1EPKc
libsword.so.1.7.4:_ZN5sword9SWVersionC2EPKc
libsword.so.1.7.4:_ZN5sword9StringMgr18getSystemStringMgrEv
libsword.so.1.7.4:_ZN5sword9StringMgr18setSystemStringMgrEPS0_
libsword.so.1.7.4:_ZN5sword9StringMgrC1ERKS0_
libsword.so.1.7.4:_ZN5sword9StringMgrC1Ev
libsword.so.1.7.4:_ZN5sword9StringMgrC2ERKS0_
libsword.so.1.7.4:_ZN5sword9StringMgrC2Ev
libsword.so.1.7.4:_ZN5sword9StringMgrD0Ev
libsword.so.1.7.4:_ZN5sword9StringMgrD1Ev
libsword.so.1.7.4:_ZN5sword9StringMgrD2Ev
libsword.so.1.7.4:_ZN5sword9ThMLLemma11processTextERNS_5SWBufEPKNS_5SWKeyEPKNS_8SWModuleE
libsword.so.1.7.4:_ZN5sword9ThMLLemmaC1Ev
libsword.so.1.7.4:_ZN5sword9ThMLLemmaC2Ev
libsword.so.1.7.4:_ZN5sword9ThMLLemmaD0Ev
libsword.so.1.7.4:_ZN5sword9ThMLLemmaD1Ev
libsword.so.1.7.4:_ZN5sword9ThMLLemmaD2Ev
libsword.so.1.7.4:_ZN5sword9ThMLMorph11processTextERNS_5SWBufEPKNS_5SWKeyEPKNS_8SWModuleE
libsword.so.1.7.4:_ZN5sword9ThMLMorphC1Ev
libsword.so.1.7.4:_ZN5sword9ThMLMorphC2Ev
libsword.so.1.7.4:_ZN5sword9ThMLMorphD0Ev
libsword.so.1.7.4:_ZN5sword9ThMLMorphD1Ev
libsword.so.1.7.4:_ZN5sword9ThMLMorphD2Ev
libsword.so.1.7.4:_ZN5sword9ThMLPlain11processTextERNS_5SWBufEPKNS_5SWKeyEPKNS_8SWModuleE
libsword.so.1.7.4:_ZN5sword9ThMLPlainC1Ev
libsword.so.1.7.4:_ZN5sword9ThMLPlainC2Ev
libsword.so.1.7.4:_ZN5sword9ThMLWEBIF11handleTokenERNS_5SWBufEPKcPNS_19BasicFilterUserDataE
libsword.so.1.7.4:_ZN5sword9ThMLWEBIFC1Ev
libsword.so.1.7.4:_ZN5sword9ThMLWEBIFC2Ev
libsword.so.1.7.4:_ZN5sword9ThMLXHTML10MyUserDataC1EPKNS_8SWModuleEPKNS_5SWKeyE
libsword.so.1.7.4:_ZN5sword9ThMLXHTML10MyUserDataC2EPKNS_8SWModuleEPKNS_5SWKeyE
libsword.so.1.7.4:_ZN5sword9ThMLXHTML11handleTokenERNS_5SWBufEPKcPNS_19BasicFilterUserDataE
libsword.so.1.7.4:_ZN5sword9ThMLXHTMLC1Ev
libsword.so.1.7.4:_ZN5sword9ThMLXHTMLC2Ev
libsword.so.1.7.4:_ZN5sword9UTF16UTF811processTextERNS_5SWBufEPKNS_5SWKeyEPKNS_8SWModuleE
libsword.so.1.7.4:_ZN5sword9UTF16UTF8C1Ev
libsword.so.1.7.4:_ZN5sword9UTF16UTF8C2Ev
libsword.so.1.7.4:_ZN5sword9UTF8UTF1611processTextERNS_5SWBufEPKNS_5SWKeyEPKNS_8SWModuleE
libsword.so.1.7.4:_ZN5sword9UTF8UTF16C1Ev
libsword.so.1.7.4:_ZN5sword9UTF8UTF16C2Ev
libsword.so.1.7.4:_ZNK5sword10RawGenBook10isWritableEv
libsword.so.1.7.4:_ZNK5sword10RawGenBook14getRawEntryBufEv
libsword.so.1.7.4:_ZNK5sword10RawGenBook8hasEntryEPKNS_5SWKeyE
libsword.so.1.7.4:_ZNK5sword10RawGenBook9createKeyEv
libsword.so.1.7.4:_ZNK5sword10TreeKeyIdx11getUserDataEPi
libsword.so.1.7.4:_ZNK5sword10TreeKeyIdx24getTreeNodeFromDatOffsetElPNS0_8TreeNodeE
libsword.so.1.7.4:_ZNK5sword10TreeKeyIdx24getTreeNodeFromIdxOffsetElPNS0_8TreeNodeE
libsword.so.1.7.4:_ZNK5sword10TreeKeyIdx5cloneEv
libsword.so.1.7.4:_ZNK5sword10TreeKeyIdx7getTextEv
libsword.so.1.7.4:_ZNK5sword10TreeKeyIdx9getOffsetEv
libsword.so.1.7.4:_ZNK5sword12VerseTreeKey17getBookFromAbbrevEPKc
libsword.so.1.7.4:_ZNK5sword12VerseTreeKey5cloneEv
libsword.so.1.7.4:_ZNK5sword12VerseTreeKey8NewIndexEv
libsword.so.1.7.4:_ZNK5sword16VersificationMgr22getVersificationSystemEPKc
libsword.so.1.7.4:_ZNK5sword16VersificationMgr23getVersificationSystemsB5cxx11Ev
libsword.so.1.7.4:_ZNK5sword16VersificationMgr4Book11getVerseMaxEi
libsword.so.1.7.4:_ZNK5sword16VersificationMgr6System12getBookCountEv
libsword.so.1.7.4:_ZNK5sword16VersificationMgr6System18getOffsetFromVerseEiii
libsword.so.1.7.4:_ZNK5sword16VersificationMgr6System18getVerseFromOffsetElPiS2_S2_
libsword.so.1.7.4:_ZNK5sword16VersificationMgr6System23getBookNumberByOSISNameEPKc
libsword.so.1.7.4:_ZNK5sword16VersificationMgr6System7getBookEi
libsword.so.1.7.4:_ZNK5sword3URL11getHostNameEv
libsword.so.1.7.4:_ZNK5sword3URL11getProtocolEv
libsword.so.1.7.4:_ZNK5sword3URL13getParametersEv
libsword.so.1.7.4:_ZNK5sword3URL17getParameterValueEPKc
libsword.so.1.7.4:_ZNK5sword3URL7getPathEv
libsword.so.1.7.4:_ZNK5sword3zLD10isWritableEv
libsword.so.1.7.4:_ZNK5sword3zLD13getEntryCountEv
libsword.so.1.7.4:_ZNK5sword3zLD14getEntryForKeyEPKc
libsword.so.1.7.4:_ZNK5sword3zLD14getKeyForEntryEl
libsword.so.1.7.4:_ZNK5sword3zLD14getRawEntryBufEv
libsword.so.1.7.4:_ZNK5sword3zLD8getEntryEl
libsword.so.1.7.4:_ZNK5sword4SWLD10getKeyTextEv
libsword.so.1.7.4:_ZNK5sword4SWLD8hasEntryEPKNS_5SWKeyE
libsword.so.1.7.4:_ZNK5sword4SWLD9createKeyEv
libsword.so.1.7.4:_ZNK5sword4zCom10isWritableEv
libsword.so.1.7.4:_ZNK5sword4zCom14getRawEntryBufEv
libsword.so.1.7.4:_ZNK5sword4zCom8hasEntryEPKNS_5SWKeyE
libsword.so.1.7.4:_ZNK5sword4zCom8isLinkedEPKNS_5SWKeyES3_
libsword.so.1.7.4:_ZNK5sword4zStr10flushCacheEv
libsword.so.1.7.4:_ZNK5sword4zStr12findKeyIndexEPKcPll
libsword.so.1.7.4:_ZNK5sword4zStr17getCompressedTextEllPPc
libsword.so.1.7.4:_ZNK5sword4zStr19getKeyFromDatOffsetElPPc
libsword.so.1.7.4:_ZNK5sword4zStr19getKeyFromIdxOffsetElPPc
libsword.so.1.7.4:_ZNK5sword4zStr7getTextElPPcS2_
libsword.so.1.7.4:_ZNK5sword5RawLD10isWritableEv
libsword.so.1.7.4:_ZNK5sword5RawLD13getEntryCountEv
libsword.so.1.7.4:_ZNK5sword5RawLD14getEntryForKeyEPKc
libsword.so.1.7.4:_ZNK5sword5RawLD14getKeyForEntryEl
libsword.so.1.7.4:_ZNK5sword5RawLD14getRawEntryBufEv
libsword.so.1.7.4:_ZNK5sword5RawLD8getEntryEl
libsword.so.1.7.4:_ZNK5sword5SWCom11getVerseKeyEPKNS_5SWKeyE
libsword.so.1.7.4:_ZNK5sword5SWCom8getIndexEv
libsword.so.1.7.4:_ZNK5sword5SWCom9createKeyEv
libsword.so.1.7.4:_ZNK5sword5SWKey12getRangeTextEv
libsword.so.1.7.4:_ZNK5sword5SWKey16getPrivateLocaleEv
libsword.so.1.7.4:_ZNK5sword5SWKey19getOSISRefRangeTextEv
libsword.so.1.7.4:_ZNK5sword5SWKey5cloneEv
libsword.so.1.7.4:_ZNK5sword5SWKey7getTextEv
libsword.so.1.7.4:_ZNK5sword5SWKey9isPersistEv
libsword.so.1.7.4:_ZNK5sword5SWLog10logMessageEPKci
libsword.so.1.7.4:_ZNK5sword5SWLog10logWarningEPKcz
libsword.so.1.7.4:_ZNK5sword5SWLog14logInformationEPKcz
libsword.so.1.7.4:_ZNK5sword5SWLog19logTimedInformationEPKcz
libsword.so.1.7.4:_ZNK5sword5SWLog8logDebugEPKcz
libsword.so.1.7.4:_ZNK5sword5SWLog8logErrorEPKcz
libsword.so.1.7.4:_ZNK5sword5zText10isWritableEv
libsword.so.1.7.4:_ZNK5sword5zText14getRawEntryBufEv
libsword.so.1.7.4:_ZNK5sword5zText8hasEntryEPKNS_5SWKeyE
libsword.so.1.7.4:_ZNK5sword5zText8isLinkedEPKNS_5SWKeyES3_
libsword.so.1.7.4:_ZNK5sword6RawCom10isWritableEv
libsword.so.1.7.4:_ZNK5sword6RawCom14getRawEntryBufEv
libsword.so.1.7.4:_ZNK5sword6RawCom8hasEntryEPKNS_5SWKeyE
libsword.so.1.7.4:_ZNK5sword6RawCom8isLinkedEPKNS_5SWKeyES3_
libsword.so.1.7.4:_ZNK5sword6RawLD410isWritableEv
libsword.so.1.7.4:_ZNK5sword6RawLD413getEntryCountEv
libsword.so.1.7.4:_ZNK5sword6RawLD414getEntryForKeyEPKc
libsword.so.1.7.4:_ZNK5sword6RawLD414getKeyForEntryEl
libsword.so.1.7.4:_ZNK5sword6RawLD414getRawEntryBufEv
libsword.so.1.7.4:_ZNK5sword6RawLD48getEntryEl
libsword.so.1.7.4:_ZNK5sword6RawStr10findOffsetEPKcPjPtlS3_
libsword.so.1.7.4:_ZNK5sword6RawStr12getIDXBufDatElPPc
libsword.so.1.7.4:_ZNK5sword6RawStr8readTextEjPtPPcRNS_5SWBufE
libsword.so.1.7.4:_ZNK5sword6RawStr9getIDXBufElPPc
libsword.so.1.7.4:_ZNK5sword6SWText11getVerseKeyEPKNS_5SWKeyE
libsword.so.1.7.4:_ZNK5sword6SWText8getIndexEv
libsword.so.1.7.4:_ZNK5sword6SWText9createKeyEv
libsword.so.1.7.4:_ZNK5sword6XMLTag12getAttributeEPKcic
libsword.so.1.7.4:_ZNK5sword6XMLTag17getAttributeNamesB5cxx11Ev
libsword.so.1.7.4:_ZNK5sword6XMLTag21getAttributePartCountEPKcc
libsword.so.1.7.4:_ZNK5sword6XMLTag5parseEv
libsword.so.1.7.4:_ZNK5sword6XMLTag7getPartEPKcic
libsword.so.1.7.4:_ZNK5sword6XMLTag8isEndTagEPKc
libsword.so.1.7.4:_ZNK5sword6XMLTag8toStringEv
libsword.so.1.7.4:_ZNK5sword6zVerse10findOffsetEclPlPtPm
libsword.so.1.7.4:_ZNK5sword6zVerse10flushCacheEv
libsword.so.1.7.4:_ZNK5sword6zVerse9zReadTextEcltmRNS_5SWBufE
libsword.so.1.7.4:_ZNK5sword7HREFCom14getRawEntryBufEv
libsword.so.1.7.4:_ZNK5sword7ListKey10getElementEi
libsword.so.1.7.4:_ZNK5sword7ListKey12getRangeTextEv
libsword.so.1.7.4:_ZNK5sword7ListKey12getShortTextEv
libsword.so.1.7.4:_ZNK5sword7ListKey19getOSISRefRangeTextEv
libsword.so.1.7.4:_ZNK5sword7ListKey5cloneEv
libsword.so.1.7.4:_ZNK5sword7ListKey7getTextEv
libsword.so.1.7.4:_ZNK5sword7ListKey8getCountEv
libsword.so.1.7.4:_ZNK5sword7RawCom410isWritableEv
libsword.so.1.7.4:_ZNK5sword7RawCom414getRawEntryBufEv
libsword.so.1.7.4:_ZNK5sword7RawCom48hasEntryEPKNS_5SWKeyE
libsword.so.1.7.4:_ZNK5sword7RawCom48isLinkedEPKNS_5SWKeyES3_
libsword.so.1.7.4:_ZNK5sword7RawStr410findOffsetEPKcPjS3_lS3_
libsword.so.1.7.4:_ZNK5sword7RawStr412getIDXBufDatElPPc
libsword.so.1.7.4:_ZNK5sword7RawStr48readTextEjPjPPcRNS_5SWBufE
libsword.so.1.7.4:_ZNK5sword7RawStr49getIDXBufElPPc
libsword.so.1.7.4:_ZNK5sword7RawText10isWritableEv
libsword.so.1.7.4:_ZNK5sword7RawText14getRawEntryBufEv
libsword.so.1.7.4:_ZNK5sword7RawText8hasEntryEPKNS_5SWKeyE
libsword.so.1.7.4:_ZNK5sword7RawText8isLinkedEPKNS_5SWKeyES3_
libsword.so.1.7.4:_ZNK5sword7SWClass16isAssignableFromEPKc
libsword.so.1.7.4:_ZNK5sword8GBFXHTML9getHeaderEv
libsword.so.1.7.4:_ZNK5sword8RawFiles10isWritableEv
libsword.so.1.7.4:_ZNK5sword8RawFiles14getRawEntryBufEv
libsword.so.1.7.4:_ZNK5sword8RawText410isWritableEv
libsword.so.1.7.4:_ZNK5sword8RawText414getRawEntryBufEv
libsword.so.1.7.4:_ZNK5sword8RawText48hasEntryEPKNS_5SWKeyE
libsword.so.1.7.4:_ZNK5sword8RawText48isLinkedEPKNS_5SWKeyES3_
libsword.so.1.7.4:_ZNK5sword8RawVerse10findOffsetEclPlPt
libsword.so.1.7.4:_ZNK5sword8RawVerse8readTextEcltRNS_5SWBufE
libsword.so.1.7.4:_ZNK5sword8SWModule10getDisplayEv
libsword.so.1.7.4:_ZNK5sword8SWModule12filterBufferEPNSt7__cxx114listIPNS_14SWOptionFilterESaIS4_EEERNS_5SWBufEPKNS_5SWKeyE
libsword.so.1.7.4:_ZNK5sword8SWModule12filterBufferEPNSt7__cxx114listIPNS_8SWFilterESaIS4_EEERNS_5SWBufEPKNS_5SWKeyE
libsword.so.1.7.4:_ZNK5sword8SWModule12getDirectionEv
libsword.so.1.7.4:_ZNK5sword8SWModule14getConfigEntryEPKc
libsword.so.1.7.4:_ZNK5sword8SWModule14getDescriptionEv
libsword.so.1.7.4:_ZNK5sword8SWModule15getBibliographyEh
libsword.so.1.7.4:_ZNK5sword8SWModule15getRenderHeaderEv
libsword.so.1.7.4:_ZNK5sword8SWModule6getKeyEv
libsword.so.1.7.4:_ZNK5sword8SWModule7getNameEv
libsword.so.1.7.4:_ZNK5sword8SWModule7getTypeEv
libsword.so.1.7.4:_ZNK5sword8SWModule9createKeyEv
libsword.so.1.7.4:_ZNK5sword8VerseKey10getChapterEv
libsword.so.1.7.4:_ZNK5sword8VerseKey10getOSISRefEv
libsword.so.1.7.4:_ZNK5sword8VerseKey10initBoundsEv
libsword.so.1.7.4:_ZNK5sword8VerseKey11getBookNameEv
libsword.so.1.7.4:_ZNK5sword8VerseKey11getVerseMaxEv
libsword.so.1.7.4:_ZNK5sword8VerseKey12getRangeTextEv
libsword.so.1.7.4:_ZNK5sword8VerseKey12getShortTextEv
libsword.so.1.7.4:_ZNK5sword8VerseKey12getTestamentEv
libsword.so.1.7.4:_ZNK5sword8VerseKey13getBookAbbrevEv
libsword.so.1.7.4:_ZNK5sword8VerseKey13getChapterMaxEv
libsword.so.1.7.4:_ZNK5sword8VerseKey13getLowerBoundEv
libsword.so.1.7.4:_ZNK5sword8VerseKey13getUpperBoundEv
libsword.so.1.7.4:_ZNK5sword8VerseKey15getOSISBookNameEv
libsword.so.1.7.4:_ZNK5sword8VerseKey15isAutoNormalizeEv
libsword.so.1.7.4:_ZNK5sword8VerseKey17getBookFromAbbrevEPKc
libsword.so.1.7.4:_ZNK5sword8VerseKey17getTestamentIndexEv
libsword.so.1.7.4:_ZNK5sword8VerseKey19getOSISRefRangeTextEv
libsword.so.1.7.4:_ZNK5sword8VerseKey21validateCurrentLocaleEv
libsword.so.1.7.4:_ZNK5sword8VerseKey22getVersificationSystemEv
libsword.so.1.7.4:_ZNK5sword8VerseKey5cloneEv
libsword.so.1.7.4:_ZNK5sword8VerseKey7getBookEv
libsword.so.1.7.4:_ZNK5sword8VerseKey7getTextEv
libsword.so.1.7.4:_ZNK5sword8VerseKey8getIndexEv
libsword.so.1.7.4:_ZNK5sword8VerseKey8getVerseEv
libsword.so.1.7.4:_ZNK5sword8VerseKey8isIntrosEv
libsword.so.1.7.4:_ZNK5sword8VerseKey9freshtextEv
libsword.so.1.7.4:_ZNK5sword8VerseKey9getSuffixEv
libsword.so.1.7.4:_ZNK5sword9OSISXHTML9getHeaderEv
libsword.so.1.7.4:_ZNK5sword9RawVerse410findOffsetEclPlPm
libsword.so.1.7.4:_ZNK5sword9RawVerse48readTextEclmRNS_5SWBufE
libsword.so.1.7.4:_ZNK5sword9SWGenBook10getTreeKeyEPKNS_5SWKeyE
libsword.so.1.7.4:_ZNK5sword9SWVersion7compareERKS0_
libsword.so.1.7.4:_ZNK5sword9SWVersion7getTextEv
libsword.so.1.7.4:_ZNK5sword9StringMgr11upperLatin1EPcj
libsword.so.1.7.4:_ZNK5sword9StringMgr15supportsUnicodeEv
libsword.so.1.7.4:_ZNK5sword9StringMgr9upperUTF8EPcj
libsword.so.1.7.4:_ZNK5sword9ThMLXHTML9getHeaderEv
libsword.so.1.7.4:_ZThn104_N5sword3zLD11deleteEntryEv
libsword.so.1.7.4:_ZThn104_N5sword3zLD8setEntryEPKcl
libsword.so.1.7.4:_ZThn104_N5sword3zLD9incrementEi
libsword.so.1.7.4:_ZThn104_N5sword3zLD9linkEntryEPKNS_5SWKeyE
libsword.so.1.7.4:_ZThn104_N5sword3zLDD0Ev
libsword.so.1.7.4:_ZThn104_N5sword3zLDD1Ev
libsword.so.1.7.4:_ZThn104_N5sword4zCom11deleteEntryEv
libsword.so.1.7.4:_ZThn104_N5sword4zCom8setEntryEPKcl
libsword.so.1.7.4:_ZThn104_N5sword4zCom9incrementEi
libsword.so.1.7.4:_ZThn104_N5sword4zCom9linkEntryEPKNS_5SWKeyE
libsword.so.1.7.4:_ZThn104_N5sword4zComD0Ev
libsword.so.1.7.4:_ZThn104_N5sword4zComD1Ev
libsword.so.1.7.4:_ZThn104_N5sword5zText11deleteEntryEv
libsword.so.1.7.4:_ZThn104_N5sword5zText8setEntryEPKcl
libsword.so.1.7.4:_ZThn104_N5sword5zText9incrementEi
libsword.so.1.7.4:_ZThn104_N5sword5zText9linkEntryEPKNS_5SWKeyE
libsword.so.1.7.4:_ZThn104_N5sword5zTextD0Ev
libsword.so.1.7.4:_ZThn104_N5sword5zTextD1Ev
libsword.so.1.7.4:_ZThn104_NK5sword3zLD10isWritableEv
libsword.so.1.7.4:_ZThn104_NK5sword3zLD13getEntryCountEv
libsword.so.1.7.4:_ZThn104_NK5sword3zLD14getEntryForKeyEPKc
libsword.so.1.7.4:_ZThn104_NK5sword3zLD14getKeyForEntryEl
libsword.so.1.7.4:_ZThn104_NK5sword3zLD14getRawEntryBufEv
libsword.so.1.7.4:_ZThn104_NK5sword4zCom10isWritableEv
libsword.so.1.7.4:_ZThn104_NK5sword4zCom14getRawEntryBufEv
libsword.so.1.7.4:_ZThn104_NK5sword4zCom8hasEntryEPKNS_5SWKeyE
libsword.so.1.7.4:_ZThn104_NK5sword4zCom8isLinkedEPKNS_5SWKeyES3_
libsword.so.1.7.4:_ZThn104_NK5sword5zText10isWritableEv
libsword.so.1.7.4:_ZThn104_NK5sword5zText14getRawEntryBufEv
libsword.so.1.7.4:_ZThn104_NK5sword5zText8hasEntryEPKNS_5SWKeyE
libsword.so.1.7.4:_ZThn104_NK5sword5zText8isLinkedEPKNS_5SWKeyES3_
libsword.so.1.7.4:_ZThn112_N5sword3zLDD0Ev
libsword.so.1.7.4:_ZThn112_N5sword3zLDD1Ev
libsword.so.1.7.4:_ZThn112_N5sword4zComD0Ev
libsword.so.1.7.4:_ZThn112_N5sword4zComD1Ev
libsword.so.1.7.4:_ZThn112_N5sword5zTextD0Ev
libsword.so.1.7.4:_ZThn112_N5sword5zTextD1Ev
libsword.so.1.7.4:_ZThn272_N5sword12VerseTreeKey15positionChangedEv
libsword.so.1.7.4:_ZThn272_N5sword12VerseTreeKeyD0Ev
libsword.so.1.7.4:_ZThn272_N5sword12VerseTreeKeyD1Ev
libsword.so.1.7.4:_ZThn416_N5sword7RawTextD0Ev
libsword.so.1.7.4:_ZThn416_N5sword7RawTextD1Ev
libsword.so.1.7.4:_ZThn416_N5sword8RawText4D0Ev
libsword.so.1.7.4:_ZThn416_N5sword8RawText4D1Ev
libsword.so.1.7.4:_ZThn48_N5sword5RawLD11deleteEntryEv
libsword.so.1.7.4:_ZThn48_N5sword5RawLD8setEntryEPKcl
libsword.so.1.7.4:_ZThn48_N5sword5RawLD9incrementEi
libsword.so.1.7.4:_ZThn48_N5sword5RawLD9linkEntryEPKNS_5SWKeyE
libsword.so.1.7.4:_ZThn48_N5sword5RawLDD0Ev
libsword.so.1.7.4:_ZThn48_N5sword5RawLDD1Ev
libsword.so.1.7.4:_ZThn48_N5sword6RawCom11deleteEntryEv
libsword.so.1.7.4:_ZThn48_N5sword6RawCom8setEntryEPKcl
libsword.so.1.7.4:_ZThn48_N5sword6RawCom9incrementEi
libsword.so.1.7.4:_ZThn48_N5sword6RawCom9linkEntryEPKNS_5SWKeyE
libsword.so.1.7.4:_ZThn48_N5sword6RawComD0Ev
libsword.so.1.7.4:_ZThn48_N5sword6RawComD1Ev
libsword.so.1.7.4:_ZThn48_N5sword6RawLD411deleteEntryEv
libsword.so.1.7.4:_ZThn48_N5sword6RawLD48setEntryEPKcl
libsword.so.1.7.4:_ZThn48_N5sword6RawLD49incrementEi
libsword.so.1.7.4:_ZThn48_N5sword6RawLD49linkEntryEPKNS_5SWKeyE
libsword.so.1.7.4:_ZThn48_N5sword6RawLD4D0Ev
libsword.so.1.7.4:_ZThn48_N5sword6RawLD4D1Ev
libsword.so.1.7.4:_ZThn48_N5sword7HREFComD0Ev
libsword.so.1.7.4:_ZThn48_N5sword7HREFComD1Ev
libsword.so.1.7.4:_ZThn48_N5sword7RawCom411deleteEntryEv
libsword.so.1.7.4:_ZThn48_N5sword7RawCom48setEntryEPKcl
libsword.so.1.7.4:_ZThn48_N5sword7RawCom49incrementEi
libsword.so.1.7.4:_ZThn48_N5sword7RawCom49linkEntryEPKNS_5SWKeyE
libsword.so.1.7.4:_ZThn48_N5sword7RawCom4D0Ev
libsword.so.1.7.4:_ZThn48_N5sword7RawCom4D1Ev
libsword.so.1.7.4:_ZThn48_N5sword8RawFiles11deleteEntryEv
libsword.so.1.7.4:_ZThn48_N5sword8RawFiles8setEntryEPKcl
libsword.so.1.7.4:_ZThn48_N5sword8RawFiles9linkEntryEPKNS_5SWKeyE
libsword.so.1.7.4:_ZThn48_N5sword8RawFilesD0Ev
libsword.so.1.7.4:_ZThn48_N5sword8RawFilesD1Ev
libsword.so.1.7.4:_ZThn48_NK5sword5RawLD10isWritableEv
libsword.so.1.7.4:_ZThn48_NK5sword5RawLD13getEntryCountEv
libsword.so.1.7.4:_ZThn48_NK5sword5RawLD14getEntryForKeyEPKc
libsword.so.1.7.4:_ZThn48_NK5sword5RawLD14getKeyForEntryEl
libsword.so.1.7.4:_ZThn48_NK5sword5RawLD14getRawEntryBufEv
libsword.so.1.7.4:_ZThn48_NK5sword6RawCom10isWritableEv
libsword.so.1.7.4:_ZThn48_NK5sword6RawCom14getRawEntryBufEv
libsword.so.1.7.4:_ZThn48_NK5sword6RawCom8hasEntryEPKNS_5SWKeyE
libsword.so.1.7.4:_ZThn48_NK5sword6RawCom8isLinkedEPKNS_5SWKeyES3_
libsword.so.1.7.4:_ZThn48_NK5sword6RawLD410isWritableEv
libsword.so.1.7.4:_ZThn48_NK5sword6RawLD413getEntryCountEv
libsword.so.1.7.4:_ZThn48_NK5sword6RawLD414getEntryForKeyEPKc
libsword.so.1.7.4:_ZThn48_NK5sword6RawLD414getKeyForEntryEl
libsword.so.1.7.4:_ZThn48_NK5sword6RawLD414getRawEntryBufEv
libsword.so.1.7.4:_ZThn48_NK5sword7HREFCom14getRawEntryBufEv
libsword.so.1.7.4:_ZThn48_NK5sword7RawCom410isWritableEv
libsword.so.1.7.4:_ZThn48_NK5sword7RawCom414getRawEntryBufEv
libsword.so.1.7.4:_ZThn48_NK5sword7RawCom48hasEntryEPKNS_5SWKeyE
libsword.so.1.7.4:_ZThn48_NK5sword7RawCom48isLinkedEPKNS_5SWKeyES3_
libsword.so.1.7.4:_ZThn48_NK5sword8RawFiles10isWritableEv
libsword.so.1.7.4:_ZThn48_NK5sword8RawFiles14getRawEntryBufEv
libsword.so.1.7.4:_ZThn56_N5sword5RawLDD0Ev
libsword.so.1.7.4:_ZThn56_N5sword5RawLDD1Ev
libsword.so.1.7.4:_ZThn56_N5sword6RawComD0Ev
libsword.so.1.7.4:_ZThn56_N5sword6RawComD1Ev
libsword.so.1.7.4:_ZThn56_N5sword6RawLD4D0Ev
libsword.so.1.7.4:_ZThn56_N5sword6RawLD4D1Ev
libsword.so.1.7.4:_ZThn56_N5sword7HREFComD0Ev
libsword.so.1.7.4:_ZThn56_N5sword7HREFComD1Ev
libsword.so.1.7.4:_ZThn56_N5sword7RawCom4D0Ev
libsword.so.1.7.4:_ZThn56_N5sword7RawCom4D1Ev
libsword.so.1.7.4:_ZThn56_N5sword8RawFilesD0Ev
libsword.so.1.7.4:_ZThn56_N5sword8RawFilesD1Ev
libsword.so.1.7.4:_ZThn80_N5sword12OSISHeadings11handleTokenERNS_5SWBufEPKcPNS_19BasicFilterUserDataE
libsword.so.1.7.4:_ZThn80_N5sword12OSISHeadings14createUserDataEPKNS_8SWModuleEPKNS_5SWKeyE
libsword.so.1.7.4:_ZThn8_N5sword10RawGenBookD0Ev
libsword.so.1.7.4:_ZThn8_N5sword10RawGenBookD1Ev
libsword.so.1.7.4:_ZThn8_N5sword4SWLDD0Ev
libsword.so.1.7.4:_ZThn8_N5sword4SWLDD1Ev
libsword.so.1.7.4:_ZThn8_N5sword5SWComD0Ev
libsword.so.1.7.4:_ZThn8_N5sword5SWComD1Ev
libsword.so.1.7.4:_ZThn8_N5sword6SWTextD0Ev
libsword.so.1.7.4:_ZThn8_N5sword6SWTextD1Ev
libsword.so.1.7.4:_ZThn8_N5sword7RawTextD0Ev
libsword.so.1.7.4:_ZThn8_N5sword7RawTextD1Ev
libsword.so.1.7.4:_ZThn8_N5sword8RawText4D0Ev
libsword.so.1.7.4:_ZThn8_N5sword8RawText4D1Ev
libsword.so.1.7.4:_ZThn8_N5sword8SWModule18hasSearchFrameworkEv
libsword.so.1.7.4:_ZThn8_N5sword8SWModule21createSearchFrameworkEPFvcPvES1_
libsword.so.1.7.4:_ZThn8_N5sword8SWModule21deleteSearchFrameworkEv
libsword.so.1.7.4:_ZThn8_N5sword8SWModule6searchEPKciiPNS_5SWKeyEPbPFvcPvES6_
libsword.so.1.7.4:_ZThn8_N5sword8SWModuleD0Ev
libsword.so.1.7.4:_ZThn8_N5sword8SWModuleD1Ev
libsword.so.1.7.4:_ZThn8_N5sword9SWGenBookD0Ev
libsword.so.1.7.4:_ZThn8_N5sword9SWGenBookD1Ev
libsword.so.1.7.4:_ZTv0_n24_N5sword10GBFStrongsD0Ev
libsword.so.1.7.4:_ZTv0_n24_N5sword10GBFStrongsD1Ev
libsword.so.1.7.4:_ZTv0_n24_N5sword10OSISWordJSD0Ev
libsword.so.1.7.4:_ZTv0_n24_N5sword10OSISWordJSD1Ev
libsword.so.1.7.4:_ZTv0_n24_N5sword10ThMLWordJSD0Ev
libsword.so.1.7.4:_ZTv0_n24_N5sword10ThMLWordJSD1Ev
libsword.so.1.7.4:_ZTv0_n24_N5sword11GBFHeadingsD0Ev
libsword.so.1.7.4:_ZTv0_n24_N5sword11GBFHeadingsD1Ev
libsword.so.1.7.4:_ZTv0_n24_N5sword11OSISGlossesD0Ev
libsword.so.1.7.4:_ZTv0_n24_N5sword11OSISGlossesD1Ev
libsword.so.1.7.4:_ZTv0_n24_N5sword11OSISStrongsD0Ev
libsword.so.1.7.4:_ZTv0_n24_N5sword11OSISStrongsD1Ev
libsword.so.1.7.4:_ZTv0_n24_N5sword11ThMLStrongsD0Ev
libsword.so.1.7.4:_ZTv0_n24_N5sword11ThMLStrongsD1Ev
libsword.so.1.7.4:_ZTv0_n24_N5sword12GBFFootnotesD0Ev
libsword.so.1.7.4:_ZTv0_n24_N5sword12GBFFootnotesD1Ev
libsword.so.1.7.4:_ZTv0_n24_N5sword12OSISScriprefD0Ev
libsword.so.1.7.4:_ZTv0_n24_N5sword12OSISScriprefD1Ev
libsword.so.1.7.4:_ZTv0_n24_N5sword12OSISVariantsD0Ev
libsword.so.1.7.4:_ZTv0_n24_N5sword12OSISVariantsD1Ev
libsword.so.1.7.4:_ZTv0_n24_N5sword12ThMLHeadingsD0Ev
libsword.so.1.7.4:_ZTv0_n24_N5sword12ThMLHeadingsD1Ev
libsword.so.1.7.4:_ZTv0_n24_N5sword12ThMLScriprefD0Ev
libsword.so.1.7.4:_ZTv0_n24_N5sword12ThMLScriprefD1Ev
libsword.so.1.7.4:_ZTv0_n24_N5sword12ThMLVariantsD0Ev
libsword.so.1.7.4:_ZTv0_n24_N5sword12ThMLVariantsD1Ev
libsword.so.1.7.4:_ZTv0_n24_N5sword13OSISFootnotesD0Ev
libsword.so.1.7.4:_ZTv0_n24_N5sword13OSISFootnotesD1Ev
libsword.so.1.7.4:_ZTv0_n24_N5sword13SWBasicFilterD0Ev
libsword.so.1.7.4:_ZTv0_n24_N5sword13SWBasicFilterD1Ev
libsword.so.1.7.4:_ZTv0_n24_N5sword13ThMLFootnotesD0Ev
libsword.so.1.7.4:_ZTv0_n24_N5sword13ThMLFootnotesD1Ev
libsword.so.1.7.4:_ZTv0_n24_N5sword14SWOptionFilterD0Ev
libsword.so.1.7.4:_ZTv0_n24_N5sword14SWOptionFilterD1Ev
libsword.so.1.7.4:_ZTv0_n24_N5sword16UTF8ArabicPointsD0Ev
libsword.so.1.7.4:_ZTv0_n24_N5sword16UTF8ArabicPointsD1Ev
libsword.so.1.7.4:_ZTv0_n24_N5sword16UTF8CantillationD0Ev
libsword.so.1.7.4:_ZTv0_n24_N5sword16UTF8CantillationD1Ev
libsword.so.1.7.4:_ZTv0_n24_N5sword16UTF8GreekAccentsD0Ev
libsword.so.1.7.4:_ZTv0_n24_N5sword16UTF8GreekAccentsD1Ev
libsword.so.1.7.4:_ZTv0_n24_N5sword16UTF8HebrewPointsD0Ev
libsword.so.1.7.4:_ZTv0_n24_N5sword16UTF8HebrewPointsD1Ev
libsword.so.1.7.4:_ZTv0_n24_N5sword17GBFRedLetterWordsD0Ev
libsword.so.1.7.4:_ZTv0_n24_N5sword17GBFRedLetterWordsD1Ev
libsword.so.1.7.4:_ZTv0_n24_N5sword18OSISRedLetterWordsD0Ev
libsword.so.1.7.4:_ZTv0_n24_N5sword18OSISRedLetterWordsD1Ev
libsword.so.1.7.4:_ZTv0_n24_N5sword18OSISReferenceLinksD0Ev
libsword.so.1.7.4:_ZTv0_n24_N5sword18OSISReferenceLinksD1Ev
libsword.so.1.7.4:_ZTv0_n24_N5sword21OSISMorphSegmentationD0Ev
libsword.so.1.7.4:_ZTv0_n24_N5sword21OSISMorphSegmentationD1Ev
libsword.so.1.7.4:_ZTv0_n24_N5sword8GBFMorphD0Ev
libsword.so.1.7.4:_ZTv0_n24_N5sword8GBFMorphD1Ev
libsword.so.1.7.4:_ZTv0_n24_N5sword8OSISEnumD0Ev
libsword.so.1.7.4:_ZTv0_n24_N5sword8OSISEnumD1Ev
libsword.so.1.7.4:_ZTv0_n24_N5sword8OSISXlitD0Ev
libsword.so.1.7.4:_ZTv0_n24_N5sword8OSISXlitD1Ev
libsword.so.1.7.4:_ZTv0_n24_N5sword9GBFWordJSD0Ev
libsword.so.1.7.4:_ZTv0_n24_N5sword9GBFWordJSD1Ev
libsword.so.1.7.4:_ZTv0_n24_N5sword9OSISLemmaD0Ev
libsword.so.1.7.4:_ZTv0_n24_N5sword9OSISLemmaD1Ev
libsword.so.1.7.4:_ZTv0_n24_N5sword9OSISMorphD0Ev
libsword.so.1.7.4:_ZTv0_n24_N5sword9OSISMorphD1Ev
libsword.so.1.7.4:_ZTv0_n24_N5sword9ThMLLemmaD0Ev
libsword.so.1.7.4:_ZTv0_n24_N5sword9ThMLLemmaD1Ev
libsword.so.1.7.4:_ZTv0_n24_N5sword9ThMLMorphD0Ev
libsword.so.1.7.4:_ZTv0_n24_N5sword9ThMLMorphD1Ev
libsword.so.1.7.4:_ZTv0_n32_N5sword10GBFStrongs11processTextERNS_5SWBufEPKNS_5SWKeyEPKNS_8SWModuleE
libsword.so.1.7.4:_ZTv0_n32_N5sword10OSISWordJS11processTextERNS_5SWBufEPKNS_5SWKeyEPKNS_8SWModuleE
libsword.so.1.7.4:_ZTv0_n32_N5sword10ThMLWordJS11processTextERNS_5SWBufEPKNS_5SWKeyEPKNS_8SWModuleE
libsword.so.1.7.4:_ZTv0_n32_N5sword11GBFHeadings11processTextERNS_5SWBufEPKNS_5SWKeyEPKNS_8SWModuleE
libsword.so.1.7.4:_ZTv0_n32_N5sword11OSISGlosses11processTextERNS_5SWBufEPKNS_5SWKeyEPKNS_8SWModuleE
libsword.so.1.7.4:_ZTv0_n32_N5sword11OSISStrongs11processTextERNS_5SWBufEPKNS_5SWKeyEPKNS_8SWModuleE
libsword.so.1.7.4:_ZTv0_n32_N5sword11PapyriPlain11processTextERNS_5SWBufEPKNS_5SWKeyEPKNS_8SWModuleE
libsword.so.1.7.4:_ZTv0_n32_N5sword11ThMLStrongs11processTextERNS_5SWBufEPKNS_5SWKeyEPKNS_8SWModuleE
libsword.so.1.7.4:_ZTv0_n32_N5sword12GBFFootnotes11processTextERNS_5SWBufEPKNS_5SWKeyEPKNS_8SWModuleE
libsword.so.1.7.4:_ZTv0_n32_N5sword12OSISScripref11processTextERNS_5SWBufEPKNS_5SWKeyEPKNS_8SWModuleE
libsword.so.1.7.4:_ZTv0_n32_N5sword12OSISVariants11processTextERNS_5SWBufEPKNS_5SWKeyEPKNS_8SWModuleE
libsword.so.1.7.4:_ZTv0_n32_N5sword12ThMLHeadings11processTextERNS_5SWBufEPKNS_5SWKeyEPKNS_8SWModuleE
libsword.so.1.7.4:_ZTv0_n32_N5sword12ThMLScripref11processTextERNS_5SWBufEPKNS_5SWKeyEPKNS_8SWModuleE
libsword.so.1.7.4:_ZTv0_n32_N5sword12ThMLVariants11processTextERNS_5SWBufEPKNS_5SWKeyEPKNS_8SWModuleE
libsword.so.1.7.4:_ZTv0_n32_N5sword13OSISFootnotes11processTextERNS_5SWBufEPKNS_5SWKeyEPKNS_8SWModuleE
libsword.so.1.7.4:_ZTv0_n32_N5sword13SWBasicFilter11processTextERNS_5SWBufEPKNS_5SWKeyEPKNS_8SWModuleE
libsword.so.1.7.4:_ZTv0_n32_N5sword13ThMLFootnotes11processTextERNS_5SWBufEPKNS_5SWKeyEPKNS_8SWModuleE
libsword.so.1.7.4:_ZTv0_n32_N5sword15GreekLexAttribs11processTextERNS_5SWBufEPKNS_5SWKeyEPKNS_8SWModuleE
libsword.so.1.7.4:_ZTv0_n32_N5sword16UTF8ArabicPoints11processTextERNS_5SWBufEPKNS_5SWKeyEPKNS_8SWModuleE
libsword.so.1.7.4:_ZTv0_n32_N5sword16UTF8Cantillation11processTextERNS_5SWBufEPKNS_5SWKeyEPKNS_8SWModuleE
libsword.so.1.7.4:_ZTv0_n32_N5sword16UTF8GreekAccents11processTextERNS_5SWBufEPKNS_5SWKeyEPKNS_8SWModuleE
libsword.so.1.7.4:_ZTv0_n32_N5sword16UTF8HebrewPoints11processTextERNS_5SWBufEPKNS_5SWKeyEPKNS_8SWModuleE
libsword.so.1.7.4:_ZTv0_n32_N5sword17GBFRedLetterWords11processTextERNS_5SWBufEPKNS_5SWKeyEPKNS_8SWModuleE
libsword.so.1.7.4:_ZTv0_n32_N5sword18OSISRedLetterWords11processTextERNS_5SWBufEPKNS_5SWKeyEPKNS_8SWModuleE
libsword.so.1.7.4:_ZTv0_n32_N5sword18OSISReferenceLinks11processTextERNS_5SWBufEPKNS_5SWKeyEPKNS_8SWModuleE
libsword.so.1.7.4:_ZTv0_n32_N5sword21OSISMorphSegmentation11processTextERNS_5SWBufEPKNS_5SWKeyEPKNS_8SWModuleE
libsword.so.1.7.4:_ZTv0_n32_N5sword7OSISRTF11processTextERNS_5SWBufEPKNS_5SWKeyEPKNS_8SWModuleE
libsword.so.1.7.4:_ZTv0_n32_N5sword7ThMLRTF11processTextERNS_5SWBufEPKNS_5SWKeyEPKNS_8SWModuleE
libsword.so.1.7.4:_ZTv0_n32_N5sword8GBFMorph11processTextERNS_5SWBufEPKNS_5SWKeyEPKNS_8SWModuleE
libsword.so.1.7.4:_ZTv0_n32_N5sword8OSISEnum11processTextERNS_5SWBufEPKNS_5SWKeyEPKNS_8SWModuleE
libsword.so.1.7.4:_ZTv0_n32_N5sword8OSISOSIS11processTextERNS_5SWBufEPKNS_5SWKeyEPKNS_8SWModuleE
libsword.so.1.7.4:_ZTv0_n32_N5sword8OSISXlit11processTextERNS_5SWBufEPKNS_5SWKeyEPKNS_8SWModuleE
libsword.so.1.7.4:_ZTv0_n32_N5sword9GBFWordJS11processTextERNS_5SWBufEPKNS_5SWKeyEPKNS_8SWModuleE
libsword.so.1.7.4:_ZTv0_n32_N5sword9OSISLemma11processTextERNS_5SWBufEPKNS_5SWKeyEPKNS_8SWModuleE
libsword.so.1.7.4:_ZTv0_n32_N5sword9OSISMorph11processTextERNS_5SWBufEPKNS_5SWKeyEPKNS_8SWModuleE
libsword.so.1.7.4:_ZTv0_n32_N5sword9ThMLLemma11processTextERNS_5SWBufEPKNS_5SWKeyEPKNS_8SWModuleE
libsword.so.1.7.4:_ZTv0_n32_N5sword9ThMLMorph11processTextERNS_5SWBufEPKNS_5SWKeyEPKNS_8SWModuleE
libsword.so.1.7.4:_ZTv0_n40_NK5sword8GBFXHTML9getHeaderEv
libsword.so.1.7.4:_ZTv0_n40_NK5sword9OSISXHTML9getHeaderEv
libsword.so.1.7.4:_ZTv0_n40_NK5sword9ThMLXHTML9getHeaderEv
libsword.so.1.7.4:error
libsword.so.1.7.4:ftpparse
libsword.so.1.7.4:getoct
libsword.so.1.7.4:help
libsword.so.1.7.4:makedir
libsword.so.1.7.4:matchname
libsword.so.1.7.4:org_crosswire_sword_InstallMgr_getRemoteModInfoList
libsword.so.1.7.4:org_crosswire_sword_InstallMgr_getRemoteModuleByName
libsword.so.1.7.4:org_crosswire_sword_InstallMgr_getRemoteSources
libsword.so.1.7.4:org_crosswire_sword_InstallMgr_new
libsword.so.1.7.4:org_crosswire_sword_InstallMgr_refreshRemoteSource
libsword.so.1.7.4:org_crosswire_sword_InstallMgr_remoteInstallModule
libsword.so.1.7.4:org_crosswire_sword_InstallMgr_setUserDisclaimerConfirmed
libsword.so.1.7.4:org_crosswire_sword_InstallMgr_syncConfig
libsword.so.1.7.4:org_crosswire_sword_InstallMgr_uninstallModule
libsword.so.1.7.4:org_crosswire_sword_SWMgr_delete
libsword.so.1.7.4:org_crosswire_sword_SWMgr_filterText
libsword.so.1.7.4:org_crosswire_sword_SWMgr_getAvailableLocales
libsword.so.1.7.4:org_crosswire_sword_SWMgr_getConfigPath
libsword.so.1.7.4:org_crosswire_sword_SWMgr_getGlobalOption
libsword.so.1.7.4:org_crosswire_sword_SWMgr_getGlobalOptionTip
libsword.so.1.7.4:org_crosswire_sword_SWMgr_getGlobalOptionValues
libsword.so.1.7.4:org_crosswire_sword_SWMgr_getGlobalOptions
libsword.so.1.7.4:org_crosswire_sword_SWMgr_getModInfoList
libsword.so.1.7.4:org_crosswire_sword_SWMgr_getModuleByName
libsword.so.1.7.4:org_crosswire_sword_SWMgr_getPrefixPath
libsword.so.1.7.4:org_crosswire_sword_SWMgr_new
libsword.so.1.7.4:org_crosswire_sword_SWMgr_setCipherKey
libsword.so.1.7.4:org_crosswire_sword_SWMgr_setDefaultLocale
libsword.so.1.7.4:org_crosswire_sword_SWMgr_setGlobalOption
libsword.so.1.7.4:org_crosswire_sword_SWMgr_setJavascript
libsword.so.1.7.4:org_crosswire_sword_SWMgr_translate
libsword.so.1.7.4:org_crosswire_sword_SWMgr_version
libsword.so.1.7.4:org_crosswire_sword_SWModule_begin
libsword.so.1.7.4:org_crosswire_sword_SWModule_deleteSearchFramework
libsword.so.1.7.4:org_crosswire_sword_SWModule_getCategory
libsword.so.1.7.4:org_crosswire_sword_SWModule_getConfigEntry
libsword.so.1.7.4:org_crosswire_sword_SWModule_getDescription
libsword.so.1.7.4:org_crosswire_sword_SWModule_getEntryAttribute
libsword.so.1.7.4:org_crosswire_sword_SWModule_getEntrySize
libsword.so.1.7.4:org_crosswire_sword_SWModule_getKeyChildren
libsword.so.1.7.4:org_crosswire_sword_SWModule_getKeyParent
libsword.so.1.7.4:org_crosswire_sword_SWModule_getKeyText
libsword.so.1.7.4:org_crosswire_sword_SWModule_getName
libsword.so.1.7.4:org_crosswire_sword_SWModule_getRawEntry
libsword.so.1.7.4:org_crosswire_sword_SWModule_getRenderHeader
libsword.so.1.7.4:org_crosswire_sword_SWModule_hasKeyChildren
libsword.so.1.7.4:org_crosswire_sword_SWModule_hasSearchFramework
libsword.so.1.7.4:org_crosswire_sword_SWModule_next
libsword.so.1.7.4:org_crosswire_sword_SWModule_parseKeyList
libsword.so.1.7.4:org_crosswire_sword_SWModule_popError
libsword.so.1.7.4:org_crosswire_sword_SWModule_previous
libsword.so.1.7.4:org_crosswire_sword_SWModule_renderText
libsword.so.1.7.4:org_crosswire_sword_SWModule_search
libsword.so.1.7.4:org_crosswire_sword_SWModule_setKeyText
libsword.so.1.7.4:org_crosswire_sword_SWModule_setRawEntry
libsword.so.1.7.4:org_crosswire_sword_SWModule_stripText
libsword.so.1.7.4:org_crosswire_sword_SWModule_terminateSearch
libsword.so.1.7.4:strtime
libsword.so.1.7.4:untar
libsword.so.1.7.4:untargz
