libspdlog.so.1:_ZN3fmt2v612format_errorD0Ev
libspdlog.so.1:_ZN3fmt2v612format_errorD1Ev
libspdlog.so.1:_ZN3fmt2v612format_errorD2Ev
libspdlog.so.1:_ZN3fmt2v612system_error4initEiNS0_17basic_string_viewIcEENS0_11format_argsE
libspdlog.so.1:_ZN3fmt2v612system_errorD0Ev
libspdlog.so.1:_ZN3fmt2v612system_errorD1Ev
libspdlog.so.1:_ZN3fmt2v612system_errorD2Ev
libspdlog.so.1:_ZN3fmt2v619format_system_errorERNS0_8internal6bufferIcEEiNS0_17basic_string_viewIcEE
libspdlog.so.1:_ZN3fmt2v619report_system_errorEiNS0_17basic_string_viewIcEE
libspdlog.so.1:_ZN3fmt2v66vprintENS0_17basic_string_viewIcEENS0_11format_argsE
libspdlog.so.1:_ZN3fmt2v66vprintEP8_IO_FILENS0_17basic_string_viewIcEENS0_11format_argsE
libspdlog.so.1:_ZN3fmt2v68internal11assert_failEPKciS3_
libspdlog.so.1:_ZN3fmt2v68internal12count_digitsILj4ENS1_16fallback_uintptrEEEiT0_
libspdlog.so.1:_ZN3fmt2v68internal12fwrite_fullyEPKvmmP8_IO_FILE
libspdlog.so.1:_ZN3fmt2v68internal12report_errorEPFvRNS1_6bufferIcEEiNS0_17basic_string_viewIcEEEiS6_
libspdlog.so.1:_ZN3fmt2v68internal13error_handler8on_errorEPKc
libspdlog.so.1:_ZN3fmt2v68internal13safe_strerrorEiRPcm
libspdlog.so.1:_ZN3fmt2v68internal16get_cached_powerEiRi
libspdlog.so.1:_ZN3fmt2v68internal17format_error_codeERNS1_6bufferIcEEiNS0_17basic_string_viewIcEE
libspdlog.so.1:_ZN6spdlog11flush_everyENSt6chrono8durationIlSt5ratioILl1ELl1EEEE
libspdlog.so.1:_ZN6spdlog11set_patternENSt7__cxx1112basic_stringIcSt11char_traitsIcESaIcEEENS_17pattern_time_typeE
libspdlog.so.1:_ZN6spdlog12async_logger14backend_flush_Ev
libspdlog.so.1:_ZN6spdlog12async_logger16backend_sink_it_ERKNS_7details7log_msgE
libspdlog.so.1:_ZN6spdlog12async_logger5cloneENSt7__cxx1112basic_stringIcSt11char_traitsIcESaIcEEE
libspdlog.so.1:_ZN6spdlog12async_logger6flush_Ev
libspdlog.so.1:_ZN6spdlog12async_logger8sink_it_ERKNS_7details7log_msgE
libspdlog.so.1:_ZN6spdlog12async_loggerC1ENSt7__cxx1112basic_stringIcSt11char_traitsIcESaIcEEESt10shared_ptrINS_5sinks4sinkEESt8weak_ptrINS_7details11thread_poolEENS_21async_overflow_policyE
libspdlog.so.1:_ZN6spdlog12async_loggerC1ENSt7__cxx1112basic_stringIcSt11char_traitsIcESaIcEEESt16initializer_listISt10shared_ptrINS_5sinks4sinkEEESt8weak_ptrINS_7details11thread_poolEENS_21async_overflow_policyE
libspdlog.so.1:_ZN6spdlog12async_loggerC2ENSt7__cxx1112basic_stringIcSt11char_traitsIcESaIcEEESt10shared_ptrINS_5sinks4sinkEESt8weak_ptrINS_7details11thread_poolEENS_21async_overflow_policyE
libspdlog.so.1:_ZN6spdlog12async_loggerC2ENSt7__cxx1112basic_stringIcSt11char_traitsIcESaIcEEESt16initializer_listISt10shared_ptrINS_5sinks4sinkEEESt8weak_ptrINS_7details11thread_poolEENS_21async_overflow_policyE
libspdlog.so.1:_ZN6spdlog13set_formatterESt10unique_ptrINS_9formatterESt14default_deleteIS1_EE
libspdlog.so.1:_ZN6spdlog14default_loggerEv
libspdlog.so.1:_ZN6spdlog14dump_backtraceEv
libspdlog.so.1:_ZN6spdlog15register_loggerESt10shared_ptrINS_6loggerEE
libspdlog.so.1:_ZN6spdlog16enable_backtraceEm
libspdlog.so.1:_ZN6spdlog17disable_backtraceEv
libspdlog.so.1:_ZN6spdlog17initialize_loggerESt10shared_ptrINS_6loggerEE
libspdlog.so.1:_ZN6spdlog17pattern_formatter15handle_padspec_ERN9__gnu_cxx17__normal_iteratorIPKcNSt7__cxx1112basic_stringIcSt11char_traitsIcESaIcEEEEESB_
libspdlog.so.1:_ZN6spdlog17pattern_formatter16compile_pattern_ERKNSt7__cxx1112basic_stringIcSt11char_traitsIcESaIcEEE
libspdlog.so.1:_ZN6spdlog17pattern_formatter6formatERKNS_7details7log_msgERN3fmt2v619basic_memory_bufferIcLm250ESaIcEEE
libspdlog.so.1:_ZN6spdlog17pattern_formatter9get_time_ERKNS_7details7log_msgE
libspdlog.so.1:_ZN6spdlog17pattern_formatterC1ENS_17pattern_time_typeENSt7__cxx1112basic_stringIcSt11char_traitsIcESaIcEEE
libspdlog.so.1:_ZN6spdlog17pattern_formatterC1ENSt7__cxx1112basic_stringIcSt11char_traitsIcESaIcEEENS_17pattern_time_typeES6_
libspdlog.so.1:_ZN6spdlog17pattern_formatterC2ENS_17pattern_time_typeENSt7__cxx1112basic_stringIcSt11char_traitsIcESaIcEEE
libspdlog.so.1:_ZN6spdlog17pattern_formatterC2ENSt7__cxx1112basic_stringIcSt11char_traitsIcESaIcEEENS_17pattern_time_typeES6_
libspdlog.so.1:_ZN6spdlog17set_error_handlerEPFvRKNSt7__cxx1112basic_stringIcSt11char_traitsIcESaIcEEEE
libspdlog.so.1:_ZN6spdlog18default_logger_rawEv
libspdlog.so.1:_ZN6spdlog18set_default_loggerESt10shared_ptrINS_6loggerEE
libspdlog.so.1:_ZN6spdlog26set_automatic_registrationEb
libspdlog.so.1:_ZN6spdlog3getERKNSt7__cxx1112basic_stringIcSt11char_traitsIcESaIcEEE
libspdlog.so.1:_ZN6spdlog4dropERKNSt7__cxx1112basic_stringIcSt11char_traitsIcESaIcEEE
libspdlog.so.1:_ZN6spdlog4swapERNS_6loggerES1_
libspdlog.so.1:_ZN6spdlog5level14to_short_c_strENS0_10level_enumE
libspdlog.so.1:_ZN6spdlog5level14to_string_viewENS0_10level_enumE
libspdlog.so.1:_ZN6spdlog5level8from_strERKNSt7__cxx1112basic_stringIcSt11char_traitsIcESaIcEEE
libspdlog.so.1:_ZN6spdlog5sinks4sink9set_levelENS_5level10level_enumE
libspdlog.so.1:_ZN6spdlog6logger11set_patternENSt7__cxx1112basic_stringIcSt11char_traitsIcESaIcEEENS_17pattern_time_typeE
libspdlog.so.1:_ZN6spdlog6logger12err_handler_ERKNSt7__cxx1112basic_stringIcSt11char_traitsIcESaIcEEE
libspdlog.so.1:_ZN6spdlog6logger13set_formatterESt10unique_ptrINS_9formatterESt14default_deleteIS2_EE
libspdlog.so.1:_ZN6spdlog6logger13should_flush_ERKNS_7details7log_msgE
libspdlog.so.1:_ZN6spdlog6logger14dump_backtraceEv
libspdlog.so.1:_ZN6spdlog6logger15dump_backtrace_Ev
libspdlog.so.1:_ZN6spdlog6logger16enable_backtraceEm
libspdlog.so.1:_ZN6spdlog6logger17disable_backtraceEv
libspdlog.so.1:_ZN6spdlog6logger17set_error_handlerESt8functionIFvRKNSt7__cxx1112basic_stringIcSt11char_traitsIcESaIcEEEEE
libspdlog.so.1:_ZN6spdlog6logger4swapERS0_
libspdlog.so.1:_ZN6spdlog6logger5cloneENSt7__cxx1112basic_stringIcSt11char_traitsIcESaIcEEE
libspdlog.so.1:_ZN6spdlog6logger5flushEv
libspdlog.so.1:_ZN6spdlog6logger5sinksEv
libspdlog.so.1:_ZN6spdlog6logger6flush_Ev
libspdlog.so.1:_ZN6spdlog6logger7log_it_ERKNS_7details7log_msgEbb
libspdlog.so.1:_ZN6spdlog6logger8flush_onENS_5level10level_enumE
libspdlog.so.1:_ZN6spdlog6logger8sink_it_ERKNS_7details7log_msgE
libspdlog.so.1:_ZN6spdlog6logger9set_levelENS_5level10level_enumE
libspdlog.so.1:_ZN6spdlog6loggerC1EOS0_
libspdlog.so.1:_ZN6spdlog6loggerC1ERKS0_
libspdlog.so.1:_ZN6spdlog6loggerC2EOS0_
libspdlog.so.1:_ZN6spdlog6loggerC2ERKS0_
libspdlog.so.1:_ZN6spdlog6loggeraSES0_
libspdlog.so.1:_ZN6spdlog7details10backtracer11foreach_popESt8functionIFvRKNS0_7log_msgEEE
libspdlog.so.1:_ZN6spdlog7details10backtracer6enableEm
libspdlog.so.1:_ZN6spdlog7details10backtracer7disableEv
libspdlog.so.1:_ZN6spdlog7details10backtracer9push_backERKNS0_7log_msgE
libspdlog.so.1:_ZN6spdlog7details10backtracerC1EOS1_
libspdlog.so.1:_ZN6spdlog7details10backtracerC1ERKS1_
libspdlog.so.1:_ZN6spdlog7details10backtracerC2EOS1_
libspdlog.so.1:_ZN6spdlog7details10backtracerC2ERKS1_
libspdlog.so.1:_ZN6spdlog7details10backtraceraSES1_
libspdlog.so.1:_ZN6spdlog7details11file_helper18split_by_extensionERKNSt7__cxx1112basic_stringIcSt11char_traitsIcESaIcEEE
libspdlog.so.1:_ZN6spdlog7details11file_helper4openERKNSt7__cxx1112basic_stringIcSt11char_traitsIcESaIcEEEb
libspdlog.so.1:_ZN6spdlog7details11file_helper5closeEv
libspdlog.so.1:_ZN6spdlog7details11file_helper5flushEv
libspdlog.so.1:_ZN6spdlog7details11file_helper5writeERKN3fmt2v619basic_memory_bufferIcLm250ESaIcEEE
libspdlog.so.1:_ZN6spdlog7details11file_helper6reopenEb
libspdlog.so.1:_ZN6spdlog7details11file_helperD1Ev
libspdlog.so.1:_ZN6spdlog7details11file_helperD2Ev
libspdlog.so.1:_ZN6spdlog7details11thread_pool10post_flushEOSt10shared_ptrINS_12async_loggerEENS_21async_overflow_policyE
libspdlog.so.1:_ZN6spdlog7details11thread_pool12worker_loop_Ev
libspdlog.so.1:_ZN6spdlog7details11thread_pool15overrun_counterEv
libspdlog.so.1:_ZN6spdlog7details11thread_pool15post_async_msg_EONS0_9async_msgENS_21async_overflow_policyE
libspdlog.so.1:_ZN6spdlog7details11thread_pool17process_next_msg_Ev
libspdlog.so.1:_ZN6spdlog7details11thread_pool8post_logEOSt10shared_ptrINS_12async_loggerEERKNS0_7log_msgENS_21async_overflow_policyE
libspdlog.so.1:_ZN6spdlog7details11thread_poolC1Emm
libspdlog.so.1:_ZN6spdlog7details11thread_poolC1EmmSt8functionIFvvEE
libspdlog.so.1:_ZN6spdlog7details11thread_poolC2Emm
libspdlog.so.1:_ZN6spdlog7details11thread_poolC2EmmSt8functionIFvvEE
libspdlog.so.1:_ZN6spdlog7details11thread_poolD1Ev
libspdlog.so.1:_ZN6spdlog7details11thread_poolD2Ev
libspdlog.so.1:_ZN6spdlog7details14log_msg_buffer19update_string_viewsEv
libspdlog.so.1:_ZN6spdlog7details14log_msg_bufferC1EOS1_
libspdlog.so.1:_ZN6spdlog7details14log_msg_bufferC1ERKNS0_7log_msgE
libspdlog.so.1:_ZN6spdlog7details14log_msg_bufferC1ERKS1_
libspdlog.so.1:_ZN6spdlog7details14log_msg_bufferC2EOS1_
libspdlog.so.1:_ZN6spdlog7details14log_msg_bufferC2ERKNS0_7log_msgE
libspdlog.so.1:_ZN6spdlog7details14log_msg_bufferC2ERKS1_
libspdlog.so.1:_ZN6spdlog7details14log_msg_bufferaSEOS1_
libspdlog.so.1:_ZN6spdlog7details14log_msg_bufferaSERKS1_
libspdlog.so.1:_ZN6spdlog7details15periodic_workerC1ERKSt8functionIFvvEENSt6chrono8durationIlSt5ratioILl1ELl1EEEE
libspdlog.so.1:_ZN6spdlog7details15periodic_workerC2ERKSt8functionIFvvEENSt6chrono8durationIlSt5ratioILl1ELl1EEEE
libspdlog.so.1:_ZN6spdlog7details15periodic_workerD1Ev
libspdlog.so.1:_ZN6spdlog7details15periodic_workerD2Ev
libspdlog.so.1:_ZN6spdlog7details2os10_thread_idEv
libspdlog.so.1:_ZN6spdlog7details2os10create_dirENSt7__cxx1112basic_stringIcSt11char_traitsIcESaIcEEE
libspdlog.so.1:_ZN6spdlog7details2os11in_terminalEP8_IO_FILE
libspdlog.so.1:_ZN6spdlog7details2os11path_existsERKNSt7__cxx1112basic_stringIcSt11char_traitsIcESaIcEEE
libspdlog.so.1:_ZN6spdlog7details2os15filename_to_strERKNSt7__cxx1112basic_stringIcSt11char_traitsIcESaIcEEE
libspdlog.so.1:_ZN6spdlog7details2os16remove_if_existsERKNSt7__cxx1112basic_stringIcSt11char_traitsIcESaIcEEE
libspdlog.so.1:_ZN6spdlog7details2os16sleep_for_millisEi
libspdlog.so.1:_ZN6spdlog7details2os17is_color_terminalEv
libspdlog.so.1:_ZN6spdlog7details2os18utc_minutes_offsetERK2tm
libspdlog.so.1:_ZN6spdlog7details2os3nowEv
libspdlog.so.1:_ZN6spdlog7details2os3pidEv
libspdlog.so.1:_ZN6spdlog7details2os6gmtimeERKl
libspdlog.so.1:_ZN6spdlog7details2os6gmtimeEv
libspdlog.so.1:_ZN6spdlog7details2os6removeERKNSt7__cxx1112basic_stringIcSt11char_traitsIcESaIcEEE
libspdlog.so.1:_ZN6spdlog7details2os6renameERKNSt7__cxx1112basic_stringIcSt11char_traitsIcESaIcEEES9_
libspdlog.so.1:_ZN6spdlog7details2os7fopen_sEPP8_IO_FILERKNSt7__cxx1112basic_stringIcSt11char_traitsIcESaIcEEESC_
libspdlog.so.1:_ZN6spdlog7details2os8dir_nameENSt7__cxx1112basic_stringIcSt11char_traitsIcESaIcEEE
libspdlog.so.1:_ZN6spdlog7details2os8filesizeEP8_IO_FILE
libspdlog.so.1:_ZN6spdlog7details2os9localtimeERKl
libspdlog.so.1:_ZN6spdlog7details2os9localtimeEv
libspdlog.so.1:_ZN6spdlog7details2os9thread_idEv
libspdlog.so.1:_ZN6spdlog7details7log_msgC1EN3fmt2v617basic_string_viewIcEENS_5level10level_enumES5_
libspdlog.so.1:_ZN6spdlog7details7log_msgC1ENS_10source_locEN3fmt2v617basic_string_viewIcEENS_5level10level_enumES6_
libspdlog.so.1:_ZN6spdlog7details7log_msgC2EN3fmt2v617basic_string_viewIcEENS_5level10level_enumES5_
libspdlog.so.1:_ZN6spdlog7details7log_msgC2ENS_10source_locEN3fmt2v617basic_string_viewIcEENS_5level10level_enumES6_
libspdlog.so.1:_ZN6spdlog7details8registry11flush_everyENSt6chrono8durationIlSt5ratioILl1ELl1EEEE
libspdlog.so.1:_ZN6spdlog7details8registry13set_formatterESt10unique_ptrINS_9formatterESt14default_deleteIS3_EE
libspdlog.so.1:_ZN6spdlog7details8registry14default_loggerEv
libspdlog.so.1:_ZN6spdlog7details8registry15get_default_rawEv
libspdlog.so.1:_ZN6spdlog7details8registry15register_loggerESt10shared_ptrINS_6loggerEE
libspdlog.so.1:_ZN6spdlog7details8registry16enable_backtraceEm
libspdlog.so.1:_ZN6spdlog7details8registry16register_logger_ESt10shared_ptrINS_6loggerEE
libspdlog.so.1:_ZN6spdlog7details8registry16throw_if_exists_ERKNSt7__cxx1112basic_stringIcSt11char_traitsIcESaIcEEE
libspdlog.so.1:_ZN6spdlog7details8registry17disable_backtraceEv
libspdlog.so.1:_ZN6spdlog7details8registry17initialize_loggerESt10shared_ptrINS_6loggerEE
libspdlog.so.1:_ZN6spdlog7details8registry17set_error_handlerEPFvRKNSt7__cxx1112basic_stringIcSt11char_traitsIcESaIcEEEE
libspdlog.so.1:_ZN6spdlog7details8registry18set_default_loggerESt10shared_ptrINS_6loggerEE
libspdlog.so.1:_ZN6spdlog7details8registry26set_automatic_registrationEb
libspdlog.so.1:_ZN6spdlog7details8registry3getERKNSt7__cxx1112basic_stringIcSt11char_traitsIcESaIcEEE
libspdlog.so.1:_ZN6spdlog7details8registry4dropERKNSt7__cxx1112basic_stringIcSt11char_traitsIcESaIcEEE
libspdlog.so.1:_ZN6spdlog7details8registry6get_tpEv
libspdlog.so.1:_ZN6spdlog7details8registry6set_tpESt10shared_ptrINS0_11thread_poolEE
libspdlog.so.1:_ZN6spdlog7details8registry8drop_allEv
libspdlog.so.1:_ZN6spdlog7details8registry8flush_onENS_5level10level_enumE
libspdlog.so.1:_ZN6spdlog7details8registry8instanceEv
libspdlog.so.1:_ZN6spdlog7details8registry8shutdownEv
libspdlog.so.1:_ZN6spdlog7details8registry8tp_mutexEv
libspdlog.so.1:_ZN6spdlog7details8registry9apply_allERKSt8functionIFvSt10shared_ptrINS_6loggerEEEE
libspdlog.so.1:_ZN6spdlog7details8registry9flush_allEv
libspdlog.so.1:_ZN6spdlog7details8registry9set_levelENS_5level10level_enumE
libspdlog.so.1:_ZN6spdlog7details8registryC1Ev
libspdlog.so.1:_ZN6spdlog7details8registryC2Ev
libspdlog.so.1:_ZN6spdlog8drop_allEv
libspdlog.so.1:_ZN6spdlog8flush_onENS_5level10level_enumE
libspdlog.so.1:_ZN6spdlog8shutdownEv
libspdlog.so.1:_ZN6spdlog9apply_allERKSt8functionIFvSt10shared_ptrINS_6loggerEEEE
libspdlog.so.1:_ZN6spdlog9set_levelENS_5level10level_enumE
libspdlog.so.1:_ZN6spdlog9spdlog_exC1ENSt7__cxx1112basic_stringIcSt11char_traitsIcESaIcEEE
libspdlog.so.1:_ZN6spdlog9spdlog_exC1ERKNSt7__cxx1112basic_stringIcSt11char_traitsIcESaIcEEEi
libspdlog.so.1:_ZN6spdlog9spdlog_exC2ENSt7__cxx1112basic_stringIcSt11char_traitsIcESaIcEEE
libspdlog.so.1:_ZN6spdlog9spdlog_exC2ERKNSt7__cxx1112basic_stringIcSt11char_traitsIcESaIcEEEi
libspdlog.so.1:_ZNK6spdlog17pattern_formatter5cloneEv
libspdlog.so.1:_ZNK6spdlog5sinks4sink10should_logENS_5level10level_enumE
libspdlog.so.1:_ZNK6spdlog5sinks4sink5levelEv
libspdlog.so.1:_ZNK6spdlog6logger11flush_levelEv
libspdlog.so.1:_ZNK6spdlog6logger4nameB5cxx11Ev
libspdlog.so.1:_ZNK6spdlog6logger5levelEv
libspdlog.so.1:_ZNK6spdlog6logger5sinksEv
libspdlog.so.1:_ZNK6spdlog7details10backtracer7enabledEv
libspdlog.so.1:_ZNK6spdlog7details11file_helper4sizeEv
libspdlog.so.1:_ZNK6spdlog7details11file_helper8filenameB5cxx11Ev
libspdlog.so.1:_ZNK6spdlog9spdlog_ex4whatEv
