kdewebkit5widgets.so:__bss_start
kdewebkit5widgets.so:_edata
kdewebkit5widgets.so:_end
kdewebkit5widgets.so:qt_plugin_instance
kdewebkit5widgets.so:qt_plugin_query_metadata
libKF5WebKit.so.5:_ZN10KWebWallet11fillWebFormERK4QUrlRK5QListINS_7WebFormEE
libKF5WebKit.so.5:_ZN10KWebWallet11qt_metacallEN11QMetaObject4CallEiPPv
libKF5WebKit.so.5:_ZN10KWebWallet11qt_metacastEPKc
libKF5WebKit.so.5:_ZN10KWebWallet12fillFormDataEP9QWebFrameb
libKF5WebKit.so.5:_ZN10KWebWallet12saveFormDataEP9QWebFramebb
libKF5WebKit.so.5:_ZN10KWebWallet12walletClosedEv
libKF5WebKit.so.5:_ZN10KWebWallet14removeFormDataEP9QWebFrameb
libKF5WebKit.so.5:_ZN10KWebWallet14removeFormDataERK5QListINS_7WebFormEE
libKF5WebKit.so.5:_ZN10KWebWallet16staticMetaObjectE
libKF5WebKit.so.5:_ZN10KWebWallet17KWebWalletPrivate10openWalletEv
libKF5WebKit.so.5:_ZN10KWebWallet17KWebWalletPrivate13parseFormDataEP9QWebFramebb
libKF5WebKit.so.5:_ZN10KWebWallet17KWebWalletPrivate15_k_walletClosedEv
libKF5WebKit.so.5:_ZN10KWebWallet17KWebWalletPrivate15saveDataToCacheERK7QString
libKF5WebKit.so.5:_ZN10KWebWallet17KWebWalletPrivate17_k_openWalletDoneEb
libKF5WebKit.so.5:_ZN10KWebWallet17KWebWalletPrivate17fillDataFromCacheER5QListINS_7WebFormEE
libKF5WebKit.so.5:_ZN10KWebWallet17KWebWalletPrivate19removeDataFromCacheERK5QListINS_7WebFormEE
libKF5WebKit.so.5:_ZN10KWebWallet17KWebWalletPrivateC1EPS_
libKF5WebKit.so.5:_ZN10KWebWallet17KWebWalletPrivateC2EPS_
libKF5WebKit.so.5:_ZN10KWebWallet19saveFormDataToCacheERK7QString
libKF5WebKit.so.5:_ZN10KWebWallet21fillFormDataFromCacheERK5QListI4QUrlE
libKF5WebKit.so.5:_ZN10KWebWallet21saveFormDataCompletedERK4QUrlb
libKF5WebKit.so.5:_ZN10KWebWallet21saveFormDataRequestedERK7QStringRK4QUrl
libKF5WebKit.so.5:_ZN10KWebWallet23removeFormDataFromCacheERK5QListINS_7WebFormEE
libKF5WebKit.so.5:_ZN10KWebWallet24fillFormRequestCompletedEb
libKF5WebKit.so.5:_ZN10KWebWallet25acceptSaveFormDataRequestERK7QString
libKF5WebKit.so.5:_ZN10KWebWallet25rejectSaveFormDataRequestERK7QString
libKF5WebKit.so.5:_ZN10KWebWalletC1EP7QObjecty
libKF5WebKit.so.5:_ZN10KWebWalletC2EP7QObjecty
libKF5WebKit.so.5:_ZN10KWebWalletD0Ev
libKF5WebKit.so.5:_ZN10KWebWalletD1Ev
libKF5WebKit.so.5:_ZN10KWebWalletD2Ev
libKF5WebKit.so.5:_ZN16KGraphicsWebView10wheelEventEP24QGraphicsSceneWheelEvent
libKF5WebKit.so.5:_ZN16KGraphicsWebView11qt_metacallEN11QMetaObject4CallEiPPv
libKF5WebKit.so.5:_ZN16KGraphicsWebView11qt_metacastEPKc
libKF5WebKit.so.5:_ZN16KGraphicsWebView15mousePressEventEP24QGraphicsSceneMouseEvent
libKF5WebKit.so.5:_ZN16KGraphicsWebView16linkShiftClickedERK4QUrl
libKF5WebKit.so.5:_ZN16KGraphicsWebView16staticMetaObjectE
libKF5WebKit.so.5:_ZN16KGraphicsWebView17mouseReleaseEventEP24QGraphicsSceneMouseEvent
libKF5WebKit.so.5:_ZN16KGraphicsWebView23linkMiddleOrCtrlClickedERK4QUrl
libKF5WebKit.so.5:_ZN16KGraphicsWebView23setAllowExternalContentEb
libKF5WebKit.so.5:_ZN16KGraphicsWebView27selectionClipboardUrlPastedERK4QUrl
libKF5WebKit.so.5:_ZN16KGraphicsWebView27selectionClipboardUrlPastedERK4QUrlRK7QString
libKF5WebKit.so.5:_ZN16KGraphicsWebViewC1EP13QGraphicsItemb
libKF5WebKit.so.5:_ZN16KGraphicsWebViewC2EP13QGraphicsItemb
libKF5WebKit.so.5:_ZN16KGraphicsWebViewD0Ev
libKF5WebKit.so.5:_ZN16KGraphicsWebViewD1Ev
libKF5WebKit.so.5:_ZN16KGraphicsWebViewD2Ev
libKF5WebKit.so.5:_ZN17KWebPluginFactory11qt_metacallEN11QMetaObject4CallEiPPv
libKF5WebKit.so.5:_ZN17KWebPluginFactory11qt_metacastEPKc
libKF5WebKit.so.5:_ZN17KWebPluginFactory16staticMetaObjectE
libKF5WebKit.so.5:_ZN17KWebPluginFactoryC1EP7QObject
libKF5WebKit.so.5:_ZN17KWebPluginFactoryC2EP7QObject
libKF5WebKit.so.5:_ZN17KWebPluginFactoryD0Ev
libKF5WebKit.so.5:_ZN17KWebPluginFactoryD1Ev
libKF5WebKit.so.5:_ZN17KWebPluginFactoryD2Ev
libKF5WebKit.so.5:_ZN8KWebPage11downloadUrlERK4QUrl
libKF5WebKit.so.5:_ZN8KWebPage11handleReplyEP13QNetworkReplyP7QStringPN3KIO8MetaDataE
libKF5WebKit.so.5:_ZN8KWebPage11qt_metacallEN11QMetaObject4CallEiPPv
libKF5WebKit.so.5:_ZN8KWebPage11qt_metacastEPKc
libKF5WebKit.so.5:_ZN8KWebPage15downloadRequestERK15QNetworkRequest
libKF5WebKit.so.5:_ZN8KWebPage16downloadResponseEP13QNetworkReply
libKF5WebKit.so.5:_ZN8KWebPage16staticMetaObjectE
libKF5WebKit.so.5:_ZN8KWebPage18setRequestMetaDataERK7QStringS2_
libKF5WebKit.so.5:_ZN8KWebPage18setSessionMetaDataERK7QStringS2_
libKF5WebKit.so.5:_ZN8KWebPage21removeRequestMetaDataERK7QString
libKF5WebKit.so.5:_ZN8KWebPage21removeSessionMetaDataERK7QString
libKF5WebKit.so.5:_ZN8KWebPage23acceptNavigationRequestEP9QWebFrameRK15QNetworkRequestN8QWebPage14NavigationTypeE
libKF5WebKit.so.5:_ZN8KWebPage23setAllowExternalContentEb
libKF5WebKit.so.5:_ZN8KWebPage9setWalletEP10KWebWallet
libKF5WebKit.so.5:_ZN8KWebPageC1EP7QObject6QFlagsINS_16IntegrationFlagsEE
libKF5WebKit.so.5:_ZN8KWebPageC2EP7QObject6QFlagsINS_16IntegrationFlagsEE
libKF5WebKit.so.5:_ZN8KWebPageD0Ev
libKF5WebKit.so.5:_ZN8KWebPageD1Ev
libKF5WebKit.so.5:_ZN8KWebPageD2Ev
libKF5WebKit.so.5:_ZN8KWebView10wheelEventEP11QWheelEvent
libKF5WebKit.so.5:_ZN8KWebView11qt_metacallEN11QMetaObject4CallEiPPv
libKF5WebKit.so.5:_ZN8KWebView11qt_metacastEPKc
libKF5WebKit.so.5:_ZN8KWebView15mousePressEventEP11QMouseEvent
libKF5WebKit.so.5:_ZN8KWebView16linkShiftClickedERK4QUrl
libKF5WebKit.so.5:_ZN8KWebView16staticMetaObjectE
libKF5WebKit.so.5:_ZN8KWebView17mouseReleaseEventEP11QMouseEvent
libKF5WebKit.so.5:_ZN8KWebView23linkMiddleOrCtrlClickedERK4QUrl
libKF5WebKit.so.5:_ZN8KWebView23setAllowExternalContentEb
libKF5WebKit.so.5:_ZN8KWebView27selectionClipboardUrlPastedERK4QUrl
libKF5WebKit.so.5:_ZN8KWebView27selectionClipboardUrlPastedERK4QUrlRK7QString
libKF5WebKit.so.5:_ZN8KWebViewC1EP7QWidgetb
libKF5WebKit.so.5:_ZN8KWebViewC2EP7QWidgetb
libKF5WebKit.so.5:_ZN8KWebViewD0Ev
libKF5WebKit.so.5:_ZN8KWebViewD1Ev
libKF5WebKit.so.5:_ZN8KWebViewD2Ev
libKF5WebKit.so.5:_ZNK10KWebWallet10metaObjectEv
libKF5WebKit.so.5:_ZNK10KWebWallet11formsToFillERK4QUrl
libKF5WebKit.so.5:_ZNK10KWebWallet11formsToSaveERK7QString
libKF5WebKit.so.5:_ZNK10KWebWallet17hasCachedFormDataERKNS_7WebFormE
libKF5WebKit.so.5:_ZNK10KWebWallet19formsWithCachedDataEP9QWebFrameb
libKF5WebKit.so.5:_ZNK16KGraphicsWebView10metaObjectEv
libKF5WebKit.so.5:_ZNK16KGraphicsWebView24isExternalContentAllowedEv
libKF5WebKit.so.5:_ZNK17KWebPluginFactory10metaObjectEv
libKF5WebKit.so.5:_ZNK17KWebPluginFactory16excludedMimeTypeERK7QString
libKF5WebKit.so.5:_ZNK17KWebPluginFactory22createPartInstanceFromERK7QStringRK11QStringListS5_P7QWidgetP7QObject
libKF5WebKit.so.5:_ZNK17KWebPluginFactory22extractGuessedMimeTypeERK4QUrlP7QString
libKF5WebKit.so.5:_ZNK17KWebPluginFactory6createERK7QStringRK4QUrlRK11QStringListS8_
libKF5WebKit.so.5:_ZNK17KWebPluginFactory7pluginsEv
libKF5WebKit.so.5:_ZNK8KWebPage10metaObjectEv
libKF5WebKit.so.5:_ZNK8KWebPage15requestMetaDataERK7QString
libKF5WebKit.so.5:_ZNK8KWebPage15sessionMetaDataERK7QString
libKF5WebKit.so.5:_ZNK8KWebPage15userAgentForUrlERK4QUrl
libKF5WebKit.so.5:_ZNK8KWebPage24isExternalContentAllowedEv
libKF5WebKit.so.5:_ZNK8KWebPage6walletEv
libKF5WebKit.so.5:_ZNK8KWebView10metaObjectEv
libKF5WebKit.so.5:_ZNK8KWebView24isExternalContentAllowedEv
libKF5WebKit.so.5:_ZTI10KWebWallet
libKF5WebKit.so.5:_ZTI16KGraphicsWebView
libKF5WebKit.so.5:_ZTI17KWebPluginFactory
libKF5WebKit.so.5:_ZTI8KWebPage
libKF5WebKit.so.5:_ZTI8KWebView
libKF5WebKit.so.5:_ZTS10KWebWallet
libKF5WebKit.so.5:_ZTS16KGraphicsWebView
libKF5WebKit.so.5:_ZTS17KWebPluginFactory
libKF5WebKit.so.5:_ZTS8KWebPage
libKF5WebKit.so.5:_ZTS8KWebView
libKF5WebKit.so.5:_ZTV10KWebWallet
libKF5WebKit.so.5:_ZTV16KGraphicsWebView
libKF5WebKit.so.5:_ZTV17KWebPluginFactory
libKF5WebKit.so.5:_ZTV8KWebPage
libKF5WebKit.so.5:_ZTV8KWebView
libKF5WebKit.so.5:_ZThn16_N16KGraphicsWebView10wheelEventEP24QGraphicsSceneWheelEvent
libKF5WebKit.so.5:_ZThn16_N16KGraphicsWebView15mousePressEventEP24QGraphicsSceneMouseEvent
libKF5WebKit.so.5:_ZThn16_N16KGraphicsWebView17mouseReleaseEventEP24QGraphicsSceneMouseEvent
libKF5WebKit.so.5:_ZThn16_N16KGraphicsWebViewD0Ev
libKF5WebKit.so.5:_ZThn16_N16KGraphicsWebViewD1Ev
libKF5WebKit.so.5:_ZThn16_N8KWebViewD0Ev
libKF5WebKit.so.5:_ZThn16_N8KWebViewD1Ev
libKF5WebKit.so.5:_ZThn32_N16KGraphicsWebViewD0Ev
libKF5WebKit.so.5:_ZThn32_N16KGraphicsWebViewD1Ev
libKF5WebKit.so.5:_ZZZN15KMimeTypeTrader16preferredServiceERK7QStringS2_Ed_NKUlvE_clEvE15qstring_literal
libKF5WebKit.so.5:_ZZZN15KMimeTypeTrader27createPartInstanceFromQueryIN6KParts12ReadOnlyPartEEEPT_RK7QStringP7QWidgetP7QObjectS7_RK5QListI8QVariantEPS5_ENKUlvE_clEvE15qstring_literal
libKF5WebKit.so.5:__bss_start
libKF5WebKit.so.5:_edata
libKF5WebKit.so.5:_end
