libKF6SonnetCore.so.6:_ZN6Sonnet10TextBreaks10wordBreaksERK7QString
libKF6SonnetCore.so.6:_ZN6Sonnet10TextBreaks14sentenceBreaksERK7QString
libKF6SonnetCore.so.6:_ZN6Sonnet10TextBreaks7setTextERK7QString
libKF6SonnetCore.so.6:_ZN6Sonnet10TextBreaksC1ERK7QString
libKF6SonnetCore.so.6:_ZN6Sonnet10TextBreaksC2ERK7QString
libKF6SonnetCore.so.6:_ZN6Sonnet10TextBreaksD0Ev
libKF6SonnetCore.so.6:_ZN6Sonnet10TextBreaksD1Ev
libKF6SonnetCore.so.6:_ZN6Sonnet10TextBreaksD2Ev
libKF6SonnetCore.so.6:_ZN6Sonnet12SettingsImpl11setModifiedEb
libKF6SonnetCore.so.6:_ZN6Sonnet12SettingsImpl15addWordToIgnoreERK7QString
libKF6SonnetCore.so.6:_ZN6Sonnet12SettingsImpl16setDefaultClientERK7QString
libKF6SonnetCore.so.6:_ZN6Sonnet12SettingsImpl17setCheckUppercaseEb
libKF6SonnetCore.so.6:_ZN6Sonnet12SettingsImpl18setDefaultLanguageERK7QString
libKF6SonnetCore.so.6:_ZN6Sonnet12SettingsImpl18setSkipRunTogetherEb
libKF6SonnetCore.so.6:_ZN6Sonnet12SettingsImpl20setCurrentIgnoreListERK5QListI7QStringE
libKF6SonnetCore.so.6:_ZN6Sonnet12SettingsImpl21setAutodetectLanguageEb
libKF6SonnetCore.so.6:_ZN6Sonnet12SettingsImpl21setPreferredLanguagesERK5QListI7QStringE
libKF6SonnetCore.so.6:_ZN6Sonnet12SettingsImpl26setCheckerEnabledByDefaultEb
libKF6SonnetCore.so.6:_ZN6Sonnet12SettingsImpl27setBackgroundCheckerEnabledEb
libKF6SonnetCore.so.6:_ZN6Sonnet12SettingsImpl4saveEv
libKF6SonnetCore.so.6:_ZN6Sonnet12SettingsImpl6ignoreERK7QString
libKF6SonnetCore.so.6:_ZN6Sonnet12SettingsImpl7restoreEv
libKF6SonnetCore.so.6:_ZN6Sonnet12SettingsImplD1Ev
libKF6SonnetCore.so.6:_ZN6Sonnet12SettingsImplD2Ev
libKF6SonnetCore.so.6:_ZN6Sonnet13GuessLanguage9setLimitsEid
libKF6SonnetCore.so.6:_ZN6Sonnet13GuessLanguageC1Ev
libKF6SonnetCore.so.6:_ZN6Sonnet13GuessLanguageC2Ev
libKF6SonnetCore.so.6:_ZN6Sonnet13GuessLanguageD1Ev
libKF6SonnetCore.so.6:_ZN6Sonnet13GuessLanguageD2Ev
libKF6SonnetCore.so.6:_ZN6Sonnet13SpellerPluginC2ERK7QString
libKF6SonnetCore.so.6:_ZN6Sonnet13SpellerPluginD0Ev
libKF6SonnetCore.so.6:_ZN6Sonnet13SpellerPluginD1Ev
libKF6SonnetCore.so.6:_ZN6Sonnet13SpellerPluginD2Ev
libKF6SonnetCore.so.6:_ZN6Sonnet13WordTokenizer18setIgnoreUppercaseEb
libKF6SonnetCore.so.6:_ZN6Sonnet13WordTokenizer4nextEv
libKF6SonnetCore.so.6:_ZN6Sonnet13WordTokenizer7replaceEiiRK7QString
libKF6SonnetCore.so.6:_ZN6Sonnet13WordTokenizer9setBufferERK7QString
libKF6SonnetCore.so.6:_ZN6Sonnet13WordTokenizerC1ERK7QString
libKF6SonnetCore.so.6:_ZN6Sonnet13WordTokenizerC2ERK7QString
libKF6SonnetCore.so.6:_ZN6Sonnet13WordTokenizerD0Ev
libKF6SonnetCore.so.6:_ZN6Sonnet13WordTokenizerD1Ev
libKF6SonnetCore.so.6:_ZN6Sonnet13WordTokenizerD2Ev
libKF6SonnetCore.so.6:_ZN6Sonnet14LanguageFilter4nextEv
libKF6SonnetCore.so.6:_ZN6Sonnet14LanguageFilter7replaceEiiRK7QString
libKF6SonnetCore.so.6:_ZN6Sonnet14LanguageFilter9setBufferERK7QString
libKF6SonnetCore.so.6:_ZN6Sonnet14LanguageFilterC1EPNS_17AbstractTokenizerE
libKF6SonnetCore.so.6:_ZN6Sonnet14LanguageFilterC1ERKS0_
libKF6SonnetCore.so.6:_ZN6Sonnet14LanguageFilterC2EPNS_17AbstractTokenizerE
libKF6SonnetCore.so.6:_ZN6Sonnet14LanguageFilterC2ERKS0_
libKF6SonnetCore.so.6:_ZN6Sonnet14LanguageFilterD0Ev
libKF6SonnetCore.so.6:_ZN6Sonnet14LanguageFilterD1Ev
libKF6SonnetCore.so.6:_ZN6Sonnet14LanguageFilterD2Ev
libKF6SonnetCore.so.6:_ZN6Sonnet17BackgroundChecker10setSpellerERKNS_7SpellerE
libKF6SonnetCore.so.6:_ZN6Sonnet17BackgroundChecker11misspellingERK7QStringi
libKF6SonnetCore.so.6:_ZN6Sonnet17BackgroundChecker11qt_metacallEN11QMetaObject4CallEiPPv
libKF6SonnetCore.so.6:_ZN6Sonnet17BackgroundChecker11qt_metacastEPKc
libKF6SonnetCore.so.6:_ZN6Sonnet17BackgroundChecker13fetchMoreTextEv
libKF6SonnetCore.so.6:_ZN6Sonnet17BackgroundChecker14changeLanguageERK7QString
libKF6SonnetCore.so.6:_ZN6Sonnet17BackgroundChecker14slotEngineDoneEv
libKF6SonnetCore.so.6:_ZN6Sonnet17BackgroundChecker16addWordToSessionERK7QString
libKF6SonnetCore.so.6:_ZN6Sonnet17BackgroundChecker16continueCheckingEv
libKF6SonnetCore.so.6:_ZN6Sonnet17BackgroundChecker16staticMetaObjectE
libKF6SonnetCore.so.6:_ZN6Sonnet17BackgroundChecker17addWordToPersonalERK7QString
libKF6SonnetCore.so.6:_ZN6Sonnet17BackgroundChecker19finishedCurrentFeedEv
libKF6SonnetCore.so.6:_ZN6Sonnet17BackgroundChecker29setAutoDetectLanguageDisabledEb
libKF6SonnetCore.so.6:_ZN6Sonnet17BackgroundChecker4doneEv
libKF6SonnetCore.so.6:_ZN6Sonnet17BackgroundChecker4stopEv
libKF6SonnetCore.so.6:_ZN6Sonnet17BackgroundChecker5startEv
libKF6SonnetCore.so.6:_ZN6Sonnet17BackgroundChecker7replaceEiRK7QStringS3_
libKF6SonnetCore.so.6:_ZN6Sonnet17BackgroundChecker7setTextERK7QString
libKF6SonnetCore.so.6:_ZN6Sonnet17BackgroundChecker9checkWordERK7QString
libKF6SonnetCore.so.6:_ZN6Sonnet17BackgroundCheckerC1EP7QObject
libKF6SonnetCore.so.6:_ZN6Sonnet17BackgroundCheckerC1ERKNS_7SpellerEP7QObject
libKF6SonnetCore.so.6:_ZN6Sonnet17BackgroundCheckerC2EP7QObject
libKF6SonnetCore.so.6:_ZN6Sonnet17BackgroundCheckerC2ERKNS_7SpellerEP7QObject
libKF6SonnetCore.so.6:_ZN6Sonnet17BackgroundCheckerD0Ev
libKF6SonnetCore.so.6:_ZN6Sonnet17BackgroundCheckerD1Ev
libKF6SonnetCore.so.6:_ZN6Sonnet17BackgroundCheckerD2Ev
libKF6SonnetCore.so.6:_ZN6Sonnet17SentenceTokenizer4nextEv
libKF6SonnetCore.so.6:_ZN6Sonnet17SentenceTokenizer7replaceEiiRK7QString
libKF6SonnetCore.so.6:_ZN6Sonnet17SentenceTokenizer9setBufferERK7QString
libKF6SonnetCore.so.6:_ZN6Sonnet17SentenceTokenizerC1ERK7QString
libKF6SonnetCore.so.6:_ZN6Sonnet17SentenceTokenizerC2ERK7QString
libKF6SonnetCore.so.6:_ZN6Sonnet17SentenceTokenizerD0Ev
libKF6SonnetCore.so.6:_ZN6Sonnet17SentenceTokenizerD1Ev
libKF6SonnetCore.so.6:_ZN6Sonnet17SentenceTokenizerD2Ev
libKF6SonnetCore.so.6:_ZN6Sonnet6Client11qt_metacallEN11QMetaObject4CallEiPPv
libKF6SonnetCore.so.6:_ZN6Sonnet6Client11qt_metacastEPKc
libKF6SonnetCore.so.6:_ZN6Sonnet6Client16staticMetaObjectE
libKF6SonnetCore.so.6:_ZN6Sonnet6ClientC2EP7QObject
libKF6SonnetCore.so.6:_ZN6Sonnet6Loader10openLoaderEv
libKF6SonnetCore.so.6:_ZN6Sonnet6Loader11qt_metacallEN11QMetaObject4CallEiPPv
libKF6SonnetCore.so.6:_ZN6Sonnet6Loader11qt_metacastEPKc
libKF6SonnetCore.so.6:_ZN6Sonnet6Loader13cachedSpellerERK7QString
libKF6SonnetCore.so.6:_ZN6Sonnet6Loader16staticMetaObjectE
libKF6SonnetCore.so.6:_ZN6Sonnet6Loader17clearSpellerCacheEv
libKF6SonnetCore.so.6:_ZN6Sonnet6Loader20configurationChangedEv
libKF6SonnetCore.so.6:_ZN6Sonnet6Loader7changedEv
libKF6SonnetCore.so.6:_ZN6Sonnet6LoaderC1Ev
libKF6SonnetCore.so.6:_ZN6Sonnet6LoaderC2Ev
libKF6SonnetCore.so.6:_ZN6Sonnet6LoaderD0Ev
libKF6SonnetCore.so.6:_ZN6Sonnet6LoaderD1Ev
libKF6SonnetCore.so.6:_ZN6Sonnet6LoaderD2Ev
libKF6SonnetCore.so.6:_ZN6Sonnet7Speller11setLanguageERK7QString
libKF6SonnetCore.so.6:_ZN6Sonnet7Speller12addToSessionERK7QString
libKF6SonnetCore.so.6:_ZN6Sonnet7Speller12setAttributeENS0_9AttributeEb
libKF6SonnetCore.so.6:_ZN6Sonnet7Speller13addToPersonalERK7QString
libKF6SonnetCore.so.6:_ZN6Sonnet7Speller16setDefaultClientERK7QString
libKF6SonnetCore.so.6:_ZN6Sonnet7Speller16storeReplacementERK7QStringS3_
libKF6SonnetCore.so.6:_ZN6Sonnet7Speller18setDefaultLanguageERK7QString
libKF6SonnetCore.so.6:_ZN6Sonnet7Speller4saveEv
libKF6SonnetCore.so.6:_ZN6Sonnet7Speller7restoreEv
libKF6SonnetCore.so.6:_ZN6Sonnet7SpellerC1ERK7QString
libKF6SonnetCore.so.6:_ZN6Sonnet7SpellerC1ERKS0_
libKF6SonnetCore.so.6:_ZN6Sonnet7SpellerC2ERK7QString
libKF6SonnetCore.so.6:_ZN6Sonnet7SpellerC2ERKS0_
libKF6SonnetCore.so.6:_ZN6Sonnet7SpellerD1Ev
libKF6SonnetCore.so.6:_ZN6Sonnet7SpellerD2Ev
libKF6SonnetCore.so.6:_ZN6Sonnet7SpelleraSERKS0_
libKF6SonnetCore.so.6:_ZN6Sonnet8Settings11qt_metacallEN11QMetaObject4CallEiPPv
libKF6SonnetCore.so.6:_ZN6Sonnet8Settings11qt_metacastEPKc
libKF6SonnetCore.so.6:_ZN6Sonnet8Settings15dictionaryModelEv
libKF6SonnetCore.so.6:_ZN6Sonnet8Settings15modifiedChangedEv
libKF6SonnetCore.so.6:_ZN6Sonnet8Settings16setDefaultClientERK7QString
libKF6SonnetCore.so.6:_ZN6Sonnet8Settings16setSkipUppercaseEb
libKF6SonnetCore.so.6:_ZN6Sonnet8Settings16staticMetaObjectE
libKF6SonnetCore.so.6:_ZN6Sonnet8Settings17defaultIgnoreListEv
libKF6SonnetCore.so.6:_ZN6Sonnet8Settings18setDefaultLanguageERK7QString
libKF6SonnetCore.so.6:_ZN6Sonnet8Settings18setSkipRunTogetherEb
libKF6SonnetCore.so.6:_ZN6Sonnet8Settings20defaultClientChangedEv
libKF6SonnetCore.so.6:_ZN6Sonnet8Settings20defaultSkipUppercaseEv
libKF6SonnetCore.so.6:_ZN6Sonnet8Settings20setCurrentIgnoreListERK5QListI7QStringE
libKF6SonnetCore.so.6:_ZN6Sonnet8Settings20skipUppercaseChangedEv
libKF6SonnetCore.so.6:_ZN6Sonnet8Settings21setAutodetectLanguageEb
libKF6SonnetCore.so.6:_ZN6Sonnet8Settings21setPreferredLanguagesERK5QListI7QStringE
libKF6SonnetCore.so.6:_ZN6Sonnet8Settings22defauktSkipRunTogetherEv
libKF6SonnetCore.so.6:_ZN6Sonnet8Settings22defaultDefaultLanguageEv
libKF6SonnetCore.so.6:_ZN6Sonnet8Settings22defaultLanguageChangedEv
libKF6SonnetCore.so.6:_ZN6Sonnet8Settings22skipRunTogetherChangedEv
libKF6SonnetCore.so.6:_ZN6Sonnet8Settings24currentIgnoreListChangedEv
libKF6SonnetCore.so.6:_ZN6Sonnet8Settings25autodetectLanguageChangedEv
libKF6SonnetCore.so.6:_ZN6Sonnet8Settings25defaultAutodetectLanguageEv
libKF6SonnetCore.so.6:_ZN6Sonnet8Settings25defaultPreferredLanguagesEv
libKF6SonnetCore.so.6:_ZN6Sonnet8Settings25preferredLanguagesChangedEv
libKF6SonnetCore.so.6:_ZN6Sonnet8Settings26setCheckerEnabledByDefaultEb
libKF6SonnetCore.so.6:_ZN6Sonnet8Settings27setBackgroundCheckerEnabledEb
libKF6SonnetCore.so.6:_ZN6Sonnet8Settings30checkerEnabledByDefaultChangedEv
libKF6SonnetCore.so.6:_ZN6Sonnet8Settings30defaultCheckerEnabledByDefaultEv
libKF6SonnetCore.so.6:_ZN6Sonnet8Settings31backgroundCheckerEnabledChangedEv
libKF6SonnetCore.so.6:_ZN6Sonnet8Settings31defaultBackgroundCheckerEnabledEv
libKF6SonnetCore.so.6:_ZN6Sonnet8Settings4saveEv
libKF6SonnetCore.so.6:_ZN6Sonnet8SettingsC1EP7QObject
libKF6SonnetCore.so.6:_ZN6Sonnet8SettingsC2EP7QObject
libKF6SonnetCore.so.6:_ZN6Sonnet8SettingsD0Ev
libKF6SonnetCore.so.6:_ZN6Sonnet8SettingsD1Ev
libKF6SonnetCore.so.6:_ZN6Sonnet8SettingsD2Ev
libKF6SonnetCore.so.6:_ZNK6Sonnet10TextBreaks10wordBreaksEv
libKF6SonnetCore.so.6:_ZNK6Sonnet10TextBreaks14sentenceBreaksEv
libKF6SonnetCore.so.6:_ZNK6Sonnet10TextBreaks4textEv
libKF6SonnetCore.so.6:_ZNK6Sonnet12SettingsImpl13defaultClientEv
libKF6SonnetCore.so.6:_ZNK6Sonnet12SettingsImpl14checkUppercaseEv
libKF6SonnetCore.so.6:_ZNK6Sonnet12SettingsImpl15defaultLanguageEv
libKF6SonnetCore.so.6:_ZNK6Sonnet12SettingsImpl15skipRunTogetherEv
libKF6SonnetCore.so.6:_ZNK6Sonnet12SettingsImpl17currentIgnoreListEv
libKF6SonnetCore.so.6:_ZNK6Sonnet12SettingsImpl18autodetectLanguageEv
libKF6SonnetCore.so.6:_ZNK6Sonnet12SettingsImpl18preferredLanguagesEv
libKF6SonnetCore.so.6:_ZNK6Sonnet12SettingsImpl21disableWordErrorCountEv
libKF6SonnetCore.so.6:_ZNK6Sonnet12SettingsImpl23checkerEnabledByDefaultEv
libKF6SonnetCore.so.6:_ZNK6Sonnet12SettingsImpl24backgroundCheckerEnabledEv
libKF6SonnetCore.so.6:_ZNK6Sonnet12SettingsImpl26disablePercentageWordErrorEv
libKF6SonnetCore.so.6:_ZNK6Sonnet12SettingsImpl8modifiedEv
libKF6SonnetCore.so.6:_ZNK6Sonnet13GuessLanguage8identifyERK7QStringRK5QListIS1_E
libKF6SonnetCore.so.6:_ZNK6Sonnet13SpellerPlugin12isMisspelledERK7QString
libKF6SonnetCore.so.6:_ZNK6Sonnet13SpellerPlugin15checkAndSuggestERK7QStringR5QListIS1_E
libKF6SonnetCore.so.6:_ZNK6Sonnet13SpellerPlugin8languageEv
libKF6SonnetCore.so.6:_ZNK6Sonnet13WordTokenizer16isSpellcheckableEv
libKF6SonnetCore.so.6:_ZNK6Sonnet13WordTokenizer6bufferEv
libKF6SonnetCore.so.6:_ZNK6Sonnet13WordTokenizer7hasNextEv
libKF6SonnetCore.so.6:_ZNK6Sonnet14LanguageFilter16isSpellcheckableEv
libKF6SonnetCore.so.6:_ZNK6Sonnet14LanguageFilter6bufferEv
libKF6SonnetCore.so.6:_ZNK6Sonnet14LanguageFilter7hasNextEv
libKF6SonnetCore.so.6:_ZNK6Sonnet14LanguageFilter8languageEv
libKF6SonnetCore.so.6:_ZNK6Sonnet17BackgroundChecker10metaObjectEv
libKF6SonnetCore.so.6:_ZNK6Sonnet17BackgroundChecker14currentContextEv
libKF6SonnetCore.so.6:_ZNK6Sonnet17BackgroundChecker26autoDetectLanguageDisabledEv
libKF6SonnetCore.so.6:_ZNK6Sonnet17BackgroundChecker4textEv
libKF6SonnetCore.so.6:_ZNK6Sonnet17BackgroundChecker7spellerEv
libKF6SonnetCore.so.6:_ZNK6Sonnet17BackgroundChecker7suggestERK7QString
libKF6SonnetCore.so.6:_ZNK6Sonnet17SentenceTokenizer6bufferEv
libKF6SonnetCore.so.6:_ZNK6Sonnet17SentenceTokenizer7hasNextEv
libKF6SonnetCore.so.6:_ZNK6Sonnet6Client10metaObjectEv
libKF6SonnetCore.so.6:_ZNK6Sonnet6Loader10metaObjectEv
libKF6SonnetCore.so.6:_ZNK6Sonnet6Loader13createSpellerERK7QStringS3_
libKF6SonnetCore.so.6:_ZNK6Sonnet6Loader13languageNamesEv
libKF6SonnetCore.so.6:_ZNK6Sonnet6Loader19languageNameForCodeERK7QString
libKF6SonnetCore.so.6:_ZNK6Sonnet6Loader23loadingDictionaryFailedERK7QString
libKF6SonnetCore.so.6:_ZNK6Sonnet6Loader7clientsEv
libKF6SonnetCore.so.6:_ZNK6Sonnet6Loader8settingsEv
libKF6SonnetCore.so.6:_ZNK6Sonnet6Loader9languagesEv
libKF6SonnetCore.so.6:_ZNK6Sonnet7Speller12isMisspelledERK7QString
libKF6SonnetCore.so.6:_ZNK6Sonnet7Speller13defaultClientEv
libKF6SonnetCore.so.6:_ZNK6Sonnet7Speller13testAttributeENS0_9AttributeE
libKF6SonnetCore.so.6:_ZNK6Sonnet7Speller15checkAndSuggestERK7QStringR5QListIS1_E
libKF6SonnetCore.so.6:_ZNK6Sonnet7Speller15defaultLanguageEv
libKF6SonnetCore.so.6:_ZNK6Sonnet7Speller17availableBackendsEv
libKF6SonnetCore.so.6:_ZNK6Sonnet7Speller18availableLanguagesEv
libKF6SonnetCore.so.6:_ZNK6Sonnet7Speller21availableDictionariesEv
libKF6SonnetCore.so.6:_ZNK6Sonnet7Speller21preferredDictionariesEv
libKF6SonnetCore.so.6:_ZNK6Sonnet7Speller22availableLanguageNamesEv
libKF6SonnetCore.so.6:_ZNK6Sonnet7Speller7isValidEv
libKF6SonnetCore.so.6:_ZNK6Sonnet7Speller7suggestERK7QString
libKF6SonnetCore.so.6:_ZNK6Sonnet7Speller8languageEv
libKF6SonnetCore.so.6:_ZNK6Sonnet7Speller9isCorrectERK7QString
libKF6SonnetCore.so.6:_ZNK6Sonnet8Settings10metaObjectEv
libKF6SonnetCore.so.6:_ZNK6Sonnet8Settings13defaultClientEv
libKF6SonnetCore.so.6:_ZNK6Sonnet8Settings13skipUppercaseEv
libKF6SonnetCore.so.6:_ZNK6Sonnet8Settings15defaultLanguageEv
libKF6SonnetCore.so.6:_ZNK6Sonnet8Settings15skipRunTogetherEv
libKF6SonnetCore.so.6:_ZNK6Sonnet8Settings17currentIgnoreListEv
libKF6SonnetCore.so.6:_ZNK6Sonnet8Settings18autodetectLanguageEv
libKF6SonnetCore.so.6:_ZNK6Sonnet8Settings18preferredLanguagesEv
libKF6SonnetCore.so.6:_ZNK6Sonnet8Settings23checkerEnabledByDefaultEv
libKF6SonnetCore.so.6:_ZNK6Sonnet8Settings24backgroundCheckerEnabledEv
libKF6SonnetCore.so.6:_ZNK6Sonnet8Settings7clientsEv
libKF6SonnetCore.so.6:_ZNK6Sonnet8Settings8modifiedEv
libKF6SonnetCore.so.6:_ZTIN6Sonnet10TextBreaksE
libKF6SonnetCore.so.6:_ZTIN6Sonnet13SpellerPluginE
libKF6SonnetCore.so.6:_ZTIN6Sonnet13WordTokenizerE
libKF6SonnetCore.so.6:_ZTIN6Sonnet14LanguageFilterE
libKF6SonnetCore.so.6:_ZTIN6Sonnet17BackgroundCheckerE
libKF6SonnetCore.so.6:_ZTIN6Sonnet17SentenceTokenizerE
libKF6SonnetCore.so.6:_ZTIN6Sonnet6ClientE
libKF6SonnetCore.so.6:_ZTIN6Sonnet6LoaderE
libKF6SonnetCore.so.6:_ZTIN6Sonnet8SettingsE
libKF6SonnetCore.so.6:_ZTSN6Sonnet10TextBreaksE
libKF6SonnetCore.so.6:_ZTSN6Sonnet13SpellerPluginE
libKF6SonnetCore.so.6:_ZTSN6Sonnet13WordTokenizerE
libKF6SonnetCore.so.6:_ZTSN6Sonnet14LanguageFilterE
libKF6SonnetCore.so.6:_ZTSN6Sonnet17BackgroundCheckerE
libKF6SonnetCore.so.6:_ZTSN6Sonnet17SentenceTokenizerE
libKF6SonnetCore.so.6:_ZTSN6Sonnet6ClientE
libKF6SonnetCore.so.6:_ZTSN6Sonnet6LoaderE
libKF6SonnetCore.so.6:_ZTSN6Sonnet8SettingsE
libKF6SonnetCore.so.6:_ZTVN6Sonnet10TextBreaksE
libKF6SonnetCore.so.6:_ZTVN6Sonnet13SpellerPluginE
libKF6SonnetCore.so.6:_ZTVN6Sonnet13WordTokenizerE
libKF6SonnetCore.so.6:_ZTVN6Sonnet14LanguageFilterE
libKF6SonnetCore.so.6:_ZTVN6Sonnet17BackgroundCheckerE
libKF6SonnetCore.so.6:_ZTVN6Sonnet17SentenceTokenizerE
libKF6SonnetCore.so.6:_ZTVN6Sonnet6ClientE
libKF6SonnetCore.so.6:_ZTVN6Sonnet6LoaderE
libKF6SonnetCore.so.6:_ZTVN6Sonnet8SettingsE
libKF6SonnetUi.so.6:_ZN6Sonnet10ConfigView11qt_metacallEN11QMetaObject4CallEiPPv
libKF6SonnetUi.so.6:_ZN6Sonnet10ConfigView11qt_metacastEPKc
libKF6SonnetUi.so.6:_ZN6Sonnet10ConfigView11setLanguageERK7QString
libKF6SonnetUi.so.6:_ZN6Sonnet10ConfigView13configChangedEv
libKF6SonnetUi.so.6:_ZN6Sonnet10ConfigView13setIgnoreListERK5QListI7QStringE
libKF6SonnetUi.so.6:_ZN6Sonnet10ConfigView16staticMetaObjectE
libKF6SonnetUi.so.6:_ZN6Sonnet10ConfigView21setPreferredLanguagesERK5QListI7QStringE
libKF6SonnetUi.so.6:_ZN6Sonnet10ConfigView24setNoBackendFoundVisibleEb
libKF6SonnetUi.so.6:_ZN6Sonnet10ConfigView32setBackgroundCheckingButtonShownEb
libKF6SonnetUi.so.6:_ZN6Sonnet10ConfigViewC1EP7QWidget
libKF6SonnetUi.so.6:_ZN6Sonnet10ConfigViewC2EP7QWidget
libKF6SonnetUi.so.6:_ZN6Sonnet10ConfigViewD0Ev
libKF6SonnetUi.so.6:_ZN6Sonnet10ConfigViewD1Ev
libKF6SonnetUi.so.6:_ZN6Sonnet10ConfigViewD2Ev
libKF6SonnetUi.so.6:_ZN6Sonnet11Highlighter10ignoreWordERK7QString
libKF6SonnetUi.so.6:_ZN6Sonnet11Highlighter11eventFilterEP7QObjectP6QEvent
libKF6SonnetUi.so.6:_ZN6Sonnet11Highlighter11qt_metacallEN11QMetaObject4CallEiPPv
libKF6SonnetUi.so.6:_ZN6Sonnet11Highlighter11qt_metacastEPKc
libKF6SonnetUi.so.6:_ZN6Sonnet11Highlighter11setDocumentEP13QTextDocument
libKF6SonnetUi.so.6:_ZN6Sonnet11Highlighter12setAutomaticEb
libKF6SonnetUi.so.6:_ZN6Sonnet11Highlighter13activeChangedERK7QString
libKF6SonnetUi.so.6:_ZN6Sonnet11Highlighter13setMisspelledEii
libKF6SonnetUi.so.6:_ZN6Sonnet11Highlighter14highlightBlockERK7QString
libKF6SonnetUi.so.6:_ZN6Sonnet11Highlighter15slotRehighlightEv
libKF6SonnetUi.so.6:_ZN6Sonnet11Highlighter15unsetMisspelledEii
libKF6SonnetUi.so.6:_ZN6Sonnet11Highlighter16isWordMisspelledERK7QString
libKF6SonnetUi.so.6:_ZN6Sonnet11Highlighter16staticMetaObjectE
libKF6SonnetUi.so.6:_ZN6Sonnet11Highlighter17slotAutoDetectionEv
libKF6SonnetUi.so.6:_ZN6Sonnet11Highlighter18setCurrentLanguageERK7QString
libKF6SonnetUi.so.6:_ZN6Sonnet11Highlighter18setMisspelledColorERK6QColor
libKF6SonnetUi.so.6:_ZN6Sonnet11Highlighter18suggestionsForWordERK7QStringRK11QTextCursori
libKF6SonnetUi.so.6:_ZN6Sonnet11Highlighter18suggestionsForWordERK7QStringi
libKF6SonnetUi.so.6:_ZN6Sonnet11Highlighter19addWordToDictionaryERK7QString
libKF6SonnetUi.so.6:_ZN6Sonnet11Highlighter19setIntraWordEditingEb
libKF6SonnetUi.so.6:_ZN6Sonnet11Highlighter29setAutoDetectLanguageDisabledEb
libKF6SonnetUi.so.6:_ZN6Sonnet11Highlighter9setActiveEb
libKF6SonnetUi.so.6:_ZN6Sonnet11HighlighterC1EP14QPlainTextEditRK6QColor
libKF6SonnetUi.so.6:_ZN6Sonnet11HighlighterC1EP9QTextEditRK6QColor
libKF6SonnetUi.so.6:_ZN6Sonnet11HighlighterC2EP14QPlainTextEditRK6QColor
libKF6SonnetUi.so.6:_ZN6Sonnet11HighlighterC2EP9QTextEditRK6QColor
libKF6SonnetUi.so.6:_ZN6Sonnet11HighlighterD0Ev
libKF6SonnetUi.so.6:_ZN6Sonnet11HighlighterD1Ev
libKF6SonnetUi.so.6:_ZN6Sonnet11HighlighterD2Ev
libKF6SonnetUi.so.6:_ZN6Sonnet12ConfigDialog11qt_metacallEN11QMetaObject4CallEiPPv
libKF6SonnetUi.so.6:_ZN6Sonnet12ConfigDialog11qt_metacastEPKc
libKF6SonnetUi.so.6:_ZN6Sonnet12ConfigDialog11setLanguageERK7QString
libKF6SonnetUi.so.6:_ZN6Sonnet12ConfigDialog13configChangedEv
libKF6SonnetUi.so.6:_ZN6Sonnet12ConfigDialog15languageChangedERK7QString
libKF6SonnetUi.so.6:_ZN6Sonnet12ConfigDialog16staticMetaObjectE
libKF6SonnetUi.so.6:_ZN6Sonnet12ConfigDialog6slotOkEv
libKF6SonnetUi.so.6:_ZN6Sonnet12ConfigDialog9slotApplyEv
libKF6SonnetUi.so.6:_ZN6Sonnet12ConfigDialogC1EP7QWidget
libKF6SonnetUi.so.6:_ZN6Sonnet12ConfigDialogC2EP7QWidget
libKF6SonnetUi.so.6:_ZN6Sonnet12ConfigDialogD0Ev
libKF6SonnetUi.so.6:_ZN6Sonnet12ConfigDialogD1Ev
libKF6SonnetUi.so.6:_ZN6Sonnet12ConfigDialogD2Ev
libKF6SonnetUi.so.6:_ZN6Sonnet12ConfigWidget11qt_metacallEN11QMetaObject4CallEiPPv
libKF6SonnetUi.so.6:_ZN6Sonnet12ConfigWidget11qt_metacastEPKc
libKF6SonnetUi.so.6:_ZN6Sonnet12ConfigWidget11setLanguageERK7QString
libKF6SonnetUi.so.6:_ZN6Sonnet12ConfigWidget11slotDefaultEv
libKF6SonnetUi.so.6:_ZN6Sonnet12ConfigWidget13configChangedEv
libKF6SonnetUi.so.6:_ZN6Sonnet12ConfigWidget16staticMetaObjectE
libKF6SonnetUi.so.6:_ZN6Sonnet12ConfigWidget19slotIgnoreWordAddedEv
libKF6SonnetUi.so.6:_ZN6Sonnet12ConfigWidget21slotIgnoreWordRemovedEv
libKF6SonnetUi.so.6:_ZN6Sonnet12ConfigWidget32setBackgroundCheckingButtonShownEb
libKF6SonnetUi.so.6:_ZN6Sonnet12ConfigWidget4saveEv
libKF6SonnetUi.so.6:_ZN6Sonnet12ConfigWidgetC1EP7QWidget
libKF6SonnetUi.so.6:_ZN6Sonnet12ConfigWidgetC2EP7QWidget
libKF6SonnetUi.so.6:_ZN6Sonnet12ConfigWidgetD0Ev
libKF6SonnetUi.so.6:_ZN6Sonnet12ConfigWidgetD1Ev
libKF6SonnetUi.so.6:_ZN6Sonnet12ConfigWidgetD2Ev
libKF6SonnetUi.so.6:_ZN6Sonnet18DictionaryComboBox11qt_metacallEN11QMetaObject4CallEiPPv
libKF6SonnetUi.so.6:_ZN6Sonnet18DictionaryComboBox11qt_metacastEPKc
libKF6SonnetUi.so.6:_ZN6Sonnet18DictionaryComboBox11reloadComboEv
libKF6SonnetUi.so.6:_ZN6Sonnet18DictionaryComboBox16staticMetaObjectE
libKF6SonnetUi.so.6:_ZN6Sonnet18DictionaryComboBox17dictionaryChangedERK7QString
libKF6SonnetUi.so.6:_ZN6Sonnet18DictionaryComboBox19assignByDictionnaryERK7QString
libKF6SonnetUi.so.6:_ZN6Sonnet18DictionaryComboBox21assignDictionnaryNameERK7QString
libKF6SonnetUi.so.6:_ZN6Sonnet18DictionaryComboBox21dictionaryNameChangedERK7QString
libKF6SonnetUi.so.6:_ZN6Sonnet18DictionaryComboBox22setCurrentByDictionaryERK7QString
libKF6SonnetUi.so.6:_ZN6Sonnet18DictionaryComboBox26setCurrentByDictionaryNameERK7QString
libKF6SonnetUi.so.6:_ZN6Sonnet18DictionaryComboBoxC1EP7QWidget
libKF6SonnetUi.so.6:_ZN6Sonnet18DictionaryComboBoxC2EP7QWidget
libKF6SonnetUi.so.6:_ZN6Sonnet18DictionaryComboBoxD0Ev
libKF6SonnetUi.so.6:_ZN6Sonnet18DictionaryComboBoxD1Ev
libKF6SonnetUi.so.6:_ZN6Sonnet18DictionaryComboBoxD2Ev
libKF6SonnetUi.so.6:_ZN6Sonnet19SpellCheckDecorator11eventFilterEP7QObjectP6QEvent
libKF6SonnetUi.so.6:_ZN6Sonnet19SpellCheckDecorator11qt_metacallEN11QMetaObject4CallEiPPv
libKF6SonnetUi.so.6:_ZN6Sonnet19SpellCheckDecorator11qt_metacastEPKc
libKF6SonnetUi.so.6:_ZN6Sonnet19SpellCheckDecorator14setHighlighterEPNS_11HighlighterE
libKF6SonnetUi.so.6:_ZN6Sonnet19SpellCheckDecorator16staticMetaObjectE
libKF6SonnetUi.so.6:_ZN6Sonnet19SpellCheckDecoratorC1EP14QPlainTextEdit
libKF6SonnetUi.so.6:_ZN6Sonnet19SpellCheckDecoratorC1EP9QTextEdit
libKF6SonnetUi.so.6:_ZN6Sonnet19SpellCheckDecoratorC2EP14QPlainTextEdit
libKF6SonnetUi.so.6:_ZN6Sonnet19SpellCheckDecoratorC2EP9QTextEdit
libKF6SonnetUi.so.6:_ZN6Sonnet19SpellCheckDecoratorD0Ev
libKF6SonnetUi.so.6:_ZN6Sonnet19SpellCheckDecoratorD1Ev
libKF6SonnetUi.so.6:_ZN6Sonnet19SpellCheckDecoratorD2Ev
libKF6SonnetUi.so.6:_ZN6Sonnet6Dialog11autoCorrectERK7QStringS3_
libKF6SonnetUi.so.6:_ZN6Sonnet6Dialog11misspellingERK7QStringi
libKF6SonnetUi.so.6:_ZN6Sonnet6Dialog11qt_metacallEN11QMetaObject4CallEiPPv
libKF6SonnetUi.so.6:_ZN6Sonnet6Dialog11qt_metacastEPKc
libKF6SonnetUi.so.6:_ZN6Sonnet6Dialog14spellCheckDoneERK7QString
libKF6SonnetUi.so.6:_ZN6Sonnet6Dialog15languageChangedERK7QString
libKF6SonnetUi.so.6:_ZN6Sonnet6Dialog16spellCheckStatusERK7QString
libKF6SonnetUi.so.6:_ZN6Sonnet6Dialog16staticMetaObjectE
libKF6SonnetUi.so.6:_ZN6Sonnet6Dialog17activeAutoCorrectEb
libKF6SonnetUi.so.6:_ZN6Sonnet6Dialog18showProgressDialogEi
libKF6SonnetUi.so.6:_ZN6Sonnet6Dialog31showSpellCheckCompletionMessageEb
libKF6SonnetUi.so.6:_ZN6Sonnet6Dialog38setSpellCheckContinuedAfterReplacementEb
libKF6SonnetUi.so.6:_ZN6Sonnet6Dialog4showEv
libKF6SonnetUi.so.6:_ZN6Sonnet6Dialog4stopEv
libKF6SonnetUi.so.6:_ZN6Sonnet6Dialog6cancelEv
libKF6SonnetUi.so.6:_ZN6Sonnet6Dialog7replaceERK7QStringiS3_
libKF6SonnetUi.so.6:_ZN6Sonnet6Dialog9setBufferERK7QString
libKF6SonnetUi.so.6:_ZN6Sonnet6DialogC1EPNS_17BackgroundCheckerEP7QWidget
libKF6SonnetUi.so.6:_ZN6Sonnet6DialogC2EPNS_17BackgroundCheckerEP7QWidget
libKF6SonnetUi.so.6:_ZN6Sonnet6DialogD0Ev
libKF6SonnetUi.so.6:_ZN6Sonnet6DialogD1Ev
libKF6SonnetUi.so.6:_ZN6Sonnet6DialogD2Ev
libKF6SonnetUi.so.6:_ZNK6Sonnet10ConfigView10ignoreListEv
libKF6SonnetUi.so.6:_ZNK6Sonnet10ConfigView10metaObjectEv
libKF6SonnetUi.so.6:_ZNK6Sonnet10ConfigView18preferredLanguagesEv
libKF6SonnetUi.so.6:_ZNK6Sonnet10ConfigView21noBackendFoundVisibleEv
libKF6SonnetUi.so.6:_ZNK6Sonnet10ConfigView29backgroundCheckingButtonShownEv
libKF6SonnetUi.so.6:_ZNK6Sonnet10ConfigView8languageEv
libKF6SonnetUi.so.6:_ZNK6Sonnet11Highlighter10metaObjectEv
libKF6SonnetUi.so.6:_ZNK6Sonnet11Highlighter15currentLanguageEv
libKF6SonnetUi.so.6:_ZNK6Sonnet11Highlighter16intraWordEditingEv
libKF6SonnetUi.so.6:_ZNK6Sonnet11Highlighter17spellCheckerFoundEv
libKF6SonnetUi.so.6:_ZNK6Sonnet11Highlighter23checkerEnabledByDefaultEv
libKF6SonnetUi.so.6:_ZNK6Sonnet11Highlighter26autoDetectLanguageDisabledEv
libKF6SonnetUi.so.6:_ZNK6Sonnet11Highlighter8isActiveEv
libKF6SonnetUi.so.6:_ZNK6Sonnet11Highlighter9automaticEv
libKF6SonnetUi.so.6:_ZNK6Sonnet12ConfigDialog10metaObjectEv
libKF6SonnetUi.so.6:_ZNK6Sonnet12ConfigDialog8languageEv
libKF6SonnetUi.so.6:_ZNK6Sonnet12ConfigWidget10metaObjectEv
libKF6SonnetUi.so.6:_ZNK6Sonnet12ConfigWidget29backgroundCheckingButtonShownEv
libKF6SonnetUi.so.6:_ZNK6Sonnet12ConfigWidget8languageEv
libKF6SonnetUi.so.6:_ZNK6Sonnet18DictionaryComboBox10metaObjectEv
libKF6SonnetUi.so.6:_ZNK6Sonnet18DictionaryComboBox17currentDictionaryEv
libKF6SonnetUi.so.6:_ZNK6Sonnet18DictionaryComboBox21currentDictionaryNameEv
libKF6SonnetUi.so.6:_ZNK6Sonnet19SpellCheckDecorator10metaObjectEv
libKF6SonnetUi.so.6:_ZNK6Sonnet19SpellCheckDecorator11highlighterEv
libKF6SonnetUi.so.6:_ZNK6Sonnet19SpellCheckDecorator30isSpellCheckingEnabledForBlockERK7QString
libKF6SonnetUi.so.6:_ZNK6Sonnet6Dialog10metaObjectEv
libKF6SonnetUi.so.6:_ZNK6Sonnet6Dialog14originalBufferEv
libKF6SonnetUi.so.6:_ZNK6Sonnet6Dialog6bufferEv
libKF6SonnetUi.so.6:_ZTIN6Sonnet10ConfigViewE
libKF6SonnetUi.so.6:_ZTIN6Sonnet11HighlighterE
libKF6SonnetUi.so.6:_ZTIN6Sonnet12ConfigDialogE
libKF6SonnetUi.so.6:_ZTIN6Sonnet12ConfigWidgetE
libKF6SonnetUi.so.6:_ZTIN6Sonnet18DictionaryComboBoxE
libKF6SonnetUi.so.6:_ZTIN6Sonnet19SpellCheckDecoratorE
libKF6SonnetUi.so.6:_ZTIN6Sonnet6DialogE
libKF6SonnetUi.so.6:_ZTSN6Sonnet10ConfigViewE
libKF6SonnetUi.so.6:_ZTSN6Sonnet11HighlighterE
libKF6SonnetUi.so.6:_ZTSN6Sonnet12ConfigDialogE
libKF6SonnetUi.so.6:_ZTSN6Sonnet12ConfigWidgetE
libKF6SonnetUi.so.6:_ZTSN6Sonnet18DictionaryComboBoxE
libKF6SonnetUi.so.6:_ZTSN6Sonnet19SpellCheckDecoratorE
libKF6SonnetUi.so.6:_ZTSN6Sonnet6DialogE
libKF6SonnetUi.so.6:_ZTVN6Sonnet10ConfigViewE
libKF6SonnetUi.so.6:_ZTVN6Sonnet11HighlighterE
libKF6SonnetUi.so.6:_ZTVN6Sonnet12ConfigDialogE
libKF6SonnetUi.so.6:_ZTVN6Sonnet12ConfigWidgetE
libKF6SonnetUi.so.6:_ZTVN6Sonnet18DictionaryComboBoxE
libKF6SonnetUi.so.6:_ZTVN6Sonnet19SpellCheckDecoratorE
libKF6SonnetUi.so.6:_ZTVN6Sonnet6DialogE
libKF6SonnetUi.so.6:_ZThn16_N6Sonnet10ConfigViewD0Ev
libKF6SonnetUi.so.6:_ZThn16_N6Sonnet10ConfigViewD1Ev
libKF6SonnetUi.so.6:_ZThn16_N6Sonnet12ConfigDialogD0Ev
libKF6SonnetUi.so.6:_ZThn16_N6Sonnet12ConfigDialogD1Ev
libKF6SonnetUi.so.6:_ZThn16_N6Sonnet12ConfigWidgetD0Ev
libKF6SonnetUi.so.6:_ZThn16_N6Sonnet12ConfigWidgetD1Ev
libKF6SonnetUi.so.6:_ZThn16_N6Sonnet18DictionaryComboBoxD0Ev
libKF6SonnetUi.so.6:_ZThn16_N6Sonnet18DictionaryComboBoxD1Ev
libKF6SonnetUi.so.6:_ZThn16_N6Sonnet6DialogD0Ev
libKF6SonnetUi.so.6:_ZThn16_N6Sonnet6DialogD1Ev
libsonnetquickplugin.so:_Z33qml_register_types_org_kde_sonnetv
libsonnetquickplugin.so:qt_plugin_instance
libsonnetquickplugin.so:qt_plugin_query_metadata_v2
sonnet6widgets.so:qt_plugin_instance
sonnet6widgets.so:qt_plugin_query_metadata_v2
sonnet_hunspell.so:qt_plugin_instance
sonnet_hunspell.so:qt_plugin_query_metadata_v2
sonnet_voikko.so:qt_plugin_instance
sonnet_voikko.so:qt_plugin_query_metadata_v2
