libpolkit-qt5-agent-1.so.1:_ZN9PolkitQt15Agent11AsyncResult12setCompletedEv
libpolkit-qt5-agent-1.so.1:_ZN9PolkitQt15Agent11AsyncResult8setErrorERK7QString
libpolkit-qt5-agent-1.so.1:_ZN9PolkitQt15Agent11AsyncResultC1EP19_GSimpleAsyncResult
libpolkit-qt5-agent-1.so.1:_ZN9PolkitQt15Agent11AsyncResultC2EP19_GSimpleAsyncResult
libpolkit-qt5-agent-1.so.1:_ZN9PolkitQt15Agent11AsyncResultD0Ev
libpolkit-qt5-agent-1.so.1:_ZN9PolkitQt15Agent11AsyncResultD1Ev
libpolkit-qt5-agent-1.so.1:_ZN9PolkitQt15Agent11AsyncResultD2Ev
libpolkit-qt5-agent-1.so.1:_ZN9PolkitQt15Agent15ListenerAdapter11addListenerEPNS0_8ListenerE
libpolkit-qt5-agent-1.so.1:_ZN9PolkitQt15Agent15ListenerAdapter11qt_metacallEN11QMetaObject4CallEiPPv
libpolkit-qt5-agent-1.so.1:_ZN9PolkitQt15Agent15ListenerAdapter11qt_metacastEPKc
libpolkit-qt5-agent-1.so.1:_ZN9PolkitQt15Agent15ListenerAdapter12cancelled_cbEP20_PolkitAgentListener
libpolkit-qt5-agent-1.so.1:_ZN9PolkitQt15Agent15ListenerAdapter12findListenerEP20_PolkitAgentListener
libpolkit-qt5-agent-1.so.1:_ZN9PolkitQt15Agent15ListenerAdapter14removeListenerEPNS0_8ListenerE
libpolkit-qt5-agent-1.so.1:_ZN9PolkitQt15Agent15ListenerAdapter16staticMetaObjectE
libpolkit-qt5-agent-1.so.1:_ZN9PolkitQt15Agent15ListenerAdapter42polkit_qt_listener_initiate_authenticationEP20_PolkitAgentListenerPKcS5_S5_P14_PolkitDetailsS5_P6_GListP13_GCancellableP19_GSimpleAsyncResult
libpolkit-qt5-agent-1.so.1:_ZN9PolkitQt15Agent15ListenerAdapter49polkit_qt_listener_initiate_authentication_finishEP20_PolkitAgentListenerP13_GAsyncResultPP7_GError
libpolkit-qt5-agent-1.so.1:_ZN9PolkitQt15Agent15ListenerAdapter8instanceEv
libpolkit-qt5-agent-1.so.1:_ZN9PolkitQt15Agent15ListenerAdapterC1EP7QObject
libpolkit-qt5-agent-1.so.1:_ZN9PolkitQt15Agent15ListenerAdapterC2EP7QObject
libpolkit-qt5-agent-1.so.1:_ZN9PolkitQt15Agent7Session11qt_metacallEN11QMetaObject4CallEiPPv
libpolkit-qt5-agent-1.so.1:_ZN9PolkitQt15Agent7Session11qt_metacastEPKc
libpolkit-qt5-agent-1.so.1:_ZN9PolkitQt15Agent7Session11setResponseERK7QString
libpolkit-qt5-agent-1.so.1:_ZN9PolkitQt15Agent7Session16staticMetaObjectE
libpolkit-qt5-agent-1.so.1:_ZN9PolkitQt15Agent7Session6cancelEv
libpolkit-qt5-agent-1.so.1:_ZN9PolkitQt15Agent7Session6resultEv
libpolkit-qt5-agent-1.so.1:_ZN9PolkitQt15Agent7Session7Private7requestEP19_PolkitAgentSessionPciPv
libpolkit-qt5-agent-1.so.1:_ZN9PolkitQt15Agent7Session7Private8showInfoEP19_PolkitAgentSessionPcPv
libpolkit-qt5-agent-1.so.1:_ZN9PolkitQt15Agent7Session7Private9completedEP19_PolkitAgentSessioniPv
libpolkit-qt5-agent-1.so.1:_ZN9PolkitQt15Agent7Session7Private9showErrorEP19_PolkitAgentSessionPcPv
libpolkit-qt5-agent-1.so.1:_ZN9PolkitQt15Agent7Session7PrivateD1Ev
libpolkit-qt5-agent-1.so.1:_ZN9PolkitQt15Agent7Session7PrivateD2Ev
libpolkit-qt5-agent-1.so.1:_ZN9PolkitQt15Agent7Session7requestERK7QStringb
libpolkit-qt5-agent-1.so.1:_ZN9PolkitQt15Agent7Session8initiateEv
libpolkit-qt5-agent-1.so.1:_ZN9PolkitQt15Agent7Session8showInfoERK7QString
libpolkit-qt5-agent-1.so.1:_ZN9PolkitQt15Agent7Session9completedEb
libpolkit-qt5-agent-1.so.1:_ZN9PolkitQt15Agent7Session9showErrorERK7QString
libpolkit-qt5-agent-1.so.1:_ZN9PolkitQt15Agent7SessionC1EP19_PolkitAgentSessionP7QObject
libpolkit-qt5-agent-1.so.1:_ZN9PolkitQt15Agent7SessionC1ERKNS_8IdentityERK7QStringPNS0_11AsyncResultEP7QObject
libpolkit-qt5-agent-1.so.1:_ZN9PolkitQt15Agent7SessionC2EP19_PolkitAgentSessionP7QObject
libpolkit-qt5-agent-1.so.1:_ZN9PolkitQt15Agent7SessionC2ERKNS_8IdentityERK7QStringPNS0_11AsyncResultEP7QObject
libpolkit-qt5-agent-1.so.1:_ZN9PolkitQt15Agent7SessionD0Ev
libpolkit-qt5-agent-1.so.1:_ZN9PolkitQt15Agent7SessionD1Ev
libpolkit-qt5-agent-1.so.1:_ZN9PolkitQt15Agent7SessionD2Ev
libpolkit-qt5-agent-1.so.1:_ZN9PolkitQt15Agent8Listener11qt_metacallEN11QMetaObject4CallEiPPv
libpolkit-qt5-agent-1.so.1:_ZN9PolkitQt15Agent8Listener11qt_metacastEPKc
libpolkit-qt5-agent-1.so.1:_ZN9PolkitQt15Agent8Listener16registerListenerERKNS_7SubjectERK7QString
libpolkit-qt5-agent-1.so.1:_ZN9PolkitQt15Agent8Listener16staticMetaObjectE
libpolkit-qt5-agent-1.so.1:_ZN9PolkitQt15Agent8Listener8listenerEv
libpolkit-qt5-agent-1.so.1:_ZN9PolkitQt15Agent8ListenerC1EP20_PolkitAgentListenerP7QObject
libpolkit-qt5-agent-1.so.1:_ZN9PolkitQt15Agent8ListenerC1EP7QObject
libpolkit-qt5-agent-1.so.1:_ZN9PolkitQt15Agent8ListenerC2EP20_PolkitAgentListenerP7QObject
libpolkit-qt5-agent-1.so.1:_ZN9PolkitQt15Agent8ListenerC2EP7QObject
libpolkit-qt5-agent-1.so.1:_ZN9PolkitQt15Agent8ListenerD0Ev
libpolkit-qt5-agent-1.so.1:_ZN9PolkitQt15Agent8ListenerD1Ev
libpolkit-qt5-agent-1.so.1:_ZN9PolkitQt15Agent8ListenerD2Ev
libpolkit-qt5-agent-1.so.1:_ZNK9PolkitQt15Agent15ListenerAdapter10metaObjectEv
libpolkit-qt5-agent-1.so.1:_ZNK9PolkitQt15Agent7Session10metaObjectEv
libpolkit-qt5-agent-1.so.1:_ZNK9PolkitQt15Agent8Listener10metaObjectEv
libpolkit-qt5-agent-1.so.1:polkit_qt_listener_get_type
libpolkit-qt5-agent-1.so.1:polkit_qt_listener_new
libpolkit-qt5-core-1.so.1:_ZN9PolkitQt116UnixUserIdentity6setUidEj
libpolkit-qt5-core-1.so.1:_ZN9PolkitQt116UnixUserIdentityC1EP15_PolkitUnixUser
libpolkit-qt5-core-1.so.1:_ZN9PolkitQt116UnixUserIdentityC1ERK7QString
libpolkit-qt5-core-1.so.1:_ZN9PolkitQt116UnixUserIdentityC1Ej
libpolkit-qt5-core-1.so.1:_ZN9PolkitQt116UnixUserIdentityC1Ev
libpolkit-qt5-core-1.so.1:_ZN9PolkitQt116UnixUserIdentityC2EP15_PolkitUnixUser
libpolkit-qt5-core-1.so.1:_ZN9PolkitQt116UnixUserIdentityC2ERK7QString
libpolkit-qt5-core-1.so.1:_ZN9PolkitQt116UnixUserIdentityC2Ej
libpolkit-qt5-core-1.so.1:_ZN9PolkitQt116UnixUserIdentityC2Ev
libpolkit-qt5-core-1.so.1:_ZN9PolkitQt117ActionDescriptionC1EP24_PolkitActionDescription
libpolkit-qt5-core-1.so.1:_ZN9PolkitQt117ActionDescriptionC1ERKS0_
libpolkit-qt5-core-1.so.1:_ZN9PolkitQt117ActionDescriptionC1Ev
libpolkit-qt5-core-1.so.1:_ZN9PolkitQt117ActionDescriptionC2EP24_PolkitActionDescription
libpolkit-qt5-core-1.so.1:_ZN9PolkitQt117ActionDescriptionC2ERKS0_
libpolkit-qt5-core-1.so.1:_ZN9PolkitQt117ActionDescriptionC2Ev
libpolkit-qt5-core-1.so.1:_ZN9PolkitQt117ActionDescriptionD1Ev
libpolkit-qt5-core-1.so.1:_ZN9PolkitQt117ActionDescriptionD2Ev
libpolkit-qt5-core-1.so.1:_ZN9PolkitQt117ActionDescriptionaSERKS0_
libpolkit-qt5-core-1.so.1:_ZN9PolkitQt117UnixGroupIdentity6setGidEj
libpolkit-qt5-core-1.so.1:_ZN9PolkitQt117UnixGroupIdentityC1EP16_PolkitUnixGroup
libpolkit-qt5-core-1.so.1:_ZN9PolkitQt117UnixGroupIdentityC1ERK7QString
libpolkit-qt5-core-1.so.1:_ZN9PolkitQt117UnixGroupIdentityC1Ej
libpolkit-qt5-core-1.so.1:_ZN9PolkitQt117UnixGroupIdentityC1Ev
libpolkit-qt5-core-1.so.1:_ZN9PolkitQt117UnixGroupIdentityC2EP16_PolkitUnixGroup
libpolkit-qt5-core-1.so.1:_ZN9PolkitQt117UnixGroupIdentityC2ERK7QString
libpolkit-qt5-core-1.so.1:_ZN9PolkitQt117UnixGroupIdentityC2Ej
libpolkit-qt5-core-1.so.1:_ZN9PolkitQt117UnixGroupIdentityC2Ev
libpolkit-qt5-core-1.so.1:_ZN9PolkitQt118UnixProcessSubject6setPidEx
libpolkit-qt5-core-1.so.1:_ZN9PolkitQt118UnixProcessSubjectC1EP18_PolkitUnixProcess
libpolkit-qt5-core-1.so.1:_ZN9PolkitQt118UnixProcessSubjectC1Ex
libpolkit-qt5-core-1.so.1:_ZN9PolkitQt118UnixProcessSubjectC1Exy
libpolkit-qt5-core-1.so.1:_ZN9PolkitQt118UnixProcessSubjectC2EP18_PolkitUnixProcess
libpolkit-qt5-core-1.so.1:_ZN9PolkitQt118UnixProcessSubjectC2Ex
libpolkit-qt5-core-1.so.1:_ZN9PolkitQt118UnixProcessSubjectC2Exy
libpolkit-qt5-core-1.so.1:_ZN9PolkitQt118UnixSessionSubject12setSessionIdERK7QString
libpolkit-qt5-core-1.so.1:_ZN9PolkitQt118UnixSessionSubjectC1EP20_PolkitSystemBusName
libpolkit-qt5-core-1.so.1:_ZN9PolkitQt118UnixSessionSubjectC1ERK7QString
libpolkit-qt5-core-1.so.1:_ZN9PolkitQt118UnixSessionSubjectC1Ex
libpolkit-qt5-core-1.so.1:_ZN9PolkitQt118UnixSessionSubjectC2EP20_PolkitSystemBusName
libpolkit-qt5-core-1.so.1:_ZN9PolkitQt118UnixSessionSubjectC2ERK7QString
libpolkit-qt5-core-1.so.1:_ZN9PolkitQt118UnixSessionSubjectC2Ex
libpolkit-qt5-core-1.so.1:_ZN9PolkitQt120SystemBusNameSubject4userEv
libpolkit-qt5-core-1.so.1:_ZN9PolkitQt120SystemBusNameSubject7setNameERK7QString
libpolkit-qt5-core-1.so.1:_ZN9PolkitQt120SystemBusNameSubjectC1EP20_PolkitSystemBusName
libpolkit-qt5-core-1.so.1:_ZN9PolkitQt120SystemBusNameSubjectC1ERK7QString
libpolkit-qt5-core-1.so.1:_ZN9PolkitQt120SystemBusNameSubjectC2EP20_PolkitSystemBusName
libpolkit-qt5-core-1.so.1:_ZN9PolkitQt120SystemBusNameSubjectC2ERK7QString
libpolkit-qt5-core-1.so.1:_ZN9PolkitQt120actionsToListAndFreeEP6_GList
libpolkit-qt5-core-1.so.1:_ZN9PolkitQt120polkitResultToResultEP26_PolkitAuthorizationResult
libpolkit-qt5-core-1.so.1:_ZN9PolkitQt122TemporaryAuthorization6revokeEv
libpolkit-qt5-core-1.so.1:_ZN9PolkitQt122TemporaryAuthorizationC1EP29_PolkitTemporaryAuthorization
libpolkit-qt5-core-1.so.1:_ZN9PolkitQt122TemporaryAuthorizationC1ERKS0_
libpolkit-qt5-core-1.so.1:_ZN9PolkitQt122TemporaryAuthorizationC1Ev
libpolkit-qt5-core-1.so.1:_ZN9PolkitQt122TemporaryAuthorizationC2EP29_PolkitTemporaryAuthorization
libpolkit-qt5-core-1.so.1:_ZN9PolkitQt122TemporaryAuthorizationC2ERKS0_
libpolkit-qt5-core-1.so.1:_ZN9PolkitQt122TemporaryAuthorizationC2Ev
libpolkit-qt5-core-1.so.1:_ZN9PolkitQt122TemporaryAuthorizationD1Ev
libpolkit-qt5-core-1.so.1:_ZN9PolkitQt122TemporaryAuthorizationD2Ev
libpolkit-qt5-core-1.so.1:_ZN9PolkitQt122TemporaryAuthorizationaSERKS0_
libpolkit-qt5-core-1.so.1:_ZN9PolkitQt17Details6insertERK7QStringS3_
libpolkit-qt5-core-1.so.1:_ZN9PolkitQt17DetailsC1EP14_PolkitDetails
libpolkit-qt5-core-1.so.1:_ZN9PolkitQt17DetailsC1Ev
libpolkit-qt5-core-1.so.1:_ZN9PolkitQt17DetailsC2EP14_PolkitDetails
libpolkit-qt5-core-1.so.1:_ZN9PolkitQt17DetailsC2Ev
libpolkit-qt5-core-1.so.1:_ZN9PolkitQt17DetailsD1Ev
libpolkit-qt5-core-1.so.1:_ZN9PolkitQt17DetailsD2Ev
libpolkit-qt5-core-1.so.1:_ZN9PolkitQt17DetailsaSERKS0_
libpolkit-qt5-core-1.so.1:_ZN9PolkitQt17Subject10fromStringERK7QString
libpolkit-qt5-core-1.so.1:_ZN9PolkitQt17Subject10setSubjectEP14_PolkitSubject
libpolkit-qt5-core-1.so.1:_ZN9PolkitQt17SubjectC1EP14_PolkitSubject
libpolkit-qt5-core-1.so.1:_ZN9PolkitQt17SubjectC1ERKS0_
libpolkit-qt5-core-1.so.1:_ZN9PolkitQt17SubjectC1Ev
libpolkit-qt5-core-1.so.1:_ZN9PolkitQt17SubjectC2EP14_PolkitSubject
libpolkit-qt5-core-1.so.1:_ZN9PolkitQt17SubjectC2ERKS0_
libpolkit-qt5-core-1.so.1:_ZN9PolkitQt17SubjectC2Ev
libpolkit-qt5-core-1.so.1:_ZN9PolkitQt17SubjectD1Ev
libpolkit-qt5-core-1.so.1:_ZN9PolkitQt17SubjectD2Ev
libpolkit-qt5-core-1.so.1:_ZN9PolkitQt17SubjectaSERKS0_
libpolkit-qt5-core-1.so.1:_ZN9PolkitQt18Identity10fromStringERK7QString
libpolkit-qt5-core-1.so.1:_ZN9PolkitQt18Identity11setIdentityEP15_PolkitIdentity
libpolkit-qt5-core-1.so.1:_ZN9PolkitQt18Identity18toUnixUserIdentityEv
libpolkit-qt5-core-1.so.1:_ZN9PolkitQt18Identity19toUnixGroupIdentityEv
libpolkit-qt5-core-1.so.1:_ZN9PolkitQt18IdentityC1EP15_PolkitIdentity
libpolkit-qt5-core-1.so.1:_ZN9PolkitQt18IdentityC1ERKS0_
libpolkit-qt5-core-1.so.1:_ZN9PolkitQt18IdentityC1Ev
libpolkit-qt5-core-1.so.1:_ZN9PolkitQt18IdentityC2EP15_PolkitIdentity
libpolkit-qt5-core-1.so.1:_ZN9PolkitQt18IdentityC2ERKS0_
libpolkit-qt5-core-1.so.1:_ZN9PolkitQt18IdentityC2Ev
libpolkit-qt5-core-1.so.1:_ZN9PolkitQt18IdentityD1Ev
libpolkit-qt5-core-1.so.1:_ZN9PolkitQt18IdentityD2Ev
libpolkit-qt5-core-1.so.1:_ZN9PolkitQt18IdentityaSERKS0_
libpolkit-qt5-core-1.so.1:_ZN9PolkitQt19Authority10clearErrorEv
libpolkit-qt5-core-1.so.1:_ZN9PolkitQt19Authority11qt_metacallEN11QMetaObject4CallEiPPv
libpolkit-qt5-core-1.so.1:_ZN9PolkitQt19Authority11qt_metacastEPKc
libpolkit-qt5-core-1.so.1:_ZN9PolkitQt19Authority13configChangedEv
libpolkit-qt5-core-1.so.1:_ZN9PolkitQt19Authority16enumerateActionsEv
libpolkit-qt5-core-1.so.1:_ZN9PolkitQt19Authority16staticMetaObjectE
libpolkit-qt5-core-1.so.1:_ZN9PolkitQt19Authority18checkAuthorizationERK7QStringRKNS_7SubjectE6QFlagsINS0_17AuthorizationFlagEE
libpolkit-qt5-core-1.so.1:_ZN9PolkitQt19Authority19consoleKitDBChangedEv
libpolkit-qt5-core-1.so.1:_ZN9PolkitQt19Authority20enumerateActionsSyncEv
libpolkit-qt5-core-1.so.1:_ZN9PolkitQt19Authority22checkAuthorizationSyncERK7QStringRKNS_7SubjectE6QFlagsINS0_17AuthorizationFlagEE
libpolkit-qt5-core-1.so.1:_ZN9PolkitQt19Authority22enumerateActionsCancelEv
libpolkit-qt5-core-1.so.1:_ZN9PolkitQt19Authority24checkAuthorizationCancelEv
libpolkit-qt5-core-1.so.1:_ZN9PolkitQt19Authority24enumerateActionsFinishedE5QListINS_17ActionDescriptionEE
libpolkit-qt5-core-1.so.1:_ZN9PolkitQt19Authority26checkAuthorizationFinishedENS0_6ResultE
libpolkit-qt5-core-1.so.1:_ZN9PolkitQt19Authority27authenticationAgentResponseERK7QStringRKNS_8IdentityE
libpolkit-qt5-core-1.so.1:_ZN9PolkitQt19Authority27registerAuthenticationAgentERKNS_7SubjectERK7QStringS6_
libpolkit-qt5-core-1.so.1:_ZN9PolkitQt19Authority28revokeTemporaryAuthorizationERK7QString
libpolkit-qt5-core-1.so.1:_ZN9PolkitQt19Authority29checkAuthorizationWithDetailsERK7QStringRKNS_7SubjectE6QFlagsINS0_17AuthorizationFlagEERK4QMapIS1_S1_E
libpolkit-qt5-core-1.so.1:_ZN9PolkitQt19Authority29revokeTemporaryAuthorizationsERKNS_7SubjectE
libpolkit-qt5-core-1.so.1:_ZN9PolkitQt19Authority29unregisterAuthenticationAgentERKNS_7SubjectERK7QString
libpolkit-qt5-core-1.so.1:_ZN9PolkitQt19Authority31authenticationAgentResponseSyncERK7QStringRKNS_8IdentityE
libpolkit-qt5-core-1.so.1:_ZN9PolkitQt19Authority31registerAuthenticationAgentSyncERKNS_7SubjectERK7QStringS6_
libpolkit-qt5-core-1.so.1:_ZN9PolkitQt19Authority32revokeTemporaryAuthorizationSyncERK7QString
libpolkit-qt5-core-1.so.1:_ZN9PolkitQt19Authority33authenticationAgentResponseCancelEv
libpolkit-qt5-core-1.so.1:_ZN9PolkitQt19Authority33checkAuthorizationSyncWithDetailsERK7QStringRKNS_7SubjectE6QFlagsINS0_17AuthorizationFlagEERK4QMapIS1_S1_E
libpolkit-qt5-core-1.so.1:_ZN9PolkitQt19Authority33registerAuthenticationAgentCancelEv
libpolkit-qt5-core-1.so.1:_ZN9PolkitQt19Authority33revokeTemporaryAuthorizationsSyncERKNS_7SubjectE
libpolkit-qt5-core-1.so.1:_ZN9PolkitQt19Authority33unregisterAuthenticationAgentSyncERKNS_7SubjectERK7QString
libpolkit-qt5-core-1.so.1:_ZN9PolkitQt19Authority34revokeTemporaryAuthorizationCancelEv
libpolkit-qt5-core-1.so.1:_ZN9PolkitQt19Authority35authenticationAgentResponseFinishedEb
libpolkit-qt5-core-1.so.1:_ZN9PolkitQt19Authority35registerAuthenticationAgentFinishedEb
libpolkit-qt5-core-1.so.1:_ZN9PolkitQt19Authority35revokeTemporaryAuthorizationsCancelEv
libpolkit-qt5-core-1.so.1:_ZN9PolkitQt19Authority35unregisterAuthenticationAgentCancelEv
libpolkit-qt5-core-1.so.1:_ZN9PolkitQt19Authority36enumerateTemporaryAuthorizationsSyncERKNS_7SubjectE
libpolkit-qt5-core-1.so.1:_ZN9PolkitQt19Authority36revokeTemporaryAuthorizationFinishedEb
libpolkit-qt5-core-1.so.1:_ZN9PolkitQt19Authority37revokeTemporaryAuthorizationsFinishedEb
libpolkit-qt5-core-1.so.1:_ZN9PolkitQt19Authority37unregisterAuthenticationAgentFinishedEb
libpolkit-qt5-core-1.so.1:_ZN9PolkitQt19Authority38enumerateTemporaryAuthorizationsCancelEv
libpolkit-qt5-core-1.so.1:_ZN9PolkitQt19Authority40enumerateTemporaryAuthorizationsFinishedE5QListINS_22TemporaryAuthorizationEE
libpolkit-qt5-core-1.so.1:_ZN9PolkitQt19Authority7Private10dbusFilterERK12QDBusMessage
libpolkit-qt5-core-1.so.1:_ZN9PolkitQt19Authority7Private13dbusSignalAddERK7QStringS4_S4_S4_
libpolkit-qt5-core-1.so.1:_ZN9PolkitQt19Authority7Private17convertDetailsMapERK4QMapI7QStringS3_E
libpolkit-qt5-core-1.so.1:_ZN9PolkitQt19Authority7Private17pk_config_changedEv
libpolkit-qt5-core-1.so.1:_ZN9PolkitQt19Authority7Private18seatSignalsConnectERK7QString
libpolkit-qt5-core-1.so.1:_ZN9PolkitQt19Authority7Private24enumerateActionsCallbackEP8_GObjectP13_GAsyncResultPv
libpolkit-qt5-core-1.so.1:_ZN9PolkitQt19Authority7Private26checkAuthorizationCallbackEP8_GObjectP13_GAsyncResultPv
libpolkit-qt5-core-1.so.1:_ZN9PolkitQt19Authority7Private35authenticationAgentResponseCallbackEP8_GObjectP13_GAsyncResultPv
libpolkit-qt5-core-1.so.1:_ZN9PolkitQt19Authority7Private35registerAuthenticationAgentCallbackEP8_GObjectP13_GAsyncResultPv
libpolkit-qt5-core-1.so.1:_ZN9PolkitQt19Authority7Private36revokeTemporaryAuthorizationCallbackEP8_GObjectP13_GAsyncResultPv
libpolkit-qt5-core-1.so.1:_ZN9PolkitQt19Authority7Private37revokeTemporaryAuthorizationsCallbackEP8_GObjectP13_GAsyncResultPv
libpolkit-qt5-core-1.so.1:_ZN9PolkitQt19Authority7Private37unregisterAuthenticationAgentCallbackEP8_GObjectP13_GAsyncResultPv
libpolkit-qt5-core-1.so.1:_ZN9PolkitQt19Authority7Private40enumerateTemporaryAuthorizationsCallbackEP8_GObjectP13_GAsyncResultPv
libpolkit-qt5-core-1.so.1:_ZN9PolkitQt19Authority7Private4initEv
libpolkit-qt5-core-1.so.1:_ZN9PolkitQt19Authority7Private8setErrorENS0_9ErrorCodeERK7QStringb
libpolkit-qt5-core-1.so.1:_ZN9PolkitQt19Authority7PrivateD1Ev
libpolkit-qt5-core-1.so.1:_ZN9PolkitQt19Authority7PrivateD2Ev
libpolkit-qt5-core-1.so.1:_ZN9PolkitQt19Authority8instanceEP16_PolkitAuthority
libpolkit-qt5-core-1.so.1:_ZN9PolkitQt19AuthorityC1EP16_PolkitAuthorityP7QObject
libpolkit-qt5-core-1.so.1:_ZN9PolkitQt19AuthorityC2EP16_PolkitAuthorityP7QObject
libpolkit-qt5-core-1.so.1:_ZN9PolkitQt19AuthorityD0Ev
libpolkit-qt5-core-1.so.1:_ZN9PolkitQt19AuthorityD1Ev
libpolkit-qt5-core-1.so.1:_ZN9PolkitQt19AuthorityD2Ev
libpolkit-qt5-core-1.so.1:_ZNK9PolkitQt116UnixUserIdentity3uidEv
libpolkit-qt5-core-1.so.1:_ZNK9PolkitQt117ActionDescription10vendorNameEv
libpolkit-qt5-core-1.so.1:_ZNK9PolkitQt117ActionDescription11descriptionEv
libpolkit-qt5-core-1.so.1:_ZNK9PolkitQt117ActionDescription11implicitAnyEv
libpolkit-qt5-core-1.so.1:_ZNK9PolkitQt117ActionDescription14implicitActiveEv
libpolkit-qt5-core-1.so.1:_ZNK9PolkitQt117ActionDescription16implicitInactiveEv
libpolkit-qt5-core-1.so.1:_ZNK9PolkitQt117ActionDescription7messageEv
libpolkit-qt5-core-1.so.1:_ZNK9PolkitQt117ActionDescription8actionIdEv
libpolkit-qt5-core-1.so.1:_ZNK9PolkitQt117ActionDescription8iconNameEv
libpolkit-qt5-core-1.so.1:_ZNK9PolkitQt117ActionDescription9vendorUrlEv
libpolkit-qt5-core-1.so.1:_ZNK9PolkitQt117UnixGroupIdentity3gidEv
libpolkit-qt5-core-1.so.1:_ZNK9PolkitQt118UnixProcessSubject3pidEv
libpolkit-qt5-core-1.so.1:_ZNK9PolkitQt118UnixProcessSubject3uidEv
libpolkit-qt5-core-1.so.1:_ZNK9PolkitQt118UnixProcessSubject9startTimeEv
libpolkit-qt5-core-1.so.1:_ZNK9PolkitQt118UnixSessionSubject9sessionIdEv
libpolkit-qt5-core-1.so.1:_ZNK9PolkitQt120SystemBusNameSubject4nameEv
libpolkit-qt5-core-1.so.1:_ZNK9PolkitQt122TemporaryAuthorization10obtainedAtEv
libpolkit-qt5-core-1.so.1:_ZNK9PolkitQt122TemporaryAuthorization14expirationTimeEv
libpolkit-qt5-core-1.so.1:_ZNK9PolkitQt122TemporaryAuthorization2idEv
libpolkit-qt5-core-1.so.1:_ZNK9PolkitQt122TemporaryAuthorization7subjectEv
libpolkit-qt5-core-1.so.1:_ZNK9PolkitQt122TemporaryAuthorization8actionIdEv
libpolkit-qt5-core-1.so.1:_ZNK9PolkitQt17Details4keysEv
libpolkit-qt5-core-1.so.1:_ZNK9PolkitQt17Details6lookupERK7QString
libpolkit-qt5-core-1.so.1:_ZNK9PolkitQt17Subject7isValidEv
libpolkit-qt5-core-1.so.1:_ZNK9PolkitQt17Subject7subjectEv
libpolkit-qt5-core-1.so.1:_ZNK9PolkitQt17Subject8toStringEv
libpolkit-qt5-core-1.so.1:_ZNK9PolkitQt18Identity7isValidEv
libpolkit-qt5-core-1.so.1:_ZNK9PolkitQt18Identity8identityEv
libpolkit-qt5-core-1.so.1:_ZNK9PolkitQt18Identity8toStringEv
libpolkit-qt5-core-1.so.1:_ZNK9PolkitQt19Authority10metaObjectEv
libpolkit-qt5-core-1.so.1:_ZNK9PolkitQt19Authority12errorDetailsEv
libpolkit-qt5-core-1.so.1:_ZNK9PolkitQt19Authority15polkitAuthorityEv
libpolkit-qt5-core-1.so.1:_ZNK9PolkitQt19Authority8hasErrorEv
libpolkit-qt5-core-1.so.1:_ZNK9PolkitQt19Authority9lastErrorEv
libpolkit-qt5-gui-1.so.1:_ZN9PolkitQt13Gui12ActionButton11qt_metacallEN11QMetaObject4CallEiPPv
libpolkit-qt5-gui-1.so.1:_ZN9PolkitQt13Gui12ActionButton11qt_metacastEPKc
libpolkit-qt5-gui-1.so.1:_ZN9PolkitQt13Gui12ActionButton16staticMetaObjectE
libpolkit-qt5-gui-1.so.1:_ZN9PolkitQt13Gui12ActionButton7clickedEP15QAbstractButtonb
libpolkit-qt5-gui-1.so.1:_ZN9PolkitQt13Gui12ActionButton8activateEv
libpolkit-qt5-gui-1.so.1:_ZN9PolkitQt13Gui12ActionButton9setButtonEP15QAbstractButton
libpolkit-qt5-gui-1.so.1:_ZN9PolkitQt13Gui12ActionButtonC1EP15QAbstractButtonRK7QStringP7QObject
libpolkit-qt5-gui-1.so.1:_ZN9PolkitQt13Gui12ActionButtonC1ERNS0_19ActionButtonPrivateERK7QStringP7QObject
libpolkit-qt5-gui-1.so.1:_ZN9PolkitQt13Gui12ActionButtonC2EP15QAbstractButtonRK7QStringP7QObject
libpolkit-qt5-gui-1.so.1:_ZN9PolkitQt13Gui12ActionButtonC2ERNS0_19ActionButtonPrivateERK7QStringP7QObject
libpolkit-qt5-gui-1.so.1:_ZN9PolkitQt13Gui12ActionButtonD0Ev
libpolkit-qt5-gui-1.so.1:_ZN9PolkitQt13Gui12ActionButtonD1Ev
libpolkit-qt5-gui-1.so.1:_ZN9PolkitQt13Gui12ActionButtonD2Ev
libpolkit-qt5-gui-1.so.1:_ZN9PolkitQt13Gui13ActionButtons10setButtonsERK5QListIP15QAbstractButtonE
libpolkit-qt5-gui-1.so.1:_ZN9PolkitQt13Gui13ActionButtons11qt_metacallEN11QMetaObject4CallEiPPv
libpolkit-qt5-gui-1.so.1:_ZN9PolkitQt13Gui13ActionButtons11qt_metacastEPKc
libpolkit-qt5-gui-1.so.1:_ZN9PolkitQt13Gui13ActionButtons12removeButtonEP15QAbstractButton
libpolkit-qt5-gui-1.so.1:_ZN9PolkitQt13Gui13ActionButtons16staticMetaObjectE
libpolkit-qt5-gui-1.so.1:_ZN9PolkitQt13Gui13ActionButtons9addButtonEP15QAbstractButton
libpolkit-qt5-gui-1.so.1:_ZN9PolkitQt13Gui13ActionButtonsC1ERK5QListIP15QAbstractButtonERK7QStringP7QObject
libpolkit-qt5-gui-1.so.1:_ZN9PolkitQt13Gui13ActionButtonsC2ERK5QListIP15QAbstractButtonERK7QStringP7QObject
libpolkit-qt5-gui-1.so.1:_ZN9PolkitQt13Gui13ActionButtonsD0Ev
libpolkit-qt5-gui-1.so.1:_ZN9PolkitQt13Gui13ActionButtonsD1Ev
libpolkit-qt5-gui-1.so.1:_ZN9PolkitQt13Gui13ActionButtonsD2Ev
libpolkit-qt5-gui-1.so.1:_ZN9PolkitQt13Gui19ActionButtonPrivate12removeButtonEP15QAbstractButton
libpolkit-qt5-gui-1.so.1:_ZN9PolkitQt13Gui19ActionButtonPrivate12updateButtonEv
libpolkit-qt5-gui-1.so.1:_ZN9PolkitQt13Gui19ActionButtonPrivate13streamClickedEb
libpolkit-qt5-gui-1.so.1:_ZN9PolkitQt13Gui19ActionButtonPrivate9addButtonEP15QAbstractButton
libpolkit-qt5-gui-1.so.1:_ZN9PolkitQt13Gui6Action10authorizedEv
libpolkit-qt5-gui-1.so.1:_ZN9PolkitQt13Gui6Action10setCheckedEb
libpolkit-qt5-gui-1.so.1:_ZN9PolkitQt13Gui6Action10setEnabledEb6QFlagsINS1_5StateEE
libpolkit-qt5-gui-1.so.1:_ZN9PolkitQt13Gui6Action10setToolTipERK7QString6QFlagsINS1_5StateEE
libpolkit-qt5-gui-1.so.1:_ZN9PolkitQt13Gui6Action10setVisibleEb6QFlagsINS1_5StateEE
libpolkit-qt5-gui-1.so.1:_ZN9PolkitQt13Gui6Action11dataChangedEv
libpolkit-qt5-gui-1.so.1:_ZN9PolkitQt13Gui6Action11qt_metacallEN11QMetaObject4CallEiPPv
libpolkit-qt5-gui-1.so.1:_ZN9PolkitQt13Gui6Action11qt_metacastEPKc
libpolkit-qt5-gui-1.so.1:_ZN9PolkitQt13Gui6Action12setTargetPIDEx
libpolkit-qt5-gui-1.so.1:_ZN9PolkitQt13Gui6Action12setWhatsThisERK7QString6QFlagsINS1_5StateEE
libpolkit-qt5-gui-1.so.1:_ZN9PolkitQt13Gui6Action15setPolkitActionERK7QString
libpolkit-qt5-gui-1.so.1:_ZN9PolkitQt13Gui6Action16staticMetaObjectE
libpolkit-qt5-gui-1.so.1:_ZN9PolkitQt13Gui6Action6revokeEv
libpolkit-qt5-gui-1.so.1:_ZN9PolkitQt13Gui6Action7Private12updateActionEv
libpolkit-qt5-gui-1.so.1:_ZN9PolkitQt13Gui6Action7Private13configChangedEv
libpolkit-qt5-gui-1.so.1:_ZN9PolkitQt13Gui6Action7Private15computePkResultEv
libpolkit-qt5-gui-1.so.1:_ZN9PolkitQt13Gui6Action7PrivateC1EPS1_
libpolkit-qt5-gui-1.so.1:_ZN9PolkitQt13Gui6Action7PrivateC2EPS1_
libpolkit-qt5-gui-1.so.1:_ZN9PolkitQt13Gui6Action7setIconERK5QIcon6QFlagsINS1_5StateEE
libpolkit-qt5-gui-1.so.1:_ZN9PolkitQt13Gui6Action7setTextERK7QString6QFlagsINS1_5StateEE
libpolkit-qt5-gui-1.so.1:_ZN9PolkitQt13Gui6Action8activateEv
libpolkit-qt5-gui-1.so.1:_ZN9PolkitQt13Gui6ActionC1ERK7QStringP7QObject
libpolkit-qt5-gui-1.so.1:_ZN9PolkitQt13Gui6ActionC2ERK7QStringP7QObject
libpolkit-qt5-gui-1.so.1:_ZN9PolkitQt13Gui6ActionD0Ev
libpolkit-qt5-gui-1.so.1:_ZN9PolkitQt13Gui6ActionD1Ev
libpolkit-qt5-gui-1.so.1:_ZN9PolkitQt13Gui6ActionD2Ev
libpolkit-qt5-gui-1.so.1:_ZNK9PolkitQt13Gui12ActionButton10metaObjectEv
libpolkit-qt5-gui-1.so.1:_ZNK9PolkitQt13Gui12ActionButton6buttonEv
libpolkit-qt5-gui-1.so.1:_ZNK9PolkitQt13Gui13ActionButtons10metaObjectEv
libpolkit-qt5-gui-1.so.1:_ZNK9PolkitQt13Gui13ActionButtons7buttonsEv
libpolkit-qt5-gui-1.so.1:_ZNK9PolkitQt13Gui6Action10metaObjectEv
libpolkit-qt5-gui-1.so.1:_ZNK9PolkitQt13Gui6Action2isERK7QString
libpolkit-qt5-gui-1.so.1:_ZNK9PolkitQt13Gui6Action4iconENS1_5StateE
libpolkit-qt5-gui-1.so.1:_ZNK9PolkitQt13Gui6Action4textENS1_5StateE
libpolkit-qt5-gui-1.so.1:_ZNK9PolkitQt13Gui6Action7toolTipENS1_5StateE
libpolkit-qt5-gui-1.so.1:_ZNK9PolkitQt13Gui6Action8actionIdEv
libpolkit-qt5-gui-1.so.1:_ZNK9PolkitQt13Gui6Action9isAllowedEv
libpolkit-qt5-gui-1.so.1:_ZNK9PolkitQt13Gui6Action9isEnabledENS1_5StateE
libpolkit-qt5-gui-1.so.1:_ZNK9PolkitQt13Gui6Action9isVisibleENS1_5StateE
libpolkit-qt5-gui-1.so.1:_ZNK9PolkitQt13Gui6Action9targetPIDEv
libpolkit-qt5-gui-1.so.1:_ZNK9PolkitQt13Gui6Action9whatsThisENS1_5StateE
