_C.so:_ZGVZN3c1010Dispatcher9singletonEvE1s
_C.so:_ZGVZN3c106detail11getTypePtr_INS_8ArrayRefIlEEE4callEvE4type
_C.so:_ZN2at6native17internal_upsample17HelperInterpCubicIldE7_filterEd
_C.so:_ZN2at6native17internal_upsample17HelperInterpCubicIlfE7_filterEf
_C.so:_ZN2at6native17internal_upsample18HelperInterpLinearIldE7_filterEd
_C.so:_ZN2at6native17internal_upsample18HelperInterpLinearIlfE7_filterEf
_C.so:_ZN2at6native17internal_upsample34_ti_upsample_bicubic2d_kernel_implERNS_6TensorERKS2_bN3c108optionalIdEES8_b
_C.so:_ZN2at6native17internal_upsample35_ti_upsample_bilinear2d_kernel_implERNS_6TensorERKS2_bN3c108optionalIdEES8_b
_C.so:_ZN2at6native17internal_upsample43_upsample_bicubic2d_aa_backward_kernel_implERKNS_6TensorES4_bN3c108optionalIdEES7_
_C.so:_ZN2at6native17internal_upsample44_upsample_bilinear2d_aa_backward_kernel_implERKNS_6TensorES4_bN3c108optionalIdEES7_
_C.so:_ZN3c1012function_refIFvPPcPKlllEE11callback_fnIZN2at18TensorIteratorBase15loop_2d_from_1dIZNS8_6native17internal_upsample26ti_cpu_upsample_generic_aaIdlLi2EEEvRNS8_14TensorIteratorEiEUlS2_S4_lE_EEDaRKT_EUlS2_S4_llE_EEvlS2_S4_ll
_C.so:_ZN3c1012function_refIFvPPcPKlllEE11callback_fnIZN2at18TensorIteratorBase15loop_2d_from_1dIZNS8_6native17internal_upsample26ti_cpu_upsample_generic_aaIflLi2EEEvRNS8_14TensorIteratorEiEUlS2_S4_lE_EEDaRKT_EUlS2_S4_llE_EEvlS2_S4_ll
_C.so:_ZN3c1012function_refIFvPPcPKlllEE11callback_fnIZN2at18TensorIteratorBase15loop_2d_from_1dIZNS8_6native17internal_upsample26ti_cpu_upsample_generic_aaIhlLi2EEEvRNS8_14TensorIteratorEiEUlS2_S4_lE_EEDaRKT_EUlS2_S4_llE_EEvlS2_S4_ll
_C.so:_ZN3c1014getTypePtrCopyIN2at6TensorEEENS_4Type24SingletonOrSharedTypePtrIS3_EEv
_C.so:_ZN3c1014getTypePtrCopyINS_8ArrayRefIlEEEENS_4Type24SingletonOrSharedTypePtrIS3_EEv
_C.so:_ZN3c1014getTypePtrCopyIbEENS_4Type24SingletonOrSharedTypePtrIS1_EEv
_C.so:_ZN3c1014getTypePtrCopyIdEENS_4Type24SingletonOrSharedTypePtrIS1_EEv
_C.so:_ZN3c1014getTypePtrCopyIlEENS_4Type24SingletonOrSharedTypePtrIS1_EEv
_C.so:_ZN3c104impl28wrap_kernel_functor_unboxed_INS0_6detail31WrapFunctionIntoRuntimeFunctor_IPFlvElNS_4guts8typelist8typelistIJEEEEES4_E4callEPNS_14OperatorKernelENS_14DispatchKeySetE
_C.so:_ZN3c104impl31make_boxed_from_unboxed_functorINS0_6detail31WrapFunctionIntoRuntimeFunctor_IPFlvElNS_4guts8typelist8typelistIJEEEEELb0EE4callEPNS_14OperatorKernelERKNS_14OperatorHandleENS_14DispatchKeySetEPSt6vectorINS_6IValueESaISJ_EE
_C.so:_ZN6vision12cuda_versionEv
_C.so:_ZN6vision3ops11ps_roi_poolERKN2at6TensorES4_dll
_C.so:_ZN6vision3ops12ps_roi_alignERKN2at6TensorES4_dlll
_C.so:_ZN6vision3ops13deform_conv2dERKN2at6TensorES4_S4_S4_S4_llllllllb
_C.so:_ZN6vision3ops23_interpolate_bicubic_aaERKN2at6TensorEN3c108ArrayRefIlEEb
_C.so:_ZN6vision3ops26_interpolate_bilinear2d_aaERKN2at6TensorEN3c108ArrayRefIlEEb
_C.so:_ZN6vision3ops3nmsERKN2at6TensorES4_d
_C.so:_ZN6vision3ops6detail18_roi_pool_backwardERKN2at6TensorES5_S5_dllllll
_C.so:_ZN6vision3ops6detail19_roi_align_backwardERKN2at6TensorES5_dlllllllb
_C.so:_ZN6vision3ops6detail21_ps_roi_pool_backwardERKN2at6TensorES5_S5_dllllll
_C.so:_ZN6vision3ops6detail22_ps_roi_align_backwardERKN2at6TensorES5_S5_dlllllll
_C.so:_ZN6vision3ops6detail23_deform_conv2d_backwardERKN2at6TensorES5_S5_S5_S5_S5_llllllllb
_C.so:_ZN6vision3ops6detail34_interpolate_bicubic2d_aa_backwardERKN2at6TensorEN3c108ArrayRefIlEES8_b
_C.so:_ZN6vision3ops6detail35_interpolate_bilinear2d_aa_backwardERKN2at6TensorEN3c108ArrayRefIlEES8_b
_C.so:_ZN6vision3ops8roi_poolERKN2at6TensorES4_dll
_C.so:_ZN6vision3ops9roi_alignERKN2at6TensorES4_dlllb
_C.so:_ZTIFN2at6TensorERKS0_N3c108ArrayRefIlEES5_bE
_C.so:_ZTIFN2at6TensorERKS0_N3c108ArrayRefIlEEbE
_C.so:_ZTIFN2at6TensorERKS0_S2_S2_S2_S2_llllllllbE
_C.so:_ZTIFN2at6TensorERKS0_S2_S2_dllllllE
_C.so:_ZTIFN2at6TensorERKS0_S2_S2_dlllllllE
_C.so:_ZTIFN2at6TensorERKS0_S2_dE
_C.so:_ZTIFN2at6TensorERKS0_S2_dlllbE
_C.so:_ZTIFN2at6TensorERKS0_S2_dlllllllbE
_C.so:_ZTIFSt5tupleIJN2at6TensorES1_EERKS1_S4_dllE
_C.so:_ZTIFSt5tupleIJN2at6TensorES1_EERKS1_S4_dlllE
_C.so:_ZTIFSt5tupleIJN2at6TensorES1_S1_S1_S1_EERKS1_S4_S4_S4_S4_S4_llllllllbE
_C.so:_ZTIFlvE
_C.so:_ZTIFvPN5torch8autograd4NodeEE
_C.so:_ZTIN3c1010IndexErrorE
_C.so:_ZTIN3c1010SharedTypeE
_C.so:_ZTIN3c1014OperatorKernelE
_C.so:_ZTIN3c1019bad_optional_accessE
_C.so:_ZTIN3c1020intrusive_ptr_targetE
_C.so:_ZTIN3c105ErrorE
_C.so:_ZTIPFvPN5torch8autograd4NodeEE
_C.so:_ZTISt11_Mutex_baseILN9__gnu_cxx12_Lock_policyE2EE
_C.so:_ZTISt16_Sp_counted_baseILN9__gnu_cxx12_Lock_policyE2EE
_C.so:_ZTISt23enable_shared_from_thisIN3c1010SharedTypeEE
_C.so:_ZTSFN2at6TensorERKS0_N3c108ArrayRefIlEES5_bE
_C.so:_ZTSFN2at6TensorERKS0_N3c108ArrayRefIlEEbE
_C.so:_ZTSFN2at6TensorERKS0_S2_S2_S2_S2_llllllllbE
_C.so:_ZTSFN2at6TensorERKS0_S2_S2_dllllllE
_C.so:_ZTSFN2at6TensorERKS0_S2_S2_dlllllllE
_C.so:_ZTSFN2at6TensorERKS0_S2_dE
_C.so:_ZTSFN2at6TensorERKS0_S2_dlllbE
_C.so:_ZTSFN2at6TensorERKS0_S2_dlllllllbE
_C.so:_ZTSFSt5tupleIJN2at6TensorES1_EERKS1_S4_dllE
_C.so:_ZTSFSt5tupleIJN2at6TensorES1_EERKS1_S4_dlllE
_C.so:_ZTSFSt5tupleIJN2at6TensorES1_S1_S1_S1_EERKS1_S4_S4_S4_S4_S4_llllllllbE
_C.so:_ZTSFlvE
_C.so:_ZTSFvPN5torch8autograd4NodeEE
_C.so:_ZTSN3c1010IndexErrorE
_C.so:_ZTSN3c1010SharedTypeE
_C.so:_ZTSN3c1014OperatorKernelE
_C.so:_ZTSN3c1017SingleElementTypeILNS_8TypeKindE6ENS_8ListTypeEEE
_C.so:_ZTSN3c1019bad_optional_accessE
_C.so:_ZTSN3c1020intrusive_ptr_targetE
_C.so:_ZTSN3c104impl6detail31WrapFunctionIntoRuntimeFunctor_IPFlvElNS_4guts8typelist8typelistIJEEEEE
_C.so:_ZTSN3c105ErrorE
_C.so:_ZTSN3c106detail8ListImplE
_C.so:_ZTSPFvPN5torch8autograd4NodeEE
_C.so:_ZTSSt11_Mutex_baseILN9__gnu_cxx12_Lock_policyE2EE
_C.so:_ZTSSt15_Sp_counted_ptrIPN3c108ListTypeELN9__gnu_cxx12_Lock_policyE2EE
_C.so:_ZTSSt16_Sp_counted_baseILN9__gnu_cxx12_Lock_policyE2EE
_C.so:_ZTSSt23enable_shared_from_thisIN3c1010SharedTypeEE
_C.so:_ZZN3c1010Dispatcher9singletonEvE1s
_C.so:_ZZN3c106detail11getTypePtr_INS_8ArrayRefIlEEE4callEvE4type
_C.so:__bss_start
_C.so:_edata
_C.so:_end
_C.so:_register_ops
image.so:_ZN2at6detail10noopDeleteEPv
image.so:_ZN3c1014getTypePtrCopyIN2at6TensorEEENS_4Type24SingletonOrSharedTypePtrIS3_EEv
image.so:_ZN3c1014getTypePtrCopyINS_6DeviceEEENS_4Type24SingletonOrSharedTypePtrIS2_EEv
image.so:_ZN3c1014getTypePtrCopyINSt7__cxx1112basic_stringIcSt11char_traitsIcESaIcEEEEENS_4Type24SingletonOrSharedTypePtrIS7_EEv
image.so:_ZN3c1014getTypePtrCopyIbEENS_4Type24SingletonOrSharedTypePtrIS1_EEv
image.so:_ZN3c1014getTypePtrCopyIlEENS_4Type24SingletonOrSharedTypePtrIS1_EEv
image.so:_ZN3c104impl28wrap_kernel_functor_unboxed_INS0_6detail31WrapFunctionIntoRuntimeFunctor_IPFN2at6TensorERKNSt7__cxx1112basic_stringIcSt11char_traitsIcESaIcEEEES5_NS_4guts8typelist8typelistIJSD_EEEEESE_E4callEPNS_14OperatorKernelENS_14DispatchKeySetESD_
image.so:_ZN3c104impl28wrap_kernel_functor_unboxed_INS0_6detail31WrapFunctionIntoRuntimeFunctor_IPFN2at6TensorERKS5_lES5_NS_4guts8typelist8typelistIJS7_lEEEEES8_E4callEPNS_14OperatorKernelENS_14DispatchKeySetES7_l
image.so:_ZN3c104impl28wrap_kernel_functor_unboxed_INS0_6detail31WrapFunctionIntoRuntimeFunctor_IPFN2at6TensorERKS5_lNS_6DeviceEES5_NS_4guts8typelist8typelistIJS7_lS8_EEEEES9_E4callEPNS_14OperatorKernelENS_14DispatchKeySetES7_lS8_
image.so:_ZN3c104impl28wrap_kernel_functor_unboxed_INS0_6detail31WrapFunctionIntoRuntimeFunctor_IPFN2at6TensorERKS5_lbES5_NS_4guts8typelist8typelistIJS7_lbEEEEES8_E4callEPNS_14OperatorKernelENS_14DispatchKeySetES7_lb
image.so:_ZN3c104impl28wrap_kernel_functor_unboxed_INS0_6detail31WrapFunctionIntoRuntimeFunctor_IPFvRKNSt7__cxx1112basic_stringIcSt11char_traitsIcESaIcEEERN2at6TensorEEvNS_4guts8typelist8typelistIJSB_SE_EEEEESF_E4callEPNS_14OperatorKernelENS_14DispatchKeySetESB_SE_
image.so:_ZN3c104impl31make_boxed_from_unboxed_functorINS0_6detail31WrapFunctionIntoRuntimeFunctor_IPFN2at6TensorERKNSt7__cxx1112basic_stringIcSt11char_traitsIcESaIcEEEES5_NS_4guts8typelist8typelistIJSD_EEEEELb1EE4callEPNS_14OperatorKernelERKNS_14OperatorHandleENS_14DispatchKeySetEPSt6vectorINS_6IValueESaIST_EE
image.so:_ZN3c104impl31make_boxed_from_unboxed_functorINS0_6detail31WrapFunctionIntoRuntimeFunctor_IPFN2at6TensorERKS5_lES5_NS_4guts8typelist8typelistIJS7_lEEEEELb1EE4callEPNS_14OperatorKernelERKNS_14OperatorHandleENS_14DispatchKeySetEPSt6vectorINS_6IValueESaISN_EE
image.so:_ZN3c104impl31make_boxed_from_unboxed_functorINS0_6detail31WrapFunctionIntoRuntimeFunctor_IPFN2at6TensorERKS5_lNS_6DeviceEES5_NS_4guts8typelist8typelistIJS7_lS8_EEEEELb1EE4callEPNS_14OperatorKernelERKNS_14OperatorHandleENS_14DispatchKeySetEPSt6vectorINS_6IValueESaISO_EE
image.so:_ZN3c104impl31make_boxed_from_unboxed_functorINS0_6detail31WrapFunctionIntoRuntimeFunctor_IPFN2at6TensorERKS5_lbES5_NS_4guts8typelist8typelistIJS7_lbEEEEELb1EE4callEPNS_14OperatorKernelERKNS_14OperatorHandleENS_14DispatchKeySetEPSt6vectorINS_6IValueESaISN_EE
image.so:_ZN3c104impl31make_boxed_from_unboxed_functorINS0_6detail31WrapFunctionIntoRuntimeFunctor_IPFvRKNSt7__cxx1112basic_stringIcSt11char_traitsIcESaIcEEERN2at6TensorEEvNS_4guts8typelist8typelistIJSB_SE_EEEEELb1EE4callEPNS_14OperatorKernelERKNS_14OperatorHandleENS_14DispatchKeySetEPSt6vectorINS_6IValueESaISU_EE
image.so:_ZN6vision5image10decode_pngERKN2at6TensorElb
image.so:_ZN6vision5image10encode_pngERKN2at6TensorEl
image.so:_ZN6vision5image10write_fileERKNSt7__cxx1112basic_stringIcSt11char_traitsIcESaIcEEERN2at6TensorE
image.so:_ZN6vision5image11decode_jpegERKN2at6TensorEl
image.so:_ZN6vision5image11encode_jpegERKN2at6TensorEl
image.so:_ZN6vision5image12decode_imageERKN2at6TensorEl
image.so:_ZN6vision5image16decode_jpeg_cudaERKN2at6TensorElN3c106DeviceE
image.so:_ZN6vision5image16is_little_endianEv
image.so:_ZN6vision5image6detail21torch_jpeg_error_exitEP18jpeg_common_struct
image.so:_ZN6vision5image9read_fileERKNSt7__cxx1112basic_stringIcSt11char_traitsIcESaIcEEE
image.so:_ZNSt17_Function_handlerIFvPvEPS1_E10_M_managerERSt9_Any_dataRKS4_St18_Manager_operation
image.so:_ZNSt17_Function_handlerIFvPvEPS1_E9_M_invokeERKSt9_Any_dataOS0_
image.so:_ZTIFN2at6TensorERKNSt7__cxx1112basic_stringIcSt11char_traitsIcESaIcEEEE
image.so:_ZTIFN2at6TensorERKS0_lE
image.so:_ZTIFN2at6TensorERKS0_lN3c106DeviceEE
image.so:_ZTIFN2at6TensorERKS0_lbE
image.so:_ZTIFvPvE
image.so:_ZTIFvRKNSt7__cxx1112basic_stringIcSt11char_traitsIcESaIcEEERN2at6TensorEE
image.so:_ZTIN3c1010IndexErrorE
image.so:_ZTIN3c1014OperatorKernelE
image.so:_ZTIN3c1019bad_optional_accessE
image.so:_ZTIN3c1020intrusive_ptr_targetE
image.so:_ZTIN3c105ErrorE
image.so:_ZTIPFvPvE
image.so:_ZTSFN2at6TensorERKNSt7__cxx1112basic_stringIcSt11char_traitsIcESaIcEEEE
image.so:_ZTSFN2at6TensorERKS0_lE
image.so:_ZTSFN2at6TensorERKS0_lN3c106DeviceEE
image.so:_ZTSFN2at6TensorERKS0_lbE
image.so:_ZTSFvPvE
image.so:_ZTSFvRKNSt7__cxx1112basic_stringIcSt11char_traitsIcESaIcEEERN2at6TensorEE
image.so:_ZTSN3c1010IndexErrorE
image.so:_ZTSN3c1014OperatorKernelE
image.so:_ZTSN3c1015VariableVersion14VersionCounterE
image.so:_ZTSN3c1019bad_optional_accessE
image.so:_ZTSN3c1020intrusive_ptr_targetE
image.so:_ZTSN3c104impl6detail31WrapFunctionIntoRuntimeFunctor_IPFN2at6TensorERKNSt7__cxx1112basic_stringIcSt11char_traitsIcESaIcEEEES4_NS_4guts8typelist8typelistIJSC_EEEEE
image.so:_ZTSN3c104impl6detail31WrapFunctionIntoRuntimeFunctor_IPFN2at6TensorERKS4_lES4_NS_4guts8typelist8typelistIJS6_lEEEEE
image.so:_ZTSN3c104impl6detail31WrapFunctionIntoRuntimeFunctor_IPFN2at6TensorERKS4_lNS_6DeviceEES4_NS_4guts8typelist8typelistIJS6_lS7_EEEEE
image.so:_ZTSN3c104impl6detail31WrapFunctionIntoRuntimeFunctor_IPFN2at6TensorERKS4_lbES4_NS_4guts8typelist8typelistIJS6_lbEEEEE
image.so:_ZTSN3c104impl6detail31WrapFunctionIntoRuntimeFunctor_IPFvRKNSt7__cxx1112basic_stringIcSt11char_traitsIcESaIcEEERN2at6TensorEEvNS_4guts8typelist8typelistIJSA_SD_EEEEE
image.so:_ZTSN3c105ErrorE
image.so:_ZTSPFvPvE
image.so:__bss_start
image.so:_edata
image.so:_end
video_reader.so:_ZGVZN3c1018getCustomClassTypeINS_13intrusive_ptrIN6vision5video5VideoENS_6detail34intrusive_target_default_null_typeIS4_EEEEEERKSt10shared_ptrINS_9ClassTypeEEvE5cache
video_reader.so:_ZGVZN3c1018getCustomClassTypeINS_14tagged_capsuleIN6vision5video5VideoEEEEERKSt10shared_ptrINS_9ClassTypeEEvE5cache
video_reader.so:_ZGVZN3c106detail11getTypePtr_INS_4DictINSt7__cxx1112basic_stringIcSt11char_traitsIcESaIcEEENS2_IS8_St6vectorIdSaIdEEEEEEE4callEvE4type
video_reader.so:_ZGVZN3c106detail11getTypePtr_INS_4DictINSt7__cxx1112basic_stringIcSt11char_traitsIcESaIcEEESt6vectorIdSaIdEEEEE4callEvE4type
video_reader.so:_ZGVZN3c106detail11getTypePtr_INS_4ListIN2at6TensorEEEE4callEvE4type
video_reader.so:_ZGVZN3c106detail11getTypePtr_ISt5tupleIJN2at6TensorEdEEE4callEvE4type
video_reader.so:_ZGVZN3c106detail11getTypePtr_ISt5tupleIJNSt7__cxx1112basic_stringIcSt11char_traitsIcESaIcEEElEEE4callEvE4type
video_reader.so:_ZGVZN3c106detail11getTypePtr_ISt6vectorIdSaIdEEE4callEvE4type
video_reader.so:_ZGVZNKSt8__detail11_AnyMatcherINSt7__cxx1112regex_traitsIcEELb0ELb0ELb0EEclEcE5__nul
video_reader.so:_ZGVZNKSt8__detail11_AnyMatcherINSt7__cxx1112regex_traitsIcEELb0ELb0ELb1EEclEcE5__nul
video_reader.so:_ZGVZNKSt8__detail11_AnyMatcherINSt7__cxx1112regex_traitsIcEELb0ELb1ELb0EEclEcE5__nul
video_reader.so:_ZGVZNKSt8__detail11_AnyMatcherINSt7__cxx1112regex_traitsIcEELb0ELb1ELb1EEclEcE5__nul
video_reader.so:_ZN3c1014getTypePtrCopyIN2at6TensorEEENS_4Type24SingletonOrSharedTypePtrIS3_EEv
video_reader.so:_ZN3c1014getTypePtrCopyINS_13intrusive_ptrIN6vision5video5VideoENS_6detail34intrusive_target_default_null_typeIS4_EEEEEENS_4Type24SingletonOrSharedTypePtrIS9_EEv
video_reader.so:_ZN3c1014getTypePtrCopyINS_14tagged_capsuleIN6vision5video5VideoEEEEENS_4Type24SingletonOrSharedTypePtrIS6_EEv
video_reader.so:_ZN3c1014getTypePtrCopyINS_4DictINSt7__cxx1112basic_stringIcSt11char_traitsIcESaIcEEENS1_IS7_St6vectorIdSaIdEEEEEEEENS_4Type24SingletonOrSharedTypePtrISD_EEv
video_reader.so:_ZN3c1014getTypePtrCopyINS_4ListIN2at6TensorEEEEENS_4Type24SingletonOrSharedTypePtrIS5_EEv
video_reader.so:_ZN3c1014getTypePtrCopyINSt7__cxx1112basic_stringIcSt11char_traitsIcESaIcEEEEENS_4Type24SingletonOrSharedTypePtrIS7_EEv
video_reader.so:_ZN3c1014getTypePtrCopyISt5tupleIJN2at6TensorEdEEEENS_4Type24SingletonOrSharedTypePtrIS5_EEv
video_reader.so:_ZN3c1014getTypePtrCopyISt5tupleIJNSt7__cxx1112basic_stringIcSt11char_traitsIcESaIcEEElEEEENS_4Type24SingletonOrSharedTypePtrIS9_EEv
video_reader.so:_ZN3c1014getTypePtrCopyIbEENS_4Type24SingletonOrSharedTypePtrIS1_EEv
video_reader.so:_ZN3c1014getTypePtrCopyIdEENS_4Type24SingletonOrSharedTypePtrIS1_EEv
video_reader.so:_ZN3c1014getTypePtrCopyIlEENS_4Type24SingletonOrSharedTypePtrIS1_EEv
video_reader.so:_ZN3c1014getTypePtrCopyIvEENS_4Type24SingletonOrSharedTypePtrIS1_EEv
video_reader.so:_ZN3c104impl28wrap_kernel_functor_unboxed_INS0_6detail31WrapFunctionIntoRuntimeFunctor_IPFNS_4ListIN2at6TensorEEENSt7__cxx1112basic_stringIcSt11char_traitsIcESaIcEEEES7_NS_4guts8typelist8typelistIJSD_EEEEESE_E4callEPNS_14OperatorKernelENS_14DispatchKeySetESD_
video_reader.so:_ZN3c104impl28wrap_kernel_functor_unboxed_INS0_6detail31WrapFunctionIntoRuntimeFunctor_IPFNS_4ListIN2at6TensorEEENSt7__cxx1112basic_stringIcSt11char_traitsIcESaIcEEEdlllllllllllllllllES7_NS_4guts8typelist8typelistIJSD_dlllllllllllllllllEEEEESE_E4callEPNS_14OperatorKernelENS_14DispatchKeySetESD_dlllllllllllllllll
video_reader.so:_ZN3c104impl28wrap_kernel_functor_unboxed_INS0_6detail31WrapFunctionIntoRuntimeFunctor_IPFNS_4ListIN2at6TensorEEES6_ES7_NS_4guts8typelist8typelistIJS6_EEEEES8_E4callEPNS_14OperatorKernelENS_14DispatchKeySetES6_
video_reader.so:_ZN3c104impl28wrap_kernel_functor_unboxed_INS0_6detail31WrapFunctionIntoRuntimeFunctor_IPFNS_4ListIN2at6TensorEEES6_dlllllllllllllllllES7_NS_4guts8typelist8typelistIJS6_dlllllllllllllllllEEEEES8_E4callEPNS_14OperatorKernelENS_14DispatchKeySetES6_dlllllllllllllllll
video_reader.so:_ZN3c104impl31make_boxed_from_unboxed_functorINS0_6detail31WrapFunctionIntoRuntimeFunctor_IPFNS_4ListIN2at6TensorEEENSt7__cxx1112basic_stringIcSt11char_traitsIcESaIcEEEES7_NS_4guts8typelist8typelistIJSD_EEEEELb0EE4callEPNS_14OperatorKernelERKNS_14OperatorHandleENS_14DispatchKeySetEPSt6vectorINS_6IValueESaIST_EE
video_reader.so:_ZN3c104impl31make_boxed_from_unboxed_functorINS0_6detail31WrapFunctionIntoRuntimeFunctor_IPFNS_4ListIN2at6TensorEEENSt7__cxx1112basic_stringIcSt11char_traitsIcESaIcEEEdlllllllllllllllllES7_NS_4guts8typelist8typelistIJSD_dlllllllllllllllllEEEEELb0EE4callEPNS_14OperatorKernelERKNS_14OperatorHandleENS_14DispatchKeySetEPSt6vectorINS_6IValueESaIST_EE
video_reader.so:_ZN3c104impl31make_boxed_from_unboxed_functorINS0_6detail31WrapFunctionIntoRuntimeFunctor_IPFNS_4ListIN2at6TensorEEES6_ES7_NS_4guts8typelist8typelistIJS6_EEEEELb0EE4callEPNS_14OperatorKernelERKNS_14OperatorHandleENS_14DispatchKeySetEPSt6vectorINS_6IValueESaISN_EE
video_reader.so:_ZN3c104impl31make_boxed_from_unboxed_functorINS0_6detail31WrapFunctionIntoRuntimeFunctor_IPFNS_4ListIN2at6TensorEEES6_dlllllllllllllllllES7_NS_4guts8typelist8typelistIJS6_dlllllllllllllllllEEEEELb0EE4callEPNS_14OperatorKernelERKNS_14OperatorHandleENS_14DispatchKeySetEPSt6vectorINS_6IValueESaISN_EE
video_reader.so:_ZN6ffmpeg10TimeKeeper6adjustERl
video_reader.so:_ZN6ffmpeg11AudioStream10initFormatEv
video_reader.so:_ZN6ffmpeg11AudioStream14copyFrameBytesEPNS_11ByteStorageEb
video_reader.so:_ZN6ffmpeg11AudioStreamC1EP15AVFormatContextibRKNS_11AudioFormatE
video_reader.so:_ZN6ffmpeg11AudioStreamC2EP15AVFormatContextibRKNS_11AudioFormatE
video_reader.so:_ZN6ffmpeg11AudioStreamD0Ev
video_reader.so:_ZN6ffmpeg11AudioStreamD1Ev
video_reader.so:_ZN6ffmpeg11AudioStreamD2Ev
video_reader.so:_ZN6ffmpeg11SyncDecoder13AVByteStorage12writableTailEv
video_reader.so:_ZN6ffmpeg11SyncDecoder13AVByteStorage4trimEm
video_reader.so:_ZN6ffmpeg11SyncDecoder13AVByteStorage5clearEv
video_reader.so:_ZN6ffmpeg11SyncDecoder13AVByteStorage6appendEm
video_reader.so:_ZN6ffmpeg11SyncDecoder13AVByteStorage6ensureEm
video_reader.so:_ZN6ffmpeg11SyncDecoder13AVByteStorageC1Em
video_reader.so:_ZN6ffmpeg11SyncDecoder13AVByteStorageC2Em
video_reader.so:_ZN6ffmpeg11SyncDecoder13AVByteStorageD0Ev
video_reader.so:_ZN6ffmpeg11SyncDecoder13AVByteStorageD1Ev
video_reader.so:_ZN6ffmpeg11SyncDecoder13AVByteStorageD2Ev
video_reader.so:_ZN6ffmpeg11SyncDecoder17createByteStorageEm
video_reader.so:_ZN6ffmpeg11SyncDecoder4pushEONS_20DecoderOutputMessageE
video_reader.so:_ZN6ffmpeg11SyncDecoder6decodeEPNS_20DecoderOutputMessageEm
video_reader.so:_ZN6ffmpeg11SyncDecoder6onInitEv
video_reader.so:_ZN6ffmpeg11VideoStream10initFormatEv
video_reader.so:_ZN6ffmpeg11VideoStream14copyFrameBytesEPNS_11ByteStorageEb
video_reader.so:_ZN6ffmpeg11VideoStream9setHeaderEPNS_13DecoderHeaderEb
video_reader.so:_ZN6ffmpeg11VideoStreamC1EP15AVFormatContextibRKNS_11VideoFormatEl
video_reader.so:_ZN6ffmpeg11VideoStreamC2EP15AVFormatContextibRKNS_11VideoFormatEl
video_reader.so:_ZN6ffmpeg11VideoStreamD0Ev
video_reader.so:_ZN6ffmpeg11VideoStreamD1Ev
video_reader.so:_ZN6ffmpeg11VideoStreamD2Ev
video_reader.so:_ZN6ffmpeg12AudioSampler4initERKNS_17SamplerParametersE
video_reader.so:_ZN6ffmpeg12AudioSampler6sampleEP7AVFramePNS_11ByteStorageE
video_reader.so:_ZN6ffmpeg12AudioSampler6sampleEPKNS_11ByteStorageEPS1_
video_reader.so:_ZN6ffmpeg12AudioSampler6sampleEPPKhiPNS_11ByteStorageEi
video_reader.so:_ZN6ffmpeg12AudioSampler7cleanUpEv
video_reader.so:_ZN6ffmpeg12AudioSampler8shutdownEv
video_reader.so:_ZN6ffmpeg12AudioSamplerC1EPv
video_reader.so:_ZN6ffmpeg12AudioSamplerC2EPv
video_reader.so:_ZN6ffmpeg12AudioSamplerD0Ev
video_reader.so:_ZN6ffmpeg12AudioSamplerD1Ev
video_reader.so:_ZN6ffmpeg12AudioSamplerD2Ev
video_reader.so:_ZN6ffmpeg12MemoryBuffer11getCallbackEPKhm
video_reader.so:_ZN6ffmpeg12MemoryBuffer4readEPhi
video_reader.so:_ZN6ffmpeg12MemoryBuffer4seekEli
video_reader.so:_ZN6ffmpeg12MemoryBufferC1EPKhm
video_reader.so:_ZN6ffmpeg12MemoryBufferC2EPKhm
video_reader.so:_ZN6ffmpeg12VideoSampler4initERKNS_17SamplerParametersE
video_reader.so:_ZN6ffmpeg12VideoSampler6sampleEP7AVFramePNS_11ByteStorageE
video_reader.so:_ZN6ffmpeg12VideoSampler6sampleEPKNS_11ByteStorageEPS1_
video_reader.so:_ZN6ffmpeg12VideoSampler6sampleEPKPKhPiPNS_11ByteStorageE
video_reader.so:_ZN6ffmpeg12VideoSampler7cleanUpEv
video_reader.so:_ZN6ffmpeg12VideoSampler8shutdownEv
video_reader.so:_ZN6ffmpeg12VideoSamplerC1Eil
video_reader.so:_ZN6ffmpeg12VideoSamplerC2Eil
video_reader.so:_ZN6ffmpeg12VideoSamplerD0Ev
video_reader.so:_ZN6ffmpeg12VideoSamplerD1Ev
video_reader.so:_ZN6ffmpeg12VideoSamplerD2Ev
video_reader.so:_ZN6ffmpeg14SeekableBuffer12setImageTypeEPNS_9ImageTypeE
video_reader.so:_ZN6ffmpeg14SeekableBuffer4initEOSt8functionIFiPhiimEEmmPNS_9ImageTypeE
video_reader.so:_ZN6ffmpeg14SeekableBuffer4readEPhim
video_reader.so:_ZN6ffmpeg14SeekableBuffer4seekElim
video_reader.so:_ZN6ffmpeg14SeekableBuffer8shutdownEv
video_reader.so:_ZN6ffmpeg14SeekableBuffer9readBytesERSt8functionIFiPhiimEEmm
video_reader.so:_ZN6ffmpeg14SubtitleStream10initFormatEv
video_reader.so:_ZN6ffmpeg14SubtitleStream11setFramePtsEPNS_13DecoderHeaderEb
video_reader.so:_ZN6ffmpeg14SubtitleStream13analyzePacketEPK8AVPacketPb
video_reader.so:_ZN6ffmpeg14SubtitleStream14copyFrameBytesEPNS_11ByteStorageEb
video_reader.so:_ZN6ffmpeg14SubtitleStream15releaseSubtitleEv
video_reader.so:_ZN6ffmpeg14SubtitleStreamC1EP15AVFormatContextibRKNS_14SubtitleFormatE
video_reader.so:_ZN6ffmpeg14SubtitleStreamC2EP15AVFormatContextibRKNS_14SubtitleFormatE
video_reader.so:_ZN6ffmpeg14SubtitleStreamD0Ev
video_reader.so:_ZN6ffmpeg14SubtitleStreamD1Ev
video_reader.so:_ZN6ffmpeg14SubtitleStreamD2Ev
video_reader.so:_ZN6ffmpeg15SubtitleSampler4initERKNS_17SamplerParametersE
video_reader.so:_ZN6ffmpeg15SubtitleSampler6sampleEP10AVSubtitlePNS_11ByteStorageE
video_reader.so:_ZN6ffmpeg15SubtitleSampler6sampleEPKNS_11ByteStorageEPS1_
video_reader.so:_ZN6ffmpeg15SubtitleSampler7cleanUpEv
video_reader.so:_ZN6ffmpeg15SubtitleSampler8shutdownEv
video_reader.so:_ZN6ffmpeg15SubtitleSamplerD0Ev
video_reader.so:_ZN6ffmpeg15SubtitleSamplerD1Ev
video_reader.so:_ZN6ffmpeg15SubtitleSamplerD2Ev
video_reader.so:_ZN6ffmpeg4Util11deserializeERKNS_11ByteStorageEP10AVSubtitle
video_reader.so:_ZN6ffmpeg4Util17generateErrorDescB5cxx11Ei
video_reader.so:_ZN6ffmpeg4Util19setFormatDimensionsERmS1_mmmmmmm
video_reader.so:_ZN6ffmpeg4Util19validateVideoFormatERKNS_11VideoFormatE
video_reader.so:_ZN6ffmpeg4Util4sizeERK10AVSubtitle
video_reader.so:_ZN6ffmpeg4Util9serializeERK10AVSubtitlePNS_11ByteStorageE
video_reader.so:_ZN6ffmpeg6Stream10getMessageEPNS_20DecoderOutputMessageEbb
video_reader.so:_ZN6ffmpeg6Stream11setFramePtsEPNS_13DecoderHeaderEb
video_reader.so:_ZN6ffmpeg6Stream12decodePacketEPK8AVPacketPNS_20DecoderOutputMessageEbPb
video_reader.so:_ZN6ffmpeg6Stream13analyzePacketEPK8AVPacketPb
video_reader.so:_ZN6ffmpeg6Stream5flushEPNS_20DecoderOutputMessageEb
video_reader.so:_ZN6ffmpeg6Stream9findCodecEP17AVCodecParameters
video_reader.so:_ZN6ffmpeg6Stream9openCodecEPSt6vectorINS_15DecoderMetadataESaIS2_EEi
video_reader.so:_ZN6ffmpeg6Stream9setHeaderEPNS_13DecoderHeaderEb
video_reader.so:_ZN6ffmpeg6StreamC1EP15AVFormatContextNS_11MediaFormatEbl
video_reader.so:_ZN6ffmpeg6StreamC2EP15AVFormatContextNS_11MediaFormatEbl
video_reader.so:_ZN6ffmpeg6StreamD0Ev
video_reader.so:_ZN6ffmpeg6StreamD1Ev
video_reader.so:_ZN6ffmpeg6StreamD2Ev
video_reader.so:_ZN6ffmpeg7Decoder10decode_allERKSt8functionIFvONS_20DecoderOutputMessageEEE
video_reader.so:_ZN6ffmpeg7Decoder11logCallbackEiRKNSt7__cxx1112basic_stringIcSt11char_traitsIcESaIcEEE
video_reader.so:_ZN6ffmpeg7Decoder11logFunctionEPviPKcP13__va_list_tag
video_reader.so:_ZN6ffmpeg7Decoder11openStreamsEPSt6vectorINS_15DecoderMetadataESaIS2_EE
video_reader.so:_ZN6ffmpeg7Decoder12flushStreamsEv
video_reader.so:_ZN6ffmpeg7Decoder12readCallbackEPhi
video_reader.so:_ZN6ffmpeg7Decoder12readFunctionEPvPhi
video_reader.so:_ZN6ffmpeg7Decoder12seekCallbackEli
video_reader.so:_ZN6ffmpeg7Decoder12seekFunctionEPvli
video_reader.so:_ZN6ffmpeg7Decoder13processPacketEPNS_6StreamEP8AVPacketPbS5_b
video_reader.so:_ZN6ffmpeg7Decoder16shutdownCallbackEv
video_reader.so:_ZN6ffmpeg7Decoder16shutdownFunctionEPv
video_reader.so:_ZN6ffmpeg7Decoder4initERKNS_17DecoderParametersEOSt8functionIFiPhiimEEPSt6vectorINS_15DecoderMetadataESaISA_EE
video_reader.so:_ZN6ffmpeg7Decoder7cleanUpEv
video_reader.so:_ZN6ffmpeg7Decoder8getFrameEm
video_reader.so:_ZN6ffmpeg7Decoder8initOnceEv
video_reader.so:_ZN6ffmpeg7Decoder8shutdownEv
video_reader.so:_ZN6ffmpeg7Decoder9interruptEv
video_reader.so:_ZN6ffmpeg7DecoderC1Ev
video_reader.so:_ZN6ffmpeg7DecoderC2Ev
video_reader.so:_ZN6ffmpeg7DecoderD0Ev
video_reader.so:_ZN6ffmpeg7DecoderD1Ev
video_reader.so:_ZN6ffmpeg7DecoderD2Ev
video_reader.so:_ZN6ffmpeg8CCStream9findCodecEP17AVCodecParameters
video_reader.so:_ZN6ffmpeg8CCStreamC1EP15AVFormatContextibRKNS_14SubtitleFormatE
video_reader.so:_ZN6ffmpeg8CCStreamC2EP15AVFormatContextibRKNS_14SubtitleFormatE
video_reader.so:_ZN6vision12video_reader20read_video_from_fileENSt7__cxx1112basic_stringIcSt11char_traitsIcESaIcEEEdlllllllllllllllll
video_reader.so:_ZN6vision12video_reader21probe_video_from_fileENSt7__cxx1112basic_stringIcSt11char_traitsIcESaIcEEE
video_reader.so:_ZN6vision12video_reader22read_video_from_memoryEN2at6TensorEdlllllllllllllllll
video_reader.so:_ZN6vision12video_reader23probe_video_from_memoryEN2at6TensorE
video_reader.so:_ZN6vision5video5Video16setCurrentStreamENSt7__cxx1112basic_stringIcSt11char_traitsIcESaIcEEE
video_reader.so:_ZN6vision5video5Video17_getDecoderParamsEdlNSt7__cxx1112basic_stringIcSt11char_traitsIcESaIcEEElbbld
video_reader.so:_ZN6vision5video5Video4NextEv
video_reader.so:_ZN6vision5video5Video4SeekEdb
video_reader.so:_ZN6vision5video5VideoC1ENSt7__cxx1112basic_stringIcSt11char_traitsIcESaIcEEES7_l
video_reader.so:_ZN6vision5video5VideoC2ENSt7__cxx1112basic_stringIcSt11char_traitsIcESaIcEEES7_l
video_reader.so:_ZNK6ffmpeg11SyncDecoder13AVByteStorage4dataEv
video_reader.so:_ZNK6ffmpeg11SyncDecoder13AVByteStorage4tailEv
video_reader.so:_ZNK6ffmpeg11SyncDecoder13AVByteStorage6lengthEv
video_reader.so:_ZNK6ffmpeg12AudioSampler16numOutputSamplesEi
video_reader.so:_ZNK6ffmpeg7Decoder10findByTypeERKNS_11MediaFormatE
video_reader.so:_ZNK6ffmpeg7Decoder11findByIndexEi
video_reader.so:_ZNK6ffmpeg7Decoder14enableLogLevelEi
video_reader.so:_ZNK6vision5video5Video16getCurrentStreamB5cxx11Ev
video_reader.so:_ZNK6vision5video5Video17getStreamMetadataB5cxx11Ev
video_reader.so:_ZNSt13__future_base13_State_baseV29_M_do_setEPSt8functionIFSt10unique_ptrINS_12_Result_baseENS3_8_DeleterEEvEEPb
video_reader.so:_ZNSt15__exception_ptr12__dest_thunkISt12future_errorEEvPv
video_reader.so:_ZNSt17_Function_handlerIFSt10unique_ptrINSt13__future_base12_Result_baseENS2_8_DeleterEEvENS1_13_State_baseV27_SetterIbObEEE10_M_managerERSt9_Any_dataRKSB_St18_Manager_operation
video_reader.so:_ZNSt17_Function_handlerIFSt10unique_ptrINSt13__future_base12_Result_baseENS2_8_DeleterEEvENS1_13_State_baseV27_SetterIbObEEE9_M_invokeERKSt9_Any_data
video_reader.so:_ZNSt17_Function_handlerIFbcENSt8__detail11_AnyMatcherINSt7__cxx1112regex_traitsIcEELb0ELb0ELb0EEEE10_M_managerERSt9_Any_dataRKS8_St18_Manager_operation
video_reader.so:_ZNSt17_Function_handlerIFbcENSt8__detail11_AnyMatcherINSt7__cxx1112regex_traitsIcEELb0ELb0ELb0EEEE9_M_invokeERKSt9_Any_dataOc
video_reader.so:_ZNSt17_Function_handlerIFbcENSt8__detail11_AnyMatcherINSt7__cxx1112regex_traitsIcEELb0ELb0ELb1EEEE10_M_managerERSt9_Any_dataRKS8_St18_Manager_operation
video_reader.so:_ZNSt17_Function_handlerIFbcENSt8__detail11_AnyMatcherINSt7__cxx1112regex_traitsIcEELb0ELb0ELb1EEEE9_M_invokeERKSt9_Any_dataOc
video_reader.so:_ZNSt17_Function_handlerIFbcENSt8__detail11_AnyMatcherINSt7__cxx1112regex_traitsIcEELb0ELb1ELb0EEEE10_M_managerERSt9_Any_dataRKS8_St18_Manager_operation
video_reader.so:_ZNSt17_Function_handlerIFbcENSt8__detail11_AnyMatcherINSt7__cxx1112regex_traitsIcEELb0ELb1ELb0EEEE9_M_invokeERKSt9_Any_dataOc
video_reader.so:_ZNSt17_Function_handlerIFbcENSt8__detail11_AnyMatcherINSt7__cxx1112regex_traitsIcEELb0ELb1ELb1EEEE10_M_managerERSt9_Any_dataRKS8_St18_Manager_operation
video_reader.so:_ZNSt17_Function_handlerIFbcENSt8__detail11_AnyMatcherINSt7__cxx1112regex_traitsIcEELb0ELb1ELb1EEEE9_M_invokeERKSt9_Any_dataOc
video_reader.so:_ZNSt17_Function_handlerIFbcENSt8__detail11_AnyMatcherINSt7__cxx1112regex_traitsIcEELb1ELb0ELb0EEEE10_M_managerERSt9_Any_dataRKS8_St18_Manager_operation
video_reader.so:_ZNSt17_Function_handlerIFbcENSt8__detail11_AnyMatcherINSt7__cxx1112regex_traitsIcEELb1ELb0ELb0EEEE9_M_invokeERKSt9_Any_dataOc
video_reader.so:_ZNSt17_Function_handlerIFbcENSt8__detail11_AnyMatcherINSt7__cxx1112regex_traitsIcEELb1ELb0ELb1EEEE10_M_managerERSt9_Any_dataRKS8_St18_Manager_operation
video_reader.so:_ZNSt17_Function_handlerIFbcENSt8__detail11_AnyMatcherINSt7__cxx1112regex_traitsIcEELb1ELb0ELb1EEEE9_M_invokeERKSt9_Any_dataOc
video_reader.so:_ZNSt17_Function_handlerIFbcENSt8__detail11_AnyMatcherINSt7__cxx1112regex_traitsIcEELb1ELb1ELb0EEEE10_M_managerERSt9_Any_dataRKS8_St18_Manager_operation
video_reader.so:_ZNSt17_Function_handlerIFbcENSt8__detail11_AnyMatcherINSt7__cxx1112regex_traitsIcEELb1ELb1ELb0EEEE9_M_invokeERKSt9_Any_dataOc
video_reader.so:_ZNSt17_Function_handlerIFbcENSt8__detail11_AnyMatcherINSt7__cxx1112regex_traitsIcEELb1ELb1ELb1EEEE10_M_managerERSt9_Any_dataRKS8_St18_Manager_operation
video_reader.so:_ZNSt17_Function_handlerIFbcENSt8__detail11_AnyMatcherINSt7__cxx1112regex_traitsIcEELb1ELb1ELb1EEEE9_M_invokeERKSt9_Any_dataOc
video_reader.so:_ZNSt17_Function_handlerIFbcENSt8__detail12_CharMatcherINSt7__cxx1112regex_traitsIcEELb0ELb0EEEE10_M_managerERSt9_Any_dataRKS8_St18_Manager_operation
video_reader.so:_ZNSt17_Function_handlerIFbcENSt8__detail12_CharMatcherINSt7__cxx1112regex_traitsIcEELb0ELb0EEEE9_M_invokeERKSt9_Any_dataOc
video_reader.so:_ZNSt17_Function_handlerIFbcENSt8__detail12_CharMatcherINSt7__cxx1112regex_traitsIcEELb0ELb1EEEE10_M_managerERSt9_Any_dataRKS8_St18_Manager_operation
video_reader.so:_ZNSt17_Function_handlerIFbcENSt8__detail12_CharMatcherINSt7__cxx1112regex_traitsIcEELb0ELb1EEEE9_M_invokeERKSt9_Any_dataOc
video_reader.so:_ZNSt17_Function_handlerIFbcENSt8__detail12_CharMatcherINSt7__cxx1112regex_traitsIcEELb1ELb0EEEE10_M_managerERSt9_Any_dataRKS8_St18_Manager_operation
video_reader.so:_ZNSt17_Function_handlerIFbcENSt8__detail12_CharMatcherINSt7__cxx1112regex_traitsIcEELb1ELb0EEEE9_M_invokeERKSt9_Any_dataOc
video_reader.so:_ZNSt17_Function_handlerIFbcENSt8__detail12_CharMatcherINSt7__cxx1112regex_traitsIcEELb1ELb1EEEE10_M_managerERSt9_Any_dataRKS8_St18_Manager_operation
video_reader.so:_ZNSt17_Function_handlerIFbcENSt8__detail12_CharMatcherINSt7__cxx1112regex_traitsIcEELb1ELb1EEEE9_M_invokeERKSt9_Any_dataOc
video_reader.so:_ZNSt17_Function_handlerIFbcENSt8__detail15_BracketMatcherINSt7__cxx1112regex_traitsIcEELb0ELb0EEEE10_M_managerERSt9_Any_dataRKS8_St18_Manager_operation
video_reader.so:_ZNSt17_Function_handlerIFbcENSt8__detail15_BracketMatcherINSt7__cxx1112regex_traitsIcEELb0ELb0EEEE9_M_invokeERKSt9_Any_dataOc
video_reader.so:_ZNSt17_Function_handlerIFbcENSt8__detail15_BracketMatcherINSt7__cxx1112regex_traitsIcEELb0ELb1EEEE10_M_managerERSt9_Any_dataRKS8_St18_Manager_operation
video_reader.so:_ZNSt17_Function_handlerIFbcENSt8__detail15_BracketMatcherINSt7__cxx1112regex_traitsIcEELb0ELb1EEEE9_M_invokeERKSt9_Any_dataOc
video_reader.so:_ZNSt17_Function_handlerIFbcENSt8__detail15_BracketMatcherINSt7__cxx1112regex_traitsIcEELb1ELb0EEEE10_M_managerERSt9_Any_dataRKS8_St18_Manager_operation
video_reader.so:_ZNSt17_Function_handlerIFbcENSt8__detail15_BracketMatcherINSt7__cxx1112regex_traitsIcEELb1ELb0EEEE9_M_invokeERKSt9_Any_dataOc
video_reader.so:_ZNSt17_Function_handlerIFbcENSt8__detail15_BracketMatcherINSt7__cxx1112regex_traitsIcEELb1ELb1EEEE10_M_managerERSt9_Any_dataRKS8_St18_Manager_operation
video_reader.so:_ZNSt17_Function_handlerIFbcENSt8__detail15_BracketMatcherINSt7__cxx1112regex_traitsIcEELb1ELb1EEEE9_M_invokeERKSt9_Any_dataOc
video_reader.so:_ZNSt17_Function_handlerIFvRSt6vectorIN3c106IValueESaIS2_EEEZN5torch6class_IN6vision5video5VideoEE12defineMethodINS7_6detail10WrapMethodIMSB_FSt5tupleIJN2at6TensorEdEEvEEEEEPNS7_3jit8FunctionENSt7__cxx1112basic_stringIcSt11char_traitsIcESaIcEEET_SV_St16initializer_listINS7_3argEEEUlS5_E_E10_M_managerERSt9_Any_dataRKS12_St18_Manager_operation
video_reader.so:_ZNSt17_Function_handlerIFvRSt6vectorIN3c106IValueESaIS2_EEEZN5torch6class_IN6vision5video5VideoEE12defineMethodINS7_6detail10WrapMethodIMSB_FSt5tupleIJN2at6TensorEdEEvEEEEEPNS7_3jit8FunctionENSt7__cxx1112basic_stringIcSt11char_traitsIcESaIcEEET_SV_St16initializer_listINS7_3argEEEUlS5_E_E9_M_invokeERKSt9_Any_dataS5_
video_reader.so:_ZNSt17_Function_handlerIFvRSt6vectorIN3c106IValueESaIS2_EEEZN5torch6class_IN6vision5video5VideoEE12defineMethodINS7_6detail10WrapMethodIMSB_FbNSt7__cxx1112basic_stringIcSt11char_traitsIcESaIcEEEEEEEEPNS7_3jit8FunctionESL_T_SL_St16initializer_listINS7_3argEEEUlS5_E_E10_M_managerERSt9_Any_dataRKSY_St18_Manager_operation
video_reader.so:_ZNSt17_Function_handlerIFvRSt6vectorIN3c106IValueESaIS2_EEEZN5torch6class_IN6vision5video5VideoEE12defineMethodINS7_6detail10WrapMethodIMSB_FbNSt7__cxx1112basic_stringIcSt11char_traitsIcESaIcEEEEEEEEPNS7_3jit8FunctionESL_T_SL_St16initializer_listINS7_3argEEEUlS5_E_E9_M_invokeERKSt9_Any_dataS5_
video_reader.so:_ZNSt17_Function_handlerIFvRSt6vectorIN3c106IValueESaIS2_EEEZN5torch6class_IN6vision5video5VideoEE12defineMethodINS7_6detail10WrapMethodIMSB_FvdbEEEEEPNS7_3jit8FunctionENSt7__cxx1112basic_stringIcSt11char_traitsIcESaIcEEET_SR_St16initializer_listINS7_3argEEEUlS5_E_E10_M_managerERSt9_Any_dataRKSY_St18_Manager_operation
video_reader.so:_ZNSt17_Function_handlerIFvRSt6vectorIN3c106IValueESaIS2_EEEZN5torch6class_IN6vision5video5VideoEE12defineMethodINS7_6detail10WrapMethodIMSB_FvdbEEEEEPNS7_3jit8FunctionENSt7__cxx1112basic_stringIcSt11char_traitsIcESaIcEEET_SR_St16initializer_listINS7_3argEEEUlS5_E_E9_M_invokeERKSt9_Any_dataS5_
video_reader.so:_ZNSt17_Function_handlerIFvRSt6vectorIN3c106IValueESaIS2_EEEZN5torch6class_IN6vision5video5VideoEE12defineMethodINS7_6detail10WrapMethodIMSB_KFNS1_4DictINSt7__cxx1112basic_stringIcSt11char_traitsIcESaIcEEENSG_ISM_S0_IdSaIdEEEEEEvEEEEEPNS7_3jit8FunctionESM_T_SM_St16initializer_listINS7_3argEEEUlS5_E_E10_M_managerERSt9_Any_dataRKS13_St18_Manager_operation
video_reader.so:_ZNSt17_Function_handlerIFvRSt6vectorIN3c106IValueESaIS2_EEEZN5torch6class_IN6vision5video5VideoEE12defineMethodINS7_6detail10WrapMethodIMSB_KFNS1_4DictINSt7__cxx1112basic_stringIcSt11char_traitsIcESaIcEEENSG_ISM_S0_IdSaIdEEEEEEvEEEEEPNS7_3jit8FunctionESM_T_SM_St16initializer_listINS7_3argEEEUlS5_E_E9_M_invokeERKSt9_Any_dataS5_
video_reader.so:_ZNSt17_Function_handlerIFvRSt6vectorIN3c106IValueESaIS2_EEEZN5torch6class_IN6vision5video5VideoEE12defineMethodINS7_6detail10WrapMethodIMSB_KFSt5tupleIJNSt7__cxx1112basic_stringIcSt11char_traitsIcESaIcEEElEEvEEEEEPNS7_3jit8FunctionESM_T_SM_St16initializer_listINS7_3argEEEUlS5_E_E10_M_managerERSt9_Any_dataRKS10_St18_Manager_operation
video_reader.so:_ZNSt17_Function_handlerIFvRSt6vectorIN3c106IValueESaIS2_EEEZN5torch6class_IN6vision5video5VideoEE12defineMethodINS7_6detail10WrapMethodIMSB_KFSt5tupleIJNSt7__cxx1112basic_stringIcSt11char_traitsIcESaIcEEElEEvEEEEEPNS7_3jit8FunctionESM_T_SM_St16initializer_listINS7_3argEEEUlS5_E_E9_M_invokeERKSt9_Any_dataS5_
video_reader.so:_ZNSt17_Function_handlerIFvRSt6vectorIN3c106IValueESaIS2_EEEZN5torch6class_IN6vision5video5VideoEE12defineMethodIZNSC_3defIJNSt7__cxx1112basic_stringIcSt11char_traitsIcESaIcEEESK_lEEERSC_NS7_6detail5typesIvJDpT_EEESK_St16initializer_listINS7_3argEEEUlNS1_14tagged_capsuleISB_EESK_SK_lE_EEPNS7_3jit8FunctionESK_T_SK_ST_EUlS5_E_E10_M_managerERSt9_Any_dataRKS13_St18_Manager_operation
video_reader.so:_ZNSt17_Function_handlerIFvRSt6vectorIN3c106IValueESaIS2_EEEZN5torch6class_IN6vision5video5VideoEE12defineMethodIZNSC_3defIJNSt7__cxx1112basic_stringIcSt11char_traitsIcESaIcEEESK_lEEERSC_NS7_6detail5typesIvJDpT_EEESK_St16initializer_listINS7_3argEEEUlNS1_14tagged_capsuleISB_EESK_SK_lE_EEPNS7_3jit8FunctionESK_T_SK_ST_EUlS5_E_E9_M_invokeERKSt9_Any_dataS5_
video_reader.so:_ZNSt8__detail8_ScannerIcE18_M_eat_escape_ecmaEv
video_reader.so:_ZNSt8__detail8_ScannerIcE19_M_eat_escape_posixEv
video_reader.so:_ZTIFN3c104ListIN2at6TensorEEENSt7__cxx1112basic_stringIcSt11char_traitsIcESaIcEEEE
video_reader.so:_ZTIFN3c104ListIN2at6TensorEEENSt7__cxx1112basic_stringIcSt11char_traitsIcESaIcEEEdlllllllllllllllllE
video_reader.so:_ZTIFN3c104ListIN2at6TensorEEES2_E
video_reader.so:_ZTIFN3c104ListIN2at6TensorEEES2_dlllllllllllllllllE
video_reader.so:_ZTIN3c1010IndexErrorE
video_reader.so:_ZTIN3c1010SharedTypeE
video_reader.so:_ZTIN3c1010ValueErrorE
video_reader.so:_ZTIN3c1013intrusive_ptrIN6vision5video5VideoENS_6detail34intrusive_target_default_null_typeIS3_EEEE
video_reader.so:_ZTIN3c1014OperatorKernelE
video_reader.so:_ZTIN3c1014tagged_capsuleIN6vision5video5VideoEEE
video_reader.so:_ZTIN3c1019bad_optional_accessE
video_reader.so:_ZTIN3c1020intrusive_ptr_targetE
video_reader.so:_ZTIN3c104impl24DeviceGuardImplInterfaceE
video_reader.so:_ZTIN3c105ErrorE
video_reader.so:_ZTIN5torch17CustomClassHolderE
video_reader.so:_ZTIN5torch3jit8FunctionE
video_reader.so:_ZTIN6ffmpeg11AudioStreamE
video_reader.so:_ZTIN6ffmpeg11ByteStorageE
video_reader.so:_ZTIN6ffmpeg11SyncDecoder13AVByteStorageE
video_reader.so:_ZTIN6ffmpeg11SyncDecoderE
video_reader.so:_ZTIN6ffmpeg11VideoStreamE
video_reader.so:_ZTIN6ffmpeg12AudioSamplerE
video_reader.so:_ZTIN6ffmpeg12MediaDecoderE
video_reader.so:_ZTIN6ffmpeg12MediaSamplerE
video_reader.so:_ZTIN6ffmpeg12VideoSamplerE
video_reader.so:_ZTIN6ffmpeg14SubtitleStreamE
video_reader.so:_ZTIN6ffmpeg15SubtitleSamplerE
video_reader.so:_ZTIN6ffmpeg6StreamE
video_reader.so:_ZTIN6ffmpeg7DecoderE
video_reader.so:_ZTIN6ffmpeg8CCStreamE
video_reader.so:_ZTINSt13__future_base13_State_baseV27_SetterIbObEE
video_reader.so:_ZTINSt8__detail11_AnyMatcherINSt7__cxx1112regex_traitsIcEELb0ELb0ELb0EEE
video_reader.so:_ZTINSt8__detail11_AnyMatcherINSt7__cxx1112regex_traitsIcEELb0ELb0ELb1EEE
video_reader.so:_ZTINSt8__detail11_AnyMatcherINSt7__cxx1112regex_traitsIcEELb0ELb1ELb0EEE
video_reader.so:_ZTINSt8__detail11_AnyMatcherINSt7__cxx1112regex_traitsIcEELb0ELb1ELb1EEE
video_reader.so:_ZTINSt8__detail11_AnyMatcherINSt7__cxx1112regex_traitsIcEELb1ELb0ELb0EEE
video_reader.so:_ZTINSt8__detail11_AnyMatcherINSt7__cxx1112regex_traitsIcEELb1ELb0ELb1EEE
video_reader.so:_ZTINSt8__detail11_AnyMatcherINSt7__cxx1112regex_traitsIcEELb1ELb1ELb0EEE
video_reader.so:_ZTINSt8__detail11_AnyMatcherINSt7__cxx1112regex_traitsIcEELb1ELb1ELb1EEE
video_reader.so:_ZTINSt8__detail12_CharMatcherINSt7__cxx1112regex_traitsIcEELb0ELb0EEE
video_reader.so:_ZTINSt8__detail12_CharMatcherINSt7__cxx1112regex_traitsIcEELb0ELb1EEE
video_reader.so:_ZTINSt8__detail12_CharMatcherINSt7__cxx1112regex_traitsIcEELb1ELb0EEE
video_reader.so:_ZTINSt8__detail12_CharMatcherINSt7__cxx1112regex_traitsIcEELb1ELb1EEE
video_reader.so:_ZTINSt8__detail15_BracketMatcherINSt7__cxx1112regex_traitsIcEELb0ELb0EEE
video_reader.so:_ZTINSt8__detail15_BracketMatcherINSt7__cxx1112regex_traitsIcEELb0ELb1EEE
video_reader.so:_ZTINSt8__detail15_BracketMatcherINSt7__cxx1112regex_traitsIcEELb1ELb0EEE
video_reader.so:_ZTINSt8__detail15_BracketMatcherINSt7__cxx1112regex_traitsIcEELb1ELb1EEE
video_reader.so:_ZTISt11_Mutex_baseILN9__gnu_cxx12_Lock_policyE2EE
video_reader.so:_ZTISt16_Sp_counted_baseILN9__gnu_cxx12_Lock_policyE2EE
video_reader.so:_ZTISt19_Sp_make_shared_tag
video_reader.so:_ZTISt23enable_shared_from_thisIN3c1010SharedTypeEE
video_reader.so:_ZTIZN5torch6class_IN6vision5video5VideoEE12defineMethodINS_6detail10WrapMethodIMS3_FSt5tupleIJN2at6TensorEdEEvEEEEEPNS_3jit8FunctionENSt7__cxx1112basic_stringIcSt11char_traitsIcESaIcEEET_SN_St16initializer_listINS_3argEEEUlRSt6vectorIN3c106IValueESaISU_EEE_
video_reader.so:_ZTIZN5torch6class_IN6vision5video5VideoEE12defineMethodINS_6detail10WrapMethodIMS3_FbNSt7__cxx1112basic_stringIcSt11char_traitsIcESaIcEEEEEEEEPNS_3jit8FunctionESD_T_SD_St16initializer_listINS_3argEEEUlRSt6vectorIN3c106IValueESaISQ_EEE_
video_reader.so:_ZTIZN5torch6class_IN6vision5video5VideoEE12defineMethodINS_6detail10WrapMethodIMS3_FvdbEEEEEPNS_3jit8FunctionENSt7__cxx1112basic_stringIcSt11char_traitsIcESaIcEEET_SJ_St16initializer_listINS_3argEEEUlRSt6vectorIN3c106IValueESaISQ_EEE_
video_reader.so:_ZTIZN5torch6class_IN6vision5video5VideoEE12defineMethodINS_6detail10WrapMethodIMS3_KFN3c104DictINSt7__cxx1112basic_stringIcSt11char_traitsIcESaIcEEENS9_ISF_St6vectorIdSaIdEEEEEEvEEEEEPNS_3jit8FunctionESF_T_SF_St16initializer_listINS_3argEEEUlRSG_INS8_6IValueESaISV_EEE_
video_reader.so:_ZTIZN5torch6class_IN6vision5video5VideoEE12defineMethodINS_6detail10WrapMethodIMS3_KFSt5tupleIJNSt7__cxx1112basic_stringIcSt11char_traitsIcESaIcEEElEEvEEEEEPNS_3jit8FunctionESE_T_SE_St16initializer_listINS_3argEEEUlRSt6vectorIN3c106IValueESaISS_EEE_
video_reader.so:_ZTIZN5torch6class_IN6vision5video5VideoEE12defineMethodIZNS4_3defIJNSt7__cxx1112basic_stringIcSt11char_traitsIcESaIcEEESC_lEEERS4_NS_6detail5typesIvJDpT_EEESC_St16initializer_listINS_3argEEEUlN3c1014tagged_capsuleIS3_EESC_SC_lE_EEPNS_3jit8FunctionESC_T_SC_SL_EUlRSt6vectorINSM_6IValueESaISV_EEE_
video_reader.so:_ZTSFN3c104ListIN2at6TensorEEENSt7__cxx1112basic_stringIcSt11char_traitsIcESaIcEEEE
video_reader.so:_ZTSFN3c104ListIN2at6TensorEEENSt7__cxx1112basic_stringIcSt11char_traitsIcESaIcEEEdlllllllllllllllllE
video_reader.so:_ZTSFN3c104ListIN2at6TensorEEES2_E
video_reader.so:_ZTSFN3c104ListIN2at6TensorEEES2_dlllllllllllllllllE
video_reader.so:_ZTSN3c1010IndexErrorE
video_reader.so:_ZTSN3c1010SharedTypeE
video_reader.so:_ZTSN3c1010ValueErrorE
video_reader.so:_ZTSN3c1011StorageImplE
video_reader.so:_ZTSN3c1013intrusive_ptrIN6vision5video5VideoENS_6detail34intrusive_target_default_null_typeIS3_EEEE
video_reader.so:_ZTSN3c1014OperatorKernelE
video_reader.so:_ZTSN3c1014tagged_capsuleIN6vision5video5VideoEEE
video_reader.so:_ZTSN3c1015VariableVersion14VersionCounterE
video_reader.so:_ZTSN3c1017SingleElementTypeILNS_8TypeKindE6ENS_8ListTypeEEE
video_reader.so:_ZTSN3c1019bad_optional_accessE
video_reader.so:_ZTSN3c1020intrusive_ptr_targetE
video_reader.so:_ZTSN3c104impl16VirtualGuardImplE
video_reader.so:_ZTSN3c104impl24DeviceGuardImplInterfaceE
video_reader.so:_ZTSN3c104impl6detail31WrapFunctionIntoRuntimeFunctor_IPFNS_4ListIN2at6TensorEEENSt7__cxx1112basic_stringIcSt11char_traitsIcESaIcEEEES6_NS_4guts8typelist8typelistIJSC_EEEEE
video_reader.so:_ZTSN3c104impl6detail31WrapFunctionIntoRuntimeFunctor_IPFNS_4ListIN2at6TensorEEENSt7__cxx1112basic_stringIcSt11char_traitsIcESaIcEEEdlllllllllllllllllES6_NS_4guts8typelist8typelistIJSC_dlllllllllllllllllEEEEE
video_reader.so:_ZTSN3c104impl6detail31WrapFunctionIntoRuntimeFunctor_IPFNS_4ListIN2at6TensorEEES5_ES6_NS_4guts8typelist8typelistIJS5_EEEEE
video_reader.so:_ZTSN3c104impl6detail31WrapFunctionIntoRuntimeFunctor_IPFNS_4ListIN2at6TensorEEES5_dlllllllllllllllllES6_NS_4guts8typelist8typelistIJS5_dlllllllllllllllllEEEEE
video_reader.so:_ZTSN3c105ErrorE
video_reader.so:_ZTSN3c106detail8DictImplE
video_reader.so:_ZTSN3c106detail8ListImplE
video_reader.so:_ZTSN3c106ivalue5TupleE
video_reader.so:_ZTSN3c106ivalue6FutureE
video_reader.so:_ZTSN3c106ivalue6ObjectE
video_reader.so:_ZTSN3c108DictTypeE
video_reader.so:_ZTSN5torch17CustomClassHolderE
video_reader.so:_ZTSN5torch3jit17BuiltinOpFunctionE
video_reader.so:_ZTSN5torch3jit8FunctionE
video_reader.so:_ZTSN6ffmpeg11AudioStreamE
video_reader.so:_ZTSN6ffmpeg11ByteStorageE
video_reader.so:_ZTSN6ffmpeg11SyncDecoder13AVByteStorageE
video_reader.so:_ZTSN6ffmpeg11SyncDecoderE
video_reader.so:_ZTSN6ffmpeg11VideoStreamE
video_reader.so:_ZTSN6ffmpeg12AudioSamplerE
video_reader.so:_ZTSN6ffmpeg12MediaDecoderE
video_reader.so:_ZTSN6ffmpeg12MediaSamplerE
video_reader.so:_ZTSN6ffmpeg12VideoSamplerE
video_reader.so:_ZTSN6ffmpeg14SubtitleStreamE
video_reader.so:_ZTSN6ffmpeg15SubtitleSamplerE
video_reader.so:_ZTSN6ffmpeg6StreamE
video_reader.so:_ZTSN6ffmpeg7DecoderE
video_reader.so:_ZTSN6ffmpeg8CCStreamE
video_reader.so:_ZTSN6vision5video5VideoE
video_reader.so:_ZTSNSt13__future_base13_State_baseV27_SetterIbObEE
video_reader.so:_ZTSNSt13__future_base13_State_baseV2E
video_reader.so:_ZTSNSt13__future_base7_ResultIbEE
video_reader.so:_ZTSNSt8__detail11_AnyMatcherINSt7__cxx1112regex_traitsIcEELb0ELb0ELb0EEE
video_reader.so:_ZTSNSt8__detail11_AnyMatcherINSt7__cxx1112regex_traitsIcEELb0ELb0ELb1EEE
video_reader.so:_ZTSNSt8__detail11_AnyMatcherINSt7__cxx1112regex_traitsIcEELb0ELb1ELb0EEE
video_reader.so:_ZTSNSt8__detail11_AnyMatcherINSt7__cxx1112regex_traitsIcEELb0ELb1ELb1EEE
video_reader.so:_ZTSNSt8__detail11_AnyMatcherINSt7__cxx1112regex_traitsIcEELb1ELb0ELb0EEE
video_reader.so:_ZTSNSt8__detail11_AnyMatcherINSt7__cxx1112regex_traitsIcEELb1ELb0ELb1EEE
video_reader.so:_ZTSNSt8__detail11_AnyMatcherINSt7__cxx1112regex_traitsIcEELb1ELb1ELb0EEE
video_reader.so:_ZTSNSt8__detail11_AnyMatcherINSt7__cxx1112regex_traitsIcEELb1ELb1ELb1EEE
video_reader.so:_ZTSNSt8__detail12_CharMatcherINSt7__cxx1112regex_traitsIcEELb0ELb0EEE
video_reader.so:_ZTSNSt8__detail12_CharMatcherINSt7__cxx1112regex_traitsIcEELb0ELb1EEE
video_reader.so:_ZTSNSt8__detail12_CharMatcherINSt7__cxx1112regex_traitsIcEELb1ELb0EEE
video_reader.so:_ZTSNSt8__detail12_CharMatcherINSt7__cxx1112regex_traitsIcEELb1ELb1EEE
video_reader.so:_ZTSNSt8__detail15_BracketMatcherINSt7__cxx1112regex_traitsIcEELb0ELb0EEE
video_reader.so:_ZTSNSt8__detail15_BracketMatcherINSt7__cxx1112regex_traitsIcEELb0ELb1EEE
video_reader.so:_ZTSNSt8__detail15_BracketMatcherINSt7__cxx1112regex_traitsIcEELb1ELb0EEE
video_reader.so:_ZTSNSt8__detail15_BracketMatcherINSt7__cxx1112regex_traitsIcEELb1ELb1EEE
video_reader.so:_ZTSSt11_Mutex_baseILN9__gnu_cxx12_Lock_policyE2EE
video_reader.so:_ZTSSt15_Sp_counted_ptrIPN3c108DictTypeELN9__gnu_cxx12_Lock_policyE2EE
video_reader.so:_ZTSSt15_Sp_counted_ptrIPN3c108ListTypeELN9__gnu_cxx12_Lock_policyE2EE
video_reader.so:_ZTSSt15_Sp_counted_ptrIPN3c109TupleTypeELN9__gnu_cxx12_Lock_policyE2EE
video_reader.so:_ZTSSt16_Sp_counted_baseILN9__gnu_cxx12_Lock_policyE2EE
video_reader.so:_ZTSSt19_Sp_make_shared_tag
video_reader.so:_ZTSSt23_Sp_counted_ptr_inplaceINSt13__future_base13_State_baseV2ESaIvELN9__gnu_cxx12_Lock_policyE2EE
video_reader.so:_ZTSSt23_Sp_counted_ptr_inplaceINSt8__detail4_NFAINSt7__cxx1112regex_traitsIcEEEESaIvELN9__gnu_cxx12_Lock_policyE2EE
video_reader.so:_ZTSSt23enable_shared_from_thisIN3c1010SharedTypeEE
video_reader.so:_ZTSZN5torch6class_IN6vision5video5VideoEE12defineMethodINS_6detail10WrapMethodIMS3_FSt5tupleIJN2at6TensorEdEEvEEEEEPNS_3jit8FunctionENSt7__cxx1112basic_stringIcSt11char_traitsIcESaIcEEET_SN_St16initializer_listINS_3argEEEUlRSt6vectorIN3c106IValueESaISU_EEE_
video_reader.so:_ZTSZN5torch6class_IN6vision5video5VideoEE12defineMethodINS_6detail10WrapMethodIMS3_FbNSt7__cxx1112basic_stringIcSt11char_traitsIcESaIcEEEEEEEEPNS_3jit8FunctionESD_T_SD_St16initializer_listINS_3argEEEUlRSt6vectorIN3c106IValueESaISQ_EEE_
video_reader.so:_ZTSZN5torch6class_IN6vision5video5VideoEE12defineMethodINS_6detail10WrapMethodIMS3_FvdbEEEEEPNS_3jit8FunctionENSt7__cxx1112basic_stringIcSt11char_traitsIcESaIcEEET_SJ_St16initializer_listINS_3argEEEUlRSt6vectorIN3c106IValueESaISQ_EEE_
video_reader.so:_ZTSZN5torch6class_IN6vision5video5VideoEE12defineMethodINS_6detail10WrapMethodIMS3_KFN3c104DictINSt7__cxx1112basic_stringIcSt11char_traitsIcESaIcEEENS9_ISF_St6vectorIdSaIdEEEEEEvEEEEEPNS_3jit8FunctionESF_T_SF_St16initializer_listINS_3argEEEUlRSG_INS8_6IValueESaISV_EEE_
video_reader.so:_ZTSZN5torch6class_IN6vision5video5VideoEE12defineMethodINS_6detail10WrapMethodIMS3_KFSt5tupleIJNSt7__cxx1112basic_stringIcSt11char_traitsIcESaIcEEElEEvEEEEEPNS_3jit8FunctionESE_T_SE_St16initializer_listINS_3argEEEUlRSt6vectorIN3c106IValueESaISS_EEE_
video_reader.so:_ZTSZN5torch6class_IN6vision5video5VideoEE12defineMethodIZNS4_3defIJNSt7__cxx1112basic_stringIcSt11char_traitsIcESaIcEEESC_lEEERS4_NS_6detail5typesIvJDpT_EEESC_St16initializer_listINS_3argEEEUlN3c1014tagged_capsuleIS3_EESC_SC_lE_EEPNS_3jit8FunctionESC_T_SC_SL_EUlRSt6vectorINSM_6IValueESaISV_EEE_
video_reader.so:_ZTVN6ffmpeg11AudioStreamE
video_reader.so:_ZTVN6ffmpeg11SyncDecoder13AVByteStorageE
video_reader.so:_ZTVN6ffmpeg11SyncDecoderE
video_reader.so:_ZTVN6ffmpeg11VideoStreamE
video_reader.so:_ZTVN6ffmpeg12AudioSamplerE
video_reader.so:_ZTVN6ffmpeg12VideoSamplerE
video_reader.so:_ZTVN6ffmpeg14SubtitleStreamE
video_reader.so:_ZTVN6ffmpeg15SubtitleSamplerE
video_reader.so:_ZTVN6ffmpeg6StreamE
video_reader.so:_ZTVN6ffmpeg7DecoderE
video_reader.so:_ZTVN6ffmpeg8CCStreamE
video_reader.so:_ZZN3c1018getCustomClassTypeINS_13intrusive_ptrIN6vision5video5VideoENS_6detail34intrusive_target_default_null_typeIS4_EEEEEERKSt10shared_ptrINS_9ClassTypeEEvE5cache
video_reader.so:_ZZN3c1018getCustomClassTypeINS_14tagged_capsuleIN6vision5video5VideoEEEEERKSt10shared_ptrINS_9ClassTypeEEvE5cache
video_reader.so:_ZZN3c106detail11getTypePtr_INS_4DictINSt7__cxx1112basic_stringIcSt11char_traitsIcESaIcEEENS2_IS8_St6vectorIdSaIdEEEEEEE4callEvE4type
video_reader.so:_ZZN3c106detail11getTypePtr_INS_4DictINSt7__cxx1112basic_stringIcSt11char_traitsIcESaIcEEESt6vectorIdSaIdEEEEE4callEvE4type
video_reader.so:_ZZN3c106detail11getTypePtr_INS_4ListIN2at6TensorEEEE4callEvE4type
video_reader.so:_ZZN3c106detail11getTypePtr_ISt5tupleIJN2at6TensorEdEEE4callEvE4type
video_reader.so:_ZZN3c106detail11getTypePtr_ISt5tupleIJNSt7__cxx1112basic_stringIcSt11char_traitsIcESaIcEEElEEE4callEvE4type
video_reader.so:_ZZN3c106detail11getTypePtr_ISt6vectorIdSaIdEEE4callEvE4type
video_reader.so:_ZZN6ffmpeg10Serializer13serializeItemEPhmRmRK10AVSubtitleE8vlocal__
video_reader.so:_ZZN6ffmpeg10Serializer13serializeItemI14AVSubtitleTypeEEbPhmRmRKT_E8vlocal__
video_reader.so:_ZZN6ffmpeg10Serializer13serializeItemIiEEbPhmRmRKT_E8vlocal__
video_reader.so:_ZZN6ffmpeg10Serializer13serializeItemIjEEbPhmRmRKT_E8vlocal__
video_reader.so:_ZZN6ffmpeg10Serializer13serializeItemIlEEbPhmRmRKT_E8vlocal__
video_reader.so:_ZZN6ffmpeg10Serializer13serializeItemImEEbPhmRmRKT_E8vlocal__
video_reader.so:_ZZN6ffmpeg10Serializer13serializeItemItEEbPhmRmRKT_E8vlocal__
video_reader.so:_ZZNKSt7__cxx1112regex_traitsIcE16lookup_classnameIPKcEENS1_10_RegexMaskET_S6_bE12__classnames
video_reader.so:_ZZNKSt7__cxx1112regex_traitsIcE18lookup_collatenameIPKcEENS_12basic_stringIcSt11char_traitsIcESaIcEEET_SA_E14__collatenames
video_reader.so:_ZZNKSt8__detail11_AnyMatcherINSt7__cxx1112regex_traitsIcEELb0ELb0ELb0EEclEcE5__nul
video_reader.so:_ZZNKSt8__detail11_AnyMatcherINSt7__cxx1112regex_traitsIcEELb0ELb0ELb1EEclEcE5__nul
video_reader.so:_ZZNKSt8__detail11_AnyMatcherINSt7__cxx1112regex_traitsIcEELb0ELb1ELb0EEclEcE5__nul
video_reader.so:_ZZNKSt8__detail11_AnyMatcherINSt7__cxx1112regex_traitsIcEELb0ELb1ELb1EEclEcE5__nul
video_reader.so:_ZZNKSt8__detail9_ExecutorIN9__gnu_cxx17__normal_iteratorIPKcNSt7__cxx1112basic_stringIcSt11char_traitsIcESaIcEEEEESaINS5_9sub_matchISB_EEENS5_12regex_traitsIcEELb0EE10_M_is_wordEcE3__s
video_reader.so:_ZZNKSt8__detail9_ExecutorIN9__gnu_cxx17__normal_iteratorIPKcNSt7__cxx1112basic_stringIcSt11char_traitsIcESaIcEEEEESaINS5_9sub_matchISB_EEENS5_12regex_traitsIcEELb1EE10_M_is_wordEcE3__s
video_reader.so:_ZZNSt19_Sp_make_shared_tag5_S_tiEvE5__tag
video_reader.so:_ZZNSt9once_flag18_Prepare_executionC4IZSt9call_onceIMNSt13__future_base13_State_baseV2EFvPSt8functionIFSt10unique_ptrINS3_12_Result_baseENS7_8_DeleterEEvEEPbEJPS4_SC_SD_EEvRS_OT_DpOT0_EUlvE_EERSI_ENUlvE_4_FUNEv
video_reader.so:__bss_start
video_reader.so:_edata
video_reader.so:_end
