baloosearch.so:kdemain
baloosearch.so:qt_plugin_instance
baloosearch.so:qt_plugin_query_metadata_v2
baloosearchmodule.so:qt_plugin_instance
baloosearchmodule.so:qt_plugin_query_metadata_v2
libKF6Baloo.so.6:_ZN13BalooSettings11itemChangedEy
libKF6Baloo.so.6:_ZN13BalooSettings11qt_metacallEN11QMetaObject4CallEiPPv
libKF6Baloo.so.6:_ZN13BalooSettings11qt_metacastEPKc
libKF6Baloo.so.6:_ZN13BalooSettings14foldersChangedEv
libKF6Baloo.so.6:_ZN13BalooSettings16dbVersionChangedEv
libKF6Baloo.so.6:_ZN13BalooSettings16staticMetaObjectE
libKF6Baloo.so.6:_ZN13BalooSettings22excludedFiltersChangedEv
libKF6Baloo.so.6:_ZN13BalooSettings22excludedFoldersChangedEv
libKF6Baloo.so.6:_ZN13BalooSettings22indexingEnabledChangedEv
libKF6Baloo.so.6:_ZN13BalooSettings24excludedMimetypesChangedEv
libKF6Baloo.so.6:_ZN13BalooSettings24onlyBasicIndexingChangedEv
libKF6Baloo.so.6:_ZN13BalooSettings25indexHiddenFoldersChangedEv
libKF6Baloo.so.6:_ZN13BalooSettings27disableInitialUpdateChangedEv
libKF6Baloo.so.6:_ZN13BalooSettings29excludedFiltersVersionChangedEv
libKF6Baloo.so.6:_ZN13BalooSettingsC1EP7QObject
libKF6Baloo.so.6:_ZN13BalooSettingsC2EP7QObject
libKF6Baloo.so.6:_ZN13BalooSettingsD0Ev
libKF6Baloo.so.6:_ZN13BalooSettingsD1Ev
libKF6Baloo.so.6:_ZN13BalooSettingsD2Ev
libKF6Baloo.so.6:_ZN5Baloo10TagListJob11qt_metacallEN11QMetaObject4CallEiPPv
libKF6Baloo.so.6:_ZN5Baloo10TagListJob11qt_metacastEPKc
libKF6Baloo.so.6:_ZN5Baloo10TagListJob16staticMetaObjectE
libKF6Baloo.so.6:_ZN5Baloo10TagListJob4tagsEv
libKF6Baloo.so.6:_ZN5Baloo10TagListJob5startEv
libKF6Baloo.so.6:_ZN5Baloo10TagListJobC1EP7QObject
libKF6Baloo.so.6:_ZN5Baloo10TagListJobC2EP7QObject
libKF6Baloo.so.6:_ZN5Baloo10TagListJobD0Ev
libKF6Baloo.so.6:_ZN5Baloo10TagListJobD1Ev
libKF6Baloo.so.6:_ZN5Baloo10TagListJobD2Ev
libKF6Baloo.so.6:_ZN5Baloo11FileMonitor11qt_metacallEN11QMetaObject4CallEiPPv
libKF6Baloo.so.6:_ZN5Baloo11FileMonitor11qt_metacastEPKc
libKF6Baloo.so.6:_ZN5Baloo11FileMonitor16staticMetaObjectE
libKF6Baloo.so.6:_ZN5Baloo11FileMonitor19fileMetaDataChangedERK7QString
libKF6Baloo.so.6:_ZN5Baloo11FileMonitor5clearEv
libKF6Baloo.so.6:_ZN5Baloo11FileMonitor7addFileERK4QUrl
libKF6Baloo.so.6:_ZN5Baloo11FileMonitor7addFileERK7QString
libKF6Baloo.so.6:_ZN5Baloo11FileMonitor8setFilesERK5QListI7QStringE
libKF6Baloo.so.6:_ZN5Baloo11FileMonitorC1EP7QObject
libKF6Baloo.so.6:_ZN5Baloo11FileMonitorC2EP7QObject
libKF6Baloo.so.6:_ZN5Baloo11FileMonitorD0Ev
libKF6Baloo.so.6:_ZN5Baloo11FileMonitorD1Ev
libKF6Baloo.so.6:_ZN5Baloo11FileMonitorD2Ev
libKF6Baloo.so.6:_ZN5Baloo13IndexerConfig17setExcludeFiltersERK5QListI7QStringE
libKF6Baloo.so.6:_ZN5Baloo13IndexerConfig17setExcludeFoldersERK5QListI7QStringE
libKF6Baloo.so.6:_ZN5Baloo13IndexerConfig17setIncludeFoldersERK5QListI7QStringE
libKF6Baloo.so.6:_ZN5Baloo13IndexerConfig19setExcludeMimetypesERK5QListI7QStringE
libKF6Baloo.so.6:_ZN5Baloo13IndexerConfig20setOnlyBasicIndexingEb
libKF6Baloo.so.6:_ZN5Baloo13IndexerConfigC1Ev
libKF6Baloo.so.6:_ZN5Baloo13IndexerConfigC2Ev
libKF6Baloo.so.6:_ZN5Baloo13IndexerConfigD1Ev
libKF6Baloo.so.6:_ZN5Baloo13IndexerConfigD2Ev
libKF6Baloo.so.6:_ZN5Baloo13QueryRunnable11qt_metacallEN11QMetaObject4CallEiPPv
libKF6Baloo.so.6:_ZN5Baloo13QueryRunnable11qt_metacastEPKc
libKF6Baloo.so.6:_ZN5Baloo13QueryRunnable11queryResultEPS0_RK7QString
libKF6Baloo.so.6:_ZN5Baloo13QueryRunnable16staticMetaObjectE
libKF6Baloo.so.6:_ZN5Baloo13QueryRunnable3runEv
libKF6Baloo.so.6:_ZN5Baloo13QueryRunnable4stopEv
libKF6Baloo.so.6:_ZN5Baloo13QueryRunnable8finishedEPS0_
libKF6Baloo.so.6:_ZN5Baloo13QueryRunnableC1ERKNS_5QueryEP7QObject
libKF6Baloo.so.6:_ZN5Baloo13QueryRunnableC2ERKNS_5QueryEP7QObject
libKF6Baloo.so.6:_ZN5Baloo13QueryRunnableD0Ev
libKF6Baloo.so.6:_ZN5Baloo13QueryRunnableD1Ev
libKF6Baloo.so.6:_ZN5Baloo13QueryRunnableD2Ev
libKF6Baloo.so.6:_ZN5Baloo14ResultIterator4nextEv
libKF6Baloo.so.6:_ZN5Baloo14ResultIteratorC1EOS0_
libKF6Baloo.so.6:_ZN5Baloo14ResultIteratorC2EOS0_
libKF6Baloo.so.6:_ZN5Baloo14ResultIteratorD1Ev
libKF6Baloo.so.6:_ZN5Baloo14ResultIteratorD2Ev
libKF6Baloo.so.6:_ZN5Baloo4File4loadERK7QString
libKF6Baloo.so.6:_ZN5Baloo4File4loadEv
libKF6Baloo.so.6:_ZN5Baloo4FileC1ERK7QString
libKF6Baloo.so.6:_ZN5Baloo4FileC1ERKS0_
libKF6Baloo.so.6:_ZN5Baloo4FileC1Ev
libKF6Baloo.so.6:_ZN5Baloo4FileC2ERK7QString
libKF6Baloo.so.6:_ZN5Baloo4FileC2ERKS0_
libKF6Baloo.so.6:_ZN5Baloo4FileC2Ev
libKF6Baloo.so.6:_ZN5Baloo4FileD1Ev
libKF6Baloo.so.6:_ZN5Baloo4FileD2Ev
libKF6Baloo.so.6:_ZN5Baloo4FileaSERKS0_
libKF6Baloo.so.6:_ZN5Baloo5Query11toSearchUrlERK7QString
libKF6Baloo.so.6:_ZN5Baloo5Query13fromSearchUrlERK4QUrl
libKF6Baloo.so.6:_ZN5Baloo5Query13setDateFilterEiii
libKF6Baloo.so.6:_ZN5Baloo5Query15setSearchStringERK7QString
libKF6Baloo.so.6:_ZN5Baloo5Query16setIncludeFolderERK7QString
libKF6Baloo.so.6:_ZN5Baloo5Query16setSortingOptionENS0_13SortingOptionE
libKF6Baloo.so.6:_ZN5Baloo5Query17titleFromQueryUrlERK4QUrl
libKF6Baloo.so.6:_ZN5Baloo5Query4execEv
libKF6Baloo.so.6:_ZN5Baloo5Query6toJSONEv
libKF6Baloo.so.6:_ZN5Baloo5Query7addTypeERK7QString
libKF6Baloo.so.6:_ZN5Baloo5Query7setTypeERK7QString
libKF6Baloo.so.6:_ZN5Baloo5Query8addTypesERK5QListI7QStringE
libKF6Baloo.so.6:_ZN5Baloo5Query8fromJSONERK10QByteArray
libKF6Baloo.so.6:_ZN5Baloo5Query8setLimitEj
libKF6Baloo.so.6:_ZN5Baloo5Query8setTypesERK5QListI7QStringE
libKF6Baloo.so.6:_ZN5Baloo5Query9setOffsetEj
libKF6Baloo.so.6:_ZN5Baloo5QueryC1ERKS0_
libKF6Baloo.so.6:_ZN5Baloo5QueryC1Ev
libKF6Baloo.so.6:_ZN5Baloo5QueryC2ERKS0_
libKF6Baloo.so.6:_ZN5Baloo5QueryC2Ev
libKF6Baloo.so.6:_ZN5Baloo5QueryD1Ev
libKF6Baloo.so.6:_ZN5Baloo5QueryD2Ev
libKF6Baloo.so.6:_ZN5Baloo5QueryaSERKS0_
libKF6Baloo.so.6:_ZNK13BalooSettings10metaObjectEv
libKF6Baloo.so.6:_ZNK13BalooSettings26defaultFoldersValue_helperEv
libKF6Baloo.so.6:_ZNK13BalooSettings28defaultDbVersionValue_helperEv
libKF6Baloo.so.6:_ZNK13BalooSettings34defaultExcludedFiltersValue_helperEv
libKF6Baloo.so.6:_ZNK13BalooSettings34defaultExcludedFoldersValue_helperEv
libKF6Baloo.so.6:_ZNK13BalooSettings34defaultIndexingEnabledValue_helperEv
libKF6Baloo.so.6:_ZNK13BalooSettings36defaultExcludedMimetypesValue_helperEv
libKF6Baloo.so.6:_ZNK13BalooSettings36defaultOnlyBasicIndexingValue_helperEv
libKF6Baloo.so.6:_ZNK13BalooSettings37defaultIndexHiddenFoldersValue_helperEv
libKF6Baloo.so.6:_ZNK13BalooSettings39defaultDisableInitialUpdateValue_helperEv
libKF6Baloo.so.6:_ZNK13BalooSettings41defaultExcludedFiltersVersionValue_helperEv
libKF6Baloo.so.6:_ZNK5Baloo10TagListJob10metaObjectEv
libKF6Baloo.so.6:_ZNK5Baloo11FileMonitor10metaObjectEv
libKF6Baloo.so.6:_ZNK5Baloo11FileMonitor5filesEv
libKF6Baloo.so.6:_ZNK5Baloo13IndexerConfig11indexHiddenEv
libKF6Baloo.so.6:_ZNK5Baloo13IndexerConfig13canBeSearchedERK7QString
libKF6Baloo.so.6:_ZNK5Baloo13IndexerConfig14excludeFiltersEv
libKF6Baloo.so.6:_ZNK5Baloo13IndexerConfig14excludeFoldersEv
libKF6Baloo.so.6:_ZNK5Baloo13IndexerConfig14includeFoldersEv
libKF6Baloo.so.6:_ZNK5Baloo13IndexerConfig14setIndexHiddenEb
libKF6Baloo.so.6:_ZNK5Baloo13IndexerConfig15shouldBeIndexedERK7QString
libKF6Baloo.so.6:_ZNK5Baloo13IndexerConfig16excludeMimetypesEv
libKF6Baloo.so.6:_ZNK5Baloo13IndexerConfig17onlyBasicIndexingEv
libKF6Baloo.so.6:_ZNK5Baloo13IndexerConfig19fileIndexingEnabledEv
libKF6Baloo.so.6:_ZNK5Baloo13IndexerConfig22setFileIndexingEnabledEb
libKF6Baloo.so.6:_ZNK5Baloo13IndexerConfig7refreshEv
libKF6Baloo.so.6:_ZNK5Baloo13QueryRunnable10metaObjectEv
libKF6Baloo.so.6:_ZNK5Baloo14ResultIterator10documentIdEv
libKF6Baloo.so.6:_ZNK5Baloo14ResultIterator8filePathEv
libKF6Baloo.so.6:_ZNK5Baloo4File10propertiesEv
libKF6Baloo.so.6:_ZNK5Baloo4File4pathEv
libKF6Baloo.so.6:_ZNK5Baloo4File8propertyEN13KFileMetaData8Property8PropertyE
libKF6Baloo.so.6:_ZNK5Baloo5Query10yearFilterEv
libKF6Baloo.so.6:_ZNK5Baloo5Query11monthFilterEv
libKF6Baloo.so.6:_ZNK5Baloo5Query12searchStringEv
libKF6Baloo.so.6:_ZNK5Baloo5Query13includeFolderEv
libKF6Baloo.so.6:_ZNK5Baloo5Query13sortingOptionEv
libKF6Baloo.so.6:_ZNK5Baloo5Query5limitEv
libKF6Baloo.so.6:_ZNK5Baloo5Query5typesEv
libKF6Baloo.so.6:_ZNK5Baloo5Query6offsetEv
libKF6Baloo.so.6:_ZNK5Baloo5Query9dayFilterEv
libKF6Baloo.so.6:_ZNK5Baloo5QueryeqERKS0_
libKF6Baloo.so.6:_ZNK5Baloo5QueryneERKS0_
libKF6Baloo.so.6:_ZTI13BalooSettings
libKF6Baloo.so.6:_ZTIN5Baloo10TagListJobE
libKF6Baloo.so.6:_ZTIN5Baloo11FileMonitorE
libKF6Baloo.so.6:_ZTIN5Baloo13QueryRunnableE
libKF6Baloo.so.6:_ZTS13BalooSettings
libKF6Baloo.so.6:_ZTSN5Baloo10TagListJobE
libKF6Baloo.so.6:_ZTSN5Baloo11FileMonitorE
libKF6Baloo.so.6:_ZTSN5Baloo13QueryRunnableE
libKF6Baloo.so.6:_ZTV13BalooSettings
libKF6Baloo.so.6:_ZTVN5Baloo10TagListJobE
libKF6Baloo.so.6:_ZTVN5Baloo11FileMonitorE
libKF6Baloo.so.6:_ZTVN5Baloo13QueryRunnableE
libKF6Baloo.so.6:_ZThn16_N5Baloo13QueryRunnable3runEv
libKF6Baloo.so.6:_ZThn16_N5Baloo13QueryRunnableD0Ev
libKF6Baloo.so.6:_ZThn16_N5Baloo13QueryRunnableD1Ev
libKF6BalooEngine.so.6:_ZN5Baloo10DocumentDB3delEy
libKF6BalooEngine.so.6:_ZN5Baloo10DocumentDB3getEy
libKF6BalooEngine.so.6:_ZN5Baloo10DocumentDB3putEyRK5QListI10QByteArrayE
libKF6BalooEngine.so.6:_ZN5Baloo10DocumentDB4openEPKcP7MDB_txn
libKF6BalooEngine.so.6:_ZN5Baloo10DocumentDB4sizeEv
libKF6BalooEngine.so.6:_ZN5Baloo10DocumentDB6createEPKcP7MDB_txn
libKF6BalooEngine.so.6:_ZN5Baloo10DocumentDB8containsEy
libKF6BalooEngine.so.6:_ZN5Baloo10DocumentDBC1EjP7MDB_txn
libKF6BalooEngine.so.6:_ZN5Baloo10DocumentDBC2EjP7MDB_txn
libKF6BalooEngine.so.6:_ZN5Baloo10DocumentDBD1Ev
libKF6BalooEngine.so.6:_ZN5Baloo10DocumentDBD2Ev
libKF6BalooEngine.so.6:_ZN5Baloo10PositionDB3delERK10QByteArray
libKF6BalooEngine.so.6:_ZN5Baloo10PositionDB3getERK10QByteArray
libKF6BalooEngine.so.6:_ZN5Baloo10PositionDB3putERK10QByteArrayRK5QListINS_12PositionInfoEE
libKF6BalooEngine.so.6:_ZN5Baloo10PositionDB4iterERK10QByteArray
libKF6BalooEngine.so.6:_ZN5Baloo10PositionDB4openEP7MDB_txn
libKF6BalooEngine.so.6:_ZN5Baloo10PositionDB6createEP7MDB_txn
libKF6BalooEngine.so.6:_ZN5Baloo10PositionDBC1EjP7MDB_txn
libKF6BalooEngine.so.6:_ZN5Baloo10PositionDBC2EjP7MDB_txn
libKF6BalooEngine.so.6:_ZN5Baloo10PositionDBD1Ev
libKF6BalooEngine.so.6:_ZN5Baloo10PositionDBD2Ev
libKF6BalooEngine.so.6:_ZN5Baloo11EngineQueryC1ERK10QByteArrayNS0_9OperationE
libKF6BalooEngine.so.6:_ZN5Baloo11EngineQueryC1ERK5QListIS0_E
libKF6BalooEngine.so.6:_ZN5Baloo11EngineQueryC1Ev
libKF6BalooEngine.so.6:_ZN5Baloo11EngineQueryC2ERK10QByteArrayNS0_9OperationE
libKF6BalooEngine.so.6:_ZN5Baloo11EngineQueryC2ERK5QListIS0_E
libKF6BalooEngine.so.6:_ZN5Baloo11EngineQueryC2Ev
libKF6BalooEngine.so.6:_ZN5Baloo11Transaction11addDocumentERKNS_8DocumentE
libKF6BalooEngine.so.6:_ZN5Baloo11Transaction11checkFsTreeEv
libKF6BalooEngine.so.6:_ZN5Baloo11Transaction11setPhaseOneEy
libKF6BalooEngine.so.6:_ZN5Baloo11Transaction12removeFailedEy
libKF6BalooEngine.so.6:_ZN5Baloo11Transaction14removeDocumentEy
libKF6BalooEngine.so.6:_ZN5Baloo11Transaction14removePhaseOneEy
libKF6BalooEngine.so.6:_ZN5Baloo11Transaction15replaceDocumentERKNS_8DocumentE6QFlagsINS_17DocumentOperationEE
libKF6BalooEngine.so.6:_ZN5Baloo11Transaction17removeRecursivelyEy
libKF6BalooEngine.so.6:_ZN5Baloo11Transaction23checkPostingDbinTermsDbEv
libKF6BalooEngine.so.6:_ZN5Baloo11Transaction23checkTermsDbinPostingDbEv
libKF6BalooEngine.so.6:_ZN5Baloo11Transaction4initENS0_15TransactionTypeE
libKF6BalooEngine.so.6:_ZN5Baloo11Transaction5abortEv
libKF6BalooEngine.so.6:_ZN5Baloo11Transaction5resetENS0_15TransactionTypeE
libKF6BalooEngine.so.6:_ZN5Baloo11Transaction6commitEv
libKF6BalooEngine.so.6:_ZN5Baloo11Transaction6dbSizeEv
libKF6BalooEngine.so.6:_ZN5Baloo11Transaction9addFailedEy
libKF6BalooEngine.so.6:_ZN5Baloo11TransactionC1EPNS_8DatabaseENS0_15TransactionTypeE
libKF6BalooEngine.so.6:_ZN5Baloo11TransactionC1ERKNS_8DatabaseENS0_15TransactionTypeE
libKF6BalooEngine.so.6:_ZN5Baloo11TransactionC2EPNS_8DatabaseENS0_15TransactionTypeE
libKF6BalooEngine.so.6:_ZN5Baloo11TransactionC2ERKNS_8DatabaseENS0_15TransactionTypeE
libKF6BalooEngine.so.6:_ZN5Baloo11TransactionD1Ev
libKF6BalooEngine.so.6:_ZN5Baloo11TransactionD2Ev
libKF6BalooEngine.so.6:_ZN5Baloo11stateStringENS_12IndexerStateE
libKF6BalooEngine.so.6:_ZN5Baloo11stateStringEi
libKF6BalooEngine.so.6:_ZN5Baloo12DocumentIdDB10fetchItemsEi
libKF6BalooEngine.so.6:_ZN5Baloo12DocumentIdDB3delEy
libKF6BalooEngine.so.6:_ZN5Baloo12DocumentIdDB3putEy
libKF6BalooEngine.so.6:_ZN5Baloo12DocumentIdDB4openEPKcP7MDB_txn
libKF6BalooEngine.so.6:_ZN5Baloo12DocumentIdDB4sizeEv
libKF6BalooEngine.so.6:_ZN5Baloo12DocumentIdDB6createEPKcP7MDB_txn
libKF6BalooEngine.so.6:_ZN5Baloo12DocumentIdDB8containsEy
libKF6BalooEngine.so.6:_ZN5Baloo12DocumentIdDBC1EjP7MDB_txn
libKF6BalooEngine.so.6:_ZN5Baloo12DocumentIdDBC2EjP7MDB_txn
libKF6BalooEngine.so.6:_ZN5Baloo12DocumentIdDBD1Ev
libKF6BalooEngine.so.6:_ZN5Baloo12DocumentIdDBD2Ev
libKF6BalooEngine.so.6:_ZN5Baloo12IdFilenameDB3delEy
libKF6BalooEngine.so.6:_ZN5Baloo12IdFilenameDB3getEy
libKF6BalooEngine.so.6:_ZN5Baloo12IdFilenameDB3getEyRNS0_8FilePathE
libKF6BalooEngine.so.6:_ZN5Baloo12IdFilenameDB3putEyRKNS0_8FilePathE
libKF6BalooEngine.so.6:_ZN5Baloo12IdFilenameDB4openEP7MDB_txn
libKF6BalooEngine.so.6:_ZN5Baloo12IdFilenameDB6createEP7MDB_txn
libKF6BalooEngine.so.6:_ZN5Baloo12IdFilenameDB8containsEy
libKF6BalooEngine.so.6:_ZN5Baloo12IdFilenameDBC1EjP7MDB_txn
libKF6BalooEngine.so.6:_ZN5Baloo12IdFilenameDBC2EjP7MDB_txn
libKF6BalooEngine.so.6:_ZN5Baloo12IdFilenameDBD1Ev
libKF6BalooEngine.so.6:_ZN5Baloo12IdFilenameDBD2Ev
libKF6BalooEngine.so.6:_ZN5Baloo13DocumentUrlDB3delEy
libKF6BalooEngine.so.6:_ZN5Baloo13DocumentUrlDB3putEyyRK10QByteArray
libKF6BalooEngine.so.6:_ZN5Baloo13DocumentUrlDB7addPathERK10QByteArray
libKF6BalooEngine.so.6:_ZN5Baloo13DocumentUrlDB9updateUrlEyyRK10QByteArray
libKF6BalooEngine.so.6:_ZN5Baloo13DocumentUrlDBC1EjjP7MDB_txn
libKF6BalooEngine.so.6:_ZN5Baloo13DocumentUrlDBC2EjjP7MDB_txn
libKF6BalooEngine.so.6:_ZN5Baloo13DocumentUrlDBD1Ev
libKF6BalooEngine.so.6:_ZN5Baloo13DocumentUrlDBD2Ev
libKF6BalooEngine.so.6:_ZN5Baloo13TermGenerator11setPositionEi
libKF6BalooEngine.so.6:_ZN5Baloo13TermGenerator14indexXattrTextERK7QStringRK10QByteArray
libKF6BalooEngine.so.6:_ZN5Baloo13TermGenerator17indexFileNameTextERK7QString
libKF6BalooEngine.so.6:_ZN5Baloo13TermGenerator8termListERK7QString
libKF6BalooEngine.so.6:_ZN5Baloo13TermGenerator9indexTextERK7QString
libKF6BalooEngine.so.6:_ZN5Baloo13TermGenerator9indexTextERK7QStringRK10QByteArray
libKF6BalooEngine.so.6:_ZN5Baloo13TermGeneratorC1ERNS_8DocumentE
libKF6BalooEngine.so.6:_ZN5Baloo13TermGeneratorC2ERNS_8DocumentE
libKF6BalooEngine.so.6:_ZN5Baloo14DocumentDataDB3delEy
libKF6BalooEngine.so.6:_ZN5Baloo14DocumentDataDB3getEy
libKF6BalooEngine.so.6:_ZN5Baloo14DocumentDataDB3putEyRK10QByteArray
libKF6BalooEngine.so.6:_ZN5Baloo14DocumentDataDB4openEP7MDB_txn
libKF6BalooEngine.so.6:_ZN5Baloo14DocumentDataDB6createEP7MDB_txn
libKF6BalooEngine.so.6:_ZN5Baloo14DocumentDataDB8containsEy
libKF6BalooEngine.so.6:_ZN5Baloo14DocumentDataDBC1EjP7MDB_txn
libKF6BalooEngine.so.6:_ZN5Baloo14DocumentDataDBC2EjP7MDB_txn
libKF6BalooEngine.so.6:_ZN5Baloo14DocumentDataDBD1Ev
libKF6BalooEngine.so.6:_ZN5Baloo14DocumentDataDBD2Ev
libKF6BalooEngine.so.6:_ZN5Baloo14DocumentTimeDB3delEy
libKF6BalooEngine.so.6:_ZN5Baloo14DocumentTimeDB3getEy
libKF6BalooEngine.so.6:_ZN5Baloo14DocumentTimeDB3putEyRKNS0_8TimeInfoE
libKF6BalooEngine.so.6:_ZN5Baloo14DocumentTimeDB4openEP7MDB_txn
libKF6BalooEngine.so.6:_ZN5Baloo14DocumentTimeDB6createEP7MDB_txn
libKF6BalooEngine.so.6:_ZN5Baloo14DocumentTimeDB8containsEy
libKF6BalooEngine.so.6:_ZN5Baloo14DocumentTimeDBC1EjP7MDB_txn
libKF6BalooEngine.so.6:_ZN5Baloo14DocumentTimeDBC2EjP7MDB_txn
libKF6BalooEngine.so.6:_ZN5Baloo14DocumentTimeDBD1Ev
libKF6BalooEngine.so.6:_ZN5Baloo14DocumentTimeDBD2Ev
libKF6BalooEngine.so.6:_ZN5Baloo15PostingIterator6skipToEy
libKF6BalooEngine.so.6:_ZN5Baloo15fileIndexDbPathEv
libKF6BalooEngine.so.6:_ZN5Baloo16WriteTransaction11addDocumentERKNS_8DocumentE
libKF6BalooEngine.so.6:_ZN5Baloo16WriteTransaction14removeDocumentEy
libKF6BalooEngine.so.6:_ZN5Baloo16WriteTransaction15replaceDocumentERKNS_8DocumentE6QFlagsINS_17DocumentOperationEE
libKF6BalooEngine.so.6:_ZN5Baloo16WriteTransaction17removeRecursivelyEy
libKF6BalooEngine.so.6:_ZN5Baloo16WriteTransaction17removeRecursivelyEyRKSt8functionIFbRK10QByteArrayEE
libKF6BalooEngine.so.6:_ZN5Baloo16WriteTransaction6commitEv
libKF6BalooEngine.so.6:_ZN5Baloo16staticMetaObjectE
libKF6BalooEngine.so.6:_ZN5Baloo17OrPostingIterator4nextEv
libKF6BalooEngine.so.6:_ZN5Baloo17OrPostingIterator6skipToEy
libKF6BalooEngine.so.6:_ZN5Baloo17OrPostingIteratorC1EOSt6vectorISt10unique_ptrINS_15PostingIteratorESt14default_deleteIS3_EESaIS6_EE
libKF6BalooEngine.so.6:_ZN5Baloo17OrPostingIteratorC2EOSt6vectorISt10unique_ptrINS_15PostingIteratorESt14default_deleteIS3_EESaIS6_EE
libKF6BalooEngine.so.6:_ZN5Baloo17OrPostingIteratorD0Ev
libKF6BalooEngine.so.6:_ZN5Baloo17OrPostingIteratorD1Ev
libKF6BalooEngine.so.6:_ZN5Baloo17OrPostingIteratorD2Ev
libKF6BalooEngine.so.6:_ZN5Baloo17PhraseAndIterator4nextEv
libKF6BalooEngine.so.6:_ZN5Baloo17PhraseAndIterator6skipToEy
libKF6BalooEngine.so.6:_ZN5Baloo17PhraseAndIteratorC1EOSt6vectorISt10unique_ptrINS_26VectorPositionInfoIteratorESt14default_deleteIS3_EESaIS6_EE
libKF6BalooEngine.so.6:_ZN5Baloo17PhraseAndIteratorC2EOSt6vectorISt10unique_ptrINS_26VectorPositionInfoIteratorESt14default_deleteIS3_EESaIS6_EE
libKF6BalooEngine.so.6:_ZN5Baloo17PhraseAndIteratorD0Ev
libKF6BalooEngine.so.6:_ZN5Baloo17PhraseAndIteratorD1Ev
libKF6BalooEngine.so.6:_ZN5Baloo17PhraseAndIteratorD2Ev
libKF6BalooEngine.so.6:_ZN5Baloo18AndPostingIterator4nextEv
libKF6BalooEngine.so.6:_ZN5Baloo18AndPostingIterator6skipToEy
libKF6BalooEngine.so.6:_ZN5Baloo18AndPostingIteratorC1EOSt6vectorISt10unique_ptrINS_15PostingIteratorESt14default_deleteIS3_EESaIS6_EE
libKF6BalooEngine.so.6:_ZN5Baloo18AndPostingIteratorC2EOSt6vectorISt10unique_ptrINS_15PostingIteratorESt14default_deleteIS3_EESaIS6_EE
libKF6BalooEngine.so.6:_ZN5Baloo18AndPostingIteratorD0Ev
libKF6BalooEngine.so.6:_ZN5Baloo18AndPostingIteratorD1Ev
libKF6BalooEngine.so.6:_ZN5Baloo18AndPostingIteratorD2Ev
libKF6BalooEngine.so.6:_ZN5Baloo21VectorPostingIterator4nextEv
libKF6BalooEngine.so.6:_ZN5Baloo21VectorPostingIteratorC1ERK5QListIyE
libKF6BalooEngine.so.6:_ZN5Baloo21VectorPostingIteratorC2ERK5QListIyE
libKF6BalooEngine.so.6:_ZN5Baloo22globalDatabaseInstanceEv
libKF6BalooEngine.so.6:_ZN5Baloo26VectorPositionInfoIterator4nextEv
libKF6BalooEngine.so.6:_ZN5Baloo26VectorPositionInfoIterator9positionsEv
libKF6BalooEngine.so.6:_ZN5Baloo26VectorPositionInfoIteratorC1ERK5QListINS_12PositionInfoEE
libKF6BalooEngine.so.6:_ZN5Baloo26VectorPositionInfoIteratorC2ERK5QListINS_12PositionInfoEE
libKF6BalooEngine.so.6:_ZN5Baloo7MTimeDB3delEjy
libKF6BalooEngine.so.6:_ZN5Baloo7MTimeDB3getEj
libKF6BalooEngine.so.6:_ZN5Baloo7MTimeDB3putEjy
libKF6BalooEngine.so.6:_ZN5Baloo7MTimeDB4openEP7MDB_txn
libKF6BalooEngine.so.6:_ZN5Baloo7MTimeDB6createEP7MDB_txn
libKF6BalooEngine.so.6:_ZN5Baloo7MTimeDB9iterRangeEjj
libKF6BalooEngine.so.6:_ZN5Baloo7MTimeDBC1EjP7MDB_txn
libKF6BalooEngine.so.6:_ZN5Baloo7MTimeDBC2EjP7MDB_txn
libKF6BalooEngine.so.6:_ZN5Baloo7MTimeDBD1Ev
libKF6BalooEngine.so.6:_ZN5Baloo7MTimeDBD2Ev
libKF6BalooEngine.so.6:_ZN5Baloo8Database4openENS0_8OpenModeE
libKF6BalooEngine.so.6:_ZN5Baloo8DatabaseC1ERK7QString
libKF6BalooEngine.so.6:_ZN5Baloo8DatabaseC2ERK7QString
libKF6BalooEngine.so.6:_ZN5Baloo8DatabaseD1Ev
libKF6BalooEngine.so.6:_ZN5Baloo8DatabaseD2Ev
libKF6BalooEngine.so.6:_ZN5Baloo8Document11setParentIdEy
libKF6BalooEngine.so.6:_ZN5Baloo8Document12addXattrTermERK10QByteArray
libKF6BalooEngine.so.6:_ZN5Baloo8Document15addFileNameTermERK10QByteArray
libKF6BalooEngine.so.6:_ZN5Baloo8Document15addPositionTermERK10QByteArrayi
libKF6BalooEngine.so.6:_ZN5Baloo8Document18setContentIndexingEb
libKF6BalooEngine.so.6:_ZN5Baloo8Document20addXattrPositionTermERK10QByteArrayi
libKF6BalooEngine.so.6:_ZN5Baloo8Document23addFileNamePositionTermERK10QByteArrayi
libKF6BalooEngine.so.6:_ZN5Baloo8Document5setIdEy
libKF6BalooEngine.so.6:_ZN5Baloo8Document6setUrlERK10QByteArray
libKF6BalooEngine.so.6:_ZN5Baloo8Document7addTermERK10QByteArray
libKF6BalooEngine.so.6:_ZN5Baloo8Document7setDataERK10QByteArray
libKF6BalooEngine.so.6:_ZN5Baloo8DocumentC1Ev
libKF6BalooEngine.so.6:_ZN5Baloo8DocumentC2Ev
libKF6BalooEngine.so.6:_ZN5Baloo8IdTreeDB3getEy
libKF6BalooEngine.so.6:_ZN5Baloo8IdTreeDB3setEyRK5QListIyE
libKF6BalooEngine.so.6:_ZN5Baloo8IdTreeDB4iterEy
libKF6BalooEngine.so.6:_ZN5Baloo8IdTreeDB4openEP7MDB_txn
libKF6BalooEngine.so.6:_ZN5Baloo8IdTreeDB6createEP7MDB_txn
libKF6BalooEngine.so.6:_ZN5Baloo8IdTreeDBC1EjP7MDB_txn
libKF6BalooEngine.so.6:_ZN5Baloo8IdTreeDBC2EjP7MDB_txn
libKF6BalooEngine.so.6:_ZN5Baloo9PostingDB10prefixIterERK10QByteArray
libKF6BalooEngine.so.6:_ZN5Baloo9PostingDB10regexpIterERK18QRegularExpressionRK10QByteArray
libKF6BalooEngine.so.6:_ZN5Baloo9PostingDB22fetchTermsStartingWithERK10QByteArray
libKF6BalooEngine.so.6:_ZN5Baloo9PostingDB3delERK10QByteArray
libKF6BalooEngine.so.6:_ZN5Baloo9PostingDB3getERK10QByteArray
libKF6BalooEngine.so.6:_ZN5Baloo9PostingDB3putERK10QByteArrayRK5QListIyE
libKF6BalooEngine.so.6:_ZN5Baloo9PostingDB4iterERK10QByteArray
libKF6BalooEngine.so.6:_ZN5Baloo9PostingDB4openEP7MDB_txn
libKF6BalooEngine.so.6:_ZN5Baloo9PostingDB6createEP7MDB_txn
libKF6BalooEngine.so.6:_ZN5Baloo9PostingDB8compIterERK10QByteArrayS3_NS0_10ComparatorE
libKF6BalooEngine.so.6:_ZN5Baloo9PostingDB8compIterERK10QByteArraydNS0_10ComparatorE
libKF6BalooEngine.so.6:_ZN5Baloo9PostingDB8compIterERK10QByteArrayxNS0_10ComparatorE
libKF6BalooEngine.so.6:_ZN5Baloo9PostingDBC1EjP7MDB_txn
libKF6BalooEngine.so.6:_ZN5Baloo9PostingDBC2EjP7MDB_txn
libKF6BalooEngine.so.6:_ZN5Baloo9PostingDBD1Ev
libKF6BalooEngine.so.6:_ZN5Baloo9PostingDBD2Ev
libKF6BalooEngine.so.6:_ZNK5Baloo10DocumentDB9toTestMapEv
libKF6BalooEngine.so.6:_ZNK5Baloo10PositionDB9toTestMapEv
libKF6BalooEngine.so.6:_ZNK5Baloo11Transaction10docUrlIterEy
libKF6BalooEngine.so.6:_ZNK5Baloo11Transaction10documentIdERK10QByteArray
libKF6BalooEngine.so.6:_ZNK5Baloo11Transaction10inPhaseOneEy
libKF6BalooEngine.so.6:_ZNK5Baloo11Transaction11documentUrlEy
libKF6BalooEngine.so.6:_ZNK5Baloo11Transaction11hasDocumentEy
libKF6BalooEngine.so.6:_ZNK5Baloo11Transaction12documentDataEy
libKF6BalooEngine.so.6:_ZNK5Baloo11Transaction12phaseOneSizeEv
libKF6BalooEngine.so.6:_ZNK5Baloo11Transaction13documentTermsEy
libKF6BalooEngine.so.6:_ZNK5Baloo11Transaction14mTimeRangeIterEjj
libKF6BalooEngine.so.6:_ZNK5Baloo11Transaction15postingIteratorERKNS_11EngineQueryE
libKF6BalooEngine.so.6:_ZNK5Baloo11Transaction16documentTimeInfoEy
libKF6BalooEngine.so.6:_ZNK5Baloo11Transaction16fetchPhaseOneIdsEi
libKF6BalooEngine.so.6:_ZNK5Baloo11Transaction18documentXattrTermsEy
libKF6BalooEngine.so.6:_ZNK5Baloo11Transaction19postingCompIteratorERK10QByteArrayS3_NS_9PostingDB10ComparatorE
libKF6BalooEngine.so.6:_ZNK5Baloo11Transaction19postingCompIteratorERK10QByteArraydNS_9PostingDB10ComparatorE
libKF6BalooEngine.so.6:_ZNK5Baloo11Transaction19postingCompIteratorERK10QByteArrayxNS_9PostingDB10ComparatorE
libKF6BalooEngine.so.6:_ZNK5Baloo11Transaction21documentFileNameTermsEy
libKF6BalooEngine.so.6:_ZNK5Baloo11Transaction22fetchTermsStartingWithERK10QByteArray
libKF6BalooEngine.so.6:_ZNK5Baloo11Transaction4sizeEv
libKF6BalooEngine.so.6:_ZNK5Baloo11Transaction9failedIdsEy
libKF6BalooEngine.so.6:_ZNK5Baloo11Transaction9hasFailedEy
libKF6BalooEngine.so.6:_ZNK5Baloo12DocumentIdDB12toTestVectorEv
libKF6BalooEngine.so.6:_ZNK5Baloo12IdFilenameDB9toTestMapEv
libKF6BalooEngine.so.6:_ZNK5Baloo13DocumentUrlDB11getChildrenEy
libKF6BalooEngine.so.6:_ZNK5Baloo13DocumentUrlDB3getEy
libKF6BalooEngine.so.6:_ZNK5Baloo13DocumentUrlDB5getIdEyRK10QByteArray
libKF6BalooEngine.so.6:_ZNK5Baloo13DocumentUrlDB8containsEy
libKF6BalooEngine.so.6:_ZNK5Baloo13DocumentUrlDB9toTestMapEv
libKF6BalooEngine.so.6:_ZNK5Baloo13TermGenerator8positionEv
libKF6BalooEngine.so.6:_ZNK5Baloo14DocumentDataDB9toTestMapEv
libKF6BalooEngine.so.6:_ZNK5Baloo14DocumentTimeDB9toTestMapEv
libKF6BalooEngine.so.6:_ZNK5Baloo17OrPostingIterator5docIdEv
libKF6BalooEngine.so.6:_ZNK5Baloo17PhraseAndIterator5docIdEv
libKF6BalooEngine.so.6:_ZNK5Baloo18AndPostingIterator5docIdEv
libKF6BalooEngine.so.6:_ZNK5Baloo21VectorPostingIterator5docIdEv
libKF6BalooEngine.so.6:_ZNK5Baloo26VectorPositionInfoIterator5docIdEv
libKF6BalooEngine.so.6:_ZNK5Baloo7MTimeDB9toTestMapEv
libKF6BalooEngine.so.6:_ZNK5Baloo8Document15contentIndexingEv
libKF6BalooEngine.so.6:_ZNK5Baloo8Document2idEv
libKF6BalooEngine.so.6:_ZNK5Baloo8Document3urlEv
libKF6BalooEngine.so.6:_ZNK5Baloo8Document8parentIdEv
libKF6BalooEngine.so.6:_ZNK5Baloo8IdTreeDB9toTestMapEv
libKF6BalooEngine.so.6:_ZNK5Baloo9PostingDB9toTestMapEv
libKF6BalooEngine.so.6:_ZTIN5Baloo15PostingIteratorE
libKF6BalooEngine.so.6:_ZTIN5Baloo17OrPostingIteratorE
libKF6BalooEngine.so.6:_ZTIN5Baloo17PhraseAndIteratorE
libKF6BalooEngine.so.6:_ZTIN5Baloo18AndPostingIteratorE
libKF6BalooEngine.so.6:_ZTIN5Baloo21VectorPostingIteratorE
libKF6BalooEngine.so.6:_ZTIN5Baloo26VectorPositionInfoIteratorE
libKF6BalooEngine.so.6:_ZTSN5Baloo15PostingIteratorE
libKF6BalooEngine.so.6:_ZTSN5Baloo17OrPostingIteratorE
libKF6BalooEngine.so.6:_ZTSN5Baloo17PhraseAndIteratorE
libKF6BalooEngine.so.6:_ZTSN5Baloo18AndPostingIteratorE
libKF6BalooEngine.so.6:_ZTSN5Baloo21VectorPostingIteratorE
libKF6BalooEngine.so.6:_ZTSN5Baloo26VectorPositionInfoIteratorE
libKF6BalooEngine.so.6:_ZTVN5Baloo15PostingIteratorE
libKF6BalooEngine.so.6:_ZTVN5Baloo17OrPostingIteratorE
libKF6BalooEngine.so.6:_ZTVN5Baloo17PhraseAndIteratorE
libKF6BalooEngine.so.6:_ZTVN5Baloo18AndPostingIteratorE
libKF6BalooEngine.so.6:_ZTVN5Baloo21VectorPostingIteratorE
libKF6BalooEngine.so.6:_ZTVN5Baloo26VectorPositionInfoIteratorE
libbaloomonitorplugin.so:_Z45qml_register_types_org_kde_baloo_experimentalv
libbaloomonitorplugin.so:qt_plugin_instance
libbaloomonitorplugin.so:qt_plugin_query_metadata_v2
libbalooplugin.so:_Z32qml_register_types_org_kde_baloov
libbalooplugin.so:qt_plugin_instance
libbalooplugin.so:qt_plugin_query_metadata_v2
tags.so:kdemain
tags.so:qt_plugin_instance
tags.so:qt_plugin_query_metadata_v2
timeline.so:kdemain
timeline.so:qt_plugin_instance
timeline.so:qt_plugin_query_metadata_v2
