libsoci_core.so.4.0:_Z24soci_create_blob_sessionRN4soci7sessionE
libsoci_core.so.4.0:_ZN4soci10soci_error11add_contextERKNSt7__cxx1112basic_stringIcSt11char_traitsIcESaIcEEE
libsoci_core.so.4.0:_ZN4soci10soci_errorC1ERKNSt7__cxx1112basic_stringIcSt11char_traitsIcESaIcEEE
libsoci_core.so.4.0:_ZN4soci10soci_errorC1ERKS0_
libsoci_core.so.4.0:_ZN4soci10soci_errorC2ERKNSt7__cxx1112basic_stringIcSt11char_traitsIcESaIcEEE
libsoci_core.so.4.0:_ZN4soci10soci_errorC2ERKS0_
libsoci_core.so.4.0:_ZN4soci10soci_errorD0Ev
libsoci_core.so.4.0:_ZN4soci10soci_errorD1Ev
libsoci_core.so.4.0:_ZN4soci10soci_errorD2Ev
libsoci_core.so.4.0:_ZN4soci10soci_erroraSERKS0_
libsoci_core.so.4.0:_ZN4soci11logger_impl10set_streamEPSo
libsoci_core.so.4.0:_ZN4soci11logger_implD0Ev
libsoci_core.so.4.0:_ZN4soci11logger_implD1Ev
libsoci_core.so.4.0:_ZN4soci11logger_implD2Ev
libsoci_core.so.4.0:_ZN4soci11transaction6commitEv
libsoci_core.so.4.0:_ZN4soci11transaction8rollbackEv
libsoci_core.so.4.0:_ZN4soci11transactionC1ERNS_7sessionE
libsoci_core.so.4.0:_ZN4soci11transactionC2ERNS_7sessionE
libsoci_core.so.4.0:_ZN4soci11transactionD1Ev
libsoci_core.so.4.0:_ZN4soci11transactionD2Ev
libsoci_core.so.4.0:_ZN4soci15connection_pool2atEm
libsoci_core.so.4.0:_ZN4soci15connection_pool5leaseEv
libsoci_core.so.4.0:_ZN4soci15connection_pool9give_backEm
libsoci_core.so.4.0:_ZN4soci15connection_pool9try_leaseERmi
libsoci_core.so.4.0:_ZN4soci15connection_poolC1Em
libsoci_core.so.4.0:_ZN4soci15connection_poolC2Em
libsoci_core.so.4.0:_ZN4soci15connection_poolD1Ev
libsoci_core.so.4.0:_ZN4soci15connection_poolD2Ev
libsoci_core.so.4.0:_ZN4soci16dynamic_backends10unload_allEv
libsoci_core.so.4.0:_ZN4soci16dynamic_backends12search_pathsB5cxx11Ev
libsoci_core.so.4.0:_ZN4soci16dynamic_backends16register_backendERKNSt7__cxx1112basic_stringIcSt11char_traitsIcESaIcEEERKNS_15backend_factoryE
libsoci_core.so.4.0:_ZN4soci16dynamic_backends16register_backendERKNSt7__cxx1112basic_stringIcSt11char_traitsIcESaIcEEES8_
libsoci_core.so.4.0:_ZN4soci16dynamic_backends3getERKNSt7__cxx1112basic_stringIcSt11char_traitsIcESaIcEEE
libsoci_core.so.4.0:_ZN4soci16dynamic_backends6unloadERKNSt7__cxx1112basic_stringIcSt11char_traitsIcESaIcEEE
libsoci_core.so.4.0:_ZN4soci16dynamic_backends8list_allB5cxx11Ev
libsoci_core.so.4.0:_ZN4soci21connection_parametersC1ERKNS_15backend_factoryERKNSt7__cxx1112basic_stringIcSt11char_traitsIcESaIcEEE
libsoci_core.so.4.0:_ZN4soci21connection_parametersC1ERKNSt7__cxx1112basic_stringIcSt11char_traitsIcESaIcEEE
libsoci_core.so.4.0:_ZN4soci21connection_parametersC1ERKNSt7__cxx1112basic_stringIcSt11char_traitsIcESaIcEEES8_
libsoci_core.so.4.0:_ZN4soci21connection_parametersC1Ev
libsoci_core.so.4.0:_ZN4soci21connection_parametersC2ERKNS_15backend_factoryERKNSt7__cxx1112basic_stringIcSt11char_traitsIcESaIcEEE
libsoci_core.so.4.0:_ZN4soci21connection_parametersC2ERKNSt7__cxx1112basic_stringIcSt11char_traitsIcESaIcEEE
libsoci_core.so.4.0:_ZN4soci21connection_parametersC2ERKNSt7__cxx1112basic_stringIcSt11char_traitsIcESaIcEEES8_
libsoci_core.so.4.0:_ZN4soci21connection_parametersC2Ev
libsoci_core.so.4.0:_ZN4soci3row14add_propertiesERKNS_17column_propertiesE
libsoci_core.so.4.0:_ZN4soci3row22uppercase_column_namesEb
libsoci_core.so.4.0:_ZN4soci3row8clean_upEv
libsoci_core.so.4.0:_ZN4soci3rowC1Ev
libsoci_core.so.4.0:_ZN4soci3rowC2Ev
libsoci_core.so.4.0:_ZN4soci3rowD1Ev
libsoci_core.so.4.0:_ZN4soci3rowD2Ev
libsoci_core.so.4.0:_ZN4soci4blob15read_from_startEPcmm
libsoci_core.so.4.0:_ZN4soci4blob16write_from_startEPKcmm
libsoci_core.so.4.0:_ZN4soci4blob4readEmPcm
libsoci_core.so.4.0:_ZN4soci4blob4trimEm
libsoci_core.so.4.0:_ZN4soci4blob5writeEmPKcm
libsoci_core.so.4.0:_ZN4soci4blob6appendEPKcm
libsoci_core.so.4.0:_ZN4soci4blob7get_lenEv
libsoci_core.so.4.0:_ZN4soci4blobC1ERNS_7sessionE
libsoci_core.so.4.0:_ZN4soci4blobC2ERNS_7sessionE
libsoci_core.so.4.0:_ZN4soci4blobD1Ev
libsoci_core.so.4.0:_ZN4soci4blobD2Ev
libsoci_core.so.4.0:_ZN4soci5rowidC1ERNS_7sessionE
libsoci_core.so.4.0:_ZN4soci5rowidC2ERNS_7sessionE
libsoci_core.so.4.0:_ZN4soci5rowidD1Ev
libsoci_core.so.4.0:_ZN4soci5rowidD2Ev
libsoci_core.so.4.0:_ZN4soci6loggerC1EPNS_11logger_implE
libsoci_core.so.4.0:_ZN4soci6loggerC1ERKS0_
libsoci_core.so.4.0:_ZN4soci6loggerC2EPNS_11logger_implE
libsoci_core.so.4.0:_ZN4soci6loggerC2ERKS0_
libsoci_core.so.4.0:_ZN4soci6loggerD1Ev
libsoci_core.so.4.0:_ZN4soci6loggerD2Ev
libsoci_core.so.4.0:_ZN4soci6loggeraSERKS0_
libsoci_core.so.4.0:_ZN4soci7details12parse_std_tmEPKcR2tm
libsoci_core.so.4.0:_ZN4soci7details14once_temp_typeC1ERKS1_
libsoci_core.so.4.0:_ZN4soci7details14once_temp_typeC1ERNS_7sessionE
libsoci_core.so.4.0:_ZN4soci7details14once_temp_typeC2ERKS1_
libsoci_core.so.4.0:_ZN4soci7details14once_temp_typeC2ERNS_7sessionE
libsoci_core.so.4.0:_ZN4soci7details14once_temp_typeD1Ev
libsoci_core.so.4.0:_ZN4soci7details14once_temp_typeD2Ev
libsoci_core.so.4.0:_ZN4soci7details14once_temp_typeaSERKS1_
libsoci_core.so.4.0:_ZN4soci7details14once_temp_typecmERKNS0_8type_ptrINS0_13use_type_baseEEE
libsoci_core.so.4.0:_ZN4soci7details14once_temp_typecmERKNS0_8type_ptrINS0_14into_type_baseEEE
libsoci_core.so.4.0:_ZN4soci7details14procedure_implC1ERKNS0_17prepare_temp_typeE
libsoci_core.so.4.0:_ZN4soci7details14procedure_implC2ERKNS0_17prepare_temp_typeE
libsoci_core.so.4.0:_ZN4soci7details14statement_impl10intos_sizeEv
libsoci_core.so.4.0:_ZN4soci7details14statement_impl10post_fetchEbb
libsoci_core.so.4.0:_ZN4soci7details14statement_impl12resize_intosEm
libsoci_core.so.4.0:_ZN4soci7details14statement_impl13bind_clean_upEv
libsoci_core.so.4.0:_ZN4soci7details14statement_impl14define_for_rowEv
libsoci_core.so.4.0:_ZN4soci7details14statement_impl14truncate_intosEv
libsoci_core.so.4.0:_ZN4soci7details14statement_impl15define_and_bindEv
libsoci_core.so.4.0:_ZN4soci7details14statement_impl17get_affected_rowsEv
libsoci_core.so.4.0:_ZN4soci7details14statement_impl17undefine_and_bindEv
libsoci_core.so.4.0:_ZN4soci7details14statement_impl21make_use_type_backendEv
libsoci_core.so.4.0:_ZN4soci7details14statement_impl22make_into_type_backendEv
libsoci_core.so.4.0:_ZN4soci7details14statement_impl26rewrite_for_procedure_callERKNSt7__cxx1112basic_stringIcSt11char_traitsIcESaIcEEE
libsoci_core.so.4.0:_ZN4soci7details14statement_impl28make_vector_use_type_backendEv
libsoci_core.so.4.0:_ZN4soci7details14statement_impl29make_vector_into_type_backendEv
libsoci_core.so.4.0:_ZN4soci7details14statement_impl38rethrow_current_exception_with_contextEPKc
libsoci_core.so.4.0:_ZN4soci7details14statement_impl4bindERNS_6valuesE
libsoci_core.so.4.0:_ZN4soci7details14statement_impl5allocEv
libsoci_core.so.4.0:_ZN4soci7details14statement_impl5fetchEv
libsoci_core.so.4.0:_ZN4soci7details14statement_impl7dec_refEv
libsoci_core.so.4.0:_ZN4soci7details14statement_impl7executeEb
libsoci_core.so.4.0:_ZN4soci7details14statement_impl7inc_refEv
libsoci_core.so.4.0:_ZN4soci7details14statement_impl7pre_useEv
libsoci_core.so.4.0:_ZN4soci7details14statement_impl7prepareERKNSt7__cxx1112basic_stringIcSt11char_traitsIcESaIcEEENS0_14statement_typeE
libsoci_core.so.4.0:_ZN4soci7details14statement_impl7set_rowEPNS_3rowE
libsoci_core.so.4.0:_ZN4soci7details14statement_impl8clean_upEv
libsoci_core.so.4.0:_ZN4soci7details14statement_impl8describeEv
libsoci_core.so.4.0:_ZN4soci7details14statement_impl8post_useEb
libsoci_core.so.4.0:_ZN4soci7details14statement_impl8pre_execEi
libsoci_core.so.4.0:_ZN4soci7details14statement_impl9bind_intoILNS_9data_typeE0EEEvv
libsoci_core.so.4.0:_ZN4soci7details14statement_impl9bind_intoILNS_9data_typeE1EEEvv
libsoci_core.so.4.0:_ZN4soci7details14statement_impl9bind_intoILNS_9data_typeE2EEEvv
libsoci_core.so.4.0:_ZN4soci7details14statement_impl9bind_intoILNS_9data_typeE3EEEvv
libsoci_core.so.4.0:_ZN4soci7details14statement_impl9bind_intoILNS_9data_typeE4EEEvv
libsoci_core.so.4.0:_ZN4soci7details14statement_impl9bind_intoILNS_9data_typeE5EEEvv
libsoci_core.so.4.0:_ZN4soci7details14statement_impl9pre_fetchEv
libsoci_core.so.4.0:_ZN4soci7details14statement_impl9uses_sizeEv
libsoci_core.so.4.0:_ZN4soci7details14statement_implC1ERKNS0_17prepare_temp_typeE
libsoci_core.so.4.0:_ZN4soci7details14statement_implC1ERNS_7sessionE
libsoci_core.so.4.0:_ZN4soci7details14statement_implC2ERKNS0_17prepare_temp_typeE
libsoci_core.so.4.0:_ZN4soci7details14statement_implC2ERNS_7sessionE
libsoci_core.so.4.0:_ZN4soci7details14statement_implD1Ev
libsoci_core.so.4.0:_ZN4soci7details14statement_implD2Ev
libsoci_core.so.4.0:_ZN4soci7details15vector_use_type4bindERNS0_14statement_implERi
libsoci_core.so.4.0:_ZN4soci7details15vector_use_type7pre_useEv
libsoci_core.so.4.0:_ZN4soci7details15vector_use_type8clean_upEv
libsoci_core.so.4.0:_ZN4soci7details15vector_use_type8pre_execEi
libsoci_core.so.4.0:_ZN4soci7details15vector_use_typeD0Ev
libsoci_core.so.4.0:_ZN4soci7details15vector_use_typeD1Ev
libsoci_core.so.4.0:_ZN4soci7details15vector_use_typeD2Ev
libsoci_core.so.4.0:_ZN4soci7details16vector_into_type10post_fetchEbb
libsoci_core.so.4.0:_ZN4soci7details16vector_into_type6defineERNS0_14statement_implERi
libsoci_core.so.4.0:_ZN4soci7details16vector_into_type6resizeEm
libsoci_core.so.4.0:_ZN4soci7details16vector_into_type8clean_upEv
libsoci_core.so.4.0:_ZN4soci7details16vector_into_type8pre_execEi
libsoci_core.so.4.0:_ZN4soci7details16vector_into_type9pre_fetchEv
libsoci_core.so.4.0:_ZN4soci7details16vector_into_typeD0Ev
libsoci_core.so.4.0:_ZN4soci7details16vector_into_typeD1Ev
libsoci_core.so.4.0:_ZN4soci7details16vector_into_typeD2Ev
libsoci_core.so.4.0:_ZN4soci7details17prepare_temp_typeC1ERKS1_
libsoci_core.so.4.0:_ZN4soci7details17prepare_temp_typeC1ERNS_7sessionE
libsoci_core.so.4.0:_ZN4soci7details17prepare_temp_typeC2ERKS1_
libsoci_core.so.4.0:_ZN4soci7details17prepare_temp_typeC2ERNS_7sessionE
libsoci_core.so.4.0:_ZN4soci7details17prepare_temp_typeD1Ev
libsoci_core.so.4.0:_ZN4soci7details17prepare_temp_typeD2Ev
libsoci_core.so.4.0:_ZN4soci7details17prepare_temp_typeaSERKS1_
libsoci_core.so.4.0:_ZN4soci7details17prepare_temp_typecmERKNS0_8type_ptrINS0_14into_type_baseEEE
libsoci_core.so.4.0:_ZN4soci7details17standard_use_type4bindERNS0_14statement_implERi
libsoci_core.so.4.0:_ZN4soci7details17standard_use_type7pre_useEv
libsoci_core.so.4.0:_ZN4soci7details17standard_use_type8clean_upEv
libsoci_core.so.4.0:_ZN4soci7details17standard_use_type8post_useEb
libsoci_core.so.4.0:_ZN4soci7details17standard_use_type8pre_execEi
libsoci_core.so.4.0:_ZN4soci7details17standard_use_typeD0Ev
libsoci_core.so.4.0:_ZN4soci7details17standard_use_typeD1Ev
libsoci_core.so.4.0:_ZN4soci7details17standard_use_typeD2Ev
libsoci_core.so.4.0:_ZN4soci7details18standard_into_type10post_fetchEbb
libsoci_core.so.4.0:_ZN4soci7details18standard_into_type6defineERNS0_14statement_implERi
libsoci_core.so.4.0:_ZN4soci7details18standard_into_type8clean_upEv
libsoci_core.so.4.0:_ZN4soci7details18standard_into_type8pre_execEi
libsoci_core.so.4.0:_ZN4soci7details18standard_into_type9pre_fetchEv
libsoci_core.so.4.0:_ZN4soci7details18standard_into_typeD0Ev
libsoci_core.so.4.0:_ZN4soci7details18standard_into_typeD1Ev
libsoci_core.so.4.0:_ZN4soci7details18standard_into_typeD2Ev
libsoci_core.so.4.0:_ZN4soci7details21ref_counted_statement12final_actionEv
libsoci_core.so.4.0:_ZN4soci7details24ref_counted_prepare_info12final_actionEv
libsoci_core.so.4.0:_ZN4soci7details26ref_counted_statement_base16get_query_streamB5cxx11Ev
libsoci_core.so.4.0:_ZN4soci7details26ref_counted_statement_baseC1ERNS_7sessionE
libsoci_core.so.4.0:_ZN4soci7details26ref_counted_statement_baseC2ERNS_7sessionE
libsoci_core.so.4.0:_ZN4soci7session10add_columnERKNSt7__cxx1112basic_stringIcSt11char_traitsIcESaIcEEES8_NS_9data_typeEii
libsoci_core.so.4.0:_ZN4soci7session10drop_tableERKNSt7__cxx1112basic_stringIcSt11char_traitsIcESaIcEEE
libsoci_core.so.4.0:_ZN4soci7session10empty_blobB5cxx11Ev
libsoci_core.so.4.0:_ZN4soci7session10set_loggerERKNS_6loggerE
libsoci_core.so.4.0:_ZN4soci7session11drop_columnERKNSt7__cxx1112basic_stringIcSt11char_traitsIcESaIcEEES8_
libsoci_core.so.4.0:_ZN4soci7session12alter_columnERKNSt7__cxx1112basic_stringIcSt11char_traitsIcESaIcEEES8_NS_9data_typeEii
libsoci_core.so.4.0:_ZN4soci7session12create_tableERKNSt7__cxx1112basic_stringIcSt11char_traitsIcESaIcEEE
libsoci_core.so.4.0:_ZN4soci7session12set_got_dataEb
libsoci_core.so.4.0:_ZN4soci7session14set_log_streamEPSo
libsoci_core.so.4.0:_ZN4soci7session14truncate_tableERKNSt7__cxx1112basic_stringIcSt11char_traitsIcESaIcEEE
libsoci_core.so.4.0:_ZN4soci7session15get_table_namesEv
libsoci_core.so.4.0:_ZN4soci7session16get_query_streamB5cxx11Ev
libsoci_core.so.4.0:_ZN4soci7session17make_blob_backendEv
libsoci_core.so.4.0:_ZN4soci7session18get_last_insert_idERKNSt7__cxx1112basic_stringIcSt11char_traitsIcESaIcEEERx
libsoci_core.so.4.0:_ZN4soci7session18make_rowid_backendEv
libsoci_core.so.4.0:_ZN4soci7session19prepare_table_namesEv
libsoci_core.so.4.0:_ZN4soci7session21set_failover_callbackERNS_17failover_callbackE
libsoci_core.so.4.0:_ZN4soci7session22make_statement_backendEv
libsoci_core.so.4.0:_ZN4soci7session22uppercase_column_namesEb
libsoci_core.so.4.0:_ZN4soci7session23get_next_sequence_valueERKNSt7__cxx1112basic_stringIcSt11char_traitsIcESaIcEEERx
libsoci_core.so.4.0:_ZN4soci7session25set_query_transformation_ERSt10unique_ptrINS_7details29query_transformation_functionESt14default_deleteIS3_EE
libsoci_core.so.4.0:_ZN4soci7session27prepare_column_descriptionsERNSt7__cxx1112basic_stringIcSt11char_traitsIcESaIcEEE
libsoci_core.so.4.0:_ZN4soci7session3nvlB5cxx11Ev
libsoci_core.so.4.0:_ZN4soci7session4openERKNS_15backend_factoryERKNSt7__cxx1112basic_stringIcSt11char_traitsIcESaIcEEE
libsoci_core.so.4.0:_ZN4soci7session4openERKNS_21connection_parametersE
libsoci_core.so.4.0:_ZN4soci7session4openERKNSt7__cxx1112basic_stringIcSt11char_traitsIcESaIcEEE
libsoci_core.so.4.0:_ZN4soci7session4openERKNSt7__cxx1112basic_stringIcSt11char_traitsIcESaIcEEES8_
libsoci_core.so.4.0:_ZN4soci7session5beginEv
libsoci_core.so.4.0:_ZN4soci7session5closeEv
libsoci_core.so.4.0:_ZN4soci7session6commitEv
libsoci_core.so.4.0:_ZN4soci7session8rollbackEv
libsoci_core.so.4.0:_ZN4soci7session9log_queryERKNSt7__cxx1112basic_stringIcSt11char_traitsIcESaIcEEE
libsoci_core.so.4.0:_ZN4soci7session9reconnectEv
libsoci_core.so.4.0:_ZN4soci7sessionC1ERKNS_15backend_factoryERKNSt7__cxx1112basic_stringIcSt11char_traitsIcESaIcEEE
libsoci_core.so.4.0:_ZN4soci7sessionC1ERKNS_21connection_parametersE
libsoci_core.so.4.0:_ZN4soci7sessionC1ERKNSt7__cxx1112basic_stringIcSt11char_traitsIcESaIcEEE
libsoci_core.so.4.0:_ZN4soci7sessionC1ERKNSt7__cxx1112basic_stringIcSt11char_traitsIcESaIcEEES8_
libsoci_core.so.4.0:_ZN4soci7sessionC1ERNS_15connection_poolE
libsoci_core.so.4.0:_ZN4soci7sessionC1Ev
libsoci_core.so.4.0:_ZN4soci7sessionC2ERKNS_15backend_factoryERKNSt7__cxx1112basic_stringIcSt11char_traitsIcESaIcEEE
libsoci_core.so.4.0:_ZN4soci7sessionC2ERKNS_21connection_parametersE
libsoci_core.so.4.0:_ZN4soci7sessionC2ERKNSt7__cxx1112basic_stringIcSt11char_traitsIcESaIcEEE
libsoci_core.so.4.0:_ZN4soci7sessionC2ERKNSt7__cxx1112basic_stringIcSt11char_traitsIcESaIcEEES8_
libsoci_core.so.4.0:_ZN4soci7sessionC2ERNS_15connection_poolE
libsoci_core.so.4.0:_ZN4soci7sessionC2Ev
libsoci_core.so.4.0:_ZN4soci7sessionD1Ev
libsoci_core.so.4.0:_ZN4soci7sessionD2Ev
libsoci_core.so.4.0:_ZN4soci8ddl_type10add_columnERKNSt7__cxx1112basic_stringIcSt11char_traitsIcESaIcEEES8_NS_9data_typeEii
libsoci_core.so.4.0:_ZN4soci8ddl_type11drop_columnERKNSt7__cxx1112basic_stringIcSt11char_traitsIcESaIcEEES8_
libsoci_core.so.4.0:_ZN4soci8ddl_type11foreign_keyERKNSt7__cxx1112basic_stringIcSt11char_traitsIcESaIcEEES8_S8_S8_
libsoci_core.so.4.0:_ZN4soci8ddl_type11primary_keyERKNSt7__cxx1112basic_stringIcSt11char_traitsIcESaIcEEES8_
libsoci_core.so.4.0:_ZN4soci8ddl_type12alter_columnERKNSt7__cxx1112basic_stringIcSt11char_traitsIcESaIcEEES8_NS_9data_typeEii
libsoci_core.so.4.0:_ZN4soci8ddl_type12create_tableERKNSt7__cxx1112basic_stringIcSt11char_traitsIcESaIcEEE
libsoci_core.so.4.0:_ZN4soci8ddl_type6columnERKNSt7__cxx1112basic_stringIcSt11char_traitsIcESaIcEEENS_9data_typeEii
libsoci_core.so.4.0:_ZN4soci8ddl_type6uniqueERKNSt7__cxx1112basic_stringIcSt11char_traitsIcESaIcEEES8_
libsoci_core.so.4.0:_ZN4soci8ddl_type8set_tailERKNSt7__cxx1112basic_stringIcSt11char_traitsIcESaIcEEE
libsoci_core.so.4.0:_ZN4soci8ddl_typeC1ERKS0_
libsoci_core.so.4.0:_ZN4soci8ddl_typeC1ERNS_7sessionE
libsoci_core.so.4.0:_ZN4soci8ddl_typeC2ERKS0_
libsoci_core.so.4.0:_ZN4soci8ddl_typeC2ERNS_7sessionE
libsoci_core.so.4.0:_ZN4soci8ddl_typeD1Ev
libsoci_core.so.4.0:_ZN4soci8ddl_typeD2Ev
libsoci_core.so.4.0:_ZN4soci8ddl_typeaSERKS0_
libsoci_core.so.4.0:_ZN4soci8ddl_typeclERKNSt7__cxx1112basic_stringIcSt11char_traitsIcESaIcEEE
libsoci_core.so.4.0:_ZNK4soci10soci_error17get_error_messageB5cxx11Ev
libsoci_core.so.4.0:_ZNK4soci10soci_error4whatEv
libsoci_core.so.4.0:_ZNK4soci11logger_impl10get_streamEv
libsoci_core.so.4.0:_ZNK4soci11logger_impl14get_last_queryB5cxx11Ev
libsoci_core.so.4.0:_ZNK4soci11logger_impl5cloneEv
libsoci_core.so.4.0:_ZNK4soci3row11find_columnERKNSt7__cxx1112basic_stringIcSt11char_traitsIcESaIcEEE
libsoci_core.so.4.0:_ZNK4soci3row13get_indicatorERKNSt7__cxx1112basic_stringIcSt11char_traitsIcESaIcEEE
libsoci_core.so.4.0:_ZNK4soci3row13get_indicatorEm
libsoci_core.so.4.0:_ZNK4soci3row14get_propertiesERKNSt7__cxx1112basic_stringIcSt11char_traitsIcESaIcEEE
libsoci_core.so.4.0:_ZNK4soci3row14get_propertiesEm
libsoci_core.so.4.0:_ZNK4soci3row4sizeEv
libsoci_core.so.4.0:_ZNK4soci6values13get_indicatorERKNSt7__cxx1112basic_stringIcSt11char_traitsIcESaIcEEE
libsoci_core.so.4.0:_ZNK4soci6values13get_indicatorEm
libsoci_core.so.4.0:_ZNK4soci6values14get_propertiesERKNSt7__cxx1112basic_stringIcSt11char_traitsIcESaIcEEE
libsoci_core.so.4.0:_ZNK4soci6values14get_propertiesEm
libsoci_core.so.4.0:_ZNK4soci7details15vector_use_type10dump_valueERSo
libsoci_core.so.4.0:_ZNK4soci7details15vector_use_type4sizeEv
libsoci_core.so.4.0:_ZNK4soci7details16vector_into_type4sizeEv
libsoci_core.so.4.0:_ZNK4soci7details17standard_use_type10dump_valueERSo
libsoci_core.so.4.0:_ZNK4soci7details24ref_counted_prepare_info9get_queryB5cxx11Ev
libsoci_core.so.4.0:_ZNK4soci7session10get_loggerEv
libsoci_core.so.4.0:_ZNK4soci7session12is_connectedEv
libsoci_core.so.4.0:_ZNK4soci7session14get_last_queryB5cxx11Ev
libsoci_core.so.4.0:_ZNK4soci7session14get_log_streamEv
libsoci_core.so.4.0:_ZNK4soci7session16get_backend_nameB5cxx11Ev
libsoci_core.so.4.0:_ZNK4soci7session20get_dummy_from_tableB5cxx11Ev
libsoci_core.so.4.0:_ZNK4soci7session21get_dummy_from_clauseB5cxx11Ev
libsoci_core.so.4.0:_ZNK4soci7session26get_uppercase_column_namesEv
libsoci_core.so.4.0:_ZNK4soci7session8got_dataEv
libsoci_core.so.4.0:_ZNK4soci7session9get_queryB5cxx11Ev
libsoci_core.so.4.0:soci_begin
libsoci_core.so.4.0:soci_blob_append
libsoci_core.so.4.0:soci_blob_error_message
libsoci_core.so.4.0:soci_blob_get_len
libsoci_core.so.4.0:soci_blob_read
libsoci_core.so.4.0:soci_blob_state
libsoci_core.so.4.0:soci_blob_trim
libsoci_core.so.4.0:soci_blob_write
libsoci_core.so.4.0:soci_commit
libsoci_core.so.4.0:soci_create_blob
libsoci_core.so.4.0:soci_create_session
libsoci_core.so.4.0:soci_create_statement
libsoci_core.so.4.0:soci_destroy_blob
libsoci_core.so.4.0:soci_destroy_session
libsoci_core.so.4.0:soci_destroy_statement
libsoci_core.so.4.0:soci_execute
libsoci_core.so.4.0:soci_fetch
libsoci_core.so.4.0:soci_get_affected_rows
libsoci_core.so.4.0:soci_get_into_blob
libsoci_core.so.4.0:soci_get_into_date
libsoci_core.so.4.0:soci_get_into_date_v
libsoci_core.so.4.0:soci_get_into_double
libsoci_core.so.4.0:soci_get_into_double_v
libsoci_core.so.4.0:soci_get_into_int
libsoci_core.so.4.0:soci_get_into_int_v
libsoci_core.so.4.0:soci_get_into_long_long
libsoci_core.so.4.0:soci_get_into_long_long_v
libsoci_core.so.4.0:soci_get_into_state
libsoci_core.so.4.0:soci_get_into_state_v
libsoci_core.so.4.0:soci_get_into_string
libsoci_core.so.4.0:soci_get_into_string_v
libsoci_core.so.4.0:soci_get_use_blob
libsoci_core.so.4.0:soci_get_use_date
libsoci_core.so.4.0:soci_get_use_double
libsoci_core.so.4.0:soci_get_use_int
libsoci_core.so.4.0:soci_get_use_long_long
libsoci_core.so.4.0:soci_get_use_state
libsoci_core.so.4.0:soci_get_use_string
libsoci_core.so.4.0:soci_got_data
libsoci_core.so.4.0:soci_into_blob
libsoci_core.so.4.0:soci_into_date
libsoci_core.so.4.0:soci_into_date_v
libsoci_core.so.4.0:soci_into_double
libsoci_core.so.4.0:soci_into_double_v
libsoci_core.so.4.0:soci_into_get_size_v
libsoci_core.so.4.0:soci_into_int
libsoci_core.so.4.0:soci_into_int_v
libsoci_core.so.4.0:soci_into_long_long
libsoci_core.so.4.0:soci_into_long_long_v
libsoci_core.so.4.0:soci_into_resize_v
libsoci_core.so.4.0:soci_into_string
libsoci_core.so.4.0:soci_into_string_v
libsoci_core.so.4.0:soci_prepare
libsoci_core.so.4.0:soci_rollback
libsoci_core.so.4.0:soci_session_error_message
libsoci_core.so.4.0:soci_session_state
libsoci_core.so.4.0:soci_set_use_blob
libsoci_core.so.4.0:soci_set_use_date
libsoci_core.so.4.0:soci_set_use_date_v
libsoci_core.so.4.0:soci_set_use_double
libsoci_core.so.4.0:soci_set_use_double_v
libsoci_core.so.4.0:soci_set_use_int
libsoci_core.so.4.0:soci_set_use_int_v
libsoci_core.so.4.0:soci_set_use_long_long
libsoci_core.so.4.0:soci_set_use_long_long_v
libsoci_core.so.4.0:soci_set_use_state
libsoci_core.so.4.0:soci_set_use_state_v
libsoci_core.so.4.0:soci_set_use_string
libsoci_core.so.4.0:soci_set_use_string_v
libsoci_core.so.4.0:soci_statement_error_message
libsoci_core.so.4.0:soci_statement_state
libsoci_core.so.4.0:soci_use_blob
libsoci_core.so.4.0:soci_use_date
libsoci_core.so.4.0:soci_use_date_v
libsoci_core.so.4.0:soci_use_double
libsoci_core.so.4.0:soci_use_double_v
libsoci_core.so.4.0:soci_use_get_size_v
libsoci_core.so.4.0:soci_use_int
libsoci_core.so.4.0:soci_use_int_v
libsoci_core.so.4.0:soci_use_long_long
libsoci_core.so.4.0:soci_use_long_long_v
libsoci_core.so.4.0:soci_use_resize_v
libsoci_core.so.4.0:soci_use_string
libsoci_core.so.4.0:soci_use_string_v
libsoci_postgresql.so.4.0:_ZN4soci10postgresqlE
libsoci_postgresql.so.4.0:_ZN4soci21postgresql_soci_errorC1ERKNSt7__cxx1112basic_stringIcSt11char_traitsIcESaIcEEEPKc
libsoci_postgresql.so.4.0:_ZN4soci21postgresql_soci_errorC2ERKNSt7__cxx1112basic_stringIcSt11char_traitsIcESaIcEEEPKc
libsoci_postgresql.so.4.0:_ZN4soci23postgresql_blob_backend4readEmPcm
libsoci_postgresql.so.4.0:_ZN4soci23postgresql_blob_backend4trimEm
libsoci_postgresql.so.4.0:_ZN4soci23postgresql_blob_backend5writeEmPKcm
libsoci_postgresql.so.4.0:_ZN4soci23postgresql_blob_backend6appendEPKcm
libsoci_postgresql.so.4.0:_ZN4soci23postgresql_blob_backend7get_lenEv
libsoci_postgresql.so.4.0:_ZN4soci23postgresql_blob_backendC1ERNS_26postgresql_session_backendE
libsoci_postgresql.so.4.0:_ZN4soci23postgresql_blob_backendC2ERNS_26postgresql_session_backendE
libsoci_postgresql.so.4.0:_ZN4soci23postgresql_blob_backendD0Ev
libsoci_postgresql.so.4.0:_ZN4soci23postgresql_blob_backendD1Ev
libsoci_postgresql.so.4.0:_ZN4soci23postgresql_blob_backendD2Ev
libsoci_postgresql.so.4.0:_ZN4soci24postgresql_rowid_backendC1ERNS_26postgresql_session_backendE
libsoci_postgresql.so.4.0:_ZN4soci24postgresql_rowid_backendC2ERNS_26postgresql_session_backendE
libsoci_postgresql.so.4.0:_ZN4soci24postgresql_rowid_backendD0Ev
libsoci_postgresql.so.4.0:_ZN4soci24postgresql_rowid_backendD1Ev
libsoci_postgresql.so.4.0:_ZN4soci24postgresql_rowid_backendD2Ev
libsoci_postgresql.so.4.0:_ZN4soci26postgresql_session_backend12is_connectedEv
libsoci_postgresql.so.4.0:_ZN4soci26postgresql_session_backend17make_blob_backendEv
libsoci_postgresql.so.4.0:_ZN4soci26postgresql_session_backend18make_rowid_backendEv
libsoci_postgresql.so.4.0:_ZN4soci26postgresql_session_backend22make_statement_backendEv
libsoci_postgresql.so.4.0:_ZN4soci26postgresql_session_backend23get_next_sequence_valueERNS_7sessionERKNSt7__cxx1112basic_stringIcSt11char_traitsIcESaIcEEERx
libsoci_postgresql.so.4.0:_ZN4soci26postgresql_session_backend23get_next_statement_nameB5cxx11Ev
libsoci_postgresql.so.4.0:_ZN4soci26postgresql_session_backend29deallocate_prepared_statementERKNSt7__cxx1112basic_stringIcSt11char_traitsIcESaIcEEE
libsoci_postgresql.so.4.0:_ZN4soci26postgresql_session_backend5beginEv
libsoci_postgresql.so.4.0:_ZN4soci26postgresql_session_backend6commitEv
libsoci_postgresql.so.4.0:_ZN4soci26postgresql_session_backend7connectERKNS_21connection_parametersE
libsoci_postgresql.so.4.0:_ZN4soci26postgresql_session_backend8clean_upEv
libsoci_postgresql.so.4.0:_ZN4soci26postgresql_session_backend8rollbackEv
libsoci_postgresql.so.4.0:_ZN4soci26postgresql_session_backendC1ERKNS_21connection_parametersEb
libsoci_postgresql.so.4.0:_ZN4soci26postgresql_session_backendC2ERKNS_21connection_parametersEb
libsoci_postgresql.so.4.0:_ZN4soci26postgresql_session_backendD0Ev
libsoci_postgresql.so.4.0:_ZN4soci26postgresql_session_backendD1Ev
libsoci_postgresql.so.4.0:_ZN4soci26postgresql_session_backendD2Ev
libsoci_postgresql.so.4.0:_ZN4soci28postgresql_statement_backend15describe_columnEiRNS_9data_typeERNSt7__cxx1112basic_stringIcSt11char_traitsIcESaIcEEE
libsoci_postgresql.so.4.0:_ZN4soci28postgresql_statement_backend17get_affected_rowsEv
libsoci_postgresql.so.4.0:_ZN4soci28postgresql_statement_backend18get_number_of_rowsEv
libsoci_postgresql.so.4.0:_ZN4soci28postgresql_statement_backend20prepare_for_describeEv
libsoci_postgresql.so.4.0:_ZN4soci28postgresql_statement_backend21make_use_type_backendEv
libsoci_postgresql.so.4.0:_ZN4soci28postgresql_statement_backend22make_into_type_backendEv
libsoci_postgresql.so.4.0:_ZN4soci28postgresql_statement_backend26rewrite_for_procedure_callERKNSt7__cxx1112basic_stringIcSt11char_traitsIcESaIcEEE
libsoci_postgresql.so.4.0:_ZN4soci28postgresql_statement_backend28make_vector_use_type_backendEv
libsoci_postgresql.so.4.0:_ZN4soci28postgresql_statement_backend29make_vector_into_type_backendEv
libsoci_postgresql.so.4.0:_ZN4soci28postgresql_statement_backend5allocEv
libsoci_postgresql.so.4.0:_ZN4soci28postgresql_statement_backend5fetchEi
libsoci_postgresql.so.4.0:_ZN4soci28postgresql_statement_backend7executeEi
libsoci_postgresql.so.4.0:_ZN4soci28postgresql_statement_backend7prepareERKNSt7__cxx1112basic_stringIcSt11char_traitsIcESaIcEEENS_7details14statement_typeE
libsoci_postgresql.so.4.0:_ZN4soci28postgresql_statement_backend8clean_upEv
libsoci_postgresql.so.4.0:_ZN4soci28postgresql_statement_backendC1ERNS_26postgresql_session_backendEb
libsoci_postgresql.so.4.0:_ZN4soci28postgresql_statement_backendC2ERNS_26postgresql_session_backendEb
libsoci_postgresql.so.4.0:_ZN4soci28postgresql_statement_backendD0Ev
libsoci_postgresql.so.4.0:_ZN4soci28postgresql_statement_backendD1Ev
libsoci_postgresql.so.4.0:_ZN4soci28postgresql_statement_backendD2Ev
libsoci_postgresql.so.4.0:_ZN4soci34postgresql_vector_use_type_backend16bind_by_pos_bulkERiPvNS_7details13exchange_typeEmPm
libsoci_postgresql.so.4.0:_ZN4soci34postgresql_vector_use_type_backend17bind_by_name_bulkERKNSt7__cxx1112basic_stringIcSt11char_traitsIcESaIcEEEPvNS_7details13exchange_typeEmPm
libsoci_postgresql.so.4.0:_ZN4soci34postgresql_vector_use_type_backend4sizeEv
libsoci_postgresql.so.4.0:_ZN4soci34postgresql_vector_use_type_backend7pre_useEPKNS_9indicatorE
libsoci_postgresql.so.4.0:_ZN4soci34postgresql_vector_use_type_backend8clean_upEv
libsoci_postgresql.so.4.0:_ZN4soci34postgresql_vector_use_type_backend9full_sizeEv
libsoci_postgresql.so.4.0:_ZN4soci35postgresql_vector_into_type_backend10post_fetchEbPNS_9indicatorE
libsoci_postgresql.so.4.0:_ZN4soci35postgresql_vector_into_type_backend18define_by_pos_bulkERiPvNS_7details13exchange_typeEmPm
libsoci_postgresql.so.4.0:_ZN4soci35postgresql_vector_into_type_backend4sizeEv
libsoci_postgresql.so.4.0:_ZN4soci35postgresql_vector_into_type_backend6resizeEm
libsoci_postgresql.so.4.0:_ZN4soci35postgresql_vector_into_type_backend8clean_upEv
libsoci_postgresql.so.4.0:_ZN4soci35postgresql_vector_into_type_backend9full_sizeEv
libsoci_postgresql.so.4.0:_ZN4soci35postgresql_vector_into_type_backend9pre_fetchEv
libsoci_postgresql.so.4.0:_ZN4soci36postgresql_standard_use_type_backend11bind_by_posERiPvNS_7details13exchange_typeEb
libsoci_postgresql.so.4.0:_ZN4soci36postgresql_standard_use_type_backend12bind_by_nameERKNSt7__cxx1112basic_stringIcSt11char_traitsIcESaIcEEEPvNS_7details13exchange_typeEb
libsoci_postgresql.so.4.0:_ZN4soci36postgresql_standard_use_type_backend16copy_from_stringERKNSt7__cxx1112basic_stringIcSt11char_traitsIcESaIcEEE
libsoci_postgresql.so.4.0:_ZN4soci36postgresql_standard_use_type_backend7pre_useEPKNS_9indicatorE
libsoci_postgresql.so.4.0:_ZN4soci36postgresql_standard_use_type_backend8clean_upEv
libsoci_postgresql.so.4.0:_ZN4soci36postgresql_standard_use_type_backend8post_useEbPNS_9indicatorE
libsoci_postgresql.so.4.0:_ZN4soci37postgresql_standard_into_type_backend10post_fetchEbbPNS_9indicatorE
libsoci_postgresql.so.4.0:_ZN4soci37postgresql_standard_into_type_backend13define_by_posERiPvNS_7details13exchange_typeE
libsoci_postgresql.so.4.0:_ZN4soci37postgresql_standard_into_type_backend8clean_upEv
libsoci_postgresql.so.4.0:_ZN4soci37postgresql_standard_into_type_backend9pre_fetchEv
libsoci_postgresql.so.4.0:_ZNK4soci21postgresql_soci_error8sqlstateB5cxx11Ev
libsoci_postgresql.so.4.0:_ZNK4soci26postgresql_backend_factory12make_sessionERKNS_21connection_parametersE
libsoci_postgresql.so.4.0:_ZNK4soci28postgresql_statement_backend18get_parameter_nameB5cxx11Ei
libsoci_postgresql.so.4.0:_ZNK4soci7details17postgresql_result14check_for_dataEPKc
libsoci_postgresql.so.4.0:_ZNK4soci7details17postgresql_result16check_for_errorsEPKc
libsoci_postgresql.so.4.0:factory_postgresql
libsoci_postgresql.so.4.0:register_factory_postgresql
libsoci_sqlite3.so.4.0:_ZN4soci18sqlite3_soci_errorC1ERKNSt7__cxx1112basic_stringIcSt11char_traitsIcESaIcEEEi
libsoci_sqlite3.so.4.0:_ZN4soci18sqlite3_soci_errorC2ERKNSt7__cxx1112basic_stringIcSt11char_traitsIcESaIcEEEi
libsoci_sqlite3.so.4.0:_ZN4soci20sqlite3_blob_backend4readEmPcm
libsoci_sqlite3.so.4.0:_ZN4soci20sqlite3_blob_backend4trimEm
libsoci_sqlite3.so.4.0:_ZN4soci20sqlite3_blob_backend5writeEmPKcm
libsoci_sqlite3.so.4.0:_ZN4soci20sqlite3_blob_backend6appendEPKcm
libsoci_sqlite3.so.4.0:_ZN4soci20sqlite3_blob_backend7get_lenEv
libsoci_sqlite3.so.4.0:_ZN4soci20sqlite3_blob_backend8set_dataEPKcm
libsoci_sqlite3.so.4.0:_ZN4soci20sqlite3_blob_backendC1ERNS_23sqlite3_session_backendE
libsoci_sqlite3.so.4.0:_ZN4soci20sqlite3_blob_backendC2ERNS_23sqlite3_session_backendE
libsoci_sqlite3.so.4.0:_ZN4soci20sqlite3_blob_backendD0Ev
libsoci_sqlite3.so.4.0:_ZN4soci20sqlite3_blob_backendD1Ev
libsoci_sqlite3.so.4.0:_ZN4soci20sqlite3_blob_backendD2Ev
libsoci_sqlite3.so.4.0:_ZN4soci21sqlite3_rowid_backendC1ERNS_23sqlite3_session_backendE
libsoci_sqlite3.so.4.0:_ZN4soci21sqlite3_rowid_backendC2ERNS_23sqlite3_session_backendE
libsoci_sqlite3.so.4.0:_ZN4soci21sqlite3_rowid_backendD0Ev
libsoci_sqlite3.so.4.0:_ZN4soci21sqlite3_rowid_backendD1Ev
libsoci_sqlite3.so.4.0:_ZN4soci21sqlite3_rowid_backendD2Ev
libsoci_sqlite3.so.4.0:_ZN4soci23sqlite3_session_backend17make_blob_backendEv
libsoci_sqlite3.so.4.0:_ZN4soci23sqlite3_session_backend18get_last_insert_idERNS_7sessionERKNSt7__cxx1112basic_stringIcSt11char_traitsIcESaIcEEERx
libsoci_sqlite3.so.4.0:_ZN4soci23sqlite3_session_backend18make_rowid_backendEv
libsoci_sqlite3.so.4.0:_ZN4soci23sqlite3_session_backend22make_statement_backendEv
libsoci_sqlite3.so.4.0:_ZN4soci23sqlite3_session_backend5beginEv
libsoci_sqlite3.so.4.0:_ZN4soci23sqlite3_session_backend6commitEv
libsoci_sqlite3.so.4.0:_ZN4soci23sqlite3_session_backend8clean_upEv
libsoci_sqlite3.so.4.0:_ZN4soci23sqlite3_session_backend8rollbackEv
libsoci_sqlite3.so.4.0:_ZN4soci23sqlite3_session_backendC1ERKNS_21connection_parametersE
libsoci_sqlite3.so.4.0:_ZN4soci23sqlite3_session_backendC2ERKNS_21connection_parametersE
libsoci_sqlite3.so.4.0:_ZN4soci23sqlite3_session_backendD0Ev
libsoci_sqlite3.so.4.0:_ZN4soci23sqlite3_session_backendD1Ev
libsoci_sqlite3.so.4.0:_ZN4soci23sqlite3_session_backendD2Ev
libsoci_sqlite3.so.4.0:_ZN4soci25sqlite3_statement_backend11load_rowsetEi
libsoci_sqlite3.so.4.0:_ZN4soci25sqlite3_statement_backend15describe_columnEiRNS_9data_typeERNSt7__cxx1112basic_stringIcSt11char_traitsIcESaIcEEE
libsoci_sqlite3.so.4.0:_ZN4soci25sqlite3_statement_backend15reset_if_neededEv
libsoci_sqlite3.so.4.0:_ZN4soci25sqlite3_statement_backend16bind_and_executeEi
libsoci_sqlite3.so.4.0:_ZN4soci25sqlite3_statement_backend17get_affected_rowsEv
libsoci_sqlite3.so.4.0:_ZN4soci25sqlite3_statement_backend18get_number_of_rowsEv
libsoci_sqlite3.so.4.0:_ZN4soci25sqlite3_statement_backend20prepare_for_describeEv
libsoci_sqlite3.so.4.0:_ZN4soci25sqlite3_statement_backend21make_use_type_backendEv
libsoci_sqlite3.so.4.0:_ZN4soci25sqlite3_statement_backend22make_into_type_backendEv
libsoci_sqlite3.so.4.0:_ZN4soci25sqlite3_statement_backend26rewrite_for_procedure_callERKNSt7__cxx1112basic_stringIcSt11char_traitsIcESaIcEEE
libsoci_sqlite3.so.4.0:_ZN4soci25sqlite3_statement_backend28make_vector_use_type_backendEv
libsoci_sqlite3.so.4.0:_ZN4soci25sqlite3_statement_backend29make_vector_into_type_backendEv
libsoci_sqlite3.so.4.0:_ZN4soci25sqlite3_statement_backend5allocEv
libsoci_sqlite3.so.4.0:_ZN4soci25sqlite3_statement_backend5fetchEi
libsoci_sqlite3.so.4.0:_ZN4soci25sqlite3_statement_backend5resetEv
libsoci_sqlite3.so.4.0:_ZN4soci25sqlite3_statement_backend7executeEi
libsoci_sqlite3.so.4.0:_ZN4soci25sqlite3_statement_backend7prepareERKNSt7__cxx1112basic_stringIcSt11char_traitsIcESaIcEEENS_7details14statement_typeE
libsoci_sqlite3.so.4.0:_ZN4soci25sqlite3_statement_backend8clean_upEv
libsoci_sqlite3.so.4.0:_ZN4soci25sqlite3_statement_backend8load_oneEv
libsoci_sqlite3.so.4.0:_ZN4soci25sqlite3_statement_backendC1ERNS_23sqlite3_session_backendE
libsoci_sqlite3.so.4.0:_ZN4soci25sqlite3_statement_backendC2ERNS_23sqlite3_session_backendE
libsoci_sqlite3.so.4.0:_ZN4soci31sqlite3_vector_use_type_backend11bind_by_posERiPvNS_7details13exchange_typeE
libsoci_sqlite3.so.4.0:_ZN4soci31sqlite3_vector_use_type_backend12bind_by_nameERKNSt7__cxx1112basic_stringIcSt11char_traitsIcESaIcEEEPvNS_7details13exchange_typeE
libsoci_sqlite3.so.4.0:_ZN4soci31sqlite3_vector_use_type_backend4sizeEv
libsoci_sqlite3.so.4.0:_ZN4soci31sqlite3_vector_use_type_backend7pre_useEPKNS_9indicatorE
libsoci_sqlite3.so.4.0:_ZN4soci31sqlite3_vector_use_type_backend8clean_upEv
libsoci_sqlite3.so.4.0:_ZN4soci32sqlite3_vector_into_type_backend10post_fetchEbPNS_9indicatorE
libsoci_sqlite3.so.4.0:_ZN4soci32sqlite3_vector_into_type_backend13define_by_posERiPvNS_7details13exchange_typeE
libsoci_sqlite3.so.4.0:_ZN4soci32sqlite3_vector_into_type_backend4sizeEv
libsoci_sqlite3.so.4.0:_ZN4soci32sqlite3_vector_into_type_backend6resizeEm
libsoci_sqlite3.so.4.0:_ZN4soci32sqlite3_vector_into_type_backend8clean_upEv
libsoci_sqlite3.so.4.0:_ZN4soci32sqlite3_vector_into_type_backend9pre_fetchEv
libsoci_sqlite3.so.4.0:_ZN4soci33sqlite3_standard_use_type_backend11bind_by_posERiPvNS_7details13exchange_typeEb
libsoci_sqlite3.so.4.0:_ZN4soci33sqlite3_standard_use_type_backend12bind_by_nameERKNSt7__cxx1112basic_stringIcSt11char_traitsIcESaIcEEEPvNS_7details13exchange_typeEb
libsoci_sqlite3.so.4.0:_ZN4soci33sqlite3_standard_use_type_backend7pre_useEPKNS_9indicatorE
libsoci_sqlite3.so.4.0:_ZN4soci33sqlite3_standard_use_type_backend8clean_upEv
libsoci_sqlite3.so.4.0:_ZN4soci33sqlite3_standard_use_type_backend8post_useEbPNS_9indicatorE
libsoci_sqlite3.so.4.0:_ZN4soci33sqlite3_standard_use_type_backendC1ERNS_25sqlite3_statement_backendE
libsoci_sqlite3.so.4.0:_ZN4soci33sqlite3_standard_use_type_backendC2ERNS_25sqlite3_statement_backendE
libsoci_sqlite3.so.4.0:_ZN4soci34sqlite3_standard_into_type_backend10post_fetchEbbPNS_9indicatorE
libsoci_sqlite3.so.4.0:_ZN4soci34sqlite3_standard_into_type_backend13define_by_posERiPvNS_7details13exchange_typeE
libsoci_sqlite3.so.4.0:_ZN4soci34sqlite3_standard_into_type_backend8clean_upEv
libsoci_sqlite3.so.4.0:_ZN4soci34sqlite3_standard_into_type_backend9pre_fetchEv
libsoci_sqlite3.so.4.0:_ZN4soci7sqlite3E
libsoci_sqlite3.so.4.0:_ZNK4soci18sqlite3_soci_error6resultEv
libsoci_sqlite3.so.4.0:_ZNK4soci23sqlite3_backend_factory12make_sessionERKNS_21connection_parametersE
libsoci_sqlite3.so.4.0:_ZNK4soci25sqlite3_statement_backend18get_parameter_nameB5cxx11Ei
libsoci_sqlite3.so.4.0:factory_sqlite3
libsoci_sqlite3.so.4.0:register_factory_sqlite3
