UNKNOWN:_ZTIN10MailCommon12ScheduledJobE
UNKNOWN:_ZTIN10MailCommon13ScheduledTaskE
UNKNOWN:_ZTIN10MailCommon15FolderRequesterE
UNKNOWN:_ZTIN10MailCommon17SearchPatternEditE
UNKNOWN:_ZTIN10MailCommon25ExpireCollectionAttributeE
UNKNOWN:_ZTIN11MessageList12StorageModelE
UNKNOWN:_ZTIN11MessageList4PaneE
UNKNOWN:_ZTIN12KPIMTextEdit15PlainTextEditorE
UNKNOWN:_ZTIN13KCalendarCore4TodoE
UNKNOWN:_ZTIN13KCalendarCore9IncidenceE
UNKNOWN:_ZTIN13MailTransport18TransportAttributeE
UNKNOWN:_ZTIN13MailTransport22SentBehaviourAttributeE
UNKNOWN:_ZTIN15MessageComposer18RichTextComposerNgE
UNKNOWN:_ZTIN15MessageComposer24AttachmentControllerBaseE
UNKNOWN:_ZTIN15MessageComposer9RecipientE
UNKNOWN:_ZTIN16KontactInterface16UniqueAppHandlerE
UNKNOWN:_ZTIN16KontactInterface20PimUniqueApplicationE
UNKNOWN:_ZTIN16KontactInterface6PluginE
UNKNOWN:_ZTIN16KontactInterface7SummaryE
UNKNOWN:_ZTIN4Kleo17KeySelectionComboE
UNKNOWN:_ZTIN6QGpgME3JobE
UNKNOWN:_ZTIN7Akonadi12MessageModelE
UNKNOWN:_ZTIN7Akonadi12ResourceBaseE
UNKNOWN:_ZTIN7Akonadi16PayloadExceptionE
UNKNOWN:_ZTIN7Akonadi21Pop3ResourceAttributeE
UNKNOWN:_ZTIN7Akonadi22AgentConfigurationBaseE
UNKNOWN:_ZTIN7Akonadi22EntityDisplayAttributeE
UNKNOWN:_ZTIN7Akonadi22MessageFolderAttributeE
UNKNOWN:_ZTIN7Akonadi24CollectionPropertiesPageE
UNKNOWN:_ZTIN7Akonadi24CollectionQuotaAttributeE
UNKNOWN:_ZTIN7Akonadi24NewMailNotifierAttributeE
UNKNOWN:_ZTIN7Akonadi26SpecialCollectionAttributeE
UNKNOWN:_ZTIN7Akonadi29AgentConfigurationFactoryBaseE
UNKNOWN:_ZTIN7Akonadi31CollectionPropertiesPageFactoryE
UNKNOWN:_ZTIN7Akonadi9AgentBase10ObserverV3E
UNKNOWN:_ZTIN7Akonadi9AgentBaseE
UNKNOWN:_ZTIN7Akonadi9AttributeE
UNKNOWN:_ZTIN8KSieveUi26SieveImapInstanceInterfaceE
UNKNOWN:_ZTIN9PimCommon15PluginInterfaceE
UNKNOWN:_ZTIN9PimCommon17PurposeMenuWidgetE
UNKNOWN:_ZTIN9PimCommon26ConfigurePluginsListWidgetE
UNKNOWN:_ZTVN10MailCommon16SearchRuleStatusE
UNKNOWN:_ZTVN10MailCommon25ExpireCollectionAttributeE
UNKNOWN:_ZTVN7Akonadi12MessageModelE
UNKNOWN:_ZTVN7Akonadi16PayloadExceptionE
UNKNOWN:_ZTVN7Akonadi26EntityAnnotationsAttributeE
UNKNOWN:_ZTVN7Akonadi29AgentConfigurationFactoryBaseE
UNKNOWN:_ZTVN7Akonadi9AgentBase10ObserverV2E
libKF5AkonadiAgentBase.so.5:_ZN7Akonadi12ResourceBase11doSetOnlineEb
libKF5AkonadiAgentBase.so.5:_ZN7Akonadi12ResourceBase11qt_metacallEN11QMetaObject4CallEiPPv
libKF5AkonadiAgentBase.so.5:_ZN7Akonadi12ResourceBase11qt_metacastEPKc
libKF5AkonadiAgentBase.so.5:_ZN7Akonadi12ResourceBase11synchronizeEv
libKF5AkonadiAgentBase.so.5:_ZN7Akonadi12ResourceBase12retrieveTagsEv
libKF5AkonadiAgentBase.so.5:_ZN7Akonadi12ResourceBase13abortActivityEv
libKF5AkonadiAgentBase.so.5:_ZN7Akonadi12ResourceBase13retrieveItemsERK7QVectorINS_4ItemEERK4QSetI10QByteArrayE
libKF5AkonadiAgentBase.so.5:_ZN7Akonadi12ResourceBase14itemsRetrievedERK7QVectorINS_4ItemEE
libKF5AkonadiAgentBase.so.5:_ZN7Akonadi12ResourceBase14parseArgumentsEiPPc
libKF5AkonadiAgentBase.so.5:_ZN7Akonadi12ResourceBase16staticMetaObjectE
libKF5AkonadiAgentBase.so.5:_ZN7Akonadi12ResourceBase17retrieveRelationsEv
libKF5AkonadiAgentBase.so.5:_ZN7Akonadi12ResourceBase20collectionsRetrievedERK7QVectorINS_10CollectionEE
libKF5AkonadiAgentBase.so.5:_ZN7Akonadi12ResourceBase21synchronizeCollectionEx
libKF5AkonadiAgentBase.so.5:_ZN7Akonadi12ResourceBase25itemsRetrievedIncrementalERK7QVectorINS_4ItemEES5_
libKF5AkonadiAgentBase.so.5:_ZN7Akonadi12ResourceBase28retrieveCollectionAttributesERKNS_10CollectionE
libKF5AkonadiAgentBase.so.5:_ZN7Akonadi12ResourceBase4initERS0_
libKF5AkonadiAgentBase.so.5:_ZN7Akonadi12ResourceBaseC2ERK7QString
libKF5AkonadiAgentBase.so.5:_ZN7Akonadi12ResourceBaseD2Ev
libKF5AkonadiAgentBase.so.5:_ZN7Akonadi9AgentBase10ObserverV210itemLinkedERKNS_4ItemERKNS_10CollectionE
libKF5AkonadiAgentBase.so.5:_ZN7Akonadi9AgentBase10ObserverV212itemUnlinkedERKNS_4ItemERKNS_10CollectionE
libKF5AkonadiAgentBase.so.5:_ZN7Akonadi9AgentBase10ObserverV215collectionMovedERKNS_10CollectionES4_S4_
libKF5AkonadiAgentBase.so.5:_ZN7Akonadi9AgentBase10ObserverV217collectionChangedERKNS_10CollectionERK4QSetI10QByteArrayE
libKF5AkonadiAgentBase.so.5:_ZN7Akonadi9AgentBase10ObserverV29itemMovedERKNS_4ItemERKNS_10CollectionES7_
libKF5AkonadiAgentBase.so.5:_ZN7Akonadi9AgentBase10ObserverV310itemsMovedERK7QVectorINS_4ItemEERKNS_10CollectionES9_
libKF5AkonadiAgentBase.so.5:_ZN7Akonadi9AgentBase10ObserverV311itemsLinkedERK7QVectorINS_4ItemEERKNS_10CollectionE
libKF5AkonadiAgentBase.so.5:_ZN7Akonadi9AgentBase10ObserverV312itemsRemovedERK7QVectorINS_4ItemEE
libKF5AkonadiAgentBase.so.5:_ZN7Akonadi9AgentBase10ObserverV313itemsUnlinkedERK7QVectorINS_4ItemEERKNS_10CollectionE
libKF5AkonadiAgentBase.so.5:_ZN7Akonadi9AgentBase10ObserverV317itemsFlagsChangedERK7QVectorINS_4ItemEERK4QSetI10QByteArrayESB_
libKF5AkonadiAgentBase.so.5:_ZN7Akonadi9AgentBase10debugAgentEiPPc
libKF5AkonadiAgentBase.so.5:_ZN7Akonadi9AgentBase11aboutToQuitEv
libKF5AkonadiAgentBase.so.5:_ZN7Akonadi9AgentBase11doSetOnlineEb
libKF5AkonadiAgentBase.so.5:_ZN7Akonadi9AgentBase11qt_metacallEN11QMetaObject4CallEiPPv
libKF5AkonadiAgentBase.so.5:_ZN7Akonadi9AgentBase11qt_metacastEPKc
libKF5AkonadiAgentBase.so.5:_ZN7Akonadi9AgentBase12setAgentNameERK7QString
libKF5AkonadiAgentBase.so.5:_ZN7Akonadi9AgentBase14parseArgumentsEiPPc
libKF5AkonadiAgentBase.so.5:_ZN7Akonadi9AgentBase15setNeedsNetworkEb
libKF5AkonadiAgentBase.so.5:_ZN7Akonadi9AgentBase16registerObserverEPNS0_8ObserverE
libKF5AkonadiAgentBase.so.5:_ZN7Akonadi9AgentBase16staticMetaObjectE
libKF5AkonadiAgentBase.so.5:_ZN7Akonadi9AgentBase19reloadConfigurationEv
libKF5AkonadiAgentBase.so.5:_ZN7Akonadi9AgentBase27configurationDialogAcceptedEv
libKF5AkonadiAgentBase.so.5:_ZN7Akonadi9AgentBase4initERS0_
libKF5AkonadiAgentBase.so.5:_ZN7Akonadi9AgentBase6configEv
libKF5AkonadiAgentBase.so.5:_ZN7Akonadi9AgentBase6statusEiRK7QString
libKF5AkonadiAgentBase.so.5:_ZN7Akonadi9AgentBase7cleanupEv
libKF5AkonadiAgentBase.so.5:_ZN7Akonadi9AgentBase7percentEi
libKF5AkonadiAgentBase.so.5:_ZN7Akonadi9AgentBase8Observer11itemChangedERKNS_4ItemERK4QSetI10QByteArrayE
libKF5AkonadiAgentBase.so.5:_ZN7Akonadi9AgentBase8Observer11itemRemovedERKNS_4ItemE
libKF5AkonadiAgentBase.so.5:_ZN7Akonadi9AgentBase8Observer15collectionAddedERKNS_10CollectionES4_
libKF5AkonadiAgentBase.so.5:_ZN7Akonadi9AgentBase8Observer17collectionChangedERKNS_10CollectionE
libKF5AkonadiAgentBase.so.5:_ZN7Akonadi9AgentBase8Observer17collectionRemovedERKNS_10CollectionE
libKF5AkonadiAgentBase.so.5:_ZN7Akonadi9AgentBase8Observer9itemAddedERKNS_4ItemERKNS_10CollectionE
libKF5AkonadiAgentBase.so.5:_ZN7Akonadi9AgentBase8ObserverC2Ev
libKF5AkonadiAgentBase.so.5:_ZN7Akonadi9AgentBase8ObserverD2Ev
libKF5AkonadiAgentBase.so.5:_ZN7Akonadi9AgentBase9configureEy
libKF5AkonadiAgentBase.so.5:_ZN7Akonadi9AgentBase9setOnlineEb
libKF5AkonadiAgentBase.so.5:_ZN7Akonadi9AgentBaseC2ERK7QString
libKF5AkonadiAgentBase.so.5:_ZN7Akonadi9AgentBaseD2Ev
libKF5AkonadiAgentBase.so.5:_ZNK7Akonadi9AgentBase10identifierEv
libKF5AkonadiAgentBase.so.5:_ZNK7Akonadi9AgentBase13statusMessageEv
libKF5AkonadiAgentBase.so.5:_ZNK7Akonadi9AgentBase14changeRecorderEv
libKF5AkonadiAgentBase.so.5:_ZNK7Akonadi9AgentBase15progressMessageEv
libKF5AkonadiAgentBase.so.5:_ZNK7Akonadi9AgentBase6statusEv
libKF5AkonadiAgentBase.so.5:_ZNK7Akonadi9AgentBase8isOnlineEv
libKF5AkonadiAgentBase.so.5:_ZNK7Akonadi9AgentBase8progressEv
libKF5AkonadiAgentBase.so.5:_ZNK7Akonadi9AgentBase9aboutDataEv
libKF5AkonadiContact.so.5:_ZN7Akonadi16ContactSearchJob16staticMetaObjectE
libKF5AkonadiContact.so.5:_ZN7Akonadi16ContactSearchJob8setLimitEi
libKF5AkonadiContact.so.5:_ZN7Akonadi16ContactSearchJob8setQueryENS0_9CriterionERK7QStringNS0_5MatchE
libKF5AkonadiContact.so.5:_ZN7Akonadi16ContactSearchJobC1EP7QObject
libKF5AkonadiContact.so.5:_ZN7Akonadi17ContactsTreeModelC1EPNS_7MonitorEP7QObject
libKF5AkonadiContact.so.5:_ZN7Akonadi18AddEmailAddressJob14setInteractiveEb
libKF5AkonadiContact.so.5:_ZN7Akonadi18AddEmailAddressJob14successMessageERK7QString
libKF5AkonadiContact.so.5:_ZN7Akonadi18AddEmailAddressJob16staticMetaObjectE
libKF5AkonadiContact.so.5:_ZN7Akonadi18AddEmailAddressJobC1ERK7QStringP7QWidgetP7QObject
libKF5AkonadiContact.so.5:_ZN7Akonadi18AddEmailDisplayJob10setContactERKNS_4ItemE
libKF5AkonadiContact.so.5:_ZN7Akonadi18AddEmailDisplayJob12setMessageIdEx
libKF5AkonadiContact.so.5:_ZN7Akonadi18AddEmailDisplayJob13setShowAsHTMLEb
libKF5AkonadiContact.so.5:_ZN7Akonadi18AddEmailDisplayJob14contactUpdatedERKNS_4ItemExbb
libKF5AkonadiContact.so.5:_ZN7Akonadi18AddEmailDisplayJob16setRemoteContentEb
libKF5AkonadiContact.so.5:_ZN7Akonadi18AddEmailDisplayJob16staticMetaObjectE
libKF5AkonadiContact.so.5:_ZN7Akonadi18AddEmailDisplayJobC1ERK7QStringP7QWidgetP7QObject
libKF5AkonadiContact.so.5:_ZN7Akonadi19ContactEditorDialog10setContactERKNS_4ItemE
libKF5AkonadiContact.so.5:_ZN7Akonadi19ContactEditorDialog13contactStoredERKNS_4ItemE
libKF5AkonadiContact.so.5:_ZN7Akonadi19ContactEditorDialog16staticMetaObjectE
libKF5AkonadiContact.so.5:_ZN7Akonadi19ContactEditorDialog5errorERK7QString
libKF5AkonadiContact.so.5:_ZN7Akonadi19ContactEditorDialogC1ENS0_4ModeEP7QWidget
libKF5AkonadiContact.so.5:_ZN7Akonadi19OpenEmailAddressJob5startEv
libKF5AkonadiContact.so.5:_ZN7Akonadi19OpenEmailAddressJobC1ERK7QStringP7QWidgetP7QObject
libKF5AkonadiContact.so.5:_ZN7Akonadi20AkonadiContactEditor18setContactTemplateERKN9KContacts9AddresseeE
libKF5AkonadiContact.so.5:_ZN7Akonadi20AkonadiContactEditor7contactEv
libKF5AkonadiContact.so.5:_ZN7Akonadi20AkonadiContactEditorC1ENS0_4ModeENS0_11DisplayModeEP7QWidget
libKF5AkonadiContact.so.5:_ZN7Akonadi21ContactGroupExpandJob16staticMetaObjectE
libKF5AkonadiContact.so.5:_ZN7Akonadi21ContactGroupExpandJobC1ERKN9KContacts12ContactGroupEP7QObject
libKF5AkonadiContact.so.5:_ZN7Akonadi21EmailAddressSelectionD1Ev
libKF5AkonadiContact.so.5:_ZN7Akonadi27EmailAddressSelectionWidgetC1EbP18QAbstractItemModelP7QWidget
libKF5AkonadiContact.so.5:_ZNK7Akonadi16ContactSearchJob8contactsEv
libKF5AkonadiContact.so.5:_ZNK7Akonadi21ContactGroupExpandJob8contactsEv
libKF5AkonadiContact.so.5:_ZNK7Akonadi21EmailAddressSelection4itemEv
libKF5AkonadiContact.so.5:_ZNK7Akonadi27EmailAddressSelectionWidget17selectedAddressesEv
libKF5AkonadiContact.so.5:_ZNK7Akonadi27EmailAddressSelectionWidget4viewEv
libKF5AkonadiCore.so.5:_ZN7Akonadi10Collection10setVirtualEb
libKF5AkonadiCore.so.5:_ZN7Akonadi10Collection11setRemoteIdERK7QString
libKF5AkonadiCore.so.5:_ZN7Akonadi10Collection12addAttributeEPNS_9AttributeE
libKF5AkonadiCore.so.5:_ZN7Akonadi10Collection16parentCollectionEv
libKF5AkonadiCore.so.5:_ZN7Akonadi10Collection19setContentMimeTypesERK11QStringList
libKF5AkonadiCore.so.5:_ZN7Akonadi10Collection19setParentCollectionERKS0_
libKF5AkonadiCore.so.5:_ZN7Akonadi10Collection21markAttributeModifiedERK10QByteArray
libKF5AkonadiCore.so.5:_ZN7Akonadi10Collection4rootEv
libKF5AkonadiCore.so.5:_ZN7Akonadi10Collection7fromUrlERK4QUrl
libKF5AkonadiCore.so.5:_ZN7Akonadi10Collection7setNameERK7QString
libKF5AkonadiCore.so.5:_ZN7Akonadi10Collection8mimeTypeEv
libKF5AkonadiCore.so.5:_ZN7Akonadi10Collection9attributeERK10QByteArray
libKF5AkonadiCore.so.5:_ZN7Akonadi10Collection9setRightsE6QFlagsINS0_5RightEE
libKF5AkonadiCore.so.5:_ZN7Akonadi10CollectionC1EOS0_
libKF5AkonadiCore.so.5:_ZN7Akonadi10CollectionC1ERKS0_
libKF5AkonadiCore.so.5:_ZN7Akonadi10CollectionC1Ev
libKF5AkonadiCore.so.5:_ZN7Akonadi10CollectionC1Ex
libKF5AkonadiCore.so.5:_ZN7Akonadi10CollectionD1Ev
libKF5AkonadiCore.so.5:_ZN7Akonadi10CollectionaSERKS0_
libKF5AkonadiCore.so.5:_ZN7Akonadi11CachePolicyD1Ev
libKF5AkonadiCore.so.5:_ZN7Akonadi11ItemCopyJob16staticMetaObjectE
libKF5AkonadiCore.so.5:_ZN7Akonadi11ItemCopyJobC1ERK7QVectorINS_4ItemEERKNS_10CollectionEP7QObject
libKF5AkonadiCore.so.5:_ZN7Akonadi11ItemCopyJobC1ERKNS_4ItemERKNS_10CollectionEP7QObject
libKF5AkonadiCore.so.5:_ZN7Akonadi11ItemMoveJob16staticMetaObjectE
libKF5AkonadiCore.so.5:_ZN7Akonadi11ItemMoveJobC1ERK7QVectorINS_4ItemEERKNS_10CollectionEP7QObject
libKF5AkonadiCore.so.5:_ZN7Akonadi11ItemMoveJobC1ERKNS_4ItemERKNS_10CollectionEP7QObject
libKF5AkonadiCore.so.5:_ZN7Akonadi11SearchQueryC1ENS_10SearchTerm8RelationE
libKF5AkonadiCore.so.5:_ZN7Akonadi11SearchQueryD1Ev
libKF5AkonadiCore.so.5:_ZN7Akonadi11SearchQueryaSERKS0_
libKF5AkonadiCore.so.5:_ZN7Akonadi11TagFetchJob10fetchScopeEv
libKF5AkonadiCore.so.5:_ZN7Akonadi11TagFetchJobC1EP7QObject
libKF5AkonadiCore.so.5:_ZN7Akonadi12AgentManager13instanceAddedERKNS_13AgentInstanceE
libKF5AkonadiCore.so.5:_ZN7Akonadi12AgentManager13instanceErrorERKNS_13AgentInstanceERK7QString
libKF5AkonadiCore.so.5:_ZN7Akonadi12AgentManager15instanceRemovedERKNS_13AgentInstanceE
libKF5AkonadiCore.so.5:_ZN7Akonadi12AgentManager15instanceWarningERKNS_13AgentInstanceERK7QString
libKF5AkonadiCore.so.5:_ZN7Akonadi12AgentManager16staticMetaObjectE
libKF5AkonadiCore.so.5:_ZN7Akonadi12AgentManager19instanceNameChangedERKNS_13AgentInstanceE
libKF5AkonadiCore.so.5:_ZN7Akonadi12AgentManager21instanceStatusChangedERKNS_13AgentInstanceE
libKF5AkonadiCore.so.5:_ZN7Akonadi12AgentManager21synchronizeCollectionERKNS_10CollectionEb
libKF5AkonadiCore.so.5:_ZN7Akonadi12AgentManager4selfEv
libKF5AkonadiCore.so.5:_ZN7Akonadi12ItemFetchJob10fetchScopeEv
libKF5AkonadiCore.so.5:_ZN7Akonadi12ItemFetchJob13itemsReceivedERK7QVectorINS_4ItemEE
libKF5AkonadiCore.so.5:_ZN7Akonadi12ItemFetchJob13setFetchScopeERKNS_14ItemFetchScopeE
libKF5AkonadiCore.so.5:_ZN7Akonadi12ItemFetchJob16staticMetaObjectE
libKF5AkonadiCore.so.5:_ZN7Akonadi12ItemFetchJob17setDeliveryOptionE6QFlagsINS0_14DeliveryOptionEE
libKF5AkonadiCore.so.5:_ZN7Akonadi12ItemFetchJobC1ERK7QVectorINS_4ItemEEP7QObject
libKF5AkonadiCore.so.5:_ZN7Akonadi12ItemFetchJobC1ERKNS_10CollectionEP7QObject
libKF5AkonadiCore.so.5:_ZN7Akonadi12ItemFetchJobC1ERKNS_4ItemEP7QObject
libKF5AkonadiCore.so.5:_ZN7Akonadi12TagAttributeC1Ev
libKF5AkonadiCore.so.5:_ZN7Akonadi12TagAttributeD1Ev
libKF5AkonadiCore.so.5:_ZN7Akonadi12TagCreateJobC1ERKNS_3TagEP7QObject
libKF5AkonadiCore.so.5:_ZN7Akonadi12TagDeleteJobC1ERKNS_3TagEP7QObject
libKF5AkonadiCore.so.5:_ZN7Akonadi12TagModifyJobC1ERKNS_3TagEP7QObject
libKF5AkonadiCore.so.5:_ZN7Akonadi13AgentInstance11setIsOnlineEb
libKF5AkonadiCore.so.5:_ZN7Akonadi13AgentInstance11synchronizeEv
libKF5AkonadiCore.so.5:_ZN7Akonadi13AgentInstance9configureEP7QWidget
libKF5AkonadiCore.so.5:_ZN7Akonadi13AgentInstanceC1ERKS0_
libKF5AkonadiCore.so.5:_ZN7Akonadi13AgentInstanceC1Ev
libKF5AkonadiCore.so.5:_ZN7Akonadi13AgentInstanceD1Ev
libKF5AkonadiCore.so.5:_ZN7Akonadi13ItemCreateJobC1ERKNS_4ItemERKNS_10CollectionEP7QObject
libKF5AkonadiCore.so.5:_ZN7Akonadi13ItemDeleteJobC1ERK7QVectorINS_4ItemEEP7QObject
libKF5AkonadiCore.so.5:_ZN7Akonadi13ItemDeleteJobC1ERKNS_4ItemEP7QObject
libKF5AkonadiCore.so.5:_ZN7Akonadi13ItemModifyJob16setIgnorePayloadEb
libKF5AkonadiCore.so.5:_ZN7Akonadi13ItemModifyJob20disableRevisionCheckEv
libKF5AkonadiCore.so.5:_ZN7Akonadi13ItemModifyJobC1ERK7QVectorINS_4ItemEEP7QObject
libKF5AkonadiCore.so.5:_ZN7Akonadi13ItemModifyJobC1ERKNS_4ItemEP7QObject
libKF5AkonadiCore.so.5:_ZN7Akonadi13ServerManager12stateChangedENS0_5StateE
libKF5AkonadiCore.so.5:_ZN7Akonadi13ServerManager16agentServiceNameENS0_16ServiceAgentTypeERK7QString
libKF5AkonadiCore.so.5:_ZN7Akonadi13ServerManager16staticMetaObjectE
libKF5AkonadiCore.so.5:_ZN7Akonadi13ServerManager4selfEv
libKF5AkonadiCore.so.5:_ZN7Akonadi13ServerManager5stateEv
libKF5AkonadiCore.so.5:_ZN7Akonadi13TagFetchScope14fetchAttributeERK10QByteArrayb
libKF5AkonadiCore.so.5:_ZN7Akonadi14ChangeRecorder10replayNextEv
libKF5AkonadiCore.so.5:_ZN7Akonadi14ChangeRecorder12changesAddedEv
libKF5AkonadiCore.so.5:_ZN7Akonadi14ChangeRecorder15changeProcessedEv
libKF5AkonadiCore.so.5:_ZN7Akonadi14ChangeRecorder16staticMetaObjectE
libKF5AkonadiCore.so.5:_ZN7Akonadi14ChangeRecorder25setChangeRecordingEnabledEb
libKF5AkonadiCore.so.5:_ZN7Akonadi14ChangeRecorder9setConfigEP9QSettings
libKF5AkonadiCore.so.5:_ZN7Akonadi14ChangeRecorderC1EP7QObject
libKF5AkonadiCore.so.5:_ZN7Akonadi14ChangeRecorderD1Ev
libKF5AkonadiCore.so.5:_ZN7Akonadi14ItemFetchScope12setCacheOnlyEb
libKF5AkonadiCore.so.5:_ZN7Akonadi14ItemFetchScope14fetchAttributeERK10QByteArrayb
libKF5AkonadiCore.so.5:_ZN7Akonadi14ItemFetchScope16fetchFullPayloadEb
libKF5AkonadiCore.so.5:_ZN7Akonadi14ItemFetchScope16fetchPayloadPartERK10QByteArrayb
libKF5AkonadiCore.so.5:_ZN7Akonadi14ItemFetchScope18fetchAllAttributesEb
libKF5AkonadiCore.so.5:_ZN7Akonadi14ItemFetchScope20setAncestorRetrievalENS0_17AncestorRetrievalE
libKF5AkonadiCore.so.5:_ZN7Akonadi14ItemFetchScope24setFetchModificationTimeEb
libKF5AkonadiCore.so.5:_ZN7Akonadi14ItemFetchScope25setFetchVirtualReferencesEb
libKF5AkonadiCore.so.5:_ZN7Akonadi14ItemFetchScope28setFetchRemoteIdentificationEb
libKF5AkonadiCore.so.5:_ZN7Akonadi14ItemFetchScopeC1Ev
libKF5AkonadiCore.so.5:_ZN7Akonadi14ItemFetchScopeD1Ev
libKF5AkonadiCore.so.5:_ZN7Akonadi14ItemFetchScopeaSERKS0_
libKF5AkonadiCore.so.5:_ZN7Akonadi15EntityTreeModel10insertRowsEiiRK11QModelIndex
libKF5AkonadiCore.so.5:_ZN7Akonadi15EntityTreeModel10removeRowsEiiRK11QModelIndex
libKF5AkonadiCore.so.5:_ZN7Akonadi15EntityTreeModel12dropMimeDataEPK9QMimeDataN2Qt10DropActionEiiRK11QModelIndex
libKF5AkonadiCore.so.5:_ZN7Akonadi15EntityTreeModel13insertColumnsEiiRK11QModelIndex
libKF5AkonadiCore.so.5:_ZN7Akonadi15EntityTreeModel13removeColumnsEiiRK11QModelIndex
libKF5AkonadiCore.so.5:_ZN7Akonadi15EntityTreeModel13setListFilterENS_20CollectionFetchScope10ListFilterE
libKF5AkonadiCore.so.5:_ZN7Akonadi15EntityTreeModel16staticMetaObjectE
libKF5AkonadiCore.so.5:_ZN7Akonadi15EntityTreeModel17collectionFetchedEi
libKF5AkonadiCore.so.5:_ZN7Akonadi15EntityTreeModel17updatedCollectionEPK18QAbstractItemModelRKNS_10CollectionE
libKF5AkonadiCore.so.5:_ZN7Akonadi15EntityTreeModel22setCollectionMonitoredERKNS_10CollectionEb
libKF5AkonadiCore.so.5:_ZN7Akonadi15EntityTreeModel23modelIndexForCollectionEPK18QAbstractItemModelRKNS_10CollectionE
libKF5AkonadiCore.so.5:_ZN7Akonadi15EntityTreeModel25setItemPopulationStrategyENS0_22ItemPopulationStrategyE
libKF5AkonadiCore.so.5:_ZN7Akonadi15EntityTreeModel7setDataERK11QModelIndexRK8QVarianti
libKF5AkonadiCore.so.5:_ZN7Akonadi15EntityTreeModel9fetchMoreERK11QModelIndex
libKF5AkonadiCore.so.5:_ZN7Akonadi15EntityTreeModelC1EPNS_7MonitorEP7QObject
libKF5AkonadiCore.so.5:_ZN7Akonadi15EntityTreeModelD2Ev
libKF5AkonadiCore.so.5:_ZN7Akonadi15SearchCreateJob12setRecursiveEb
libKF5AkonadiCore.so.5:_ZN7Akonadi15SearchCreateJob16staticMetaObjectE
libKF5AkonadiCore.so.5:_ZN7Akonadi15SearchCreateJob18setSearchMimeTypesERK11QStringList
libKF5AkonadiCore.so.5:_ZN7Akonadi15SearchCreateJob20setSearchCollectionsERK7QVectorINS_10CollectionEE
libKF5AkonadiCore.so.5:_ZN7Akonadi15SearchCreateJob22setRemoteSearchEnabledEb
libKF5AkonadiCore.so.5:_ZN7Akonadi15SearchCreateJobC1ERK7QStringRKNS_11SearchQueryEP7QObject
libKF5AkonadiCore.so.5:_ZN7Akonadi16AttributeFactory17registerAttributeESt10unique_ptrINS_9AttributeESt14default_deleteIS2_EE
libKF5AkonadiCore.so.5:_ZN7Akonadi16AttributeFactory4selfEv
libKF5AkonadiCore.so.5:_ZN7Akonadi16PayloadExceptionD1Ev
libKF5AkonadiCore.so.5:_ZN7Akonadi18CollectionFetchJob10fetchScopeEv
libKF5AkonadiCore.so.5:_ZN7Akonadi18CollectionFetchJob16staticMetaObjectE
libKF5AkonadiCore.so.5:_ZN7Akonadi18CollectionFetchJob19collectionsReceivedERK7QVectorINS_10CollectionEE
libKF5AkonadiCore.so.5:_ZN7Akonadi18CollectionFetchJobC1ERKNS_10CollectionENS0_4TypeEP7QObject
libKF5AkonadiCore.so.5:_ZN7Akonadi19CollectionCreateJob16staticMetaObjectE
libKF5AkonadiCore.so.5:_ZN7Akonadi19CollectionCreateJobC1ERKNS_10CollectionEP7QObject
libKF5AkonadiCore.so.5:_ZN7Akonadi19CollectionDeleteJobC1ERKNS_10CollectionEP7QObject
libKF5AkonadiCore.so.5:_ZN7Akonadi19CollectionModifyJob16staticMetaObjectE
libKF5AkonadiCore.so.5:_ZN7Akonadi19CollectionModifyJobC1ERKNS_10CollectionEP7QObject
libKF5AkonadiCore.so.5:_ZN7Akonadi20CollectionFetchScope11setResourceERK7QString
libKF5AkonadiCore.so.5:_ZN7Akonadi20CollectionFetchScope14fetchAttributeERK10QByteArrayb
libKF5AkonadiCore.so.5:_ZN7Akonadi20CollectionFetchScope19setContentMimeTypesERK11QStringList
libKF5AkonadiCore.so.5:_ZN7Akonadi20CollectionFetchScope20setAncestorRetrievalENS0_17AncestorRetrievalE
libKF5AkonadiCore.so.5:_ZN7Akonadi20CollectionFetchScope20setIncludeStatisticsEb
libKF5AkonadiCore.so.5:_ZN7Akonadi20CollectionStatisticsC1ERKS0_
libKF5AkonadiCore.so.5:_ZN7Akonadi20CollectionStatisticsC1Ev
libKF5AkonadiCore.so.5:_ZN7Akonadi20CollectionStatisticsD1Ev
libKF5AkonadiCore.so.5:_ZN7Akonadi21AgentFilterProxyModel17addMimeTypeFilterERK7QString
libKF5AkonadiCore.so.5:_ZN7Akonadi21AgentFilterProxyModel19addCapabilityFilterERK7QString
libKF5AkonadiCore.so.5:_ZN7Akonadi21EntityHiddenAttributeC1Ev
libKF5AkonadiCore.so.5:_ZN7Akonadi21EntityHiddenAttributeD1Ev
libKF5AkonadiCore.so.5:_ZN7Akonadi21EntityOrderProxyModel14setOrderConfigERK12KConfigGroup
libKF5AkonadiCore.so.5:_ZN7Akonadi22AgentConfigurationBase11qt_metacallEN11QMetaObject4CallEiPPv
libKF5AkonadiCore.so.5:_ZN7Akonadi22AgentConfigurationBase11qt_metacastEPKc
libKF5AkonadiCore.so.5:_ZN7Akonadi22AgentConfigurationBase13setKAboutDataERK10KAboutData
libKF5AkonadiCore.so.5:_ZN7Akonadi22AgentConfigurationBase16staticMetaObjectE
libKF5AkonadiCore.so.5:_ZN7Akonadi22AgentConfigurationBaseC2ERK28QExplicitlySharedDataPointerI13KSharedConfigEP7QWidgetRK5QListI8QVariantE
libKF5AkonadiCore.so.5:_ZN7Akonadi22AgentConfigurationBaseD2Ev
libKF5AkonadiCore.so.5:_ZN7Akonadi22AgentInstanceCreateJob9configureEP7QWidget
libKF5AkonadiCore.so.5:_ZN7Akonadi22AgentInstanceCreateJobC1ERKNS_9AgentTypeEP7QObject
libKF5AkonadiCore.so.5:_ZN7Akonadi22EntityDisplayAttribute11setIconNameERK7QString
libKF5AkonadiCore.so.5:_ZN7Akonadi22EntityDisplayAttribute14setDisplayNameERK7QString
libKF5AkonadiCore.so.5:_ZN7Akonadi22EntityDisplayAttribute17setActiveIconNameERK7QString
libKF5AkonadiCore.so.5:_ZN7Akonadi22EntityDisplayAttributeC1Ev
libKF5AkonadiCore.so.5:_ZN7Akonadi22EntityDisplayAttributeD1Ev
libKF5AkonadiCore.so.5:_ZN7Akonadi24CollectionQuotaAttributeC1Ev
libKF5AkonadiCore.so.5:_ZN7Akonadi24CollectionQuotaAttributeD1Ev
libKF5AkonadiCore.so.5:_ZN7Akonadi24FavoriteCollectionsModel13addCollectionERKNS_10CollectionE
libKF5AkonadiCore.so.5:_ZN7Akonadi24FavoriteCollectionsModel16removeCollectionERKNS_10CollectionE
libKF5AkonadiCore.so.5:_ZN7Akonadi24FavoriteCollectionsModelC1EP18QAbstractItemModelRK12KConfigGroupP7QObject
libKF5AkonadiCore.so.5:_ZN7Akonadi25EntityMimeTypeFilterModel14setHeaderGroupENS_15EntityTreeModel11HeaderGroupE
libKF5AkonadiCore.so.5:_ZN7Akonadi25EntityMimeTypeFilterModel26addMimeTypeInclusionFilterERK7QString
libKF5AkonadiCore.so.5:_ZN7Akonadi25EntityMimeTypeFilterModelC1EP7QObject
libKF5AkonadiCore.so.5:_ZN7Akonadi25PersistentSearchAttribute12setRecursiveEb
libKF5AkonadiCore.so.5:_ZN7Akonadi25PersistentSearchAttribute14setQueryStringERK7QString
libKF5AkonadiCore.so.5:_ZN7Akonadi25PersistentSearchAttribute19setQueryCollectionsERK7QVectorINS_10CollectionEE
libKF5AkonadiCore.so.5:_ZN7Akonadi25PersistentSearchAttribute22setRemoteSearchEnabledEb
libKF5AkonadiCore.so.5:_ZN7Akonadi25PersistentSearchAttributeC1Ev
libKF5AkonadiCore.so.5:_ZN7Akonadi25PersistentSearchAttributeD1Ev
libKF5AkonadiCore.so.5:_ZN7Akonadi26SpecialCollectionAttributeC1ERK10QByteArray
libKF5AkonadiCore.so.5:_ZN7Akonadi26SpecialCollectionAttributeD1Ev
libKF5AkonadiCore.so.5:_ZN7Akonadi29AgentConfigurationFactoryBase11qt_metacallEN11QMetaObject4CallEiPPv
libKF5AkonadiCore.so.5:_ZN7Akonadi29AgentConfigurationFactoryBase11qt_metacastEPKc
libKF5AkonadiCore.so.5:_ZN7Akonadi29AgentConfigurationFactoryBase16staticMetaObjectE
libKF5AkonadiCore.so.5:_ZN7Akonadi29AgentConfigurationFactoryBaseC2EP7QObject
libKF5AkonadiCore.so.5:_ZN7Akonadi38CollectionAttributesSynchronizationJob16staticMetaObjectE
libKF5AkonadiCore.so.5:_ZN7Akonadi38CollectionAttributesSynchronizationJobC1ERKNS_10CollectionEP7QObject
libKF5AkonadiCore.so.5:_ZN7Akonadi3Job16staticMetaObjectE
libKF5AkonadiCore.so.5:_ZN7Akonadi3Tag5setIdEx
libKF5AkonadiCore.so.5:_ZN7Akonadi3Tag7fromUrlERK4QUrl
libKF5AkonadiCore.so.5:_ZN7Akonadi3TagC1EOS0_
libKF5AkonadiCore.so.5:_ZN7Akonadi3TagC1ERKS0_
libKF5AkonadiCore.so.5:_ZN7Akonadi3TagC1Ev
libKF5AkonadiCore.so.5:_ZN7Akonadi3TagC1Ex
libKF5AkonadiCore.so.5:_ZN7Akonadi3TagD1Ev
libKF5AkonadiCore.so.5:_ZN7Akonadi4Item11setMimeTypeERK7QString
libKF5AkonadiCore.so.5:_ZN7Akonadi4Item11setRemoteIdERK7QString
libKF5AkonadiCore.so.5:_ZN7Akonadi4Item15removeAttributeERK10QByteArray
libKF5AkonadiCore.so.5:_ZN7Akonadi4Item16parentCollectionEv
libKF5AkonadiCore.so.5:_ZN7Akonadi4Item16setPayloadBaseV2EiiRSt10unique_ptrINS_8Internal11PayloadBaseESt14default_deleteIS3_EE
libKF5AkonadiCore.so.5:_ZN7Akonadi4Item19setParentCollectionERKNS_10CollectionE
libKF5AkonadiCore.so.5:_ZN7Akonadi4Item6setTagERKNS_3TagE
libKF5AkonadiCore.so.5:_ZN7Akonadi4Item7fromUrlERK4QUrl
libKF5AkonadiCore.so.5:_ZN7Akonadi4Item7setFlagERK10QByteArray
libKF5AkonadiCore.so.5:_ZN7Akonadi4Item7setTagsERK7QVectorINS_3TagEE
libKF5AkonadiCore.so.5:_ZN7Akonadi4Item8clearTagERKNS_3TagE
libKF5AkonadiCore.so.5:_ZN7Akonadi4Item9attributeERK10QByteArray
libKF5AkonadiCore.so.5:_ZN7Akonadi4Item9clearFlagERK10QByteArray
libKF5AkonadiCore.so.5:_ZN7Akonadi4ItemC1EOS0_
libKF5AkonadiCore.so.5:_ZN7Akonadi4ItemC1ERKS0_
libKF5AkonadiCore.so.5:_ZN7Akonadi4ItemC1Ev
libKF5AkonadiCore.so.5:_ZN7Akonadi4ItemC1Ex
libKF5AkonadiCore.so.5:_ZN7Akonadi4ItemD1Ev
libKF5AkonadiCore.so.5:_ZN7Akonadi4ItemaSERKS0_
libKF5AkonadiCore.so.5:_ZN7Akonadi7LinkJobC1ERKNS_10CollectionERK7QVectorINS_4ItemEEP7QObject
libKF5AkonadiCore.so.5:_ZN7Akonadi7Monitor10itemsMovedERK7QVectorINS_4ItemEERKNS_10CollectionES8_
libKF5AkonadiCore.so.5:_ZN7Akonadi7Monitor10setSessionEPNS_7SessionE
libKF5AkonadiCore.so.5:_ZN7Akonadi7Monitor10tagChangedERKNS_3TagE
libKF5AkonadiCore.so.5:_ZN7Akonadi7Monitor10tagRemovedERKNS_3TagE
libKF5AkonadiCore.so.5:_ZN7Akonadi7Monitor11itemChangedERKNS_4ItemERK4QSetI10QByteArrayE
libKF5AkonadiCore.so.5:_ZN7Akonadi7Monitor11itemRemovedERKNS_4ItemE
libKF5AkonadiCore.so.5:_ZN7Akonadi7Monitor12itemsRemovedERK7QVectorINS_4ItemEE
libKF5AkonadiCore.so.5:_ZN7Akonadi7Monitor13ignoreSessionEPNS_7SessionE
libKF5AkonadiCore.so.5:_ZN7Akonadi7Monitor13tagFetchScopeEv
libKF5AkonadiCore.so.5:_ZN7Akonadi7Monitor14itemFetchScopeEv
libKF5AkonadiCore.so.5:_ZN7Akonadi7Monitor15collectionAddedERKNS_10CollectionES3_
libKF5AkonadiCore.so.5:_ZN7Akonadi7Monitor15fetchCollectionEb
libKF5AkonadiCore.so.5:_ZN7Akonadi7Monitor15setAllMonitoredEb
libKF5AkonadiCore.so.5:_ZN7Akonadi7Monitor16setItemMonitoredERKNS_4ItemEb
libKF5AkonadiCore.so.5:_ZN7Akonadi7Monitor16setTypeMonitoredENS0_4TypeEb
libKF5AkonadiCore.so.5:_ZN7Akonadi7Monitor16staticMetaObjectE
libKF5AkonadiCore.so.5:_ZN7Akonadi7Monitor17collectionChangedERKNS_10CollectionE
libKF5AkonadiCore.so.5:_ZN7Akonadi7Monitor17collectionChangedERKNS_10CollectionERK4QSetI10QByteArrayE
libKF5AkonadiCore.so.5:_ZN7Akonadi7Monitor17collectionRemovedERKNS_10CollectionE
libKF5AkonadiCore.so.5:_ZN7Akonadi7Monitor17setItemFetchScopeERKNS_14ItemFetchScopeE
libKF5AkonadiCore.so.5:_ZN7Akonadi7Monitor20collectionFetchScopeEv
libKF5AkonadiCore.so.5:_ZN7Akonadi7Monitor20collectionSubscribedERKNS_10CollectionES3_
libKF5AkonadiCore.so.5:_ZN7Akonadi7Monitor20setMimeTypeMonitoredERK7QStringb
libKF5AkonadiCore.so.5:_ZN7Akonadi7Monitor22collectionUnsubscribedERKNS_10CollectionE
libKF5AkonadiCore.so.5:_ZN7Akonadi7Monitor22setCollectionMonitoredERKNS_10CollectionEb
libKF5AkonadiCore.so.5:_ZN7Akonadi7Monitor25fetchCollectionStatisticsEb
libKF5AkonadiCore.so.5:_ZN7Akonadi7Monitor27collectionStatisticsChangedExRKNS_20CollectionStatisticsE
libKF5AkonadiCore.so.5:_ZN7Akonadi7Monitor8tagAddedERKNS_3TagE
libKF5AkonadiCore.so.5:_ZN7Akonadi7Monitor9itemAddedERKNS_4ItemERKNS_10CollectionE
libKF5AkonadiCore.so.5:_ZN7Akonadi7Monitor9itemMovedERKNS_4ItemERKNS_10CollectionES6_
libKF5AkonadiCore.so.5:_ZN7Akonadi7MonitorC1EP7QObject
libKF5AkonadiCore.so.5:_ZN7Akonadi7Session14defaultSessionEv
libKF5AkonadiCore.so.5:_ZN7Akonadi7SessionC1ERK10QByteArrayP7QObject
libKF5AkonadiCore.so.5:_ZN7Akonadi9AgentTypeD1Ev
libKF5AkonadiCore.so.5:_ZN7Akonadi9AttributeD2Ev
libKF5AkonadiCore.so.5:_ZN7Akonadi9ExceptionC2EPKc
libKF5AkonadiCore.so.5:_ZN7Akonadi9UnlinkJobC1ERKNS_10CollectionERK7QVectorINS_4ItemEEP7QObject
libKF5AkonadiCore.so.5:_ZNK7Akonadi10Collection10statisticsEv
libKF5AkonadiCore.so.5:_ZNK7Akonadi10Collection11cachePolicyEv
libKF5AkonadiCore.so.5:_ZNK7Akonadi10Collection11displayNameEv
libKF5AkonadiCore.so.5:_ZNK7Akonadi10Collection12hasAttributeERK10QByteArray
libKF5AkonadiCore.so.5:_ZNK7Akonadi10Collection16contentMimeTypesEv
libKF5AkonadiCore.so.5:_ZNK7Akonadi10Collection16parentCollectionEv
libKF5AkonadiCore.so.5:_ZNK7Akonadi10Collection2idEv
libKF5AkonadiCore.so.5:_ZNK7Akonadi10Collection4nameEv
libKF5AkonadiCore.so.5:_ZNK7Akonadi10Collection6rightsEv
libKF5AkonadiCore.so.5:_ZNK7Akonadi10Collection7isValidEv
libKF5AkonadiCore.so.5:_ZNK7Akonadi10Collection8resourceEv
libKF5AkonadiCore.so.5:_ZNK7Akonadi10Collection9attributeERK10QByteArray
libKF5AkonadiCore.so.5:_ZNK7Akonadi10Collection9isVirtualEv
libKF5AkonadiCore.so.5:_ZNK7Akonadi10CollectioneqERKS0_
libKF5AkonadiCore.so.5:_ZNK7Akonadi10CollectionltERKS0_
libKF5AkonadiCore.so.5:_ZNK7Akonadi10CollectionneERKS0_
libKF5AkonadiCore.so.5:_ZNK7Akonadi11CachePolicy10localPartsEv
libKF5AkonadiCore.so.5:_ZNK7Akonadi11CachePolicy12syncOnDemandEv
libKF5AkonadiCore.so.5:_ZNK7Akonadi11ItemMoveJob21destinationCollectionEv
libKF5AkonadiCore.so.5:_ZNK7Akonadi11SearchQuery6toJSONEv
libKF5AkonadiCore.so.5:_ZNK7Akonadi11TagFetchJob4tagsEv
libKF5AkonadiCore.so.5:_ZNK7Akonadi12AgentManager5typesEv
libKF5AkonadiCore.so.5:_ZNK7Akonadi12AgentManager8instanceERK7QString
libKF5AkonadiCore.so.5:_ZNK7Akonadi12AgentManager9instancesEv
libKF5AkonadiCore.so.5:_ZNK7Akonadi12ItemFetchJob5itemsEv
libKF5AkonadiCore.so.5:_ZNK7Akonadi12TagAttribute4typeEv
libKF5AkonadiCore.so.5:_ZNK7Akonadi13AgentInstance10identifierEv
libKF5AkonadiCore.so.5:_ZNK7Akonadi13AgentInstance13statusMessageEv
libKF5AkonadiCore.so.5:_ZNK7Akonadi13AgentInstance4nameEv
libKF5AkonadiCore.so.5:_ZNK7Akonadi13AgentInstance4typeEv
libKF5AkonadiCore.so.5:_ZNK7Akonadi13AgentInstance6statusEv
libKF5AkonadiCore.so.5:_ZNK7Akonadi13AgentInstance7isValidEv
libKF5AkonadiCore.so.5:_ZNK7Akonadi13AgentInstance7restartEv
libKF5AkonadiCore.so.5:_ZNK7Akonadi13AgentInstance8isOnlineEv
libKF5AkonadiCore.so.5:_ZNK7Akonadi13AgentInstanceeqERKS0_
libKF5AkonadiCore.so.5:_ZNK7Akonadi13ItemSearchJob5itemsEv
libKF5AkonadiCore.so.5:_ZNK7Akonadi14ItemFetchScope7isEmptyEv
libKF5AkonadiCore.so.5:_ZNK7Akonadi15EntityTreeModel10entityDataERKNS_10CollectionEii
libKF5AkonadiCore.so.5:_ZNK7Akonadi15EntityTreeModel10headerDataEiN2Qt11OrientationEi
libKF5AkonadiCore.so.5:_ZNK7Akonadi15EntityTreeModel11columnCountERK11QModelIndex
libKF5AkonadiCore.so.5:_ZNK7Akonadi15EntityTreeModel11hasChildrenERK11QModelIndex
libKF5AkonadiCore.so.5:_ZNK7Akonadi15EntityTreeModel12canFetchMoreERK11QModelIndex
libKF5AkonadiCore.so.5:_ZNK7Akonadi15EntityTreeModel20supportedDropActionsEv
libKF5AkonadiCore.so.5:_ZNK7Akonadi15EntityTreeModel4dataERK11QModelIndexi
libKF5AkonadiCore.so.5:_ZNK7Akonadi15EntityTreeModel5flagsERK11QModelIndex
libKF5AkonadiCore.so.5:_ZNK7Akonadi15EntityTreeModel5indexEiiRK11QModelIndex
libKF5AkonadiCore.so.5:_ZNK7Akonadi15EntityTreeModel5matchERK11QModelIndexiRK8QVarianti6QFlagsIN2Qt9MatchFlagEE
libKF5AkonadiCore.so.5:_ZNK7Akonadi15EntityTreeModel6parentERK11QModelIndex
libKF5AkonadiCore.so.5:_ZNK7Akonadi15EntityTreeModel8mimeDataERK5QListI11QModelIndexE
libKF5AkonadiCore.so.5:_ZNK7Akonadi15EntityTreeModel8rowCountERK11QModelIndex
libKF5AkonadiCore.so.5:_ZNK7Akonadi15EntityTreeModel9mimeTypesEv
libKF5AkonadiCore.so.5:_ZNK7Akonadi15EntityTreeModel9roleNamesEv
libKF5AkonadiCore.so.5:_ZNK7Akonadi15SearchCreateJob17createdCollectionEv
libKF5AkonadiCore.so.5:_ZNK7Akonadi18CollectionFetchJob11collectionsEv
libKF5AkonadiCore.so.5:_ZNK7Akonadi19CollectionCreateJob10collectionEv
libKF5AkonadiCore.so.5:_ZNK7Akonadi19CollectionModifyJob10collectionEv
libKF5AkonadiCore.so.5:_ZNK7Akonadi20CollectionStatistics11unreadCountEv
libKF5AkonadiCore.so.5:_ZNK7Akonadi20CollectionStatistics5countEv
libKF5AkonadiCore.so.5:_ZNK7Akonadi21EntityHiddenAttribute4typeEv
libKF5AkonadiCore.so.5:_ZNK7Akonadi22AgentConfigurationBase12parentWidgetEv
libKF5AkonadiCore.so.5:_ZNK7Akonadi22AgentConfigurationBase15standardButtonsEv
libKF5AkonadiCore.so.5:_ZNK7Akonadi22AgentConfigurationBase6configEv
libKF5AkonadiCore.so.5:_ZNK7Akonadi22EntityDisplayAttribute14activeIconNameEv
libKF5AkonadiCore.so.5:_ZNK7Akonadi22EntityDisplayAttribute4typeEv
libKF5AkonadiCore.so.5:_ZNK7Akonadi22EntityDisplayAttribute8iconNameEv
libKF5AkonadiCore.so.5:_ZNK7Akonadi24CollectionQuotaAttribute12currentValueEv
libKF5AkonadiCore.so.5:_ZNK7Akonadi24CollectionQuotaAttribute12maximumValueEv
libKF5AkonadiCore.so.5:_ZNK7Akonadi24CollectionQuotaAttribute4typeEv
libKF5AkonadiCore.so.5:_ZNK7Akonadi25PersistentSearchAttribute4typeEv
libKF5AkonadiCore.so.5:_ZNK7Akonadi26EntityAnnotationsAttribute4typeEv
libKF5AkonadiCore.so.5:_ZNK7Akonadi26SpecialCollectionAttribute14collectionTypeEv
libKF5AkonadiCore.so.5:_ZNK7Akonadi26SpecialCollectionAttribute4typeEv
libKF5AkonadiCore.so.5:_ZNK7Akonadi3Tag2idEv
libKF5AkonadiCore.so.5:_ZNK7Akonadi3Tag3urlEv
libKF5AkonadiCore.so.5:_ZNK7Akonadi3Tag7isValidEv
libKF5AkonadiCore.so.5:_ZNK7Akonadi3TageqERKS0_
libKF5AkonadiCore.so.5:_ZNK7Akonadi4Item10hasPayloadEv
libKF5AkonadiCore.so.5:_ZNK7Akonadi4Item11payloadDataEv
libKF5AkonadiCore.so.5:_ZNK7Akonadi4Item12hasAttributeERK10QByteArray
libKF5AkonadiCore.so.5:_ZNK7Akonadi4Item13payloadBaseV2Eii
libKF5AkonadiCore.so.5:_ZNK7Akonadi4Item16ensureMetaTypeIdEi
libKF5AkonadiCore.so.5:_ZNK7Akonadi4Item16parentCollectionEv
libKF5AkonadiCore.so.5:_ZNK7Akonadi4Item17virtualReferencesEv
libKF5AkonadiCore.so.5:_ZNK7Akonadi4Item18loadedPayloadPartsEv
libKF5AkonadiCore.so.5:_ZNK7Akonadi4Item19storageCollectionIdEv
libKF5AkonadiCore.so.5:_ZNK7Akonadi4Item21addPayloadBaseVariantEiiRSt10unique_ptrINS_8Internal11PayloadBaseESt14default_deleteIS3_EE
libKF5AkonadiCore.so.5:_ZNK7Akonadi4Item21throwPayloadExceptionEii
libKF5AkonadiCore.so.5:_ZNK7Akonadi4Item2idEv
libKF5AkonadiCore.so.5:_ZNK7Akonadi4Item4tagsEv
libKF5AkonadiCore.so.5:_ZNK7Akonadi4Item5flagsEv
libKF5AkonadiCore.so.5:_ZNK7Akonadi4Item6hasTagERKNS_3TagE
libKF5AkonadiCore.so.5:_ZNK7Akonadi4Item7hasFlagERK10QByteArray
libKF5AkonadiCore.so.5:_ZNK7Akonadi4Item7isValidEv
libKF5AkonadiCore.so.5:_ZNK7Akonadi4Item8mimeTypeEv
libKF5AkonadiCore.so.5:_ZNK7Akonadi4Item8remoteIdEv
libKF5AkonadiCore.so.5:_ZNK7Akonadi4Item9attributeERK10QByteArray
libKF5AkonadiCore.so.5:_ZNK7Akonadi4ItemeqERKS0_
libKF5AkonadiCore.so.5:_ZNK7Akonadi4ItemneERKS0_
libKF5AkonadiCore.so.5:_ZNK7Akonadi7Monitor20collectionsMonitoredEv
libKF5AkonadiCore.so.5:_ZNK7Akonadi9AgentType10identifierEv
libKF5AkonadiCore.so.5:_ZNK7Akonadi9AgentType11descriptionEv
libKF5AkonadiCore.so.5:_ZNK7Akonadi9AgentType12capabilitiesEv
libKF5AkonadiCore.so.5:_ZNK7Akonadi9AgentType4nameEv
libKF5AkonadiCore.so.5:_ZNK7Akonadi9AgentType7isValidEv
libKF5AkonadiCore.so.5:_ZNK7Akonadi9AgentType9mimeTypesEv
libKF5AkonadiCore.so.5:_Zls6QDebugRKN7Akonadi10CollectionE
libKF5AkonadiMime.so.5:_ZN7Akonadi11CommandBase16staticMetaObjectE
libKF5AkonadiMime.so.5:_ZN7Akonadi11CommandBase6resultENS0_6ResultE
libKF5AkonadiMime.so.5:_ZN7Akonadi11MessagePart6HeaderE
libKF5AkonadiMime.so.5:_ZN7Akonadi11MessagePart8EnvelopeE
libKF5AkonadiMime.so.5:_ZN7Akonadi12MessageFlags16copyMessageFlagsERN5KMime7MessageERNS_4ItemE
libKF5AkonadiMime.so.5:_ZN7Akonadi12MessageFlags4SeenE
libKF5AkonadiMime.so.5:_ZN7Akonadi12MessageFlags9EncryptedE
libKF5AkonadiMime.so.5:_ZN7Akonadi12MessageModel11qt_metacallEN11QMetaObject4CallEiPPv
libKF5AkonadiMime.so.5:_ZN7Akonadi12MessageModel11qt_metacastEPKc
libKF5AkonadiMime.so.5:_ZN7Akonadi12MessageModel16staticMetaObjectE
libKF5AkonadiMime.so.5:_ZN7Akonadi12MessageModelC2EPNS_7MonitorEP7QObject
libKF5AkonadiMime.so.5:_ZN7Akonadi13MarkAsCommandC1ENS_13MessageStatusERK7QVectorINS_10CollectionEEbbP7QObject
libKF5AkonadiMime.so.5:_ZN7Akonadi13MessageStatus10statusReadEv
libKF5AkonadiMime.so.5:_ZN7Akonadi13MessageStatus11statusToActEv
libKF5AkonadiMime.so.5:_ZN7Akonadi13MessageStatus13statusIgnoredEv
libKF5AkonadiMime.so.5:_ZN7Akonadi13MessageStatus13statusWatchedEv
libKF5AkonadiMime.so.5:_ZN7Akonadi13MessageStatus15statusImportantEv
libKF5AkonadiMime.so.5:_ZN7Akonadi13MessageStatus16setHasAttachmentEb
libKF5AkonadiMime.so.5:_ZN7Akonadi13MessageStatus18setStatusFromFlagsERK4QSetI10QByteArrayE
libKF5AkonadiMime.so.5:_ZN7Akonadi13MessageStatus7setReadEb
libKF5AkonadiMime.so.5:_ZN7Akonadi13MessageStatusC1Ev
libKF5AkonadiMime.so.5:_ZN7Akonadi19RemoveDuplicatesJob16staticMetaObjectE
libKF5AkonadiMime.so.5:_ZN7Akonadi19RemoveDuplicatesJobC1ERK7QVectorINS_10CollectionEEP7QObject
libKF5AkonadiMime.so.5:_ZN7Akonadi21Pop3ResourceAttributeC1Ev
libKF5AkonadiMime.so.5:_ZN7Akonadi21Pop3ResourceAttributeD1Ev
libKF5AkonadiMime.so.5:_ZN7Akonadi22MessageFolderAttributeC1Ev
libKF5AkonadiMime.so.5:_ZN7Akonadi22MessageFolderAttributeD1Ev
libKF5AkonadiMime.so.5:_ZN7Akonadi22SpecialMailCollections18registerCollectionENS0_4TypeERKNS_10CollectionE
libKF5AkonadiMime.so.5:_ZN7Akonadi22SpecialMailCollections20unregisterCollectionERKNS_10CollectionE
libKF5AkonadiMime.so.5:_ZN7Akonadi22SpecialMailCollections21specialCollectionTypeERKNS_10CollectionE
libKF5AkonadiMime.so.5:_ZN7Akonadi22SpecialMailCollections4selfEv
libKF5AkonadiMime.so.5:_ZN7Akonadi24NewMailNotifierAttributeC1Ev
libKF5AkonadiMime.so.5:_ZN7Akonadi24NewMailNotifierAttributeD1Ev
libKF5AkonadiMime.so.5:_ZN7Akonadi25StandardMailActionManager11markItemsAsERK10QByteArrayRK7QVectorINS_4ItemEEb
libKF5AkonadiMime.so.5:_ZN7Akonadi25StandardMailActionManager12createActionENS0_4TypeE
libKF5AkonadiMime.so.5:_ZN7Akonadi25StandardMailActionManager12createActionENS_21StandardActionManager4TypeE
libKF5AkonadiMime.so.5:_ZN7Akonadi25StandardMailActionManager13setActionTextENS_21StandardActionManager4TypeERK16KLocalizedString
libKF5AkonadiMime.so.5:_ZN7Akonadi25StandardMailActionManager15interceptActionENS0_4TypeEb
libKF5AkonadiMime.so.5:_ZN7Akonadi25StandardMailActionManager15interceptActionENS_21StandardActionManager4TypeEb
libKF5AkonadiMime.so.5:_ZN7Akonadi25StandardMailActionManager16staticMetaObjectE
libKF5AkonadiMime.so.5:_ZN7Akonadi25StandardMailActionManager18actionStateUpdatedEv
libKF5AkonadiMime.so.5:_ZN7Akonadi25StandardMailActionManager21setItemSelectionModelEP19QItemSelectionModel
libKF5AkonadiMime.so.5:_ZN7Akonadi25StandardMailActionManager25setFavoriteSelectionModelEP19QItemSelectionModel
libKF5AkonadiMime.so.5:_ZN7Akonadi25StandardMailActionManager27setCollectionSelectionModelEP19QItemSelectionModel
libKF5AkonadiMime.so.5:_ZN7Akonadi25StandardMailActionManager27setFavoriteCollectionsModelEPNS_24FavoriteCollectionsModelE
libKF5AkonadiMime.so.5:_ZN7Akonadi25StandardMailActionManager8setItemsERK7QVectorINS_4ItemEE
libKF5AkonadiMime.so.5:_ZN7Akonadi25StandardMailActionManagerC1EP17KActionCollectionP7QWidget
libKF5AkonadiMime.so.5:_ZNK7Akonadi12MessageModel10entityDataERKNS_4ItemEii
libKF5AkonadiMime.so.5:_ZNK7Akonadi12MessageModel16entityHeaderDataEiN2Qt11OrientationEiNS_15EntityTreeModel11HeaderGroupE
libKF5AkonadiMime.so.5:_ZNK7Akonadi12MessageModel17entityColumnCountENS_15EntityTreeModel11HeaderGroupE
libKF5AkonadiMime.so.5:_ZNK7Akonadi13MessageStatus11isImportantEv
libKF5AkonadiMime.so.5:_ZNK7Akonadi13MessageStatus11statusFlagsEv
libKF5AkonadiMime.so.5:_ZNK7Akonadi13MessageStatus13hasAttachmentEv
libKF5AkonadiMime.so.5:_ZNK7Akonadi13MessageStatus17isOfUnknownStatusEv
libKF5AkonadiMime.so.5:_ZNK7Akonadi13MessageStatus6isReadEv
libKF5AkonadiMime.so.5:_ZNK7Akonadi13MessageStatus6isSentEv
libKF5AkonadiMime.so.5:_ZNK7Akonadi13MessageStatus6isSpamEv
libKF5AkonadiMime.so.5:_ZNK7Akonadi13MessageStatus7isToActEv
libKF5AkonadiMime.so.5:_ZNK7Akonadi13MessageStatus8toQInt32Ev
libKF5AkonadiMime.so.5:_ZNK7Akonadi13MessageStatus9isIgnoredEv
libKF5AkonadiMime.so.5:_ZNK7Akonadi13MessageStatus9isWatchedEv
libKF5AkonadiMime.so.5:_ZNK7Akonadi13MessageStatusanES0_
libKF5AkonadiMime.so.5:_ZNK7Akonadi21Pop3ResourceAttribute15pop3AccountNameEv
libKF5AkonadiMime.so.5:_ZNK7Akonadi21Pop3ResourceAttribute4typeEv
libKF5AkonadiMime.so.5:_ZNK7Akonadi22MessageFolderAttribute16isOutboundFolderEv
libKF5AkonadiMime.so.5:_ZNK7Akonadi22MessageFolderAttribute4typeEv
libKF5AkonadiMime.so.5:_ZNK7Akonadi24NewMailNotifierAttribute13ignoreNewMailEv
libKF5AkonadiMime.so.5:_ZNK7Akonadi24NewMailNotifierAttribute4typeEv
libKF5AkonadiMime.so.5:_ZNK7Akonadi25StandardMailActionManager21standardActionManagerEv
libKF5AkonadiMime.so.5:_ZNK7Akonadi25StandardMailActionManager6actionENS0_4TypeE
libKF5AkonadiMime.so.5:_ZNK7Akonadi25StandardMailActionManager6actionENS_21StandardActionManager4TypeE
libKF5AkonadiSearchDebug.so.5:_ZN7Akonadi6Search24AkonadiSearchDebugDialog12setAkonadiIdEx
libKF5AkonadiSearchDebug.so.5:_ZN7Akonadi6Search24AkonadiSearchDebugDialog13setSearchTypeENS0_36AkonadiSearchDebugSearchPathComboBox10SearchTypeE
libKF5AkonadiSearchDebug.so.5:_ZN7Akonadi6Search24AkonadiSearchDebugDialog8doSearchEv
libKF5AkonadiSearchDebug.so.5:_ZN7Akonadi6Search24AkonadiSearchDebugDialogC1EP7QWidget
libKF5AkonadiSearchPIM.so.5:_ZN7Akonadi6Search3PIM12IndexedItems12indexedItemsEx
libKF5AkonadiSearchPIM.so.5:_ZN7Akonadi6Search3PIM12IndexedItemsC1EP7QObject
libKF5AkonadiWidgets.so.5:_ZN7Akonadi10ControlGui18widgetNeedsAkonadiEP7QWidget
libKF5AkonadiWidgets.so.5:_ZN7Akonadi10ControlGui5startEP7QWidget
libKF5AkonadiWidgets.so.5:_ZN7Akonadi14EntityListView14currentChangedERKNS_10CollectionE
libKF5AkonadiWidgets.so.5:_ZN7Akonadi14EntityListView16staticMetaObjectE
libKF5AkonadiWidgets.so.5:_ZN7Akonadi14EntityListView24setDropActionMenuEnabledEb
libKF5AkonadiWidgets.so.5:_ZN7Akonadi14EntityTreeView13doubleClickedERKNS_4ItemE
libKF5AkonadiWidgets.so.5:_ZN7Akonadi14EntityTreeView14currentChangedERKNS_10CollectionE
libKF5AkonadiWidgets.so.5:_ZN7Akonadi14EntityTreeView14currentChangedERKNS_4ItemE
libKF5AkonadiWidgets.so.5:_ZN7Akonadi14EntityTreeView15setXmlGuiClientEP13KXMLGUIClient
libKF5AkonadiWidgets.so.5:_ZN7Akonadi14EntityTreeView16staticMetaObjectE
libKF5AkonadiWidgets.so.5:_ZN7Akonadi14EntityTreeViewC1EP7QWidget
libKF5AkonadiWidgets.so.5:_ZN7Akonadi15AgentTypeDialogC1EP7QWidget
libKF5AkonadiWidgets.so.5:_ZN7Akonadi17ETMViewStateSaverC1EP7QObject
libKF5AkonadiWidgets.so.5:_ZN7Akonadi19ManageAccountWidget14slotAddAccountEv
libKF5AkonadiWidgets.so.5:_ZN7Akonadi19ManageAccountWidget15setItemDelegateEP21QAbstractItemDelegate
libKF5AkonadiWidgets.so.5:_ZN7Akonadi19ManageAccountWidget17setMimeTypeFilterERK11QStringList
libKF5AkonadiWidgets.so.5:_ZN7Akonadi19ManageAccountWidget19setCapabilityFilterERK11QStringList
libKF5AkonadiWidgets.so.5:_ZN7Akonadi19ManageAccountWidget22setExcludeCapabilitiesERK11QStringList
libKF5AkonadiWidgets.so.5:_ZN7Akonadi19ManageAccountWidget26disconnectAddAccountButtonEv
libKF5AkonadiWidgets.so.5:_ZN7Akonadi19ManageAccountWidget30setSpecialCollectionIdentifierERK7QString
libKF5AkonadiWidgets.so.5:_ZN7Akonadi19ManageAccountWidgetC1EP7QWidget
libKF5AkonadiWidgets.so.5:_ZN7Akonadi21StandardActionManager22createActionFolderMenuEP5QMenuNS0_4TypeE
libKF5AkonadiWidgets.so.5:_ZN7Akonadi24AgentConfigurationDialogC1ERKNS_13AgentInstanceEP7QWidget
libKF5AkonadiWidgets.so.5:_ZN7Akonadi24CollectionPropertiesPage11qt_metacallEN11QMetaObject4CallEiPPv
libKF5AkonadiWidgets.so.5:_ZN7Akonadi24CollectionPropertiesPage11qt_metacastEPKc
libKF5AkonadiWidgets.so.5:_ZN7Akonadi24CollectionPropertiesPage12setPageTitleERK7QString
libKF5AkonadiWidgets.so.5:_ZN7Akonadi24CollectionPropertiesPage16staticMetaObjectE
libKF5AkonadiWidgets.so.5:_ZN7Akonadi24CollectionPropertiesPageC2EP7QWidget
libKF5AkonadiWidgets.so.5:_ZN7Akonadi24CollectionPropertiesPageD2Ev
libKF5AkonadiWidgets.so.5:_ZN7Akonadi25CollectionMaintenancePageC1EP7QWidget
libKF5AkonadiWidgets.so.5:_ZN7Akonadi26CollectionPropertiesDialog12registerPageEPNS_31CollectionPropertiesPageFactoryE
libKF5AkonadiWidgets.so.5:_ZN7Akonadi26CollectionPropertiesDialog13settingsSavedEv
libKF5AkonadiWidgets.so.5:_ZN7Akonadi26CollectionPropertiesDialog14setCurrentPageERK7QString
libKF5AkonadiWidgets.so.5:_ZN7Akonadi26CollectionPropertiesDialog16staticMetaObjectE
libKF5AkonadiWidgets.so.5:_ZN7Akonadi26CollectionPropertiesDialogC1ERKNS_10CollectionERK11QStringListP7QWidget
libKF5AkonadiWidgets.so.5:_ZN7Akonadi31CollectionPropertiesPageFactoryD2Ev
libKF5AkonadiWidgets.so.5:_ZNK7Akonadi15AgentTypeDialog21agentFilterProxyModelEv
libKF5AkonadiWidgets.so.5:_ZNK7Akonadi15AgentTypeDialog9agentTypeEv
libKF5AkonadiWidgets.so.5:_ZNK7Akonadi19ManageAccountWidget16addAccountButtonEv
libKF5AkonadiWidgets.so.5:_ZNK7Akonadi19ManageAccountWidget4viewEv
libKF5AkonadiWidgets.so.5:_ZNK7Akonadi24CollectionPropertiesPage9canHandleERKNS_10CollectionE
libKF5Bookmarks.so.5:_ZN14KBookmarkGroup11addBookmarkERK7QStringRK4QUrlS2_
libKF5Bookmarks.so.5:_ZN16KBookmarkManager11emitChangedERK14KBookmarkGroup
libKF5Bookmarks.so.5:_ZN16KBookmarkManager14managerForFileERK7QStringS2_
libKF5Bookmarks.so.5:_ZNK16KBookmarkManager4rootEv
libKF5Bookmarks.so.5:_ZNK16KBookmarkManager4saveEb
libKF5CalendarCore.so.5:_ZN13KCalendarCore11FileStorage4saveEv
libKF5CalendarCore.so.5:_ZN13KCalendarCore11FileStorageC1ERK14QSharedPointerINS_8CalendarEERK7QStringPNS_9CalFormatE
libKF5CalendarCore.so.5:_ZN13KCalendarCore11FileStorageD1Ev
libKF5CalendarCore.so.5:_ZN13KCalendarCore14MemoryCalendarC1ERK9QTimeZone
libKF5CalendarCore.so.5:_ZN13KCalendarCore4Todo12setCompletedEb
libKF5CalendarCore.so.5:_ZN13KCalendarCore9Incidence16staticMetaObjectE
libKF5CalendarUtils.so.5:_ZN9KCalUtils8ICalDrag12fromMimeDataEPK9QMimeDataRK14QSharedPointerIN13KCalendarCore14MemoryCalendarEE
libKF5CalendarUtils.so.5:_ZN9KCalUtils8ICalDrag9canDecodeEPK9QMimeData
libKF5CalendarUtils.so.5:_ZN9KCalUtils8VCalDrag12fromMimeDataEPK9QMimeDataRK14QSharedPointerIN13KCalendarCore14MemoryCalendarEE
libKF5CalendarUtils.so.5:_ZN9KCalUtils8VCalDrag9canDecodeEPK9QMimeData
libKF5Codecs.so.5:_ZN13KEmailAddress12splitAddressERK7QStringRS0_S3_S3_
libKF5Codecs.so.5:_ZN13KEmailAddress15decodeMailtoUrlERK4QUrl
libKF5Codecs.so.5:_ZN13KEmailAddress17firstEmailAddressERK7QString
libKF5Codecs.so.5:_ZN13KEmailAddress18isValidAddressListERK7QStringRS0_
libKF5Codecs.so.5:_ZN13KEmailAddress20isValidSimpleAddressERK7QString
libKF5Codecs.so.5:_ZN13KEmailAddress24emailParseResultToStringENS_16EmailParseResultE
libKF5Codecs.so.5:_ZN13KEmailAddress26extractEmailAddressAndNameERK7QStringRS0_S3_
libKF5Codecs.so.5:_ZN13KEmailAddress26simpleEmailAddressErrorMsgEv
libKF5Codecs.so.5:_ZN9KCharsets8charsetsEv
libKF5Codecs.so.5:_ZNK9KCharsets12codecForNameERK7QString
libKF5Codecs.so.5:_ZNK9KCharsets12codecForNameERK7QStringRb
libKF5Codecs.so.5:_ZNK9KCharsets15encodingForNameERK7QString
libKF5Completion.so.5:_ZN9KLineEdit16setTrapReturnKeyEb
libKF5Completion.so.5:_ZN9KLineEdit16staticMetaObjectE
libKF5Completion.so.5:_ZN9KLineEdit21completionModeChangedEN11KCompletion14CompletionModeE
libKF5Completion.so.5:_ZN9KLineEditC1EP7QWidget
libKF5ConfigCore.so.5:_ZN11KConfigBase11deleteGroupERK7QString6QFlagsINS_15WriteConfigFlagEE
libKF5ConfigCore.so.5:_ZN11KConfigBase5groupEPKc
libKF5ConfigCore.so.5:_ZN11KConfigBase5groupERK7QString
libKF5ConfigCore.so.5:_ZN12KConfigGroup10writeEntryEPKcRK10QByteArray6QFlagsIN11KConfigBase15WriteConfigFlagEE
libKF5ConfigCore.so.5:_ZN12KConfigGroup10writeEntryEPKcRK11QStringList6QFlagsIN11KConfigBase15WriteConfigFlagEE
libKF5ConfigCore.so.5:_ZN12KConfigGroup10writeEntryEPKcRK5QListI8QVariantE6QFlagsIN11KConfigBase15WriteConfigFlagEE
libKF5ConfigCore.so.5:_ZN12KConfigGroup10writeEntryEPKcRK7QString6QFlagsIN11KConfigBase15WriteConfigFlagEE
libKF5ConfigCore.so.5:_ZN12KConfigGroup10writeEntryEPKcRK8QVariant6QFlagsIN11KConfigBase15WriteConfigFlagEE
libKF5ConfigCore.so.5:_ZN12KConfigGroup10writeEntryERK7QStringS2_6QFlagsIN11KConfigBase15WriteConfigFlagEE
libKF5ConfigCore.so.5:_ZN12KConfigGroup11deleteEntryEPKc6QFlagsIN11KConfigBase15WriteConfigFlagEE
libKF5ConfigCore.so.5:_ZN12KConfigGroup11deleteEntryERK7QString6QFlagsIN11KConfigBase15WriteConfigFlagEE
libKF5ConfigCore.so.5:_ZN12KConfigGroup11deleteGroupE6QFlagsIN11KConfigBase15WriteConfigFlagEE
libKF5ConfigCore.so.5:_ZN12KConfigGroup14writePathEntryEPKcRK7QString6QFlagsIN11KConfigBase15WriteConfigFlagEE
libKF5ConfigCore.so.5:_ZN12KConfigGroup4syncEv
libKF5ConfigCore.so.5:_ZN12KConfigGroupC1EP11KConfigBasePKc
libKF5ConfigCore.so.5:_ZN12KConfigGroupC1EP11KConfigBaseRK7QString
libKF5ConfigCore.so.5:_ZN12KConfigGroupC1ERK28QExplicitlySharedDataPointerI13KSharedConfigEPKc
libKF5ConfigCore.so.5:_ZN12KConfigGroupC1ERK28QExplicitlySharedDataPointerI13KSharedConfigERK7QString
libKF5ConfigCore.so.5:_ZN12KConfigGroupC1ERKS_
libKF5ConfigCore.so.5:_ZN12KConfigGroupC1Ev
libKF5ConfigCore.so.5:_ZN12KConfigGroupD1Ev
libKF5ConfigCore.so.5:_ZN12KConfigGroupaSERKS_
libKF5ConfigCore.so.5:_ZN13KSharedConfig10openConfigERK7QString6QFlagsIN7KConfig8OpenFlagEEN14QStandardPaths16StandardLocationE
libKF5ConfigCore.so.5:_ZN19KConfigSkeletonItem12setWhatsThisERK7QString
libKF5ConfigCore.so.5:_ZN19KConfigSkeletonItem8setLabelERK7QString
libKF5ConfigCore.so.5:_ZN19KCoreConfigSkeleton10ItemStringC1ERK7QStringS3_RS1_S3_NS0_4TypeE
libKF5ConfigCore.so.5:_ZN19KCoreConfigSkeleton11ItemIntListC1ERK7QStringS3_R5QListIiERKS5_
libKF5ConfigCore.so.5:_ZN19KCoreConfigSkeleton11setDefaultsEv
libKF5ConfigCore.so.5:_ZN19KCoreConfigSkeleton11useDefaultsEb
libKF5ConfigCore.so.5:_ZN19KCoreConfigSkeleton12ItemLongLongC1ERK7QStringS3_Rxx
libKF5ConfigCore.so.5:_ZN19KCoreConfigSkeleton13usrReadConfigEv
libKF5ConfigCore.so.5:_ZN19KCoreConfigSkeleton14ItemStringListC1ERK7QStringS3_R11QStringListRKS4_
libKF5ConfigCore.so.5:_ZN19KCoreConfigSkeleton14usrSetDefaultsEv
libKF5ConfigCore.so.5:_ZN19KCoreConfigSkeleton14usrUseDefaultsEb
libKF5ConfigCore.so.5:_ZN19KCoreConfigSkeleton14usrWriteConfigEv
libKF5ConfigCore.so.5:_ZN19KCoreConfigSkeleton15setCurrentGroupERK7QString
libKF5ConfigCore.so.5:_ZN19KCoreConfigSkeleton15setSharedConfigE28QExplicitlySharedDataPointerI13KSharedConfigE
libKF5ConfigCore.so.5:_ZN19KCoreConfigSkeleton4loadEv
libKF5ConfigCore.so.5:_ZN19KCoreConfigSkeleton4readEv
libKF5ConfigCore.so.5:_ZN19KCoreConfigSkeleton4saveEv
libKF5ConfigCore.so.5:_ZN19KCoreConfigSkeleton6configEv
libKF5ConfigCore.so.5:_ZN19KCoreConfigSkeleton7ItemInt11setMaxValueEi
libKF5ConfigCore.so.5:_ZN19KCoreConfigSkeleton7ItemInt11setMinValueEi
libKF5ConfigCore.so.5:_ZN19KCoreConfigSkeleton7ItemIntC1ERK7QStringS3_Rii
libKF5ConfigCore.so.5:_ZN19KCoreConfigSkeleton7addItemEP19KConfigSkeletonItemRK7QString
libKF5ConfigCore.so.5:_ZN19KCoreConfigSkeleton7usrReadEv
libKF5ConfigCore.so.5:_ZN19KCoreConfigSkeleton7usrSaveEv
libKF5ConfigCore.so.5:_ZN19KCoreConfigSkeleton8ItemBoolC1ERK7QStringS3_Rbb
libKF5ConfigCore.so.5:_ZN19KCoreConfigSkeleton8ItemEnumC1ERK7QStringS3_RiRK5QListINS0_6ChoiceEEi
libKF5ConfigCore.so.5:_ZN19KCoreConfigSkeleton8ItemSizeC1ERK7QStringS3_R5QSizeRKS4_
libKF5ConfigCore.so.5:_ZN19KCoreConfigSkeleton8ItemUIntC1ERK7QStringS3_Rjj
libKF5ConfigCore.so.5:_ZN19KCoreConfigSkeletonD2Ev
libKF5ConfigCore.so.5:_ZN7KConfig20reparseConfigurationEv
libKF5ConfigCore.so.5:_ZN7KConfig4syncEv
libKF5ConfigCore.so.5:_ZN7KConfigC1ERK7QString6QFlagsINS_8OpenFlagEEN14QStandardPaths16StandardLocationE
libKF5ConfigCore.so.5:_ZN7KConfigD1Ev
libKF5ConfigCore.so.5:_ZNK11KConfigBase5groupERK7QString
libKF5ConfigCore.so.5:_ZNK11KConfigBase8hasGroupEPKc
libKF5ConfigCore.so.5:_ZNK11KConfigBase8hasGroupERK7QString
libKF5ConfigCore.so.5:_ZNK12KConfigGroup13readPathEntryEPKcRK7QString
libKF5ConfigCore.so.5:_ZNK12KConfigGroup4nameEv
libKF5ConfigCore.so.5:_ZNK12KConfigGroup6hasKeyEPKc
libKF5ConfigCore.so.5:_ZNK12KConfigGroup6hasKeyERK7QString
libKF5ConfigCore.so.5:_ZNK12KConfigGroup7isValidEv
libKF5ConfigCore.so.5:_ZNK12KConfigGroup7keyListEv
libKF5ConfigCore.so.5:_ZNK12KConfigGroup9groupListEv
libKF5ConfigCore.so.5:_ZNK12KConfigGroup9readEntryEPKcRK11QStringList
libKF5ConfigCore.so.5:_ZNK12KConfigGroup9readEntryEPKcRK7QString
libKF5ConfigCore.so.5:_ZNK12KConfigGroup9readEntryEPKcRK8QVariant
libKF5ConfigCore.so.5:_ZNK12KConfigGroup9readEntryEPKcS1_
libKF5ConfigCore.so.5:_ZNK12KConfigGroup9readEntryERK7QStringPKc
libKF5ConfigCore.so.5:_ZNK12KConfigGroup9readEntryERK7QStringS2_
libKF5ConfigCore.so.5:_ZNK19KConfigSkeletonItem5labelEv
libKF5ConfigCore.so.5:_ZNK19KConfigSkeletonItem9whatsThisEv
libKF5ConfigCore.so.5:_ZNK19KCoreConfigSkeleton11isImmutableERK7QString
libKF5ConfigCore.so.5:_ZNK19KCoreConfigSkeleton12currentGroupEv
libKF5ConfigCore.so.5:_ZNK7KConfig9groupListEv
libKF5ConfigGui.so.5:_ZN10KConfigGui13sessionConfigEv
libKF5ConfigGui.so.5:_ZN15KConfigSkeleton11qt_metacallEN11QMetaObject4CallEiPPv
libKF5ConfigGui.so.5:_ZN15KConfigSkeleton11qt_metacastEPKc
libKF5ConfigGui.so.5:_ZN15KConfigSkeleton16staticMetaObjectE
libKF5ConfigGui.so.5:_ZN15KConfigSkeleton8ItemFontC1ERK7QStringS3_R5QFontRKS4_
libKF5ConfigGui.so.5:_ZN15KConfigSkeletonC2ERK7QStringP7QObject
libKF5ConfigGui.so.5:_ZN17KStandardShortcut4findEv
libKF5ConfigGui.so.5:_ZN17KStandardShortcut4saveEv
libKF5ConfigGui.so.5:_ZN17KStandardShortcut7openNewEv
libKF5ConfigGui.so.5:_ZN17KStandardShortcut8shortcutENS_16StandardShortcutE
libKF5ConfigGui.so.5:_ZNK15KConfigSkeleton10metaObjectEv
libKF5ConfigGui.so.5:_ZTI15KConfigSkeleton
libKF5ConfigGui.so.5:_ZTV15KConfigSkeleton
libKF5ConfigWidgets.so.5:_ZN12KCodecAction11qt_metacallEN11QMetaObject4CallEiPPv
libKF5ConfigWidgets.so.5:_ZN12KCodecAction11qt_metacastEPKc
libKF5ConfigWidgets.so.5:_ZN12KCodecAction15actionTriggeredEP7QAction
libKF5ConfigWidgets.so.5:_ZN12KCodecAction15setCurrentCodecERK7QString
libKF5ConfigWidgets.so.5:_ZN12KCodecAction16staticMetaObjectE
libKF5ConfigWidgets.so.5:_ZN12KCodecActionC2EP7QObjectb
libKF5ConfigWidgets.so.5:_ZN12KCodecActionD2Ev
libKF5ConfigWidgets.so.5:_ZN14KStatefulBrushC1EN12KColorScheme8ColorSetENS0_14BackgroundRoleE28QExplicitlySharedDataPointerI13KSharedConfigE
libKF5ConfigWidgets.so.5:_ZN14KStatefulBrushD1Ev
libKF5ConfigWidgets.so.5:_ZN15KStandardAction17_k_createInternalENS_14StandardActionEP7QObject
libKF5ConfigWidgets.so.5:_ZN18KRecentFilesAction11loadEntriesERK12KConfigGroup
libKF5ConfigWidgets.so.5:_ZN18KRecentFilesAction11saveEntriesERK12KConfigGroup
libKF5ConfigWidgets.so.5:_ZN18KRecentFilesAction11urlSelectedERK4QUrl
libKF5ConfigWidgets.so.5:_ZN18KRecentFilesAction16staticMetaObjectE
libKF5ConfigWidgets.so.5:_ZN18KRecentFilesAction17recentListClearedEv
libKF5ConfigWidgets.so.5:_ZN18KRecentFilesAction6addUrlERK4QUrlRK7QString
libKF5ConfigWidgets.so.5:_ZN18KRecentFilesActionC1ERK5QIconRK7QStringP7QObject
libKF5ConfigWidgets.so.5:_ZN21KConfigViewStateSaver12restoreStateERK12KConfigGroup
libKF5ConfigWidgets.so.5:_ZN21KConfigViewStateSaver9saveStateER12KConfigGroup
libKF5ConfigWidgets.so.5:_ZN8KCModule10setButtonsE6QFlagsINS_6ButtonEE
libKF5ConfigWidgets.so.5:_ZN8KCModule11qt_metacallEN11QMetaObject4CallEiPPv
libKF5ConfigWidgets.so.5:_ZN8KCModule11qt_metacastEPKc
libKF5ConfigWidgets.so.5:_ZN8KCModule12setAboutDataEPK10KAboutData
libKF5ConfigWidgets.so.5:_ZN8KCModule13markAsChangedEv
libKF5ConfigWidgets.so.5:_ZN8KCModule16staticMetaObjectE
libKF5ConfigWidgets.so.5:_ZN8KCModule4loadEv
libKF5ConfigWidgets.so.5:_ZN8KCModule4saveEv
libKF5ConfigWidgets.so.5:_ZN8KCModule7changedEb
libKF5ConfigWidgets.so.5:_ZN8KCModule8defaultsEv
libKF5ConfigWidgets.so.5:_ZN8KCModule9addConfigEP15KConfigSkeletonP7QWidget
libKF5ConfigWidgets.so.5:_ZN8KCModule9showEventEP10QShowEvent
libKF5ConfigWidgets.so.5:_ZN8KCModuleC2EP7QWidgetRK5QListI8QVariantE
libKF5ConfigWidgets.so.5:_ZN8KCModuleD2Ev
libKF5ConfigWidgets.so.5:_ZNK12KCodecAction12currentCodecEv
libKF5ConfigWidgets.so.5:_ZNK14KStatefulBrush5brushEPK7QWidget
libKF5ConfigWidgets.so.5:_ZNK8KCModule10metaObjectEv
libKF5ConfigWidgets.so.5:_ZNK8KCModule9aboutDataEv
libKF5ConfigWidgets.so.5:_ZNK8KCModule9quickHelpEv
libKF5ConfigWidgets.so.5:_ZTI12KCodecAction
libKF5ConfigWidgets.so.5:_ZTI8KCModule
libKF5ConfigWidgets.so.5:_ZTV21KConfigViewStateSaver
libKF5Contacts.so.5:_ZN9KContacts12ContactGroup8mimeTypeEv
libKF5Contacts.so.5:_ZN9KContacts12ContactGroupC1ERKS0_
libKF5Contacts.so.5:_ZN9KContacts12ContactGroupC1Ev
libKF5Contacts.so.5:_ZN9KContacts12ContactGroupD1Ev
libKF5Contacts.so.5:_ZN9KContacts14VCardConverterC1Ev
libKF5Contacts.so.5:_ZN9KContacts14VCardConverterD1Ev
libKF5Contacts.so.5:_ZN9KContacts17adaptIMAttributesER10QByteArray
libKF5Contacts.so.5:_ZN9KContacts7PictureD1Ev
libKF5Contacts.so.5:_ZN9KContacts9Addressee16staticMetaObjectE
libKF5Contacts.so.5:_ZN9KContacts9Addressee17parseEmailAddressERK7QStringRS1_S4_
libKF5Contacts.so.5:_ZN9KContacts9Addressee8mimeTypeEv
libKF5Contacts.so.5:_ZN9KContacts9Addressee9setEmailsERK11QStringList
libKF5Contacts.so.5:_ZN9KContacts9AddresseeC1ERKS0_
libKF5Contacts.so.5:_ZN9KContacts9AddresseeC1Ev
libKF5Contacts.so.5:_ZN9KContacts9AddresseeD1Ev
libKF5Contacts.so.5:_ZN9KContacts9AddresseeaSERKS0_
libKF5Contacts.so.5:_ZN9KContacts9VCardDrag12fromMimeDataEPK9QMimeDataR7QVectorINS_9AddresseeEE
libKF5Contacts.so.5:_ZN9KContacts9VCardDrag9canDecodeEPK9QMimeData
libKF5Contacts.so.5:_ZNK9KContacts12ContactGroup4nameEv
libKF5Contacts.so.5:_ZNK9KContacts14VCardConverter10parseVCardERK10QByteArray
libKF5Contacts.so.5:_ZNK9KContacts14VCardConverter11exportVCardERKNS_9AddresseeENS0_7VersionE
libKF5Contacts.so.5:_ZNK9KContacts14VCardConverter12exportVCardsERK7QVectorINS_9AddresseeEENS0_7VersionE
libKF5Contacts.so.5:_ZNK9KContacts7Picture3urlEv
libKF5Contacts.so.5:_ZNK9KContacts7Picture4dataEv
libKF5Contacts.so.5:_ZNK9KContacts7Picture8isInternEv
libKF5Contacts.so.5:_ZNK9KContacts9Addressee5photoEv
libKF5Contacts.so.5:_ZNK9KContacts9Addressee6customERK7QStringS3_
libKF5Contacts.so.5:_ZNK9KContacts9Addressee6emailsEv
libKF5Contacts.so.5:_ZNK9KContacts9Addressee7customsEv
libKF5Contacts.so.5:_ZNK9KContacts9Addressee8realNameEv
libKF5Contacts.so.5:_ZNK9KContacts9Addressee9fullEmailERK7QString
libKF5CoreAddons.so.5:_ZN10KAboutData13setTranslatorERK7QStringS2_
libKF5CoreAddons.so.5:_ZN10KAboutData14setProductNameERK10QByteArray
libKF5CoreAddons.so.5:_ZN10KAboutData15applicationDataEv
libKF5CoreAddons.so.5:_ZN10KAboutData16setupCommandLineEP18QCommandLineParser
libKF5CoreAddons.so.5:_ZN10KAboutData18processCommandLineEP18QCommandLineParser
libKF5CoreAddons.so.5:_ZN10KAboutData18setApplicationDataERKS_
libKF5CoreAddons.so.5:_ZN10KAboutData9addAuthorERK7QStringS2_S2_S2_S2_
libKF5CoreAddons.so.5:_ZN10KAboutData9addCreditERK7QStringS2_S2_S2_S2_
libKF5CoreAddons.so.5:_ZN10KAboutDataC1ERK7QStringS2_S2_S2_N13KAboutLicense10LicenseKeyES2_S2_S2_S2_
libKF5CoreAddons.so.5:_ZN10KAboutDataC2ERK7QStringS2_S2_S2_N13KAboutLicense10LicenseKeyES2_S2_S2_S2_
libKF5CoreAddons.so.5:_ZN10KAboutDataD1Ev
libKF5CoreAddons.so.5:_ZN10KAboutDataD2Ev
libKF5CoreAddons.so.5:_ZN14KPluginFactory11qt_metacallEN11QMetaObject4CallEiPPv
libKF5CoreAddons.so.5:_ZN14KPluginFactory11qt_metacastEPKc
libKF5CoreAddons.so.5:_ZN14KPluginFactory12createObjectEP7QObjectPKcRK11QStringList
libKF5CoreAddons.so.5:_ZN14KPluginFactory14registerPluginERK7QStringPK11QMetaObjectPFP7QObjectP7QWidgetS7_RK5QListI8QVariantEE
libKF5CoreAddons.so.5:_ZN14KPluginFactory16createPartObjectEP7QWidgetP7QObjectPKcRK11QStringList
libKF5CoreAddons.so.5:_ZN14KPluginFactory16staticMetaObjectE
libKF5CoreAddons.so.5:_ZN14KPluginFactory6createEPKcP7QWidgetP7QObjectRK5QListI8QVariantERK7QString
libKF5CoreAddons.so.5:_ZN14KPluginFactoryC2Ev
libKF5CoreAddons.so.5:_ZN14KPluginFactoryD2Ev
libKF5CoreAddons.so.5:_ZN14KStringHandler8rsqueezeERK7QStringi
libKF5CoreAddons.so.5:_ZN22Kdelibs4ConfigMigrator10setUiFilesERK11QStringList
libKF5CoreAddons.so.5:_ZN22Kdelibs4ConfigMigrator14setConfigFilesERK11QStringList
libKF5CoreAddons.so.5:_ZN22Kdelibs4ConfigMigrator7migrateEv
libKF5CoreAddons.so.5:_ZN22Kdelibs4ConfigMigratorC1ERK7QString
libKF5CoreAddons.so.5:_ZN22Kdelibs4ConfigMigratorD1Ev
libKF5CoreAddons.so.5:_ZN4KJob10emitResultEv
libKF5CoreAddons.so.5:_ZN4KJob11descriptionEPS_RK7QStringRK5QPairIS1_S1_ES7_
libKF5CoreAddons.so.5:_ZN4KJob11qt_metacallEN11QMetaObject4CallEiPPv
libKF5CoreAddons.so.5:_ZN4KJob11qt_metacastEPKc
libKF5CoreAddons.so.5:_ZN4KJob12setErrorTextERK7QString
libKF5CoreAddons.so.5:_ZN4KJob13setUiDelegateEP14KJobUiDelegate
libKF5CoreAddons.so.5:_ZN4KJob16staticMetaObjectE
libKF5CoreAddons.so.5:_ZN4KJob4execEv
libKF5CoreAddons.so.5:_ZN4KJob4killENS_13KillVerbosityE
libKF5CoreAddons.so.5:_ZN4KJob6doKillEv
libKF5CoreAddons.so.5:_ZN4KJob6resultEPS_NS_14QPrivateSignalE
libKF5CoreAddons.so.5:_ZN4KJob8doResumeEv
libKF5CoreAddons.so.5:_ZN4KJob8finishedEPS_NS_14QPrivateSignalE
libKF5CoreAddons.so.5:_ZN4KJob8setErrorEi
libKF5CoreAddons.so.5:_ZN4KJob9doSuspendEv
libKF5CoreAddons.so.5:_ZN4KJobC2EP7QObject
libKF5CoreAddons.so.5:_ZN4KJobD2Ev
libKF5CoreAddons.so.5:_ZN7KFormatC1ERK7QLocale
libKF5CoreAddons.so.5:_ZN7KFormatD1Ev
libKF5CoreAddons.so.5:_ZNK4KJob10uiDelegateEv
libKF5CoreAddons.so.5:_ZNK4KJob11errorStringEv
libKF5CoreAddons.so.5:_ZNK4KJob5errorEv
libKF5CoreAddons.so.5:_ZNK4KJob9errorTextEv
libKF5CoreAddons.so.5:_ZNK7KFormat14formatByteSizeEdiNS_17BinaryUnitDialectENS_15BinarySizeUnitsE
libKF5CoreAddons.so.5:_ZTI14KPluginFactory
libKF5CoreAddons.so.5:_ZTI4KJob
libKF5Crash.so.5:_ZN6KCrash10initializeEv
libKF5Crash.so.5:_ZN6KCrash24setEmergencySaveFunctionEPFviE
libKF5DBusAddons.so.5:_ZN12KDBusServiceC1E6QFlagsINS_13StartupOptionEEP7QObject
libKF5DBusAddons.so.5:_ZN12KDBusServiceD1Ev
libKF5Gravatar.so.5:_ZN8Gravatar16GravatarSettings4selfEv
libKF5GuiAddons.so.5:_ZN10KIconUtils10addOverlayERK5QIconS2_N2Qt6CornerE
libKF5GuiAddons.so.5:_ZN12KCursorSaverC1EN2Qt11CursorShapeE
libKF5GuiAddons.so.5:_ZN12KCursorSaverD1Ev
libKF5GuiAddons.so.5:_ZN14KColorMimeData12fromMimeDataEPK9QMimeData
libKF5GuiAddons.so.5:_ZN14KColorMimeData9canDecodeEPK9QMimeData
libKF5I18n.so.5:_Z5ki18nPKc
libKF5I18n.so.5:_Z6ki18ncPKcS0_
libKF5I18n.so.5:_Z6ki18ndPKcS0_
libKF5I18n.so.5:_Z7ki18ncpPKcS0_S0_
libKF5I18n.so.5:_Z7ki18ndcPKcS0_S0_
libKF5I18n.so.5:_Z7ki18ndpPKcS0_S0_
libKF5I18n.so.5:_Z8ki18ndcpPKcS0_S0_S0_
libKF5I18n.so.5:_ZN16KLocalizedString20setApplicationDomainEPKc
libKF5I18n.so.5:_ZN16KLocalizedStringD1Ev
libKF5I18n.so.5:_ZNK16KLocalizedString4subsERK7QStringi5QChar
libKF5I18n.so.5:_ZNK16KLocalizedString4subsEdici5QChar
libKF5I18n.so.5:_ZNK16KLocalizedString4subsEiii5QChar
libKF5I18n.so.5:_ZNK16KLocalizedString4subsExii5QChar
libKF5I18n.so.5:_ZNK16KLocalizedString8toStringEv
libKF5IconThemes.so.5:_ZN11KIconButton11iconChangedERK7QString
libKF5IconThemes.so.5:_ZN11KIconButton11setIconSizeEi
libKF5IconThemes.so.5:_ZN11KIconButton11setIconTypeEN11KIconLoader5GroupENS0_7ContextEb
libKF5IconThemes.so.5:_ZN11KIconButton16staticMetaObjectE
libKF5IconThemes.so.5:_ZN11KIconButton17setStrictIconSizeEb
libKF5IconThemes.so.5:_ZN11KIconButton7setIconERK7QString
libKF5IconThemes.so.5:_ZN11KIconButtonC1EP7QWidget
libKF5IconThemes.so.5:_ZN11KIconDialog7getIconEN11KIconLoader5GroupENS0_7ContextEbibP7QWidgetRK7QString
libKF5IconThemes.so.5:_ZN11KIconLoader6globalEv
libKF5IconThemes.so.5:_ZNK11KIconButton4iconEv
libKF5IconThemes.so.5:_ZNK11KIconLoader11currentSizeENS_5GroupE
libKF5IdentityManagement.so.5:_ZN19KIdentityManagement13IdentityCombo15identityChangedEj
libKF5IdentityManagement.so.5:_ZN19KIdentityManagement13IdentityCombo15identityDeletedEj
libKF5IdentityManagement.so.5:_ZN19KIdentityManagement13IdentityCombo15invalidIdentityEv
libKF5IdentityManagement.so.5:_ZN19KIdentityManagement13IdentityCombo16staticMetaObjectE
libKF5IdentityManagement.so.5:_ZN19KIdentityManagement13IdentityCombo18setCurrentIdentityEj
libKF5IdentityManagement.so.5:_ZN19KIdentityManagement13IdentityComboC1EPNS_15IdentityManagerEP7QWidget
libKF5IdentityManagement.so.5:_ZN19KIdentityManagement15IdentityManager11modifyBeginEv
libKF5IdentityManagement.so.5:_ZN19KIdentityManagement15IdentityManager12setAsDefaultEj
libKF5IdentityManagement.so.5:_ZN19KIdentityManagement15IdentityManager14newFromScratchERK7QString
libKF5IdentityManagement.so.5:_ZN19KIdentityManagement15IdentityManager14removeIdentityERK7QString
libKF5IdentityManagement.so.5:_ZN19KIdentityManagement15IdentityManager15newFromExistingERKNS_8IdentityERK7QString
libKF5IdentityManagement.so.5:_ZN19KIdentityManagement15IdentityManager16staticMetaObjectE
libKF5IdentityManagement.so.5:_ZN19KIdentityManagement15IdentityManager20newFromControlCenterERK7QString
libKF5IdentityManagement.so.5:_ZN19KIdentityManagement15IdentityManager21modifyIdentityForNameERK7QString
libKF5IdentityManagement.so.5:_ZN19KIdentityManagement15IdentityManager21modifyIdentityForUoidEj
libKF5IdentityManagement.so.5:_ZN19KIdentityManagement15IdentityManager28needToReloadIdentitySettingsEv
libKF5IdentityManagement.so.5:_ZN19KIdentityManagement15IdentityManager4selfEv
libKF5IdentityManagement.so.5:_ZN19KIdentityManagement15IdentityManager4sortEv
libKF5IdentityManagement.so.5:_ZN19KIdentityManagement15IdentityManager6commitEv
libKF5IdentityManagement.so.5:_ZN19KIdentityManagement15IdentityManager7changedEj
libKF5IdentityManagement.so.5:_ZN19KIdentityManagement15IdentityManager7deletedEj
libKF5IdentityManagement.so.5:_ZN19KIdentityManagement15IdentityManager9modifyEndEv
libKF5IdentityManagement.so.5:_ZN19KIdentityManagement15IdentityManagerC1EbP7QObjectPKc
libKF5IdentityManagement.so.5:_ZN19KIdentityManagement15IdentityManagerD1Ev
libKF5IdentityManagement.so.5:_ZN19KIdentityManagement21SignatureConfigurator12setSignatureERKNS_9SignatureE
libKF5IdentityManagement.so.5:_ZN19KIdentityManagement21SignatureConfigurator16setImageLocationERKNS_8IdentityE
libKF5IdentityManagement.so.5:_ZN19KIdentityManagement21SignatureConfiguratorC1EP7QWidget
libKF5IdentityManagement.so.5:_ZN19KIdentityManagement8Identity11setFullNameERK7QString
libKF5IdentityManagement.so.5:_ZN19KIdentityManagement8Identity12setSignatureERKNS_9SignatureE
libKF5IdentityManagement.so.5:_ZN19KIdentityManagement8Identity12setTemplatesERK7QString
libKF5IdentityManagement.so.5:_ZN19KIdentityManagement8Identity12setTransportERK7QString
libKF5IdentityManagement.so.5:_ZN19KIdentityManagement8Identity12setVCardFileERK7QString
libKF5IdentityManagement.so.5:_ZN19KIdentityManagement8Identity13setDictionaryERK7QString
libKF5IdentityManagement.so.5:_ZN19KIdentityManagement8Identity14setAttachVcardEb
libKF5IdentityManagement.so.5:_ZN19KIdentityManagement8Identity14setDisabledFccEb
libKF5IdentityManagement.so.5:_ZN19KIdentityManagement8Identity14setPgpAutoSignEb
libKF5IdentityManagement.so.5:_ZN19KIdentityManagement8Identity14setReplyToAddrERK7QString
libKF5IdentityManagement.so.5:_ZN19KIdentityManagement8Identity15setEmailAliasesERK11QStringList
libKF5IdentityManagement.so.5:_ZN19KIdentityManagement8Identity15setIdentityNameERK7QString
libKF5IdentityManagement.so.5:_ZN19KIdentityManagement8Identity15setOrganizationERK7QString
libKF5IdentityManagement.so.5:_ZN19KIdentityManagement8Identity15setXFaceEnabledEb
libKF5IdentityManagement.so.5:_ZN19KIdentityManagement8Identity16setPGPSigningKeyERK10QByteArray
libKF5IdentityManagement.so.5:_ZN19KIdentityManagement8Identity17setPgpAutoEncryptEb
libKF5IdentityManagement.so.5:_ZN19KIdentityManagement8Identity18setSMIMESigningKeyERK10QByteArray
libKF5IdentityManagement.so.5:_ZN19KIdentityManagement8Identity19setPGPEncryptionKeyERK10QByteArray
libKF5IdentityManagement.so.5:_ZN19KIdentityManagement8Identity20setDefaultDomainNameERK7QString
libKF5IdentityManagement.so.5:_ZN19KIdentityManagement8Identity21setSMIMEEncryptionKeyERK10QByteArray
libKF5IdentityManagement.so.5:_ZN19KIdentityManagement8Identity22setPrimaryEmailAddressERK7QString
libKF5IdentityManagement.so.5:_ZN19KIdentityManagement8Identity25setAutocorrectionLanguageERK7QString
libKF5IdentityManagement.so.5:_ZN19KIdentityManagement8Identity31setPreferredCryptoMessageFormatERK7QString
libKF5IdentityManagement.so.5:_ZN19KIdentityManagement8Identity5setCcERK7QString
libKF5IdentityManagement.so.5:_ZN19KIdentityManagement8Identity6setBccERK7QString
libKF5IdentityManagement.so.5:_ZN19KIdentityManagement8Identity6setFccERK7QString
libKF5IdentityManagement.so.5:_ZN19KIdentityManagement8Identity8setXFaceERK7QString
libKF5IdentityManagement.so.5:_ZN19KIdentityManagement8Identity9setDraftsERK7QString
libKF5IdentityManagement.so.5:_ZN19KIdentityManagement8Identity9signatureEv
libKF5IdentityManagement.so.5:_ZN19KIdentityManagement8IdentityC1ERK7QStringS3_S3_S3_S3_
libKF5IdentityManagement.so.5:_ZN19KIdentityManagement9SignatureC1ERKS0_
libKF5IdentityManagement.so.5:_ZN19KIdentityManagement9SignatureD1Ev
libKF5IdentityManagement.so.5:_ZN19KIdentityManagement9SignatureaSERKS0_
libKF5IdentityManagement.so.5:_ZNK19KIdentityManagement13IdentityCombo15currentIdentityEv
libKF5IdentityManagement.so.5:_ZNK19KIdentityManagement13IdentityCombo19currentIdentityNameEv
libKF5IdentityManagement.so.5:_ZNK19KIdentityManagement15IdentityManager10identitiesEv
libKF5IdentityManagement.so.5:_ZNK19KIdentityManagement15IdentityManager15defaultIdentityEv
libKF5IdentityManagement.so.5:_ZNK19KIdentityManagement15IdentityManager15identityForUoidEj
libKF5IdentityManagement.so.5:_ZNK19KIdentityManagement15IdentityManager16shadowIdentitiesEv
libKF5IdentityManagement.so.5:_ZNK19KIdentityManagement15IdentityManager24identityForUoidOrDefaultEj
libKF5IdentityManagement.so.5:_ZNK19KIdentityManagement15IdentityManager3endEv
libKF5IdentityManagement.so.5:_ZNK19KIdentityManagement15IdentityManager5beginEv
libKF5IdentityManagement.so.5:_ZNK19KIdentityManagement15IdentityManager8isUniqueERK7QString
libKF5IdentityManagement.so.5:_ZNK19KIdentityManagement15IdentityManager8thatIsMeERK7QString
libKF5IdentityManagement.so.5:_ZNK19KIdentityManagement21SignatureConfigurator13signatureTypeEv
libKF5IdentityManagement.so.5:_ZNK19KIdentityManagement21SignatureConfigurator18isSignatureEnabledEv
libKF5IdentityManagement.so.5:_ZNK19KIdentityManagement21SignatureConfigurator8filePathEv
libKF5IdentityManagement.so.5:_ZNK19KIdentityManagement21SignatureConfigurator9signatureEv
libKF5IdentityManagement.so.5:_ZNK19KIdentityManagement8Identity10dictionaryEv
libKF5IdentityManagement.so.5:_ZNK19KIdentityManagement8Identity11attachVcardEv
libKF5IdentityManagement.so.5:_ZNK19KIdentityManagement8Identity11disabledFccEv
libKF5IdentityManagement.so.5:_ZNK19KIdentityManagement8Identity11pgpAutoSignEv
libKF5IdentityManagement.so.5:_ZNK19KIdentityManagement8Identity11replyToAddrEv
libKF5IdentityManagement.so.5:_ZNK19KIdentityManagement8Identity12emailAliasesEv
libKF5IdentityManagement.so.5:_ZNK19KIdentityManagement8Identity12identityNameEv
libKF5IdentityManagement.so.5:_ZNK19KIdentityManagement8Identity12organizationEv
libKF5IdentityManagement.so.5:_ZNK19KIdentityManagement8Identity13fullEmailAddrEv
libKF5IdentityManagement.so.5:_ZNK19KIdentityManagement8Identity13pgpSigningKeyEv
libKF5IdentityManagement.so.5:_ZNK19KIdentityManagement8Identity14isXFaceEnabledEv
libKF5IdentityManagement.so.5:_ZNK19KIdentityManagement8Identity14pgpAutoEncryptEv
libKF5IdentityManagement.so.5:_ZNK19KIdentityManagement8Identity15smimeSigningKeyEv
libKF5IdentityManagement.so.5:_ZNK19KIdentityManagement8Identity16pgpEncryptionKeyEv
libKF5IdentityManagement.so.5:_ZNK19KIdentityManagement8Identity16populateMimeDataEP9QMimeData
libKF5IdentityManagement.so.5:_ZNK19KIdentityManagement8Identity17defaultDomainNameEv
libKF5IdentityManagement.so.5:_ZNK19KIdentityManagement8Identity18smimeEncryptionKeyEv
libKF5IdentityManagement.so.5:_ZNK19KIdentityManagement8Identity19primaryEmailAddressEv
libKF5IdentityManagement.so.5:_ZNK19KIdentityManagement8Identity22autocorrectionLanguageEv
libKF5IdentityManagement.so.5:_ZNK19KIdentityManagement8Identity28preferredCryptoMessageFormatEv
libKF5IdentityManagement.so.5:_ZNK19KIdentityManagement8Identity2ccEv
libKF5IdentityManagement.so.5:_ZNK19KIdentityManagement8Identity3bccEv
libKF5IdentityManagement.so.5:_ZNK19KIdentityManagement8Identity3fccEv
libKF5IdentityManagement.so.5:_ZNK19KIdentityManagement8Identity4uoidEv
libKF5IdentityManagement.so.5:_ZNK19KIdentityManagement8Identity5xfaceEv
libKF5IdentityManagement.so.5:_ZNK19KIdentityManagement8Identity6draftsEv
libKF5IdentityManagement.so.5:_ZNK19KIdentityManagement8Identity6isNullEv
libKF5IdentityManagement.so.5:_ZNK19KIdentityManagement8Identity8fullNameEv
libKF5IdentityManagement.so.5:_ZNK19KIdentityManagement8Identity9isDefaultEv
libKF5IdentityManagement.so.5:_ZNK19KIdentityManagement8Identity9templatesEv
libKF5IdentityManagement.so.5:_ZNK19KIdentityManagement8Identity9transportEv
libKF5IdentityManagement.so.5:_ZNK19KIdentityManagement8Identity9vCardFileEv
libKF5IdentityManagement.so.5:_ZNK19KIdentityManagement9Signature18isEnabledSignatureEv
libKF5ItemModels.so.5:_ZN20KCheckableProxyModel14setSourceModelEP18QAbstractItemModel
libKF5ItemModels.so.5:_ZN20KCheckableProxyModel17setSelectionModelEP19QItemSelectionModel
libKF5ItemModels.so.5:_ZN20KCheckableProxyModelC1EP7QObject
libKF5ItemModels.so.5:_ZN22KDescendantsProxyModel20setAncestorSeparatorERK7QString
libKF5ItemModels.so.5:_ZN22KDescendantsProxyModel22setDisplayAncestorDataEb
libKF5ItemModels.so.5:_ZN22KDescendantsProxyModelC1EP7QObject
libKF5ItemModels.so.5:_ZNK20KCheckableProxyModel14selectionModelEv
libKF5ItemViews.so.5:_ZN21KListWidgetSearchLineC1EP7QWidgetP11QListWidget
libKF5JobWidgets.so.5:_ZN11KJobWidgets9setWindowEP4KJobP7QWidget
libKF5JobWidgets.so.5:_ZN20KDialogJobUiDelegateC1E6QFlagsIN14KJobUiDelegate4FlagEEP7QWidget
libKF5KCMUtils.so.5:_ZN13KCMultiDialog10closeEventEP11QCloseEvent
libKF5KCMUtils.so.5:_ZN13KCMultiDialog11qt_metacallEN11QMetaObject4CallEiPPv
libKF5KCMUtils.so.5:_ZN13KCMultiDialog11qt_metacastEPKc
libKF5KCMUtils.so.5:_ZN13KCMultiDialog13slotOkClickedEv
libKF5KCMUtils.so.5:_ZN13KCMultiDialog15configCommittedEv
libKF5KCMUtils.so.5:_ZN13KCMultiDialog15slotHelpClickedEv
libKF5KCMUtils.so.5:_ZN13KCMultiDialog16slotApplyClickedEv
libKF5KCMUtils.so.5:_ZN13KCMultiDialog16slotUser1ClickedEv
libKF5KCMUtils.so.5:_ZN13KCMultiDialog16staticMetaObjectE
libKF5KCMUtils.so.5:_ZN13KCMultiDialog18slotDefaultClickedEv
libKF5KCMUtils.so.5:_ZN13KCMultiDialog9addModuleERK7QStringRK11QStringList
libKF5KCMUtils.so.5:_ZN13KCMultiDialog9showEventEP10QShowEvent
libKF5KCMUtils.so.5:_ZN13KCMultiDialogC1EP7QWidget
libKF5KCMUtils.so.5:_ZN13KCMultiDialogC2EP7QWidget
libKF5KCMUtils.so.5:_ZN13KCMultiDialogD2Ev
libKF5KCMUtils.so.5:_ZN9KSettings10Dispatcher17registerComponentERK7QStringP7QObjectPKc
libKF5KCMUtils.so.5:_ZTI13KCMultiDialog
libKF5KIOCore.so.5:_ZN3KIO11TransferJob16staticMetaObjectE
libKF5KIOCore.so.5:_ZN3KIO11TransferJob4dataEPNS_3JobERK10QByteArray
libKF5KIOCore.so.5:_ZN3KIO3Job16staticMetaObjectE
libKF5KIOCore.so.5:_ZN3KIO3getERK4QUrlNS_8LoadTypeE6QFlagsINS_7JobFlagEE
libKF5KIOCore.so.5:_ZN3KIO9file_copyERK4QUrlS2_i6QFlagsINS_7JobFlagEE
libKF5KIOCore.so.5:_ZN3KIO9storedGetERK4QUrlNS_8LoadTypeE6QFlagsINS_7JobFlagEE
libKF5KIOCore.so.5:_ZNK3KIO17StoredTransferJob4dataEv
libKF5KIOFileWidgets.so.5:_ZN11KFileWidget11getStartUrlERK4QUrlR7QString
libKF5KIOFileWidgets.so.5:_ZN11KRecentDirs3addERK7QStringS2_
libKF5KIOFileWidgets.so.5:_ZN19KEncodingFileDialog21getOpenUrlAndEncodingERK7QStringRK4QUrlS2_P7QWidgetS2_
libKF5KIOGui.so.5:_ZN3KIO10OpenUrlJob17setRunExecutablesEb
libKF5KIOGui.so.5:_ZN3KIO10OpenUrlJob22setDeleteTemporaryFileEb
libKF5KIOGui.so.5:_ZN3KIO10OpenUrlJobC1ERK4QUrlP7QObject
libKF5KIOGui.so.5:_ZN3KIO10OpenUrlJobC1ERK4QUrlRK7QStringP7QObject
libKF5KIOGui.so.5:_ZN3KIO18CommandLauncherJob14setDesktopNameERK7QString
libKF5KIOGui.so.5:_ZN3KIO18CommandLauncherJobC1ERK7QStringRK11QStringListP7QObject
libKF5KIOGui.so.5:_ZN3KIO22ApplicationLauncherJob7setUrlsERK5QListI4QUrlE
libKF5KIOGui.so.5:_ZN3KIO22ApplicationLauncherJobC1EP7QObject
libKF5KIOGui.so.5:_ZN3KIO22ApplicationLauncherJobC1ERK28QExplicitlySharedDataPointerI8KServiceEP7QObject
libKF5KIOWidgets.so.5:_ZN13KUrlRequester11textChangedERK7QString
libKF5KIOWidgets.so.5:_ZN13KUrlRequester11urlSelectedERK4QUrl
libKF5KIOWidgets.so.5:_ZN13KUrlRequester16staticMetaObjectE
libKF5KIOWidgets.so.5:_ZN13KUrlRequester18setMimeTypeFiltersERK11QStringList
libKF5KIOWidgets.so.5:_ZN13KUrlRequester6setUrlERK4QUrl
libKF5KIOWidgets.so.5:_ZN13KUrlRequester7setModeE6QFlagsIN5KFile4ModeEE
libKF5KIOWidgets.so.5:_ZN13KUrlRequester9setFilterERK7QString
libKF5KIOWidgets.so.5:_ZN13KUrlRequesterC1EP7QWidget
libKF5KIOWidgets.so.5:_ZN16KFileItemActions22associatedApplicationsERK11QStringListRK7QString
libKF5KIOWidgets.so.5:_ZN3KIO13JobUiDelegateC1E6QFlagsIN14KJobUiDelegate4FlagEEP7QWidget
libKF5KIOWidgets.so.5:_ZN3KIO31KUriFilterSearchProviderActions15setSelectedTextERK7QString
libKF5KIOWidgets.so.5:_ZN3KIO31KUriFilterSearchProviderActions21addWebShortcutsToMenuEP5QMenu
libKF5KIOWidgets.so.5:_ZN3KIO31KUriFilterSearchProviderActionsC1EP7QObject
libKF5KIOWidgets.so.5:_ZNK13KUrlRequester3urlEv
libKF5KIOWidgets.so.5:_ZNK13KUrlRequester8lineEditEv
libKF5KSieveUi.so.5:_ZN8KSieveUi15VacationManager13checkVacationEv
libKF5KSieveUi.so.5:_ZN8KSieveUi15VacationManager16slotEditVacationERK7QString
libKF5KSieveUi.so.5:_ZN8KSieveUi15VacationManager16staticMetaObjectE
libKF5KSieveUi.so.5:_ZN8KSieveUi15VacationManager26updateVacationScriptStatusEbRK7QString
libKF5KSieveUi.so.5:_ZN8KSieveUi15VacationManagerC1EPNS_25SieveImapPasswordProviderEP7QWidget
libKF5KSieveUi.so.5:_ZN8KSieveUi16SieveDebugDialogC1EPNS_25SieveImapPasswordProviderEP7QWidget
libKF5KSieveUi.so.5:_ZN8KSieveUi17SieveImapInstance12setMimeTypesERK11QStringList
libKF5KSieveUi.so.5:_ZN8KSieveUi17SieveImapInstance13setIdentifierERK7QString
libKF5KSieveUi.so.5:_ZN8KSieveUi17SieveImapInstance15setCapabilitiesERK11QStringList
libKF5KSieveUi.so.5:_ZN8KSieveUi17SieveImapInstance7setNameERK7QString
libKF5KSieveUi.so.5:_ZN8KSieveUi17SieveImapInstance9setStatusENS0_6StatusE
libKF5KSieveUi.so.5:_ZN8KSieveUi17SieveImapInstanceC1Ev
libKF5KSieveUi.so.5:_ZN8KSieveUi24ManageSieveScriptsDialog16staticMetaObjectE
libKF5KSieveUi.so.5:_ZN8KSieveUi24ManageSieveScriptsDialog8finishedEv
libKF5KSieveUi.so.5:_ZN8KSieveUi24ManageSieveScriptsDialogC1EPNS_25SieveImapPasswordProviderEP7QWidget
libKF5KSieveUi.so.5:_ZN8KSieveUi26SieveImapInstanceInterfaceC2Ev
libKF5KSieveUi.so.5:_ZN8KSieveUi26SieveImapInstanceInterfaceD2Ev
libKF5KSieveUi.so.5:_ZN8KSieveUi33SieveImapInstanceInterfaceManager29setSieveImapInstanceInterfaceEPNS_26SieveImapInstanceInterfaceE
libKF5KSieveUi.so.5:_ZN8KSieveUi33SieveImapInstanceInterfaceManager4selfEv
libKF5KSieveUi.so.5:_ZN8KSieveUi4Util24allowOutOfOfficeSettingsEv
libKF5KSieveUi.so.5:_ZN8KSieveUi4Util25checkOutOfOfficeOnStartupEv
libKF5KontactInterface.so.5:_ZN16KontactInterface16UniqueAppHandler11qt_metacallEN11QMetaObject4CallEiPPv
libKF5KontactInterface.so.5:_ZN16KontactInterface16UniqueAppHandler11qt_metacastEPKc
libKF5KontactInterface.so.5:_ZN16KontactInterface16UniqueAppHandler16staticMetaObjectE
libKF5KontactInterface.so.5:_ZN16KontactInterface16UniqueAppHandler8activateERK11QStringListRK7QString
libKF5KontactInterface.so.5:_ZN16KontactInterface16UniqueAppHandlerC2EPNS_6PluginE
libKF5KontactInterface.so.5:_ZN16KontactInterface16UniqueAppHandlerD2Ev
libKF5KontactInterface.so.5:_ZN16KontactInterface16UniqueAppWatcherC1EPNS_27UniqueAppHandlerFactoryBaseEPNS_6PluginE
libKF5KontactInterface.so.5:_ZN16KontactInterface20PimUniqueApplication11newInstanceERK10QByteArrayRK11QStringListRK7QString
libKF5KontactInterface.so.5:_ZN16KontactInterface20PimUniqueApplication11qt_metacallEN11QMetaObject4CallEiPPv
libKF5KontactInterface.so.5:_ZN16KontactInterface20PimUniqueApplication11qt_metacastEPKc
libKF5KontactInterface.so.5:_ZN16KontactInterface20PimUniqueApplication12setAboutDataER10KAboutData
libKF5KontactInterface.so.5:_ZN16KontactInterface20PimUniqueApplication5startERK11QStringList
libKF5KontactInterface.so.5:_ZN16KontactInterface20PimUniqueApplicationC2ERiPPPc
libKF5KontactInterface.so.5:_ZN16KontactInterface20PimUniqueApplicationD2Ev
libKF5KontactInterface.so.5:_ZN16KontactInterface4Core10dayChangedERK5QDate
libKF5KontactInterface.so.5:_ZN16KontactInterface4Core16staticMetaObjectE
libKF5KontactInterface.so.5:_ZN16KontactInterface6Plugin11qt_metacallEN11QMetaObject4CallEiPPv
libKF5KontactInterface.so.5:_ZN16KontactInterface6Plugin11qt_metacastEPKc
libKF5KontactInterface.so.5:_ZN16KontactInterface6Plugin12virtual_hookEiPv
libKF5KontactInterface.so.5:_ZN16KontactInterface6Plugin13configUpdatedEv
libKF5KontactInterface.so.5:_ZN16KontactInterface6Plugin14readPropertiesERK12KConfigGroup
libKF5KontactInterface.so.5:_ZN16KontactInterface6Plugin14registerClientEv
libKF5KontactInterface.so.5:_ZN16KontactInterface6Plugin14savePropertiesER12KConfigGroup
libKF5KontactInterface.so.5:_ZN16KontactInterface6Plugin15insertNewActionEP7QAction
libKF5KontactInterface.so.5:_ZN16KontactInterface6Plugin15shortcutChangedEv
libKF5KontactInterface.so.5:_ZN16KontactInterface6Plugin16insertSyncActionEP7QAction
libKF5KontactInterface.so.5:_ZN16KontactInterface6Plugin16processDropEventEP10QDropEvent
libKF5KontactInterface.so.5:_ZN16KontactInterface6Plugin16staticMetaObjectE
libKF5KontactInterface.so.5:_ZN16KontactInterface6Plugin17bringToForegroundEv
libKF5KontactInterface.so.5:_ZN16KontactInterface6Plugin19createSummaryWidgetEP7QWidget
libKF5KontactInterface.so.5:_ZN16KontactInterface6Plugin4partEv
libKF5KontactInterface.so.5:_ZN16KontactInterface6Plugin6selectEv
libKF5KontactInterface.so.5:_ZN16KontactInterface6Plugin8loadPartEv
libKF5KontactInterface.so.5:_ZN16KontactInterface6Plugin9aboutDataEv
libKF5KontactInterface.so.5:_ZN16KontactInterface6PluginC2EPNS_4CoreEP7QObjectPKcS6_
libKF5KontactInterface.so.5:_ZN16KontactInterface6PluginD2Ev
libKF5KontactInterface.so.5:_ZN16KontactInterface7Summary11qt_metacallEN11QMetaObject4CallEiPPv
libKF5KontactInterface.so.5:_ZN16KontactInterface7Summary11qt_metacastEPKc
libKF5KontactInterface.so.5:_ZN16KontactInterface7Summary12createHeaderEP7QWidgetRK7QStringS5_
libKF5KontactInterface.so.5:_ZN16KontactInterface7Summary13configChangedEv
libKF5KontactInterface.so.5:_ZN16KontactInterface7Summary14dragEnterEventEP15QDragEnterEvent
libKF5KontactInterface.so.5:_ZN16KontactInterface7Summary14mouseMoveEventEP11QMouseEvent
libKF5KontactInterface.so.5:_ZN16KontactInterface7Summary15mousePressEventEP11QMouseEvent
libKF5KontactInterface.so.5:_ZN16KontactInterface7Summary16staticMetaObjectE
libKF5KontactInterface.so.5:_ZN16KontactInterface7Summary20summaryWidgetDroppedEP7QWidgetP7QObjecti
libKF5KontactInterface.so.5:_ZN16KontactInterface7Summary7messageERK7QString
libKF5KontactInterface.so.5:_ZN16KontactInterface7Summary9dropEventEP10QDropEvent
libKF5KontactInterface.so.5:_ZN16KontactInterface7SummaryC2EP7QWidget
libKF5KontactInterface.so.5:_ZN16KontactInterface7SummaryD2Ev
libKF5KontactInterface.so.5:_ZNK16KontactInterface16UniqueAppHandler6pluginEv
libKF5KontactInterface.so.5:_ZNK16KontactInterface16UniqueAppWatcher19isRunningStandaloneEv
libKF5KontactInterface.so.5:_ZNK16KontactInterface20PimUniqueApplication10metaObjectEv
libKF5KontactInterface.so.5:_ZNK16KontactInterface20PimUniqueApplication7cmdArgsEv
libKF5KontactInterface.so.5:_ZNK16KontactInterface6Plugin10identifierEv
libKF5KontactInterface.so.5:_ZNK16KontactInterface6Plugin10metaObjectEv
libKF5KontactInterface.so.5:_ZNK16KontactInterface6Plugin10queryCloseEv
libKF5KontactInterface.so.5:_ZNK16KontactInterface6Plugin11syncActionsEv
libKF5KontactInterface.so.5:_ZNK16KontactInterface6Plugin13showInSideBarEv
libKF5KontactInterface.so.5:_ZNK16KontactInterface6Plugin17canDecodeMimeDataEPK9QMimeData
libKF5KontactInterface.so.5:_ZNK16KontactInterface6Plugin19isRunningStandaloneEv
libKF5KontactInterface.so.5:_ZNK16KontactInterface6Plugin23invisibleToolbarActionsEv
libKF5KontactInterface.so.5:_ZNK16KontactInterface6Plugin4coreEv
libKF5KontactInterface.so.5:_ZNK16KontactInterface6Plugin6weightEv
libKF5KontactInterface.so.5:_ZTv0_n128_N16KontactInterface6Plugin12virtual_hookEiPv
libKF5Ldap.so.5:_ZN5KLDAP16LdapClientSearchC1EP7QObject
libKF5Ldap.so.5:_ZN5KLDAP16LdapClientSearchD1Ev
libKF5Ldap.so.5:_ZN5KLDAP19LdapConfigureWidget16staticMetaObjectE
libKF5Ldap.so.5:_ZN5KLDAP19LdapConfigureWidget4loadEv
libKF5Ldap.so.5:_ZN5KLDAP19LdapConfigureWidget4saveEv
libKF5Ldap.so.5:_ZN5KLDAP19LdapConfigureWidget7changedEb
libKF5Ldap.so.5:_ZN5KLDAP19LdapConfigureWidgetC1EP7QWidget
libKF5Libkdepim.so.5:_ZN4KPIM12ProgressItem11setCompleteEv
libKF5Libkdepim.so.5:_ZN4KPIM12ProgressItem13setTotalItemsEj
libKF5Libkdepim.so.5:_ZN4KPIM12ProgressItem14updateProgressEv
libKF5Libkdepim.so.5:_ZN4KPIM12ProgressItem15setCryptoStatusENS0_12CryptoStatusE
libKF5Libkdepim.so.5:_ZN4KPIM12ProgressItem16staticMetaObjectE
libKF5Libkdepim.so.5:_ZN4KPIM12ProgressItem17incCompletedItemsEj
libKF5Libkdepim.so.5:_ZN4KPIM12ProgressItem20progressItemCanceledEPS0_
libKF5Libkdepim.so.5:_ZN4KPIM12ProgressItem20setUsesBusyIndicatorEb
libKF5Libkdepim.so.5:_ZN4KPIM12ProgressItem9setStatusERK7QString
libKF5Libkdepim.so.5:_ZN4KPIM15MultiplyingLine16staticMetaObjectE
libKF5Libkdepim.so.5:_ZN4KPIM15ProgressManager11getUniqueIDEv
libKF5Libkdepim.so.5:_ZN4KPIM15ProgressManager12slotAbortAllEv
libKF5Libkdepim.so.5:_ZN4KPIM15ProgressManager16staticMetaObjectE
libKF5Libkdepim.so.5:_ZN4KPIM15ProgressManager18createProgressItemERK7QString
libKF5Libkdepim.so.5:_ZN4KPIM15ProgressManager18createProgressItemERK7QStringS3_S3_bNS_12ProgressItem12CryptoStatusE
libKF5Libkdepim.so.5:_ZN4KPIM15ProgressManager20progressItemCanceledEPNS_12ProgressItemE
libKF5Libkdepim.so.5:_ZN4KPIM15ProgressManager21progressItemCompletedEPNS_12ProgressItemE
libKF5Libkdepim.so.5:_ZN4KPIM15ProgressManager25slotStandardCancelHandlerEPNS_12ProgressItemE
libKF5Libkdepim.so.5:_ZN4KPIM15ProgressManager8instanceEv
libKF5Libkdepim.so.5:_ZN4KPIM21MultiplyingLineEditor10isModifiedEv
libKF5Libkdepim.so.5:_ZN4KPIM21MultiplyingLineEditor11setFocusTopEv
libKF5Libkdepim.so.5:_ZN4KPIM21MultiplyingLineEditor13clearModifiedEv
libKF5Libkdepim.so.5:_ZN4KPIM21MultiplyingLineEditor14setFocusBottomEv
libKF5Libkdepim.so.5:_ZN4KPIM21MultiplyingLineEditor15sizeHintChangedEv
libKF5Libkdepim.so.5:_ZN4KPIM21MultiplyingLineEditor16staticMetaObjectE
libKF5Libkdepim.so.5:_ZN4KPIM21MultiplyingLineEditor17setCompletionModeEN11KCompletion14CompletionModeE
libKF5Libkdepim.so.5:_ZN4KPIM21MultiplyingLineEditor19setFirstColumnWidthEi
libKF5Libkdepim.so.5:_ZN4KPIM21MultiplyingLineEditor21completionModeChangedEN11KCompletion14CompletionModeE
libKF5Libkdepim.so.5:_ZN4KPIM21MultiplyingLineEditor7focusUpEv
libKF5Libkdepim.so.5:_ZN4KPIM21MultiplyingLineEditor9focusDownEv
libKF5Libkdepim.so.5:_ZN4KPIM21MultiplyingLineEditor9lineAddedEPNS_15MultiplyingLineE
libKF5Libkdepim.so.5:_ZN4KPIM22LineEditCatchReturnKeyC1EP9QLineEditP7QObject
libKF5Libkdepim.so.5:_ZN4KPIM23ProgressStatusBarWidgetC1EP7QWidgetS2_j
libKF5Libkdepim.so.5:_ZNK4KPIM23ProgressStatusBarWidget14littleProgressEv
libKF5Libkleo.so.5:_ZN4Kleo12KeyRequester14setAllowedKeysEj
libKF5Libkleo.so.5:_ZN4Kleo12KeyRequester14setFingerprintERK7QString
libKF5Libkleo.so.5:_ZN4Kleo12KeyRequester16staticMetaObjectE
libKF5Libkleo.so.5:_ZN4Kleo12KeyRequester22setMultipleKeysEnabledEb
libKF5Libkleo.so.5:_ZN4Kleo12KeyRequester7changedEv
libKF5Libkleo.so.5:_ZN4Kleo12KeyRequesterC1EP7QWidget
libKF5Libkleo.so.5:_ZN4Kleo14ProgressDialogC1EPN6QGpgME3JobERK7QStringP7QWidget6QFlagsIN2Qt10WindowTypeEE
libKF5Libkleo.so.5:_ZN4Kleo16DefaultKeyFilterC1Ev
libKF5Libkleo.so.5:_ZN4Kleo16DefaultKeyFilterD0Ev
libKF5Libkleo.so.5:_ZN4Kleo17KeySelectionCombo11qt_metacallEN11QMetaObject4CallEiPPv
libKF5Libkleo.so.5:_ZN4Kleo17KeySelectionCombo11qt_metacastEPKc
libKF5Libkleo.so.5:_ZN4Kleo17KeySelectionCombo11refreshKeysEv
libKF5Libkleo.so.5:_ZN4Kleo17KeySelectionCombo11setIdFilterERK7QString
libKF5Libkleo.so.5:_ZN4Kleo17KeySelectionCombo12setKeyFilterERKSt10shared_ptrIKNS_9KeyFilterEE
libKF5Libkleo.so.5:_ZN4Kleo17KeySelectionCombo13setDefaultKeyERK7QString
libKF5Libkleo.so.5:_ZN4Kleo17KeySelectionCombo16appendCustomItemERK5QIconRK7QStringRK8QVariant
libKF5Libkleo.so.5:_ZN4Kleo17KeySelectionCombo16staticMetaObjectE
libKF5Libkleo.so.5:_ZN4Kleo17KeySelectionCombo17prependCustomItemERK5QIconRK7QStringRK8QVariant
libKF5Libkleo.so.5:_ZN4Kleo17KeySelectionCombo18customItemSelectedERK8QVariant
libKF5Libkleo.so.5:_ZN4Kleo17KeySelectionCombo18keyListingFinishedEv
libKF5Libkleo.so.5:_ZN4Kleo17KeySelectionCombo4initEv
libKF5Libkleo.so.5:_ZN4Kleo17KeySelectionComboC2EP7QWidget
libKF5Libkleo.so.5:_ZN4Kleo17KeySelectionComboD2Ev
libKF5Libkleo.so.5:_ZN4Kleo23DefaultKeyGenerationJob16staticMetaObjectE
libKF5Libkleo.so.5:_ZN4Kleo23DefaultKeyGenerationJob5startERK7QStringS3_
libKF5Libkleo.so.5:_ZN4Kleo23DefaultKeyGenerationJob6resultERKN5GpgME19KeyGenerationResultERK10QByteArrayRK7QStringRKNS1_5ErrorE
libKF5Libkleo.so.5:_ZN4Kleo23DefaultKeyGenerationJobC1EP7QObject
libKF5Libkleo.so.5:_ZN4Kleo26cryptoMessageFormatToLabelENS_19CryptoMessageFormatE
libKF5Libkleo.so.5:_ZN4Kleo27cryptoMessageFormatToStringENS_19CryptoMessageFormatE
libKF5Libkleo.so.5:_ZN4Kleo27stringToCryptoMessageFormatERK7QString
libKF5Libkleo.so.5:_ZNK4Kleo12KeyRequester11fingerprintEv
libKF5Libkleo.so.5:_ZNK4Kleo16DefaultKeyFilter10setCanSignENS0_8TriStateE
libKF5Libkleo.so.5:_ZNK4Kleo16DefaultKeyFilter12setHasSecretENS0_8TriStateE
libKF5Libkleo.so.5:_ZNK4Kleo16DefaultKeyFilter12setIsOpenPGPENS0_8TriStateE
libKF5Libkleo.so.5:_ZNK4Kleo16DefaultKeyFilter13setCanEncryptENS0_8TriStateE
libKF5Libkleo.so.5:_ZNK4Kleo17KeySelectionCombo10currentKeyEv
libKF5MailCommon.so.5:_ZN10MailCommon10MailFilter12agentRemovedERK7QString
libKF5MailCommon.so.5:_ZN10MailCommon10MailFilter13folderRemovedERKN7Akonadi10CollectionES4_
libKF5MailCommon.so.5:_ZN10MailCommon10MailFilterD1Ev
libKF5MailCommon.so.5:_ZN10MailCommon10SearchRule14createInstanceERK10QByteArrayNS0_8FunctionERK7QString
libKF5MailCommon.so.5:_ZN10MailCommon10SearchRule14createInstanceERKS0_
libKF5MailCommon.so.5:_ZN10MailCommon10SearchRuleD2Ev
libKF5MailCommon.so.5:_ZN10MailCommon11CryptoUtils14decryptMessageERK14QSharedPointerIN5KMime7MessageEERb
libKF5MailCommon.so.5:_ZN10MailCommon11ItemContext4itemEv
libKF5MailCommon.so.5:_ZN10MailCommon11ItemContextC1ERKN7Akonadi4ItemEb
libKF5MailCommon.so.5:_ZN10MailCommon12AddTagDialog7setTagsERK7QVectorI14QSharedPointerINS_3TagEEE
libKF5MailCommon.so.5:_ZN10MailCommon12AddTagDialogC1ERK5QListIP17KActionCollectionEP7QWidget
libKF5MailCommon.so.5:_ZN10MailCommon12FilterAction7sendMDNERKN7Akonadi4ItemEN5KMime3MDN15DispositionTypeERK7QVectorINS6_19DispositionModifierEE
libKF5MailCommon.so.5:_ZN10MailCommon12JobScheduler12registerTaskEPNS_13ScheduledTaskE
libKF5MailCommon.so.5:_ZN10MailCommon12JobScheduler5pauseEv
libKF5MailCommon.so.5:_ZN10MailCommon12JobScheduler6resumeEv
libKF5MailCommon.so.5:_ZN10MailCommon12JobSchedulerC1EP7QObject
libKF5MailCommon.so.5:_ZN10MailCommon12ScheduledJobC2ERKN7Akonadi10CollectionEb
libKF5MailCommon.so.5:_ZN10MailCommon12ScheduledJobD2Ev
libKF5MailCommon.so.5:_ZN10MailCommon13FilterManager14filtersChangedEv
libKF5MailCommon.so.5:_ZN10MailCommon13FilterManager16staticMetaObjectE
libKF5MailCommon.so.5:_ZN10MailCommon13FilterManager19showFilterLogDialogEx
libKF5MailCommon.so.5:_ZN10MailCommon13FilterManager8instanceEv
libKF5MailCommon.so.5:_ZN10MailCommon13ScheduledTaskC2ERKN7Akonadi10CollectionEb
libKF5MailCommon.so.5:_ZN10MailCommon13ScheduledTaskD2Ev
libKF5MailCommon.so.5:_ZN10MailCommon13SearchPattern11deserializeERK10QByteArray
libKF5MailCommon.so.5:_ZN10MailCommon13SearchPattern6purifyEb
libKF5MailCommon.so.5:_ZN10MailCommon13SearchPatternC1Ev
libKF5MailCommon.so.5:_ZN10MailCommon13SearchPatternD1Ev
libKF5MailCommon.so.5:_ZN10MailCommon13SearchPatternaSERKS0_
libKF5MailCommon.so.5:_ZN10MailCommon14FolderSettings10clearCacheEv
libKF5MailCommon.so.5:_ZN10MailCommon14FolderSettings11setShortcutERK12QKeySequence
libKF5MailCommon.so.5:_ZN10MailCommon14FolderSettings13forCollectionERKN7Akonadi10CollectionEb
libKF5MailCommon.so.5:_ZN10MailCommon14FolderSettings13setCollectionERKN7Akonadi10CollectionE
libKF5MailCommon.so.5:_ZN10MailCommon14FolderSettings14setMailingListERKN11MessageCore11MailingListE
libKF5MailCommon.so.5:_ZN10MailCommon14FolderSettings15configGroupNameERKN7Akonadi10CollectionE
libKF5MailCommon.so.5:_ZN10MailCommon14FolderSettings15resetHtmlFormatEv
libKF5MailCommon.so.5:_ZN10MailCommon14FolderSettings16setFormatMessageEN13MessageViewer6Viewer20DisplayFormatMessageE
libKF5MailCommon.so.5:_ZN10MailCommon14FolderSettings21setMailingListEnabledEb
libKF5MailCommon.so.5:_ZN10MailCommon14FolderSettings30setFolderHtmlLoadExtPreferenceEb
libKF5MailCommon.so.5:_ZN10MailCommon14FolderTreeView15newTabRequestedEb
libKF5MailCommon.so.5:_ZN10MailCommon14FolderTreeView16staticMetaObjectE
libKF5MailCommon.so.5:_ZN10MailCommon14FolderTreeView19slotFocusLastFolderEv
libKF5MailCommon.so.5:_ZN10MailCommon14FolderTreeView19slotFocusNextFolderEv
libKF5MailCommon.so.5:_ZN10MailCommon14FolderTreeView19slotFocusPrevFolderEv
libKF5MailCommon.so.5:_ZN10MailCommon14FolderTreeView20slotFocusFirstFolderEv
libKF5MailCommon.so.5:_ZN10MailCommon14FolderTreeView21slotSelectFocusFolderEv
libKF5MailCommon.so.5:_ZN10MailCommon14FolderTreeView22selectNextUnreadFolderEb
libKF5MailCommon.so.5:_ZN10MailCommon14FolderTreeView22selectPrevUnreadFolderEb
libKF5MailCommon.so.5:_ZN10MailCommon14KMFilterDialog12createFilterERK10QByteArrayRK7QString
libKF5MailCommon.so.5:_ZN10MailCommon14KMFilterDialogC1ERK5QListIP17KActionCollectionEP7QWidgetb
libKF5MailCommon.so.5:_ZN10MailCommon14RedirectDialogC1ENS0_8SendModeEP7QWidget
libKF5MailCommon.so.5:_ZN10MailCommon14SendMdnHandlerC1EPNS_7IKernelEP7QObject
libKF5MailCommon.so.5:_ZN10MailCommon15FolderRequester11qt_metacallEN11QMetaObject4CallEiPPv
libKF5MailCommon.so.5:_ZN10MailCommon15FolderRequester11qt_metacastEPKc
libKF5MailCommon.so.5:_ZN10MailCommon15FolderRequester13folderChangedERKN7Akonadi10CollectionE
libKF5MailCommon.so.5:_ZN10MailCommon15FolderRequester13invalidFolderEv
libKF5MailCommon.so.5:_ZN10MailCommon15FolderRequester13keyPressEventEP9QKeyEvent
libKF5MailCommon.so.5:_ZN10MailCommon15FolderRequester13setCollectionERKN7Akonadi10CollectionEb
libKF5MailCommon.so.5:_ZN10MailCommon15FolderRequester13setShowOutboxEb
libKF5MailCommon.so.5:_ZN10MailCommon15FolderRequester16staticMetaObjectE
libKF5MailCommon.so.5:_ZN10MailCommon15FolderRequester18setMustBeReadWriteEb
libKF5MailCommon.so.5:_ZN10MailCommon15FolderRequester26setSelectFolderTitleDialogERK7QString
libKF5MailCommon.so.5:_ZN10MailCommon15FolderRequester28setNotAllowToCreateNewFolderEb
libKF5MailCommon.so.5:_ZN10MailCommon15FolderRequesterC1EP7QWidget
libKF5MailCommon.so.5:_ZN10MailCommon15FolderRequesterC2EP7QWidget
libKF5MailCommon.so.5:_ZN10MailCommon15FolderRequesterD2Ev
libKF5MailCommon.so.5:_ZN10MailCommon15SnippetTreeView16staticMetaObjectE
libKF5MailCommon.so.5:_ZN10MailCommon15SnippetTreeView17insertSnippetInfoERKNS_11SnippetInfoE
libKF5MailCommon.so.5:_ZN10MailCommon15SnippetTreeViewC1EP17KActionCollectionP7QWidget
libKF5MailCommon.so.5:_ZN10MailCommon15SnippetsManager13insertSnippetEv
libKF5MailCommon.so.5:_ZN10MailCommon16FolderTreeWidget10readConfigEv
libKF5MailCommon.so.5:_ZN10MailCommon16FolderTreeWidget18restoreHeaderStateERK10QByteArray
libKF5MailCommon.so.5:_ZN10MailCommon16FolderTreeWidget22selectCollectionFolderERKN7Akonadi10CollectionE
libKF5MailCommon.so.5:_ZN10MailCommon16FolderTreeWidgetC1EP7QWidgetP13KXMLGUIClient6QFlagsINS0_14TreeViewOptionEES5_INS_26FolderTreeWidgetProxyModel32FolderTreeWidgetProxyModelOptionEE
libKF5MailCommon.so.5:_ZN10MailCommon16SearchRuleStatusC1EN7Akonadi13MessageStatusENS_10SearchRule8FunctionE
libKF5MailCommon.so.5:_ZN10MailCommon17MDNStateAttributeC1ENS0_12MDNSentStateE
libKF5MailCommon.so.5:_ZN10MailCommon17MDNStateAttributeD1Ev
libKF5MailCommon.so.5:_ZN10MailCommon17SearchPatternEdit11qt_metacallEN11QMetaObject4CallEiPPv
libKF5MailCommon.so.5:_ZN10MailCommon17SearchPatternEdit11qt_metacastEPKc
libKF5MailCommon.so.5:_ZN10MailCommon17SearchPatternEdit13returnPressedEv
libKF5MailCommon.so.5:_ZN10MailCommon17SearchPatternEdit16setSearchPatternEPNS_13SearchPatternE
libKF5MailCommon.so.5:_ZN10MailCommon17SearchPatternEdit16staticMetaObjectE
libKF5MailCommon.so.5:_ZN10MailCommon17SearchPatternEdit19updateSearchPatternEv
libKF5MailCommon.so.5:_ZN10MailCommon17SearchPatternEditC2EP7QWidget6QFlagsINS0_23SearchPatternEditOptionEENS0_14SearchModeTypeE
libKF5MailCommon.so.5:_ZN10MailCommon17SearchPatternEditD2Ev
libKF5MailCommon.so.5:_ZN10MailCommon18MailCommonSettingsC1Ev
libKF5MailCommon.so.5:_ZN10MailCommon20CollectionExpiryPageC1EP7QWidget
libKF5MailCommon.so.5:_ZN10MailCommon20CollectionViewWidget4loadERKN7Akonadi10CollectionE
libKF5MailCommon.so.5:_ZN10MailCommon20CollectionViewWidget4saveERN7Akonadi10CollectionE
libKF5MailCommon.so.5:_ZN10MailCommon20CollectionViewWidgetC1EP7QWidget
libKF5MailCommon.so.5:_ZN10MailCommon21CollectionGeneralPageC1EP7QWidget
libKF5MailCommon.so.5:_ZN10MailCommon21FolderSelectionDialogC1EP7QWidget6QFlagsINS0_21SelectionFolderOptionEE
libKF5MailCommon.so.5:_ZN10MailCommon22FilterImporterExporter21readFiltersFromConfigERK28QExplicitlySharedDataPointerI13KSharedConfigER11QStringList
libKF5MailCommon.so.5:_ZN10MailCommon22ResourceReadConfigFileC1ERK7QString
libKF5MailCommon.so.5:_ZN10MailCommon22ResourceReadConfigFileD1Ev
libKF5MailCommon.so.5:_ZN10MailCommon23FolderCollectionMonitor16expireAllFoldersEbP18QAbstractItemModel
libKF5MailCommon.so.5:_ZN10MailCommon23FolderCollectionMonitor7expungeERKN7Akonadi10CollectionEb
libKF5MailCommon.so.5:_ZN10MailCommon23FolderCollectionMonitorC1EPN7Akonadi7SessionEP7QObject
libKF5MailCommon.so.5:_ZN10MailCommon24AccountConfigOrderDialogC1EPNS_18MailCommonSettingsEP7QWidget
libKF5MailCommon.so.5:_ZN10MailCommon24FavoriteCollectionWidget10readConfigEv
libKF5MailCommon.so.5:_ZN10MailCommon24FavoriteCollectionWidget10updateModeEv
libKF5MailCommon.so.5:_ZN10MailCommon24FavoriteCollectionWidget14changeViewModeEN9QListView8ViewModeE
libKF5MailCommon.so.5:_ZN10MailCommon24FavoriteCollectionWidget15newTabRequestedEb
libKF5MailCommon.so.5:_ZN10MailCommon24FavoriteCollectionWidget16staticMetaObjectE
libKF5MailCommon.so.5:_ZN10MailCommon24FavoriteCollectionWidgetC1EPNS_18MailCommonSettingsEP13KXMLGUIClientP7QWidget
libKF5MailCommon.so.5:_ZN10MailCommon25CollectionTemplatesWidget4loadERKN7Akonadi10CollectionE
libKF5MailCommon.so.5:_ZN10MailCommon25CollectionTemplatesWidget4saveERN7Akonadi10CollectionE
libKF5MailCommon.so.5:_ZN10MailCommon25CollectionTemplatesWidgetC1EP7QWidget
libKF5MailCommon.so.5:_ZN10MailCommon25ExpireCollectionAttributeC1Ev
libKF5MailCommon.so.5:_ZN10MailCommon33FavoriteCollectionOrderProxyModelC1EP7QObject
libKF5MailCommon.so.5:_ZN10MailCommon3Tag11fromAkonadiERKN7Akonadi3TagE
libKF5MailCommon.so.5:_ZN10MailCommon3Tag16createDefaultTagERK7QString
libKF5MailCommon.so.5:_ZN10MailCommon3Tag7compareERK14QSharedPointerIS0_ES4_
libKF5MailCommon.so.5:_ZN10MailCommon4Util11foundMailerEv
libKF5MailCommon.so.5:_ZN10MailCommon4Util11isMailAgentERKN7Akonadi13AgentInstanceEb
libKF5MailCommon.so.5:_ZN10MailCommon4Util14agentInstancesEb
libKF5MailCommon.so.5:_ZN10MailCommon4Util14folderIdentityERKN7Akonadi4ItemE
libKF5MailCommon.so.5:_ZN10MailCommon4Util17expireOldMessagesERKN7Akonadi10CollectionEb
libKF5MailCommon.so.5:_ZN10MailCommon4Util18fullCollectionPathERKN7Akonadi10CollectionEb
libKF5MailCommon.so.5:_ZN10MailCommon4Util19isVirtualCollectionERK7QString
libKF5MailCommon.so.5:_ZN10MailCommon4Util19isVirtualCollectionERKN7Akonadi10CollectionE
libKF5MailCommon.so.5:_ZN10MailCommon4Util19showJobErrorMessageEP4KJob
libKF5MailCommon.so.5:_ZN10MailCommon4Util27createPop3SettingsInterfaceERK7QString
libKF5MailCommon.so.5:_ZN10MailCommon6Kernel11initFoldersEv
libKF5MailCommon.so.5:_ZN10MailCommon6Kernel13folderIsInboxERKN7Akonadi10CollectionE
libKF5MailCommon.so.5:_ZN10MailCommon6Kernel13folderIsTrashERKN7Akonadi10CollectionE
libKF5MailCommon.so.5:_ZN10MailCommon6Kernel14folderIsDraftsERKN7Akonadi10CollectionE
libKF5MailCommon.so.5:_ZN10MailCommon6Kernel16registerFilterIfEPNS_7IFilterE
libKF5MailCommon.so.5:_ZN10MailCommon6Kernel16registerKernelIfEPNS_7IKernelE
libKF5MailCommon.so.5:_ZN10MailCommon6Kernel17folderIsTemplatesERKN7Akonadi10CollectionE
libKF5MailCommon.so.5:_ZN10MailCommon6Kernel18registerSettingsIfEPNS_9ISettingsE
libKF5MailCommon.so.5:_ZN10MailCommon6Kernel20sentCollectionFolderEv
libKF5MailCommon.so.5:_ZN10MailCommon6Kernel21folderIsDraftOrOutboxERKN7Akonadi10CollectionE
libKF5MailCommon.so.5:_ZN10MailCommon6Kernel21inboxCollectionFolderEv
libKF5MailCommon.so.5:_ZN10MailCommon6Kernel21trashCollectionFolderEv
libKF5MailCommon.so.5:_ZN10MailCommon6Kernel22draftsCollectionFolderEv
libKF5MailCommon.so.5:_ZN10MailCommon6Kernel22folderIsSentMailFolderERKN7Akonadi10CollectionE
libKF5MailCommon.so.5:_ZN10MailCommon6Kernel22isMainFolderCollectionERKN7Akonadi10CollectionE
libKF5MailCommon.so.5:_ZN10MailCommon6Kernel22outboxCollectionFolderEv
libKF5MailCommon.so.5:_ZN10MailCommon6Kernel24isSystemFolderCollectionERKN7Akonadi10CollectionE
libKF5MailCommon.so.5:_ZN10MailCommon6Kernel25templatesCollectionFolderEv
libKF5MailCommon.so.5:_ZN10MailCommon6Kernel27trashCollectionFromResourceERKN7Akonadi10CollectionE
libKF5MailCommon.so.5:_ZN10MailCommon6Kernel28pop3ResourceTargetCollectionEv
libKF5MailCommon.so.5:_ZN10MailCommon6Kernel4selfEv
libKF5MailCommon.so.5:_ZN10MailCommon9BackupJob10backupDoneERK7QString
libKF5MailCommon.so.5:_ZN10MailCommon9BackupJob11setRealPathERK7QString
libKF5MailCommon.so.5:_ZN10MailCommon9BackupJob12setRecursiveEb
libKF5MailCommon.so.5:_ZN10MailCommon9BackupJob13setRootFolderERKN7Akonadi10CollectionE
libKF5MailCommon.so.5:_ZN10MailCommon9BackupJob14setArchiveTypeENS0_11ArchiveTypeE
libKF5MailCommon.so.5:_ZN10MailCommon9BackupJob15setSaveLocationERK4QUrl
libKF5MailCommon.so.5:_ZN10MailCommon9BackupJob16staticMetaObjectE
libKF5MailCommon.so.5:_ZN10MailCommon9BackupJob20setDisplayMessageBoxEb
libKF5MailCommon.so.5:_ZN10MailCommon9BackupJob31setDeleteFoldersAfterCompletionEb
libKF5MailCommon.so.5:_ZN10MailCommon9BackupJob5errorERK7QString
libKF5MailCommon.so.5:_ZN10MailCommon9BackupJob5startEv
libKF5MailCommon.so.5:_ZN10MailCommon9BackupJobC1EP7QWidget
libKF5MailCommon.so.5:_ZN10MailCommon9FilterLog10setLoggingEb
libKF5MailCommon.so.5:_ZN10MailCommon9FilterLog11logShrinkedEv
libKF5MailCommon.so.5:_ZN10MailCommon9FilterLog12addSeparatorEv
libKF5MailCommon.so.5:_ZN10MailCommon9FilterLog13logEntryAddedERK7QString
libKF5MailCommon.so.5:_ZN10MailCommon9FilterLog13setMaxLogSizeEl
libKF5MailCommon.so.5:_ZN10MailCommon9FilterLog15logStateChangedEv
libKF5MailCommon.so.5:_ZN10MailCommon9FilterLog16staticMetaObjectE
libKF5MailCommon.so.5:_ZN10MailCommon9FilterLog21setContentTypeEnabledENS0_11ContentTypeEb
libKF5MailCommon.so.5:_ZN10MailCommon9FilterLog3addERK7QStringNS0_11ContentTypeE
libKF5MailCommon.so.5:_ZN10MailCommon9FilterLog5clearEv
libKF5MailCommon.so.5:_ZN10MailCommon9FilterLog8instanceEv
libKF5MailCommon.so.5:_ZN10MailCommon9FolderJob11qt_metacallEN11QMetaObject4CallEiPPv
libKF5MailCommon.so.5:_ZN10MailCommon9FolderJob11qt_metacastEPKc
libKF5MailCommon.so.5:_ZN10MailCommon9FolderJob16staticMetaObjectE
libKF5MailCommon.so.5:_ZN10MailCommon9FolderJob4killEv
libKF5MailCommon.so.5:_ZN10MailCommon9TagWidget15iconNameChangedERK7QString
libKF5MailCommon.so.5:_ZN10MailCommon9TagWidget15setTagTextColorERK6QColor
libKF5MailCommon.so.5:_ZN10MailCommon9TagWidget16setTagTextFormatEbb
libKF5MailCommon.so.5:_ZN10MailCommon9TagWidget16staticMetaObjectE
libKF5MailCommon.so.5:_ZN10MailCommon9TagWidget17recordTagSettingsE14QSharedPointerINS_3TagEE
libKF5MailCommon.so.5:_ZN10MailCommon9TagWidget21setTagBackgroundColorERK6QColor
libKF5MailCommon.so.5:_ZN10MailCommon9TagWidget7changedEv
libKF5MailCommon.so.5:_ZN10MailCommon9TagWidgetC1ERK5QListIP17KActionCollectionEP7QWidget
libKF5MailCommon.so.5:_ZNK10MailCommon10MailFilter10identifierEv
libKF5MailCommon.so.5:_ZNK10MailCommon10MailFilter11execActionsERNS_11ItemContextERbb
libKF5MailCommon.so.5:_ZNK10MailCommon10MailFilter11toolbarNameEv
libKF5MailCommon.so.5:_ZNK10MailCommon10MailFilter12requiredPartERK7QString
libKF5MailCommon.so.5:_ZNK10MailCommon10MailFilter14applyOnAccountERK7QString
libKF5MailCommon.so.5:_ZNK10MailCommon10MailFilter14applyOnInboundEv
libKF5MailCommon.so.5:_ZNK10MailCommon10MailFilter15applyOnExplicitEv
libKF5MailCommon.so.5:_ZNK10MailCommon10MailFilter15applyOnOutboundEv
libKF5MailCommon.so.5:_ZNK10MailCommon10MailFilter16configureToolbarEv
libKF5MailCommon.so.5:_ZNK10MailCommon10MailFilter17configureShortcutEv
libKF5MailCommon.so.5:_ZNK10MailCommon10MailFilter19applyBeforeOutboundEv
libKF5MailCommon.so.5:_ZNK10MailCommon10MailFilter24applyOnAllFoldersInboundEv
libKF5MailCommon.so.5:_ZNK10MailCommon10MailFilter4iconEv
libKF5MailCommon.so.5:_ZNK10MailCommon10MailFilter4nameEv
libKF5MailCommon.so.5:_ZNK10MailCommon10MailFilter7isEmptyEv
libKF5MailCommon.so.5:_ZNK10MailCommon10MailFilter7patternEv
libKF5MailCommon.so.5:_ZNK10MailCommon10MailFilter8asStringEv
libKF5MailCommon.so.5:_ZNK10MailCommon10MailFilter8shortcutEv
libKF5MailCommon.so.5:_ZNK10MailCommon10MailFilter9isEnabledEv
libKF5MailCommon.so.5:_ZNK10MailCommon11ItemContext10deleteItemEv
libKF5MailCommon.so.5:_ZNK10MailCommon11ItemContext14needsFlagStoreEv
libKF5MailCommon.so.5:_ZNK10MailCommon11ItemContext16needsFullPayloadEv
libKF5MailCommon.so.5:_ZNK10MailCommon11ItemContext17needsPayloadStoreEv
libKF5MailCommon.so.5:_ZNK10MailCommon11ItemContext20moveTargetCollectionEv
libKF5MailCommon.so.5:_ZNK10MailCommon12AddTagDialog3tagEv
libKF5MailCommon.so.5:_ZNK10MailCommon13FilterManager6filterERK7QVectorIN7Akonadi10CollectionEENS0_9FilterSetE
libKF5MailCommon.so.5:_ZNK10MailCommon13FilterManager6filterERK7QVectorIN7Akonadi10CollectionEERK11QStringListNS0_9FilterSetE
libKF5MailCommon.so.5:_ZNK10MailCommon13FilterManager6filterERK7QVectorIN7Akonadi4ItemEENS0_9FilterSetE
libKF5MailCommon.so.5:_ZNK10MailCommon13FilterManager6filterERKN7Akonadi4ItemERK7QStringS7_
libKF5MailCommon.so.5:_ZNK10MailCommon13FilterManager7filtersEv
libKF5MailCommon.so.5:_ZNK10MailCommon13SearchPattern14asAkonadiQueryERN7Akonadi11SearchQueryE
libKF5MailCommon.so.5:_ZNK10MailCommon13SearchPattern7matchesERKN7Akonadi4ItemEb
libKF5MailCommon.so.5:_ZNK10MailCommon13SearchPattern8asStringEv
libKF5MailCommon.so.5:_ZNK10MailCommon13SearchPattern9serializeEv
libKF5MailCommon.so.5:_ZNK10MailCommon14FolderSettings10isReadOnlyEv
libKF5MailCommon.so.5:_ZNK10MailCommon14FolderSettings10statisticsEv
libKF5MailCommon.so.5:_ZNK10MailCommon14FolderSettings11mailingListEv
libKF5MailCommon.so.5:_ZNK10MailCommon14FolderSettings11writeConfigEv
libKF5MailCommon.so.5:_ZNK10MailCommon14FolderSettings12isStructuralEv
libKF5MailCommon.so.5:_ZNK10MailCommon14FolderSettings14isSystemFolderEv
libKF5MailCommon.so.5:_ZNK10MailCommon14FolderSettings17canDeleteMessagesEv
libKF5MailCommon.so.5:_ZNK10MailCommon14FolderSettings20isMailingListEnabledEv
libKF5MailCommon.so.5:_ZNK10MailCommon14FolderSettings22mailingListPostAddressEv
libKF5MailCommon.so.5:_ZNK10MailCommon14FolderSettings22putRepliesInSameFolderEv
libKF5MailCommon.so.5:_ZNK10MailCommon14FolderSettings4nameEv
libKF5MailCommon.so.5:_ZNK10MailCommon14FolderSettings5countEv
libKF5MailCommon.so.5:_ZNK10MailCommon14FolderSettings6rightsEv
libKF5MailCommon.so.5:_ZNK10MailCommon14FolderSettings7isValidEv
libKF5MailCommon.so.5:_ZNK10MailCommon14FolderSettings8identityEv
libKF5MailCommon.so.5:_ZNK10MailCommon14FolderSettings8shortcutEv
libKF5MailCommon.so.5:_ZNK10MailCommon14FolderTreeView13currentFolderEv
libKF5MailCommon.so.5:_ZNK10MailCommon14RedirectDialog11transportIdEv
libKF5MailCommon.so.5:_ZNK10MailCommon14RedirectDialog2ccEv
libKF5MailCommon.so.5:_ZNK10MailCommon14RedirectDialog2toEv
libKF5MailCommon.so.5:_ZNK10MailCommon14RedirectDialog3bccEv
libKF5MailCommon.so.5:_ZNK10MailCommon14RedirectDialog8identityEv
libKF5MailCommon.so.5:_ZNK10MailCommon14RedirectDialog8sendModeEv
libKF5MailCommon.so.5:_ZNK10MailCommon15FolderRequester10collectionEv
libKF5MailCommon.so.5:_ZNK10MailCommon15FolderRequester13hasCollectionEv
libKF5MailCommon.so.5:_ZNK10MailCommon15SnippetTreeView15snippetsManagerEv
libKF5MailCommon.so.5:_ZNK10MailCommon16FolderTreeWidget14folderTreeViewEv
libKF5MailCommon.so.5:_ZNK10MailCommon16FolderTreeWidget14selectionModelEv
libKF5MailCommon.so.5:_ZNK10MailCommon16FolderTreeWidget20filterFolderLineEditEv
libKF5MailCommon.so.5:_ZNK10MailCommon16FolderTreeWidget26folderTreeWidgetProxyModelEv
libKF5MailCommon.so.5:_ZNK10MailCommon17MDNStateAttribute4typeEv
libKF5MailCommon.so.5:_ZNK10MailCommon21FolderSelectionDialog18selectedCollectionEv
libKF5MailCommon.so.5:_ZNK10MailCommon22ResourceReadConfigFile5groupERK7QString
libKF5MailCommon.so.5:_ZNK10MailCommon23FolderCollectionMonitor7monitorEv
libKF5MailCommon.so.5:_ZNK10MailCommon25ExpireCollectionAttribute12isAutoExpireEv
libKF5MailCommon.so.5:_ZNK10MailCommon25ExpireCollectionAttribute15readExpireUnitsEv
libKF5MailCommon.so.5:_ZNK10MailCommon25ExpireCollectionAttribute17unreadExpireUnitsEv
libKF5MailCommon.so.5:_ZNK10MailCommon25ExpireCollectionAttribute4typeEv
libKF5MailCommon.so.5:_ZNK10MailCommon3Tag13saveToAkonadiE6QFlagsINS0_8SaveFlagEE
libKF5MailCommon.so.5:_ZNK10MailCommon3Tag2idEv
libKF5MailCommon.so.5:_ZNK10MailCommon3Tag3tagEv
libKF5MailCommon.so.5:_ZNK10MailCommon3Tag4nameEv
libKF5MailCommon.so.5:_ZNK10MailCommon3TagneERKS0_
libKF5MailCommon.so.5:_ZNK10MailCommon6Kernel16collectionFromIdEx
libKF5MailCommon.so.5:_ZNK10MailCommon6Kernel18kernelIsRegisteredEv
libKF5MailCommon.so.5:_ZNK10MailCommon6Kernel8filterIfEv
libKF5MailCommon.so.5:_ZNK10MailCommon6Kernel8kernelIfEv
libKF5MailCommon.so.5:_ZNK10MailCommon9FilterLog10logEntriesEv
libKF5MailCommon.so.5:_ZNK10MailCommon9FilterLog10maxLogSizeEv
libKF5MailCommon.so.5:_ZNK10MailCommon9FilterLog10saveToFileERK7QString
libKF5MailCommon.so.5:_ZNK10MailCommon9FilterLog20isContentTypeEnabledENS0_11ContentTypeE
libKF5MailCommon.so.5:_ZNK10MailCommon9FilterLog9isLoggingEv
libKF5MailCommon.so.5:_ZNK10MailCommon9TagWidget10iconButtonEv
libKF5MailCommon.so.5:_ZNK10MailCommon9TagWidget14inToolBarCheckEv
libKF5MailCommon.so.5:_ZNK10MailCommon9TagWidget15tagNameLineEditEv
libKF5MailCommon.so.5:_ZNK10MailCommon9TagWidget17keySequenceWidgetEv
libKF5MailTransport.so.5:_ZN13MailTransport16TransportManager16staticMetaObjectE
libKF5MailTransport.so.5:_ZN13MailTransport16TransportManager16transportRemovedEiRK7QString
libKF5MailTransport.so.5:_ZN13MailTransport16TransportManager16transportRenamedEiRK7QStringS3_
libKF5MailTransport.so.5:_ZN13MailTransport16TransportManager17transportsChangedEv
libKF5MailTransport.so.5:_ZN13MailTransport16TransportManager27showTransportCreationDialogEP7QWidgetNS0_13ShowConditionE
libKF5MailTransport.so.5:_ZN13MailTransport16TransportManager4selfEv
libKF5MailTransport.so.5:_ZN13MailTransport17TransportComboBox16staticMetaObjectE
libKF5MailTransport.so.5:_ZN13MailTransport17TransportComboBox16transportRemovedEiRK7QString
libKF5MailTransport.so.5:_ZN13MailTransport17TransportComboBox19setCurrentTransportEi
libKF5MailTransport.so.5:_ZN13MailTransport17TransportComboBoxC1EP7QWidget
libKF5MailTransport.so.5:_ZN13MailTransport25TransportManagementWidgetC1EP7QWidget
libKF5MailTransport.so.5:_ZNK13MailTransport16TransportManager10transportsEv
libKF5MailTransport.so.5:_ZNK13MailTransport16TransportManager12transportIdsEv
libKF5MailTransport.so.5:_ZNK13MailTransport16TransportManager13transportByIdEib
libKF5MailTransport.so.5:_ZNK13MailTransport16TransportManager15transportByNameERK7QStringb
libKF5MailTransport.so.5:_ZNK13MailTransport16TransportManager18defaultTransportIdEv
libKF5MailTransport.so.5:_ZNK13MailTransport17TransportComboBox18currentTransportIdEv
libKF5MailTransportAkonadi.so.5:_ZN13MailTransport18TransportAttributeC1Ei
libKF5MailTransportAkonadi.so.5:_ZN13MailTransport18TransportAttributeD1Ev
libKF5MailTransportAkonadi.so.5:_ZN13MailTransport19DispatcherInterfaceC1Ev
libKF5MailTransportAkonadi.so.5:_ZN13MailTransport22SentBehaviourAttributeC1ENS0_13SentBehaviourERKN7Akonadi10CollectionEb
libKF5MailTransportAkonadi.so.5:_ZN13MailTransport22SentBehaviourAttributeD1Ev
libKF5MailTransportAkonadi.so.5:_ZNK13MailTransport18TransportAttribute11transportIdEv
libKF5MailTransportAkonadi.so.5:_ZNK13MailTransport18TransportAttribute4typeEv
libKF5MailTransportAkonadi.so.5:_ZNK13MailTransport19DispatcherInterface18dispatcherInstanceEv
libKF5MailTransportAkonadi.so.5:_ZNK13MailTransport22SentBehaviourAttribute13sentBehaviourEv
libKF5MailTransportAkonadi.so.5:_ZNK13MailTransport22SentBehaviourAttribute16moveToCollectionEv
libKF5MailTransportAkonadi.so.5:_ZNK13MailTransport22SentBehaviourAttribute4typeEv
libKF5MessageComposer.so.5:_ZN13MessageHelper10initHeaderERK14QSharedPointerIN5KMime7MessageEEPKN19KIdentityManagement15IdentityManagerEj
libKF5MessageComposer.so.5:_ZN13MessageHelper16extractAddrSpecsERK14QSharedPointerIN5KMime7MessageEERK10QByteArray
libKF5MessageComposer.so.5:_ZN15MessageComposer10GlobalPart21setParentWidgetForGuiEP7QWidget
libKF5MessageComposer.so.5:_ZN15MessageComposer12SendLaterJob5startEv
libKF5MessageComposer.so.5:_ZN15MessageComposer13AkonadiSenderC1EP7QObject
libKF5MessageComposer.so.5:_ZN15MessageComposer13SendLaterInfo10setSubjectERK7QString
libKF5MessageComposer.so.5:_ZN15MessageComposer13SendLaterInfo11setDateTimeERK9QDateTime
libKF5MessageComposer.so.5:_ZN15MessageComposer13SendLaterInfo13setRecurrenceEb
libKF5MessageComposer.so.5:_ZN15MessageComposer13SendLaterInfo17setRecurrenceUnitENS0_14RecurrenceUnitE
libKF5MessageComposer.so.5:_ZN15MessageComposer13SendLaterInfo19setLastDateTimeSendERK9QDateTime
libKF5MessageComposer.so.5:_ZN15MessageComposer13SendLaterInfo22setRecurrenceEachValueEi
libKF5MessageComposer.so.5:_ZN15MessageComposer13SendLaterInfo5setToERK7QString
libKF5MessageComposer.so.5:_ZN15MessageComposer13SendLaterInfo9setItemIdEx
libKF5MessageComposer.so.5:_ZN15MessageComposer13SendLaterUtil21sentLaterAgentEnabledEv
libKF5MessageComposer.so.5:_ZN15MessageComposer13SendLaterUtil27sentLaterAgentWasRegisteredEv
libKF5MessageComposer.so.5:_ZN15MessageComposer15AttachmentModel11signEnabledEb
libKF5MessageComposer.so.5:_ZN15MessageComposer15AttachmentModel14encryptEnabledEb
libKF5MessageComposer.so.5:_ZN15MessageComposer15AttachmentModel14setSignEnabledEb
libKF5MessageComposer.so.5:_ZN15MessageComposer15AttachmentModel15setSignSelectedEb
libKF5MessageComposer.so.5:_ZN15MessageComposer15AttachmentModel16removeAttachmentERK14QSharedPointerIN11MessageCore14AttachmentPartEE
libKF5MessageComposer.so.5:_ZN15MessageComposer15AttachmentModel16staticMetaObjectE
libKF5MessageComposer.so.5:_ZN15MessageComposer15AttachmentModel17setEncryptEnabledEb
libKF5MessageComposer.so.5:_ZN15MessageComposer15AttachmentModel18setEncryptSelectedEb
libKF5MessageComposer.so.5:_ZN15MessageComposer15AttachmentModel20attachItemsRequesterERK7QVectorIN7Akonadi4ItemEE
libKF5MessageComposer.so.5:_ZN15MessageComposer15AttachmentModelC1EP7QObject
libKF5MessageComposer.so.5:_ZN15MessageComposer15RecipientLineNG11iconClickedEv
libKF5MessageComposer.so.5:_ZN15MessageComposer15RecipientLineNG12countChangedEv
libKF5MessageComposer.so.5:_ZN15MessageComposer15RecipientLineNG13activeChangedEv
libKF5MessageComposer.so.5:_ZN15MessageComposer15RecipientLineNG16staticMetaObjectE
libKF5MessageComposer.so.5:_ZN15MessageComposer15RecipientLineNG7setIconERK5QIconRK7QString
libKF5MessageComposer.so.5:_ZN15MessageComposer15SendLaterDialog4infoEv
libKF5MessageComposer.so.5:_ZN15MessageComposer15SendLaterDialogC1EPNS_13SendLaterInfoEP7QWidget
libKF5MessageComposer.so.5:_ZN15MessageComposer16AliasesExpandJob16staticMetaObjectE
libKF5MessageComposer.so.5:_ZN15MessageComposer16AliasesExpandJobC1ERK7QStringS3_P7QObject
libKF5MessageComposer.so.5:_ZN15MessageComposer16ComposerLineEdit16staticMetaObjectE
libKF5MessageComposer.so.5:_ZN15MessageComposer16ComposerLineEdit9focusDownEv
libKF5MessageComposer.so.5:_ZN15MessageComposer16ComposerLineEditC1EbP7QWidget
libKF5MessageComposer.so.5:_ZN15MessageComposer16ComposerViewBase10enableHtmlEv
libKF5MessageComposer.so.5:_ZN15MessageComposer16ComposerViewBase10setMessageERK14QSharedPointerIN5KMime7MessageEEb
libKF5MessageComposer.so.5:_ZN15MessageComposer16ComposerViewBase10setSubjectERK7QString
libKF5MessageComposer.so.5:_ZN15MessageComposer16ComposerViewBase11disableHtmlENS0_12ConfirmationE
libKF5MessageComposer.so.5:_ZN15MessageComposer16ComposerViewBase11setCharsetsERK7QVectorI10QByteArrayE
libKF5MessageComposer.so.5:_ZN15MessageComposer16ComposerViewBase13addAttachmentERK4QUrlRK7QStringb
libKF5MessageComposer.so.5:_ZN15MessageComposer16ComposerViewBase13addAttachmentERK7QStringS3_S3_RK10QByteArrayS6_
libKF5MessageComposer.so.5:_ZN15MessageComposer16ComposerViewBase13clearFollowUpEv
libKF5MessageComposer.so.5:_ZN15MessageComposer16ComposerViewBase13identityComboEv
libKF5MessageComposer.so.5:_ZN15MessageComposer16ComposerViewBase13setDictionaryEPN6Sonnet18DictionaryComboBoxE
libKF5MessageComposer.so.5:_ZN15MessageComposer16ComposerViewBase14updateAutoSaveEv
libKF5MessageComposer.so.5:_ZN15MessageComposer16ComposerViewBase14updateTemplateERK14QSharedPointerIN5KMime7MessageEE
libKF5MessageComposer.so.5:_ZN15MessageComposer16ComposerViewBase15attachmentModelEv
libKF5MessageComposer.so.5:_ZN15MessageComposer16ComposerViewBase15autoSaveMessageEv
libKF5MessageComposer.so.5:_ZN15MessageComposer16ComposerViewBase15cleanupAutoSaveEv
libKF5MessageComposer.so.5:_ZN15MessageComposer16ComposerViewBase15identityChangedERKN19KIdentityManagement8IdentityES4_b
libKF5MessageComposer.so.5:_ZN15MessageComposer16ComposerViewBase15setCustomHeaderERK4QMapI10QByteArray7QStringE
libKF5MessageComposer.so.5:_ZN15MessageComposer16ComposerViewBase15setFollowUpDateERK5QDate
libKF5MessageComposer.so.5:_ZN15MessageComposer16ComposerViewBase15setMDNRequestedEb
libKF5MessageComposer.so.5:_ZN15MessageComposer16ComposerViewBase16recipientsEditorEv
libKF5MessageComposer.so.5:_ZN15MessageComposer16ComposerViewBase16saveMailSettingsEv
libKF5MessageComposer.so.5:_ZN15MessageComposer16ComposerViewBase16sentSuccessfullyEx
libKF5MessageComposer.so.5:_ZN15MessageComposer16ComposerViewBase16setCryptoOptionsEbbN4Kleo19CryptoMessageFormatEb
libKF5MessageComposer.so.5:_ZN15MessageComposer16ComposerViewBase16setIdentityComboEPN19KIdentityManagement13IdentityComboE
libKF5MessageComposer.so.5:_ZN15MessageComposer16ComposerViewBase16setSendLaterInfoEPNS_13SendLaterInfoE
libKF5MessageComposer.so.5:_ZN15MessageComposer16ComposerViewBase16staticMetaObjectE
libKF5MessageComposer.so.5:_ZN15MessageComposer16ComposerViewBase17addAttachmentPartEPN5KMime7ContentE
libKF5MessageComposer.so.5:_ZN15MessageComposer16ComposerViewBase17setTransportComboEPN13MailTransport17TransportComboBoxE
libKF5MessageComposer.so.5:_ZN15MessageComposer16ComposerViewBase18setAttachmentModelEPNS_15AttachmentModelE
libKF5MessageComposer.so.5:_ZN15MessageComposer16ComposerViewBase18setIdentityManagerEPN19KIdentityManagement15IdentityManagerE
libKF5MessageComposer.so.5:_ZN15MessageComposer16ComposerViewBase19setAutoSaveFileNameERK7QString
libKF5MessageComposer.so.5:_ZN15MessageComposer16ComposerViewBase19setAutoSaveIntervalEi
libKF5MessageComposer.so.5:_ZN15MessageComposer16ComposerViewBase19setRecipientsEditorEPNS_16RecipientsEditorE
libKF5MessageComposer.so.5:_ZN15MessageComposer16ComposerViewBase19signatureControllerEv
libKF5MessageComposer.so.5:_ZN15MessageComposer16ComposerViewBase20attachmentControllerEv
libKF5MessageComposer.so.5:_ZN15MessageComposer16ComposerViewBase20createSimpleComposerEv
libKF5MessageComposer.so.5:_ZN15MessageComposer16ComposerViewBase21hasMissingAttachmentsERK11QStringList
libKF5MessageComposer.so.5:_ZN15MessageComposer16ComposerViewBase21setFollowUpCollectionERKN7Akonadi10CollectionE
libKF5MessageComposer.so.5:_ZN15MessageComposer16ComposerViewBase22setSignatureControllerEPNS_19SignatureControllerE
libKF5MessageComposer.so.5:_ZN15MessageComposer16ComposerViewBase23setAttachmentControllerEPNS_24AttachmentControllerBaseE
libKF5MessageComposer.so.5:_ZN15MessageComposer16ComposerViewBase26checkForMissingAttachmentsERK11QStringList
libKF5MessageComposer.so.5:_ZN15MessageComposer16ComposerViewBase30setRequestDeleveryConfirmationEb
libKF5MessageComposer.so.5:_ZN15MessageComposer16ComposerViewBase4sendENS_13MessageSender10SendMethodENS1_6SaveInEb
libKF5MessageComposer.so.5:_ZN15MessageComposer16ComposerViewBase6failedERK7QStringNS0_10FailedTypeE
libKF5MessageComposer.so.5:_ZN15MessageComposer16ComposerViewBase6setFccERKN7Akonadi10CollectionE
libKF5MessageComposer.so.5:_ZN15MessageComposer16ComposerViewBase7setFromERK7QString
libKF5MessageComposer.so.5:_ZN15MessageComposer16ComposerViewBase8modifiedEb
libKF5MessageComposer.so.5:_ZN15MessageComposer16ComposerViewBase9setEditorEPNS_18RichTextComposerNgE
libKF5MessageComposer.so.5:_ZN15MessageComposer16ComposerViewBase9setUrgentEb
libKF5MessageComposer.so.5:_ZN15MessageComposer16ComposerViewBaseC1EP7QObjectP7QWidget
libKF5MessageComposer.so.5:_ZN15MessageComposer16FollowUpReminder21isAvailableAndEnabledEv
libKF5MessageComposer.so.5:_ZN15MessageComposer16MessageFactoryNG11setTemplateERK7QString
libKF5MessageComposer.so.5:_ZN15MessageComposer16MessageFactoryNG12createResendEv
libKF5MessageComposer.so.5:_ZN15MessageComposer16MessageFactoryNG12setSelectionERK7QString
libKF5MessageComposer.so.5:_ZN15MessageComposer16MessageFactoryNG14createRedirectERK7QStringS3_S3_iS3_i
libKF5MessageComposer.so.5:_ZN15MessageComposer16MessageFactoryNG14setReplyAsHtmlEb
libKF5MessageComposer.so.5:_ZN15MessageComposer16MessageFactoryNG15createReplyDoneERKNS0_12MessageReplyE
libKF5MessageComposer.so.5:_ZN15MessageComposer16MessageFactoryNG16createReplyAsyncEv
libKF5MessageComposer.so.5:_ZN15MessageComposer16MessageFactoryNG16setReplyStrategyENS_13ReplyStrategyE
libKF5MessageComposer.so.5:_ZN15MessageComposer16MessageFactoryNG16staticMetaObjectE
libKF5MessageComposer.so.5:_ZN15MessageComposer16MessageFactoryNG17createForwardDoneERK14QSharedPointerIN5KMime7MessageEE
libKF5MessageComposer.so.5:_ZN15MessageComposer16MessageFactoryNG17setFolderIdentityEx
libKF5MessageComposer.so.5:_ZN15MessageComposer16MessageFactoryNG18createForwardAsyncEv
libKF5MessageComposer.so.5:_ZN15MessageComposer16MessageFactoryNG18setIdentityManagerEPN19KIdentityManagement15IdentityManagerE
libKF5MessageComposer.so.5:_ZN15MessageComposer16MessageFactoryNG21createAttachedForwardERK7QVectorIN7Akonadi4ItemEE
libKF5MessageComposer.so.5:_ZN15MessageComposer16MessageFactoryNG22putRepliesInSameFolderEx
libKF5MessageComposer.so.5:_ZN15MessageComposer16MessageFactoryNG23createForwardDigestMIMEERK7QVectorIN7Akonadi4ItemEE
libKF5MessageComposer.so.5:_ZN15MessageComposer16MessageFactoryNG23setMailingListAddressesERK7QVectorIN5KMime5Types7MailboxEE
libKF5MessageComposer.so.5:_ZN15MessageComposer16MessageFactoryNG8setQuoteEb
libKF5MessageComposer.so.5:_ZN15MessageComposer16MessageFactoryNGC1ERK14QSharedPointerIN5KMime7MessageEExRKN7Akonadi10CollectionEP7QObject
libKF5MessageComposer.so.5:_ZN15MessageComposer16MessageFactoryNGD1Ev
libKF5MessageComposer.so.5:_ZN15MessageComposer16PluginActionType18actionXmlExtensionENS0_4TypeE
libKF5MessageComposer.so.5:_ZN15MessageComposer16RecipientsEditor12addRecipientERK7QStringNS_9Recipient4TypeE
libKF5MessageComposer.so.5:_ZN15MessageComposer16RecipientsEditor16selectRecipientsEv
libKF5MessageComposer.so.5:_ZN15MessageComposer16RecipientsEditor20saveDistributionListEv
libKF5MessageComposer.so.5:_ZN15MessageComposer16RecipientsEditor22setRecentAddressConfigEP7KConfig
libKF5MessageComposer.so.5:_ZN15MessageComposer16RecipientsEditorC1EP7QWidget
libKF5MessageComposer.so.5:_ZN15MessageComposer17InsertTextFileJob11setEncodingERK7QString
libKF5MessageComposer.so.5:_ZN15MessageComposer17InsertTextFileJobC1EP9QTextEditRK4QUrl
libKF5MessageComposer.so.5:_ZN15MessageComposer18ImageScalingWidget10loadConfigEv
libKF5MessageComposer.so.5:_ZN15MessageComposer18ImageScalingWidget11writeConfigEv
libKF5MessageComposer.so.5:_ZN15MessageComposer18ImageScalingWidget14resetToDefaultEv
libKF5MessageComposer.so.5:_ZN15MessageComposer18ImageScalingWidget16staticMetaObjectE
libKF5MessageComposer.so.5:_ZN15MessageComposer18ImageScalingWidget7changedEv
libKF5MessageComposer.so.5:_ZN15MessageComposer18ImageScalingWidgetC1EP7QWidget
libKF5MessageComposer.so.5:_ZN15MessageComposer18RichTextComposerNg11qt_metacallEN11QMetaObject4CallEiPPv
libKF5MessageComposer.so.5:_ZN15MessageComposer18RichTextComposerNg11qt_metacastEPKc
libKF5MessageComposer.so.5:_ZN15MessageComposer18RichTextComposerNg16staticMetaObjectE
libKF5MessageComposer.so.5:_ZN15MessageComposer18RichTextComposerNg17processModifyTextEP9QKeyEvent
libKF5MessageComposer.so.5:_ZN15MessageComposer18RichTextComposerNg17setAutocorrectionEPN9PimCommon14AutoCorrectionE
libKF5MessageComposer.so.5:_ZN15MessageComposer18RichTextComposerNg19forceAutoCorrectionEb
libKF5MessageComposer.so.5:_ZN15MessageComposer18RichTextComposerNgC2EP7QWidget
libKF5MessageComposer.so.5:_ZN15MessageComposer18RichTextComposerNgD2Ev
libKF5MessageComposer.so.5:_ZN15MessageComposer18SendLaterRemoveJobC1ExP7QObject
libKF5MessageComposer.so.5:_ZN15MessageComposer19PluginEditorManager20pluginFromIdentifierERK7QString
libKF5MessageComposer.so.5:_ZN15MessageComposer19PluginEditorManager4selfEv
libKF5MessageComposer.so.5:_ZN15MessageComposer19SignatureController10cleanSpaceEv
libKF5MessageComposer.so.5:_ZN15MessageComposer19SignatureController10enableHtmlEv
libKF5MessageComposer.so.5:_ZN15MessageComposer19SignatureController14signatureAddedEv
libKF5MessageComposer.so.5:_ZN15MessageComposer19SignatureController15appendSignatureEv
libKF5MessageComposer.so.5:_ZN15MessageComposer19SignatureController16prependSignatureEv
libKF5MessageComposer.so.5:_ZN15MessageComposer19SignatureController16setIdentityComboEPN19KIdentityManagement13IdentityComboE
libKF5MessageComposer.so.5:_ZN15MessageComposer19SignatureController16staticMetaObjectE
libKF5MessageComposer.so.5:_ZN15MessageComposer19SignatureController23insertSignatureAtCursorEv
libKF5MessageComposer.so.5:_ZN15MessageComposer19SignatureController7suspendEv
libKF5MessageComposer.so.5:_ZN15MessageComposer19SignatureController9setEditorEPNS_18RichTextComposerNgE
libKF5MessageComposer.so.5:_ZN15MessageComposer19SignatureControllerC1EP7QObject
libKF5MessageComposer.so.5:_ZN15MessageComposer21ComposerViewInterfaceC1EPNS_16ComposerViewBaseE
libKF5MessageComposer.so.5:_ZN15MessageComposer21PluginEditorInterface10insertTextERK7QString
libKF5MessageComposer.so.5:_ZN15MessageComposer21PluginEditorInterface16staticMetaObjectE
libKF5MessageComposer.so.5:_ZN15MessageComposer21PluginEditorInterface17setRichTextEditorEPN12KPIMTextEdit14RichTextEditorE
libKF5MessageComposer.so.5:_ZN15MessageComposer21PluginEditorInterface19emitPluginActivatedEPS0_
libKF5MessageComposer.so.5:_ZN15MessageComposer21PluginEditorInterface20setComposerInterfaceEPNS_23PluginComposerInterfaceE
libKF5MessageComposer.so.5:_ZN15MessageComposer23MessageComposerSettings11requestSyncEv
libKF5MessageComposer.so.5:_ZN15MessageComposer23MessageComposerSettings4selfEv
libKF5MessageComposer.so.5:_ZN15MessageComposer23PluginComposerInterface19setComposerViewBaseEPNS_16ComposerViewBaseE
libKF5MessageComposer.so.5:_ZN15MessageComposer23PluginComposerInterfaceC1Ev
libKF5MessageComposer.so.5:_ZN15MessageComposer23PluginEditorInitManager20pluginFromIdentifierERK7QString
libKF5MessageComposer.so.5:_ZN15MessageComposer23PluginEditorInitManager4selfEv
libKF5MessageComposer.so.5:_ZN15MessageComposer24AttachmentControllerBase11qt_metacallEN11QMetaObject4CallEiPPv
libKF5MessageComposer.so.5:_ZN15MessageComposer24AttachmentControllerBase11qt_metacastEPKc
libKF5MessageComposer.so.5:_ZN15MessageComposer24AttachmentControllerBase12fileAttachedEv
libKF5MessageComposer.so.5:_ZN15MessageComposer24AttachmentControllerBase13createActionsEv
libKF5MessageComposer.so.5:_ZN15MessageComposer24AttachmentControllerBase14actionsCreatedEv
libKF5MessageComposer.so.5:_ZN15MessageComposer24AttachmentControllerBase14editAttachmentE14QSharedPointerIN11MessageCore14AttachmentPartEEN13MessageViewer13EditorWatcher14OpenWithOptionE
libKF5MessageComposer.so.5:_ZN15MessageComposer24AttachmentControllerBase14showAttachmentEPN5KMime7ContentERK10QByteArray
libKF5MessageComposer.so.5:_ZN15MessageComposer24AttachmentControllerBase14viewAttachmentERK14QSharedPointerIN11MessageCore14AttachmentPartEE
libKF5MessageComposer.so.5:_ZN15MessageComposer24AttachmentControllerBase15exportPublicKeyERK7QString
libKF5MessageComposer.so.5:_ZN15MessageComposer24AttachmentControllerBase15showContextMenuEv
libKF5MessageComposer.so.5:_ZN15MessageComposer24AttachmentControllerBase16refreshSelectionEv
libKF5MessageComposer.so.5:_ZN15MessageComposer24AttachmentControllerBase16setSelectedPartsERK5QListI14QSharedPointerIN11MessageCore14AttachmentPartEEE
libKF5MessageComposer.so.5:_ZN15MessageComposer24AttachmentControllerBase16staticMetaObjectE
libKF5MessageComposer.so.5:_ZN15MessageComposer24AttachmentControllerBase21enableAttachPublicKeyEb
libKF5MessageComposer.so.5:_ZN15MessageComposer24AttachmentControllerBase21selectedAllAttachmentEv
libKF5MessageComposer.so.5:_ZN15MessageComposer24AttachmentControllerBase23enableAttachMyPublicKeyEb
libKF5MessageComposer.so.5:_ZN15MessageComposer24AttachmentControllerBase27showAddAttachmentFileDialogEv
libKF5MessageComposer.so.5:_ZN15MessageComposer24AttachmentControllerBaseC2EPNS_15AttachmentModelEP7QWidgetP17KActionCollection
libKF5MessageComposer.so.5:_ZN15MessageComposer24AttachmentControllerBaseD2Ev
libKF5MessageComposer.so.5:_ZN15MessageComposer25FollowupReminderCreateJob10setSubjectERK7QString
libKF5MessageComposer.so.5:_ZN15MessageComposer25FollowupReminderCreateJob12setMessageIdERK7QString
libKF5MessageComposer.so.5:_ZN15MessageComposer25FollowupReminderCreateJob17setCollectionToDoERKN7Akonadi10CollectionE
libKF5MessageComposer.so.5:_ZN15MessageComposer25FollowupReminderCreateJob23setFollowUpReminderDateERK5QDate
libKF5MessageComposer.so.5:_ZN15MessageComposer25FollowupReminderCreateJob24setOriginalMessageItemIdEx
libKF5MessageComposer.so.5:_ZN15MessageComposer25FollowupReminderCreateJob5setToERK7QString
libKF5MessageComposer.so.5:_ZN15MessageComposer25FollowupReminderCreateJobC1EP7QObject
libKF5MessageComposer.so.5:_ZN15MessageComposer25PluginEditorInitInterface15setParentWidgetEP7QWidget
libKF5MessageComposer.so.5:_ZN15MessageComposer25PluginEditorInitInterface17setRichTextEditorEPN12KPIMTextEdit16RichTextComposerE
libKF5MessageComposer.so.5:_ZN15MessageComposer26ConvertSnippetVariablesJob13textConvertedERK7QString
libKF5MessageComposer.so.5:_ZN15MessageComposer26ConvertSnippetVariablesJob16staticMetaObjectE
libKF5MessageComposer.so.5:_ZN15MessageComposer26ConvertSnippetVariablesJob24setComposerViewInterfaceEPNS_21ComposerViewInterfaceE
libKF5MessageComposer.so.5:_ZN15MessageComposer26ConvertSnippetVariablesJob5startEv
libKF5MessageComposer.so.5:_ZN15MessageComposer26ConvertSnippetVariablesJob7setTextERK7QString
libKF5MessageComposer.so.5:_ZN15MessageComposer26ConvertSnippetVariablesJobC1EP7QObject
libKF5MessageComposer.so.5:_ZN15MessageComposer26PluginEditorGrammarManager20pluginFromIdentifierERK7QString
libKF5MessageComposer.so.5:_ZN15MessageComposer26PluginEditorGrammarManager4selfEv
libKF5MessageComposer.so.5:_ZN15MessageComposer26StatusBarLabelToggledState13setToggleModeEb
libKF5MessageComposer.so.5:_ZN15MessageComposer26StatusBarLabelToggledState14setStateStringERK7QStringS3_
libKF5MessageComposer.so.5:_ZN15MessageComposer26StatusBarLabelToggledState16staticMetaObjectE
libKF5MessageComposer.so.5:_ZN15MessageComposer26StatusBarLabelToggledState17toggleModeChangedEb
libKF5MessageComposer.so.5:_ZN15MessageComposer26StatusBarLabelToggledStateC1EP7QWidget
libKF5MessageComposer.so.5:_ZN15MessageComposer27MessageComposerSettingsBase4selfEv
libKF5MessageComposer.so.5:_ZN15MessageComposer30PluginEditorConvertTextManager20pluginFromIdentifierERK7QString
libKF5MessageComposer.so.5:_ZN15MessageComposer30PluginEditorConvertTextManager4selfEv
libKF5MessageComposer.so.5:_ZN15MessageComposer32FollowUpReminderSelectDateDialogC1EP7QWidgetP18QAbstractItemModel
libKF5MessageComposer.so.5:_ZN15MessageComposer32PluginEditorConvertTextInterface15setParentWidgetEP7QWidget
libKF5MessageComposer.so.5:_ZN15MessageComposer32PluginEditorConvertTextInterface17setRichTextEditorEPN12KPIMTextEdit16RichTextComposerE
libKF5MessageComposer.so.5:_ZN15MessageComposer32PluginEditorConvertTextInterface9setPluginEPNS_23PluginEditorConvertTextE
libKF5MessageComposer.so.5:_ZN15MessageComposer32PluginEditorConverterInitialData13setNewMessageEb
libKF5MessageComposer.so.5:_ZN15MessageComposer32PluginEditorConverterInitialData9setMewMsgERK14QSharedPointerIN5KMime7MessageEE
libKF5MessageComposer.so.5:_ZN15MessageComposer32PluginEditorConverterInitialDataC1Ev
libKF5MessageComposer.so.5:_ZN15MessageComposer33PluginEditorCheckBeforeSendParams10setSubjectERK7QString
libKF5MessageComposer.so.5:_ZN15MessageComposer33PluginEditorCheckBeforeSendParams11setHtmlMailEb
libKF5MessageComposer.so.5:_ZN15MessageComposer33PluginEditorCheckBeforeSendParams11setIdentityEj
libKF5MessageComposer.so.5:_ZN15MessageComposer33PluginEditorCheckBeforeSendParams14setCcAddressesERK7QString
libKF5MessageComposer.so.5:_ZN15MessageComposer33PluginEditorCheckBeforeSendParams14setToAddressesERK7QString
libKF5MessageComposer.so.5:_ZN15MessageComposer33PluginEditorCheckBeforeSendParams14setTransportIdEi
libKF5MessageComposer.so.5:_ZN15MessageComposer33PluginEditorCheckBeforeSendParams15setBccAddressesERK7QString
libKF5MessageComposer.so.5:_ZN15MessageComposer33PluginEditorCheckBeforeSendParams16setDefaultDomainERK7QString
libKF5MessageComposer.so.5:_ZN15MessageComposer33PluginEditorCheckBeforeSendParams16setHasAttachmentEb
libKF5MessageComposer.so.5:_ZN15MessageComposer33PluginEditorCheckBeforeSendParamsC1Ev
libKF5MessageComposer.so.5:_ZN15MessageComposer33PluginEditorCheckBeforeSendParamsD1Ev
libKF5MessageComposer.so.5:_ZN15MessageComposer34PluginEditorCheckBeforeSendManager20pluginFromIdentifierERK7QString
libKF5MessageComposer.so.5:_ZN15MessageComposer34PluginEditorCheckBeforeSendManager4selfEv
libKF5MessageComposer.so.5:_ZN15MessageComposer36PluginEditorCheckBeforeSendInterface15setParentWidgetEP7QWidget
libKF5MessageComposer.so.5:_ZN15MessageComposer41PluginEditorConverterBeforeConvertingData13setNewMessageEb
libKF5MessageComposer.so.5:_ZN15MessageComposer41PluginEditorConverterBeforeConvertingDataC1Ev
libKF5MessageComposer.so.5:_ZN15MessageComposer43PluginEditorGrammarCustomToolsViewInterface15setParentWidgetEP7QWidget
libKF5MessageComposer.so.5:_ZN15MessageComposer43PluginEditorGrammarCustomToolsViewInterface17setRichTextEditorEPN12KPIMTextEdit16RichTextComposerE
libKF5MessageComposer.so.5:_ZN15MessageComposer4Util18AttachmentKeywordsEv
libKF5MessageComposer.so.5:_ZN15MessageComposer4Util19isStandaloneMessageERKN7Akonadi4ItemE
libKF5MessageComposer.so.5:_ZN15MessageComposer4Util21cleanedUpHeaderStringERK7QString
libKF5MessageComposer.so.5:_ZN15MessageComposer4Util25removeNotNecessaryHeadersERK14QSharedPointerIN5KMime7MessageEE
libKF5MessageComposer.so.5:_ZN15MessageComposer4Util26sendMailDispatcherIsOnlineEP7QWidget
libKF5MessageComposer.so.5:_ZN15MessageComposer4Util7messageERKN7Akonadi4ItemE
libKF5MessageComposer.so.5:_ZN15MessageComposer8Composer16staticMetaObjectE
libKF5MessageComposer.so.5:_ZN15MessageComposer8ComposerC1EP7QObject
libKF5MessageComposer.so.5:_ZN15MessageComposer8InfoPart10setSubjectERK7QString
libKF5MessageComposer.so.5:_ZN15MessageComposer8InfoPart5setCcERK11QStringList
libKF5MessageComposer.so.5:_ZN15MessageComposer8InfoPart5setToERK11QStringList
libKF5MessageComposer.so.5:_ZN15MessageComposer8InfoPart7setFromERK7QString
libKF5MessageComposer.so.5:_ZN15MessageComposer8TextPart17setCleanPlainTextERK7QString
libKF5MessageComposer.so.5:_ZN15MessageComposer8TextPart19setWrappedPlainTextERK7QString
libKF5MessageComposer.so.5:_ZN15MessageComposer9Recipient19setEncryptionActionEN4Kleo6ActionE
libKF5MessageComposer.so.5:_ZN15MessageComposer9Recipient6setKeyERKN5GpgME3KeyE
libKF5MessageComposer.so.5:_ZNK15MessageComposer13SendLaterInfo12isRecurrenceEv
libKF5MessageComposer.so.5:_ZNK15MessageComposer13SendLaterInfo14recurrenceUnitEv
libKF5MessageComposer.so.5:_ZNK15MessageComposer13SendLaterInfo16lastDateTimeSendEv
libKF5MessageComposer.so.5:_ZNK15MessageComposer13SendLaterInfo19recurrenceEachValueEv
libKF5MessageComposer.so.5:_ZNK15MessageComposer13SendLaterInfo2toEv
libKF5MessageComposer.so.5:_ZNK15MessageComposer13SendLaterInfo6itemIdEv
libKF5MessageComposer.so.5:_ZNK15MessageComposer13SendLaterInfo7isValidEv
libKF5MessageComposer.so.5:_ZNK15MessageComposer13SendLaterInfo7subjectEv
libKF5MessageComposer.so.5:_ZNK15MessageComposer13SendLaterInfo8dateTimeEv
libKF5MessageComposer.so.5:_ZNK15MessageComposer15AttachmentModel11attachmentsEv
libKF5MessageComposer.so.5:_ZNK15MessageComposer15RecipientLineNG15recipientsCountEv
libKF5MessageComposer.so.5:_ZNK15MessageComposer15RecipientLineNG9recipientEv
libKF5MessageComposer.so.5:_ZNK15MessageComposer15SendLaterDialog6actionEv
libKF5MessageComposer.so.5:_ZNK15MessageComposer16AliasesExpandJob22emptyDistributionListsEv
libKF5MessageComposer.so.5:_ZNK15MessageComposer16AliasesExpandJob9addressesEv
libKF5MessageComposer.so.5:_ZNK15MessageComposer16ComposerViewBase10dictionaryEv
libKF5MessageComposer.so.5:_ZNK15MessageComposer16ComposerViewBase11isComposingEv
libKF5MessageComposer.so.5:_ZNK15MessageComposer16ComposerViewBase17transportComboBoxEv
libKF5MessageComposer.so.5:_ZNK15MessageComposer16ComposerViewBase2ccEv
libKF5MessageComposer.so.5:_ZNK15MessageComposer16ComposerViewBase2toEv
libKF5MessageComposer.so.5:_ZNK15MessageComposer16ComposerViewBase3bccEv
libKF5MessageComposer.so.5:_ZNK15MessageComposer16ComposerViewBase6editorEv
libKF5MessageComposer.so.5:_ZNK15MessageComposer16ComposerViewBase7subjectEv
libKF5MessageComposer.so.5:_ZNK15MessageComposer16PluginActionType4typeEv
libKF5MessageComposer.so.5:_ZNK15MessageComposer16PluginActionType6actionEv
libKF5MessageComposer.so.5:_ZNK15MessageComposer16PluginEditorInit9isEnabledEv
libKF5MessageComposer.so.5:_ZNK15MessageComposer16RecipientsEditor10recipientsEv
libKF5MessageComposer.so.5:_ZNK15MessageComposer19PluginEditorManager11pluginsListEv
libKF5MessageComposer.so.5:_ZNK15MessageComposer19PluginEditorManager15configGroupNameEv
libKF5MessageComposer.so.5:_ZNK15MessageComposer19PluginEditorManager15pluginsDataListEv
libKF5MessageComposer.so.5:_ZNK15MessageComposer19PluginEditorManager22configPrefixSettingKeyEv
libKF5MessageComposer.so.5:_ZNK15MessageComposer21PluginEditorInterface10actionTypeEv
libKF5MessageComposer.so.5:_ZNK15MessageComposer21PluginEditorInterface15statusBarWidgetEv
libKF5MessageComposer.so.5:_ZNK15MessageComposer21PluginEditorInterface16needSelectedTextEv
libKF5MessageComposer.so.5:_ZNK15MessageComposer23PluginEditorConvertText9isEnabledEv
libKF5MessageComposer.so.5:_ZNK15MessageComposer23PluginEditorInitManager11pluginsListEv
libKF5MessageComposer.so.5:_ZNK15MessageComposer23PluginEditorInitManager15configGroupNameEv
libKF5MessageComposer.so.5:_ZNK15MessageComposer23PluginEditorInitManager15pluginsDataListEv
libKF5MessageComposer.so.5:_ZNK15MessageComposer23PluginEditorInitManager22configPrefixSettingKeyEv
libKF5MessageComposer.so.5:_ZNK15MessageComposer26PluginEditorGrammarManager11pluginsListEv
libKF5MessageComposer.so.5:_ZNK15MessageComposer26PluginEditorGrammarManager15configGroupNameEv
libKF5MessageComposer.so.5:_ZNK15MessageComposer26PluginEditorGrammarManager15pluginsDataListEv
libKF5MessageComposer.so.5:_ZNK15MessageComposer26PluginEditorGrammarManager22configPrefixSettingKeyEv
libKF5MessageComposer.so.5:_ZNK15MessageComposer27PluginEditorCheckBeforeSend9isEnabledEv
libKF5MessageComposer.so.5:_ZNK15MessageComposer30PluginEditorConvertTextManager11pluginsListEv
libKF5MessageComposer.so.5:_ZNK15MessageComposer30PluginEditorConvertTextManager15configGroupNameEv
libKF5MessageComposer.so.5:_ZNK15MessageComposer30PluginEditorConvertTextManager15pluginsDataListEv
libKF5MessageComposer.so.5:_ZNK15MessageComposer30PluginEditorConvertTextManager22configPrefixSettingKeyEv
libKF5MessageComposer.so.5:_ZNK15MessageComposer32FollowUpReminderSelectDateDialog10collectionEv
libKF5MessageComposer.so.5:_ZNK15MessageComposer32FollowUpReminderSelectDateDialog12selectedDateEv
libKF5MessageComposer.so.5:_ZNK15MessageComposer32PluginEditorConvertTextInterface11actionTypesEv
libKF5MessageComposer.so.5:_ZNK15MessageComposer32PluginEditorConvertTextInterface15statusBarWidgetEv
libKF5MessageComposer.so.5:_ZNK15MessageComposer32PluginEditorConvertTextInterface6pluginEv
libKF5MessageComposer.so.5:_ZNK15MessageComposer34PluginEditorCheckBeforeSendManager11pluginsListEv
libKF5MessageComposer.so.5:_ZNK15MessageComposer34PluginEditorCheckBeforeSendManager15configGroupNameEv
libKF5MessageComposer.so.5:_ZNK15MessageComposer34PluginEditorCheckBeforeSendManager15pluginsDataListEv
libKF5MessageComposer.so.5:_ZNK15MessageComposer34PluginEditorCheckBeforeSendManager22configPrefixSettingKeyEv
libKF5MessageComposer.so.5:_ZNK15MessageComposer8Composer10globalPartEv
libKF5MessageComposer.so.5:_ZNK15MessageComposer8Composer14resultMessagesEv
libKF5MessageComposer.so.5:_ZNK15MessageComposer8Composer8infoPartEv
libKF5MessageComposer.so.5:_ZNK15MessageComposer8Composer8textPartEv
libKF5MessageComposer.so.5:_ZNK15MessageComposer9Recipient3keyEv
libKF5MessageComposer.so.5:_ZNK15MessageComposer9Recipient5emailEv
libKF5MessageCore.so.5:_ZN11MessageCore10StringUtil10smartQuoteERK7QStringi
libKF5MessageCore.so.5:_ZN11MessageCore10StringUtil14parseMailtoUrlERK4QUrl
libKF5MessageCore.so.5:_ZN11MessageCore10StringUtil15setEncodingFileER4QUrlRK7QString
libKF5MessageCore.so.5:_ZN11MessageCore10StringUtil17formatQuotePrefixERK7QStringS3_
libKF5MessageCore.so.5:_ZN11MessageCore11MailingList10setHandlerENS0_7HandlerE
libKF5MessageCore.so.5:_ZN11MessageCore11MailingList11setHelpUrlsERK5QListI4QUrlE
libKF5MessageCore.so.5:_ZN11MessageCore11MailingList11setPostUrlsERK5QListI4QUrlE
libKF5MessageCore.so.5:_ZN11MessageCore11MailingList14setArchiveUrlsERK5QListI4QUrlE
libKF5MessageCore.so.5:_ZN11MessageCore11MailingList16setSubscribeUrlsERK5QListI4QUrlE
libKF5MessageCore.so.5:_ZN11MessageCore11MailingList18setUnsubscribeUrlsERK5QListI4QUrlE
libKF5MessageCore.so.5:_ZN11MessageCore11MailingList4nameERK14QSharedPointerIN5KMime7MessageEER10QByteArrayR7QString
libKF5MessageCore.so.5:_ZN11MessageCore11MailingList6detectERK14QSharedPointerIN5KMime7MessageEE
libKF5MessageCore.so.5:_ZN11MessageCore11MailingListC1Ev
libKF5MessageCore.so.5:_ZN11MessageCore11MailingListD1Ev
libKF5MessageCore.so.5:_ZN11MessageCore11MailingListaSERKS0_
libKF5MessageCore.so.5:_ZN11MessageCore19MessageCoreSettings4selfEv
libKF5MessageCore.so.5:_ZN11MessageCore23MessageCoreSettingsBase4selfEv
libKF5MessageCore.so.5:_ZN11MessageCore9ColorUtil4selfEv
libKF5MessageCore.so.5:_ZNK11MessageCore11MailingList11archiveUrlsEv
libKF5MessageCore.so.5:_ZNK11MessageCore11MailingList13subscribeUrlsEv
libKF5MessageCore.so.5:_ZNK11MessageCore11MailingList14archivedAtUrlsEv
libKF5MessageCore.so.5:_ZNK11MessageCore11MailingList15unsubscribeUrlsEv
libKF5MessageCore.so.5:_ZNK11MessageCore11MailingList2idEv
libKF5MessageCore.so.5:_ZNK11MessageCore11MailingList7handlerEv
libKF5MessageCore.so.5:_ZNK11MessageCore11MailingList8featuresEv
libKF5MessageCore.so.5:_ZNK11MessageCore11MailingList8helpUrlsEv
libKF5MessageCore.so.5:_ZNK11MessageCore11MailingList8postUrlsEv
libKF5MessageCore.so.5:_ZNK11MessageCore11MailingList9ownerUrlsEv
libKF5MessageCore.so.5:_ZNK11MessageCore14AttachmentPart28isMessageOrMessageCollectionEv
libKF5MessageCore.so.5:_ZNK11MessageCore14AttachmentPart4sizeEv
libKF5MessageCore.so.5:_ZNK11MessageCore9ColorUtil21pgpEncryptedTextColorEv
libKF5MessageCore.so.5:_ZNK11MessageCore9ColorUtil24pgpEncryptedMessageColorEv
libKF5MessageCore.so.5:_ZNK11MessageCore9ColorUtil25pgpSignedTrustedTextColorEv
libKF5MessageCore.so.5:_ZNK11MessageCore9ColorUtil26misspelledDefaultTextColorEv
libKF5MessageCore.so.5:_ZNK11MessageCore9ColorUtil27quoteLevel1DefaultTextColorEv
libKF5MessageCore.so.5:_ZNK11MessageCore9ColorUtil27quoteLevel2DefaultTextColorEv
libKF5MessageCore.so.5:_ZNK11MessageCore9ColorUtil27quoteLevel3DefaultTextColorEv
libKF5MessageCore.so.5:_ZNK11MessageCore9ColorUtil28pgpSignedTrustedMessageColorEv
libKF5MessageCore.so.5:_ZNK11MessageCore9ColorUtil9linkColorEv
libKF5MessageList.so.5:_ZN11MessageList12StorageModel11qt_metacallEN11QMetaObject4CallEiPPv
libKF5MessageList.so.5:_ZN11MessageList12StorageModel11qt_metacastEPKc
libKF5MessageList.so.5:_ZN11MessageList12StorageModel16staticMetaObjectE
libKF5MessageList.so.5:_ZN11MessageList12StorageModel20setMessageItemStatusEPNS_4Core11MessageItemEiN7Akonadi13MessageStatusE
libKF5MessageList.so.5:_ZN11MessageList12StorageModelC2EP18QAbstractItemModelP19QItemSelectionModelP7QObject
libKF5MessageList.so.5:_ZN11MessageList12StorageModelD2Ev
libKF5MessageList.so.5:_ZN11MessageList19MessageListSettings15messageListFontEv
libKF5MessageList.so.5:_ZN11MessageList19MessageListSettings15todoMessageFontEv
libKF5MessageList.so.5:_ZN11MessageList19MessageListSettings16todoMessageColorEv
libKF5MessageList.so.5:_ZN11MessageList19MessageListSettings17unreadMessageFontEv
libKF5MessageList.so.5:_ZN11MessageList19MessageListSettings18setMessageListFontERK5QFont
libKF5MessageList.so.5:_ZN11MessageList19MessageListSettings18setTodoMessageFontERK5QFont
libKF5MessageList.so.5:_ZN11MessageList19MessageListSettings18unreadMessageColorEv
libKF5MessageList.so.5:_ZN11MessageList19MessageListSettings19setTodoMessageColorERK6QColor
libKF5MessageList.so.5:_ZN11MessageList19MessageListSettings20importantMessageFontEv
libKF5MessageList.so.5:_ZN11MessageList19MessageListSettings20setUnreadMessageFontERK5QFont
libKF5MessageList.so.5:_ZN11MessageList19MessageListSettings21importantMessageColorEv
libKF5MessageList.so.5:_ZN11MessageList19MessageListSettings21setUnreadMessageColorERK6QColor
libKF5MessageList.so.5:_ZN11MessageList19MessageListSettings23setImportantMessageFontERK5QFont
libKF5MessageList.so.5:_ZN11MessageList19MessageListSettings24setImportantMessageColorERK6QColor
libKF5MessageList.so.5:_ZN11MessageList19MessageListSettings25messageToolTipEnabledItemEv
libKF5MessageList.so.5:_ZN11MessageList19MessageListSettings4selfEv
libKF5MessageList.so.5:_ZN11MessageList4Pane11eventFilterEP7QObjectP6QEvent
libKF5MessageList.so.5:_ZN11MessageList4Pane11qt_metacallEN11QMetaObject4CallEiPPv
libKF5MessageList.so.5:_ZN11MessageList4Pane11qt_metacastEPKc
libKF5MessageList.so.5:_ZN11MessageList4Pane11writeConfigEb
libKF5MessageList.so.5:_ZN11MessageList4Pane13statusMessageERK7QString
libKF5MessageList.so.5:_ZN11MessageList4Pane14forceLostFocusEv
libKF5MessageList.so.5:_ZN11MessageList4Pane15messageSelectedERKN7Akonadi4ItemE
libKF5MessageList.so.5:_ZN11MessageList4Pane15setXmlGuiClientEP13KXMLGUIClient
libKF5MessageList.so.5:_ZN11MessageList4Pane16focusQuickSearchERK7QString
libKF5MessageList.so.5:_ZN11MessageList4Pane16messageActivatedERKN7Akonadi4ItemE
libKF5MessageList.so.5:_ZN11MessageList4Pane16selectionChangedEv
libKF5MessageList.so.5:_ZN11MessageList4Pane16setCurrentFolderERKN7Akonadi10CollectionERK11QModelIndexbNS_4Core16PreSelectionModeERK7QString
libKF5MessageList.so.5:_ZN11MessageList4Pane16staticMetaObjectE
libKF5MessageList.so.5:_ZN11MessageList4Pane17currentTabChangedEv
libKF5MessageList.so.5:_ZN11MessageList4Pane17resetModelStorageEv
libKF5MessageList.so.5:_ZN11MessageList4Pane17setPreferEmptyTabEb
libKF5MessageList.so.5:_ZN11MessageList4Pane17updateTabIconTextERKN7Akonadi10CollectionERK7QStringRK5QIcon
libKF5MessageList.so.5:_ZN11MessageList4Pane17updateTagComboBoxEv
libKF5MessageList.so.5:_ZN11MessageList4Pane19deletePersistentSetEl
libKF5MessageList.so.5:_ZN11MessageList4Pane20focusNextMessageItemENS_4Core17MessageTypeFilterEbb
libKF5MessageList.so.5:_ZN11MessageList4Pane20saveCurrentSelectionEv
libKF5MessageList.so.5:_ZN11MessageList4Pane21selectLastMessageItemENS_4Core17MessageTypeFilterEb
libKF5MessageList.so.5:_ZN11MessageList4Pane21selectNextMessageItemENS_4Core17MessageTypeFilterENS1_26ExistingSelectionBehaviourEbb
libKF5MessageList.so.5:_ZN11MessageList4Pane21setAllThreadsExpandedEb
libKF5MessageList.so.5:_ZN11MessageList4Pane22selectFirstMessageItemENS_4Core17MessageTypeFilterEb
libKF5MessageList.so.5:_ZN11MessageList4Pane24focusPreviousMessageItemENS_4Core17MessageTypeFilterEbb
libKF5MessageList.so.5:_ZN11MessageList4Pane24selectFocusedMessageItemEb
libKF5MessageList.so.5:_ZN11MessageList4Pane24setCurrentThreadExpandedEb
libKF5MessageList.so.5:_ZN11MessageList4Pane25currentItemSelectionModelEv
libKF5MessageList.so.5:_ZN11MessageList4Pane25itemListFromPersistentSetEl
libKF5MessageList.so.5:_ZN11MessageList4Pane25populateStatusFilterComboEv
libKF5MessageList.so.5:_ZN11MessageList4Pane25reloadGlobalConfigurationEv
libKF5MessageList.so.5:_ZN11MessageList4Pane25selectPreviousMessageItemENS_4Core17MessageTypeFilterENS1_26ExistingSelectionBehaviourEbb
libKF5MessageList.so.5:_ZN11MessageList4Pane26messageStatusChangeRequestERKN7Akonadi4ItemERKNS1_13MessageStatusES7_
libKF5MessageList.so.5:_ZN11MessageList4Pane26setQuickSearchClickMessageERK7QString
libKF5MessageList.so.5:_ZN11MessageList4Pane34markMessageItemsAsAboutToBeRemovedElb
libKF5MessageList.so.5:_ZN11MessageList4Pane9focusViewEv
libKF5MessageList.so.5:_ZN11MessageList4Pane9selectAllEv
libKF5MessageList.so.5:_ZN11MessageList4PaneC2EbP18QAbstractItemModelP19QItemSelectionModelP7QWidget
libKF5MessageList.so.5:_ZN11MessageList4PaneD2Ev
libKF5MessageList.so.5:_ZN11MessageList4Util12deleteConfigERK7QString
libKF5MessageList.so.5:_ZN11MessageList4Util14contentSummaryERKN7Akonadi4ItemE
libKF5MessageList.so.5:_ZN11MessageList4Util23todoDefaultMessageColorEv
libKF5MessageList.so.5:_ZN11MessageList4Util25unreadDefaultMessageColorEv
libKF5MessageList.so.5:_ZN11MessageList4Util28importantDefaultMessageColorEv
libKF5MessageList.so.5:_ZN11MessageList5Utils13ThemeComboBox13selectDefaultEv
libKF5MessageList.so.5:_ZN11MessageList5Utils13ThemeComboBoxC1EP7QWidget
libKF5MessageList.so.5:_ZN11MessageList5Utils17ThemeConfigButton16staticMetaObjectE
libKF5MessageList.so.5:_ZN11MessageList5Utils17ThemeConfigButton24configureDialogCompletedEv
libKF5MessageList.so.5:_ZN11MessageList5Utils17ThemeConfigButtonC1EP7QWidgetPKNS0_13ThemeComboBoxE
libKF5MessageList.so.5:_ZN11MessageList5Utils19AggregationComboBox13selectDefaultEv
libKF5MessageList.so.5:_ZN11MessageList5Utils19AggregationComboBoxC1EP7QWidget
libKF5MessageList.so.5:_ZN11MessageList5Utils23AggregationConfigButton16staticMetaObjectE
libKF5MessageList.so.5:_ZN11MessageList5Utils23AggregationConfigButton24configureDialogCompletedEv
libKF5MessageList.so.5:_ZN11MessageList5Utils23AggregationConfigButtonC1EP7QWidgetPKNS0_19AggregationComboBoxE
libKF5MessageList.so.5:_ZNK11MessageList12StorageModel11columnCountERK11QModelIndex
libKF5MessageList.so.5:_ZNK11MessageList12StorageModel21initializeMessageItemEPNS_4Core11MessageItemEib
libKF5MessageList.so.5:_ZNK11MessageList12StorageModel21updateMessageItemDataEPNS_4Core11MessageItemEi
libKF5MessageList.so.5:_ZNK11MessageList12StorageModel24containsOutboundMessagesEv
libKF5MessageList.so.5:_ZNK11MessageList12StorageModel26initialUnreadRowCountGuessEv
libKF5MessageList.so.5:_ZNK11MessageList12StorageModel28fillMessageItemThreadingDataEPNS_4Core11MessageItemEiNS1_12StorageModel19ThreadingDataSubsetE
libKF5MessageList.so.5:_ZNK11MessageList12StorageModel2idEv
libKF5MessageList.so.5:_ZNK11MessageList12StorageModel4dataERK11QModelIndexi
libKF5MessageList.so.5:_ZNK11MessageList12StorageModel5indexEiiRK11QModelIndex
libKF5MessageList.so.5:_ZNK11MessageList12StorageModel6parentERK11QModelIndex
libKF5MessageList.so.5:_ZNK11MessageList12StorageModel8mimeDataERK7QVectorIPNS_4Core11MessageItemEE
libKF5MessageList.so.5:_ZNK11MessageList12StorageModel8rowCountERK11QModelIndex
libKF5MessageList.so.5:_ZNK11MessageList4Pane10isThreadedEv
libKF5MessageList.so.5:_ZNK11MessageList4Pane11currentItemEv
libKF5MessageList.so.5:_ZNK11MessageList4Pane13currentFolderEv
libKF5MessageList.so.5:_ZNK11MessageList4Pane14currentMessageEv
libKF5MessageList.so.5:_ZNK11MessageList4Pane14currentOptionsEv
libKF5MessageList.so.5:_ZNK11MessageList4Pane17getSelectionStatsER7QVectorIN7Akonadi4ItemEES5_Pbb
libKF5MessageList.so.5:_ZNK11MessageList4Pane18searchEditHasFocusEv
libKF5MessageList.so.5:_ZNK11MessageList4Pane19currentFilterStatusEv
libKF5MessageList.so.5:_ZNK11MessageList4Pane24selectionAsPersistentSetEb
libKF5MessageList.so.5:_ZNK11MessageList4Pane25currentFilterSearchStringEv
libKF5MessageList.so.5:_ZNK11MessageList4Pane26currentThreadAsMessageListEv
libKF5MessageList.so.5:_ZNK11MessageList4Pane26selectionAsMessageItemListEb
libKF5MessageList.so.5:_ZNK11MessageList4Pane28currentThreadAsPersistentSetEv
libKF5MessageList.so.5:_ZNK11MessageList4Pane28selectionAsMessageItemListIdEb
libKF5MessageList.so.5:_ZNK11MessageList5Utils13ThemeComboBox18writeDefaultConfigEv
libKF5MessageList.so.5:_ZNK11MessageList5Utils19AggregationComboBox18writeDefaultConfigEv
libKF5MessageViewer.so.5:_ZN13MessageViewer11HeaderStyle18setReadOnlyMessageEb
libKF5MessageViewer.so.5:_ZN13MessageViewer13CSSHelperBase12setPrintFontERK5QFont
libKF5MessageViewer.so.5:_ZN13MessageViewer15ConfigureWidget10readConfigEv
libKF5MessageViewer.so.5:_ZN13MessageViewer15ConfigureWidget11writeConfigEv
libKF5MessageViewer.so.5:_ZN13MessageViewer15ConfigureWidget15settingsChangedEv
libKF5MessageViewer.so.5:_ZN13MessageViewer15ConfigureWidget16staticMetaObjectE
libKF5MessageViewer.so.5:_ZN13MessageViewer15ConfigureWidgetC1EP7QWidget
libKF5MessageViewer.so.5:_ZN13MessageViewer16PrintingSettings16staticMetaObjectE
libKF5MessageViewer.so.5:_ZN13MessageViewer16PrintingSettings22doResetToDefaultsOtherEv
libKF5MessageViewer.so.5:_ZN13MessageViewer16PrintingSettings24doLoadFromGlobalSettingsEv
libKF5MessageViewer.so.5:_ZN13MessageViewer16PrintingSettings4saveEv
libKF5MessageViewer.so.5:_ZN13MessageViewer16PrintingSettings7changedEv
libKF5MessageViewer.so.5:_ZN13MessageViewer16PrintingSettingsC1EP7QWidget
libKF5MessageViewer.so.5:_ZN13MessageViewer18InvitationSettings16staticMetaObjectE
libKF5MessageViewer.so.5:_ZN13MessageViewer18InvitationSettings22doResetToDefaultsOtherEv
libKF5MessageViewer.so.5:_ZN13MessageViewer18InvitationSettings24doLoadFromGlobalSettingsEv
libKF5MessageViewer.so.5:_ZN13MessageViewer18InvitationSettings4saveEv
libKF5MessageViewer.so.5:_ZN13MessageViewer18InvitationSettings7changedEv
libKF5MessageViewer.so.5:_ZN13MessageViewer18InvitationSettingsC1EP7QWidget
libKF5MessageViewer.so.5:_ZN13MessageViewer19ViewerPluginManager20pluginFromIdentifierERK7QString
libKF5MessageViewer.so.5:_ZN13MessageViewer19ViewerPluginManager4selfEv
libKF5MessageViewer.so.5:_ZN13MessageViewer21MessageViewerSettings4selfEv
libKF5MessageViewer.so.5:_ZN13MessageViewer22MarkMessageReadHandlerC1EP7QObject
libKF5MessageViewer.so.5:_ZN13MessageViewer24HeaderStylePluginManager20pluginFromIdentifierERK7QString
libKF5MessageViewer.so.5:_ZN13MessageViewer24HeaderStylePluginManager4selfEv
libKF5MessageViewer.so.5:_ZN13MessageViewer25MessageViewerSettingsBase4selfEv
libKF5MessageViewer.so.5:_ZN13MessageViewer43MessageViewerConfigureSettingsPluginManager20pluginFromIdentifierERK7QString
libKF5MessageViewer.so.5:_ZN13MessageViewer43MessageViewerConfigureSettingsPluginManager4selfEv
libKF5MessageViewer.so.5:_ZN13MessageViewer4Util14checkOverwriteERK4QUrlP7QWidget
libKF5MessageViewer.so.5:_ZN13MessageViewer4Util15saveAttachmentsERK7QVectorIPN5KMime7ContentEEP7QWidgetR5QListI4QUrlE
libKF5MessageViewer.so.5:_ZN13MessageViewer4Util17saveMessageInMboxERK7QVectorIN7Akonadi4ItemEEP7QWidgetb
libKF5MessageViewer.so.5:_ZN13MessageViewer4Util28generateFileNameForExtensionERKN7Akonadi4ItemERK7QString
libKF5MessageViewer.so.5:_ZN13MessageViewer6KXFace7toImageERK7QString
libKF5MessageViewer.so.5:_ZN13MessageViewer6KXFace9fromImageERK6QImage
libKF5MessageViewer.so.5:_ZN13MessageViewer6KXFaceC1Ev
libKF5MessageViewer.so.5:_ZN13MessageViewer6KXFaceD1Ev
libKF5MessageViewer.so.5:_ZN13MessageViewer6Viewer10readConfigEv
libKF5MessageViewer.so.5:_ZN13MessageViewer6Viewer10setMessageERK14QSharedPointerIN5KMime7MessageEEN14MimeTreeParser10UpdateModeE
libKF5MessageViewer.so.5:_ZN13MessageViewer6Viewer10showReaderEPN5KMime7ContentEbRK7QString
libKF5MessageViewer.so.5:_ZN13MessageViewer6Viewer10urlClickedERKN7Akonadi4ItemERK4QUrl
libKF5MessageViewer.so.5:_ZN13MessageViewer6Viewer11exportToPdfERK7QString
libKF5MessageViewer.so.5:_ZN13MessageViewer6Viewer11itemRemovedEv
libKF5MessageViewer.so.5:_ZN13MessageViewer6Viewer11setPrintingEb
libKF5MessageViewer.so.5:_ZN13MessageViewer6Viewer11showMessageERK14QSharedPointerIN5KMime7MessageEERK7QString
libKF5MessageViewer.so.5:_ZN13MessageViewer6Viewer11writeConfigEb
libKF5MessageViewer.so.5:_ZN13MessageViewer6Viewer11zoomChangedEd
libKF5MessageViewer.so.5:_ZN13MessageViewer6Viewer12printMessageERKN7Akonadi4ItemE
libKF5MessageViewer.so.5:_ZN13MessageViewer6Viewer12slotJumpDownEv
libKF5MessageViewer.so.5:_ZN13MessageViewer6Viewer13deleteMessageERKN7Akonadi4ItemE
libKF5MessageViewer.so.5:_ZN13MessageViewer6Viewer13setPluginNameERK7QString
libKF5MessageViewer.so.5:_ZN13MessageViewer6Viewer14createFetchJobERKN7Akonadi4ItemE
libKF5MessageViewer.so.5:_ZN13MessageViewer6Viewer14dkimViewerMenuEv
libKF5MessageViewer.so.5:_ZN13MessageViewer6Viewer14dkimWidgetInfoEv
libKF5MessageViewer.so.5:_ZN13MessageViewer6Viewer14replyMessageToERK14QSharedPointerIN5KMime7MessageEEb
libKF5MessageViewer.so.5:_ZN13MessageViewer6Viewer14setMessageItemERKN7Akonadi4ItemEN14MimeTreeParser10UpdateModeE
libKF5MessageViewer.so.5:_ZN13MessageViewer6Viewer14setMessagePartEPN5KMime7ContentE
libKF5MessageViewer.so.5:_ZN13MessageViewer6Viewer15setUseFixedFontEb
libKF5MessageViewer.so.5:_ZN13MessageViewer6Viewer15showNextMessageEv
libKF5MessageViewer.so.5:_ZN13MessageViewer6Viewer16displayPopupMenuERKN7Akonadi4ItemERKN15WebEngineViewer16WebHitTestResultERK6QPoint
libKF5MessageViewer.so.5:_ZN13MessageViewer6Viewer16hasMultiMessagesEb
libKF5MessageViewer.so.5:_ZN13MessageViewer6Viewer16printingFinishedEv
libKF5MessageViewer.so.5:_ZN13MessageViewer6Viewer16staticMetaObjectE
libKF5MessageViewer.so.5:_ZN13MessageViewer6Viewer17displaySplashPageERK7QStringRK5QHashIS1_8QVariantERK10QByteArray
libKF5MessageViewer.so.5:_ZN13MessageViewer6Viewer17requestConfigSyncEv
libKF5MessageViewer.so.5:_ZN13MessageViewer6Viewer18makeResourceOnlineENS0_18ResourceOnlineModeE
libKF5MessageViewer.so.5:_ZN13MessageViewer6Viewer18moveMessageToTrashEv
libKF5MessageViewer.so.5:_ZN13MessageViewer6Viewer19printPreviewMessageERKN7Akonadi4ItemE
libKF5MessageViewer.so.5:_ZN13MessageViewer6Viewer19setOverrideEncodingERK7QString
libKF5MessageViewer.so.5:_ZN13MessageViewer6Viewer19showPreviousMessageEv
libKF5MessageViewer.so.5:_ZN13MessageViewer6Viewer20enableMessageDisplayEv
libKF5MessageViewer.so.5:_ZN13MessageViewer6Viewer20setWebViewZoomFactorEd
libKF5MessageViewer.so.5:_ZN13MessageViewer6Viewer20showStatusBarMessageERK7QString
libKF5MessageViewer.so.5:_ZN13MessageViewer6Viewer21setAttachmentStrategyEPKNS_18AttachmentStrategyE
libKF5MessageViewer.so.5:_ZN13MessageViewer6Viewer21setHtmlLoadExtDefaultEb
libKF5MessageViewer.so.5:_ZN13MessageViewer6Viewer21slotAttachmentSaveAllEv
libKF5MessageViewer.so.5:_ZN13MessageViewer6Viewer21slotChangeDisplayMailENS0_20DisplayFormatMessageEb
libKF5MessageViewer.so.5:_ZN13MessageViewer6Viewer22pageIsScrolledToBottomEb
libKF5MessageViewer.so.5:_ZN13MessageViewer6Viewer22setHtmlLoadExtOverrideEb
libKF5MessageViewer.so.5:_ZN13MessageViewer6Viewer22viewerPluginActionListE6QFlagsINS_21ViewerPluginInterface19SpecificFeatureTypeEE
libKF5MessageViewer.so.5:_ZN13MessageViewer6Viewer23addMessageLoadedHandlerEPNS_28AbstractMessageLoadedHandlerE
libKF5MessageViewer.so.5:_ZN13MessageViewer6Viewer23setShowSignatureDetailsEb
libKF5MessageViewer.so.5:_ZN13MessageViewer6Viewer24setShowEncryptionDetailsEb
libKF5MessageViewer.so.5:_ZN13MessageViewer6Viewer25setPrintElementBackgroundEb
libKF5MessageViewer.so.5:_ZN13MessageViewer6Viewer26setDecryptMessageOverwriteEb
libKF5MessageViewer.so.5:_ZN13MessageViewer6Viewer29updateShowMultiMessagesButtonEbb
libKF5MessageViewer.so.5:_ZN13MessageViewer6Viewer30showOpenAttachmentFolderWidgetERK5QListI4QUrlE
libKF5MessageViewer.so.5:_ZN13MessageViewer6Viewer32setDisplayFormatMessageOverwriteENS0_20DisplayFormatMessageE
libKF5MessageViewer.so.5:_ZN13MessageViewer6Viewer5clearEN14MimeTreeParser10UpdateModeE
libKF5MessageViewer.so.5:_ZN13MessageViewer6Viewer6updateEN14MimeTreeParser10UpdateModeE
libKF5MessageViewer.so.5:_ZN13MessageViewer6Viewer8atBottomEv
libKF5MessageViewer.so.5:_ZN13MessageViewer6Viewer8slotFindEv
libKF5MessageViewer.so.5:_ZN13MessageViewer6ViewerC1EP7QWidgetS2_P17KActionCollection
libKF5MessageViewer.so.5:_ZNK13MessageViewer14DKIMViewerMenu4menuEv
libKF5MessageViewer.so.5:_ZNK13MessageViewer19ViewerPluginManager15configGroupNameEv
libKF5MessageViewer.so.5:_ZNK13MessageViewer19ViewerPluginManager15pluginsDataListEv
libKF5MessageViewer.so.5:_ZNK13MessageViewer19ViewerPluginManager22configPrefixSettingKeyEv
libKF5MessageViewer.so.5:_ZNK13MessageViewer24HeaderStylePluginManager15configGroupNameEv
libKF5MessageViewer.so.5:_ZNK13MessageViewer24HeaderStylePluginManager15pluginsDataListEv
libKF5MessageViewer.so.5:_ZNK13MessageViewer24HeaderStylePluginManager22configPrefixSettingKeyEv
libKF5MessageViewer.so.5:_ZNK13MessageViewer43MessageViewerConfigureSettingsPluginManager15configGroupNameEv
libKF5MessageViewer.so.5:_ZNK13MessageViewer43MessageViewerConfigureSettingsPluginManager15pluginsDataListEv
libKF5MessageViewer.so.5:_ZNK13MessageViewer43MessageViewerConfigureSettingsPluginManager22configPrefixSettingKeyEv
libKF5MessageViewer.so.5:_ZNK13MessageViewer6Viewer10copyActionEv
libKF5MessageViewer.so.5:_ZNK13MessageViewer6Viewer10urlClickedEv
libKF5MessageViewer.so.5:_ZNK13MessageViewer6Viewer11isFixedFontEv
libKF5MessageViewer.so.5:_ZNK13MessageViewer6Viewer11messageItemEv
libKF5MessageViewer.so.5:_ZNK13MessageViewer6Viewer12printingModeEv
libKF5MessageViewer.so.5:_ZNK13MessageViewer6Viewer12saveAsActionEv
libKF5MessageViewer.so.5:_ZNK13MessageViewer6Viewer12selectedTextEv
libKF5MessageViewer.so.5:_ZNK13MessageViewer6Viewer13copyURLActionEv
libKF5MessageViewer.so.5:_ZNK13MessageViewer6Viewer13urlOpenActionEv
libKF5MessageViewer.so.5:_ZNK13MessageViewer6Viewer15imageUrlClickedEv
libKF5MessageViewer.so.5:_ZNK13MessageViewer6Viewer15selectAllActionEv
libKF5MessageViewer.so.5:_ZNK13MessageViewer6Viewer15shareTextActionEv
libKF5MessageViewer.so.5:_ZNK13MessageViewer6Viewer15speakTextActionEv
libKF5MessageViewer.so.5:_ZNK13MessageViewer6Viewer16htmlLoadExternalEv
libKF5MessageViewer.so.5:_ZNK13MessageViewer6Viewer16overrideEncodingEv
libKF5MessageViewer.so.5:_ZNK13MessageViewer6Viewer16viewSourceActionEv
libKF5MessageViewer.so.5:_ZNK13MessageViewer6Viewer17copyImageLocationEv
libKF5MessageViewer.so.5:_ZNK13MessageViewer6Viewer17headerStylePluginEv
libKF5MessageViewer.so.5:_ZNK13MessageViewer6Viewer17webViewZoomFactorEv
libKF5MessageViewer.so.5:_ZNK13MessageViewer6Viewer18attachmentStrategyEv
libKF5MessageViewer.so.5:_ZNK13MessageViewer6Viewer19findInMessageActionEv
libKF5MessageViewer.so.5:_ZNK13MessageViewer6Viewer19htmlLoadExtOverrideEv
libKF5MessageViewer.so.5:_ZNK13MessageViewer6Viewer19mimePartTreeIsEmptyEv
libKF5MessageViewer.so.5:_ZNK13MessageViewer6Viewer19shareServiceUrlMenuEv
libKF5MessageViewer.so.5:_ZNK13MessageViewer6Viewer19toggleFixFontActionEv
libKF5MessageViewer.so.5:_ZNK13MessageViewer6Viewer20showSignatureDetailsEv
libKF5MessageViewer.so.5:_ZNK13MessageViewer6Viewer21interceptorUrlActionsERKN15WebEngineViewer16WebHitTestResultE
libKF5MessageViewer.so.5:_ZNK13MessageViewer6Viewer21showEncryptionDetailsEv
libKF5MessageViewer.so.5:_ZNK13MessageViewer6Viewer22developmentToolsActionEv
libKF5MessageViewer.so.5:_ZNK13MessageViewer6Viewer24toggleMimePartTreeActionEv
libKF5MessageViewer.so.5:_ZNK13MessageViewer6Viewer29displayFormatMessageOverwriteEv
libKF5MessageViewer.so.5:_ZNK13MessageViewer6Viewer30saveMessageDisplayFormatActionEv
libKF5MessageViewer.so.5:_ZNK13MessageViewer6Viewer31resetMessageDisplayFormatActionEv
libKF5MessageViewer.so.5:_ZNK13MessageViewer6Viewer8htmlMailEv
libKF5MessageViewer.so.5:_ZNK13MessageViewer6Viewer9cssHelperEv
libKF5Mime.so.5:_ZN5KMime11isEncryptedEPNS_7MessageE
libKF5Mime.so.5:_ZN5KMime13DateFormatter17formatCurrentDateENS0_10FormatTypeERK7QStringb
libKF5Mime.so.5:_ZN5KMime31setUseOutlookAttachmentEncodingEb
libKF5Mime.so.5:_ZN5KMime5Types7Mailbox17fromUnicodeStringERK7QString
libKF5Mime.so.5:_ZN5KMime7Content10addContentEPS0_b
libKF5Mime.so.5:_ZN5KMime7Content10setContentERK10QByteArray
libKF5Mime.so.5:_ZN5KMime7Content11attachmentsEv
libKF5Mime.so.5:_ZN5KMime7Content11contentTypeEb
libKF5Mime.so.5:_ZN5KMime7Content12removeHeaderEPKc
libKF5Mime.so.5:_ZN5KMime7Content14encodedContentEb
libKF5Mime.so.5:_ZN5KMime7Content18contentDispositionEb
libKF5Mime.so.5:_ZN5KMime7Content23contentTransferEncodingEb
libKF5Mime.so.5:_ZN5KMime7Content5parseEv
libKF5Mime.so.5:_ZN5KMime7Content7setBodyERK10QByteArray
libKF5Mime.so.5:_ZN5KMime7Content8assembleEv
libKF5Mime.so.5:_ZN5KMime7Content9setHeaderEPNS_7Headers4BaseE
libKF5Mime.so.5:_ZN5KMime7ContentC1EPS0_
libKF5Mime.so.5:_ZN5KMime7Headers11ContentType10setCharsetERK10QByteArray
libKF5Mime.so.5:_ZN5KMime7Headers11ContentType11setMimeTypeERK10QByteArray
libKF5Mime.so.5:_ZN5KMime7Headers11ContentType7setNameERK7QStringRK10QByteArray
libKF5Mime.so.5:_ZN5KMime7Headers12Organization10staticTypeEv
libKF5Mime.so.5:_ZN5KMime7Headers12OrganizationC1Ev
libKF5Mime.so.5:_ZN5KMime7Headers23ContentTransferEncoding11setEncodingENS0_15contentEncodingE
libKF5Mime.so.5:_ZN5KMime7Headers3Bcc10staticTypeEv
libKF5Mime.so.5:_ZN5KMime7Headers4Date10staticTypeEv
libKF5Mime.so.5:_ZN5KMime7Headers4Date11setDateTimeERK9QDateTime
libKF5Mime.so.5:_ZN5KMime7Headers7GenericC1EPKci
libKF5Mime.so.5:_ZN5KMime7Headers8Generics12Parametrized12setParameterERK7QStringS5_
libKF5Mime.so.5:_ZN5KMime7Headers8Generics12Unstructured14from7BitStringERK10QByteArray
libKF5Mime.so.5:_ZN5KMime7Headers8Generics12Unstructured17fromUnicodeStringERK7QStringRK10QByteArray
libKF5Mime.so.5:_ZN5KMime7Headers9MessageID10staticTypeEv
libKF5Mime.so.5:_ZN5KMime7Message2ccEb
libKF5Mime.so.5:_ZN5KMime7Message2toEb
libKF5Mime.so.5:_ZN5KMime7Message3bccEb
libKF5Mime.so.5:_ZN5KMime7Message4dateEb
libKF5Mime.so.5:_ZN5KMime7Message4fromEb
libKF5Mime.so.5:_ZN5KMime7Message7replyToEb
libKF5Mime.so.5:_ZN5KMime7Message7subjectEb
libKF5Mime.so.5:_ZN5KMime7Message8mimeTypeEv
libKF5Mime.so.5:_ZN5KMime7Message9inReplyToEb
libKF5Mime.so.5:_ZN5KMime7Message9messageIDEb
libKF5Mime.so.5:_ZN5KMime7MessageC1Ev
libKF5Mime.so.5:_ZN5KMime8CRLFtoLFERK10QByteArray
libKF5Mime.so.5:_ZN5KMime8isSignedEPNS_7MessageE
libKF5Mime.so.5:_ZNK5KMime5Types8AddrSpec8asStringEv
libKF5Mime.so.5:_ZNK5KMime7Content10hasContentEv
libKF5Mime.so.5:_ZNK5KMime7Content12headerByTypeEPKc
libKF5Mime.so.5:_ZNK5KMime7Content13bodyAsMessageEv
libKF5Mime.so.5:_ZNK5KMime7Content4bodyEv
libKF5Mime.so.5:_ZNK5KMime7Headers4Date8dateTimeEv
libKF5Mime.so.5:_ZNK5KMime7Headers8Generics11AddressList13displayStringEv
libKF5Mime.so.5:_ZNK5KMime7Headers8Generics11MailboxList13displayStringEv
libKF5MimeTreeParser.so.5:_ZN14MimeTreeParser10NodeHelper11fixEncodingERK7QString
libKF5MimeTreeParser.so.5:_ZN14MimeTreeParser10NodeHelper15encodingForNameERK7QString
libKF5MimeTreeParser.so.5:_ZN14MimeTreeParser10NodeHelper7charsetEPN5KMime7ContentE
libKF5MimeTreeParser.so.5:_ZN14MimeTreeParser16ObjectTreeParser15parseObjectTreeEPN5KMime7ContentEb
libKF5MimeTreeParser.so.5:_ZN14MimeTreeParser16ObjectTreeParserC1EPNS_9Interface16ObjectTreeSourceEPNS_10NodeHelperE
libKF5MimeTreeParser.so.5:_ZN14MimeTreeParser16ObjectTreeParserD1Ev
libKF5MimeTreeParser.so.5:_ZN14MimeTreeParser22SimpleObjectTreeSource17setDecryptMessageEb
libKF5MimeTreeParser.so.5:_ZN14MimeTreeParser22SimpleObjectTreeSourceC1Ev
libKF5MimeTreeParser.so.5:_ZN14MimeTreeParser22SimpleObjectTreeSourceD1Ev
libKF5MimeTreeParser.so.5:_ZNK14MimeTreeParser16ObjectTreeParser23plainTextContentCharsetEv
libKF5Notifications.so.5:_ZN13KNotification10setActionsERK11QStringList
libKF5Notifications.so.5:_ZN13KNotification11setIconNameERK7QString
libKF5Notifications.so.5:_ZN13KNotification16setComponentNameERK7QString
libKF5Notifications.so.5:_ZN13KNotification16staticMetaObjectE
libKF5Notifications.so.5:_ZN13KNotification5closeEv
libKF5Notifications.so.5:_ZN13KNotification5eventERK7QStringS2_S2_S2_P7QWidgetRK6QFlagsINS_16NotificationFlagEES2_
libKF5Notifications.so.5:_ZN13KNotification6closedEv
libKF5Notifications.so.5:_ZN13KNotification7setTextERK7QString
libKF5Notifications.so.5:_ZN13KNotification9activatedEj
libKF5Notifications.so.5:_ZN13KNotification9sendEventEv
libKF5Notifications.so.5:_ZN13KNotificationC1ERK7QStringRK6QFlagsINS_16NotificationFlagEEP7QObject
libKF5Notifications.so.5:_ZN19KStatusNotifierItem11eventFilterEP7QObjectP6QEvent
libKF5Notifications.so.5:_ZN19KStatusNotifierItem11qt_metacallEN11QMetaObject4CallEiPPv
libKF5Notifications.so.5:_ZN19KStatusNotifierItem11qt_metacastEPKc
libKF5Notifications.so.5:_ZN19KStatusNotifierItem13setIconByNameERK7QString
libKF5Notifications.so.5:_ZN19KStatusNotifierItem15setToolTipTitleERK7QString
libKF5Notifications.so.5:_ZN19KStatusNotifierItem16staticMetaObjectE
libKF5Notifications.so.5:_ZN19KStatusNotifierItem17activateRequestedEbRK6QPoint
libKF5Notifications.so.5:_ZN19KStatusNotifierItem18setToolTipSubTitleERK7QString
libKF5Notifications.so.5:_ZN19KStatusNotifierItem20setToolTipIconByNameERK7QString
libKF5Notifications.so.5:_ZN19KStatusNotifierItem8activateERK6QPoint
libKF5Notifications.so.5:_ZN19KStatusNotifierItem9setStatusENS_10ItemStatusE
libKF5Notifications.so.5:_ZN19KStatusNotifierItemC2EP7QObject
libKF5Notifications.so.5:_ZN19KStatusNotifierItemD2Ev
libKF5Notifications.so.5:_ZNK19KStatusNotifierItem11contextMenuEv
libKF5Notifications.so.5:_ZNK19KStatusNotifierItem6statusEv
libKF5Notifications.so.5:_ZTI19KStatusNotifierItem
libKF5NotifyConfig.so.5:_ZN19KNotifyConfigWidget14setApplicationERK7QStringS2_S2_
libKF5NotifyConfig.so.5:_ZN19KNotifyConfigWidget16staticMetaObjectE
libKF5NotifyConfig.so.5:_ZN19KNotifyConfigWidget4saveEv
libKF5NotifyConfig.so.5:_ZN19KNotifyConfigWidget7changedEb
libKF5NotifyConfig.so.5:_ZN19KNotifyConfigWidgetC1EP7QWidget
libKF5Parts.so.5:_ZN6KParts12ReadOnlyPart11qt_metacallEN11QMetaObject4CallEiPPv
libKF5Parts.so.5:_ZN6KParts12ReadOnlyPart11qt_metacastEPKc
libKF5Parts.so.5:_ZN6KParts12ReadOnlyPart16guiActivateEventEPNS_16GUIActivateEventE
libKF5Parts.so.5:_ZN6KParts12ReadOnlyPart16staticMetaObjectE
libKF5Parts.so.5:_ZN6KParts12ReadOnlyPart7openUrlERK4QUrl
libKF5Parts.so.5:_ZN6KParts12ReadOnlyPart8closeUrlEv
libKF5Parts.so.5:_ZN6KParts12ReadOnlyPart8openFileEv
libKF5Parts.so.5:_ZN6KParts12ReadOnlyPartC2EP7QObject
libKF5Parts.so.5:_ZN6KParts12ReadOnlyPartD2Ev
libKF5Parts.so.5:_ZN6KParts18StatusBarExtension16addStatusBarItemEP7QWidgetib
libKF5Parts.so.5:_ZN6KParts18StatusBarExtensionC1EPNS_12ReadOnlyPartE
libKF5Parts.so.5:_ZN6KParts4Part10setManagerEPNS_11PartManagerE
libKF5Parts.so.5:_ZN6KParts4Part11customEventEP6QEvent
libKF5Parts.so.5:_ZN6KParts4Part11qt_metacallEN11QMetaObject4CallEiPPv
libKF5Parts.so.5:_ZN6KParts4Part11qt_metacastEPKc
libKF5Parts.so.5:_ZN6KParts4Part13setSelectableEb
libKF5Parts.so.5:_ZN6KParts4Part15partSelectEventEPNS_15PartSelectEventE
libKF5Parts.so.5:_ZN6KParts4Part16guiActivateEventEPNS_16GUIActivateEventE
libKF5Parts.so.5:_ZN6KParts4Part16setWindowCaptionERK7QString
libKF5Parts.so.5:_ZN6KParts4Part16staticMetaObjectE
libKF5Parts.so.5:_ZN6KParts4Part17partActivateEventEPNS_17PartActivateEventE
libKF5Parts.so.5:_ZN6KParts4Part5embedEP7QWidget
libKF5Parts.so.5:_ZN6KParts4Part6widgetEv
libKF5Parts.so.5:_ZN6KParts4Part7hitTestEP7QWidgetRK6QPoint
libKF5Parts.so.5:_ZN6KParts4Part9setWidgetEP7QWidget
libKF5Parts.so.5:_ZN6KParts4PartC2EP7QObject
libKF5Parts.so.5:_ZN6KParts4PartD2Ev
libKF5Parts.so.5:_ZN6KParts8PartBase16setComponentDataERK10KAboutData
libKF5Parts.so.5:_ZN6KParts8PartBase16setComponentDataERK10KAboutDatab
libKF5Parts.so.5:_ZNK6KParts12ReadOnlyPart10metaObjectEv
libKF5Parts.so.5:_ZNK6KParts16GUIActivateEvent9activatedEv
libKF5Parts.so.5:_ZNK6KParts17PartActivateEvent4partEv
libKF5Parts.so.5:_ZNK6KParts17PartActivateEvent9activatedEv
libKF5Parts.so.5:_ZNK6KParts4Part10metaObjectEv
libKF5Parts.so.5:_ZTIN6KParts12ReadOnlyPartE
libKF5Parts.so.5:_ZTIN6KParts4PartE
libKF5Parts.so.5:_ZTIN6KParts8PartBaseE
libKF5PimCommon.so.5:_ZN9PimCommon14AutoCorrectionC1Ev
libKF5PimCommon.so.5:_ZN9PimCommon14AutoCorrectionD1Ev
libKF5PimCommon.so.5:_ZN9PimCommon14CustomTreeView14setDefaultTextERK7QString
libKF5PimCommon.so.5:_ZN9PimCommon14CustomTreeView18setShowDefaultTextEb
libKF5PimCommon.so.5:_ZN9PimCommon14CustomTreeViewC1EP7QWidget
libKF5PimCommon.so.5:_ZN9PimCommon14EmailValidatorC1EP7QObject
libKF5PimCommon.so.5:_ZN9PimCommon14NetworkManager4selfEv
libKF5PimCommon.so.5:_ZN9PimCommon15BroadcastStatus12setStatusMsgERK7QString
libKF5PimCommon.so.5:_ZN9PimCommon15BroadcastStatus16staticMetaObjectE
libKF5PimCommon.so.5:_ZN9PimCommon15BroadcastStatus5resetEv
libKF5PimCommon.so.5:_ZN9PimCommon15BroadcastStatus8instanceEv
libKF5PimCommon.so.5:_ZN9PimCommon15BroadcastStatus9statusMsgERK7QString
libKF5PimCommon.so.5:_ZN9PimCommon15MigrateFileInfo10setVersionEi
libKF5PimCommon.so.5:_ZN9PimCommon15MigrateFileInfo15setFilePatternsERK11QStringList
libKF5PimCommon.so.5:_ZN9PimCommon15MigrateFileInfo7setPathERK7QString
libKF5PimCommon.so.5:_ZN9PimCommon15MigrateFileInfo7setTypeERK7QString
libKF5PimCommon.so.5:_ZN9PimCommon15MigrateFileInfo9setFolderEb
libKF5PimCommon.so.5:_ZN9PimCommon15MigrateFileInfoC1Ev
libKF5PimCommon.so.5:_ZN9PimCommon17PimCommonSettings4selfEv
libKF5PimCommon.so.5:_ZN9PimCommon17PurposeMenuWidget11qt_metacallEN11QMetaObject4CallEiPPv
libKF5PimCommon.so.5:_ZN9PimCommon17PurposeMenuWidget11qt_metacastEPKc
libKF5PimCommon.so.5:_ZN9PimCommon17PurposeMenuWidget16staticMetaObjectE
libKF5PimCommon.so.5:_ZN9PimCommon17PurposeMenuWidgetC2EP7QWidgetP7QObject
libKF5PimCommon.so.5:_ZN9PimCommon17PurposeMenuWidgetD2Ev
libKF5PimCommon.so.5:_ZN9PimCommon18SpellCheckLineEdit16staticMetaObjectE
libKF5PimCommon.so.5:_ZN9PimCommon18SpellCheckLineEdit7focusUpEv
libKF5PimCommon.so.5:_ZN9PimCommon19CustomToolsWidgetNg10insertTextERK7QString
libKF5PimCommon.so.5:_ZN9PimCommon19CustomToolsWidgetNg14initializeViewEP17KActionCollectionRK7QVectorIPNS_17CustomToolsPluginEE
libKF5PimCommon.so.5:_ZN9PimCommon19CustomToolsWidgetNg16staticMetaObjectE
libKF5PimCommon.so.5:_ZN9PimCommon19CustomToolsWidgetNg26addCustomToolViewInterfaceEPNS_24CustomToolsViewInterfaceE
libKF5PimCommon.so.5:_ZN9PimCommon19CustomToolsWidgetNgC1EP7QWidget
libKF5PimCommon.so.5:_ZN9PimCommon20AutoCorrectionWidget10loadConfigEv
libKF5PimCommon.so.5:_ZN9PimCommon20AutoCorrectionWidget11writeConfigEv
libKF5PimCommon.so.5:_ZN9PimCommon20AutoCorrectionWidget14resetToDefaultEv
libKF5PimCommon.so.5:_ZN9PimCommon20AutoCorrectionWidget16staticMetaObjectE
libKF5PimCommon.so.5:_ZN9PimCommon20AutoCorrectionWidget17setAutoCorrectionEPNS_14AutoCorrectionE
libKF5PimCommon.so.5:_ZN9PimCommon20AutoCorrectionWidget7changedEv
libKF5PimCommon.so.5:_ZN9PimCommon20AutoCorrectionWidgetC1EP7QWidget
libKF5PimCommon.so.5:_ZN9PimCommon20LogActivitiesManager4selfEv
libKF5PimCommon.so.5:_ZN9PimCommon20LogActivitiesManager9appendLogERK7QString
libKF5PimCommon.so.5:_ZN9PimCommon22AutoCorrectionLanguage11setLanguageERK7QString
libKF5PimCommon.so.5:_ZN9PimCommon22AutoCorrectionLanguageC1EP7QWidget
libKF5PimCommon.so.5:_ZN9PimCommon22ConfigurePluginsWidget16staticMetaObjectE
libKF5PimCommon.so.5:_ZN9PimCommon22ConfigurePluginsWidget24doLoadFromGlobalSettingsEv
libKF5PimCommon.so.5:_ZN9PimCommon22ConfigurePluginsWidget4saveEv
libKF5PimCommon.so.5:_ZN9PimCommon22ConfigurePluginsWidget7changedEv
libKF5PimCommon.so.5:_ZN9PimCommon22ConfigurePluginsWidget8defaultsEv
libKF5PimCommon.so.5:_ZN9PimCommon22ConfigurePluginsWidgetC1EPNS_26ConfigurePluginsListWidgetEP7QWidget
libKF5PimCommon.so.5:_ZN9PimCommon22SimpleStringListEditor10aboutToAddER7QString
libKF5PimCommon.so.5:_ZN9PimCommon22SimpleStringListEditor13setStringListERK11QStringList
libKF5PimCommon.so.5:_ZN9PimCommon22SimpleStringListEditor16staticMetaObjectE
libKF5PimCommon.so.5:_ZN9PimCommon22SimpleStringListEditor17setAddDialogLabelERK7QString
libKF5PimCommon.so.5:_ZN9PimCommon22SimpleStringListEditor19setUpDownAutoRepeatEb
libKF5PimCommon.so.5:_ZN9PimCommon22SimpleStringListEditor20setRemoveDialogLabelERK7QString
libKF5PimCommon.so.5:_ZN9PimCommon22SimpleStringListEditor7changedEv
libKF5PimCommon.so.5:_ZN9PimCommon22SimpleStringListEditorC1EP7QWidgetNS0_10ButtonCodeERK7QStringS6_S6_S6_
libKF5PimCommon.so.5:_ZN9PimCommon23MigrateApplicationFiles16checkIfNecessaryEv
libKF5PimCommon.so.5:_ZN9PimCommon23MigrateApplicationFiles17insertMigrateInfoERKNS_15MigrateFileInfoE
libKF5PimCommon.so.5:_ZN9PimCommon23MigrateApplicationFiles17setConfigFileNameERK7QString
libKF5PimCommon.so.5:_ZN9PimCommon23MigrateApplicationFiles18setApplicationNameERK7QString
libKF5PimCommon.so.5:_ZN9PimCommon23MigrateApplicationFiles23setCurrentConfigVersionEi
libKF5PimCommon.so.5:_ZN9PimCommon23MigrateApplicationFiles5startEv
libKF5PimCommon.so.5:_ZN9PimCommon23MigrateApplicationFilesC1EP7QObject
libKF5PimCommon.so.5:_ZN9PimCommon23MigrateApplicationFilesD1Ev
libKF5PimCommon.so.5:_ZN9PimCommon24CustomToolsPluginManager4selfEv
libKF5PimCommon.so.5:_ZN9PimCommon26ConfigurePluginsListWidget11changeStateERK7QVectorIPNS0_10PluginItemEE
libKF5PimCommon.so.5:_ZN9PimCommon26ConfigurePluginsListWidget11qt_metacallEN11QMetaObject4CallEiPPv
libKF5PimCommon.so.5:_ZN9PimCommon26ConfigurePluginsListWidget11qt_metacastEPKc
libKF5PimCommon.so.5:_ZN9PimCommon26ConfigurePluginsListWidget11savePluginsERK7QStringS3_RK7QVectorIPNS0_10PluginItemEE
libKF5PimCommon.so.5:_ZN9PimCommon26ConfigurePluginsListWidget12fillTopItemsERK7QVectorINS_14PluginUtilDataEERK7QStringS8_S8_RS1_IPNS0_10PluginItemEES8_b
libKF5PimCommon.so.5:_ZN9PimCommon26ConfigurePluginsListWidget14initializeDoneEv
libKF5PimCommon.so.5:_ZN9PimCommon26ConfigurePluginsListWidget16configureClickedERK7QStringS3_
libKF5PimCommon.so.5:_ZN9PimCommon26ConfigurePluginsListWidget16staticMetaObjectE
libKF5PimCommon.so.5:_ZN9PimCommon26ConfigurePluginsListWidgetC2EP7QWidget
libKF5PimCommon.so.5:_ZN9PimCommon26ConfigurePluginsListWidgetD2Ev
libKF5PimCommon.so.5:_ZN9PimCommon26LineEditWithAutoCorrection16staticMetaObjectE
libKF5PimCommon.so.5:_ZN9PimCommon26LineEditWithAutoCorrection17setAutocorrectionEPNS_14AutoCorrectionE
libKF5PimCommon.so.5:_ZN9PimCommon26LineEditWithAutoCorrection25setAutocorrectionLanguageERK7QString
libKF5PimCommon.so.5:_ZN9PimCommon26LineEditWithAutoCorrectionC1EP7QWidgetRK7QString
libKF5PimCommon.so.5:_ZN9PimCommon29ConfigureImmutableWidgetUtils10loadWidgetEP8QSpinBoxPKN19KCoreConfigSkeleton7ItemIntE
libKF5PimCommon.so.5:_ZN9PimCommon29ConfigureImmutableWidgetUtils10loadWidgetEP8QSpinBoxPKN19KCoreConfigSkeleton8ItemUIntE
libKF5PimCommon.so.5:_ZN9PimCommon29ConfigureImmutableWidgetUtils10loadWidgetEP9QCheckBoxPKN19KCoreConfigSkeleton8ItemBoolE
libKF5PimCommon.so.5:_ZN9PimCommon29ConfigureImmutableWidgetUtils10loadWidgetEP9QComboBoxPKN19KCoreConfigSkeleton8ItemEnumE
libKF5PimCommon.so.5:_ZN9PimCommon29ConfigureImmutableWidgetUtils10loadWidgetEP9QGroupBoxP12QButtonGroupPKN19KCoreConfigSkeleton8ItemEnumE
libKF5PimCommon.so.5:_ZN9PimCommon29ConfigureImmutableWidgetUtils10loadWidgetEPNS_22SimpleStringListEditorEPKN19KCoreConfigSkeleton14ItemStringListE
libKF5PimCommon.so.5:_ZN9PimCommon29ConfigureImmutableWidgetUtils11saveSpinBoxEP8QSpinBoxPN19KCoreConfigSkeleton7ItemIntE
libKF5PimCommon.so.5:_ZN9PimCommon29ConfigureImmutableWidgetUtils11saveSpinBoxEP8QSpinBoxPN19KCoreConfigSkeleton8ItemUIntE
libKF5PimCommon.so.5:_ZN9PimCommon29ConfigureImmutableWidgetUtils12saveCheckBoxEP9QCheckBoxPN19KCoreConfigSkeleton8ItemBoolE
libKF5PimCommon.so.5:_ZN9PimCommon29ConfigureImmutableWidgetUtils12saveComboBoxEP9QComboBoxPN19KCoreConfigSkeleton8ItemEnumE
libKF5PimCommon.so.5:_ZN9PimCommon29ConfigureImmutableWidgetUtils15saveButtonGroupEP12QButtonGroupPN19KCoreConfigSkeleton8ItemEnumE
libKF5PimCommon.so.5:_ZN9PimCommon29ConfigureImmutableWidgetUtils16populateCheckBoxEP9QCheckBoxPKN19KCoreConfigSkeleton8ItemBoolE
libKF5PimCommon.so.5:_ZN9PimCommon29ConfigureImmutableWidgetUtils19populateButtonGroupEP9QGroupBoxP12QButtonGroupiPKN19KCoreConfigSkeleton8ItemEnumE
libKF5PimCommon.so.5:_ZN9PimCommon29ConfigureImmutableWidgetUtils26saveSimpleStringListEditorEPNS_22SimpleStringListEditorEPN19KCoreConfigSkeleton14ItemStringListE
libKF5PimCommon.so.5:_ZN9PimCommon30AbstractGenericPluginInterface15setParentWidgetEP7QWidget
libKF5PimCommon.so.5:_ZN9PimCommon30AbstractGenericPluginInterface16staticMetaObjectE
libKF5PimCommon.so.5:_ZN9PimCommon30AbstractGenericPluginInterface7messageERK7QString
libKF5PimCommon.so.5:_ZN9PimCommon30AbstractGenericPluginInterface9setPluginEPNS_21AbstractGenericPluginE
libKF5PimCommon.so.5:_ZN9PimCommon4Util10invokeHelpERK7QStringS3_
libKF5PimCommon.so.5:_ZN9PimCommon4Util14isImapResourceERK7QString
libKF5PimCommon.so.5:_ZN9PimCommon4Util17generateEmailListERK11QStringList
libKF5PimCommon.so.5:_ZN9PimCommon4Util27createImapSettingsInterfaceERK7QString
libKF5PimCommon.so.5:_ZNK9PimCommon14NetworkManager23networkConfigureManagerEv
libKF5PimCommon.so.5:_ZNK9PimCommon17CustomToolsPlugin9isEnabledEv
libKF5PimCommon.so.5:_ZNK9PimCommon17PurposeMenuWidget4menuEv
libKF5PimCommon.so.5:_ZNK9PimCommon19CustomToolsWidgetNg10actionListEv
libKF5PimCommon.so.5:_ZNK9PimCommon21AbstractGenericPlugin9isEnabledEv
libKF5PimCommon.so.5:_ZNK9PimCommon22AutoCorrectionLanguage8languageEv
libKF5PimCommon.so.5:_ZNK9PimCommon22SimpleStringListEditor10stringListEv
libKF5PimCommon.so.5:_ZNK9PimCommon24CustomToolsPluginManager11pluginsListEv
libKF5PimCommon.so.5:_ZNK9PimCommon30AbstractGenericPluginInterface6pluginEv
libKF5PimCommonAkonadi.so.5:_ZN9PimCommon15PluginInterface11qt_metacallEN11QMetaObject4CallEiPPv
libKF5PimCommonAkonadi.so.5:_ZN9PimCommon15PluginInterface11qt_metacastEPKc
libKF5PimCommonAkonadi.so.5:_ZN9PimCommon15PluginInterface13setPluginNameERK7QString
libKF5PimCommonAkonadi.so.5:_ZN9PimCommon15PluginInterface15setParentWidgetEP7QWidget
libKF5PimCommonAkonadi.so.5:_ZN9PimCommon15PluginInterface16staticMetaObjectE
libKF5PimCommonAkonadi.so.5:_ZN9PimCommon15PluginInterface17initializePluginsEv
libKF5PimCommonAkonadi.so.5:_ZN9PimCommon15PluginInterface18clearPluginActionsERK7QStringP13KXMLGUIClient
libKF5PimCommonAkonadi.so.5:_ZN9PimCommon15PluginInterface18setPluginDirectoryERK7QString
libKF5PimCommonAkonadi.so.5:_ZN9PimCommon15PluginInterface19setActionCollectionEP17KActionCollection
libKF5PimCommonAkonadi.so.5:_ZN9PimCommon15PluginInterface20pluginFromIdentifierERK7QString
libKF5PimCommonAkonadi.so.5:_ZN9PimCommon15PluginInterface21createPluginInterfaceEv
libKF5PimCommonAkonadi.so.5:_ZN9PimCommon15PluginInterface23initializePluginActionsERK7QStringP13KXMLGUIClient
libKF5PimCommonAkonadi.so.5:_ZN9PimCommon15PluginInterfaceC2EP7QObject
libKF5PimCommonAkonadi.so.5:_ZN9PimCommon15PluginInterfaceD2Ev
libKF5PimCommonAkonadi.so.5:_ZN9PimCommon15RecentAddresses11setMaxCountEi
libKF5PimCommonAkonadi.so.5:_ZN9PimCommon15RecentAddresses4saveEP7KConfig
libKF5PimCommonAkonadi.so.5:_ZN9PimCommon15RecentAddresses4selfEP7KConfig
libKF5PimCommonAkonadi.so.5:_ZN9PimCommon15RecentAddresses5clearEv
libKF5PimCommonAkonadi.so.5:_ZN9PimCommon15RecentAddresses6existsEv
libKF5PimCommonAkonadi.so.5:_ZN9PimCommon17AddresseeLineEdit22setRecentAddressConfigEP7KConfig
libKF5PimCommonAkonadi.so.5:_ZN9PimCommon17AddresseeLineEdit7setFontERK5QFont
libKF5PimCommonAkonadi.so.5:_ZN9PimCommon17AddresseeLineEditC1EP7QWidgetb
libKF5PimCommonAkonadi.so.5:_ZN9PimCommon17CollectionAclPageC1EP7QWidget
libKF5PimCommonAkonadi.so.5:_ZN9PimCommon20AnnotationEditDialogC1ERKN7Akonadi4ItemEP7QWidget
libKF5PimCommonAkonadi.so.5:_ZN9PimCommon22ProgressManagerAkonadi18createProgressItemEPN4KPIM12ProgressItemERKN7Akonadi13AgentInstanceERK7QStringSA_SA_bNS2_12CryptoStatusE
libKF5PimCommonAkonadi.so.5:_ZN9PimCommon23CheckedCollectionWidgetC1ERK7QStringP7QWidget
libKF5PimCommonAkonadi.so.5:_ZN9PimCommon25CompletionConfigureDialog14storeAddressesEP7KConfig
libKF5PimCommonAkonadi.so.5:_ZN9PimCommon25CompletionConfigureDialog17setEmailBlackListERK11QStringList
libKF5PimCommonAkonadi.so.5:_ZN9PimCommon25CompletionConfigureDialog18setRecentAddressesERK11QStringList
libKF5PimCommonAkonadi.so.5:_ZN9PimCommon25CompletionConfigureDialog19setLdapClientSearchEPN5KLDAP16LdapClientSearchE
libKF5PimCommonAkonadi.so.5:_ZN9PimCommon25CompletionConfigureDialog4loadEv
libKF5PimCommonAkonadi.so.5:_ZN9PimCommon25CompletionConfigureDialogC1EP7QWidget
libKF5PimCommonAkonadi.so.5:_ZN9PimCommon27SelectMultiCollectionDialogC1ERK7QStringRK5QListIxEP7QWidget
libKF5PimCommonAkonadi.so.5:_ZN9PimCommon31ManageServerSideSubscriptionJob15setParentWidgetEP7QWidget
libKF5PimCommonAkonadi.so.5:_ZN9PimCommon31ManageServerSideSubscriptionJob20setCurrentCollectionERKN7Akonadi10CollectionE
libKF5PimCommonAkonadi.so.5:_ZN9PimCommon31ManageServerSideSubscriptionJob5startEv
libKF5PimCommonAkonadi.so.5:_ZN9PimCommon31ManageServerSideSubscriptionJobC1EP7QObject
libKF5PimCommonAkonadi.so.5:_ZN9PimCommon8MailUtil12isImapFolderERKN7Akonadi10CollectionERb
libKF5PimCommonAkonadi.so.5:_ZN9PimCommon8MailUtil18indexerServiceNameEv
libKF5PimCommonAkonadi.so.5:_ZNK9PimCommon15PluginInterface15configGroupNameEv
libKF5PimCommonAkonadi.so.5:_ZNK9PimCommon15PluginInterface15pluginsDataListEv
libKF5PimCommonAkonadi.so.5:_ZNK9PimCommon15PluginInterface22configPrefixSettingKeyEv
libKF5PimCommonAkonadi.so.5:_ZNK9PimCommon15RecentAddresses8maxCountEv
libKF5PimCommonAkonadi.so.5:_ZNK9PimCommon15RecentAddresses9addressesEv
libKF5PimCommonAkonadi.so.5:_ZNK9PimCommon23CheckedCollectionWidget14folderTreeViewEv
libKF5PimCommonAkonadi.so.5:_ZNK9PimCommon23CheckedCollectionWidget14selectionModelEv
libKF5PimCommonAkonadi.so.5:_ZNK9PimCommon25CompletionConfigureDialog23recentAddressWasChangedEv
libKF5PimCommonAkonadi.so.5:_ZNK9PimCommon27SelectMultiCollectionDialog18selectedCollectionEv
libKF5PimTextEdit.so.5:_ZN12KPIMTextEdit12TextToSpeech4selfEv
libKF5PimTextEdit.so.5:_ZN12KPIMTextEdit14RichTextEditor10wheelEventEP11QWheelEvent
libKF5PimTextEdit.so.5:_ZN12KPIMTextEdit14RichTextEditor11setReadOnlyEb
libKF5PimTextEdit.so.5:_ZN12KPIMTextEdit14RichTextEditor12focusInEventEP11QFocusEvent
libKF5PimTextEdit.so.5:_ZN12KPIMTextEdit14RichTextEditor15languageChangedERK7QString
libKF5PimTextEdit.so.5:_ZN12KPIMTextEdit14RichTextEditor16contextMenuEventEP17QContextMenuEvent
libKF5PimTextEdit.so.5:_ZN12KPIMTextEdit14RichTextEditor16spellCheckStatusERK7QString
libKF5PimTextEdit.so.5:_ZN12KPIMTextEdit14RichTextEditor16staticMetaObjectE
libKF5PimTextEdit.so.5:_ZN12KPIMTextEdit14RichTextEditor18forceSpellCheckingEv
libKF5PimTextEdit.so.5:_ZN12KPIMTextEdit14RichTextEditor18setDefaultFontSizeEi
libKF5PimTextEdit.so.5:_ZN12KPIMTextEdit14RichTextEditor20checkSpellingChangedEb
libKF5PimTextEdit.so.5:_ZN12KPIMTextEdit14RichTextEditor21spellCheckingFinishedEv
libKF5PimTextEdit.so.5:_ZN12KPIMTextEdit14RichTextEditor23setActivateLanguageMenuEb
libKF5PimTextEdit.so.5:_ZN12KPIMTextEdit14RichTextEditor23setCheckSpellingEnabledEb
libKF5PimTextEdit.so.5:_ZN12KPIMTextEdit14RichTextEditor24setSpellCheckingLanguageERK7QString
libKF5PimTextEdit.so.5:_ZN12KPIMTextEdit14RichTextEditor30setSpellCheckingConfigFileNameERK7QString
libKF5PimTextEdit.so.5:_ZN12KPIMTextEdit14RichTextEditor5eventEP6QEvent
libKF5PimTextEdit.so.5:_ZN12KPIMTextEdit15PlainTextEditor10wheelEventEP11QWheelEvent
libKF5PimTextEdit.so.5:_ZN12KPIMTextEdit15PlainTextEditor11qt_metacallEN11QMetaObject4CallEiPPv
libKF5PimTextEdit.so.5:_ZN12KPIMTextEdit15PlainTextEditor11qt_metacastEPKc
libKF5PimTextEdit.so.5:_ZN12KPIMTextEdit15PlainTextEditor11setReadOnlyEb
libKF5PimTextEdit.so.5:_ZN12KPIMTextEdit15PlainTextEditor12focusInEventEP11QFocusEvent
libKF5PimTextEdit.so.5:_ZN12KPIMTextEdit15PlainTextEditor13keyPressEventEP9QKeyEvent
libKF5PimTextEdit.so.5:_ZN12KPIMTextEdit15PlainTextEditor14clearDecoratorEv
libKF5PimTextEdit.so.5:_ZN12KPIMTextEdit15PlainTextEditor16contextMenuEventEP17QContextMenuEvent
libKF5PimTextEdit.so.5:_ZN12KPIMTextEdit15PlainTextEditor16setSearchSupportEb
libKF5PimTextEdit.so.5:_ZN12KPIMTextEdit15PlainTextEditor16staticMetaObjectE
libKF5PimTextEdit.so.5:_ZN12KPIMTextEdit15PlainTextEditor17createHighlighterEv
libKF5PimTextEdit.so.5:_ZN12KPIMTextEdit15PlainTextEditor17updateHighLighterEv
libKF5PimTextEdit.so.5:_ZN12KPIMTextEdit15PlainTextEditor23setSpellCheckingSupportEb
libKF5PimTextEdit.so.5:_ZN12KPIMTextEdit15PlainTextEditor25createSpellCheckDecoratorEv
libKF5PimTextEdit.so.5:_ZN12KPIMTextEdit15PlainTextEditor5eventEP6QEvent
libKF5PimTextEdit.so.5:_ZN12KPIMTextEdit15PlainTextEditorC2EP7QWidget
libKF5PimTextEdit.so.5:_ZN12KPIMTextEdit15PlainTextEditorD2Ev
libKF5PimTextEdit.so.5:_ZN12KPIMTextEdit16RichTextComposer13createActionsEP17KActionCollection
libKF5PimTextEdit.so.5:_ZN12KPIMTextEdit16RichTextComposer13keyPressEventEP9QKeyEvent
libKF5PimTextEdit.so.5:_ZN12KPIMTextEdit16RichTextComposer14clearDecoratorEv
libKF5PimTextEdit.so.5:_ZN12KPIMTextEdit16RichTextComposer14enableWordWrapEi
libKF5PimTextEdit.so.5:_ZN12KPIMTextEdit16RichTextComposer14insertEmoticonERK7QString
libKF5PimTextEdit.so.5:_ZN12KPIMTextEdit16RichTextComposer15disableWordWrapEv
libKF5PimTextEdit.so.5:_ZN12KPIMTextEdit16RichTextComposer15textModeChangedENS0_4ModeE
libKF5PimTextEdit.so.5:_ZN12KPIMTextEdit16RichTextComposer16activateRichTextEv
libKF5PimTextEdit.so.5:_ZN12KPIMTextEdit16RichTextComposer16staticMetaObjectE
libKF5PimTextEdit.so.5:_ZN12KPIMTextEdit16RichTextComposer17createHighlighterEv
libKF5PimTextEdit.so.5:_ZN12KPIMTextEdit16RichTextComposer17insertModeChangedEv
libKF5PimTextEdit.so.5:_ZN12KPIMTextEdit16RichTextComposer17mouseReleaseEventEP11QMouseEvent
libKF5PimTextEdit.so.5:_ZN12KPIMTextEdit16RichTextComposer17switchToPlainTextEv
libKF5PimTextEdit.so.5:_ZN12KPIMTextEdit16RichTextComposer17updateHighLighterEv
libKF5PimTextEdit.so.5:_ZN12KPIMTextEdit16RichTextComposer18insertFromMimeDataEPK9QMimeData
libKF5PimTextEdit.so.5:_ZN12KPIMTextEdit16RichTextComposer18setQuotePrefixNameERK7QString
libKF5PimTextEdit.so.5:_ZN12KPIMTextEdit16RichTextComposer20externalEditorClosedEv
libKF5PimTextEdit.so.5:_ZN12KPIMTextEdit16RichTextComposer20forcePlainTextMarkupEb
libKF5PimTextEdit.so.5:_ZN12KPIMTextEdit16RichTextComposer20setUseExternalEditorEb
libKF5PimTextEdit.so.5:_ZN12KPIMTextEdit16RichTextComposer21externalEditorStartedEv
libKF5PimTextEdit.so.5:_ZN12KPIMTextEdit16RichTextComposer21setExternalEditorPathERK7QString
libKF5PimTextEdit.so.5:_ZN12KPIMTextEdit16RichTextComposer25createSpellCheckDecoratorEv
libKF5PimTextEdit.so.5:_ZN12KPIMTextEdit16RichTextComposer27checkExternalEditorFinishedEv
libKF5PimTextEdit.so.5:_ZN12KPIMTextEdit20RichTextEditorWidget11slotReplaceEv
libKF5PimTextEdit.so.5:_ZN12KPIMTextEdit20RichTextEditorWidget12slotFindNextEv
libKF5PimTextEdit.so.5:_ZN12KPIMTextEdit20RichTextEditorWidget8slotFindEv
libKF5PimTextEdit.so.5:_ZN12KPIMTextEdit20RichTextEditorWidgetC1EPNS_14RichTextEditorEP7QWidget
libKF5PimTextEdit.so.5:_ZN12KPIMTextEdit21PlainTextEditorWidget11setReadOnlyEb
libKF5PimTextEdit.so.5:_ZN12KPIMTextEdit21PlainTextEditorWidgetC1EP7QWidget
libKF5PimTextEdit.so.5:_ZN12KPIMTextEdit21PlainTextEditorWidgetC1EPNS_15PlainTextEditorEP7QWidget
libKF5PimTextEdit.so.5:_ZN12KPIMTextEdit22RichTextComposerImages11insertImageERK6QImageRK9QFileInfo
libKF5PimTextEdit.so.5:_ZN12KPIMTextEdit23RichTextComposerActions17setActionsEnabledEb
libKF5PimTextEdit.so.5:_ZN12KPIMTextEdit23RichTextComposerActions18updateActionStatesEv
libKF5PimTextEdit.so.5:_ZN12KPIMTextEdit24RichTextExternalComposer19startExternalEditorEv
libKF5PimTextEdit.so.5:_ZN12KPIMTextEdit25RichTextComposerControler10insertLinkERK7QString
libKF5PimTextEdit.so.5:_ZN12KPIMTextEdit25RichTextComposerControler19setFontForWholeTextERK5QFont
libKF5PimTextEdit.so.5:_ZN12KPIMTextEdit37RichTextComposerEmailQuoteHighlighter13setQuoteColorERK6QColorS3_S3_S3_S3_
libKF5PimTextEdit.so.5:_ZNK12KPIMTextEdit12TextToSpeech7isReadyEv
libKF5PimTextEdit.so.5:_ZNK12KPIMTextEdit14RichTextEditor20checkSpellingEnabledEv
libKF5PimTextEdit.so.5:_ZNK12KPIMTextEdit14RichTextEditor21spellCheckingLanguageEv
libKF5PimTextEdit.so.5:_ZNK12KPIMTextEdit16RichTextComposer12columnNumberEv
libKF5PimTextEdit.so.5:_ZNK12KPIMTextEdit16RichTextComposer12linePositionEv
libKF5PimTextEdit.so.5:_ZNK12KPIMTextEdit16RichTextComposer15composerActionsEv
libKF5PimTextEdit.so.5:_ZNK12KPIMTextEdit16RichTextComposer16externalComposerEv
libKF5PimTextEdit.so.5:_ZNK12KPIMTextEdit16RichTextComposer17composerControlerEv
libKF5PimTextEdit.so.5:_ZNK12KPIMTextEdit16RichTextComposer21canInsertFromMimeDataEPK9QMimeData
libKF5PimTextEdit.so.5:_ZNK12KPIMTextEdit16RichTextComposer8textModeEv
libKF5PimTextEdit.so.5:_ZNK12KPIMTextEdit20RichTextEditorWidget6editorEv
libKF5PimTextEdit.so.5:_ZNK12KPIMTextEdit21PlainTextEditorWidget6editorEv
libKF5PimTextEdit.so.5:_ZNK12KPIMTextEdit21PlainTextEditorWidget7isEmptyEv
libKF5PimTextEdit.so.5:_ZNK12KPIMTextEdit25RichTextComposerControler14composerImagesEv
libKF5PimTextEdit.so.5:_ZNK12KPIMTextEdit25RichTextComposerControler14currentLinkUrlEv
libKF5PimTextEdit.so.5:_ZNK12KPIMTextEdit25RichTextComposerControler15currentLinkTextEv
libKF5PimTextEdit.so.5:_ZNK12KPIMTextEdit25RichTextComposerControler16isFormattingUsedEv
libKF5Service.so.5:_ZN11KPluginInfo12fromServicesERK5QListI28QExplicitlySharedDataPointerI8KServiceEERK12KConfigGroup
libKF5Service.so.5:_ZN11KPluginInfo4loadERK12KConfigGroup
libKF5Service.so.5:_ZN11KPluginInfoC1ERKS_
libKF5Service.so.5:_ZN11KPluginInfoD1Ev
libKF5Service.so.5:_ZN15KToolInvocation25startServiceByDesktopNameERK7QStringS2_PS0_S3_PiRK10QByteArrayb
libKF5Service.so.5:_ZN18KServiceTypeTrader4selfEv
libKF5Service.so.5:_ZNK11KPluginInfo10pluginNameEv
libKF5Service.so.5:_ZNK11KPluginInfo15isPluginEnabledEv
libKF5Service.so.5:_ZNK11KPluginInfo4iconEv
libKF5Service.so.5:_ZNK11KPluginInfo4nameEv
libKF5Service.so.5:_ZNK11KPluginInfo7commentEv
libKF5Service.so.5:_ZNK11KPluginInfo8propertyERK7QString
libKF5Service.so.5:_ZNK12KSycocaEntry4nameEv
libKF5Service.so.5:_ZNK18KServiceTypeTrader5queryERK7QStringS2_
libKF5Service.so.5:_ZNK8KService4iconEv
libKF5SonnetUi.so.5:_ZN6Sonnet12ConfigDialog11qt_metacallEN11QMetaObject4CallEiPPv
libKF5SonnetUi.so.5:_ZN6Sonnet12ConfigDialog11qt_metacastEPKc
libKF5SonnetUi.so.5:_ZN6Sonnet12ConfigDialog11setLanguageERK7QString
libKF5SonnetUi.so.5:_ZN6Sonnet12ConfigDialog16staticMetaObjectE
libKF5SonnetUi.so.5:_ZN6Sonnet12ConfigDialog6slotOkEv
libKF5SonnetUi.so.5:_ZN6Sonnet12ConfigDialog9slotApplyEv
libKF5SonnetUi.so.5:_ZN6Sonnet12ConfigDialogC2EP7QWidget
libKF5SonnetUi.so.5:_ZN6Sonnet12ConfigDialogD2Ev
libKF5SonnetUi.so.5:_ZN6Sonnet18DictionaryComboBox16staticMetaObjectE
libKF5SonnetUi.so.5:_ZN6Sonnet18DictionaryComboBox17dictionaryChangedERK7QString
libKF5SonnetUi.so.5:_ZN6Sonnet18DictionaryComboBox19assignByDictionnaryERK7QString
libKF5SonnetUi.so.5:_ZN6Sonnet18DictionaryComboBox22setCurrentByDictionaryERK7QString
libKF5SonnetUi.so.5:_ZN6Sonnet18DictionaryComboBox26setCurrentByDictionaryNameERK7QString
libKF5SonnetUi.so.5:_ZN6Sonnet18DictionaryComboBoxC1EP7QWidget
libKF5SonnetUi.so.5:_ZNK6Sonnet12ConfigDialog8languageEv
libKF5SonnetUi.so.5:_ZNK6Sonnet18DictionaryComboBox17currentDictionaryEv
libKF5SonnetUi.so.5:_ZNK6Sonnet18DictionaryComboBox21currentDictionaryNameEv
libKF5SonnetUi.so.5:_ZTIN6Sonnet12ConfigDialogE
libKF5TemplateParser.so.5:_ZN14TemplateParser15CustomTemplates16staticMetaObjectE
libKF5TemplateParser.so.5:_ZN14TemplateParser15CustomTemplates16templatesUpdatedEv
libKF5TemplateParser.so.5:_ZN14TemplateParser15CustomTemplates4loadEv
libKF5TemplateParser.so.5:_ZN14TemplateParser15CustomTemplates4saveEv
libKF5TemplateParser.so.5:_ZN14TemplateParser15CustomTemplates7changedEv
libKF5TemplateParser.so.5:_ZN14TemplateParser15CustomTemplatesC1ERK5QListIP17KActionCollectionEP7QWidget
libKF5TemplateParser.so.5:_ZN14TemplateParser16DefaultTemplates12defaultReplyEv
libKF5TemplateParser.so.5:_ZN14TemplateParser16DefaultTemplates14defaultForwardEv
libKF5TemplateParser.so.5:_ZN14TemplateParser16DefaultTemplates15defaultReplyAllEv
libKF5TemplateParser.so.5:_ZN14TemplateParser16DefaultTemplates17defaultNewMessageEv
libKF5TemplateParser.so.5:_ZN14TemplateParser16DefaultTemplates18defaultQuoteStringEv
libKF5TemplateParser.so.5:_ZN14TemplateParser17TemplateParserJob11parsingDoneEb
libKF5TemplateParser.so.5:_ZN14TemplateParser17TemplateParserJob12setSelectionERK7QString
libKF5TemplateParser.so.5:_ZN14TemplateParser17TemplateParserJob16staticMetaObjectE
libKF5TemplateParser.so.5:_ZN14TemplateParser17TemplateParserJob18setAllowDecryptionEb
libKF5TemplateParser.so.5:_ZN14TemplateParser17TemplateParserJob18setIdentityManagerEPN19KIdentityManagement15IdentityManagerE
libKF5TemplateParser.so.5:_ZN14TemplateParser17TemplateParserJob19processWithIdentityEjRK14QSharedPointerIN5KMime7MessageEEx
libKF5TemplateParser.so.5:_ZN14TemplateParser17TemplateParserJob7processERK14QSharedPointerIN5KMime7MessageEEx
libKF5TemplateParser.so.5:_ZN14TemplateParser17TemplateParserJob7processERK7QStringRK14QSharedPointerIN5KMime7MessageEEx
libKF5TemplateParser.so.5:_ZN14TemplateParser17TemplateParserJobC1ERK14QSharedPointerIN5KMime7MessageEENS0_4ModeEP7QObject
libKF5TemplateParser.so.5:_ZN14TemplateParser19CustomTemplatesMenu6updateEv
libKF5TemplateParser.so.5:_ZN14TemplateParser19CustomTemplatesMenuC1EP7QWidgetP17KActionCollection
libKF5TemplateParser.so.5:_ZN14TemplateParser22TemplateParserSettings4selfEv
libKF5TemplateParser.so.5:_ZN14TemplateParser22TemplatesConfiguration12saveToGlobalEv
libKF5TemplateParser.so.5:_ZN14TemplateParser22TemplatesConfiguration14configIdStringEj
libKF5TemplateParser.so.5:_ZN14TemplateParser22TemplatesConfiguration14loadFromGlobalEv
libKF5TemplateParser.so.5:_ZN14TemplateParser22TemplatesConfiguration14resetToDefaultEv
libKF5TemplateParser.so.5:_ZN14TemplateParser22TemplatesConfiguration14saveToIdentityEj
libKF5TemplateParser.so.5:_ZN14TemplateParser22TemplatesConfiguration16loadFromIdentityEj
libKF5TemplateParser.so.5:_ZN14TemplateParser22TemplatesConfiguration16staticMetaObjectE
libKF5TemplateParser.so.5:_ZN14TemplateParser22TemplatesConfiguration7changedEv
libKF5TemplateParser.so.5:_ZN14TemplateParser22TemplatesConfigurationC1EP7QWidgetRK7QString
libKF5TemplateParser.so.5:_ZN14TemplateParser4Util14deleteTemplateERK7QString
libKF5TemplateParser.so.5:_ZN14TemplateParser9TemplatesC1ERK7QString
libKF5TemplateParser.so.5:_ZN14TemplateParser9TemplatesD1Ev
libKF5TemplateParser.so.5:_ZNK14TemplateParser19CustomTemplatesMenu15replyActionMenuEv
libKF5TemplateParser.so.5:_ZNK14TemplateParser19CustomTemplatesMenu17forwardActionMenuEv
libKF5TemplateParser.so.5:_ZNK14TemplateParser19CustomTemplatesMenu18replyAllActionMenuEv
libKF5TemplateParser.so.5:_ZNK14TemplateParser22TemplatesConfiguration9helpLabelEv
libKF5TextWidgets.so.5:_ZN22KPluralHandlingSpinBox9setSuffixERK16KLocalizedString
libKF5TextWidgets.so.5:_ZN22KPluralHandlingSpinBoxC1EP7QWidget
libKF5Tnef.so.5:_ZN5KTnef11KTNEFParserC1Ev
libKF5Tnef.so.5:_ZN5KTnef11KTNEFParserD1Ev
libKF5Tnef.so.5:_ZN5KTnef13KTNEFProperty11formatValueERK8QVariantb
libKF5Tnef.so.5:_ZN5KTnef16KTNEFPropertySet10attributesEv
libKF5Tnef.so.5:_ZN5KTnef16KTNEFPropertySet10propertiesEv
libKF5Tnef.so.5:_ZNK5KTnef11KTNEFAttach11displayNameEv
libKF5Tnef.so.5:_ZNK5KTnef11KTNEFAttach4nameEv
libKF5Tnef.so.5:_ZNK5KTnef11KTNEFAttach4sizeEv
libKF5Tnef.so.5:_ZNK5KTnef11KTNEFAttach5indexEv
libKF5Tnef.so.5:_ZNK5KTnef11KTNEFAttach7mimeTagEv
libKF5Tnef.so.5:_ZNK5KTnef11KTNEFAttach8fileNameEv
libKF5Tnef.so.5:_ZNK5KTnef11KTNEFParser13extractFileToERK7QStringS3_
libKF5Tnef.so.5:_ZNK5KTnef11KTNEFParser7messageEv
libKF5Tnef.so.5:_ZNK5KTnef11KTNEFParser8openFileERK7QString
libKF5Tnef.so.5:_ZNK5KTnef12KTNEFMessage14attachmentListEv
libKF5Tnef.so.5:_ZNK5KTnef12KTNEFMessage9rtfStringEv
libKF5Tnef.so.5:_ZNK5KTnef13KTNEFProperty11valueStringEv
libKF5Tnef.so.5:_ZNK5KTnef13KTNEFProperty5valueEv
libKF5Tnef.so.5:_ZNK5KTnef13KTNEFProperty9keyStringEv
libKF5Tnef.so.5:_ZNK5KTnef16KTNEFPropertySet8propertyEi
libKF5Tnef.so.5:_ZNK5KTnef16KTNEFPropertySet9attributeEi
libKF5Wallet.so.5:_ZN7KWallet6Wallet10openWalletERK7QStringyNS0_8OpenTypeE
libKF5Wallet.so.5:_ZN7KWallet6Wallet13NetworkWalletEv
libKF5WebEngineViewer.so.5:_ZN15WebEngineViewer16WebHitTestResultC1ERKS0_
libKF5WebEngineViewer.so.5:_ZN15WebEngineViewer16WebHitTestResultC1Ev
libKF5WebEngineViewer.so.5:_ZN15WebEngineViewer16WebHitTestResultD1Ev
libKF5WebEngineViewer.so.5:_ZN15WebEngineViewer21CheckPhishingUrlCache10clearCacheEv
libKF5WebEngineViewer.so.5:_ZN15WebEngineViewer21CheckPhishingUrlCache4selfEv
libKF5WebEngineViewer.so.5:_ZN15WebEngineViewer34NetworkUrlInterceptorPluginManager20pluginFromIdentifierERK7QString
libKF5WebEngineViewer.so.5:_ZN15WebEngineViewer34NetworkUrlInterceptorPluginManager4selfEv
libKF5WebEngineViewer.so.5:_ZNK15WebEngineViewer16WebHitTestResult7linkUrlEv
libKF5WebEngineViewer.so.5:_ZNK15WebEngineViewer16WebHitTestResult8imageUrlEv
libKF5WebEngineViewer.so.5:_ZNK15WebEngineViewer34NetworkUrlInterceptorPluginManager15configGroupNameEv
libKF5WebEngineViewer.so.5:_ZNK15WebEngineViewer34NetworkUrlInterceptorPluginManager15pluginsDataListEv
libKF5WebEngineViewer.so.5:_ZNK15WebEngineViewer34NetworkUrlInterceptorPluginManager22configPrefixSettingKeyEv
libKF5WidgetsAddons.so.5:_ZN10KSeparatorC1EN2Qt11OrientationEP7QWidget6QFlagsINS0_10WindowTypeEE
libKF5WidgetsAddons.so.5:_ZN10KSeparatorC1EP7QWidget6QFlagsIN2Qt10WindowTypeEE
libKF5WidgetsAddons.so.5:_ZN11KActionMenu10setDelayedEb
libKF5WidgetsAddons.so.5:_ZN11KActionMenu11qt_metacallEN11QMetaObject4CallEiPPv
libKF5WidgetsAddons.so.5:_ZN11KActionMenu11qt_metacastEPKc
libKF5WidgetsAddons.so.5:_ZN11KActionMenu12addSeparatorEv
libKF5WidgetsAddons.so.5:_ZN11KActionMenu12createWidgetEP7QWidget
libKF5WidgetsAddons.so.5:_ZN11KActionMenu12insertActionEP7QActionS1_
libKF5WidgetsAddons.so.5:_ZN11KActionMenu12removeActionEP7QAction
libKF5WidgetsAddons.so.5:_ZN11KActionMenu16staticMetaObjectE
libKF5WidgetsAddons.so.5:_ZN11KActionMenu9addActionEP7QAction
libKF5WidgetsAddons.so.5:_ZN11KActionMenuC1EP7QObject
libKF5WidgetsAddons.so.5:_ZN11KActionMenuC1ERK5QIconRK7QStringP7QObject
libKF5WidgetsAddons.so.5:_ZN11KActionMenuC1ERK7QStringP7QObject
libKF5WidgetsAddons.so.5:_ZN11KActionMenuC2EP7QObject
libKF5WidgetsAddons.so.5:_ZN11KActionMenuD2Ev
libKF5WidgetsAddons.so.5:_ZN11KMessageBox11informationEP7QWidgetRK7QStringS4_S4_6QFlagsINS_6OptionEE
libKF5WidgetsAddons.so.5:_ZN11KMessageBox12warningYesNoEP7QWidgetRK7QStringS4_RK8KGuiItemS7_S4_6QFlagsINS_6OptionEE
libKF5WidgetsAddons.so.5:_ZN11KMessageBox13questionYesNoEP7QWidgetRK7QStringS4_RK8KGuiItemS7_S4_6QFlagsINS_6OptionEE
libKF5WidgetsAddons.so.5:_ZN11KMessageBox15informationListEP7QWidgetRK7QStringRK11QStringListS4_S4_6QFlagsINS_6OptionEE
libKF5WidgetsAddons.so.5:_ZN11KMessageBox17createKMessageBoxEP7QDialogP16QDialogButtonBoxN11QMessageBox4IconERK7QStringRK11QStringListS8_Pb6QFlagsINS_6OptionEES8_
libKF5WidgetsAddons.so.5:_ZN11KMessageBox17enableAllMessagesEv
libKF5WidgetsAddons.so.5:_ZN11KMessageBox17questionYesNoListEP7QWidgetRK7QStringRK11QStringListS4_RK8KGuiItemSA_S4_6QFlagsINS_6OptionEE
libKF5WidgetsAddons.so.5:_ZN11KMessageBox18warningYesNoCancelEP7QWidgetRK7QStringS4_RK8KGuiItemS7_S7_S4_6QFlagsINS_6OptionEE
libKF5WidgetsAddons.so.5:_ZN11KMessageBox19questionYesNoCancelEP7QWidgetRK7QStringS4_RK8KGuiItemS7_S7_S4_6QFlagsINS_6OptionEE
libKF5WidgetsAddons.so.5:_ZN11KMessageBox21warningContinueCancelEP7QWidgetRK7QStringS4_RK8KGuiItemS7_S4_6QFlagsINS_6OptionEE
libKF5WidgetsAddons.so.5:_ZN11KMessageBox5errorEP7QWidgetRK7QStringS4_6QFlagsINS_6OptionEE
libKF5WidgetsAddons.so.5:_ZN11KMessageBox5sorryEP7QWidgetRK7QStringS4_6QFlagsINS_6OptionEE
libKF5WidgetsAddons.so.5:_ZN11KPageDialog11setFaceTypeENS_8FaceTypeE
libKF5WidgetsAddons.so.5:_ZN11KPageDialog18setStandardButtonsE6QFlagsIN16QDialogButtonBox14StandardButtonEE
libKF5WidgetsAddons.so.5:_ZN11KPageDialog7addPageEP15KPageWidgetItem
libKF5WidgetsAddons.so.5:_ZN11KPageDialog7addPageEP7QWidgetRK7QString
libKF5WidgetsAddons.so.5:_ZN12KFontChooser12enableColumnEib
libKF5WidgetsAddons.so.5:_ZN12KFontChooser12fontSelectedERK5QFont
libKF5WidgetsAddons.so.5:_ZN12KFontChooser16staticMetaObjectE
libKF5WidgetsAddons.so.5:_ZN12KFontChooser7setFontERK5QFontb
libKF5WidgetsAddons.so.5:_ZN12KFontChooserC1EP7QWidgetRK6QFlagsINS_11DisplayFlagEERK11QStringListiPN2Qt10CheckStateE
libKF5WidgetsAddons.so.5:_ZN13KSelectAction11eventFilterEP7QObjectP6QEvent
libKF5WidgetsAddons.so.5:_ZN13KSelectAction12createWidgetEP7QWidget
libKF5WidgetsAddons.so.5:_ZN13KSelectAction12deleteWidgetEP7QWidget
libKF5WidgetsAddons.so.5:_ZN13KSelectAction12insertActionEP7QActionS1_
libKF5WidgetsAddons.so.5:_ZN13KSelectAction12removeActionEP7QAction
libKF5WidgetsAddons.so.5:_ZN13KSelectAction14setCurrentItemEi
libKF5WidgetsAddons.so.5:_ZN13KSelectAction16removeAllActionsEv
libKF5WidgetsAddons.so.5:_ZN13KSelectAction16staticMetaObjectE
libKF5WidgetsAddons.so.5:_ZN13KSelectAction5clearEv
libKF5WidgetsAddons.so.5:_ZN13KSelectAction5eventEP6QEvent
libKF5WidgetsAddons.so.5:_ZN13KSelectAction8setItemsERK11QStringList
libKF5WidgetsAddons.so.5:_ZN13KSelectAction9addActionEP7QAction
libKF5WidgetsAddons.so.5:_ZN13KSelectAction9addActionERK7QString
libKF5WidgetsAddons.so.5:_ZN13KSelectAction9triggeredEP7QAction
libKF5WidgetsAddons.so.5:_ZN13KSelectAction9triggeredEi
libKF5WidgetsAddons.so.5:_ZN13KSelectActionC1ERK5QIconRK7QStringP7QObject
libKF5WidgetsAddons.so.5:_ZN13KSelectActionC1ERK7QStringP7QObject
libKF5WidgetsAddons.so.5:_ZN13KToggleAction15setCheckedStateERK8KGuiItem
libKF5WidgetsAddons.so.5:_ZN13KToggleAction16staticMetaObjectE
libKF5WidgetsAddons.so.5:_ZN13KToggleActionC1ERK5QIconRK7QStringP7QObject
libKF5WidgetsAddons.so.5:_ZN13KToggleActionC1ERK7QStringP7QObject
libKF5WidgetsAddons.so.5:_ZN14KMessageWidget10paintEventEP11QPaintEvent
libKF5WidgetsAddons.so.5:_ZN14KMessageWidget11qt_metacallEN11QMetaObject4CallEiPPv
libKF5WidgetsAddons.so.5:_ZN14KMessageWidget11qt_metacastEPKc
libKF5WidgetsAddons.so.5:_ZN14KMessageWidget11resizeEventEP12QResizeEvent
libKF5WidgetsAddons.so.5:_ZN14KMessageWidget11setWordWrapEb
libKF5WidgetsAddons.so.5:_ZN14KMessageWidget12animatedHideEv
libKF5WidgetsAddons.so.5:_ZN14KMessageWidget12animatedShowEv
libKF5WidgetsAddons.so.5:_ZN14KMessageWidget13linkActivatedERK7QString
libKF5WidgetsAddons.so.5:_ZN14KMessageWidget14setMessageTypeENS_11MessageTypeE
libKF5WidgetsAddons.so.5:_ZN14KMessageWidget16staticMetaObjectE
libKF5WidgetsAddons.so.5:_ZN14KMessageWidget21hideAnimationFinishedEv
libKF5WidgetsAddons.so.5:_ZN14KMessageWidget21setCloseButtonVisibleEb
libKF5WidgetsAddons.so.5:_ZN14KMessageWidget5eventEP6QEvent
libKF5WidgetsAddons.so.5:_ZN14KMessageWidget7setTextERK7QString
libKF5WidgetsAddons.so.5:_ZN14KMessageWidget9addActionEP7QAction
libKF5WidgetsAddons.so.5:_ZN14KMessageWidgetC2EP7QWidget
libKF5WidgetsAddons.so.5:_ZN14KMessageWidgetD2Ev
libKF5WidgetsAddons.so.5:_ZN15KEditListWidget16insertStringListERK11QStringListi
libKF5WidgetsAddons.so.5:_ZN15KEditListWidget16staticMetaObjectE
libKF5WidgetsAddons.so.5:_ZN15KEditListWidget5clearEv
libKF5WidgetsAddons.so.5:_ZN15KEditListWidget7changedEv
libKF5WidgetsAddons.so.5:_ZN15KEditListWidgetC1EP7QWidget
libKF5WidgetsAddons.so.5:_ZN15KPageWidgetItemC1EP7QWidgetRK7QString
libKF5WidgetsAddons.so.5:_ZN16KAssistantDialog11qt_metacallEN11QMetaObject4CallEiPPv
libKF5WidgetsAddons.so.5:_ZN16KAssistantDialog11qt_metacastEPKc
libKF5WidgetsAddons.so.5:_ZN16KAssistantDialog16staticMetaObjectE
libKF5WidgetsAddons.so.5:_ZN16KAssistantDialog4backEv
libKF5WidgetsAddons.so.5:_ZN16KAssistantDialog4nextEv
libKF5WidgetsAddons.so.5:_ZN16KAssistantDialog9showEventEP10QShowEvent
libKF5WidgetsAddons.so.5:_ZN16KAssistantDialogC2EP7QWidget6QFlagsIN2Qt10WindowTypeEE
libKF5WidgetsAddons.so.5:_ZN16KAssistantDialogD2Ev
libKF5WidgetsAddons.so.5:_ZN16KStandardGuiItem2noEv
libKF5WidgetsAddons.so.5:_ZN16KStandardGuiItem3delEv
libKF5WidgetsAddons.so.5:_ZN16KStandardGuiItem3yesEv
libKF5WidgetsAddons.so.5:_ZN16KStandardGuiItem4contEv
libKF5WidgetsAddons.so.5:_ZN16KStandardGuiItem4saveEv
libKF5WidgetsAddons.so.5:_ZN16KStandardGuiItem4stopEv
libKF5WidgetsAddons.so.5:_ZN16KStandardGuiItem5clearEv
libKF5WidgetsAddons.so.5:_ZN16KStandardGuiItem6cancelEv
libKF5WidgetsAddons.so.5:_ZN16KStandardGuiItem6removeEv
libKF5WidgetsAddons.so.5:_ZN16KStandardGuiItem6saveAsEv
libKF5WidgetsAddons.so.5:_ZN16KStandardGuiItem7discardEv
libKF5WidgetsAddons.so.5:_ZN18KSqueezedTextLabel16setTextElideModeEN2Qt13TextElideModeE
libKF5WidgetsAddons.so.5:_ZN18KSqueezedTextLabel7setTextERK7QString
libKF5WidgetsAddons.so.5:_ZN18KSqueezedTextLabelC1ERK7QStringP7QWidget
libKF5WidgetsAddons.so.5:_ZN19KAcceleratorManager6manageEP7QWidgetb
libKF5WidgetsAddons.so.5:_ZN20KBusyIndicatorWidgetC1EP7QWidget
libKF5WidgetsAddons.so.5:_ZN20KViewStateSerializer17setSelectionModelEP19QItemSelectionModel
libKF5WidgetsAddons.so.5:_ZN20KViewStateSerializer18restoreCurrentItemERK7QString
libKF5WidgetsAddons.so.5:_ZN20KViewStateSerializer7setViewEP17QAbstractItemView
libKF5WidgetsAddons.so.5:_ZN20KViewStateSerializerD2Ev
libKF5WidgetsAddons.so.5:_ZN24KSplitterCollapserButtonC1EP7QWidgetP9QSplitter
libKF5WidgetsAddons.so.5:_ZN24KViewStateMaintainerBase11qt_metacallEN11QMetaObject4CallEiPPv
libKF5WidgetsAddons.so.5:_ZN24KViewStateMaintainerBase11qt_metacastEPKc
libKF5WidgetsAddons.so.5:_ZN24KViewStateMaintainerBase17setSelectionModelEP19QItemSelectionModel
libKF5WidgetsAddons.so.5:_ZN24KViewStateMaintainerBaseC2EP7QObject
libKF5WidgetsAddons.so.5:_ZN24KViewStateMaintainerBaseD2Ev
libKF5WidgetsAddons.so.5:_ZN8KGuiItem6assignEP11QPushButtonRKS_
libKF5WidgetsAddons.so.5:_ZN8KGuiItemC1ERK7QStringS2_S2_S2_
libKF5WidgetsAddons.so.5:_ZN8KGuiItemC1Ev
libKF5WidgetsAddons.so.5:_ZN8KGuiItemD1Ev
libKF5WidgetsAddons.so.5:_ZN8KGuiItemaSERKS_
libKF5WidgetsAddons.so.5:_ZN9KUrlLabel14leftClickedUrlERK7QString
libKF5WidgetsAddons.so.5:_ZN9KUrlLabel16staticMetaObjectE
libKF5WidgetsAddons.so.5:_ZN9KUrlLabelC1ERK7QStringS2_P7QWidget
libKF5WidgetsAddons.so.5:_ZNK11KPageDialog6buttonEN16QDialogButtonBox14StandardButtonE
libKF5WidgetsAddons.so.5:_ZNK12KFontChooser4fontEv
libKF5WidgetsAddons.so.5:_ZNK13KSelectAction11currentItemEv
libKF5WidgetsAddons.so.5:_ZNK13KSelectAction11currentTextEv
libKF5WidgetsAddons.so.5:_ZNK13KSelectAction7actionsEv
libKF5WidgetsAddons.so.5:_ZNK14KMessageWidget14heightForWidthEi
libKF5WidgetsAddons.so.5:_ZNK14KMessageWidget15minimumSizeHintEv
libKF5WidgetsAddons.so.5:_ZNK14KMessageWidget8sizeHintEv
libKF5WidgetsAddons.so.5:_ZNK15KEditListWidget5itemsEv
libKF5WidgetsAddons.so.5:_ZNK15KEditListWidget8lineEditEv
libKF5WidgetsAddons.so.5:_ZNK24KViewStateMaintainerBase10metaObjectEv
libKF5WidgetsAddons.so.5:_ZNK24KViewStateMaintainerBase14selectionModelEv
libKF5WidgetsAddons.so.5:_ZNK24KViewStateMaintainerBase4viewEv
libKF5WidgetsAddons.so.5:_ZTI11KActionMenu
libKF5WidgetsAddons.so.5:_ZTI14KMessageWidget
libKF5WidgetsAddons.so.5:_ZTI16KAssistantDialog
libKF5WidgetsAddons.so.5:_ZTI24KViewStateMaintainerBase
libKF5WindowSystem.so.5:_ZN11KWindowInfoC1Ey6QFlagsIN3NET8PropertyEES0_INS1_9Property2EE
libKF5WindowSystem.so.5:_ZN11KWindowInfoD1Ev
libKF5WindowSystem.so.5:_ZN13KWindowSystem12setOnDesktopEyi
libKF5WindowSystem.so.5:_ZN13KWindowSystem13setMainWindowEP7QWindowy
libKF5WindowSystem.so.5:_ZN13KWindowSystem14activateWindowEyl
libKF5WindowSystem.so.5:_ZN13KWindowSystem14currentDesktopEv
libKF5WindowSystem.so.5:_ZN13KWindowSystem14minimizeWindowEy
libKF5WindowSystem.so.5:_ZN13KWindowSystem16setOnAllDesktopsEyb
libKF5WindowSystem.so.5:_ZNK11KWindowInfo11isMinimizedEv
libKF5WindowSystem.so.5:_ZNK11KWindowInfo5validEb
libKF5WindowSystem.so.5:_ZNK11KWindowInfo7desktopEv
libKF5XmlGui.so.5:_ZN11KMainWindow10closeEventEP11QCloseEvent
libKF5XmlGui.so.5:_ZN11KMainWindow10memberListEv
libKF5XmlGui.so.5:_ZN11KMainWindow10queryCloseEv
libKF5XmlGui.so.5:_ZN11KMainWindow10setCaptionERK7QString
libKF5XmlGui.so.5:_ZN11KMainWindow10setCaptionERK7QStringb
libKF5XmlGui.so.5:_ZN11KMainWindow13canBeRestoredEi
libKF5XmlGui.so.5:_ZN11KMainWindow15setPlainCaptionERK7QString
libKF5XmlGui.so.5:_ZN11KMainWindow16staticMetaObjectE
libKF5XmlGui.so.5:_ZN11KMainWindow19classNameOfToplevelEi
libKF5XmlGui.so.5:_ZN11KMainWindow19setAutoSaveSettingsERK12KConfigGroupb
libKF5XmlGui.so.5:_ZN11KMainWindow19setAutoSaveSettingsERK7QStringb
libKF5XmlGui.so.5:_ZN11KMainWindow20readGlobalPropertiesEP7KConfig
libKF5XmlGui.so.5:_ZN11KMainWindow20saveAutoSaveSettingsEv
libKF5XmlGui.so.5:_ZN11KMainWindow20saveGlobalPropertiesEP7KConfig
libKF5XmlGui.so.5:_ZN11KMainWindow22saveMainWindowSettingsER12KConfigGroup
libKF5XmlGui.so.5:_ZN11KMainWindow7restoreEib
libKF5XmlGui.so.5:_ZN11KMainWindow7toolBarERK7QString
libKF5XmlGui.so.5:_ZN12KEditToolBar16newToolBarConfigEv
libKF5XmlGui.so.5:_ZN12KEditToolBar16staticMetaObjectE
libKF5XmlGui.so.5:_ZN12KEditToolBarC1EP14KXMLGUIFactoryP7QWidget
libKF5XmlGui.so.5:_ZN13KXMLGUIClient10setXMLFileERK7QStringbb
libKF5XmlGui.so.5:_ZN13KXMLGUIClient12stateChangedERK7QStringNS_18ReverseStateChangeE
libKF5XmlGui.so.5:_ZN13KXMLGUIClient12virtual_hookEiPv
libKF5XmlGui.so.5:_ZN13KXMLGUIClient14plugActionListERK7QStringRK5QListIP7QActionE
libKF5XmlGui.so.5:_ZN13KXMLGUIClient14setDOMDocumentERK12QDomDocumentb
libKF5XmlGui.so.5:_ZN13KXMLGUIClient15setLocalXMLFileERK7QString
libKF5XmlGui.so.5:_ZN13KXMLGUIClient16setComponentNameERK7QStringS2_
libKF5XmlGui.so.5:_ZN13KXMLGUIClient16unplugActionListERK7QString
libKF5XmlGui.so.5:_ZN13KXMLGUIClient6setXMLERK7QStringb
libKF5XmlGui.so.5:_ZN13KXMLGUIClientC2Ev
libKF5XmlGui.so.5:_ZN13KXMLGUIClientD2Ev
libKF5XmlGui.so.5:_ZN13KXmlGuiWindow10guiFactoryEv
libKF5XmlGui.so.5:_ZN13KXmlGuiWindow11finalizeGUIEP13KXMLGUIClient
libKF5XmlGui.so.5:_ZN13KXmlGuiWindow11qt_metacallEN11QMetaObject4CallEiPPv
libKF5XmlGui.so.5:_ZN13KXmlGuiWindow11qt_metacastEPKc
libKF5XmlGui.so.5:_ZN13KXmlGuiWindow16slotStateChangedERK7QString
libKF5XmlGui.so.5:_ZN13KXmlGuiWindow16staticMetaObjectE
libKF5XmlGui.so.5:_ZN13KXmlGuiWindow17configureToolbarsEv
libKF5XmlGui.so.5:_ZN13KXmlGuiWindow20saveNewToolbarConfigEv
libKF5XmlGui.so.5:_ZN13KXmlGuiWindow23applyMainWindowSettingsERK12KConfigGroup
libKF5XmlGui.so.5:_ZN13KXmlGuiWindow29createStandardStatusBarActionEv
libKF5XmlGui.so.5:_ZN13KXmlGuiWindow29setStandardToolBarMenuEnabledEb
libKF5XmlGui.so.5:_ZN13KXmlGuiWindow5eventEP6QEvent
libKF5XmlGui.so.5:_ZN13KXmlGuiWindow8setupGUIE6QFlagsINS_20StandardWindowOptionEERK7QString
libKF5XmlGui.so.5:_ZN13KXmlGuiWindow9createGUIERK7QString
libKF5XmlGui.so.5:_ZN13KXmlGuiWindowC2EP7QWidget6QFlagsIN2Qt10WindowTypeEE
libKF5XmlGui.so.5:_ZN13KXmlGuiWindowD2Ev
libKF5XmlGui.so.5:_ZN14KXMLGUIBuilder12virtual_hookEiPv
libKF5XmlGui.so.5:_ZN14KXMLGUIBuilder15createContainerEP7QWidgetiRK11QDomElementRP7QAction
libKF5XmlGui.so.5:_ZN14KXMLGUIBuilder15removeContainerEP7QWidgetS1_R11QDomElementP7QAction
libKF5XmlGui.so.5:_ZN14KXMLGUIBuilder19createCustomElementEP7QWidgetiRK11QDomElement
libKF5XmlGui.so.5:_ZN14KXMLGUIBuilder19removeCustomElementEP7QWidgetP7QAction
libKF5XmlGui.so.5:_ZN14KXMLGUIFactory18configureShortcutsEbb
libKF5XmlGui.so.5:_ZN16KShortcutsDialog9configureEP17KActionCollectionN16KShortcutsEditor15LetterShortcutsEP7QWidgetb
libKF5XmlGui.so.5:_ZN17KActionCollection12removeActionEP7QAction
libKF5XmlGui.so.5:_ZN17KActionCollection18setDefaultShortcutEP7QActionRK12QKeySequence
libKF5XmlGui.so.5:_ZN17KActionCollection19addAssociatedWidgetEP7QWidget
libKF5XmlGui.so.5:_ZN17KActionCollection19setDefaultShortcutsEP7QActionRK5QListI12QKeySequenceE
libKF5XmlGui.so.5:_ZN17KActionCollection24setShortcutsConfigurableEP7QActionb
libKF5XmlGui.so.5:_ZN17KActionCollection9addActionEN15KStandardAction14StandardActionERK7QStringPK7QObjectPKc
libKF5XmlGui.so.5:_ZN17KActionCollection9addActionERK7QStringP7QAction
libKF5XmlGui.so.5:_ZN17KActionCollection9addActionERK7QStringPK7QObjectPKc
libKF5XmlGui.so.5:_ZN18KKeySequenceWidget14setKeySequenceERK12QKeySequenceNS_10ValidationE
libKF5XmlGui.so.5:_ZN18KKeySequenceWidget16staticMetaObjectE
libKF5XmlGui.so.5:_ZN18KKeySequenceWidget18applyStealShortcutEv
libKF5XmlGui.so.5:_ZN18KKeySequenceWidget18keySequenceChangedERK12QKeySequence
libKF5XmlGui.so.5:_ZN18KKeySequenceWidget25setCheckActionCollectionsERK5QListIP17KActionCollectionE
libKF5XmlGui.so.5:_ZN18KKeySequenceWidgetC1EP7QWidget
libKF5XmlGui.so.5:_ZN9KHelpMenu4menuEv
libKF5XmlGui.so.5:_ZN9KHelpMenuC1EP7QWidgetRK10KAboutDatab
libKF5XmlGui.so.5:_ZNK11KMainWindow13settingsDirtyEv
libKF5XmlGui.so.5:_ZNK11KMainWindow16autoSaveSettingsEv
libKF5XmlGui.so.5:_ZNK13KXMLGUIClient11domDocumentEv
libKF5XmlGui.so.5:_ZNK13KXMLGUIClient12localXMLFileEv
libKF5XmlGui.so.5:_ZNK13KXMLGUIClient13componentNameEv
libKF5XmlGui.so.5:_ZNK13KXMLGUIClient16actionCollectionEv
libKF5XmlGui.so.5:_ZNK13KXMLGUIClient6actionERK11QDomElement
libKF5XmlGui.so.5:_ZNK13KXMLGUIClient7factoryEv
libKF5XmlGui.so.5:_ZNK13KXMLGUIClient7xmlFileEv
libKF5XmlGui.so.5:_ZNK13KXmlGuiWindow10metaObjectEv
libKF5XmlGui.so.5:_ZNK14KXMLGUIBuilder10customTagsEv
libKF5XmlGui.so.5:_ZNK14KXMLGUIBuilder13containerTagsEv
libKF5XmlGui.so.5:_ZNK14KXMLGUIFactory7clientsEv
libKF5XmlGui.so.5:_ZNK17KActionCollection13writeSettingsEP12KConfigGroupbP7QAction
libKF5XmlGui.so.5:_ZNK17KActionCollection6actionERK7QString
libKF5XmlGui.so.5:_ZNK17KActionCollection7actionsEv
libKF5XmlGui.so.5:_ZNK18KKeySequenceWidget11keySequenceEv
libKF5XmlGui.so.5:_ZNK9KHelpMenu6actionENS_6MenuIdE
libKF5XmlGui.so.5:_ZTI13KXMLGUIClient
libKF5XmlGui.so.5:_ZTI13KXmlGuiWindow
libKF5XmlGui.so.5:_ZThn56_N13KXmlGuiWindow11finalizeGUIEP13KXMLGUIClient
libKUserFeedbackCore.so.1:_ZN13KUserFeedback15QtVersionSourceC1Ev
libKUserFeedbackCore.so.1:_ZN13KUserFeedback15UsageTimeSourceC1Ev
libKUserFeedbackCore.so.1:_ZN13KUserFeedback16LocaleInfoSourceC1Ev
libKUserFeedbackCore.so.1:_ZN13KUserFeedback16ScreenInfoSourceC1Ev
libKUserFeedbackCore.so.1:_ZN13KUserFeedback16StartCountSourceC1Ev
libKUserFeedbackCore.so.1:_ZN13KUserFeedback18AbstractDataSource8loadImplEP9QSettings
libKUserFeedbackCore.so.1:_ZN13KUserFeedback18AbstractDataSource9resetImplEP9QSettings
libKUserFeedbackCore.so.1:_ZN13KUserFeedback18AbstractDataSource9storeImplEP9QSettings
libKUserFeedbackCore.so.1:_ZN13KUserFeedback18AbstractDataSourceC2ERK7QStringNS_8Provider13TelemetryModeE
libKUserFeedbackCore.so.1:_ZN13KUserFeedback18AbstractDataSourceD2Ev
libKUserFeedbackCore.so.1:_ZN13KUserFeedback18PlatformInfoSourceC1Ev
libKUserFeedbackCore.so.1:_ZN13KUserFeedback24ApplicationVersionSourceC1Ev
libKUserFeedbackCore.so.1:_ZN13KUserFeedback8Provider11qt_metacallEN11QMetaObject4CallEiPPv
libKUserFeedbackCore.so.1:_ZN13KUserFeedback8Provider11qt_metacastEPKc
libKUserFeedbackCore.so.1:_ZN13KUserFeedback8Provider13addDataSourceEPNS_18AbstractDataSourceE
libKUserFeedbackCore.so.1:_ZN13KUserFeedback8Provider16setTelemetryModeENS0_13TelemetryModeE
libKUserFeedbackCore.so.1:_ZN13KUserFeedback8Provider16staticMetaObjectE
libKUserFeedbackCore.so.1:_ZN13KUserFeedback8Provider17setFeedbackServerERK4QUrl
libKUserFeedbackCore.so.1:_ZN13KUserFeedback8Provider17setSurveyIntervalEi
libKUserFeedbackCore.so.1:_ZN13KUserFeedback8Provider20setProductIdentifierERK7QString
libKUserFeedbackCore.so.1:_ZN13KUserFeedback8Provider21setEncouragementDelayEi
libKUserFeedbackCore.so.1:_ZN13KUserFeedback8Provider21setSubmissionIntervalEi
libKUserFeedbackCore.so.1:_ZN13KUserFeedback8Provider38setApplicationStartsUntilEncouragementEi
libKUserFeedbackCore.so.1:_ZN13KUserFeedback8ProviderC2EP7QObject
libKUserFeedbackCore.so.1:_ZN13KUserFeedback8ProviderD2Ev
libKUserFeedbackCore.so.1:_ZNK13KUserFeedback8Provider19describeDataSourcesEv
libKUserFeedbackCore.so.1:_ZTIN13KUserFeedback18AbstractDataSourceE
libKUserFeedbackCore.so.1:_ZTIN13KUserFeedback8ProviderE
libKUserFeedbackWidgets.so.1:_ZN13KUserFeedback17NotificationPopup19setFeedbackProviderEPNS_8ProviderE
libKUserFeedbackWidgets.so.1:_ZN13KUserFeedback17NotificationPopupC1EP7QWidget
libKUserFeedbackWidgets.so.1:_ZN13KUserFeedback20FeedbackConfigWidget16staticMetaObjectE
libKUserFeedbackWidgets.so.1:_ZN13KUserFeedback20FeedbackConfigWidget19setFeedbackProviderEPNS_8ProviderE
libKUserFeedbackWidgets.so.1:_ZN13KUserFeedback20FeedbackConfigWidget20configurationChangedEv
libKUserFeedbackWidgets.so.1:_ZN13KUserFeedback20FeedbackConfigWidgetC1EP7QWidget
libKUserFeedbackWidgets.so.1:_ZNK13KUserFeedback20FeedbackConfigWidget13telemetryModeEv
libKUserFeedbackWidgets.so.1:_ZNK13KUserFeedback20FeedbackConfigWidget14surveyIntervalEv
libQt5Core.so.5:_Z20qt_qFindChild_helperPK7QObjectRK7QStringRK11QMetaObject6QFlagsIN2Qt15FindChildOptionEE
libQt5Core.so.5:_Z21qRegisterResourceDataiPKhS0_S0_
libQt5Core.so.5:_Z23qUnregisterResourceDataiPKhS0_S0_
libQt5Core.so.5:_Z23qt_qFindChildren_helperPK7QObjectRK7QStringRK11QMetaObjectP5QListIPvE6QFlagsIN2Qt15FindChildOptionEE
libQt5Core.so.5:_Z27qEnvironmentVariableIsEmptyPKc
libQt5Core.so.5:_Z5qHashRK10QByteArrayj
libQt5Core.so.5:_Z5qHashRK7QStringj
libQt5Core.so.5:_Z7qgetenvPKc
libQt5Core.so.5:_Z7qstrcmpRK10QByteArrayPKc
libQt5Core.so.5:_Z7qstrcmpRK10QByteArrayS1_
libQt5Core.so.5:_Z9qBadAllocv
libQt5Core.so.5:_Z9qunsetenvPKc
libQt5Core.so.5:_ZN10QArrayData10deallocateEPS_mm
libQt5Core.so.5:_ZN10QArrayData11shared_nullE
libQt5Core.so.5:_ZN10QArrayData8allocateEmmm6QFlagsINS_16AllocationOptionEE
libQt5Core.so.5:_ZN10QByteArray11fromRawDataEPKci
libQt5Core.so.5:_ZN10QByteArray11reallocDataEj6QFlagsIN10QArrayData16AllocationOptionEE
libQt5Core.so.5:_ZN10QByteArray14toLower_helperERKS_
libQt5Core.so.5:_ZN10QByteArray14toLower_helperERS_
libQt5Core.so.5:_ZN10QByteArray4fillEci
libQt5Core.so.5:_ZN10QByteArray6appendEPKc
libQt5Core.so.5:_ZN10QByteArray6appendEPKci
libQt5Core.so.5:_ZN10QByteArray6appendEc
libQt5Core.so.5:_ZN10QByteArray6insertEiRKS_
libQt5Core.so.5:_ZN10QByteArray6numberEji
libQt5Core.so.5:_ZN10QByteArray6resizeEi
libQt5Core.so.5:_ZN10QByteArrayC1EPKci
libQt5Core.so.5:_ZN10QByteArrayC1EiN2Qt14InitializationE
libQt5Core.so.5:_ZN10QByteArrayaSEPKc
libQt5Core.so.5:_ZN10QByteArrayaSERKS_
libQt5Core.so.5:_ZN10QTextCodec12codecForNameERK10QByteArray
libQt5Core.so.5:_ZN10QTextCodec14codecForLocaleEv
libQt5Core.so.5:_ZN11QDataStream11resetStatusEv
libQt5Core.so.5:_ZN11QDataStream12setByteOrderENS_9ByteOrderE
libQt5Core.so.5:_ZN11QDataStream9setDeviceEP9QIODevice
libQt5Core.so.5:_ZN11QDataStream9setStatusENS_6StatusE
libQt5Core.so.5:_ZN11QDataStreamC1EP10QByteArray6QFlagsIN9QIODevice12OpenModeFlagEE
libQt5Core.so.5:_ZN11QDataStreamC1EP9QIODevice
libQt5Core.so.5:_ZN11QDataStreamC1ERK10QByteArray
libQt5Core.so.5:_ZN11QDataStreamC1Ev
libQt5Core.so.5:_ZN11QDataStreamD1Ev
libQt5Core.so.5:_ZN11QDataStreamlsEb
libQt5Core.so.5:_ZN11QDataStreamlsEi
libQt5Core.so.5:_ZN11QDataStreamlsEx
libQt5Core.so.5:_ZN11QDataStreamrsERb
libQt5Core.so.5:_ZN11QDataStreamrsERi
libQt5Core.so.5:_ZN11QDataStreamrsERs
libQt5Core.so.5:_ZN11QDataStreamrsERx
libQt5Core.so.5:_ZN11QFileDevice5closeEv
libQt5Core.so.5:_ZN11QFileDevice5flushEv
libQt5Core.so.5:_ZN11QMetaObject10ConnectionC1Ev
libQt5Core.so.5:_ZN11QMetaObject10ConnectionD1Ev
libQt5Core.so.5:_ZN11QMetaObject12invokeMethodEP7QObjectPKcN2Qt14ConnectionTypeE22QGenericReturnArgument16QGenericArgumentS7_S7_S7_S7_S7_S7_S7_S7_S7_
libQt5Core.so.5:_ZN11QMetaObject14normalizedTypeEPKc
libQt5Core.so.5:_ZN11QMetaObject16invokeMethodImplEP7QObjectPN9QtPrivate15QSlotObjectBaseEN2Qt14ConnectionTypeEPv
libQt5Core.so.5:_ZN11QMetaObject18connectSlotsByNameEP7QObject
libQt5Core.so.5:_ZN11QMetaObject8activateEP7QObjectPKS_iPPv
libQt5Core.so.5:_ZN11QTextStreamC1EP8_IO_FILE6QFlagsIN9QIODevice12OpenModeFlagEE
libQt5Core.so.5:_ZN11QTextStreamC1EP9QIODevice
libQt5Core.so.5:_ZN11QTextStreamD1Ev
libQt5Core.so.5:_ZN11QTextStreamlsEPKc
libQt5Core.so.5:_ZN11QTextStreamlsEPKv
libQt5Core.so.5:_ZN11QTextStreamlsERK7QString
libQt5Core.so.5:_ZN11QTextStreamlsEc
libQt5Core.so.5:_ZN11QTextStreamlsEi
libQt5Core.so.5:_ZN11QTextStreamlsEj
libQt5Core.so.5:_ZN11QTextStreamlsEm
libQt5Core.so.5:_ZN11QTextStreamlsEs
libQt5Core.so.5:_ZN11QTextStreamlsEx
libQt5Core.so.5:_ZN12QMapDataBase10createDataEv
libQt5Core.so.5:_ZN12QMapDataBase10createNodeEiiP12QMapNodeBaseb
libQt5Core.so.5:_ZN12QMapDataBase11shared_nullE
libQt5Core.so.5:_ZN12QMapDataBase18recalcMostLeftNodeEv
libQt5Core.so.5:_ZN12QMapDataBase20freeNodeAndRebalanceEP12QMapNodeBase
libQt5Core.so.5:_ZN12QMapDataBase8freeDataEPS_
libQt5Core.so.5:_ZN12QMapDataBase8freeTreeEP12QMapNodeBasei
libQt5Core.so.5:_ZN13QMimeDatabaseC1Ev
libQt5Core.so.5:_ZN13QMimeDatabaseD1Ev
libQt5Core.so.5:_ZN13QTemporaryDirC1ERK7QString
libQt5Core.so.5:_ZN13QTemporaryDirD1Ev
libQt5Core.so.5:_ZN14QStandardPaths14findExecutableERK7QStringRK11QStringList
libQt5Core.so.5:_ZN14QStandardPaths16writableLocationENS_16StandardLocationE
libQt5Core.so.5:_ZN14QStandardPaths6locateENS_16StandardLocationERK7QString6QFlagsINS_12LocateOptionEE
libQt5Core.so.5:_ZN14QTemporaryFile13setAutoRemoveEb
libQt5Core.so.5:_ZN14QTemporaryFile4openE6QFlagsIN9QIODevice12OpenModeFlagEE
libQt5Core.so.5:_ZN14QTemporaryFileC1ERK7QString
libQt5Core.so.5:_ZN14QTemporaryFileD1Ev
libQt5Core.so.5:_ZN15QtSharedPointer20ExternalRefCountData16setQObjectSharedEPK7QObjectb
libQt5Core.so.5:_ZN15QtSharedPointer20ExternalRefCountData9getAndRefEPK7QObject
libQt5Core.so.5:_ZN16QCoreApplication12setAttributeEN2Qt20ApplicationAttributeEb
libQt5Core.so.5:_ZN16QCoreApplication13processEventsE6QFlagsIN10QEventLoop17ProcessEventsFlagEE
libQt5Core.so.5:_ZN16QCoreApplication13processEventsE6QFlagsIN10QEventLoop17ProcessEventsFlagEEi
libQt5Core.so.5:_ZN16QCoreApplication21setOrganizationDomainERK7QString
libQt5Core.so.5:_ZN16QCoreApplication4selfE
libQt5Core.so.5:_ZN16QCoreApplication9argumentsEv
libQt5Core.so.5:_ZN16QLoggingCategoryC1EPKc9QtMsgType
libQt5Core.so.5:_ZN16QLoggingCategoryD1Ev
libQt5Core.so.5:_ZN18QAbstractItemModel10insertRowsEiiRK11QModelIndex
libQt5Core.so.5:_ZN18QAbstractItemModel10modelResetENS_14QPrivateSignalE
libQt5Core.so.5:_ZN18QAbstractItemModel10removeRowsEiiRK11QModelIndex
libQt5Core.so.5:_ZN18QAbstractItemModel11dataChangedERK11QModelIndexS2_RK7QVectorIiE
libQt5Core.so.5:_ZN18QAbstractItemModel11moveColumnsERK11QModelIndexiiS2_i
libQt5Core.so.5:_ZN18QAbstractItemModel11rowsRemovedERK11QModelIndexiiNS_14QPrivateSignalE
libQt5Core.so.5:_ZN18QAbstractItemModel11setItemDataERK11QModelIndexRK4QMapIi8QVariantE
libQt5Core.so.5:_ZN18QAbstractItemModel12dropMimeDataEPK9QMimeDataN2Qt10DropActionEiiRK11QModelIndex
libQt5Core.so.5:_ZN18QAbstractItemModel12rowsInsertedERK11QModelIndexiiNS_14QPrivateSignalE
libQt5Core.so.5:_ZN18QAbstractItemModel13insertColumnsEiiRK11QModelIndex
libQt5Core.so.5:_ZN18QAbstractItemModel13removeColumnsEiiRK11QModelIndex
libQt5Core.so.5:_ZN18QAbstractItemModel13setHeaderDataEiN2Qt11OrientationERK8QVarianti
libQt5Core.so.5:_ZN18QAbstractItemModel16staticMetaObjectE
libQt5Core.so.5:_ZN18QAbstractItemModel4sortEiN2Qt9SortOrderE
libQt5Core.so.5:_ZN18QAbstractItemModel6revertEv
libQt5Core.so.5:_ZN18QAbstractItemModel6submitEv
libQt5Core.so.5:_ZN18QAbstractItemModel7setDataERK11QModelIndexRK8QVarianti
libQt5Core.so.5:_ZN18QAbstractItemModel8moveRowsERK11QModelIndexiiS2_i
libQt5Core.so.5:_ZN18QAbstractItemModel9fetchMoreERK11QModelIndex
libQt5Core.so.5:_ZN18QAbstractItemModel9rowsMovedERK11QModelIndexiiS2_iNS_14QPrivateSignalE
libQt5Core.so.5:_ZN18QCommandLineOptionC1ERK11QStringListRK7QStringS5_S5_
libQt5Core.so.5:_ZN18QCommandLineOptionC1ERK7QStringS2_S2_S2_
libQt5Core.so.5:_ZN18QCommandLineOptionC1ERKS_
libQt5Core.so.5:_ZN18QCommandLineOptionD1Ev
libQt5Core.so.5:_ZN18QCommandLineParser10addOptionsERK5QListI18QCommandLineOptionE
libQt5Core.so.5:_ZN18QCommandLineParser21addPositionalArgumentERK7QStringS2_S2_
libQt5Core.so.5:_ZN18QCommandLineParser25setApplicationDescriptionERK7QString
libQt5Core.so.5:_ZN18QCommandLineParser7processERK11QStringList
libQt5Core.so.5:_ZN18QCommandLineParser7processERK16QCoreApplication
libQt5Core.so.5:_ZN18QCommandLineParser9addOptionERK18QCommandLineOption
libQt5Core.so.5:_ZN18QCommandLineParserC1Ev
libQt5Core.so.5:_ZN18QCommandLineParserD1Ev
libQt5Core.so.5:_ZN18QCryptographicHash7addDataERK10QByteArray
libQt5Core.so.5:_ZN18QCryptographicHashC1ENS_9AlgorithmE
libQt5Core.so.5:_ZN18QCryptographicHashD1Ev
libQt5Core.so.5:_ZN18QRegularExpressionC1ERK7QString6QFlagsINS_13PatternOptionEE
libQt5Core.so.5:_ZN18QRegularExpressionD1Ev
libQt5Core.so.5:_ZN19QAbstractProxyModel11setItemDataERK11QModelIndexRK4QMapIi8QVariantE
libQt5Core.so.5:_ZN19QAbstractProxyModel6revertEv
libQt5Core.so.5:_ZN19QAbstractProxyModel6submitEv
libQt5Core.so.5:_ZN19QItemSelectionModel14clearSelectionEv
libQt5Core.so.5:_ZN19QItemSelectionModel16selectionChangedERK14QItemSelectionS2_
libQt5Core.so.5:_ZN19QItemSelectionModel16staticMetaObjectE
libQt5Core.so.5:_ZN19QItemSelectionModel5modelEv
libQt5Core.so.5:_ZN19QItemSelectionModelC1EP18QAbstractItemModel
libQt5Core.so.5:_ZN19QSequentialIterable14const_iteratorD1Ev
libQt5Core.so.5:_ZN19QSequentialIterable14const_iteratorppEv
libQt5Core.so.5:_ZN19QSequentialIterableC1EN17QtMetaTypePrivate23QSequentialIterableImplE
libQt5Core.so.5:_ZN21QAbstractConcatenable14appendLatin1ToEPKciP5QChar
libQt5Core.so.5:_ZN21QSortFilterProxyModel10insertRowsEiiRK11QModelIndex
libQt5Core.so.5:_ZN21QSortFilterProxyModel10removeRowsEiiRK11QModelIndex
libQt5Core.so.5:_ZN21QSortFilterProxyModel11qt_metacallEN11QMetaObject4CallEiPPv
libQt5Core.so.5:_ZN21QSortFilterProxyModel11qt_metacastEPKc
libQt5Core.so.5:_ZN21QSortFilterProxyModel11setSortRoleEi
libQt5Core.so.5:_ZN21QSortFilterProxyModel12dropMimeDataEPK9QMimeDataN2Qt10DropActionEiiRK11QModelIndex
libQt5Core.so.5:_ZN21QSortFilterProxyModel13insertColumnsEiiRK11QModelIndex
libQt5Core.so.5:_ZN21QSortFilterProxyModel13removeColumnsEiiRK11QModelIndex
libQt5Core.so.5:_ZN21QSortFilterProxyModel13setHeaderDataEiN2Qt11OrientationERK8QVarianti
libQt5Core.so.5:_ZN21QSortFilterProxyModel14setSourceModelEP18QAbstractItemModel
libQt5Core.so.5:_ZN21QSortFilterProxyModel16staticMetaObjectE
libQt5Core.so.5:_ZN21QSortFilterProxyModel20setDynamicSortFilterEb
libQt5Core.so.5:_ZN21QSortFilterProxyModel22setSortCaseSensitivityEN2Qt15CaseSensitivityE
libQt5Core.so.5:_ZN21QSortFilterProxyModel24setFilterCaseSensitivityEN2Qt15CaseSensitivityE
libQt5Core.so.5:_ZN21QSortFilterProxyModel4sortEiN2Qt9SortOrderE
libQt5Core.so.5:_ZN21QSortFilterProxyModel7setDataERK11QModelIndexRK8QVarianti
libQt5Core.so.5:_ZN21QSortFilterProxyModel9fetchMoreERK11QModelIndex
libQt5Core.so.5:_ZN21QSortFilterProxyModelC1EP7QObject
libQt5Core.so.5:_ZN21QSortFilterProxyModelC2EP7QObject
libQt5Core.so.5:_ZN21QSortFilterProxyModelD2Ev
libQt5Core.so.5:_ZN4QDir11currentPathEv
libQt5Core.so.5:_ZN4QDir17removeRecursivelyEv
libQt5Core.so.5:_ZN4QDir2cdERK7QString
libQt5Core.so.5:_ZN4QDir8homePathEv
libQt5Core.so.5:_ZN4QDir8tempPathEv
libQt5Core.so.5:_ZN4QDirC1ERK7QString
libQt5Core.so.5:_ZN4QDirD1Ev
libQt5Core.so.5:_ZN4QUrl12toStringListERK5QListIS_E12QUrlTwoFlagsINS_19UrlFormattingOptionENS_25ComponentFormattingOptionEE
libQt5Core.so.5:_ZN4QUrl13fromLocalFileERK7QString
libQt5Core.so.5:_ZN4QUrl13fromUserInputERK7QString
libQt5Core.so.5:_ZN4QUrl13fromUserInputERK7QStringS2_6QFlagsINS_25UserInputResolutionOptionEE
libQt5Core.so.5:_ZN4QUrl14fromStringListERK11QStringListNS_11ParsingModeE
libQt5Core.so.5:_ZN4QUrl19fromPercentEncodingERK10QByteArray
libQt5Core.so.5:_ZN4QUrl7setPathERK7QStringNS_11ParsingModeE
libQt5Core.so.5:_ZN4QUrlC1ERK7QStringNS_11ParsingModeE
libQt5Core.so.5:_ZN4QUrlC1ERKS_
libQt5Core.so.5:_ZN4QUrlC1Ev
libQt5Core.so.5:_ZN4QUrlD1Ev
libQt5Core.so.5:_ZN4QUrlaSERKS_
libQt5Core.so.5:_ZN5QDate10fromStringERK7QStringN2Qt10DateFormatE
libQt5Core.so.5:_ZN5QDate11currentDateEv
libQt5Core.so.5:_ZN5QFile4copyERK7QStringS2_
libQt5Core.so.5:_ZN5QFile4openE6QFlagsIN9QIODevice12OpenModeFlagEE
libQt5Core.so.5:_ZN5QFile6existsERK7QString
libQt5Core.so.5:_ZN5QFile6removeERK7QString
libQt5Core.so.5:_ZN5QFile6removeEv
libQt5Core.so.5:_ZN5QFileC1ERK7QString
libQt5Core.so.5:_ZN5QFileD1Ev
libQt5Core.so.5:_ZN6QDebug12putByteArrayEPKcmNS_13Latin1ContentE
libQt5Core.so.5:_ZN6QDebug9putStringEPK5QCharm
libQt5Core.so.5:_ZN6QDebugD1Ev
libQt5Core.so.5:_ZN6QTimer11setIntervalEi
libQt5Core.so.5:_ZN6QTimer14singleShotImplEiN2Qt9TimerTypeEPK7QObjectPN9QtPrivate15QSlotObjectBaseE
libQt5Core.so.5:_ZN6QTimer16staticMetaObjectE
libQt5Core.so.5:_ZN6QTimer4stopEv
libQt5Core.so.5:_ZN6QTimer5startEi
libQt5Core.so.5:_ZN6QTimer5startEv
libQt5Core.so.5:_ZN6QTimer7timeoutENS_14QPrivateSignalE
libQt5Core.so.5:_ZN6QTimerC1EP7QObject
libQt5Core.so.5:_ZN6QTimerD1Ev
libQt5Core.so.5:_ZN7QBuffer4openE6QFlagsIN9QIODevice12OpenModeFlagEE
libQt5Core.so.5:_ZN7QBuffer5closeEv
libQt5Core.so.5:_ZN7QBufferC1EP10QByteArrayP7QObject
libQt5Core.so.5:_ZN7QBufferD1Ev
libQt5Core.so.5:_ZN7QLocaleC1Ev
libQt5Core.so.5:_ZN7QLocaleD1Ev
libQt5Core.so.5:_ZN7QLocaleaSERKS_
libQt5Core.so.5:_ZN7QObject10childEventEP11QChildEvent
libQt5Core.so.5:_ZN7QObject10disconnectEPKS_PKcS1_S3_
libQt5Core.so.5:_ZN7QObject10disconnectERKN11QMetaObject10ConnectionE
libQt5Core.so.5:_ZN7QObject10timerEventEP11QTimerEvent
libQt5Core.so.5:_ZN7QObject11connectImplEPKS_PPvS1_S3_PN9QtPrivate15QSlotObjectBaseEN2Qt14ConnectionTypeEPKiPK11QMetaObject
libQt5Core.so.5:_ZN7QObject11customEventEP6QEvent
libQt5Core.so.5:_ZN7QObject11deleteLaterEv
libQt5Core.so.5:_ZN7QObject11eventFilterEPS_P6QEvent
libQt5Core.so.5:_ZN7QObject11qt_metacallEN11QMetaObject4CallEiPPv
libQt5Core.so.5:_ZN7QObject11qt_metacastEPKc
libQt5Core.so.5:_ZN7QObject11setPropertyEPKcRK8QVariant
libQt5Core.so.5:_ZN7QObject12blockSignalsEb
libQt5Core.so.5:_ZN7QObject13connectNotifyERK11QMetaMethod
libQt5Core.so.5:_ZN7QObject13setObjectNameERK7QString
libQt5Core.so.5:_ZN7QObject14disconnectImplEPKS_PPvS1_S3_PK11QMetaObject
libQt5Core.so.5:_ZN7QObject16disconnectNotifyERK11QMetaMethod
libQt5Core.so.5:_ZN7QObject16staticMetaObjectE
libQt5Core.so.5:_ZN7QObject18installEventFilterEPS_
libQt5Core.so.5:_ZN7QObject18staticQtMetaObjectE
libQt5Core.so.5:_ZN7QObject5eventEP6QEvent
libQt5Core.so.5:_ZN7QObject7connectEPKS_PKcS1_S3_N2Qt14ConnectionTypeE
libQt5Core.so.5:_ZN7QObject9destroyedEPS_
libQt5Core.so.5:_ZN7QObject9setParentEPS_
libQt5Core.so.5:_ZN7QObjectC2EPS_
libQt5Core.so.5:_ZN7QObjectD2Ev
libQt5Core.so.5:_ZN7QString11reallocDataEjb
libQt5Core.so.5:_ZN7QString13toUtf8_helperERKS_
libQt5Core.so.5:_ZN7QString14toLower_helperERKS_
libQt5Core.so.5:_ZN7QString14toLower_helperERS_
libQt5Core.so.5:_ZN7QString14toUpper_helperERS_
libQt5Core.so.5:_ZN7QString14trimmed_helperERKS_
libQt5Core.so.5:_ZN7QString14trimmed_helperERS_
libQt5Core.so.5:_ZN7QString15fromUtf8_helperEPKci
libQt5Core.so.5:_ZN7QString15toLatin1_helperERKS_
libQt5Core.so.5:_ZN7QString17fromLatin1_helperEPKci
libQt5Core.so.5:_ZN7QString18toLocal8Bit_helperEPK5QChari
libQt5Core.so.5:_ZN7QString20fromLocal8Bit_helperEPKci
libQt5Core.so.5:_ZN7QString23toLatin1_helper_inplaceERS_
libQt5Core.so.5:_ZN7QString4chopEi
libQt5Core.so.5:_ZN7QString6appendE13QLatin1String
libQt5Core.so.5:_ZN7QString6appendE5QChar
libQt5Core.so.5:_ZN7QString6appendERKS_
libQt5Core.so.5:_ZN7QString6insertEiPK5QChari
libQt5Core.so.5:_ZN7QString6numberEii
libQt5Core.so.5:_ZN7QString6numberExi
libQt5Core.so.5:_ZN7QString6numberEyi
libQt5Core.so.5:_ZN7QString6removeERKS_N2Qt15CaseSensitivityE
libQt5Core.so.5:_ZN7QString6removeEii
libQt5Core.so.5:_ZN7QString6resizeEi
libQt5Core.so.5:_ZN7QString6setNumExi
libQt5Core.so.5:_ZN7QString7replaceE5QCharRKS_N2Qt15CaseSensitivityE
libQt5Core.so.5:_ZN7QString7replaceE5QCharS0_N2Qt15CaseSensitivityE
libQt5Core.so.5:_ZN7QString8truncateEi
libQt5Core.so.5:_ZN7QStringC1EiN2Qt14InitializationE
libQt5Core.so.5:_ZN7QStringaSERKS_
libQt5Core.so.5:_ZN8QProcess13startDetachedERK7QStringRK11QStringList
libQt5Core.so.5:_ZN8QVariantC1E13QLatin1String
libQt5Core.so.5:_ZN8QVariantC1ERK4QMapI7QStringS_E
libQt5Core.so.5:_ZN8QVariantC1ERK4QUrl
libQt5Core.so.5:_ZN8QVariantC1ERK5QListIS_E
libQt5Core.so.5:_ZN8QVariantC1ERK6QPoint
libQt5Core.so.5:_ZN8QVariantC1ERK7QString
libQt5Core.so.5:_ZN8QVariantC1ERKS_
libQt5Core.so.5:_ZN8QVariantC1Eb
libQt5Core.so.5:_ZN8QVariantC1Ei
libQt5Core.so.5:_ZN8QVariantC1EiPKv
libQt5Core.so.5:_ZN8QVariantC1EiPKvj
libQt5Core.so.5:_ZN8QVariantC1Ej
libQt5Core.so.5:_ZN8QVariantC1Ex
libQt5Core.so.5:_ZN8QVariantD1Ev
libQt5Core.so.5:_ZN8QVariantaSERKS_
libQt5Core.so.5:_ZN9QDateTime10fromStringERK7QStringN2Qt10DateFormatE
libQt5Core.so.5:_ZN9QDateTime15currentDateTimeEv
libQt5Core.so.5:_ZN9QDateTime18fromSecsSinceEpochExN2Qt8TimeSpecEi
libQt5Core.so.5:_ZN9QDateTimeC1EOS_
libQt5Core.so.5:_ZN9QDateTimeC1ERKS_
libQt5Core.so.5:_ZN9QDateTimeC1Ev
libQt5Core.so.5:_ZN9QDateTimeD1Ev
libQt5Core.so.5:_ZN9QFileInfo6existsERK7QString
libQt5Core.so.5:_ZN9QFileInfoC1ERK7QString
libQt5Core.so.5:_ZN9QFileInfoD1Ev
libQt5Core.so.5:_ZN9QHashData11free_helperEPFvPNS_4NodeEE
libQt5Core.so.5:_ZN9QHashData11shared_nullE
libQt5Core.so.5:_ZN9QHashData12allocateNodeEi
libQt5Core.so.5:_ZN9QHashData13detach_helperEPFvPNS_4NodeEPvEPFvS1_Eii
libQt5Core.so.5:_ZN9QHashData6rehashEi
libQt5Core.so.5:_ZN9QHashData8freeNodeEPv
libQt5Core.so.5:_ZN9QHashData8nextNodeEPNS_4NodeE
libQt5Core.so.5:_ZN9QIODevice5writeEPKcx
libQt5Core.so.5:_ZN9QIODevice7readAllEv
libQt5Core.so.5:_ZN9QListData11detach_growEPii
libQt5Core.so.5:_ZN9QListData11shared_nullE
libQt5Core.so.5:_ZN9QListData5eraseEPPv
libQt5Core.so.5:_ZN9QListData6appendERKS_
libQt5Core.so.5:_ZN9QListData6appendEv
libQt5Core.so.5:_ZN9QListData6detachEi
libQt5Core.so.5:_ZN9QListData6insertEi
libQt5Core.so.5:_ZN9QListData6removeEi
libQt5Core.so.5:_ZN9QListData7disposeEPNS_4DataE
libQt5Core.so.5:_ZN9QListData7prependEv
libQt5Core.so.5:_ZN9QListData7reallocEi
libQt5Core.so.5:_ZN9QMetaType22registerNormalizedTypeERK10QByteArrayPFvPvEPFS3_S3_PKvEi6QFlagsINS_8TypeFlagEEPK11QMetaObject
libQt5Core.so.5:_ZN9QMetaType25registerConverterFunctionEPKN9QtPrivate25AbstractConverterFunctionEii
libQt5Core.so.5:_ZN9QMetaType25registerNormalizedTypedefERK10QByteArrayi
libQt5Core.so.5:_ZN9QMetaType27unregisterConverterFunctionEii
libQt5Core.so.5:_ZN9QMetaType30hasRegisteredConverterFunctionEii
libQt5Core.so.5:_ZN9QMetaType8typeNameEi
libQt5Core.so.5:_ZN9QMetaType9typeFlagsEi
libQt5Core.so.5:_ZN9QMimeData7setUrlsERK5QListI4QUrlE
libQt5Core.so.5:_ZN9QMimeDataC1Ev
libQt5Core.so.5:_ZN9QMimeTypeD1Ev
libQt5Core.so.5:_ZN9QSettingsC1EP7QObject
libQt5Core.so.5:_ZN9QSettingsD1Ev
libQt5Core.so.5:_ZN9QTimeZone3utcEv
libQt5Core.so.5:_ZN9QTimeZoneD1Ev
libQt5Core.so.5:_ZN9QUrlQueryC1ERK4QUrl
libQt5Core.so.5:_ZN9QUrlQueryD1Ev
libQt5Core.so.5:_ZN9QtPrivate12argToQStringE11QStringViewmPPKNS_7ArgBaseE
libQt5Core.so.5:_ZN9QtPrivate16QStringList_joinEPK11QStringListPK5QChari
libQt5Core.so.5:_ZN9QtPrivate16QStringList_joinERK11QStringList13QLatin1String
libQt5Core.so.5:_ZN9QtPrivate18QStringList_filterEPK11QStringListRK18QRegularExpression
libQt5Core.so.5:_ZN9QtPrivate20QStringList_containsEPK11QStringList13QLatin1StringN2Qt15CaseSensitivityE
libQt5Core.so.5:_ZN9QtPrivate20QStringList_containsEPK11QStringListRK7QStringN2Qt15CaseSensitivityE
libQt5Core.so.5:_ZNK10QByteArray3midEii
libQt5Core.so.5:_ZNK10QByteArray6isNullEv
libQt5Core.so.5:_ZNK10QByteArray7indexOfEPKci
libQt5Core.so.5:_ZNK10QByteArray8endsWithEc
libQt5Core.so.5:_ZNK10QByteArray8toBase64Ev
libQt5Core.so.5:_ZNK10QStringRef5toIntEPbi
libQt5Core.so.5:_ZNK11QDataStream5atEndEv
libQt5Core.so.5:_ZNK11QDataStream6statusEv
libQt5Core.so.5:_ZNK11QMetaObject13indexOfMethodEPKc
libQt5Core.so.5:_ZNK11QMetaObject4castEP7QObject
libQt5Core.so.5:_ZNK11QMetaObject9classNameEv
libQt5Core.so.5:_ZNK11QObjectData17dynamicMetaObjectEv
libQt5Core.so.5:_ZNK12QMapNodeBase8nextNodeEv
libQt5Core.so.5:_ZNK13QMimeDatabase14mimeTypeForUrlERK4QUrl
libQt5Core.so.5:_ZNK13QMimeDatabase15mimeTypeForFileERK7QStringNS_9MatchModeE
libQt5Core.so.5:_ZNK13QMimeDatabase15mimeTypeForNameERK7QString
libQt5Core.so.5:_ZNK13QMimeDatabase17suffixForFileNameERK7QString
libQt5Core.so.5:_ZNK13QTemporaryDir4pathEv
libQt5Core.so.5:_ZNK14QMessageLogger5debugEv
libQt5Core.so.5:_ZNK14QMessageLogger7warningEv
libQt5Core.so.5:_ZNK14QMessageLogger8criticalEv
libQt5Core.so.5:_ZNK14QTemporaryFile8fileNameEv
libQt5Core.so.5:_ZNK18QAbstractItemModel10headerDataEiN2Qt11OrientationEi
libQt5Core.so.5:_ZNK18QAbstractItemModel11hasChildrenERK11QModelIndex
libQt5Core.so.5:_ZNK18QAbstractItemModel12canFetchMoreERK11QModelIndex
libQt5Core.so.5:_ZNK18QAbstractItemModel15canDropMimeDataEPK9QMimeDataN2Qt10DropActionEiiRK11QModelIndex
libQt5Core.so.5:_ZNK18QAbstractItemModel20supportedDragActionsEv
libQt5Core.so.5:_ZNK18QAbstractItemModel20supportedDropActionsEv
libQt5Core.so.5:_ZNK18QAbstractItemModel4spanERK11QModelIndex
libQt5Core.so.5:_ZNK18QAbstractItemModel5buddyERK11QModelIndex
libQt5Core.so.5:_ZNK18QAbstractItemModel5flagsERK11QModelIndex
libQt5Core.so.5:_ZNK18QAbstractItemModel5matchERK11QModelIndexiRK8QVarianti6QFlagsIN2Qt9MatchFlagEE
libQt5Core.so.5:_ZNK18QAbstractItemModel7siblingEiiRK11QModelIndex
libQt5Core.so.5:_ZNK18QAbstractItemModel8hasIndexEiiRK11QModelIndex
libQt5Core.so.5:_ZNK18QAbstractItemModel8itemDataERK11QModelIndex
libQt5Core.so.5:_ZNK18QAbstractItemModel8mimeDataERK5QListI11QModelIndexE
libQt5Core.so.5:_ZNK18QAbstractItemModel9mimeTypesEv
libQt5Core.so.5:_ZNK18QAbstractItemModel9roleNamesEv
libQt5Core.so.5:_ZNK18QCommandLineParser19positionalArgumentsEv
libQt5Core.so.5:_ZNK18QCommandLineParser5isSetERK7QString
libQt5Core.so.5:_ZNK18QCommandLineParser5valueERK7QString
libQt5Core.so.5:_ZNK18QCommandLineParser6valuesERK7QString
libQt5Core.so.5:_ZNK18QCryptographicHash6resultEv
libQt5Core.so.5:_ZNK19QAbstractProxyModel11sourceModelEv
libQt5Core.so.5:_ZNK19QAbstractProxyModel15canDropMimeDataEPK9QMimeDataN2Qt10DropActionEiiRK11QModelIndex
libQt5Core.so.5:_ZNK19QAbstractProxyModel20supportedDragActionsEv
libQt5Core.so.5:_ZNK19QAbstractProxyModel8itemDataERK11QModelIndex
libQt5Core.so.5:_ZNK19QItemSelectionModel12currentIndexEv
libQt5Core.so.5:_ZNK19QItemSelectionModel12hasSelectionEv
libQt5Core.so.5:_ZNK19QItemSelectionModel12selectedRowsEi
libQt5Core.so.5:_ZNK19QItemSelectionModel15selectedIndexesEv
libQt5Core.so.5:_ZNK19QSequentialIterable14const_iteratordeEv
libQt5Core.so.5:_ZNK19QSequentialIterable14const_iteratorneERKS0_
libQt5Core.so.5:_ZNK19QSequentialIterable3endEv
libQt5Core.so.5:_ZNK19QSequentialIterable4sizeEv
libQt5Core.so.5:_ZNK19QSequentialIterable5beginEv
libQt5Core.so.5:_ZNK21QSortFilterProxyModel10headerDataEiN2Qt11OrientationEi
libQt5Core.so.5:_ZNK21QSortFilterProxyModel10metaObjectEv
libQt5Core.so.5:_ZNK21QSortFilterProxyModel11columnCountERK11QModelIndex
libQt5Core.so.5:_ZNK21QSortFilterProxyModel11hasChildrenERK11QModelIndex
libQt5Core.so.5:_ZNK21QSortFilterProxyModel11mapToSourceERK11QModelIndex
libQt5Core.so.5:_ZNK21QSortFilterProxyModel12canFetchMoreERK11QModelIndex
libQt5Core.so.5:_ZNK21QSortFilterProxyModel13mapFromSourceERK11QModelIndex
libQt5Core.so.5:_ZNK21QSortFilterProxyModel19filterAcceptsColumnEiRK11QModelIndex
libQt5Core.so.5:_ZNK21QSortFilterProxyModel20mapSelectionToSourceERK14QItemSelection
libQt5Core.so.5:_ZNK21QSortFilterProxyModel20supportedDropActionsEv
libQt5Core.so.5:_ZNK21QSortFilterProxyModel22mapSelectionFromSourceERK14QItemSelection
libQt5Core.so.5:_ZNK21QSortFilterProxyModel4dataERK11QModelIndexi
libQt5Core.so.5:_ZNK21QSortFilterProxyModel4spanERK11QModelIndex
libQt5Core.so.5:_ZNK21QSortFilterProxyModel5buddyERK11QModelIndex
libQt5Core.so.5:_ZNK21QSortFilterProxyModel5flagsERK11QModelIndex
libQt5Core.so.5:_ZNK21QSortFilterProxyModel5indexEiiRK11QModelIndex
libQt5Core.so.5:_ZNK21QSortFilterProxyModel5matchERK11QModelIndexiRK8QVarianti6QFlagsIN2Qt9MatchFlagEE
libQt5Core.so.5:_ZNK21QSortFilterProxyModel6parentERK11QModelIndex
libQt5Core.so.5:_ZNK21QSortFilterProxyModel7siblingEiiRK11QModelIndex
libQt5Core.so.5:_ZNK21QSortFilterProxyModel8lessThanERK11QModelIndexS2_
libQt5Core.so.5:_ZNK21QSortFilterProxyModel8mimeDataERK5QListI11QModelIndexE
libQt5Core.so.5:_ZNK21QSortFilterProxyModel8rowCountERK11QModelIndex
libQt5Core.so.5:_ZNK21QSortFilterProxyModel9mimeTypesEv
libQt5Core.so.5:_ZNK4QDir13entryInfoListE6QFlagsINS_6FilterEES0_INS_8SortFlagEE
libQt5Core.so.5:_ZNK4QDir4pathEv
libQt5Core.so.5:_ZNK4QDir6existsERK7QString
libQt5Core.so.5:_ZNK4QDir6existsEv
libQt5Core.so.5:_ZNK4QDir6mkpathERK7QString
libQt5Core.so.5:_ZNK4QDir9entryListE6QFlagsINS_6FilterEES0_INS_8SortFlagEE
libQt5Core.so.5:_ZNK4QDir9entryListERK11QStringList6QFlagsINS_6FilterEES3_INS_8SortFlagEE
libQt5Core.so.5:_ZNK4QUrl11isLocalFileEv
libQt5Core.so.5:_ZNK4QUrl11toLocalFileEv
libQt5Core.so.5:_ZNK4QUrl15toDisplayStringE12QUrlTwoFlagsINS_19UrlFormattingOptionENS_25ComponentFormattingOptionEE
libQt5Core.so.5:_ZNK4QUrl3urlE12QUrlTwoFlagsINS_19UrlFormattingOptionENS_25ComponentFormattingOptionEE
libQt5Core.so.5:_ZNK4QUrl4pathE6QFlagsINS_25ComponentFormattingOptionEE
libQt5Core.so.5:_ZNK4QUrl6schemeEv
libQt5Core.so.5:_ZNK4QUrl7isEmptyEv
libQt5Core.so.5:_ZNK4QUrl7isValidEv
libQt5Core.so.5:_ZNK4QUrl8fileNameE6QFlagsINS_25ComponentFormattingOptionEE
libQt5Core.so.5:_ZNK4QUrleqERKS_
libQt5Core.so.5:_ZNK5QDate4yearEv
libQt5Core.so.5:_ZNK5QDate5monthEv
libQt5Core.so.5:_ZNK5QDate6daysToERKS_
libQt5Core.so.5:_ZNK5QDate7addDaysEx
libQt5Core.so.5:_ZNK5QDate8addYearsEi
libQt5Core.so.5:_ZNK5QDate8toStringEN2Qt10DateFormatE
libQt5Core.so.5:_ZNK5QDate9addMonthsEi
libQt5Core.so.5:_ZNK5QFile6existsEv
libQt5Core.so.5:_ZNK5QFile8fileNameEv
libQt5Core.so.5:_ZNK5QRect8containsERK6QPointb
libQt5Core.so.5:_ZNK7QLocale8toStringERK5QDateNS_10FormatTypeE
libQt5Core.so.5:_ZNK7QLocale8toStringERK9QDateTimeNS_10FormatTypeE
libQt5Core.so.5:_ZNK7QObject10objectNameEv
libQt5Core.so.5:_ZNK7QObject6senderEv
libQt5Core.so.5:_ZNK7QObject8propertyEPKc
libQt5Core.so.5:_ZNK7QString10startsWithE13QLatin1StringN2Qt15CaseSensitivityE
libQt5Core.so.5:_ZNK7QString10startsWithE5QCharN2Qt15CaseSensitivityE
libQt5Core.so.5:_ZNK7QString10startsWithERKS_N2Qt15CaseSensitivityE
libQt5Core.so.5:_ZNK7QString10toLongLongEPbi
libQt5Core.so.5:_ZNK7QString11lastIndexOfE5QChariN2Qt15CaseSensitivityE
libQt5Core.so.5:_ZNK7QString13toHtmlEscapedEv
libQt5Core.so.5:_ZNK7QString3argERKS_i5QChar
libQt5Core.so.5:_ZNK7QString3argExii5QChar
libQt5Core.so.5:_ZNK7QString3argEyii5QChar
libQt5Core.so.5:_ZNK7QString3midEii
libQt5Core.so.5:_ZNK7QString4leftEi
libQt5Core.so.5:_ZNK7QString5rightEi
libQt5Core.so.5:_ZNK7QString5splitE5QChar6QFlagsIN2Qt18SplitBehaviorFlagsEENS2_15CaseSensitivityE
libQt5Core.so.5:_ZNK7QString5toIntEPbi
libQt5Core.so.5:_ZNK7QString6midRefEii
libQt5Core.so.5:_ZNK7QString6toUIntEPbi
libQt5Core.so.5:_ZNK7QString7compareERKS_N2Qt15CaseSensitivityE
libQt5Core.so.5:_ZNK7QString7indexOfE13QLatin1StringiN2Qt15CaseSensitivityE
libQt5Core.so.5:_ZNK7QString7indexOfE5QChariN2Qt15CaseSensitivityE
libQt5Core.so.5:_ZNK7QString7indexOfERKS_iN2Qt15CaseSensitivityE
libQt5Core.so.5:_ZNK7QString8endsWithE13QLatin1StringN2Qt15CaseSensitivityE
libQt5Core.so.5:_ZNK7QString8endsWithE5QCharN2Qt15CaseSensitivityE
libQt5Core.so.5:_ZNK7QStringeqE13QLatin1String
libQt5Core.so.5:_ZNK8QVariant10toDateTimeEv
libQt5Core.so.5:_ZNK8QVariant10toLongLongEPb
libQt5Core.so.5:_ZNK8QVariant11toByteArrayEv
libQt5Core.so.5:_ZNK8QVariant12toModelIndexEv
libQt5Core.so.5:_ZNK8QVariant12toStringListEv
libQt5Core.so.5:_ZNK8QVariant3cmpERKS_
libQt5Core.so.5:_ZNK8QVariant4typeEv
libQt5Core.so.5:_ZNK8QVariant5toIntEPb
libQt5Core.so.5:_ZNK8QVariant5toUrlEv
libQt5Core.so.5:_ZNK8QVariant6isNullEv
libQt5Core.so.5:_ZNK8QVariant6toBoolEv
libQt5Core.so.5:_ZNK8QVariant6toListEv
libQt5Core.so.5:_ZNK8QVariant6toUIntEPb
libQt5Core.so.5:_ZNK8QVariant7convertEiPv
libQt5Core.so.5:_ZNK8QVariant7toPointEv
libQt5Core.so.5:_ZNK8QVariant8toStringEv
libQt5Core.so.5:_ZNK8QVariant8userTypeEv
libQt5Core.so.5:_ZNK8QVariant9constDataEv
libQt5Core.so.5:_ZNK9QDateTime6secsToERKS_
libQt5Core.so.5:_ZNK9QDateTime7addDaysEx
libQt5Core.so.5:_ZNK9QDateTime7addSecsEx
libQt5Core.so.5:_ZNK9QDateTime7isValidEv
libQt5Core.so.5:_ZNK9QDateTime8addYearsEi
libQt5Core.so.5:_ZNK9QDateTime8toStringEN2Qt10DateFormatE
libQt5Core.so.5:_ZNK9QDateTime9addMonthsEi
libQt5Core.so.5:_ZNK9QDateTimeeqERKS_
libQt5Core.so.5:_ZNK9QDateTimeltERKS_
libQt5Core.so.5:_ZNK9QFileInfo10isReadableEv
libQt5Core.so.5:_ZNK9QFileInfo12absolutePathEv
libQt5Core.so.5:_ZNK9QFileInfo16absoluteFilePathEv
libQt5Core.so.5:_ZNK9QFileInfo5isDirEv
libQt5Core.so.5:_ZNK9QFileInfo8fileNameEv
libQt5Core.so.5:_ZNK9QIODevice11errorStringEv
libQt5Core.so.5:_ZNK9QIODevice20isTransactionStartedEv
libQt5Core.so.5:_ZNK9QMimeData4dataERK7QString
libQt5Core.so.5:_ZNK9QMimeData4textEv
libQt5Core.so.5:_ZNK9QMimeData4urlsEv
libQt5Core.so.5:_ZNK9QMimeData7hasHtmlEv
libQt5Core.so.5:_ZNK9QMimeData7hasTextEv
libQt5Core.so.5:_ZNK9QMimeData7hasUrlsEv
libQt5Core.so.5:_ZNK9QMimeData8hasImageEv
libQt5Core.so.5:_ZNK9QMimeData9imageDataEv
libQt5Core.so.5:_ZNK9QMimeType4nameEv
libQt5Core.so.5:_ZNK9QMimeType7commentEv
libQt5Core.so.5:_ZNK9QMimeType8iconNameEv
libQt5Core.so.5:_ZNK9QUrlQuery14queryItemValueERK7QString6QFlagsIN4QUrl25ComponentFormattingOptionEE
libQt5Core.so.5:_ZTI21QSortFilterProxyModel
libQt5Core.so.5:_ZTI7QObject
libQt5Core.so.5:_ZeqRK7QStringS1_
libQt5Core.so.5:_Zls6QDebugPK7QObject
libQt5Core.so.5:_Zls6QDebugRK4QUrl
libQt5Core.so.5:_Zls6QDebugRK5QDate
libQt5Core.so.5:_Zls6QDebugRK9QDateTime
libQt5Core.so.5:_ZlsR11QDataStreamRK10QByteArray
libQt5Core.so.5:_ZltRK7QStringS1_
libQt5Core.so.5:_ZrsR11QDataStreamR10QByteArray
libQt5Core.so.5:qt_resourceFeatureZlib
libQt5Core.so.5:qt_version_tag
libQt5DBus.so.5:_Z14qDBusReplyFillRK12QDBusMessageR10QDBusErrorR8QVariant
libQt5DBus.so.5:_ZN10QDBusErrorC1ERKS_
libQt5DBus.so.5:_ZN10QDBusErrorC1Ev
libQt5DBus.so.5:_ZN10QDBusErroraSERKS_
libQt5DBus.so.5:_ZN12QDBusMessage12createSignalERK7QStringS2_S2_
libQt5DBus.so.5:_ZN12QDBusMessage12setArgumentsERK5QListI8QVariantE
libQt5DBus.so.5:_ZN12QDBusMessage16createMethodCallERK7QStringS2_S2_S2_
libQt5DBus.so.5:_ZN12QDBusMessageD1Ev
libQt5DBus.so.5:_ZN13QDBusArgument10beginArrayEi
libQt5DBus.so.5:_ZN13QDBusArgument8endArrayEv
libQt5DBus.so.5:_ZN13QDBusArgumentC1ERKS_
libQt5DBus.so.5:_ZN13QDBusArgumentC1Ev
libQt5DBus.so.5:_ZN13QDBusArgumentD1Ev
libQt5DBus.so.5:_ZN13QDBusArgumentlsEx
libQt5DBus.so.5:_ZN13QDBusMetaType25registerMarshallOperatorsEiPFvR13QDBusArgumentPKvEPFvRKS0_PvE
libQt5DBus.so.5:_ZN14QDBusInterfaceC1ERK7QStringS2_S2_RK15QDBusConnectionP7QObject
libQt5DBus.so.5:_ZN14QDBusInterfaceD1Ev
libQt5DBus.so.5:_ZN15QDBusConnection10sessionBusEv
libQt5DBus.so.5:_ZN15QDBusConnection14registerObjectERK7QStringP7QObject6QFlagsINS_14RegisterOptionEE
libQt5DBus.so.5:_ZN15QDBusConnection15registerServiceERK7QString
libQt5DBus.so.5:_ZN15QDBusConnection7connectERK7QStringS2_S2_S2_P7QObjectPKc
libQt5DBus.so.5:_ZN15QDBusConnectionD1Ev
libQt5DBus.so.5:_ZN16QDBusPendingCall15waitForFinishedEv
libQt5DBus.so.5:_ZN16QDBusPendingCallC1ERKS_
libQt5DBus.so.5:_ZN16QDBusPendingCallD1Ev
libQt5DBus.so.5:_ZN19QDBusServiceWatcher12setWatchModeE6QFlagsINS_13WatchModeFlagEE
libQt5DBus.so.5:_ZN19QDBusServiceWatcher13setConnectionERK15QDBusConnection
libQt5DBus.so.5:_ZN19QDBusServiceWatcher16staticMetaObjectE
libQt5DBus.so.5:_ZN19QDBusServiceWatcher17addWatchedServiceERK7QString
libQt5DBus.so.5:_ZN19QDBusServiceWatcher17serviceRegisteredERK7QString
libQt5DBus.so.5:_ZN19QDBusServiceWatcher19serviceUnregisteredERK7QString
libQt5DBus.so.5:_ZN19QDBusServiceWatcherC1EP7QObject
libQt5DBus.so.5:_ZN20QDBusAbstractAdaptor11qt_metacallEN11QMetaObject4CallEiPPv
libQt5DBus.so.5:_ZN20QDBusAbstractAdaptor11qt_metacastEPKc
libQt5DBus.so.5:_ZN20QDBusAbstractAdaptor16staticMetaObjectE
libQt5DBus.so.5:_ZN20QDBusAbstractAdaptor19setAutoRelaySignalsEb
libQt5DBus.so.5:_ZN20QDBusAbstractAdaptorC2EP7QObject
libQt5DBus.so.5:_ZN20QDBusAbstractAdaptorD2Ev
libQt5DBus.so.5:_ZN21QDBusPendingReplyData12setMetaTypesEiPKi
libQt5DBus.so.5:_ZN21QDBusPendingReplyData6assignERK16QDBusPendingCall
libQt5DBus.so.5:_ZN21QDBusPendingReplyDataC2Ev
libQt5DBus.so.5:_ZN21QDBusPendingReplyDataD2Ev
libQt5DBus.so.5:_ZN22QDBusAbstractInterface11doAsyncCallERK7QStringPK8QVariantm
libQt5DBus.so.5:_ZN22QDBusAbstractInterface11qt_metacallEN11QMetaObject4CallEiPPv
libQt5DBus.so.5:_ZN22QDBusAbstractInterface11qt_metacastEPKc
libQt5DBus.so.5:_ZN22QDBusAbstractInterface13connectNotifyERK11QMetaMethod
libQt5DBus.so.5:_ZN22QDBusAbstractInterface16disconnectNotifyERK11QMetaMethod
libQt5DBus.so.5:_ZN22QDBusAbstractInterface16staticMetaObjectE
libQt5DBus.so.5:_ZN22QDBusAbstractInterface20callWithArgumentListEN5QDBus8CallModeERK7QStringRK5QListI8QVariantE
libQt5DBus.so.5:_ZN22QDBusAbstractInterface25asyncCallWithArgumentListERK7QStringRK5QListI8QVariantE
libQt5DBus.so.5:_ZN22QDBusAbstractInterface6doCallEN5QDBus8CallModeERK7QStringPK8QVariantm
libQt5DBus.so.5:_ZN22QDBusAbstractInterfaceC2ERK7QStringS2_PKcRK15QDBusConnectionP7QObject
libQt5DBus.so.5:_ZN22QDBusAbstractInterfaceD2Ev
libQt5DBus.so.5:_ZN23QDBusPendingCallWatcher16staticMetaObjectE
libQt5DBus.so.5:_ZN23QDBusPendingCallWatcher8finishedEPS_
libQt5DBus.so.5:_ZN23QDBusPendingCallWatcherC1ERK16QDBusPendingCallP7QObject
libQt5DBus.so.5:_ZNK10QDBusError4nameEv
libQt5DBus.so.5:_ZNK10QDBusError7isValidEv
libQt5DBus.so.5:_ZNK10QDBusError7messageEv
libQt5DBus.so.5:_ZNK12QDBusMessage4typeEv
libQt5DBus.so.5:_ZNK12QDBusMessage9argumentsEv
libQt5DBus.so.5:_ZNK13QDBusArgument10beginArrayEv
libQt5DBus.so.5:_ZNK13QDBusArgument5atEndEv
libQt5DBus.so.5:_ZNK13QDBusArgument8endArrayEv
libQt5DBus.so.5:_ZNK13QDBusArgumentrsER11QStringList
libQt5DBus.so.5:_ZNK13QDBusArgumentrsER7QString
libQt5DBus.so.5:_ZNK13QDBusArgumentrsERb
libQt5DBus.so.5:_ZNK13QDBusArgumentrsERx
libQt5DBus.so.5:_ZNK15QDBusConnection4callERK12QDBusMessageN5QDBus8CallModeEi
libQt5DBus.so.5:_ZNK15QDBusConnection4sendERK12QDBusMessage
libQt5DBus.so.5:_ZNK15QDBusConnection9interfaceEv
libQt5DBus.so.5:_ZNK16QDBusPendingCall5errorEv
libQt5DBus.so.5:_ZNK16QDBusPendingCall5replyEv
libQt5DBus.so.5:_ZNK16QDBusPendingCall7isErrorEv
libQt5DBus.so.5:_ZNK21QDBusPendingReplyData10argumentAtEi
libQt5DBus.so.5:_ZNK22QDBusAbstractInterface7isValidEv
libQt5DBus.so.5:_ZNK22QDBusAbstractInterface9lastErrorEv
libQt5DBus.so.5:_ZNK24QDBusConnectionInterface19isServiceRegisteredERK7QString
libQt5DBus.so.5:_ZTI20QDBusAbstractAdaptor
libQt5DBus.so.5:_ZTI22QDBusAbstractInterface
libQt5Gui.so.5:_ZN10QClipboard7setTextERK7QStringNS_4ModeE
libQt5Gui.so.5:_ZN10QTransform5resetEv
libQt5Gui.so.5:_ZN10QTransform5scaleEdd
libQt5Gui.so.5:_ZN10QTransform9translateEdd
libQt5Gui.so.5:_ZN10QTransformC1Edddddd
libQt5Gui.so.5:_ZN10QTransformC1Ev
libQt5Gui.so.5:_ZN11QTextCursorD1Ev
libQt5Gui.so.5:_ZN11QTextFormatD2Ev
libQt5Gui.so.5:_ZN12QFontMetricsC1ERK5QFont
libQt5Gui.so.5:_ZN12QFontMetricsD1Ev
libQt5Gui.so.5:_ZN12QImageReader21supportedImageFormatsEv
libQt5Gui.so.5:_ZN12QKeySequenceC1ERKS_
libQt5Gui.so.5:_ZN12QKeySequenceC1Eiiii
libQt5Gui.so.5:_ZN12QKeySequenceC1Ev
libQt5Gui.so.5:_ZN12QKeySequenceD1Ev
libQt5Gui.so.5:_ZN12QPaintDeviceC2Ev
libQt5Gui.so.5:_ZN13QFontDatabase10systemFontENS_10SystemFontE
libQt5Gui.so.5:_ZN13QStandardItemC1ERK5QIconRK7QString
libQt5Gui.so.5:_ZN13QTextDocument11addResourceEiRK4QUrlRK8QVariant
libQt5Gui.so.5:_ZN13QTextDocument11setModifiedEb
libQt5Gui.so.5:_ZN13QTextDocument12drawContentsEP8QPainterRK6QRectF
libQt5Gui.so.5:_ZN13QTextDocument12setTextWidthEd
libQt5Gui.so.5:_ZN13QTextDocument20setMaximumBlockCountEi
libQt5Gui.so.5:_ZN13QTextDocument7setHtmlERK7QString
libQt5Gui.so.5:_ZN13QTextDocumentC1EP7QObject
libQt5Gui.so.5:_ZN15QGuiApplication15desktopFileNameEv
libQt5Gui.so.5:_ZN15QGuiApplication15layoutDirectionEv
libQt5Gui.so.5:_ZN15QGuiApplication18setDesktopFileNameERK7QString
libQt5Gui.so.5:_ZN15QGuiApplication22applicationDisplayNameEv
libQt5Gui.so.5:_ZN15QGuiApplication7paletteEv
libQt5Gui.so.5:_ZN15QGuiApplication9clipboardEv
libQt5Gui.so.5:_ZN18QStandardItemModel5clearEv
libQt5Gui.so.5:_ZN18QStandardItemModel9appendRowERK5QListIP13QStandardItemE
libQt5Gui.so.5:_ZN18QStandardItemModelC1EP7QObject
libQt5Gui.so.5:_ZN19QTextDocumentWriter11setFileNameERK7QString
libQt5Gui.so.5:_ZN19QTextDocumentWriter5writeEPK13QTextDocument
libQt5Gui.so.5:_ZN19QTextDocumentWriter9setFormatERK10QByteArray
libQt5Gui.so.5:_ZN19QTextDocumentWriterC1Ev
libQt5Gui.so.5:_ZN19QTextDocumentWriterD1Ev
libQt5Gui.so.5:_ZN27QRegularExpressionValidatorC1ERK18QRegularExpressionP7QObject
libQt5Gui.so.5:_ZN4QPen11setCapStyleEN2Qt11PenCapStyleE
libQt5Gui.so.5:_ZN4QPen8setColorERK6QColor
libQt5Gui.so.5:_ZN4QPen8setStyleEN2Qt8PenStyleE
libQt5Gui.so.5:_ZN4QPenC1ERKS_
libQt5Gui.so.5:_ZN4QPenC1Ev
libQt5Gui.so.5:_ZN4QPenD1Ev
libQt5Gui.so.5:_ZN5QDrag11setMimeDataEP9QMimeData
libQt5Gui.so.5:_ZN5QDrag4execE6QFlagsIN2Qt10DropActionEE
libQt5Gui.so.5:_ZN5QDrag9setPixmapERK7QPixmap
libQt5Gui.so.5:_ZN5QDragC1EP7QObject
libQt5Gui.so.5:_ZN5QFont12setPointSizeEi
libQt5Gui.so.5:_ZN5QFont12setUnderlineEb
libQt5Gui.so.5:_ZN5QFont13setFixedPitchEb
libQt5Gui.so.5:_ZN5QFont8setStyleENS_5StyleE
libQt5Gui.so.5:_ZN5QFont9setFamilyERK7QString
libQt5Gui.so.5:_ZN5QFont9setWeightEi
libQt5Gui.so.5:_ZN5QFontC1ERK7QStringiib
libQt5Gui.so.5:_ZN5QFontC1ERKS_
libQt5Gui.so.5:_ZN5QFontC1Ev
libQt5Gui.so.5:_ZN5QFontD1Ev
libQt5Gui.so.5:_ZN5QFontaSERKS_
libQt5Gui.so.5:_ZN5QIcon9fromThemeERK7QString
libQt5Gui.so.5:_ZN5QIcon9fromThemeERK7QStringRKS_
libQt5Gui.so.5:_ZN5QIconC1ERK7QPixmap
libQt5Gui.so.5:_ZN5QIconC1ERK7QString
libQt5Gui.so.5:_ZN5QIconC1ERKS_
libQt5Gui.so.5:_ZN5QIconC1Ev
libQt5Gui.so.5:_ZN5QIconD1Ev
libQt5Gui.so.5:_ZN5QIconaSERKS_
libQt5Gui.so.5:_ZN6QBrush15setTextureImageERK6QImage
libQt5Gui.so.5:_ZN6QBrush8setColorERK6QColor
libQt5Gui.so.5:_ZN6QBrush8setStyleEN2Qt10BrushStyleE
libQt5Gui.so.5:_ZN6QBrushC1EN2Qt11GlobalColorENS0_10BrushStyleE
libQt5Gui.so.5:_ZN6QBrushC1ERK6QColorN2Qt10BrushStyleE
libQt5Gui.so.5:_ZN6QBrushC1Ev
libQt5Gui.so.5:_ZN6QBrushD1Ev
libQt5Gui.so.5:_ZN6QBrushaSERKS_
libQt5Gui.so.5:_ZN6QColorC1EN2Qt11GlobalColorE
libQt5Gui.so.5:_ZN6QColoraSEN2Qt11GlobalColorE
libQt5Gui.so.5:_ZN6QColoraSERKS_
libQt5Gui.so.5:_ZN6QImage12loadFromDataEPKhiPKc
libQt5Gui.so.5:_ZN6QImage8fromDataEPKhiPKc
libQt5Gui.so.5:_ZN6QImageC1ERKS_
libQt5Gui.so.5:_ZN6QImageC1Ev
libQt5Gui.so.5:_ZN6QImageD1Ev
libQt5Gui.so.5:_ZN6QImageaSERKS_
libQt5Gui.so.5:_ZN7QCursor3posEv
libQt5Gui.so.5:_ZN7QCursorC1EN2Qt11CursorShapeE
libQt5Gui.so.5:_ZN7QCursorD1Ev
libQt5Gui.so.5:_ZN7QPixmap16fromImageInPlaceER6QImage6QFlagsIN2Qt19ImageConversionFlagEE
libQt5Gui.so.5:_ZN7QPixmap4fillERK6QColor
libQt5Gui.so.5:_ZN7QPixmapC1ERK7QStringPKc6QFlagsIN2Qt19ImageConversionFlagEE
libQt5Gui.so.5:_ZN7QPixmapC1Ev
libQt5Gui.so.5:_ZN7QPixmapD1Ev
libQt5Gui.so.5:_ZN7QRegionC1ERK5QRectNS_10RegionTypeE
libQt5Gui.so.5:_ZN7QRegionC1ERK8QPolygonN2Qt8FillRuleE
libQt5Gui.so.5:_ZN7QRegionC1EiiiiNS_10RegionTypeE
libQt5Gui.so.5:_ZN7QRegionC1Ev
libQt5Gui.so.5:_ZN7QRegionD1Ev
libQt5Gui.so.5:_ZN8QPainter10drawPointsEPK6QPointi
libQt5Gui.so.5:_ZN8QPainter11drawEllipseERK5QRect
libQt5Gui.so.5:_ZN8QPainter11drawPolygonEPK6QPointiN2Qt8FillRuleE
libQt5Gui.so.5:_ZN8QPainter11setClippingEb
libQt5Gui.so.5:_ZN8QPainter12drawPolylineEPK6QPointi
libQt5Gui.so.5:_ZN8QPainter13setBackgroundERK6QBrush
libQt5Gui.so.5:_ZN8QPainter13setClipRegionERK7QRegionN2Qt13ClipOperationE
libQt5Gui.so.5:_ZN8QPainter13setRenderHintENS_10RenderHintEb
libQt5Gui.so.5:_ZN8QPainter14resetTransformEv
libQt5Gui.so.5:_ZN8QPainter15drawRoundedRectERK6QRectFddN2Qt8SizeModeE
libQt5Gui.so.5:_ZN8QPainter17setBackgroundModeEN2Qt6BGModeE
libQt5Gui.so.5:_ZN8QPainter17setWorldTransformERK10QTransformb
libQt5Gui.so.5:_ZN8QPainter18setCompositionModeENS_15CompositionModeE
libQt5Gui.so.5:_ZN8QPainter3endEv
libQt5Gui.so.5:_ZN8QPainter4saveEv
libQt5Gui.so.5:_ZN8QPainter5beginEP12QPaintDevice
libQt5Gui.so.5:_ZN8QPainter5scaleEdd
libQt5Gui.so.5:_ZN8QPainter6rotateEd
libQt5Gui.so.5:_ZN8QPainter6setPenERK4QPen
libQt5Gui.so.5:_ZN8QPainter6setPenERK6QColor
libQt5Gui.so.5:_ZN8QPainter7drawArcERK6QRectFii
libQt5Gui.so.5:_ZN8QPainter7drawPieERK6QRectFii
libQt5Gui.so.5:_ZN8QPainter7restoreEv
libQt5Gui.so.5:_ZN8QPainter7setFontERK5QFont
libQt5Gui.so.5:_ZN8QPainter8drawTextERK5QRectiRK7QStringPS0_
libQt5Gui.so.5:_ZN8QPainter8fillRectERK5QRectRK6QBrush
libQt5Gui.so.5:_ZN8QPainter8setBrushEN2Qt10BrushStyleE
libQt5Gui.so.5:_ZN8QPainter8setBrushERK6QBrush
libQt5Gui.so.5:_ZN8QPainter9drawChordERK6QRectFii
libQt5Gui.so.5:_ZN8QPainter9drawImageERK6QRectFRK6QImageS2_6QFlagsIN2Qt19ImageConversionFlagEE
libQt5Gui.so.5:_ZN8QPainter9drawImageERK7QPointFRK6QImage
libQt5Gui.so.5:_ZN8QPainter9drawLinesEPK5QLinei
libQt5Gui.so.5:_ZN8QPainter9drawRectsEPK5QRecti
libQt5Gui.so.5:_ZN8QPainter9setWindowERK5QRect
libQt5Gui.so.5:_ZN8QPainter9translateERK7QPointF
libQt5Gui.so.5:_ZN8QPainterC1Ev
libQt5Gui.so.5:_ZN8QPainterD1Ev
libQt5Gui.so.5:_ZN8QPalette8setBrushENS_10ColorGroupENS_9ColorRoleERK6QBrush
libQt5Gui.so.5:_ZN8QPaletteC1ERKS_
libQt5Gui.so.5:_ZN8QPaletteD1Ev
libQt5Gui.so.5:_ZN8QPaletteaSERKS_
libQt5Gui.so.5:_ZNK10QClipboard4textENS_4ModeE
libQt5Gui.so.5:_ZNK10QClipboard8mimeDataENS_4ModeE
libQt5Gui.so.5:_ZNK10QDropEvent6sourceEv
libQt5Gui.so.5:_ZNK11QTextCursor10charFormatEv
libQt5Gui.so.5:_ZNK11QTextCursor12hasSelectionEv
libQt5Gui.so.5:_ZNK11QTextFormat12boolPropertyEi
libQt5Gui.so.5:_ZNK12QFontMetrics10elidedTextERK7QStringN2Qt13TextElideModeEii
libQt5Gui.so.5:_ZNK12QFontMetrics12boundingRectE5QChar
libQt5Gui.so.5:_ZNK12QFontMetrics12boundingRectERK7QString
libQt5Gui.so.5:_ZNK12QFontMetrics6heightEv
libQt5Gui.so.5:_ZNK12QFontMetrics7descentEv
libQt5Gui.so.5:_ZNK12QFontMetrics8maxWidthEv
libQt5Gui.so.5:_ZNK12QKeySequence7isEmptyEv
libQt5Gui.so.5:_ZNK12QKeySequence8toStringENS_14SequenceFormatE
libQt5Gui.so.5:_ZNK13QStandardItem3rowEv
libQt5Gui.so.5:_ZNK13QTextDocument10blockCountEv
libQt5Gui.so.5:_ZNK13QTextDocument10isModifiedEv
libQt5Gui.so.5:_ZNK13QTextDocument11toPlainTextEv
libQt5Gui.so.5:_ZNK13QTextDocument17maximumBlockCountEv
libQt5Gui.so.5:_ZNK13QTextDocument7isEmptyEv
libQt5Gui.so.5:_ZNK15QGuiApplication15isSavingSessionEv
libQt5Gui.so.5:_ZNK15QGuiApplication17isSessionRestoredEv
libQt5Gui.so.5:_ZNK18QStandardItemModel13itemFromIndexERK11QModelIndex
libQt5Gui.so.5:_ZNK4QPen5styleEv
libQt5Gui.so.5:_ZNK5QFont6familyEv
libQt5Gui.so.5:_ZNK5QFont9pointSizeEv
libQt5Gui.so.5:_ZNK5QFontcv8QVariantEv
libQt5Gui.so.5:_ZNK5QIcon4nameEv
libQt5Gui.so.5:_ZNK5QIcon6pixmapERK5QSizeNS_4ModeENS_5StateE
libQt5Gui.so.5:_ZNK5QIconcv8QVariantEv
libQt5Gui.so.5:_ZNK6QBrushcv8QVariantEv
libQt5Gui.so.5:_ZNK6QColor4nameEv
libQt5Gui.so.5:_ZNK6QColorcv8QVariantEv
libQt5Gui.so.5:_ZNK6QImage4copyERK5QRect
libQt5Gui.so.5:_ZNK6QImage6isNullEv
libQt5Gui.so.5:_ZNK7QPixmap6isNullEv
libQt5Gui.so.5:_ZNK7QPixmap6scaledERK5QSizeN2Qt15AspectRatioModeENS3_18TransformationModeE
libQt5Gui.so.5:_ZNK7QPixmapcv8QVariantEv
libQt5Gui.so.5:_ZNK7QRegion10subtractedERKS_
libQt5Gui.so.5:_ZNK7QRegion11intersectedERKS_
libQt5Gui.so.5:_ZNK7QRegion5xoredERKS_
libQt5Gui.so.5:_ZNK8QPainter3penEv
libQt5Gui.so.5:_ZNK8QPainter4fontEv
libQt5Gui.so.5:_ZNK8QPainter5brushEv
libQt5Gui.so.5:_ZNK8QPainter6windowEv
libQt5Gui.so.5:_ZNK8QPainter8isActiveEv
libQt5Gui.so.5:_ZNK8QPalette5brushENS_10ColorGroupENS_9ColorRoleE
libQt5Gui.so.5:_ZTV6QImage
libQt5Gui.so.5:_Zls6QDebugRK5QFont
libQt5Network.so.5:_ZN28QNetworkConfigurationManager16staticMetaObjectE
libQt5Network.so.5:_ZN28QNetworkConfigurationManager18onlineStateChangedEb
libQt5Network.so.5:_ZN9QHostInfo13localHostNameEv
libQt5Network.so.5:_ZNK28QNetworkConfigurationManager8isOnlineEv
libQt5WebEngineCore.so.5:_ZN19QWebEngineUrlScheme14registerSchemeERKS_
libQt5WebEngineCore.so.5:_ZN19QWebEngineUrlScheme8setFlagsE6QFlagsINS_4FlagEE
libQt5WebEngineCore.so.5:_ZN19QWebEngineUrlScheme9setSyntaxENS_6SyntaxE
libQt5WebEngineCore.so.5:_ZN19QWebEngineUrlSchemeC1ERK10QByteArray
libQt5WebEngineCore.so.5:_ZN19QWebEngineUrlSchemeD1Ev
libQt5Widgets.so.5:_ZN10QBoxLayout10addSpacingEi
libQt5Widgets.so.5:_ZN10QBoxLayout10addStretchEi
libQt5Widgets.so.5:_ZN10QBoxLayout10setSpacingEi
libQt5Widgets.so.5:_ZN10QBoxLayout12insertWidgetEiP7QWidgeti6QFlagsIN2Qt13AlignmentFlagEE
libQt5Widgets.so.5:_ZN10QBoxLayout13addSpacerItemEP11QSpacerItem
libQt5Widgets.so.5:_ZN10QBoxLayout13insertSpacingEii
libQt5Widgets.so.5:_ZN10QBoxLayout16setStretchFactorEP7QLayouti
libQt5Widgets.so.5:_ZN10QBoxLayout16setStretchFactorEP7QWidgeti
libQt5Widgets.so.5:_ZN10QBoxLayout9addLayoutEP7QLayouti
libQt5Widgets.so.5:_ZN10QBoxLayout9addWidgetEP7QWidgeti6QFlagsIN2Qt13AlignmentFlagEE
libQt5Widgets.so.5:_ZN10QStatusBar11showMessageERK7QStringi
libQt5Widgets.so.5:_ZN10QStatusBar18addPermanentWidgetEP7QWidgeti
libQt5Widgets.so.5:_ZN10QStatusBar9addWidgetEP7QWidgeti
libQt5Widgets.so.5:_ZN10QTabWidget10paintEventEP11QPaintEvent
libQt5Widgets.so.5:_ZN10QTabWidget10setTabTextEiRK7QString
libQt5Widgets.so.5:_ZN10QTabWidget10tabRemovedEi
libQt5Widgets.so.5:_ZN10QTabWidget11changeEventEP6QEvent
libQt5Widgets.so.5:_ZN10QTabWidget11resizeEventEP12QResizeEvent
libQt5Widgets.so.5:_ZN10QTabWidget11tabInsertedEi
libQt5Widgets.so.5:_ZN10QTabWidget13keyPressEventEP9QKeyEvent
libQt5Widgets.so.5:_ZN10QTabWidget14currentChangedEi
libQt5Widgets.so.5:_ZN10QTabWidget15setCurrentIndexEi
libQt5Widgets.so.5:_ZN10QTabWidget16staticMetaObjectE
libQt5Widgets.so.5:_ZN10QTabWidget5eventEP6QEvent
libQt5Widgets.so.5:_ZN10QTabWidget6addTabEP7QWidgetRK7QString
libQt5Widgets.so.5:_ZN10QTabWidget9showEventEP10QShowEvent
libQt5Widgets.so.5:_ZN10QTabWidgetC1EP7QWidget
libQt5Widgets.so.5:_ZN10QWhatsThis8showTextERK6QPointRK7QStringP7QWidget
libQt5Widgets.so.5:_ZN11QFileDialog10selectFileERK7QString
libQt5Widgets.so.5:_ZN11QFileDialog11setFileModeENS_8FileModeE
libQt5Widgets.so.5:_ZN11QFileDialog13setAcceptModeENS_10AcceptModeE
libQt5Widgets.so.5:_ZN11QFileDialog14getOpenFileUrlEP7QWidgetRK7QStringRK4QUrlS4_PS2_6QFlagsINS_6OptionEERK11QStringList
libQt5Widgets.so.5:_ZN11QFileDialog14getSaveFileUrlEP7QWidgetRK7QStringRK4QUrlS4_PS2_6QFlagsINS_6OptionEERK11QStringList
libQt5Widgets.so.5:_ZN11QFileDialog15getOpenFileNameEP7QWidgetRK7QStringS4_S4_PS2_6QFlagsINS_6OptionEE
libQt5Widgets.so.5:_ZN11QFileDialog15getSaveFileNameEP7QWidgetRK7QStringS4_S4_PS2_6QFlagsINS_6OptionEE
libQt5Widgets.so.5:_ZN11QFileDialog18setMimeTypeFiltersERK11QStringList
libQt5Widgets.so.5:_ZN11QFileDialog20getExistingDirectoryEP7QWidgetRK7QStringS4_6QFlagsINS_6OptionEE
libQt5Widgets.so.5:_ZN11QFileDialogC1EP7QWidgetRK7QStringS4_S4_
libQt5Widgets.so.5:_ZN11QFormLayout20setFieldGrowthPolicyENS_17FieldGrowthPolicyE
libQt5Widgets.so.5:_ZN11QFormLayout6addRowERK7QStringP7QWidget
libQt5Widgets.so.5:_ZN11QFormLayout7setItemEiNS_8ItemRoleEP11QLayoutItem
libQt5Widgets.so.5:_ZN11QFormLayout9setWidgetEiNS_8ItemRoleEP7QWidget
libQt5Widgets.so.5:_ZN11QFormLayoutC1EP7QWidget
libQt5Widgets.so.5:_ZN11QGridLayout10setSpacingEi
libQt5Widgets.so.5:_ZN11QGridLayout13setRowStretchEii
libQt5Widgets.so.5:_ZN11QGridLayout16setColumnStretchEii
libQt5Widgets.so.5:_ZN11QGridLayout7addItemEP11QLayoutItemiiii6QFlagsIN2Qt13AlignmentFlagEE
libQt5Widgets.so.5:_ZN11QGridLayout9addLayoutEP7QLayoutii6QFlagsIN2Qt13AlignmentFlagEE
libQt5Widgets.so.5:_ZN11QGridLayout9addLayoutEP7QLayoutiiii6QFlagsIN2Qt13AlignmentFlagEE
libQt5Widgets.so.5:_ZN11QGridLayout9addWidgetEP7QWidgetii6QFlagsIN2Qt13AlignmentFlagEE
libQt5Widgets.so.5:_ZN11QGridLayout9addWidgetEP7QWidgetiiii6QFlagsIN2Qt13AlignmentFlagEE
libQt5Widgets.so.5:_ZN11QGridLayoutC1EP7QWidget
libQt5Widgets.so.5:_ZN11QGridLayoutC1Ev
libQt5Widgets.so.5:_ZN11QHBoxLayoutC1EP7QWidget
libQt5Widgets.so.5:_ZN11QHBoxLayoutC1Ev
libQt5Widgets.so.5:_ZN11QHeaderView12restoreStateERK10QByteArray
libQt5Widgets.so.5:_ZN11QHeaderView13resizeSectionEii
libQt5Widgets.so.5:_ZN11QHeaderView16setSortIndicatorEiN2Qt9SortOrderE
libQt5Widgets.so.5:_ZN11QHeaderView18setSectionsMovableEb
libQt5Widgets.so.5:_ZN11QHeaderView20setSectionResizeModeENS_10ResizeModeE
libQt5Widgets.so.5:_ZN11QHeaderView21setStretchLastSectionEb
libQt5Widgets.so.5:_ZN11QListWidget10insertItemEiP15QListWidgetItem
libQt5Widgets.so.5:_ZN11QListWidget13setCurrentRowEi
libQt5Widgets.so.5:_ZN11QListWidget14setCurrentItemEP15QListWidgetItem
libQt5Widgets.so.5:_ZN11QListWidget16staticMetaObjectE
libQt5Widgets.so.5:_ZN11QListWidget18currentItemChangedEP15QListWidgetItemS1_
libQt5Widgets.so.5:_ZN11QListWidget5clearEv
libQt5Widgets.so.5:_ZN11QListWidget8takeItemEi
libQt5Widgets.so.5:_ZN11QListWidgetC1EP7QWidget
libQt5Widgets.so.5:_ZN11QMainWindow15createPopupMenuEv
libQt5Widgets.so.5:_ZN11QMainWindow16contextMenuEventEP17QContextMenuEvent
libQt5Widgets.so.5:_ZN11QMainWindow16setCentralWidgetEP7QWidget
libQt5Widgets.so.5:_ZN11QPushButton10setDefaultEb
libQt5Widgets.so.5:_ZN11QPushButton14setAutoDefaultEb
libQt5Widgets.so.5:_ZN11QPushButton7setMenuEP5QMenu
libQt5Widgets.so.5:_ZN11QPushButtonC1EP7QWidget
libQt5Widgets.so.5:_ZN11QPushButtonC1ERK5QIconRK7QStringP7QWidget
libQt5Widgets.so.5:_ZN11QPushButtonC1ERK7QStringP7QWidget
libQt5Widgets.so.5:_ZN11QScrollArea18setWidgetResizableEb
libQt5Widgets.so.5:_ZN11QScrollArea9setWidgetEP7QWidget
libQt5Widgets.so.5:_ZN11QScrollAreaC1EP7QWidget
libQt5Widgets.so.5:_ZN11QToolButton12setAutoRaiseEb
libQt5Widgets.so.5:_ZN11QToolButtonC1EP7QWidget
libQt5Widgets.so.5:_ZN11QTreeWidget11itemChangedEP15QTreeWidgetItemi
libQt5Widgets.so.5:_ZN11QTreeWidget11qt_metacallEN11QMetaObject4CallEiPPv
libQt5Widgets.so.5:_ZN11QTreeWidget11qt_metacastEPKc
libQt5Widgets.so.5:_ZN11QTreeWidget12dropMimeDataEP15QTreeWidgetItemiPK9QMimeDataN2Qt10DropActionE
libQt5Widgets.so.5:_ZN11QTreeWidget13setHeaderItemEP15QTreeWidgetItem
libQt5Widgets.so.5:_ZN11QTreeWidget14setColumnCountEi
libQt5Widgets.so.5:_ZN11QTreeWidget14setCurrentItemEP15QTreeWidgetItem
libQt5Widgets.so.5:_ZN11QTreeWidget15addTopLevelItemEP15QTreeWidgetItem
libQt5Widgets.so.5:_ZN11QTreeWidget15setHeaderLabelsERK11QStringList
libQt5Widgets.so.5:_ZN11QTreeWidget16staticMetaObjectE
libQt5Widgets.so.5:_ZN11QTreeWidget17itemDoubleClickedEP15QTreeWidgetItemi
libQt5Widgets.so.5:_ZN11QTreeWidget17setSelectionModelEP19QItemSelectionModel
libQt5Widgets.so.5:_ZN11QTreeWidget18currentItemChangedEP15QTreeWidgetItemS1_
libQt5Widgets.so.5:_ZN11QTreeWidget20itemSelectionChangedEv
libQt5Widgets.so.5:_ZN11QTreeWidget5clearEv
libQt5Widgets.so.5:_ZN11QTreeWidget5eventEP6QEvent
libQt5Widgets.so.5:_ZN11QTreeWidget8editItemEP15QTreeWidgetItemi
libQt5Widgets.so.5:_ZN11QTreeWidget8setModelEP18QAbstractItemModel
libQt5Widgets.so.5:_ZN11QTreeWidget9dropEventEP10QDropEvent
libQt5Widgets.so.5:_ZN11QTreeWidgetC1EP7QWidget
libQt5Widgets.so.5:_ZN11QTreeWidgetC2EP7QWidget
libQt5Widgets.so.5:_ZN11QTreeWidgetD2Ev
libQt5Widgets.so.5:_ZN11QVBoxLayoutC1EP7QWidget
libQt5Widgets.so.5:_ZN11QVBoxLayoutC1Ev
libQt5Widgets.so.5:_ZN12QActionGroup16staticMetaObjectE
libQt5Widgets.so.5:_ZN12QActionGroup9addActionEP7QAction
libQt5Widgets.so.5:_ZN12QActionGroup9triggeredEP7QAction
libQt5Widgets.so.5:_ZN12QActionGroupC1EP7QObject
libQt5Widgets.so.5:_ZN12QApplication10windowIconEv
libQt5Widgets.so.5:_ZN12QApplication13compressEventEP6QEventP7QObjectP14QPostEventList
libQt5Widgets.so.5:_ZN12QApplication13setWindowIconERK5QIcon
libQt5Widgets.so.5:_ZN12QApplication15topLevelWidgetsEv
libQt5Widgets.so.5:_ZN12QApplication4execEv
libQt5Widgets.so.5:_ZN12QApplication5eventEP6QEvent
libQt5Widgets.so.5:_ZN12QApplication5styleEv
libQt5Widgets.so.5:_ZN12QApplication6notifyEP7QObjectP6QEvent
libQt5Widgets.so.5:_ZN12QApplicationC1ERiPPci
libQt5Widgets.so.5:_ZN12QApplicationD1Ev
libQt5Widgets.so.5:_ZN12QButtonGroup12setExclusiveEb
libQt5Widgets.so.5:_ZN12QButtonGroup13buttonClickedEP15QAbstractButton
libQt5Widgets.so.5:_ZN12QButtonGroup16staticMetaObjectE
libQt5Widgets.so.5:_ZN12QButtonGroup9addButtonEP15QAbstractButtoni
libQt5Widgets.so.5:_ZN12QButtonGroupC1EP7QObject
libQt5Widgets.so.5:_ZN12QColorDialog8getColorERK6QColorP7QWidgetRK7QString6QFlagsINS_17ColorDialogOptionEE
libQt5Widgets.so.5:_ZN12QInputDialog7getTextEP7QWidgetRK7QStringS4_N9QLineEdit8EchoModeES4_Pb6QFlagsIN2Qt10WindowTypeEES8_INS9_15InputMethodHintEE
libQt5Widgets.so.5:_ZN12QProgressBar8setValueEi
libQt5Widgets.so.5:_ZN12QProgressBar9setFormatERK7QString
libQt5Widgets.so.5:_ZN12QProgressBarC1EP7QWidget
libQt5Widgets.so.5:_ZN12QRadioButtonC1EP7QWidget
libQt5Widgets.so.5:_ZN12QRadioButtonC1ERK7QStringP7QWidget
libQt5Widgets.so.5:_ZN12QStyleOptionC2Eii
libQt5Widgets.so.5:_ZN12QStyleOptionD2Ev
libQt5Widgets.so.5:_ZN12QStyleOptionaSERKS_
libQt5Widgets.so.5:_ZN13QWidgetAction11eventFilterEP7QObjectP6QEvent
libQt5Widgets.so.5:_ZN13QWidgetAction12deleteWidgetEP7QWidget
libQt5Widgets.so.5:_ZN13QWidgetAction5eventEP6QEvent
libQt5Widgets.so.5:_ZN14QPlainTextEdit10appendHtmlERK7QString
libQt5Widgets.so.5:_ZN14QPlainTextEdit10paintEventEP11QPaintEvent
libQt5Widgets.so.5:_ZN14QPlainTextEdit10timerEventEP11QTimerEvent
libQt5Widgets.so.5:_ZN14QPlainTextEdit11changeEventEP6QEvent
libQt5Widgets.so.5:_ZN14QPlainTextEdit11resizeEventEP12QResizeEvent
libQt5Widgets.so.5:_ZN14QPlainTextEdit11setReadOnlyEb
libQt5Widgets.so.5:_ZN14QPlainTextEdit11textChangedEv
libQt5Widgets.so.5:_ZN14QPlainTextEdit12loadResourceEiRK4QUrl
libQt5Widgets.so.5:_ZN14QPlainTextEdit12setPlainTextERK7QString
libQt5Widgets.so.5:_ZN14QPlainTextEdit13dragMoveEventEP14QDragMoveEvent
libQt5Widgets.so.5:_ZN14QPlainTextEdit13focusOutEventEP11QFocusEvent
libQt5Widgets.so.5:_ZN14QPlainTextEdit14dragEnterEventEP15QDragEnterEvent
libQt5Widgets.so.5:_ZN14QPlainTextEdit14dragLeaveEventEP15QDragLeaveEvent
libQt5Widgets.so.5:_ZN14QPlainTextEdit14mouseMoveEventEP11QMouseEvent
libQt5Widgets.so.5:_ZN14QPlainTextEdit15doSetTextCursorERK11QTextCursor
libQt5Widgets.so.5:_ZN14QPlainTextEdit15insertPlainTextERK7QString
libQt5Widgets.so.5:_ZN14QPlainTextEdit15keyReleaseEventEP9QKeyEvent
libQt5Widgets.so.5:_ZN14QPlainTextEdit15mousePressEventEP11QMouseEvent
libQt5Widgets.so.5:_ZN14QPlainTextEdit15setWordWrapModeEN11QTextOption8WrapModeE
libQt5Widgets.so.5:_ZN14QPlainTextEdit16inputMethodEventEP17QInputMethodEvent
libQt5Widgets.so.5:_ZN14QPlainTextEdit16scrollContentsByEii
libQt5Widgets.so.5:_ZN14QPlainTextEdit16staticMetaObjectE
libQt5Widgets.so.5:_ZN14QPlainTextEdit17mouseReleaseEventEP11QMouseEvent
libQt5Widgets.so.5:_ZN14QPlainTextEdit18focusNextPrevChildEb
libQt5Widgets.so.5:_ZN14QPlainTextEdit18insertFromMimeDataEPK9QMimeData
libQt5Widgets.so.5:_ZN14QPlainTextEdit21mouseDoubleClickEventEP11QMouseEvent
libQt5Widgets.so.5:_ZN14QPlainTextEdit5clearEv
libQt5Widgets.so.5:_ZN14QPlainTextEdit9dropEventEP10QDropEvent
libQt5Widgets.so.5:_ZN14QPlainTextEdit9showEventEP10QShowEvent
libQt5Widgets.so.5:_ZN14QPlainTextEditC1EP7QWidget
libQt5Widgets.so.5:_ZN14QStackedWidget12insertWidgetEiP7QWidget
libQt5Widgets.so.5:_ZN14QStackedWidget15setCurrentIndexEi
libQt5Widgets.so.5:_ZN14QStackedWidgetC1EP7QWidget
libQt5Widgets.so.5:_ZN15QAbstractButton10setCheckedEb
libQt5Widgets.so.5:_ZN15QAbstractButton11setShortcutERK12QKeySequence
libQt5Widgets.so.5:_ZN15QAbstractButton12setCheckableEb
libQt5Widgets.so.5:_ZN15QAbstractButton13setAutoRepeatEb
libQt5Widgets.so.5:_ZN15QAbstractButton16staticMetaObjectE
libQt5Widgets.so.5:_ZN15QAbstractButton7clickedEb
libQt5Widgets.so.5:_ZN15QAbstractButton7pressedEv
libQt5Widgets.so.5:_ZN15QAbstractButton7setIconERK5QIcon
libQt5Widgets.so.5:_ZN15QAbstractButton7setTextERK7QString
libQt5Widgets.so.5:_ZN15QAbstractButton7toggledEb
libQt5Widgets.so.5:_ZN15QAbstractButton8releasedEv
libQt5Widgets.so.5:_ZN15QListWidgetItem4readER11QDataStream
libQt5Widgets.so.5:_ZN15QListWidgetItem7setDataEiRK8QVariant
libQt5Widgets.so.5:_ZN15QListWidgetItem8setFlagsE6QFlagsIN2Qt8ItemFlagEE
libQt5Widgets.so.5:_ZN15QListWidgetItemC1EP11QListWidgeti
libQt5Widgets.so.5:_ZN15QListWidgetItemC1ERK5QIconRK7QStringP11QListWidgeti
libQt5Widgets.so.5:_ZN15QListWidgetItemC2EP11QListWidgeti
libQt5Widgets.so.5:_ZN15QListWidgetItemC2ERK5QIconRK7QStringP11QListWidgeti
libQt5Widgets.so.5:_ZN15QListWidgetItemD2Ev
libQt5Widgets.so.5:_ZN15QProgressDialog10setMaximumEi
libQt5Widgets.so.5:_ZN15QProgressDialog12setLabelTextERK7QString
libQt5Widgets.so.5:_ZN15QProgressDialog16staticMetaObjectE
libQt5Widgets.so.5:_ZN15QProgressDialog18setMinimumDurationEi
libQt5Widgets.so.5:_ZN15QProgressDialog8canceledEv
libQt5Widgets.so.5:_ZN15QProgressDialog8setValueEi
libQt5Widgets.so.5:_ZN15QProgressDialogC1EP7QWidget6QFlagsIN2Qt10WindowTypeEE
libQt5Widgets.so.5:_ZN15QTreeWidgetItem11setExpandedEb
libQt5Widgets.so.5:_ZN15QTreeWidgetItem11setSelectedEb
libQt5Widgets.so.5:_ZN15QTreeWidgetItem4readER11QDataStream
libQt5Widgets.so.5:_ZN15QTreeWidgetItem7setDataEiiRK8QVariant
libQt5Widgets.so.5:_ZN15QTreeWidgetItem8setFlagsE6QFlagsIN2Qt8ItemFlagEE
libQt5Widgets.so.5:_ZN15QTreeWidgetItemC1EP11QTreeWidgetPS_i
libQt5Widgets.so.5:_ZN15QTreeWidgetItemC1EP11QTreeWidgetRK11QStringListi
libQt5Widgets.so.5:_ZN15QTreeWidgetItemC1EP11QTreeWidgeti
libQt5Widgets.so.5:_ZN15QTreeWidgetItemC1EPS_RK11QStringListi
libQt5Widgets.so.5:_ZN15QTreeWidgetItemC1ERK11QStringListi
libQt5Widgets.so.5:_ZN15QTreeWidgetItemC1Ei
libQt5Widgets.so.5:_ZN15QTreeWidgetItemC2EP11QTreeWidgetPS_i
libQt5Widgets.so.5:_ZN15QTreeWidgetItemC2EP11QTreeWidgetRK11QStringListi
libQt5Widgets.so.5:_ZN15QTreeWidgetItemC2EP11QTreeWidgeti
libQt5Widgets.so.5:_ZN15QTreeWidgetItemD2Ev
libQt5Widgets.so.5:_ZN16QAbstractSpinBox19setSpecialValueTextERK7QString
libQt5Widgets.so.5:_ZN16QDialogButtonBox16staticMetaObjectE
libQt5Widgets.so.5:_ZN16QDialogButtonBox18setStandardButtonsE6QFlagsINS_14StandardButtonEE
libQt5Widgets.so.5:_ZN16QDialogButtonBox8acceptedEv
libQt5Widgets.so.5:_ZN16QDialogButtonBox8rejectedEv
libQt5Widgets.so.5:_ZN16QDialogButtonBox9addButtonEP15QAbstractButtonNS_10ButtonRoleE
libQt5Widgets.so.5:_ZN16QDialogButtonBoxC1E6QFlagsINS_14StandardButtonEEP7QWidget
libQt5Widgets.so.5:_ZN16QDialogButtonBoxC1EP7QWidget
libQt5Widgets.so.5:_ZN17QAbstractItemView10commitDataEP7QWidget
libQt5Widgets.so.5:_ZN17QAbstractItemView11closeEditorEP7QWidgetN21QAbstractItemDelegate11EndEditHintE
libQt5Widgets.so.5:_ZN17QAbstractItemView11eventFilterEP7QObjectP6QEvent
libQt5Widgets.so.5:_ZN17QAbstractItemView11resizeEventEP12QResizeEvent
libQt5Widgets.so.5:_ZN17QAbstractItemView12focusInEventEP11QFocusEvent
libQt5Widgets.so.5:_ZN17QAbstractItemView13doubleClickedERK11QModelIndex
libQt5Widgets.so.5:_ZN17QAbstractItemView13focusOutEventEP11QFocusEvent
libQt5Widgets.so.5:_ZN17QAbstractItemView14clearSelectionEv
libQt5Widgets.so.5:_ZN17QAbstractItemView14dragEnterEventEP15QDragEnterEvent
libQt5Widgets.so.5:_ZN17QAbstractItemView14dragLeaveEventEP15QDragLeaveEvent
libQt5Widgets.so.5:_ZN17QAbstractItemView14setDragEnabledEb
libQt5Widgets.so.5:_ZN17QAbstractItemView15editorDestroyedEP7QObject
libQt5Widgets.so.5:_ZN17QAbstractItemView15setDragDropModeENS_12DragDropModeE
libQt5Widgets.so.5:_ZN17QAbstractItemView15setEditTriggersE6QFlagsINS_11EditTriggerEE
libQt5Widgets.so.5:_ZN17QAbstractItemView16inputMethodEventEP17QInputMethodEvent
libQt5Widgets.so.5:_ZN17QAbstractItemView16setSelectionModeENS_13SelectionModeE
libQt5Widgets.so.5:_ZN17QAbstractItemView16staticMetaObjectE
libQt5Widgets.so.5:_ZN17QAbstractItemView16updateEditorDataEv
libQt5Widgets.so.5:_ZN17QAbstractItemView18focusNextPrevChildEb
libQt5Widgets.so.5:_ZN17QAbstractItemView21setDropIndicatorShownEb
libQt5Widgets.so.5:_ZN17QAbstractItemView22updateEditorGeometriesEv
libQt5Widgets.so.5:_ZN17QAbstractItemView23setAlternatingRowColorsEb
libQt5Widgets.so.5:_ZN17QAbstractItemView23verticalScrollbarActionEi
libQt5Widgets.so.5:_ZN17QAbstractItemView31horizontalScrollbarValueChangedEi
libQt5Widgets.so.5:_ZN17QAbstractItemView4editERK11QModelIndexNS_11EditTriggerEP6QEvent
libQt5Widgets.so.5:_ZN17QAbstractItemView5eventEP6QEvent
libQt5Widgets.so.5:_ZN17QAbstractItemView7clickedERK11QModelIndex
libQt5Widgets.so.5:_ZN17QAbstractItemView9dropEventEP10QDropEvent
libQt5Widgets.so.5:_ZN17QAbstractItemView9startDragE6QFlagsIN2Qt10DropActionEE
libQt5Widgets.so.5:_ZN18QStyleOptionButtonC1Ev
libQt5Widgets.so.5:_ZN19QAbstractScrollArea10wheelEventEP11QWheelEvent
libQt5Widgets.so.5:_ZN19QAbstractScrollArea11eventFilterEP7QObjectP6QEvent
libQt5Widgets.so.5:_ZN19QAbstractScrollArea13setupViewportEP7QWidget
libQt5Widgets.so.5:_ZN19QAbstractScrollArea13viewportEventEP6QEvent
libQt5Widgets.so.5:_ZN19QAbstractScrollArea16contextMenuEventEP17QContextMenuEvent
libQt5Widgets.so.5:_ZN19QAbstractScrollArea28setHorizontalScrollBarPolicyEN2Qt15ScrollBarPolicyE
libQt5Widgets.so.5:_ZN19QStyledItemDelegate11eventFilterEP7QObjectP6QEvent
libQt5Widgets.so.5:_ZN19QStyledItemDelegate11qt_metacallEN11QMetaObject4CallEiPPv
libQt5Widgets.so.5:_ZN19QStyledItemDelegate11qt_metacastEPKc
libQt5Widgets.so.5:_ZN19QStyledItemDelegate16staticMetaObjectE
libQt5Widgets.so.5:_ZN19QStyledItemDelegateC2EP7QObject
libQt5Widgets.so.5:_ZN19QStyledItemDelegateD2Ev
libQt5Widgets.so.5:_ZN21QAbstractItemDelegate9helpEventEP10QHelpEventP17QAbstractItemViewRK20QStyleOptionViewItemRK11QModelIndex
libQt5Widgets.so.5:_ZN21QStyleOptionFocusRectC1Ev
libQt5Widgets.so.5:_ZN23QTreeWidgetItemIteratorC1EP11QTreeWidget6QFlagsINS_12IteratorFlagEE
libQt5Widgets.so.5:_ZN23QTreeWidgetItemIteratorD1Ev
libQt5Widgets.so.5:_ZN23QTreeWidgetItemIteratorppEv
libQt5Widgets.so.5:_ZN5QMenu11aboutToShowEv
libQt5Widgets.so.5:_ZN5QMenu12addSeparatorEv
libQt5Widgets.so.5:_ZN5QMenu16staticMetaObjectE
libQt5Widgets.so.5:_ZN5QMenu4execERK6QPointP7QAction
libQt5Widgets.so.5:_ZN5QMenu5clearEv
libQt5Widgets.so.5:_ZN5QMenu7addMenuEPS_
libQt5Widgets.so.5:_ZN5QMenu7setIconERK5QIcon
libQt5Widgets.so.5:_ZN5QMenu8setTitleERK7QString
libQt5Widgets.so.5:_ZN5QMenu9addActionERK5QIconRK7QString
libQt5Widgets.so.5:_ZN5QMenu9addActionERK7QString
libQt5Widgets.so.5:_ZN5QMenu9triggeredEP7QAction
libQt5Widgets.so.5:_ZN5QMenuC1EP7QWidget
libQt5Widgets.so.5:_ZN5QMenuC1ERK7QStringP7QWidget
libQt5Widgets.so.5:_ZN5QMenuD1Ev
libQt5Widgets.so.5:_ZN6QFrame11changeEventEP6QEvent
libQt5Widgets.so.5:_ZN6QFrame13setFrameShapeENS_5ShapeE
libQt5Widgets.so.5:_ZN6QFrame13setFrameStyleEi
libQt5Widgets.so.5:_ZN6QFrame14setFrameShadowENS_6ShadowE
libQt5Widgets.so.5:_ZN6QFrameC1EP7QWidget6QFlagsIN2Qt10WindowTypeEE
libQt5Widgets.so.5:_ZN6QLabel10paintEventEP11QPaintEvent
libQt5Widgets.so.5:_ZN6QLabel11changeEventEP6QEvent
libQt5Widgets.so.5:_ZN6QLabel11qt_metacallEN11QMetaObject4CallEiPPv
libQt5Widgets.so.5:_ZN6QLabel11qt_metacastEPKc
libQt5Widgets.so.5:_ZN6QLabel11setWordWrapEb
libQt5Widgets.so.5:_ZN6QLabel12focusInEventEP11QFocusEvent
libQt5Widgets.so.5:_ZN6QLabel12setAlignmentE6QFlagsIN2Qt13AlignmentFlagEE
libQt5Widgets.so.5:_ZN6QLabel13focusOutEventEP11QFocusEvent
libQt5Widgets.so.5:_ZN6QLabel13keyPressEventEP9QKeyEvent
libQt5Widgets.so.5:_ZN6QLabel13linkActivatedERK7QString
libQt5Widgets.so.5:_ZN6QLabel13setTextFormatEN2Qt10TextFormatE
libQt5Widgets.so.5:_ZN6QLabel14mouseMoveEventEP11QMouseEvent
libQt5Widgets.so.5:_ZN6QLabel15mousePressEventEP11QMouseEvent
libQt5Widgets.so.5:_ZN6QLabel16contextMenuEventEP17QContextMenuEvent
libQt5Widgets.so.5:_ZN6QLabel16staticMetaObjectE
libQt5Widgets.so.5:_ZN6QLabel17mouseReleaseEventEP11QMouseEvent
libQt5Widgets.so.5:_ZN6QLabel18focusNextPrevChildEb
libQt5Widgets.so.5:_ZN6QLabel20setOpenExternalLinksEb
libQt5Widgets.so.5:_ZN6QLabel23setTextInteractionFlagsE6QFlagsIN2Qt19TextInteractionFlagEE
libQt5Widgets.so.5:_ZN6QLabel5clearEv
libQt5Widgets.so.5:_ZN6QLabel5eventEP6QEvent
libQt5Widgets.so.5:_ZN6QLabel7setTextERK7QString
libQt5Widgets.so.5:_ZN6QLabel8setBuddyEP7QWidget
libQt5Widgets.so.5:_ZN6QLabel9setPixmapERK7QPixmap
libQt5Widgets.so.5:_ZN6QLabelC1EP7QWidget6QFlagsIN2Qt10WindowTypeEE
libQt5Widgets.so.5:_ZN6QLabelC1ERK7QStringP7QWidget6QFlagsIN2Qt10WindowTypeEE
libQt5Widgets.so.5:_ZN6QLabelC2EP7QWidget6QFlagsIN2Qt10WindowTypeEE
libQt5Widgets.so.5:_ZN6QLabelC2ERK7QStringP7QWidget6QFlagsIN2Qt10WindowTypeEE
libQt5Widgets.so.5:_ZN6QLabelD2Ev
libQt5Widgets.so.5:_ZN7QAction10setCheckedEb
libQt5Widgets.so.5:_ZN7QAction10setEnabledEb
libQt5Widgets.so.5:_ZN7QAction10setToolTipERK7QString
libQt5Widgets.so.5:_ZN7QAction10setVisibleEb
libQt5Widgets.so.5:_ZN7QAction11setIconTextERK7QString
libQt5Widgets.so.5:_ZN7QAction11setMenuRoleENS_8MenuRoleE
libQt5Widgets.so.5:_ZN7QAction11setShortcutERK12QKeySequence
libQt5Widgets.so.5:_ZN7QAction12setCheckableEb
libQt5Widgets.so.5:_ZN7QAction12setSeparatorEb
libQt5Widgets.so.5:_ZN7QAction12setShortcutsERK5QListI12QKeySequenceE
libQt5Widgets.so.5:_ZN7QAction12setStatusTipERK7QString
libQt5Widgets.so.5:_ZN7QAction12setWhatsThisERK7QString
libQt5Widgets.so.5:_ZN7QAction16staticMetaObjectE
libQt5Widgets.so.5:_ZN7QAction18setShortcutContextEN2Qt15ShortcutContextE
libQt5Widgets.so.5:_ZN7QAction7setDataERK8QVariant
libQt5Widgets.so.5:_ZN7QAction7setIconERK5QIcon
libQt5Widgets.so.5:_ZN7QAction7setMenuEP5QMenu
libQt5Widgets.so.5:_ZN7QAction7setTextERK7QString
libQt5Widgets.so.5:_ZN7QAction7toggledEb
libQt5Widgets.so.5:_ZN7QAction8activateENS_11ActionEventE
libQt5Widgets.so.5:_ZN7QAction9triggeredEb
libQt5Widgets.so.5:_ZN7QActionC1EP7QObject
libQt5Widgets.so.5:_ZN7QActionC1ERK5QIconRK7QStringP7QObject
libQt5Widgets.so.5:_ZN7QActionC1ERK7QStringP7QObject
libQt5Widgets.so.5:_ZN7QDialog10closeEventEP11QCloseEvent
libQt5Widgets.so.5:_ZN7QDialog10setVisibleEb
libQt5Widgets.so.5:_ZN7QDialog11eventFilterEP7QObjectP6QEvent
libQt5Widgets.so.5:_ZN7QDialog11qt_metacallEN11QMetaObject4CallEiPPv
libQt5Widgets.so.5:_ZN7QDialog11qt_metacastEPKc
libQt5Widgets.so.5:_ZN7QDialog11resizeEventEP12QResizeEvent
libQt5Widgets.so.5:_ZN7QDialog13keyPressEventEP9QKeyEvent
libQt5Widgets.so.5:_ZN7QDialog16contextMenuEventEP17QContextMenuEvent
libQt5Widgets.so.5:_ZN7QDialog16staticMetaObjectE
libQt5Widgets.so.5:_ZN7QDialog4doneEi
libQt5Widgets.so.5:_ZN7QDialog4execEv
libQt5Widgets.so.5:_ZN7QDialog4openEv
libQt5Widgets.so.5:_ZN7QDialog6acceptEv
libQt5Widgets.so.5:_ZN7QDialog6rejectEv
libQt5Widgets.so.5:_ZN7QDialog8finishedEi
libQt5Widgets.so.5:_ZN7QDialog8rejectedEv
libQt5Widgets.so.5:_ZN7QDialog8setModalEb
libQt5Widgets.so.5:_ZN7QDialog9showEventEP10QShowEvent
libQt5Widgets.so.5:_ZN7QDialogC1EP7QWidget6QFlagsIN2Qt10WindowTypeEE
libQt5Widgets.so.5:_ZN7QDialogC2EP7QWidget6QFlagsIN2Qt10WindowTypeEE
libQt5Widgets.so.5:_ZN7QDialogD2Ev
libQt5Widgets.so.5:_ZN7QLayout12removeWidgetEP7QWidget
libQt5Widgets.so.5:_ZN7QLayout18setContentsMarginsERK8QMargins
libQt5Widgets.so.5:_ZN7QLayout18setContentsMarginsEiiii
libQt5Widgets.so.5:_ZN7QLayout9addWidgetEP7QWidget
libQt5Widgets.so.5:_ZN7QWidget10addActionsE5QListIP7QActionE
libQt5Widgets.so.5:_ZN7QWidget10adjustSizeEv
libQt5Widgets.so.5:_ZN7QWidget10closeEventEP11QCloseEvent
libQt5Widgets.so.5:_ZN7QWidget10enterEventEP6QEvent
libQt5Widgets.so.5:_ZN7QWidget10leaveEventEP6QEvent
libQt5Widgets.so.5:_ZN7QWidget10paintEventEP11QPaintEvent
libQt5Widgets.so.5:_ZN7QWidget10setEnabledEb
libQt5Widgets.so.5:_ZN7QWidget10setPaletteERK8QPalette
libQt5Widgets.so.5:_ZN7QWidget10setToolTipERK7QString
libQt5Widgets.so.5:_ZN7QWidget10setVisibleEb
libQt5Widgets.so.5:_ZN7QWidget10wheelEventEP11QWheelEvent
libQt5Widgets.so.5:_ZN7QWidget11actionEventEP12QActionEvent
libQt5Widgets.so.5:_ZN7QWidget11changeEventEP6QEvent
libQt5Widgets.so.5:_ZN7QWidget11nativeEventERK10QByteArrayPvPl
libQt5Widgets.so.5:_ZN7QWidget11qt_metacallEN11QMetaObject4CallEiPPv
libQt5Widgets.so.5:_ZN7QWidget11qt_metacastEPKc
libQt5Widgets.so.5:_ZN7QWidget11resizeEventEP12QResizeEvent
libQt5Widgets.so.5:_ZN7QWidget11setTabOrderEPS_S0_
libQt5Widgets.so.5:_ZN7QWidget11tabletEventEP12QTabletEvent
libQt5Widgets.so.5:_ZN7QWidget12focusInEventEP11QFocusEvent
libQt5Widgets.so.5:_ZN7QWidget12removeActionEP7QAction
libQt5Widgets.so.5:_ZN7QWidget12setAttributeEN2Qt15WidgetAttributeEb
libQt5Widgets.so.5:_ZN7QWidget12setFixedSizeEii
libQt5Widgets.so.5:_ZN7QWidget12setWhatsThisERK7QString
libQt5Widgets.so.5:_ZN7QWidget13dragMoveEventEP14QDragMoveEvent
libQt5Widgets.so.5:_ZN7QWidget13focusOutEventEP11QFocusEvent
libQt5Widgets.so.5:_ZN7QWidget13keyPressEventEP9QKeyEvent
libQt5Widgets.so.5:_ZN7QWidget13setFixedWidthEi
libQt5Widgets.so.5:_ZN7QWidget13setSizePolicyE11QSizePolicy
libQt5Widgets.so.5:_ZN7QWidget13setStyleSheetERK7QString
libQt5Widgets.so.5:_ZN7QWidget13setWindowIconERK5QIcon
libQt5Widgets.so.5:_ZN7QWidget14activateWindowEv
libQt5Widgets.so.5:_ZN7QWidget14dragEnterEventEP15QDragEnterEvent
libQt5Widgets.so.5:_ZN7QWidget14dragLeaveEventEP15QDragLeaveEvent
libQt5Widgets.so.5:_ZN7QWidget14mouseMoveEventEP11QMouseEvent
libQt5Widgets.so.5:_ZN7QWidget14setAcceptDropsEb
libQt5Widgets.so.5:_ZN7QWidget14setFocusPolicyEN2Qt11FocusPolicyE
libQt5Widgets.so.5:_ZN7QWidget14setMinimumSizeEii
libQt5Widgets.so.5:_ZN7QWidget14setWindowTitleERK7QString
libQt5Widgets.so.5:_ZN7QWidget14updateGeometryEv
libQt5Widgets.so.5:_ZN7QWidget15keyReleaseEventEP9QKeyEvent
libQt5Widgets.so.5:_ZN7QWidget15mousePressEventEP11QMouseEvent
libQt5Widgets.so.5:_ZN7QWidget15setMaximumWidthEi
libQt5Widgets.so.5:_ZN7QWidget15setMinimumWidthEi
libQt5Widgets.so.5:_ZN7QWidget16contextMenuEventEP17QContextMenuEvent
libQt5Widgets.so.5:_ZN7QWidget16inputMethodEventEP17QInputMethodEvent
libQt5Widgets.so.5:_ZN7QWidget16setMaximumHeightEi
libQt5Widgets.so.5:_ZN7QWidget16staticMetaObjectE
libQt5Widgets.so.5:_ZN7QWidget17mouseReleaseEventEP11QMouseEvent
libQt5Widgets.so.5:_ZN7QWidget17setUpdatesEnabledEb
libQt5Widgets.so.5:_ZN7QWidget18focusNextPrevChildEb
libQt5Widgets.so.5:_ZN7QWidget18setContentsMarginsERK8QMargins
libQt5Widgets.so.5:_ZN7QWidget18setContentsMarginsEiiii
libQt5Widgets.so.5:_ZN7QWidget20setContextMenuPolicyEN2Qt17ContextMenuPolicyE
libQt5Widgets.so.5:_ZN7QWidget21mouseDoubleClickEventEP11QMouseEvent
libQt5Widgets.so.5:_ZN7QWidget21setAutoFillBackgroundEb
libQt5Widgets.so.5:_ZN7QWidget26customContextMenuRequestedERK6QPoint
libQt5Widgets.so.5:_ZN7QWidget4hideEv
libQt5Widgets.so.5:_ZN7QWidget4showEv
libQt5Widgets.so.5:_ZN7QWidget5closeEv
libQt5Widgets.so.5:_ZN7QWidget5eventEP6QEvent
libQt5Widgets.so.5:_ZN7QWidget5raiseEv
libQt5Widgets.so.5:_ZN7QWidget6resizeERK5QSize
libQt5Widgets.so.5:_ZN7QWidget6updateEv
libQt5Widgets.so.5:_ZN7QWidget7setFontERK5QFont
libQt5Widgets.so.5:_ZN7QWidget8setFocusEN2Qt11FocusReasonE
libQt5Widgets.so.5:_ZN7QWidget9addActionEP7QAction
libQt5Widgets.so.5:_ZN7QWidget9dropEventEP10QDropEvent
libQt5Widgets.so.5:_ZN7QWidget9hideEventEP10QHideEvent
libQt5Widgets.so.5:_ZN7QWidget9moveEventEP10QMoveEvent
libQt5Widgets.so.5:_ZN7QWidget9setCursorERK7QCursor
libQt5Widgets.so.5:_ZN7QWidget9setLayoutEP7QLayout
libQt5Widgets.so.5:_ZN7QWidget9showEventEP10QShowEvent
libQt5Widgets.so.5:_ZN7QWidgetC1EPS_6QFlagsIN2Qt10WindowTypeEE
libQt5Widgets.so.5:_ZN7QWidgetC2EPS_6QFlagsIN2Qt10WindowTypeEE
libQt5Widgets.so.5:_ZN7QWidgetD2Ev
libQt5Widgets.so.5:_ZN8QSpinBox10setMaximumEi
libQt5Widgets.so.5:_ZN8QSpinBox10setMinimumEi
libQt5Widgets.so.5:_ZN8QSpinBox12valueChangedEi
libQt5Widgets.so.5:_ZN8QSpinBox13setSingleStepEi
libQt5Widgets.so.5:_ZN8QSpinBox16staticMetaObjectE
libQt5Widgets.so.5:_ZN8QSpinBox8setRangeEii
libQt5Widgets.so.5:_ZN8QSpinBox8setValueEi
libQt5Widgets.so.5:_ZN8QSpinBox9setSuffixERK7QString
libQt5Widgets.so.5:_ZN8QSpinBoxC1EP7QWidget
libQt5Widgets.so.5:_ZN9QCheckBox12stateChangedEi
libQt5Widgets.so.5:_ZN9QCheckBox13setCheckStateEN2Qt10CheckStateE
libQt5Widgets.so.5:_ZN9QCheckBox16staticMetaObjectE
libQt5Widgets.so.5:_ZN9QCheckBoxC1EP7QWidget
libQt5Widgets.so.5:_ZN9QCheckBoxC1ERK7QStringP7QWidget
libQt5Widgets.so.5:_ZN9QComboBox10insertItemEiRK5QIconRK7QStringRK8QVariant
libQt5Widgets.so.5:_ZN9QComboBox10paintEventEP11QPaintEvent
libQt5Widgets.so.5:_ZN9QComboBox10wheelEventEP11QWheelEvent
libQt5Widgets.so.5:_ZN9QComboBox11changeEventEP6QEvent
libQt5Widgets.so.5:_ZN9QComboBox11highlightedEi
libQt5Widgets.so.5:_ZN9QComboBox11insertItemsEiRK11QStringList
libQt5Widgets.so.5:_ZN9QComboBox11qt_metacallEN11QMetaObject4CallEiPPv
libQt5Widgets.so.5:_ZN9QComboBox11qt_metacastEPKc
libQt5Widgets.so.5:_ZN9QComboBox11resizeEventEP12QResizeEvent
libQt5Widgets.so.5:_ZN9QComboBox11setEditableEb
libQt5Widgets.so.5:_ZN9QComboBox11setItemTextEiRK7QString
libQt5Widgets.so.5:_ZN9QComboBox12focusInEventEP11QFocusEvent
libQt5Widgets.so.5:_ZN9QComboBox13focusOutEventEP11QFocusEvent
libQt5Widgets.so.5:_ZN9QComboBox13keyPressEventEP9QKeyEvent
libQt5Widgets.so.5:_ZN9QComboBox15keyReleaseEventEP9QKeyEvent
libQt5Widgets.so.5:_ZN9QComboBox15mousePressEventEP11QMouseEvent
libQt5Widgets.so.5:_ZN9QComboBox15setCurrentIndexEi
libQt5Widgets.so.5:_ZN9QComboBox16contextMenuEventEP17QContextMenuEvent
libQt5Widgets.so.5:_ZN9QComboBox16inputMethodEventEP17QInputMethodEvent
libQt5Widgets.so.5:_ZN9QComboBox16staticMetaObjectE
libQt5Widgets.so.5:_ZN9QComboBox17mouseReleaseEventEP11QMouseEvent
libQt5Widgets.so.5:_ZN9QComboBox19setSizeAdjustPolicyENS_16SizeAdjustPolicyE
libQt5Widgets.so.5:_ZN9QComboBox5eventEP6QEvent
libQt5Widgets.so.5:_ZN9QComboBox9activatedEi
libQt5Widgets.so.5:_ZN9QComboBox9hideEventEP10QHideEvent
libQt5Widgets.so.5:_ZN9QComboBox9hidePopupEv
libQt5Widgets.so.5:_ZN9QComboBox9showEventEP10QShowEvent
libQt5Widgets.so.5:_ZN9QComboBox9showPopupEv
libQt5Widgets.so.5:_ZN9QComboBoxC1EP7QWidget
libQt5Widgets.so.5:_ZN9QComboBoxC2EP7QWidget
libQt5Widgets.so.5:_ZN9QComboBoxD2Ev
libQt5Widgets.so.5:_ZN9QGroupBox10setCheckedEb
libQt5Widgets.so.5:_ZN9QGroupBox12setCheckableEb
libQt5Widgets.so.5:_ZN9QGroupBox16staticMetaObjectE
libQt5Widgets.so.5:_ZN9QGroupBox7toggledEb
libQt5Widgets.so.5:_ZN9QGroupBox8setTitleERK7QString
libQt5Widgets.so.5:_ZN9QGroupBoxC1EP7QWidget
libQt5Widgets.so.5:_ZN9QGroupBoxC1ERK7QStringP7QWidget
libQt5Widgets.so.5:_ZN9QLineEdit11setModifiedEb
libQt5Widgets.so.5:_ZN9QLineEdit11setReadOnlyEb
libQt5Widgets.so.5:_ZN9QLineEdit11textChangedERK7QString
libQt5Widgets.so.5:_ZN9QLineEdit12setValidatorEPK10QValidator
libQt5Widgets.so.5:_ZN9QLineEdit13returnPressedEv
libQt5Widgets.so.5:_ZN9QLineEdit16staticMetaObjectE
libQt5Widgets.so.5:_ZN9QLineEdit18setPlaceholderTextERK7QString
libQt5Widgets.so.5:_ZN9QLineEdit21setClearButtonEnabledEb
libQt5Widgets.so.5:_ZN9QLineEdit3cutEv
libQt5Widgets.so.5:_ZN9QLineEdit4redoEv
libQt5Widgets.so.5:_ZN9QLineEdit4undoEv
libQt5Widgets.so.5:_ZN9QLineEdit5clearEv
libQt5Widgets.so.5:_ZN9QLineEdit5pasteEv
libQt5Widgets.so.5:_ZN9QLineEdit7setTextERK7QString
libQt5Widgets.so.5:_ZN9QLineEdit9selectAllEv
libQt5Widgets.so.5:_ZN9QLineEditC1EP7QWidget
libQt5Widgets.so.5:_ZN9QLineEditC1ERK7QStringP7QWidget
libQt5Widgets.so.5:_ZN9QListView11setWordWrapEb
libQt5Widgets.so.5:_ZN9QListViewC1EP7QWidget
libQt5Widgets.so.5:_ZN9QSplitter12insertWidgetEiP7QWidget
libQt5Widgets.so.5:_ZN9QSplitter14setCollapsibleEib
libQt5Widgets.so.5:_ZN9QSplitter14setOrientationEN2Qt11OrientationE
libQt5Widgets.so.5:_ZN9QSplitter15setOpaqueResizeEb
libQt5Widgets.so.5:_ZN9QSplitter16setStretchFactorEii
libQt5Widgets.so.5:_ZN9QSplitter22setChildrenCollapsibleEb
libQt5Widgets.so.5:_ZN9QSplitter8setSizesERK5QListIiE
libQt5Widgets.so.5:_ZN9QSplitter9addWidgetEP7QWidget
libQt5Widgets.so.5:_ZN9QSplitterC1EN2Qt11OrientationEP7QWidget
libQt5Widgets.so.5:_ZN9QSplitterC1EP7QWidget
libQt5Widgets.so.5:_ZN9QTextEdit10insertHtmlERK7QString
libQt5Widgets.so.5:_ZN9QTextEdit10paintEventEP11QPaintEvent
libQt5Widgets.so.5:_ZN9QTextEdit10timerEventEP11QTimerEvent
libQt5Widgets.so.5:_ZN9QTextEdit11changeEventEP6QEvent
libQt5Widgets.so.5:_ZN9QTextEdit11resizeEventEP12QResizeEvent
libQt5Widgets.so.5:_ZN9QTextEdit11textChangedEv
libQt5Widgets.so.5:_ZN9QTextEdit12loadResourceEiRK4QUrl
libQt5Widgets.so.5:_ZN9QTextEdit13dragMoveEventEP14QDragMoveEvent
libQt5Widgets.so.5:_ZN9QTextEdit13focusOutEventEP11QFocusEvent
libQt5Widgets.so.5:_ZN9QTextEdit14dragEnterEventEP15QDragEnterEvent
libQt5Widgets.so.5:_ZN9QTextEdit14dragLeaveEventEP15QDragLeaveEvent
libQt5Widgets.so.5:_ZN9QTextEdit14mouseMoveEventEP11QMouseEvent
libQt5Widgets.so.5:_ZN9QTextEdit14setCursorWidthEi
libQt5Widgets.so.5:_ZN9QTextEdit15doSetTextCursorERK11QTextCursor
libQt5Widgets.so.5:_ZN9QTextEdit15insertPlainTextERK7QString
libQt5Widgets.so.5:_ZN9QTextEdit15keyReleaseEventEP9QKeyEvent
libQt5Widgets.so.5:_ZN9QTextEdit15mousePressEventEP11QMouseEvent
libQt5Widgets.so.5:_ZN9QTextEdit16inputMethodEventEP17QInputMethodEvent
libQt5Widgets.so.5:_ZN9QTextEdit16scrollContentsByEii
libQt5Widgets.so.5:_ZN9QTextEdit16selectionChangedEv
libQt5Widgets.so.5:_ZN9QTextEdit16setOverwriteModeEb
libQt5Widgets.so.5:_ZN9QTextEdit16staticMetaObjectE
libQt5Widgets.so.5:_ZN9QTextEdit18focusNextPrevChildEb
libQt5Widgets.so.5:_ZN9QTextEdit18setTabStopDistanceEd
libQt5Widgets.so.5:_ZN9QTextEdit21cursorPositionChangedEv
libQt5Widgets.so.5:_ZN9QTextEdit21mouseDoubleClickEventEP11QMouseEvent
libQt5Widgets.so.5:_ZN9QTextEdit3cutEv
libQt5Widgets.so.5:_ZN9QTextEdit4copyEv
libQt5Widgets.so.5:_ZN9QTextEdit4redoEv
libQt5Widgets.so.5:_ZN9QTextEdit4undoEv
libQt5Widgets.so.5:_ZN9QTextEdit5pasteEv
libQt5Widgets.so.5:_ZN9QTextEdit7setTextERK7QString
libQt5Widgets.so.5:_ZN9QTextEdit9dropEventEP10QDropEvent
libQt5Widgets.so.5:_ZN9QTextEdit9selectAllEv
libQt5Widgets.so.5:_ZN9QTextEdit9showEventEP10QShowEvent
libQt5Widgets.so.5:_ZN9QTreeView10hideColumnEi
libQt5Widgets.so.5:_ZN9QTreeView10moveCursorEN17QAbstractItemView12CursorActionE6QFlagsIN2Qt16KeyboardModifierEE
libQt5Widgets.so.5:_ZN9QTreeView10paintEventEP11QPaintEvent
libQt5Widgets.so.5:_ZN9QTreeView10timerEventEP11QTimerEvent
libQt5Widgets.so.5:_ZN9QTreeView11dataChangedERK11QModelIndexS2_RK7QVectorIiE
libQt5Widgets.so.5:_ZN9QTreeView11qt_metacallEN11QMetaObject4CallEiPPv
libQt5Widgets.so.5:_ZN9QTreeView11qt_metacastEPKc
libQt5Widgets.so.5:_ZN9QTreeView11setWordWrapEb
libQt5Widgets.so.5:_ZN9QTreeView12rowsInsertedERK11QModelIndexii
libQt5Widgets.so.5:_ZN9QTreeView12setRootIndexERK11QModelIndex
libQt5Widgets.so.5:_ZN9QTreeView12setSelectionERK5QRect6QFlagsIN19QItemSelectionModel13SelectionFlagEE
libQt5Widgets.so.5:_ZN9QTreeView12sortByColumnEiN2Qt9SortOrderE
libQt5Widgets.so.5:_ZN9QTreeView13doItemsLayoutEv
libQt5Widgets.so.5:_ZN9QTreeView13dragMoveEventEP14QDragMoveEvent
libQt5Widgets.so.5:_ZN9QTreeView13keyPressEventEP9QKeyEvent
libQt5Widgets.so.5:_ZN9QTreeView13viewportEventEP6QEvent
libQt5Widgets.so.5:_ZN9QTreeView14currentChangedERK11QModelIndexS2_
libQt5Widgets.so.5:_ZN9QTreeView14keyboardSearchERK7QString
libQt5Widgets.so.5:_ZN9QTreeView14mouseMoveEventEP11QMouseEvent
libQt5Widgets.so.5:_ZN9QTreeView14setColumnWidthEii
libQt5Widgets.so.5:_ZN9QTreeView15mousePressEventEP11QMouseEvent
libQt5Widgets.so.5:_ZN9QTreeView15setColumnHiddenEib
libQt5Widgets.so.5:_ZN9QTreeView15setHeaderHiddenEb
libQt5Widgets.so.5:_ZN9QTreeView16scrollContentsByEii
libQt5Widgets.so.5:_ZN9QTreeView16selectionChangedERK14QItemSelectionS2_
libQt5Widgets.so.5:_ZN9QTreeView16staticMetaObjectE
libQt5Widgets.so.5:_ZN9QTreeView16updateGeometriesEv
libQt5Widgets.so.5:_ZN9QTreeView17mouseReleaseEventEP11QMouseEvent
libQt5Widgets.so.5:_ZN9QTreeView17setSelectionModelEP19QItemSelectionModel
libQt5Widgets.so.5:_ZN9QTreeView17setSortingEnabledEb
libQt5Widgets.so.5:_ZN9QTreeView18setRootIsDecoratedEb
libQt5Widgets.so.5:_ZN9QTreeView20rowsAboutToBeRemovedERK11QModelIndexii
libQt5Widgets.so.5:_ZN9QTreeView20setUniformRowHeightsEb
libQt5Widgets.so.5:_ZN9QTreeView21mouseDoubleClickEventEP11QMouseEvent
libQt5Widgets.so.5:_ZN9QTreeView22setAllColumnsShowFocusEb
libQt5Widgets.so.5:_ZN9QTreeView25horizontalScrollbarActionEi
libQt5Widgets.so.5:_ZN9QTreeView29verticalScrollbarValueChangedEi
libQt5Widgets.so.5:_ZN9QTreeView5resetEv
libQt5Widgets.so.5:_ZN9QTreeView8scrollToERK11QModelIndexN17QAbstractItemView10ScrollHintE
libQt5Widgets.so.5:_ZN9QTreeView8setModelEP18QAbstractItemModel
libQt5Widgets.so.5:_ZN9QTreeView9expandAllEv
libQt5Widgets.so.5:_ZN9QTreeView9selectAllEv
libQt5Widgets.so.5:_ZN9QTreeViewC2EP7QWidget
libQt5Widgets.so.5:_ZN9QTreeViewD2Ev
libQt5Widgets.so.5:_ZNK10QTabWidget13currentWidgetEv
libQt5Widgets.so.5:_ZNK10QTabWidget14heightForWidthEi
libQt5Widgets.so.5:_ZNK10QTabWidget15minimumSizeHintEv
libQt5Widgets.so.5:_ZNK10QTabWidget17hasHeightForWidthEv
libQt5Widgets.so.5:_ZNK10QTabWidget5countEv
libQt5Widgets.so.5:_ZNK10QTabWidget6widgetEi
libQt5Widgets.so.5:_ZNK10QTabWidget7indexOfEP7QWidget
libQt5Widgets.so.5:_ZNK10QTabWidget8sizeHintEv
libQt5Widgets.so.5:_ZNK11QFileDialog13selectedFilesEv
libQt5Widgets.so.5:_ZNK11QFileDialog18selectedNameFilterEv
libQt5Widgets.so.5:_ZNK11QHeaderView18sortIndicatorOrderEv
libQt5Widgets.so.5:_ZNK11QHeaderView20sortIndicatorSectionEv
libQt5Widgets.so.5:_ZNK11QHeaderView9saveStateEv
libQt5Widgets.so.5:_ZNK11QListWidget10currentRowEv
libQt5Widgets.so.5:_ZNK11QListWidget11currentItemEv
libQt5Widgets.so.5:_ZNK11QListWidget4itemEi
libQt5Widgets.so.5:_ZNK11QListWidget5countEv
libQt5Widgets.so.5:_ZNK11QMainWindow7menuBarEv
libQt5Widgets.so.5:_ZNK11QMainWindow9statusBarEv
libQt5Widgets.so.5:_ZNK11QTreeWidget11columnCountEv
libQt5Widgets.so.5:_ZNK11QTreeWidget11currentItemEv
libQt5Widgets.so.5:_ZNK11QTreeWidget12topLevelItemEi
libQt5Widgets.so.5:_ZNK11QTreeWidget13selectedItemsEv
libQt5Widgets.so.5:_ZNK11QTreeWidget17topLevelItemCountEv
libQt5Widgets.so.5:_ZNK11QTreeWidget20supportedDropActionsEv
libQt5Widgets.so.5:_ZNK11QTreeWidget6itemAtERK6QPoint
libQt5Widgets.so.5:_ZNK11QTreeWidget8mimeDataE5QListIP15QTreeWidgetItemE
libQt5Widgets.so.5:_ZNK11QTreeWidget9itemAboveEPK15QTreeWidgetItem
libQt5Widgets.so.5:_ZNK11QTreeWidget9itemBelowEPK15QTreeWidgetItem
libQt5Widgets.so.5:_ZNK11QTreeWidget9mimeTypesEv
libQt5Widgets.so.5:_ZNK12QButtonGroup6buttonEi
libQt5Widgets.so.5:_ZNK12QButtonGroup7buttonsEv
libQt5Widgets.so.5:_ZNK12QButtonGroup9checkedIdEv
libQt5Widgets.so.5:_ZNK14QPlainTextEdit16inputMethodQueryEN2Qt16InputMethodQueryE
libQt5Widgets.so.5:_ZNK14QPlainTextEdit21canInsertFromMimeDataEPK9QMimeData
libQt5Widgets.so.5:_ZNK14QPlainTextEdit27createMimeDataFromSelectionEv
libQt5Widgets.so.5:_ZNK14QPlainTextEdit8documentEv
libQt5Widgets.so.5:_ZNK15QAbstractButton4iconEv
libQt5Widgets.so.5:_ZNK15QAbstractButton9isCheckedEv
libQt5Widgets.so.5:_ZNK15QListWidgetItem4dataEi
libQt5Widgets.so.5:_ZNK15QListWidgetItem5cloneEv
libQt5Widgets.so.5:_ZNK15QListWidgetItem5writeER11QDataStream
libQt5Widgets.so.5:_ZNK15QListWidgetItemltERKS_
libQt5Widgets.so.5:_ZNK15QProgressDialog11wasCanceledEv
libQt5Widgets.so.5:_ZNK15QProgressDialog7maximumEv
libQt5Widgets.so.5:_ZNK15QTreeWidgetItem10isSelectedEv
libQt5Widgets.so.5:_ZNK15QTreeWidgetItem4dataEii
libQt5Widgets.so.5:_ZNK15QTreeWidgetItem5cloneEv
libQt5Widgets.so.5:_ZNK15QTreeWidgetItem5flagsEv
libQt5Widgets.so.5:_ZNK15QTreeWidgetItem5writeER11QDataStream
libQt5Widgets.so.5:_ZNK15QTreeWidgetItemltERKS_
libQt5Widgets.so.5:_ZNK16QDialogButtonBox6buttonENS_14StandardButtonE
libQt5Widgets.so.5:_ZNK17QAbstractItemView11viewOptionsEv
libQt5Widgets.so.5:_ZNK17QAbstractItemView12currentIndexEv
libQt5Widgets.so.5:_ZNK17QAbstractItemView14selectionModelEv
libQt5Widgets.so.5:_ZNK17QAbstractItemView14sizeHintForRowEi
libQt5Widgets.so.5:_ZNK17QAbstractItemView16inputMethodQueryEN2Qt16InputMethodQueryE
libQt5Widgets.so.5:_ZNK17QAbstractItemView16selectionCommandERK11QModelIndexPK6QEvent
libQt5Widgets.so.5:_ZNK17QAbstractItemView5modelEv
libQt5Widgets.so.5:_ZNK19QAbstractScrollArea15minimumSizeHintEv
libQt5Widgets.so.5:_ZNK19QAbstractScrollArea16viewportSizeHintEv
libQt5Widgets.so.5:_ZNK19QAbstractScrollArea8sizeHintEv
libQt5Widgets.so.5:_ZNK19QAbstractScrollArea8viewportEv
libQt5Widgets.so.5:_ZNK19QStyledItemDelegate11displayTextERK8QVariantRK7QLocale
libQt5Widgets.so.5:_ZNK19QStyledItemDelegate12setModelDataEP7QWidgetP18QAbstractItemModelRK11QModelIndex
libQt5Widgets.so.5:_ZNK19QStyledItemDelegate13setEditorDataEP7QWidgetRK11QModelIndex
libQt5Widgets.so.5:_ZNK19QStyledItemDelegate15initStyleOptionEP20QStyleOptionViewItemRK11QModelIndex
libQt5Widgets.so.5:_ZNK19QStyledItemDelegate20updateEditorGeometryEP7QWidgetRK20QStyleOptionViewItemRK11QModelIndex
libQt5Widgets.so.5:_ZNK21QAbstractItemDelegate13destroyEditorEP7QWidgetRK11QModelIndex
libQt5Widgets.so.5:_ZNK21QAbstractItemDelegate13paintingRolesEv
libQt5Widgets.so.5:_ZNK5QMenu10menuActionEv
libQt5Widgets.so.5:_ZNK6QLabel14heightForWidthEi
libQt5Widgets.so.5:_ZNK6QLabel15minimumSizeHintEv
libQt5Widgets.so.5:_ZNK6QLabel4textEv
libQt5Widgets.so.5:_ZNK6QLabel8sizeHintEv
libQt5Widgets.so.5:_ZNK7QAction12parentWidgetEv
libQt5Widgets.so.5:_ZNK7QAction4dataEv
libQt5Widgets.so.5:_ZNK7QAction4menuEv
libQt5Widgets.so.5:_ZNK7QAction4textEv
libQt5Widgets.so.5:_ZNK7QAction8shortcutEv
libQt5Widgets.so.5:_ZNK7QAction9isCheckedEv
libQt5Widgets.so.5:_ZNK7QAction9isEnabledEv
libQt5Widgets.so.5:_ZNK7QAction9shortcutsEv
libQt5Widgets.so.5:_ZNK7QAction9whatsThisEv
libQt5Widgets.so.5:_ZNK7QDialog15minimumSizeHintEv
libQt5Widgets.so.5:_ZNK7QDialog8sizeHintEv
libQt5Widgets.so.5:_ZNK7QWidget10redirectedEP6QPoint
libQt5Widgets.so.5:_ZNK7QWidget10sizePolicyEv
libQt5Widgets.so.5:_ZNK7QWidget11focusWidgetEv
libQt5Widgets.so.5:_ZNK7QWidget11initPainterEP8QPainter
libQt5Widgets.so.5:_ZNK7QWidget11mapToGlobalERK6QPoint
libQt5Widgets.so.5:_ZNK7QWidget11minimumSizeEv
libQt5Widgets.so.5:_ZNK7QWidget11paintEngineEv
libQt5Widgets.so.5:_ZNK7QWidget12windowHandleEv
libQt5Widgets.so.5:_ZNK7QWidget13sharedPainterEv
libQt5Widgets.so.5:_ZNK7QWidget14heightForWidthEi
libQt5Widgets.so.5:_ZNK7QWidget14isActiveWindowEv
libQt5Widgets.so.5:_ZNK7QWidget15minimumSizeHintEv
libQt5Widgets.so.5:_ZNK7QWidget16inputMethodQueryEN2Qt16InputMethodQueryE
libQt5Widgets.so.5:_ZNK7QWidget17hasHeightForWidthEv
libQt5Widgets.so.5:_ZNK7QWidget5winIdEv
libQt5Widgets.so.5:_ZNK7QWidget6layoutEv
libQt5Widgets.so.5:_ZNK7QWidget6metricEN12QPaintDevice17PaintDeviceMetricE
libQt5Widgets.so.5:_ZNK7QWidget6windowEv
libQt5Widgets.so.5:_ZNK7QWidget7actionsEv
libQt5Widgets.so.5:_ZNK7QWidget7devTypeEv
libQt5Widgets.so.5:_ZNK7QWidget7paletteEv
libQt5Widgets.so.5:_ZNK7QWidget8sizeHintEv
libQt5Widgets.so.5:_ZNK7QWidget9whatsThisEv
libQt5Widgets.so.5:_ZNK8QSpinBox5valueEv
libQt5Widgets.so.5:_ZNK8QToolBar16toggleViewActionEv
libQt5Widgets.so.5:_ZNK9QComboBox11currentDataEi
libQt5Widgets.so.5:_ZNK9QComboBox11currentTextEv
libQt5Widgets.so.5:_ZNK9QComboBox12currentIndexEv
libQt5Widgets.so.5:_ZNK9QComboBox15minimumSizeHintEv
libQt5Widgets.so.5:_ZNK9QComboBox16inputMethodQueryEN2Qt16InputMethodQueryE
libQt5Widgets.so.5:_ZNK9QComboBox5countEv
libQt5Widgets.so.5:_ZNK9QComboBox5modelEv
libQt5Widgets.so.5:_ZNK9QComboBox8findDataERK8QVarianti6QFlagsIN2Qt9MatchFlagEE
libQt5Widgets.so.5:_ZNK9QComboBox8itemDataEii
libQt5Widgets.so.5:_ZNK9QComboBox8sizeHintEv
libQt5Widgets.so.5:_ZNK9QGroupBox9isCheckedEv
libQt5Widgets.so.5:_ZNK9QLineEdit10isModifiedEv
libQt5Widgets.so.5:_ZNK9QLineEdit4textEv
libQt5Widgets.so.5:_ZNK9QSplitter5sizesEv
libQt5Widgets.so.5:_ZNK9QTextEdit10textCursorEv
libQt5Widgets.so.5:_ZNK9QTextEdit11toPlainTextEv
libQt5Widgets.so.5:_ZNK9QTextEdit13overwriteModeEv
libQt5Widgets.so.5:_ZNK9QTextEdit16inputMethodQueryEN2Qt16InputMethodQueryE
libQt5Widgets.so.5:_ZNK9QTextEdit27createMimeDataFromSelectionEv
libQt5Widgets.so.5:_ZNK9QTextEdit8documentEv
libQt5Widgets.so.5:_ZNK9QTreeView10visualRectERK11QModelIndex
libQt5Widgets.so.5:_ZNK9QTreeView11columnWidthEi
libQt5Widgets.so.5:_ZNK9QTreeView12drawBranchesEP8QPainterRK5QRectRK11QModelIndex
libQt5Widgets.so.5:_ZNK9QTreeView13isIndexHiddenERK11QModelIndex
libQt5Widgets.so.5:_ZNK9QTreeView14verticalOffsetEv
libQt5Widgets.so.5:_ZNK9QTreeView15selectedIndexesEv
libQt5Widgets.so.5:_ZNK9QTreeView16horizontalOffsetEv
libQt5Widgets.so.5:_ZNK9QTreeView16viewportSizeHintEv
libQt5Widgets.so.5:_ZNK9QTreeView17sizeHintForColumnEi
libQt5Widgets.so.5:_ZNK9QTreeView24visualRegionForSelectionERK14QItemSelection
libQt5Widgets.so.5:_ZNK9QTreeView6headerEv
libQt5Widgets.so.5:_ZNK9QTreeView7drawRowEP8QPainterRK20QStyleOptionViewItemRK11QModelIndex
libQt5Widgets.so.5:_ZNK9QTreeView7indexAtERK6QPoint
libQt5Widgets.so.5:_ZTI11QTreeWidget
libQt5Widgets.so.5:_ZTI15QListWidgetItem
libQt5Widgets.so.5:_ZTI15QTreeWidgetItem
libQt5Widgets.so.5:_ZTI19QStyledItemDelegate
libQt5Widgets.so.5:_ZTI6QLabel
libQt5Widgets.so.5:_ZTI7QDialog
libQt5Widgets.so.5:_ZTI7QWidget
libQt5Widgets.so.5:_ZTI9QComboBox
libQt5Widgets.so.5:_ZTI9QTreeView
libQt5Widgets.so.5:_ZTV11QSpacerItem
libQt5Widgets.so.5:_ZThn16_NK7QWidget10redirectedEP6QPoint
libQt5Widgets.so.5:_ZThn16_NK7QWidget11initPainterEP8QPainter
libQt5Widgets.so.5:_ZThn16_NK7QWidget11paintEngineEv
libQt5Widgets.so.5:_ZThn16_NK7QWidget13sharedPainterEv
libQt5Widgets.so.5:_ZThn16_NK7QWidget6metricEN12QPaintDevice17PaintDeviceMetricE
libQt5Widgets.so.5:_ZThn16_NK7QWidget7devTypeEv
libQt5Widgets.so.5:_Zls6QDebugPK7QWidget
libQt5Xml.so.5:_ZN8QDomNodeD2Ev
libc.so.6:__cxa_atexit
libc.so.6:__fprintf_chk
libc.so.6:__libc_start_main
libc.so.6:__stack_chk_fail
libc.so.6:fwrite
libc.so.6:memcmp
libc.so.6:memcpy
libc.so.6:memmove
libc.so.6:memset
libc.so.6:stderr
libc.so.6:stdout
libc.so.6:strcmp
libc.so.6:strerror
libc.so.6:strlen
libgcc_s.so.1:_Unwind_Resume
libgpgmepp.so.6:_ZN5GpgME3KeyC1Ev
libgpgmepp.so.6:_ZNK5GpgME19KeyGenerationResult11fingerprintEv
libgpgmepp.so.6:_ZNK5GpgME3Key18primaryFingerprintEv
libgpgmepp.so.6:_ZNK5GpgME3Key7userIDsEv
libgpgmepp.so.6:_ZNK5GpgME5Error10isCanceledEv
libgpgmepp.so.6:_ZNK5GpgME5Error8asStringEv
libgpgmepp.so.6:_ZNK5GpgME6UserID2idEv
libgpgmepp.so.6:_ZNK5GpgME6UserID5emailEv
libgpgmepp.so.6:_ZNK5GpgME6UserID8validityEv
libm.so.6:atan2
libpthread.so.0:__errno_location
libqgpgme.so.7:_ZN6QGpgME12cryptoConfigEv
libqgpgme.so.7:_ZN6QGpgME16KeyForMailboxJob16staticMetaObjectE
libqgpgme.so.7:_ZN6QGpgME16KeyForMailboxJob6resultERKN5GpgME13KeyListResultERKNS1_3KeyERKNS1_6UserIDERK7QStringRKNS1_5ErrorE
libqgpgme.so.7:_ZN6QGpgME3Job11qt_metacallEN11QMetaObject4CallEiPPv
libqgpgme.so.7:_ZN6QGpgME3Job11qt_metacastEPKc
libqgpgme.so.7:_ZN6QGpgME3Job16staticMetaObjectE
libqgpgme.so.7:_ZN6QGpgME3Job4doneEv
libqgpgme.so.7:_ZN6QGpgME3JobC2EP7QObject
libqgpgme.so.7:_ZN6QGpgME3JobD2Ev
libqgpgme.so.7:_ZN6QGpgME5smimeEv
libqgpgme.so.7:_ZN6QGpgME7openpgpEv
libqgpgme.so.7:_ZNK6QGpgME3Job13auditLogErrorEv
libqgpgme.so.7:_ZNK6QGpgME3Job14auditLogAsHtmlEv
libstdc++.so.6:_ZNKSt8__detail20_Prime_rehash_policy14_M_need_rehashEmmm
libstdc++.so.6:_ZSt17__throw_bad_allocv
libstdc++.so.6:_ZSt20__throw_out_of_rangePKc
libstdc++.so.6:_ZSt25__throw_bad_function_callv
libstdc++.so.6:_ZSt9terminatev
libstdc++.so.6:_ZTISt12out_of_range
libstdc++.so.6:_ZTISt9bad_alloc
libstdc++.so.6:_ZTVN10__cxxabiv117__class_type_infoE
libstdc++.so.6:_ZTVN10__cxxabiv120__si_class_type_infoE
libstdc++.so.6:_ZTVN10__cxxabiv121__vmi_class_type_infoE
libstdc++.so.6:_ZdaPv
libstdc++.so.6:_ZdlPv
libstdc++.so.6:_ZdlPvm
libstdc++.so.6:_Znam
libstdc++.so.6:_Znwm
libstdc++.so.6:__cxa_allocate_exception
libstdc++.so.6:__cxa_begin_catch
libstdc++.so.6:__cxa_end_catch
libstdc++.so.6:__cxa_free_exception
libstdc++.so.6:__cxa_guard_abort
libstdc++.so.6:__cxa_guard_acquire
libstdc++.so.6:__cxa_guard_release
libstdc++.so.6:__cxa_pure_virtual
libstdc++.so.6:__cxa_rethrow
libstdc++.so.6:__cxa_throw
libstdc++.so.6:__dynamic_cast
libstdc++.so.6:__gxx_personality_v0
