libakai.so.0:_ZN10AkaiSample10LoadHeaderEv
libakai.so.0:_ZN10AkaiSample11GetDirEntryEv
libakai.so.0:_ZN10AkaiSample14LoadSampleDataEv
libakai.so.0:_ZN10AkaiSample17ReleaseSampleDataEv
libakai.so.0:_ZN10AkaiSample4ReadEPvj
libakai.so.0:_ZN10AkaiSample6SetPosEi20akai_stream_whence_t
libakai.so.0:_ZN10AkaiSampleC1EP9DiskImageP10AkaiVolumeRK12AkaiDirEntry
libakai.so.0:_ZN10AkaiSampleC2EP9DiskImageP10AkaiVolumeRK12AkaiDirEntry
libakai.so.0:_ZN10AkaiSampleD0Ev
libakai.so.0:_ZN10AkaiSampleD1Ev
libakai.so.0:_ZN10AkaiSampleD2Ev
libakai.so.0:_ZN10AkaiVolume10GetProgramERKNSt7__cxx1112basic_stringIcSt11char_traitsIcESaIcEEE
libakai.so.0:_ZN10AkaiVolume10GetProgramEj
libakai.so.0:_ZN10AkaiVolume11GetDirEntryEv
libakai.so.0:_ZN10AkaiVolume11ListSamplesERNSt7__cxx114listI12AkaiDirEntrySaIS2_EEE
libakai.so.0:_ZN10AkaiVolume12ListProgramsERNSt7__cxx114listI12AkaiDirEntrySaIS2_EEE
libakai.so.0:_ZN10AkaiVolume7IsEmptyEv
libakai.so.0:_ZN10AkaiVolume7ReadDirEv
libakai.so.0:_ZN10AkaiVolume9GetSampleERKNSt7__cxx1112basic_stringIcSt11char_traitsIcESaIcEEE
libakai.so.0:_ZN10AkaiVolume9GetSampleEj
libakai.so.0:_ZN10AkaiVolumeC1EP9DiskImageP13AkaiPartitionRK12AkaiDirEntry
libakai.so.0:_ZN10AkaiVolumeC2EP9DiskImageP13AkaiPartitionRK12AkaiDirEntry
libakai.so.0:_ZN10AkaiVolumeD0Ev
libakai.so.0:_ZN10AkaiVolumeD1Ev
libakai.so.0:_ZN10AkaiVolumeD2Ev
libakai.so.0:_ZN11AkaiProgram11GetDirEntryEv
libakai.so.0:_ZN11AkaiProgram11ListSamplesERNSt7__cxx114listINS0_12basic_stringIcSt11char_traitsIcESaIcEEESaIS6_EEE
libakai.so.0:_ZN11AkaiProgram4LoadEv
libakai.so.0:_ZN11AkaiProgram9GetSampleERKNSt7__cxx1112basic_stringIcSt11char_traitsIcESaIcEEE
libakai.so.0:_ZN11AkaiProgram9GetSampleEj
libakai.so.0:_ZN11AkaiProgramC1EP9DiskImageP10AkaiVolumeRK12AkaiDirEntry
libakai.so.0:_ZN11AkaiProgramC2EP9DiskImageP10AkaiVolumeRK12AkaiDirEntry
libakai.so.0:_ZN11AkaiProgramD0Ev
libakai.so.0:_ZN11AkaiProgramD1Ev
libakai.so.0:_ZN11AkaiProgramD2Ev
libakai.so.0:_ZN12AkaiKeygroup4LoadEP9DiskImage
libakai.so.0:_ZN13AkaiEnveloppe4LoadEP9DiskImage
libakai.so.0:_ZN13AkaiPartition11ListVolumesERNSt7__cxx114listI12AkaiDirEntrySaIS2_EEE
libakai.so.0:_ZN13AkaiPartition7IsEmptyEv
libakai.so.0:_ZN13AkaiPartition9GetVolumeERKNSt7__cxx1112basic_stringIcSt11char_traitsIcESaIcEEE
libakai.so.0:_ZN13AkaiPartition9GetVolumeEj
libakai.so.0:_ZN13AkaiPartitionC1EP9DiskImageP8AkaiDisk
libakai.so.0:_ZN13AkaiPartitionC2EP9DiskImageP8AkaiDisk
libakai.so.0:_ZN13AkaiPartitionD0Ev
libakai.so.0:_ZN13AkaiPartitionD1Ev
libakai.so.0:_ZN13AkaiPartitionD2Ev
libakai.so.0:_ZN14AkaiSampleLoop4LoadEP9DiskImage
libakai.so.0:_ZN15AkaiDiskElement11AkaiToAsciiEPci
libakai.so.0:_ZN15AkaiDiskElement12ReadDirEntryEP9DiskImageP13AkaiPartitionR12AkaiDirEntryii
libakai.so.0:_ZN15AkaiDiskElement7ReadFATEP9DiskImageP13AkaiPartitioni
libakai.so.0:_ZN18AkaiKeygroupSample4LoadEP9DiskImage
libakai.so.0:_ZN8AkaiDisk12GetPartitionEj
libakai.so.0:_ZN8AkaiDisk17GetPartitionCountEv
libakai.so.0:_ZN8AkaiDiskC1EP9DiskImage
libakai.so.0:_ZN8AkaiDiskC2EP9DiskImage
libakai.so.0:_ZN8AkaiDiskD0Ev
libakai.so.0:_ZN8AkaiDiskD1Ev
libakai.so.0:_ZN8AkaiDiskD2Ev
libakai.so.0:_ZN9DiskImage10OpenStreamEPKc
libakai.so.0:_ZN9DiskImage10WriteImageEPKc
libakai.so.0:_ZN9DiskImage4InitEv
libakai.so.0:_ZN9DiskImage4ReadEPvjj
libakai.so.0:_ZN9DiskImage6SetPosEi20akai_stream_whence_t
libakai.so.0:_ZN9DiskImage8ReadInt8EPh
libakai.so.0:_ZN9DiskImage8ReadInt8EPhj
libakai.so.0:_ZN9DiskImage8ReadInt8Ev
libakai.so.0:_ZN9DiskImage9AvailableEj
libakai.so.0:_ZN9DiskImage9ReadInt16EPt
libakai.so.0:_ZN9DiskImage9ReadInt16EPtj
libakai.so.0:_ZN9DiskImage9ReadInt16Ev
libakai.so.0:_ZN9DiskImage9ReadInt32EPj
libakai.so.0:_ZN9DiskImage9ReadInt32EPjj
libakai.so.0:_ZN9DiskImage9ReadInt32Ev
libakai.so.0:_ZN9DiskImageC1EPKc
libakai.so.0:_ZN9DiskImageC1Ei
libakai.so.0:_ZN9DiskImageC2EPKc
libakai.so.0:_ZN9DiskImageC2Ei
libakai.so.0:_ZN9DiskImageD0Ev
libakai.so.0:_ZN9DiskImageD1Ev
libakai.so.0:_ZN9DiskImageD2Ev
libakai.so.0:_ZNK9DiskImage6GetPosEv
libakai.so.0:_ZNK9DiskImage8GetStateEv
libgig.so.9:_ZN13Serialization6MemberC1ENSt7__cxx1112basic_stringIcSt11char_traitsIcESaIcEEENS_3UIDEmNS_8DataTypeE
libgig.so.9:_ZN13Serialization6MemberC1Ev
libgig.so.9:_ZN13Serialization6MemberC2ENSt7__cxx1112basic_stringIcSt11char_traitsIcESaIcEEENS_3UIDEmNS_8DataTypeE
libgig.so.9:_ZN13Serialization6MemberC2Ev
libgig.so.9:_ZN13Serialization6NO_UIDE
libgig.so.9:_ZN13Serialization6Object10setVersionEj
libgig.so.9:_ZN13Serialization6Object13setMinVersionEj
libgig.so.9:_ZN13Serialization6Object6removeERKNS_6MemberE
libgig.so.9:_ZN13Serialization6Object7membersEv
libgig.so.9:_ZN13Serialization6ObjectC1ESt6vectorINS_3UIDESaIS2_EENS_8DataTypeE
libgig.so.9:_ZN13Serialization6ObjectC1Ev
libgig.so.9:_ZN13Serialization6ObjectC2ESt6vectorINS_3UIDESaIS2_EENS_8DataTypeE
libgig.so.9:_ZN13Serialization6ObjectC2Ev
libgig.so.9:_ZN13Serialization7Archive10rootObjectEv
libgig.so.9:_ZN13Serialization7Archive10setCommentENSt7__cxx1112basic_stringIcSt11char_traitsIcESaIcEEE
libgig.so.9:_ZN13Serialization7Archive10setVersionERNS_6ObjectEj
libgig.so.9:_ZN13Serialization7Archive10valueAsIntERKNS_6ObjectE
libgig.so.9:_ZN13Serialization7Archive11objectByUIDERKNS_3UIDE
libgig.so.9:_ZN13Serialization7Archive11setIntValueERNS_6ObjectEl
libgig.so.9:_ZN13Serialization7Archive11valueAsBoolERKNS_6ObjectE
libgig.so.9:_ZN13Serialization7Archive11valueAsRealERKNS_6ObjectE
libgig.so.9:_ZN13Serialization7Archive12_popRootBlobERPKcS2_
libgig.so.9:_ZN13Serialization7Archive12removeMemberERNS_6ObjectERKNS_6MemberE
libgig.so.9:_ZN13Serialization7Archive12setAutoValueERNS_6ObjectENSt7__cxx1112basic_stringIcSt11char_traitsIcESaIcEEE
libgig.so.9:_ZN13Serialization7Archive12setBoolValueERNS_6ObjectEb
libgig.so.9:_ZN13Serialization7Archive12setEnumValueERNS_6ObjectEm
libgig.so.9:_ZN13Serialization7Archive12setRealValueERNS_6ObjectEd
libgig.so.9:_ZN13Serialization7Archive13setMinVersionERNS_6ObjectEj
libgig.so.9:_ZN13Serialization7Archive13valueAsStringB5cxx11ERKNS_6ObjectE
libgig.so.9:_ZN13Serialization7Archive15_encodeRootBlobB5cxx11Ev
libgig.so.9:_ZN13Serialization7Archive15_popObjectsBlobERPKcS2_
libgig.so.9:_ZN13Serialization7Archive5clearEv
libgig.so.9:_ZN13Serialization7Archive6Syncer10syncMemberERKNS_6MemberES4_
libgig.so.9:_ZN13Serialization7Archive6Syncer10syncObjectERKNS_6ObjectES4_
libgig.so.9:_ZN13Serialization7Archive6Syncer11syncPointerERKNS_6ObjectES4_
libgig.so.9:_ZN13Serialization7Archive6Syncer13syncPrimitiveERKNS_6ObjectES4_
libgig.so.9:_ZN13Serialization7Archive6Syncer17dstMemberMatchingERKNS_6ObjectES4_RKNS_6MemberE
libgig.so.9:_ZN13Serialization7Archive6SyncerC1ERS0_S2_
libgig.so.9:_ZN13Serialization7Archive6SyncerC2ERS0_S2_
libgig.so.9:_ZN13Serialization7Archive6decodeEPKhm
libgig.so.9:_ZN13Serialization7Archive6decodeERKSt6vectorIhSaIhEE
libgig.so.9:_ZN13Serialization7Archive6encodeEv
libgig.so.9:_ZN13Serialization7Archive6removeERKNS_6ObjectE
libgig.so.9:_ZN13Serialization7Archive7rawDataEv
libgig.so.9:_ZN13Serialization7Archive7setNameENSt7__cxx1112basic_stringIcSt11char_traitsIcESaIcEEE
libgig.so.9:_ZN13Serialization7ArchiveC1EPKhm
libgig.so.9:_ZN13Serialization7ArchiveC1ERKSt6vectorIhSaIhEE
libgig.so.9:_ZN13Serialization7ArchiveC1Ev
libgig.so.9:_ZN13Serialization7ArchiveC2EPKhm
libgig.so.9:_ZN13Serialization7ArchiveC2ERKSt6vectorIhSaIhEE
libgig.so.9:_ZN13Serialization7ArchiveC2Ev
libgig.so.9:_ZN13Serialization7ArchiveD0Ev
libgig.so.9:_ZN13Serialization7ArchiveD1Ev
libgig.so.9:_ZN13Serialization7ArchiveD2Ev
libgig.so.9:_ZN13Serialization7_encodeB5cxx11ERKNS_7Archive10ObjectPoolE
libgig.so.9:_ZN13Serialization8DataTypeC1EbiNSt7__cxx1112basic_stringIcSt11char_traitsIcESaIcEEES6_
libgig.so.9:_ZN13Serialization8DataTypeC1Ev
libgig.so.9:_ZN13Serialization8DataTypeC2EbiNSt7__cxx1112basic_stringIcSt11char_traitsIcESaIcEEES6_
libgig.so.9:_ZN13Serialization8DataTypeC2Ev
libgig.so.9:_ZN13Serialization9Exception12PrintMessageEv
libgig.so.9:_ZN13Serialization9Exception8assembleENSt7__cxx1112basic_stringIcSt11char_traitsIcESaIcEEEP13__va_list_tag
libgig.so.9:_ZN13Serialization9ExceptionC1ENSt7__cxx1112basic_stringIcSt11char_traitsIcESaIcEEEP13__va_list_tag
libgig.so.9:_ZN13Serialization9ExceptionC1ENSt7__cxx1112basic_stringIcSt11char_traitsIcESaIcEEEz
libgig.so.9:_ZN13Serialization9ExceptionC1Ev
libgig.so.9:_ZN13Serialization9ExceptionC2ENSt7__cxx1112basic_stringIcSt11char_traitsIcESaIcEEEP13__va_list_tag
libgig.so.9:_ZN13Serialization9ExceptionC2ENSt7__cxx1112basic_stringIcSt11char_traitsIcESaIcEEEz
libgig.so.9:_ZN13Serialization9ExceptionC2Ev
libgig.so.9:_ZN3DLS10Connection11ToConnBlockEv
libgig.so.9:_ZN3DLS10Connection4InitEPNS0_12conn_block_tE
libgig.so.9:_ZN3DLS10Instrument10CopyAssignEPKS0_
libgig.so.9:_ZN3DLS10Instrument10MoveRegionEPNS_6RegionES2_
libgig.so.9:_ZN3DLS10Instrument11LoadRegionsEv
libgig.so.9:_ZN3DLS10Instrument12DeleteChunksEv
libgig.so.9:_ZN3DLS10Instrument12DeleteRegionEPNS_6RegionE
libgig.so.9:_ZN3DLS10Instrument12UpdateChunksEPN4RIFF10progress_tE
libgig.so.9:_ZN3DLS10Instrument13GetNextRegionEv
libgig.so.9:_ZN3DLS10Instrument14CopyAssignCoreEPKS0_
libgig.so.9:_ZN3DLS10Instrument14GetFirstRegionEv
libgig.so.9:_ZN3DLS10Instrument9AddRegionEv
libgig.so.9:_ZN3DLS10InstrumentC1EPNS_4FileEPN4RIFF4ListE
libgig.so.9:_ZN3DLS10InstrumentC2EPNS_4FileEPN4RIFF4ListE
libgig.so.9:_ZN3DLS10InstrumentD0Ev
libgig.so.9:_ZN3DLS10InstrumentD1Ev
libgig.so.9:_ZN3DLS10InstrumentD2Ev
libgig.so.9:_ZN3DLS11Articulator10CopyAssignEPKS0_
libgig.so.9:_ZN3DLS11Articulator12DeleteChunksEv
libgig.so.9:_ZN3DLS11Articulator12UpdateChunksEPN4RIFF10progress_tE
libgig.so.9:_ZN3DLS11Articulator17LoadArticulationsEv
libgig.so.9:_ZN3DLS11Articulator19GetNextArticulationEv
libgig.so.9:_ZN3DLS11Articulator20GetFirstArticulationEv
libgig.so.9:_ZN3DLS11ArticulatorC1EPN4RIFF4ListE
libgig.so.9:_ZN3DLS11ArticulatorC2EPN4RIFF4ListE
libgig.so.9:_ZN3DLS11ArticulatorD0Ev
libgig.so.9:_ZN3DLS11ArticulatorD1Ev
libgig.so.9:_ZN3DLS11ArticulatorD2Ev
libgig.so.9:_ZN3DLS11libraryNameB5cxx11Ev
libgig.so.9:_ZN3DLS12Articulation12DeleteChunksEv
libgig.so.9:_ZN3DLS12Articulation12UpdateChunksEPN4RIFF10progress_tE
libgig.so.9:_ZN3DLS12ArticulationC1EPN4RIFF5ChunkE
libgig.so.9:_ZN3DLS12ArticulationC2EPN4RIFF5ChunkE
libgig.so.9:_ZN3DLS12ArticulationD0Ev
libgig.so.9:_ZN3DLS12ArticulationD1Ev
libgig.so.9:_ZN3DLS12ArticulationD2Ev
libgig.so.9:_ZN3DLS14libraryVersionB5cxx11Ev
libgig.so.9:_ZN3DLS4File11GetFileNameB5cxx11Ev
libgig.so.9:_ZN3DLS4File11GetRiffFileEv
libgig.so.9:_ZN3DLS4File11LoadSamplesEv
libgig.so.9:_ZN3DLS4File11SetFileNameERKNSt7__cxx1112basic_stringIcSt11char_traitsIcESaIcEEE
libgig.so.9:_ZN3DLS4File12DeleteSampleEPNS_6SampleE
libgig.so.9:_ZN3DLS4File12UpdateChunksEPN4RIFF10progress_tE
libgig.so.9:_ZN3DLS4File13AddInstrumentEv
libgig.so.9:_ZN3DLS4File13GetNextSampleEv
libgig.so.9:_ZN3DLS4File14GetFirstSampleEv
libgig.so.9:_ZN3DLS4File15LoadInstrumentsEv
libgig.so.9:_ZN3DLS4File16DeleteInstrumentEPNS_10InstrumentE
libgig.so.9:_ZN3DLS4File16GetExtensionFileEi
libgig.so.9:_ZN3DLS4File17GetNextInstrumentEv
libgig.so.9:_ZN3DLS4File17UpdateFileOffsetsEv
libgig.so.9:_ZN3DLS4File18GetFirstInstrumentEv
libgig.so.9:_ZN3DLS4File21__UpdateWavePoolTableEv
libgig.so.9:_ZN3DLS4File26__UpdateWavePoolTableChunkEv
libgig.so.9:_ZN3DLS4File28__ensureMandatoryChunksExistEv
libgig.so.9:_ZN3DLS4File4SaveEPN4RIFF10progress_tE
libgig.so.9:_ZN3DLS4File4SaveERKNSt7__cxx1112basic_stringIcSt11char_traitsIcESaIcEEEPN4RIFF10progress_tE
libgig.so.9:_ZN3DLS4File9AddSampleEv
libgig.so.9:_ZN3DLS4FileC1EPN4RIFF4FileE
libgig.so.9:_ZN3DLS4FileC1Ev
libgig.so.9:_ZN3DLS4FileC2EPN4RIFF4FileE
libgig.so.9:_ZN3DLS4FileC2Ev
libgig.so.9:_ZN3DLS4FileD0Ev
libgig.so.9:_ZN3DLS4FileD1Ev
libgig.so.9:_ZN3DLS4FileD2Ev
libgig.so.9:_ZN3DLS4Info10CopyAssignEPKS0_
libgig.so.9:_ZN3DLS4Info10LoadStringEjPN4RIFF4ListERNSt7__cxx1112basic_stringIcSt11char_traitsIcESaIcEEE
libgig.so.9:_ZN3DLS4Info10SaveStringEjPN4RIFF4ListERKNSt7__cxx1112basic_stringIcSt11char_traitsIcESaIcEEESB_
libgig.so.9:_ZN3DLS4Info12DeleteChunksEv
libgig.so.9:_ZN3DLS4Info12UpdateChunksEPN4RIFF10progress_tE
libgig.so.9:_ZN3DLS4Info21SetFixedStringLengthsEPKNS0_15string_length_tE
libgig.so.9:_ZN3DLS4InfoC1EPN4RIFF4ListE
libgig.so.9:_ZN3DLS4InfoC2EPN4RIFF4ListE
libgig.so.9:_ZN3DLS4InfoD0Ev
libgig.so.9:_ZN3DLS4InfoD1Ev
libgig.so.9:_ZN3DLS4InfoD2Ev
libgig.so.9:_ZN3DLS6Region10CopyAssignEPKS0_
libgig.so.9:_ZN3DLS6Region11SetKeyRangeEtt
libgig.so.9:_ZN3DLS6Region12DeleteChunksEv
libgig.so.9:_ZN3DLS6Region12UpdateChunksEPN4RIFF10progress_tE
libgig.so.9:_ZN3DLS6Region9GetSampleEv
libgig.so.9:_ZN3DLS6Region9SetSampleEPNS_6SampleE
libgig.so.9:_ZN3DLS6RegionC1EPNS_10InstrumentEPN4RIFF4ListE
libgig.so.9:_ZN3DLS6RegionC2EPNS_10InstrumentEPN4RIFF4ListE
libgig.so.9:_ZN3DLS6RegionD0Ev
libgig.so.9:_ZN3DLS6RegionD1Ev
libgig.so.9:_ZN3DLS6RegionD2Ev
libgig.so.9:_ZN3DLS6Sample10CopyAssignEPKS0_
libgig.so.9:_ZN3DLS6Sample12DeleteChunksEv
libgig.so.9:_ZN3DLS6Sample12UpdateChunksEPN4RIFF10progress_tE
libgig.so.9:_ZN3DLS6Sample14CopyAssignCoreEPKS0_
libgig.so.9:_ZN3DLS6Sample14LoadSampleDataEv
libgig.so.9:_ZN3DLS6Sample17ReleaseSampleDataEv
libgig.so.9:_ZN3DLS6Sample4ReadEPvm
libgig.so.9:_ZN3DLS6Sample5WriteEPvm
libgig.so.9:_ZN3DLS6Sample6ResizeEm
libgig.so.9:_ZN3DLS6Sample6SetPosEmN4RIFF15stream_whence_tE
libgig.so.9:_ZN3DLS6SampleC1EPNS_4FileEPN4RIFF4ListEm
libgig.so.9:_ZN3DLS6SampleC2EPNS_4FileEPN4RIFF4ListEm
libgig.so.9:_ZN3DLS6SampleD0Ev
libgig.so.9:_ZN3DLS6SampleD1Ev
libgig.so.9:_ZN3DLS6SampleD2Ev
libgig.so.9:_ZN3DLS7Sampler10CopyAssignEPKS0_
libgig.so.9:_ZN3DLS7Sampler12DeleteChunksEv
libgig.so.9:_ZN3DLS7Sampler12UpdateChunksEPN4RIFF10progress_tE
libgig.so.9:_ZN3DLS7Sampler13AddSampleLoopEPNS_13sample_loop_tE
libgig.so.9:_ZN3DLS7Sampler16DeleteSampleLoopEPNS_13sample_loop_tE
libgig.so.9:_ZN3DLS7Sampler7SetGainEi
libgig.so.9:_ZN3DLS7SamplerC1EPN4RIFF4ListE
libgig.so.9:_ZN3DLS7SamplerC2EPN4RIFF4ListE
libgig.so.9:_ZN3DLS7SamplerD0Ev
libgig.so.9:_ZN3DLS7SamplerD1Ev
libgig.so.9:_ZN3DLS7SamplerD2Ev
libgig.so.9:_ZN3DLS8Resource10CopyAssignEPKS0_
libgig.so.9:_ZN3DLS8Resource12DeleteChunksEv
libgig.so.9:_ZN3DLS8Resource12UpdateChunksEPN4RIFF10progress_tE
libgig.so.9:_ZN3DLS8Resource13GenerateDLSIDEPNS_7dlsid_tE
libgig.so.9:_ZN3DLS8Resource13GenerateDLSIDEv
libgig.so.9:_ZN3DLS8ResourceC1EPS0_PN4RIFF4ListE
libgig.so.9:_ZN3DLS8ResourceC2EPS0_PN4RIFF4ListE
libgig.so.9:_ZN3DLS8ResourceD0Ev
libgig.so.9:_ZN3DLS8ResourceD1Ev
libgig.so.9:_ZN3DLS8ResourceD2Ev
libgig.so.9:_ZN3DLS9Exception12PrintMessageEv
libgig.so.9:_ZN3DLS9ExceptionC1ENSt7__cxx1112basic_stringIcSt11char_traitsIcESaIcEEEP13__va_list_tag
libgig.so.9:_ZN3DLS9ExceptionC1ENSt7__cxx1112basic_stringIcSt11char_traitsIcESaIcEEEz
libgig.so.9:_ZN3DLS9ExceptionC1Ev
libgig.so.9:_ZN3DLS9ExceptionC2ENSt7__cxx1112basic_stringIcSt11char_traitsIcESaIcEEEP13__va_list_tag
libgig.so.9:_ZN3DLS9ExceptionC2ENSt7__cxx1112basic_stringIcSt11char_traitsIcESaIcEEEz
libgig.so.9:_ZN3DLS9ExceptionC2Ev
libgig.so.9:_ZN3gig10Instrument10CopyAssignEPKS0_
libgig.so.9:_ZN3gig10Instrument10CopyAssignEPKS0_PKSt3mapIPNS_6SampleES5_St4lessIS5_ESaISt4pairIKS5_S5_EEE
libgig.so.9:_ZN3gig10Instrument11GetMidiRuleEi
libgig.so.9:_ZN3gig10Instrument11LoadScriptsEv
libgig.so.9:_ZN3gig10Instrument12DeleteRegionEPNS_6RegionE
libgig.so.9:_ZN3gig10Instrument12RemoveScriptEPNS_6ScriptE
libgig.so.9:_ZN3gig10Instrument12UpdateChunksEPN4RIFF10progress_tE
libgig.so.9:_ZN3gig10Instrument13AddScriptSlotEPNS_6ScriptEb
libgig.so.9:_ZN3gig10Instrument13GetNextRegionEv
libgig.so.9:_ZN3gig10Instrument14DeleteMidiRuleEi
libgig.so.9:_ZN3gig10Instrument14GetFirstRegionEv
libgig.so.9:_ZN3gig10Instrument15GetScriptOfSlotEj
libgig.so.9:_ZN3gig10Instrument15SwapScriptSlotsEjj
libgig.so.9:_ZN3gig10Instrument16RemoveScriptSlotEj
libgig.so.9:_ZN3gig10Instrument17AddMidiRuleLegatoEv
libgig.so.9:_ZN3gig10Instrument20IsScriptSlotBypassedEj
libgig.so.9:_ZN3gig10Instrument20UpdateRegionKeyTableEv
libgig.so.9:_ZN3gig10Instrument21AddMidiRuleAlternatorEv
libgig.so.9:_ZN3gig10Instrument21SetScriptSlotBypassedEjb
libgig.so.9:_ZN3gig10Instrument22AddMidiRuleCtrlTriggerEv
libgig.so.9:_ZN3gig10Instrument23UpdateScriptFileOffsetsEv
libgig.so.9:_ZN3gig10Instrument6MoveToEPS0_
libgig.so.9:_ZN3gig10Instrument9AddRegionEv
libgig.so.9:_ZN3gig10Instrument9GetRegionEj
libgig.so.9:_ZN3gig10InstrumentC1EPNS_4FileEPN4RIFF4ListEPNS3_10progress_tE
libgig.so.9:_ZN3gig10InstrumentC2EPNS_4FileEPN4RIFF4ListEPNS3_10progress_tE
libgig.so.9:_ZN3gig10InstrumentD0Ev
libgig.so.9:_ZN3gig10InstrumentD1Ev
libgig.so.9:_ZN3gig10InstrumentD2Ev
libgig.so.9:_ZN3gig11ScriptGroup11LoadScriptsEv
libgig.so.9:_ZN3gig11ScriptGroup12DeleteChunksEv
libgig.so.9:_ZN3gig11ScriptGroup12DeleteScriptEPNS_6ScriptE
libgig.so.9:_ZN3gig11ScriptGroup12UpdateChunksEPN4RIFF10progress_tE
libgig.so.9:_ZN3gig11ScriptGroup9AddScriptEv
libgig.so.9:_ZN3gig11ScriptGroup9GetScriptEj
libgig.so.9:_ZN3gig11ScriptGroupC1EPNS_4FileEPN4RIFF4ListE
libgig.so.9:_ZN3gig11ScriptGroupC2EPNS_4FileEPN4RIFF4ListE
libgig.so.9:_ZN3gig11ScriptGroupD0Ev
libgig.so.9:_ZN3gig11ScriptGroupD1Ev
libgig.so.9:_ZN3gig11ScriptGroupD2Ev
libgig.so.9:_ZN3gig11crossfade_t9serializeEPN13Serialization7ArchiveE
libgig.so.9:_ZN3gig11libraryNameB5cxx11Ev
libgig.so.9:_ZN3gig14MidiRuleLegatoC1EPN4RIFF5ChunkE
libgig.so.9:_ZN3gig14MidiRuleLegatoC1Ev
libgig.so.9:_ZN3gig14MidiRuleLegatoC2EPN4RIFF5ChunkE
libgig.so.9:_ZN3gig14MidiRuleLegatoC2Ev
libgig.so.9:_ZN3gig14libraryVersionB5cxx11Ev
libgig.so.9:_ZN3gig15DimensionRegion10CopyAssignEPKS0_
libgig.so.9:_ZN3gig15DimensionRegion10CopyAssignEPKS0_PKSt3mapIPNS_6SampleES5_St4lessIS5_ESaISt4pairIKS5_S5_EEE
libgig.so.9:_ZN3gig15DimensionRegion12UpdateChunksEPN4RIFF10progress_tE
libgig.so.9:_ZN3gig15DimensionRegion15pVelocityTablesE
libgig.so.9:_ZN3gig15DimensionRegion16GetVelocityTableENS_12curve_type_tEhh
libgig.so.9:_ZN3gig15DimensionRegion17GetVelocityCutoffEh
libgig.so.9:_ZN3gig15DimensionRegion18GetVelocityReleaseEh
libgig.so.9:_ZN3gig15DimensionRegion19CreateVelocityTableENS_12curve_type_tEhh
libgig.so.9:_ZN3gig15DimensionRegion19SetVCFVelocityCurveENS_12curve_type_tE
libgig.so.9:_ZN3gig15DimensionRegion19SetVCFVelocityScaleEh
libgig.so.9:_ZN3gig15DimensionRegion22GetCutoffVelocityTableENS_12curve_type_tEhhNS_17vcf_cutoff_ctrl_tE
libgig.so.9:_ZN3gig15DimensionRegion22GetVelocityAttenuationEh
libgig.so.9:_ZN3gig15DimensionRegion22SetVCFCutoffControllerENS_17vcf_cutoff_ctrl_tE
libgig.so.9:_ZN3gig15DimensionRegion23GetReleaseVelocityTableENS_12curve_type_tEh
libgig.so.9:_ZN3gig15DimensionRegion24DecodeLeverageControllerENS0_11_lev_ctrl_tE
libgig.so.9:_ZN3gig15DimensionRegion24EncodeLeverageControllerENS_15leverage_ctrl_tE
libgig.so.9:_ZN3gig15DimensionRegion24SetVelocityResponseCurveENS_12curve_type_tE
libgig.so.9:_ZN3gig15DimensionRegion24SetVelocityResponseDepthEh
libgig.so.9:_ZN3gig15DimensionRegion26SetVCFVelocityDynamicRangeEh
libgig.so.9:_ZN3gig15DimensionRegion31SetReleaseVelocityResponseCurveENS_12curve_type_tE
libgig.so.9:_ZN3gig15DimensionRegion31SetReleaseVelocityResponseDepthEh
libgig.so.9:_ZN3gig15DimensionRegion31SetVelocityResponseCurveScalingEh
libgig.so.9:_ZN3gig15DimensionRegion7SetGainEi
libgig.so.9:_ZN3gig15DimensionRegion9InstancesE
libgig.so.9:_ZN3gig15DimensionRegion9serializeEPN13Serialization7ArchiveE
libgig.so.9:_ZN3gig15DimensionRegionC1EPN4RIFF4ListERKS0_
libgig.so.9:_ZN3gig15DimensionRegionC1EPNS_6RegionEPN4RIFF4ListE
libgig.so.9:_ZN3gig15DimensionRegionC2EPN4RIFF4ListERKS0_
libgig.so.9:_ZN3gig15DimensionRegionC2EPNS_6RegionEPN4RIFF4ListE
libgig.so.9:_ZN3gig15DimensionRegionD0Ev
libgig.so.9:_ZN3gig15DimensionRegionD1Ev
libgig.so.9:_ZN3gig15DimensionRegionD2Ev
libgig.so.9:_ZN3gig15leverage_ctrl_t9serializeEPN13Serialization7ArchiveE
libgig.so.9:_ZN3gig18MidiRuleAlternatorC1EPN4RIFF5ChunkE
libgig.so.9:_ZN3gig18MidiRuleAlternatorC1Ev
libgig.so.9:_ZN3gig18MidiRuleAlternatorC2EPN4RIFF5ChunkE
libgig.so.9:_ZN3gig18MidiRuleAlternatorC2Ev
libgig.so.9:_ZN3gig19MidiRuleCtrlTriggerC1EPN4RIFF5ChunkE
libgig.so.9:_ZN3gig19MidiRuleCtrlTriggerC1Ev
libgig.so.9:_ZN3gig19MidiRuleCtrlTriggerC2EPN4RIFF5ChunkE
libgig.so.9:_ZN3gig19MidiRuleCtrlTriggerC2Ev
libgig.so.9:_ZN3gig4File10LoadGroupsEv
libgig.so.9:_ZN3gig4File11DeleteGroupEPNS_5GroupE
libgig.so.9:_ZN3gig4File11GetAutoLoadEv
libgig.so.9:_ZN3gig4File11LoadSamplesEPN4RIFF10progress_tE
libgig.so.9:_ZN3gig4File11LoadSamplesEv
libgig.so.9:_ZN3gig4File11SetAutoLoadEb
libgig.so.9:_ZN3gig4File12AddContentOfEPS0_
libgig.so.9:_ZN3gig4File12CountSamplesEv
libgig.so.9:_ZN3gig4File12DeleteSampleEPNS_6SampleE
libgig.so.9:_ZN3gig4File12GetNextGroupEv
libgig.so.9:_ZN3gig4File12UpdateChunksEPN4RIFF10progress_tE
libgig.so.9:_ZN3gig4File13AddInstrumentEv
libgig.so.9:_ZN3gig4File13GetFirstGroupEv
libgig.so.9:_ZN3gig4File13GetInstrumentEjPN4RIFF10progress_tE
libgig.so.9:_ZN3gig4File13GetNextSampleEv
libgig.so.9:_ZN3gig4File14AddScriptGroupEv
libgig.so.9:_ZN3gig4File14GetFirstSampleEPN4RIFF10progress_tE
libgig.so.9:_ZN3gig4File14GetScriptGroupERKNSt7__cxx1112basic_stringIcSt11char_traitsIcESaIcEEE
libgig.so.9:_ZN3gig4File14GetScriptGroupEj
libgig.so.9:_ZN3gig4File15DeleteGroupOnlyEPNS_5GroupE
libgig.so.9:_ZN3gig4File15LoadInstrumentsEPN4RIFF10progress_tE
libgig.so.9:_ZN3gig4File15LoadInstrumentsEv
libgig.so.9:_ZN3gig4File16CountInstrumentsEv
libgig.so.9:_ZN3gig4File16DeleteInstrumentEPNS_10InstrumentE
libgig.so.9:_ZN3gig4File16LoadScriptGroupsEv
libgig.so.9:_ZN3gig4File17DeleteScriptGroupEPNS_11ScriptGroupE
libgig.so.9:_ZN3gig4File17GetNextInstrumentEv
libgig.so.9:_ZN3gig4File17GetSampleChecksumEPNS_6SampleE
libgig.so.9:_ZN3gig4File17SetSampleChecksumEPNS_6SampleEj
libgig.so.9:_ZN3gig4File17UpdateFileOffsetsEv
libgig.so.9:_ZN3gig4File18GetFirstInstrumentEv
libgig.so.9:_ZN3gig4File19GetWaveTableIndexOfEPNS_6SampleE
libgig.so.9:_ZN3gig4File22AddDuplicateInstrumentEPKNS_10InstrumentE
libgig.so.9:_ZN3gig4File24GetSampleChecksumByIndexEi
libgig.so.9:_ZN3gig4File25VerifySampleChecksumTableEv
libgig.so.9:_ZN3gig4File26RebuildSampleChecksumTableEv
libgig.so.9:_ZN3gig4File8AddGroupEv
libgig.so.9:_ZN3gig4File8GetGroupENSt7__cxx1112basic_stringIcSt11char_traitsIcESaIcEEE
libgig.so.9:_ZN3gig4File8GetGroupEj
libgig.so.9:_ZN3gig4File9AddSampleEv
libgig.so.9:_ZN3gig4File9GetSampleEj
libgig.so.9:_ZN3gig4File9VERSION_2E
libgig.so.9:_ZN3gig4File9VERSION_3E
libgig.so.9:_ZN3gig4File9VERSION_4E
libgig.so.9:_ZN3gig4FileC1EPN4RIFF4FileE
libgig.so.9:_ZN3gig4FileC1Ev
libgig.so.9:_ZN3gig4FileC2EPN4RIFF4FileE
libgig.so.9:_ZN3gig4FileC2Ev
libgig.so.9:_ZN3gig4FileD0Ev
libgig.so.9:_ZN3gig4FileD1Ev
libgig.so.9:_ZN3gig4FileD2Ev
libgig.so.9:_ZN3gig5Group12DeleteChunksEv
libgig.so.9:_ZN3gig5Group12UpdateChunksEPN4RIFF10progress_tE
libgig.so.9:_ZN3gig5Group13GetNextSampleEv
libgig.so.9:_ZN3gig5Group14GetFirstSampleEv
libgig.so.9:_ZN3gig5Group7MoveAllEv
libgig.so.9:_ZN3gig5Group9AddSampleEPNS_6SampleE
libgig.so.9:_ZN3gig5GroupC1EPNS_4FileEPN4RIFF5ChunkE
libgig.so.9:_ZN3gig5GroupC2EPNS_4FileEPN4RIFF5ChunkE
libgig.so.9:_ZN3gig5GroupD0Ev
libgig.so.9:_ZN3gig5GroupD1Ev
libgig.so.9:_ZN3gig5GroupD2Ev
libgig.so.9:_ZN3gig6Region10CopyAssignEPKS0_
libgig.so.9:_ZN3gig6Region10CopyAssignEPKS0_PKSt3mapIPNS_6SampleES5_St4lessIS5_ESaISt4pairIKS5_S5_EEE
libgig.so.9:_ZN3gig6Region11SetKeyRangeEtt
libgig.so.9:_ZN3gig6Region12AddDimensionEPNS_15dimension_def_tE
libgig.so.9:_ZN3gig6Region12UpdateChunksEPN4RIFF10progress_tE
libgig.so.9:_ZN3gig6Region15DeleteDimensionEPNS_15dimension_def_tE
libgig.so.9:_ZN3gig6Region16SetDimensionTypeENS_11dimension_tES1_
libgig.so.9:_ZN3gig6Region18SplitDimensionZoneENS_11dimension_tEi
libgig.so.9:_ZN3gig6Region19DeleteDimensionZoneENS_11dimension_tEi
libgig.so.9:_ZN3gig6Region19UpdateVelocityTableEv
libgig.so.9:_ZN3gig6Region20LoadDimensionRegionsEPN4RIFF4ListE
libgig.so.9:_ZN3gig6Region21GetSampleFromWavePoolEjPN4RIFF10progress_tE
libgig.so.9:_ZN3gig6Region22GetDimensionDefinitionENS_11dimension_tE
libgig.so.9:_ZN3gig6Region23GetDimensionRegionByBitEPKh
libgig.so.9:_ZN3gig6Region23GetDimensionRegionByBitERKSt3mapINS_11dimension_tEiSt4lessIS2_ESaISt4pairIKS2_iEEE
libgig.so.9:_ZN3gig6Region25GetDimensionRegionByValueEPKj
libgig.so.9:_ZN3gig6Region30GetDimensionRegionIndexByValueEPKj
libgig.so.9:_ZN3gig6Region9GetSampleEv
libgig.so.9:_ZN3gig6RegionC1EPNS_10InstrumentEPN4RIFF4ListE
libgig.so.9:_ZN3gig6RegionC2EPNS_10InstrumentEPN4RIFF4ListE
libgig.so.9:_ZN3gig6RegionD0Ev
libgig.so.9:_ZN3gig6RegionD1Ev
libgig.so.9:_ZN3gig6RegionD2Ev
libgig.so.9:_ZN3gig6Sample11ReadAndLoopEPvmPNS_16playback_state_tEPNS_15DimensionRegionEPNS_8buffer_tE
libgig.so.9:_ZN3gig6Sample12UpdateChunksEPN4RIFF10progress_tE
libgig.so.9:_ZN3gig6Sample14CopyAssignMetaEPKS0_
libgig.so.9:_ZN3gig6Sample14CopyAssignWaveEPKS0_
libgig.so.9:_ZN3gig6Sample14LoadSampleDataEm
libgig.so.9:_ZN3gig6Sample14LoadSampleDataEv
libgig.so.9:_ZN3gig6Sample14VerifyWaveDataEPj
libgig.so.9:_ZN3gig6Sample17ReleaseSampleDataEv
libgig.so.9:_ZN3gig6Sample20ScanCompressedSampleEv
libgig.so.9:_ZN3gig6Sample24GetWaveDataCRC32ChecksumEv
libgig.so.9:_ZN3gig6Sample25CalculateWaveDataChecksumEv
libgig.so.9:_ZN3gig6Sample25CreateDecompressionBufferEm
libgig.so.9:_ZN3gig6Sample26DestroyDecompressionBufferERNS_8buffer_tE
libgig.so.9:_ZN3gig6Sample27InternalDecompressionBufferE
libgig.so.9:_ZN3gig6Sample38LoadSampleDataWithNullSamplesExtensionEj
libgig.so.9:_ZN3gig6Sample38LoadSampleDataWithNullSamplesExtensionEmj
libgig.so.9:_ZN3gig6Sample4ReadEPvmPNS_8buffer_tE
libgig.so.9:_ZN3gig6Sample5WriteEPvm
libgig.so.9:_ZN3gig6Sample6ResizeEm
libgig.so.9:_ZN3gig6Sample6SetPosEmN4RIFF15stream_whence_tE
libgig.so.9:_ZN3gig6Sample8GetCacheEv
libgig.so.9:_ZN3gig6Sample9InstancesE
libgig.so.9:_ZN3gig6SampleC1EPNS_4FileEPN4RIFF4ListEmmi
libgig.so.9:_ZN3gig6SampleC2EPNS_4FileEPN4RIFF4ListEmmi
libgig.so.9:_ZN3gig6SampleD0Ev
libgig.so.9:_ZN3gig6SampleD1Ev
libgig.so.9:_ZN3gig6SampleD2Ev
libgig.so.9:_ZN3gig6Script10CopyAssignEPKS0_
libgig.so.9:_ZN3gig6Script12DeleteChunksEv
libgig.so.9:_ZN3gig6Script12UpdateChunksEPN4RIFF10progress_tE
libgig.so.9:_ZN3gig6Script15GetScriptAsTextB5cxx11Ev
libgig.so.9:_ZN3gig6Script15SetScriptAsTextERKNSt7__cxx1112basic_stringIcSt11char_traitsIcESaIcEEE
libgig.so.9:_ZN3gig6Script25RemoveAllScriptReferencesEv
libgig.so.9:_ZN3gig6Script8SetGroupEPNS_11ScriptGroupE
libgig.so.9:_ZN3gig6ScriptC1EPNS_11ScriptGroupEPN4RIFF5ChunkE
libgig.so.9:_ZN3gig6ScriptC2EPNS_11ScriptGroupEPN4RIFF5ChunkE
libgig.so.9:_ZN3gig6ScriptD0Ev
libgig.so.9:_ZN3gig6ScriptD1Ev
libgig.so.9:_ZN3gig6ScriptD2Ev
libgig.so.9:_ZN3gig7enumKeyENSt7__cxx1112basic_stringIcSt11char_traitsIcESaIcEEES5_
libgig.so.9:_ZN3gig7enumKeyENSt7__cxx1112basic_stringIcSt11char_traitsIcESaIcEEEm
libgig.so.9:_ZN3gig7enumKeyERKSt9type_infoNSt7__cxx1112basic_stringIcSt11char_traitsIcESaIcEEE
libgig.so.9:_ZN3gig7enumKeyERKSt9type_infom
libgig.so.9:_ZN3gig8eg_opt_t9serializeEPN13Serialization7ArchiveE
libgig.so.9:_ZN3gig8eg_opt_tC1Ev
libgig.so.9:_ZN3gig8eg_opt_tC2Ev
libgig.so.9:_ZN3gig8enumKeysENSt7__cxx1112basic_stringIcSt11char_traitsIcESaIcEEE
libgig.so.9:_ZN3gig8enumKeysERKSt9type_info
libgig.so.9:_ZN3gig9Exception12PrintMessageEv
libgig.so.9:_ZN3gig9ExceptionC1ENSt7__cxx1112basic_stringIcSt11char_traitsIcESaIcEEEP13__va_list_tag
libgig.so.9:_ZN3gig9ExceptionC1ENSt7__cxx1112basic_stringIcSt11char_traitsIcESaIcEEEz
libgig.so.9:_ZN3gig9ExceptionC1Ev
libgig.so.9:_ZN3gig9ExceptionC2ENSt7__cxx1112basic_stringIcSt11char_traitsIcESaIcEEEP13__va_list_tag
libgig.so.9:_ZN3gig9ExceptionC2ENSt7__cxx1112basic_stringIcSt11char_traitsIcESaIcEEEz
libgig.so.9:_ZN3gig9ExceptionC2Ev
libgig.so.9:_ZN3gig9enumCountENSt7__cxx1112basic_stringIcSt11char_traitsIcESaIcEEE
libgig.so.9:_ZN3gig9enumCountERKSt9type_info
libgig.so.9:_ZN3gig9enumValueENSt7__cxx1112basic_stringIcSt11char_traitsIcESaIcEEE
libgig.so.9:_ZN3sf210CheckRangeENSt7__cxx1112basic_stringIcSt11char_traitsIcESaIcEEEiiRi
libgig.so.9:_ZN3sf210Instrument11LoadRegionsEii
libgig.so.9:_ZN3sf210Instrument12CreateRegionEv
libgig.so.9:_ZN3sf210Instrument12DeleteRegionEPNS_6RegionE
libgig.so.9:_ZN3sf210InstrumentC1EPNS_4FileEPN4RIFF5ChunkE
libgig.so.9:_ZN3sf210InstrumentC2EPNS_4FileEPN4RIFF5ChunkE
libgig.so.9:_ZN3sf210InstrumentD0Ev
libgig.so.9:_ZN3sf210InstrumentD1Ev
libgig.so.9:_ZN3sf210InstrumentD2Ev
libgig.so.9:_ZN3sf210LoadStringEPN4RIFF5ChunkERNSt7__cxx1112basic_stringIcSt11char_traitsIcESaIcEEEi
libgig.so.9:_ZN3sf210VerifySizeEPN4RIFF5ChunkEi
libgig.so.9:_ZN3sf211libraryNameB5cxx11Ev
libgig.so.9:_ZN3sf213ModulatorItemC1ERNS_8_ModListE
libgig.so.9:_ZN3sf213ModulatorItemC2ERNS_8_ModListE
libgig.so.9:_ZN3sf214InstrumentBase14GetRegionCountEv
libgig.so.9:_ZN3sf214InstrumentBase9GetRegionEi
libgig.so.9:_ZN3sf214InstrumentBaseC1EPNS_4FileE
libgig.so.9:_ZN3sf214InstrumentBaseC2EPNS_4FileE
libgig.so.9:_ZN3sf214InstrumentBaseD0Ev
libgig.so.9:_ZN3sf214InstrumentBaseD1Ev
libgig.so.9:_ZN3sf214InstrumentBaseD2Ev
libgig.so.9:_ZN3sf214libraryVersionB5cxx11Ev
libgig.so.9:_ZN3sf217GetMandatoryChunkEPN4RIFF4ListEj
libgig.so.9:_ZN3sf24File10HasSamplesEv
libgig.so.9:_ZN3sf24File11GetRiffFileEv
libgig.so.9:_ZN3sf24File12DeleteSampleEPNS_6SampleE
libgig.so.9:_ZN3sf24File13GetInstrumentEi
libgig.so.9:_ZN3sf24File14GetPresetCountEv
libgig.so.9:_ZN3sf24File14GetSampleCountEv
libgig.so.9:_ZN3sf24File16DeleteInstrumentEPNS_10InstrumentE
libgig.so.9:_ZN3sf24File18GetInstrumentCountEv
libgig.so.9:_ZN3sf24File9GetPresetEi
libgig.so.9:_ZN3sf24File9GetSampleEi
libgig.so.9:_ZN3sf24FileC1EPN4RIFF4FileE
libgig.so.9:_ZN3sf24FileC2EPN4RIFF4FileE
libgig.so.9:_ZN3sf24FileD1Ev
libgig.so.9:_ZN3sf24FileD2Ev
libgig.so.9:_ZN3sf24Info10LoadStringEjPN4RIFF4ListERNSt7__cxx1112basic_stringIcSt11char_traitsIcESaIcEEE
libgig.so.9:_ZN3sf24InfoC1EPN4RIFF4ListE
libgig.so.9:_ZN3sf24InfoC2EPN4RIFF4ListE
libgig.so.9:_ZN3sf24InfoD1Ev
libgig.so.9:_ZN3sf24InfoD2Ev
libgig.so.9:_ZN3sf24ToHzEi
libgig.so.9:_ZN3sf25Query4nextEv
libgig.so.9:_ZN3sf25QueryC1ERNS_14InstrumentBaseE
libgig.so.9:_ZN3sf25QueryC2ERNS_14InstrumentBaseE
libgig.so.9:_ZN3sf26Preset11LoadRegionsEii
libgig.so.9:_ZN3sf26Preset12CreateRegionEv
libgig.so.9:_ZN3sf26PresetC1EPNS_4FileEPN4RIFF5ChunkE
libgig.so.9:_ZN3sf26PresetC2EPNS_4FileEPN4RIFF5ChunkE
libgig.so.9:_ZN3sf26PresetD0Ev
libgig.so.9:_ZN3sf26PresetD1Ev
libgig.so.9:_ZN3sf26PresetD2Ev
libgig.so.9:_ZN3sf26Region10GetEG1HoldEPS0_
libgig.so.9:_ZN3sf26Region10GetEG2HoldEPS0_
libgig.so.9:_ZN3sf26Region11GetEG1DecayEPS0_
libgig.so.9:_ZN3sf26Region11GetEG2DecayEPS0_
libgig.so.9:_ZN3sf26Region11GetFineTuneEPS0_
libgig.so.9:_ZN3sf26Region12GetEG1AttackEPS0_
libgig.so.9:_ZN3sf26Region12GetEG2AttackEPS0_
libgig.so.9:_ZN3sf26Region12GetUnityNoteEv
libgig.so.9:_ZN3sf26Region12SetGeneratorEPNS_4FileERNS_8_GenListE
libgig.so.9:_ZN3sf26Region12SetModulatorEPNS_4FileERNS_8_ModListE
libgig.so.9:_ZN3sf26Region13GetCoarseTuneEPS0_
libgig.so.9:_ZN3sf26Region13GetEG1ReleaseEPS0_
libgig.so.9:_ZN3sf26Region13GetEG1SustainEPS0_
libgig.so.9:_ZN3sf26Region13GetEG2ReleaseEPS0_
libgig.so.9:_ZN3sf26Region13GetEG2SustainEPS0_
libgig.so.9:_ZN3sf26Region13GetFreqModLfoEPS0_
libgig.so.9:_ZN3sf26Region13GetFreqVibLfoEPS0_
libgig.so.9:_ZN3sf26Region14GetDelayModLfoEPS0_
libgig.so.9:_ZN3sf26Region14GetDelayVibLfoEPS0_
libgig.so.9:_ZN3sf26Region16GetModEnvToPitchEPS0_
libgig.so.9:_ZN3sf26Region16GetModLfoToPitchEPS0_
libgig.so.9:_ZN3sf26Region16GetVibLfoToPitchEPS0_
libgig.so.9:_ZN3sf26Region17GetInitialFilterQEPS0_
libgig.so.9:_ZN3sf26Region17GetModLfoToVolumeEPS0_
libgig.so.9:_ZN3sf26Region18GetInitialFilterFcEPS0_
libgig.so.9:_ZN3sf26Region19GetModEnvToFilterFcEPS0_
libgig.so.9:_ZN3sf26Region19GetModLfoToFilterFcEPS0_
libgig.so.9:_ZN3sf26Region20GetEG1PreAttackDelayEPS0_
libgig.so.9:_ZN3sf26Region20GetEG2PreAttackDelayEPS0_
libgig.so.9:_ZN3sf26Region6GetPanEPS0_
libgig.so.9:_ZN3sf26RegionC1Ev
libgig.so.9:_ZN3sf26RegionC2Ev
libgig.so.9:_ZN3sf26Sample11ReadAndLoopEPvmPNS0_13PlaybackStateEPNS_6RegionE
libgig.so.9:_ZN3sf26Sample11ReadNoClearEPvmRNS0_8buffer_tE
libgig.so.9:_ZN3sf26Sample12GetFrameSizeEv
libgig.so.9:_ZN3sf26Sample14LoadSampleDataEm
libgig.so.9:_ZN3sf26Sample14LoadSampleDataEv
libgig.so.9:_ZN3sf26Sample15GetChannelCountEv
libgig.so.9:_ZN3sf26Sample17ReleaseSampleDataEv
libgig.so.9:_ZN3sf26Sample18GetTotalFrameCountEv
libgig.so.9:_ZN3sf26Sample38LoadSampleDataWithNullSamplesExtensionEj
libgig.so.9:_ZN3sf26Sample38LoadSampleDataWithNullSamplesExtensionEmj
libgig.so.9:_ZN3sf26Sample4ReadEPvm
libgig.so.9:_ZN3sf26Sample6GetPosEv
libgig.so.9:_ZN3sf26Sample6SetPosEm
libgig.so.9:_ZN3sf26Sample8GetCacheEv
libgig.so.9:_ZN3sf26Sample8HasLoopsEv
libgig.so.9:_ZN3sf26SampleC1EPNS_4FileEPN4RIFF5ChunkES5_S5_
libgig.so.9:_ZN3sf26SampleC2EPNS_4FileEPN4RIFF5ChunkES5_S5_
libgig.so.9:_ZN3sf27ToRatioEi
libgig.so.9:_ZN3sf27VersionC1EPN4RIFF5ChunkE
libgig.so.9:_ZN3sf27VersionC2EPN4RIFF5ChunkE
libgig.so.9:_ZN3sf29ModulatorC1Et
libgig.so.9:_ZN3sf29ModulatorC2Et
libgig.so.9:_ZN3sf29ToSecondsEi
libgig.so.9:_ZN4Korg11libraryNameB5cxx11Ev
libgig.so.9:_ZN4Korg13KMPInstrument9GetRegionEi
libgig.so.9:_ZN4Korg13KMPInstrumentC1ERKNSt7__cxx1112basic_stringIcSt11char_traitsIcESaIcEEE
libgig.so.9:_ZN4Korg13KMPInstrumentC2ERKNSt7__cxx1112basic_stringIcSt11char_traitsIcESaIcEEE
libgig.so.9:_ZN4Korg13KMPInstrumentD0Ev
libgig.so.9:_ZN4Korg13KMPInstrumentD1Ev
libgig.so.9:_ZN4Korg13KMPInstrumentD2Ev
libgig.so.9:_ZN4Korg14libraryVersionB5cxx11Ev
libgig.so.9:_ZN4Korg9Exception12PrintMessageEv
libgig.so.9:_ZN4Korg9ExceptionC1ENSt7__cxx1112basic_stringIcSt11char_traitsIcESaIcEEE
libgig.so.9:_ZN4Korg9ExceptionC2ENSt7__cxx1112basic_stringIcSt11char_traitsIcESaIcEEE
libgig.so.9:_ZN4Korg9KMPRegionC1EPNS_13KMPInstrumentEPN4RIFF5ChunkE
libgig.so.9:_ZN4Korg9KMPRegionC2EPNS_13KMPInstrumentEPN4RIFF5ChunkE
libgig.so.9:_ZN4Korg9KMPRegionD0Ev
libgig.so.9:_ZN4Korg9KMPRegionD1Ev
libgig.so.9:_ZN4Korg9KMPRegionD2Ev
libgig.so.9:_ZN4Korg9KSFSample14LoadSampleDataEm
libgig.so.9:_ZN4Korg9KSFSample14LoadSampleDataEv
libgig.so.9:_ZN4Korg9KSFSample17ReleaseSampleDataEv
libgig.so.9:_ZN4Korg9KSFSample38LoadSampleDataWithNullSamplesExtensionEj
libgig.so.9:_ZN4Korg9KSFSample38LoadSampleDataWithNullSamplesExtensionEmj
libgig.so.9:_ZN4Korg9KSFSample4ReadEPvm
libgig.so.9:_ZN4Korg9KSFSample6SetPosEmN4RIFF15stream_whence_tE
libgig.so.9:_ZN4Korg9KSFSampleC1ERKNSt7__cxx1112basic_stringIcSt11char_traitsIcESaIcEEE
libgig.so.9:_ZN4Korg9KSFSampleC2ERKNSt7__cxx1112basic_stringIcSt11char_traitsIcESaIcEEE
libgig.so.9:_ZN4Korg9KSFSampleD0Ev
libgig.so.9:_ZN4Korg9KSFSampleD1Ev
libgig.so.9:_ZN4Korg9KSFSampleD2Ev
libgig.so.9:_ZN4RIFF10progress_t9subdivideESt6vectorIfSaIfEE
libgig.so.9:_ZN4RIFF10progress_t9subdivideEi
libgig.so.9:_ZN4RIFF10progress_tC1Ev
libgig.so.9:_ZN4RIFF10progress_tC2Ev
libgig.so.9:_ZN4RIFF11libraryNameB5cxx11Ev
libgig.so.9:_ZN4RIFF14libraryVersionB5cxx11Ev
libgig.so.9:_ZN4RIFF4File10ResizeFileEm
libgig.so.9:_ZN4RIFF4File11SetFileNameERKNSt7__cxx1112basic_stringIcSt11char_traitsIcESaIcEEE
libgig.so.9:_ZN4RIFF4File12SetByteOrderENS_8endian_tE
libgig.so.9:_ZN4RIFF4File18__openExistingFileERKNSt7__cxx1112basic_stringIcSt11char_traitsIcESaIcEEEPj
libgig.so.9:_ZN4RIFF4File19GetRequiredFileSizeENS_13offset_size_tE
libgig.so.9:_ZN4RIFF4File19GetRequiredFileSizeEv
libgig.so.9:_ZN4RIFF4File25GetRequiredFileOffsetSizeEv
libgig.so.9:_ZN4RIFF4File4SaveEPNS_10progress_tE
libgig.so.9:_ZN4RIFF4File4SaveERKNSt7__cxx1112basic_stringIcSt11char_traitsIcESaIcEEEPNS_10progress_tE
libgig.so.9:_ZN4RIFF4File7CleanupEv
libgig.so.9:_ZN4RIFF4File7SetModeENS_13stream_mode_tE
libgig.so.9:_ZN4RIFF4FileC1ERKNSt7__cxx1112basic_stringIcSt11char_traitsIcESaIcEEE
libgig.so.9:_ZN4RIFF4FileC1ERKNSt7__cxx1112basic_stringIcSt11char_traitsIcESaIcEEEjNS_8endian_tENS_8layout_tENS_13offset_size_tE
libgig.so.9:_ZN4RIFF4FileC1Ej
libgig.so.9:_ZN4RIFF4FileC2ERKNSt7__cxx1112basic_stringIcSt11char_traitsIcESaIcEEE
libgig.so.9:_ZN4RIFF4FileC2ERKNSt7__cxx1112basic_stringIcSt11char_traitsIcESaIcEEEjNS_8endian_tENS_8layout_tENS_13offset_size_tE
libgig.so.9:_ZN4RIFF4FileC2Ej
libgig.so.9:_ZN4RIFF4FileD0Ev
libgig.so.9:_ZN4RIFF4FileD1Ev
libgig.so.9:_ZN4RIFF4FileD2Ev
libgig.so.9:_ZN4RIFF4List10AddSubListEj
libgig.so.9:_ZN4RIFF4List10GetSubListEj
libgig.so.9:_ZN4RIFF4List10ReadHeaderEm
libgig.so.9:_ZN4RIFF4List10WriteChunkEmmPNS_10progress_tE
libgig.so.9:_ZN4RIFF4List10__resetPosEv
libgig.so.9:_ZN4RIFF4List11AddSubChunkEjm
libgig.so.9:_ZN4RIFF4List11GetSubChunkEj
libgig.so.9:_ZN4RIFF4List11WriteHeaderEm
libgig.so.9:_ZN4RIFF4List12MoveSubChunkEPNS_5ChunkEPS0_
libgig.so.9:_ZN4RIFF4List12MoveSubChunkEPNS_5ChunkES2_
libgig.so.9:_ZN4RIFF4List13CountSubListsEj
libgig.so.9:_ZN4RIFF4List13CountSubListsEv
libgig.so.9:_ZN4RIFF4List13LoadSubChunksEPNS_10progress_tE
libgig.so.9:_ZN4RIFF4List14CountSubChunksEj
libgig.so.9:_ZN4RIFF4List14CountSubChunksEv
libgig.so.9:_ZN4RIFF4List14DeleteSubChunkEPNS_5ChunkE
libgig.so.9:_ZN4RIFF4List14GetNextSubListEv
libgig.so.9:_ZN4RIFF4List15DeleteChunkListEv
libgig.so.9:_ZN4RIFF4List15GetFirstSubListEv
libgig.so.9:_ZN4RIFF4List15GetNextSubChunkEv
libgig.so.9:_ZN4RIFF4List16GetFirstSubChunkEv
libgig.so.9:_ZN4RIFF4List20RequiredPhysicalSizeEi
libgig.so.9:_ZN4RIFF4List24LoadSubChunksRecursivelyEPNS_10progress_tE
libgig.so.9:_ZN4RIFF4ListC1EPNS_4FileE
libgig.so.9:_ZN4RIFF4ListC1EPNS_4FileEPS0_j
libgig.so.9:_ZN4RIFF4ListC1EPNS_4FileEmPS0_
libgig.so.9:_ZN4RIFF4ListC2EPNS_4FileE
libgig.so.9:_ZN4RIFF4ListC2EPNS_4FileEPS0_j
libgig.so.9:_ZN4RIFF4ListC2EPNS_4FileEmPS0_
libgig.so.9:_ZN4RIFF4ListD0Ev
libgig.so.9:_ZN4RIFF4ListD1Ev
libgig.so.9:_ZN4RIFF4ListD2Ev
libgig.so.9:_ZN4RIFF5Chunk10ReadHeaderEm
libgig.so.9:_ZN4RIFF5Chunk10ReadStringERNSt7__cxx1112basic_stringIcSt11char_traitsIcESaIcEEEi
libgig.so.9:_ZN4RIFF5Chunk10ReadUint16EPtm
libgig.so.9:_ZN4RIFF5Chunk10ReadUint16Ev
libgig.so.9:_ZN4RIFF5Chunk10ReadUint32EPjm
libgig.so.9:_ZN4RIFF5Chunk10ReadUint32Ev
libgig.so.9:_ZN4RIFF5Chunk10WriteChunkEmmPNS_10progress_tE
libgig.so.9:_ZN4RIFF5Chunk10WriteInt16EPsm
libgig.so.9:_ZN4RIFF5Chunk10WriteInt32EPim
libgig.so.9:_ZN4RIFF5Chunk10WriteUint8EPhm
libgig.so.9:_ZN4RIFF5Chunk10__resetPosEv
libgig.so.9:_ZN4RIFF5Chunk11WriteHeaderEm
libgig.so.9:_ZN4RIFF5Chunk11WriteUint16EPtm
libgig.so.9:_ZN4RIFF5Chunk11WriteUint32EPjm
libgig.so.9:_ZN4RIFF5Chunk13LoadChunkDataEv
libgig.so.9:_ZN4RIFF5Chunk13ReadScepticalEPvmm
libgig.so.9:_ZN4RIFF5Chunk16ReleaseChunkDataEv
libgig.so.9:_ZN4RIFF5Chunk20RequiredPhysicalSizeEi
libgig.so.9:_ZN4RIFF5Chunk4ReadEPvmm
libgig.so.9:_ZN4RIFF5Chunk5WriteEPvmm
libgig.so.9:_ZN4RIFF5Chunk6ResizeEm
libgig.so.9:_ZN4RIFF5Chunk6SetPosEmNS_15stream_whence_tE
libgig.so.9:_ZN4RIFF5Chunk8ReadInt8EPam
libgig.so.9:_ZN4RIFF5Chunk8ReadInt8Ev
libgig.so.9:_ZN4RIFF5Chunk9ReadInt16EPsm
libgig.so.9:_ZN4RIFF5Chunk9ReadInt16Ev
libgig.so.9:_ZN4RIFF5Chunk9ReadInt32EPim
libgig.so.9:_ZN4RIFF5Chunk9ReadInt32Ev
libgig.so.9:_ZN4RIFF5Chunk9ReadUint8EPhm
libgig.so.9:_ZN4RIFF5Chunk9ReadUint8Ev
libgig.so.9:_ZN4RIFF5Chunk9WriteInt8EPam
libgig.so.9:_ZN4RIFF5ChunkC1EPNS_4FileE
libgig.so.9:_ZN4RIFF5ChunkC1EPNS_4FileEPNS_4ListEjm
libgig.so.9:_ZN4RIFF5ChunkC1EPNS_4FileEmPNS_4ListE
libgig.so.9:_ZN4RIFF5ChunkC2EPNS_4FileE
libgig.so.9:_ZN4RIFF5ChunkC2EPNS_4FileEPNS_4ListEjm
libgig.so.9:_ZN4RIFF5ChunkC2EPNS_4FileEmPNS_4ListE
libgig.so.9:_ZN4RIFF5ChunkD0Ev
libgig.so.9:_ZN4RIFF5ChunkD1Ev
libgig.so.9:_ZN4RIFF5ChunkD2Ev
libgig.so.9:_ZN4RIFF9Exception12PrintMessageEv
libgig.so.9:_ZN4RIFF9Exception8assembleENSt7__cxx1112basic_stringIcSt11char_traitsIcESaIcEEEP13__va_list_tag
libgig.so.9:_ZN4RIFF9ExceptionC1ENSt7__cxx1112basic_stringIcSt11char_traitsIcESaIcEEEP13__va_list_tag
libgig.so.9:_ZN4RIFF9ExceptionC1ENSt7__cxx1112basic_stringIcSt11char_traitsIcESaIcEEEz
libgig.so.9:_ZN4RIFF9ExceptionC1Ev
libgig.so.9:_ZN4RIFF9ExceptionC2ENSt7__cxx1112basic_stringIcSt11char_traitsIcESaIcEEEP13__va_list_tag
libgig.so.9:_ZN4RIFF9ExceptionC2ENSt7__cxx1112basic_stringIcSt11char_traitsIcESaIcEEEz
libgig.so.9:_ZN4RIFF9ExceptionC2Ev
libgig.so.9:_ZNK13Serialization3UID7isValidEv
libgig.so.9:_ZNK13Serialization6Member3uidEv
libgig.so.9:_ZNK13Serialization6Member4nameB5cxx11Ev
libgig.so.9:_ZNK13Serialization6Member4typeEv
libgig.so.9:_ZNK13Serialization6Member6offsetEv
libgig.so.9:_ZNK13Serialization6Member7isValidEv
libgig.so.9:_ZNK13Serialization6MembereqERKS0_
libgig.so.9:_ZNK13Serialization6MembergtERKS0_
libgig.so.9:_ZNK13Serialization6MemberltERKS0_
libgig.so.9:_ZNK13Serialization6MemberneERKS0_
libgig.so.9:_ZNK13Serialization6Object10minVersionEv
libgig.so.9:_ZNK13Serialization6Object11memberByUIDERKNS_3UIDE
libgig.so.9:_ZNK13Serialization6Object11memberNamedENSt7__cxx1112basic_stringIcSt11char_traitsIcESaIcEEE
libgig.so.9:_ZNK13Serialization6Object13membersOfTypeERKNS_8DataTypeE
libgig.so.9:_ZNK13Serialization6Object15sequenceIndexOfERKNS_6MemberE
libgig.so.9:_ZNK13Serialization6Object21isVersionCompatibleToERKS0_
libgig.so.9:_ZNK13Serialization6Object3uidEi
libgig.so.9:_ZNK13Serialization6Object4typeEv
libgig.so.9:_ZNK13Serialization6Object7isValidEv
libgig.so.9:_ZNK13Serialization6Object7membersEv
libgig.so.9:_ZNK13Serialization6Object7rawDataEv
libgig.so.9:_ZNK13Serialization6Object7versionEv
libgig.so.9:_ZNK13Serialization6Object8uidChainEv
libgig.so.9:_ZNK13Serialization6ObjecteqERKS0_
libgig.so.9:_ZNK13Serialization6ObjectgtERKS0_
libgig.so.9:_ZNK13Serialization6ObjectltERKS0_
libgig.so.9:_ZNK13Serialization6ObjectneERKS0_
libgig.so.9:_ZNK13Serialization7Archive10isModifiedEv
libgig.so.9:_ZNK13Serialization7Archive13rawDataFormatB5cxx11Ev
libgig.so.9:_ZNK13Serialization7Archive15dateTimeCreatedENS_11time_base_tE
libgig.so.9:_ZNK13Serialization7Archive16dateTimeModifiedENS_11time_base_tE
libgig.so.9:_ZNK13Serialization7Archive16timeStampCreatedEv
libgig.so.9:_ZNK13Serialization7Archive17timeStampModifiedEv
libgig.so.9:_ZNK13Serialization7Archive4nameB5cxx11Ev
libgig.so.9:_ZNK13Serialization7Archive7commentB5cxx11Ev
libgig.so.9:_ZNK13Serialization8DataType11asLongDescrB5cxx11Ev
libgig.so.9:_ZNK13Serialization8DataType11isPrimitiveEv
libgig.so.9:_ZNK13Serialization8DataType12baseTypeNameB5cxx11Ev
libgig.so.9:_ZNK13Serialization8DataType14customTypeNameB5cxx11Eb
libgig.so.9:_ZNK13Serialization8DataType6isBoolEv
libgig.so.9:_ZNK13Serialization8DataType6isEnumEv
libgig.so.9:_ZNK13Serialization8DataType6isRealEv
libgig.so.9:_ZNK13Serialization8DataType7isClassEv
libgig.so.9:_ZNK13Serialization8DataType7isValidEv
libgig.so.9:_ZNK13Serialization8DataType8isSignedEv
libgig.so.9:_ZNK13Serialization8DataType9isIntegerEv
libgig.so.9:_ZNK13Serialization8DataType9isPointerEv
libgig.so.9:_ZNK13Serialization8DataTypeeqERKS0_
libgig.so.9:_ZNK13Serialization8DataTypegtERKS0_
libgig.so.9:_ZNK13Serialization8DataTypeltERKS0_
libgig.so.9:_ZNK13Serialization8DataTypeneERKS0_
libgig.so.9:_ZNK3DLS6Sample7GetSizeEv
libgig.so.9:_ZNK3gig10Instrument15ScriptSlotCountEv
libgig.so.9:_ZNK3gig14MidiRuleLegato12UpdateChunksEPh
libgig.so.9:_ZNK3gig15DimensionRegion9GetParentEv
libgig.so.9:_ZNK3gig18MidiRuleAlternator12UpdateChunksEPh
libgig.so.9:_ZNK3gig19MidiRuleCtrlTrigger12UpdateChunksEPh
libgig.so.9:_ZNK3gig6Sample6GetPosEv
libgig.so.9:_ZNK3gig6Sample8GetGroupEv
libgig.so.9:_ZNK3gig6Script8GetGroupEv
libgig.so.9:_ZNK4Korg13KMPInstrument11Use2ndStartEv
libgig.so.9:_ZNK4Korg13KMPInstrument14GetRegionCountEv
libgig.so.9:_ZNK4Korg13KMPInstrument4NameB5cxx11Ev
libgig.so.9:_ZNK4Korg13KMPInstrument8FileNameB5cxx11Ev
libgig.so.9:_ZNK4Korg9KMPRegion13GetInstrumentEv
libgig.so.9:_ZNK4Korg9KMPRegion18FullSampleFileNameB5cxx11Ev
libgig.so.9:_ZNK4Korg9KSFSample11Use2ndStartEv
libgig.so.9:_ZNK4Korg9KSFSample12IsCompressedEv
libgig.so.9:_ZNK4Korg9KSFSample13CompressionIDEv
libgig.so.9:_ZNK4Korg9KSFSample6GetPosEv
libgig.so.9:_ZNK4Korg9KSFSample8FileNameB5cxx11Ev
libgig.so.9:_ZNK4Korg9KSFSample8GetCacheEv
libgig.so.9:_ZNK4Korg9KSFSample9FrameSizeEv
libgig.so.9:_ZNK4RIFF4File11GetFileNameB5cxx11Ev
libgig.so.9:_ZNK4RIFF4File13__GetFileSizeEi
libgig.so.9:_ZNK4RIFF4File17FileOffsetSizeForEm
libgig.so.9:_ZNK4RIFF4File17GetFileOffsetSizeEv
libgig.so.9:_ZNK4RIFF4File18GetCurrentFileSizeEv
libgig.so.9:_ZNK4RIFF4File5IsNewEv
libgig.so.9:_ZNK4RIFF4File7GetModeEv
libgig.so.9:_ZNK4RIFF4File9GetLayoutEv
libgig.so.9:_ZNK4RIFF4List17GetListTypeStringB5cxx11Ev
libgig.so.9:_ZNK4RIFF5Chunk14RemainingBytesEv
libgig.so.9:_ZNK4RIFF5Chunk16GetChunkIDStringB5cxx11Ev
libgig.so.9:_ZNK4RIFF5Chunk8GetStateEv
libgig.so.9:_ZThn40_N3DLS10Instrument12DeleteChunksEv
libgig.so.9:_ZThn40_N3DLS10Instrument12UpdateChunksEPN4RIFF10progress_tE
libgig.so.9:_ZThn40_N3DLS10InstrumentD0Ev
libgig.so.9:_ZThn40_N3DLS10InstrumentD1Ev
libgig.so.9:_ZThn40_N3DLS6Region12DeleteChunksEv
libgig.so.9:_ZThn40_N3DLS6Region12UpdateChunksEPN4RIFF10progress_tE
libgig.so.9:_ZThn40_N3DLS6RegionD0Ev
libgig.so.9:_ZThn40_N3DLS6RegionD1Ev
libgig.so.9:_ZThn40_N3gig10Instrument12UpdateChunksEPN4RIFF10progress_tE
libgig.so.9:_ZThn40_N3gig10InstrumentD0Ev
libgig.so.9:_ZThn40_N3gig10InstrumentD1Ev
libgig.so.9:_ZThn40_N3gig6Region12UpdateChunksEPN4RIFF10progress_tE
libgig.so.9:_ZThn40_N3gig6RegionD0Ev
libgig.so.9:_ZThn40_N3gig6RegionD1Ev
libgig.so.9:_ZThn72_N3DLS6Region12DeleteChunksEv
libgig.so.9:_ZThn72_N3DLS6Region12UpdateChunksEPN4RIFF10progress_tE
libgig.so.9:_ZThn72_N3DLS6RegionD0Ev
libgig.so.9:_ZThn72_N3DLS6RegionD1Ev
libgig.so.9:_ZThn72_N3gig6Region12UpdateChunksEPN4RIFF10progress_tE
libgig.so.9:_ZThn72_N3gig6RegionD0Ev
libgig.so.9:_ZThn72_N3gig6RegionD1Ev
