bibledit:_IO_stdin_used
bibledit:_Z10bible_bookB5cxx11R17Webserver_Request
bibledit:_Z10checks_runNSt7__cxx1112basic_stringIcSt11char_traitsIcESaIcEEE
bibledit:_Z10edit_indexB5cxx11R17Webserver_Request
bibledit:_Z10help_indexR17Webserver_RequestRKNSt7__cxx1112basic_stringIcSt11char_traitsIcESaIcEEE
bibledit:_Z10jobs_indexB5cxx11R17Webserver_Request
bibledit:_Z10menu_indexB5cxx11R17Webserver_Request
bibledit:_Z10notes_bulkB5cxx11R17Webserver_Request
bibledit:_Z10notes_editB5cxx11R17Webserver_Request
bibledit:_Z10notes_noteB5cxx11R17Webserver_Request
bibledit:_Z10notes_pollB5cxx11R17Webserver_Request
bibledit:_Z10public_newB5cxx11R17Webserver_Request
bibledit:_Z10read_indexB5cxx11R17Webserver_Request
bibledit:_Z10read_verseB5cxx11R17Webserver_Request
bibledit:_Z10search_allB5cxx11R17Webserver_Request
bibledit:_Z10space_hrefNSt7__cxx1112basic_stringIcSt11char_traitsIcESaIcEEE
bibledit:_Z10styles_newB5cxx11R17Webserver_Request
bibledit:_Z10sync_filesB5cxx11R17Webserver_Request
bibledit:_Z10sync_notesB5cxx11R17Webserver_Request
bibledit:_Z10sync_setupB5cxx11R17Webserver_Request
bibledit:_Z11bible_orderB5cxx11R17Webserver_Request
bibledit:_Z11book_createRKNSt7__cxx1112basic_stringIcSt11char_traitsIcESaIcEEE7book_idiRSt6vectorIS4_SaIS4_EE
bibledit:_Z11edit_id_aclR17Webserver_Request
bibledit:_Z11edit_id_urlB5cxx11v
bibledit:_Z11edit_stylesB5cxx11R17Webserver_Request
bibledit:_Z11edit_updateB5cxx11R17Webserver_Request
bibledit:_Z11email_indexB5cxx11R17Webserver_Request
bibledit:_Z11export_infoNSt7__cxx1112basic_stringIcSt11char_traitsIcESaIcEEEb
bibledit:_Z11export_usfmNSt7__cxx1112basic_stringIcSt11char_traitsIcESaIcEEEb
bibledit:_Z11http_serverv
bibledit:_Z11images_viewB5cxx11R17Webserver_Request
bibledit:_Z11index_indexB5cxx11R17Webserver_Request
bibledit:_Z11mapping_mapB5cxx11R17Webserver_Request
bibledit:_Z11notes_clickB5cxx11R17Webserver_Request
bibledit:_Z11notes_indexB5cxx11R17Webserver_Request
bibledit:_Z11notes_notesB5cxx11R17Webserver_Request
bibledit:_Z11public_noteB5cxx11R17Webserver_Request
bibledit:_Z11setup_indexB5cxx11R17Webserver_Request
bibledit:_Z11styles_viewB5cxx11R17Webserver_Request
bibledit:_Z11sync_biblesB5cxx11R17Webserver_Request
bibledit:_Z11timer_indexv
bibledit:_Z12bible_importB5cxx11R17Webserver_Request
bibledit:_Z12bible_manageB5cxx11R17Webserver_Request
bibledit:_Z12checks_indexB5cxx11R17Webserver_Request
bibledit:_Z12client_indexB5cxx11R17Webserver_Request
bibledit:_Z12edit_previewB5cxx11R17Webserver_Request
bibledit:_Z12editone_loadB5cxx11R17Webserver_Request
bibledit:_Z12editone_saveB5cxx11R17Webserver_Request
bibledit:_Z12editor_styleB5cxx11R17Webserver_Request
bibledit:_Z12export_indexv
bibledit:_Z12get_base_urlB5cxx11RK17Webserver_Request
bibledit:_Z12https_serverv
bibledit:_Z12images_fetchB5cxx11R17Webserver_Request
bibledit:_Z12images_indexB5cxx11R17Webserver_Request
bibledit:_Z12manage_indexB5cxx11R17Webserver_Request
bibledit:_Z12manage_usersB5cxx11R17Webserver_Request
bibledit:_Z12manage_writeB5cxx11R17Webserver_Request
bibledit:_Z12notes_createB5cxx11R17Webserver_Request
bibledit:_Z12notes_selectB5cxx11R17Webserver_Request
bibledit:_Z12notes_versesB5cxx11R17Webserver_Request
bibledit:_Z12public_indexB5cxx11R17Webserver_Request
bibledit:_Z12public_loginB5cxx11R17Webserver_Request
bibledit:_Z12public_notesB5cxx11R17Webserver_Request
bibledit:_Z12resource_getB5cxx11R17Webserver_Request
bibledit:_Z12rss_feed_aclR17Webserver_Request
bibledit:_Z12rss_feed_urlB5cxx11v
bibledit:_Z12search_indexB5cxx11R17Webserver_Request
bibledit:_Z12sprint_indexB5cxx11R17Webserver_Request
bibledit:_Z12sync_changesB5cxx11R17Webserver_Request
bibledit:_Z12system_indexB5cxx11R17Webserver_Request
bibledit:_Z12timer_threadv
bibledit:_Z12user_accountB5cxx11R17Webserver_Request
bibledit:_Z13bible_chapterB5cxx11R17Webserver_Request
bibledit:_Z13bible_css_aclR17Webserver_Request
bibledit:_Z13bible_css_urlB5cxx11v
bibledit:_Z13compare_indexB5cxx11R17Webserver_Request
bibledit:_Z13edit_edit_aclR17Webserver_Request
bibledit:_Z13edit_edit_urlB5cxx11v
bibledit:_Z13edit_load_aclR17Webserver_Request
bibledit:_Z13edit_load_urlB5cxx11v
bibledit:_Z13edit_navigateB5cxx11R17Webserver_Request
bibledit:_Z13edit_positionB5cxx11R17Webserver_Request
bibledit:_Z13edit_save_aclR17Webserver_Request
bibledit:_Z13edit_save_urlB5cxx11v
bibledit:_Z13editone_indexB5cxx11R17Webserver_Request
bibledit:_Z13editone_verseB5cxx11R17Webserver_Request
bibledit:_Z13editor_id_aclR17Webserver_Request
bibledit:_Z13editor_id_urlB5cxx11v
bibledit:_Z13editor_selectB5cxx11R17Webserver_Request
bibledit:_Z13editusfm_loadB5cxx11R17Webserver_Request
bibledit:_Z13editusfm_saveB5cxx11R17Webserver_Request
bibledit:_Z13export_eswordRKNSt7__cxx1112basic_stringIcSt11char_traitsIcESaIcEEEb
bibledit:_Z13index_listingR17Webserver_RequestNSt7__cxx1112basic_stringIcSt11char_traitsIcESaIcEEE
bibledit:_Z13journal_indexB5cxx11R17Webserver_Request
bibledit:_Z13manage_biblesB5cxx11R17Webserver_Request
bibledit:_Z13mapping_indexB5cxx11R17Webserver_Request
bibledit:_Z13notes_actionsB5cxx11R17Webserver_Request
bibledit:_Z13notes_bible_1B5cxx11R17Webserver_Request
bibledit:_Z13notes_bible_nB5cxx11R17Webserver_Request
bibledit:_Z13notes_commentB5cxx11R17Webserver_Request
bibledit:_Z13notes_summaryB5cxx11R17Webserver_Request
bibledit:_Z13public_createB5cxx11R17Webserver_Request
bibledit:_Z13read_load_aclR17Webserver_Request
bibledit:_Z13read_load_urlB5cxx11v
bibledit:_Z13road_is_clearRKSt6vectorINSt7__cxx1112basic_stringIcSt11char_traitsIcESaIcEEESaIS5_EEjRKS5_
bibledit:_Z13search_getidsB5cxx11R17Webserver_Request
bibledit:_Z13search_strongB5cxx11R17Webserver_Request
bibledit:_Z13session_loginB5cxx11R17Webserver_Request
bibledit:_Z13styles_indexmB5cxx11R17Webserver_Request
bibledit:_Z13styles_sheetmB5cxx11R17Webserver_Request
bibledit:_Z13sync_mail_urlB5cxx11v
bibledit:_Z13sync_settingsB5cxx11R17Webserver_Request
bibledit:_Z13tasks_run_oneRKNSt7__cxx1112basic_stringIcSt11char_traitsIcESaIcEEE
bibledit:_Z13webkit_searchP10_GtkWidget
bibledit:_Z14bible_book_aclR17Webserver_Request
bibledit:_Z14bible_book_urlB5cxx11v
bibledit:_Z14bible_settingsB5cxx11R17Webserver_Request
bibledit:_Z14changes_changeB5cxx11R17Webserver_Request
bibledit:_Z14changes_manageB5cxx11R17Webserver_Request
bibledit:_Z14demo_workspaceB5cxx11v
bibledit:_Z14edit_index_aclR17Webserver_Request
bibledit:_Z14edit_index_urlB5cxx11v
bibledit:_Z14editone_updateB5cxx11R17Webserver_Request
bibledit:_Z14editusfm_focusB5cxx11R17Webserver_Request
bibledit:_Z14editusfm_indexB5cxx11R17Webserver_Request
bibledit:_Z14help_index_aclR17Webserver_Request
bibledit:_Z14help_index_urlRKNSt7__cxx1112basic_stringIcSt11char_traitsIcESaIcEEE
bibledit:_Z14jobs_index_aclR17Webserver_Request
bibledit:_Z14jobs_index_urlB5cxx11v
bibledit:_Z14ldap_logic_uriB5cxx11
bibledit:_Z14manage_exportsB5cxx11R17Webserver_Request
bibledit:_Z14menu_index_aclR17Webserver_Request
bibledit:_Z14menu_index_urlB5cxx11v
bibledit:_Z14notes_assign_1B5cxx11R17Webserver_Request
bibledit:_Z14notes_assign_nB5cxx11R17Webserver_Request
bibledit:_Z14notes_bulk_aclR17Webserver_Request
bibledit:_Z14notes_bulk_urlB5cxx11v
bibledit:_Z14notes_edit_aclR17Webserver_Request
bibledit:_Z14notes_edit_urlB5cxx11v
bibledit:_Z14notes_note_aclR17Webserver_Request
bibledit:_Z14notes_note_urlB5cxx11v
bibledit:_Z14notes_poll_aclR17Webserver_Request
bibledit:_Z14notes_poll_urlB5cxx11v
bibledit:_Z14notes_status_1B5cxx11R17Webserver_Request
bibledit:_Z14notes_status_nB5cxx11R17Webserver_Request
bibledit:_Z14paratext_indexB5cxx11R17Webserver_Request
bibledit:_Z14public_chapterB5cxx11R17Webserver_Request
bibledit:_Z14public_commentB5cxx11R17Webserver_Request
bibledit:_Z14public_new_aclR17Webserver_Request
bibledit:_Z14public_new_urlB5cxx11v
bibledit:_Z14read_index_aclR17Webserver_Request
bibledit:_Z14read_index_urlB5cxx11v
bibledit:_Z14read_verse_aclR17Webserver_Request
bibledit:_Z14read_verse_urlB5cxx11v
bibledit:_Z14resource_cacheB5cxx11R17Webserver_Request
bibledit:_Z14resource_indexB5cxx11R17Webserver_Request
bibledit:_Z14resource_swordB5cxx11R17Webserver_Request
bibledit:_Z14search_all_aclR17Webserver_Request
bibledit:_Z14search_all_urlB5cxx11v
bibledit:_Z14search_getids2B5cxx11R17Webserver_Request
bibledit:_Z14search_replaceB5cxx11R17Webserver_Request
bibledit:_Z14search_search2B5cxx11R17Webserver_Request
bibledit:_Z14search_similarB5cxx11R17Webserver_Request
bibledit:_Z14search_strongsB5cxx11R17Webserver_Request
bibledit:_Z14session_logoutB5cxx11R17Webserver_Request
bibledit:_Z14session_signupB5cxx11R17Webserver_Request
bibledit:_Z14session_switchB5cxx11R17Webserver_Request
bibledit:_Z14styles_new_aclR17Webserver_Request
bibledit:_Z14styles_new_urlB5cxx11v
bibledit:_Z14sync_files_urlB5cxx11v
bibledit:_Z14sync_notes_urlB5cxx11v
bibledit:_Z14sync_resourcesB5cxx11R17Webserver_Request
bibledit:_Z14sync_setup_urlB5cxx11v
bibledit:_Z14workspace_copyR17Webserver_RequestNSt7__cxx1112basic_stringIcSt11char_traitsIcESaIcEEES6_
bibledit:_Z14workspace_sendR17Webserver_RequestNSt7__cxx1112basic_stringIcSt11char_traitsIcESaIcEEES6_
bibledit:_Z15assets_externalB5cxx11R17Webserver_Request
bibledit:_Z15bible_order_aclR17Webserver_Request
bibledit:_Z15bible_order_urlB5cxx11v
bibledit:_Z15bootstrap_indexR17Webserver_Request
bibledit:_Z15changes_changesB5cxx11R17Webserver_Request
bibledit:_Z15checks_settingsB5cxx11R17Webserver_Request
bibledit:_Z15checks_suppressB5cxx11R17Webserver_Request
bibledit:_Z15compare_compareRKNSt7__cxx1112basic_stringIcSt11char_traitsIcESaIcEEES6_i
bibledit:_Z15demo_clean_datav
bibledit:_Z15developer_delayB5cxx11R17Webserver_Request
bibledit:_Z15developer_indexB5cxx11R17Webserver_Request
bibledit:_Z15edit_styles_aclR17Webserver_Request
bibledit:_Z15edit_styles_urlB5cxx11v
bibledit:_Z15edit_update_aclR17Webserver_Request
bibledit:_Z15edit_update_urlB5cxx11v
bibledit:_Z15editusfm_offsetB5cxx11R17Webserver_Request
bibledit:_Z15email_index_aclR17Webserver_Request
bibledit:_Z15email_index_urlB5cxx11v
bibledit:_Z15export_odt_bookNSt7__cxx1112basic_stringIcSt11char_traitsIcESaIcEEEib
bibledit:_Z15export_web_bookNSt7__cxx1112basic_stringIcSt11char_traitsIcESaIcEEEib
bibledit:_Z15get_loaded_usfmR17Webserver_RequestRKNSt7__cxx1112basic_stringIcSt11char_traitsIcESaIcEEEiiS8_
bibledit:_Z15help_index_htmlRKNSt7__cxx1112basic_stringIcSt11char_traitsIcESaIcEEE
bibledit:_Z15http_parse_hostRKNSt7__cxx1112basic_stringIcSt11char_traitsIcESaIcEEE
bibledit:_Z15http_parse_postNSt7__cxx1112basic_stringIcSt11char_traitsIcESaIcEEER17Webserver_Request
bibledit:_Z15images_view_aclR17Webserver_Request
bibledit:_Z15images_view_urlB5cxx11v
bibledit:_Z15index_index_aclR17Webserver_Request
bibledit:_Z15index_index_urlv
bibledit:_Z15ldap_logic_roleB5cxx11
bibledit:_Z15manage_accountsB5cxx11R17Webserver_Request
bibledit:_Z15mapping_map_aclR17Webserver_Request
bibledit:_Z15mapping_map_urlB5cxx11v
bibledit:_Z15menu_logic_hrefNSt7__cxx1112basic_stringIcSt11char_traitsIcESaIcEEE
bibledit:_Z15navigation_pollB5cxx11R17Webserver_Request
bibledit:_Z15notes_click_aclR17Webserver_Request
bibledit:_Z15notes_click_urlB5cxx11v
bibledit:_Z15notes_index_aclR17Webserver_Request
bibledit:_Z15notes_index_urlB5cxx11v
bibledit:_Z15notes_notes_aclR17Webserver_Request
bibledit:_Z15notes_notes_urlB5cxx11v
bibledit:_Z15public_note_aclR17Webserver_Request
bibledit:_Z15public_note_urlB5cxx11v
bibledit:_Z15resource_manageB5cxx11R17Webserver_Request
bibledit:_Z15resource_selectB5cxx11R17Webserver_Request
bibledit:_Z15resource_unloadB5cxx11R17Webserver_Request
bibledit:_Z15search_replace2B5cxx11R17Webserver_Request
bibledit:_Z15sendreceive_tagB5cxx11v
bibledit:_Z15session_confirmB5cxx11R17Webserver_Request
bibledit:_Z15sprint_burndownNSt7__cxx1112basic_stringIcSt11char_traitsIcESaIcEEEii
bibledit:_Z15styles_view_aclR17Webserver_Request
bibledit:_Z15styles_view_urlB5cxx11v
bibledit:_Z15sword_logic_logNSt7__cxx1112basic_stringIcSt11char_traitsIcESaIcEEE
bibledit:_Z15sync_bibles_urlB5cxx11v
bibledit:_Z15tasks_run_checkv
bibledit:_Z15webbible_searchB5cxx11R17Webserver_Request
bibledit:_Z15workspace_indexB5cxx11R17Webserver_Request
bibledit:_Z16bible_import_aclR17Webserver_Request
bibledit:_Z16bible_import_runNSt7__cxx1112basic_stringIcSt11char_traitsIcESaIcEEERKS4_ii
bibledit:_Z16bible_import_urlB5cxx11v
bibledit:_Z16bible_manage_aclR17Webserver_Request
bibledit:_Z16bible_manage_urlB5cxx11v
bibledit:_Z16checks_index_aclR17Webserver_Request
bibledit:_Z16checks_index_urlB5cxx11v
bibledit:_Z16client_index_aclR17Webserver_Request
bibledit:_Z16client_index_urlB5cxx11v
bibledit:_Z16client_logic_urlRKNSt7__cxx1112basic_stringIcSt11char_traitsIcESaIcEEEiS6_
bibledit:_Z16consistency_pollB5cxx11R17Webserver_Request
bibledit:_Z16edit_preview_aclR17Webserver_Request
bibledit:_Z16edit_preview_urlB5cxx11v
bibledit:_Z16editone_load_aclR17Webserver_Request
bibledit:_Z16editone_load_urlB5cxx11v
bibledit:_Z16editone_save_aclR17Webserver_Request
bibledit:_Z16editone_save_urlB5cxx11v
bibledit:_Z16editor_style_aclR17Webserver_Request
bibledit:_Z16editor_style_urlB5cxx11v
bibledit:_Z16export_html_bookRKNSt7__cxx1112basic_stringIcSt11char_traitsIcESaIcEEEib
bibledit:_Z16export_web_indexNSt7__cxx1112basic_stringIcSt11char_traitsIcESaIcEEEb
bibledit:_Z16filter_diff_diffNSt7__cxx1112basic_stringIcSt11char_traitsIcESaIcEEES4_PSt6vectorIS4_SaIS4_EES8_
bibledit:_Z16filter_merge_runNSt7__cxx1112basic_stringIcSt11char_traitsIcESaIcEEES4_S4_bRSt6vectorI14Merge_ConflictSaIS6_EE
bibledit:_Z16filter_url_mkdirNSt7__cxx1112basic_stringIcSt11char_traitsIcESaIcEEE
bibledit:_Z16filter_url_rmdirRKNSt7__cxx1112basic_stringIcSt11char_traitsIcESaIcEEE
bibledit:_Z16http_stream_fileR17Webserver_Requestb
bibledit:_Z16images_fetch_aclR17Webserver_Request
bibledit:_Z16images_fetch_urlB5cxx11v
bibledit:_Z16images_index_aclR17Webserver_Request
bibledit:_Z16images_index_urlB5cxx11v
bibledit:_Z16ldap_logic_clearv
bibledit:_Z16ldap_logic_fetchRKNSt7__cxx1112basic_stringIcSt11char_traitsIcESaIcEEES6_RbRS4_Rib
bibledit:_Z16ldap_logic_is_onb
bibledit:_Z16ldap_logic_scopeB5cxx11
bibledit:_Z16manage_index_aclR17Webserver_Request
bibledit:_Z16manage_index_urlB5cxx11v
bibledit:_Z16manage_users_aclR17Webserver_Request
bibledit:_Z16manage_users_urlB5cxx11v
bibledit:_Z16manage_write_aclR17Webserver_Request
bibledit:_Z16manage_write_urlB5cxx11v
bibledit:_Z16menu_logic_clickNSt7__cxx1112basic_stringIcSt11char_traitsIcESaIcEEE
bibledit:_Z16notes_create_aclR17Webserver_Request
bibledit:_Z16notes_create_urlB5cxx11v
bibledit:_Z16notes_select_aclR17Webserver_Request
bibledit:_Z16notes_select_urlB5cxx11v
bibledit:_Z16notes_severity_1B5cxx11R17Webserver_Request
bibledit:_Z16notes_severity_nB5cxx11R17Webserver_Request
bibledit:_Z16notes_unassign_nB5cxx11R17Webserver_Request
bibledit:_Z16notes_verses_aclR17Webserver_Request
bibledit:_Z16notes_verses_urlB5cxx11v
bibledit:_Z16public_index_aclR17Webserver_Request
bibledit:_Z16public_index_urlB5cxx11v
bibledit:_Z16public_login_aclR17Webserver_Request
bibledit:_Z16public_login_urlv
bibledit:_Z16public_notes_aclR17Webserver_Request
bibledit:_Z16public_notes_urlB5cxx11v
bibledit:_Z16redirect_browserR17Webserver_RequestNSt7__cxx1112basic_stringIcSt11char_traitsIcESaIcEEE
bibledit:_Z16resource_dividerB5cxx11R17Webserver_Request
bibledit:_Z16resource_get_aclR17Webserver_Request
bibledit:_Z16resource_get_urlB5cxx11v
bibledit:_Z16search_index_aclR17Webserver_Request
bibledit:_Z16search_index_urlB5cxx11v
bibledit:_Z16search_originalsB5cxx11R17Webserver_Request
bibledit:_Z16search_replacegoB5cxx11R17Webserver_Request
bibledit:_Z16session_passwordB5cxx11R17Webserver_Request
bibledit:_Z16sprint_index_aclR17Webserver_Request
bibledit:_Z16sprint_index_urlB5cxx11v
bibledit:_Z16sync_changes_urlB5cxx11v
bibledit:_Z16system_index_aclR17Webserver_Request
bibledit:_Z16system_index_urlB5cxx11v
bibledit:_Z16user_account_aclR17Webserver_Request
bibledit:_Z16user_account_urlB5cxx11v
bibledit:_Z16workspace_deleteR17Webserver_RequestNSt7__cxx1112basic_stringIcSt11char_traitsIcESaIcEEE
bibledit:_Z17bible_chapter_aclR17Webserver_Request
bibledit:_Z17bible_chapter_urlB5cxx11v
bibledit:_Z17bible_import_textRKNSt7__cxx1112basic_stringIcSt11char_traitsIcESaIcEEES6_ii
bibledit:_Z17bible_import_usfmRKNSt7__cxx1112basic_stringIcSt11char_traitsIcESaIcEEES6_ii
bibledit:_Z17compare_index_aclR17Webserver_Request
bibledit:_Z17compare_index_urlB5cxx11v
bibledit:_Z17consistency_indexB5cxx11R17Webserver_Request
bibledit:_Z17consistency_inputB5cxx11R17Webserver_Request
bibledit:_Z17edit_navigate_aclR17Webserver_Request
bibledit:_Z17edit_navigate_urlB5cxx11v
bibledit:_Z17edit_position_aclR17Webserver_Request
bibledit:_Z17edit_position_urlB5cxx11v
bibledit:_Z17editone_index_aclR17Webserver_Request
bibledit:_Z17editone_index_urlB5cxx11v
bibledit:_Z17editone_verse_aclR17Webserver_Request
bibledit:_Z17editone_verse_urlB5cxx11v
bibledit:_Z17editor_select_aclR17Webserver_Request
bibledit:_Z17editor_select_urlB5cxx11v
bibledit:_Z17editusfm_load_aclR17Webserver_Request
bibledit:_Z17editusfm_load_urlB5cxx11v
bibledit:_Z17editusfm_save_aclR17Webserver_Request
bibledit:_Z17editusfm_save_urlB5cxx11v
bibledit:_Z17filter_url_dir_cpRKNSt7__cxx1112basic_stringIcSt11char_traitsIcESaIcEEES6_
bibledit:_Z17filter_url_is_dirRKNSt7__cxx1112basic_stringIcSt11char_traitsIcESaIcEEE
bibledit:_Z17filter_url_renameRKNSt7__cxx1112basic_stringIcSt11char_traitsIcESaIcEEES6_
bibledit:_Z17filter_url_unlinkRKNSt7__cxx1112basic_stringIcSt11char_traitsIcESaIcEEE
bibledit:_Z17http_parse_headerNSt7__cxx1112basic_stringIcSt11char_traitsIcESaIcEEER17Webserver_Request
bibledit:_Z17index_listing_aclR17Webserver_RequestNSt7__cxx1112basic_stringIcSt11char_traitsIcESaIcEEE
bibledit:_Z17index_listing_urlRKNSt7__cxx1112basic_stringIcSt11char_traitsIcESaIcEEE
bibledit:_Z17journal_index_aclR17Webserver_Request
bibledit:_Z17journal_index_urlv
bibledit:_Z17ldap_logic_basednB5cxx11
bibledit:_Z17ldap_logic_binddnB5cxx11
bibledit:_Z17ldap_logic_filterB5cxx11
bibledit:_Z17locale_logic_dateB5cxx11i
bibledit:_Z17log_network_cacheB5cxx11
bibledit:_Z17manage_bibles_aclR17Webserver_Request
bibledit:_Z17manage_bibles_urlB5cxx11v
bibledit:_Z17manage_privilegesB5cxx11R17Webserver_Request
bibledit:_Z17mapping_index_aclR17Webserver_Request
bibledit:_Z17mapping_index_urlB5cxx11v
bibledit:_Z17navigation_updateB5cxx11R17Webserver_Request
bibledit:_Z17notes_actions_aclR17Webserver_Request
bibledit:_Z17notes_actions_urlB5cxx11v
bibledit:_Z17notes_bible_1_aclR17Webserver_Request
bibledit:_Z17notes_bible_1_urlB5cxx11v
bibledit:_Z17notes_bible_n_aclR17Webserver_Request
bibledit:_Z17notes_bible_n_urlB5cxx11v
bibledit:_Z17notes_comment_aclR17Webserver_Request
bibledit:_Z17notes_comment_urlB5cxx11v
bibledit:_Z17notes_summary_aclR17Webserver_Request
bibledit:_Z17notes_summary_urlB5cxx11v
bibledit:_Z17personalize_indexB5cxx11R17Webserver_Request
bibledit:_Z17public_create_aclR17Webserver_Request
bibledit:_Z17public_create_urlB5cxx11v
bibledit:_Z17resource_downloadB5cxx11R17Webserver_Request
bibledit:_Z17resource_organizeB5cxx11R17Webserver_Request
bibledit:_Z17search_getids_aclR17Webserver_Request
bibledit:_Z17search_getids_urlB5cxx11v
bibledit:_Z17search_replacego2B5cxx11R17Webserver_Request
bibledit:_Z17search_replacepreB5cxx11R17Webserver_Request
bibledit:_Z17search_strong_aclR17Webserver_Request
bibledit:_Z17search_strong_urlB5cxx11v
bibledit:_Z17sendreceive_filesv
bibledit:_Z17sendreceive_indexB5cxx11R17Webserver_Request
bibledit:_Z17sendreceive_notesv
bibledit:_Z17session_login_aclR17Webserver_Request
bibledit:_Z17session_login_urlv
bibledit:_Z17store_loaded_usfmR17Webserver_RequestRKNSt7__cxx1112basic_stringIcSt11char_traitsIcESaIcEEEiiS8_
bibledit:_Z17styles_indexm_aclR17Webserver_Request
bibledit:_Z17styles_indexm_urlB5cxx11v
bibledit:_Z17styles_sheetm_aclR17Webserver_Request
bibledit:_Z17styles_sheetm_urlB5cxx11v
bibledit:_Z17sync_settings_urlB5cxx11v
bibledit:_Z17tasks_logic_queueNSt7__cxx1112basic_stringIcSt11char_traitsIcESaIcEEESt6vectorIS4_SaIS4_EE
bibledit:_Z17workspace_reorderR17Webserver_RequestRKSt6vectorINSt7__cxx1112basic_stringIcSt11char_traitsIcESaIcEEESaIS7_EE
bibledit:_Z18bible_settings_aclR17Webserver_Request
bibledit:_Z18bible_settings_urlB5cxx11v
bibledit:_Z18changes_change_aclR17Webserver_Request
bibledit:_Z18changes_change_urlB5cxx11v
bibledit:_Z18changes_interlinksR17Webserver_RequestNSt7__cxx1112basic_stringIcSt11char_traitsIcESaIcEEE
bibledit:_Z18changes_manage_aclR17Webserver_Request
bibledit:_Z18changes_manage_urlB5cxx11v
bibledit:_Z18changes_statisticsB5cxx11R17Webserver_Request
bibledit:_Z18collaboration_linkRKNSt7__cxx1112basic_stringIcSt11char_traitsIcESaIcEEEiS6_
bibledit:_Z18editone_update_aclR17Webserver_Request
bibledit:_Z18editone_update_urlB5cxx11v
bibledit:_Z18editusfm_focus_aclR17Webserver_Request
bibledit:_Z18editusfm_focus_urlB5cxx11v
bibledit:_Z18editusfm_index_aclR17Webserver_Request
bibledit:_Z18editusfm_index_urlB5cxx11v
bibledit:_Z18export_onlinebibleNSt7__cxx1112basic_stringIcSt11char_traitsIcESaIcEEEb
bibledit:_Z18file_or_dir_existsRKNSt7__cxx1112basic_stringIcSt11char_traitsIcESaIcEEE
bibledit:_Z18filter_merge_mergeRKSt6vectorINSt7__cxx1112basic_stringIcSt11char_traitsIcESaIcEEESaIS5_EES9_S9_
bibledit:_Z18filter_url_dirnameNSt7__cxx1112basic_stringIcSt11char_traitsIcESaIcEEE
bibledit:_Z18filter_url_file_cpRKNSt7__cxx1112basic_stringIcSt11char_traitsIcESaIcEEES6_
bibledit:_Z18filter_url_scandirRKNSt7__cxx1112basic_stringIcSt11char_traitsIcESaIcEEE
bibledit:_Z18gbs_plus_processorNSt7__cxx1112basic_stringIcSt11char_traitsIcESaIcEEEiii
bibledit:_Z18lexicon_definitionB5cxx11R17Webserver_Request
bibledit:_Z18locale_logic_monthB5cxx11i
bibledit:_Z18manage_exports_aclR17Webserver_Request
bibledit:_Z18manage_exports_urlv
bibledit:_Z18notes_assign_1_aclR17Webserver_Request
bibledit:_Z18notes_assign_1_urlB5cxx11v
bibledit:_Z18notes_assign_n_aclR17Webserver_Request
bibledit:_Z18notes_assign_n_urlB5cxx11v
bibledit:_Z18notes_status_1_aclR17Webserver_Request
bibledit:_Z18notes_status_1_urlB5cxx11v
bibledit:_Z18notes_status_n_aclR17Webserver_Request
bibledit:_Z18notes_status_n_urlB5cxx11v
bibledit:_Z18paratext_index_aclR17Webserver_Request
bibledit:_Z18paratext_index_urlB5cxx11v
bibledit:_Z18public_chapter_aclR17Webserver_Request
bibledit:_Z18public_chapter_urlB5cxx11v
bibledit:_Z18public_comment_aclR17Webserver_Request
bibledit:_Z18public_comment_urlB5cxx11v
bibledit:_Z18resource_cache_aclR17Webserver_Request
bibledit:_Z18resource_cache_urlB5cxx11v
bibledit:_Z18resource_index_aclR17Webserver_Request
bibledit:_Z18resource_index_urlB5cxx11v
bibledit:_Z18resource_sword_aclR17Webserver_Request
bibledit:_Z18resource_sword_urlB5cxx11v
bibledit:_Z18resource_user1editB5cxx11R17Webserver_Request
bibledit:_Z18resource_user1viewB5cxx11R17Webserver_Request
bibledit:_Z18resource_user9editB5cxx11R17Webserver_Request
bibledit:_Z18resource_user9viewB5cxx11R17Webserver_Request
bibledit:_Z18search_getids2_aclR17Webserver_Request
bibledit:_Z18search_getids2_urlB5cxx11v
bibledit:_Z18search_replace_aclR17Webserver_Request
bibledit:_Z18search_replace_urlB5cxx11v
bibledit:_Z18search_replacepre2B5cxx11R17Webserver_Request
bibledit:_Z18search_search2_aclR17Webserver_Request
bibledit:_Z18search_search2_urlB5cxx11v
bibledit:_Z18search_similar_aclR17Webserver_Request
bibledit:_Z18search_similar_urlB5cxx11v
bibledit:_Z18search_strongs_aclR17Webserver_Request
bibledit:_Z18search_strongs_urlB5cxx11v
bibledit:_Z18sendreceive_biblesv
bibledit:_Z18session_logout_aclR17Webserver_Request
bibledit:_Z18session_logout_urlv
bibledit:_Z18session_signup_aclR17Webserver_Request
bibledit:_Z18session_signup_urlv
bibledit:_Z18session_switch_aclR17Webserver_Request
bibledit:_Z18session_switch_urlv
bibledit:_Z18setup_complete_guiv
bibledit:_Z18setup_copy_libraryPKc
bibledit:_Z18setup_write_accessv
bibledit:_Z18sync_resources_urlB5cxx11v
bibledit:_Z18sync_usfmresourcesB5cxx11R17Webserver_Request
bibledit:_Z18tasks_logic_folderB5cxx11v
bibledit:_Z18tasks_logic_queuedNSt7__cxx1112basic_stringIcSt11char_traitsIcESaIcEEESt6vectorIS4_SaIS4_EE
bibledit:_Z18user_notificationsB5cxx11R17Webserver_Request
bibledit:_Z18workspace_get_urlsB5cxx11R17Webserver_Requestb
bibledit:_Z18workspace_organizeB5cxx11R17Webserver_Request
bibledit:_Z18workspace_set_urlsR17Webserver_RequestRKSt3mapIiNSt7__cxx1112basic_stringIcSt11char_traitsIcESaIcEEESt4lessIiESaISt4pairIKiS7_EEE
bibledit:_Z18workspace_settingsB5cxx11R17Webserver_Request
bibledit:_Z19assets_external_urlB5cxx11v
bibledit:_Z19changes_changes_aclR17Webserver_Request
bibledit:_Z19changes_changes_urlB5cxx11v
bibledit:_Z19changes_logic_startv
bibledit:_Z19checks_settings_aclR17Webserver_Request
bibledit:_Z19checks_settings_urlB5cxx11v
bibledit:_Z19checks_suppress_aclR17Webserver_Request
bibledit:_Z19checks_suppress_urlB5cxx11v
bibledit:_Z19collaboration_indexB5cxx11R17Webserver_Request
bibledit:_Z19demo_client_warningB5cxx11v
bibledit:_Z19developer_delay_aclR17Webserver_Request
bibledit:_Z19developer_delay_urlv
bibledit:_Z19developer_index_aclR17Webserver_Request
bibledit:_Z19developer_index_urlv
bibledit:_Z19editusfm_offset_aclR17Webserver_Request
bibledit:_Z19editusfm_offset_urlB5cxx11v
bibledit:_Z19filter_url_basenameNSt7__cxx1112basic_stringIcSt11char_traitsIcESaIcEEE
bibledit:_Z19filter_url_filesizeRKNSt7__cxx1112basic_stringIcSt11char_traitsIcESaIcEEE
bibledit:_Z19filter_url_http_getNSt7__cxx1112basic_stringIcSt11char_traitsIcESaIcEEERS4_b
bibledit:_Z19filter_url_is_imageNSt7__cxx1112basic_stringIcSt11char_traitsIcESaIcEEE
bibledit:_Z19filter_url_temp_dirv
bibledit:_Z19filter_url_tempfileB5cxx11PKc
bibledit:_Z19gbs_basic_processorNSt7__cxx1112basic_stringIcSt11char_traitsIcESaIcEEEi
bibledit:_Z19manage_accounts_aclR17Webserver_Request
bibledit:_Z19manage_accounts_urlB5cxx11v
bibledit:_Z19menu_logic_menu_urlNSt7__cxx1112basic_stringIcSt11char_traitsIcESaIcEEE
bibledit:_Z19navigation_poll_aclR17Webserver_Request
bibledit:_Z19navigation_poll_urlB5cxx11v
bibledit:_Z19public_logic_biblesB5cxx11v
bibledit:_Z19resource_manage_aclR17Webserver_Request
bibledit:_Z19resource_manage_urlB5cxx11v
bibledit:_Z19resource_select_aclR17Webserver_Request
bibledit:_Z19resource_select_urlB5cxx11v
bibledit:_Z19resource_studylightB5cxx11R17Webserver_Request
bibledit:_Z19resource_unload_aclR17Webserver_Request
bibledit:_Z19resource_unload_urlB5cxx11v
bibledit:_Z19search_replace2_aclR17Webserver_Request
bibledit:_Z19search_replace2_urlB5cxx11v
bibledit:_Z19sendreceive_changesv
bibledit:_Z19session_confirm_aclR17Webserver_Request
bibledit:_Z19session_confirm_urlv
bibledit:_Z19setup_conditionallyPKc
bibledit:_Z19versification_indexB5cxx11R17Webserver_Request
bibledit:_Z19webbible_search_aclR17Webserver_Request
bibledit:_Z19webbible_search_urlB5cxx11v
bibledit:_Z19workspace_get_namesB5cxx11R17Webserver_Requestb
bibledit:_Z19workspace_index_aclR17Webserver_Request
bibledit:_Z19workspace_index_urlB5cxx11v
bibledit:_Z20checks_settingspairsB5cxx11R17Webserver_Request
bibledit:_Z20consistency_poll_aclR17Webserver_Request
bibledit:_Z20consistency_poll_urlB5cxx11v
bibledit:_Z20database_maintenancev
bibledit:_Z20filter_archive_unzipNSt7__cxx1112basic_stringIcSt11char_traitsIcESaIcEEE
bibledit:_Z20filter_diff_run_fileNSt7__cxx1112basic_stringIcSt11char_traitsIcESaIcEEES4_S4_
bibledit:_Z20filter_url_http_postRKNSt7__cxx1112basic_stringIcSt11char_traitsIcESaIcEEES4_RKSt3mapIS4_S4_St4lessIS4_ESaISt4pairIS5_S4_EEERS4_bbRKSt6vectorISA_IS4_S4_ESaISI_EE
bibledit:_Z20filter_url_urldecodeNSt7__cxx1112basic_stringIcSt11char_traitsIcESaIcEEE
bibledit:_Z20filter_url_urlencodeNSt7__cxx1112basic_stringIcSt11char_traitsIcESaIcEEE
bibledit:_Z20menu_logic_help_textB5cxx11v
bibledit:_Z20menu_logic_menu_textB5cxx11v
bibledit:_Z20menu_logic_menu_textNSt7__cxx1112basic_stringIcSt11char_traitsIcESaIcEEE
bibledit:_Z20notes_severity_1_aclR17Webserver_Request
bibledit:_Z20notes_severity_1_urlB5cxx11v
bibledit:_Z20notes_severity_n_aclR17Webserver_Request
bibledit:_Z20notes_severity_n_urlB5cxx11v
bibledit:_Z20notes_unassign_n_aclR17Webserver_Request
bibledit:_Z20notes_unassign_n_urlB5cxx11v
bibledit:_Z20render_journal_entryNSt7__cxx1112basic_stringIcSt11char_traitsIcESaIcEEEi
bibledit:_Z20resource_divider_aclR17Webserver_Request
bibledit:_Z20resource_divider_urlB5cxx11v
bibledit:_Z20search_originals_aclR17Webserver_Request
bibledit:_Z20search_originals_urlB5cxx11v
bibledit:_Z20search_reindex_notesv
bibledit:_Z20search_replacego_aclR17Webserver_Request
bibledit:_Z20search_replacego_urlB5cxx11v
bibledit:_Z20sendreceive_settingsv
bibledit:_Z20session_password_aclR17Webserver_Request
bibledit:_Z20session_password_urlv
bibledit:_Z20sword_logic_diathekeRKNSt7__cxx1112basic_stringIcSt11char_traitsIcESaIcEEES6_iiRb
bibledit:_Z20sword_logic_get_nameNSt7__cxx1112basic_stringIcSt11char_traitsIcESaIcEEE
bibledit:_Z20sword_logic_get_pathB5cxx11v
bibledit:_Z20sword_logic_get_textRKNSt7__cxx1112basic_stringIcSt11char_traitsIcESaIcEEES6_iii
bibledit:_Z20versification_systemB5cxx11R17Webserver_Request
bibledit:_Z20workspace_get_valuesB5cxx11R17Webserver_Requestib
bibledit:_Z20workspace_get_widthsB5cxx11R17Webserver_Request
bibledit:_Z20workspace_set_valuesR17Webserver_RequestiRKSt3mapIiNSt7__cxx1112basic_stringIcSt11char_traitsIcESaIcEEESt4lessIiESaISt4pairIKiS7_EEE
bibledit:_Z20workspace_set_widthsR17Webserver_RequestRKSt3mapIiNSt7__cxx1112basic_stringIcSt11char_traitsIcESaIcEEESt4lessIiESaISt4pairIKiS7_EEE
bibledit:_Z21bibleserver_processorNSt7__cxx1112basic_stringIcSt11char_traitsIcESaIcEEEiii
bibledit:_Z21changes_modificationsv
bibledit:_Z21consistency_index_aclR17Webserver_Request
bibledit:_Z21consistency_index_urlB5cxx11v
bibledit:_Z21consistency_input_aclR17Webserver_Request
bibledit:_Z21consistency_input_urlB5cxx11v
bibledit:_Z21export_text_usfm_bookNSt7__cxx1112basic_stringIcSt11char_traitsIcESaIcEEEib
bibledit:_Z21filter_url_set_schemeNSt7__cxx1112basic_stringIcSt11char_traitsIcESaIcEEEb
bibledit:_Z21ldap_logic_initializev
bibledit:_Z21manage_privileges_aclR17Webserver_Request
bibledit:_Z21manage_privileges_urlB5cxx11v
bibledit:_Z21menu_logic_tools_menuB5cxx11v
bibledit:_Z21menu_logic_tools_textB5cxx11v
bibledit:_Z21navigation_update_aclR17Webserver_Request
bibledit:_Z21navigation_update_urlB5cxx11v
bibledit:_Z21personalize_index_aclR17Webserver_Request
bibledit:_Z21personalize_index_urlB5cxx11v
bibledit:_Z21resource_biblegatewayB5cxx11R17Webserver_Request
bibledit:_Z21resource_download_aclR17Webserver_Request
bibledit:_Z21resource_download_urlB5cxx11v
bibledit:_Z21resource_organize_aclR17Webserver_Request
bibledit:_Z21resource_organize_urlB5cxx11v
bibledit:_Z21search_reindex_biblesb
bibledit:_Z21search_replacego2_aclR17Webserver_Request
bibledit:_Z21search_replacego2_urlB5cxx11v
bibledit:_Z21search_replacepre_aclR17Webserver_Request
bibledit:_Z21search_replacepre_urlB5cxx11v
bibledit:_Z21sendreceive_index_aclR17Webserver_Request
bibledit:_Z21sendreceive_index_urlB5cxx11v
bibledit:_Z21sendreceive_queue_allb
bibledit:_Z21sendreceive_resourcesv
bibledit:_Z21setup_initialize_datav
bibledit:_Z21statistics_statisticsv
bibledit:_Z21workspace_get_heightsB5cxx11R17Webserver_Request
bibledit:_Z21workspace_set_heightsR17Webserver_RequestRKSt3mapIiNSt7__cxx1112basic_stringIcSt11char_traitsIcESaIcEEESt4lessIiESaISt4pairIKiS7_EEE
bibledit:_Z22changes_bible_categoryv
bibledit:_Z22changes_statistics_aclR17Webserver_Request
bibledit:_Z22changes_statistics_addR11Assets_ViewRKNSt7__cxx1112basic_stringIcSt11char_traitsIcESaIcEEEi
bibledit:_Z22changes_statistics_urlB5cxx11v
bibledit:_Z22collaboration_settingsB5cxx11R17Webserver_Request
bibledit:_Z22demo_sample_bible_nameB5cxx11v
bibledit:_Z22filter_diff_diff_utf16RKSt6vectorINSt7__cxx1112basic_stringIcSt11char_traitsIcESaIcEEESaIS5_EES9_RS_IiSaIiEESC_RS_IbSaIbEERS7_Ri
bibledit:_Z22filter_image_get_sizesNSt7__cxx1112basic_stringIcSt11char_traitsIcESaIcEEERiS5_
bibledit:_Z22filter_passage_displayiiNSt7__cxx1112basic_stringIcSt11char_traitsIcESaIcEEE
bibledit:_Z22filter_url_create_pathRKSt6vectorINSt7__cxx1112basic_stringIcSt11char_traitsIcESaIcEEESaIS5_EE
bibledit:_Z22filter_url_dirname_webNSt7__cxx1112basic_stringIcSt11char_traitsIcESaIcEEE
bibledit:_Z22filter_url_plus_to_tagNSt7__cxx1112basic_stringIcSt11char_traitsIcESaIcEEE
bibledit:_Z22filter_url_tag_to_plusNSt7__cxx1112basic_stringIcSt11char_traitsIcESaIcEEE
bibledit:_Z22filter_url_unique_pathNSt7__cxx1112basic_stringIcSt11char_traitsIcESaIcEEE
bibledit:_Z22http_assemble_responseR17Webserver_Request
bibledit:_Z22lexicon_definition_aclR17Webserver_Request
bibledit:_Z22lexicon_definition_urlB5cxx11v
bibledit:_Z22lexicon_logic_get_htmlR17Webserver_RequestNSt7__cxx1112basic_stringIcSt11char_traitsIcESaIcEEEiii
bibledit:_Z22lexicon_logic_get_textRNSt7__cxx1112basic_stringIcSt11char_traitsIcESaIcEEE
bibledit:_Z22locale_logic_date_timeB5cxx11i
bibledit:_Z22menu_logic_create_itemNSt7__cxx1112basic_stringIcSt11char_traitsIcESaIcEEES4_bS4_S4_
bibledit:_Z22menu_logic_logout_textB5cxx11v
bibledit:_Z22menu_logic_search_menuB5cxx11v
bibledit:_Z22menu_logic_search_textB5cxx11v
bibledit:_Z22menu_logic_styles_textB5cxx11v
bibledit:_Z22resource_external_typeNSt7__cxx1112basic_stringIcSt11char_traitsIcESaIcEEE
bibledit:_Z22resource_logic_is_usfmNSt7__cxx1112basic_stringIcSt11char_traitsIcESaIcEEE
bibledit:_Z22resource_user1edit_aclR17Webserver_Request
bibledit:_Z22resource_user1edit_urlB5cxx11v
bibledit:_Z22resource_user1view_aclR17Webserver_Request
bibledit:_Z22resource_user1view_urlB5cxx11v
bibledit:_Z22resource_user9edit_aclR17Webserver_Request
bibledit:_Z22resource_user9edit_urlB5cxx11v
bibledit:_Z22resource_user9view_aclR17Webserver_Request
bibledit:_Z22resource_user9view_urlB5cxx11v
bibledit:_Z22search_replacepre2_aclR17Webserver_Request
bibledit:_Z22search_replacepre2_urlB5cxx11v
bibledit:_Z22sendreceive_files_donev
bibledit:_Z22sendreceive_files_textB5cxx11v
bibledit:_Z22sendreceive_notes_textB5cxx11v
bibledit:_Z22sendreceive_queue_syncii
bibledit:_Z22sword_logic_get_sourceNSt7__cxx1112basic_stringIcSt11char_traitsIcESaIcEEE
bibledit:_Z22sync_usfmresources_urlB5cxx11v
bibledit:_Z22system_googletranslateB5cxx11R17Webserver_Request
bibledit:_Z22tasks_run_active_countv
bibledit:_Z22user_notifications_aclR17Webserver_Request
bibledit:_Z22user_notifications_urlB5cxx11v
bibledit:_Z22workspace_organize_aclR17Webserver_Request
bibledit:_Z22workspace_organize_urlB5cxx11v
bibledit:_Z22workspace_settings_aclR17Webserver_Request
bibledit:_Z22workspace_settings_urlB5cxx11v
bibledit:_Z23checks_settingspatternsB5cxx11R17Webserver_Request
bibledit:_Z23collaboration_index_aclR17Webserver_Request
bibledit:_Z23collaboration_index_urlB5cxx11v
bibledit:_Z23filter_html_android_brsB5cxx11v
bibledit:_Z23filter_merge_run_cleverNSt7__cxx1112basic_stringIcSt11char_traitsIcESaIcEEES4_S4_RSt6vectorI14Merge_ConflictSaIS6_EE
bibledit:_Z23filter_url_basename_webNSt7__cxx1112basic_stringIcSt11char_traitsIcESaIcEEE
bibledit:_Z23journal_index_ajax_nextR17Webserver_RequestNSt7__cxx1112basic_stringIcSt11char_traitsIcESaIcEEE
bibledit:_Z23locale_logic_text_savedB5cxx11v
bibledit:_Z23menu_logic_changes_textB5cxx11v
bibledit:_Z23resource_bible2resourceB5cxx11R17Webserver_Request
bibledit:_Z23resource_external_countv
bibledit:_Z23resource_external_namesB5cxx11v
bibledit:_Z23resource_logic_get_htmlR17Webserver_RequestNSt7__cxx1112basic_stringIcSt11char_traitsIcESaIcEEEiiib
bibledit:_Z23resource_logic_is_bibleNSt7__cxx1112basic_stringIcSt11char_traitsIcESaIcEEE
bibledit:_Z23resource_logic_is_swordNSt7__cxx1112basic_stringIcSt11char_traitsIcESaIcEEE
bibledit:_Z23resource_studylight_aclR17Webserver_Request
bibledit:_Z23resource_studylight_urlB5cxx11v
bibledit:_Z23search_logic_copy_bibleNSt7__cxx1112basic_stringIcSt11char_traitsIcESaIcEEES4_
bibledit:_Z23sendreceive_bibles_textB5cxx11v
bibledit:_Z23sendreceive_queue_bibleNSt7__cxx1112basic_stringIcSt11char_traitsIcESaIcEEE
bibledit:_Z23sendreceive_sendreceiveNSt7__cxx1112basic_stringIcSt11char_traitsIcESaIcEEE
bibledit:_Z23sendreceive_sync_queuedv
bibledit:_Z23setup_set_admin_detailsRKNSt7__cxx1112basic_stringIcSt11char_traitsIcESaIcEEES6_S6_
bibledit:_Z23sword_logic_clean_verseRKNSt7__cxx1112basic_stringIcSt11char_traitsIcESaIcEEEiiS4_
bibledit:_Z23sword_logic_get_versionNSt7__cxx1112basic_stringIcSt11char_traitsIcESaIcEEE
bibledit:_Z23trash_consultation_noteR17Webserver_Requesti
bibledit:_Z23versification_index_aclR17Webserver_Request
bibledit:_Z23versification_index_urlB5cxx11v
bibledit:_Z23workspace_process_unitsNSt7__cxx1112basic_stringIcSt11char_traitsIcESaIcEEE
bibledit:_Z24checks_settingspairs_aclR17Webserver_Request
bibledit:_Z24checks_settingspairs_urlB5cxx11v
bibledit:_Z24checks_settingssentencesB5cxx11R17Webserver_Request
bibledit:_Z24database_logic_databasesv
bibledit:_Z24database_privileges_fileB5cxx11v
bibledit:_Z24demo_create_sample_biblev
bibledit:_Z24demo_create_sample_notesR17Webserver_Request
bibledit:_Z24editone_logic_move_notesRNSt7__cxx1112basic_stringIcSt11char_traitsIcESaIcEEES5_
bibledit:_Z24filter_merge_lines2wordsNSt7__cxx1112basic_stringIcSt11char_traitsIcESaIcEEE
bibledit:_Z24filter_merge_words2linesNSt7__cxx1112basic_stringIcSt11char_traitsIcESaIcEEE
bibledit:_Z24filter_url_download_fileNSt7__cxx1112basic_stringIcSt11char_traitsIcESaIcEEES4_RS4_b
bibledit:_Z24filter_url_get_extensionRKNSt7__cxx1112basic_stringIcSt11char_traitsIcESaIcEEE
bibledit:_Z24filter_url_get_mime_typeNSt7__cxx1112basic_stringIcSt11char_traitsIcESaIcEEE
bibledit:_Z24lexicon_logic_get_scriptNSt7__cxx1112basic_stringIcSt11char_traitsIcESaIcEEE
bibledit:_Z24locale_logic_deobfuscateNSt7__cxx1112basic_stringIcSt11char_traitsIcESaIcEEE
bibledit:_Z24locale_logic_text_loadedB5cxx11v
bibledit:_Z24locale_logic_text_reloadB5cxx11v
bibledit:_Z24locale_logic_text_savingB5cxx11v
bibledit:_Z24menu_logic_help_categoryB5cxx11R17Webserver_Request
bibledit:_Z24menu_logic_settings_menuB5cxx11v
bibledit:_Z24menu_logic_settings_textB5cxx11v
bibledit:_Z24related_logic_get_versesRKSt6vectorI7PassageSaIS0_EE
bibledit:_Z24resource_logic_can_cacheNSt7__cxx1112basic_stringIcSt11char_traitsIcESaIcEEE
bibledit:_Z24resource_logic_get_namesB5cxx11R17Webserver_Requestb
bibledit:_Z24resource_logic_get_verseR17Webserver_RequestNSt7__cxx1112basic_stringIcSt11char_traitsIcESaIcEEEiii
bibledit:_Z24resource_translated1editB5cxx11R17Webserver_Request
bibledit:_Z24resource_translated9editB5cxx11R17Webserver_Request
bibledit:_Z24search_logic_delete_bookNSt7__cxx1112basic_stringIcSt11char_traitsIcESaIcEEEi
bibledit:_Z24search_logic_search_textNSt7__cxx1112basic_stringIcSt11char_traitsIcESaIcEEESt6vectorIS4_SaIS4_EE
bibledit:_Z24send_receive_bibles_donev
bibledit:_Z24sendreceive_changes_textB5cxx11v
bibledit:_Z24sendreceive_notes_uploadv
bibledit:_Z24styles_sheets_create_allv
bibledit:_Z24sword_logic_trim_modulesv
bibledit:_Z24versification_logic_dataNSt7__cxx1112basic_stringIcSt11char_traitsIcESaIcEEE
bibledit:_Z24versification_system_aclR17Webserver_Request
bibledit:_Z24versification_system_urlB5cxx11v
bibledit:_Z25changes_personal_categoryv
bibledit:_Z25client_logic_get_usernameB5cxx11v
bibledit:_Z25collaboration_link_headerB5cxx11v
bibledit:_Z25convert_bible_to_resourceNSt7__cxx1112basic_stringIcSt11char_traitsIcESaIcEEE
bibledit:_Z25convert_resource_to_bibleNSt7__cxx1112basic_stringIcSt11char_traitsIcESaIcEEE
bibledit:_Z25demo_prepare_sample_biblev
bibledit:_Z25editone_logic_prefix_htmlRKNSt7__cxx1112basic_stringIcSt11char_traitsIcESaIcEEES6_RS4_S7_
bibledit:_Z25editone_logic_suffix_htmlRKNSt7__cxx1112basic_stringIcSt11char_traitsIcESaIcEEES6_S6_RS4_
bibledit:_Z25editor_export_verse_quillRKNSt7__cxx1112basic_stringIcSt11char_traitsIcESaIcEEES4_
bibledit:_Z25filter_archive_is_archiveNSt7__cxx1112basic_stringIcSt11char_traitsIcESaIcEEE
bibledit:_Z25filter_archive_uncompressNSt7__cxx1112basic_stringIcSt11char_traitsIcESaIcEEE
bibledit:_Z25filter_archive_untar_gzipNSt7__cxx1112basic_stringIcSt11char_traitsIcESaIcEEE
bibledit:_Z25filter_archive_zip_folderNSt7__cxx1112basic_stringIcSt11char_traitsIcESaIcEEE
bibledit:_Z25filter_integer_to_passagei
bibledit:_Z25filter_passage_to_integer7Passage
bibledit:_Z25filter_url_clean_filenameNSt7__cxx1112basic_stringIcSt11char_traitsIcESaIcEEE
bibledit:_Z25filter_url_email_is_validNSt7__cxx1112basic_stringIcSt11char_traitsIcESaIcEEE
bibledit:_Z25filter_url_filename_cleanNSt7__cxx1112basic_stringIcSt11char_traitsIcESaIcEEE
bibledit:_Z25get_first_bible_from_urlsRKSt3mapIiNSt7__cxx1112basic_stringIcSt11char_traitsIcESaIcEEESt4lessIiESaISt4pairIKiS5_EEE
bibledit:_Z25locale_logic_text_updatedB5cxx11v
bibledit:_Z25menu_logic_editor_enabledR17Webserver_Requestbb
bibledit:_Z25menu_logic_resources_textB5cxx11v
bibledit:_Z25menu_logic_tools_categoryR17Webserver_RequestPNSt7__cxx1112basic_stringIcSt11char_traitsIcESaIcEEE
bibledit:_Z25menu_logic_translate_menuB5cxx11v
bibledit:_Z25menu_logic_translate_textB5cxx11v
bibledit:_Z25resource_biblegateway_aclR17Webserver_Request
bibledit:_Z25resource_biblegateway_urlB5cxx11v
bibledit:_Z25resource_comparative1editB5cxx11R17Webserver_Request
bibledit:_Z25resource_comparative9editB5cxx11R17Webserver_Request
bibledit:_Z25resource_external_mappingNSt7__cxx1112basic_stringIcSt11char_traitsIcESaIcEEE
bibledit:_Z25resource_logic_is_dividerNSt7__cxx1112basic_stringIcSt11char_traitsIcESaIcEEE
bibledit:_Z25resource_logic_is_lexiconNSt7__cxx1112basic_stringIcSt11char_traitsIcESaIcEEE
bibledit:_Z25search_logic_chapter_fileNSt7__cxx1112basic_stringIcSt11char_traitsIcESaIcEEEii
bibledit:_Z25search_logic_delete_bibleNSt7__cxx1112basic_stringIcSt11char_traitsIcESaIcEEE
bibledit:_Z25search_logic_index_folderB5cxx11v
bibledit:_Z25send_receive_changes_donev
bibledit:_Z25sendreceive_queue_startupv
bibledit:_Z25sendreceive_settings_donev
bibledit:_Z25sendreceive_settings_textB5cxx11v
bibledit:_Z25session_admin_credentialsB5cxx11v
bibledit:_Z25sword_logic_get_availableB5cxx11v
bibledit:_Z25sword_logic_get_bulk_textRKNSt7__cxx1112basic_stringIcSt11char_traitsIcESaIcEEEiiRKSt6vectorIiSaIiEE
bibledit:_Z25sword_logic_get_installedB5cxx11v
bibledit:_Z25trash_change_notificationR17Webserver_Requesti
bibledit:_Z25user_logic_delete_accountNSt7__cxx1112basic_stringIcSt11char_traitsIcESaIcEEES4_S4_RS4_
bibledit:_Z25versification_logic_namesB5cxx11v
bibledit:_Z25workspace_cache_for_cloudR17Webserver_Requestbbb
bibledit:_Z25workspace_create_defaultsR17Webserver_Request
bibledit:_Z25workspace_get_active_nameB5cxx11R17Webserver_Request
bibledit:_Z26client_index_enable_clientR17Webserver_RequestRKNSt7__cxx1112basic_stringIcSt11char_traitsIcESaIcEEES8_i
bibledit:_Z26client_logic_enable_clientb
bibledit:_Z26client_logic_link_to_cloudNSt7__cxx1112basic_stringIcSt11char_traitsIcESaIcEEES4_
bibledit:_Z26collaboration_settings_aclR17Webserver_Request
bibledit:_Z26collaboration_settings_urlB5cxx11v
bibledit:_Z26editone_logic_html_to_usfmRKNSt7__cxx1112basic_stringIcSt11char_traitsIcESaIcEEES4_
bibledit:_Z26filter_css_grey_backgroundB5cxx11v
bibledit:_Z26filter_url_create_path_webRKSt6vectorINSt7__cxx1112basic_stringIcSt11char_traitsIcESaIcEEESaIS5_EE
bibledit:_Z26images_logic_import_imagesNSt7__cxx1112basic_stringIcSt11char_traitsIcESaIcEEE
bibledit:_Z26journal_logic_filter_entryRKNSt7__cxx1112basic_stringIcSt11char_traitsIcESaIcEEE
bibledit:_Z26locale_logic_localizationsB5cxx11v
bibledit:_Z26locale_logic_text_reformatB5cxx11v
bibledit:_Z26locale_logic_text_retryingB5cxx11v
bibledit:_Z26locale_logic_text_updatingB5cxx11v
bibledit:_Z26menu_logic_main_categoriesR17Webserver_RequestRNSt7__cxx1112basic_stringIcSt11char_traitsIcESaIcEEE
bibledit:_Z26menu_logic_public_or_guestR17Webserver_Request
bibledit:_Z26menu_logic_search_categoryR17Webserver_RequestPNSt7__cxx1112basic_stringIcSt11char_traitsIcESaIcEEE
bibledit:_Z26menu_logic_verse_separatorNSt7__cxx1112basic_stringIcSt11char_traitsIcESaIcEEE
bibledit:_Z26pugixml_utils_error_loggerPvRKNSt7__cxx1112basic_stringIcSt11char_traitsIcESaIcEEE
bibledit:_Z26resource_logic_get_dividerNSt7__cxx1112basic_stringIcSt11char_traitsIcESaIcEEE
bibledit:_Z26resource_logic_is_externalNSt7__cxx1112basic_stringIcSt11char_traitsIcESaIcEEE
bibledit:_Z26resource_logic_red_dividerB5cxx11v
bibledit:_Z26search_logic_book_fragmentNSt7__cxx1112basic_stringIcSt11char_traitsIcESaIcEEEi
bibledit:_Z26search_logic_index_chapterNSt7__cxx1112basic_stringIcSt11char_traitsIcESaIcEEEii
bibledit:_Z26sendreceive_notes_downloadii
bibledit:_Z26sendreceive_queue_paratextN5tasks5enums13paratext_syncE
bibledit:_Z26sendreceive_resources_donev
bibledit:_Z26sword_logic_access_trackerRKNSt7__cxx1112basic_stringIcSt11char_traitsIcESaIcEEE
bibledit:_Z26sword_logic_install_moduleRKNSt7__cxx1112basic_stringIcSt11char_traitsIcESaIcEEES6_
bibledit:_Z26system_googletranslate_aclR17Webserver_Request
bibledit:_Z26system_googletranslate_urlB5cxx11v
bibledit:_Z26workspace_get_default_nameB5cxx11v
bibledit:_Z26workspace_get_default_urlsB5cxx11i
bibledit:_Z26workspace_get_entire_widthB5cxx11R17Webserver_Request
bibledit:_Z26workspace_set_entire_widthR17Webserver_RequestNSt7__cxx1112basic_stringIcSt11char_traitsIcESaIcEEE
bibledit:_Z27changes_process_identifiersR17Webserver_RequestRKNSt7__cxx1112basic_stringIcSt11char_traitsIcESaIcEEERKSt6vectorIS6_SaIS6_EES8_iiRKSt3mapIS6_SB_St4lessIS6_ESaISt4pairIS7_SB_EEEiiRS6_RiRfSO_
bibledit:_Z27checks_settingspatterns_aclR17Webserver_Request
bibledit:_Z27checks_settingspatterns_urlB5cxx11v
bibledit:_Z27client_logic_client_enabledv
bibledit:_Z27config_globals_external_urlB5cxx11
bibledit:_Z27editone_logic_editable_htmlRKNSt7__cxx1112basic_stringIcSt11char_traitsIcESaIcEEES6_RS4_
bibledit:_Z27filter_diff_word_similarityNSt7__cxx1112basic_stringIcSt11char_traitsIcESaIcEEES4_
bibledit:_Z27filter_url_build_http_queryNSt7__cxx1112basic_stringIcSt11char_traitsIcESaIcEEESt6vectorISt4pairIS4_S4_ESaIS7_EE
bibledit:_Z27filter_url_create_root_pathRKSt6vectorINSt7__cxx1112basic_stringIcSt11char_traitsIcESaIcEEESaIS5_EE
bibledit:_Z27filter_url_filename_uncleanNSt7__cxx1112basic_stringIcSt11char_traitsIcESaIcEEE
bibledit:_Z27filter_url_port_can_connectNSt7__cxx1112basic_stringIcSt11char_traitsIcESaIcEEEi
bibledit:_Z27filter_url_ssl_tls_finalizev
bibledit:_Z27locale_logic_space_get_nameNSt7__cxx1112basic_stringIcSt11char_traitsIcESaIcEEEb
bibledit:_Z27locale_logic_text_will_saveB5cxx11v
bibledit:_Z27menu_logic_basic_categoriesB5cxx11R17Webserver_Request
bibledit:_Z27menu_logic_editor_menu_textB5cxx11bb
bibledit:_Z27resource_bible2resource_aclR17Webserver_Request
bibledit:_Z27resource_bible2resource_urlB5cxx11v
bibledit:_Z27resource_logic_blue_dividerB5cxx11v
bibledit:_Z27resource_logic_create_cachev
bibledit:_Z27resource_logic_rich_dividerB5cxx11v
bibledit:_Z27search_logic_bible_fragmentNSt7__cxx1112basic_stringIcSt11char_traitsIcESaIcEEE
bibledit:_Z27search_logic_delete_chapterNSt7__cxx1112basic_stringIcSt11char_traitsIcESaIcEEEii
bibledit:_Z27sendreceive_paratext_queuedv
bibledit:_Z27setup_initialization_noticev
bibledit:_Z27sync_bibles_receive_chapterR17Webserver_RequestRNSt7__cxx1112basic_stringIcSt11char_traitsIcESaIcEEEii
bibledit:_Z27workspace_get_default_namesB5cxx11v
bibledit:_Z28checks_settingssentences_aclR17Webserver_Request
bibledit:_Z28checks_settingssentences_urlB5cxx11v
bibledit:_Z28config_globals_document_rootB5cxx11
bibledit:_Z28config_globals_pages_to_openB5cxx11
bibledit:_Z28config_globals_setup_messageB5cxx11
bibledit:_Z28demo_logic_default_resourcesB5cxx11v
bibledit:_Z28filter_archive_microtar_packNSt7__cxx1112basic_stringIcSt11char_traitsIcESaIcEEES4_St6vectorIS4_SaIS4_EE
bibledit:_Z28filter_archive_tar_gzip_fileNSt7__cxx1112basic_stringIcSt11char_traitsIcESaIcEEE
bibledit:_Z28filter_merge_detect_conflictNSt7__cxx1112basic_stringIcSt11char_traitsIcESaIcEEES4_S4_S4_RSt6vectorI14Merge_ConflictSaIS6_EE
bibledit:_Z28filter_merge_graphemes2linesNSt7__cxx1112basic_stringIcSt11char_traitsIcESaIcEEE
bibledit:_Z28filter_merge_lines2graphemesNSt7__cxx1112basic_stringIcSt11char_traitsIcESaIcEEE
bibledit:_Z28filter_passage_clean_passageNSt7__cxx1112basic_stringIcSt11char_traitsIcESaIcEEE
bibledit:_Z28filter_url_file_get_contentsRKNSt7__cxx1112basic_stringIcSt11char_traitsIcESaIcEEE
bibledit:_Z28filter_url_file_put_contentsRKNSt7__cxx1112basic_stringIcSt11char_traitsIcESaIcEEES6_
bibledit:_Z28filter_url_http_request_mbedNSt7__cxx1112basic_stringIcSt11char_traitsIcESaIcEEERS4_RKSt3mapIS4_S4_St4lessIS4_ESaISt4pairIKS4_S4_EEERSA_b
bibledit:_Z28filter_url_recursive_scandirRKNSt7__cxx1112basic_stringIcSt11char_traitsIcESaIcEEERSt6vectorIS4_SaIS4_EE
bibledit:_Z28lexicon_logic_resource_namesB5cxx11v
bibledit:_Z28menu_logic_bible_manage_textB5cxx11v
bibledit:_Z28menu_logic_images_index_textB5cxx11v
bibledit:_Z28menu_logic_manage_users_textB5cxx11v
bibledit:_Z28menu_logic_settings_categoryR17Webserver_RequestPNSt7__cxx1112basic_stringIcSt11char_traitsIcESaIcEEE
bibledit:_Z28related_logic_search_relatedRKNSt7__cxx1112basic_stringIcSt11char_traitsIcESaIcEEEiS6_RKN4pugi8xml_nodeERSt6vectorIiSaIiEE
bibledit:_Z28resource_external_get_biblesB5cxx11v
bibledit:_Z28resource_logic_green_dividerB5cxx11v
bibledit:_Z28resource_logic_is_studylightNSt7__cxx1112basic_stringIcSt11char_traitsIcESaIcEEE
bibledit:_Z28resource_logic_is_translatedRKNSt7__cxx1112basic_stringIcSt11char_traitsIcESaIcEEE
bibledit:_Z28resource_logic_selector_pageB5cxx11R17Webserver_Request
bibledit:_Z28resource_translated1edit_aclR17Webserver_Request
bibledit:_Z28resource_translated1edit_urlB5cxx11v
bibledit:_Z28resource_translated9edit_aclR17Webserver_Request
bibledit:_Z28resource_translated9edit_urlB5cxx11v
bibledit:_Z28search_logic_get_verse_countNSt7__cxx1112basic_stringIcSt11char_traitsIcESaIcEEE
bibledit:_Z28search_logic_index_separatorB5cxx11v
bibledit:_Z28search_logic_verse_separatorB5cxx11v
bibledit:_Z28session_login_display_headerB5cxx11R17Webserver_Request
bibledit:_Z28sprint_create_burndown_chartNSt7__cxx1112basic_stringIcSt11char_traitsIcESaIcEEEii
bibledit:_Z28styles_sheets_create_all_runv
bibledit:_Z28sword_logic_module_list_pathB5cxx11v
bibledit:_Z28sword_logic_uninstall_moduleRKNSt7__cxx1112basic_stringIcSt11char_traitsIcESaIcEEE
bibledit:_Z28system_logic_notes_file_nameB5cxx11v
bibledit:_Z28workspace_get_default_widthsB5cxx11i
bibledit:_Z29browser_request_security_okayR17Webserver_Request
bibledit:_Z29client_index_remove_all_usersR17Webserver_Request
bibledit:_Z29client_logic_connection_setupNSt7__cxx1112basic_stringIcSt11char_traitsIcESaIcEEES4_
bibledit:_Z29database_privileges_directoryRKNSt7__cxx1112basic_stringIcSt11char_traitsIcESaIcEEE
bibledit:_Z29demo_create_sample_workspacesR17Webserver_Request
bibledit:_Z29filter_merge_add_book_chapterRSt6vectorI14Merge_ConflictSaIS0_EEii
bibledit:_Z29filter_passage_display_inlineB5cxx11St6vectorI7PassageSaIS0_EE
bibledit:_Z29filter_url_ssl_tls_initializev
bibledit:_Z29filter_webview_log_user_agentNSt7__cxx1112basic_stringIcSt11char_traitsIcESaIcEEE
bibledit:_Z29menu_logic_can_do_tabbed_modev
bibledit:_Z29menu_logic_mapping_index_textB5cxx11v
bibledit:_Z29menu_logic_styles_indexm_textB5cxx11v
bibledit:_Z29menu_logic_styles_indext_textB5cxx11v
bibledit:_Z29menu_logic_translate_categoryR17Webserver_RequestPNSt7__cxx1112basic_stringIcSt11char_traitsIcESaIcEEE
bibledit:_Z29menu_logic_workspace_categoryR17Webserver_RequestPNSt7__cxx1112basic_stringIcSt11char_traitsIcESaIcEEE
bibledit:_Z29resource_comparative1edit_aclR17Webserver_Request
bibledit:_Z29resource_comparative1edit_urlB5cxx11v
bibledit:_Z29resource_comparative9edit_aclR17Webserver_Request
bibledit:_Z29resource_comparative9edit_urlB5cxx11v
bibledit:_Z29resource_logic_is_comparativeRKNSt7__cxx1112basic_stringIcSt11char_traitsIcESaIcEEE
bibledit:_Z29resource_logic_orange_dividerB5cxx11v
bibledit:_Z29resource_logic_violet_dividerB5cxx11v
bibledit:_Z29resource_logic_yellow_dividerB5cxx11v
bibledit:_Z29sword_logic_get_remote_moduleNSt7__cxx1112basic_stringIcSt11char_traitsIcESaIcEEE
bibledit:_Z29sword_logic_get_resource_nameRKNSt7__cxx1112basic_stringIcSt11char_traitsIcESaIcEEES6_
bibledit:_Z29system_logic_bibles_file_nameB5cxx11v
bibledit:_Z29workspace_get_default_heightsB5cxx11i
bibledit:_Z30developer_logic_import_changesv
bibledit:_Z30filter_archive_microtar_unpackNSt7__cxx1112basic_stringIcSt11char_traitsIcESaIcEEES4_
bibledit:_Z30filter_archive_tar_gzip_folderNSt7__cxx1112basic_stringIcSt11char_traitsIcESaIcEEE
bibledit:_Z30filter_passage_explode_passageNSt7__cxx1112basic_stringIcSt11char_traitsIcESaIcEEE
bibledit:_Z30journal_logic_filtered_messageB5cxx11v
bibledit:_Z30lexicon_logic_render_bdb_entryNSt7__cxx1112basic_stringIcSt11char_traitsIcESaIcEEE
bibledit:_Z30locale_logic_read_msgid_msgstrNSt7__cxx1112basic_stringIcSt11char_traitsIcESaIcEEE
bibledit:_Z30menu_logic_tabbed_mode_add_tabNSt7__cxx1112basic_stringIcSt11char_traitsIcESaIcEEES4_
bibledit:_Z30resource_logic_is_biblegatewayNSt7__cxx1112basic_stringIcSt11char_traitsIcESaIcEEE
bibledit:_Z30resource_logic_selector_callerB5cxx11R17Webserver_Request
bibledit:_Z30resource_logic_study_light_getNSt7__cxx1112basic_stringIcSt11char_traitsIcESaIcEEEiii
bibledit:_Z30search_logic_search_bible_textNSt7__cxx1112basic_stringIcSt11char_traitsIcESaIcEEES4_
bibledit:_Z30search_logic_search_bible_usfmNSt7__cxx1112basic_stringIcSt11char_traitsIcESaIcEEES4_
bibledit:_Z30sword_logic_fetch_failure_textB5cxx11v
bibledit:_Z30system_logic_import_notes_fileNSt7__cxx1112basic_stringIcSt11char_traitsIcESaIcEEE
bibledit:_Z30user_logic_login_failure_clearv
bibledit:_Z31bibledit_last_ditch_forced_exitv
bibledit:_Z31client_logic_create_note_decodeRKNSt7__cxx1112basic_stringIcSt11char_traitsIcESaIcEEERS4_RiS8_S8_S7_S7_Rb
bibledit:_Z31client_logic_create_note_encodeRKNSt7__cxx1112basic_stringIcSt11char_traitsIcESaIcEEEiiiS6_S6_b
bibledit:_Z31client_logic_usfm_resources_getB5cxx11v
bibledit:_Z31database_privileges_client_pathRKNSt7__cxx1112basic_stringIcSt11char_traitsIcESaIcEEE
bibledit:_Z31filter_diff_produce_verse_levelNSt7__cxx1112basic_stringIcSt11char_traitsIcESaIcEEES4_
bibledit:_Z31filter_url_get_scheme_host_portNSt7__cxx1112basic_stringIcSt11char_traitsIcESaIcEEERS4_S5_Ri
bibledit:_Z31filter_url_get_write_permissionRKNSt7__cxx1112basic_stringIcSt11char_traitsIcESaIcEEE
bibledit:_Z31filter_url_html_file_name_bibleNSt7__cxx1112basic_stringIcSt11char_traitsIcESaIcEEEii
bibledit:_Z31filter_url_set_write_permissionRKNSt7__cxx1112basic_stringIcSt11char_traitsIcESaIcEEE
bibledit:_Z31menu_logic_checks_settings_textB5cxx11v
bibledit:_Z31menu_logic_editor_settings_textB5cxx11bi
bibledit:_Z31menu_logic_public_feedback_textB5cxx11v
bibledit:_Z31resource_external_get_net_bibleB5cxx11iii
bibledit:_Z31resource_external_versificationNSt7__cxx1112basic_stringIcSt11char_traitsIcESaIcEEE
bibledit:_Z31resource_logic_default_user_urlB5cxx11v
bibledit:_Z31resource_logic_web_or_cache_getNSt7__cxx1112basic_stringIcSt11char_traitsIcESaIcEEERS4_
bibledit:_Z31sendreceive_files_kick_watchdogv
bibledit:_Z31sendreceive_notes_kick_watchdogv
bibledit:_Z31sendreceive_resources_clear_allv
bibledit:_Z31setup_generate_locale_databasesb
bibledit:_Z31sword_logic_refresh_module_listv
bibledit:_Z31system_logic_import_bibles_fileNSt7__cxx1112basic_stringIcSt11char_traitsIcESaIcEEE
bibledit:_Z31system_logic_produce_notes_filei
bibledit:_Z32assets_external_logic_link_addonB5cxx11v
bibledit:_Z32changes_clear_notifications_userNSt7__cxx1112basic_stringIcSt11char_traitsIcESaIcEEES4_
bibledit:_Z32client_logic_usfm_resources_pathB5cxx11v
bibledit:_Z32filter_diff_character_similarityNSt7__cxx1112basic_stringIcSt11char_traitsIcESaIcEEES4_
bibledit:_Z32filter_passage_display_multilineB5cxx11St6vectorI7PassageSaIS0_EE
bibledit:_Z32filter_passage_get_ordered_booksRKNSt7__cxx1112basic_stringIcSt11char_traitsIcESaIcEEE
bibledit:_Z32filter_passage_interpret_book_v2NSt7__cxx1112basic_stringIcSt11char_traitsIcESaIcEEE
bibledit:_Z32filter_passage_interpret_passage7PassageNSt7__cxx1112basic_stringIcSt11char_traitsIcESaIcEEE
bibledit:_Z32filter_url_escape_shell_argumentNSt7__cxx1112basic_stringIcSt11char_traitsIcESaIcEEE
bibledit:_Z32lexicon_logic_define_user_strongNSt7__cxx1112basic_stringIcSt11char_traitsIcESaIcEEE
bibledit:_Z32menu_logic_tabbed_mode_save_jsonR17Webserver_Request
bibledit:_Z32resource_external_net_bible_namev
bibledit:_Z32resource_logic_bible_gateway_getNSt7__cxx1112basic_stringIcSt11char_traitsIcESaIcEEEiii
bibledit:_Z32sendreceive_bibles_kick_watchdogv
bibledit:_Z32sword_logic_get_installed_moduleNSt7__cxx1112basic_stringIcSt11char_traitsIcESaIcEEE
bibledit:_Z32system_logic_produce_bibles_filei
bibledit:_Z32system_logic_resources_file_nameNSt7__cxx1112basic_stringIcSt11char_traitsIcESaIcEEE
bibledit:_Z33database_privileges_client_createRKNSt7__cxx1112basic_stringIcSt11char_traitsIcESaIcEEEb
bibledit:_Z33database_privileges_client_removeRKNSt7__cxx1112basic_stringIcSt11char_traitsIcESaIcEEE
bibledit:_Z33developer_logic_log_network_writev
bibledit:_Z33filter_url_display_mbed_tls_errorRiPNSt7__cxx1112basic_stringIcSt11char_traitsIcESaIcEEEbRKS5_
bibledit:_Z33filter_url_file_modification_timeNSt7__cxx1112basic_stringIcSt11char_traitsIcESaIcEEE
bibledit:_Z33locale_logic_obfuscate_initializev
bibledit:_Z33resource_logic_bible_gateway_bookB5cxx11i
bibledit:_Z33resource_logic_parse_rich_dividerNSt7__cxx1112basic_stringIcSt11char_traitsIcESaIcEEERS4_S5_S5_S5_
bibledit:_Z33search_logic_get_bible_verse_textNSt7__cxx1112basic_stringIcSt11char_traitsIcESaIcEEEiii
bibledit:_Z33search_logic_get_bible_verse_usfmNSt7__cxx1112basic_stringIcSt11char_traitsIcESaIcEEEiii
bibledit:_Z33sendreceive_changes_kick_watchdogv
bibledit:_Z33sendreceive_files_up_to_date_textB5cxx11v
bibledit:_Z33sendreceive_git_repository_linkedNSt7__cxx1112basic_stringIcSt11char_traitsIcESaIcEEE
bibledit:_Z33sendreceive_notes_up_to_date_textB5cxx11v
bibledit:_Z33sendreceive_sendreceive_send_textB5cxx11v
bibledit:_Z33sword_logic_installmgr_initializev
bibledit:_Z33user_logic_login_failure_registerv
bibledit:_Z33user_logic_store_account_creationNSt7__cxx1112basic_stringIcSt11char_traitsIcESaIcEEE
bibledit:_Z33workspace_add_bible_editor_numberRSt3mapIiNSt7__cxx1112basic_stringIcSt11char_traitsIcESaIcEEESt4lessIiESaISt4pairIKiS5_EEE
bibledit:_Z34client_logic_no_cache_resource_addNSt7__cxx1112basic_stringIcSt11char_traitsIcESaIcEEE
bibledit:_Z34client_logic_usfm_resources_updatev
bibledit:_Z34filter_url_http_response_code_textB5cxx11i
bibledit:_Z34lexicon_logic_get_remove_attributeRNSt7__cxx1112basic_stringIcSt11char_traitsIcESaIcEEEPKc
bibledit:_Z34menu_logic_consultation_notes_textB5cxx11v
bibledit:_Z34menu_logic_settings_resources_menuB5cxx11v
bibledit:_Z34menu_logic_workspace_organize_textB5cxx11v
bibledit:_Z34resource_logic_translated_resourceB5cxx11v
bibledit:_Z34sendreceive_bibles_up_to_date_textB5cxx11v
bibledit:_Z34sendreceive_files_sendreceive_textB5cxx11v
bibledit:_Z34sendreceive_notes_sendreceive_textB5cxx11v
bibledit:_Z34sendreceive_settings_kick_watchdogv
bibledit:_Z34stbi__unpremultiply_on_load_threadi
bibledit:_Z34sword_logic_installing_module_textB5cxx11v
bibledit:_Z34system_logic_import_resources_fileNSt7__cxx1112basic_stringIcSt11char_traitsIcESaIcEEE
bibledit:_Z35client_logic_no_cache_resources_getB5cxx11v
bibledit:_Z35developer_logic_import_changes_saveNSt7__cxx1112basic_stringIcSt11char_traitsIcESaIcEEEiiiRS4_
bibledit:_Z35filter_archive_unzip_miniz_internalNSt7__cxx1112basic_stringIcSt11char_traitsIcESaIcEEE
bibledit:_Z35filter_archive_unzip_shell_internalNSt7__cxx1112basic_stringIcSt11char_traitsIcESaIcEEE
bibledit:_Z35filter_url_file_put_contents_appendRKNSt7__cxx1112basic_stringIcSt11char_traitsIcESaIcEEES6_
bibledit:_Z35filter_url_remove_username_passwordNSt7__cxx1112basic_stringIcSt11char_traitsIcESaIcEEE
bibledit:_Z35lexicon_logic_strong_number_cleanupNSt7__cxx1112basic_stringIcSt11char_traitsIcESaIcEEE
bibledit:_Z35locale_translate_obfuscation_searchB5cxx11
bibledit:_Z35menu_logic_versification_index_textB5cxx11v
bibledit:_Z35notes_logic_maintain_note_assigneesb
bibledit:_Z35resource_logic_cloud_get_comparisonR17Webserver_RequestNSt7__cxx1112basic_stringIcSt11char_traitsIcESaIcEEEiiib
bibledit:_Z35resource_logic_comparative_resourceB5cxx11v
bibledit:_Z35sendreceive_bibles_sendreceive_textB5cxx11v
bibledit:_Z35sendreceive_changes_up_to_date_textB5cxx11v
bibledit:_Z35sendreceive_resources_kick_watchdogv
bibledit:_Z35sword_logic_install_module_scheduleRKNSt7__cxx1112basic_stringIcSt11char_traitsIcESaIcEEES6_
bibledit:_Z35system_logic_produce_resources_filei
bibledit:_Z35user_logic_login_failure_check_okayv
bibledit:_Z36client_logic_no_cache_resources_pathB5cxx11v
bibledit:_Z36client_logic_no_cache_resources_saveSt6vectorINSt7__cxx1112basic_stringIcSt11char_traitsIcESaIcEEESaIS5_EE
bibledit:_Z36locale_translate_obfuscation_replaceB5cxx11
bibledit:_Z36resource_logic_assemble_rich_dividerNSt7__cxx1112basic_stringIcSt11char_traitsIcESaIcEEES4_S4_S4_
bibledit:_Z36resource_logic_cloud_get_translationR17Webserver_RequestRKNSt7__cxx1112basic_stringIcSt11char_traitsIcESaIcEEEiiib
bibledit:_Z36sendreceive_changes_sendreceive_textB5cxx11v
bibledit:_Z36sendreceive_settings_up_to_date_textB5cxx11v
bibledit:_Z36setup_wait_till_main_folders_presentv
bibledit:_Z36sword_logic_update_installed_modulesv
bibledit:_Z37client_logic_no_cache_resource_removeNSt7__cxx1112basic_stringIcSt11char_traitsIcESaIcEEE
bibledit:_Z37config_globals_negotiated_port_numberB5cxx11
bibledit:_Z37resource_logic_easy_english_bible_getB5cxx11iii
bibledit:_Z37search_logic_plain_replace_verse_textNSt7__cxx1112basic_stringIcSt11char_traitsIcESaIcEEE
bibledit:_Z37sendreceive_settings_sendreceive_textB5cxx11v
bibledit:_Z38filter_passage_handle_sequences_rangesRKNSt7__cxx1112basic_stringIcSt11char_traitsIcESaIcEEE
bibledit:_Z38journal_logic_see_journal_for_progressB5cxx11v
bibledit:_Z38lexicon_logic_hebrew_morphology_renderNSt7__cxx1112basic_stringIcSt11char_traitsIcESaIcEEE
bibledit:_Z38lexicon_logic_render_etcbc4_morphologyNSt7__cxx1112basic_stringIcSt11char_traitsIcESaIcEEE
bibledit:_Z38menu_logic_settings_resources_categoryB5cxx11R17Webserver_Request
bibledit:_Z38resource_external_get_statenbijbel_gbsB5cxx11iii
bibledit:_Z38resource_logic_easy_english_bible_nameB5cxx11v
bibledit:_Z38resource_logic_get_contents_for_clientNSt7__cxx1112basic_stringIcSt11char_traitsIcESaIcEEEiii
bibledit:_Z38setup_generate_verse_mapping_databasesv
bibledit:_Z38setup_generate_versification_databasesv
bibledit:_Z39config_globals_prioritized_ip_addressesB5cxx11
bibledit:_Z39lexicon_logic_render_strongs_definitionNSt7__cxx1112basic_stringIcSt11char_traitsIcESaIcEEE
bibledit:_Z39locale_logic_obfuscate_compare_internalRKNSt7__cxx1112basic_stringIcSt11char_traitsIcESaIcEEES6_
bibledit:_Z39resource_external_convert_book_biblehubB5cxx11i
bibledit:_Z39resource_external_convert_book_netbibleB5cxx11i
bibledit:_Z39resource_external_get_blue_letter_bibleB5cxx11iii
bibledit:_Z39resource_external_get_elberfelder_bibelB5cxx11iii
bibledit:_Z39resource_logic_easy_english_bible_pagesB5cxx11ii
bibledit:_Z39sendreceive_sendreceive_send_ready_textB5cxx11v
bibledit:_Z39user_logic_optional_ldap_authenticationR17Webserver_RequestNSt7__cxx1112basic_stringIcSt11char_traitsIcESaIcEEES6_
bibledit:_Z3md5NSt7__cxx1112basic_stringIcSt11char_traitsIcESaIcEEE
bibledit:_Z40config_globals_resource_window_positionsB5cxx11
bibledit:_Z40filter_archive_zip_folder_miniz_internalNSt7__cxx1112basic_stringIcSt11char_traitsIcESaIcEEE
bibledit:_Z40filter_archive_zip_folder_shell_internalNSt7__cxx1112basic_stringIcSt11char_traitsIcESaIcEEE
bibledit:_Z40resource_external_elberfelder_bibel_namev
bibledit:_Z40resource_external_get_biblehub_scrivenerB5cxx11iii
bibledit:_Z40resource_logic_parse_translated_resourceRKNSt7__cxx1112basic_stringIcSt11char_traitsIcESaIcEEEPS4_S7_S7_S7_Pb
bibledit:_Z40sendreceive_sendreceive_sendreceive_textB5cxx11v
bibledit:_Z40sword_logic_run_scheduled_module_installRKNSt7__cxx1112basic_stringIcSt11char_traitsIcESaIcEEES6_
bibledit:_Z41filter_passage_link_for_opening_editor_atRN4pugi8xml_nodeEiiNSt7__cxx1112basic_stringIcSt11char_traitsIcESaIcEEE
bibledit:_Z41filter_passage_link_for_opening_editor_atiiNSt7__cxx1112basic_stringIcSt11char_traitsIcESaIcEEE
bibledit:_Z41resource_external_convert_book_studylightB5cxx11i
bibledit:_Z41resource_logic_parse_comparative_resourceRKNSt7__cxx1112basic_stringIcSt11char_traitsIcESaIcEEEPS4_S7_S7_S7_S7_PbS8_S8_
bibledit:_Z42lexicon_logic_render_morphgnt_parsing_codeNSt7__cxx1112basic_stringIcSt11char_traitsIcESaIcEEE
bibledit:_Z42resource_external_convert_book_bibleserverB5cxx11i
bibledit:_Z42resource_external_get_biblehub_interlinearB5cxx11iii
bibledit:_Z42resource_external_get_biblehub_westminsterB5cxx11iii
bibledit:_Z42resource_logic_study_light_module_list_getB5cxx11v
bibledit:_Z42sword_logic_installmgr_list_remote_modulesRKNSt7__cxx1112basic_stringIcSt11char_traitsIcESaIcEEERSt6vectorIS4_SaIS4_EE
bibledit:_Z42sword_logic_installmgr_list_remote_sourcesRKSt6vectorINSt7__cxx1112basic_stringIcSt11char_traitsIcESaIcEEESaIS5_EE
bibledit:_Z43lexicon_logic_hebrew_morphology_render_stembbRNSt7__cxx1112basic_stringIcSt11char_traitsIcESaIcEEE
bibledit:_Z43lexicon_logic_render_strongs_part_of_speechNSt7__cxx1112basic_stringIcSt11char_traitsIcESaIcEEE
bibledit:_Z43locale_logic_text_no_privileges_modify_bookB5cxx11v
bibledit:_Z43resource_external_biblehub_interlinear_namev
bibledit:_Z43resource_external_cloud_fetch_cache_extractRKNSt7__cxx1112basic_stringIcSt11char_traitsIcESaIcEEEiii
bibledit:_Z43resource_external_get_statenbijbel_plus_gbsB5cxx11iii
bibledit:_Z43resource_logic_assemble_translated_resourceNSt7__cxx1112basic_stringIcSt11char_traitsIcESaIcEEES4_S4_S4_b
bibledit:_Z43resource_logic_study_light_module_list_pathB5cxx11v
bibledit:_Z44lexicon_logic_hebrew_morphology_render_stateRNSt7__cxx1112basic_stringIcSt11char_traitsIcESaIcEEE
bibledit:_Z44lexicon_logic_render_morphgnt_part_of_speechNSt7__cxx1112basic_stringIcSt11char_traitsIcESaIcEEE
bibledit:_Z44resource_external_get_king_james_version_gbsB5cxx11iii
bibledit:_Z44resource_logic_assemble_comparative_resourceNSt7__cxx1112basic_stringIcSt11char_traitsIcESaIcEEES4_S4_S4_S4_bbb
bibledit:_Z44resource_logic_bible_gateway_module_list_getB5cxx11v
bibledit:_Z44resource_logic_client_fetch_cache_from_cloudNSt7__cxx1112basic_stringIcSt11char_traitsIcESaIcEEEiii
bibledit:_Z44sendreceive_logic_prioritized_task_is_activev
bibledit:_Z44sword_logic_installmgr_refresh_remote_sourceRKNSt7__cxx1112basic_stringIcSt11char_traitsIcESaIcEEE
bibledit:_Z45lexicon_logic_hebrew_morphology_render_genderRNSt7__cxx1112basic_stringIcSt11char_traitsIcESaIcEEE
bibledit:_Z45lexicon_logic_hebrew_morphology_render_numberRNSt7__cxx1112basic_stringIcSt11char_traitsIcESaIcEEE
bibledit:_Z45lexicon_logic_hebrew_morphology_render_personRNSt7__cxx1112basic_stringIcSt11char_traitsIcESaIcEEE
bibledit:_Z45lexicon_logic_render_abbott_smiths_definitionNSt7__cxx1112basic_stringIcSt11char_traitsIcESaIcEEES4_
bibledit:_Z45lexicon_logic_render_part_of_speech_pop_frontRSt6vectorINSt7__cxx1112basic_stringIcSt11char_traitsIcESaIcEEESaIS5_EE
bibledit:_Z45resource_logic_bible_gateway_module_list_pathB5cxx11v
bibledit:_Z45resource_logic_translated_resources_list_pathB5cxx11v
bibledit:_Z45search_logic_search_bible_text_case_sensitiveNSt7__cxx1112basic_stringIcSt11char_traitsIcESaIcEEES4_
bibledit:_Z45search_logic_search_bible_usfm_case_sensitiveNSt7__cxx1112basic_stringIcSt11char_traitsIcESaIcEEES4_
bibledit:_Z46resource_external_convert_book_blueletterbibleB5cxx11i
bibledit:_Z46resource_logic_comparative_resources_list_pathB5cxx11v
bibledit:_Z46resource_logic_study_light_module_list_refreshB5cxx11v
bibledit:_Z46sendreceive_sendreceive_sendreceive_ready_textB5cxx11v
bibledit:_Z47lexicon_logic_convert_morphhb_parsing_to_strongNSt7__cxx1112basic_stringIcSt11char_traitsIcESaIcEEERSt6vectorIS4_SaIS4_EES8_
bibledit:_Z47resource_external_convert_book_gbs_statenbijbelB5cxx11i
bibledit:_Z48filter_url_update_directory_separator_if_windowsNSt7__cxx1112basic_stringIcSt11char_traitsIcESaIcEEE
bibledit:_Z48lexicon_logic_hebrew_morphology_render_type_nounRNSt7__cxx1112basic_stringIcSt11char_traitsIcESaIcEEE
bibledit:_Z48lexicon_logic_render_strongs_part_of_speech_stemNSt7__cxx1112basic_stringIcSt11char_traitsIcESaIcEEE
bibledit:_Z48resource_logic_bible_gateway_module_list_refreshB5cxx11v
bibledit:_Z49lexicon_logic_render_strongs_part_of_speech_stateNSt7__cxx1112basic_stringIcSt11char_traitsIcESaIcEEE
bibledit:_Z49resource_external_get_king_james_version_plus_gbsB5cxx11iii
bibledit:_Z49resource_external_get_original_language_resourcesB5cxx11v
bibledit:_Z4portB5cxx11
bibledit:_Z50lexicon_logic_hebrew_morphology_render_type_suffixRNSt7__cxx1112basic_stringIcSt11char_traitsIcESaIcEEE
bibledit:_Z50lexicon_logic_render_strongs_part_of_speech_genderNSt7__cxx1112basic_stringIcSt11char_traitsIcESaIcEEE
bibledit:_Z50lexicon_logic_render_strongs_part_of_speech_numberNSt7__cxx1112basic_stringIcSt11char_traitsIcESaIcEEE
bibledit:_Z50lexicon_logic_render_strongs_part_of_speech_personNSt7__cxx1112basic_stringIcSt11char_traitsIcESaIcEEE
bibledit:_Z51lexicon_logic_hebrew_morphology_render_type_pronounRNSt7__cxx1112basic_stringIcSt11char_traitsIcESaIcEEE
bibledit:_Z51resource_external_convert_book_gbs_king_james_bibleB5cxx11i
bibledit:_Z52lexicon_logic_hebrew_morphology_render_type_particleRNSt7__cxx1112basic_stringIcSt11char_traitsIcESaIcEEE
bibledit:_Z52sendreceive_resources_delay_during_prioritized_tasksv
bibledit:_Z53lexicon_logic_hebrew_morphology_render_type_adjectiveRNSt7__cxx1112basic_stringIcSt11char_traitsIcESaIcEEE
bibledit:_Z53resource_logic_easy_english_bible_handle_verse_markerRKNSt7__cxx1112basic_stringIcSt11char_traitsIcESaIcEEEiRb
bibledit:_Z54resource_logic_translated_resources_get_list_on_clientB5cxx11v
bibledit:_Z55lexicon_logic_hebrew_morphology_render_type_prepositionRNSt7__cxx1112basic_stringIcSt11char_traitsIcESaIcEEE
bibledit:_Z55resource_logic_comparative_resources_get_list_on_clientB5cxx11v
bibledit:_Z56resource_logic_easy_english_bible_handle_chapter_headingRKNSt7__cxx1112basic_stringIcSt11char_traitsIcESaIcEEEiRbS7_
bibledit:_Z56resource_logic_easy_english_bible_handle_passage_headingRKNSt7__cxx1112basic_stringIcSt11char_traitsIcESaIcEEEiiRbS7_
bibledit:_Z60lexicon_logic_hebrew_morphology_render_type_verb_conjugationRNSt7__cxx1112basic_stringIcSt11char_traitsIcESaIcEEE
bibledit:_Z60sword_logic_installmgr_synchronize_configuration_with_masterv
bibledit:_Z6noticeB5cxx11
bibledit:_Z7edit_idB5cxx11R17Webserver_Request
bibledit:_Z7tmp_tmpv
bibledit:_Z8demo_aclNSt7__cxx1112basic_stringIcSt11char_traitsIcESaIcEEES4_
bibledit:_Z8rss_feedB5cxx11R17Webserver_Request
bibledit:_Z9UriDecodeRKNSt7__cxx1112basic_stringIcSt11char_traitsIcESaIcEEE
bibledit:_Z9UriEncodeRKNSt7__cxx1112basic_stringIcSt11char_traitsIcESaIcEEE
bibledit:_Z9bible_cssB5cxx11R17Webserver_Request
bibledit:_Z9edit_editB5cxx11R17Webserver_Request
bibledit:_Z9edit_loadB5cxx11R17Webserver_Request
bibledit:_Z9edit_saveB5cxx11R17Webserver_Request
bibledit:_Z9editor_idB5cxx11R17Webserver_Request
bibledit:_Z9read_loadB5cxx11R17Webserver_Request
bibledit:_Z9sync_mailB5cxx11R17Webserver_Request
bibledit:_Z9translateNSt7__cxx1112basic_stringIcSt11char_traitsIcESaIcEEE
bibledit:_ZN10Dialog_Yes3runB5cxx11Ev
bibledit:_ZN10Dialog_Yes9add_queryENSt7__cxx1112basic_stringIcSt11char_traitsIcESaIcEEES5_
bibledit:_ZN10Dialog_YesC1ENSt7__cxx1112basic_stringIcSt11char_traitsIcESaIcEEES5_
bibledit:_ZN10Dialog_YesC2ENSt7__cxx1112basic_stringIcSt11char_traitsIcESaIcEEES5_
bibledit:_ZN10Dialog_YesD1Ev
bibledit:_ZN10Dialog_YesD2Ev
bibledit:_ZN10Filter_Css12theme_pickerB5cxx11Eii
bibledit:_ZN10Filter_Css14directionValueENSt7__cxx1112basic_stringIcSt11char_traitsIcESaIcEEE
bibledit:_ZN10Filter_Css16writingModeValueENSt7__cxx1112basic_stringIcSt11char_traitsIcESaIcEEE
bibledit:_ZN10Filter_Css20directionLeftToRightB5cxx11Ei
bibledit:_ZN10Filter_Css20directionRightToLeftB5cxx11Ei
bibledit:_ZN10Filter_Css20directionUnspecifiedB5cxx11Ei
bibledit:_ZN10Filter_Css20distinction_set_darkB5cxx11Ei
bibledit:_ZN10Filter_Css21distinction_set_basicEv
bibledit:_ZN10Filter_Css21distinction_set_lightB5cxx11Ei
bibledit:_ZN10Filter_Css21distinction_set_notesB5cxx11Ei
bibledit:_ZN10Filter_Css22writingModeUnspecifiedB5cxx11Ei
bibledit:_ZN10Filter_Css28distinction_set_redblue_darkB5cxx11Ei
bibledit:_ZN10Filter_Css29distinction_set_redblue_lightB5cxx11Ei
bibledit:_ZN10Filter_Css29writingModeBottomTopLeftRightB5cxx11Ei
bibledit:_ZN10Filter_Css29writingModeBottomTopRightLeftB5cxx11Ei
bibledit:_ZN10Filter_Css29writingModeTopBottomLeftRightB5cxx11Ei
bibledit:_ZN10Filter_Css29writingModeTopBottomRightLeftB5cxx11Ei
bibledit:_ZN10Filter_Css3ltrB5cxx11Ev
bibledit:_ZN10Filter_Css3rtlB5cxx11Ev
bibledit:_ZN10Filter_Css5bt_lrB5cxx11Ev
bibledit:_ZN10Filter_Css5bt_rlB5cxx11Ev
bibledit:_ZN10Filter_Css5tb_lrB5cxx11Ev
bibledit:_ZN10Filter_Css5tb_rlB5cxx11Ev
bibledit:_ZN10Filter_Css7get_cssENSt7__cxx1112basic_stringIcSt11char_traitsIcESaIcEEES5_iii
bibledit:_ZN10Filter_Css8getClassENSt7__cxx1112basic_stringIcSt11char_traitsIcESaIcEEE
bibledit:_ZN10Styles_Css17add_editor_stylesEv
bibledit:_ZN10Styles_Css18add_exports_stylesEv
bibledit:_ZN10Styles_Css3addEPKN8stylesv25StyleEbb
bibledit:_ZN10Styles_Css3cssENSt7__cxx1112basic_stringIcSt11char_traitsIcESaIcEEE
bibledit:_ZN10Styles_Css6editorEv
bibledit:_ZN10Styles_Css7exportsEv
bibledit:_ZN10Styles_Css8evaluateEPKN8stylesv25StyleE
bibledit:_ZN10Styles_Css8generateEv
bibledit:_ZN10Styles_Css9customizeERKNSt7__cxx1112basic_stringIcSt11char_traitsIcESaIcEEE
bibledit:_ZN10Styles_CssC1ERKNSt7__cxx1112basic_stringIcSt11char_traitsIcESaIcEEE
bibledit:_ZN10Styles_CssC2ERKNSt7__cxx1112basic_stringIcSt11char_traitsIcESaIcEEE
bibledit:_ZN10Sync_Logic12create_rangeEii
bibledit:_ZN10Sync_Logic13security_okayEv
bibledit:_ZN10Sync_Logic15files_get_filesENSt7__cxx1112basic_stringIcSt11char_traitsIcESaIcEEE
bibledit:_ZN10Sync_Logic16changes_checksumERKNSt7__cxx1112basic_stringIcSt11char_traitsIcESaIcEEE
bibledit:_ZN10Sync_Logic16credentials_okayEv
bibledit:_ZN10Sync_Logic17settings_checksumERKSt6vectorINSt7__cxx1112basic_stringIcSt11char_traitsIcESaIcEEESaIS6_EE
bibledit:_ZN10Sync_Logic21files_get_directoriesEiRKNSt7__cxx1112basic_stringIcSt11char_traitsIcESaIcEEE
bibledit:_ZN10Sync_Logic22usfm_resource_checksumERKNSt7__cxx1112basic_stringIcSt11char_traitsIcESaIcEEE
bibledit:_ZN10Sync_Logic23files_get_file_checksumENSt7__cxx1112basic_stringIcSt11char_traitsIcESaIcEEES5_
bibledit:_ZN10Sync_Logic23usfm_resources_checksumB5cxx11Ev
bibledit:_ZN10Sync_Logic24files_get_total_checksumEiRKNSt7__cxx1112basic_stringIcSt11char_traitsIcESaIcEEE
bibledit:_ZN10Sync_Logic27usfm_resource_book_checksumERKNSt7__cxx1112basic_stringIcSt11char_traitsIcESaIcEEEi
bibledit:_ZN10Sync_Logic28files_get_directory_checksumENSt7__cxx1112basic_stringIcSt11char_traitsIcESaIcEEE
bibledit:_ZN10Sync_Logic29prioritized_ip_address_activeEv
bibledit:_ZN10Sync_Logic29prioritized_ip_address_recordEv
bibledit:_ZN10Sync_Logic30usfm_resource_chapter_checksumERKNSt7__cxx1112basic_stringIcSt11char_traitsIcESaIcEEEii
bibledit:_ZN10Sync_Logic4postERSt3mapINSt7__cxx1112basic_stringIcSt11char_traitsIcESaIcEEES6_St4lessIS6_ESaISt4pairIKS6_S6_EEERSA_RS6_b
bibledit:_ZN10Sync_Logic8checksumB5cxx11ERKSt6vectorIiSaIiEE
bibledit:_ZN10Sync_LogicC1ER17Webserver_Request
bibledit:_ZN10Sync_LogicC2ER17Webserver_Request
bibledit:_ZN11Assets_View11enable_zoneERKNSt7__cxx1112basic_stringIcSt11char_traitsIcESaIcEEE
bibledit:_ZN11Assets_View12disable_zoneERKNSt7__cxx1112basic_stringIcSt11char_traitsIcESaIcEEE
bibledit:_ZN11Assets_View12set_variableERKNSt7__cxx1112basic_stringIcSt11char_traitsIcESaIcEEES7_
bibledit:_ZN11Assets_View13add_iterationERKNSt7__cxx1112basic_stringIcSt11char_traitsIcESaIcEEERKSt3mapIS5_S5_St4lessIS5_ESaISt4pairIS6_S5_EEE
bibledit:_ZN11Assets_View6renderERKNSt7__cxx1112basic_stringIcSt11char_traitsIcESaIcEEES7_
bibledit:_ZN11Assets_ViewC1Ev
bibledit:_ZN11Assets_ViewC2Ev
bibledit:_ZN11Checks_Usfm10add_resultENSt7__cxx1112basic_stringIcSt11char_traitsIcESaIcEEEi
bibledit:_ZN11Checks_Usfm10initializeEii
bibledit:_ZN11Checks_Usfm11get_resultsB5cxx11Ev
bibledit:_ZN11Checks_Usfm12empty_markupEv
bibledit:_ZN11Checks_Usfm12malformed_idEv
bibledit:_ZN11Checks_Usfm13forward_slashERKNSt7__cxx1112basic_stringIcSt11char_traitsIcESaIcEEE
bibledit:_ZN11Checks_Usfm15embedded_markerEv
bibledit:_ZN11Checks_Usfm16new_line_in_usfmERKNSt7__cxx1112basic_stringIcSt11char_traitsIcESaIcEEE
bibledit:_ZN11Checks_Usfm16widow_back_slashEv
bibledit:_ZN11Checks_Usfm18matching_endmarkerEv
bibledit:_ZN11Checks_Usfm20marker_in_stylesheetEv
bibledit:_ZN11Checks_Usfm22malformed_verse_numberEv
bibledit:_ZN11Checks_Usfm3tocENSt7__cxx1112basic_stringIcSt11char_traitsIcESaIcEEE
bibledit:_ZN11Checks_Usfm4noteEv
bibledit:_ZN11Checks_Usfm5checkERKNSt7__cxx1112basic_stringIcSt11char_traitsIcESaIcEEE
bibledit:_ZN11Checks_Usfm6figureEv
bibledit:_ZN11Checks_Usfm8finalizeEv
bibledit:_ZN11Checks_UsfmC1ERKNSt7__cxx1112basic_stringIcSt11char_traitsIcESaIcEEE
bibledit:_ZN11Checks_UsfmC2ERKNSt7__cxx1112basic_stringIcSt11char_traitsIcESaIcEEE
bibledit:_ZN11Esword_Text10flushCacheEv
bibledit:_ZN11Esword_Text10newChapterEi
bibledit:_ZN11Esword_Text12createModuleENSt7__cxx1112basic_stringIcSt11char_traitsIcESaIcEEE
bibledit:_ZN11Esword_Text7get_sqlB5cxx11Ev
bibledit:_ZN11Esword_Text7newBookEi
bibledit:_ZN11Esword_Text8add_textENSt7__cxx1112basic_stringIcSt11char_traitsIcESaIcEEE
bibledit:_ZN11Esword_Text8finalizeEv
bibledit:_ZN11Esword_Text8newVerseEi
bibledit:_ZN11Esword_TextC1ENSt7__cxx1112basic_stringIcSt11char_traitsIcESaIcEEE
bibledit:_ZN11Esword_TextC2ENSt7__cxx1112basic_stringIcSt11char_traitsIcESaIcEEE
bibledit:_ZN11Filter_Text10get_stylesEv
bibledit:_ZN11Filter_Text11add_to_infoENSt7__cxx1112basic_stringIcSt11char_traitsIcESaIcEEEb
bibledit:_ZN11Filter_Text11processNoteEv
bibledit:_ZN11Filter_Text11set_to_zeroERNSt7__cxx1112basic_stringIcSt11char_traitsIcESaIcEEE
bibledit:_ZN11Filter_Text12process_usfmEv
bibledit:_ZN11Filter_Text13add_usfm_codeENSt7__cxx1112basic_stringIcSt11char_traitsIcESaIcEEE
bibledit:_ZN11Filter_Text13getVersesTextB5cxx11Ev
bibledit:_ZN11Filter_Text13new_paragraphEPKN8stylesv25StyleEb
bibledit:_ZN11Filter_Text14add_to_falloutENSt7__cxx1112basic_stringIcSt11char_traitsIcESaIcEEEb
bibledit:_ZN11Filter_Text16add_to_word_listERKNSt7__cxx1112basic_stringIcSt11char_traitsIcESaIcEEE
bibledit:_ZN11Filter_Text16pre_process_usfmEv
bibledit:_ZN11Filter_Text17get_note_citationERKNSt7__cxx1112basic_stringIcSt11char_traitsIcESaIcEEE
bibledit:_ZN11Filter_Text20close_text_style_allEv
bibledit:_ZN11Filter_Text21get_usfm_next_chapterEv
bibledit:_ZN11Filter_Text21produce_info_documentENSt7__cxx1112basic_stringIcSt11char_traitsIcESaIcEEE
bibledit:_ZN11Filter_Text22create_paragraph_styleEPKN8stylesv25StyleEb
bibledit:_ZN11Filter_Text22produceFalloutDocumentENSt7__cxx1112basic_stringIcSt11char_traitsIcESaIcEEE
bibledit:_ZN11Filter_Text23store_verses_paragraphsEv
bibledit:_ZN11Filter_Text24get_current_passage_textB5cxx11Ev
bibledit:_ZN11Filter_Text24notes_plain_text_handlerEv
bibledit:_ZN11Filter_Text27ensure_note_paragraph_styleENSt7__cxx1112basic_stringIcSt11char_traitsIcESaIcEEEPKN8stylesv25StyleE
bibledit:_ZN11Filter_Text27put_chapter_number_in_frameENSt7__cxx1112basic_stringIcSt11char_traitsIcESaIcEEE
bibledit:_ZN11Filter_Text29handle_tilde_and_double_slashENSt7__cxx1112basic_stringIcSt11char_traitsIcESaIcEEE
bibledit:_ZN11Filter_Text31unprocessed_usfm_code_availableEv
bibledit:_ZN11Filter_Text33initializeHeadingsAndTextPerVerseEb
bibledit:_ZN11Filter_Text36apply_drop_caps_to_current_paragraphEi
bibledit:_ZN11Filter_Text3runERKNSt7__cxx1112basic_stringIcSt11char_traitsIcESaIcEEE
bibledit:_ZN11Filter_TextC1ENSt7__cxx1112basic_stringIcSt11char_traitsIcESaIcEEE
bibledit:_ZN11Filter_TextC2ENSt7__cxx1112basic_stringIcSt11char_traitsIcESaIcEEE
bibledit:_ZN11Filter_TextD1Ev
bibledit:_ZN11Filter_TextD2Ev
bibledit:_ZN11Html_Header16search_back_linkERKNSt7__cxx1112basic_stringIcSt11char_traitsIcESaIcEEES7_
bibledit:_ZN11Html_Header6createERKSt6vectorISt4pairINSt7__cxx1112basic_stringIcSt11char_traitsIcESaIcEEES7_ESaIS8_EE
bibledit:_ZN11Html_HeaderC1ER8HtmlText
bibledit:_ZN11Html_HeaderC2ER8HtmlText
bibledit:_ZN11Notes_Logic10addCommentEiRKNSt7__cxx1112basic_stringIcSt11char_traitsIcESaIcEEE
bibledit:_ZN11Notes_Logic10assignUserEiRKNSt7__cxx1112basic_stringIcSt11char_traitsIcESaIcEEE
bibledit:_ZN11Notes_Logic10createNoteENSt7__cxx1112basic_stringIcSt11char_traitsIcESaIcEEEiiiS5_S5_b
bibledit:_ZN11Notes_Logic10emailUsersEiRKNSt7__cxx1112basic_stringIcSt11char_traitsIcESaIcEEES5_RKSt6vectorIS5_SaIS5_EEb
bibledit:_ZN11Notes_Logic10setContentEiRKNSt7__cxx1112basic_stringIcSt11char_traitsIcESaIcEEE
bibledit:_ZN11Notes_Logic11notifyUsersEii
bibledit:_ZN11Notes_Logic11setPassagesEiRKSt6vectorI7PassageSaIS1_EE
bibledit:_ZN11Notes_Logic11set_summaryEiRKNSt7__cxx1112basic_stringIcSt11char_traitsIcESaIcEEE
bibledit:_ZN11Notes_Logic11unsubscribeEi
bibledit:_ZN11Notes_Logic12unassignUserEiRKNSt7__cxx1112basic_stringIcSt11char_traitsIcESaIcEEE
bibledit:_ZN11Notes_Logic14handleEmailNewENSt7__cxx1112basic_stringIcSt11char_traitsIcESaIcEEES5_S5_
bibledit:_ZN11Notes_Logic14handlerNewNoteEi
bibledit:_ZN11Notes_Logic14setRawSeverityEii
bibledit:_ZN11Notes_Logic15markForDeletionEi
bibledit:_ZN11Notes_Logic16generalBibleNameB5cxx11Ev
bibledit:_ZN11Notes_Logic17handlerAddCommentEi
bibledit:_ZN11Notes_Logic17handlerAssignNoteEiRKNSt7__cxx1112basic_stringIcSt11char_traitsIcESaIcEEE
bibledit:_ZN11Notes_Logic17handlerDeleteNoteEi
bibledit:_ZN11Notes_Logic17unmarkForDeletionEi
bibledit:_ZN11Notes_Logic18handleEmailCommentENSt7__cxx1112basic_stringIcSt11char_traitsIcESaIcEEES5_S5_
bibledit:_ZN11Notes_Logic26handlerMarkNoteForDeletionEi
bibledit:_ZN11Notes_Logic5eraseEi
bibledit:_ZN11Notes_Logic8setBibleEiRKNSt7__cxx1112basic_stringIcSt11char_traitsIcESaIcEEE
bibledit:_ZN11Notes_Logic9setStatusEiRKNSt7__cxx1112basic_stringIcSt11char_traitsIcESaIcEEE
bibledit:_ZN11Notes_Logic9subscribeEi
bibledit:_ZN11Notes_LogicC1ER17Webserver_Request
bibledit:_ZN11Notes_LogicC2ER17Webserver_Request
bibledit:_ZN11access_user9assigneesB5cxx11ER17Webserver_Request
bibledit:_ZN11assets_page5errorERKNSt7__cxx1112basic_stringIcSt11char_traitsIcESaIcEEE
bibledit:_ZN11assets_page6footerB5cxx11Ev
bibledit:_ZN11assets_page6headerERKNSt7__cxx1112basic_stringIcSt11char_traitsIcESaIcEEER17Webserver_Request
bibledit:_ZN11assets_page7messageERKNSt7__cxx1112basic_stringIcSt11char_traitsIcESaIcEEE
bibledit:_ZN11assets_page7successERKNSt7__cxx1112basic_stringIcSt11char_traitsIcESaIcEEE
bibledit:_ZN11bible_logic10log_changeERKNSt7__cxx1112basic_stringIcSt11char_traitsIcESaIcEEEiiS7_S5_S7_b
bibledit:_ZN11bible_logic11delete_bookERKNSt7__cxx1112basic_stringIcSt11char_traitsIcESaIcEEEi
bibledit:_ZN11bible_logic12delete_bibleERKNSt7__cxx1112basic_stringIcSt11char_traitsIcESaIcEEE
bibledit:_ZN11bible_logic13store_chapterERKNSt7__cxx1112basic_stringIcSt11char_traitsIcESaIcEEEiiS7_
bibledit:_ZN11bible_logic14delete_chapterERKNSt7__cxx1112basic_stringIcSt11char_traitsIcESaIcEEEii
bibledit:_ZN11bible_logic15delete_operatorEv
bibledit:_ZN11bible_logic15import_resourceENSt7__cxx1112basic_stringIcSt11char_traitsIcESaIcEEES5_
bibledit:_ZN11bible_logic15insert_operatorEv
bibledit:_ZN11bible_logic16unsafe_save_mailENSt7__cxx1112basic_stringIcSt11char_traitsIcESaIcEEERKS5_S7_S7_ii
bibledit:_ZN11bible_logic17recent_save_emailERKNSt7__cxx1112basic_stringIcSt11char_traitsIcESaIcEEEiiS7_S7_S7_
bibledit:_ZN11bible_logic18create_empty_bibleERKNSt7__cxx1112basic_stringIcSt11char_traitsIcESaIcEEE
bibledit:_ZN11bible_logic22html_to_editor_updatesERKNSt7__cxx1112basic_stringIcSt11char_traitsIcESaIcEEES7_RSt6vectorIiSaIiEESB_RS8_IS5_SaIS5_EESE_
bibledit:_ZN11bible_logic22kick_unsent_data_timerEv
bibledit:_ZN11bible_logic23condense_editor_updatesERKSt6vectorIiSaIiEES4_RKS0_IbSaIbEERKS0_INSt7__cxx1112basic_stringIcSt11char_traitsIcESaIcEEESaISE_EERS2_SJ_RSG_SK_
bibledit:_ZN11bible_logic23merge_irregularity_mailERKSt6vectorINSt7__cxx1112basic_stringIcSt11char_traitsIcESaIcEEESaIS6_EERKS0_I14Merge_ConflictSaISB_EE
bibledit:_ZN11bible_logic25client_receive_merge_mailERKNSt7__cxx1112basic_stringIcSt11char_traitsIcESaIcEEEiiS7_S7_S7_S7_
bibledit:_ZN11bible_logic25format_character_operatorEv
bibledit:_ZN11bible_logic25format_paragraph_operatorEv
bibledit:_ZN11bible_logic26kick_unreceived_data_timerEv
bibledit:_ZN11bible_logic27client_no_write_access_mailERKNSt7__cxx1112basic_stringIcSt11char_traitsIcESaIcEEEiiS7_S7_S7_
bibledit:_ZN11bible_logic30unsent_unreceived_data_warningB5cxx11Ev
bibledit:_ZN11bible_logic33client_mail_pending_bible_updatesERKNSt7__cxx1112basic_stringIcSt11char_traitsIcESaIcEEE
bibledit:_ZN11bible_logic33optional_merge_irregularity_emailERKNSt7__cxx1112basic_stringIcSt11char_traitsIcESaIcEEEiiS7_S7_S7_S7_
bibledit:_ZN11bible_logic9log_mergeERKNSt7__cxx1112basic_stringIcSt11char_traitsIcESaIcEEES7_iiS7_S7_S7_S7_
bibledit:_ZN12Database_Ipc11writeRecordEiNSt7__cxx1112basic_stringIcSt11char_traitsIcESaIcEEES5_S5_S5_
bibledit:_ZN12Database_Ipc12storeMessageENSt7__cxx1112basic_stringIcSt11char_traitsIcESaIcEEES5_S5_S5_
bibledit:_ZN12Database_Ipc13deleteMessageEi
bibledit:_ZN12Database_Ipc13getNotesAliveEv
bibledit:_ZN12Database_Ipc15retrieveMessageEiNSt7__cxx1112basic_stringIcSt11char_traitsIcESaIcEEES5_S5_
bibledit:_ZN12Database_Ipc4fileENSt7__cxx1112basic_stringIcSt11char_traitsIcESaIcEEE
bibledit:_ZN12Database_Ipc4trimEv
bibledit:_ZN12Database_Ipc6folderB5cxx11Ev
bibledit:_ZN12Database_Ipc7getNoteEv
bibledit:_ZN12Database_Ipc8getFocusB5cxx11Ev
bibledit:_ZN12Database_Ipc8readDataEv
bibledit:_ZN12Database_Ipc9getNextIdERKSt6vectorI17Database_Ipc_ItemSaIS1_EE
bibledit:_ZN12Database_IpcC1ER17Webserver_Request
bibledit:_ZN12Database_IpcC2ER17Webserver_Request
bibledit:_ZN12Database_Kjv12searchStrongENSt7__cxx1112basic_stringIcSt11char_traitsIcESaIcEEE
bibledit:_ZN12Database_Kjv5storeEiiiNSt7__cxx1112basic_stringIcSt11char_traitsIcESaIcEEES5_
bibledit:_ZN12Database_Kjv6createEv
bibledit:_ZN12Database_Kjv6get_idEPKcNSt7__cxx1112basic_stringIcSt11char_traitsIcESaIcEEE
bibledit:_ZN12Database_Kjv6rowidsEiii
bibledit:_ZN12Database_Kjv6strongB5cxx11Ei
bibledit:_ZN12Database_Kjv7englishB5cxx11Ei
bibledit:_ZN12Database_Kjv8filenameEv
bibledit:_ZN12Database_Kjv8getVerseEiii
bibledit:_ZN12Database_Kjv8get_itemB5cxx11EPKci
bibledit:_ZN12Database_Kjv8optimizeEv
bibledit:_ZN12Dialog_Books3runB5cxx11Ev
bibledit:_ZN12Dialog_Books9add_queryENSt7__cxx1112basic_stringIcSt11char_traitsIcESaIcEEES5_
bibledit:_ZN12Dialog_BooksC1ENSt7__cxx1112basic_stringIcSt11char_traitsIcESaIcEEES5_S5_S5_S5_St6vectorIiSaIiEES8_
bibledit:_ZN12Dialog_BooksC2ENSt7__cxx1112basic_stringIcSt11char_traitsIcESaIcEEES5_S5_S5_S5_St6vectorIiSaIiEES8_
bibledit:_ZN12Dialog_BooksD1Ev
bibledit:_ZN12Dialog_BooksD2Ev
bibledit:_ZN12Dialog_Color3runB5cxx11Ev
bibledit:_ZN12Dialog_Color9add_queryENSt7__cxx1112basic_stringIcSt11char_traitsIcESaIcEEES5_
bibledit:_ZN12Dialog_ColorC1ENSt7__cxx1112basic_stringIcSt11char_traitsIcESaIcEEES5_
bibledit:_ZN12Dialog_ColorC2ENSt7__cxx1112basic_stringIcSt11char_traitsIcESaIcEEES5_
bibledit:_ZN12Dialog_ColorD1Ev
bibledit:_ZN12Dialog_ColorD2Ev
bibledit:_ZN12Dialog_Entry3runB5cxx11Ev
bibledit:_ZN12Dialog_Entry9add_queryENSt7__cxx1112basic_stringIcSt11char_traitsIcESaIcEEES5_
bibledit:_ZN12Dialog_EntryC1ENSt7__cxx1112basic_stringIcSt11char_traitsIcESaIcEEES5_S5_S5_S5_
bibledit:_ZN12Dialog_EntryC2ENSt7__cxx1112basic_stringIcSt11char_traitsIcESaIcEEES5_S5_S5_S5_
bibledit:_ZN12Dialog_EntryD1Ev
bibledit:_ZN12Dialog_EntryD2Ev
bibledit:_ZN12SqliteReader8callbackEPviPPcS2_
bibledit:_ZN12SqliteReaderC1Ei
bibledit:_ZN12SqliteReaderC2Ei
bibledit:_ZN12SqliteReaderD1Ev
bibledit:_ZN12SqliteReaderD2Ev
bibledit:_ZN12access_bible10book_writeER17Webserver_RequestNSt7__cxx1112basic_stringIcSt11char_traitsIcESaIcEEERKS7_i
bibledit:_ZN12access_bible3anyER17Webserver_Request
bibledit:_ZN12access_bible4readER17Webserver_RequestRKNSt7__cxx1112basic_stringIcSt11char_traitsIcESaIcEEES7_
bibledit:_ZN12access_bible5clampER17Webserver_RequestNSt7__cxx1112basic_stringIcSt11char_traitsIcESaIcEEE
bibledit:_ZN12access_bible5writeER17Webserver_RequestRKNSt7__cxx1112basic_stringIcSt11char_traitsIcESaIcEEES7_
bibledit:_ZN12access_bible6biblesER17Webserver_RequestNSt7__cxx1112basic_stringIcSt11char_traitsIcESaIcEEE
bibledit:_ZN12access_logic10user_levelER17Webserver_RequestRNSt7__cxx1112basic_stringIcSt11char_traitsIcESaIcEEERi
bibledit:_ZN12access_logic15view_notes_roleEv
bibledit:_ZN12access_logic19create_client_filesEv
bibledit:_ZN12access_logic19view_resources_roleEv
bibledit:_ZN12access_logic20privilege_view_notesER17Webserver_RequestNSt7__cxx1112basic_stringIcSt11char_traitsIcESaIcEEE
bibledit:_ZN12access_logic20set_stylesheets_roleEv
bibledit:_ZN12access_logic22use_advanced_mode_roleEv
bibledit:_ZN12access_logic24privilege_view_resourcesER17Webserver_RequestNSt7__cxx1112basic_stringIcSt11char_traitsIcESaIcEEE
bibledit:_ZN12access_logic25create_comment_notes_roleEv
bibledit:_ZN12access_logic25privilege_set_stylesheetsER17Webserver_RequestNSt7__cxx1112basic_stringIcSt11char_traitsIcESaIcEEE
bibledit:_ZN12access_logic27default_privilege_usernamesB5cxx11Ev
bibledit:_ZN12access_logic27privilege_use_advanced_modeER17Webserver_RequestNSt7__cxx1112basic_stringIcSt11char_traitsIcESaIcEEE
bibledit:_ZN12access_logic30delete_consultation_notes_roleEv
bibledit:_ZN12access_logic30privilege_create_comment_notesER17Webserver_RequestNSt7__cxx1112basic_stringIcSt11char_traitsIcESaIcEEE
bibledit:_ZN12access_logic35privilege_delete_consultation_notesER17Webserver_RequestNSt7__cxx1112basic_stringIcSt11char_traitsIcESaIcEEE
bibledit:_ZN12checks_pairs3runERKNSt7__cxx1112basic_stringIcSt11char_traitsIcESaIcEEEiiRKSt3mapIiS5_St4lessIiESaISt4pairIKiS5_EEERKSt6vectorISB_IS5_S5_ESaISJ_EEb
bibledit:_ZN12checks_pairs5matchERKNSt7__cxx1112basic_stringIcSt11char_traitsIcESaIcEEERKSt6vectorISt4pairIS5_S5_ESaISA_EE
bibledit:_ZN12export_logic12schedule_allEv
bibledit:_ZN12export_logic12schedule_webERKNSt7__cxx1112basic_stringIcSt11char_traitsIcESaIcEEEb
bibledit:_ZN12export_logic13schedule_htmlERKNSt7__cxx1112basic_stringIcSt11char_traitsIcESaIcEEEb
bibledit:_ZN12export_logic13schedule_infoERKNSt7__cxx1112basic_stringIcSt11char_traitsIcESaIcEEEb
bibledit:_ZN12export_logic13schedule_usfmERKNSt7__cxx1112basic_stringIcSt11char_traitsIcESaIcEEEb
bibledit:_ZN12export_logic13web_directoryERKNSt7__cxx1112basic_stringIcSt11char_traitsIcESaIcEEE
bibledit:_ZN12export_logic14main_directoryB5cxx11Ev
bibledit:_ZN12export_logic14usfm_directoryERKNSt7__cxx1112basic_stringIcSt11char_traitsIcESaIcEEEi
bibledit:_ZN12export_logic15bible_directoryERKNSt7__cxx1112basic_stringIcSt11char_traitsIcESaIcEEE
bibledit:_ZN12export_logic16schedule_e_swordERKNSt7__cxx1112basic_stringIcSt11char_traitsIcESaIcEEEb
bibledit:_ZN12export_logic18base_book_filenameERKNSt7__cxx1112basic_stringIcSt11char_traitsIcESaIcEEEi
bibledit:_ZN12export_logic18schedule_web_indexERKNSt7__cxx1112basic_stringIcSt11char_traitsIcESaIcEEEb
bibledit:_ZN12export_logic21schedule_online_bibleERKNSt7__cxx1112basic_stringIcSt11char_traitsIcESaIcEEEb
bibledit:_ZN12export_logic22schedule_open_documentERKNSt7__cxx1112basic_stringIcSt11char_traitsIcESaIcEEEb
bibledit:_ZN12export_logic23web_back_link_directoryERKNSt7__cxx1112basic_stringIcSt11char_traitsIcESaIcEEE
bibledit:_ZN12export_logic28schedule_text_and_basic_usfmERKNSt7__cxx1112basic_stringIcSt11char_traitsIcESaIcEEEb
bibledit:_ZN13Assets_Header13set_navigatorEv
bibledit:_ZN13Assets_Header14display_topbarEv
bibledit:_ZN13Assets_Header14set_stylesheetEv
bibledit:_ZN13Assets_Header15add_bread_crumbERKNSt7__cxx1112basic_stringIcSt11char_traitsIcESaIcEEES7_
bibledit:_ZN13Assets_Header15set_fading_menuERKNSt7__cxx1112basic_stringIcSt11char_traitsIcESaIcEEE
bibledit:_ZN13Assets_Header21set_editor_stylesheetEv
bibledit:_ZN13Assets_Header3runB5cxx11Ev
bibledit:_ZN13Assets_Header7refreshEiRKNSt7__cxx1112basic_stringIcSt11char_traitsIcESaIcEEE
bibledit:_ZN13Assets_Header9notify_onEv
bibledit:_ZN13Assets_HeaderC1ERKNSt7__cxx1112basic_stringIcSt11char_traitsIcESaIcEEER17Webserver_Request
bibledit:_ZN13Assets_HeaderC2ERKNSt7__cxx1112basic_stringIcSt11char_traitsIcESaIcEEER17Webserver_Request
bibledit:_ZN13Assets_HeaderD1Ev
bibledit:_ZN13Assets_HeaderD2Ev
bibledit:_ZN13Database_Jobs10get_new_idEv
bibledit:_ZN13Database_Jobs10get_resultB5cxx11Ei
bibledit:_ZN13Database_Jobs10set_resultEiNSt7__cxx1112basic_stringIcSt11char_traitsIcESaIcEEE
bibledit:_ZN13Database_Jobs12get_progressB5cxx11Ei
bibledit:_ZN13Database_Jobs12set_progressEiNSt7__cxx1112basic_stringIcSt11char_traitsIcESaIcEEE
bibledit:_ZN13Database_Jobs14get_percentageB5cxx11Ei
bibledit:_ZN13Database_Jobs14set_percentageEii
bibledit:_ZN13Database_Jobs4trimEv
bibledit:_ZN13Database_Jobs6createEv
bibledit:_ZN13Database_Jobs8optimizeEv
bibledit:_ZN13Database_Jobs9get_levelEi
bibledit:_ZN13Database_Jobs9get_startB5cxx11Ei
bibledit:_ZN13Database_Jobs9id_existsEi
bibledit:_ZN13Database_Jobs9set_levelEii
bibledit:_ZN13Database_Jobs9set_startEiNSt7__cxx1112basic_stringIcSt11char_traitsIcESaIcEEE
bibledit:_ZN13Database_Logs3getERNSt7__cxx1112basic_stringIcSt11char_traitsIcESaIcEEE
bibledit:_ZN13Database_Logs3logENSt7__cxx1112basic_stringIcSt11char_traitsIcESaIcEEES5_i
bibledit:_ZN13Database_Logs3logENSt7__cxx1112basic_stringIcSt11char_traitsIcESaIcEEEi
bibledit:_ZN13Database_Logs4nextERNSt7__cxx1112basic_stringIcSt11char_traitsIcESaIcEEE
bibledit:_ZN13Database_Logs5clearEv
bibledit:_ZN13Database_Logs6folderB5cxx11Ev
bibledit:_ZN13Database_Logs6rotateEv
bibledit:_ZN13Database_Mail11getAllMailsEv
bibledit:_ZN13Database_Mail12getMailCountEv
bibledit:_ZN13Database_Mail14getMailsToSendEv
bibledit:_ZN13Database_Mail3getEi
bibledit:_ZN13Database_Mail4sendENSt7__cxx1112basic_stringIcSt11char_traitsIcESaIcEEES5_S5_i
bibledit:_ZN13Database_Mail4trimEv
bibledit:_ZN13Database_Mail5eraseEi
bibledit:_ZN13Database_Mail6createEv
bibledit:_ZN13Database_Mail8getMailsEv
bibledit:_ZN13Database_Mail8optimizeEv
bibledit:_ZN13Database_Mail8postponeEi
bibledit:_ZN13Database_MailC1ER17Webserver_Request
bibledit:_ZN13Database_MailC2ER17Webserver_Request
bibledit:_ZN13Database_MailD1Ev
bibledit:_ZN13Database_MailD2Ev
bibledit:_ZN13Database_OsHb12searchHebrewENSt7__cxx1112basic_stringIcSt11char_traitsIcESaIcEEE
bibledit:_ZN13Database_OsHb4wordB5cxx11Ei
bibledit:_ZN13Database_OsHb5lemmaB5cxx11Ei
bibledit:_ZN13Database_OsHb5morphB5cxx11Ei
bibledit:_ZN13Database_OsHb5storeEiiiNSt7__cxx1112basic_stringIcSt11char_traitsIcESaIcEEES5_S5_
bibledit:_ZN13Database_OsHb6createEv
bibledit:_ZN13Database_OsHb6get_idEPKcNSt7__cxx1112basic_stringIcSt11char_traitsIcESaIcEEE
bibledit:_ZN13Database_OsHb6rowidsEiii
bibledit:_ZN13Database_OsHb8filenameEv
bibledit:_ZN13Database_OsHb8getVerseB5cxx11Eiii
bibledit:_ZN13Database_OsHb8get_itemB5cxx11EPKci
bibledit:_ZN13Database_OsHb8optimizeEv
bibledit:_ZN13Dialog_Upload16add_upload_queryENSt7__cxx1112basic_stringIcSt11char_traitsIcESaIcEEES5_
bibledit:_ZN13Dialog_Upload3runB5cxx11Ev
bibledit:_ZN13Dialog_UploadC1ENSt7__cxx1112basic_stringIcSt11char_traitsIcESaIcEEES5_
bibledit:_ZN13Dialog_UploadC2ENSt7__cxx1112basic_stringIcSt11char_traitsIcESaIcEEES5_
bibledit:_ZN13Dialog_UploadD1Ev
bibledit:_ZN13Dialog_UploadD2Ev
bibledit:_ZN13Editor_Styles10get_actionER17Webserver_RequestRKNSt7__cxx1112basic_stringIcSt11char_traitsIcESaIcEEE
bibledit:_ZN13Editor_Styles12record_usageER17Webserver_RequestRKNSt7__cxx1112basic_stringIcSt11char_traitsIcESaIcEEE
bibledit:_ZN13Editor_Styles17get_recently_usedB5cxx11ER17Webserver_Request
bibledit:_ZN13Editor_Styles4monoB5cxx11Ev
bibledit:_ZN13Editor_Styles4noteB5cxx11Ev
bibledit:_ZN13Editor_Styles7get_allB5cxx11ER17Webserver_Request
bibledit:_ZN13Editor_Styles7unknownB5cxx11Ev
bibledit:_ZN13Editor_Styles9characterB5cxx11Ev
bibledit:_ZN13Editor_Styles9paragraphB5cxx11Ev
bibledit:_ZN13Session_Logic11open_accessEv
bibledit:_ZN13Session_Logic11switch_userENSt7__cxx1112basic_stringIcSt11char_traitsIcESaIcEEE
bibledit:_ZN13Session_Logic12set_usernameERKNSt7__cxx1112basic_stringIcSt11char_traitsIcESaIcEEE
bibledit:_ZN13Session_Logic13attempt_loginENSt7__cxx1112basic_stringIcSt11char_traitsIcESaIcEEERKS5_bb
bibledit:_ZN13Session_Logic13client_accessEv
bibledit:_ZN13Session_Logic13get_logged_inEv
bibledit:_ZN13Session_Logic17get_touch_enabledEv
bibledit:_ZN13Session_Logic4openEv
bibledit:_ZN13Session_Logic6logoutEv
bibledit:_ZN13Session_Logic9get_levelEb
bibledit:_ZN13Session_LogicC1ER17Webserver_Request
bibledit:_ZN13Session_LogicC2ER17Webserver_Request
bibledit:_ZN13Styles_Sheets12get_locationENSt7__cxx1112basic_stringIcSt11char_traitsIcESaIcEEEb
bibledit:_ZN13Styles_Sheets6createENSt7__cxx1112basic_stringIcSt11char_traitsIcESaIcEEES5_bS5_
bibledit:_ZN13Styles_Sheets8recreateEv
bibledit:_ZN13checks_french14citation_styleERKNSt7__cxx1112basic_stringIcSt11char_traitsIcESaIcEEEiiRKSt6vectorISt3mapIiS5_St4lessIiESaISt4pairIKiS5_EEESaISG_EE
bibledit:_ZN13checks_french14left_guillemetB5cxx11Ev
bibledit:_ZN13checks_french15right_guillemetB5cxx11Ev
bibledit:_ZN13checks_french30space_before_after_punctuationERKNSt7__cxx1112basic_stringIcSt11char_traitsIcESaIcEEEiiRKSt3mapIiS5_St4lessIiESaISt4pairIKiS5_EEE
bibledit:_ZN13checks_verses26missing_punctuation_at_endERKNSt7__cxx1112basic_stringIcSt11char_traitsIcESaIcEEEiiRKSt3mapIiS5_St4lessIiESaISt4pairIKiS5_EEES7_S7_S7_
bibledit:_ZN13checks_verses8patternsERKNSt7__cxx1112basic_stringIcSt11char_traitsIcESaIcEEEiiRKSt3mapIiS5_St4lessIiESaISt4pairIKiS5_EEERKSt6vectorIS5_SaIS5_EE
bibledit:_ZN14Database_Login11getUsernameENSt7__cxx1112basic_stringIcSt11char_traitsIcESaIcEEERb
bibledit:_ZN14Database_Login12removeTokensENSt7__cxx1112basic_stringIcSt11char_traitsIcESaIcEEE
bibledit:_ZN14Database_Login12removeTokensENSt7__cxx1112basic_stringIcSt11char_traitsIcESaIcEEES5_
bibledit:_ZN14Database_Login12renameTokensENSt7__cxx1112basic_stringIcSt11char_traitsIcESaIcEEES5_S5_
bibledit:_ZN14Database_Login13testTimestampEv
bibledit:_ZN14Database_Login15getTouchEnabledENSt7__cxx1112basic_stringIcSt11char_traitsIcESaIcEEE
bibledit:_ZN14Database_Login4trimEv
bibledit:_ZN14Database_Login6createEv
bibledit:_ZN14Database_Login7healthyEv
bibledit:_ZN14Database_Login8databaseEv
bibledit:_ZN14Database_Login8optimizeEv
bibledit:_ZN14Database_Login9setTokensENSt7__cxx1112basic_stringIcSt11char_traitsIcESaIcEEES5_S5_S5_S5_b
bibledit:_ZN14Database_Login9timestampEv
bibledit:_ZN14Database_Notes10expiry_keyB5cxx11Ev
bibledit:_ZN14Database_Notes10get_publicEi
bibledit:_ZN14Database_Notes10get_statusB5cxx11Ei
bibledit:_ZN14Database_Notes10public_keyB5cxx11Ev
bibledit:_ZN14Database_Notes10set_publicEib
bibledit:_ZN14Database_Notes10set_statusEiRKNSt7__cxx1112basic_stringIcSt11char_traitsIcESaIcEEEb
bibledit:_ZN14Database_Notes10status_keyB5cxx11Ev
bibledit:_ZN14Database_Notes11add_commentEiRKNSt7__cxx1112basic_stringIcSt11char_traitsIcESaIcEEE
bibledit:_ZN14Database_Notes11assign_userEiRKNSt7__cxx1112basic_stringIcSt11char_traitsIcESaIcEEE
bibledit:_ZN14Database_Notes11get_summaryB5cxx11Ei
bibledit:_ZN14Database_Notes11is_assignedEiRKNSt7__cxx1112basic_stringIcSt11char_traitsIcESaIcEEE
bibledit:_ZN14Database_Notes11passage_keyB5cxx11Ev
bibledit:_ZN14Database_Notes11set_summaryEiRKNSt7__cxx1112basic_stringIcSt11char_traitsIcESaIcEEE
bibledit:_ZN14Database_Notes11summary_keyB5cxx11Ev
bibledit:_ZN14Database_Notes11trim_serverEv
bibledit:_ZN14Database_Notes11unsubscribeEi
bibledit:_ZN14Database_Notes12assigned_keyB5cxx11Ev
bibledit:_ZN14Database_Notes12contents_keyB5cxx11Ev
bibledit:_ZN14Database_Notes12get_checksumB5cxx11Ei
bibledit:_ZN14Database_Notes12get_contentsB5cxx11Ei
bibledit:_ZN14Database_Notes12get_modifiedEi
bibledit:_ZN14Database_Notes12get_passagesEi
bibledit:_ZN14Database_Notes12get_severityB5cxx11Ei
bibledit:_ZN14Database_Notes12modified_keyB5cxx11Ev
bibledit:_ZN14Database_Notes12search_notesENSt7__cxx1112basic_stringIcSt11char_traitsIcESaIcEEERKSt6vectorIS5_SaIS5_EE
bibledit:_ZN14Database_Notes12select_notesERKNS_8SelectorE
bibledit:_ZN14Database_Notes12set_checksumEiRKNSt7__cxx1112basic_stringIcSt11char_traitsIcESaIcEEE
bibledit:_ZN14Database_Notes12set_contentsEiRKNSt7__cxx1112basic_stringIcSt11char_traitsIcESaIcEEE
bibledit:_ZN14Database_Notes12set_modifiedEii
bibledit:_ZN14Database_Notes12set_passagesEiRKSt6vectorI7PassageSaIS1_EEb
bibledit:_ZN14Database_Notes12severity_keyB5cxx11Ev
bibledit:_ZN14Database_Notes13database_pathB5cxx11Ev
bibledit:_ZN14Database_Notes13get_assigneesB5cxx11Ei
bibledit:_ZN14Database_Notes13is_subscribedEiRKNSt7__cxx1112basic_stringIcSt11char_traitsIcESaIcEEE
bibledit:_ZN14Database_Notes13set_assigneesEiSt6vectorINSt7__cxx1112basic_stringIcSt11char_traitsIcESaIcEEESaIS6_EE
bibledit:_ZN14Database_Notes13unassign_userEiRKNSt7__cxx1112basic_stringIcSt11char_traitsIcESaIcEEE
bibledit:_ZN14Database_Notes14decode_passageB5cxx11Ei
bibledit:_ZN14Database_Notes14decode_passageENSt7__cxx1112basic_stringIcSt11char_traitsIcESaIcEEE
bibledit:_ZN14Database_Notes14encode_passageB5cxx11Eiii
bibledit:_ZN14Database_Notes14get_all_biblesB5cxx11Ev
bibledit:_ZN14Database_Notes14get_raw_statusB5cxx11Ei
bibledit:_ZN14Database_Notes14set_identifierEii
bibledit:_ZN14Database_Notes14store_new_noteERKNS_7NewNoteE
bibledit:_ZN14Database_Notes14subscribe_userEiRKNSt7__cxx1112basic_stringIcSt11char_traitsIcESaIcEEE
bibledit:_ZN14Database_Notes15delete_checksumEi
bibledit:_ZN14Database_Notes15get_identifiersEv
bibledit:_ZN14Database_Notes15get_raw_passageB5cxx11Ei
bibledit:_ZN14Database_Notes15get_subscribersB5cxx11Ei
bibledit:_ZN14Database_Notes15set_raw_passageEiRKNSt7__cxx1112basic_stringIcSt11char_traitsIcESaIcEEE
bibledit:_ZN14Database_Notes15set_subscribersEiSt6vectorINSt7__cxx1112basic_stringIcSt11char_traitsIcESaIcEEESaIS6_EE
bibledit:_ZN14Database_Notes15update_checksumEi
bibledit:_ZN14Database_Notes15update_databaseEi
bibledit:_ZN14Database_Notes16get_raw_assignedB5cxx11Ei
bibledit:_ZN14Database_Notes16get_raw_severityEi
bibledit:_ZN14Database_Notes16get_search_fieldB5cxx11Ei
bibledit:_ZN14Database_Notes16main_folder_pathB5cxx11Ev
bibledit:_ZN14Database_Notes16set_availabilityEb
bibledit:_ZN14Database_Notes16set_raw_assignedEiRKNSt7__cxx1112basic_stringIcSt11char_traitsIcESaIcEEE
bibledit:_ZN14Database_Notes16set_raw_contentsEiRKNSt7__cxx1112basic_stringIcSt11char_traitsIcESaIcEEE
bibledit:_ZN14Database_Notes16set_raw_severityEii
bibledit:_ZN14Database_Notes16unsubscribe_userEiRKNSt7__cxx1112basic_stringIcSt11char_traitsIcESaIcEEE
bibledit:_ZN14Database_Notes17assemble_contentsEiNSt7__cxx1112basic_stringIcSt11char_traitsIcESaIcEEE
bibledit:_ZN14Database_Notes17availability_flagB5cxx11Ev
bibledit:_ZN14Database_Notes17checksums_healthyEv
bibledit:_ZN14Database_Notes17checkup_checksumsEv
bibledit:_ZN14Database_Notes17get_all_assigneesERKSt6vectorINSt7__cxx1112basic_stringIcSt11char_traitsIcESaIcEEESaIS6_EE
bibledit:_ZN14Database_Notes17identifier_existsEi
bibledit:_ZN14Database_Notes17index_raw_passageEiRKNSt7__cxx1112basic_stringIcSt11char_traitsIcESaIcEEE
bibledit:_ZN14Database_Notes17mark_for_deletionEi
bibledit:_ZN14Database_Notes17subscriptions_keyB5cxx11Ev
bibledit:_ZN14Database_Notes19standard_severitiesB5cxx11Ev
bibledit:_ZN14Database_Notes19unmark_for_deletionEi
bibledit:_ZN14Database_Notes20get_due_for_deletionEv
bibledit:_ZN14Database_Notes20update_search_fieldsEi
bibledit:_ZN14Database_Notes21get_multiple_checksumB5cxx11ERKSt6vectorIiSaIiEE
bibledit:_ZN14Database_Notes21get_possible_statusesEv
bibledit:_ZN14Database_Notes21get_raw_subscriptionsB5cxx11Ei
bibledit:_ZN14Database_Notes21note_modified_actionsEi
bibledit:_ZN14Database_Notes21set_raw_subscriptionsEiRKNSt7__cxx1112basic_stringIcSt11char_traitsIcESaIcEEE
bibledit:_ZN14Database_Notes22get_assignees_internalENSt7__cxx1112basic_stringIcSt11char_traitsIcESaIcEEE
bibledit:_ZN14Database_Notes22is_marked_for_deletionEi
bibledit:_ZN14Database_Notes23checksums_database_pathB5cxx11Ev
bibledit:_ZN14Database_Notes23get_possible_severitiesEv
bibledit:_ZN14Database_Notes23notes_select_identifierB5cxx11Ev
bibledit:_ZN14Database_Notes24update_database_internalEiiNSt7__cxx1112basic_stringIcSt11char_traitsIcESaIcEEES5_S5_S5_S5_iS5_S5_
bibledit:_ZN14Database_Notes25get_new_unique_identifierEv
bibledit:_ZN14Database_Notes25touch_marked_for_deletionEv
bibledit:_ZN14Database_Notes26notes_from_where_statementB5cxx11Ev
bibledit:_ZN14Database_Notes29get_notes_in_range_for_biblesEiiSt6vectorINSt7__cxx1112basic_stringIcSt11char_traitsIcESaIcEEESaIS6_EEb
bibledit:_ZN14Database_Notes34notes_order_by_relevance_statementB5cxx11Ev
bibledit:_ZN14Database_Notes40notes_optional_fulltext_search_statementENSt7__cxx1112basic_stringIcSt11char_traitsIcESaIcEEE
bibledit:_ZN14Database_Notes4syncEv
bibledit:_ZN14Database_Notes4trimEv
bibledit:_ZN14Database_Notes50notes_optional_fulltext_search_relevance_statementENSt7__cxx1112basic_stringIcSt11char_traitsIcESaIcEEE
bibledit:_ZN14Database_Notes5eraseEi
bibledit:_ZN14Database_Notes6createEv
bibledit:_ZN14Database_Notes7checkupEv
bibledit:_ZN14Database_Notes7healthyEv
bibledit:_ZN14Database_Notes8get_bulkB5cxx11ESt6vectorIiSaIiEE
bibledit:_ZN14Database_Notes8optimizeEv
bibledit:_ZN14Database_Notes8set_bulkENSt7__cxx1112basic_stringIcSt11char_traitsIcESaIcEEE
bibledit:_ZN14Database_Notes9availableEv
bibledit:_ZN14Database_Notes9bible_keyB5cxx11Ev
bibledit:_ZN14Database_Notes9get_bibleB5cxx11Ei
bibledit:_ZN14Database_Notes9get_fieldEiRKNSt7__cxx1112basic_stringIcSt11char_traitsIcESaIcEEE
bibledit:_ZN14Database_Notes9note_fileB5cxx11Ei
bibledit:_ZN14Database_Notes9set_bibleEiRKNSt7__cxx1112basic_stringIcSt11char_traitsIcESaIcEEE
bibledit:_ZN14Database_Notes9set_fieldEiNSt7__cxx1112basic_stringIcSt11char_traitsIcESaIcEEES5_
bibledit:_ZN14Database_Notes9subscribeEi
bibledit:_ZN14Database_NotesC1ER17Webserver_Request
bibledit:_ZN14Database_NotesC2ER17Webserver_Request
bibledit:_ZN14Database_State11clearExportERKNSt7__cxx1112basic_stringIcSt11char_traitsIcESaIcEEEii
bibledit:_ZN14Database_State16getNotesChecksumB5cxx11Eii
bibledit:_ZN14Database_State16putNotesChecksumEiiRKNSt7__cxx1112basic_stringIcSt11char_traitsIcESaIcEEE
bibledit:_ZN14Database_State17eraseNoteChecksumEi
bibledit:_ZN14Database_State6createEv
bibledit:_ZN14Database_State9getExportERKNSt7__cxx1112basic_stringIcSt11char_traitsIcESaIcEEEii
bibledit:_ZN14Database_State9setExportERKNSt7__cxx1112basic_stringIcSt11char_traitsIcESaIcEEEii
bibledit:_ZN14Database_Users10removeUserENSt7__cxx1112basic_stringIcSt11char_traitsIcESaIcEEE
bibledit:_ZN14Database_Users11emailExistsENSt7__cxx1112basic_stringIcSt11char_traitsIcESaIcEEE
bibledit:_ZN14Database_Users11get_enabledENSt7__cxx1112basic_stringIcSt11char_traitsIcESaIcEEE
bibledit:_ZN14Database_Users11set_enabledENSt7__cxx1112basic_stringIcSt11char_traitsIcESaIcEEEb
bibledit:_ZN14Database_Users12set_passwordENSt7__cxx1112basic_stringIcSt11char_traitsIcESaIcEEES5_
bibledit:_ZN14Database_Users13add_userQueryENSt7__cxx1112basic_stringIcSt11char_traitsIcESaIcEEES5_iS5_
bibledit:_ZN14Database_Users14getEmailToUserENSt7__cxx1112basic_stringIcSt11char_traitsIcESaIcEEE
bibledit:_ZN14Database_Users14usernameExistsENSt7__cxx1112basic_stringIcSt11char_traitsIcESaIcEEE
bibledit:_ZN14Database_Users15updateUserEmailENSt7__cxx1112basic_stringIcSt11char_traitsIcESaIcEEES5_
bibledit:_ZN14Database_Users16updateEmailQueryENSt7__cxx1112basic_stringIcSt11char_traitsIcESaIcEEES5_
bibledit:_ZN14Database_Users17getAdministratorsB5cxx11Ev
bibledit:_ZN14Database_Users17matchUserPasswordENSt7__cxx1112basic_stringIcSt11char_traitsIcESaIcEEES5_
bibledit:_ZN14Database_Users18matchEmailPasswordENSt7__cxx1112basic_stringIcSt11char_traitsIcESaIcEEES5_
bibledit:_ZN14Database_Users4trimEv
bibledit:_ZN14Database_Users6createEv
bibledit:_ZN14Database_Users7executeENSt7__cxx1112basic_stringIcSt11char_traitsIcESaIcEEE
bibledit:_ZN14Database_Users7get_md5ENSt7__cxx1112basic_stringIcSt11char_traitsIcESaIcEEE
bibledit:_ZN14Database_Users7upgradeEv
bibledit:_ZN14Database_Users8add_userENSt7__cxx1112basic_stringIcSt11char_traitsIcESaIcEEES5_iS5_
bibledit:_ZN14Database_Users8filenameEv
bibledit:_ZN14Database_Users8get_ldapENSt7__cxx1112basic_stringIcSt11char_traitsIcESaIcEEE
bibledit:_ZN14Database_Users8optimizeEv
bibledit:_ZN14Database_Users8set_ldapENSt7__cxx1112basic_stringIcSt11char_traitsIcESaIcEEEb
bibledit:_ZN14Database_Users9get_emailENSt7__cxx1112basic_stringIcSt11char_traitsIcESaIcEEE
bibledit:_ZN14Database_Users9get_levelENSt7__cxx1112basic_stringIcSt11char_traitsIcESaIcEEE
bibledit:_ZN14Database_Users9get_usersB5cxx11Ev
bibledit:_ZN14Database_Users9set_levelENSt7__cxx1112basic_stringIcSt11char_traitsIcESaIcEEEi
bibledit:_ZN14Paratext_Logic10journalTagENSt7__cxx1112basic_stringIcSt11char_traitsIcESaIcEEEii
bibledit:_ZN14Paratext_Logic11searchBooksENSt7__cxx1112basic_stringIcSt11char_traitsIcESaIcEEE
bibledit:_ZN14Paratext_Logic11synchronizeEN5tasks5enums13paratext_syncE
bibledit:_ZN14Paratext_Logic11synchronizeENSt7__cxx1112basic_stringIcSt11char_traitsIcESaIcEEES5_S5_RSt6vectorIS5_SaIS5_EERS6_I14Merge_ConflictSaISA_EE
bibledit:_ZN14Paratext_Logic12ancestorPathENSt7__cxx1112basic_stringIcSt11char_traitsIcESaIcEEEi
bibledit:_ZN14Paratext_Logic13enabledBiblesB5cxx11Ev
bibledit:_ZN14Paratext_Logic13projectFolderENSt7__cxx1112basic_stringIcSt11char_traitsIcESaIcEEE
bibledit:_ZN14Paratext_Logic14searchProjectsENSt7__cxx1112basic_stringIcSt11char_traitsIcESaIcEEE
bibledit:_ZN14Paratext_Logic20searchProjectsFolderB5cxx11Ev
bibledit:_ZN14Paratext_Logic20synchronizeReadyTextB5cxx11Ev
bibledit:_ZN14Paratext_Logic20synchronizeStartTextB5cxx11Ev
bibledit:_ZN14Paratext_Logic21copyBibledit2ParatextENSt7__cxx1112basic_stringIcSt11char_traitsIcESaIcEEE
bibledit:_ZN14Paratext_Logic21copyParatext2BibleditENSt7__cxx1112basic_stringIcSt11char_traitsIcESaIcEEE
bibledit:_ZN14Paratext_Logic5setupENSt7__cxx1112basic_stringIcSt11char_traitsIcESaIcEEES5_
bibledit:_ZN14Paratext_Logic7getBookENSt7__cxx1112basic_stringIcSt11char_traitsIcESaIcEEE
bibledit:_ZN14Paratext_Logic8ancestorENSt7__cxx1112basic_stringIcSt11char_traitsIcESaIcEEEi
bibledit:_ZN14Paratext_Logic8ancestorENSt7__cxx1112basic_stringIcSt11char_traitsIcESaIcEEEiS5_
bibledit:_ZN14SqliteDatabase10disconnectEv
bibledit:_ZN14SqliteDatabase3addENSt7__cxx1112basic_stringIcSt11char_traitsIcESaIcEEE
bibledit:_ZN14SqliteDatabase3addEPKc
bibledit:_ZN14SqliteDatabase3addEi
bibledit:_ZN14SqliteDatabase5clearEv
bibledit:_ZN14SqliteDatabase5queryB5cxx11Ev
bibledit:_ZN14SqliteDatabase7executeEv
bibledit:_ZN14SqliteDatabase7pop_sqlEv
bibledit:_ZN14SqliteDatabase7set_sqlERKNSt7__cxx1112basic_stringIcSt11char_traitsIcESaIcEEE
bibledit:_ZN14SqliteDatabase8push_sqlEv
bibledit:_ZN14SqliteDatabaseC1ERKNSt7__cxx1112basic_stringIcSt11char_traitsIcESaIcEEE
bibledit:_ZN14SqliteDatabaseC2ERKNSt7__cxx1112basic_stringIcSt11char_traitsIcESaIcEEE
bibledit:_ZN14SqliteDatabaseD1Ev
bibledit:_ZN14SqliteDatabaseD2Ev
bibledit:_ZN14checks_headers21no_punctuation_at_endERKNSt7__cxx1112basic_stringIcSt11char_traitsIcESaIcEEEiiRKSt3mapIiS5_St4lessIiESaISt4pairIKiS5_EEES7_S7_
bibledit:_ZN14checksum_logic10get_biblesERKSt6vectorINSt7__cxx1112basic_stringIcSt11char_traitsIcESaIcEEESaIS6_EE
bibledit:_ZN14checksum_logic11get_chapterERKNSt7__cxx1112basic_stringIcSt11char_traitsIcESaIcEEEii
bibledit:_ZN14checksum_logic3getERKNSt7__cxx1112basic_stringIcSt11char_traitsIcESaIcEEE
bibledit:_ZN14checksum_logic3getERKSt6vectorINSt7__cxx1112basic_stringIcSt11char_traitsIcESaIcEEESaIS6_EE
bibledit:_ZN14checksum_logic4sendERKNSt7__cxx1112basic_stringIcSt11char_traitsIcESaIcEEEb
bibledit:_ZN14checksum_logic8get_bookERKNSt7__cxx1112basic_stringIcSt11char_traitsIcESaIcEEEi
bibledit:_ZN14checksum_logic9get_bibleERKNSt7__cxx1112basic_stringIcSt11char_traitsIcESaIcEEE
bibledit:_ZN15Database_Sample3getEiRNSt7__cxx1112basic_stringIcSt11char_traitsIcESaIcEEES6_
bibledit:_ZN15Database_Sample3getEv
bibledit:_ZN15Database_Sample4nameEv
bibledit:_ZN15Database_Sample5storeENSt7__cxx1112basic_stringIcSt11char_traitsIcESaIcEEES5_
bibledit:_ZN15Database_Sample6createEv
bibledit:_ZN15Database_Sblgnt11searchGreekENSt7__cxx1112basic_stringIcSt11char_traitsIcESaIcEEE
bibledit:_ZN15Database_Sblgnt8getVerseB5cxx11Eiii
bibledit:_ZN15Database_SblgntC1Ev
bibledit:_ZN15Database_SblgntC2Ev
bibledit:_ZN15Database_SblgntD1Ev
bibledit:_ZN15Database_SblgntD2Ev
bibledit:_ZN15Database_Strong10definitionENSt7__cxx1112basic_stringIcSt11char_traitsIcESaIcEEE
bibledit:_ZN15Database_Strong6strongENSt7__cxx1112basic_stringIcSt11char_traitsIcESaIcEEE
bibledit:_ZN16Checks_Sentences10add_resultENSt7__cxx1112basic_stringIcSt11char_traitsIcESaIcEEEi
bibledit:_ZN16Checks_Sentences10initializeEv
bibledit:_ZN16Checks_Sentences10paragraphsERKSt6vectorINSt7__cxx1112basic_stringIcSt11char_traitsIcESaIcEEESaIS6_EESA_RKS0_ISt3mapIiS6_St4lessIiESaISt4pairIKiS6_EEESaISI_EE
bibledit:_ZN16Checks_Sentences11enter_namesENSt7__cxx1112basic_stringIcSt11char_traitsIcESaIcEEE
bibledit:_ZN16Checks_Sentences11get_resultsB5cxx11Ev
bibledit:_ZN16Checks_Sentences14enter_capitalsERKNSt7__cxx1112basic_stringIcSt11char_traitsIcESaIcEEE
bibledit:_ZN16Checks_Sentences15check_characterEv
bibledit:_ZN16Checks_Sentences15enter_end_marksERKNSt7__cxx1112basic_stringIcSt11char_traitsIcESaIcEEE
bibledit:_ZN16Checks_Sentences16enter_disregardsERKNSt7__cxx1112basic_stringIcSt11char_traitsIcESaIcEEE
bibledit:_ZN16Checks_Sentences18analyze_charactersEv
bibledit:_ZN16Checks_Sentences18enter_center_marksERKNSt7__cxx1112basic_stringIcSt11char_traitsIcESaIcEEE
bibledit:_ZN16Checks_Sentences19enter_small_lettersERKNSt7__cxx1112basic_stringIcSt11char_traitsIcESaIcEEE
bibledit:_ZN16Checks_Sentences23check_unknown_characterEv
bibledit:_ZN16Checks_Sentences5checkERKSt3mapIiNSt7__cxx1112basic_stringIcSt11char_traitsIcESaIcEEESt4lessIiESaISt4pairIKiS6_EEE
bibledit:_ZN16Editor_Html2Usfm10clean_usfmENSt7__cxx1112basic_stringIcSt11char_traitsIcESaIcEEE
bibledit:_ZN16Editor_Html2Usfm10flush_lineEv
bibledit:_ZN16Editor_Html2Usfm10stylesheetERKNSt7__cxx1112basic_stringIcSt11char_traitsIcESaIcEEE
bibledit:_ZN16Editor_Html2Usfm11open_inlineERKNSt7__cxx1112basic_stringIcSt11char_traitsIcESaIcEEE
bibledit:_ZN16Editor_Html2Usfm11pre_processEv
bibledit:_ZN16Editor_Html2Usfm12main_processEv
bibledit:_ZN16Editor_Html2Usfm12post_processEv
bibledit:_ZN16Editor_Html2Usfm12process_nodeERN4pugi8xml_nodeE
bibledit:_ZN16Editor_Html2Usfm16get_note_pointerERKN4pugi8xml_nodeERKNSt7__cxx1112basic_stringIcSt11char_traitsIcESaIcEEE
bibledit:_ZN16Editor_Html2Usfm17open_element_nodeERN4pugi8xml_nodeE
bibledit:_ZN16Editor_Html2Usfm18close_element_nodeERKN4pugi8xml_nodeE
bibledit:_ZN16Editor_Html2Usfm18update_quill_classENSt7__cxx1112basic_stringIcSt11char_traitsIcESaIcEEE
bibledit:_ZN16Editor_Html2Usfm21process_note_citationERN4pugi8xml_nodeE
bibledit:_ZN16Editor_Html2Usfm3getB5cxx11Ev
bibledit:_ZN16Editor_Html2Usfm3runEv
bibledit:_ZN16Editor_Html2Usfm4loadENSt7__cxx1112basic_stringIcSt11char_traitsIcESaIcEEE
bibledit:_ZN16Editor_Usfm2Html10preprocessEv
bibledit:_ZN16Editor_Usfm2Html10stylesheetERKNSt7__cxx1112basic_stringIcSt11char_traitsIcESaIcEEE
bibledit:_ZN16Editor_Usfm2Html11set_previewEv
bibledit:_ZN16Editor_Usfm2Html12output_as_isERKNSt7__cxx1112basic_stringIcSt11char_traitsIcESaIcEEEb
bibledit:_ZN16Editor_Usfm2Html13add_note_linkERN4pugi8xml_nodeEiRKNSt7__cxx1112basic_stringIcSt11char_traitsIcESaIcEEESA_
bibledit:_ZN16Editor_Usfm2Html13add_note_textERKNSt7__cxx1112basic_stringIcSt11char_traitsIcESaIcEEE
bibledit:_ZN16Editor_Usfm2Html13new_paragraphENSt7__cxx1112basic_stringIcSt11char_traitsIcESaIcEEE
bibledit:_ZN16Editor_Usfm2Html13road_is_clearEv
bibledit:_ZN16Editor_Usfm2Html15close_paragraphEv
bibledit:_ZN16Editor_Usfm2Html15open_text_styleERKNSt7__cxx1112basic_stringIcSt11char_traitsIcESaIcEEEb
bibledit:_ZN16Editor_Usfm2Html16close_text_styleEb
bibledit:_ZN16Editor_Usfm2Html18close_current_noteEv
bibledit:_ZN16Editor_Usfm2Html24add_milestone_attributesENSt7__cxx1112basic_stringIcSt11char_traitsIcESaIcEEE
bibledit:_ZN16Editor_Usfm2Html25add_word_level_attributesENSt7__cxx1112basic_stringIcSt11char_traitsIcESaIcEEE
bibledit:_ZN16Editor_Usfm2Html27get_milestone_attributes_idEb
bibledit:_ZN16Editor_Usfm2Html28extract_milestone_attributesEv
bibledit:_ZN16Editor_Usfm2Html28get_word_level_attributes_idEb
bibledit:_ZN16Editor_Usfm2Html29extract_word_level_attributesEv
bibledit:_ZN16Editor_Usfm2Html3getB5cxx11Ev
bibledit:_ZN16Editor_Usfm2Html3runEv
bibledit:_ZN16Editor_Usfm2Html4loadENSt7__cxx1112basic_stringIcSt11char_traitsIcESaIcEEE
bibledit:_ZN16Editor_Usfm2Html7processEv
bibledit:_ZN16Editor_Usfm2Html8add_noteERKNSt7__cxx1112basic_stringIcSt11char_traitsIcESaIcEEES7_
bibledit:_ZN16Editor_Usfm2Html8add_textERKNSt7__cxx1112basic_stringIcSt11char_traitsIcESaIcEEE
bibledit:_ZN16OnlineBible_Text18close_current_noteEv
bibledit:_ZN16OnlineBible_Text4saveENSt7__cxx1112basic_stringIcSt11char_traitsIcESaIcEEE
bibledit:_ZN16OnlineBible_Text7addNoteEv
bibledit:_ZN16OnlineBible_Text8add_textENSt7__cxx1112basic_stringIcSt11char_traitsIcESaIcEEE
bibledit:_ZN16OnlineBible_Text8newVerseEiii
bibledit:_ZN16OnlineBible_Text9storeDataEv
bibledit:_ZN16OnlineBible_TextC1Ev
bibledit:_ZN16OnlineBible_TextC2Ev
bibledit:_ZN17Consistency_Logic15omit_verse_textENSt7__cxx1112basic_stringIcSt11char_traitsIcESaIcEEE
bibledit:_ZN17Consistency_Logic8responseB5cxx11Ev
bibledit:_ZN17Consistency_Logic9verseTextENSt7__cxx1112basic_stringIcSt11char_traitsIcESaIcEEEiii
bibledit:_ZN17Consistency_LogicC1ER17Webserver_Requesti
bibledit:_ZN17Consistency_LogicC2ER17Webserver_Requesti
bibledit:_ZN17Database_Mappings5eraseERKNSt7__cxx1112basic_stringIcSt11char_traitsIcESaIcEEE
bibledit:_ZN17Database_Mappings5namesB5cxx11Ev
bibledit:_ZN17Database_Mappings6createERKNSt7__cxx1112basic_stringIcSt11char_traitsIcESaIcEEE
bibledit:_ZN17Database_Mappings6importERKNSt7__cxx1112basic_stringIcSt11char_traitsIcESaIcEEES7_
bibledit:_ZN17Database_Mappings6outputERKNSt7__cxx1112basic_stringIcSt11char_traitsIcESaIcEEE
bibledit:_ZN17Database_Mappings7create1Ev
bibledit:_ZN17Database_Mappings7create2Ev
bibledit:_ZN17Database_Mappings8defaultsEv
bibledit:_ZN17Database_Mappings8optimizeEv
bibledit:_ZN17Database_Mappings8originalB5cxx11Ev
bibledit:_ZN17Database_Mappings9translateERKNSt7__cxx1112basic_stringIcSt11char_traitsIcESaIcEEES7_iii
bibledit:_ZN17Database_MappingsC1Ev
bibledit:_ZN17Database_MappingsC2Ev
bibledit:_ZN17Database_MappingsD1Ev
bibledit:_ZN17Database_MappingsD2Ev
bibledit:_ZN17Database_MorphGnt3posB5cxx11Ei
bibledit:_ZN17Database_MorphGnt4wordB5cxx11Ei
bibledit:_ZN17Database_MorphGnt5lemmaB5cxx11Ei
bibledit:_ZN17Database_MorphGnt5storeEiiiNSt7__cxx1112basic_stringIcSt11char_traitsIcESaIcEEES5_S5_S5_
bibledit:_ZN17Database_MorphGnt6createEv
bibledit:_ZN17Database_MorphGnt6get_idEPKcNSt7__cxx1112basic_stringIcSt11char_traitsIcESaIcEEE
bibledit:_ZN17Database_MorphGnt6rowidsEiii
bibledit:_ZN17Database_MorphGnt7parsingB5cxx11Ei
bibledit:_ZN17Database_MorphGnt8filenameEv
bibledit:_ZN17Database_MorphGnt8get_itemB5cxx11EPKci
bibledit:_ZN17Database_MorphGnt8optimizeEv
bibledit:_ZN17Webserver_Request12database_ipcEv
bibledit:_ZN17Webserver_Request13session_logicEv
bibledit:_ZN17Webserver_Request14database_usersEv
bibledit:_ZN17Webserver_Request20database_config_userEv
bibledit:_ZN17Webserver_RequestC1Ev
bibledit:_ZN17Webserver_RequestC2Ev
bibledit:_ZN17Webserver_RequestD1Ev
bibledit:_ZN17Webserver_RequestD2Ev
bibledit:_ZN18DatabasePrivileges10bibles_endEv
bibledit:_ZN18DatabasePrivileges11get_featureERKNSt7__cxx1112basic_stringIcSt11char_traitsIcESaIcEEEi
bibledit:_ZN18DatabasePrivileges11remove_userERKNSt7__cxx1112basic_stringIcSt11char_traitsIcESaIcEEE
bibledit:_ZN18DatabasePrivileges11set_featureERKNSt7__cxx1112basic_stringIcSt11char_traitsIcESaIcEEEib
bibledit:_ZN18DatabasePrivileges12bibles_startEv
bibledit:_ZN18DatabasePrivileges12features_endEv
bibledit:_ZN18DatabasePrivileges12remove_bibleERKNSt7__cxx1112basic_stringIcSt11char_traitsIcESaIcEEE
bibledit:_ZN18DatabasePrivileges14features_startEv
bibledit:_ZN18DatabasePrivileges14get_bible_bookERKNSt7__cxx1112basic_stringIcSt11char_traitsIcESaIcEEES7_iRbS8_
bibledit:_ZN18DatabasePrivileges14set_bible_bookERKNSt7__cxx1112basic_stringIcSt11char_traitsIcESaIcEEES7_ib
bibledit:_ZN18DatabasePrivileges17remove_bible_bookERKNSt7__cxx1112basic_stringIcSt11char_traitsIcESaIcEEES7_i
bibledit:_ZN18DatabasePrivileges20get_bible_book_countEv
bibledit:_ZN18DatabasePrivileges21get_bible_book_existsERKNSt7__cxx1112basic_stringIcSt11char_traitsIcESaIcEEES7_i
bibledit:_ZN18DatabasePrivileges2onEv
bibledit:_ZN18DatabasePrivileges3offEv
bibledit:_ZN18DatabasePrivileges4loadERKNSt7__cxx1112basic_stringIcSt11char_traitsIcESaIcEEES7_
bibledit:_ZN18DatabasePrivileges4saveERKNSt7__cxx1112basic_stringIcSt11char_traitsIcESaIcEEE
bibledit:_ZN18DatabasePrivileges6createEv
bibledit:_ZN18DatabasePrivileges7healthyEv
bibledit:_ZN18DatabasePrivileges7upgradeEv
bibledit:_ZN18DatabasePrivileges8databaseEv
bibledit:_ZN18DatabasePrivileges8optimizeEv
bibledit:_ZN18DatabasePrivileges9get_bibleERKNSt7__cxx1112basic_stringIcSt11char_traitsIcESaIcEEES7_
bibledit:_ZN18DatabasePrivileges9set_bibleERKNSt7__cxx1112basic_stringIcSt11char_traitsIcESaIcEEES7_b
bibledit:_ZN18Editor_Html2Format10preprocessEv
bibledit:_ZN18Editor_Html2Format11open_inlineENSt7__cxx1112basic_stringIcSt11char_traitsIcESaIcEEE
bibledit:_ZN18Editor_Html2Format11postprocessEv
bibledit:_ZN18Editor_Html2Format12process_nodeEN4pugi8xml_nodeE
bibledit:_ZN18Editor_Html2Format17open_element_nodeEN4pugi8xml_nodeE
bibledit:_ZN18Editor_Html2Format18close_element_nodeEN4pugi8xml_nodeE
bibledit:_ZN18Editor_Html2Format18update_quill_classENSt7__cxx1112basic_stringIcSt11char_traitsIcESaIcEEE
bibledit:_ZN18Editor_Html2Format3runEv
bibledit:_ZN18Editor_Html2Format4loadENSt7__cxx1112basic_stringIcSt11char_traitsIcESaIcEEE
bibledit:_ZN18Editor_Html2Format7processEv
bibledit:_ZN18navigation_passage10go_forwardER17Webserver_Request
bibledit:_ZN18navigation_passage10go_historyER17Webserver_RequestNSt7__cxx1112basic_stringIcSt11char_traitsIcESaIcEEE
bibledit:_ZN18navigation_passage11set_chapterER17Webserver_Requesti
bibledit:_ZN18navigation_passage11set_passageER17Webserver_RequestRKNSt7__cxx1112basic_stringIcSt11char_traitsIcESaIcEEES7_
bibledit:_ZN18navigation_passage14goto_next_bookER17Webserver_RequestRKNSt7__cxx1112basic_stringIcSt11char_traitsIcESaIcEEE
bibledit:_ZN18navigation_passage14record_historyER17Webserver_Requestiii
bibledit:_ZN18navigation_passage15goto_next_verseER17Webserver_RequestRKNSt7__cxx1112basic_stringIcSt11char_traitsIcESaIcEEE
bibledit:_ZN18navigation_passage16get_history_backB5cxx11ER17Webserver_Request
bibledit:_ZN18navigation_passage17goto_next_chapterER17Webserver_RequestRKNSt7__cxx1112basic_stringIcSt11char_traitsIcESaIcEEE
bibledit:_ZN18navigation_passage18get_books_fragmentER17Webserver_RequestRKNSt7__cxx1112basic_stringIcSt11char_traitsIcESaIcEEE
bibledit:_ZN18navigation_passage18goto_previous_bookER17Webserver_RequestRKNSt7__cxx1112basic_stringIcSt11char_traitsIcESaIcEEE
bibledit:_ZN18navigation_passage19get_history_forwardB5cxx11ER17Webserver_Request
bibledit:_ZN18navigation_passage19get_mouse_navigatorER17Webserver_RequestRKNSt7__cxx1112basic_stringIcSt11char_traitsIcESaIcEEE
bibledit:_ZN18navigation_passage19get_verses_fragmentERKNSt7__cxx1112basic_stringIcSt11char_traitsIcESaIcEEEiii
bibledit:_ZN18navigation_passage19goto_previous_verseER17Webserver_RequestRKNSt7__cxx1112basic_stringIcSt11char_traitsIcESaIcEEE
bibledit:_ZN18navigation_passage21get_chapters_fragmentERKNSt7__cxx1112basic_stringIcSt11char_traitsIcESaIcEEEii
bibledit:_ZN18navigation_passage21goto_previous_chapterER17Webserver_RequestRKNSt7__cxx1112basic_stringIcSt11char_traitsIcESaIcEEE
bibledit:_ZN18navigation_passage22get_keyboard_navigatorER17Webserver_RequestRKNSt7__cxx1112basic_stringIcSt11char_traitsIcESaIcEEE
bibledit:_ZN18navigation_passage28interpret_keyboard_navigatorER17Webserver_RequestNSt7__cxx1112basic_stringIcSt11char_traitsIcESaIcEEES7_
bibledit:_ZN18navigation_passage4codeERKNSt7__cxx1112basic_stringIcSt11char_traitsIcESaIcEEE
bibledit:_ZN18navigation_passage7go_backER17Webserver_Request
bibledit:_ZN18navigation_passage8set_bookER17Webserver_Requesti
bibledit:_ZN18navigation_passage9set_verseER17Webserver_Requesti
bibledit:_ZN19Database_Navigation11get_historyERKNSt7__cxx1112basic_stringIcSt11char_traitsIcESaIcEEEi
bibledit:_ZN19Database_Navigation11get_next_idERKNSt7__cxx1112basic_stringIcSt11char_traitsIcESaIcEEE
bibledit:_ZN19Database_Navigation11next_existsERKNSt7__cxx1112basic_stringIcSt11char_traitsIcESaIcEEE
bibledit:_ZN19Database_Navigation12get_previousERKNSt7__cxx1112basic_stringIcSt11char_traitsIcESaIcEEE
bibledit:_ZN19Database_Navigation15get_previous_idERKNSt7__cxx1112basic_stringIcSt11char_traitsIcESaIcEEE
bibledit:_ZN19Database_Navigation15previous_existsERKNSt7__cxx1112basic_stringIcSt11char_traitsIcESaIcEEE
bibledit:_ZN19Database_Navigation4trimEv
bibledit:_ZN19Database_Navigation6createEv
bibledit:_ZN19Database_Navigation6recordEiNSt7__cxx1112basic_stringIcSt11char_traitsIcESaIcEEEiii
bibledit:_ZN19Database_Navigation8get_nextERKNSt7__cxx1112basic_stringIcSt11char_traitsIcESaIcEEE
bibledit:_ZN20Database_Config_User15sprint_year_keyEv
bibledit:_ZN20Database_Config_User16sprint_month_keyEv
bibledit:_ZN20Database_Config_UserC1ER17Webserver_Request
bibledit:_ZN20Database_Config_UserC2ER17Webserver_Request
bibledit:_ZN20Database_NoteActions11getNoteDataEi
bibledit:_ZN20Database_NoteActions11updateNotesEii
bibledit:_ZN20Database_NoteActions5clearEv
bibledit:_ZN20Database_NoteActions5eraseEi
bibledit:_ZN20Database_NoteActions6createEv
bibledit:_ZN20Database_NoteActions6existsEi
bibledit:_ZN20Database_NoteActions6recordERKNSt7__cxx1112basic_stringIcSt11char_traitsIcESaIcEEEiiS7_
bibledit:_ZN20Database_NoteActions8getNotesEv
bibledit:_ZN20Database_NoteActions8optimizeEv
bibledit:_ZN20checks_versification5booksERKNSt7__cxx1112basic_stringIcSt11char_traitsIcESaIcEEERKSt6vectorIiSaIiEE
bibledit:_ZN20checks_versification6versesERKNSt7__cxx1112basic_stringIcSt11char_traitsIcESaIcEEEiiRKSt6vectorIiSaIiEE
bibledit:_ZN20checks_versification8chaptersERKNSt7__cxx1112basic_stringIcSt11char_traitsIcESaIcEEEiRKSt6vectorIiSaIiEE
bibledit:_ZN21Database_Localization13backtranslateERKNSt7__cxx1112basic_stringIcSt11char_traitsIcESaIcEEE
bibledit:_ZN21Database_Localization6createENSt7__cxx1112basic_stringIcSt11char_traitsIcESaIcEEE
bibledit:_ZN21Database_Localization9translateERKNSt7__cxx1112basic_stringIcSt11char_traitsIcESaIcEEE
bibledit:_ZN21Database_LocalizationC1ERKNSt7__cxx1112basic_stringIcSt11char_traitsIcESaIcEEE
bibledit:_ZN21Database_LocalizationC2ERKNSt7__cxx1112basic_stringIcSt11char_traitsIcESaIcEEE
bibledit:_ZN22Database_HebrewLexicon6createEv
bibledit:_ZN22Database_HebrewLexicon6getaugENSt7__cxx1112basic_stringIcSt11char_traitsIcESaIcEEE
bibledit:_ZN22Database_HebrewLexicon6getbdbENSt7__cxx1112basic_stringIcSt11char_traitsIcESaIcEEE
bibledit:_ZN22Database_HebrewLexicon6getmapENSt7__cxx1112basic_stringIcSt11char_traitsIcESaIcEEE
bibledit:_ZN22Database_HebrewLexicon6getposENSt7__cxx1112basic_stringIcSt11char_traitsIcESaIcEEE
bibledit:_ZN22Database_HebrewLexicon6setaugENSt7__cxx1112basic_stringIcSt11char_traitsIcESaIcEEES5_
bibledit:_ZN22Database_HebrewLexicon6setbdbENSt7__cxx1112basic_stringIcSt11char_traitsIcESaIcEEES5_
bibledit:_ZN22Database_HebrewLexicon6setmapENSt7__cxx1112basic_stringIcSt11char_traitsIcESaIcEEES5_
bibledit:_ZN22Database_HebrewLexicon6setposENSt7__cxx1112basic_stringIcSt11char_traitsIcESaIcEEES5_
bibledit:_ZN22Database_HebrewLexicon8filenameEv
bibledit:_ZN22Database_HebrewLexicon8optimizeEv
bibledit:_ZN22Database_HebrewLexicon9getstrongENSt7__cxx1112basic_stringIcSt11char_traitsIcESaIcEEE
bibledit:_ZN22Database_HebrewLexicon9setstrongENSt7__cxx1112basic_stringIcSt11char_traitsIcESaIcEEES5_
bibledit:_ZN22Database_UserResources3urlERKNSt7__cxx1112basic_stringIcSt11char_traitsIcESaIcEEE
bibledit:_ZN22Database_UserResources3urlERKNSt7__cxx1112basic_stringIcSt11char_traitsIcESaIcEEES7_
bibledit:_ZN22Database_UserResources4bookERKNSt7__cxx1112basic_stringIcSt11char_traitsIcESaIcEEEi
bibledit:_ZN22Database_UserResources4bookERKNSt7__cxx1112basic_stringIcSt11char_traitsIcESaIcEEEiS7_
bibledit:_ZN22Database_UserResources4fileERKNSt7__cxx1112basic_stringIcSt11char_traitsIcESaIcEEE
bibledit:_ZN22Database_UserResources4loadERKNSt7__cxx1112basic_stringIcSt11char_traitsIcESaIcEEEm
bibledit:_ZN22Database_UserResources4saveERKNSt7__cxx1112basic_stringIcSt11char_traitsIcESaIcEEEmS7_
bibledit:_ZN22Database_UserResources5namesB5cxx11Ev
bibledit:_ZN22Database_UserResources6folderB5cxx11Ev
bibledit:_ZN22Database_UserResources6removeERKNSt7__cxx1112basic_stringIcSt11char_traitsIcESaIcEEE
bibledit:_ZN22Database_UserResources8fragmentB5cxx11Ev
bibledit:_ZN22Database_UsfmResources10bookFolderERKNSt7__cxx1112basic_stringIcSt11char_traitsIcESaIcEEEi
bibledit:_ZN22Database_UsfmResources10deleteBookERKNSt7__cxx1112basic_stringIcSt11char_traitsIcESaIcEEEi
bibledit:_ZN22Database_UsfmResources10mainFolderB5cxx11Ev
bibledit:_ZN22Database_UsfmResources11chapterFileERKNSt7__cxx1112basic_stringIcSt11char_traitsIcESaIcEEEii
bibledit:_ZN22Database_UsfmResources11getChaptersERKNSt7__cxx1112basic_stringIcSt11char_traitsIcESaIcEEEi
bibledit:_ZN22Database_UsfmResources12getResourcesB5cxx11Ev
bibledit:_ZN22Database_UsfmResources12storeChapterERKNSt7__cxx1112basic_stringIcSt11char_traitsIcESaIcEEEiiS7_
bibledit:_ZN22Database_UsfmResources13deleteChapterERKNSt7__cxx1112basic_stringIcSt11char_traitsIcESaIcEEEii
bibledit:_ZN22Database_UsfmResources14deleteResourceERKNSt7__cxx1112basic_stringIcSt11char_traitsIcESaIcEEE
bibledit:_ZN22Database_UsfmResources14resourceFolderERKNSt7__cxx1112basic_stringIcSt11char_traitsIcESaIcEEE
bibledit:_ZN22Database_UsfmResources7getSizeERKNSt7__cxx1112basic_stringIcSt11char_traitsIcESaIcEEEii
bibledit:_ZN22Database_UsfmResources7getUsfmERKNSt7__cxx1112basic_stringIcSt11char_traitsIcESaIcEEEii
bibledit:_ZN22Database_UsfmResources8getBooksERKNSt7__cxx1112basic_stringIcSt11char_traitsIcESaIcEEE
bibledit:_ZN22Developer_Logic_TracerC1ER17Webserver_Request
bibledit:_ZN22Developer_Logic_TracerC2ER17Webserver_Request
bibledit:_ZN22Developer_Logic_TracerD1Ev
bibledit:_ZN22Developer_Logic_TracerD2Ev
bibledit:_ZN23Database_NoteAssignment4pathENSt7__cxx1112basic_stringIcSt11char_traitsIcESaIcEEE
bibledit:_ZN23Database_NoteAssignment6existsENSt7__cxx1112basic_stringIcSt11char_traitsIcESaIcEEE
bibledit:_ZN23Database_NoteAssignment6existsENSt7__cxx1112basic_stringIcSt11char_traitsIcESaIcEEES5_
bibledit:_ZN23Database_NoteAssignment6removeENSt7__cxx1112basic_stringIcSt11char_traitsIcESaIcEEE
bibledit:_ZN23Database_NoteAssignment9assigneesENSt7__cxx1112basic_stringIcSt11char_traitsIcESaIcEEE
bibledit:_ZN23Database_NoteAssignment9assigneesENSt7__cxx1112basic_stringIcSt11char_traitsIcESaIcEEESt6vectorIS5_SaIS5_EE
bibledit:_ZN23Database_Versifications10getSystemsB5cxx11Ev
bibledit:_ZN23Database_Versifications11getChaptersERKNSt7__cxx1112basic_stringIcSt11char_traitsIcESaIcEEEib
bibledit:_ZN23Database_Versifications12createSystemERKNSt7__cxx1112basic_stringIcSt11char_traitsIcESaIcEEE
bibledit:_ZN23Database_Versifications15getMaximumBooksEv
bibledit:_ZN23Database_Versifications16getMaximumVersesEii
bibledit:_ZN23Database_Versifications18getMaximumChaptersEi
bibledit:_ZN23Database_Versifications22getBooksChaptersVersesERKNSt7__cxx1112basic_stringIcSt11char_traitsIcESaIcEEE
bibledit:_ZN23Database_Versifications5eraseERKNSt7__cxx1112basic_stringIcSt11char_traitsIcESaIcEEE
bibledit:_ZN23Database_Versifications5getIDERKNSt7__cxx1112basic_stringIcSt11char_traitsIcESaIcEEE
bibledit:_ZN23Database_Versifications5inputERKNSt7__cxx1112basic_stringIcSt11char_traitsIcESaIcEEES7_
bibledit:_ZN23Database_Versifications6createEv
bibledit:_ZN23Database_Versifications6outputERKNSt7__cxx1112basic_stringIcSt11char_traitsIcESaIcEEE
bibledit:_ZN23Database_Versifications8defaultsEv
bibledit:_ZN23Database_Versifications8getBooksERKNSt7__cxx1112basic_stringIcSt11char_traitsIcESaIcEEE
bibledit:_ZN23Database_Versifications8optimizeEv
bibledit:_ZN23Database_Versifications9getVersesERKNSt7__cxx1112basic_stringIcSt11char_traitsIcESaIcEEEii
bibledit:_ZN5Flate11enable_zoneENSt7__cxx1112basic_stringIcSt11char_traitsIcESaIcEEE
bibledit:_ZN5Flate12set_variableENSt7__cxx1112basic_stringIcSt11char_traitsIcESaIcEEES5_
bibledit:_ZN5Flate13add_iterationENSt7__cxx1112basic_stringIcSt11char_traitsIcESaIcEEESt3mapIS5_S5_St4lessIS5_ESaISt4pairIKS5_S5_EEE
bibledit:_ZN5Flate13process_zonesERNSt7__cxx1112basic_stringIcSt11char_traitsIcESaIcEEE
bibledit:_ZN5Flate17process_translateERNSt7__cxx1112basic_stringIcSt11char_traitsIcESaIcEEE
bibledit:_ZN5Flate17process_variablesERNSt7__cxx1112basic_stringIcSt11char_traitsIcESaIcEEE
bibledit:_ZN5Flate18process_iterationsERNSt7__cxx1112basic_stringIcSt11char_traitsIcESaIcEEE
bibledit:_ZN5Flate6renderENSt7__cxx1112basic_stringIcSt11char_traitsIcESaIcEEE
bibledit:_ZN5email11init_stringEPNS_7cstringE
bibledit:_ZN5email13receive_countERNSt7__cxx1112basic_stringIcSt11char_traitsIcESaIcEEEb
bibledit:_ZN5email15receive_messageERNSt7__cxx1112basic_stringIcSt11char_traitsIcESaIcEEE
bibledit:_ZN5email17setup_informationB5cxx11Ebb
bibledit:_ZN5email3urlB5cxx11Ev
bibledit:_ZN5email4sendENSt7__cxx1112basic_stringIcSt11char_traitsIcESaIcEEES5_S5_S5_b
bibledit:_ZN5email4sendEv
bibledit:_ZN5email7receiveEv
bibledit:_ZN5email8scheduleENSt7__cxx1112basic_stringIcSt11char_traitsIcESaIcEEES5_S5_i
bibledit:_ZN5email9writefuncEPvmmPNS_7cstringE
bibledit:_ZN5fonts5logic11font_existsERKNSt7__cxx1112basic_stringIcSt11char_traitsIcESaIcEEE
bibledit:_ZN5fonts5logic13get_font_pathERKNSt7__cxx1112basic_stringIcSt11char_traitsIcESaIcEEE
bibledit:_ZN5fonts5logic13get_text_fontERKNSt7__cxx1112basic_stringIcSt11char_traitsIcESaIcEEE
bibledit:_ZN5fonts5logic5eraseERKNSt7__cxx1112basic_stringIcSt11char_traitsIcESaIcEEE
bibledit:_ZN5fonts5logic7is_fontERKNSt7__cxx1112basic_stringIcSt11char_traitsIcESaIcEEE
bibledit:_ZN5fonts5logic9get_fontsB5cxx11Ev
bibledit:_ZN5quill20extract_class_prefixERNSt7__cxx1112basic_stringIcSt11char_traitsIcESaIcEEE
bibledit:_ZN5quill20hyphen_to_underscoreENSt7__cxx1112basic_stringIcSt11char_traitsIcESaIcEEE
bibledit:_ZN5quill20underscore_to_hyphenENSt7__cxx1112basic_stringIcSt11char_traitsIcESaIcEEE
bibledit:_ZN5roles14access_controlER17Webserver_Requesti
bibledit:_ZN5roles4textB5cxx11Ei
bibledit:_ZN5roles7englishB5cxx11Ei
bibledit:_ZN6checks5logic5startERKNSt7__cxx1112basic_stringIcSt11char_traitsIcESaIcEEE
bibledit:_ZN6checks5logic9start_allEv
bibledit:_ZN6checks5space15space_end_verseERKNSt7__cxx1112basic_stringIcSt11char_traitsIcESaIcEEEiiS8_
bibledit:_ZN6checks5space17double_space_usfmERKNSt7__cxx1112basic_stringIcSt11char_traitsIcESaIcEEEiiiS8_
bibledit:_ZN6checks5space20transpose_note_spaceERNSt7__cxx1112basic_stringIcSt11char_traitsIcESaIcEEE
bibledit:_ZN6checks5space24space_before_punctuationERKNSt7__cxx1112basic_stringIcSt11char_traitsIcESaIcEEEiiRKSt3mapIiS6_St4lessIiESaISt4pairIKiS6_EEE
bibledit:_ZN6checks5space30space_before_final_note_markupERKNSt7__cxx1112basic_stringIcSt11char_traitsIcESaIcEEEiiiS8_
bibledit:_ZN6checks6issues4textB5cxx11ENS0_5issueE
bibledit:_ZN6config5logic10basic_modeER17Webserver_Request
bibledit:_ZN6config5logic11admin_emailB5cxx11Ev
bibledit:_ZN6config5logic12demo_enabledEv
bibledit:_ZN6config5logic13config_folderEv
bibledit:_ZN6config5logic13load_settingsEv
bibledit:_ZN6config5logic13swipe_enabledER17Webserver_RequestRNSt7__cxx1112basic_stringIcSt11char_traitsIcESaIcEEE
bibledit:_ZN6config5logic14admin_passwordB5cxx11Ev
bibledit:_ZN6config5logic14admin_usernameB5cxx11Ev
bibledit:_ZN6config5logic15server_key_pathB5cxx11Eb
bibledit:_ZN6config5logic17http_network_portB5cxx11Ev
bibledit:_ZN6config5logic18create_no_accountsEv
bibledit:_ZN6config5logic18https_network_portB5cxx11Ev
bibledit:_ZN6config5logic20enforce_https_clientEv
bibledit:_ZN6config5logic21enforce_https_browserEv
bibledit:_ZN6config5logic22manual_user_facing_urlB5cxx11Ev
bibledit:_ZN6config5logic23indonesian_member_cloudEv
bibledit:_ZN6config5logic23server_certificate_pathB5cxx11Eb
bibledit:_ZN6config5logic29authorities_certificates_pathB5cxx11Eb
bibledit:_ZN6config5logic30default_bibledit_configurationEv
bibledit:_ZN6config5logic30google_translate_json_key_pathB5cxx11Ev
bibledit:_ZN6config5logic7versionEv
bibledit:_ZN6config5logic8site_urlB5cxx11ERK17Webserver_Request
bibledit:_ZN6dialog6select4ajaxB5cxx11ERKNS0_8SettingsE
bibledit:_ZN6dialog6select4formB5cxx11ERKNS0_8SettingsERKNS0_4FormE
bibledit:_ZN6filter4date10day_rfc822B5cxx11Ei
bibledit:_ZN6filter4date12month_rfc822B5cxx11Ei
bibledit:_ZN6filter4date13local_secondsEi
bibledit:_ZN6filter4date14get_next_monthERiS1_
bibledit:_ZN6filter4date14numerical_hourEi
bibledit:_ZN6filter4date14numerical_yearEi
bibledit:_ZN6filter4date15is_business_dayEiii
bibledit:_ZN6filter4date15numerical_monthEi
bibledit:_ZN6filter4date16numerical_minuteEi
bibledit:_ZN6filter4date16numerical_secondEi
bibledit:_ZN6filter4date18get_previous_monthERiS1_
bibledit:_ZN6filter4date18numerical_week_dayEi
bibledit:_ZN6filter4date19date_format_to_textB5cxx11ENS0_11date_formatE
bibledit:_ZN6filter4date19numerical_month_dayEi
bibledit:_ZN6filter4date19seconds_since_epochEiii
bibledit:_ZN6filter4date19seconds_since_epochEv
bibledit:_ZN6filter4date20elapsed_microsecondsEl
bibledit:_ZN6filter4date21localized_date_formatB5cxx11ER17Webserver_Request
bibledit:_ZN6filter4date21localized_date_formatB5cxx11Ev
bibledit:_ZN6filter4date22numerical_microsecondsEv
bibledit:_ZN6filter4date30get_last_business_day_of_monthEii
bibledit:_ZN6filter4date30is_first_business_day_of_monthEii
bibledit:_ZN6filter4date6rfc822B5cxx11Ei
bibledit:_ZN6filter4note8citation11run_restartERKNSt7__cxx1112basic_stringIcSt11char_traitsIcESaIcEEE
bibledit:_ZN6filter4note8citation11set_restartERKNSt7__cxx1112basic_stringIcSt11char_traitsIcESaIcEEE
bibledit:_ZN6filter4note8citation12set_sequenceENSt7__cxx1112basic_stringIcSt11char_traitsIcESaIcEEE
bibledit:_ZN6filter4note8citation3getENSt7__cxx1112basic_stringIcSt11char_traitsIcESaIcEEE
bibledit:_ZN6filter4note8citationC1Ev
bibledit:_ZN6filter4note8citationC2Ev
bibledit:_ZN6filter4note9citations14evaluate_styleERKN8stylesv25StyleE
bibledit:_ZN6filter4note9citations3getERKNSt7__cxx1112basic_stringIcSt11char_traitsIcESaIcEEES9_
bibledit:_ZN6filter4note9citations7restartERKNSt7__cxx1112basic_stringIcSt11char_traitsIcESaIcEEE
bibledit:_ZN6filter4text20passage_marker_valueC1EiiNSt7__cxx1112basic_stringIcSt11char_traitsIcESaIcEEES7_S7_
bibledit:_ZN6filter4text20passage_marker_valueC2EiiNSt7__cxx1112basic_stringIcSt11char_traitsIcESaIcEEES7_S7_
bibledit:_ZN6filter4usfm10get_markerENSt7__cxx1112basic_stringIcSt11char_traitsIcESaIcEEE
bibledit:_ZN6filter4usfm10one_stringERKNSt7__cxx1112basic_stringIcSt11char_traitsIcESaIcEEE
bibledit:_ZN6filter4usfm11extract_figENSt7__cxx1112basic_stringIcSt11char_traitsIcESaIcEEERS6_S7_S7_S7_S7_S7_S7_
bibledit:_ZN6filter4usfm11usfm_importENSt7__cxx1112basic_stringIcSt11char_traitsIcESaIcEEES6_
bibledit:_ZN6filter4usfm12save_is_safeER17Webserver_RequestNSt7__cxx1112basic_stringIcSt11char_traitsIcESaIcEEES8_bRS8_
bibledit:_ZN6filter4usfm14get_verse_textENSt7__cxx1112basic_stringIcSt11char_traitsIcESaIcEEEi
bibledit:_ZN6filter4usfm14is_usfm_markerENSt7__cxx1112basic_stringIcSt11char_traitsIcESaIcEEE
bibledit:_ZN6filter4usfm15BookChapterDataC1EiiNSt7__cxx1112basic_stringIcSt11char_traitsIcESaIcEEE
bibledit:_ZN6filter4usfm15BookChapterDataC2EiiNSt7__cxx1112basic_stringIcSt11char_traitsIcESaIcEEE
bibledit:_ZN6filter4usfm16get_chapter_textENSt7__cxx1112basic_stringIcSt11char_traitsIcESaIcEEEi
bibledit:_ZN6filter4usfm16get_closing_usfmENSt7__cxx1112basic_stringIcSt11char_traitsIcESaIcEEEb
bibledit:_ZN6filter4usfm16get_opening_usfmENSt7__cxx1112basic_stringIcSt11char_traitsIcESaIcEEEb
bibledit:_ZN6filter4usfm16remove_milestoneERSt6vectorINSt7__cxx1112basic_stringIcSt11char_traitsIcESaIcEEESaIS7_EERj
bibledit:_ZN6filter4usfm17get_verse_numbersENSt7__cxx1112basic_stringIcSt11char_traitsIcESaIcEEE
bibledit:_ZN6filter4usfm17is_opening_markerENSt7__cxx1112basic_stringIcSt11char_traitsIcESaIcEEE
bibledit:_ZN6filter4usfm17peek_verse_numberENSt7__cxx1112basic_stringIcSt11char_traitsIcESaIcEEE
bibledit:_ZN6filter4usfm18handle_verse_rangeENSt7__cxx1112basic_stringIcSt11char_traitsIcESaIcEEERSt6vectorIiSaIiEE
bibledit:_ZN6filter4usfm18is_embedded_markerENSt7__cxx1112basic_stringIcSt11char_traitsIcESaIcEEE
bibledit:_ZN6filter4usfm18safely_store_verseER17Webserver_RequestNSt7__cxx1112basic_stringIcSt11char_traitsIcESaIcEEEiiiS8_RS8_b
bibledit:_ZN6filter4usfm19get_book_identifierERKSt6vectorINSt7__cxx1112basic_stringIcSt11char_traitsIcESaIcEEESaIS7_EEj
bibledit:_ZN6filter4usfm19get_chapter_numbersENSt7__cxx1112basic_stringIcSt11char_traitsIcESaIcEEE
bibledit:_ZN6filter4usfm20get_markers_and_textENSt7__cxx1112basic_stringIcSt11char_traitsIcESaIcEEE
bibledit:_ZN6filter4usfm20get_verse_range_textENSt7__cxx1112basic_stringIcSt11char_traitsIcESaIcEEEiiRKS6_b
bibledit:_ZN6filter4usfm20get_verse_text_quillESt8optionalIiEiNSt7__cxx1112basic_stringIcSt11char_traitsIcESaIcEEE
bibledit:_ZN6filter4usfm20is_standard_q_poetryERKNSt7__cxx1112basic_stringIcSt11char_traitsIcESaIcEEE
bibledit:_ZN6filter4usfm20safely_store_chapterER17Webserver_RequestNSt7__cxx1112basic_stringIcSt11char_traitsIcESaIcEEEiiS8_RS8_
bibledit:_ZN6filter4usfm21contains_empty_versesENSt7__cxx1112basic_stringIcSt11char_traitsIcESaIcEEE
bibledit:_ZN6filter4usfm21handle_verse_sequenceENSt7__cxx1112basic_stringIcSt11char_traitsIcESaIcEEERSt6vectorIiSaIiEE
bibledit:_ZN6filter4usfm21offset_to_versenumberENSt7__cxx1112basic_stringIcSt11char_traitsIcESaIcEEEj
bibledit:_ZN6filter4usfm21versenumber_to_offsetENSt7__cxx1112basic_stringIcSt11char_traitsIcESaIcEEEi
bibledit:_ZN6filter4usfm25get_text_following_markerERKSt6vectorINSt7__cxx1112basic_stringIcSt11char_traitsIcESaIcEEESaIS7_EERj
bibledit:_ZN6filter4usfm25linenumber_to_versenumberENSt7__cxx1112basic_stringIcSt11char_traitsIcESaIcEEEj
bibledit:_ZN6filter4usfm26peek_text_following_markerERKSt6vectorINSt7__cxx1112basic_stringIcSt11char_traitsIcESaIcEEESaIS7_EEj
bibledit:_ZN6filter4usfm28remove_word_level_attributesERKNSt7__cxx1112basic_stringIcSt11char_traitsIcESaIcEEERSt6vectorIS6_SaIS6_EEj
bibledit:_ZN6filter4usfm43transpose_opening_marker_and_space_sequenceENSt7__cxx1112basic_stringIcSt11char_traitsIcESaIcEEE
bibledit:_ZN6filter4usfm8marker_vEv
bibledit:_ZN6filter4usfm9marker_vaEv
bibledit:_ZN6filter4usfm9marker_vpEv
bibledit:_ZN6filter5shell10is_presentEPKc
bibledit:_ZN6filter5shell14get_executableENS0_10ExecutableE
bibledit:_ZN6filter5shell16active_processesB5cxx11Ev
bibledit:_ZN6filter5shell3runENSt7__cxx1112basic_stringIcSt11char_traitsIcESaIcEEEPKcRS6_
bibledit:_ZN6filter5shell3runENSt7__cxx1112basic_stringIcSt11char_traitsIcESaIcEEERS6_
bibledit:_ZN6filter5shell3runENSt7__cxx1112basic_stringIcSt11char_traitsIcESaIcEEES6_St6vectorIS6_SaIS6_EEPS6_SA_
bibledit:_ZN6filter5shell5vforkERNSt7__cxx1112basic_stringIcSt11char_traitsIcESaIcEEES6_S6_PKcS9_S9_S9_S9_S9_S9_S9_S9_S9_S9_S9_S9_
bibledit:_ZN6filter6google13get_languagesERKNSt7__cxx1112basic_stringIcSt11char_traitsIcESaIcEEE
bibledit:_ZN6filter6google19google_access_tokenB5cxx11E
bibledit:_ZN6filter6google20refresh_access_tokenEv
bibledit:_ZN6filter6google24activate_service_accountB5cxx11Ev
bibledit:_ZN6filter6google24get_json_key_value_errorB5cxx11Ev
bibledit:_ZN6filter6google24print_store_access_tokenB5cxx11Ev
bibledit:_ZN6filter6google9translateENSt7__cxx1112basic_stringIcSt11char_traitsIcESaIcEEEPKcS8_
bibledit:_ZN6filter6number11float_equalEff
bibledit:_ZN6filter7strings10array_diffERKSt6vectorINSt7__cxx1112basic_stringIcSt11char_traitsIcESaIcEEESaIS7_EESB_
bibledit:_ZN6filter7strings10array_diffERKSt6vectorIiSaIiEES5_
bibledit:_ZN6filter7strings10get_reloadB5cxx11Ev
bibledit:_ZN6filter7strings10is_numericERKNSt7__cxx1112basic_stringIcSt11char_traitsIcESaIcEEE
bibledit:_ZN6filter7strings10quick_sortERSt6vectorINSt7__cxx1112basic_stringIcSt11char_traitsIcESaIcEEESaIS7_EERS1_IbSaIbEEjj
bibledit:_ZN6filter7strings10quick_sortERSt6vectorINSt7__cxx1112basic_stringIcSt11char_traitsIcESaIcEEESaIS7_EERS1_IjSaIjEEjj
bibledit:_ZN6filter7strings10quick_sortERSt6vectorINSt7__cxx1112basic_stringIcSt11char_traitsIcESaIcEEESaIS7_EESA_jj
bibledit:_ZN6filter7strings10quick_sortERSt6vectorINSt7__cxx1112basic_stringIcSt11char_traitsIcESaIcEEESaIS7_EEjj
bibledit:_ZN6filter7strings10quick_sortERSt6vectorIiSaIiEERS1_IjSaIjEEjj
bibledit:_ZN6filter7strings10quick_sortERSt6vectorIiSaIiEES4_jj
bibledit:_ZN6filter7strings10quick_sortERSt6vectorIjSaIjEERS1_INSt7__cxx1112basic_stringIcSt11char_traitsIcESaIcEEESaISA_EEjj
bibledit:_ZN6filter7strings10quick_sortERSt6vectorIjSaIjEERS1_IbSaIbEEjj
bibledit:_ZN6filter7strings10quick_sortERSt6vectorIjSaIjEES4_jj
bibledit:_ZN6filter7strings10quick_sortERSt6vectorImSaImEES4_jj
bibledit:_ZN6filter7strings10quick_swapERNSt7__cxx1112basic_stringIcSt11char_traitsIcESaIcEEES7_
bibledit:_ZN6filter7strings10quick_swapERbS1_
bibledit:_ZN6filter7strings10quick_swapERiS1_
bibledit:_ZN6filter7strings10quick_swapERjS1_
bibledit:_ZN6filter7strings10quick_swapERmS1_
bibledit:_ZN6filter7strings12array_uniqueERKSt6vectorINSt7__cxx1112basic_stringIcSt11char_traitsIcESaIcEEESaIS7_EE
bibledit:_ZN6filter7strings12array_uniqueERKSt6vectorIiSaIiEE
bibledit:_ZN6filter7strings12extract_bodyERKNSt7__cxx1112basic_stringIcSt11char_traitsIcESaIcEEES6_S6_
bibledit:_ZN6filter7strings12get_disabledB5cxx11Eb
bibledit:_ZN6filter7strings12markup_wordsERKSt6vectorINSt7__cxx1112basic_stringIcSt11char_traitsIcESaIcEEESaIS7_EES7_
bibledit:_ZN6filter7strings13extract_emailENSt7__cxx1112basic_stringIcSt11char_traitsIcESaIcEEE
bibledit:_ZN6filter7strings14convert_to_intERKNSt7__cxx1112basic_stringIcSt11char_traitsIcESaIcEEE
bibledit:_ZN6filter7strings14convert_to_intEf
bibledit:_ZN6filter7strings14en_space_u2002B5cxx11Ev
bibledit:_ZN6filter7strings14search_needlesERKNSt7__cxx1112basic_stringIcSt11char_traitsIcESaIcEEES8_
bibledit:_ZN6filter7strings15convert_to_boolERKNSt7__cxx1112basic_stringIcSt11char_traitsIcESaIcEEE
bibledit:_ZN6filter7strings15emoji_open_bookB5cxx11Ev
bibledit:_ZN6filter7strings15encrypt_decryptENSt7__cxx1112basic_stringIcSt11char_traitsIcESaIcEEES6_
bibledit:_ZN6filter7strings15replace_betweenERNSt7__cxx1112basic_stringIcSt11char_traitsIcESaIcEEERKS6_S9_S9_
bibledit:_ZN6filter7strings15user_identifierER17Webserver_Request
bibledit:_ZN6filter7strings16convert_to_floatERKNSt7__cxx1112basic_stringIcSt11char_traitsIcESaIcEEE
bibledit:_ZN6filter7strings16html_get_elementENSt7__cxx1112basic_stringIcSt11char_traitsIcESaIcEEES6_
bibledit:_ZN6filter7strings16number_in_stringERKNSt7__cxx1112basic_stringIcSt11char_traitsIcESaIcEEE
bibledit:_ZN6filter7strings17convert_to_stringB5cxx11EPKc
bibledit:_ZN6filter7strings17convert_to_stringB5cxx11Eb
bibledit:_ZN6filter7strings17convert_to_stringB5cxx11Efi
bibledit:_ZN6filter7strings17convert_to_stringERKNSt7__cxx1112basic_stringIcSt11char_traitsIcESaIcEEE
bibledit:_ZN6filter7strings17emoji_file_folderB5cxx11Ev
bibledit:_ZN6filter7strings17emoji_wastebasketB5cxx11Ev
bibledit:_ZN6filter7strings17soft_hyphen_u00ADB5cxx11Ev
bibledit:_ZN6filter7strings18array_move_from_toERSt6vectorINSt7__cxx1112basic_stringIcSt11char_traitsIcESaIcEEESaIS7_EEmm
bibledit:_ZN6filter7strings18array_move_up_downERSt6vectorINSt7__cxx1112basic_stringIcSt11char_traitsIcESaIcEEESaIS7_EEmb
bibledit:_ZN6filter7strings18figure_space_u2007B5cxx11Ev
bibledit:_ZN6filter7strings19collapse_whitespaceENSt7__cxx1112basic_stringIcSt11char_traitsIcESaIcEEE
bibledit:_ZN6filter7strings19get_checkbox_statusB5cxx11Eb
bibledit:_ZN6filter7strings20convert_to_long_longERKNSt7__cxx1112basic_stringIcSt11char_traitsIcESaIcEEE
bibledit:_ZN6filter7strings20convert_to_u16stringERKNSt7__cxx1112basic_stringIcSt11char_traitsIcESaIcEEE
bibledit:_ZN6filter7strings20icu_string_normalizeERKNSt7__cxx1112basic_stringIcSt11char_traitsIcESaIcEEEbb
bibledit:_ZN6filter7strings21convert_to_true_falseB5cxx11Eb
bibledit:_ZN6filter7strings21emoji_heavy_plus_signB5cxx11Ev
bibledit:_ZN6filter7strings21fix_invalid_html_tidyENSt7__cxx1112basic_stringIcSt11char_traitsIcESaIcEEE
bibledit:_ZN6filter7strings21get_new_random_stringB5cxx11Ev
bibledit:_ZN6filter7strings21unicode_string_lengthERKNSt7__cxx1112basic_stringIcSt11char_traitsIcESaIcEEE
bibledit:_ZN6filter7strings21unicode_string_strposERKNSt7__cxx1112basic_stringIcSt11char_traitsIcESaIcEEES8_m
bibledit:_ZN6filter7strings21unicode_string_substrENSt7__cxx1112basic_stringIcSt11char_traitsIcESaIcEEEmm
bibledit:_ZN6filter7strings22fix_invalid_html_gumboENSt7__cxx1112basic_stringIcSt11char_traitsIcESaIcEEE
bibledit:_ZN6filter7strings23unicode_string_casefoldERKNSt7__cxx1112basic_stringIcSt11char_traitsIcESaIcEEE
bibledit:_ZN6filter7strings23unicode_string_is_validERKNSt7__cxx1112basic_stringIcSt11char_traitsIcESaIcEEE
bibledit:_ZN6filter7strings24non_breaking_space_u00A0B5cxx11Ev
bibledit:_ZN6filter7strings24unicode_string_uppercaseERKNSt7__cxx1112basic_stringIcSt11char_traitsIcESaIcEEE
bibledit:_ZN6filter7strings26unicode_string_str_replaceERKNSt7__cxx1112basic_stringIcSt11char_traitsIcESaIcEEES8_S6_
bibledit:_ZN6filter7strings27any_space_to_standard_spaceENSt7__cxx1112basic_stringIcSt11char_traitsIcESaIcEEE
bibledit:_ZN6filter7strings27convert_windows1252_to_utf8ERKNSt7__cxx1112basic_stringIcSt11char_traitsIcESaIcEEE
bibledit:_ZN6filter7strings28unicode_string_transliterateERKNSt7__cxx1112basic_stringIcSt11char_traitsIcESaIcEEE
bibledit:_ZN6filter7strings29escape_special_xml_charactersENSt7__cxx1112basic_stringIcSt11char_traitsIcESaIcEEE
bibledit:_ZN6filter7strings29unicode_string_is_punctuationENSt7__cxx1112basic_stringIcSt11char_traitsIcESaIcEEE
bibledit:_ZN6filter7strings31narrow_non_breaking_space_u202FB5cxx11Ev
bibledit:_ZN6filter7strings31unescape_special_xml_charactersENSt7__cxx1112basic_stringIcSt11char_traitsIcESaIcEEE
bibledit:_ZN6filter7strings33unicode_non_breaking_space_entityB5cxx11Ev
bibledit:_ZN6filter7strings34unicode_black_up_pointing_triangleB5cxx11Ev
bibledit:_ZN6filter7strings35emoji_black_right_pointing_triangleB5cxx11Ev
bibledit:_ZN6filter7strings35unicode_string_convert_to_codepointENSt7__cxx1112basic_stringIcSt11char_traitsIcESaIcEEE
bibledit:_ZN6filter7strings36emoji_smiling_face_with_smiling_eyesB5cxx11Ev
bibledit:_ZN6filter7strings36unicode_black_down_pointing_triangleB5cxx11Ev
bibledit:_ZN6filter7strings36unicode_black_left_pointing_triangleB5cxx11Ev
bibledit:_ZN6filter7strings37unicode_black_right_pointing_triangleB5cxx11Ev
bibledit:_ZN6filter7strings38unicode_string_strpos_case_insensitiveENSt7__cxx1112basic_stringIcSt11char_traitsIcESaIcEEES6_m
bibledit:_ZN6filter7strings44convert_xml_character_entities_to_charactersENSt7__cxx1112basic_stringIcSt11char_traitsIcESaIcEEE
bibledit:_ZN6filter7strings45implode_from_beginning_remain_with_max_n_bitsERSt6vectorINSt7__cxx1112basic_stringIcSt11char_traitsIcESaIcEEESaIS7_EEiRKS7_
bibledit:_ZN6filter7strings4fillERKNSt7__cxx1112basic_stringIcSt11char_traitsIcESaIcEEEic
bibledit:_ZN6filter7strings4randEii
bibledit:_ZN6filter7strings4trimERKNSt7__cxx1112basic_stringIcSt11char_traitsIcESaIcEEE
bibledit:_ZN6filter7strings5ltrimERKNSt7__cxx1112basic_stringIcSt11char_traitsIcESaIcEEE
bibledit:_ZN6filter7strings5rtrimENSt7__cxx1112basic_stringIcSt11char_traitsIcESaIcEEE
bibledit:_ZN6filter7strings7bin2hexERKNSt7__cxx1112basic_stringIcSt11char_traitsIcESaIcEEE
bibledit:_ZN6filter7strings7crlf2lfENSt7__cxx1112basic_stringIcSt11char_traitsIcESaIcEEE
bibledit:_ZN6filter7strings7englishEv
bibledit:_ZN6filter7strings7explodeENSt7__cxx1112basic_stringIcSt11char_traitsIcESaIcEEERKS6_
bibledit:_ZN6filter7strings7explodeERKNSt7__cxx1112basic_stringIcSt11char_traitsIcESaIcEEEc
bibledit:_ZN6filter7strings7hex2binERKNSt7__cxx1112basic_stringIcSt11char_traitsIcESaIcEEE
bibledit:_ZN6filter7strings7implodeERKSt6vectorINSt7__cxx1112basic_stringIcSt11char_traitsIcESaIcEEESaIS7_EES7_
bibledit:_ZN6filter7strings7lf2crlfENSt7__cxx1112basic_stringIcSt11char_traitsIcESaIcEEE
bibledit:_ZN6filter7strings7replaceERKNSt7__cxx1112basic_stringIcSt11char_traitsIcESaIcEEES8_S6_Pi
bibledit:_ZN6filter7strings8hex_dumpEPKvi
bibledit:_ZN6filter7strings8html2xmlENSt7__cxx1112basic_stringIcSt11char_traitsIcESaIcEEE
bibledit:_ZN6filter7strings9html2textENSt7__cxx1112basic_stringIcSt11char_traitsIcESaIcEEE
bibledit:_ZN6filter7strings9html_tidyENSt7__cxx1112basic_stringIcSt11char_traitsIcESaIcEEE
bibledit:_ZN6jsonxx10parse_boolERSiRb
bibledit:_ZN6jsonxx10parse_nullERSi
bibledit:_ZN6jsonxx11parse_arrayERSiRNS_5ArrayE
bibledit:_ZN6jsonxx11parse_valueERSiRNS_5ValueE
bibledit:_ZN6jsonxx12parse_numberERSiRe
bibledit:_ZN6jsonxx12parse_objectERSiRNS_6ObjectE
bibledit:_ZN6jsonxx12parse_stringERSiRNSt7__cxx1112basic_stringIcSt11char_traitsIcESaIcEEE
bibledit:_ZN6jsonxx13parse_commentERSi
bibledit:_ZN6jsonxx16parse_identifierERSiRNSt7__cxx1112basic_stringIcSt11char_traitsIcESaIcEEE
bibledit:_ZN6jsonxx3xmlB5cxx11ERSij
bibledit:_ZN6jsonxx3xmlERKNSt7__cxx1112basic_stringIcSt11char_traitsIcESaIcEEEj
bibledit:_ZN6jsonxx5Array5parseERKNSt7__cxx1112basic_stringIcSt11char_traitsIcESaIcEEE
bibledit:_ZN6jsonxx5Array5parseERSi
bibledit:_ZN6jsonxx5Array5parseERSiRS0_
bibledit:_ZN6jsonxx5Array5resetEv
bibledit:_ZN6jsonxx5Array6importERKNS_5ValueE
bibledit:_ZN6jsonxx5Array6importERKS0_
bibledit:_ZN6jsonxx5ArrayC1ERKNS_5ValueE
bibledit:_ZN6jsonxx5ArrayC1ERKS0_
bibledit:_ZN6jsonxx5ArrayC1Ev
bibledit:_ZN6jsonxx5ArrayC2ERKNS_5ValueE
bibledit:_ZN6jsonxx5ArrayC2ERKS0_
bibledit:_ZN6jsonxx5ArrayC2Ev
bibledit:_ZN6jsonxx5ArrayD1Ev
bibledit:_ZN6jsonxx5ArrayD2Ev
bibledit:_ZN6jsonxx5ArrayaSERKNS_5ValueE
bibledit:_ZN6jsonxx5ArrayaSERKS0_
bibledit:_ZN6jsonxx5ArraylsERKNS_5ValueE
bibledit:_ZN6jsonxx5ArraylsERKS0_
bibledit:_ZN6jsonxx5Value5parseERKNSt7__cxx1112basic_stringIcSt11char_traitsIcESaIcEEE
bibledit:_ZN6jsonxx5Value5parseERSi
bibledit:_ZN6jsonxx5Value5parseERSiRS0_
bibledit:_ZN6jsonxx5Value5resetEv
bibledit:_ZN6jsonxx5ValueC1ERKS0_
bibledit:_ZN6jsonxx5ValueC1Ev
bibledit:_ZN6jsonxx5ValueC2ERKS0_
bibledit:_ZN6jsonxx5ValueC2Ev
bibledit:_ZN6jsonxx5matchEPKcRSi
bibledit:_ZN6jsonxx6Object5parseERKNSt7__cxx1112basic_stringIcSt11char_traitsIcESaIcEEE
bibledit:_ZN6jsonxx6Object5parseERSi
bibledit:_ZN6jsonxx6Object5parseERSiRS0_
bibledit:_ZN6jsonxx6Object5resetEv
bibledit:_ZN6jsonxx6Object6importERKNSt7__cxx1112basic_stringIcSt11char_traitsIcESaIcEEERKNS_5ValueE
bibledit:_ZN6jsonxx6Object6importERKS0_
bibledit:_ZN6jsonxx6ObjectC1ERKNSt7__cxx1112basic_stringIcSt11char_traitsIcESaIcEEERKNS_5ValueE
bibledit:_ZN6jsonxx6ObjectC1ERKS0_
bibledit:_ZN6jsonxx6ObjectC1Ev
bibledit:_ZN6jsonxx6ObjectC2ERKNSt7__cxx1112basic_stringIcSt11char_traitsIcESaIcEEERKNS_5ValueE
bibledit:_ZN6jsonxx6ObjectC2ERKS0_
bibledit:_ZN6jsonxx6ObjectC2Ev
bibledit:_ZN6jsonxx6ObjectD1Ev
bibledit:_ZN6jsonxx6ObjectD2Ev
bibledit:_ZN6jsonxx6ObjectaSERKS0_
bibledit:_ZN6jsonxx6ObjectlsERKNS_5ValueE
bibledit:_ZN6jsonxx6ObjectlsERKS0_
bibledit:_ZN6jsonxx8reformatB5cxx11ERSi
bibledit:_ZN6jsonxx8reformatERKNSt7__cxx1112basic_stringIcSt11char_traitsIcESaIcEEE
bibledit:_ZN6jsonxx8validateERKNSt7__cxx1112basic_stringIcSt11char_traitsIcESaIcEEE
bibledit:_ZN6jsonxx8validateERSi
bibledit:_ZN6jsonxx9assertionEPKciS1_b
bibledit:_ZN7Passage5equalERS_
bibledit:_ZN7Passage6decodeERKNSt7__cxx1112basic_stringIcSt11char_traitsIcESaIcEEE
bibledit:_ZN7PassageC1ENSt7__cxx1112basic_stringIcSt11char_traitsIcESaIcEEEiiS5_
bibledit:_ZN7PassageC1Ev
bibledit:_ZN7PassageC2ENSt7__cxx1112basic_stringIcSt11char_traitsIcESaIcEEEiiS5_
bibledit:_ZN7PassageC2Ev
bibledit:_ZN8HtmlText12new_heading1ERKNSt7__cxx1112basic_stringIcSt11char_traitsIcESaIcEEE
bibledit:_ZN8HtmlText13add_note_textERKNSt7__cxx1112basic_stringIcSt11char_traitsIcESaIcEEE
bibledit:_ZN8HtmlText13new_paragraphERKNSt7__cxx1112basic_stringIcSt11char_traitsIcESaIcEEE
bibledit:_ZN8HtmlText13new_table_rowEN4pugi8xml_nodeE
bibledit:_ZN8HtmlText14get_inner_htmlB5cxx11Ev
bibledit:_ZN8HtmlText14new_page_breakEv
bibledit:_ZN8HtmlText14new_table_dataEN4pugi8xml_nodeEb
bibledit:_ZN8HtmlText15open_text_styleEPKN8stylesv25StyleEbb
bibledit:_ZN8HtmlText16close_text_styleEbb
bibledit:_ZN8HtmlText16have_popup_notesEv
bibledit:_ZN8HtmlText17new_named_headingERKNSt7__cxx1112basic_stringIcSt11char_traitsIcESaIcEEES7_
bibledit:_ZN8HtmlText18close_current_noteEv
bibledit:_ZN8HtmlText4saveERKNSt7__cxx1112basic_stringIcSt11char_traitsIcESaIcEEE
bibledit:_ZN8HtmlText8add_linkEN4pugi8xml_nodeERKNSt7__cxx1112basic_stringIcSt11char_traitsIcESaIcEEES9_S9_S9_S9_b
bibledit:_ZN8HtmlText8add_noteERKNSt7__cxx1112basic_stringIcSt11char_traitsIcESaIcEEES7_b
bibledit:_ZN8HtmlText8add_textERKNSt7__cxx1112basic_stringIcSt11char_traitsIcESaIcEEE
bibledit:_ZN8HtmlText8get_htmlB5cxx11Ev
bibledit:_ZN8HtmlText9add_imageERKNSt7__cxx1112basic_stringIcSt11char_traitsIcESaIcEEES7_S7_S7_
bibledit:_ZN8HtmlText9new_tableEv
bibledit:_ZN8HtmlTextC1ERKNSt7__cxx1112basic_stringIcSt11char_traitsIcESaIcEEE
bibledit:_ZN8HtmlTextC2ERKNSt7__cxx1112basic_stringIcSt11char_traitsIcESaIcEEE
bibledit:_ZN8database12abboth_smith3getERKNSt7__cxx1112basic_stringIcSt11char_traitsIcESaIcEEES8_
bibledit:_ZN8database12abboth_smith5storeERKNSt7__cxx1112basic_stringIcSt11char_traitsIcESaIcEEES8_S8_S8_
bibledit:_ZN8database12abboth_smith6createEv
bibledit:_ZN8database12abboth_smith8optimizeEv
bibledit:_ZN8database12bible_images3getB5cxx11Ev
bibledit:_ZN8database12bible_images3getERKNSt7__cxx1112basic_stringIcSt11char_traitsIcESaIcEEE
bibledit:_ZN8database12bible_images5eraseERKNSt7__cxx1112basic_stringIcSt11char_traitsIcESaIcEEE
bibledit:_ZN8database12bible_images5storeERKNSt7__cxx1112basic_stringIcSt11char_traitsIcESaIcEEE
bibledit:_ZN8database13bible_actions10get_biblesB5cxx11Ev
bibledit:_ZN8database13bible_actions12get_chaptersENSt7__cxx1112basic_stringIcSt11char_traitsIcESaIcEEEi
bibledit:_ZN8database13bible_actions5clearEv
bibledit:_ZN8database13bible_actions5eraseENSt7__cxx1112basic_stringIcSt11char_traitsIcESaIcEEEii
bibledit:_ZN8database13bible_actions6createEv
bibledit:_ZN8database13bible_actions6recordENSt7__cxx1112basic_stringIcSt11char_traitsIcESaIcEEEiiS6_
bibledit:_ZN8database13bible_actions8get_usfmENSt7__cxx1112basic_stringIcSt11char_traitsIcESaIcEEEii
bibledit:_ZN8database13bible_actions8optimizeEv
bibledit:_ZN8database13bible_actions9get_booksENSt7__cxx1112basic_stringIcSt11char_traitsIcESaIcEEE
bibledit:_ZN8database13modifications11getTeamDiffERKNSt7__cxx1112basic_stringIcSt11char_traitsIcESaIcEEEii
bibledit:_ZN8database13modifications12getUserBooksERKNSt7__cxx1112basic_stringIcSt11char_traitsIcESaIcEEES8_
bibledit:_ZN8database13modifications13clearUserUserERKNSt7__cxx1112basic_stringIcSt11char_traitsIcESaIcEEE
bibledit:_ZN8database13modifications13getCategoriesB5cxx11Ev
bibledit:_ZN8database13modifications13getUserBiblesERKNSt7__cxx1112basic_stringIcSt11char_traitsIcESaIcEEE
bibledit:_ZN8database13modifications13storeTeamDiffERKNSt7__cxx1112basic_stringIcSt11char_traitsIcESaIcEEEii
bibledit:_ZN8database13modifications13truncateTeamsEv
bibledit:_ZN8database13modifications14getUserChapterERKNSt7__cxx1112basic_stringIcSt11char_traitsIcESaIcEEES8_iii
bibledit:_ZN8database13modifications14recordUserSaveERKNSt7__cxx1112basic_stringIcSt11char_traitsIcESaIcEEES8_iiiS8_iS8_
bibledit:_ZN8database13modifications14teamDiffExistsERKNSt7__cxx1112basic_stringIcSt11char_traitsIcESaIcEEEii
bibledit:_ZN8database13modifications15getUserChaptersERKNSt7__cxx1112basic_stringIcSt11char_traitsIcESaIcEEES8_i
bibledit:_ZN8database13modifications16getTeamDiffBooksERKNSt7__cxx1112basic_stringIcSt11char_traitsIcESaIcEEE
bibledit:_ZN8database13modifications16getTeamDiffCountERKNSt7__cxx1112basic_stringIcSt11char_traitsIcESaIcEEE
bibledit:_ZN8database13modifications16getUserTimestampERKNSt7__cxx1112basic_stringIcSt11char_traitsIcESaIcEEES8_iii
bibledit:_ZN8database13modifications16getUserUsernamesB5cxx11Ev
bibledit:_ZN8database13modifications17getTeamDiffBiblesB5cxx11Ev
bibledit:_ZN8database13modifications17storeTeamDiffBookERKNSt7__cxx1112basic_stringIcSt11char_traitsIcESaIcEEEi
bibledit:_ZN8database13modifications18deleteNotificationEi
bibledit:_ZN8database13modifications18getUserIdentifiersERKNSt7__cxx1112basic_stringIcSt11char_traitsIcESaIcEEES8_ii
bibledit:_ZN8database13modifications18recordNotificationERKSt6vectorINSt7__cxx1112basic_stringIcSt11char_traitsIcESaIcEEESaIS7_EERKS7_SD_iiiSD_SD_SD_
bibledit:_ZN8database13modifications18storeTeamDiffBibleERKNSt7__cxx1112basic_stringIcSt11char_traitsIcESaIcEEE
bibledit:_ZN8database13modifications19deleteTeamDiffBibleERKNSt7__cxx1112basic_stringIcSt11char_traitsIcESaIcEEE
bibledit:_ZN8database13modifications19getTeamDiffChaptersERKNSt7__cxx1112basic_stringIcSt11char_traitsIcESaIcEEEi
bibledit:_ZN8database13modifications20getNotificationBibleB5cxx11Ei
bibledit:_ZN8database13modifications21deleteTeamDiffChapterERKNSt7__cxx1112basic_stringIcSt11char_traitsIcESaIcEEEii
bibledit:_ZN8database13modifications22clearNotificationsUserERKNSt7__cxx1112basic_stringIcSt11char_traitsIcESaIcEEE
bibledit:_ZN8database13modifications22getNotificationNewTextB5cxx11Ei
bibledit:_ZN8database13modifications22getNotificationOldTextB5cxx11Ei
bibledit:_ZN8database13modifications22getNotificationPassageEi
bibledit:_ZN8database13modifications22notificationUpdateTimeEii
bibledit:_ZN8database13modifications23getNotificationCategoryB5cxx11Ei
bibledit:_ZN8database13modifications23storeClientNotificationEiNSt7__cxx1112basic_stringIcSt11char_traitsIcESaIcEEES6_S6_iiiS6_S6_S6_
bibledit:_ZN8database13modifications24clearNotificationMatchesENSt7__cxx1112basic_stringIcSt11char_traitsIcESaIcEEES6_S6_S6_
bibledit:_ZN8database13modifications24getNotificationTimeStampEi
bibledit:_ZN8database13modifications25indexTrimAllNotificationsEv
bibledit:_ZN8database13modifications26getNotificationIdentifiersENSt7__cxx1112basic_stringIcSt11char_traitsIcESaIcEEES6_b
bibledit:_ZN8database13modifications27getNotificationModificationB5cxx11Ei
bibledit:_ZN8database13modifications29getNotificationDistinctBiblesENSt7__cxx1112basic_stringIcSt11char_traitsIcESaIcEEE
bibledit:_ZN8database13modifications30getNotificationTeamIdentifiersERKNSt7__cxx1112basic_stringIcSt11char_traitsIcESaIcEEES8_S6_
bibledit:_ZN8database13modifications38getNextAvailableNotificationIdentifierEv
bibledit:_ZN8database13modifications5eraseEv
bibledit:_ZN8database13modifications6createEv
bibledit:_ZN8database13modifications6vacuumEv
bibledit:_ZN8database13modifications7healthyEv
bibledit:_ZN8database5books16get_id_from_osisERKNSt7__cxx1112basic_stringIcSt11char_traitsIcESaIcEEE
bibledit:_ZN8database5books16get_id_from_usfmERKNSt7__cxx1112basic_stringIcSt11char_traitsIcESaIcEEE
bibledit:_ZN8database5books16get_id_like_textERKNSt7__cxx1112basic_stringIcSt11char_traitsIcESaIcEEE
bibledit:_ZN8database5books16get_osis_from_idB5cxx11E7book_id
bibledit:_ZN8database5books16get_usfm_from_idB5cxx11E7book_id
bibledit:_ZN8database5books17get_order_from_idE7book_id
bibledit:_ZN8database5books19book_type_to_stringB5cxx11E9book_type
bibledit:_ZN8database5books19get_english_from_idB5cxx11E7book_id
bibledit:_ZN8database5books19get_id_from_englishERKNSt7__cxx1112basic_stringIcSt11char_traitsIcESaIcEEE
bibledit:_ZN8database5books22get_bibleworks_from_idB5cxx11E7book_id
bibledit:_ZN8database5books22get_id_from_bibleworksERKNSt7__cxx1112basic_stringIcSt11char_traitsIcESaIcEEE
bibledit:_ZN8database5books23get_id_from_onlinebibleERKNSt7__cxx1112basic_stringIcSt11char_traitsIcESaIcEEE
bibledit:_ZN8database5books23get_onlinebible_from_idB5cxx11E7book_id
bibledit:_ZN8database5books7get_idsEv
bibledit:_ZN8database5books8get_typeE7book_id
bibledit:_ZN8database5cache3sql4pathERKNSt7__cxx1112basic_stringIcSt11char_traitsIcESaIcEEEi
bibledit:_ZN8database5cache3sql4sizeERKNSt7__cxx1112basic_stringIcSt11char_traitsIcESaIcEEEi
bibledit:_ZN8database5cache3sql5cacheERKNSt7__cxx1112basic_stringIcSt11char_traitsIcESaIcEEEiiiS9_
bibledit:_ZN8database5cache3sql5countERKNSt7__cxx1112basic_stringIcSt11char_traitsIcESaIcEEE
bibledit:_ZN8database5cache3sql5readyERKNSt7__cxx1112basic_stringIcSt11char_traitsIcESaIcEEEi
bibledit:_ZN8database5cache3sql5readyERKNSt7__cxx1112basic_stringIcSt11char_traitsIcESaIcEEEib
bibledit:_ZN8database5cache3sql6createERKNSt7__cxx1112basic_stringIcSt11char_traitsIcESaIcEEEi
bibledit:_ZN8database5cache3sql6existsERKNSt7__cxx1112basic_stringIcSt11char_traitsIcESaIcEEE
bibledit:_ZN8database5cache3sql6existsERKNSt7__cxx1112basic_stringIcSt11char_traitsIcESaIcEEEi
bibledit:_ZN8database5cache3sql6existsERKNSt7__cxx1112basic_stringIcSt11char_traitsIcESaIcEEEiii
bibledit:_ZN8database5cache3sql6removeERKNSt7__cxx1112basic_stringIcSt11char_traitsIcESaIcEEE
bibledit:_ZN8database5cache3sql6removeERKNSt7__cxx1112basic_stringIcSt11char_traitsIcESaIcEEEi
bibledit:_ZN8database5cache3sql8fragmentB5cxx11Ev
bibledit:_ZN8database5cache3sql8retrieveERKNSt7__cxx1112basic_stringIcSt11char_traitsIcESaIcEEEiii
bibledit:_ZN8database5cache4file3getENSt7__cxx1112basic_stringIcSt11char_traitsIcESaIcEEE
bibledit:_ZN8database5cache4file3putENSt7__cxx1112basic_stringIcSt11char_traitsIcESaIcEEERKS7_
bibledit:_ZN8database5cache4file4trimEb
bibledit:_ZN8database5cache4file6existsENSt7__cxx1112basic_stringIcSt11char_traitsIcESaIcEEE
bibledit:_ZN8database5cache4file6removeENSt7__cxx1112basic_stringIcSt11char_traitsIcESaIcEEE
bibledit:_ZN8database5cache9can_cacheERKNSt7__cxx1112basic_stringIcSt11char_traitsIcESaIcEEES8_
bibledit:_ZN8database5check11get_passageEi
bibledit:_ZN8database5check13delete_outputERKNSt7__cxx1112basic_stringIcSt11char_traitsIcESaIcEEE
bibledit:_ZN8database5check13record_outputERKNSt7__cxx1112basic_stringIcSt11char_traitsIcESaIcEEEiiiS6_
bibledit:_ZN8database5check16get_suppressionsEv
bibledit:_ZN8database5check6createEv
bibledit:_ZN8database5check7approveEi
bibledit:_ZN8database5check7releaseEi
bibledit:_ZN8database5check8get_hitsEv
bibledit:_ZN8database5check8optimizeEv
bibledit:_ZN8database5check9delete_idEi
bibledit:_ZN8database6bibles10get_biblesB5cxx11Ev
bibledit:_ZN8database6bibles11delete_bookERKNSt7__cxx1112basic_stringIcSt11char_traitsIcESaIcEEEi
bibledit:_ZN8database6bibles11get_chapterERKNSt7__cxx1112basic_stringIcSt11char_traitsIcESaIcEEEii
bibledit:_ZN8database6bibles12bible_folderERKNSt7__cxx1112basic_stringIcSt11char_traitsIcESaIcEEE
bibledit:_ZN8database6bibles12create_bibleERKNSt7__cxx1112basic_stringIcSt11char_traitsIcESaIcEEE
bibledit:_ZN8database6bibles12delete_bibleERKNSt7__cxx1112basic_stringIcSt11char_traitsIcESaIcEEE
bibledit:_ZN8database6bibles12get_chaptersERKNSt7__cxx1112basic_stringIcSt11char_traitsIcESaIcEEEi
bibledit:_ZN8database6bibles13store_chapterERKNSt7__cxx1112basic_stringIcSt11char_traitsIcESaIcEEEiiS6_
bibledit:_ZN8database6bibles14delete_chapterERKNSt7__cxx1112basic_stringIcSt11char_traitsIcESaIcEEEii
bibledit:_ZN8database6bibles14get_chapter_idERKNSt7__cxx1112basic_stringIcSt11char_traitsIcESaIcEEEii
bibledit:_ZN8database6bibles15get_chapter_ageERKNSt7__cxx1112basic_stringIcSt11char_traitsIcESaIcEEEii
bibledit:_ZN8database6bibles20update_search_fieldsERKNSt7__cxx1112basic_stringIcSt11char_traitsIcESaIcEEEii
bibledit:_ZN8database6bibles8optimizeEv
bibledit:_ZN8database6bibles9get_booksERKNSt7__cxx1112basic_stringIcSt11char_traitsIcESaIcEEE
bibledit:_ZN8database6config5bible13get_text_fontERKNSt7__cxx1112basic_stringIcSt11char_traitsIcESaIcEEE
bibledit:_ZN8database6config5bible13set_text_fontERKNSt7__cxx1112basic_stringIcSt11char_traitsIcESaIcEEES9_
bibledit:_ZN8database6config5bible14get_book_orderERKNSt7__cxx1112basic_stringIcSt11char_traitsIcESaIcEEE
bibledit:_ZN8database6config5bible14get_page_widthERKNSt7__cxx1112basic_stringIcSt11char_traitsIcESaIcEEE
bibledit:_ZN8database6config5bible14get_top_marginERKNSt7__cxx1112basic_stringIcSt11char_traitsIcESaIcEEE
bibledit:_ZN8database6config5bible14set_book_orderERKNSt7__cxx1112basic_stringIcSt11char_traitsIcESaIcEEES9_
bibledit:_ZN8database6config5bible14set_page_widthERKNSt7__cxx1112basic_stringIcSt11char_traitsIcESaIcEEES9_
bibledit:_ZN8database6config5bible14set_top_marginERKNSt7__cxx1112basic_stringIcSt11char_traitsIcESaIcEEES9_
bibledit:_ZN8database6config5bible15get_export_fontERKNSt7__cxx1112basic_stringIcSt11char_traitsIcESaIcEEE
bibledit:_ZN8database6config5bible15get_line_heightERKNSt7__cxx1112basic_stringIcSt11char_traitsIcESaIcEEE
bibledit:_ZN8database6config5bible15get_page_heightERKNSt7__cxx1112basic_stringIcSt11char_traitsIcESaIcEEE
bibledit:_ZN8database6config5bible15set_export_fontERKNSt7__cxx1112basic_stringIcSt11char_traitsIcESaIcEEES9_
bibledit:_ZN8database6config5bible15set_line_heightERKNSt7__cxx1112basic_stringIcSt11char_traitsIcESaIcEEEi
bibledit:_ZN8database6config5bible15set_page_heightERKNSt7__cxx1112basic_stringIcSt11char_traitsIcESaIcEEES9_
bibledit:_ZN8database6config5bible16get_inner_marginERKNSt7__cxx1112basic_stringIcSt11char_traitsIcESaIcEEE
bibledit:_ZN8database6config5bible16get_outer_marginERKNSt7__cxx1112basic_stringIcSt11char_traitsIcESaIcEEE
bibledit:_ZN8database6config5bible16set_inner_marginERKNSt7__cxx1112basic_stringIcSt11char_traitsIcESaIcEEES9_
bibledit:_ZN8database6config5bible16set_outer_marginERKNSt7__cxx1112basic_stringIcSt11char_traitsIcESaIcEEES9_
bibledit:_ZN8database6config5bible17get_bottom_marginERKNSt7__cxx1112basic_stringIcSt11char_traitsIcESaIcEEE
bibledit:_ZN8database6config5bible17get_read_from_gitERKNSt7__cxx1112basic_stringIcSt11char_traitsIcESaIcEEE
bibledit:_ZN8database6config5bible17set_bottom_marginERKNSt7__cxx1112basic_stringIcSt11char_traitsIcESaIcEEES9_
bibledit:_ZN8database6config5bible17set_read_from_gitERKNSt7__cxx1112basic_stringIcSt11char_traitsIcESaIcEEEb
bibledit:_ZN8database6config5bible18get_check_patternsERKNSt7__cxx1112basic_stringIcSt11char_traitsIcESaIcEEE
bibledit:_ZN8database6config5bible18get_date_in_headerERKNSt7__cxx1112basic_stringIcSt11char_traitsIcESaIcEEE
bibledit:_ZN8database6config5bible18get_letter_spacingERKNSt7__cxx1112basic_stringIcSt11char_traitsIcESaIcEEE
bibledit:_ZN8database6config5bible18get_matching_pairsERKNSt7__cxx1112basic_stringIcSt11char_traitsIcESaIcEEE
bibledit:_ZN8database6config5bible18get_text_directionERKNSt7__cxx1112basic_stringIcSt11char_traitsIcESaIcEEE
bibledit:_ZN8database6config5bible18set_check_patternsERKNSt7__cxx1112basic_stringIcSt11char_traitsIcESaIcEEEb
bibledit:_ZN8database6config5bible18set_date_in_headerERKNSt7__cxx1112basic_stringIcSt11char_traitsIcESaIcEEEb
bibledit:_ZN8database6config5bible18set_letter_spacingERKNSt7__cxx1112basic_stringIcSt11char_traitsIcESaIcEEEi
bibledit:_ZN8database6config5bible18set_matching_pairsERKNSt7__cxx1112basic_stringIcSt11char_traitsIcESaIcEEES9_
bibledit:_ZN8database6config5bible18set_text_directionERKNSt7__cxx1112basic_stringIcSt11char_traitsIcESaIcEEEi
bibledit:_ZN8database6config5bible19get_export_passwordERKNSt7__cxx1112basic_stringIcSt11char_traitsIcESaIcEEE
bibledit:_ZN8database6config5bible19set_export_passwordERKNSt7__cxx1112basic_stringIcSt11char_traitsIcESaIcEEES9_
bibledit:_ZN8database6config5bible20get_paratext_projectERKNSt7__cxx1112basic_stringIcSt11char_traitsIcESaIcEEE
bibledit:_ZN8database6config5bible20get_text_font_clientERKNSt7__cxx1112basic_stringIcSt11char_traitsIcESaIcEEE
bibledit:_ZN8database6config5bible20set_paratext_projectERKNSt7__cxx1112basic_stringIcSt11char_traitsIcESaIcEEES9_
bibledit:_ZN8database6config5bible20set_text_font_clientERKNSt7__cxx1112basic_stringIcSt11char_traitsIcESaIcEEES9_
bibledit:_ZN8database6config5bible21get_checking_patternsERKNSt7__cxx1112basic_stringIcSt11char_traitsIcESaIcEEE
bibledit:_ZN8database6config5bible21get_editor_stylesheetERKNSt7__cxx1112basic_stringIcSt11char_traitsIcESaIcEEE
bibledit:_ZN8database6config5bible21get_export_stylesheetERKNSt7__cxx1112basic_stringIcSt11char_traitsIcESaIcEEE
bibledit:_ZN8database6config5bible21get_secure_odt_exportERKNSt7__cxx1112basic_stringIcSt11char_traitsIcESaIcEEE
bibledit:_ZN8database6config5bible21set_checking_patternsERKNSt7__cxx1112basic_stringIcSt11char_traitsIcESaIcEEES9_
bibledit:_ZN8database6config5bible21set_editor_stylesheetERKNSt7__cxx1112basic_stringIcSt11char_traitsIcESaIcEEES9_
bibledit:_ZN8database6config5bible21set_export_stylesheetERKNSt7__cxx1112basic_stringIcSt11char_traitsIcESaIcEEES9_
bibledit:_ZN8database6config5bible21set_secure_odt_exportERKNSt7__cxx1112basic_stringIcSt11char_traitsIcESaIcEEEb
bibledit:_ZN8database6config5bible22get_secure_usfm_exportERKNSt7__cxx1112basic_stringIcSt11char_traitsIcESaIcEEE
bibledit:_ZN8database6config5bible22set_secure_usfm_exportERKNSt7__cxx1112basic_stringIcSt11char_traitsIcESaIcEEEb
bibledit:_ZN8database6config5bible23get_repeat_send_receiveERKNSt7__cxx1112basic_stringIcSt11char_traitsIcESaIcEEE
bibledit:_ZN8database6config5bible23get_send_changes_to_rssERKNSt7__cxx1112basic_stringIcSt11char_traitsIcESaIcEEE
bibledit:_ZN8database6config5bible23set_repeat_send_receiveERKNSt7__cxx1112basic_stringIcSt11char_traitsIcESaIcEEEi
bibledit:_ZN8database6config5bible23set_send_changes_to_rssERKNSt7__cxx1112basic_stringIcSt11char_traitsIcESaIcEEEb
bibledit:_ZN8database6config5bible24get_check_matching_pairsERKNSt7__cxx1112basic_stringIcSt11char_traitsIcESaIcEEE
bibledit:_ZN8database6config5bible24get_daily_checks_enabledERKNSt7__cxx1112basic_stringIcSt11char_traitsIcESaIcEEE
bibledit:_ZN8database6config5bible24get_versification_systemERKNSt7__cxx1112basic_stringIcSt11char_traitsIcESaIcEEE
bibledit:_ZN8database6config5bible24set_check_matching_pairsERKNSt7__cxx1112basic_stringIcSt11char_traitsIcESaIcEEEb
bibledit:_ZN8database6config5bible24set_daily_checks_enabledERKNSt7__cxx1112basic_stringIcSt11char_traitsIcESaIcEEEb
bibledit:_ZN8database6config5bible24set_versification_systemERKNSt7__cxx1112basic_stringIcSt11char_traitsIcESaIcEEES9_
bibledit:_ZN8database6config5bible25get_check_space_end_verseERKNSt7__cxx1112basic_stringIcSt11char_traitsIcESaIcEEE
bibledit:_ZN8database6config5bible25get_check_valid_utf8_textERKNSt7__cxx1112basic_stringIcSt11char_traitsIcESaIcEEE
bibledit:_ZN8database6config5bible25get_export_feedback_emailERKNSt7__cxx1112basic_stringIcSt11char_traitsIcESaIcEEE
bibledit:_ZN8database6config5bible25get_odt_space_after_verseERKNSt7__cxx1112basic_stringIcSt11char_traitsIcESaIcEEE
bibledit:_ZN8database6config5bible25get_remote_repository_urlERKNSt7__cxx1112basic_stringIcSt11char_traitsIcESaIcEEE
bibledit:_ZN8database6config5bible25set_check_space_end_verseERKNSt7__cxx1112basic_stringIcSt11char_traitsIcESaIcEEEb
bibledit:_ZN8database6config5bible25set_check_valid_utf8_textERKNSt7__cxx1112basic_stringIcSt11char_traitsIcESaIcEEEb
bibledit:_ZN8database6config5bible25set_export_feedback_emailERKNSt7__cxx1112basic_stringIcSt11char_traitsIcESaIcEEES9_
bibledit:_ZN8database6config5bible25set_odt_space_after_verseERKNSt7__cxx1112basic_stringIcSt11char_traitsIcESaIcEEES9_
bibledit:_ZN8database6config5bible25set_remote_repository_urlERKNSt7__cxx1112basic_stringIcSt11char_traitsIcESaIcEEES9_
bibledit:_ZN8database6config5bible26get_check_well_formed_usfmERKNSt7__cxx1112basic_stringIcSt11char_traitsIcESaIcEEE
bibledit:_ZN8database6config5bible26get_odt_poetry_verses_leftERKNSt7__cxx1112basic_stringIcSt11char_traitsIcESaIcEEE
bibledit:_ZN8database6config5bible26set_check_well_formed_usfmERKNSt7__cxx1112basic_stringIcSt11char_traitsIcESaIcEEEb
bibledit:_ZN8database6config5bible26set_odt_poetry_verses_leftERKNSt7__cxx1112basic_stringIcSt11char_traitsIcESaIcEEEb
bibledit:_ZN8database6config5bible27get_export_hml_during_nightERKNSt7__cxx1112basic_stringIcSt11char_traitsIcESaIcEEE
bibledit:_ZN8database6config5bible27get_export_odt_during_nightERKNSt7__cxx1112basic_stringIcSt11char_traitsIcESaIcEEE
bibledit:_ZN8database6config5bible27get_export_web_during_nightERKNSt7__cxx1112basic_stringIcSt11char_traitsIcESaIcEEE
bibledit:_ZN8database6config5bible27get_public_feedback_enabledERKNSt7__cxx1112basic_stringIcSt11char_traitsIcESaIcEEE
bibledit:_ZN8database6config5bible27set_export_hml_during_nightERKNSt7__cxx1112basic_stringIcSt11char_traitsIcESaIcEEEb
bibledit:_ZN8database6config5bible27set_export_odt_during_nightERKNSt7__cxx1112basic_stringIcSt11char_traitsIcESaIcEEEb
bibledit:_ZN8database6config5bible27set_export_web_during_nightERKNSt7__cxx1112basic_stringIcSt11char_traitsIcESaIcEEEb
bibledit:_ZN8database6config5bible27set_public_feedback_enabledERKNSt7__cxx1112basic_stringIcSt11char_traitsIcESaIcEEEb
bibledit:_ZN8database6config5bible28get_check_double_spaces_usfmERKNSt7__cxx1112basic_stringIcSt11char_traitsIcESaIcEEE
bibledit:_ZN8database6config5bible28get_check_french_punctuationERKNSt7__cxx1112basic_stringIcSt11char_traitsIcESaIcEEE
bibledit:_ZN8database6config5bible28get_check_sentence_structureERKNSt7__cxx1112basic_stringIcSt11char_traitsIcESaIcEEE
bibledit:_ZN8database6config5bible28get_export_text_during_nightERKNSt7__cxx1112basic_stringIcSt11char_traitsIcESaIcEEE
bibledit:_ZN8database6config5bible28get_export_usfm_during_nightERKNSt7__cxx1112basic_stringIcSt11char_traitsIcESaIcEEE
bibledit:_ZN8database6config5bible28get_sentence_structure_namesERKNSt7__cxx1112basic_stringIcSt11char_traitsIcESaIcEEE
bibledit:_ZN8database6config5bible28set_check_double_spaces_usfmERKNSt7__cxx1112basic_stringIcSt11char_traitsIcESaIcEEEb
bibledit:_ZN8database6config5bible28set_check_french_punctuationERKNSt7__cxx1112basic_stringIcSt11char_traitsIcESaIcEEEb
bibledit:_ZN8database6config5bible28set_check_sentence_structureERKNSt7__cxx1112basic_stringIcSt11char_traitsIcESaIcEEEb
bibledit:_ZN8database6config5bible28set_export_text_during_nightERKNSt7__cxx1112basic_stringIcSt11char_traitsIcESaIcEEEb
bibledit:_ZN8database6config5bible28set_export_usfm_during_nightERKNSt7__cxx1112basic_stringIcSt11char_traitsIcESaIcEEEb
bibledit:_ZN8database6config5bible28set_sentence_structure_namesERKNSt7__cxx1112basic_stringIcSt11char_traitsIcESaIcEEES9_
bibledit:_ZN8database6config5bible29get_check_books_versificationERKNSt7__cxx1112basic_stringIcSt11char_traitsIcESaIcEEE
bibledit:_ZN8database6config5bible29get_check_paragraph_structureERKNSt7__cxx1112basic_stringIcSt11char_traitsIcESaIcEEE
bibledit:_ZN8database6config5bible29get_odt_automatic_note_callerERKNSt7__cxx1112basic_stringIcSt11char_traitsIcESaIcEEE
bibledit:_ZN8database6config5bible29set_check_books_versificationERKNSt7__cxx1112basic_stringIcSt11char_traitsIcESaIcEEEb
bibledit:_ZN8database6config5bible29set_check_paragraph_structureERKNSt7__cxx1112basic_stringIcSt11char_traitsIcESaIcEEEb
bibledit:_ZN8database6config5bible29set_odt_automatic_note_callerERKNSt7__cxx1112basic_stringIcSt11char_traitsIcESaIcEEEb
bibledit:_ZN8database6config5bible30get_export_html_notes_on_hoverERKNSt7__cxx1112basic_stringIcSt11char_traitsIcESaIcEEE
bibledit:_ZN8database6config5bible30get_generate_info_during_nightERKNSt7__cxx1112basic_stringIcSt11char_traitsIcESaIcEEE
bibledit:_ZN8database6config5bible30get_transpose_fix_spaces_notesERKNSt7__cxx1112basic_stringIcSt11char_traitsIcESaIcEEE
bibledit:_ZN8database6config5bible30set_export_html_notes_on_hoverERKNSt7__cxx1112basic_stringIcSt11char_traitsIcESaIcEEEb
bibledit:_ZN8database6config5bible30set_generate_info_during_nightERKNSt7__cxx1112basic_stringIcSt11char_traitsIcESaIcEEEb
bibledit:_ZN8database6config5bible30set_transpose_fix_spaces_notesERKNSt7__cxx1112basic_stringIcSt11char_traitsIcESaIcEEEb
bibledit:_ZN8database6config5bible31get_check_french_citation_styleERKNSt7__cxx1112basic_stringIcSt11char_traitsIcESaIcEEE
bibledit:_ZN8database6config5bible31get_check_full_stop_in_headingsERKNSt7__cxx1112basic_stringIcSt11char_traitsIcESaIcEEE
bibledit:_ZN8database6config5bible31get_export_e_sword_during_nightERKNSt7__cxx1112basic_stringIcSt11char_traitsIcESaIcEEE
bibledit:_ZN8database6config5bible31get_sentence_structure_capitalsERKNSt7__cxx1112basic_stringIcSt11char_traitsIcESaIcEEE
bibledit:_ZN8database6config5bible31set_check_french_citation_styleERKNSt7__cxx1112basic_stringIcSt11char_traitsIcESaIcEEEb
bibledit:_ZN8database6config5bible31set_check_full_stop_in_headingsERKNSt7__cxx1112basic_stringIcSt11char_traitsIcESaIcEEEb
bibledit:_ZN8database6config5bible31set_export_e_sword_during_nightERKNSt7__cxx1112basic_stringIcSt11char_traitsIcESaIcEEEb
bibledit:_ZN8database6config5bible31set_sentence_structure_capitalsERKNSt7__cxx1112basic_stringIcSt11char_traitsIcESaIcEEES9_
bibledit:_ZN8database6config5bible33get_sentence_structure_disregardsERKNSt7__cxx1112basic_stringIcSt11char_traitsIcESaIcEEE
bibledit:_ZN8database6config5bible33set_sentence_structure_disregardsERKNSt7__cxx1112basic_stringIcSt11char_traitsIcESaIcEEES9_
bibledit:_ZN8database6config5bible34get_check_space_before_punctuationERKNSt7__cxx1112basic_stringIcSt11char_traitsIcESaIcEEE
bibledit:_ZN8database6config5bible34get_paratext_collaboration_enabledERKNSt7__cxx1112basic_stringIcSt11char_traitsIcESaIcEEE
bibledit:_ZN8database6config5bible34set_check_space_before_punctuationERKNSt7__cxx1112basic_stringIcSt11char_traitsIcESaIcEEEb
bibledit:_ZN8database6config5bible34set_paratext_collaboration_enabledERKNSt7__cxx1112basic_stringIcSt11char_traitsIcESaIcEEEb
bibledit:_ZN8database6config5bible35get_export_chapter_drop_caps_framesERKNSt7__cxx1112basic_stringIcSt11char_traitsIcESaIcEEE
bibledit:_ZN8database6config5bible35set_export_chapter_drop_caps_framesERKNSt7__cxx1112basic_stringIcSt11char_traitsIcESaIcEEEb
bibledit:_ZN8database6config5bible36get_export_online_bible_during_nightERKNSt7__cxx1112basic_stringIcSt11char_traitsIcESaIcEEE
bibledit:_ZN8database6config5bible36get_sentence_structure_small_lettersERKNSt7__cxx1112basic_stringIcSt11char_traitsIcESaIcEEE
bibledit:_ZN8database6config5bible36set_export_online_bible_during_nightERKNSt7__cxx1112basic_stringIcSt11char_traitsIcESaIcEEEb
bibledit:_ZN8database6config5bible36set_sentence_structure_small_lettersERKNSt7__cxx1112basic_stringIcSt11char_traitsIcESaIcEEES9_
bibledit:_ZN8database6config5bible37get_sprint_task_completion_categoriesERKNSt7__cxx1112basic_stringIcSt11char_traitsIcESaIcEEE
bibledit:_ZN8database6config5bible37set_sprint_task_completion_categoriesERKNSt7__cxx1112basic_stringIcSt11char_traitsIcESaIcEEES9_
bibledit:_ZN8database6config5bible38get_check_chaptes_verses_versificationERKNSt7__cxx1112basic_stringIcSt11char_traitsIcESaIcEEE
bibledit:_ZN8database6config5bible38get_sentence_structure_end_punctuationERKNSt7__cxx1112basic_stringIcSt11char_traitsIcESaIcEEE
bibledit:_ZN8database6config5bible38set_check_chaptes_verses_versificationERKNSt7__cxx1112basic_stringIcSt11char_traitsIcESaIcEEEb
bibledit:_ZN8database6config5bible38set_sentence_structure_end_punctuationERKNSt7__cxx1112basic_stringIcSt11char_traitsIcESaIcEEES9_
bibledit:_ZN8database6config5bible39get_check_missing_punctuation_end_verseERKNSt7__cxx1112basic_stringIcSt11char_traitsIcESaIcEEE
bibledit:_ZN8database6config5bible39set_check_missing_punctuation_end_verseERKNSt7__cxx1112basic_stringIcSt11char_traitsIcESaIcEEEb
bibledit:_ZN8database6config5bible40get_check_space_before_final_note_markerERKNSt7__cxx1112basic_stringIcSt11char_traitsIcESaIcEEE
bibledit:_ZN8database6config5bible40set_check_space_before_final_note_markerERKNSt7__cxx1112basic_stringIcSt11char_traitsIcESaIcEEEb
bibledit:_ZN8database6config5bible41get_sentence_structure_middle_punctuationERKNSt7__cxx1112basic_stringIcSt11char_traitsIcESaIcEEE
bibledit:_ZN8database6config5bible41set_sentence_structure_middle_punctuationERKNSt7__cxx1112basic_stringIcSt11char_traitsIcESaIcEEES9_
bibledit:_ZN8database6config5bible46get_sentence_structure_within_sentence_markersERKNSt7__cxx1112basic_stringIcSt11char_traitsIcESaIcEEE
bibledit:_ZN8database6config5bible46set_sentence_structure_within_sentence_markersERKNSt7__cxx1112basic_stringIcSt11char_traitsIcESaIcEEES9_
bibledit:_ZN8database6config5bible6removeERKNSt7__cxx1112basic_stringIcSt11char_traitsIcESaIcEEE
bibledit:_ZN8database6config5bible9get_valueERKNSt7__cxx1112basic_stringIcSt11char_traitsIcESaIcEEEPKcSB_
bibledit:_ZN8database6config7general12get_site_urlB5cxx11Ev
bibledit:_ZN8database6config7general12get_sync_keyB5cxx11Ev
bibledit:_ZN8database6config7general12get_timezoneEv
bibledit:_ZN8database6config7general12set_site_urlERKNSt7__cxx1112basic_stringIcSt11char_traitsIcESaIcEEE
bibledit:_ZN8database6config7general12set_sync_keyERKNSt7__cxx1112basic_stringIcSt11char_traitsIcESaIcEEE
bibledit:_ZN8database6config7general12set_timezoneEi
bibledit:_ZN8database6config7general13getIndexNotesEv
bibledit:_ZN8database6config7general13setIndexNotesEb
bibledit:_ZN8database6config7general14getJustStartedEv
bibledit:_ZN8database6config7general14setJustStartedEb
bibledit:_ZN8database6config7general15get_client_modeEv
bibledit:_ZN8database6config7general15get_server_portEv
bibledit:_ZN8database6config7general15set_client_modeEb
bibledit:_ZN8database6config7general15set_server_portEi
bibledit:_ZN8database6config7general16get_index_biblesEv
bibledit:_ZN8database6config7general16get_timer_minuteB5cxx11Ev
bibledit:_ZN8database6config7general16set_index_biblesEb
bibledit:_ZN8database6config7general16set_timer_minuteERKNSt7__cxx1112basic_stringIcSt11char_traitsIcESaIcEEE
bibledit:_ZN8database6config7general17get_site_languageB5cxx11Ev
bibledit:_ZN8database6config7general17set_site_languageERKNSt7__cxx1112basic_stringIcSt11char_traitsIcESaIcEEE
bibledit:_ZN8database6config7general18get_mail_send_hostB5cxx11Ev
bibledit:_ZN8database6config7general18get_mail_send_portB5cxx11Ev
bibledit:_ZN8database6config7general18get_server_addressB5cxx11Ev
bibledit:_ZN8database6config7general18get_site_mail_nameB5cxx11Ev
bibledit:_ZN8database6config7general18set_mail_send_hostERKNSt7__cxx1112basic_stringIcSt11char_traitsIcESaIcEEE
bibledit:_ZN8database6config7general18set_mail_send_portERKNSt7__cxx1112basic_stringIcSt11char_traitsIcESaIcEEE
bibledit:_ZN8database6config7general18set_server_addressERKNSt7__cxx1112basic_stringIcSt11char_traitsIcESaIcEEE
bibledit:_ZN8database6config7general18set_site_mail_nameERKNSt7__cxx1112basic_stringIcSt11char_traitsIcESaIcEEE
bibledit:_ZN8database6config7general19get_last_menu_clickB5cxx11Ev
bibledit:_ZN8database6config7general19set_last_menu_clickERKNSt7__cxx1112basic_stringIcSt11char_traitsIcESaIcEEE
bibledit:_ZN8database6config7general21get_last_send_receiveEv
bibledit:_ZN8database6config7general21get_mail_storage_hostB5cxx11Ev
bibledit:_ZN8database6config7general21get_mail_storage_portB5cxx11Ev
bibledit:_ZN8database6config7general21get_site_mail_addressB5cxx11Ev
bibledit:_ZN8database6config7general21set_last_send_receiveEi
bibledit:_ZN8database6config7general21set_mail_storage_hostERKNSt7__cxx1112basic_stringIcSt11char_traitsIcESaIcEEE
bibledit:_ZN8database6config7general21set_mail_storage_portERKNSt7__cxx1112basic_stringIcSt11char_traitsIcESaIcEEE
bibledit:_ZN8database6config7general21set_site_mail_addressERKNSt7__cxx1112basic_stringIcSt11char_traitsIcESaIcEEE
bibledit:_ZN8database6config7general22get_author_in_rss_feedEv
bibledit:_ZN8database6config7general22get_mail_send_passwordB5cxx11Ev
bibledit:_ZN8database6config7general22get_mail_send_usernameB5cxx11Ev
bibledit:_ZN8database6config7general22get_resources_to_cacheB5cxx11Ev
bibledit:_ZN8database6config7general22set_mail_send_passwordERKNSt7__cxx1112basic_stringIcSt11char_traitsIcESaIcEEE
bibledit:_ZN8database6config7general22set_mail_send_usernameERKNSt7__cxx1112basic_stringIcSt11char_traitsIcESaIcEEE
bibledit:_ZN8database6config7general22set_resources_to_cacheERKSt6vectorINSt7__cxx1112basic_stringIcSt11char_traitsIcESaIcEEESaIS8_EE
bibledit:_ZN8database6config7general22set_uuthor_in_rss_feedEb
bibledit:_ZN8database6config7general23get_repeat_send_receiveEv
bibledit:_ZN8database6config7general23set_repeat_send_receiveEi
bibledit:_ZN8database6config7general24get_translated_resourcesB5cxx11Ev
bibledit:_ZN8database6config7general24set_translated_resourcesERKSt6vectorINSt7__cxx1112basic_stringIcSt11char_traitsIcESaIcEEESaIS8_EE
bibledit:_ZN8database6config7general25get_comparative_resourcesB5cxx11Ev
bibledit:_ZN8database6config7general25get_mail_storage_passwordB5cxx11Ev
bibledit:_ZN8database6config7general25get_mail_storage_protocolB5cxx11Ev
bibledit:_ZN8database6config7general25get_mail_storage_usernameB5cxx11Ev
bibledit:_ZN8database6config7general25get_notes_verse_separatorB5cxx11Ev
bibledit:_ZN8database6config7general25set_comparative_resourcesERKSt6vectorINSt7__cxx1112basic_stringIcSt11char_traitsIcESaIcEEESaIS8_EE
bibledit:_ZN8database6config7general25set_mail_storage_passwordERKNSt7__cxx1112basic_stringIcSt11char_traitsIcESaIcEEE
bibledit:_ZN8database6config7general25set_mail_storage_protocolERKNSt7__cxx1112basic_stringIcSt11char_traitsIcESaIcEEE
bibledit:_ZN8database6config7general25set_mail_storage_usernameERKNSt7__cxx1112basic_stringIcSt11char_traitsIcESaIcEEE
bibledit:_ZN8database6config7general25set_notes_verse_separatorERKNSt7__cxx1112basic_stringIcSt11char_traitsIcESaIcEEE
bibledit:_ZN8database6config7general26get_account_creation_timesB5cxx11Ev
bibledit:_ZN8database6config7general26get_menu_in_tabbed_view_onEv
bibledit:_ZN8database6config7general26get_unsent_bible_data_timeEv
bibledit:_ZN8database6config7general26set_account_creation_timesERKSt6vectorINSt7__cxx1112basic_stringIcSt11char_traitsIcESaIcEEESaIS8_EE
bibledit:_ZN8database6config7general26set_menu_in_tabbed_view_onEb
bibledit:_ZN8database6config7general26set_unsent_bible_data_timeEi
bibledit:_ZN8database6config7general27getInstalledDatabaseVersionB5cxx11Ev
bibledit:_ZN8database6config7general27get_just_connected_to_cloudEv
bibledit:_ZN8database6config7general27setInstalledDatabaseVersionERKNSt7__cxx1112basic_stringIcSt11char_traitsIcESaIcEEE
bibledit:_ZN8database6config7general27set_just_connected_to_cloudEb
bibledit:_ZN8database6config7general28get_default_active_resourcesB5cxx11Ev
bibledit:_ZN8database6config7general28get_menu_in_tabbed_view_jsonB5cxx11Ev
bibledit:_ZN8database6config7general28get_paratext_projects_folderB5cxx11Ev
bibledit:_ZN8database6config7general28set_default_active_resourcesERKSt6vectorINSt7__cxx1112basic_stringIcSt11char_traitsIcESaIcEEESaIS8_EE
bibledit:_ZN8database6config7general28set_menu_in_tabbed_view_jsonERKNSt7__cxx1112basic_stringIcSt11char_traitsIcESaIcEEE
bibledit:_ZN8database6config7general28set_paratext_projects_folderERKNSt7__cxx1112basic_stringIcSt11char_traitsIcESaIcEEE
bibledit:_ZN8database6config7general29database_config_general_cacheB5cxx11E
bibledit:_ZN8database6config7general30get_unreceived_bible_data_timeEv
bibledit:_ZN8database6config7general30set_unreceived_bible_data_timeEi
bibledit:_ZN8database6config7general31get_installed_interface_versionB5cxx11Ev
bibledit:_ZN8database6config7general31set_installed_interface_versionERKNSt7__cxx1112basic_stringIcSt11char_traitsIcESaIcEEE
bibledit:_ZN8database6config7general33get_default_new_user_access_levelEv
bibledit:_ZN8database6config7general33get_keep_resources_cache_for_longEv
bibledit:_ZN8database6config7general33set_default_new_user_access_levelEi
bibledit:_ZN8database6config7general33set_keep_resources_cache_for_longEb
bibledit:_ZN8database6config7general37get_disable_selection_popup_chrome_osEv
bibledit:_ZN8database6config7general37set_disable_selection_popup_chrome_osEb
bibledit:_ZN8database6config7general40get_keep_osis_content_in_sword_resourcesEv
bibledit:_ZN8database6config7general40set_keep_osis_content_in_sword_resourcesEb
bibledit:_ZN8database6etcbc411clause_typeB5cxx11Ei
bibledit:_ZN8database6etcbc411phrase_typeB5cxx11Ei
bibledit:_ZN8database6etcbc415clause_relationB5cxx11Ei
bibledit:_ZN8database6etcbc415phrase_functionB5cxx11Ei
bibledit:_ZN8database6etcbc415phrase_relationB5cxx11Ei
bibledit:_ZN8database6etcbc416clause_text_typeB5cxx11Ei
bibledit:_ZN8database6etcbc416vocalized_lexemeB5cxx11Ei
bibledit:_ZN8database6etcbc417phrase_a_relationB5cxx11Ei
bibledit:_ZN8database6etcbc418consonantal_lexemeB5cxx11Ei
bibledit:_ZN8database6etcbc43posB5cxx11Ei
bibledit:_ZN8database6etcbc43rawB5cxx11Eiii
bibledit:_ZN8database6etcbc44stemB5cxx11Ei
bibledit:_ZN8database6etcbc44wordB5cxx11Ei
bibledit:_ZN8database6etcbc45booksEv
bibledit:_ZN8database6etcbc45glossB5cxx11Ei
bibledit:_ZN8database6etcbc45stateB5cxx11Ei
bibledit:_ZN8database6etcbc45storeEiiiNSt7__cxx1112basic_stringIcSt11char_traitsIcESaIcEEES6_S6_S6_S6_S6_S6_S6_S6_S6_S6_S6_S6_S6_S6_S6_S6_S6_S6_
bibledit:_ZN8database6etcbc45storeEiiiRKNSt7__cxx1112basic_stringIcSt11char_traitsIcESaIcEEE
bibledit:_ZN8database6etcbc45tenseB5cxx11Ei
bibledit:_ZN8database6etcbc46createEv
bibledit:_ZN8database6etcbc46genderB5cxx11Ei
bibledit:_ZN8database6etcbc46numberB5cxx11Ei
bibledit:_ZN8database6etcbc46personB5cxx11Ei
bibledit:_ZN8database6etcbc46rowidsEiii
bibledit:_ZN8database6etcbc46subposB5cxx11Ei
bibledit:_ZN8database6etcbc46versesEii
bibledit:_ZN8database6etcbc48chaptersEi
bibledit:_ZN8database6sqlite10disconnectEP7sqlite3
bibledit:_ZN8database6sqlite12connect_fileERKNSt7__cxx1112basic_stringIcSt11char_traitsIcESaIcEEE
bibledit:_ZN8database6sqlite16no_sql_injectionERKNSt7__cxx1112basic_stringIcSt11char_traitsIcESaIcEEE
bibledit:_ZN8database6sqlite4execEP7sqlite3RKNSt7__cxx1112basic_stringIcSt11char_traitsIcESaIcEEE
bibledit:_ZN8database6sqlite5errorEP7sqlite3RKNSt7__cxx1112basic_stringIcSt11char_traitsIcESaIcEEEPc
bibledit:_ZN8database6sqlite5queryEP7sqlite3RKNSt7__cxx1112basic_stringIcSt11char_traitsIcESaIcEEE
bibledit:_ZN8database6sqlite6suffixB5cxx11Ev
bibledit:_ZN8database6sqlite7connectERKNSt7__cxx1112basic_stringIcSt11char_traitsIcESaIcEEE
bibledit:_ZN8database6sqlite7healthyERKNSt7__cxx1112basic_stringIcSt11char_traitsIcESaIcEEE
bibledit:_ZN8database6sqlite8get_fileERKNSt7__cxx1112basic_stringIcSt11char_traitsIcESaIcEEE
bibledit:_ZN8database6styles10add_markerERKNSt7__cxx1112basic_stringIcSt11char_traitsIcESaIcEEES8_S8_
bibledit:_ZN8database6styles10get_sheetsB5cxx11Ev
bibledit:_ZN8database6styles10get_stylesERKNSt7__cxx1112basic_stringIcSt11char_traitsIcESaIcEEE
bibledit:_ZN8database6styles10load_styleERKNSt7__cxx1112basic_stringIcSt11char_traitsIcESaIcEEES8_
bibledit:_ZN8database6styles10save_styleERKNSt7__cxx1112basic_stringIcSt11char_traitsIcESaIcEEERKN8stylesv25StyleE
bibledit:_ZN8database6styles11cache_mutexE
bibledit:_ZN8database6styles11get_markersERKNSt7__cxx1112basic_stringIcSt11char_traitsIcESaIcEEE
bibledit:_ZN8database6styles11sheet_cacheB5cxx11E
bibledit:_ZN8database6styles12create_sheetERKNSt7__cxx1112basic_stringIcSt11char_traitsIcESaIcEEE
bibledit:_ZN8database6styles12delete_sheetERKNSt7__cxx1112basic_stringIcSt11char_traitsIcESaIcEEE
bibledit:_ZN8database6styles12reset_markerERKNSt7__cxx1112basic_stringIcSt11char_traitsIcESaIcEEES8_
bibledit:_ZN8database6styles13delete_markerERKNSt7__cxx1112basic_stringIcSt11char_traitsIcESaIcEEES8_
bibledit:_ZN8database6styles15create_databaseEv
bibledit:_ZN8database6styles15get_marker_dataERKNSt7__cxx1112basic_stringIcSt11char_traitsIcESaIcEEES8_
bibledit:_ZN8database6styles16has_write_accessERKNSt7__cxx1112basic_stringIcSt11char_traitsIcESaIcEEES8_
bibledit:_ZN8database6styles18grant_write_accessERKNSt7__cxx1112basic_stringIcSt11char_traitsIcESaIcEEES8_
bibledit:_ZN8database6styles19revoke_write_accessERKNSt7__cxx1112basic_stringIcSt11char_traitsIcESaIcEEES8_
bibledit:_ZN8database6styles21get_markers_and_namesERKNSt7__cxx1112basic_stringIcSt11char_traitsIcESaIcEEE
bibledit:_ZN8database8temporal9get_valueEiRKNSt7__cxx1112basic_stringIcSt11char_traitsIcESaIcEEE
bibledit:_ZN8database8temporal9set_valueEiRKNSt7__cxx1112basic_stringIcSt11char_traitsIcESaIcEEES8_
bibledit:_ZN8odf_text12new_heading1ENSt7__cxx1112basic_stringIcSt11char_traitsIcESaIcEEEb
bibledit:_ZN8odf_text13add_note_textENSt7__cxx1112basic_stringIcSt11char_traitsIcESaIcEEE
bibledit:_ZN8odf_text13new_paragraphENSt7__cxx1112basic_stringIcSt11char_traitsIcESaIcEEE
bibledit:_ZN8odf_text14new_page_breakEv
bibledit:_ZN8odf_text15open_text_styleEPKN8stylesv25StyleEbb
bibledit:_ZN8odf_text16close_text_styleEbb
bibledit:_ZN8odf_text17new_named_headingENSt7__cxx1112basic_stringIcSt11char_traitsIcESaIcEEES5_b
bibledit:_ZN8odf_text18close_current_noteEv
bibledit:_ZN8odf_text18convert_style_nameENSt7__cxx1112basic_stringIcSt11char_traitsIcESaIcEEE
bibledit:_ZN8odf_text19place_text_in_frameERKNSt7__cxx1112basic_stringIcSt11char_traitsIcESaIcEEES7_fN8stylesv28TwoStateES9_
bibledit:_ZN8odf_text21initialize_styles_xmlEv
bibledit:_ZN8odf_text22create_paragraph_styleERKNSt7__cxx1112basic_stringIcSt11char_traitsIcESaIcEEES5_fN8stylesv28TwoStateES9_S9_S9_NS8_13TextAlignmentEfffffbi
bibledit:_ZN8odf_text22initialize_content_xmlEv
bibledit:_ZN8odf_text23create_page_break_styleEv
bibledit:_ZN8odf_text24create_superscript_styleEv
bibledit:_ZN8odf_text30update_current_paragraph_styleENSt7__cxx1112basic_stringIcSt11char_traitsIcESaIcEEE
bibledit:_ZN8odf_text4saveENSt7__cxx1112basic_stringIcSt11char_traitsIcESaIcEEE
bibledit:_ZN8odf_text7add_tabEv
bibledit:_ZN8odf_text8add_noteENSt7__cxx1112basic_stringIcSt11char_traitsIcESaIcEEES5_b
bibledit:_ZN8odf_text8add_textENSt7__cxx1112basic_stringIcSt11char_traitsIcESaIcEEE
bibledit:_ZN8odf_text9add_imageENSt7__cxx1112basic_stringIcSt11char_traitsIcESaIcEEES5_S5_S5_
bibledit:_ZN8odf_textC1ENSt7__cxx1112basic_stringIcSt11char_traitsIcESaIcEEE
bibledit:_ZN8odf_textC2ENSt7__cxx1112basic_stringIcSt11char_traitsIcESaIcEEE
bibledit:_ZN8odf_textD1Ev
bibledit:_ZN8odf_textD2Ev
bibledit:_ZN8stylesv212has_propertyEPKNS_5StyleENS_8PropertyE
bibledit:_ZN8stylesv214get_two_statesB5cxx11Ev
bibledit:_ZN8stylesv214standard_sheetB5cxx11Ev
bibledit:_ZN8stylesv215get_four_statesB5cxx11Ev
bibledit:_ZN8stylesv218type_enum_to_valueB5cxx11ENS_4TypeEb
bibledit:_ZN8stylesv218type_value_to_enumERKNSt7__cxx1112basic_stringIcSt11char_traitsIcESaIcEEE
bibledit:_ZN8stylesv219get_text_alignmentsB5cxx11Ev
bibledit:_ZN8stylesv219property_to_variantENS_8PropertyE
bibledit:_ZN8stylesv219validate_notes_dumpERKNSt7__cxx1112basic_stringIcSt11char_traitsIcESaIcEEE
bibledit:_ZN8stylesv222category_value_to_enumERKNSt7__cxx1112basic_stringIcSt11char_traitsIcESaIcEEE
bibledit:_ZN8stylesv222property_enum_to_valueB5cxx11ENS_8PropertyE
bibledit:_ZN8stylesv222property_value_to_enumERKNSt7__cxx1112basic_stringIcSt11char_traitsIcESaIcEEE
bibledit:_ZN8stylesv222twostate_enum_to_valueB5cxx11ENS_8TwoStateE
bibledit:_ZN8stylesv222twostate_value_to_enumERKNSt7__cxx1112basic_stringIcSt11char_traitsIcESaIcEEE
bibledit:_ZN8stylesv223fourstate_enum_to_valueB5cxx11ENS_9FourStateE
bibledit:_ZN8stylesv223fourstate_value_to_enumERKNSt7__cxx1112basic_stringIcSt11char_traitsIcESaIcEEE
bibledit:_ZN8stylesv223starts_new_line_in_usfmEPKNS_5StyleE
bibledit:_ZN8stylesv227textalignment_enum_to_valueB5cxx11ENS_13TextAlignmentE
bibledit:_ZN8stylesv227textalignment_value_to_enumERKNSt7__cxx1112basic_stringIcSt11char_traitsIcESaIcEEE
bibledit:_ZN8stylesv26stylesB5cxx11E
bibledit:_ZN8stylesv2lsERSoNS_8CategoryE
bibledit:_ZN8stylesv2lsERSoNS_9CharacterE
bibledit:_ZN8stylesv2lsERSoNS_9ParagraphE
bibledit:_ZN8stylesv2lsERSoRKNS_5StyleE
bibledit:_ZN8stylesv2lsERSoRKSt7variantIJSt9monostatebiNSt7__cxx1112basic_stringIcSt11char_traitsIcESaIcEEEEE
bibledit:_ZN9Ipc_Focus10getChapterER17Webserver_Request
bibledit:_ZN9Ipc_Focus3setER17Webserver_Requestiii
bibledit:_ZN9Ipc_Focus7getBookER17Webserver_Request
bibledit:_ZN9Ipc_Focus8getVerseER17Webserver_Request
bibledit:_ZN9Ipc_Notes3getER17Webserver_Request
bibledit:_ZN9Ipc_Notes4openER17Webserver_Requesti
bibledit:_ZN9Ipc_Notes5aliveER17Webserver_Requestbb
bibledit:_ZN9Ipc_Notes5eraseER17Webserver_Request
bibledit:_ZN9Text_Text11addnotetextENSt7__cxx1112basic_stringIcSt11char_traitsIcESaIcEEE
bibledit:_ZN9Text_Text3getB5cxx11Ev
bibledit:_ZN9Text_Text4lineB5cxx11Ev
bibledit:_ZN9Text_Text4noteENSt7__cxx1112basic_stringIcSt11char_traitsIcESaIcEEE
bibledit:_ZN9Text_Text4saveENSt7__cxx1112basic_stringIcSt11char_traitsIcESaIcEEE
bibledit:_ZN9Text_Text7addtextENSt7__cxx1112basic_stringIcSt11char_traitsIcESaIcEEE
bibledit:_ZN9Text_Text7getnoteB5cxx11Ev
bibledit:_ZN9Text_Text9paragraphENSt7__cxx1112basic_stringIcSt11char_traitsIcESaIcEEE
bibledit:_ZNK13Session_Logic12get_usernameB5cxx11Ev
bibledit:_ZNK14SqliteDatabase7get_sqlB5cxx11Ev
bibledit:_ZNK17Webserver_Request10post_countERKNSt7__cxx1112basic_stringIcSt11char_traitsIcESaIcEEE
bibledit:_ZNK17Webserver_Request8post_getERKNSt7__cxx1112basic_stringIcSt11char_traitsIcESaIcEEE
bibledit:_ZNK20Database_Config_User11clear_cacheEv
bibledit:_ZNK20Database_Config_User12get_sync_keyB5cxx11Ev
bibledit:_ZNK20Database_Config_User12set_sync_keyERKNSt7__cxx1112basic_stringIcSt11char_traitsIcESaIcEEE
bibledit:_ZNK20Database_Config_User15get_sprint_yearEv
bibledit:_ZNK20Database_Config_User15set_sprint_yearEi
bibledit:_ZNK20Database_Config_User16get_focused_bookEv
bibledit:_ZNK20Database_Config_User16get_numeric_listEPKc
bibledit:_ZNK20Database_Config_User16get_sprint_monthEv
bibledit:_ZNK20Database_Config_User16set_focused_bookEi
bibledit:_ZNK20Database_Config_User16set_numeric_listEPKcRKSt6vectorIiSaIiEE
bibledit:_ZNK20Database_Config_User16set_sprint_monthEi
bibledit:_ZNK20Database_Config_User17get_boolean_valueEPKcb
bibledit:_ZNK20Database_Config_User17get_current_themeEv
bibledit:_ZNK20Database_Config_User17get_focused_verseEv
bibledit:_ZNK20Database_Config_User17get_list_for_userERKNSt7__cxx1112basic_stringIcSt11char_traitsIcESaIcEEEPKc
bibledit:_ZNK20Database_Config_User17get_numeric_valueEPKci
bibledit:_ZNK20Database_Config_User17set_boolean_valueEPKcb
bibledit:_ZNK20Database_Config_User17set_current_themeEi
bibledit:_ZNK20Database_Config_User17set_focused_verseEi
bibledit:_ZNK20Database_Config_User17set_list_for_userERKNSt7__cxx1112basic_stringIcSt11char_traitsIcESaIcEEEPKcRKSt6vectorIS5_SaIS5_EE
bibledit:_ZNK20Database_Config_User17set_numeric_valueEPKci
bibledit:_ZNK20Database_Config_User18add_removed_changeEi
bibledit:_ZNK20Database_Config_User18get_menu_font_sizeEv
bibledit:_ZNK20Database_Config_User18get_value_for_userERKNSt7__cxx1112basic_stringIcSt11char_traitsIcESaIcEEEPKcS9_
bibledit:_ZNK20Database_Config_User18get_workspace_urlsB5cxx11Ev
bibledit:_ZNK20Database_Config_User18set_menu_font_sizeEi
bibledit:_ZNK20Database_Config_User18set_value_for_userERKNSt7__cxx1112basic_stringIcSt11char_traitsIcESaIcEEEPKcS7_
bibledit:_ZNK20Database_Config_User18set_workspace_urlsERKNSt7__cxx1112basic_stringIcSt11char_traitsIcESaIcEEE
bibledit:_ZNK20Database_Config_User19add_updated_settingEi
bibledit:_ZNK20Database_Config_User19get_focused_chapterEv
bibledit:_ZNK20Database_Config_User19get_greek_font_sizeEv
bibledit:_ZNK20Database_Config_User19get_removed_changesEv
bibledit:_ZNK20Database_Config_User19set_focused_chapterEi
bibledit:_ZNK20Database_Config_User19set_greek_font_sizeEi
bibledit:_ZNK20Database_Config_User19set_removed_changesERKSt6vectorIiSaIiEE
bibledit:_ZNK20Database_Config_User20get_active_resourcesB5cxx11Ev
bibledit:_ZNK20Database_Config_User20get_active_workspaceB5cxx11Ev
bibledit:_ZNK20Database_Config_User20get_hebrew_font_sizeEv
bibledit:_ZNK20Database_Config_User20get_show_note_statusEv
bibledit:_ZNK20Database_Config_User20get_updated_settingsEv
bibledit:_ZNK20Database_Config_User20get_workspace_widthsB5cxx11Ev
bibledit:_ZNK20Database_Config_User20set_active_resourcesESt6vectorINSt7__cxx1112basic_stringIcSt11char_traitsIcESaIcEEESaIS6_EE
bibledit:_ZNK20Database_Config_User20set_active_workspaceERKNSt7__cxx1112basic_stringIcSt11char_traitsIcESaIcEEE
bibledit:_ZNK20Database_Config_User20set_hebrew_font_sizeEi
bibledit:_ZNK20Database_Config_User20set_show_note_statusEb
bibledit:_ZNK20Database_Config_User20set_updated_settingsERKSt6vectorIiSaIiEE
bibledit:_ZNK20Database_Config_User20set_workspace_widthsERKNSt7__cxx1112basic_stringIcSt11char_traitsIcESaIcEEE
bibledit:_ZNK20Database_Config_User21get_general_font_sizeEv
bibledit:_ZNK20Database_Config_User21get_live_bible_editorEv
bibledit:_ZNK20Database_Config_User21get_notes_date_formatEv
bibledit:_ZNK20Database_Config_User21get_workspace_heightsB5cxx11Ev
bibledit:_ZNK20Database_Config_User21remove_removed_changeEi
bibledit:_ZNK20Database_Config_User21set_general_font_sizeEi
bibledit:_ZNK20Database_Config_User21set_live_bible_editorEi
bibledit:_ZNK20Database_Config_User21set_notes_date_formatEi
bibledit:_ZNK20Database_Config_User21set_workspace_heightsERKNSt7__cxx1112basic_stringIcSt11char_traitsIcESaIcEEE
bibledit:_ZNK20Database_Config_User22get_enable_spell_checkEv
bibledit:_ZNK20Database_Config_User22remove_updated_settingEi
bibledit:_ZNK20Database_Config_User22set_enable_spell_checkEb
bibledit:_ZNK20Database_Config_User23get_display_breadcrumbsEv
bibledit:_ZNK20Database_Config_User23get_resources_font_sizeEv
bibledit:_ZNK20Database_Config_User23set_display_breadcrumbsEb
bibledit:_ZNK20Database_Config_User23set_resources_font_sizeEi
bibledit:_ZNK20Database_Config_User24get_basic_interface_modeEv
bibledit:_ZNK20Database_Config_User24get_quick_note_edit_linkEv
bibledit:_ZNK20Database_Config_User24set_basic_interface_modeEb
bibledit:_ZNK20Database_Config_User24set_quick_note_edit_linkEb
bibledit:_ZNK20Database_Config_User25get_consistency_resourcesB5cxx11Ev
bibledit:_ZNK20Database_Config_User25get_notify_me_of_my_postsEv
bibledit:_ZNK20Database_Config_User25get_resource_verses_afterEv
bibledit:_ZNK20Database_Config_User25set_consistency_resourcesESt6vectorINSt7__cxx1112basic_stringIcSt11char_traitsIcESaIcEEESaIS6_EE
bibledit:_ZNK20Database_Config_User25set_notify_me_of_my_postsEb
bibledit:_ZNK20Database_Config_User25set_resource_verses_afterEi
bibledit:_ZNK20Database_Config_User26get_boolean_value_for_userERKNSt7__cxx1112basic_stringIcSt11char_traitsIcESaIcEEEPKcb
bibledit:_ZNK20Database_Config_User26get_dismiss_changes_at_topEv
bibledit:_ZNK20Database_Config_User26get_numeric_value_for_userERKNSt7__cxx1112basic_stringIcSt11char_traitsIcESaIcEEEPKci
bibledit:_ZNK20Database_Config_User26get_resource_verses_beforeEv
bibledit:_ZNK20Database_Config_User26get_show_navigation_arrowsEv
bibledit:_ZNK20Database_Config_User26set_boolean_value_for_userERKNSt7__cxx1112basic_stringIcSt11char_traitsIcESaIcEEEPKcb
bibledit:_ZNK20Database_Config_User26set_dismiss_changes_at_topEb
bibledit:_ZNK20Database_Config_User26set_resource_verses_beforeEi
bibledit:_ZNK20Database_Config_User26set_show_navigation_arrowsEb
bibledit:_ZNK20Database_Config_User27get_bible_editors_font_sizeEv
bibledit:_ZNK20Database_Config_User27get_entire_workspace_widthsB5cxx11Ev
bibledit:_ZNK20Database_Config_User27get_order_changes_by_authorEv
bibledit:_ZNK20Database_Config_User27get_recently_applied_stylesB5cxx11Ev
bibledit:_ZNK20Database_Config_User27get_swipe_actions_availableEv
bibledit:_ZNK20Database_Config_User27get_vertical_caret_positionEv
bibledit:_ZNK20Database_Config_User27set_bible_editors_font_sizeEi
bibledit:_ZNK20Database_Config_User27set_entire_workspace_widthsERKNSt7__cxx1112basic_stringIcSt11char_traitsIcESaIcEEE
bibledit:_ZNK20Database_Config_User27set_order_changes_by_authorEb
bibledit:_ZNK20Database_Config_User27set_recently_applied_stylesERKNSt7__cxx1112basic_stringIcSt11char_traitsIcESaIcEEE
bibledit:_ZNK20Database_Config_User27set_swipe_actions_availableEb
bibledit:_ZNK20Database_Config_User27set_vertical_caret_positionEi
bibledit:_ZNK20Database_Config_User28get_fast_switch_usfm_editorsEv
bibledit:_ZNK20Database_Config_User28get_include_related_passagesEv
bibledit:_ZNK20Database_Config_User28get_main_menu_always_visibleEv
bibledit:_ZNK20Database_Config_User28get_postpone_new_notes_mailsEv
bibledit:_ZNK20Database_Config_User28get_show_bible_in_notes_listEv
bibledit:_ZNK20Database_Config_User28set_fast_switch_usfm_editorsEi
bibledit:_ZNK20Database_Config_User28set_include_related_passagesEb
bibledit:_ZNK20Database_Config_User28set_main_menu_always_visibleEb
bibledit:_ZNK20Database_Config_User28set_postpone_new_notes_mailsEb
bibledit:_ZNK20Database_Config_User28set_show_bible_in_notes_listEb
bibledit:_ZNK20Database_Config_User29get_automatic_note_assignmentB5cxx11Ev
bibledit:_ZNK20Database_Config_User29get_bible_checks_notificationEv
bibledit:_ZNK20Database_Config_User29get_privilege_set_stylesheetsEv
bibledit:_ZNK20Database_Config_User29get_user_changes_notificationEv
bibledit:_ZNK20Database_Config_User29set_automatic_note_assignmentERKSt6vectorINSt7__cxx1112basic_stringIcSt11char_traitsIcESaIcEEESaIS6_EE
bibledit:_ZNK20Database_Config_User29set_bible_checks_notificationEb
bibledit:_ZNK20Database_Config_User29set_user_changes_notificationEb
bibledit:_ZNK20Database_Config_User30get_bible_changes_notificationEv
bibledit:_ZNK20Database_Config_User30get_fast_switch_visual_editorsEv
bibledit:_ZNK20Database_Config_User30get_menu_changes_in_basic_modeEv
bibledit:_ZNK20Database_Config_User30get_user_notify_me_of_my_postsERKNSt7__cxx1112basic_stringIcSt11char_traitsIcESaIcEEE
bibledit:_ZNK20Database_Config_User30set_bible_changes_notificationEb
bibledit:_ZNK20Database_Config_User30set_fast_switch_visual_editorsEi
bibledit:_ZNK20Database_Config_User30set_menu_changes_in_basic_modeEb
bibledit:_ZNK20Database_Config_User31get_change_notifications_biblesB5cxx11Ev
bibledit:_ZNK20Database_Config_User31get_privilege_use_advanced_modeEv
bibledit:_ZNK20Database_Config_User31set_change_notifications_biblesERKSt6vectorINSt7__cxx1112basic_stringIcSt11char_traitsIcESaIcEEESaIS6_EE
bibledit:_ZNK20Database_Config_User32get_basic_interface_mode_defaultEv
bibledit:_ZNK20Database_Config_User32get_pending_changes_notificationEv
bibledit:_ZNK20Database_Config_User32get_sprint_progress_notificationEv
bibledit:_ZNK20Database_Config_User32get_workspace_menu_fadeout_delayEv
bibledit:_ZNK20Database_Config_User32set_pending_changes_notificationEb
bibledit:_ZNK20Database_Config_User32set_sprint_progress_notificationEb
bibledit:_ZNK20Database_Config_User32set_workspace_menu_fadeout_delayEi
bibledit:_ZNK20Database_Config_User33default_bible_checks_notificationEv
bibledit:_ZNK20Database_Config_User33get_change_notifications_checksumB5cxx11Ev
bibledit:_ZNK20Database_Config_User33get_generate_change_notificationsEv
bibledit:_ZNK20Database_Config_User33set_change_notifications_checksumERKNSt7__cxx1112basic_stringIcSt11char_traitsIcESaIcEEE
bibledit:_ZNK20Database_Config_User33set_generate_change_notificationsEb
bibledit:_ZNK20Database_Config_User34get_consultation_notes_search_textB5cxx11Ev
bibledit:_ZNK20Database_Config_User34get_show_verse_text_at_create_noteEv
bibledit:_ZNK20Database_Config_User34get_use_colored_note_status_labelsEv
bibledit:_ZNK20Database_Config_User34get_user_bible_checks_notificationERKNSt7__cxx1112basic_stringIcSt11char_traitsIcESaIcEEE
bibledit:_ZNK20Database_Config_User34get_user_user_changes_notificationERKNSt7__cxx1112basic_stringIcSt11char_traitsIcESaIcEEE
bibledit:_ZNK20Database_Config_User34set_consultation_notes_search_textERKNSt7__cxx1112basic_stringIcSt11char_traitsIcESaIcEEE
bibledit:_ZNK20Database_Config_User34set_show_verse_text_at_create_noteEb
bibledit:_ZNK20Database_Config_User34set_use_colored_note_status_labelsEb
bibledit:_ZNK20Database_Config_User35get_fast_editor_switching_availableEv
bibledit:_ZNK20Database_Config_User35get_user_bible_changes_notificationERKNSt7__cxx1112basic_stringIcSt11char_traitsIcESaIcEEE
bibledit:_ZNK20Database_Config_User35set_fast_editor_switching_availableEb
bibledit:_ZNK20Database_Config_User36get_consultation_notes_edit_selectorEv
bibledit:_ZNK20Database_Config_User36get_consultation_notes_text_selectorEv
bibledit:_ZNK20Database_Config_User36get_editing_allowed_difference_verseEv
bibledit:_ZNK20Database_Config_User36set_consultation_notes_edit_selectorEi
bibledit:_ZNK20Database_Config_User36set_consultation_notes_text_selectorEi
bibledit:_ZNK20Database_Config_User36set_editing_allowed_difference_verseEi
bibledit:_ZNK20Database_Config_User37get_consultation_notes_bible_selectorB5cxx11Ev
bibledit:_ZNK20Database_Config_User37get_user_changes_notifications_onlineEv
bibledit:_ZNK20Database_Config_User37get_user_pending_changes_notificationERKNSt7__cxx1112basic_stringIcSt11char_traitsIcESaIcEEE
bibledit:_ZNK20Database_Config_User37get_user_sprint_progress_notificationERKNSt7__cxx1112basic_stringIcSt11char_traitsIcESaIcEEE
bibledit:_ZNK20Database_Config_User37set_consultation_notes_bible_selectorERKNSt7__cxx1112basic_stringIcSt11char_traitsIcESaIcEEE
bibledit:_ZNK20Database_Config_User37set_user_changes_notifications_onlineEb
bibledit:_ZNK20Database_Config_User38get_editing_allowed_difference_chapterEv
bibledit:_ZNK20Database_Config_User38get_privilege_set_stylesheets_for_userERKNSt7__cxx1112basic_stringIcSt11char_traitsIcESaIcEEE
bibledit:_ZNK20Database_Config_User38get_user_generate_change_notificationsERKNSt7__cxx1112basic_stringIcSt11char_traitsIcESaIcEEE
bibledit:_ZNK20Database_Config_User38set_editing_allowed_difference_chapterEi
bibledit:_ZNK20Database_Config_User38set_privilege_set_stylesheets_for_userERKNSt7__cxx1112basic_stringIcSt11char_traitsIcESaIcEEEb
bibledit:_ZNK20Database_Config_User38set_user_change_notifications_checksumERKNSt7__cxx1112basic_stringIcSt11char_traitsIcESaIcEEES7_
bibledit:_ZNK20Database_Config_User39get_consultation_notes_passage_selectorEv
bibledit:_ZNK20Database_Config_User39get_consultation_notes_status_selectorsB5cxx11Ev
bibledit:_ZNK20Database_Config_User39get_enable_styles_button_visual_editorsEv
bibledit:_ZNK20Database_Config_User39get_privilege_delete_consultation_notesEv
bibledit:_ZNK20Database_Config_User39set_consultation_notes_passage_selectorEi
bibledit:_ZNK20Database_Config_User39set_consultation_notes_status_selectorsESt6vectorINSt7__cxx1112basic_stringIcSt11char_traitsIcESaIcEEESaIS6_EE
bibledit:_ZNK20Database_Config_User39set_enable_styles_button_visual_editorsEb
bibledit:_ZNK20Database_Config_User39set_privilege_delete_consultation_notesEb
bibledit:_ZNK20Database_Config_User40get_change_notifications_bibles_for_userERKNSt7__cxx1112basic_stringIcSt11char_traitsIcESaIcEEE
bibledit:_ZNK20Database_Config_User40get_consultation_notes_non_edit_selectorEv
bibledit:_ZNK20Database_Config_User40get_consultation_notes_severity_selectorEv
bibledit:_ZNK20Database_Config_User40get_privilege_use_advanced_mode_for_userERKNSt7__cxx1112basic_stringIcSt11char_traitsIcESaIcEEE
bibledit:_ZNK20Database_Config_User40set_consultation_notes_non_edit_selectorEi
bibledit:_ZNK20Database_Config_User40set_consultation_notes_severity_selectorEi
bibledit:_ZNK20Database_Config_User40set_privilege_use_advanced_mode_for_userERKNSt7__cxx1112basic_stringIcSt11char_traitsIcESaIcEEEb
bibledit:_ZNK20Database_Config_User41get_suppress_mail_from_your_updates_notesEv
bibledit:_ZNK20Database_Config_User41set_suppress_mail_from_your_updates_notesEb
bibledit:_ZNK20Database_Config_User42get_assigned_notes_statistics_notificationEv
bibledit:_ZNK20Database_Config_User42get_assigned_to_consultation_notes_changesEv
bibledit:_ZNK20Database_Config_User42get_consultation_notes_assignment_selectorB5cxx11Ev
bibledit:_ZNK20Database_Config_User42get_deleted_consultation_note_notificationEv
bibledit:_ZNK20Database_Config_User42get_user_user_changes_notifications_onlineERKNSt7__cxx1112basic_stringIcSt11char_traitsIcESaIcEEE
bibledit:_ZNK20Database_Config_User42set_assigned_notes_statistics_notificationEb
bibledit:_ZNK20Database_Config_User42set_assigned_to_consultation_notes_changesEb
bibledit:_ZNK20Database_Config_User42set_consultation_notes_assignment_selectorERKNSt7__cxx1112basic_stringIcSt11char_traitsIcESaIcEEE
bibledit:_ZNK20Database_Config_User42set_deleted_consultation_note_notificationEb
bibledit:_ZNK20Database_Config_User43get_assigned_consultation_note_notificationEv
bibledit:_ZNK20Database_Config_User43get_receive_focused_reference_from_paratextEv
bibledit:_ZNK20Database_Config_User43set_assigned_consultation_note_notificationEb
bibledit:_ZNK20Database_Config_User43set_receive_focused_reference_from_paratextEb
bibledit:_ZNK20Database_Config_User44get_consultation_notes_subscription_selectorEv
bibledit:_ZNK20Database_Config_User44get_contributor_changes_notifications_onlineERKNSt7__cxx1112basic_stringIcSt11char_traitsIcESaIcEEE
bibledit:_ZNK20Database_Config_User44get_contributor_changes_notifications_onlineEv
bibledit:_ZNK20Database_Config_User44get_subscribed_notes_statistics_notificationEv
bibledit:_ZNK20Database_Config_User44set_consultation_notes_subscription_selectorEb
bibledit:_ZNK20Database_Config_User44set_contributor_changes_notifications_onlineEb
bibledit:_ZNK20Database_Config_User44set_subscribed_notes_statistics_notificationEb
bibledit:_ZNK20Database_Config_User45get_notify_me_of_any_consultation_notes_editsEv
bibledit:_ZNK20Database_Config_User45get_receive_focused_reference_from_accordanceEv
bibledit:_ZNK20Database_Config_User45get_subscribed_consultation_note_notificationEv
bibledit:_ZNK20Database_Config_User45set_notify_me_of_any_consultation_notes_editsEb
bibledit:_ZNK20Database_Config_User45set_receive_focused_reference_from_accordanceEb
bibledit:_ZNK20Database_Config_User45set_subscribed_consultation_note_notificationEb
bibledit:_ZNK20Database_Config_User46get_consultation_notes_text_inclusion_selectorEv
bibledit:_ZNK20Database_Config_User46get_user_suppress_mail_from_your_updates_notesERKNSt7__cxx1112basic_stringIcSt11char_traitsIcESaIcEEE
bibledit:_ZNK20Database_Config_User46set_consultation_notes_text_inclusion_selectorEi
bibledit:_ZNK20Database_Config_User47get_notify_user_of_any_consultation_notes_editsERKNSt7__cxx1112basic_stringIcSt11char_traitsIcESaIcEEE
bibledit:_ZNK20Database_Config_User47get_user_assigned_notes_statistics_notificationERKNSt7__cxx1112basic_stringIcSt11char_traitsIcESaIcEEE
bibledit:_ZNK20Database_Config_User47get_user_assigned_to_consultation_notes_changesERKNSt7__cxx1112basic_stringIcSt11char_traitsIcESaIcEEE
bibledit:_ZNK20Database_Config_User47get_user_deleted_consultation_note_notificationERKNSt7__cxx1112basic_stringIcSt11char_traitsIcESaIcEEE
bibledit:_ZNK20Database_Config_User48get_privilege_delete_consultation_notes_for_userERKNSt7__cxx1112basic_stringIcSt11char_traitsIcESaIcEEE
bibledit:_ZNK20Database_Config_User48get_subscribe_to_consultation_notes_edited_by_meEv
bibledit:_ZNK20Database_Config_User48get_user_assigned_consultation_note_notificationERKNSt7__cxx1112basic_stringIcSt11char_traitsIcESaIcEEE
bibledit:_ZNK20Database_Config_User48set_privilege_delete_consultation_notes_for_userERKNSt7__cxx1112basic_stringIcSt11char_traitsIcESaIcEEEb
bibledit:_ZNK20Database_Config_User48set_subscribe_to_consultation_notes_edited_by_meEb
bibledit:_ZNK20Database_Config_User49get_consultation_notes_passage_inclusion_selectorEv
bibledit:_ZNK20Database_Config_User49get_user_subscribed_notes_statistics_notificationERKNSt7__cxx1112basic_stringIcSt11char_traitsIcESaIcEEE
bibledit:_ZNK20Database_Config_User49set_consultation_notes_passage_inclusion_selectorEi
bibledit:_ZNK20Database_Config_User4fileERKNSt7__cxx1112basic_stringIcSt11char_traitsIcESaIcEEE
bibledit:_ZNK20Database_Config_User4fileERKNSt7__cxx1112basic_stringIcSt11char_traitsIcESaIcEEEPKc
bibledit:_ZNK20Database_Config_User4trimEv
bibledit:_ZNK20Database_Config_User50get_user_subscribed_consultation_note_notificationERKNSt7__cxx1112basic_stringIcSt11char_traitsIcESaIcEEE
bibledit:_ZNK20Database_Config_User6mapkeyERKNSt7__cxx1112basic_stringIcSt11char_traitsIcESaIcEEEPKc
bibledit:_ZNK20Database_Config_User6removeERKNSt7__cxx1112basic_stringIcSt11char_traitsIcESaIcEEE
bibledit:_ZNK20Database_Config_User8get_listB5cxx11EPKc
bibledit:_ZNK20Database_Config_User8set_listEPKcRKSt6vectorINSt7__cxx1112basic_stringIcSt11char_traitsIcESaIcEEESaIS8_EE
bibledit:_ZNK20Database_Config_User9get_bibleB5cxx11Ev
bibledit:_ZNK20Database_Config_User9get_valueB5cxx11EPKcS1_
bibledit:_ZNK20Database_Config_User9set_bibleERKNSt7__cxx1112basic_stringIcSt11char_traitsIcESaIcEEE
bibledit:_ZNK20Database_Config_User9set_valueEPKcRKNSt7__cxx1112basic_stringIcSt11char_traitsIcESaIcEEE
bibledit:_ZNK21Database_Localization8databaseB5cxx11Ev
bibledit:_ZNK6jsonxx5Array3xmlEjRKNSt7__cxx1112basic_stringIcSt11char_traitsIcESaIcEEES8_
bibledit:_ZNK6jsonxx5Array4jsonB5cxx11Ev
bibledit:_ZNK6jsonxx5Array4sizeEv
bibledit:_ZNK6jsonxx5Array5emptyEv
bibledit:_ZNK6jsonxx5Value5emptyEv
bibledit:_ZNK6jsonxx6Object3xmlEjRKNSt7__cxx1112basic_stringIcSt11char_traitsIcESaIcEEES8_
bibledit:_ZNK6jsonxx6Object4jsonB5cxx11Ev
bibledit:_ZNK6jsonxx6Object4sizeEv
bibledit:_ZNK6jsonxx6Object5emptyEv
bibledit:_ZNK6jsonxx6Object5writeB5cxx11Ej
bibledit:_ZNK6jsonxx6Object6kv_mapB5cxx11Ev
bibledit:_ZNK7Passage6encodeB5cxx11Ev
bibledit:_ZlsRSoRKN6jsonxx5ArrayE
bibledit:_ZlsRSoRKN6jsonxx5ValueE
bibledit:_ZlsRSoRKN6jsonxx6ObjectE
bibledit:__bss_start
bibledit:__data_start
bibledit:_edata
bibledit:_end
bibledit:_start
bibledit:application
bibledit:bibledit_disable_selection_popup_chrome_os
bibledit:bibledit_get_external_url
bibledit:bibledit_get_last_page
bibledit:bibledit_get_network_port
bibledit:bibledit_get_pages_to_open
bibledit:bibledit_get_reference_for_accordance
bibledit:bibledit_get_version_number
bibledit:bibledit_initialize_library
bibledit:bibledit_is_running
bibledit:bibledit_is_synchronizing
bibledit:bibledit_log
bibledit:bibledit_put_reference_from_accordance
bibledit:bibledit_run_on_chrome_os
bibledit:bibledit_set_touch_enabled
bibledit:bibledit_shutdown_library
bibledit:bibledit_start_library
bibledit:bibledit_started
bibledit:bibledit_stop_library
bibledit:bibledit_window_configured
bibledit:bibledit_window_fullscreen
bibledit:bibledit_window_fullscreen_key
bibledit:bibledit_window_height
bibledit:bibledit_window_height_key
bibledit:bibledit_window_maximized
bibledit:bibledit_window_maximized_key
bibledit:bibledit_window_root_x
bibledit:bibledit_window_root_x_key
bibledit:bibledit_window_root_y
bibledit:bibledit_window_root_y_key
bibledit:bibledit_window_state
bibledit:bibledit_window_state_ini
bibledit:bibledit_window_width
bibledit:bibledit_window_width_key
bibledit:config_globals_change_notifications_available
bibledit:config_globals_client_prepared
bibledit:config_globals_data_initialized
bibledit:config_globals_enforce_https_browser
bibledit:config_globals_enforce_https_client
bibledit:config_globals_has_crashed_while_mailing
bibledit:config_globals_hide_bible_resources
bibledit:config_globals_http_worker
bibledit:config_globals_https_worker
bibledit:config_globals_int_distribution
bibledit:config_globals_log_network
bibledit:config_globals_mail_receive_running
bibledit:config_globals_mail_send_running
bibledit:config_globals_open_installation
bibledit:config_globals_random_engine
bibledit:config_globals_running_on_chrome_os
bibledit:config_globals_setup_progress
bibledit:config_globals_simultaneous_connection_count
bibledit:config_globals_syncing_bibles
bibledit:config_globals_syncing_changes
bibledit:config_globals_syncing_files
bibledit:config_globals_syncing_notes
bibledit:config_globals_syncing_resources
bibledit:config_globals_syncing_settings
bibledit:config_globals_timer
bibledit:config_globals_timezone_offset_utc
bibledit:config_globals_touch_enabled
bibledit:config_globals_unit_testing
bibledit:config_globals_webserver_running
bibledit:log_network_mutex
bibledit:main
bibledit:mbedtls_aes_cmac_prf_128
bibledit:mbedtls_aes_crypt_cbc
bibledit:mbedtls_aes_crypt_cfb128
bibledit:mbedtls_aes_crypt_cfb8
bibledit:mbedtls_aes_crypt_ctr
bibledit:mbedtls_aes_crypt_ecb
bibledit:mbedtls_aes_crypt_ofb
bibledit:mbedtls_aes_crypt_xts
bibledit:mbedtls_aes_free
bibledit:mbedtls_aes_init
bibledit:mbedtls_aes_self_test
bibledit:mbedtls_aes_setkey_dec
bibledit:mbedtls_aes_setkey_enc
bibledit:mbedtls_aes_xts_free
bibledit:mbedtls_aes_xts_init
bibledit:mbedtls_aes_xts_setkey_dec
bibledit:mbedtls_aes_xts_setkey_enc
bibledit:mbedtls_aria_crypt_cbc
bibledit:mbedtls_aria_crypt_cfb128
bibledit:mbedtls_aria_crypt_ctr
bibledit:mbedtls_aria_crypt_ecb
bibledit:mbedtls_aria_free
bibledit:mbedtls_aria_init
bibledit:mbedtls_aria_self_test
bibledit:mbedtls_aria_setkey_dec
bibledit:mbedtls_aria_setkey_enc
bibledit:mbedtls_asn1_find_named_data
bibledit:mbedtls_asn1_free_named_data
bibledit:mbedtls_asn1_free_named_data_list
bibledit:mbedtls_asn1_free_named_data_list_shallow
bibledit:mbedtls_asn1_get_alg
bibledit:mbedtls_asn1_get_alg_null
bibledit:mbedtls_asn1_get_bitstring
bibledit:mbedtls_asn1_get_bitstring_null
bibledit:mbedtls_asn1_get_bool
bibledit:mbedtls_asn1_get_enum
bibledit:mbedtls_asn1_get_int
bibledit:mbedtls_asn1_get_len
bibledit:mbedtls_asn1_get_mpi
bibledit:mbedtls_asn1_get_sequence_of
bibledit:mbedtls_asn1_get_tag
bibledit:mbedtls_asn1_sequence_free
bibledit:mbedtls_asn1_store_named_data
bibledit:mbedtls_asn1_traverse_sequence_of
bibledit:mbedtls_asn1_write_algorithm_identifier
bibledit:mbedtls_asn1_write_algorithm_identifier_ext
bibledit:mbedtls_asn1_write_bitstring
bibledit:mbedtls_asn1_write_bool
bibledit:mbedtls_asn1_write_enum
bibledit:mbedtls_asn1_write_ia5_string
bibledit:mbedtls_asn1_write_int
bibledit:mbedtls_asn1_write_len
bibledit:mbedtls_asn1_write_mpi
bibledit:mbedtls_asn1_write_named_bitstring
bibledit:mbedtls_asn1_write_null
bibledit:mbedtls_asn1_write_octet_string
bibledit:mbedtls_asn1_write_oid
bibledit:mbedtls_asn1_write_printable_string
bibledit:mbedtls_asn1_write_raw_buffer
bibledit:mbedtls_asn1_write_tag
bibledit:mbedtls_asn1_write_tagged_string
bibledit:mbedtls_asn1_write_utf8_string
bibledit:mbedtls_base64_decode
bibledit:mbedtls_base64_encode
bibledit:mbedtls_base64_self_test
bibledit:mbedtls_camellia_crypt_cbc
bibledit:mbedtls_camellia_crypt_cfb128
bibledit:mbedtls_camellia_crypt_ctr
bibledit:mbedtls_camellia_crypt_ecb
bibledit:mbedtls_camellia_free
bibledit:mbedtls_camellia_init
bibledit:mbedtls_camellia_self_test
bibledit:mbedtls_camellia_setkey_dec
bibledit:mbedtls_camellia_setkey_enc
bibledit:mbedtls_ccm_auth_decrypt
bibledit:mbedtls_ccm_encrypt_and_tag
bibledit:mbedtls_ccm_finish
bibledit:mbedtls_ccm_free
bibledit:mbedtls_ccm_init
bibledit:mbedtls_ccm_self_test
bibledit:mbedtls_ccm_set_lengths
bibledit:mbedtls_ccm_setkey
bibledit:mbedtls_ccm_star_auth_decrypt
bibledit:mbedtls_ccm_star_encrypt_and_tag
bibledit:mbedtls_ccm_starts
bibledit:mbedtls_ccm_update
bibledit:mbedtls_ccm_update_ad
bibledit:mbedtls_chacha20_crypt
bibledit:mbedtls_chacha20_free
bibledit:mbedtls_chacha20_init
bibledit:mbedtls_chacha20_self_test
bibledit:mbedtls_chacha20_setkey
bibledit:mbedtls_chacha20_starts
bibledit:mbedtls_chacha20_update
bibledit:mbedtls_chachapoly_auth_decrypt
bibledit:mbedtls_chachapoly_encrypt_and_tag
bibledit:mbedtls_chachapoly_finish
bibledit:mbedtls_chachapoly_free
bibledit:mbedtls_chachapoly_init
bibledit:mbedtls_chachapoly_self_test
bibledit:mbedtls_chachapoly_setkey
bibledit:mbedtls_chachapoly_starts
bibledit:mbedtls_chachapoly_update
bibledit:mbedtls_chachapoly_update_aad
bibledit:mbedtls_cipher_auth_decrypt_ext
bibledit:mbedtls_cipher_auth_encrypt_ext
bibledit:mbedtls_cipher_base_lookup_table
bibledit:mbedtls_cipher_check_tag
bibledit:mbedtls_cipher_cmac
bibledit:mbedtls_cipher_cmac_finish
bibledit:mbedtls_cipher_cmac_reset
bibledit:mbedtls_cipher_cmac_starts
bibledit:mbedtls_cipher_cmac_update
bibledit:mbedtls_cipher_crypt
bibledit:mbedtls_cipher_definitions
bibledit:mbedtls_cipher_finish
bibledit:mbedtls_cipher_free
bibledit:mbedtls_cipher_info_from_psa
bibledit:mbedtls_cipher_info_from_string
bibledit:mbedtls_cipher_info_from_type
bibledit:mbedtls_cipher_info_from_values
bibledit:mbedtls_cipher_init
bibledit:mbedtls_cipher_list
bibledit:mbedtls_cipher_reset
bibledit:mbedtls_cipher_set_iv
bibledit:mbedtls_cipher_set_padding_mode
bibledit:mbedtls_cipher_setkey
bibledit:mbedtls_cipher_setup
bibledit:mbedtls_cipher_supported
bibledit:mbedtls_cipher_update
bibledit:mbedtls_cipher_update_ad
bibledit:mbedtls_cipher_values_from_psa
bibledit:mbedtls_cipher_write_tag
bibledit:mbedtls_cmac_self_test
bibledit:mbedtls_ct_memcmp
bibledit:mbedtls_ct_memcmp_partial
bibledit:mbedtls_ct_memcpy_if
bibledit:mbedtls_ct_memcpy_offset
bibledit:mbedtls_ct_memmove_left
bibledit:mbedtls_ct_zero
bibledit:mbedtls_ct_zeroize_if
bibledit:mbedtls_ctr_drbg_free
bibledit:mbedtls_ctr_drbg_init
bibledit:mbedtls_ctr_drbg_random
bibledit:mbedtls_ctr_drbg_random_with_add
bibledit:mbedtls_ctr_drbg_reseed
bibledit:mbedtls_ctr_drbg_seed
bibledit:mbedtls_ctr_drbg_self_test
bibledit:mbedtls_ctr_drbg_set_entropy_len
bibledit:mbedtls_ctr_drbg_set_nonce_len
bibledit:mbedtls_ctr_drbg_set_prediction_resistance
bibledit:mbedtls_ctr_drbg_set_reseed_interval
bibledit:mbedtls_ctr_drbg_update
bibledit:mbedtls_ctr_drbg_update_seed_file
bibledit:mbedtls_ctr_drbg_write_seed_file
bibledit:mbedtls_debug_print_buf
bibledit:mbedtls_debug_print_crt
bibledit:mbedtls_debug_print_ecp
bibledit:mbedtls_debug_print_mpi
bibledit:mbedtls_debug_print_msg
bibledit:mbedtls_debug_print_ret
bibledit:mbedtls_debug_printf_ecdh
bibledit:mbedtls_debug_set_threshold
bibledit:mbedtls_des3_crypt_cbc
bibledit:mbedtls_des3_crypt_ecb
bibledit:mbedtls_des3_free
bibledit:mbedtls_des3_init
bibledit:mbedtls_des3_set2key_dec
bibledit:mbedtls_des3_set2key_enc
bibledit:mbedtls_des3_set3key_dec
bibledit:mbedtls_des3_set3key_enc
bibledit:mbedtls_des_crypt_cbc
bibledit:mbedtls_des_crypt_ecb
bibledit:mbedtls_des_free
bibledit:mbedtls_des_init
bibledit:mbedtls_des_key_check_key_parity
bibledit:mbedtls_des_key_check_weak
bibledit:mbedtls_des_key_set_parity
bibledit:mbedtls_des_self_test
bibledit:mbedtls_des_setkey
bibledit:mbedtls_des_setkey_dec
bibledit:mbedtls_des_setkey_enc
bibledit:mbedtls_dhm_calc_secret
bibledit:mbedtls_dhm_free
bibledit:mbedtls_dhm_get_bitlen
bibledit:mbedtls_dhm_get_len
bibledit:mbedtls_dhm_get_value
bibledit:mbedtls_dhm_init
bibledit:mbedtls_dhm_make_params
bibledit:mbedtls_dhm_make_public
bibledit:mbedtls_dhm_parse_dhm
bibledit:mbedtls_dhm_parse_dhmfile
bibledit:mbedtls_dhm_read_params
bibledit:mbedtls_dhm_read_public
bibledit:mbedtls_dhm_self_test
bibledit:mbedtls_dhm_set_group
bibledit:mbedtls_ecc_group_from_psa
bibledit:mbedtls_ecc_group_to_psa
bibledit:mbedtls_ecdh_calc_secret
bibledit:mbedtls_ecdh_can_do
bibledit:mbedtls_ecdh_compute_shared
bibledit:mbedtls_ecdh_free
bibledit:mbedtls_ecdh_gen_public
bibledit:mbedtls_ecdh_get_grp_id
bibledit:mbedtls_ecdh_get_params
bibledit:mbedtls_ecdh_init
bibledit:mbedtls_ecdh_make_params
bibledit:mbedtls_ecdh_make_public
bibledit:mbedtls_ecdh_read_params
bibledit:mbedtls_ecdh_read_public
bibledit:mbedtls_ecdh_setup
bibledit:mbedtls_ecdsa_can_do
bibledit:mbedtls_ecdsa_der_to_raw
bibledit:mbedtls_ecdsa_free
bibledit:mbedtls_ecdsa_from_keypair
bibledit:mbedtls_ecdsa_genkey
bibledit:mbedtls_ecdsa_info
bibledit:mbedtls_ecdsa_init
bibledit:mbedtls_ecdsa_raw_to_der
bibledit:mbedtls_ecdsa_read_signature
bibledit:mbedtls_ecdsa_read_signature_restartable
bibledit:mbedtls_ecdsa_sign
bibledit:mbedtls_ecdsa_sign_det_ext
bibledit:mbedtls_ecdsa_sign_det_restartable
bibledit:mbedtls_ecdsa_sign_restartable
bibledit:mbedtls_ecdsa_verify
bibledit:mbedtls_ecdsa_verify_restartable
bibledit:mbedtls_ecdsa_write_signature
bibledit:mbedtls_ecdsa_write_signature_restartable
bibledit:mbedtls_ecjpake_check
bibledit:mbedtls_ecjpake_derive_secret
bibledit:mbedtls_ecjpake_free
bibledit:mbedtls_ecjpake_init
bibledit:mbedtls_ecjpake_read_round_one
bibledit:mbedtls_ecjpake_read_round_two
bibledit:mbedtls_ecjpake_self_test
bibledit:mbedtls_ecjpake_set_point_format
bibledit:mbedtls_ecjpake_setup
bibledit:mbedtls_ecjpake_write_round_one
bibledit:mbedtls_ecjpake_write_round_two
bibledit:mbedtls_ecjpake_write_shared_key
bibledit:mbedtls_eckey_info
bibledit:mbedtls_eckeydh_info
bibledit:mbedtls_ecp_check_privkey
bibledit:mbedtls_ecp_check_pub_priv
bibledit:mbedtls_ecp_check_pubkey
bibledit:mbedtls_ecp_copy
bibledit:mbedtls_ecp_curve_info_from_grp_id
bibledit:mbedtls_ecp_curve_info_from_name
bibledit:mbedtls_ecp_curve_info_from_tls_id
bibledit:mbedtls_ecp_curve_list
bibledit:mbedtls_ecp_export
bibledit:mbedtls_ecp_gen_key
bibledit:mbedtls_ecp_gen_keypair
bibledit:mbedtls_ecp_gen_keypair_base
bibledit:mbedtls_ecp_gen_privkey
bibledit:mbedtls_ecp_get_type
bibledit:mbedtls_ecp_group_copy
bibledit:mbedtls_ecp_group_free
bibledit:mbedtls_ecp_group_init
bibledit:mbedtls_ecp_group_load
bibledit:mbedtls_ecp_grp_id_list
bibledit:mbedtls_ecp_is_zero
bibledit:mbedtls_ecp_keypair_calc_public
bibledit:mbedtls_ecp_keypair_free
bibledit:mbedtls_ecp_keypair_get_group_id
bibledit:mbedtls_ecp_keypair_init
bibledit:mbedtls_ecp_mul
bibledit:mbedtls_ecp_mul_restartable
bibledit:mbedtls_ecp_muladd
bibledit:mbedtls_ecp_muladd_restartable
bibledit:mbedtls_ecp_point_cmp
bibledit:mbedtls_ecp_point_free
bibledit:mbedtls_ecp_point_init
bibledit:mbedtls_ecp_point_read_binary
bibledit:mbedtls_ecp_point_read_string
bibledit:mbedtls_ecp_point_write_binary
bibledit:mbedtls_ecp_read_key
bibledit:mbedtls_ecp_self_test
bibledit:mbedtls_ecp_set_public_key
bibledit:mbedtls_ecp_set_zero
bibledit:mbedtls_ecp_tls_read_group
bibledit:mbedtls_ecp_tls_read_group_id
bibledit:mbedtls_ecp_tls_read_point
bibledit:mbedtls_ecp_tls_write_group
bibledit:mbedtls_ecp_tls_write_point
bibledit:mbedtls_ecp_write_key
bibledit:mbedtls_ecp_write_key_ext
bibledit:mbedtls_ecp_write_public_key
bibledit:mbedtls_entropy_add_source
bibledit:mbedtls_entropy_free
bibledit:mbedtls_entropy_func
bibledit:mbedtls_entropy_gather
bibledit:mbedtls_entropy_init
bibledit:mbedtls_entropy_self_test
bibledit:mbedtls_entropy_update_manual
bibledit:mbedtls_entropy_update_seed_file
bibledit:mbedtls_entropy_write_seed_file
bibledit:mbedtls_gcm_auth_decrypt
bibledit:mbedtls_gcm_crypt_and_tag
bibledit:mbedtls_gcm_finish
bibledit:mbedtls_gcm_free
bibledit:mbedtls_gcm_init
bibledit:mbedtls_gcm_self_test
bibledit:mbedtls_gcm_setkey
bibledit:mbedtls_gcm_starts
bibledit:mbedtls_gcm_update
bibledit:mbedtls_gcm_update_ad
bibledit:mbedtls_high_level_strerr
bibledit:mbedtls_hmac_drbg_free
bibledit:mbedtls_hmac_drbg_init
bibledit:mbedtls_hmac_drbg_random
bibledit:mbedtls_hmac_drbg_random_with_add
bibledit:mbedtls_hmac_drbg_reseed
bibledit:mbedtls_hmac_drbg_seed
bibledit:mbedtls_hmac_drbg_seed_buf
bibledit:mbedtls_hmac_drbg_self_test
bibledit:mbedtls_hmac_drbg_set_entropy_len
bibledit:mbedtls_hmac_drbg_set_prediction_resistance
bibledit:mbedtls_hmac_drbg_set_reseed_interval
bibledit:mbedtls_hmac_drbg_update
bibledit:mbedtls_hmac_drbg_update_seed_file
bibledit:mbedtls_hmac_drbg_write_seed_file
bibledit:mbedtls_internal_aes_decrypt
bibledit:mbedtls_internal_aes_encrypt
bibledit:mbedtls_internal_md5_process
bibledit:mbedtls_internal_ripemd160_process
bibledit:mbedtls_internal_sha1_process
bibledit:mbedtls_internal_sha256_process
bibledit:mbedtls_internal_sha512_process
bibledit:mbedtls_low_level_strerr
bibledit:mbedtls_md
bibledit:mbedtls_md5
bibledit:mbedtls_md5_clone
bibledit:mbedtls_md5_finish
bibledit:mbedtls_md5_free
bibledit:mbedtls_md5_init
bibledit:mbedtls_md5_self_test
bibledit:mbedtls_md5_starts
bibledit:mbedtls_md5_update
bibledit:mbedtls_md_clone
bibledit:mbedtls_md_error_from_psa
bibledit:mbedtls_md_file
bibledit:mbedtls_md_finish
bibledit:mbedtls_md_free
bibledit:mbedtls_md_get_name
bibledit:mbedtls_md_get_size
bibledit:mbedtls_md_get_type
bibledit:mbedtls_md_hmac
bibledit:mbedtls_md_hmac_finish
bibledit:mbedtls_md_hmac_reset
bibledit:mbedtls_md_hmac_starts
bibledit:mbedtls_md_hmac_update
bibledit:mbedtls_md_info_from_ctx
bibledit:mbedtls_md_info_from_string
bibledit:mbedtls_md_info_from_type
bibledit:mbedtls_md_init
bibledit:mbedtls_md_list
bibledit:mbedtls_md_setup
bibledit:mbedtls_md_starts
bibledit:mbedtls_md_update
bibledit:mbedtls_mpi_add_abs
bibledit:mbedtls_mpi_add_int
bibledit:mbedtls_mpi_add_mpi
bibledit:mbedtls_mpi_bitlen
bibledit:mbedtls_mpi_cmp_abs
bibledit:mbedtls_mpi_cmp_int
bibledit:mbedtls_mpi_cmp_mpi
bibledit:mbedtls_mpi_copy
bibledit:mbedtls_mpi_core_add
bibledit:mbedtls_mpi_core_add_if
bibledit:mbedtls_mpi_core_bigendian_to_host
bibledit:mbedtls_mpi_core_bitlen
bibledit:mbedtls_mpi_core_check_zero_ct
bibledit:mbedtls_mpi_core_clz
bibledit:mbedtls_mpi_core_cond_assign
bibledit:mbedtls_mpi_core_cond_swap
bibledit:mbedtls_mpi_core_exp_mod
bibledit:mbedtls_mpi_core_exp_mod_working_limbs
bibledit:mbedtls_mpi_core_fill_random
bibledit:mbedtls_mpi_core_from_mont_rep
bibledit:mbedtls_mpi_core_get_mont_r2_unsafe
bibledit:mbedtls_mpi_core_lt_ct
bibledit:mbedtls_mpi_core_mla
bibledit:mbedtls_mpi_core_montmul
bibledit:mbedtls_mpi_core_montmul_init
bibledit:mbedtls_mpi_core_mul
bibledit:mbedtls_mpi_core_random
bibledit:mbedtls_mpi_core_read_be
bibledit:mbedtls_mpi_core_read_le
bibledit:mbedtls_mpi_core_shift_l
bibledit:mbedtls_mpi_core_shift_r
bibledit:mbedtls_mpi_core_sub
bibledit:mbedtls_mpi_core_sub_int
bibledit:mbedtls_mpi_core_to_mont_rep
bibledit:mbedtls_mpi_core_uint_le_mpi
bibledit:mbedtls_mpi_core_write_be
bibledit:mbedtls_mpi_core_write_le
bibledit:mbedtls_mpi_div_int
bibledit:mbedtls_mpi_div_mpi
bibledit:mbedtls_mpi_exp_mod
bibledit:mbedtls_mpi_fill_random
bibledit:mbedtls_mpi_free
bibledit:mbedtls_mpi_gcd
bibledit:mbedtls_mpi_gen_prime
bibledit:mbedtls_mpi_get_bit
bibledit:mbedtls_mpi_grow
bibledit:mbedtls_mpi_init
bibledit:mbedtls_mpi_inv_mod
bibledit:mbedtls_mpi_is_prime_ext
bibledit:mbedtls_mpi_lsb
bibledit:mbedtls_mpi_lset
bibledit:mbedtls_mpi_lt_mpi_ct
bibledit:mbedtls_mpi_mod_int
bibledit:mbedtls_mpi_mod_mpi
bibledit:mbedtls_mpi_mul_int
bibledit:mbedtls_mpi_mul_mpi
bibledit:mbedtls_mpi_random
bibledit:mbedtls_mpi_read_binary
bibledit:mbedtls_mpi_read_binary_le
bibledit:mbedtls_mpi_read_file
bibledit:mbedtls_mpi_read_string
bibledit:mbedtls_mpi_safe_cond_assign
bibledit:mbedtls_mpi_safe_cond_swap
bibledit:mbedtls_mpi_self_test
bibledit:mbedtls_mpi_set_bit
bibledit:mbedtls_mpi_shift_l
bibledit:mbedtls_mpi_shift_r
bibledit:mbedtls_mpi_shrink
bibledit:mbedtls_mpi_size
bibledit:mbedtls_mpi_sub_abs
bibledit:mbedtls_mpi_sub_int
bibledit:mbedtls_mpi_sub_mpi
bibledit:mbedtls_mpi_swap
bibledit:mbedtls_mpi_write_binary
bibledit:mbedtls_mpi_write_binary_le
bibledit:mbedtls_mpi_write_file
bibledit:mbedtls_mpi_write_string
bibledit:mbedtls_ms_time
bibledit:mbedtls_mutex_free
bibledit:mbedtls_mutex_init
bibledit:mbedtls_mutex_lock
bibledit:mbedtls_mutex_unlock
bibledit:mbedtls_net_accept
bibledit:mbedtls_net_bind
bibledit:mbedtls_net_close
bibledit:mbedtls_net_connect
bibledit:mbedtls_net_free
bibledit:mbedtls_net_init
bibledit:mbedtls_net_poll
bibledit:mbedtls_net_recv
bibledit:mbedtls_net_recv_timeout
bibledit:mbedtls_net_send
bibledit:mbedtls_net_set_block
bibledit:mbedtls_net_set_nonblock
bibledit:mbedtls_net_usleep
bibledit:mbedtls_nist_kw_free
bibledit:mbedtls_nist_kw_init
bibledit:mbedtls_nist_kw_self_test
bibledit:mbedtls_nist_kw_setkey
bibledit:mbedtls_nist_kw_unwrap
bibledit:mbedtls_nist_kw_wrap
bibledit:mbedtls_oid_from_numeric_string
bibledit:mbedtls_oid_get_attr_short_name
bibledit:mbedtls_oid_get_certificate_policies
bibledit:mbedtls_oid_get_cipher_alg
bibledit:mbedtls_oid_get_ec_grp
bibledit:mbedtls_oid_get_ec_grp_algid
bibledit:mbedtls_oid_get_extended_key_usage
bibledit:mbedtls_oid_get_md_alg
bibledit:mbedtls_oid_get_md_hmac
bibledit:mbedtls_oid_get_numeric_string
bibledit:mbedtls_oid_get_oid_by_ec_grp
bibledit:mbedtls_oid_get_oid_by_ec_grp_algid
bibledit:mbedtls_oid_get_oid_by_md
bibledit:mbedtls_oid_get_oid_by_pk_alg
bibledit:mbedtls_oid_get_oid_by_sig_alg
bibledit:mbedtls_oid_get_pk_alg
bibledit:mbedtls_oid_get_pkcs12_pbe_alg
bibledit:mbedtls_oid_get_sig_alg
bibledit:mbedtls_oid_get_sig_alg_desc
bibledit:mbedtls_oid_get_x509_ext_type
bibledit:mbedtls_pem_free
bibledit:mbedtls_pem_init
bibledit:mbedtls_pem_read_buffer
bibledit:mbedtls_pem_write_buffer
bibledit:mbedtls_pk_can_do
bibledit:mbedtls_pk_check_pair
bibledit:mbedtls_pk_copy_from_psa
bibledit:mbedtls_pk_copy_public_from_psa
bibledit:mbedtls_pk_debug
bibledit:mbedtls_pk_decrypt
bibledit:mbedtls_pk_ecc_set_group
bibledit:mbedtls_pk_ecc_set_key
bibledit:mbedtls_pk_ecc_set_pubkey
bibledit:mbedtls_pk_ecc_set_pubkey_from_prv
bibledit:mbedtls_pk_encrypt
bibledit:mbedtls_pk_free
bibledit:mbedtls_pk_get_bitlen
bibledit:mbedtls_pk_get_name
bibledit:mbedtls_pk_get_psa_attributes
bibledit:mbedtls_pk_get_type
bibledit:mbedtls_pk_import_into_psa
bibledit:mbedtls_pk_info_from_type
bibledit:mbedtls_pk_init
bibledit:mbedtls_pk_load_file
bibledit:mbedtls_pk_parse_key
bibledit:mbedtls_pk_parse_keyfile
bibledit:mbedtls_pk_parse_public_key
bibledit:mbedtls_pk_parse_public_keyfile
bibledit:mbedtls_pk_parse_subpubkey
bibledit:mbedtls_pk_setup
bibledit:mbedtls_pk_setup_rsa_alt
bibledit:mbedtls_pk_sign
bibledit:mbedtls_pk_sign_ext
bibledit:mbedtls_pk_sign_restartable
bibledit:mbedtls_pk_verify
bibledit:mbedtls_pk_verify_ext
bibledit:mbedtls_pk_verify_restartable
bibledit:mbedtls_pkcs12_derivation
bibledit:mbedtls_pkcs12_pbe
bibledit:mbedtls_pkcs12_pbe_ext
bibledit:mbedtls_pkcs5_pbes2
bibledit:mbedtls_pkcs5_pbes2_ext
bibledit:mbedtls_pkcs5_pbkdf2_hmac
bibledit:mbedtls_pkcs5_pbkdf2_hmac_ext
bibledit:mbedtls_pkcs5_self_test
bibledit:mbedtls_platform_entropy_poll
bibledit:mbedtls_platform_gmtime_r
bibledit:mbedtls_platform_zeroize
bibledit:mbedtls_poly1305_finish
bibledit:mbedtls_poly1305_free
bibledit:mbedtls_poly1305_init
bibledit:mbedtls_poly1305_mac
bibledit:mbedtls_poly1305_self_test
bibledit:mbedtls_poly1305_starts
bibledit:mbedtls_poly1305_update
bibledit:mbedtls_psa_aead_abort
bibledit:mbedtls_psa_aead_decrypt
bibledit:mbedtls_psa_aead_decrypt_setup
bibledit:mbedtls_psa_aead_encrypt
bibledit:mbedtls_psa_aead_encrypt_setup
bibledit:mbedtls_psa_aead_finish
bibledit:mbedtls_psa_aead_set_lengths
bibledit:mbedtls_psa_aead_set_nonce
bibledit:mbedtls_psa_aead_update
bibledit:mbedtls_psa_aead_update_ad
bibledit:mbedtls_psa_asymmetric_decrypt
bibledit:mbedtls_psa_asymmetric_encrypt
bibledit:mbedtls_psa_cipher_abort
bibledit:mbedtls_psa_cipher_decrypt
bibledit:mbedtls_psa_cipher_decrypt_setup
bibledit:mbedtls_psa_cipher_encrypt
bibledit:mbedtls_psa_cipher_encrypt_setup
bibledit:mbedtls_psa_cipher_finish
bibledit:mbedtls_psa_cipher_set_iv
bibledit:mbedtls_psa_cipher_update
bibledit:mbedtls_psa_crypto_configure_entropy_sources
bibledit:mbedtls_psa_crypto_free
bibledit:mbedtls_psa_ecdsa_sign_hash
bibledit:mbedtls_psa_ecdsa_verify_hash
bibledit:mbedtls_psa_ecp_export_key
bibledit:mbedtls_psa_ecp_export_public_key
bibledit:mbedtls_psa_ecp_generate_key
bibledit:mbedtls_psa_ecp_import_key
bibledit:mbedtls_psa_ecp_load_public_part
bibledit:mbedtls_psa_ecp_load_representation
bibledit:mbedtls_psa_ffdh_export_public_key
bibledit:mbedtls_psa_ffdh_generate_key
bibledit:mbedtls_psa_ffdh_import_key
bibledit:mbedtls_psa_ffdh_key_agreement
bibledit:mbedtls_psa_get_random
bibledit:mbedtls_psa_get_stats
bibledit:mbedtls_psa_hash_abort
bibledit:mbedtls_psa_hash_clone
bibledit:mbedtls_psa_hash_compute
bibledit:mbedtls_psa_hash_finish
bibledit:mbedtls_psa_hash_setup
bibledit:mbedtls_psa_hash_update
bibledit:mbedtls_psa_interruptible_set_max_ops
bibledit:mbedtls_psa_key_agreement_ecdh
bibledit:mbedtls_psa_mac_abort
bibledit:mbedtls_psa_mac_compute
bibledit:mbedtls_psa_mac_sign_finish
bibledit:mbedtls_psa_mac_sign_setup
bibledit:mbedtls_psa_mac_update
bibledit:mbedtls_psa_mac_verify_finish
bibledit:mbedtls_psa_mac_verify_setup
bibledit:mbedtls_psa_pake_abort
bibledit:mbedtls_psa_pake_get_implicit_key
bibledit:mbedtls_psa_pake_input
bibledit:mbedtls_psa_pake_output
bibledit:mbedtls_psa_pake_setup
bibledit:mbedtls_psa_rsa_export_key
bibledit:mbedtls_psa_rsa_export_public_key
bibledit:mbedtls_psa_rsa_generate_key
bibledit:mbedtls_psa_rsa_import_key
bibledit:mbedtls_psa_rsa_load_representation
bibledit:mbedtls_psa_rsa_sign_hash
bibledit:mbedtls_psa_rsa_verify_hash
bibledit:mbedtls_psa_sign_hash_abort
bibledit:mbedtls_psa_sign_hash_complete
bibledit:mbedtls_psa_sign_hash_get_num_ops
bibledit:mbedtls_psa_sign_hash_start
bibledit:mbedtls_psa_verify_hash_abort
bibledit:mbedtls_psa_verify_hash_complete
bibledit:mbedtls_psa_verify_hash_get_num_ops
bibledit:mbedtls_psa_verify_hash_start
bibledit:mbedtls_ripemd160
bibledit:mbedtls_ripemd160_clone
bibledit:mbedtls_ripemd160_finish
bibledit:mbedtls_ripemd160_free
bibledit:mbedtls_ripemd160_init
bibledit:mbedtls_ripemd160_self_test
bibledit:mbedtls_ripemd160_starts
bibledit:mbedtls_ripemd160_update
bibledit:mbedtls_rsa_alt_info
bibledit:mbedtls_rsa_check_privkey
bibledit:mbedtls_rsa_check_pub_priv
bibledit:mbedtls_rsa_check_pubkey
bibledit:mbedtls_rsa_complete
bibledit:mbedtls_rsa_copy
bibledit:mbedtls_rsa_deduce_crt
bibledit:mbedtls_rsa_deduce_primes
bibledit:mbedtls_rsa_deduce_private_exponent
bibledit:mbedtls_rsa_export
bibledit:mbedtls_rsa_export_crt
bibledit:mbedtls_rsa_export_raw
bibledit:mbedtls_rsa_free
bibledit:mbedtls_rsa_gen_key
bibledit:mbedtls_rsa_get_bitlen
bibledit:mbedtls_rsa_get_len
bibledit:mbedtls_rsa_get_md_alg
bibledit:mbedtls_rsa_get_padding_mode
bibledit:mbedtls_rsa_import
bibledit:mbedtls_rsa_import_raw
bibledit:mbedtls_rsa_info
bibledit:mbedtls_rsa_init
bibledit:mbedtls_rsa_parse_key
bibledit:mbedtls_rsa_parse_pubkey
bibledit:mbedtls_rsa_pkcs1_decrypt
bibledit:mbedtls_rsa_pkcs1_encrypt
bibledit:mbedtls_rsa_pkcs1_sign
bibledit:mbedtls_rsa_pkcs1_verify
bibledit:mbedtls_rsa_private
bibledit:mbedtls_rsa_public
bibledit:mbedtls_rsa_rsaes_oaep_decrypt
bibledit:mbedtls_rsa_rsaes_oaep_encrypt
bibledit:mbedtls_rsa_rsaes_pkcs1_v15_decrypt
bibledit:mbedtls_rsa_rsaes_pkcs1_v15_encrypt
bibledit:mbedtls_rsa_rsassa_pkcs1_v15_sign
bibledit:mbedtls_rsa_rsassa_pkcs1_v15_verify
bibledit:mbedtls_rsa_rsassa_pss_sign
bibledit:mbedtls_rsa_rsassa_pss_sign_ext
bibledit:mbedtls_rsa_rsassa_pss_sign_no_mode_check
bibledit:mbedtls_rsa_rsassa_pss_verify
bibledit:mbedtls_rsa_rsassa_pss_verify_ext
bibledit:mbedtls_rsa_self_test
bibledit:mbedtls_rsa_set_padding
bibledit:mbedtls_rsa_validate_crt
bibledit:mbedtls_rsa_validate_params
bibledit:mbedtls_rsa_write_key
bibledit:mbedtls_rsa_write_pubkey
bibledit:mbedtls_sha1
bibledit:mbedtls_sha1_clone
bibledit:mbedtls_sha1_finish
bibledit:mbedtls_sha1_free
bibledit:mbedtls_sha1_init
bibledit:mbedtls_sha1_self_test
bibledit:mbedtls_sha1_starts
bibledit:mbedtls_sha1_update
bibledit:mbedtls_sha224_self_test
bibledit:mbedtls_sha256
bibledit:mbedtls_sha256_clone
bibledit:mbedtls_sha256_finish
bibledit:mbedtls_sha256_free
bibledit:mbedtls_sha256_init
bibledit:mbedtls_sha256_self_test
bibledit:mbedtls_sha256_starts
bibledit:mbedtls_sha256_update
bibledit:mbedtls_sha3
bibledit:mbedtls_sha384_self_test
bibledit:mbedtls_sha3_clone
bibledit:mbedtls_sha3_finish
bibledit:mbedtls_sha3_free
bibledit:mbedtls_sha3_init
bibledit:mbedtls_sha3_self_test
bibledit:mbedtls_sha3_starts
bibledit:mbedtls_sha3_update
bibledit:mbedtls_sha512
bibledit:mbedtls_sha512_clone
bibledit:mbedtls_sha512_finish
bibledit:mbedtls_sha512_free
bibledit:mbedtls_sha512_init
bibledit:mbedtls_sha512_self_test
bibledit:mbedtls_sha512_starts
bibledit:mbedtls_sha512_update
bibledit:mbedtls_ssl_add_hs_hdr_to_checksum
bibledit:mbedtls_ssl_add_hs_msg_to_checksum
bibledit:mbedtls_ssl_buffering_free
bibledit:mbedtls_ssl_check_cert_usage
bibledit:mbedtls_ssl_check_curve
bibledit:mbedtls_ssl_check_curve_tls_id
bibledit:mbedtls_ssl_check_pending
bibledit:mbedtls_ssl_check_record
bibledit:mbedtls_ssl_check_timer
bibledit:mbedtls_ssl_cipher_to_psa
bibledit:mbedtls_ssl_ciphersuite_from_id
bibledit:mbedtls_ssl_ciphersuite_from_string
bibledit:mbedtls_ssl_ciphersuite_get_cipher_key_bitlen
bibledit:mbedtls_ssl_ciphersuite_uses_ec
bibledit:mbedtls_ssl_ciphersuite_uses_psk
bibledit:mbedtls_ssl_close_notify
bibledit:mbedtls_ssl_conf_alpn_protocols
bibledit:mbedtls_ssl_conf_authmode
bibledit:mbedtls_ssl_conf_ca_chain
bibledit:mbedtls_ssl_conf_cert_profile
bibledit:mbedtls_ssl_conf_cert_req_ca_list
bibledit:mbedtls_ssl_conf_cid
bibledit:mbedtls_ssl_conf_ciphersuites
bibledit:mbedtls_ssl_conf_curves
bibledit:mbedtls_ssl_conf_dbg
bibledit:mbedtls_ssl_conf_dh_param_bin
bibledit:mbedtls_ssl_conf_dh_param_ctx
bibledit:mbedtls_ssl_conf_dhm_min_bitlen
bibledit:mbedtls_ssl_conf_dtls_anti_replay
bibledit:mbedtls_ssl_conf_dtls_badmac_limit
bibledit:mbedtls_ssl_conf_dtls_cookies
bibledit:mbedtls_ssl_conf_encrypt_then_mac
bibledit:mbedtls_ssl_conf_endpoint
bibledit:mbedtls_ssl_conf_extended_master_secret
bibledit:mbedtls_ssl_conf_groups
bibledit:mbedtls_ssl_conf_handshake_timeout
bibledit:mbedtls_ssl_conf_has_static_psk
bibledit:mbedtls_ssl_conf_legacy_renegotiation
bibledit:mbedtls_ssl_conf_max_frag_len
bibledit:mbedtls_ssl_conf_max_version
bibledit:mbedtls_ssl_conf_min_version
bibledit:mbedtls_ssl_conf_new_session_tickets
bibledit:mbedtls_ssl_conf_own_cert
bibledit:mbedtls_ssl_conf_preference_order
bibledit:mbedtls_ssl_conf_psk
bibledit:mbedtls_ssl_conf_psk_cb
bibledit:mbedtls_ssl_conf_read_timeout
bibledit:mbedtls_ssl_conf_renegotiation
bibledit:mbedtls_ssl_conf_renegotiation_enforced
bibledit:mbedtls_ssl_conf_renegotiation_period
bibledit:mbedtls_ssl_conf_rng
bibledit:mbedtls_ssl_conf_session_cache
bibledit:mbedtls_ssl_conf_session_tickets
bibledit:mbedtls_ssl_conf_session_tickets_cb
bibledit:mbedtls_ssl_conf_sig_algs
bibledit:mbedtls_ssl_conf_sig_hashes
bibledit:mbedtls_ssl_conf_sni
bibledit:mbedtls_ssl_conf_tls13_key_exchange_modes
bibledit:mbedtls_ssl_conf_transport
bibledit:mbedtls_ssl_conf_verify
bibledit:mbedtls_ssl_config_defaults
bibledit:mbedtls_ssl_config_free
bibledit:mbedtls_ssl_config_init
bibledit:mbedtls_ssl_context_load
bibledit:mbedtls_ssl_context_save
bibledit:mbedtls_ssl_decrypt_buf
bibledit:mbedtls_ssl_derive_keys
bibledit:mbedtls_ssl_dtls_replay_check
bibledit:mbedtls_ssl_dtls_replay_reset
bibledit:mbedtls_ssl_dtls_replay_update
bibledit:mbedtls_ssl_encrypt_buf
bibledit:mbedtls_ssl_fetch_input
bibledit:mbedtls_ssl_finish_handshake_msg
bibledit:mbedtls_ssl_flight_free
bibledit:mbedtls_ssl_flight_transmit
bibledit:mbedtls_ssl_flush_output
bibledit:mbedtls_ssl_free
bibledit:mbedtls_ssl_get_alpn_protocol
bibledit:mbedtls_ssl_get_bytes_avail
bibledit:mbedtls_ssl_get_ciphersuite
bibledit:mbedtls_ssl_get_ciphersuite_id
bibledit:mbedtls_ssl_get_ciphersuite_id_from_ssl
bibledit:mbedtls_ssl_get_ciphersuite_name
bibledit:mbedtls_ssl_get_ciphersuite_sig_alg
bibledit:mbedtls_ssl_get_ciphersuite_sig_pk_alg
bibledit:mbedtls_ssl_get_current_mtu
bibledit:mbedtls_ssl_get_curve_name_from_tls_id
bibledit:mbedtls_ssl_get_ecp_group_id_from_tls_id
bibledit:mbedtls_ssl_get_extension_id
bibledit:mbedtls_ssl_get_extension_mask
bibledit:mbedtls_ssl_get_extension_name
bibledit:mbedtls_ssl_get_handshake_transcript
bibledit:mbedtls_ssl_get_hs_sni
bibledit:mbedtls_ssl_get_input_max_frag_len
bibledit:mbedtls_ssl_get_key_exchange_md_tls1_2
bibledit:mbedtls_ssl_get_max_in_record_payload
bibledit:mbedtls_ssl_get_max_out_record_payload
bibledit:mbedtls_ssl_get_mode_from_ciphersuite
bibledit:mbedtls_ssl_get_mode_from_transform
bibledit:mbedtls_ssl_get_output_max_frag_len
bibledit:mbedtls_ssl_get_own_cid
bibledit:mbedtls_ssl_get_peer_cert
bibledit:mbedtls_ssl_get_peer_cid
bibledit:mbedtls_ssl_get_psa_curve_info_from_tls_id
bibledit:mbedtls_ssl_get_record_expansion
bibledit:mbedtls_ssl_get_session
bibledit:mbedtls_ssl_get_tls_id_from_ecp_group_id
bibledit:mbedtls_ssl_get_verify_result
bibledit:mbedtls_ssl_get_version
bibledit:mbedtls_ssl_handle_message_type
bibledit:mbedtls_ssl_handle_pending_alert
bibledit:mbedtls_ssl_handshake
bibledit:mbedtls_ssl_handshake_client_step
bibledit:mbedtls_ssl_handshake_free
bibledit:mbedtls_ssl_handshake_server_step
bibledit:mbedtls_ssl_handshake_step
bibledit:mbedtls_ssl_handshake_wrapup
bibledit:mbedtls_ssl_handshake_wrapup_free_hs_transform
bibledit:mbedtls_ssl_hash_from_md_alg
bibledit:mbedtls_ssl_init
bibledit:mbedtls_ssl_key_export_type_str
bibledit:mbedtls_ssl_list_ciphersuites
bibledit:mbedtls_ssl_md_alg_from_hash
bibledit:mbedtls_ssl_named_group_to_str
bibledit:mbedtls_ssl_optimize_checksum
bibledit:mbedtls_ssl_parse_alpn_ext
bibledit:mbedtls_ssl_parse_certificate
bibledit:mbedtls_ssl_parse_change_cipher_spec
bibledit:mbedtls_ssl_parse_finished
bibledit:mbedtls_ssl_parse_server_name_ext
bibledit:mbedtls_ssl_parse_sig_alg_ext
bibledit:mbedtls_ssl_pend_fatal_alert
bibledit:mbedtls_ssl_pk_alg_from_sig
bibledit:mbedtls_ssl_prepare_handshake_record
bibledit:mbedtls_ssl_print_extension
bibledit:mbedtls_ssl_print_extensions
bibledit:mbedtls_ssl_print_ticket_flags
bibledit:mbedtls_ssl_protocol_version_str
bibledit:mbedtls_ssl_psk_derive_premaster
bibledit:mbedtls_ssl_read
bibledit:mbedtls_ssl_read_record
bibledit:mbedtls_ssl_read_version
bibledit:mbedtls_ssl_recv_flight_completed
bibledit:mbedtls_ssl_renegotiate
bibledit:mbedtls_ssl_resend
bibledit:mbedtls_ssl_resend_hello_request
bibledit:mbedtls_ssl_reset_checksum
bibledit:mbedtls_ssl_reset_in_out_pointers
bibledit:mbedtls_ssl_reset_transcript_for_hrr
bibledit:mbedtls_ssl_send_alert_message
bibledit:mbedtls_ssl_send_fatal_handshake_failure
bibledit:mbedtls_ssl_send_flight_completed
bibledit:mbedtls_ssl_session_copy
bibledit:mbedtls_ssl_session_free
bibledit:mbedtls_ssl_session_init
bibledit:mbedtls_ssl_session_load
bibledit:mbedtls_ssl_session_reset
bibledit:mbedtls_ssl_session_reset_int
bibledit:mbedtls_ssl_session_reset_msg_layer
bibledit:mbedtls_ssl_session_save
bibledit:mbedtls_ssl_session_set_hostname
bibledit:mbedtls_ssl_set_bio
bibledit:mbedtls_ssl_set_calc_verify_md
bibledit:mbedtls_ssl_set_cid
bibledit:mbedtls_ssl_set_client_transport_id
bibledit:mbedtls_ssl_set_datagram_packing
bibledit:mbedtls_ssl_set_export_keys_cb
bibledit:mbedtls_ssl_set_hostname
bibledit:mbedtls_ssl_set_hs_authmode
bibledit:mbedtls_ssl_set_hs_ca_chain
bibledit:mbedtls_ssl_set_hs_dn_hints
bibledit:mbedtls_ssl_set_hs_own_cert
bibledit:mbedtls_ssl_set_hs_psk
bibledit:mbedtls_ssl_set_inbound_transform
bibledit:mbedtls_ssl_set_mtu
bibledit:mbedtls_ssl_set_outbound_transform
bibledit:mbedtls_ssl_set_session
bibledit:mbedtls_ssl_set_timer
bibledit:mbedtls_ssl_set_timer_cb
bibledit:mbedtls_ssl_set_verify
bibledit:mbedtls_ssl_setup
bibledit:mbedtls_ssl_sig_alg_to_str
bibledit:mbedtls_ssl_sig_from_pk
bibledit:mbedtls_ssl_sig_from_pk_alg
bibledit:mbedtls_ssl_start_handshake_msg
bibledit:mbedtls_ssl_start_renegotiation
bibledit:mbedtls_ssl_states_str
bibledit:mbedtls_ssl_tls12_get_preferred_hash_for_sig_alg
bibledit:mbedtls_ssl_tls12_write_client_hello_exts
bibledit:mbedtls_ssl_tls13_calculate_verify_data
bibledit:mbedtls_ssl_tls13_check_received_extension
bibledit:mbedtls_ssl_tls13_check_sig_alg_cert_key_match
bibledit:mbedtls_ssl_tls13_compute_application_transform
bibledit:mbedtls_ssl_tls13_compute_handshake_transform
bibledit:mbedtls_ssl_tls13_compute_resumption_master_secret
bibledit:mbedtls_ssl_tls13_create_psk_binder
bibledit:mbedtls_ssl_tls13_derive_application_secrets
bibledit:mbedtls_ssl_tls13_derive_early_secrets
bibledit:mbedtls_ssl_tls13_derive_handshake_secrets
bibledit:mbedtls_ssl_tls13_derive_resumption_master_secret
bibledit:mbedtls_ssl_tls13_derive_secret
bibledit:mbedtls_ssl_tls13_evolve_secret
bibledit:mbedtls_ssl_tls13_export_handshake_psk
bibledit:mbedtls_ssl_tls13_fetch_handshake_msg
bibledit:mbedtls_ssl_tls13_finalize_client_hello
bibledit:mbedtls_ssl_tls13_generate_and_write_xxdh_key_exchange
bibledit:mbedtls_ssl_tls13_handshake_client_step
bibledit:mbedtls_ssl_tls13_handshake_server_step
bibledit:mbedtls_ssl_tls13_handshake_wrapup
bibledit:mbedtls_ssl_tls13_hello_retry_request_magic
bibledit:mbedtls_ssl_tls13_hkdf_expand_label
bibledit:mbedtls_ssl_tls13_is_supported_versions_ext_present_in_exts
bibledit:mbedtls_ssl_tls13_key_schedule_stage_early
bibledit:mbedtls_ssl_tls13_labels
bibledit:mbedtls_ssl_tls13_make_traffic_keys
bibledit:mbedtls_ssl_tls13_populate_transform
bibledit:mbedtls_ssl_tls13_process_certificate
bibledit:mbedtls_ssl_tls13_process_certificate_verify
bibledit:mbedtls_ssl_tls13_process_finished_message
bibledit:mbedtls_ssl_tls13_read_public_xxdhe_share
bibledit:mbedtls_ssl_tls13_write_binders_of_pre_shared_key_ext
bibledit:mbedtls_ssl_tls13_write_certificate
bibledit:mbedtls_ssl_tls13_write_certificate_verify
bibledit:mbedtls_ssl_tls13_write_change_cipher_spec
bibledit:mbedtls_ssl_tls13_write_client_hello_exts
bibledit:mbedtls_ssl_tls13_write_finished_message
bibledit:mbedtls_ssl_tls13_write_identities_of_pre_shared_key_ext
bibledit:mbedtls_ssl_tls_prf
bibledit:mbedtls_ssl_transform_free
bibledit:mbedtls_ssl_transform_init
bibledit:mbedtls_ssl_update_handshake_status
bibledit:mbedtls_ssl_update_in_pointers
bibledit:mbedtls_ssl_update_out_pointers
bibledit:mbedtls_ssl_validate_ciphersuite
bibledit:mbedtls_ssl_write
bibledit:mbedtls_ssl_write_alpn_ext
bibledit:mbedtls_ssl_write_certificate
bibledit:mbedtls_ssl_write_change_cipher_spec
bibledit:mbedtls_ssl_write_client_hello
bibledit:mbedtls_ssl_write_finished
bibledit:mbedtls_ssl_write_handshake_msg_ext
bibledit:mbedtls_ssl_write_record
bibledit:mbedtls_ssl_write_sig_alg_ext
bibledit:mbedtls_ssl_write_version
bibledit:mbedtls_strerror
bibledit:mbedtls_threading_key_slot_mutex
bibledit:mbedtls_threading_psa_globaldata_mutex
bibledit:mbedtls_threading_psa_rngdata_mutex
bibledit:mbedtls_threading_readdir_mutex
bibledit:mbedtls_tls_prf_types_str
bibledit:mbedtls_to_psa_error
bibledit:mbedtls_x509_crt_check_extended_key_usage
bibledit:mbedtls_x509_crt_check_key_usage
bibledit:mbedtls_x509_crt_free
bibledit:mbedtls_x509_crt_get_ca_istrue
bibledit:mbedtls_x509_crt_info
bibledit:mbedtls_x509_crt_init
bibledit:mbedtls_x509_crt_is_revoked
bibledit:mbedtls_x509_crt_parse
bibledit:mbedtls_x509_crt_parse_cn_inet_pton
bibledit:mbedtls_x509_crt_parse_der
bibledit:mbedtls_x509_crt_parse_der_nocopy
bibledit:mbedtls_x509_crt_parse_der_with_ext_cb
bibledit:mbedtls_x509_crt_parse_file
bibledit:mbedtls_x509_crt_parse_path
bibledit:mbedtls_x509_crt_profile_default
bibledit:mbedtls_x509_crt_profile_next
bibledit:mbedtls_x509_crt_profile_none
bibledit:mbedtls_x509_crt_profile_suiteb
bibledit:mbedtls_x509_crt_verify
bibledit:mbedtls_x509_crt_verify_info
bibledit:mbedtls_x509_crt_verify_restartable
bibledit:mbedtls_x509_crt_verify_with_profile
bibledit:mbedtls_x509_dn_gets
bibledit:mbedtls_x509_free_subject_alt_name
bibledit:mbedtls_x509_get_alg
bibledit:mbedtls_x509_get_alg_null
bibledit:mbedtls_x509_get_ext
bibledit:mbedtls_x509_get_key_usage
bibledit:mbedtls_x509_get_name
bibledit:mbedtls_x509_get_ns_cert_type
bibledit:mbedtls_x509_get_rsassa_pss_params
bibledit:mbedtls_x509_get_serial
bibledit:mbedtls_x509_get_sig
bibledit:mbedtls_x509_get_sig_alg
bibledit:mbedtls_x509_get_subject_alt_name
bibledit:mbedtls_x509_get_subject_alt_name_ext
bibledit:mbedtls_x509_get_time
bibledit:mbedtls_x509_info_cert_type
bibledit:mbedtls_x509_info_key_usage
bibledit:mbedtls_x509_info_subject_alt_name
bibledit:mbedtls_x509_key_size_helper
bibledit:mbedtls_x509_parse_subject_alt_name
bibledit:mbedtls_x509_serial_gets
bibledit:mbedtls_x509_sig_alg_gets
bibledit:mbedtls_x509_time_cmp
bibledit:mbedtls_x509_time_gmtime
bibledit:mbedtls_x509_time_is_future
bibledit:mbedtls_x509_time_is_past
bibledit:mbedtls_zeroize_and_free
bibledit:miniz_def_alloc_func
bibledit:miniz_def_free_func
bibledit:miniz_def_realloc_func
bibledit:mtar_close
bibledit:mtar_finalize
bibledit:mtar_find
bibledit:mtar_next
bibledit:mtar_open
bibledit:mtar_read_data
bibledit:mtar_read_header
bibledit:mtar_rewind
bibledit:mtar_seek
bibledit:mtar_strerror
bibledit:mtar_write_data
bibledit:mtar_write_dir_header
bibledit:mtar_write_file_header
bibledit:mtar_write_header
bibledit:mutex
bibledit:mz_adler32
bibledit:mz_compress
bibledit:mz_compress2
bibledit:mz_compressBound
bibledit:mz_crc32
bibledit:mz_deflate
bibledit:mz_deflateBound
bibledit:mz_deflateEnd
bibledit:mz_deflateInit
bibledit:mz_deflateInit2
bibledit:mz_deflateReset
bibledit:mz_error
bibledit:mz_free
bibledit:mz_inflate
bibledit:mz_inflateEnd
bibledit:mz_inflateInit
bibledit:mz_inflateInit2
bibledit:mz_uncompress
bibledit:mz_version
bibledit:mz_zip_add_mem_to_archive_file_in_place
bibledit:mz_zip_add_mem_to_archive_file_in_place_v2
bibledit:mz_zip_clear_last_error
bibledit:mz_zip_end
bibledit:mz_zip_extract_archive_file_to_heap
bibledit:mz_zip_extract_archive_file_to_heap_v2
bibledit:mz_zip_get_archive_file_start_offset
bibledit:mz_zip_get_archive_size
bibledit:mz_zip_get_central_dir_size
bibledit:mz_zip_get_cfile
bibledit:mz_zip_get_error_string
bibledit:mz_zip_get_last_error
bibledit:mz_zip_get_mode
bibledit:mz_zip_get_type
bibledit:mz_zip_is_zip64
bibledit:mz_zip_peek_last_error
bibledit:mz_zip_read_archive_data
bibledit:mz_zip_reader_end
bibledit:mz_zip_reader_extract_file_to_callback
bibledit:mz_zip_reader_extract_file_to_cfile
bibledit:mz_zip_reader_extract_file_to_file
bibledit:mz_zip_reader_extract_file_to_heap
bibledit:mz_zip_reader_extract_file_to_mem
bibledit:mz_zip_reader_extract_file_to_mem_no_alloc
bibledit:mz_zip_reader_extract_to_callback
bibledit:mz_zip_reader_extract_to_cfile
bibledit:mz_zip_reader_extract_to_file
bibledit:mz_zip_reader_extract_to_heap
bibledit:mz_zip_reader_extract_to_mem
bibledit:mz_zip_reader_extract_to_mem_no_alloc
bibledit:mz_zip_reader_file_stat
bibledit:mz_zip_reader_get_filename
bibledit:mz_zip_reader_get_num_files
bibledit:mz_zip_reader_init
bibledit:mz_zip_reader_init_cfile
bibledit:mz_zip_reader_init_file
bibledit:mz_zip_reader_init_file_v2
bibledit:mz_zip_reader_init_mem
bibledit:mz_zip_reader_is_file_a_directory
bibledit:mz_zip_reader_is_file_encrypted
bibledit:mz_zip_reader_is_file_supported
bibledit:mz_zip_reader_locate_file
bibledit:mz_zip_reader_locate_file_v2
bibledit:mz_zip_set_last_error
bibledit:mz_zip_validate_archive
bibledit:mz_zip_validate_file
bibledit:mz_zip_validate_file_archive
bibledit:mz_zip_validate_mem_archive
bibledit:mz_zip_writer_add_cfile
bibledit:mz_zip_writer_add_file
bibledit:mz_zip_writer_add_from_zip_reader
bibledit:mz_zip_writer_add_mem
bibledit:mz_zip_writer_add_mem_ex
bibledit:mz_zip_writer_add_mem_ex_v2
bibledit:mz_zip_writer_end
bibledit:mz_zip_writer_finalize_archive
bibledit:mz_zip_writer_finalize_heap_archive
bibledit:mz_zip_writer_init
bibledit:mz_zip_writer_init_cfile
bibledit:mz_zip_writer_init_file
bibledit:mz_zip_writer_init_file_v2
bibledit:mz_zip_writer_init_from_reader
bibledit:mz_zip_writer_init_from_reader_v2
bibledit:mz_zip_writer_init_heap
bibledit:mz_zip_writer_init_heap_v2
bibledit:mz_zip_writer_init_v2
bibledit:mz_zip_zero_struct
bibledit:psa_aead_abort
bibledit:psa_aead_decrypt
bibledit:psa_aead_decrypt_setup
bibledit:psa_aead_encrypt
bibledit:psa_aead_encrypt_setup
bibledit:psa_aead_finish
bibledit:psa_aead_generate_nonce
bibledit:psa_aead_set_lengths
bibledit:psa_aead_set_nonce
bibledit:psa_aead_update
bibledit:psa_aead_update_ad
bibledit:psa_aead_verify
bibledit:psa_allocate_buffer_to_slot
bibledit:psa_asymmetric_decrypt
bibledit:psa_asymmetric_encrypt
bibledit:psa_can_do_cipher
bibledit:psa_can_do_hash
bibledit:psa_cipher_abort
bibledit:psa_cipher_decrypt
bibledit:psa_cipher_decrypt_setup
bibledit:psa_cipher_encrypt
bibledit:psa_cipher_encrypt_setup
bibledit:psa_cipher_finish
bibledit:psa_cipher_generate_iv
bibledit:psa_cipher_set_iv
bibledit:psa_cipher_update
bibledit:psa_close_key
bibledit:psa_copy_key
bibledit:psa_copy_key_material_into_slot
bibledit:psa_crypto_driver_pake_get_cipher_suite
bibledit:psa_crypto_driver_pake_get_password
bibledit:psa_crypto_driver_pake_get_password_len
bibledit:psa_crypto_driver_pake_get_peer
bibledit:psa_crypto_driver_pake_get_peer_len
bibledit:psa_crypto_driver_pake_get_user
bibledit:psa_crypto_driver_pake_get_user_len
bibledit:psa_crypto_init
bibledit:psa_crypto_local_input_alloc
bibledit:psa_crypto_local_input_free
bibledit:psa_crypto_local_output_alloc
bibledit:psa_crypto_local_output_free
bibledit:psa_destroy_key
bibledit:psa_destroy_persistent_key
bibledit:psa_driver_wrapper_export_public_key
bibledit:psa_driver_wrapper_get_builtin_key
bibledit:psa_driver_wrapper_get_key_buffer_size
bibledit:psa_export_key
bibledit:psa_export_key_internal
bibledit:psa_export_public_key
bibledit:psa_export_public_key_internal
bibledit:psa_format_key_data_for_storage
bibledit:psa_free_persistent_key_data
bibledit:psa_generate_key
bibledit:psa_generate_key_ext
bibledit:psa_generate_key_internal
bibledit:psa_generate_random
bibledit:psa_generic_status_to_mbedtls
bibledit:psa_get_and_lock_key_slot
bibledit:psa_get_key_attributes
bibledit:psa_hash_abort
bibledit:psa_hash_clone
bibledit:psa_hash_compare
bibledit:psa_hash_compute
bibledit:psa_hash_finish
bibledit:psa_hash_setup
bibledit:psa_hash_update
bibledit:psa_hash_verify
bibledit:psa_import_key
bibledit:psa_import_key_into_slot
bibledit:psa_initialize_key_slots
bibledit:psa_interruptible_get_max_ops
bibledit:psa_interruptible_set_max_ops
bibledit:psa_is_key_present_in_storage
bibledit:psa_is_valid_key_id
bibledit:psa_its_get
bibledit:psa_its_get_info
bibledit:psa_its_remove
bibledit:psa_its_set
bibledit:psa_key_agreement_raw_builtin
bibledit:psa_key_derivation_abort
bibledit:psa_key_derivation_get_capacity
bibledit:psa_key_derivation_input_bytes
bibledit:psa_key_derivation_input_integer
bibledit:psa_key_derivation_input_key
bibledit:psa_key_derivation_key_agreement
bibledit:psa_key_derivation_output_bytes
bibledit:psa_key_derivation_output_key
bibledit:psa_key_derivation_output_key_ext
bibledit:psa_key_derivation_set_capacity
bibledit:psa_key_derivation_setup
bibledit:psa_key_production_parameters_are_default
bibledit:psa_load_persistent_key
bibledit:psa_mac_abort
bibledit:psa_mac_compute
bibledit:psa_mac_sign_finish
bibledit:psa_mac_sign_setup
bibledit:psa_mac_update
bibledit:psa_mac_verify
bibledit:psa_mac_verify_finish
bibledit:psa_mac_verify_setup
bibledit:psa_open_key
bibledit:psa_pake_abort
bibledit:psa_pake_get_implicit_key
bibledit:psa_pake_input
bibledit:psa_pake_output
bibledit:psa_pake_set_password_key
bibledit:psa_pake_set_peer
bibledit:psa_pake_set_role
bibledit:psa_pake_set_user
bibledit:psa_pake_setup
bibledit:psa_parse_key_data_from_storage
bibledit:psa_pk_status_to_mbedtls
bibledit:psa_purge_key
bibledit:psa_raw_key_agreement
bibledit:psa_remove_key_data_from_memory
bibledit:psa_reserve_free_key_slot
bibledit:psa_reset_key_attributes
bibledit:psa_save_persistent_key
bibledit:psa_sign_hash
bibledit:psa_sign_hash_abort
bibledit:psa_sign_hash_builtin
bibledit:psa_sign_hash_complete
bibledit:psa_sign_hash_get_num_ops
bibledit:psa_sign_hash_start
bibledit:psa_sign_message
bibledit:psa_sign_message_builtin
bibledit:psa_status_to_mbedtls
bibledit:psa_to_lms_errors
bibledit:psa_to_md_errors
bibledit:psa_to_pk_rsa_errors
bibledit:psa_to_ssl_errors
bibledit:psa_unregister_read
bibledit:psa_unregister_read_under_mutex
bibledit:psa_validate_key_location
bibledit:psa_validate_key_persistence
bibledit:psa_validate_unstructured_key_bit_size
bibledit:psa_verify_hash
bibledit:psa_verify_hash_abort
bibledit:psa_verify_hash_builtin
bibledit:psa_verify_hash_complete
bibledit:psa_verify_hash_get_num_ops
bibledit:psa_verify_hash_start
bibledit:psa_verify_message
bibledit:psa_verify_message_builtin
bibledit:psa_wipe_all_key_slots
bibledit:psa_wipe_key_slot
bibledit:resource_table
bibledit:running_tasks
bibledit:search_reindex_bibles_running
bibledit:sendreceive_bibles_watchdog
bibledit:sendreceive_changes_watchdog
bibledit:sendreceive_files_watchdog
bibledit:sendreceive_notes_watchdog
bibledit:sendreceive_resources_interrupt
bibledit:sendreceive_resources_watchdog
bibledit:sendreceive_settings_watchdog
bibledit:sqlite3_aggregate_context
bibledit:sqlite3_aggregate_count
bibledit:sqlite3_auto_extension
bibledit:sqlite3_autovacuum_pages
bibledit:sqlite3_backup_finish
bibledit:sqlite3_backup_init
bibledit:sqlite3_backup_pagecount
bibledit:sqlite3_backup_remaining
bibledit:sqlite3_backup_step
bibledit:sqlite3_bind_blob
bibledit:sqlite3_bind_blob64
bibledit:sqlite3_bind_double
bibledit:sqlite3_bind_int
bibledit:sqlite3_bind_int64
bibledit:sqlite3_bind_null
bibledit:sqlite3_bind_parameter_count
bibledit:sqlite3_bind_parameter_index
bibledit:sqlite3_bind_parameter_name
bibledit:sqlite3_bind_pointer
bibledit:sqlite3_bind_text
bibledit:sqlite3_bind_text16
bibledit:sqlite3_bind_text64
bibledit:sqlite3_bind_value
bibledit:sqlite3_bind_zeroblob
bibledit:sqlite3_bind_zeroblob64
bibledit:sqlite3_blob_bytes
bibledit:sqlite3_blob_close
bibledit:sqlite3_blob_open
bibledit:sqlite3_blob_read
bibledit:sqlite3_blob_reopen
bibledit:sqlite3_blob_write
bibledit:sqlite3_busy_handler
bibledit:sqlite3_busy_timeout
bibledit:sqlite3_cancel_auto_extension
bibledit:sqlite3_changes
bibledit:sqlite3_changes64
bibledit:sqlite3_clear_bindings
bibledit:sqlite3_close
bibledit:sqlite3_close_v2
bibledit:sqlite3_collation_needed
bibledit:sqlite3_collation_needed16
bibledit:sqlite3_column_blob
bibledit:sqlite3_column_bytes
bibledit:sqlite3_column_bytes16
bibledit:sqlite3_column_count
bibledit:sqlite3_column_decltype
bibledit:sqlite3_column_decltype16
bibledit:sqlite3_column_double
bibledit:sqlite3_column_int
bibledit:sqlite3_column_int64
bibledit:sqlite3_column_name
bibledit:sqlite3_column_name16
bibledit:sqlite3_column_text
bibledit:sqlite3_column_text16
bibledit:sqlite3_column_type
bibledit:sqlite3_column_value
bibledit:sqlite3_commit_hook
bibledit:sqlite3_compileoption_get
bibledit:sqlite3_compileoption_used
bibledit:sqlite3_complete
bibledit:sqlite3_complete16
bibledit:sqlite3_config
bibledit:sqlite3_context_db_handle
bibledit:sqlite3_create_collation
bibledit:sqlite3_create_collation16
bibledit:sqlite3_create_collation_v2
bibledit:sqlite3_create_filename
bibledit:sqlite3_create_function
bibledit:sqlite3_create_function16
bibledit:sqlite3_create_function_v2
bibledit:sqlite3_create_module
bibledit:sqlite3_create_module_v2
bibledit:sqlite3_create_window_function
bibledit:sqlite3_data_count
bibledit:sqlite3_data_directory
bibledit:sqlite3_database_file_object
bibledit:sqlite3_db_cacheflush
bibledit:sqlite3_db_config
bibledit:sqlite3_db_filename
bibledit:sqlite3_db_handle
bibledit:sqlite3_db_mutex
bibledit:sqlite3_db_readonly
bibledit:sqlite3_db_release_memory
bibledit:sqlite3_db_status
bibledit:sqlite3_declare_vtab
bibledit:sqlite3_deserialize
bibledit:sqlite3_drop_modules
bibledit:sqlite3_enable_load_extension
bibledit:sqlite3_enable_shared_cache
bibledit:sqlite3_errcode
bibledit:sqlite3_errmsg
bibledit:sqlite3_errmsg16
bibledit:sqlite3_errstr
bibledit:sqlite3_exec
bibledit:sqlite3_expanded_sql
bibledit:sqlite3_expired
bibledit:sqlite3_extended_errcode
bibledit:sqlite3_extended_result_codes
bibledit:sqlite3_file_control
bibledit:sqlite3_filename_database
bibledit:sqlite3_filename_journal
bibledit:sqlite3_filename_wal
bibledit:sqlite3_finalize
bibledit:sqlite3_free
bibledit:sqlite3_free_filename
bibledit:sqlite3_free_table
bibledit:sqlite3_get_autocommit
bibledit:sqlite3_get_auxdata
bibledit:sqlite3_get_table
bibledit:sqlite3_global_recover
bibledit:sqlite3_hard_heap_limit64
bibledit:sqlite3_initialize
bibledit:sqlite3_interrupt
bibledit:sqlite3_keyword_check
bibledit:sqlite3_keyword_count
bibledit:sqlite3_keyword_name
bibledit:sqlite3_last_insert_rowid
bibledit:sqlite3_libversion
bibledit:sqlite3_libversion_number
bibledit:sqlite3_limit
bibledit:sqlite3_load_extension
bibledit:sqlite3_log
bibledit:sqlite3_malloc
bibledit:sqlite3_malloc64
bibledit:sqlite3_memory_alarm
bibledit:sqlite3_memory_highwater
bibledit:sqlite3_memory_used
bibledit:sqlite3_mprintf
bibledit:sqlite3_msize
bibledit:sqlite3_mutex_alloc
bibledit:sqlite3_mutex_enter
bibledit:sqlite3_mutex_free
bibledit:sqlite3_mutex_leave
bibledit:sqlite3_mutex_try
bibledit:sqlite3_next_stmt
bibledit:sqlite3_open
bibledit:sqlite3_open16
bibledit:sqlite3_open_v2
bibledit:sqlite3_os_end
bibledit:sqlite3_os_init
bibledit:sqlite3_overload_function
bibledit:sqlite3_prepare
bibledit:sqlite3_prepare16
bibledit:sqlite3_prepare16_v2
bibledit:sqlite3_prepare16_v3
bibledit:sqlite3_prepare_v2
bibledit:sqlite3_prepare_v3
bibledit:sqlite3_profile
bibledit:sqlite3_progress_handler
bibledit:sqlite3_randomness
bibledit:sqlite3_realloc
bibledit:sqlite3_realloc64
bibledit:sqlite3_release_memory
bibledit:sqlite3_reset
bibledit:sqlite3_reset_auto_extension
bibledit:sqlite3_result_blob
bibledit:sqlite3_result_blob64
bibledit:sqlite3_result_double
bibledit:sqlite3_result_error
bibledit:sqlite3_result_error16
bibledit:sqlite3_result_error_code
bibledit:sqlite3_result_error_nomem
bibledit:sqlite3_result_error_toobig
bibledit:sqlite3_result_int
bibledit:sqlite3_result_int64
bibledit:sqlite3_result_null
bibledit:sqlite3_result_pointer
bibledit:sqlite3_result_subtype
bibledit:sqlite3_result_text
bibledit:sqlite3_result_text16
bibledit:sqlite3_result_text16be
bibledit:sqlite3_result_text16le
bibledit:sqlite3_result_text64
bibledit:sqlite3_result_value
bibledit:sqlite3_result_zeroblob
bibledit:sqlite3_result_zeroblob64
bibledit:sqlite3_rollback_hook
bibledit:sqlite3_serialize
bibledit:sqlite3_set_authorizer
bibledit:sqlite3_set_auxdata
bibledit:sqlite3_set_last_insert_rowid
bibledit:sqlite3_shutdown
bibledit:sqlite3_sleep
bibledit:sqlite3_snprintf
bibledit:sqlite3_soft_heap_limit
bibledit:sqlite3_soft_heap_limit64
bibledit:sqlite3_sourceid
bibledit:sqlite3_sql
bibledit:sqlite3_status
bibledit:sqlite3_status64
bibledit:sqlite3_step
bibledit:sqlite3_stmt_busy
bibledit:sqlite3_stmt_isexplain
bibledit:sqlite3_stmt_readonly
bibledit:sqlite3_stmt_status
bibledit:sqlite3_str_append
bibledit:sqlite3_str_appendall
bibledit:sqlite3_str_appendchar
bibledit:sqlite3_str_appendf
bibledit:sqlite3_str_errcode
bibledit:sqlite3_str_finish
bibledit:sqlite3_str_length
bibledit:sqlite3_str_new
bibledit:sqlite3_str_reset
bibledit:sqlite3_str_value
bibledit:sqlite3_str_vappendf
bibledit:sqlite3_strglob
bibledit:sqlite3_stricmp
bibledit:sqlite3_strlike
bibledit:sqlite3_strnicmp
bibledit:sqlite3_system_errno
bibledit:sqlite3_table_column_metadata
bibledit:sqlite3_temp_directory
bibledit:sqlite3_test_control
bibledit:sqlite3_thread_cleanup
bibledit:sqlite3_threadsafe
bibledit:sqlite3_total_changes
bibledit:sqlite3_total_changes64
bibledit:sqlite3_trace
bibledit:sqlite3_trace_v2
bibledit:sqlite3_transfer_bindings
bibledit:sqlite3_txn_state
bibledit:sqlite3_update_hook
bibledit:sqlite3_uri_boolean
bibledit:sqlite3_uri_int64
bibledit:sqlite3_uri_key
bibledit:sqlite3_uri_parameter
bibledit:sqlite3_user_data
bibledit:sqlite3_value_blob
bibledit:sqlite3_value_bytes
bibledit:sqlite3_value_bytes16
bibledit:sqlite3_value_double
bibledit:sqlite3_value_dup
bibledit:sqlite3_value_free
bibledit:sqlite3_value_frombind
bibledit:sqlite3_value_int
bibledit:sqlite3_value_int64
bibledit:sqlite3_value_nochange
bibledit:sqlite3_value_numeric_type
bibledit:sqlite3_value_pointer
bibledit:sqlite3_value_subtype
bibledit:sqlite3_value_text
bibledit:sqlite3_value_text16
bibledit:sqlite3_value_text16be
bibledit:sqlite3_value_text16le
bibledit:sqlite3_value_type
bibledit:sqlite3_version
bibledit:sqlite3_vfs_find
bibledit:sqlite3_vfs_register
bibledit:sqlite3_vfs_unregister
bibledit:sqlite3_vmprintf
bibledit:sqlite3_vsnprintf
bibledit:sqlite3_vtab_collation
bibledit:sqlite3_vtab_config
bibledit:sqlite3_vtab_nochange
bibledit:sqlite3_vtab_on_conflict
bibledit:sqlite3_wal_autocheckpoint
bibledit:sqlite3_wal_checkpoint
bibledit:sqlite3_wal_checkpoint_v2
bibledit:sqlite3_wal_hook
bibledit:sqlite_execute_mutex
bibledit:status
bibledit:stbi_convert_iphone_png_to_rgb
bibledit:stbi_convert_iphone_png_to_rgb_thread
bibledit:stbi_failure_reason
bibledit:stbi_hdr_to_ldr_gamma
bibledit:stbi_hdr_to_ldr_scale
bibledit:stbi_image_free
bibledit:stbi_info
bibledit:stbi_info_from_callbacks
bibledit:stbi_info_from_file
bibledit:stbi_info_from_memory
bibledit:stbi_is_16_bit
bibledit:stbi_is_16_bit_from_callbacks
bibledit:stbi_is_16_bit_from_file
bibledit:stbi_is_16_bit_from_memory
bibledit:stbi_is_hdr
bibledit:stbi_is_hdr_from_callbacks
bibledit:stbi_is_hdr_from_file
bibledit:stbi_is_hdr_from_memory
bibledit:stbi_ldr_to_hdr_gamma
bibledit:stbi_ldr_to_hdr_scale
bibledit:stbi_load
bibledit:stbi_load_16
bibledit:stbi_load_16_from_callbacks
bibledit:stbi_load_16_from_memory
bibledit:stbi_load_from_callbacks
bibledit:stbi_load_from_file
bibledit:stbi_load_from_file_16
bibledit:stbi_load_from_memory
bibledit:stbi_load_gif_from_memory
bibledit:stbi_loadf
bibledit:stbi_loadf_from_callbacks
bibledit:stbi_loadf_from_file
bibledit:stbi_loadf_from_memory
bibledit:stbi_set_flip_vertically_on_load
bibledit:stbi_set_flip_vertically_on_load_thread
bibledit:stbi_set_unpremultiply_on_load
bibledit:stbi_zlib_decode_buffer
bibledit:stbi_zlib_decode_malloc
bibledit:stbi_zlib_decode_malloc_guesssize
bibledit:stbi_zlib_decode_malloc_guesssize_headerflag
bibledit:stbi_zlib_decode_noheader_buffer
bibledit:stbi_zlib_decode_noheader_malloc
bibledit:sword_logic_diatheke_run_mutex
bibledit:sword_logic_installer_mutex
bibledit:sword_logic_installing_module
bibledit:sync_logic_mutex
bibledit:tdefl_compress
bibledit:tdefl_compress_buffer
bibledit:tdefl_compress_mem_to_heap
bibledit:tdefl_compress_mem_to_mem
bibledit:tdefl_compress_mem_to_output
bibledit:tdefl_compressor_alloc
bibledit:tdefl_compressor_free
bibledit:tdefl_create_comp_flags_from_zip_params
bibledit:tdefl_get_adler32
bibledit:tdefl_get_prev_return_status
bibledit:tdefl_init
bibledit:tdefl_write_image_to_png_file_in_memory
bibledit:tdefl_write_image_to_png_file_in_memory_ex
bibledit:thread_cleanup
bibledit:thread_setup
bibledit:tinfl_decompress
bibledit:tinfl_decompress_mem_to_callback
bibledit:tinfl_decompress_mem_to_heap
bibledit:tinfl_decompress_mem_to_mem
bibledit:tinfl_decompressor_alloc
bibledit:tinfl_decompressor_free
bibledit:user_logic_login_failure_time
bibledit:utf8proc_NFC
bibledit:utf8proc_NFD
bibledit:utf8proc_NFKC
bibledit:utf8proc_NFKC_Casefold
bibledit:utf8proc_NFKD
bibledit:utf8proc_category
bibledit:utf8proc_category_string
bibledit:utf8proc_charwidth
bibledit:utf8proc_codepoint_valid
bibledit:utf8proc_decompose
bibledit:utf8proc_decompose_char
bibledit:utf8proc_decompose_custom
bibledit:utf8proc_encode_char
bibledit:utf8proc_errmsg
bibledit:utf8proc_get_property
bibledit:utf8proc_grapheme_break
bibledit:utf8proc_grapheme_break_stateful
bibledit:utf8proc_islower
bibledit:utf8proc_isupper
bibledit:utf8proc_iterate
bibledit:utf8proc_map
bibledit:utf8proc_map_custom
bibledit:utf8proc_normalize_utf32
bibledit:utf8proc_reencode
bibledit:utf8proc_tolower
bibledit:utf8proc_totitle
bibledit:utf8proc_toupper
bibledit:utf8proc_unicode_version
bibledit:utf8proc_utf8class
bibledit:utf8proc_version
bibledit:window
