libKF5Codecs.so.5:_ZN13KEmailAddress16splitAddressListERK7QString
libKF5Codecs.so.5:_ZN13KEmailAddress19extractEmailAddressERK7QString
libKF5Completion.so.5:_ZN15KCompletionBase29setAutoDeleteCompletionObjectEb
libKF5Completion.so.5:_ZN9KLineEditC1EP7QWidget
libKF5ConfigCore.so.5:_ZN11KConfigBase11deleteGroupERK7QString6QFlagsINS_15WriteConfigFlagEE
libKF5ConfigCore.so.5:_ZN11KConfigBase5groupERK7QString
libKF5ConfigCore.so.5:_ZN12KConfigGroup10writeEntryEPKcRK7QString6QFlagsIN11KConfigBase15WriteConfigFlagEE
libKF5ConfigCore.so.5:_ZN12KConfigGroup10writeEntryEPKcRK8QVariant6QFlagsIN11KConfigBase15WriteConfigFlagEE
libKF5ConfigCore.so.5:_ZN12KConfigGroup10writeEntryEPKcS1_6QFlagsIN11KConfigBase15WriteConfigFlagEE
libKF5ConfigCore.so.5:_ZN12KConfigGroup10writeEntryERK7QStringRK8QVariant6QFlagsIN11KConfigBase15WriteConfigFlagEE
libKF5ConfigCore.so.5:_ZN12KConfigGroup11deleteEntryERK7QString6QFlagsIN11KConfigBase15WriteConfigFlagEE
libKF5ConfigCore.so.5:_ZN12KConfigGroup14writePathEntryEPKcRK7QString6QFlagsIN11KConfigBase15WriteConfigFlagEE
libKF5ConfigCore.so.5:_ZN12KConfigGroup4syncEv
libKF5ConfigCore.so.5:_ZN12KConfigGroupC1EP11KConfigBasePKc
libKF5ConfigCore.so.5:_ZN12KConfigGroupC1EP11KConfigBaseRK7QString
libKF5ConfigCore.so.5:_ZN12KConfigGroupD1Ev
libKF5ConfigCore.so.5:_ZN13KSharedConfig10openConfigERK7QString6QFlagsIN7KConfig8OpenFlagEEN14QStandardPaths16StandardLocationE
libKF5ConfigCore.so.5:_ZN14KEMailSettings10setProfileERK7QString
libKF5ConfigCore.so.5:_ZN14KEMailSettings10setSettingENS_7SettingERK7QString
libKF5ConfigCore.so.5:_ZN14KEMailSettingsC1Ev
libKF5ConfigCore.so.5:_ZN14KEMailSettingsD1Ev
libKF5ConfigCore.so.5:_ZN7KConfig16isConfigWritableEb
libKF5ConfigCore.so.5:_ZN7KConfig20reparseConfigurationEv
libKF5ConfigCore.so.5:_ZN7KConfigC1ERK7QString6QFlagsINS_8OpenFlagEEN14QStandardPaths16StandardLocationE
libKF5ConfigCore.so.5:_ZNK11KConfigBase8hasGroupERK7QString
libKF5ConfigCore.so.5:_ZNK12KConfigGroup13readPathEntryEPKcRK7QString
libKF5ConfigCore.so.5:_ZNK12KConfigGroup6hasKeyERK7QString
libKF5ConfigCore.so.5:_ZNK12KConfigGroup8entryMapEv
libKF5ConfigCore.so.5:_ZNK12KConfigGroup9readEntryEPKcRK8QVariant
libKF5ConfigCore.so.5:_ZNK12KConfigGroup9readEntryEPKcS1_
libKF5ConfigCore.so.5:_ZNK12KConfigGroup9readEntryERK7QStringPKc
libKF5ConfigCore.so.5:_ZNK12KConfigGroup9readEntryERK7QStringRK11QStringList
libKF5ConfigCore.so.5:_ZNK14KEMailSettings10getSettingENS_7SettingE
libKF5ConfigCore.so.5:_ZNK14KEMailSettings18defaultProfileNameEv
libKF5CoreAddons.so.5:_ZN22Kdelibs4ConfigMigrator14setConfigFilesERK11QStringList
libKF5CoreAddons.so.5:_ZN22Kdelibs4ConfigMigrator7migrateEv
libKF5CoreAddons.so.5:_ZN22Kdelibs4ConfigMigratorC1ERK7QString
libKF5CoreAddons.so.5:_ZN22Kdelibs4ConfigMigratorD1Ev
libKF5CoreAddons.so.5:_ZN4KJob13setUiDelegateEP14KJobUiDelegate
libKF5CoreAddons.so.5:_ZN5KUserC1ENS_7UIDModeE
libKF5CoreAddons.so.5:_ZN5KUserD1Ev
libKF5CoreAddons.so.5:_ZN8KProcess15setShellCommandERK7QString
libKF5CoreAddons.so.5:_ZN8KProcess20setOutputChannelModeENS_17OutputChannelModeE
libKF5CoreAddons.so.5:_ZN8KProcess7executeEi
libKF5CoreAddons.so.5:_ZN8KProcessC1EP7QObject
libKF5CoreAddons.so.5:_ZN8KProcessD1Ev
libKF5CoreAddons.so.5:_ZNK5KUser8propertyENS_12UserPropertyE
libKF5CoreAddons.so.5:_ZNK5KUser9loginNameEv
libKF5I18n.so.5:_Z6ki18ndPKcS0_
libKF5I18n.so.5:_Z7ki18ndcPKcS0_S0_
libKF5I18n.so.5:_ZN16KLocalizedStringD1Ev
libKF5I18n.so.5:_ZNK16KLocalizedString4subsERK7QStringi5QChar
libKF5I18n.so.5:_ZNK16KLocalizedString4subsEiii5QChar
libKF5I18n.so.5:_ZNK16KLocalizedString8toStringEv
libKF5KIOGui.so.5:_ZN3KIO10OpenUrlJob22setDeleteTemporaryFileEb
libKF5KIOGui.so.5:_ZN3KIO10OpenUrlJobC1ERK4QUrlRK7QStringP7QObject
libKF5KIOWidgets.so.5:_ZN13KUrlRequester10textEditedERK7QString
libKF5KIOWidgets.so.5:_ZN13KUrlRequester11urlSelectedERK4QUrl
libKF5KIOWidgets.so.5:_ZN13KUrlRequester16staticMetaObjectE
libKF5KIOWidgets.so.5:_ZN13KUrlRequester6setUrlERK4QUrl
libKF5KIOWidgets.so.5:_ZN13KUrlRequester9setFilterERK7QString
libKF5KIOWidgets.so.5:_ZN13KUrlRequesterC1EP7QWidget
libKF5KIOWidgets.so.5:_ZN16KShellCompletionC1Ev
libKF5KIOWidgets.so.5:_ZN3KIO13JobUiDelegateC1E6QFlagsIN14KJobUiDelegate4FlagEEP7QWidget
libKF5KIOWidgets.so.5:_ZNK13KUrlRequester3urlEv
libKF5KIOWidgets.so.5:_ZNK13KUrlRequester6buttonEv
libKF5PimTextEdit.so.5:_ZN12KPIMTextEdit16RichTextComposer13createActionsEP17KActionCollection
libKF5PimTextEdit.so.5:_ZN12KPIMTextEdit16RichTextComposer13setTextOrHtmlERK7QString
libKF5PimTextEdit.so.5:_ZN12KPIMTextEdit16RichTextComposer16activateRichTextEv
libKF5PimTextEdit.so.5:_ZN12KPIMTextEdit16RichTextComposer17switchToPlainTextEv
libKF5PimTextEdit.so.5:_ZN12KPIMTextEdit16RichTextComposerC1EP7QWidget
libKF5PimTextEdit.so.5:_ZN12KPIMTextEdit20RichTextEditorWidgetC1EPNS_14RichTextEditorEP7QWidget
libKF5PimTextEdit.so.5:_ZN12KPIMTextEdit22RichTextComposerImages9loadImageERK6QImageRK7QStringS6_
libKF5PimTextEdit.so.5:_ZNK12KPIMTextEdit16RichTextComposer10textOrHtmlEv
libKF5PimTextEdit.so.5:_ZNK12KPIMTextEdit16RichTextComposer17composerControlerEv
libKF5PimTextEdit.so.5:_ZNK12KPIMTextEdit22RichTextComposerImages14imagesWithNameEv
libKF5PimTextEdit.so.5:_ZNK12KPIMTextEdit25RichTextComposerControler14composerImagesEv
libKF5WidgetsAddons.so.5:_ZN11KMessageBox11informationEP7QWidgetRK7QStringS4_S4_6QFlagsINS_6OptionEE
libKF5XmlGui.so.5:_ZN17KActionCollectionC1EP7QObjectRK7QString
libKF5XmlGui.so.5:_ZN8KToolBarC1EP7QWidgetbb
libKF5XmlGui.so.5:_ZNK17KActionCollection6actionERK7QString
libQt5Core.so.5:_Z5qHashRK7QStringj
libQt5Core.so.5:_ZN10QArrayData10deallocateEPS_mm
libQt5Core.so.5:_ZN10QArrayData11shared_nullE
libQt5Core.so.5:_ZN10QArrayData8allocateEmmm6QFlagsINS_16AllocationOptionEE
libQt5Core.so.5:_ZN11QDataStream11resetStatusEv
libQt5Core.so.5:_ZN11QDataStream9setStatusENS_6StatusE
libQt5Core.so.5:_ZN11QDataStreamC1EP10QByteArray6QFlagsIN9QIODevice12OpenModeFlagEE
libQt5Core.so.5:_ZN11QDataStreamD1Ev
libQt5Core.so.5:_ZN11QDataStreamlsEa
libQt5Core.so.5:_ZN11QDataStreamlsEb
libQt5Core.so.5:_ZN11QDataStreamlsEi
libQt5Core.so.5:_ZN11QDataStreamrsERa
libQt5Core.so.5:_ZN11QDataStreamrsERb
libQt5Core.so.5:_ZN11QDataStreamrsERi
libQt5Core.so.5:_ZN11QMetaObject10ConnectionD1Ev
libQt5Core.so.5:_ZN11QMetaObject14normalizedTypeEPKc
libQt5Core.so.5:_ZN11QMetaObject8activateEP7QObjectPKS_iPPv
libQt5Core.so.5:_ZN11QTextStreamlsERK7QString
libQt5Core.so.5:_ZN11QTextStreamlsEc
libQt5Core.so.5:_ZN11QTextStreamlsEj
libQt5Core.so.5:_ZN12QMapDataBase8freeDataEPS_
libQt5Core.so.5:_ZN12QMapDataBase8freeTreeEP12QMapNodeBasei
libQt5Core.so.5:_ZN14QStandardPaths16writableLocationENS_16StandardLocationE
libQt5Core.so.5:_ZN16QLoggingCategoryC1EPKc9QtMsgType
libQt5Core.so.5:_ZN16QLoggingCategoryD1Ev
libQt5Core.so.5:_ZN16QRandomGenerator10_fillRangeEPvS0_
libQt5Core.so.5:_ZN18QRandomGenerator646globalEv
libQt5Core.so.5:_ZN18QRegularExpressionC1ERK7QString6QFlagsINS_13PatternOptionEE
libQt5Core.so.5:_ZN18QRegularExpressionD1Ev
libQt5Core.so.5:_ZN21QAbstractConcatenable14appendLatin1ToEPKciP5QChar
libQt5Core.so.5:_ZN2Qt4endlER11QTextStream
libQt5Core.so.5:_ZN4QDir6removeERK7QString
libQt5Core.so.5:_ZN4QDir8homePathEv
libQt5Core.so.5:_ZN4QDirC1ERK7QString
libQt5Core.so.5:_ZN4QDirD1Ev
libQt5Core.so.5:_ZN4QUrl13fromLocalFileERK7QString
libQt5Core.so.5:_ZN4QUrlD1Ev
libQt5Core.so.5:_ZN5QChar7toUpperEj
libQt5Core.so.5:_ZN5QFile4openE6QFlagsIN9QIODevice12OpenModeFlagEE
libQt5Core.so.5:_ZN5QFileC1ERK7QString
libQt5Core.so.5:_ZN5QFileD1Ev
libQt5Core.so.5:_ZN6QDebug9putStringEPK5QCharm
libQt5Core.so.5:_ZN6QDebugD1Ev
libQt5Core.so.5:_ZN7QObject10childEventEP11QChildEvent
libQt5Core.so.5:_ZN7QObject10timerEventEP11QTimerEvent
libQt5Core.so.5:_ZN7QObject11connectImplEPKS_PPvS1_S3_PN9QtPrivate15QSlotObjectBaseEN2Qt14ConnectionTypeEPKiPK11QMetaObject
libQt5Core.so.5:_ZN7QObject11customEventEP6QEvent
libQt5Core.so.5:_ZN7QObject11eventFilterEPS_P6QEvent
libQt5Core.so.5:_ZN7QObject11qt_metacallEN11QMetaObject4CallEiPPv
libQt5Core.so.5:_ZN7QObject11qt_metacastEPKc
libQt5Core.so.5:_ZN7QObject11setPropertyEPKcRK8QVariant
libQt5Core.so.5:_ZN7QObject12blockSignalsEb
libQt5Core.so.5:_ZN7QObject13connectNotifyERK11QMetaMethod
libQt5Core.so.5:_ZN7QObject13setObjectNameERK7QString
libQt5Core.so.5:_ZN7QObject16disconnectNotifyERK11QMetaMethod
libQt5Core.so.5:_ZN7QObject16staticMetaObjectE
libQt5Core.so.5:_ZN7QObject5eventEP6QEvent
libQt5Core.so.5:_ZN7QObjectC2EPS_
libQt5Core.so.5:_ZN7QObjectD2Ev
libQt5Core.so.5:_ZN7QString11reallocDataEjb
libQt5Core.so.5:_ZN7QString13toUtf8_helperERKS_
libQt5Core.so.5:_ZN7QString14toLower_helperERKS_
libQt5Core.so.5:_ZN7QString14toLower_helperERS_
libQt5Core.so.5:_ZN7QString14trimmed_helperERKS_
libQt5Core.so.5:_ZN7QString15fromUtf8_helperEPKci
libQt5Core.so.5:_ZN7QString17fromLatin1_helperEPKci
libQt5Core.so.5:_ZN7QString20fromLocal8Bit_helperEPKci
libQt5Core.so.5:_ZN7QString6appendERKS_
libQt5Core.so.5:_ZN7QString6insertEi5QChar
libQt5Core.so.5:_ZN7QString6numberEii
libQt5Core.so.5:_ZN7QString6numberEji
libQt5Core.so.5:_ZN7QString6removeE5QCharN2Qt15CaseSensitivityE
libQt5Core.so.5:_ZN7QString6removeERKS_N2Qt15CaseSensitivityE
libQt5Core.so.5:_ZN7QString6resizeEi
libQt5Core.so.5:_ZN7QString6resizeEi5QChar
libQt5Core.so.5:_ZN7QString7replaceE5QCharS0_N2Qt15CaseSensitivityE
libQt5Core.so.5:_ZN7QStringC1EiN2Qt14InitializationE
libQt5Core.so.5:_ZN7QStringaSE5QChar
libQt5Core.so.5:_ZN7QStringaSERKS_
libQt5Core.so.5:_ZN8QProcess20readAllStandardErrorEv
libQt5Core.so.5:_ZN8QProcess21readAllStandardOutputEv
libQt5Core.so.5:_ZN8QVariantC1E13QLatin1String
libQt5Core.so.5:_ZN8QVariantC1ERK11QStringList
libQt5Core.so.5:_ZN8QVariantC1ERK7QString
libQt5Core.so.5:_ZN8QVariantC1ERKS_
libQt5Core.so.5:_ZN8QVariantC1Eb
libQt5Core.so.5:_ZN8QVariantC1Ei
libQt5Core.so.5:_ZN8QVariantC1EiPKvj
libQt5Core.so.5:_ZN8QVariantC1Ej
libQt5Core.so.5:_ZN8QVariantD1Ev
libQt5Core.so.5:_ZN8QVariantaSERKS_
libQt5Core.so.5:_ZN9QFileInfoC1ERK7QString
libQt5Core.so.5:_ZN9QFileInfoD1Ev
libQt5Core.so.5:_ZN9QHashData11free_helperEPFvPNS_4NodeEE
libQt5Core.so.5:_ZN9QHashData11shared_nullE
libQt5Core.so.5:_ZN9QHashData12allocateNodeEi
libQt5Core.so.5:_ZN9QHashData13detach_helperEPFvPNS_4NodeEPvEPFvS1_Eii
libQt5Core.so.5:_ZN9QHashData6rehashEi
libQt5Core.so.5:_ZN9QHashData8freeNodeEPv
libQt5Core.so.5:_ZN9QHashData8nextNodeEPNS_4NodeE
libQt5Core.so.5:_ZN9QIODevice7readAllEv
libQt5Core.so.5:_ZN9QListData11detach_growEPii
libQt5Core.so.5:_ZN9QListData11shared_nullE
libQt5Core.so.5:_ZN9QListData6appendERKS_
libQt5Core.so.5:_ZN9QListData6appendEv
libQt5Core.so.5:_ZN9QListData6detachEi
libQt5Core.so.5:_ZN9QListData7disposeEPNS_4DataE
libQt5Core.so.5:_ZN9QListData7reallocEi
libQt5Core.so.5:_ZN9QMetaType22registerNormalizedTypeERK10QByteArrayPFvPvEPFS3_S3_PKvEi6QFlagsINS_8TypeFlagEEPK11QMetaObject
libQt5Core.so.5:_ZN9QMetaType23registerStreamOperatorsEiPFvR11QDataStreamPKvEPFvS1_PvE
libQt5Core.so.5:_ZN9QMimeData7setDataERK7QStringRK10QByteArray
libQt5Core.so.5:_ZN9QtPrivate12argToQStringE11QStringViewmPPKNS_7ArgBaseE
libQt5Core.so.5:_ZN9QtPrivate18QStringList_filterEPK11QStringListRK18QRegularExpression
libQt5Core.so.5:_ZN9QtPrivate20QStringList_containsEPK11QStringListRK7QStringN2Qt15CaseSensitivityE
libQt5Core.so.5:_ZNK10QByteArray6isNullEv
libQt5Core.so.5:_ZNK11QDataStream6statusEv
libQt5Core.so.5:_ZNK11QObjectData17dynamicMetaObjectEv
libQt5Core.so.5:_ZNK12QMapNodeBase8nextNodeEv
libQt5Core.so.5:_ZNK14QMessageLogger5debugEv
libQt5Core.so.5:_ZNK14QMessageLogger7warningEv
libQt5Core.so.5:_ZNK14QMessageLogger8criticalEv
libQt5Core.so.5:_ZNK4QDir12absolutePathEv
libQt5Core.so.5:_ZNK4QDir4pathEv
libQt5Core.so.5:_ZNK4QDir6mkpathERK7QString
libQt5Core.so.5:_ZNK4QDir9entryListE6QFlagsINS_6FilterEES0_INS_8SortFlagEE
libQt5Core.so.5:_ZNK4QUrl4pathE6QFlagsINS_25ComponentFormattingOptionEE
libQt5Core.so.5:_ZNK7QObject8propertyEPKc
libQt5Core.so.5:_ZNK7QString10startsWithE13QLatin1StringN2Qt15CaseSensitivityE
libQt5Core.so.5:_ZNK7QString10startsWithERKS_N2Qt15CaseSensitivityE
libQt5Core.so.5:_ZNK7QString10toLongLongEPbi
libQt5Core.so.5:_ZNK7QString3argERKS_i5QChar
libQt5Core.so.5:_ZNK7QString3argExii5QChar
libQt5Core.so.5:_ZNK7QString3midEii
libQt5Core.so.5:_ZNK7QString5splitE5QChar6QFlagsIN2Qt18SplitBehaviorFlagsEENS2_15CaseSensitivityE
libQt5Core.so.5:_ZNK7QString7indexOfE5QChariN2Qt15CaseSensitivityE
libQt5Core.so.5:_ZNK7QString7indexOfERKS_iN2Qt15CaseSensitivityE
libQt5Core.so.5:_ZNK7QString8endsWithE13QLatin1StringN2Qt15CaseSensitivityE
libQt5Core.so.5:_ZNK7QStringeqE13QLatin1String
libQt5Core.so.5:_ZNK8QVariant11toByteArrayEv
libQt5Core.so.5:_ZNK8QVariant12toStringListEv
libQt5Core.so.5:_ZNK8QVariant3cmpERKS_
libQt5Core.so.5:_ZNK8QVariant4typeEv
libQt5Core.so.5:_ZNK8QVariant5toIntEPb
libQt5Core.so.5:_ZNK8QVariant6isNullEv
libQt5Core.so.5:_ZNK8QVariant6toBoolEv
libQt5Core.so.5:_ZNK8QVariant6toUIntEPb
libQt5Core.so.5:_ZNK8QVariant7convertEiPv
libQt5Core.so.5:_ZNK8QVariant8toStringEv
libQt5Core.so.5:_ZNK8QVariant8userTypeEv
libQt5Core.so.5:_ZNK8QVariant9constDataEv
libQt5Core.so.5:_ZNK9QFileInfo10isRelativeEv
libQt5Core.so.5:_ZNK9QFileInfo4sizeEv
libQt5Core.so.5:_ZNK9QFileInfo6isFileEv
libQt5Core.so.5:_ZNK9QIODevice11errorStringEv
libQt5Core.so.5:_ZNK9QIODevice20isTransactionStartedEv
libQt5Core.so.5:_ZNK9QMimeData4dataERK7QString
libQt5Core.so.5:_ZTI7QObject
libQt5Core.so.5:_ZeqRK7QStringS1_
libQt5Core.so.5:_Zls6QDebugRK8QVariant
libQt5Core.so.5:_ZlsR11QDataStreamRK7QString
libQt5Core.so.5:_ZlsR11QDataStreamRK8QVariant
libQt5Core.so.5:_ZltRK7QStringS1_
libQt5Core.so.5:_ZrsR11QDataStreamR7QString
libQt5Core.so.5:_ZrsR11QDataStreamR8QVariant
libQt5Core.so.5:qt_version_tag
libQt5DBus.so.5:_ZN15QDBusConnection10sessionBusEv
libQt5DBus.so.5:_ZN15QDBusConnection14registerObjectERK7QStringP7QObject6QFlagsINS_14RegisterOptionEE
libQt5DBus.so.5:_ZN15QDBusConnection7connectERK7QStringS2_S2_S2_P7QObjectPKc
libQt5DBus.so.5:_ZN15QDBusConnectionD1Ev
libQt5DBus.so.5:_ZN20QDBusAbstractAdaptor11qt_metacallEN11QMetaObject4CallEiPPv
libQt5DBus.so.5:_ZN20QDBusAbstractAdaptor11qt_metacastEPKc
libQt5DBus.so.5:_ZN20QDBusAbstractAdaptor16staticMetaObjectE
libQt5DBus.so.5:_ZN20QDBusAbstractAdaptor19setAutoRelaySignalsEb
libQt5DBus.so.5:_ZN20QDBusAbstractAdaptorC2EP7QObject
libQt5DBus.so.5:_ZN20QDBusAbstractAdaptorD2Ev
libQt5DBus.so.5:_ZNK15QDBusConnection11baseServiceEv
libQt5DBus.so.5:_ZTI20QDBusAbstractAdaptor
libQt5Gui.so.5:_ZN10QTextBlock8iteratorppEv
libQt5Gui.so.5:_ZN11QTextCursor10insertHtmlERK7QString
libQt5Gui.so.5:_ZN11QTextCursor11setPositionEiNS_8MoveModeE
libQt5Gui.so.5:_ZN11QTextCursor12endEditBlockEv
libQt5Gui.so.5:_ZN11QTextCursor12movePositionENS_13MoveOperationENS_8MoveModeEi
libQt5Gui.so.5:_ZN11QTextCursor14beginEditBlockEv
libQt5Gui.so.5:_ZN11QTextCursorC1EP13QTextDocument
libQt5Gui.so.5:_ZN11QTextCursorC1ERKS_
libQt5Gui.so.5:_ZN11QTextCursorD1Ev
libQt5Gui.so.5:_ZN11QTextFormatD2Ev
libQt5Gui.so.5:_ZN13QTextDocument11setModifiedEb
libQt5Gui.so.5:_ZN13QTextDocument7setHtmlERK7QString
libQt5Gui.so.5:_ZN13QTextDocumentC1EP7QObject
libQt5Gui.so.5:_ZN13QTextDocumentD1Ev
libQt5Gui.so.5:_ZN6QImage4loadERK7QStringPKc
libQt5Gui.so.5:_ZN6QImageC1Ev
libQt5Gui.so.5:_ZN6QImageD1Ev
libQt5Gui.so.5:_ZN6QImageaSERKS_
libQt5Gui.so.5:_ZNK10QTextBlock4nextEv
libQt5Gui.so.5:_ZNK10QTextBlock5beginEv
libQt5Gui.so.5:_ZNK10QTextBlock7isValidEv
libQt5Gui.so.5:_ZNK10QTextBlock8iterator8fragmentEv
libQt5Gui.so.5:_ZNK11QTextCursor12hasSelectionEv
libQt5Gui.so.5:_ZNK11QTextCursor8positionEv
libQt5Gui.so.5:_ZNK11QTextFormat11intPropertyEi
libQt5Gui.so.5:_ZNK11QTextFormat13toImageFormatEv
libQt5Gui.so.5:_ZNK11QTextFormat14stringPropertyEi
libQt5Gui.so.5:_ZNK11QTextFormat4typeEv
libQt5Gui.so.5:_ZNK13QTextDocument10isModifiedEv
libQt5Gui.so.5:_ZNK13QTextDocument11toPlainTextEv
libQt5Gui.so.5:_ZNK13QTextDocument5beginEv
libQt5Gui.so.5:_ZNK13QTextDocument6toHtmlERK10QByteArray
libQt5Gui.so.5:_ZNK13QTextFragment10charFormatEv
libQt5Gui.so.5:_ZNK6QImage4saveERK7QStringPKci
libQt5Gui.so.5:_ZlsR11QDataStreamRK6QImage
libQt5Gui.so.5:_ZrsR11QDataStreamR6QImage
libQt5Network.so.5:_ZN9QHostInfo13localHostNameEv
libQt5Widgets.so.5:_ZN10QBoxLayout10addStretchEi
libQt5Widgets.so.5:_ZN10QBoxLayout9addLayoutEP7QLayouti
libQt5Widgets.so.5:_ZN10QBoxLayout9addWidgetEP7QWidgeti6QFlagsIN2Qt13AlignmentFlagEE
libQt5Widgets.so.5:_ZN11QHBoxLayoutC1Ev
libQt5Widgets.so.5:_ZN11QPushButton14setAutoDefaultEb
libQt5Widgets.so.5:_ZN11QPushButtonC1ERK7QStringP7QWidget
libQt5Widgets.so.5:_ZN11QVBoxLayoutC1EP7QWidget
libQt5Widgets.so.5:_ZN14QStackedWidget12insertWidgetEiP7QWidget
libQt5Widgets.so.5:_ZN14QStackedWidget15setCurrentIndexEi
libQt5Widgets.so.5:_ZN14QStackedWidgetC1EP7QWidget
libQt5Widgets.so.5:_ZN15QAbstractButton10setCheckedEb
libQt5Widgets.so.5:_ZN15QAbstractButton16staticMetaObjectE
libQt5Widgets.so.5:_ZN15QAbstractButton7clickedEb
libQt5Widgets.so.5:_ZN15QAbstractButton7setTextERK7QString
libQt5Widgets.so.5:_ZN15QAbstractButton7toggledEb
libQt5Widgets.so.5:_ZN6QLabel8setBuddyEP7QWidget
libQt5Widgets.so.5:_ZN6QLabelC1ERK7QStringP7QWidget6QFlagsIN2Qt10WindowTypeEE
libQt5Widgets.so.5:_ZN7QLayout18setContentsMarginsEiiii
libQt5Widgets.so.5:_ZN7QWidget10closeEventEP11QCloseEvent
libQt5Widgets.so.5:_ZN7QWidget10enterEventEP6QEvent
libQt5Widgets.so.5:_ZN7QWidget10leaveEventEP6QEvent
libQt5Widgets.so.5:_ZN7QWidget10paintEventEP11QPaintEvent
libQt5Widgets.so.5:_ZN7QWidget10setEnabledEb
libQt5Widgets.so.5:_ZN7QWidget10setToolTipERK7QString
libQt5Widgets.so.5:_ZN7QWidget10setVisibleEb
libQt5Widgets.so.5:_ZN7QWidget10wheelEventEP11QWheelEvent
libQt5Widgets.so.5:_ZN7QWidget11actionEventEP12QActionEvent
libQt5Widgets.so.5:_ZN7QWidget11changeEventEP6QEvent
libQt5Widgets.so.5:_ZN7QWidget11nativeEventERK10QByteArrayPvPl
libQt5Widgets.so.5:_ZN7QWidget11qt_metacallEN11QMetaObject4CallEiPPv
libQt5Widgets.so.5:_ZN7QWidget11qt_metacastEPKc
libQt5Widgets.so.5:_ZN7QWidget11resizeEventEP12QResizeEvent
libQt5Widgets.so.5:_ZN7QWidget11setDisabledEb
libQt5Widgets.so.5:_ZN7QWidget11tabletEventEP12QTabletEvent
libQt5Widgets.so.5:_ZN7QWidget12focusInEventEP11QFocusEvent
libQt5Widgets.so.5:_ZN7QWidget12setWhatsThisERK7QString
libQt5Widgets.so.5:_ZN7QWidget13dragMoveEventEP14QDragMoveEvent
libQt5Widgets.so.5:_ZN7QWidget13focusOutEventEP11QFocusEvent
libQt5Widgets.so.5:_ZN7QWidget13keyPressEventEP9QKeyEvent
libQt5Widgets.so.5:_ZN7QWidget14dragEnterEventEP15QDragEnterEvent
libQt5Widgets.so.5:_ZN7QWidget14dragLeaveEventEP15QDragLeaveEvent
libQt5Widgets.so.5:_ZN7QWidget14mouseMoveEventEP11QMouseEvent
libQt5Widgets.so.5:_ZN7QWidget15keyReleaseEventEP9QKeyEvent
libQt5Widgets.so.5:_ZN7QWidget15mousePressEventEP11QMouseEvent
libQt5Widgets.so.5:_ZN7QWidget16contextMenuEventEP17QContextMenuEvent
libQt5Widgets.so.5:_ZN7QWidget16inputMethodEventEP17QInputMethodEvent
libQt5Widgets.so.5:_ZN7QWidget16staticMetaObjectE
libQt5Widgets.so.5:_ZN7QWidget17mouseReleaseEventEP11QMouseEvent
libQt5Widgets.so.5:_ZN7QWidget18focusNextPrevChildEb
libQt5Widgets.so.5:_ZN7QWidget21mouseDoubleClickEventEP11QMouseEvent
libQt5Widgets.so.5:_ZN7QWidget5eventEP6QEvent
libQt5Widgets.so.5:_ZN7QWidget8setFocusEN2Qt11FocusReasonE
libQt5Widgets.so.5:_ZN7QWidget9addActionEP7QAction
libQt5Widgets.so.5:_ZN7QWidget9dropEventEP10QDropEvent
libQt5Widgets.so.5:_ZN7QWidget9hideEventEP10QHideEvent
libQt5Widgets.so.5:_ZN7QWidget9moveEventEP10QMoveEvent
libQt5Widgets.so.5:_ZN7QWidget9showEventEP10QShowEvent
libQt5Widgets.so.5:_ZN7QWidgetC1EPS_6QFlagsIN2Qt10WindowTypeEE
libQt5Widgets.so.5:_ZN7QWidgetC2EPS_6QFlagsIN2Qt10WindowTypeEE
libQt5Widgets.so.5:_ZN7QWidgetD2Ev
libQt5Widgets.so.5:_ZN8QToolBar12addSeparatorEv
libQt5Widgets.so.5:_ZN8QToolBar18setToolButtonStyleEN2Qt15ToolButtonStyleE
libQt5Widgets.so.5:_ZN9QCheckBox13setCheckStateEN2Qt10CheckStateE
libQt5Widgets.so.5:_ZN9QCheckBoxC1ERK7QStringP7QWidget
libQt5Widgets.so.5:_ZN9QComboBox10paintEventEP11QPaintEvent
libQt5Widgets.so.5:_ZN9QComboBox10wheelEventEP11QWheelEvent
libQt5Widgets.so.5:_ZN9QComboBox11changeEventEP6QEvent
libQt5Widgets.so.5:_ZN9QComboBox11highlightedEi
libQt5Widgets.so.5:_ZN9QComboBox11insertItemsEiRK11QStringList
libQt5Widgets.so.5:_ZN9QComboBox11qt_metacallEN11QMetaObject4CallEiPPv
libQt5Widgets.so.5:_ZN9QComboBox11qt_metacastEPKc
libQt5Widgets.so.5:_ZN9QComboBox11resizeEventEP12QResizeEvent
libQt5Widgets.so.5:_ZN9QComboBox11setEditableEb
libQt5Widgets.so.5:_ZN9QComboBox12focusInEventEP11QFocusEvent
libQt5Widgets.so.5:_ZN9QComboBox13focusOutEventEP11QFocusEvent
libQt5Widgets.so.5:_ZN9QComboBox13keyPressEventEP9QKeyEvent
libQt5Widgets.so.5:_ZN9QComboBox15keyReleaseEventEP9QKeyEvent
libQt5Widgets.so.5:_ZN9QComboBox15mousePressEventEP11QMouseEvent
libQt5Widgets.so.5:_ZN9QComboBox15setCurrentIndexEi
libQt5Widgets.so.5:_ZN9QComboBox16contextMenuEventEP17QContextMenuEvent
libQt5Widgets.so.5:_ZN9QComboBox16inputMethodEventEP17QInputMethodEvent
libQt5Widgets.so.5:_ZN9QComboBox16staticMetaObjectE
libQt5Widgets.so.5:_ZN9QComboBox17mouseReleaseEventEP11QMouseEvent
libQt5Widgets.so.5:_ZN9QComboBox19currentIndexChangedEi
libQt5Widgets.so.5:_ZN9QComboBox5clearEv
libQt5Widgets.so.5:_ZN9QComboBox5eventEP6QEvent
libQt5Widgets.so.5:_ZN9QComboBox9activatedEi
libQt5Widgets.so.5:_ZN9QComboBox9hideEventEP10QHideEvent
libQt5Widgets.so.5:_ZN9QComboBox9hidePopupEv
libQt5Widgets.so.5:_ZN9QComboBox9showEventEP10QShowEvent
libQt5Widgets.so.5:_ZN9QComboBox9showPopupEv
libQt5Widgets.so.5:_ZN9QComboBoxC1EP7QWidget
libQt5Widgets.so.5:_ZN9QComboBoxC2EP7QWidget
libQt5Widgets.so.5:_ZN9QComboBoxD2Ev
libQt5Widgets.so.5:_ZN9QLineEdit21setClearButtonEnabledEb
libQt5Widgets.so.5:_ZN9QTextEdit10insertHtmlERK7QString
libQt5Widgets.so.5:_ZN9QTextEdit13setTextCursorERK11QTextCursor
libQt5Widgets.so.5:_ZN9QTextEdit15insertPlainTextERK7QString
libQt5Widgets.so.5:_ZN9QTextEdit19ensureCursorVisibleEv
libQt5Widgets.so.5:_ZN9QTextEdit5clearEv
libQt5Widgets.so.5:_ZNK15QAbstractButton9isCheckedEv
libQt5Widgets.so.5:_ZNK7QWidget10redirectedEP6QPoint
libQt5Widgets.so.5:_ZNK7QWidget11initPainterEP8QPainter
libQt5Widgets.so.5:_ZNK7QWidget11paintEngineEv
libQt5Widgets.so.5:_ZNK7QWidget13sharedPainterEv
libQt5Widgets.so.5:_ZNK7QWidget14heightForWidthEi
libQt5Widgets.so.5:_ZNK7QWidget15minimumSizeHintEv
libQt5Widgets.so.5:_ZNK7QWidget16inputMethodQueryEN2Qt16InputMethodQueryE
libQt5Widgets.so.5:_ZNK7QWidget17hasHeightForWidthEv
libQt5Widgets.so.5:_ZNK7QWidget6metricEN12QPaintDevice17PaintDeviceMetricE
libQt5Widgets.so.5:_ZNK7QWidget7devTypeEv
libQt5Widgets.so.5:_ZNK7QWidget8sizeHintEv
libQt5Widgets.so.5:_ZNK9QCheckBox10checkStateEv
libQt5Widgets.so.5:_ZNK9QComboBox12currentIndexEv
libQt5Widgets.so.5:_ZNK9QComboBox15minimumSizeHintEv
libQt5Widgets.so.5:_ZNK9QComboBox16inputMethodQueryEN2Qt16InputMethodQueryE
libQt5Widgets.so.5:_ZNK9QComboBox5countEv
libQt5Widgets.so.5:_ZNK9QComboBox8sizeHintEv
libQt5Widgets.so.5:_ZNK9QLineEdit4textEv
libQt5Widgets.so.5:_ZNK9QTextEdit10textCursorEv
libQt5Widgets.so.5:_ZNK9QTextEdit11toPlainTextEv
libQt5Widgets.so.5:_ZNK9QTextEdit6toHtmlEv
libQt5Widgets.so.5:_ZNK9QTextEdit8documentEv
libQt5Widgets.so.5:_ZTI7QWidget
libQt5Widgets.so.5:_ZTI9QComboBox
libQt5Widgets.so.5:_ZThn16_NK7QWidget10redirectedEP6QPoint
libQt5Widgets.so.5:_ZThn16_NK7QWidget11initPainterEP8QPainter
libQt5Widgets.so.5:_ZThn16_NK7QWidget11paintEngineEv
libQt5Widgets.so.5:_ZThn16_NK7QWidget13sharedPainterEv
libQt5Widgets.so.5:_ZThn16_NK7QWidget6metricEN12QPaintDevice17PaintDeviceMetricE
libQt5Widgets.so.5:_ZThn16_NK7QWidget7devTypeEv
libc.so.6:__cxa_atexit
libc.so.6:__stack_chk_fail
libc.so.6:memcpy
libc.so.6:memmove
libc.so.6:strcmp
libc.so.6:strlen
libstdc++.so.6:_ZTVN10__cxxabiv120__si_class_type_infoE
libstdc++.so.6:_ZdlPv
libstdc++.so.6:_ZdlPvm
libstdc++.so.6:_Znwm
libstdc++.so.6:__cxa_guard_acquire
libstdc++.so.6:__cxa_guard_release
