libfltk.so.1.4:FL_NORMAL_SIZE
libfltk.so.1.4:XKeysymToUcs
libfltk.so.1.4:XUtf8IsNonSpacing
libfltk.so.1.4:XUtf8IsRightToLeft
libfltk.so.1.4:XUtf8Tolower
libfltk.so.1.4:XUtf8Toupper
libfltk.so.1.4:_Z10down_frameiiiij
libfltk.so.1.4:_Z10fl_measurePKcRiS1_i
libfltk.so.1.4:_Z10fl_messagePKcz
libfltk.so.1.4:_Z10fl_x11_xidPK9Fl_Window
libfltk.so.1.4:_Z11debug_arrow7Fl_Rect
libfltk.so.1.4:_Z11fl_choice_nPKcS0_S0_S0_z
libfltk.so.1.4:_Z11fl_contrastjjii
libfltk.so.1.4:_Z11fl_down_boxiiiij
libfltk.so.1.4:_Z11fl_draw_box10Fl_Boxtypeiiiij
libfltk.so.1.4:_Z11fl_flat_boxiiiij
libfltk.so.1.4:_Z11fl_inactivej
libfltk.so.1.4:_Z11fl_no_labelPK8Fl_Labeliiiij
libfltk.so.1.4:_Z11fl_open_uriPKcPci
libfltk.so.1.4:_Z11fl_passwordPKcS0_z
libfltk.so.1.4:_Z11fl_passwordiPKcS0_z
libfltk.so.1.4:_Z11fl_set_spotiiiiiiP9Fl_Window
libfltk.so.1.4:_Z11fl_up_frameiiiij
libfltk.so.1.4:_Z11fl_x11_findm
libfltk.so.1.4:_Z11thin_up_boxiiiij
libfltk.so.1.4:_Z12fl_fix_focusv
libfltk.so.1.4:_Z12fl_gray_rampv
libfltk.so.1.4:_Z12fl_lightnessj
libfltk.so.1.4:_Z12fl_luminancej
libfltk.so.1.4:_Z12fl_rectboundiiiij
libfltk.so.1.4:_Z12round_up_boxiiiij
libfltk.so.1.4:_Z13button_up_boxiiiij
libfltk.so.1.4:_Z13fl_add_symbolPKcPFvjEi
libfltk.so.1.4:_Z13fl_decode_uriPc
libfltk.so.1.4:_Z13fl_down_frameiiiij
libfltk.so.1.4:_Z13fl_draw_arrow7Fl_Rect13Fl_Arrow_Type14Fl_Orientationj
libfltk.so.1.4:_Z13fl_draw_check7Fl_Rectj
libfltk.so.1.4:_Z13fl_draw_radioiiij
libfltk.so.1.4:_Z13fl_oval_focus10Fl_Boxtypeiiiijj
libfltk.so.1.4:_Z13fl_read_imagePhiiiii
libfltk.so.1.4:_Z13fl_reset_spotv
libfltk.so.1.4:_Z13fl_set_statusiiii
libfltk.so.1.4:_Z13thin_down_boxiiiij
libfltk.so.1.4:_Z13thin_up_frameiiiij
libfltk.so.1.4:_Z14fl_dir_chooserPKcS0_i
libfltk.so.1.4:_Z14fl_draw_circleiiij
libfltk.so.1.4:_Z14fl_draw_pixmapPKPKciij
libfltk.so.1.4:_Z14fl_draw_symbolPKciiiij
libfltk.so.1.4:_Z14fl_expand_textPKcPcidRiRdii
libfltk.so.1.4:_Z14fl_parse_colorPKcRhS1_S1_
libfltk.so.1.4:_Z14fl_round_focus10Fl_Boxtypeiiiijj
libfltk.so.1.4:_Z14fl_thin_up_boxiiiij
libfltk.so.1.4:_Z14fl_throw_focusP9Fl_Widget
libfltk.so.1.4:_Z14fl_x11_displayv
libfltk.so.1.4:_Z14round_down_boxiiiij
libfltk.so.1.4:_Z15button_down_boxiiiij
libfltk.so.1.4:_Z15fl_border_frameiiiij
libfltk.so.1.4:_Z15fl_embossed_boxiiiij
libfltk.so.1.4:_Z15fl_engraved_boxiiiij
libfltk.so.1.4:_Z15fl_file_chooserPKcS0_S0_i
libfltk.so.1.4:_Z15fl_filename_extPKc
libfltk.so.1.4:_Z15fl_message_iconv
libfltk.so.1.4:_Z15fl_normal_labelPK8Fl_Labeliiiij
libfltk.so.1.4:_Z15fl_old_shortcutPKc
libfltk.so.1.4:_Z15fl_open_displayv
libfltk.so.1.4:_Z15fl_overlay_rectiiii
libfltk.so.1.4:_Z15fl_return_arrowiiii
libfltk.so.1.4:_Z15fl_round_up_boxiiiij
libfltk.so.1.4:_Z15fl_text_drag_meiP15Fl_Text_Display
libfltk.so.1.4:_Z15fl_text_extentsPKcRiS1_S1_S1_
libfltk.so.1.4:_Z15thin_down_frameiiiij
libfltk.so.1.4:_Z16fl_close_displayv
libfltk.so.1.4:_Z16fl_color_averagejjf
libfltk.so.1.4:_Z16fl_color_chooserPKcRdS1_S1_i
libfltk.so.1.4:_Z16fl_color_chooserPKcRhS1_S1_i
libfltk.so.1.4:_Z16fl_contrast_modei
libfltk.so.1.4:_Z16fl_contrast_modev
libfltk.so.1.4:_Z16fl_diamond_focus10Fl_Boxtypeiiiijj
libfltk.so.1.4:_Z16fl_end_offscreenv
libfltk.so.1.4:_Z16fl_filename_listPKcPPP6direntPFiS3_S3_E
libfltk.so.1.4:_Z16fl_filename_namePKc
libfltk.so.1.4:_Z16fl_message_titlePKc
libfltk.so.1.4:_Z16fl_open_callbackPFvPKcE
libfltk.so.1.4:_Z16fl_overlay_clearv
libfltk.so.1.4:_Z16fl_restore_scalef
libfltk.so.1.4:_Z16fl_rounded_focus10Fl_Boxtypeiiiijj
libfltk.so.1.4:_Z16fl_show_colormapj
libfltk.so.1.4:_Z16fl_thin_down_boxiiiij
libfltk.so.1.4:_Z16fl_thin_up_frameiiiij
libfltk.so.1.4:_Z17fl_capture_windowP9Fl_Windowiiii
libfltk.so.1.4:_Z17fl_contrast_leveli
libfltk.so.1.4:_Z17fl_contrast_levelv
libfltk.so.1.4:_Z17fl_convert_pixmapPKPKcPhj
libfltk.so.1.4:_Z17fl_draw_box_focus10Fl_Boxtypeiiiijj
libfltk.so.1.4:_Z17fl_embossed_frameiiiij
libfltk.so.1.4:_Z17fl_engraved_frameiiiij
libfltk.so.1.4:_Z17fl_filename_isdirPKc
libfltk.so.1.4:_Z17fl_filename_matchPKcS0_
libfltk.so.1.4:_Z17fl_measure_pixmapPKPKcRiS3_
libfltk.so.1.4:_Z17fl_measure_pixmapPKPcRiS2_
libfltk.so.1.4:_Z17fl_normal_measurePK8Fl_LabelRiS2_
libfltk.so.1.4:_Z17fl_override_scalev
libfltk.so.1.4:_Z17fl_round_down_boxiiiij
libfltk.so.1.4:_Z17fl_shortcut_labelj
libfltk.so.1.4:_Z17fl_shortcut_labeljPPKc
libfltk.so.1.4:_Z18fl_begin_offscreenm
libfltk.so.1.4:_Z18fl_filename_expandPciPKc
libfltk.so.1.4:_Z18fl_filename_setextPciPKc
libfltk.so.1.4:_Z18fl_latin1_to_localPKci
libfltk.so.1.4:_Z18fl_local_to_latin1PKci
libfltk.so.1.4:_Z18fl_message_hotspoti
libfltk.so.1.4:_Z18fl_message_hotspotv
libfltk.so.1.4:_Z18fl_thin_down_frameiiiij
libfltk.so.1.4:_Z18fl_x11_use_displayP9_XDisplay
libfltk.so.1.4:_Z19fl_command_modifierv
libfltk.so.1.4:_Z19fl_control_modifierv
libfltk.so.1.4:_Z19fl_create_offscreenii
libfltk.so.1.4:_Z19fl_delete_offscreenm
libfltk.so.1.4:_Z19fl_internal_boxtype10Fl_BoxtypePFviiiijEPFvS_iiiijjE
libfltk.so.1.4:_Z19fl_message_positionP9Fl_Widget
libfltk.so.1.4:_Z19fl_message_positionPiS_
libfltk.so.1.4:_Z19fl_message_positioniii
libfltk.so.1.4:_Z20fl_contrast_functionPFjjjiiE
libfltk.so.1.4:_Z20fl_filename_absolutePciPKc
libfltk.so.1.4:_Z20fl_filename_absolutePciPKcS1_
libfltk.so.1.4:_Z20fl_filename_relativePciPKc
libfltk.so.1.4:_Z20fl_filename_relativePciPKcS1_
libfltk.so.1.4:_Z20fl_rescale_offscreenRm
libfltk.so.1.4:_Z20fl_sendClientMessagemmmmmmm
libfltk.so.1.4:_Z20fl_text_drag_prepareiiP15Fl_Text_Display
libfltk.so.1.4:_Z21fl_define_FL_OVAL_BOXv
libfltk.so.1.4:_Z21fl_filename_free_listPPP6direnti
libfltk.so.1.4:_Z21fl_local_to_mac_romanPKci
libfltk.so.1.4:_Z21fl_mac_roman_to_localPKci
libfltk.so.1.4:_Z21fl_message_icon_labelPKc
libfltk.so.1.4:_Z22fl_create_print_windowv
libfltk.so.1.4:_Z22fl_define_FL_RFLAT_BOXv
libfltk.so.1.4:_Z23fl_define_FL_GTK_UP_BOXv
libfltk.so.1.4:_Z23fl_define_FL_ICON_LABELv
libfltk.so.1.4:_Z23fl_define_FL_OXY_UP_BOXv
libfltk.so.1.4:_Z23fl_define_FL_SHADOW_BOXv
libfltk.so.1.4:_Z23fl_print_or_copy_windowP9Fl_Windowbi
libfltk.so.1.4:_Z23fl_send_system_handlersPv
libfltk.so.1.4:_Z24fl_define_FL_DIAMOND_BOXv
libfltk.so.1.4:_Z24fl_define_FL_IMAGE_LABELv
libfltk.so.1.4:_Z24fl_define_FL_MULTI_LABELv
libfltk.so.1.4:_Z24fl_define_FL_ROUNDED_BOXv
libfltk.so.1.4:_Z24fl_define_FL_RSHADOW_BOXv
libfltk.so.1.4:_Z24fl_file_chooser_callbackPFvPKcE
libfltk.so.1.4:_Z24fl_file_chooser_ok_labelPKc
libfltk.so.1.4:_Z24fl_message_title_defaultPKc
libfltk.so.1.4:_Z25fl_clipboard_notify_emptyv
libfltk.so.1.4:_Z25fl_define_FL_GLEAM_UP_BOXv
libfltk.so.1.4:_Z25fl_define_FL_ROUND_UP_BOXv
libfltk.so.1.4:_Z25fl_define_FL_SHADOW_LABELv
libfltk.so.1.4:_Z27fl_define_FL_EMBOSSED_LABELv
libfltk.so.1.4:_Z27fl_define_FL_ENGRAVED_LABELv
libfltk.so.1.4:_Z27fl_define_FL_PLASTIC_UP_BOXv
libfltk.so.1.4:_Z27fl_trigger_clipboard_notifyi
libfltk.so.1.4:_Z6fl_askPKcz
libfltk.so.1.4:_Z6up_boxiiiij
libfltk.so.1.4:_Z7fl_beepi
libfltk.so.1.4:_Z7fl_drawPKciff
libfltk.so.1.4:_Z7fl_drawPKcii
libfltk.so.1.4:_Z7fl_drawPKciiiijP8Fl_Imageii
libfltk.so.1.4:_Z7fl_drawPKciiiijPFvS0_iiiEP8Fl_Imageii
libfltk.so.1.4:_Z7fl_drawiPKcii
libfltk.so.1.4:_Z7fl_findm
libfltk.so.1.4:_Z7fl_fontii
libfltk.so.1.4:_Z7fl_xid_PK9Fl_Window
libfltk.so.1.4:_Z8down_boxiiiij
libfltk.so.1.4:_Z8fl_alertPKcz
libfltk.so.1.4:_Z8fl_framePKciiii
libfltk.so.1.4:_Z8fl_inputPKcS0_z
libfltk.so.1.4:_Z8fl_inputiPKcS0_z
libfltk.so.1.4:_Z8fl_widthPKc
libfltk.so.1.4:_Z8up_frameiiiij
libfltk.so.1.4:_Z9fl_choicePKcS0_S0_S0_z
libfltk.so.1.4:_Z9fl_cursor9Fl_Cursor
libfltk.so.1.4:_Z9fl_cursor9Fl_Cursorjj
libfltk.so.1.4:_Z9fl_frame2PKciiii
libfltk.so.1.4:_Z9fl_handleRK7_XEvent
libfltk.so.1.4:_Z9fl_heightii
libfltk.so.1.4:_Z9fl_no_boxiiiij
libfltk.so.1.4:_Z9fl_scrolliiiiiiPFvPviiiiES_
libfltk.so.1.4:_Z9fl_up_boxiiiij
libfltk.so.1.4:_Z9fl_x11_gcv
libfltk.so.1.4:_Z9fl_xpixelhhh
libfltk.so.1.4:_Z9fl_xpixelj
libfltk.so.1.4:_Z9oxy_arrow7Fl_Rect13Fl_Arrow_Type14Fl_Orientationj
libfltk.so.1.4:_ZN10Fl_Browser11item_selectEPvi
libfltk.so.1.4:_ZN10Fl_Browser11remove_iconEi
libfltk.so.1.4:_ZN10Fl_Browser12linepositionEiNS_16Fl_Line_PositionE
libfltk.so.1.4:_ZN10Fl_Browser3addEPKcPv
libfltk.so.1.4:_ZN10Fl_Browser4dataEiPv
libfltk.so.1.4:_ZN10Fl_Browser4hideEi
libfltk.so.1.4:_ZN10Fl_Browser4iconEiP8Fl_Image
libfltk.so.1.4:_ZN10Fl_Browser4loadEPKc
libfltk.so.1.4:_ZN10Fl_Browser4moveEii
libfltk.so.1.4:_ZN10Fl_Browser4showEi
libfltk.so.1.4:_ZN10Fl_Browser4swapEP8FL_BLINES1_
libfltk.so.1.4:_ZN10Fl_Browser4swapEii
libfltk.so.1.4:_ZN10Fl_Browser4textEiPKc
libfltk.so.1.4:_ZN10Fl_Browser5clearEv
libfltk.so.1.4:_ZN10Fl_Browser6insertEiP8FL_BLINE
libfltk.so.1.4:_ZN10Fl_Browser6insertEiPKcPv
libfltk.so.1.4:_ZN10Fl_Browser6removeEi
libfltk.so.1.4:_ZN10Fl_Browser6selectEii
libfltk.so.1.4:_ZN10Fl_Browser7_removeEi
libfltk.so.1.4:_ZN10Fl_Browser7displayEii
libfltk.so.1.4:_ZN10Fl_Browser8textsizeEi
libfltk.so.1.4:_ZN10Fl_BrowserC1EiiiiPKc
libfltk.so.1.4:_ZN10Fl_BrowserC2EiiiiPKc
libfltk.so.1.4:_ZN10Fl_Counter12arrow_widthsERiS0_
libfltk.so.1.4:_ZN10Fl_Counter12increment_cbEv
libfltk.so.1.4:_ZN10Fl_Counter13calc_mouseobjEv
libfltk.so.1.4:_ZN10Fl_Counter15repeat_callbackEPv
libfltk.so.1.4:_ZN10Fl_Counter4drawEv
libfltk.so.1.4:_ZN10Fl_Counter6handleEi
libfltk.so.1.4:_ZN10Fl_CounterC1EiiiiPKc
libfltk.so.1.4:_ZN10Fl_CounterC2EiiiiPKc
libfltk.so.1.4:_ZN10Fl_CounterD0Ev
libfltk.so.1.4:_ZN10Fl_CounterD1Ev
libfltk.so.1.4:_ZN10Fl_CounterD2Ev
libfltk.so.1.4:_ZN10Fl_Message10button_cb_EP9Fl_WidgetPv
libfltk.so.1.4:_ZN10Fl_Message10icon_labelEPKc
libfltk.so.1.4:_ZN10Fl_Message10resizeformEv
libfltk.so.1.4:_ZN10Fl_Message10window_cb_EP9Fl_WidgetPv
libfltk.so.1.4:_ZN10Fl_Message11input_size_E
libfltk.so.1.4:_ZN10Fl_Message12message_iconEv
libfltk.so.1.4:_ZN10Fl_Message13input_buffer_E
libfltk.so.1.4:_ZN10Fl_Message13input_innardsEPKcP13__va_list_tagS1_hib
libfltk.so.1.4:_ZN10Fl_Message13message_icon_E
libfltk.so.1.4:_ZN10Fl_Message13message_titleEPKc
libfltk.so.1.4:_ZN10Fl_Message14form_position_E
libfltk.so.1.4:_ZN10Fl_Message14message_title_E
libfltk.so.1.4:_ZN10Fl_Message15enable_hotspot_E
libfltk.so.1.4:_ZN10Fl_Message19message_icon_label_E
libfltk.so.1.4:_ZN10Fl_Message21message_title_defaultEPKc
libfltk.so.1.4:_ZN10Fl_Message22message_title_default_E
libfltk.so.1.4:_ZN10Fl_Message7form_x_E
libfltk.so.1.4:_ZN10Fl_Message7form_y_E
libfltk.so.1.4:_ZN10Fl_Message7innardsEPKcP13__va_list_tagS1_S1_S1_
libfltk.so.1.4:_ZN10Fl_MessageC1EPKc
libfltk.so.1.4:_ZN10Fl_MessageC2EPKc
libfltk.so.1.4:_ZN10Fl_Printer10begin_pageEv
libfltk.so.1.4:_ZN10Fl_Printer10dialog_allE
libfltk.so.1.4:_ZN10Fl_Printer10is_currentEv
libfltk.so.1.4:_ZN10Fl_Printer11dialog_fromE
libfltk.so.1.4:_ZN10Fl_Printer11set_currentEv
libfltk.so.1.4:_ZN10Fl_Printer11untranslateEv
libfltk.so.1.4:_ZN10Fl_Printer12dialog_pagesE
libfltk.so.1.4:_ZN10Fl_Printer12dialog_rangeE
libfltk.so.1.4:_ZN10Fl_Printer12dialog_titleE
libfltk.so.1.4:_ZN10Fl_Printer12property_useE
libfltk.so.1.4:_ZN10Fl_Printer13dialog_copiesE
libfltk.so.1.4:_ZN10Fl_Printer13dialog_copyNoE
libfltk.so.1.4:_ZN10Fl_Printer13property_modeE
libfltk.so.1.4:_ZN10Fl_Printer13property_saveE
libfltk.so.1.4:_ZN10Fl_Printer14dialog_printerE
libfltk.so.1.4:_ZN10Fl_Printer14printable_rectEPiS0_
libfltk.so.1.4:_ZN10Fl_Printer14property_titleE
libfltk.so.1.4:_ZN10Fl_Printer15property_cancelE
libfltk.so.1.4:_ZN10Fl_Printer16newPrinterDriverEv
libfltk.so.1.4:_ZN10Fl_Printer17dialog_propertiesE
libfltk.so.1.4:_ZN10Fl_Printer17property_pagesizeE
libfltk.so.1.4:_ZN10Fl_Printer19dialog_print_buttonE
libfltk.so.1.4:_ZN10Fl_Printer20dialog_cancel_buttonE
libfltk.so.1.4:_ZN10Fl_Printer20dialog_print_to_fileE
libfltk.so.1.4:_ZN10Fl_Printer5scaleEff
libfltk.so.1.4:_ZN10Fl_Printer6originEPiS0_
libfltk.so.1.4:_ZN10Fl_Printer6originEii
libfltk.so.1.4:_ZN10Fl_Printer6rotateEf
libfltk.so.1.4:_ZN10Fl_Printer7end_jobEv
libfltk.so.1.4:_ZN10Fl_Printer7marginsEPiS0_S0_S0_
libfltk.so.1.4:_ZN10Fl_Printer8end_pageEv
libfltk.so.1.4:_ZN10Fl_Printer9begin_jobEiPiS0_PPc
libfltk.so.1.4:_ZN10Fl_Printer9dialog_toE
libfltk.so.1.4:_ZN10Fl_Printer9translateEii
libfltk.so.1.4:_ZN10Fl_PrinterC1Ev
libfltk.so.1.4:_ZN10Fl_PrinterC2Ev
libfltk.so.1.4:_ZN10Fl_PrinterD0Ev
libfltk.so.1.4:_ZN10Fl_PrinterD1Ev
libfltk.so.1.4:_ZN10Fl_PrinterD2Ev
libfltk.so.1.4:_ZN10Fl_Spinner16Fl_Spinner_Input6handleEi
libfltk.so.1.4:_ZN10Fl_Spinner4drawEv
libfltk.so.1.4:_ZN10Fl_Spinner4stepEd
libfltk.so.1.4:_ZN10Fl_Spinner4typeEh
libfltk.so.1.4:_ZN10Fl_Spinner5sb_cbEP9Fl_WidgetPS_
libfltk.so.1.4:_ZN10Fl_Spinner6handleEi
libfltk.so.1.4:_ZN10Fl_Spinner6resizeEiiii
libfltk.so.1.4:_ZN10Fl_Spinner6updateEv
libfltk.so.1.4:_ZN10Fl_SpinnerC1EiiiiPKc
libfltk.so.1.4:_ZN10Fl_SpinnerC2EiiiiPKc
libfltk.so.1.4:_ZN10Fl_Timeout11add_timeoutEdPFvPvES0_
libfltk.so.1.4:_ZN10Fl_Timeout11do_timeoutsEv
libfltk.so.1.4:_ZN10Fl_Timeout11has_timeoutEPFvPvES0_
libfltk.so.1.4:_ZN10Fl_Timeout12free_timeoutE
libfltk.so.1.4:_ZN10Fl_Timeout12make_currentEv
libfltk.so.1.4:_ZN10Fl_Timeout12time_to_waitEd
libfltk.so.1.4:_ZN10Fl_Timeout13first_timeoutE
libfltk.so.1.4:_ZN10Fl_Timeout14remove_timeoutEPFvPvES0_
libfltk.so.1.4:_ZN10Fl_Timeout14repeat_timeoutEdPFvPvES0_
libfltk.so.1.4:_ZN10Fl_Timeout15current_timeoutE
libfltk.so.1.4:_ZN10Fl_Timeout15elapse_timeoutsEv
libfltk.so.1.4:_ZN10Fl_Timeout19remove_next_timeoutEPFvPvES0_PS0_
libfltk.so.1.4:_ZN10Fl_Timeout3getEdPFvPvES0_
libfltk.so.1.4:_ZN10Fl_Timeout6insertEv
libfltk.so.1.4:_ZN10Fl_Timeout7currentEv
libfltk.so.1.4:_ZN10Fl_Timeout7releaseEv
libfltk.so.1.4:_ZN10Fl_Tooltip10enter_areaEP9Fl_WidgetiiiiPKc
libfltk.so.1.4:_ZN10Fl_Tooltip10hidedelay_E
libfltk.so.1.4:_ZN10Fl_Tooltip10textcolor_E
libfltk.so.1.4:_ZN10Fl_Tooltip11hoverdelay_E
libfltk.so.1.4:_ZN10Fl_Tooltip11wrap_width_E
libfltk.so.1.4:_ZN10Fl_Tooltip13draw_symbols_E
libfltk.so.1.4:_ZN10Fl_Tooltip13margin_width_E
libfltk.so.1.4:_ZN10Fl_Tooltip14current_windowEv
libfltk.so.1.4:_ZN10Fl_Tooltip14margin_height_E
libfltk.so.1.4:_ZN10Fl_Tooltip20set_enter_exit_once_Ev
libfltk.so.1.4:_ZN10Fl_Tooltip4exitE
libfltk.so.1.4:_ZN10Fl_Tooltip5enterE
libfltk.so.1.4:_ZN10Fl_Tooltip5exit_EP9Fl_Widget
libfltk.so.1.4:_ZN10Fl_Tooltip5font_E
libfltk.so.1.4:_ZN10Fl_Tooltip5size_E
libfltk.so.1.4:_ZN10Fl_Tooltip6color_E
libfltk.so.1.4:_ZN10Fl_Tooltip6delay_E
libfltk.so.1.4:_ZN10Fl_Tooltip6enter_EP9Fl_Widget
libfltk.so.1.4:_ZN10Fl_Tooltip7currentEP9Fl_Widget
libfltk.so.1.4:_ZN10Fl_Tooltip7widget_E
libfltk.so.1.4:_ZN10menuwindow10autoscrollEi
libfltk.so.1.4:_ZN10menuwindow12handle_part1Ei
libfltk.so.1.4:_ZN10menuwindow12handle_part2Eii
libfltk.so.1.4:_ZN10menuwindow12set_selectedEi
libfltk.so.1.4:_ZN10menuwindow13find_selectedEii
libfltk.so.1.4:_ZN10menuwindow15display_height_E
libfltk.so.1.4:_ZN10menuwindow4drawEv
libfltk.so.1.4:_ZN10menuwindow6handleEi
libfltk.so.1.4:_ZN10menuwindow6titlexEi
libfltk.so.1.4:_ZN10menuwindow7parent_E
libfltk.so.1.4:_ZN10menuwindow8positionEii
libfltk.so.1.4:_ZN10menuwindow9drawentryEPK12Fl_Menu_Itemii
libfltk.so.1.4:_ZN10menuwindow9is_insideEii
libfltk.so.1.4:_ZN10menuwindowC1EPK12Fl_Menu_ItemiiiiS2_S2_iii
libfltk.so.1.4:_ZN10menuwindowC2EPK12Fl_Menu_ItemiiiiS2_S2_iii
libfltk.so.1.4:_ZN10menuwindowD0Ev
libfltk.so.1.4:_ZN10menuwindowD1Ev
libfltk.so.1.4:_ZN10menuwindowD2Ev
libfltk.so.1.4:_ZN11Fl_Adjuster12value_damageEv
libfltk.so.1.4:_ZN11Fl_Adjuster4drawEv
libfltk.so.1.4:_ZN11Fl_Adjuster6handleEi
libfltk.so.1.4:_ZN11Fl_AdjusterC1EiiiiPKc
libfltk.so.1.4:_ZN11Fl_AdjusterC2EiiiiPKc
libfltk.so.1.4:_ZN11Fl_Browser_10update_topEv
libfltk.so.1.4:_ZN11Fl_Browser_11item_selectEPvi
libfltk.so.1.4:_ZN11Fl_Browser_11redraw_lineEPv
libfltk.so.1.4:_ZN11Fl_Browser_11select_onlyEPvi
libfltk.so.1.4:_ZN11Fl_Browser_4drawEv
libfltk.so.1.4:_ZN11Fl_Browser_4sortEi
libfltk.so.1.4:_ZN11Fl_Browser_6handleEi
libfltk.so.1.4:_ZN11Fl_Browser_6resizeEiiii
libfltk.so.1.4:_ZN11Fl_Browser_6selectEPvii
libfltk.so.1.4:_ZN11Fl_Browser_7displayEPv
libfltk.so.1.4:_ZN11Fl_Browser_8deletingEPv
libfltk.so.1.4:_ZN11Fl_Browser_8deselectEi
libfltk.so.1.4:_ZN11Fl_Browser_8new_listEv
libfltk.so.1.4:_ZN11Fl_Browser_8swappingEPvS0_
libfltk.so.1.4:_ZN11Fl_Browser_9find_itemEi
libfltk.so.1.4:_ZN11Fl_Browser_9hpositionEi
libfltk.so.1.4:_ZN11Fl_Browser_9insertingEPvS0_
libfltk.so.1.4:_ZN11Fl_Browser_9replacingEPvS0_
libfltk.so.1.4:_ZN11Fl_Browser_9vpositionEi
libfltk.so.1.4:_ZN11Fl_Browser_C1EiiiiPKc
libfltk.so.1.4:_ZN11Fl_Browser_C2EiiiiPKc
libfltk.so.1.4:_ZN11Fl_Menu_Bar4drawEv
libfltk.so.1.4:_ZN11Fl_Menu_Bar6handleEi
libfltk.so.1.4:_ZN11Fl_Menu_Bar9play_menuEPK12Fl_Menu_Item
libfltk.so.1.4:_ZN11Fl_Menu_BarC1EiiiiPKc
libfltk.so.1.4:_ZN11Fl_Menu_BarC2EiiiiPKc
libfltk.so.1.4:_ZN11Fl_Progress4drawEv
libfltk.so.1.4:_ZN11Fl_ProgressC1EiiiiPKc
libfltk.so.1.4:_ZN11Fl_ProgressC2EiiiiPKc
libfltk.so.1.4:_ZN11Fl_Terminal10RingBuffer10clear_histEv
libfltk.so.1.4:_ZN11Fl_Terminal10RingBuffer12u8c_disp_rowEi
libfltk.so.1.4:_ZN11Fl_Terminal10RingBuffer12u8c_hist_rowEi
libfltk.so.1.4:_ZN11Fl_Terminal10RingBuffer12u8c_ring_rowEi
libfltk.so.1.4:_ZN11Fl_Terminal10RingBuffer13move_disp_rowEii
libfltk.so.1.4:_ZN11Fl_Terminal10RingBuffer13offset_adjustEi
libfltk.so.1.4:_ZN11Fl_Terminal10RingBuffer15clear_disp_rowsEiiRKNS_9CharStyleE
libfltk.so.1.4:_ZN11Fl_Terminal10RingBuffer16change_disp_colsEiRKNS_9CharStyleE
libfltk.so.1.4:_ZN11Fl_Terminal10RingBuffer16change_disp_rowsEiRKNS_9CharStyleE
libfltk.so.1.4:_ZN11Fl_Terminal10RingBuffer16u8c_hist_use_rowEi
libfltk.so.1.4:_ZN11Fl_Terminal10RingBuffer5clearEv
libfltk.so.1.4:_ZN11Fl_Terminal10RingBuffer6createEiii
libfltk.so.1.4:_ZN11Fl_Terminal10RingBuffer6resizeEiiiRKNS_9CharStyleE
libfltk.so.1.4:_ZN11Fl_Terminal10RingBuffer6scrollEiRKNS_9CharStyleE
libfltk.so.1.4:_ZN11Fl_Terminal10RingBuffer8new_copyEiiiRKNS_9CharStyleE
libfltk.so.1.4:_ZN11Fl_Terminal10RingBufferC1Eiii
libfltk.so.1.4:_ZN11Fl_Terminal10RingBufferC1Ev
libfltk.so.1.4:_ZN11Fl_Terminal10RingBufferC2Eiii
libfltk.so.1.4:_ZN11Fl_Terminal10RingBufferC2Ev
libfltk.so.1.4:_ZN11Fl_Terminal10RingBufferD1Ev
libfltk.so.1.4:_ZN11Fl_Terminal10RingBufferD2Ev
libfltk.so.1.4:_ZN11Fl_Terminal10clear_lineEi
libfltk.so.1.4:_ZN11Fl_Terminal10clear_lineEv
libfltk.so.1.4:_ZN11Fl_Terminal10cursor_colEi
libfltk.so.1.4:_ZN11Fl_Terminal10cursor_eolEv
libfltk.so.1.4:_ZN11Fl_Terminal10cursor_rowEi
libfltk.so.1.4:_ZN11Fl_Terminal10cursor_solEv
libfltk.so.1.4:_ZN11Fl_Terminal10handle_SGREv
libfltk.so.1.4:_ZN11Fl_Terminal10handle_escEv
libfltk.so.1.4:_ZN11Fl_Terminal10margin_topEi
libfltk.so.1.4:_ZN11Fl_Terminal10print_charEPKci
libfltk.so.1.4:_ZN11Fl_Terminal10print_charEc
libfltk.so.1.4:_ZN11Fl_Terminal10textattribEh
libfltk.so.1.4:_ZN11Fl_Terminal10u8c_cursorEv
libfltk.so.1.4:_ZN11Fl_Terminal11append_utf8EPKci
libfltk.so.1.4:_ZN11Fl_Terminal11create_ringEiii
libfltk.so.1.4:_ZN11Fl_Terminal11cursor_crlfEi
libfltk.so.1.4:_ZN11Fl_Terminal11cursor_downEib
libfltk.so.1.4:_ZN11Fl_Terminal11cursor_homeEv
libfltk.so.1.4:_ZN11Fl_Terminal11cursor_leftEi
libfltk.so.1.4:_ZN11Fl_Terminal11delete_rowsEi
libfltk.so.1.4:_ZN11Fl_Terminal11handle_ctrlEc
libfltk.so.1.4:_ZN11Fl_Terminal11insert_charEci
libfltk.so.1.4:_ZN11Fl_Terminal11insert_rowsEi
libfltk.so.1.4:_ZN11Fl_Terminal11margin_leftEi
libfltk.so.1.4:_ZN11Fl_Terminal11redraw_rateEf
libfltk.so.1.4:_ZN11Fl_Terminal11repeat_charEci
libfltk.so.1.4:_ZN11Fl_Terminal11save_cursorEv
libfltk.so.1.4:_ZN11Fl_Terminal11select_lineEi
libfltk.so.1.4:_ZN11Fl_Terminal11select_wordEii
libfltk.so.1.4:_ZN11Fl_Terminal11set_tabstopEv
libfltk.so.1.4:_ZN11Fl_Terminal11textbgcolorEj
libfltk.so.1.4:_ZN11Fl_Terminal11textfgcolorEj
libfltk.so.1.4:_ZN11Fl_Terminal12append_asciiEPKc
libfltk.so.1.4:_ZN11Fl_Terminal12clear_screenEb
libfltk.so.1.4:_ZN11Fl_Terminal12cursor_rightEib
libfltk.so.1.4:_ZN11Fl_Terminal12delete_charsEi
libfltk.so.1.4:_ZN11Fl_Terminal12delete_charsEiii
libfltk.so.1.4:_ZN11Fl_Terminal12display_rowsEi
libfltk.so.1.4:_ZN11Fl_Terminal12history_rowsEi
libfltk.so.1.4:_ZN11Fl_Terminal12is_printableEc
libfltk.so.1.4:_ZN11Fl_Terminal12margin_rightEi
libfltk.so.1.4:_ZN11Fl_Terminal12redraw_styleENS_11RedrawStyleE
libfltk.so.1.4:_ZN11Fl_Terminal12scrollbar_cbEP9Fl_WidgetPv
libfltk.so.1.4:_ZN11Fl_Terminal12show_unknownEb
libfltk.so.1.4:_ZN11Fl_Terminal12u8c_disp_rowEi
libfltk.so.1.4:_ZN11Fl_Terminal12u8c_hist_rowEi
libfltk.so.1.4:_ZN11Fl_Terminal12u8c_ring_rowEi
libfltk.so.1.4:_ZN11Fl_Terminal13clear_historyEv
libfltk.so.1.4:_ZN11Fl_Terminal13clear_tabstopEv
libfltk.so.1.4:_ZN11Fl_Terminal13current_styleERKNS_9CharStyleE
libfltk.so.1.4:_ZN11Fl_Terminal13cursorbgcolorEj
libfltk.so.1.4:_ZN11Fl_Terminal13cursorfgcolorEj
libfltk.so.1.4:_ZN11Fl_Terminal13handle_escseqEc
libfltk.so.1.4:_ZN11Fl_Terminal13history_linesEi
libfltk.so.1.4:_ZN11Fl_Terminal13init_tabstopsEi
libfltk.so.1.4:_ZN11Fl_Terminal13margin_bottomEi
libfltk.so.1.4:_ZN11Fl_Terminal13update_screenEb
libfltk.so.1.4:_ZN11Fl_Terminal14handle_DECRARAEv
libfltk.so.1.4:_ZN11Fl_Terminal14reset_terminalEv
libfltk.so.1.4:_ZN11Fl_Terminal14restore_cursorEv
libfltk.so.1.4:_ZN11Fl_Terminal14scrollbar_sizeEi
libfltk.so.1.4:_ZN11Fl_Terminal15cursor_tab_leftEi
libfltk.so.1.4:_ZN11Fl_Terminal15display_columnsEi
libfltk.so.1.4:_ZN11Fl_Terminal15insert_char_eolEciii
libfltk.so.1.4:_ZN11Fl_Terminal15redraw_timer_cbEPv
libfltk.so.1.4:_ZN11Fl_Terminal16cursor_tab_rightEi
libfltk.so.1.4:_ZN11Fl_Terminal16default_tabstopsEv
libfltk.so.1.4:_ZN11Fl_Terminal16display_modifiedEv
libfltk.so.1.4:_ZN11Fl_Terminal16handle_selectionEi
libfltk.so.1.4:_ZN11Fl_Terminal16hscrollbar_styleENS_14ScrollbarStyleE
libfltk.so.1.4:_ZN11Fl_Terminal16output_translateENS_8OutFlagsE
libfltk.so.1.4:_ZN11Fl_Terminal16redraw_timer_cb2Ev
libfltk.so.1.4:_ZN11Fl_Terminal16selection_extendEii
libfltk.so.1.4:_ZN11Fl_Terminal16u8c_hist_use_rowEi
libfltk.so.1.4:_ZN11Fl_Terminal16update_scrollbarEv
libfltk.so.1.4:_ZN11Fl_Terminal16utf8_cache_clearEv
libfltk.so.1.4:_ZN11Fl_Terminal16utf8_cache_flushEv
libfltk.so.1.4:_ZN11Fl_Terminal17clear_screen_homeEb
libfltk.so.1.4:_ZN11Fl_Terminal17textbgcolor_xtermEh
libfltk.so.1.4:_ZN11Fl_Terminal17textfgcolor_xtermEh
libfltk.so.1.4:_ZN11Fl_Terminal18clear_all_tabstopsEv
libfltk.so.1.4:_ZN11Fl_Terminal18clear_char_at_dispEii
libfltk.so.1.4:_ZN11Fl_Terminal18update_screen_xywhEv
libfltk.so.1.4:_ZN11Fl_Terminal19autoscroll_timer_cbEPv
libfltk.so.1.4:_ZN11Fl_Terminal19handle_unknown_charEii
libfltk.so.1.4:_ZN11Fl_Terminal19handle_unknown_charEv
libfltk.so.1.4:_ZN11Fl_Terminal19resize_display_rowsEi
libfltk.so.1.4:_ZN11Fl_Terminal19textbgcolor_defaultEj
libfltk.so.1.4:_ZN11Fl_Terminal19textfgcolor_defaultEj
libfltk.so.1.4:_ZN11Fl_Terminal20autoscroll_timer_cb2Ev
libfltk.so.1.4:_ZN11Fl_Terminal20refit_disp_to_screenEv
libfltk.so.1.4:_ZN11Fl_Terminal20set_scrollbar_paramsEP12Fl_Scrollbarii
libfltk.so.1.4:_ZN11Fl_Terminal21clear_mouse_selectionEv
libfltk.so.1.4:_ZN11Fl_Terminal22display_modified_clearEv
libfltk.so.1.4:_ZN11Fl_Terminal22resize_display_columnsEi
libfltk.so.1.4:_ZN11Fl_Terminal27handle_selection_autoscrollEv
libfltk.so.1.4:_ZN11Fl_Terminal4ansiEb
libfltk.so.1.4:_ZN11Fl_Terminal4drawEv
libfltk.so.1.4:_ZN11Fl_Terminal5clearEj
libfltk.so.1.4:_ZN11Fl_Terminal5clearEv
libfltk.so.1.4:_ZN11Fl_Terminal5colorEj
libfltk.so.1.4:_ZN11Fl_Terminal5init_EiiiiPKciiib
libfltk.so.1.4:_ZN11Fl_Terminal6Cursor6scrollEi
libfltk.so.1.4:_ZN11Fl_Terminal6appendEPKci
libfltk.so.1.4:_ZN11Fl_Terminal6handleEi
libfltk.so.1.4:_ZN11Fl_Terminal6printfEPKcz
libfltk.so.1.4:_ZN11Fl_Terminal6resizeEiiii
libfltk.so.1.4:_ZN11Fl_Terminal6scrollEi
libfltk.so.1.4:_ZN11Fl_Terminal7is_ctrlEc
libfltk.so.1.4:_ZN11Fl_Terminal7vprintfEPKcP13__va_list_tag
libfltk.so.1.4:_ZN11Fl_Terminal8Utf8Char10text_asciiEcRKNS_9CharStyleE
libfltk.so.1.4:_ZN11Fl_Terminal8Utf8Char10text_utf8_EPKci
libfltk.so.1.4:_ZN11Fl_Terminal8Utf8Char9text_utf8EPKciRKNS_9CharStyleE
libfltk.so.1.4:_ZN11Fl_Terminal8Utf8CharC1ERKS0_
libfltk.so.1.4:_ZN11Fl_Terminal8Utf8CharC1Ev
libfltk.so.1.4:_ZN11Fl_Terminal8Utf8CharC2ERKS0_
libfltk.so.1.4:_ZN11Fl_Terminal8Utf8CharC2Ev
libfltk.so.1.4:_ZN11Fl_Terminal8Utf8CharD1Ev
libfltk.so.1.4:_ZN11Fl_Terminal8Utf8CharD2Ev
libfltk.so.1.4:_ZN11Fl_Terminal8Utf8CharaSERKS0_
libfltk.so.1.4:_ZN11Fl_Terminal8textfontEi
libfltk.so.1.4:_ZN11Fl_Terminal8textsizeEi
libfltk.so.1.4:_ZN11Fl_Terminal9CharStyle11update_fakeEv
libfltk.so.1.4:_ZN11Fl_Terminal9CharStyle13bgcolor_xtermEh
libfltk.so.1.4:_ZN11Fl_Terminal9CharStyle13fgcolor_xtermEh
libfltk.so.1.4:_ZN11Fl_Terminal9CharStyle13fltk_bg_colorEh
libfltk.so.1.4:_ZN11Fl_Terminal9CharStyle13fltk_fg_colorEh
libfltk.so.1.4:_ZN11Fl_Terminal9CharStyle6updateEv
libfltk.so.1.4:_ZN11Fl_Terminal9CharStyleC1Eb
libfltk.so.1.4:_ZN11Fl_Terminal9CharStyleC2Eb
libfltk.so.1.4:_ZN11Fl_Terminal9EscapeSeq10append_valEv
libfltk.so.1.4:_ZN11Fl_Terminal9EscapeSeq11append_buffEc
libfltk.so.1.4:_ZN11Fl_Terminal9EscapeSeq11save_cursorEii
libfltk.so.1.4:_ZN11Fl_Terminal9EscapeSeq14restore_cursorERiS1_
libfltk.so.1.4:_ZN11Fl_Terminal9EscapeSeq5parseEc
libfltk.so.1.4:_ZN11Fl_Terminal9EscapeSeq5resetEv
libfltk.so.1.4:_ZN11Fl_Terminal9EscapeSeq8esc_modeEc
libfltk.so.1.4:_ZN11Fl_Terminal9EscapeSeqC1Ev
libfltk.so.1.4:_ZN11Fl_Terminal9EscapeSeqC2Ev
libfltk.so.1.4:_ZN11Fl_Terminal9Selection3endEv
libfltk.so.1.4:_ZN11Fl_Terminal9Selection5clearEv
libfltk.so.1.4:_ZN11Fl_Terminal9Selection5startEiib
libfltk.so.1.4:_ZN11Fl_Terminal9Selection6extendEiib
libfltk.so.1.4:_ZN11Fl_Terminal9Selection6scrollEi
libfltk.so.1.4:_ZN11Fl_Terminal9Selection6selectEiiii
libfltk.so.1.4:_ZN11Fl_Terminal9SelectionC1EPS_
libfltk.so.1.4:_ZN11Fl_Terminal9SelectionC2EPS_
libfltk.so.1.4:_ZN11Fl_Terminal9clear_eodEv
libfltk.so.1.4:_ZN11Fl_Terminal9clear_eolEv
libfltk.so.1.4:_ZN11Fl_Terminal9clear_sodEv
libfltk.so.1.4:_ZN11Fl_Terminal9clear_solEv
libfltk.so.1.4:_ZN11Fl_Terminal9cursor_crEv
libfltk.so.1.4:_ZN11Fl_Terminal9cursor_upEib
libfltk.so.1.4:_ZN11Fl_Terminal9handle_crEv
libfltk.so.1.4:_ZN11Fl_Terminal9handle_lfEv
libfltk.so.1.4:_ZN11Fl_Terminal9plot_charEPKciii
libfltk.so.1.4:_ZN11Fl_Terminal9plot_charEcii
libfltk.so.1.4:_ZN11Fl_Terminal9textcolorEj
libfltk.so.1.4:_ZN11Fl_TerminalC1EiiiiPKc
libfltk.so.1.4:_ZN11Fl_TerminalC1EiiiiPKciii
libfltk.so.1.4:_ZN11Fl_TerminalC2EiiiiPKc
libfltk.so.1.4:_ZN11Fl_TerminalC2EiiiiPKciii
libfltk.so.1.4:_ZN11Fl_TerminalD0Ev
libfltk.so.1.4:_ZN11Fl_TerminalD1Ev
libfltk.so.1.4:_ZN11Fl_TerminalD2Ev
libfltk.so.1.4:_ZN11Fl_Valuator11handle_dragEd
libfltk.so.1.4:_ZN11Fl_Valuator12value_damageEv
libfltk.so.1.4:_ZN11Fl_Valuator14handle_releaseEv
libfltk.so.1.4:_ZN11Fl_Valuator4stepEd
libfltk.so.1.4:_ZN11Fl_Valuator5clampEd
libfltk.so.1.4:_ZN11Fl_Valuator5roundEd
libfltk.so.1.4:_ZN11Fl_Valuator5valueEd
libfltk.so.1.4:_ZN11Fl_Valuator6formatEPc
libfltk.so.1.4:_ZN11Fl_Valuator9incrementEdi
libfltk.so.1.4:_ZN11Fl_Valuator9precisionEi
libfltk.so.1.4:_ZN11Fl_Valuator9softclampEd
libfltk.so.1.4:_ZN11Fl_ValuatorC1EiiiiPKc
libfltk.so.1.4:_ZN11Fl_ValuatorC2EiiiiPKc
libfltk.so.1.4:_ZN11Flcc_HueBox10handle_keyEi
libfltk.so.1.4:_ZN11Flcc_HueBox4drawEv
libfltk.so.1.4:_ZN11Flcc_HueBox6handleEi
libfltk.so.1.4:_ZN12Fl_File_Icon3addEs
libfltk.so.1.4:_ZN12Fl_File_Icon4drawEiiiiji
libfltk.so.1.4:_ZN12Fl_File_Icon4findEPKci
libfltk.so.1.4:_ZN12Fl_File_Icon5labelEP9Fl_Widget
libfltk.so.1.4:_ZN12Fl_File_Icon6first_E
libfltk.so.1.4:_ZN12Fl_File_Icon9labeltypeEPK8Fl_Labeliiiij
libfltk.so.1.4:_ZN12Fl_File_IconC1EPKciiPs
libfltk.so.1.4:_ZN12Fl_File_IconC2EPKciiPs
libfltk.so.1.4:_ZN12Fl_File_IconD1Ev
libfltk.so.1.4:_ZN12Fl_File_IconD2Ev
libfltk.so.1.4:_ZN12Fl_Fill_DialC1EiiiiPKc
libfltk.so.1.4:_ZN12Fl_Fill_DialC2EiiiiPKc
libfltk.so.1.4:_ZN12Fl_Help_View10add_targetEPKci
libfltk.so.1.4:_ZN12Fl_Help_View10draw_mode_E
libfltk.so.1.4:_ZN12Fl_Help_View10get_lengthEPKc
libfltk.so.1.4:_ZN12Fl_Help_View10select_allEv
libfltk.so.1.4:_ZN12Fl_Help_View11follow_linkEP12Fl_Help_Link
libfltk.so.1.4:_ZN12Fl_Help_View12current_pos_E
libfltk.so.1.4:_ZN12Fl_Help_View12format_tableEPiS0_PKc
libfltk.so.1.4:_ZN12Fl_Help_View13current_view_E
libfltk.so.1.4:_ZN12Fl_Help_View13end_selectionEi
libfltk.so.1.4:_ZN12Fl_Help_View13text_selectedEv
libfltk.so.1.4:_ZN12Fl_Help_View14copy_menu_textE
libfltk.so.1.4:_ZN12Fl_Help_View15begin_selectionEv
libfltk.so.1.4:_ZN12Fl_Help_View15clear_selectionEv
libfltk.so.1.4:_ZN12Fl_Help_View15compare_targetsEPK14Fl_Help_TargetS2_
libfltk.so.1.4:_ZN12Fl_Help_View15selection_last_E
libfltk.so.1.4:_ZN12Fl_Help_View16extend_selectionEv
libfltk.so.1.4:_ZN12Fl_Help_View16selection_first_E
libfltk.so.1.4:_ZN12Fl_Help_View19hv_selection_color_E
libfltk.so.1.4:_ZN12Fl_Help_View20selection_drag_last_E
libfltk.so.1.4:_ZN12Fl_Help_View20selection_push_last_E
libfltk.so.1.4:_ZN12Fl_Help_View21selection_drag_first_E
libfltk.so.1.4:_ZN12Fl_Help_View21selection_push_first_E
libfltk.so.1.4:_ZN12Fl_Help_View22clear_global_selectionEv
libfltk.so.1.4:_ZN12Fl_Help_View24hv_selection_text_color_E
libfltk.so.1.4:_ZN12Fl_Help_View4copyEi
libfltk.so.1.4:_ZN12Fl_Help_View4drawEv
libfltk.so.1.4:_ZN12Fl_Help_View4findEPKci
libfltk.so.1.4:_ZN12Fl_Help_View4loadEPKc
libfltk.so.1.4:_ZN12Fl_Help_View5valueEPKc
libfltk.so.1.4:_ZN12Fl_Help_View6formatEv
libfltk.so.1.4:_ZN12Fl_Help_View6handleEi
libfltk.so.1.4:_ZN12Fl_Help_View6resizeEiiii
libfltk.so.1.4:_ZN12Fl_Help_View7hv_drawEPKciii
libfltk.so.1.4:_ZN12Fl_Help_View7toplineEPKc
libfltk.so.1.4:_ZN12Fl_Help_View7toplineEi
libfltk.so.1.4:_ZN12Fl_Help_View8add_linkEPKciiii
libfltk.so.1.4:_ZN12Fl_Help_View8do_alignEP13Fl_Help_BlockiiiRi
libfltk.so.1.4:_ZN12Fl_Help_View8get_attrEPKcS1_Pci
libfltk.so.1.4:_ZN12Fl_Help_View8leftlineEi
libfltk.so.1.4:_ZN12Fl_Help_View8mouse_x_E
libfltk.so.1.4:_ZN12Fl_Help_View8mouse_y_E
libfltk.so.1.4:_ZN12Fl_Help_View9add_blockEPKciiiih
libfltk.so.1.4:_ZN12Fl_Help_View9find_linkEii
libfltk.so.1.4:_ZN12Fl_Help_View9free_dataEv
libfltk.so.1.4:_ZN12Fl_Help_View9get_alignEPKci
libfltk.so.1.4:_ZN12Fl_Help_View9get_colorEPKcj
libfltk.so.1.4:_ZN12Fl_Help_View9get_imageEPKcii
libfltk.so.1.4:_ZN12Fl_Help_View9selected_E
libfltk.so.1.4:_ZN12Fl_Help_ViewC1EiiiiPKc
libfltk.so.1.4:_ZN12Fl_Help_ViewC2EiiiiPKc
libfltk.so.1.4:_ZN12Fl_Help_ViewD0Ev
libfltk.so.1.4:_ZN12Fl_Help_ViewD1Ev
libfltk.so.1.4:_ZN12Fl_Help_ViewD2Ev
libfltk.so.1.4:_ZN12Fl_Int_InputC1EiiiiPKc
libfltk.so.1.4:_ZN12Fl_Int_InputC2EiiiiPKc
libfltk.so.1.4:_ZN12Fl_Line_DialC1EiiiiPKc
libfltk.so.1.4:_ZN12Fl_Line_DialC2EiiiiPKc
libfltk.so.1.4:_ZN12Fl_Menu_Item3addEPKciPFvP9Fl_WidgetPvES4_i
libfltk.so.1.4:_ZN12Fl_Menu_Item6insertEiPKciPFvP9Fl_WidgetPvES4_i
libfltk.so.1.4:_ZN12Fl_Menu_Item7setonlyEPKS_
libfltk.so.1.4:_ZN12Fl_RGB_Image10desaturateEv
libfltk.so.1.4:_ZN12Fl_RGB_Image13color_averageEjf
libfltk.so.1.4:_ZN12Fl_RGB_Image4drawEiiiiii
libfltk.so.1.4:_ZN12Fl_RGB_Image5labelEP12Fl_Menu_Item
libfltk.so.1.4:_ZN12Fl_RGB_Image5labelEP9Fl_Widget
libfltk.so.1.4:_ZN12Fl_RGB_Image7uncacheEv
libfltk.so.1.4:_ZN12Fl_RGB_Image9max_size_E
libfltk.so.1.4:_ZN12Fl_RGB_ImageC1EPK9Fl_Pixmapj
libfltk.so.1.4:_ZN12Fl_RGB_ImageC1EPKhiiii
libfltk.so.1.4:_ZN12Fl_RGB_ImageC1EPKhiiiii
libfltk.so.1.4:_ZN12Fl_RGB_ImageC2EPK9Fl_Pixmapj
libfltk.so.1.4:_ZN12Fl_RGB_ImageC2EPKhiiii
libfltk.so.1.4:_ZN12Fl_RGB_ImageC2EPKhiiiii
libfltk.so.1.4:_ZN12Fl_RGB_ImageD0Ev
libfltk.so.1.4:_ZN12Fl_RGB_ImageD1Ev
libfltk.so.1.4:_ZN12Fl_RGB_ImageD2Ev
libfltk.so.1.4:_ZN12Fl_Scrollbar10timeout_cbEPv
libfltk.so.1.4:_ZN12Fl_Scrollbar12increment_cbEv
libfltk.so.1.4:_ZN12Fl_Scrollbar4drawEv
libfltk.so.1.4:_ZN12Fl_Scrollbar6handleEi
libfltk.so.1.4:_ZN12Fl_ScrollbarC1EiiiiPKc
libfltk.so.1.4:_ZN12Fl_ScrollbarC2EiiiiPKc
libfltk.so.1.4:_ZN12Fl_ScrollbarD0Ev
libfltk.so.1.4:_ZN12Fl_ScrollbarD1Ev
libfltk.so.1.4:_ZN12Fl_ScrollbarD2Ev
libfltk.so.1.4:_ZN12Fl_Table_Row10CharVector4copyEPci
libfltk.so.1.4:_ZN12Fl_Table_Row10CharVector4sizeEi
libfltk.so.1.4:_ZN12Fl_Table_Row10CharVectorD1Ev
libfltk.so.1.4:_ZN12Fl_Table_Row10CharVectorD2Ev
libfltk.so.1.4:_ZN12Fl_Table_Row10select_rowEii
libfltk.so.1.4:_ZN12Fl_Table_Row12row_selectedEi
libfltk.so.1.4:_ZN12Fl_Table_Row15select_all_rowsEi
libfltk.so.1.4:_ZN12Fl_Table_Row4rowsEi
libfltk.so.1.4:_ZN12Fl_Table_Row4typeENS_18TableRowSelectModeE
libfltk.so.1.4:_ZN12Fl_Table_Row6handleEi
libfltk.so.1.4:_ZN12Fl_Tree_Item10find_childEPKc
libfltk.so.1.4:_ZN12Fl_Tree_Item10find_childEPS_
libfltk.so.1.4:_ZN12Fl_Tree_Item10move_aboveEPS_
libfltk.so.1.4:_ZN12Fl_Tree_Item10move_belowEPS_
libfltk.so.1.4:_ZN12Fl_Tree_Item11recalc_treeEv
libfltk.so.1.4:_ZN12Fl_Tree_Item12find_clickedERK13Fl_Tree_Prefsi
libfltk.so.1.4:_ZN12Fl_Tree_Item12hide_widgetsEv
libfltk.so.1.4:_ZN12Fl_Tree_Item12insert_aboveERK13Fl_Tree_PrefsPKc
libfltk.so.1.4:_ZN12Fl_Tree_Item12next_siblingEv
libfltk.so.1.4:_ZN12Fl_Tree_Item12next_visibleER13Fl_Tree_Prefs
libfltk.so.1.4:_ZN12Fl_Tree_Item12prev_siblingEv
libfltk.so.1.4:_ZN12Fl_Tree_Item12prev_visibleER13Fl_Tree_Prefs
libfltk.so.1.4:_ZN12Fl_Tree_Item12remove_childEPKc
libfltk.so.1.4:_ZN12Fl_Tree_Item12remove_childEPS_
libfltk.so.1.4:_ZN12Fl_Tree_Item12show_widgetsEv
libfltk.so.1.4:_ZN12Fl_Tree_Item13replace_childEPS_S0_
libfltk.so.1.4:_ZN12Fl_Tree_Item13swap_childrenEPS_S0_
libfltk.so.1.4:_ZN12Fl_Tree_Item13swap_childrenEii
libfltk.so.1.4:_ZN12Fl_Tree_Item14clear_childrenEv
libfltk.so.1.4:_ZN12Fl_Tree_Item14next_displayedER13Fl_Tree_Prefs
libfltk.so.1.4:_ZN12Fl_Tree_Item14prev_displayedER13Fl_Tree_Prefs
libfltk.so.1.4:_ZN12Fl_Tree_Item15find_child_itemEPKc
libfltk.so.1.4:_ZN12Fl_Tree_Item15find_child_itemEPPc
libfltk.so.1.4:_ZN12Fl_Tree_Item16update_prev_nextEi
libfltk.so.1.4:_ZN12Fl_Tree_Item17draw_item_contentEi
libfltk.so.1.4:_ZN12Fl_Tree_Item23draw_vertical_connectorEiiiRK13Fl_Tree_Prefs
libfltk.so.1.4:_ZN12Fl_Tree_Item25draw_horizontal_connectorEiiiRK13Fl_Tree_Prefs
libfltk.so.1.4:_ZN12Fl_Tree_Item3addERK13Fl_Tree_PrefsPKc
libfltk.so.1.4:_ZN12Fl_Tree_Item3addERK13Fl_Tree_PrefsPKcPS_
libfltk.so.1.4:_ZN12Fl_Tree_Item3addERK13Fl_Tree_PrefsPPc
libfltk.so.1.4:_ZN12Fl_Tree_Item3addERK13Fl_Tree_PrefsPPcPS_
libfltk.so.1.4:_ZN12Fl_Tree_Item4drawEiRiiPS_S0_ii
libfltk.so.1.4:_ZN12Fl_Tree_Item4moveEPS_ii
libfltk.so.1.4:_ZN12Fl_Tree_Item4moveEii
libfltk.so.1.4:_ZN12Fl_Tree_Item4nextEv
libfltk.so.1.4:_ZN12Fl_Tree_Item4openEv
libfltk.so.1.4:_ZN12Fl_Tree_Item4prevEv
libfltk.so.1.4:_ZN12Fl_Tree_Item5_InitERK13Fl_Tree_PrefsP7Fl_Tree
libfltk.so.1.4:_ZN12Fl_Tree_Item5closeEv
libfltk.so.1.4:_ZN12Fl_Tree_Item5labelEPKc
libfltk.so.1.4:_ZN12Fl_Tree_Item6insertERK13Fl_Tree_PrefsPKci
libfltk.so.1.4:_ZN12Fl_Tree_Item7replaceEPS_
libfltk.so.1.4:_ZN12Fl_Tree_Item8deparentEi
libfltk.so.1.4:_ZN12Fl_Tree_Item8reparentEPS_i
libfltk.so.1.4:_ZN12Fl_Tree_Item9find_itemEPPc
libfltk.so.1.4:_ZN12Fl_Tree_Item9move_intoEPS_i
libfltk.so.1.4:_ZN12Fl_Tree_ItemC1EP7Fl_Tree
libfltk.so.1.4:_ZN12Fl_Tree_ItemC1EPKS_
libfltk.so.1.4:_ZN12Fl_Tree_ItemC1ERK13Fl_Tree_Prefs
libfltk.so.1.4:_ZN12Fl_Tree_ItemC2EP7Fl_Tree
libfltk.so.1.4:_ZN12Fl_Tree_ItemC2EPKS_
libfltk.so.1.4:_ZN12Fl_Tree_ItemC2ERK13Fl_Tree_Prefs
libfltk.so.1.4:_ZN12Fl_Tree_ItemD0Ev
libfltk.so.1.4:_ZN12Fl_Tree_ItemD1Ev
libfltk.so.1.4:_ZN12Fl_Tree_ItemD2Ev
libfltk.so.1.4:_ZN12Fl_XBM_ImageC1EPKc
libfltk.so.1.4:_ZN12Fl_XBM_ImageC2EPKc
libfltk.so.1.4:_ZN12Fl_XPM_ImageC1EPKc
libfltk.so.1.4:_ZN12Fl_XPM_ImageC2EPKc
libfltk.so.1.4:_ZN13Fl_File_Input12draw_buttonsEv
libfltk.so.1.4:_ZN13Fl_File_Input13handle_buttonEi
libfltk.so.1.4:_ZN13Fl_File_Input14update_buttonsEv
libfltk.so.1.4:_ZN13Fl_File_Input4drawEv
libfltk.so.1.4:_ZN13Fl_File_Input5valueEPKc
libfltk.so.1.4:_ZN13Fl_File_Input5valueEPKci
libfltk.so.1.4:_ZN13Fl_File_Input6handleEi
libfltk.so.1.4:_ZN13Fl_File_InputC1EiiiiPKc
libfltk.so.1.4:_ZN13Fl_File_InputC2EiiiiPKc
libfltk.so.1.4:_ZN13Fl_Hor_SliderC1EiiiiPKc
libfltk.so.1.4:_ZN13Fl_Hor_SliderC2EiiiiPKc
libfltk.so.1.4:_ZN13Fl_Int_Vector4copyEPij
libfltk.so.1.4:_ZN13Fl_Int_Vector4sizeEj
libfltk.so.1.4:_ZN13Fl_Int_VectorD1Ev
libfltk.so.1.4:_ZN13Fl_Int_VectorD2Ev
libfltk.so.1.4:_ZN13Fl_Positioner4drawEiiii
libfltk.so.1.4:_ZN13Fl_Positioner4drawEv
libfltk.so.1.4:_ZN13Fl_Positioner5valueEdd
libfltk.so.1.4:_ZN13Fl_Positioner6handleEi
libfltk.so.1.4:_ZN13Fl_Positioner6handleEiiiii
libfltk.so.1.4:_ZN13Fl_Positioner6xvalueEd
libfltk.so.1.4:_ZN13Fl_Positioner6yvalueEd
libfltk.so.1.4:_ZN13Fl_Positioner7xboundsEdd
libfltk.so.1.4:_ZN13Fl_Positioner7yboundsEdd
libfltk.so.1.4:_ZN13Fl_PositionerC1EiiiiPKc
libfltk.so.1.4:_ZN13Fl_PositionerC2EiiiiPKc
libfltk.so.1.4:_ZN13Fl_TooltipBox4drawEv
libfltk.so.1.4:_ZN13Fl_TooltipBox6layoutEv
libfltk.so.1.4:_ZN13Fl_Tree_Prefs8openiconEP8Fl_Image
libfltk.so.1.4:_ZN13Fl_Tree_Prefs9closeiconEP8Fl_Image
libfltk.so.1.4:_ZN13Fl_Tree_PrefsC1Ev
libfltk.so.1.4:_ZN13Fl_Tree_PrefsC2Ev
libfltk.so.1.4:_ZN13Fl_Tree_PrefsD1Ev
libfltk.so.1.4:_ZN13Fl_Tree_PrefsD2Ev
libfltk.so.1.4:_ZN13Flcc_ValueBox10handle_keyEi
libfltk.so.1.4:_ZN13Flcc_ValueBox4drawEv
libfltk.so.1.4:_ZN13Flcc_ValueBox6handleEi
libfltk.so.1.4:_ZN14Fl_Fill_SliderC1EiiiiPKc
libfltk.so.1.4:_ZN14Fl_Fill_SliderC2EiiiiPKc
libfltk.so.1.4:_ZN14Fl_Float_InputC1EiiiiPKc
libfltk.so.1.4:_ZN14Fl_Float_InputC2EiiiiPKc
libfltk.so.1.4:_ZN14Fl_Menu_Button20pressed_menu_button_E
libfltk.so.1.4:_ZN14Fl_Menu_Button4drawEv
libfltk.so.1.4:_ZN14Fl_Menu_Button5popupEv
libfltk.so.1.4:_ZN14Fl_Menu_Button6handleEi
libfltk.so.1.4:_ZN14Fl_Menu_ButtonC1EiiiiPKc
libfltk.so.1.4:_ZN14Fl_Menu_ButtonC2EiiiiPKc
libfltk.so.1.4:_ZN14Fl_Menu_WindowC1EiiPKc
libfltk.so.1.4:_ZN14Fl_Menu_WindowC1EiiiiPKc
libfltk.so.1.4:_ZN14Fl_Menu_WindowC2EiiPKc
libfltk.so.1.4:_ZN14Fl_Menu_WindowC2EiiiiPKc
libfltk.so.1.4:_ZN14Fl_Menu_WindowD0Ev
libfltk.so.1.4:_ZN14Fl_Menu_WindowD1Ev
libfltk.so.1.4:_ZN14Fl_Menu_WindowD2Ev
libfltk.so.1.4:_ZN14Fl_Message_Box6handleEi
libfltk.so.1.4:_ZN14Fl_Multi_Label5labelEP12Fl_Menu_Item
libfltk.so.1.4:_ZN14Fl_Multi_Label5labelEP9Fl_Widget
libfltk.so.1.4:_ZN14Fl_Nice_SliderC1EiiiiPKc
libfltk.so.1.4:_ZN14Fl_Nice_SliderC2EiiiiPKc
libfltk.so.1.4:_ZN14Fl_Preferences10nameBufferE
libfltk.so.1.4:_ZN14Fl_Preferences10uuidBufferE
libfltk.so.1.4:_ZN14Fl_Preferences11fileAccess_E
libfltk.so.1.4:_ZN14Fl_Preferences11file_accessEj
libfltk.so.1.4:_ZN14Fl_Preferences11file_accessEv
libfltk.so.1.4:_ZN14Fl_Preferences12delete_entryEPKc
libfltk.so.1.4:_ZN14Fl_Preferences12delete_groupEPKc
libfltk.so.1.4:_ZN14Fl_Preferences12entry_existsEPKc
libfltk.so.1.4:_ZN14Fl_Preferences12group_existsEPKc
libfltk.so.1.4:_ZN14Fl_Preferences12runtimePrefsE
libfltk.so.1.4:_ZN14Fl_Preferences17delete_all_groupsEv
libfltk.so.1.4:_ZN14Fl_Preferences17get_userdata_pathEPci
libfltk.so.1.4:_ZN14Fl_Preferences18delete_all_entriesEv
libfltk.so.1.4:_ZN14Fl_Preferences3getEPKcPcS1_i
libfltk.so.1.4:_ZN14Fl_Preferences3getEPKcPvPKviPi
libfltk.so.1.4:_ZN14Fl_Preferences3getEPKcPvPKvii
libfltk.so.1.4:_ZN14Fl_Preferences3getEPKcRPcS1_
libfltk.so.1.4:_ZN14Fl_Preferences3getEPKcRPvPKvi
libfltk.so.1.4:_ZN14Fl_Preferences3getEPKcRdd
libfltk.so.1.4:_ZN14Fl_Preferences3getEPKcRff
libfltk.so.1.4:_ZN14Fl_Preferences3getEPKcRii
libfltk.so.1.4:_ZN14Fl_Preferences3setEPKcPKvi
libfltk.so.1.4:_ZN14Fl_Preferences3setEPKcS1_
libfltk.so.1.4:_ZN14Fl_Preferences3setEPKcd
libfltk.so.1.4:_ZN14Fl_Preferences3setEPKcdi
libfltk.so.1.4:_ZN14Fl_Preferences3setEPKcf
libfltk.so.1.4:_ZN14Fl_Preferences3setEPKcfi
libfltk.so.1.4:_ZN14Fl_Preferences3setEPKci
libfltk.so.1.4:_ZN14Fl_Preferences4NameC1EPKcz
libfltk.so.1.4:_ZN14Fl_Preferences4NameC1Ej
libfltk.so.1.4:_ZN14Fl_Preferences4NameC2EPKcz
libfltk.so.1.4:_ZN14Fl_Preferences4NameC2Ej
libfltk.so.1.4:_ZN14Fl_Preferences4NameD1Ev
libfltk.so.1.4:_ZN14Fl_Preferences4NameD2Ev
libfltk.so.1.4:_ZN14Fl_Preferences4Node11createIndexEv
libfltk.so.1.4:_ZN14Fl_Preferences4Node11deleteEntryEPKc
libfltk.so.1.4:_ZN14Fl_Preferences4Node11deleteIndexEv
libfltk.so.1.4:_ZN14Fl_Preferences4Node11updateIndexEv
libfltk.so.1.4:_ZN14Fl_Preferences4Node12lastEntrySetE
libfltk.so.1.4:_ZN14Fl_Preferences4Node15clearDirtyFlagsEv
libfltk.so.1.4:_ZN14Fl_Preferences4Node16deleteAllEntriesEv
libfltk.so.1.4:_ZN14Fl_Preferences4Node17deleteAllChildrenEv
libfltk.so.1.4:_ZN14Fl_Preferences4Node3addEPKc
libfltk.so.1.4:_ZN14Fl_Preferences4Node3getEPKc
libfltk.so.1.4:_ZN14Fl_Preferences4Node3setEPKc
libfltk.so.1.4:_ZN14Fl_Preferences4Node3setEPKcS2_
libfltk.so.1.4:_ZN14Fl_Preferences4Node4findEPKc
libfltk.so.1.4:_ZN14Fl_Preferences4Node4nameEv
libfltk.so.1.4:_ZN14Fl_Preferences4Node5childEi
libfltk.so.1.4:_ZN14Fl_Preferences4Node5dirtyEv
libfltk.so.1.4:_ZN14Fl_Preferences4Node5writeEP8_IO_FILE
libfltk.so.1.4:_ZN14Fl_Preferences4Node6removeEv
libfltk.so.1.4:_ZN14Fl_Preferences4Node6searchEPKci
libfltk.so.1.4:_ZN14Fl_Preferences4Node8addChildEPKc
libfltk.so.1.4:_ZN14Fl_Preferences4Node8findRootEv
libfltk.so.1.4:_ZN14Fl_Preferences4Node8getEntryEPKc
libfltk.so.1.4:_ZN14Fl_Preferences4Node9childNodeEi
libfltk.so.1.4:_ZN14Fl_Preferences4Node9nChildrenEv
libfltk.so.1.4:_ZN14Fl_Preferences4Node9setParentEPS0_
libfltk.so.1.4:_ZN14Fl_Preferences4NodeC1EPKc
libfltk.so.1.4:_ZN14Fl_Preferences4NodeC2EPKc
libfltk.so.1.4:_ZN14Fl_Preferences4NodeD1Ev
libfltk.so.1.4:_ZN14Fl_Preferences4NodeD2Ev
libfltk.so.1.4:_ZN14Fl_Preferences4sizeEPKc
libfltk.so.1.4:_ZN14Fl_Preferences5clearEv
libfltk.so.1.4:_ZN14Fl_Preferences5dirtyEv
libfltk.so.1.4:_ZN14Fl_Preferences5entryEi
libfltk.so.1.4:_ZN14Fl_Preferences5flushEv
libfltk.so.1.4:_ZN14Fl_Preferences5groupEi
libfltk.so.1.4:_ZN14Fl_Preferences6groupsEv
libfltk.so.1.4:_ZN14Fl_Preferences7entriesEv
libfltk.so.1.4:_ZN14Fl_Preferences8RootNode4readEv
libfltk.so.1.4:_ZN14Fl_Preferences8RootNode5writeEv
libfltk.so.1.4:_ZN14Fl_Preferences8RootNode7getPathEPci
libfltk.so.1.4:_ZN14Fl_Preferences8RootNodeC1EPS_
libfltk.so.1.4:_ZN14Fl_Preferences8RootNodeC1EPS_NS_4RootEPKcS4_
libfltk.so.1.4:_ZN14Fl_Preferences8RootNodeC1EPS_PKcS3_S3_NS_4RootE
libfltk.so.1.4:_ZN14Fl_Preferences8RootNodeC2EPS_
libfltk.so.1.4:_ZN14Fl_Preferences8RootNodeC2EPS_NS_4RootEPKcS4_
libfltk.so.1.4:_ZN14Fl_Preferences8RootNodeC2EPS_PKcS3_S3_NS_4RootE
libfltk.so.1.4:_ZN14Fl_Preferences8RootNodeD1Ev
libfltk.so.1.4:_ZN14Fl_Preferences8RootNodeD2Ev
libfltk.so.1.4:_ZN14Fl_Preferences8filenameEPcm
libfltk.so.1.4:_ZN14Fl_Preferences8filenameEPcmNS_4RootEPKcS3_
libfltk.so.1.4:_ZN14Fl_Preferences8new_UUIDEv
libfltk.so.1.4:_ZN14Fl_PreferencesC1ENS_4RootEPKcS2_
libfltk.so.1.4:_ZN14Fl_PreferencesC1EPKcS1_S1_
libfltk.so.1.4:_ZN14Fl_PreferencesC1EPKcS1_S1_NS_4RootE
libfltk.so.1.4:_ZN14Fl_PreferencesC1EPS_PKc
libfltk.so.1.4:_ZN14Fl_PreferencesC1EPS_i
libfltk.so.1.4:_ZN14Fl_PreferencesC1EPv
libfltk.so.1.4:_ZN14Fl_PreferencesC1ERKS_
libfltk.so.1.4:_ZN14Fl_PreferencesC1ERS_PKc
libfltk.so.1.4:_ZN14Fl_PreferencesC1ERS_i
libfltk.so.1.4:_ZN14Fl_PreferencesC2ENS_4RootEPKcS2_
libfltk.so.1.4:_ZN14Fl_PreferencesC2EPKcS1_S1_
libfltk.so.1.4:_ZN14Fl_PreferencesC2EPKcS1_S1_NS_4RootE
libfltk.so.1.4:_ZN14Fl_PreferencesC2EPS_PKc
libfltk.so.1.4:_ZN14Fl_PreferencesC2EPS_i
libfltk.so.1.4:_ZN14Fl_PreferencesC2EPv
libfltk.so.1.4:_ZN14Fl_PreferencesC2ERKS_
libfltk.so.1.4:_ZN14Fl_PreferencesC2ERS_PKc
libfltk.so.1.4:_ZN14Fl_PreferencesC2ERS_i
libfltk.so.1.4:_ZN14Fl_PreferencesD0Ev
libfltk.so.1.4:_ZN14Fl_PreferencesD1Ev
libfltk.so.1.4:_ZN14Fl_PreferencesD2Ev
libfltk.so.1.4:_ZN14Fl_PreferencesaSERKS_
libfltk.so.1.4:_ZN14Fl_Round_ClockC1EiiiiPKc
libfltk.so.1.4:_ZN14Fl_Round_ClockC2EiiiiPKc
libfltk.so.1.4:_ZN14Fl_Text_Buffer10apply_undoEP19Fl_Text_Undo_ActionPi
libfltk.so.1.4:_ZN14Fl_Text_Buffer10insertfileEPKcii
libfltk.so.1.4:_ZN14Fl_Text_Buffer10outputfileEPKciii
libfltk.so.1.4:_ZN14Fl_Text_Buffer10skip_linesEii
libfltk.so.1.4:_ZN14Fl_Text_Buffer11unhighlightEv
libfltk.so.1.4:_ZN14Fl_Text_Buffer12rewind_linesEii
libfltk.so.1.4:_ZN14Fl_Text_Buffer12tab_distanceEi
libfltk.so.1.4:_ZN14Fl_Text_Buffer14highlight_textEv
libfltk.so.1.4:_ZN14Fl_Text_Buffer14selection_textEv
libfltk.so.1.4:_ZN14Fl_Text_Buffer16remove_selectionEv
libfltk.so.1.4:_ZN14Fl_Text_Buffer16secondary_selectEii
libfltk.so.1.4:_ZN14Fl_Text_Buffer17remove_selection_EP17Fl_Text_Selection
libfltk.so.1.4:_ZN14Fl_Text_Buffer17replace_selectionEPKc
libfltk.so.1.4:_ZN14Fl_Text_Buffer17update_selectionsEiii
libfltk.so.1.4:_ZN14Fl_Text_Buffer18highlight_positionEPiS0_
libfltk.so.1.4:_ZN14Fl_Text_Buffer18replace_selection_EP17Fl_Text_SelectionPKc
libfltk.so.1.4:_ZN14Fl_Text_Buffer18secondary_unselectEv
libfltk.so.1.4:_ZN14Fl_Text_Buffer18selection_positionEPiS0_
libfltk.so.1.4:_ZN14Fl_Text_Buffer19add_modify_callbackEPFviiiiPKcPvES2_
libfltk.so.1.4:_ZN14Fl_Text_Buffer19reallocate_with_gapEii
libfltk.so.1.4:_ZN14Fl_Text_Buffer22add_predelete_callbackEPFviiPvES0_
libfltk.so.1.4:_ZN14Fl_Text_Buffer22remove_modify_callbackEPFviiiiPKcPvES2_
libfltk.so.1.4:_ZN14Fl_Text_Buffer24secondary_selection_textEv
libfltk.so.1.4:_ZN14Fl_Text_Buffer25remove_predelete_callbackEPFviiPvES0_
libfltk.so.1.4:_ZN14Fl_Text_Buffer25skip_displayed_charactersEii
libfltk.so.1.4:_ZN14Fl_Text_Buffer26remove_secondary_selectionEv
libfltk.so.1.4:_ZN14Fl_Text_Buffer27replace_secondary_selectionEPKc
libfltk.so.1.4:_ZN14Fl_Text_Buffer28secondary_selection_positionEPiS0_
libfltk.so.1.4:_ZN14Fl_Text_Buffer29file_encoding_warning_messageE
libfltk.so.1.4:_ZN14Fl_Text_Buffer4copyEPS_iii
libfltk.so.1.4:_ZN14Fl_Text_Buffer4redoEPi
libfltk.so.1.4:_ZN14Fl_Text_Buffer4textEPKc
libfltk.so.1.4:_ZN14Fl_Text_Buffer4undoEPi
libfltk.so.1.4:_ZN14Fl_Text_Buffer6insertEiPKci
libfltk.so.1.4:_ZN14Fl_Text_Buffer6printfEPKcz
libfltk.so.1.4:_ZN14Fl_Text_Buffer6removeEii
libfltk.so.1.4:_ZN14Fl_Text_Buffer6selectEii
libfltk.so.1.4:_ZN14Fl_Text_Buffer7canUndoEc
libfltk.so.1.4:_ZN14Fl_Text_Buffer7insert_EiPKci
libfltk.so.1.4:_ZN14Fl_Text_Buffer7remove_Eii
libfltk.so.1.4:_ZN14Fl_Text_Buffer7replaceEiiPKci
libfltk.so.1.4:_ZN14Fl_Text_Buffer7vprintfEPKcP13__va_list_tag
libfltk.so.1.4:_ZN14Fl_Text_Buffer8move_gapEi
libfltk.so.1.4:_ZN14Fl_Text_Buffer8unselectEv
libfltk.so.1.4:_ZN14Fl_Text_Buffer9highlightEii
libfltk.so.1.4:_ZN14Fl_Text_BufferC1Eii
libfltk.so.1.4:_ZN14Fl_Text_BufferC2Eii
libfltk.so.1.4:_ZN14Fl_Text_BufferD1Ev
libfltk.so.1.4:_ZN14Fl_Text_BufferD2Ev
libfltk.so.1.4:_ZN14Fl_Text_Editor10handle_keyEv
libfltk.so.1.4:_ZN14Fl_Text_Editor10kf_defaultEiPS_
libfltk.so.1.4:_ZN14Fl_Text_Editor10kf_page_upEiPS_
libfltk.so.1.4:_ZN14Fl_Text_Editor11kf_c_s_moveEiPS_
libfltk.so.1.4:_ZN14Fl_Text_Editor11kf_m_s_moveEiPS_
libfltk.so.1.4:_ZN14Fl_Text_Editor12kf_backspaceEiPS_
libfltk.so.1.4:_ZN14Fl_Text_Editor12kf_ctrl_moveEiPS_
libfltk.so.1.4:_ZN14Fl_Text_Editor12kf_meta_moveEiPS_
libfltk.so.1.4:_ZN14Fl_Text_Editor12kf_page_downEiPS_
libfltk.so.1.4:_ZN14Fl_Text_Editor13kf_select_allEiPS_
libfltk.so.1.4:_ZN14Fl_Text_Editor13kf_shift_moveEiPS_
libfltk.so.1.4:_ZN14Fl_Text_Editor15add_key_bindingEiiPFiiPS_EPPNS_11Key_BindingE
libfltk.so.1.4:_ZN14Fl_Text_Editor17maybe_do_callbackE18Fl_Callback_Reason
libfltk.so.1.4:_ZN14Fl_Text_Editor18remove_key_bindingEiiPPNS_11Key_BindingE
libfltk.so.1.4:_ZN14Fl_Text_Editor19global_key_bindingsE
libfltk.so.1.4:_ZN14Fl_Text_Editor23remove_all_key_bindingsEPPNS_11Key_BindingE
libfltk.so.1.4:_ZN14Fl_Text_Editor24add_default_key_bindingsEPPNS_11Key_BindingE
libfltk.so.1.4:_ZN14Fl_Text_Editor5kf_upEiPS_
libfltk.so.1.4:_ZN14Fl_Text_Editor6handleEi
libfltk.so.1.4:_ZN14Fl_Text_Editor6kf_cutEiPS_
libfltk.so.1.4:_ZN14Fl_Text_Editor6kf_endEiPS_
libfltk.so.1.4:_ZN14Fl_Text_Editor7kf_copyEiPS_
libfltk.so.1.4:_ZN14Fl_Text_Editor7kf_downEiPS_
libfltk.so.1.4:_ZN14Fl_Text_Editor7kf_homeEiPS_
libfltk.so.1.4:_ZN14Fl_Text_Editor7kf_leftEiPS_
libfltk.so.1.4:_ZN14Fl_Text_Editor7kf_moveEiPS_
libfltk.so.1.4:_ZN14Fl_Text_Editor7kf_redoEiPS_
libfltk.so.1.4:_ZN14Fl_Text_Editor7kf_undoEiPS_
libfltk.so.1.4:_ZN14Fl_Text_Editor7tab_navEi
libfltk.so.1.4:_ZN14Fl_Text_Editor8kf_enterEiPS_
libfltk.so.1.4:_ZN14Fl_Text_Editor8kf_pasteEiPS_
libfltk.so.1.4:_ZN14Fl_Text_Editor8kf_rightEiPS_
libfltk.so.1.4:_ZN14Fl_Text_Editor9kf_deleteEiPS_
libfltk.so.1.4:_ZN14Fl_Text_Editor9kf_ignoreEiPS_
libfltk.so.1.4:_ZN14Fl_Text_Editor9kf_insertEiPS_
libfltk.so.1.4:_ZN14Fl_Text_EditorC1EiiiiPKc
libfltk.so.1.4:_ZN14Fl_Text_EditorC2EiiiiPKc
libfltk.so.1.4:_ZN14Fl_Tiled_Image10desaturateEv
libfltk.so.1.4:_ZN14Fl_Tiled_Image13color_averageEjf
libfltk.so.1.4:_ZN14Fl_Tiled_Image4drawEiiiiii
libfltk.so.1.4:_ZN14Fl_Tiled_ImageC1EP8Fl_Imageii
libfltk.so.1.4:_ZN14Fl_Tiled_ImageC2EP8Fl_Imageii
libfltk.so.1.4:_ZN14Fl_Tiled_ImageD0Ev
libfltk.so.1.4:_ZN14Fl_Tiled_ImageD1Ev
libfltk.so.1.4:_ZN14Fl_Tiled_ImageD2Ev
libfltk.so.1.4:_ZN14Fl_Value_Input12value_damageEv
libfltk.so.1.4:_ZN14Fl_Value_Input4drawEv
libfltk.so.1.4:_ZN14Fl_Value_Input6handleEi
libfltk.so.1.4:_ZN14Fl_Value_Input6resizeEiiii
libfltk.so.1.4:_ZN14Fl_Value_Input8input_cbEP9Fl_WidgetPv
libfltk.so.1.4:_ZN14Fl_Value_InputC1EiiiiPKc
libfltk.so.1.4:_ZN14Fl_Value_InputC2EiiiiPKc
libfltk.so.1.4:_ZN14Fl_Value_InputD0Ev
libfltk.so.1.4:_ZN14Fl_Value_InputD1Ev
libfltk.so.1.4:_ZN14Fl_Value_InputD2Ev
libfltk.so.1.4:_ZN14HV_Edit_Buffer3addEi
libfltk.so.1.4:_ZN15Fl_Check_ButtonC1EiiiiPKc
libfltk.so.1.4:_ZN15Fl_Check_ButtonC2EiiiiPKc
libfltk.so.1.4:_ZN15Fl_Clock_Output4drawEiiii
libfltk.so.1.4:_ZN15Fl_Clock_Output4drawEv
libfltk.so.1.4:_ZN15Fl_Clock_Output5valueEiii
libfltk.so.1.4:_ZN15Fl_Clock_Output5valueEm
libfltk.so.1.4:_ZN15Fl_Clock_Output9drawhandsEjj
libfltk.so.1.4:_ZN15Fl_Clock_OutputC1EiiiiPKc
libfltk.so.1.4:_ZN15Fl_Clock_OutputC2EiiiiPKc
libfltk.so.1.4:_ZN15Fl_Copy_Surface10is_currentEv
libfltk.so.1.4:_ZN15Fl_Copy_Surface11set_currentEv
libfltk.so.1.4:_ZN15Fl_Copy_Surface11untranslateEv
libfltk.so.1.4:_ZN15Fl_Copy_Surface14printable_rectEPiS0_
libfltk.so.1.4:_ZN15Fl_Copy_Surface1hEv
libfltk.so.1.4:_ZN15Fl_Copy_Surface1wEv
libfltk.so.1.4:_ZN15Fl_Copy_Surface6originEPiS0_
libfltk.so.1.4:_ZN15Fl_Copy_Surface6originEii
libfltk.so.1.4:_ZN15Fl_Copy_Surface9translateEii
libfltk.so.1.4:_ZN15Fl_Copy_SurfaceC1Eii
libfltk.so.1.4:_ZN15Fl_Copy_SurfaceC2Eii
libfltk.so.1.4:_ZN15Fl_Copy_SurfaceD0Ev
libfltk.so.1.4:_ZN15Fl_Copy_SurfaceD1Ev
libfltk.so.1.4:_ZN15Fl_Copy_SurfaceD2Ev
libfltk.so.1.4:_ZN15Fl_File_Browser4loadEPKcPFiPP6direntS4_E
libfltk.so.1.4:_ZN15Fl_File_Browser6errmsgEPKc
libfltk.so.1.4:_ZN15Fl_File_Browser6filterEPKc
libfltk.so.1.4:_ZN15Fl_File_BrowserC1EiiiiPKc
libfltk.so.1.4:_ZN15Fl_File_BrowserC2EiiiiPKc
libfltk.so.1.4:_ZN15Fl_File_BrowserD0Ev
libfltk.so.1.4:_ZN15Fl_File_BrowserD1Ev
libfltk.so.1.4:_ZN15Fl_File_BrowserD2Ev
libfltk.so.1.4:_ZN15Fl_File_Chooser10cb_favListEP15Fl_File_BrowserPv
libfltk.so.1.4:_ZN15Fl_File_Chooser10fileListCBEv
libfltk.so.1.4:_ZN15Fl_File_Chooser10fileNameCBEv
libfltk.so.1.4:_ZN15Fl_File_Chooser10save_labelE
libfltk.so.1.4:_ZN15Fl_File_Chooser10showHiddenEi
libfltk.so.1.4:_ZN15Fl_File_Chooser10show_labelE
libfltk.so.1.4:_ZN15Fl_File_Chooser11cb_fileListEP15Fl_File_BrowserPv
libfltk.so.1.4:_ZN15Fl_File_Chooser11cb_fileNameEP13Fl_File_InputPv
libfltk.so.1.4:_ZN15Fl_File_Chooser11cb_okButtonEP16Fl_Return_ButtonPv
libfltk.so.1.4:_ZN15Fl_File_Chooser11favoritesCBEP9Fl_Widget
libfltk.so.1.4:_ZN15Fl_File_Chooser12cb_newButtonEP9Fl_ButtonPv
libfltk.so.1.4:_ZN15Fl_File_Chooser12filter_valueEi
libfltk.so.1.4:_ZN15Fl_File_Chooser12filter_valueEv
libfltk.so.1.4:_ZN15Fl_File_Chooser12hidden_labelE
libfltk.so.1.4:_ZN15Fl_File_Chooser12showChoiceCBEv
libfltk.so.1.4:_ZN15Fl_File_Chooser13cb_showChoiceEP9Fl_ChoicePv
libfltk.so.1.4:_ZN15Fl_File_Chooser13preview_labelE
libfltk.so.1.4:_ZN15Fl_File_Chooser14cb_favOkButtonEP16Fl_Return_ButtonPv
libfltk.so.1.4:_ZN15Fl_File_Chooser14cb_favUpButtonEP9Fl_ButtonPv
libfltk.so.1.4:_ZN15Fl_File_Chooser14filename_labelE
libfltk.so.1.4:_ZN15Fl_File_Chooser14show_error_boxEi
libfltk.so.1.4:_ZN15Fl_File_Chooser14update_previewEv
libfltk.so.1.4:_ZN15Fl_File_Chooser15all_files_labelE
libfltk.so.1.4:_ZN15Fl_File_Chooser15cb_cancelButtonEP9Fl_ButtonPv
libfltk.so.1.4:_ZN15Fl_File_Chooser15favorites_labelE
libfltk.so.1.4:_ZN15Fl_File_Chooser16cb_favDownButtonEP9Fl_ButtonPv
libfltk.so.1.4:_ZN15Fl_File_Chooser16cb_previewButtonEP15Fl_Check_ButtonPv
libfltk.so.1.4:_ZN15Fl_File_Chooser16update_favoritesEv
libfltk.so.1.4:_ZN15Fl_File_Chooser17favoritesButtonCBEv
libfltk.so.1.4:_ZN15Fl_File_Chooser17filesystems_labelE
libfltk.so.1.4:_ZN15Fl_File_Chooser18cb_favCancelButtonEP9Fl_ButtonPv
libfltk.so.1.4:_ZN15Fl_File_Chooser18cb_favDeleteButtonEP9Fl_ButtonPv
libfltk.so.1.4:_ZN15Fl_File_Chooser18cb_favoritesButtonEP14Fl_Menu_ButtonPv
libfltk.so.1.4:_ZN15Fl_File_Chooser19add_favorites_labelE
libfltk.so.1.4:_ZN15Fl_File_Chooser19cb_showHiddenButtonEP15Fl_Check_ButtonPv
libfltk.so.1.4:_ZN15Fl_File_Chooser19custom_filter_labelE
libfltk.so.1.4:_ZN15Fl_File_Chooser19existing_file_labelE
libfltk.so.1.4:_ZN15Fl_File_Chooser19new_directory_labelE
libfltk.so.1.4:_ZN15Fl_File_Chooser19remove_hidden_filesEv
libfltk.so.1.4:_ZN15Fl_File_Chooser20rescan_keep_filenameEv
libfltk.so.1.4:_ZN15Fl_File_Chooser21new_directory_tooltipE
libfltk.so.1.4:_ZN15Fl_File_Chooser22manage_favorites_labelE
libfltk.so.1.4:_ZN15Fl_File_Chooser3cb_EP7Fl_TilePv
libfltk.so.1.4:_ZN15Fl_File_Chooser4hideEv
libfltk.so.1.4:_ZN15Fl_File_Chooser4showEv
libfltk.so.1.4:_ZN15Fl_File_Chooser4sizeEii
libfltk.so.1.4:_ZN15Fl_File_Chooser4sortE
libfltk.so.1.4:_ZN15Fl_File_Chooser4typeEi
libfltk.so.1.4:_ZN15Fl_File_Chooser4typeEv
libfltk.so.1.4:_ZN15Fl_File_Chooser5colorEj
libfltk.so.1.4:_ZN15Fl_File_Chooser5colorEv
libfltk.so.1.4:_ZN15Fl_File_Chooser5countEv
libfltk.so.1.4:_ZN15Fl_File_Chooser5labelEPKc
libfltk.so.1.4:_ZN15Fl_File_Chooser5labelEv
libfltk.so.1.4:_ZN15Fl_File_Chooser5shownEv
libfltk.so.1.4:_ZN15Fl_File_Chooser5valueEPKc
libfltk.so.1.4:_ZN15Fl_File_Chooser5valueEi
libfltk.so.1.4:_ZN15Fl_File_Chooser6filterEPKc
libfltk.so.1.4:_ZN15Fl_File_Chooser6filterEv
libfltk.so.1.4:_ZN15Fl_File_Chooser6newdirEv
libfltk.so.1.4:_ZN15Fl_File_Chooser6prefs_E
libfltk.so.1.4:_ZN15Fl_File_Chooser6rescanEv
libfltk.so.1.4:_ZN15Fl_File_Chooser6resizeEiiii
libfltk.so.1.4:_ZN15Fl_File_Chooser7previewEi
libfltk.so.1.4:_ZN15Fl_File_Chooser7visibleEv
libfltk.so.1.4:_ZN15Fl_File_Chooser8callbackEPFvPS_PvES1_
libfltk.so.1.4:_ZN15Fl_File_Chooser8iconsizeEh
libfltk.so.1.4:_ZN15Fl_File_Chooser8iconsizeEv
libfltk.so.1.4:_ZN15Fl_File_Chooser8ok_labelEPKc
libfltk.so.1.4:_ZN15Fl_File_Chooser8ok_labelEv
libfltk.so.1.4:_ZN15Fl_File_Chooser8positionEii
libfltk.so.1.4:_ZN15Fl_File_Chooser8textfontEi
libfltk.so.1.4:_ZN15Fl_File_Chooser8textfontEv
libfltk.so.1.4:_ZN15Fl_File_Chooser8textsizeEi
libfltk.so.1.4:_ZN15Fl_File_Chooser8textsizeEv
libfltk.so.1.4:_ZN15Fl_File_Chooser9add_extraEP9Fl_Widget
libfltk.so.1.4:_ZN15Fl_File_Chooser9cb_windowEP16Fl_Double_WindowPv
libfltk.so.1.4:_ZN15Fl_File_Chooser9directoryEPKc
libfltk.so.1.4:_ZN15Fl_File_Chooser9directoryEv
libfltk.so.1.4:_ZN15Fl_File_Chooser9previewCBEPS_
libfltk.so.1.4:_ZN15Fl_File_Chooser9textcolorEj
libfltk.so.1.4:_ZN15Fl_File_Chooser9textcolorEv
libfltk.so.1.4:_ZN15Fl_File_Chooser9user_dataEPv
libfltk.so.1.4:_ZN15Fl_File_ChooserC1EPKcS1_iS1_
libfltk.so.1.4:_ZN15Fl_File_ChooserC2EPKcS1_iS1_
libfltk.so.1.4:_ZN15Fl_File_ChooserD1Ev
libfltk.so.1.4:_ZN15Fl_File_ChooserD2Ev
libfltk.so.1.4:_ZN15Fl_Hold_BrowserC1EiiiiPKc
libfltk.so.1.4:_ZN15Fl_Hold_BrowserC2EiiiiPKc
libfltk.so.1.4:_ZN15Fl_Input_Choice11set_changedEv
libfltk.so.1.4:_ZN15Fl_Input_Choice13clear_changedEv
libfltk.so.1.4:_ZN15Fl_Input_Choice15InputMenuButton4drawEv
libfltk.so.1.4:_ZN15Fl_Input_Choice15InputMenuButton5popupEv
libfltk.so.1.4:_ZN15Fl_Input_Choice15InputMenuButton6handleEi
libfltk.so.1.4:_ZN15Fl_Input_Choice15InputMenuButtonC1EiiiiPKc
libfltk.so.1.4:_ZN15Fl_Input_Choice15InputMenuButtonC2EiiiiPKc
libfltk.so.1.4:_ZN15Fl_Input_Choice17update_menubuttonEv
libfltk.so.1.4:_ZN15Fl_Input_Choice4drawEv
libfltk.so.1.4:_ZN15Fl_Input_Choice5valueEi
libfltk.so.1.4:_ZN15Fl_Input_Choice6inp_cbEP9Fl_WidgetPv
libfltk.so.1.4:_ZN15Fl_Input_Choice6resizeEiiii
libfltk.so.1.4:_ZN15Fl_Input_Choice7menu_cbEP9Fl_WidgetPv
libfltk.so.1.4:_ZN15Fl_Input_ChoiceC1EiiiiPKc
libfltk.so.1.4:_ZN15Fl_Input_ChoiceC2EiiiiPKc
libfltk.so.1.4:_ZN15Fl_Light_Button4drawEv
libfltk.so.1.4:_ZN15Fl_Light_Button6handleEi
libfltk.so.1.4:_ZN15Fl_Light_ButtonC1EiiiiPKc
libfltk.so.1.4:_ZN15Fl_Light_ButtonC2EiiiiPKc
libfltk.so.1.4:_ZN15Fl_Paged_Device10begin_pageEv
libfltk.so.1.4:_ZN15Fl_Paged_Device12page_formatsE
libfltk.so.1.4:_ZN15Fl_Paged_Device5scaleEff
libfltk.so.1.4:_ZN15Fl_Paged_Device6rotateEf
libfltk.so.1.4:_ZN15Fl_Paged_Device7end_jobEv
libfltk.so.1.4:_ZN15Fl_Paged_Device7marginsEPiS0_S0_S0_
libfltk.so.1.4:_ZN15Fl_Paged_Device8end_pageEv
libfltk.so.1.4:_ZN15Fl_Paged_Device9begin_jobEiPiS0_PPc
libfltk.so.1.4:_ZN15Fl_Radio_ButtonC1EiiiiPKc
libfltk.so.1.4:_ZN15Fl_Radio_ButtonC2EiiiiPKc
libfltk.so.1.4:_ZN15Fl_Round_ButtonC1EiiiiPKc
libfltk.so.1.4:_ZN15Fl_Round_ButtonC2EiiiiPKc
libfltk.so.1.4:_ZN15Fl_Secret_Input6handleEi
libfltk.so.1.4:_ZN15Fl_Secret_InputC1EiiiiPKc
libfltk.so.1.4:_ZN15Fl_Secret_InputC2EiiiiPKc
libfltk.so.1.4:_ZN15Fl_Shared_Image10desaturateEv
libfltk.so.1.4:_ZN15Fl_Shared_Image10num_imagesEv
libfltk.so.1.4:_ZN15Fl_Shared_Image11add_handlerEPFP8Fl_ImagePKcPhiE
libfltk.so.1.4:_ZN15Fl_Shared_Image11num_images_E
libfltk.so.1.4:_ZN15Fl_Shared_Image13alloc_images_E
libfltk.so.1.4:_ZN15Fl_Shared_Image13color_averageEjf
libfltk.so.1.4:_ZN15Fl_Shared_Image13num_handlers_E
libfltk.so.1.4:_ZN15Fl_Shared_Image14remove_handlerEPFP8Fl_ImagePKcPhiE
libfltk.so.1.4:_ZN15Fl_Shared_Image15alloc_handlers_E
libfltk.so.1.4:_ZN15Fl_Shared_Image3addEv
libfltk.so.1.4:_ZN15Fl_Shared_Image3getEP12Fl_RGB_Imagei
libfltk.so.1.4:_ZN15Fl_Shared_Image3getEPKcii
libfltk.so.1.4:_ZN15Fl_Shared_Image4copyEv
libfltk.so.1.4:_ZN15Fl_Shared_Image4drawEiiiiii
libfltk.so.1.4:_ZN15Fl_Shared_Image4findEPKcii
libfltk.so.1.4:_ZN15Fl_Shared_Image6imagesEv
libfltk.so.1.4:_ZN15Fl_Shared_Image6reloadEv
libfltk.so.1.4:_ZN15Fl_Shared_Image6updateEv
libfltk.so.1.4:_ZN15Fl_Shared_Image7compareEPPS_S1_
libfltk.so.1.4:_ZN15Fl_Shared_Image7images_E
libfltk.so.1.4:_ZN15Fl_Shared_Image7releaseEv
libfltk.so.1.4:_ZN15Fl_Shared_Image7uncacheEv
libfltk.so.1.4:_ZN15Fl_Shared_Image9handlers_E
libfltk.so.1.4:_ZN15Fl_Shared_ImageC1EPKcP8Fl_Image
libfltk.so.1.4:_ZN15Fl_Shared_ImageC1Ev
libfltk.so.1.4:_ZN15Fl_Shared_ImageC2EPKcP8Fl_Image
libfltk.so.1.4:_ZN15Fl_Shared_ImageC2Ev
libfltk.so.1.4:_ZN15Fl_Shared_ImageD0Ev
libfltk.so.1.4:_ZN15Fl_Shared_ImageD1Ev
libfltk.so.1.4:_ZN15Fl_Shared_ImageD2Ev
libfltk.so.1.4:_ZN15Fl_Sys_Menu_Bar13clear_submenuEi
libfltk.so.1.4:_ZN15Fl_Sys_Menu_Bar17window_menu_styleENS_22window_menu_style_enumE
libfltk.so.1.4:_ZN15Fl_Sys_Menu_Bar17window_menu_styleEv
libfltk.so.1.4:_ZN15Fl_Sys_Menu_Bar18create_window_menuEv
libfltk.so.1.4:_ZN15Fl_Sys_Menu_Bar3addEPKc
libfltk.so.1.4:_ZN15Fl_Sys_Menu_Bar3addEPKciPFvP9Fl_WidgetPvES4_i
libfltk.so.1.4:_ZN15Fl_Sys_Menu_Bar4drawEv
libfltk.so.1.4:_ZN15Fl_Sys_Menu_Bar4menuEPK12Fl_Menu_Item
libfltk.so.1.4:_ZN15Fl_Sys_Menu_Bar4modeEii
libfltk.so.1.4:_ZN15Fl_Sys_Menu_Bar5aboutEPFvP9Fl_WidgetPvES2_
libfltk.so.1.4:_ZN15Fl_Sys_Menu_Bar5clearEv
libfltk.so.1.4:_ZN15Fl_Sys_Menu_Bar6driverEv
libfltk.so.1.4:_ZN15Fl_Sys_Menu_Bar6insertEiPKciPFvP9Fl_WidgetPvES4_i
libfltk.so.1.4:_ZN15Fl_Sys_Menu_Bar6removeEi
libfltk.so.1.4:_ZN15Fl_Sys_Menu_Bar6updateEv
libfltk.so.1.4:_ZN15Fl_Sys_Menu_Bar7replaceEiPKc
libfltk.so.1.4:_ZN15Fl_Sys_Menu_Bar7setonlyEP12Fl_Menu_Item
libfltk.so.1.4:_ZN15Fl_Sys_Menu_Bar8shortcutEii
libfltk.so.1.4:_ZN15Fl_Sys_Menu_Bar9play_menuEPK12Fl_Menu_Item
libfltk.so.1.4:_ZN15Fl_Sys_Menu_BarC1EiiiiPKc
libfltk.so.1.4:_ZN15Fl_Sys_Menu_BarC2EiiiiPKc
libfltk.so.1.4:_ZN15Fl_Sys_Menu_BarD0Ev
libfltk.so.1.4:_ZN15Fl_Sys_Menu_BarD1Ev
libfltk.so.1.4:_ZN15Fl_Sys_Menu_BarD2Ev
libfltk.so.1.4:_ZN15Fl_Text_Display10draw_rangeEii
libfltk.so.1.4:_ZN15Fl_Text_Display10draw_vlineEiiiii
libfltk.so.1.4:_ZN15Fl_Text_Display10handle_rmbEi
libfltk.so.1.4:_ZN15Fl_Text_Display10move_rightEv
libfltk.so.1.4:_ZN15Fl_Text_Display10overstrikeEPKc
libfltk.so.1.4:_ZN15Fl_Text_Display10skip_linesEiib
libfltk.so.1.4:_ZN15Fl_Text_Display11draw_cursorEii
libfltk.so.1.4:_ZN15Fl_Text_Display11show_cursorEi
libfltk.so.1.4:_ZN15Fl_Text_Display12cursor_styleEi
libfltk.so.1.4:_ZN15Fl_Text_Display12rewind_linesEii
libfltk.so.1.4:_ZN15Fl_Text_Display13previous_wordEv
libfltk.so.1.4:_ZN15Fl_Text_Display14calc_last_charEv
libfltk.so.1.4:_ZN15Fl_Text_Display14display_insertEv
libfltk.so.1.4:_ZN15Fl_Text_Display14h_scrollbar_cbEP12Fl_ScrollbarPS_
libfltk.so.1.4:_ZN15Fl_Text_Display14highlight_dataEP14Fl_Text_BufferPKNS_17Style_Table_EntryEicPFviPvES5_
libfltk.so.1.4:_ZN15Fl_Text_Display14recalc_displayEv
libfltk.so.1.4:_ZN15Fl_Text_Display14v_scrollbar_cbEP12Fl_ScrollbarPS_
libfltk.so.1.4:_ZN15Fl_Text_Display15find_wrap_rangeEPKciiiPiS2_S2_S2_
libfltk.so.1.4:_ZN15Fl_Text_Display15insert_positionEi
libfltk.so.1.4:_ZN15Fl_Text_Display15linenumber_fontEi
libfltk.so.1.4:_ZN15Fl_Text_Display15linenumber_sizeEi
libfltk.so.1.4:_ZN15Fl_Text_Display15redisplay_rangeEii
libfltk.so.1.4:_ZN15Fl_Text_Display15scroll_timer_cbEPv
libfltk.so.1.4:_ZN15Fl_Text_Display16calc_line_startsEii
libfltk.so.1.4:_ZN15Fl_Text_Display16linenumber_alignEj
libfltk.so.1.4:_ZN15Fl_Text_Display16linenumber_widthEi
libfltk.so.1.4:_ZN15Fl_Text_Display17draw_line_numbersEb
libfltk.so.1.4:_ZN15Fl_Text_Display17linenumber_formatEPKc
libfltk.so.1.4:_ZN15Fl_Text_Display18buffer_modified_cbEiiiiPKcPv
libfltk.so.1.4:_ZN15Fl_Text_Display18linenumber_bgcolorEj
libfltk.so.1.4:_ZN15Fl_Text_Display18linenumber_fgcolorEj
libfltk.so.1.4:_ZN15Fl_Text_Display18offset_line_startsEi
libfltk.so.1.4:_ZN15Fl_Text_Display18update_h_scrollbarEv
libfltk.so.1.4:_ZN15Fl_Text_Display18update_line_startsEiiiiiPi
libfltk.so.1.4:_ZN15Fl_Text_Display18update_v_scrollbarEv
libfltk.so.1.4:_ZN15Fl_Text_Display19buffer_predelete_cbEiiPv
libfltk.so.1.4:_ZN15Fl_Text_Display20display_needs_recalcEv
libfltk.so.1.4:_ZN15Fl_Text_Display20show_insert_positionEv
libfltk.so.1.4:_ZN15Fl_Text_Display21measure_deleted_linesEii
libfltk.so.1.4:_ZN15Fl_Text_Display23extend_range_for_stylesEPiS0_
libfltk.so.1.4:_ZN15Fl_Text_Display24absolute_top_line_numberEi
libfltk.so.1.4:_ZN15Fl_Text_Display30reset_absolute_top_line_numberEv
libfltk.so.1.4:_ZN15Fl_Text_Display33maintain_absolute_top_line_numberEi
libfltk.so.1.4:_ZN15Fl_Text_Display4drawEv
libfltk.so.1.4:_ZN15Fl_Text_Display6bufferEP14Fl_Text_Buffer
libfltk.so.1.4:_ZN15Fl_Text_Display6handleEi
libfltk.so.1.4:_ZN15Fl_Text_Display6insertEPKc
libfltk.so.1.4:_ZN15Fl_Text_Display6resizeEiiii
libfltk.so.1.4:_ZN15Fl_Text_Display6scrollEii
libfltk.so.1.4:_ZN15Fl_Text_Display7move_upEv
libfltk.so.1.4:_ZN15Fl_Text_Display7scroll_Eii
libfltk.so.1.4:_ZN15Fl_Text_Display9draw_textEiiii
libfltk.so.1.4:_ZN15Fl_Text_Display9move_downEv
libfltk.so.1.4:_ZN15Fl_Text_Display9move_leftEv
libfltk.so.1.4:_ZN15Fl_Text_Display9next_wordEv
libfltk.so.1.4:_ZN15Fl_Text_Display9wrap_modeEii
libfltk.so.1.4:_ZN15Fl_Text_DisplayC1EiiiiPKc
libfltk.so.1.4:_ZN15Fl_Text_DisplayC2EiiiiPKc
libfltk.so.1.4:_ZN15Fl_Text_DisplayD0Ev
libfltk.so.1.4:_ZN15Fl_Text_DisplayD1Ev
libfltk.so.1.4:_ZN15Fl_Text_DisplayD2Ev
libfltk.so.1.4:_ZN15Fl_Value_Output4drawEv
libfltk.so.1.4:_ZN15Fl_Value_Output6handleEi
libfltk.so.1.4:_ZN15Fl_Value_OutputC1EiiiiPKc
libfltk.so.1.4:_ZN15Fl_Value_OutputC2EiiiiPKc
libfltk.so.1.4:_ZN15Fl_Value_Slider4drawEv
libfltk.so.1.4:_ZN15Fl_Value_Slider6handleEi
libfltk.so.1.4:_ZN15Fl_Value_SliderC1EiiiiPKc
libfltk.so.1.4:_ZN15Fl_Value_SliderC2EiiiiPKc
libfltk.so.1.4:_ZN16Fl_Check_Browser10check_noneEv
libfltk.so.1.4:_ZN16Fl_Check_Browser11item_selectEPvi
libfltk.so.1.4:_ZN16Fl_Check_Browser3addEPc
libfltk.so.1.4:_ZN16Fl_Check_Browser3addEPci
libfltk.so.1.4:_ZN16Fl_Check_Browser5clearEv
libfltk.so.1.4:_ZN16Fl_Check_Browser6handleEi
libfltk.so.1.4:_ZN16Fl_Check_Browser6removeEi
libfltk.so.1.4:_ZN16Fl_Check_Browser7checkedEii
libfltk.so.1.4:_ZN16Fl_Check_Browser9check_allEv
libfltk.so.1.4:_ZN16Fl_Check_Browser9item_swapEPvS0_
libfltk.so.1.4:_ZN16Fl_Check_Browser9item_swapEii
libfltk.so.1.4:_ZN16Fl_Check_BrowserC1EiiiiPKc
libfltk.so.1.4:_ZN16Fl_Check_BrowserC2EiiiiPKc
libfltk.so.1.4:_ZN16Fl_Color_Chooser13set_valuatorsEv
libfltk.so.1.4:_ZN16Fl_Color_Chooser3hsvEddd
libfltk.so.1.4:_ZN16Fl_Color_Chooser3rgbEddd
libfltk.so.1.4:_ZN16Fl_Color_Chooser4modeEi
libfltk.so.1.4:_ZN16Fl_Color_Chooser6handleEi
libfltk.so.1.4:_ZN16Fl_Color_Chooser6rgb_cbEP9Fl_WidgetPv
libfltk.so.1.4:_ZN16Fl_Color_Chooser7hsv2rgbEdddRdS0_S0_
libfltk.so.1.4:_ZN16Fl_Color_Chooser7mode_cbEP9Fl_WidgetPv
libfltk.so.1.4:_ZN16Fl_Color_Chooser7rgb2hsvEdddRdS0_S0_
libfltk.so.1.4:_ZN16Fl_Color_ChooserC1EiiiiPKc
libfltk.so.1.4:_ZN16Fl_Color_ChooserC2EiiiiPKc
libfltk.so.1.4:_ZN16Fl_Device_Plugin13opengl_pluginEv
libfltk.so.1.4:_ZN16Fl_Double_Window4hideEv
libfltk.so.1.4:_ZN16Fl_Double_Window4showEv
libfltk.so.1.4:_ZN16Fl_Double_Window5flushEv
libfltk.so.1.4:_ZN16Fl_Double_Window6resizeEiiii
libfltk.so.1.4:_ZN16Fl_Double_WindowC1EiiPKc
libfltk.so.1.4:_ZN16Fl_Double_WindowC1EiiiiPKc
libfltk.so.1.4:_ZN16Fl_Double_WindowC2EiiPKc
libfltk.so.1.4:_ZN16Fl_Double_WindowC2EiiiiPKc
libfltk.so.1.4:_ZN16Fl_Double_WindowD0Ev
libfltk.so.1.4:_ZN16Fl_Double_WindowD1Ev
libfltk.so.1.4:_ZN16Fl_Double_WindowD2Ev
libfltk.so.1.4:_ZN16Fl_Image_Surface10is_currentEv
libfltk.so.1.4:_ZN16Fl_Image_Surface11set_currentEv
libfltk.so.1.4:_ZN16Fl_Image_Surface11untranslateEv
libfltk.so.1.4:_ZN16Fl_Image_Surface13highres_imageEv
libfltk.so.1.4:_ZN16Fl_Image_Surface14printable_rectEPiS0_
libfltk.so.1.4:_ZN16Fl_Image_Surface28get_offscreen_before_delete_Ev
libfltk.so.1.4:_ZN16Fl_Image_Surface4maskEPK12Fl_RGB_Image
libfltk.so.1.4:_ZN16Fl_Image_Surface5imageEv
libfltk.so.1.4:_ZN16Fl_Image_Surface6originEPiS0_
libfltk.so.1.4:_ZN16Fl_Image_Surface6originEii
libfltk.so.1.4:_ZN16Fl_Image_Surface7rescaleEv
libfltk.so.1.4:_ZN16Fl_Image_Surface9offscreenEv
libfltk.so.1.4:_ZN16Fl_Image_Surface9translateEii
libfltk.so.1.4:_ZN16Fl_Image_SurfaceC1Eiiim
libfltk.so.1.4:_ZN16Fl_Image_SurfaceC2Eiiim
libfltk.so.1.4:_ZN16Fl_Image_SurfaceD0Ev
libfltk.so.1.4:_ZN16Fl_Image_SurfaceD1Ev
libfltk.so.1.4:_ZN16Fl_Image_SurfaceD2Ev
libfltk.so.1.4:_ZN16Fl_Multi_BrowserC1EiiiiPKc
libfltk.so.1.4:_ZN16Fl_Multi_BrowserC2EiiiiPKc
libfltk.so.1.4:_ZN16Fl_Repeat_Button15repeat_callbackEPv
libfltk.so.1.4:_ZN16Fl_Repeat_Button6handleEi
libfltk.so.1.4:_ZN16Fl_Repeat_ButtonC1EiiiiPKc
libfltk.so.1.4:_ZN16Fl_Repeat_ButtonC2EiiiiPKc
libfltk.so.1.4:_ZN16Fl_Return_Button4drawEv
libfltk.so.1.4:_ZN16Fl_Return_Button6handleEi
libfltk.so.1.4:_ZN16Fl_Return_ButtonC1EiiiiPKc
libfltk.so.1.4:_ZN16Fl_Return_ButtonC2EiiiiPKc
libfltk.so.1.4:_ZN16Fl_Scheme_Choice10init_valueEv
libfltk.so.1.4:_ZN16Fl_Scheme_Choice10scheme_cb_EP9Fl_WidgetPv
libfltk.so.1.4:_ZN16Fl_Scheme_Choice6handleEi
libfltk.so.1.4:_ZN16Fl_Scheme_ChoiceC1EiiiiPKc
libfltk.so.1.4:_ZN16Fl_Scheme_ChoiceC2EiiiiPKc
libfltk.so.1.4:_ZN16Fl_Screen_Driver10base_scaleEi
libfltk.so.1.4:_ZN16Fl_Screen_Driver10fl_NoValueE
libfltk.so.1.4:_ZN16Fl_Screen_Driver10reset_spotEv
libfltk.so.1.4:_ZN16Fl_Screen_Driver10screen_numEii
libfltk.so.1.4:_ZN16Fl_Screen_Driver10screen_numEiiii
libfltk.so.1.4:_ZN16Fl_Screen_Driver10set_statusEiiii
libfltk.so.1.4:_ZN16Fl_Screen_Driver11parse_colorEPKcRhS2_S2_
libfltk.so.1.4:_ZN16Fl_Screen_Driver11screen_xywhERiS0_S0_S0_ii
libfltk.so.1.4:_ZN16Fl_Screen_Driver11screen_xywhERiS0_S0_S0_iiii
libfltk.so.1.4:_ZN16Fl_Screen_Driver12convert_crlfEPcm
libfltk.so.1.4:_ZN16Fl_Screen_Driver12fl_XNegativeE
libfltk.so.1.4:_ZN16Fl_Screen_Driver12fl_YNegativeE
libfltk.so.1.4:_ZN16Fl_Screen_Driver12open_displayEv
libfltk.so.1.4:_ZN16Fl_Screen_Driver12screen_countEv
libfltk.so.1.4:_ZN16Fl_Screen_Driver13compose_resetEv
libfltk.so.1.4:_ZN16Fl_Screen_Driver13default_iconsEPPK12Fl_RGB_Imagei
libfltk.so.1.4:_ZN16Fl_Screen_Driver13fl_WidthValueE
libfltk.so.1.4:_ZN16Fl_Screen_Driver13scale_handlerEi
libfltk.so.1.4:_ZN16Fl_Screen_Driver13system_driverE
libfltk.so.1.4:_ZN16Fl_Screen_Driver14XParseGeometryEPKcPiS2_PjS3_
libfltk.so.1.4:_ZN16Fl_Screen_Driver14fl_HeightValueE
libfltk.so.1.4:_ZN16Fl_Screen_Driver15fl_intersectionEiiiiiiii
libfltk.so.1.4:_ZN16Fl_Screen_Driver15newScreenDriverEv
libfltk.so.1.4:_ZN16Fl_Screen_Driver16screen_work_areaERiS0_S0_S0_ii
libfltk.so.1.4:_ZN16Fl_Screen_Driver17get_system_colorsEv
libfltk.so.1.4:_ZN16Fl_Screen_Driver17get_system_schemeEv
libfltk.so.1.4:_ZN16Fl_Screen_Driver18write_image_insideEP12Fl_RGB_ImageS1_ii
libfltk.so.1.4:_ZN16Fl_Screen_Driver20del_transient_windowEPv
libfltk.so.1.4:_ZN16Fl_Screen_Driver21shortcut_add_key_nameEjPcS0_PPKc
libfltk.so.1.4:_ZN16Fl_Screen_Driver22secret_input_characterE
libfltk.so.1.4:_ZN16Fl_Screen_Driver22transient_scale_parentE
libfltk.so.1.4:_ZN16Fl_Screen_Driver23input_widget_handle_keyEijjP8Fl_Input
libfltk.so.1.4:_ZN16Fl_Screen_Driver23keyboard_screen_scalingE
libfltk.so.1.4:_ZN16Fl_Screen_Driver23transient_scale_displayEfi
libfltk.so.1.4:_ZN16Fl_Screen_Driver24use_startup_scale_factorEv
libfltk.so.1.4:_ZN16Fl_Screen_Driver25traverse_to_gl_subwindowsEP8Fl_GroupiiiiP12Fl_RGB_Image
libfltk.so.1.4:_ZN16Fl_Screen_Driver31rescale_all_windows_from_screenEiff
libfltk.so.1.4:_ZN16Fl_Screen_Driver6bg_setE
libfltk.so.1.4:_ZN16Fl_Screen_Driver6fg_setE
libfltk.so.1.4:_ZN16Fl_Screen_Driver6visualEi
libfltk.so.1.4:_ZN16Fl_Screen_Driver7bg2_setE
libfltk.so.1.4:_ZN16Fl_Screen_Driver8set_spotEiiiiiiP9Fl_Window
libfltk.so.1.4:_ZN16Fl_Screen_Driver9fl_XValueE
libfltk.so.1.4:_ZN16Fl_Screen_Driver9fl_YValueE
libfltk.so.1.4:_ZN16Fl_Screen_DriverC1Ev
libfltk.so.1.4:_ZN16Fl_Screen_DriverC2Ev
libfltk.so.1.4:_ZN16Fl_Screen_DriverD0Ev
libfltk.so.1.4:_ZN16Fl_Screen_DriverD1Ev
libfltk.so.1.4:_ZN16Fl_Screen_DriverD2Ev
libfltk.so.1.4:_ZN16Fl_Single_Window4showEv
libfltk.so.1.4:_ZN16Fl_Single_WindowC1EiiPKc
libfltk.so.1.4:_ZN16Fl_Single_WindowC1EiiiiPKc
libfltk.so.1.4:_ZN16Fl_Single_WindowC2EiiPKc
libfltk.so.1.4:_ZN16Fl_Single_WindowC2EiiiiPKc
libfltk.so.1.4:_ZN16Fl_System_Driver10utf8fromwcEPcjPKwj
libfltk.so.1.4:_ZN16Fl_System_Driver11command_keyE
libfltk.so.1.4:_ZN16Fl_System_Driver11control_keyE
libfltk.so.1.4:_ZN16Fl_System_Driver11utf8from_mbEPcjPKcj
libfltk.so.1.4:_ZN16Fl_System_Driver12filename_extEPKc
libfltk.so.1.4:_ZN16Fl_System_Driver13open_callbackEPFvPKcE
libfltk.so.1.4:_ZN16Fl_System_Driver14filename_isdirEPKc
libfltk.so.1.4:_ZN16Fl_System_Driver15clocale_vprintfEP8_IO_FILEPKcP13__va_list_tag
libfltk.so.1.4:_ZN16Fl_System_Driver15clocale_vsscanfEPKcS1_P13__va_list_tag
libfltk.so.1.4:_ZN16Fl_System_Driver15filename_expandEPciPKc
libfltk.so.1.4:_ZN16Fl_System_Driver15latin1_to_localEPKci
libfltk.so.1.4:_ZN16Fl_System_Driver15local_to_latin1EPKci
libfltk.so.1.4:_ZN16Fl_System_Driver15newSystemDriverEv
libfltk.so.1.4:_ZN16Fl_System_Driver16awake_ring_emptyEv
libfltk.so.1.4:_ZN16Fl_System_Driver17clocale_vsnprintfEPcmPKcP13__va_list_tag
libfltk.so.1.4:_ZN16Fl_System_Driver17filename_absoluteEPciPKcS2_
libfltk.so.1.4:_ZN16Fl_System_Driver17filename_relativeEPciPKcS2_
libfltk.so.1.4:_ZN16Fl_System_Driver18local_to_mac_romanEPKci
libfltk.so.1.4:_ZN16Fl_System_Driver18mac_roman_to_localEPKci
libfltk.so.1.4:_ZN16Fl_System_Driver20filename_isdir_quickEPKc
libfltk.so.1.4:_ZN16Fl_System_Driver20tree_connector_styleEv
libfltk.so.1.4:_ZN16Fl_System_Driver24tree_draw_expando_buttonEiibb
libfltk.so.1.4:_ZN16Fl_System_Driver27file_browser_load_directoryEPKcPcmPPP6direntPFiS5_S5_ES2_i
libfltk.so.1.4:_ZN16Fl_System_Driver4waitEd
libfltk.so.1.4:_ZN16Fl_System_Driver5errorEPKcP13__va_list_tag
libfltk.so.1.4:_ZN16Fl_System_Driver5errorEPKcz
libfltk.so.1.4:_ZN16Fl_System_Driver5fatalEPKcP13__va_list_tag
libfltk.so.1.4:_ZN16Fl_System_Driver5fatalEPKcz
libfltk.so.1.4:_ZN16Fl_System_Driver5fopenEPKcS1_
libfltk.so.1.4:_ZN16Fl_System_Driver6add_fdEiPFviPvES0_
libfltk.so.1.4:_ZN16Fl_System_Driver6add_fdEiiPFviPvES0_
libfltk.so.1.4:_ZN16Fl_System_Driver7gettimeEPlPi
libfltk.so.1.4:_ZN16Fl_System_Driver7warningEPKcP13__va_list_tag
libfltk.so.1.4:_ZN16Fl_System_Driver7warningEPKcz
libfltk.so.1.4:_ZN16Fl_System_Driver8utf8towcEPKcjPwj
libfltk.so.1.4:_ZN16Fl_System_Driver9file_typeEPKc
libfltk.so.1.4:_ZN16Fl_System_Driver9remove_fdEi
libfltk.so.1.4:_ZN16Fl_System_Driver9remove_fdEii
libfltk.so.1.4:_ZN16Fl_System_Driver9utf8to_mbEPKcjPcj
libfltk.so.1.4:_ZN16Fl_System_DriverC1Ev
libfltk.so.1.4:_ZN16Fl_System_DriverC2Ev
libfltk.so.1.4:_ZN16Fl_System_DriverD0Ev
libfltk.so.1.4:_ZN16Fl_System_DriverD1Ev
libfltk.so.1.4:_ZN16Fl_System_DriverD2Ev
libfltk.so.1.4:_ZN16Fl_Toggle_ButtonC1EiiiiPKc
libfltk.so.1.4:_ZN16Fl_Toggle_ButtonC2EiiiiPKc
libfltk.so.1.4:_ZN16Fl_Window_Driver10draw_beginEv
libfltk.so.1.4:_ZN16Fl_Window_Driver10menu_titleEP9Fl_Window
libfltk.so.1.4:_ZN16Fl_Window_Driver10screen_numEv
libfltk.so.1.4:_ZN16Fl_Window_Driver10set_cursorE9Fl_Cursor
libfltk.so.1.4:_ZN16Fl_Window_Driver10set_cursorEPK12Fl_RGB_Imageii
libfltk.so.1.4:_ZN16Fl_Window_Driver10size_rangeEv
libfltk.so.1.4:_ZN16Fl_Window_Driver10take_focusEv
libfltk.so.1.4:_ZN16Fl_Window_Driver10use_borderEv
libfltk.so.1.4:_ZN16Fl_Window_Driver11hide_commonEv
libfltk.so.1.4:_ZN16Fl_Window_Driver11menu_parentEPi
libfltk.so.1.4:_ZN16Fl_Window_Driver11un_maximizeEv
libfltk.so.1.4:_ZN16Fl_Window_Driver12flush_doubleEv
libfltk.so.1.4:_ZN16Fl_Window_Driver12make_currentEv
libfltk.so.1.4:_ZN16Fl_Window_Driver13flush_overlayEv
libfltk.so.1.4:_ZN16Fl_Window_Driver13is_a_rescale_E
libfltk.so.1.4:_ZN16Fl_Window_Driver13menu_bartitleEP9Fl_Window
libfltk.so.1.4:_ZN16Fl_Window_Driver13menu_offset_yEP9Fl_Window
libfltk.so.1.4:_ZN16Fl_Window_Driver13menu_selectedEP9Fl_Window
libfltk.so.1.4:_ZN16Fl_Window_Driver13shape_pixmap_EP8Fl_Image
libfltk.so.1.4:_ZN16Fl_Window_Driver14can_do_overlayEv
libfltk.so.1.4:_ZN16Fl_Window_Driver14force_positionEi
libfltk.so.1.4:_ZN16Fl_Window_Driver14force_positionEv
libfltk.so.1.4:_ZN16Fl_Window_Driver14redraw_overlayEv
libfltk.so.1.4:_ZN16Fl_Window_Driver15menu_itemheightEP9Fl_Window
libfltk.so.1.4:_ZN16Fl_Window_Driver15menu_leftoriginEP9Fl_Window
libfltk.so.1.4:_ZN16Fl_Window_Driver15newWindowDriverEP9Fl_Window
libfltk.so.1.4:_ZN16Fl_Window_Driver15wait_for_exposeEv
libfltk.so.1.4:_ZN16Fl_Window_Driver16menu_window_areaERiS0_S0_S0_i
libfltk.so.1.4:_ZN16Fl_Window_Driver17is_floating_titleEP9Fl_Window
libfltk.so.1.4:_ZN16Fl_Window_Driver19current_menu_buttonE
libfltk.so.1.4:_ZN16Fl_Window_Driver1xEi
libfltk.so.1.4:_ZN16Fl_Window_Driver1yEi
libfltk.so.1.4:_ZN16Fl_Window_Driver21destroy_double_bufferEv
libfltk.so.1.4:_ZN16Fl_Window_Driver21fullscreen_screen_topEv
libfltk.so.1.4:_ZN16Fl_Window_Driver22fullscreen_screen_leftEv
libfltk.so.1.4:_ZN16Fl_Window_Driver22reposition_menu_windowEii
libfltk.so.1.4:_ZN16Fl_Window_Driver23fullscreen_screen_rightEv
libfltk.so.1.4:_ZN16Fl_Window_Driver23scroll_to_selected_itemEP9Fl_Window
libfltk.so.1.4:_ZN16Fl_Window_Driver24fullscreen_screen_bottomEv
libfltk.so.1.4:_ZN16Fl_Window_Driver25resize_after_scale_changeEiff
libfltk.so.1.4:_ZN16Fl_Window_Driver28capture_titlebar_and_bordersERP12Fl_RGB_ImageS2_S2_S2_
libfltk.so.1.4:_ZN16Fl_Window_Driver3xidEPK9Fl_Window
libfltk.so.1.4:_ZN16Fl_Window_Driver4drawEv
libfltk.so.1.4:_ZN16Fl_Window_Driver4findEm
libfltk.so.1.4:_ZN16Fl_Window_Driver4showEv
libfltk.so.1.4:_ZN16Fl_Window_Driver5flushEv
libfltk.so.1.4:_ZN16Fl_Window_Driver5labelEPKcS1_
libfltk.so.1.4:_ZN16Fl_Window_Driver7currentEP9Fl_Window
libfltk.so.1.4:_ZN16Fl_Window_Driver8draw_endEv
libfltk.so.1.4:_ZN16Fl_Window_Driver8maximizeEv
libfltk.so.1.4:_ZN16Fl_Window_DriverC1EP9Fl_Window
libfltk.so.1.4:_ZN16Fl_Window_DriverC2EP9Fl_Window
libfltk.so.1.4:_ZN16Fl_Window_DriverD0Ev
libfltk.so.1.4:_ZN16Fl_Window_DriverD1Ev
libfltk.so.1.4:_ZN16Fl_Window_DriverD2Ev
libfltk.so.1.4:_ZN16Flcc_Value_Input6formatEPc
libfltk.so.1.4:_ZN17Fl_Display_Device14display_deviceEv
libfltk.so.1.4:_ZN17Fl_Display_DeviceC1EP18Fl_Graphics_Driver
libfltk.so.1.4:_ZN17Fl_Display_DeviceC2EP18Fl_Graphics_Driver
libfltk.so.1.4:_ZN17Fl_Overlay_Window14can_do_overlayEv
libfltk.so.1.4:_ZN17Fl_Overlay_Window14redraw_overlayEv
libfltk.so.1.4:_ZN17Fl_Overlay_Window4hideEv
libfltk.so.1.4:_ZN17Fl_Overlay_Window4showEv
libfltk.so.1.4:_ZN17Fl_Overlay_Window5flushEv
libfltk.so.1.4:_ZN17Fl_Overlay_Window6resizeEiiii
libfltk.so.1.4:_ZN17Fl_Overlay_WindowC1EiiPKc
libfltk.so.1.4:_ZN17Fl_Overlay_WindowC1EiiiiPKc
libfltk.so.1.4:_ZN17Fl_Overlay_WindowC2EiiPKc
libfltk.so.1.4:_ZN17Fl_Overlay_WindowC2EiiiiPKc
libfltk.so.1.4:_ZN17Fl_Overlay_WindowD0Ev
libfltk.so.1.4:_ZN17Fl_Overlay_WindowD1Ev
libfltk.so.1.4:_ZN17Fl_Overlay_WindowD2Ev
libfltk.so.1.4:_ZN17Fl_Plugin_Manager12removePluginEPv
libfltk.so.1.4:_ZN17Fl_Plugin_Manager4loadEPKc
libfltk.so.1.4:_ZN17Fl_Plugin_Manager6pluginEPKc
libfltk.so.1.4:_ZN17Fl_Plugin_Manager6pluginEi
libfltk.so.1.4:_ZN17Fl_Plugin_Manager7loadAllEPKcS1_
libfltk.so.1.4:_ZN17Fl_Plugin_Manager9addPluginEPKcP9Fl_Plugin
libfltk.so.1.4:_ZN17Fl_Plugin_ManagerC1EPKc
libfltk.so.1.4:_ZN17Fl_Plugin_ManagerC2EPKc
libfltk.so.1.4:_ZN17Fl_Plugin_ManagerD0Ev
libfltk.so.1.4:_ZN17Fl_Plugin_ManagerD1Ev
libfltk.so.1.4:_ZN17Fl_Plugin_ManagerD2Ev
libfltk.so.1.4:_ZN17Fl_Select_BrowserC1EiiiiPKc
libfltk.so.1.4:_ZN17Fl_Select_BrowserC2EiiiiPKc
libfltk.so.1.4:_ZN17Fl_Simple_CounterC1EiiiiPKc
libfltk.so.1.4:_ZN17Fl_Simple_CounterC2EiiiiPKc
libfltk.so.1.4:_ZN17Fl_Surface_Device10is_currentEv
libfltk.so.1.4:_ZN17Fl_Surface_Device11pop_currentEv
libfltk.so.1.4:_ZN17Fl_Surface_Device11set_currentEv
libfltk.so.1.4:_ZN17Fl_Surface_Device12push_currentEPS_
libfltk.so.1.4:_ZN17Fl_Surface_Device15default_surfaceEv
libfltk.so.1.4:_ZN17Fl_Surface_Device8surface_E
libfltk.so.1.4:_ZN17Fl_Surface_DeviceD0Ev
libfltk.so.1.4:_ZN17Fl_Surface_DeviceD1Ev
libfltk.so.1.4:_ZN17Fl_Surface_DeviceD2Ev
libfltk.so.1.4:_ZN17Fl_Text_Selection3setEii
libfltk.so.1.4:_ZN17Fl_Text_Selection6updateEiii
libfltk.so.1.4:_ZN17Fl_Widget_Surface11untranslateEv
libfltk.so.1.4:_ZN17Fl_Widget_Surface14printable_rectEPiS0_
libfltk.so.1.4:_ZN17Fl_Widget_Surface17print_window_partEP9Fl_Windowiiiiii
libfltk.so.1.4:_ZN17Fl_Widget_Surface21draw_decorated_windowEP9Fl_Windowii
libfltk.so.1.4:_ZN17Fl_Widget_Surface4drawEP9Fl_Widgetii
libfltk.so.1.4:_ZN17Fl_Widget_Surface6originEPiS0_
libfltk.so.1.4:_ZN17Fl_Widget_Surface6originEii
libfltk.so.1.4:_ZN17Fl_Widget_Surface8traverseEP9Fl_Widget
libfltk.so.1.4:_ZN17Fl_Widget_Surface9translateEii
libfltk.so.1.4:_ZN17Fl_Widget_SurfaceC1EP18Fl_Graphics_Driver
libfltk.so.1.4:_ZN17Fl_Widget_SurfaceC2EP18Fl_Graphics_Driver
libfltk.so.1.4:_ZN17Fl_Widget_TrackerC1EP9Fl_Widget
libfltk.so.1.4:_ZN17Fl_Widget_TrackerC2EP9Fl_Widget
libfltk.so.1.4:_ZN17Fl_Widget_TrackerD1Ev
libfltk.so.1.4:_ZN17Fl_Widget_TrackerD2Ev
libfltk.so.1.4:_ZN18Fl_Font_DescriptorC1EPKci
libfltk.so.1.4:_ZN18Fl_Font_DescriptorC2EPKci
libfltk.so.1.4:_ZN18Fl_Graphics_Driver10begin_lineEv
libfltk.so.1.4:_ZN18Fl_Graphics_Driver10begin_loopEv
libfltk.so.1.4:_ZN18Fl_Graphics_Driver10cache_sizeEP8Fl_ImageRiS2_
libfltk.so.1.4:_ZN18Fl_Graphics_Driver10draw_fixedEP12Fl_RGB_Imageiiiiii
libfltk.so.1.4:_ZN18Fl_Graphics_Driver10draw_fixedEP9Fl_Bitmapiiiiii
libfltk.so.1.4:_ZN18Fl_Graphics_Driver10draw_fixedEP9Fl_Pixmapiiiiii
libfltk.so.1.4:_ZN18Fl_Graphics_Driver10draw_imageEPFvPviiiPhES0_iiiii
libfltk.so.1.4:_ZN18Fl_Graphics_Driver10draw_imageEPKhiiiiii
libfltk.so.1.4:_ZN18Fl_Graphics_Driver10end_pointsEv
libfltk.so.1.4:_ZN18Fl_Graphics_Driver10focus_rectEiiii
libfltk.so.1.4:_ZN18Fl_Graphics_Driver10free_colorEji
libfltk.so.1.4:_ZN18Fl_Graphics_Driver10line_styleEiiPc
libfltk.so.1.4:_ZN18Fl_Graphics_Driver10pop_matrixEv
libfltk.so.1.4:_ZN18Fl_Graphics_Driver11clip_regionEPv
libfltk.so.1.4:_ZN18Fl_Graphics_Driver11clip_regionEv
libfltk.so.1.4:_ZN18Fl_Graphics_Driver11draw_bitmapEP9Fl_Bitmapiiiiii
libfltk.so.1.4:_ZN18Fl_Graphics_Driver11draw_circleEiiij
libfltk.so.1.4:_ZN18Fl_Graphics_Driver11draw_pixmapEP9Fl_Pixmapiiiiii
libfltk.so.1.4:_ZN18Fl_Graphics_Driver11end_polygonEv
libfltk.so.1.4:_ZN18Fl_Graphics_Driver11has_featureENS_14driver_featureE
libfltk.so.1.4:_ZN18Fl_Graphics_Driver11load_matrixEdddddd
libfltk.so.1.4:_ZN18Fl_Graphics_Driver11mask_bitmapEv
libfltk.so.1.4:_ZN18Fl_Graphics_Driver11mult_matrixEdddddd
libfltk.so.1.4:_ZN18Fl_Graphics_Driver11not_clippedEiiii
libfltk.so.1.4:_ZN18Fl_Graphics_Driver11push_matrixEv
libfltk.so.1.4:_ZN18Fl_Graphics_Driver11start_imageEP8Fl_ImageiiiiRiS2_S2_S2_S2_S2_
libfltk.so.1.4:_ZN18Fl_Graphics_Driver11transform_xEdd
libfltk.so.1.4:_ZN18Fl_Graphics_Driver11transform_yEdd
libfltk.so.1.4:_ZN18Fl_Graphics_Driver12begin_pointsEv
libfltk.so.1.4:_ZN18Fl_Graphics_Driver12overlay_rectEiiii
libfltk.so.1.4:_ZN18Fl_Graphics_Driver12push_no_clipEv
libfltk.so.1.4:_ZN18Fl_Graphics_Driver12restore_clipEv
libfltk.so.1.4:_ZN18Fl_Graphics_Driver12rounded_rectEiiiii
libfltk.so.1.4:_ZN18Fl_Graphics_Driver12set_current_Ev
libfltk.so.1.4:_ZN18Fl_Graphics_Driver12text_extentsEPKciRiS2_S2_S2_
libfltk.so.1.4:_ZN18Fl_Graphics_Driver12transform_dxEdd
libfltk.so.1.4:_ZN18Fl_Graphics_Driver12transform_dyEdd
libfltk.so.1.4:_ZN18Fl_Graphics_Driver13begin_polygonEv
libfltk.so.1.4:_ZN18Fl_Graphics_Driver13calc_fl_fontsEv
libfltk.so.1.4:_ZN18Fl_Graphics_Driver13colored_rectfEiiiihhh
libfltk.so.1.4:_ZN18Fl_Graphics_Driver13get_font_nameEiPi
libfltk.so.1.4:_ZN18Fl_Graphics_Driver13load_identityEv
libfltk.so.1.4:_ZN18Fl_Graphics_Driver13restore_scaleEf
libfltk.so.1.4:_ZN18Fl_Graphics_Driver13rounded_rectfEiiiii
libfltk.so.1.4:_ZN18Fl_Graphics_Driver14XDestroyRegionEPv
libfltk.so.1.4:_ZN18Fl_Graphics_Driver14copy_offscreenEiiiimii
libfltk.so.1.4:_ZN18Fl_Graphics_Driver14default_driverEv
libfltk.so.1.4:_ZN18Fl_Graphics_Driver14delete_bitmaskEm
libfltk.so.1.4:_ZN18Fl_Graphics_Driver14font_desc_sizeEv
libfltk.so.1.4:_ZN18Fl_Graphics_Driver14get_font_sizesEiRPi
libfltk.so.1.4:_ZN18Fl_Graphics_Driver14override_scaleEv
libfltk.so.1.4:_ZN18Fl_Graphics_Driver14uncache_pixmapEm
libfltk.so.1.4:_ZN18Fl_Graphics_Driver15draw_image_monoEPFvPviiiPhES0_iiiii
libfltk.so.1.4:_ZN18Fl_Graphics_Driver15draw_image_monoEPKhiiiiii
libfltk.so.1.4:_ZN18Fl_Graphics_Driver16XRectangleRegionEiiii
libfltk.so.1.4:_ZN18Fl_Graphics_Driver18make_unused_color_ERhS0_S0_iPPv
libfltk.so.1.4:_ZN18Fl_Graphics_Driver18transformed_vertexEdd
libfltk.so.1.4:_ZN18Fl_Graphics_Driver19cache_size_finalizeEP8Fl_ImageRiS2_
libfltk.so.1.4:_ZN18Fl_Graphics_Driver19draw_image_general_EPKhiiiiii
libfltk.so.1.4:_ZN18Fl_Graphics_Driver19end_complex_polygonEv
libfltk.so.1.4:_ZN18Fl_Graphics_Driver19transformed_vertex0Eff
libfltk.so.1.4:_ZN18Fl_Graphics_Driver20need_pixmap_bg_colorE
libfltk.so.1.4:_ZN18Fl_Graphics_Driver21begin_complex_polygonEv
libfltk.so.1.4:_ZN18Fl_Graphics_Driver21can_do_alpha_blendingEv
libfltk.so.1.4:_ZN18Fl_Graphics_Driver21newMainGraphicsDriverEv
libfltk.so.1.4:_ZN18Fl_Graphics_Driver23add_rectangle_to_regionEPviiii
libfltk.so.1.4:_ZN18Fl_Graphics_Driver24draw_image_mono_general_EPKhiiiiii
libfltk.so.1.4:_ZN18Fl_Graphics_Driver25scale_font_for_PostScriptEP18Fl_Font_Descriptori
libfltk.so.1.4:_ZN18Fl_Graphics_Driver27scale_bitmap_for_PostScriptEv
libfltk.so.1.4:_ZN18Fl_Graphics_Driver2gcEPv
libfltk.so.1.4:_ZN18Fl_Graphics_Driver2gcEv
libfltk.so.1.4:_ZN18Fl_Graphics_Driver2m0E
libfltk.so.1.4:_ZN18Fl_Graphics_Driver38get_offscreen_and_delete_image_surfaceEP16Fl_Image_Surface
libfltk.so.1.4:_ZN18Fl_Graphics_Driver3arcEddddd
libfltk.so.1.4:_ZN18Fl_Graphics_Driver3arcEiiiidd
libfltk.so.1.4:_ZN18Fl_Graphics_Driver3gapEv
libfltk.so.1.4:_ZN18Fl_Graphics_Driver3pieEiiiidd
libfltk.so.1.4:_ZN18Fl_Graphics_Driver4drawEPKciff
libfltk.so.1.4:_ZN18Fl_Graphics_Driver4drawEPKciii
libfltk.so.1.4:_ZN18Fl_Graphics_Driver4drawEiPKciii
libfltk.so.1.4:_ZN18Fl_Graphics_Driver4fontEii
libfltk.so.1.4:_ZN18Fl_Graphics_Driver4fontEv
libfltk.so.1.4:_ZN18Fl_Graphics_Driver4lineEiiii
libfltk.so.1.4:_ZN18Fl_Graphics_Driver4lineEiiiiii
libfltk.so.1.4:_ZN18Fl_Graphics_Driver4loopEiiiiii
libfltk.so.1.4:_ZN18Fl_Graphics_Driver4loopEiiiiiiii
libfltk.so.1.4:_ZN18Fl_Graphics_Driver4rectEiiii
libfltk.so.1.4:_ZN18Fl_Graphics_Driver4sizeEv
libfltk.so.1.4:_ZN18Fl_Graphics_Driver5_rboxEiiiiii
libfltk.so.1.4:_ZN18Fl_Graphics_Driver5cacheEP12Fl_RGB_Image
libfltk.so.1.4:_ZN18Fl_Graphics_Driver5cacheEP9Fl_Bitmap
libfltk.so.1.4:_ZN18Fl_Graphics_Driver5cacheEP9Fl_Pixmap
libfltk.so.1.4:_ZN18Fl_Graphics_Driver5colorEhhh
libfltk.so.1.4:_ZN18Fl_Graphics_Driver5colorEj
libfltk.so.1.4:_ZN18Fl_Graphics_Driver5colorEv
libfltk.so.1.4:_ZN18Fl_Graphics_Driver5curveEdddddddd
libfltk.so.1.4:_ZN18Fl_Graphics_Driver5pointEii
libfltk.so.1.4:_ZN18Fl_Graphics_Driver5rectfEiiii
libfltk.so.1.4:_ZN18Fl_Graphics_Driver5scaleEf
libfltk.so.1.4:_ZN18Fl_Graphics_Driver5widthEPKci
libfltk.so.1.4:_ZN18Fl_Graphics_Driver5widthEj
libfltk.so.1.4:_ZN18Fl_Graphics_Driver6circleEddd
libfltk.so.1.4:_ZN18Fl_Graphics_Driver6heightEv
libfltk.so.1.4:_ZN18Fl_Graphics_Driver6rotateEd
libfltk.so.1.4:_ZN18Fl_Graphics_Driver6vertexEdd
libfltk.so.1.4:_ZN18Fl_Graphics_Driver6xylineEiii
libfltk.so.1.4:_ZN18Fl_Graphics_Driver6xylineEiiii
libfltk.so.1.4:_ZN18Fl_Graphics_Driver6xylineEiiiii
libfltk.so.1.4:_ZN18Fl_Graphics_Driver6yxlineEiii
libfltk.so.1.4:_ZN18Fl_Graphics_Driver6yxlineEiiii
libfltk.so.1.4:_ZN18Fl_Graphics_Driver6yxlineEiiiii
libfltk.so.1.4:_ZN18Fl_Graphics_Driver7descentEv
libfltk.so.1.4:_ZN18Fl_Graphics_Driver7fixloopEv
libfltk.so.1.4:_ZN18Fl_Graphics_Driver7polygonEiiiiii
libfltk.so.1.4:_ZN18Fl_Graphics_Driver7polygonEiiiiiiii
libfltk.so.1.4:_ZN18Fl_Graphics_Driver7uncacheEP12Fl_RGB_ImageRmS2_
libfltk.so.1.4:_ZN18Fl_Graphics_Driver8clip_boxEiiiiRiS0_S0_S0_
libfltk.so.1.4:_ZN18Fl_Graphics_Driver8draw_rgbEP12Fl_RGB_Imageiiiiii
libfltk.so.1.4:_ZN18Fl_Graphics_Driver8end_lineEv
libfltk.so.1.4:_ZN18Fl_Graphics_Driver8end_loopEv
libfltk.so.1.4:_ZN18Fl_Graphics_Driver8pop_clipEv
libfltk.so.1.4:_ZN18Fl_Graphics_Driver8rtl_drawEPKciii
libfltk.so.1.4:_ZN18Fl_Graphics_Driver9antialiasEi
libfltk.so.1.4:_ZN18Fl_Graphics_Driver9antialiasEv
libfltk.so.1.4:_ZN18Fl_Graphics_Driver9font_nameEi
libfltk.so.1.4:_ZN18Fl_Graphics_Driver9font_nameEiPKc
libfltk.so.1.4:_ZN18Fl_Graphics_Driver9global_gcEv
libfltk.so.1.4:_ZN18Fl_Graphics_Driver9push_clipEiiii
libfltk.so.1.4:_ZN18Fl_Graphics_Driver9set_colorEjj
libfltk.so.1.4:_ZN18Fl_Graphics_Driver9set_fontsEPKc
libfltk.so.1.4:_ZN18Fl_Graphics_Driver9translateEdd
libfltk.so.1.4:_ZN18Fl_Graphics_DriverC1Ev
libfltk.so.1.4:_ZN18Fl_Graphics_DriverC2Ev
libfltk.so.1.4:_ZN18Fl_Graphics_DriverD0Ev
libfltk.so.1.4:_ZN18Fl_Graphics_DriverD1Ev
libfltk.so.1.4:_ZN18Fl_Graphics_DriverD2Ev
libfltk.so.1.4:_ZN18Fl_Hor_Fill_SliderC1EiiiiPKc
libfltk.so.1.4:_ZN18Fl_Hor_Fill_SliderC2EiiiiPKc
libfltk.so.1.4:_ZN18Fl_Hor_Nice_SliderC1EiiiiPKc
libfltk.so.1.4:_ZN18Fl_Hor_Nice_SliderC2EiiiiPKc
libfltk.so.1.4:_ZN18Fl_Multiline_InputC1EiiiiPKc
libfltk.so.1.4:_ZN18Fl_Multiline_InputC2EiiiiPKc
libfltk.so.1.4:_ZN18Fl_Shortcut_Button19do_end_hot_callbackEv
libfltk.so.1.4:_ZN18Fl_Shortcut_Button4drawEv
libfltk.so.1.4:_ZN18Fl_Shortcut_Button5valueEj
libfltk.so.1.4:_ZN18Fl_Shortcut_Button5valueEv
libfltk.so.1.4:_ZN18Fl_Shortcut_Button6handleEi
libfltk.so.1.4:_ZN18Fl_Shortcut_ButtonC1EiiiiPKc
libfltk.so.1.4:_ZN18Fl_Shortcut_ButtonC2EiiiiPKc
libfltk.so.1.4:_ZN18Fl_Tree_Item_Array3addEP12Fl_Tree_Item
libfltk.so.1.4:_ZN18Fl_Tree_Item_Array4moveEii
libfltk.so.1.4:_ZN18Fl_Tree_Item_Array4swapEii
libfltk.so.1.4:_ZN18Fl_Tree_Item_Array5clearEv
libfltk.so.1.4:_ZN18Fl_Tree_Item_Array6insertEiP12Fl_Tree_Item
libfltk.so.1.4:_ZN18Fl_Tree_Item_Array6removeEP12Fl_Tree_Item
libfltk.so.1.4:_ZN18Fl_Tree_Item_Array6removeEi
libfltk.so.1.4:_ZN18Fl_Tree_Item_Array7enlargeEi
libfltk.so.1.4:_ZN18Fl_Tree_Item_Array7replaceEiP12Fl_Tree_Item
libfltk.so.1.4:_ZN18Fl_Tree_Item_Array8deparentEi
libfltk.so.1.4:_ZN18Fl_Tree_Item_Array8reparentEP12Fl_Tree_ItemS1_i
libfltk.so.1.4:_ZN18Fl_Tree_Item_ArrayC1EPKS_
libfltk.so.1.4:_ZN18Fl_Tree_Item_ArrayC1Ei
libfltk.so.1.4:_ZN18Fl_Tree_Item_ArrayC2EPKS_
libfltk.so.1.4:_ZN18Fl_Tree_Item_ArrayC2Ei
libfltk.so.1.4:_ZN18Fl_Tree_Item_ArrayD1Ev
libfltk.so.1.4:_ZN18Fl_Tree_Item_ArrayD2Ev
libfltk.so.1.4:_ZN18Fl_XFont_On_Demand5valueEv
libfltk.so.1.4:_ZN19Fl_EPS_File_Surface11untranslateEv
libfltk.so.1.4:_ZN19Fl_EPS_File_Surface14printable_rectEPiS0_
libfltk.so.1.4:_ZN19Fl_EPS_File_Surface4fileEv
libfltk.so.1.4:_ZN19Fl_EPS_File_Surface5closeEv
libfltk.so.1.4:_ZN19Fl_EPS_File_Surface6originEPiS0_
libfltk.so.1.4:_ZN19Fl_EPS_File_Surface6originEii
libfltk.so.1.4:_ZN19Fl_EPS_File_Surface9translateEii
libfltk.so.1.4:_ZN19Fl_EPS_File_SurfaceC1EiiP8_IO_FILEjPFiS1_E
libfltk.so.1.4:_ZN19Fl_EPS_File_SurfaceC2EiiP8_IO_FILEjPFiS1_E
libfltk.so.1.4:_ZN19Fl_EPS_File_SurfaceD0Ev
libfltk.so.1.4:_ZN19Fl_EPS_File_SurfaceD1Ev
libfltk.so.1.4:_ZN19Fl_EPS_File_SurfaceD2Ev
libfltk.so.1.4:_ZN19Fl_Hor_Value_SliderC1EiiiiPKc
libfltk.so.1.4:_ZN19Fl_Hor_Value_SliderC2EiiiiPKc
libfltk.so.1.4:_ZN19Fl_Multiline_OutputC1EiiiiPKc
libfltk.so.1.4:_ZN19Fl_Multiline_OutputC2EiiiiPKc
libfltk.so.1.4:_ZN19Fl_PDF_File_Surface14begin_documentEPKcN15Fl_Paged_Device11Page_FormatENS2_11Page_LayoutEPPc
libfltk.so.1.4:_ZN19Fl_PDF_File_Surface19format_dialog_titleE
libfltk.so.1.4:_ZN19Fl_PDF_File_Surface21format_dialog_defaultE
libfltk.so.1.4:_ZN19Fl_PDF_File_Surface23format_dialog_page_sizeE
libfltk.so.1.4:_ZN19Fl_PDF_File_Surface25format_dialog_orientationE
libfltk.so.1.4:_ZN19Fl_PDF_File_Surface25new_platform_pdf_surface_EPPPKc
libfltk.so.1.4:_ZN19Fl_PDF_File_Surface9begin_jobEPKcPPc
libfltk.so.1.4:_ZN19Fl_PDF_File_SurfaceC1Ev
libfltk.so.1.4:_ZN19Fl_PDF_File_SurfaceC2Ev
libfltk.so.1.4:_ZN19Fl_PDF_File_SurfaceD0Ev
libfltk.so.1.4:_ZN19Fl_PDF_File_SurfaceD1Ev
libfltk.so.1.4:_ZN19Fl_PDF_File_SurfaceD2Ev
libfltk.so.1.4:_ZN20Fl_X11_Screen_Driver10copy_imageEPKhiii
libfltk.so.1.4:_ZN20Fl_X11_Screen_Driver10disable_imEv
libfltk.so.1.4:_ZN20Fl_X11_Screen_Driver10reset_spotEv
libfltk.so.1.4:_ZN20Fl_X11_Screen_Driver10screen_dpiERfS0_i
libfltk.so.1.4:_ZN20Fl_X11_Screen_Driver10set_statusEiiii
libfltk.so.1.4:_ZN20Fl_X11_Screen_Driver11parse_colorEPKcRhS2_S2_
libfltk.so.1.4:_ZN20Fl_X11_Screen_Driver11screen_xywhERiS0_S0_S0_i
libfltk.so.1.4:_ZN20Fl_X11_Screen_Driver12own_colormapEv
libfltk.so.1.4:_ZN20Fl_X11_Screen_Driver12xim_activateEm
libfltk.so.1.4:_ZN20Fl_X11_Screen_Driver13close_displayEv
libfltk.so.1.4:_ZN20Fl_X11_Screen_Driver13compose_resetEv
libfltk.so.1.4:_ZN20Fl_X11_Screen_Driver13default_iconsEPPK12Fl_RGB_Imagei
libfltk.so.1.4:_ZN20Fl_X11_Screen_Driver13init_workareaEv
libfltk.so.1.4:_ZN20Fl_X11_Screen_Driver14XParseGeometryEPKcPiS2_PjS3_
libfltk.so.1.4:_ZN20Fl_X11_Screen_Driver14ewmh_supportedEv
libfltk.so.1.4:_ZN20Fl_X11_Screen_Driver14offscreen_sizeEmRiS0_
libfltk.so.1.4:_ZN20Fl_X11_Screen_Driver14poll_or_selectEv
libfltk.so.1.4:_ZN20Fl_X11_Screen_Driver14xim_deactivateEv
libfltk.so.1.4:_ZN20Fl_X11_Screen_Driver16screen_work_areaERiS0_S0_S0_i
libfltk.so.1.4:_ZN20Fl_X11_Screen_Driver17get_system_colorsEv
libfltk.so.1.4:_ZN20Fl_X11_Screen_Driver17get_system_schemeEv
libfltk.so.1.4:_ZN20Fl_X11_Screen_Driver18clipboard_containsEPKc
libfltk.so.1.4:_ZN20Fl_X11_Screen_Driver18get_mouse_unscaledERiS0_
libfltk.so.1.4:_ZN20Fl_X11_Screen_Driver18read_win_rectangleEiiiiP9Fl_WindowbPb
libfltk.so.1.4:_ZN20Fl_X11_Screen_Driver19fl_is_over_the_spotE
libfltk.so.1.4:_ZN20Fl_X11_Screen_Driver19screen_num_unscaledEii
libfltk.so.1.4:_ZN20Fl_X11_Screen_Driver1hEv
libfltk.so.1.4:_ZN20Fl_X11_Screen_Driver1wEv
libfltk.so.1.4:_ZN20Fl_X11_Screen_Driver1xEv
libfltk.so.1.4:_ZN20Fl_X11_Screen_Driver1yEv
libfltk.so.1.4:_ZN20Fl_X11_Screen_Driver20desktop_scale_factorEv
libfltk.so.1.4:_ZN20Fl_X11_Screen_Driver21open_display_platformEv
libfltk.so.1.4:_ZN20Fl_X11_Screen_Driver21shortcut_add_key_nameEjPcS0_PPKc
libfltk.so.1.4:_ZN20Fl_X11_Screen_Driver23clipboard_notify_changeEv
libfltk.so.1.4:_ZN20Fl_X11_Screen_Driver25poll_or_select_with_delayEd
libfltk.so.1.4:_ZN20Fl_X11_Screen_Driver3dndEi
libfltk.so.1.4:_ZN20Fl_X11_Screen_Driver4beepEi
libfltk.so.1.4:_ZN20Fl_X11_Screen_Driver4copyEPKciiS1_
libfltk.so.1.4:_ZN20Fl_X11_Screen_Driver4grabEP9Fl_Window
libfltk.so.1.4:_ZN20Fl_X11_Screen_Driver4initEv
libfltk.so.1.4:_ZN20Fl_X11_Screen_Driver5flushEv
libfltk.so.1.4:_ZN20Fl_X11_Screen_Driver5pasteER9Fl_WidgetiPKc
libfltk.so.1.4:_ZN20Fl_X11_Screen_Driver6new_icEv
libfltk.so.1.4:_ZN20Fl_X11_Screen_Driver6visualEi
libfltk.so.1.4:_ZN20Fl_X11_Screen_Driver6xim_icE
libfltk.so.1.4:_ZN20Fl_X11_Screen_Driver6xim_imE
libfltk.so.1.4:_ZN20Fl_X11_Screen_Driver7composeERi
libfltk.so.1.4:_ZN20Fl_X11_Screen_Driver7displayEPKc
libfltk.so.1.4:_ZN20Fl_X11_Screen_Driver7fl_spotE
libfltk.so.1.4:_ZN20Fl_X11_Screen_Driver7get_keyEi
libfltk.so.1.4:_ZN20Fl_X11_Screen_Driver7xim_winE
libfltk.so.1.4:_ZN20Fl_X11_Screen_Driver8fl_spotfE
libfltk.so.1.4:_ZN20Fl_X11_Screen_Driver8fl_spotsE
libfltk.so.1.4:_ZN20Fl_X11_Screen_Driver8init_ximEv
libfltk.so.1.4:_ZN20Fl_X11_Screen_Driver8set_spotEiiiiiiP9Fl_Window
libfltk.so.1.4:_ZN20Fl_X11_Screen_Driver9enable_imEv
libfltk.so.1.4:_ZN20Fl_X11_Screen_Driver9event_keyEi
libfltk.so.1.4:_ZN20Fl_X11_Screen_Driver9get_mouseERiS0_
libfltk.so.1.4:_ZN20Fl_X11_Screen_DriverC1Ev
libfltk.so.1.4:_ZN20Fl_X11_Screen_DriverC2Ev
libfltk.so.1.4:_ZN20Fl_X11_Window_Driver10draw_beginEv
libfltk.so.1.4:_ZN20Fl_X11_Window_Driver10free_iconsEv
libfltk.so.1.4:_ZN20Fl_X11_Window_Driver10makeWindowEv
libfltk.so.1.4:_ZN20Fl_X11_Window_Driver10set_cursorE9Fl_Cursor
libfltk.so.1.4:_ZN20Fl_X11_Window_Driver10set_cursorEPK12Fl_RGB_Imageii
libfltk.so.1.4:_ZN20Fl_X11_Window_Driver10size_rangeEv
libfltk.so.1.4:_ZN20Fl_X11_Window_Driver10take_focusEv
libfltk.so.1.4:_ZN20Fl_X11_Window_Driver10use_borderEv
libfltk.so.1.4:_ZN20Fl_X11_Window_Driver11decorated_hEv
libfltk.so.1.4:_ZN20Fl_X11_Window_Driver11decorated_wEv
libfltk.so.1.4:_ZN20Fl_X11_Window_Driver11un_maximizeEv
libfltk.so.1.4:_ZN20Fl_X11_Window_Driver12combine_maskEv
libfltk.so.1.4:_ZN20Fl_X11_Window_Driver12flush_doubleEi
libfltk.so.1.4:_ZN20Fl_X11_Window_Driver12flush_doubleEv
libfltk.so.1.4:_ZN20Fl_X11_Window_Driver12make_currentEv
libfltk.so.1.4:_ZN20Fl_X11_Window_Driver12shape_alpha_EP8Fl_Imagei
libfltk.so.1.4:_ZN20Fl_X11_Window_Driver13flush_overlayEv
libfltk.so.1.4:_ZN20Fl_X11_Window_Driver13fullscreen_onEv
libfltk.so.1.4:_ZN20Fl_X11_Window_Driver13shape_bitmap_EP8Fl_Image
libfltk.so.1.4:_ZN20Fl_X11_Window_Driver14fullscreen_offEiiii
libfltk.so.1.4:_ZN20Fl_X11_Window_Driver15activate_windowEv
libfltk.so.1.4:_ZN20Fl_X11_Window_Driver16decoration_sizesEPiS0_S0_S0_
libfltk.so.1.4:_ZN20Fl_X11_Window_Driver18decorated_win_sizeERiS0_
libfltk.so.1.4:_ZN20Fl_X11_Window_Driver18show_with_args_endEiPPc
libfltk.so.1.4:_ZN20Fl_X11_Window_Driver20show_with_args_beginEv
libfltk.so.1.4:_ZN20Fl_X11_Window_Driver26resize_after_screen_changeEPv
libfltk.so.1.4:_ZN20Fl_X11_Window_Driver28capture_titlebar_and_bordersERP12Fl_RGB_ImageS2_S2_S2_
libfltk.so.1.4:_ZN20Fl_X11_Window_Driver39data_for_resize_window_between_screens_E
libfltk.so.1.4:_ZN20Fl_X11_Window_Driver3mapEv
libfltk.so.1.4:_ZN20Fl_X11_Window_Driver4hideEv
libfltk.so.1.4:_ZN20Fl_X11_Window_Driver4iconEPKv
libfltk.so.1.4:_ZN20Fl_X11_Window_Driver4showEv
libfltk.so.1.4:_ZN20Fl_X11_Window_Driver5iconsEPPK12Fl_RGB_Imagei
libfltk.so.1.4:_ZN20Fl_X11_Window_Driver5labelEPKcS1_
libfltk.so.1.4:_ZN20Fl_X11_Window_Driver5os_idEv
libfltk.so.1.4:_ZN20Fl_X11_Window_Driver5shapeEPK8Fl_Image
libfltk.so.1.4:_ZN20Fl_X11_Window_Driver5shapeEv
libfltk.so.1.4:_ZN20Fl_X11_Window_Driver5unmapEv
libfltk.so.1.4:_ZN20Fl_X11_Window_Driver6resizeEiiii
libfltk.so.1.4:_ZN20Fl_X11_Window_Driver6scrollEiiiiiiPFvPviiiiES0_
libfltk.so.1.4:_ZN20Fl_X11_Window_Driver7iconizeEv
libfltk.so.1.4:_ZN20Fl_X11_Window_Driver8maximizeEv
libfltk.so.1.4:_ZN20Fl_X11_Window_Driver9sendxjunkEv
libfltk.so.1.4:_ZN20Fl_X11_Window_Driver9set_iconsEv
libfltk.so.1.4:_ZN20Fl_X11_Window_DriverC1EP9Fl_Window
libfltk.so.1.4:_ZN20Fl_X11_Window_DriverC2EP9Fl_Window
libfltk.so.1.4:_ZN20Fl_X11_Window_DriverD0Ev
libfltk.so.1.4:_ZN20Fl_X11_Window_DriverD1Ev
libfltk.so.1.4:_ZN20Fl_X11_Window_DriverD2Ev
libfltk.so.1.4:_ZN21Fl_GTK_Printer_Driver13probe_for_GTKEv
libfltk.so.1.4:_ZN21Fl_GTK_Printer_Driver7end_jobEv
libfltk.so.1.4:_ZN21Fl_GTK_Printer_Driver7ptr_gtkE
libfltk.so.1.4:_ZN21Fl_GTK_Printer_Driver9begin_jobEiPiS0_PPc
libfltk.so.1.4:_ZN21Fl_Radio_Light_ButtonC1EiiiiPKc
libfltk.so.1.4:_ZN21Fl_Radio_Light_ButtonC2EiiiiPKc
libfltk.so.1.4:_ZN21Fl_Radio_Round_ButtonC1EiiiiPKc
libfltk.so.1.4:_ZN21Fl_Radio_Round_ButtonC2EiiiiPKc
libfltk.so.1.4:_ZN21Fl_Unix_Screen_Driver14poll_or_selectEv
libfltk.so.1.4:_ZN21Fl_Unix_Screen_Driver25poll_or_select_with_delayEd
libfltk.so.1.4:_ZN21Fl_Unix_Screen_Driver2fdE
libfltk.so.1.4:_ZN21Fl_Unix_Screen_Driver4nfdsE
libfltk.so.1.4:_ZN21Fl_Unix_Screen_Driver5maxfdE
libfltk.so.1.4:_ZN21Fl_Unix_Screen_Driver6fdsetsE
libfltk.so.1.4:_ZN21Fl_Unix_System_Driver10create_bmpEPKhiiPi
libfltk.so.1.4:_ZN21Fl_Unix_System_Driver10utf8localeEv
libfltk.so.1.4:_ZN21Fl_Unix_System_Driver13filename_listEPKcPPP6direntPFiS4_S4_EPci
libfltk.so.1.4:_ZN21Fl_Unix_System_Driver13filename_nameEPKc
libfltk.so.1.4:_ZN21Fl_Unix_System_Driver14own_bmp_to_RGBEPc
libfltk.so.1.4:_ZN21Fl_Unix_System_Driver15clocale_vprintfEP8_IO_FILEPKcP13__va_list_tag
libfltk.so.1.4:_ZN21Fl_Unix_System_Driver15clocale_vsscanfEPKcS1_P13__va_list_tag
libfltk.so.1.4:_ZN21Fl_Unix_System_Driver17clocale_vsnprintfEPcmPKcP13__va_list_tag
libfltk.so.1.4:_ZN21Fl_Unix_System_Driver19preference_rootnodeEP14Fl_PreferencesNS0_4RootEPKcS4_
libfltk.so.1.4:_ZN21Fl_Unix_System_Driver24preference_user_rootnodeEPKcS1_Pc
libfltk.so.1.4:_ZN21Fl_Unix_System_Driver26preference_memory_rootnodeEPKcS1_Pc
libfltk.so.1.4:_ZN21Fl_Unix_System_Driver26preference_system_rootnodeEPKcS1_Pc
libfltk.so.1.4:_ZN21Fl_Unix_System_Driver28file_browser_load_filesystemEP15Fl_File_BrowserPciP12Fl_File_Icon
libfltk.so.1.4:_ZN21Fl_Unix_System_Driver4waitEd
libfltk.so.1.4:_ZN21Fl_Unix_System_Driver5readyEv
libfltk.so.1.4:_ZN21Fl_Unix_System_Driver6add_fdEiPFviPvES0_
libfltk.so.1.4:_ZN21Fl_Unix_System_Driver6add_fdEiiPFviPvES0_
libfltk.so.1.4:_ZN21Fl_Unix_System_Driver7newUUIDEPc
libfltk.so.1.4:_ZN21Fl_Unix_System_Driver8open_uriEPKcPci
libfltk.so.1.4:_ZN21Fl_Unix_System_Driver8read_intEPhRi
libfltk.so.1.4:_ZN21Fl_Unix_System_Driver9remove_fdEi
libfltk.so.1.4:_ZN21Fl_Unix_System_Driver9remove_fdEii
libfltk.so.1.4:_ZN22Fl_Copy_Surface_Driver14printable_rectEPiS0_
libfltk.so.1.4:_ZN22Fl_Copy_Surface_Driver20newCopySurfaceDriverEii
libfltk.so.1.4:_ZN22Fl_Native_File_Chooser11preset_fileEPKc
libfltk.so.1.4:_ZN22Fl_Native_File_Chooser12filter_valueEi
libfltk.so.1.4:_ZN22Fl_Native_File_Chooser19file_exists_messageE
libfltk.so.1.4:_ZN22Fl_Native_File_Chooser4showEv
libfltk.so.1.4:_ZN22Fl_Native_File_Chooser4typeEi
libfltk.so.1.4:_ZN22Fl_Native_File_Chooser5titleEPKc
libfltk.so.1.4:_ZN22Fl_Native_File_Chooser6filterEPKc
libfltk.so.1.4:_ZN22Fl_Native_File_Chooser7optionsEi
libfltk.so.1.4:_ZN22Fl_Native_File_Chooser9directoryEPKc
libfltk.so.1.4:_ZN22Fl_Native_File_ChooserC1Ei
libfltk.so.1.4:_ZN22Fl_Native_File_ChooserC2Ei
libfltk.so.1.4:_ZN22Fl_Native_File_ChooserD1Ev
libfltk.so.1.4:_ZN22Fl_Native_File_ChooserD2Ev
libfltk.so.1.4:_ZN22Fl_Posix_System_Driver11run_programEPKcPPcS2_i
libfltk.so.1.4:_ZN22Fl_Posix_System_Driver11unlock_ringEv
libfltk.so.1.4:_ZN22Fl_Posix_System_Driver13probe_for_GTKEiiPPv
libfltk.so.1.4:_ZN22Fl_Posix_System_Driver14thread_messageEv
libfltk.so.1.4:_ZN22Fl_Posix_System_Driver15dlopen_or_dlsymEPKcS1_
libfltk.so.1.4:_ZN22Fl_Posix_System_Driver4loadEPKc
libfltk.so.1.4:_ZN22Fl_Posix_System_Driver4lockEv
libfltk.so.1.4:_ZN22Fl_Posix_System_Driver5awakeEPv
libfltk.so.1.4:_ZN22Fl_Posix_System_Driver6unlockEv
libfltk.so.1.4:_ZN22Fl_Posix_System_Driver7gettimeEPlPi
libfltk.so.1.4:_ZN22Fl_Posix_System_Driver7ptr_gtkE
libfltk.so.1.4:_ZN22Fl_Posix_System_Driver8close_fdEi
libfltk.so.1.4:_ZN22Fl_Posix_System_Driver8getpwnamEPKc
libfltk.so.1.4:_ZN22Fl_Posix_System_Driver9file_typeEPKc
libfltk.so.1.4:_ZN22Fl_Posix_System_Driver9lock_ringEv
libfltk.so.1.4:_ZN22Fl_Sys_Menu_Bar_Driver18window_menu_style_E
libfltk.so.1.4:_ZN22Fl_Sys_Menu_Bar_Driver7driver_E
libfltk.so.1.4:_ZN22Fl_Sys_Menu_Bar_DriverC1Ev
libfltk.so.1.4:_ZN22Fl_Sys_Menu_Bar_DriverC2Ev
libfltk.so.1.4:_ZN22Fl_Sys_Menu_Bar_DriverD0Ev
libfltk.so.1.4:_ZN22Fl_Sys_Menu_Bar_DriverD1Ev
libfltk.so.1.4:_ZN22Fl_Sys_Menu_Bar_DriverD2Ev
libfltk.so.1.4:_ZN23Fl_Image_Surface_Driver12RGB3_to_RGB1EPK12Fl_RGB_Imageii
libfltk.so.1.4:_ZN23Fl_Image_Surface_Driver14copy_with_maskEP12Fl_RGB_ImagePhS2_ib
libfltk.so.1.4:_ZN23Fl_Image_Surface_Driver14printable_rectEPiS0_
libfltk.so.1.4:_ZN23Fl_Image_Surface_Driver21newImageSurfaceDriverEiiim
libfltk.so.1.4:_ZN23Fl_Posix_Printer_Driver9begin_jobEiPiS0_PPc
libfltk.so.1.4:_ZN23Fl_Xlib_Font_DescriptorC1EPKcii
libfltk.so.1.4:_ZN23Fl_Xlib_Font_DescriptorC2EPKcii
libfltk.so.1.4:_ZN23Fl_Xlib_Font_DescriptorD0Ev
libfltk.so.1.4:_ZN23Fl_Xlib_Font_DescriptorD1Ev
libfltk.so.1.4:_ZN23Fl_Xlib_Font_DescriptorD2Ev
libfltk.so.1.4:_ZN23Fl_Xlib_Graphics_Driver10draw_fixedEP12Fl_RGB_Imageiiiiii
libfltk.so.1.4:_ZN23Fl_Xlib_Graphics_Driver10draw_fixedEP9Fl_Bitmapiiiiii
libfltk.so.1.4:_ZN23Fl_Xlib_Graphics_Driver10draw_fixedEP9Fl_Pixmapiiiiii
libfltk.so.1.4:_ZN23Fl_Xlib_Graphics_Driver10end_pointsEv
libfltk.so.1.4:_ZN23Fl_Xlib_Graphics_Driver10fl_overlayE
libfltk.so.1.4:_ZN23Fl_Xlib_Graphics_Driver10focus_rectEiiii
libfltk.so.1.4:_ZN23Fl_Xlib_Graphics_Driver10free_colorEji
libfltk.so.1.4:_ZN23Fl_Xlib_Graphics_Driver10scale_clipEf
libfltk.so.1.4:_ZN23Fl_Xlib_Graphics_Driver11draw_windowE
libfltk.so.1.4:_ZN23Fl_Xlib_Graphics_Driver11end_polygonEv
libfltk.so.1.4:_ZN23Fl_Xlib_Graphics_Driver11not_clippedEiiii
libfltk.so.1.4:_ZN23Fl_Xlib_Graphics_Driver12arc_unscaledEiiiidd
libfltk.so.1.4:_ZN23Fl_Xlib_Graphics_Driver12pie_unscaledEiiiidd
libfltk.so.1.4:_ZN23Fl_Xlib_Graphics_Driver12restore_clipEv
libfltk.so.1.4:_ZN23Fl_Xlib_Graphics_Driver12set_current_Ev
libfltk.so.1.4:_ZN23Fl_Xlib_Graphics_Driver13colored_rectfEiiiihhh
libfltk.so.1.4:_ZN23Fl_Xlib_Graphics_Driver13draw_unscaledEPKciii
libfltk.so.1.4:_ZN23Fl_Xlib_Graphics_Driver13draw_unscaledEiPKciii
libfltk.so.1.4:_ZN23Fl_Xlib_Graphics_Driver13font_unscaledEii
libfltk.so.1.4:_ZN23Fl_Xlib_Graphics_Driver13get_font_nameEiPi
libfltk.so.1.4:_ZN23Fl_Xlib_Graphics_Driver13line_unscaledEiiii
libfltk.so.1.4:_ZN23Fl_Xlib_Graphics_Driver13line_unscaledEiiiiii
libfltk.so.1.4:_ZN23Fl_Xlib_Graphics_Driver13loop_unscaledEiiiiii
libfltk.so.1.4:_ZN23Fl_Xlib_Graphics_Driver13loop_unscaledEiiiiiiii
libfltk.so.1.4:_ZN23Fl_Xlib_Graphics_Driver13rect_unscaledEiiii
libfltk.so.1.4:_ZN23Fl_Xlib_Graphics_Driver13size_unscaledEv
libfltk.so.1.4:_ZN23Fl_Xlib_Graphics_Driver13translate_allEii
libfltk.so.1.4:_ZN23Fl_Xlib_Graphics_Driver14XDestroyRegionEPv
libfltk.so.1.4:_ZN23Fl_Xlib_Graphics_Driver14copy_offscreenEiiiimii
libfltk.so.1.4:_ZN23Fl_Xlib_Graphics_Driver14create_bitmaskEiiPKh
libfltk.so.1.4:_ZN23Fl_Xlib_Graphics_Driver14delete_bitmaskEm
libfltk.so.1.4:_ZN23Fl_Xlib_Graphics_Driver14get_font_sizesEiRPi
libfltk.so.1.4:_ZN23Fl_Xlib_Graphics_Driver14rectf_unscaledEiiii
libfltk.so.1.4:_ZN23Fl_Xlib_Graphics_Driver14uncache_pixmapEm
libfltk.so.1.4:_ZN23Fl_Xlib_Graphics_Driver14width_unscaledEPKci
libfltk.so.1.4:_ZN23Fl_Xlib_Graphics_Driver14width_unscaledEj
libfltk.so.1.4:_ZN23Fl_Xlib_Graphics_Driver15height_unscaledEv
libfltk.so.1.4:_ZN23Fl_Xlib_Graphics_Driver15reset_pen_widthEPv
libfltk.so.1.4:_ZN23Fl_Xlib_Graphics_Driver15untranslate_allEv
libfltk.so.1.4:_ZN23Fl_Xlib_Graphics_Driver15xyline_unscaledEiii
libfltk.so.1.4:_ZN23Fl_Xlib_Graphics_Driver15yxline_unscaledEiii
libfltk.so.1.4:_ZN23Fl_Xlib_Graphics_Driver16XRectangleRegionEiiii
libfltk.so.1.4:_ZN23Fl_Xlib_Graphics_Driver16change_pen_widthEi
libfltk.so.1.4:_ZN23Fl_Xlib_Graphics_Driver16descent_unscaledEv
libfltk.so.1.4:_ZN23Fl_Xlib_Graphics_Driver16destroy_xft_drawEm
libfltk.so.1.4:_ZN23Fl_Xlib_Graphics_Driver16ellipse_unscaledEdddd
libfltk.so.1.4:_ZN23Fl_Xlib_Graphics_Driver16polygon_unscaledEiiiiii
libfltk.so.1.4:_ZN23Fl_Xlib_Graphics_Driver16polygon_unscaledEiiiiiiii
libfltk.so.1.4:_ZN23Fl_Xlib_Graphics_Driver17draw_clipped_lineEiiii
libfltk.so.1.4:_ZN23Fl_Xlib_Graphics_Driver17rtl_draw_unscaledEPKciii
libfltk.so.1.4:_ZN23Fl_Xlib_Graphics_Driver19draw_image_unscaledEPFvPviiiPhES0_iiiii
libfltk.so.1.4:_ZN23Fl_Xlib_Graphics_Driver19draw_image_unscaledEPKhiiiiii
libfltk.so.1.4:_ZN23Fl_Xlib_Graphics_Driver19end_complex_polygonEv
libfltk.so.1.4:_ZN23Fl_Xlib_Graphics_Driver19line_style_unscaledEiiPc
libfltk.so.1.4:_ZN23Fl_Xlib_Graphics_Driver19transformed_vertex0Eff
libfltk.so.1.4:_ZN23Fl_Xlib_Graphics_Driver21can_do_alpha_blendingEv
libfltk.so.1.4:_ZN23Fl_Xlib_Graphics_Driver21text_extents_unscaledEPKciRiS2_S2_S2_
libfltk.so.1.4:_ZN23Fl_Xlib_Graphics_Driver23add_rectangle_to_regionEPviiii
libfltk.so.1.4:_ZN23Fl_Xlib_Graphics_Driver23scale_and_render_pixmapEmiddiiii
libfltk.so.1.4:_ZN23Fl_Xlib_Graphics_Driver24draw_image_mono_unscaledEPFvPviiiPhES0_iiiii
libfltk.so.1.4:_ZN23Fl_Xlib_Graphics_Driver24draw_image_mono_unscaledEPKhiiiiii
libfltk.so.1.4:_ZN23Fl_Xlib_Graphics_Driver25scale_font_for_PostScriptEP18Fl_Font_Descriptori
libfltk.so.1.4:_ZN23Fl_Xlib_Graphics_Driver27can_fill_non_convex_polygonEv
libfltk.so.1.4:_ZN23Fl_Xlib_Graphics_Driver2gcEPv
libfltk.so.1.4:_ZN23Fl_Xlib_Graphics_Driver3gapEv
libfltk.so.1.4:_ZN23Fl_Xlib_Graphics_Driver3gc_E
libfltk.so.1.4:_ZN23Fl_Xlib_Graphics_Driver5cacheEP12Fl_RGB_Image
libfltk.so.1.4:_ZN23Fl_Xlib_Graphics_Driver5cacheEP9Fl_Bitmap
libfltk.so.1.4:_ZN23Fl_Xlib_Graphics_Driver5cacheEP9Fl_Pixmap
libfltk.so.1.4:_ZN23Fl_Xlib_Graphics_Driver5colorEhhh
libfltk.so.1.4:_ZN23Fl_Xlib_Graphics_Driver5colorEj
libfltk.so.1.4:_ZN23Fl_Xlib_Graphics_Driver5draw_E
libfltk.so.1.4:_ZN23Fl_Xlib_Graphics_Driver5scaleEf
libfltk.so.1.4:_ZN23Fl_Xlib_Graphics_Driver7fixloopEv
libfltk.so.1.4:_ZN23Fl_Xlib_Graphics_Driver7uncacheEP12Fl_RGB_ImageRmS2_
libfltk.so.1.4:_ZN23Fl_Xlib_Graphics_Driver8clip_boxEiiiiRiS0_S0_S0_
libfltk.so.1.4:_ZN23Fl_Xlib_Graphics_Driver8drawUCS4EPKviii
libfltk.so.1.4:_ZN23Fl_Xlib_Graphics_Driver8draw_rgbEP12Fl_RGB_Imageiiiiii
libfltk.so.1.4:_ZN23Fl_Xlib_Graphics_Driver8end_lineEv
libfltk.so.1.4:_ZN23Fl_Xlib_Graphics_Driver8end_loopEv
libfltk.so.1.4:_ZN23Fl_Xlib_Graphics_Driver9clip_lineERiS0_S0_S0_
libfltk.so.1.4:_ZN23Fl_Xlib_Graphics_Driver9clip_rectERiS0_S0_S0_
libfltk.so.1.4:_ZN23Fl_Xlib_Graphics_Driver9font_nameEi
libfltk.so.1.4:_ZN23Fl_Xlib_Graphics_Driver9font_nameEiPKc
libfltk.so.1.4:_ZN23Fl_Xlib_Graphics_Driver9push_clipEiiii
libfltk.so.1.4:_ZN23Fl_Xlib_Graphics_Driver9set_colorEjj
libfltk.so.1.4:_ZN23Fl_Xlib_Graphics_Driver9set_fontsEPKc
libfltk.so.1.4:_ZN23Fl_Xlib_Graphics_DriverC1Ev
libfltk.so.1.4:_ZN23Fl_Xlib_Graphics_DriverC2Ev
libfltk.so.1.4:_ZN23Fl_Xlib_Graphics_DriverD0Ev
libfltk.so.1.4:_ZN23Fl_Xlib_Graphics_DriverD1Ev
libfltk.so.1.4:_ZN23Fl_Xlib_Graphics_DriverD2Ev
libfltk.so.1.4:_ZN25Fl_PostScript_File_Device10begin_pageEv
libfltk.so.1.4:_ZN25Fl_PostScript_File_Device11end_currentEv
libfltk.so.1.4:_ZN25Fl_PostScript_File_Device11set_currentEv
libfltk.so.1.4:_ZN25Fl_PostScript_File_Device11untranslateEv
libfltk.so.1.4:_ZN25Fl_PostScript_File_Device13close_commandEPFiP8_IO_FILEE
libfltk.so.1.4:_ZN25Fl_PostScript_File_Device14printable_rectEPiS0_
libfltk.so.1.4:_ZN25Fl_PostScript_File_Device18file_chooser_titleE
libfltk.so.1.4:_ZN25Fl_PostScript_File_Device4fileEv
libfltk.so.1.4:_ZN25Fl_PostScript_File_Device5scaleEff
libfltk.so.1.4:_ZN25Fl_PostScript_File_Device6originEPiS0_
libfltk.so.1.4:_ZN25Fl_PostScript_File_Device6originEii
libfltk.so.1.4:_ZN25Fl_PostScript_File_Device6rotateEf
libfltk.so.1.4:_ZN25Fl_PostScript_File_Device7end_jobEv
libfltk.so.1.4:_ZN25Fl_PostScript_File_Device7marginsEPiS0_S0_S0_
libfltk.so.1.4:_ZN25Fl_PostScript_File_Device8end_pageEv
libfltk.so.1.4:_ZN25Fl_PostScript_File_Device9begin_jobEP8_IO_FILEiN15Fl_Paged_Device11Page_FormatENS2_11Page_LayoutE
libfltk.so.1.4:_ZN25Fl_PostScript_File_Device9begin_jobEiN15Fl_Paged_Device11Page_FormatENS0_11Page_LayoutE
libfltk.so.1.4:_ZN25Fl_PostScript_File_Device9begin_jobEiPiS0_PPc
libfltk.so.1.4:_ZN25Fl_PostScript_File_Device9translateEii
libfltk.so.1.4:_ZN25Fl_PostScript_File_DeviceC1Ev
libfltk.so.1.4:_ZN25Fl_PostScript_File_DeviceC2Ev
libfltk.so.1.4:_ZN25Fl_PostScript_File_DeviceD0Ev
libfltk.so.1.4:_ZN25Fl_PostScript_File_DeviceD1Ev
libfltk.so.1.4:_ZN25Fl_PostScript_File_DeviceD2Ev
libfltk.so.1.4:_ZN27Fl_Scalable_Graphics_Driver10draw_imageEPFvPviiiPhES0_iiiii
libfltk.so.1.4:_ZN27Fl_Scalable_Graphics_Driver10draw_imageEPKhiiiiii
libfltk.so.1.4:_ZN27Fl_Scalable_Graphics_Driver10line_styleEiiPc
libfltk.so.1.4:_ZN27Fl_Scalable_Graphics_Driver10scale_clipEf
libfltk.so.1.4:_ZN27Fl_Scalable_Graphics_Driver11draw_circleEiiij
libfltk.so.1.4:_ZN27Fl_Scalable_Graphics_Driver12arc_unscaledEiiiidd
libfltk.so.1.4:_ZN27Fl_Scalable_Graphics_Driver12pie_unscaledEiiiidd
libfltk.so.1.4:_ZN27Fl_Scalable_Graphics_Driver12text_extentsEPKciRiS2_S2_S2_
libfltk.so.1.4:_ZN27Fl_Scalable_Graphics_Driver12unscale_clipEPv
libfltk.so.1.4:_ZN27Fl_Scalable_Graphics_Driver13draw_unscaledEPKciii
libfltk.so.1.4:_ZN27Fl_Scalable_Graphics_Driver13draw_unscaledEiPKciii
libfltk.so.1.4:_ZN27Fl_Scalable_Graphics_Driver13font_unscaledEii
libfltk.so.1.4:_ZN27Fl_Scalable_Graphics_Driver13line_unscaledEiiii
libfltk.so.1.4:_ZN27Fl_Scalable_Graphics_Driver13line_unscaledEiiiiii
libfltk.so.1.4:_ZN27Fl_Scalable_Graphics_Driver13loop_unscaledEiiiiii
libfltk.so.1.4:_ZN27Fl_Scalable_Graphics_Driver13loop_unscaledEiiiiiiii
libfltk.so.1.4:_ZN27Fl_Scalable_Graphics_Driver13rect_unscaledEiiii
libfltk.so.1.4:_ZN27Fl_Scalable_Graphics_Driver13restore_scaleEf
libfltk.so.1.4:_ZN27Fl_Scalable_Graphics_Driver13size_unscaledEv
libfltk.so.1.4:_ZN27Fl_Scalable_Graphics_Driver14override_scaleEv
libfltk.so.1.4:_ZN27Fl_Scalable_Graphics_Driver14point_unscaledEff
libfltk.so.1.4:_ZN27Fl_Scalable_Graphics_Driver14rectf_unscaledEiiii
libfltk.so.1.4:_ZN27Fl_Scalable_Graphics_Driver14width_unscaledEPKci
libfltk.so.1.4:_ZN27Fl_Scalable_Graphics_Driver14width_unscaledEj
libfltk.so.1.4:_ZN27Fl_Scalable_Graphics_Driver15draw_image_monoEPFvPviiiPhES0_iiiii
libfltk.so.1.4:_ZN27Fl_Scalable_Graphics_Driver15draw_image_monoEPKhiiiiii
libfltk.so.1.4:_ZN27Fl_Scalable_Graphics_Driver15height_unscaledEv
libfltk.so.1.4:_ZN27Fl_Scalable_Graphics_Driver15reset_pen_widthEPv
libfltk.so.1.4:_ZN27Fl_Scalable_Graphics_Driver15xyline_unscaledEiii
libfltk.so.1.4:_ZN27Fl_Scalable_Graphics_Driver15yxline_unscaledEiii
libfltk.so.1.4:_ZN27Fl_Scalable_Graphics_Driver16change_pen_widthEi
libfltk.so.1.4:_ZN27Fl_Scalable_Graphics_Driver16descent_unscaledEv
libfltk.so.1.4:_ZN27Fl_Scalable_Graphics_Driver16ellipse_unscaledEdddd
libfltk.so.1.4:_ZN27Fl_Scalable_Graphics_Driver16polygon_unscaledEiiiiii
libfltk.so.1.4:_ZN27Fl_Scalable_Graphics_Driver16polygon_unscaledEiiiiiiii
libfltk.so.1.4:_ZN27Fl_Scalable_Graphics_Driver17rtl_draw_unscaledEPKciii
libfltk.so.1.4:_ZN27Fl_Scalable_Graphics_Driver18draw_image_rescaleEPvPFvS0_iiiPhEiiiiiib
libfltk.so.1.4:_ZN27Fl_Scalable_Graphics_Driver18transformed_vertexEdd
libfltk.so.1.4:_ZN27Fl_Scalable_Graphics_Driver19draw_image_unscaledEPFvPviiiPhES0_iiiii
libfltk.so.1.4:_ZN27Fl_Scalable_Graphics_Driver19draw_image_unscaledEPKhiiiiii
libfltk.so.1.4:_ZN27Fl_Scalable_Graphics_Driver19line_style_unscaledEiiPc
libfltk.so.1.4:_ZN27Fl_Scalable_Graphics_Driver21text_extents_unscaledEPKciRiS2_S2_S2_
libfltk.so.1.4:_ZN27Fl_Scalable_Graphics_Driver24draw_image_mono_unscaledEPFvPviiiPhES0_iiiii
libfltk.so.1.4:_ZN27Fl_Scalable_Graphics_Driver24draw_image_mono_unscaledEPKhiiiiii
libfltk.so.1.4:_ZN27Fl_Scalable_Graphics_Driver3arcEddddd
libfltk.so.1.4:_ZN27Fl_Scalable_Graphics_Driver3arcEiiiidd
libfltk.so.1.4:_ZN27Fl_Scalable_Graphics_Driver3pieEiiiidd
libfltk.so.1.4:_ZN27Fl_Scalable_Graphics_Driver4drawEPKciff
libfltk.so.1.4:_ZN27Fl_Scalable_Graphics_Driver4drawEPKciii
libfltk.so.1.4:_ZN27Fl_Scalable_Graphics_Driver4drawEiPKciii
libfltk.so.1.4:_ZN27Fl_Scalable_Graphics_Driver4fontEii
libfltk.so.1.4:_ZN27Fl_Scalable_Graphics_Driver4fontEv
libfltk.so.1.4:_ZN27Fl_Scalable_Graphics_Driver4lineEiiii
libfltk.so.1.4:_ZN27Fl_Scalable_Graphics_Driver4lineEiiiiii
libfltk.so.1.4:_ZN27Fl_Scalable_Graphics_Driver4loopEiiiiii
libfltk.so.1.4:_ZN27Fl_Scalable_Graphics_Driver4loopEiiiiiiii
libfltk.so.1.4:_ZN27Fl_Scalable_Graphics_Driver4rectEiiii
libfltk.so.1.4:_ZN27Fl_Scalable_Graphics_Driver4sizeEv
libfltk.so.1.4:_ZN27Fl_Scalable_Graphics_Driver5floorEif
libfltk.so.1.4:_ZN27Fl_Scalable_Graphics_Driver5pointEii
libfltk.so.1.4:_ZN27Fl_Scalable_Graphics_Driver5rectfEiiii
libfltk.so.1.4:_ZN27Fl_Scalable_Graphics_Driver5widthEPKci
libfltk.so.1.4:_ZN27Fl_Scalable_Graphics_Driver5widthEj
libfltk.so.1.4:_ZN27Fl_Scalable_Graphics_Driver6circleEddd
libfltk.so.1.4:_ZN27Fl_Scalable_Graphics_Driver6heightEv
libfltk.so.1.4:_ZN27Fl_Scalable_Graphics_Driver6vertexEdd
libfltk.so.1.4:_ZN27Fl_Scalable_Graphics_Driver6xylineEiii
libfltk.so.1.4:_ZN27Fl_Scalable_Graphics_Driver6yxlineEiii
libfltk.so.1.4:_ZN27Fl_Scalable_Graphics_Driver7descentEv
libfltk.so.1.4:_ZN27Fl_Scalable_Graphics_Driver7polygonEiiiiii
libfltk.so.1.4:_ZN27Fl_Scalable_Graphics_Driver7polygonEiiiiiiii
libfltk.so.1.4:_ZN27Fl_Scalable_Graphics_Driver8rtl_drawEPKciii
libfltk.so.1.4:_ZN27Fl_Scalable_Graphics_DriverC1Ev
libfltk.so.1.4:_ZN27Fl_Scalable_Graphics_DriverC2Ev
libfltk.so.1.4:_ZN27Fl_Xlib_Copy_Surface_Driver11end_currentEv
libfltk.so.1.4:_ZN27Fl_Xlib_Copy_Surface_Driver11set_currentEv
libfltk.so.1.4:_ZN27Fl_Xlib_Copy_Surface_Driver11untranslateEv
libfltk.so.1.4:_ZN27Fl_Xlib_Copy_Surface_Driver9translateEii
libfltk.so.1.4:_ZN27Fl_Xlib_Copy_Surface_DriverC1Eii
libfltk.so.1.4:_ZN27Fl_Xlib_Copy_Surface_DriverC2Eii
libfltk.so.1.4:_ZN27Fl_Xlib_Copy_Surface_DriverD0Ev
libfltk.so.1.4:_ZN27Fl_Xlib_Copy_Surface_DriverD1Ev
libfltk.so.1.4:_ZN27Fl_Xlib_Copy_Surface_DriverD2Ev
libfltk.so.1.4:_ZN28Fl_Xlib_Image_Surface_Driver11end_currentEv
libfltk.so.1.4:_ZN28Fl_Xlib_Image_Surface_Driver11set_currentEv
libfltk.so.1.4:_ZN28Fl_Xlib_Image_Surface_Driver11untranslateEv
libfltk.so.1.4:_ZN28Fl_Xlib_Image_Surface_Driver4maskEPK12Fl_RGB_Image
libfltk.so.1.4:_ZN28Fl_Xlib_Image_Surface_Driver5imageEv
libfltk.so.1.4:_ZN28Fl_Xlib_Image_Surface_Driver9translateEii
libfltk.so.1.4:_ZN28Fl_Xlib_Image_Surface_DriverC1Eiiim
libfltk.so.1.4:_ZN28Fl_Xlib_Image_Surface_DriverC2Eiiim
libfltk.so.1.4:_ZN28Fl_Xlib_Image_Surface_DriverD0Ev
libfltk.so.1.4:_ZN28Fl_Xlib_Image_Surface_DriverD1Ev
libfltk.so.1.4:_ZN28Fl_Xlib_Image_Surface_DriverD2Ev
libfltk.so.1.4:_ZN29Fl_Native_File_Chooser_Driver6chrcatEPcc
libfltk.so.1.4:_ZN29Fl_Native_File_Chooser_Driver6strappEPcPKc
libfltk.so.1.4:_ZN29Fl_Native_File_Chooser_Driver6strnewEPKc
libfltk.so.1.4:_ZN29Fl_Native_File_Chooser_Driver7strfreeEPc
libfltk.so.1.4:_ZN29Fl_PostScript_Graphics_Driver10alpha_maskEPKhiiii
libfltk.so.1.4:_ZN29Fl_PostScript_Graphics_Driver10begin_lineEv
libfltk.so.1.4:_ZN29Fl_PostScript_Graphics_Driver10begin_loopEv
libfltk.so.1.4:_ZN29Fl_PostScript_Graphics_Driver10draw_imageEPFvPviiiPhES0_iiiii
libfltk.so.1.4:_ZN29Fl_PostScript_Graphics_Driver10draw_imageEPKhiiiiii
libfltk.so.1.4:_ZN29Fl_PostScript_Graphics_Driver10end_pointsEv
libfltk.so.1.4:_ZN29Fl_PostScript_Graphics_Driver10line_styleEiiPc
libfltk.so.1.4:_ZN29Fl_PostScript_Graphics_Driver11close_rle85EPv
libfltk.so.1.4:_ZN29Fl_PostScript_Graphics_Driver11draw_bitmapEP9Fl_Bitmapiiiiii
libfltk.so.1.4:_ZN29Fl_PostScript_Graphics_Driver11draw_pixmapEP9Fl_Pixmapiiiiii
libfltk.so.1.4:_ZN29Fl_PostScript_Graphics_Driver11end_polygonEv
libfltk.so.1.4:_ZN29Fl_PostScript_Graphics_Driver11not_clippedEiiii
libfltk.so.1.4:_ZN29Fl_PostScript_Graphics_Driver11page_policyEi
libfltk.so.1.4:_ZN29Fl_PostScript_Graphics_Driver11write_rle85EhPv
libfltk.so.1.4:_ZN29Fl_PostScript_Graphics_Driver12begin_pointsEv
libfltk.so.1.4:_ZN29Fl_PostScript_Graphics_Driver12ps_translateEii
libfltk.so.1.4:_ZN29Fl_PostScript_Graphics_Driver12push_no_clipEv
libfltk.so.1.4:_ZN29Fl_PostScript_Graphics_Driver12text_extentsEPKciRiS2_S2_S2_
libfltk.so.1.4:_ZN29Fl_PostScript_Graphics_Driver13begin_polygonEv
libfltk.so.1.4:_ZN29Fl_PostScript_Graphics_Driver13prepare_rle85Ev
libfltk.so.1.4:_ZN29Fl_PostScript_Graphics_Driver14clocale_printfEPKcz
libfltk.so.1.4:_ZN29Fl_PostScript_Graphics_Driver14ps_untranslateEv
libfltk.so.1.4:_ZN29Fl_PostScript_Graphics_Driver15draw_image_monoEPFvPviiiPhES0_iiiii
libfltk.so.1.4:_ZN29Fl_PostScript_Graphics_Driver15draw_image_monoEPKhiiiiii
libfltk.so.1.4:_ZN29Fl_PostScript_Graphics_Driver16scale_for_image_EP8Fl_Imageiiiiii
libfltk.so.1.4:_ZN29Fl_PostScript_Graphics_Driver16start_postscriptEiN15Fl_Paged_Device11Page_FormatENS0_11Page_LayoutE
libfltk.so.1.4:_ZN29Fl_PostScript_Graphics_Driver16transformed_drawEPKcidd
libfltk.so.1.4:_ZN29Fl_PostScript_Graphics_Driver18transformed_vertexEdd
libfltk.so.1.4:_ZN29Fl_PostScript_Graphics_Driver22transformed_draw_extraEPKciddib
libfltk.so.1.4:_ZN29Fl_PostScript_Graphics_Driver3arcEddddd
libfltk.so.1.4:_ZN29Fl_PostScript_Graphics_Driver3arcEiiiidd
libfltk.so.1.4:_ZN29Fl_PostScript_Graphics_Driver3pieEiiiidd
libfltk.so.1.4:_ZN29Fl_PostScript_Graphics_Driver4drawEiPKciii
libfltk.so.1.4:_ZN29Fl_PostScript_Graphics_Driver4fontEii
libfltk.so.1.4:_ZN29Fl_PostScript_Graphics_Driver4fontEv
libfltk.so.1.4:_ZN29Fl_PostScript_Graphics_Driver4lineEiiii
libfltk.so.1.4:_ZN29Fl_PostScript_Graphics_Driver4lineEiiiiii
libfltk.so.1.4:_ZN29Fl_PostScript_Graphics_Driver4loopEiiiiii
libfltk.so.1.4:_ZN29Fl_PostScript_Graphics_Driver4loopEiiiiiiii
libfltk.so.1.4:_ZN29Fl_PostScript_Graphics_Driver4pageEddi
libfltk.so.1.4:_ZN29Fl_PostScript_Graphics_Driver4pageEi
libfltk.so.1.4:_ZN29Fl_PostScript_Graphics_Driver4rectEiiii
libfltk.so.1.4:_ZN29Fl_PostScript_Graphics_Driver5colorEhhh
libfltk.so.1.4:_ZN29Fl_PostScript_Graphics_Driver5colorEj
libfltk.so.1.4:_ZN29Fl_PostScript_Graphics_Driver5colorEv
libfltk.so.1.4:_ZN29Fl_PostScript_Graphics_Driver5curveEdddddddd
libfltk.so.1.4:_ZN29Fl_PostScript_Graphics_Driver5pointEii
libfltk.so.1.4:_ZN29Fl_PostScript_Graphics_Driver5rectfEiiii
libfltk.so.1.4:_ZN29Fl_PostScript_Graphics_Driver5resetEv
libfltk.so.1.4:_ZN29Fl_PostScript_Graphics_Driver5widthEPKci
libfltk.so.1.4:_ZN29Fl_PostScript_Graphics_Driver5widthEj
libfltk.so.1.4:_ZN29Fl_PostScript_Graphics_Driver6circleEddd
libfltk.so.1.4:_ZN29Fl_PostScript_Graphics_Driver6concatEv
libfltk.so.1.4:_ZN29Fl_PostScript_Graphics_Driver6heightEv
libfltk.so.1.4:_ZN29Fl_PostScript_Graphics_Driver6vertexEdd
libfltk.so.1.4:_ZN29Fl_PostScript_Graphics_Driver6xylineEiii
libfltk.so.1.4:_ZN29Fl_PostScript_Graphics_Driver6xylineEiiii
libfltk.so.1.4:_ZN29Fl_PostScript_Graphics_Driver6xylineEiiiii
libfltk.so.1.4:_ZN29Fl_PostScript_Graphics_Driver6yxlineEiii
libfltk.so.1.4:_ZN29Fl_PostScript_Graphics_Driver6yxlineEiiii
libfltk.so.1.4:_ZN29Fl_PostScript_Graphics_Driver6yxlineEiiiii
libfltk.so.1.4:_ZN29Fl_PostScript_Graphics_Driver7close85EPv
libfltk.so.1.4:_ZN29Fl_PostScript_Graphics_Driver7descentEv
libfltk.so.1.4:_ZN29Fl_PostScript_Graphics_Driver7polygonEiiiiii
libfltk.so.1.4:_ZN29Fl_PostScript_Graphics_Driver7polygonEiiiiiiii
libfltk.so.1.4:_ZN29Fl_PostScript_Graphics_Driver7recoverEv
libfltk.so.1.4:_ZN29Fl_PostScript_Graphics_Driver7write85EPvPKhi
libfltk.so.1.4:_ZN29Fl_PostScript_Graphics_Driver8clip_boxEiiiiRiS0_S0_S0_
libfltk.so.1.4:_ZN29Fl_PostScript_Graphics_Driver8draw_rgbEP12Fl_RGB_Imageiiiiii
libfltk.so.1.4:_ZN29Fl_PostScript_Graphics_Driver8end_lineEv
libfltk.so.1.4:_ZN29Fl_PostScript_Graphics_Driver8end_loopEv
libfltk.so.1.4:_ZN29Fl_PostScript_Graphics_Driver8pop_clipEv
libfltk.so.1.4:_ZN29Fl_PostScript_Graphics_Driver8reconcatEv
libfltk.so.1.4:_ZN29Fl_PostScript_Graphics_Driver8rtl_drawEPKciii
libfltk.so.1.4:_ZN29Fl_PostScript_Graphics_Driver9prepare85Ev
libfltk.so.1.4:_ZN29Fl_PostScript_Graphics_Driver9ps_originEii
libfltk.so.1.4:_ZN29Fl_PostScript_Graphics_Driver9push_clipEiiii
libfltk.so.1.4:_ZN29Fl_PostScript_Graphics_Driver9start_epsEii
libfltk.so.1.4:_ZN29Fl_PostScript_Graphics_DriverC1Ev
libfltk.so.1.4:_ZN29Fl_PostScript_Graphics_DriverC2Ev
libfltk.so.1.4:_ZN29Fl_PostScript_Graphics_DriverD0Ev
libfltk.so.1.4:_ZN29Fl_PostScript_Graphics_DriverD1Ev
libfltk.so.1.4:_ZN29Fl_PostScript_Graphics_DriverD2Ev
libfltk.so.1.4:_ZN2Fl10backgroundEhhh
libfltk.so.1.4:_ZN2Fl10belowmouseEP9Fl_Widget
libfltk.so.1.4:_ZN2Fl10disable_imEv
libfltk.so.1.4:_ZN2Fl10e_dispatchE
libfltk.so.1.4:_ZN2Fl10e_is_clickE
libfltk.so.1.4:_ZN2Fl10foregroundEhhh
libfltk.so.1.4:_ZN2Fl10free_colorEji
libfltk.so.1.4:_ZN2Fl10run_checksEv
libfltk.so.1.4:_ZN2Fl10scheme_bg_E
libfltk.so.1.4:_ZN2Fl10screen_dpiERfS0_i
libfltk.so.1.4:_ZN2Fl10screen_numEii
libfltk.so.1.4:_ZN2Fl10screen_numEiiii
libfltk.so.1.4:_ZN2Fl11abi_versionEv
libfltk.so.1.4:_ZN2Fl11add_handlerEPFiiE
libfltk.so.1.4:_ZN2Fl11add_handlerEPFiiES1_
libfltk.so.1.4:_ZN2Fl11add_timeoutEdPFvPvES0_
libfltk.so.1.4:_ZN2Fl11api_versionEv
libfltk.so.1.4:_ZN2Fl11awake_data_E
libfltk.so.1.4:_ZN2Fl11awake_ring_E
libfltk.so.1.4:_ZN2Fl11background2Ehhh
libfltk.so.1.4:_ZN2Fl11belowmouse_E
libfltk.so.1.4:_ZN2Fl11get_boxtypeE10Fl_Boxtype
libfltk.so.1.4:_ZN2Fl11has_timeoutEPFvPvES0_
libfltk.so.1.4:_ZN2Fl11next_windowEPK9Fl_Window
libfltk.so.1.4:_ZN2Fl11remove_idleEPFvPvES0_
libfltk.so.1.4:_ZN2Fl11screen_xywhERiS0_S0_S0_
libfltk.so.1.4:_ZN2Fl11screen_xywhERiS0_S0_S0_i
libfltk.so.1.4:_ZN2Fl11screen_xywhERiS0_S0_S0_ii
libfltk.so.1.4:_ZN2Fl11screen_xywhERiS0_S0_S0_iiii
libfltk.so.1.4:_ZN2Fl11set_boxtypeE10Fl_BoxtypePFviiiijEhhhhPFvS0_iiiijjE
libfltk.so.1.4:_ZN2Fl11set_boxtypeE10Fl_BoxtypeS0_
libfltk.so.1.4:_ZN2Fl11ticks_sinceER14Fl_Timestamp_t
libfltk.so.1.4:_ZN2Fl12args_to_utf8EiRPPc
libfltk.so.1.4:_ZN2Fl12event_insideEPK9Fl_Widget
libfltk.so.1.4:_ZN2Fl12event_insideEiiii
libfltk.so.1.4:_ZN2Fl12first_windowEP9Fl_Window
libfltk.so.1.4:_ZN2Fl12first_windowEv
libfltk.so.1.4:_ZN2Fl12last_handlerEv
libfltk.so.1.4:_ZN2Fl12own_colormapEv
libfltk.so.1.4:_ZN2Fl12remove_checkEPFvPvES0_
libfltk.so.1.4:_ZN2Fl12screen_countEv
libfltk.so.1.4:_ZN2Fl12screen_scaleEi
libfltk.so.1.4:_ZN2Fl12screen_scaleEif
libfltk.so.1.4:_ZN2Fl13compose_resetEv
libfltk.so.1.4:_ZN2Fl13compose_stateE
libfltk.so.1.4:_ZN2Fl13delete_widgetEP9Fl_Widget
libfltk.so.1.4:_ZN2Fl13get_font_nameEiPi
libfltk.so.1.4:_ZN2Fl13options_read_E
libfltk.so.1.4:_ZN2Fl13reload_schemeEv
libfltk.so.1.4:_ZN2Fl13screen_driverEv
libfltk.so.1.4:_ZN2Fl13seconds_sinceER14Fl_Timestamp_t
libfltk.so.1.4:_ZN2Fl13set_box_colorEj
libfltk.so.1.4:_ZN2Fl13set_labeltypeE12Fl_LabeltypePFvPK8Fl_LabeliiiijEPFvS3_RiS6_E
libfltk.so.1.4:_ZN2Fl13system_driverEv
libfltk.so.1.4:_ZN2Fl13test_shortcutEj
libfltk.so.1.4:_ZN2Fl13ticks_betweenER14Fl_Timestamp_tS1_
libfltk.so.1.4:_ZN2Fl14event_dispatchEPFiiP9Fl_WindowE
libfltk.so.1.4:_ZN2Fl14event_dispatchEv
libfltk.so.1.4:_ZN2Fl14get_font_sizesEiRPi
libfltk.so.1.4:_ZN2Fl14remove_handlerEPFiiE
libfltk.so.1.4:_ZN2Fl14remove_timeoutEPFvPvES0_
libfltk.so.1.4:_ZN2Fl14repeat_timeoutEdPFvPvES0_
libfltk.so.1.4:_ZN2Fl14scrollbar_sizeEi
libfltk.so.1.4:_ZN2Fl14scrollbar_sizeEv
libfltk.so.1.4:_ZN2Fl14thread_messageEv
libfltk.so.1.4:_ZN2Fl15callback_reasonEv
libfltk.so.1.4:_ZN2Fl15clipboard_imageE
libfltk.so.1.4:_ZN2Fl15default_atcloseEP9Fl_WindowPv
libfltk.so.1.4:_ZN2Fl15draw_box_activeEv
libfltk.so.1.4:_ZN2Fl15scrollbar_size_E
libfltk.so.1.4:_ZN2Fl15seconds_betweenER14Fl_Timestamp_tS1_
libfltk.so.1.4:_ZN2Fl15selection_ownerEP9Fl_Widget
libfltk.so.1.4:_ZN2Fl16awake_ring_head_E
libfltk.so.1.4:_ZN2Fl16awake_ring_size_E
libfltk.so.1.4:_ZN2Fl16awake_ring_tail_E
libfltk.so.1.4:_ZN2Fl16call_screen_initEv
libfltk.so.1.4:_ZN2Fl16callback_reason_E
libfltk.so.1.4:_ZN2Fl16e_clipboard_dataE
libfltk.so.1.4:_ZN2Fl16e_clipboard_typeE
libfltk.so.1.4:_ZN2Fl16hide_all_windowsEv
libfltk.so.1.4:_ZN2Fl16menu_linespacingEi
libfltk.so.1.4:_ZN2Fl16menu_linespacingEv
libfltk.so.1.4:_ZN2Fl16screen_work_areaERiS0_S0_S0_
libfltk.so.1.4:_ZN2Fl16screen_work_areaERiS0_S0_S0_i
libfltk.so.1.4:_ZN2Fl16screen_work_areaERiS0_S0_S0_ii
libfltk.so.1.4:_ZN2Fl16selection_owner_E
libfltk.so.1.4:_ZN2Fl16use_high_res_GL_E
libfltk.so.1.4:_ZN2Fl17box_shadow_width_E
libfltk.so.1.4:_ZN2Fl17e_original_keysymE
libfltk.so.1.4:_ZN2Fl17get_system_colorsEv
libfltk.so.1.4:_ZN2Fl17menu_linespacing_E
libfltk.so.1.4:_ZN2Fl18add_awake_handler_EPFvPvES0_
libfltk.so.1.4:_ZN2Fl18add_system_handlerEPFiPvS0_ES0_
libfltk.so.1.4:_ZN2Fl18clipboard_containsEPKc
libfltk.so.1.4:_ZN2Fl18do_widget_deletionEv
libfltk.so.1.4:_ZN2Fl18get_awake_handler_ERPFvPvERS0_
libfltk.so.1.4:_ZN2Fl19remove_next_timeoutEPFvPvES0_PS0_
libfltk.so.1.4:_ZN2Fl1hEv
libfltk.so.1.4:_ZN2Fl1wEv
libfltk.so.1.4:_ZN2Fl1xEv
libfltk.so.1.4:_ZN2Fl1yEv
libfltk.so.1.4:_ZN2Fl20add_clipboard_notifyEPFviPvES0_
libfltk.so.1.4:_ZN2Fl20clear_widget_pointerEPK9Fl_Widget
libfltk.so.1.4:_ZN2Fl20clipboard_plain_textE
libfltk.so.1.4:_ZN2Fl20program_should_quit_E
libfltk.so.1.4:_ZN2Fl20watch_widget_pointerERP9Fl_Widget
libfltk.so.1.4:_ZN2Fl21remove_system_handlerEPFiPvS0_E
libfltk.so.1.4:_ZN2Fl22box_border_radius_max_E
libfltk.so.1.4:_ZN2Fl22release_widget_pointerERP9Fl_Widget
libfltk.so.1.4:_ZN2Fl23keyboard_screen_scalingEi
libfltk.so.1.4:_ZN2Fl23remove_clipboard_notifyEPFviPvE
libfltk.so.1.4:_ZN2Fl23selection_to_clipboard_E
libfltk.so.1.4:_ZN2Fl24screen_scaling_supportedEv
libfltk.so.1.4:_ZN2Fl27draw_GL_text_with_textures_E
libfltk.so.1.4:_ZN2Fl3argEiPPcRi
libfltk.so.1.4:_ZN2Fl3dndEv
libfltk.so.1.4:_ZN2Fl3e_xE
libfltk.so.1.4:_ZN2Fl3e_yE
libfltk.so.1.4:_ZN2Fl3nowEd
libfltk.so.1.4:_ZN2Fl3runEv
libfltk.so.1.4:_ZN2Fl4argsEiPPc
libfltk.so.1.4:_ZN2Fl4argsEiPPcRiPFiiS1_S2_E
libfltk.so.1.4:_ZN2Fl4copyEPKciiS1_
libfltk.so.1.4:_ZN2Fl4e_dxE
libfltk.so.1.4:_ZN2Fl4e_dyE
libfltk.so.1.4:_ZN2Fl4grabEP9Fl_Window
libfltk.so.1.4:_ZN2Fl4helpE
libfltk.so.1.4:_ZN2Fl4idleE
libfltk.so.1.4:_ZN2Fl4lockEv
libfltk.so.1.4:_ZN2Fl4waitEd
libfltk.so.1.4:_ZN2Fl4waitEv
libfltk.so.1.4:_ZN2Fl5awakeEPFvPvES0_
libfltk.so.1.4:_ZN2Fl5awakeEPv
libfltk.so.1.4:_ZN2Fl5checkEv
libfltk.so.1.4:_ZN2Fl5errorE
libfltk.so.1.4:_ZN2Fl5fatalE
libfltk.so.1.4:_ZN2Fl5flushEv
libfltk.so.1.4:_ZN2Fl5focusEP9Fl_Widget
libfltk.so.1.4:_ZN2Fl5grab_E
libfltk.so.1.4:_ZN2Fl5pasteER9Fl_Widget
libfltk.so.1.4:_ZN2Fl5pasteER9Fl_WidgetiPKc
libfltk.so.1.4:_ZN2Fl5readyEv
libfltk.so.1.4:_ZN2Fl6add_fdEiPFviPvES0_
libfltk.so.1.4:_ZN2Fl6add_fdEiiPFviPvES0_
libfltk.so.1.4:_ZN2Fl6box_dhE10Fl_Boxtype
libfltk.so.1.4:_ZN2Fl6box_dwE10Fl_Boxtype
libfltk.so.1.4:_ZN2Fl6box_dxE10Fl_Boxtype
libfltk.so.1.4:_ZN2Fl6box_dyE10Fl_Boxtype
libfltk.so.1.4:_ZN2Fl6e_textE
libfltk.so.1.4:_ZN2Fl6focus_E
libfltk.so.1.4:_ZN2Fl6handleEiP9Fl_Window
libfltk.so.1.4:_ZN2Fl6modal_E
libfltk.so.1.4:_ZN2Fl6optionENS_9Fl_OptionE
libfltk.so.1.4:_ZN2Fl6optionENS_9Fl_OptionEb
libfltk.so.1.4:_ZN2Fl6pushedEP9Fl_Widget
libfltk.so.1.4:_ZN2Fl6redrawEv
libfltk.so.1.4:_ZN2Fl6schemeEPKc
libfltk.so.1.4:_ZN2Fl6systemEPKc
libfltk.so.1.4:_ZN2Fl6unlockEv
libfltk.so.1.4:_ZN2Fl6visualEi
libfltk.so.1.4:_ZN2Fl7atcloseE
libfltk.so.1.4:_ZN2Fl7composeERi
libfltk.so.1.4:_ZN2Fl7damage_E
libfltk.so.1.4:_ZN2Fl7displayEPKc
libfltk.so.1.4:_ZN2Fl7e_stateE
libfltk.so.1.4:_ZN2Fl7get_keyEi
libfltk.so.1.4:_ZN2Fl7handle_EiP9Fl_Window
libfltk.so.1.4:_ZN2Fl7pushed_E
libfltk.so.1.4:_ZN2Fl7scheme_E
libfltk.so.1.4:_ZN2Fl7versionEv
libfltk.so.1.4:_ZN2Fl7warningE
libfltk.so.1.4:_ZN2Fl8add_idleEPFvPvES0_
libfltk.so.1.4:_ZN2Fl8e_clicksE
libfltk.so.1.4:_ZN2Fl8e_keysymE
libfltk.so.1.4:_ZN2Fl8e_lengthE
libfltk.so.1.4:_ZN2Fl8e_numberE
libfltk.so.1.4:_ZN2Fl8e_x_rootE
libfltk.so.1.4:_ZN2Fl8e_y_rootE
libfltk.so.1.4:_ZN2Fl8get_fontEi
libfltk.so.1.4:_ZN2Fl8has_idleEPFvPvES0_
libfltk.so.1.4:_ZN2Fl8options_E
libfltk.so.1.4:_ZN2Fl8run_idleEv
libfltk.so.1.4:_ZN2Fl8set_fontEiPKc
libfltk.so.1.4:_ZN2Fl8set_fontEii
libfltk.so.1.4:_ZN2Fl9add_checkEPFvPvES0_
libfltk.so.1.4:_ZN2Fl9box_colorEj
libfltk.so.1.4:_ZN2Fl9enable_imEv
libfltk.so.1.4:_ZN2Fl9event_keyEi
libfltk.so.1.4:_ZN2Fl9get_colorEj
libfltk.so.1.4:_ZN2Fl9get_colorEjRhS0_S0_
libfltk.so.1.4:_ZN2Fl9get_colorEjRhS0_S0_S0_
libfltk.so.1.4:_ZN2Fl9get_mouseERiS0_
libfltk.so.1.4:_ZN2Fl9has_checkEPFvPvES0_
libfltk.so.1.4:_ZN2Fl9readqueueEv
libfltk.so.1.4:_ZN2Fl9remove_fdEi
libfltk.so.1.4:_ZN2Fl9remove_fdEii
libfltk.so.1.4:_ZN2Fl9selectionER9Fl_WidgetPKci
libfltk.so.1.4:_ZN2Fl9set_colorEjhhh
libfltk.so.1.4:_ZN2Fl9set_colorEjhhhh
libfltk.so.1.4:_ZN2Fl9set_colorEjj
libfltk.so.1.4:_ZN2Fl9set_fontsEPKc
libfltk.so.1.4:_ZN33Fl_GTK_Native_File_Chooser_Driver12want_previewE
libfltk.so.1.4:_ZN33Fl_GTK_Native_File_Chooser_Driver17did_find_GTK_libsE
libfltk.so.1.4:_ZN33Fl_GTK_Native_File_Chooser_Driver18probe_for_GTK_libsEv
libfltk.so.1.4:_ZN33Fl_GTK_Native_File_Chooser_Driver19changed_output_typeEPKc
libfltk.so.1.4:_ZN33Fl_GTK_Native_File_Chooser_Driver22fl_gtk_chooser_wrapperEv
libfltk.so.1.4:_ZN33Fl_GTK_Native_File_Chooser_Driver24have_looked_for_GTK_libsE
libfltk.so.1.4:_ZN33Fl_GTK_Native_File_Chooser_Driver26custom_gtk_filter_functionEPK18_GtkFileFilterInfoPNS_4pairE
libfltk.so.1.4:_ZN33Fl_GTK_Native_File_Chooser_Driver4showEv
libfltk.so.1.4:_ZN33Fl_GTK_Native_File_Chooser_Driver4typeEi
libfltk.so.1.4:_ZN33Fl_GTK_Native_File_Chooser_Driver5titleEPKc
libfltk.so.1.4:_ZN33Fl_GTK_Native_File_Chooser_Driver9free_pairEPNS_4pairE
libfltk.so.1.4:_ZN33Fl_GTK_Native_File_Chooser_DriverC1Ei
libfltk.so.1.4:_ZN33Fl_GTK_Native_File_Chooser_DriverC2Ei
libfltk.so.1.4:_ZN33Fl_GTK_Native_File_Chooser_DriverD0Ev
libfltk.so.1.4:_ZN33Fl_GTK_Native_File_Chooser_DriverD1Ev
libfltk.so.1.4:_ZN33Fl_GTK_Native_File_Chooser_DriverD2Ev
libfltk.so.1.4:_ZN34Fl_Native_File_Chooser_FLTK_Driver11preset_fileEPKc
libfltk.so.1.4:_ZN34Fl_Native_File_Chooser_FLTK_Driver12exist_dialogEv
libfltk.so.1.4:_ZN34Fl_Native_File_Chooser_FLTK_Driver12filter_valueEi
libfltk.so.1.4:_ZN34Fl_Native_File_Chooser_FLTK_Driver12parse_filterEv
libfltk.so.1.4:_ZN34Fl_Native_File_Chooser_FLTK_Driver12type_fl_fileEi
libfltk.so.1.4:_ZN34Fl_Native_File_Chooser_FLTK_Driver4showEv
libfltk.so.1.4:_ZN34Fl_Native_File_Chooser_FLTK_Driver4typeEi
libfltk.so.1.4:_ZN34Fl_Native_File_Chooser_FLTK_Driver5titleEPKc
libfltk.so.1.4:_ZN34Fl_Native_File_Chooser_FLTK_Driver6errmsgEPKc
libfltk.so.1.4:_ZN34Fl_Native_File_Chooser_FLTK_Driver6filterEPKc
libfltk.so.1.4:_ZN34Fl_Native_File_Chooser_FLTK_Driver7optionsEi
libfltk.so.1.4:_ZN34Fl_Native_File_Chooser_FLTK_Driver9directoryEPKc
libfltk.so.1.4:_ZN34Fl_Native_File_Chooser_FLTK_DriverC1Ei
libfltk.so.1.4:_ZN34Fl_Native_File_Chooser_FLTK_DriverC2Ei
libfltk.so.1.4:_ZN34Fl_Native_File_Chooser_FLTK_DriverD0Ev
libfltk.so.1.4:_ZN34Fl_Native_File_Chooser_FLTK_DriverD1Ev
libfltk.so.1.4:_ZN34Fl_Native_File_Chooser_FLTK_DriverD2Ev
libfltk.so.1.4:_ZN36Fl_Zenity_Native_File_Chooser_Driver13append_filterER9Fl_String
libfltk.so.1.4:_ZN36Fl_Zenity_Native_File_Chooser_Driver13build_commandER9Fl_String
libfltk.so.1.4:_ZN36Fl_Zenity_Native_File_Chooser_Driver15did_find_zenityE
libfltk.so.1.4:_ZN36Fl_Zenity_Native_File_Chooser_Driver22have_looked_for_zenityE
libfltk.so.1.4:_ZN36Fl_Zenity_Native_File_Chooser_DriverC1Ei
libfltk.so.1.4:_ZN36Fl_Zenity_Native_File_Chooser_DriverC2Ei
libfltk.so.1.4:_ZN37Fl_Kdialog_Native_File_Chooser_Driver10fnfc_fd_cbEiPNS_16fnfc_pipe_structE
libfltk.so.1.4:_ZN37Fl_Kdialog_Native_File_Chooser_Driver11preset_fileEPKc
libfltk.so.1.4:_ZN37Fl_Kdialog_Native_File_Chooser_Driver11shell_quoteER9Fl_String
libfltk.so.1.4:_ZN37Fl_Kdialog_Native_File_Chooser_Driver12parse_filterEPKc
libfltk.so.1.4:_ZN37Fl_Kdialog_Native_File_Chooser_Driver13build_commandER9Fl_String
libfltk.so.1.4:_ZN37Fl_Kdialog_Native_File_Chooser_Driver16did_find_kdialogE
libfltk.so.1.4:_ZN37Fl_Kdialog_Native_File_Chooser_Driver23have_looked_for_kdialogE
libfltk.so.1.4:_ZN37Fl_Kdialog_Native_File_Chooser_Driver4showEv
libfltk.so.1.4:_ZN37Fl_Kdialog_Native_File_Chooser_Driver5titleEPKc
libfltk.so.1.4:_ZN37Fl_Kdialog_Native_File_Chooser_Driver6filterEPKc
libfltk.so.1.4:_ZN37Fl_Kdialog_Native_File_Chooser_Driver9directoryEPKc
libfltk.so.1.4:_ZN37Fl_Kdialog_Native_File_Chooser_DriverC1Ei
libfltk.so.1.4:_ZN37Fl_Kdialog_Native_File_Chooser_DriverC2Ei
libfltk.so.1.4:_ZN37Fl_Kdialog_Native_File_Chooser_DriverD0Ev
libfltk.so.1.4:_ZN37Fl_Kdialog_Native_File_Chooser_DriverD1Ev
libfltk.so.1.4:_ZN37Fl_Kdialog_Native_File_Chooser_DriverD2Ev
libfltk.so.1.4:_ZN4Fl_X5firstE
libfltk.so.1.4:_ZN4Fl_X7set_xidEP9Fl_Windowm
libfltk.so.1.4:_ZN4Fl_X8make_xidEP9Fl_WindowP11XVisualInfom
libfltk.so.1.4:_ZN6Fl_Box4drawEv
libfltk.so.1.4:_ZN6Fl_Box6handleEi
libfltk.so.1.4:_ZN6Fl_BoxC1E10Fl_BoxtypeiiiiPKc
libfltk.so.1.4:_ZN6Fl_BoxC1EiiiiPKc
libfltk.so.1.4:_ZN6Fl_BoxC2E10Fl_BoxtypeiiiiPKc
libfltk.so.1.4:_ZN6Fl_BoxC2EiiiiPKc
libfltk.so.1.4:_ZN7Fl_Dial4drawEiiii
libfltk.so.1.4:_ZN7Fl_Dial4drawEv
libfltk.so.1.4:_ZN7Fl_Dial6handleEi
libfltk.so.1.4:_ZN7Fl_Dial6handleEiiiii
libfltk.so.1.4:_ZN7Fl_DialC1EiiiiPKc
libfltk.so.1.4:_ZN7Fl_DialC2EiiiiPKc
libfltk.so.1.4:_ZN7Fl_Flex3endEv
libfltk.so.1.4:_ZN7Fl_Flex4drawEv
libfltk.so.1.4:_ZN7Fl_Flex4initEi
libfltk.so.1.4:_ZN7Fl_Flex5fixedEP9Fl_Widgeti
libfltk.so.1.4:_ZN7Fl_Flex6layoutEv
libfltk.so.1.4:_ZN7Fl_Flex6resizeEiiii
libfltk.so.1.4:_ZN7Fl_Flex9on_removeEi
libfltk.so.1.4:_ZN7Fl_FlexC1Ei
libfltk.so.1.4:_ZN7Fl_FlexC1Eiii
libfltk.so.1.4:_ZN7Fl_FlexC1EiiiiPKc
libfltk.so.1.4:_ZN7Fl_FlexC1Eiiiii
libfltk.so.1.4:_ZN7Fl_FlexC2Ei
libfltk.so.1.4:_ZN7Fl_FlexC2Eiii
libfltk.so.1.4:_ZN7Fl_FlexC2EiiiiPKc
libfltk.so.1.4:_ZN7Fl_FlexC2Eiiiii
libfltk.so.1.4:_ZN7Fl_FlexD0Ev
libfltk.so.1.4:_ZN7Fl_FlexD1Ev
libfltk.so.1.4:_ZN7Fl_FlexD2Ev
libfltk.so.1.4:_ZN7Fl_Grid10col_weightEPKim
libfltk.so.1.4:_ZN7Fl_Grid10col_weightEii
libfltk.so.1.4:_ZN7Fl_Grid10row_heightEPKim
libfltk.so.1.4:_ZN7Fl_Grid10row_heightEii
libfltk.so.1.4:_ZN7Fl_Grid10row_weightEPKim
libfltk.so.1.4:_ZN7Fl_Grid10row_weightEii
libfltk.so.1.4:_ZN7Fl_Grid11remove_cellEii
libfltk.so.1.4:_ZN7Fl_Grid12clear_layoutEv
libfltk.so.1.4:_ZN7Fl_Grid3gapEii
libfltk.so.1.4:_ZN7Fl_Grid4drawEv
libfltk.so.1.4:_ZN7Fl_Grid4initEv
libfltk.so.1.4:_ZN7Fl_Grid5debugEi
libfltk.so.1.4:_ZN7Fl_Grid6layoutEiiii
libfltk.so.1.4:_ZN7Fl_Grid6layoutEv
libfltk.so.1.4:_ZN7Fl_Grid6marginEiiii
libfltk.so.1.4:_ZN7Fl_Grid6resizeEiiii
libfltk.so.1.4:_ZN7Fl_Grid6widgetEP9Fl_Widgetiiiit
libfltk.so.1.4:_ZN7Fl_Grid6widgetEP9Fl_Widgetiit
libfltk.so.1.4:_ZN7Fl_Grid7col_gapEPKim
libfltk.so.1.4:_ZN7Fl_Grid7col_gapEii
libfltk.so.1.4:_ZN7Fl_Grid7row_gapEPKim
libfltk.so.1.4:_ZN7Fl_Grid7row_gapEii
libfltk.so.1.4:_ZN7Fl_Grid8add_cellEii
libfltk.so.1.4:_ZN7Fl_Grid9col_widthEPKim
libfltk.so.1.4:_ZN7Fl_Grid9col_widthEii
libfltk.so.1.4:_ZN7Fl_Grid9draw_gridEv
libfltk.so.1.4:_ZN7Fl_Grid9on_removeEi
libfltk.so.1.4:_ZN7Fl_GridC1EiiiiPKc
libfltk.so.1.4:_ZN7Fl_GridC2EiiiiPKc
libfltk.so.1.4:_ZN7Fl_GridD0Ev
libfltk.so.1.4:_ZN7Fl_GridD1Ev
libfltk.so.1.4:_ZN7Fl_GridD2Ev
libfltk.so.1.4:_ZN7Fl_Pack4drawEv
libfltk.so.1.4:_ZN7Fl_Pack6resizeEiiii
libfltk.so.1.4:_ZN7Fl_PackC1EiiiiPKc
libfltk.so.1.4:_ZN7Fl_PackC2EiiiiPKc
libfltk.so.1.4:_ZN7Fl_Tabs10tab_heightEv
libfltk.so.1.4:_ZN7Fl_Tabs10take_focusEP9Fl_Widget
libfltk.so.1.4:_ZN7Fl_Tabs11client_areaERiS0_S0_S0_i
libfltk.so.1.4:_ZN7Fl_Tabs11redraw_tabsEv
libfltk.so.1.4:_ZN7Fl_Tabs13hit_tabs_areaEii
libfltk.so.1.4:_ZN7Fl_Tabs13tab_positionsEv
libfltk.so.1.4:_ZN7Fl_Tabs15handle_overflowEi
libfltk.so.1.4:_ZN7Fl_Tabs17hit_overflow_menuEii
libfltk.so.1.4:_ZN7Fl_Tabs17maybe_do_callbackEP9Fl_Widget
libfltk.so.1.4:_ZN7Fl_Tabs19check_overflow_menuEv
libfltk.so.1.4:_ZN7Fl_Tabs19clear_tab_positionsEv
libfltk.so.1.4:_ZN7Fl_Tabs20handle_overflow_menuEv
libfltk.so.1.4:_ZN7Fl_Tabs25draw_overflow_menu_buttonEv
libfltk.so.1.4:_ZN7Fl_Tabs4drawEv
libfltk.so.1.4:_ZN7Fl_Tabs4pushEP9Fl_Widget
libfltk.so.1.4:_ZN7Fl_Tabs4showEv
libfltk.so.1.4:_ZN7Fl_Tabs5valueEP9Fl_Widget
libfltk.so.1.4:_ZN7Fl_Tabs5valueEv
libfltk.so.1.4:_ZN7Fl_Tabs5whichEii
libfltk.so.1.4:_ZN7Fl_Tabs6handleEi
libfltk.so.1.4:_ZN7Fl_Tabs6resizeEiiii
libfltk.so.1.4:_ZN7Fl_Tabs7on_moveEii
libfltk.so.1.4:_ZN7Fl_Tabs8draw_tabEiiiiP9Fl_Widgetii
libfltk.so.1.4:_ZN7Fl_Tabs9hit_closeEP9Fl_Widgetii
libfltk.so.1.4:_ZN7Fl_Tabs9on_insertEP9Fl_Widgeti
libfltk.so.1.4:_ZN7Fl_Tabs9on_removeEi
libfltk.so.1.4:_ZN7Fl_TabsC1EiiiiPKc
libfltk.so.1.4:_ZN7Fl_TabsC2EiiiiPKc
libfltk.so.1.4:_ZN7Fl_TabsD0Ev
libfltk.so.1.4:_ZN7Fl_TabsD1Ev
libfltk.so.1.4:_ZN7Fl_TabsD2Ev
libfltk.so.1.4:_ZN7Fl_Tile10set_cursorEi
libfltk.so.1.4:_ZN7Fl_Tile10size_rangeEP9Fl_Widgetiiii
libfltk.so.1.4:_ZN7Fl_Tile10size_rangeEiiiii
libfltk.so.1.4:_ZN7Fl_Tile14request_grow_bEiRiP7Fl_Rect
libfltk.so.1.4:_ZN7Fl_Tile14request_grow_lEiRiP7Fl_Rect
libfltk.so.1.4:_ZN7Fl_Tile14request_grow_rEiRiP7Fl_Rect
libfltk.so.1.4:_ZN7Fl_Tile14request_grow_tEiRiP7Fl_Rect
libfltk.so.1.4:_ZN7Fl_Tile15init_size_rangeEii
libfltk.so.1.4:_ZN7Fl_Tile16request_shrink_bEiRiP7Fl_Rect
libfltk.so.1.4:_ZN7Fl_Tile16request_shrink_lEiRiP7Fl_Rect
libfltk.so.1.4:_ZN7Fl_Tile16request_shrink_rEiRiP7Fl_Rect
libfltk.so.1.4:_ZN7Fl_Tile16request_shrink_tEiRiP7Fl_Rect
libfltk.so.1.4:_ZN7Fl_Tile17drag_intersectionEiiii
libfltk.so.1.4:_ZN7Fl_Tile17move_intersectionEiiii
libfltk.so.1.4:_ZN7Fl_Tile6handleEi
libfltk.so.1.4:_ZN7Fl_Tile6resizeEiiii
libfltk.so.1.4:_ZN7Fl_Tile7on_moveEii
libfltk.so.1.4:_ZN7Fl_Tile9on_insertEP9Fl_Widgeti
libfltk.so.1.4:_ZN7Fl_Tile9on_removeEi
libfltk.so.1.4:_ZN7Fl_TileC1EiiiiPKc
libfltk.so.1.4:_ZN7Fl_TileC2EiiiiPKc
libfltk.so.1.4:_ZN7Fl_TileD0Ev
libfltk.so.1.4:_ZN7Fl_TileD1Ev
libfltk.so.1.4:_ZN7Fl_TileD2Ev
libfltk.so.1.4:_ZN7Fl_Tree10marginleftEi
libfltk.so.1.4:_ZN7Fl_Tree10root_labelEPKc
libfltk.so.1.4:_ZN7Fl_Tree10select_allEP12Fl_Tree_Itemi
libfltk.so.1.4:_ZN7Fl_Tree10selectmodeE14Fl_Tree_Select
libfltk.so.1.4:_ZN7Fl_Tree11is_selectedEPKc
libfltk.so.1.4:_ZN7Fl_Tree11linespacingEi
libfltk.so.1.4:_ZN7Fl_Tree11open_toggleEP12Fl_Tree_Itemi
libfltk.so.1.4:_ZN7Fl_Tree11recalc_treeEv
libfltk.so.1.4:_ZN7Fl_Tree11select_onlyEP12Fl_Tree_Itemi
libfltk.so.1.4:_ZN7Fl_Tree12deselect_allEP12Fl_Tree_Itemi
libfltk.so.1.4:_ZN7Fl_Tree12find_clickedEi
libfltk.so.1.4:_ZN7Fl_Tree12insert_aboveEP12Fl_Tree_ItemPKc
libfltk.so.1.4:_ZN7Fl_Tree12is_scrollbarEP9Fl_Widget
libfltk.so.1.4:_ZN7Fl_Tree12item_clickedEP12Fl_Tree_Item
libfltk.so.1.4:_ZN7Fl_Tree12item_clickedEv
libfltk.so.1.4:_ZN7Fl_Tree12last_visibleEv
libfltk.so.1.4:_ZN7Fl_Tree12marginbottomEi
libfltk.so.1.4:_ZN7Fl_Tree12showcollapseEi
libfltk.so.1.4:_ZN7Fl_Tree13callback_itemEP12Fl_Tree_Item
libfltk.so.1.4:_ZN7Fl_Tree13callback_itemEv
libfltk.so.1.4:_ZN7Fl_Tree13first_visibleEv
libfltk.so.1.4:_ZN7Fl_Tree13select_toggleEP12Fl_Tree_Itemi
libfltk.so.1.4:_ZN7Fl_Tree13show_item_topEP12Fl_Tree_Item
libfltk.so.1.4:_ZN7Fl_Tree14clear_childrenEP12Fl_Tree_Item
libfltk.so.1.4:_ZN7Fl_Tree14connectorcolorEj
libfltk.so.1.4:_ZN7Fl_Tree14connectorstyleE17Fl_Tree_Connector
libfltk.so.1.4:_ZN7Fl_Tree14connectorwidthEi
libfltk.so.1.4:_ZN7Fl_Tree14item_draw_modeE22Fl_Tree_Item_Draw_Mode
libfltk.so.1.4:_ZN7Fl_Tree14item_draw_modeEi
libfltk.so.1.4:_ZN7Fl_Tree14item_labelfontEi
libfltk.so.1.4:_ZN7Fl_Tree14item_labelsizeEi
libfltk.so.1.4:_ZN7Fl_Tree14scrollbar_sizeEi
libfltk.so.1.4:_ZN7Fl_Tree14set_item_focusEP12Fl_Tree_Item
libfltk.so.1.4:_ZN7Fl_Tree15calc_dimensionsEv
libfltk.so.1.4:_ZN7Fl_Tree15callback_reasonE14Fl_Tree_Reason
libfltk.so.1.4:_ZN7Fl_Tree15labelmarginleftEi
libfltk.so.1.4:_ZN7Fl_Tree16extend_selectionEP12Fl_Tree_ItemS1_ib
libfltk.so.1.4:_ZN7Fl_Tree16show_item_bottomEP12Fl_Tree_Item
libfltk.so.1.4:_ZN7Fl_Tree16show_item_middleEP12Fl_Tree_Item
libfltk.so.1.4:_ZN7Fl_Tree16widgetmarginleftEi
libfltk.so.1.4:_ZN7Fl_Tree17item_labelbgcolorEj
libfltk.so.1.4:_ZN7Fl_Tree17item_labelfgcolorEj
libfltk.so.1.4:_ZN7Fl_Tree17last_visible_itemEv
libfltk.so.1.4:_ZN7Fl_Tree17next_visible_itemEP12Fl_Tree_Itemi
libfltk.so.1.4:_ZN7Fl_Tree18first_visible_itemEv
libfltk.so.1.4:_ZN7Fl_Tree18get_selected_itemsER18Fl_Tree_Item_Array
libfltk.so.1.4:_ZN7Fl_Tree18item_reselect_modeE26Fl_Tree_Item_Reselect_Mode
libfltk.so.1.4:_ZN7Fl_Tree18last_selected_itemEv
libfltk.so.1.4:_ZN7Fl_Tree18next_selected_itemEP12Fl_Tree_Itemi
libfltk.so.1.4:_ZN7Fl_Tree18usericonmarginleftEi
libfltk.so.1.4:_ZN7Fl_Tree19first_selected_itemEv
libfltk.so.1.4:_ZN7Fl_Tree19fix_scrollbar_orderEv
libfltk.so.1.4:_ZN7Fl_Tree20do_callback_for_itemEP12Fl_Tree_Item14Fl_Tree_Reason
libfltk.so.1.4:_ZN7Fl_Tree20extend_selection_dirEP12Fl_Tree_ItemS1_iib
libfltk.so.1.4:_ZN7Fl_Tree22openchild_marginbottomEi
libfltk.so.1.4:_ZN7Fl_Tree3addEP12Fl_Tree_ItemPKc
libfltk.so.1.4:_ZN7Fl_Tree3addEPKcP12Fl_Tree_Item
libfltk.so.1.4:_ZN7Fl_Tree4drawEv
libfltk.so.1.4:_ZN7Fl_Tree4lastEv
libfltk.so.1.4:_ZN7Fl_Tree4loadER14Fl_Preferences
libfltk.so.1.4:_ZN7Fl_Tree4nextEP12Fl_Tree_Item
libfltk.so.1.4:_ZN7Fl_Tree4openEP12Fl_Tree_Itemi
libfltk.so.1.4:_ZN7Fl_Tree4openEPKci
libfltk.so.1.4:_ZN7Fl_Tree4prevEP12Fl_Tree_Item
libfltk.so.1.4:_ZN7Fl_Tree4rootEP12Fl_Tree_Item
libfltk.so.1.4:_ZN7Fl_Tree4rootEv
libfltk.so.1.4:_ZN7Fl_Tree5clearEv
libfltk.so.1.4:_ZN7Fl_Tree5closeEP12Fl_Tree_Itemi
libfltk.so.1.4:_ZN7Fl_Tree5closeEPKci
libfltk.so.1.4:_ZN7Fl_Tree5firstEv
libfltk.so.1.4:_ZN7Fl_Tree6handleEi
libfltk.so.1.4:_ZN7Fl_Tree6insertEP12Fl_Tree_ItemPKci
libfltk.so.1.4:_ZN7Fl_Tree6removeEP12Fl_Tree_Item
libfltk.so.1.4:_ZN7Fl_Tree6resizeEiiii
libfltk.so.1.4:_ZN7Fl_Tree6selectEP12Fl_Tree_Itemi
libfltk.so.1.4:_ZN7Fl_Tree6selectEPKci
libfltk.so.1.4:_ZN7Fl_Tree7displayEP12Fl_Tree_Item
libfltk.so.1.4:_ZN7Fl_Tree8deselectEP12Fl_Tree_Itemi
libfltk.so.1.4:_ZN7Fl_Tree8deselectEPKci
libfltk.so.1.4:_ZN7Fl_Tree8openiconEP8Fl_Image
libfltk.so.1.4:_ZN7Fl_Tree8showrootEi
libfltk.so.1.4:_ZN7Fl_Tree8usericonEP8Fl_Image
libfltk.so.1.4:_ZN7Fl_Tree9calc_treeEv
libfltk.so.1.4:_ZN7Fl_Tree9closeiconEP8Fl_Image
libfltk.so.1.4:_ZN7Fl_Tree9displayedEP12Fl_Tree_Item
libfltk.so.1.4:_ZN7Fl_Tree9find_itemEPKc
libfltk.so.1.4:_ZN7Fl_Tree9hpositionEi
libfltk.so.1.4:_ZN7Fl_Tree9margintopEi
libfltk.so.1.4:_ZN7Fl_Tree9next_itemEP12Fl_Tree_Itemib
libfltk.so.1.4:_ZN7Fl_Tree9selectboxE10Fl_Boxtype
libfltk.so.1.4:_ZN7Fl_Tree9show_itemEP12Fl_Tree_Item
libfltk.so.1.4:_ZN7Fl_Tree9show_itemEP12Fl_Tree_Itemi
libfltk.so.1.4:_ZN7Fl_Tree9show_selfEv
libfltk.so.1.4:_ZN7Fl_Tree9sortorderE12Fl_Tree_Sort
libfltk.so.1.4:_ZN7Fl_Tree9vpositionEi
libfltk.so.1.4:_ZN7Fl_TreeC1EiiiiPKc
libfltk.so.1.4:_ZN7Fl_TreeC2EiiiiPKc
libfltk.so.1.4:_ZN7Fl_TreeD0Ev
libfltk.so.1.4:_ZN7Fl_TreeD1Ev
libfltk.so.1.4:_ZN7Fl_TreeD2Ev
libfltk.so.1.4:_ZN8Fl_Chart13draw_barchartEiiiiiP14FL_CHART_ENTRYddiij
libfltk.so.1.4:_ZN8Fl_Chart13draw_piechartEiiiiiP14FL_CHART_ENTRYij
libfltk.so.1.4:_ZN8Fl_Chart14draw_linechartEiiiiiiP14FL_CHART_ENTRYddiij
libfltk.so.1.4:_ZN8Fl_Chart16draw_horbarchartEiiiiiP14FL_CHART_ENTRYddiij
libfltk.so.1.4:_ZN8Fl_Chart3addEdPKcj
libfltk.so.1.4:_ZN8Fl_Chart4drawEv
libfltk.so.1.4:_ZN8Fl_Chart5clearEv
libfltk.so.1.4:_ZN8Fl_Chart6boundsEdd
libfltk.so.1.4:_ZN8Fl_Chart6insertEidPKcj
libfltk.so.1.4:_ZN8Fl_Chart7maxsizeEi
libfltk.so.1.4:_ZN8Fl_Chart7replaceEidPKcj
libfltk.so.1.4:_ZN8Fl_ChartC1EiiiiPKc
libfltk.so.1.4:_ZN8Fl_ChartC2EiiiiPKc
libfltk.so.1.4:_ZN8Fl_ChartD0Ev
libfltk.so.1.4:_ZN8Fl_ChartD1Ev
libfltk.so.1.4:_ZN8Fl_ChartD2Ev
libfltk.so.1.4:_ZN8Fl_Clock6handleEi
libfltk.so.1.4:_ZN8Fl_ClockC1EhiiiiPKc
libfltk.so.1.4:_ZN8Fl_ClockC1EiiiiPKc
libfltk.so.1.4:_ZN8Fl_ClockC2EhiiiiPKc
libfltk.so.1.4:_ZN8Fl_ClockC2EiiiiPKc
libfltk.so.1.4:_ZN8Fl_ClockD0Ev
libfltk.so.1.4:_ZN8Fl_ClockD1Ev
libfltk.so.1.4:_ZN8Fl_ClockD2Ev
libfltk.so.1.4:_ZN8Fl_Group10init_sizesEv
libfltk.so.1.4:_ZN8Fl_Group10navigationEi
libfltk.so.1.4:_ZN8Fl_Group12delete_childEi
libfltk.so.1.4:_ZN8Fl_Group13draw_childrenEv
libfltk.so.1.4:_ZN8Fl_Group3addER9Fl_Widget
libfltk.so.1.4:_ZN8Fl_Group3endEv
libfltk.so.1.4:_ZN8Fl_Group4drawEv
libfltk.so.1.4:_ZN8Fl_Group5beginEv
libfltk.so.1.4:_ZN8Fl_Group5clearEv
libfltk.so.1.4:_ZN8Fl_Group5sizesEv
libfltk.so.1.4:_ZN8Fl_Group6boundsEv
libfltk.so.1.4:_ZN8Fl_Group6handleEi
libfltk.so.1.4:_ZN8Fl_Group6insertER9Fl_Widgeti
libfltk.so.1.4:_ZN8Fl_Group6removeER9Fl_Widget
libfltk.so.1.4:_ZN8Fl_Group6removeEi
libfltk.so.1.4:_ZN8Fl_Group6resizeEiiii
libfltk.so.1.4:_ZN8Fl_Group7currentEPS_
libfltk.so.1.4:_ZN8Fl_Group7currentEv
libfltk.so.1.4:_ZN8Fl_Group7on_moveEii
libfltk.so.1.4:_ZN8Fl_Group8current_E
libfltk.so.1.4:_ZN8Fl_Group9on_insertEP9Fl_Widgeti
libfltk.so.1.4:_ZN8Fl_Group9on_removeEi
libfltk.so.1.4:_ZN8Fl_GroupC1EiiiiPKc
libfltk.so.1.4:_ZN8Fl_GroupC2EiiiiPKc
libfltk.so.1.4:_ZN8Fl_GroupD0Ev
libfltk.so.1.4:_ZN8Fl_GroupD1Ev
libfltk.so.1.4:_ZN8Fl_GroupD2Ev
libfltk.so.1.4:_ZN8Fl_Image10desaturateEv
libfltk.so.1.4:_ZN8Fl_Image10draw_emptyEii
libfltk.so.1.4:_ZN8Fl_Image11RGB_scalingE14Fl_RGB_Scaling
libfltk.so.1.4:_ZN8Fl_Image11RGB_scalingEv
libfltk.so.1.4:_ZN8Fl_Image11draw_scaledEiiii
libfltk.so.1.4:_ZN8Fl_Image12RGB_scaling_E
libfltk.so.1.4:_ZN8Fl_Image13color_averageEjf
libfltk.so.1.4:_ZN8Fl_Image18scaling_algorithm_E
libfltk.so.1.4:_ZN8Fl_Image20register_images_doneE
libfltk.so.1.4:_ZN8Fl_Image21define_FL_IMAGE_LABELEv
libfltk.so.1.4:_ZN8Fl_Image4drawEiiiiii
libfltk.so.1.4:_ZN8Fl_Image5labelEP12Fl_Menu_Item
libfltk.so.1.4:_ZN8Fl_Image5labelEP9Fl_Widget
libfltk.so.1.4:_ZN8Fl_Image5scaleEiiii
libfltk.so.1.4:_ZN8Fl_Image7measureEPK8Fl_LabelRiS3_
libfltk.so.1.4:_ZN8Fl_Image7uncacheEv
libfltk.so.1.4:_ZN8Fl_Image9labeltypeEPK8Fl_Labeliiiij
libfltk.so.1.4:_ZN8Fl_ImageC1Eiii
libfltk.so.1.4:_ZN8Fl_ImageC2Eiii
libfltk.so.1.4:_ZN8Fl_ImageD0Ev
libfltk.so.1.4:_ZN8Fl_ImageD1Ev
libfltk.so.1.4:_ZN8Fl_ImageD2Ev
libfltk.so.1.4:_ZN8Fl_Input10handle_keyEv
libfltk.so.1.4:_ZN8Fl_Input10handle_rmbEv
libfltk.so.1.4:_ZN8Fl_Input10kf_page_upEv
libfltk.so.1.4:_ZN8Fl_Input11kf_copy_cutEv
libfltk.so.1.4:_ZN8Fl_Input11kf_lines_upEi
libfltk.so.1.4:_ZN8Fl_Input11kf_move_eolEv
libfltk.so.1.4:_ZN8Fl_Input11kf_move_solEv
libfltk.so.1.4:_ZN8Fl_Input12kf_clear_eolEv
libfltk.so.1.4:_ZN8Fl_Input12kf_page_downEv
libfltk.so.1.4:_ZN8Fl_Input13cut_menu_textE
libfltk.so.1.4:_ZN8Fl_Input13kf_delete_eolEv
libfltk.so.1.4:_ZN8Fl_Input13kf_delete_solEv
libfltk.so.1.4:_ZN8Fl_Input13kf_lines_downEi
libfltk.so.1.4:_ZN8Fl_Input13kf_select_allEv
libfltk.so.1.4:_ZN8Fl_Input14copy_menu_textE
libfltk.so.1.4:_ZN8Fl_Input14shift_positionEi
libfltk.so.1.4:_ZN8Fl_Input15paste_menu_textE
libfltk.so.1.4:_ZN8Fl_Input16kf_insert_toggleEv
libfltk.so.1.4:_ZN8Fl_Input17kf_move_char_leftEv
libfltk.so.1.4:_ZN8Fl_Input17kf_move_word_leftEv
libfltk.so.1.4:_ZN8Fl_Input18kf_move_char_rightEv
libfltk.so.1.4:_ZN8Fl_Input18kf_move_up_and_solEv
libfltk.so.1.4:_ZN8Fl_Input18kf_move_word_rightEv
libfltk.so.1.4:_ZN8Fl_Input19kf_delete_char_leftEv
libfltk.so.1.4:_ZN8Fl_Input19kf_delete_word_leftEv
libfltk.so.1.4:_ZN8Fl_Input20kf_delete_char_rightEv
libfltk.so.1.4:_ZN8Fl_Input20kf_delete_word_rightEv
libfltk.so.1.4:_ZN8Fl_Input20kf_move_down_and_eolEv
libfltk.so.1.4:_ZN8Fl_Input22shift_up_down_positionEi
libfltk.so.1.4:_ZN8Fl_Input4drawEv
libfltk.so.1.4:_ZN8Fl_Input6handleEi
libfltk.so.1.4:_ZN8Fl_Input6kf_topEv
libfltk.so.1.4:_ZN8Fl_Input7kf_copyEv
libfltk.so.1.4:_ZN8Fl_Input7kf_redoEv
libfltk.so.1.4:_ZN8Fl_Input7kf_undoEv
libfltk.so.1.4:_ZN8Fl_Input8kf_pasteEv
libfltk.so.1.4:_ZN8Fl_Input9kf_bottomEv
libfltk.so.1.4:_ZN8Fl_InputC1EiiiiPKc
libfltk.so.1.4:_ZN8Fl_InputC2EiiiiPKc
libfltk.so.1.4:_ZN8Fl_Menu_13clear_submenuEi
libfltk.so.1.4:_ZN8Fl_Menu_23find_item_with_argumentEl
libfltk.so.1.4:_ZN8Fl_Menu_24find_item_with_user_dataEPv
libfltk.so.1.4:_ZN8Fl_Menu_3addEPKc
libfltk.so.1.4:_ZN8Fl_Menu_3addEPKciPFvP9Fl_WidgetPvES4_i
libfltk.so.1.4:_ZN8Fl_Menu_4copyEPK12Fl_Menu_ItemPv
libfltk.so.1.4:_ZN8Fl_Menu_4menuEPK12Fl_Menu_Item
libfltk.so.1.4:_ZN8Fl_Menu_5clearEv
libfltk.so.1.4:_ZN8Fl_Menu_5valueEPK12Fl_Menu_Item
libfltk.so.1.4:_ZN8Fl_Menu_6globalEv
libfltk.so.1.4:_ZN8Fl_Menu_6insertEiPKciPFvP9Fl_WidgetPvES4_i
libfltk.so.1.4:_ZN8Fl_Menu_6pickedEPK12Fl_Menu_Item
libfltk.so.1.4:_ZN8Fl_Menu_6removeEi
libfltk.so.1.4:_ZN8Fl_Menu_7replaceEiPKc
libfltk.so.1.4:_ZN8Fl_Menu_7setonlyEP12Fl_Menu_Item
libfltk.so.1.4:_ZN8Fl_Menu_8menu_endEv
libfltk.so.1.4:_ZN8Fl_Menu_9find_itemEPFvP9Fl_WidgetPvE
libfltk.so.1.4:_ZN8Fl_Menu_9find_itemEPKc
libfltk.so.1.4:_ZN8Fl_Menu_C1EiiiiPKc
libfltk.so.1.4:_ZN8Fl_Menu_C2EiiiiPKc
libfltk.so.1.4:_ZN8Fl_Menu_D0Ev
libfltk.so.1.4:_ZN8Fl_Menu_D1Ev
libfltk.so.1.4:_ZN8Fl_Menu_D2Ev
libfltk.so.1.4:_ZN8Fl_Table10get_boundsENS_12TableContextERiS1_S1_S1_
libfltk.so.1.4:_ZN8Fl_Table10row_heightEi
libfltk.so.1.4:_ZN8Fl_Table10row_heightEii
libfltk.so.1.4:_ZN8Fl_Table11damage_zoneEiiiiii
libfltk.so.1.4:_ZN8Fl_Table11is_selectedEii
libfltk.so.1.4:_ZN8Fl_Table11move_cursorEii
libfltk.so.1.4:_ZN8Fl_Table11move_cursorEiii
libfltk.so.1.4:_ZN8Fl_Table12_redraw_cellENS_12TableContextEii
libfltk.so.1.4:_ZN8Fl_Table12col_positionEi
libfltk.so.1.4:_ZN8Fl_Table12row_positionEi
libfltk.so.1.4:_ZN8Fl_Table13_auto_drag_cbEv
libfltk.so.1.4:_ZN8Fl_Table13change_cursorE9Fl_Cursor
libfltk.so.1.4:_ZN8Fl_Table13cursor2rowcolERiS0_RNS_10ResizeFlagE
libfltk.so.1.4:_ZN8Fl_Table13get_selectionERiS0_S0_S0_
libfltk.so.1.4:_ZN8Fl_Table13row_col_clampENS_12TableContextERiS1_
libfltk.so.1.4:_ZN8Fl_Table13set_selectionEiiii
libfltk.so.1.4:_ZN8Fl_Table13table_resizedEv
libfltk.so.1.4:_ZN8Fl_Table14_auto_drag_cb2EPv
libfltk.so.1.4:_ZN8Fl_Table14table_scrolledEv
libfltk.so.1.4:_ZN8Fl_Table15_stop_auto_dragEv
libfltk.so.1.4:_ZN8Fl_Table16_start_auto_dragEv
libfltk.so.1.4:_ZN8Fl_Table17recalc_dimensionsEv
libfltk.so.1.4:_ZN8Fl_Table19col_scroll_positionEi
libfltk.so.1.4:_ZN8Fl_Table19row_scroll_positionEi
libfltk.so.1.4:_ZN8Fl_Table4colsEi
libfltk.so.1.4:_ZN8Fl_Table4drawEv
libfltk.so.1.4:_ZN8Fl_Table4rowsEi
libfltk.so.1.4:_ZN8Fl_Table6handleEi
libfltk.so.1.4:_ZN8Fl_Table6resizeEiiii
libfltk.so.1.4:_ZN8Fl_Table8col_sizeEv
libfltk.so.1.4:_ZN8Fl_Table8row_sizeEv
libfltk.so.1.4:_ZN8Fl_Table9col_widthEi
libfltk.so.1.4:_ZN8Fl_Table9col_widthEii
libfltk.so.1.4:_ZN8Fl_Table9find_cellENS_12TableContextEiiRiS1_S1_S1_
libfltk.so.1.4:_ZN8Fl_Table9scroll_cbEP9Fl_WidgetPv
libfltk.so.1.4:_ZN8Fl_TableC1EiiiiPKc
libfltk.so.1.4:_ZN8Fl_TableC2EiiiiPKc
libfltk.so.1.4:_ZN8Fl_TableD0Ev
libfltk.so.1.4:_ZN8Fl_TableD1Ev
libfltk.so.1.4:_ZN8Fl_TableD2Ev
libfltk.so.1.4:_ZN9ColorChip4drawEv
libfltk.so.1.4:_ZN9ColorMenu3runEv
libfltk.so.1.4:_ZN9ColorMenu4drawEv
libfltk.so.1.4:_ZN9ColorMenu6handleEi
libfltk.so.1.4:_ZN9ColorMenu7drawboxEj
libfltk.so.1.4:_ZN9ColorMenuC1Ej
libfltk.so.1.4:_ZN9ColorMenuC2Ej
libfltk.so.1.4:_ZN9Fl_Bitmap4drawEiiiiii
libfltk.so.1.4:_ZN9Fl_Bitmap5labelEP12Fl_Menu_Item
libfltk.so.1.4:_ZN9Fl_Bitmap5labelEP9Fl_Widget
libfltk.so.1.4:_ZN9Fl_Bitmap7uncacheEv
libfltk.so.1.4:_ZN9Fl_BitmapC1EPKciii
libfltk.so.1.4:_ZN9Fl_BitmapC1EPKhiii
libfltk.so.1.4:_ZN9Fl_BitmapC2EPKciii
libfltk.so.1.4:_ZN9Fl_BitmapC2EPKhiii
libfltk.so.1.4:_ZN9Fl_BitmapD0Ev
libfltk.so.1.4:_ZN9Fl_BitmapD1Ev
libfltk.so.1.4:_ZN9Fl_BitmapD2Ev
libfltk.so.1.4:_ZN9Fl_Button19key_release_timeoutEPv
libfltk.so.1.4:_ZN9Fl_Button19key_release_trackerE
libfltk.so.1.4:_ZN9Fl_Button19simulate_key_actionEv
libfltk.so.1.4:_ZN9Fl_Button4drawEv
libfltk.so.1.4:_ZN9Fl_Button5valueEi
libfltk.so.1.4:_ZN9Fl_Button6handleEi
libfltk.so.1.4:_ZN9Fl_Button7compactEh
libfltk.so.1.4:_ZN9Fl_Button7setonlyEv
libfltk.so.1.4:_ZN9Fl_ButtonC1EiiiiPKc
libfltk.so.1.4:_ZN9Fl_ButtonC2EiiiiPKc
libfltk.so.1.4:_ZN9Fl_Choice4drawEv
libfltk.so.1.4:_ZN9Fl_Choice5valueEPK12Fl_Menu_Item
libfltk.so.1.4:_ZN9Fl_Choice5valueEi
libfltk.so.1.4:_ZN9Fl_Choice6handleEi
libfltk.so.1.4:_ZN9Fl_ChoiceC1EiiiiPKc
libfltk.so.1.4:_ZN9Fl_ChoiceC2EiiiiPKc
libfltk.so.1.4:_ZN9Fl_Input_10apply_undoEv
libfltk.so.1.4:_ZN9Fl_Input_10handletextEiiiii
libfltk.so.1.4:_ZN9Fl_Input_11up_down_posE
libfltk.so.1.4:_ZN9Fl_Input_11was_up_downE
libfltk.so.1.4:_ZN9Fl_Input_12handle_mouseEiiiii
libfltk.so.1.4:_ZN9Fl_Input_12linesPerPageEv
libfltk.so.1.4:_ZN9Fl_Input_12static_valueEPKc
libfltk.so.1.4:_ZN9Fl_Input_12static_valueEPKci
libfltk.so.1.4:_ZN9Fl_Input_13put_in_bufferEi
libfltk.so.1.4:_ZN9Fl_Input_14minimal_updateEi
libfltk.so.1.4:_ZN9Fl_Input_14minimal_updateEii
libfltk.so.1.4:_ZN9Fl_Input_15insert_positionEii
libfltk.so.1.4:_ZN9Fl_Input_16up_down_positionEii
libfltk.so.1.4:_ZN9Fl_Input_17maybe_do_callbackE18Fl_Callback_Reason
libfltk.so.1.4:_ZN9Fl_Input_4copyEi
libfltk.so.1.4:_ZN9Fl_Input_4redoEv
libfltk.so.1.4:_ZN9Fl_Input_4undoEv
libfltk.so.1.4:_ZN9Fl_Input_5valueEPKc
libfltk.so.1.4:_ZN9Fl_Input_5valueEPKci
libfltk.so.1.4:_ZN9Fl_Input_5valueEd
libfltk.so.1.4:_ZN9Fl_Input_5valueEi
libfltk.so.1.4:_ZN9Fl_Input_6appendEPKcic
libfltk.so.1.4:_ZN9Fl_Input_6resizeEiiii
libfltk.so.1.4:_ZN9Fl_Input_7replaceEiiPKci
libfltk.so.1.4:_ZN9Fl_Input_8drawtextEiiii
libfltk.so.1.4:_ZN9Fl_Input_8drawtextEiiiib
libfltk.so.1.4:_ZN9Fl_Input_9copy_cutsEv
libfltk.so.1.4:_ZN9Fl_Input_C1EiiiiPKc
libfltk.so.1.4:_ZN9Fl_Input_C2EiiiiPKc
libfltk.so.1.4:_ZN9Fl_Input_D0Ev
libfltk.so.1.4:_ZN9Fl_Input_D1Ev
libfltk.so.1.4:_ZN9Fl_Input_D2Ev
libfltk.so.1.4:_ZN9Fl_OutputC1EiiiiPKc
libfltk.so.1.4:_ZN9Fl_OutputC2EiiiiPKc
libfltk.so.1.4:_ZN9Fl_Pixmap10desaturateEv
libfltk.so.1.4:_ZN9Fl_Pixmap11delete_dataEv
libfltk.so.1.4:_ZN9Fl_Pixmap13color_averageEjf
libfltk.so.1.4:_ZN9Fl_Pixmap4drawEiiiiii
libfltk.so.1.4:_ZN9Fl_Pixmap5labelEP12Fl_Menu_Item
libfltk.so.1.4:_ZN9Fl_Pixmap5labelEP9Fl_Widget
libfltk.so.1.4:_ZN9Fl_Pixmap7measureEv
libfltk.so.1.4:_ZN9Fl_Pixmap7uncacheEv
libfltk.so.1.4:_ZN9Fl_Pixmap8set_dataEPKPKc
libfltk.so.1.4:_ZN9Fl_Pixmap9copy_dataEv
libfltk.so.1.4:_ZN9Fl_PixmapD0Ev
libfltk.so.1.4:_ZN9Fl_PixmapD1Ev
libfltk.so.1.4:_ZN9Fl_PixmapD2Ev
libfltk.so.1.4:_ZN9Fl_PluginC1EPKcS1_
libfltk.so.1.4:_ZN9Fl_PluginC2EPKcS1_
libfltk.so.1.4:_ZN9Fl_PluginD0Ev
libfltk.so.1.4:_ZN9Fl_PluginD1Ev
libfltk.so.1.4:_ZN9Fl_PluginD2Ev
libfltk.so.1.4:_ZN9Fl_Roller4drawEv
libfltk.so.1.4:_ZN9Fl_Roller6handleEi
libfltk.so.1.4:_ZN9Fl_RollerC1EiiiiPKc
libfltk.so.1.4:_ZN9Fl_RollerC2EiiiiPKc
libfltk.so.1.4:_ZN9Fl_Scheme11alloc_size_E
libfltk.so.1.4:_ZN9Fl_Scheme12num_schemes_E
libfltk.so.1.4:_ZN9Fl_Scheme15add_scheme_nameEPKc
libfltk.so.1.4:_ZN9Fl_Scheme5namesEv
libfltk.so.1.4:_ZN9Fl_Scheme6names_E
libfltk.so.1.4:_ZN9Fl_Scroll12delete_childEi
libfltk.so.1.4:_ZN9Fl_Scroll12scrollbar_cbEP9Fl_WidgetPv
libfltk.so.1.4:_ZN9Fl_Scroll13hscrollbar_cbEP9Fl_WidgetPv
libfltk.so.1.4:_ZN9Fl_Scroll19fix_scrollbar_orderEv
libfltk.so.1.4:_ZN9Fl_Scroll4drawEv
libfltk.so.1.4:_ZN9Fl_Scroll5clearEv
libfltk.so.1.4:_ZN9Fl_Scroll6handleEi
libfltk.so.1.4:_ZN9Fl_Scroll6resizeEiiii
libfltk.so.1.4:_ZN9Fl_Scroll7on_moveEii
libfltk.so.1.4:_ZN9Fl_Scroll9draw_clipEPviiii
libfltk.so.1.4:_ZN9Fl_Scroll9on_insertEP9Fl_Widgeti
libfltk.so.1.4:_ZN9Fl_Scroll9scroll_toEii
libfltk.so.1.4:_ZN9Fl_ScrollC1EiiiiPKc
libfltk.so.1.4:_ZN9Fl_ScrollC2EiiiiPKc
libfltk.so.1.4:_ZN9Fl_ScrollD0Ev
libfltk.so.1.4:_ZN9Fl_ScrollD1Ev
libfltk.so.1.4:_ZN9Fl_ScrollD2Ev
libfltk.so.1.4:_ZN9Fl_Slider10_Fl_SliderEv
libfltk.so.1.4:_ZN9Fl_Slider11scrollvalueEiiii
libfltk.so.1.4:_ZN9Fl_Slider11slider_sizeEd
libfltk.so.1.4:_ZN9Fl_Slider4drawEiiii
libfltk.so.1.4:_ZN9Fl_Slider4drawEv
libfltk.so.1.4:_ZN9Fl_Slider6boundsEdd
libfltk.so.1.4:_ZN9Fl_Slider6handleEi
libfltk.so.1.4:_ZN9Fl_Slider6handleEiiiii
libfltk.so.1.4:_ZN9Fl_Slider7draw_bgEiiii
libfltk.so.1.4:_ZN9Fl_SliderC1EhiiiiPKc
libfltk.so.1.4:_ZN9Fl_SliderC1EiiiiPKc
libfltk.so.1.4:_ZN9Fl_SliderC2EhiiiiPKc
libfltk.so.1.4:_ZN9Fl_SliderC2EiiiiPKc
libfltk.so.1.4:_ZN9Fl_String13shrink_to_fitEv
libfltk.so.1.4:_ZN9Fl_String3NULE
libfltk.so.1.4:_ZN9Fl_String4dataEv
libfltk.so.1.4:_ZN9Fl_String4nposE
libfltk.so.1.4:_ZN9Fl_String5clearEv
libfltk.so.1.4:_ZN9Fl_String5eraseEii
libfltk.so.1.4:_ZN9Fl_String5grow_Ei
libfltk.so.1.4:_ZN9Fl_String5init_Ev
libfltk.so.1.4:_ZN9Fl_String6appendEPKci
libfltk.so.1.4:_ZN9Fl_String6appendERKS_
libfltk.so.1.4:_ZN9Fl_String6appendEc
libfltk.so.1.4:_ZN9Fl_String6assignEPKc
libfltk.so.1.4:_ZN9Fl_String6assignEPKci
libfltk.so.1.4:_ZN9Fl_String6assignERKS_
libfltk.so.1.4:_ZN9Fl_String6insertEiPKci
libfltk.so.1.4:_ZN9Fl_String6insertEiRKS_
libfltk.so.1.4:_ZN9Fl_String6resizeEi
libfltk.so.1.4:_ZN9Fl_String7replaceEiiPKci
libfltk.so.1.4:_ZN9Fl_String7replaceEiiRKS_
libfltk.so.1.4:_ZN9Fl_String7reserveEi
libfltk.so.1.4:_ZN9Fl_String7shrink_Ei
libfltk.so.1.4:_ZN9Fl_String8pop_backEv
libfltk.so.1.4:_ZN9Fl_String8replace_EiiPKci
libfltk.so.1.4:_ZN9Fl_String9push_backEc
libfltk.so.1.4:_ZN9Fl_StringC1EPKc
libfltk.so.1.4:_ZN9Fl_StringC1EPKci
libfltk.so.1.4:_ZN9Fl_StringC1ERKS_
libfltk.so.1.4:_ZN9Fl_StringC1Ev
libfltk.so.1.4:_ZN9Fl_StringC2EPKc
libfltk.so.1.4:_ZN9Fl_StringC2EPKci
libfltk.so.1.4:_ZN9Fl_StringC2ERKS_
libfltk.so.1.4:_ZN9Fl_StringC2Ev
libfltk.so.1.4:_ZN9Fl_StringD1Ev
libfltk.so.1.4:_ZN9Fl_StringD2Ev
libfltk.so.1.4:_ZN9Fl_StringaSEPKc
libfltk.so.1.4:_ZN9Fl_StringaSERKS_
libfltk.so.1.4:_ZN9Fl_StringixEi
libfltk.so.1.4:_ZN9Fl_StringpLEPKc
libfltk.so.1.4:_ZN9Fl_StringpLERKS_
libfltk.so.1.4:_ZN9Fl_StringpLEc
libfltk.so.1.4:_ZN9Fl_Widget10bind_imageEP8Fl_Image
libfltk.so.1.4:_ZN9Fl_Widget10copy_labelEPKc
libfltk.so.1.4:_ZN9Fl_Widget10deactivateEv
libfltk.so.1.4:_ZN9Fl_Widget10take_focusEv
libfltk.so.1.4:_ZN9Fl_Widget11do_callbackEPS_Pv18Fl_Callback_Reason
libfltk.so.1.4:_ZN9Fl_Widget12bind_deimageEP8Fl_Image
libfltk.so.1.4:_ZN9Fl_Widget12copy_tooltipEPKc
libfltk.so.1.4:_ZN9Fl_Widget12redraw_labelEv
libfltk.so.1.4:_ZN9Fl_Widget13damage_resizeEiiii
libfltk.so.1.4:_ZN9Fl_Widget13test_shortcutEPKcb
libfltk.so.1.4:_ZN9Fl_Widget13test_shortcutEv
libfltk.so.1.4:_ZN9Fl_Widget14label_shortcutEPKc
libfltk.so.1.4:_ZN9Fl_Widget16default_callbackEPS_Pv
libfltk.so.1.4:_ZN9Fl_Widget4hideEv
libfltk.so.1.4:_ZN9Fl_Widget4showEv
libfltk.so.1.4:_ZN9Fl_Widget5imageEP8Fl_Image
libfltk.so.1.4:_ZN9Fl_Widget5imageER8Fl_Image
libfltk.so.1.4:_ZN9Fl_Widget5labelEPKc
libfltk.so.1.4:_ZN9Fl_Widget6damageEh
libfltk.so.1.4:_ZN9Fl_Widget6damageEhiiii
libfltk.so.1.4:_ZN9Fl_Widget6handleEi
libfltk.so.1.4:_ZN9Fl_Widget6redrawEv
libfltk.so.1.4:_ZN9Fl_Widget6resizeEiiii
libfltk.so.1.4:_ZN9Fl_Widget7deimageEP8Fl_Image
libfltk.so.1.4:_ZN9Fl_Widget7deimageER8Fl_Image
libfltk.so.1.4:_ZN9Fl_Widget7tooltipEPKc
libfltk.so.1.4:_ZN9Fl_Widget8activateEv
libfltk.so.1.4:_ZN9Fl_Widget9user_dataEP21Fl_Callback_User_Datab
libfltk.so.1.4:_ZN9Fl_Widget9user_dataEPv
libfltk.so.1.4:_ZN9Fl_WidgetC1EiiiiPKc
libfltk.so.1.4:_ZN9Fl_WidgetC2EiiiiPKc
libfltk.so.1.4:_ZN9Fl_WidgetD0Ev
libfltk.so.1.4:_ZN9Fl_WidgetD1Ev
libfltk.so.1.4:_ZN9Fl_WidgetD2Ev
libfltk.so.1.4:_ZN9Fl_Window10_Fl_WindowEv
libfltk.so.1.4:_ZN9Fl_Window10copy_labelEPKc
libfltk.so.1.4:_ZN9Fl_Window10free_iconsEv
libfltk.so.1.4:_ZN9Fl_Window10fullscreenEv
libfltk.so.1.4:_ZN9Fl_Window10screen_numEi
libfltk.so.1.4:_ZN9Fl_Window10screen_numEv
libfltk.so.1.4:_ZN9Fl_Window10size_rangeEiiiiiii
libfltk.so.1.4:_ZN9Fl_Window11un_maximizeEv
libfltk.so.1.4:_ZN9Fl_Window12default_iconEPK12Fl_RGB_Image
libfltk.so.1.4:_ZN9Fl_Window12is_a_rescaleEv
libfltk.so.1.4:_ZN9Fl_Window12is_resizableEv
libfltk.so.1.4:_ZN9Fl_Window12make_currentEv
libfltk.so.1.4:_ZN9Fl_Window13default_iconsEPPK12Fl_RGB_Imagei
libfltk.so.1.4:_ZN9Fl_Window13draw_backdropEv
libfltk.so.1.4:_ZN9Fl_Window13is_maximized_Eb
libfltk.so.1.4:_ZN9Fl_Window14default_cursorE9Fl_Cursor
libfltk.so.1.4:_ZN9Fl_Window14default_cursorE9Fl_Cursorjj
libfltk.so.1.4:_ZN9Fl_Window14default_xclassEPKc
libfltk.so.1.4:_ZN9Fl_Window14default_xclassEv
libfltk.so.1.4:_ZN9Fl_Window14fullscreen_offEiiii
libfltk.so.1.4:_ZN9Fl_Window14fullscreen_offEv
libfltk.so.1.4:_ZN9Fl_Window14get_size_rangeEPiS0_S0_S0_S0_S0_S0_
libfltk.so.1.4:_ZN9Fl_Window15default_xclass_E
libfltk.so.1.4:_ZN9Fl_Window15wait_for_exposeEv
libfltk.so.1.4:_ZN9Fl_Window16default_callbackEPS_Pv
libfltk.so.1.4:_ZN9Fl_Window18default_size_rangeEv
libfltk.so.1.4:_ZN9Fl_Window18fullscreen_screensEiiii
libfltk.so.1.4:_ZN9Fl_Window24show_next_window_iconic_E
libfltk.so.1.4:_ZN9Fl_Window27allow_expand_outside_parentEv
libfltk.so.1.4:_ZN9Fl_Window4drawEv
libfltk.so.1.4:_ZN9Fl_Window4hideEv
libfltk.so.1.4:_ZN9Fl_Window4iconEPK12Fl_RGB_Image
libfltk.so.1.4:_ZN9Fl_Window4iconEPKv
libfltk.so.1.4:_ZN9Fl_Window4showEiPPc
libfltk.so.1.4:_ZN9Fl_Window4showEv
libfltk.so.1.4:_ZN9Fl_Window5flushEv
libfltk.so.1.4:_ZN9Fl_Window5iconsEPPK12Fl_RGB_Imagei
libfltk.so.1.4:_ZN9Fl_Window5labelEPKc
libfltk.so.1.4:_ZN9Fl_Window5labelEPKcS1_
libfltk.so.1.4:_ZN9Fl_Window5os_idEv
libfltk.so.1.4:_ZN9Fl_Window5shapeEPK8Fl_Image
libfltk.so.1.4:_ZN9Fl_Window5shapeERK8Fl_Image
libfltk.so.1.4:_ZN9Fl_Window5shapeEv
libfltk.so.1.4:_ZN9Fl_Window6borderEi
libfltk.so.1.4:_ZN9Fl_Window6cursorE9Fl_Cursor
libfltk.so.1.4:_ZN9Fl_Window6cursorE9Fl_Cursorjj
libfltk.so.1.4:_ZN9Fl_Window6cursorEPK12Fl_RGB_Imageii
libfltk.so.1.4:_ZN9Fl_Window6handleEi
libfltk.so.1.4:_ZN9Fl_Window6resizeEiiii
libfltk.so.1.4:_ZN9Fl_Window6xclassEPKc
libfltk.so.1.4:_ZN9Fl_Window7currentEv
libfltk.so.1.4:_ZN9Fl_Window7hotspotEPK9Fl_Widgeti
libfltk.so.1.4:_ZN9Fl_Window7hotspotEiii
libfltk.so.1.4:_ZN9Fl_Window7iconizeEv
libfltk.so.1.4:_ZN9Fl_Window8current_E
libfltk.so.1.4:_ZN9Fl_Window8maximizeEv
libfltk.so.1.4:_ZN9Fl_Window9iconlabelEPKc
libfltk.so.1.4:_ZN9Fl_WindowC1EiiPKc
libfltk.so.1.4:_ZN9Fl_WindowC1EiiiiPKc
libfltk.so.1.4:_ZN9Fl_WindowC2EiiPKc
libfltk.so.1.4:_ZN9Fl_WindowC2EiiiiPKc
libfltk.so.1.4:_ZN9Fl_WindowD0Ev
libfltk.so.1.4:_ZN9Fl_WindowD1Ev
libfltk.so.1.4:_ZN9Fl_WindowD2Ev
libfltk.so.1.4:_ZN9Fl_Wizard4drawEv
libfltk.so.1.4:_ZN9Fl_Wizard4nextEv
libfltk.so.1.4:_ZN9Fl_Wizard4prevEv
libfltk.so.1.4:_ZN9Fl_Wizard5valueEP9Fl_Widget
libfltk.so.1.4:_ZN9Fl_Wizard5valueEv
libfltk.so.1.4:_ZN9Fl_WizardC1EiiiiPKc
libfltk.so.1.4:_ZN9Fl_WizardC2EiiiiPKc
libfltk.so.1.4:_ZN9menustate9is_insideEii
libfltk.so.1.4:_ZN9menutitle4drawEv
libfltk.so.1.4:_ZN9menutitleC1EiiiiPK12Fl_Menu_Itemb
libfltk.so.1.4:_ZN9menutitleC2EiiiiPK12Fl_Menu_Itemb
libfltk.so.1.4:_ZNK10Fl_Browser10item_firstEv
libfltk.so.1.4:_ZNK10Fl_Browser10item_widthEPv
libfltk.so.1.4:_ZNK10Fl_Browser11full_heightEv
libfltk.so.1.4:_ZNK10Fl_Browser11incr_heightEv
libfltk.so.1.4:_ZNK10Fl_Browser11item_heightEPv
libfltk.so.1.4:_ZNK10Fl_Browser13item_selectedEPv
libfltk.so.1.4:_ZNK10Fl_Browser4dataEi
libfltk.so.1.4:_ZNK10Fl_Browser4iconEi
libfltk.so.1.4:_ZNK10Fl_Browser4textEi
libfltk.so.1.4:_ZNK10Fl_Browser5valueEv
libfltk.so.1.4:_ZNK10Fl_Browser6linenoEPv
libfltk.so.1.4:_ZNK10Fl_Browser7toplineEv
libfltk.so.1.4:_ZNK10Fl_Browser7visibleEi
libfltk.so.1.4:_ZNK10Fl_Browser8selectedEi
libfltk.so.1.4:_ZNK10Fl_Browser9find_lineEi
libfltk.so.1.4:_ZNK10Fl_Browser9item_drawEPviiii
libfltk.so.1.4:_ZNK10Fl_Browser9item_lastEv
libfltk.so.1.4:_ZNK10Fl_Browser9item_nextEPv
libfltk.so.1.4:_ZNK10Fl_Browser9item_prevEPv
libfltk.so.1.4:_ZNK10Fl_Browser9item_textEPv
libfltk.so.1.4:_ZNK11Fl_Browser_10full_widthEv
libfltk.so.1.4:_ZNK11Fl_Browser_11full_heightEv
libfltk.so.1.4:_ZNK11Fl_Browser_11incr_heightEv
libfltk.so.1.4:_ZNK11Fl_Browser_13item_selectedEPv
libfltk.so.1.4:_ZNK11Fl_Browser_17item_quick_heightEPv
libfltk.so.1.4:_ZNK11Fl_Browser_4bboxERiS0_S0_S0_
libfltk.so.1.4:_ZNK11Fl_Browser_8leftedgeEv
libfltk.so.1.4:_ZNK11Fl_Browser_9displayedEPv
libfltk.so.1.4:_ZNK11Fl_Terminal10RingBuffer12u8c_disp_rowEi
libfltk.so.1.4:_ZNK11Fl_Terminal10RingBuffer12u8c_hist_rowEi
libfltk.so.1.4:_ZNK11Fl_Terminal10RingBuffer12u8c_ring_rowEi
libfltk.so.1.4:_ZNK11Fl_Terminal10RingBuffer16is_disp_ring_rowEi
libfltk.so.1.4:_ZNK11Fl_Terminal10RingBuffer16is_hist_ring_rowEi
libfltk.so.1.4:_ZNK11Fl_Terminal10RingBuffer16u8c_hist_use_rowEi
libfltk.so.1.4:_ZNK11Fl_Terminal10cursor_colEv
libfltk.so.1.4:_ZNK11Fl_Terminal10cursor_rowEv
libfltk.so.1.4:_ZNK11Fl_Terminal10textattribEv
libfltk.so.1.4:_ZNK11Fl_Terminal11draw_row_bgEiii
libfltk.so.1.4:_ZNK11Fl_Terminal11history_useEv
libfltk.so.1.4:_ZNK11Fl_Terminal11redraw_rateEv
libfltk.so.1.4:_ZNK11Fl_Terminal12display_rowsEv
libfltk.so.1.4:_ZNK11Fl_Terminal12history_rowsEv
libfltk.so.1.4:_ZNK11Fl_Terminal12is_selectionEv
libfltk.so.1.4:_ZNK11Fl_Terminal12redraw_styleEv
libfltk.so.1.4:_ZNK11Fl_Terminal12show_unknownEv
libfltk.so.1.4:_ZNK11Fl_Terminal12u8c_disp_rowEi
libfltk.so.1.4:_ZNK11Fl_Terminal12u8c_hist_rowEi
libfltk.so.1.4:_ZNK11Fl_Terminal12u8c_ring_rowEi
libfltk.so.1.4:_ZNK11Fl_Terminal13current_styleEv
libfltk.so.1.4:_ZNK11Fl_Terminal13cursorbgcolorEv
libfltk.so.1.4:_ZNK11Fl_Terminal13cursorfgcolorEv
libfltk.so.1.4:_ZNK11Fl_Terminal13get_selectionERiS0_S0_S0_
libfltk.so.1.4:_ZNK11Fl_Terminal13history_linesEv
libfltk.so.1.4:_ZNK11Fl_Terminal13x_to_glob_colEiiRiRb
libfltk.so.1.4:_ZNK11Fl_Terminal14scrollbar_sizeEv
libfltk.so.1.4:_ZNK11Fl_Terminal14selection_textEv
libfltk.so.1.4:_ZNK11Fl_Terminal14walk_selectionEPKNS_8Utf8CharERiS3_
libfltk.so.1.4:_ZNK11Fl_Terminal15display_columnsEv
libfltk.so.1.4:_ZNK11Fl_Terminal16hscrollbar_styleEv
libfltk.so.1.4:_ZNK11Fl_Terminal16is_disp_ring_rowEi
libfltk.so.1.4:_ZNK11Fl_Terminal16output_translateEv
libfltk.so.1.4:_ZNK11Fl_Terminal16u8c_hist_use_rowEi
libfltk.so.1.4:_ZNK11Fl_Terminal17utf8_char_at_dispEii
libfltk.so.1.4:_ZNK11Fl_Terminal17utf8_char_at_globEii
libfltk.so.1.4:_ZNK11Fl_Terminal17xy_to_glob_rowcolEiiRiS0_Rb
libfltk.so.1.4:_ZNK11Fl_Terminal18selection_text_lenEv
libfltk.so.1.4:_ZNK11Fl_Terminal19is_inside_selectionEii
libfltk.so.1.4:_ZNK11Fl_Terminal21scrollbar_actual_sizeEv
libfltk.so.1.4:_ZNK11Fl_Terminal4ansiEv
libfltk.so.1.4:_ZNK11Fl_Terminal4textEb
libfltk.so.1.4:_ZNK11Fl_Terminal6Cursor9is_rowcolEii
libfltk.so.1.4:_ZNK11Fl_Terminal8Utf8Char10pwidth_intEv
libfltk.so.1.4:_ZNK11Fl_Terminal8Utf8Char11attr_color_EjPK9Fl_Widget
libfltk.so.1.4:_ZNK11Fl_Terminal8Utf8Char11fl_font_setERKNS_9CharStyleE
libfltk.so.1.4:_ZNK11Fl_Terminal8Utf8Char13attr_bg_colorEPK9Fl_Widget
libfltk.so.1.4:_ZNK11Fl_Terminal8Utf8Char13attr_fg_colorEPK9Fl_Widget
libfltk.so.1.4:_ZNK11Fl_Terminal8Utf8Char6pwidthEv
libfltk.so.1.4:_ZNK11Fl_Terminal8Utf8Char7bgcolorEv
libfltk.so.1.4:_ZNK11Fl_Terminal8Utf8Char7fgcolorEv
libfltk.so.1.4:_ZNK11Fl_Terminal8draw_rowEii
libfltk.so.1.4:_ZNK11Fl_Terminal8h_to_rowEi
libfltk.so.1.4:_ZNK11Fl_Terminal8w_to_colEi
libfltk.so.1.4:_ZNK11Fl_Terminal9CharStyle14colorbits_onlyEh
libfltk.so.1.4:_ZNK11Fl_Terminal9CharStyle7bgcolorEv
libfltk.so.1.4:_ZNK11Fl_Terminal9CharStyle7fgcolorEv
libfltk.so.1.4:_ZNK11Fl_Terminal9EscapeSeq10total_valsEv
libfltk.so.1.4:_ZNK11Fl_Terminal9EscapeSeq17parse_in_progressEv
libfltk.so.1.4:_ZNK11Fl_Terminal9EscapeSeq3valEi
libfltk.so.1.4:_ZNK11Fl_Terminal9EscapeSeq6is_csiEv
libfltk.so.1.4:_ZNK11Fl_Terminal9EscapeSeq8esc_modeEv
libfltk.so.1.4:_ZNK11Fl_Terminal9EscapeSeq9defvalmaxEii
libfltk.so.1.4:_ZNK11Fl_Terminal9Selection13get_selectionERiS1_S1_S1_
libfltk.so.1.4:_ZNK11Fl_Terminal9draw_buffEi
libfltk.so.1.4:_ZNK12Fl_Menu_Item13find_shortcutEPib
libfltk.so.1.4:_ZNK12Fl_Menu_Item13test_shortcutEv
libfltk.so.1.4:_ZNK12Fl_Menu_Item4drawEiiiiPK8Fl_Menu_i
libfltk.so.1.4:_ZNK12Fl_Menu_Item4nextEi
libfltk.so.1.4:_ZNK12Fl_Menu_Item4sizeEv
libfltk.so.1.4:_ZNK12Fl_Menu_Item5popupEiiPKcPKS_PK8Fl_Menu_
libfltk.so.1.4:_ZNK12Fl_Menu_Item7measureEPiPK8Fl_Menu_
libfltk.so.1.4:_ZNK12Fl_Menu_Item8pulldownEiiiiPKS_PK8Fl_Menu_S1_i
libfltk.so.1.4:_ZNK12Fl_RGB_Image4copyEii
libfltk.so.1.4:_ZNK12Fl_Tree_Item11drawbgcolorEv
libfltk.so.1.4:_ZNK12Fl_Tree_Item11drawfgcolorEv
libfltk.so.1.4:_ZNK12Fl_Tree_Item12find_clickedERK13Fl_Tree_Prefsi
libfltk.so.1.4:_ZNK12Fl_Tree_Item12is_visible_rEv
libfltk.so.1.4:_ZNK12Fl_Tree_Item13event_on_itemERK13Fl_Tree_Prefs
libfltk.so.1.4:_ZNK12Fl_Tree_Item14event_on_labelERK13Fl_Tree_Prefs
libfltk.so.1.4:_ZNK12Fl_Tree_Item15find_child_itemEPKc
libfltk.so.1.4:_ZNK12Fl_Tree_Item15find_child_itemEPPc
libfltk.so.1.4:_ZNK12Fl_Tree_Item16calc_item_heightERK13Fl_Tree_Prefs
libfltk.so.1.4:_ZNK12Fl_Tree_Item18event_on_user_iconERK13Fl_Tree_Prefs
libfltk.so.1.4:_ZNK12Fl_Tree_Item22event_on_collapse_iconERK13Fl_Tree_Prefs
libfltk.so.1.4:_ZNK12Fl_Tree_Item5childEi
libfltk.so.1.4:_ZNK12Fl_Tree_Item5depthEv
libfltk.so.1.4:_ZNK12Fl_Tree_Item5labelEv
libfltk.so.1.4:_ZNK12Fl_Tree_Item5prefsEv
libfltk.so.1.4:_ZNK12Fl_Tree_Item9find_itemEPPc
libfltk.so.1.4:_ZNK12Fl_Tree_Item9show_selfEPKc
libfltk.so.1.4:_ZNK14Fl_Text_Buffer10line_startEi
libfltk.so.1.4:_ZNK14Fl_Text_Buffer10text_rangeEii
libfltk.so.1.4:_ZNK14Fl_Text_Buffer10utf8_alignEi
libfltk.so.1.4:_ZNK14Fl_Text_Buffer10word_startEi
libfltk.so.1.4:_ZNK14Fl_Text_Buffer11count_linesEii
libfltk.so.1.4:_ZNK14Fl_Text_Buffer14estimate_linesEiii
libfltk.so.1.4:_ZNK14Fl_Text_Buffer14search_forwardEiPKcPii
libfltk.so.1.4:_ZNK14Fl_Text_Buffer15search_backwardEiPKcPii
libfltk.so.1.4:_ZNK14Fl_Text_Buffer15selection_text_EP17Fl_Text_Selection
libfltk.so.1.4:_ZNK14Fl_Text_Buffer16findchar_forwardEijPi
libfltk.so.1.4:_ZNK14Fl_Text_Buffer17findchar_backwardEijPi
libfltk.so.1.4:_ZNK14Fl_Text_Buffer17is_word_separatorEi
libfltk.so.1.4:_ZNK14Fl_Text_Buffer17next_char_clippedEi
libfltk.so.1.4:_ZNK14Fl_Text_Buffer17prev_char_clippedEi
libfltk.so.1.4:_ZNK14Fl_Text_Buffer19redisplay_selectionEP17Fl_Text_SelectionS1_
libfltk.so.1.4:_ZNK14Fl_Text_Buffer21call_modify_callbacksEiiiiPKc
libfltk.so.1.4:_ZNK14Fl_Text_Buffer24call_predelete_callbacksEii
libfltk.so.1.4:_ZNK14Fl_Text_Buffer26count_displayed_charactersEii
libfltk.so.1.4:_ZNK14Fl_Text_Buffer4textEv
libfltk.so.1.4:_ZNK14Fl_Text_Buffer7byte_atEi
libfltk.so.1.4:_ZNK14Fl_Text_Buffer7char_atEi
libfltk.so.1.4:_ZNK14Fl_Text_Buffer8can_redoEv
libfltk.so.1.4:_ZNK14Fl_Text_Buffer8can_undoEv
libfltk.so.1.4:_ZNK14Fl_Text_Buffer8line_endEi
libfltk.so.1.4:_ZNK14Fl_Text_Buffer8word_endEi
libfltk.so.1.4:_ZNK14Fl_Text_Buffer9line_textEi
libfltk.so.1.4:_ZNK14Fl_Text_Buffer9next_charEi
libfltk.so.1.4:_ZNK14Fl_Text_Buffer9prev_charEi
libfltk.so.1.4:_ZNK14Fl_Text_Editor18bound_key_functionEiiPNS_11Key_BindingE
libfltk.so.1.4:_ZNK14Fl_Text_Editor7tab_navEv
libfltk.so.1.4:_ZNK14Fl_Tiled_Image4copyEii
libfltk.so.1.4:_ZNK15Fl_File_Browser10item_widthEPv
libfltk.so.1.4:_ZNK15Fl_File_Browser11full_heightEv
libfltk.so.1.4:_ZNK15Fl_File_Browser11item_heightEPv
libfltk.so.1.4:_ZNK15Fl_File_Browser9item_drawEPviiii
libfltk.so.1.4:_ZNK15Fl_File_Chooser1hEv
libfltk.so.1.4:_ZNK15Fl_File_Chooser1wEv
libfltk.so.1.4:_ZNK15Fl_File_Chooser1xEv
libfltk.so.1.4:_ZNK15Fl_File_Chooser1yEv
libfltk.so.1.4:_ZNK15Fl_File_Chooser9user_dataEv
libfltk.so.1.4:_ZNK15Fl_Shared_Image4copyEii
libfltk.so.1.4:_ZNK15Fl_Shared_Image4copyEv
libfltk.so.1.4:_ZNK15Fl_Shared_Image5copy_Eii
libfltk.so.1.4:_ZNK15Fl_Text_Display10clear_rectEiiiii
libfltk.so.1.4:_ZNK15Fl_Text_Display10line_startEi
libfltk.so.1.4:_ZNK15Fl_Text_Display11count_linesEiib
libfltk.so.1.4:_ZNK15Fl_Text_Display11draw_stringEiiiiPKci
libfltk.so.1.4:_ZNK15Fl_Text_Display11wrapped_rowEi
libfltk.so.1.4:_ZNK15Fl_Text_Display12empty_vlinesEv
libfltk.so.1.4:_ZNK15Fl_Text_Display12handle_vlineEiiiiiiiii
libfltk.so.1.4:_ZNK15Fl_Text_Display12in_selectionEii
libfltk.so.1.4:_ZNK15Fl_Text_Display12string_widthEPKcii
libfltk.so.1.4:_ZNK15Fl_Text_Display12vline_lengthEi
libfltk.so.1.4:_ZNK15Fl_Text_Display12xy_to_rowcolEiiPiS0_i
libfltk.so.1.4:_ZNK15Fl_Text_Display13find_line_endEibPiS0_
libfltk.so.1.4:_ZNK15Fl_Text_Display13longest_vlineEv
libfltk.so.1.4:_ZNK15Fl_Text_Display13measure_vlineEi
libfltk.so.1.4:_ZNK15Fl_Text_Display14position_styleEiii
libfltk.so.1.4:_ZNK15Fl_Text_Display14position_to_xyEiPiS0_
libfltk.so.1.4:_ZNK15Fl_Text_Display14wrapped_columnEii
libfltk.so.1.4:_ZNK15Fl_Text_Display14xy_to_positionEiii
libfltk.so.1.4:_ZNK15Fl_Text_Display15linenumber_fontEv
libfltk.so.1.4:_ZNK15Fl_Text_Display15linenumber_sizeEv
libfltk.so.1.4:_ZNK15Fl_Text_Display16linenumber_alignEv
libfltk.so.1.4:_ZNK15Fl_Text_Display16linenumber_widthEv
libfltk.so.1.4:_ZNK15Fl_Text_Display16position_to_lineEiPi
libfltk.so.1.4:_ZNK15Fl_Text_Display17linenumber_formatEv
libfltk.so.1.4:_ZNK15Fl_Text_Display18linenumber_bgcolorEv
libfltk.so.1.4:_ZNK15Fl_Text_Display18linenumber_fgcolorEv
libfltk.so.1.4:_ZNK15Fl_Text_Display19position_to_linecolEiPiS0_
libfltk.so.1.4:_ZNK15Fl_Text_Display19wrap_uses_characterEi
libfltk.so.1.4:_ZNK15Fl_Text_Display20wrapped_line_counterEP14Fl_Text_BufferiiibiPiS2_S2_S2_b
libfltk.so.1.4:_ZNK15Fl_Text_Display28get_absolute_top_line_numberEv
libfltk.so.1.4:_ZNK15Fl_Text_Display30measure_proportional_characterEPKcii
libfltk.so.1.4:_ZNK15Fl_Text_Display36maintaining_absolute_top_line_numberEv
libfltk.so.1.4:_ZNK15Fl_Text_Display6find_xEPKciii
libfltk.so.1.4:_ZNK15Fl_Text_Display8col_to_xEd
libfltk.so.1.4:_ZNK15Fl_Text_Display8line_endEib
libfltk.so.1.4:_ZNK15Fl_Text_Display8x_to_colEd
libfltk.so.1.4:_ZNK16Fl_Check_Browser10item_firstEv
libfltk.so.1.4:_ZNK16Fl_Check_Browser10item_widthEPv
libfltk.so.1.4:_ZNK16Fl_Check_Browser11item_heightEPv
libfltk.so.1.4:_ZNK16Fl_Check_Browser13item_selectedEPv
libfltk.so.1.4:_ZNK16Fl_Check_Browser4textEi
libfltk.so.1.4:_ZNK16Fl_Check_Browser5valueEv
libfltk.so.1.4:_ZNK16Fl_Check_Browser6linenoEPNS_7cb_itemE
libfltk.so.1.4:_ZNK16Fl_Check_Browser7checkedEi
libfltk.so.1.4:_ZNK16Fl_Check_Browser7item_atEi
libfltk.so.1.4:_ZNK16Fl_Check_Browser9find_itemEi
libfltk.so.1.4:_ZNK16Fl_Check_Browser9item_drawEPviiii
libfltk.so.1.4:_ZNK16Fl_Check_Browser9item_nextEPv
libfltk.so.1.4:_ZNK16Fl_Check_Browser9item_prevEPv
libfltk.so.1.4:_ZNK16Fl_Check_Browser9item_textEPv
libfltk.so.1.4:_ZNK17Fl_Text_Selection8includesEi
libfltk.so.1.4:_ZNK17Fl_Text_Selection8selectedEPiS0_
libfltk.so.1.4:_ZNK20Fl_X11_Screen_Driver21text_display_can_leakEv
libfltk.so.1.4:_ZNK20Fl_X11_Window_Driver4iconEv
libfltk.so.1.4:_ZNK22Fl_Native_File_Chooser11preset_fileEv
libfltk.so.1.4:_ZNK22Fl_Native_File_Chooser12filter_valueEv
libfltk.so.1.4:_ZNK22Fl_Native_File_Chooser4typeEv
libfltk.so.1.4:_ZNK22Fl_Native_File_Chooser5countEv
libfltk.so.1.4:_ZNK22Fl_Native_File_Chooser5titleEv
libfltk.so.1.4:_ZNK22Fl_Native_File_Chooser6errmsgEv
libfltk.so.1.4:_ZNK22Fl_Native_File_Chooser6filterEv
libfltk.so.1.4:_ZNK22Fl_Native_File_Chooser7filtersEv
libfltk.so.1.4:_ZNK22Fl_Native_File_Chooser7optionsEv
libfltk.so.1.4:_ZNK22Fl_Native_File_Chooser8filenameEi
libfltk.so.1.4:_ZNK22Fl_Native_File_Chooser8filenameEv
libfltk.so.1.4:_ZNK22Fl_Native_File_Chooser9directoryEv
libfltk.so.1.4:_ZNK33Fl_GTK_Native_File_Chooser_Driver5countEv
libfltk.so.1.4:_ZNK33Fl_GTK_Native_File_Chooser_Driver5titleEv
libfltk.so.1.4:_ZNK33Fl_GTK_Native_File_Chooser_Driver8filenameEi
libfltk.so.1.4:_ZNK33Fl_GTK_Native_File_Chooser_Driver8filenameEv
libfltk.so.1.4:_ZNK34Fl_Native_File_Chooser_FLTK_Driver11preset_fileEv
libfltk.so.1.4:_ZNK34Fl_Native_File_Chooser_FLTK_Driver12filter_valueEv
libfltk.so.1.4:_ZNK34Fl_Native_File_Chooser_FLTK_Driver4typeEv
libfltk.so.1.4:_ZNK34Fl_Native_File_Chooser_FLTK_Driver5countEv
libfltk.so.1.4:_ZNK34Fl_Native_File_Chooser_FLTK_Driver5titleEv
libfltk.so.1.4:_ZNK34Fl_Native_File_Chooser_FLTK_Driver6errmsgEv
libfltk.so.1.4:_ZNK34Fl_Native_File_Chooser_FLTK_Driver6filterEv
libfltk.so.1.4:_ZNK34Fl_Native_File_Chooser_FLTK_Driver7filtersEv
libfltk.so.1.4:_ZNK34Fl_Native_File_Chooser_FLTK_Driver7optionsEv
libfltk.so.1.4:_ZNK34Fl_Native_File_Chooser_FLTK_Driver8filenameEi
libfltk.so.1.4:_ZNK34Fl_Native_File_Chooser_FLTK_Driver8filenameEv
libfltk.so.1.4:_ZNK34Fl_Native_File_Chooser_FLTK_Driver9directoryEv
libfltk.so.1.4:_ZNK37Fl_Kdialog_Native_File_Chooser_Driver11preset_fileEv
libfltk.so.1.4:_ZNK37Fl_Kdialog_Native_File_Chooser_Driver5countEv
libfltk.so.1.4:_ZNK37Fl_Kdialog_Native_File_Chooser_Driver5titleEv
libfltk.so.1.4:_ZNK37Fl_Kdialog_Native_File_Chooser_Driver6filterEv
libfltk.so.1.4:_ZNK37Fl_Kdialog_Native_File_Chooser_Driver7filtersEv
libfltk.so.1.4:_ZNK37Fl_Kdialog_Native_File_Chooser_Driver8filenameEi
libfltk.so.1.4:_ZNK37Fl_Kdialog_Native_File_Chooser_Driver8filenameEv
libfltk.so.1.4:_ZNK37Fl_Kdialog_Native_File_Chooser_Driver9directoryEv
libfltk.so.1.4:_ZNK7Fl_Flex10alloc_sizeEi
libfltk.so.1.4:_ZNK7Fl_Flex5fixedEP9Fl_Widget
libfltk.so.1.4:_ZNK7Fl_Grid10col_weightEi
libfltk.so.1.4:_ZNK7Fl_Grid10row_heightEi
libfltk.so.1.4:_ZNK7Fl_Grid10row_weightEi
libfltk.so.1.4:_ZNK7Fl_Grid18computed_col_widthEi
libfltk.so.1.4:_ZNK7Fl_Grid19computed_row_heightEi
libfltk.so.1.4:_ZNK7Fl_Grid3gapEPiS0_
libfltk.so.1.4:_ZNK7Fl_Grid4cellEP9Fl_Widget
libfltk.so.1.4:_ZNK7Fl_Grid4cellEii
libfltk.so.1.4:_ZNK7Fl_Grid6marginEPiS0_S0_S0_
libfltk.so.1.4:_ZNK7Fl_Grid7col_gapEi
libfltk.so.1.4:_ZNK7Fl_Grid7row_gapEi
libfltk.so.1.4:_ZNK7Fl_Grid9col_widthEi
libfltk.so.1.4:_ZNK7Fl_Tree10marginleftEv
libfltk.so.1.4:_ZNK7Fl_Tree10selectmodeEv
libfltk.so.1.4:_ZNK7Fl_Tree11is_selectedEP12Fl_Tree_Item
libfltk.so.1.4:_ZNK7Fl_Tree11linespacingEv
libfltk.so.1.4:_ZNK7Fl_Tree12find_clickedEi
libfltk.so.1.4:_ZNK7Fl_Tree12marginbottomEv
libfltk.so.1.4:_ZNK7Fl_Tree12showcollapseEv
libfltk.so.1.4:_ZNK7Fl_Tree13item_pathnameEPciPK12Fl_Tree_Item
libfltk.so.1.4:_ZNK7Fl_Tree14connectorcolorEv
libfltk.so.1.4:_ZNK7Fl_Tree14connectorstyleEv
libfltk.so.1.4:_ZNK7Fl_Tree14connectorwidthEv
libfltk.so.1.4:_ZNK7Fl_Tree14get_item_focusEv
libfltk.so.1.4:_ZNK7Fl_Tree14item_draw_modeEv
libfltk.so.1.4:_ZNK7Fl_Tree14item_labelfontEv
libfltk.so.1.4:_ZNK7Fl_Tree14item_labelsizeEv
libfltk.so.1.4:_ZNK7Fl_Tree14scrollbar_sizeEv
libfltk.so.1.4:_ZNK7Fl_Tree15callback_reasonEv
libfltk.so.1.4:_ZNK7Fl_Tree15labelmarginleftEv
libfltk.so.1.4:_ZNK7Fl_Tree16widgetmarginleftEv
libfltk.so.1.4:_ZNK7Fl_Tree17item_labelbgcolorEv
libfltk.so.1.4:_ZNK7Fl_Tree17item_labelfgcolorEv
libfltk.so.1.4:_ZNK7Fl_Tree18is_hscroll_visibleEv
libfltk.so.1.4:_ZNK7Fl_Tree18is_vscroll_visibleEv
libfltk.so.1.4:_ZNK7Fl_Tree18item_reselect_modeEv
libfltk.so.1.4:_ZNK7Fl_Tree18usericonmarginleftEv
libfltk.so.1.4:_ZNK7Fl_Tree22openchild_marginbottomEv
libfltk.so.1.4:_ZNK7Fl_Tree7is_openEP12Fl_Tree_Item
libfltk.so.1.4:_ZNK7Fl_Tree7is_openEPKc
libfltk.so.1.4:_ZNK7Fl_Tree8is_closeEP12Fl_Tree_Item
libfltk.so.1.4:_ZNK7Fl_Tree8is_closeEPKc
libfltk.so.1.4:_ZNK7Fl_Tree8openiconEv
libfltk.so.1.4:_ZNK7Fl_Tree8showrootEv
libfltk.so.1.4:_ZNK7Fl_Tree8usericonEv
libfltk.so.1.4:_ZNK7Fl_Tree9closeiconEv
libfltk.so.1.4:_ZNK7Fl_Tree9find_itemEPKc
libfltk.so.1.4:_ZNK7Fl_Tree9hpositionEv
libfltk.so.1.4:_ZNK7Fl_Tree9margintopEv
libfltk.so.1.4:_ZNK7Fl_Tree9selectboxEv
libfltk.so.1.4:_ZNK7Fl_Tree9sortorderEv
libfltk.so.1.4:_ZNK7Fl_Tree9vpositionEv
libfltk.so.1.4:_ZNK8Fl_Group10draw_childER9Fl_Widget
libfltk.so.1.4:_ZNK8Fl_Group12update_childER9Fl_Widget
libfltk.so.1.4:_ZNK8Fl_Group18draw_outside_labelERK9Fl_Widget
libfltk.so.1.4:_ZNK8Fl_Group4findEPK9Fl_Widget
libfltk.so.1.4:_ZNK8Fl_Group5arrayEv
libfltk.so.1.4:_ZNK8Fl_Image4copyEii
libfltk.so.1.4:_ZNK8Fl_Image4failEv
libfltk.so.1.4:_ZNK8Fl_Label4drawEiiiij
libfltk.so.1.4:_ZNK8Fl_Label7measureERiS0_
libfltk.so.1.4:_ZNK8Fl_Menu_10find_indexEPFvP9Fl_WidgetPvE
libfltk.so.1.4:_ZNK8Fl_Menu_10find_indexEPK12Fl_Menu_Item
libfltk.so.1.4:_ZNK8Fl_Menu_10find_indexEPKc
libfltk.so.1.4:_ZNK8Fl_Menu_13item_pathnameEPciPK12Fl_Menu_Item
libfltk.so.1.4:_ZNK8Fl_Menu_14item_pathname_EPciPK12Fl_Menu_ItemS3_
libfltk.so.1.4:_ZNK8Fl_Menu_4sizeEv
libfltk.so.1.4:_ZNK8Fl_Menu_5valueEv
libfltk.so.1.4:_ZNK9Fl_Bitmap4copyEii
libfltk.so.1.4:_ZNK9Fl_Input_10line_startEi
libfltk.so.1.4:_ZNK9Fl_Input_10word_startEi
libfltk.so.1.4:_ZNK9Fl_Input_5indexEi
libfltk.so.1.4:_ZNK9Fl_Input_6dvalueEv
libfltk.so.1.4:_ZNK9Fl_Input_6expandEPKcPc
libfltk.so.1.4:_ZNK9Fl_Input_6ivalueEv
libfltk.so.1.4:_ZNK9Fl_Input_7setfontEv
libfltk.so.1.4:_ZNK9Fl_Input_8can_redoEv
libfltk.so.1.4:_ZNK9Fl_Input_8can_undoEv
libfltk.so.1.4:_ZNK9Fl_Input_8line_endEi
libfltk.so.1.4:_ZNK9Fl_Input_8word_endEi
libfltk.so.1.4:_ZNK9Fl_Input_9expandposEPKcS1_S1_Pi
libfltk.so.1.4:_ZNK9Fl_Pixmap4copyEii
libfltk.so.1.4:_ZNK9Fl_Scroll17recalc_scrollbarsERNS_10ScrollInfoE
libfltk.so.1.4:_ZNK9Fl_Scroll4bboxERiS0_S0_S0_
libfltk.so.1.4:_ZNK9Fl_String2atEi
libfltk.so.1.4:_ZNK9Fl_String4dataEv
libfltk.so.1.4:_ZNK9Fl_String4findERKS_i
libfltk.so.1.4:_ZNK9Fl_String4sizeEv
libfltk.so.1.4:_ZNK9Fl_String5c_strEv
libfltk.so.1.4:_ZNK9Fl_String5debugEPKc
libfltk.so.1.4:_ZNK9Fl_String5emptyEv
libfltk.so.1.4:_ZNK9Fl_String6strlenEv
libfltk.so.1.4:_ZNK9Fl_String6substrEii
libfltk.so.1.4:_ZNK9Fl_String7hexdumpEPKc
libfltk.so.1.4:_ZNK9Fl_String8capacityEv
libfltk.so.1.4:_ZNK9Fl_StringixEi
libfltk.so.1.4:_ZNK9Fl_Widget10draw_focusE10Fl_Boxtypeiiiij
libfltk.so.1.4:_ZNK9Fl_Widget10draw_labelEiiii
libfltk.so.1.4:_ZNK9Fl_Widget10draw_labelEiiiij
libfltk.so.1.4:_ZNK9Fl_Widget10draw_labelEv
libfltk.so.1.4:_ZNK9Fl_Widget10top_windowEv
libfltk.so.1.4:_ZNK9Fl_Widget13draw_backdropEv
libfltk.so.1.4:_ZNK9Fl_Widget17top_window_offsetERiS0_
libfltk.so.1.4:_ZNK9Fl_Widget6windowEv
libfltk.so.1.4:_ZNK9Fl_Widget8active_rEv
libfltk.so.1.4:_ZNK9Fl_Widget8containsEPKS_
libfltk.so.1.4:_ZNK9Fl_Widget8draw_boxE10Fl_Boxtypeiiiij
libfltk.so.1.4:_ZNK9Fl_Widget8draw_boxE10Fl_Boxtypej
libfltk.so.1.4:_ZNK9Fl_Widget8draw_boxEv
libfltk.so.1.4:_ZNK9Fl_Widget9visible_rEv
libfltk.so.1.4:_ZNK9Fl_Window11decorated_hEv
libfltk.so.1.4:_ZNK9Fl_Window11decorated_wEv
libfltk.so.1.4:_ZNK9Fl_Window4iconEv
libfltk.so.1.4:_ZNK9Fl_Window6x_rootEv
libfltk.so.1.4:_ZNK9Fl_Window6xclassEv
libfltk.so.1.4:_ZNK9Fl_Window6y_rootEv
libfltk.so.1.4:_ZeqRK9Fl_StringS1_
libfltk.so.1.4:_ZneRK9Fl_StringS1_
libfltk.so.1.4:_ZplRK9Fl_StringPKc
libfltk.so.1.4:_ZplRK9Fl_StringS1_
libfltk.so.1.4:fl_NET_WORKAREA
libfltk.so.1.4:fl_XaUtf8String
libfltk.so.1.4:fl_XdndActionCopy
libfltk.so.1.4:fl_XdndAware
libfltk.so.1.4:fl_XdndDrop
libfltk.so.1.4:fl_XdndEnter
libfltk.so.1.4:fl_XdndFinished
libfltk.so.1.4:fl_XdndLeave
libfltk.so.1.4:fl_XdndPosition
libfltk.so.1.4:fl_XdndSelection
libfltk.so.1.4:fl_XdndStatus
libfltk.so.1.4:fl_XdndTypeList
libfltk.so.1.4:fl_XdndURIList
libfltk.so.1.4:fl_access
libfltk.so.1.4:fl_alphasort
libfltk.so.1.4:fl_ascii_strcasecmp
libfltk.so.1.4:fl_bg
libfltk.so.1.4:fl_bg2
libfltk.so.1.4:fl_bluemask
libfltk.so.1.4:fl_blueshift
libfltk.so.1.4:fl_cancel
libfltk.so.1.4:fl_casealphasort
libfltk.so.1.4:fl_casenumericsort
libfltk.so.1.4:fl_chdir
libfltk.so.1.4:fl_chmod
libfltk.so.1.4:fl_close
libfltk.so.1.4:fl_close_fd
libfltk.so.1.4:fl_cmap
libfltk.so.1.4:fl_colormap
libfltk.so.1.4:fl_disable_transient_for
libfltk.so.1.4:fl_display
libfltk.so.1.4:fl_draw_shortcut
libfltk.so.1.4:fl_event_time
libfltk.so.1.4:fl_execvp
libfltk.so.1.4:fl_extrashift
libfltk.so.1.4:fl_fg
libfltk.so.1.4:fl_fonts
libfltk.so.1.4:fl_fopen
libfltk.so.1.4:fl_gc
libfltk.so.1.4:fl_getcwd
libfltk.so.1.4:fl_getenv
libfltk.so.1.4:fl_graphics_driver
libfltk.so.1.4:fl_greenmask
libfltk.so.1.4:fl_greenshift
libfltk.so.1.4:fl_gtk_button_new_with_label
libfltk.so.1.4:fl_i_own_selection
libfltk.so.1.4:fl_key_vector
libfltk.so.1.4:fl_local_alt
libfltk.so.1.4:fl_local_ctrl
libfltk.so.1.4:fl_local_grab
libfltk.so.1.4:fl_local_meta
libfltk.so.1.4:fl_local_shift
libfltk.so.1.4:fl_lock_function
libfltk.so.1.4:fl_make_path
libfltk.so.1.4:fl_make_path_for_file
libfltk.so.1.4:fl_menu_array_owner
libfltk.so.1.4:fl_message_font_
libfltk.so.1.4:fl_message_size_
libfltk.so.1.4:fl_message_window
libfltk.so.1.4:fl_mkdir
libfltk.so.1.4:fl_no
libfltk.so.1.4:fl_nonspacing
libfltk.so.1.4:fl_numericsort
libfltk.so.1.4:fl_ok
libfltk.so.1.4:fl_oldfocus
libfltk.so.1.4:fl_open
libfltk.so.1.4:fl_open_ext
libfltk.so.1.4:fl_putenv
libfltk.so.1.4:fl_redmask
libfltk.so.1.4:fl_redshift
libfltk.so.1.4:fl_rename
libfltk.so.1.4:fl_rmdir
libfltk.so.1.4:fl_screen
libfltk.so.1.4:fl_selection_buffer
libfltk.so.1.4:fl_selection_buffer_length
libfltk.so.1.4:fl_selection_length
libfltk.so.1.4:fl_selection_requestor
libfltk.so.1.4:fl_selection_type
libfltk.so.1.4:fl_snprintf
libfltk.so.1.4:fl_stat
libfltk.so.1.4:fl_strdup
libfltk.so.1.4:fl_strlcat
libfltk.so.1.4:fl_strlcpy
libfltk.so.1.4:fl_sys_menu_bar
libfltk.so.1.4:fl_system
libfltk.so.1.4:fl_tolower
libfltk.so.1.4:fl_toupper
libfltk.so.1.4:fl_ucs_to_Utf16
libfltk.so.1.4:fl_unlink
libfltk.so.1.4:fl_unlock_function
libfltk.so.1.4:fl_utf2mbcs
libfltk.so.1.4:fl_utf8back
libfltk.so.1.4:fl_utf8bytes
libfltk.so.1.4:fl_utf8decode
libfltk.so.1.4:fl_utf8encode
libfltk.so.1.4:fl_utf8from_mb
libfltk.so.1.4:fl_utf8froma
libfltk.so.1.4:fl_utf8fromwc
libfltk.so.1.4:fl_utf8fwd
libfltk.so.1.4:fl_utf8len
libfltk.so.1.4:fl_utf8len1
libfltk.so.1.4:fl_utf8locale
libfltk.so.1.4:fl_utf8strlen
libfltk.so.1.4:fl_utf8test
libfltk.so.1.4:fl_utf8toUtf16
libfltk.so.1.4:fl_utf8to_mb
libfltk.so.1.4:fl_utf8toa
libfltk.so.1.4:fl_utf8towc
libfltk.so.1.4:fl_utf_nb_char
libfltk.so.1.4:fl_utf_strcasecmp
libfltk.so.1.4:fl_utf_strncasecmp
libfltk.so.1.4:fl_utf_tolower
libfltk.so.1.4:fl_utf_toupper
libfltk.so.1.4:fl_visual
libfltk.so.1.4:fl_vsnprintf
libfltk.so.1.4:fl_wcwidth
libfltk.so.1.4:fl_wcwidth_
libfltk.so.1.4:fl_window
libfltk.so.1.4:fl_xevent
libfltk.so.1.4:fl_xfocus
libfltk.so.1.4:fl_xfont
libfltk.so.1.4:fl_xftfont
libfltk.so.1.4:fl_xmap
libfltk.so.1.4:fl_xmousewin
libfltk.so.1.4:fl_yes
libfltk_forms.so.1.4:_Z10fl_gettimePlS_
libfltk_forms.so.1.4:_Z11fl_do_formsv
libfltk_forms.so.1.4:_Z11fl_end_formv
libfltk_forms.so.1.4:_Z12fl_show_formP9Fl_WindowiiPKc
libfltk_forms.so.1.4:_Z13fl_add_buttonhiiiiPKc
libfltk_forms.so.1.4:_Z13fl_initializePiPPcPKcPvi
libfltk_forms.so.1.4:_Z13fl_show_alertPKcS0_S0_i
libfltk_forms.so.1.4:_Z14fl_check_formsv
libfltk_forms.so.1.4:_Z14fl_get_patternv
libfltk_forms.so.1.4:_Z14fl_show_choicePKcS0_S0_iS0_S0_S0_
libfltk_forms.so.1.4:_Z15fl_get_filenamev
libfltk_forms.so.1.4:_Z15fl_show_messagePKcS0_S0_
libfltk_forms.so.1.4:_Z16fl_get_directoryv
libfltk_forms.so.1.4:_Z16fl_show_questionPKcS0_S0_
libfltk_forms.so.1.4:_Z20fl_set_graphics_modeii
libfltk_forms.so.1.4:_Z20fl_show_simple_inputPKcS0_
libfltk_forms.so.1.4:_Z21fl_show_file_selectorPKcS0_S0_S0_
libfltk_forms.so.1.4:_ZN12Fl_FormsText4drawEv
libfltk_forms.so.1.4:_ZN14Fl_FormsBitmap3setEiiPKh
libfltk_forms.so.1.4:_ZN14Fl_FormsBitmap4drawEv
libfltk_forms.so.1.4:_ZN14Fl_FormsBitmapC1E10Fl_BoxtypeiiiiPKc
libfltk_forms.so.1.4:_ZN14Fl_FormsBitmapC2E10Fl_BoxtypeiiiiPKc
libfltk_forms.so.1.4:_ZN14Fl_FormsPixmap3setEPKPc
libfltk_forms.so.1.4:_ZN14Fl_FormsPixmap4drawEv
libfltk_forms.so.1.4:_ZN14Fl_FormsPixmapC1E10Fl_BoxtypeiiiiPKc
libfltk_forms.so.1.4:_ZN14Fl_FormsPixmapC2E10Fl_BoxtypeiiiiPKc
libfltk_forms.so.1.4:_ZN7Fl_Free4drawEv
libfltk_forms.so.1.4:_ZN7Fl_Free4stepEPv
libfltk_forms.so.1.4:_ZN7Fl_Free6handleEi
libfltk_forms.so.1.4:_ZN7Fl_FreeC1EhiiiiPKcPFiP9Fl_WidgetiffcE
libfltk_forms.so.1.4:_ZN7Fl_FreeC2EhiiiiPKcPFiP9Fl_WidgetiffcE
libfltk_forms.so.1.4:_ZN7Fl_FreeD0Ev
libfltk_forms.so.1.4:_ZN7Fl_FreeD1Ev
libfltk_forms.so.1.4:_ZN7Fl_FreeD2Ev
libfltk_forms.so.1.4:_ZN8Fl_Group9forms_endEv
libfltk_forms.so.1.4:_ZN8Fl_Timer4drawEv
libfltk_forms.so.1.4:_ZN8Fl_Timer4stepEv
libfltk_forms.so.1.4:_ZN8Fl_Timer5valueEd
libfltk_forms.so.1.4:_ZN8Fl_Timer6handleEi
libfltk_forms.so.1.4:_ZN8Fl_Timer6stepcbEPv
libfltk_forms.so.1.4:_ZN8Fl_Timer9suspendedEc
libfltk_forms.so.1.4:_ZN8Fl_TimerC1EhiiiiPKc
libfltk_forms.so.1.4:_ZN8Fl_TimerC2EhiiiiPKc
libfltk_forms.so.1.4:_ZN8Fl_TimerD0Ev
libfltk_forms.so.1.4:_ZN8Fl_TimerD1Ev
libfltk_forms.so.1.4:_ZN8Fl_TimerD2Ev
libfltk_forms.so.1.4:fl_flip
libfltk_forms.so.1.4:fl_modal_next
libfltk_gl.so.1.4:_Z10gl_descentv
libfltk_gl.so.1.4:_Z10gl_measurePKcRiS1_
libfltk_gl.so.1.4:_Z12glutIdleFuncPFvvE
libfltk_gl.so.1.4:_Z12glutLayerGetj
libfltk_gl.so.1.4:_Z12glutMainLoopv
libfltk_gl.so.1.4:_Z12glutWireConeddii
libfltk_gl.so.1.4:_Z12glutWireCubed
libfltk_gl.so.1.4:_Z13gl_draw_imagePKhiiiiii
libfltk_gl.so.1.4:_Z13glutDeviceGetj
libfltk_gl.so.1.4:_Z13glutSetWindowi
libfltk_gl.so.1.4:_Z13glutSolidConeddii
libfltk_gl.so.1.4:_Z13glutSolidCubed
libfltk_gl.so.1.4:_Z13glutWireTorusddii
libfltk_gl.so.1.4:_Z14glutAddSubMenuPci
libfltk_gl.so.1.4:_Z14glutCreateMenuPFviE
libfltk_gl.so.1.4:_Z14glutSolidTorusddii
libfltk_gl.so.1.4:_Z14glutWireSpheredii
libfltk_gl.so.1.4:_Z14glutWireTeapotd
libfltk_gl.so.1.4:_Z15glutBitmapWidthPvi
libfltk_gl.so.1.4:_Z15glutDestroyMenui
libfltk_gl.so.1.4:_Z15glutSolidSpheredii
libfltk_gl.so.1.4:_Z15glutSolidTeapotd
libfltk_gl.so.1.4:_Z15glutStrokeWidthPvi
libfltk_gl.so.1.4:_Z15glutSwapBuffersv
libfltk_gl.so.1.4:_Z16fl_x11_glcontextPv
libfltk_gl.so.1.4:_Z16gl_texture_resetv
libfltk_gl.so.1.4:_Z16glutAddMenuEntryPKci
libfltk_gl.so.1.4:_Z16glutBitmapHeightPv
libfltk_gl.so.1.4:_Z16glutBitmapLengthPvPKh
libfltk_gl.so.1.4:_Z16glutBitmapStringPvPKh
libfltk_gl.so.1.4:_Z16glutCreateWindowPKc
libfltk_gl.so.1.4:_Z16glutCreateWindowPc
libfltk_gl.so.1.4:_Z16glutStrokeHeightPv
libfltk_gl.so.1.4:_Z16glutStrokeLengthPvPKh
libfltk_gl.so.1.4:_Z16glutStrokeStringPvPKh
libfltk_gl.so.1.4:_Z16glutWireCylinderddii
libfltk_gl.so.1.4:_Z17glutDestroyWindowi
libfltk_gl.so.1.4:_Z17glutSolidCylinderddii
libfltk_gl.so.1.4:_Z18glutGetProcAddressPKc
libfltk_gl.so.1.4:_Z18glutInitWindowSizeii
libfltk_gl.so.1.4:_Z18glutRemoveMenuItemi
libfltk_gl.so.1.4:_Z18glutWireOctahedronv
libfltk_gl.so.1.4:_Z19glutBitmapCharacterPvi
libfltk_gl.so.1.4:_Z19glutChangeToSubMenuiPci
libfltk_gl.so.1.4:_Z19glutCreateSubWindowiiiii
libfltk_gl.so.1.4:_Z19glutInitDisplayModej
libfltk_gl.so.1.4:_Z19glutSolidOctahedronv
libfltk_gl.so.1.4:_Z19glutStrokeCharacterPvi
libfltk_gl.so.1.4:_Z19glutWireIcosahedronv
libfltk_gl.so.1.4:_Z19glutWireTetrahedronv
libfltk_gl.so.1.4:_Z20glutSolidIcosahedronv
libfltk_gl.so.1.4:_Z20glutSolidTetrahedronv
libfltk_gl.so.1.4:_Z20glutWireDodecahedronv
libfltk_gl.so.1.4:_Z21glutChangeToMenuEntryiPci
libfltk_gl.so.1.4:_Z21glutSolidDodecahedronv
libfltk_gl.so.1.4:_Z22gl_texture_pile_heighti
libfltk_gl.so.1.4:_Z22gl_texture_pile_heightv
libfltk_gl.so.1.4:_Z22glutExtensionSupportedPKc
libfltk_gl.so.1.4:_Z22glutInitWindowPositionii
libfltk_gl.so.1.4:_Z23glutPostWindowRedisplayi
libfltk_gl.so.1.4:_Z24glutWireSierpinskiSpongeiPdd
libfltk_gl.so.1.4:_Z25glutSolidSierpinskiSpongeiPdd
libfltk_gl.so.1.4:_Z27gl_remove_displaylist_fontsv
libfltk_gl.so.1.4:_Z27glutWireRhombicDodecahedronv
libfltk_gl.so.1.4:_Z28glutSolidRhombicDodecahedronv
libfltk_gl.so.1.4:_Z7gl_drawPKc
libfltk_gl.so.1.4:_Z7gl_drawPKcff
libfltk_gl.so.1.4:_Z7gl_drawPKci
libfltk_gl.so.1.4:_Z7gl_drawPKciff
libfltk_gl.so.1.4:_Z7gl_drawPKcii
libfltk_gl.so.1.4:_Z7gl_drawPKciii
libfltk_gl.so.1.4:_Z7gl_drawPKciiiij
libfltk_gl.so.1.4:_Z7gl_fontii
libfltk_gl.so.1.4:_Z7gl_rectiiii
libfltk_gl.so.1.4:_Z7glutGetj
libfltk_gl.so.1.4:_Z8gl_colorj
libfltk_gl.so.1.4:_Z8gl_rectfiiii
libfltk_gl.so.1.4:_Z8gl_startv
libfltk_gl.so.1.4:_Z8gl_widthPKc
libfltk_gl.so.1.4:_Z8gl_widthPKci
libfltk_gl.so.1.4:_Z8gl_widthh
libfltk_gl.so.1.4:_Z8glutInitPiPPc
libfltk_gl.so.1.4:_Z9gl_finishv
libfltk_gl.so.1.4:_Z9gl_heightv
libfltk_gl.so.1.4:_ZN12Fl_Gl_Window10draw_beginEv
libfltk_gl.so.1.4:_ZN12Fl_Gl_Window10invalidateEv
libfltk_gl.so.1.4:_ZN12Fl_Gl_Window12draw_overlayEv
libfltk_gl.so.1.4:_ZN12Fl_Gl_Window12hide_overlayEv
libfltk_gl.so.1.4:_ZN12Fl_Gl_Window12make_currentEv
libfltk_gl.so.1.4:_ZN12Fl_Gl_Window12swap_buffersEv
libfltk_gl.so.1.4:_ZN12Fl_Gl_Window13swap_intervalEi
libfltk_gl.so.1.4:_ZN12Fl_Gl_Window14can_do_overlayEv
libfltk_gl.so.1.4:_ZN12Fl_Gl_Window14redraw_overlayEv
libfltk_gl.so.1.4:_ZN12Fl_Gl_Window15pixels_per_unitEv
libfltk_gl.so.1.4:_ZN12Fl_Gl_Window17gl_plugin_linkageEv
libfltk_gl.so.1.4:_ZN12Fl_Gl_Window20make_overlay_currentEv
libfltk_gl.so.1.4:_ZN12Fl_Gl_Window4drawEv
libfltk_gl.so.1.4:_ZN12Fl_Gl_Window4hideEv
libfltk_gl.so.1.4:_ZN12Fl_Gl_Window4initEv
libfltk_gl.so.1.4:_ZN12Fl_Gl_Window4modeEiPKi
libfltk_gl.so.1.4:_ZN12Fl_Gl_Window4showEv
libfltk_gl.so.1.4:_ZN12Fl_Gl_Window5flushEv
libfltk_gl.so.1.4:_ZN12Fl_Gl_Window5orthoEv
libfltk_gl.so.1.4:_ZN12Fl_Gl_Window6can_doEiPKi
libfltk_gl.so.1.4:_ZN12Fl_Gl_Window6handleEi
libfltk_gl.so.1.4:_ZN12Fl_Gl_Window6resizeEiiii
libfltk_gl.so.1.4:_ZN12Fl_Gl_Window7contextEPvi
libfltk_gl.so.1.4:_ZN12Fl_Gl_Window8draw_endEv
libfltk_gl.so.1.4:_ZN12Fl_Gl_WindowD0Ev
libfltk_gl.so.1.4:_ZN12Fl_Gl_WindowD1Ev
libfltk_gl.so.1.4:_ZN12Fl_Gl_WindowD2Ev
libfltk_gl.so.1.4:_ZN14Fl_Glut_Window12draw_overlayEv
libfltk_gl.so.1.4:_ZN14Fl_Glut_Window12make_currentEv
libfltk_gl.so.1.4:_ZN14Fl_Glut_Window4drawEv
libfltk_gl.so.1.4:_ZN14Fl_Glut_Window5_initEv
libfltk_gl.so.1.4:_ZN14Fl_Glut_Window6handleEi
libfltk_gl.so.1.4:_ZN14Fl_Glut_WindowC1EiiPKc
libfltk_gl.so.1.4:_ZN14Fl_Glut_WindowC1EiiiiPKc
libfltk_gl.so.1.4:_ZN14Fl_Glut_WindowC2EiiPKc
libfltk_gl.so.1.4:_ZN14Fl_Glut_WindowC2EiiiiPKc
libfltk_gl.so.1.4:_ZN14Fl_Glut_WindowD0Ev
libfltk_gl.so.1.4:_ZN14Fl_Glut_WindowD1Ev
libfltk_gl.so.1.4:_ZN14Fl_Glut_WindowD2Ev
libfltk_gl.so.1.4:_ZN15gl_texture_fifo13already_knownEPKci
libfltk_gl.so.1.4:_ZN15gl_texture_fifo15compute_textureEPKci
libfltk_gl.so.1.4:_ZN15gl_texture_fifo15display_textureEi
libfltk_gl.so.1.4:_ZN15gl_texture_fifoC1Ei
libfltk_gl.so.1.4:_ZN15gl_texture_fifoC2Ei
libfltk_gl.so.1.4:_ZN15gl_texture_fifoD1Ev
libfltk_gl.so.1.4:_ZN15gl_texture_fifoD2Ev
libfltk_gl.so.1.4:_ZN19Fl_Gl_Window_Driver10find_beginEiPKi
libfltk_gl.so.1.4:_ZN19Fl_Gl_Window_Driver10invalidateEv
libfltk_gl.so.1.4:_ZN19Fl_Gl_Window_Driver11add_contextEPv
libfltk_gl.so.1.4:_ZN19Fl_Gl_Window_Driver11del_contextEPv
libfltk_gl.so.1.4:_ZN19Fl_Gl_Window_Driver11switch_backEv
libfltk_gl.so.1.4:_ZN19Fl_Gl_Window_Driver12context_listE
libfltk_gl.so.1.4:_ZN19Fl_Gl_Window_Driver12make_overlayERPv
libfltk_gl.so.1.4:_ZN19Fl_Gl_Window_Driver13cached_windowE
libfltk_gl.so.1.4:_ZN19Fl_Gl_Window_Driver13switch_to_GL1Ev
libfltk_gl.so.1.4:_ZN19Fl_Gl_Window_Driver14GetProcAddressEPKc
libfltk_gl.so.1.4:_ZN19Fl_Gl_Window_Driver16gl_start_contextE
libfltk_gl.so.1.4:_ZN19Fl_Gl_Window_Driver17newGlWindowDriverEP12Fl_Gl_Window
libfltk_gl.so.1.4:_ZN19Fl_Gl_Window_Driver18draw_string_legacyEPKci
libfltk_gl.so.1.4:_ZN19Fl_Gl_Window_Driver20capture_gl_rectangleEiiii
libfltk_gl.so.1.4:_ZN19Fl_Gl_Window_Driver21alpha_mask_for_stringEPKciiii
libfltk_gl.so.1.4:_ZN19Fl_Gl_Window_Driver23draw_string_legacy_glutEPKci
libfltk_gl.so.1.4:_ZN19Fl_Gl_Window_Driver24draw_string_with_textureEPKci
libfltk_gl.so.1.4:_ZN19Fl_Gl_Window_Driver25fontnum_to_fontdescriptorEi
libfltk_gl.so.1.4:_ZN19Fl_Gl_Window_Driver27draw_string_legacy_get_listEPKci
libfltk_gl.so.1.4:_ZN19Fl_Gl_Window_Driver4copyE
libfltk_gl.so.1.4:_ZN19Fl_Gl_Window_Driver5firstE
libfltk_gl.so.1.4:_ZN19Fl_Gl_Window_Driver6globalEv
libfltk_gl.so.1.4:_ZN19Fl_Gl_Window_Driver8gl_scaleE
libfltk_gl.so.1.4:_ZN19Fl_Gl_Window_Driver8nContextE
libfltk_gl.so.1.4:_ZN19Fl_Gl_Window_Driver9gl_visualEP12Fl_Gl_Choice
libfltk_gl.so.1.4:_ZN19Fl_Gl_Window_Driver9swap_typeEv
libfltk_gl.so.1.4:_ZN23Fl_X11_Gl_Window_Driver11before_showERi
libfltk_gl.so.1.4:_ZN23Fl_X11_Gl_Window_Driver11genlistsizeEv
libfltk_gl.so.1.4:_ZN23Fl_X11_Gl_Window_Driver12swap_buffersEv
libfltk_gl.so.1.4:_ZN23Fl_X11_Gl_Window_Driver13swap_intervalEi
libfltk_gl.so.1.4:_ZN23Fl_X11_Gl_Window_Driver14gl_bitmap_fontEP18Fl_Font_Descriptor
libfltk_gl.so.1.4:_ZN23Fl_X11_Gl_Window_Driver14redraw_overlayEv
libfltk_gl.so.1.4:_ZN23Fl_X11_Gl_Window_Driver14set_gl_contextEP9Fl_WindowPv
libfltk_gl.so.1.4:_ZN23Fl_X11_Gl_Window_Driver15pixels_per_unitEv
libfltk_gl.so.1.4:_ZN23Fl_X11_Gl_Window_Driver17create_gl_contextEP9Fl_WindowPK12Fl_Gl_Choice
libfltk_gl.so.1.4:_ZN23Fl_X11_Gl_Window_Driver17delete_gl_contextEPv
libfltk_gl.so.1.4:_ZN23Fl_X11_Gl_Window_Driver18draw_string_legacyEPKci
libfltk_gl.so.1.4:_ZN23Fl_X11_Gl_Window_Driver20make_overlay_currentEv
libfltk_gl.so.1.4:_ZN23Fl_X11_Gl_Window_Driver4findEiPKi
libfltk_gl.so.1.4:_ZN23Fl_X11_Gl_Window_Driver5mode_EiPKi
libfltk_gl.so.1.4:_ZN23Fl_X11_Gl_Window_Driver6waitGLEv
libfltk_gl.so.1.4:_ZN23Fl_X11_Gl_Window_Driver8get_listEP18Fl_Font_Descriptori
libfltk_gl.so.1.4:_ZN23Fl_X11_Gl_Window_Driver8gl_startEv
libfltk_gl.so.1.4:_ZN23Fl_X11_Gl_Window_Driver9gl_visualEP12Fl_Gl_Choice
libfltk_gl.so.1.4:_ZN23Fl_X11_Gl_Window_Driver9swap_typeEv
libfltk_gl.so.1.4:_ZN24Fl_OpenGL_Display_Device14display_deviceEv
libfltk_gl.so.1.4:_ZN24Fl_OpenGL_Display_DeviceC1EP25Fl_OpenGL_Graphics_Driver
libfltk_gl.so.1.4:_ZN24Fl_OpenGL_Display_DeviceC2EP25Fl_OpenGL_Graphics_Driver
libfltk_gl.so.1.4:_ZN25Fl_OpenGL_Graphics_Driver10begin_lineEv
libfltk_gl.so.1.4:_ZN25Fl_OpenGL_Graphics_Driver10begin_loopEv
libfltk_gl.so.1.4:_ZN25Fl_OpenGL_Graphics_Driver10end_pointsEv
libfltk_gl.so.1.4:_ZN25Fl_OpenGL_Graphics_Driver10focus_rectEiiii
libfltk_gl.so.1.4:_ZN25Fl_OpenGL_Graphics_Driver10line_styleEiiPc
libfltk_gl.so.1.4:_ZN25Fl_OpenGL_Graphics_Driver11clip_regionEPv
libfltk_gl.so.1.4:_ZN25Fl_OpenGL_Graphics_Driver11clip_regionEv
libfltk_gl.so.1.4:_ZN25Fl_OpenGL_Graphics_Driver11end_polygonEv
libfltk_gl.so.1.4:_ZN25Fl_OpenGL_Graphics_Driver11not_clippedEiiii
libfltk_gl.so.1.4:_ZN25Fl_OpenGL_Graphics_Driver12begin_pointsEv
libfltk_gl.so.1.4:_ZN25Fl_OpenGL_Graphics_Driver12push_no_clipEv
libfltk_gl.so.1.4:_ZN25Fl_OpenGL_Graphics_Driver12restore_clipEv
libfltk_gl.so.1.4:_ZN25Fl_OpenGL_Graphics_Driver12text_extentsEPKciRiS2_S2_S2_
libfltk_gl.so.1.4:_ZN25Fl_OpenGL_Graphics_Driver13begin_polygonEv
libfltk_gl.so.1.4:_ZN25Fl_OpenGL_Graphics_Driver18transformed_vertexEdd
libfltk_gl.so.1.4:_ZN25Fl_OpenGL_Graphics_Driver19end_complex_polygonEv
libfltk_gl.so.1.4:_ZN25Fl_OpenGL_Graphics_Driver21begin_complex_polygonEv
libfltk_gl.so.1.4:_ZN25Fl_OpenGL_Graphics_Driver3arcEddddd
libfltk_gl.so.1.4:_ZN25Fl_OpenGL_Graphics_Driver3arcEiiiidd
libfltk_gl.so.1.4:_ZN25Fl_OpenGL_Graphics_Driver3gapEv
libfltk_gl.so.1.4:_ZN25Fl_OpenGL_Graphics_Driver3pieEiiiidd
libfltk_gl.so.1.4:_ZN25Fl_OpenGL_Graphics_Driver4drawEPKciff
libfltk_gl.so.1.4:_ZN25Fl_OpenGL_Graphics_Driver4drawEPKciii
libfltk_gl.so.1.4:_ZN25Fl_OpenGL_Graphics_Driver4drawEiPKciii
libfltk_gl.so.1.4:_ZN25Fl_OpenGL_Graphics_Driver4fontEii
libfltk_gl.so.1.4:_ZN25Fl_OpenGL_Graphics_Driver4fontEv
libfltk_gl.so.1.4:_ZN25Fl_OpenGL_Graphics_Driver4lineEiiii
libfltk_gl.so.1.4:_ZN25Fl_OpenGL_Graphics_Driver4lineEiiiiii
libfltk_gl.so.1.4:_ZN25Fl_OpenGL_Graphics_Driver4loopEiiiiii
libfltk_gl.so.1.4:_ZN25Fl_OpenGL_Graphics_Driver4loopEiiiiiiii
libfltk_gl.so.1.4:_ZN25Fl_OpenGL_Graphics_Driver4rectEiiii
libfltk_gl.so.1.4:_ZN25Fl_OpenGL_Graphics_Driver5colorEhhh
libfltk_gl.so.1.4:_ZN25Fl_OpenGL_Graphics_Driver5colorEj
libfltk_gl.so.1.4:_ZN25Fl_OpenGL_Graphics_Driver5pointEii
libfltk_gl.so.1.4:_ZN25Fl_OpenGL_Graphics_Driver5rectfEiiii
libfltk_gl.so.1.4:_ZN25Fl_OpenGL_Graphics_Driver5widthEPKci
libfltk_gl.so.1.4:_ZN25Fl_OpenGL_Graphics_Driver5widthEj
libfltk_gl.so.1.4:_ZN25Fl_OpenGL_Graphics_Driver6circleEddd
libfltk_gl.so.1.4:_ZN25Fl_OpenGL_Graphics_Driver6heightEv
libfltk_gl.so.1.4:_ZN25Fl_OpenGL_Graphics_Driver6xylineEiii
libfltk_gl.so.1.4:_ZN25Fl_OpenGL_Graphics_Driver6xylineEiiii
libfltk_gl.so.1.4:_ZN25Fl_OpenGL_Graphics_Driver6xylineEiiiii
libfltk_gl.so.1.4:_ZN25Fl_OpenGL_Graphics_Driver6yxlineEiii
libfltk_gl.so.1.4:_ZN25Fl_OpenGL_Graphics_Driver6yxlineEiiii
libfltk_gl.so.1.4:_ZN25Fl_OpenGL_Graphics_Driver6yxlineEiiiii
libfltk_gl.so.1.4:_ZN25Fl_OpenGL_Graphics_Driver7descentEv
libfltk_gl.so.1.4:_ZN25Fl_OpenGL_Graphics_Driver7fixloopEv
libfltk_gl.so.1.4:_ZN25Fl_OpenGL_Graphics_Driver7polygonEiiiiii
libfltk_gl.so.1.4:_ZN25Fl_OpenGL_Graphics_Driver7polygonEiiiiiiii
libfltk_gl.so.1.4:_ZN25Fl_OpenGL_Graphics_Driver8clip_boxEiiiiRiS0_S0_S0_
libfltk_gl.so.1.4:_ZN25Fl_OpenGL_Graphics_Driver8end_lineEv
libfltk_gl.so.1.4:_ZN25Fl_OpenGL_Graphics_Driver8end_loopEv
libfltk_gl.so.1.4:_ZN25Fl_OpenGL_Graphics_Driver8pop_clipEv
libfltk_gl.so.1.4:_ZN25Fl_OpenGL_Graphics_Driver9push_clipEiiii
libfltk_gl.so.1.4:_ZN2Fl9gl_visualEiPi
libfltk_gl.so.1.4:_ZNK12Fl_Gl_Window13swap_intervalEv
libfltk_gl.so.1.4:_ZNK23Fl_X11_Gl_Window_Driver13swap_intervalEv
libfltk_gl.so.1.4:fl_gl_load_plugin
libfltk_gl.so.1.4:gl_start_scale
libfltk_gl.so.1.4:glutBitmap8By13
libfltk_gl.so.1.4:glutBitmap9By15
libfltk_gl.so.1.4:glutBitmapHelvetica10
libfltk_gl.so.1.4:glutBitmapHelvetica12
libfltk_gl.so.1.4:glutBitmapHelvetica18
libfltk_gl.so.1.4:glutBitmapTimesRoman10
libfltk_gl.so.1.4:glutBitmapTimesRoman24
libfltk_gl.so.1.4:glutStrokeMonoRoman
libfltk_gl.so.1.4:glutStrokeRoman
libfltk_gl.so.1.4:glut_menu
libfltk_gl.so.1.4:glut_menustate_function
libfltk_gl.so.1.4:glut_menustatus_function
libfltk_gl.so.1.4:glut_window
libfltk_gl.so.1.4:icos_r
libfltk_gl.so.1.4:icos_v
libfltk_gl.so.1.4:rdod_n
libfltk_gl.so.1.4:rdod_r
libfltk_gl.so.1.4:rdod_v
libfltk_images.so.1.4:_Z12fl_write_pngPKcP12Fl_RGB_Image
libfltk_images.so.1.4:_Z12fl_write_pngPKcPKhiiii
libfltk_images.so.1.4:_Z12fl_write_pngPKcS0_iiii
libfltk_images.so.1.4:_Z14nsvg__parseXMLPcPFvPvPKcPS2_EPFvS0_S2_ES7_S0_
libfltk_images.so.1.4:_Z18fl_register_imagesv
libfltk_images.so.1.4:_ZN12Fl_BMP_Image9load_bmp_ER15Fl_Image_Readerii
libfltk_images.so.1.4:_ZN12Fl_BMP_ImageC1EPKc
libfltk_images.so.1.4:_ZN12Fl_BMP_ImageC1EPKcPKhl
libfltk_images.so.1.4:_ZN12Fl_BMP_ImageC2EPKc
libfltk_images.so.1.4:_ZN12Fl_BMP_ImageC2EPKcPKhl
libfltk_images.so.1.4:_ZN12Fl_File_Icon10load_imageEPKc
libfltk_images.so.1.4:_ZN12Fl_File_Icon17load_system_iconsEv
libfltk_images.so.1.4:_ZN12Fl_File_Icon4loadEPKc
libfltk_images.so.1.4:_ZN12Fl_File_Icon8load_ftiEPKc
libfltk_images.so.1.4:_ZN12Fl_GIF_Image10lzw_decodeER15Fl_Image_ReaderPhiiiii
libfltk_images.so.1.4:_ZN12Fl_GIF_Image11is_animatedEPKc
libfltk_images.so.1.4:_ZN12Fl_GIF_Image4loadEPKcPKhmb
libfltk_images.so.1.4:_ZN12Fl_GIF_Image4loadEPKcb
libfltk_images.so.1.4:_ZN12Fl_GIF_Image7animateE
libfltk_images.so.1.4:_ZN12Fl_GIF_Image9load_gif_ER15Fl_Image_Readerb
libfltk_images.so.1.4:_ZN12Fl_GIF_ImageC1EPKc
libfltk_images.so.1.4:_ZN12Fl_GIF_ImageC1EPKcPKh
libfltk_images.so.1.4:_ZN12Fl_GIF_ImageC1EPKcPKhm
libfltk_images.so.1.4:_ZN12Fl_GIF_ImageC1EPKcPKhmb
libfltk_images.so.1.4:_ZN12Fl_GIF_ImageC1EPKcb
libfltk_images.so.1.4:_ZN12Fl_GIF_ImageC1Ev
libfltk_images.so.1.4:_ZN12Fl_GIF_ImageC2EPKc
libfltk_images.so.1.4:_ZN12Fl_GIF_ImageC2EPKcPKh
libfltk_images.so.1.4:_ZN12Fl_GIF_ImageC2EPKcPKhm
libfltk_images.so.1.4:_ZN12Fl_GIF_ImageC2EPKcPKhmb
libfltk_images.so.1.4:_ZN12Fl_GIF_ImageC2EPKcb
libfltk_images.so.1.4:_ZN12Fl_GIF_ImageC2Ev
libfltk_images.so.1.4:_ZN12Fl_ICO_Image9load_ico_ER15Fl_Image_Readeri
libfltk_images.so.1.4:_ZN12Fl_ICO_ImageC1EPKciPKhm
libfltk_images.so.1.4:_ZN12Fl_ICO_ImageC2EPKciPKhm
libfltk_images.so.1.4:_ZN12Fl_ICO_ImageD0Ev
libfltk_images.so.1.4:_ZN12Fl_ICO_ImageD1Ev
libfltk_images.so.1.4:_ZN12Fl_ICO_ImageD2Ev
libfltk_images.so.1.4:_ZN12Fl_PNG_Image9load_png_EPKciPKhi
libfltk_images.so.1.4:_ZN12Fl_PNG_ImageC1EPKc
libfltk_images.so.1.4:_ZN12Fl_PNG_ImageC1EPKcPKhi
libfltk_images.so.1.4:_ZN12Fl_PNG_ImageC1EPKci
libfltk_images.so.1.4:_ZN12Fl_PNG_ImageC2EPKc
libfltk_images.so.1.4:_ZN12Fl_PNG_ImageC2EPKcPKhi
libfltk_images.so.1.4:_ZN12Fl_PNG_ImageC2EPKci
libfltk_images.so.1.4:_ZN12Fl_PNM_ImageC1EPKc
libfltk_images.so.1.4:_ZN12Fl_PNM_ImageC2EPKc
libfltk_images.so.1.4:_ZN12Fl_SVG_Image10desaturateEv
libfltk_images.so.1.4:_ZN12Fl_SVG_Image10rasterize_Eii
libfltk_images.so.1.4:_ZN12Fl_SVG_Image11cache_size_ERiS0_
libfltk_images.so.1.4:_ZN12Fl_SVG_Image12svg_scaling_Eii
libfltk_images.so.1.4:_ZN12Fl_SVG_Image13color_averageEjf
libfltk_images.so.1.4:_ZN12Fl_SVG_Image4drawEiiiiii
libfltk_images.so.1.4:_ZN12Fl_SVG_Image5init_EPKcPKhm
libfltk_images.so.1.4:_ZN12Fl_SVG_Image6resizeEii
libfltk_images.so.1.4:_ZN12Fl_SVG_Image9normalizeEv
libfltk_images.so.1.4:_ZN12Fl_SVG_ImageC1EPKS_
libfltk_images.so.1.4:_ZN12Fl_SVG_ImageC1EPKc
libfltk_images.so.1.4:_ZN12Fl_SVG_ImageC1EPKcPKhm
libfltk_images.so.1.4:_ZN12Fl_SVG_ImageC1EPKcS1_
libfltk_images.so.1.4:_ZN12Fl_SVG_ImageC2EPKS_
libfltk_images.so.1.4:_ZN12Fl_SVG_ImageC2EPKc
libfltk_images.so.1.4:_ZN12Fl_SVG_ImageC2EPKcPKhm
libfltk_images.so.1.4:_ZN12Fl_SVG_ImageC2EPKcS1_
libfltk_images.so.1.4:_ZN12Fl_SVG_ImageD0Ev
libfltk_images.so.1.4:_ZN12Fl_SVG_ImageD1Ev
libfltk_images.so.1.4:_ZN12Fl_SVG_ImageD2Ev
libfltk_images.so.1.4:_ZN13Fl_JPEG_Image9load_jpg_EPKcS1_PKhi
libfltk_images.so.1.4:_ZN13Fl_JPEG_ImageC1EPKc
libfltk_images.so.1.4:_ZN13Fl_JPEG_ImageC1EPKcPKhi
libfltk_images.so.1.4:_ZN13Fl_JPEG_ImageC2EPKc
libfltk_images.so.1.4:_ZN13Fl_JPEG_ImageC2EPKcPKhi
libfltk_images.so.1.4:_ZN14Fl_Help_Dialog10cb_larger_EP9Fl_ButtonPv
libfltk_images.so.1.4:_ZN14Fl_Help_Dialog11cb_forward_EP9Fl_ButtonPv
libfltk_images.so.1.4:_ZN14Fl_Help_Dialog11cb_smaller_EP9Fl_ButtonPv
libfltk_images.so.1.4:_ZN14Fl_Help_Dialog1hEv
libfltk_images.so.1.4:_ZN14Fl_Help_Dialog1wEv
libfltk_images.so.1.4:_ZN14Fl_Help_Dialog1xEv
libfltk_images.so.1.4:_ZN14Fl_Help_Dialog1yEv
libfltk_images.so.1.4:_ZN14Fl_Help_Dialog4hideEv
libfltk_images.so.1.4:_ZN14Fl_Help_Dialog4loadEPKc
libfltk_images.so.1.4:_ZN14Fl_Help_Dialog4showEiPPc
libfltk_images.so.1.4:_ZN14Fl_Help_Dialog4showEv
libfltk_images.so.1.4:_ZN14Fl_Help_Dialog5valueEPKc
libfltk_images.so.1.4:_ZN14Fl_Help_Dialog6resizeEiiii
libfltk_images.so.1.4:_ZN14Fl_Help_Dialog7toplineEPKc
libfltk_images.so.1.4:_ZN14Fl_Help_Dialog7toplineEi
libfltk_images.so.1.4:_ZN14Fl_Help_Dialog7visibleEv
libfltk_images.so.1.4:_ZN14Fl_Help_Dialog8cb_back_EP9Fl_ButtonPv
libfltk_images.so.1.4:_ZN14Fl_Help_Dialog8cb_find_EP8Fl_InputPv
libfltk_images.so.1.4:_ZN14Fl_Help_Dialog8cb_view_EP12Fl_Help_ViewPv
libfltk_images.so.1.4:_ZN14Fl_Help_Dialog8positionEii
libfltk_images.so.1.4:_ZN14Fl_Help_Dialog8textsizeEi
libfltk_images.so.1.4:_ZN14Fl_Help_Dialog8textsizeEv
libfltk_images.so.1.4:_ZN14Fl_Help_DialogC1Ev
libfltk_images.so.1.4:_ZN14Fl_Help_DialogC2Ev
libfltk_images.so.1.4:_ZN14Fl_Help_DialogD1Ev
libfltk_images.so.1.4:_ZN14Fl_Help_DialogD2Ev
libfltk_images.so.1.4:_ZN15Fl_Image_Reader10read_dwordEv
libfltk_images.so.1.4:_ZN15Fl_Image_Reader4openEPKc
libfltk_images.so.1.4:_ZN15Fl_Image_Reader4openEPKcPKh
libfltk_images.so.1.4:_ZN15Fl_Image_Reader4openEPKcPKhm
libfltk_images.so.1.4:_ZN15Fl_Image_Reader4seekEj
libfltk_images.so.1.4:_ZN15Fl_Image_Reader9read_byteEv
libfltk_images.so.1.4:_ZN15Fl_Image_Reader9read_wordEv
libfltk_images.so.1.4:_ZN15Fl_Image_ReaderD1Ev
libfltk_images.so.1.4:_ZN15Fl_Image_ReaderD2Ev
libfltk_images.so.1.4:_ZN17Fl_Anim_GIF_Image10cb_animateEPv
libfltk_images.so.1.4:_ZN17Fl_Anim_GIF_Image10desaturateEv
libfltk_images.so.1.4:_ZN17Fl_Anim_GIF_Image10next_frameEv
libfltk_images.so.1.4:_ZN17Fl_Anim_GIF_Image11frame_countEPKcPKhm
libfltk_images.so.1.4:_ZN17Fl_Anim_GIF_Image11scale_frameEv
libfltk_images.so.1.4:_ZN17Fl_Anim_GIF_Image12clear_framesEv
libfltk_images.so.1.4:_ZN17Fl_Anim_GIF_Image13color_averageEjf
libfltk_images.so.1.4:_ZN17Fl_Anim_GIF_Image13frame_uncacheEb
libfltk_images.so.1.4:_ZN17Fl_Anim_GIF_Image13on_frame_dataERN12Fl_GIF_Image9GIF_FRAMEE
libfltk_images.so.1.4:_ZN17Fl_Anim_GIF_Image17on_extension_dataERN12Fl_GIF_Image9GIF_FRAMEE
libfltk_images.so.1.4:_ZN17Fl_Anim_GIF_Image4drawEiiiiii
libfltk_images.so.1.4:_ZN17Fl_Anim_GIF_Image4loadEPKcPKhm
libfltk_images.so.1.4:_ZN17Fl_Anim_GIF_Image4loopE
libfltk_images.so.1.4:_ZN17Fl_Anim_GIF_Image4nextEv
libfltk_images.so.1.4:_ZN17Fl_Anim_GIF_Image4stopEv
libfltk_images.so.1.4:_ZN17Fl_Anim_GIF_Image5delayEid
libfltk_images.so.1.4:_ZN17Fl_Anim_GIF_Image5frameEi
libfltk_images.so.1.4:_ZN17Fl_Anim_GIF_Image5speedEd
libfltk_images.so.1.4:_ZN17Fl_Anim_GIF_Image5startEv
libfltk_images.so.1.4:_ZN17Fl_Anim_GIF_Image6canvasEP9Fl_Widgett
libfltk_images.so.1.4:_ZN17Fl_Anim_GIF_Image6resizeEd
libfltk_images.so.1.4:_ZN17Fl_Anim_GIF_Image6resizeEii
libfltk_images.so.1.4:_ZN17Fl_Anim_GIF_Image7uncacheEv
libfltk_images.so.1.4:_ZN17Fl_Anim_GIF_Image9FrameInfo11scale_frameEi
libfltk_images.so.1.4:_ZN17Fl_Anim_GIF_Image9FrameInfo13on_frame_dataERN12Fl_GIF_Image9GIF_FRAMEE
libfltk_images.so.1.4:_ZN17Fl_Anim_GIF_Image9FrameInfo15push_back_frameERKNS0_8GifFrameE
libfltk_images.so.1.4:_ZN17Fl_Anim_GIF_Image9FrameInfo17on_extension_dataERN12Fl_GIF_Image9GIF_FRAMEE
libfltk_images.so.1.4:_ZN17Fl_Anim_GIF_Image9FrameInfo17set_to_backgroundEi
libfltk_images.so.1.4:_ZN17Fl_Anim_GIF_Image9FrameInfo4copyERKS0_
libfltk_images.so.1.4:_ZN17Fl_Anim_GIF_Image9FrameInfo4loadEPKcPKhm
libfltk_images.so.1.4:_ZN17Fl_Anim_GIF_Image9FrameInfo5clearEv
libfltk_images.so.1.4:_ZN17Fl_Anim_GIF_Image9FrameInfo6resizeEii
libfltk_images.so.1.4:_ZN17Fl_Anim_GIF_Image9FrameInfo7disposeEi
libfltk_images.so.1.4:_ZN17Fl_Anim_GIF_Image9FrameInfo9set_frameEi
libfltk_images.so.1.4:_ZN17Fl_Anim_GIF_Image9FrameInfoD1Ev
libfltk_images.so.1.4:_ZN17Fl_Anim_GIF_Image9FrameInfoD2Ev
libfltk_images.so.1.4:_ZN17Fl_Anim_GIF_Image9min_delayE
libfltk_images.so.1.4:_ZN17Fl_Anim_GIF_Image9set_frameEi
libfltk_images.so.1.4:_ZN17Fl_Anim_GIF_Image9set_frameEv
libfltk_images.so.1.4:_ZN17Fl_Anim_GIF_ImageC1EPKcP9Fl_Widgett
libfltk_images.so.1.4:_ZN17Fl_Anim_GIF_ImageC1EPKcPKhmP9Fl_Widgett
libfltk_images.so.1.4:_ZN17Fl_Anim_GIF_ImageC1Ev
libfltk_images.so.1.4:_ZN17Fl_Anim_GIF_ImageC2EPKcP9Fl_Widgett
libfltk_images.so.1.4:_ZN17Fl_Anim_GIF_ImageC2EPKcPKhmP9Fl_Widgett
libfltk_images.so.1.4:_ZN17Fl_Anim_GIF_ImageC2Ev
libfltk_images.so.1.4:_ZN17Fl_Anim_GIF_ImageD0Ev
libfltk_images.so.1.4:_ZN17Fl_Anim_GIF_ImageD1Ev
libfltk_images.so.1.4:_ZN17Fl_Anim_GIF_ImageD2Ev
libfltk_images.so.1.4:_ZN19Fl_SVG_File_Surface11untranslateEv
libfltk_images.so.1.4:_ZN19Fl_SVG_File_Surface14printable_rectEPiS0_
libfltk_images.so.1.4:_ZN19Fl_SVG_File_Surface4fileEv
libfltk_images.so.1.4:_ZN19Fl_SVG_File_Surface5closeEv
libfltk_images.so.1.4:_ZN19Fl_SVG_File_Surface6originEPiS0_
libfltk_images.so.1.4:_ZN19Fl_SVG_File_Surface6originEii
libfltk_images.so.1.4:_ZN19Fl_SVG_File_Surface9translateEii
libfltk_images.so.1.4:_ZN19Fl_SVG_File_SurfaceC1EiiP8_IO_FILEPFiS1_E
libfltk_images.so.1.4:_ZN19Fl_SVG_File_SurfaceC2EiiP8_IO_FILEPFiS1_E
libfltk_images.so.1.4:_ZN19Fl_SVG_File_SurfaceD0Ev
libfltk_images.so.1.4:_ZN19Fl_SVG_File_SurfaceD1Ev
libfltk_images.so.1.4:_ZN19Fl_SVG_File_SurfaceD2Ev
libfltk_images.so.1.4:_ZN22Fl_SVG_Graphics_Driver10draw_imageEPFvPviiiPhES0_iiiii
libfltk_images.so.1.4:_ZN22Fl_SVG_Graphics_Driver10draw_imageEPKhiiiiii
libfltk_images.so.1.4:_ZN22Fl_SVG_Graphics_Driver10end_pointsEv
libfltk_images.so.1.4:_ZN22Fl_SVG_Graphics_Driver10line_styleEiiPc
libfltk_images.so.1.4:_ZN22Fl_SVG_Graphics_Driver11draw_bitmapEP9Fl_Bitmapiiiiii
libfltk_images.so.1.4:_ZN22Fl_SVG_Graphics_Driver11draw_pixmapEP9Fl_Pixmapiiiiii
libfltk_images.so.1.4:_ZN22Fl_SVG_Graphics_Driver11end_polygonEv
libfltk_images.so.1.4:_ZN22Fl_SVG_Graphics_Driver11not_clippedEiiii
libfltk_images.so.1.4:_ZN22Fl_SVG_Graphics_Driver12push_no_clipEv
libfltk_images.so.1.4:_ZN22Fl_SVG_Graphics_Driver12text_extentsEPKciRiS2_S2_S2_
libfltk_images.so.1.4:_ZN22Fl_SVG_Graphics_Driver14clocale_printfEPKcz
libfltk_images.so.1.4:_ZN22Fl_SVG_Graphics_Driver14define_rgb_pngEP12Fl_RGB_ImagePKcii
libfltk_images.so.1.4:_ZN22Fl_SVG_Graphics_Driver15define_rgb_jpegEP12Fl_RGB_ImagePKcii
libfltk_images.so.1.4:_ZN22Fl_SVG_Graphics_Driver15draw_image_monoEPFvPviiiPhES0_iiiii
libfltk_images.so.1.4:_ZN22Fl_SVG_Graphics_Driver15draw_image_monoEPKhiiiiii
libfltk_images.so.1.4:_ZN22Fl_SVG_Graphics_Driver17compute_dasharrayEfPc
libfltk_images.so.1.4:_ZN22Fl_SVG_Graphics_Driver19end_complex_polygonEv
libfltk_images.so.1.4:_ZN22Fl_SVG_Graphics_Driver3arcEddddd
libfltk_images.so.1.4:_ZN22Fl_SVG_Graphics_Driver3arcEiiiidd
libfltk_images.so.1.4:_ZN22Fl_SVG_Graphics_Driver3pieEiiiidd
libfltk_images.so.1.4:_ZN22Fl_SVG_Graphics_Driver4drawEPKciff
libfltk_images.so.1.4:_ZN22Fl_SVG_Graphics_Driver4drawEPKciii
libfltk_images.so.1.4:_ZN22Fl_SVG_Graphics_Driver4drawEiPKciii
libfltk_images.so.1.4:_ZN22Fl_SVG_Graphics_Driver4fontEii
libfltk_images.so.1.4:_ZN22Fl_SVG_Graphics_Driver4fontEv
libfltk_images.so.1.4:_ZN22Fl_SVG_Graphics_Driver4lineEiiii
libfltk_images.so.1.4:_ZN22Fl_SVG_Graphics_Driver4lineEiiiiii
libfltk_images.so.1.4:_ZN22Fl_SVG_Graphics_Driver4loopEiiiiii
libfltk_images.so.1.4:_ZN22Fl_SVG_Graphics_Driver4loopEiiiiiiii
libfltk_images.so.1.4:_ZN22Fl_SVG_Graphics_Driver4rectEiiii
libfltk_images.so.1.4:_ZN22Fl_SVG_Graphics_Driver5colorEhhh
libfltk_images.so.1.4:_ZN22Fl_SVG_Graphics_Driver5colorEj
libfltk_images.so.1.4:_ZN22Fl_SVG_Graphics_Driver5colorEv
libfltk_images.so.1.4:_ZN22Fl_SVG_Graphics_Driver5font_Eii
libfltk_images.so.1.4:_ZN22Fl_SVG_Graphics_Driver5pointEii
libfltk_images.so.1.4:_ZN22Fl_SVG_Graphics_Driver5rectfEiiii
libfltk_images.so.1.4:_ZN22Fl_SVG_Graphics_Driver5widthEPKci
libfltk_images.so.1.4:_ZN22Fl_SVG_Graphics_Driver5widthEj
libfltk_images.so.1.4:_ZN22Fl_SVG_Graphics_Driver6circleEddd
libfltk_images.so.1.4:_ZN22Fl_SVG_Graphics_Driver6heightEv
libfltk_images.so.1.4:_ZN22Fl_SVG_Graphics_Driver7arc_pieEciiiidd
libfltk_images.so.1.4:_ZN22Fl_SVG_Graphics_Driver7descentEv
libfltk_images.so.1.4:_ZN22Fl_SVG_Graphics_Driver7polygonEiiiiii
libfltk_images.so.1.4:_ZN22Fl_SVG_Graphics_Driver7polygonEiiiiiiii
libfltk_images.so.1.4:_ZN22Fl_SVG_Graphics_Driver8clip_boxEiiiiRiS0_S0_S0_
libfltk_images.so.1.4:_ZN22Fl_SVG_Graphics_Driver8draw_rgbEP12Fl_RGB_Imageiiiiii
libfltk_images.so.1.4:_ZN22Fl_SVG_Graphics_Driver8end_lineEv
libfltk_images.so.1.4:_ZN22Fl_SVG_Graphics_Driver8pop_clipEv
libfltk_images.so.1.4:_ZN22Fl_SVG_Graphics_Driver8rtl_drawEPKciii
libfltk_images.so.1.4:_ZN22Fl_SVG_Graphics_Driver9push_clipEiiii
libfltk_images.so.1.4:_ZN22Fl_SVG_Graphics_DriverC1EP8_IO_FILE
libfltk_images.so.1.4:_ZN22Fl_SVG_Graphics_DriverC2EP8_IO_FILE
libfltk_images.so.1.4:_ZN22Fl_SVG_Graphics_DriverD0Ev
libfltk_images.so.1.4:_ZN22Fl_SVG_Graphics_DriverD1Ev
libfltk_images.so.1.4:_ZN22Fl_SVG_Graphics_DriverD2Ev
libfltk_images.so.1.4:_ZNK12Fl_SVG_Image4copyEii
libfltk_images.so.1.4:_ZNK14Fl_Help_Dialog5valueEv
libfltk_images.so.1.4:_ZNK15Fl_Image_Reader4tellEv
libfltk_images.so.1.4:_ZNK17Fl_Anim_GIF_Image11is_animatedEv
libfltk_images.so.1.4:_ZNK17Fl_Anim_GIF_Image13frame_uncacheEv
libfltk_images.so.1.4:_ZNK17Fl_Anim_GIF_Image4copyEii
libfltk_images.so.1.4:_ZNK17Fl_Anim_GIF_Image4nameEv
libfltk_images.so.1.4:_ZNK17Fl_Anim_GIF_Image5debugEv
libfltk_images.so.1.4:_ZNK17Fl_Anim_GIF_Image5delayEi
libfltk_images.so.1.4:_ZNK17Fl_Anim_GIF_Image5frameEv
libfltk_images.so.1.4:_ZNK17Fl_Anim_GIF_Image5imageEi
libfltk_images.so.1.4:_ZNK17Fl_Anim_GIF_Image5imageEv
libfltk_images.so.1.4:_ZNK17Fl_Anim_GIF_Image5speedEv
libfltk_images.so.1.4:_ZNK17Fl_Anim_GIF_Image5validEv
libfltk_images.so.1.4:_ZNK17Fl_Anim_GIF_Image6canvasEv
libfltk_images.so.1.4:_ZNK17Fl_Anim_GIF_Image6framesEv
libfltk_images.so.1.4:_ZNK17Fl_Anim_GIF_Image7frame_hEi
libfltk_images.so.1.4:_ZNK17Fl_Anim_GIF_Image7frame_wEi
libfltk_images.so.1.4:_ZNK17Fl_Anim_GIF_Image7frame_xEi
libfltk_images.so.1.4:_ZNK17Fl_Anim_GIF_Image7frame_yEi
libfltk_images.so.1.4:_ZNK17Fl_Anim_GIF_Image8canvas_hEv
libfltk_images.so.1.4:_ZNK17Fl_Anim_GIF_Image8canvas_wEv
libfltk_images.so.1.4:_ZNK17Fl_Anim_GIF_Image9FrameInfo13convert_delayEi
libfltk_images.so.1.4:nsvgCreateRasterizer
libfltk_images.so.1.4:nsvgDelete
libfltk_images.so.1.4:nsvgDeleteRasterizer
libfltk_images.so.1.4:nsvgDuplicatePath
libfltk_images.so.1.4:nsvgParse
libfltk_images.so.1.4:nsvgParseFromFile
libfltk_images.so.1.4:nsvgRasterize
libfltk_images.so.1.4:nsvgRasterizeXY
libfltk_images.so.1.4:nsvg__colors
