grub-customizer:_IO_stdin_used
grub-customizer:_ZN14Bootstrap_ViewC1Ev
grub-customizer:_ZN14Bootstrap_ViewC2Ev
grub-customizer:_ZN14Bootstrap_ViewD1Ev
grub-customizer:_ZN14Bootstrap_ViewD2Ev
grub-customizer:_ZN17Bootstrap_Factory11createMutexEv
grub-customizer:_ZN17Bootstrap_Factory17createRegexExgineEv
grub-customizer:_ZN17Bootstrap_Factory18createThreadHelperEv
grub-customizer:_ZN19ContentParser_Linux6_regexE
grub-customizer:_ZN21Bootstrap_ApplicationC1EiPPc
grub-customizer:_ZN21Bootstrap_ApplicationC2EiPPc
grub-customizer:_ZN21ContentParser_Memtest6_regexE
grub-customizer:_ZN22ContentParser_LinuxIso6_regexE
grub-customizer:_ZN25ContentParser_Chainloader6_regexE
grub-customizer:_ZN3Gtk5Stock10GO_FORWARDE
grub-customizer:_ZN3Gtk5Stock12DIALOG_ERRORE
grub-customizer:_ZN3Gtk5Stock13MISSING_IMAGEE
grub-customizer:_ZN3Gtk5Stock14DIALOG_WARNINGE
grub-customizer:_ZN3Gtk5Stock15REVERT_TO_SAVEDE
grub-customizer:_ZN3Gtk5Stock2OKE
grub-customizer:_ZN3Gtk5Stock3ADDE
grub-customizer:_ZN3Gtk5Stock3NEWE
grub-customizer:_ZN3Gtk5Stock4EDITE
grub-customizer:_ZN3Gtk5Stock4FILEE
grub-customizer:_ZN3Gtk5Stock4FINDE
grub-customizer:_ZN3Gtk5Stock4HELPE
grub-customizer:_ZN3Gtk5Stock4OPENE
grub-customizer:_ZN3Gtk5Stock4QUITE
grub-customizer:_ZN3Gtk5Stock4SAVEE
grub-customizer:_ZN3Gtk5Stock5ABOUTE
grub-customizer:_ZN3Gtk5Stock5APPLYE
grub-customizer:_ZN3Gtk5Stock5CLOSEE
grub-customizer:_ZN3Gtk5Stock5GO_UPE
grub-customizer:_ZN3Gtk5Stock6CANCELE
grub-customizer:_ZN3Gtk5Stock6DELETEE
grub-customizer:_ZN3Gtk5Stock6REMOVEE
grub-customizer:_ZN3Gtk5Stock7EXECUTEE
grub-customizer:_ZN3Gtk5Stock7GO_BACKE
grub-customizer:_ZN3Gtk5Stock7GO_DOWNE
grub-customizer:_ZN3Gtk5Stock7REFRESHE
grub-customizer:_ZN3Gtk5Stock8UNDELETEE
grub-customizer:_ZN3Gtk5Stock9DIRECTORYE
grub-customizer:_ZSt4cout
grub-customizer:__bss_start
grub-customizer:__data_start
grub-customizer:__libc_single_threaded
grub-customizer:_edata
grub-customizer:_end
grub-customizer:_start
grub-customizer:main
grubcfg-proxy:_IO_stdin_used
grubcfg-proxy:_ZSt4cerr
grubcfg-proxy:_ZSt4cout
grubcfg-proxy:__bss_start
grubcfg-proxy:__data_start
grubcfg-proxy:__libc_single_threaded
grubcfg-proxy:_edata
grubcfg-proxy:_end
grubcfg-proxy:_start
grubcfg-proxy:main
grubcfg-proxy:stdin
