libKF5ItemModels.so.5:_ZN12KNumberModel11qt_metacallEN11QMetaObject4CallEiPPv
libKF5ItemModels.so.5:_ZN12KNumberModel11qt_metacastEPKc
libKF5ItemModels.so.5:_ZN12KNumberModel11setStepSizeEd
libKF5ItemModels.so.5:_ZN12KNumberModel15setMaximumValueEd
libKF5ItemModels.so.5:_ZN12KNumberModel15setMinimumValueEd
libKF5ItemModels.so.5:_ZN12KNumberModel15stepSizeChangedEv
libKF5ItemModels.so.5:_ZN12KNumberModel19maximumValueChangedEv
libKF5ItemModels.so.5:_ZN12KNumberModel19minimumValueChangedEv
libKF5ItemModels.so.5:_ZN12KNumberModel20setFormattingOptionsE6QFlagsIN7QLocale12NumberOptionEE
libKF5ItemModels.so.5:_ZN12KNumberModel24formattingOptionsChangedEv
libKF5ItemModels.so.5:_ZN12KNumberModelC1EP7QObject
libKF5ItemModels.so.5:_ZN12KNumberModelC2EP7QObject
libKF5ItemModels.so.5:_ZN12KNumberModelD0Ev
libKF5ItemModels.so.5:_ZN12KNumberModelD1Ev
libKF5ItemModels.so.5:_ZN12KNumberModelD2Ev
libKF5ItemModels.so.5:_ZN19KColumnHeadersModel11qt_metacallEN11QMetaObject4CallEiPPv
libKF5ItemModels.so.5:_ZN19KColumnHeadersModel11qt_metacastEPKc
libKF5ItemModels.so.5:_ZN19KColumnHeadersModel14setSourceModelEP18QAbstractItemModel
libKF5ItemModels.so.5:_ZN19KColumnHeadersModel18sourceModelChangedEv
libKF5ItemModels.so.5:_ZN19KColumnHeadersModelC1EP7QObject
libKF5ItemModels.so.5:_ZN19KColumnHeadersModelC2EP7QObject
libKF5ItemModels.so.5:_ZN19KColumnHeadersModelD0Ev
libKF5ItemModels.so.5:_ZN19KColumnHeadersModelD1Ev
libKF5ItemModels.so.5:_ZN19KColumnHeadersModelD2Ev
libKF5ItemModels.so.5:_ZN20KCheckableProxyModel11qt_metacallEN11QMetaObject4CallEiPPv
libKF5ItemModels.so.5:_ZN20KCheckableProxyModel11qt_metacastEPKc
libKF5ItemModels.so.5:_ZN20KCheckableProxyModel14setSourceModelEP18QAbstractItemModel
libKF5ItemModels.so.5:_ZN20KCheckableProxyModel17setSelectionModelEP19QItemSelectionModel
libKF5ItemModels.so.5:_ZN20KCheckableProxyModel6selectERK14QItemSelection6QFlagsIN19QItemSelectionModel13SelectionFlagEE
libKF5ItemModels.so.5:_ZN20KCheckableProxyModel7setDataERK11QModelIndexRK8QVarianti
libKF5ItemModels.so.5:_ZN20KCheckableProxyModelC1EP7QObject
libKF5ItemModels.so.5:_ZN20KCheckableProxyModelC2EP7QObject
libKF5ItemModels.so.5:_ZN20KCheckableProxyModelD0Ev
libKF5ItemModels.so.5:_ZN20KCheckableProxyModelD1Ev
libKF5ItemModels.so.5:_ZN20KCheckableProxyModelD2Ev
libKF5ItemModels.so.5:_ZN20KSelectionProxyModel11qt_metacallEN11QMetaObject4CallEiPPv
libKF5ItemModels.so.5:_ZN20KSelectionProxyModel11qt_metacastEPKc
libKF5ItemModels.so.5:_ZN20KSelectionProxyModel12dropMimeDataEPK9QMimeDataN2Qt10DropActionEiiRK11QModelIndex
libKF5ItemModels.so.5:_ZN20KSelectionProxyModel14rootIndexAddedERK11QModelIndex
libKF5ItemModels.so.5:_ZN20KSelectionProxyModel14setSourceModelEP18QAbstractItemModel
libKF5ItemModels.so.5:_ZN20KSelectionProxyModel17setFilterBehaviorENS_14FilterBehaviorE
libKF5ItemModels.so.5:_ZN20KSelectionProxyModel17setSelectionModelEP19QItemSelectionModel
libKF5ItemModels.so.5:_ZN20KSelectionProxyModel18rootSelectionAddedERK14QItemSelection
libKF5ItemModels.so.5:_ZN20KSelectionProxyModel21filterBehaviorChangedEv
libKF5ItemModels.so.5:_ZN20KSelectionProxyModel21selectionModelChangedEv
libKF5ItemModels.so.5:_ZN20KSelectionProxyModel25rootIndexAboutToBeRemovedERK11QModelIndex
libKF5ItemModels.so.5:_ZN20KSelectionProxyModel29rootSelectionAboutToBeRemovedERK14QItemSelection
libKF5ItemModels.so.5:_ZN20KSelectionProxyModelC1EP19QItemSelectionModelP7QObject
libKF5ItemModels.so.5:_ZN20KSelectionProxyModelC1Ev
libKF5ItemModels.so.5:_ZN20KSelectionProxyModelC2EP19QItemSelectionModelP7QObject
libKF5ItemModels.so.5:_ZN20KSelectionProxyModelC2Ev
libKF5ItemModels.so.5:_ZN20KSelectionProxyModelD0Ev
libKF5ItemModels.so.5:_ZN20KSelectionProxyModelD1Ev
libKF5ItemModels.so.5:_ZN20KSelectionProxyModelD2Ev
libKF5ItemModels.so.5:_ZN22KDescendantsProxyModel11qt_metacallEN11QMetaObject4CallEiPPv
libKF5ItemModels.so.5:_ZN22KDescendantsProxyModel11qt_metacastEPKc
libKF5ItemModels.so.5:_ZN22KDescendantsProxyModel12setRootIndexERK11QModelIndex
libKF5ItemModels.so.5:_ZN22KDescendantsProxyModel14setSourceModelEP18QAbstractItemModel
libKF5ItemModels.so.5:_ZN22KDescendantsProxyModel18sourceModelChangedEv
libKF5ItemModels.so.5:_ZN22KDescendantsProxyModel20setAncestorSeparatorERK7QString
libKF5ItemModels.so.5:_ZN22KDescendantsProxyModel22setDisplayAncestorDataEb
libKF5ItemModels.so.5:_ZN22KDescendantsProxyModel24ancestorSeparatorChangedEv
libKF5ItemModels.so.5:_ZN22KDescendantsProxyModel26displayAncestorDataChangedEv
libKF5ItemModels.so.5:_ZN22KDescendantsProxyModelC1EP7QObject
libKF5ItemModels.so.5:_ZN22KDescendantsProxyModelC2EP7QObject
libKF5ItemModels.so.5:_ZN22KDescendantsProxyModelD0Ev
libKF5ItemModels.so.5:_ZN22KDescendantsProxyModelD1Ev
libKF5ItemModels.so.5:_ZN22KDescendantsProxyModelD2Ev
libKF5ItemModels.so.5:_ZN22KModelIndexProxyMapper11qt_metacallEN11QMetaObject4CallEiPPv
libKF5ItemModels.so.5:_ZN22KModelIndexProxyMapper11qt_metacastEPKc
libKF5ItemModels.so.5:_ZN22KModelIndexProxyMapper18isConnectedChangedEv
libKF5ItemModels.so.5:_ZN22KModelIndexProxyMapperC1EPK18QAbstractItemModelS2_P7QObject
libKF5ItemModels.so.5:_ZN22KModelIndexProxyMapperC2EPK18QAbstractItemModelS2_P7QObject
libKF5ItemModels.so.5:_ZN22KModelIndexProxyMapperD0Ev
libKF5ItemModels.so.5:_ZN22KModelIndexProxyMapperD1Ev
libKF5ItemModels.so.5:_ZN22KModelIndexProxyMapperD2Ev
libKF5ItemModels.so.5:_ZN23KExtraColumnsProxyModel11qt_metacallEN11QMetaObject4CallEiPPv
libKF5ItemModels.so.5:_ZN23KExtraColumnsProxyModel11qt_metacastEPKc
libKF5ItemModels.so.5:_ZN23KExtraColumnsProxyModel12appendColumnERK7QString
libKF5ItemModels.so.5:_ZN23KExtraColumnsProxyModel14setSourceModelEP18QAbstractItemModel
libKF5ItemModels.so.5:_ZN23KExtraColumnsProxyModel17removeExtraColumnEi
libKF5ItemModels.so.5:_ZN23KExtraColumnsProxyModel18setExtraColumnDataERK11QModelIndexiiRK8QVarianti
libKF5ItemModels.so.5:_ZN23KExtraColumnsProxyModel22extraColumnDataChangedERK11QModelIndexiiRK7QVectorIiE
libKF5ItemModels.so.5:_ZN23KExtraColumnsProxyModel7setDataERK11QModelIndexRK8QVarianti
libKF5ItemModels.so.5:_ZN23KExtraColumnsProxyModelC1EP7QObject
libKF5ItemModels.so.5:_ZN23KExtraColumnsProxyModelC2EP7QObject
libKF5ItemModels.so.5:_ZN23KExtraColumnsProxyModelD0Ev
libKF5ItemModels.so.5:_ZN23KExtraColumnsProxyModelD1Ev
libKF5ItemModels.so.5:_ZN23KExtraColumnsProxyModelD2Ev
libKF5ItemModels.so.5:_ZN23KLinkItemSelectionModel11qt_metacallEN11QMetaObject4CallEiPPv
libKF5ItemModels.so.5:_ZN23KLinkItemSelectionModel11qt_metacastEPKc
libKF5ItemModels.so.5:_ZN23KLinkItemSelectionModel27setLinkedItemSelectionModelEP19QItemSelectionModel
libKF5ItemModels.so.5:_ZN23KLinkItemSelectionModel31linkedItemSelectionModelChangedEv
libKF5ItemModels.so.5:_ZN23KLinkItemSelectionModel6selectERK11QModelIndex6QFlagsIN19QItemSelectionModel13SelectionFlagEE
libKF5ItemModels.so.5:_ZN23KLinkItemSelectionModel6selectERK14QItemSelection6QFlagsIN19QItemSelectionModel13SelectionFlagEE
libKF5ItemModels.so.5:_ZN23KLinkItemSelectionModelC1EP18QAbstractItemModelP19QItemSelectionModelP7QObject
libKF5ItemModels.so.5:_ZN23KLinkItemSelectionModelC1EP7QObject
libKF5ItemModels.so.5:_ZN23KLinkItemSelectionModelC2EP18QAbstractItemModelP19QItemSelectionModelP7QObject
libKF5ItemModels.so.5:_ZN23KLinkItemSelectionModelC2EP7QObject
libKF5ItemModels.so.5:_ZN23KLinkItemSelectionModelD0Ev
libKF5ItemModels.so.5:_ZN23KLinkItemSelectionModelD1Ev
libKF5ItemModels.so.5:_ZN23KLinkItemSelectionModelD2Ev
libKF5ItemModels.so.5:_ZN25KBreadcrumbSelectionModel11qt_metacallEN11QMetaObject4CallEiPPv
libKF5ItemModels.so.5:_ZN25KBreadcrumbSelectionModel11qt_metacastEPKc
libKF5ItemModels.so.5:_ZN25KBreadcrumbSelectionModel19setBreadcrumbLengthEi
libKF5ItemModels.so.5:_ZN25KBreadcrumbSelectionModel26setActualSelectionIncludedEb
libKF5ItemModels.so.5:_ZN25KBreadcrumbSelectionModel6selectERK11QModelIndex6QFlagsIN19QItemSelectionModel13SelectionFlagEE
libKF5ItemModels.so.5:_ZN25KBreadcrumbSelectionModel6selectERK14QItemSelection6QFlagsIN19QItemSelectionModel13SelectionFlagEE
libKF5ItemModels.so.5:_ZN25KBreadcrumbSelectionModelC1EP19QItemSelectionModelNS_16BreadcrumbTargetEP7QObject
libKF5ItemModels.so.5:_ZN25KBreadcrumbSelectionModelC1EP19QItemSelectionModelP7QObject
libKF5ItemModels.so.5:_ZN25KBreadcrumbSelectionModelC2EP19QItemSelectionModelNS_16BreadcrumbTargetEP7QObject
libKF5ItemModels.so.5:_ZN25KBreadcrumbSelectionModelC2EP19QItemSelectionModelP7QObject
libKF5ItemModels.so.5:_ZN25KBreadcrumbSelectionModelD0Ev
libKF5ItemModels.so.5:_ZN25KBreadcrumbSelectionModelD1Ev
libKF5ItemModels.so.5:_ZN25KBreadcrumbSelectionModelD2Ev
libKF5ItemModels.so.5:_ZN26KConcatenateRowsProxyModel11qt_metacallEN11QMetaObject4CallEiPPv
libKF5ItemModels.so.5:_ZN26KConcatenateRowsProxyModel11qt_metacastEPKc
libKF5ItemModels.so.5:_ZN26KConcatenateRowsProxyModel14addSourceModelEP18QAbstractItemModel
libKF5ItemModels.so.5:_ZN26KConcatenateRowsProxyModel17removeSourceModelEP18QAbstractItemModel
libKF5ItemModels.so.5:_ZN26KConcatenateRowsProxyModel7setDataERK11QModelIndexRK8QVarianti
libKF5ItemModels.so.5:_ZN26KConcatenateRowsProxyModelC1EP7QObject
libKF5ItemModels.so.5:_ZN26KConcatenateRowsProxyModelC2EP7QObject
libKF5ItemModels.so.5:_ZN26KConcatenateRowsProxyModelD0Ev
libKF5ItemModels.so.5:_ZN26KConcatenateRowsProxyModelD1Ev
libKF5ItemModels.so.5:_ZN26KConcatenateRowsProxyModelD2Ev
libKF5ItemModels.so.5:_ZN26KRecursiveFilterProxyModel11qt_metacallEN11QMetaObject4CallEiPPv
libKF5ItemModels.so.5:_ZN26KRecursiveFilterProxyModel11qt_metacastEPKc
libKF5ItemModels.so.5:_ZN26KRecursiveFilterProxyModel14setSourceModelEP18QAbstractItemModel
libKF5ItemModels.so.5:_ZN26KRecursiveFilterProxyModelC1EP7QObject
libKF5ItemModels.so.5:_ZN26KRecursiveFilterProxyModelC2EP7QObject
libKF5ItemModels.so.5:_ZN26KRecursiveFilterProxyModelD0Ev
libKF5ItemModels.so.5:_ZN26KRecursiveFilterProxyModelD1Ev
libKF5ItemModels.so.5:_ZN26KRecursiveFilterProxyModelD2Ev
libKF5ItemModels.so.5:_ZN27KRearrangeColumnsProxyModel11qt_metacallEN11QMetaObject4CallEiPPv
libKF5ItemModels.so.5:_ZN27KRearrangeColumnsProxyModel11qt_metacastEPKc
libKF5ItemModels.so.5:_ZN27KRearrangeColumnsProxyModel16setSourceColumnsERK7QVectorIiE
libKF5ItemModels.so.5:_ZN27KRearrangeColumnsProxyModelC1EP7QObject
libKF5ItemModels.so.5:_ZN27KRearrangeColumnsProxyModelC2EP7QObject
libKF5ItemModels.so.5:_ZN27KRearrangeColumnsProxyModelD0Ev
libKF5ItemModels.so.5:_ZN27KRearrangeColumnsProxyModelD1Ev
libKF5ItemModels.so.5:_ZN27KRearrangeColumnsProxyModelD2Ev
libKF5ItemModels.so.5:_ZNK12KNumberModel10metaObjectEv
libKF5ItemModels.so.5:_ZNK12KNumberModel12maximumValueEv
libKF5ItemModels.so.5:_ZNK12KNumberModel12minimumValueEv
libKF5ItemModels.so.5:_ZNK12KNumberModel17formattingOptionsEv
libKF5ItemModels.so.5:_ZNK12KNumberModel4dataERK11QModelIndexi
libKF5ItemModels.so.5:_ZNK12KNumberModel5valueERK11QModelIndex
libKF5ItemModels.so.5:_ZNK12KNumberModel8rowCountERK11QModelIndex
libKF5ItemModels.so.5:_ZNK12KNumberModel8stepSizeEv
libKF5ItemModels.so.5:_ZNK12KNumberModel9roleNamesEv
libKF5ItemModels.so.5:_ZNK19KColumnHeadersModel10metaObjectEv
libKF5ItemModels.so.5:_ZNK19KColumnHeadersModel11sourceModelEv
libKF5ItemModels.so.5:_ZNK19KColumnHeadersModel4dataERK11QModelIndexi
libKF5ItemModels.so.5:_ZNK19KColumnHeadersModel8rowCountERK11QModelIndex
libKF5ItemModels.so.5:_ZNK19KColumnHeadersModel9roleNamesEv
libKF5ItemModels.so.5:_ZNK20KCheckableProxyModel10metaObjectEv
libKF5ItemModels.so.5:_ZNK20KCheckableProxyModel14selectionModelEv
libKF5ItemModels.so.5:_ZNK20KCheckableProxyModel4dataERK11QModelIndexi
libKF5ItemModels.so.5:_ZNK20KCheckableProxyModel5flagsERK11QModelIndex
libKF5ItemModels.so.5:_ZNK20KSelectionProxyModel10headerDataEiN2Qt11OrientationEi
libKF5ItemModels.so.5:_ZNK20KSelectionProxyModel10metaObjectEv
libKF5ItemModels.so.5:_ZNK20KSelectionProxyModel11columnCountERK11QModelIndex
libKF5ItemModels.so.5:_ZNK20KSelectionProxyModel11hasChildrenERK11QModelIndex
libKF5ItemModels.so.5:_ZNK20KSelectionProxyModel11mapToSourceERK11QModelIndex
libKF5ItemModels.so.5:_ZNK20KSelectionProxyModel13mapFromSourceERK11QModelIndex
libKF5ItemModels.so.5:_ZNK20KSelectionProxyModel14filterBehaviorEv
libKF5ItemModels.so.5:_ZNK20KSelectionProxyModel14selectionModelEv
libKF5ItemModels.so.5:_ZNK20KSelectionProxyModel17sourceRootIndexesEv
libKF5ItemModels.so.5:_ZNK20KSelectionProxyModel20mapSelectionToSourceERK14QItemSelection
libKF5ItemModels.so.5:_ZNK20KSelectionProxyModel20supportedDropActionsEv
libKF5ItemModels.so.5:_ZNK20KSelectionProxyModel22mapSelectionFromSourceERK14QItemSelection
libKF5ItemModels.so.5:_ZNK20KSelectionProxyModel4dataERK11QModelIndexi
libKF5ItemModels.so.5:_ZNK20KSelectionProxyModel5flagsERK11QModelIndex
libKF5ItemModels.so.5:_ZNK20KSelectionProxyModel5indexEiiRK11QModelIndex
libKF5ItemModels.so.5:_ZNK20KSelectionProxyModel5matchERK11QModelIndexiRK8QVarianti6QFlagsIN2Qt9MatchFlagEE
libKF5ItemModels.so.5:_ZNK20KSelectionProxyModel6parentERK11QModelIndex
libKF5ItemModels.so.5:_ZNK20KSelectionProxyModel8mimeDataERK5QListI11QModelIndexE
libKF5ItemModels.so.5:_ZNK20KSelectionProxyModel8rowCountERK11QModelIndex
libKF5ItemModels.so.5:_ZNK20KSelectionProxyModel9mimeTypesEv
libKF5ItemModels.so.5:_ZNK22KDescendantsProxyModel10headerDataEiN2Qt11OrientationEi
libKF5ItemModels.so.5:_ZNK22KDescendantsProxyModel10metaObjectEv
libKF5ItemModels.so.5:_ZNK22KDescendantsProxyModel11columnCountERK11QModelIndex
libKF5ItemModels.so.5:_ZNK22KDescendantsProxyModel11hasChildrenERK11QModelIndex
libKF5ItemModels.so.5:_ZNK22KDescendantsProxyModel11mapToSourceERK11QModelIndex
libKF5ItemModels.so.5:_ZNK22KDescendantsProxyModel13mapFromSourceERK11QModelIndex
libKF5ItemModels.so.5:_ZNK22KDescendantsProxyModel17ancestorSeparatorEv
libKF5ItemModels.so.5:_ZNK22KDescendantsProxyModel19displayAncestorDataEv
libKF5ItemModels.so.5:_ZNK22KDescendantsProxyModel20supportedDropActionsEv
libKF5ItemModels.so.5:_ZNK22KDescendantsProxyModel4dataERK11QModelIndexi
libKF5ItemModels.so.5:_ZNK22KDescendantsProxyModel5flagsERK11QModelIndex
libKF5ItemModels.so.5:_ZNK22KDescendantsProxyModel5indexEiiRK11QModelIndex
libKF5ItemModels.so.5:_ZNK22KDescendantsProxyModel5matchERK11QModelIndexiRK8QVarianti6QFlagsIN2Qt9MatchFlagEE
libKF5ItemModels.so.5:_ZNK22KDescendantsProxyModel6parentERK11QModelIndex
libKF5ItemModels.so.5:_ZNK22KDescendantsProxyModel8mimeDataERK5QListI11QModelIndexE
libKF5ItemModels.so.5:_ZNK22KDescendantsProxyModel8rowCountERK11QModelIndex
libKF5ItemModels.so.5:_ZNK22KDescendantsProxyModel9mimeTypesEv
libKF5ItemModels.so.5:_ZNK22KModelIndexProxyMapper10metaObjectEv
libKF5ItemModels.so.5:_ZNK22KModelIndexProxyMapper11isConnectedEv
libKF5ItemModels.so.5:_ZNK22KModelIndexProxyMapper14mapLeftToRightERK11QModelIndex
libKF5ItemModels.so.5:_ZNK22KModelIndexProxyMapper14mapRightToLeftERK11QModelIndex
libKF5ItemModels.so.5:_ZNK22KModelIndexProxyMapper23mapSelectionLeftToRightERK14QItemSelection
libKF5ItemModels.so.5:_ZNK22KModelIndexProxyMapper23mapSelectionRightToLeftERK14QItemSelection
libKF5ItemModels.so.5:_ZNK23KExtraColumnsProxyModel10headerDataEiN2Qt11OrientationEi
libKF5ItemModels.so.5:_ZNK23KExtraColumnsProxyModel10metaObjectEv
libKF5ItemModels.so.5:_ZNK23KExtraColumnsProxyModel11columnCountERK11QModelIndex
libKF5ItemModels.so.5:_ZNK23KExtraColumnsProxyModel11hasChildrenERK11QModelIndex
libKF5ItemModels.so.5:_ZNK23KExtraColumnsProxyModel11mapToSourceERK11QModelIndex
libKF5ItemModels.so.5:_ZNK23KExtraColumnsProxyModel20mapSelectionToSourceERK14QItemSelection
libKF5ItemModels.so.5:_ZNK23KExtraColumnsProxyModel25extraColumnForProxyColumnEi
libKF5ItemModels.so.5:_ZNK23KExtraColumnsProxyModel25proxyColumnForExtraColumnEi
libKF5ItemModels.so.5:_ZNK23KExtraColumnsProxyModel4dataERK11QModelIndexi
libKF5ItemModels.so.5:_ZNK23KExtraColumnsProxyModel5buddyERK11QModelIndex
libKF5ItemModels.so.5:_ZNK23KExtraColumnsProxyModel5flagsERK11QModelIndex
libKF5ItemModels.so.5:_ZNK23KExtraColumnsProxyModel5indexEiiRK11QModelIndex
libKF5ItemModels.so.5:_ZNK23KExtraColumnsProxyModel6parentERK11QModelIndex
libKF5ItemModels.so.5:_ZNK23KExtraColumnsProxyModel7siblingEiiRK11QModelIndex
libKF5ItemModels.so.5:_ZNK23KLinkItemSelectionModel10metaObjectEv
libKF5ItemModels.so.5:_ZNK23KLinkItemSelectionModel24linkedItemSelectionModelEv
libKF5ItemModels.so.5:_ZNK25KBreadcrumbSelectionModel10metaObjectEv
libKF5ItemModels.so.5:_ZNK25KBreadcrumbSelectionModel16breadcrumbLengthEv
libKF5ItemModels.so.5:_ZNK25KBreadcrumbSelectionModel25isActualSelectionIncludedEv
libKF5ItemModels.so.5:_ZNK26KConcatenateRowsProxyModel10headerDataEiN2Qt11OrientationEi
libKF5ItemModels.so.5:_ZNK26KConcatenateRowsProxyModel10metaObjectEv
libKF5ItemModels.so.5:_ZNK26KConcatenateRowsProxyModel11columnCountERK11QModelIndex
libKF5ItemModels.so.5:_ZNK26KConcatenateRowsProxyModel11mapToSourceERK11QModelIndex
libKF5ItemModels.so.5:_ZNK26KConcatenateRowsProxyModel13mapFromSourceERK11QModelIndex
libKF5ItemModels.so.5:_ZNK26KConcatenateRowsProxyModel4dataERK11QModelIndexi
libKF5ItemModels.so.5:_ZNK26KConcatenateRowsProxyModel5flagsERK11QModelIndex
libKF5ItemModels.so.5:_ZNK26KConcatenateRowsProxyModel5indexEiiRK11QModelIndex
libKF5ItemModels.so.5:_ZNK26KConcatenateRowsProxyModel6parentERK11QModelIndex
libKF5ItemModels.so.5:_ZNK26KConcatenateRowsProxyModel7sourcesEv
libKF5ItemModels.so.5:_ZNK26KConcatenateRowsProxyModel8itemDataERK11QModelIndex
libKF5ItemModels.so.5:_ZNK26KConcatenateRowsProxyModel8rowCountERK11QModelIndex
libKF5ItemModels.so.5:_ZNK26KConcatenateRowsProxyModel9roleNamesEv
libKF5ItemModels.so.5:_ZNK26KRecursiveFilterProxyModel10metaObjectEv
libKF5ItemModels.so.5:_ZNK26KRecursiveFilterProxyModel16filterAcceptsRowEiRK11QModelIndex
libKF5ItemModels.so.5:_ZNK26KRecursiveFilterProxyModel5matchERK11QModelIndexiRK8QVarianti6QFlagsIN2Qt9MatchFlagEE
libKF5ItemModels.so.5:_ZNK26KRecursiveFilterProxyModel9acceptRowEiRK11QModelIndex
libKF5ItemModels.so.5:_ZNK27KRearrangeColumnsProxyModel10headerDataEiN2Qt11OrientationEi
libKF5ItemModels.so.5:_ZNK27KRearrangeColumnsProxyModel10metaObjectEv
libKF5ItemModels.so.5:_ZNK27KRearrangeColumnsProxyModel11columnCountERK11QModelIndex
libKF5ItemModels.so.5:_ZNK27KRearrangeColumnsProxyModel11mapToSourceERK11QModelIndex
libKF5ItemModels.so.5:_ZNK27KRearrangeColumnsProxyModel13mapFromSourceERK11QModelIndex
libKF5ItemModels.so.5:_ZNK27KRearrangeColumnsProxyModel26proxyColumnForSourceColumnEi
libKF5ItemModels.so.5:_ZNK27KRearrangeColumnsProxyModel26sourceColumnForProxyColumnEi
libKF5ItemModels.so.5:_ZNK27KRearrangeColumnsProxyModel5indexEiiRK11QModelIndex
libKF5ItemModels.so.5:_ZNK27KRearrangeColumnsProxyModel6parentERK11QModelIndex
libKF5ItemModels.so.5:_ZNK27KRearrangeColumnsProxyModel7siblingEiiRK11QModelIndex
libKF5ItemModels.so.5:_ZNK27KRearrangeColumnsProxyModel8rowCountERK11QModelIndex
