libKF6ConfigCore.so.6:_ZN11KConfigBase5groupERK7QString
libKF6ConfigCore.so.6:_ZN12KConfigGroupC1ERK28QExplicitlySharedDataPointerI13KSharedConfigERK7QString
libKF6ConfigCore.so.6:_ZN12KConfigGroupD1Ev
libKF6ConfigCore.so.6:_ZN13KSharedConfig10openConfigERK7QString6QFlagsIN7KConfig8OpenFlagEEN14QStandardPaths16StandardLocationE
libKF6ConfigCore.so.6:_ZN14KConfigWatcher13configChangedERK12KConfigGroupRK5QListI10QByteArrayE
libKF6ConfigCore.so.6:_ZN14KConfigWatcher16staticMetaObjectE
libKF6ConfigCore.so.6:_ZN14KConfigWatcher6createERK28QExplicitlySharedDataPointerI13KSharedConfigE
libKF6ConfigCore.so.6:_ZN7KConfig16addConfigSourcesERK5QListI7QStringE
libKF6ConfigCore.so.6:_ZN7KConfig20reparseConfigurationEv
libKF6ConfigCore.so.6:_ZNK11KConfigBase8hasGroupERK7QString
libKF6ConfigCore.so.6:_ZNK12KConfigGroup13readPathEntryERK7QStringS2_
libKF6ConfigCore.so.6:_ZNK12KConfigGroup4nameEv
libKF6ConfigCore.so.6:_ZNK12KConfigGroup9readEntryEPKcRK7QString
libKF6ConfigCore.so.6:_ZNK12KConfigGroup9readEntryEPKcRK8QVariant
libKF6ConfigCore.so.6:_ZNK12KConfigGroup9readEntryERK7QStringS2_
libKF6ConfigCore.so.6:_ZNK14KConfigWatcher6configEv
libQt6Core.so.6:_Z13comparesEqualRK4QUrlS1_
libQt6Core.so.6:_Z14qAddPreRoutinePFvvE
libQt6Core.so.6:_Z15compareThreeWayRK4QUrlS1_
libQt6Core.so.6:_Z21qRegisterResourceDataiPKhS0_S0_
libQt6Core.so.6:_Z23qUnregisterResourceDataiPKhS0_S0_
libQt6Core.so.6:_Z25qEnvironmentVariableIsSetPKc
libQt6Core.so.6:_Z26qt_QMetaEnum_debugOperatorR6QDebugxPK11QMetaObjectPKc
libQt6Core.so.6:_Z30qt_QMetaEnum_flagDebugOperatorR6QDebugyPK11QMetaObjectPKc
libQt6Core.so.6:_Z5qHash11QStringViewm
libQt6Core.so.6:_ZN10QArrayData10deallocateEPS_xx
libQt6Core.so.6:_ZN10QArrayData19reallocateUnalignedEPS_PvxxNS_16AllocationOptionE
libQt6Core.so.6:_ZN10QArrayData8allocateEPPS_xxxNS_16AllocationOptionE
libQt6Core.so.6:_ZN10QByteArray11reallocDataExN10QArrayData16AllocationOptionE
libQt6Core.so.6:_ZN10QByteArray6_emptyE
libQt6Core.so.6:_ZN10QByteArray6appendEc
libQt6Core.so.6:_ZN10QByteArray6insertEx14QByteArrayView
libQt6Core.so.6:_ZN10QByteArrayC1EPKcx
libQt6Core.so.6:_ZN10QByteArrayaSERKS_
libQt6Core.so.6:_ZN11QDataStream11resetStatusEv
libQt6Core.so.6:_ZN11QDataStream9setStatusENS_6StatusE
libQt6Core.so.6:_ZN11QDataStreamlsEi
libQt6Core.so.6:_ZN11QDataStreamlsEx
libQt6Core.so.6:_ZN11QDataStreamrsERi
libQt6Core.so.6:_ZN11QDataStreamrsERx
libQt6Core.so.6:_ZN11QMetaObject10ConnectionD1Ev
libQt6Core.so.6:_ZN11QMetaObject14normalizedTypeEPKc
libQt6Core.so.6:_ZN11QMetaObject16invokeMethodImplEP7QObjectPKcN2Qt14ConnectionTypeExPKPKvPKS3_PKPKN9QtPrivate18QMetaTypeInterfaceE
libQt6Core.so.6:_ZN11QMetaObject16invokeMethodImplEP7QObjectPN9QtPrivate15QSlotObjectBaseEN2Qt14ConnectionTypeExPKPKvPKPKcPKPKNS2_18QMetaTypeInterfaceE
libQt6Core.so.6:_ZN11QMetaObject8activateEP7QObjectPKS_iPPv
libQt6Core.so.6:_ZN11QTextStreamlsERK7QString
libQt6Core.so.6:_ZN11QTextStreamlsEc
libQt6Core.so.6:_ZN11QTextStreamlsEi
libQt6Core.so.6:_ZN11QTextStreamlsEj
libQt6Core.so.6:_ZN11QTranslator4loadERK7QStringS2_S2_S2_
libQt6Core.so.6:_ZN11QTranslatorC1EP7QObject
libQt6Core.so.6:_ZN14QStandardPaths17standardLocationsENS_16StandardLocationE
libQt6Core.so.6:_ZN14QStandardPaths6locateENS_16StandardLocationERK7QString6QFlagsINS_12LocateOptionEE
libQt6Core.so.6:_ZN15QtSharedPointer20ExternalRefCountData9getAndRefEPK7QObject
libQt6Core.so.6:_ZN16QCoreApplication15applicationNameEv
libQt6Core.so.6:_ZN16QCoreApplication17installTranslatorEP11QTranslator
libQt6Core.so.6:_ZN16QCoreApplication4selfE
libQt6Core.so.6:_ZN16QDebugStateSaverC1ER6QDebug
libQt6Core.so.6:_ZN16QDebugStateSaverD1Ev
libQt6Core.so.6:_ZN16QLoggingCategoryC1EPKc9QtMsgType
libQt6Core.so.6:_ZN16QLoggingCategoryD1Ev
libQt6Core.so.6:_ZN21QAbstractConcatenable14appendLatin1ToE13QLatin1StringP5QChar
libQt6Core.so.6:_ZN4QUrl12toStringListERK5QListIS_E12QUrlTwoFlagsINS_19UrlFormattingOptionENS_25ComponentFormattingOptionEE
libQt6Core.so.6:_ZN4QUrl13fromUserInputERK7QStringS2_6QFlagsINS_25UserInputResolutionOptionEE
libQt6Core.so.6:_ZN4QUrl14fromStringListERK5QListI7QStringENS_11ParsingModeE
libQt6Core.so.6:_ZN4QUrl5clearEv
libQt6Core.so.6:_ZN4QUrlC1ERKS_
libQt6Core.so.6:_ZN4QUrlC1Ev
libQt6Core.so.6:_ZN4QUrlD1Ev
libQt6Core.so.6:_ZN4QUrlaSERKS_
libQt6Core.so.6:_ZN6QDebug9putStringEPK5QCharm
libQt6Core.so.6:_ZN6QDebugD1Ev
libQt6Core.so.6:_ZN6QTimer11setIntervalEi
libQt6Core.so.6:_ZN6QTimer13setSingleShotEb
libQt6Core.so.6:_ZN6QTimer14singleShotImplENSt6chrono8durationIlSt5ratioILl1ELl1000000000EEEEN2Qt9TimerTypeEPK7QObjectPN9QtPrivate15QSlotObjectBaseE
libQt6Core.so.6:_ZN6QTimer16staticMetaObjectE
libQt6Core.so.6:_ZN6QTimer5startEv
libQt6Core.so.6:_ZN6QTimer7timeoutENS_14QPrivateSignalE
libQt6Core.so.6:_ZN6QTimerC1EP7QObject
libQt6Core.so.6:_ZN6QTimerD1Ev
libQt6Core.so.6:_ZN7QBuffer4openE6QFlagsIN13QIODeviceBase12OpenModeFlagEE
libQt6Core.so.6:_ZN7QBuffer5closeEv
libQt6Core.so.6:_ZN7QBufferC1EP10QByteArrayP7QObject
libQt6Core.so.6:_ZN7QBufferD1Ev
libQt6Core.so.6:_ZN7QLocale6systemEv
libQt6Core.so.6:_ZN7QLocaleD1Ev
libQt6Core.so.6:_ZN7QObject10childEventEP11QChildEvent
libQt6Core.so.6:_ZN7QObject10timerEventEP11QTimerEvent
libQt6Core.so.6:_ZN7QObject11connectImplEPKS_PPvS1_S3_PN9QtPrivate15QSlotObjectBaseEN2Qt14ConnectionTypeEPKiPK11QMetaObject
libQt6Core.so.6:_ZN7QObject11customEventEP6QEvent
libQt6Core.so.6:_ZN7QObject11deleteLaterEv
libQt6Core.so.6:_ZN7QObject11eventFilterEPS_P6QEvent
libQt6Core.so.6:_ZN7QObject11qt_metacallEN11QMetaObject4CallEiPPv
libQt6Core.so.6:_ZN7QObject11qt_metacastEPKc
libQt6Core.so.6:_ZN7QObject13connectNotifyERK11QMetaMethod
libQt6Core.so.6:_ZN7QObject14disconnectImplEPKS_PPvS1_S3_PK11QMetaObject
libQt6Core.so.6:_ZN7QObject16disconnectNotifyERK11QMetaMethod
libQt6Core.so.6:_ZN7QObject16staticMetaObjectE
libQt6Core.so.6:_ZN7QObject18installEventFilterEPS_
libQt6Core.so.6:_ZN7QObject5eventEP6QEvent
libQt6Core.so.6:_ZN7QObjectC2EPS_
libQt6Core.so.6:_ZN7QObjectD2Ev
libQt6Core.so.6:_ZN7QString10fromLatin1E14QByteArrayView
libQt6Core.so.6:_ZN7QString13toUtf8_helperERKS_
libQt6Core.so.6:_ZN7QString15toLatin1_helperERKS_
libQt6Core.so.6:_ZN7QString17toIntegral_helperE11QStringViewPbj
libQt6Core.so.6:_ZN7QString18toLocal8Bit_helperEPK5QCharx
libQt6Core.so.6:_ZN7QString4chopEx
libQt6Core.so.6:_ZN7QString6_emptyE
libQt6Core.so.6:_ZN7QString6numberEii
libQt6Core.so.6:_ZN7QString6numberEji
libQt6Core.so.6:_ZN7QString7replaceE5QCharS0_N2Qt15CaseSensitivityE
libQt6Core.so.6:_ZN7QString8fromUtf8E14QByteArrayView
libQt6Core.so.6:_ZN7QStringC1EPK5QCharx
libQt6Core.so.6:_ZN7QStringC1ExN2Qt14InitializationE
libQt6Core.so.6:_ZN7QStringaSERKS_
libQt6Core.so.6:_ZN7QThread13currentThreadEv
libQt6Core.so.6:_ZN8QVariantC1E9QMetaTypePKv
libQt6Core.so.6:_ZN8QVariantC1ERK10QByteArray
libQt6Core.so.6:_ZN8QVariantC1ERK4QMapI7QStringS_E
libQt6Core.so.6:_ZN8QVariantC1ERK5QListI7QStringE
libQt6Core.so.6:_ZN8QVariantC1ERK7QString
libQt6Core.so.6:_ZN8QVariantC1ERKS_
libQt6Core.so.6:_ZN8QVariantC1Ei
libQt6Core.so.6:_ZN8QVariantD1Ev
libQt6Core.so.6:_ZN8QVariantaSERKS_
libQt6Core.so.6:_ZN9QFileInfo6existsERK7QString
libQt6Core.so.6:_ZN9QHashSeed10globalSeedEv
libQt6Core.so.6:_ZN9QMetaType14registerHelperEPKN9QtPrivate18QMetaTypeInterfaceE
libQt6Core.so.6:_ZN9QMetaType25registerConverterFunctionERKSt8functionIFbPKvPvEES_S_
libQt6Core.so.6:_ZN9QMetaType25registerNormalizedTypedefERK10QByteArrayS_
libQt6Core.so.6:_ZN9QMetaType27registerMutableViewFunctionERKSt8functionIFbPvS1_EES_S_
libQt6Core.so.6:_ZN9QMetaType27unregisterConverterFunctionES_S_
libQt6Core.so.6:_ZN9QMetaType29unregisterMutableViewFunctionES_S_
libQt6Core.so.6:_ZN9QMetaType7convertES_PKvS_Pv
libQt6Core.so.6:_ZN9QtPrivate12equalStringsE11QStringView13QLatin1String
libQt6Core.so.6:_ZN9QtPrivate12equalStringsE11QStringViewS0_
libQt6Core.so.6:_ZN9QtPrivate14compareStringsE11QStringViewS0_N2Qt15CaseSensitivityE
libQt6Core.so.6:_ZN9QtPrivate20QStringList_containsEPK5QListI7QStringE11QStringViewN2Qt15CaseSensitivityE
libQt6Core.so.6:_ZN9QtPrivate20QStringList_containsEPK5QListI7QStringE13QLatin1StringN2Qt15CaseSensitivityE
libQt6Core.so.6:_ZN9QtPrivate25QMetaTypeInterfaceWrapperI4QMapI7QString8QVariantEE8metaTypeE
libQt6Core.so.6:_ZN9QtPrivate25QMetaTypeInterfaceWrapperI4QUrlE8metaTypeE
libQt6Core.so.6:_ZN9QtPrivate25QMetaTypeInterfaceWrapperI5QListI7QStringEE8metaTypeE
libQt6Core.so.6:_ZN9QtPrivate25QMetaTypeInterfaceWrapperI5QListI8QVariantEE8metaTypeE
libQt6Core.so.6:_ZN9QtPrivate25QMetaTypeInterfaceWrapperI7QStringE8metaTypeE
libQt6Core.so.6:_ZN9QtPrivate25QMetaTypeInterfaceWrapperI8QVariantE8metaTypeE
libQt6Core.so.6:_ZN9QtPrivate25QMetaTypeInterfaceWrapperIbE8metaTypeE
libQt6Core.so.6:_ZN9QtPrivate25QMetaTypeInterfaceWrapperIiE8metaTypeE
libQt6Core.so.6:_ZN9QtPrivate25QMetaTypeInterfaceWrapperIjE8metaTypeE
libQt6Core.so.6:_ZN9QtPrivate28QStringList_removeDuplicatesEP5QListI7QStringE
libQt6Core.so.6:_ZN9QtPrivate52hasRegisteredConverterFunctionToIterableMetaSequenceE9QMetaType
libQt6Core.so.6:_ZN9QtPrivate54hasRegisteredMutableViewFunctionToIterableMetaSequenceE9QMetaType
libQt6Core.so.6:_ZN9QtPrivate8qustrchrE11QStringViewDs
libQt6Core.so.6:_ZNK11QDataStream26isDeviceTransactionStartedEv
libQt6Core.so.6:_ZNK11QMetaObject4castEPK7QObject
libQt6Core.so.6:_ZNK11QMetaObject9classNameEv
libQt6Core.so.6:_ZNK11QObjectData17dynamicMetaObjectEv
libQt6Core.so.6:_ZNK14QMessageLogger5debugEv
libQt6Core.so.6:_ZNK14QMessageLogger7warningEv
libQt6Core.so.6:_ZNK4QUrl11isLocalFileEv
libQt6Core.so.6:_ZNK4QUrl11toLocalFileEv
libQt6Core.so.6:_ZNK4QUrl7isEmptyEv
libQt6Core.so.6:_ZNK4QUrl7isValidEv
libQt6Core.so.6:_ZNK7QLocale11uiLanguagesENS_12TagSeparatorE
libQt6Core.so.6:_ZNK7QLocale4nameENS_12TagSeparatorE
libQt6Core.so.6:_ZNK7QObject10metaObjectEv
libQt6Core.so.6:_ZNK7QObject6senderEv
libQt6Core.so.6:_ZNK7QObject6threadEv
libQt6Core.so.6:_ZNK7QObject8propertyEPKc
libQt6Core.so.6:_ZNK7QString10startsWithERKS_N2Qt15CaseSensitivityE
libQt6Core.so.6:_ZNK7QString5splitE5QChar6QFlagsIN2Qt18SplitBehaviorFlagsEENS2_15CaseSensitivityE
libQt6Core.so.6:_ZNK7QString8endsWithE13QLatin1StringN2Qt15CaseSensitivityE
libQt6Core.so.6:_ZNK8QVariant12qdebugHelperE6QDebug
libQt6Core.so.6:_ZNK8QVariant12toStringListEv
libQt6Core.so.6:_ZNK8QVariant6equalsERKS_
libQt6Core.so.6:_ZNK8QVariant6toBoolEv
libQt6Core.so.6:_ZTI7QObject
libQt6Core.so.6:_Zls6QDebugRK4QUrl
libQt6Core.so.6:_ZlsR11QDataStreamRK4QUrl
libQt6Core.so.6:_ZlsR11QDataStreamRK7QString
libQt6Core.so.6:_ZlsR11QDataStreamRK8QVariant
libQt6Core.so.6:_ZrsR11QDataStreamR4QUrl
libQt6Core.so.6:_ZrsR11QDataStreamR7QString
libQt6Core.so.6:_ZrsR11QDataStreamR8QVariant
libQt6Core.so.6:qt_version_tag
libQt6DBus.so.6:_Z14qDBusReplyFillRK12QDBusMessageR10QDBusErrorR8QVariant
libQt6DBus.so.6:_Z40qRegisterNormalizedMetaType_QDBusVariantRK10QByteArray
libQt6DBus.so.6:_Z41qRegisterNormalizedMetaType_QDBusArgumentRK10QByteArray
libQt6DBus.so.6:_ZN10QDBusErrorC1ERKS_
libQt6DBus.so.6:_ZN10QDBusErrorC1Ev
libQt6DBus.so.6:_ZN12QDBusMessage12setArgumentsERK5QListI8QVariantE
libQt6DBus.so.6:_ZN12QDBusMessage16createMethodCallERK7QStringS2_S2_S2_
libQt6DBus.so.6:_ZN12QDBusMessageC1Ev
libQt6DBus.so.6:_ZN12QDBusMessageD1Ev
libQt6DBus.so.6:_ZN13QDBusArgument10beginArrayE9QMetaType
libQt6DBus.so.6:_ZN13QDBusArgument11endMapEntryEv
libQt6DBus.so.6:_ZN13QDBusArgument12endStructureEv
libQt6DBus.so.6:_ZN13QDBusArgument13beginMapEntryEv
libQt6DBus.so.6:_ZN13QDBusArgument14beginStructureEv
libQt6DBus.so.6:_ZN13QDBusArgument6endMapEv
libQt6DBus.so.6:_ZN13QDBusArgument8beginMapE9QMetaTypeS0_
libQt6DBus.so.6:_ZN13QDBusArgument8endArrayEv
libQt6DBus.so.6:_ZN13QDBusArgumentC1ERKS_
libQt6DBus.so.6:_ZN13QDBusArgumentC1Ev
libQt6DBus.so.6:_ZN13QDBusArgumentD1Ev
libQt6DBus.so.6:_ZN13QDBusArgumentlsERK10QByteArray
libQt6DBus.so.6:_ZN13QDBusArgumentlsERK12QDBusVariant
libQt6DBus.so.6:_ZN13QDBusArgumentlsERK7QString
libQt6DBus.so.6:_ZN13QDBusArgumentlsEb
libQt6DBus.so.6:_ZN13QDBusArgumentlsEi
libQt6DBus.so.6:_ZN13QDBusMetaType25registerMarshallOperatorsE9QMetaTypePFvR13QDBusArgumentPKvEPFvRKS1_PvE
libQt6DBus.so.6:_ZN15QDBusConnection10sessionBusEv
libQt6DBus.so.6:_ZN15QDBusConnection7connectERK7QStringS2_S2_S2_P7QObjectPKc
libQt6DBus.so.6:_ZN15QDBusConnectionD1Ev
libQt6DBus.so.6:_ZN16QDBusPendingCallC2ERKS_
libQt6DBus.so.6:_ZN16QDBusPendingCallD1Ev
libQt6DBus.so.6:_ZN19QDBusServiceWatcher12setWatchModeE6QFlagsINS_13WatchModeFlagEE
libQt6DBus.so.6:_ZN19QDBusServiceWatcher13setConnectionERK15QDBusConnection
libQt6DBus.so.6:_ZN19QDBusServiceWatcher16staticMetaObjectE
libQt6DBus.so.6:_ZN19QDBusServiceWatcher17addWatchedServiceERK7QString
libQt6DBus.so.6:_ZN19QDBusServiceWatcher19serviceOwnerChangedERK7QStringS2_S2_
libQt6DBus.so.6:_ZN19QDBusServiceWatcherC1EP7QObject
libQt6DBus.so.6:_ZN21QDBusPendingReplyBase12setMetaTypesEiPK9QMetaType
libQt6DBus.so.6:_ZN21QDBusPendingReplyBase6assignERK16QDBusPendingCall
libQt6DBus.so.6:_ZN21QDBusPendingReplyBaseC2Ev
libQt6DBus.so.6:_ZN21QDBusPendingReplyBaseD2Ev
libQt6DBus.so.6:_ZN22QDBusAbstractInterface11qt_metacallEN11QMetaObject4CallEiPPv
libQt6DBus.so.6:_ZN22QDBusAbstractInterface11qt_metacastEPKc
libQt6DBus.so.6:_ZN22QDBusAbstractInterface13connectNotifyERK11QMetaMethod
libQt6DBus.so.6:_ZN22QDBusAbstractInterface16disconnectNotifyERK11QMetaMethod
libQt6DBus.so.6:_ZN22QDBusAbstractInterface16staticMetaObjectE
libQt6DBus.so.6:_ZN22QDBusAbstractInterface20callWithArgumentListEN5QDBus8CallModeERK7QStringRK5QListI8QVariantE
libQt6DBus.so.6:_ZN22QDBusAbstractInterface25asyncCallWithArgumentListERK7QStringRK5QListI8QVariantE
libQt6DBus.so.6:_ZN22QDBusAbstractInterfaceC2ERK7QStringS2_PKcRK15QDBusConnectionP7QObject
libQt6DBus.so.6:_ZN22QDBusAbstractInterfaceD2Ev
libQt6DBus.so.6:_ZN23QDBusPendingCallWatcher16staticMetaObjectE
libQt6DBus.so.6:_ZN23QDBusPendingCallWatcher8finishedEPS_
libQt6DBus.so.6:_ZN23QDBusPendingCallWatcherC1ERK16QDBusPendingCallP7QObject
libQt6DBus.so.6:_ZNK10QDBusError7messageEv
libQt6DBus.so.6:_ZNK12QDBusMessage4typeEv
libQt6DBus.so.6:_ZNK12QDBusMessage9argumentsEv
libQt6DBus.so.6:_ZNK13QDBusArgument10beginArrayEv
libQt6DBus.so.6:_ZNK13QDBusArgument11endMapEntryEv
libQt6DBus.so.6:_ZNK13QDBusArgument12endStructureEv
libQt6DBus.so.6:_ZNK13QDBusArgument13beginMapEntryEv
libQt6DBus.so.6:_ZNK13QDBusArgument14beginStructureEv
libQt6DBus.so.6:_ZNK13QDBusArgument5atEndEv
libQt6DBus.so.6:_ZNK13QDBusArgument6endMapEv
libQt6DBus.so.6:_ZNK13QDBusArgument8beginMapEv
libQt6DBus.so.6:_ZNK13QDBusArgument8endArrayEv
libQt6DBus.so.6:_ZNK13QDBusArgumentrsER10QByteArray
libQt6DBus.so.6:_ZNK13QDBusArgumentrsER12QDBusVariant
libQt6DBus.so.6:_ZNK13QDBusArgumentrsER5QListI7QStringE
libQt6DBus.so.6:_ZNK13QDBusArgumentrsER7QString
libQt6DBus.so.6:_ZNK13QDBusArgumentrsERb
libQt6DBus.so.6:_ZNK13QDBusArgumentrsERi
libQt6DBus.so.6:_ZNK13QDBusArgumentrsERj
libQt6DBus.so.6:_ZNK15QDBusConnection4sendERK12QDBusMessage
libQt6DBus.so.6:_ZNK15QDBusConnection9asyncCallERK12QDBusMessagei
libQt6DBus.so.6:_ZNK15QDBusConnection9interfaceEv
libQt6DBus.so.6:_ZNK16QDBusPendingCall5errorEv
libQt6DBus.so.6:_ZNK16QDBusPendingCall7isErrorEv
libQt6DBus.so.6:_ZNK21QDBusPendingReplyBase10argumentAtEi
libQt6DBus.so.6:_ZNK24QDBusConnectionInterface19isServiceRegisteredERK7QString
libQt6DBus.so.6:_ZTI22QDBusAbstractInterface
libQt6DBus.so.6:_ZrsRK13QDBusArgumentR8QVariant
libQt6Gui.so.6:_ZN12QPaintDeviceC2Ev
libQt6Gui.so.6:_ZN15QGuiApplication10windowIconEv
libQt6Gui.so.6:_ZN15QGuiApplication15desktopFileNameEv
libQt6Gui.so.6:_ZN15QGuiApplication22applicationDisplayNameEv
libQt6Gui.so.6:_ZN21QTextDocumentFragment8fromHtmlERK7QStringPK13QTextDocument
libQt6Gui.so.6:_ZN21QTextDocumentFragmentD1Ev
libQt6Gui.so.6:_ZN5QIconD1Ev
libQt6Gui.so.6:_ZN6QImageC1Ev
libQt6Gui.so.6:_ZN6QImageD1Ev
libQt6Gui.so.6:_ZN7QPixmapC1ERKS_
libQt6Gui.so.6:_ZN7QPixmapC1Ev
libQt6Gui.so.6:_ZN7QPixmapD1Ev
libQt6Gui.so.6:_ZN7QPixmapaSERKS_
libQt6Gui.so.6:_ZN7QWindow13activeChangedEv
libQt6Gui.so.6:_ZN7QWindow16staticMetaObjectE
libQt6Gui.so.6:_ZNK21QTextDocumentFragment11toPlainTextEv
libQt6Gui.so.6:_ZNK5QIcon4nameEv
libQt6Gui.so.6:_ZNK6QImage11sizeInBytesEv
libQt6Gui.so.6:_ZNK6QImage12bytesPerLineEv
libQt6Gui.so.6:_ZNK6QImage15hasAlphaChannelEv
libQt6Gui.so.6:_ZNK6QImage22convertToFormat_helperENS_6FormatE6QFlagsIN2Qt19ImageConversionFlagEE
libQt6Gui.so.6:_ZNK6QImage5widthEv
libQt6Gui.so.6:_ZNK6QImage6heightEv
libQt6Gui.so.6:_ZNK6QImage9constBitsEv
libQt6Gui.so.6:_ZNK7QPixmap4saveEP9QIODevicePKci
libQt6Gui.so.6:_ZNK7QPixmap6isNullEv
libQt6Gui.so.6:_ZNK7QPixmap7toImageEv
libQt6Gui.so.6:_ZNK7QWindow8isActiveEv
libQt6Gui.so.6:_ZTV6QImage
libQt6Qml.so.6:_Z17qmlRegisterModulePKcii
libQt6Qml.so.6:_ZN11QQmlPrivate11qmlregisterENS_16RegistrationTypeEPv
libQt6Qml.so.6:_ZN11QQmlPrivate30qdeclarativeelement_destructorEP7QObject
libQt6Qml.so.6:_ZN22QQmlModuleRegistrationC1EPKcPFvvE
libQt6Qml.so.6:_ZN22QQmlModuleRegistrationD1Ev
libQt6Qml.so.6:_ZN25QQmlEngineExtensionPlugin11qt_metacallEN11QMetaObject4CallEiPPv
libQt6Qml.so.6:_ZN25QQmlEngineExtensionPlugin11qt_metacastEPKc
libQt6Qml.so.6:_ZN25QQmlEngineExtensionPlugin16initializeEngineEP10QQmlEnginePKc
libQt6Qml.so.6:_ZN25QQmlEngineExtensionPlugin16staticMetaObjectE
libQt6Qml.so.6:_ZN25QQmlEngineExtensionPluginC2EP7QObject
libQt6Qml.so.6:_ZN25QQmlEngineExtensionPluginD2Ev
libQt6Qml.so.6:_ZN8QJSValueC1ENS_12SpecialValueE
libQt6Qml.so.6:_ZN8QJSValueC1ERKS_
libQt6Qml.so.6:_ZN8QJSValueC1Eb
libQt6Qml.so.6:_ZN8QJSValueD1Ev
libQt6Qml.so.6:_ZNK8QJSValue4callERK5QListIS_E
libQt6Qml.so.6:_ZTI25QQmlEngineExtensionPlugin
libQt6Qml.so.6:_ZThn16_N25QQmlEngineExtensionPlugin16initializeEngineEP10QQmlEnginePKc
libQt6Qml.so.6:_ZlsR11QDataStreamRK8QJSValue
libQt6Qml.so.6:_ZrsR11QDataStreamR8QJSValue
libc.so.6:__cxa_atexit
libc.so.6:__stack_chk_fail
libc.so.6:memcmp
libc.so.6:memcpy
libc.so.6:memmove
libc.so.6:strcmp
libc.so.6:strlen
libcanberra.so.0:ca_context_cancel
libcanberra.so.0:ca_context_change_props
libcanberra.so.0:ca_context_create
libcanberra.so.0:ca_context_destroy
libcanberra.so.0:ca_context_play_full
libcanberra.so.0:ca_proplist_create
libcanberra.so.0:ca_proplist_destroy
libcanberra.so.0:ca_proplist_sets
libcanberra.so.0:ca_strerror
libstdc++.so.6:_ZSt18_Rb_tree_decrementPSt18_Rb_tree_node_base
libstdc++.so.6:_ZSt18_Rb_tree_incrementPSt18_Rb_tree_node_base
libstdc++.so.6:_ZSt25__throw_bad_function_callv
libstdc++.so.6:_ZSt29_Rb_tree_insert_and_rebalancebPSt18_Rb_tree_node_baseS0_RS_
libstdc++.so.6:_ZTVN10__cxxabiv117__class_type_infoE
libstdc++.so.6:_ZTVN10__cxxabiv119__pointer_type_infoE
libstdc++.so.6:_ZTVN10__cxxabiv120__function_type_infoE
libstdc++.so.6:_ZTVN10__cxxabiv120__si_class_type_infoE
libstdc++.so.6:_ZdaPv
libstdc++.so.6:_ZdaPvm
libstdc++.so.6:_ZdlPv
libstdc++.so.6:_ZdlPvm
libstdc++.so.6:_Znam
libstdc++.so.6:_Znwm
libstdc++.so.6:__cxa_guard_acquire
libstdc++.so.6:__cxa_guard_release
libstdc++.so.6:__cxa_pure_virtual
