_mlt7.so:PyInit__mlt7
_mlt7.so:_Z15frame_get_imageRN3Mlt5FrameE16mlt_image_formatii
_mlt7.so:_Z18frame_get_waveformRN3Mlt5FrameEii
libmlt++-7.so.7:MLTPP_0.8.8
libmlt++-7.so.7:MLTPP_0.9.0
libmlt++-7.so.7:MLTPP_0.9.2
libmlt++-7.so.7:MLTPP_0.9.4
libmlt++-7.so.7:MLTPP_0.9.8
libmlt++-7.so.7:MLTPP_6.10.0
libmlt++-7.so.7:MLTPP_6.14.0
libmlt++-7.so.7:MLTPP_6.18.0
libmlt++-7.so.7:MLTPP_6.20.0
libmlt++-7.so.7:MLTPP_6.22.0
libmlt++-7.so.7:MLTPP_6.4.0
libmlt++-7.so.7:MLTPP_6.6.0
libmlt++-7.so.7:MLTPP_6.8.0
libmlt++-7.so.7:MLTPP_7.0.0
libmlt++-7.so.7:_ZN3Mlt10Multitrack10disconnectEi
libmlt++-7.so.7:_ZN3Mlt10Multitrack12get_producerEv
libmlt++-7.so.7:_ZN3Mlt10Multitrack14get_multitrackEv
libmlt++-7.so.7:_ZN3Mlt10Multitrack4clipE10mlt_whencei
libmlt++-7.so.7:_ZN3Mlt10Multitrack5countEv
libmlt++-7.so.7:_ZN3Mlt10Multitrack5trackEi
libmlt++-7.so.7:_ZN3Mlt10Multitrack6insertERNS_8ProducerEi
libmlt++-7.so.7:_ZN3Mlt10Multitrack7connectERNS_8ProducerEi
libmlt++-7.so.7:_ZN3Mlt10Multitrack7refreshEv
libmlt++-7.so.7:_ZN3Mlt10MultitrackC1EP16mlt_multitrack_s
libmlt++-7.so.7:_ZN3Mlt10MultitrackC1ERNS_7ServiceE
libmlt++-7.so.7:_ZN3Mlt10MultitrackC1ERS0_
libmlt++-7.so.7:_ZN3Mlt10MultitrackC2EP16mlt_multitrack_s
libmlt++-7.so.7:_ZN3Mlt10MultitrackC2ERNS_7ServiceE
libmlt++-7.so.7:_ZN3Mlt10MultitrackC2ERS0_
libmlt++-7.so.7:_ZN3Mlt10MultitrackD0Ev
libmlt++-7.so.7:_ZN3Mlt10MultitrackD1Ev
libmlt++-7.so.7:_ZN3Mlt10MultitrackD2Ev
libmlt++-7.so.7:_ZN3Mlt10Properties10fire_eventEPKc
libmlt++-7.so.7:_ZN3Mlt10Properties10get_doubleEPKc
libmlt++-7.so.7:_ZN3Mlt10Properties10parse_yamlEPKc
libmlt++-7.so.7:_ZN3Mlt10Properties10set_stringEPKcS2_
libmlt++-7.so.7:_ZN3Mlt10Properties11is_sequenceEv
libmlt++-7.so.7:_ZN3Mlt10Properties11pass_valuesERS0_PKc
libmlt++-7.so.7:_ZN3Mlt10Properties12anim_get_intEPKcii
libmlt++-7.so.7:_ZN3Mlt10Properties12delete_eventEPNS_5EventE
libmlt++-7.so.7:_ZN3Mlt10Properties13anim_get_rectEPKcii
libmlt++-7.so.7:_ZN3Mlt10Properties13get_animationEPKc
libmlt++-7.so.7:_ZN3Mlt10Properties13get_lcnumericEv
libmlt++-7.so.7:_ZN3Mlt10Properties13pass_propertyERS0_PKc
libmlt++-7.so.7:_ZN3Mlt10Properties13set_lcnumericEPKc
libmlt++-7.so.7:_ZN3Mlt10Properties14frames_to_timeEi15mlt_time_format
libmlt++-7.so.7:_ZN3Mlt10Properties14get_propertiesEv
libmlt++-7.so.7:_ZN3Mlt10Properties14serialise_yamlEv
libmlt++-7.so.7:_ZN3Mlt10Properties14setup_wait_forEPKc
libmlt++-7.so.7:_ZN3Mlt10Properties14time_to_framesEPKc
libmlt++-7.so.7:_ZN3Mlt10Properties15anim_get_doubleEPKcii
libmlt++-7.so.7:_ZN3Mlt10Properties15property_existsEPKc
libmlt++-7.so.7:_ZN3Mlt10Properties3getEPKc
libmlt++-7.so.7:_ZN3Mlt10Properties3getEi
libmlt++-7.so.7:_ZN3Mlt10Properties3getEi15mlt_time_format
libmlt++-7.so.7:_ZN3Mlt10Properties3setEPKc8mlt_rect
libmlt++-7.so.7:_ZN3Mlt10Properties3setEPKc9mlt_color
libmlt++-7.so.7:_ZN3Mlt10Properties3setEPKcPviPFvS3_EPFPcS3_iE
libmlt++-7.so.7:_ZN3Mlt10Properties3setEPKcS2_
libmlt++-7.so.7:_ZN3Mlt10Properties3setEPKcd
libmlt++-7.so.7:_ZN3Mlt10Properties3setEPKcddddd
libmlt++-7.so.7:_ZN3Mlt10Properties3setEPKci
libmlt++-7.so.7:_ZN3Mlt10Properties3setEPKcl
libmlt++-7.so.7:_ZN3Mlt10Properties4dumpEP8_IO_FILE
libmlt++-7.so.7:_ZN3Mlt10Properties4loadEPKc
libmlt++-7.so.7:_ZN3Mlt10Properties4lockEv
libmlt++-7.so.7:_ZN3Mlt10Properties4saveEPKc
libmlt++-7.so.7:_ZN3Mlt10Properties5blockEPv
libmlt++-7.so.7:_ZN3Mlt10Properties5clearEPKc
libmlt++-7.so.7:_ZN3Mlt10Properties5countEv
libmlt++-7.so.7:_ZN3Mlt10Properties5debugEPKcP8_IO_FILE
libmlt++-7.so.7:_ZN3Mlt10Properties5parseEPKc
libmlt++-7.so.7:_ZN3Mlt10Properties6listenEPKcPvPFvP16mlt_properties_sS3_14mlt_event_dataE
libmlt++-7.so.7:_ZN3Mlt10Properties6mirrorERS0_
libmlt++-7.so.7:_ZN3Mlt10Properties6presetEPKc
libmlt++-7.so.7:_ZN3Mlt10Properties6renameEPKcS2_
libmlt++-7.so.7:_ZN3Mlt10Properties6unlockEv
libmlt++-7.so.7:_ZN3Mlt10Properties7dec_refEv
libmlt++-7.so.7:_ZN3Mlt10Properties7get_intEPKc
libmlt++-7.so.7:_ZN3Mlt10Properties7inc_refEv
libmlt++-7.so.7:_ZN3Mlt10Properties7inheritERS0_
libmlt++-7.so.7:_ZN3Mlt10Properties7unblockEPv
libmlt++-7.so.7:_ZN3Mlt10Properties8anim_getEPKcii
libmlt++-7.so.7:_ZN3Mlt10Properties8anim_setEPKc8mlt_rectii17mlt_keyframe_type
libmlt++-7.so.7:_ZN3Mlt10Properties8anim_setEPKcS2_ii
libmlt++-7.so.7:_ZN3Mlt10Properties8anim_setEPKcdii17mlt_keyframe_type
libmlt++-7.so.7:_ZN3Mlt10Properties8anim_setEPKciii17mlt_keyframe_type
libmlt++-7.so.7:_ZN3Mlt10Properties8get_animEPKc
libmlt++-7.so.7:_ZN3Mlt10Properties8get_dataEPKc
libmlt++-7.so.7:_ZN3Mlt10Properties8get_dataEPKcRi
libmlt++-7.so.7:_ZN3Mlt10Properties8get_dataEiRi
libmlt++-7.so.7:_ZN3Mlt10Properties8get_nameEi
libmlt++-7.so.7:_ZN3Mlt10Properties8get_rectEPKc
libmlt++-7.so.7:_ZN3Mlt10Properties8get_timeEPKc15mlt_time_format
libmlt++-7.so.7:_ZN3Mlt10Properties8is_validEv
libmlt++-7.so.7:_ZN3Mlt10Properties8wait_forEPKc
libmlt++-7.so.7:_ZN3Mlt10Properties8wait_forEPNS_5EventEb
libmlt++-7.so.7:_ZN3Mlt10Properties9get_colorEPKc
libmlt++-7.so.7:_ZN3Mlt10Properties9get_int64EPKc
libmlt++-7.so.7:_ZN3Mlt10Properties9pass_listERS0_PKc
libmlt++-7.so.7:_ZN3Mlt10Properties9ref_countEv
libmlt++-7.so.7:_ZN3Mlt10PropertiesC1EP16mlt_properties_s
libmlt++-7.so.7:_ZN3Mlt10PropertiesC1EPKc
libmlt++-7.so.7:_ZN3Mlt10PropertiesC1EPv
libmlt++-7.so.7:_ZN3Mlt10PropertiesC1ERKS0_
libmlt++-7.so.7:_ZN3Mlt10PropertiesC1ERS0_
libmlt++-7.so.7:_ZN3Mlt10PropertiesC1Eb
libmlt++-7.so.7:_ZN3Mlt10PropertiesC1Ev
libmlt++-7.so.7:_ZN3Mlt10PropertiesC2EP16mlt_properties_s
libmlt++-7.so.7:_ZN3Mlt10PropertiesC2EPKc
libmlt++-7.so.7:_ZN3Mlt10PropertiesC2EPv
libmlt++-7.so.7:_ZN3Mlt10PropertiesC2ERKS0_
libmlt++-7.so.7:_ZN3Mlt10PropertiesC2ERS0_
libmlt++-7.so.7:_ZN3Mlt10PropertiesC2Eb
libmlt++-7.so.7:_ZN3Mlt10PropertiesC2Ev
libmlt++-7.so.7:_ZN3Mlt10PropertiesD0Ev
libmlt++-7.so.7:_ZN3Mlt10PropertiesD1Ev
libmlt++-7.so.7:_ZN3Mlt10PropertiesD2Ev
libmlt++-7.so.7:_ZN3Mlt10PropertiesaSERKS0_
libmlt++-7.so.7:_ZN3Mlt10Repository16register_serviceE16mlt_service_typePKcPFPvP13mlt_profile_sS1_S3_PKvE
libmlt++-7.so.7:_ZN3Mlt10Repository17register_metadataE16mlt_service_typePKcPFP16mlt_properties_sS1_S3_PvES6_
libmlt++-7.so.7:_ZN3Mlt10Repository6createERNS_7ProfileE16mlt_service_typePKcPv
libmlt++-7.so.7:_ZN3Mlt10Repository7presetsEv
libmlt++-7.so.7:_ZN3Mlt10RepositoryC1EP16mlt_repository_s
libmlt++-7.so.7:_ZN3Mlt10RepositoryC1EPKc
libmlt++-7.so.7:_ZN3Mlt10RepositoryC2EP16mlt_repository_s
libmlt++-7.so.7:_ZN3Mlt10RepositoryC2EPKc
libmlt++-7.so.7:_ZN3Mlt10RepositoryD1Ev
libmlt++-7.so.7:_ZN3Mlt10RepositoryD2Ev
libmlt++-7.so.7:_ZN3Mlt10Transition10get_lengthEv
libmlt++-7.so.7:_ZN3Mlt10Transition10set_tracksEii
libmlt++-7.so.7:_ZN3Mlt10Transition11get_a_trackEv
libmlt++-7.so.7:_ZN3Mlt10Transition11get_b_trackEv
libmlt++-7.so.7:_ZN3Mlt10Transition11get_serviceEv
libmlt++-7.so.7:_ZN3Mlt10Transition12get_positionERNS_5FrameE
libmlt++-7.so.7:_ZN3Mlt10Transition12get_progressERNS_5FrameE
libmlt++-7.so.7:_ZN3Mlt10Transition14get_transitionEv
libmlt++-7.so.7:_ZN3Mlt10Transition14set_in_and_outEii
libmlt++-7.so.7:_ZN3Mlt10Transition18get_progress_deltaERNS_5FrameE
libmlt++-7.so.7:_ZN3Mlt10Transition6get_inEv
libmlt++-7.so.7:_ZN3Mlt10Transition7connectERNS_7ServiceEii
libmlt++-7.so.7:_ZN3Mlt10Transition7connectERNS_8ProducerEii
libmlt++-7.so.7:_ZN3Mlt10Transition7get_outEv
libmlt++-7.so.7:_ZN3Mlt10TransitionC1EP13mlt_profile_sPKcS4_
libmlt++-7.so.7:_ZN3Mlt10TransitionC1EP16mlt_transition_s
libmlt++-7.so.7:_ZN3Mlt10TransitionC1ERKS0_
libmlt++-7.so.7:_ZN3Mlt10TransitionC1ERNS_7ProfileEPKcS4_
libmlt++-7.so.7:_ZN3Mlt10TransitionC1ERNS_7ServiceE
libmlt++-7.so.7:_ZN3Mlt10TransitionC1ERS0_
libmlt++-7.so.7:_ZN3Mlt10TransitionC1Ev
libmlt++-7.so.7:_ZN3Mlt10TransitionC2EP13mlt_profile_sPKcS4_
libmlt++-7.so.7:_ZN3Mlt10TransitionC2EP16mlt_transition_s
libmlt++-7.so.7:_ZN3Mlt10TransitionC2ERKS0_
libmlt++-7.so.7:_ZN3Mlt10TransitionC2ERNS_7ProfileEPKcS4_
libmlt++-7.so.7:_ZN3Mlt10TransitionC2ERNS_7ServiceE
libmlt++-7.so.7:_ZN3Mlt10TransitionC2ERS0_
libmlt++-7.so.7:_ZN3Mlt10TransitionC2Ev
libmlt++-7.so.7:_ZN3Mlt10TransitionD0Ev
libmlt++-7.so.7:_ZN3Mlt10TransitionD1Ev
libmlt++-7.so.7:_ZN3Mlt10TransitionD2Ev
libmlt++-7.so.7:_ZN3Mlt10TransitionaSERKS0_
libmlt++-7.so.7:_ZN3Mlt12PushConsumer10set_renderEiid
libmlt++-7.so.7:_ZN3Mlt12PushConsumer4pushEPNS_5FrameE
libmlt++-7.so.7:_ZN3Mlt12PushConsumer4pushERNS_5FrameE
libmlt++-7.so.7:_ZN3Mlt12PushConsumer5drainEv
libmlt++-7.so.7:_ZN3Mlt12PushConsumer7connectERNS_7ServiceE
libmlt++-7.so.7:_ZN3Mlt12PushConsumer9constructEi
libmlt++-7.so.7:_ZN3Mlt12PushConsumerC1ERNS_7ProfileEPKcS4_
libmlt++-7.so.7:_ZN3Mlt12PushConsumerC2ERNS_7ProfileEPKcS4_
libmlt++-7.so.7:_ZN3Mlt12PushConsumerD0Ev
libmlt++-7.so.7:_ZN3Mlt12PushConsumerD1Ev
libmlt++-7.so.7:_ZN3Mlt12PushConsumerD2Ev
libmlt++-7.so.7:_ZN3Mlt16FilteredConsumer4lastERNS_6FilterE
libmlt++-7.so.7:_ZN3Mlt16FilteredConsumer6attachERNS_6FilterE
libmlt++-7.so.7:_ZN3Mlt16FilteredConsumer6detachERNS_6FilterE
libmlt++-7.so.7:_ZN3Mlt16FilteredConsumer7connectERNS_7ServiceE
libmlt++-7.so.7:_ZN3Mlt16FilteredConsumerC1ERNS_7ProfileEPKcS4_
libmlt++-7.so.7:_ZN3Mlt16FilteredConsumerC1ERNS_8ConsumerE
libmlt++-7.so.7:_ZN3Mlt16FilteredConsumerC2ERNS_7ProfileEPKcS4_
libmlt++-7.so.7:_ZN3Mlt16FilteredConsumerC2ERNS_8ConsumerE
libmlt++-7.so.7:_ZN3Mlt16FilteredConsumerD0Ev
libmlt++-7.so.7:_ZN3Mlt16FilteredConsumerD1Ev
libmlt++-7.so.7:_ZN3Mlt16FilteredConsumerD2Ev
libmlt++-7.so.7:_ZN3Mlt16FilteredProducer6attachERNS_6FilterE
libmlt++-7.so.7:_ZN3Mlt16FilteredProducer6detachERNS_6FilterE
libmlt++-7.so.7:_ZN3Mlt16FilteredProducerC1ERNS_7ProfileEPKcS4_
libmlt++-7.so.7:_ZN3Mlt16FilteredProducerC2ERNS_7ProfileEPKcS4_
libmlt++-7.so.7:_ZN3Mlt16FilteredProducerD0Ev
libmlt++-7.so.7:_ZN3Mlt16FilteredProducerD1Ev
libmlt++-7.so.7:_ZN3Mlt16FilteredProducerD2Ev
libmlt++-7.so.7:_ZN3Mlt4Link12connect_nextERNS_8ProducerERNS_7ProfileE
libmlt++-7.so.7:_ZN3Mlt4Link12get_producerEv
libmlt++-7.so.7:_ZN3Mlt4Link8get_linkEv
libmlt++-7.so.7:_ZN3Mlt4LinkC1EP10mlt_link_s
libmlt++-7.so.7:_ZN3Mlt4LinkC1EPKcS2_
libmlt++-7.so.7:_ZN3Mlt4LinkC1Ev
libmlt++-7.so.7:_ZN3Mlt4LinkC2EP10mlt_link_s
libmlt++-7.so.7:_ZN3Mlt4LinkC2EPKcS2_
libmlt++-7.so.7:_ZN3Mlt4LinkC2Ev
libmlt++-7.so.7:_ZN3Mlt4LinkD0Ev
libmlt++-7.so.7:_ZN3Mlt4LinkD1Ev
libmlt++-7.so.7:_ZN3Mlt4LinkD2Ev
libmlt++-7.so.7:_ZN3Mlt5Audio10set_formatE16mlt_audio_format
libmlt++-7.so.7:_ZN3Mlt5Audio10set_layoutE18mlt_channel_layout
libmlt++-7.so.7:_ZN3Mlt5Audio11set_samplesEi
libmlt++-7.so.7:_ZN3Mlt5Audio12set_channelsEi
libmlt++-7.so.7:_ZN3Mlt5Audio13set_frequencyEi
libmlt++-7.so.7:_ZN3Mlt5Audio4dataEv
libmlt++-7.so.7:_ZN3Mlt5Audio6formatEv
libmlt++-7.so.7:_ZN3Mlt5Audio6layoutEv
libmlt++-7.so.7:_ZN3Mlt5Audio7samplesEv
libmlt++-7.so.7:_ZN3Mlt5Audio8channelsEv
libmlt++-7.so.7:_ZN3Mlt5Audio8set_dataEPv
libmlt++-7.so.7:_ZN3Mlt5Audio9frequencyEv
libmlt++-7.so.7:_ZN3Mlt5AudioC1EP11mlt_audio_s
libmlt++-7.so.7:_ZN3Mlt5AudioC1Ev
libmlt++-7.so.7:_ZN3Mlt5AudioC2EP11mlt_audio_s
libmlt++-7.so.7:_ZN3Mlt5AudioC2Ev
libmlt++-7.so.7:_ZN3Mlt5AudioD0Ev
libmlt++-7.so.7:_ZN3Mlt5AudioD1Ev
libmlt++-7.so.7:_ZN3Mlt5AudioD2Ev
libmlt++-7.so.7:_ZN3Mlt5Chain10get_sourceEv
libmlt++-7.so.7:_ZN3Mlt5Chain10set_sourceERNS_8ProducerE
libmlt++-7.so.7:_ZN3Mlt5Chain12get_producerEv
libmlt++-7.so.7:_ZN3Mlt5Chain4linkEi
libmlt++-7.so.7:_ZN3Mlt5Chain6attachERNS_4LinkE
libmlt++-7.so.7:_ZN3Mlt5Chain6detachERNS_4LinkE
libmlt++-7.so.7:_ZN3Mlt5Chain9get_chainEv
libmlt++-7.so.7:_ZN3Mlt5Chain9move_linkEii
libmlt++-7.so.7:_ZN3Mlt5ChainC1EPS0_
libmlt++-7.so.7:_ZN3Mlt5ChainC1ERNS_7ProfileE
libmlt++-7.so.7:_ZN3Mlt5ChainC1ERNS_7ProfileEPKcS4_
libmlt++-7.so.7:_ZN3Mlt5ChainC1ERNS_7ServiceE
libmlt++-7.so.7:_ZN3Mlt5ChainC1ERS0_
libmlt++-7.so.7:_ZN3Mlt5ChainC1Ev
libmlt++-7.so.7:_ZN3Mlt5ChainC2EPS0_
libmlt++-7.so.7:_ZN3Mlt5ChainC2ERNS_7ProfileE
libmlt++-7.so.7:_ZN3Mlt5ChainC2ERNS_7ProfileEPKcS4_
libmlt++-7.so.7:_ZN3Mlt5ChainC2ERNS_7ServiceE
libmlt++-7.so.7:_ZN3Mlt5ChainC2ERS0_
libmlt++-7.so.7:_ZN3Mlt5ChainC2Ev
libmlt++-7.so.7:_ZN3Mlt5ChainD0Ev
libmlt++-7.so.7:_ZN3Mlt5ChainD1Ev
libmlt++-7.so.7:_ZN3Mlt5ChainD2Ev
libmlt++-7.so.7:_ZN3Mlt5Deque10peek_frontEv
libmlt++-7.so.7:_ZN3Mlt5Deque10push_frontEPv
libmlt++-7.so.7:_ZN3Mlt5Deque4peekEi
libmlt++-7.so.7:_ZN3Mlt5Deque5countEv
libmlt++-7.so.7:_ZN3Mlt5Deque8pop_backEv
libmlt++-7.so.7:_ZN3Mlt5Deque9peek_backEv
libmlt++-7.so.7:_ZN3Mlt5Deque9pop_frontEv
libmlt++-7.so.7:_ZN3Mlt5Deque9push_backEPv
libmlt++-7.so.7:_ZN3Mlt5DequeC1Ev
libmlt++-7.so.7:_ZN3Mlt5DequeC2Ev
libmlt++-7.so.7:_ZN3Mlt5DequeD1Ev
libmlt++-7.so.7:_ZN3Mlt5DequeD2Ev
libmlt++-7.so.7:_ZN3Mlt5Event5blockEv
libmlt++-7.so.7:_ZN3Mlt5Event7unblockEv
libmlt++-7.so.7:_ZN3Mlt5Event8is_validEv
libmlt++-7.so.7:_ZN3Mlt5Event9get_eventEv
libmlt++-7.so.7:_ZN3Mlt5EventC1EP16mlt_event_struct
libmlt++-7.so.7:_ZN3Mlt5EventC1ERS0_
libmlt++-7.so.7:_ZN3Mlt5EventC2EP16mlt_event_struct
libmlt++-7.so.7:_ZN3Mlt5EventC2ERS0_
libmlt++-7.so.7:_ZN3Mlt5EventD1Ev
libmlt++-7.so.7:_ZN3Mlt5EventD2Ev
libmlt++-7.so.7:_ZN3Mlt5Field11get_serviceEv
libmlt++-7.so.7:_ZN3Mlt5Field12plant_filterERNS_6FilterEi
libmlt++-7.so.7:_ZN3Mlt5Field16plant_transitionERNS_10TransitionEii
libmlt++-7.so.7:_ZN3Mlt5Field18disconnect_serviceERNS_7ServiceE
libmlt++-7.so.7:_ZN3Mlt5Field9get_fieldEv
libmlt++-7.so.7:_ZN3Mlt5FieldC1EP11mlt_field_s
libmlt++-7.so.7:_ZN3Mlt5FieldC1ERS0_
libmlt++-7.so.7:_ZN3Mlt5FieldC2EP11mlt_field_s
libmlt++-7.so.7:_ZN3Mlt5FieldC2ERS0_
libmlt++-7.so.7:_ZN3Mlt5FieldD0Ev
libmlt++-7.so.7:_ZN3Mlt5FieldD1Ev
libmlt++-7.so.7:_ZN3Mlt5FieldD2Ev
libmlt++-7.so.7:_ZN3Mlt5Frame11fetch_imageE16mlt_image_formatiii
libmlt++-7.so.7:_ZN3Mlt5Frame12get_positionEv
libmlt++-7.so.7:_ZN3Mlt5Frame12get_waveformEii
libmlt++-7.so.7:_ZN3Mlt5Frame14get_propertiesEv
libmlt++-7.so.7:_ZN3Mlt5Frame21get_original_producerEv
libmlt++-7.so.7:_ZN3Mlt5Frame21get_unique_propertiesERNS_7ServiceE
libmlt++-7.so.7:_ZN3Mlt5Frame9get_audioER16mlt_audio_formatRiS3_S3_
libmlt++-7.so.7:_ZN3Mlt5Frame9get_frameEv
libmlt++-7.so.7:_ZN3Mlt5Frame9get_imageER16mlt_image_formatRiS3_i
libmlt++-7.so.7:_ZN3Mlt5Frame9set_alphaEPhiPFvPvE
libmlt++-7.so.7:_ZN3Mlt5Frame9set_imageEPhiPFvPvE
libmlt++-7.so.7:_ZN3Mlt5FrameC1EP11mlt_frame_s
libmlt++-7.so.7:_ZN3Mlt5FrameC1ERKS0_
libmlt++-7.so.7:_ZN3Mlt5FrameC1ERS0_
libmlt++-7.so.7:_ZN3Mlt5FrameC1Ev
libmlt++-7.so.7:_ZN3Mlt5FrameC2EP11mlt_frame_s
libmlt++-7.so.7:_ZN3Mlt5FrameC2ERKS0_
libmlt++-7.so.7:_ZN3Mlt5FrameC2ERS0_
libmlt++-7.so.7:_ZN3Mlt5FrameC2Ev
libmlt++-7.so.7:_ZN3Mlt5FrameD0Ev
libmlt++-7.so.7:_ZN3Mlt5FrameD1Ev
libmlt++-7.so.7:_ZN3Mlt5FrameD2Ev
libmlt++-7.so.7:_ZN3Mlt5FrameaSERKS0_
libmlt++-7.so.7:_ZN3Mlt5Image10colorspaceEv
libmlt++-7.so.7:_ZN3Mlt5Image10init_alphaEv
libmlt++-7.so.7:_ZN3Mlt5Image14set_colorspaceEi
libmlt++-7.so.7:_ZN3Mlt5Image5allocEii16mlt_image_formatb
libmlt++-7.so.7:_ZN3Mlt5Image5planeEi
libmlt++-7.so.7:_ZN3Mlt5Image5widthEv
libmlt++-7.so.7:_ZN3Mlt5Image6formatEv
libmlt++-7.so.7:_ZN3Mlt5Image6heightEv
libmlt++-7.so.7:_ZN3Mlt5Image6strideEi
libmlt++-7.so.7:_ZN3Mlt5ImageC1EP11mlt_image_s
libmlt++-7.so.7:_ZN3Mlt5ImageC1Eii16mlt_image_format
libmlt++-7.so.7:_ZN3Mlt5ImageC1Ev
libmlt++-7.so.7:_ZN3Mlt5ImageC2EP11mlt_image_s
libmlt++-7.so.7:_ZN3Mlt5ImageC2Eii16mlt_image_format
libmlt++-7.so.7:_ZN3Mlt5ImageC2Ev
libmlt++-7.so.7:_ZN3Mlt5ImageD0Ev
libmlt++-7.so.7:_ZN3Mlt5ImageD1Ev
libmlt++-7.so.7:_ZN3Mlt5ImageD2Ev
libmlt++-7.so.7:_ZN3Mlt6Filter10get_filterEv
libmlt++-7.so.7:_ZN3Mlt6Filter10get_lengthEv
libmlt++-7.so.7:_ZN3Mlt6Filter11get_length2ERNS_5FrameE
libmlt++-7.so.7:_ZN3Mlt6Filter11get_serviceEv
libmlt++-7.so.7:_ZN3Mlt6Filter12get_positionERNS_5FrameE
libmlt++-7.so.7:_ZN3Mlt6Filter12get_progressERNS_5FrameE
libmlt++-7.so.7:_ZN3Mlt6Filter14set_in_and_outEii
libmlt++-7.so.7:_ZN3Mlt6Filter6get_inEv
libmlt++-7.so.7:_ZN3Mlt6Filter7connectERNS_7ServiceEi
libmlt++-7.so.7:_ZN3Mlt6Filter7get_outEv
libmlt++-7.so.7:_ZN3Mlt6Filter7processERNS_5FrameE
libmlt++-7.so.7:_ZN3Mlt6Filter9get_trackEv
libmlt++-7.so.7:_ZN3Mlt6FilterC1EP12mlt_filter_s
libmlt++-7.so.7:_ZN3Mlt6FilterC1EP13mlt_profile_sPKcS4_
libmlt++-7.so.7:_ZN3Mlt6FilterC1ERKS0_
libmlt++-7.so.7:_ZN3Mlt6FilterC1ERNS_7ProfileEPKcS4_
libmlt++-7.so.7:_ZN3Mlt6FilterC1ERNS_7ServiceE
libmlt++-7.so.7:_ZN3Mlt6FilterC1ERS0_
libmlt++-7.so.7:_ZN3Mlt6FilterC1Ev
libmlt++-7.so.7:_ZN3Mlt6FilterC2EP12mlt_filter_s
libmlt++-7.so.7:_ZN3Mlt6FilterC2EP13mlt_profile_sPKcS4_
libmlt++-7.so.7:_ZN3Mlt6FilterC2ERKS0_
libmlt++-7.so.7:_ZN3Mlt6FilterC2ERNS_7ProfileEPKcS4_
libmlt++-7.so.7:_ZN3Mlt6FilterC2ERNS_7ServiceE
libmlt++-7.so.7:_ZN3Mlt6FilterC2ERS0_
libmlt++-7.so.7:_ZN3Mlt6FilterC2Ev
libmlt++-7.so.7:_ZN3Mlt6FilterD0Ev
libmlt++-7.so.7:_ZN3Mlt6FilterD1Ev
libmlt++-7.so.7:_ZN3Mlt6FilterD2Ev
libmlt++-7.so.7:_ZN3Mlt6FilteraSERKS0_
libmlt++-7.so.7:_ZN3Mlt6Parser10on_invalidEPNS_7ServiceE
libmlt++-7.so.7:_ZN3Mlt6Parser10on_unknownEPNS_7ServiceE
libmlt++-7.so.7:_ZN3Mlt6Parser11on_end_linkEPNS_4LinkE
libmlt++-7.so.7:_ZN3Mlt6Parser12on_end_chainEPNS_5ChainE
libmlt++-7.so.7:_ZN3Mlt6Parser12on_end_trackEv
libmlt++-7.so.7:_ZN3Mlt6Parser13on_end_filterEPNS_6FilterE
libmlt++-7.so.7:_ZN3Mlt6Parser13on_start_linkEPNS_4LinkE
libmlt++-7.so.7:_ZN3Mlt6Parser14get_propertiesEv
libmlt++-7.so.7:_ZN3Mlt6Parser14on_end_tractorEPNS_7TractorE
libmlt++-7.so.7:_ZN3Mlt6Parser14on_start_chainEPNS_5ChainE
libmlt++-7.so.7:_ZN3Mlt6Parser14on_start_trackEv
libmlt++-7.so.7:_ZN3Mlt6Parser15on_end_playlistEPNS_8PlaylistE
libmlt++-7.so.7:_ZN3Mlt6Parser15on_end_producerEPNS_8ProducerE
libmlt++-7.so.7:_ZN3Mlt6Parser15on_start_filterEPNS_6FilterE
libmlt++-7.so.7:_ZN3Mlt6Parser16on_start_tractorEPNS_7TractorE
libmlt++-7.so.7:_ZN3Mlt6Parser17on_end_multitrackEPNS_10MultitrackE
libmlt++-7.so.7:_ZN3Mlt6Parser17on_end_transitionEPNS_10TransitionE
libmlt++-7.so.7:_ZN3Mlt6Parser17on_start_playlistEPNS_8PlaylistE
libmlt++-7.so.7:_ZN3Mlt6Parser17on_start_producerEPNS_8ProducerE
libmlt++-7.so.7:_ZN3Mlt6Parser19on_start_multitrackEPNS_10MultitrackE
libmlt++-7.so.7:_ZN3Mlt6Parser19on_start_transitionEPNS_10TransitionE
libmlt++-7.so.7:_ZN3Mlt6Parser5startERNS_7ServiceE
libmlt++-7.so.7:_ZN3Mlt6ParserC1Ev
libmlt++-7.so.7:_ZN3Mlt6ParserC2Ev
libmlt++-7.so.7:_ZN3Mlt6ParserD0Ev
libmlt++-7.so.7:_ZN3Mlt6ParserD1Ev
libmlt++-7.so.7:_ZN3Mlt6ParserD2Ev
libmlt++-7.so.7:_ZN3Mlt7Factory10transitionERNS_7ProfileEPcS3_
libmlt++-7.so.7:_ZN3Mlt7Factory12event_objectEv
libmlt++-7.so.7:_ZN3Mlt7Factory4initEPKc
libmlt++-7.so.7:_ZN3Mlt7Factory5closeEv
libmlt++-7.so.7:_ZN3Mlt7Factory6filterERNS_7ProfileEPcS3_
libmlt++-7.so.7:_ZN3Mlt7Factory8consumerERNS_7ProfileEPcS3_
libmlt++-7.so.7:_ZN3Mlt7Factory8producerERNS_7ProfileEPcS3_
libmlt++-7.so.7:_ZN3Mlt7Profile10set_heightEi
libmlt++-7.so.7:_ZN3Mlt7Profile11scale_widthEi
libmlt++-7.so.7:_ZN3Mlt7Profile12scale_heightEi
libmlt++-7.so.7:_ZN3Mlt7Profile12set_explicitEi
libmlt++-7.so.7:_ZN3Mlt7Profile13from_producerERNS_8ProducerE
libmlt++-7.so.7:_ZN3Mlt7Profile14set_colorspaceEi
libmlt++-7.so.7:_ZN3Mlt7Profile14set_frame_rateEii
libmlt++-7.so.7:_ZN3Mlt7Profile15set_progressiveEi
libmlt++-7.so.7:_ZN3Mlt7Profile17set_sample_aspectEii
libmlt++-7.so.7:_ZN3Mlt7Profile18set_display_aspectEii
libmlt++-7.so.7:_ZN3Mlt7Profile4listEv
libmlt++-7.so.7:_ZN3Mlt7Profile9set_widthEi
libmlt++-7.so.7:_ZN3Mlt7ProfileC1EP13mlt_profile_s
libmlt++-7.so.7:_ZN3Mlt7ProfileC1EPKc
libmlt++-7.so.7:_ZN3Mlt7ProfileC1ERNS_10PropertiesE
libmlt++-7.so.7:_ZN3Mlt7ProfileC1Ev
libmlt++-7.so.7:_ZN3Mlt7ProfileC2EP13mlt_profile_s
libmlt++-7.so.7:_ZN3Mlt7ProfileC2EPKc
libmlt++-7.so.7:_ZN3Mlt7ProfileC2ERNS_10PropertiesE
libmlt++-7.so.7:_ZN3Mlt7ProfileC2Ev
libmlt++-7.so.7:_ZN3Mlt7ProfileD1Ev
libmlt++-7.so.7:_ZN3Mlt7ProfileD2Ev
libmlt++-7.so.7:_ZN3Mlt7Service11get_profileEv
libmlt++-7.so.7:_ZN3Mlt7Service11get_serviceEv
libmlt++-7.so.7:_ZN3Mlt7Service11move_filterEii
libmlt++-7.so.7:_ZN3Mlt7Service11set_profileEP13mlt_profile_s
libmlt++-7.so.7:_ZN3Mlt7Service11set_profileERNS_7ProfileE
libmlt++-7.so.7:_ZN3Mlt7Service12filter_countEv
libmlt++-7.so.7:_ZN3Mlt7Service14get_propertiesEv
libmlt++-7.so.7:_ZN3Mlt7Service15insert_producerERS0_i
libmlt++-7.so.7:_ZN3Mlt7Service16connect_producerERS0_i
libmlt++-7.so.7:_ZN3Mlt7Service19disconnect_producerEi
libmlt++-7.so.7:_ZN3Mlt7Service24disconnect_all_producersEv
libmlt++-7.so.7:_ZN3Mlt7Service4lockEv
libmlt++-7.so.7:_ZN3Mlt7Service4typeEv
libmlt++-7.so.7:_ZN3Mlt7Service6attachERNS_6FilterE
libmlt++-7.so.7:_ZN3Mlt7Service6detachERNS_6FilterE
libmlt++-7.so.7:_ZN3Mlt7Service6filterEi
libmlt++-7.so.7:_ZN3Mlt7Service6unlockEv
libmlt++-7.so.7:_ZN3Mlt7Service7profileEv
libmlt++-7.so.7:_ZN3Mlt7Service8consumerEv
libmlt++-7.so.7:_ZN3Mlt7Service8producerEv
libmlt++-7.so.7:_ZN3Mlt7Service9get_frameEi
libmlt++-7.so.7:_ZN3Mlt7ServiceC1EP13mlt_service_s
libmlt++-7.so.7:_ZN3Mlt7ServiceC1ERKS0_
libmlt++-7.so.7:_ZN3Mlt7ServiceC1ERS0_
libmlt++-7.so.7:_ZN3Mlt7ServiceC1Ev
libmlt++-7.so.7:_ZN3Mlt7ServiceC2EP13mlt_service_s
libmlt++-7.so.7:_ZN3Mlt7ServiceC2ERKS0_
libmlt++-7.so.7:_ZN3Mlt7ServiceC2ERS0_
libmlt++-7.so.7:_ZN3Mlt7ServiceC2Ev
libmlt++-7.so.7:_ZN3Mlt7ServiceD0Ev
libmlt++-7.so.7:_ZN3Mlt7ServiceD1Ev
libmlt++-7.so.7:_ZN3Mlt7ServiceD2Ev
libmlt++-7.so.7:_ZN3Mlt7ServiceaSERKS0_
libmlt++-7.so.7:_ZN3Mlt7Tractor10locate_cutEPNS_8ProducerERiS3_
libmlt++-7.so.7:_ZN3Mlt7Tractor10multitrackEv
libmlt++-7.so.7:_ZN3Mlt7Tractor11get_tractorEv
libmlt++-7.so.7:_ZN3Mlt7Tractor12get_producerEv
libmlt++-7.so.7:_ZN3Mlt7Tractor12insert_trackERNS_8ProducerEi
libmlt++-7.so.7:_ZN3Mlt7Tractor12plant_filterEPNS_6FilterEi
libmlt++-7.so.7:_ZN3Mlt7Tractor12plant_filterERNS_6FilterEi
libmlt++-7.so.7:_ZN3Mlt7Tractor12remove_trackEi
libmlt++-7.so.7:_ZN3Mlt7Tractor16plant_transitionEPNS_10TransitionEii
libmlt++-7.so.7:_ZN3Mlt7Tractor16plant_transitionERNS_10TransitionEii
libmlt++-7.so.7:_ZN3Mlt7Tractor5countEv
libmlt++-7.so.7:_ZN3Mlt7Tractor5fieldEv
libmlt++-7.so.7:_ZN3Mlt7Tractor5trackEi
libmlt++-7.so.7:_ZN3Mlt7Tractor7connectERNS_8ProducerE
libmlt++-7.so.7:_ZN3Mlt7Tractor7refreshEv
libmlt++-7.so.7:_ZN3Mlt7Tractor9set_trackERNS_8ProducerEi
libmlt++-7.so.7:_ZN3Mlt7TractorC1EP13mlt_profile_sPcS3_
libmlt++-7.so.7:_ZN3Mlt7TractorC1EP13mlt_tractor_s
libmlt++-7.so.7:_ZN3Mlt7TractorC1ERNS_7ProfileE
libmlt++-7.so.7:_ZN3Mlt7TractorC1ERNS_7ProfileEPcS3_
libmlt++-7.so.7:_ZN3Mlt7TractorC1ERNS_7ServiceE
libmlt++-7.so.7:_ZN3Mlt7TractorC1ERS0_
libmlt++-7.so.7:_ZN3Mlt7TractorC1Ev
libmlt++-7.so.7:_ZN3Mlt7TractorC2EP13mlt_profile_sPcS3_
libmlt++-7.so.7:_ZN3Mlt7TractorC2EP13mlt_tractor_s
libmlt++-7.so.7:_ZN3Mlt7TractorC2ERNS_7ProfileE
libmlt++-7.so.7:_ZN3Mlt7TractorC2ERNS_7ProfileEPcS3_
libmlt++-7.so.7:_ZN3Mlt7TractorC2ERNS_7ServiceE
libmlt++-7.so.7:_ZN3Mlt7TractorC2ERS0_
libmlt++-7.so.7:_ZN3Mlt7TractorC2Ev
libmlt++-7.so.7:_ZN3Mlt7TractorD0Ev
libmlt++-7.so.7:_ZN3Mlt7TractorD1Ev
libmlt++-7.so.7:_ZN3Mlt7TractorD2Ev
libmlt++-7.so.7:_ZN3Mlt8ClipInfo6updateEP22mlt_playlist_clip_info
libmlt++-7.so.7:_ZN3Mlt8ClipInfoC1EP22mlt_playlist_clip_info
libmlt++-7.so.7:_ZN3Mlt8ClipInfoC1Ev
libmlt++-7.so.7:_ZN3Mlt8ClipInfoC2EP22mlt_playlist_clip_info
libmlt++-7.so.7:_ZN3Mlt8ClipInfoC2Ev
libmlt++-7.so.7:_ZN3Mlt8ClipInfoD1Ev
libmlt++-7.so.7:_ZN3Mlt8ClipInfoD2Ev
libmlt++-7.so.7:_ZN3Mlt8Consumer10is_stoppedEv
libmlt++-7.so.7:_ZN3Mlt8Consumer11get_serviceEv
libmlt++-7.so.7:_ZN3Mlt8Consumer12get_consumerEv
libmlt++-7.so.7:_ZN3Mlt8Consumer3runEv
libmlt++-7.so.7:_ZN3Mlt8Consumer4stopEv
libmlt++-7.so.7:_ZN3Mlt8Consumer5purgeEv
libmlt++-7.so.7:_ZN3Mlt8Consumer5startEv
libmlt++-7.so.7:_ZN3Mlt8Consumer7connectERNS_7ServiceE
libmlt++-7.so.7:_ZN3Mlt8Consumer8positionEv
libmlt++-7.so.7:_ZN3Mlt8ConsumerC1EP13mlt_profile_sPKcS4_
libmlt++-7.so.7:_ZN3Mlt8ConsumerC1EP14mlt_consumer_s
libmlt++-7.so.7:_ZN3Mlt8ConsumerC1ERNS_7ProfileE
libmlt++-7.so.7:_ZN3Mlt8ConsumerC1ERNS_7ProfileEPKcS4_
libmlt++-7.so.7:_ZN3Mlt8ConsumerC1ERNS_7ServiceE
libmlt++-7.so.7:_ZN3Mlt8ConsumerC1ERS0_
libmlt++-7.so.7:_ZN3Mlt8ConsumerC1Ev
libmlt++-7.so.7:_ZN3Mlt8ConsumerC2EP13mlt_profile_sPKcS4_
libmlt++-7.so.7:_ZN3Mlt8ConsumerC2EP14mlt_consumer_s
libmlt++-7.so.7:_ZN3Mlt8ConsumerC2ERNS_7ProfileE
libmlt++-7.so.7:_ZN3Mlt8ConsumerC2ERNS_7ProfileEPKcS4_
libmlt++-7.so.7:_ZN3Mlt8ConsumerC2ERNS_7ServiceE
libmlt++-7.so.7:_ZN3Mlt8ConsumerC2ERS0_
libmlt++-7.so.7:_ZN3Mlt8ConsumerC2Ev
libmlt++-7.so.7:_ZN3Mlt8ConsumerD0Ev
libmlt++-7.so.7:_ZN3Mlt8ConsumerD1Ev
libmlt++-7.so.7:_ZN3Mlt8ConsumerD2Ev
libmlt++-7.so.7:_ZN3Mlt8Playlist10clip_startEi
libmlt++-7.so.7:_ZN3Mlt8Playlist10pad_blanksEiii
libmlt++-7.so.7:_ZN3Mlt8Playlist11blanks_fromEii
libmlt++-7.so.7:_ZN3Mlt8Playlist11clip_lengthEi
libmlt++-7.so.7:_ZN3Mlt8Playlist11get_clip_atEi
libmlt++-7.so.7:_ZN3Mlt8Playlist11is_blank_atEi
libmlt++-7.so.7:_ZN3Mlt8Playlist11resize_clipEiii
libmlt++-7.so.7:_ZN3Mlt8Playlist12current_clipEv
libmlt++-7.so.7:_ZN3Mlt8Playlist12get_playlistEv
libmlt++-7.so.7:_ZN3Mlt8Playlist12get_producerEv
libmlt++-7.so.7:_ZN3Mlt8Playlist12insert_blankEii
libmlt++-7.so.7:_ZN3Mlt8Playlist13remove_regionEii
libmlt++-7.so.7:_ZN3Mlt8Playlist16delete_clip_infoEPNS_8ClipInfoE
libmlt++-7.so.7:_ZN3Mlt8Playlist17get_clip_index_atEi
libmlt++-7.so.7:_ZN3Mlt8Playlist18consolidate_blanksEi
libmlt++-7.so.7:_ZN3Mlt8Playlist18replace_with_blankEi
libmlt++-7.so.7:_ZN3Mlt8Playlist3mixEiiPNS_10TransitionE
libmlt++-7.so.7:_ZN3Mlt8Playlist4clipE10mlt_whencei
libmlt++-7.so.7:_ZN3Mlt8Playlist4joinEiii
libmlt++-7.so.7:_ZN3Mlt8Playlist4moveEii
libmlt++-7.so.7:_ZN3Mlt8Playlist5blankEPKc
libmlt++-7.so.7:_ZN3Mlt8Playlist5blankEi
libmlt++-7.so.7:_ZN3Mlt8Playlist5clearEv
libmlt++-7.so.7:_ZN3Mlt8Playlist5countEv
libmlt++-7.so.7:_ZN3Mlt8Playlist5splitEii
libmlt++-7.so.7:_ZN3Mlt8Playlist6appendERNS_8ProducerEii
libmlt++-7.so.7:_ZN3Mlt8Playlist6insertERNS_8ProducerEiii
libmlt++-7.so.7:_ZN3Mlt8Playlist6is_mixEi
libmlt++-7.so.7:_ZN3Mlt8Playlist6mix_inEii
libmlt++-7.so.7:_ZN3Mlt8Playlist6removeEi
libmlt++-7.so.7:_ZN3Mlt8Playlist6repeatEii
libmlt++-7.so.7:_ZN3Mlt8Playlist7currentEv
libmlt++-7.so.7:_ZN3Mlt8Playlist7mix_addEiPNS_10TransitionE
libmlt++-7.so.7:_ZN3Mlt8Playlist7mix_outEii
libmlt++-7.so.7:_ZN3Mlt8Playlist7reorderEPKi
libmlt++-7.so.7:_ZN3Mlt8Playlist8get_clipEi
libmlt++-7.so.7:_ZN3Mlt8Playlist8is_blankEi
libmlt++-7.so.7:_ZN3Mlt8Playlist8split_atEib
libmlt++-7.so.7:_ZN3Mlt8Playlist9clip_infoEiPNS_8ClipInfoE
libmlt++-7.so.7:_ZN3Mlt8Playlist9insert_atEiPNS_8ProducerEi
libmlt++-7.so.7:_ZN3Mlt8Playlist9insert_atEiRNS_8ProducerEi
libmlt++-7.so.7:_ZN3Mlt8PlaylistC1EP14mlt_playlist_s
libmlt++-7.so.7:_ZN3Mlt8PlaylistC1ERNS_7ProfileE
libmlt++-7.so.7:_ZN3Mlt8PlaylistC1ERNS_7ServiceE
libmlt++-7.so.7:_ZN3Mlt8PlaylistC1ERS0_
libmlt++-7.so.7:_ZN3Mlt8PlaylistC1Ev
libmlt++-7.so.7:_ZN3Mlt8PlaylistC2EP14mlt_playlist_s
libmlt++-7.so.7:_ZN3Mlt8PlaylistC2ERNS_7ProfileE
libmlt++-7.so.7:_ZN3Mlt8PlaylistC2ERNS_7ServiceE
libmlt++-7.so.7:_ZN3Mlt8PlaylistC2ERS0_
libmlt++-7.so.7:_ZN3Mlt8PlaylistC2Ev
libmlt++-7.so.7:_ZN3Mlt8PlaylistD0Ev
libmlt++-7.so.7:_ZN3Mlt8PlaylistD1Ev
libmlt++-7.so.7:_ZN3Mlt8PlaylistD2Ev
libmlt++-7.so.7:_ZN3Mlt8Producer10frame_timeE15mlt_time_format
libmlt++-7.so.7:_ZN3Mlt8Producer10get_lengthEv
libmlt++-7.so.7:_ZN3Mlt8Producer10get_parentEv
libmlt++-7.so.7:_ZN3Mlt8Producer11get_serviceEv
libmlt++-7.so.7:_ZN3Mlt8Producer12get_playtimeEv
libmlt++-7.so.7:_ZN3Mlt8Producer12get_producerEv
libmlt++-7.so.7:_ZN3Mlt8Producer14set_in_and_outEii
libmlt++-7.so.7:_ZN3Mlt8Producer15get_length_timeE15mlt_time_format
libmlt++-7.so.7:_ZN3Mlt8Producer17get_creation_timeEv
libmlt++-7.so.7:_ZN3Mlt8Producer17set_creation_timeEl
libmlt++-7.so.7:_ZN3Mlt8Producer3cutEii
libmlt++-7.so.7:_ZN3Mlt8Producer4seekEPKc
libmlt++-7.so.7:_ZN3Mlt8Producer4seekEi
libmlt++-7.so.7:_ZN3Mlt8Producer5clearEv
libmlt++-7.so.7:_ZN3Mlt8Producer5frameEv
libmlt++-7.so.7:_ZN3Mlt8Producer5pauseEv
libmlt++-7.so.7:_ZN3Mlt8Producer6get_inEv
libmlt++-7.so.7:_ZN3Mlt8Producer6is_cutEv
libmlt++-7.so.7:_ZN3Mlt8Producer6parentEv
libmlt++-7.so.7:_ZN3Mlt8Producer7get_fpsEv
libmlt++-7.so.7:_ZN3Mlt8Producer7get_outEv
libmlt++-7.so.7:_ZN3Mlt8Producer8is_blankEv
libmlt++-7.so.7:_ZN3Mlt8Producer8optimiseEv
libmlt++-7.so.7:_ZN3Mlt8Producer8positionEv
libmlt++-7.so.7:_ZN3Mlt8Producer9get_speedEv
libmlt++-7.so.7:_ZN3Mlt8Producer9runs_intoERS0_
libmlt++-7.so.7:_ZN3Mlt8Producer9same_clipERS0_
libmlt++-7.so.7:_ZN3Mlt8Producer9set_speedEd
libmlt++-7.so.7:_ZN3Mlt8ProducerC1EP13mlt_profile_sPKcS4_
libmlt++-7.so.7:_ZN3Mlt8ProducerC1EP14mlt_producer_s
libmlt++-7.so.7:_ZN3Mlt8ProducerC1EPS0_
libmlt++-7.so.7:_ZN3Mlt8ProducerC1ERKS0_
libmlt++-7.so.7:_ZN3Mlt8ProducerC1ERNS_7ProfileEPKcS4_
libmlt++-7.so.7:_ZN3Mlt8ProducerC1ERNS_7ServiceE
libmlt++-7.so.7:_ZN3Mlt8ProducerC1ERS0_
libmlt++-7.so.7:_ZN3Mlt8ProducerC1Ev
libmlt++-7.so.7:_ZN3Mlt8ProducerC2EP13mlt_profile_sPKcS4_
libmlt++-7.so.7:_ZN3Mlt8ProducerC2EP14mlt_producer_s
libmlt++-7.so.7:_ZN3Mlt8ProducerC2EPS0_
libmlt++-7.so.7:_ZN3Mlt8ProducerC2ERKS0_
libmlt++-7.so.7:_ZN3Mlt8ProducerC2ERNS_7ProfileEPKcS4_
libmlt++-7.so.7:_ZN3Mlt8ProducerC2ERNS_7ServiceE
libmlt++-7.so.7:_ZN3Mlt8ProducerC2ERS0_
libmlt++-7.so.7:_ZN3Mlt8ProducerC2Ev
libmlt++-7.so.7:_ZN3Mlt8ProducerD0Ev
libmlt++-7.so.7:_ZN3Mlt8ProducerD1Ev
libmlt++-7.so.7:_ZN3Mlt8ProducerD2Ev
libmlt++-7.so.7:_ZN3Mlt8ProduceraSERKS0_
libmlt++-7.so.7:_ZN3Mlt9Animation10set_lengthEi
libmlt++-7.so.7:_ZN3Mlt9Animation11interpolateEv
libmlt++-7.so.7:_ZN3Mlt9Animation12key_get_typeEi
libmlt++-7.so.7:_ZN3Mlt9Animation12key_set_typeEi17mlt_keyframe_type
libmlt++-7.so.7:_ZN3Mlt9Animation12previous_keyEi
libmlt++-7.so.7:_ZN3Mlt9Animation12shift_framesEi
libmlt++-7.so.7:_ZN3Mlt9Animation13key_get_frameEi
libmlt++-7.so.7:_ZN3Mlt9Animation13key_set_frameEii
libmlt++-7.so.7:_ZN3Mlt9Animation13keyframe_typeEi
libmlt++-7.so.7:_ZN3Mlt9Animation13serialize_cutE15mlt_time_formatii
libmlt++-7.so.7:_ZN3Mlt9Animation13serialize_cutEii
libmlt++-7.so.7:_ZN3Mlt9Animation6is_keyEi
libmlt++-7.so.7:_ZN3Mlt9Animation6lengthEv
libmlt++-7.so.7:_ZN3Mlt9Animation6removeEi
libmlt++-7.so.7:_ZN3Mlt9Animation7key_getEiRiR17mlt_keyframe_type
libmlt++-7.so.7:_ZN3Mlt9Animation8get_itemEiRbR17mlt_keyframe_type
libmlt++-7.so.7:_ZN3Mlt9Animation8next_keyEi
libmlt++-7.so.7:_ZN3Mlt9Animation9key_countEv
libmlt++-7.so.7:_ZN3Mlt9AnimationC1EP15mlt_animation_s
libmlt++-7.so.7:_ZN3Mlt9AnimationC1ERKS0_
libmlt++-7.so.7:_ZN3Mlt9AnimationC1Ev
libmlt++-7.so.7:_ZN3Mlt9AnimationC2EP15mlt_animation_s
libmlt++-7.so.7:_ZN3Mlt9AnimationC2ERKS0_
libmlt++-7.so.7:_ZN3Mlt9AnimationC2Ev
libmlt++-7.so.7:_ZN3Mlt9AnimationD1Ev
libmlt++-7.so.7:_ZN3Mlt9AnimationD2Ev
libmlt++-7.so.7:_ZN3Mlt9AnimationaSERKS0_
libmlt++-7.so.7:_ZN3Mlt9EventDataC1E14mlt_event_data
libmlt++-7.so.7:_ZN3Mlt9EventDataC1ERKS0_
libmlt++-7.so.7:_ZN3Mlt9EventDataC1ERS0_
libmlt++-7.so.7:_ZN3Mlt9EventDataC2E14mlt_event_data
libmlt++-7.so.7:_ZN3Mlt9EventDataC2ERKS0_
libmlt++-7.so.7:_ZN3Mlt9EventDataC2ERS0_
libmlt++-7.so.7:_ZN3Mlt9EventDataaSERKS0_
libmlt++-7.so.7:_ZN3Mlt9Tokeniser3getEi
libmlt++-7.so.7:_ZN3Mlt9Tokeniser5countEv
libmlt++-7.so.7:_ZN3Mlt9Tokeniser5inputEv
libmlt++-7.so.7:_ZN3Mlt9Tokeniser5parseEPcS1_
libmlt++-7.so.7:_ZN3Mlt9TokeniserC1EPcS1_
libmlt++-7.so.7:_ZN3Mlt9TokeniserC2EPcS1_
libmlt++-7.so.7:_ZN3Mlt9TokeniserD1Ev
libmlt++-7.so.7:_ZN3Mlt9TokeniserD2Ev
libmlt++-7.so.7:_ZNK3Mlt10Repository11transitionsEv
libmlt++-7.so.7:_ZNK3Mlt10Repository5linksEv
libmlt++-7.so.7:_ZNK3Mlt10Repository7filtersEv
libmlt++-7.so.7:_ZNK3Mlt10Repository8metadataE16mlt_service_typePKc
libmlt++-7.so.7:_ZNK3Mlt10Repository9consumersEv
libmlt++-7.so.7:_ZNK3Mlt10Repository9languagesEv
libmlt++-7.so.7:_ZNK3Mlt10Repository9producersEv
libmlt++-7.so.7:_ZNK3Mlt5Chain10link_countEv
libmlt++-7.so.7:_ZNK3Mlt7Profile10colorspaceEv
libmlt++-7.so.7:_ZNK3Mlt7Profile11descriptionEv
libmlt++-7.so.7:_ZNK3Mlt7Profile11get_profileEv
libmlt++-7.so.7:_ZNK3Mlt7Profile11is_explicitEv
libmlt++-7.so.7:_ZNK3Mlt7Profile11progressiveEv
libmlt++-7.so.7:_ZNK3Mlt7Profile14frame_rate_denEv
libmlt++-7.so.7:_ZNK3Mlt7Profile14frame_rate_numEv
libmlt++-7.so.7:_ZNK3Mlt7Profile17sample_aspect_denEv
libmlt++-7.so.7:_ZNK3Mlt7Profile17sample_aspect_numEv
libmlt++-7.so.7:_ZNK3Mlt7Profile18display_aspect_denEv
libmlt++-7.so.7:_ZNK3Mlt7Profile18display_aspect_numEv
libmlt++-7.so.7:_ZNK3Mlt7Profile3darEv
libmlt++-7.so.7:_ZNK3Mlt7Profile3fpsEv
libmlt++-7.so.7:_ZNK3Mlt7Profile3sarEv
libmlt++-7.so.7:_ZNK3Mlt7Profile5widthEv
libmlt++-7.so.7:_ZNK3Mlt7Profile6heightEv
libmlt++-7.so.7:_ZNK3Mlt7Profile8is_validEv
libmlt++-7.so.7:_ZNK3Mlt9Animation13get_animationEv
libmlt++-7.so.7:_ZNK3Mlt9Animation8is_validEv
libmlt++-7.so.7:_ZNK3Mlt9EventData14get_event_dataEv
libmlt++-7.so.7:_ZNK3Mlt9EventData6to_intEv
libmlt++-7.so.7:_ZNK3Mlt9EventData8to_frameEv
libmlt++-7.so.7:_ZNK3Mlt9EventData9to_objectEv
libmlt++-7.so.7:_ZNK3Mlt9EventData9to_stringEv
libmlt-7.so.7:MLT_0.8.8
libmlt-7.so.7:MLT_0.9.0
libmlt-7.so.7:MLT_0.9.10
libmlt-7.so.7:MLT_0.9.2
libmlt-7.so.7:MLT_0.9.4
libmlt-7.so.7:MLT_0.9.8
libmlt-7.so.7:MLT_6.10.0
libmlt-7.so.7:MLT_6.12.0
libmlt-7.so.7:MLT_6.14.0
libmlt-7.so.7:MLT_6.18.0
libmlt-7.so.7:MLT_6.20.0
libmlt-7.so.7:MLT_6.22.0
libmlt-7.so.7:MLT_6.4.0
libmlt-7.so.7:MLT_6.6.0
libmlt-7.so.7:MLT_6.8.0
libmlt-7.so.7:MLT_7.0.0
libmlt-7.so.7:default_callback
libmlt-7.so.7:mlt_animation_close
libmlt-7.so.7:mlt_animation_get_item
libmlt-7.so.7:mlt_animation_get_length
libmlt-7.so.7:mlt_animation_get_string
libmlt-7.so.7:mlt_animation_insert
libmlt-7.so.7:mlt_animation_interpolate
libmlt-7.so.7:mlt_animation_key_count
libmlt-7.so.7:mlt_animation_key_get
libmlt-7.so.7:mlt_animation_key_set_frame
libmlt-7.so.7:mlt_animation_key_set_type
libmlt-7.so.7:mlt_animation_new
libmlt-7.so.7:mlt_animation_next_key
libmlt-7.so.7:mlt_animation_parse
libmlt-7.so.7:mlt_animation_parse_item
libmlt-7.so.7:mlt_animation_prev_key
libmlt-7.so.7:mlt_animation_refresh
libmlt-7.so.7:mlt_animation_remove
libmlt-7.so.7:mlt_animation_serialize
libmlt-7.so.7:mlt_animation_serialize_cut
libmlt-7.so.7:mlt_animation_serialize_cut_tf
libmlt-7.so.7:mlt_animation_serialize_tf
libmlt-7.so.7:mlt_animation_set_length
libmlt-7.so.7:mlt_animation_shift_frames
libmlt-7.so.7:mlt_audio_alloc_data
libmlt-7.so.7:mlt_audio_calculate_frame_samples
libmlt-7.so.7:mlt_audio_calculate_samples_to_position
libmlt-7.so.7:mlt_audio_calculate_size
libmlt-7.so.7:mlt_audio_channel_layout_channels
libmlt-7.so.7:mlt_audio_channel_layout_default
libmlt-7.so.7:mlt_audio_channel_layout_id
libmlt-7.so.7:mlt_audio_channel_layout_name
libmlt-7.so.7:mlt_audio_close
libmlt-7.so.7:mlt_audio_copy
libmlt-7.so.7:mlt_audio_format_name
libmlt-7.so.7:mlt_audio_format_size
libmlt-7.so.7:mlt_audio_get_planes
libmlt-7.so.7:mlt_audio_get_values
libmlt-7.so.7:mlt_audio_new
libmlt-7.so.7:mlt_audio_plane_count
libmlt-7.so.7:mlt_audio_plane_size
libmlt-7.so.7:mlt_audio_reverse
libmlt-7.so.7:mlt_audio_set_values
libmlt-7.so.7:mlt_audio_shrink
libmlt-7.so.7:mlt_audio_silence
libmlt-7.so.7:mlt_cache_close
libmlt-7.so.7:mlt_cache_get
libmlt-7.so.7:mlt_cache_get_frame
libmlt-7.so.7:mlt_cache_get_size
libmlt-7.so.7:mlt_cache_init
libmlt-7.so.7:mlt_cache_item_close
libmlt-7.so.7:mlt_cache_item_data
libmlt-7.so.7:mlt_cache_purge
libmlt-7.so.7:mlt_cache_put
libmlt-7.so.7:mlt_cache_put_frame
libmlt-7.so.7:mlt_cache_set_size
libmlt-7.so.7:mlt_chain_attach
libmlt-7.so.7:mlt_chain_close
libmlt-7.so.7:mlt_chain_detach
libmlt-7.so.7:mlt_chain_get_source
libmlt-7.so.7:mlt_chain_init
libmlt-7.so.7:mlt_chain_link
libmlt-7.so.7:mlt_chain_link_count
libmlt-7.so.7:mlt_chain_move_link
libmlt-7.so.7:mlt_chain_set_source
libmlt-7.so.7:mlt_consumer_close
libmlt-7.so.7:mlt_consumer_connect
libmlt-7.so.7:mlt_consumer_get_frame
libmlt-7.so.7:mlt_consumer_init
libmlt-7.so.7:mlt_consumer_is_stopped
libmlt-7.so.7:mlt_consumer_new
libmlt-7.so.7:mlt_consumer_position
libmlt-7.so.7:mlt_consumer_properties
libmlt-7.so.7:mlt_consumer_purge
libmlt-7.so.7:mlt_consumer_put_frame
libmlt-7.so.7:mlt_consumer_rt_frame
libmlt-7.so.7:mlt_consumer_service
libmlt-7.so.7:mlt_consumer_start
libmlt-7.so.7:mlt_consumer_stop
libmlt-7.so.7:mlt_consumer_stopped
libmlt-7.so.7:mlt_deque_close
libmlt-7.so.7:mlt_deque_count
libmlt-7.so.7:mlt_deque_init
libmlt-7.so.7:mlt_deque_insert
libmlt-7.so.7:mlt_deque_peek
libmlt-7.so.7:mlt_deque_peek_back
libmlt-7.so.7:mlt_deque_peek_back_double
libmlt-7.so.7:mlt_deque_peek_back_int
libmlt-7.so.7:mlt_deque_peek_front
libmlt-7.so.7:mlt_deque_peek_front_double
libmlt-7.so.7:mlt_deque_peek_front_int
libmlt-7.so.7:mlt_deque_pop_back
libmlt-7.so.7:mlt_deque_pop_back_double
libmlt-7.so.7:mlt_deque_pop_back_int
libmlt-7.so.7:mlt_deque_pop_front
libmlt-7.so.7:mlt_deque_pop_front_double
libmlt-7.so.7:mlt_deque_pop_front_int
libmlt-7.so.7:mlt_deque_push_back
libmlt-7.so.7:mlt_deque_push_back_double
libmlt-7.so.7:mlt_deque_push_back_int
libmlt-7.so.7:mlt_deque_push_front
libmlt-7.so.7:mlt_deque_push_front_double
libmlt-7.so.7:mlt_deque_push_front_int
libmlt-7.so.7:mlt_environment
libmlt-7.so.7:mlt_environment_set
libmlt-7.so.7:mlt_event_block
libmlt-7.so.7:mlt_event_close
libmlt-7.so.7:mlt_event_data_from_frame
libmlt-7.so.7:mlt_event_data_from_int
libmlt-7.so.7:mlt_event_data_from_object
libmlt-7.so.7:mlt_event_data_from_string
libmlt-7.so.7:mlt_event_data_none
libmlt-7.so.7:mlt_event_data_to_frame
libmlt-7.so.7:mlt_event_data_to_int
libmlt-7.so.7:mlt_event_data_to_object
libmlt-7.so.7:mlt_event_data_to_string
libmlt-7.so.7:mlt_event_inc_ref
libmlt-7.so.7:mlt_event_unblock
libmlt-7.so.7:mlt_events_block
libmlt-7.so.7:mlt_events_close_wait_for
libmlt-7.so.7:mlt_events_disconnect
libmlt-7.so.7:mlt_events_fire
libmlt-7.so.7:mlt_events_init
libmlt-7.so.7:mlt_events_listen
libmlt-7.so.7:mlt_events_register
libmlt-7.so.7:mlt_events_setup_wait_for
libmlt-7.so.7:mlt_events_unblock
libmlt-7.so.7:mlt_events_wait_for
libmlt-7.so.7:mlt_factory_close
libmlt-7.so.7:mlt_factory_consumer
libmlt-7.so.7:mlt_factory_directory
libmlt-7.so.7:mlt_factory_event_object
libmlt-7.so.7:mlt_factory_filter
libmlt-7.so.7:mlt_factory_init
libmlt-7.so.7:mlt_factory_link
libmlt-7.so.7:mlt_factory_producer
libmlt-7.so.7:mlt_factory_register_for_clean_up
libmlt-7.so.7:mlt_factory_repository
libmlt-7.so.7:mlt_factory_transition
libmlt-7.so.7:mlt_field_close
libmlt-7.so.7:mlt_field_disconnect_service
libmlt-7.so.7:mlt_field_init
libmlt-7.so.7:mlt_field_multitrack
libmlt-7.so.7:mlt_field_new
libmlt-7.so.7:mlt_field_plant_filter
libmlt-7.so.7:mlt_field_plant_transition
libmlt-7.so.7:mlt_field_properties
libmlt-7.so.7:mlt_field_service
libmlt-7.so.7:mlt_field_tractor
libmlt-7.so.7:mlt_filter_close
libmlt-7.so.7:mlt_filter_connect
libmlt-7.so.7:mlt_filter_get_in
libmlt-7.so.7:mlt_filter_get_length
libmlt-7.so.7:mlt_filter_get_length2
libmlt-7.so.7:mlt_filter_get_out
libmlt-7.so.7:mlt_filter_get_position
libmlt-7.so.7:mlt_filter_get_progress
libmlt-7.so.7:mlt_filter_get_track
libmlt-7.so.7:mlt_filter_init
libmlt-7.so.7:mlt_filter_new
libmlt-7.so.7:mlt_filter_process
libmlt-7.so.7:mlt_filter_properties
libmlt-7.so.7:mlt_filter_service
libmlt-7.so.7:mlt_filter_set_in_and_out
libmlt-7.so.7:mlt_frame_clone
libmlt-7.so.7:mlt_frame_close
libmlt-7.so.7:mlt_frame_get_alpha
libmlt-7.so.7:mlt_frame_get_aspect_ratio
libmlt-7.so.7:mlt_frame_get_audio
libmlt-7.so.7:mlt_frame_get_image
libmlt-7.so.7:mlt_frame_get_original_producer
libmlt-7.so.7:mlt_frame_get_position
libmlt-7.so.7:mlt_frame_get_unique_properties
libmlt-7.so.7:mlt_frame_get_waveform
libmlt-7.so.7:mlt_frame_init
libmlt-7.so.7:mlt_frame_is_test_audio
libmlt-7.so.7:mlt_frame_is_test_card
libmlt-7.so.7:mlt_frame_original_position
libmlt-7.so.7:mlt_frame_pop_audio
libmlt-7.so.7:mlt_frame_pop_frame
libmlt-7.so.7:mlt_frame_pop_get_image
libmlt-7.so.7:mlt_frame_pop_service
libmlt-7.so.7:mlt_frame_pop_service_int
libmlt-7.so.7:mlt_frame_properties
libmlt-7.so.7:mlt_frame_push_audio
libmlt-7.so.7:mlt_frame_push_frame
libmlt-7.so.7:mlt_frame_push_get_image
libmlt-7.so.7:mlt_frame_push_service
libmlt-7.so.7:mlt_frame_push_service_int
libmlt-7.so.7:mlt_frame_replace_image
libmlt-7.so.7:mlt_frame_service_stack
libmlt-7.so.7:mlt_frame_set_alpha
libmlt-7.so.7:mlt_frame_set_aspect_ratio
libmlt-7.so.7:mlt_frame_set_audio
libmlt-7.so.7:mlt_frame_set_image
libmlt-7.so.7:mlt_frame_set_position
libmlt-7.so.7:mlt_frame_unique_properties
libmlt-7.so.7:mlt_frame_write_ppm
libmlt-7.so.7:mlt_global_properties
libmlt-7.so.7:mlt_image_alloc_alpha
libmlt-7.so.7:mlt_image_alloc_data
libmlt-7.so.7:mlt_image_calculate_size
libmlt-7.so.7:mlt_image_close
libmlt-7.so.7:mlt_image_fill_black
libmlt-7.so.7:mlt_image_fill_opaque
libmlt-7.so.7:mlt_image_format_id
libmlt-7.so.7:mlt_image_format_name
libmlt-7.so.7:mlt_image_format_planes
libmlt-7.so.7:mlt_image_format_size
libmlt-7.so.7:mlt_image_get_values
libmlt-7.so.7:mlt_image_new
libmlt-7.so.7:mlt_image_set_values
libmlt-7.so.7:mlt_link_close
libmlt-7.so.7:mlt_link_connect_next
libmlt-7.so.7:mlt_link_init
libmlt-7.so.7:mlt_log
libmlt-7.so.7:mlt_log_get_level
libmlt-7.so.7:mlt_log_set_callback
libmlt-7.so.7:mlt_log_set_level
libmlt-7.so.7:mlt_log_timings_now
libmlt-7.so.7:mlt_luma_map_from_pgm
libmlt-7.so.7:mlt_luma_map_from_yuv422
libmlt-7.so.7:mlt_luma_map_init
libmlt-7.so.7:mlt_luma_map_new
libmlt-7.so.7:mlt_luma_map_render
libmlt-7.so.7:mlt_multitrack_clip
libmlt-7.so.7:mlt_multitrack_close
libmlt-7.so.7:mlt_multitrack_connect
libmlt-7.so.7:mlt_multitrack_count
libmlt-7.so.7:mlt_multitrack_disconnect
libmlt-7.so.7:mlt_multitrack_init
libmlt-7.so.7:mlt_multitrack_insert
libmlt-7.so.7:mlt_multitrack_producer
libmlt-7.so.7:mlt_multitrack_properties
libmlt-7.so.7:mlt_multitrack_refresh
libmlt-7.so.7:mlt_multitrack_service
libmlt-7.so.7:mlt_multitrack_track
libmlt-7.so.7:mlt_parser_close
libmlt-7.so.7:mlt_parser_new
libmlt-7.so.7:mlt_parser_properties
libmlt-7.so.7:mlt_parser_start
libmlt-7.so.7:mlt_playlist_append
libmlt-7.so.7:mlt_playlist_append_io
libmlt-7.so.7:mlt_playlist_blank
libmlt-7.so.7:mlt_playlist_blank_time
libmlt-7.so.7:mlt_playlist_blanks_from
libmlt-7.so.7:mlt_playlist_clear
libmlt-7.so.7:mlt_playlist_clip
libmlt-7.so.7:mlt_playlist_clip_is_mix
libmlt-7.so.7:mlt_playlist_clip_length
libmlt-7.so.7:mlt_playlist_clip_start
libmlt-7.so.7:mlt_playlist_close
libmlt-7.so.7:mlt_playlist_consolidate_blanks
libmlt-7.so.7:mlt_playlist_count
libmlt-7.so.7:mlt_playlist_current
libmlt-7.so.7:mlt_playlist_current_clip
libmlt-7.so.7:mlt_playlist_get_clip
libmlt-7.so.7:mlt_playlist_get_clip_at
libmlt-7.so.7:mlt_playlist_get_clip_index_at
libmlt-7.so.7:mlt_playlist_get_clip_info
libmlt-7.so.7:mlt_playlist_init
libmlt-7.so.7:mlt_playlist_insert
libmlt-7.so.7:mlt_playlist_insert_at
libmlt-7.so.7:mlt_playlist_insert_blank
libmlt-7.so.7:mlt_playlist_is_blank
libmlt-7.so.7:mlt_playlist_is_blank_at
libmlt-7.so.7:mlt_playlist_join
libmlt-7.so.7:mlt_playlist_mix
libmlt-7.so.7:mlt_playlist_mix_add
libmlt-7.so.7:mlt_playlist_mix_in
libmlt-7.so.7:mlt_playlist_mix_out
libmlt-7.so.7:mlt_playlist_move
libmlt-7.so.7:mlt_playlist_new
libmlt-7.so.7:mlt_playlist_pad_blanks
libmlt-7.so.7:mlt_playlist_producer
libmlt-7.so.7:mlt_playlist_properties
libmlt-7.so.7:mlt_playlist_remove
libmlt-7.so.7:mlt_playlist_remove_region
libmlt-7.so.7:mlt_playlist_reorder
libmlt-7.so.7:mlt_playlist_repeat_clip
libmlt-7.so.7:mlt_playlist_replace_with_blank
libmlt-7.so.7:mlt_playlist_resize_clip
libmlt-7.so.7:mlt_playlist_service
libmlt-7.so.7:mlt_playlist_split
libmlt-7.so.7:mlt_playlist_split_at
libmlt-7.so.7:mlt_pool_alloc
libmlt-7.so.7:mlt_pool_close
libmlt-7.so.7:mlt_pool_init
libmlt-7.so.7:mlt_pool_purge
libmlt-7.so.7:mlt_pool_realloc
libmlt-7.so.7:mlt_pool_release
libmlt-7.so.7:mlt_pool_stat
libmlt-7.so.7:mlt_producer_attach
libmlt-7.so.7:mlt_producer_clear
libmlt-7.so.7:mlt_producer_close
libmlt-7.so.7:mlt_producer_cut
libmlt-7.so.7:mlt_producer_cut_parent
libmlt-7.so.7:mlt_producer_detach
libmlt-7.so.7:mlt_producer_filter
libmlt-7.so.7:mlt_producer_frame
libmlt-7.so.7:mlt_producer_frame_time
libmlt-7.so.7:mlt_producer_get_creation_time
libmlt-7.so.7:mlt_producer_get_fps
libmlt-7.so.7:mlt_producer_get_in
libmlt-7.so.7:mlt_producer_get_length
libmlt-7.so.7:mlt_producer_get_length_time
libmlt-7.so.7:mlt_producer_get_out
libmlt-7.so.7:mlt_producer_get_playtime
libmlt-7.so.7:mlt_producer_get_speed
libmlt-7.so.7:mlt_producer_init
libmlt-7.so.7:mlt_producer_is_blank
libmlt-7.so.7:mlt_producer_is_cut
libmlt-7.so.7:mlt_producer_is_mix
libmlt-7.so.7:mlt_producer_new
libmlt-7.so.7:mlt_producer_optimise
libmlt-7.so.7:mlt_producer_position
libmlt-7.so.7:mlt_producer_prepare_next
libmlt-7.so.7:mlt_producer_properties
libmlt-7.so.7:mlt_producer_seek
libmlt-7.so.7:mlt_producer_seek_time
libmlt-7.so.7:mlt_producer_service
libmlt-7.so.7:mlt_producer_set_creation_time
libmlt-7.so.7:mlt_producer_set_in_and_out
libmlt-7.so.7:mlt_producer_set_speed
libmlt-7.so.7:mlt_profile_clone
libmlt-7.so.7:mlt_profile_close
libmlt-7.so.7:mlt_profile_dar
libmlt-7.so.7:mlt_profile_fps
libmlt-7.so.7:mlt_profile_from_producer
libmlt-7.so.7:mlt_profile_init
libmlt-7.so.7:mlt_profile_list
libmlt-7.so.7:mlt_profile_load_file
libmlt-7.so.7:mlt_profile_load_properties
libmlt-7.so.7:mlt_profile_load_string
libmlt-7.so.7:mlt_profile_lumas_dir
libmlt-7.so.7:mlt_profile_sar
libmlt-7.so.7:mlt_profile_scale_height
libmlt-7.so.7:mlt_profile_scale_width
libmlt-7.so.7:mlt_properties_anim_get
libmlt-7.so.7:mlt_properties_anim_get_double
libmlt-7.so.7:mlt_properties_anim_get_int
libmlt-7.so.7:mlt_properties_anim_get_rect
libmlt-7.so.7:mlt_properties_anim_set
libmlt-7.so.7:mlt_properties_anim_set_double
libmlt-7.so.7:mlt_properties_anim_set_int
libmlt-7.so.7:mlt_properties_anim_set_rect
libmlt-7.so.7:mlt_properties_clear
libmlt-7.so.7:mlt_properties_close
libmlt-7.so.7:mlt_properties_count
libmlt-7.so.7:mlt_properties_debug
libmlt-7.so.7:mlt_properties_dec_ref
libmlt-7.so.7:mlt_properties_dir_list
libmlt-7.so.7:mlt_properties_dump
libmlt-7.so.7:mlt_properties_exists
libmlt-7.so.7:mlt_properties_frames_to_time
libmlt-7.so.7:mlt_properties_from_utf8
libmlt-7.so.7:mlt_properties_get
libmlt-7.so.7:mlt_properties_get_animation
libmlt-7.so.7:mlt_properties_get_color
libmlt-7.so.7:mlt_properties_get_data
libmlt-7.so.7:mlt_properties_get_data_at
libmlt-7.so.7:mlt_properties_get_double
libmlt-7.so.7:mlt_properties_get_int
libmlt-7.so.7:mlt_properties_get_int64
libmlt-7.so.7:mlt_properties_get_lcnumeric
libmlt-7.so.7:mlt_properties_get_name
libmlt-7.so.7:mlt_properties_get_position
libmlt-7.so.7:mlt_properties_get_rect
libmlt-7.so.7:mlt_properties_get_time
libmlt-7.so.7:mlt_properties_get_value
libmlt-7.so.7:mlt_properties_get_value_tf
libmlt-7.so.7:mlt_properties_inc_ref
libmlt-7.so.7:mlt_properties_inherit
libmlt-7.so.7:mlt_properties_init
libmlt-7.so.7:mlt_properties_is_sequence
libmlt-7.so.7:mlt_properties_load
libmlt-7.so.7:mlt_properties_lock
libmlt-7.so.7:mlt_properties_mirror
libmlt-7.so.7:mlt_properties_new
libmlt-7.so.7:mlt_properties_parse
libmlt-7.so.7:mlt_properties_parse_yaml
libmlt-7.so.7:mlt_properties_pass
libmlt-7.so.7:mlt_properties_pass_list
libmlt-7.so.7:mlt_properties_pass_property
libmlt-7.so.7:mlt_properties_preset
libmlt-7.so.7:mlt_properties_ref_count
libmlt-7.so.7:mlt_properties_rename
libmlt-7.so.7:mlt_properties_save
libmlt-7.so.7:mlt_properties_serialise_yaml
libmlt-7.so.7:mlt_properties_set
libmlt-7.so.7:mlt_properties_set_color
libmlt-7.so.7:mlt_properties_set_data
libmlt-7.so.7:mlt_properties_set_double
libmlt-7.so.7:mlt_properties_set_int
libmlt-7.so.7:mlt_properties_set_int64
libmlt-7.so.7:mlt_properties_set_lcnumeric
libmlt-7.so.7:mlt_properties_set_or_default
libmlt-7.so.7:mlt_properties_set_position
libmlt-7.so.7:mlt_properties_set_rect
libmlt-7.so.7:mlt_properties_set_string
libmlt-7.so.7:mlt_properties_time_to_frames
libmlt-7.so.7:mlt_properties_unlock
libmlt-7.so.7:mlt_property_anim_get_double
libmlt-7.so.7:mlt_property_anim_get_int
libmlt-7.so.7:mlt_property_anim_get_rect
libmlt-7.so.7:mlt_property_anim_get_string
libmlt-7.so.7:mlt_property_anim_set_double
libmlt-7.so.7:mlt_property_anim_set_int
libmlt-7.so.7:mlt_property_anim_set_rect
libmlt-7.so.7:mlt_property_anim_set_string
libmlt-7.so.7:mlt_property_clear
libmlt-7.so.7:mlt_property_close
libmlt-7.so.7:mlt_property_get_animation
libmlt-7.so.7:mlt_property_get_data
libmlt-7.so.7:mlt_property_get_double
libmlt-7.so.7:mlt_property_get_int
libmlt-7.so.7:mlt_property_get_int64
libmlt-7.so.7:mlt_property_get_position
libmlt-7.so.7:mlt_property_get_rect
libmlt-7.so.7:mlt_property_get_string
libmlt-7.so.7:mlt_property_get_string_l
libmlt-7.so.7:mlt_property_get_string_l_tf
libmlt-7.so.7:mlt_property_get_string_tf
libmlt-7.so.7:mlt_property_get_time
libmlt-7.so.7:mlt_property_init
libmlt-7.so.7:mlt_property_interpolate
libmlt-7.so.7:mlt_property_is_clear
libmlt-7.so.7:mlt_property_pass
libmlt-7.so.7:mlt_property_set_data
libmlt-7.so.7:mlt_property_set_double
libmlt-7.so.7:mlt_property_set_int
libmlt-7.so.7:mlt_property_set_int64
libmlt-7.so.7:mlt_property_set_position
libmlt-7.so.7:mlt_property_set_rect
libmlt-7.so.7:mlt_property_set_string
libmlt-7.so.7:mlt_repository_close
libmlt-7.so.7:mlt_repository_consumers
libmlt-7.so.7:mlt_repository_create
libmlt-7.so.7:mlt_repository_filters
libmlt-7.so.7:mlt_repository_init
libmlt-7.so.7:mlt_repository_languages
libmlt-7.so.7:mlt_repository_links
libmlt-7.so.7:mlt_repository_metadata
libmlt-7.so.7:mlt_repository_presets
libmlt-7.so.7:mlt_repository_producers
libmlt-7.so.7:mlt_repository_register
libmlt-7.so.7:mlt_repository_register_metadata
libmlt-7.so.7:mlt_repository_transitions
libmlt-7.so.7:mlt_sdl_mutex
libmlt-7.so.7:mlt_service_apply_filters
libmlt-7.so.7:mlt_service_attach
libmlt-7.so.7:mlt_service_cache_get
libmlt-7.so.7:mlt_service_cache_get_size
libmlt-7.so.7:mlt_service_cache_purge
libmlt-7.so.7:mlt_service_cache_put
libmlt-7.so.7:mlt_service_cache_set_size
libmlt-7.so.7:mlt_service_close
libmlt-7.so.7:mlt_service_connect_producer
libmlt-7.so.7:mlt_service_consumer
libmlt-7.so.7:mlt_service_detach
libmlt-7.so.7:mlt_service_disconnect_all_producers
libmlt-7.so.7:mlt_service_disconnect_producer
libmlt-7.so.7:mlt_service_filter
libmlt-7.so.7:mlt_service_filter_count
libmlt-7.so.7:mlt_service_get_frame
libmlt-7.so.7:mlt_service_get_producer
libmlt-7.so.7:mlt_service_identify
libmlt-7.so.7:mlt_service_init
libmlt-7.so.7:mlt_service_insert_producer
libmlt-7.so.7:mlt_service_lock
libmlt-7.so.7:mlt_service_move_filter
libmlt-7.so.7:mlt_service_producer
libmlt-7.so.7:mlt_service_profile
libmlt-7.so.7:mlt_service_properties
libmlt-7.so.7:mlt_service_set_profile
libmlt-7.so.7:mlt_service_unlock
libmlt-7.so.7:mlt_slices_count_fifo
libmlt-7.so.7:mlt_slices_count_normal
libmlt-7.so.7:mlt_slices_count_rr
libmlt-7.so.7:mlt_slices_run_fifo
libmlt-7.so.7:mlt_slices_run_normal
libmlt-7.so.7:mlt_slices_run_rr
libmlt-7.so.7:mlt_tokeniser_close
libmlt-7.so.7:mlt_tokeniser_count
libmlt-7.so.7:mlt_tokeniser_get_input
libmlt-7.so.7:mlt_tokeniser_get_string
libmlt-7.so.7:mlt_tokeniser_init
libmlt-7.so.7:mlt_tokeniser_parse_new
libmlt-7.so.7:mlt_tractor_close
libmlt-7.so.7:mlt_tractor_connect
libmlt-7.so.7:mlt_tractor_field
libmlt-7.so.7:mlt_tractor_get_track
libmlt-7.so.7:mlt_tractor_init
libmlt-7.so.7:mlt_tractor_insert_track
libmlt-7.so.7:mlt_tractor_multitrack
libmlt-7.so.7:mlt_tractor_new
libmlt-7.so.7:mlt_tractor_producer
libmlt-7.so.7:mlt_tractor_properties
libmlt-7.so.7:mlt_tractor_refresh
libmlt-7.so.7:mlt_tractor_remove_track
libmlt-7.so.7:mlt_tractor_service
libmlt-7.so.7:mlt_tractor_set_track
libmlt-7.so.7:mlt_transition_close
libmlt-7.so.7:mlt_transition_connect
libmlt-7.so.7:mlt_transition_get_a_track
libmlt-7.so.7:mlt_transition_get_b_track
libmlt-7.so.7:mlt_transition_get_in
libmlt-7.so.7:mlt_transition_get_length
libmlt-7.so.7:mlt_transition_get_out
libmlt-7.so.7:mlt_transition_get_position
libmlt-7.so.7:mlt_transition_get_progress
libmlt-7.so.7:mlt_transition_get_progress_delta
libmlt-7.so.7:mlt_transition_init
libmlt-7.so.7:mlt_transition_new
libmlt-7.so.7:mlt_transition_process
libmlt-7.so.7:mlt_transition_properties
libmlt-7.so.7:mlt_transition_service
libmlt-7.so.7:mlt_transition_set_in_and_out
libmlt-7.so.7:mlt_transition_set_tracks
libmlt-7.so.7:mlt_version_get_int
libmlt-7.so.7:mlt_version_get_major
libmlt-7.so.7:mlt_version_get_minor
libmlt-7.so.7:mlt_version_get_revision
libmlt-7.so.7:mlt_version_get_string
libmlt-7.so.7:mlt_vlog
libmltavformat.so:__bss_start
libmltavformat.so:_edata
libmltavformat.so:_end
libmltavformat.so:av_channel_layout_to_mlt
libmltavformat.so:close_video
libmltavformat.so:consumer_avformat_init
libmltavformat.so:filter_avcolour_space_init
libmltavformat.so:filter_avdeinterlace_init
libmltavformat.so:filter_avfilter_init
libmltavformat.so:filter_swresample_init
libmltavformat.so:filter_swscale_init
libmltavformat.so:get_position
libmltavformat.so:mlt_get_channel_layout_or_default
libmltavformat.so:mlt_get_sws_flags
libmltavformat.so:mlt_register
libmltavformat.so:mlt_set_luma_transfer
libmltavformat.so:mlt_to_av_channel_layout
libmltavformat.so:mlt_to_av_sample_format
libmltavformat.so:producer_avformat_init
libmltavformat.so:sample_fifo_append
libmltavformat.so:sample_fifo_close
libmltavformat.so:sample_fifo_fetch
libmltavformat.so:sample_fifo_init
libmltavformat.so:sample_fifo_used
libmltcore.so:composite_line_yuv
libmltcore.so:composite_line_yuv_sse2_simple
libmltcore.so:consumer_multi_init
libmltcore.so:consumer_null_init
libmltcore.so:filter_audiochannels_init
libmltcore.so:filter_audioconvert_init
libmltcore.so:filter_audiomap_init
libmltcore.so:filter_audiowave_init
libmltcore.so:filter_brightness_init
libmltcore.so:filter_channelcopy_init
libmltcore.so:filter_choppy_init
libmltcore.so:filter_crop_init
libmltcore.so:filter_fieldorder_init
libmltcore.so:filter_gamma_init
libmltcore.so:filter_greyscale_init
libmltcore.so:filter_imageconvert_init
libmltcore.so:filter_luma_init
libmltcore.so:filter_mask_apply_init
libmltcore.so:filter_mask_start_init
libmltcore.so:filter_mirror_init
libmltcore.so:filter_mono_init
libmltcore.so:filter_obscure_init
libmltcore.so:filter_panner_init
libmltcore.so:filter_rescale_init
libmltcore.so:filter_resize_init
libmltcore.so:filter_transition_init
libmltcore.so:filter_watermark_init
libmltcore.so:link_timeremap_init
libmltcore.so:mlt_register
libmltcore.so:producer_colour_init
libmltcore.so:producer_consumer_init
libmltcore.so:producer_hold_init
libmltcore.so:producer_loader_init
libmltcore.so:producer_melt_file_init
libmltcore.so:producer_melt_init
libmltcore.so:producer_noise_init
libmltcore.so:producer_timewarp_init
libmltcore.so:producer_tone_init
libmltcore.so:transition_composite_init
libmltcore.so:transition_luma_init
libmltcore.so:transition_matte_init
libmltcore.so:transition_mix_init
libmltcore.so:yuv422_to_luma16
libmltdecklink.so:CreateDeckLinkIteratorInstance
libmltdecklink.so:CreateOpenGLScreenPreviewHelper
libmltdecklink.so:CreateVideoConversionInstance
libmltdecklink.so:_Z10getCStringPKc
libmltdecklink.so:_Z11freeCStringPc
libmltdecklink.so:_Z12freeDLStringPKc
libmltdecklink.so:_Z15InitDeckLinkAPIv
libmltdecklink.so:_Z22InitDeckLinkPreviewAPIv
libmltdecklink.so:_Z5swab2PKvPvi
libmltdecklink.so:consumer_decklink_init
libmltdecklink.so:mlt_register
libmltdecklink.so:producer_decklink_init
libmltfrei0r.so:CAIROBLEND_MODE_PROPERTY
libmltfrei0r.so:destruct
libmltfrei0r.so:filter_cairoblend_mode_init
libmltfrei0r.so:filter_close
libmltfrei0r.so:filter_process
libmltfrei0r.so:mlt_register
libmltfrei0r.so:process_frei0r_item
libmltfrei0r.so:producer_close
libmltfrei0r.so:producer_get_frame
libmltfrei0r.so:transition_close
libmltfrei0r.so:transition_process
libmltjackrack.so:mlt_register
libmltkdenlive.so:filter_boxblur_init
libmltkdenlive.so:filter_freeze_init
libmltkdenlive.so:filter_wave_init
libmltkdenlive.so:mlt_register
libmltkdenlive.so:producer_framebuffer_init
libmltmovit.so:_Z18dec_ref_and_deleteP11GlslManager
libmltmovit.so:_ZN11GlslManager10get_effectEP13mlt_service_sP11mlt_frame_s
libmltmovit.so:_ZN11GlslManager10set_effectEP13mlt_service_sP11mlt_frame_sPN5movit6EffectE
libmltmovit.so:_ZN11GlslManager11delete_syncEP8__GLsync
libmltmovit.so:_ZN11GlslManager11get_textureEiii
libmltmovit.so:_ZN11GlslManager12get_instanceEv
libmltmovit.so:_ZN11GlslManager12lock_serviceEP11mlt_frame_s
libmltmovit.so:_ZN11GlslManager14cleanupContextEv
libmltmovit.so:_ZN11GlslManager14unlock_serviceEP11mlt_frame_s
libmltmovit.so:_ZN11GlslManager15release_textureEP14glsl_texture_s
libmltmovit.so:_ZN11GlslManager16get_effect_inputEP13mlt_service_sP11mlt_frame_s
libmltmovit.so:_ZN11GlslManager16onServiceChangedEP16mlt_properties_sP13mlt_service_s
libmltmovit.so:_ZN11GlslManager16set_effect_inputEP13mlt_service_sP11mlt_frame_sS1_
libmltmovit.so:_ZN11GlslManager17onPropertyChangedEP16mlt_properties_sP13mlt_service_sPKc
libmltmovit.so:_ZN11GlslManager17render_frame_rgbaEPN5movit11EffectChainEP11mlt_frame_siiPPh
libmltmovit.so:_ZN11GlslManager20render_frame_textureEPN5movit11EffectChainEP11mlt_frame_siiPPh
libmltmovit.so:_ZN11GlslManager22get_effect_third_inputEP13mlt_service_sP11mlt_frame_sPS1_PS3_
libmltmovit.so:_ZN11GlslManager22set_effect_third_inputEP13mlt_service_sP11mlt_frame_sS1_S3_
libmltmovit.so:_ZN11GlslManager23get_frame_specific_dataEP13mlt_service_sP11mlt_frame_sPKcPi
libmltmovit.so:_ZN11GlslManager23get_input_pixel_pointerEP14mlt_producer_sP11mlt_frame_s
libmltmovit.so:_ZN11GlslManager23set_frame_specific_dataEP13mlt_service_sP11mlt_frame_sPKcPviPFvS6_EPFPcS6_iE
libmltmovit.so:_ZN11GlslManager23set_input_pixel_pointerEP14mlt_producer_sP11mlt_frame_sPh
libmltmovit.so:_ZN11GlslManager26get_effect_secondary_inputEP13mlt_service_sP11mlt_frame_sPS1_PS3_
libmltmovit.so:_ZN11GlslManager26set_effect_secondary_inputEP13mlt_service_sP11mlt_frame_sS1_S3_
libmltmovit.so:_ZN11GlslManager6onInitEP16mlt_properties_sPS_14mlt_event_data
libmltmovit.so:_ZN11GlslManager7add_refEP16mlt_properties_s
libmltmovit.so:_ZN11GlslManager7get_pboEi
libmltmovit.so:_ZN11GlslManager7onCloseEP16mlt_properties_sPS_14mlt_event_data
libmltmovit.so:_ZN11GlslManager9get_chainEP13mlt_service_s
libmltmovit.so:_ZN11GlslManager9get_inputEP14mlt_producer_sP11mlt_frame_s
libmltmovit.so:_ZN11GlslManager9set_chainEP13mlt_service_sP9GlslChain
libmltmovit.so:_ZN11GlslManager9set_inputEP14mlt_producer_sP11mlt_frame_sP8MltInput
libmltmovit.so:_ZN11GlslManagerC1Ev
libmltmovit.so:_ZN11GlslManagerC2Ev
libmltmovit.so:_ZN11GlslManagerD0Ev
libmltmovit.so:_ZN11GlslManagerD1Ev
libmltmovit.so:_ZN11GlslManagerD2Ev
libmltmovit.so:_ZN8MltInput12useFlatInputEN5movit16MovitPixelFormatEjj
libmltmovit.so:_ZN8MltInput13useYCbCrInputERKN5movit11ImageFormatERKNS0_11YCbCrFormatEjj
libmltmovit.so:_ZN8MltInput14set_pixel_dataEPKh
libmltmovit.so:_ZN8MltInput21invalidate_pixel_dataEv
libmltmovit.so:_ZN8MltInputC1E16mlt_image_format
libmltmovit.so:_ZN8MltInputC2E16mlt_image_format
libmltmovit.so:_ZN8MltInputD1Ev
libmltmovit.so:_ZN8MltInputD2Ev
libmltmovit.so:consumer_xgl_init
libmltmovit.so:filter_deconvolution_sharpen_init
libmltmovit.so:filter_glsl_manager_init
libmltmovit.so:filter_lift_gamma_gain_init
libmltmovit.so:filter_movit_blur_init
libmltmovit.so:filter_movit_convert_init
libmltmovit.so:filter_movit_crop_init
libmltmovit.so:filter_movit_diffusion_init
libmltmovit.so:filter_movit_flip_init
libmltmovit.so:filter_movit_glow_init
libmltmovit.so:filter_movit_mirror_init
libmltmovit.so:filter_movit_opacity_init
libmltmovit.so:filter_movit_rect_init
libmltmovit.so:filter_movit_resample_init
libmltmovit.so:filter_movit_resize_init
libmltmovit.so:filter_movit_saturation_init
libmltmovit.so:filter_movit_vignette_init
libmltmovit.so:filter_white_balance_init
libmltmovit.so:mlt_register
libmltmovit.so:start_xgl
libmltmovit.so:transition_movit_luma_init
libmltmovit.so:transition_movit_mix_init
libmltmovit.so:transition_movit_overlay_init
libmltnormalize.so:filter_audiolevel_init
libmltnormalize.so:filter_volume_init
libmltnormalize.so:mlt_register
libmltnormalize.so:signal_max_power
libmltnormalize.so:strncaseeq
libmltoldfilm.so:filter_dust_init
libmltoldfilm.so:filter_grain_init
libmltoldfilm.so:filter_lines_init
libmltoldfilm.so:filter_oldfilm_init
libmltoldfilm.so:filter_tcolor_init
libmltoldfilm.so:filter_vignette_init
libmltoldfilm.so:mlt_register
libmltplus.so:consumer_blipflash_init
libmltplus.so:ebur128_add_frames_double
libmltplus.so:ebur128_add_frames_float
libmltplus.so:ebur128_add_frames_int
libmltplus.so:ebur128_add_frames_short
libmltplus.so:ebur128_change_parameters
libmltplus.so:ebur128_destroy
libmltplus.so:ebur128_get_version
libmltplus.so:ebur128_init
libmltplus.so:ebur128_loudness_global
libmltplus.so:ebur128_loudness_global_multiple
libmltplus.so:ebur128_loudness_momentary
libmltplus.so:ebur128_loudness_range
libmltplus.so:ebur128_loudness_range_multiple
libmltplus.so:ebur128_loudness_shortterm
libmltplus.so:ebur128_loudness_window
libmltplus.so:ebur128_prev_sample_peak
libmltplus.so:ebur128_prev_true_peak
libmltplus.so:ebur128_relative_threshold
libmltplus.so:ebur128_sample_peak
libmltplus.so:ebur128_set_channel
libmltplus.so:ebur128_set_max_history
libmltplus.so:ebur128_set_max_window
libmltplus.so:ebur128_true_peak
libmltplus.so:filter_affine_init
libmltplus.so:filter_charcoal_init
libmltplus.so:filter_chroma_hold_init
libmltplus.so:filter_chroma_init
libmltplus.so:filter_dance_init
libmltplus.so:filter_dynamic_loudness_init
libmltplus.so:filter_dynamictext_init
libmltplus.so:filter_fft_init
libmltplus.so:filter_invert_init
libmltplus.so:filter_lift_gamma_gain_init
libmltplus.so:filter_loudness_init
libmltplus.so:filter_loudness_meter_init
libmltplus.so:filter_lumakey_init
libmltplus.so:filter_pillar_echo_init
libmltplus.so:filter_rgblut_init
libmltplus.so:filter_sepia_init
libmltplus.so:filter_shape_init
libmltplus.so:filter_spot_remover_init
libmltplus.so:filter_strobe_init
libmltplus.so:filter_text_init
libmltplus.so:filter_threshold_init
libmltplus.so:filter_timer_init
libmltplus.so:interpBC2_b
libmltplus.so:interpBC2_b32
libmltplus.so:interpBC_b
libmltplus.so:interpBC_b32
libmltplus.so:interpBL_b
libmltplus.so:interpBL_b32
libmltplus.so:interpNN_b
libmltplus.so:interpNN_b32
libmltplus.so:interpNNpr_b
libmltplus.so:interpSC16_b
libmltplus.so:interpSC16_b32
libmltplus.so:interpSP4_b
libmltplus.so:interpSP4_b32
libmltplus.so:interpSP6_b
libmltplus.so:interpSP6_b32
libmltplus.so:mlt_register
libmltplus.so:producer_blipflash_init
libmltplus.so:producer_count_init
libmltplus.so:producer_pgm_init
libmltplus.so:time_to_seconds
libmltplus.so:transition_affine_init
libmltplusgpl.so:ALPHAOPERATIONSTR
libmltplusgpl.so:HSItoRGB
libmltplusgpl.so:MODESTR
libmltplusgpl.so:cJSON_AddItemReferenceToArray
libmltplusgpl.so:cJSON_AddItemReferenceToObject
libmltplusgpl.so:cJSON_AddItemToArray
libmltplusgpl.so:cJSON_AddItemToObject
libmltplusgpl.so:cJSON_CreateArray
libmltplusgpl.so:cJSON_CreateBool
libmltplusgpl.so:cJSON_CreateDoubleArray
libmltplusgpl.so:cJSON_CreateFalse
libmltplusgpl.so:cJSON_CreateFloatArray
libmltplusgpl.so:cJSON_CreateIntArray
libmltplusgpl.so:cJSON_CreateNull
libmltplusgpl.so:cJSON_CreateNumber
libmltplusgpl.so:cJSON_CreateObject
libmltplusgpl.so:cJSON_CreateString
libmltplusgpl.so:cJSON_CreateStringArray
libmltplusgpl.so:cJSON_CreateTrue
libmltplusgpl.so:cJSON_Delete
libmltplusgpl.so:cJSON_DeleteItemFromArray
libmltplusgpl.so:cJSON_DeleteItemFromObject
libmltplusgpl.so:cJSON_DetachItemFromArray
libmltplusgpl.so:cJSON_DetachItemFromObject
libmltplusgpl.so:cJSON_GetArrayItem
libmltplusgpl.so:cJSON_GetArraySize
libmltplusgpl.so:cJSON_GetObjectItem
libmltplusgpl.so:cJSON_InitHooks
libmltplusgpl.so:cJSON_Parse
libmltplusgpl.so:cJSON_Print
libmltplusgpl.so:cJSON_PrintUnformatted
libmltplusgpl.so:cJSON_ReplaceItemInArray
libmltplusgpl.so:cJSON_ReplaceItemInObject
libmltplusgpl.so:consumer_cbrts_init
libmltplusgpl.so:fastrand
libmltplusgpl.so:fastrand_val
libmltplusgpl.so:fastsrand
libmltplusgpl.so:filter_burn_init
libmltplusgpl.so:filter_lumaliftgaingamma_init
libmltplusgpl.so:filter_rotoscoping_init
libmltplusgpl.so:filter_telecide_init
libmltplusgpl.so:image_bgset_RGB
libmltplusgpl.so:image_bgset_y
libmltplusgpl.so:image_bgsubtract_RGB
libmltplusgpl.so:image_bgsubtract_update_RGB
libmltplusgpl.so:image_bgsubtract_update_y
libmltplusgpl.so:image_bgsubtract_y
libmltplusgpl.so:image_diff_filter
libmltplusgpl.so:image_edge
libmltplusgpl.so:image_hflip
libmltplusgpl.so:image_set_threshold_RGB
libmltplusgpl.so:image_set_threshold_y
libmltplusgpl.so:image_y_over
libmltplusgpl.so:image_y_under
libmltplusgpl.so:mlt_register
libmltplusgpl.so:ncompare
libmltqt.so:_Z11loadFromXmlP17producer_ktitle_sP14QGraphicsScenePKcS4_
libmltqt.so:_Z11null_stringB5cxx11
libmltqt.so:_Z12clone_stringPKc
libmltqt.so:_Z12create_imageP11mlt_frame_sPPhP16mlt_image_formatPiS5_i
libmltqt.so:_Z12stringToRectRK7QString
libmltqt.so:_Z13stringToColorRK7QString
libmltqt.so:_Z15paint_bar_graphR8QPainterR6QRectFiPf
libmltqt.so:_Z15setup_graph_penR8QPainterR6QRectFP16mlt_properties_sd
libmltqt.so:_Z16paint_line_graphR8QPainterR6QRectFiPfdi
libmltqt.so:_Z17stringToTransformRK7QString
libmltqt.so:_Z19setup_graph_painterR8QPainterR6QRectFP16mlt_properties_s
libmltqt.so:_Z26convert_mlt_to_qimage_rgbaPhP6QImageii
libmltqt.so:_Z26convert_qimage_to_mlt_rgbaP6QImagePhii
libmltqt.so:_Z26createQApplicationIfNeededP13mlt_service_s
libmltqt.so:_Z4blurR6QImagei
libmltqt.so:_ZN10TypeWriter10detectUtf8ERKNSt7__cxx1112basic_stringIcSt11char_traitsIcESaIcEEEm
libmltqt.so:_ZN10TypeWriter10insertCharEcj
libmltqt.so:_ZN10TypeWriter10parseMacroERKNSt7__cxx1112basic_stringIcSt11char_traitsIcESaIcEEERjS8_
libmltqt.so:_ZN10TypeWriter10setPatternERKNSt7__cxx1112basic_stringIcSt11char_traitsIcESaIcEEE
libmltqt.so:_ZN10TypeWriter11parseStringERKNSt7__cxx1112basic_stringIcSt11char_traitsIcESaIcEEEi
libmltqt.so:_ZN10TypeWriter12insertBypassEj
libmltqt.so:_ZN10TypeWriter12insertStringERKNSt7__cxx1112basic_stringIcSt11char_traitsIcESaIcEEEj
libmltqt.so:_ZN10TypeWriter12parseOptionsERKNSt7__cxx1112basic_stringIcSt11char_traitsIcESaIcEEERjRNS_12ParseOptionsE
libmltqt.so:_ZN10TypeWriter16getOrInsertFrameEj
libmltqt.so:_ZN10TypeWriter16printParseResultEv
libmltqt.so:_ZN10TypeWriter23getFrameSkipFromOptionsERKNS_12ParseOptionsEb
libmltqt.so:_ZN10TypeWriter5clearEv
libmltqt.so:_ZN10TypeWriter5parseEv
libmltqt.so:_ZN10TypeWriter6renderB5cxx11Ej
libmltqt.so:_ZN10TypeWriter9addBypassEj
libmltqt.so:_ZN10TypeWriterC1Ev
libmltqt.so:_ZN10TypeWriterC2Ev
libmltqt.so:_ZN5Frame5printEv
libmltqt.so:_ZN5FrameC1Ejj
libmltqt.so:_ZN5FrameC2Ejj
libmltqt.so:_ZN9XmlParser11setDocumentEPKc
libmltqt.so:_ZN9XmlParser14setNodeContentEjRK7QString
libmltqt.so:_ZN9XmlParser5clearEv
libmltqt.so:_ZN9XmlParser5parseEv
libmltqt.so:_ZN9XmlParserC1Ev
libmltqt.so:_ZN9XmlParserC2Ev
libmltqt.so:_ZN9XmlParserD0Ev
libmltqt.so:_ZN9XmlParserD1Ev
libmltqt.so:_ZN9XmlParserD2Ev
libmltqt.so:_ZNK10TypeWriter5countEv
libmltqt.so:_ZNK9XmlParser11getDocumentEv
libmltqt.so:_ZNK9XmlParser14getNodeContentEj
libmltqt.so:consumer_qglsl_init
libmltqt.so:drawKdenliveTitle
libmltqt.so:filter_audiospectrum_init
libmltqt.so:filter_audiowaveform_init
libmltqt.so:filter_lightshow_init
libmltqt.so:filter_qtblend_init
libmltqt.so:filter_qtcrop_init
libmltqt.so:filter_qtext_init
libmltqt.so:filter_typewriter_init
libmltqt.so:init_qimage
libmltqt.so:load_sequence_sprintf
libmltqt.so:make_tempfile
libmltqt.so:mlt_register
libmltqt.so:producer_kdenlivetitle_init
libmltqt.so:producer_qimage_init
libmltqt.so:producer_qtext_init
libmltqt.so:read_xml
libmltqt.so:refresh_image
libmltqt.so:refresh_qimage
libmltqt.so:transition_qtblend_init
libmltqt.so:transition_vqm_init
libmltresample.so:filter_resample_init
libmltresample.so:mlt_register
libmltrtaudio.so:_ZN10RtApiPulse10stopStreamEv
libmltrtaudio.so:_ZN10RtApiPulse11abortStreamEv
libmltrtaudio.so:_ZN10RtApiPulse11closeStreamEv
libmltrtaudio.so:_ZN10RtApiPulse11startStreamEv
libmltrtaudio.so:_ZN10RtApiPulse13callbackEventEv
libmltrtaudio.so:_ZN10RtApiPulse13getDeviceInfoEj
libmltrtaudio.so:_ZN10RtApiPulse14getDeviceCountEv
libmltrtaudio.so:_ZN10RtApiPulse15probeDeviceOpenEjN5RtApi10StreamModeEjjjmPjPN7RtAudio13StreamOptionsE
libmltrtaudio.so:_ZN10RtApiPulseD0Ev
libmltrtaudio.so:_ZN10RtApiPulseD1Ev
libmltrtaudio.so:_ZN10RtApiPulseD2Ev
libmltrtaudio.so:_ZN5RtApi10openStreamEPN7RtAudio16StreamParametersES2_mjPjPFiPvS4_jdjS4_ES4_PNS0_13StreamOptionsEPFvN12RtAudioError4TypeERKNSt7__cxx1112basic_stringIcSt11char_traitsIcESaIcEEEE
libmltrtaudio.so:_ZN5RtApi11closeStreamEv
libmltrtaudio.so:_ZN5RtApi11formatBytesEm
libmltrtaudio.so:_ZN5RtApi12SAMPLE_RATESE
libmltrtaudio.so:_ZN5RtApi12verifyStreamEv
libmltrtaudio.so:_ZN5RtApi13convertBufferEPcS0_RNS_11ConvertInfoE
libmltrtaudio.so:_ZN5RtApi13getStreamTimeEv
libmltrtaudio.so:_ZN5RtApi13setStreamTimeEd
libmltrtaudio.so:_ZN5RtApi14byteSwapBufferEPcjm
libmltrtaudio.so:_ZN5RtApi14setConvertInfoENS_10StreamModeEj
libmltrtaudio.so:_ZN5RtApi14tickStreamTimeEv
libmltrtaudio.so:_ZN5RtApi15clearStreamInfoEv
libmltrtaudio.so:_ZN5RtApi15probeDeviceOpenEjNS_10StreamModeEjjjmPjPN7RtAudio13StreamOptionsE
libmltrtaudio.so:_ZN5RtApi16MAX_SAMPLE_RATESE
libmltrtaudio.so:_ZN5RtApi16getStreamLatencyEv
libmltrtaudio.so:_ZN5RtApi19getStreamSampleRateEv
libmltrtaudio.so:_ZN5RtApi21getDefaultInputDeviceEv
libmltrtaudio.so:_ZN5RtApi22getDefaultOutputDeviceEv
libmltrtaudio.so:_ZN5RtApi5errorEN12RtAudioError4TypeE
libmltrtaudio.so:_ZN5RtApiC1Ev
libmltrtaudio.so:_ZN5RtApiC2Ev
libmltrtaudio.so:_ZN5RtApiD0Ev
libmltrtaudio.so:_ZN5RtApiD1Ev
libmltrtaudio.so:_ZN5RtApiD2Ev
libmltrtaudio.so:_ZN7RtAudio10getVersionB5cxx11Ev
libmltrtaudio.so:_ZN7RtAudio10openStreamEPNS_16StreamParametersES1_mjPjPFiPvS3_jdjS3_ES3_PNS_13StreamOptionsEPFvN12RtAudioError4TypeERKNSt7__cxx1112basic_stringIcSt11char_traitsIcESaIcEEEE
libmltrtaudio.so:_ZN7RtAudio14getCompiledApiERSt6vectorINS_3ApiESaIS1_EE
libmltrtaudio.so:_ZN7RtAudio9openRtApiENS_3ApiE
libmltrtaudio.so:_ZN7RtAudioC1ENS_3ApiE
libmltrtaudio.so:_ZN7RtAudioC2ENS_3ApiE
libmltrtaudio.so:_ZN7RtAudioD1Ev
libmltrtaudio.so:_ZN7RtAudioD2Ev
libmltrtaudio.so:_ZN9RtApiAlsa10stopStreamEv
libmltrtaudio.so:_ZN9RtApiAlsa11abortStreamEv
libmltrtaudio.so:_ZN9RtApiAlsa11closeStreamEv
libmltrtaudio.so:_ZN9RtApiAlsa11startStreamEv
libmltrtaudio.so:_ZN9RtApiAlsa13callbackEventEv
libmltrtaudio.so:_ZN9RtApiAlsa13getDeviceInfoEj
libmltrtaudio.so:_ZN9RtApiAlsa14getDeviceCountEv
libmltrtaudio.so:_ZN9RtApiAlsa14saveDeviceInfoEv
libmltrtaudio.so:_ZN9RtApiAlsa15probeDeviceOpenEjN5RtApi10StreamModeEjjjmPjPN7RtAudio13StreamOptionsE
libmltrtaudio.so:_ZN9RtApiAlsaC1Ev
libmltrtaudio.so:_ZN9RtApiAlsaC2Ev
libmltrtaudio.so:_ZN9RtApiAlsaD0Ev
libmltrtaudio.so:_ZN9RtApiAlsaD1Ev
libmltrtaudio.so:_ZN9RtApiAlsaD2Ev
libmltrtaudio.so:consumer_rtaudio_init
libmltrtaudio.so:mlt_register
libmltsdl2.so:consumer_sdl2_audio_init
libmltsdl2.so:consumer_sdl2_init
libmltsdl2.so:mlt_register
libmltsdl2.so:sdl2_open_audio
libmltvidstab.so:_Z20destroy_analyze_dataP10vs_analyze
libmltvidstab.so:__bss_start
libmltvidstab.so:_edata
libmltvidstab.so:_end
libmltvidstab.so:compare_motion_config
libmltvidstab.so:compare_transform_config
libmltvidstab.so:filter_deshake_init
libmltvidstab.so:filter_vidstab_init
libmltvidstab.so:free_vsimage
libmltvidstab.so:init_vslog
libmltvidstab.so:mlt_register
libmltvidstab.so:mltimage_to_vsimage
libmltvidstab.so:validate_format
libmltvidstab.so:vsimage_to_mltimage
libmltxine.so:YUY2FromPlanes
libmltxine.so:YUY2ToPlanes
libmltxine.so:deinterlace_methods
libmltxine.so:deinterlace_yuv
libmltxine.so:deinterlace_yuv_supported
libmltxine.so:filter_deinterlace_init
libmltxine.so:filter_plane
libmltxine.so:mlt_register
libmltxine.so:xine_mm_accel
libmltxml.so:consumer_xml_init
libmltxml.so:mlt_register
libmltxml.so:mlt_xml_prefix_size
libmltxml.so:producer_xml_init
libmltxml.so:xml_make_doc
