libmatrix_client.so.0.9.2:_ZN3mtx11identifiers7to_jsonERN8nlohmann16json_abi_v3_11_310basic_jsonISt3mapSt6vectorNSt7__cxx1112basic_stringIcSt11char_traitsIcESaIcEEEblmdSaNS2_14adl_serializerES5_IhSaIhEEvEERKNS0_4RoomE
libmatrix_client.so.0.9.2:_ZN3mtx11identifiers7to_jsonERN8nlohmann16json_abi_v3_11_310basic_jsonISt3mapSt6vectorNSt7__cxx1112basic_stringIcSt11char_traitsIcESaIcEEEblmdSaNS2_14adl_serializerES5_IhSaIhEEvEERKNS0_4UserE
libmatrix_client.so.0.9.2:_ZN3mtx11identifiers7to_jsonERN8nlohmann16json_abi_v3_11_310basic_jsonISt3mapSt6vectorNSt7__cxx1112basic_stringIcSt11char_traitsIcESaIcEEEblmdSaNS2_14adl_serializerES5_IhSaIhEEvEERKNS0_5EventE
libmatrix_client.so.0.9.2:_ZN3mtx11identifiers9from_jsonERKN8nlohmann16json_abi_v3_11_310basic_jsonISt3mapSt6vectorNSt7__cxx1112basic_stringIcSt11char_traitsIcESaIcEEEblmdSaNS2_14adl_serializerES5_IhSaIhEEvEERNS0_4RoomE
libmatrix_client.so.0.9.2:_ZN3mtx11identifiers9from_jsonERKN8nlohmann16json_abi_v3_11_310basic_jsonISt3mapSt6vectorNSt7__cxx1112basic_stringIcSt11char_traitsIcESaIcEEEblmdSaNS2_14adl_serializerES5_IhSaIhEEvEERNS0_4UserE
libmatrix_client.so.0.9.2:_ZN3mtx11identifiers9from_jsonERKN8nlohmann16json_abi_v3_11_310basic_jsonISt3mapSt6vectorNSt7__cxx1112basic_stringIcSt11char_traitsIcESaIcEEEblmdSaNS2_14adl_serializerES5_IhSaIhEEvEERNS0_5EventE
libmatrix_client.so.0.9.2:_ZN3mtx14secret_storage7to_jsonERN8nlohmann16json_abi_v3_11_310basic_jsonISt3mapSt6vectorNSt7__cxx1112basic_stringIcSt11char_traitsIcESaIcEEEblmdSaNS2_14adl_serializerES5_IhSaIhEEvEERKNS0_24AesHmacSha2EncryptedDataE
libmatrix_client.so.0.9.2:_ZN3mtx14secret_storage7to_jsonERN8nlohmann16json_abi_v3_11_310basic_jsonISt3mapSt6vectorNSt7__cxx1112basic_stringIcSt11char_traitsIcESaIcEEEblmdSaNS2_14adl_serializerES5_IhSaIhEEvEERKNS0_25AesHmacSha2KeyDescriptionE
libmatrix_client.so.0.9.2:_ZN3mtx14secret_storage7to_jsonERN8nlohmann16json_abi_v3_11_310basic_jsonISt3mapSt6vectorNSt7__cxx1112basic_stringIcSt11char_traitsIcESaIcEEEblmdSaNS2_14adl_serializerES5_IhSaIhEEvEERKNS0_6PBKDF2E
libmatrix_client.so.0.9.2:_ZN3mtx14secret_storage7to_jsonERN8nlohmann16json_abi_v3_11_310basic_jsonISt3mapSt6vectorNSt7__cxx1112basic_stringIcSt11char_traitsIcESaIcEEEblmdSaNS2_14adl_serializerES5_IhSaIhEEvEERKNS0_6SecretE
libmatrix_client.so.0.9.2:_ZN3mtx14secret_storage9from_jsonERKN8nlohmann16json_abi_v3_11_310basic_jsonISt3mapSt6vectorNSt7__cxx1112basic_stringIcSt11char_traitsIcESaIcEEEblmdSaNS2_14adl_serializerES5_IhSaIhEEvEERNS0_24AesHmacSha2EncryptedDataE
libmatrix_client.so.0.9.2:_ZN3mtx14secret_storage9from_jsonERKN8nlohmann16json_abi_v3_11_310basic_jsonISt3mapSt6vectorNSt7__cxx1112basic_stringIcSt11char_traitsIcESaIcEEEblmdSaNS2_14adl_serializerES5_IhSaIhEEvEERNS0_25AesHmacSha2KeyDescriptionE
libmatrix_client.so.0.9.2:_ZN3mtx14secret_storage9from_jsonERKN8nlohmann16json_abi_v3_11_310basic_jsonISt3mapSt6vectorNSt7__cxx1112basic_stringIcSt11char_traitsIcESaIcEEEblmdSaNS2_14adl_serializerES5_IhSaIhEEvEERNS0_6PBKDF2E
libmatrix_client.so.0.9.2:_ZN3mtx14secret_storage9from_jsonERKN8nlohmann16json_abi_v3_11_310basic_jsonISt3mapSt6vectorNSt7__cxx1112basic_stringIcSt11char_traitsIcESaIcEEEblmdSaNS2_14adl_serializerES5_IhSaIhEEvEERNS0_6SecretE
libmatrix_client.so.0.9.2:_ZN3mtx16user_interactive7to_jsonERN8nlohmann16json_abi_v3_11_310basic_jsonISt3mapSt6vectorNSt7__cxx1112basic_stringIcSt11char_traitsIcESaIcEEEblmdSaNS2_14adl_serializerES5_IhSaIhEEvEERKNS0_4AuthE
libmatrix_client.so.0.9.2:_ZN3mtx16user_interactive9from_jsonERKN8nlohmann16json_abi_v3_11_310basic_jsonISt3mapSt6vectorNSt7__cxx1112basic_stringIcSt11char_traitsIcESaIcEEEblmdSaNS2_14adl_serializerES5_IhSaIhEEvEERNS0_11TermsParamsE
libmatrix_client.so.0.9.2:_ZN3mtx16user_interactive9from_jsonERKN8nlohmann16json_abi_v3_11_310basic_jsonISt3mapSt6vectorNSt7__cxx1112basic_stringIcSt11char_traitsIcESaIcEEEblmdSaNS2_14adl_serializerES5_IhSaIhEEvEERNS0_12OAuth2ParamsE
libmatrix_client.so.0.9.2:_ZN3mtx16user_interactive9from_jsonERKN8nlohmann16json_abi_v3_11_310basic_jsonISt3mapSt6vectorNSt7__cxx1112basic_stringIcSt11char_traitsIcESaIcEEEblmdSaNS2_14adl_serializerES5_IhSaIhEEvEERNS0_12UnauthorizedE
libmatrix_client.so.0.9.2:_ZN3mtx16user_interactive9from_jsonERKN8nlohmann16json_abi_v3_11_310basic_jsonISt3mapSt6vectorNSt7__cxx1112basic_stringIcSt11char_traitsIcESaIcEEEblmdSaNS2_14adl_serializerES5_IhSaIhEEvEERNS0_17PolicyDescriptionE
libmatrix_client.so.0.9.2:_ZN3mtx16user_interactive9from_jsonERKN8nlohmann16json_abi_v3_11_310basic_jsonISt3mapSt6vectorNSt7__cxx1112basic_stringIcSt11char_traitsIcESaIcEEEblmdSaNS2_14adl_serializerES5_IhSaIhEEvEERNS0_4FlowE
libmatrix_client.so.0.9.2:_ZN3mtx16user_interactive9from_jsonERKN8nlohmann16json_abi_v3_11_310basic_jsonISt3mapSt6vectorNSt7__cxx1112basic_stringIcSt11char_traitsIcESaIcEEEblmdSaNS2_14adl_serializerES5_IhSaIhEEvEERNS0_6PolicyE
libmatrix_client.so.0.9.2:_ZN3mtx4http6Client10claim_keysERKNS_8requests9ClaimKeysESt8functionIFvRKNS_9responses9ClaimKeysERKSt8optionalINS0_11ClientErrorEEEE
libmatrix_client.so.0.9.2:_ZN3mtx4http6Client10delete_tagERKNSt7__cxx1112basic_stringIcSt11char_traitsIcESaIcEEES9_St8functionIFvRKSt8optionalINS0_11ClientErrorEEEE
libmatrix_client.so.0.9.2:_ZN3mtx4http6Client10get_deviceERKNSt7__cxx1112basic_stringIcSt11char_traitsIcESaIcEEESt8functionIFvRKNS_9responses6DeviceERKSt8optionalINS0_11ClientErrorEEEE
libmatrix_client.so.0.9.2:_ZN3mtx4http6Client10knock_roomERKNSt7__cxx1112basic_stringIcSt11char_traitsIcESaIcEEERKSt6vectorIS7_SaIS7_EESt8functionIFvRKNS_9responses6RoomIdERKSt8optionalINS0_11ClientErrorEEEES9_
libmatrix_client.so.0.9.2:_ZN3mtx4http6Client10leave_roomERKNSt7__cxx1112basic_stringIcSt11char_traitsIcESaIcEEESt8functionIFvRKNS_9responses5EmptyERKSt8optionalINS0_11ClientErrorEEEES9_
libmatrix_client.so.0.9.2:_ZN3mtx4http6Client10query_keysERKNS_8requests9QueryKeysESt8functionIFvRKNS_9responses9QueryKeysERKSt8optionalINS0_11ClientErrorEEEE
libmatrix_client.so.0.9.2:_ZN3mtx4http6Client10read_eventERKNSt7__cxx1112basic_stringIcSt11char_traitsIcESaIcEEES9_St8functionIFvRKSt8optionalINS0_11ClientErrorEEEEb
libmatrix_client.so.0.9.2:_ZN3mtx4http6Client10set_pusherERKNS_8requests9SetPusherESt8functionIFvRKNS_9responses5EmptyERKSt8optionalINS0_11ClientErrorEEEE
libmatrix_client.so.0.9.2:_ZN3mtx4http6Client10set_serverERKNSt7__cxx1112basic_stringIcSt11char_traitsIcESaIcEEE
libmatrix_client.so.0.9.2:_ZN3mtx4http6Client10unban_userERKNSt7__cxx1112basic_stringIcSt11char_traitsIcESaIcEEES9_St8functionIFvRKNS_9responses5EmptyERKSt8optionalINS0_11ClientErrorEEEES9_
libmatrix_client.so.0.9.2:_ZN3mtx4http6Client10well_knownESt8functionIFvRKNS_9responses9WellKnownERKSt8optionalINS0_11ClientErrorEEEE
libmatrix_client.so.0.9.2:_ZN3mtx4http6Client11create_roomERKNS_8requests10CreateRoomESt8functionIFvRKNS_9responses10CreateRoomERKSt8optionalINS0_11ClientErrorEEEE
libmatrix_client.so.0.9.2:_ZN3mtx4http6Client11get_profileERKNSt7__cxx1112basic_stringIcSt11char_traitsIcESaIcEEESt8functionIFvRKNS_9responses7ProfileERKSt8optionalINS0_11ClientErrorEEEE
libmatrix_client.so.0.9.2:_ZN3mtx4http6Client11get_summaryERKNSt7__cxx1112basic_stringIcSt11char_traitsIcESaIcEEESt8functionIFvRKNS_9responses16PublicRoomsChunkERKSt8optionalINS0_11ClientErrorEEEESt6vectorIS7_SaIS7_EE
libmatrix_client.so.0.9.2:_ZN3mtx4http6Client11invite_userERKNSt7__cxx1112basic_stringIcSt11char_traitsIcESaIcEEES9_St8functionIFvRKNS_9responses5EmptyERKSt8optionalINS0_11ClientErrorEEEES9_
libmatrix_client.so.0.9.2:_ZN3mtx4http6Client11key_changesERKNSt7__cxx1112basic_stringIcSt11char_traitsIcESaIcEEES9_St8functionIFvRKNS_9responses10KeyChangesERKSt8optionalINS0_11ClientErrorEEEE
libmatrix_client.so.0.9.2:_ZN3mtx4http6Client11stop_typingERKNSt7__cxx1112basic_stringIcSt11char_traitsIcESaIcEEESt8functionIFvRKSt8optionalINS0_11ClientErrorEEEE
libmatrix_client.so.0.9.2:_ZN3mtx4http6Client11upload_keysERKNS_8requests10UploadKeysESt8functionIFvRKNS_9responses10UploadKeysERKSt8optionalINS0_11ClientErrorEEEE
libmatrix_client.so.0.9.2:_ZN3mtx4http6Client12capabilitiesESt8functionIFvRKNS_9responses12capabilities12CapabilitiesERKSt8optionalINS0_11ClientErrorEEEE
libmatrix_client.so.0.9.2:_ZN3mtx4http6Client12redact_eventERKNSt7__cxx1112basic_stringIcSt11char_traitsIcESaIcEEES9_St8functionIFvRKNS_9responses7EventIdERKSt8optionalINS0_11ClientErrorEEEES9_
libmatrix_client.so.0.9.2:_ZN3mtx4http6Client12registrationERKNSt7__cxx1112basic_stringIcSt11char_traitsIcESaIcEEES9_NS0_10UIAHandlerESt8functionIFvRKNS_9responses8RegisterERKSt8optionalINS0_11ClientErrorEEEES9_
libmatrix_client.so.0.9.2:_ZN3mtx4http6Client12registrationESt8functionIFvRKNS_9responses8RegisterERKSt8optionalINS0_11ClientErrorEEEE
libmatrix_client.so.0.9.2:_ZN3mtx4http6Client12start_typingERKNSt7__cxx1112basic_stringIcSt11char_traitsIcESaIcEEEmSt8functionIFvRKSt8optionalINS0_11ClientErrorEEEE
libmatrix_client.so.0.9.2:_ZN3mtx4http6Client13delete_deviceERKNSt7__cxx1112basic_stringIcSt11char_traitsIcESaIcEEENS0_10UIAHandlerESt8functionIFvRKSt8optionalINS0_11ClientErrorEEEE
libmatrix_client.so.0.9.2:_ZN3mtx4http6Client13get_hierarchyERKNSt7__cxx1112basic_stringIcSt11char_traitsIcESaIcEEESt8functionIFvRKNS_9responses14HierarchyRoomsERKSt8optionalINS0_11ClientErrorEEEES9_mmb
libmatrix_client.so.0.9.2:_ZN3mtx4http6Client13get_pushrulesERKNSt7__cxx1112basic_stringIcSt11char_traitsIcESaIcEEES9_S9_St8functionIFvRKNS_9pushrules8PushRuleERKSt8optionalINS0_11ClientErrorEEEE
libmatrix_client.so.0.9.2:_ZN3mtx4http6Client13get_pushrulesESt8functionIFvRKNS_9pushrules13GlobalRulesetERKSt8optionalINS0_11ClientErrorEEEE
libmatrix_client.so.0.9.2:_ZN3mtx4http6Client13get_thumbnailERKNS0_9ThumbOptsESt8functionIFvRKNSt7__cxx1112basic_stringIcSt11char_traitsIcESaIcEEERKSt8optionalINS0_11ClientErrorEEEEb
libmatrix_client.so.0.9.2:_ZN3mtx4http6Client13notificationsEmRKNSt7__cxx1112basic_stringIcSt11char_traitsIcESaIcEEES9_St8functionIFvRKNS_9responses13NotificationsERKSt8optionalINS0_11ClientErrorEEEE
libmatrix_client.so.0.9.2:_ZN3mtx4http6Client13put_pushrulesERKNSt7__cxx1112basic_stringIcSt11char_traitsIcESaIcEEES9_S9_RKNS_9pushrules8PushRuleESt8functionIFvRKSt8optionalINS0_11ClientErrorEEEES9_S9_
libmatrix_client.so.0.9.2:_ZN3mtx4http6Client13put_room_keysERKNSt7__cxx1112basic_stringIcSt11char_traitsIcESaIcEEERKNS_9responses6backup10KeysBackupESt8functionIFvRKSt8optionalINS0_11ClientErrorEEEE
libmatrix_client.so.0.9.2:_ZN3mtx4http6Client13put_room_keysERKNSt7__cxx1112basic_stringIcSt11char_traitsIcESaIcEEES9_RKNS_9responses6backup14RoomKeysBackupESt8functionIFvRKSt8optionalINS0_11ClientErrorEEEE
libmatrix_client.so.0.9.2:_ZN3mtx4http6Client13put_room_keysERKNSt7__cxx1112basic_stringIcSt11char_traitsIcESaIcEEES9_S9_RKNS_9responses6backup13SessionBackupESt8functionIFvRKSt8optionalINS0_11ClientErrorEEEE
libmatrix_client.so.0.9.2:_ZN3mtx4http6Client13query_devicesESt8functionIFvRKNS_9responses12QueryDevicesERKSt8optionalINS0_11ClientErrorEEEE
libmatrix_client.so.0.9.2:_ZN3mtx4http6Client13upload_filterERKN8nlohmann16json_abi_v3_11_310basic_jsonISt3mapSt6vectorNSt7__cxx1112basic_stringIcSt11char_traitsIcESaIcEEEblmdSaNS3_14adl_serializerES6_IhSaIhEEvEESt8functionIFvRKNS_9responses8FilterIdERKSt8optionalINS0_11ClientErrorEEEE
libmatrix_client.so.0.9.2:_ZN3mtx4http6Client14add_room_aliasERKNSt7__cxx1112basic_stringIcSt11char_traitsIcESaIcEEES9_St8functionIFvRKSt8optionalINS0_11ClientErrorEEEE
libmatrix_client.so.0.9.2:_ZN3mtx4http6Client14backup_versionERKNSt7__cxx1112basic_stringIcSt11char_traitsIcESaIcEEESt8functionIFvRKNS_9responses6backup13BackupVersionERKSt8optionalINS0_11ClientErrorEEEE
libmatrix_client.so.0.9.2:_ZN3mtx4http6Client14backup_versionESt8functionIFvRKNS_9responses6backup13BackupVersionERKSt8optionalINS0_11ClientErrorEEEE
libmatrix_client.so.0.9.2:_ZN3mtx4http6Client14delete_devicesERKSt6vectorINSt7__cxx1112basic_stringIcSt11char_traitsIcESaIcEEESaIS8_EENS0_10UIAHandlerESt8functionIFvRKSt8optionalINS0_11ClientErrorEEEE
libmatrix_client.so.0.9.2:_ZN3mtx4http6Client14get_avatar_urlERKNSt7__cxx1112basic_stringIcSt11char_traitsIcESaIcEEESt8functionIFvRKNS_9responses9AvatarUrlERKSt8optionalINS0_11ClientErrorEEEE
libmatrix_client.so.0.9.2:_ZN3mtx4http6Client14send_to_deviceERKNSt7__cxx1112basic_stringIcSt11char_traitsIcESaIcEEES9_RKN8nlohmann16json_abi_v3_11_310basic_jsonISt3mapSt6vectorS7_blmdSaNSB_14adl_serializerESE_IhSaIhEEvEESt8functionIFvRKSt8optionalINS0_11ClientErrorEEEE
libmatrix_client.so.0.9.2:_ZN3mtx4http6Client14set_avatar_urlERKNSt7__cxx1112basic_stringIcSt11char_traitsIcESaIcEEESt8functionIFvRKSt8optionalINS0_11ClientErrorEEEE
libmatrix_client.so.0.9.2:_ZN3mtx4http6Client15endpoint_to_urlERKNSt7__cxx1112basic_stringIcSt11char_traitsIcESaIcEEEPKc
libmatrix_client.so.0.9.2:_ZN3mtx4http6Client15get_turn_serverESt8functionIFvRKNS_9responses10TurnServerERKSt8optionalINS0_11ClientErrorEEEE
libmatrix_client.so.0.9.2:_ZN3mtx4http6Client15prepare_headersB5cxx11Eb
libmatrix_client.so.0.9.2:_ZN3mtx4http6Client15presence_statusERKNSt7__cxx1112basic_stringIcSt11char_traitsIcESaIcEEESt8functionIFvRKNS_6events8presence8PresenceERKSt8optionalINS0_11ClientErrorEEEE
libmatrix_client.so.0.9.2:_ZN3mtx4http6Client15set_device_nameERKNSt7__cxx1112basic_stringIcSt11char_traitsIcESaIcEEES9_St8functionIFvRKSt8optionalINS0_11ClientErrorEEEE
libmatrix_client.so.0.9.2:_ZN3mtx4http6Client15set_displaynameERKNSt7__cxx1112basic_stringIcSt11char_traitsIcESaIcEEESt8functionIFvRKSt8optionalINS0_11ClientErrorEEEE
libmatrix_client.so.0.9.2:_ZN3mtx4http6Client16delete_pushrulesERKNSt7__cxx1112basic_stringIcSt11char_traitsIcESaIcEEES9_S9_St8functionIFvRKSt8optionalINS0_11ClientErrorEEEE
libmatrix_client.so.0.9.2:_ZN3mtx4http6Client16get_public_roomsESt8functionIFvRKNS_9responses11PublicRoomsERKSt8optionalINS0_11ClientErrorEEEERKNSt7__cxx1112basic_stringIcSt11char_traitsIcESaIcEEEmSL_
libmatrix_client.so.0.9.2:_ZN3mtx4http6Client16send_state_eventERKNSt7__cxx1112basic_stringIcSt11char_traitsIcESaIcEEES9_S9_RKN8nlohmann16json_abi_v3_11_310basic_jsonISt3mapSt6vectorS7_blmdSaNSB_14adl_serializerESE_IhSaIhEEvEESt8functionIFvRKNS_9responses7EventIdERKSt8optionalINS0_11ClientErrorEEEE
libmatrix_client.so.0.9.2:_ZN3mtx4http6Client17delete_room_aliasERKNSt7__cxx1112basic_stringIcSt11char_traitsIcESaIcEEESt8functionIFvRKSt8optionalINS0_11ClientErrorEEEE
libmatrix_client.so.0.9.2:_ZN3mtx4http6Client17enable_encryptionERKNSt7__cxx1112basic_stringIcSt11char_traitsIcESaIcEEESt8functionIFvRKNS_9responses7EventIdERKSt8optionalINS0_11ClientErrorEEEE
libmatrix_client.so.0.9.2:_ZN3mtx4http6Client17list_room_aliasesERKNSt7__cxx1112basic_stringIcSt11char_traitsIcESaIcEEESt8functionIFvRKNS_9responses7AliasesERKSt8optionalINS0_11ClientErrorEEEE
libmatrix_client.so.0.9.2:_ZN3mtx4http6Client17post_public_roomsERKNS_8requests11PublicRoomsESt8functionIFvRKNS_9responses11PublicRoomsERKSt8optionalINS0_11ClientErrorEEEERKNSt7__cxx1112basic_stringIcSt11char_traitsIcESaIcEEE
libmatrix_client.so.0.9.2:_ZN3mtx4http6Client18alt_svc_cache_pathERKNSt7__cxx1112basic_stringIcSt11char_traitsIcESaIcEEE
libmatrix_client.so.0.9.2:_ZN3mtx4http6Client18login_sso_redirectENSt7__cxx1112basic_stringIcSt11char_traitsIcESaIcEEERKS7_
libmatrix_client.so.0.9.2:_ZN3mtx4http6Client18resolve_room_aliasERKNSt7__cxx1112basic_stringIcSt11char_traitsIcESaIcEEESt8functionIFvRKNS_9responses6RoomIdERKSt8optionalINS0_11ClientErrorEEEE
libmatrix_client.so.0.9.2:_ZN3mtx4http6Client18secret_storage_keyERKNSt7__cxx1112basic_stringIcSt11char_traitsIcESaIcEEESt8functionIFvRKNS_14secret_storage25AesHmacSha2KeyDescriptionERKSt8optionalINS0_11ClientErrorEEEE
libmatrix_client.so.0.9.2:_ZN3mtx4http6Client19get_room_visibilityERKNSt7__cxx1112basic_stringIcSt11char_traitsIcESaIcEEESt8functionIFvRKNS_9responses20PublicRoomVisibilityERKSt8optionalINS0_11ClientErrorEEEE
libmatrix_client.so.0.9.2:_ZN3mtx4http6Client19mxc_to_download_urlERKNSt7__cxx1112basic_stringIcSt11char_traitsIcESaIcEEE
libmatrix_client.so.0.9.2:_ZN3mtx4http6Client19post_backup_versionERKNSt7__cxx1112basic_stringIcSt11char_traitsIcESaIcEEES9_St8functionIFvRKNS_9responses7VersionERKSt8optionalINS0_11ClientErrorEEEE
libmatrix_client.so.0.9.2:_ZN3mtx4http6Client19put_presence_statusENS_8presence13PresenceStateESt8optionalINSt7__cxx1112basic_stringIcSt11char_traitsIcESaIcEEEESt8functionIFvRKS4_INS0_11ClientErrorEEEE
libmatrix_client.so.0.9.2:_ZN3mtx4http6Client19put_room_visibilityERKNSt7__cxx1112basic_stringIcSt11char_traitsIcESaIcEEERKNS_8requests20PublicRoomVisibilityESt8functionIFvRKSt8optionalINS0_11ClientErrorEEEE
libmatrix_client.so.0.9.2:_ZN3mtx4http6Client19verify_certificatesEb
libmatrix_client.so.0.9.2:_ZN3mtx4http6Client21device_signing_uploadERKNS_8requests19DeviceSigningUploadENS0_10UIAHandlerESt8functionIFvRKSt8optionalINS0_11ClientErrorEEEE
libmatrix_client.so.0.9.2:_ZN3mtx4http6Client21get_pushrules_actionsERKNSt7__cxx1112basic_stringIcSt11char_traitsIcESaIcEEES9_S9_St8functionIFvRKNS_9pushrules7actions7ActionsERKSt8optionalINS0_11ClientErrorEEEE
libmatrix_client.so.0.9.2:_ZN3mtx4http6Client21get_pushrules_enabledERKNSt7__cxx1112basic_stringIcSt11char_traitsIcESaIcEEES9_S9_St8functionIFvRKNS_9pushrules7EnabledERKSt8optionalINS0_11ClientErrorEEEE
libmatrix_client.so.0.9.2:_ZN3mtx4http6Client21put_pushrules_actionsERKNSt7__cxx1112basic_stringIcSt11char_traitsIcESaIcEEES9_S9_RKNS_9pushrules7actions7ActionsESt8functionIFvRKSt8optionalINS0_11ClientErrorEEEE
libmatrix_client.so.0.9.2:_ZN3mtx4http6Client21put_pushrules_enabledERKNSt7__cxx1112basic_stringIcSt11char_traitsIcESaIcEEES9_S9_bSt8functionIFvRKSt8optionalINS0_11ClientErrorEEEE
libmatrix_client.so.0.9.2:_ZN3mtx4http6Client21search_user_directoryERKNSt7__cxx1112basic_stringIcSt11char_traitsIcESaIcEEESt8functionIFvRKNS_9responses5UsersERKSt8optionalINS0_11ClientErrorEEEEi
libmatrix_client.so.0.9.2:_ZN3mtx4http6Client21secret_storage_secretERKNSt7__cxx1112basic_stringIcSt11char_traitsIcESaIcEEESt8functionIFvRKNS_14secret_storage6SecretERKSt8optionalINS0_11ClientErrorEEEE
libmatrix_client.so.0.9.2:_ZN3mtx4http6Client21update_backup_versionERKNSt7__cxx1112basic_stringIcSt11char_traitsIcESaIcEEERKNS_9responses6backup13BackupVersionESt8functionIFvRKSt8optionalINS0_11ClientErrorEEEE
libmatrix_client.so.0.9.2:_ZN3mtx4http6Client21validate_submit_tokenERKNSt7__cxx1112basic_stringIcSt11char_traitsIcESaIcEEERKNS_8requests19IdentitySubmitTokenESt8functionIFvRKNS_9responses7SuccessERKSt8optionalINS0_11ClientErrorEEEE
libmatrix_client.so.0.9.2:_ZN3mtx4http6Client22keys_signatures_uploadERKNS_8requests19KeySignaturesUploadESt8functionIFvRKNS_9responses19KeySignaturesUploadERKSt8optionalINS0_11ClientErrorEEEE
libmatrix_client.so.0.9.2:_ZN3mtx4http6Client25upload_secret_storage_keyERKNSt7__cxx1112basic_stringIcSt11char_traitsIcESaIcEEERKNS_14secret_storage25AesHmacSha2KeyDescriptionESt8functionIFvRKSt8optionalINS0_11ClientErrorEEEE
libmatrix_client.so.0.9.2:_ZN3mtx4http6Client26verify_email_request_tokenERKNS_8requests17RequestEmailTokenESt8functionIFvRKNS_9responses12RequestTokenERKSt8optionalINS0_11ClientErrorEEEE
libmatrix_client.so.0.9.2:_ZN3mtx4http6Client26verify_phone_request_tokenERKNS_8requests18RequestMSISDNTokenESt8functionIFvRKNS_9responses12RequestTokenERKSt8optionalINS0_11ClientErrorEEEE
libmatrix_client.so.0.9.2:_ZN3mtx4http6Client27register_username_availableERKNSt7__cxx1112basic_stringIcSt11char_traitsIcESaIcEEESt8functionIFvRKNS_9responses9AvailableERKSt8optionalINS0_11ClientErrorEEEE
libmatrix_client.so.0.9.2:_ZN3mtx4http6Client27registration_token_validityENSt7__cxx1112basic_stringIcSt11char_traitsIcESaIcEEESt8functionIFvRKNS_9responses25RegistrationTokenValidityERKSt8optionalINS0_11ClientErrorEEEE
libmatrix_client.so.0.9.2:_ZN3mtx4http6Client28register_email_request_tokenERKNS_8requests17RequestEmailTokenESt8functionIFvRKNS_9responses12RequestTokenERKSt8optionalINS0_11ClientErrorEEEE
libmatrix_client.so.0.9.2:_ZN3mtx4http6Client28register_phone_request_tokenERKNS_8requests18RequestMSISDNTokenESt8functionIFvRKNS_9responses12RequestTokenERKSt8optionalINS0_11ClientErrorEEEE
libmatrix_client.so.0.9.2:_ZN3mtx4http6Client28upload_secret_storage_secretERKNSt7__cxx1112basic_stringIcSt11char_traitsIcESaIcEEERKNS_14secret_storage6SecretESt8functionIFvRKSt8optionalINS0_11ClientErrorEEEE
libmatrix_client.so.0.9.2:_ZN3mtx4http6Client30set_secret_storage_default_keyERKNSt7__cxx1112basic_stringIcSt11char_traitsIcESaIcEEESt8functionIFvRKSt8optionalINS0_11ClientErrorEEEE
libmatrix_client.so.0.9.2:_ZN3mtx4http6Client3getERKNSt7__cxx1112basic_stringIcSt11char_traitsIcESaIcEEESt8functionIFvRKSt8optionalISt3mapIS7_S7_N6coeurl11header_lessESaISt4pairIS8_S7_EEEERKSt17basic_string_viewIcS5_EiiEEbS9_i
libmatrix_client.so.0.9.2:_ZN3mtx4http6Client3putERKNSt7__cxx1112basic_stringIcSt11char_traitsIcESaIcEEES9_St8functionIFvRKSt8optionalISt3mapIS7_S7_N6coeurl11header_lessESaISt4pairIS8_S7_EEEERKSt17basic_string_viewIcS5_EiiEEb
libmatrix_client.so.0.9.2:_ZN3mtx4http6Client4postERKNSt7__cxx1112basic_stringIcSt11char_traitsIcESaIcEEES9_St8functionIFvRKSt8optionalISt3mapIS7_S7_N6coeurl11header_lessESaISt4pairIS8_S7_EEEERKSt17basic_string_viewIcS5_EiiEEbS9_
libmatrix_client.so.0.9.2:_ZN3mtx4http6Client4syncERKNS0_8SyncOptsESt8functionIFvRKNS_9responses4SyncERKSt8optionalINS0_11ClientErrorEEEE
libmatrix_client.so.0.9.2:_ZN3mtx4http6Client5closeEb
libmatrix_client.so.0.9.2:_ZN3mtx4http6Client5loginERKNS_8requests5LoginESt8functionIFvRKNS_9responses5LoginERKSt8optionalINS0_11ClientErrorEEEE
libmatrix_client.so.0.9.2:_ZN3mtx4http6Client5loginERKNSt7__cxx1112basic_stringIcSt11char_traitsIcESaIcEEES9_S9_St8functionIFvRKNS_9responses5LoginERKSt8optionalINS0_11ClientErrorEEEE
libmatrix_client.so.0.9.2:_ZN3mtx4http6Client5loginERKNSt7__cxx1112basic_stringIcSt11char_traitsIcESaIcEEES9_St8functionIFvRKNS_9responses5LoginERKSt8optionalINS0_11ClientErrorEEEE
libmatrix_client.so.0.9.2:_ZN3mtx4http6Client6logoutESt8functionIFvRKNS_9responses5EmptyERKSt8optionalINS0_11ClientErrorEEEE
libmatrix_client.so.0.9.2:_ZN3mtx4http6Client6uploadERKNSt7__cxx1112basic_stringIcSt11char_traitsIcESaIcEEES9_S9_St8functionIFvRKNS_9responses10ContentURIERKSt8optionalINS0_11ClientErrorEEEE
libmatrix_client.so.0.9.2:_ZN3mtx4http6Client7delete_ERKNSt7__cxx1112basic_stringIcSt11char_traitsIcESaIcEEESt8functionIFvRKSt8optionalINS0_11ClientErrorEEEEb
libmatrix_client.so.0.9.2:_ZN3mtx4http6Client7membersERKNSt7__cxx1112basic_stringIcSt11char_traitsIcESaIcEEESt8functionIFvRKNS_9responses7MembersERKSt8optionalINS0_11ClientErrorEEEES9_SF_INS_6events5state10MembershipEESP_
libmatrix_client.so.0.9.2:_ZN3mtx4http6Client7put_tagERKNSt7__cxx1112basic_stringIcSt11char_traitsIcESaIcEEES9_RKNS_6events12account_data3TagESt8functionIFvRKSt8optionalINS0_11ClientErrorEEEE
libmatrix_client.so.0.9.2:_ZN3mtx4http6Client8ban_userERKNSt7__cxx1112basic_stringIcSt11char_traitsIcESaIcEEES9_St8functionIFvRKNS_9responses5EmptyERKSt8optionalINS0_11ClientErrorEEEES9_
libmatrix_client.so.0.9.2:_ZN3mtx4http6Client8downloadERKNSt7__cxx1112basic_stringIcSt11char_traitsIcESaIcEEES9_St8functionIFvS9_S9_S9_RKSt8optionalINS0_11ClientErrorEEEE
libmatrix_client.so.0.9.2:_ZN3mtx4http6Client8downloadERKNSt7__cxx1112basic_stringIcSt11char_traitsIcESaIcEEESt8functionIFvS9_S9_S9_RKSt8optionalINS0_11ClientErrorEEEE
libmatrix_client.so.0.9.2:_ZN3mtx4http6Client8get_tagsERKNSt7__cxx1112basic_stringIcSt11char_traitsIcESaIcEEESt8functionIFvRKNS_6events12account_data4TagsERKSt8optionalINS0_11ClientErrorEEEE
libmatrix_client.so.0.9.2:_ZN3mtx4http6Client8messagesERKNS0_12MessagesOptsESt8functionIFvRKNS_9responses8MessagesERKSt8optionalINS0_11ClientErrorEEEE
libmatrix_client.so.0.9.2:_ZN3mtx4http6Client8shutdownEv
libmatrix_client.so.0.9.2:_ZN3mtx4http6Client8versionsESt8functionIFvRKNS_9responses8VersionsERKSt8optionalINS0_11ClientErrorEEEE
libmatrix_client.so.0.9.2:_ZN3mtx4http6Client9get_eventERKNSt7__cxx1112basic_stringIcSt11char_traitsIcESaIcEEES9_St8functionIFvRKSt7variantIJNS_6events10StateEventINSC_5state7AliasesEEENSD_INSE_6AvatarEEENSD_INSE_14CanonicalAliasEEENSD_INSE_6CreateEEENSD_INSE_10EncryptionEEENSD_INSE_11GuestAccessEEENSD_INSE_17HistoryVisibilityEEENSD_INSE_9JoinRulesEEENSD_INSE_6MemberEEENSD_INSE_4NameEEENSD_INSE_12PinnedEventsEEENSD_INSE_11PowerLevelsEEENSD_INSE_11policy_rule8UserRuleEEENSD_INS13_8RoomRuleEEENSD_INS13_10ServerRuleEEENSD_INSE_5space5ChildEEENSD_INS1A_6ParentEEENSD_INSE_9TombstoneEEENSD_INSE_5TopicEEENSD_INSE_6WidgetEEENSD_INSC_7msc25459ImagePackEEENSD_INSC_3msg8RedactedEEENSC_14EncryptedEventINS1O_9EncryptedEEENSC_14RedactionEventINS1O_9RedactionEEENSC_7StickerENSC_9RoomEventINS1O_8ReactionEEENS1Y_IS1P_EENS1Y_INS1O_5AudioEEENS1Y_INS1O_8ConfettiEEENS1Y_INS1O_5EmoteEEENS1Y_INS1O_4FileEEENS1Y_INS1O_5ImageEEENS1Y_INS1O_6NoticeEEENS1Y_INS1O_4TextEEENS1Y_INS1O_5VideoEEENS1Y_INS1O_22KeyVerificationRequestEEENS1Y_INS1O_20KeyVerificationStartEEENS1Y_INS1O_20KeyVerificationReadyEEENS1Y_INS1O_19KeyVerificationDoneEEENS1Y_INS1O_21KeyVerificationAcceptEEENS1Y_INS1O_21KeyVerificationCancelEEENS1Y_INS1O_18KeyVerificationKeyEEENS1Y_INS1O_18KeyVerificationMacEEENS1Y_INSC_4voip14CallCandidatesEEENS1Y_INS2Y_10CallInviteEEENS1Y_INS2Y_10CallAnswerEEENS1Y_INS2Y_10CallHangUpEEENS1Y_INS2Y_16CallSelectAnswerEEENS1Y_INS2Y_10CallRejectEEENS1Y_INS2Y_13CallNegotiateEEENS1Y_INSC_7UnknownEEEEERKSt8optionalINS0_11ClientErrorEEEE
libmatrix_client.so.0.9.2:_ZN3mtx4http6Client9get_loginESt8functionIFvRKNS_9responses10LoginFlowsERKSt8optionalINS0_11ClientErrorEEEE
libmatrix_client.so.0.9.2:_ZN3mtx4http6Client9get_stateERKNSt7__cxx1112basic_stringIcSt11char_traitsIcESaIcEEESt8functionIFvRKNS_9responses11StateEventsERKSt8optionalINS0_11ClientErrorEEEE
libmatrix_client.so.0.9.2:_ZN3mtx4http6Client9join_roomERKNSt7__cxx1112basic_stringIcSt11char_traitsIcESaIcEEERKSt6vectorIS7_SaIS7_EESt8functionIFvRKNS_9responses6RoomIdERKSt8optionalINS0_11ClientErrorEEEES9_
libmatrix_client.so.0.9.2:_ZN3mtx4http6Client9join_roomERKNSt7__cxx1112basic_stringIcSt11char_traitsIcESaIcEEESt8functionIFvRKNS_9responses6RoomIdERKSt8optionalINS0_11ClientErrorEEEE
libmatrix_client.so.0.9.2:_ZN3mtx4http6Client9kick_userERKNSt7__cxx1112basic_stringIcSt11char_traitsIcESaIcEEES9_St8functionIFvRKNS_9responses5EmptyERKSt8optionalINS0_11ClientErrorEEEES9_
libmatrix_client.so.0.9.2:_ZN3mtx4http6Client9room_keysERKNSt7__cxx1112basic_stringIcSt11char_traitsIcESaIcEEES9_S9_St8functionIFvRKNS_9responses6backup13SessionBackupERKSt8optionalINS0_11ClientErrorEEEE
libmatrix_client.so.0.9.2:_ZN3mtx4http6Client9room_keysERKNSt7__cxx1112basic_stringIcSt11char_traitsIcESaIcEEES9_St8functionIFvRKNS_9responses6backup14RoomKeysBackupERKSt8optionalINS0_11ClientErrorEEEE
libmatrix_client.so.0.9.2:_ZN3mtx4http6Client9room_keysERKNSt7__cxx1112basic_stringIcSt11char_traitsIcESaIcEEESt8functionIFvRKNS_9responses6backup10KeysBackupERKSt8optionalINS0_11ClientErrorEEEE
libmatrix_client.so.0.9.2:_ZN3mtx4http6ClientC1ERKNSt7__cxx1112basic_stringIcSt11char_traitsIcESaIcEEEt
libmatrix_client.so.0.9.2:_ZN3mtx4http6ClientC2ERKNSt7__cxx1112basic_stringIcSt11char_traitsIcESaIcEEEt
libmatrix_client.so.0.9.2:_ZN3mtx4http6ClientD1Ev
libmatrix_client.so.0.9.2:_ZN3mtx4http6ClientD2Ev
libmatrix_client.so.0.9.2:_ZN3mtx5utils3log3logEv
libmatrix_client.so.0.9.2:_ZN3mtx6client5utils10url_encodeERKNSt7__cxx1112basic_stringIcSt11char_traitsIcESaIcEEE
libmatrix_client.so.0.9.2:_ZN3mtx6client5utils12query_paramsERKSt3mapINSt7__cxx1112basic_stringIcSt11char_traitsIcESaIcEEES8_St4lessIS8_ESaISt4pairIKS8_S8_EEE
libmatrix_client.so.0.9.2:_ZN3mtx6client5utils12random_tokenB5cxx11Ehb
libmatrix_client.so.0.9.2:_ZN3mtx6client5utils13parse_mxc_urlERKNSt7__cxx1112basic_stringIcSt11char_traitsIcESaIcEEE
libmatrix_client.so.0.9.2:_ZN3mtx6client5utils9is_numberERKNSt7__cxx1112basic_stringIcSt11char_traitsIcESaIcEEE
libmatrix_client.so.0.9.2:_ZN3mtx6common13add_relationsERN8nlohmann16json_abi_v3_11_310basic_jsonISt3mapSt6vectorNSt7__cxx1112basic_stringIcSt11char_traitsIcESaIcEEEblmdSaNS2_14adl_serializerES5_IhSaIhEEvEERKNS0_9RelationsE
libmatrix_client.so.0.9.2:_ZN3mtx6common15apply_relationsERN8nlohmann16json_abi_v3_11_310basic_jsonISt3mapSt6vectorNSt7__cxx1112basic_stringIcSt11char_traitsIcESaIcEEEblmdSaNS2_14adl_serializerES5_IhSaIhEEvEERKNS0_9RelationsE
libmatrix_client.so.0.9.2:_ZN3mtx6common15parse_relationsERKN8nlohmann16json_abi_v3_11_310basic_jsonISt3mapSt6vectorNSt7__cxx1112basic_stringIcSt11char_traitsIcESaIcEEEblmdSaNS2_14adl_serializerES5_IhSaIhEEvEE
libmatrix_client.so.0.9.2:_ZN3mtx6common7to_jsonERN8nlohmann16json_abi_v3_11_310basic_jsonISt3mapSt6vectorNSt7__cxx1112basic_stringIcSt11char_traitsIcESaIcEEEblmdSaNS2_14adl_serializerES5_IhSaIhEEvEERKNS0_12RelationTypeE
libmatrix_client.so.0.9.2:_ZN3mtx6common7to_jsonERN8nlohmann16json_abi_v3_11_310basic_jsonISt3mapSt6vectorNSt7__cxx1112basic_stringIcSt11char_traitsIcESaIcEEEblmdSaNS2_14adl_serializerES5_IhSaIhEEvEERKNS0_13ThumbnailInfoE
libmatrix_client.so.0.9.2:_ZN3mtx6common7to_jsonERN8nlohmann16json_abi_v3_11_310basic_jsonISt3mapSt6vectorNSt7__cxx1112basic_stringIcSt11char_traitsIcESaIcEEEblmdSaNS2_14adl_serializerES5_IhSaIhEEvEERKNS0_8FileInfoE
libmatrix_client.so.0.9.2:_ZN3mtx6common7to_jsonERN8nlohmann16json_abi_v3_11_310basic_jsonISt3mapSt6vectorNSt7__cxx1112basic_stringIcSt11char_traitsIcESaIcEEEblmdSaNS2_14adl_serializerES5_IhSaIhEEvEERKNS0_8RelationE
libmatrix_client.so.0.9.2:_ZN3mtx6common7to_jsonERN8nlohmann16json_abi_v3_11_310basic_jsonISt3mapSt6vectorNSt7__cxx1112basic_stringIcSt11char_traitsIcESaIcEEEblmdSaNS2_14adl_serializerES5_IhSaIhEEvEERKNS0_9AudioInfoE
libmatrix_client.so.0.9.2:_ZN3mtx6common7to_jsonERN8nlohmann16json_abi_v3_11_310basic_jsonISt3mapSt6vectorNSt7__cxx1112basic_stringIcSt11char_traitsIcESaIcEEEblmdSaNS2_14adl_serializerES5_IhSaIhEEvEERKNS0_9ImageInfoE
libmatrix_client.so.0.9.2:_ZN3mtx6common7to_jsonERN8nlohmann16json_abi_v3_11_310basic_jsonISt3mapSt6vectorNSt7__cxx1112basic_stringIcSt11char_traitsIcESaIcEEEblmdSaNS2_14adl_serializerES5_IhSaIhEEvEERKNS0_9VideoInfoE
libmatrix_client.so.0.9.2:_ZN3mtx6common9from_jsonERKN8nlohmann16json_abi_v3_11_310basic_jsonISt3mapSt6vectorNSt7__cxx1112basic_stringIcSt11char_traitsIcESaIcEEEblmdSaNS2_14adl_serializerES5_IhSaIhEEvEERNS0_12RelationTypeE
libmatrix_client.so.0.9.2:_ZN3mtx6common9from_jsonERKN8nlohmann16json_abi_v3_11_310basic_jsonISt3mapSt6vectorNSt7__cxx1112basic_stringIcSt11char_traitsIcESaIcEEEblmdSaNS2_14adl_serializerES5_IhSaIhEEvEERNS0_13ThumbnailInfoE
libmatrix_client.so.0.9.2:_ZN3mtx6common9from_jsonERKN8nlohmann16json_abi_v3_11_310basic_jsonISt3mapSt6vectorNSt7__cxx1112basic_stringIcSt11char_traitsIcESaIcEEEblmdSaNS2_14adl_serializerES5_IhSaIhEEvEERNS0_8FileInfoE
libmatrix_client.so.0.9.2:_ZN3mtx6common9from_jsonERKN8nlohmann16json_abi_v3_11_310basic_jsonISt3mapSt6vectorNSt7__cxx1112basic_stringIcSt11char_traitsIcESaIcEEEblmdSaNS2_14adl_serializerES5_IhSaIhEEvEERNS0_8RelationE
libmatrix_client.so.0.9.2:_ZN3mtx6common9from_jsonERKN8nlohmann16json_abi_v3_11_310basic_jsonISt3mapSt6vectorNSt7__cxx1112basic_stringIcSt11char_traitsIcESaIcEEEblmdSaNS2_14adl_serializerES5_IhSaIhEEvEERNS0_9AudioInfoE
libmatrix_client.so.0.9.2:_ZN3mtx6common9from_jsonERKN8nlohmann16json_abi_v3_11_310basic_jsonISt3mapSt6vectorNSt7__cxx1112basic_stringIcSt11char_traitsIcESaIcEEEblmdSaNS2_14adl_serializerES5_IhSaIhEEvEERNS0_9ImageInfoE
libmatrix_client.so.0.9.2:_ZN3mtx6common9from_jsonERKN8nlohmann16json_abi_v3_11_310basic_jsonISt3mapSt6vectorNSt7__cxx1112basic_stringIcSt11char_traitsIcESaIcEEEblmdSaNS2_14adl_serializerES5_IhSaIhEEvEERNS0_9VideoInfoE
libmatrix_client.so.0.9.2:_ZN3mtx6crypto10base582binERKNSt7__cxx1112basic_stringIcSt11char_traitsIcESaIcEEE
libmatrix_client.so.0.9.2:_ZN3mtx6crypto10base642binERKNSt7__cxx1112basic_stringIcSt11char_traitsIcESaIcEEE
libmatrix_client.so.0.9.2:_ZN3mtx6crypto10bin2base58ERKNSt7__cxx1112basic_stringIcSt11char_traitsIcESaIcEEE
libmatrix_client.so.0.9.2:_ZN3mtx6crypto10bin2base64ERKNSt7__cxx1112basic_stringIcSt11char_traitsIcESaIcEEE
libmatrix_client.so.0.9.2:_ZN3mtx6crypto10session_idB5cxx11EP10OlmSession
libmatrix_client.so.0.9.2:_ZN3mtx6crypto10session_idB5cxx11EP23OlmOutboundGroupSession
libmatrix_client.so.0.9.2:_ZN3mtx6crypto11HKDF_SHA256ERKSt6vectorIhSaIhEES5_S5_
libmatrix_client.so.0.9.2:_ZN3mtx6crypto11HMAC_SHA256ERKSt6vectorIhSaIhEES5_
libmatrix_client.so.0.9.2:_ZN3mtx6crypto11session_keyB5cxx11EP23OlmOutboundGroupSession
libmatrix_client.so.0.9.2:_ZN3mtx6crypto12decrypt_fileERKNSt7__cxx1112basic_stringIcSt11char_traitsIcESaIcEEERKNS0_13EncryptedFileE
libmatrix_client.so.0.9.2:_ZN3mtx6crypto12encrypt_fileERKNSt7__cxx1112basic_stringIcSt11char_traitsIcESaIcEEE
libmatrix_client.so.0.9.2:_ZN3mtx6crypto13compatible_ivESt6vectorIhSaIhEE
libmatrix_client.so.0.9.2:_ZN3mtx6crypto13create_bufferEm
libmatrix_client.so.0.9.2:_ZN3mtx6crypto13olm_exception14ec_from_stringESt17basic_string_viewIcSt11char_traitsIcEE
libmatrix_client.so.0.9.2:_ZN3mtx6crypto14export_sessionB5cxx11EP22OlmInboundGroupSessionj
libmatrix_client.so.0.9.2:_ZN3mtx6crypto14import_sessionERKNSt7__cxx1112basic_stringIcSt11char_traitsIcESaIcEEE
libmatrix_client.so.0.9.2:_ZN3mtx6crypto15decrypt_sessionERKNS_9responses6backup20EncryptedSessionDataERKSt6vectorIhSaIhEE
libmatrix_client.so.0.9.2:_ZN3mtx6crypto15encrypt_sessionERKNS_9responses6backup11SessionDataERKNSt7__cxx1112basic_stringIcSt11char_traitsIcESaIcEEE
libmatrix_client.so.0.9.2:_ZN3mtx6crypto15uint32_to_uint8EPhj
libmatrix_client.so.0.9.2:_ZN3mtx6crypto15uint8_to_uint32EPhRj
libmatrix_client.so.0.9.2:_ZN3mtx6crypto15unpack_key_fileERKNSt7__cxx1112basic_stringIcSt11char_traitsIcESaIcEEE
libmatrix_client.so.0.9.2:_ZN3mtx6crypto18key_to_recoverykeyB5cxx11ERKSt6vectorIhSaIhEE
libmatrix_client.so.0.9.2:_ZN3mtx6crypto19AES_CTR_256_DecryptERKNSt7__cxx1112basic_stringIcSt11char_traitsIcESaIcEEERKSt6vectorIhSaIhEESB_
libmatrix_client.so.0.9.2:_ZN3mtx6crypto19AES_CTR_256_EncryptERKNSt7__cxx1112basic_stringIcSt11char_traitsIcESaIcEEERKSt6vectorIhSaIhEESB_
libmatrix_client.so.0.9.2:_ZN3mtx6crypto19PBKDF2_HMAC_SHA_512ERKNSt7__cxx1112basic_stringIcSt11char_traitsIcESaIcEEERKSt6vectorIhSaIhEEjj
libmatrix_client.so.0.9.2:_ZN3mtx6crypto19base642bin_unpaddedERKNSt7__cxx1112basic_stringIcSt11char_traitsIcESaIcEEE
libmatrix_client.so.0.9.2:_ZN3mtx6crypto19bin2base64_unpaddedERKNSt7__cxx1112basic_stringIcSt11char_traitsIcESaIcEEE
libmatrix_client.so.0.9.2:_ZN3mtx6crypto19key_from_passphraseERKNSt7__cxx1112basic_stringIcSt11char_traitsIcESaIcEEERKNS_14secret_storage25AesHmacSha2KeyDescriptionE
libmatrix_client.so.0.9.2:_ZN3mtx6crypto20key_from_recoverykeyERKNSt7__cxx1112basic_stringIcSt11char_traitsIcESaIcEEERKNS_14secret_storage25AesHmacSha2KeyDescriptionE
libmatrix_client.so.0.9.2:_ZN3mtx6crypto23matches_inbound_sessionEP10OlmSessionRKNSt7__cxx1112basic_stringIcSt11char_traitsIcESaIcEEE
libmatrix_client.so.0.9.2:_ZN3mtx6crypto24ed25519_verify_signatureENSt7__cxx1112basic_stringIcSt11char_traitsIcESaIcEEEN8nlohmann16json_abi_v3_11_310basic_jsonISt3mapSt6vectorS6_blmdSaNS8_14adl_serializerESB_IhSaIhEEvEES6_
libmatrix_client.so.0.9.2:_ZN3mtx6crypto25decrypt_exported_sessionsERKNSt7__cxx1112basic_stringIcSt11char_traitsIcESaIcEEES8_
libmatrix_client.so.0.9.2:_ZN3mtx6crypto25encrypt_exported_sessionsERKNS0_19ExportedSessionKeysERKNSt7__cxx1112basic_stringIcSt11char_traitsIcESaIcEEE
libmatrix_client.so.0.9.2:_ZN3mtx6crypto25verify_identity_signatureERKNS0_10DeviceKeysERK8DeviceIdRK6UserId
libmatrix_client.so.0.9.2:_ZN3mtx6crypto27CURVE25519_AES_SHA2_DecryptENSt7__cxx1112basic_stringIcSt11char_traitsIcESaIcEEERKSt6vectorIhSaIhEERKS6_SD_
libmatrix_client.so.0.9.2:_ZN3mtx6crypto27CURVE25519_AES_SHA2_EncryptERKNSt7__cxx1112basic_stringIcSt11char_traitsIcESaIcEEES8_
libmatrix_client.so.0.9.2:_ZN3mtx6crypto27base642bin_urlsafe_unpaddedERKNSt7__cxx1112basic_stringIcSt11char_traitsIcESaIcEEE
libmatrix_client.so.0.9.2:_ZN3mtx6crypto27bin2base64_urlsafe_unpaddedERKNSt7__cxx1112basic_stringIcSt11char_traitsIcESaIcEEE
libmatrix_client.so.0.9.2:_ZN3mtx6crypto28matches_inbound_session_fromEP10OlmSessionRKNSt7__cxx1112basic_stringIcSt11char_traitsIcESaIcEEESA_
libmatrix_client.so.0.9.2:_ZN3mtx6crypto34CURVE25519_public_key_from_privateB5cxx11ERKSt6vectorIhSaIhEE
libmatrix_client.so.0.9.2:_ZN3mtx6crypto3SAS10public_keyB5cxx11Ev
libmatrix_client.so.0.9.2:_ZN3mtx6crypto3SAS13calculate_macERKNSt7__cxx1112basic_stringIcSt11char_traitsIcESaIcEEES9_
libmatrix_client.so.0.9.2:_ZN3mtx6crypto3SAS13set_their_keyERKNSt7__cxx1112basic_stringIcSt11char_traitsIcESaIcEEE
libmatrix_client.so.0.9.2:_ZN3mtx6crypto3SAS20generate_bytes_emojiERKNSt7__cxx1112basic_stringIcSt11char_traitsIcESaIcEEE
libmatrix_client.so.0.9.2:_ZN3mtx6crypto3SAS22generate_bytes_decimalERKNSt7__cxx1112basic_stringIcSt11char_traitsIcESaIcEEE
libmatrix_client.so.0.9.2:_ZN3mtx6crypto3SASC1Ev
libmatrix_client.so.0.9.2:_ZN3mtx6crypto3SASC2Ev
libmatrix_client.so.0.9.2:_ZN3mtx6crypto6sha256ERKNSt7__cxx1112basic_stringIcSt11char_traitsIcESaIcEEE
libmatrix_client.so.0.9.2:_ZN3mtx6crypto7decryptERKNS_14secret_storage24AesHmacSha2EncryptedDataERKSt6vectorIhSaIhEERKNSt7__cxx1112basic_stringIcSt11char_traitsIcESaIcEEE
libmatrix_client.so.0.9.2:_ZN3mtx6crypto7encryptERKNSt7__cxx1112basic_stringIcSt11char_traitsIcESaIcEEERKSt6vectorIhSaIhEES8_
libmatrix_client.so.0.9.2:_ZN3mtx6crypto7to_jsonERN8nlohmann16json_abi_v3_11_310basic_jsonISt3mapSt6vectorNSt7__cxx1112basic_stringIcSt11char_traitsIcESaIcEEEblmdSaNS2_14adl_serializerES5_IhSaIhEEvEERKNS0_10DeviceKeysE
libmatrix_client.so.0.9.2:_ZN3mtx6crypto7to_jsonERN8nlohmann16json_abi_v3_11_310basic_jsonISt3mapSt6vectorNSt7__cxx1112basic_stringIcSt11char_traitsIcESaIcEEEblmdSaNS2_14adl_serializerES5_IhSaIhEEvEERKNS0_11OneTimeKeysE
libmatrix_client.so.0.9.2:_ZN3mtx6crypto7to_jsonERN8nlohmann16json_abi_v3_11_310basic_jsonISt3mapSt6vectorNSt7__cxx1112basic_stringIcSt11char_traitsIcESaIcEEEblmdSaNS2_14adl_serializerES5_IhSaIhEEvEERKNS0_12IdentityKeysE
libmatrix_client.so.0.9.2:_ZN3mtx6crypto7to_jsonERN8nlohmann16json_abi_v3_11_310basic_jsonISt3mapSt6vectorNSt7__cxx1112basic_stringIcSt11char_traitsIcESaIcEEEblmdSaNS2_14adl_serializerES5_IhSaIhEEvEERKNS0_13EncryptedFileE
libmatrix_client.so.0.9.2:_ZN3mtx6crypto7to_jsonERN8nlohmann16json_abi_v3_11_310basic_jsonISt3mapSt6vectorNSt7__cxx1112basic_stringIcSt11char_traitsIcESaIcEEEblmdSaNS2_14adl_serializerES5_IhSaIhEEvEERKNS0_15ExportedSessionE
libmatrix_client.so.0.9.2:_ZN3mtx6crypto7to_jsonERN8nlohmann16json_abi_v3_11_310basic_jsonISt3mapSt6vectorNSt7__cxx1112basic_stringIcSt11char_traitsIcESaIcEEEblmdSaNS2_14adl_serializerES5_IhSaIhEEvEERKNS0_16CrossSigningKeysE
libmatrix_client.so.0.9.2:_ZN3mtx6crypto7to_jsonERN8nlohmann16json_abi_v3_11_310basic_jsonISt3mapSt6vectorNSt7__cxx1112basic_stringIcSt11char_traitsIcESaIcEEEblmdSaNS2_14adl_serializerES5_IhSaIhEEvEERKNS0_18UnsignedDeviceInfoE
libmatrix_client.so.0.9.2:_ZN3mtx6crypto7to_jsonERN8nlohmann16json_abi_v3_11_310basic_jsonISt3mapSt6vectorNSt7__cxx1112basic_stringIcSt11char_traitsIcESaIcEEEblmdSaNS2_14adl_serializerES5_IhSaIhEEvEERKNS0_19ExportedSessionKeysE
libmatrix_client.so.0.9.2:_ZN3mtx6crypto7to_jsonERN8nlohmann16json_abi_v3_11_310basic_jsonISt3mapSt6vectorNSt7__cxx1112basic_stringIcSt11char_traitsIcESaIcEEEblmdSaNS2_14adl_serializerES5_IhSaIhEEvEERKNS0_3JWKE
libmatrix_client.so.0.9.2:_ZN3mtx6crypto9OlmClient13one_time_keysEv
libmatrix_client.so.0.9.2:_ZN3mtx6crypto9OlmClient15create_ssss_keyERKNSt7__cxx1112basic_stringIcSt11char_traitsIcESaIcEEE
libmatrix_client.so.0.9.2:_ZN3mtx6crypto9OlmClient15decrypt_messageEP10OlmSessionmRKNSt7__cxx1112basic_stringIcSt11char_traitsIcESaIcEEE
libmatrix_client.so.0.9.2:_ZN3mtx6crypto9OlmClient15encrypt_messageEP10OlmSessionRKNSt7__cxx1112basic_stringIcSt11char_traitsIcESaIcEEE
libmatrix_client.so.0.9.2:_ZN3mtx6crypto9OlmClient15restore_accountERKNSt7__cxx1112basic_stringIcSt11char_traitsIcESaIcEEES9_
libmatrix_client.so.0.9.2:_ZN3mtx6crypto9OlmClient17sign_one_time_keyERKNSt7__cxx1112basic_stringIcSt11char_traitsIcESaIcEEEb
libmatrix_client.so.0.9.2:_ZN3mtx6crypto9OlmClient18create_new_accountEv
libmatrix_client.so.0.9.2:_ZN3mtx6crypto9OlmClient18sign_identity_keysB5cxx11Ev
libmatrix_client.so.0.9.2:_ZN3mtx6crypto9OlmClient18sign_one_time_keysB5cxx11ERKNS0_11OneTimeKeysEb
libmatrix_client.so.0.9.2:_ZN3mtx6crypto9OlmClient19signed_one_time_keyERKNSt7__cxx1112basic_stringIcSt11char_traitsIcESaIcEEES9_b
libmatrix_client.so.0.9.2:_ZN3mtx6crypto9OlmClient21decrypt_group_messageEP22OlmInboundGroupSessionRKNSt7__cxx1112basic_stringIcSt11char_traitsIcESaIcEEEj
libmatrix_client.so.0.9.2:_ZN3mtx6crypto9OlmClient21encrypt_group_messageEP23OlmOutboundGroupSessionRKNSt7__cxx1112basic_stringIcSt11char_traitsIcESaIcEEE
libmatrix_client.so.0.9.2:_ZN3mtx6crypto9OlmClient22create_inbound_sessionERKNSt7__cxx1112basic_stringIcSt11char_traitsIcESaIcEEE
libmatrix_client.so.0.9.2:_ZN3mtx6crypto9OlmClient22create_inbound_sessionERKSt6vectorIhSaIhEE
libmatrix_client.so.0.9.2:_ZN3mtx6crypto9OlmClient22generate_one_time_keysEmb
libmatrix_client.so.0.9.2:_ZN3mtx6crypto9OlmClient23create_outbound_sessionERKNSt7__cxx1112basic_stringIcSt11char_traitsIcESaIcEEES9_
libmatrix_client.so.0.9.2:_ZN3mtx6crypto9OlmClient24create_crosssigning_keysEv
libmatrix_client.so.0.9.2:_ZN3mtx6crypto9OlmClient24create_online_key_backupERKNSt7__cxx1112basic_stringIcSt11char_traitsIcESaIcEEE
libmatrix_client.so.0.9.2:_ZN3mtx6crypto9OlmClient25unpublished_fallback_keysEv
libmatrix_client.so.0.9.2:_ZN3mtx6crypto9OlmClient26create_upload_keys_requestERKNS0_11OneTimeKeysES4_
libmatrix_client.so.0.9.2:_ZN3mtx6crypto9OlmClient26create_upload_keys_requestEv
libmatrix_client.so.0.9.2:_ZN3mtx6crypto9OlmClient26init_inbound_group_sessionERKNSt7__cxx1112basic_stringIcSt11char_traitsIcESaIcEEE
libmatrix_client.so.0.9.2:_ZN3mtx6crypto9OlmClient27create_inbound_session_fromERKNSt7__cxx1112basic_stringIcSt11char_traitsIcESaIcEEERKSt6vectorIhSaIhEE
libmatrix_client.so.0.9.2:_ZN3mtx6crypto9OlmClient27create_inbound_session_fromERKNSt7__cxx1112basic_stringIcSt11char_traitsIcESaIcEEES9_
libmatrix_client.so.0.9.2:_ZN3mtx6crypto9OlmClient27init_outbound_group_sessionEv
libmatrix_client.so.0.9.2:_ZN3mtx6crypto9OlmClient28create_olm_encrypted_contentEP10OlmSessionN8nlohmann16json_abi_v3_11_310basic_jsonISt3mapSt6vectorNSt7__cxx1112basic_stringIcSt11char_traitsIcESaIcEEEblmdSaNS5_14adl_serializerES8_IhSaIhEEvEERK6UserIdRKSE_SN_
libmatrix_client.so.0.9.2:_ZN3mtx6crypto9OlmClient28import_inbound_group_sessionERKNSt7__cxx1112basic_stringIcSt11char_traitsIcESaIcEEE
libmatrix_client.so.0.9.2:_ZN3mtx6crypto9OlmClient4saveERKNSt7__cxx1112basic_stringIcSt11char_traitsIcESaIcEEE
libmatrix_client.so.0.9.2:_ZN3mtx6crypto9OlmClient8sas_initEv
libmatrix_client.so.0.9.2:_ZN3mtx6crypto9PkSigning4signERKNSt7__cxx1112basic_stringIcSt11char_traitsIcESaIcEEE
libmatrix_client.so.0.9.2:_ZN3mtx6crypto9PkSigning7new_keyEv
libmatrix_client.so.0.9.2:_ZN3mtx6crypto9PkSigning9from_seedERKNSt7__cxx1112basic_stringIcSt11char_traitsIcESaIcEEE
libmatrix_client.so.0.9.2:_ZN3mtx6crypto9from_jsonERKN8nlohmann16json_abi_v3_11_310basic_jsonISt3mapSt6vectorNSt7__cxx1112basic_stringIcSt11char_traitsIcESaIcEEEblmdSaNS2_14adl_serializerES5_IhSaIhEEvEERNS0_10DeviceKeysE
libmatrix_client.so.0.9.2:_ZN3mtx6crypto9from_jsonERKN8nlohmann16json_abi_v3_11_310basic_jsonISt3mapSt6vectorNSt7__cxx1112basic_stringIcSt11char_traitsIcESaIcEEEblmdSaNS2_14adl_serializerES5_IhSaIhEEvEERNS0_11OneTimeKeysE
libmatrix_client.so.0.9.2:_ZN3mtx6crypto9from_jsonERKN8nlohmann16json_abi_v3_11_310basic_jsonISt3mapSt6vectorNSt7__cxx1112basic_stringIcSt11char_traitsIcESaIcEEEblmdSaNS2_14adl_serializerES5_IhSaIhEEvEERNS0_12IdentityKeysE
libmatrix_client.so.0.9.2:_ZN3mtx6crypto9from_jsonERKN8nlohmann16json_abi_v3_11_310basic_jsonISt3mapSt6vectorNSt7__cxx1112basic_stringIcSt11char_traitsIcESaIcEEEblmdSaNS2_14adl_serializerES5_IhSaIhEEvEERNS0_13EncryptedFileE
libmatrix_client.so.0.9.2:_ZN3mtx6crypto9from_jsonERKN8nlohmann16json_abi_v3_11_310basic_jsonISt3mapSt6vectorNSt7__cxx1112basic_stringIcSt11char_traitsIcESaIcEEEblmdSaNS2_14adl_serializerES5_IhSaIhEEvEERNS0_15ExportedSessionE
libmatrix_client.so.0.9.2:_ZN3mtx6crypto9from_jsonERKN8nlohmann16json_abi_v3_11_310basic_jsonISt3mapSt6vectorNSt7__cxx1112basic_stringIcSt11char_traitsIcESaIcEEEblmdSaNS2_14adl_serializerES5_IhSaIhEEvEERNS0_16CrossSigningKeysE
libmatrix_client.so.0.9.2:_ZN3mtx6crypto9from_jsonERKN8nlohmann16json_abi_v3_11_310basic_jsonISt3mapSt6vectorNSt7__cxx1112basic_stringIcSt11char_traitsIcESaIcEEEblmdSaNS2_14adl_serializerES5_IhSaIhEEvEERNS0_18UnsignedDeviceInfoE
libmatrix_client.so.0.9.2:_ZN3mtx6crypto9from_jsonERKN8nlohmann16json_abi_v3_11_310basic_jsonISt3mapSt6vectorNSt7__cxx1112basic_stringIcSt11char_traitsIcESaIcEEEblmdSaNS2_14adl_serializerES5_IhSaIhEEvEERNS0_19ExportedSessionKeysE
libmatrix_client.so.0.9.2:_ZN3mtx6crypto9from_jsonERKN8nlohmann16json_abi_v3_11_310basic_jsonISt3mapSt6vectorNSt7__cxx1112basic_stringIcSt11char_traitsIcESaIcEEEblmdSaNS2_14adl_serializerES5_IhSaIhEEvEERNS0_3JWKE
libmatrix_client.so.0.9.2:_ZN3mtx6errors11from_stringERKNSt7__cxx1112basic_stringIcSt11char_traitsIcESaIcEEE
libmatrix_client.so.0.9.2:_ZN3mtx6errors9from_jsonERKN8nlohmann16json_abi_v3_11_310basic_jsonISt3mapSt6vectorNSt7__cxx1112basic_stringIcSt11char_traitsIcESaIcEEEblmdSaNS2_14adl_serializerES5_IhSaIhEEvEERNS0_16LightweightErrorE
libmatrix_client.so.0.9.2:_ZN3mtx6errors9from_jsonERKN8nlohmann16json_abi_v3_11_310basic_jsonISt3mapSt6vectorNSt7__cxx1112basic_stringIcSt11char_traitsIcESaIcEEEblmdSaNS2_14adl_serializerES5_IhSaIhEEvEERNS0_5ErrorE
libmatrix_client.so.0.9.2:_ZN3mtx6errors9to_stringB5cxx11ENS0_9ErrorCodeE
libmatrix_client.so.0.9.2:_ZN3mtx6events11collections7to_jsonERN8nlohmann16json_abi_v3_11_310basic_jsonISt3mapSt6vectorNSt7__cxx1112basic_stringIcSt11char_traitsIcESaIcEEEblmdSaNS3_14adl_serializerES6_IhSaIhEEvEERKNS1_13TimelineEventE
libmatrix_client.so.0.9.2:_ZN3mtx6events11collections9from_jsonERKN8nlohmann16json_abi_v3_11_310basic_jsonISt3mapSt6vectorNSt7__cxx1112basic_stringIcSt11char_traitsIcESaIcEEEblmdSaNS3_14adl_serializerES6_IhSaIhEEvEERNS1_13TimelineEventE
libmatrix_client.so.0.9.2:_ZN3mtx6events12account_data16nheko_extensions7to_jsonERN8nlohmann16json_abi_v3_11_310basic_jsonISt3mapSt6vectorNSt7__cxx1112basic_stringIcSt11char_traitsIcESaIcEEEblmdSaNS4_14adl_serializerES7_IhSaIhEEvEERKNS2_12HiddenEventsE
libmatrix_client.so.0.9.2:_ZN3mtx6events12account_data16nheko_extensions9from_jsonERKN8nlohmann16json_abi_v3_11_310basic_jsonISt3mapSt6vectorNSt7__cxx1112basic_stringIcSt11char_traitsIcESaIcEEEblmdSaNS4_14adl_serializerES7_IhSaIhEEvEERNS2_12HiddenEventsE
libmatrix_client.so.0.9.2:_ZN3mtx6events12account_data7to_jsonERN8nlohmann16json_abi_v3_11_310basic_jsonISt3mapSt6vectorNSt7__cxx1112basic_stringIcSt11char_traitsIcESaIcEEEblmdSaNS3_14adl_serializerES6_IhSaIhEEvEERKNS1_3TagE
libmatrix_client.so.0.9.2:_ZN3mtx6events12account_data7to_jsonERN8nlohmann16json_abi_v3_11_310basic_jsonISt3mapSt6vectorNSt7__cxx1112basic_stringIcSt11char_traitsIcESaIcEEEblmdSaNS3_14adl_serializerES6_IhSaIhEEvEERKNS1_4TagsE
libmatrix_client.so.0.9.2:_ZN3mtx6events12account_data7to_jsonERN8nlohmann16json_abi_v3_11_310basic_jsonISt3mapSt6vectorNSt7__cxx1112basic_stringIcSt11char_traitsIcESaIcEEEblmdSaNS3_14adl_serializerES6_IhSaIhEEvEERKNS1_6DirectE
libmatrix_client.so.0.9.2:_ZN3mtx6events12account_data7to_jsonERN8nlohmann16json_abi_v3_11_310basic_jsonISt3mapSt6vectorNSt7__cxx1112basic_stringIcSt11char_traitsIcESaIcEEEblmdSaNS3_14adl_serializerES6_IhSaIhEEvEERKNS1_9FullyReadE
libmatrix_client.so.0.9.2:_ZN3mtx6events12account_data9from_jsonERKN8nlohmann16json_abi_v3_11_310basic_jsonISt3mapSt6vectorNSt7__cxx1112basic_stringIcSt11char_traitsIcESaIcEEEblmdSaNS3_14adl_serializerES6_IhSaIhEEvEERNS1_3TagE
libmatrix_client.so.0.9.2:_ZN3mtx6events12account_data9from_jsonERKN8nlohmann16json_abi_v3_11_310basic_jsonISt3mapSt6vectorNSt7__cxx1112basic_stringIcSt11char_traitsIcESaIcEEEblmdSaNS3_14adl_serializerES6_IhSaIhEEvEERNS1_4TagsE
libmatrix_client.so.0.9.2:_ZN3mtx6events12account_data9from_jsonERKN8nlohmann16json_abi_v3_11_310basic_jsonISt3mapSt6vectorNSt7__cxx1112basic_stringIcSt11char_traitsIcESaIcEEEblmdSaNS3_14adl_serializerES6_IhSaIhEEvEERNS1_6DirectE
libmatrix_client.so.0.9.2:_ZN3mtx6events12account_data9from_jsonERKN8nlohmann16json_abi_v3_11_310basic_jsonISt3mapSt6vectorNSt7__cxx1112basic_stringIcSt11char_traitsIcESaIcEEEblmdSaNS3_14adl_serializerES6_IhSaIhEEvEERNS1_9FullyReadE
libmatrix_client.so.0.9.2:_ZN3mtx6events12getEventTypeERKN8nlohmann16json_abi_v3_11_310basic_jsonISt3mapSt6vectorNSt7__cxx1112basic_stringIcSt11char_traitsIcESaIcEEEblmdSaNS2_14adl_serializerES5_IhSaIhEEvEE
libmatrix_client.so.0.9.2:_ZN3mtx6events12getEventTypeERKNSt7__cxx1112basic_stringIcSt11char_traitsIcESaIcEEE
libmatrix_client.so.0.9.2:_ZN3mtx6events14getMessageTypeERKN8nlohmann16json_abi_v3_11_310basic_jsonISt3mapSt6vectorNSt7__cxx1112basic_stringIcSt11char_traitsIcESaIcEEEblmdSaNS2_14adl_serializerES5_IhSaIhEEvEE
libmatrix_client.so.0.9.2:_ZN3mtx6events14getMessageTypeERKNSt7__cxx1112basic_stringIcSt11char_traitsIcESaIcEEE
libmatrix_client.so.0.9.2:_ZN3mtx6events3msg7to_jsonERN8nlohmann16json_abi_v3_11_310basic_jsonISt3mapSt6vectorNSt7__cxx1112basic_stringIcSt11char_traitsIcESaIcEEEblmdSaNS3_14adl_serializerES6_IhSaIhEEvEERKNS1_10KeyRequestE
libmatrix_client.so.0.9.2:_ZN3mtx6events3msg7to_jsonERN8nlohmann16json_abi_v3_11_310basic_jsonISt3mapSt6vectorNSt7__cxx1112basic_stringIcSt11char_traitsIcESaIcEEEblmdSaNS3_14adl_serializerES6_IhSaIhEEvEERKNS1_10SASMethodsE
libmatrix_client.so.0.9.2:_ZN3mtx6events3msg7to_jsonERN8nlohmann16json_abi_v3_11_310basic_jsonISt3mapSt6vectorNSt7__cxx1112basic_stringIcSt11char_traitsIcESaIcEEEblmdSaNS3_14adl_serializerES6_IhSaIhEEvEERKNS1_10SecretSendE
libmatrix_client.so.0.9.2:_ZN3mtx6events3msg7to_jsonERN8nlohmann16json_abi_v3_11_310basic_jsonISt3mapSt6vectorNSt7__cxx1112basic_stringIcSt11char_traitsIcESaIcEEEblmdSaNS3_14adl_serializerES6_IhSaIhEEvEERKNS1_12OlmEncryptedE
libmatrix_client.so.0.9.2:_ZN3mtx6events3msg7to_jsonERN8nlohmann16json_abi_v3_11_310basic_jsonISt3mapSt6vectorNSt7__cxx1112basic_stringIcSt11char_traitsIcESaIcEEEblmdSaNS3_14adl_serializerES6_IhSaIhEEvEERKNS1_12StickerImageE
libmatrix_client.so.0.9.2:_ZN3mtx6events3msg7to_jsonERN8nlohmann16json_abi_v3_11_310basic_jsonISt3mapSt6vectorNSt7__cxx1112basic_stringIcSt11char_traitsIcESaIcEEEblmdSaNS3_14adl_serializerES6_IhSaIhEEvEERKNS1_13SecretRequestE
libmatrix_client.so.0.9.2:_ZN3mtx6events3msg7to_jsonERN8nlohmann16json_abi_v3_11_310basic_jsonISt3mapSt6vectorNSt7__cxx1112basic_stringIcSt11char_traitsIcESaIcEEEblmdSaNS3_14adl_serializerES6_IhSaIhEEvEERKNS1_16ForwardedRoomKeyE
libmatrix_client.so.0.9.2:_ZN3mtx6events3msg7to_jsonERN8nlohmann16json_abi_v3_11_310basic_jsonISt3mapSt6vectorNSt7__cxx1112basic_stringIcSt11char_traitsIcESaIcEEEblmdSaNS3_14adl_serializerES6_IhSaIhEEvEERKNS1_16OlmCipherContentE
libmatrix_client.so.0.9.2:_ZN3mtx6events3msg7to_jsonERN8nlohmann16json_abi_v3_11_310basic_jsonISt3mapSt6vectorNSt7__cxx1112basic_stringIcSt11char_traitsIcESaIcEEEblmdSaNS3_14adl_serializerES6_IhSaIhEEvEERKNS1_18KeyVerificationKeyE
libmatrix_client.so.0.9.2:_ZN3mtx6events3msg7to_jsonERN8nlohmann16json_abi_v3_11_310basic_jsonISt3mapSt6vectorNSt7__cxx1112basic_stringIcSt11char_traitsIcESaIcEEEblmdSaNS3_14adl_serializerES6_IhSaIhEEvEERKNS1_18KeyVerificationMacE
libmatrix_client.so.0.9.2:_ZN3mtx6events3msg7to_jsonERN8nlohmann16json_abi_v3_11_310basic_jsonISt3mapSt6vectorNSt7__cxx1112basic_stringIcSt11char_traitsIcESaIcEEEblmdSaNS3_14adl_serializerES6_IhSaIhEEvEERKNS1_19KeyVerificationDoneE
libmatrix_client.so.0.9.2:_ZN3mtx6events3msg7to_jsonERN8nlohmann16json_abi_v3_11_310basic_jsonISt3mapSt6vectorNSt7__cxx1112basic_stringIcSt11char_traitsIcESaIcEEEblmdSaNS3_14adl_serializerES6_IhSaIhEEvEERKNS1_19VerificationMethodsE
libmatrix_client.so.0.9.2:_ZN3mtx6events3msg7to_jsonERN8nlohmann16json_abi_v3_11_310basic_jsonISt3mapSt6vectorNSt7__cxx1112basic_stringIcSt11char_traitsIcESaIcEEEblmdSaNS3_14adl_serializerES6_IhSaIhEEvEERKNS1_20KeyVerificationReadyE
libmatrix_client.so.0.9.2:_ZN3mtx6events3msg7to_jsonERN8nlohmann16json_abi_v3_11_310basic_jsonISt3mapSt6vectorNSt7__cxx1112basic_stringIcSt11char_traitsIcESaIcEEEblmdSaNS3_14adl_serializerES6_IhSaIhEEvEERKNS1_20KeyVerificationStartE
libmatrix_client.so.0.9.2:_ZN3mtx6events3msg7to_jsonERN8nlohmann16json_abi_v3_11_310basic_jsonISt3mapSt6vectorNSt7__cxx1112basic_stringIcSt11char_traitsIcESaIcEEEblmdSaNS3_14adl_serializerES6_IhSaIhEEvEERKNS1_21KeyVerificationAcceptE
libmatrix_client.so.0.9.2:_ZN3mtx6events3msg7to_jsonERN8nlohmann16json_abi_v3_11_310basic_jsonISt3mapSt6vectorNSt7__cxx1112basic_stringIcSt11char_traitsIcESaIcEEEblmdSaNS3_14adl_serializerES6_IhSaIhEEvEERKNS1_21KeyVerificationCancelE
libmatrix_client.so.0.9.2:_ZN3mtx6events3msg7to_jsonERN8nlohmann16json_abi_v3_11_310basic_jsonISt3mapSt6vectorNSt7__cxx1112basic_stringIcSt11char_traitsIcESaIcEEEblmdSaNS3_14adl_serializerES6_IhSaIhEEvEERKNS1_22KeyVerificationRequestE
libmatrix_client.so.0.9.2:_ZN3mtx6events3msg7to_jsonERN8nlohmann16json_abi_v3_11_310basic_jsonISt3mapSt6vectorNSt7__cxx1112basic_stringIcSt11char_traitsIcESaIcEEEblmdSaNS3_14adl_serializerES6_IhSaIhEEvEERKNS1_4FileE
libmatrix_client.so.0.9.2:_ZN3mtx6events3msg7to_jsonERN8nlohmann16json_abi_v3_11_310basic_jsonISt3mapSt6vectorNSt7__cxx1112basic_stringIcSt11char_traitsIcESaIcEEEblmdSaNS3_14adl_serializerES6_IhSaIhEEvEERKNS1_4TextE
libmatrix_client.so.0.9.2:_ZN3mtx6events3msg7to_jsonERN8nlohmann16json_abi_v3_11_310basic_jsonISt3mapSt6vectorNSt7__cxx1112basic_stringIcSt11char_traitsIcESaIcEEEblmdSaNS3_14adl_serializerES6_IhSaIhEEvEERKNS1_5AudioE
libmatrix_client.so.0.9.2:_ZN3mtx6events3msg7to_jsonERN8nlohmann16json_abi_v3_11_310basic_jsonISt3mapSt6vectorNSt7__cxx1112basic_stringIcSt11char_traitsIcESaIcEEEblmdSaNS3_14adl_serializerES6_IhSaIhEEvEERKNS1_5DummyE
libmatrix_client.so.0.9.2:_ZN3mtx6events3msg7to_jsonERN8nlohmann16json_abi_v3_11_310basic_jsonISt3mapSt6vectorNSt7__cxx1112basic_stringIcSt11char_traitsIcESaIcEEEblmdSaNS3_14adl_serializerES6_IhSaIhEEvEERKNS1_5EmoteE
libmatrix_client.so.0.9.2:_ZN3mtx6events3msg7to_jsonERN8nlohmann16json_abi_v3_11_310basic_jsonISt3mapSt6vectorNSt7__cxx1112basic_stringIcSt11char_traitsIcESaIcEEEblmdSaNS3_14adl_serializerES6_IhSaIhEEvEERKNS1_5ImageE
libmatrix_client.so.0.9.2:_ZN3mtx6events3msg7to_jsonERN8nlohmann16json_abi_v3_11_310basic_jsonISt3mapSt6vectorNSt7__cxx1112basic_stringIcSt11char_traitsIcESaIcEEEblmdSaNS3_14adl_serializerES6_IhSaIhEEvEERKNS1_5VideoE
libmatrix_client.so.0.9.2:_ZN3mtx6events3msg7to_jsonERN8nlohmann16json_abi_v3_11_310basic_jsonISt3mapSt6vectorNSt7__cxx1112basic_stringIcSt11char_traitsIcESaIcEEEblmdSaNS3_14adl_serializerES6_IhSaIhEEvEERKNS1_6NoticeE
libmatrix_client.so.0.9.2:_ZN3mtx6events3msg7to_jsonERN8nlohmann16json_abi_v3_11_310basic_jsonISt3mapSt6vectorNSt7__cxx1112basic_stringIcSt11char_traitsIcESaIcEEEblmdSaNS3_14adl_serializerES6_IhSaIhEEvEERKNS1_7RoomKeyE
libmatrix_client.so.0.9.2:_ZN3mtx6events3msg7to_jsonERN8nlohmann16json_abi_v3_11_310basic_jsonISt3mapSt6vectorNSt7__cxx1112basic_stringIcSt11char_traitsIcESaIcEEEblmdSaNS3_14adl_serializerES6_IhSaIhEEvEERKNS1_8ConfettiE
libmatrix_client.so.0.9.2:_ZN3mtx6events3msg7to_jsonERN8nlohmann16json_abi_v3_11_310basic_jsonISt3mapSt6vectorNSt7__cxx1112basic_stringIcSt11char_traitsIcESaIcEEEblmdSaNS3_14adl_serializerES6_IhSaIhEEvEERKNS1_8ReactionE
libmatrix_client.so.0.9.2:_ZN3mtx6events3msg7to_jsonERN8nlohmann16json_abi_v3_11_310basic_jsonISt3mapSt6vectorNSt7__cxx1112basic_stringIcSt11char_traitsIcESaIcEEEblmdSaNS3_14adl_serializerES6_IhSaIhEEvEERKNS1_9EncryptedE
libmatrix_client.so.0.9.2:_ZN3mtx6events3msg7to_jsonERN8nlohmann16json_abi_v3_11_310basic_jsonISt3mapSt6vectorNSt7__cxx1112basic_stringIcSt11char_traitsIcESaIcEEEblmdSaNS3_14adl_serializerES6_IhSaIhEEvEERKNS1_9RedactionE
libmatrix_client.so.0.9.2:_ZN3mtx6events3msg9from_jsonERKN8nlohmann16json_abi_v3_11_310basic_jsonISt3mapSt6vectorNSt7__cxx1112basic_stringIcSt11char_traitsIcESaIcEEEblmdSaNS3_14adl_serializerES6_IhSaIhEEvEERNS1_10KeyRequestE
libmatrix_client.so.0.9.2:_ZN3mtx6events3msg9from_jsonERKN8nlohmann16json_abi_v3_11_310basic_jsonISt3mapSt6vectorNSt7__cxx1112basic_stringIcSt11char_traitsIcESaIcEEEblmdSaNS3_14adl_serializerES6_IhSaIhEEvEERNS1_10SASMethodsE
libmatrix_client.so.0.9.2:_ZN3mtx6events3msg9from_jsonERKN8nlohmann16json_abi_v3_11_310basic_jsonISt3mapSt6vectorNSt7__cxx1112basic_stringIcSt11char_traitsIcESaIcEEEblmdSaNS3_14adl_serializerES6_IhSaIhEEvEERNS1_10SecretSendE
libmatrix_client.so.0.9.2:_ZN3mtx6events3msg9from_jsonERKN8nlohmann16json_abi_v3_11_310basic_jsonISt3mapSt6vectorNSt7__cxx1112basic_stringIcSt11char_traitsIcESaIcEEEblmdSaNS3_14adl_serializerES6_IhSaIhEEvEERNS1_12OlmEncryptedE
libmatrix_client.so.0.9.2:_ZN3mtx6events3msg9from_jsonERKN8nlohmann16json_abi_v3_11_310basic_jsonISt3mapSt6vectorNSt7__cxx1112basic_stringIcSt11char_traitsIcESaIcEEEblmdSaNS3_14adl_serializerES6_IhSaIhEEvEERNS1_12StickerImageE
libmatrix_client.so.0.9.2:_ZN3mtx6events3msg9from_jsonERKN8nlohmann16json_abi_v3_11_310basic_jsonISt3mapSt6vectorNSt7__cxx1112basic_stringIcSt11char_traitsIcESaIcEEEblmdSaNS3_14adl_serializerES6_IhSaIhEEvEERNS1_13SecretRequestE
libmatrix_client.so.0.9.2:_ZN3mtx6events3msg9from_jsonERKN8nlohmann16json_abi_v3_11_310basic_jsonISt3mapSt6vectorNSt7__cxx1112basic_stringIcSt11char_traitsIcESaIcEEEblmdSaNS3_14adl_serializerES6_IhSaIhEEvEERNS1_16ForwardedRoomKeyE
libmatrix_client.so.0.9.2:_ZN3mtx6events3msg9from_jsonERKN8nlohmann16json_abi_v3_11_310basic_jsonISt3mapSt6vectorNSt7__cxx1112basic_stringIcSt11char_traitsIcESaIcEEEblmdSaNS3_14adl_serializerES6_IhSaIhEEvEERNS1_16OlmCipherContentE
libmatrix_client.so.0.9.2:_ZN3mtx6events3msg9from_jsonERKN8nlohmann16json_abi_v3_11_310basic_jsonISt3mapSt6vectorNSt7__cxx1112basic_stringIcSt11char_traitsIcESaIcEEEblmdSaNS3_14adl_serializerES6_IhSaIhEEvEERNS1_18KeyVerificationKeyE
libmatrix_client.so.0.9.2:_ZN3mtx6events3msg9from_jsonERKN8nlohmann16json_abi_v3_11_310basic_jsonISt3mapSt6vectorNSt7__cxx1112basic_stringIcSt11char_traitsIcESaIcEEEblmdSaNS3_14adl_serializerES6_IhSaIhEEvEERNS1_18KeyVerificationMacE
libmatrix_client.so.0.9.2:_ZN3mtx6events3msg9from_jsonERKN8nlohmann16json_abi_v3_11_310basic_jsonISt3mapSt6vectorNSt7__cxx1112basic_stringIcSt11char_traitsIcESaIcEEEblmdSaNS3_14adl_serializerES6_IhSaIhEEvEERNS1_19KeyVerificationDoneE
libmatrix_client.so.0.9.2:_ZN3mtx6events3msg9from_jsonERKN8nlohmann16json_abi_v3_11_310basic_jsonISt3mapSt6vectorNSt7__cxx1112basic_stringIcSt11char_traitsIcESaIcEEEblmdSaNS3_14adl_serializerES6_IhSaIhEEvEERNS1_19VerificationMethodsE
libmatrix_client.so.0.9.2:_ZN3mtx6events3msg9from_jsonERKN8nlohmann16json_abi_v3_11_310basic_jsonISt3mapSt6vectorNSt7__cxx1112basic_stringIcSt11char_traitsIcESaIcEEEblmdSaNS3_14adl_serializerES6_IhSaIhEEvEERNS1_20KeyVerificationReadyE
libmatrix_client.so.0.9.2:_ZN3mtx6events3msg9from_jsonERKN8nlohmann16json_abi_v3_11_310basic_jsonISt3mapSt6vectorNSt7__cxx1112basic_stringIcSt11char_traitsIcESaIcEEEblmdSaNS3_14adl_serializerES6_IhSaIhEEvEERNS1_20KeyVerificationStartE
libmatrix_client.so.0.9.2:_ZN3mtx6events3msg9from_jsonERKN8nlohmann16json_abi_v3_11_310basic_jsonISt3mapSt6vectorNSt7__cxx1112basic_stringIcSt11char_traitsIcESaIcEEEblmdSaNS3_14adl_serializerES6_IhSaIhEEvEERNS1_21KeyVerificationAcceptE
libmatrix_client.so.0.9.2:_ZN3mtx6events3msg9from_jsonERKN8nlohmann16json_abi_v3_11_310basic_jsonISt3mapSt6vectorNSt7__cxx1112basic_stringIcSt11char_traitsIcESaIcEEEblmdSaNS3_14adl_serializerES6_IhSaIhEEvEERNS1_21KeyVerificationCancelE
libmatrix_client.so.0.9.2:_ZN3mtx6events3msg9from_jsonERKN8nlohmann16json_abi_v3_11_310basic_jsonISt3mapSt6vectorNSt7__cxx1112basic_stringIcSt11char_traitsIcESaIcEEEblmdSaNS3_14adl_serializerES6_IhSaIhEEvEERNS1_22KeyVerificationRequestE
libmatrix_client.so.0.9.2:_ZN3mtx6events3msg9from_jsonERKN8nlohmann16json_abi_v3_11_310basic_jsonISt3mapSt6vectorNSt7__cxx1112basic_stringIcSt11char_traitsIcESaIcEEEblmdSaNS3_14adl_serializerES6_IhSaIhEEvEERNS1_4FileE
libmatrix_client.so.0.9.2:_ZN3mtx6events3msg9from_jsonERKN8nlohmann16json_abi_v3_11_310basic_jsonISt3mapSt6vectorNSt7__cxx1112basic_stringIcSt11char_traitsIcESaIcEEEblmdSaNS3_14adl_serializerES6_IhSaIhEEvEERNS1_4TextE
libmatrix_client.so.0.9.2:_ZN3mtx6events3msg9from_jsonERKN8nlohmann16json_abi_v3_11_310basic_jsonISt3mapSt6vectorNSt7__cxx1112basic_stringIcSt11char_traitsIcESaIcEEEblmdSaNS3_14adl_serializerES6_IhSaIhEEvEERNS1_5AudioE
libmatrix_client.so.0.9.2:_ZN3mtx6events3msg9from_jsonERKN8nlohmann16json_abi_v3_11_310basic_jsonISt3mapSt6vectorNSt7__cxx1112basic_stringIcSt11char_traitsIcESaIcEEEblmdSaNS3_14adl_serializerES6_IhSaIhEEvEERNS1_5DummyE
libmatrix_client.so.0.9.2:_ZN3mtx6events3msg9from_jsonERKN8nlohmann16json_abi_v3_11_310basic_jsonISt3mapSt6vectorNSt7__cxx1112basic_stringIcSt11char_traitsIcESaIcEEEblmdSaNS3_14adl_serializerES6_IhSaIhEEvEERNS1_5EmoteE
libmatrix_client.so.0.9.2:_ZN3mtx6events3msg9from_jsonERKN8nlohmann16json_abi_v3_11_310basic_jsonISt3mapSt6vectorNSt7__cxx1112basic_stringIcSt11char_traitsIcESaIcEEEblmdSaNS3_14adl_serializerES6_IhSaIhEEvEERNS1_5ImageE
libmatrix_client.so.0.9.2:_ZN3mtx6events3msg9from_jsonERKN8nlohmann16json_abi_v3_11_310basic_jsonISt3mapSt6vectorNSt7__cxx1112basic_stringIcSt11char_traitsIcESaIcEEEblmdSaNS3_14adl_serializerES6_IhSaIhEEvEERNS1_5VideoE
libmatrix_client.so.0.9.2:_ZN3mtx6events3msg9from_jsonERKN8nlohmann16json_abi_v3_11_310basic_jsonISt3mapSt6vectorNSt7__cxx1112basic_stringIcSt11char_traitsIcESaIcEEEblmdSaNS3_14adl_serializerES6_IhSaIhEEvEERNS1_6NoticeE
libmatrix_client.so.0.9.2:_ZN3mtx6events3msg9from_jsonERKN8nlohmann16json_abi_v3_11_310basic_jsonISt3mapSt6vectorNSt7__cxx1112basic_stringIcSt11char_traitsIcESaIcEEEblmdSaNS3_14adl_serializerES6_IhSaIhEEvEERNS1_7RoomKeyE
libmatrix_client.so.0.9.2:_ZN3mtx6events3msg9from_jsonERKN8nlohmann16json_abi_v3_11_310basic_jsonISt3mapSt6vectorNSt7__cxx1112basic_stringIcSt11char_traitsIcESaIcEEEblmdSaNS3_14adl_serializerES6_IhSaIhEEvEERNS1_8ConfettiE
libmatrix_client.so.0.9.2:_ZN3mtx6events3msg9from_jsonERKN8nlohmann16json_abi_v3_11_310basic_jsonISt3mapSt6vectorNSt7__cxx1112basic_stringIcSt11char_traitsIcESaIcEEEblmdSaNS3_14adl_serializerES6_IhSaIhEEvEERNS1_8ReactionE
libmatrix_client.so.0.9.2:_ZN3mtx6events3msg9from_jsonERKN8nlohmann16json_abi_v3_11_310basic_jsonISt3mapSt6vectorNSt7__cxx1112basic_stringIcSt11char_traitsIcESaIcEEEblmdSaNS3_14adl_serializerES6_IhSaIhEEvEERNS1_9EncryptedE
libmatrix_client.so.0.9.2:_ZN3mtx6events3msg9from_jsonERKN8nlohmann16json_abi_v3_11_310basic_jsonISt3mapSt6vectorNSt7__cxx1112basic_stringIcSt11char_traitsIcESaIcEEEblmdSaNS3_14adl_serializerES6_IhSaIhEEvEERNS1_9RedactionE
libmatrix_client.so.0.9.2:_ZN3mtx6events4voip7to_jsonERN8nlohmann16json_abi_v3_11_310basic_jsonISt3mapSt6vectorNSt7__cxx1112basic_stringIcSt11char_traitsIcESaIcEEEblmdSaNS3_14adl_serializerES6_IhSaIhEEvEERKNS1_10CallAnswerE
libmatrix_client.so.0.9.2:_ZN3mtx6events4voip7to_jsonERN8nlohmann16json_abi_v3_11_310basic_jsonISt3mapSt6vectorNSt7__cxx1112basic_stringIcSt11char_traitsIcESaIcEEEblmdSaNS3_14adl_serializerES6_IhSaIhEEvEERKNS1_10CallHangUpE
libmatrix_client.so.0.9.2:_ZN3mtx6events4voip7to_jsonERN8nlohmann16json_abi_v3_11_310basic_jsonISt3mapSt6vectorNSt7__cxx1112basic_stringIcSt11char_traitsIcESaIcEEEblmdSaNS3_14adl_serializerES6_IhSaIhEEvEERKNS1_10CallInviteE
libmatrix_client.so.0.9.2:_ZN3mtx6events4voip7to_jsonERN8nlohmann16json_abi_v3_11_310basic_jsonISt3mapSt6vectorNSt7__cxx1112basic_stringIcSt11char_traitsIcESaIcEEEblmdSaNS3_14adl_serializerES6_IhSaIhEEvEERKNS1_10CallRejectE
libmatrix_client.so.0.9.2:_ZN3mtx6events4voip7to_jsonERN8nlohmann16json_abi_v3_11_310basic_jsonISt3mapSt6vectorNSt7__cxx1112basic_stringIcSt11char_traitsIcESaIcEEEblmdSaNS3_14adl_serializerES6_IhSaIhEEvEERKNS1_13CallNegotiateE
libmatrix_client.so.0.9.2:_ZN3mtx6events4voip7to_jsonERN8nlohmann16json_abi_v3_11_310basic_jsonISt3mapSt6vectorNSt7__cxx1112basic_stringIcSt11char_traitsIcESaIcEEEblmdSaNS3_14adl_serializerES6_IhSaIhEEvEERKNS1_14CallCandidates9CandidateE
libmatrix_client.so.0.9.2:_ZN3mtx6events4voip7to_jsonERN8nlohmann16json_abi_v3_11_310basic_jsonISt3mapSt6vectorNSt7__cxx1112basic_stringIcSt11char_traitsIcESaIcEEEblmdSaNS3_14adl_serializerES6_IhSaIhEEvEERKNS1_14CallCandidatesE
libmatrix_client.so.0.9.2:_ZN3mtx6events4voip7to_jsonERN8nlohmann16json_abi_v3_11_310basic_jsonISt3mapSt6vectorNSt7__cxx1112basic_stringIcSt11char_traitsIcESaIcEEEblmdSaNS3_14adl_serializerES6_IhSaIhEEvEERKNS1_16CallSelectAnswerE
libmatrix_client.so.0.9.2:_ZN3mtx6events4voip7to_jsonERN8nlohmann16json_abi_v3_11_310basic_jsonISt3mapSt6vectorNSt7__cxx1112basic_stringIcSt11char_traitsIcESaIcEEEblmdSaNS3_14adl_serializerES6_IhSaIhEEvEERKNS1_25RTCSessionDescriptionInitE
libmatrix_client.so.0.9.2:_ZN3mtx6events4voip9from_jsonERKN8nlohmann16json_abi_v3_11_310basic_jsonISt3mapSt6vectorNSt7__cxx1112basic_stringIcSt11char_traitsIcESaIcEEEblmdSaNS3_14adl_serializerES6_IhSaIhEEvEERNS1_10CallAnswerE
libmatrix_client.so.0.9.2:_ZN3mtx6events4voip9from_jsonERKN8nlohmann16json_abi_v3_11_310basic_jsonISt3mapSt6vectorNSt7__cxx1112basic_stringIcSt11char_traitsIcESaIcEEEblmdSaNS3_14adl_serializerES6_IhSaIhEEvEERNS1_10CallHangUpE
libmatrix_client.so.0.9.2:_ZN3mtx6events4voip9from_jsonERKN8nlohmann16json_abi_v3_11_310basic_jsonISt3mapSt6vectorNSt7__cxx1112basic_stringIcSt11char_traitsIcESaIcEEEblmdSaNS3_14adl_serializerES6_IhSaIhEEvEERNS1_10CallInviteE
libmatrix_client.so.0.9.2:_ZN3mtx6events4voip9from_jsonERKN8nlohmann16json_abi_v3_11_310basic_jsonISt3mapSt6vectorNSt7__cxx1112basic_stringIcSt11char_traitsIcESaIcEEEblmdSaNS3_14adl_serializerES6_IhSaIhEEvEERNS1_10CallRejectE
libmatrix_client.so.0.9.2:_ZN3mtx6events4voip9from_jsonERKN8nlohmann16json_abi_v3_11_310basic_jsonISt3mapSt6vectorNSt7__cxx1112basic_stringIcSt11char_traitsIcESaIcEEEblmdSaNS3_14adl_serializerES6_IhSaIhEEvEERNS1_13CallNegotiateE
libmatrix_client.so.0.9.2:_ZN3mtx6events4voip9from_jsonERKN8nlohmann16json_abi_v3_11_310basic_jsonISt3mapSt6vectorNSt7__cxx1112basic_stringIcSt11char_traitsIcESaIcEEEblmdSaNS3_14adl_serializerES6_IhSaIhEEvEERNS1_14CallCandidates9CandidateE
libmatrix_client.so.0.9.2:_ZN3mtx6events4voip9from_jsonERKN8nlohmann16json_abi_v3_11_310basic_jsonISt3mapSt6vectorNSt7__cxx1112basic_stringIcSt11char_traitsIcESaIcEEEblmdSaNS3_14adl_serializerES6_IhSaIhEEvEERNS1_14CallCandidatesE
libmatrix_client.so.0.9.2:_ZN3mtx6events4voip9from_jsonERKN8nlohmann16json_abi_v3_11_310basic_jsonISt3mapSt6vectorNSt7__cxx1112basic_stringIcSt11char_traitsIcESaIcEEEblmdSaNS3_14adl_serializerES6_IhSaIhEEvEERNS1_16CallSelectAnswerE
libmatrix_client.so.0.9.2:_ZN3mtx6events4voip9from_jsonERKN8nlohmann16json_abi_v3_11_310basic_jsonISt3mapSt6vectorNSt7__cxx1112basic_stringIcSt11char_traitsIcESaIcEEEblmdSaNS3_14adl_serializerES6_IhSaIhEEvEERNS1_25RTCSessionDescriptionInitE
libmatrix_client.so.0.9.2:_ZN3mtx6events5state11policy_rule7to_jsonERN8nlohmann16json_abi_v3_11_310basic_jsonISt3mapSt6vectorNSt7__cxx1112basic_stringIcSt11char_traitsIcESaIcEEEblmdSaNS4_14adl_serializerES7_IhSaIhEEvEERKNS2_10ServerRuleE
libmatrix_client.so.0.9.2:_ZN3mtx6events5state11policy_rule7to_jsonERN8nlohmann16json_abi_v3_11_310basic_jsonISt3mapSt6vectorNSt7__cxx1112basic_stringIcSt11char_traitsIcESaIcEEEblmdSaNS4_14adl_serializerES7_IhSaIhEEvEERKNS2_4RuleE
libmatrix_client.so.0.9.2:_ZN3mtx6events5state11policy_rule7to_jsonERN8nlohmann16json_abi_v3_11_310basic_jsonISt3mapSt6vectorNSt7__cxx1112basic_stringIcSt11char_traitsIcESaIcEEEblmdSaNS4_14adl_serializerES7_IhSaIhEEvEERKNS2_8RoomRuleE
libmatrix_client.so.0.9.2:_ZN3mtx6events5state11policy_rule7to_jsonERN8nlohmann16json_abi_v3_11_310basic_jsonISt3mapSt6vectorNSt7__cxx1112basic_stringIcSt11char_traitsIcESaIcEEEblmdSaNS4_14adl_serializerES7_IhSaIhEEvEERKNS2_8UserRuleE
libmatrix_client.so.0.9.2:_ZN3mtx6events5state11policy_rule9from_jsonERKN8nlohmann16json_abi_v3_11_310basic_jsonISt3mapSt6vectorNSt7__cxx1112basic_stringIcSt11char_traitsIcESaIcEEEblmdSaNS4_14adl_serializerES7_IhSaIhEEvEERNS2_10ServerRuleE
libmatrix_client.so.0.9.2:_ZN3mtx6events5state11policy_rule9from_jsonERKN8nlohmann16json_abi_v3_11_310basic_jsonISt3mapSt6vectorNSt7__cxx1112basic_stringIcSt11char_traitsIcESaIcEEEblmdSaNS4_14adl_serializerES7_IhSaIhEEvEERNS2_4RuleE
libmatrix_client.so.0.9.2:_ZN3mtx6events5state11policy_rule9from_jsonERKN8nlohmann16json_abi_v3_11_310basic_jsonISt3mapSt6vectorNSt7__cxx1112basic_stringIcSt11char_traitsIcESaIcEEEblmdSaNS4_14adl_serializerES7_IhSaIhEEvEERNS2_8RoomRuleE
libmatrix_client.so.0.9.2:_ZN3mtx6events5state11policy_rule9from_jsonERKN8nlohmann16json_abi_v3_11_310basic_jsonISt3mapSt6vectorNSt7__cxx1112basic_stringIcSt11char_traitsIcESaIcEEEblmdSaNS4_14adl_serializerES7_IhSaIhEEvEERNS2_8UserRuleE
libmatrix_client.so.0.9.2:_ZN3mtx6events5state16joinRuleToStringB5cxx11ERKNS1_8JoinRuleE
libmatrix_client.so.0.9.2:_ZN3mtx6events5state16stringToJoinRuleERKNSt7__cxx1112basic_stringIcSt11char_traitsIcESaIcEEE
libmatrix_client.so.0.9.2:_ZN3mtx6events5state18membershipToStringB5cxx11ERKNS1_10MembershipE
libmatrix_client.so.0.9.2:_ZN3mtx6events5state18stringToMembershipERKNSt7__cxx1112basic_stringIcSt11char_traitsIcESaIcEEE
libmatrix_client.so.0.9.2:_ZN3mtx6events5state18stringToVisibilityERKNSt7__cxx1112basic_stringIcSt11char_traitsIcESaIcEEE
libmatrix_client.so.0.9.2:_ZN3mtx6events5state18visibilityToStringB5cxx11ERKNS1_10VisibilityE
libmatrix_client.so.0.9.2:_ZN3mtx6events5state19accessStateToStringB5cxx11ENS1_11AccessStateE
libmatrix_client.so.0.9.2:_ZN3mtx6events5state19stringToAccessStateERKNSt7__cxx1112basic_stringIcSt11char_traitsIcESaIcEEE
libmatrix_client.so.0.9.2:_ZN3mtx6events5state5space7to_jsonERN8nlohmann16json_abi_v3_11_310basic_jsonISt3mapSt6vectorNSt7__cxx1112basic_stringIcSt11char_traitsIcESaIcEEEblmdSaNS4_14adl_serializerES7_IhSaIhEEvEERKNS2_5ChildE
libmatrix_client.so.0.9.2:_ZN3mtx6events5state5space7to_jsonERN8nlohmann16json_abi_v3_11_310basic_jsonISt3mapSt6vectorNSt7__cxx1112basic_stringIcSt11char_traitsIcESaIcEEEblmdSaNS4_14adl_serializerES7_IhSaIhEEvEERKNS2_6ParentE
libmatrix_client.so.0.9.2:_ZN3mtx6events5state5space9from_jsonERKN8nlohmann16json_abi_v3_11_310basic_jsonISt3mapSt6vectorNSt7__cxx1112basic_stringIcSt11char_traitsIcESaIcEEEblmdSaNS4_14adl_serializerES7_IhSaIhEEvEERNS2_5ChildE
libmatrix_client.so.0.9.2:_ZN3mtx6events5state5space9from_jsonERKN8nlohmann16json_abi_v3_11_310basic_jsonISt3mapSt6vectorNSt7__cxx1112basic_stringIcSt11char_traitsIcESaIcEEEblmdSaNS4_14adl_serializerES7_IhSaIhEEvEERNS2_6ParentE
libmatrix_client.so.0.9.2:_ZN3mtx6events5state7to_jsonERN8nlohmann16json_abi_v3_11_310basic_jsonISt3mapSt6vectorNSt7__cxx1112basic_stringIcSt11char_traitsIcESaIcEEEblmdSaNS3_14adl_serializerES6_IhSaIhEEvEERKNS1_10EncryptionE
libmatrix_client.so.0.9.2:_ZN3mtx6events5state7to_jsonERN8nlohmann16json_abi_v3_11_310basic_jsonISt3mapSt6vectorNSt7__cxx1112basic_stringIcSt11char_traitsIcESaIcEEEblmdSaNS3_14adl_serializerES6_IhSaIhEEvEERKNS1_11GuestAccessE
libmatrix_client.so.0.9.2:_ZN3mtx6events5state7to_jsonERN8nlohmann16json_abi_v3_11_310basic_jsonISt3mapSt6vectorNSt7__cxx1112basic_stringIcSt11char_traitsIcESaIcEEEblmdSaNS3_14adl_serializerES6_IhSaIhEEvEERKNS1_11PowerLevelsE
libmatrix_client.so.0.9.2:_ZN3mtx6events5state7to_jsonERN8nlohmann16json_abi_v3_11_310basic_jsonISt3mapSt6vectorNSt7__cxx1112basic_stringIcSt11char_traitsIcESaIcEEEblmdSaNS3_14adl_serializerES6_IhSaIhEEvEERKNS1_12PinnedEventsE
libmatrix_client.so.0.9.2:_ZN3mtx6events5state7to_jsonERN8nlohmann16json_abi_v3_11_310basic_jsonISt3mapSt6vectorNSt7__cxx1112basic_stringIcSt11char_traitsIcESaIcEEEblmdSaNS3_14adl_serializerES6_IhSaIhEEvEERKNS1_12PreviousRoomE
libmatrix_client.so.0.9.2:_ZN3mtx6events5state7to_jsonERN8nlohmann16json_abi_v3_11_310basic_jsonISt3mapSt6vectorNSt7__cxx1112basic_stringIcSt11char_traitsIcESaIcEEEblmdSaNS3_14adl_serializerES6_IhSaIhEEvEERKNS1_13JoinAllowanceE
libmatrix_client.so.0.9.2:_ZN3mtx6events5state7to_jsonERN8nlohmann16json_abi_v3_11_310basic_jsonISt3mapSt6vectorNSt7__cxx1112basic_stringIcSt11char_traitsIcESaIcEEEblmdSaNS3_14adl_serializerES6_IhSaIhEEvEERKNS1_14CanonicalAliasE
libmatrix_client.so.0.9.2:_ZN3mtx6events5state7to_jsonERN8nlohmann16json_abi_v3_11_310basic_jsonISt3mapSt6vectorNSt7__cxx1112basic_stringIcSt11char_traitsIcESaIcEEEblmdSaNS3_14adl_serializerES6_IhSaIhEEvEERKNS1_17HistoryVisibilityE
libmatrix_client.so.0.9.2:_ZN3mtx6events5state7to_jsonERN8nlohmann16json_abi_v3_11_310basic_jsonISt3mapSt6vectorNSt7__cxx1112basic_stringIcSt11char_traitsIcESaIcEEEblmdSaNS3_14adl_serializerES6_IhSaIhEEvEERKNS1_4NameE
libmatrix_client.so.0.9.2:_ZN3mtx6events5state7to_jsonERN8nlohmann16json_abi_v3_11_310basic_jsonISt3mapSt6vectorNSt7__cxx1112basic_stringIcSt11char_traitsIcESaIcEEEblmdSaNS3_14adl_serializerES6_IhSaIhEEvEERKNS1_5TopicE
libmatrix_client.so.0.9.2:_ZN3mtx6events5state7to_jsonERN8nlohmann16json_abi_v3_11_310basic_jsonISt3mapSt6vectorNSt7__cxx1112basic_stringIcSt11char_traitsIcESaIcEEEblmdSaNS3_14adl_serializerES6_IhSaIhEEvEERKNS1_6AvatarE
libmatrix_client.so.0.9.2:_ZN3mtx6events5state7to_jsonERN8nlohmann16json_abi_v3_11_310basic_jsonISt3mapSt6vectorNSt7__cxx1112basic_stringIcSt11char_traitsIcESaIcEEEblmdSaNS3_14adl_serializerES6_IhSaIhEEvEERKNS1_6CreateE
libmatrix_client.so.0.9.2:_ZN3mtx6events5state7to_jsonERN8nlohmann16json_abi_v3_11_310basic_jsonISt3mapSt6vectorNSt7__cxx1112basic_stringIcSt11char_traitsIcESaIcEEEblmdSaNS3_14adl_serializerES6_IhSaIhEEvEERKNS1_6MemberE
libmatrix_client.so.0.9.2:_ZN3mtx6events5state7to_jsonERN8nlohmann16json_abi_v3_11_310basic_jsonISt3mapSt6vectorNSt7__cxx1112basic_stringIcSt11char_traitsIcESaIcEEEblmdSaNS3_14adl_serializerES6_IhSaIhEEvEERKNS1_6WidgetE
libmatrix_client.so.0.9.2:_ZN3mtx6events5state7to_jsonERN8nlohmann16json_abi_v3_11_310basic_jsonISt3mapSt6vectorNSt7__cxx1112basic_stringIcSt11char_traitsIcESaIcEEEblmdSaNS3_14adl_serializerES6_IhSaIhEEvEERKNS1_7AliasesE
libmatrix_client.so.0.9.2:_ZN3mtx6events5state7to_jsonERN8nlohmann16json_abi_v3_11_310basic_jsonISt3mapSt6vectorNSt7__cxx1112basic_stringIcSt11char_traitsIcESaIcEEEblmdSaNS3_14adl_serializerES6_IhSaIhEEvEERKNS1_9JoinRulesE
libmatrix_client.so.0.9.2:_ZN3mtx6events5state7to_jsonERN8nlohmann16json_abi_v3_11_310basic_jsonISt3mapSt6vectorNSt7__cxx1112basic_stringIcSt11char_traitsIcESaIcEEEblmdSaNS3_14adl_serializerES6_IhSaIhEEvEERKNS1_9TombstoneE
libmatrix_client.so.0.9.2:_ZN3mtx6events5state9from_jsonERKN8nlohmann16json_abi_v3_11_310basic_jsonISt3mapSt6vectorNSt7__cxx1112basic_stringIcSt11char_traitsIcESaIcEEEblmdSaNS3_14adl_serializerES6_IhSaIhEEvEERNS1_10EncryptionE
libmatrix_client.so.0.9.2:_ZN3mtx6events5state9from_jsonERKN8nlohmann16json_abi_v3_11_310basic_jsonISt3mapSt6vectorNSt7__cxx1112basic_stringIcSt11char_traitsIcESaIcEEEblmdSaNS3_14adl_serializerES6_IhSaIhEEvEERNS1_11GuestAccessE
libmatrix_client.so.0.9.2:_ZN3mtx6events5state9from_jsonERKN8nlohmann16json_abi_v3_11_310basic_jsonISt3mapSt6vectorNSt7__cxx1112basic_stringIcSt11char_traitsIcESaIcEEEblmdSaNS3_14adl_serializerES6_IhSaIhEEvEERNS1_11PowerLevelsE
libmatrix_client.so.0.9.2:_ZN3mtx6events5state9from_jsonERKN8nlohmann16json_abi_v3_11_310basic_jsonISt3mapSt6vectorNSt7__cxx1112basic_stringIcSt11char_traitsIcESaIcEEEblmdSaNS3_14adl_serializerES6_IhSaIhEEvEERNS1_12PinnedEventsE
libmatrix_client.so.0.9.2:_ZN3mtx6events5state9from_jsonERKN8nlohmann16json_abi_v3_11_310basic_jsonISt3mapSt6vectorNSt7__cxx1112basic_stringIcSt11char_traitsIcESaIcEEEblmdSaNS3_14adl_serializerES6_IhSaIhEEvEERNS1_12PreviousRoomE
libmatrix_client.so.0.9.2:_ZN3mtx6events5state9from_jsonERKN8nlohmann16json_abi_v3_11_310basic_jsonISt3mapSt6vectorNSt7__cxx1112basic_stringIcSt11char_traitsIcESaIcEEEblmdSaNS3_14adl_serializerES6_IhSaIhEEvEERNS1_13JoinAllowanceE
libmatrix_client.so.0.9.2:_ZN3mtx6events5state9from_jsonERKN8nlohmann16json_abi_v3_11_310basic_jsonISt3mapSt6vectorNSt7__cxx1112basic_stringIcSt11char_traitsIcESaIcEEEblmdSaNS3_14adl_serializerES6_IhSaIhEEvEERNS1_14CanonicalAliasE
libmatrix_client.so.0.9.2:_ZN3mtx6events5state9from_jsonERKN8nlohmann16json_abi_v3_11_310basic_jsonISt3mapSt6vectorNSt7__cxx1112basic_stringIcSt11char_traitsIcESaIcEEEblmdSaNS3_14adl_serializerES6_IhSaIhEEvEERNS1_17HistoryVisibilityE
libmatrix_client.so.0.9.2:_ZN3mtx6events5state9from_jsonERKN8nlohmann16json_abi_v3_11_310basic_jsonISt3mapSt6vectorNSt7__cxx1112basic_stringIcSt11char_traitsIcESaIcEEEblmdSaNS3_14adl_serializerES6_IhSaIhEEvEERNS1_4NameE
libmatrix_client.so.0.9.2:_ZN3mtx6events5state9from_jsonERKN8nlohmann16json_abi_v3_11_310basic_jsonISt3mapSt6vectorNSt7__cxx1112basic_stringIcSt11char_traitsIcESaIcEEEblmdSaNS3_14adl_serializerES6_IhSaIhEEvEERNS1_5TopicE
libmatrix_client.so.0.9.2:_ZN3mtx6events5state9from_jsonERKN8nlohmann16json_abi_v3_11_310basic_jsonISt3mapSt6vectorNSt7__cxx1112basic_stringIcSt11char_traitsIcESaIcEEEblmdSaNS3_14adl_serializerES6_IhSaIhEEvEERNS1_6AvatarE
libmatrix_client.so.0.9.2:_ZN3mtx6events5state9from_jsonERKN8nlohmann16json_abi_v3_11_310basic_jsonISt3mapSt6vectorNSt7__cxx1112basic_stringIcSt11char_traitsIcESaIcEEEblmdSaNS3_14adl_serializerES6_IhSaIhEEvEERNS1_6CreateE
libmatrix_client.so.0.9.2:_ZN3mtx6events5state9from_jsonERKN8nlohmann16json_abi_v3_11_310basic_jsonISt3mapSt6vectorNSt7__cxx1112basic_stringIcSt11char_traitsIcESaIcEEEblmdSaNS3_14adl_serializerES6_IhSaIhEEvEERNS1_6MemberE
libmatrix_client.so.0.9.2:_ZN3mtx6events5state9from_jsonERKN8nlohmann16json_abi_v3_11_310basic_jsonISt3mapSt6vectorNSt7__cxx1112basic_stringIcSt11char_traitsIcESaIcEEEblmdSaNS3_14adl_serializerES6_IhSaIhEEvEERNS1_6WidgetE
libmatrix_client.so.0.9.2:_ZN3mtx6events5state9from_jsonERKN8nlohmann16json_abi_v3_11_310basic_jsonISt3mapSt6vectorNSt7__cxx1112basic_stringIcSt11char_traitsIcESaIcEEEblmdSaNS3_14adl_serializerES6_IhSaIhEEvEERNS1_7AliasesE
libmatrix_client.so.0.9.2:_ZN3mtx6events5state9from_jsonERKN8nlohmann16json_abi_v3_11_310basic_jsonISt3mapSt6vectorNSt7__cxx1112basic_stringIcSt11char_traitsIcESaIcEEEblmdSaNS3_14adl_serializerES6_IhSaIhEEvEERNS1_9JoinRulesE
libmatrix_client.so.0.9.2:_ZN3mtx6events5state9from_jsonERKN8nlohmann16json_abi_v3_11_310basic_jsonISt3mapSt6vectorNSt7__cxx1112basic_stringIcSt11char_traitsIcESaIcEEEblmdSaNS3_14adl_serializerES6_IhSaIhEEvEERNS1_9TombstoneE
libmatrix_client.so.0.9.2:_ZN3mtx6events7msc25457to_jsonERN8nlohmann16json_abi_v3_11_310basic_jsonISt3mapSt6vectorNSt7__cxx1112basic_stringIcSt11char_traitsIcESaIcEEEblmdSaNS3_14adl_serializerES6_IhSaIhEEvEERKNS1_14ImagePackRoomsE
libmatrix_client.so.0.9.2:_ZN3mtx6events7msc25457to_jsonERN8nlohmann16json_abi_v3_11_310basic_jsonISt3mapSt6vectorNSt7__cxx1112basic_stringIcSt11char_traitsIcESaIcEEEblmdSaNS3_14adl_serializerES6_IhSaIhEEvEERKNS1_9ImagePack15PackDescriptionE
libmatrix_client.so.0.9.2:_ZN3mtx6events7msc25457to_jsonERN8nlohmann16json_abi_v3_11_310basic_jsonISt3mapSt6vectorNSt7__cxx1112basic_stringIcSt11char_traitsIcESaIcEEEblmdSaNS3_14adl_serializerES6_IhSaIhEEvEERKNS1_9ImagePackE
libmatrix_client.so.0.9.2:_ZN3mtx6events7msc25457to_jsonERN8nlohmann16json_abi_v3_11_310basic_jsonISt3mapSt6vectorNSt7__cxx1112basic_stringIcSt11char_traitsIcESaIcEEEblmdSaNS3_14adl_serializerES6_IhSaIhEEvEERKNS1_9PackImageE
libmatrix_client.so.0.9.2:_ZN3mtx6events7msc25459from_jsonERKN8nlohmann16json_abi_v3_11_310basic_jsonISt3mapSt6vectorNSt7__cxx1112basic_stringIcSt11char_traitsIcESaIcEEEblmdSaNS3_14adl_serializerES6_IhSaIhEEvEERNS1_14ImagePackRoomsE
libmatrix_client.so.0.9.2:_ZN3mtx6events7msc25459from_jsonERKN8nlohmann16json_abi_v3_11_310basic_jsonISt3mapSt6vectorNSt7__cxx1112basic_stringIcSt11char_traitsIcESaIcEEEblmdSaNS3_14adl_serializerES6_IhSaIhEEvEERNS1_9ImagePack15PackDescriptionE
libmatrix_client.so.0.9.2:_ZN3mtx6events7msc25459from_jsonERKN8nlohmann16json_abi_v3_11_310basic_jsonISt3mapSt6vectorNSt7__cxx1112basic_stringIcSt11char_traitsIcESaIcEEEblmdSaNS3_14adl_serializerES6_IhSaIhEEvEERNS1_9ImagePackE
libmatrix_client.so.0.9.2:_ZN3mtx6events7msc25459from_jsonERKN8nlohmann16json_abi_v3_11_310basic_jsonISt3mapSt6vectorNSt7__cxx1112basic_stringIcSt11char_traitsIcESaIcEEEblmdSaNS3_14adl_serializerES6_IhSaIhEEvEERNS1_9PackImageE
libmatrix_client.so.0.9.2:_ZN3mtx6events7to_jsonERN8nlohmann16json_abi_v3_11_310basic_jsonISt3mapSt6vectorNSt7__cxx1112basic_stringIcSt11char_traitsIcESaIcEEEblmdSaNS2_14adl_serializerES5_IhSaIhEEvEERKNS0_12UnsignedDataE
libmatrix_client.so.0.9.2:_ZN3mtx6events7to_jsonERN8nlohmann16json_abi_v3_11_310basic_jsonISt3mapSt6vectorNSt7__cxx1112basic_stringIcSt11char_traitsIcESaIcEEEblmdSaNS2_14adl_serializerES5_IhSaIhEEvEERKNS0_7UnknownE
libmatrix_client.so.0.9.2:_ZN3mtx6events8presence7to_jsonERN8nlohmann16json_abi_v3_11_310basic_jsonISt3mapSt6vectorNSt7__cxx1112basic_stringIcSt11char_traitsIcESaIcEEEblmdSaNS3_14adl_serializerES6_IhSaIhEEvEERKNS1_8PresenceE
libmatrix_client.so.0.9.2:_ZN3mtx6events8presence9from_jsonERKN8nlohmann16json_abi_v3_11_310basic_jsonISt3mapSt6vectorNSt7__cxx1112basic_stringIcSt11char_traitsIcESaIcEEEblmdSaNS3_14adl_serializerES6_IhSaIhEEvEERNS1_8PresenceE
libmatrix_client.so.0.9.2:_ZN3mtx6events9ephemeral7to_jsonERN8nlohmann16json_abi_v3_11_310basic_jsonISt3mapSt6vectorNSt7__cxx1112basic_stringIcSt11char_traitsIcESaIcEEEblmdSaNS3_14adl_serializerES6_IhSaIhEEvEERKNS1_6TypingE
libmatrix_client.so.0.9.2:_ZN3mtx6events9ephemeral7to_jsonERN8nlohmann16json_abi_v3_11_310basic_jsonISt3mapSt6vectorNSt7__cxx1112basic_stringIcSt11char_traitsIcESaIcEEEblmdSaNS3_14adl_serializerES6_IhSaIhEEvEERKNS1_7ReceiptE
libmatrix_client.so.0.9.2:_ZN3mtx6events9ephemeral9from_jsonERKN8nlohmann16json_abi_v3_11_310basic_jsonISt3mapSt6vectorNSt7__cxx1112basic_stringIcSt11char_traitsIcESaIcEEEblmdSaNS3_14adl_serializerES6_IhSaIhEEvEERNS1_6TypingE
libmatrix_client.so.0.9.2:_ZN3mtx6events9ephemeral9from_jsonERKN8nlohmann16json_abi_v3_11_310basic_jsonISt3mapSt6vectorNSt7__cxx1112basic_stringIcSt11char_traitsIcESaIcEEEblmdSaNS3_14adl_serializerES6_IhSaIhEEvEERNS1_7ReceiptE
libmatrix_client.so.0.9.2:_ZN3mtx6events9from_jsonERKN8nlohmann16json_abi_v3_11_310basic_jsonISt3mapSt6vectorNSt7__cxx1112basic_stringIcSt11char_traitsIcESaIcEEEblmdSaNS2_14adl_serializerES5_IhSaIhEEvEERNS0_12UnsignedDataE
libmatrix_client.so.0.9.2:_ZN3mtx6events9from_jsonERKN8nlohmann16json_abi_v3_11_310basic_jsonISt3mapSt6vectorNSt7__cxx1112basic_stringIcSt11char_traitsIcESaIcEEEblmdSaNS2_14adl_serializerES5_IhSaIhEEvEERNS0_7UnknownE
libmatrix_client.so.0.9.2:_ZN3mtx6events9to_stringB5cxx11ENS0_9EventTypeE
libmatrix_client.so.0.9.2:_ZN3mtx8presence11from_stringESt17basic_string_viewIcSt11char_traitsIcEE
libmatrix_client.so.0.9.2:_ZN3mtx8presence9to_stringB5cxx11ENS0_13PresenceStateE
libmatrix_client.so.0.9.2:_ZN3mtx8requests14presetToStringB5cxx11ENS0_6PresetE
libmatrix_client.so.0.9.2:_ZN3mtx8requests7to_jsonERN8nlohmann16json_abi_v3_11_310basic_jsonISt3mapSt6vectorNSt7__cxx1112basic_stringIcSt11char_traitsIcESaIcEEEblmdSaNS2_14adl_serializerES5_IhSaIhEEvEERKNS0_10CreateRoomE
libmatrix_client.so.0.9.2:_ZN3mtx8requests7to_jsonERN8nlohmann16json_abi_v3_11_310basic_jsonISt3mapSt6vectorNSt7__cxx1112basic_stringIcSt11char_traitsIcESaIcEEEblmdSaNS2_14adl_serializerES5_IhSaIhEEvEERKNS0_10PusherDataE
libmatrix_client.so.0.9.2:_ZN3mtx8requests7to_jsonERN8nlohmann16json_abi_v3_11_310basic_jsonISt3mapSt6vectorNSt7__cxx1112basic_stringIcSt11char_traitsIcESaIcEEEblmdSaNS2_14adl_serializerES5_IhSaIhEEvEERKNS0_10UploadKeysE
libmatrix_client.so.0.9.2:_ZN3mtx8requests7to_jsonERN8nlohmann16json_abi_v3_11_310basic_jsonISt3mapSt6vectorNSt7__cxx1112basic_stringIcSt11char_traitsIcESaIcEEEblmdSaNS2_14adl_serializerES5_IhSaIhEEvEERKNS0_11DisplayNameE
libmatrix_client.so.0.9.2:_ZN3mtx8requests7to_jsonERN8nlohmann16json_abi_v3_11_310basic_jsonISt3mapSt6vectorNSt7__cxx1112basic_stringIcSt11char_traitsIcESaIcEEEblmdSaNS2_14adl_serializerES5_IhSaIhEEvEERKNS0_11PublicRoomsE
libmatrix_client.so.0.9.2:_ZN3mtx8requests7to_jsonERN8nlohmann16json_abi_v3_11_310basic_jsonISt3mapSt6vectorNSt7__cxx1112basic_stringIcSt11char_traitsIcESaIcEEEblmdSaNS2_14adl_serializerES5_IhSaIhEEvEERKNS0_12DeviceUpdateE
libmatrix_client.so.0.9.2:_ZN3mtx8requests7to_jsonERN8nlohmann16json_abi_v3_11_310basic_jsonISt3mapSt6vectorNSt7__cxx1112basic_stringIcSt11char_traitsIcESaIcEEEblmdSaNS2_14adl_serializerES5_IhSaIhEEvEERKNS0_16SignedOneTimeKeyE
libmatrix_client.so.0.9.2:_ZN3mtx8requests7to_jsonERN8nlohmann16json_abi_v3_11_310basic_jsonISt3mapSt6vectorNSt7__cxx1112basic_stringIcSt11char_traitsIcESaIcEEEblmdSaNS2_14adl_serializerES5_IhSaIhEEvEERKNS0_17PublicRoomsFilterE
libmatrix_client.so.0.9.2:_ZN3mtx8requests7to_jsonERN8nlohmann16json_abi_v3_11_310basic_jsonISt3mapSt6vectorNSt7__cxx1112basic_stringIcSt11char_traitsIcESaIcEEEblmdSaNS2_14adl_serializerES5_IhSaIhEEvEERKNS0_17RequestEmailTokenE
libmatrix_client.so.0.9.2:_ZN3mtx8requests7to_jsonERN8nlohmann16json_abi_v3_11_310basic_jsonISt3mapSt6vectorNSt7__cxx1112basic_stringIcSt11char_traitsIcESaIcEEEblmdSaNS2_14adl_serializerES5_IhSaIhEEvEERKNS0_18RequestMSISDNTokenE
libmatrix_client.so.0.9.2:_ZN3mtx8requests7to_jsonERN8nlohmann16json_abi_v3_11_310basic_jsonISt3mapSt6vectorNSt7__cxx1112basic_stringIcSt11char_traitsIcESaIcEEEblmdSaNS2_14adl_serializerES5_IhSaIhEEvEERKNS0_18TypingNotificationE
libmatrix_client.so.0.9.2:_ZN3mtx8requests7to_jsonERN8nlohmann16json_abi_v3_11_310basic_jsonISt3mapSt6vectorNSt7__cxx1112basic_stringIcSt11char_traitsIcESaIcEEEblmdSaNS2_14adl_serializerES5_IhSaIhEEvEERKNS0_19DeviceSigningUploadE
libmatrix_client.so.0.9.2:_ZN3mtx8requests7to_jsonERN8nlohmann16json_abi_v3_11_310basic_jsonISt3mapSt6vectorNSt7__cxx1112basic_stringIcSt11char_traitsIcESaIcEEEblmdSaNS2_14adl_serializerES5_IhSaIhEEvEERKNS0_19IdentitySubmitTokenE
libmatrix_client.so.0.9.2:_ZN3mtx8requests7to_jsonERN8nlohmann16json_abi_v3_11_310basic_jsonISt3mapSt6vectorNSt7__cxx1112basic_stringIcSt11char_traitsIcESaIcEEEblmdSaNS2_14adl_serializerES5_IhSaIhEEvEERKNS0_19KeySignaturesUploadE
libmatrix_client.so.0.9.2:_ZN3mtx8requests7to_jsonERN8nlohmann16json_abi_v3_11_310basic_jsonISt3mapSt6vectorNSt7__cxx1112basic_stringIcSt11char_traitsIcESaIcEEEblmdSaNS2_14adl_serializerES5_IhSaIhEEvEERKNS0_20PublicRoomVisibilityE
libmatrix_client.so.0.9.2:_ZN3mtx8requests7to_jsonERN8nlohmann16json_abi_v3_11_310basic_jsonISt3mapSt6vectorNSt7__cxx1112basic_stringIcSt11char_traitsIcESaIcEEEblmdSaNS2_14adl_serializerES5_IhSaIhEEvEERKNS0_20RoomMembershipChangeE
libmatrix_client.so.0.9.2:_ZN3mtx8requests7to_jsonERN8nlohmann16json_abi_v3_11_310basic_jsonISt3mapSt6vectorNSt7__cxx1112basic_stringIcSt11char_traitsIcESaIcEEEblmdSaNS2_14adl_serializerES5_IhSaIhEEvEERKNS0_5LoginE
libmatrix_client.so.0.9.2:_ZN3mtx8requests7to_jsonERN8nlohmann16json_abi_v3_11_310basic_jsonISt3mapSt6vectorNSt7__cxx1112basic_stringIcSt11char_traitsIcESaIcEEEblmdSaNS2_14adl_serializerES5_IhSaIhEEvEERKNS0_9AvatarUrlE
libmatrix_client.so.0.9.2:_ZN3mtx8requests7to_jsonERN8nlohmann16json_abi_v3_11_310basic_jsonISt3mapSt6vectorNSt7__cxx1112basic_stringIcSt11char_traitsIcESaIcEEEblmdSaNS2_14adl_serializerES5_IhSaIhEEvEERKNS0_9ClaimKeysE
libmatrix_client.so.0.9.2:_ZN3mtx8requests7to_jsonERN8nlohmann16json_abi_v3_11_310basic_jsonISt3mapSt6vectorNSt7__cxx1112basic_stringIcSt11char_traitsIcESaIcEEEblmdSaNS2_14adl_serializerES5_IhSaIhEEvEERKNS0_9QueryKeysE
libmatrix_client.so.0.9.2:_ZN3mtx8requests7to_jsonERN8nlohmann16json_abi_v3_11_310basic_jsonISt3mapSt6vectorNSt7__cxx1112basic_stringIcSt11char_traitsIcESaIcEEEblmdSaNS2_14adl_serializerES5_IhSaIhEEvEERKNS0_9SetPusherE
libmatrix_client.so.0.9.2:_ZN3mtx9pushrules17PushRuleEvaluatorC1ERKNS0_7RulesetE
libmatrix_client.so.0.9.2:_ZN3mtx9pushrules17PushRuleEvaluatorC2ERKNS0_7RulesetE
libmatrix_client.so.0.9.2:_ZN3mtx9pushrules17PushRuleEvaluatorD1Ev
libmatrix_client.so.0.9.2:_ZN3mtx9pushrules17PushRuleEvaluatorD2Ev
libmatrix_client.so.0.9.2:_ZN3mtx9pushrules7actions7to_jsonERN8nlohmann16json_abi_v3_11_310basic_jsonISt3mapSt6vectorNSt7__cxx1112basic_stringIcSt11char_traitsIcESaIcEEEblmdSaNS3_14adl_serializerES6_IhSaIhEEvEERKNS1_7ActionsE
libmatrix_client.so.0.9.2:_ZN3mtx9pushrules7actions7to_jsonERN8nlohmann16json_abi_v3_11_310basic_jsonISt3mapSt6vectorNSt7__cxx1112basic_stringIcSt11char_traitsIcESaIcEEEblmdSaNS3_14adl_serializerES6_IhSaIhEEvEERKSt7variantIJNS1_6notifyENS1_11dont_notifyENS1_8coalesceENS1_15set_tweak_soundENS1_19set_tweak_highlightEEE
libmatrix_client.so.0.9.2:_ZN3mtx9pushrules7actions9from_jsonERKN8nlohmann16json_abi_v3_11_310basic_jsonISt3mapSt6vectorNSt7__cxx1112basic_stringIcSt11char_traitsIcESaIcEEEblmdSaNS3_14adl_serializerES6_IhSaIhEEvEERNS1_7ActionsE
libmatrix_client.so.0.9.2:_ZN3mtx9pushrules7actions9from_jsonERKN8nlohmann16json_abi_v3_11_310basic_jsonISt3mapSt6vectorNSt7__cxx1112basic_stringIcSt11char_traitsIcESaIcEEEblmdSaNS3_14adl_serializerES6_IhSaIhEEvEERSt7variantIJNS1_6notifyENS1_11dont_notifyENS1_8coalesceENS1_15set_tweak_soundENS1_19set_tweak_highlightEEE
libmatrix_client.so.0.9.2:_ZN3mtx9pushrules7to_jsonERN8nlohmann16json_abi_v3_11_310basic_jsonISt3mapSt6vectorNSt7__cxx1112basic_stringIcSt11char_traitsIcESaIcEEEblmdSaNS2_14adl_serializerES5_IhSaIhEEvEERKNS0_13GlobalRulesetE
libmatrix_client.so.0.9.2:_ZN3mtx9pushrules7to_jsonERN8nlohmann16json_abi_v3_11_310basic_jsonISt3mapSt6vectorNSt7__cxx1112basic_stringIcSt11char_traitsIcESaIcEEEblmdSaNS2_14adl_serializerES5_IhSaIhEEvEERKNS0_13PushConditionE
libmatrix_client.so.0.9.2:_ZN3mtx9pushrules7to_jsonERN8nlohmann16json_abi_v3_11_310basic_jsonISt3mapSt6vectorNSt7__cxx1112basic_stringIcSt11char_traitsIcESaIcEEEblmdSaNS2_14adl_serializerES5_IhSaIhEEvEERKNS0_7EnabledE
libmatrix_client.so.0.9.2:_ZN3mtx9pushrules7to_jsonERN8nlohmann16json_abi_v3_11_310basic_jsonISt3mapSt6vectorNSt7__cxx1112basic_stringIcSt11char_traitsIcESaIcEEEblmdSaNS2_14adl_serializerES5_IhSaIhEEvEERKNS0_7RulesetE
libmatrix_client.so.0.9.2:_ZN3mtx9pushrules7to_jsonERN8nlohmann16json_abi_v3_11_310basic_jsonISt3mapSt6vectorNSt7__cxx1112basic_stringIcSt11char_traitsIcESaIcEEEblmdSaNS2_14adl_serializerES5_IhSaIhEEvEERKNS0_8PushRuleE
libmatrix_client.so.0.9.2:_ZN3mtx9pushrules9from_jsonERKN8nlohmann16json_abi_v3_11_310basic_jsonISt3mapSt6vectorNSt7__cxx1112basic_stringIcSt11char_traitsIcESaIcEEEblmdSaNS2_14adl_serializerES5_IhSaIhEEvEERNS0_13GlobalRulesetE
libmatrix_client.so.0.9.2:_ZN3mtx9pushrules9from_jsonERKN8nlohmann16json_abi_v3_11_310basic_jsonISt3mapSt6vectorNSt7__cxx1112basic_stringIcSt11char_traitsIcESaIcEEEblmdSaNS2_14adl_serializerES5_IhSaIhEEvEERNS0_13PushConditionE
libmatrix_client.so.0.9.2:_ZN3mtx9pushrules9from_jsonERKN8nlohmann16json_abi_v3_11_310basic_jsonISt3mapSt6vectorNSt7__cxx1112basic_stringIcSt11char_traitsIcESaIcEEEblmdSaNS2_14adl_serializerES5_IhSaIhEEvEERNS0_7EnabledE
libmatrix_client.so.0.9.2:_ZN3mtx9pushrules9from_jsonERKN8nlohmann16json_abi_v3_11_310basic_jsonISt3mapSt6vectorNSt7__cxx1112basic_stringIcSt11char_traitsIcESaIcEEEblmdSaNS2_14adl_serializerES5_IhSaIhEEvEERNS0_7RulesetE
libmatrix_client.so.0.9.2:_ZN3mtx9pushrules9from_jsonERKN8nlohmann16json_abi_v3_11_310basic_jsonISt3mapSt6vectorNSt7__cxx1112basic_stringIcSt11char_traitsIcESaIcEEEblmdSaNS2_14adl_serializerES5_IhSaIhEEvEERNS0_8PushRuleE
libmatrix_client.so.0.9.2:_ZN3mtx9responses12capabilities9from_jsonERKN8nlohmann16json_abi_v3_11_310basic_jsonISt3mapSt6vectorNSt7__cxx1112basic_stringIcSt11char_traitsIcESaIcEEEblmdSaNS3_14adl_serializerES6_IhSaIhEEvEERNS1_12CapabilitiesE
libmatrix_client.so.0.9.2:_ZN3mtx9responses12capabilities9from_jsonERKN8nlohmann16json_abi_v3_11_310basic_jsonISt3mapSt6vectorNSt7__cxx1112basic_stringIcSt11char_traitsIcESaIcEEEblmdSaNS3_14adl_serializerES6_IhSaIhEEvEERNS1_20RoomVersionStabilityE
libmatrix_client.so.0.9.2:_ZN3mtx9responses12capabilities9from_jsonERKN8nlohmann16json_abi_v3_11_310basic_jsonISt3mapSt6vectorNSt7__cxx1112basic_stringIcSt11char_traitsIcESaIcEEEblmdSaNS3_14adl_serializerES6_IhSaIhEEvEERNS1_22RoomVersionsCapabilityE
libmatrix_client.so.0.9.2:_ZN3mtx9responses12capabilities9from_jsonERKN8nlohmann16json_abi_v3_11_310basic_jsonISt3mapSt6vectorNSt7__cxx1112basic_stringIcSt11char_traitsIcESaIcEEEblmdSaNS3_14adl_serializerES6_IhSaIhEEvEERNS1_7EnabledE
libmatrix_client.so.0.9.2:_ZN3mtx9responses5utils18parse_state_eventsERKN8nlohmann16json_abi_v3_11_310basic_jsonISt3mapSt6vectorNSt7__cxx1112basic_stringIcSt11char_traitsIcESaIcEEEblmdSaNS3_14adl_serializerES6_IhSaIhEEvEERS6_ISt7variantIJNS_6events10StateEventINSK_5state7AliasesEEENSL_INSM_6AvatarEEENSL_INSM_14CanonicalAliasEEENSL_INSM_6CreateEEENSL_INSM_10EncryptionEEENSL_INSM_11GuestAccessEEENSL_INSM_17HistoryVisibilityEEENSL_INSM_9JoinRulesEEENSL_INSM_6MemberEEENSL_INSM_4NameEEENSL_INSM_12PinnedEventsEEENSL_INSM_11PowerLevelsEEENSL_INSM_11policy_rule8UserRuleEEENSL_INS1B_8RoomRuleEEENSL_INS1B_10ServerRuleEEENSL_INSM_5space5ChildEEENSL_INS1I_6ParentEEENSL_INSM_9TombstoneEEENSL_INSM_5TopicEEENSL_INSM_6WidgetEEENSL_INSK_3msg8RedactedEEENSL_INSK_7msc25459ImagePackEEENSL_INSK_7UnknownEEEEESaIS21_EE
libmatrix_client.so.0.9.2:_ZN3mtx9responses5utils19parse_device_eventsERKN8nlohmann16json_abi_v3_11_310basic_jsonISt3mapSt6vectorNSt7__cxx1112basic_stringIcSt11char_traitsIcESaIcEEEblmdSaNS3_14adl_serializerES6_IhSaIhEEvEERS6_ISt7variantIJNS_6events11DeviceEventINSK_3msg7RoomKeyEEENSL_INSM_16ForwardedRoomKeyEEENSL_INSM_10KeyRequestEEENSL_INSM_12OlmEncryptedEEENSL_INSM_9EncryptedEEENSL_INSM_5DummyEEENSL_INSM_22KeyVerificationRequestEEENSL_INSM_20KeyVerificationStartEEENSL_INSM_20KeyVerificationReadyEEENSL_INSM_19KeyVerificationDoneEEENSL_INSM_21KeyVerificationAcceptEEENSL_INSM_21KeyVerificationCancelEEENSL_INSM_18KeyVerificationKeyEEENSL_INSM_18KeyVerificationMacEEENSL_INSM_13SecretRequestEEENSL_INSM_10SecretSendEEENSL_INSK_7UnknownEEEEESaIS1L_EE
libmatrix_client.so.0.9.2:_ZN3mtx9responses5utils21parse_stripped_eventsERKN8nlohmann16json_abi_v3_11_310basic_jsonISt3mapSt6vectorNSt7__cxx1112basic_stringIcSt11char_traitsIcESaIcEEEblmdSaNS3_14adl_serializerES6_IhSaIhEEvEERS6_ISt7variantIJNS_6events13StrippedEventINSK_5state7AliasesEEENSL_INSM_6AvatarEEENSL_INSM_14CanonicalAliasEEENSL_INSM_6CreateEEENSL_INSM_10EncryptionEEENSL_INSM_11GuestAccessEEENSL_INSM_17HistoryVisibilityEEENSL_INSM_9JoinRulesEEENSL_INSM_6MemberEEENSL_INSM_4NameEEENSL_INSM_12PinnedEventsEEENSL_INSM_11PowerLevelsEEENSL_INSM_11policy_rule8UserRuleEEENSL_INS1B_8RoomRuleEEENSL_INS1B_10ServerRuleEEENSL_INSM_5space5ChildEEENSL_INS1I_6ParentEEENSL_INSM_9TombstoneEEENSL_INSM_5TopicEEENSL_INSM_6WidgetEEENSL_INSK_3msg8RedactedEEENSL_INSK_7UnknownEEEEESaIS1Y_EE
libmatrix_client.so.0.9.2:_ZN3mtx9responses5utils21parse_timeline_eventsERKN8nlohmann16json_abi_v3_11_310basic_jsonISt3mapSt6vectorNSt7__cxx1112basic_stringIcSt11char_traitsIcESaIcEEEblmdSaNS3_14adl_serializerES6_IhSaIhEEvEERS6_ISt7variantIJNS_6events10StateEventINSK_5state7AliasesEEENSL_INSM_6AvatarEEENSL_INSM_14CanonicalAliasEEENSL_INSM_6CreateEEENSL_INSM_10EncryptionEEENSL_INSM_11GuestAccessEEENSL_INSM_17HistoryVisibilityEEENSL_INSM_9JoinRulesEEENSL_INSM_6MemberEEENSL_INSM_4NameEEENSL_INSM_12PinnedEventsEEENSL_INSM_11PowerLevelsEEENSL_INSM_11policy_rule8UserRuleEEENSL_INS1B_8RoomRuleEEENSL_INS1B_10ServerRuleEEENSL_INSM_5space5ChildEEENSL_INS1I_6ParentEEENSL_INSM_9TombstoneEEENSL_INSM_5TopicEEENSL_INSM_6WidgetEEENSL_INSK_7msc25459ImagePackEEENSL_INSK_3msg8RedactedEEENSK_14EncryptedEventINS1W_9EncryptedEEENSK_14RedactionEventINS1W_9RedactionEEENSK_7StickerENSK_9RoomEventINS1W_8ReactionEEENS26_IS1X_EENS26_INS1W_5AudioEEENS26_INS1W_8ConfettiEEENS26_INS1W_5EmoteEEENS26_INS1W_4FileEEENS26_INS1W_5ImageEEENS26_INS1W_6NoticeEEENS26_INS1W_4TextEEENS26_INS1W_5VideoEEENS26_INS1W_22KeyVerificationRequestEEENS26_INS1W_20KeyVerificationStartEEENS26_INS1W_20KeyVerificationReadyEEENS26_INS1W_19KeyVerificationDoneEEENS26_INS1W_21KeyVerificationAcceptEEENS26_INS1W_21KeyVerificationCancelEEENS26_INS1W_18KeyVerificationKeyEEENS26_INS1W_18KeyVerificationMacEEENS26_INSK_4voip14CallCandidatesEEENS26_INS36_10CallInviteEEENS26_INS36_10CallAnswerEEENS26_INS36_10CallHangUpEEENS26_INS36_16CallSelectAnswerEEENS26_INS36_10CallRejectEEENS26_INS36_13CallNegotiateEEENS26_INSK_7UnknownEEEEESaIS3N_EE
libmatrix_client.so.0.9.2:_ZN3mtx9responses5utils22parse_ephemeral_eventsERKN8nlohmann16json_abi_v3_11_310basic_jsonISt3mapSt6vectorNSt7__cxx1112basic_stringIcSt11char_traitsIcESaIcEEEblmdSaNS3_14adl_serializerES6_IhSaIhEEvEERS6_ISt7variantIJNS_6events14EphemeralEventINSK_9ephemeral6TypingEEENSL_INSM_7ReceiptEEENSL_INSK_7UnknownEEEEESaIST_EE
libmatrix_client.so.0.9.2:_ZN3mtx9responses5utils23compose_timeline_eventsERN8nlohmann16json_abi_v3_11_310basic_jsonISt3mapSt6vectorNSt7__cxx1112basic_stringIcSt11char_traitsIcESaIcEEEblmdSaNS3_14adl_serializerES6_IhSaIhEEvEERKS6_ISt7variantIJNS_6events10StateEventINSJ_5state7AliasesEEENSK_INSL_6AvatarEEENSK_INSL_14CanonicalAliasEEENSK_INSL_6CreateEEENSK_INSL_10EncryptionEEENSK_INSL_11GuestAccessEEENSK_INSL_17HistoryVisibilityEEENSK_INSL_9JoinRulesEEENSK_INSL_6MemberEEENSK_INSL_4NameEEENSK_INSL_12PinnedEventsEEENSK_INSL_11PowerLevelsEEENSK_INSL_11policy_rule8UserRuleEEENSK_INS1A_8RoomRuleEEENSK_INS1A_10ServerRuleEEENSK_INSL_5space5ChildEEENSK_INS1H_6ParentEEENSK_INSL_9TombstoneEEENSK_INSL_5TopicEEENSK_INSL_6WidgetEEENSK_INSJ_7msc25459ImagePackEEENSK_INSJ_3msg8RedactedEEENSJ_14EncryptedEventINS1V_9EncryptedEEENSJ_14RedactionEventINS1V_9RedactionEEENSJ_7StickerENSJ_9RoomEventINS1V_8ReactionEEENS25_IS1W_EENS25_INS1V_5AudioEEENS25_INS1V_8ConfettiEEENS25_INS1V_5EmoteEEENS25_INS1V_4FileEEENS25_INS1V_5ImageEEENS25_INS1V_6NoticeEEENS25_INS1V_4TextEEENS25_INS1V_5VideoEEENS25_INS1V_22KeyVerificationRequestEEENS25_INS1V_20KeyVerificationStartEEENS25_INS1V_20KeyVerificationReadyEEENS25_INS1V_19KeyVerificationDoneEEENS25_INS1V_21KeyVerificationAcceptEEENS25_INS1V_21KeyVerificationCancelEEENS25_INS1V_18KeyVerificationKeyEEENS25_INS1V_18KeyVerificationMacEEENS25_INSJ_4voip14CallCandidatesEEENS25_INS35_10CallInviteEEENS25_INS35_10CallAnswerEEENS25_INS35_10CallHangUpEEENS25_INS35_16CallSelectAnswerEEENS25_INS35_10CallRejectEEENS25_INS35_13CallNegotiateEEENS25_INSJ_7UnknownEEEEESaIS3M_EE
libmatrix_client.so.0.9.2:_ZN3mtx9responses5utils30parse_room_account_data_eventsERKN8nlohmann16json_abi_v3_11_310basic_jsonISt3mapSt6vectorNSt7__cxx1112basic_stringIcSt11char_traitsIcESaIcEEEblmdSaNS3_14adl_serializerES6_IhSaIhEEvEERS6_ISt7variantIJNS_6events14EphemeralEventINSK_12account_data4TagsEEENSL_INSM_6DirectEEENSL_INSM_9FullyReadEEENSL_INS_9pushrules13GlobalRulesetEEENSL_INSM_16nheko_extensions12HiddenEventsEEENSL_INSK_7msc25459ImagePackEEENSL_INSZ_14ImagePackRoomsEEENSL_INSK_7UnknownEEEEESaIS16_EE
libmatrix_client.so.0.9.2:_ZN3mtx9responses5utils9log_errorERKNSt7__cxx1112basic_stringIcSt11char_traitsIcESaIcEEERKN8nlohmann16json_abi_v3_11_310basic_jsonISt3mapSt6vectorS7_blmdSaNSB_14adl_serializerESE_IhSaIhEEvEE
libmatrix_client.so.0.9.2:_ZN3mtx9responses5utils9log_errorERSt9exceptionRKN8nlohmann16json_abi_v3_11_310basic_jsonISt3mapSt6vectorNSt7__cxx1112basic_stringIcSt11char_traitsIcESaIcEEEblmdSaNS5_14adl_serializerES8_IhSaIhEEvEE
libmatrix_client.so.0.9.2:_ZN3mtx9responses6backup7to_jsonERN8nlohmann16json_abi_v3_11_310basic_jsonISt3mapSt6vectorNSt7__cxx1112basic_stringIcSt11char_traitsIcESaIcEEEblmdSaNS3_14adl_serializerES6_IhSaIhEEvEERKNS1_10KeysBackupE
libmatrix_client.so.0.9.2:_ZN3mtx9responses6backup7to_jsonERN8nlohmann16json_abi_v3_11_310basic_jsonISt3mapSt6vectorNSt7__cxx1112basic_stringIcSt11char_traitsIcESaIcEEEblmdSaNS3_14adl_serializerES6_IhSaIhEEvEERKNS1_11SessionDataE
libmatrix_client.so.0.9.2:_ZN3mtx9responses6backup7to_jsonERN8nlohmann16json_abi_v3_11_310basic_jsonISt3mapSt6vectorNSt7__cxx1112basic_stringIcSt11char_traitsIcESaIcEEEblmdSaNS3_14adl_serializerES6_IhSaIhEEvEERKNS1_13BackupVersionE
libmatrix_client.so.0.9.2:_ZN3mtx9responses6backup7to_jsonERN8nlohmann16json_abi_v3_11_310basic_jsonISt3mapSt6vectorNSt7__cxx1112basic_stringIcSt11char_traitsIcESaIcEEEblmdSaNS3_14adl_serializerES6_IhSaIhEEvEERKNS1_13SessionBackupE
libmatrix_client.so.0.9.2:_ZN3mtx9responses6backup7to_jsonERN8nlohmann16json_abi_v3_11_310basic_jsonISt3mapSt6vectorNSt7__cxx1112basic_stringIcSt11char_traitsIcESaIcEEEblmdSaNS3_14adl_serializerES6_IhSaIhEEvEERKNS1_14RoomKeysBackupE
libmatrix_client.so.0.9.2:_ZN3mtx9responses6backup7to_jsonERN8nlohmann16json_abi_v3_11_310basic_jsonISt3mapSt6vectorNSt7__cxx1112basic_stringIcSt11char_traitsIcESaIcEEEblmdSaNS3_14adl_serializerES6_IhSaIhEEvEERKNS1_20EncryptedSessionDataE
libmatrix_client.so.0.9.2:_ZN3mtx9responses6backup9from_jsonERKN8nlohmann16json_abi_v3_11_310basic_jsonISt3mapSt6vectorNSt7__cxx1112basic_stringIcSt11char_traitsIcESaIcEEEblmdSaNS3_14adl_serializerES6_IhSaIhEEvEERNS1_10KeysBackupE
libmatrix_client.so.0.9.2:_ZN3mtx9responses6backup9from_jsonERKN8nlohmann16json_abi_v3_11_310basic_jsonISt3mapSt6vectorNSt7__cxx1112basic_stringIcSt11char_traitsIcESaIcEEEblmdSaNS3_14adl_serializerES6_IhSaIhEEvEERNS1_11SessionDataE
libmatrix_client.so.0.9.2:_ZN3mtx9responses6backup9from_jsonERKN8nlohmann16json_abi_v3_11_310basic_jsonISt3mapSt6vectorNSt7__cxx1112basic_stringIcSt11char_traitsIcESaIcEEEblmdSaNS3_14adl_serializerES6_IhSaIhEEvEERNS1_13BackupVersionE
libmatrix_client.so.0.9.2:_ZN3mtx9responses6backup9from_jsonERKN8nlohmann16json_abi_v3_11_310basic_jsonISt3mapSt6vectorNSt7__cxx1112basic_stringIcSt11char_traitsIcESaIcEEEblmdSaNS3_14adl_serializerES6_IhSaIhEEvEERNS1_13SessionBackupE
libmatrix_client.so.0.9.2:_ZN3mtx9responses6backup9from_jsonERKN8nlohmann16json_abi_v3_11_310basic_jsonISt3mapSt6vectorNSt7__cxx1112basic_stringIcSt11char_traitsIcESaIcEEEblmdSaNS3_14adl_serializerES6_IhSaIhEEvEERNS1_14RoomKeysBackupE
libmatrix_client.so.0.9.2:_ZN3mtx9responses6backup9from_jsonERKN8nlohmann16json_abi_v3_11_310basic_jsonISt3mapSt6vectorNSt7__cxx1112basic_stringIcSt11char_traitsIcESaIcEEEblmdSaNS3_14adl_serializerES6_IhSaIhEEvEERNS1_20EncryptedSessionDataE
libmatrix_client.so.0.9.2:_ZN3mtx9responses7to_jsonERN8nlohmann16json_abi_v3_11_310basic_jsonISt3mapSt6vectorNSt7__cxx1112basic_stringIcSt11char_traitsIcESaIcEEEblmdSaNS2_14adl_serializerES5_IhSaIhEEvEERKNS0_12NotificationE
libmatrix_client.so.0.9.2:_ZN3mtx9responses7to_jsonERN8nlohmann16json_abi_v3_11_310basic_jsonISt3mapSt6vectorNSt7__cxx1112basic_stringIcSt11char_traitsIcESaIcEEEblmdSaNS2_14adl_serializerES5_IhSaIhEEvEERKNS0_13NotificationsE
libmatrix_client.so.0.9.2:_ZN3mtx9responses7to_jsonERN8nlohmann16json_abi_v3_11_310basic_jsonISt3mapSt6vectorNSt7__cxx1112basic_stringIcSt11char_traitsIcESaIcEEEblmdSaNS2_14adl_serializerES5_IhSaIhEEvEERKNS0_9QueryKeysE
libmatrix_client.so.0.9.2:_ZN3mtx9responses9from_jsonERKN8nlohmann16json_abi_v3_11_310basic_jsonISt3mapSt6vectorNSt7__cxx1112basic_stringIcSt11char_traitsIcESaIcEEEblmdSaNS2_14adl_serializerES5_IhSaIhEEvEERNS0_10ContentURIE
libmatrix_client.so.0.9.2:_ZN3mtx9responses9from_jsonERKN8nlohmann16json_abi_v3_11_310basic_jsonISt3mapSt6vectorNSt7__cxx1112basic_stringIcSt11char_traitsIcESaIcEEEblmdSaNS2_14adl_serializerES5_IhSaIhEEvEERNS0_10CreateRoomE
libmatrix_client.so.0.9.2:_ZN3mtx9responses9from_jsonERKN8nlohmann16json_abi_v3_11_310basic_jsonISt3mapSt6vectorNSt7__cxx1112basic_stringIcSt11char_traitsIcESaIcEEEblmdSaNS2_14adl_serializerES5_IhSaIhEEvEERNS0_10JoinedRoomE
libmatrix_client.so.0.9.2:_ZN3mtx9responses9from_jsonERKN8nlohmann16json_abi_v3_11_310basic_jsonISt3mapSt6vectorNSt7__cxx1112basic_stringIcSt11char_traitsIcESaIcEEEblmdSaNS2_14adl_serializerES5_IhSaIhEEvEERNS0_10KeyChangesE
libmatrix_client.so.0.9.2:_ZN3mtx9responses9from_jsonERKN8nlohmann16json_abi_v3_11_310basic_jsonISt3mapSt6vectorNSt7__cxx1112basic_stringIcSt11char_traitsIcESaIcEEEblmdSaNS2_14adl_serializerES5_IhSaIhEEvEERNS0_10LoginFlowsE
libmatrix_client.so.0.9.2:_ZN3mtx9responses9from_jsonERKN8nlohmann16json_abi_v3_11_310basic_jsonISt3mapSt6vectorNSt7__cxx1112basic_stringIcSt11char_traitsIcESaIcEEEblmdSaNS2_14adl_serializerES5_IhSaIhEEvEERNS0_10TurnServerE
libmatrix_client.so.0.9.2:_ZN3mtx9responses9from_jsonERKN8nlohmann16json_abi_v3_11_310basic_jsonISt3mapSt6vectorNSt7__cxx1112basic_stringIcSt11char_traitsIcESaIcEEEblmdSaNS2_14adl_serializerES5_IhSaIhEEvEERNS0_10UploadKeysE
libmatrix_client.so.0.9.2:_ZN3mtx9responses9from_jsonERKN8nlohmann16json_abi_v3_11_310basic_jsonISt3mapSt6vectorNSt7__cxx1112basic_stringIcSt11char_traitsIcESaIcEEEblmdSaNS2_14adl_serializerES5_IhSaIhEEvEERNS0_11AccountDataE
libmatrix_client.so.0.9.2:_ZN3mtx9responses9from_jsonERKN8nlohmann16json_abi_v3_11_310basic_jsonISt3mapSt6vectorNSt7__cxx1112basic_stringIcSt11char_traitsIcESaIcEEEblmdSaNS2_14adl_serializerES5_IhSaIhEEvEERNS0_11DeviceListsE
libmatrix_client.so.0.9.2:_ZN3mtx9responses9from_jsonERKN8nlohmann16json_abi_v3_11_310basic_jsonISt3mapSt6vectorNSt7__cxx1112basic_stringIcSt11char_traitsIcESaIcEEEblmdSaNS2_14adl_serializerES5_IhSaIhEEvEERNS0_11InvitedRoomE
libmatrix_client.so.0.9.2:_ZN3mtx9responses9from_jsonERKN8nlohmann16json_abi_v3_11_310basic_jsonISt3mapSt6vectorNSt7__cxx1112basic_stringIcSt11char_traitsIcESaIcEEEblmdSaNS2_14adl_serializerES5_IhSaIhEEvEERNS0_11KnockedRoomE
libmatrix_client.so.0.9.2:_ZN3mtx9responses9from_jsonERKN8nlohmann16json_abi_v3_11_310basic_jsonISt3mapSt6vectorNSt7__cxx1112basic_stringIcSt11char_traitsIcESaIcEEEblmdSaNS2_14adl_serializerES5_IhSaIhEEvEERNS0_11PublicRoomsE
libmatrix_client.so.0.9.2:_ZN3mtx9responses9from_jsonERKN8nlohmann16json_abi_v3_11_310basic_jsonISt3mapSt6vectorNSt7__cxx1112basic_stringIcSt11char_traitsIcESaIcEEEblmdSaNS2_14adl_serializerES5_IhSaIhEEvEERNS0_11StateEventsE
libmatrix_client.so.0.9.2:_ZN3mtx9responses9from_jsonERKN8nlohmann16json_abi_v3_11_310basic_jsonISt3mapSt6vectorNSt7__cxx1112basic_stringIcSt11char_traitsIcESaIcEEEblmdSaNS2_14adl_serializerES5_IhSaIhEEvEERNS0_12NotificationE
libmatrix_client.so.0.9.2:_ZN3mtx9responses9from_jsonERKN8nlohmann16json_abi_v3_11_310basic_jsonISt3mapSt6vectorNSt7__cxx1112basic_stringIcSt11char_traitsIcESaIcEEEblmdSaNS2_14adl_serializerES5_IhSaIhEEvEERNS0_12QueryDevicesE
libmatrix_client.so.0.9.2:_ZN3mtx9responses9from_jsonERKN8nlohmann16json_abi_v3_11_310basic_jsonISt3mapSt6vectorNSt7__cxx1112basic_stringIcSt11char_traitsIcESaIcEEEblmdSaNS2_14adl_serializerES5_IhSaIhEEvEERNS0_12RequestTokenE
libmatrix_client.so.0.9.2:_ZN3mtx9responses9from_jsonERKN8nlohmann16json_abi_v3_11_310basic_jsonISt3mapSt6vectorNSt7__cxx1112basic_stringIcSt11char_traitsIcESaIcEEEblmdSaNS2_14adl_serializerES5_IhSaIhEEvEERNS0_13NotificationsE
libmatrix_client.so.0.9.2:_ZN3mtx9responses9from_jsonERKN8nlohmann16json_abi_v3_11_310basic_jsonISt3mapSt6vectorNSt7__cxx1112basic_stringIcSt11char_traitsIcESaIcEEEblmdSaNS2_14adl_serializerES5_IhSaIhEEvEERNS0_14HierarchyRoomsE
libmatrix_client.so.0.9.2:_ZN3mtx9responses9from_jsonERKN8nlohmann16json_abi_v3_11_310basic_jsonISt3mapSt6vectorNSt7__cxx1112basic_stringIcSt11char_traitsIcESaIcEEEblmdSaNS2_14adl_serializerES5_IhSaIhEEvEERNS0_16IdentityProviderE
libmatrix_client.so.0.9.2:_ZN3mtx9responses9from_jsonERKN8nlohmann16json_abi_v3_11_310basic_jsonISt3mapSt6vectorNSt7__cxx1112basic_stringIcSt11char_traitsIcESaIcEEEblmdSaNS2_14adl_serializerES5_IhSaIhEEvEERNS0_16PublicRoomsChunkE
libmatrix_client.so.0.9.2:_ZN3mtx9responses9from_jsonERKN8nlohmann16json_abi_v3_11_310basic_jsonISt3mapSt6vectorNSt7__cxx1112basic_stringIcSt11char_traitsIcESaIcEEEblmdSaNS2_14adl_serializerES5_IhSaIhEEvEERNS0_17ServerInformationE
libmatrix_client.so.0.9.2:_ZN3mtx9responses9from_jsonERKN8nlohmann16json_abi_v3_11_310basic_jsonISt3mapSt6vectorNSt7__cxx1112basic_stringIcSt11char_traitsIcESaIcEEEblmdSaNS2_14adl_serializerES5_IhSaIhEEvEERNS0_19KeySignaturesUploadE
libmatrix_client.so.0.9.2:_ZN3mtx9responses9from_jsonERKN8nlohmann16json_abi_v3_11_310basic_jsonISt3mapSt6vectorNSt7__cxx1112basic_stringIcSt11char_traitsIcESaIcEEEblmdSaNS2_14adl_serializerES5_IhSaIhEEvEERNS0_19UnreadNotificationsE
libmatrix_client.so.0.9.2:_ZN3mtx9responses9from_jsonERKN8nlohmann16json_abi_v3_11_310basic_jsonISt3mapSt6vectorNSt7__cxx1112basic_stringIcSt11char_traitsIcESaIcEEEblmdSaNS2_14adl_serializerES5_IhSaIhEEvEERNS0_20PublicRoomVisibilityE
libmatrix_client.so.0.9.2:_ZN3mtx9responses9from_jsonERKN8nlohmann16json_abi_v3_11_310basic_jsonISt3mapSt6vectorNSt7__cxx1112basic_stringIcSt11char_traitsIcESaIcEEEblmdSaNS2_14adl_serializerES5_IhSaIhEEvEERNS0_25RegistrationTokenValidityE
libmatrix_client.so.0.9.2:_ZN3mtx9responses9from_jsonERKN8nlohmann16json_abi_v3_11_310basic_jsonISt3mapSt6vectorNSt7__cxx1112basic_stringIcSt11char_traitsIcESaIcEEEblmdSaNS2_14adl_serializerES5_IhSaIhEEvEERNS0_4SyncE
libmatrix_client.so.0.9.2:_ZN3mtx9responses9from_jsonERKN8nlohmann16json_abi_v3_11_310basic_jsonISt3mapSt6vectorNSt7__cxx1112basic_stringIcSt11char_traitsIcESaIcEEEblmdSaNS2_14adl_serializerES5_IhSaIhEEvEERNS0_4UserE
libmatrix_client.so.0.9.2:_ZN3mtx9responses9from_jsonERKN8nlohmann16json_abi_v3_11_310basic_jsonISt3mapSt6vectorNSt7__cxx1112basic_stringIcSt11char_traitsIcESaIcEEEblmdSaNS2_14adl_serializerES5_IhSaIhEEvEERNS0_5EmptyE
libmatrix_client.so.0.9.2:_ZN3mtx9responses9from_jsonERKN8nlohmann16json_abi_v3_11_310basic_jsonISt3mapSt6vectorNSt7__cxx1112basic_stringIcSt11char_traitsIcESaIcEEEblmdSaNS2_14adl_serializerES5_IhSaIhEEvEERNS0_5LoginE
libmatrix_client.so.0.9.2:_ZN3mtx9responses9from_jsonERKN8nlohmann16json_abi_v3_11_310basic_jsonISt3mapSt6vectorNSt7__cxx1112basic_stringIcSt11char_traitsIcESaIcEEEblmdSaNS2_14adl_serializerES5_IhSaIhEEvEERNS0_5RoomsE
libmatrix_client.so.0.9.2:_ZN3mtx9responses9from_jsonERKN8nlohmann16json_abi_v3_11_310basic_jsonISt3mapSt6vectorNSt7__cxx1112basic_stringIcSt11char_traitsIcESaIcEEEblmdSaNS2_14adl_serializerES5_IhSaIhEEvEERNS0_5StateE
libmatrix_client.so.0.9.2:_ZN3mtx9responses9from_jsonERKN8nlohmann16json_abi_v3_11_310basic_jsonISt3mapSt6vectorNSt7__cxx1112basic_stringIcSt11char_traitsIcESaIcEEEblmdSaNS2_14adl_serializerES5_IhSaIhEEvEERNS0_5UsersE
libmatrix_client.so.0.9.2:_ZN3mtx9responses9from_jsonERKN8nlohmann16json_abi_v3_11_310basic_jsonISt3mapSt6vectorNSt7__cxx1112basic_stringIcSt11char_traitsIcESaIcEEEblmdSaNS2_14adl_serializerES5_IhSaIhEEvEERNS0_6DeviceE
libmatrix_client.so.0.9.2:_ZN3mtx9responses9from_jsonERKN8nlohmann16json_abi_v3_11_310basic_jsonISt3mapSt6vectorNSt7__cxx1112basic_stringIcSt11char_traitsIcESaIcEEEblmdSaNS2_14adl_serializerES5_IhSaIhEEvEERNS0_6RoomIdE
libmatrix_client.so.0.9.2:_ZN3mtx9responses9from_jsonERKN8nlohmann16json_abi_v3_11_310basic_jsonISt3mapSt6vectorNSt7__cxx1112basic_stringIcSt11char_traitsIcESaIcEEEblmdSaNS2_14adl_serializerES5_IhSaIhEEvEERNS0_7AliasesE
libmatrix_client.so.0.9.2:_ZN3mtx9responses9from_jsonERKN8nlohmann16json_abi_v3_11_310basic_jsonISt3mapSt6vectorNSt7__cxx1112basic_stringIcSt11char_traitsIcESaIcEEEblmdSaNS2_14adl_serializerES5_IhSaIhEEvEERNS0_7EventIdE
libmatrix_client.so.0.9.2:_ZN3mtx9responses9from_jsonERKN8nlohmann16json_abi_v3_11_310basic_jsonISt3mapSt6vectorNSt7__cxx1112basic_stringIcSt11char_traitsIcESaIcEEEblmdSaNS2_14adl_serializerES5_IhSaIhEEvEERNS0_7MembersE
libmatrix_client.so.0.9.2:_ZN3mtx9responses9from_jsonERKN8nlohmann16json_abi_v3_11_310basic_jsonISt3mapSt6vectorNSt7__cxx1112basic_stringIcSt11char_traitsIcESaIcEEEblmdSaNS2_14adl_serializerES5_IhSaIhEEvEERNS0_7ProfileE
libmatrix_client.so.0.9.2:_ZN3mtx9responses9from_jsonERKN8nlohmann16json_abi_v3_11_310basic_jsonISt3mapSt6vectorNSt7__cxx1112basic_stringIcSt11char_traitsIcESaIcEEEblmdSaNS2_14adl_serializerES5_IhSaIhEEvEERNS0_7SuccessE
libmatrix_client.so.0.9.2:_ZN3mtx9responses9from_jsonERKN8nlohmann16json_abi_v3_11_310basic_jsonISt3mapSt6vectorNSt7__cxx1112basic_stringIcSt11char_traitsIcESaIcEEEblmdSaNS2_14adl_serializerES5_IhSaIhEEvEERNS0_7VersionE
libmatrix_client.so.0.9.2:_ZN3mtx9responses9from_jsonERKN8nlohmann16json_abi_v3_11_310basic_jsonISt3mapSt6vectorNSt7__cxx1112basic_stringIcSt11char_traitsIcESaIcEEEblmdSaNS2_14adl_serializerES5_IhSaIhEEvEERNS0_8FilterIdE
libmatrix_client.so.0.9.2:_ZN3mtx9responses9from_jsonERKN8nlohmann16json_abi_v3_11_310basic_jsonISt3mapSt6vectorNSt7__cxx1112basic_stringIcSt11char_traitsIcESaIcEEEblmdSaNS2_14adl_serializerES5_IhSaIhEEvEERNS0_8LeftRoomE
libmatrix_client.so.0.9.2:_ZN3mtx9responses9from_jsonERKN8nlohmann16json_abi_v3_11_310basic_jsonISt3mapSt6vectorNSt7__cxx1112basic_stringIcSt11char_traitsIcESaIcEEEblmdSaNS2_14adl_serializerES5_IhSaIhEEvEERNS0_8MessagesE
libmatrix_client.so.0.9.2:_ZN3mtx9responses9from_jsonERKN8nlohmann16json_abi_v3_11_310basic_jsonISt3mapSt6vectorNSt7__cxx1112basic_stringIcSt11char_traitsIcESaIcEEEblmdSaNS2_14adl_serializerES5_IhSaIhEEvEERNS0_8RegisterE
libmatrix_client.so.0.9.2:_ZN3mtx9responses9from_jsonERKN8nlohmann16json_abi_v3_11_310basic_jsonISt3mapSt6vectorNSt7__cxx1112basic_stringIcSt11char_traitsIcESaIcEEEblmdSaNS2_14adl_serializerES5_IhSaIhEEvEERNS0_8TimelineE
libmatrix_client.so.0.9.2:_ZN3mtx9responses9from_jsonERKN8nlohmann16json_abi_v3_11_310basic_jsonISt3mapSt6vectorNSt7__cxx1112basic_stringIcSt11char_traitsIcESaIcEEEblmdSaNS2_14adl_serializerES5_IhSaIhEEvEERNS0_8ToDeviceE
libmatrix_client.so.0.9.2:_ZN3mtx9responses9from_jsonERKN8nlohmann16json_abi_v3_11_310basic_jsonISt3mapSt6vectorNSt7__cxx1112basic_stringIcSt11char_traitsIcESaIcEEEblmdSaNS2_14adl_serializerES5_IhSaIhEEvEERNS0_8VersionsE
libmatrix_client.so.0.9.2:_ZN3mtx9responses9from_jsonERKN8nlohmann16json_abi_v3_11_310basic_jsonISt3mapSt6vectorNSt7__cxx1112basic_stringIcSt11char_traitsIcESaIcEEEblmdSaNS2_14adl_serializerES5_IhSaIhEEvEERNS0_9AvailableE
libmatrix_client.so.0.9.2:_ZN3mtx9responses9from_jsonERKN8nlohmann16json_abi_v3_11_310basic_jsonISt3mapSt6vectorNSt7__cxx1112basic_stringIcSt11char_traitsIcESaIcEEEblmdSaNS2_14adl_serializerES5_IhSaIhEEvEERNS0_9AvatarUrlE
libmatrix_client.so.0.9.2:_ZN3mtx9responses9from_jsonERKN8nlohmann16json_abi_v3_11_310basic_jsonISt3mapSt6vectorNSt7__cxx1112basic_stringIcSt11char_traitsIcESaIcEEEblmdSaNS2_14adl_serializerES5_IhSaIhEEvEERNS0_9ClaimKeysE
libmatrix_client.so.0.9.2:_ZN3mtx9responses9from_jsonERKN8nlohmann16json_abi_v3_11_310basic_jsonISt3mapSt6vectorNSt7__cxx1112basic_stringIcSt11char_traitsIcESaIcEEEblmdSaNS2_14adl_serializerES5_IhSaIhEEvEERNS0_9EphemeralE
libmatrix_client.so.0.9.2:_ZN3mtx9responses9from_jsonERKN8nlohmann16json_abi_v3_11_310basic_jsonISt3mapSt6vectorNSt7__cxx1112basic_stringIcSt11char_traitsIcESaIcEEEblmdSaNS2_14adl_serializerES5_IhSaIhEEvEERNS0_9LoginFlowE
libmatrix_client.so.0.9.2:_ZN3mtx9responses9from_jsonERKN8nlohmann16json_abi_v3_11_310basic_jsonISt3mapSt6vectorNSt7__cxx1112basic_stringIcSt11char_traitsIcESaIcEEEblmdSaNS2_14adl_serializerES5_IhSaIhEEvEERNS0_9QueryKeysE
libmatrix_client.so.0.9.2:_ZN3mtx9responses9from_jsonERKN8nlohmann16json_abi_v3_11_310basic_jsonISt3mapSt6vectorNSt7__cxx1112basic_stringIcSt11char_traitsIcESaIcEEEblmdSaNS2_14adl_serializerES5_IhSaIhEEvEERNS0_9WellKnownE
libmatrix_client.so.0.9.2:_ZNK3mtx4http10UIAHandler4nextERKNS_16user_interactive4AuthE
libmatrix_client.so.0.9.2:_ZNK3mtx4http11ClientError17error_code_stringEv
libmatrix_client.so.0.9.2:_ZNK3mtx6common9Relations10referencesB5cxx11Eb
libmatrix_client.so.0.9.2:_ZNK3mtx6common9Relations6threadB5cxx11Eb
libmatrix_client.so.0.9.2:_ZNK3mtx6common9Relations8replacesB5cxx11Eb
libmatrix_client.so.0.9.2:_ZNK3mtx6common9Relations8reply_toB5cxx11Eb
libmatrix_client.so.0.9.2:_ZNK3mtx6common9Relations9annotatesEb
libmatrix_client.so.0.9.2:_ZNK3mtx6crypto9OlmClient12sign_messageERKNSt7__cxx1112basic_stringIcSt11char_traitsIcESaIcEEE
libmatrix_client.so.0.9.2:_ZNK3mtx6crypto9OlmClient13identity_keysEv
libmatrix_client.so.0.9.2:_ZNK3mtx9pushrules17PushRuleEvaluator8evaluateERKNS_6events11collections13TimelineEventERKNS1_11RoomContextERKSt6vectorISt4pairINS_6common8RelationES4_ESaISE_EE
libmatrix_client.so.0.9.2:_ZNK3mtx9responses11InvitedRoom4nameB5cxx11Ev
libmatrix_client.so.0.9.2:_ZNK3mtx9responses11InvitedRoom6avatarB5cxx11Ev
