librtmidi.so.7:_Z12rtmidi_errorP7MidiApi15RtMidiErrorTypePKc
librtmidi.so.7:_Z8portInfoP8_snd_seqP18_snd_seq_port_infoji
librtmidi.so.7:_ZN10MidiInAlsa10initializeERKNSt7__cxx1112basic_stringIcSt11char_traitsIcESaIcEEE
librtmidi.so.7:_ZN10MidiInAlsa11getPortNameB5cxx11Ej
librtmidi.so.7:_ZN10MidiInAlsa11setPortNameERKNSt7__cxx1112basic_stringIcSt11char_traitsIcESaIcEEE
librtmidi.so.7:_ZN10MidiInAlsa12getPortCountEv
librtmidi.so.7:_ZN10MidiInAlsa13setClientNameERKNSt7__cxx1112basic_stringIcSt11char_traitsIcESaIcEEE
librtmidi.so.7:_ZN10MidiInAlsa15openVirtualPortERKNSt7__cxx1112basic_stringIcSt11char_traitsIcESaIcEEE
librtmidi.so.7:_ZN10MidiInAlsa8openPortEjRKNSt7__cxx1112basic_stringIcSt11char_traitsIcESaIcEEE
librtmidi.so.7:_ZN10MidiInAlsa9closePortEv
librtmidi.so.7:_ZN10MidiInAlsaC1ERKNSt7__cxx1112basic_stringIcSt11char_traitsIcESaIcEEEj
librtmidi.so.7:_ZN10MidiInAlsaC2ERKNSt7__cxx1112basic_stringIcSt11char_traitsIcESaIcEEEj
librtmidi.so.7:_ZN10MidiInAlsaD0Ev
librtmidi.so.7:_ZN10MidiInAlsaD1Ev
librtmidi.so.7:_ZN10MidiInAlsaD2Ev
librtmidi.so.7:_ZN10MidiOutApiC1Ev
librtmidi.so.7:_ZN10MidiOutApiC2Ev
librtmidi.so.7:_ZN10MidiOutApiD0Ev
librtmidi.so.7:_ZN10MidiOutApiD1Ev
librtmidi.so.7:_ZN10MidiOutApiD2Ev
librtmidi.so.7:_ZN11MidiOutAlsa10initializeERKNSt7__cxx1112basic_stringIcSt11char_traitsIcESaIcEEE
librtmidi.so.7:_ZN11MidiOutAlsa11getPortNameB5cxx11Ej
librtmidi.so.7:_ZN11MidiOutAlsa11sendMessageEPKhm
librtmidi.so.7:_ZN11MidiOutAlsa11setPortNameERKNSt7__cxx1112basic_stringIcSt11char_traitsIcESaIcEEE
librtmidi.so.7:_ZN11MidiOutAlsa12getPortCountEv
librtmidi.so.7:_ZN11MidiOutAlsa13setClientNameERKNSt7__cxx1112basic_stringIcSt11char_traitsIcESaIcEEE
librtmidi.so.7:_ZN11MidiOutAlsa15openVirtualPortERKNSt7__cxx1112basic_stringIcSt11char_traitsIcESaIcEEE
librtmidi.so.7:_ZN11MidiOutAlsa8openPortEjRKNSt7__cxx1112basic_stringIcSt11char_traitsIcESaIcEEE
librtmidi.so.7:_ZN11MidiOutAlsa9closePortEv
librtmidi.so.7:_ZN11MidiOutAlsaC1ERKNSt7__cxx1112basic_stringIcSt11char_traitsIcESaIcEEE
librtmidi.so.7:_ZN11MidiOutAlsaC2ERKNSt7__cxx1112basic_stringIcSt11char_traitsIcESaIcEEE
librtmidi.so.7:_ZN11MidiOutAlsaD0Ev
librtmidi.so.7:_ZN11MidiOutAlsaD1Ev
librtmidi.so.7:_ZN11MidiOutAlsaD2Ev
librtmidi.so.7:_ZN6RtMidi10getApiNameB5cxx11ENS_3ApiE
librtmidi.so.7:_ZN6RtMidi10getVersionB5cxx11Ev
librtmidi.so.7:_ZN6RtMidi11setPortNameERKNSt7__cxx1112basic_stringIcSt11char_traitsIcESaIcEEE
librtmidi.so.7:_ZN6RtMidi13setClientNameERKNSt7__cxx1112basic_stringIcSt11char_traitsIcESaIcEEE
librtmidi.so.7:_ZN6RtMidi14getCompiledApiERSt6vectorINS_3ApiESaIS1_EE
librtmidi.so.7:_ZN6RtMidi17getApiDisplayNameB5cxx11ENS_3ApiE
librtmidi.so.7:_ZN6RtMidi20getCompiledApiByNameERKNSt7__cxx1112basic_stringIcSt11char_traitsIcESaIcEEE
librtmidi.so.7:_ZN6RtMidiC1EOS_
librtmidi.so.7:_ZN6RtMidiC1Ev
librtmidi.so.7:_ZN6RtMidiC2EOS_
librtmidi.so.7:_ZN6RtMidiC2Ev
librtmidi.so.7:_ZN6RtMidiD0Ev
librtmidi.so.7:_ZN6RtMidiD1Ev
librtmidi.so.7:_ZN6RtMidiD2Ev
librtmidi.so.7:_ZN7MidiApi16setErrorCallbackEPFvN11RtMidiError4TypeERKNSt7__cxx1112basic_stringIcSt11char_traitsIcESaIcEEEPvESA_
librtmidi.so.7:_ZN7MidiApi5errorEN11RtMidiError4TypeENSt7__cxx1112basic_stringIcSt11char_traitsIcESaIcEEE
librtmidi.so.7:_ZN7MidiApiC1Ev
librtmidi.so.7:_ZN7MidiApiC2Ev
librtmidi.so.7:_ZN7MidiApiD0Ev
librtmidi.so.7:_ZN7MidiApiD1Ev
librtmidi.so.7:_ZN7MidiApiD2Ev
librtmidi.so.7:_ZN8RtMidiIn11openMidiApiEN6RtMidi3ApiERKNSt7__cxx1112basic_stringIcSt11char_traitsIcESaIcEEEj
librtmidi.so.7:_ZN8RtMidiInC1EN6RtMidi3ApiERKNSt7__cxx1112basic_stringIcSt11char_traitsIcESaIcEEEj
librtmidi.so.7:_ZN8RtMidiInC2EN6RtMidi3ApiERKNSt7__cxx1112basic_stringIcSt11char_traitsIcESaIcEEEj
librtmidi.so.7:_ZN8RtMidiInD0Ev
librtmidi.so.7:_ZN8RtMidiInD1Ev
librtmidi.so.7:_ZN8RtMidiInD2Ev
librtmidi.so.7:_ZN9MidiInApi10getMessageEPSt6vectorIhSaIhEE
librtmidi.so.7:_ZN9MidiInApi11ignoreTypesEbbb
librtmidi.so.7:_ZN9MidiInApi11setCallbackEPFvdPSt6vectorIhSaIhEEPvES4_
librtmidi.so.7:_ZN9MidiInApi13setBufferSizeEjj
librtmidi.so.7:_ZN9MidiInApi14cancelCallbackEv
librtmidi.so.7:_ZN9MidiInApi9MidiQueue3popEPSt6vectorIhSaIhEEPd
librtmidi.so.7:_ZN9MidiInApi9MidiQueue4pushERKNS_11MidiMessageE
librtmidi.so.7:_ZN9MidiInApi9MidiQueue4sizeEPjS1_
librtmidi.so.7:_ZN9MidiInApiC1Ej
librtmidi.so.7:_ZN9MidiInApiC2Ej
librtmidi.so.7:_ZN9MidiInApiD0Ev
librtmidi.so.7:_ZN9MidiInApiD1Ev
librtmidi.so.7:_ZN9MidiInApiD2Ev
librtmidi.so.7:_ZN9RtMidiOut11openMidiApiEN6RtMidi3ApiERKNSt7__cxx1112basic_stringIcSt11char_traitsIcESaIcEEE
librtmidi.so.7:_ZN9RtMidiOutC1EN6RtMidi3ApiERKNSt7__cxx1112basic_stringIcSt11char_traitsIcESaIcEEE
librtmidi.so.7:_ZN9RtMidiOutC2EN6RtMidi3ApiERKNSt7__cxx1112basic_stringIcSt11char_traitsIcESaIcEEE
librtmidi.so.7:_ZN9RtMidiOutD0Ev
librtmidi.so.7:_ZN9RtMidiOutD1Ev
librtmidi.so.7:_ZN9RtMidiOutD2Ev
librtmidi.so.7:rtmidi_api_display_name
librtmidi.so.7:rtmidi_api_name
librtmidi.so.7:rtmidi_api_names
librtmidi.so.7:rtmidi_close_port
librtmidi.so.7:rtmidi_compiled_api_by_name
librtmidi.so.7:rtmidi_compiled_apis
librtmidi.so.7:rtmidi_get_compiled_api
librtmidi.so.7:rtmidi_get_port_count
librtmidi.so.7:rtmidi_get_port_name
librtmidi.so.7:rtmidi_get_version
librtmidi.so.7:rtmidi_in_cancel_callback
librtmidi.so.7:rtmidi_in_create
librtmidi.so.7:rtmidi_in_create_default
librtmidi.so.7:rtmidi_in_free
librtmidi.so.7:rtmidi_in_get_current_api
librtmidi.so.7:rtmidi_in_get_message
librtmidi.so.7:rtmidi_in_ignore_types
librtmidi.so.7:rtmidi_in_set_callback
librtmidi.so.7:rtmidi_num_compiled_apis
librtmidi.so.7:rtmidi_open_port
librtmidi.so.7:rtmidi_open_virtual_port
librtmidi.so.7:rtmidi_out_create
librtmidi.so.7:rtmidi_out_create_default
librtmidi.so.7:rtmidi_out_free
librtmidi.so.7:rtmidi_out_get_current_api
librtmidi.so.7:rtmidi_out_send_message
