dustrac-editor:_IO_stdin_used
dustrac-editor:_Z20qInitResources_iconsv
dustrac-editor:_Z21qInitResources_editorv
dustrac-editor:_Z23qCleanupResources_iconsv
dustrac-editor:_Z24qCleanupResources_editorv
dustrac-editor:_ZN10EditorData10clearRouteEv
dustrac-editor:_ZN10EditorData10clearSceneEv
dustrac-editor:_ZN10EditorData12setActiveRowEj
dustrac-editor:_ZN10EditorData12setTrackDataESt10shared_ptrI9TrackDataE
dustrac-editor:_ZN10EditorData13beginSetRouteEv
dustrac-editor:_ZN10EditorData13loadTrackDataE7QString
dustrac-editor:_ZN10EditorData13saveRedoPointEv
dustrac-editor:_ZN10EditorData13saveTrackDataEv
dustrac-editor:_ZN10EditorData13saveUndoPointEv
dustrac-editor:_ZN10EditorData15addTilesToSceneEv
dustrac-editor:_ZN10EditorData15saveTrackDataAsE7QString
dustrac-editor:_ZN10EditorData15setActiveColumnEj
dustrac-editor:_ZN10EditorData15setCurrentScaleEi
dustrac-editor:_ZN10EditorData17addObjectsToSceneEv
dustrac-editor:_ZN10EditorData17setSelectedObjectEP6Object
dustrac-editor:_ZN10EditorData19removeTileFromSceneESt10shared_ptrI13TrackTileBaseE
dustrac-editor:_ZN10EditorData20removeRouteFromSceneEv
dustrac-editor:_ZN10EditorData20removeTilesFromSceneEv
dustrac-editor:_ZN10EditorData21pushTargetNodeToRouteESt10shared_ptrI14TargetNodeBaseE
dustrac-editor:_ZN10EditorData21setSelectedTargetNodeEP10TargetNode
dustrac-editor:_ZN10EditorData22removeObjectsFromSceneEv
dustrac-editor:_ZN10EditorData23addExistingRouteToSceneEv
dustrac-editor:_ZN10EditorData24pushNewTargetNodeToRouteE7QPointF
dustrac-editor:_ZN10EditorData26removeTargetNodesFromSceneEv
dustrac-editor:_ZN10EditorData4redoEv
dustrac-editor:_ZN10EditorData4undoEv
dustrac-editor:_ZN10EditorData8dadStoreEv
dustrac-editor:_ZN10EditorData9trackDataEv
dustrac-editor:_ZN10EditorDataC1ER8Mediator
dustrac-editor:_ZN10EditorDataC2ER8Mediator
dustrac-editor:_ZN10EditorView10wheelEventEP11QWheelEvent
dustrac-editor:_ZN10EditorView11qt_metacallEN11QMetaObject4CallEiPPv
dustrac-editor:_ZN10EditorView11qt_metacastEPKc
dustrac-editor:_ZN10EditorView11setTileTypeER9TrackTileP7QAction
dustrac-editor:_ZN10EditorView13keyPressEventEP9QKeyEvent
dustrac-editor:_ZN10EditorView14changeTileTypeER9TrackTileP7QAction
dustrac-editor:_ZN10EditorView14mouseMoveEventEP11QMouseEvent
dustrac-editor:_ZN10EditorView15mousePressEventEP11QMouseEvent
dustrac-editor:_ZN10EditorView15setComputerHintEN13TrackTileBase12ComputerHintE
dustrac-editor:_ZN10EditorView15updateSceneRectEv
dustrac-editor:_ZN10EditorView16staticMetaObjectE
dustrac-editor:_ZN10EditorView17mouseReleaseEventEP11QMouseEvent
dustrac-editor:_ZN10EditorView19openTileContextMenuER9TrackTile
dustrac-editor:_ZN10EditorView21handleTileDragReleaseEP11QMouseEvent
dustrac-editor:_ZN10EditorView21openObjectContextMenuEv
dustrac-editor:_ZN10EditorView23handleObjectDragReleaseEP11QMouseEvent
dustrac-editor:_ZN10EditorView25openTargetNodeContextMenuEv
dustrac-editor:_ZN10EditorView27handleLeftButtonClickOnTileER9TrackTile
dustrac-editor:_ZN10EditorView27handleMousePressEventOnTileER11QMouseEventR9TrackTile
dustrac-editor:_ZN10EditorView27handleTargetNodeDragReleaseEP11QMouseEvent
dustrac-editor:_ZN10EditorView28createTileContextMenuActionsEv
dustrac-editor:_ZN10EditorView28handleRightButtonClickOnTileER9TrackTile
dustrac-editor:_ZN10EditorView29handleLeftButtonClickOnObjectER6Object
dustrac-editor:_ZN10EditorView29handleMousePressEventOnObjectER11QMouseEventR6Object
dustrac-editor:_ZN10EditorView30addCurrentToolBarObjectToSceneEv
dustrac-editor:_ZN10EditorView30createObjectContextMenuActionsEv
dustrac-editor:_ZN10EditorView30eraseObjectAtCurrentClickedPosEv
dustrac-editor:_ZN10EditorView30handleRightButtonClickOnObjectER6Object
dustrac-editor:_ZN10EditorView33handleLeftButtonClickOnTargetNodeER10TargetNode
dustrac-editor:_ZN10EditorView33handleMousePressEventOnTargetNodeER11QMouseEventR10TargetNode
dustrac-editor:_ZN10EditorView34createTargetNodeContextMenuActionsEv
dustrac-editor:_ZN10EditorView34handleRightButtonClickOnTargetNodeER10TargetNode
dustrac-editor:_ZN10EditorViewC1ER8Mediator
dustrac-editor:_ZN10EditorViewC2ER8Mediator
dustrac-editor:_ZN10MainWindow10clearRouteEv
dustrac-editor:_ZN10MainWindow10closeEventEP11QCloseEvent
dustrac-editor:_ZN10MainWindow10enableUndoEb
dustrac-editor:_ZN10MainWindow10m_instanceE
dustrac-editor:_ZN10MainWindow10setVisibleEb
dustrac-editor:_ZN10MainWindow11doOpenTrackE7QString
dustrac-editor:_ZN10MainWindow11endSetRouteEv
dustrac-editor:_ZN10MainWindow11qt_metacallEN11QMetaObject4CallEiPPv
dustrac-editor:_ZN10MainWindow11qt_metacastEPKc
dustrac-editor:_ZN10MainWindow11saveAsTrackEv
dustrac-editor:_ZN10MainWindow11updateScaleEi
dustrac-editor:_ZN10MainWindow12openArgTrackEv
dustrac-editor:_ZN10MainWindow12showAboutDlgEv
dustrac-editor:_ZN10MainWindow13beginSetRouteEv
dustrac-editor:_ZN10MainWindow13clearEditModeEv
dustrac-editor:_ZN10MainWindow13createWidgetsEv
dustrac-editor:_ZN10MainWindow14showAboutQtDlgEv
dustrac-editor:_ZN10MainWindow15populateMenuBarEv
dustrac-editor:_ZN10MainWindow15populateToolBarEv
dustrac-editor:_ZN10MainWindow16loadObjectModelsE7QString
dustrac-editor:_ZN10MainWindow16staticMetaObjectE
dustrac-editor:_ZN10MainWindow17updateScaleSliderEi
dustrac-editor:_ZN10MainWindow18initializeNewTrackEv
dustrac-editor:_ZN10MainWindow18setTrackPropertiesEv
dustrac-editor:_ZN10MainWindow19addObjectsToToolBarEv
dustrac-editor:_ZN10MainWindow24handleToolBarActionClickEP7QAction
dustrac-editor:_ZN10MainWindow25setActionStatesOnNewTrackEv
dustrac-editor:_ZN10MainWindow25setupTrackAfterUndoOrRedoEv
dustrac-editor:_ZN10MainWindow4initEv
dustrac-editor:_ZN10MainWindow7consoleE7QString
dustrac-editor:_ZN10MainWindow7showTipEv
dustrac-editor:_ZN10MainWindow8fitScaleEv
dustrac-editor:_ZN10MainWindow8instanceEv
dustrac-editor:_ZN10MainWindow8setTitleE7QString
dustrac-editor:_ZN10MainWindow9openTrackEv
dustrac-editor:_ZN10MainWindow9saveTrackEv
dustrac-editor:_ZN10MainWindowC1E7QString
dustrac-editor:_ZN10MainWindowC2E7QString
dustrac-editor:_ZN10MainWindowD0Ev
dustrac-editor:_ZN10MainWindowD1Ev
dustrac-editor:_ZN10MainWindowD2Ev
dustrac-editor:_ZN10ObjectBase11setLocationE7QPointF
dustrac-editor:_ZN10ObjectBase18setForceStationaryEb
dustrac-editor:_ZN10ObjectBaseC1E7QStringS0_
dustrac-editor:_ZN10ObjectBaseC2E7QStringS0_
dustrac-editor:_ZN10ObjectBaseD0Ev
dustrac-editor:_ZN10ObjectBaseD1Ev
dustrac-editor:_ZN10ObjectBaseD2Ev
dustrac-editor:_ZN10TargetNode11setLocationE7QPointF
dustrac-editor:_ZN10TargetNode12setRouteLineEP17QGraphicsLineItem
dustrac-editor:_ZN10TargetNode15updateRouteLineEv
dustrac-editor:_ZN10TargetNode5paintEP8QPainterPK24QStyleOptionGraphicsItemP7QWidget
dustrac-editor:_ZN10TargetNodeC1ERKS_
dustrac-editor:_ZN10TargetNodeC1Ev
dustrac-editor:_ZN10TargetNodeC2ERKS_
dustrac-editor:_ZN10TargetNodeC2Ev
dustrac-editor:_ZN11Application3runEv
dustrac-editor:_ZN11Application9parseArgsEiPPc
dustrac-editor:_ZN11ApplicationC1ERiPPc
dustrac-editor:_ZN11ApplicationC2ERiPPc
dustrac-editor:_ZN11ApplicationD1Ev
dustrac-editor:_ZN11ApplicationD2Ev
dustrac-editor:_ZN12RotateDialog11qt_metacallEN11QMetaObject4CallEiPPv
dustrac-editor:_ZN12RotateDialog11qt_metacastEPKc
dustrac-editor:_ZN12RotateDialog16staticMetaObjectE
dustrac-editor:_ZN12RotateDialogC1EP7QWidget
dustrac-editor:_ZN12RotateDialogC2EP7QWidget
dustrac-editor:_ZN12TileAnimator10rotate90CWEv
dustrac-editor:_ZN12TileAnimator11qt_metacallEN11QMetaObject4CallEiPPv
dustrac-editor:_ZN12TileAnimator11qt_metacastEPKc
dustrac-editor:_ZN12TileAnimator11rotate90CCWEv
dustrac-editor:_ZN12TileAnimator15setTileRotationEi
dustrac-editor:_ZN12TileAnimator16staticMetaObjectE
dustrac-editor:_ZN12TileAnimatorC1EP9TrackTile
dustrac-editor:_ZN12TileAnimatorC2EP9TrackTile
dustrac-editor:_ZN13ObjectFactory12createObjectE7QString
dustrac-editor:_ZN13TrackDataBase12setUserTrackEb
dustrac-editor:_ZN13TrackDataBase7setNameE7QString
dustrac-editor:_ZN13TrackDataBase8setIndexEj
dustrac-editor:_ZN13TrackDataBaseC1E7QStringb
dustrac-editor:_ZN13TrackDataBaseC1ERKS_
dustrac-editor:_ZN13TrackDataBaseC2E7QStringb
dustrac-editor:_ZN13TrackDataBaseC2ERKS_
dustrac-editor:_ZN13TrackDataBaseD0Ev
dustrac-editor:_ZN13TrackDataBaseD1Ev
dustrac-editor:_ZN13TrackDataBaseD2Ev
dustrac-editor:_ZN13TrackTileBase11setLocationE7QPointF
dustrac-editor:_ZN13TrackTileBase11setTileTypeERK7QString
dustrac-editor:_ZN13TrackTileBase15setComputerHintENS_12ComputerHintE
dustrac-editor:_ZN13TrackTileBase17setMatrixLocationE6QPoint
dustrac-editor:_ZN13TrackTileBase21setExcludeFromMinimapEb
dustrac-editor:_ZN13TrackTileBase5widthEv
dustrac-editor:_ZN13TrackTileBase6heightEv
dustrac-editor:_ZN13TrackTileBaseC1E7QPointF6QPointRK7QString
dustrac-editor:_ZN13TrackTileBaseC2E7QPointF6QPointRK7QString
dustrac-editor:_ZN13TrackTileBaseD0Ev
dustrac-editor:_ZN13TrackTileBaseD1Ev
dustrac-editor:_ZN13TrackTileBaseD2Ev
dustrac-editor:_ZN14NewTrackDialog11qt_metacallEN11QMetaObject4CallEiPPv
dustrac-editor:_ZN14NewTrackDialog11qt_metacastEPKc
dustrac-editor:_ZN14NewTrackDialog12validateDataEv
dustrac-editor:_ZN14NewTrackDialog16staticMetaObjectE
dustrac-editor:_ZN14NewTrackDialogC1EP7QWidget
dustrac-editor:_ZN14NewTrackDialogC2EP7QWidget
dustrac-editor:_ZN14TargetNodeBase11setLocationE7QPointF
dustrac-editor:_ZN14TargetNodeBase7setNextESt10shared_ptrIS_E
dustrac-editor:_ZN14TargetNodeBase7setPrevESt10shared_ptrIS_E
dustrac-editor:_ZN14TargetNodeBase7setSizeE6QSizeF
dustrac-editor:_ZN14TargetNodeBase8setIndexEi
dustrac-editor:_ZN14TargetNodeBaseC1Ev
dustrac-editor:_ZN14TargetNodeBaseC2Ev
dustrac-editor:_ZN16DragAndDropStore20setDragAndDropObjectEP6Object
dustrac-editor:_ZN16DragAndDropStore23setDragAndDropSourcePosE7QPointF
dustrac-editor:_ZN16DragAndDropStore24setDragAndDropSourceTileEP9TrackTile
dustrac-editor:_ZN16DragAndDropStore24setDragAndDropTargetNodeEP10TargetNode
dustrac-editor:_ZN16DragAndDropStore5clearEv
dustrac-editor:_ZN16DragAndDropStoreC1Ev
dustrac-editor:_ZN16DragAndDropStoreC2Ev
dustrac-editor:_ZN17ObjectModelLoader4loadE7QString
dustrac-editor:_ZN17ObjectModelLoaderC1Ev
dustrac-editor:_ZN17ObjectModelLoaderC2Ev
dustrac-editor:_ZN17TargetNodeSizeDlg11qt_metacallEN11QMetaObject4CallEiPPv
dustrac-editor:_ZN17TargetNodeSizeDlg11qt_metacastEPKc
dustrac-editor:_ZN17TargetNodeSizeDlg16staticMetaObjectE
dustrac-editor:_ZN17TargetNodeSizeDlgC1E6QSizeFP7QWidget
dustrac-editor:_ZN17TargetNodeSizeDlgC2E6QSizeFP7QWidget
dustrac-editor:_ZN21TrackPropertiesDialog11qt_metacallEN11QMetaObject4CallEiPPv
dustrac-editor:_ZN21TrackPropertiesDialog11qt_metacastEPKc
dustrac-editor:_ZN21TrackPropertiesDialog16staticMetaObjectE
dustrac-editor:_ZN21TrackPropertiesDialogC1E7QStringjbP7QWidget
dustrac-editor:_ZN21TrackPropertiesDialogC2E7QStringjbP7QWidget
dustrac-editor:_ZN3Map12deleteColumnEm
dustrac-editor:_ZN3Map12insertColumnEmN7MapBase15InsertDirectionE
dustrac-editor:_ZN3Map16createEmptyTilesEv
dustrac-editor:_ZN3Map25moveTilesAfterRowDeletionEm
dustrac-editor:_ZN3Map28moveTilesAfterColumnDeletionEm
dustrac-editor:_ZN3Map6resizeEmm
dustrac-editor:_ZN3Map9copyTilesERKS_
dustrac-editor:_ZN3Map9deleteRowEm
dustrac-editor:_ZN3Map9insertRowEmN7MapBase15InsertDirectionE
dustrac-editor:_ZN3MapC1ERKS_
dustrac-editor:_ZN3MapC1Emm
dustrac-editor:_ZN3MapC2ERKS_
dustrac-editor:_ZN3MapC2Emm
dustrac-editor:_ZN3MapD0Ev
dustrac-editor:_ZN3MapD1Ev
dustrac-editor:_ZN3MapD2Ev
dustrac-editor:_ZN5Route15buildFromVectorERSt6vectorISt10shared_ptrI14TargetNodeBaseESaIS3_EE
dustrac-editor:_ZN5Route3endEv
dustrac-editor:_ZN5Route4pushESt10shared_ptrI14TargetNodeBaseE
dustrac-editor:_ZN5Route5beginEv
dustrac-editor:_ZN5Route5clearEv
dustrac-editor:_ZN5RouteC1Ev
dustrac-editor:_ZN5RouteC2Ev
dustrac-editor:_ZN6Object11setLocationE7QPointF
dustrac-editor:_ZN6Object5paintEP8QPainterPK24QStyleOptionGraphicsItemP7QWidget
dustrac-editor:_ZN6ObjectC1E7QStringS0_6QSizeF7QPixmap
dustrac-editor:_ZN6ObjectC1ERKS_
dustrac-editor:_ZN6ObjectC1ESt10unique_ptrIS_St14default_deleteIS_EE
dustrac-editor:_ZN6ObjectC2E7QStringS0_6QSizeF7QPixmap
dustrac-editor:_ZN6ObjectC2ERKS_
dustrac-editor:_ZN6ObjectC2ESt10unique_ptrIS_St14default_deleteIS_EE
dustrac-editor:_ZN7MapBase12deleteColumnEm
dustrac-editor:_ZN7MapBase12insertColumnEmNS_15InsertDirectionE
dustrac-editor:_ZN7MapBase6resizeEmm
dustrac-editor:_ZN7MapBase7setTileEmmSt10shared_ptrI13TrackTileBaseE
dustrac-editor:_ZN7MapBase9deleteRowEm
dustrac-editor:_ZN7MapBase9insertRowEmNS_15InsertDirectionE
dustrac-editor:_ZN7MapBaseC1Emm
dustrac-editor:_ZN7MapBaseC2Emm
dustrac-editor:_ZN7MapBaseD0Ev
dustrac-editor:_ZN7MapBaseD1Ev
dustrac-editor:_ZN7MapBaseD2Ev
dustrac-editor:_ZN7Objects3addESt10shared_ptrI10ObjectBaseE
dustrac-editor:_ZN7Objects3endEv
dustrac-editor:_ZN7Objects5beginEv
dustrac-editor:_ZN7Objects5clearEv
dustrac-editor:_ZN7Objects6removeER10ObjectBase
dustrac-editor:_ZN7ObjectsC1Ev
dustrac-editor:_ZN7ObjectsC2Ev
dustrac-editor:_ZN7TrackIO4openE7QString
dustrac-editor:_ZN7TrackIO4saveESt10shared_ptrI9TrackDataE7QString
dustrac-editor:_ZN7juzzlin9Argengine11setHelpTextENSt7__cxx1112basic_stringIcSt11char_traitsIcESaIcEEE
dustrac-editor:_ZN7juzzlin9Argengine14setHelpSortingENS0_11HelpSortingE
dustrac-editor:_ZN7juzzlin9Argengine15setOutputStreamERSo
dustrac-editor:_ZN7juzzlin9Argengine29setPositionalArgumentCallbackESt8functionIFvSt6vectorINSt7__cxx1112basic_stringIcSt11char_traitsIcESaIcEEESaIS8_EEEE
dustrac-editor:_ZN7juzzlin9Argengine5parseERNS0_5ErrorE
dustrac-editor:_ZN7juzzlin9Argengine5parseEv
dustrac-editor:_ZN7juzzlin9Argengine7addHelpESt3setINSt7__cxx1112basic_stringIcSt11char_traitsIcESaIcEEESt4lessIS7_ESaIS7_EESt8functionIFvvEE
dustrac-editor:_ZN7juzzlin9Argengine7versionB5cxx11Ev
dustrac-editor:_ZN7juzzlin9Argengine9addOptionESt3setINSt7__cxx1112basic_stringIcSt11char_traitsIcESaIcEEESt4lessIS7_ESaIS7_EESt8functionIFvS7_EEbS7_
dustrac-editor:_ZN7juzzlin9Argengine9addOptionESt3setINSt7__cxx1112basic_stringIcSt11char_traitsIcESaIcEEESt4lessIS7_ESaIS7_EESt8functionIFvvEEbS7_
dustrac-editor:_ZN7juzzlin9Argengine9printHelpEv
dustrac-editor:_ZN7juzzlin9ArgengineC1ESt6vectorINSt7__cxx1112basic_stringIcSt11char_traitsIcESaIcEEESaIS7_EEb
dustrac-editor:_ZN7juzzlin9ArgengineC1EiPPcb
dustrac-editor:_ZN7juzzlin9ArgengineC2ESt6vectorINSt7__cxx1112basic_stringIcSt11char_traitsIcESaIcEEESaIS7_EEb
dustrac-editor:_ZN7juzzlin9ArgengineC2EiPPcb
dustrac-editor:_ZN7juzzlin9ArgengineD1Ev
dustrac-editor:_ZN7juzzlin9ArgengineD2Ev
dustrac-editor:_ZN8AboutDlg11initWidgetsEv
dustrac-editor:_ZN8AboutDlg11qt_metacallEN11QMetaObject4CallEiPPv
dustrac-editor:_ZN8AboutDlg11qt_metacastEPKc
dustrac-editor:_ZN8AboutDlg16staticMetaObjectE
dustrac-editor:_ZN8AboutDlgC1EP7QWidget
dustrac-editor:_ZN8AboutDlgC2EP7QWidget
dustrac-editor:_ZN8Mediator10clearRouteEv
dustrac-editor:_ZN8Mediator10enableUndoEb
dustrac-editor:_ZN8Mediator10removeItemEP13QGraphicsItem
dustrac-editor:_ZN8Mediator10updateViewEv
dustrac-editor:_ZN8Mediator11endSetRouteEv
dustrac-editor:_ZN8Mediator12deleteColumnEv
dustrac-editor:_ZN8Mediator12removeObjectER6Object
dustrac-editor:_ZN8Mediator13beginSetRouteEv
dustrac-editor:_ZN8Mediator13clearEditModeEv
dustrac-editor:_ZN8Mediator13saveTrackDataEv
dustrac-editor:_ZN8Mediator13saveUndoPointEv
dustrac-editor:_ZN8Mediator14insertRowAfterEv
dustrac-editor:_ZN8Mediator14mouseWheelZoomEi
dustrac-editor:_ZN8Mediator15addViewToLayoutEP7QLayout
dustrac-editor:_ZN8Mediator15insertRowBeforeEv
dustrac-editor:_ZN8Mediator15saveTrackDataAsE7QString
dustrac-editor:_ZN8Mediator17insertColumnAfterEv
dustrac-editor:_ZN8Mediator17setSelectedObjectEP6Object
dustrac-editor:_ZN8Mediator17updateCoordinatesE7QPointF
dustrac-editor:_ZN8Mediator18initializeNewTrackEv
dustrac-editor:_ZN8Mediator18insertColumnBeforeEv
dustrac-editor:_ZN8Mediator18setTrackPropertiesEv
dustrac-editor:_ZN8Mediator20showStatusBarMessageE7QString
dustrac-editor:_ZN8Mediator21setSelectedTargetNodeEP10TargetNode
dustrac-editor:_ZN8Mediator24pushNewTargetNodeToRouteE7QPointF
dustrac-editor:_ZN8Mediator25setupTrackAfterUndoOrRedoEv
dustrac-editor:_ZN8Mediator30addCurrentToolBarObjectToSceneE7QPointF
dustrac-editor:_ZN8Mediator4colsEv
dustrac-editor:_ZN8Mediator4redoEv
dustrac-editor:_ZN8Mediator4rowsEv
dustrac-editor:_ZN8Mediator4undoEv
dustrac-editor:_ZN8Mediator7addItemEP13QGraphicsItem
dustrac-editor:_ZN8Mediator7consoleE7QString
dustrac-editor:_ZN8Mediator7setModeE10EditorMode
dustrac-editor:_ZN8Mediator8dadStoreEv
dustrac-editor:_ZN8Mediator8fitScaleEv
dustrac-editor:_ZN8Mediator8setScaleEi
dustrac-editor:_ZN8Mediator9addObjectESt10shared_ptrI6ObjectE
dustrac-editor:_ZN8Mediator9deleteRowEv
dustrac-editor:_ZN8Mediator9floodFillER9TrackTileP7QActionRK7QString
dustrac-editor:_ZN8Mediator9initSceneEv
dustrac-editor:_ZN8Mediator9openTrackE7QString
dustrac-editor:_ZN8MediatorC1ER10MainWindow
dustrac-editor:_ZN8MediatorC2ER10MainWindow
dustrac-editor:_ZN8MediatorD1Ev
dustrac-editor:_ZN8MediatorD2Ev
dustrac-editor:_ZN9FloodFill11setTileTypeER9TrackTileP7QAction
dustrac-editor:_ZN9FloodFill9floodFillER9TrackTileP7QActionRK7QStringR7MapBase
dustrac-editor:_ZN9TrackData11copyObjectsERKS_
dustrac-editor:_ZN9TrackData11setFileNameE7QString
dustrac-editor:_ZN9TrackData12deleteColumnEm
dustrac-editor:_ZN9TrackData12insertColumnEmN7MapBase15InsertDirectionE
dustrac-editor:_ZN9TrackData27moveObjectsAfterRowDeletionEm
dustrac-editor:_ZN9TrackData28moveObjectsAfterRowInsertionEm
dustrac-editor:_ZN9TrackData30moveObjectsAfterColumnDeletionEm
dustrac-editor:_ZN9TrackData31moveObjectsAfterColumnInsertionEm
dustrac-editor:_ZN9TrackData31moveTargetNodesAfterRowDeletionEm
dustrac-editor:_ZN9TrackData32moveTargetNodesAfterRowInsertionEm
dustrac-editor:_ZN9TrackData34moveTargetNodesAfterColumnDeletionEm
dustrac-editor:_ZN9TrackData35moveTargetNodesAfterColumnInsertionEm
dustrac-editor:_ZN9TrackData3mapEv
dustrac-editor:_ZN9TrackData5routeEv
dustrac-editor:_ZN9TrackData7objectsEv
dustrac-editor:_ZN9TrackData9copyRouteERKS_
dustrac-editor:_ZN9TrackData9deleteRowEm
dustrac-editor:_ZN9TrackData9insertRowEmN7MapBase15InsertDirectionE
dustrac-editor:_ZN9TrackDataC1E7QStringbmm
dustrac-editor:_ZN9TrackDataC1ERKS_
dustrac-editor:_ZN9TrackDataC2E7QStringbmm
dustrac-editor:_ZN9TrackDataC2ERKS_
dustrac-editor:_ZN9TrackDataD0Ev
dustrac-editor:_ZN9TrackDataD1Ev
dustrac-editor:_ZN9TrackDataD2Ev
dustrac-editor:_ZN9TrackTile10activeTileEv
dustrac-editor:_ZN9TrackTile10rotate90CWEv
dustrac-editor:_ZN9TrackTile11rotate90CCWEv
dustrac-editor:_ZN9TrackTile11setLocationE7QPointF
dustrac-editor:_ZN9TrackTile11setTileTypeERK7QString
dustrac-editor:_ZN9TrackTile12m_activeTileE
dustrac-editor:_ZN9TrackTile13setActiveTileEPS_
dustrac-editor:_ZN9TrackTile15setComputerHintEN13TrackTileBase12ComputerHintE
dustrac-editor:_ZN9TrackTile4swapERS_
dustrac-editor:_ZN9TrackTile5paintEP8QPainterPK24QStyleOptionGraphicsItemP7QWidget
dustrac-editor:_ZN9TrackTile8setAddedEb
dustrac-editor:_ZN9TrackTile9setActiveEb
dustrac-editor:_ZN9TrackTile9setPixmapERK7QPixmap
dustrac-editor:_ZN9TrackTileC1E7QPointF6QPointRK7QString
dustrac-editor:_ZN9TrackTileC1ERKS_
dustrac-editor:_ZN9TrackTileC2E7QPointF6QPointRK7QString
dustrac-editor:_ZN9TrackTileC2ERKS_
dustrac-editor:_ZN9TrackTileD0Ev
dustrac-editor:_ZN9TrackTileD1Ev
dustrac-editor:_ZN9TrackTileD2Ev
dustrac-editor:_ZN9UndoStack13pushRedoPointESt10shared_ptrI9TrackDataE
dustrac-editor:_ZN9UndoStack13pushUndoPointESt10shared_ptrI9TrackDataE
dustrac-editor:_ZN9UndoStack4redoEv
dustrac-editor:_ZN9UndoStack4undoEv
dustrac-editor:_ZN9UndoStack5clearEv
dustrac-editor:_ZN9UndoStackC1Ej
dustrac-editor:_ZN9UndoStackC2Ej
dustrac-editor:_ZNK10EditorData10isRedoableEv
dustrac-editor:_ZNK10EditorData10isUndoableEv
dustrac-editor:_ZNK10EditorData12activeColumnEv
dustrac-editor:_ZNK10EditorData12currentScaleEv
dustrac-editor:_ZNK10EditorData13canRouteBeSetEv
dustrac-editor:_ZNK10EditorData14selectedObjectEv
dustrac-editor:_ZNK10EditorData18selectedTargetNodeEv
dustrac-editor:_ZNK10EditorData9activeRowEv
dustrac-editor:_ZNK10EditorView10metaObjectEv
dustrac-editor:_ZNK10MainWindow10metaObjectEv
dustrac-editor:_ZNK10MainWindow17objectModelLoaderEv
dustrac-editor:_ZNK10MainWindow20currentToolBarActionEv
dustrac-editor:_ZNK10MainWindow21randomlyRotateObjectsEv
dustrac-editor:_ZNK10ObjectBase15forceStationaryEv
dustrac-editor:_ZNK10ObjectBase4roleEv
dustrac-editor:_ZNK10ObjectBase8categoryEv
dustrac-editor:_ZNK10ObjectBase8locationEv
dustrac-editor:_ZNK10TargetNode12boundingRectEv
dustrac-editor:_ZNK10TargetNode9routeLineEv
dustrac-editor:_ZNK12RotateDialog10metaObjectEv
dustrac-editor:_ZNK12RotateDialog5angleEv
dustrac-editor:_ZNK12TileAnimator10metaObjectEv
dustrac-editor:_ZNK13TrackDataBase11isUserTrackEv
dustrac-editor:_ZNK13TrackDataBase4nameEv
dustrac-editor:_ZNK13TrackDataBase5indexEv
dustrac-editor:_ZNK13TrackTileBase12computerHintEv
dustrac-editor:_ZNK13TrackTileBase14matrixLocationEv
dustrac-editor:_ZNK13TrackTileBase18excludeFromMinimapEv
dustrac-editor:_ZNK13TrackTileBase8locationEv
dustrac-editor:_ZNK13TrackTileBase8tileTypeEv
dustrac-editor:_ZNK14NewTrackDialog10metaObjectEv
dustrac-editor:_ZNK14NewTrackDialog11isUserTrackEv
dustrac-editor:_ZNK14NewTrackDialog4colsEv
dustrac-editor:_ZNK14NewTrackDialog4nameEv
dustrac-editor:_ZNK14NewTrackDialog4rowsEv
dustrac-editor:_ZNK14TargetNodeBase4nextEv
dustrac-editor:_ZNK14TargetNodeBase4prevEv
dustrac-editor:_ZNK14TargetNodeBase4sizeEv
dustrac-editor:_ZNK14TargetNodeBase5indexEv
dustrac-editor:_ZNK14TargetNodeBase8locationEv
dustrac-editor:_ZNK16DragAndDropStore17dragAndDropObjectEv
dustrac-editor:_ZNK16DragAndDropStore20dragAndDropSourcePosEv
dustrac-editor:_ZNK16DragAndDropStore21dragAndDropSourceTileEv
dustrac-editor:_ZNK16DragAndDropStore21dragAndDropTargetNodeEv
dustrac-editor:_ZNK17ObjectModelLoader15getPixmapByRoleE7QString
dustrac-editor:_ZNK17ObjectModelLoader17getCategoryByRoleE7QString
dustrac-editor:_ZNK17ObjectModelLoader20getObjectModelByRoleE7QString
dustrac-editor:_ZNK17ObjectModelLoader25getObjectModelsByCategoryE7QString
dustrac-editor:_ZNK17ObjectModelLoader7objectsEv
dustrac-editor:_ZNK17TargetNodeSizeDlg10metaObjectEv
dustrac-editor:_ZNK17TargetNodeSizeDlg14targetNodeSizeEv
dustrac-editor:_ZNK21TrackPropertiesDialog10metaObjectEv
dustrac-editor:_ZNK21TrackPropertiesDialog11isUserTrackEv
dustrac-editor:_ZNK21TrackPropertiesDialog4nameEv
dustrac-editor:_ZNK21TrackPropertiesDialog5indexEv
dustrac-editor:_ZNK5Route15geometricLengthEv
dustrac-editor:_ZNK5Route3getEm
dustrac-editor:_ZNK5Route4cendEv
dustrac-editor:_ZNK5Route6cbeginEv
dustrac-editor:_ZNK5Route6getAllERSt6vectorISt10shared_ptrI14TargetNodeBaseESaIS3_EE
dustrac-editor:_ZNK5Route8isClosedEv
dustrac-editor:_ZNK5Route8numNodesEv
dustrac-editor:_ZNK6Object12boundingRectEv
dustrac-editor:_ZNK7MapBase4colsEv
dustrac-editor:_ZNK7MapBase4rowsEv
dustrac-editor:_ZNK7MapBase7getTileEmm
dustrac-editor:_ZNK7Objects4cendEv
dustrac-editor:_ZNK7Objects5countEv
dustrac-editor:_ZNK7Objects6cbeginEv
dustrac-editor:_ZNK7Objects6objectEm
dustrac-editor:_ZNK7juzzlin9Argengine9argumentsB5cxx11Ev
dustrac-editor:_ZNK8AboutDlg10metaObjectEv
dustrac-editor:_ZNK8Mediator10isRedoableEv
dustrac-editor:_ZNK8Mediator10isUndoableEv
dustrac-editor:_ZNK8Mediator13routeHasNodesEv
dustrac-editor:_ZNK8Mediator14selectedObjectEv
dustrac-editor:_ZNK8Mediator15currentFileNameEv
dustrac-editor:_ZNK8Mediator18selectedTargetNodeEv
dustrac-editor:_ZNK8Mediator20currentToolBarActionEv
dustrac-editor:_ZNK8Mediator4modeEv
dustrac-editor:_ZNK9TrackData3mapEv
dustrac-editor:_ZNK9TrackData5routeEv
dustrac-editor:_ZNK9TrackData7objectsEv
dustrac-editor:_ZNK9TrackData8fileNameEv
dustrac-editor:_ZNK9TrackTile12boundingRectEv
dustrac-editor:_ZNK9TrackTile5addedEv
dustrac-editor:_ZNK9TrackTile6pixmapEv
dustrac-editor:_ZNK9UndoStack10isRedoableEv
dustrac-editor:_ZNK9UndoStack10isUndoableEv
dustrac-editor:_ZThn16_N10MainWindowD0Ev
dustrac-editor:_ZThn16_N10MainWindowD1Ev
dustrac-editor:_ZThn16_N10TargetNode11setLocationE7QPointF
dustrac-editor:_ZThn16_N6Object11setLocationE7QPointF
dustrac-editor:_ZThn16_N9TrackTile11setLocationE7QPointF
dustrac-editor:_ZThn16_N9TrackTile11setTileTypeERK7QString
dustrac-editor:_ZThn16_N9TrackTile15setComputerHintEN13TrackTileBase12ComputerHintE
dustrac-editor:_ZThn16_N9TrackTileD0Ev
dustrac-editor:_ZThn16_N9TrackTileD1Ev
dustrac-editor:__bss_start
dustrac-editor:__data_start
dustrac-editor:_edata
dustrac-editor:_end
dustrac-editor:_start
dustrac-editor:main
dustrac-game:_IO_stdin_used
dustrac-game:_Z14placeStartGridR8MCObjectffi
dustrac-game:_Z15getAverageColor6QImage
dustrac-game:_Z18isInsideCheckPointR3CarSt10shared_ptrI14TargetNodeBaseEm
dustrac-game:_Z20qInitResources_iconsv
dustrac-game:_Z23qCleanupResources_iconsv
dustrac-game:_Z5clampf
dustrac-game:_Z6marginB5cxx11i
dustrac-game:_Z8placeCarR3Carffi
dustrac-game:_ZN10CarFactory8buildCarEmmR4Game
dustrac-game:_ZN10MCMathUtil12rotateVectorERK10MCVector2dIfERS1_f
dustrac-game:_ZN10MCMathUtil13rotatedVectorERK10MCVector2dIfEf
dustrac-game:_ZN10MCMathUtil18distanceFromVectorERK10MCVector2dIfES3_
dustrac-game:_ZN10MCMathUtil7crossesERK9MCSegmentIfES3_
dustrac-game:_ZN10MCMathUtil8rotatedXEfff
dustrac-game:_ZN10MCMathUtil8rotatedYEfff
dustrac-game:_ZN10MCMeshView10bindShadowEv
dustrac-game:_ZN10MCMeshView10updateBBoxEv
dustrac-game:_ZN10MCMeshView12renderShadowERK10MCVector3dIfEfP8MCCamera
dustrac-game:_ZN10MCMeshView13releaseShadowEv
dustrac-game:_ZN10MCMeshView16setShaderProgramESt10shared_ptrI17MCGLShaderProgramE
dustrac-game:_ZN10MCMeshView22setShadowShaderProgramESt10shared_ptrI17MCGLShaderProgramE
dustrac-game:_ZN10MCMeshView4bindEv
dustrac-game:_ZN10MCMeshView6renderERK10MCVector3dIfEfP8MCCamera
dustrac-game:_ZN10MCMeshView7releaseEv
dustrac-game:_ZN10MCMeshView7setMeshESt10shared_ptrI6MCMeshE
dustrac-game:_ZN10MCMeshView8setScaleERK10MCVector3dIfE
dustrac-game:_ZN10MCMeshViewC1ERKNSt7__cxx1112basic_stringIcSt11char_traitsIcESaIcEEESt10shared_ptrI6MCMeshE
dustrac-game:_ZN10MCMeshViewC2ERKNSt7__cxx1112basic_stringIcSt11char_traitsIcESaIcEEESt10shared_ptrI6MCMeshE
dustrac-game:_ZN10MCMeshViewD0Ev
dustrac-game:_ZN10MCMeshViewD1Ev
dustrac-game:_ZN10MCMeshViewD2Ev
dustrac-game:_ZN10MCParticle10onStepTimeEi
dustrac-game:_ZN10MCParticle11setFreeListERSt6vectorIPS_SaIS1_EE
dustrac-game:_ZN10MCParticle17setAnimationStyleENS_14AnimationStyleE
dustrac-game:_ZN10MCParticle18numActiveParticlesEv
dustrac-game:_ZN10MCParticle19setDieWhenOffScreenEb
dustrac-game:_ZN10MCParticle20m_numActiveParticlesE
dustrac-game:_ZN10MCParticle20outOfBoundariesEventER22MCOutOfBoundariesEvent
dustrac-game:_ZN10MCParticle23setCustomDeathConditionESt8functionIFbRS_EE
dustrac-game:_ZN10MCParticle28setDieOnOutOfBoundariesEventEb
dustrac-game:_ZN10MCParticle3dieEv
dustrac-game:_ZN10MCParticle4initERK10MCVector3dIfEfj
dustrac-game:_ZN10MCParticle7timeOutEv
dustrac-game:_ZN10MCParticleC1ERKNSt7__cxx1112basic_stringIcSt11char_traitsIcESaIcEEE
dustrac-game:_ZN10MCParticleC2ERKNSt7__cxx1112basic_stringIcSt11char_traitsIcESaIcEEE
dustrac-game:_ZN10MCParticleD0Ev
dustrac-game:_ZN10MCParticleD1Ev
dustrac-game:_ZN10MCParticleD2Ev
dustrac-game:_ZN10MCTrigonom3cosEf
dustrac-game:_ZN10MCTrigonom3sinEf
dustrac-game:_ZN10MCTrigonom7m_pImplE
dustrac-game:_ZN10MCTrigonom8degToRadEf
dustrac-game:_ZN10MCTrigonom8radToDegEf
dustrac-game:_ZN10ObjectBase11setLocationE7QPointF
dustrac-game:_ZN10ObjectBase18setForceStationaryEb
dustrac-game:_ZN10ObjectBaseC1E7QStringS0_
dustrac-game:_ZN10ObjectBaseC2E7QStringS0_
dustrac-game:_ZN10ObjectBaseD0Ev
dustrac-game:_ZN10ObjectBaseD1Ev
dustrac-game:_ZN10ObjectBaseD2Ev
dustrac-game:_ZN10OpenALDataC1Ev
dustrac-game:_ZN10OpenALDataC2Ev
dustrac-game:_ZN10OpenALDataD0Ev
dustrac-game:_ZN10OpenALDataD1Ev
dustrac-game:_ZN10OpenALDataD2Ev
dustrac-game:_ZN11Application11qt_metacallEN11QMetaObject4CallEiPPv
dustrac-game:_ZN11Application11qt_metacastEPKc
dustrac-game:_ZN11Application16staticMetaObjectE
dustrac-game:_ZN11Application6notifyEP7QObjectP6QEvent
dustrac-game:_ZN11ApplicationC1ERiPPc
dustrac-game:_ZN11ApplicationC2ERiPPc
dustrac-game:_ZN11AudioSource11qt_metacallEN11QMetaObject4CallEiPPv
dustrac-game:_ZN11AudioSource11qt_metacastEPKc
dustrac-game:_ZN11AudioSource12pitchChangedERK7QStringf
dustrac-game:_ZN11AudioSource13playRequestedERK7QStringb
dustrac-game:_ZN11AudioSource13stopRequestedERK7QString
dustrac-game:_ZN11AudioSource13volumeChangedERK7QStringf
dustrac-game:_ZN11AudioSource15locationChangedERK7QStringff
dustrac-game:_ZN11AudioSource16staticMetaObjectE
dustrac-game:_ZN11AudioSourceC1Ev
dustrac-game:_ZN11AudioSourceC2Ev
dustrac-game:_ZN11AudioSourceD0Ev
dustrac-game:_ZN11AudioSourceD1Ev
dustrac-game:_ZN11AudioSourceD2Ev
dustrac-game:_ZN11AudioWorker10loadSoundsEv
dustrac-game:_ZN11AudioWorker10setEnabledEb
dustrac-game:_ZN11AudioWorker11qt_metacallEN11QMetaObject4CallEiPPv
dustrac-game:_ZN11AudioWorker11qt_metacastEPKc
dustrac-game:_ZN11AudioWorker11setLocationERK7QStringff
dustrac-game:_ZN11AudioWorker15loadCommonSoundE7QStringS0_f
dustrac-game:_ZN11AudioWorker16setDefaultVolumeEf
dustrac-game:_ZN11AudioWorker16staticMetaObjectE
dustrac-game:_ZN11AudioWorker18connectAudioSourceER11AudioSource
dustrac-game:_ZN11AudioWorker19setListenerLocationEff
dustrac-game:_ZN11AudioWorker21disconnectAudioSourceER11AudioSource
dustrac-game:_ZN11AudioWorker25loadMultiInstanceCarSoundE7QStringS0_f
dustrac-game:_ZN11AudioWorker26loadSingleInstanceCarSoundE7QStringS0_f
dustrac-game:_ZN11AudioWorker4initEv
dustrac-game:_ZN11AudioWorker8setPitchERK7QStringf
dustrac-game:_ZN11AudioWorker9checkFileE7QString
dustrac-game:_ZN11AudioWorker9playSoundERK7QStringb
dustrac-game:_ZN11AudioWorker9setVolumeERK7QStringf
dustrac-game:_ZN11AudioWorker9stopSoundERK7QString
dustrac-game:_ZN11AudioWorkerC1Eib
dustrac-game:_ZN11AudioWorkerC2Eib
dustrac-game:_ZN11AudioWorkerD0Ev
dustrac-game:_ZN11AudioWorkerD1Ev
dustrac-game:_ZN11AudioWorkerD2Ev
dustrac-game:_ZN11FontFactory16generateFontDataE7QString
dustrac-game:_ZN11MCRectShape6renderEP8MCCamera
dustrac-game:_ZN11MCRectShape6resizeEff
dustrac-game:_ZN11MCRectShape6rotateEf
dustrac-game:_ZN11MCRectShape9translateERK10MCVector3dIfE
dustrac-game:_ZN11MCRectShapeC1ESt10shared_ptrI11MCShapeViewEff
dustrac-game:_ZN11MCRectShapeC2ESt10shared_ptrI11MCShapeViewEff
dustrac-game:_ZN11MCRectShapeD0Ev
dustrac-game:_ZN11MCRectShapeD1Ev
dustrac-game:_ZN11MCRectShapeD2Ev
dustrac-game:_ZN11MCShapeView12renderShadowERK10MCVector3dIfEfP8MCCamera
dustrac-game:_ZN11MCShapeView12setHasShadowEb
dustrac-game:_ZN11MCShapeView14m_typeRegistryE
dustrac-game:_ZN11MCShapeView16setShaderProgramESt10shared_ptrI17MCGLShaderProgramE
dustrac-game:_ZN11MCShapeView22setShadowShaderProgramESt10shared_ptrI17MCGLShaderProgramE
dustrac-game:_ZN11MCShapeView6renderERK10MCVector3dIfEfP8MCCamera
dustrac-game:_ZN11MCShapeView8setColorERK9MCGLColor
dustrac-game:_ZN11MCShapeView8setScaleERK10MCVector3dIfE
dustrac-game:_ZN11MCShapeView9setHandleENSt7__cxx1112basic_stringIcSt11char_traitsIcESaIcEEE
dustrac-game:_ZN11MCShapeViewC1ERKNSt7__cxx1112basic_stringIcSt11char_traitsIcESaIcEEE
dustrac-game:_ZN11MCShapeViewC2ERKNSt7__cxx1112basic_stringIcSt11char_traitsIcESaIcEEE
dustrac-game:_ZN11MCShapeViewD0Ev
dustrac-game:_ZN11MCShapeViewD1Ev
dustrac-game:_ZN11MCShapeViewD2Ev
dustrac-game:_ZN11OverlayBase5resetEv
dustrac-game:_ZN11OverlayBase6updateEv
dustrac-game:_ZN11OverlayBaseC1Ev
dustrac-game:_ZN11OverlayBaseC2Ev
dustrac-game:_ZN11OverlayBaseD0Ev
dustrac-game:_ZN11OverlayBaseD1Ev
dustrac-game:_ZN11OverlayBaseD2Ev
dustrac-game:_ZN11Startlights11qt_metacallEN11QMetaObject4CallEiPPv
dustrac-game:_ZN11Startlights11qt_metacastEPKc
dustrac-game:_ZN11Startlights11raceStartedEv
dustrac-game:_ZN11Startlights11stateAppearEv
dustrac-game:_ZN11Startlights11timeElapsedEm
dustrac-game:_ZN11Startlights13setDimensionsEmm
dustrac-game:_ZN11Startlights13stateFirstRowEv
dustrac-game:_ZN11Startlights13stateThirdRowEv
dustrac-game:_ZN11Startlights14animationEndedEv
dustrac-game:_ZN11Startlights14beginAnimationEv
dustrac-game:_ZN11Startlights14stateDisappearEv
dustrac-game:_ZN11Startlights14stateSecondRowEv
dustrac-game:_ZN11Startlights15updateAnimationEv
dustrac-game:_ZN11Startlights16messageRequestedE7QString
dustrac-game:_ZN11Startlights16staticMetaObjectE
dustrac-game:_ZN11Startlights7stateGoEv
dustrac-game:_ZN11Startlights8stateEndEv
dustrac-game:_ZN11Startlights9stateInitEv
dustrac-game:_ZN11StartlightsC1Ev
dustrac-game:_ZN11StartlightsC2Ev
dustrac-game:_ZN11SurfaceMenu5enterEv
dustrac-game:_ZN11SurfaceMenu6renderEv
dustrac-game:_ZN11SurfaceMenu7popExitEv
dustrac-game:_ZN11SurfaceMenu8popEnterEv
dustrac-game:_ZN11SurfaceMenu8pushExitEv
dustrac-game:_ZN11SurfaceMenu9pushEnterEv
dustrac-game:_ZN11SurfaceMenuC1ENSt7__cxx1112basic_stringIcSt11char_traitsIcESaIcEEES5_iiN4MTFH4Menu5StyleEbbb
dustrac-game:_ZN11SurfaceMenuC2ENSt7__cxx1112basic_stringIcSt11char_traitsIcESaIcEEES5_iiN4MTFH4Menu5StyleEbbb
dustrac-game:_ZN11TrackLoader10loadAssetsEv
dustrac-game:_ZN11TrackLoader10loadTracksEiN17DifficultyProfile10DifficultyE
dustrac-game:_ZN11TrackLoader10m_instanceE
dustrac-game:_ZN11TrackLoader10readObjectER11QDomElementR9TrackData
dustrac-game:_ZN11TrackLoader10sortTracksEv
dustrac-game:_ZN11TrackLoader14readTargetNodeER11QDomElementR9TrackDataRSt6vectorISt10shared_ptrI14TargetNodeBaseESaIS7_EE
dustrac-game:_ZN11TrackLoader18addTrackSearchPathE7QString
dustrac-game:_ZN11TrackLoader18updateLockedTracksEiN17DifficultyProfile10DifficultyE
dustrac-game:_ZN11TrackLoader22tileTypeEnumFromStringENSt7__cxx1112basic_stringIcSt11char_traitsIcESaIcEEE
dustrac-game:_ZN11TrackLoader8instanceEv
dustrac-game:_ZN11TrackLoader8readTileER11QDomElementR9TrackData
dustrac-game:_ZN11TrackLoader9loadTrackE7QString
dustrac-game:_ZN11TrackLoaderC1Ev
dustrac-game:_ZN11TrackLoaderC2Ev
dustrac-game:_ZN11TrackObjectC1E7QStringS0_St10shared_ptrI8MCObjectE
dustrac-game:_ZN11TrackObjectC2E7QStringS0_St10shared_ptrI8MCObjectE
dustrac-game:_ZN12CrashOverlay13setDimensionsEmm
dustrac-game:_ZN12CrashOverlay14setCarToFollowER3Car
dustrac-game:_ZN12CrashOverlay6renderEv
dustrac-game:_ZN12CrashOverlay6updateEv
dustrac-game:_ZN12CrashOverlayC1Ev
dustrac-game:_ZN12CrashOverlayC2Ev
dustrac-game:_ZN12EventHandler10gameExitedEv
dustrac-game:_ZN12EventHandler11qt_metacallEN11QMetaObject4CallEiPPv
dustrac-game:_ZN12EventHandler11qt_metacastEPKc
dustrac-game:_ZN12EventHandler12pauseToggledEv
dustrac-game:_ZN12EventHandler14cursorRevealedEv
dustrac-game:_ZN12EventHandler14mapKeyToActionEiN12InputHandler6ActionEi
dustrac-game:_ZN12EventHandler14soundRequestedE7QStringb
dustrac-game:_ZN12EventHandler15loadKeyMappingsEv
dustrac-game:_ZN12EventHandler16staticMetaObjectE
dustrac-game:_ZN12EventHandler17enableCaptureModeEN12InputHandler6ActionEi
dustrac-game:_ZN12EventHandler18disableCaptureModeEv
dustrac-game:_ZN12EventHandler19applyMatchingActionEP9QKeyEventb
dustrac-game:_ZN12EventHandler19handleKeyPressEventEP9QKeyEvent
dustrac-game:_ZN12EventHandler20handleMouseMoveEventEP11QMouseEvent
dustrac-game:_ZN12EventHandler21handleKeyReleaseEventEP9QKeyEvent
dustrac-game:_ZN12EventHandler21handleMousePressEventEP11QMouseEventiib
dustrac-game:_ZN12EventHandler23handleGameKeyPressEventEP9QKeyEvent
dustrac-game:_ZN12EventHandler23handleMenuKeyPressEventEP9QKeyEvent
dustrac-game:_ZN12EventHandler23handleMouseReleaseEventEP11QMouseEventiib
dustrac-game:_ZN12EventHandler25handleGameKeyReleaseEventEP9QKeyEvent
dustrac-game:_ZN12EventHandler9cursorHidEv
dustrac-game:_ZN12EventHandlerC1ER12InputHandler
dustrac-game:_ZN12EventHandlerC2ER12InputHandler
dustrac-game:_ZN12InputHandler10setEnabledEb
dustrac-game:_ZN12InputHandler14setActionStateEmNS_6ActionEb
dustrac-game:_ZN12InputHandler5resetEv
dustrac-game:_ZN12InputHandler7enabledEv
dustrac-game:_ZN12InputHandler9m_enabledE
dustrac-game:_ZN12InputHandlerC1Em
dustrac-game:_ZN12InputHandlerC2Em
dustrac-game:_ZN12LapCountMenu6MenuIdB5cxx11E
dustrac-game:_ZN12LapCountMenu6renderEv
dustrac-game:_ZN12LapCountMenuC1Eii
dustrac-game:_ZN12LapCountMenuC2Eii
dustrac-game:_ZN12MCGLMaterial10setTextureEjm
dustrac-game:_ZN12MCGLMaterial12doAlphaBlendEv
dustrac-game:_ZN12MCGLMaterial13setAlphaBlendEbjj
dustrac-game:_ZN12MCGLMaterial15setDiffuseCoeffEf
dustrac-game:_ZN12MCGLMaterial16setSpecularCoeffEf
dustrac-game:_ZN12MCGLMaterialC1Ev
dustrac-game:_ZN12MCGLMaterialC2Ev
dustrac-game:_ZN12MCMeshLoader10readStreamER11QTextStream
dustrac-game:_ZN12MCMeshLoader11processLineE7QString
dustrac-game:_ZN12MCMeshLoader4loadE7QString
dustrac-game:_ZN12MCMeshLoader6parseFE7QString
dustrac-game:_ZN12MCMeshLoader6parseVE7QString
dustrac-game:_ZN12MCMeshLoader7parseVNE7QString
dustrac-game:_ZN12MCMeshLoader7parseVTE7QString
dustrac-game:_ZN12MCMeshLoaderC1Ev
dustrac-game:_ZN12MCMeshLoaderC2Ev
dustrac-game:_ZN12MCObjectData13setShapeWidthEf
dustrac-game:_ZN12MCObjectData13setXYFrictionEf
dustrac-game:_ZN12MCObjectData14setRestitutionEf
dustrac-game:_ZN12MCObjectData14setShapeHeightEf
dustrac-game:_ZN12MCObjectData14setShapeRadiusEf
dustrac-game:_ZN12MCObjectData15setInitialAngleEi
dustrac-game:_ZN12MCObjectData15setIsStationaryEb
dustrac-game:_ZN12MCObjectData18setInitialLocationE10MCVector3dIfE
dustrac-game:_ZN12MCObjectData7setMassEf
dustrac-game:_ZN12MCObjectDataC1ERKNSt7__cxx1112basic_stringIcSt11char_traitsIcESaIcEEE
dustrac-game:_ZN12MCObjectDataC2ERKNSt7__cxx1112basic_stringIcSt11char_traitsIcESaIcEEE
dustrac-game:_ZN12MCObjectGrid13setIndexRangeERK6MCBBoxIfE
dustrac-game:_ZN12MCObjectGrid20getObjectsWithinBBoxERK6MCBBoxIfE
dustrac-game:_ZN12MCObjectGrid21getPossibleCollisionsEv
dustrac-game:_ZN12MCObjectGrid24getObjectsWithinDistanceERK10MCVector2dIfEf
dustrac-game:_ZN12MCObjectGrid24getObjectsWithinDistanceEfff
dustrac-game:_ZN12MCObjectGrid5buildEv
dustrac-game:_ZN12MCObjectGrid6insertER8MCObject
dustrac-game:_ZN12MCObjectGrid6removeER8MCObject
dustrac-game:_ZN12MCObjectGrid9removeAllEv
dustrac-game:_ZN12MCObjectGridC1Effffff
dustrac-game:_ZN12MCObjectGridC2Effffff
dustrac-game:_ZN12MCObjectGridD1Ev
dustrac-game:_ZN12MCObjectGridD2Ev
dustrac-game:_ZN12MCRandomImpl8buildLUTEv
dustrac-game:_ZN12MCRandomImplC1Ev
dustrac-game:_ZN12MCRandomImplC2Ev
dustrac-game:_ZN12OpenALDevice10initializeEv
dustrac-game:_ZN12OpenALDevice8shutDownEv
dustrac-game:_ZN12OpenALDeviceC1Ev
dustrac-game:_ZN12OpenALDeviceC2Ev
dustrac-game:_ZN12OpenALDeviceD0Ev
dustrac-game:_ZN12OpenALDeviceD1Ev
dustrac-game:_ZN12OpenALDeviceD2Ev
dustrac-game:_ZN12OpenALSource10setMaxDistEf
dustrac-game:_ZN12OpenALSource11setLocationERKN4STFH8LocationE
dustrac-game:_ZN12OpenALSource16setReferenceDistEf
dustrac-game:_ZN12OpenALSource4playEb
dustrac-game:_ZN12OpenALSource4stopEv
dustrac-game:_ZN12OpenALSource7setDataESt10shared_ptrIN4STFH4DataEE
dustrac-game:_ZN12OpenALSource8setPitchEf
dustrac-game:_ZN12OpenALSource9setVolumeEf
dustrac-game:_ZN12OpenALSourceC1ESt10shared_ptrIN4STFH4DataEE
dustrac-game:_ZN12OpenALSourceC2ESt10shared_ptrIN4STFH4DataEE
dustrac-game:_ZN12OpenALSourceD0Ev
dustrac-game:_ZN12OpenALSourceD1Ev
dustrac-game:_ZN12OpenALSourceD2Ev
dustrac-game:_ZN12PressKeyMenu6renderEv
dustrac-game:_ZN12PressKeyMenuC1ENSt7__cxx1112basic_stringIcSt11char_traitsIcESaIcEEEii
dustrac-game:_ZN12PressKeyMenuC2ENSt7__cxx1112basic_stringIcSt11char_traitsIcESaIcEEEii
dustrac-game:_ZN12SettingsMenu15populateFpsMenuEii
dustrac-game:_ZN12SettingsMenu15populateGfxMenuEii
dustrac-game:_ZN12SettingsMenu15populateSfxMenuEii
dustrac-game:_ZN12SettingsMenu17populateResetMenuEii
dustrac-game:_ZN12SettingsMenu20populateGameModeMenuEii
dustrac-game:_ZN12SettingsMenu21populateSplitTypeMenuEii
dustrac-game:_ZN12SettingsMenu8populateEii
dustrac-game:_ZN12SettingsMenuC1ENSt7__cxx1112basic_stringIcSt11char_traitsIcESaIcEEEii
dustrac-game:_ZN12SettingsMenuC2ENSt7__cxx1112basic_stringIcSt11char_traitsIcESaIcEEEii
dustrac-game:_ZN12StateMachine10endFadeOutEv
dustrac-game:_ZN12StateMachine10finishRaceEv
dustrac-game:_ZN12StateMachine10m_instanceE
dustrac-game:_ZN12StateMachine11qt_metacallEN11QMetaObject4CallEiPPv
dustrac-game:_ZN12StateMachine11qt_metacastEPKc
dustrac-game:_ZN12StateMachine12stateDoIntroEv
dustrac-game:_ZN12StateMachine13soundsStoppedEv
dustrac-game:_ZN12StateMachine15fadeInRequestedEiii
dustrac-game:_ZN12StateMachine16fadeOutRequestedEiii
dustrac-game:_ZN12StateMachine16renderingEnabledEb
dustrac-game:_ZN12StateMachine16staticMetaObjectE
dustrac-game:_ZN12StateMachine17exitGameRequestedEv
dustrac-game:_ZN12StateMachine18stateDoStartlightsEv
dustrac-game:_ZN12StateMachine21fadeOutFlashRequestedEiii
dustrac-game:_ZN12StateMachine21stateGameTransitionInEv
dustrac-game:_ZN12StateMachine21stateMenuTransitionInEv
dustrac-game:_ZN12StateMachine22endStartlightAnimationEv
dustrac-game:_ZN12StateMachine22stateGameTransitionOutEv
dustrac-game:_ZN12StateMachine22stateMenuTransitionOutEv
dustrac-game:_ZN12StateMachine28startlightAnimationRequestedEv
dustrac-game:_ZN12StateMachine4quitEv
dustrac-game:_ZN12StateMachine5resetEv
dustrac-game:_ZN12StateMachine6updateEv
dustrac-game:_ZN12StateMachine8instanceEv
dustrac-game:_ZN12StateMachine9endFadeInEv
dustrac-game:_ZN12StateMachine9stateInitEv
dustrac-game:_ZN12StateMachine9stateMenuEv
dustrac-game:_ZN12StateMachine9statePlayEv
dustrac-game:_ZN12StateMachineC1ER12InputHandler
dustrac-game:_ZN12StateMachineC2ER12InputHandler
dustrac-game:_ZN12StateMachineD0Ev
dustrac-game:_ZN12StateMachineD1Ev
dustrac-game:_ZN12StateMachineD2Ev
dustrac-game:_ZN13CarStatusView14setCarToFollowERK3Car
dustrac-game:_ZN13CarStatusView6renderEv
dustrac-game:_ZN13CarStatusViewC1Ev
dustrac-game:_ZN13CarStatusViewC2Ev
dustrac-game:_ZN13CheckeredFlag6renderEv
dustrac-game:_ZN13CheckeredFlagC1Ev
dustrac-game:_ZN13CheckeredFlagC2Ev
dustrac-game:_ZN13FadeAnimation11beginFadeInEiii
dustrac-game:_ZN13FadeAnimation11qt_metacallEN11QMetaObject4CallEiPPv
dustrac-game:_ZN13FadeAnimation11qt_metacastEPKc
dustrac-game:_ZN13FadeAnimation12beginFadeOutEiii
dustrac-game:_ZN13FadeAnimation14fadeInFinishedEv
dustrac-game:_ZN13FadeAnimation15fadeOutFinishedEv
dustrac-game:_ZN13FadeAnimation15updateAnimationEv
dustrac-game:_ZN13FadeAnimation16fadeValueChangedEf
dustrac-game:_ZN13FadeAnimation16staticMetaObjectE
dustrac-game:_ZN13FadeAnimation17beginFadeOutFlashEiii
dustrac-game:_ZN13FadeAnimationC1Ei
dustrac-game:_ZN13FadeAnimationC2Ei
dustrac-game:_ZN13KeyConfigMenu18addPlayerOneConfigEii
dustrac-game:_ZN13KeyConfigMenu18addPlayerTwoConfigEii
dustrac-game:_ZN13KeyConfigMenuC1ENSt7__cxx1112basic_stringIcSt11char_traitsIcESaIcEEEii
dustrac-game:_ZN13KeyConfigMenuC2ENSt7__cxx1112basic_stringIcSt11char_traitsIcESaIcEEEii
dustrac-game:_ZN13KeyConfigMenuD0Ev
dustrac-game:_ZN13KeyConfigMenuD1Ev
dustrac-game:_ZN13KeyConfigMenuD2Ev
dustrac-game:_ZN13MCCircleShapeC1ESt10shared_ptrI11MCShapeViewEf
dustrac-game:_ZN13MCCircleShapeC2ESt10shared_ptrI11MCShapeViewEf
dustrac-game:_ZN13MCCircleShapeD0Ev
dustrac-game:_ZN13MCCircleShapeD1Ev
dustrac-game:_ZN13MCCircleShapeD2Ev
dustrac-game:_ZN13MCMeshManager10createMeshERK14MCMeshMetaDataRKSt6vectorIN6MCMesh4FaceESaIS5_EE
dustrac-game:_ZN13MCMeshManager4loadERKNSt7__cxx1112basic_stringIcSt11char_traitsIcESaIcEEES7_
dustrac-game:_ZN13MCMeshManagerC1Ev
dustrac-game:_ZN13MCMeshManagerC2Ev
dustrac-game:_ZN13MCRenderLayer13objectBatchesEv
dustrac-game:_ZN13MCRenderLayer15particleBatchesEv
dustrac-game:_ZN13MCRenderLayer19setDepthMaskEnabledEb
dustrac-game:_ZN13MCRenderLayer19setDepthTestEnabledEb
dustrac-game:_ZN13MCRenderLayer5clearEv
dustrac-game:_ZN13MCRenderLayerC1Ev
dustrac-game:_ZN13MCRenderLayerC2Ev
dustrac-game:_ZN13MCSurfaceView10bindShadowEv
dustrac-game:_ZN13MCSurfaceView10setSurfaceESt10shared_ptrI9MCSurfaceE
dustrac-game:_ZN13MCSurfaceView12renderShadowERK10MCVector3dIfEfP8MCCamera
dustrac-game:_ZN13MCSurfaceView13releaseShadowEv
dustrac-game:_ZN13MCSurfaceView16setShaderProgramESt10shared_ptrI17MCGLShaderProgramE
dustrac-game:_ZN13MCSurfaceView22setShadowShaderProgramESt10shared_ptrI17MCGLShaderProgramE
dustrac-game:_ZN13MCSurfaceView4bindEv
dustrac-game:_ZN13MCSurfaceView6renderERK10MCVector3dIfEfP8MCCamera
dustrac-game:_ZN13MCSurfaceView7releaseEv
dustrac-game:_ZN13MCSurfaceView8setColorERK9MCGLColor
dustrac-game:_ZN13MCSurfaceView8setScaleERK10MCVector3dIfE
dustrac-game:_ZN13MCSurfaceViewC1ERKNSt7__cxx1112basic_stringIcSt11char_traitsIcESaIcEEESt10shared_ptrI9MCSurfaceE
dustrac-game:_ZN13MCSurfaceViewC2ERKNSt7__cxx1112basic_stringIcSt11char_traitsIcESaIcEEESt10shared_ptrI9MCSurfaceE
dustrac-game:_ZN13MCSurfaceViewD0Ev
dustrac-game:_ZN13MCSurfaceViewD1Ev
dustrac-game:_ZN13MCSurfaceViewD2Ev
dustrac-game:_ZN13MCTextureFont12setDensitiesEff
dustrac-game:_ZN13MCTextureFont15addGlyphMappingEw14MCTextureGlyph
dustrac-game:_ZN13MCTextureFont16setGlyphFallbackEww
dustrac-game:_ZN13MCTextureFont16setShaderProgramESt10shared_ptrI17MCGLShaderProgramE
dustrac-game:_ZN13MCTextureFont22setShadowShaderProgramESt10shared_ptrI17MCGLShaderProgramE
dustrac-game:_ZN13MCTextureFont5glyphEw
dustrac-game:_ZN13MCTextureFontC1ESt10shared_ptrI9MCSurfaceE
dustrac-game:_ZN13MCTextureFontC2ESt10shared_ptrI9MCSurfaceE
dustrac-game:_ZN13MCTextureText12setGlyphSizeEff
dustrac-game:_ZN13MCTextureText15setShadowOffsetEff
dustrac-game:_ZN13MCTextureText20updateTextDimensionsEv
dustrac-game:_ZN13MCTextureText6renderEffP8MCCameraR13MCTextureFontb
dustrac-game:_ZN13MCTextureText7setTextERKNSt7__cxx1112basic_stringIwSt11char_traitsIwESaIwEEE
dustrac-game:_ZN13MCTextureText8setColorERK9MCGLColor
dustrac-game:_ZN13MCTextureTextC1ERKNSt7__cxx1112basic_stringIwSt11char_traitsIwESaIwEEE
dustrac-game:_ZN13MCTextureTextC2ERKNSt7__cxx1112basic_stringIwSt11char_traitsIwESaIwEEE
dustrac-game:_ZN13MCTextureTextD1Ev
dustrac-game:_ZN13MCTextureTextD2Ev
dustrac-game:_ZN13OpenALOggData4loadERKNSt7__cxx1112basic_stringIcSt11char_traitsIcESaIcEEE
dustrac-game:_ZN13OpenALOggDataC1ERKNSt7__cxx1112basic_stringIcSt11char_traitsIcESaIcEEE
dustrac-game:_ZN13OpenALOggDataC2ERKNSt7__cxx1112basic_stringIcSt11char_traitsIcESaIcEEE
dustrac-game:_ZN13OpenALOggDataD0Ev
dustrac-game:_ZN13OpenALOggDataD1Ev
dustrac-game:_ZN13OpenALOggDataD2Ev
dustrac-game:_ZN13OpenALWavData4loadERKNSt7__cxx1112basic_stringIcSt11char_traitsIcESaIcEEE
dustrac-game:_ZN13OpenALWavDataC1ERKNSt7__cxx1112basic_stringIcSt11char_traitsIcESaIcEEE
dustrac-game:_ZN13OpenALWavDataC2ERKNSt7__cxx1112basic_stringIcSt11char_traitsIcESaIcEEE
dustrac-game:_ZN13OpenALWavDataD0Ev
dustrac-game:_ZN13OpenALWavDataD1Ev
dustrac-game:_ZN13OpenALWavDataD2Ev
dustrac-game:_ZN13TimingOverlay11qt_metacallEN11QMetaObject4CallEiPPv
dustrac-game:_ZN13TimingOverlay11qt_metacastEPKc
dustrac-game:_ZN13TimingOverlay11renderSpeedEv
dustrac-game:_ZN13TimingOverlay12setLapRecordEi
dustrac-game:_ZN13TimingOverlay13setRaceRecordEi
dustrac-game:_ZN13TimingOverlay14blinkCarStatusERK3Car
dustrac-game:_ZN13TimingOverlay14blinkCarStatusEv
dustrac-game:_ZN13TimingOverlay14blinkLapRecordEv
dustrac-game:_ZN13TimingOverlay14renderPositionEv
dustrac-game:_ZN13TimingOverlay14renderRaceTimeEv
dustrac-game:_ZN13TimingOverlay14setCarToFollowERK3Car
dustrac-game:_ZN13TimingOverlay15blinkRaceRecordEv
dustrac-game:_ZN13TimingOverlay16renderCurrentLapEv
dustrac-game:_ZN13TimingOverlay16staticMetaObjectE
dustrac-game:_ZN13TimingOverlay17renderLastLapTimeEv
dustrac-game:_ZN13TimingOverlay19renderCarStatusViewEv
dustrac-game:_ZN13TimingOverlay19renderRecordLapTimeEv
dustrac-game:_ZN13TimingOverlay20renderCurrentLapTimeEv
dustrac-game:_ZN13TimingOverlay6renderEv
dustrac-game:_ZN13TimingOverlay6updateEv
dustrac-game:_ZN13TimingOverlay7setRaceESt10shared_ptrI4RaceE
dustrac-game:_ZN13TimingOverlayC1Ev
dustrac-game:_ZN13TimingOverlayC2Ev
dustrac-game:_ZN13TrackDataBase12setUserTrackEb
dustrac-game:_ZN13TrackDataBase7setNameE7QString
dustrac-game:_ZN13TrackDataBase8setIndexEj
dustrac-game:_ZN13TrackDataBaseC1E7QStringb
dustrac-game:_ZN13TrackDataBaseC1ERKS_
dustrac-game:_ZN13TrackDataBaseC2E7QStringb
dustrac-game:_ZN13TrackDataBaseC2ERKS_
dustrac-game:_ZN13TrackDataBaseD0Ev
dustrac-game:_ZN13TrackDataBaseD1Ev
dustrac-game:_ZN13TrackDataBaseD2Ev
dustrac-game:_ZN13TrackTileBase11setLocationE7QPointF
dustrac-game:_ZN13TrackTileBase11setTileTypeERK7QString
dustrac-game:_ZN13TrackTileBase15setComputerHintENS_12ComputerHintE
dustrac-game:_ZN13TrackTileBase17setMatrixLocationE6QPoint
dustrac-game:_ZN13TrackTileBase21setExcludeFromMinimapEb
dustrac-game:_ZN13TrackTileBase5widthEv
dustrac-game:_ZN13TrackTileBase6heightEv
dustrac-game:_ZN13TrackTileBaseC1E7QPointF6QPointRK7QString
dustrac-game:_ZN13TrackTileBaseC2E7QPointF6QPointRK7QString
dustrac-game:_ZN13TrackTileBaseD0Ev
dustrac-game:_ZN13TrackTileBaseD1Ev
dustrac-game:_ZN13TrackTileBaseD2Ev
dustrac-game:_ZN14DifficultyMenu6MenuIdB5cxx11E
dustrac-game:_ZN14DifficultyMenuC1Eii
dustrac-game:_ZN14DifficultyMenuC2Eii
dustrac-game:_ZN14MCAssetManager10loadMeshesEv
dustrac-game:_ZN14MCAssetManager10m_instanceE
dustrac-game:_ZN14MCAssetManager11meshManagerEv
dustrac-game:_ZN14MCAssetManager12loadSurfacesEv
dustrac-game:_ZN14MCAssetManager14surfaceManagerEv
dustrac-game:_ZN14MCAssetManager18textureFontManagerEv
dustrac-game:_ZN14MCAssetManager4loadEv
dustrac-game:_ZN14MCAssetManager8instanceEv
dustrac-game:_ZN14MCAssetManager9loadFontsEv
dustrac-game:_ZN14MCAssetManagerC1ERKNSt7__cxx1112basic_stringIcSt11char_traitsIcESaIcEEES7_S7_S7_
dustrac-game:_ZN14MCAssetManagerC2ERKNSt7__cxx1112basic_stringIcSt11char_traitsIcESaIcEEES7_S7_S7_
dustrac-game:_ZN14MCAssetManagerD1Ev
dustrac-game:_ZN14MCAssetManagerD2Ev
dustrac-game:_ZN14MCGLObjectBase10bindShadowEv
dustrac-game:_ZN14MCGLObjectBase10m_boundVboE
dustrac-game:_ZN14MCGLObjectBase10releaseVAOEv
dustrac-game:_ZN14MCGLObjectBase10releaseVBOEv
dustrac-game:_ZN14MCGLObjectBase10setNormalsERKSt6vectorI10MCGLVertexSaIS1_EE
dustrac-game:_ZN14MCGLObjectBase11addTexCoordERK12MCGLTexCoord
dustrac-game:_ZN14MCGLObjectBase11setMaterialESt10shared_ptrI12MCGLMaterialE
dustrac-game:_ZN14MCGLObjectBase11setVerticesERKSt6vectorI10MCGLVertexSaIS1_EE
dustrac-game:_ZN14MCGLObjectBase12renderShadowEP8MCCameraRK10MCVector3dIfEf
dustrac-game:_ZN14MCGLObjectBase12setTexCoordsERKSt6vectorI12MCGLTexCoordSaIS1_EE
dustrac-game:_ZN14MCGLObjectBase13releaseShadowEv
dustrac-game:_ZN14MCGLObjectBase14initBufferDataEmj
dustrac-game:_ZN14MCGLObjectBase16addBufferSubDataEN17MCGLShaderProgram21VertexAttribLocationsEmPKf
dustrac-game:_ZN14MCGLObjectBase16addBufferSubDataEN17MCGLShaderProgram21VertexAttribLocationsEmmPKf
dustrac-game:_ZN14MCGLObjectBase16finishBufferDataEv
dustrac-game:_ZN14MCGLObjectBase16setShaderProgramESt10shared_ptrI17MCGLShaderProgramE
dustrac-game:_ZN14MCGLObjectBase20initUpdateBufferDataEv
dustrac-game:_ZN14MCGLObjectBase20setAttributePointersEv
dustrac-game:_ZN14MCGLObjectBase22setShadowShaderProgramESt10shared_ptrI17MCGLShaderProgramE
dustrac-game:_ZN14MCGLObjectBase23enableAttributePointersEv
dustrac-game:_ZN14MCGLObjectBase24disableAttributePointersEv
dustrac-game:_ZN14MCGLObjectBase4bindEv
dustrac-game:_ZN14MCGLObjectBase6renderEP8MCCameraRK10MCVector3dIfEf
dustrac-game:_ZN14MCGLObjectBase6renderEv
dustrac-game:_ZN14MCGLObjectBase7bindVAOEv
dustrac-game:_ZN14MCGLObjectBase7bindVBOEv
dustrac-game:_ZN14MCGLObjectBase7releaseEv
dustrac-game:_ZN14MCGLObjectBase7setMaxZEf
dustrac-game:_ZN14MCGLObjectBase7setMinZEf
dustrac-game:_ZN14MCGLObjectBase7setSizeEff
dustrac-game:_ZN14MCGLObjectBase8addColorERK9MCGLColor
dustrac-game:_ZN14MCGLObjectBase8setColorERK9MCGLColor
dustrac-game:_ZN14MCGLObjectBase8setScaleERK10MCVector3dIfE
dustrac-game:_ZN14MCGLObjectBase8setWidthEf
dustrac-game:_ZN14MCGLObjectBase9addNormalERK10MCGLVertex
dustrac-game:_ZN14MCGLObjectBase9addVertexERK10MCGLVertex
dustrac-game:_ZN14MCGLObjectBase9createVAOEv
dustrac-game:_ZN14MCGLObjectBase9createVBOEv
dustrac-game:_ZN14MCGLObjectBase9setColorsERKSt6vectorI9MCGLColorSaIS1_EE
dustrac-game:_ZN14MCGLObjectBase9setHandleERKNSt7__cxx1112basic_stringIcSt11char_traitsIcESaIcEEE
dustrac-game:_ZN14MCGLObjectBase9setHeightEf
dustrac-game:_ZN14MCGLObjectBaseC1ENSt7__cxx1112basic_stringIcSt11char_traitsIcESaIcEEE
dustrac-game:_ZN14MCGLObjectBaseC2ENSt7__cxx1112basic_stringIcSt11char_traitsIcESaIcEEE
dustrac-game:_ZN14MCGLObjectBaseD0Ev
dustrac-game:_ZN14MCGLObjectBaseD1Ev
dustrac-game:_ZN14MCGLObjectBaseD2Ev
dustrac-game:_ZN14MCTextureGlyphC1ENS_2UVES0_
dustrac-game:_ZN14MCTextureGlyphC2ENS_2UVES0_
dustrac-game:_ZN14MCTrigonomImplC1Ev
dustrac-game:_ZN14MCTrigonomImplC2Ev
dustrac-game:_ZN14MCTypeRegistry12registerTypeERKNSt7__cxx1112basic_stringIcSt11char_traitsIcESaIcEEE
dustrac-game:_ZN14MCTypeRegistry16getTypeIdForNameERKNSt7__cxx1112basic_stringIcSt11char_traitsIcESaIcEEE
dustrac-game:_ZN14MCTypeRegistryC1Ev
dustrac-game:_ZN14MCTypeRegistryC2Ev
dustrac-game:_ZN14MessageOverlay10addMessageE7QString
dustrac-game:_ZN14MessageOverlay10addMessageEPKw
dustrac-game:_ZN14MessageOverlay10addMessageERKNSt7__cxx1112basic_stringIwSt11char_traitsIwESaIwEEE
dustrac-game:_ZN14MessageOverlay11qt_metacallEN11QMetaObject4CallEiPPv
dustrac-game:_ZN14MessageOverlay11qt_metacastEPKc
dustrac-game:_ZN14MessageOverlay14renderMessagesEv
dustrac-game:_ZN14MessageOverlay16staticMetaObjectE
dustrac-game:_ZN14MessageOverlay6renderEv
dustrac-game:_ZN14MessageOverlay6updateEv
dustrac-game:_ZN14MessageOverlayC1ENS_9AlignmentEm
dustrac-game:_ZN14MessageOverlayC2ENS_9AlignmentEm
dustrac-game:_ZN14ResolutionMenu5enterEv
dustrac-game:_ZN14ResolutionMenuC1ESt10shared_ptrI16ConfirmationMenuENSt7__cxx1112basic_stringIcSt11char_traitsIcESaIcEEEiib
dustrac-game:_ZN14ResolutionMenuC2ESt10shared_ptrI16ConfirmationMenuENSt7__cxx1112basic_stringIcSt11char_traitsIcESaIcEEEiib
dustrac-game:_ZN14TargetNodeBase11setLocationE7QPointF
dustrac-game:_ZN14TargetNodeBase7setNextESt10shared_ptrIS_E
dustrac-game:_ZN14TargetNodeBase7setPrevESt10shared_ptrIS_E
dustrac-game:_ZN14TargetNodeBase7setSizeE6QSizeF
dustrac-game:_ZN14TargetNodeBase8setIndexEi
dustrac-game:_ZN14TargetNodeBaseC1Ev
dustrac-game:_ZN14TargetNodeBaseC2Ev
dustrac-game:_ZN15GraphicsFactory21generateMinimapMarkerEv
dustrac-game:_ZN15GraphicsFactory21generateNumberSurfaceEm
dustrac-game:_ZN15MCForceRegistry17addForceGeneratorESt10shared_ptrI16MCForceGeneratorER8MCObject
dustrac-game:_ZN15MCForceRegistry20removeForceGeneratorESt10shared_ptrI16MCForceGeneratorER8MCObject
dustrac-game:_ZN15MCForceRegistry21removeForceGeneratorsER8MCObject
dustrac-game:_ZN15MCForceRegistry5clearEv
dustrac-game:_ZN15MCForceRegistry6updateEv
dustrac-game:_ZN15MCForceRegistryC1Ev
dustrac-game:_ZN15MCForceRegistryC2Ev
dustrac-game:_ZN15MCObjectFactory5buildERK12MCObjectDataSt10shared_ptrI11MCShapeViewE
dustrac-game:_ZN15MCObjectFactory5buildERK16MCMeshObjectData
dustrac-game:_ZN15MCObjectFactory5buildERK19MCSurfaceObjectData
dustrac-game:_ZN15MCObjectFactoryC1ER14MCAssetManager
dustrac-game:_ZN15MCObjectFactoryC2ER14MCAssetManager
dustrac-game:_ZN15MCObjectFactoryD0Ev
dustrac-game:_ZN15MCObjectFactoryD1Ev
dustrac-game:_ZN15MCObjectFactoryD2Ev
dustrac-game:_ZN15MCWorldRenderer12buildBatchesEP8MCCamera
dustrac-game:_ZN15MCWorldRenderer12removeObjectER8MCObject
dustrac-game:_ZN15MCWorldRenderer13renderObjectsEP8MCCamera
dustrac-game:_ZN15MCWorldRenderer15enableDepthMaskEb
dustrac-game:_ZN15MCWorldRenderer15enableDepthTestEb
dustrac-game:_ZN15MCWorldRenderer15renderParticlesEP8MCCamera
dustrac-game:_ZN15MCWorldRenderer18buildObjectBatchesEP8MCCamera
dustrac-game:_ZN15MCWorldRenderer19renderObjectBatchesEP8MCCameraR13MCRenderLayer
dustrac-game:_ZN15MCWorldRenderer19renderObjectShadowsEP8MCCamera
dustrac-game:_ZN15MCWorldRenderer20buildParticleBatchesEP8MCCamera
dustrac-game:_ZN15MCWorldRenderer21renderParticleBatchesEP8MCCameraR13MCRenderLayer
dustrac-game:_ZN15MCWorldRenderer21renderParticleShadowsEP8MCCamera
dustrac-game:_ZN15MCWorldRenderer25renderObjectShadowBatchesEP8MCCameraR13MCRenderLayer
dustrac-game:_ZN15MCWorldRenderer27addParticleVisibilityCameraER8MCCamera
dustrac-game:_ZN15MCWorldRenderer27renderParticleShadowBatchesEP8MCCameraR13MCRenderLayer
dustrac-game:_ZN15MCWorldRenderer29createSurfaceParticleRendererEv
dustrac-game:_ZN15MCWorldRenderer31removeParticleVisibilityCamerasEv
dustrac-game:_ZN15MCWorldRenderer5clearEv
dustrac-game:_ZN15MCWorldRenderer6renderEP8MCCamera13MCRenderGroup
dustrac-game:_ZN15MCWorldRenderer7glSceneEv
dustrac-game:_ZN15MCWorldRenderer9addObjectER8MCObject
dustrac-game:_ZN15MCWorldRendererC1Ev
dustrac-game:_ZN15MCWorldRendererC2Ev
dustrac-game:_ZN15MCWorldRendererD1Ev
dustrac-game:_ZN15MCWorldRendererD2Ev
dustrac-game:_ZN15ParticleFactory10doParticleENS_12ParticleTypeERK10MCVector3dIfES4_i
dustrac-game:_ZN15ParticleFactory10m_instanceE
dustrac-game:_ZN15ParticleFactory18preCreateParticlesEv
dustrac-game:_ZN15ParticleFactory25preCreateSurfaceParticlesEmNSt7__cxx1112basic_stringIcSt11char_traitsIcESaIcEEENS_12ParticleTypeESt10shared_ptrI9MCSurfaceEbb
dustrac-game:_ZN15ParticleFactory8instanceEv
dustrac-game:_ZN15ParticleFactoryC1Ev
dustrac-game:_ZN15ParticleFactoryC2Ev
dustrac-game:_ZN15ParticleFactoryD1Ev
dustrac-game:_ZN15ParticleFactoryD2Ev
dustrac-game:_ZN16ConfirmationMenu15setAcceptActionESt10shared_ptrIN4MTFH14MenuItemActionEE
dustrac-game:_ZN16ConfirmationMenu15setAcceptActionESt8functionIFvvEE
dustrac-game:_ZN16ConfirmationMenu15setCancelActionESt10shared_ptrIN4MTFH14MenuItemActionEE
dustrac-game:_ZN16ConfirmationMenu15setCancelActionESt8functionIFvvEE
dustrac-game:_ZN16ConfirmationMenu17selectCurrentItemEv
dustrac-game:_ZN16ConfirmationMenu6renderEv
dustrac-game:_ZN16ConfirmationMenu7setTextENSt7__cxx1112basic_stringIwSt11char_traitsIwESaIwEEE
dustrac-game:_ZN16ConfirmationMenuC1ENSt7__cxx1112basic_stringIcSt11char_traitsIcESaIcEEEii
dustrac-game:_ZN16ConfirmationMenuC2ENSt7__cxx1112basic_stringIcSt11char_traitsIcESaIcEEEii
dustrac-game:_ZN16MCCollisionEvent6typeIdEv
dustrac-game:_ZN16MCCollisionEvent8m_typeIdE
dustrac-game:_ZN16MCCollisionEventC1ER8MCObject10MCVector3dIfE
dustrac-game:_ZN16MCCollisionEventC2ER8MCObject10MCVector3dIfE
dustrac-game:_ZN16MCCollisionEventD0Ev
dustrac-game:_ZN16MCCollisionEventD1Ev
dustrac-game:_ZN16MCCollisionEventD2Ev
dustrac-game:_ZN16MCForceGenerator6enableEb
dustrac-game:_ZN16MCForceGeneratorC1Ev
dustrac-game:_ZN16MCForceGeneratorC2Ev
dustrac-game:_ZN16MCForceGeneratorD0Ev
dustrac-game:_ZN16MCForceGeneratorD1Ev
dustrac-game:_ZN16MCForceGeneratorD2Ev
dustrac-game:_ZN16MCGLAmbientLight4setBEf
dustrac-game:_ZN16MCGLAmbientLight4setGEf
dustrac-game:_ZN16MCGLAmbientLight4setIEf
dustrac-game:_ZN16MCGLAmbientLight4setREf
dustrac-game:_ZN16MCGLAmbientLightC1Effff
dustrac-game:_ZN16MCGLAmbientLightC1Ev
dustrac-game:_ZN16MCGLAmbientLightC2Effff
dustrac-game:_ZN16MCGLAmbientLightC2Ev
dustrac-game:_ZN16MCGLDiffuseLight12setDirectionE10MCVector3dIfE
dustrac-game:_ZN16MCGLDiffuseLightC1E10MCVector3dIfEffff
dustrac-game:_ZN16MCGLDiffuseLightC1Ev
dustrac-game:_ZN16MCGLDiffuseLightC2E10MCVector3dIfEffff
dustrac-game:_ZN16MCGLDiffuseLightC2Ev
dustrac-game:_ZN16MCMeshObjectData9setMeshIdERKNSt7__cxx1112basic_stringIcSt11char_traitsIcESaIcEEE
dustrac-game:_ZN16MCMeshObjectDataC1ERKNSt7__cxx1112basic_stringIcSt11char_traitsIcESaIcEEE
dustrac-game:_ZN16MCMeshObjectDataC2ERKNSt7__cxx1112basic_stringIcSt11char_traitsIcESaIcEEE
dustrac-game:_ZN16MCMeshObjectDataD0Ev
dustrac-game:_ZN16MCMeshObjectDataD1Ev
dustrac-game:_ZN16MCMeshObjectDataD2Ev
dustrac-game:_ZN16MCSurfaceManager19createSurfaceCommonESt10shared_ptrI9MCSurfaceERK17MCSurfaceMetaData
dustrac-game:_ZN16MCSurfaceManager22createSurfaceFromImageERK17MCSurfaceMetaData6QImage
dustrac-game:_ZN16MCSurfaceManager24create2DTextureFromImageERK17MCSurfaceMetaDataRK6QImage
dustrac-game:_ZN16MCSurfaceManager4loadERKNSt7__cxx1112basic_stringIcSt11char_traitsIcESaIcEEES7_
dustrac-game:_ZN16MCSurfaceManagerC1Ev
dustrac-game:_ZN16MCSurfaceManagerC2Ev
dustrac-game:_ZN16MCSurfaceManagerD0Ev
dustrac-game:_ZN16MCSurfaceManagerD1Ev
dustrac-game:_ZN16MCSurfaceManagerD2Ev
dustrac-game:_ZN16OffTrackDetector6updateEv
dustrac-game:_ZN16OffTrackDetector8setTrackESt10shared_ptrI5TrackE
dustrac-game:_ZN16OffTrackDetectorC1ER3Car
dustrac-game:_ZN16OffTrackDetectorC2ER3Car
dustrac-game:_ZN16TextMenuItemView11setTextSizeEf
dustrac-game:_ZN16TextMenuItemView6renderEff
dustrac-game:_ZN16TextMenuItemView8stepTimeEi
dustrac-game:_ZN16TextMenuItemViewC1EfRN4MTFH8MenuItemE
dustrac-game:_ZN16TextMenuItemViewC2EfRN4MTFH8MenuItemE
dustrac-game:_ZN16TextMenuItemViewD0Ev
dustrac-game:_ZN16TextMenuItemViewD1Ev
dustrac-game:_ZN16TextMenuItemViewD2Ev
dustrac-game:_ZN17DifficultyProfile10m_instanceE
dustrac-game:_ZN17DifficultyProfile11qt_metacallEN11QMetaObject4CallEiPPv
dustrac-game:_ZN17DifficultyProfile11qt_metacastEPKc
dustrac-game:_ZN17DifficultyProfile13setDifficultyENS_10DifficultyE
dustrac-game:_ZN17DifficultyProfile16staticMetaObjectE
dustrac-game:_ZN17DifficultyProfile17difficultyChangedEv
dustrac-game:_ZN17DifficultyProfile8instanceEv
dustrac-game:_ZN17DifficultyProfileC1ENS_10DifficultyE
dustrac-game:_ZN17DifficultyProfileC2ENS_10DifficultyE
dustrac-game:_ZN17DifficultyProfileD0Ev
dustrac-game:_ZN17DifficultyProfileD1Ev
dustrac-game:_ZN17DifficultyProfileD2Ev
dustrac-game:_ZN17MCGLShaderProgram10popProgramEv
dustrac-game:_ZN17MCGLShaderProgram11pushProgramEv
dustrac-game:_ZN17MCGLShaderProgram12bindMaterialESt10shared_ptrI12MCGLMaterialE
dustrac-game:_ZN17MCGLShaderProgram12getShaderLogB5cxx11Ej
dustrac-game:_ZN17MCGLShaderProgram12setFadeValueEf
dustrac-game:_ZN17MCGLShaderProgram12setTransformEfRK10MCVector3dIfE
dustrac-game:_ZN17MCGLShaderProgram12setUserData1ERK10MCVector2dIfE
dustrac-game:_ZN17MCGLShaderProgram12setUserData2ERK10MCVector2dIfE
dustrac-game:_ZN17MCGLShaderProgram13setViewMatrixERKN3glm6detail7tmat4x4IfEE
dustrac-game:_ZN17MCGLShaderProgram14m_programStackE
dustrac-game:_ZN17MCGLShaderProgram15bindTextureUnitEjNS_7UniformE
dustrac-game:_ZN17MCGLShaderProgram15m_activeProgramE
dustrac-game:_ZN17MCGLShaderProgram15setAmbientLightERK16MCGLAmbientLight
dustrac-game:_ZN17MCGLShaderProgram15setDiffuseLightERK16MCGLDiffuseLight
dustrac-game:_ZN17MCGLShaderProgram16setSpecularLightERK16MCGLDiffuseLight
dustrac-game:_ZN17MCGLShaderProgram18getUniformLocationENS_7UniformE
dustrac-game:_ZN17MCGLShaderProgram18initUniformNameMapEv
dustrac-game:_ZN17MCGLShaderProgram20setPendingViewMatrixEv
dustrac-game:_ZN17MCGLShaderProgram22setPendingAmbientLightEv
dustrac-game:_ZN17MCGLShaderProgram22setPendingDiffuseLightEv
dustrac-game:_ZN17MCGLShaderProgram23setPendingSpecularLightEv
dustrac-game:_ZN17MCGLShaderProgram23setViewProjectionMatrixERKN3glm6detail7tmat4x4IfEE
dustrac-game:_ZN17MCGLShaderProgram24initUniformLocationCacheEv
dustrac-game:_ZN17MCGLShaderProgram25addVertexShaderFromSourceERKNSt7__cxx1112basic_stringIcSt11char_traitsIcESaIcEEE
dustrac-game:_ZN17MCGLShaderProgram27addFragmentShaderFromSourceERKNSt7__cxx1112basic_stringIcSt11char_traitsIcESaIcEEE
dustrac-game:_ZN17MCGLShaderProgram27addGeometryShaderFromSourceERKNSt7__cxx1112basic_stringIcSt11char_traitsIcESaIcEEE
dustrac-game:_ZN17MCGLShaderProgram28getDefaultVertexShaderSourceEv
dustrac-game:_ZN17MCGLShaderProgram30getDefaultFragmentShaderSourceEv
dustrac-game:_ZN17MCGLShaderProgram30setPendingViewProjectionMatrixEv
dustrac-game:_ZN17MCGLShaderProgram31getDefaultFBOVertexShaderSourceEv
dustrac-game:_ZN17MCGLShaderProgram32getDefaultTextVertexShaderSourceEv
dustrac-game:_ZN17MCGLShaderProgram33getDefaultFBOFragmentShaderSourceEv
dustrac-game:_ZN17MCGLShaderProgram34getDefaultShadowVertexShaderSourceEv
dustrac-game:_ZN17MCGLShaderProgram34getDefaultTextFragmentShaderSourceEv
dustrac-game:_ZN17MCGLShaderProgram36getDefaultShadowFragmentShaderSourceEv
dustrac-game:_ZN17MCGLShaderProgram36getDefaultSpecularVertexShaderSourceEv
dustrac-game:_ZN17MCGLShaderProgram40getDefaultTextShadowFragmentShaderSourceEv
dustrac-game:_ZN17MCGLShaderProgram4bindEv
dustrac-game:_ZN17MCGLShaderProgram4linkEv
dustrac-game:_ZN17MCGLShaderProgram7releaseEv
dustrac-game:_ZN17MCGLShaderProgram8isLinkedEv
dustrac-game:_ZN17MCGLShaderProgram8setColorERK9MCGLColor
dustrac-game:_ZN17MCGLShaderProgram8setScaleEfff
dustrac-game:_ZN17MCGLShaderProgram9setCameraERK10MCVector2dIfE
dustrac-game:_ZN17MCGLShaderProgramC1ERKNSt7__cxx1112basic_stringIcSt11char_traitsIcESaIcEEES7_
dustrac-game:_ZN17MCGLShaderProgramC1Ev
dustrac-game:_ZN17MCGLShaderProgramC2ERKNSt7__cxx1112basic_stringIcSt11char_traitsIcESaIcEEES7_
dustrac-game:_ZN17MCGLShaderProgramC2Ev
dustrac-game:_ZN17MCGLShaderProgramD0Ev
dustrac-game:_ZN17MCGLShaderProgramD1Ev
dustrac-game:_ZN17MCGLShaderProgramD2Ev
dustrac-game:_ZN17MCObjectComponent5resetEv
dustrac-game:_ZN17MCObjectComponent8stepTimeEi
dustrac-game:_ZN17MCObjectComponent9setObjectER8MCObject
dustrac-game:_ZN17MCObjectComponentC1Ev
dustrac-game:_ZN17MCObjectComponentC2Ev
dustrac-game:_ZN17MCObjectComponentD0Ev
dustrac-game:_ZN17MCObjectComponentD1Ev
dustrac-game:_ZN17MCObjectComponentD2Ev
dustrac-game:_ZN17MCSeparationEvent6typeIdEv
dustrac-game:_ZN17MCSeparationEvent8m_typeIdE
dustrac-game:_ZN17MCSeparationEventC1ER8MCObject
dustrac-game:_ZN17MCSeparationEventC2ER8MCObject
dustrac-game:_ZN17MCSeparationEventD0Ev
dustrac-game:_ZN17MCSeparationEventD1Ev
dustrac-game:_ZN17MCSeparationEventD2Ev
dustrac-game:_ZN17MCSurfaceParticle12setHasShadowEb
dustrac-game:_ZN17MCSurfaceParticle13setAlphaBlendEbjj
dustrac-game:_ZN17MCSurfaceParticle7surfaceEv
dustrac-game:_ZN17MCSurfaceParticle8setColorERK9MCGLColor
dustrac-game:_ZN17MCSurfaceParticleC1ERKNSt7__cxx1112basic_stringIcSt11char_traitsIcESaIcEEESt10shared_ptrI9MCSurfaceE
dustrac-game:_ZN17MCSurfaceParticleC2ERKNSt7__cxx1112basic_stringIcSt11char_traitsIcESaIcEEESt10shared_ptrI9MCSurfaceE
dustrac-game:_ZN17MCVectorAnimation4initER10MCVector3dIfERKS1_S4_mmm
dustrac-game:_ZN17MCVectorAnimation6updateEv
dustrac-game:_ZN17MCVectorAnimationC1Ev
dustrac-game:_ZN17MCVectorAnimationC2Ev
dustrac-game:_ZN17MCVectorAnimationD0Ev
dustrac-game:_ZN17MCVectorAnimationD1Ev
dustrac-game:_ZN17MCVectorAnimationD2Ev
dustrac-game:_ZN18MCImpulseGenerator16resolvePositionsERSt6vectorIP8MCObjectSaIS2_EEf
dustrac-game:_ZN18MCImpulseGenerator26getDeepestInterpenetrationERKSt6vectorIP9MCContactSaIS2_EE
dustrac-game:_ZN18MCImpulseGenerator27generateImpulsesFromContactER8MCObjectS1_RK9MCContactRK10MCVector3dIfEf
dustrac-game:_ZN18MCImpulseGenerator35generateImpulsesFromDeepestContactsERSt6vectorIP8MCObjectSaIS2_EE
dustrac-game:_ZN18MCImpulseGenerator8displaceER8MCObjectS1_RK10MCVector3dIfE
dustrac-game:_ZN18MCImpulseGeneratorC1Ev
dustrac-game:_ZN18MCImpulseGeneratorC2Ev
dustrac-game:_ZN18MCMeshConfigLoader15parseAttributesERK11QDomElementSt10shared_ptrI14MCMeshMetaDataERKNSt7__cxx1112basic_stringIcSt11char_traitsIcESaIcEEE
dustrac-game:_ZN18MCMeshConfigLoader15parseChildNodesERK8QDomNodeSt10shared_ptrI14MCMeshMetaDataE
dustrac-game:_ZN18MCMeshConfigLoader4loadERKNSt7__cxx1112basic_stringIcSt11char_traitsIcESaIcEEE
dustrac-game:_ZN18MCPhysicsComponent10addImpulseERK10MCVector3dIfES3_b
dustrac-game:_ZN18MCPhysicsComponent10addImpulseERK10MCVector3dIfEb
dustrac-game:_ZN18MCPhysicsComponent11setMaxSpeedEf
dustrac-game:_ZN18MCPhysicsComponent11setVelocityERK10MCVector3dIfE
dustrac-game:_ZN18MCPhysicsComponent11toggleSleepEb
dustrac-game:_ZN18MCPhysicsComponent13setXYFrictionEf
dustrac-game:_ZN18MCPhysicsComponent14setRestitutionEf
dustrac-game:_ZN18MCPhysicsComponent14setSleepLimitsEff
dustrac-game:_ZN18MCPhysicsComponent15integrateLinearEf
dustrac-game:_ZN18MCPhysicsComponent15preventSleepingEb
dustrac-game:_ZN18MCPhysicsComponent15setAccelerationERK10MCVector3dIfE
dustrac-game:_ZN18MCPhysicsComponent15setCollisionTagEi
dustrac-game:_ZN18MCPhysicsComponent16integrateAngularEf
dustrac-game:_ZN18MCPhysicsComponent16setLinearDampingEf
dustrac-game:_ZN18MCPhysicsComponent17addAngularImpulseEfb
dustrac-game:_ZN18MCPhysicsComponent17setAngularDampingEf
dustrac-game:_ZN18MCPhysicsComponent18setAngularVelocityEf
dustrac-game:_ZN18MCPhysicsComponent18setMomentOfInertiaEf
dustrac-game:_ZN18MCPhysicsComponent22setNeverCollideWithTagEi
dustrac-game:_ZN18MCPhysicsComponent5resetEv
dustrac-game:_ZN18MCPhysicsComponent6resetZEv
dustrac-game:_ZN18MCPhysicsComponent7setMassEfb
dustrac-game:_ZN18MCPhysicsComponent8addForceERK10MCVector3dIfE
dustrac-game:_ZN18MCPhysicsComponent8addForceERK10MCVector3dIfES3_
dustrac-game:_ZN18MCPhysicsComponent8stepTimeEi
dustrac-game:_ZN18MCPhysicsComponent9addTorqueEf
dustrac-game:_ZN18MCPhysicsComponent9integrateEf
dustrac-game:_ZN18MCPhysicsComponentC1Ev
dustrac-game:_ZN18MCPhysicsComponentC2Ev
dustrac-game:_ZN18MCPhysicsComponentD0Ev
dustrac-game:_ZN18MCPhysicsComponentD1Ev
dustrac-game:_ZN18MCPhysicsComponentD2Ev
dustrac-game:_ZN18StartlightsOverlay13setDimensionsEmm
dustrac-game:_ZN18StartlightsOverlay6renderEv
dustrac-game:_ZN18StartlightsOverlayC1ER11Startlights
dustrac-game:_ZN18StartlightsOverlayC2ER11Startlights
dustrac-game:_ZN18TrackObjectFactory5buildE7QStringS0_10MCVector2dIfEib
dustrac-game:_ZN18TrackObjectFactoryC1ER15MCObjectFactory
dustrac-game:_ZN18TrackObjectFactoryC2ER15MCObjectFactory
dustrac-game:_ZN18TrackSelectionMenu17selectCurrentItemEv
dustrac-game:_ZN18TrackSelectionMenu2upEv
dustrac-game:_ZN18TrackSelectionMenu4downEv
dustrac-game:_ZN18TrackSelectionMenu4exitEv
dustrac-game:_ZN18TrackSelectionMenu4leftEv
dustrac-game:_ZN18TrackSelectionMenu5rightEv
dustrac-game:_ZN18TrackSelectionMenu6MenuIdB5cxx11E
dustrac-game:_ZN18TrackSelectionMenu8addTrackESt10shared_ptrI5TrackE
dustrac-game:_ZN18TrackSelectionMenuC1EiiR5Scene
dustrac-game:_ZN18TrackSelectionMenuC2EiiR5Scene
dustrac-game:_ZN19CarPhysicsComponent10addImpulseERK10MCVector3dIfEb
dustrac-game:_ZN19CarPhysicsComponentC1ER3Car
dustrac-game:_ZN19CarPhysicsComponentC2ER3Car
dustrac-game:_ZN19MCCollisionDetector16detectCollisionsER12MCObjectGrid
dustrac-game:_ZN19MCCollisionDetector19testRectAgainstRectER11MCRectShapeS1_
dustrac-game:_ZN19MCCollisionDetector21areCurrentlyCollidingER8MCObjectS1_
dustrac-game:_ZN19MCCollisionDetector21testRectAgainstCircleER11MCRectShapeR13MCCircleShape
dustrac-game:_ZN19MCCollisionDetector23testCircleAgainstCircleER13MCCircleShapeS1_
dustrac-game:_ZN19MCCollisionDetector24iterateCurrentCollisionsEv
dustrac-game:_ZN19MCCollisionDetector24processPossibleCollisionER8MCObjectS1_
dustrac-game:_ZN19MCCollisionDetector5clearEv
dustrac-game:_ZN19MCCollisionDetector6removeER8MCObject
dustrac-game:_ZN19MCCollisionDetectorC1Ev
dustrac-game:_ZN19MCCollisionDetectorC2Ev
dustrac-game:_ZN19MCFrictionGenerator11updateForceER8MCObject
dustrac-game:_ZN19MCFrictionGeneratorC1Eff
dustrac-game:_ZN19MCFrictionGeneratorC2Eff
dustrac-game:_ZN19MCFrictionGeneratorD0Ev
dustrac-game:_ZN19MCFrictionGeneratorD1Ev
dustrac-game:_ZN19MCFrictionGeneratorD2Ev
dustrac-game:_ZN19MCSurfaceObjectData12setSurfaceIdERKNSt7__cxx1112basic_stringIcSt11char_traitsIcESaIcEEE
dustrac-game:_ZN19MCSurfaceObjectData21setDefaultCircleShapeEb
dustrac-game:_ZN19MCSurfaceObjectDataC1ERKNSt7__cxx1112basic_stringIcSt11char_traitsIcESaIcEEE
dustrac-game:_ZN19MCSurfaceObjectDataC2ERKNSt7__cxx1112basic_stringIcSt11char_traitsIcESaIcEEE
dustrac-game:_ZN19MCSurfaceObjectDataD0Ev
dustrac-game:_ZN19MCSurfaceObjectDataD1Ev
dustrac-game:_ZN19MCSurfaceObjectDataD2Ev
dustrac-game:_ZN20MCDragForceGenerator11updateForceER8MCObject
dustrac-game:_ZN20MCDragForceGeneratorC1Eff
dustrac-game:_ZN20MCDragForceGeneratorC2Eff
dustrac-game:_ZN20MCDragForceGeneratorD0Ev
dustrac-game:_ZN20MCDragForceGeneratorD1Ev
dustrac-game:_ZN20MCDragForceGeneratorD2Ev
dustrac-game:_ZN20MCForceGeneratorImplC1Ev
dustrac-game:_ZN20MCForceGeneratorImplC2Ev
dustrac-game:_ZN20MCTextureFontManager18createFontFromDataERK17MCTextureFontData
dustrac-game:_ZN20MCTextureFontManager4loadERKNSt7__cxx1112basic_stringIcSt11char_traitsIcESaIcEEE
dustrac-game:_ZN20MCTextureFontManagerC1ERK16MCSurfaceManager
dustrac-game:_ZN20MCTextureFontManagerC2ERK16MCSurfaceManager
dustrac-game:_ZN20MCTextureFontManagerD0Ev
dustrac-game:_ZN20MCTextureFontManagerD1Ev
dustrac-game:_ZN20MCTextureFontManagerD2Ev
dustrac-game:_ZN21CarSoundEffectManager11qt_metacallEN11QMetaObject4CallEiPPv
dustrac-game:_ZN21CarSoundEffectManager11qt_metacastEPKc
dustrac-game:_ZN21CarSoundEffectManager15stopEngineSoundEv
dustrac-game:_ZN21CarSoundEffectManager16processSkidSoundEv
dustrac-game:_ZN21CarSoundEffectManager16startEngineSoundEv
dustrac-game:_ZN21CarSoundEffectManager16staticMetaObjectE
dustrac-game:_ZN21CarSoundEffectManager18processEngineSoundEv
dustrac-game:_ZN21CarSoundEffectManager6updateEv
dustrac-game:_ZN21CarSoundEffectManager9collisionER8MCObject
dustrac-game:_ZN21CarSoundEffectManagerC1ER3CarRKNS_17MultiSoundHandlesE
dustrac-game:_ZN21CarSoundEffectManagerC2ER3CarRKNS_17MultiSoundHandlesE
dustrac-game:_ZN21CarSoundEffectManagerD0Ev
dustrac-game:_ZN21CarSoundEffectManagerD1Ev
dustrac-game:_ZN21CarSoundEffectManagerD2Ev
dustrac-game:_ZN21MCSurfaceConfigLoader15parseAttributesERK11QDomElementSt10shared_ptrI17MCSurfaceMetaDataERKNSt7__cxx1112basic_stringIcSt11char_traitsIcESaIcEEE
dustrac-game:_ZN21MCSurfaceConfigLoader15parseChildNodesERK8QDomNodeSt10shared_ptrI17MCSurfaceMetaDataE
dustrac-game:_ZN21MCSurfaceConfigLoader4loadERKNSt7__cxx1112basic_stringIcSt11char_traitsIcESaIcEEE
dustrac-game:_ZN21MCSurfaceConfigLoaderC1Ev
dustrac-game:_ZN21MCSurfaceConfigLoaderC2Ev
dustrac-game:_ZN22MCOutOfBoundariesEvent6typeIdEv
dustrac-game:_ZN22MCOutOfBoundariesEvent8m_typeIdE
dustrac-game:_ZN22MCOutOfBoundariesEventC1ENS_12ViolatedEdgeER8MCObject
dustrac-game:_ZN22MCOutOfBoundariesEventC2ENS_12ViolatedEdgeER8MCObject
dustrac-game:_ZN22MCOutOfBoundariesEventD0Ev
dustrac-game:_ZN22MCOutOfBoundariesEventD1Ev
dustrac-game:_ZN22MCOutOfBoundariesEventD2Ev
dustrac-game:_ZN22MCParticleRendererBase12setBatchSizeEm
dustrac-game:_ZN22MCParticleRendererBase12setHasShadowEb
dustrac-game:_ZN22MCParticleRendererBase13setAlphaBlendEbjj
dustrac-game:_ZN22MCParticleRendererBaseC1Em
dustrac-game:_ZN22MCParticleRendererBaseC2Em
dustrac-game:_ZN22MCParticleRendererBaseD0Ev
dustrac-game:_ZN22MCParticleRendererBaseD1Ev
dustrac-game:_ZN22MCParticleRendererBaseD2Ev
dustrac-game:_ZN24CarParticleEffectManager13doDamageSmokeEv
dustrac-game:_ZN24CarParticleEffectManager14doLeftSkidMarkEN15ParticleFactory12ParticleTypeE
dustrac-game:_ZN24CarParticleEffectManager15doRightSkidMarkEN15ParticleFactory12ParticleTypeE
dustrac-game:_ZN24CarParticleEffectManager18calculateSkidAngleEfdd
dustrac-game:_ZN24CarParticleEffectManager19doOnTrackAnimationsEv
dustrac-game:_ZN24CarParticleEffectManager20doOffTrackAnimationsEv
dustrac-game:_ZN24CarParticleEffectManager6updateEv
dustrac-game:_ZN24CarParticleEffectManager9collisionEmRK10MCVector3dIfE
dustrac-game:_ZN24CarParticleEffectManagerC1ER3Car
dustrac-game:_ZN24CarParticleEffectManagerC2ER3Car
dustrac-game:_ZN25MCSurfaceParticleRenderer13renderShadowsEv
dustrac-game:_ZN25MCSurfaceParticleRenderer24m_numVerticesPerParticleE
dustrac-game:_ZN25MCSurfaceParticleRenderer6renderEv
dustrac-game:_ZN25MCSurfaceParticleRenderer8setBatchERN13MCRenderLayer11ObjectBatchEP8MCCamerab
dustrac-game:_ZN25MCSurfaceParticleRendererC1Em
dustrac-game:_ZN25MCSurfaceParticleRendererC2Em
dustrac-game:_ZN25MCTextureFontConfigLoader13setConfigPathERKNSt7__cxx1112basic_stringIcSt11char_traitsIcESaIcEEE
dustrac-game:_ZN25MCTextureFontConfigLoader9loadFontsEv
dustrac-game:_ZN25MCTextureFontConfigLoaderC1Ev
dustrac-game:_ZN25MCTextureFontConfigLoaderC2Ev
dustrac-game:_ZN25MCTextureFontConfigLoaderD1Ev
dustrac-game:_ZN25MCTextureFontConfigLoaderD2Ev
dustrac-game:_ZN2AI12speedControlER9TrackTileb
dustrac-game:_ZN2AI12steerControlESt10shared_ptrI14TargetNodeBaseE
dustrac-game:_ZN2AI18setRandomToleranceEv
dustrac-game:_ZN2AI6updateEb
dustrac-game:_ZN2AI8setTrackESt10shared_ptrI5TrackE
dustrac-game:_ZN2AIC1ER3CarSt10shared_ptrI4RaceE
dustrac-game:_ZN2AIC2ER3CarSt10shared_ptrI4RaceE
dustrac-game:_ZN3Car10accelerateEb
dustrac-game:_ZN3Car10onStepTimeEi
dustrac-game:_ZN3Car11createTiresEv
dustrac-game:_ZN3Car11resetDamageEv
dustrac-game:_ZN3Car12hadHardCrashEv
dustrac-game:_ZN3Car12wearOutTiresEif
dustrac-game:_ZN3Car13resetTireWearEv
dustrac-game:_ZN3Car13setPropertiesERNS_11DescriptionE
dustrac-game:_ZN3Car14collisionEventER16MCCollisionEvent
dustrac-game:_ZN3Car14updateTireWearEi
dustrac-game:_ZN3Car15setBrakeEnabledEb
dustrac-game:_ZN3Car16doTireSpinEffectEv
dustrac-game:_ZN3Car16updateAnimationsEv
dustrac-game:_ZN3Car18createChildObjectsEfm
dustrac-game:_ZN3Car19initForceGeneratorsERNS_11DescriptionE
dustrac-game:_ZN3Car19setLeftSideOffTrackEb
dustrac-game:_ZN3Car20setRightSideOffTrackEb
dustrac-game:_ZN3Car21setAcceleratorEnabledEb
dustrac-game:_ZN3Car21setSoundEffectManagerESt10shared_ptrI21CarSoundEffectManagerE
dustrac-game:_ZN3Car5steerENS_5SteerEf
dustrac-game:_ZN3Car9addDamageEf
dustrac-game:_ZN3Car9isSlidingEv
dustrac-game:_ZN3CarC1ERNS_11DescriptionESt10shared_ptrI9MCSurfaceEmb
dustrac-game:_ZN3CarC2ERNS_11DescriptionESt10shared_ptrI9MCSurfaceEmb
dustrac-game:_ZN3CarD0Ev
dustrac-game:_ZN3CarD1Ev
dustrac-game:_ZN3CarD2Ev
dustrac-game:_ZN3MapC1Emm
dustrac-game:_ZN3MapC2Emm
dustrac-game:_ZN3MapD0Ev
dustrac-game:_ZN3MapD1Ev
dustrac-game:_ZN3MapD2Ev
dustrac-game:_ZN3Pit10onStepTimeEi
dustrac-game:_ZN3Pit11qt_metacallEN11QMetaObject4CallEiPPv
dustrac-game:_ZN3Pit11qt_metacastEPKc
dustrac-game:_ZN3Pit14collisionEventER16MCCollisionEvent
dustrac-game:_ZN3Pit15separationEventER17MCSeparationEvent
dustrac-game:_ZN3Pit16staticMetaObjectE
dustrac-game:_ZN3Pit5resetEv
dustrac-game:_ZN3Pit7pitStopER3Car
dustrac-game:_ZN3PitC1ESt10shared_ptrI9MCSurfaceE
dustrac-game:_ZN3PitC2ESt10shared_ptrI9MCSurfaceE
dustrac-game:_ZN4Game10loadTracksEv
dustrac-game:_ZN4Game10m_instanceE
dustrac-game:_ZN4Game11audioWorkerEv
dustrac-game:_ZN4Game11qt_metacallEN11QMetaObject4CallEiPPv
dustrac-game:_ZN4Game11qt_metacastEPKc
dustrac-game:_ZN4Game11setLapCountEi
dustrac-game:_ZN4Game11togglePauseEv
dustrac-game:_ZN4Game12eventHandlerEv
dustrac-game:_ZN4Game12setSplitTypeENS_9SplitTypeE
dustrac-game:_ZN4Game14createRendererEv
dustrac-game:_ZN4Game15adjustSceneSizeEii
dustrac-game:_ZN4Game16staticMetaObjectE
dustrac-game:_ZN4Game17difficultyProfileEv
dustrac-game:_ZN4Game19addTrackSearchPathsEv
dustrac-game:_ZN4Game3runEv
dustrac-game:_ZN4Game4initEv
dustrac-game:_ZN4Game4stopEv
dustrac-game:_ZN4Game5startEv
dustrac-game:_ZN4Game6setFpsENS_3FpsE
dustrac-game:_ZN4Game7setModeENS_4ModeE
dustrac-game:_ZN4Game8exitGameEv
dustrac-game:_ZN4Game8instanceEv
dustrac-game:_ZN4Game9initSceneEv
dustrac-game:_ZN4Game9parseArgsEiPPc
dustrac-game:_ZN4GameC1ERiPPc
dustrac-game:_ZN4GameC2ERiPPc
dustrac-game:_ZN4GameD0Ev
dustrac-game:_ZN4GameD1Ev
dustrac-game:_ZN4GameD2Ev
dustrac-game:_ZN4Help6renderEv
dustrac-game:_ZN4HelpC1ENSt7__cxx1112basic_stringIcSt11char_traitsIcESaIcEEEii
dustrac-game:_ZN4HelpC2ENSt7__cxx1112basic_stringIcSt11char_traitsIcESaIcEEEii
dustrac-game:_ZN4MTFH11MenuManager10m_instanceE
dustrac-game:_ZN4MTFH11MenuManager10mousePressEiiii
dustrac-game:_ZN4MTFH11MenuManager11getMenuByIdENSt7__cxx1112basic_stringIcSt11char_traitsIcESaIcEEE
dustrac-game:_ZN4MTFH11MenuManager12mouseReleaseEiiii
dustrac-game:_ZN4MTFH11MenuManager16enterCurrentMenuEv
dustrac-game:_ZN4MTFH11MenuManager17selectCurrentItemEv
dustrac-game:_ZN4MTFH11MenuManager2upEv
dustrac-game:_ZN4MTFH11MenuManager4downEv
dustrac-game:_ZN4MTFH11MenuManager4exitEv
dustrac-game:_ZN4MTFH11MenuManager4leftEv
dustrac-game:_ZN4MTFH11MenuManager5rightEv
dustrac-game:_ZN4MTFH11MenuManager6renderEv
dustrac-game:_ZN4MTFH11MenuManager7addMenuESt10shared_ptrINS_4MenuEE
dustrac-game:_ZN4MTFH11MenuManager7popMenuEv
dustrac-game:_ZN4MTFH11MenuManager8instanceEv
dustrac-game:_ZN4MTFH11MenuManager8pushMenuENSt7__cxx1112basic_stringIcSt11char_traitsIcESaIcEEE
dustrac-game:_ZN4MTFH11MenuManager8pushMenuESt10shared_ptrINS_4MenuEE
dustrac-game:_ZN4MTFH11MenuManager8stepTimeEi
dustrac-game:_ZN4MTFH11MenuManager9enterMenuENSt7__cxx1112basic_stringIcSt11char_traitsIcESaIcEEE
dustrac-game:_ZN4MTFH11MenuManager9enterMenuESt10shared_ptrINS_4MenuEE
dustrac-game:_ZN4MTFH11MenuManager9popToMenuENSt7__cxx1112basic_stringIcSt11char_traitsIcESaIcEEE
dustrac-game:_ZN4MTFH11MenuManagerC1Ev
dustrac-game:_ZN4MTFH11MenuManagerC2Ev
dustrac-game:_ZN4MTFH12MenuItemView8stepTimeEi
dustrac-game:_ZN4MTFH12MenuItemViewC1ERNS_8MenuItemE
dustrac-game:_ZN4MTFH12MenuItemViewC2ERNS_8MenuItemE
dustrac-game:_ZN4MTFH12MenuItemViewD0Ev
dustrac-game:_ZN4MTFH12MenuItemViewD1Ev
dustrac-game:_ZN4MTFH12MenuItemViewD2Ev
dustrac-game:_ZN4MTFH14AnimationCurve4stepEv
dustrac-game:_ZN4MTFH14AnimationCurve5resetEv
dustrac-game:_ZN4MTFH14AnimationCurveC1Eii
dustrac-game:_ZN4MTFH14AnimationCurveC2Eii
dustrac-game:_ZN4MTFH14MenuItemActionC1Ev
dustrac-game:_ZN4MTFH14MenuItemActionC2Ev
dustrac-game:_ZN4MTFH14MenuItemActionD0Ev
dustrac-game:_ZN4MTFH14MenuItemActionD1Ev
dustrac-game:_ZN4MTFH14MenuItemActionD2Ev
dustrac-game:_ZN4MTFH4Menu10checkIfHitESt10shared_ptrINS_8MenuItemEEii
dustrac-game:_ZN4MTFH4Menu11renderItemsEv
dustrac-game:_ZN4MTFH4Menu11updateFocusEv
dustrac-game:_ZN4MTFH4Menu12addMouseItemENS0_13MouseItemTypeESt10shared_ptrINS_8MenuItemEE
dustrac-game:_ZN4MTFH4Menu12reverseItemsEv
dustrac-game:_ZN4MTFH4Menu13setWrapAroundEb
dustrac-game:_ZN4MTFH4Menu14incrementIndexEi
dustrac-game:_ZN4MTFH4Menu14setItemsToShowERKSt6vectorIiSaIiEE
dustrac-game:_ZN4MTFH4Menu15setCurrentIndexEi
dustrac-game:_ZN4MTFH4Menu16handleMousePressEiiii
dustrac-game:_ZN4MTFH4Menu16renderMouseItemsEv
dustrac-game:_ZN4MTFH4Menu17positionAnimationEi
dustrac-game:_ZN4MTFH4Menu17selectCurrentItemEv
dustrac-game:_ZN4MTFH4Menu18handleMouseReleaseEiiii
dustrac-game:_ZN4MTFH4Menu22handleMousePressOnItemEii
dustrac-game:_ZN4MTFH4Menu24handleMouseReleaseOnItemEii
dustrac-game:_ZN4MTFH4Menu25setCurrentIndexWrapAroundEi
dustrac-game:_ZN4MTFH4Menu27handleMousePressOnMouseItemEii
dustrac-game:_ZN4MTFH4Menu29handleMouseReleaseOnMouseItemEii
dustrac-game:_ZN4MTFH4Menu2upEv
dustrac-game:_ZN4MTFH4Menu4downEv
dustrac-game:_ZN4MTFH4Menu4exitEv
dustrac-game:_ZN4MTFH4Menu4leftEv
dustrac-game:_ZN4MTFH4Menu5enterEv
dustrac-game:_ZN4MTFH4Menu5rightEv
dustrac-game:_ZN4MTFH4Menu6renderEv
dustrac-game:_ZN4MTFH4Menu6setPosEff
dustrac-game:_ZN4MTFH4Menu6setPosEffff
dustrac-game:_ZN4MTFH4Menu7addItemESt10shared_ptrINS_8MenuItemEE
dustrac-game:_ZN4MTFH4Menu7popExitEv
dustrac-game:_ZN4MTFH4Menu8popEnterEv
dustrac-game:_ZN4MTFH4Menu8pushExitEv
dustrac-game:_ZN4MTFH4Menu8stepTimeEi
dustrac-game:_ZN4MTFH4Menu9pushEnterEv
dustrac-game:_ZN4MTFH4Menu9setIsDoneEb
dustrac-game:_ZN4MTFH4MenuC1ENSt7__cxx1112basic_stringIcSt11char_traitsIcESaIcEEEiiNS0_5StyleE
dustrac-game:_ZN4MTFH4MenuC2ENSt7__cxx1112basic_stringIcSt11char_traitsIcESaIcEEEiiNS0_5StyleE
dustrac-game:_ZN4MTFH4MenuD0Ev
dustrac-game:_ZN4MTFH4MenuD1Ev
dustrac-game:_ZN4MTFH4MenuD2Ev
dustrac-game:_ZN4MTFH8MenuItem10setCurrentEv
dustrac-game:_ZN4MTFH8MenuItem10setFocusedEb
dustrac-game:_ZN4MTFH8MenuItem11setSelectedEb
dustrac-game:_ZN4MTFH8MenuItem17positionAnimationEi
dustrac-game:_ZN4MTFH8MenuItem17setMenuOpenActionERKNSt7__cxx1112basic_stringIcSt11char_traitsIcESaIcEEE
dustrac-game:_ZN4MTFH8MenuItem18setContentsMarginsEffff
dustrac-game:_ZN4MTFH8MenuItem19resetAnimationCurveEii
dustrac-game:_ZN4MTFH8MenuItem4onUpEv
dustrac-game:_ZN4MTFH8MenuItem4viewEv
dustrac-game:_ZN4MTFH8MenuItem6onDownEv
dustrac-game:_ZN4MTFH8MenuItem6onLeftEv
dustrac-game:_ZN4MTFH8MenuItem6renderEv
dustrac-game:_ZN4MTFH8MenuItem6setPosEff
dustrac-game:_ZN4MTFH8MenuItem6setPosEffff
dustrac-game:_ZN4MTFH8MenuItem7onRightEv
dustrac-game:_ZN4MTFH8MenuItem7setMenuEPNS_4MenuE
dustrac-game:_ZN4MTFH8MenuItem7setViewESt10shared_ptrINS_12MenuItemViewEE
dustrac-game:_ZN4MTFH8MenuItem8setIndexEi
dustrac-game:_ZN4MTFH8MenuItem8stepTimeEi
dustrac-game:_ZN4MTFH8MenuItem9setActionESt10shared_ptrINS_14MenuItemActionEE
dustrac-game:_ZN4MTFH8MenuItem9setActionESt8functionIFvvEE
dustrac-game:_ZN4MTFH8MenuItemC1EffNSt7__cxx1112basic_stringIwSt11char_traitsIwESaIwEEEb
dustrac-game:_ZN4MTFH8MenuItemC2EffNSt7__cxx1112basic_stringIwSt11char_traitsIwESaIwEEEb
dustrac-game:_ZN4MTFH8MenuItemD0Ev
dustrac-game:_ZN4MTFH8MenuItemD1Ev
dustrac-game:_ZN4MTFH8MenuItemD2Ev
dustrac-game:_ZN4Race10initTimingEv
dustrac-game:_ZN4Race10removeCarsEv
dustrac-game:_ZN4Race11qt_metacallEN11QMetaObject4CallEiPPv
dustrac-game:_ZN4Race11qt_metacastEPKc
dustrac-game:_ZN4Race12tiresChangedERK3Car
dustrac-game:_ZN4Race14clearPositionsEv
dustrac-game:_ZN4Race14clearRaceFlagsEv
dustrac-game:_ZN4Race15updatePositionsEv
dustrac-game:_ZN4Race16messageRequestedE7QString
dustrac-game:_ZN4Race16staticMetaObjectE
dustrac-game:_ZN4Race16stopEngineSoundsEv
dustrac-game:_ZN4Race17checkIfCarIsStuckER3Car
dustrac-game:_ZN4Race19updateRouteProgressER3Car
dustrac-game:_ZN4Race20checkIfCarIsOffTrackER3Car
dustrac-game:_ZN4Race21checkIfLapIsCompletedER3CarRK5Routem
dustrac-game:_ZN4Race22createStartGridObjectsEv
dustrac-game:_ZN4Race23checkForNewBestPositionERK3Car
dustrac-game:_ZN4Race29moveCarOntoPreviousCheckPointER3Car
dustrac-game:_ZN4Race29translateCarsToStartPositionsEv
dustrac-game:_ZN4Race4initESt10shared_ptrI5TrackEm
dustrac-game:_ZN4Race5startEv
dustrac-game:_ZN4Race6addCarER3Car
dustrac-game:_ZN4Race6timingEv
dustrac-game:_ZN4Race6updateEv
dustrac-game:_ZN4Race7pitStopER3Car
dustrac-game:_ZN4Race7startedEv
dustrac-game:_ZN4Race8finishedEv
dustrac-game:_ZN4Race8initCarsEv
dustrac-game:_ZN4Race8setTrackESt10shared_ptrI5TrackEm
dustrac-game:_ZN4RaceC1ER4Gamem
dustrac-game:_ZN4RaceC2ER4Gamem
dustrac-game:_ZN4RaceD0Ev
dustrac-game:_ZN4RaceD1Ev
dustrac-game:_ZN4RaceD2Ev
dustrac-game:_ZN4STFH4Data4loadERKNSt7__cxx1112basic_stringIcSt11char_traitsIcESaIcEEE
dustrac-game:_ZN4STFH4DataC1Ev
dustrac-game:_ZN4STFH4DataC2Ev
dustrac-game:_ZN4STFH4DataD0Ev
dustrac-game:_ZN4STFH4DataD1Ev
dustrac-game:_ZN4STFH4DataD2Ev
dustrac-game:_ZN4STFH6DeviceC1Ev
dustrac-game:_ZN4STFH6DeviceC2Ev
dustrac-game:_ZN4STFH6DeviceD0Ev
dustrac-game:_ZN4STFH6DeviceD1Ev
dustrac-game:_ZN4STFH6DeviceD2Ev
dustrac-game:_ZN4STFH6Source10setMaxDistEf
dustrac-game:_ZN4STFH6Source11setLocationERKNS_8LocationE
dustrac-game:_ZN4STFH6Source16setReferenceDistEf
dustrac-game:_ZN4STFH6Source7setDataESt10shared_ptrINS_4DataEE
dustrac-game:_ZN4STFH6Source8setPitchEf
dustrac-game:_ZN4STFH6Source9setVolumeEf
dustrac-game:_ZN4STFH6SourceC1Ev
dustrac-game:_ZN4STFH6SourceC2Ev
dustrac-game:_ZN4STFH6SourceD0Ev
dustrac-game:_ZN4STFH6SourceD1Ev
dustrac-game:_ZN4STFH6SourceD2Ev
dustrac-game:_ZN4STFH8Location6setPosEff
dustrac-game:_ZN4STFH8LocationC1Eff
dustrac-game:_ZN4STFH8LocationC1Ev
dustrac-game:_ZN4STFH8LocationC2Eff
dustrac-game:_ZN4STFH8LocationC2Ev
dustrac-game:_ZN4Tire10onStepTimeEi
dustrac-game:_ZN4Tire12setSpinCoeffEf
dustrac-game:_ZN4Tire13setIsOffTrackEb
dustrac-game:_ZN4TireC1ER3Carff
dustrac-game:_ZN4TireC2ER3Carff
dustrac-game:_ZN4TreeC1ESt10shared_ptrI9MCSurfaceEfffm
dustrac-game:_ZN4TreeC2ESt10shared_ptrI9MCSurfaceEfffm
dustrac-game:_ZN5Intro13setDimensionsEmm
dustrac-game:_ZN5Intro6renderEv
dustrac-game:_ZN5IntroC1Ev
dustrac-game:_ZN5IntroC2Ev
dustrac-game:_ZN5Route15buildFromVectorERSt6vectorISt10shared_ptrI14TargetNodeBaseESaIS3_EE
dustrac-game:_ZN5Route3endEv
dustrac-game:_ZN5Route4pushESt10shared_ptrI14TargetNodeBaseE
dustrac-game:_ZN5Route5beginEv
dustrac-game:_ZN5Route5clearEv
dustrac-game:_ZN5RouteC1Ev
dustrac-game:_ZN5RouteC2Ev
dustrac-game:_ZN5Scene10createCarsEv
dustrac-game:_ZN5Scene10renderMenuEv
dustrac-game:_ZN5Scene10setupAudioER3Carm
dustrac-game:_ZN5Scene10updateRaceEv
dustrac-game:_ZN5Scene11createMenusEv
dustrac-game:_ZN5Scene11qt_metacallEN11QMetaObject4CallEiPPv
dustrac-game:_ZN5Scene11qt_metacastEPKc
dustrac-game:_ZN5Scene11renderTrackEv
dustrac-game:_ZN5Scene11renderWorldE13MCRenderGroupb
dustrac-game:_ZN5Scene11updateFrameER12InputHandleri
dustrac-game:_ZN5Scene11updateWorldEi
dustrac-game:_ZN5Scene12setupCamerasER5Track
dustrac-game:_ZN5Scene13setupMinimapsEv
dustrac-game:_ZN5Scene14addCarsToWorldEv
dustrac-game:_ZN5Scene14initializeRaceEv
dustrac-game:_ZN5Scene14resizeOverlaysEv
dustrac-game:_ZN5Scene14setActiveTrackESt10shared_ptrI5TrackE
dustrac-game:_ZN5Scene14updateOverlaysEv
dustrac-game:_ZN5Scene15renderCommonHUDEv
dustrac-game:_ZN5Scene16processUserInputER12InputHandler
dustrac-game:_ZN5Scene16staticMetaObjectE
dustrac-game:_ZN5Scene17connectComponentsEv
dustrac-game:_ZN5Scene17getSplitPositionsERN9MCGLScene9SplitTypeES2_
dustrac-game:_ZN5Scene18setWorldDimensionsEv
dustrac-game:_ZN5Scene19createBridgeObjectsEv
dustrac-game:_ZN5Scene19createNormalObjectsEv
dustrac-game:_ZN5Scene20initializeComponentsEv
dustrac-game:_ZN5Scene20updateCameraLocationER8MCCameraRfR8MCObject
dustrac-game:_ZN5Scene22addTrackObjectsToWorldEv
dustrac-game:_ZN5Scene23listenerLocationChangedEff
dustrac-game:_ZN5Scene5widthEv
dustrac-game:_ZN5Scene6heightEv
dustrac-game:_ZN5Scene7m_widthE
dustrac-game:_ZN5Scene7setSizeEii
dustrac-game:_ZN5Scene7setupAIESt10shared_ptrI5TrackE
dustrac-game:_ZN5Scene8carCountEv
dustrac-game:_ZN5Scene8m_heightE
dustrac-game:_ZN5Scene8updateAiEv
dustrac-game:_ZN5Scene9renderHUDEv
dustrac-game:_ZN5SceneC1ER4GameR12StateMachineR8RendererR7MCWorld
dustrac-game:_ZN5SceneC2ER4GameR12StateMachineR8RendererR7MCWorld
dustrac-game:_ZN5SceneD0Ev
dustrac-game:_ZN5SceneD1Ev
dustrac-game:_ZN5SceneD2Ev
dustrac-game:_ZN5Track11renderTilesER8MCCameraSt10shared_ptrI17MCGLShaderProgramEmmmm
dustrac-game:_ZN5Track13renderAsphaltER8MCCameraSt10shared_ptrI17MCGLShaderProgramEmmmm
dustrac-game:_ZN5Track23calculateVisibleIndicesERK6MCBBoxIiERmS4_S4_S4_
dustrac-game:_ZN5Track6renderER8MCCamera
dustrac-game:_ZN5Track7setNextESt8weak_ptrIS_E
dustrac-game:_ZN5Track7setPrevESt8weak_ptrIS_E
dustrac-game:_ZN5TrackC1ESt10unique_ptrI9TrackDataSt14default_deleteIS1_EE
dustrac-game:_ZN5TrackC2ESt10unique_ptrI9TrackDataSt14default_deleteIS1_EE
dustrac-game:_ZN6Bridge11raiseObjectER8MCObjectb
dustrac-game:_ZN6Bridge14collisionEventER16MCCollisionEvent
dustrac-game:_ZN6Bridge15separationEventER17MCSeparationEvent
dustrac-game:_ZN6Bridge17objectUnderBridgeER8MCObjectb
dustrac-game:_ZN6Bridge19m_onBridgeStatusMapE
dustrac-game:_ZN6Bridge22m_underBridgeStatusMapE
dustrac-game:_ZN6Bridge5resetEv
dustrac-game:_ZN6BridgeC1Ev
dustrac-game:_ZN6BridgeC2Ev
dustrac-game:_ZN6MCMesh12renderShadowEP8MCCameraRK10MCVector3dIfEf
dustrac-game:_ZN6MCMesh4initERKSt6vectorINS_4FaceESaIS1_EE
dustrac-game:_ZN6MCMesh6renderEP8MCCameraRK10MCVector3dIfEf
dustrac-game:_ZN6MCMesh8initVBOsEv
dustrac-game:_ZN6MCMeshC1ENSt7__cxx1112basic_stringIcSt11char_traitsIcESaIcEEERKSt6vectorINS_4FaceESaIS7_EESt10shared_ptrI12MCGLMaterialE
dustrac-game:_ZN6MCMeshC2ENSt7__cxx1112basic_stringIcSt11char_traitsIcESaIcEEERKSt6vectorINS_4FaceESaIS7_EESt10shared_ptrI12MCGLMaterialE
dustrac-game:_ZN6Timing11qt_metacallEN11QMetaObject4CallEiPPv
dustrac-game:_ZN6Timing11qt_metacastEPKc
dustrac-game:_ZN6Timing11setIsActiveEmb
dustrac-game:_ZN6Timing12lapCompletedEmi
dustrac-game:_ZN6Timing12setLapRecordEi
dustrac-game:_ZN6Timing13msecsToStringB5cxx11Ei
dustrac-game:_ZN6Timing13setRaceRecordEi
dustrac-game:_ZN6Timing15setLapCompletedEmb
dustrac-game:_ZN6Timing16setRaceCompletedEmbb
dustrac-game:_ZN6Timing16staticMetaObjectE
dustrac-game:_ZN6Timing17lapRecordAchievedEi
dustrac-game:_ZN6Timing18raceRecordAchievedEi
dustrac-game:_ZN6Timing4stopEv
dustrac-game:_ZN6Timing4tickEv
dustrac-game:_ZN6Timing5resetEv
dustrac-game:_ZN6Timing5startEv
dustrac-game:_ZN6TimingC1EmP7QObject
dustrac-game:_ZN6TimingC2EmP7QObject
dustrac-game:_ZN7Credits6renderEv
dustrac-game:_ZN7CreditsC1ENSt7__cxx1112basic_stringIcSt11char_traitsIcESaIcEEEii
dustrac-game:_ZN7CreditsC2ENSt7__cxx1112basic_stringIcSt11char_traitsIcESaIcEEEii
dustrac-game:_ZN7Gearbox15setBrakeEnabledEb
dustrac-game:_ZN7Gearbox21setAcceleratorEnabledEb
dustrac-game:_ZN7Gearbox6updateEi
dustrac-game:_ZN7GearboxC1Ev
dustrac-game:_ZN7GearboxC2Ev
dustrac-game:_ZN7MCEvent11m_typeCountE
dustrac-game:_ZN7MCEvent12registerTypeEv
dustrac-game:_ZN7MCEvent6acceptEv
dustrac-game:_ZN7MCEvent6ignoreEv
dustrac-game:_ZN7MCEventC1Ev
dustrac-game:_ZN7MCEventC2Ev
dustrac-game:_ZN7MCEventD0Ev
dustrac-game:_ZN7MCEventD1Ev
dustrac-game:_ZN7MCEventD2Ev
dustrac-game:_ZN7MCShape12renderShadowEP8MCCamera
dustrac-game:_ZN7MCShape15setShadowOffsetERK10MCVector3dIfE
dustrac-game:_ZN7MCShape21m_defaultShadowOffsetE
dustrac-game:_ZN7MCShape22setDefaultShadowOffsetERK10MCVector3dIfE
dustrac-game:_ZN7MCShape6renderEP8MCCamera
dustrac-game:_ZN7MCShape6rotateEf
dustrac-game:_ZN7MCShape7setViewESt10shared_ptrI11MCShapeViewE
dustrac-game:_ZN7MCShape9setParentER8MCObject
dustrac-game:_ZN7MCShape9setRadiusEf
dustrac-game:_ZN7MCShape9translateERK10MCVector3dIfE
dustrac-game:_ZN7MCShapeC1ESt10shared_ptrI11MCShapeViewE
dustrac-game:_ZN7MCShapeC2ESt10shared_ptrI11MCShapeViewE
dustrac-game:_ZN7MCShapeD0Ev
dustrac-game:_ZN7MCShapeD1Ev
dustrac-game:_ZN7MCShapeD2Ev
dustrac-game:_ZN7MCWorld10m_instanceE
dustrac-game:_ZN7MCWorld10setGravityERK10MCVector3dIfE
dustrac-game:_ZN7MCWorld11hasInstanceEv
dustrac-game:_ZN7MCWorld12removeObjectER8MCObject
dustrac-game:_ZN7MCWorld13metersPerUnitEv
dustrac-game:_ZN7MCWorld13setDimensionsEfffffffbm
dustrac-game:_ZN7MCWorld14doRemoveObjectER8MCObject
dustrac-game:_ZN7MCWorld15m_metersPerUnitE
dustrac-game:_ZN7MCWorld15removeObjectNowER8MCObject
dustrac-game:_ZN7MCWorld16generateImpulsesEv
dustrac-game:_ZN7MCWorld16prepareRenderingEP8MCCamera
dustrac-game:_ZN7MCWorld16resolvePositionsEf
dustrac-game:_ZN7MCWorld16setMetersPerUnitEf
dustrac-game:_ZN7MCWorld17processCollisionsEv
dustrac-game:_ZN7MCWorld20setResolverLoopCountEm
dustrac-game:_ZN7MCWorld21processRemovedObjectsEv
dustrac-game:_ZN7MCWorld22m_metersPerUnitSquaredE
dustrac-game:_ZN7MCWorld26restoreObjectToIntegrationER8MCObject
dustrac-game:_ZN7MCWorld27removeObjectFromIntegrationER8MCObject
dustrac-game:_ZN7MCWorld5clearEv
dustrac-game:_ZN7MCWorld6renderEP8MCCamera13MCRenderGroup
dustrac-game:_ZN7MCWorld8instanceEv
dustrac-game:_ZN7MCWorld8stepTimeEi
dustrac-game:_ZN7MCWorld8toMetersER10MCVector2dIfE
dustrac-game:_ZN7MCWorld8toMetersER10MCVector3dIfE
dustrac-game:_ZN7MCWorld8toMetersERf
dustrac-game:_ZN7MCWorld9addObjectER8MCObject
dustrac-game:_ZN7MCWorld9integrateEi
dustrac-game:_ZN7MCWorldC1Ev
dustrac-game:_ZN7MCWorldC2Ev
dustrac-game:_ZN7MCWorldD0Ev
dustrac-game:_ZN7MCWorldD1Ev
dustrac-game:_ZN7MCWorldD2Ev
dustrac-game:_ZN7MapBase12deleteColumnEm
dustrac-game:_ZN7MapBase12insertColumnEmNS_15InsertDirectionE
dustrac-game:_ZN7MapBase6resizeEmm
dustrac-game:_ZN7MapBase7setTileEmmSt10shared_ptrI13TrackTileBaseE
dustrac-game:_ZN7MapBase9deleteRowEm
dustrac-game:_ZN7MapBase9insertRowEmNS_15InsertDirectionE
dustrac-game:_ZN7MapBaseC1Emm
dustrac-game:_ZN7MapBaseC2Emm
dustrac-game:_ZN7MapBaseD0Ev
dustrac-game:_ZN7MapBaseD1Ev
dustrac-game:_ZN7MapBaseD2Ev
dustrac-game:_ZN7Minimap10initializeER3CarRK7MapBaseiim
dustrac-game:_ZN7Minimap13renderMarkersERKSt6vectorISt10shared_ptrI3CarESaIS3_EERK4Race
dustrac-game:_ZN7Minimap6renderERKSt6vectorISt10shared_ptrI3CarESaIS3_EERK4Race
dustrac-game:_ZN7Minimap9renderMapEv
dustrac-game:_ZN7MinimapC1ER3CarRK7MapBaseiim
dustrac-game:_ZN7MinimapC1Ev
dustrac-game:_ZN7MinimapC2ER3CarRK7MapBaseiim
dustrac-game:_ZN7MinimapC2Ev
dustrac-game:_ZN7Objects3addESt10shared_ptrI10ObjectBaseE
dustrac-game:_ZN7Objects3endEv
dustrac-game:_ZN7Objects5beginEv
dustrac-game:_ZN7Objects5clearEv
dustrac-game:_ZN7Objects6removeER10ObjectBase
dustrac-game:_ZN7ObjectsC1Ev
dustrac-game:_ZN7ObjectsC2Ev
dustrac-game:_ZN7juzzlin6Logger14enableEchoModeEb
dustrac-game:_ZN7juzzlin6Logger14setLevelSymbolENS0_5LevelENSt7__cxx1112basic_stringIcSt11char_traitsIcESaIcEEE
dustrac-game:_ZN7juzzlin6Logger15setLoggingLevelENS0_5LevelE
dustrac-game:_ZN7juzzlin6Logger16setTimestampModeENS0_13TimestampModeENSt7__cxx1112basic_stringIcSt11char_traitsIcESaIcEEE
dustrac-game:_ZN7juzzlin6Logger4Impl10m_echoModeE
dustrac-game:_ZN7juzzlin6Logger4Impl14enableEchoModeEb
dustrac-game:_ZN7juzzlin6Logger4Impl14setLevelSymbolENS0_5LevelENSt7__cxx1112basic_stringIcSt11char_traitsIcESaIcEEE
dustrac-game:_ZN7juzzlin6Logger4Impl15m_timestampModeE
dustrac-game:_ZN7juzzlin6Logger4Impl15prefixTimestampEv
dustrac-game:_ZN7juzzlin6Logger4Impl15setLoggingLevelENS0_5LevelE
dustrac-game:_ZN7juzzlin6Logger4Impl16setTimestampModeENS0_13TimestampModeENSt7__cxx1112basic_stringIcSt11char_traitsIcESaIcEEE
dustrac-game:_ZN7juzzlin6Logger4Impl20m_timestampSeparatorB5cxx11E
dustrac-game:_ZN7juzzlin6Logger4Impl4infoB5cxx11Ev
dustrac-game:_ZN7juzzlin6Logger4Impl4initENSt7__cxx1112basic_stringIcSt11char_traitsIcESaIcEEEb
dustrac-game:_ZN7juzzlin6Logger4Impl5debugB5cxx11Ev
dustrac-game:_ZN7juzzlin6Logger4Impl5errorB5cxx11Ev
dustrac-game:_ZN7juzzlin6Logger4Impl5fatalB5cxx11Ev
dustrac-game:_ZN7juzzlin6Logger4Impl5flushEv
dustrac-game:_ZN7juzzlin6Logger4Impl5traceB5cxx11Ev
dustrac-game:_ZN7juzzlin6Logger4Impl6m_foutE
dustrac-game:_ZN7juzzlin6Logger4Impl7m_levelE
dustrac-game:_ZN7juzzlin6Logger4Impl7m_mutexE
dustrac-game:_ZN7juzzlin6Logger4Impl7warningB5cxx11Ev
dustrac-game:_ZN7juzzlin6Logger4Impl9getStreamB5cxx11ENS0_5LevelE
dustrac-game:_ZN7juzzlin6Logger4Impl9m_streamsE
dustrac-game:_ZN7juzzlin6Logger4Impl9m_symbolsB5cxx11E
dustrac-game:_ZN7juzzlin6Logger4Impl9setStreamENS0_5LevelERSo
dustrac-game:_ZN7juzzlin6Logger4ImplC1Ev
dustrac-game:_ZN7juzzlin6Logger4ImplC2Ev
dustrac-game:_ZN7juzzlin6Logger4ImplD1Ev
dustrac-game:_ZN7juzzlin6Logger4ImplD2Ev
dustrac-game:_ZN7juzzlin6Logger4infoB5cxx11Ev
dustrac-game:_ZN7juzzlin6Logger4initENSt7__cxx1112basic_stringIcSt11char_traitsIcESaIcEEEb
dustrac-game:_ZN7juzzlin6Logger5debugB5cxx11Ev
dustrac-game:_ZN7juzzlin6Logger5errorB5cxx11Ev
dustrac-game:_ZN7juzzlin6Logger5fatalB5cxx11Ev
dustrac-game:_ZN7juzzlin6Logger5traceB5cxx11Ev
dustrac-game:_ZN7juzzlin6Logger7versionB5cxx11Ev
dustrac-game:_ZN7juzzlin6Logger7warningB5cxx11Ev
dustrac-game:_ZN7juzzlin6Logger9setStreamENS0_5LevelERSo
dustrac-game:_ZN7juzzlin6LoggerC1Ev
dustrac-game:_ZN7juzzlin6LoggerC2Ev
dustrac-game:_ZN7juzzlin6LoggerD1Ev
dustrac-game:_ZN7juzzlin6LoggerD2Ev
dustrac-game:_ZN7juzzlin9Argengine11setHelpTextENSt7__cxx1112basic_stringIcSt11char_traitsIcESaIcEEE
dustrac-game:_ZN7juzzlin9Argengine14setHelpSortingENS0_11HelpSortingE
dustrac-game:_ZN7juzzlin9Argengine15setOutputStreamERSo
dustrac-game:_ZN7juzzlin9Argengine29setPositionalArgumentCallbackESt8functionIFvSt6vectorINSt7__cxx1112basic_stringIcSt11char_traitsIcESaIcEEESaIS8_EEEE
dustrac-game:_ZN7juzzlin9Argengine5parseERNS0_5ErrorE
dustrac-game:_ZN7juzzlin9Argengine5parseEv
dustrac-game:_ZN7juzzlin9Argengine7addHelpESt3setINSt7__cxx1112basic_stringIcSt11char_traitsIcESaIcEEESt4lessIS7_ESaIS7_EESt8functionIFvvEE
dustrac-game:_ZN7juzzlin9Argengine7versionB5cxx11Ev
dustrac-game:_ZN7juzzlin9Argengine9addOptionESt3setINSt7__cxx1112basic_stringIcSt11char_traitsIcESaIcEEESt4lessIS7_ESaIS7_EESt8functionIFvS7_EEbS7_
dustrac-game:_ZN7juzzlin9Argengine9addOptionESt3setINSt7__cxx1112basic_stringIcSt11char_traitsIcESaIcEEESt4lessIS7_ESaIS7_EESt8functionIFvvEEbS7_
dustrac-game:_ZN7juzzlin9Argengine9printHelpEv
dustrac-game:_ZN7juzzlin9ArgengineC1ESt6vectorINSt7__cxx1112basic_stringIcSt11char_traitsIcESaIcEEESaIS7_EEb
dustrac-game:_ZN7juzzlin9ArgengineC1EiPPcb
dustrac-game:_ZN7juzzlin9ArgengineC2ESt6vectorINSt7__cxx1112basic_stringIcSt11char_traitsIcESaIcEEESaIS7_EEb
dustrac-game:_ZN7juzzlin9ArgengineC2EiPPcb
dustrac-game:_ZN7juzzlin9ArgengineD1Ev
dustrac-game:_ZN7juzzlin9ArgengineD2Ev
dustrac-game:_ZN8Database10initializeEv
dustrac-game:_ZN8Database10m_instanceE
dustrac-game:_ZN8Database11saveBestPosERK5TrackiiN17DifficultyProfile10DifficultyE
dustrac-game:_ZN8Database12resetBestPosEv
dustrac-game:_ZN8Database13saveLapRecordERK5Tracki
dustrac-game:_ZN8Database14saveRaceRecordERK5TrackiiN17DifficultyProfile10DifficultyE
dustrac-game:_ZN8Database15resetLapRecordsEv
dustrac-game:_ZN8Database16resetRaceRecordsEv
dustrac-game:_ZN8Database21saveTrackUnlockStatusERK5TrackiN17DifficultyProfile10DifficultyE
dustrac-game:_ZN8Database24resetTrackUnlockStatusesEv
dustrac-game:_ZN8Database8instanceEv
dustrac-game:_ZN8DatabaseC1Ev
dustrac-game:_ZN8DatabaseC2Ev
dustrac-game:_ZN8MCCamera4initEffffff
dustrac-game:_ZN8MCCamera6setPosERK10MCVector2dIfE
dustrac-game:_ZN8MCCamera6setPosEff
dustrac-game:_ZN8MCCameraC1Effffff
dustrac-game:_ZN8MCCameraC1Ev
dustrac-game:_ZN8MCCameraC2Effffff
dustrac-game:_ZN8MCCameraC2Ev
dustrac-game:_ZN8MCLogger10m_dateTimeE
dustrac-game:_ZN8MCLogger10m_echoModeE
dustrac-game:_ZN8MCLogger14enableEchoModeEb
dustrac-game:_ZN8MCLogger14prefixDateTimeEv
dustrac-game:_ZN8MCLogger20enableDateTimePrefixEb
dustrac-game:_ZN8MCLogger4infoB5cxx11Ev
dustrac-game:_ZN8MCLogger4initEPKcb
dustrac-game:_ZN8MCLogger5errorB5cxx11Ev
dustrac-game:_ZN8MCLogger5fatalB5cxx11Ev
dustrac-game:_ZN8MCLogger6m_fileE
dustrac-game:_ZN8MCLogger7warningB5cxx11Ev
dustrac-game:_ZN8MCLoggerC1Ev
dustrac-game:_ZN8MCLoggerC2Ev
dustrac-game:_ZN8MCLoggerD1Ev
dustrac-game:_ZN8MCLoggerD2Ev
dustrac-game:_ZN8MCObject10addContactER9MCContact
dustrac-game:_ZN8MCObject10addToWorldEfff
dustrac-game:_ZN8MCObject10addToWorldEv
dustrac-game:_ZN8MCObject10onStepTimeEi
dustrac-game:_ZN8MCObject11setRemovingEb
dustrac-game:_ZN8MCObject12renderShadowEP8MCCamera
dustrac-game:_ZN8MCObject13setIsParticleEb
dustrac-game:_ZN8MCObject14addChildObjectESt10shared_ptrIS_ERK10MCVector3dIfEf
dustrac-game:_ZN8MCObject14collisionEventER16MCCollisionEvent
dustrac-game:_ZN8MCObject14deleteContactsERS_
dustrac-game:_ZN8MCObject14deleteContactsEv
dustrac-game:_ZN8MCObject14rotateRelativeEf
dustrac-game:_ZN8MCObject14sendTimerEventER12MCTimerEvent
dustrac-game:_ZN8MCObject15cacheIndexRangeEmmmm
dustrac-game:_ZN8MCObject15checkBoundariesEv
dustrac-game:_ZN8MCObject15removeFromWorldEv
dustrac-game:_ZN8MCObject15separationEventER17MCSeparationEvent
dustrac-game:_ZN8MCObject15setInitialAngleEi
dustrac-game:_ZN8MCObject15setIsRenderableEb
dustrac-game:_ZN8MCObject15setShadowOffsetERK10MCVector2dIfE
dustrac-game:_ZN8MCObject16getTypeIdForNameERKNSt7__cxx1112basic_stringIcSt11char_traitsIcESaIcEEE
dustrac-game:_ZN8MCObject16physicsComponentEv
dustrac-game:_ZN8MCObject17removeChildObjectERS_
dustrac-game:_ZN8MCObject17removeChildObjectESt10shared_ptrIS_E
dustrac-game:_ZN8MCObject17restoreIndexRangeEPmS0_S0_S0_
dustrac-game:_ZN8MCObject17setCollisionLayerEi
dustrac-game:_ZN8MCObject17translateRelativeERK10MCVector3dIfE
dustrac-game:_ZN8MCObject18removeFromWorldNowEv
dustrac-game:_ZN8MCObject18setInitialLocationERK10MCVector3dIfE
dustrac-game:_ZN8MCObject18setIsPhysicsObjectEb
dustrac-game:_ZN8MCObject18setIsTriggerObjectEb
dustrac-game:_ZN8MCObject19setBypassCollisionsEb
dustrac-game:_ZN8MCObject19setPhysicsComponentESt10unique_ptrI18MCPhysicsComponentSt14default_deleteIS1_EE
dustrac-game:_ZN8MCObject19subscribeTimerEventERS_
dustrac-game:_ZN8MCObject20outOfBoundariesEventER22MCOutOfBoundariesEvent
dustrac-game:_ZN8MCObject21unsubscribeTimerEventERS_
dustrac-game:_ZN8MCObject4Impl14m_typeRegistryE
dustrac-game:_ZN8MCObject4Impl19m_timerEventObjectsE
dustrac-game:_ZN8MCObject5eventER7MCEvent
dustrac-game:_ZN8MCObject6renderEP8MCCamera
dustrac-game:_ZN8MCObject6rotateEfb
dustrac-game:_ZN8MCObject6typeIdERKNSt7__cxx1112basic_stringIcSt11char_traitsIcESaIcEEE
dustrac-game:_ZN8MCObject8displaceERK10MCVector3dIfE
dustrac-game:_ZN8MCObject8setIndexEi
dustrac-game:_ZN8MCObject8setShapeESt10shared_ptrI7MCShapeE
dustrac-game:_ZN8MCObject9sendEventERS_R7MCEvent
dustrac-game:_ZN8MCObject9setCenterE10MCVector2dIfE
dustrac-game:_ZN8MCObject9translateERK10MCVector3dIfE
dustrac-game:_ZN8MCObjectC1ERKNSt7__cxx1112basic_stringIcSt11char_traitsIcESaIcEEE
dustrac-game:_ZN8MCObjectC1ESt10shared_ptrI7MCShapeERKNSt7__cxx1112basic_stringIcSt11char_traitsIcESaIcEEE
dustrac-game:_ZN8MCObjectC1ESt10shared_ptrI9MCSurfaceERKNSt7__cxx1112basic_stringIcSt11char_traitsIcESaIcEEE
dustrac-game:_ZN8MCObjectC2ERKNSt7__cxx1112basic_stringIcSt11char_traitsIcESaIcEEE
dustrac-game:_ZN8MCObjectC2ESt10shared_ptrI7MCShapeERKNSt7__cxx1112basic_stringIcSt11char_traitsIcESaIcEEE
dustrac-game:_ZN8MCObjectC2ESt10shared_ptrI9MCSurfaceERKNSt7__cxx1112basic_stringIcSt11char_traitsIcESaIcEEE
dustrac-game:_ZN8MCObjectD0Ev
dustrac-game:_ZN8MCObjectD1Ev
dustrac-game:_ZN8MCObjectD2Ev
dustrac-game:_ZN8MCRandom14randomVector2dEv
dustrac-game:_ZN8MCRandom14randomVector3dEv
dustrac-game:_ZN8MCRandom23randomVector3dPositiveZEv
dustrac-game:_ZN8MCRandom6m_implE
dustrac-game:_ZN8MCRandom7setSeedEi
dustrac-game:_ZN8MCRandom8getValueEv
dustrac-game:_ZN8MainMenu11qt_metacallEN11QMetaObject4CallEiPPv
dustrac-game:_ZN8MainMenu11qt_metacastEPKc
dustrac-game:_ZN8MainMenu14createSubMenusEv
dustrac-game:_ZN8MainMenu15createMenuItemsEv
dustrac-game:_ZN8MainMenu16staticMetaObjectE
dustrac-game:_ZN8MainMenu17exitGameRequestedEv
dustrac-game:_ZN8MainMenu6MenuIdB5cxx11E
dustrac-game:_ZN8MainMenuC1ERN4MTFH11MenuManagerER5Sceneii
dustrac-game:_ZN8MainMenuC2ERN4MTFH11MenuManagerER5Sceneii
dustrac-game:_ZN8Renderer10initializeEv
dustrac-game:_ZN8Renderer10m_instanceE
dustrac-game:_ZN8Renderer10setEnabledEb
dustrac-game:_ZN8Renderer11exposeEventEP12QExposeEvent
dustrac-game:_ZN8Renderer11initializedEv
dustrac-game:_ZN8Renderer11loadShadersEv
dustrac-game:_ZN8Renderer11qt_metacallEN11QMetaObject4CallEiPPv
dustrac-game:_ZN8Renderer11qt_metacastEPKc
dustrac-game:_ZN8Renderer11renderLaterEv
dustrac-game:_ZN8Renderer11resizeEventEP12QResizeEvent
dustrac-game:_ZN8Renderer12setFadeValueEf
dustrac-game:_ZN8Renderer13keyPressEventEP9QKeyEvent
dustrac-game:_ZN8Renderer13setResolutionE5QSize
dustrac-game:_ZN8Renderer14mouseMoveEventEP11QMouseEvent
dustrac-game:_ZN8Renderer15keyReleaseEventEP9QKeyEvent
dustrac-game:_ZN8Renderer15mousePressEventEP11QMouseEvent
dustrac-game:_ZN8Renderer15setEventHandlerER12EventHandler
dustrac-game:_ZN8Renderer16staticMetaObjectE
dustrac-game:_ZN8Renderer17mouseReleaseEventEP11QMouseEvent
dustrac-game:_ZN8Renderer23createProgramFromSourceENSt7__cxx1112basic_stringIcSt11char_traitsIcESaIcEEES5_S5_
dustrac-game:_ZN8Renderer5eventEP6QEvent
dustrac-game:_ZN8Renderer6closedEv
dustrac-game:_ZN8Renderer6renderEv
dustrac-game:_ZN8Renderer7programERKNSt7__cxx1112basic_stringIcSt11char_traitsIcESaIcEEE
dustrac-game:_ZN8Renderer8instanceEv
dustrac-game:_ZN8Renderer8resizeGLEii
dustrac-game:_ZN8Renderer8setSceneER5Scene
dustrac-game:_ZN8Renderer9loadFontsEv
dustrac-game:_ZN8Renderer9renderNowEv
dustrac-game:_ZN8RendererC1EiibR9MCGLScene
dustrac-game:_ZN8RendererC2EiibR9MCGLScene
dustrac-game:_ZN8RendererD0Ev
dustrac-game:_ZN8RendererD1Ev
dustrac-game:_ZN8RendererD2Ev
dustrac-game:_ZN8Settings10m_instanceE
dustrac-game:_ZN8Settings11lapCountKeyEv
dustrac-game:_ZN8Settings13difficultyKeyEv
dustrac-game:_ZN8Settings14loadKeyMappingEiN12InputHandler6ActionE
dustrac-game:_ZN8Settings14loadResolutionERiS0_Rb
dustrac-game:_ZN8Settings14saveDifficultyEN17DifficultyProfile10DifficultyE
dustrac-game:_ZN8Settings14saveKeyMappingEiN12InputHandler6ActionEi
dustrac-game:_ZN8Settings14saveResolutionEiib
dustrac-game:_ZN8Settings22combineActionAndPlayerEiN12InputHandler6ActionE
dustrac-game:_ZN8Settings6fpsKeyEv
dustrac-game:_ZN8Settings8instanceEv
dustrac-game:_ZN8Settings8vsyncKeyEv
dustrac-game:_ZN8Settings9loadVSyncEv
dustrac-game:_ZN8Settings9loadValueE7QStringi
dustrac-game:_ZN8Settings9saveVSyncEi
dustrac-game:_ZN8Settings9saveValueE7QStringi
dustrac-game:_ZN8Settings9screenKeyEv
dustrac-game:_ZN8Settings9soundsKeyEv
dustrac-game:_ZN8SettingsC1Ev
dustrac-game:_ZN8SettingsC2Ev
dustrac-game:_ZN9MCContact10m_recyclerE
dustrac-game:_ZN9MCContact4freeEv
dustrac-game:_ZN9MCContact4initER8MCObjectRK10MCVector2dIfES5_f
dustrac-game:_ZN9MCContact6createEv
dustrac-game:_ZN9MCContactC1Ev
dustrac-game:_ZN9MCContactC2Ev
dustrac-game:_ZN9MCContactD1Ev
dustrac-game:_ZN9MCContactD2Ev
dustrac-game:_ZN9MCGLScene10initializeEv
dustrac-game:_ZN9MCGLScene10m_instanceE
dustrac-game:_ZN9MCGLScene12setFadeValueEf
dustrac-game:_ZN9MCGLScene12setSplitTypeENS_9SplitTypeE
dustrac-game:_ZN9MCGLScene13setProjectionEffff
dustrac-game:_ZN9MCGLScene14updateViewportEv
dustrac-game:_ZN9MCGLScene15setAmbientLightERK16MCGLAmbientLight
dustrac-game:_ZN9MCGLScene15setDiffuseLightERK16MCGLDiffuseLight
dustrac-game:_ZN9MCGLScene16addShaderProgramER17MCGLShaderProgram
dustrac-game:_ZN9MCGLScene16setSpecularLightERK16MCGLDiffuseLight
dustrac-game:_ZN9MCGLScene17setViewerPositionEjjf
dustrac-game:_ZN9MCGLScene20defaultShaderProgramEv
dustrac-game:_ZN9MCGLScene23defaultFBOShaderProgramEv
dustrac-game:_ZN9MCGLScene24defaultTextShaderProgramEv
dustrac-game:_ZN9MCGLScene26defaultShadowShaderProgramEv
dustrac-game:_ZN9MCGLScene27createDefaultShaderProgramsEv
dustrac-game:_ZN9MCGLScene28defaultSpecularShaderProgramEv
dustrac-game:_ZN9MCGLScene30defaultTextShadowShaderProgramEv
dustrac-game:_ZN9MCGLScene36updateViewProjectionMatrixAndShadersEv
dustrac-game:_ZN9MCGLScene6resizeEjjjjfff
dustrac-game:_ZN9MCGLScene8instanceEv
dustrac-game:_ZN9MCGLSceneC1Ev
dustrac-game:_ZN9MCGLSceneC2Ev
dustrac-game:_ZN9MCGLSceneD0Ev
dustrac-game:_ZN9MCGLSceneD1Ev
dustrac-game:_ZN9MCGLSceneD2Ev
dustrac-game:_ZN9MCSurface15setAverageColorERK9MCGLColor
dustrac-game:_ZN9MCSurface15updateTexCoordsEPK12MCGLTexCoord
dustrac-game:_ZN9MCSurface8initVBOsEv
dustrac-game:_ZN9MCSurfaceC1ENSt7__cxx1112basic_stringIcSt11char_traitsIcESaIcEEESt10shared_ptrI12MCGLMaterialEffPK12MCGLTexCoord
dustrac-game:_ZN9MCSurfaceC1ENSt7__cxx1112basic_stringIcSt11char_traitsIcESaIcEEESt10shared_ptrI12MCGLMaterialEfff
dustrac-game:_ZN9MCSurfaceC1ENSt7__cxx1112basic_stringIcSt11char_traitsIcESaIcEEESt10shared_ptrI12MCGLMaterialEffffff
dustrac-game:_ZN9MCSurfaceC2ENSt7__cxx1112basic_stringIcSt11char_traitsIcESaIcEEESt10shared_ptrI12MCGLMaterialEffPK12MCGLTexCoord
dustrac-game:_ZN9MCSurfaceC2ENSt7__cxx1112basic_stringIcSt11char_traitsIcESaIcEEESt10shared_ptrI12MCGLMaterialEfff
dustrac-game:_ZN9MCSurfaceC2ENSt7__cxx1112basic_stringIcSt11char_traitsIcESaIcEEESt10shared_ptrI12MCGLMaterialEffffff
dustrac-game:_ZN9MCSurfaceD0Ev
dustrac-game:_ZN9MCSurfaceD1Ev
dustrac-game:_ZN9MCSurfaceD2Ev
dustrac-game:_ZN9TrackData11setFileNameE7QString
dustrac-game:_ZN9TrackData11setIsLockedEb
dustrac-game:_ZN9TrackData3mapEv
dustrac-game:_ZN9TrackData5routeEv
dustrac-game:_ZN9TrackData7objectsEv
dustrac-game:_ZN9TrackDataC1E7QStringbjj
dustrac-game:_ZN9TrackDataC2E7QStringbjj
dustrac-game:_ZN9TrackDataD0Ev
dustrac-game:_ZN9TrackDataD1Ev
dustrac-game:_ZN9TrackDataD2Ev
dustrac-game:_ZN9TrackItem10renderLockEv
dustrac-game:_ZN9TrackItem10updateDataEv
dustrac-game:_ZN9TrackItem11renderStarsEv
dustrac-game:_ZN9TrackItem11renderTilesEv
dustrac-game:_ZN9TrackItem11renderTitleEv
dustrac-game:_ZN9TrackItem21renderTrackPropertiesEv
dustrac-game:_ZN9TrackItem6renderEv
dustrac-game:_ZN9TrackTile10setSurfaceESt10shared_ptrI9MCSurfaceE
dustrac-game:_ZN9TrackTile11setRotationEi
dustrac-game:_ZN9TrackTile15setTileTypeEnumENS_8TileTypeE
dustrac-game:_ZN9TrackTile17setPreviewSurfaceESt10shared_ptrI9MCSurfaceE
dustrac-game:_ZN9TrackTileC1E7QPointF6QPointRK7QStringNS_8TileTypeE
dustrac-game:_ZN9TrackTileC2E7QPointF6QPointRK7QStringNS_8TileTypeE
dustrac-game:_ZN9TrackTileD0Ev
dustrac-game:_ZN9TrackTileD1Ev
dustrac-game:_ZN9TrackTileD2Ev
dustrac-game:_ZN9VSyncMenu5enterEv
dustrac-game:_ZN9VSyncMenuC1ESt10shared_ptrI16ConfirmationMenuENSt7__cxx1112basic_stringIcSt11char_traitsIcESaIcEEEii
dustrac-game:_ZN9VSyncMenuC2ESt10shared_ptrI16ConfirmationMenuENSt7__cxx1112basic_stringIcSt11char_traitsIcESaIcEEEii
dustrac-game:_ZNK10MCMeshView4bboxEv
dustrac-game:_ZNK10MCMeshView4meshEv
dustrac-game:_ZNK10MCMeshView6objectEv
dustrac-game:_ZNK10MCParticle12initLifeTimeEv
dustrac-game:_ZNK10MCParticle14animationStyleEv
dustrac-game:_ZNK10MCParticle16dieWhenOffScreenEv
dustrac-game:_ZNK10MCParticle25dieOnOutOfBoundariesEventEv
dustrac-game:_ZNK10MCParticle5scaleEv
dustrac-game:_ZNK10MCParticle6radiusEv
dustrac-game:_ZNK10MCParticle8isActiveEv
dustrac-game:_ZNK10MCParticle8lifeTimeEv
dustrac-game:_ZNK10ObjectBase15forceStationaryEv
dustrac-game:_ZNK10ObjectBase4roleEv
dustrac-game:_ZNK10ObjectBase8categoryEv
dustrac-game:_ZNK10ObjectBase8locationEv
dustrac-game:_ZNK11Application10metaObjectEv
dustrac-game:_ZNK11AudioSource10metaObjectEv
dustrac-game:_ZNK11AudioWorker10metaObjectEv
dustrac-game:_ZNK11AudioWorker7enabledEv
dustrac-game:_ZNK11MCRectShape13contactNormalERK9MCSegmentIfE
dustrac-game:_ZNK11MCRectShape14edgeForSegmentERK9MCSegmentIfE
dustrac-game:_ZNK11MCRectShape21interpenetrationDepthERK9MCSegmentIfER10MCVector2dIfE
dustrac-game:_ZNK11MCRectShape4bboxEv
dustrac-game:_ZNK11MCRectShape4typeEv
dustrac-game:_ZNK11MCRectShape5obboxEv
dustrac-game:_ZNK11MCRectShape5widthEv
dustrac-game:_ZNK11MCRectShape6heightEv
dustrac-game:_ZNK11MCRectShape8containsERK10MCVector2dIfE
dustrac-game:_ZNK11MCShapeView13shaderProgramEv
dustrac-game:_ZNK11MCShapeView19shadowShaderProgramEv
dustrac-game:_ZNK11MCShapeView5colorEv
dustrac-game:_ZNK11MCShapeView5scaleEv
dustrac-game:_ZNK11MCShapeView6viewIdEv
dustrac-game:_ZNK11MCShapeView9hasShadowEv
dustrac-game:_ZNK11Startlights10metaObjectEv
dustrac-game:_ZNK11Startlights3posEv
dustrac-game:_ZNK11Startlights5stateEv
dustrac-game:_ZNK11Startlights9glowScaleEv
dustrac-game:_ZNK11SurfaceMenu4fontEv
dustrac-game:_ZNK11TrackLoader5trackEm
dustrac-game:_ZNK11TrackLoader6tracksEv
dustrac-game:_ZNK11TrackObject6objectEv
dustrac-game:_ZNK12EventHandler10metaObjectEv
dustrac-game:_ZNK12InputHandler14getActionStateEmNS_6ActionE
dustrac-game:_ZNK12MCGLMaterial12diffuseCoeffEv
dustrac-game:_ZNK12MCGLMaterial13specularCoeffEv
dustrac-game:_ZNK12MCGLMaterial7textureEm
dustrac-game:_ZNK12MCMeshLoader13textureCoordsEv
dustrac-game:_ZNK12MCMeshLoader5facesEv
dustrac-game:_ZNK12MCMeshLoader7normalsEv
dustrac-game:_ZNK12MCMeshLoader8verticesEv
dustrac-game:_ZNK12MCObjectData10shapeWidthEv
dustrac-game:_ZNK12MCObjectData10stationaryEv
dustrac-game:_ZNK12MCObjectData10xyFrictionEv
dustrac-game:_ZNK12MCObjectData11restitutionEv
dustrac-game:_ZNK12MCObjectData11shapeHeightEv
dustrac-game:_ZNK12MCObjectData11shapeRadiusEv
dustrac-game:_ZNK12MCObjectData12initialAngleEv
dustrac-game:_ZNK12MCObjectData15initialLocationEv
dustrac-game:_ZNK12MCObjectData4massEv
dustrac-game:_ZNK12MCObjectData5shapeEv
dustrac-game:_ZNK12MCObjectData6typeIdB5cxx11Ev
dustrac-game:_ZNK12MCObjectGrid4bboxEv
dustrac-game:_ZNK12StateMachine10metaObjectEv
dustrac-game:_ZNK12StateMachine5stateEv
dustrac-game:_ZNK13FadeAnimation10metaObjectEv
dustrac-game:_ZNK13FadeAnimation8isFadingEv
dustrac-game:_ZNK13MCCircleShape13contactNormalERK9MCSegmentIfE
dustrac-game:_ZNK13MCCircleShape21interpenetrationDepthERK9MCSegmentIfER10MCVector2dIfE
dustrac-game:_ZNK13MCCircleShape21interpenetrationDepthERKS_R10MCVector2dIfE
dustrac-game:_ZNK13MCCircleShape4bboxEv
dustrac-game:_ZNK13MCCircleShape4typeEv
dustrac-game:_ZNK13MCCircleShape8containsERK10MCVector2dIfE
dustrac-game:_ZNK13MCMeshManager4meshERKNSt7__cxx1112basic_stringIcSt11char_traitsIcESaIcEEE
dustrac-game:_ZNK13MCRenderLayer16depthMaskEnabledEv
dustrac-game:_ZNK13MCRenderLayer16depthTestEnabledEv
dustrac-game:_ZNK13MCSurfaceView4bboxEv
dustrac-game:_ZNK13MCSurfaceView6objectEv
dustrac-game:_ZNK13MCSurfaceView7surfaceEv
dustrac-game:_ZNK13MCTextureFont7surfaceEv
dustrac-game:_ZNK13MCTextureFont8xDensityEv
dustrac-game:_ZNK13MCTextureFont8yDensityEv
dustrac-game:_ZNK13MCTextureText10glyphWidthEv
dustrac-game:_ZNK13MCTextureText11glyphHeightEv
dustrac-game:_ZNK13MCTextureText4textB5cxx11Ev
dustrac-game:_ZNK13MCTextureText5colorEv
dustrac-game:_ZNK13MCTextureText5widthER13MCTextureFont
dustrac-game:_ZNK13MCTextureText6heightER13MCTextureFont
dustrac-game:_ZNK13OpenALOggData6bufferEv
dustrac-game:_ZNK13OpenALWavData6bufferEv
dustrac-game:_ZNK13TimingOverlay10metaObjectEv
dustrac-game:_ZNK13TrackDataBase11isUserTrackEv
dustrac-game:_ZNK13TrackDataBase4nameEv
dustrac-game:_ZNK13TrackDataBase5indexEv
dustrac-game:_ZNK13TrackTileBase12computerHintEv
dustrac-game:_ZNK13TrackTileBase14matrixLocationEv
dustrac-game:_ZNK13TrackTileBase18excludeFromMinimapEv
dustrac-game:_ZNK13TrackTileBase8locationEv
dustrac-game:_ZNK13TrackTileBase8tileTypeEv
dustrac-game:_ZNK14MCGLObjectBase11vertexCountEv
dustrac-game:_ZNK14MCGLObjectBase13shaderProgramEv
dustrac-game:_ZNK14MCGLObjectBase13totalDataSizeEv
dustrac-game:_ZNK14MCGLObjectBase15colorsAsGlArrayEv
dustrac-game:_ZNK14MCGLObjectBase16normalsAsGlArrayEv
dustrac-game:_ZNK14MCGLObjectBase17verticesAsGlArrayEv
dustrac-game:_ZNK14MCGLObjectBase18texCoordsAsGlArrayEv
dustrac-game:_ZNK14MCGLObjectBase19shadowShaderProgramEv
dustrac-game:_ZNK14MCGLObjectBase4maxZEv
dustrac-game:_ZNK14MCGLObjectBase4minZEv
dustrac-game:_ZNK14MCGLObjectBase5colorEm
dustrac-game:_ZNK14MCGLObjectBase5colorEv
dustrac-game:_ZNK14MCGLObjectBase5scaleEv
dustrac-game:_ZNK14MCGLObjectBase5widthEv
dustrac-game:_ZNK14MCGLObjectBase6handleB5cxx11Ev
dustrac-game:_ZNK14MCGLObjectBase6heightEv
dustrac-game:_ZNK14MCGLObjectBase6normalEm
dustrac-game:_ZNK14MCGLObjectBase6vertexEm
dustrac-game:_ZNK14MCGLObjectBase8materialEv
dustrac-game:_ZNK14MCGLObjectBase8texCoordEm
dustrac-game:_ZNK14MCTextureGlyph2uvEj
dustrac-game:_ZNK14MessageOverlay10metaObjectEv
dustrac-game:_ZNK14TargetNodeBase4nextEv
dustrac-game:_ZNK14TargetNodeBase4prevEv
dustrac-game:_ZNK14TargetNodeBase4sizeEv
dustrac-game:_ZNK14TargetNodeBase5indexEv
dustrac-game:_ZNK14TargetNodeBase8locationEv
dustrac-game:_ZNK15MCObjectFactory19setCommonPropertiesER8MCObjectRK12MCObjectData
dustrac-game:_ZNK15ParticleFactory11doSkidSmokeERK10MCVector3dIfES3_
dustrac-game:_ZNK15ParticleFactory13doDamageSmokeERK10MCVector3dIfES3_
dustrac-game:_ZNK15ParticleFactory15doOffTrackSmokeERK10MCVector3dIfE
dustrac-game:_ZNK15ParticleFactory17doOnTrackSkidMarkERK10MCVector3dIfEi
dustrac-game:_ZNK15ParticleFactory18doOffTrackSkidMarkERK10MCVector3dIfEi
dustrac-game:_ZNK15ParticleFactory18newSurfaceParticleENS_12ParticleTypeE
dustrac-game:_ZNK15ParticleFactory5doMudERK10MCVector3dIfES3_
dustrac-game:_ZNK15ParticleFactory6doLeafERK10MCVector3dIfES3_
dustrac-game:_ZNK15ParticleFactory7doSmokeERK10MCVector3dIfES3_
dustrac-game:_ZNK15ParticleFactory9doSparkleERK10MCVector3dIfES3_
dustrac-game:_ZNK16MCCollisionEvent12contactPointEv
dustrac-game:_ZNK16MCCollisionEvent14instanceTypeIdEv
dustrac-game:_ZNK16MCCollisionEvent15collidingObjectEv
dustrac-game:_ZNK16MCForceGenerator7enabledEv
dustrac-game:_ZNK16MCGLAmbientLight1bEv
dustrac-game:_ZNK16MCGLAmbientLight1gEv
dustrac-game:_ZNK16MCGLAmbientLight1iEv
dustrac-game:_ZNK16MCGLAmbientLight1rEv
dustrac-game:_ZNK16MCGLDiffuseLight9directionEv
dustrac-game:_ZNK16MCMeshObjectData6meshIdB5cxx11Ev
dustrac-game:_ZNK16MCSurfaceManager13applyColorKeyER6QImagejjj
dustrac-game:_ZNK16MCSurfaceManager15applyAlphaClampER6QImagej
dustrac-game:_ZNK16MCSurfaceManager7surfaceERKNSt7__cxx1112basic_stringIcSt11char_traitsIcESaIcEEE
dustrac-game:_ZNK16OffTrackDetector10isOffTrackE10MCVector2dIfERK9TrackTile
dustrac-game:_ZNK17DifficultyProfile10difficultyEv
dustrac-game:_ZNK17DifficultyProfile10metaObjectEv
dustrac-game:_ZNK17DifficultyProfile13hasBodyDamageEv
dustrac-game:_ZNK17DifficultyProfile14hasTireWearOutEv
dustrac-game:_ZNK17DifficultyProfile30accelerationFrictionMultiplierEb
dustrac-game:_ZNK17MCGLShaderProgram7isBoundEv
dustrac-game:_ZNK17MCObjectComponent6objectEv
dustrac-game:_ZNK17MCSeparationEvent14instanceTypeIdEv
dustrac-game:_ZNK17MCSeparationEvent15separatedObjectEv
dustrac-game:_ZNK17MCSurfaceParticle13useAlphaBlendEv
dustrac-game:_ZNK17MCSurfaceParticle5colorEv
dustrac-game:_ZNK17MCSurfaceParticle8alphaDstEv
dustrac-game:_ZNK17MCSurfaceParticle8alphaSrcEv
dustrac-game:_ZNK17MCSurfaceParticle9hasShadowEv
dustrac-game:_ZNK18MCMeshConfigLoader4meshEm
dustrac-game:_ZNK18MCMeshConfigLoader9meshCountEv
dustrac-game:_ZNK18MCPhysicsComponent10isSleepingEv
dustrac-game:_ZNK18MCPhysicsComponent10xyFrictionEv
dustrac-game:_ZNK18MCPhysicsComponent11restitutionEv
dustrac-game:_ZNK18MCPhysicsComponent12accelerationEv
dustrac-game:_ZNK18MCPhysicsComponent12collisionTagEv
dustrac-game:_ZNK18MCPhysicsComponent12isStationaryEv
dustrac-game:_ZNK18MCPhysicsComponent13isIntegratingEv
dustrac-game:_ZNK18MCPhysicsComponent15angularVelocityEv
dustrac-game:_ZNK18MCPhysicsComponent15momentOfInertiaEv
dustrac-game:_ZNK18MCPhysicsComponent18invMomentOfInertiaEv
dustrac-game:_ZNK18MCPhysicsComponent19neverCollideWithTagEv
dustrac-game:_ZNK18MCPhysicsComponent4massEv
dustrac-game:_ZNK18MCPhysicsComponent5speedEv
dustrac-game:_ZNK18MCPhysicsComponent7invMassEv
dustrac-game:_ZNK18MCPhysicsComponent8velocityEv
dustrac-game:_ZNK18StartlightsOverlay12renderLightsEiifb
dustrac-game:_ZNK18TrackSelectionMenu13selectedTrackEv
dustrac-game:_ZNK19MCSurfaceObjectData18defaultCircleShapeEv
dustrac-game:_ZNK19MCSurfaceObjectData9surfaceIdB5cxx11Ev
dustrac-game:_ZNK20MCTextureFontManager4fontERKNSt7__cxx1112basic_stringIcSt11char_traitsIcESaIcEEE
dustrac-game:_ZNK21CarSoundEffectManager10metaObjectEv
dustrac-game:_ZNK21MCSurfaceConfigLoader12surfaceCountEv
dustrac-game:_ZNK21MCSurfaceConfigLoader22alphaBlendStringToEnumERKNSt7__cxx1112basic_stringIcSt11char_traitsIcESaIcEEE
dustrac-game:_ZNK21MCSurfaceConfigLoader7surfaceEm
dustrac-game:_ZNK22MCOutOfBoundariesEvent12violatedEdgeEv
dustrac-game:_ZNK22MCOutOfBoundariesEvent14instanceTypeIdEv
dustrac-game:_ZNK22MCOutOfBoundariesEvent15violatingObjectEv
dustrac-game:_ZNK22MCParticleRendererBase12maxBatchSizeEv
dustrac-game:_ZNK22MCParticleRendererBase13useAlphaBlendEv
dustrac-game:_ZNK22MCParticleRendererBase8alphaDstEv
dustrac-game:_ZNK22MCParticleRendererBase8alphaSrcEv
dustrac-game:_ZNK22MCParticleRendererBase9batchSizeEv
dustrac-game:_ZNK22MCParticleRendererBase9hasShadowEv
dustrac-game:_ZNK25MCTextureFontConfigLoader4fontEm
dustrac-game:_ZNK25MCTextureFontConfigLoader5fontsEv
dustrac-game:_ZNK2AI3carEv
dustrac-game:_ZNK3Car10isOffTrackEv
dustrac-game:_ZNK3Car10isSkiddingEv
dustrac-game:_ZNK3Car10speedInKmhEv
dustrac-game:_ZNK3Car11damageLevelEv
dustrac-game:_ZNK3Car12damageFactorEv
dustrac-game:_ZNK3Car13tireWearLevelEv
dustrac-game:_ZNK3Car14isAcceleratingEv
dustrac-game:_ZNK3Car14tireWearFactorEv
dustrac-game:_ZNK3Car16leftSideOffTrackEv
dustrac-game:_ZNK3Car17rightSideOffTrackEv
dustrac-game:_ZNK3Car18soundEffectManagerEv
dustrac-game:_ZNK3Car20leftRearTireLocationEv
dustrac-game:_ZNK3Car21leftFrontTireLocationEv
dustrac-game:_ZNK3Car21rightRearTireLocationEv
dustrac-game:_ZNK3Car22rightFrontTireLocationEv
dustrac-game:_ZNK3Car5indexEv
dustrac-game:_ZNK3Car7isHumanEv
dustrac-game:_ZNK3Car8absSpeedEv
dustrac-game:_ZNK3Car9isBrakingEv
dustrac-game:_ZNK3Pit10metaObjectEv
dustrac-game:_ZNK4Game10metaObjectEv
dustrac-game:_ZNK4Game18hasComputerPlayersEv
dustrac-game:_ZNK4Game18hasTwoHumanPlayersEv
dustrac-game:_ZNK4Game3fpsEv
dustrac-game:_ZNK4Game4modeEv
dustrac-game:_ZNK4Game6screenEv
dustrac-game:_ZNK4Game8fontNameB5cxx11Ev
dustrac-game:_ZNK4Game8lapCountEv
dustrac-game:_ZNK4Game8rendererEv
dustrac-game:_ZNK4Game9splitTypeEv
dustrac-game:_ZNK4MTFH11MenuManager10activeMenuEv
dustrac-game:_ZNK4MTFH11MenuManager6isDoneEv
dustrac-game:_ZNK4MTFH12MenuItemView5ownerEv
dustrac-game:_ZNK4MTFH14AnimationCurve5valueEv
dustrac-game:_ZNK4MTFH4Menu11currentItemEv
dustrac-game:_ZNK4MTFH4Menu12currentIndexEv
dustrac-game:_ZNK4MTFH4Menu12selectedItemEv
dustrac-game:_ZNK4MTFH4Menu13isNextAllowedEv
dustrac-game:_ZNK4MTFH4Menu13isPrevAllowedEv
dustrac-game:_ZNK4MTFH4Menu1xEv
dustrac-game:_ZNK4MTFH4Menu1yEv
dustrac-game:_ZNK4MTFH4Menu2idB5cxx11Ev
dustrac-game:_ZNK4MTFH4Menu4itemEj
dustrac-game:_ZNK4MTFH4Menu5widthEv
dustrac-game:_ZNK4MTFH4Menu6heightEv
dustrac-game:_ZNK4MTFH4Menu6isDoneEv
dustrac-game:_ZNK4MTFH4Menu7targetXEv
dustrac-game:_ZNK4MTFH4Menu7targetYEv
dustrac-game:_ZNK4MTFH4Menu9itemCountEv
dustrac-game:_ZNK4MTFH8MenuItem10selectableEv
dustrac-game:_ZNK4MTFH8MenuItem18getContentsMarginsERfS1_S1_S1_
dustrac-game:_ZNK4MTFH8MenuItem1xEv
dustrac-game:_ZNK4MTFH8MenuItem1yEv
dustrac-game:_ZNK4MTFH8MenuItem4menuEv
dustrac-game:_ZNK4MTFH8MenuItem4textB5cxx11Ev
dustrac-game:_ZNK4MTFH8MenuItem5indexEv
dustrac-game:_ZNK4MTFH8MenuItem5widthEv
dustrac-game:_ZNK4MTFH8MenuItem6actionEv
dustrac-game:_ZNK4MTFH8MenuItem6heightEv
dustrac-game:_ZNK4MTFH8MenuItem7focusedEv
dustrac-game:_ZNK4MTFH8MenuItem7targetXEv
dustrac-game:_ZNK4MTFH8MenuItem7targetYEv
dustrac-game:_ZNK4MTFH8MenuItem8selectedEv
dustrac-game:_ZNK4Race10metaObjectEv
dustrac-game:_ZNK4Race14isRaceFinishedEv
dustrac-game:_ZNK4Race20checkeredFlagEnabledEv
dustrac-game:_ZNK4Race25getCurrentTargetNodeIndexERK3Car
dustrac-game:_ZNK4Race8getLoserEv
dustrac-game:_ZNK4Race8lapCountEv
dustrac-game:_ZNK4Race8positionERK3Car
dustrac-game:_ZNK4Race9getLeaderEv
dustrac-game:_ZNK4STFH4Data4pathB5cxx11Ev
dustrac-game:_ZNK4STFH6Source5pitchEv
dustrac-game:_ZNK4STFH6Source6volumeEv
dustrac-game:_ZNK4STFH6Source8locationEv
dustrac-game:_ZNK4STFH8Location1xEv
dustrac-game:_ZNK4STFH8Location1yEv
dustrac-game:_ZNK5Route15geometricLengthEv
dustrac-game:_ZNK5Route3getEm
dustrac-game:_ZNK5Route4cendEv
dustrac-game:_ZNK5Route6cbeginEv
dustrac-game:_ZNK5Route6getAllERSt6vectorISt10shared_ptrI14TargetNodeBaseESaIS3_EE
dustrac-game:_ZNK5Route8isClosedEv
dustrac-game:_ZNK5Route8numNodesEv
dustrac-game:_ZNK5Scene10metaObjectEv
dustrac-game:_ZNK5Scene11activeTrackEv
dustrac-game:_ZNK5Scene18trackSelectionMenuEv
dustrac-game:_ZNK5Track10finishLineEv
dustrac-game:_ZNK5Track19trackTileAtLocationEff
dustrac-game:_ZNK5Track4nextEv
dustrac-game:_ZNK5Track4prevEv
dustrac-game:_ZNK5Track5widthEv
dustrac-game:_ZNK5Track6heightEv
dustrac-game:_ZNK5Track9trackDataEv
dustrac-game:_ZNK6Timing10leadersLapEv
dustrac-game:_ZNK6Timing10metaObjectEv
dustrac-game:_ZNK6Timing10raceRecordEv
dustrac-game:_ZNK6Timing11lastLapTimeEm
dustrac-game:_ZNK6Timing13raceCompletedEm
dustrac-game:_ZNK6Timing13recordLapTimeEm
dustrac-game:_ZNK6Timing14currentLapTimeEm
dustrac-game:_ZNK6Timing14recordRaceTimeEm
dustrac-game:_ZNK6Timing3lapEm
dustrac-game:_ZNK6Timing8isActiveEm
dustrac-game:_ZNK6Timing8raceTimeEm
dustrac-game:_ZNK6Timing8raceTimeEv
dustrac-game:_ZNK6Timing9lapRecordEv
dustrac-game:_ZNK7Gearbox4gearEv
dustrac-game:_ZNK7MCEvent8acceptedEv
dustrac-game:_ZNK7MCShape12shadowOffsetEv
dustrac-game:_ZNK7MCShape16likelyIntersectsERS_
dustrac-game:_ZNK7MCShape4viewEv
dustrac-game:_ZNK7MCShape5angleEv
dustrac-game:_ZNK7MCShape6parentEv
dustrac-game:_ZNK7MCShape6radiusEv
dustrac-game:_ZNK7MCShape8locationEv
dustrac-game:_ZNK7MCWorld10objectGridEv
dustrac-game:_ZNK7MCWorld11objectCountEv
dustrac-game:_ZNK7MCWorld13forceRegistryEv
dustrac-game:_ZNK7MCWorld4maxXEv
dustrac-game:_ZNK7MCWorld4maxYEv
dustrac-game:_ZNK7MCWorld4maxZEv
dustrac-game:_ZNK7MCWorld4minXEv
dustrac-game:_ZNK7MCWorld4minYEv
dustrac-game:_ZNK7MCWorld4minZEv
dustrac-game:_ZNK7MCWorld7gravityEv
dustrac-game:_ZNK7MCWorld7objectsEv
dustrac-game:_ZNK7MCWorld8rendererEv
dustrac-game:_ZNK7MapBase4colsEv
dustrac-game:_ZNK7MapBase4rowsEv
dustrac-game:_ZNK7MapBase7getTileEmm
dustrac-game:_ZNK7Objects4cendEv
dustrac-game:_ZNK7Objects5countEv
dustrac-game:_ZNK7Objects6cbeginEv
dustrac-game:_ZNK7Objects6objectEm
dustrac-game:_ZNK7juzzlin9Argengine9argumentsB5cxx11Ev
dustrac-game:_ZNK8Database11loadBestPosERK5TrackiN17DifficultyProfile10DifficultyE
dustrac-game:_ZNK8Database13loadLapRecordERK5Track
dustrac-game:_ZNK8Database14loadRaceRecordERK5TrackiN17DifficultyProfile10DifficultyE
dustrac-game:_ZNK8Database21loadTrackUnlockStatusERK5TrackiN17DifficultyProfile10DifficultyE
dustrac-game:_ZNK8MCCamera1xEv
dustrac-game:_ZNK8MCCamera1yEv
dustrac-game:_ZNK8MCCamera3posEv
dustrac-game:_ZNK8MCCamera4bboxEv
dustrac-game:_ZNK8MCCamera5widthEv
dustrac-game:_ZNK8MCCamera6heightEv
dustrac-game:_ZNK8MCObject10isParticleEv
dustrac-game:_ZNK8MCObject12initialAngleEv
dustrac-game:_ZNK8MCObject12isRenderableEv
dustrac-game:_ZNK8MCObject14collisionLayerEv
dustrac-game:_ZNK8MCObject15initialLocationEv
dustrac-game:_ZNK8MCObject15isPhysicsObjectEv
dustrac-game:_ZNK8MCObject15isTriggerObjectEv
dustrac-game:_ZNK8MCObject16bypassCollisionsEv
dustrac-game:_ZNK8MCObject16relativeLocationEv
dustrac-game:_ZNK8MCObject5angleEv
dustrac-game:_ZNK8MCObject5indexEv
dustrac-game:_ZNK8MCObject5shapeEv
dustrac-game:_ZNK8MCObject6parentEv
dustrac-game:_ZNK8MCObject6typeIdEv
dustrac-game:_ZNK8MCObject8childrenEv
dustrac-game:_ZNK8MCObject8contactsEv
dustrac-game:_ZNK8MCObject8locationEv
dustrac-game:_ZNK8MCObject8removingEv
dustrac-game:_ZNK8MCObject8typeNameB5cxx11Ev
dustrac-game:_ZNK8MCObject9directionEv
dustrac-game:_ZNK8MainMenu10metaObjectEv
dustrac-game:_ZNK8Renderer10metaObjectEv
dustrac-game:_ZNK8Renderer9fadeValueEv
dustrac-game:_ZNK8Settings14loadDifficultyEv
dustrac-game:_ZNK9MCContact12contactPointEv
dustrac-game:_ZNK9MCContact13contactNormalEv
dustrac-game:_ZNK9MCContact21interpenetrationDepthEv
dustrac-game:_ZNK9MCContact6objectEv
dustrac-game:_ZNK9MCGLScene20viewProjectionMatrixEv
dustrac-game:_ZNK9MCGLScene4eyeZEv
dustrac-game:_ZNK9MCGLScene9viewAngleEv
dustrac-game:_ZNK9MCSurface12averageColorEv
dustrac-game:_ZNK9TrackData3mapEv
dustrac-game:_ZNK9TrackData5routeEv
dustrac-game:_ZNK9TrackData7objectsEv
dustrac-game:_ZNK9TrackData8fileNameEv
dustrac-game:_ZNK9TrackData8isLockedEv
dustrac-game:_ZNK9TrackTile10hasAsphaltEv
dustrac-game:_ZNK9TrackTile12tileTypeEnumEv
dustrac-game:_ZNK9TrackTile14previewSurfaceEv
dustrac-game:_ZNK9TrackTile7surfaceEv
dustrac-game:_ZNK9TrackTile8rotationEv
dustrac-game:_ZThn16_N12StateMachine5resetEv
dustrac-game:_ZThn16_N12StateMachine6updateEv
dustrac-game:_ZThn16_N13TimingOverlay6updateEv
dustrac-game:_ZThn16_N14MessageOverlay6updateEv
dustrac-game:_ZThn16_N3Pit10onStepTimeEi
dustrac-game:_ZThn16_N3Pit14collisionEventER16MCCollisionEvent
dustrac-game:_ZThn16_N3Pit15separationEventER17MCSeparationEvent
dustrac-game:_ZThn16_N8RendererD0Ev
dustrac-game:_ZThn16_N8RendererD1Ev
dustrac-game:_ZThn24_N13TimingOverlay6renderEv
dustrac-game:_ZThn24_N14MessageOverlay6renderEv
dustrac-game:_ZThn8_N11OverlayBaseD0Ev
dustrac-game:_ZThn8_N11OverlayBaseD1Ev
dustrac-game:_ZThn8_N12CrashOverlay13setDimensionsEmm
dustrac-game:_ZThn8_N12CrashOverlay6renderEv
dustrac-game:_ZThn8_N13CheckeredFlag6renderEv
dustrac-game:_ZThn8_N18StartlightsOverlay13setDimensionsEmm
dustrac-game:_ZThn8_N18StartlightsOverlay6renderEv
dustrac-game:_ZThn8_N5Intro13setDimensionsEmm
dustrac-game:_ZThn8_N5Intro6renderEv
dustrac-game:__bss_start
dustrac-game:__data_start
dustrac-game:_edata
dustrac-game:_end
dustrac-game:_start
dustrac-game:main
