adios2_reorganize:__bss_start
adios2_reorganize:_edata
adios2_reorganize:_end
bpls:_ZN4pugi10xpath_nodeC1ERKNS_13xml_attributeERKNS_8xml_nodeE
bpls:_ZN4pugi10xpath_nodeC1ERKNS_8xml_nodeE
bpls:_ZN4pugi10xpath_nodeC1Ev
bpls:_ZN4pugi10xpath_nodeC2ERKNS_13xml_attributeERKNS_8xml_nodeE
bpls:_ZN4pugi10xpath_nodeC2ERKNS_8xml_nodeE
bpls:_ZN4pugi10xpath_nodeC2Ev
bpls:_ZN4pugi11xpath_queryC1EOS0_
bpls:_ZN4pugi11xpath_queryC1EPKcPNS_18xpath_variable_setE
bpls:_ZN4pugi11xpath_queryC1Ev
bpls:_ZN4pugi11xpath_queryC2EOS0_
bpls:_ZN4pugi11xpath_queryC2EPKcPNS_18xpath_variable_setE
bpls:_ZN4pugi11xpath_queryC2Ev
bpls:_ZN4pugi11xpath_queryD1Ev
bpls:_ZN4pugi11xpath_queryD2Ev
bpls:_ZN4pugi11xpath_queryaSEOS0_
bpls:_ZN4pugi12xml_document11load_bufferEPKvmjNS_12xml_encodingE
bpls:_ZN4pugi12xml_document11load_stringEPKcj
bpls:_ZN4pugi12xml_document19load_buffer_inplaceEPvmjNS_12xml_encodingE
bpls:_ZN4pugi12xml_document23load_buffer_inplace_ownEPvmjNS_12xml_encodingE
bpls:_ZN4pugi12xml_document4loadEPKcj
bpls:_ZN4pugi12xml_document4loadERSijNS_12xml_encodingE
bpls:_ZN4pugi12xml_document4loadERSt13basic_istreamIwSt11char_traitsIwEEj
bpls:_ZN4pugi12xml_document5_moveERS0_
bpls:_ZN4pugi12xml_document5resetERKS0_
bpls:_ZN4pugi12xml_document5resetEv
bpls:_ZN4pugi12xml_document7_createEv
bpls:_ZN4pugi12xml_document8_destroyEv
bpls:_ZN4pugi12xml_document9load_fileEPKcjNS_12xml_encodingE
bpls:_ZN4pugi12xml_document9load_fileEPKwjNS_12xml_encodingE
bpls:_ZN4pugi12xml_documentC1EOS0_
bpls:_ZN4pugi12xml_documentC1Ev
bpls:_ZN4pugi12xml_documentC2EOS0_
bpls:_ZN4pugi12xml_documentC2Ev
bpls:_ZN4pugi12xml_documentD1Ev
bpls:_ZN4pugi12xml_documentD2Ev
bpls:_ZN4pugi12xml_documentaSEOS0_
bpls:_ZN4pugi13xml_attribute8set_nameEPKc
bpls:_ZN4pugi13xml_attribute9set_valueEPKc
bpls:_ZN4pugi13xml_attribute9set_valueEb
bpls:_ZN4pugi13xml_attribute9set_valueEd
bpls:_ZN4pugi13xml_attribute9set_valueEdi
bpls:_ZN4pugi13xml_attribute9set_valueEf
bpls:_ZN4pugi13xml_attribute9set_valueEfi
bpls:_ZN4pugi13xml_attribute9set_valueEi
bpls:_ZN4pugi13xml_attribute9set_valueEj
bpls:_ZN4pugi13xml_attribute9set_valueEl
bpls:_ZN4pugi13xml_attribute9set_valueEm
bpls:_ZN4pugi13xml_attribute9set_valueEx
bpls:_ZN4pugi13xml_attribute9set_valueEy
bpls:_ZN4pugi13xml_attributeC1EPNS_20xml_attribute_structE
bpls:_ZN4pugi13xml_attributeC1Ev
bpls:_ZN4pugi13xml_attributeC2EPNS_20xml_attribute_structE
bpls:_ZN4pugi13xml_attributeC2Ev
bpls:_ZN4pugi13xml_attributeaSEPKc
bpls:_ZN4pugi13xml_attributeaSEb
bpls:_ZN4pugi13xml_attributeaSEd
bpls:_ZN4pugi13xml_attributeaSEf
bpls:_ZN4pugi13xml_attributeaSEi
bpls:_ZN4pugi13xml_attributeaSEj
bpls:_ZN4pugi13xml_attributeaSEl
bpls:_ZN4pugi13xml_attributeaSEm
bpls:_ZN4pugi13xml_attributeaSEx
bpls:_ZN4pugi13xml_attributeaSEy
bpls:_ZN4pugi14xpath_node_set4sortEb
bpls:_ZN4pugi14xpath_node_set5_moveERS0_
bpls:_ZN4pugi14xpath_node_set7_assignEPKNS_10xpath_nodeES3_NS0_6type_tE
bpls:_ZN4pugi14xpath_node_setC1EOS0_
bpls:_ZN4pugi14xpath_node_setC1EPKNS_10xpath_nodeES3_NS0_6type_tE
bpls:_ZN4pugi14xpath_node_setC1ERKS0_
bpls:_ZN4pugi14xpath_node_setC1Ev
bpls:_ZN4pugi14xpath_node_setC2EOS0_
bpls:_ZN4pugi14xpath_node_setC2EPKNS_10xpath_nodeES3_NS0_6type_tE
bpls:_ZN4pugi14xpath_node_setC2ERKS0_
bpls:_ZN4pugi14xpath_node_setC2Ev
bpls:_ZN4pugi14xpath_node_setD1Ev
bpls:_ZN4pugi14xpath_node_setD2Ev
bpls:_ZN4pugi14xpath_node_setaSEOS0_
bpls:_ZN4pugi14xpath_node_setaSERKS0_
bpls:_ZN4pugi14xpath_variable3setEPKc
bpls:_ZN4pugi14xpath_variable3setERKNS_14xpath_node_setE
bpls:_ZN4pugi14xpath_variable3setEb
bpls:_ZN4pugi14xpath_variable3setEd
bpls:_ZN4pugi14xpath_variableC1ENS_16xpath_value_typeE
bpls:_ZN4pugi14xpath_variableC2ENS_16xpath_value_typeE
bpls:_ZN4pugi15xml_tree_walker3endERNS_8xml_nodeE
bpls:_ZN4pugi15xml_tree_walker5beginERNS_8xml_nodeE
bpls:_ZN4pugi15xml_tree_walkerC1Ev
bpls:_ZN4pugi15xml_tree_walkerC2Ev
bpls:_ZN4pugi15xml_tree_walkerD0Ev
bpls:_ZN4pugi15xml_tree_walkerD1Ev
bpls:_ZN4pugi15xml_tree_walkerD2Ev
bpls:_ZN4pugi15xml_writer_file5writeEPKvm
bpls:_ZN4pugi15xml_writer_fileC1EPv
bpls:_ZN4pugi15xml_writer_fileC2EPv
bpls:_ZN4pugi15xpath_exceptionC1ERKNS_18xpath_parse_resultE
bpls:_ZN4pugi15xpath_exceptionC2ERKNS_18xpath_parse_resultE
bpls:_ZN4pugi16xml_parse_resultC1Ev
bpls:_ZN4pugi16xml_parse_resultC2Ev
bpls:_ZN4pugi17xml_node_iteratorC1EPNS_15xml_node_structES2_
bpls:_ZN4pugi17xml_node_iteratorC1ERKNS_8xml_nodeE
bpls:_ZN4pugi17xml_node_iteratorC1Ev
bpls:_ZN4pugi17xml_node_iteratorC2EPNS_15xml_node_structES2_
bpls:_ZN4pugi17xml_node_iteratorC2ERKNS_8xml_nodeE
bpls:_ZN4pugi17xml_node_iteratorC2Ev
bpls:_ZN4pugi17xml_node_iteratormmEi
bpls:_ZN4pugi17xml_node_iteratormmEv
bpls:_ZN4pugi17xml_node_iteratorppEi
bpls:_ZN4pugi17xml_node_iteratorppEv
bpls:_ZN4pugi17xml_writer_stream5writeEPKvm
bpls:_ZN4pugi17xml_writer_streamC1ERSo
bpls:_ZN4pugi17xml_writer_streamC1ERSt13basic_ostreamIwSt11char_traitsIwEE
bpls:_ZN4pugi17xml_writer_streamC2ERSo
bpls:_ZN4pugi17xml_writer_streamC2ERSt13basic_ostreamIwSt11char_traitsIwEE
bpls:_ZN4pugi18xpath_parse_resultC1Ev
bpls:_ZN4pugi18xpath_parse_resultC2Ev
bpls:_ZN4pugi18xpath_variable_set3addEPKcNS_16xpath_value_typeE
bpls:_ZN4pugi18xpath_variable_set3getEPKc
bpls:_ZN4pugi18xpath_variable_set3setEPKcRKNS_14xpath_node_setE
bpls:_ZN4pugi18xpath_variable_set3setEPKcS2_
bpls:_ZN4pugi18xpath_variable_set3setEPKcb
bpls:_ZN4pugi18xpath_variable_set3setEPKcd
bpls:_ZN4pugi18xpath_variable_set5_swapERS0_
bpls:_ZN4pugi18xpath_variable_set6_cloneEPNS_14xpath_variableEPS2_
bpls:_ZN4pugi18xpath_variable_set7_assignERKS0_
bpls:_ZN4pugi18xpath_variable_set8_destroyEPNS_14xpath_variableE
bpls:_ZN4pugi18xpath_variable_setC1EOS0_
bpls:_ZN4pugi18xpath_variable_setC1ERKS0_
bpls:_ZN4pugi18xpath_variable_setC1Ev
bpls:_ZN4pugi18xpath_variable_setC2EOS0_
bpls:_ZN4pugi18xpath_variable_setC2ERKS0_
bpls:_ZN4pugi18xpath_variable_setC2Ev
bpls:_ZN4pugi18xpath_variable_setD1Ev
bpls:_ZN4pugi18xpath_variable_setD2Ev
bpls:_ZN4pugi18xpath_variable_setaSEOS0_
bpls:_ZN4pugi18xpath_variable_setaSERKS0_
bpls:_ZN4pugi22xml_attribute_iteratorC1EPNS_20xml_attribute_structEPNS_15xml_node_structE
bpls:_ZN4pugi22xml_attribute_iteratorC1ERKNS_13xml_attributeERKNS_8xml_nodeE
bpls:_ZN4pugi22xml_attribute_iteratorC1Ev
bpls:_ZN4pugi22xml_attribute_iteratorC2EPNS_20xml_attribute_structEPNS_15xml_node_structE
bpls:_ZN4pugi22xml_attribute_iteratorC2ERKNS_13xml_attributeERKNS_8xml_nodeE
bpls:_ZN4pugi22xml_attribute_iteratorC2Ev
bpls:_ZN4pugi22xml_attribute_iteratormmEi
bpls:_ZN4pugi22xml_attribute_iteratormmEv
bpls:_ZN4pugi22xml_attribute_iteratorppEi
bpls:_ZN4pugi22xml_attribute_iteratorppEv
bpls:_ZN4pugi23xml_named_node_iteratorC1EPNS_15xml_node_structES2_PKc
bpls:_ZN4pugi23xml_named_node_iteratorC1ERKNS_8xml_nodeEPKc
bpls:_ZN4pugi23xml_named_node_iteratorC1Ev
bpls:_ZN4pugi23xml_named_node_iteratorC2EPNS_15xml_node_structES2_PKc
bpls:_ZN4pugi23xml_named_node_iteratorC2ERKNS_8xml_nodeEPKc
bpls:_ZN4pugi23xml_named_node_iteratorC2Ev
bpls:_ZN4pugi23xml_named_node_iteratormmEi
bpls:_ZN4pugi23xml_named_node_iteratormmEv
bpls:_ZN4pugi23xml_named_node_iteratorppEi
bpls:_ZN4pugi23xml_named_node_iteratorppEv
bpls:_ZN4pugi30get_memory_allocation_functionEv
bpls:_ZN4pugi31set_memory_management_functionsEPFPvmEPFvS0_E
bpls:_ZN4pugi32get_memory_deallocation_functionEv
bpls:_ZN4pugi7as_utf8B5cxx11EPKw
bpls:_ZN4pugi7as_utf8ERKNSt7__cxx1112basic_stringIwSt11char_traitsIwESaIwEEE
bpls:_ZN4pugi7as_wideB5cxx11EPKc
bpls:_ZN4pugi7as_wideERKNSt7__cxx1112basic_stringIcSt11char_traitsIcESaIcEEE
bpls:_ZN4pugi8xml_node11append_copyERKNS_13xml_attributeE
bpls:_ZN4pugi8xml_node11append_copyERKS0_
bpls:_ZN4pugi8xml_node11append_moveERKS0_
bpls:_ZN4pugi8xml_node12append_childENS_13xml_node_typeE
bpls:_ZN4pugi8xml_node12append_childEPKc
bpls:_ZN4pugi8xml_node12prepend_copyERKNS_13xml_attributeE
bpls:_ZN4pugi8xml_node12prepend_copyERKS0_
bpls:_ZN4pugi8xml_node12prepend_moveERKS0_
bpls:_ZN4pugi8xml_node12remove_childEPKc
bpls:_ZN4pugi8xml_node12remove_childERKS0_
bpls:_ZN4pugi8xml_node13append_bufferEPKvmjNS_12xml_encodingE
bpls:_ZN4pugi8xml_node13prepend_childENS_13xml_node_typeE
bpls:_ZN4pugi8xml_node13prepend_childEPKc
bpls:_ZN4pugi8xml_node15remove_childrenEv
bpls:_ZN4pugi8xml_node16append_attributeEPKc
bpls:_ZN4pugi8xml_node16remove_attributeEPKc
bpls:_ZN4pugi8xml_node16remove_attributeERKNS_13xml_attributeE
bpls:_ZN4pugi8xml_node17insert_copy_afterERKNS_13xml_attributeES3_
bpls:_ZN4pugi8xml_node17insert_copy_afterERKS0_S2_
bpls:_ZN4pugi8xml_node17insert_move_afterERKS0_S2_
bpls:_ZN4pugi8xml_node17prepend_attributeEPKc
bpls:_ZN4pugi8xml_node17remove_attributesEv
bpls:_ZN4pugi8xml_node18insert_child_afterENS_13xml_node_typeERKS0_
bpls:_ZN4pugi8xml_node18insert_child_afterEPKcRKS0_
bpls:_ZN4pugi8xml_node18insert_copy_beforeERKNS_13xml_attributeES3_
bpls:_ZN4pugi8xml_node18insert_copy_beforeERKS0_S2_
bpls:_ZN4pugi8xml_node18insert_move_beforeERKS0_S2_
bpls:_ZN4pugi8xml_node19insert_child_beforeENS_13xml_node_typeERKS0_
bpls:_ZN4pugi8xml_node19insert_child_beforeEPKcRKS0_
bpls:_ZN4pugi8xml_node22insert_attribute_afterEPKcRKNS_13xml_attributeE
bpls:_ZN4pugi8xml_node23insert_attribute_beforeEPKcRKNS_13xml_attributeE
bpls:_ZN4pugi8xml_node8set_nameEPKc
bpls:_ZN4pugi8xml_node8traverseERNS_15xml_tree_walkerE
bpls:_ZN4pugi8xml_node9set_valueEPKc
bpls:_ZN4pugi8xml_nodeC1EPNS_15xml_node_structE
bpls:_ZN4pugi8xml_nodeC1Ev
bpls:_ZN4pugi8xml_nodeC2EPNS_15xml_node_structE
bpls:_ZN4pugi8xml_nodeC2Ev
bpls:_ZN4pugi8xml_text3setEPKc
bpls:_ZN4pugi8xml_text3setEb
bpls:_ZN4pugi8xml_text3setEd
bpls:_ZN4pugi8xml_text3setEdi
bpls:_ZN4pugi8xml_text3setEf
bpls:_ZN4pugi8xml_text3setEfi
bpls:_ZN4pugi8xml_text3setEi
bpls:_ZN4pugi8xml_text3setEj
bpls:_ZN4pugi8xml_text3setEl
bpls:_ZN4pugi8xml_text3setEm
bpls:_ZN4pugi8xml_text3setEx
bpls:_ZN4pugi8xml_text3setEy
bpls:_ZN4pugi8xml_text9_data_newEv
bpls:_ZN4pugi8xml_textC1EPNS_15xml_node_structE
bpls:_ZN4pugi8xml_textC1Ev
bpls:_ZN4pugi8xml_textC2EPNS_15xml_node_structE
bpls:_ZN4pugi8xml_textC2Ev
bpls:_ZN4pugi8xml_textaSEPKc
bpls:_ZN4pugi8xml_textaSEb
bpls:_ZN4pugi8xml_textaSEd
bpls:_ZN4pugi8xml_textaSEf
bpls:_ZN4pugi8xml_textaSEi
bpls:_ZN4pugi8xml_textaSEj
bpls:_ZN4pugi8xml_textaSEl
bpls:_ZN4pugi8xml_textaSEm
bpls:_ZN4pugi8xml_textaSEx
bpls:_ZN4pugi8xml_textaSEy
bpls:_ZNK4pugi10xpath_node4nodeEv
bpls:_ZNK4pugi10xpath_node6parentEv
bpls:_ZNK4pugi10xpath_node9attributeEv
bpls:_ZNK4pugi10xpath_nodecvPFvPPPS0_EEv
bpls:_ZNK4pugi10xpath_nodeeqERKS0_
bpls:_ZNK4pugi10xpath_nodeneERKS0_
bpls:_ZNK4pugi10xpath_nodentEv
bpls:_ZNK4pugi11xpath_query11return_typeEv
bpls:_ZNK4pugi11xpath_query13evaluate_nodeERKNS_10xpath_nodeE
bpls:_ZNK4pugi11xpath_query15evaluate_numberERKNS_10xpath_nodeE
bpls:_ZNK4pugi11xpath_query15evaluate_stringB5cxx11ERKNS_10xpath_nodeE
bpls:_ZNK4pugi11xpath_query15evaluate_stringEPcmRKNS_10xpath_nodeE
bpls:_ZNK4pugi11xpath_query16evaluate_booleanERKNS_10xpath_nodeE
bpls:_ZNK4pugi11xpath_query17evaluate_node_setERKNS_10xpath_nodeE
bpls:_ZNK4pugi11xpath_query6resultEv
bpls:_ZNK4pugi11xpath_querycvPFvPPPS0_EEv
bpls:_ZNK4pugi11xpath_queryntEv
bpls:_ZNK4pugi12xml_document16document_elementEv
bpls:_ZNK4pugi12xml_document4saveERNS_10xml_writerEPKcjNS_12xml_encodingE
bpls:_ZNK4pugi12xml_document4saveERSoPKcjNS_12xml_encodingE
bpls:_ZNK4pugi12xml_document4saveERSt13basic_ostreamIwSt11char_traitsIwEEPKcj
bpls:_ZNK4pugi12xml_document9save_fileEPKcS2_jNS_12xml_encodingE
bpls:_ZNK4pugi12xml_document9save_fileEPKwPKcjNS_12xml_encodingE
bpls:_ZNK4pugi13xml_attribute10hash_valueEv
bpls:_ZNK4pugi13xml_attribute14next_attributeEv
bpls:_ZNK4pugi13xml_attribute15internal_objectEv
bpls:_ZNK4pugi13xml_attribute18previous_attributeEv
bpls:_ZNK4pugi13xml_attribute4nameEv
bpls:_ZNK4pugi13xml_attribute5emptyEv
bpls:_ZNK4pugi13xml_attribute5valueEv
bpls:_ZNK4pugi13xml_attribute6as_intEi
bpls:_ZNK4pugi13xml_attribute7as_boolEb
bpls:_ZNK4pugi13xml_attribute7as_uintEj
bpls:_ZNK4pugi13xml_attribute8as_floatEf
bpls:_ZNK4pugi13xml_attribute8as_llongEx
bpls:_ZNK4pugi13xml_attribute9as_doubleEd
bpls:_ZNK4pugi13xml_attribute9as_stringEPKc
bpls:_ZNK4pugi13xml_attribute9as_ullongEy
bpls:_ZNK4pugi13xml_attributecvPFvPPPS0_EEv
bpls:_ZNK4pugi13xml_attributeeqERKS0_
bpls:_ZNK4pugi13xml_attributegeERKS0_
bpls:_ZNK4pugi13xml_attributegtERKS0_
bpls:_ZNK4pugi13xml_attributeleERKS0_
bpls:_ZNK4pugi13xml_attributeltERKS0_
bpls:_ZNK4pugi13xml_attributeneERKS0_
bpls:_ZNK4pugi13xml_attributentEv
bpls:_ZNK4pugi14xpath_node_set3endEv
bpls:_ZNK4pugi14xpath_node_set4sizeEv
bpls:_ZNK4pugi14xpath_node_set4typeEv
bpls:_ZNK4pugi14xpath_node_set5beginEv
bpls:_ZNK4pugi14xpath_node_set5emptyEv
bpls:_ZNK4pugi14xpath_node_set5firstEv
bpls:_ZNK4pugi14xpath_node_setixEm
bpls:_ZNK4pugi14xpath_variable10get_numberEv
bpls:_ZNK4pugi14xpath_variable10get_stringEv
bpls:_ZNK4pugi14xpath_variable11get_booleanEv
bpls:_ZNK4pugi14xpath_variable12get_node_setEv
bpls:_ZNK4pugi14xpath_variable4nameEv
bpls:_ZNK4pugi14xpath_variable4typeEv
bpls:_ZNK4pugi15xml_tree_walker5depthEv
bpls:_ZNK4pugi15xpath_exception4whatEv
bpls:_ZNK4pugi15xpath_exception6resultEv
bpls:_ZNK4pugi16xml_parse_result11descriptionEv
bpls:_ZNK4pugi16xml_parse_resultcvbEv
bpls:_ZNK4pugi17xml_node_iteratordeEv
bpls:_ZNK4pugi17xml_node_iteratoreqERKS0_
bpls:_ZNK4pugi17xml_node_iteratorneERKS0_
bpls:_ZNK4pugi17xml_node_iteratorptEv
bpls:_ZNK4pugi18xpath_parse_result11descriptionEv
bpls:_ZNK4pugi18xpath_parse_resultcvbEv
bpls:_ZNK4pugi18xpath_variable_set3getEPKc
bpls:_ZNK4pugi18xpath_variable_set5_findEPKc
bpls:_ZNK4pugi22xml_attribute_iteratordeEv
bpls:_ZNK4pugi22xml_attribute_iteratoreqERKS0_
bpls:_ZNK4pugi22xml_attribute_iteratorneERKS0_
bpls:_ZNK4pugi22xml_attribute_iteratorptEv
bpls:_ZNK4pugi23xml_named_node_iteratordeEv
bpls:_ZNK4pugi23xml_named_node_iteratoreqERKS0_
bpls:_ZNK4pugi23xml_named_node_iteratorneERKS0_
bpls:_ZNK4pugi23xml_named_node_iteratorptEv
bpls:_ZNK4pugi8xml_node10attributesEv
bpls:_ZNK4pugi8xml_node10hash_valueEv
bpls:_ZNK4pugi8xml_node10last_childEv
bpls:_ZNK4pugi8xml_node11child_valueEPKc
bpls:_ZNK4pugi8xml_node11child_valueEv
bpls:_ZNK4pugi8xml_node11first_childEv
bpls:_ZNK4pugi8xml_node11select_nodeEPKcPNS_18xpath_variable_setE
bpls:_ZNK4pugi8xml_node11select_nodeERKNS_11xpath_queryE
bpls:_ZNK4pugi8xml_node12next_siblingEPKc
bpls:_ZNK4pugi8xml_node12next_siblingEv
bpls:_ZNK4pugi8xml_node12offset_debugEv
bpls:_ZNK4pugi8xml_node12select_nodesEPKcPNS_18xpath_variable_setE
bpls:_ZNK4pugi8xml_node12select_nodesERKNS_11xpath_queryE
bpls:_ZNK4pugi8xml_node14attributes_endEv
bpls:_ZNK4pugi8xml_node14last_attributeEv
bpls:_ZNK4pugi8xml_node15first_attributeEv
bpls:_ZNK4pugi8xml_node15internal_objectEv
bpls:_ZNK4pugi8xml_node16attributes_beginEv
bpls:_ZNK4pugi8xml_node16previous_siblingEPKc
bpls:_ZNK4pugi8xml_node16previous_siblingEv
bpls:_ZNK4pugi8xml_node18select_single_nodeEPKcPNS_18xpath_variable_setE
bpls:_ZNK4pugi8xml_node18select_single_nodeERKNS_11xpath_queryE
bpls:_ZNK4pugi8xml_node21first_element_by_pathEPKcc
bpls:_ZNK4pugi8xml_node23find_child_by_attributeEPKcS2_
bpls:_ZNK4pugi8xml_node23find_child_by_attributeEPKcS2_S2_
bpls:_ZNK4pugi8xml_node3endEv
bpls:_ZNK4pugi8xml_node4nameEv
bpls:_ZNK4pugi8xml_node4pathB5cxx11Ec
bpls:_ZNK4pugi8xml_node4rootEv
bpls:_ZNK4pugi8xml_node4textEv
bpls:_ZNK4pugi8xml_node4typeEv
bpls:_ZNK4pugi8xml_node5beginEv
bpls:_ZNK4pugi8xml_node5childEPKc
bpls:_ZNK4pugi8xml_node5emptyEv
bpls:_ZNK4pugi8xml_node5printERNS_10xml_writerEPKcjNS_12xml_encodingEj
bpls:_ZNK4pugi8xml_node5printERSoPKcjNS_12xml_encodingEj
bpls:_ZNK4pugi8xml_node5printERSt13basic_ostreamIwSt11char_traitsIwEEPKcjj
bpls:_ZNK4pugi8xml_node5valueEv
bpls:_ZNK4pugi8xml_node6parentEv
bpls:_ZNK4pugi8xml_node8childrenEPKc
bpls:_ZNK4pugi8xml_node8childrenEv
bpls:_ZNK4pugi8xml_node9attributeEPKc
bpls:_ZNK4pugi8xml_node9attributeEPKcRNS_13xml_attributeE
bpls:_ZNK4pugi8xml_nodecvPFvPPPS0_EEv
bpls:_ZNK4pugi8xml_nodeeqERKS0_
bpls:_ZNK4pugi8xml_nodegeERKS0_
bpls:_ZNK4pugi8xml_nodegtERKS0_
bpls:_ZNK4pugi8xml_nodeleERKS0_
bpls:_ZNK4pugi8xml_nodeltERKS0_
bpls:_ZNK4pugi8xml_nodeneERKS0_
bpls:_ZNK4pugi8xml_nodentEv
bpls:_ZNK4pugi8xml_text3getEv
bpls:_ZNK4pugi8xml_text4dataEv
bpls:_ZNK4pugi8xml_text5_dataEv
bpls:_ZNK4pugi8xml_text5emptyEv
bpls:_ZNK4pugi8xml_text6as_intEi
bpls:_ZNK4pugi8xml_text7as_boolEb
bpls:_ZNK4pugi8xml_text7as_uintEj
bpls:_ZNK4pugi8xml_text8as_floatEf
bpls:_ZNK4pugi8xml_text8as_llongEx
bpls:_ZNK4pugi8xml_text9as_doubleEd
bpls:_ZNK4pugi8xml_text9as_stringEPKc
bpls:_ZNK4pugi8xml_text9as_ullongEy
bpls:_ZNK4pugi8xml_textcvPFvPPPS0_EEv
bpls:_ZNK4pugi8xml_textntEv
bpls:__bss_start
bpls:_edata
bpls:_end
libadios2_atl.so.2:ATLfprint_version
libadios2_atl.so.2:ATLget_hash
libadios2_atl.so.2:ATLprint_version
libadios2_atl.so.2:Tcl_DeleteHashEntry
libadios2_atl.so.2:Tcl_DeleteHashTable
libadios2_atl.so.2:Tcl_FirstHashEntry
libadios2_atl.so.2:Tcl_HashStats
libadios2_atl.so.2:Tcl_InitHashTable
libadios2_atl.so.2:Tcl_NextHashEntry
libadios2_atl.so.2:add_attr
libadios2_atl.so.2:add_double_attr
libadios2_atl.so.2:add_float_attr
libadios2_atl.so.2:add_int_attr
libadios2_atl.so.2:add_long_attr
libadios2_atl.so.2:add_opaque_attr
libadios2_atl.so.2:add_pattr
libadios2_atl.so.2:add_ref_attr_list
libadios2_atl.so.2:add_string_attr
libadios2_atl.so.2:atl_base64_decode
libadios2_atl.so.2:atl_base64_encode
libadios2_atl.so.2:atl_install_mutex_funcs
libadios2_atl.so.2:atom_from_string
libadios2_atl.so.2:attr_add_list
libadios2_atl.so.2:attr_atom_from_string
libadios2_atl.so.2:attr_copy_list
libadios2_atl.so.2:attr_count
libadios2_atl.so.2:attr_join_lists
libadios2_atl.so.2:attr_list_from_string
libadios2_atl.so.2:attr_list_ref_count
libadios2_atl.so.2:attr_list_subset
libadios2_atl.so.2:attr_list_to_string
libadios2_atl.so.2:attr_merge_lists
libadios2_atl.so.2:attr_string_from_atom
libadios2_atl.so.2:compare_attr_p_by_val
libadios2_atl.so.2:create_AttrBuffer
libadios2_atl.so.2:create_attr_list
libadios2_atl.so.2:decode_attr_from_xmit
libadios2_atl.so.2:dump_attr_list
libadios2_atl.so.2:encode_attr_for_xmit
libadios2_atl.so.2:fdump_attr_list
libadios2_atl.so.2:free_AttrBuffer
libadios2_atl.so.2:free_atom_server
libadios2_atl.so.2:free_attr_list
libadios2_atl.so.2:get_attr
libadios2_atl.so.2:get_attr_id
libadios2_atl.so.2:get_double_attr
libadios2_atl.so.2:get_float_attr
libadios2_atl.so.2:get_int_attr
libadios2_atl.so.2:get_long_attr
libadios2_atl.so.2:get_opaque_attr
libadios2_atl.so.2:get_pattr
libadios2_atl.so.2:get_server_id
libadios2_atl.so.2:get_string_attr
libadios2_atl.so.2:global_as
libadios2_atl.so.2:global_as_lock
libadios2_atl.so.2:global_as_lock_data
libadios2_atl.so.2:global_as_unlock
libadios2_atl.so.2:init_atom_server
libadios2_atl.so.2:query_attr
libadios2_atl.so.2:query_pattr
libadios2_atl.so.2:replace_attr
libadios2_atl.so.2:replace_double_attr
libadios2_atl.so.2:replace_float_attr
libadios2_atl.so.2:replace_int_attr
libadios2_atl.so.2:replace_long_attr
libadios2_atl.so.2:replace_pattr
libadios2_atl.so.2:set_attr
libadios2_atl.so.2:set_double_attr
libadios2_atl.so.2:set_float_attr
libadios2_atl.so.2:set_int_attr
libadios2_atl.so.2:set_long_attr
libadios2_atl.so.2:set_opaque_attr
libadios2_atl.so.2:set_pattr
libadios2_atl.so.2:set_string_and_atom
libadios2_atl.so.2:set_string_attr
libadios2_atl.so.2:string_from_atom
libadios2_c.so.2:__bss_start
libadios2_c.so.2:_edata
libadios2_c.so.2:_end
libadios2_c.so.2:adios2_add_operation
libadios2_c.so.2:adios2_add_transport
libadios2_c.so.2:adios2_at_io
libadios2_c.so.2:adios2_attribute_data
libadios2_c.so.2:adios2_attribute_is_value
libadios2_c.so.2:adios2_attribute_name
libadios2_c.so.2:adios2_attribute_size
libadios2_c.so.2:adios2_attribute_type
libadios2_c.so.2:adios2_attribute_type_string
libadios2_c.so.2:adios2_begin_step
libadios2_c.so.2:adios2_clear_parameters
libadios2_c.so.2:adios2_close
libadios2_c.so.2:adios2_close_by_index
libadios2_c.so.2:adios2_current_step
libadios2_c.so.2:adios2_declare_io
libadios2_c.so.2:adios2_define_attribute
libadios2_c.so.2:adios2_define_attribute_array
libadios2_c.so.2:adios2_define_operator
libadios2_c.so.2:adios2_define_variable
libadios2_c.so.2:adios2_define_variable_attribute
libadios2_c.so.2:adios2_define_variable_attribute_array
libadios2_c.so.2:adios2_end_step
libadios2_c.so.2:adios2_engine_get_type
libadios2_c.so.2:adios2_engine_name
libadios2_c.so.2:adios2_engine_type
libadios2_c.so.2:adios2_finalize
libadios2_c.so.2:adios2_flush
libadios2_c.so.2:adios2_flush_all
libadios2_c.so.2:adios2_flush_all_engines
libadios2_c.so.2:adios2_flush_by_index
libadios2_c.so.2:adios2_get
libadios2_c.so.2:adios2_get_by_name
libadios2_c.so.2:adios2_get_engine
libadios2_c.so.2:adios2_get_parameter
libadios2_c.so.2:adios2_in_config_file
libadios2_c.so.2:adios2_init_config_glue_serial
libadios2_c.so.2:adios2_init_config_serial
libadios2_c.so.2:adios2_init_serial
libadios2_c.so.2:adios2_inquire_all_attributes
libadios2_c.so.2:adios2_inquire_all_variables
libadios2_c.so.2:adios2_inquire_attribute
libadios2_c.so.2:adios2_inquire_group_attributes
libadios2_c.so.2:adios2_inquire_group_variables
libadios2_c.so.2:adios2_inquire_operator
libadios2_c.so.2:adios2_inquire_subgroups
libadios2_c.so.2:adios2_inquire_variable
libadios2_c.so.2:adios2_inquire_variable_attribute
libadios2_c.so.2:adios2_lock_reader_selections
libadios2_c.so.2:adios2_lock_writer_definitions
libadios2_c.so.2:adios2_open
libadios2_c.so.2:adios2_operator_type
libadios2_c.so.2:adios2_perform_gets
libadios2_c.so.2:adios2_perform_puts
libadios2_c.so.2:adios2_put
libadios2_c.so.2:adios2_put_by_name
libadios2_c.so.2:adios2_remove_all_attributes
libadios2_c.so.2:adios2_remove_all_ios
libadios2_c.so.2:adios2_remove_all_variables
libadios2_c.so.2:adios2_remove_attribute
libadios2_c.so.2:adios2_remove_io
libadios2_c.so.2:adios2_remove_variable
libadios2_c.so.2:adios2_selection_size
libadios2_c.so.2:adios2_set_block_selection
libadios2_c.so.2:adios2_set_engine
libadios2_c.so.2:adios2_set_memory_selection
libadios2_c.so.2:adios2_set_operation_parameter
libadios2_c.so.2:adios2_set_parameter
libadios2_c.so.2:adios2_set_parameters
libadios2_c.so.2:adios2_set_selection
libadios2_c.so.2:adios2_set_shape
libadios2_c.so.2:adios2_set_step_selection
libadios2_c.so.2:adios2_set_transport_parameter
libadios2_c.so.2:adios2_steps
libadios2_c.so.2:adios2_variable_count
libadios2_c.so.2:adios2_variable_max
libadios2_c.so.2:adios2_variable_min
libadios2_c.so.2:adios2_variable_name
libadios2_c.so.2:adios2_variable_ndims
libadios2_c.so.2:adios2_variable_shape
libadios2_c.so.2:adios2_variable_shapeid
libadios2_c.so.2:adios2_variable_start
libadios2_c.so.2:adios2_variable_steps
libadios2_c.so.2:adios2_variable_steps_start
libadios2_c.so.2:adios2_variable_type
libadios2_c.so.2:adios2_variable_type_string
libadios2_cmenet.so:IP_get_diagnostics
libadios2_cmenet.so:cmenet_add_static_transport
libadios2_cmenet.so:get_IP_config
libadios2_cmenet.so:libcmenet_LTX_connection_eq
libadios2_cmenet.so:libcmenet_LTX_finalize_conn_nonblocking
libadios2_cmenet.so:libcmenet_LTX_initialize
libadios2_cmenet.so:libcmenet_LTX_initiate_conn_nonblocking
libadios2_cmenet.so:libcmenet_LTX_non_blocking_listen
libadios2_cmenet.so:libcmenet_LTX_read_block_func
libadios2_cmenet.so:libcmenet_LTX_self_check
libadios2_cmenet.so:libcmenet_LTX_shutdown_conn
libadios2_cmenet.so:libcmenet_LTX_writev_func
libadios2_cmepoll.so:libcmepoll_LTX_add_delayed_task
libadios2_cmepoll.so:libcmepoll_LTX_add_periodic
libadios2_cmepoll.so:libcmepoll_LTX_add_select
libadios2_cmepoll.so:libcmepoll_LTX_blocking_function
libadios2_cmepoll.so:libcmepoll_LTX_polling_function
libadios2_cmepoll.so:libcmepoll_LTX_remove_periodic
libadios2_cmepoll.so:libcmepoll_LTX_remove_select
libadios2_cmepoll.so:libcmepoll_LTX_select_free
libadios2_cmepoll.so:libcmepoll_LTX_select_initialize
libadios2_cmepoll.so:libcmepoll_LTX_select_shutdown
libadios2_cmepoll.so:libcmepoll_LTX_select_stop
libadios2_cmepoll.so:libcmepoll_LTX_wake_function
libadios2_cmepoll.so:libcmepoll_LTX_write_select
libadios2_cmepoll.so:libcmepoll_init_sel_item
libadios2_cmfabric.so:CMFABRIC_data_available
libadios2_cmfabric.so:IP_get_diagnostics
libadios2_cmfabric.so:MPIDI_Global
libadios2_cmfabric.so:cmfabric_add_static_transport
libadios2_cmfabric.so:cq_readerr
libadios2_cmfabric.so:get_IP_config
libadios2_cmfabric.so:libcmfabric_LTX_connection_eq
libadios2_cmfabric.so:libcmfabric_LTX_initialize
libadios2_cmfabric.so:libcmfabric_LTX_initiate_conn
libadios2_cmfabric.so:libcmfabric_LTX_install_pull_schedule
libadios2_cmfabric.so:libcmfabric_LTX_non_blocking_listen
libadios2_cmfabric.so:libcmfabric_LTX_read_block_func
libadios2_cmfabric.so:libcmfabric_LTX_self_check
libadios2_cmfabric.so:libcmfabric_LTX_set_write_notify
libadios2_cmfabric.so:libcmfabric_LTX_shutdown_conn
libadios2_cmfabric.so:libcmfabric_LTX_writev_complete_notify_func
libadios2_cmfabric.so:libcmfabric_LTX_writev_func
libadios2_cmfabric.so:msg_type
libadios2_cmmulticast.so:libcmmulticast_LTX_connection_eq
libadios2_cmmulticast.so:libcmmulticast_LTX_initialize
libadios2_cmmulticast.so:libcmmulticast_LTX_initiate_conn
libadios2_cmmulticast.so:libcmmulticast_LTX_non_blocking_listen
libadios2_cmmulticast.so:libcmmulticast_LTX_read_func
libadios2_cmmulticast.so:libcmmulticast_LTX_self_check
libadios2_cmmulticast.so:libcmmulticast_LTX_shutdown_conn
libadios2_cmmulticast.so:libcmmulticast_LTX_writev_func
libadios2_cmselect.so:libcmselect_LTX_add_delayed_task
libadios2_cmselect.so:libcmselect_LTX_add_periodic
libadios2_cmselect.so:libcmselect_LTX_add_select
libadios2_cmselect.so:libcmselect_LTX_blocking_function
libadios2_cmselect.so:libcmselect_LTX_polling_function
libadios2_cmselect.so:libcmselect_LTX_remove_periodic
libadios2_cmselect.so:libcmselect_LTX_remove_select
libadios2_cmselect.so:libcmselect_LTX_select_free
libadios2_cmselect.so:libcmselect_LTX_select_initialize
libadios2_cmselect.so:libcmselect_LTX_select_shutdown
libadios2_cmselect.so:libcmselect_LTX_select_stop
libadios2_cmselect.so:libcmselect_LTX_wake_function
libadios2_cmselect.so:libcmselect_LTX_write_select
libadios2_cmselect.so:libcmselect_init_sel_item
libadios2_cmsockets.so:IP_get_diagnostics
libadios2_cmsockets.so:cmsockets_add_static_transport
libadios2_cmsockets.so:get_IP_config
libadios2_cmsockets.so:libcmsockets_LTX_NBwritev_func
libadios2_cmsockets.so:libcmsockets_LTX_connection_eq
libadios2_cmsockets.so:libcmsockets_LTX_get_transport_characteristics
libadios2_cmsockets.so:libcmsockets_LTX_initialize
libadios2_cmsockets.so:libcmsockets_LTX_initiate_conn
libadios2_cmsockets.so:libcmsockets_LTX_non_blocking_listen
libadios2_cmsockets.so:libcmsockets_LTX_read_to_buffer_func
libadios2_cmsockets.so:libcmsockets_LTX_self_check
libadios2_cmsockets.so:libcmsockets_LTX_set_write_notify
libadios2_cmsockets.so:libcmsockets_LTX_shutdown_conn
libadios2_cmsockets.so:libcmsockets_LTX_writev_func
libadios2_cmsockets.so:socket_global_init
libadios2_cmudp.so:cmudp_add_static_transport
libadios2_cmudp.so:libcmudp_LTX_connection_eq
libadios2_cmudp.so:libcmudp_LTX_get_transport_characteristics
libadios2_cmudp.so:libcmudp_LTX_initialize
libadios2_cmudp.so:libcmudp_LTX_initiate_conn
libadios2_cmudp.so:libcmudp_LTX_non_blocking_listen
libadios2_cmudp.so:libcmudp_LTX_read_block_func
libadios2_cmudp.so:libcmudp_LTX_self_check
libadios2_cmudp.so:libcmudp_LTX_shutdown_conn
libadios2_cmudp.so:libcmudp_LTX_writev_func
libadios2_cmzplenet.so:IP_get_diagnostics
libadios2_cmzplenet.so:ZPLENETdummy
libadios2_cmzplenet.so:cmzplenet_add_static_transport
libadios2_cmzplenet.so:enet_free
libadios2_cmzplenet.so:enet_list_clear
libadios2_cmzplenet.so:enet_list_insert
libadios2_cmzplenet.so:enet_list_move
libadios2_cmzplenet.so:enet_list_remove
libadios2_cmzplenet.so:enet_list_size
libadios2_cmzplenet.so:enet_malloc
libadios2_cmzplenet.so:get_IP_config
libadios2_cmzplenet.so:libcmzplenet_LTX_connection_eq
libadios2_cmzplenet.so:libcmzplenet_LTX_finalize_conn_nonblocking
libadios2_cmzplenet.so:libcmzplenet_LTX_initialize
libadios2_cmzplenet.so:libcmzplenet_LTX_initiate_conn_nonblocking
libadios2_cmzplenet.so:libcmzplenet_LTX_non_blocking_listen
libadios2_cmzplenet.so:libcmzplenet_LTX_read_block_func
libadios2_cmzplenet.so:libcmzplenet_LTX_self_check
libadios2_cmzplenet.so:libcmzplenet_LTX_shutdown_conn
libadios2_cmzplenet.so:libcmzplenet_LTX_writev_func
libadios2_core.so.2:AddToLastCallFreeList
libadios2_core.so.2:CM_TRANSPORT_ATOM
libadios2_core.so.2:CP_CommPatternLockedHandler
libadios2_core.so.2:CP_GetContactString
libadios2_core.so.2:CP_LockReaderDefinitionsHandler
libadios2_core.so.2:CP_PeerSetupHandler
libadios2_core.so.2:CP_ReaderActivateHandler
libadios2_core.so.2:CP_ReaderCloseHandler
libadios2_core.so.2:CP_ReaderRegisterHandler
libadios2_core.so.2:CP_ReleaseTimestepHandler
libadios2_core.so.2:CP_TimestepMetadataHandler
libadios2_core.so.2:CP_WriterCloseHandler
libadios2_core.so.2:CP_WriterResponseHandler
libadios2_core.so.2:CP_consolidateDataToAll
libadios2_core.so.2:CP_consolidateDataToRankZero
libadios2_core.so.2:CP_distributeDataFromRankZero
libadios2_core.so.2:CP_dumpParams
libadios2_core.so.2:CP_error
libadios2_core.so.2:CP_getCPInfo
libadios2_core.so.2:CP_newStream
libadios2_core.so.2:CP_validateParams
libadios2_core.so.2:CP_verbose
libadios2_core.so.2:ContactWriter
libadios2_core.so.2:DoStreamSummary
libadios2_core.so.2:ExtractSelectionFromPartialCM
libadios2_core.so.2:ExtractSelectionFromPartialRM
libadios2_core.so.2:FFSClearTimestepData
libadios2_core.so.2:FFSFreeMarshalData
libadios2_core.so.2:FFSMarshalInstallMetadata
libadios2_core.so.2:FFSMarshalInstallPreciousMetadata
libadios2_core.so.2:FFS_ZFPCompress
libadios2_core.so.2:FFS_ZFPDecompress
libadios2_core.so.2:FileNameList
libadios2_core.so.2:GetZFPStream
libadios2_core.so.2:IPDiagString
libadios2_core.so.2:LoadEVpathDP
libadios2_core.so.2:LoadRdmaDP
libadios2_core.so.2:ReaderConnCloseHandler
libadios2_core.so.2:SMPI_Allgather
libadios2_core.so.2:SMPI_Allgatherv
libadios2_core.so.2:SMPI_Allreduce
libadios2_core.so.2:SMPI_Barrier
libadios2_core.so.2:SMPI_Bcast
libadios2_core.so.2:SMPI_Comm_rank
libadios2_core.so.2:SMPI_Comm_size
libadios2_core.so.2:SMPI_Gather
libadios2_core.so.2:SMPI_Gatherv
libadios2_core.so.2:SSTSetNetworkCallback
libadios2_core.so.2:SSTStreamStatusStr
libadios2_core.so.2:SelectDP
libadios2_core.so.2:SstAdvanceStep
libadios2_core.so.2:SstCurrentStep
libadios2_core.so.2:SstFFSGetDeferred
libadios2_core.so.2:SstFFSGetLocalDeferred
libadios2_core.so.2:SstFFSMarshal
libadios2_core.so.2:SstFFSMarshalAttribute
libadios2_core.so.2:SstFFSPerformGets
libadios2_core.so.2:SstFFSSetZFPParams
libadios2_core.so.2:SstFFSWriterBeginStep
libadios2_core.so.2:SstFFSWriterEndStep
libadios2_core.so.2:SstGetCurMetadata
libadios2_core.so.2:SstInternalProvideTimestep
libadios2_core.so.2:SstProvideTimestep
libadios2_core.so.2:SstReadRemoteMemory
libadios2_core.so.2:SstReaderClose
libadios2_core.so.2:SstReaderDefinitionLock
libadios2_core.so.2:SstReaderGetParams
libadios2_core.so.2:SstReaderInitFFSCallback
libadios2_core.so.2:SstReaderOpen
libadios2_core.so.2:SstReleaseStep
libadios2_core.so.2:SstStreamDestroy
libadios2_core.so.2:SstWaitForCompletion
libadios2_core.so.2:SstWriterClose
libadios2_core.so.2:SstWriterDefinitionLock
libadios2_core.so.2:SstWriterInitMetadataCallback
libadios2_core.so.2:SstWriterOpen
libadios2_core.so.2:Svcs
libadios2_core.so.2:WriterConnCloseHandler
libadios2_core.so.2:WriterParticipateInReaderOpen
libadios2_core.so.2:ZFPcompressionPossible
libadios2_core.so.2:_ZN14SstParamParser11ParseParamsERN6adios24core2IOER10_SstParams
libadios2_core.so.2:_ZN4YAML10DirectivesC1Ev
libadios2_core.so.2:_ZN4YAML10DirectivesC2Ev
libadios2_core.so.2:_ZN4YAML10NodeEvents12AliasManager17RegisterReferenceERKNS_6detail4nodeE
libadios2_core.so.2:_ZN4YAML10NodeEvents4EmitERNS_12EventHandlerE
libadios2_core.so.2:_ZN4YAML10NodeEvents5SetupERKNS_6detail4nodeE
libadios2_core.so.2:_ZN4YAML10NodeEventsC1ERKNS_4NodeE
libadios2_core.so.2:_ZN4YAML10NodeEventsC2ERKNS_4NodeE
libadios2_core.so.2:_ZN4YAML10ScanScalarB5cxx11ERNS_6StreamERNS_16ScanScalarParamsE
libadios2_core.so.2:_ZN4YAML11BadPushbackD0Ev
libadios2_core.so.2:_ZN4YAML11BadPushbackD1Ev
libadios2_core.so.2:_ZN4YAML11BadPushbackD2Ev
libadios2_core.so.2:_ZN4YAML11InvalidNodeD0Ev
libadios2_core.so.2:_ZN4YAML11InvalidNodeD1Ev
libadios2_core.so.2:_ZN4YAML11InvalidNodeD2Ev
libadios2_core.so.2:_ZN4YAML11KeyNotFoundD0Ev
libadios2_core.so.2:_ZN4YAML11KeyNotFoundD1Ev
libadios2_core.so.2:_ZN4YAML11KeyNotFoundD2Ev
libadios2_core.so.2:_ZN4YAML11NodeBuilder10OnMapStartERKNS_4MarkERKNSt7__cxx1112basic_stringIcSt11char_traitsIcESaIcEEEmNS_12EmitterStyle5valueE
libadios2_core.so.2:_ZN4YAML11NodeBuilder13OnDocumentEndEv
libadios2_core.so.2:_ZN4YAML11NodeBuilder13OnSequenceEndEv
libadios2_core.so.2:_ZN4YAML11NodeBuilder14RegisterAnchorEmRNS_6detail4nodeE
libadios2_core.so.2:_ZN4YAML11NodeBuilder15OnDocumentStartERKNS_4MarkE
libadios2_core.so.2:_ZN4YAML11NodeBuilder15OnSequenceStartERKNS_4MarkERKNSt7__cxx1112basic_stringIcSt11char_traitsIcESaIcEEEmNS_12EmitterStyle5valueE
libadios2_core.so.2:_ZN4YAML11NodeBuilder3PopEv
libadios2_core.so.2:_ZN4YAML11NodeBuilder4PushERKNS_4MarkEm
libadios2_core.so.2:_ZN4YAML11NodeBuilder4PushERNS_6detail4nodeE
libadios2_core.so.2:_ZN4YAML11NodeBuilder4RootEv
libadios2_core.so.2:_ZN4YAML11NodeBuilder6OnNullERKNS_4MarkEm
libadios2_core.so.2:_ZN4YAML11NodeBuilder7OnAliasERKNS_4MarkEm
libadios2_core.so.2:_ZN4YAML11NodeBuilder8OnMapEndEv
libadios2_core.so.2:_ZN4YAML11NodeBuilder8OnScalarERKNS_4MarkERKNSt7__cxx1112basic_stringIcSt11char_traitsIcESaIcEEEmSB_
libadios2_core.so.2:_ZN4YAML11NodeBuilderC1Ev
libadios2_core.so.2:_ZN4YAML11NodeBuilderC2Ev
libadios2_core.so.2:_ZN4YAML11NodeBuilderD0Ev
libadios2_core.so.2:_ZN4YAML11NodeBuilderD1Ev
libadios2_core.so.2:_ZN4YAML11NodeBuilderD2Ev
libadios2_core.so.2:_ZN4YAML12BadSubscriptD0Ev
libadios2_core.so.2:_ZN4YAML12BadSubscriptD1Ev
libadios2_core.so.2:_ZN4YAML12BadSubscriptD2Ev
libadios2_core.so.2:_ZN4YAML12DecodeBase64ERKNSt7__cxx1112basic_stringIcSt11char_traitsIcESaIcEEE
libadios2_core.so.2:_ZN4YAML12EmitterState10EndedGroupENS_9GroupType5valueE
libadios2_core.so.2:_ZN4YAML12EmitterState10SetLongKeyEv
libadios2_core.so.2:_ZN4YAML12EmitterState10StartedDocEv
libadios2_core.so.2:_ZN4YAML12EmitterState11SetFlowTypeENS_9GroupType5valueENS_13EMITTER_MANIPENS_8FmtScope5valueE
libadios2_core.so.2:_ZN4YAML12EmitterState11StartedNodeEv
libadios2_core.so.2:_ZN4YAML12EmitterState12SetIntFormatENS_13EMITTER_MANIPENS_8FmtScope5valueE
libadios2_core.so.2:_ZN4YAML12EmitterState12StartedGroupENS_9GroupType5valueE
libadios2_core.so.2:_ZN4YAML12EmitterState13SetBoolFormatENS_13EMITTER_MANIPENS_8FmtScope5valueE
libadios2_core.so.2:_ZN4YAML12EmitterState13SetLocalValueENS_13EMITTER_MANIPE
libadios2_core.so.2:_ZN4YAML12EmitterState13SetNonContentEv
libadios2_core.so.2:_ZN4YAML12EmitterState13StartedScalarEv
libadios2_core.so.2:_ZN4YAML12EmitterState15SetMapKeyFormatENS_13EMITTER_MANIPENS_8FmtScope5valueE
libadios2_core.so.2:_ZN4YAML12EmitterState15SetStringFormatENS_13EMITTER_MANIPENS_8FmtScope5valueE
libadios2_core.so.2:_ZN4YAML12EmitterState16SetOutputCharsetENS_13EMITTER_MANIPENS_8FmtScope5valueE
libadios2_core.so.2:_ZN4YAML12EmitterState17SetBoolCaseFormatENS_13EMITTER_MANIPENS_8FmtScope5valueE
libadios2_core.so.2:_ZN4YAML12EmitterState17SetFloatPrecisionEmNS_8FmtScope5valueE
libadios2_core.so.2:_ZN4YAML12EmitterState18SetDoublePrecisionEmNS_8FmtScope5valueE
libadios2_core.so.2:_ZN4YAML12EmitterState19SetBoolLengthFormatENS_13EMITTER_MANIPENS_8FmtScope5valueE
libadios2_core.so.2:_ZN4YAML12EmitterState19SetPreCommentIndentEmNS_8FmtScope5valueE
libadios2_core.so.2:_ZN4YAML12EmitterState20SetPostCommentIndentEmNS_8FmtScope5valueE
libadios2_core.so.2:_ZN4YAML12EmitterState21ClearModifiedSettingsEv
libadios2_core.so.2:_ZN4YAML12EmitterState6SetTagEv
libadios2_core.so.2:_ZN4YAML12EmitterState8EndedDocEv
libadios2_core.so.2:_ZN4YAML12EmitterState9ForceFlowEv
libadios2_core.so.2:_ZN4YAML12EmitterState9SetAnchorEv
libadios2_core.so.2:_ZN4YAML12EmitterState9SetIndentEmNS_8FmtScope5valueE
libadios2_core.so.2:_ZN4YAML12EmitterStateC1Ev
libadios2_core.so.2:_ZN4YAML12EmitterStateC2Ev
libadios2_core.so.2:_ZN4YAML12EmitterStateD1Ev
libadios2_core.so.2:_ZN4YAML12EmitterStateD2Ev
libadios2_core.so.2:_ZN4YAML12EncodeBase64B5cxx11EPKhm
libadios2_core.so.2:_ZN4YAML12IsNullStringERKNSt7__cxx1112basic_stringIcSt11char_traitsIcESaIcEEE
libadios2_core.so.2:_ZN4YAML13BadConversionD0Ev
libadios2_core.so.2:_ZN4YAML13BadConversionD1Ev
libadios2_core.so.2:_ZN4YAML13BadConversionD2Ev
libadios2_core.so.2:_ZN4YAML13InvalidScalarD0Ev
libadios2_core.so.2:_ZN4YAML13InvalidScalarD1Ev
libadios2_core.so.2:_ZN4YAML13InvalidScalarD2Ev
libadios2_core.so.2:_ZN4YAML13ScanTagHandleB5cxx11ERNS_6StreamERb
libadios2_core.so.2:_ZN4YAML13ScanTagSuffixB5cxx11ERNS_6StreamE
libadios2_core.so.2:_ZN4YAML14BadDereferenceD0Ev
libadios2_core.so.2:_ZN4YAML14BadDereferenceD1Ev
libadios2_core.so.2:_ZN4YAML14BadDereferenceD2Ev
libadios2_core.so.2:_ZN4YAML14EmitFromEvents10OnMapStartERKNS_4MarkERKNSt7__cxx1112basic_stringIcSt11char_traitsIcESaIcEEEmNS_12EmitterStyle5valueE
libadios2_core.so.2:_ZN4YAML14EmitFromEvents13OnDocumentEndEv
libadios2_core.so.2:_ZN4YAML14EmitFromEvents13OnSequenceEndEv
libadios2_core.so.2:_ZN4YAML14EmitFromEvents15OnDocumentStartERKNS_4MarkE
libadios2_core.so.2:_ZN4YAML14EmitFromEvents15OnSequenceStartERKNS_4MarkERKNSt7__cxx1112basic_stringIcSt11char_traitsIcESaIcEEEmNS_12EmitterStyle5valueE
libadios2_core.so.2:_ZN4YAML14EmitFromEvents6OnNullERKNS_4MarkEm
libadios2_core.so.2:_ZN4YAML14EmitFromEvents7OnAliasERKNS_4MarkEm
libadios2_core.so.2:_ZN4YAML14EmitFromEvents8OnMapEndEv
libadios2_core.so.2:_ZN4YAML14EmitFromEvents8OnScalarERKNS_4MarkERKNSt7__cxx1112basic_stringIcSt11char_traitsIcESaIcEEEmSB_
libadios2_core.so.2:_ZN4YAML14EmitFromEvents9BeginNodeEv
libadios2_core.so.2:_ZN4YAML14EmitFromEvents9EmitPropsERKNSt7__cxx1112basic_stringIcSt11char_traitsIcESaIcEEEm
libadios2_core.so.2:_ZN4YAML14EmitFromEventsC1ERNS_7EmitterE
libadios2_core.so.2:_ZN4YAML14EmitFromEventsC2ERNS_7EmitterE
libadios2_core.so.2:_ZN4YAML15LoadAllFromFileERKNSt7__cxx1112basic_stringIcSt11char_traitsIcESaIcEEE
libadios2_core.so.2:_ZN4YAML15ParserExceptionD0Ev
libadios2_core.so.2:_ZN4YAML15ParserExceptionD1Ev
libadios2_core.so.2:_ZN4YAML15ParserExceptionD2Ev
libadios2_core.so.2:_ZN4YAML15ScanVerbatimTagB5cxx11ERNS_6StreamE
libadios2_core.so.2:_ZN4YAML15SingleDocParser10HandleNodeERNS_12EventHandlerE
libadios2_core.so.2:_ZN4YAML15SingleDocParser11ParseAnchorERmRNSt7__cxx1112basic_stringIcSt11char_traitsIcESaIcEEE
libadios2_core.so.2:_ZN4YAML15SingleDocParser13HandleFlowMapERNS_12EventHandlerE
libadios2_core.so.2:_ZN4YAML15SingleDocParser14HandleBlockMapERNS_12EventHandlerE
libadios2_core.so.2:_ZN4YAML15SingleDocParser14HandleDocumentERNS_12EventHandlerE
libadios2_core.so.2:_ZN4YAML15SingleDocParser14HandleSequenceERNS_12EventHandlerE
libadios2_core.so.2:_ZN4YAML15SingleDocParser14RegisterAnchorERKNSt7__cxx1112basic_stringIcSt11char_traitsIcESaIcEEE
libadios2_core.so.2:_ZN4YAML15SingleDocParser15ParsePropertiesERNSt7__cxx1112basic_stringIcSt11char_traitsIcESaIcEEERmS7_
libadios2_core.so.2:_ZN4YAML15SingleDocParser16HandleCompactMapERNS_12EventHandlerE
libadios2_core.so.2:_ZN4YAML15SingleDocParser18HandleFlowSequenceERNS_12EventHandlerE
libadios2_core.so.2:_ZN4YAML15SingleDocParser19HandleBlockSequenceERNS_12EventHandlerE
libadios2_core.so.2:_ZN4YAML15SingleDocParser25HandleCompactMapWithNoKeyERNS_12EventHandlerE
libadios2_core.so.2:_ZN4YAML15SingleDocParser8ParseTagERNSt7__cxx1112basic_stringIcSt11char_traitsIcESaIcEEE
libadios2_core.so.2:_ZN4YAML15SingleDocParser9HandleMapERNS_12EventHandlerE
libadios2_core.so.2:_ZN4YAML15SingleDocParserC1ERNS_7ScannerERKNS_10DirectivesE
libadios2_core.so.2:_ZN4YAML15SingleDocParserC2ERNS_7ScannerERKNS_10DirectivesE
libadios2_core.so.2:_ZN4YAML15SingleDocParserD1Ev
libadios2_core.so.2:_ZN4YAML15SingleDocParserD2Ev
libadios2_core.so.2:_ZN4YAML15ostream_wrapper10update_posEc
libadios2_core.so.2:_ZN4YAML15ostream_wrapper5writeEPKcm
libadios2_core.so.2:_ZN4YAML15ostream_wrapper5writeERKNSt7__cxx1112basic_stringIcSt11char_traitsIcESaIcEEE
libadios2_core.so.2:_ZN4YAML15ostream_wrapperC1ERSo
libadios2_core.so.2:_ZN4YAML15ostream_wrapperC1Ev
libadios2_core.so.2:_ZN4YAML15ostream_wrapperC2ERSo
libadios2_core.so.2:_ZN4YAML15ostream_wrapperC2Ev
libadios2_core.so.2:_ZN4YAML15ostream_wrapperD1Ev
libadios2_core.so.2:_ZN4YAML15ostream_wrapperD2Ev
libadios2_core.so.2:_ZN4YAML16EmitterExceptionD0Ev
libadios2_core.so.2:_ZN4YAML16EmitterExceptionD1Ev
libadios2_core.so.2:_ZN4YAML16EmitterExceptionD2Ev
libadios2_core.so.2:_ZN4YAML23RepresentationExceptionD0Ev
libadios2_core.so.2:_ZN4YAML23RepresentationExceptionD1Ev
libadios2_core.so.2:_ZN4YAML23RepresentationExceptionD2Ev
libadios2_core.so.2:_ZN4YAML3Exp3StrB5cxx11Ej
libadios2_core.so.2:_ZN4YAML3Exp6EscapeB5cxx11ERNS_6StreamE
libadios2_core.so.2:_ZN4YAML3Exp6EscapeB5cxx11ERNS_6StreamEi
libadios2_core.so.2:_ZN4YAML3Exp8ParseHexERKNSt7__cxx1112basic_stringIcSt11char_traitsIcESaIcEEERKNS_4MarkE
libadios2_core.so.2:_ZN4YAML3Tag9TranslateB5cxx11ERKNS_10DirectivesE
libadios2_core.so.2:_ZN4YAML3TagC1ERKNS_5TokenE
libadios2_core.so.2:_ZN4YAML3TagC2ERKNS_5TokenE
libadios2_core.so.2:_ZN4YAML4DumpB5cxx11ERKNS_4NodeE
libadios2_core.so.2:_ZN4YAML4LoadEPKc
libadios2_core.so.2:_ZN4YAML4LoadERKNSt7__cxx1112basic_stringIcSt11char_traitsIcESaIcEEE
libadios2_core.so.2:_ZN4YAML4LoadERSi
libadios2_core.so.2:_ZN4YAML4NullE
libadios2_core.so.2:_ZN4YAML5CloneERKNS_4NodeE
libadios2_core.so.2:_ZN4YAML5RegExC1ENS_8REGEX_OPE
libadios2_core.so.2:_ZN4YAML5RegExC1ERKNSt7__cxx1112basic_stringIcSt11char_traitsIcESaIcEEENS_8REGEX_OPE
libadios2_core.so.2:_ZN4YAML5RegExC1Ec
libadios2_core.so.2:_ZN4YAML5RegExC1Ecc
libadios2_core.so.2:_ZN4YAML5RegExC1Ev
libadios2_core.so.2:_ZN4YAML5RegExC2ENS_8REGEX_OPE
libadios2_core.so.2:_ZN4YAML5RegExC2ERKNSt7__cxx1112basic_stringIcSt11char_traitsIcESaIcEEENS_8REGEX_OPE
libadios2_core.so.2:_ZN4YAML5RegExC2Ec
libadios2_core.so.2:_ZN4YAML5RegExC2Ecc
libadios2_core.so.2:_ZN4YAML5RegExC2Ev
libadios2_core.so.2:_ZN4YAML5Utils10WriteAliasERNS_15ostream_wrapperERKNSt7__cxx1112basic_stringIcSt11char_traitsIcESaIcEEE
libadios2_core.so.2:_ZN4YAML5Utils11WriteAnchorERNS_15ostream_wrapperERKNSt7__cxx1112basic_stringIcSt11char_traitsIcESaIcEEE
libadios2_core.so.2:_ZN4YAML5Utils11WriteBinaryERNS_15ostream_wrapperERKNS_6BinaryE
libadios2_core.so.2:_ZN4YAML5Utils12WriteCommentERNS_15ostream_wrapperERKNSt7__cxx1112basic_stringIcSt11char_traitsIcESaIcEEEm
libadios2_core.so.2:_ZN4YAML5Utils18WriteLiteralStringERNS_15ostream_wrapperERKNSt7__cxx1112basic_stringIcSt11char_traitsIcESaIcEEEm
libadios2_core.so.2:_ZN4YAML5Utils18WriteTagWithPrefixERNS_15ostream_wrapperERKNSt7__cxx1112basic_stringIcSt11char_traitsIcESaIcEEESA_
libadios2_core.so.2:_ZN4YAML5Utils19ComputeStringFormatERKNSt7__cxx1112basic_stringIcSt11char_traitsIcESaIcEEENS_13EMITTER_MANIPENS_8FlowType5valueEb
libadios2_core.so.2:_ZN4YAML5Utils23WriteDoubleQuotedStringERNS_15ostream_wrapperERKNSt7__cxx1112basic_stringIcSt11char_traitsIcESaIcEEEb
libadios2_core.so.2:_ZN4YAML5Utils23WriteSingleQuotedStringERNS_15ostream_wrapperERKNSt7__cxx1112basic_stringIcSt11char_traitsIcESaIcEEE
libadios2_core.so.2:_ZN4YAML5Utils8WriteTagERNS_15ostream_wrapperERKNSt7__cxx1112basic_stringIcSt11char_traitsIcESaIcEEEb
libadios2_core.so.2:_ZN4YAML5Utils9WriteCharERNS_15ostream_wrapperEc
libadios2_core.so.2:_ZN4YAML6Parser11PrintTokensERSo
libadios2_core.so.2:_ZN4YAML6Parser15HandleDirectiveERKNS_5TokenE
libadios2_core.so.2:_ZN4YAML6Parser15ParseDirectivesEv
libadios2_core.so.2:_ZN4YAML6Parser18HandleNextDocumentERNS_12EventHandlerE
libadios2_core.so.2:_ZN4YAML6Parser18HandleTagDirectiveERKNS_5TokenE
libadios2_core.so.2:_ZN4YAML6Parser19HandleYamlDirectiveERKNS_5TokenE
libadios2_core.so.2:_ZN4YAML6Parser4LoadERSi
libadios2_core.so.2:_ZN4YAML6ParserC1ERSi
libadios2_core.so.2:_ZN4YAML6ParserC1Ev
libadios2_core.so.2:_ZN4YAML6ParserC2ERSi
libadios2_core.so.2:_ZN4YAML6ParserC2Ev
libadios2_core.so.2:_ZN4YAML6ParserD1Ev
libadios2_core.so.2:_ZN4YAML6ParserD2Ev
libadios2_core.so.2:_ZN4YAML6Stream14AdvanceCurrentEv
libadios2_core.so.2:_ZN4YAML6Stream3eatEi
libadios2_core.so.2:_ZN4YAML6Stream3getB5cxx11Ei
libadios2_core.so.2:_ZN4YAML6Stream3getEv
libadios2_core.so.2:_ZN4YAML6StreamC1ERSi
libadios2_core.so.2:_ZN4YAML6StreamC2ERSi
libadios2_core.so.2:_ZN4YAML6StreamD1Ev
libadios2_core.so.2:_ZN4YAML6StreamD2Ev
libadios2_core.so.2:_ZN4YAML6detail13memory_holder5mergeERS1_
libadios2_core.so.2:_ZN4YAML6detail6memory11create_nodeEv
libadios2_core.so.2:_ZN4YAML6detail6memory5mergeERKS1_
libadios2_core.so.2:_ZN4YAML6detail9node_data10set_scalarERKNSt7__cxx1112basic_stringIcSt11char_traitsIcESaIcEEE
libadios2_core.so.2:_ZN4YAML6detail9node_data12empty_scalarB5cxx11Ev
libadios2_core.so.2:_ZN4YAML6detail9node_data12mark_definedEv
libadios2_core.so.2:_ZN4YAML6detail9node_data14convert_to_mapESt10shared_ptrINS0_13memory_holderEE
libadios2_core.so.2:_ZN4YAML6detail9node_data14reset_sequenceEv
libadios2_core.so.2:_ZN4YAML6detail9node_data15insert_map_pairERNS0_4nodeES3_
libadios2_core.so.2:_ZN4YAML6detail9node_data23convert_sequence_to_mapESt10shared_ptrINS0_13memory_holderEE
libadios2_core.so.2:_ZN4YAML6detail9node_data3endEv
libadios2_core.so.2:_ZN4YAML6detail9node_data3getERNS0_4nodeESt10shared_ptrINS0_13memory_holderEE
libadios2_core.so.2:_ZN4YAML6detail9node_data5beginEv
libadios2_core.so.2:_ZN4YAML6detail9node_data6insertERNS0_4nodeES3_St10shared_ptrINS0_13memory_holderEE
libadios2_core.so.2:_ZN4YAML6detail9node_data6removeERNS0_4nodeESt10shared_ptrINS0_13memory_holderEE
libadios2_core.so.2:_ZN4YAML6detail9node_data7set_tagERKNSt7__cxx1112basic_stringIcSt11char_traitsIcESaIcEEE
libadios2_core.so.2:_ZN4YAML6detail9node_data8set_markERKNS_4MarkE
libadios2_core.so.2:_ZN4YAML6detail9node_data8set_nullEv
libadios2_core.so.2:_ZN4YAML6detail9node_data8set_typeENS_8NodeType5valueE
libadios2_core.so.2:_ZN4YAML6detail9node_data9push_backERNS0_4nodeESt10shared_ptrINS0_13memory_holderEE
libadios2_core.so.2:_ZN4YAML6detail9node_data9reset_mapEv
libadios2_core.so.2:_ZN4YAML6detail9node_data9set_styleENS_12EmitterStyle5valueE
libadios2_core.so.2:_ZN4YAML6detail9node_dataC1Ev
libadios2_core.so.2:_ZN4YAML6detail9node_dataC2Ev
libadios2_core.so.2:_ZN4YAML7BadFileD0Ev
libadios2_core.so.2:_ZN4YAML7BadFileD1Ev
libadios2_core.so.2:_ZN4YAML7BadFileD2Ev
libadios2_core.so.2:_ZN4YAML7Emitter10EmitEndDocEv
libadios2_core.so.2:_ZN4YAML7Emitter10EmitEndMapEv
libadios2_core.so.2:_ZN4YAML7Emitter10EmitEndSeqEv
libadios2_core.so.2:_ZN4YAML7Emitter10SetIntBaseENS_13EMITTER_MANIPE
libadios2_core.so.2:_ZN4YAML7Emitter11EmitKindTagEv
libadios2_core.so.2:_ZN4YAML7Emitter11EmitNewlineEv
libadios2_core.so.2:_ZN4YAML7Emitter11PrepareNodeENS_15EmitterNodeType5valueE
libadios2_core.so.2:_ZN4YAML7Emitter12EmitBeginDocEv
libadios2_core.so.2:_ZN4YAML7Emitter12EmitBeginMapEv
libadios2_core.so.2:_ZN4YAML7Emitter12EmitBeginSeqEv
libadios2_core.so.2:_ZN4YAML7Emitter12SetMapFormatENS_13EMITTER_MANIPE
libadios2_core.so.2:_ZN4YAML7Emitter12SetSeqFormatENS_13EMITTER_MANIPE
libadios2_core.so.2:_ZN4YAML7Emitter13SetBoolFormatENS_13EMITTER_MANIPE
libadios2_core.so.2:_ZN4YAML7Emitter13SetLocalValueENS_13EMITTER_MANIPE
libadios2_core.so.2:_ZN4YAML7Emitter13StartedScalarEv
libadios2_core.so.2:_ZN4YAML7Emitter14PrepareTopNodeENS_15EmitterNodeType5valueE
libadios2_core.so.2:_ZN4YAML7Emitter14SetLocalIndentERKNS_7_IndentE
libadios2_core.so.2:_ZN4YAML7Emitter15SetStringFormatENS_13EMITTER_MANIPE
libadios2_core.so.2:_ZN4YAML7Emitter15SpaceOrIndentToEbm
libadios2_core.so.2:_ZN4YAML7Emitter16SetOutputCharsetENS_13EMITTER_MANIPE
libadios2_core.so.2:_ZN4YAML7Emitter17SetFloatPrecisionEm
libadios2_core.so.2:_ZN4YAML7Emitter17SetLocalPrecisionERKNS_10_PrecisionE
libadios2_core.so.2:_ZN4YAML7Emitter18FlowMapPrepareNodeENS_15EmitterNodeType5valueE
libadios2_core.so.2:_ZN4YAML7Emitter18FlowSeqPrepareNodeENS_15EmitterNodeType5valueE
libadios2_core.so.2:_ZN4YAML7Emitter18SetDoublePrecisionEm
libadios2_core.so.2:_ZN4YAML7Emitter19BlockMapPrepareNodeENS_15EmitterNodeType5valueE
libadios2_core.so.2:_ZN4YAML7Emitter19BlockSeqPrepareNodeENS_15EmitterNodeType5valueE
libadios2_core.so.2:_ZN4YAML7Emitter19SetPreCommentIndentEm
libadios2_core.so.2:_ZN4YAML7Emitter20SetPostCommentIndentEm
libadios2_core.so.2:_ZN4YAML7Emitter21FlowMapPrepareLongKeyENS_15EmitterNodeType5valueE
libadios2_core.so.2:_ZN4YAML7Emitter22BlockMapPrepareLongKeyENS_15EmitterNodeType5valueE
libadios2_core.so.2:_ZN4YAML7Emitter23FlowMapPrepareSimpleKeyENS_15EmitterNodeType5valueE
libadios2_core.so.2:_ZN4YAML7Emitter24BlockMapPrepareSimpleKeyENS_15EmitterNodeType5valueE
libadios2_core.so.2:_ZN4YAML7Emitter26FlowMapPrepareLongKeyValueENS_15EmitterNodeType5valueE
libadios2_core.so.2:_ZN4YAML7Emitter27BlockMapPrepareLongKeyValueENS_15EmitterNodeType5valueE
libadios2_core.so.2:_ZN4YAML7Emitter28FlowMapPrepareSimpleKeyValueENS_15EmitterNodeType5valueE
libadios2_core.so.2:_ZN4YAML7Emitter29BlockMapPrepareSimpleKeyValueENS_15EmitterNodeType5valueE
libadios2_core.so.2:_ZN4YAML7Emitter5WriteERKNS_4_TagE
libadios2_core.so.2:_ZN4YAML7Emitter5WriteERKNS_5_NullE
libadios2_core.so.2:_ZN4YAML7Emitter5WriteERKNS_6BinaryE
libadios2_core.so.2:_ZN4YAML7Emitter5WriteERKNS_6_AliasE
libadios2_core.so.2:_ZN4YAML7Emitter5WriteERKNS_7_AnchorE
libadios2_core.so.2:_ZN4YAML7Emitter5WriteERKNS_8_CommentE
libadios2_core.so.2:_ZN4YAML7Emitter5WriteERKNSt7__cxx1112basic_stringIcSt11char_traitsIcESaIcEEE
libadios2_core.so.2:_ZN4YAML7Emitter5WriteEb
libadios2_core.so.2:_ZN4YAML7Emitter5WriteEc
libadios2_core.so.2:_ZN4YAML7Emitter9SetIndentEm
libadios2_core.so.2:_ZN4YAML7EmitterC1ERSo
libadios2_core.so.2:_ZN4YAML7EmitterC1Ev
libadios2_core.so.2:_ZN4YAML7EmitterC2ERSo
libadios2_core.so.2:_ZN4YAML7EmitterC2Ev
libadios2_core.so.2:_ZN4YAML7EmitterD1Ev
libadios2_core.so.2:_ZN4YAML7EmitterD2Ev
libadios2_core.so.2:_ZN4YAML7LoadAllEPKc
libadios2_core.so.2:_ZN4YAML7LoadAllERKNSt7__cxx1112basic_stringIcSt11char_traitsIcESaIcEEE
libadios2_core.so.2:_ZN4YAML7LoadAllERSi
libadios2_core.so.2:_ZN4YAML7Scanner10ScanDocEndEv
libadios2_core.so.2:_ZN4YAML7Scanner11ScanFlowEndEv
libadios2_core.so.2:_ZN4YAML7Scanner11StartStreamEv
libadios2_core.so.2:_ZN4YAML7Scanner12PushIndentToEiNS0_12IndentMarker11INDENT_TYPEE
libadios2_core.so.2:_ZN4YAML7Scanner12ScanDocStartEv
libadios2_core.so.2:_ZN4YAML7Scanner13PopAllIndentsEv
libadios2_core.so.2:_ZN4YAML7Scanner13ScanDirectiveEv
libadios2_core.so.2:_ZN4YAML7Scanner13ScanFlowEntryEv
libadios2_core.so.2:_ZN4YAML7Scanner13ScanFlowStartEv
libadios2_core.so.2:_ZN4YAML7Scanner13ScanNextTokenEv
libadios2_core.so.2:_ZN4YAML7Scanner14ScanBlockEntryEv
libadios2_core.so.2:_ZN4YAML7Scanner15PopIndentToHereEv
libadios2_core.so.2:_ZN4YAML7Scanner15ScanBlockScalarEv
libadios2_core.so.2:_ZN4YAML7Scanner15ScanPlainScalarEv
libadios2_core.so.2:_ZN4YAML7Scanner15ScanToNextTokenEv
libadios2_core.so.2:_ZN4YAML7Scanner15VerifySimpleKeyEv
libadios2_core.so.2:_ZN4YAML7Scanner16PopAllSimpleKeysEv
libadios2_core.so.2:_ZN4YAML7Scanner16ScanQuotedScalarEv
libadios2_core.so.2:_ZN4YAML7Scanner17ScanAnchorOrAliasEv
libadios2_core.so.2:_ZN4YAML7Scanner19EnsureTokensInQueueEv
libadios2_core.so.2:_ZN4YAML7Scanner19InvalidateSimpleKeyEv
libadios2_core.so.2:_ZN4YAML7Scanner21IsWhitespaceToBeEatenEc
libadios2_core.so.2:_ZN4YAML7Scanner24InsertPotentialSimpleKeyEv
libadios2_core.so.2:_ZN4YAML7Scanner3popEv
libadios2_core.so.2:_ZN4YAML7Scanner4peekEv
libadios2_core.so.2:_ZN4YAML7Scanner5emptyEv
libadios2_core.so.2:_ZN4YAML7Scanner7ScanKeyEv
libadios2_core.so.2:_ZN4YAML7Scanner7ScanTagEv
libadios2_core.so.2:_ZN4YAML7Scanner9EndStreamEv
libadios2_core.so.2:_ZN4YAML7Scanner9PopIndentEv
libadios2_core.so.2:_ZN4YAML7Scanner9PushTokenENS_5Token4TYPEE
libadios2_core.so.2:_ZN4YAML7Scanner9ScanValueEv
libadios2_core.so.2:_ZN4YAML7Scanner9SimpleKey10InvalidateEv
libadios2_core.so.2:_ZN4YAML7Scanner9SimpleKey8ValidateEv
libadios2_core.so.2:_ZN4YAML7Scanner9SimpleKeyC1ERKNS_4MarkEm
libadios2_core.so.2:_ZN4YAML7Scanner9SimpleKeyC2ERKNS_4MarkEm
libadios2_core.so.2:_ZN4YAML7ScannerC1ERSi
libadios2_core.so.2:_ZN4YAML7ScannerC2ERSi
libadios2_core.so.2:_ZN4YAML7ScannerD1Ev
libadios2_core.so.2:_ZN4YAML7ScannerD2Ev
libadios2_core.so.2:_ZN4YAML7convertIbE6decodeERKNS_4NodeERb
libadios2_core.so.2:_ZN4YAML8LoadFileERKNSt7__cxx1112basic_stringIcSt11char_traitsIcESaIcEEE
libadios2_core.so.2:_ZN4YAML9BadInsertD0Ev
libadios2_core.so.2:_ZN4YAML9BadInsertD1Ev
libadios2_core.so.2:_ZN4YAML9BadInsertD2Ev
libadios2_core.so.2:_ZN4YAML9ExceptionD0Ev
libadios2_core.so.2:_ZN4YAML9ExceptionD1Ev
libadios2_core.so.2:_ZN4YAML9ExceptionD2Ev
libadios2_core.so.2:_ZN4YAMLanERKNS_5RegExES2_
libadios2_core.so.2:_ZN4YAMLlsERNS_7EmitterERKNS_4NodeE
libadios2_core.so.2:_ZN4YAMLlsERSoRKNS_4NodeE
libadios2_core.so.2:_ZN4YAMLntERKNS_5RegExE
libadios2_core.so.2:_ZN4YAMLorERKNS_5RegExES2_
libadios2_core.so.2:_ZN4YAMLplERKNS_5RegExES2_
libadios2_core.so.2:_ZN4pugi10xpath_nodeC1ERKNS_13xml_attributeERKNS_8xml_nodeE
libadios2_core.so.2:_ZN4pugi10xpath_nodeC1ERKNS_8xml_nodeE
libadios2_core.so.2:_ZN4pugi10xpath_nodeC1Ev
libadios2_core.so.2:_ZN4pugi10xpath_nodeC2ERKNS_13xml_attributeERKNS_8xml_nodeE
libadios2_core.so.2:_ZN4pugi10xpath_nodeC2ERKNS_8xml_nodeE
libadios2_core.so.2:_ZN4pugi10xpath_nodeC2Ev
libadios2_core.so.2:_ZN4pugi11xpath_queryC1EOS0_
libadios2_core.so.2:_ZN4pugi11xpath_queryC1EPKcPNS_18xpath_variable_setE
libadios2_core.so.2:_ZN4pugi11xpath_queryC1Ev
libadios2_core.so.2:_ZN4pugi11xpath_queryC2EOS0_
libadios2_core.so.2:_ZN4pugi11xpath_queryC2EPKcPNS_18xpath_variable_setE
libadios2_core.so.2:_ZN4pugi11xpath_queryC2Ev
libadios2_core.so.2:_ZN4pugi11xpath_queryD1Ev
libadios2_core.so.2:_ZN4pugi11xpath_queryD2Ev
libadios2_core.so.2:_ZN4pugi11xpath_queryaSEOS0_
libadios2_core.so.2:_ZN4pugi12xml_document11load_bufferEPKvmjNS_12xml_encodingE
libadios2_core.so.2:_ZN4pugi12xml_document11load_stringEPKcj
libadios2_core.so.2:_ZN4pugi12xml_document19load_buffer_inplaceEPvmjNS_12xml_encodingE
libadios2_core.so.2:_ZN4pugi12xml_document23load_buffer_inplace_ownEPvmjNS_12xml_encodingE
libadios2_core.so.2:_ZN4pugi12xml_document4loadEPKcj
libadios2_core.so.2:_ZN4pugi12xml_document4loadERSijNS_12xml_encodingE
libadios2_core.so.2:_ZN4pugi12xml_document4loadERSt13basic_istreamIwSt11char_traitsIwEEj
libadios2_core.so.2:_ZN4pugi12xml_document5_moveERS0_
libadios2_core.so.2:_ZN4pugi12xml_document5resetERKS0_
libadios2_core.so.2:_ZN4pugi12xml_document5resetEv
libadios2_core.so.2:_ZN4pugi12xml_document7_createEv
libadios2_core.so.2:_ZN4pugi12xml_document8_destroyEv
libadios2_core.so.2:_ZN4pugi12xml_document9load_fileEPKcjNS_12xml_encodingE
libadios2_core.so.2:_ZN4pugi12xml_document9load_fileEPKwjNS_12xml_encodingE
libadios2_core.so.2:_ZN4pugi12xml_documentC1EOS0_
libadios2_core.so.2:_ZN4pugi12xml_documentC1Ev
libadios2_core.so.2:_ZN4pugi12xml_documentC2EOS0_
libadios2_core.so.2:_ZN4pugi12xml_documentC2Ev
libadios2_core.so.2:_ZN4pugi12xml_documentD1Ev
libadios2_core.so.2:_ZN4pugi12xml_documentD2Ev
libadios2_core.so.2:_ZN4pugi12xml_documentaSEOS0_
libadios2_core.so.2:_ZN4pugi13xml_attribute8set_nameEPKc
libadios2_core.so.2:_ZN4pugi13xml_attribute9set_valueEPKc
libadios2_core.so.2:_ZN4pugi13xml_attribute9set_valueEb
libadios2_core.so.2:_ZN4pugi13xml_attribute9set_valueEd
libadios2_core.so.2:_ZN4pugi13xml_attribute9set_valueEdi
libadios2_core.so.2:_ZN4pugi13xml_attribute9set_valueEf
libadios2_core.so.2:_ZN4pugi13xml_attribute9set_valueEfi
libadios2_core.so.2:_ZN4pugi13xml_attribute9set_valueEi
libadios2_core.so.2:_ZN4pugi13xml_attribute9set_valueEj
libadios2_core.so.2:_ZN4pugi13xml_attribute9set_valueEl
libadios2_core.so.2:_ZN4pugi13xml_attribute9set_valueEm
libadios2_core.so.2:_ZN4pugi13xml_attribute9set_valueEx
libadios2_core.so.2:_ZN4pugi13xml_attribute9set_valueEy
libadios2_core.so.2:_ZN4pugi13xml_attributeC1EPNS_20xml_attribute_structE
libadios2_core.so.2:_ZN4pugi13xml_attributeC1Ev
libadios2_core.so.2:_ZN4pugi13xml_attributeC2EPNS_20xml_attribute_structE
libadios2_core.so.2:_ZN4pugi13xml_attributeC2Ev
libadios2_core.so.2:_ZN4pugi13xml_attributeaSEPKc
libadios2_core.so.2:_ZN4pugi13xml_attributeaSEb
libadios2_core.so.2:_ZN4pugi13xml_attributeaSEd
libadios2_core.so.2:_ZN4pugi13xml_attributeaSEf
libadios2_core.so.2:_ZN4pugi13xml_attributeaSEi
libadios2_core.so.2:_ZN4pugi13xml_attributeaSEj
libadios2_core.so.2:_ZN4pugi13xml_attributeaSEl
libadios2_core.so.2:_ZN4pugi13xml_attributeaSEm
libadios2_core.so.2:_ZN4pugi13xml_attributeaSEx
libadios2_core.so.2:_ZN4pugi13xml_attributeaSEy
libadios2_core.so.2:_ZN4pugi14xpath_node_set4sortEb
libadios2_core.so.2:_ZN4pugi14xpath_node_set5_moveERS0_
libadios2_core.so.2:_ZN4pugi14xpath_node_set7_assignEPKNS_10xpath_nodeES3_NS0_6type_tE
libadios2_core.so.2:_ZN4pugi14xpath_node_setC1EOS0_
libadios2_core.so.2:_ZN4pugi14xpath_node_setC1EPKNS_10xpath_nodeES3_NS0_6type_tE
libadios2_core.so.2:_ZN4pugi14xpath_node_setC1ERKS0_
libadios2_core.so.2:_ZN4pugi14xpath_node_setC1Ev
libadios2_core.so.2:_ZN4pugi14xpath_node_setC2EOS0_
libadios2_core.so.2:_ZN4pugi14xpath_node_setC2EPKNS_10xpath_nodeES3_NS0_6type_tE
libadios2_core.so.2:_ZN4pugi14xpath_node_setC2ERKS0_
libadios2_core.so.2:_ZN4pugi14xpath_node_setC2Ev
libadios2_core.so.2:_ZN4pugi14xpath_node_setD1Ev
libadios2_core.so.2:_ZN4pugi14xpath_node_setD2Ev
libadios2_core.so.2:_ZN4pugi14xpath_node_setaSEOS0_
libadios2_core.so.2:_ZN4pugi14xpath_node_setaSERKS0_
libadios2_core.so.2:_ZN4pugi14xpath_variable3setEPKc
libadios2_core.so.2:_ZN4pugi14xpath_variable3setERKNS_14xpath_node_setE
libadios2_core.so.2:_ZN4pugi14xpath_variable3setEb
libadios2_core.so.2:_ZN4pugi14xpath_variable3setEd
libadios2_core.so.2:_ZN4pugi14xpath_variableC1ENS_16xpath_value_typeE
libadios2_core.so.2:_ZN4pugi14xpath_variableC2ENS_16xpath_value_typeE
libadios2_core.so.2:_ZN4pugi15xml_tree_walker3endERNS_8xml_nodeE
libadios2_core.so.2:_ZN4pugi15xml_tree_walker5beginERNS_8xml_nodeE
libadios2_core.so.2:_ZN4pugi15xml_tree_walkerC1Ev
libadios2_core.so.2:_ZN4pugi15xml_tree_walkerC2Ev
libadios2_core.so.2:_ZN4pugi15xml_tree_walkerD0Ev
libadios2_core.so.2:_ZN4pugi15xml_tree_walkerD1Ev
libadios2_core.so.2:_ZN4pugi15xml_tree_walkerD2Ev
libadios2_core.so.2:_ZN4pugi15xml_writer_file5writeEPKvm
libadios2_core.so.2:_ZN4pugi15xml_writer_fileC1EPv
libadios2_core.so.2:_ZN4pugi15xml_writer_fileC2EPv
libadios2_core.so.2:_ZN4pugi15xpath_exceptionC1ERKNS_18xpath_parse_resultE
libadios2_core.so.2:_ZN4pugi15xpath_exceptionC2ERKNS_18xpath_parse_resultE
libadios2_core.so.2:_ZN4pugi16xml_parse_resultC1Ev
libadios2_core.so.2:_ZN4pugi16xml_parse_resultC2Ev
libadios2_core.so.2:_ZN4pugi17xml_node_iteratorC1EPNS_15xml_node_structES2_
libadios2_core.so.2:_ZN4pugi17xml_node_iteratorC1ERKNS_8xml_nodeE
libadios2_core.so.2:_ZN4pugi17xml_node_iteratorC1Ev
libadios2_core.so.2:_ZN4pugi17xml_node_iteratorC2EPNS_15xml_node_structES2_
libadios2_core.so.2:_ZN4pugi17xml_node_iteratorC2ERKNS_8xml_nodeE
libadios2_core.so.2:_ZN4pugi17xml_node_iteratorC2Ev
libadios2_core.so.2:_ZN4pugi17xml_node_iteratormmEi
libadios2_core.so.2:_ZN4pugi17xml_node_iteratormmEv
libadios2_core.so.2:_ZN4pugi17xml_node_iteratorppEi
libadios2_core.so.2:_ZN4pugi17xml_node_iteratorppEv
libadios2_core.so.2:_ZN4pugi17xml_writer_stream5writeEPKvm
libadios2_core.so.2:_ZN4pugi17xml_writer_streamC1ERSo
libadios2_core.so.2:_ZN4pugi17xml_writer_streamC1ERSt13basic_ostreamIwSt11char_traitsIwEE
libadios2_core.so.2:_ZN4pugi17xml_writer_streamC2ERSo
libadios2_core.so.2:_ZN4pugi17xml_writer_streamC2ERSt13basic_ostreamIwSt11char_traitsIwEE
libadios2_core.so.2:_ZN4pugi18xpath_parse_resultC1Ev
libadios2_core.so.2:_ZN4pugi18xpath_parse_resultC2Ev
libadios2_core.so.2:_ZN4pugi18xpath_variable_set3addEPKcNS_16xpath_value_typeE
libadios2_core.so.2:_ZN4pugi18xpath_variable_set3getEPKc
libadios2_core.so.2:_ZN4pugi18xpath_variable_set3setEPKcRKNS_14xpath_node_setE
libadios2_core.so.2:_ZN4pugi18xpath_variable_set3setEPKcS2_
libadios2_core.so.2:_ZN4pugi18xpath_variable_set3setEPKcb
libadios2_core.so.2:_ZN4pugi18xpath_variable_set3setEPKcd
libadios2_core.so.2:_ZN4pugi18xpath_variable_set5_swapERS0_
libadios2_core.so.2:_ZN4pugi18xpath_variable_set6_cloneEPNS_14xpath_variableEPS2_
libadios2_core.so.2:_ZN4pugi18xpath_variable_set7_assignERKS0_
libadios2_core.so.2:_ZN4pugi18xpath_variable_set8_destroyEPNS_14xpath_variableE
libadios2_core.so.2:_ZN4pugi18xpath_variable_setC1EOS0_
libadios2_core.so.2:_ZN4pugi18xpath_variable_setC1ERKS0_
libadios2_core.so.2:_ZN4pugi18xpath_variable_setC1Ev
libadios2_core.so.2:_ZN4pugi18xpath_variable_setC2EOS0_
libadios2_core.so.2:_ZN4pugi18xpath_variable_setC2ERKS0_
libadios2_core.so.2:_ZN4pugi18xpath_variable_setC2Ev
libadios2_core.so.2:_ZN4pugi18xpath_variable_setD1Ev
libadios2_core.so.2:_ZN4pugi18xpath_variable_setD2Ev
libadios2_core.so.2:_ZN4pugi18xpath_variable_setaSEOS0_
libadios2_core.so.2:_ZN4pugi18xpath_variable_setaSERKS0_
libadios2_core.so.2:_ZN4pugi22xml_attribute_iteratorC1EPNS_20xml_attribute_structEPNS_15xml_node_structE
libadios2_core.so.2:_ZN4pugi22xml_attribute_iteratorC1ERKNS_13xml_attributeERKNS_8xml_nodeE
libadios2_core.so.2:_ZN4pugi22xml_attribute_iteratorC1Ev
libadios2_core.so.2:_ZN4pugi22xml_attribute_iteratorC2EPNS_20xml_attribute_structEPNS_15xml_node_structE
libadios2_core.so.2:_ZN4pugi22xml_attribute_iteratorC2ERKNS_13xml_attributeERKNS_8xml_nodeE
libadios2_core.so.2:_ZN4pugi22xml_attribute_iteratorC2Ev
libadios2_core.so.2:_ZN4pugi22xml_attribute_iteratormmEi
libadios2_core.so.2:_ZN4pugi22xml_attribute_iteratormmEv
libadios2_core.so.2:_ZN4pugi22xml_attribute_iteratorppEi
libadios2_core.so.2:_ZN4pugi22xml_attribute_iteratorppEv
libadios2_core.so.2:_ZN4pugi23xml_named_node_iteratorC1EPNS_15xml_node_structES2_PKc
libadios2_core.so.2:_ZN4pugi23xml_named_node_iteratorC1ERKNS_8xml_nodeEPKc
libadios2_core.so.2:_ZN4pugi23xml_named_node_iteratorC1Ev
libadios2_core.so.2:_ZN4pugi23xml_named_node_iteratorC2EPNS_15xml_node_structES2_PKc
libadios2_core.so.2:_ZN4pugi23xml_named_node_iteratorC2ERKNS_8xml_nodeEPKc
libadios2_core.so.2:_ZN4pugi23xml_named_node_iteratorC2Ev
libadios2_core.so.2:_ZN4pugi23xml_named_node_iteratormmEi
libadios2_core.so.2:_ZN4pugi23xml_named_node_iteratormmEv
libadios2_core.so.2:_ZN4pugi23xml_named_node_iteratorppEi
libadios2_core.so.2:_ZN4pugi23xml_named_node_iteratorppEv
libadios2_core.so.2:_ZN4pugi30get_memory_allocation_functionEv
libadios2_core.so.2:_ZN4pugi31set_memory_management_functionsEPFPvmEPFvS0_E
libadios2_core.so.2:_ZN4pugi32get_memory_deallocation_functionEv
libadios2_core.so.2:_ZN4pugi7as_utf8B5cxx11EPKw
libadios2_core.so.2:_ZN4pugi7as_utf8ERKNSt7__cxx1112basic_stringIwSt11char_traitsIwESaIwEEE
libadios2_core.so.2:_ZN4pugi7as_wideB5cxx11EPKc
libadios2_core.so.2:_ZN4pugi7as_wideERKNSt7__cxx1112basic_stringIcSt11char_traitsIcESaIcEEE
libadios2_core.so.2:_ZN4pugi8xml_node11append_copyERKNS_13xml_attributeE
libadios2_core.so.2:_ZN4pugi8xml_node11append_copyERKS0_
libadios2_core.so.2:_ZN4pugi8xml_node11append_moveERKS0_
libadios2_core.so.2:_ZN4pugi8xml_node12append_childENS_13xml_node_typeE
libadios2_core.so.2:_ZN4pugi8xml_node12append_childEPKc
libadios2_core.so.2:_ZN4pugi8xml_node12prepend_copyERKNS_13xml_attributeE
libadios2_core.so.2:_ZN4pugi8xml_node12prepend_copyERKS0_
libadios2_core.so.2:_ZN4pugi8xml_node12prepend_moveERKS0_
libadios2_core.so.2:_ZN4pugi8xml_node12remove_childEPKc
libadios2_core.so.2:_ZN4pugi8xml_node12remove_childERKS0_
libadios2_core.so.2:_ZN4pugi8xml_node13append_bufferEPKvmjNS_12xml_encodingE
libadios2_core.so.2:_ZN4pugi8xml_node13prepend_childENS_13xml_node_typeE
libadios2_core.so.2:_ZN4pugi8xml_node13prepend_childEPKc
libadios2_core.so.2:_ZN4pugi8xml_node15remove_childrenEv
libadios2_core.so.2:_ZN4pugi8xml_node16append_attributeEPKc
libadios2_core.so.2:_ZN4pugi8xml_node16remove_attributeEPKc
libadios2_core.so.2:_ZN4pugi8xml_node16remove_attributeERKNS_13xml_attributeE
libadios2_core.so.2:_ZN4pugi8xml_node17insert_copy_afterERKNS_13xml_attributeES3_
libadios2_core.so.2:_ZN4pugi8xml_node17insert_copy_afterERKS0_S2_
libadios2_core.so.2:_ZN4pugi8xml_node17insert_move_afterERKS0_S2_
libadios2_core.so.2:_ZN4pugi8xml_node17prepend_attributeEPKc
libadios2_core.so.2:_ZN4pugi8xml_node17remove_attributesEv
libadios2_core.so.2:_ZN4pugi8xml_node18insert_child_afterENS_13xml_node_typeERKS0_
libadios2_core.so.2:_ZN4pugi8xml_node18insert_child_afterEPKcRKS0_
libadios2_core.so.2:_ZN4pugi8xml_node18insert_copy_beforeERKNS_13xml_attributeES3_
libadios2_core.so.2:_ZN4pugi8xml_node18insert_copy_beforeERKS0_S2_
libadios2_core.so.2:_ZN4pugi8xml_node18insert_move_beforeERKS0_S2_
libadios2_core.so.2:_ZN4pugi8xml_node19insert_child_beforeENS_13xml_node_typeERKS0_
libadios2_core.so.2:_ZN4pugi8xml_node19insert_child_beforeEPKcRKS0_
libadios2_core.so.2:_ZN4pugi8xml_node22insert_attribute_afterEPKcRKNS_13xml_attributeE
libadios2_core.so.2:_ZN4pugi8xml_node23insert_attribute_beforeEPKcRKNS_13xml_attributeE
libadios2_core.so.2:_ZN4pugi8xml_node8set_nameEPKc
libadios2_core.so.2:_ZN4pugi8xml_node8traverseERNS_15xml_tree_walkerE
libadios2_core.so.2:_ZN4pugi8xml_node9set_valueEPKc
libadios2_core.so.2:_ZN4pugi8xml_nodeC1EPNS_15xml_node_structE
libadios2_core.so.2:_ZN4pugi8xml_nodeC1Ev
libadios2_core.so.2:_ZN4pugi8xml_nodeC2EPNS_15xml_node_structE
libadios2_core.so.2:_ZN4pugi8xml_nodeC2Ev
libadios2_core.so.2:_ZN4pugi8xml_text3setEPKc
libadios2_core.so.2:_ZN4pugi8xml_text3setEb
libadios2_core.so.2:_ZN4pugi8xml_text3setEd
libadios2_core.so.2:_ZN4pugi8xml_text3setEdi
libadios2_core.so.2:_ZN4pugi8xml_text3setEf
libadios2_core.so.2:_ZN4pugi8xml_text3setEfi
libadios2_core.so.2:_ZN4pugi8xml_text3setEi
libadios2_core.so.2:_ZN4pugi8xml_text3setEj
libadios2_core.so.2:_ZN4pugi8xml_text3setEl
libadios2_core.so.2:_ZN4pugi8xml_text3setEm
libadios2_core.so.2:_ZN4pugi8xml_text3setEx
libadios2_core.so.2:_ZN4pugi8xml_text3setEy
libadios2_core.so.2:_ZN4pugi8xml_text9_data_newEv
libadios2_core.so.2:_ZN4pugi8xml_textC1EPNS_15xml_node_structE
libadios2_core.so.2:_ZN4pugi8xml_textC1Ev
libadios2_core.so.2:_ZN4pugi8xml_textC2EPNS_15xml_node_structE
libadios2_core.so.2:_ZN4pugi8xml_textC2Ev
libadios2_core.so.2:_ZN4pugi8xml_textaSEPKc
libadios2_core.so.2:_ZN4pugi8xml_textaSEb
libadios2_core.so.2:_ZN4pugi8xml_textaSEd
libadios2_core.so.2:_ZN4pugi8xml_textaSEf
libadios2_core.so.2:_ZN4pugi8xml_textaSEi
libadios2_core.so.2:_ZN4pugi8xml_textaSEj
libadios2_core.so.2:_ZN4pugi8xml_textaSEl
libadios2_core.so.2:_ZN4pugi8xml_textaSEm
libadios2_core.so.2:_ZN4pugi8xml_textaSEx
libadios2_core.so.2:_ZN4pugi8xml_textaSEy
libadios2_core.so.2:_ZN6adios210aggregator13MPIAggregator11SwapBuffersEi
libadios2_core.so.2:_ZN6adios210aggregator13MPIAggregator12ResetBuffersEv
libadios2_core.so.2:_ZN6adios210aggregator13MPIAggregator13HandshakeRankEi
libadios2_core.so.2:_ZN6adios210aggregator13MPIAggregator17GetConsumerBufferERNS_6format6BufferE
libadios2_core.so.2:_ZN6adios210aggregator13MPIAggregator18InitCommOnePerNodeERKNS_6helper4CommE
libadios2_core.so.2:_ZN6adios210aggregator13MPIAggregator4InitEmRKNS_6helper4CommE
libadios2_core.so.2:_ZN6adios210aggregator13MPIAggregator5CloseEv
libadios2_core.so.2:_ZN6adios210aggregator13MPIAggregator8InitCommEmRKNS_6helper4CommE
libadios2_core.so.2:_ZN6adios210aggregator13MPIAggregatorC1Ev
libadios2_core.so.2:_ZN6adios210aggregator13MPIAggregatorC2Ev
libadios2_core.so.2:_ZN6adios210aggregator13MPIAggregatorD0Ev
libadios2_core.so.2:_ZN6adios210aggregator13MPIAggregatorD1Ev
libadios2_core.so.2:_ZN6adios210aggregator13MPIAggregatorD2Ev
libadios2_core.so.2:_ZN6adios210aggregator8MPIChain11GetReceiverERNS_6format6BufferE
libadios2_core.so.2:_ZN6adios210aggregator8MPIChain11SwapBuffersEi
libadios2_core.so.2:_ZN6adios210aggregator8MPIChain12ResetBuffersEv
libadios2_core.so.2:_ZN6adios210aggregator8MPIChain14HandshakeLinksEv
libadios2_core.so.2:_ZN6adios210aggregator8MPIChain17GetConsumerBufferERNS_6format6BufferE
libadios2_core.so.2:_ZN6adios210aggregator8MPIChain18ResizeUpdateBufferEmRNS_6format6BufferENSt7__cxx1112basic_stringIcSt11char_traitsIcESaIcEEE
libadios2_core.so.2:_ZN6adios210aggregator8MPIChain20WaitAbsolutePositionERNS0_13MPIAggregator32ExchangeAbsolutePositionRequestsEi
libadios2_core.so.2:_ZN6adios210aggregator8MPIChain25IExchangeAbsolutePositionERNS_6format6BufferEi
libadios2_core.so.2:_ZN6adios210aggregator8MPIChain4InitEmRKNS_6helper4CommE
libadios2_core.so.2:_ZN6adios210aggregator8MPIChain4WaitERNS0_13MPIAggregator16ExchangeRequestsEi
libadios2_core.so.2:_ZN6adios210aggregator8MPIChain9GetSenderERNS_6format6BufferE
libadios2_core.so.2:_ZN6adios210aggregator8MPIChain9IExchangeERNS_6format6BufferEi
libadios2_core.so.2:_ZN6adios210aggregator8MPIChainC1Ev
libadios2_core.so.2:_ZN6adios210aggregator8MPIChainC2Ev
libadios2_core.so.2:_ZN6adios211burstbuffer11FileDrainer10SetVerboseEii
libadios2_core.so.2:_ZN6adios211burstbuffer11FileDrainer11GetFileSizeERSt10shared_ptrISt14basic_ifstreamIcSt11char_traitsIcEEE
libadios2_core.so.2:_ZN6adios211burstbuffer11FileDrainer12AddOperationENS0_14DrainOperationERKNSt7__cxx1112basic_stringIcSt11char_traitsIcESaIcEEESA_mmmPKv
libadios2_core.so.2:_ZN6adios211burstbuffer11FileDrainer12AddOperationERNS0_18FileDrainOperationE
libadios2_core.so.2:_ZN6adios211burstbuffer11FileDrainer14GetFileForReadERKNSt7__cxx1112basic_stringIcSt11char_traitsIcESaIcEEE
libadios2_core.so.2:_ZN6adios211burstbuffer11FileDrainer15GetFileForWriteERKNSt7__cxx1112basic_stringIcSt11char_traitsIcESaIcEEEb
libadios2_core.so.2:_ZN6adios211burstbuffer11FileDrainer16AddOperationCopyERKNSt7__cxx1112basic_stringIcSt11char_traitsIcESaIcEEES9_m
libadios2_core.so.2:_ZN6adios211burstbuffer11FileDrainer16AddOperationOpenERKNSt7__cxx1112basic_stringIcSt11char_traitsIcESaIcEEENS_4ModeE
libadios2_core.so.2:_ZN6adios211burstbuffer11FileDrainer17AddOperationWriteERKNSt7__cxx1112basic_stringIcSt11char_traitsIcESaIcEEEmPKv
libadios2_core.so.2:_ZN6adios211burstbuffer11FileDrainer18AddOperationCopyAtERKNSt7__cxx1112basic_stringIcSt11char_traitsIcESaIcEEES9_mmm
libadios2_core.so.2:_ZN6adios211burstbuffer11FileDrainer18AddOperationDeleteERKNSt7__cxx1112basic_stringIcSt11char_traitsIcESaIcEEE
libadios2_core.so.2:_ZN6adios211burstbuffer11FileDrainer19AddOperationSeekEndERKNSt7__cxx1112basic_stringIcSt11char_traitsIcESaIcEEE
libadios2_core.so.2:_ZN6adios211burstbuffer11FileDrainer19AddOperationWriteAtERKNSt7__cxx1112basic_stringIcSt11char_traitsIcESaIcEEEmmPKv
libadios2_core.so.2:_ZN6adios211burstbuffer11FileDrainer4GoodERSt10shared_ptrISt14basic_ifstreamIcSt11char_traitsIcEEE
libadios2_core.so.2:_ZN6adios211burstbuffer11FileDrainer4GoodERSt10shared_ptrISt14basic_ofstreamIcSt11char_traitsIcEEE
libadios2_core.so.2:_ZN6adios211burstbuffer11FileDrainer4OpenERSt10shared_ptrISt14basic_ifstreamIcSt11char_traitsIcEEERKNSt7__cxx1112basic_stringIcS5_SaIcEEE
libadios2_core.so.2:_ZN6adios211burstbuffer11FileDrainer4OpenERSt10shared_ptrISt14basic_ofstreamIcSt11char_traitsIcEEERKNSt7__cxx1112basic_stringIcS5_SaIcEEEb
libadios2_core.so.2:_ZN6adios211burstbuffer11FileDrainer4ReadERSt10shared_ptrISt14basic_ifstreamIcSt11char_traitsIcEEEmPcRKNSt7__cxx1112basic_stringIcS5_SaIcEEE
libadios2_core.so.2:_ZN6adios211burstbuffer11FileDrainer4SeekERSt10shared_ptrISt14basic_ifstreamIcSt11char_traitsIcEEEmRKNSt7__cxx1112basic_stringIcS5_SaIcEEE
libadios2_core.so.2:_ZN6adios211burstbuffer11FileDrainer4SeekERSt10shared_ptrISt14basic_ofstreamIcSt11char_traitsIcEEEmRKNSt7__cxx1112basic_stringIcS5_SaIcEEE
libadios2_core.so.2:_ZN6adios211burstbuffer11FileDrainer5CloseERSt10shared_ptrISt14basic_ifstreamIcSt11char_traitsIcEEE
libadios2_core.so.2:_ZN6adios211burstbuffer11FileDrainer5CloseERSt10shared_ptrISt14basic_ofstreamIcSt11char_traitsIcEEE
libadios2_core.so.2:_ZN6adios211burstbuffer11FileDrainer5WriteERSt10shared_ptrISt14basic_ofstreamIcSt11char_traitsIcEEEmPKcRKNSt7__cxx1112basic_stringIcS5_SaIcEEE
libadios2_core.so.2:_ZN6adios211burstbuffer11FileDrainer6DeleteERSt10shared_ptrISt14basic_ofstreamIcSt11char_traitsIcEEERKNSt7__cxx1112basic_stringIcS5_SaIcEEE
libadios2_core.so.2:_ZN6adios211burstbuffer11FileDrainer7SeekEndERSt10shared_ptrISt14basic_ofstreamIcSt11char_traitsIcEEE
libadios2_core.so.2:_ZN6adios211burstbuffer11FileDrainer8CloseAllEv
libadios2_core.so.2:_ZN6adios211burstbuffer18FileDrainOperationC1ENS0_14DrainOperationERKNSt7__cxx1112basic_stringIcSt11char_traitsIcESaIcEEESA_mmmPKv
libadios2_core.so.2:_ZN6adios211burstbuffer18FileDrainOperationC2ENS0_14DrainOperationERKNSt7__cxx1112basic_stringIcSt11char_traitsIcESaIcEEESA_mmmPKv
libadios2_core.so.2:_ZN6adios211burstbuffer23FileDrainerSingleThread11DrainThreadEv
libadios2_core.so.2:_ZN6adios211burstbuffer23FileDrainerSingleThread13SetBufferSizeEm
libadios2_core.so.2:_ZN6adios211burstbuffer23FileDrainerSingleThread4JoinEv
libadios2_core.so.2:_ZN6adios211burstbuffer23FileDrainerSingleThread5StartEv
libadios2_core.so.2:_ZN6adios211burstbuffer23FileDrainerSingleThread6FinishEv
libadios2_core.so.2:_ZN6adios211burstbuffer23FileDrainerSingleThreadC1Ev
libadios2_core.so.2:_ZN6adios211burstbuffer23FileDrainerSingleThreadC2Ev
libadios2_core.so.2:_ZN6adios211burstbuffer23FileDrainerSingleThreadD0Ev
libadios2_core.so.2:_ZN6adios211burstbuffer23FileDrainerSingleThreadD1Ev
libadios2_core.so.2:_ZN6adios211burstbuffer23FileDrainerSingleThreadD2Ev
libadios2_core.so.2:_ZN6adios212transportman12TransportMan10CloseFilesEi
libadios2_core.so.2:_ZN6adios212transportman12TransportMan10FileExistsERKNSt7__cxx1112basic_stringIcSt11char_traitsIcESaIcEEERKSt3mapIS7_S7_St4lessIS7_ESaISt4pairIS8_S7_EEEb
libadios2_core.so.2:_ZN6adios212transportman12TransportMan10FlushFilesEi
libadios2_core.so.2:_ZN6adios212transportman12TransportMan10OpenFileIDERKNSt7__cxx1112basic_stringIcSt11char_traitsIcESaIcEEEmNS_4ModeERKSt3mapIS7_S7_St4lessIS7_ESaISt4pairIS8_S7_EEEb
libadios2_core.so.2:_ZN6adios212transportman12TransportMan10WriteFilesEPKcmi
libadios2_core.so.2:_ZN6adios212transportman12TransportMan11DeleteFilesEi
libadios2_core.so.2:_ZN6adios212transportman12TransportMan11WriteFileAtEPKcmmi
libadios2_core.so.2:_ZN6adios212transportman12TransportMan13MkDirsBarrierERKSt6vectorINSt7__cxx1112basic_stringIcSt11char_traitsIcESaIcEEESaIS8_EERKS2_ISt3mapIS8_S8_St4lessIS8_ESaISt4pairIKS8_S8_EEESaISK_EEb
libadios2_core.so.2:_ZN6adios212transportman12TransportMan13SeekToFileEndEi
libadios2_core.so.2:_ZN6adios212transportman12TransportMan15SeekToFileBeginEi
libadios2_core.so.2:_ZN6adios212transportman12TransportMan17OpenFileTransportERKNSt7__cxx1112basic_stringIcSt11char_traitsIcESaIcEEENS_4ModeERKSt3mapIS7_S7_St4lessIS7_ESaISt4pairIS8_S7_EEEb
libadios2_core.so.2:_ZN6adios212transportman12TransportMan18GetTransportsTypesB5cxx11Ev
libadios2_core.so.2:_ZN6adios212transportman12TransportMan22GetTransportsProfilersEv
libadios2_core.so.2:_ZN6adios212transportman12TransportMan8ReadFileEPcmmm
libadios2_core.so.2:_ZN6adios212transportman12TransportMan9OpenFilesERKSt6vectorINSt7__cxx1112basic_stringIcSt11char_traitsIcESaIcEEESaIS8_EENS_4ModeERKS2_ISt3mapIS8_S8_St4lessIS8_ESaISt4pairIKS8_S8_EEESaISL_EEb
libadios2_core.so.2:_ZN6adios212transportman12TransportManC1ERNS_6helper4CommE
libadios2_core.so.2:_ZN6adios212transportman12TransportManC2ERNS_6helper4CommE
libadios2_core.so.2:_ZN6adios23zmq9ZmqPubSub13OpenPublisherERKNSt7__cxx1112basic_stringIcSt11char_traitsIcESaIcEEE
libadios2_core.so.2:_ZN6adios23zmq9ZmqPubSub14OpenSubscriberERKNSt7__cxx1112basic_stringIcSt11char_traitsIcESaIcEEEm
libadios2_core.so.2:_ZN6adios23zmq9ZmqPubSub4SendESt10shared_ptrISt6vectorIcSaIcEEE
libadios2_core.so.2:_ZN6adios23zmq9ZmqPubSub7ReceiveEv
libadios2_core.so.2:_ZN6adios23zmq9ZmqPubSubC1Ev
libadios2_core.so.2:_ZN6adios23zmq9ZmqPubSubC2Ev
libadios2_core.so.2:_ZN6adios23zmq9ZmqPubSubD1Ev
libadios2_core.so.2:_ZN6adios23zmq9ZmqPubSubD2Ev
libadios2_core.so.2:_ZN6adios23zmq9ZmqReqRep11OpenReplierERKNSt7__cxx1112basic_stringIcSt11char_traitsIcESaIcEEEim
libadios2_core.so.2:_ZN6adios23zmq9ZmqReqRep13OpenRequesterERKNSt7__cxx1112basic_stringIcSt11char_traitsIcESaIcEEEim
libadios2_core.so.2:_ZN6adios23zmq9ZmqReqRep13OpenRequesterEim
libadios2_core.so.2:_ZN6adios23zmq9ZmqReqRep14ReceiveRequestEv
libadios2_core.so.2:_ZN6adios23zmq9ZmqReqRep7RequestEPKvm
libadios2_core.so.2:_ZN6adios23zmq9ZmqReqRep7RequestEPKvmRKNSt7__cxx1112basic_stringIcSt11char_traitsIcESaIcEEE
libadios2_core.so.2:_ZN6adios23zmq9ZmqReqRep9SendReplyEPKvm
libadios2_core.so.2:_ZN6adios23zmq9ZmqReqRep9SendReplyESt10shared_ptrISt6vectorIcSaIcEEE
libadios2_core.so.2:_ZN6adios23zmq9ZmqReqRepC1Ev
libadios2_core.so.2:_ZN6adios23zmq9ZmqReqRepC2Ev
libadios2_core.so.2:_ZN6adios23zmq9ZmqReqRepD1Ev
libadios2_core.so.2:_ZN6adios23zmq9ZmqReqRepD2Ev
libadios2_core.so.2:_ZN6adios24core12VariableBase12AddOperationERNS0_8OperatorERKSt3mapINSt7__cxx1112basic_stringIcSt11char_traitsIcESaIcEEESA_St4lessISA_ESaISt4pairIKSA_SA_EEE
libadios2_core.so.2:_ZN6adios24core12VariableBase12SetSelectionERKSt4pairISt6vectorImSaImEES5_E
libadios2_core.so.2:_ZN6adios24core12VariableBase13InitShapeTypeEv
libadios2_core.so.2:_ZN6adios24core12VariableBase15SetConstantDimsEv
libadios2_core.so.2:_ZN6adios24core12VariableBase16SetStepSelectionERKSt4pairImmE
libadios2_core.so.2:_ZN6adios24core12VariableBase17SetBlockSelectionEm
libadios2_core.so.2:_ZN6adios24core12VariableBase18SetMemorySelectionERKSt4pairISt6vectorImSaImEES5_E
libadios2_core.so.2:_ZN6adios24core12VariableBase19ResetStepsSelectionEb
libadios2_core.so.2:_ZN6adios24core12VariableBase21SetOperationParameterEmNSt7__cxx1112basic_stringIcSt11char_traitsIcESaIcEEES7_
libadios2_core.so.2:_ZN6adios24core12VariableBase8GetShapeEm
libadios2_core.so.2:_ZN6adios24core12VariableBase8SetShapeERKSt6vectorImSaImEE
libadios2_core.so.2:_ZN6adios24core12VariableBaseC1ERKNSt7__cxx1112basic_stringIcSt11char_traitsIcESaIcEEENS_8DataTypeEmRKSt6vectorImSaImEESF_SF_b
libadios2_core.so.2:_ZN6adios24core12VariableBaseC2ERKNSt7__cxx1112basic_stringIcSt11char_traitsIcESaIcEEENS_8DataTypeEmRKSt6vectorImSaImEESF_SF_b
libadios2_core.so.2:_ZN6adios24core13AttributeBaseC1ERKNSt7__cxx1112basic_stringIcSt11char_traitsIcESaIcEEENS_8DataTypeE
libadios2_core.so.2:_ZN6adios24core13AttributeBaseC1ERKNSt7__cxx1112basic_stringIcSt11char_traitsIcESaIcEEENS_8DataTypeEm
libadios2_core.so.2:_ZN6adios24core13AttributeBaseC2ERKNSt7__cxx1112basic_stringIcSt11char_traitsIcESaIcEEENS_8DataTypeE
libadios2_core.so.2:_ZN6adios24core13AttributeBaseC2ERKNSt7__cxx1112basic_stringIcSt11char_traitsIcESaIcEEENS_8DataTypeEm
libadios2_core.so.2:_ZN6adios24core16VariableCompoundC1ERKNSt7__cxx1112basic_stringIcSt11char_traitsIcESaIcEEEmRKSt6vectorImSaImEESE_SE_b
libadios2_core.so.2:_ZN6adios24core16VariableCompoundC2ERKNSt7__cxx1112basic_stringIcSt11char_traitsIcESaIcEEEmRKSt6vectorImSaImEESE_SE_b
libadios2_core.so.2:_ZN6adios24core18IO_MakeEngine_HDF5Ev
libadios2_core.so.2:_ZN6adios24core22IO_MakeEngine_HDFMixerEv
libadios2_core.so.2:_ZN6adios24core2IO11CreateGroupERKNSt7__cxx1112basic_stringIcSt11char_traitsIcESaIcEEEc
libadios2_core.so.2:_ZN6adios24core2IO11SetDeclaredEv
libadios2_core.so.2:_ZN6adios24core2IO12AddOperationERNS0_8OperatorERKSt3mapINSt7__cxx1112basic_stringIcSt11char_traitsIcESaIcEEESA_St4lessISA_ESaISt4pairIKSA_SA_EEE
libadios2_core.so.2:_ZN6adios24core2IO12AddTransportENSt7__cxx1112basic_stringIcSt11char_traitsIcESaIcEEERKSt3mapIS7_S7_St4lessIS7_ESaISt4pairIKS7_S7_EEE
libadios2_core.so.2:_ZN6adios24core2IO12RemoveEngineERKNSt7__cxx1112basic_stringIcSt11char_traitsIcESaIcEEE
libadios2_core.so.2:_ZN6adios24core2IO12SetParameterENSt7__cxx1112basic_stringIcSt11char_traitsIcESaIcEEES7_
libadios2_core.so.2:_ZN6adios24core2IO13GetParametersB5cxx11Ev
libadios2_core.so.2:_ZN6adios24core2IO13NoEngineEntryENSt7__cxx1112basic_stringIcSt11char_traitsIcESaIcEEE
libadios2_core.so.2:_ZN6adios24core2IO13SetParametersERKNSt7__cxx1112basic_stringIcSt11char_traitsIcESaIcEEE
libadios2_core.so.2:_ZN6adios24core2IO13SetParametersERKSt3mapINSt7__cxx1112basic_stringIcSt11char_traitsIcESaIcEEES8_St4lessIS8_ESaISt4pairIKS8_S8_EEE
libadios2_core.so.2:_ZN6adios24core2IO14RegisterEngineERKNSt7__cxx1112basic_stringIcSt11char_traitsIcESaIcEEENS1_18EngineFactoryEntryE
libadios2_core.so.2:_ZN6adios24core2IO14RemoveVariableERKNSt7__cxx1112basic_stringIcSt11char_traitsIcESaIcEEE
libadios2_core.so.2:_ZN6adios24core2IO15ClearParametersEv
libadios2_core.so.2:_ZN6adios24core2IO15RemoveAttributeERKNSt7__cxx1112basic_stringIcSt11char_traitsIcESaIcEEE
libadios2_core.so.2:_ZN6adios24core2IO16SetPrefixedNamesEb
libadios2_core.so.2:_ZN6adios24core2IO18RemoveAllVariablesEv
libadios2_core.so.2:_ZN6adios24core2IO19RemoveAllAttributesEv
libadios2_core.so.2:_ZN6adios24core2IO21GetAvailableVariablesERKSt3setINSt7__cxx1112basic_stringIcSt11char_traitsIcESaIcEEESt4lessIS8_ESaIS8_EE
libadios2_core.so.2:_ZN6adios24core2IO21SetTransportParameterEmNSt7__cxx1112basic_stringIcSt11char_traitsIcESaIcEEES7_
libadios2_core.so.2:_ZN6adios24core2IO22GetAvailableAttributesERKNSt7__cxx1112basic_stringIcSt11char_traitsIcESaIcEEES7_b
libadios2_core.so.2:_ZN6adios24core2IO27ResetVariablesStepSelectionEbNSt7__cxx1112basic_stringIcSt11char_traitsIcESaIcEEE
libadios2_core.so.2:_ZN6adios24core2IO4OpenERKNSt7__cxx1112basic_stringIcSt11char_traitsIcESaIcEEENS_4ModeE
libadios2_core.so.2:_ZN6adios24core2IO4OpenERKNSt7__cxx1112basic_stringIcSt11char_traitsIcESaIcEEENS_4ModeENS_6helper4CommE
libadios2_core.so.2:_ZN6adios24core2IO8FlushAllEv
libadios2_core.so.2:_ZN6adios24core2IO8NoEngineENSt7__cxx1112basic_stringIcSt11char_traitsIcESaIcEEE
libadios2_core.so.2:_ZN6adios24core2IO9GetEngineERKNSt7__cxx1112basic_stringIcSt11char_traitsIcESaIcEEE
libadios2_core.so.2:_ZN6adios24core2IO9SetEngineENSt7__cxx1112basic_stringIcSt11char_traitsIcESaIcEEE
libadios2_core.so.2:_ZN6adios24core2IO9SetIOModeENS_6IOModeE
libadios2_core.so.2:_ZN6adios24core2IOC1ERNS0_5ADIOSENSt7__cxx1112basic_stringIcSt11char_traitsIcESaIcEEEbS9_
libadios2_core.so.2:_ZN6adios24core2IOC2ERNS0_5ADIOSENSt7__cxx1112basic_stringIcSt11char_traitsIcESaIcEEEbS9_
libadios2_core.so.2:_ZN6adios24core2IOD1Ev
libadios2_core.so.2:_ZN6adios24core2IOD2Ev
libadios2_core.so.2:_ZN6adios24core5ADIOS12RemoveAllIOsEv
libadios2_core.so.2:_ZN6adios24core5ADIOS14DefineCallBackENSt7__cxx1112basic_stringIcSt11char_traitsIcESaIcEEERKSt8functionIFvPKS7_RS9_SB_SB_mRKSt6vectorImSaImEESG_SG_EERKSt3mapIS7_S7_St4lessIS7_ESaISt4pairIS9_S7_EEE
libadios2_core.so.2:_ZN6adios24core5ADIOS14DefineCallBackENSt7__cxx1112basic_stringIcSt11char_traitsIcESaIcEEERKSt8functionIFvPKSt7complexIdERKS7_SE_SE_mRKSt6vectorImSaImEESJ_SJ_EERKSt3mapIS7_S7_St4lessIS7_ESaISt4pairISD_S7_EEE
libadios2_core.so.2:_ZN6adios24core5ADIOS14DefineCallBackENSt7__cxx1112basic_stringIcSt11char_traitsIcESaIcEEERKSt8functionIFvPKSt7complexIfERKS7_SE_SE_mRKSt6vectorImSaImEESJ_SJ_EERKSt3mapIS7_S7_St4lessIS7_ESaISt4pairISD_S7_EEE
libadios2_core.so.2:_ZN6adios24core5ADIOS14DefineCallBackENSt7__cxx1112basic_stringIcSt11char_traitsIcESaIcEEERKSt8functionIFvPKaRKS7_SC_SC_mRKSt6vectorImSaImEESH_SH_EERKSt3mapIS7_S7_St4lessIS7_ESaISt4pairISB_S7_EEE
libadios2_core.so.2:_ZN6adios24core5ADIOS14DefineCallBackENSt7__cxx1112basic_stringIcSt11char_traitsIcESaIcEEERKSt8functionIFvPKdRKS7_SC_SC_mRKSt6vectorImSaImEESH_SH_EERKSt3mapIS7_S7_St4lessIS7_ESaISt4pairISB_S7_EEE
libadios2_core.so.2:_ZN6adios24core5ADIOS14DefineCallBackENSt7__cxx1112basic_stringIcSt11char_traitsIcESaIcEEERKSt8functionIFvPKeRKS7_SC_SC_mRKSt6vectorImSaImEESH_SH_EERKSt3mapIS7_S7_St4lessIS7_ESaISt4pairISB_S7_EEE
libadios2_core.so.2:_ZN6adios24core5ADIOS14DefineCallBackENSt7__cxx1112basic_stringIcSt11char_traitsIcESaIcEEERKSt8functionIFvPKfRKS7_SC_SC_mRKSt6vectorImSaImEESH_SH_EERKSt3mapIS7_S7_St4lessIS7_ESaISt4pairISB_S7_EEE
libadios2_core.so.2:_ZN6adios24core5ADIOS14DefineCallBackENSt7__cxx1112basic_stringIcSt11char_traitsIcESaIcEEERKSt8functionIFvPKhRKS7_SC_SC_mRKSt6vectorImSaImEESH_SH_EERKSt3mapIS7_S7_St4lessIS7_ESaISt4pairISB_S7_EEE
libadios2_core.so.2:_ZN6adios24core5ADIOS14DefineCallBackENSt7__cxx1112basic_stringIcSt11char_traitsIcESaIcEEERKSt8functionIFvPKiRKS7_SC_SC_mRKSt6vectorImSaImEESH_SH_EERKSt3mapIS7_S7_St4lessIS7_ESaISt4pairISB_S7_EEE
libadios2_core.so.2:_ZN6adios24core5ADIOS14DefineCallBackENSt7__cxx1112basic_stringIcSt11char_traitsIcESaIcEEERKSt8functionIFvPKjRKS7_SC_SC_mRKSt6vectorImSaImEESH_SH_EERKSt3mapIS7_S7_St4lessIS7_ESaISt4pairISB_S7_EEE
libadios2_core.so.2:_ZN6adios24core5ADIOS14DefineCallBackENSt7__cxx1112basic_stringIcSt11char_traitsIcESaIcEEERKSt8functionIFvPKlRKS7_SC_SC_mRKSt6vectorImSaImEESH_SH_EERKSt3mapIS7_S7_St4lessIS7_ESaISt4pairISB_S7_EEE
libadios2_core.so.2:_ZN6adios24core5ADIOS14DefineCallBackENSt7__cxx1112basic_stringIcSt11char_traitsIcESaIcEEERKSt8functionIFvPKmRKS7_SC_SC_mRKSt6vectorImSaImEESH_SH_EERKSt3mapIS7_S7_St4lessIS7_ESaISt4pairISB_S7_EEE
libadios2_core.so.2:_ZN6adios24core5ADIOS14DefineCallBackENSt7__cxx1112basic_stringIcSt11char_traitsIcESaIcEEERKSt8functionIFvPKsRKS7_SC_SC_mRKSt6vectorImSaImEESH_SH_EERKSt3mapIS7_S7_St4lessIS7_ESaISt4pairISB_S7_EEE
libadios2_core.so.2:_ZN6adios24core5ADIOS14DefineCallBackENSt7__cxx1112basic_stringIcSt11char_traitsIcESaIcEEERKSt8functionIFvPKtRKS7_SC_SC_mRKSt6vectorImSaImEESH_SH_EERKSt3mapIS7_S7_St4lessIS7_ESaISt4pairISB_S7_EEE
libadios2_core.so.2:_ZN6adios24core5ADIOS14DefineCallBackENSt7__cxx1112basic_stringIcSt11char_traitsIcESaIcEEERKSt8functionIFvPvRKS7_SB_SB_mRKSt6vectorImSaImEESG_SG_EERKSt3mapIS7_S7_St4lessIS7_ESaISt4pairISA_S7_EEE
libadios2_core.so.2:_ZN6adios24core5ADIOS14DefineOperatorERKNSt7__cxx1112basic_stringIcSt11char_traitsIcESaIcEEES7_RKSt3mapIS7_S7_St4lessIS7_ESaISt4pairIS8_S7_EEE
libadios2_core.so.2:_ZN6adios24core5ADIOS15InquireOperatorERKNSt7__cxx1112basic_stringIcSt11char_traitsIcESaIcEEE
libadios2_core.so.2:_ZN6adios24core5ADIOS4AtIOENSt7__cxx1112basic_stringIcSt11char_traitsIcESaIcEEE
libadios2_core.so.2:_ZN6adios24core5ADIOS7XMLInitERKNSt7__cxx1112basic_stringIcSt11char_traitsIcESaIcEEE
libadios2_core.so.2:_ZN6adios24core5ADIOS8FlushAllEv
libadios2_core.so.2:_ZN6adios24core5ADIOS8RemoveIOENSt7__cxx1112basic_stringIcSt11char_traitsIcESaIcEEE
libadios2_core.so.2:_ZN6adios24core5ADIOS8YAMLInitERKNSt7__cxx1112basic_stringIcSt11char_traitsIcESaIcEEE
libadios2_core.so.2:_ZN6adios24core5ADIOS9DeclareIOENSt7__cxx1112basic_stringIcSt11char_traitsIcESaIcEEE
libadios2_core.so.2:_ZN6adios24core5ADIOSC1ENS_6helper4CommENSt7__cxx1112basic_stringIcSt11char_traitsIcESaIcEEE
libadios2_core.so.2:_ZN6adios24core5ADIOSC1ENSt7__cxx1112basic_stringIcSt11char_traitsIcESaIcEEE
libadios2_core.so.2:_ZN6adios24core5ADIOSC1ENSt7__cxx1112basic_stringIcSt11char_traitsIcESaIcEEENS_6helper4CommES7_
libadios2_core.so.2:_ZN6adios24core5ADIOSC1ENSt7__cxx1112basic_stringIcSt11char_traitsIcESaIcEEES7_
libadios2_core.so.2:_ZN6adios24core5ADIOSC2ENS_6helper4CommENSt7__cxx1112basic_stringIcSt11char_traitsIcESaIcEEE
libadios2_core.so.2:_ZN6adios24core5ADIOSC2ENSt7__cxx1112basic_stringIcSt11char_traitsIcESaIcEEE
libadios2_core.so.2:_ZN6adios24core5ADIOSC2ENSt7__cxx1112basic_stringIcSt11char_traitsIcESaIcEEENS_6helper4CommES7_
libadios2_core.so.2:_ZN6adios24core5ADIOSC2ENSt7__cxx1112basic_stringIcSt11char_traitsIcESaIcEEES7_
libadios2_core.so.2:_ZN6adios24core5ADIOSD1Ev
libadios2_core.so.2:_ZN6adios24core5ADIOSD2Ev
libadios2_core.so.2:_ZN6adios24core5Group10getTreeMapB5cxx11Ev
libadios2_core.so.2:_ZN6adios24core5Group11InquirePathB5cxx11Ev
libadios2_core.so.2:_ZN6adios24core5Group12InquireGroupENSt7__cxx1112basic_stringIcSt11char_traitsIcESaIcEEE
libadios2_core.so.2:_ZN6adios24core5Group12setDelimiterEc
libadios2_core.so.2:_ZN6adios24core5Group15AvailableGroupsB5cxx11Ev
libadios2_core.so.2:_ZN6adios24core5Group18AvailableVariablesB5cxx11Ev
libadios2_core.so.2:_ZN6adios24core5Group19AvailableAttributesB5cxx11Ev
libadios2_core.so.2:_ZN6adios24core5Group7setPathENSt7__cxx1112basic_stringIcSt11char_traitsIcESaIcEEE
libadios2_core.so.2:_ZN6adios24core5Group9BuildTreeEv
libadios2_core.so.2:_ZN6adios24core5Group9PrintTreeEv
libadios2_core.so.2:_ZN6adios24core5GroupC1ENSt7__cxx1112basic_stringIcSt11char_traitsIcESaIcEEEcRNS0_2IOE
libadios2_core.so.2:_ZN6adios24core5GroupC1ERKS1_
libadios2_core.so.2:_ZN6adios24core5GroupC2ENSt7__cxx1112basic_stringIcSt11char_traitsIcESaIcEEEcRNS0_2IOE
libadios2_core.so.2:_ZN6adios24core5GroupC2ERKS1_
libadios2_core.so.2:_ZN6adios24core5GroupD1Ev
libadios2_core.so.2:_ZN6adios24core5GroupD2Ev
libadios2_core.so.2:_ZN6adios24core5splitERKNSt7__cxx1112basic_stringIcSt11char_traitsIcESaIcEEEc
libadios2_core.so.2:_ZN6adios24core6Engine10BufferDataISt7complexIdEEEPT_mm
libadios2_core.so.2:_ZN6adios24core6Engine10BufferDataISt7complexIfEEEPT_mm
libadios2_core.so.2:_ZN6adios24core6Engine10BufferDataIaEEPT_mm
libadios2_core.so.2:_ZN6adios24core6Engine10BufferDataIdEEPT_mm
libadios2_core.so.2:_ZN6adios24core6Engine10BufferDataIeEEPT_mm
libadios2_core.so.2:_ZN6adios24core6Engine10BufferDataIfEEPT_mm
libadios2_core.so.2:_ZN6adios24core6Engine10BufferDataIhEEPT_mm
libadios2_core.so.2:_ZN6adios24core6Engine10BufferDataIiEEPT_mm
libadios2_core.so.2:_ZN6adios24core6Engine10BufferDataIjEEPT_mm
libadios2_core.so.2:_ZN6adios24core6Engine10BufferDataIlEEPT_mm
libadios2_core.so.2:_ZN6adios24core6Engine10BufferDataImEEPT_mm
libadios2_core.so.2:_ZN6adios24core6Engine10BufferDataIsEEPT_mm
libadios2_core.so.2:_ZN6adios24core6Engine10BufferDataItEEPT_mm
libadios2_core.so.2:_ZN6adios24core6Engine11PerformGetsEv
libadios2_core.so.2:_ZN6adios24core6Engine11PerformPutsEv
libadios2_core.so.2:_ZN6adios24core6Engine13DoGetDeferredERNS0_8VariableINSt7__cxx1112basic_stringIcSt11char_traitsIcESaIcEEEEEPS8_
libadios2_core.so.2:_ZN6adios24core6Engine13DoGetDeferredERNS0_8VariableISt7complexIdEEEPS4_
libadios2_core.so.2:_ZN6adios24core6Engine13DoGetDeferredERNS0_8VariableISt7complexIfEEEPS4_
libadios2_core.so.2:_ZN6adios24core6Engine13DoGetDeferredERNS0_8VariableIaEEPa
libadios2_core.so.2:_ZN6adios24core6Engine13DoGetDeferredERNS0_8VariableIdEEPd
libadios2_core.so.2:_ZN6adios24core6Engine13DoGetDeferredERNS0_8VariableIeEEPe
libadios2_core.so.2:_ZN6adios24core6Engine13DoGetDeferredERNS0_8VariableIfEEPf
libadios2_core.so.2:_ZN6adios24core6Engine13DoGetDeferredERNS0_8VariableIhEEPh
libadios2_core.so.2:_ZN6adios24core6Engine13DoGetDeferredERNS0_8VariableIiEEPi
libadios2_core.so.2:_ZN6adios24core6Engine13DoGetDeferredERNS0_8VariableIjEEPj
libadios2_core.so.2:_ZN6adios24core6Engine13DoGetDeferredERNS0_8VariableIlEEPl
libadios2_core.so.2:_ZN6adios24core6Engine13DoGetDeferredERNS0_8VariableImEEPm
libadios2_core.so.2:_ZN6adios24core6Engine13DoGetDeferredERNS0_8VariableIsEEPs
libadios2_core.so.2:_ZN6adios24core6Engine13DoGetDeferredERNS0_8VariableItEEPt
libadios2_core.so.2:_ZN6adios24core6Engine13DoPutDeferredERNS0_8VariableINSt7__cxx1112basic_stringIcSt11char_traitsIcESaIcEEEEEPKS8_
libadios2_core.so.2:_ZN6adios24core6Engine13DoPutDeferredERNS0_8VariableISt7complexIdEEEPKS4_
libadios2_core.so.2:_ZN6adios24core6Engine13DoPutDeferredERNS0_8VariableISt7complexIfEEEPKS4_
libadios2_core.so.2:_ZN6adios24core6Engine13DoPutDeferredERNS0_8VariableIaEEPKa
libadios2_core.so.2:_ZN6adios24core6Engine13DoPutDeferredERNS0_8VariableIdEEPKd
libadios2_core.so.2:_ZN6adios24core6Engine13DoPutDeferredERNS0_8VariableIeEEPKe
libadios2_core.so.2:_ZN6adios24core6Engine13DoPutDeferredERNS0_8VariableIfEEPKf
libadios2_core.so.2:_ZN6adios24core6Engine13DoPutDeferredERNS0_8VariableIhEEPKh
libadios2_core.so.2:_ZN6adios24core6Engine13DoPutDeferredERNS0_8VariableIiEEPKi
libadios2_core.so.2:_ZN6adios24core6Engine13DoPutDeferredERNS0_8VariableIjEEPKj
libadios2_core.so.2:_ZN6adios24core6Engine13DoPutDeferredERNS0_8VariableIlEEPKl
libadios2_core.so.2:_ZN6adios24core6Engine13DoPutDeferredERNS0_8VariableImEEPKm
libadios2_core.so.2:_ZN6adios24core6Engine13DoPutDeferredERNS0_8VariableIsEEPKs
libadios2_core.so.2:_ZN6adios24core6Engine13DoPutDeferredERNS0_8VariableItEEPKt
libadios2_core.so.2:_ZN6adios24core6Engine14DoGetBlockSyncERNS0_8VariableINSt7__cxx1112basic_stringIcSt11char_traitsIcESaIcEEEEE
libadios2_core.so.2:_ZN6adios24core6Engine14DoGetBlockSyncERNS0_8VariableISt7complexIdEEE
libadios2_core.so.2:_ZN6adios24core6Engine14DoGetBlockSyncERNS0_8VariableISt7complexIfEEE
libadios2_core.so.2:_ZN6adios24core6Engine14DoGetBlockSyncERNS0_8VariableIaEE
libadios2_core.so.2:_ZN6adios24core6Engine14DoGetBlockSyncERNS0_8VariableIdEE
libadios2_core.so.2:_ZN6adios24core6Engine14DoGetBlockSyncERNS0_8VariableIeEE
libadios2_core.so.2:_ZN6adios24core6Engine14DoGetBlockSyncERNS0_8VariableIfEE
libadios2_core.so.2:_ZN6adios24core6Engine14DoGetBlockSyncERNS0_8VariableIhEE
libadios2_core.so.2:_ZN6adios24core6Engine14DoGetBlockSyncERNS0_8VariableIiEE
libadios2_core.so.2:_ZN6adios24core6Engine14DoGetBlockSyncERNS0_8VariableIjEE
libadios2_core.so.2:_ZN6adios24core6Engine14DoGetBlockSyncERNS0_8VariableIlEE
libadios2_core.so.2:_ZN6adios24core6Engine14DoGetBlockSyncERNS0_8VariableImEE
libadios2_core.so.2:_ZN6adios24core6Engine14DoGetBlockSyncERNS0_8VariableIsEE
libadios2_core.so.2:_ZN6adios24core6Engine14DoGetBlockSyncERNS0_8VariableItEE
libadios2_core.so.2:_ZN6adios24core6Engine14InitParametersEv
libadios2_core.so.2:_ZN6adios24core6Engine14InitTransportsEv
libadios2_core.so.2:_ZN6adios24core6Engine17DoBufferData_int8Emm
libadios2_core.so.2:_ZN6adios24core6Engine18DoBufferData_floatEmm
libadios2_core.so.2:_ZN6adios24core6Engine18DoBufferData_int16Emm
libadios2_core.so.2:_ZN6adios24core6Engine18DoBufferData_int32Emm
libadios2_core.so.2:_ZN6adios24core6Engine18DoBufferData_int64Emm
libadios2_core.so.2:_ZN6adios24core6Engine18DoBufferData_uint8Emm
libadios2_core.so.2:_ZN6adios24core6Engine18DoGetBlockDeferredERNS0_8VariableINSt7__cxx1112basic_stringIcSt11char_traitsIcESaIcEEEEE
libadios2_core.so.2:_ZN6adios24core6Engine18DoGetBlockDeferredERNS0_8VariableISt7complexIdEEE
libadios2_core.so.2:_ZN6adios24core6Engine18DoGetBlockDeferredERNS0_8VariableISt7complexIfEEE
libadios2_core.so.2:_ZN6adios24core6Engine18DoGetBlockDeferredERNS0_8VariableIaEE
libadios2_core.so.2:_ZN6adios24core6Engine18DoGetBlockDeferredERNS0_8VariableIdEE
libadios2_core.so.2:_ZN6adios24core6Engine18DoGetBlockDeferredERNS0_8VariableIeEE
libadios2_core.so.2:_ZN6adios24core6Engine18DoGetBlockDeferredERNS0_8VariableIfEE
libadios2_core.so.2:_ZN6adios24core6Engine18DoGetBlockDeferredERNS0_8VariableIhEE
libadios2_core.so.2:_ZN6adios24core6Engine18DoGetBlockDeferredERNS0_8VariableIiEE
libadios2_core.so.2:_ZN6adios24core6Engine18DoGetBlockDeferredERNS0_8VariableIjEE
libadios2_core.so.2:_ZN6adios24core6Engine18DoGetBlockDeferredERNS0_8VariableIlEE
libadios2_core.so.2:_ZN6adios24core6Engine18DoGetBlockDeferredERNS0_8VariableImEE
libadios2_core.so.2:_ZN6adios24core6Engine18DoGetBlockDeferredERNS0_8VariableIsEE
libadios2_core.so.2:_ZN6adios24core6Engine18DoGetBlockDeferredERNS0_8VariableItEE
libadios2_core.so.2:_ZN6adios24core6Engine19DoBufferData_cfloatEmm
libadios2_core.so.2:_ZN6adios24core6Engine19DoBufferData_doubleEmm
libadios2_core.so.2:_ZN6adios24core6Engine19DoBufferData_uint16Emm
libadios2_core.so.2:_ZN6adios24core6Engine19DoBufferData_uint32Emm
libadios2_core.so.2:_ZN6adios24core6Engine19DoBufferData_uint64Emm
libadios2_core.so.2:_ZN6adios24core6Engine20DoBufferData_cdoubleEmm
libadios2_core.so.2:_ZN6adios24core6Engine20DoBufferData_ldoubleEmm
libadios2_core.so.2:_ZN6adios24core6Engine20LockReaderSelectionsEv
libadios2_core.so.2:_ZN6adios24core6Engine21LockWriterDefinitionsEv
libadios2_core.so.2:_ZN6adios24core6Engine4InitEv
libadios2_core.so.2:_ZN6adios24core6Engine5CloseEi
libadios2_core.so.2:_ZN6adios24core6Engine5DoPutERNS0_8VariableISt7complexIdEEERNS0_4SpanIS4_EEmRKS4_
libadios2_core.so.2:_ZN6adios24core6Engine5DoPutERNS0_8VariableISt7complexIfEEERNS0_4SpanIS4_EEmRKS4_
libadios2_core.so.2:_ZN6adios24core6Engine5DoPutERNS0_8VariableIaEERNS0_4SpanIaEEmRKa
libadios2_core.so.2:_ZN6adios24core6Engine5DoPutERNS0_8VariableIdEERNS0_4SpanIdEEmRKd
libadios2_core.so.2:_ZN6adios24core6Engine5DoPutERNS0_8VariableIeEERNS0_4SpanIeEEmRKe
libadios2_core.so.2:_ZN6adios24core6Engine5DoPutERNS0_8VariableIfEERNS0_4SpanIfEEmRKf
libadios2_core.so.2:_ZN6adios24core6Engine5DoPutERNS0_8VariableIhEERNS0_4SpanIhEEmRKh
libadios2_core.so.2:_ZN6adios24core6Engine5DoPutERNS0_8VariableIiEERNS0_4SpanIiEEmRKi
libadios2_core.so.2:_ZN6adios24core6Engine5DoPutERNS0_8VariableIjEERNS0_4SpanIjEEmRKj
libadios2_core.so.2:_ZN6adios24core6Engine5DoPutERNS0_8VariableIlEERNS0_4SpanIlEEmRKl
libadios2_core.so.2:_ZN6adios24core6Engine5DoPutERNS0_8VariableImEERNS0_4SpanImEEmRKm
libadios2_core.so.2:_ZN6adios24core6Engine5DoPutERNS0_8VariableIsEERNS0_4SpanIsEEmRKs
libadios2_core.so.2:_ZN6adios24core6Engine5DoPutERNS0_8VariableItEERNS0_4SpanItEEmRKt
libadios2_core.so.2:_ZN6adios24core6Engine5FlushEi
libadios2_core.so.2:_ZN6adios24core6Engine5GetIOEv
libadios2_core.so.2:_ZN6adios24core6Engine7EndStepEv
libadios2_core.so.2:_ZN6adios24core6Engine9BeginStepENS_8StepModeEf
libadios2_core.so.2:_ZN6adios24core6Engine9BeginStepEv
libadios2_core.so.2:_ZN6adios24core6Engine9DoGetSyncERNS0_8VariableINSt7__cxx1112basic_stringIcSt11char_traitsIcESaIcEEEEEPS8_
libadios2_core.so.2:_ZN6adios24core6Engine9DoGetSyncERNS0_8VariableISt7complexIdEEEPS4_
libadios2_core.so.2:_ZN6adios24core6Engine9DoGetSyncERNS0_8VariableISt7complexIfEEEPS4_
libadios2_core.so.2:_ZN6adios24core6Engine9DoGetSyncERNS0_8VariableIaEEPa
libadios2_core.so.2:_ZN6adios24core6Engine9DoGetSyncERNS0_8VariableIdEEPd
libadios2_core.so.2:_ZN6adios24core6Engine9DoGetSyncERNS0_8VariableIeEEPe
libadios2_core.so.2:_ZN6adios24core6Engine9DoGetSyncERNS0_8VariableIfEEPf
libadios2_core.so.2:_ZN6adios24core6Engine9DoGetSyncERNS0_8VariableIhEEPh
libadios2_core.so.2:_ZN6adios24core6Engine9DoGetSyncERNS0_8VariableIiEEPi
libadios2_core.so.2:_ZN6adios24core6Engine9DoGetSyncERNS0_8VariableIjEEPj
libadios2_core.so.2:_ZN6adios24core6Engine9DoGetSyncERNS0_8VariableIlEEPl
libadios2_core.so.2:_ZN6adios24core6Engine9DoGetSyncERNS0_8VariableImEEPm
libadios2_core.so.2:_ZN6adios24core6Engine9DoGetSyncERNS0_8VariableIsEEPs
libadios2_core.so.2:_ZN6adios24core6Engine9DoGetSyncERNS0_8VariableItEEPt
libadios2_core.so.2:_ZN6adios24core6Engine9DoPutSyncERNS0_8VariableINSt7__cxx1112basic_stringIcSt11char_traitsIcESaIcEEEEEPKS8_
libadios2_core.so.2:_ZN6adios24core6Engine9DoPutSyncERNS0_8VariableISt7complexIdEEEPKS4_
libadios2_core.so.2:_ZN6adios24core6Engine9DoPutSyncERNS0_8VariableISt7complexIfEEEPKS4_
libadios2_core.so.2:_ZN6adios24core6Engine9DoPutSyncERNS0_8VariableIaEEPKa
libadios2_core.so.2:_ZN6adios24core6Engine9DoPutSyncERNS0_8VariableIdEEPKd
libadios2_core.so.2:_ZN6adios24core6Engine9DoPutSyncERNS0_8VariableIeEEPKe
libadios2_core.so.2:_ZN6adios24core6Engine9DoPutSyncERNS0_8VariableIfEEPKf
libadios2_core.so.2:_ZN6adios24core6Engine9DoPutSyncERNS0_8VariableIhEEPKh
libadios2_core.so.2:_ZN6adios24core6Engine9DoPutSyncERNS0_8VariableIiEEPKi
libadios2_core.so.2:_ZN6adios24core6Engine9DoPutSyncERNS0_8VariableIjEEPKj
libadios2_core.so.2:_ZN6adios24core6Engine9DoPutSyncERNS0_8VariableIlEEPKl
libadios2_core.so.2:_ZN6adios24core6Engine9DoPutSyncERNS0_8VariableImEEPKm
libadios2_core.so.2:_ZN6adios24core6Engine9DoPutSyncERNS0_8VariableIsEEPKs
libadios2_core.so.2:_ZN6adios24core6Engine9DoPutSyncERNS0_8VariableItEEPKt
libadios2_core.so.2:_ZN6adios24core6EngineC1ENSt7__cxx1112basic_stringIcSt11char_traitsIcESaIcEEERNS0_2IOERKS7_NS_4ModeENS_6helper4CommE
libadios2_core.so.2:_ZN6adios24core6EngineC2ENSt7__cxx1112basic_stringIcSt11char_traitsIcESaIcEEERNS0_2IOERKS7_NS_4ModeENS_6helper4CommE
libadios2_core.so.2:_ZN6adios24core6EngineD0Ev
libadios2_core.so.2:_ZN6adios24core6EngineD1Ev
libadios2_core.so.2:_ZN6adios24core6EngineD2Ev
libadios2_core.so.2:_ZN6adios24core6Stream5CloseEv
libadios2_core.so.2:_ZN6adios24core6Stream7EndStepEv
libadios2_core.so.2:_ZN6adios24core6Stream7GetStepEv
libadios2_core.so.2:_ZN6adios24core6Stream9CheckOpenEv
libadios2_core.so.2:_ZN6adios24core6StreamC1ERKNSt7__cxx1112basic_stringIcSt11char_traitsIcESaIcEEENS_4ModeENS_6helper4CommES7_S7_
libadios2_core.so.2:_ZN6adios24core6StreamC1ERKNSt7__cxx1112basic_stringIcSt11char_traitsIcESaIcEEENS_4ModeENS_6helper4CommES7_S7_S7_
libadios2_core.so.2:_ZN6adios24core6StreamC1ERKNSt7__cxx1112basic_stringIcSt11char_traitsIcESaIcEEENS_4ModeES7_S7_
libadios2_core.so.2:_ZN6adios24core6StreamC1ERKNSt7__cxx1112basic_stringIcSt11char_traitsIcESaIcEEENS_4ModeES7_S7_S7_
libadios2_core.so.2:_ZN6adios24core6StreamC2ERKNSt7__cxx1112basic_stringIcSt11char_traitsIcESaIcEEENS_4ModeENS_6helper4CommES7_S7_
libadios2_core.so.2:_ZN6adios24core6StreamC2ERKNSt7__cxx1112basic_stringIcSt11char_traitsIcESaIcEEENS_4ModeENS_6helper4CommES7_S7_S7_
libadios2_core.so.2:_ZN6adios24core6StreamC2ERKNSt7__cxx1112basic_stringIcSt11char_traitsIcESaIcEEENS_4ModeES7_S7_
libadios2_core.so.2:_ZN6adios24core6StreamC2ERKNSt7__cxx1112basic_stringIcSt11char_traitsIcESaIcEEENS_4ModeES7_S7_S7_
libadios2_core.so.2:_ZN6adios24core6engine10NullEngine7DoCloseEi
libadios2_core.so.2:_ZN6adios24core6engine10NullEngineC1ERNS0_2IOERKNSt7__cxx1112basic_stringIcSt11char_traitsIcESaIcEEENS_4ModeENS_6helper4CommE
libadios2_core.so.2:_ZN6adios24core6engine10NullEngineC2ERNS0_2IOERKNSt7__cxx1112basic_stringIcSt11char_traitsIcESaIcEEENS_4ModeENS_6helper4CommE
libadios2_core.so.2:_ZN6adios24core6engine11HDF5ReaderP11PerformGetsEv
libadios2_core.so.2:_ZN6adios24core6engine11HDF5ReaderP13DoGetDeferredERNS0_8VariableINSt7__cxx1112basic_stringIcSt11char_traitsIcESaIcEEEEEPS9_
libadios2_core.so.2:_ZN6adios24core6engine11HDF5ReaderP13DoGetDeferredERNS0_8VariableISt7complexIdEEEPS5_
libadios2_core.so.2:_ZN6adios24core6engine11HDF5ReaderP13DoGetDeferredERNS0_8VariableISt7complexIfEEEPS5_
libadios2_core.so.2:_ZN6adios24core6engine11HDF5ReaderP13DoGetDeferredERNS0_8VariableIaEEPa
libadios2_core.so.2:_ZN6adios24core6engine11HDF5ReaderP13DoGetDeferredERNS0_8VariableIdEEPd
libadios2_core.so.2:_ZN6adios24core6engine11HDF5ReaderP13DoGetDeferredERNS0_8VariableIeEEPe
libadios2_core.so.2:_ZN6adios24core6engine11HDF5ReaderP13DoGetDeferredERNS0_8VariableIfEEPf
libadios2_core.so.2:_ZN6adios24core6engine11HDF5ReaderP13DoGetDeferredERNS0_8VariableIhEEPh
libadios2_core.so.2:_ZN6adios24core6engine11HDF5ReaderP13DoGetDeferredERNS0_8VariableIiEEPi
libadios2_core.so.2:_ZN6adios24core6engine11HDF5ReaderP13DoGetDeferredERNS0_8VariableIjEEPj
libadios2_core.so.2:_ZN6adios24core6engine11HDF5ReaderP13DoGetDeferredERNS0_8VariableIlEEPl
libadios2_core.so.2:_ZN6adios24core6engine11HDF5ReaderP13DoGetDeferredERNS0_8VariableImEEPm
libadios2_core.so.2:_ZN6adios24core6engine11HDF5ReaderP13DoGetDeferredERNS0_8VariableIsEEPs
libadios2_core.so.2:_ZN6adios24core6engine11HDF5ReaderP13DoGetDeferredERNS0_8VariableItEEPt
libadios2_core.so.2:_ZN6adios24core6engine11HDF5ReaderP4InitEv
libadios2_core.so.2:_ZN6adios24core6engine11HDF5ReaderP7DoCloseEi
libadios2_core.so.2:_ZN6adios24core6engine11HDF5ReaderP7EndStepEv
libadios2_core.so.2:_ZN6adios24core6engine11HDF5ReaderP7IsValidEv
libadios2_core.so.2:_ZN6adios24core6engine11HDF5ReaderP9BeginStepENS_8StepModeEf
libadios2_core.so.2:_ZN6adios24core6engine11HDF5ReaderP9DoGetSyncERNS0_8VariableINSt7__cxx1112basic_stringIcSt11char_traitsIcESaIcEEEEEPS9_
libadios2_core.so.2:_ZN6adios24core6engine11HDF5ReaderP9DoGetSyncERNS0_8VariableISt7complexIdEEEPS5_
libadios2_core.so.2:_ZN6adios24core6engine11HDF5ReaderP9DoGetSyncERNS0_8VariableISt7complexIfEEEPS5_
libadios2_core.so.2:_ZN6adios24core6engine11HDF5ReaderP9DoGetSyncERNS0_8VariableIaEEPa
libadios2_core.so.2:_ZN6adios24core6engine11HDF5ReaderP9DoGetSyncERNS0_8VariableIdEEPd
libadios2_core.so.2:_ZN6adios24core6engine11HDF5ReaderP9DoGetSyncERNS0_8VariableIeEEPe
libadios2_core.so.2:_ZN6adios24core6engine11HDF5ReaderP9DoGetSyncERNS0_8VariableIfEEPf
libadios2_core.so.2:_ZN6adios24core6engine11HDF5ReaderP9DoGetSyncERNS0_8VariableIhEEPh
libadios2_core.so.2:_ZN6adios24core6engine11HDF5ReaderP9DoGetSyncERNS0_8VariableIiEEPi
libadios2_core.so.2:_ZN6adios24core6engine11HDF5ReaderP9DoGetSyncERNS0_8VariableIjEEPj
libadios2_core.so.2:_ZN6adios24core6engine11HDF5ReaderP9DoGetSyncERNS0_8VariableIlEEPl
libadios2_core.so.2:_ZN6adios24core6engine11HDF5ReaderP9DoGetSyncERNS0_8VariableImEEPm
libadios2_core.so.2:_ZN6adios24core6engine11HDF5ReaderP9DoGetSyncERNS0_8VariableIsEEPs
libadios2_core.so.2:_ZN6adios24core6engine11HDF5ReaderP9DoGetSyncERNS0_8VariableItEEPt
libadios2_core.so.2:_ZN6adios24core6engine11HDF5ReaderPC1ERNS0_2IOERKNSt7__cxx1112basic_stringIcSt11char_traitsIcESaIcEEENS_4ModeENS_6helper4CommE
libadios2_core.so.2:_ZN6adios24core6engine11HDF5ReaderPC2ERNS0_2IOERKNSt7__cxx1112basic_stringIcSt11char_traitsIcESaIcEEENS_4ModeENS_6helper4CommE
libadios2_core.so.2:_ZN6adios24core6engine11HDF5ReaderPD0Ev
libadios2_core.so.2:_ZN6adios24core6engine11HDF5ReaderPD1Ev
libadios2_core.so.2:_ZN6adios24core6engine11HDF5ReaderPD2Ev
libadios2_core.so.2:_ZN6adios24core6engine11HDF5WriterP11PerformPutsEv
libadios2_core.so.2:_ZN6adios24core6engine11HDF5WriterP13DoPutDeferredERNS0_8VariableINSt7__cxx1112basic_stringIcSt11char_traitsIcESaIcEEEEEPKS9_
libadios2_core.so.2:_ZN6adios24core6engine11HDF5WriterP13DoPutDeferredERNS0_8VariableISt7complexIdEEEPKS5_
libadios2_core.so.2:_ZN6adios24core6engine11HDF5WriterP13DoPutDeferredERNS0_8VariableISt7complexIfEEEPKS5_
libadios2_core.so.2:_ZN6adios24core6engine11HDF5WriterP13DoPutDeferredERNS0_8VariableIaEEPKa
libadios2_core.so.2:_ZN6adios24core6engine11HDF5WriterP13DoPutDeferredERNS0_8VariableIdEEPKd
libadios2_core.so.2:_ZN6adios24core6engine11HDF5WriterP13DoPutDeferredERNS0_8VariableIeEEPKe
libadios2_core.so.2:_ZN6adios24core6engine11HDF5WriterP13DoPutDeferredERNS0_8VariableIfEEPKf
libadios2_core.so.2:_ZN6adios24core6engine11HDF5WriterP13DoPutDeferredERNS0_8VariableIhEEPKh
libadios2_core.so.2:_ZN6adios24core6engine11HDF5WriterP13DoPutDeferredERNS0_8VariableIiEEPKi
libadios2_core.so.2:_ZN6adios24core6engine11HDF5WriterP13DoPutDeferredERNS0_8VariableIjEEPKj
libadios2_core.so.2:_ZN6adios24core6engine11HDF5WriterP13DoPutDeferredERNS0_8VariableIlEEPKl
libadios2_core.so.2:_ZN6adios24core6engine11HDF5WriterP13DoPutDeferredERNS0_8VariableImEEPKm
libadios2_core.so.2:_ZN6adios24core6engine11HDF5WriterP13DoPutDeferredERNS0_8VariableIsEEPKs
libadios2_core.so.2:_ZN6adios24core6engine11HDF5WriterP13DoPutDeferredERNS0_8VariableItEEPKt
libadios2_core.so.2:_ZN6adios24core6engine11HDF5WriterP4InitEv
libadios2_core.so.2:_ZN6adios24core6engine11HDF5WriterP5FlushEi
libadios2_core.so.2:_ZN6adios24core6engine11HDF5WriterP7DoCloseEi
libadios2_core.so.2:_ZN6adios24core6engine11HDF5WriterP7EndStepEv
libadios2_core.so.2:_ZN6adios24core6engine11HDF5WriterP9BeginStepENS_8StepModeEf
libadios2_core.so.2:_ZN6adios24core6engine11HDF5WriterP9DoPutSyncERNS0_8VariableINSt7__cxx1112basic_stringIcSt11char_traitsIcESaIcEEEEEPKS9_
libadios2_core.so.2:_ZN6adios24core6engine11HDF5WriterP9DoPutSyncERNS0_8VariableISt7complexIdEEEPKS5_
libadios2_core.so.2:_ZN6adios24core6engine11HDF5WriterP9DoPutSyncERNS0_8VariableISt7complexIfEEEPKS5_
libadios2_core.so.2:_ZN6adios24core6engine11HDF5WriterP9DoPutSyncERNS0_8VariableIaEEPKa
libadios2_core.so.2:_ZN6adios24core6engine11HDF5WriterP9DoPutSyncERNS0_8VariableIdEEPKd
libadios2_core.so.2:_ZN6adios24core6engine11HDF5WriterP9DoPutSyncERNS0_8VariableIeEEPKe
libadios2_core.so.2:_ZN6adios24core6engine11HDF5WriterP9DoPutSyncERNS0_8VariableIfEEPKf
libadios2_core.so.2:_ZN6adios24core6engine11HDF5WriterP9DoPutSyncERNS0_8VariableIhEEPKh
libadios2_core.so.2:_ZN6adios24core6engine11HDF5WriterP9DoPutSyncERNS0_8VariableIiEEPKi
libadios2_core.so.2:_ZN6adios24core6engine11HDF5WriterP9DoPutSyncERNS0_8VariableIjEEPKj
libadios2_core.so.2:_ZN6adios24core6engine11HDF5WriterP9DoPutSyncERNS0_8VariableIlEEPKl
libadios2_core.so.2:_ZN6adios24core6engine11HDF5WriterP9DoPutSyncERNS0_8VariableImEEPKm
libadios2_core.so.2:_ZN6adios24core6engine11HDF5WriterP9DoPutSyncERNS0_8VariableIsEEPKs
libadios2_core.so.2:_ZN6adios24core6engine11HDF5WriterP9DoPutSyncERNS0_8VariableItEEPKt
libadios2_core.so.2:_ZN6adios24core6engine11HDF5WriterPC1ERNS0_2IOERKNSt7__cxx1112basic_stringIcSt11char_traitsIcESaIcEEENS_4ModeENS_6helper4CommE
libadios2_core.so.2:_ZN6adios24core6engine11HDF5WriterPC2ERNS0_2IOERKNSt7__cxx1112basic_stringIcSt11char_traitsIcESaIcEEENS_4ModeENS_6helper4CommE
libadios2_core.so.2:_ZN6adios24core6engine11HDF5WriterPD0Ev
libadios2_core.so.2:_ZN6adios24core6engine11HDF5WriterPD1Ev
libadios2_core.so.2:_ZN6adios24core6engine11HDF5WriterPD2Ev
libadios2_core.so.2:_ZN6adios24core6engine11TableWriter11PerformPutsEv
libadios2_core.so.2:_ZN6adios24core6engine11TableWriter11ReplyThreadEv
libadios2_core.so.2:_ZN6adios24core6engine11TableWriter12PutSubEngineEb
libadios2_core.so.2:_ZN6adios24core6engine11TableWriter13DoPutDeferredERNS0_8VariableINSt7__cxx1112basic_stringIcSt11char_traitsIcESaIcEEEEEPKS9_
libadios2_core.so.2:_ZN6adios24core6engine11TableWriter13DoPutDeferredERNS0_8VariableISt7complexIdEEEPKS5_
libadios2_core.so.2:_ZN6adios24core6engine11TableWriter13DoPutDeferredERNS0_8VariableISt7complexIfEEEPKS5_
libadios2_core.so.2:_ZN6adios24core6engine11TableWriter13DoPutDeferredERNS0_8VariableIaEEPKa
libadios2_core.so.2:_ZN6adios24core6engine11TableWriter13DoPutDeferredERNS0_8VariableIdEEPKd
libadios2_core.so.2:_ZN6adios24core6engine11TableWriter13DoPutDeferredERNS0_8VariableIeEEPKe
libadios2_core.so.2:_ZN6adios24core6engine11TableWriter13DoPutDeferredERNS0_8VariableIfEEPKf
libadios2_core.so.2:_ZN6adios24core6engine11TableWriter13DoPutDeferredERNS0_8VariableIhEEPKh
libadios2_core.so.2:_ZN6adios24core6engine11TableWriter13DoPutDeferredERNS0_8VariableIiEEPKi
libadios2_core.so.2:_ZN6adios24core6engine11TableWriter13DoPutDeferredERNS0_8VariableIjEEPKj
libadios2_core.so.2:_ZN6adios24core6engine11TableWriter13DoPutDeferredERNS0_8VariableIlEEPKl
libadios2_core.so.2:_ZN6adios24core6engine11TableWriter13DoPutDeferredERNS0_8VariableImEEPKm
libadios2_core.so.2:_ZN6adios24core6engine11TableWriter13DoPutDeferredERNS0_8VariableIsEEPKs
libadios2_core.so.2:_ZN6adios24core6engine11TableWriter13DoPutDeferredERNS0_8VariableItEEPKt
libadios2_core.so.2:_ZN6adios24core6engine11TableWriter13PutSyncCommonINSt7__cxx1112basic_stringIcSt11char_traitsIcESaIcEEEEEvRNS0_8VariableIT_EEPKSB_
libadios2_core.so.2:_ZN6adios24core6engine11TableWriter14InitParametersEv
libadios2_core.so.2:_ZN6adios24core6engine11TableWriter14InitTransportsEv
libadios2_core.so.2:_ZN6adios24core6engine11TableWriter15WhatBufferIndexEm
libadios2_core.so.2:_ZN6adios24core6engine11TableWriter17PutDeferredCommonINSt7__cxx1112basic_stringIcSt11char_traitsIcESaIcEEEEEvRNS0_8VariableIT_EEPKSB_
libadios2_core.so.2:_ZN6adios24core6engine11TableWriter17WhatBufferIndicesERKSt6vectorImSaImEES7_
libadios2_core.so.2:_ZN6adios24core6engine11TableWriter19PutAggregatorBufferEv
libadios2_core.so.2:_ZN6adios24core6engine11TableWriter21WhatAggregatorIndicesERKSt6vectorImSaImEES7_
libadios2_core.so.2:_ZN6adios24core6engine11TableWriter23WhatAggregatorAddressesB5cxx11ERKSt6vectorIiSaIiEE
libadios2_core.so.2:_ZN6adios24core6engine11TableWriter23WhatAggregatorAddressesB5cxx11ERKSt6vectorImSaImEES7_
libadios2_core.so.2:_ZN6adios24core6engine11TableWriter4InitEv
libadios2_core.so.2:_ZN6adios24core6engine11TableWriter5FlushEi
libadios2_core.so.2:_ZN6adios24core6engine11TableWriter7DoCloseEi
libadios2_core.so.2:_ZN6adios24core6engine11TableWriter7EndStepEv
libadios2_core.so.2:_ZN6adios24core6engine11TableWriter9BeginStepENS_8StepModeEf
libadios2_core.so.2:_ZN6adios24core6engine11TableWriter9DoPutSyncERNS0_8VariableINSt7__cxx1112basic_stringIcSt11char_traitsIcESaIcEEEEEPKS9_
libadios2_core.so.2:_ZN6adios24core6engine11TableWriter9DoPutSyncERNS0_8VariableISt7complexIdEEEPKS5_
libadios2_core.so.2:_ZN6adios24core6engine11TableWriter9DoPutSyncERNS0_8VariableISt7complexIfEEEPKS5_
libadios2_core.so.2:_ZN6adios24core6engine11TableWriter9DoPutSyncERNS0_8VariableIaEEPKa
libadios2_core.so.2:_ZN6adios24core6engine11TableWriter9DoPutSyncERNS0_8VariableIdEEPKd
libadios2_core.so.2:_ZN6adios24core6engine11TableWriter9DoPutSyncERNS0_8VariableIeEEPKe
libadios2_core.so.2:_ZN6adios24core6engine11TableWriter9DoPutSyncERNS0_8VariableIfEEPKf
libadios2_core.so.2:_ZN6adios24core6engine11TableWriter9DoPutSyncERNS0_8VariableIhEEPKh
libadios2_core.so.2:_ZN6adios24core6engine11TableWriter9DoPutSyncERNS0_8VariableIiEEPKi
libadios2_core.so.2:_ZN6adios24core6engine11TableWriter9DoPutSyncERNS0_8VariableIjEEPKj
libadios2_core.so.2:_ZN6adios24core6engine11TableWriter9DoPutSyncERNS0_8VariableIlEEPKl
libadios2_core.so.2:_ZN6adios24core6engine11TableWriter9DoPutSyncERNS0_8VariableImEEPKm
libadios2_core.so.2:_ZN6adios24core6engine11TableWriter9DoPutSyncERNS0_8VariableIsEEPKs
libadios2_core.so.2:_ZN6adios24core6engine11TableWriter9DoPutSyncERNS0_8VariableItEEPKt
libadios2_core.so.2:_ZN6adios24core6engine11TableWriter9WhatCountERKSt6vectorImSaImEEm
libadios2_core.so.2:_ZN6adios24core6engine11TableWriter9WhatStartERKSt6vectorImSaImEEm
libadios2_core.so.2:_ZN6adios24core6engine11TableWriterC1ERNS0_2IOERKNSt7__cxx1112basic_stringIcSt11char_traitsIcESaIcEEENS_4ModeENS_6helper4CommE
libadios2_core.so.2:_ZN6adios24core6engine11TableWriterC2ERNS0_2IOERKNSt7__cxx1112basic_stringIcSt11char_traitsIcESaIcEEENS_4ModeENS_6helper4CommE
libadios2_core.so.2:_ZN6adios24core6engine11TableWriterD0Ev
libadios2_core.so.2:_ZN6adios24core6engine11TableWriterD1Ev
libadios2_core.so.2:_ZN6adios24core6engine11TableWriterD2Ev
libadios2_core.so.2:_ZN6adios24core6engine12InlineReader11PerformGetsEv
libadios2_core.so.2:_ZN6adios24core6engine12InlineReader13DoGetDeferredERNS0_8VariableINSt7__cxx1112basic_stringIcSt11char_traitsIcESaIcEEEEEPS9_
libadios2_core.so.2:_ZN6adios24core6engine12InlineReader13DoGetDeferredERNS0_8VariableISt7complexIdEEEPS5_
libadios2_core.so.2:_ZN6adios24core6engine12InlineReader13DoGetDeferredERNS0_8VariableISt7complexIfEEEPS5_
libadios2_core.so.2:_ZN6adios24core6engine12InlineReader13DoGetDeferredERNS0_8VariableIaEEPa
libadios2_core.so.2:_ZN6adios24core6engine12InlineReader13DoGetDeferredERNS0_8VariableIdEEPd
libadios2_core.so.2:_ZN6adios24core6engine12InlineReader13DoGetDeferredERNS0_8VariableIeEEPe
libadios2_core.so.2:_ZN6adios24core6engine12InlineReader13DoGetDeferredERNS0_8VariableIfEEPf
libadios2_core.so.2:_ZN6adios24core6engine12InlineReader13DoGetDeferredERNS0_8VariableIhEEPh
libadios2_core.so.2:_ZN6adios24core6engine12InlineReader13DoGetDeferredERNS0_8VariableIiEEPi
libadios2_core.so.2:_ZN6adios24core6engine12InlineReader13DoGetDeferredERNS0_8VariableIjEEPj
libadios2_core.so.2:_ZN6adios24core6engine12InlineReader13DoGetDeferredERNS0_8VariableIlEEPl
libadios2_core.so.2:_ZN6adios24core6engine12InlineReader13DoGetDeferredERNS0_8VariableImEEPm
libadios2_core.so.2:_ZN6adios24core6engine12InlineReader13DoGetDeferredERNS0_8VariableIsEEPs
libadios2_core.so.2:_ZN6adios24core6engine12InlineReader13DoGetDeferredERNS0_8VariableItEEPt
libadios2_core.so.2:_ZN6adios24core6engine12InlineReader14DoGetBlockSyncERNS0_8VariableINSt7__cxx1112basic_stringIcSt11char_traitsIcESaIcEEEEE
libadios2_core.so.2:_ZN6adios24core6engine12InlineReader14DoGetBlockSyncERNS0_8VariableISt7complexIdEEE
libadios2_core.so.2:_ZN6adios24core6engine12InlineReader14DoGetBlockSyncERNS0_8VariableISt7complexIfEEE
libadios2_core.so.2:_ZN6adios24core6engine12InlineReader14DoGetBlockSyncERNS0_8VariableIaEE
libadios2_core.so.2:_ZN6adios24core6engine12InlineReader14DoGetBlockSyncERNS0_8VariableIdEE
libadios2_core.so.2:_ZN6adios24core6engine12InlineReader14DoGetBlockSyncERNS0_8VariableIeEE
libadios2_core.so.2:_ZN6adios24core6engine12InlineReader14DoGetBlockSyncERNS0_8VariableIfEE
libadios2_core.so.2:_ZN6adios24core6engine12InlineReader14DoGetBlockSyncERNS0_8VariableIhEE
libadios2_core.so.2:_ZN6adios24core6engine12InlineReader14DoGetBlockSyncERNS0_8VariableIiEE
libadios2_core.so.2:_ZN6adios24core6engine12InlineReader14DoGetBlockSyncERNS0_8VariableIjEE
libadios2_core.so.2:_ZN6adios24core6engine12InlineReader14DoGetBlockSyncERNS0_8VariableIlEE
libadios2_core.so.2:_ZN6adios24core6engine12InlineReader14DoGetBlockSyncERNS0_8VariableImEE
libadios2_core.so.2:_ZN6adios24core6engine12InlineReader14DoGetBlockSyncERNS0_8VariableIsEE
libadios2_core.so.2:_ZN6adios24core6engine12InlineReader14DoGetBlockSyncERNS0_8VariableItEE
libadios2_core.so.2:_ZN6adios24core6engine12InlineReader14InitParametersEv
libadios2_core.so.2:_ZN6adios24core6engine12InlineReader14InitTransportsEv
libadios2_core.so.2:_ZN6adios24core6engine12InlineReader18DoGetBlockDeferredERNS0_8VariableINSt7__cxx1112basic_stringIcSt11char_traitsIcESaIcEEEEE
libadios2_core.so.2:_ZN6adios24core6engine12InlineReader18DoGetBlockDeferredERNS0_8VariableISt7complexIdEEE
libadios2_core.so.2:_ZN6adios24core6engine12InlineReader18DoGetBlockDeferredERNS0_8VariableISt7complexIfEEE
libadios2_core.so.2:_ZN6adios24core6engine12InlineReader18DoGetBlockDeferredERNS0_8VariableIaEE
libadios2_core.so.2:_ZN6adios24core6engine12InlineReader18DoGetBlockDeferredERNS0_8VariableIdEE
libadios2_core.so.2:_ZN6adios24core6engine12InlineReader18DoGetBlockDeferredERNS0_8VariableIeEE
libadios2_core.so.2:_ZN6adios24core6engine12InlineReader18DoGetBlockDeferredERNS0_8VariableIfEE
libadios2_core.so.2:_ZN6adios24core6engine12InlineReader18DoGetBlockDeferredERNS0_8VariableIhEE
libadios2_core.so.2:_ZN6adios24core6engine12InlineReader18DoGetBlockDeferredERNS0_8VariableIiEE
libadios2_core.so.2:_ZN6adios24core6engine12InlineReader18DoGetBlockDeferredERNS0_8VariableIjEE
libadios2_core.so.2:_ZN6adios24core6engine12InlineReader18DoGetBlockDeferredERNS0_8VariableIlEE
libadios2_core.so.2:_ZN6adios24core6engine12InlineReader18DoGetBlockDeferredERNS0_8VariableImEE
libadios2_core.so.2:_ZN6adios24core6engine12InlineReader18DoGetBlockDeferredERNS0_8VariableIsEE
libadios2_core.so.2:_ZN6adios24core6engine12InlineReader18DoGetBlockDeferredERNS0_8VariableItEE
libadios2_core.so.2:_ZN6adios24core6engine12InlineReader27SetDeferredVariablePointersEv
libadios2_core.so.2:_ZN6adios24core6engine12InlineReader4InitEv
libadios2_core.so.2:_ZN6adios24core6engine12InlineReader7DoCloseEi
libadios2_core.so.2:_ZN6adios24core6engine12InlineReader7EndStepEv
libadios2_core.so.2:_ZN6adios24core6engine12InlineReader9BeginStepENS_8StepModeEf
libadios2_core.so.2:_ZN6adios24core6engine12InlineReader9DoGetSyncERNS0_8VariableINSt7__cxx1112basic_stringIcSt11char_traitsIcESaIcEEEEEPS9_
libadios2_core.so.2:_ZN6adios24core6engine12InlineReader9DoGetSyncERNS0_8VariableISt7complexIdEEEPS5_
libadios2_core.so.2:_ZN6adios24core6engine12InlineReader9DoGetSyncERNS0_8VariableISt7complexIfEEEPS5_
libadios2_core.so.2:_ZN6adios24core6engine12InlineReader9DoGetSyncERNS0_8VariableIaEEPa
libadios2_core.so.2:_ZN6adios24core6engine12InlineReader9DoGetSyncERNS0_8VariableIdEEPd
libadios2_core.so.2:_ZN6adios24core6engine12InlineReader9DoGetSyncERNS0_8VariableIeEEPe
libadios2_core.so.2:_ZN6adios24core6engine12InlineReader9DoGetSyncERNS0_8VariableIfEEPf
libadios2_core.so.2:_ZN6adios24core6engine12InlineReader9DoGetSyncERNS0_8VariableIhEEPh
libadios2_core.so.2:_ZN6adios24core6engine12InlineReader9DoGetSyncERNS0_8VariableIiEEPi
libadios2_core.so.2:_ZN6adios24core6engine12InlineReader9DoGetSyncERNS0_8VariableIjEEPj
libadios2_core.so.2:_ZN6adios24core6engine12InlineReader9DoGetSyncERNS0_8VariableIlEEPl
libadios2_core.so.2:_ZN6adios24core6engine12InlineReader9DoGetSyncERNS0_8VariableImEEPm
libadios2_core.so.2:_ZN6adios24core6engine12InlineReader9DoGetSyncERNS0_8VariableIsEEPs
libadios2_core.so.2:_ZN6adios24core6engine12InlineReader9DoGetSyncERNS0_8VariableItEEPt
libadios2_core.so.2:_ZN6adios24core6engine12InlineReaderC1ERNS0_2IOERKNSt7__cxx1112basic_stringIcSt11char_traitsIcESaIcEEENS_4ModeENS_6helper4CommE
libadios2_core.so.2:_ZN6adios24core6engine12InlineReaderC2ERNS0_2IOERKNSt7__cxx1112basic_stringIcSt11char_traitsIcESaIcEEENS_4ModeENS_6helper4CommE
libadios2_core.so.2:_ZN6adios24core6engine12InlineWriter11PerformPutsEv
libadios2_core.so.2:_ZN6adios24core6engine12InlineWriter13DoPutDeferredERNS0_8VariableINSt7__cxx1112basic_stringIcSt11char_traitsIcESaIcEEEEEPKS9_
libadios2_core.so.2:_ZN6adios24core6engine12InlineWriter13DoPutDeferredERNS0_8VariableISt7complexIdEEEPKS5_
libadios2_core.so.2:_ZN6adios24core6engine12InlineWriter13DoPutDeferredERNS0_8VariableISt7complexIfEEEPKS5_
libadios2_core.so.2:_ZN6adios24core6engine12InlineWriter13DoPutDeferredERNS0_8VariableIaEEPKa
libadios2_core.so.2:_ZN6adios24core6engine12InlineWriter13DoPutDeferredERNS0_8VariableIdEEPKd
libadios2_core.so.2:_ZN6adios24core6engine12InlineWriter13DoPutDeferredERNS0_8VariableIeEEPKe
libadios2_core.so.2:_ZN6adios24core6engine12InlineWriter13DoPutDeferredERNS0_8VariableIfEEPKf
libadios2_core.so.2:_ZN6adios24core6engine12InlineWriter13DoPutDeferredERNS0_8VariableIhEEPKh
libadios2_core.so.2:_ZN6adios24core6engine12InlineWriter13DoPutDeferredERNS0_8VariableIiEEPKi
libadios2_core.so.2:_ZN6adios24core6engine12InlineWriter13DoPutDeferredERNS0_8VariableIjEEPKj
libadios2_core.so.2:_ZN6adios24core6engine12InlineWriter13DoPutDeferredERNS0_8VariableIlEEPKl
libadios2_core.so.2:_ZN6adios24core6engine12InlineWriter13DoPutDeferredERNS0_8VariableImEEPKm
libadios2_core.so.2:_ZN6adios24core6engine12InlineWriter13DoPutDeferredERNS0_8VariableIsEEPKs
libadios2_core.so.2:_ZN6adios24core6engine12InlineWriter13DoPutDeferredERNS0_8VariableItEEPKt
libadios2_core.so.2:_ZN6adios24core6engine12InlineWriter14InitParametersEv
libadios2_core.so.2:_ZN6adios24core6engine12InlineWriter14InitTransportsEv
libadios2_core.so.2:_ZN6adios24core6engine12InlineWriter14ResetVariablesEv
libadios2_core.so.2:_ZN6adios24core6engine12InlineWriter4InitEv
libadios2_core.so.2:_ZN6adios24core6engine12InlineWriter5FlushEi
libadios2_core.so.2:_ZN6adios24core6engine12InlineWriter7DoCloseEi
libadios2_core.so.2:_ZN6adios24core6engine12InlineWriter7EndStepEv
libadios2_core.so.2:_ZN6adios24core6engine12InlineWriter9BeginStepENS_8StepModeEf
libadios2_core.so.2:_ZN6adios24core6engine12InlineWriter9DoPutSyncERNS0_8VariableINSt7__cxx1112basic_stringIcSt11char_traitsIcESaIcEEEEEPKS9_
libadios2_core.so.2:_ZN6adios24core6engine12InlineWriter9DoPutSyncERNS0_8VariableISt7complexIdEEEPKS5_
libadios2_core.so.2:_ZN6adios24core6engine12InlineWriter9DoPutSyncERNS0_8VariableISt7complexIfEEEPKS5_
libadios2_core.so.2:_ZN6adios24core6engine12InlineWriter9DoPutSyncERNS0_8VariableIaEEPKa
libadios2_core.so.2:_ZN6adios24core6engine12InlineWriter9DoPutSyncERNS0_8VariableIdEEPKd
libadios2_core.so.2:_ZN6adios24core6engine12InlineWriter9DoPutSyncERNS0_8VariableIeEEPKe
libadios2_core.so.2:_ZN6adios24core6engine12InlineWriter9DoPutSyncERNS0_8VariableIfEEPKf
libadios2_core.so.2:_ZN6adios24core6engine12InlineWriter9DoPutSyncERNS0_8VariableIhEEPKh
libadios2_core.so.2:_ZN6adios24core6engine12InlineWriter9DoPutSyncERNS0_8VariableIiEEPKi
libadios2_core.so.2:_ZN6adios24core6engine12InlineWriter9DoPutSyncERNS0_8VariableIjEEPKj
libadios2_core.so.2:_ZN6adios24core6engine12InlineWriter9DoPutSyncERNS0_8VariableIlEEPKl
libadios2_core.so.2:_ZN6adios24core6engine12InlineWriter9DoPutSyncERNS0_8VariableImEEPKm
libadios2_core.so.2:_ZN6adios24core6engine12InlineWriter9DoPutSyncERNS0_8VariableIsEEPKs
libadios2_core.so.2:_ZN6adios24core6engine12InlineWriter9DoPutSyncERNS0_8VariableItEEPKt
libadios2_core.so.2:_ZN6adios24core6engine12InlineWriterC1ERNS0_2IOERKNSt7__cxx1112basic_stringIcSt11char_traitsIcESaIcEEENS_4ModeENS_6helper4CommE
libadios2_core.so.2:_ZN6adios24core6engine12InlineWriterC2ERNS0_2IOERKNSt7__cxx1112basic_stringIcSt11char_traitsIcESaIcEEENS_4ModeENS_6helper4CommE
libadios2_core.so.2:_ZN6adios24core6engine13DataManReader11PerformGetsEv
libadios2_core.so.2:_ZN6adios24core6engine13DataManReader13DoGetDeferredERNS0_8VariableINSt7__cxx1112basic_stringIcSt11char_traitsIcESaIcEEEEEPS9_
libadios2_core.so.2:_ZN6adios24core6engine13DataManReader13DoGetDeferredERNS0_8VariableISt7complexIdEEEPS5_
libadios2_core.so.2:_ZN6adios24core6engine13DataManReader13DoGetDeferredERNS0_8VariableISt7complexIfEEEPS5_
libadios2_core.so.2:_ZN6adios24core6engine13DataManReader13DoGetDeferredERNS0_8VariableIaEEPa
libadios2_core.so.2:_ZN6adios24core6engine13DataManReader13DoGetDeferredERNS0_8VariableIdEEPd
libadios2_core.so.2:_ZN6adios24core6engine13DataManReader13DoGetDeferredERNS0_8VariableIeEEPe
libadios2_core.so.2:_ZN6adios24core6engine13DataManReader13DoGetDeferredERNS0_8VariableIfEEPf
libadios2_core.so.2:_ZN6adios24core6engine13DataManReader13DoGetDeferredERNS0_8VariableIhEEPh
libadios2_core.so.2:_ZN6adios24core6engine13DataManReader13DoGetDeferredERNS0_8VariableIiEEPi
libadios2_core.so.2:_ZN6adios24core6engine13DataManReader13DoGetDeferredERNS0_8VariableIjEEPj
libadios2_core.so.2:_ZN6adios24core6engine13DataManReader13DoGetDeferredERNS0_8VariableIlEEPl
libadios2_core.so.2:_ZN6adios24core6engine13DataManReader13DoGetDeferredERNS0_8VariableImEEPm
libadios2_core.so.2:_ZN6adios24core6engine13DataManReader13DoGetDeferredERNS0_8VariableIsEEPs
libadios2_core.so.2:_ZN6adios24core6engine13DataManReader13DoGetDeferredERNS0_8VariableItEEPt
libadios2_core.so.2:_ZN6adios24core6engine13DataManReader13RequestThreadERNS_3zmq9ZmqReqRepE
libadios2_core.so.2:_ZN6adios24core6engine13DataManReader15SubscribeThreadERNS_3zmq9ZmqPubSubE
libadios2_core.so.2:_ZN6adios24core6engine13DataManReader5FlushEi
libadios2_core.so.2:_ZN6adios24core6engine13DataManReader7DoCloseEi
libadios2_core.so.2:_ZN6adios24core6engine13DataManReader7EndStepEv
libadios2_core.so.2:_ZN6adios24core6engine13DataManReader9BeginStepENS_8StepModeEf
libadios2_core.so.2:_ZN6adios24core6engine13DataManReader9DoGetSyncERNS0_8VariableINSt7__cxx1112basic_stringIcSt11char_traitsIcESaIcEEEEEPS9_
libadios2_core.so.2:_ZN6adios24core6engine13DataManReader9DoGetSyncERNS0_8VariableISt7complexIdEEEPS5_
libadios2_core.so.2:_ZN6adios24core6engine13DataManReader9DoGetSyncERNS0_8VariableISt7complexIfEEEPS5_
libadios2_core.so.2:_ZN6adios24core6engine13DataManReader9DoGetSyncERNS0_8VariableIaEEPa
libadios2_core.so.2:_ZN6adios24core6engine13DataManReader9DoGetSyncERNS0_8VariableIdEEPd
libadios2_core.so.2:_ZN6adios24core6engine13DataManReader9DoGetSyncERNS0_8VariableIeEEPe
libadios2_core.so.2:_ZN6adios24core6engine13DataManReader9DoGetSyncERNS0_8VariableIfEEPf
libadios2_core.so.2:_ZN6adios24core6engine13DataManReader9DoGetSyncERNS0_8VariableIhEEPh
libadios2_core.so.2:_ZN6adios24core6engine13DataManReader9DoGetSyncERNS0_8VariableIiEEPi
libadios2_core.so.2:_ZN6adios24core6engine13DataManReader9DoGetSyncERNS0_8VariableIjEEPj
libadios2_core.so.2:_ZN6adios24core6engine13DataManReader9DoGetSyncERNS0_8VariableIlEEPl
libadios2_core.so.2:_ZN6adios24core6engine13DataManReader9DoGetSyncERNS0_8VariableImEEPm
libadios2_core.so.2:_ZN6adios24core6engine13DataManReader9DoGetSyncERNS0_8VariableIsEEPs
libadios2_core.so.2:_ZN6adios24core6engine13DataManReader9DoGetSyncERNS0_8VariableItEEPt
libadios2_core.so.2:_ZN6adios24core6engine13DataManReaderC1ERNS0_2IOERKNSt7__cxx1112basic_stringIcSt11char_traitsIcESaIcEEENS_4ModeENS_6helper4CommE
libadios2_core.so.2:_ZN6adios24core6engine13DataManReaderC2ERNS0_2IOERKNSt7__cxx1112basic_stringIcSt11char_traitsIcESaIcEEENS_4ModeENS_6helper4CommE
libadios2_core.so.2:_ZN6adios24core6engine13DataManReaderD0Ev
libadios2_core.so.2:_ZN6adios24core6engine13DataManReaderD1Ev
libadios2_core.so.2:_ZN6adios24core6engine13DataManReaderD2Ev
libadios2_core.so.2:_ZN6adios24core6engine13DataManWriter11PerformPutsEv
libadios2_core.so.2:_ZN6adios24core6engine13DataManWriter11ReplyThreadEv
libadios2_core.so.2:_ZN6adios24core6engine13DataManWriter13DoPutDeferredERNS0_8VariableINSt7__cxx1112basic_stringIcSt11char_traitsIcESaIcEEEEEPKS9_
libadios2_core.so.2:_ZN6adios24core6engine13DataManWriter13DoPutDeferredERNS0_8VariableISt7complexIdEEEPKS5_
libadios2_core.so.2:_ZN6adios24core6engine13DataManWriter13DoPutDeferredERNS0_8VariableISt7complexIfEEEPKS5_
libadios2_core.so.2:_ZN6adios24core6engine13DataManWriter13DoPutDeferredERNS0_8VariableIaEEPKa
libadios2_core.so.2:_ZN6adios24core6engine13DataManWriter13DoPutDeferredERNS0_8VariableIdEEPKd
libadios2_core.so.2:_ZN6adios24core6engine13DataManWriter13DoPutDeferredERNS0_8VariableIeEEPKe
libadios2_core.so.2:_ZN6adios24core6engine13DataManWriter13DoPutDeferredERNS0_8VariableIfEEPKf
libadios2_core.so.2:_ZN6adios24core6engine13DataManWriter13DoPutDeferredERNS0_8VariableIhEEPKh
libadios2_core.so.2:_ZN6adios24core6engine13DataManWriter13DoPutDeferredERNS0_8VariableIiEEPKi
libadios2_core.so.2:_ZN6adios24core6engine13DataManWriter13DoPutDeferredERNS0_8VariableIjEEPKj
libadios2_core.so.2:_ZN6adios24core6engine13DataManWriter13DoPutDeferredERNS0_8VariableIlEEPKl
libadios2_core.so.2:_ZN6adios24core6engine13DataManWriter13DoPutDeferredERNS0_8VariableImEEPKm
libadios2_core.so.2:_ZN6adios24core6engine13DataManWriter13DoPutDeferredERNS0_8VariableIsEEPKs
libadios2_core.so.2:_ZN6adios24core6engine13DataManWriter13DoPutDeferredERNS0_8VariableItEEPKt
libadios2_core.so.2:_ZN6adios24core6engine13DataManWriter13PublishThreadEv
libadios2_core.so.2:_ZN6adios24core6engine13DataManWriter14PopBufferQueueEv
libadios2_core.so.2:_ZN6adios24core6engine13DataManWriter15PushBufferQueueESt10shared_ptrISt6vectorIcSaIcEEE
libadios2_core.so.2:_ZN6adios24core6engine13DataManWriter5FlushEi
libadios2_core.so.2:_ZN6adios24core6engine13DataManWriter7DoCloseEi
libadios2_core.so.2:_ZN6adios24core6engine13DataManWriter7EndStepEv
libadios2_core.so.2:_ZN6adios24core6engine13DataManWriter9BeginStepENS_8StepModeEf
libadios2_core.so.2:_ZN6adios24core6engine13DataManWriter9DoPutSyncERNS0_8VariableINSt7__cxx1112basic_stringIcSt11char_traitsIcESaIcEEEEEPKS9_
libadios2_core.so.2:_ZN6adios24core6engine13DataManWriter9DoPutSyncERNS0_8VariableISt7complexIdEEEPKS5_
libadios2_core.so.2:_ZN6adios24core6engine13DataManWriter9DoPutSyncERNS0_8VariableISt7complexIfEEEPKS5_
libadios2_core.so.2:_ZN6adios24core6engine13DataManWriter9DoPutSyncERNS0_8VariableIaEEPKa
libadios2_core.so.2:_ZN6adios24core6engine13DataManWriter9DoPutSyncERNS0_8VariableIdEEPKd
libadios2_core.so.2:_ZN6adios24core6engine13DataManWriter9DoPutSyncERNS0_8VariableIeEEPKe
libadios2_core.so.2:_ZN6adios24core6engine13DataManWriter9DoPutSyncERNS0_8VariableIfEEPKf
libadios2_core.so.2:_ZN6adios24core6engine13DataManWriter9DoPutSyncERNS0_8VariableIhEEPKh
libadios2_core.so.2:_ZN6adios24core6engine13DataManWriter9DoPutSyncERNS0_8VariableIiEEPKi
libadios2_core.so.2:_ZN6adios24core6engine13DataManWriter9DoPutSyncERNS0_8VariableIjEEPKj
libadios2_core.so.2:_ZN6adios24core6engine13DataManWriter9DoPutSyncERNS0_8VariableIlEEPKl
libadios2_core.so.2:_ZN6adios24core6engine13DataManWriter9DoPutSyncERNS0_8VariableImEEPKm
libadios2_core.so.2:_ZN6adios24core6engine13DataManWriter9DoPutSyncERNS0_8VariableIsEEPKs
libadios2_core.so.2:_ZN6adios24core6engine13DataManWriter9DoPutSyncERNS0_8VariableItEEPKt
libadios2_core.so.2:_ZN6adios24core6engine13DataManWriterC1ERNS0_2IOERKNSt7__cxx1112basic_stringIcSt11char_traitsIcESaIcEEENS_4ModeENS_6helper4CommE
libadios2_core.so.2:_ZN6adios24core6engine13DataManWriterC2ERNS0_2IOERKNSt7__cxx1112basic_stringIcSt11char_traitsIcESaIcEEENS_4ModeENS_6helper4CommE
libadios2_core.so.2:_ZN6adios24core6engine13DataManWriterD0Ev
libadios2_core.so.2:_ZN6adios24core6engine13DataManWriterD1Ev
libadios2_core.so.2:_ZN6adios24core6engine13DataManWriterD2Ev
libadios2_core.so.2:_ZN6adios24core6engine14DataManMonitor12EndTransportEv
libadios2_core.so.2:_ZN6adios24core6engine14DataManMonitor14BeginTransportEm
libadios2_core.so.2:_ZN6adios24core6engine14DataManMonitor7EndStepEm
libadios2_core.so.2:_ZN6adios24core6engine14DataManMonitor8AddBytesEm
libadios2_core.so.2:_ZN6adios24core6engine14DataManMonitor9BeginStepEm
libadios2_core.so.2:_ZN6adios24core6engine14NullCoreWriter11PerformPutsEv
libadios2_core.so.2:_ZN6adios24core6engine14NullCoreWriter13DoPutDeferredERNS0_8VariableINSt7__cxx1112basic_stringIcSt11char_traitsIcESaIcEEEEEPKS9_
libadios2_core.so.2:_ZN6adios24core6engine14NullCoreWriter13DoPutDeferredERNS0_8VariableISt7complexIdEEEPKS5_
libadios2_core.so.2:_ZN6adios24core6engine14NullCoreWriter13DoPutDeferredERNS0_8VariableISt7complexIfEEEPKS5_
libadios2_core.so.2:_ZN6adios24core6engine14NullCoreWriter13DoPutDeferredERNS0_8VariableIaEEPKa
libadios2_core.so.2:_ZN6adios24core6engine14NullCoreWriter13DoPutDeferredERNS0_8VariableIdEEPKd
libadios2_core.so.2:_ZN6adios24core6engine14NullCoreWriter13DoPutDeferredERNS0_8VariableIeEEPKe
libadios2_core.so.2:_ZN6adios24core6engine14NullCoreWriter13DoPutDeferredERNS0_8VariableIfEEPKf
libadios2_core.so.2:_ZN6adios24core6engine14NullCoreWriter13DoPutDeferredERNS0_8VariableIhEEPKh
libadios2_core.so.2:_ZN6adios24core6engine14NullCoreWriter13DoPutDeferredERNS0_8VariableIiEEPKi
libadios2_core.so.2:_ZN6adios24core6engine14NullCoreWriter13DoPutDeferredERNS0_8VariableIjEEPKj
libadios2_core.so.2:_ZN6adios24core6engine14NullCoreWriter13DoPutDeferredERNS0_8VariableIlEEPKl
libadios2_core.so.2:_ZN6adios24core6engine14NullCoreWriter13DoPutDeferredERNS0_8VariableImEEPKm
libadios2_core.so.2:_ZN6adios24core6engine14NullCoreWriter13DoPutDeferredERNS0_8VariableIsEEPKs
libadios2_core.so.2:_ZN6adios24core6engine14NullCoreWriter13DoPutDeferredERNS0_8VariableItEEPKt
libadios2_core.so.2:_ZN6adios24core6engine14NullCoreWriter5DoPutERNS0_8VariableISt7complexIdEEERNS0_4SpanIS5_EEmRKS5_
libadios2_core.so.2:_ZN6adios24core6engine14NullCoreWriter5DoPutERNS0_8VariableISt7complexIfEEERNS0_4SpanIS5_EEmRKS5_
libadios2_core.so.2:_ZN6adios24core6engine14NullCoreWriter5DoPutERNS0_8VariableIaEERNS0_4SpanIaEEmRKa
libadios2_core.so.2:_ZN6adios24core6engine14NullCoreWriter5DoPutERNS0_8VariableIdEERNS0_4SpanIdEEmRKd
libadios2_core.so.2:_ZN6adios24core6engine14NullCoreWriter5DoPutERNS0_8VariableIeEERNS0_4SpanIeEEmRKe
libadios2_core.so.2:_ZN6adios24core6engine14NullCoreWriter5DoPutERNS0_8VariableIfEERNS0_4SpanIfEEmRKf
libadios2_core.so.2:_ZN6adios24core6engine14NullCoreWriter5DoPutERNS0_8VariableIhEERNS0_4SpanIhEEmRKh
libadios2_core.so.2:_ZN6adios24core6engine14NullCoreWriter5DoPutERNS0_8VariableIiEERNS0_4SpanIiEEmRKi
libadios2_core.so.2:_ZN6adios24core6engine14NullCoreWriter5DoPutERNS0_8VariableIjEERNS0_4SpanIjEEmRKj
libadios2_core.so.2:_ZN6adios24core6engine14NullCoreWriter5DoPutERNS0_8VariableIlEERNS0_4SpanIlEEmRKl
libadios2_core.so.2:_ZN6adios24core6engine14NullCoreWriter5DoPutERNS0_8VariableImEERNS0_4SpanImEEmRKm
libadios2_core.so.2:_ZN6adios24core6engine14NullCoreWriter5DoPutERNS0_8VariableIsEERNS0_4SpanIsEEmRKs
libadios2_core.so.2:_ZN6adios24core6engine14NullCoreWriter5DoPutERNS0_8VariableItEERNS0_4SpanItEEmRKt
libadios2_core.so.2:_ZN6adios24core6engine14NullCoreWriter5FlushEi
libadios2_core.so.2:_ZN6adios24core6engine14NullCoreWriter7DoCloseEi
libadios2_core.so.2:_ZN6adios24core6engine14NullCoreWriter7EndStepEv
libadios2_core.so.2:_ZN6adios24core6engine14NullCoreWriter9BeginStepENS_8StepModeEf
libadios2_core.so.2:_ZN6adios24core6engine14NullCoreWriter9DoPutSyncERNS0_8VariableINSt7__cxx1112basic_stringIcSt11char_traitsIcESaIcEEEEEPKS9_
libadios2_core.so.2:_ZN6adios24core6engine14NullCoreWriter9DoPutSyncERNS0_8VariableISt7complexIdEEEPKS5_
libadios2_core.so.2:_ZN6adios24core6engine14NullCoreWriter9DoPutSyncERNS0_8VariableISt7complexIfEEEPKS5_
libadios2_core.so.2:_ZN6adios24core6engine14NullCoreWriter9DoPutSyncERNS0_8VariableIaEEPKa
libadios2_core.so.2:_ZN6adios24core6engine14NullCoreWriter9DoPutSyncERNS0_8VariableIdEEPKd
libadios2_core.so.2:_ZN6adios24core6engine14NullCoreWriter9DoPutSyncERNS0_8VariableIeEEPKe
libadios2_core.so.2:_ZN6adios24core6engine14NullCoreWriter9DoPutSyncERNS0_8VariableIfEEPKf
libadios2_core.so.2:_ZN6adios24core6engine14NullCoreWriter9DoPutSyncERNS0_8VariableIhEEPKh
libadios2_core.so.2:_ZN6adios24core6engine14NullCoreWriter9DoPutSyncERNS0_8VariableIiEEPKi
libadios2_core.so.2:_ZN6adios24core6engine14NullCoreWriter9DoPutSyncERNS0_8VariableIjEEPKj
libadios2_core.so.2:_ZN6adios24core6engine14NullCoreWriter9DoPutSyncERNS0_8VariableIlEEPKl
libadios2_core.so.2:_ZN6adios24core6engine14NullCoreWriter9DoPutSyncERNS0_8VariableImEEPKm
libadios2_core.so.2:_ZN6adios24core6engine14NullCoreWriter9DoPutSyncERNS0_8VariableIsEEPKs
libadios2_core.so.2:_ZN6adios24core6engine14NullCoreWriter9DoPutSyncERNS0_8VariableItEEPKt
libadios2_core.so.2:_ZN6adios24core6engine14NullCoreWriterC1ERNS0_2IOERKNSt7__cxx1112basic_stringIcSt11char_traitsIcESaIcEEENS_4ModeENS_6helper4CommE
libadios2_core.so.2:_ZN6adios24core6engine14NullCoreWriterC2ERNS0_2IOERKNSt7__cxx1112basic_stringIcSt11char_traitsIcESaIcEEENS_4ModeENS_6helper4CommE
libadios2_core.so.2:_ZN6adios24core6engine14NullCoreWriterD0Ev
libadios2_core.so.2:_ZN6adios24core6engine14NullCoreWriterD1Ev
libadios2_core.so.2:_ZN6adios24core6engine14NullCoreWriterD2Ev
libadios2_core.so.2:_ZN6adios24core6engine14SkeletonReader11PerformGetsEv
libadios2_core.so.2:_ZN6adios24core6engine14SkeletonReader13DoGetDeferredERNS0_8VariableINSt7__cxx1112basic_stringIcSt11char_traitsIcESaIcEEEEEPS9_
libadios2_core.so.2:_ZN6adios24core6engine14SkeletonReader13DoGetDeferredERNS0_8VariableISt7complexIdEEEPS5_
libadios2_core.so.2:_ZN6adios24core6engine14SkeletonReader13DoGetDeferredERNS0_8VariableISt7complexIfEEEPS5_
libadios2_core.so.2:_ZN6adios24core6engine14SkeletonReader13DoGetDeferredERNS0_8VariableIaEEPa
libadios2_core.so.2:_ZN6adios24core6engine14SkeletonReader13DoGetDeferredERNS0_8VariableIdEEPd
libadios2_core.so.2:_ZN6adios24core6engine14SkeletonReader13DoGetDeferredERNS0_8VariableIeEEPe
libadios2_core.so.2:_ZN6adios24core6engine14SkeletonReader13DoGetDeferredERNS0_8VariableIfEEPf
libadios2_core.so.2:_ZN6adios24core6engine14SkeletonReader13DoGetDeferredERNS0_8VariableIhEEPh
libadios2_core.so.2:_ZN6adios24core6engine14SkeletonReader13DoGetDeferredERNS0_8VariableIiEEPi
libadios2_core.so.2:_ZN6adios24core6engine14SkeletonReader13DoGetDeferredERNS0_8VariableIjEEPj
libadios2_core.so.2:_ZN6adios24core6engine14SkeletonReader13DoGetDeferredERNS0_8VariableIlEEPl
libadios2_core.so.2:_ZN6adios24core6engine14SkeletonReader13DoGetDeferredERNS0_8VariableImEEPm
libadios2_core.so.2:_ZN6adios24core6engine14SkeletonReader13DoGetDeferredERNS0_8VariableIsEEPs
libadios2_core.so.2:_ZN6adios24core6engine14SkeletonReader13DoGetDeferredERNS0_8VariableItEEPt
libadios2_core.so.2:_ZN6adios24core6engine14SkeletonReader14InitParametersEv
libadios2_core.so.2:_ZN6adios24core6engine14SkeletonReader14InitTransportsEv
libadios2_core.so.2:_ZN6adios24core6engine14SkeletonReader4InitEv
libadios2_core.so.2:_ZN6adios24core6engine14SkeletonReader7DoCloseEi
libadios2_core.so.2:_ZN6adios24core6engine14SkeletonReader7EndStepEv
libadios2_core.so.2:_ZN6adios24core6engine14SkeletonReader9BeginStepENS_8StepModeEf
libadios2_core.so.2:_ZN6adios24core6engine14SkeletonReader9DoGetSyncERNS0_8VariableINSt7__cxx1112basic_stringIcSt11char_traitsIcESaIcEEEEEPS9_
libadios2_core.so.2:_ZN6adios24core6engine14SkeletonReader9DoGetSyncERNS0_8VariableISt7complexIdEEEPS5_
libadios2_core.so.2:_ZN6adios24core6engine14SkeletonReader9DoGetSyncERNS0_8VariableISt7complexIfEEEPS5_
libadios2_core.so.2:_ZN6adios24core6engine14SkeletonReader9DoGetSyncERNS0_8VariableIaEEPa
libadios2_core.so.2:_ZN6adios24core6engine14SkeletonReader9DoGetSyncERNS0_8VariableIdEEPd
libadios2_core.so.2:_ZN6adios24core6engine14SkeletonReader9DoGetSyncERNS0_8VariableIeEEPe
libadios2_core.so.2:_ZN6adios24core6engine14SkeletonReader9DoGetSyncERNS0_8VariableIfEEPf
libadios2_core.so.2:_ZN6adios24core6engine14SkeletonReader9DoGetSyncERNS0_8VariableIhEEPh
libadios2_core.so.2:_ZN6adios24core6engine14SkeletonReader9DoGetSyncERNS0_8VariableIiEEPi
libadios2_core.so.2:_ZN6adios24core6engine14SkeletonReader9DoGetSyncERNS0_8VariableIjEEPj
libadios2_core.so.2:_ZN6adios24core6engine14SkeletonReader9DoGetSyncERNS0_8VariableIlEEPl
libadios2_core.so.2:_ZN6adios24core6engine14SkeletonReader9DoGetSyncERNS0_8VariableImEEPm
libadios2_core.so.2:_ZN6adios24core6engine14SkeletonReader9DoGetSyncERNS0_8VariableIsEEPs
libadios2_core.so.2:_ZN6adios24core6engine14SkeletonReader9DoGetSyncERNS0_8VariableItEEPt
libadios2_core.so.2:_ZN6adios24core6engine14SkeletonReaderC1ERNS0_2IOERKNSt7__cxx1112basic_stringIcSt11char_traitsIcESaIcEEENS_4ModeENS_6helper4CommE
libadios2_core.so.2:_ZN6adios24core6engine14SkeletonReaderC2ERNS0_2IOERKNSt7__cxx1112basic_stringIcSt11char_traitsIcESaIcEEENS_4ModeENS_6helper4CommE
libadios2_core.so.2:_ZN6adios24core6engine14SkeletonReaderD0Ev
libadios2_core.so.2:_ZN6adios24core6engine14SkeletonReaderD1Ev
libadios2_core.so.2:_ZN6adios24core6engine14SkeletonReaderD2Ev
libadios2_core.so.2:_ZN6adios24core6engine14SkeletonWriter11PerformPutsEv
libadios2_core.so.2:_ZN6adios24core6engine14SkeletonWriter13DoPutDeferredERNS0_8VariableINSt7__cxx1112basic_stringIcSt11char_traitsIcESaIcEEEEEPKS9_
libadios2_core.so.2:_ZN6adios24core6engine14SkeletonWriter13DoPutDeferredERNS0_8VariableISt7complexIdEEEPKS5_
libadios2_core.so.2:_ZN6adios24core6engine14SkeletonWriter13DoPutDeferredERNS0_8VariableISt7complexIfEEEPKS5_
libadios2_core.so.2:_ZN6adios24core6engine14SkeletonWriter13DoPutDeferredERNS0_8VariableIaEEPKa
libadios2_core.so.2:_ZN6adios24core6engine14SkeletonWriter13DoPutDeferredERNS0_8VariableIdEEPKd
libadios2_core.so.2:_ZN6adios24core6engine14SkeletonWriter13DoPutDeferredERNS0_8VariableIeEEPKe
libadios2_core.so.2:_ZN6adios24core6engine14SkeletonWriter13DoPutDeferredERNS0_8VariableIfEEPKf
libadios2_core.so.2:_ZN6adios24core6engine14SkeletonWriter13DoPutDeferredERNS0_8VariableIhEEPKh
libadios2_core.so.2:_ZN6adios24core6engine14SkeletonWriter13DoPutDeferredERNS0_8VariableIiEEPKi
libadios2_core.so.2:_ZN6adios24core6engine14SkeletonWriter13DoPutDeferredERNS0_8VariableIjEEPKj
libadios2_core.so.2:_ZN6adios24core6engine14SkeletonWriter13DoPutDeferredERNS0_8VariableIlEEPKl
libadios2_core.so.2:_ZN6adios24core6engine14SkeletonWriter13DoPutDeferredERNS0_8VariableImEEPKm
libadios2_core.so.2:_ZN6adios24core6engine14SkeletonWriter13DoPutDeferredERNS0_8VariableIsEEPKs
libadios2_core.so.2:_ZN6adios24core6engine14SkeletonWriter13DoPutDeferredERNS0_8VariableItEEPKt
libadios2_core.so.2:_ZN6adios24core6engine14SkeletonWriter14InitParametersEv
libadios2_core.so.2:_ZN6adios24core6engine14SkeletonWriter14InitTransportsEv
libadios2_core.so.2:_ZN6adios24core6engine14SkeletonWriter4InitEv
libadios2_core.so.2:_ZN6adios24core6engine14SkeletonWriter5FlushEi
libadios2_core.so.2:_ZN6adios24core6engine14SkeletonWriter7DoCloseEi
libadios2_core.so.2:_ZN6adios24core6engine14SkeletonWriter7EndStepEv
libadios2_core.so.2:_ZN6adios24core6engine14SkeletonWriter9BeginStepENS_8StepModeEf
libadios2_core.so.2:_ZN6adios24core6engine14SkeletonWriter9DoPutSyncERNS0_8VariableINSt7__cxx1112basic_stringIcSt11char_traitsIcESaIcEEEEEPKS9_
libadios2_core.so.2:_ZN6adios24core6engine14SkeletonWriter9DoPutSyncERNS0_8VariableISt7complexIdEEEPKS5_
libadios2_core.so.2:_ZN6adios24core6engine14SkeletonWriter9DoPutSyncERNS0_8VariableISt7complexIfEEEPKS5_
libadios2_core.so.2:_ZN6adios24core6engine14SkeletonWriter9DoPutSyncERNS0_8VariableIaEEPKa
libadios2_core.so.2:_ZN6adios24core6engine14SkeletonWriter9DoPutSyncERNS0_8VariableIdEEPKd
libadios2_core.so.2:_ZN6adios24core6engine14SkeletonWriter9DoPutSyncERNS0_8VariableIeEEPKe
libadios2_core.so.2:_ZN6adios24core6engine14SkeletonWriter9DoPutSyncERNS0_8VariableIfEEPKf
libadios2_core.so.2:_ZN6adios24core6engine14SkeletonWriter9DoPutSyncERNS0_8VariableIhEEPKh
libadios2_core.so.2:_ZN6adios24core6engine14SkeletonWriter9DoPutSyncERNS0_8VariableIiEEPKi
libadios2_core.so.2:_ZN6adios24core6engine14SkeletonWriter9DoPutSyncERNS0_8VariableIjEEPKj
libadios2_core.so.2:_ZN6adios24core6engine14SkeletonWriter9DoPutSyncERNS0_8VariableIlEEPKl
libadios2_core.so.2:_ZN6adios24core6engine14SkeletonWriter9DoPutSyncERNS0_8VariableImEEPKm
libadios2_core.so.2:_ZN6adios24core6engine14SkeletonWriter9DoPutSyncERNS0_8VariableIsEEPKs
libadios2_core.so.2:_ZN6adios24core6engine14SkeletonWriter9DoPutSyncERNS0_8VariableItEEPKt
libadios2_core.so.2:_ZN6adios24core6engine14SkeletonWriterC1ERNS0_2IOERKNSt7__cxx1112basic_stringIcSt11char_traitsIcESaIcEEENS_4ModeENS_6helper4CommE
libadios2_core.so.2:_ZN6adios24core6engine14SkeletonWriterC2ERNS0_2IOERKNSt7__cxx1112basic_stringIcSt11char_traitsIcESaIcEEENS_4ModeENS_6helper4CommE
libadios2_core.so.2:_ZN6adios24core6engine27MetadataExpectedMinFileSizeERKNS_6format15BP4DeserializerERKNSt7__cxx1112basic_stringIcSt11char_traitsIcESaIcEEEb
libadios2_core.so.2:_ZN6adios24core6engine28MetadataCalculateMinFileSizeERKNS_6format15BP4DeserializerERKNSt7__cxx1112basic_stringIcSt11char_traitsIcESaIcEEEPcmbmRmSF_
libadios2_core.so.2:_ZN6adios24core6engine9BP3Reader10InitBufferEv
libadios2_core.so.2:_ZN6adios24core6engine9BP3Reader11PerformGetsEv
libadios2_core.so.2:_ZN6adios24core6engine9BP3Reader13DoGetDeferredERNS0_8VariableINSt7__cxx1112basic_stringIcSt11char_traitsIcESaIcEEEEEPS9_
libadios2_core.so.2:_ZN6adios24core6engine9BP3Reader13DoGetDeferredERNS0_8VariableISt7complexIdEEEPS5_
libadios2_core.so.2:_ZN6adios24core6engine9BP3Reader13DoGetDeferredERNS0_8VariableISt7complexIfEEEPS5_
libadios2_core.so.2:_ZN6adios24core6engine9BP3Reader13DoGetDeferredERNS0_8VariableIaEEPa
libadios2_core.so.2:_ZN6adios24core6engine9BP3Reader13DoGetDeferredERNS0_8VariableIdEEPd
libadios2_core.so.2:_ZN6adios24core6engine9BP3Reader13DoGetDeferredERNS0_8VariableIeEEPe
libadios2_core.so.2:_ZN6adios24core6engine9BP3Reader13DoGetDeferredERNS0_8VariableIfEEPf
libadios2_core.so.2:_ZN6adios24core6engine9BP3Reader13DoGetDeferredERNS0_8VariableIhEEPh
libadios2_core.so.2:_ZN6adios24core6engine9BP3Reader13DoGetDeferredERNS0_8VariableIiEEPi
libadios2_core.so.2:_ZN6adios24core6engine9BP3Reader13DoGetDeferredERNS0_8VariableIjEEPj
libadios2_core.so.2:_ZN6adios24core6engine9BP3Reader13DoGetDeferredERNS0_8VariableIlEEPl
libadios2_core.so.2:_ZN6adios24core6engine9BP3Reader13DoGetDeferredERNS0_8VariableImEEPm
libadios2_core.so.2:_ZN6adios24core6engine9BP3Reader13DoGetDeferredERNS0_8VariableIsEEPs
libadios2_core.so.2:_ZN6adios24core6engine9BP3Reader13DoGetDeferredERNS0_8VariableItEEPt
libadios2_core.so.2:_ZN6adios24core6engine9BP3Reader14InitTransportsEv
libadios2_core.so.2:_ZN6adios24core6engine9BP3Reader4InitEv
libadios2_core.so.2:_ZN6adios24core6engine9BP3Reader7DoCloseEi
libadios2_core.so.2:_ZN6adios24core6engine9BP3Reader7EndStepEv
libadios2_core.so.2:_ZN6adios24core6engine9BP3Reader9BeginStepENS_8StepModeEf
libadios2_core.so.2:_ZN6adios24core6engine9BP3Reader9DoGetSyncERNS0_8VariableINSt7__cxx1112basic_stringIcSt11char_traitsIcESaIcEEEEEPS9_
libadios2_core.so.2:_ZN6adios24core6engine9BP3Reader9DoGetSyncERNS0_8VariableISt7complexIdEEEPS5_
libadios2_core.so.2:_ZN6adios24core6engine9BP3Reader9DoGetSyncERNS0_8VariableISt7complexIfEEEPS5_
libadios2_core.so.2:_ZN6adios24core6engine9BP3Reader9DoGetSyncERNS0_8VariableIaEEPa
libadios2_core.so.2:_ZN6adios24core6engine9BP3Reader9DoGetSyncERNS0_8VariableIdEEPd
libadios2_core.so.2:_ZN6adios24core6engine9BP3Reader9DoGetSyncERNS0_8VariableIeEEPe
libadios2_core.so.2:_ZN6adios24core6engine9BP3Reader9DoGetSyncERNS0_8VariableIfEEPf
libadios2_core.so.2:_ZN6adios24core6engine9BP3Reader9DoGetSyncERNS0_8VariableIhEEPh
libadios2_core.so.2:_ZN6adios24core6engine9BP3Reader9DoGetSyncERNS0_8VariableIiEEPi
libadios2_core.so.2:_ZN6adios24core6engine9BP3Reader9DoGetSyncERNS0_8VariableIjEEPj
libadios2_core.so.2:_ZN6adios24core6engine9BP3Reader9DoGetSyncERNS0_8VariableIlEEPl
libadios2_core.so.2:_ZN6adios24core6engine9BP3Reader9DoGetSyncERNS0_8VariableImEEPm
libadios2_core.so.2:_ZN6adios24core6engine9BP3Reader9DoGetSyncERNS0_8VariableIsEEPs
libadios2_core.so.2:_ZN6adios24core6engine9BP3Reader9DoGetSyncERNS0_8VariableItEEPt
libadios2_core.so.2:_ZN6adios24core6engine9BP3ReaderC1ERNS0_2IOERKNSt7__cxx1112basic_stringIcSt11char_traitsIcESaIcEEENS_4ModeENS_6helper4CommE
libadios2_core.so.2:_ZN6adios24core6engine9BP3ReaderC2ERNS0_2IOERKNSt7__cxx1112basic_stringIcSt11char_traitsIcESaIcEEENS_4ModeENS_6helper4CommE
libadios2_core.so.2:_ZN6adios24core6engine9BP3Writer11PerformPutsEv
libadios2_core.so.2:_ZN6adios24core6engine9BP3Writer12InitBPBufferEv
libadios2_core.so.2:_ZN6adios24core6engine9BP3Writer13DoPutDeferredERNS0_8VariableINSt7__cxx1112basic_stringIcSt11char_traitsIcESaIcEEEEEPKS9_
libadios2_core.so.2:_ZN6adios24core6engine9BP3Writer13DoPutDeferredERNS0_8VariableISt7complexIdEEEPKS5_
libadios2_core.so.2:_ZN6adios24core6engine9BP3Writer13DoPutDeferredERNS0_8VariableISt7complexIfEEEPKS5_
libadios2_core.so.2:_ZN6adios24core6engine9BP3Writer13DoPutDeferredERNS0_8VariableIaEEPKa
libadios2_core.so.2:_ZN6adios24core6engine9BP3Writer13DoPutDeferredERNS0_8VariableIdEEPKd
libadios2_core.so.2:_ZN6adios24core6engine9BP3Writer13DoPutDeferredERNS0_8VariableIeEEPKe
libadios2_core.so.2:_ZN6adios24core6engine9BP3Writer13DoPutDeferredERNS0_8VariableIfEEPKf
libadios2_core.so.2:_ZN6adios24core6engine9BP3Writer13DoPutDeferredERNS0_8VariableIhEEPKh
libadios2_core.so.2:_ZN6adios24core6engine9BP3Writer13DoPutDeferredERNS0_8VariableIiEEPKi
libadios2_core.so.2:_ZN6adios24core6engine9BP3Writer13DoPutDeferredERNS0_8VariableIjEEPKj
libadios2_core.so.2:_ZN6adios24core6engine9BP3Writer13DoPutDeferredERNS0_8VariableIlEEPKl
libadios2_core.so.2:_ZN6adios24core6engine9BP3Writer13DoPutDeferredERNS0_8VariableImEEPKm
libadios2_core.so.2:_ZN6adios24core6engine9BP3Writer13DoPutDeferredERNS0_8VariableIsEEPKs
libadios2_core.so.2:_ZN6adios24core6engine9BP3Writer13DoPutDeferredERNS0_8VariableItEEPKt
libadios2_core.so.2:_ZN6adios24core6engine9BP3Writer14InitParametersEv
libadios2_core.so.2:_ZN6adios24core6engine9BP3Writer14InitTransportsEv
libadios2_core.so.2:_ZN6adios24core6engine9BP3Writer17DoBufferData_int8Emm
libadios2_core.so.2:_ZN6adios24core6engine9BP3Writer18AggregateWriteDataEbi
libadios2_core.so.2:_ZN6adios24core6engine9BP3Writer18DoBufferData_floatEmm
libadios2_core.so.2:_ZN6adios24core6engine9BP3Writer18DoBufferData_int16Emm
libadios2_core.so.2:_ZN6adios24core6engine9BP3Writer18DoBufferData_int32Emm
libadios2_core.so.2:_ZN6adios24core6engine9BP3Writer18DoBufferData_int64Emm
libadios2_core.so.2:_ZN6adios24core6engine9BP3Writer18DoBufferData_uint8Emm
libadios2_core.so.2:_ZN6adios24core6engine9BP3Writer19DoBufferData_cfloatEmm
libadios2_core.so.2:_ZN6adios24core6engine9BP3Writer19DoBufferData_doubleEmm
libadios2_core.so.2:_ZN6adios24core6engine9BP3Writer19DoBufferData_uint16Emm
libadios2_core.so.2:_ZN6adios24core6engine9BP3Writer19DoBufferData_uint32Emm
libadios2_core.so.2:_ZN6adios24core6engine9BP3Writer19DoBufferData_uint64Emm
libadios2_core.so.2:_ZN6adios24core6engine9BP3Writer20DoBufferData_cdoubleEmm
libadios2_core.so.2:_ZN6adios24core6engine9BP3Writer20DoBufferData_ldoubleEmm
libadios2_core.so.2:_ZN6adios24core6engine9BP3Writer22WriteProfilingJSONFileEv
libadios2_core.so.2:_ZN6adios24core6engine9BP3Writer27WriteCollectiveMetadataFileEb
libadios2_core.so.2:_ZN6adios24core6engine9BP3Writer4InitEv
libadios2_core.so.2:_ZN6adios24core6engine9BP3Writer5DoPutERNS0_8VariableISt7complexIdEEERNS0_4SpanIS5_EEmRKS5_
libadios2_core.so.2:_ZN6adios24core6engine9BP3Writer5DoPutERNS0_8VariableISt7complexIfEEERNS0_4SpanIS5_EEmRKS5_
libadios2_core.so.2:_ZN6adios24core6engine9BP3Writer5DoPutERNS0_8VariableIaEERNS0_4SpanIaEEmRKa
libadios2_core.so.2:_ZN6adios24core6engine9BP3Writer5DoPutERNS0_8VariableIdEERNS0_4SpanIdEEmRKd
libadios2_core.so.2:_ZN6adios24core6engine9BP3Writer5DoPutERNS0_8VariableIeEERNS0_4SpanIeEEmRKe
libadios2_core.so.2:_ZN6adios24core6engine9BP3Writer5DoPutERNS0_8VariableIfEERNS0_4SpanIfEEmRKf
libadios2_core.so.2:_ZN6adios24core6engine9BP3Writer5DoPutERNS0_8VariableIhEERNS0_4SpanIhEEmRKh
libadios2_core.so.2:_ZN6adios24core6engine9BP3Writer5DoPutERNS0_8VariableIiEERNS0_4SpanIiEEmRKi
libadios2_core.so.2:_ZN6adios24core6engine9BP3Writer5DoPutERNS0_8VariableIjEERNS0_4SpanIjEEmRKj
libadios2_core.so.2:_ZN6adios24core6engine9BP3Writer5DoPutERNS0_8VariableIlEERNS0_4SpanIlEEmRKl
libadios2_core.so.2:_ZN6adios24core6engine9BP3Writer5DoPutERNS0_8VariableImEERNS0_4SpanImEEmRKm
libadios2_core.so.2:_ZN6adios24core6engine9BP3Writer5DoPutERNS0_8VariableIsEERNS0_4SpanIsEEmRKs
libadios2_core.so.2:_ZN6adios24core6engine9BP3Writer5DoPutERNS0_8VariableItEERNS0_4SpanItEEmRKt
libadios2_core.so.2:_ZN6adios24core6engine9BP3Writer5FlushEi
libadios2_core.so.2:_ZN6adios24core6engine9BP3Writer7DoCloseEi
libadios2_core.so.2:_ZN6adios24core6engine9BP3Writer7DoFlushEbi
libadios2_core.so.2:_ZN6adios24core6engine9BP3Writer7EndStepEv
libadios2_core.so.2:_ZN6adios24core6engine9BP3Writer9BeginStepENS_8StepModeEf
libadios2_core.so.2:_ZN6adios24core6engine9BP3Writer9DoPutSyncERNS0_8VariableINSt7__cxx1112basic_stringIcSt11char_traitsIcESaIcEEEEEPKS9_
libadios2_core.so.2:_ZN6adios24core6engine9BP3Writer9DoPutSyncERNS0_8VariableISt7complexIdEEEPKS5_
libadios2_core.so.2:_ZN6adios24core6engine9BP3Writer9DoPutSyncERNS0_8VariableISt7complexIfEEEPKS5_
libadios2_core.so.2:_ZN6adios24core6engine9BP3Writer9DoPutSyncERNS0_8VariableIaEEPKa
libadios2_core.so.2:_ZN6adios24core6engine9BP3Writer9DoPutSyncERNS0_8VariableIdEEPKd
libadios2_core.so.2:_ZN6adios24core6engine9BP3Writer9DoPutSyncERNS0_8VariableIeEEPKe
libadios2_core.so.2:_ZN6adios24core6engine9BP3Writer9DoPutSyncERNS0_8VariableIfEEPKf
libadios2_core.so.2:_ZN6adios24core6engine9BP3Writer9DoPutSyncERNS0_8VariableIhEEPKh
libadios2_core.so.2:_ZN6adios24core6engine9BP3Writer9DoPutSyncERNS0_8VariableIiEEPKi
libadios2_core.so.2:_ZN6adios24core6engine9BP3Writer9DoPutSyncERNS0_8VariableIjEEPKj
libadios2_core.so.2:_ZN6adios24core6engine9BP3Writer9DoPutSyncERNS0_8VariableIlEEPKl
libadios2_core.so.2:_ZN6adios24core6engine9BP3Writer9DoPutSyncERNS0_8VariableImEEPKm
libadios2_core.so.2:_ZN6adios24core6engine9BP3Writer9DoPutSyncERNS0_8VariableIsEEPKs
libadios2_core.so.2:_ZN6adios24core6engine9BP3Writer9DoPutSyncERNS0_8VariableItEEPKt
libadios2_core.so.2:_ZN6adios24core6engine9BP3Writer9WriteDataEbi
libadios2_core.so.2:_ZN6adios24core6engine9BP3WriterC1ERNS0_2IOERKNSt7__cxx1112basic_stringIcSt11char_traitsIcESaIcEEENS_4ModeENS_6helper4CommE
libadios2_core.so.2:_ZN6adios24core6engine9BP3WriterC2ERNS0_2IOERKNSt7__cxx1112basic_stringIcSt11char_traitsIcESaIcEEENS_4ModeENS_6helper4CommE
libadios2_core.so.2:_ZN6adios24core6engine9BP4Reader10InitBufferERKNSt6chrono10time_pointINS3_3_V212steady_clockENS3_8durationIdSt5ratioILl1ELl1000000000EEEEEERKNS7_IdS8_ILl1ELl1EEEESH_
libadios2_core.so.2:_ZN6adios24core6engine9BP4Reader11PerformGetsEv
libadios2_core.so.2:_ZN6adios24core6engine9BP4Reader11SleepOrQuitERKNSt6chrono10time_pointINS3_3_V212steady_clockENS3_8durationIdSt5ratioILl1ELl1000000000EEEEEERKNS7_IdS8_ILl1ELl1EEEE
libadios2_core.so.2:_ZN6adios24core6engine9BP4Reader12UpdateBufferERKNSt6chrono10time_pointINS3_3_V212steady_clockENS3_8durationIdSt5ratioILl1ELl1000000000EEEEEERKNS7_IdS8_ILl1ELl1EEEE
libadios2_core.so.2:_ZN6adios24core6engine9BP4Reader13DoGetDeferredERNS0_8VariableINSt7__cxx1112basic_stringIcSt11char_traitsIcESaIcEEEEEPS9_
libadios2_core.so.2:_ZN6adios24core6engine9BP4Reader13DoGetDeferredERNS0_8VariableISt7complexIdEEEPS5_
libadios2_core.so.2:_ZN6adios24core6engine9BP4Reader13DoGetDeferredERNS0_8VariableISt7complexIfEEEPS5_
libadios2_core.so.2:_ZN6adios24core6engine9BP4Reader13DoGetDeferredERNS0_8VariableIaEEPa
libadios2_core.so.2:_ZN6adios24core6engine9BP4Reader13DoGetDeferredERNS0_8VariableIdEEPd
libadios2_core.so.2:_ZN6adios24core6engine9BP4Reader13DoGetDeferredERNS0_8VariableIeEEPe
libadios2_core.so.2:_ZN6adios24core6engine9BP4Reader13DoGetDeferredERNS0_8VariableIfEEPf
libadios2_core.so.2:_ZN6adios24core6engine9BP4Reader13DoGetDeferredERNS0_8VariableIhEEPh
libadios2_core.so.2:_ZN6adios24core6engine9BP4Reader13DoGetDeferredERNS0_8VariableIiEEPi
libadios2_core.so.2:_ZN6adios24core6engine9BP4Reader13DoGetDeferredERNS0_8VariableIjEEPj
libadios2_core.so.2:_ZN6adios24core6engine9BP4Reader13DoGetDeferredERNS0_8VariableIlEEPl
libadios2_core.so.2:_ZN6adios24core6engine9BP4Reader13DoGetDeferredERNS0_8VariableImEEPm
libadios2_core.so.2:_ZN6adios24core6engine9BP4Reader13DoGetDeferredERNS0_8VariableIsEEPs
libadios2_core.so.2:_ZN6adios24core6engine9BP4Reader13DoGetDeferredERNS0_8VariableItEEPt
libadios2_core.so.2:_ZN6adios24core6engine9BP4Reader14InitTransportsEv
libadios2_core.so.2:_ZN6adios24core6engine9BP4Reader15OpenWithTimeoutERNS_12transportman12TransportManERKSt6vectorINSt7__cxx1112basic_stringIcSt11char_traitsIcESaIcEEESaISC_EERKNSt6chrono10time_pointINSH_3_V212steady_clockENSH_8durationIdSt5ratioILl1ELl1000000000EEEEEERKNSL_IdSM_ILl1ELl1EEEERSC_
libadios2_core.so.2:_ZN6adios24core6engine9BP4Reader16CheckForNewStepsENSt6chrono8durationIdSt5ratioILl1ELl1EEEE
libadios2_core.so.2:_ZN6adios24core6engine9BP4Reader17CheckWriterActiveEv
libadios2_core.so.2:_ZN6adios24core6engine9BP4Reader23ProcessNextStepInMemoryEv
libadios2_core.so.2:_ZN6adios24core6engine9BP4Reader26ProcessMetadataForNewStepsEm
libadios2_core.so.2:_ZN6adios24core6engine9BP4Reader4InitEv
libadios2_core.so.2:_ZN6adios24core6engine9BP4Reader7DoCloseEi
libadios2_core.so.2:_ZN6adios24core6engine9BP4Reader7EndStepEv
libadios2_core.so.2:_ZN6adios24core6engine9BP4Reader9BeginStepENS_8StepModeEf
libadios2_core.so.2:_ZN6adios24core6engine9BP4Reader9DoGetSyncERNS0_8VariableINSt7__cxx1112basic_stringIcSt11char_traitsIcESaIcEEEEEPS9_
libadios2_core.so.2:_ZN6adios24core6engine9BP4Reader9DoGetSyncERNS0_8VariableISt7complexIdEEEPS5_
libadios2_core.so.2:_ZN6adios24core6engine9BP4Reader9DoGetSyncERNS0_8VariableISt7complexIfEEEPS5_
libadios2_core.so.2:_ZN6adios24core6engine9BP4Reader9DoGetSyncERNS0_8VariableIaEEPa
libadios2_core.so.2:_ZN6adios24core6engine9BP4Reader9DoGetSyncERNS0_8VariableIdEEPd
libadios2_core.so.2:_ZN6adios24core6engine9BP4Reader9DoGetSyncERNS0_8VariableIeEEPe
libadios2_core.so.2:_ZN6adios24core6engine9BP4Reader9DoGetSyncERNS0_8VariableIfEEPf
libadios2_core.so.2:_ZN6adios24core6engine9BP4Reader9DoGetSyncERNS0_8VariableIhEEPh
libadios2_core.so.2:_ZN6adios24core6engine9BP4Reader9DoGetSyncERNS0_8VariableIiEEPi
libadios2_core.so.2:_ZN6adios24core6engine9BP4Reader9DoGetSyncERNS0_8VariableIjEEPj
libadios2_core.so.2:_ZN6adios24core6engine9BP4Reader9DoGetSyncERNS0_8VariableIlEEPl
libadios2_core.so.2:_ZN6adios24core6engine9BP4Reader9DoGetSyncERNS0_8VariableImEEPm
libadios2_core.so.2:_ZN6adios24core6engine9BP4Reader9DoGetSyncERNS0_8VariableIsEEPs
libadios2_core.so.2:_ZN6adios24core6engine9BP4Reader9DoGetSyncERNS0_8VariableItEEPt
libadios2_core.so.2:_ZN6adios24core6engine9BP4Reader9OpenFilesERNSt6chrono10time_pointINS3_3_V212steady_clockENS3_8durationIdSt5ratioILl1ELl1000000000EEEEEERKNS7_IdS8_ILl1ELl1EEEESG_
libadios2_core.so.2:_ZN6adios24core6engine9BP4ReaderC1ERNS0_2IOERKNSt7__cxx1112basic_stringIcSt11char_traitsIcESaIcEEENS_4ModeENS_6helper4CommE
libadios2_core.so.2:_ZN6adios24core6engine9BP4ReaderC2ERNS0_2IOERKNSt7__cxx1112basic_stringIcSt11char_traitsIcESaIcEEENS_4ModeENS_6helper4CommE
libadios2_core.so.2:_ZN6adios24core6engine9BP4Writer11PerformPutsEv
libadios2_core.so.2:_ZN6adios24core6engine9BP4Writer12InitBPBufferEv
libadios2_core.so.2:_ZN6adios24core6engine9BP4Writer13DoPutDeferredERNS0_8VariableINSt7__cxx1112basic_stringIcSt11char_traitsIcESaIcEEEEEPKS9_
libadios2_core.so.2:_ZN6adios24core6engine9BP4Writer13DoPutDeferredERNS0_8VariableISt7complexIdEEEPKS5_
libadios2_core.so.2:_ZN6adios24core6engine9BP4Writer13DoPutDeferredERNS0_8VariableISt7complexIfEEEPKS5_
libadios2_core.so.2:_ZN6adios24core6engine9BP4Writer13DoPutDeferredERNS0_8VariableIaEEPKa
libadios2_core.so.2:_ZN6adios24core6engine9BP4Writer13DoPutDeferredERNS0_8VariableIdEEPKd
libadios2_core.so.2:_ZN6adios24core6engine9BP4Writer13DoPutDeferredERNS0_8VariableIeEEPKe
libadios2_core.so.2:_ZN6adios24core6engine9BP4Writer13DoPutDeferredERNS0_8VariableIfEEPKf
libadios2_core.so.2:_ZN6adios24core6engine9BP4Writer13DoPutDeferredERNS0_8VariableIhEEPKh
libadios2_core.so.2:_ZN6adios24core6engine9BP4Writer13DoPutDeferredERNS0_8VariableIiEEPKi
libadios2_core.so.2:_ZN6adios24core6engine9BP4Writer13DoPutDeferredERNS0_8VariableIjEEPKj
libadios2_core.so.2:_ZN6adios24core6engine9BP4Writer13DoPutDeferredERNS0_8VariableIlEEPKl
libadios2_core.so.2:_ZN6adios24core6engine9BP4Writer13DoPutDeferredERNS0_8VariableImEEPKm
libadios2_core.so.2:_ZN6adios24core6engine9BP4Writer13DoPutDeferredERNS0_8VariableIsEEPKs
libadios2_core.so.2:_ZN6adios24core6engine9BP4Writer13DoPutDeferredERNS0_8VariableItEEPKt
libadios2_core.so.2:_ZN6adios24core6engine9BP4Writer14InitParametersEv
libadios2_core.so.2:_ZN6adios24core6engine9BP4Writer14InitTransportsEv
libadios2_core.so.2:_ZN6adios24core6engine9BP4Writer16UpdateActiveFlagEb
libadios2_core.so.2:_ZN6adios24core6engine9BP4Writer17DoBufferData_int8Emm
libadios2_core.so.2:_ZN6adios24core6engine9BP4Writer18AggregateWriteDataEbi
libadios2_core.so.2:_ZN6adios24core6engine9BP4Writer18DoBufferData_floatEmm
libadios2_core.so.2:_ZN6adios24core6engine9BP4Writer18DoBufferData_int16Emm
libadios2_core.so.2:_ZN6adios24core6engine9BP4Writer18DoBufferData_int32Emm
libadios2_core.so.2:_ZN6adios24core6engine9BP4Writer18DoBufferData_int64Emm
libadios2_core.so.2:_ZN6adios24core6engine9BP4Writer18DoBufferData_uint8Emm
libadios2_core.so.2:_ZN6adios24core6engine9BP4Writer19DoBufferData_cfloatEmm
libadios2_core.so.2:_ZN6adios24core6engine9BP4Writer19DoBufferData_doubleEmm
libadios2_core.so.2:_ZN6adios24core6engine9BP4Writer19DoBufferData_uint16Emm
libadios2_core.so.2:_ZN6adios24core6engine9BP4Writer19DoBufferData_uint32Emm
libadios2_core.so.2:_ZN6adios24core6engine9BP4Writer19DoBufferData_uint64Emm
libadios2_core.so.2:_ZN6adios24core6engine9BP4Writer20DoBufferData_cdoubleEmm
libadios2_core.so.2:_ZN6adios24core6engine9BP4Writer20DoBufferData_ldoubleEmm
libadios2_core.so.2:_ZN6adios24core6engine9BP4Writer22WriteProfilingJSONFileEv
libadios2_core.so.2:_ZN6adios24core6engine9BP4Writer27WriteCollectiveMetadataFileEb
libadios2_core.so.2:_ZN6adios24core6engine9BP4Writer32PopulateMetadataIndexFileContentERNS_6format9BufferSTLEmmmmmmm
libadios2_core.so.2:_ZN6adios24core6engine9BP4Writer4InitEv
libadios2_core.so.2:_ZN6adios24core6engine9BP4Writer5DoPutERNS0_8VariableISt7complexIdEEERNS0_4SpanIS5_EEmRKS5_
libadios2_core.so.2:_ZN6adios24core6engine9BP4Writer5DoPutERNS0_8VariableISt7complexIfEEERNS0_4SpanIS5_EEmRKS5_
libadios2_core.so.2:_ZN6adios24core6engine9BP4Writer5DoPutERNS0_8VariableIaEERNS0_4SpanIaEEmRKa
libadios2_core.so.2:_ZN6adios24core6engine9BP4Writer5DoPutERNS0_8VariableIdEERNS0_4SpanIdEEmRKd
libadios2_core.so.2:_ZN6adios24core6engine9BP4Writer5DoPutERNS0_8VariableIeEERNS0_4SpanIeEEmRKe
libadios2_core.so.2:_ZN6adios24core6engine9BP4Writer5DoPutERNS0_8VariableIfEERNS0_4SpanIfEEmRKf
libadios2_core.so.2:_ZN6adios24core6engine9BP4Writer5DoPutERNS0_8VariableIhEERNS0_4SpanIhEEmRKh
libadios2_core.so.2:_ZN6adios24core6engine9BP4Writer5DoPutERNS0_8VariableIiEERNS0_4SpanIiEEmRKi
libadios2_core.so.2:_ZN6adios24core6engine9BP4Writer5DoPutERNS0_8VariableIjEERNS0_4SpanIjEEmRKj
libadios2_core.so.2:_ZN6adios24core6engine9BP4Writer5DoPutERNS0_8VariableIlEERNS0_4SpanIlEEmRKl
libadios2_core.so.2:_ZN6adios24core6engine9BP4Writer5DoPutERNS0_8VariableImEERNS0_4SpanImEEmRKm
libadios2_core.so.2:_ZN6adios24core6engine9BP4Writer5DoPutERNS0_8VariableIsEERNS0_4SpanIsEEmRKs
libadios2_core.so.2:_ZN6adios24core6engine9BP4Writer5DoPutERNS0_8VariableItEERNS0_4SpanItEEmRKt
libadios2_core.so.2:_ZN6adios24core6engine9BP4Writer5FlushEi
libadios2_core.so.2:_ZN6adios24core6engine9BP4Writer7DoCloseEi
libadios2_core.so.2:_ZN6adios24core6engine9BP4Writer7DoFlushEbi
libadios2_core.so.2:_ZN6adios24core6engine9BP4Writer7EndStepEv
libadios2_core.so.2:_ZN6adios24core6engine9BP4Writer9BeginStepENS_8StepModeEf
libadios2_core.so.2:_ZN6adios24core6engine9BP4Writer9DoPutSyncERNS0_8VariableINSt7__cxx1112basic_stringIcSt11char_traitsIcESaIcEEEEEPKS9_
libadios2_core.so.2:_ZN6adios24core6engine9BP4Writer9DoPutSyncERNS0_8VariableISt7complexIdEEEPKS5_
libadios2_core.so.2:_ZN6adios24core6engine9BP4Writer9DoPutSyncERNS0_8VariableISt7complexIfEEEPKS5_
libadios2_core.so.2:_ZN6adios24core6engine9BP4Writer9DoPutSyncERNS0_8VariableIaEEPKa
libadios2_core.so.2:_ZN6adios24core6engine9BP4Writer9DoPutSyncERNS0_8VariableIdEEPKd
libadios2_core.so.2:_ZN6adios24core6engine9BP4Writer9DoPutSyncERNS0_8VariableIeEEPKe
libadios2_core.so.2:_ZN6adios24core6engine9BP4Writer9DoPutSyncERNS0_8VariableIfEEPKf
libadios2_core.so.2:_ZN6adios24core6engine9BP4Writer9DoPutSyncERNS0_8VariableIhEEPKh
libadios2_core.so.2:_ZN6adios24core6engine9BP4Writer9DoPutSyncERNS0_8VariableIiEEPKi
libadios2_core.so.2:_ZN6adios24core6engine9BP4Writer9DoPutSyncERNS0_8VariableIjEEPKj
libadios2_core.so.2:_ZN6adios24core6engine9BP4Writer9DoPutSyncERNS0_8VariableIlEEPKl
libadios2_core.so.2:_ZN6adios24core6engine9BP4Writer9DoPutSyncERNS0_8VariableImEEPKm
libadios2_core.so.2:_ZN6adios24core6engine9BP4Writer9DoPutSyncERNS0_8VariableIsEEPKs
libadios2_core.so.2:_ZN6adios24core6engine9BP4Writer9DoPutSyncERNS0_8VariableItEEPKt
libadios2_core.so.2:_ZN6adios24core6engine9BP4Writer9WriteDataEbi
libadios2_core.so.2:_ZN6adios24core6engine9BP4WriterC1ERNS0_2IOERKNSt7__cxx1112basic_stringIcSt11char_traitsIcESaIcEEENS_4ModeENS_6helper4CommE
libadios2_core.so.2:_ZN6adios24core6engine9BP4WriterC2ERNS0_2IOERKNSt7__cxx1112basic_stringIcSt11char_traitsIcESaIcEEENS_4ModeENS_6helper4CommE
libadios2_core.so.2:_ZN6adios24core6engine9SstReader11PerformGetsEv
libadios2_core.so.2:_ZN6adios24core6engine9SstReader13DoGetDeferredERNS0_8VariableINSt7__cxx1112basic_stringIcSt11char_traitsIcESaIcEEEEEPS9_
libadios2_core.so.2:_ZN6adios24core6engine9SstReader13DoGetDeferredERNS0_8VariableISt7complexIdEEEPS5_
libadios2_core.so.2:_ZN6adios24core6engine9SstReader13DoGetDeferredERNS0_8VariableISt7complexIfEEEPS5_
libadios2_core.so.2:_ZN6adios24core6engine9SstReader13DoGetDeferredERNS0_8VariableIaEEPa
libadios2_core.so.2:_ZN6adios24core6engine9SstReader13DoGetDeferredERNS0_8VariableIdEEPd
libadios2_core.so.2:_ZN6adios24core6engine9SstReader13DoGetDeferredERNS0_8VariableIeEEPe
libadios2_core.so.2:_ZN6adios24core6engine9SstReader13DoGetDeferredERNS0_8VariableIfEEPf
libadios2_core.so.2:_ZN6adios24core6engine9SstReader13DoGetDeferredERNS0_8VariableIhEEPh
libadios2_core.so.2:_ZN6adios24core6engine9SstReader13DoGetDeferredERNS0_8VariableIiEEPi
libadios2_core.so.2:_ZN6adios24core6engine9SstReader13DoGetDeferredERNS0_8VariableIjEEPj
libadios2_core.so.2:_ZN6adios24core6engine9SstReader13DoGetDeferredERNS0_8VariableIlEEPl
libadios2_core.so.2:_ZN6adios24core6engine9SstReader13DoGetDeferredERNS0_8VariableImEEPm
libadios2_core.so.2:_ZN6adios24core6engine9SstReader13DoGetDeferredERNS0_8VariableIsEEPs
libadios2_core.so.2:_ZN6adios24core6engine9SstReader13DoGetDeferredERNS0_8VariableItEEPt
libadios2_core.so.2:_ZN6adios24core6engine9SstReader4InitEv
libadios2_core.so.2:_ZN6adios24core6engine9SstReader5FlushEi
libadios2_core.so.2:_ZN6adios24core6engine9SstReader7DoCloseEi
libadios2_core.so.2:_ZN6adios24core6engine9SstReader7EndStepEv
libadios2_core.so.2:_ZN6adios24core6engine9SstReader9BeginStepENS_8StepModeEf
libadios2_core.so.2:_ZN6adios24core6engine9SstReader9DoGetSyncERNS0_8VariableINSt7__cxx1112basic_stringIcSt11char_traitsIcESaIcEEEEEPS9_
libadios2_core.so.2:_ZN6adios24core6engine9SstReader9DoGetSyncERNS0_8VariableISt7complexIdEEEPS5_
libadios2_core.so.2:_ZN6adios24core6engine9SstReader9DoGetSyncERNS0_8VariableISt7complexIfEEEPS5_
libadios2_core.so.2:_ZN6adios24core6engine9SstReader9DoGetSyncERNS0_8VariableIaEEPa
libadios2_core.so.2:_ZN6adios24core6engine9SstReader9DoGetSyncERNS0_8VariableIdEEPd
libadios2_core.so.2:_ZN6adios24core6engine9SstReader9DoGetSyncERNS0_8VariableIeEEPe
libadios2_core.so.2:_ZN6adios24core6engine9SstReader9DoGetSyncERNS0_8VariableIfEEPf
libadios2_core.so.2:_ZN6adios24core6engine9SstReader9DoGetSyncERNS0_8VariableIhEEPh
libadios2_core.so.2:_ZN6adios24core6engine9SstReader9DoGetSyncERNS0_8VariableIiEEPi
libadios2_core.so.2:_ZN6adios24core6engine9SstReader9DoGetSyncERNS0_8VariableIjEEPj
libadios2_core.so.2:_ZN6adios24core6engine9SstReader9DoGetSyncERNS0_8VariableIlEEPl
libadios2_core.so.2:_ZN6adios24core6engine9SstReader9DoGetSyncERNS0_8VariableImEEPm
libadios2_core.so.2:_ZN6adios24core6engine9SstReader9DoGetSyncERNS0_8VariableIsEEPs
libadios2_core.so.2:_ZN6adios24core6engine9SstReader9DoGetSyncERNS0_8VariableItEEPt
libadios2_core.so.2:_ZN6adios24core6engine9SstReaderC1ERNS0_2IOERKNSt7__cxx1112basic_stringIcSt11char_traitsIcESaIcEEENS_4ModeENS_6helper4CommE
libadios2_core.so.2:_ZN6adios24core6engine9SstReaderC2ERNS0_2IOERKNSt7__cxx1112basic_stringIcSt11char_traitsIcESaIcEEENS_4ModeENS_6helper4CommE
libadios2_core.so.2:_ZN6adios24core6engine9SstReaderD0Ev
libadios2_core.so.2:_ZN6adios24core6engine9SstReaderD1Ev
libadios2_core.so.2:_ZN6adios24core6engine9SstReaderD2Ev
libadios2_core.so.2:_ZN6adios24core6engine9SstWriter11PerformPutsEv
libadios2_core.so.2:_ZN6adios24core6engine9SstWriter13DoPutDeferredERNS0_8VariableINSt7__cxx1112basic_stringIcSt11char_traitsIcESaIcEEEEEPKS9_
libadios2_core.so.2:_ZN6adios24core6engine9SstWriter13DoPutDeferredERNS0_8VariableISt7complexIdEEEPKS5_
libadios2_core.so.2:_ZN6adios24core6engine9SstWriter13DoPutDeferredERNS0_8VariableISt7complexIfEEEPKS5_
libadios2_core.so.2:_ZN6adios24core6engine9SstWriter13DoPutDeferredERNS0_8VariableIaEEPKa
libadios2_core.so.2:_ZN6adios24core6engine9SstWriter13DoPutDeferredERNS0_8VariableIdEEPKd
libadios2_core.so.2:_ZN6adios24core6engine9SstWriter13DoPutDeferredERNS0_8VariableIeEEPKe
libadios2_core.so.2:_ZN6adios24core6engine9SstWriter13DoPutDeferredERNS0_8VariableIfEEPKf
libadios2_core.so.2:_ZN6adios24core6engine9SstWriter13DoPutDeferredERNS0_8VariableIhEEPKh
libadios2_core.so.2:_ZN6adios24core6engine9SstWriter13DoPutDeferredERNS0_8VariableIiEEPKi
libadios2_core.so.2:_ZN6adios24core6engine9SstWriter13DoPutDeferredERNS0_8VariableIjEEPKj
libadios2_core.so.2:_ZN6adios24core6engine9SstWriter13DoPutDeferredERNS0_8VariableIlEEPKl
libadios2_core.so.2:_ZN6adios24core6engine9SstWriter13DoPutDeferredERNS0_8VariableImEEPKm
libadios2_core.so.2:_ZN6adios24core6engine9SstWriter13DoPutDeferredERNS0_8VariableIsEEPKs
libadios2_core.so.2:_ZN6adios24core6engine9SstWriter13DoPutDeferredERNS0_8VariableItEEPKt
libadios2_core.so.2:_ZN6adios24core6engine9SstWriter20FFSMarshalAttributesEv
libadios2_core.so.2:_ZN6adios24core6engine9SstWriter4InitEv
libadios2_core.so.2:_ZN6adios24core6engine9SstWriter5FlushEi
libadios2_core.so.2:_ZN6adios24core6engine9SstWriter7DoCloseEi
libadios2_core.so.2:_ZN6adios24core6engine9SstWriter7EndStepEv
libadios2_core.so.2:_ZN6adios24core6engine9SstWriter9BeginStepENS_8StepModeEf
libadios2_core.so.2:_ZN6adios24core6engine9SstWriter9DoPutSyncERNS0_8VariableINSt7__cxx1112basic_stringIcSt11char_traitsIcESaIcEEEEEPKS9_
libadios2_core.so.2:_ZN6adios24core6engine9SstWriter9DoPutSyncERNS0_8VariableISt7complexIdEEEPKS5_
libadios2_core.so.2:_ZN6adios24core6engine9SstWriter9DoPutSyncERNS0_8VariableISt7complexIfEEEPKS5_
libadios2_core.so.2:_ZN6adios24core6engine9SstWriter9DoPutSyncERNS0_8VariableIaEEPKa
libadios2_core.so.2:_ZN6adios24core6engine9SstWriter9DoPutSyncERNS0_8VariableIdEEPKd
libadios2_core.so.2:_ZN6adios24core6engine9SstWriter9DoPutSyncERNS0_8VariableIeEEPKe
libadios2_core.so.2:_ZN6adios24core6engine9SstWriter9DoPutSyncERNS0_8VariableIfEEPKf
libadios2_core.so.2:_ZN6adios24core6engine9SstWriter9DoPutSyncERNS0_8VariableIhEEPKh
libadios2_core.so.2:_ZN6adios24core6engine9SstWriter9DoPutSyncERNS0_8VariableIiEEPKi
libadios2_core.so.2:_ZN6adios24core6engine9SstWriter9DoPutSyncERNS0_8VariableIjEEPKj
libadios2_core.so.2:_ZN6adios24core6engine9SstWriter9DoPutSyncERNS0_8VariableIlEEPKl
libadios2_core.so.2:_ZN6adios24core6engine9SstWriter9DoPutSyncERNS0_8VariableImEEPKm
libadios2_core.so.2:_ZN6adios24core6engine9SstWriter9DoPutSyncERNS0_8VariableIsEEPKs
libadios2_core.so.2:_ZN6adios24core6engine9SstWriter9DoPutSyncERNS0_8VariableItEEPKt
libadios2_core.so.2:_ZN6adios24core6engine9SstWriterC1ERNS0_2IOERKNSt7__cxx1112basic_stringIcSt11char_traitsIcESaIcEEENS_4ModeENS_6helper4CommE
libadios2_core.so.2:_ZN6adios24core6engine9SstWriterC2ERNS0_2IOERKNSt7__cxx1112basic_stringIcSt11char_traitsIcESaIcEEENS_4ModeENS_6helper4CommE
libadios2_core.so.2:_ZN6adios24core6engine9SstWriterD0Ev
libadios2_core.so.2:_ZN6adios24core6engine9SstWriterD1Ev
libadios2_core.so.2:_ZN6adios24core6engine9SstWriterD2Ev
libadios2_core.so.2:_ZN6adios24core8Operator12SetParameterENSt7__cxx1112basic_stringIcSt11char_traitsIcESaIcEEES7_
libadios2_core.so.2:_ZN6adios24core8Operator13GetParametersB5cxx11Ev
libadios2_core.so.2:_ZN6adios24core8OperatorC1ENSt7__cxx1112basic_stringIcSt11char_traitsIcESaIcEEERKSt3mapIS7_S7_St4lessIS7_ESaISt4pairIKS7_S7_EEE
libadios2_core.so.2:_ZN6adios24core8OperatorC2ENSt7__cxx1112basic_stringIcSt11char_traitsIcESaIcEEERKSt3mapIS7_S7_St4lessIS7_ESaISt4pairIKS7_S7_EEE
libadios2_core.so.2:_ZN6adios24core8VariableINSt7__cxx1112basic_stringIcSt11char_traitsIcESaIcEEEE12SetBlockInfoEPKS7_mm
libadios2_core.so.2:_ZN6adios24core8VariableINSt7__cxx1112basic_stringIcSt11char_traitsIcESaIcEEEE7SetDataEPKS7_
libadios2_core.so.2:_ZN6adios24core8VariableINSt7__cxx1112basic_stringIcSt11char_traitsIcESaIcEEEEC1ERKS7_RKSt6vectorImSaImEESF_SF_b
libadios2_core.so.2:_ZN6adios24core8VariableINSt7__cxx1112basic_stringIcSt11char_traitsIcESaIcEEEEC2ERKS7_RKSt6vectorImSaImEESF_SF_b
libadios2_core.so.2:_ZN6adios24core8VariableISt7complexIdEE12SetBlockInfoEPKS3_mm
libadios2_core.so.2:_ZN6adios24core8VariableISt7complexIdEE7SetDataEPKS3_
libadios2_core.so.2:_ZN6adios24core8VariableISt7complexIdEEC1ERKNSt7__cxx1112basic_stringIcSt11char_traitsIcESaIcEEERKSt6vectorImSaImEESH_SH_b
libadios2_core.so.2:_ZN6adios24core8VariableISt7complexIdEEC2ERKNSt7__cxx1112basic_stringIcSt11char_traitsIcESaIcEEERKSt6vectorImSaImEESH_SH_b
libadios2_core.so.2:_ZN6adios24core8VariableISt7complexIfEE12SetBlockInfoEPKS3_mm
libadios2_core.so.2:_ZN6adios24core8VariableISt7complexIfEE7SetDataEPKS3_
libadios2_core.so.2:_ZN6adios24core8VariableISt7complexIfEEC1ERKNSt7__cxx1112basic_stringIcSt11char_traitsIcESaIcEEERKSt6vectorImSaImEESH_SH_b
libadios2_core.so.2:_ZN6adios24core8VariableISt7complexIfEEC2ERKNSt7__cxx1112basic_stringIcSt11char_traitsIcESaIcEEERKSt6vectorImSaImEESH_SH_b
libadios2_core.so.2:_ZN6adios24core8VariableIaE12SetBlockInfoEPKamm
libadios2_core.so.2:_ZN6adios24core8VariableIaE7SetDataEPKa
libadios2_core.so.2:_ZN6adios24core8VariableIaEC1ERKNSt7__cxx1112basic_stringIcSt11char_traitsIcESaIcEEERKSt6vectorImSaImEESF_SF_b
libadios2_core.so.2:_ZN6adios24core8VariableIaEC2ERKNSt7__cxx1112basic_stringIcSt11char_traitsIcESaIcEEERKSt6vectorImSaImEESF_SF_b
libadios2_core.so.2:_ZN6adios24core8VariableIdE12SetBlockInfoEPKdmm
libadios2_core.so.2:_ZN6adios24core8VariableIdE7SetDataEPKd
libadios2_core.so.2:_ZN6adios24core8VariableIdEC1ERKNSt7__cxx1112basic_stringIcSt11char_traitsIcESaIcEEERKSt6vectorImSaImEESF_SF_b
libadios2_core.so.2:_ZN6adios24core8VariableIdEC2ERKNSt7__cxx1112basic_stringIcSt11char_traitsIcESaIcEEERKSt6vectorImSaImEESF_SF_b
libadios2_core.so.2:_ZN6adios24core8VariableIeE12SetBlockInfoEPKemm
libadios2_core.so.2:_ZN6adios24core8VariableIeE7SetDataEPKe
libadios2_core.so.2:_ZN6adios24core8VariableIeEC1ERKNSt7__cxx1112basic_stringIcSt11char_traitsIcESaIcEEERKSt6vectorImSaImEESF_SF_b
libadios2_core.so.2:_ZN6adios24core8VariableIeEC2ERKNSt7__cxx1112basic_stringIcSt11char_traitsIcESaIcEEERKSt6vectorImSaImEESF_SF_b
libadios2_core.so.2:_ZN6adios24core8VariableIfE12SetBlockInfoEPKfmm
libadios2_core.so.2:_ZN6adios24core8VariableIfE7SetDataEPKf
libadios2_core.so.2:_ZN6adios24core8VariableIfEC1ERKNSt7__cxx1112basic_stringIcSt11char_traitsIcESaIcEEERKSt6vectorImSaImEESF_SF_b
libadios2_core.so.2:_ZN6adios24core8VariableIfEC2ERKNSt7__cxx1112basic_stringIcSt11char_traitsIcESaIcEEERKSt6vectorImSaImEESF_SF_b
libadios2_core.so.2:_ZN6adios24core8VariableIhE12SetBlockInfoEPKhmm
libadios2_core.so.2:_ZN6adios24core8VariableIhE7SetDataEPKh
libadios2_core.so.2:_ZN6adios24core8VariableIhEC1ERKNSt7__cxx1112basic_stringIcSt11char_traitsIcESaIcEEERKSt6vectorImSaImEESF_SF_b
libadios2_core.so.2:_ZN6adios24core8VariableIhEC2ERKNSt7__cxx1112basic_stringIcSt11char_traitsIcESaIcEEERKSt6vectorImSaImEESF_SF_b
libadios2_core.so.2:_ZN6adios24core8VariableIiE12SetBlockInfoEPKimm
libadios2_core.so.2:_ZN6adios24core8VariableIiE7SetDataEPKi
libadios2_core.so.2:_ZN6adios24core8VariableIiEC1ERKNSt7__cxx1112basic_stringIcSt11char_traitsIcESaIcEEERKSt6vectorImSaImEESF_SF_b
libadios2_core.so.2:_ZN6adios24core8VariableIiEC2ERKNSt7__cxx1112basic_stringIcSt11char_traitsIcESaIcEEERKSt6vectorImSaImEESF_SF_b
libadios2_core.so.2:_ZN6adios24core8VariableIjE12SetBlockInfoEPKjmm
libadios2_core.so.2:_ZN6adios24core8VariableIjE7SetDataEPKj
libadios2_core.so.2:_ZN6adios24core8VariableIjEC1ERKNSt7__cxx1112basic_stringIcSt11char_traitsIcESaIcEEERKSt6vectorImSaImEESF_SF_b
libadios2_core.so.2:_ZN6adios24core8VariableIjEC2ERKNSt7__cxx1112basic_stringIcSt11char_traitsIcESaIcEEERKSt6vectorImSaImEESF_SF_b
libadios2_core.so.2:_ZN6adios24core8VariableIlE12SetBlockInfoEPKlmm
libadios2_core.so.2:_ZN6adios24core8VariableIlE7SetDataEPKl
libadios2_core.so.2:_ZN6adios24core8VariableIlEC1ERKNSt7__cxx1112basic_stringIcSt11char_traitsIcESaIcEEERKSt6vectorImSaImEESF_SF_b
libadios2_core.so.2:_ZN6adios24core8VariableIlEC2ERKNSt7__cxx1112basic_stringIcSt11char_traitsIcESaIcEEERKSt6vectorImSaImEESF_SF_b
libadios2_core.so.2:_ZN6adios24core8VariableImE12SetBlockInfoEPKmmm
libadios2_core.so.2:_ZN6adios24core8VariableImE7SetDataEPKm
libadios2_core.so.2:_ZN6adios24core8VariableImEC1ERKNSt7__cxx1112basic_stringIcSt11char_traitsIcESaIcEEERKSt6vectorImSaImEESF_SF_b
libadios2_core.so.2:_ZN6adios24core8VariableImEC2ERKNSt7__cxx1112basic_stringIcSt11char_traitsIcESaIcEEERKSt6vectorImSaImEESF_SF_b
libadios2_core.so.2:_ZN6adios24core8VariableIsE12SetBlockInfoEPKsmm
libadios2_core.so.2:_ZN6adios24core8VariableIsE7SetDataEPKs
libadios2_core.so.2:_ZN6adios24core8VariableIsEC1ERKNSt7__cxx1112basic_stringIcSt11char_traitsIcESaIcEEERKSt6vectorImSaImEESF_SF_b
libadios2_core.so.2:_ZN6adios24core8VariableIsEC2ERKNSt7__cxx1112basic_stringIcSt11char_traitsIcESaIcEEERKSt6vectorImSaImEESF_SF_b
libadios2_core.so.2:_ZN6adios24core8VariableItE12SetBlockInfoEPKtmm
libadios2_core.so.2:_ZN6adios24core8VariableItE7SetDataEPKt
libadios2_core.so.2:_ZN6adios24core8VariableItEC1ERKNSt7__cxx1112basic_stringIcSt11char_traitsIcESaIcEEERKSt6vectorImSaImEESF_SF_b
libadios2_core.so.2:_ZN6adios24core8VariableItEC2ERKNSt7__cxx1112basic_stringIcSt11char_traitsIcESaIcEEERKSt6vectorImSaImEESF_SF_b
libadios2_core.so.2:_ZN6adios24core8callback10Signature1C1ERKSt8functionIFvPKNSt7__cxx1112basic_stringIcSt11char_traitsIcESaIcEEERSA_SC_SC_mRKSt6vectorImSaImEESH_SH_EERKSt3mapIS9_S9_St4lessIS9_ESaISt4pairISA_S9_EEE
libadios2_core.so.2:_ZN6adios24core8callback10Signature1C1ERKSt8functionIFvPKSt7complexIdERKNSt7__cxx1112basic_stringIcSt11char_traitsIcESaIcEEESF_SF_mRKSt6vectorImSaImEESK_SK_EERKSt3mapISD_SD_St4lessISD_ESaISt4pairISE_SD_EEE
libadios2_core.so.2:_ZN6adios24core8callback10Signature1C1ERKSt8functionIFvPKSt7complexIfERKNSt7__cxx1112basic_stringIcSt11char_traitsIcESaIcEEESF_SF_mRKSt6vectorImSaImEESK_SK_EERKSt3mapISD_SD_St4lessISD_ESaISt4pairISE_SD_EEE
libadios2_core.so.2:_ZN6adios24core8callback10Signature1C1ERKSt8functionIFvPKaRKNSt7__cxx1112basic_stringIcSt11char_traitsIcESaIcEEESD_SD_mRKSt6vectorImSaImEESI_SI_EERKSt3mapISB_SB_St4lessISB_ESaISt4pairISC_SB_EEE
libadios2_core.so.2:_ZN6adios24core8callback10Signature1C1ERKSt8functionIFvPKdRKNSt7__cxx1112basic_stringIcSt11char_traitsIcESaIcEEESD_SD_mRKSt6vectorImSaImEESI_SI_EERKSt3mapISB_SB_St4lessISB_ESaISt4pairISC_SB_EEE
libadios2_core.so.2:_ZN6adios24core8callback10Signature1C1ERKSt8functionIFvPKeRKNSt7__cxx1112basic_stringIcSt11char_traitsIcESaIcEEESD_SD_mRKSt6vectorImSaImEESI_SI_EERKSt3mapISB_SB_St4lessISB_ESaISt4pairISC_SB_EEE
libadios2_core.so.2:_ZN6adios24core8callback10Signature1C1ERKSt8functionIFvPKfRKNSt7__cxx1112basic_stringIcSt11char_traitsIcESaIcEEESD_SD_mRKSt6vectorImSaImEESI_SI_EERKSt3mapISB_SB_St4lessISB_ESaISt4pairISC_SB_EEE
libadios2_core.so.2:_ZN6adios24core8callback10Signature1C1ERKSt8functionIFvPKhRKNSt7__cxx1112basic_stringIcSt11char_traitsIcESaIcEEESD_SD_mRKSt6vectorImSaImEESI_SI_EERKSt3mapISB_SB_St4lessISB_ESaISt4pairISC_SB_EEE
libadios2_core.so.2:_ZN6adios24core8callback10Signature1C1ERKSt8functionIFvPKiRKNSt7__cxx1112basic_stringIcSt11char_traitsIcESaIcEEESD_SD_mRKSt6vectorImSaImEESI_SI_EERKSt3mapISB_SB_St4lessISB_ESaISt4pairISC_SB_EEE
libadios2_core.so.2:_ZN6adios24core8callback10Signature1C1ERKSt8functionIFvPKjRKNSt7__cxx1112basic_stringIcSt11char_traitsIcESaIcEEESD_SD_mRKSt6vectorImSaImEESI_SI_EERKSt3mapISB_SB_St4lessISB_ESaISt4pairISC_SB_EEE
libadios2_core.so.2:_ZN6adios24core8callback10Signature1C1ERKSt8functionIFvPKlRKNSt7__cxx1112basic_stringIcSt11char_traitsIcESaIcEEESD_SD_mRKSt6vectorImSaImEESI_SI_EERKSt3mapISB_SB_St4lessISB_ESaISt4pairISC_SB_EEE
libadios2_core.so.2:_ZN6adios24core8callback10Signature1C1ERKSt8functionIFvPKmRKNSt7__cxx1112basic_stringIcSt11char_traitsIcESaIcEEESD_SD_mRKSt6vectorImSaImEESI_SI_EERKSt3mapISB_SB_St4lessISB_ESaISt4pairISC_SB_EEE
libadios2_core.so.2:_ZN6adios24core8callback10Signature1C1ERKSt8functionIFvPKsRKNSt7__cxx1112basic_stringIcSt11char_traitsIcESaIcEEESD_SD_mRKSt6vectorImSaImEESI_SI_EERKSt3mapISB_SB_St4lessISB_ESaISt4pairISC_SB_EEE
libadios2_core.so.2:_ZN6adios24core8callback10Signature1C1ERKSt8functionIFvPKtRKNSt7__cxx1112basic_stringIcSt11char_traitsIcESaIcEEESD_SD_mRKSt6vectorImSaImEESI_SI_EERKSt3mapISB_SB_St4lessISB_ESaISt4pairISC_SB_EEE
libadios2_core.so.2:_ZN6adios24core8callback10Signature1C2ERKSt8functionIFvPKNSt7__cxx1112basic_stringIcSt11char_traitsIcESaIcEEERSA_SC_SC_mRKSt6vectorImSaImEESH_SH_EERKSt3mapIS9_S9_St4lessIS9_ESaISt4pairISA_S9_EEE
libadios2_core.so.2:_ZN6adios24core8callback10Signature1C2ERKSt8functionIFvPKSt7complexIdERKNSt7__cxx1112basic_stringIcSt11char_traitsIcESaIcEEESF_SF_mRKSt6vectorImSaImEESK_SK_EERKSt3mapISD_SD_St4lessISD_ESaISt4pairISE_SD_EEE
libadios2_core.so.2:_ZN6adios24core8callback10Signature1C2ERKSt8functionIFvPKSt7complexIfERKNSt7__cxx1112basic_stringIcSt11char_traitsIcESaIcEEESF_SF_mRKSt6vectorImSaImEESK_SK_EERKSt3mapISD_SD_St4lessISD_ESaISt4pairISE_SD_EEE
libadios2_core.so.2:_ZN6adios24core8callback10Signature1C2ERKSt8functionIFvPKaRKNSt7__cxx1112basic_stringIcSt11char_traitsIcESaIcEEESD_SD_mRKSt6vectorImSaImEESI_SI_EERKSt3mapISB_SB_St4lessISB_ESaISt4pairISC_SB_EEE
libadios2_core.so.2:_ZN6adios24core8callback10Signature1C2ERKSt8functionIFvPKdRKNSt7__cxx1112basic_stringIcSt11char_traitsIcESaIcEEESD_SD_mRKSt6vectorImSaImEESI_SI_EERKSt3mapISB_SB_St4lessISB_ESaISt4pairISC_SB_EEE
libadios2_core.so.2:_ZN6adios24core8callback10Signature1C2ERKSt8functionIFvPKeRKNSt7__cxx1112basic_stringIcSt11char_traitsIcESaIcEEESD_SD_mRKSt6vectorImSaImEESI_SI_EERKSt3mapISB_SB_St4lessISB_ESaISt4pairISC_SB_EEE
libadios2_core.so.2:_ZN6adios24core8callback10Signature1C2ERKSt8functionIFvPKfRKNSt7__cxx1112basic_stringIcSt11char_traitsIcESaIcEEESD_SD_mRKSt6vectorImSaImEESI_SI_EERKSt3mapISB_SB_St4lessISB_ESaISt4pairISC_SB_EEE
libadios2_core.so.2:_ZN6adios24core8callback10Signature1C2ERKSt8functionIFvPKhRKNSt7__cxx1112basic_stringIcSt11char_traitsIcESaIcEEESD_SD_mRKSt6vectorImSaImEESI_SI_EERKSt3mapISB_SB_St4lessISB_ESaISt4pairISC_SB_EEE
libadios2_core.so.2:_ZN6adios24core8callback10Signature1C2ERKSt8functionIFvPKiRKNSt7__cxx1112basic_stringIcSt11char_traitsIcESaIcEEESD_SD_mRKSt6vectorImSaImEESI_SI_EERKSt3mapISB_SB_St4lessISB_ESaISt4pairISC_SB_EEE
libadios2_core.so.2:_ZN6adios24core8callback10Signature1C2ERKSt8functionIFvPKjRKNSt7__cxx1112basic_stringIcSt11char_traitsIcESaIcEEESD_SD_mRKSt6vectorImSaImEESI_SI_EERKSt3mapISB_SB_St4lessISB_ESaISt4pairISC_SB_EEE
libadios2_core.so.2:_ZN6adios24core8callback10Signature1C2ERKSt8functionIFvPKlRKNSt7__cxx1112basic_stringIcSt11char_traitsIcESaIcEEESD_SD_mRKSt6vectorImSaImEESI_SI_EERKSt3mapISB_SB_St4lessISB_ESaISt4pairISC_SB_EEE
libadios2_core.so.2:_ZN6adios24core8callback10Signature1C2ERKSt8functionIFvPKmRKNSt7__cxx1112basic_stringIcSt11char_traitsIcESaIcEEESD_SD_mRKSt6vectorImSaImEESI_SI_EERKSt3mapISB_SB_St4lessISB_ESaISt4pairISC_SB_EEE
libadios2_core.so.2:_ZN6adios24core8callback10Signature1C2ERKSt8functionIFvPKsRKNSt7__cxx1112basic_stringIcSt11char_traitsIcESaIcEEESD_SD_mRKSt6vectorImSaImEESI_SI_EERKSt3mapISB_SB_St4lessISB_ESaISt4pairISC_SB_EEE
libadios2_core.so.2:_ZN6adios24core8callback10Signature1C2ERKSt8functionIFvPKtRKNSt7__cxx1112basic_stringIcSt11char_traitsIcESaIcEEESD_SD_mRKSt6vectorImSaImEESI_SI_EERKSt3mapISB_SB_St4lessISB_ESaISt4pairISC_SB_EEE
libadios2_core.so.2:_ZN6adios24core8callback10Signature2C1ERKSt8functionIFvPvRKNSt7__cxx1112basic_stringIcSt11char_traitsIcESaIcEEESC_SC_mRKSt6vectorImSaImEESH_SH_EERKSt3mapISA_SA_St4lessISA_ESaISt4pairISB_SA_EEE
libadios2_core.so.2:_ZN6adios24core8callback10Signature2C2ERKSt8functionIFvPvRKNSt7__cxx1112basic_stringIcSt11char_traitsIcESaIcEEESC_SC_mRKSt6vectorImSaImEESH_SH_EERKSt3mapISA_SA_St4lessISA_ESaISt4pairISB_SA_EEE
libadios2_core.so.2:_ZN6adios24core8compress10CompressSZC1ERKSt3mapINSt7__cxx1112basic_stringIcSt11char_traitsIcESaIcEEES9_St4lessIS9_ESaISt4pairIKS9_S9_EEE
libadios2_core.so.2:_ZN6adios24core8compress10CompressSZC2ERKSt3mapINSt7__cxx1112basic_stringIcSt11char_traitsIcESaIcEEES9_St4lessIS9_ESaISt4pairIKS9_S9_EEE
libadios2_core.so.2:_ZN6adios24core8compress11CompressPNG11m_BitDepthsB5cxx11E
libadios2_core.so.2:_ZN6adios24core8compress11CompressPNG12m_ColorTypesB5cxx11E
libadios2_core.so.2:_ZN6adios24core8compress11CompressPNGC1ERKSt3mapINSt7__cxx1112basic_stringIcSt11char_traitsIcESaIcEEES9_St4lessIS9_ESaISt4pairIKS9_S9_EEE
libadios2_core.so.2:_ZN6adios24core8compress11CompressPNGC2ERKSt3mapINSt7__cxx1112basic_stringIcSt11char_traitsIcESaIcEEES9_St4lessIS9_ESaISt4pairIKS9_S9_EEE
libadios2_core.so.2:_ZN6adios24core8compress11CompressZFPC1ERKSt3mapINSt7__cxx1112basic_stringIcSt11char_traitsIcESaIcEEES9_St4lessIS9_ESaISt4pairIKS9_S9_EEE
libadios2_core.so.2:_ZN6adios24core8compress11CompressZFPC2ERKSt3mapINSt7__cxx1112basic_stringIcSt11char_traitsIcESaIcEEES9_St4lessIS9_ESaISt4pairIKS9_S9_EEE
libadios2_core.so.2:_ZN6adios24core8compress13CompressBZIP2C1ERKSt3mapINSt7__cxx1112basic_stringIcSt11char_traitsIcESaIcEEES9_St4lessIS9_ESaISt4pairIKS9_S9_EEE
libadios2_core.so.2:_ZN6adios24core8compress13CompressBZIP2C2ERKSt3mapINSt7__cxx1112basic_stringIcSt11char_traitsIcESaIcEEES9_St4lessIS9_ESaISt4pairIKS9_S9_EEE
libadios2_core.so.2:_ZN6adios24core8compress13CompressBlosc10m_ShufflesB5cxx11E
libadios2_core.so.2:_ZN6adios24core8compress13CompressBlosc13m_CompressorsB5cxx11E
libadios2_core.so.2:_ZN6adios24core8compress13CompressBloscC1ERKSt3mapINSt7__cxx1112basic_stringIcSt11char_traitsIcESaIcEEES9_St4lessIS9_ESaISt4pairIKS9_S9_EEE
libadios2_core.so.2:_ZN6adios24core8compress13CompressBloscC2ERKSt3mapINSt7__cxx1112basic_stringIcSt11char_traitsIcESaIcEEES9_St4lessIS9_ESaISt4pairIKS9_S9_EEE
libadios2_core.so.2:_ZN6adios24core9AttributeINSt7__cxx1112basic_stringIcSt11char_traitsIcESaIcEEEEC1ERKS7_PS9_m
libadios2_core.so.2:_ZN6adios24core9AttributeINSt7__cxx1112basic_stringIcSt11char_traitsIcESaIcEEEEC1ERKS7_SA_
libadios2_core.so.2:_ZN6adios24core9AttributeINSt7__cxx1112basic_stringIcSt11char_traitsIcESaIcEEEEC1ERKS8_
libadios2_core.so.2:_ZN6adios24core9AttributeINSt7__cxx1112basic_stringIcSt11char_traitsIcESaIcEEEEC2ERKS7_PS9_m
libadios2_core.so.2:_ZN6adios24core9AttributeINSt7__cxx1112basic_stringIcSt11char_traitsIcESaIcEEEEC2ERKS7_SA_
libadios2_core.so.2:_ZN6adios24core9AttributeINSt7__cxx1112basic_stringIcSt11char_traitsIcESaIcEEEEC2ERKS8_
libadios2_core.so.2:_ZN6adios24core9AttributeISt7complexIdEEC1ERKNSt7__cxx1112basic_stringIcSt11char_traitsIcESaIcEEEPKS3_m
libadios2_core.so.2:_ZN6adios24core9AttributeISt7complexIdEEC1ERKNSt7__cxx1112basic_stringIcSt11char_traitsIcESaIcEEERKS3_
libadios2_core.so.2:_ZN6adios24core9AttributeISt7complexIdEEC1ERKS4_
libadios2_core.so.2:_ZN6adios24core9AttributeISt7complexIdEEC2ERKNSt7__cxx1112basic_stringIcSt11char_traitsIcESaIcEEEPKS3_m
libadios2_core.so.2:_ZN6adios24core9AttributeISt7complexIdEEC2ERKNSt7__cxx1112basic_stringIcSt11char_traitsIcESaIcEEERKS3_
libadios2_core.so.2:_ZN6adios24core9AttributeISt7complexIdEEC2ERKS4_
libadios2_core.so.2:_ZN6adios24core9AttributeISt7complexIfEEC1ERKNSt7__cxx1112basic_stringIcSt11char_traitsIcESaIcEEEPKS3_m
libadios2_core.so.2:_ZN6adios24core9AttributeISt7complexIfEEC1ERKNSt7__cxx1112basic_stringIcSt11char_traitsIcESaIcEEERKS3_
libadios2_core.so.2:_ZN6adios24core9AttributeISt7complexIfEEC1ERKS4_
libadios2_core.so.2:_ZN6adios24core9AttributeISt7complexIfEEC2ERKNSt7__cxx1112basic_stringIcSt11char_traitsIcESaIcEEEPKS3_m
libadios2_core.so.2:_ZN6adios24core9AttributeISt7complexIfEEC2ERKNSt7__cxx1112basic_stringIcSt11char_traitsIcESaIcEEERKS3_
libadios2_core.so.2:_ZN6adios24core9AttributeISt7complexIfEEC2ERKS4_
libadios2_core.so.2:_ZN6adios24core9AttributeIaEC1ERKNSt7__cxx1112basic_stringIcSt11char_traitsIcESaIcEEEPKam
libadios2_core.so.2:_ZN6adios24core9AttributeIaEC1ERKNSt7__cxx1112basic_stringIcSt11char_traitsIcESaIcEEERKa
libadios2_core.so.2:_ZN6adios24core9AttributeIaEC1ERKS2_
libadios2_core.so.2:_ZN6adios24core9AttributeIaEC2ERKNSt7__cxx1112basic_stringIcSt11char_traitsIcESaIcEEEPKam
libadios2_core.so.2:_ZN6adios24core9AttributeIaEC2ERKNSt7__cxx1112basic_stringIcSt11char_traitsIcESaIcEEERKa
libadios2_core.so.2:_ZN6adios24core9AttributeIaEC2ERKS2_
libadios2_core.so.2:_ZN6adios24core9AttributeIdEC1ERKNSt7__cxx1112basic_stringIcSt11char_traitsIcESaIcEEEPKdm
libadios2_core.so.2:_ZN6adios24core9AttributeIdEC1ERKNSt7__cxx1112basic_stringIcSt11char_traitsIcESaIcEEERKd
libadios2_core.so.2:_ZN6adios24core9AttributeIdEC1ERKS2_
libadios2_core.so.2:_ZN6adios24core9AttributeIdEC2ERKNSt7__cxx1112basic_stringIcSt11char_traitsIcESaIcEEEPKdm
libadios2_core.so.2:_ZN6adios24core9AttributeIdEC2ERKNSt7__cxx1112basic_stringIcSt11char_traitsIcESaIcEEERKd
libadios2_core.so.2:_ZN6adios24core9AttributeIdEC2ERKS2_
libadios2_core.so.2:_ZN6adios24core9AttributeIeEC1ERKNSt7__cxx1112basic_stringIcSt11char_traitsIcESaIcEEEPKem
libadios2_core.so.2:_ZN6adios24core9AttributeIeEC1ERKNSt7__cxx1112basic_stringIcSt11char_traitsIcESaIcEEERKe
libadios2_core.so.2:_ZN6adios24core9AttributeIeEC1ERKS2_
libadios2_core.so.2:_ZN6adios24core9AttributeIeEC2ERKNSt7__cxx1112basic_stringIcSt11char_traitsIcESaIcEEEPKem
libadios2_core.so.2:_ZN6adios24core9AttributeIeEC2ERKNSt7__cxx1112basic_stringIcSt11char_traitsIcESaIcEEERKe
libadios2_core.so.2:_ZN6adios24core9AttributeIeEC2ERKS2_
libadios2_core.so.2:_ZN6adios24core9AttributeIfEC1ERKNSt7__cxx1112basic_stringIcSt11char_traitsIcESaIcEEEPKfm
libadios2_core.so.2:_ZN6adios24core9AttributeIfEC1ERKNSt7__cxx1112basic_stringIcSt11char_traitsIcESaIcEEERKf
libadios2_core.so.2:_ZN6adios24core9AttributeIfEC1ERKS2_
libadios2_core.so.2:_ZN6adios24core9AttributeIfEC2ERKNSt7__cxx1112basic_stringIcSt11char_traitsIcESaIcEEEPKfm
libadios2_core.so.2:_ZN6adios24core9AttributeIfEC2ERKNSt7__cxx1112basic_stringIcSt11char_traitsIcESaIcEEERKf
libadios2_core.so.2:_ZN6adios24core9AttributeIfEC2ERKS2_
libadios2_core.so.2:_ZN6adios24core9AttributeIhEC1ERKNSt7__cxx1112basic_stringIcSt11char_traitsIcESaIcEEEPKhm
libadios2_core.so.2:_ZN6adios24core9AttributeIhEC1ERKNSt7__cxx1112basic_stringIcSt11char_traitsIcESaIcEEERKh
libadios2_core.so.2:_ZN6adios24core9AttributeIhEC1ERKS2_
libadios2_core.so.2:_ZN6adios24core9AttributeIhEC2ERKNSt7__cxx1112basic_stringIcSt11char_traitsIcESaIcEEEPKhm
libadios2_core.so.2:_ZN6adios24core9AttributeIhEC2ERKNSt7__cxx1112basic_stringIcSt11char_traitsIcESaIcEEERKh
libadios2_core.so.2:_ZN6adios24core9AttributeIhEC2ERKS2_
libadios2_core.so.2:_ZN6adios24core9AttributeIiEC1ERKNSt7__cxx1112basic_stringIcSt11char_traitsIcESaIcEEEPKim
libadios2_core.so.2:_ZN6adios24core9AttributeIiEC1ERKNSt7__cxx1112basic_stringIcSt11char_traitsIcESaIcEEERKi
libadios2_core.so.2:_ZN6adios24core9AttributeIiEC1ERKS2_
libadios2_core.so.2:_ZN6adios24core9AttributeIiEC2ERKNSt7__cxx1112basic_stringIcSt11char_traitsIcESaIcEEEPKim
libadios2_core.so.2:_ZN6adios24core9AttributeIiEC2ERKNSt7__cxx1112basic_stringIcSt11char_traitsIcESaIcEEERKi
libadios2_core.so.2:_ZN6adios24core9AttributeIiEC2ERKS2_
libadios2_core.so.2:_ZN6adios24core9AttributeIjEC1ERKNSt7__cxx1112basic_stringIcSt11char_traitsIcESaIcEEEPKjm
libadios2_core.so.2:_ZN6adios24core9AttributeIjEC1ERKNSt7__cxx1112basic_stringIcSt11char_traitsIcESaIcEEERKj
libadios2_core.so.2:_ZN6adios24core9AttributeIjEC1ERKS2_
libadios2_core.so.2:_ZN6adios24core9AttributeIjEC2ERKNSt7__cxx1112basic_stringIcSt11char_traitsIcESaIcEEEPKjm
libadios2_core.so.2:_ZN6adios24core9AttributeIjEC2ERKNSt7__cxx1112basic_stringIcSt11char_traitsIcESaIcEEERKj
libadios2_core.so.2:_ZN6adios24core9AttributeIjEC2ERKS2_
libadios2_core.so.2:_ZN6adios24core9AttributeIlEC1ERKNSt7__cxx1112basic_stringIcSt11char_traitsIcESaIcEEEPKlm
libadios2_core.so.2:_ZN6adios24core9AttributeIlEC1ERKNSt7__cxx1112basic_stringIcSt11char_traitsIcESaIcEEERKl
libadios2_core.so.2:_ZN6adios24core9AttributeIlEC1ERKS2_
libadios2_core.so.2:_ZN6adios24core9AttributeIlEC2ERKNSt7__cxx1112basic_stringIcSt11char_traitsIcESaIcEEEPKlm
libadios2_core.so.2:_ZN6adios24core9AttributeIlEC2ERKNSt7__cxx1112basic_stringIcSt11char_traitsIcESaIcEEERKl
libadios2_core.so.2:_ZN6adios24core9AttributeIlEC2ERKS2_
libadios2_core.so.2:_ZN6adios24core9AttributeImEC1ERKNSt7__cxx1112basic_stringIcSt11char_traitsIcESaIcEEEPKmm
libadios2_core.so.2:_ZN6adios24core9AttributeImEC1ERKNSt7__cxx1112basic_stringIcSt11char_traitsIcESaIcEEERKm
libadios2_core.so.2:_ZN6adios24core9AttributeImEC1ERKS2_
libadios2_core.so.2:_ZN6adios24core9AttributeImEC2ERKNSt7__cxx1112basic_stringIcSt11char_traitsIcESaIcEEEPKmm
libadios2_core.so.2:_ZN6adios24core9AttributeImEC2ERKNSt7__cxx1112basic_stringIcSt11char_traitsIcESaIcEEERKm
libadios2_core.so.2:_ZN6adios24core9AttributeImEC2ERKS2_
libadios2_core.so.2:_ZN6adios24core9AttributeIsEC1ERKNSt7__cxx1112basic_stringIcSt11char_traitsIcESaIcEEEPKsm
libadios2_core.so.2:_ZN6adios24core9AttributeIsEC1ERKNSt7__cxx1112basic_stringIcSt11char_traitsIcESaIcEEERKs
libadios2_core.so.2:_ZN6adios24core9AttributeIsEC1ERKS2_
libadios2_core.so.2:_ZN6adios24core9AttributeIsEC2ERKNSt7__cxx1112basic_stringIcSt11char_traitsIcESaIcEEEPKsm
libadios2_core.so.2:_ZN6adios24core9AttributeIsEC2ERKNSt7__cxx1112basic_stringIcSt11char_traitsIcESaIcEEERKs
libadios2_core.so.2:_ZN6adios24core9AttributeIsEC2ERKS2_
libadios2_core.so.2:_ZN6adios24core9AttributeItEC1ERKNSt7__cxx1112basic_stringIcSt11char_traitsIcESaIcEEEPKtm
libadios2_core.so.2:_ZN6adios24core9AttributeItEC1ERKNSt7__cxx1112basic_stringIcSt11char_traitsIcESaIcEEERKt
libadios2_core.so.2:_ZN6adios24core9AttributeItEC1ERKS2_
libadios2_core.so.2:_ZN6adios24core9AttributeItEC2ERKNSt7__cxx1112basic_stringIcSt11char_traitsIcESaIcEEEPKtm
libadios2_core.so.2:_ZN6adios24core9AttributeItEC2ERKNSt7__cxx1112basic_stringIcSt11char_traitsIcESaIcEEERKt
libadios2_core.so.2:_ZN6adios24core9AttributeItEC2ERKS2_
libadios2_core.so.2:_ZN6adios25query10JsonWorker9ParseJsonEv
libadios2_core.so.2:_ZN6adios25query14QueryComposite18BlockIndexEvaluateERNS_4core2IOERNS2_6EngineERSt6vectorISt4pairIS7_ImSaImEESA_ESaISB_EE
libadios2_core.so.2:_ZN6adios25query14QueryComposite7AddNodeEPNS0_9QueryBaseE
libadios2_core.so.2:_ZN6adios25query6Worker16GetBasicVarQueryERNS_4core2IOERKNSt7__cxx1112basic_stringIcSt11char_traitsIcESaIcEEE
libadios2_core.so.2:_ZN6adios25query6Worker17GetResultCoverageERKSt4pairISt6vectorImSaImEES5_ERS3_IS6_SaIS6_EE
libadios2_core.so.2:_ZN6adios25query6WorkerC1ERKNSt7__cxx1112basic_stringIcSt11char_traitsIcESaIcEEEPNS_4core6EngineE
libadios2_core.so.2:_ZN6adios25query6WorkerC2ERKNSt7__cxx1112basic_stringIcSt11char_traitsIcESaIcEEEPNS_4core6EngineE
libadios2_core.so.2:_ZN6adios25query6WorkerD0Ev
libadios2_core.so.2:_ZN6adios25query6WorkerD1Ev
libadios2_core.so.2:_ZN6adios25query6WorkerD2Ev
libadios2_core.so.2:_ZN6adios25query8JsonUtil12LoadVarQueryEPNS0_8QueryVarERN8nlohmann10basic_jsonISt3mapSt6vectorNSt7__cxx1112basic_stringIcSt11char_traitsIcESaIcEEEblmdSaNS4_14adl_serializerES7_IhSaIhEEEE
libadios2_core.so.2:_ZN6adios25query8JsonUtil13ConstructTreeERNS0_9RangeTreeERN8nlohmann10basic_jsonISt3mapSt6vectorNSt7__cxx1112basic_stringIcSt11char_traitsIcESaIcEEEblmdSaNS4_14adl_serializerES7_IhSaIhEEEE
libadios2_core.so.2:_ZN6adios25query8JsonUtil8HasEntryERN8nlohmann10basic_jsonISt3mapSt6vectorNSt7__cxx1112basic_stringIcSt11char_traitsIcESaIcEEEblmdSaNS2_14adl_serializerES5_IhSaIhEEEEPKc
libadios2_core.so.2:_ZN6adios25query8QueryVar13LoadSelectionERKNSt7__cxx1112basic_stringIcSt11char_traitsIcESaIcEEES9_
libadios2_core.so.2:_ZN6adios25query8QueryVar18BlockIndexEvaluateERNS_4core2IOERNS2_6EngineERSt6vectorISt4pairIS7_ImSaImEESA_ESaISB_EE
libadios2_core.so.2:_ZN6adios25query9QueryBase17ApplyOutputRegionERSt6vectorISt4pairIS2_ImSaImEES5_ESaIS6_EERKS6_
libadios2_core.so.2:_ZN6adios25query9XmlWorker11ParseIONodeERKN4pugi8xml_nodeE
libadios2_core.so.2:_ZN6adios25query9XmlWorker12ParseVarNodeERKN4pugi8xml_nodeERNS_4core2IOERNS6_6EngineE
libadios2_core.so.2:_ZN6adios25query9XmlWorker13ConstructTreeERNS0_9RangeTreeERKN4pugi8xml_nodeE
libadios2_core.so.2:_ZN6adios25query9XmlWorker14ConstructQueryERNS0_8QueryVarERKN4pugi8xml_nodeE
libadios2_core.so.2:_ZN6adios25query9XmlWorker7ParseMeEv
libadios2_core.so.2:_ZN6adios26format12BPSerializer13PutAttributesERNS_4core2IOE
libadios2_core.so.2:_ZN6adios26format12BPSerializer13PutMinifooterEmmmRSt6vectorIcSaIcEERmb
libadios2_core.so.2:_ZN6adios26format12BPSerializer13PutNameRecordENSt7__cxx1112basic_stringIcSt11char_traitsIcESaIcEEERSt6vectorIcS6_E
libadios2_core.so.2:_ZN6adios26format12BPSerializer13PutNameRecordENSt7__cxx1112basic_stringIcSt11char_traitsIcESaIcEEERSt6vectorIcS6_ERm
libadios2_core.so.2:_ZN6adios26format12BPSerializer13SerializeDataERNS_4core2IOEb
libadios2_core.so.2:_ZN6adios26format12BPSerializer19PutDimensionsRecordERKSt6vectorImSaImEES6_S6_RS2_IcSaIcEE
libadios2_core.so.2:_ZN6adios26format12BPSerializer19PutDimensionsRecordERKSt6vectorImSaImEES6_S6_RS2_IcSaIcEERmb
libadios2_core.so.2:_ZN6adios26format12BPSerializer20GetRankProfilingJSONERKSt6vectorINSt7__cxx1112basic_stringIcSt11char_traitsIcESaIcEEESaIS8_EERKS2_IPNS_9profiling8IOChronoESaISF_EE
libadios2_core.so.2:_ZN6adios26format12BPSerializer21MergeSerializeIndicesERKSt13unordered_mapINSt7__cxx1112basic_stringIcSt11char_traitsIcESaIcEEESt6vectorINS0_6BPBase18SerialElementIndexESaISB_EESt4hashIS8_ESt8equal_toIS8_ESaISt4pairIKS8_SD_EEERKNS_6helper4CommERNS0_9BufferSTLE
libadios2_core.so.2:_ZN6adios26format12BPSerializer23UpdateOffsetsInMetadataEv
libadios2_core.so.2:_ZN6adios26format12BPSerializer7m_MutexE
libadios2_core.so.2:_ZN6adios26format12BPSerializerC1ERKNS_6helper4CommEh
libadios2_core.so.2:_ZN6adios26format12BPSerializerC2ERKNS_6helper4CommEh
libadios2_core.so.2:_ZN6adios26format13BP3Serializer11CloseStreamERNS_4core2IOERmS5_b
libadios2_core.so.2:_ZN6adios26format13BP3Serializer11CloseStreamERNS_4core2IOEb
libadios2_core.so.2:_ZN6adios26format13BP3Serializer12ResetIndicesEv
libadios2_core.so.2:_ZN6adios26format13BP3Serializer19SerializeDataBufferERNS_4core2IOE
libadios2_core.so.2:_ZN6adios26format13BP3Serializer20DoPutAttributeInDataERKNS_4core9AttributeINSt7__cxx1112basic_stringIcSt11char_traitsIcESaIcEEEEERNS0_6BPBase5StatsIS9_EE
libadios2_core.so.2:_ZN6adios26format13BP3Serializer20DoPutAttributeInDataERKNS_4core9AttributeISt7complexIdEEERNS0_6BPBase5StatsIS5_EE
libadios2_core.so.2:_ZN6adios26format13BP3Serializer20DoPutAttributeInDataERKNS_4core9AttributeISt7complexIfEEERNS0_6BPBase5StatsIS5_EE
libadios2_core.so.2:_ZN6adios26format13BP3Serializer20DoPutAttributeInDataERKNS_4core9AttributeIaEERNS0_6BPBase5StatsIaEE
libadios2_core.so.2:_ZN6adios26format13BP3Serializer20DoPutAttributeInDataERKNS_4core9AttributeIdEERNS0_6BPBase5StatsIdEE
libadios2_core.so.2:_ZN6adios26format13BP3Serializer20DoPutAttributeInDataERKNS_4core9AttributeIeEERNS0_6BPBase5StatsIeEE
libadios2_core.so.2:_ZN6adios26format13BP3Serializer20DoPutAttributeInDataERKNS_4core9AttributeIfEERNS0_6BPBase5StatsIfEE
libadios2_core.so.2:_ZN6adios26format13BP3Serializer20DoPutAttributeInDataERKNS_4core9AttributeIhEERNS0_6BPBase5StatsIhEE
libadios2_core.so.2:_ZN6adios26format13BP3Serializer20DoPutAttributeInDataERKNS_4core9AttributeIiEERNS0_6BPBase5StatsIiEE
libadios2_core.so.2:_ZN6adios26format13BP3Serializer20DoPutAttributeInDataERKNS_4core9AttributeIjEERNS0_6BPBase5StatsIjEE
libadios2_core.so.2:_ZN6adios26format13BP3Serializer20DoPutAttributeInDataERKNS_4core9AttributeIlEERNS0_6BPBase5StatsIlEE
libadios2_core.so.2:_ZN6adios26format13BP3Serializer20DoPutAttributeInDataERKNS_4core9AttributeImEERNS0_6BPBase5StatsImEE
libadios2_core.so.2:_ZN6adios26format13BP3Serializer20DoPutAttributeInDataERKNS_4core9AttributeIsEERNS0_6BPBase5StatsIsEE
libadios2_core.so.2:_ZN6adios26format13BP3Serializer20DoPutAttributeInDataERKNS_4core9AttributeItEERNS0_6BPBase5StatsItEE
libadios2_core.so.2:_ZN6adios26format13BP3Serializer20PutProcessGroupIndexERKNSt7__cxx1112basic_stringIcSt11char_traitsIcESaIcEEES7_RKSt6vectorIS7_SaIS7_EE
libadios2_core.so.2:_ZN6adios26format13BP3Serializer23SerializeMetadataInDataEbb
libadios2_core.so.2:_ZN6adios26format13BP3Serializer27AggregateCollectiveMetadataERKNS_6helper4CommERNS0_9BufferSTLEb
libadios2_core.so.2:_ZN6adios26format13BP3Serializer34AggregateCollectiveMetadataIndicesERKNS_6helper4CommERNS0_9BufferSTLE
libadios2_core.so.2:_ZN6adios26format13BP3Serializer9CloseDataERNS_4core2IOE
libadios2_core.so.2:_ZN6adios26format13BP3SerializerC1ERKNS_6helper4CommE
libadios2_core.so.2:_ZN6adios26format13BP3SerializerC2ERKNS_6helper4CommE
libadios2_core.so.2:_ZN6adios26format13BP4Serializer10MakeHeaderERNS0_9BufferSTLENSt7__cxx1112basic_stringIcSt11char_traitsIcESaIcEEEb
libadios2_core.so.2:_ZN6adios26format13BP4Serializer11CloseStreamERNS_4core2IOEb
libadios2_core.so.2:_ZN6adios26format13BP4Serializer15ResetAllIndicesEv
libadios2_core.so.2:_ZN6adios26format13BP4Serializer19SerializeDataBufferERNS_4core2IOE
libadios2_core.so.2:_ZN6adios26format13BP4Serializer20DoPutAttributeInDataERKNS_4core9AttributeINSt7__cxx1112basic_stringIcSt11char_traitsIcESaIcEEEEERNS0_6BPBase5StatsIS9_EE
libadios2_core.so.2:_ZN6adios26format13BP4Serializer20DoPutAttributeInDataERKNS_4core9AttributeISt7complexIdEEERNS0_6BPBase5StatsIS5_EE
libadios2_core.so.2:_ZN6adios26format13BP4Serializer20DoPutAttributeInDataERKNS_4core9AttributeISt7complexIfEEERNS0_6BPBase5StatsIS5_EE
libadios2_core.so.2:_ZN6adios26format13BP4Serializer20DoPutAttributeInDataERKNS_4core9AttributeIaEERNS0_6BPBase5StatsIaEE
libadios2_core.so.2:_ZN6adios26format13BP4Serializer20DoPutAttributeInDataERKNS_4core9AttributeIdEERNS0_6BPBase5StatsIdEE
libadios2_core.so.2:_ZN6adios26format13BP4Serializer20DoPutAttributeInDataERKNS_4core9AttributeIeEERNS0_6BPBase5StatsIeEE
libadios2_core.so.2:_ZN6adios26format13BP4Serializer20DoPutAttributeInDataERKNS_4core9AttributeIfEERNS0_6BPBase5StatsIfEE
libadios2_core.so.2:_ZN6adios26format13BP4Serializer20DoPutAttributeInDataERKNS_4core9AttributeIhEERNS0_6BPBase5StatsIhEE
libadios2_core.so.2:_ZN6adios26format13BP4Serializer20DoPutAttributeInDataERKNS_4core9AttributeIiEERNS0_6BPBase5StatsIiEE
libadios2_core.so.2:_ZN6adios26format13BP4Serializer20DoPutAttributeInDataERKNS_4core9AttributeIjEERNS0_6BPBase5StatsIjEE
libadios2_core.so.2:_ZN6adios26format13BP4Serializer20DoPutAttributeInDataERKNS_4core9AttributeIlEERNS0_6BPBase5StatsIlEE
libadios2_core.so.2:_ZN6adios26format13BP4Serializer20DoPutAttributeInDataERKNS_4core9AttributeImEERNS0_6BPBase5StatsImEE
libadios2_core.so.2:_ZN6adios26format13BP4Serializer20DoPutAttributeInDataERKNS_4core9AttributeIsEERNS0_6BPBase5StatsIsEE
libadios2_core.so.2:_ZN6adios26format13BP4Serializer20DoPutAttributeInDataERKNS_4core9AttributeItEERNS0_6BPBase5StatsItEE
libadios2_core.so.2:_ZN6adios26format13BP4Serializer20PutProcessGroupIndexERKNSt7__cxx1112basic_stringIcSt11char_traitsIcESaIcEEES7_RKSt6vectorIS7_SaIS7_EE
libadios2_core.so.2:_ZN6adios26format13BP4Serializer23ResetMetadataIndexTableEv
libadios2_core.so.2:_ZN6adios26format13BP4Serializer23SerializeMetadataInDataEbb
libadios2_core.so.2:_ZN6adios26format13BP4Serializer27AggregateCollectiveMetadataERKNS_6helper4CommERNS0_9BufferSTLEb
libadios2_core.so.2:_ZN6adios26format13BP4Serializer34AggregateCollectiveMetadataIndicesERKNS_6helper4CommERNS0_9BufferSTLE
libadios2_core.so.2:_ZN6adios26format13BP4Serializer9CloseDataERNS_4core2IOE
libadios2_core.so.2:_ZN6adios26format13BP4SerializerC1ERKNS_6helper4CommE
libadios2_core.so.2:_ZN6adios26format13BP4SerializerC2ERKNS_6helper4CommE
libadios2_core.so.2:_ZN6adios26format13BufferSystemV4DataEv
libadios2_core.so.2:_ZN6adios26format13BufferSystemV5ResetEbb
libadios2_core.so.2:_ZN6adios26format13BufferSystemVC1EmRKNSt7__cxx1112basic_stringIcSt11char_traitsIcESaIcEEEjb
libadios2_core.so.2:_ZN6adios26format13BufferSystemVC2EmRKNSt7__cxx1112basic_stringIcSt11char_traitsIcESaIcEEEjb
libadios2_core.so.2:_ZN6adios26format13BufferSystemVD0Ev
libadios2_core.so.2:_ZN6adios26format13BufferSystemVD1Ev
libadios2_core.so.2:_ZN6adios26format13BufferSystemVD2Ev
libadios2_core.so.2:_ZN6adios26format15BP3Deserializer12ParsePGIndexERKNS0_9BufferSTLENSt7__cxx1112basic_stringIcSt11char_traitsIcESaIcEEE
libadios2_core.so.2:_ZN6adios26format15BP3Deserializer13MetadataStartERKNS0_9BufferSTLE
libadios2_core.so.2:_ZN6adios26format15BP3Deserializer13ParseMetadataERKNS0_9BufferSTLERNS_4core6EngineE
libadios2_core.so.2:_ZN6adios26format15BP3Deserializer15ParseMinifooterERKNS0_9BufferSTLE
libadios2_core.so.2:_ZN6adios26format15BP3Deserializer19ParseVariablesIndexERKNS0_9BufferSTLERNS_4core6EngineE
libadios2_core.so.2:_ZN6adios26format15BP3Deserializer20ParseAttributesIndexERKNS0_9BufferSTLERNS_4core6EngineE
libadios2_core.so.2:_ZN6adios26format15BP3Deserializer31PerformGetsVariablesSubFileInfoB5cxx11ERNS_4core2IOE
libadios2_core.so.2:_ZN6adios26format15BP3Deserializer7m_MutexE
libadios2_core.so.2:_ZN6adios26format15BP3DeserializerC1ERKNS_6helper4CommE
libadios2_core.so.2:_ZN6adios26format15BP3DeserializerC2ERKNS_6helper4CommE
libadios2_core.so.2:_ZN6adios26format15BP4Deserializer13ParseMetadataERKNS0_9BufferSTLERNS_4core6EngineEb
libadios2_core.so.2:_ZN6adios26format15BP4Deserializer14ReadActiveFlagERSt6vectorIcSaIcEE
libadios2_core.so.2:_ZN6adios26format15BP4Deserializer18ParseMetadataIndexERNS0_9BufferSTLEmbb
libadios2_core.so.2:_ZN6adios26format15BP4Deserializer19ParsePGIndexPerStepERKNS0_9BufferSTLENSt7__cxx1112basic_stringIcSt11char_traitsIcESaIcEEEmm
libadios2_core.so.2:_ZN6adios26format15BP4Deserializer26ParseVariablesIndexPerStepERKNS0_9BufferSTLERNS_4core6EngineEmm
libadios2_core.so.2:_ZN6adios26format15BP4Deserializer27ParseAttributesIndexPerStepERKNS0_9BufferSTLERNS_4core6EngineEmm
libadios2_core.so.2:_ZN6adios26format15BP4Deserializer31PerformGetsVariablesSubFileInfoB5cxx11ERNS_4core2IOE
libadios2_core.so.2:_ZN6adios26format15BP4Deserializer7m_MutexE
libadios2_core.so.2:_ZN6adios26format15BP4DeserializerC1ERKNS_6helper4CommE
libadios2_core.so.2:_ZN6adios26format15BP4DeserializerC2ERKNS_6helper4CommE
libadios2_core.so.2:_ZN6adios26format17DataManSerializer12GetLocalPackEv
libadios2_core.so.2:_ZN6adios26format17DataManSerializer12JsonToVarMapERN8nlohmann10basic_jsonISt3mapSt6vectorNSt7__cxx1112basic_stringIcSt11char_traitsIcESaIcEEEblmdSaNS2_14adl_serializerES5_IhSaIhEEEESt10shared_ptrIS5_IcSA_EE
libadios2_core.so.2:_ZN6adios26format17DataManSerializer13GetAttributesERNS_4core2IOE
libadios2_core.so.2:_ZN6adios26format17DataManSerializer13PutAttributesERNS_4core2IOE
libadios2_core.so.2:_ZN6adios26format17DataManSerializer13PutPackThreadESt10shared_ptrISt6vectorIcSaIcEEE
libadios2_core.so.2:_ZN6adios26format17DataManSerializer13SerializeJsonERKN8nlohmann10basic_jsonISt3mapSt6vectorNSt7__cxx1112basic_stringIcSt11char_traitsIcESaIcEEEblmdSaNS2_14adl_serializerES5_IhSaIhEEEE
libadios2_core.so.2:_ZN6adios26format17DataManSerializer14GetDestinationB5cxx11Ev
libadios2_core.so.2:_ZN6adios26format17DataManSerializer14SetDestinationERKNSt7__cxx1112basic_stringIcSt11char_traitsIcESaIcEEE
libadios2_core.so.2:_ZN6adios26format17DataManSerializer15DeserializeJsonB5cxx11EPKcm
libadios2_core.so.2:_ZN6adios26format17DataManSerializer15LocalBufferSizeEv
libadios2_core.so.2:_ZN6adios26format17DataManSerializer15NewWriterBufferEm
libadios2_core.so.2:_ZN6adios26format17DataManSerializer18GetFullMetadataMapEv
libadios2_core.so.2:_ZN6adios26format17DataManSerializer20StepHasMinimumBlocksEmi
libadios2_core.so.2:_ZN6adios26format17DataManSerializer21GetEarliestLatestStepERlifb
libadios2_core.so.2:_ZN6adios26format17DataManSerializer22IsCompressionAvailableERKNSt7__cxx1112basic_stringIcSt11char_traitsIcESaIcEEENS_8DataTypeERKSt6vectorImSaImEE
libadios2_core.so.2:_ZN6adios26format17DataManSerializer27AttachAttributesToLocalPackEv
libadios2_core.so.2:_ZN6adios26format17DataManSerializer3LogEiRKNSt7__cxx1112basic_stringIcSt11char_traitsIcESaIcEEEbb
libadios2_core.so.2:_ZN6adios26format17DataManSerializer5EraseEmb
libadios2_core.so.2:_ZN6adios26format17DataManSerializer7PutPackESt10shared_ptrISt6vectorIcSaIcEEEb
libadios2_core.so.2:_ZN6adios26format17DataManSerializerC1ERKNS_6helper4CommEb
libadios2_core.so.2:_ZN6adios26format17DataManSerializerC2ERKNS_6helper4CommEb
libadios2_core.so.2:_ZN6adios26format17DataManSerializerD1Ev
libadios2_core.so.2:_ZN6adios26format17DataManSerializerD2Ev
libadios2_core.so.2:_ZN6adios26format6BPBase10MinifooterC1Ea
libadios2_core.so.2:_ZN6adios26format6BPBase10MinifooterC2Ea
libadios2_core.so.2:_ZN6adios26format6BPBase11ResetBufferERNS0_6BufferEbb
libadios2_core.so.2:_ZN6adios26format6BPBase12ResizeBufferEmNSt7__cxx1112basic_stringIcSt11char_traitsIcESaIcEEE
libadios2_core.so.2:_ZN6adios26format6BPBase13DeleteBuffersEv
libadios2_core.so.2:_ZN6adios26format6BPBase16m_TransformTypesB5cxx11E
libadios2_core.so.2:_ZN6adios26format6BPBase18SerialElementIndexC1Ejm
libadios2_core.so.2:_ZN6adios26format6BPBase18SerialElementIndexC2Ejm
libadios2_core.so.2:_ZN6adios26format6BPBase23m_TransformTypesToNamesB5cxx11E
libadios2_core.so.2:_ZN6adios26format6BPBase4InitERKSt3mapINSt7__cxx1112basic_stringIcSt11char_traitsIcESaIcEEES8_St4lessIS8_ESaISt4pairIKS8_S8_EEES8_S8_
libadios2_core.so.2:_ZN6adios26format6BPBaseC1ERKNS_6helper4CommE
libadios2_core.so.2:_ZN6adios26format6BPBaseC2ERKNS_6helper4CommE
libadios2_core.so.2:_ZN6adios26format6Buffer4DataEv
libadios2_core.so.2:_ZN6adios26format6Buffer5ResetEbb
libadios2_core.so.2:_ZN6adios26format6Buffer6DeleteEv
libadios2_core.so.2:_ZN6adios26format6Buffer6ResizeEmNSt7__cxx1112basic_stringIcSt11char_traitsIcESaIcEEE
libadios2_core.so.2:_ZN6adios26format6BufferC1ENSt7__cxx1112basic_stringIcSt11char_traitsIcESaIcEEEm
libadios2_core.so.2:_ZN6adios26format6BufferC2ENSt7__cxx1112basic_stringIcSt11char_traitsIcESaIcEEEm
libadios2_core.so.2:_ZN6adios26format7BP3BaseC1ERKNS_6helper4CommE
libadios2_core.so.2:_ZN6adios26format7BP3BaseC2ERKNS_6helper4CommE
libadios2_core.so.2:_ZN6adios26format7BP4BaseC1ERKNS_6helper4CommE
libadios2_core.so.2:_ZN6adios26format7BP4BaseC2ERKNS_6helper4CommE
libadios2_core.so.2:_ZN6adios26format9BufferSTL4DataEv
libadios2_core.so.2:_ZN6adios26format9BufferSTL5ResetEbb
libadios2_core.so.2:_ZN6adios26format9BufferSTL6DeleteEv
libadios2_core.so.2:_ZN6adios26format9BufferSTL6ResizeEmNSt7__cxx1112basic_stringIcSt11char_traitsIcESaIcEEE
libadios2_core.so.2:_ZN6adios26format9BufferSTLC1Ev
libadios2_core.so.2:_ZN6adios26format9BufferSTLC2Ev
libadios2_core.so.2:_ZN6adios26helper10GlobalNameERKNSt7__cxx1112basic_stringIcSt11char_traitsIcESaIcEEES8_S6_
libadios2_core.so.2:_ZN6adios26helper10IsHDF5FileERKNSt7__cxx1112basic_stringIcSt11char_traitsIcESaIcEEERNS0_4CommERKSt6vectorISt3mapIS6_S6_St4lessIS6_ESaISt4pairIS7_S6_EEESaISI_EE
libadios2_core.so.2:_ZN6adios26helper10IsRowMajorENSt7__cxx1112basic_stringIcSt11char_traitsIcESaIcEEE
libadios2_core.so.2:_ZN6adios26helper11BytesFactorENSt7__cxx1112basic_stringIcSt11char_traitsIcESaIcEEE
libadios2_core.so.2:_ZN6adios26helper11CommReqImplD0Ev
libadios2_core.so.2:_ZN6adios26helper11CommReqImplD1Ev
libadios2_core.so.2:_ZN6adios26helper11CommReqImplD2Ev
libadios2_core.so.2:_ZN6adios26helper11CopyPayloadEPcRKSt6vectorImSaImEES6_bPKcS6_S6_bS6_S6_S6_S6_bNS_8DataTypeE
libadios2_core.so.2:_ZN6adios26helper11DivideBlockERKSt6vectorImSaImEEmNS0_19BlockDivisionMethodE
libadios2_core.so.2:_ZN6adios26helper11GetDistanceEmmRKNSt7__cxx1112basic_stringIcSt11char_traitsIcESaIcEEE
libadios2_core.so.2:_ZN6adios26helper11GetSubBlockERKSt6vectorImSaImEERKNS0_17BlockDivisionInfoEi
libadios2_core.so.2:_ZN6adios26helper11LinearIndexERKSt4pairISt6vectorImSaImEES4_ERKS4_b
libadios2_core.so.2:_ZN6adios26helper11LinearIndexERKSt6vectorImSaImEES5_S5_b
libadios2_core.so.2:_ZN6adios26helper11StartEndBoxERKSt6vectorImSaImEES5_b
libadios2_core.so.2:_ZN6adios26helper11XMLDocumentERKNSt7__cxx1112basic_stringIcSt11char_traitsIcESaIcEEES6_
libadios2_core.so.2:_ZN6adios26helper12AddExtensionERKNSt7__cxx1112basic_stringIcSt11char_traitsIcESaIcEEES6_
libadios2_core.so.2:_ZN6adios26helper12DimsToStringB5cxx11ERKSt6vectorImSaImEE
libadios2_core.so.2:_ZN6adios26helper12FileToStringERKNSt7__cxx1112basic_stringIcSt11char_traitsIcESaIcEEES6_
libadios2_core.so.2:_ZN6adios26helper12GetParameterENSt7__cxx1112basic_stringIcSt11char_traitsIcESaIcEEERKSt3mapIS6_S6_St4lessIS6_ESaISt4pairIKS6_S6_EEEbS6_
libadios2_core.so.2:_ZN6adios26helper12GetParameterINSt7__cxx1112basic_stringIcSt11char_traitsIcESaIcEEEEEbRKSt3mapIS7_S7_St4lessIS7_ESaISt4pairIKS7_S7_EEERSC_RT_
libadios2_core.so.2:_ZN6adios26helper12GetParameterIbEEbRKSt3mapINSt7__cxx1112basic_stringIcSt11char_traitsIcESaIcEEES8_St4lessIS8_ESaISt4pairIKS8_S8_EEERSC_RT_
libadios2_core.so.2:_ZN6adios26helper12GetParameterIiEEbRKSt3mapINSt7__cxx1112basic_stringIcSt11char_traitsIcESaIcEEES8_St4lessIS8_ESaISt4pairIKS8_S8_EEERSC_RT_
libadios2_core.so.2:_ZN6adios26helper12GetTotalSizeERKSt6vectorImSaImEE
libadios2_core.so.2:_ZN6adios26helper12StringToDimsERKNSt7__cxx1112basic_stringIcSt11char_traitsIcESaIcEEE
libadios2_core.so.2:_ZN6adios26helper12XMLAttributeENSt7__cxx1112basic_stringIcSt11char_traitsIcESaIcEEERKN4pugi8xml_nodeES6_b
libadios2_core.so.2:_ZN6adios26helper13CommImplDummy4FreeERKNSt7__cxx1112basic_stringIcSt11char_traitsIcESaIcEEE
libadios2_core.so.2:_ZN6adios26helper13CommImplDummyD0Ev
libadios2_core.so.2:_ZN6adios26helper13CommImplDummyD1Ev
libadios2_core.so.2:_ZN6adios26helper13CommImplDummyD2Ev
libadios2_core.so.2:_ZN6adios26helper13DynamicBinder9GetSymbolENSt7__cxx1112basic_stringIcSt11char_traitsIcESaIcEEE
libadios2_core.so.2:_ZN6adios26helper13DynamicBinderC1ENSt7__cxx1112basic_stringIcSt11char_traitsIcESaIcEEE
libadios2_core.so.2:_ZN6adios26helper13DynamicBinderC2ENSt7__cxx1112basic_stringIcSt11char_traitsIcESaIcEEE
libadios2_core.so.2:_ZN6adios26helper13DynamicBinderD1Ev
libadios2_core.so.2:_ZN6adios26helper13DynamicBinderD2Ev
libadios2_core.so.2:_ZN6adios26helper13IsZeroIndexedENSt7__cxx1112basic_stringIcSt11char_traitsIcESaIcEEE
libadios2_core.so.2:_ZN6adios26helper13LocalTimeDateB5cxx11Ev
libadios2_core.so.2:_ZN6adios26helper13PrefixMatchesERKNSt7__cxx1112basic_stringIcSt11char_traitsIcESaIcEEERKSt3setIS6_St4lessIS6_ESaIS6_EE
libadios2_core.so.2:_ZN6adios26helper13StartCountBoxERKSt6vectorImSaImEES5_
libadios2_core.so.2:_ZN6adios26helper13StringToSizeTERKNSt7__cxx1112basic_stringIcSt11char_traitsIcESaIcEEES8_
libadios2_core.so.2:_ZN6adios26helper14CSVToVectorIntENSt7__cxx1112basic_stringIcSt11char_traitsIcESaIcEEE
libadios2_core.so.2:_ZN6adios26helper14IdenticalBoxesERKSt4pairISt6vectorImSaImEES4_ES7_
libadios2_core.so.2:_ZN6adios26helper14IsLittleEndianEv
libadios2_core.so.2:_ZN6adios26helper14ParseConfigXMLERNS_4core5ADIOSERKNSt7__cxx1112basic_stringIcSt11char_traitsIcESaIcEEERSt3mapIS9_NS1_2IOESt4lessIS9_ESaISt4pairISA_SD_EEERSC_IS9_St10shared_ptrINS1_8OperatorEESF_SaISG_ISA_SN_EEE
libadios2_core.so.2:_ZN6adios26helper15CheckIndexRangeEiii
libadios2_core.so.2:_ZN6adios26helper15CreateDirectoryERKNSt7__cxx1112basic_stringIcSt11char_traitsIcESaIcEEE
libadios2_core.so.2:_ZN6adios26helper15HandshakeReaderERKNS0_4CommERmRSt6vectorINSt7__cxx1112basic_stringIcSt11char_traitsIcESaIcEEESaISB_EERKSB_SG_
libadios2_core.so.2:_ZN6adios26helper15HandshakeWriterERKNS0_4CommERmRSt6vectorINSt7__cxx1112basic_stringIcSt11char_traitsIcESaIcEEESaISB_EERKSB_SG_iiii
libadios2_core.so.2:_ZN6adios26helper15IntersectionBoxERKSt4pairISt6vectorImSaImEES4_ES7_
libadios2_core.so.2:_ZN6adios26helper15LowerCaseParamsERKSt3mapINSt7__cxx1112basic_stringIcSt11char_traitsIcESaIcEEES7_St4lessIS7_ESaISt4pairIKS7_S7_EEE
libadios2_core.so.2:_ZN6adios26helper15ParseConfigYAMLERNS_4core5ADIOSERKNSt7__cxx1112basic_stringIcSt11char_traitsIcESaIcEEERSt3mapIS9_NS1_2IOESt4lessIS9_ESaISt4pairISA_SD_EEERSC_IS9_St10shared_ptrINS1_8OperatorEESF_SaISG_ISA_SN_EEE
libadios2_core.so.2:_ZN6adios26helper16CommReqImplDummy4WaitERKNSt7__cxx1112basic_stringIcSt11char_traitsIcESaIcEEE
libadios2_core.so.2:_ZN6adios26helper16CommReqImplDummyD0Ev
libadios2_core.so.2:_ZN6adios26helper16CommReqImplDummyD1Ev
libadios2_core.so.2:_ZN6adios26helper16CommReqImplDummyD2Ev
libadios2_core.so.2:_ZN6adios26helper16ExceptionToErrorERKNSt7__cxx1112basic_stringIcSt11char_traitsIcESaIcEEE
libadios2_core.so.2:_ZN6adios26helper16OpenModeToStringB5cxx11ENS_4ModeEb
libadios2_core.so.2:_ZN6adios26helper16StringToTimeUnitENSt7__cxx1112basic_stringIcSt11char_traitsIcESaIcEEES6_
libadios2_core.so.2:_ZN6adios26helper16XMLGetParametersERKN4pugi8xml_nodeENSt7__cxx1112basic_stringIcSt11char_traitsIcESaIcEEESA_SA_
libadios2_core.so.2:_ZN6adios26helper17SetParameterValueENSt7__cxx1112basic_stringIcSt11char_traitsIcESaIcEEERKSt3mapIS6_S6_St4lessIS6_ESaISt4pairIKS6_S6_EEERS6_
libadios2_core.so.2:_ZN6adios26helper17StringToByteUnitsERKNSt7__cxx1112basic_stringIcSt11char_traitsIcESaIcEEES8_
libadios2_core.so.2:_ZN6adios26helper18BuildParametersMapERKNSt7__cxx1112basic_stringIcSt11char_traitsIcESaIcEEEcc
libadios2_core.so.2:_ZN6adios26helper18BuildParametersMapERKSt6vectorINSt7__cxx1112basic_stringIcSt11char_traitsIcESaIcEEESaIS7_EEc
libadios2_core.so.2:_ZN6adios26helper19GetParametersValuesERKNSt7__cxx1112basic_stringIcSt11char_traitsIcESaIcEEERKSt6vectorISt3mapIS6_S6_St4lessIS6_ESaISt4pairIS7_S6_EEESaISG_EE
libadios2_core.so.2:_ZN6adios26helper19NextExponentialSizeEmmf
libadios2_core.so.2:_ZN6adios26helper19RemoveTrailingSlashERKNSt7__cxx1112basic_stringIcSt11char_traitsIcESaIcEEE
libadios2_core.so.2:_ZN6adios26helper20AvailableIpAddressesB5cxx11Ev
libadios2_core.so.2:_ZN6adios26helper20SetParameterValueIntENSt7__cxx1112basic_stringIcSt11char_traitsIcESaIcEEERKSt3mapIS6_S6_St4lessIS6_ESaISt4pairIKS6_S6_EEERiRSB_
libadios2_core.so.2:_ZN6adios26helper21CalculateSubblockInfoERKSt6vectorImSaImEERNS0_17BlockDivisionInfoE
libadios2_core.so.2:_ZN6adios26helper21GetDataTypeFromStringERKNSt7__cxx1112basic_stringIcSt11char_traitsIcESaIcEEE
libadios2_core.so.2:_ZN6adios26helper21PaddingToAlignPointerEPKv
libadios2_core.so.2:_ZN6adios26helper22IntersectionStartCountERKSt6vectorImSaImEES5_S5_S5_
libadios2_core.so.2:_ZN6adios26helper24Uint64ArrayToSizetVectorEmPKm
libadios2_core.so.2:_ZN6adios26helper24Uint64ArrayToSizetVectorEmPKmRSt6vectorImSaImEE
libadios2_core.so.2:_ZN6adios26helper25Uint64VectorToSizetVectorERKSt6vectorImSaImEE
libadios2_core.so.2:_ZN6adios26helper32ConvertUint64VectorToSizetVectorERKSt6vectorImSaImEERS3_
libadios2_core.so.2:_ZN6adios26helper32IsIntersectionContiguousSubarrayERKSt4pairISt6vectorImSaImEES4_ES7_bRm
libadios2_core.so.2:_ZN6adios26helper4Comm23GetGathervDisplacementsEPKmm
libadios2_core.so.2:_ZN6adios26helper4Comm3Req4WaitERKNSt7__cxx1112basic_stringIcSt11char_traitsIcESaIcEEE
libadios2_core.so.2:_ZN6adios26helper4Comm3ReqC1EOS2_
libadios2_core.so.2:_ZN6adios26helper4Comm3ReqC1ESt10unique_ptrINS0_11CommReqImplESt14default_deleteIS4_EE
libadios2_core.so.2:_ZN6adios26helper4Comm3ReqC1Ev
libadios2_core.so.2:_ZN6adios26helper4Comm3ReqC2EOS2_
libadios2_core.so.2:_ZN6adios26helper4Comm3ReqC2ESt10unique_ptrINS0_11CommReqImplESt14default_deleteIS4_EE
libadios2_core.so.2:_ZN6adios26helper4Comm3ReqC2Ev
libadios2_core.so.2:_ZN6adios26helper4Comm3ReqD1Ev
libadios2_core.so.2:_ZN6adios26helper4Comm3ReqD2Ev
libadios2_core.so.2:_ZN6adios26helper4Comm3ReqaSEOS2_
libadios2_core.so.2:_ZN6adios26helper4Comm4FreeERKNSt7__cxx1112basic_stringIcSt11char_traitsIcESaIcEEE
libadios2_core.so.2:_ZN6adios26helper4CommC1EOS1_
libadios2_core.so.2:_ZN6adios26helper4CommC1ESt10unique_ptrINS0_8CommImplESt14default_deleteIS3_EE
libadios2_core.so.2:_ZN6adios26helper4CommC1Ev
libadios2_core.so.2:_ZN6adios26helper4CommC2EOS1_
libadios2_core.so.2:_ZN6adios26helper4CommC2ESt10unique_ptrINS0_8CommImplESt14default_deleteIS3_EE
libadios2_core.so.2:_ZN6adios26helper4CommC2Ev
libadios2_core.so.2:_ZN6adios26helper4CommD1Ev
libadios2_core.so.2:_ZN6adios26helper4CommD2Ev
libadios2_core.so.2:_ZN6adios26helper4CommaSEOS1_
libadios2_core.so.2:_ZN6adios26helper7XMLNodeENSt7__cxx1112basic_stringIcSt11char_traitsIcESaIcEEERKN4pugi12xml_documentES6_bb
libadios2_core.so.2:_ZN6adios26helper7XMLNodeENSt7__cxx1112basic_stringIcSt11char_traitsIcESaIcEEERKN4pugi8xml_nodeES6_bb
libadios2_core.so.2:_ZN6adios26helper8CommImpl11GetDatatypeISt4pairIdiEEENS1_8DatatypeEv
libadios2_core.so.2:_ZN6adios26helper8CommImpl11GetDatatypeISt4pairIeiEEENS1_8DatatypeEv
libadios2_core.so.2:_ZN6adios26helper8CommImpl11GetDatatypeISt4pairIfiEEENS1_8DatatypeEv
libadios2_core.so.2:_ZN6adios26helper8CommImpl11GetDatatypeISt4pairIiiEEENS1_8DatatypeEv
libadios2_core.so.2:_ZN6adios26helper8CommImpl11GetDatatypeISt4pairIsiEEENS1_8DatatypeEv
libadios2_core.so.2:_ZN6adios26helper8CommImpl11GetDatatypeIaEENS1_8DatatypeEv
libadios2_core.so.2:_ZN6adios26helper8CommImpl11GetDatatypeIcEENS1_8DatatypeEv
libadios2_core.so.2:_ZN6adios26helper8CommImpl11GetDatatypeIdEENS1_8DatatypeEv
libadios2_core.so.2:_ZN6adios26helper8CommImpl11GetDatatypeIeEENS1_8DatatypeEv
libadios2_core.so.2:_ZN6adios26helper8CommImpl11GetDatatypeIhEENS1_8DatatypeEv
libadios2_core.so.2:_ZN6adios26helper8CommImpl11GetDatatypeIiEENS1_8DatatypeEv
libadios2_core.so.2:_ZN6adios26helper8CommImpl11GetDatatypeIjEENS1_8DatatypeEv
libadios2_core.so.2:_ZN6adios26helper8CommImpl11GetDatatypeIlEENS1_8DatatypeEv
libadios2_core.so.2:_ZN6adios26helper8CommImpl11GetDatatypeImEENS1_8DatatypeEv
libadios2_core.so.2:_ZN6adios26helper8CommImpl11GetDatatypeIsEENS1_8DatatypeEv
libadios2_core.so.2:_ZN6adios26helper8CommImpl11GetDatatypeItEENS1_8DatatypeEv
libadios2_core.so.2:_ZN6adios26helper8CommImpl11GetDatatypeIxEENS1_8DatatypeEv
libadios2_core.so.2:_ZN6adios26helper8CommImpl11GetDatatypeIyEENS1_8DatatypeEv
libadios2_core.so.2:_ZN6adios26helper8CommImpl3GetERKNS0_4CommE
libadios2_core.so.2:_ZN6adios26helper8CommImpl6SizeOfENS1_8DatatypeE
libadios2_core.so.2:_ZN6adios26helper8CommImpl7MakeReqESt10unique_ptrINS0_11CommReqImplESt14default_deleteIS3_EE
libadios2_core.so.2:_ZN6adios26helper8CommImpl8MakeCommESt10unique_ptrIS1_St14default_deleteIS1_EE
libadios2_core.so.2:_ZN6adios26helper8CommImplD0Ev
libadios2_core.so.2:_ZN6adios26helper8CommImplD1Ev
libadios2_core.so.2:_ZN6adios26helper8CommImplD2Ev
libadios2_core.so.2:_ZN6adios26helper8EndsWithERKNSt7__cxx1112basic_stringIcSt11char_traitsIcESaIcEEES8_b
libadios2_core.so.2:_ZN6adios26helper8StringToIbEET_RKNSt7__cxx1112basic_stringIcSt11char_traitsIcESaIcEEESA_
libadios2_core.so.2:_ZN6adios26helper8StringToIdEET_RKNSt7__cxx1112basic_stringIcSt11char_traitsIcESaIcEEESA_
libadios2_core.so.2:_ZN6adios26helper8StringToIfEET_RKNSt7__cxx1112basic_stringIcSt11char_traitsIcESaIcEEESA_
libadios2_core.so.2:_ZN6adios26helper8StringToIiEET_RKNSt7__cxx1112basic_stringIcSt11char_traitsIcESaIcEEESA_
libadios2_core.so.2:_ZN6adios26helper8StringToIjEET_RKNSt7__cxx1112basic_stringIcSt11char_traitsIcESaIcEEESA_
libadios2_core.so.2:_ZN6adios26helper8StringToIlEET_RKNSt7__cxx1112basic_stringIcSt11char_traitsIcESaIcEEESA_
libadios2_core.so.2:_ZN6adios26helper8StringToImEET_RKNSt7__cxx1112basic_stringIcSt11char_traitsIcESaIcEEESA_
libadios2_core.so.2:_ZN6adios26helper9CommDummyEv
libadios2_core.so.2:_ZN6adios26helper9DimsToCSVB5cxx11ERKSt6vectorImSaImEE
libadios2_core.so.2:_ZN6adios26helper9LowerCaseINSt7__cxx1112basic_stringIcSt11char_traitsIcESaIcEEEEET_RKS8_
libadios2_core.so.2:_ZN6adios26helper9LowerCaseISt3setINSt7__cxx1112basic_stringIcSt11char_traitsIcESaIcEEESt4lessIS8_ESaIS8_EEEET_RKSD_
libadios2_core.so.2:_ZN6adios27interop10HDF5Common11GetHDF5TypeINSt7__cxx1112basic_stringIcSt11char_traitsIcESaIcEEEEElv
libadios2_core.so.2:_ZN6adios27interop10HDF5Common11GetHDF5TypeISt7complexIdEEElv
libadios2_core.so.2:_ZN6adios27interop10HDF5Common11GetHDF5TypeISt7complexIeEEElv
libadios2_core.so.2:_ZN6adios27interop10HDF5Common11GetHDF5TypeISt7complexIfEEElv
libadios2_core.so.2:_ZN6adios27interop10HDF5Common11GetHDF5TypeIaEElv
libadios2_core.so.2:_ZN6adios27interop10HDF5Common11GetHDF5TypeIdEElv
libadios2_core.so.2:_ZN6adios27interop10HDF5Common11GetHDF5TypeIeEElv
libadios2_core.so.2:_ZN6adios27interop10HDF5Common11GetHDF5TypeIfEElv
libadios2_core.so.2:_ZN6adios27interop10HDF5Common11GetHDF5TypeIhEElv
libadios2_core.so.2:_ZN6adios27interop10HDF5Common11GetHDF5TypeIiEElv
libadios2_core.so.2:_ZN6adios27interop10HDF5Common11GetHDF5TypeIjEElv
libadios2_core.so.2:_ZN6adios27interop10HDF5Common11GetHDF5TypeIlEElv
libadios2_core.so.2:_ZN6adios27interop10HDF5Common11GetHDF5TypeImEElv
libadios2_core.so.2:_ZN6adios27interop10HDF5Common11GetHDF5TypeIsEElv
libadios2_core.so.2:_ZN6adios27interop10HDF5Common11GetHDF5TypeItEElv
libadios2_core.so.2:_ZN6adios27interop10HDF5Common11OpenDatasetERKNSt7__cxx1112basic_stringIcSt11char_traitsIcESaIcEEERSt6vectorIlSaIlEE
libadios2_core.so.2:_ZN6adios27interop10HDF5Common11PREFIX_STATB5cxx11E
libadios2_core.so.2:_ZN6adios27interop10HDF5Common12ReadAttrToIOERNS_4core2IOE
libadios2_core.so.2:_ZN6adios27interop10HDF5Common12SetAdiosStepEi
libadios2_core.so.2:_ZN6adios27interop10HDF5Common13CreateDatasetERKNSt7__cxx1112basic_stringIcSt11char_traitsIcESaIcEEEllRSt6vectorIlSaIlEE
libadios2_core.so.2:_ZN6adios27interop10HDF5Common13DefineDatasetINSt7__cxx1112basic_stringIcSt11char_traitsIcESaIcEEEEEvRNS_4core8VariableIT_EE
libadios2_core.so.2:_ZN6adios27interop10HDF5Common13ReadADIOSNameElRNSt7__cxx1112basic_stringIcSt11char_traitsIcESaIcEEE
libadios2_core.so.2:_ZN6adios27interop10HDF5Common13ReadVariablesEjRNS_4core2IOE
libadios2_core.so.2:_ZN6adios27interop10HDF5Common14FindVarsFromH5ERNS_4core2IOElPKcS6_j
libadios2_core.so.2:_ZN6adios27interop10HDF5Common14StoreADIOSNameENSt7__cxx1112basic_stringIcSt11char_traitsIcESaIcEEEl
libadios2_core.so.2:_ZN6adios27interop10HDF5Common15CheckWriteGroupEv
libadios2_core.so.2:_ZN6adios27interop10HDF5Common15CleanUpNullVarsERNS_4core2IOE
libadios2_core.so.2:_ZN6adios27interop10HDF5Common15ParseParametersERNS_4core2IOE
libadios2_core.so.2:_ZN6adios27interop10HDF5Common15WriteAdiosStepsEv
libadios2_core.so.2:_ZN6adios27interop10HDF5Common15WriteAttrFromIOERNS_4core2IOE
libadios2_core.so.2:_ZN6adios27interop10HDF5Common15WriteStringAttrERNS_4core2IOEPNS2_9AttributeINSt7__cxx1112basic_stringIcSt11char_traitsIcESaIcEEEEERKSB_l
libadios2_core.so.2:_ZN6adios27interop10HDF5Common16CreateVarsFromIOERNS_4core2IOE
libadios2_core.so.2:_ZN6adios27interop10HDF5Common16GetNumAdiosStepsEv
libadios2_core.so.2:_ZN6adios27interop10HDF5Common16LocateAttrParentERKNSt7__cxx1112basic_stringIcSt11char_traitsIcESaIcEEERSt6vectorIS7_SaIS7_EERSA_IlSaIlEE
libadios2_core.so.2:_ZN6adios27interop10HDF5Common16PREFIX_BLOCKINFOB5cxx11E
libadios2_core.so.2:_ZN6adios27interop10HDF5Common16ReadAllVariablesERNS_4core2IOE
libadios2_core.so.2:_ZN6adios27interop10HDF5Common16ReadInStringAttrERNS_4core2IOERKNSt7__cxx1112basic_stringIcSt11char_traitsIcESaIcEEElll
libadios2_core.so.2:_ZN6adios27interop10HDF5Common18ATTRNAME_NUM_STEPSB5cxx11E
libadios2_core.so.2:_ZN6adios27interop10HDF5Common18ReadNativeAttrToIOERNS_4core2IOElRKNSt7__cxx1112basic_stringIcSt11char_traitsIcESaIcEEE
libadios2_core.so.2:_ZN6adios27interop10HDF5Common18RemoveEmptyDatasetERKNSt7__cxx1112basic_stringIcSt11char_traitsIcESaIcEEE
libadios2_core.so.2:_ZN6adios27interop10HDF5Common19GetTypeStringScalarERKNSt7__cxx1112basic_stringIcSt11char_traitsIcESaIcEEE
libadios2_core.so.2:_ZN6adios27interop10HDF5Common19ReadInNonStringAttrERNS_4core2IOERKNSt7__cxx1112basic_stringIcSt11char_traitsIcESaIcEEElll
libadios2_core.so.2:_ZN6adios27interop10HDF5Common20PARAMETER_CHUNK_FLAGB5cxx11E
libadios2_core.so.2:_ZN6adios27interop10HDF5Common20PARAMETER_CHUNK_VARSB5cxx11E
libadios2_core.so.2:_ZN6adios27interop10HDF5Common20PARAMETER_COLLECTIVEB5cxx11E
libadios2_core.so.2:_ZN6adios27interop10HDF5Common23ReadStringScalarDatasetElRNSt7__cxx1112basic_stringIcSt11char_traitsIcESaIcEEE
libadios2_core.so.2:_ZN6adios27interop10HDF5Common24ATTRNAME_GIVEN_ADIOSNAMEB5cxx11E
libadios2_core.so.2:_ZN6adios27interop10HDF5Common24StaticGetAdiosStepStringERNSt7__cxx1112basic_stringIcSt11char_traitsIcESaIcEEEi
libadios2_core.so.2:_ZN6adios27interop10HDF5Common30PARAMETER_HAS_IDLE_WRITER_RANKB5cxx11E
libadios2_core.so.2:_ZN6adios27interop10HDF5Common4InitERKNSt7__cxx1112basic_stringIcSt11char_traitsIcESaIcEEERKNS_6helper4CommEb
libadios2_core.so.2:_ZN6adios27interop10HDF5Common5CloseEv
libadios2_core.so.2:_ZN6adios27interop10HDF5Common6AppendERKNSt7__cxx1112basic_stringIcSt11char_traitsIcESaIcEEERKNS_6helper4CommE
libadios2_core.so.2:_ZN6adios27interop10HDF5Common7AdvanceEv
libadios2_core.so.2:_ZN6adios27interop10HDF5Common9CreateVarERNS_4core2IOElRKNSt7__cxx1112basic_stringIcSt11char_traitsIcESaIcEEEj
libadios2_core.so.2:_ZN6adios27interop10HDF5CommonC1Ev
libadios2_core.so.2:_ZN6adios27interop10HDF5CommonC2Ev
libadios2_core.so.2:_ZN6adios27interop10HDF5CommonD1Ev
libadios2_core.so.2:_ZN6adios27interop10HDF5CommonD2Ev
libadios2_core.so.2:_ZN6adios27interop18HDF5Common_MPI_APIE
libadios2_core.so.2:_ZN6adios27interop24HDF5Common_MPI_API_MutexE
libadios2_core.so.2:_ZN6adios28ToStringB5cxx11ENS_10StepStatusE
libadios2_core.so.2:_ZN6adios28ToStringB5cxx11ENS_13SelectionTypeE
libadios2_core.so.2:_ZN6adios28ToStringB5cxx11ENS_14StreamOpenModeE
libadios2_core.so.2:_ZN6adios28ToStringB5cxx11ENS_20ReadMultiplexPatternE
libadios2_core.so.2:_ZN6adios28ToStringB5cxx11ENS_4ModeE
libadios2_core.so.2:_ZN6adios28ToStringB5cxx11ENS_6IOModeE
libadios2_core.so.2:_ZN6adios28ToStringB5cxx11ENS_7ShapeIDE
libadios2_core.so.2:_ZN6adios28ToStringB5cxx11ENS_8DataTypeE
libadios2_core.so.2:_ZN6adios28ToStringB5cxx11ENS_8ReadModeE
libadios2_core.so.2:_ZN6adios28ToStringB5cxx11ENS_8StepModeE
libadios2_core.so.2:_ZN6adios28ToStringB5cxx11ENS_8TimeUnitE
libadios2_core.so.2:_ZN6adios29Transport12InitProfilerENS_4ModeENS_8TimeUnitE
libadios2_core.so.2:_ZN6adios29Transport12ProfilerStopENSt7__cxx1112basic_stringIcSt11char_traitsIcESaIcEEE
libadios2_core.so.2:_ZN6adios29Transport13ProfilerStartENSt7__cxx1112basic_stringIcSt11char_traitsIcESaIcEEE
libadios2_core.so.2:_ZN6adios29Transport13SetParametersERKSt3mapINSt7__cxx1112basic_stringIcSt11char_traitsIcESaIcEEES7_St4lessIS7_ESaISt4pairIKS7_S7_EEE
libadios2_core.so.2:_ZN6adios29Transport5FlushEv
libadios2_core.so.2:_ZN6adios29Transport5IReadEPcmRNS0_6StatusEm
libadios2_core.so.2:_ZN6adios29Transport5MkDirERKNSt7__cxx1112basic_stringIcSt11char_traitsIcESaIcEEE
libadios2_core.so.2:_ZN6adios29Transport6IWriteEPKcmRNS0_6StatusEm
libadios2_core.so.2:_ZN6adios29Transport7GetSizeEv
libadios2_core.so.2:_ZN6adios29Transport9SetBufferEPcm
libadios2_core.so.2:_ZN6adios29TransportC1ENSt7__cxx1112basic_stringIcSt11char_traitsIcESaIcEEES6_RKNS_6helper4CommE
libadios2_core.so.2:_ZN6adios29TransportC2ENSt7__cxx1112basic_stringIcSt11char_traitsIcESaIcEEES6_RKNS_6helper4CommE
libadios2_core.so.2:_ZN6adios29profiling5Timer14GetElapsedTimeEv
libadios2_core.so.2:_ZN6adios29profiling5Timer5PauseEv
libadios2_core.so.2:_ZN6adios29profiling5Timer6ResumeEv
libadios2_core.so.2:_ZN6adios29profiling5TimerC1ENSt7__cxx1112basic_stringIcSt11char_traitsIcESaIcEEENS_8TimeUnitE
libadios2_core.so.2:_ZN6adios29profiling5TimerC2ENSt7__cxx1112basic_stringIcSt11char_traitsIcESaIcEEENS_8TimeUnitE
libadios2_core.so.2:_ZN6adios29profiling8IOChrono4StopENSt7__cxx1112basic_stringIcSt11char_traitsIcESaIcEEE
libadios2_core.so.2:_ZN6adios29profiling8IOChrono5StartENSt7__cxx1112basic_stringIcSt11char_traitsIcESaIcEEE
libadios2_core.so.2:_ZN6adios29transport10ShmSystemV11SeekToBeginEv
libadios2_core.so.2:_ZN6adios29transport10ShmSystemV4OpenERKNSt7__cxx1112basic_stringIcSt11char_traitsIcESaIcEEENS_4ModeEb
libadios2_core.so.2:_ZN6adios29transport10ShmSystemV4ReadEPcmm
libadios2_core.so.2:_ZN6adios29transport10ShmSystemV5CloseEv
libadios2_core.so.2:_ZN6adios29transport10ShmSystemV5WriteEPKcmm
libadios2_core.so.2:_ZN6adios29transport10ShmSystemV9SeekToEndEv
libadios2_core.so.2:_ZN6adios29transport10ShmSystemVC1EjmRKNS_6helper4CommEb
libadios2_core.so.2:_ZN6adios29transport10ShmSystemVC2EjmRKNS_6helper4CommEb
libadios2_core.so.2:_ZN6adios29transport10ShmSystemVD0Ev
libadios2_core.so.2:_ZN6adios29transport10ShmSystemVD1Ev
libadios2_core.so.2:_ZN6adios29transport10ShmSystemVD2Ev
libadios2_core.so.2:_ZN6adios29transport11FileFStream11SeekToBeginEv
libadios2_core.so.2:_ZN6adios29transport11FileFStream11WaitForOpenEv
libadios2_core.so.2:_ZN6adios29transport11FileFStream4OpenERKNSt7__cxx1112basic_stringIcSt11char_traitsIcESaIcEEENS_4ModeEb
libadios2_core.so.2:_ZN6adios29transport11FileFStream4ReadEPcmm
libadios2_core.so.2:_ZN6adios29transport11FileFStream5CloseEv
libadios2_core.so.2:_ZN6adios29transport11FileFStream5FlushEv
libadios2_core.so.2:_ZN6adios29transport11FileFStream5WriteEPKcmm
libadios2_core.so.2:_ZN6adios29transport11FileFStream6DeleteEv
libadios2_core.so.2:_ZN6adios29transport11FileFStream7GetSizeEv
libadios2_core.so.2:_ZN6adios29transport11FileFStream9SeekToEndEv
libadios2_core.so.2:_ZN6adios29transport11FileFStream9SetBufferEPcm
libadios2_core.so.2:_ZN6adios29transport11FileFStreamC1ERKNS_6helper4CommE
libadios2_core.so.2:_ZN6adios29transport11FileFStreamC2ERKNS_6helper4CommE
libadios2_core.so.2:_ZN6adios29transport13NullTransport11SeekToBeginEv
libadios2_core.so.2:_ZN6adios29transport13NullTransport4OpenERKNSt7__cxx1112basic_stringIcSt11char_traitsIcESaIcEEENS_4ModeEb
libadios2_core.so.2:_ZN6adios29transport13NullTransport4ReadEPcmm
libadios2_core.so.2:_ZN6adios29transport13NullTransport5CloseEv
libadios2_core.so.2:_ZN6adios29transport13NullTransport5FlushEv
libadios2_core.so.2:_ZN6adios29transport13NullTransport5MkDirERKNSt7__cxx1112basic_stringIcSt11char_traitsIcESaIcEEE
libadios2_core.so.2:_ZN6adios29transport13NullTransport5WriteEPKcmm
libadios2_core.so.2:_ZN6adios29transport13NullTransport6DeleteEv
libadios2_core.so.2:_ZN6adios29transport13NullTransport7GetSizeEv
libadios2_core.so.2:_ZN6adios29transport13NullTransport9SeekToEndEv
libadios2_core.so.2:_ZN6adios29transport13NullTransport9SetBufferEPcm
libadios2_core.so.2:_ZN6adios29transport13NullTransportC1ERKNS_6helper4CommE
libadios2_core.so.2:_ZN6adios29transport13NullTransportC2ERKNS_6helper4CommE
libadios2_core.so.2:_ZN6adios29transport13NullTransportD0Ev
libadios2_core.so.2:_ZN6adios29transport13NullTransportD1Ev
libadios2_core.so.2:_ZN6adios29transport13NullTransportD2Ev
libadios2_core.so.2:_ZN6adios29transport9FilePOSIX11SeekToBeginEv
libadios2_core.so.2:_ZN6adios29transport9FilePOSIX11WaitForOpenEv
libadios2_core.so.2:_ZN6adios29transport9FilePOSIX4OpenERKNSt7__cxx1112basic_stringIcSt11char_traitsIcESaIcEEENS_4ModeEb
libadios2_core.so.2:_ZN6adios29transport9FilePOSIX4ReadEPcmm
libadios2_core.so.2:_ZN6adios29transport9FilePOSIX5CloseEv
libadios2_core.so.2:_ZN6adios29transport9FilePOSIX5FlushEv
libadios2_core.so.2:_ZN6adios29transport9FilePOSIX5WriteEPKcmm
libadios2_core.so.2:_ZN6adios29transport9FilePOSIX6DeleteEv
libadios2_core.so.2:_ZN6adios29transport9FilePOSIX7GetSizeEv
libadios2_core.so.2:_ZN6adios29transport9FilePOSIX9SeekToEndEv
libadios2_core.so.2:_ZN6adios29transport9FilePOSIXC1ERKNS_6helper4CommE
libadios2_core.so.2:_ZN6adios29transport9FilePOSIXC2ERKNS_6helper4CommE
libadios2_core.so.2:_ZN6adios29transport9FilePOSIXD0Ev
libadios2_core.so.2:_ZN6adios29transport9FilePOSIXD1Ev
libadios2_core.so.2:_ZN6adios29transport9FilePOSIXD2Ev
libadios2_core.so.2:_ZN6adios29transport9FileStdio11SeekToBeginEv
libadios2_core.so.2:_ZN6adios29transport9FileStdio11WaitForOpenEv
libadios2_core.so.2:_ZN6adios29transport9FileStdio4OpenERKNSt7__cxx1112basic_stringIcSt11char_traitsIcESaIcEEENS_4ModeEb
libadios2_core.so.2:_ZN6adios29transport9FileStdio4ReadEPcmm
libadios2_core.so.2:_ZN6adios29transport9FileStdio5CloseEv
libadios2_core.so.2:_ZN6adios29transport9FileStdio5FlushEv
libadios2_core.so.2:_ZN6adios29transport9FileStdio5WriteEPKcmm
libadios2_core.so.2:_ZN6adios29transport9FileStdio6DeleteEv
libadios2_core.so.2:_ZN6adios29transport9FileStdio7GetSizeEv
libadios2_core.so.2:_ZN6adios29transport9FileStdio9SeekToEndEv
libadios2_core.so.2:_ZN6adios29transport9FileStdio9SetBufferEPcm
libadios2_core.so.2:_ZN6adios29transport9FileStdioC1ERKNS_6helper4CommE
libadios2_core.so.2:_ZN6adios29transport9FileStdioC2ERKNS_6helper4CommE
libadios2_core.so.2:_ZN6adios29transport9FileStdioD0Ev
libadios2_core.so.2:_ZN6adios29transport9FileStdioD1Ev
libadios2_core.so.2:_ZN6adios29transport9FileStdioD2Ev
libadios2_core.so.2:_ZN9adios2sys10RegExpFind6regtryEPKcPS2_S3_S2_
libadios2_core.so.2:_ZN9adios2sys10RegExpFind8regmatchEPKc
libadios2_core.so.2:_ZN9adios2sys10RegExpFind9regrepeatEPKc
libadios2_core.so.2:_ZN9adios2sys11SystemTools10CropStringERKNSt7__cxx1112basic_stringIcSt11char_traitsIcESaIcEEEm
libadios2_core.so.2:_ZN9adios2sys11SystemTools10FileExistsEPKc
libadios2_core.so.2:_ZN9adios2sys11SystemTools10FileExistsEPKcb
libadios2_core.so.2:_ZN9adios2sys11SystemTools10FileExistsERKNSt7__cxx1112basic_stringIcSt11char_traitsIcESaIcEEE
libadios2_core.so.2:_ZN9adios2sys11SystemTools10FileExistsERKNSt7__cxx1112basic_stringIcSt11char_traitsIcESaIcEEEb
libadios2_core.so.2:_ZN9adios2sys11SystemTools10FileIsFIFOERKNSt7__cxx1112basic_stringIcSt11char_traitsIcESaIcEEE
libadios2_core.so.2:_ZN9adios2sys11SystemTools10FileLengthERKNSt7__cxx1112basic_stringIcSt11char_traitsIcESaIcEEE
libadios2_core.so.2:_ZN9adios2sys11SystemTools10PathExistsERKNSt7__cxx1112basic_stringIcSt11char_traitsIcESaIcEEE
libadios2_core.so.2:_ZN9adios2sys11SystemTools10RemoveFileERKNSt7__cxx1112basic_stringIcSt11char_traitsIcESaIcEEE
libadios2_core.so.2:_ZN9adios2sys11SystemTools11AddKeepPathERKNSt7__cxx1112basic_stringIcSt11char_traitsIcESaIcEEE
libadios2_core.so.2:_ZN9adios2sys11SystemTools11CapitalizedERKNSt7__cxx1112basic_stringIcSt11char_traitsIcESaIcEEE
libadios2_core.so.2:_ZN9adios2sys11SystemTools11ComparePathERKNSt7__cxx1112basic_stringIcSt11char_traitsIcESaIcEEES8_
libadios2_core.so.2:_ZN9adios2sys11SystemTools11EscapeCharsB5cxx11EPKcS2_c
libadios2_core.so.2:_ZN9adios2sys11SystemTools11FilesDifferERKNSt7__cxx1112basic_stringIcSt11char_traitsIcESaIcEEES8_
libadios2_core.so.2:_ZN9adios2sys11SystemTools11FindLibraryERKNSt7__cxx1112basic_stringIcSt11char_traitsIcESaIcEEERKSt6vectorIS6_SaIS6_EE
libadios2_core.so.2:_ZN9adios2sys11SystemTools11FindProgramEPKcRKSt6vectorINSt7__cxx1112basic_stringIcSt11char_traitsIcESaIcEEESaIS9_EEb
libadios2_core.so.2:_ZN9adios2sys11SystemTools11FindProgramERKNSt7__cxx1112basic_stringIcSt11char_traitsIcESaIcEEERKSt6vectorIS6_SaIS6_EEb
libadios2_core.so.2:_ZN9adios2sys11SystemTools11FindProgramERKSt6vectorINSt7__cxx1112basic_stringIcSt11char_traitsIcESaIcEEESaIS7_EESB_b
libadios2_core.so.2:_ZN9adios2sys11SystemTools11GetRealPathERKNSt7__cxx1112basic_stringIcSt11char_traitsIcESaIcEEEPS6_
libadios2_core.so.2:_ZN9adios2sys11SystemTools11ReadSymlinkERKNSt7__cxx1112basic_stringIcSt11char_traitsIcESaIcEEERS6_
libadios2_core.so.2:_ZN9adios2sys11SystemTools11RemoveCharsEPKcS2_
libadios2_core.so.2:_ZN9adios2sys11SystemTools11SplitStringERKNSt7__cxx1112basic_stringIcSt11char_traitsIcESaIcEEEcb
libadios2_core.so.2:_ZN9adios2sys11SystemTools12CreationTimeERKNSt7__cxx1112basic_stringIcSt11char_traitsIcESaIcEEE
libadios2_core.so.2:_ZN9adios2sys11SystemTools12GetShortPathERKNSt7__cxx1112basic_stringIcSt11char_traitsIcESaIcEEERS6_
libadios2_core.so.2:_ZN9adios2sys11SystemTools12ModifiedTimeERKNSt7__cxx1112basic_stringIcSt11char_traitsIcESaIcEEE
libadios2_core.so.2:_ZN9adios2sys11SystemTools12RelativePathERKNSt7__cxx1112basic_stringIcSt11char_traitsIcESaIcEEES8_
libadios2_core.so.2:_ZN9adios2sys11SystemTools12ReplaceCharsEPcPKcc
libadios2_core.so.2:_ZN9adios2sys11SystemTools13AppendStringsEPKcS2_
libadios2_core.so.2:_ZN9adios2sys11SystemTools13AppendStringsEPKcS2_S2_
libadios2_core.so.2:_ZN9adios2sys11SystemTools13ClassFinalizeEv
libadios2_core.so.2:_ZN9adios2sys11SystemTools13CreateSymlinkERKNSt7__cxx1112basic_stringIcSt11char_traitsIcESaIcEEES8_
libadios2_core.so.2:_ZN9adios2sys11SystemTools13FileIsSymlinkERKNSt7__cxx1112basic_stringIcSt11char_traitsIcESaIcEEE
libadios2_core.so.2:_ZN9adios2sys11SystemTools13FindDirectoryERKNSt7__cxx1112basic_stringIcSt11char_traitsIcESaIcEEERKSt6vectorIS6_SaIS6_EEb
libadios2_core.so.2:_ZN9adios2sys11SystemTools13MakeDirectoryEPKcPKj
libadios2_core.so.2:_ZN9adios2sys11SystemTools13MakeDirectoryERKNSt7__cxx1112basic_stringIcSt11char_traitsIcESaIcEEEPKj
libadios2_core.so.2:_ZN9adios2sys11SystemTools13ReplaceStringERNSt7__cxx1112basic_stringIcSt11char_traitsIcESaIcEEEPKcS9_
libadios2_core.so.2:_ZN9adios2sys11SystemTools13ReplaceStringERNSt7__cxx1112basic_stringIcSt11char_traitsIcESaIcEEERKS6_S9_
libadios2_core.so.2:_ZN9adios2sys11SystemTools14CopyADirectoryERKNSt7__cxx1112basic_stringIcSt11char_traitsIcESaIcEEES8_b
libadios2_core.so.2:_ZN9adios2sys11SystemTools14CopyFileAlwaysERKNSt7__cxx1112basic_stringIcSt11char_traitsIcESaIcEEES8_
libadios2_core.so.2:_ZN9adios2sys11SystemTools14DetectFileTypeEPKcmd
libadios2_core.so.2:_ZN9adios2sys11SystemTools14FileIsFullPathEPKc
libadios2_core.so.2:_ZN9adios2sys11SystemTools14FileIsFullPathERKNSt7__cxx1112basic_stringIcSt11char_traitsIcESaIcEEE
libadios2_core.so.2:_ZN9adios2sys11SystemTools14FindLastStringEPKcS2_
libadios2_core.so.2:_ZN9adios2sys11SystemTools14GetPermissionsEPKcRj
libadios2_core.so.2:_ZN9adios2sys11SystemTools14GetPermissionsERKNSt7__cxx1112basic_stringIcSt11char_traitsIcESaIcEEERj
libadios2_core.so.2:_ZN9adios2sys11SystemTools14GetProgramPathERKNSt7__cxx1112basic_stringIcSt11char_traitsIcESaIcEEE
libadios2_core.so.2:_ZN9adios2sys11SystemTools14IsSubDirectoryERKNSt7__cxx1112basic_stringIcSt11char_traitsIcESaIcEEES8_
libadios2_core.so.2:_ZN9adios2sys11SystemTools14SetPermissionsEPKcjb
libadios2_core.so.2:_ZN9adios2sys11SystemTools14SetPermissionsERKNSt7__cxx1112basic_stringIcSt11char_traitsIcESaIcEEEjb
libadios2_core.so.2:_ZN9adios2sys11SystemTools14StringEndsWithEPKcS2_
libadios2_core.so.2:_ZN9adios2sys11SystemTools14StringEndsWithERKNSt7__cxx1112basic_stringIcSt11char_traitsIcESaIcEEEPKc
libadios2_core.so.2:_ZN9adios2sys11SystemTools14TestFileAccessEPKci
libadios2_core.so.2:_ZN9adios2sys11SystemTools14TestFileAccessERKNSt7__cxx1112basic_stringIcSt11char_traitsIcESaIcEEEi
libadios2_core.so.2:_ZN9adios2sys11SystemTools15ChangeDirectoryERKNSt7__cxx1112basic_stringIcSt11char_traitsIcESaIcEEE
libadios2_core.so.2:_ZN9adios2sys11SystemTools15ClassInitializeEv
libadios2_core.so.2:_ZN9adios2sys11SystemTools15DuplicateStringEPKc
libadios2_core.so.2:_ZN9adios2sys11SystemTools15FileIsDirectoryERKNSt7__cxx1112basic_stringIcSt11char_traitsIcESaIcEEE
libadios2_core.so.2:_ZN9adios2sys11SystemTools15FileTimeCompareERKNSt7__cxx1112basic_stringIcSt11char_traitsIcESaIcEEES8_Pi
libadios2_core.so.2:_ZN9adios2sys11SystemTools15FindProgramPathEPKcRNSt7__cxx1112basic_stringIcSt11char_traitsIcESaIcEEES9_S2_S2_S2_
libadios2_core.so.2:_ZN9adios2sys11SystemTools15GetFilenameNameERKNSt7__cxx1112basic_stringIcSt11char_traitsIcESaIcEEE
libadios2_core.so.2:_ZN9adios2sys11SystemTools15GetFilenamePathERKNSt7__cxx1112basic_stringIcSt11char_traitsIcESaIcEEE
libadios2_core.so.2:_ZN9adios2sys11SystemTools15LocateFileInDirEPKcS2_RNSt7__cxx1112basic_stringIcSt11char_traitsIcESaIcEEEi
libadios2_core.so.2:_ZN9adios2sys11SystemTools15MakeCidentifierERKNSt7__cxx1112basic_stringIcSt11char_traitsIcESaIcEEE
libadios2_core.so.2:_ZN9adios2sys11SystemTools15TextFilesDifferERKNSt7__cxx1112basic_stringIcSt11char_traitsIcESaIcEEES8_
libadios2_core.so.2:_ZN9adios2sys11SystemTools16CapitalizedWordsERKNSt7__cxx1112basic_stringIcSt11char_traitsIcESaIcEEE
libadios2_core.so.2:_ZN9adios2sys11SystemTools16CollapseFullPathERKNSt7__cxx1112basic_stringIcSt11char_traitsIcESaIcEEE
libadios2_core.so.2:_ZN9adios2sys11SystemTools16CollapseFullPathERKNSt7__cxx1112basic_stringIcSt11char_traitsIcESaIcEEEPKc
libadios2_core.so.2:_ZN9adios2sys11SystemTools16CollapseFullPathERKNSt7__cxx1112basic_stringIcSt11char_traitsIcESaIcEEES8_
libadios2_core.so.2:_ZN9adios2sys11SystemTools16FileHasSignatureEPKcS2_l
libadios2_core.so.2:_ZN9adios2sys11SystemTools16FileIsExecutableERKNSt7__cxx1112basic_stringIcSt11char_traitsIcESaIcEEE
libadios2_core.so.2:_ZN9adios2sys11SystemTools16GetTerminalWidthEv
libadios2_core.so.2:_ZN9adios2sys11SystemTools16ParseURLProtocolERKNSt7__cxx1112basic_stringIcSt11char_traitsIcESaIcEEERS6_S9_b
libadios2_core.so.2:_ZN9adios2sys11SystemTools16RemoveADirectoryERKNSt7__cxx1112basic_stringIcSt11char_traitsIcESaIcEEE
libadios2_core.so.2:_ZN9adios2sys11SystemTools16SplitProgramPathERKNSt7__cxx1112basic_stringIcSt11char_traitsIcESaIcEEERS6_S9_b
libadios2_core.so.2:_ZN9adios2sys11SystemTools16StringStartsWithEPKcS2_
libadios2_core.so.2:_ZN9adios2sys11SystemTools16StringStartsWithERKNSt7__cxx1112basic_stringIcSt11char_traitsIcESaIcEEEPKc
libadios2_core.so.2:_ZN9adios2sys11SystemTools17GetLineFromStreamERSiRNSt7__cxx1112basic_stringIcSt11char_traitsIcESaIcEEEPbl
libadios2_core.so.2:_ZN9adios2sys11SystemTools17ReadRegistryValueERKNSt7__cxx1112basic_stringIcSt11char_traitsIcESaIcEEERS6_NS0_8KeyWOW64E
libadios2_core.so.2:_ZN9adios2sys11SystemTools18AddTranslationPathERKNSt7__cxx1112basic_stringIcSt11char_traitsIcESaIcEEES8_
libadios2_core.so.2:_ZN9adios2sys11SystemTools18GetCurrentDateTimeB5cxx11EPKc
libadios2_core.so.2:_ZN9adios2sys11SystemTools18GetLastSystemErrorB5cxx11Ev
libadios2_core.so.2:_ZN9adios2sys11SystemTools18GetParentDirectoryERKNSt7__cxx1112basic_stringIcSt11char_traitsIcESaIcEEE
libadios2_core.so.2:_ZN9adios2sys11SystemTools18GetRegistrySubKeysERKNSt7__cxx1112basic_stringIcSt11char_traitsIcESaIcEEERSt6vectorIS6_SaIS6_EENS0_8KeyWOW64E
libadios2_core.so.2:_ZN9adios2sys11SystemTools18UnCapitalizedWordsERKNSt7__cxx1112basic_stringIcSt11char_traitsIcESaIcEEE
libadios2_core.so.2:_ZN9adios2sys11SystemTools18WriteRegistryValueERKNSt7__cxx1112basic_stringIcSt11char_traitsIcESaIcEEES8_NS0_8KeyWOW64E
libadios2_core.so.2:_ZN9adios2sys11SystemTools19ConvertToOutputPathERKNSt7__cxx1112basic_stringIcSt11char_traitsIcESaIcEEE
libadios2_core.so.2:_ZN9adios2sys11SystemTools19CopyFileIfDifferentERKNSt7__cxx1112basic_stringIcSt11char_traitsIcESaIcEEES8_
libadios2_core.so.2:_ZN9adios2sys11SystemTools19DeleteRegistryValueERKNSt7__cxx1112basic_stringIcSt11char_traitsIcESaIcEEENS0_8KeyWOW64E
libadios2_core.so.2:_ZN9adios2sys11SystemTools19EnableMSVCDebugHookEv
libadios2_core.so.2:_ZN9adios2sys11SystemTools20CheckTranslationPathERNSt7__cxx1112basic_stringIcSt11char_traitsIcESaIcEEE
libadios2_core.so.2:_ZN9adios2sys11SystemTools20ConvertToUnixSlashesERNSt7__cxx1112basic_stringIcSt11char_traitsIcESaIcEEE
libadios2_core.so.2:_ZN9adios2sys11SystemTools20EstimateFormatLengthEPKcP13__va_list_tag
libadios2_core.so.2:_ZN9adios2sys11SystemTools20GetActualCaseForPathERKNSt7__cxx1112basic_stringIcSt11char_traitsIcESaIcEEE
libadios2_core.so.2:_ZN9adios2sys11SystemTools20GetFilenameExtensionERKNSt7__cxx1112basic_stringIcSt11char_traitsIcESaIcEEE
libadios2_core.so.2:_ZN9adios2sys11SystemTools22GetExecutableExtensionEv
libadios2_core.so.2:_ZN9adios2sys11SystemTools22RemoveCharsButUpperHexEPKc
libadios2_core.so.2:_ZN9adios2sys11SystemTools22SplitPathRootComponentERKNSt7__cxx1112basic_stringIcSt11char_traitsIcESaIcEEEPS6_
libadios2_core.so.2:_ZN9adios2sys11SystemTools23ConvertToUnixOutputPathERKNSt7__cxx1112basic_stringIcSt11char_traitsIcESaIcEEE
libadios2_core.so.2:_ZN9adios2sys11SystemTools24GetFilenameLastExtensionERKNSt7__cxx1112basic_stringIcSt11char_traitsIcESaIcEEE
libadios2_core.so.2:_ZN9adios2sys11SystemTools24GetMaximumFilePathLengthEv
libadios2_core.so.2:_ZN9adios2sys11SystemTools26ConvertToWindowsOutputPathERKNSt7__cxx1112basic_stringIcSt11char_traitsIcESaIcEEE
libadios2_core.so.2:_ZN9adios2sys11SystemTools26GetCurrentWorkingDirectoryB5cxx11Ev
libadios2_core.so.2:_ZN9adios2sys11SystemTools27GetFilenameWithoutExtensionERKNSt7__cxx1112basic_stringIcSt11char_traitsIcESaIcEEE
libadios2_core.so.2:_ZN9adios2sys11SystemTools31AddSpaceBetweenCapitalizedWordsERKNSt7__cxx1112basic_stringIcSt11char_traitsIcESaIcEEE
libadios2_core.so.2:_ZN9adios2sys11SystemTools31GetFilenameWithoutLastExtensionERKNSt7__cxx1112basic_stringIcSt11char_traitsIcESaIcEEE
libadios2_core.so.2:_ZN9adios2sys11SystemTools32GetOperatingSystemNameAndVersionB5cxx11Ev
libadios2_core.so.2:_ZN9adios2sys11SystemTools4StatEPKcP4stat
libadios2_core.so.2:_ZN9adios2sys11SystemTools4StatERKNSt7__cxx1112basic_stringIcSt11char_traitsIcESaIcEEEP4stat
libadios2_core.so.2:_ZN9adios2sys11SystemTools5DelayEj
libadios2_core.so.2:_ZN9adios2sys11SystemTools5FopenERKNSt7__cxx1112basic_stringIcSt11char_traitsIcESaIcEEEPKc
libadios2_core.so.2:_ZN9adios2sys11SystemTools5SplitERKNSt7__cxx1112basic_stringIcSt11char_traitsIcESaIcEEERSt6vectorIS6_SaIS6_EE
libadios2_core.so.2:_ZN9adios2sys11SystemTools5SplitERKNSt7__cxx1112basic_stringIcSt11char_traitsIcESaIcEEERSt6vectorIS6_SaIS6_EEc
libadios2_core.so.2:_ZN9adios2sys11SystemTools5TouchERKNSt7__cxx1112basic_stringIcSt11char_traitsIcESaIcEEEb
libadios2_core.so.2:_ZN9adios2sys11SystemTools6GetEnvEPKc
libadios2_core.so.2:_ZN9adios2sys11SystemTools6GetEnvEPKcRNSt7__cxx1112basic_stringIcSt11char_traitsIcESaIcEEE
libadios2_core.so.2:_ZN9adios2sys11SystemTools6GetEnvERKNSt7__cxx1112basic_stringIcSt11char_traitsIcESaIcEEE
libadios2_core.so.2:_ZN9adios2sys11SystemTools6GetEnvERKNSt7__cxx1112basic_stringIcSt11char_traitsIcESaIcEEERS6_
libadios2_core.so.2:_ZN9adios2sys11SystemTools6HasEnvEPKc
libadios2_core.so.2:_ZN9adios2sys11SystemTools6HasEnvERKNSt7__cxx1112basic_stringIcSt11char_traitsIcESaIcEEE
libadios2_core.so.2:_ZN9adios2sys11SystemTools6PutEnvERKNSt7__cxx1112basic_stringIcSt11char_traitsIcESaIcEEE
libadios2_core.so.2:_ZN9adios2sys11SystemTools7GetPathERSt6vectorINSt7__cxx1112basic_stringIcSt11char_traitsIcESaIcEEESaIS7_EEPKc
libadios2_core.so.2:_ZN9adios2sys11SystemTools7GetTimeEv
libadios2_core.so.2:_ZN9adios2sys11SystemTools7StrucmpEPKcS2_
libadios2_core.so.2:_ZN9adios2sys11SystemTools8FindFileERKNSt7__cxx1112basic_stringIcSt11char_traitsIcESaIcEEERKSt6vectorIS6_SaIS6_EEb
libadios2_core.so.2:_ZN9adios2sys11SystemTools8JoinPathEN9__gnu_cxx17__normal_iteratorIPKNSt7__cxx1112basic_stringIcSt11char_traitsIcESaIcEEESt6vectorIS8_SaIS8_EEEESE_
libadios2_core.so.2:_ZN9adios2sys11SystemTools8JoinPathERKSt6vectorINSt7__cxx1112basic_stringIcSt11char_traitsIcESaIcEEESaIS7_EE
libadios2_core.so.2:_ZN9adios2sys11SystemTools8ParseURLERKNSt7__cxx1112basic_stringIcSt11char_traitsIcESaIcEEERS6_S9_S9_S9_S9_S9_b
libadios2_core.so.2:_ZN9adios2sys11SystemTools8SameFileERKNSt7__cxx1112basic_stringIcSt11char_traitsIcESaIcEEES8_
libadios2_core.so.2:_ZN9adios2sys11SystemTools8UnPutEnvERKNSt7__cxx1112basic_stringIcSt11char_traitsIcESaIcEEE
libadios2_core.so.2:_ZN9adios2sys11SystemTools9CopyAFileERKNSt7__cxx1112basic_stringIcSt11char_traitsIcESaIcEEES8_b
libadios2_core.so.2:_ZN9adios2sys11SystemTools9CountCharEPKcc
libadios2_core.so.2:_ZN9adios2sys11SystemTools9DecodeURLERKNSt7__cxx1112basic_stringIcSt11char_traitsIcESaIcEEE
libadios2_core.so.2:_ZN9adios2sys11SystemTools9LowerCaseERKNSt7__cxx1112basic_stringIcSt11char_traitsIcESaIcEEE
libadios2_core.so.2:_ZN9adios2sys11SystemTools9SplitPathERKNSt7__cxx1112basic_stringIcSt11char_traitsIcESaIcEEERSt6vectorIS6_SaIS6_EEb
libadios2_core.so.2:_ZN9adios2sys11SystemTools9UpperCaseERKNSt7__cxx1112basic_stringIcSt11char_traitsIcESaIcEEE
libadios2_core.so.2:_ZN9adios2sys13DynamicLoader11OpenLibraryERKNSt7__cxx1112basic_stringIcSt11char_traitsIcESaIcEEE
libadios2_core.so.2:_ZN9adios2sys13DynamicLoader11OpenLibraryERKNSt7__cxx1112basic_stringIcSt11char_traitsIcESaIcEEEi
libadios2_core.so.2:_ZN9adios2sys13DynamicLoader12CloseLibraryEPv
libadios2_core.so.2:_ZN9adios2sys13DynamicLoader16GetSymbolAddressEPvRKNSt7__cxx1112basic_stringIcSt11char_traitsIcESaIcEEE
libadios2_core.so.2:_ZN9adios2sys13DynamicLoader9LastErrorEv
libadios2_core.so.2:_ZN9adios2sys13RegExpCompile3regEiPi
libadios2_core.so.2:_ZN9adios2sys13RegExpCompile4regcEc
libadios2_core.so.2:_ZN9adios2sys13RegExpCompile7regatomEPi
libadios2_core.so.2:_ZN9adios2sys13RegExpCompile7regnodeEc
libadios2_core.so.2:_ZN9adios2sys13RegExpCompile7regtailEPcPKc
libadios2_core.so.2:_ZN9adios2sys13RegExpCompile8regpieceEPi
libadios2_core.so.2:_ZN9adios2sys13RegExpCompile9regbranchEPi
libadios2_core.so.2:_ZN9adios2sys13RegExpCompile9reginsertEcPc
libadios2_core.so.2:_ZN9adios2sys13RegExpCompile9regoptailEPcPKc
libadios2_core.so.2:_ZN9adios2sys17RegularExpression7compileEPKc
libadios2_core.so.2:_ZN9adios2sys17RegularExpressionC1ERKS0_
libadios2_core.so.2:_ZN9adios2sys17RegularExpressionC2ERKS0_
libadios2_core.so.2:_ZN9adios2sys17RegularExpressionaSERKS0_
libadios2_core.so.2:_ZN9adios2sys17SystemToolsStatic13ReplaceStringERNSt7__cxx1112basic_stringIcSt11char_traitsIcESaIcEEEPKcmRKS6_
libadios2_core.so.2:_ZN9adios2sys17SystemToolsStatic14FileIsFullPathEPKcm
libadios2_core.so.2:_ZN9adios2sys17SystemToolsStatic8FindNameERKNSt7__cxx1112basic_stringIcSt11char_traitsIcESaIcEEERKSt6vectorIS6_SaIS6_EEb
libadios2_core.so.2:_ZN9adios2sys18SystemToolsManagerC1Ev
libadios2_core.so.2:_ZN9adios2sys18SystemToolsManagerC2Ev
libadios2_core.so.2:_ZN9adios2sys18SystemToolsManagerD1Ev
libadios2_core.so.2:_ZN9adios2sys18SystemToolsManagerD2Ev
libadios2_core.so.2:_ZN9adios2sys20CommandLineArguments10InitializeEiPKPKc
libadios2_core.so.2:_ZN9adios2sys20CommandLineArguments10InitializeEiPPc
libadios2_core.so.2:_ZN9adios2sys20CommandLineArguments10InitializeEv
libadios2_core.so.2:_ZN9adios2sys20CommandLineArguments11AddArgumentEPKcNS0_16ArgumentTypeEnumENS0_16VariableTypeEnumEPvS2_
libadios2_core.so.2:_ZN9adios2sys20CommandLineArguments11AddArgumentEPKcNS0_16ArgumentTypeEnumEPNSt7__cxx1112basic_stringIcSt11char_traitsIcESaIcEEES2_
libadios2_core.so.2:_ZN9adios2sys20CommandLineArguments11AddArgumentEPKcNS0_16ArgumentTypeEnumEPPcS2_
libadios2_core.so.2:_ZN9adios2sys20CommandLineArguments11AddArgumentEPKcNS0_16ArgumentTypeEnumEPSt6vectorINSt7__cxx1112basic_stringIcSt11char_traitsIcESaIcEEESaISA_EES2_
libadios2_core.so.2:_ZN9adios2sys20CommandLineArguments11AddArgumentEPKcNS0_16ArgumentTypeEnumEPSt6vectorIPcSaIS5_EES2_
libadios2_core.so.2:_ZN9adios2sys20CommandLineArguments11AddArgumentEPKcNS0_16ArgumentTypeEnumEPSt6vectorIbSaIbEES2_
libadios2_core.so.2:_ZN9adios2sys20CommandLineArguments11AddArgumentEPKcNS0_16ArgumentTypeEnumEPSt6vectorIdSaIdEES2_
libadios2_core.so.2:_ZN9adios2sys20CommandLineArguments11AddArgumentEPKcNS0_16ArgumentTypeEnumEPSt6vectorIiSaIiEES2_
libadios2_core.so.2:_ZN9adios2sys20CommandLineArguments11AddArgumentEPKcNS0_16ArgumentTypeEnumEPbS2_
libadios2_core.so.2:_ZN9adios2sys20CommandLineArguments11AddArgumentEPKcNS0_16ArgumentTypeEnumEPdS2_
libadios2_core.so.2:_ZN9adios2sys20CommandLineArguments11AddArgumentEPKcNS0_16ArgumentTypeEnumEPiS2_
libadios2_core.so.2:_ZN9adios2sys20CommandLineArguments11AddCallbackEPKcNS0_16ArgumentTypeEnumEPFiS2_S2_PvES4_S2_
libadios2_core.so.2:_ZN9adios2sys20CommandLineArguments12GenerateHelpEv
libadios2_core.so.2:_ZN9adios2sys20CommandLineArguments13SetClientDataEPv
libadios2_core.so.2:_ZN9adios2sys20CommandLineArguments13SetLineLengthEj
libadios2_core.so.2:_ZN9adios2sys20CommandLineArguments15GetLastArgumentEv
libadios2_core.so.2:_ZN9adios2sys20CommandLineArguments15ProcessArgumentEPKc
libadios2_core.so.2:_ZN9adios2sys20CommandLineArguments16PopulateVariableEPNS_37CommandLineArgumentsCallbackStructureEPKc
libadios2_core.so.2:_ZN9adios2sys20CommandLineArguments16PopulateVariableEPNSt7__cxx1112basic_stringIcSt11char_traitsIcESaIcEEERKS6_
libadios2_core.so.2:_ZN9adios2sys20CommandLineArguments16PopulateVariableEPPcRKNSt7__cxx1112basic_stringIcSt11char_traitsIcESaIcEEE
libadios2_core.so.2:_ZN9adios2sys20CommandLineArguments16PopulateVariableEPSt6vectorINSt7__cxx1112basic_stringIcSt11char_traitsIcESaIcEEESaIS7_EERKS7_
libadios2_core.so.2:_ZN9adios2sys20CommandLineArguments16PopulateVariableEPSt6vectorIPcSaIS2_EERKNSt7__cxx1112basic_stringIcSt11char_traitsIcESaIcEEE
libadios2_core.so.2:_ZN9adios2sys20CommandLineArguments16PopulateVariableEPSt6vectorIbSaIbEERKNSt7__cxx1112basic_stringIcSt11char_traitsIcESaIcEEE
libadios2_core.so.2:_ZN9adios2sys20CommandLineArguments16PopulateVariableEPSt6vectorIdSaIdEERKNSt7__cxx1112basic_stringIcSt11char_traitsIcESaIcEEE
libadios2_core.so.2:_ZN9adios2sys20CommandLineArguments16PopulateVariableEPSt6vectorIiSaIiEERKNSt7__cxx1112basic_stringIcSt11char_traitsIcESaIcEEE
libadios2_core.so.2:_ZN9adios2sys20CommandLineArguments16PopulateVariableEPbRKNSt7__cxx1112basic_stringIcSt11char_traitsIcESaIcEEE
libadios2_core.so.2:_ZN9adios2sys20CommandLineArguments16PopulateVariableEPdRKNSt7__cxx1112basic_stringIcSt11char_traitsIcESaIcEEE
libadios2_core.so.2:_ZN9adios2sys20CommandLineArguments16PopulateVariableEPiRKNSt7__cxx1112basic_stringIcSt11char_traitsIcESaIcEEE
libadios2_core.so.2:_ZN9adios2sys20CommandLineArguments18AddBooleanArgumentEPKcPNSt7__cxx1112basic_stringIcSt11char_traitsIcESaIcEEES2_
libadios2_core.so.2:_ZN9adios2sys20CommandLineArguments18AddBooleanArgumentEPKcPPcS2_
libadios2_core.so.2:_ZN9adios2sys20CommandLineArguments18AddBooleanArgumentEPKcPbS2_
libadios2_core.so.2:_ZN9adios2sys20CommandLineArguments18AddBooleanArgumentEPKcPdS2_
libadios2_core.so.2:_ZN9adios2sys20CommandLineArguments18AddBooleanArgumentEPKcPiS2_
libadios2_core.so.2:_ZN9adios2sys20CommandLineArguments18GetUnusedArgumentsEPiPPPc
libadios2_core.so.2:_ZN9adios2sys20CommandLineArguments19GetMatchedArgumentsEPSt6vectorINSt7__cxx1112basic_stringIcSt11char_traitsIcESaIcEEESaIS7_EERKS7_
libadios2_core.so.2:_ZN9adios2sys20CommandLineArguments21GetRemainingArgumentsEPiPPPc
libadios2_core.so.2:_ZN9adios2sys20CommandLineArguments24DeleteRemainingArgumentsEiPPPc
libadios2_core.so.2:_ZN9adios2sys20CommandLineArguments26SetUnknownArgumentCallbackEPFiPKcPvE
libadios2_core.so.2:_ZN9adios2sys20CommandLineArguments5ParseEv
libadios2_core.so.2:_ZN9adios2sys20CommandLineArguments7GetHelpEPKc
libadios2_core.so.2:_ZN9adios2sys20CommandLineArguments8GetArgv0Ev
libadios2_core.so.2:_ZN9adios2sys20CommandLineArgumentsC1Ev
libadios2_core.so.2:_ZN9adios2sys20CommandLineArgumentsC2Ev
libadios2_core.so.2:_ZN9adios2sys20CommandLineArgumentsD1Ev
libadios2_core.so.2:_ZN9adios2sys20CommandLineArgumentsD2Ev
libadios2_core.so.2:_ZN9adios2sys7FStream7ReadBOMERSi
libadios2_core.so.2:_ZN9adios2sys8Encoding20CommandLineArguments4MainEiPKPKc
libadios2_core.so.2:_ZN9adios2sys8Encoding20CommandLineArgumentsC1ERKS1_
libadios2_core.so.2:_ZN9adios2sys8Encoding20CommandLineArgumentsC1EiPKPKc
libadios2_core.so.2:_ZN9adios2sys8Encoding20CommandLineArgumentsC1EiPKPKw
libadios2_core.so.2:_ZN9adios2sys8Encoding20CommandLineArgumentsC2ERKS1_
libadios2_core.so.2:_ZN9adios2sys8Encoding20CommandLineArgumentsC2EiPKPKc
libadios2_core.so.2:_ZN9adios2sys8Encoding20CommandLineArgumentsC2EiPKPKw
libadios2_core.so.2:_ZN9adios2sys8Encoding20CommandLineArgumentsD1Ev
libadios2_core.so.2:_ZN9adios2sys8Encoding20CommandLineArgumentsD2Ev
libadios2_core.so.2:_ZN9adios2sys8Encoding20CommandLineArgumentsaSERKS1_
libadios2_core.so.2:_ZN9adios2sys8Encoding6ToWideB5cxx11EPKc
libadios2_core.so.2:_ZN9adios2sys8Encoding6ToWideERKNSt7__cxx1112basic_stringIcSt11char_traitsIcESaIcEEE
libadios2_core.so.2:_ZN9adios2sys8Encoding8ToNarrowB5cxx11EPKw
libadios2_core.so.2:_ZN9adios2sys8Encoding8ToNarrowERKNSt7__cxx1112basic_stringIwSt11char_traitsIwESaIwEEE
libadios2_core.so.2:_ZN9adios2sys9Directory27GetNumberOfFilesInDirectoryERKNSt7__cxx1112basic_stringIcSt11char_traitsIcESaIcEEEPS6_
libadios2_core.so.2:_ZN9adios2sys9Directory4LoadERKNSt7__cxx1112basic_stringIcSt11char_traitsIcESaIcEEEPS6_
libadios2_core.so.2:_ZN9adios2sys9Directory5ClearEv
libadios2_core.so.2:_ZN9adios2sys9DirectoryC1EOS0_
libadios2_core.so.2:_ZN9adios2sys9DirectoryC1Ev
libadios2_core.so.2:_ZN9adios2sys9DirectoryC2EOS0_
libadios2_core.so.2:_ZN9adios2sys9DirectoryC2Ev
libadios2_core.so.2:_ZN9adios2sys9DirectoryD1Ev
libadios2_core.so.2:_ZN9adios2sys9DirectoryD2Ev
libadios2_core.so.2:_ZN9adios2sys9DirectoryaSEOS0_
libadios2_core.so.2:_ZNK4YAML10Directives18TranslateTagHandleERKNSt7__cxx1112basic_stringIcSt11char_traitsIcESaIcEEE
libadios2_core.so.2:_ZNK4YAML10NodeEvents12AliasManager12LookupAnchorERKNS_6detail4nodeE
libadios2_core.so.2:_ZNK4YAML10NodeEvents4EmitERKNS_6detail4nodeERNS_12EventHandlerERNS0_12AliasManagerE
libadios2_core.so.2:_ZNK4YAML10NodeEvents9IsAliasedERKNS_6detail4nodeE
libadios2_core.so.2:_ZNK4YAML12EmitterState10LastIndentEv
libadios2_core.so.2:_ZNK4YAML12EmitterState11GetFlowTypeENS_9GroupType5valueE
libadios2_core.so.2:_ZNK4YAML12EmitterState12CurGroupTypeEv
libadios2_core.so.2:_ZNK4YAML12EmitterState13NextGroupTypeENS_9GroupType5valueE
libadios2_core.so.2:_ZNK4YAML12EmitterState14CurGroupIndentEv
libadios2_core.so.2:_ZNK4YAML12EmitterState15CurGroupLongKeyEv
libadios2_core.so.2:_ZNK4YAML12EmitterState16CurGroupFlowTypeEv
libadios2_core.so.2:_ZNK4YAML12EmitterState16CurGroupNodeTypeEv
libadios2_core.so.2:_ZNK4YAML12EmitterState18CurGroupChildCountEv
libadios2_core.so.2:_ZNK4YAML15SingleDocParser12LookupAnchorERKNS_4MarkERKNSt7__cxx1112basic_stringIcSt11char_traitsIcESaIcEEE
libadios2_core.so.2:_ZNK4YAML6ParsercvbEv
libadios2_core.so.2:_ZNK4YAML6Stream11GetNextByteEv
libadios2_core.so.2:_ZNK4YAML6Stream12StreamInUtf8Ev
libadios2_core.so.2:_ZNK4YAML6Stream12_ReadAheadToEm
libadios2_core.so.2:_ZNK4YAML6Stream13StreamInUtf16Ev
libadios2_core.so.2:_ZNK4YAML6Stream13StreamInUtf32Ev
libadios2_core.so.2:_ZNK4YAML6Stream4peekEv
libadios2_core.so.2:_ZNK4YAML6StreamcvbEv
libadios2_core.so.2:_ZNK4YAML6detail9node_data16compute_map_sizeEv
libadios2_core.so.2:_ZNK4YAML6detail9node_data16compute_seq_sizeEv
libadios2_core.so.2:_ZNK4YAML6detail9node_data3endEv
libadios2_core.so.2:_ZNK4YAML6detail9node_data3getERNS0_4nodeESt10shared_ptrINS0_13memory_holderEE
libadios2_core.so.2:_ZNK4YAML6detail9node_data4sizeEv
libadios2_core.so.2:_ZNK4YAML6detail9node_data5beginEv
libadios2_core.so.2:_ZNK4YAML7Emitter12GetLastErrorB5cxx11Ev
libadios2_core.so.2:_ZNK4YAML7Emitter14CanEmitNewlineEv
libadios2_core.so.2:_ZNK4YAML7Emitter17GetFloatPrecisionEv
libadios2_core.so.2:_ZNK4YAML7Emitter18GetDoublePrecisionEv
libadios2_core.so.2:_ZNK4YAML7Emitter19ComputeFullBoolNameEb
libadios2_core.so.2:_ZNK4YAML7Emitter21PrepareIntegralStreamERNSt7__cxx1118basic_stringstreamIcSt11char_traitsIcESaIcEEE
libadios2_core.so.2:_ZNK4YAML7Emitter4goodEv
libadios2_core.so.2:_ZNK4YAML7Emitter4sizeEv
libadios2_core.so.2:_ZNK4YAML7Emitter5c_strEv
libadios2_core.so.2:_ZNK4YAML7Scanner12GetTopIndentEv
libadios2_core.so.2:_ZNK4YAML7Scanner13GetValueRegexEv
libadios2_core.so.2:_ZNK4YAML7Scanner16GetStartTokenForENS0_12IndentMarker11INDENT_TYPEE
libadios2_core.so.2:_ZNK4YAML7Scanner20ThrowParserExceptionERKNSt7__cxx1112basic_stringIcSt11char_traitsIcESaIcEEE
libadios2_core.so.2:_ZNK4YAML7Scanner21ExistsActiveSimpleKeyEv
libadios2_core.so.2:_ZNK4YAML7Scanner27CanInsertPotentialSimpleKeyEv
libadios2_core.so.2:_ZNK4YAML7Scanner4markEv
libadios2_core.so.2:_ZNK4pugi10xpath_node4nodeEv
libadios2_core.so.2:_ZNK4pugi10xpath_node6parentEv
libadios2_core.so.2:_ZNK4pugi10xpath_node9attributeEv
libadios2_core.so.2:_ZNK4pugi10xpath_nodecvPFvPPPS0_EEv
libadios2_core.so.2:_ZNK4pugi10xpath_nodeeqERKS0_
libadios2_core.so.2:_ZNK4pugi10xpath_nodeneERKS0_
libadios2_core.so.2:_ZNK4pugi10xpath_nodentEv
libadios2_core.so.2:_ZNK4pugi11xpath_query11return_typeEv
libadios2_core.so.2:_ZNK4pugi11xpath_query13evaluate_nodeERKNS_10xpath_nodeE
libadios2_core.so.2:_ZNK4pugi11xpath_query15evaluate_numberERKNS_10xpath_nodeE
libadios2_core.so.2:_ZNK4pugi11xpath_query15evaluate_stringB5cxx11ERKNS_10xpath_nodeE
libadios2_core.so.2:_ZNK4pugi11xpath_query15evaluate_stringEPcmRKNS_10xpath_nodeE
libadios2_core.so.2:_ZNK4pugi11xpath_query16evaluate_booleanERKNS_10xpath_nodeE
libadios2_core.so.2:_ZNK4pugi11xpath_query17evaluate_node_setERKNS_10xpath_nodeE
libadios2_core.so.2:_ZNK4pugi11xpath_query6resultEv
libadios2_core.so.2:_ZNK4pugi11xpath_querycvPFvPPPS0_EEv
libadios2_core.so.2:_ZNK4pugi11xpath_queryntEv
libadios2_core.so.2:_ZNK4pugi12xml_document16document_elementEv
libadios2_core.so.2:_ZNK4pugi12xml_document4saveERNS_10xml_writerEPKcjNS_12xml_encodingE
libadios2_core.so.2:_ZNK4pugi12xml_document4saveERSoPKcjNS_12xml_encodingE
libadios2_core.so.2:_ZNK4pugi12xml_document4saveERSt13basic_ostreamIwSt11char_traitsIwEEPKcj
libadios2_core.so.2:_ZNK4pugi12xml_document9save_fileEPKcS2_jNS_12xml_encodingE
libadios2_core.so.2:_ZNK4pugi12xml_document9save_fileEPKwPKcjNS_12xml_encodingE
libadios2_core.so.2:_ZNK4pugi13xml_attribute10hash_valueEv
libadios2_core.so.2:_ZNK4pugi13xml_attribute14next_attributeEv
libadios2_core.so.2:_ZNK4pugi13xml_attribute15internal_objectEv
libadios2_core.so.2:_ZNK4pugi13xml_attribute18previous_attributeEv
libadios2_core.so.2:_ZNK4pugi13xml_attribute4nameEv
libadios2_core.so.2:_ZNK4pugi13xml_attribute5emptyEv
libadios2_core.so.2:_ZNK4pugi13xml_attribute5valueEv
libadios2_core.so.2:_ZNK4pugi13xml_attribute6as_intEi
libadios2_core.so.2:_ZNK4pugi13xml_attribute7as_boolEb
libadios2_core.so.2:_ZNK4pugi13xml_attribute7as_uintEj
libadios2_core.so.2:_ZNK4pugi13xml_attribute8as_floatEf
libadios2_core.so.2:_ZNK4pugi13xml_attribute8as_llongEx
libadios2_core.so.2:_ZNK4pugi13xml_attribute9as_doubleEd
libadios2_core.so.2:_ZNK4pugi13xml_attribute9as_stringEPKc
libadios2_core.so.2:_ZNK4pugi13xml_attribute9as_ullongEy
libadios2_core.so.2:_ZNK4pugi13xml_attributecvPFvPPPS0_EEv
libadios2_core.so.2:_ZNK4pugi13xml_attributeeqERKS0_
libadios2_core.so.2:_ZNK4pugi13xml_attributegeERKS0_
libadios2_core.so.2:_ZNK4pugi13xml_attributegtERKS0_
libadios2_core.so.2:_ZNK4pugi13xml_attributeleERKS0_
libadios2_core.so.2:_ZNK4pugi13xml_attributeltERKS0_
libadios2_core.so.2:_ZNK4pugi13xml_attributeneERKS0_
libadios2_core.so.2:_ZNK4pugi13xml_attributentEv
libadios2_core.so.2:_ZNK4pugi14xpath_node_set3endEv
libadios2_core.so.2:_ZNK4pugi14xpath_node_set4sizeEv
libadios2_core.so.2:_ZNK4pugi14xpath_node_set4typeEv
libadios2_core.so.2:_ZNK4pugi14xpath_node_set5beginEv
libadios2_core.so.2:_ZNK4pugi14xpath_node_set5emptyEv
libadios2_core.so.2:_ZNK4pugi14xpath_node_set5firstEv
libadios2_core.so.2:_ZNK4pugi14xpath_node_setixEm
libadios2_core.so.2:_ZNK4pugi14xpath_variable10get_numberEv
libadios2_core.so.2:_ZNK4pugi14xpath_variable10get_stringEv
libadios2_core.so.2:_ZNK4pugi14xpath_variable11get_booleanEv
libadios2_core.so.2:_ZNK4pugi14xpath_variable12get_node_setEv
libadios2_core.so.2:_ZNK4pugi14xpath_variable4nameEv
libadios2_core.so.2:_ZNK4pugi14xpath_variable4typeEv
libadios2_core.so.2:_ZNK4pugi15xml_tree_walker5depthEv
libadios2_core.so.2:_ZNK4pugi15xpath_exception4whatEv
libadios2_core.so.2:_ZNK4pugi15xpath_exception6resultEv
libadios2_core.so.2:_ZNK4pugi16xml_parse_result11descriptionEv
libadios2_core.so.2:_ZNK4pugi16xml_parse_resultcvbEv
libadios2_core.so.2:_ZNK4pugi17xml_node_iteratordeEv
libadios2_core.so.2:_ZNK4pugi17xml_node_iteratoreqERKS0_
libadios2_core.so.2:_ZNK4pugi17xml_node_iteratorneERKS0_
libadios2_core.so.2:_ZNK4pugi17xml_node_iteratorptEv
libadios2_core.so.2:_ZNK4pugi18xpath_parse_result11descriptionEv
libadios2_core.so.2:_ZNK4pugi18xpath_parse_resultcvbEv
libadios2_core.so.2:_ZNK4pugi18xpath_variable_set3getEPKc
libadios2_core.so.2:_ZNK4pugi18xpath_variable_set5_findEPKc
libadios2_core.so.2:_ZNK4pugi22xml_attribute_iteratordeEv
libadios2_core.so.2:_ZNK4pugi22xml_attribute_iteratoreqERKS0_
libadios2_core.so.2:_ZNK4pugi22xml_attribute_iteratorneERKS0_
libadios2_core.so.2:_ZNK4pugi22xml_attribute_iteratorptEv
libadios2_core.so.2:_ZNK4pugi23xml_named_node_iteratordeEv
libadios2_core.so.2:_ZNK4pugi23xml_named_node_iteratoreqERKS0_
libadios2_core.so.2:_ZNK4pugi23xml_named_node_iteratorneERKS0_
libadios2_core.so.2:_ZNK4pugi23xml_named_node_iteratorptEv
libadios2_core.so.2:_ZNK4pugi8xml_node10attributesEv
libadios2_core.so.2:_ZNK4pugi8xml_node10hash_valueEv
libadios2_core.so.2:_ZNK4pugi8xml_node10last_childEv
libadios2_core.so.2:_ZNK4pugi8xml_node11child_valueEPKc
libadios2_core.so.2:_ZNK4pugi8xml_node11child_valueEv
libadios2_core.so.2:_ZNK4pugi8xml_node11first_childEv
libadios2_core.so.2:_ZNK4pugi8xml_node11select_nodeEPKcPNS_18xpath_variable_setE
libadios2_core.so.2:_ZNK4pugi8xml_node11select_nodeERKNS_11xpath_queryE
libadios2_core.so.2:_ZNK4pugi8xml_node12next_siblingEPKc
libadios2_core.so.2:_ZNK4pugi8xml_node12next_siblingEv
libadios2_core.so.2:_ZNK4pugi8xml_node12offset_debugEv
libadios2_core.so.2:_ZNK4pugi8xml_node12select_nodesEPKcPNS_18xpath_variable_setE
libadios2_core.so.2:_ZNK4pugi8xml_node12select_nodesERKNS_11xpath_queryE
libadios2_core.so.2:_ZNK4pugi8xml_node14attributes_endEv
libadios2_core.so.2:_ZNK4pugi8xml_node14last_attributeEv
libadios2_core.so.2:_ZNK4pugi8xml_node15first_attributeEv
libadios2_core.so.2:_ZNK4pugi8xml_node15internal_objectEv
libadios2_core.so.2:_ZNK4pugi8xml_node16attributes_beginEv
libadios2_core.so.2:_ZNK4pugi8xml_node16previous_siblingEPKc
libadios2_core.so.2:_ZNK4pugi8xml_node16previous_siblingEv
libadios2_core.so.2:_ZNK4pugi8xml_node18select_single_nodeEPKcPNS_18xpath_variable_setE
libadios2_core.so.2:_ZNK4pugi8xml_node18select_single_nodeERKNS_11xpath_queryE
libadios2_core.so.2:_ZNK4pugi8xml_node21first_element_by_pathEPKcc
libadios2_core.so.2:_ZNK4pugi8xml_node23find_child_by_attributeEPKcS2_
libadios2_core.so.2:_ZNK4pugi8xml_node23find_child_by_attributeEPKcS2_S2_
libadios2_core.so.2:_ZNK4pugi8xml_node3endEv
libadios2_core.so.2:_ZNK4pugi8xml_node4nameEv
libadios2_core.so.2:_ZNK4pugi8xml_node4pathB5cxx11Ec
libadios2_core.so.2:_ZNK4pugi8xml_node4rootEv
libadios2_core.so.2:_ZNK4pugi8xml_node4textEv
libadios2_core.so.2:_ZNK4pugi8xml_node4typeEv
libadios2_core.so.2:_ZNK4pugi8xml_node5beginEv
libadios2_core.so.2:_ZNK4pugi8xml_node5childEPKc
libadios2_core.so.2:_ZNK4pugi8xml_node5emptyEv
libadios2_core.so.2:_ZNK4pugi8xml_node5printERNS_10xml_writerEPKcjNS_12xml_encodingEj
libadios2_core.so.2:_ZNK4pugi8xml_node5printERSoPKcjNS_12xml_encodingEj
libadios2_core.so.2:_ZNK4pugi8xml_node5printERSt13basic_ostreamIwSt11char_traitsIwEEPKcjj
libadios2_core.so.2:_ZNK4pugi8xml_node5valueEv
libadios2_core.so.2:_ZNK4pugi8xml_node6parentEv
libadios2_core.so.2:_ZNK4pugi8xml_node8childrenEPKc
libadios2_core.so.2:_ZNK4pugi8xml_node8childrenEv
libadios2_core.so.2:_ZNK4pugi8xml_node9attributeEPKc
libadios2_core.so.2:_ZNK4pugi8xml_node9attributeEPKcRNS_13xml_attributeE
libadios2_core.so.2:_ZNK4pugi8xml_nodecvPFvPPPS0_EEv
libadios2_core.so.2:_ZNK4pugi8xml_nodeeqERKS0_
libadios2_core.so.2:_ZNK4pugi8xml_nodegeERKS0_
libadios2_core.so.2:_ZNK4pugi8xml_nodegtERKS0_
libadios2_core.so.2:_ZNK4pugi8xml_nodeleERKS0_
libadios2_core.so.2:_ZNK4pugi8xml_nodeltERKS0_
libadios2_core.so.2:_ZNK4pugi8xml_nodeneERKS0_
libadios2_core.so.2:_ZNK4pugi8xml_nodentEv
libadios2_core.so.2:_ZNK4pugi8xml_text3getEv
libadios2_core.so.2:_ZNK4pugi8xml_text4dataEv
libadios2_core.so.2:_ZNK4pugi8xml_text5_dataEv
libadios2_core.so.2:_ZNK4pugi8xml_text5emptyEv
libadios2_core.so.2:_ZNK4pugi8xml_text6as_intEi
libadios2_core.so.2:_ZNK4pugi8xml_text7as_boolEb
libadios2_core.so.2:_ZNK4pugi8xml_text7as_uintEj
libadios2_core.so.2:_ZNK4pugi8xml_text8as_floatEf
libadios2_core.so.2:_ZNK4pugi8xml_text8as_llongEx
libadios2_core.so.2:_ZNK4pugi8xml_text9as_doubleEd
libadios2_core.so.2:_ZNK4pugi8xml_text9as_stringEPKc
libadios2_core.so.2:_ZNK4pugi8xml_text9as_ullongEy
libadios2_core.so.2:_ZNK4pugi8xml_textcvPFvPPPS0_EEv
libadios2_core.so.2:_ZNK4pugi8xml_textntEv
libadios2_core.so.2:_ZNK6adios212transportman12TransportMan11GetFileSizeEm
libadios2_core.so.2:_ZNK6adios212transportman12TransportMan17GetFilesBaseNamesERKNSt7__cxx1112basic_stringIcSt11char_traitsIcESaIcEEERKSt6vectorISt3mapIS7_S7_St4lessIS7_ESaISt4pairIS8_S7_EEESaISH_EE
libadios2_core.so.2:_ZNK6adios212transportman12TransportMan19AllTransportsClosedEv
libadios2_core.so.2:_ZNK6adios212transportman12TransportMan9CheckFileENSt8__detail20_Node_const_iteratorISt4pairIKmSt10shared_ptrINS_9TransportEEELb0ELb0EEENSt7__cxx1112basic_stringIcSt11char_traitsIcESaIcEEE
libadios2_core.so.2:_ZNK6adios24core12VariableBase11IsValidStepEm
libadios2_core.so.2:_ZNK6adios24core12VariableBase14IsConstantDimsEv
libadios2_core.so.2:_ZNK6adios24core12VariableBase15CheckDimensionsENSt7__cxx1112basic_stringIcSt11char_traitsIcESaIcEEE
libadios2_core.so.2:_ZNK6adios24core12VariableBase17GetAttributesInfoERNS0_2IOENSt7__cxx1112basic_stringIcSt11char_traitsIcESaIcEEEb
libadios2_core.so.2:_ZNK6adios24core12VariableBase21CheckDimensionsCommonENSt7__cxx1112basic_stringIcSt11char_traitsIcESaIcEEE
libadios2_core.so.2:_ZNK6adios24core12VariableBase22GetAvailableStepsCountEv
libadios2_core.so.2:_ZNK6adios24core12VariableBase22GetAvailableStepsStartEv
libadios2_core.so.2:_ZNK6adios24core12VariableBase25CheckRandomAccessConflictENSt7__cxx1112basic_stringIcSt11char_traitsIcESaIcEEE
libadios2_core.so.2:_ZNK6adios24core12VariableBase9TotalSizeEv
libadios2_core.so.2:_ZNK6adios24core13AttributeBase7GetInfoB5cxx11Ev
libadios2_core.so.2:_ZNK6adios24core2IO10IsDeclaredEv
libadios2_core.so.2:_ZNK6adios24core2IO12GetVariablesB5cxx11Ev
libadios2_core.so.2:_ZNK6adios24core2IO12InConfigFileEv
libadios2_core.so.2:_ZNK6adios24core2IO13GetAttributesB5cxx11Ev
libadios2_core.so.2:_ZNK6adios24core2IO18CheckTransportTypeENSt7__cxx1112basic_stringIcSt11char_traitsIcESaIcEEE
libadios2_core.so.2:_ZNK6adios24core2IO19InquireVariableTypeENSt8__detail20_Node_const_iteratorISt4pairIKNSt7__cxx1112basic_stringIcSt11char_traitsIcESaIcEEESt10unique_ptrINS0_12VariableBaseESt14default_deleteISD_EEELb0ELb1EEE
libadios2_core.so.2:_ZNK6adios24core2IO19InquireVariableTypeERKNSt7__cxx1112basic_stringIcSt11char_traitsIcESaIcEEE
libadios2_core.so.2:_ZNK6adios24core2IO20CheckAttributeCommonERKNSt7__cxx1112basic_stringIcSt11char_traitsIcESaIcEEE
libadios2_core.so.2:_ZNK6adios24core2IO20InquireAttributeTypeERKNSt7__cxx1112basic_stringIcSt11char_traitsIcESaIcEEES9_S7_
libadios2_core.so.2:_ZNK6adios24core5ADIOS13CheckOperatorENSt7__cxx1112basic_stringIcSt11char_traitsIcESaIcEEE
libadios2_core.so.2:_ZNK6adios24core5Group19InquireVariableTypeERKNSt7__cxx1112basic_stringIcSt11char_traitsIcESaIcEEE
libadios2_core.so.2:_ZNK6adios24core5Group20InquireAttributeTypeERKNSt7__cxx1112basic_stringIcSt11char_traitsIcESaIcEEES9_S7_
libadios2_core.so.2:_ZNK6adios24core6Engine11CurrentStepEv
libadios2_core.so.2:_ZNK6adios24core6Engine12DoBlocksInfoERKNS0_8VariableINSt7__cxx1112basic_stringIcSt11char_traitsIcESaIcEEEEEm
libadios2_core.so.2:_ZNK6adios24core6Engine12DoBlocksInfoERKNS0_8VariableISt7complexIdEEEm
libadios2_core.so.2:_ZNK6adios24core6Engine12DoBlocksInfoERKNS0_8VariableISt7complexIfEEEm
libadios2_core.so.2:_ZNK6adios24core6Engine12DoBlocksInfoERKNS0_8VariableIaEEm
libadios2_core.so.2:_ZNK6adios24core6Engine12DoBlocksInfoERKNS0_8VariableIdEEm
libadios2_core.so.2:_ZNK6adios24core6Engine12DoBlocksInfoERKNS0_8VariableIeEEm
libadios2_core.so.2:_ZNK6adios24core6Engine12DoBlocksInfoERKNS0_8VariableIfEEm
libadios2_core.so.2:_ZNK6adios24core6Engine12DoBlocksInfoERKNS0_8VariableIhEEm
libadios2_core.so.2:_ZNK6adios24core6Engine12DoBlocksInfoERKNS0_8VariableIiEEm
libadios2_core.so.2:_ZNK6adios24core6Engine12DoBlocksInfoERKNS0_8VariableIjEEm
libadios2_core.so.2:_ZNK6adios24core6Engine12DoBlocksInfoERKNS0_8VariableIlEEm
libadios2_core.so.2:_ZNK6adios24core6Engine12DoBlocksInfoERKNS0_8VariableImEEm
libadios2_core.so.2:_ZNK6adios24core6Engine12DoBlocksInfoERKNS0_8VariableIsEEm
libadios2_core.so.2:_ZNK6adios24core6Engine12DoBlocksInfoERKNS0_8VariableItEEm
libadios2_core.so.2:_ZNK6adios24core6Engine14CheckOpenModesERKSt3setINS_4ModeESt4lessIS3_ESaIS3_EENSt7__cxx1112basic_stringIcSt11char_traitsIcESaIcEEE
libadios2_core.so.2:_ZNK6adios24core6Engine18DoGetAbsoluteStepsERKNS0_8VariableINSt7__cxx1112basic_stringIcSt11char_traitsIcESaIcEEEEE
libadios2_core.so.2:_ZNK6adios24core6Engine18DoGetAbsoluteStepsERKNS0_8VariableISt7complexIdEEE
libadios2_core.so.2:_ZNK6adios24core6Engine18DoGetAbsoluteStepsERKNS0_8VariableISt7complexIfEEE
libadios2_core.so.2:_ZNK6adios24core6Engine18DoGetAbsoluteStepsERKNS0_8VariableIaEE
libadios2_core.so.2:_ZNK6adios24core6Engine18DoGetAbsoluteStepsERKNS0_8VariableIdEE
libadios2_core.so.2:_ZNK6adios24core6Engine18DoGetAbsoluteStepsERKNS0_8VariableIeEE
libadios2_core.so.2:_ZNK6adios24core6Engine18DoGetAbsoluteStepsERKNS0_8VariableIfEE
libadios2_core.so.2:_ZNK6adios24core6Engine18DoGetAbsoluteStepsERKNS0_8VariableIhEE
libadios2_core.so.2:_ZNK6adios24core6Engine18DoGetAbsoluteStepsERKNS0_8VariableIiEE
libadios2_core.so.2:_ZNK6adios24core6Engine18DoGetAbsoluteStepsERKNS0_8VariableIjEE
libadios2_core.so.2:_ZNK6adios24core6Engine18DoGetAbsoluteStepsERKNS0_8VariableIlEE
libadios2_core.so.2:_ZNK6adios24core6Engine18DoGetAbsoluteStepsERKNS0_8VariableImEE
libadios2_core.so.2:_ZNK6adios24core6Engine18DoGetAbsoluteStepsERKNS0_8VariableIsEE
libadios2_core.so.2:_ZNK6adios24core6Engine18DoGetAbsoluteStepsERKNS0_8VariableItEE
libadios2_core.so.2:_ZNK6adios24core6Engine20DoAllStepsBlocksInfoERKNS0_8VariableINSt7__cxx1112basic_stringIcSt11char_traitsIcESaIcEEEEE
libadios2_core.so.2:_ZNK6adios24core6Engine20DoAllStepsBlocksInfoERKNS0_8VariableISt7complexIdEEE
libadios2_core.so.2:_ZNK6adios24core6Engine20DoAllStepsBlocksInfoERKNS0_8VariableISt7complexIfEEE
libadios2_core.so.2:_ZNK6adios24core6Engine20DoAllStepsBlocksInfoERKNS0_8VariableIaEE
libadios2_core.so.2:_ZNK6adios24core6Engine20DoAllStepsBlocksInfoERKNS0_8VariableIdEE
libadios2_core.so.2:_ZNK6adios24core6Engine20DoAllStepsBlocksInfoERKNS0_8VariableIeEE
libadios2_core.so.2:_ZNK6adios24core6Engine20DoAllStepsBlocksInfoERKNS0_8VariableIfEE
libadios2_core.so.2:_ZNK6adios24core6Engine20DoAllStepsBlocksInfoERKNS0_8VariableIhEE
libadios2_core.so.2:_ZNK6adios24core6Engine20DoAllStepsBlocksInfoERKNS0_8VariableIiEE
libadios2_core.so.2:_ZNK6adios24core6Engine20DoAllStepsBlocksInfoERKNS0_8VariableIjEE
libadios2_core.so.2:_ZNK6adios24core6Engine20DoAllStepsBlocksInfoERKNS0_8VariableIlEE
libadios2_core.so.2:_ZNK6adios24core6Engine20DoAllStepsBlocksInfoERKNS0_8VariableImEE
libadios2_core.so.2:_ZNK6adios24core6Engine20DoAllStepsBlocksInfoERKNS0_8VariableIsEE
libadios2_core.so.2:_ZNK6adios24core6Engine20DoAllStepsBlocksInfoERKNS0_8VariableItEE
libadios2_core.so.2:_ZNK6adios24core6Engine22DebugGetDataBufferSizeEv
libadios2_core.so.2:_ZNK6adios24core6Engine28DoAllRelativeStepsBlocksInfoERKNS0_8VariableINSt7__cxx1112basic_stringIcSt11char_traitsIcESaIcEEEEE
libadios2_core.so.2:_ZNK6adios24core6Engine28DoAllRelativeStepsBlocksInfoERKNS0_8VariableISt7complexIdEEE
libadios2_core.so.2:_ZNK6adios24core6Engine28DoAllRelativeStepsBlocksInfoERKNS0_8VariableISt7complexIfEEE
libadios2_core.so.2:_ZNK6adios24core6Engine28DoAllRelativeStepsBlocksInfoERKNS0_8VariableIaEE
libadios2_core.so.2:_ZNK6adios24core6Engine28DoAllRelativeStepsBlocksInfoERKNS0_8VariableIdEE
libadios2_core.so.2:_ZNK6adios24core6Engine28DoAllRelativeStepsBlocksInfoERKNS0_8VariableIeEE
libadios2_core.so.2:_ZNK6adios24core6Engine28DoAllRelativeStepsBlocksInfoERKNS0_8VariableIfEE
libadios2_core.so.2:_ZNK6adios24core6Engine28DoAllRelativeStepsBlocksInfoERKNS0_8VariableIhEE
libadios2_core.so.2:_ZNK6adios24core6Engine28DoAllRelativeStepsBlocksInfoERKNS0_8VariableIiEE
libadios2_core.so.2:_ZNK6adios24core6Engine28DoAllRelativeStepsBlocksInfoERKNS0_8VariableIjEE
libadios2_core.so.2:_ZNK6adios24core6Engine28DoAllRelativeStepsBlocksInfoERKNS0_8VariableIlEE
libadios2_core.so.2:_ZNK6adios24core6Engine28DoAllRelativeStepsBlocksInfoERKNS0_8VariableImEE
libadios2_core.so.2:_ZNK6adios24core6Engine28DoAllRelativeStepsBlocksInfoERKNS0_8VariableIsEE
libadios2_core.so.2:_ZNK6adios24core6Engine28DoAllRelativeStepsBlocksInfoERKNS0_8VariableItEE
libadios2_core.so.2:_ZNK6adios24core6Engine5StepsEv
libadios2_core.so.2:_ZNK6adios24core6Engine7DoStepsEv
libadios2_core.so.2:_ZNK6adios24core6Engine7ThrowUpENSt7__cxx1112basic_stringIcSt11char_traitsIcESaIcEEE
libadios2_core.so.2:_ZNK6adios24core6Engine8OpenModeEv
libadios2_core.so.2:_ZNK6adios24core6EnginecvbEv
libadios2_core.so.2:_ZNK6adios24core6Stream11CurrentStepEv
libadios2_core.so.2:_ZNK6adios24core6Stream5StepsEv
libadios2_core.so.2:_ZNK6adios24core6engine11HDF5ReaderP11CurrentStepEv
libadios2_core.so.2:_ZNK6adios24core6engine11HDF5ReaderP12DoBlocksInfoERKNS0_8VariableINSt7__cxx1112basic_stringIcSt11char_traitsIcESaIcEEEEEm
libadios2_core.so.2:_ZNK6adios24core6engine11HDF5ReaderP12DoBlocksInfoERKNS0_8VariableISt7complexIdEEEm
libadios2_core.so.2:_ZNK6adios24core6engine11HDF5ReaderP12DoBlocksInfoERKNS0_8VariableISt7complexIfEEEm
libadios2_core.so.2:_ZNK6adios24core6engine11HDF5ReaderP12DoBlocksInfoERKNS0_8VariableIaEEm
libadios2_core.so.2:_ZNK6adios24core6engine11HDF5ReaderP12DoBlocksInfoERKNS0_8VariableIdEEm
libadios2_core.so.2:_ZNK6adios24core6engine11HDF5ReaderP12DoBlocksInfoERKNS0_8VariableIeEEm
libadios2_core.so.2:_ZNK6adios24core6engine11HDF5ReaderP12DoBlocksInfoERKNS0_8VariableIfEEm
libadios2_core.so.2:_ZNK6adios24core6engine11HDF5ReaderP12DoBlocksInfoERKNS0_8VariableIhEEm
libadios2_core.so.2:_ZNK6adios24core6engine11HDF5ReaderP12DoBlocksInfoERKNS0_8VariableIiEEm
libadios2_core.so.2:_ZNK6adios24core6engine11HDF5ReaderP12DoBlocksInfoERKNS0_8VariableIjEEm
libadios2_core.so.2:_ZNK6adios24core6engine11HDF5ReaderP12DoBlocksInfoERKNS0_8VariableIlEEm
libadios2_core.so.2:_ZNK6adios24core6engine11HDF5ReaderP12DoBlocksInfoERKNS0_8VariableImEEm
libadios2_core.so.2:_ZNK6adios24core6engine11HDF5ReaderP12DoBlocksInfoERKNS0_8VariableIsEEm
libadios2_core.so.2:_ZNK6adios24core6engine11HDF5ReaderP12DoBlocksInfoERKNS0_8VariableItEEm
libadios2_core.so.2:_ZNK6adios24core6engine11HDF5ReaderP20DoAllStepsBlocksInfoERKNS0_8VariableINSt7__cxx1112basic_stringIcSt11char_traitsIcESaIcEEEEE
libadios2_core.so.2:_ZNK6adios24core6engine11HDF5ReaderP20DoAllStepsBlocksInfoERKNS0_8VariableISt7complexIdEEE
libadios2_core.so.2:_ZNK6adios24core6engine11HDF5ReaderP20DoAllStepsBlocksInfoERKNS0_8VariableISt7complexIfEEE
libadios2_core.so.2:_ZNK6adios24core6engine11HDF5ReaderP20DoAllStepsBlocksInfoERKNS0_8VariableIaEE
libadios2_core.so.2:_ZNK6adios24core6engine11HDF5ReaderP20DoAllStepsBlocksInfoERKNS0_8VariableIdEE
libadios2_core.so.2:_ZNK6adios24core6engine11HDF5ReaderP20DoAllStepsBlocksInfoERKNS0_8VariableIeEE
libadios2_core.so.2:_ZNK6adios24core6engine11HDF5ReaderP20DoAllStepsBlocksInfoERKNS0_8VariableIfEE
libadios2_core.so.2:_ZNK6adios24core6engine11HDF5ReaderP20DoAllStepsBlocksInfoERKNS0_8VariableIhEE
libadios2_core.so.2:_ZNK6adios24core6engine11HDF5ReaderP20DoAllStepsBlocksInfoERKNS0_8VariableIiEE
libadios2_core.so.2:_ZNK6adios24core6engine11HDF5ReaderP20DoAllStepsBlocksInfoERKNS0_8VariableIjEE
libadios2_core.so.2:_ZNK6adios24core6engine11HDF5ReaderP20DoAllStepsBlocksInfoERKNS0_8VariableIlEE
libadios2_core.so.2:_ZNK6adios24core6engine11HDF5ReaderP20DoAllStepsBlocksInfoERKNS0_8VariableImEE
libadios2_core.so.2:_ZNK6adios24core6engine11HDF5ReaderP20DoAllStepsBlocksInfoERKNS0_8VariableIsEE
libadios2_core.so.2:_ZNK6adios24core6engine11HDF5ReaderP20DoAllStepsBlocksInfoERKNS0_8VariableItEE
libadios2_core.so.2:_ZNK6adios24core6engine11HDF5ReaderP7DoStepsEv
libadios2_core.so.2:_ZNK6adios24core6engine11TableWriter11CurrentStepEv
libadios2_core.so.2:_ZNK6adios24core6engine12InlineReader11CurrentStepEv
libadios2_core.so.2:_ZNK6adios24core6engine12InlineReader12DoBlocksInfoERKNS0_8VariableINSt7__cxx1112basic_stringIcSt11char_traitsIcESaIcEEEEEm
libadios2_core.so.2:_ZNK6adios24core6engine12InlineReader12DoBlocksInfoERKNS0_8VariableISt7complexIdEEEm
libadios2_core.so.2:_ZNK6adios24core6engine12InlineReader12DoBlocksInfoERKNS0_8VariableISt7complexIfEEEm
libadios2_core.so.2:_ZNK6adios24core6engine12InlineReader12DoBlocksInfoERKNS0_8VariableIaEEm
libadios2_core.so.2:_ZNK6adios24core6engine12InlineReader12DoBlocksInfoERKNS0_8VariableIdEEm
libadios2_core.so.2:_ZNK6adios24core6engine12InlineReader12DoBlocksInfoERKNS0_8VariableIeEEm
libadios2_core.so.2:_ZNK6adios24core6engine12InlineReader12DoBlocksInfoERKNS0_8VariableIfEEm
libadios2_core.so.2:_ZNK6adios24core6engine12InlineReader12DoBlocksInfoERKNS0_8VariableIhEEm
libadios2_core.so.2:_ZNK6adios24core6engine12InlineReader12DoBlocksInfoERKNS0_8VariableIiEEm
libadios2_core.so.2:_ZNK6adios24core6engine12InlineReader12DoBlocksInfoERKNS0_8VariableIjEEm
libadios2_core.so.2:_ZNK6adios24core6engine12InlineReader12DoBlocksInfoERKNS0_8VariableIlEEm
libadios2_core.so.2:_ZNK6adios24core6engine12InlineReader12DoBlocksInfoERKNS0_8VariableImEEm
libadios2_core.so.2:_ZNK6adios24core6engine12InlineReader12DoBlocksInfoERKNS0_8VariableIsEEm
libadios2_core.so.2:_ZNK6adios24core6engine12InlineReader12DoBlocksInfoERKNS0_8VariableItEEm
libadios2_core.so.2:_ZNK6adios24core6engine12InlineReader12IsInsideStepEv
libadios2_core.so.2:_ZNK6adios24core6engine12InlineReader20DoAllStepsBlocksInfoERKNS0_8VariableINSt7__cxx1112basic_stringIcSt11char_traitsIcESaIcEEEEE
libadios2_core.so.2:_ZNK6adios24core6engine12InlineReader20DoAllStepsBlocksInfoERKNS0_8VariableISt7complexIdEEE
libadios2_core.so.2:_ZNK6adios24core6engine12InlineReader20DoAllStepsBlocksInfoERKNS0_8VariableISt7complexIfEEE
libadios2_core.so.2:_ZNK6adios24core6engine12InlineReader20DoAllStepsBlocksInfoERKNS0_8VariableIaEE
libadios2_core.so.2:_ZNK6adios24core6engine12InlineReader20DoAllStepsBlocksInfoERKNS0_8VariableIdEE
libadios2_core.so.2:_ZNK6adios24core6engine12InlineReader20DoAllStepsBlocksInfoERKNS0_8VariableIeEE
libadios2_core.so.2:_ZNK6adios24core6engine12InlineReader20DoAllStepsBlocksInfoERKNS0_8VariableIfEE
libadios2_core.so.2:_ZNK6adios24core6engine12InlineReader20DoAllStepsBlocksInfoERKNS0_8VariableIhEE
libadios2_core.so.2:_ZNK6adios24core6engine12InlineReader20DoAllStepsBlocksInfoERKNS0_8VariableIiEE
libadios2_core.so.2:_ZNK6adios24core6engine12InlineReader20DoAllStepsBlocksInfoERKNS0_8VariableIjEE
libadios2_core.so.2:_ZNK6adios24core6engine12InlineReader20DoAllStepsBlocksInfoERKNS0_8VariableIlEE
libadios2_core.so.2:_ZNK6adios24core6engine12InlineReader20DoAllStepsBlocksInfoERKNS0_8VariableImEE
libadios2_core.so.2:_ZNK6adios24core6engine12InlineReader20DoAllStepsBlocksInfoERKNS0_8VariableIsEE
libadios2_core.so.2:_ZNK6adios24core6engine12InlineReader20DoAllStepsBlocksInfoERKNS0_8VariableItEE
libadios2_core.so.2:_ZNK6adios24core6engine12InlineReader9GetWriterEv
libadios2_core.so.2:_ZNK6adios24core6engine12InlineWriter11CurrentStepEv
libadios2_core.so.2:_ZNK6adios24core6engine12InlineWriter12IsInsideStepEv
libadios2_core.so.2:_ZNK6adios24core6engine12InlineWriter9GetReaderEv
libadios2_core.so.2:_ZNK6adios24core6engine13DataManReader11CurrentStepEv
libadios2_core.so.2:_ZNK6adios24core6engine13DataManReader12DoBlocksInfoERKNS0_8VariableINSt7__cxx1112basic_stringIcSt11char_traitsIcESaIcEEEEEm
libadios2_core.so.2:_ZNK6adios24core6engine13DataManReader12DoBlocksInfoERKNS0_8VariableISt7complexIdEEEm
libadios2_core.so.2:_ZNK6adios24core6engine13DataManReader12DoBlocksInfoERKNS0_8VariableISt7complexIfEEEm
libadios2_core.so.2:_ZNK6adios24core6engine13DataManReader12DoBlocksInfoERKNS0_8VariableIaEEm
libadios2_core.so.2:_ZNK6adios24core6engine13DataManReader12DoBlocksInfoERKNS0_8VariableIdEEm
libadios2_core.so.2:_ZNK6adios24core6engine13DataManReader12DoBlocksInfoERKNS0_8VariableIeEEm
libadios2_core.so.2:_ZNK6adios24core6engine13DataManReader12DoBlocksInfoERKNS0_8VariableIfEEm
libadios2_core.so.2:_ZNK6adios24core6engine13DataManReader12DoBlocksInfoERKNS0_8VariableIhEEm
libadios2_core.so.2:_ZNK6adios24core6engine13DataManReader12DoBlocksInfoERKNS0_8VariableIiEEm
libadios2_core.so.2:_ZNK6adios24core6engine13DataManReader12DoBlocksInfoERKNS0_8VariableIjEEm
libadios2_core.so.2:_ZNK6adios24core6engine13DataManReader12DoBlocksInfoERKNS0_8VariableIlEEm
libadios2_core.so.2:_ZNK6adios24core6engine13DataManReader12DoBlocksInfoERKNS0_8VariableImEEm
libadios2_core.so.2:_ZNK6adios24core6engine13DataManReader12DoBlocksInfoERKNS0_8VariableIsEEm
libadios2_core.so.2:_ZNK6adios24core6engine13DataManReader12DoBlocksInfoERKNS0_8VariableItEEm
libadios2_core.so.2:_ZNK6adios24core6engine13DataManReader20DoAllStepsBlocksInfoERKNS0_8VariableINSt7__cxx1112basic_stringIcSt11char_traitsIcESaIcEEEEE
libadios2_core.so.2:_ZNK6adios24core6engine13DataManReader20DoAllStepsBlocksInfoERKNS0_8VariableISt7complexIdEEE
libadios2_core.so.2:_ZNK6adios24core6engine13DataManReader20DoAllStepsBlocksInfoERKNS0_8VariableISt7complexIfEEE
libadios2_core.so.2:_ZNK6adios24core6engine13DataManReader20DoAllStepsBlocksInfoERKNS0_8VariableIaEE
libadios2_core.so.2:_ZNK6adios24core6engine13DataManReader20DoAllStepsBlocksInfoERKNS0_8VariableIdEE
libadios2_core.so.2:_ZNK6adios24core6engine13DataManReader20DoAllStepsBlocksInfoERKNS0_8VariableIeEE
libadios2_core.so.2:_ZNK6adios24core6engine13DataManReader20DoAllStepsBlocksInfoERKNS0_8VariableIfEE
libadios2_core.so.2:_ZNK6adios24core6engine13DataManReader20DoAllStepsBlocksInfoERKNS0_8VariableIhEE
libadios2_core.so.2:_ZNK6adios24core6engine13DataManReader20DoAllStepsBlocksInfoERKNS0_8VariableIiEE
libadios2_core.so.2:_ZNK6adios24core6engine13DataManReader20DoAllStepsBlocksInfoERKNS0_8VariableIjEE
libadios2_core.so.2:_ZNK6adios24core6engine13DataManReader20DoAllStepsBlocksInfoERKNS0_8VariableIlEE
libadios2_core.so.2:_ZNK6adios24core6engine13DataManReader20DoAllStepsBlocksInfoERKNS0_8VariableImEE
libadios2_core.so.2:_ZNK6adios24core6engine13DataManReader20DoAllStepsBlocksInfoERKNS0_8VariableIsEE
libadios2_core.so.2:_ZNK6adios24core6engine13DataManReader20DoAllStepsBlocksInfoERKNS0_8VariableItEE
libadios2_core.so.2:_ZNK6adios24core6engine13DataManWriter11CurrentStepEv
libadios2_core.so.2:_ZNK6adios24core6engine14NullCoreWriter11CurrentStepEv
libadios2_core.so.2:_ZNK6adios24core6engine14SkeletonReader11CurrentStepEv
libadios2_core.so.2:_ZNK6adios24core6engine14SkeletonWriter11CurrentStepEv
libadios2_core.so.2:_ZNK6adios24core6engine9BP3Reader11CurrentStepEv
libadios2_core.so.2:_ZNK6adios24core6engine9BP3Reader12DoBlocksInfoERKNS0_8VariableINSt7__cxx1112basic_stringIcSt11char_traitsIcESaIcEEEEEm
libadios2_core.so.2:_ZNK6adios24core6engine9BP3Reader12DoBlocksInfoERKNS0_8VariableISt7complexIdEEEm
libadios2_core.so.2:_ZNK6adios24core6engine9BP3Reader12DoBlocksInfoERKNS0_8VariableISt7complexIfEEEm
libadios2_core.so.2:_ZNK6adios24core6engine9BP3Reader12DoBlocksInfoERKNS0_8VariableIaEEm
libadios2_core.so.2:_ZNK6adios24core6engine9BP3Reader12DoBlocksInfoERKNS0_8VariableIdEEm
libadios2_core.so.2:_ZNK6adios24core6engine9BP3Reader12DoBlocksInfoERKNS0_8VariableIeEEm
libadios2_core.so.2:_ZNK6adios24core6engine9BP3Reader12DoBlocksInfoERKNS0_8VariableIfEEm
libadios2_core.so.2:_ZNK6adios24core6engine9BP3Reader12DoBlocksInfoERKNS0_8VariableIhEEm
libadios2_core.so.2:_ZNK6adios24core6engine9BP3Reader12DoBlocksInfoERKNS0_8VariableIiEEm
libadios2_core.so.2:_ZNK6adios24core6engine9BP3Reader12DoBlocksInfoERKNS0_8VariableIjEEm
libadios2_core.so.2:_ZNK6adios24core6engine9BP3Reader12DoBlocksInfoERKNS0_8VariableIlEEm
libadios2_core.so.2:_ZNK6adios24core6engine9BP3Reader12DoBlocksInfoERKNS0_8VariableImEEm
libadios2_core.so.2:_ZNK6adios24core6engine9BP3Reader12DoBlocksInfoERKNS0_8VariableIsEEm
libadios2_core.so.2:_ZNK6adios24core6engine9BP3Reader12DoBlocksInfoERKNS0_8VariableItEEm
libadios2_core.so.2:_ZNK6adios24core6engine9BP3Reader20DoAllStepsBlocksInfoERKNS0_8VariableINSt7__cxx1112basic_stringIcSt11char_traitsIcESaIcEEEEE
libadios2_core.so.2:_ZNK6adios24core6engine9BP3Reader20DoAllStepsBlocksInfoERKNS0_8VariableISt7complexIdEEE
libadios2_core.so.2:_ZNK6adios24core6engine9BP3Reader20DoAllStepsBlocksInfoERKNS0_8VariableISt7complexIfEEE
libadios2_core.so.2:_ZNK6adios24core6engine9BP3Reader20DoAllStepsBlocksInfoERKNS0_8VariableIaEE
libadios2_core.so.2:_ZNK6adios24core6engine9BP3Reader20DoAllStepsBlocksInfoERKNS0_8VariableIdEE
libadios2_core.so.2:_ZNK6adios24core6engine9BP3Reader20DoAllStepsBlocksInfoERKNS0_8VariableIeEE
libadios2_core.so.2:_ZNK6adios24core6engine9BP3Reader20DoAllStepsBlocksInfoERKNS0_8VariableIfEE
libadios2_core.so.2:_ZNK6adios24core6engine9BP3Reader20DoAllStepsBlocksInfoERKNS0_8VariableIhEE
libadios2_core.so.2:_ZNK6adios24core6engine9BP3Reader20DoAllStepsBlocksInfoERKNS0_8VariableIiEE
libadios2_core.so.2:_ZNK6adios24core6engine9BP3Reader20DoAllStepsBlocksInfoERKNS0_8VariableIjEE
libadios2_core.so.2:_ZNK6adios24core6engine9BP3Reader20DoAllStepsBlocksInfoERKNS0_8VariableIlEE
libadios2_core.so.2:_ZNK6adios24core6engine9BP3Reader20DoAllStepsBlocksInfoERKNS0_8VariableImEE
libadios2_core.so.2:_ZNK6adios24core6engine9BP3Reader20DoAllStepsBlocksInfoERKNS0_8VariableIsEE
libadios2_core.so.2:_ZNK6adios24core6engine9BP3Reader20DoAllStepsBlocksInfoERKNS0_8VariableItEE
libadios2_core.so.2:_ZNK6adios24core6engine9BP3Reader28DoAllRelativeStepsBlocksInfoERKNS0_8VariableINSt7__cxx1112basic_stringIcSt11char_traitsIcESaIcEEEEE
libadios2_core.so.2:_ZNK6adios24core6engine9BP3Reader28DoAllRelativeStepsBlocksInfoERKNS0_8VariableISt7complexIdEEE
libadios2_core.so.2:_ZNK6adios24core6engine9BP3Reader28DoAllRelativeStepsBlocksInfoERKNS0_8VariableISt7complexIfEEE
libadios2_core.so.2:_ZNK6adios24core6engine9BP3Reader28DoAllRelativeStepsBlocksInfoERKNS0_8VariableIaEE
libadios2_core.so.2:_ZNK6adios24core6engine9BP3Reader28DoAllRelativeStepsBlocksInfoERKNS0_8VariableIdEE
libadios2_core.so.2:_ZNK6adios24core6engine9BP3Reader28DoAllRelativeStepsBlocksInfoERKNS0_8VariableIeEE
libadios2_core.so.2:_ZNK6adios24core6engine9BP3Reader28DoAllRelativeStepsBlocksInfoERKNS0_8VariableIfEE
libadios2_core.so.2:_ZNK6adios24core6engine9BP3Reader28DoAllRelativeStepsBlocksInfoERKNS0_8VariableIhEE
libadios2_core.so.2:_ZNK6adios24core6engine9BP3Reader28DoAllRelativeStepsBlocksInfoERKNS0_8VariableIiEE
libadios2_core.so.2:_ZNK6adios24core6engine9BP3Reader28DoAllRelativeStepsBlocksInfoERKNS0_8VariableIjEE
libadios2_core.so.2:_ZNK6adios24core6engine9BP3Reader28DoAllRelativeStepsBlocksInfoERKNS0_8VariableIlEE
libadios2_core.so.2:_ZNK6adios24core6engine9BP3Reader28DoAllRelativeStepsBlocksInfoERKNS0_8VariableImEE
libadios2_core.so.2:_ZNK6adios24core6engine9BP3Reader28DoAllRelativeStepsBlocksInfoERKNS0_8VariableIsEE
libadios2_core.so.2:_ZNK6adios24core6engine9BP3Reader28DoAllRelativeStepsBlocksInfoERKNS0_8VariableItEE
libadios2_core.so.2:_ZNK6adios24core6engine9BP3Reader7DoStepsEv
libadios2_core.so.2:_ZNK6adios24core6engine9BP3Writer11CurrentStepEv
libadios2_core.so.2:_ZNK6adios24core6engine9BP3Writer22DebugGetDataBufferSizeEv
libadios2_core.so.2:_ZNK6adios24core6engine9BP4Reader11CurrentStepEv
libadios2_core.so.2:_ZNK6adios24core6engine9BP4Reader12DoBlocksInfoERKNS0_8VariableINSt7__cxx1112basic_stringIcSt11char_traitsIcESaIcEEEEEm
libadios2_core.so.2:_ZNK6adios24core6engine9BP4Reader12DoBlocksInfoERKNS0_8VariableISt7complexIdEEEm
libadios2_core.so.2:_ZNK6adios24core6engine9BP4Reader12DoBlocksInfoERKNS0_8VariableISt7complexIfEEEm
libadios2_core.so.2:_ZNK6adios24core6engine9BP4Reader12DoBlocksInfoERKNS0_8VariableIaEEm
libadios2_core.so.2:_ZNK6adios24core6engine9BP4Reader12DoBlocksInfoERKNS0_8VariableIdEEm
libadios2_core.so.2:_ZNK6adios24core6engine9BP4Reader12DoBlocksInfoERKNS0_8VariableIeEEm
libadios2_core.so.2:_ZNK6adios24core6engine9BP4Reader12DoBlocksInfoERKNS0_8VariableIfEEm
libadios2_core.so.2:_ZNK6adios24core6engine9BP4Reader12DoBlocksInfoERKNS0_8VariableIhEEm
libadios2_core.so.2:_ZNK6adios24core6engine9BP4Reader12DoBlocksInfoERKNS0_8VariableIiEEm
libadios2_core.so.2:_ZNK6adios24core6engine9BP4Reader12DoBlocksInfoERKNS0_8VariableIjEEm
libadios2_core.so.2:_ZNK6adios24core6engine9BP4Reader12DoBlocksInfoERKNS0_8VariableIlEEm
libadios2_core.so.2:_ZNK6adios24core6engine9BP4Reader12DoBlocksInfoERKNS0_8VariableImEEm
libadios2_core.so.2:_ZNK6adios24core6engine9BP4Reader12DoBlocksInfoERKNS0_8VariableIsEEm
libadios2_core.so.2:_ZNK6adios24core6engine9BP4Reader12DoBlocksInfoERKNS0_8VariableItEEm
libadios2_core.so.2:_ZNK6adios24core6engine9BP4Reader20DoAllStepsBlocksInfoERKNS0_8VariableINSt7__cxx1112basic_stringIcSt11char_traitsIcESaIcEEEEE
libadios2_core.so.2:_ZNK6adios24core6engine9BP4Reader20DoAllStepsBlocksInfoERKNS0_8VariableISt7complexIdEEE
libadios2_core.so.2:_ZNK6adios24core6engine9BP4Reader20DoAllStepsBlocksInfoERKNS0_8VariableISt7complexIfEEE
libadios2_core.so.2:_ZNK6adios24core6engine9BP4Reader20DoAllStepsBlocksInfoERKNS0_8VariableIaEE
libadios2_core.so.2:_ZNK6adios24core6engine9BP4Reader20DoAllStepsBlocksInfoERKNS0_8VariableIdEE
libadios2_core.so.2:_ZNK6adios24core6engine9BP4Reader20DoAllStepsBlocksInfoERKNS0_8VariableIeEE
libadios2_core.so.2:_ZNK6adios24core6engine9BP4Reader20DoAllStepsBlocksInfoERKNS0_8VariableIfEE
libadios2_core.so.2:_ZNK6adios24core6engine9BP4Reader20DoAllStepsBlocksInfoERKNS0_8VariableIhEE
libadios2_core.so.2:_ZNK6adios24core6engine9BP4Reader20DoAllStepsBlocksInfoERKNS0_8VariableIiEE
libadios2_core.so.2:_ZNK6adios24core6engine9BP4Reader20DoAllStepsBlocksInfoERKNS0_8VariableIjEE
libadios2_core.so.2:_ZNK6adios24core6engine9BP4Reader20DoAllStepsBlocksInfoERKNS0_8VariableIlEE
libadios2_core.so.2:_ZNK6adios24core6engine9BP4Reader20DoAllStepsBlocksInfoERKNS0_8VariableImEE
libadios2_core.so.2:_ZNK6adios24core6engine9BP4Reader20DoAllStepsBlocksInfoERKNS0_8VariableIsEE
libadios2_core.so.2:_ZNK6adios24core6engine9BP4Reader20DoAllStepsBlocksInfoERKNS0_8VariableItEE
libadios2_core.so.2:_ZNK6adios24core6engine9BP4Reader28DoAllRelativeStepsBlocksInfoERKNS0_8VariableINSt7__cxx1112basic_stringIcSt11char_traitsIcESaIcEEEEE
libadios2_core.so.2:_ZNK6adios24core6engine9BP4Reader28DoAllRelativeStepsBlocksInfoERKNS0_8VariableISt7complexIdEEE
libadios2_core.so.2:_ZNK6adios24core6engine9BP4Reader28DoAllRelativeStepsBlocksInfoERKNS0_8VariableISt7complexIfEEE
libadios2_core.so.2:_ZNK6adios24core6engine9BP4Reader28DoAllRelativeStepsBlocksInfoERKNS0_8VariableIaEE
libadios2_core.so.2:_ZNK6adios24core6engine9BP4Reader28DoAllRelativeStepsBlocksInfoERKNS0_8VariableIdEE
libadios2_core.so.2:_ZNK6adios24core6engine9BP4Reader28DoAllRelativeStepsBlocksInfoERKNS0_8VariableIeEE
libadios2_core.so.2:_ZNK6adios24core6engine9BP4Reader28DoAllRelativeStepsBlocksInfoERKNS0_8VariableIfEE
libadios2_core.so.2:_ZNK6adios24core6engine9BP4Reader28DoAllRelativeStepsBlocksInfoERKNS0_8VariableIhEE
libadios2_core.so.2:_ZNK6adios24core6engine9BP4Reader28DoAllRelativeStepsBlocksInfoERKNS0_8VariableIiEE
libadios2_core.so.2:_ZNK6adios24core6engine9BP4Reader28DoAllRelativeStepsBlocksInfoERKNS0_8VariableIjEE
libadios2_core.so.2:_ZNK6adios24core6engine9BP4Reader28DoAllRelativeStepsBlocksInfoERKNS0_8VariableIlEE
libadios2_core.so.2:_ZNK6adios24core6engine9BP4Reader28DoAllRelativeStepsBlocksInfoERKNS0_8VariableImEE
libadios2_core.so.2:_ZNK6adios24core6engine9BP4Reader28DoAllRelativeStepsBlocksInfoERKNS0_8VariableIsEE
libadios2_core.so.2:_ZNK6adios24core6engine9BP4Reader28DoAllRelativeStepsBlocksInfoERKNS0_8VariableItEE
libadios2_core.so.2:_ZNK6adios24core6engine9BP4Reader7DoStepsEv
libadios2_core.so.2:_ZNK6adios24core6engine9BP4Writer11CurrentStepEv
libadios2_core.so.2:_ZNK6adios24core6engine9BP4Writer22DebugGetDataBufferSizeEv
libadios2_core.so.2:_ZNK6adios24core6engine9SstReader11CurrentStepEv
libadios2_core.so.2:_ZNK6adios24core6engine9SstReader12DoBlocksInfoERKNS0_8VariableINSt7__cxx1112basic_stringIcSt11char_traitsIcESaIcEEEEEm
libadios2_core.so.2:_ZNK6adios24core6engine9SstReader12DoBlocksInfoERKNS0_8VariableISt7complexIdEEEm
libadios2_core.so.2:_ZNK6adios24core6engine9SstReader12DoBlocksInfoERKNS0_8VariableISt7complexIfEEEm
libadios2_core.so.2:_ZNK6adios24core6engine9SstReader12DoBlocksInfoERKNS0_8VariableIaEEm
libadios2_core.so.2:_ZNK6adios24core6engine9SstReader12DoBlocksInfoERKNS0_8VariableIdEEm
libadios2_core.so.2:_ZNK6adios24core6engine9SstReader12DoBlocksInfoERKNS0_8VariableIeEEm
libadios2_core.so.2:_ZNK6adios24core6engine9SstReader12DoBlocksInfoERKNS0_8VariableIfEEm
libadios2_core.so.2:_ZNK6adios24core6engine9SstReader12DoBlocksInfoERKNS0_8VariableIhEEm
libadios2_core.so.2:_ZNK6adios24core6engine9SstReader12DoBlocksInfoERKNS0_8VariableIiEEm
libadios2_core.so.2:_ZNK6adios24core6engine9SstReader12DoBlocksInfoERKNS0_8VariableIjEEm
libadios2_core.so.2:_ZNK6adios24core6engine9SstReader12DoBlocksInfoERKNS0_8VariableIlEEm
libadios2_core.so.2:_ZNK6adios24core6engine9SstReader12DoBlocksInfoERKNS0_8VariableImEEm
libadios2_core.so.2:_ZNK6adios24core6engine9SstReader12DoBlocksInfoERKNS0_8VariableIsEEm
libadios2_core.so.2:_ZNK6adios24core6engine9SstReader12DoBlocksInfoERKNS0_8VariableItEEm
libadios2_core.so.2:_ZNK6adios24core6engine9SstReader20DoAllStepsBlocksInfoERKNS0_8VariableINSt7__cxx1112basic_stringIcSt11char_traitsIcESaIcEEEEE
libadios2_core.so.2:_ZNK6adios24core6engine9SstReader20DoAllStepsBlocksInfoERKNS0_8VariableISt7complexIdEEE
libadios2_core.so.2:_ZNK6adios24core6engine9SstReader20DoAllStepsBlocksInfoERKNS0_8VariableISt7complexIfEEE
libadios2_core.so.2:_ZNK6adios24core6engine9SstReader20DoAllStepsBlocksInfoERKNS0_8VariableIaEE
libadios2_core.so.2:_ZNK6adios24core6engine9SstReader20DoAllStepsBlocksInfoERKNS0_8VariableIdEE
libadios2_core.so.2:_ZNK6adios24core6engine9SstReader20DoAllStepsBlocksInfoERKNS0_8VariableIeEE
libadios2_core.so.2:_ZNK6adios24core6engine9SstReader20DoAllStepsBlocksInfoERKNS0_8VariableIfEE
libadios2_core.so.2:_ZNK6adios24core6engine9SstReader20DoAllStepsBlocksInfoERKNS0_8VariableIhEE
libadios2_core.so.2:_ZNK6adios24core6engine9SstReader20DoAllStepsBlocksInfoERKNS0_8VariableIiEE
libadios2_core.so.2:_ZNK6adios24core6engine9SstReader20DoAllStepsBlocksInfoERKNS0_8VariableIjEE
libadios2_core.so.2:_ZNK6adios24core6engine9SstReader20DoAllStepsBlocksInfoERKNS0_8VariableIlEE
libadios2_core.so.2:_ZNK6adios24core6engine9SstReader20DoAllStepsBlocksInfoERKNS0_8VariableImEE
libadios2_core.so.2:_ZNK6adios24core6engine9SstReader20DoAllStepsBlocksInfoERKNS0_8VariableIsEE
libadios2_core.so.2:_ZNK6adios24core6engine9SstReader20DoAllStepsBlocksInfoERKNS0_8VariableItEE
libadios2_core.so.2:_ZNK6adios24core8Operator10DecompressEPKvmPvRKSt6vectorImSaImEENS_8DataTypeERKSt3mapINSt7__cxx1112basic_stringIcSt11char_traitsIcESaIcEEESH_St4lessISH_ESaISt4pairIKSH_SH_EEE
libadios2_core.so.2:_ZNK6adios24core8Operator10DecompressEPKvmPvmRSt3mapINSt7__cxx1112basic_stringIcSt11char_traitsIcESaIcEEESB_St4lessISB_ESaISt4pairIKSB_SB_EEE
libadios2_core.so.2:_ZNK6adios24core8Operator12RunCallback1EPKNSt7__cxx1112basic_stringIcSt11char_traitsIcESaIcEEERS8_SA_SA_mRKSt6vectorImSaImEESF_SF_
libadios2_core.so.2:_ZNK6adios24core8Operator12RunCallback1EPKSt7complexIdERKNSt7__cxx1112basic_stringIcSt11char_traitsIcESaIcEEESD_SD_mRKSt6vectorImSaImEESI_SI_
libadios2_core.so.2:_ZNK6adios24core8Operator12RunCallback1EPKSt7complexIfERKNSt7__cxx1112basic_stringIcSt11char_traitsIcESaIcEEESD_SD_mRKSt6vectorImSaImEESI_SI_
libadios2_core.so.2:_ZNK6adios24core8Operator12RunCallback1EPKaRKNSt7__cxx1112basic_stringIcSt11char_traitsIcESaIcEEESB_SB_mRKSt6vectorImSaImEESG_SG_
libadios2_core.so.2:_ZNK6adios24core8Operator12RunCallback1EPKdRKNSt7__cxx1112basic_stringIcSt11char_traitsIcESaIcEEESB_SB_mRKSt6vectorImSaImEESG_SG_
libadios2_core.so.2:_ZNK6adios24core8Operator12RunCallback1EPKeRKNSt7__cxx1112basic_stringIcSt11char_traitsIcESaIcEEESB_SB_mRKSt6vectorImSaImEESG_SG_
libadios2_core.so.2:_ZNK6adios24core8Operator12RunCallback1EPKfRKNSt7__cxx1112basic_stringIcSt11char_traitsIcESaIcEEESB_SB_mRKSt6vectorImSaImEESG_SG_
libadios2_core.so.2:_ZNK6adios24core8Operator12RunCallback1EPKhRKNSt7__cxx1112basic_stringIcSt11char_traitsIcESaIcEEESB_SB_mRKSt6vectorImSaImEESG_SG_
libadios2_core.so.2:_ZNK6adios24core8Operator12RunCallback1EPKiRKNSt7__cxx1112basic_stringIcSt11char_traitsIcESaIcEEESB_SB_mRKSt6vectorImSaImEESG_SG_
libadios2_core.so.2:_ZNK6adios24core8Operator12RunCallback1EPKjRKNSt7__cxx1112basic_stringIcSt11char_traitsIcESaIcEEESB_SB_mRKSt6vectorImSaImEESG_SG_
libadios2_core.so.2:_ZNK6adios24core8Operator12RunCallback1EPKlRKNSt7__cxx1112basic_stringIcSt11char_traitsIcESaIcEEESB_SB_mRKSt6vectorImSaImEESG_SG_
libadios2_core.so.2:_ZNK6adios24core8Operator12RunCallback1EPKmRKNSt7__cxx1112basic_stringIcSt11char_traitsIcESaIcEEESB_SB_mRKSt6vectorImSaImEESG_SG_
libadios2_core.so.2:_ZNK6adios24core8Operator12RunCallback1EPKsRKNSt7__cxx1112basic_stringIcSt11char_traitsIcESaIcEEESB_SB_mRKSt6vectorImSaImEESG_SG_
libadios2_core.so.2:_ZNK6adios24core8Operator12RunCallback1EPKtRKNSt7__cxx1112basic_stringIcSt11char_traitsIcESaIcEEESB_SB_mRKSt6vectorImSaImEESG_SG_
libadios2_core.so.2:_ZNK6adios24core8Operator12RunCallback2EPvRKNSt7__cxx1112basic_stringIcSt11char_traitsIcESaIcEEESA_SA_mRKSt6vectorImSaImEESF_SF_
libadios2_core.so.2:_ZNK6adios24core8Operator13BufferMaxSizeEm
libadios2_core.so.2:_ZNK6adios24core8Operator13BufferMaxSizeIdEEmPKT_RKSt6vectorImSaImEERKSt3mapINSt7__cxx1112basic_stringIcSt11char_traitsIcESaIcEEESH_St4lessISH_ESaISt4pairIKSH_SH_EEE
libadios2_core.so.2:_ZNK6adios24core8Operator13BufferMaxSizeIfEEmPKT_RKSt6vectorImSaImEERKSt3mapINSt7__cxx1112basic_stringIcSt11char_traitsIcESaIcEEESH_St4lessISH_ESaISt4pairIKSH_SH_EEE
libadios2_core.so.2:_ZNK6adios24core8Operator13BufferMaxSizeIiEEmPKT_RKSt6vectorImSaImEERKSt3mapINSt7__cxx1112basic_stringIcSt11char_traitsIcESaIcEEESH_St4lessISH_ESaISt4pairIKSH_SH_EEE
libadios2_core.so.2:_ZNK6adios24core8Operator13BufferMaxSizeIlEEmPKT_RKSt6vectorImSaImEERKSt3mapINSt7__cxx1112basic_stringIcSt11char_traitsIcESaIcEEESH_St4lessISH_ESaISt4pairIKSH_SH_EEE
libadios2_core.so.2:_ZNK6adios24core8Operator15DoBufferMaxSizeEPKvRKSt6vectorImSaImEENS_8DataTypeERKSt3mapINSt7__cxx1112basic_stringIcSt11char_traitsIcESaIcEEESG_St4lessISG_ESaISt4pairIKSG_SG_EEE
libadios2_core.so.2:_ZNK6adios24core8Operator17CheckCallbackTypeENSt7__cxx1112basic_stringIcSt11char_traitsIcESaIcEEE
libadios2_core.so.2:_ZNK6adios24core8Operator8CompressEPKvRKSt6vectorImSaImEEmNS_8DataTypeEPvRKSt3mapINSt7__cxx1112basic_stringIcSt11char_traitsIcESaIcEEESH_St4lessISH_ESaISt4pairIKSH_SH_EEERSO_
libadios2_core.so.2:_ZNK6adios24core8VariableINSt7__cxx1112basic_stringIcSt11char_traitsIcESaIcEEEE13SelectionSizeEv
libadios2_core.so.2:_ZNK6adios24core8VariableINSt7__cxx1112basic_stringIcSt11char_traitsIcESaIcEEEE18AllStepsBlocksInfoEv
libadios2_core.so.2:_ZNK6adios24core8VariableINSt7__cxx1112basic_stringIcSt11char_traitsIcESaIcEEEE3MaxEm
libadios2_core.so.2:_ZNK6adios24core8VariableINSt7__cxx1112basic_stringIcSt11char_traitsIcESaIcEEEE3MinEm
libadios2_core.so.2:_ZNK6adios24core8VariableINSt7__cxx1112basic_stringIcSt11char_traitsIcESaIcEEEE5CountEv
libadios2_core.so.2:_ZNK6adios24core8VariableINSt7__cxx1112basic_stringIcSt11char_traitsIcESaIcEEEE5ShapeEm
libadios2_core.so.2:_ZNK6adios24core8VariableINSt7__cxx1112basic_stringIcSt11char_traitsIcESaIcEEEE6MinMaxEm
libadios2_core.so.2:_ZNK6adios24core8VariableINSt7__cxx1112basic_stringIcSt11char_traitsIcESaIcEEEE7GetDataEv
libadios2_core.so.2:_ZNK6adios24core8VariableISt7complexIdEE13SelectionSizeEv
libadios2_core.so.2:_ZNK6adios24core8VariableISt7complexIdEE18AllStepsBlocksInfoEv
libadios2_core.so.2:_ZNK6adios24core8VariableISt7complexIdEE3MaxEm
libadios2_core.so.2:_ZNK6adios24core8VariableISt7complexIdEE3MinEm
libadios2_core.so.2:_ZNK6adios24core8VariableISt7complexIdEE5CountEv
libadios2_core.so.2:_ZNK6adios24core8VariableISt7complexIdEE5ShapeEm
libadios2_core.so.2:_ZNK6adios24core8VariableISt7complexIdEE6MinMaxEm
libadios2_core.so.2:_ZNK6adios24core8VariableISt7complexIdEE7GetDataEv
libadios2_core.so.2:_ZNK6adios24core8VariableISt7complexIfEE13SelectionSizeEv
libadios2_core.so.2:_ZNK6adios24core8VariableISt7complexIfEE18AllStepsBlocksInfoEv
libadios2_core.so.2:_ZNK6adios24core8VariableISt7complexIfEE3MaxEm
libadios2_core.so.2:_ZNK6adios24core8VariableISt7complexIfEE3MinEm
libadios2_core.so.2:_ZNK6adios24core8VariableISt7complexIfEE5CountEv
libadios2_core.so.2:_ZNK6adios24core8VariableISt7complexIfEE5ShapeEm
libadios2_core.so.2:_ZNK6adios24core8VariableISt7complexIfEE6MinMaxEm
libadios2_core.so.2:_ZNK6adios24core8VariableISt7complexIfEE7GetDataEv
libadios2_core.so.2:_ZNK6adios24core8VariableIaE13SelectionSizeEv
libadios2_core.so.2:_ZNK6adios24core8VariableIaE18AllStepsBlocksInfoEv
libadios2_core.so.2:_ZNK6adios24core8VariableIaE3MaxEm
libadios2_core.so.2:_ZNK6adios24core8VariableIaE3MinEm
libadios2_core.so.2:_ZNK6adios24core8VariableIaE5CountEv
libadios2_core.so.2:_ZNK6adios24core8VariableIaE5ShapeEm
libadios2_core.so.2:_ZNK6adios24core8VariableIaE6MinMaxEm
libadios2_core.so.2:_ZNK6adios24core8VariableIaE7GetDataEv
libadios2_core.so.2:_ZNK6adios24core8VariableIdE13SelectionSizeEv
libadios2_core.so.2:_ZNK6adios24core8VariableIdE18AllStepsBlocksInfoEv
libadios2_core.so.2:_ZNK6adios24core8VariableIdE3MaxEm
libadios2_core.so.2:_ZNK6adios24core8VariableIdE3MinEm
libadios2_core.so.2:_ZNK6adios24core8VariableIdE5CountEv
libadios2_core.so.2:_ZNK6adios24core8VariableIdE5ShapeEm
libadios2_core.so.2:_ZNK6adios24core8VariableIdE6MinMaxEm
libadios2_core.so.2:_ZNK6adios24core8VariableIdE7GetDataEv
libadios2_core.so.2:_ZNK6adios24core8VariableIeE13SelectionSizeEv
libadios2_core.so.2:_ZNK6adios24core8VariableIeE18AllStepsBlocksInfoEv
libadios2_core.so.2:_ZNK6adios24core8VariableIeE3MaxEm
libadios2_core.so.2:_ZNK6adios24core8VariableIeE3MinEm
libadios2_core.so.2:_ZNK6adios24core8VariableIeE5CountEv
libadios2_core.so.2:_ZNK6adios24core8VariableIeE5ShapeEm
libadios2_core.so.2:_ZNK6adios24core8VariableIeE6MinMaxEm
libadios2_core.so.2:_ZNK6adios24core8VariableIeE7GetDataEv
libadios2_core.so.2:_ZNK6adios24core8VariableIfE13SelectionSizeEv
libadios2_core.so.2:_ZNK6adios24core8VariableIfE18AllStepsBlocksInfoEv
libadios2_core.so.2:_ZNK6adios24core8VariableIfE3MaxEm
libadios2_core.so.2:_ZNK6adios24core8VariableIfE3MinEm
libadios2_core.so.2:_ZNK6adios24core8VariableIfE5CountEv
libadios2_core.so.2:_ZNK6adios24core8VariableIfE5ShapeEm
libadios2_core.so.2:_ZNK6adios24core8VariableIfE6MinMaxEm
libadios2_core.so.2:_ZNK6adios24core8VariableIfE7GetDataEv
libadios2_core.so.2:_ZNK6adios24core8VariableIhE13SelectionSizeEv
libadios2_core.so.2:_ZNK6adios24core8VariableIhE18AllStepsBlocksInfoEv
libadios2_core.so.2:_ZNK6adios24core8VariableIhE3MaxEm
libadios2_core.so.2:_ZNK6adios24core8VariableIhE3MinEm
libadios2_core.so.2:_ZNK6adios24core8VariableIhE5CountEv
libadios2_core.so.2:_ZNK6adios24core8VariableIhE5ShapeEm
libadios2_core.so.2:_ZNK6adios24core8VariableIhE6MinMaxEm
libadios2_core.so.2:_ZNK6adios24core8VariableIhE7GetDataEv
libadios2_core.so.2:_ZNK6adios24core8VariableIiE13SelectionSizeEv
libadios2_core.so.2:_ZNK6adios24core8VariableIiE18AllStepsBlocksInfoEv
libadios2_core.so.2:_ZNK6adios24core8VariableIiE3MaxEm
libadios2_core.so.2:_ZNK6adios24core8VariableIiE3MinEm
libadios2_core.so.2:_ZNK6adios24core8VariableIiE5CountEv
libadios2_core.so.2:_ZNK6adios24core8VariableIiE5ShapeEm
libadios2_core.so.2:_ZNK6adios24core8VariableIiE6MinMaxEm
libadios2_core.so.2:_ZNK6adios24core8VariableIiE7GetDataEv
libadios2_core.so.2:_ZNK6adios24core8VariableIjE13SelectionSizeEv
libadios2_core.so.2:_ZNK6adios24core8VariableIjE18AllStepsBlocksInfoEv
libadios2_core.so.2:_ZNK6adios24core8VariableIjE3MaxEm
libadios2_core.so.2:_ZNK6adios24core8VariableIjE3MinEm
libadios2_core.so.2:_ZNK6adios24core8VariableIjE5CountEv
libadios2_core.so.2:_ZNK6adios24core8VariableIjE5ShapeEm
libadios2_core.so.2:_ZNK6adios24core8VariableIjE6MinMaxEm
libadios2_core.so.2:_ZNK6adios24core8VariableIjE7GetDataEv
libadios2_core.so.2:_ZNK6adios24core8VariableIlE13SelectionSizeEv
libadios2_core.so.2:_ZNK6adios24core8VariableIlE18AllStepsBlocksInfoEv
libadios2_core.so.2:_ZNK6adios24core8VariableIlE3MaxEm
libadios2_core.so.2:_ZNK6adios24core8VariableIlE3MinEm
libadios2_core.so.2:_ZNK6adios24core8VariableIlE5CountEv
libadios2_core.so.2:_ZNK6adios24core8VariableIlE5ShapeEm
libadios2_core.so.2:_ZNK6adios24core8VariableIlE6MinMaxEm
libadios2_core.so.2:_ZNK6adios24core8VariableIlE7GetDataEv
libadios2_core.so.2:_ZNK6adios24core8VariableImE13SelectionSizeEv
libadios2_core.so.2:_ZNK6adios24core8VariableImE18AllStepsBlocksInfoEv
libadios2_core.so.2:_ZNK6adios24core8VariableImE3MaxEm
libadios2_core.so.2:_ZNK6adios24core8VariableImE3MinEm
libadios2_core.so.2:_ZNK6adios24core8VariableImE5CountEv
libadios2_core.so.2:_ZNK6adios24core8VariableImE5ShapeEm
libadios2_core.so.2:_ZNK6adios24core8VariableImE6MinMaxEm
libadios2_core.so.2:_ZNK6adios24core8VariableImE7GetDataEv
libadios2_core.so.2:_ZNK6adios24core8VariableIsE13SelectionSizeEv
libadios2_core.so.2:_ZNK6adios24core8VariableIsE18AllStepsBlocksInfoEv
libadios2_core.so.2:_ZNK6adios24core8VariableIsE3MaxEm
libadios2_core.so.2:_ZNK6adios24core8VariableIsE3MinEm
libadios2_core.so.2:_ZNK6adios24core8VariableIsE5CountEv
libadios2_core.so.2:_ZNK6adios24core8VariableIsE5ShapeEm
libadios2_core.so.2:_ZNK6adios24core8VariableIsE6MinMaxEm
libadios2_core.so.2:_ZNK6adios24core8VariableIsE7GetDataEv
libadios2_core.so.2:_ZNK6adios24core8VariableItE13SelectionSizeEv
libadios2_core.so.2:_ZNK6adios24core8VariableItE18AllStepsBlocksInfoEv
libadios2_core.so.2:_ZNK6adios24core8VariableItE3MaxEm
libadios2_core.so.2:_ZNK6adios24core8VariableItE3MinEm
libadios2_core.so.2:_ZNK6adios24core8VariableItE5CountEv
libadios2_core.so.2:_ZNK6adios24core8VariableItE5ShapeEm
libadios2_core.so.2:_ZNK6adios24core8VariableItE6MinMaxEm
libadios2_core.so.2:_ZNK6adios24core8VariableItE7GetDataEv
libadios2_core.so.2:_ZNK6adios24core8callback10Signature112RunCallback1EPKNSt7__cxx1112basic_stringIcSt11char_traitsIcESaIcEEERS9_SB_SB_mRKSt6vectorImSaImEESG_SG_
libadios2_core.so.2:_ZNK6adios24core8callback10Signature112RunCallback1EPKSt7complexIdERKNSt7__cxx1112basic_stringIcSt11char_traitsIcESaIcEEESE_SE_mRKSt6vectorImSaImEESJ_SJ_
libadios2_core.so.2:_ZNK6adios24core8callback10Signature112RunCallback1EPKSt7complexIfERKNSt7__cxx1112basic_stringIcSt11char_traitsIcESaIcEEESE_SE_mRKSt6vectorImSaImEESJ_SJ_
libadios2_core.so.2:_ZNK6adios24core8callback10Signature112RunCallback1EPKaRKNSt7__cxx1112basic_stringIcSt11char_traitsIcESaIcEEESC_SC_mRKSt6vectorImSaImEESH_SH_
libadios2_core.so.2:_ZNK6adios24core8callback10Signature112RunCallback1EPKdRKNSt7__cxx1112basic_stringIcSt11char_traitsIcESaIcEEESC_SC_mRKSt6vectorImSaImEESH_SH_
libadios2_core.so.2:_ZNK6adios24core8callback10Signature112RunCallback1EPKeRKNSt7__cxx1112basic_stringIcSt11char_traitsIcESaIcEEESC_SC_mRKSt6vectorImSaImEESH_SH_
libadios2_core.so.2:_ZNK6adios24core8callback10Signature112RunCallback1EPKfRKNSt7__cxx1112basic_stringIcSt11char_traitsIcESaIcEEESC_SC_mRKSt6vectorImSaImEESH_SH_
libadios2_core.so.2:_ZNK6adios24core8callback10Signature112RunCallback1EPKhRKNSt7__cxx1112basic_stringIcSt11char_traitsIcESaIcEEESC_SC_mRKSt6vectorImSaImEESH_SH_
libadios2_core.so.2:_ZNK6adios24core8callback10Signature112RunCallback1EPKiRKNSt7__cxx1112basic_stringIcSt11char_traitsIcESaIcEEESC_SC_mRKSt6vectorImSaImEESH_SH_
libadios2_core.so.2:_ZNK6adios24core8callback10Signature112RunCallback1EPKjRKNSt7__cxx1112basic_stringIcSt11char_traitsIcESaIcEEESC_SC_mRKSt6vectorImSaImEESH_SH_
libadios2_core.so.2:_ZNK6adios24core8callback10Signature112RunCallback1EPKlRKNSt7__cxx1112basic_stringIcSt11char_traitsIcESaIcEEESC_SC_mRKSt6vectorImSaImEESH_SH_
libadios2_core.so.2:_ZNK6adios24core8callback10Signature112RunCallback1EPKmRKNSt7__cxx1112basic_stringIcSt11char_traitsIcESaIcEEESC_SC_mRKSt6vectorImSaImEESH_SH_
libadios2_core.so.2:_ZNK6adios24core8callback10Signature112RunCallback1EPKsRKNSt7__cxx1112basic_stringIcSt11char_traitsIcESaIcEEESC_SC_mRKSt6vectorImSaImEESH_SH_
libadios2_core.so.2:_ZNK6adios24core8callback10Signature112RunCallback1EPKtRKNSt7__cxx1112basic_stringIcSt11char_traitsIcESaIcEEESC_SC_mRKSt6vectorImSaImEESH_SH_
libadios2_core.so.2:_ZNK6adios24core8callback10Signature212RunCallback2EPvRKNSt7__cxx1112basic_stringIcSt11char_traitsIcESaIcEEESB_SB_mRKSt6vectorImSaImEESG_SG_
libadios2_core.so.2:_ZNK6adios24core8compress10CompressSZ10DecompressEPKvmPvRKSt6vectorImSaImEENS_8DataTypeERKSt3mapINSt7__cxx1112basic_stringIcSt11char_traitsIcESaIcEEESI_St4lessISI_ESaISt4pairIKSI_SI_EEE
libadios2_core.so.2:_ZNK6adios24core8compress10CompressSZ13BufferMaxSizeEm
libadios2_core.so.2:_ZNK6adios24core8compress10CompressSZ8CompressEPKvRKSt6vectorImSaImEEmNS_8DataTypeEPvRKSt3mapINSt7__cxx1112basic_stringIcSt11char_traitsIcESaIcEEESI_St4lessISI_ESaISt4pairIKSI_SI_EEERSP_
libadios2_core.so.2:_ZNK6adios24core8compress11CompressPNG10DecompressEPKvmPvmRSt3mapINSt7__cxx1112basic_stringIcSt11char_traitsIcESaIcEEESC_St4lessISC_ESaISt4pairIKSC_SC_EEE
libadios2_core.so.2:_ZNK6adios24core8compress11CompressPNG11CheckStatusEiNSt7__cxx1112basic_stringIcSt11char_traitsIcESaIcEEE
libadios2_core.so.2:_ZNK6adios24core8compress11CompressPNG8CompressEPKvRKSt6vectorImSaImEEmNS_8DataTypeEPvRKSt3mapINSt7__cxx1112basic_stringIcSt11char_traitsIcESaIcEEESI_St4lessISI_ESaISt4pairIKSI_SI_EEERSP_
libadios2_core.so.2:_ZNK6adios24core8compress11CompressZFP10DecompressEPKvmPvRKSt6vectorImSaImEENS_8DataTypeERKSt3mapINSt7__cxx1112basic_stringIcSt11char_traitsIcESaIcEEESI_St4lessISI_ESaISt4pairIKSI_SI_EEE
libadios2_core.so.2:_ZNK6adios24core8compress11CompressZFP10GetZfpTypeENS_8DataTypeE
libadios2_core.so.2:_ZNK6adios24core8compress11CompressZFP11GetZFPFieldEPKvRKSt6vectorImSaImEENS_8DataTypeE
libadios2_core.so.2:_ZNK6adios24core8compress11CompressZFP12GetZFPStreamERKSt6vectorImSaImEENS_8DataTypeERKSt3mapINSt7__cxx1112basic_stringIcSt11char_traitsIcESaIcEEESF_St4lessISF_ESaISt4pairIKSF_SF_EEE
libadios2_core.so.2:_ZNK6adios24core8compress11CompressZFP15DoBufferMaxSizeEPKvRKSt6vectorImSaImEENS_8DataTypeERKSt3mapINSt7__cxx1112basic_stringIcSt11char_traitsIcESaIcEEESH_St4lessISH_ESaISt4pairIKSH_SH_EEE
libadios2_core.so.2:_ZNK6adios24core8compress11CompressZFP8CompressEPKvRKSt6vectorImSaImEEmNS_8DataTypeEPvRKSt3mapINSt7__cxx1112basic_stringIcSt11char_traitsIcESaIcEEESI_St4lessISI_ESaISt4pairIKSI_SI_EEERSP_
libadios2_core.so.2:_ZNK6adios24core8compress13CompressBZIP210DecompressEPKvmPvmRSt3mapINSt7__cxx1112basic_stringIcSt11char_traitsIcESaIcEEESC_St4lessISC_ESaISt4pairIKSC_SC_EEE
libadios2_core.so.2:_ZNK6adios24core8compress13CompressBZIP211CheckStatusEiNSt7__cxx1112basic_stringIcSt11char_traitsIcESaIcEEE
libadios2_core.so.2:_ZNK6adios24core8compress13CompressBZIP213BufferMaxSizeEm
libadios2_core.so.2:_ZNK6adios24core8compress13CompressBZIP28CompressEPKvRKSt6vectorImSaImEEmNS_8DataTypeEPvRKSt3mapINSt7__cxx1112basic_stringIcSt11char_traitsIcESaIcEEESI_St4lessISI_ESaISt4pairIKSI_SI_EEERSP_
libadios2_core.so.2:_ZNK6adios24core8compress13CompressBlosc10DecompressEPKvmPvmRSt3mapINSt7__cxx1112basic_stringIcSt11char_traitsIcESaIcEEESC_St4lessISC_ESaISt4pairIKSC_SC_EEE
libadios2_core.so.2:_ZNK6adios24core8compress13CompressBlosc13BufferMaxSizeEm
libadios2_core.so.2:_ZNK6adios24core8compress13CompressBlosc19DecompressOldFormatEPKvmPvmRSt3mapINSt7__cxx1112basic_stringIcSt11char_traitsIcESaIcEEESC_St4lessISC_ESaISt4pairIKSC_SC_EEE
libadios2_core.so.2:_ZNK6adios24core8compress13CompressBlosc23DecompressChunkedFormatEPKvmPvmRSt3mapINSt7__cxx1112basic_stringIcSt11char_traitsIcESaIcEEESC_St4lessISC_ESaISt4pairIKSC_SC_EEE
libadios2_core.so.2:_ZNK6adios24core8compress13CompressBlosc8CompressEPKvRKSt6vectorImSaImEEmNS_8DataTypeEPvRKSt3mapINSt7__cxx1112basic_stringIcSt11char_traitsIcESaIcEEESI_St4lessISI_ESaISt4pairIKSI_SI_EEERSP_
libadios2_core.so.2:_ZNK6adios25query8QueryVar14TouchSelectionERSt6vectorImSaImEES5_
libadios2_core.so.2:_ZNK6adios25query8QueryVar16IsSelectionValidERSt6vectorImSaImEE
libadios2_core.so.2:_ZNK6adios26format11BPOperation11SetMetadataERKNS_4core8VariableINSt7__cxx1112basic_stringIcSt11char_traitsIcESaIcEEEEERKNSA_4InfoERKNS2_12VariableBase9OperationERSt6vectorIcS8_E
libadios2_core.so.2:_ZNK6adios26format11BPOperation11SetMetadataERKNS_4core8VariableISt7complexIdEEERKNS6_4InfoERKNS2_12VariableBase9OperationERSt6vectorIcSaIcEE
libadios2_core.so.2:_ZNK6adios26format11BPOperation11SetMetadataERKNS_4core8VariableISt7complexIfEEERKNS6_4InfoERKNS2_12VariableBase9OperationERSt6vectorIcSaIcEE
libadios2_core.so.2:_ZNK6adios26format11BPOperation11SetMetadataERKNS_4core8VariableIaEERKNS4_4InfoERKNS2_12VariableBase9OperationERSt6vectorIcSaIcEE
libadios2_core.so.2:_ZNK6adios26format11BPOperation11SetMetadataERKNS_4core8VariableIdEERKNS4_4InfoERKNS2_12VariableBase9OperationERSt6vectorIcSaIcEE
libadios2_core.so.2:_ZNK6adios26format11BPOperation11SetMetadataERKNS_4core8VariableIeEERKNS4_4InfoERKNS2_12VariableBase9OperationERSt6vectorIcSaIcEE
libadios2_core.so.2:_ZNK6adios26format11BPOperation11SetMetadataERKNS_4core8VariableIfEERKNS4_4InfoERKNS2_12VariableBase9OperationERSt6vectorIcSaIcEE
libadios2_core.so.2:_ZNK6adios26format11BPOperation11SetMetadataERKNS_4core8VariableIhEERKNS4_4InfoERKNS2_12VariableBase9OperationERSt6vectorIcSaIcEE
libadios2_core.so.2:_ZNK6adios26format11BPOperation11SetMetadataERKNS_4core8VariableIiEERKNS4_4InfoERKNS2_12VariableBase9OperationERSt6vectorIcSaIcEE
libadios2_core.so.2:_ZNK6adios26format11BPOperation11SetMetadataERKNS_4core8VariableIjEERKNS4_4InfoERKNS2_12VariableBase9OperationERSt6vectorIcSaIcEE
libadios2_core.so.2:_ZNK6adios26format11BPOperation11SetMetadataERKNS_4core8VariableIlEERKNS4_4InfoERKNS2_12VariableBase9OperationERSt6vectorIcSaIcEE
libadios2_core.so.2:_ZNK6adios26format11BPOperation11SetMetadataERKNS_4core8VariableImEERKNS4_4InfoERKNS2_12VariableBase9OperationERSt6vectorIcSaIcEE
libadios2_core.so.2:_ZNK6adios26format11BPOperation11SetMetadataERKNS_4core8VariableIsEERKNS4_4InfoERKNS2_12VariableBase9OperationERSt6vectorIcSaIcEE
libadios2_core.so.2:_ZNK6adios26format11BPOperation11SetMetadataERKNS_4core8VariableItEERKNS4_4InfoERKNS2_12VariableBase9OperationERSt6vectorIcSaIcEE
libadios2_core.so.2:_ZNK6adios26format11BPOperation14UpdateMetadataERKNS_4core8VariableINSt7__cxx1112basic_stringIcSt11char_traitsIcESaIcEEEEERKNSA_4InfoERKNS2_12VariableBase9OperationERSt6vectorIcS8_E
libadios2_core.so.2:_ZNK6adios26format11BPOperation14UpdateMetadataERKNS_4core8VariableISt7complexIdEEERKNS6_4InfoERKNS2_12VariableBase9OperationERSt6vectorIcSaIcEE
libadios2_core.so.2:_ZNK6adios26format11BPOperation14UpdateMetadataERKNS_4core8VariableISt7complexIfEEERKNS6_4InfoERKNS2_12VariableBase9OperationERSt6vectorIcSaIcEE
libadios2_core.so.2:_ZNK6adios26format11BPOperation14UpdateMetadataERKNS_4core8VariableIaEERKNS4_4InfoERKNS2_12VariableBase9OperationERSt6vectorIcSaIcEE
libadios2_core.so.2:_ZNK6adios26format11BPOperation14UpdateMetadataERKNS_4core8VariableIdEERKNS4_4InfoERKNS2_12VariableBase9OperationERSt6vectorIcSaIcEE
libadios2_core.so.2:_ZNK6adios26format11BPOperation14UpdateMetadataERKNS_4core8VariableIeEERKNS4_4InfoERKNS2_12VariableBase9OperationERSt6vectorIcSaIcEE
libadios2_core.so.2:_ZNK6adios26format11BPOperation14UpdateMetadataERKNS_4core8VariableIfEERKNS4_4InfoERKNS2_12VariableBase9OperationERSt6vectorIcSaIcEE
libadios2_core.so.2:_ZNK6adios26format11BPOperation14UpdateMetadataERKNS_4core8VariableIhEERKNS4_4InfoERKNS2_12VariableBase9OperationERSt6vectorIcSaIcEE
libadios2_core.so.2:_ZNK6adios26format11BPOperation14UpdateMetadataERKNS_4core8VariableIiEERKNS4_4InfoERKNS2_12VariableBase9OperationERSt6vectorIcSaIcEE
libadios2_core.so.2:_ZNK6adios26format11BPOperation14UpdateMetadataERKNS_4core8VariableIjEERKNS4_4InfoERKNS2_12VariableBase9OperationERSt6vectorIcSaIcEE
libadios2_core.so.2:_ZNK6adios26format11BPOperation14UpdateMetadataERKNS_4core8VariableIlEERKNS4_4InfoERKNS2_12VariableBase9OperationERSt6vectorIcSaIcEE
libadios2_core.so.2:_ZNK6adios26format11BPOperation14UpdateMetadataERKNS_4core8VariableImEERKNS4_4InfoERKNS2_12VariableBase9OperationERSt6vectorIcSaIcEE
libadios2_core.so.2:_ZNK6adios26format11BPOperation14UpdateMetadataERKNS_4core8VariableIsEERKNS4_4InfoERKNS2_12VariableBase9OperationERSt6vectorIcSaIcEE
libadios2_core.so.2:_ZNK6adios26format11BPOperation14UpdateMetadataERKNS_4core8VariableItEERKNS4_4InfoERKNS2_12VariableBase9OperationERSt6vectorIcSaIcEE
libadios2_core.so.2:_ZNK6adios26format11BPOperation7SetDataERKNS_4core8VariableINSt7__cxx1112basic_stringIcSt11char_traitsIcESaIcEEEEERKNSA_4InfoERKNS2_12VariableBase9OperationERNS0_9BufferSTLE
libadios2_core.so.2:_ZNK6adios26format11BPOperation7SetDataERKNS_4core8VariableISt7complexIdEEERKNS6_4InfoERKNS2_12VariableBase9OperationERNS0_9BufferSTLE
libadios2_core.so.2:_ZNK6adios26format11BPOperation7SetDataERKNS_4core8VariableISt7complexIfEEERKNS6_4InfoERKNS2_12VariableBase9OperationERNS0_9BufferSTLE
libadios2_core.so.2:_ZNK6adios26format11BPOperation7SetDataERKNS_4core8VariableIaEERKNS4_4InfoERKNS2_12VariableBase9OperationERNS0_9BufferSTLE
libadios2_core.so.2:_ZNK6adios26format11BPOperation7SetDataERKNS_4core8VariableIdEERKNS4_4InfoERKNS2_12VariableBase9OperationERNS0_9BufferSTLE
libadios2_core.so.2:_ZNK6adios26format11BPOperation7SetDataERKNS_4core8VariableIeEERKNS4_4InfoERKNS2_12VariableBase9OperationERNS0_9BufferSTLE
libadios2_core.so.2:_ZNK6adios26format11BPOperation7SetDataERKNS_4core8VariableIfEERKNS4_4InfoERKNS2_12VariableBase9OperationERNS0_9BufferSTLE
libadios2_core.so.2:_ZNK6adios26format11BPOperation7SetDataERKNS_4core8VariableIhEERKNS4_4InfoERKNS2_12VariableBase9OperationERNS0_9BufferSTLE
libadios2_core.so.2:_ZNK6adios26format11BPOperation7SetDataERKNS_4core8VariableIiEERKNS4_4InfoERKNS2_12VariableBase9OperationERNS0_9BufferSTLE
libadios2_core.so.2:_ZNK6adios26format11BPOperation7SetDataERKNS_4core8VariableIjEERKNS4_4InfoERKNS2_12VariableBase9OperationERNS0_9BufferSTLE
libadios2_core.so.2:_ZNK6adios26format11BPOperation7SetDataERKNS_4core8VariableIlEERKNS4_4InfoERKNS2_12VariableBase9OperationERNS0_9BufferSTLE
libadios2_core.so.2:_ZNK6adios26format11BPOperation7SetDataERKNS_4core8VariableImEERKNS4_4InfoERKNS2_12VariableBase9OperationERNS0_9BufferSTLE
libadios2_core.so.2:_ZNK6adios26format11BPOperation7SetDataERKNS_4core8VariableIsEERKNS4_4InfoERKNS2_12VariableBase9OperationERNS0_9BufferSTLE
libadios2_core.so.2:_ZNK6adios26format11BPOperation7SetDataERKNS_4core8VariableItEERKNS4_4InfoERKNS2_12VariableBase9OperationERNS0_9BufferSTLE
libadios2_core.so.2:_ZNK6adios26format12BPSerializer12GetFileIndexEv
libadios2_core.so.2:_ZNK6adios26format12BPSerializer21GetSerialElementIndexERKNSt7__cxx1112basic_stringIcSt11char_traitsIcESaIcEEERSt13unordered_mapIS7_NS0_6BPBase18SerialElementIndexESt4hashIS7_ESt8equal_toIS7_ESaISt4pairIS8_SC_EEERb
libadios2_core.so.2:_ZNK6adios26format12BPSerializer22AggregateProfilingJSONERKNSt7__cxx1112basic_stringIcSt11char_traitsIcESaIcEEE
libadios2_core.so.2:_ZNK6adios26format12BPSerializer23GetAttributesSizeInDataERNS_4core2IOE
libadios2_core.so.2:_ZNK6adios26format13BufferSystemV4DataEv
libadios2_core.so.2:_ZNK6adios26format15BP3Deserializer10ClipMemoryERKNSt7__cxx1112basic_stringIcSt11char_traitsIcESaIcEEERNS_4core2IOERKSt6vectorIcS6_ERKSt4pairISD_ImSaImEESJ_ESM_
libadios2_core.so.2:_ZNK6adios26format15BP3Deserializer25InitPostOperatorBlockDataERKSt6vectorINS_6helper18BlockOperationInfoESaIS4_EE
libadios2_core.so.2:_ZNK6adios26format15BP4Deserializer10ClipMemoryERKNSt7__cxx1112basic_stringIcSt11char_traitsIcESaIcEEERNS_4core2IOERKSt6vectorIcS6_ERKSt4pairISD_ImSaImEESJ_ESM_
libadios2_core.so.2:_ZNK6adios26format15BP4Deserializer25InitPostOperatorBlockDataERKSt6vectorINS_6helper18BlockOperationInfoESaIS4_EE
libadios2_core.so.2:_ZNK6adios26format4BPSZ11GetMetadataERKSt6vectorIcSaIcEERSt3mapINSt7__cxx1112basic_stringIcSt11char_traitsIcES3_EESC_St4lessISC_ESaISt4pairIKSC_SC_EEE
libadios2_core.so.2:_ZNK6adios26format4BPSZ11SetMetadataERKNS_4core8VariableIdEERKNS4_4InfoERKNS2_12VariableBase9OperationERSt6vectorIcSaIcEE
libadios2_core.so.2:_ZNK6adios26format4BPSZ11SetMetadataERKNS_4core8VariableIfEERKNS4_4InfoERKNS2_12VariableBase9OperationERSt6vectorIcSaIcEE
libadios2_core.so.2:_ZNK6adios26format4BPSZ14UpdateMetadataERKNS_4core8VariableIdEERKNS4_4InfoERKNS2_12VariableBase9OperationERSt6vectorIcSaIcEE
libadios2_core.so.2:_ZNK6adios26format4BPSZ14UpdateMetadataERKNS_4core8VariableIfEERKNS4_4InfoERKNS2_12VariableBase9OperationERSt6vectorIcSaIcEE
libadios2_core.so.2:_ZNK6adios26format4BPSZ7GetDataEPKcRKNS_6helper18BlockOperationInfoEPc
libadios2_core.so.2:_ZNK6adios26format4BPSZ7SetDataERKNS_4core8VariableIdEERKNS4_4InfoERKNS2_12VariableBase9OperationERNS0_9BufferSTLE
libadios2_core.so.2:_ZNK6adios26format4BPSZ7SetDataERKNS_4core8VariableIfEERKNS4_4InfoERKNS2_12VariableBase9OperationERNS0_9BufferSTLE
libadios2_core.so.2:_ZNK6adios26format5BPPNG11GetMetadataERKSt6vectorIcSaIcEERSt3mapINSt7__cxx1112basic_stringIcSt11char_traitsIcES3_EESC_St4lessISC_ESaISt4pairIKSC_SC_EEE
libadios2_core.so.2:_ZNK6adios26format5BPPNG11SetMetadataERKNS_4core8VariableISt7complexIdEEERKNS6_4InfoERKNS2_12VariableBase9OperationERSt6vectorIcSaIcEE
libadios2_core.so.2:_ZNK6adios26format5BPPNG11SetMetadataERKNS_4core8VariableISt7complexIfEEERKNS6_4InfoERKNS2_12VariableBase9OperationERSt6vectorIcSaIcEE
libadios2_core.so.2:_ZNK6adios26format5BPPNG11SetMetadataERKNS_4core8VariableIaEERKNS4_4InfoERKNS2_12VariableBase9OperationERSt6vectorIcSaIcEE
libadios2_core.so.2:_ZNK6adios26format5BPPNG11SetMetadataERKNS_4core8VariableIdEERKNS4_4InfoERKNS2_12VariableBase9OperationERSt6vectorIcSaIcEE
libadios2_core.so.2:_ZNK6adios26format5BPPNG11SetMetadataERKNS_4core8VariableIeEERKNS4_4InfoERKNS2_12VariableBase9OperationERSt6vectorIcSaIcEE
libadios2_core.so.2:_ZNK6adios26format5BPPNG11SetMetadataERKNS_4core8VariableIfEERKNS4_4InfoERKNS2_12VariableBase9OperationERSt6vectorIcSaIcEE
libadios2_core.so.2:_ZNK6adios26format5BPPNG11SetMetadataERKNS_4core8VariableIhEERKNS4_4InfoERKNS2_12VariableBase9OperationERSt6vectorIcSaIcEE
libadios2_core.so.2:_ZNK6adios26format5BPPNG11SetMetadataERKNS_4core8VariableIiEERKNS4_4InfoERKNS2_12VariableBase9OperationERSt6vectorIcSaIcEE
libadios2_core.so.2:_ZNK6adios26format5BPPNG11SetMetadataERKNS_4core8VariableIjEERKNS4_4InfoERKNS2_12VariableBase9OperationERSt6vectorIcSaIcEE
libadios2_core.so.2:_ZNK6adios26format5BPPNG11SetMetadataERKNS_4core8VariableIlEERKNS4_4InfoERKNS2_12VariableBase9OperationERSt6vectorIcSaIcEE
libadios2_core.so.2:_ZNK6adios26format5BPPNG11SetMetadataERKNS_4core8VariableImEERKNS4_4InfoERKNS2_12VariableBase9OperationERSt6vectorIcSaIcEE
libadios2_core.so.2:_ZNK6adios26format5BPPNG11SetMetadataERKNS_4core8VariableIsEERKNS4_4InfoERKNS2_12VariableBase9OperationERSt6vectorIcSaIcEE
libadios2_core.so.2:_ZNK6adios26format5BPPNG11SetMetadataERKNS_4core8VariableItEERKNS4_4InfoERKNS2_12VariableBase9OperationERSt6vectorIcSaIcEE
libadios2_core.so.2:_ZNK6adios26format5BPPNG14UpdateMetadataERKNS_4core8VariableISt7complexIdEEERKNS6_4InfoERKNS2_12VariableBase9OperationERSt6vectorIcSaIcEE
libadios2_core.so.2:_ZNK6adios26format5BPPNG14UpdateMetadataERKNS_4core8VariableISt7complexIfEEERKNS6_4InfoERKNS2_12VariableBase9OperationERSt6vectorIcSaIcEE
libadios2_core.so.2:_ZNK6adios26format5BPPNG14UpdateMetadataERKNS_4core8VariableIaEERKNS4_4InfoERKNS2_12VariableBase9OperationERSt6vectorIcSaIcEE
libadios2_core.so.2:_ZNK6adios26format5BPPNG14UpdateMetadataERKNS_4core8VariableIdEERKNS4_4InfoERKNS2_12VariableBase9OperationERSt6vectorIcSaIcEE
libadios2_core.so.2:_ZNK6adios26format5BPPNG14UpdateMetadataERKNS_4core8VariableIeEERKNS4_4InfoERKNS2_12VariableBase9OperationERSt6vectorIcSaIcEE
libadios2_core.so.2:_ZNK6adios26format5BPPNG14UpdateMetadataERKNS_4core8VariableIfEERKNS4_4InfoERKNS2_12VariableBase9OperationERSt6vectorIcSaIcEE
libadios2_core.so.2:_ZNK6adios26format5BPPNG14UpdateMetadataERKNS_4core8VariableIhEERKNS4_4InfoERKNS2_12VariableBase9OperationERSt6vectorIcSaIcEE
libadios2_core.so.2:_ZNK6adios26format5BPPNG14UpdateMetadataERKNS_4core8VariableIiEERKNS4_4InfoERKNS2_12VariableBase9OperationERSt6vectorIcSaIcEE
libadios2_core.so.2:_ZNK6adios26format5BPPNG14UpdateMetadataERKNS_4core8VariableIjEERKNS4_4InfoERKNS2_12VariableBase9OperationERSt6vectorIcSaIcEE
libadios2_core.so.2:_ZNK6adios26format5BPPNG14UpdateMetadataERKNS_4core8VariableIlEERKNS4_4InfoERKNS2_12VariableBase9OperationERSt6vectorIcSaIcEE
libadios2_core.so.2:_ZNK6adios26format5BPPNG14UpdateMetadataERKNS_4core8VariableImEERKNS4_4InfoERKNS2_12VariableBase9OperationERSt6vectorIcSaIcEE
libadios2_core.so.2:_ZNK6adios26format5BPPNG14UpdateMetadataERKNS_4core8VariableIsEERKNS4_4InfoERKNS2_12VariableBase9OperationERSt6vectorIcSaIcEE
libadios2_core.so.2:_ZNK6adios26format5BPPNG14UpdateMetadataERKNS_4core8VariableItEERKNS4_4InfoERKNS2_12VariableBase9OperationERSt6vectorIcSaIcEE
libadios2_core.so.2:_ZNK6adios26format5BPPNG7GetDataEPKcRKNS_6helper18BlockOperationInfoEPc
libadios2_core.so.2:_ZNK6adios26format5BPPNG7SetDataERKNS_4core8VariableISt7complexIdEEERKNS6_4InfoERKNS2_12VariableBase9OperationERNS0_9BufferSTLE
libadios2_core.so.2:_ZNK6adios26format5BPPNG7SetDataERKNS_4core8VariableISt7complexIfEEERKNS6_4InfoERKNS2_12VariableBase9OperationERNS0_9BufferSTLE
libadios2_core.so.2:_ZNK6adios26format5BPPNG7SetDataERKNS_4core8VariableIaEERKNS4_4InfoERKNS2_12VariableBase9OperationERNS0_9BufferSTLE
libadios2_core.so.2:_ZNK6adios26format5BPPNG7SetDataERKNS_4core8VariableIdEERKNS4_4InfoERKNS2_12VariableBase9OperationERNS0_9BufferSTLE
libadios2_core.so.2:_ZNK6adios26format5BPPNG7SetDataERKNS_4core8VariableIeEERKNS4_4InfoERKNS2_12VariableBase9OperationERNS0_9BufferSTLE
libadios2_core.so.2:_ZNK6adios26format5BPPNG7SetDataERKNS_4core8VariableIfEERKNS4_4InfoERKNS2_12VariableBase9OperationERNS0_9BufferSTLE
libadios2_core.so.2:_ZNK6adios26format5BPPNG7SetDataERKNS_4core8VariableIhEERKNS4_4InfoERKNS2_12VariableBase9OperationERNS0_9BufferSTLE
libadios2_core.so.2:_ZNK6adios26format5BPPNG7SetDataERKNS_4core8VariableIiEERKNS4_4InfoERKNS2_12VariableBase9OperationERNS0_9BufferSTLE
libadios2_core.so.2:_ZNK6adios26format5BPPNG7SetDataERKNS_4core8VariableIjEERKNS4_4InfoERKNS2_12VariableBase9OperationERNS0_9BufferSTLE
libadios2_core.so.2:_ZNK6adios26format5BPPNG7SetDataERKNS_4core8VariableIlEERKNS4_4InfoERKNS2_12VariableBase9OperationERNS0_9BufferSTLE
libadios2_core.so.2:_ZNK6adios26format5BPPNG7SetDataERKNS_4core8VariableImEERKNS4_4InfoERKNS2_12VariableBase9OperationERNS0_9BufferSTLE
libadios2_core.so.2:_ZNK6adios26format5BPPNG7SetDataERKNS_4core8VariableIsEERKNS4_4InfoERKNS2_12VariableBase9OperationERNS0_9BufferSTLE
libadios2_core.so.2:_ZNK6adios26format5BPPNG7SetDataERKNS_4core8VariableItEERKNS4_4InfoERKNS2_12VariableBase9OperationERNS0_9BufferSTLE
libadios2_core.so.2:_ZNK6adios26format5BPZFP11GetMetadataERKSt6vectorIcSaIcEERSt3mapINSt7__cxx1112basic_stringIcSt11char_traitsIcES3_EESC_St4lessISC_ESaISt4pairIKSC_SC_EEE
libadios2_core.so.2:_ZNK6adios26format5BPZFP11SetMetadataERKNS_4core8VariableIdEERKNS4_4InfoERKNS2_12VariableBase9OperationERSt6vectorIcSaIcEE
libadios2_core.so.2:_ZNK6adios26format5BPZFP11SetMetadataERKNS_4core8VariableIfEERKNS4_4InfoERKNS2_12VariableBase9OperationERSt6vectorIcSaIcEE
libadios2_core.so.2:_ZNK6adios26format5BPZFP11SetMetadataERKNS_4core8VariableIiEERKNS4_4InfoERKNS2_12VariableBase9OperationERSt6vectorIcSaIcEE
libadios2_core.so.2:_ZNK6adios26format5BPZFP11SetMetadataERKNS_4core8VariableIlEERKNS4_4InfoERKNS2_12VariableBase9OperationERSt6vectorIcSaIcEE
libadios2_core.so.2:_ZNK6adios26format5BPZFP14UpdateMetadataERKNS_4core8VariableIdEERKNS4_4InfoERKNS2_12VariableBase9OperationERSt6vectorIcSaIcEE
libadios2_core.so.2:_ZNK6adios26format5BPZFP14UpdateMetadataERKNS_4core8VariableIfEERKNS4_4InfoERKNS2_12VariableBase9OperationERSt6vectorIcSaIcEE
libadios2_core.so.2:_ZNK6adios26format5BPZFP14UpdateMetadataERKNS_4core8VariableIiEERKNS4_4InfoERKNS2_12VariableBase9OperationERSt6vectorIcSaIcEE
libadios2_core.so.2:_ZNK6adios26format5BPZFP14UpdateMetadataERKNS_4core8VariableIlEERKNS4_4InfoERKNS2_12VariableBase9OperationERSt6vectorIcSaIcEE
libadios2_core.so.2:_ZNK6adios26format5BPZFP7GetDataEPKcRKNS_6helper18BlockOperationInfoEPc
libadios2_core.so.2:_ZNK6adios26format5BPZFP7SetDataERKNS_4core8VariableIdEERKNS4_4InfoERKNS2_12VariableBase9OperationERNS0_9BufferSTLE
libadios2_core.so.2:_ZNK6adios26format5BPZFP7SetDataERKNS_4core8VariableIfEERKNS4_4InfoERKNS2_12VariableBase9OperationERNS0_9BufferSTLE
libadios2_core.so.2:_ZNK6adios26format5BPZFP7SetDataERKNS_4core8VariableIiEERKNS4_4InfoERKNS2_12VariableBase9OperationERNS0_9BufferSTLE
libadios2_core.so.2:_ZNK6adios26format5BPZFP7SetDataERKNS_4core8VariableIlEERKNS4_4InfoERKNS2_12VariableBase9OperationERNS0_9BufferSTLE
libadios2_core.so.2:_ZNK6adios26format6BPBase12ReadBPStringB5cxx11ERKSt6vectorIcSaIcEERmb
libadios2_core.so.2:_ZNK6adios26format6BPBase14SetBPOperationENSt7__cxx1112basic_stringIcSt11char_traitsIcESaIcEEE
libadios2_core.so.2:_ZNK6adios26format6BPBase15GetTransportIDsERKSt6vectorINSt7__cxx1112basic_stringIcSt11char_traitsIcESaIcEEESaIS8_EE
libadios2_core.so.2:_ZNK6adios26format6BPBase15SetBPOperationsERKSt6vectorINS_4core12VariableBase9OperationESaIS5_EE
libadios2_core.so.2:_ZNK6adios26format6BPBase17TransformTypeEnumENSt7__cxx1112basic_stringIcSt11char_traitsIcESaIcEEE
libadios2_core.so.2:_ZNK6adios26format6BPBase22DebugGetDataBufferSizeEv
libadios2_core.so.2:_ZNK6adios26format6BPBase24GetProcessGroupIndexSizeENSt7__cxx1112basic_stringIcSt11char_traitsIcESaIcEEES7_m
libadios2_core.so.2:_ZNK6adios26format6BPBase27ReadProcessGroupIndexHeaderERKSt6vectorIcSaIcEERmb
libadios2_core.so.2:_ZNK6adios26format6Buffer16GetAvailableSizeEv
libadios2_core.so.2:_ZNK6adios26format6Buffer4DataEv
libadios2_core.so.2:_ZNK6adios26format7BP3Base14GetBPBaseNamesERKSt6vectorINSt7__cxx1112basic_stringIcSt11char_traitsIcESaIcEEESaIS8_EE
libadios2_core.so.2:_ZNK6adios26format7BP3Base16GetBPSubFileNameERKNSt7__cxx1112basic_stringIcSt11char_traitsIcESaIcEEEmbb
libadios2_core.so.2:_ZNK6adios26format7BP3Base18GetBPSubStreamNameERKNSt7__cxx1112basic_stringIcSt11char_traitsIcESaIcEEEmbb
libadios2_core.so.2:_ZNK6adios26format7BP3Base19GetBPSubStreamNamesERKSt6vectorINSt7__cxx1112basic_stringIcSt11char_traitsIcESaIcEEESaIS8_EE
libadios2_core.so.2:_ZNK6adios26format7BP3Base20GetBPIndexSizeInDataERKNSt7__cxx1112basic_stringIcSt11char_traitsIcESaIcEEERKSt6vectorImSaImEE
libadios2_core.so.2:_ZNK6adios26format7BP3Base21GetBPMetadataFileNameERKNSt7__cxx1112basic_stringIcSt11char_traitsIcESaIcEEE
libadios2_core.so.2:_ZNK6adios26format7BP3Base22GetBPMetadataFileNamesERKSt6vectorINSt7__cxx1112basic_stringIcSt11char_traitsIcESaIcEEESaIS8_EE
libadios2_core.so.2:_ZNK6adios26format7BP3Base22ReadElementIndexHeaderERKSt6vectorIcSaIcEERmb
libadios2_core.so.2:_ZNK6adios26format7BP4Base14GetBPBaseNamesERKSt6vectorINSt7__cxx1112basic_stringIcSt11char_traitsIcESaIcEEESaIS8_EE
libadios2_core.so.2:_ZNK6adios26format7BP4Base16GetBPSubFileNameERKNSt7__cxx1112basic_stringIcSt11char_traitsIcESaIcEEEmbb
libadios2_core.so.2:_ZNK6adios26format7BP4Base18GetBPSubStreamNameERKNSt7__cxx1112basic_stringIcSt11char_traitsIcESaIcEEEmbb
libadios2_core.so.2:_ZNK6adios26format7BP4Base19GetBPSubStreamNamesERKSt6vectorINSt7__cxx1112basic_stringIcSt11char_traitsIcESaIcEEESaIS8_EE
libadios2_core.so.2:_ZNK6adios26format7BP4Base20GetBPIndexSizeInDataERKNSt7__cxx1112basic_stringIcSt11char_traitsIcESaIcEEERKSt6vectorImSaImEE
libadios2_core.so.2:_ZNK6adios26format7BP4Base21GetBPMetadataFileNameERKNSt7__cxx1112basic_stringIcSt11char_traitsIcESaIcEEE
libadios2_core.so.2:_ZNK6adios26format7BP4Base22GetBPMetadataFileNamesERKSt6vectorINSt7__cxx1112basic_stringIcSt11char_traitsIcESaIcEEESaIS8_EE
libadios2_core.so.2:_ZNK6adios26format7BP4Base22ReadElementIndexHeaderERKSt6vectorIcSaIcEERmb
libadios2_core.so.2:_ZNK6adios26format7BP4Base23GetBPActiveFlagFileNameERKNSt7__cxx1112basic_stringIcSt11char_traitsIcESaIcEEE
libadios2_core.so.2:_ZNK6adios26format7BP4Base24GetBPActiveFlagFileNamesERKSt6vectorINSt7__cxx1112basic_stringIcSt11char_traitsIcESaIcEEESaIS8_EE
libadios2_core.so.2:_ZNK6adios26format7BP4Base26GetBPMetadataIndexFileNameERKNSt7__cxx1112basic_stringIcSt11char_traitsIcESaIcEEE
libadios2_core.so.2:_ZNK6adios26format7BP4Base27GetBPMetadataIndexFileNamesERKSt6vectorINSt7__cxx1112basic_stringIcSt11char_traitsIcESaIcEEESaIS8_EE
libadios2_core.so.2:_ZNK6adios26format7BPBZIP211GetMetadataERKSt6vectorIcSaIcEERSt3mapINSt7__cxx1112basic_stringIcSt11char_traitsIcES3_EESC_St4lessISC_ESaISt4pairIKSC_SC_EEE
libadios2_core.so.2:_ZNK6adios26format7BPBZIP211SetMetadataERKNS_4core8VariableISt7complexIdEEERKNS6_4InfoERKNS2_12VariableBase9OperationERSt6vectorIcSaIcEE
libadios2_core.so.2:_ZNK6adios26format7BPBZIP211SetMetadataERKNS_4core8VariableISt7complexIfEEERKNS6_4InfoERKNS2_12VariableBase9OperationERSt6vectorIcSaIcEE
libadios2_core.so.2:_ZNK6adios26format7BPBZIP211SetMetadataERKNS_4core8VariableIaEERKNS4_4InfoERKNS2_12VariableBase9OperationERSt6vectorIcSaIcEE
libadios2_core.so.2:_ZNK6adios26format7BPBZIP211SetMetadataERKNS_4core8VariableIdEERKNS4_4InfoERKNS2_12VariableBase9OperationERSt6vectorIcSaIcEE
libadios2_core.so.2:_ZNK6adios26format7BPBZIP211SetMetadataERKNS_4core8VariableIeEERKNS4_4InfoERKNS2_12VariableBase9OperationERSt6vectorIcSaIcEE
libadios2_core.so.2:_ZNK6adios26format7BPBZIP211SetMetadataERKNS_4core8VariableIfEERKNS4_4InfoERKNS2_12VariableBase9OperationERSt6vectorIcSaIcEE
libadios2_core.so.2:_ZNK6adios26format7BPBZIP211SetMetadataERKNS_4core8VariableIhEERKNS4_4InfoERKNS2_12VariableBase9OperationERSt6vectorIcSaIcEE
libadios2_core.so.2:_ZNK6adios26format7BPBZIP211SetMetadataERKNS_4core8VariableIiEERKNS4_4InfoERKNS2_12VariableBase9OperationERSt6vectorIcSaIcEE
libadios2_core.so.2:_ZNK6adios26format7BPBZIP211SetMetadataERKNS_4core8VariableIjEERKNS4_4InfoERKNS2_12VariableBase9OperationERSt6vectorIcSaIcEE
libadios2_core.so.2:_ZNK6adios26format7BPBZIP211SetMetadataERKNS_4core8VariableIlEERKNS4_4InfoERKNS2_12VariableBase9OperationERSt6vectorIcSaIcEE
libadios2_core.so.2:_ZNK6adios26format7BPBZIP211SetMetadataERKNS_4core8VariableImEERKNS4_4InfoERKNS2_12VariableBase9OperationERSt6vectorIcSaIcEE
libadios2_core.so.2:_ZNK6adios26format7BPBZIP211SetMetadataERKNS_4core8VariableIsEERKNS4_4InfoERKNS2_12VariableBase9OperationERSt6vectorIcSaIcEE
libadios2_core.so.2:_ZNK6adios26format7BPBZIP211SetMetadataERKNS_4core8VariableItEERKNS4_4InfoERKNS2_12VariableBase9OperationERSt6vectorIcSaIcEE
libadios2_core.so.2:_ZNK6adios26format7BPBZIP214UpdateMetadataERKNS_4core8VariableISt7complexIdEEERKNS6_4InfoERKNS2_12VariableBase9OperationERSt6vectorIcSaIcEE
libadios2_core.so.2:_ZNK6adios26format7BPBZIP214UpdateMetadataERKNS_4core8VariableISt7complexIfEEERKNS6_4InfoERKNS2_12VariableBase9OperationERSt6vectorIcSaIcEE
libadios2_core.so.2:_ZNK6adios26format7BPBZIP214UpdateMetadataERKNS_4core8VariableIaEERKNS4_4InfoERKNS2_12VariableBase9OperationERSt6vectorIcSaIcEE
libadios2_core.so.2:_ZNK6adios26format7BPBZIP214UpdateMetadataERKNS_4core8VariableIdEERKNS4_4InfoERKNS2_12VariableBase9OperationERSt6vectorIcSaIcEE
libadios2_core.so.2:_ZNK6adios26format7BPBZIP214UpdateMetadataERKNS_4core8VariableIeEERKNS4_4InfoERKNS2_12VariableBase9OperationERSt6vectorIcSaIcEE
libadios2_core.so.2:_ZNK6adios26format7BPBZIP214UpdateMetadataERKNS_4core8VariableIfEERKNS4_4InfoERKNS2_12VariableBase9OperationERSt6vectorIcSaIcEE
libadios2_core.so.2:_ZNK6adios26format7BPBZIP214UpdateMetadataERKNS_4core8VariableIhEERKNS4_4InfoERKNS2_12VariableBase9OperationERSt6vectorIcSaIcEE
libadios2_core.so.2:_ZNK6adios26format7BPBZIP214UpdateMetadataERKNS_4core8VariableIiEERKNS4_4InfoERKNS2_12VariableBase9OperationERSt6vectorIcSaIcEE
libadios2_core.so.2:_ZNK6adios26format7BPBZIP214UpdateMetadataERKNS_4core8VariableIjEERKNS4_4InfoERKNS2_12VariableBase9OperationERSt6vectorIcSaIcEE
libadios2_core.so.2:_ZNK6adios26format7BPBZIP214UpdateMetadataERKNS_4core8VariableIlEERKNS4_4InfoERKNS2_12VariableBase9OperationERSt6vectorIcSaIcEE
libadios2_core.so.2:_ZNK6adios26format7BPBZIP214UpdateMetadataERKNS_4core8VariableImEERKNS4_4InfoERKNS2_12VariableBase9OperationERSt6vectorIcSaIcEE
libadios2_core.so.2:_ZNK6adios26format7BPBZIP214UpdateMetadataERKNS_4core8VariableIsEERKNS4_4InfoERKNS2_12VariableBase9OperationERSt6vectorIcSaIcEE
libadios2_core.so.2:_ZNK6adios26format7BPBZIP214UpdateMetadataERKNS_4core8VariableItEERKNS4_4InfoERKNS2_12VariableBase9OperationERSt6vectorIcSaIcEE
libadios2_core.so.2:_ZNK6adios26format7BPBZIP27GetDataEPKcRKNS_6helper18BlockOperationInfoEPc
libadios2_core.so.2:_ZNK6adios26format7BPBZIP27SetDataERKNS_4core8VariableISt7complexIdEEERKNS6_4InfoERKNS2_12VariableBase9OperationERNS0_9BufferSTLE
libadios2_core.so.2:_ZNK6adios26format7BPBZIP27SetDataERKNS_4core8VariableISt7complexIfEEERKNS6_4InfoERKNS2_12VariableBase9OperationERNS0_9BufferSTLE
libadios2_core.so.2:_ZNK6adios26format7BPBZIP27SetDataERKNS_4core8VariableIaEERKNS4_4InfoERKNS2_12VariableBase9OperationERNS0_9BufferSTLE
libadios2_core.so.2:_ZNK6adios26format7BPBZIP27SetDataERKNS_4core8VariableIdEERKNS4_4InfoERKNS2_12VariableBase9OperationERNS0_9BufferSTLE
libadios2_core.so.2:_ZNK6adios26format7BPBZIP27SetDataERKNS_4core8VariableIeEERKNS4_4InfoERKNS2_12VariableBase9OperationERNS0_9BufferSTLE
libadios2_core.so.2:_ZNK6adios26format7BPBZIP27SetDataERKNS_4core8VariableIfEERKNS4_4InfoERKNS2_12VariableBase9OperationERNS0_9BufferSTLE
libadios2_core.so.2:_ZNK6adios26format7BPBZIP27SetDataERKNS_4core8VariableIhEERKNS4_4InfoERKNS2_12VariableBase9OperationERNS0_9BufferSTLE
libadios2_core.so.2:_ZNK6adios26format7BPBZIP27SetDataERKNS_4core8VariableIiEERKNS4_4InfoERKNS2_12VariableBase9OperationERNS0_9BufferSTLE
libadios2_core.so.2:_ZNK6adios26format7BPBZIP27SetDataERKNS_4core8VariableIjEERKNS4_4InfoERKNS2_12VariableBase9OperationERNS0_9BufferSTLE
libadios2_core.so.2:_ZNK6adios26format7BPBZIP27SetDataERKNS_4core8VariableIlEERKNS4_4InfoERKNS2_12VariableBase9OperationERNS0_9BufferSTLE
libadios2_core.so.2:_ZNK6adios26format7BPBZIP27SetDataERKNS_4core8VariableImEERKNS4_4InfoERKNS2_12VariableBase9OperationERNS0_9BufferSTLE
libadios2_core.so.2:_ZNK6adios26format7BPBZIP27SetDataERKNS_4core8VariableIsEERKNS4_4InfoERKNS2_12VariableBase9OperationERNS0_9BufferSTLE
libadios2_core.so.2:_ZNK6adios26format7BPBZIP27SetDataERKNS_4core8VariableItEERKNS4_4InfoERKNS2_12VariableBase9OperationERNS0_9BufferSTLE
libadios2_core.so.2:_ZNK6adios26format7BPBlosc11GetMetadataERKSt6vectorIcSaIcEERSt3mapINSt7__cxx1112basic_stringIcSt11char_traitsIcES3_EESC_St4lessISC_ESaISt4pairIKSC_SC_EEE
libadios2_core.so.2:_ZNK6adios26format7BPBlosc11SetMetadataERKNS_4core8VariableISt7complexIdEEERKNS6_4InfoERKNS2_12VariableBase9OperationERSt6vectorIcSaIcEE
libadios2_core.so.2:_ZNK6adios26format7BPBlosc11SetMetadataERKNS_4core8VariableISt7complexIfEEERKNS6_4InfoERKNS2_12VariableBase9OperationERSt6vectorIcSaIcEE
libadios2_core.so.2:_ZNK6adios26format7BPBlosc11SetMetadataERKNS_4core8VariableIaEERKNS4_4InfoERKNS2_12VariableBase9OperationERSt6vectorIcSaIcEE
libadios2_core.so.2:_ZNK6adios26format7BPBlosc11SetMetadataERKNS_4core8VariableIdEERKNS4_4InfoERKNS2_12VariableBase9OperationERSt6vectorIcSaIcEE
libadios2_core.so.2:_ZNK6adios26format7BPBlosc11SetMetadataERKNS_4core8VariableIeEERKNS4_4InfoERKNS2_12VariableBase9OperationERSt6vectorIcSaIcEE
libadios2_core.so.2:_ZNK6adios26format7BPBlosc11SetMetadataERKNS_4core8VariableIfEERKNS4_4InfoERKNS2_12VariableBase9OperationERSt6vectorIcSaIcEE
libadios2_core.so.2:_ZNK6adios26format7BPBlosc11SetMetadataERKNS_4core8VariableIhEERKNS4_4InfoERKNS2_12VariableBase9OperationERSt6vectorIcSaIcEE
libadios2_core.so.2:_ZNK6adios26format7BPBlosc11SetMetadataERKNS_4core8VariableIiEERKNS4_4InfoERKNS2_12VariableBase9OperationERSt6vectorIcSaIcEE
libadios2_core.so.2:_ZNK6adios26format7BPBlosc11SetMetadataERKNS_4core8VariableIjEERKNS4_4InfoERKNS2_12VariableBase9OperationERSt6vectorIcSaIcEE
libadios2_core.so.2:_ZNK6adios26format7BPBlosc11SetMetadataERKNS_4core8VariableIlEERKNS4_4InfoERKNS2_12VariableBase9OperationERSt6vectorIcSaIcEE
libadios2_core.so.2:_ZNK6adios26format7BPBlosc11SetMetadataERKNS_4core8VariableImEERKNS4_4InfoERKNS2_12VariableBase9OperationERSt6vectorIcSaIcEE
libadios2_core.so.2:_ZNK6adios26format7BPBlosc11SetMetadataERKNS_4core8VariableIsEERKNS4_4InfoERKNS2_12VariableBase9OperationERSt6vectorIcSaIcEE
libadios2_core.so.2:_ZNK6adios26format7BPBlosc11SetMetadataERKNS_4core8VariableItEERKNS4_4InfoERKNS2_12VariableBase9OperationERSt6vectorIcSaIcEE
libadios2_core.so.2:_ZNK6adios26format7BPBlosc14UpdateMetadataERKNS_4core8VariableISt7complexIdEEERKNS6_4InfoERKNS2_12VariableBase9OperationERSt6vectorIcSaIcEE
libadios2_core.so.2:_ZNK6adios26format7BPBlosc14UpdateMetadataERKNS_4core8VariableISt7complexIfEEERKNS6_4InfoERKNS2_12VariableBase9OperationERSt6vectorIcSaIcEE
libadios2_core.so.2:_ZNK6adios26format7BPBlosc14UpdateMetadataERKNS_4core8VariableIaEERKNS4_4InfoERKNS2_12VariableBase9OperationERSt6vectorIcSaIcEE
libadios2_core.so.2:_ZNK6adios26format7BPBlosc14UpdateMetadataERKNS_4core8VariableIdEERKNS4_4InfoERKNS2_12VariableBase9OperationERSt6vectorIcSaIcEE
libadios2_core.so.2:_ZNK6adios26format7BPBlosc14UpdateMetadataERKNS_4core8VariableIeEERKNS4_4InfoERKNS2_12VariableBase9OperationERSt6vectorIcSaIcEE
libadios2_core.so.2:_ZNK6adios26format7BPBlosc14UpdateMetadataERKNS_4core8VariableIfEERKNS4_4InfoERKNS2_12VariableBase9OperationERSt6vectorIcSaIcEE
libadios2_core.so.2:_ZNK6adios26format7BPBlosc14UpdateMetadataERKNS_4core8VariableIhEERKNS4_4InfoERKNS2_12VariableBase9OperationERSt6vectorIcSaIcEE
libadios2_core.so.2:_ZNK6adios26format7BPBlosc14UpdateMetadataERKNS_4core8VariableIiEERKNS4_4InfoERKNS2_12VariableBase9OperationERSt6vectorIcSaIcEE
libadios2_core.so.2:_ZNK6adios26format7BPBlosc14UpdateMetadataERKNS_4core8VariableIjEERKNS4_4InfoERKNS2_12VariableBase9OperationERSt6vectorIcSaIcEE
libadios2_core.so.2:_ZNK6adios26format7BPBlosc14UpdateMetadataERKNS_4core8VariableIlEERKNS4_4InfoERKNS2_12VariableBase9OperationERSt6vectorIcSaIcEE
libadios2_core.so.2:_ZNK6adios26format7BPBlosc14UpdateMetadataERKNS_4core8VariableImEERKNS4_4InfoERKNS2_12VariableBase9OperationERSt6vectorIcSaIcEE
libadios2_core.so.2:_ZNK6adios26format7BPBlosc14UpdateMetadataERKNS_4core8VariableIsEERKNS4_4InfoERKNS2_12VariableBase9OperationERSt6vectorIcSaIcEE
libadios2_core.so.2:_ZNK6adios26format7BPBlosc14UpdateMetadataERKNS_4core8VariableItEERKNS4_4InfoERKNS2_12VariableBase9OperationERSt6vectorIcSaIcEE
libadios2_core.so.2:_ZNK6adios26format7BPBlosc7GetDataEPKcRKNS_6helper18BlockOperationInfoEPc
libadios2_core.so.2:_ZNK6adios26format7BPBlosc7SetDataERKNS_4core8VariableISt7complexIdEEERKNS6_4InfoERKNS2_12VariableBase9OperationERNS0_9BufferSTLE
libadios2_core.so.2:_ZNK6adios26format7BPBlosc7SetDataERKNS_4core8VariableISt7complexIfEEERKNS6_4InfoERKNS2_12VariableBase9OperationERNS0_9BufferSTLE
libadios2_core.so.2:_ZNK6adios26format7BPBlosc7SetDataERKNS_4core8VariableIaEERKNS4_4InfoERKNS2_12VariableBase9OperationERNS0_9BufferSTLE
libadios2_core.so.2:_ZNK6adios26format7BPBlosc7SetDataERKNS_4core8VariableIdEERKNS4_4InfoERKNS2_12VariableBase9OperationERNS0_9BufferSTLE
libadios2_core.so.2:_ZNK6adios26format7BPBlosc7SetDataERKNS_4core8VariableIeEERKNS4_4InfoERKNS2_12VariableBase9OperationERNS0_9BufferSTLE
libadios2_core.so.2:_ZNK6adios26format7BPBlosc7SetDataERKNS_4core8VariableIfEERKNS4_4InfoERKNS2_12VariableBase9OperationERNS0_9BufferSTLE
libadios2_core.so.2:_ZNK6adios26format7BPBlosc7SetDataERKNS_4core8VariableIhEERKNS4_4InfoERKNS2_12VariableBase9OperationERNS0_9BufferSTLE
libadios2_core.so.2:_ZNK6adios26format7BPBlosc7SetDataERKNS_4core8VariableIiEERKNS4_4InfoERKNS2_12VariableBase9OperationERNS0_9BufferSTLE
libadios2_core.so.2:_ZNK6adios26format7BPBlosc7SetDataERKNS_4core8VariableIjEERKNS4_4InfoERKNS2_12VariableBase9OperationERNS0_9BufferSTLE
libadios2_core.so.2:_ZNK6adios26format7BPBlosc7SetDataERKNS_4core8VariableIlEERKNS4_4InfoERKNS2_12VariableBase9OperationERNS0_9BufferSTLE
libadios2_core.so.2:_ZNK6adios26format7BPBlosc7SetDataERKNS_4core8VariableImEERKNS4_4InfoERKNS2_12VariableBase9OperationERNS0_9BufferSTLE
libadios2_core.so.2:_ZNK6adios26format7BPBlosc7SetDataERKNS_4core8VariableIsEERKNS4_4InfoERKNS2_12VariableBase9OperationERNS0_9BufferSTLE
libadios2_core.so.2:_ZNK6adios26format7BPBlosc7SetDataERKNS_4core8VariableItEERKNS4_4InfoERKNS2_12VariableBase9OperationERNS0_9BufferSTLE
libadios2_core.so.2:_ZNK6adios26format7BPMGARD11GetMetadataERKSt6vectorIcSaIcEERSt3mapINSt7__cxx1112basic_stringIcSt11char_traitsIcES3_EESC_St4lessISC_ESaISt4pairIKSC_SC_EEE
libadios2_core.so.2:_ZNK6adios26format7BPMGARD11SetMetadataERKNS_4core8VariableIdEERKNS4_4InfoERKNS2_12VariableBase9OperationERSt6vectorIcSaIcEE
libadios2_core.so.2:_ZNK6adios26format7BPMGARD14UpdateMetadataERKNS_4core8VariableIdEERKNS4_4InfoERKNS2_12VariableBase9OperationERSt6vectorIcSaIcEE
libadios2_core.so.2:_ZNK6adios26format7BPMGARD7GetDataEPKcRKNS_6helper18BlockOperationInfoEPc
libadios2_core.so.2:_ZNK6adios26format7BPMGARD7SetDataERKNS_4core8VariableIdEERKNS4_4InfoERKNS2_12VariableBase9OperationERNS0_9BufferSTLE
libadios2_core.so.2:_ZNK6adios26format9BufferSTL12DebugGetSizeEv
libadios2_core.so.2:_ZNK6adios26format9BufferSTL16GetAvailableSizeEv
libadios2_core.so.2:_ZNK6adios26format9BufferSTL4DataEv
libadios2_core.so.2:_ZNK6adios26helper13CommImplDummy10AllgathervEPKvmNS0_8CommImpl8DatatypeEPvPKmS8_S5_RKNSt7__cxx1112basic_stringIcSt11char_traitsIcESaIcEEE
libadios2_core.so.2:_ZNK6adios26helper13CommImplDummy10GroupByShmERKNSt7__cxx1112basic_stringIcSt11char_traitsIcESaIcEEE
libadios2_core.so.2:_ZNK6adios26helper13CommImplDummy13ReduceInPlaceEPvmNS0_8CommImpl8DatatypeENS0_4Comm2OpEiRKNSt7__cxx1112basic_stringIcSt11char_traitsIcESaIcEEE
libadios2_core.so.2:_ZNK6adios26helper13CommImplDummy4RankEv
libadios2_core.so.2:_ZNK6adios26helper13CommImplDummy4RecvEPvmNS0_8CommImpl8DatatypeEiiRKNSt7__cxx1112basic_stringIcSt11char_traitsIcESaIcEEE
libadios2_core.so.2:_ZNK6adios26helper13CommImplDummy4SendEPKvmNS0_8CommImpl8DatatypeEiiRKNSt7__cxx1112basic_stringIcSt11char_traitsIcESaIcEEE
libadios2_core.so.2:_ZNK6adios26helper13CommImplDummy4SizeEv
libadios2_core.so.2:_ZNK6adios26helper13CommImplDummy5BcastEPvmNS0_8CommImpl8DatatypeEiRKNSt7__cxx1112basic_stringIcSt11char_traitsIcESaIcEEE
libadios2_core.so.2:_ZNK6adios26helper13CommImplDummy5IrecvEPvmNS0_8CommImpl8DatatypeEiiRKNSt7__cxx1112basic_stringIcSt11char_traitsIcESaIcEEE
libadios2_core.so.2:_ZNK6adios26helper13CommImplDummy5IsMPIEv
libadios2_core.so.2:_ZNK6adios26helper13CommImplDummy5IsendEPKvmNS0_8CommImpl8DatatypeEiiRKNSt7__cxx1112basic_stringIcSt11char_traitsIcESaIcEEE
libadios2_core.so.2:_ZNK6adios26helper13CommImplDummy5SplitEiiRKNSt7__cxx1112basic_stringIcSt11char_traitsIcESaIcEEE
libadios2_core.so.2:_ZNK6adios26helper13CommImplDummy5WorldERKNSt7__cxx1112basic_stringIcSt11char_traitsIcESaIcEEE
libadios2_core.so.2:_ZNK6adios26helper13CommImplDummy6GatherEPKvmNS0_8CommImpl8DatatypeEPvmS5_iRKNSt7__cxx1112basic_stringIcSt11char_traitsIcESaIcEEE
libadios2_core.so.2:_ZNK6adios26helper13CommImplDummy6ReduceEPKvPvmNS0_8CommImpl8DatatypeENS0_4Comm2OpEiRKNSt7__cxx1112basic_stringIcSt11char_traitsIcESaIcEEE
libadios2_core.so.2:_ZNK6adios26helper13CommImplDummy7BarrierERKNSt7__cxx1112basic_stringIcSt11char_traitsIcESaIcEEE
libadios2_core.so.2:_ZNK6adios26helper13CommImplDummy7GathervEPKvmNS0_8CommImpl8DatatypeEPvPKmS8_S5_iRKNSt7__cxx1112basic_stringIcSt11char_traitsIcESaIcEEE
libadios2_core.so.2:_ZNK6adios26helper13CommImplDummy7ScatterEPKvmNS0_8CommImpl8DatatypeEPvmS5_iRKNSt7__cxx1112basic_stringIcSt11char_traitsIcESaIcEEE
libadios2_core.so.2:_ZNK6adios26helper13CommImplDummy9AllgatherEPKvmNS0_8CommImpl8DatatypeEPvmS5_RKNSt7__cxx1112basic_stringIcSt11char_traitsIcESaIcEEE
libadios2_core.so.2:_ZNK6adios26helper13CommImplDummy9AllreduceEPKvPvmNS0_8CommImpl8DatatypeENS0_4Comm2OpERKNSt7__cxx1112basic_stringIcSt11char_traitsIcESaIcEEE
libadios2_core.so.2:_ZNK6adios26helper13CommImplDummy9DuplicateERKNSt7__cxx1112basic_stringIcSt11char_traitsIcESaIcEEE
libadios2_core.so.2:_ZNK6adios26helper4Comm10GroupByShmERKNSt7__cxx1112basic_stringIcSt11char_traitsIcESaIcEEE
libadios2_core.so.2:_ZNK6adios26helper4Comm13BroadcastFileERKNSt7__cxx1112basic_stringIcSt11char_traitsIcESaIcEEES7_i
libadios2_core.so.2:_ZNK6adios26helper4Comm14BroadcastValueINSt7__cxx1112basic_stringIcSt11char_traitsIcESaIcEEEEET_RKS9_i
libadios2_core.so.2:_ZNK6adios26helper4Comm4RankEv
libadios2_core.so.2:_ZNK6adios26helper4Comm4SizeEv
libadios2_core.so.2:_ZNK6adios26helper4Comm5IsMPIEv
libadios2_core.so.2:_ZNK6adios26helper4Comm5SplitEiiRKNSt7__cxx1112basic_stringIcSt11char_traitsIcESaIcEEE
libadios2_core.so.2:_ZNK6adios26helper4Comm5WorldERKNSt7__cxx1112basic_stringIcSt11char_traitsIcESaIcEEE
libadios2_core.so.2:_ZNK6adios26helper4Comm7BarrierERKNSt7__cxx1112basic_stringIcSt11char_traitsIcESaIcEEE
libadios2_core.so.2:_ZNK6adios26helper4Comm9DuplicateERKNSt7__cxx1112basic_stringIcSt11char_traitsIcESaIcEEE
libadios2_core.so.2:_ZNK6adios27interop10HDF5Common12GetAdiosStepEv
libadios2_core.so.2:_ZNK6adios29Transport9CheckNameEv
libadios2_core.so.2:_ZNK6adios29profiling5Timer13GetShortUnitsB5cxx11Ev
libadios2_core.so.2:_ZNK6adios29transport10ShmSystemV10CheckShmIDENSt7__cxx1112basic_stringIcSt11char_traitsIcESaIcEEE
libadios2_core.so.2:_ZNK6adios29transport10ShmSystemV10CheckSizesEmmNSt7__cxx1112basic_stringIcSt11char_traitsIcESaIcEEE
libadios2_core.so.2:_ZNK6adios29transport10ShmSystemV11CheckBufferENSt7__cxx1112basic_stringIcSt11char_traitsIcESaIcEEE
libadios2_core.so.2:_ZNK6adios29transport11FileFStream9CheckFileENSt7__cxx1112basic_stringIcSt11char_traitsIcESaIcEEE
libadios2_core.so.2:_ZNK6adios29transport13NullTransport9CheckNameEv
libadios2_core.so.2:_ZNK6adios29transport9FilePOSIX9CheckFileENSt7__cxx1112basic_stringIcSt11char_traitsIcESaIcEEE
libadios2_core.so.2:_ZNK6adios29transport9FilePOSIX9SysErrMsgB5cxx11Ev
libadios2_core.so.2:_ZNK6adios29transport9FileStdio9CheckFileENSt7__cxx1112basic_stringIcSt11char_traitsIcESaIcEEE
libadios2_core.so.2:_ZNK9adios2sys17RegularExpression10deep_equalERKS0_
libadios2_core.so.2:_ZNK9adios2sys17RegularExpression4findEPKcRNS_22RegularExpressionMatchE
libadios2_core.so.2:_ZNK9adios2sys17RegularExpressioneqERKS0_
libadios2_core.so.2:_ZNK9adios2sys8Encoding20CommandLineArguments4argcEv
libadios2_core.so.2:_ZNK9adios2sys8Encoding20CommandLineArguments4argvEv
libadios2_core.so.2:_ZNK9adios2sys9Directory16GetNumberOfFilesEv
libadios2_core.so.2:_ZNK9adios2sys9Directory7GetFileEm
libadios2_core.so.2:_ZNK9adios2sys9Directory7GetPathEv
libadios2_core.so.2:_ZThn160_N6adios26format13BP4Serializer19SerializeDataBufferERNS_4core2IOE
libadios2_core.so.2:_ZThn160_N6adios26format13BP4Serializer20DoPutAttributeInDataERKNS_4core9AttributeINSt7__cxx1112basic_stringIcSt11char_traitsIcESaIcEEEEERNS0_6BPBase5StatsIS9_EE
libadios2_core.so.2:_ZThn160_N6adios26format13BP4Serializer20DoPutAttributeInDataERKNS_4core9AttributeISt7complexIdEEERNS0_6BPBase5StatsIS5_EE
libadios2_core.so.2:_ZThn160_N6adios26format13BP4Serializer20DoPutAttributeInDataERKNS_4core9AttributeISt7complexIfEEERNS0_6BPBase5StatsIS5_EE
libadios2_core.so.2:_ZThn160_N6adios26format13BP4Serializer20DoPutAttributeInDataERKNS_4core9AttributeIaEERNS0_6BPBase5StatsIaEE
libadios2_core.so.2:_ZThn160_N6adios26format13BP4Serializer20DoPutAttributeInDataERKNS_4core9AttributeIdEERNS0_6BPBase5StatsIdEE
libadios2_core.so.2:_ZThn160_N6adios26format13BP4Serializer20DoPutAttributeInDataERKNS_4core9AttributeIeEERNS0_6BPBase5StatsIeEE
libadios2_core.so.2:_ZThn160_N6adios26format13BP4Serializer20DoPutAttributeInDataERKNS_4core9AttributeIfEERNS0_6BPBase5StatsIfEE
libadios2_core.so.2:_ZThn160_N6adios26format13BP4Serializer20DoPutAttributeInDataERKNS_4core9AttributeIhEERNS0_6BPBase5StatsIhEE
libadios2_core.so.2:_ZThn160_N6adios26format13BP4Serializer20DoPutAttributeInDataERKNS_4core9AttributeIiEERNS0_6BPBase5StatsIiEE
libadios2_core.so.2:_ZThn160_N6adios26format13BP4Serializer20DoPutAttributeInDataERKNS_4core9AttributeIjEERNS0_6BPBase5StatsIjEE
libadios2_core.so.2:_ZThn160_N6adios26format13BP4Serializer20DoPutAttributeInDataERKNS_4core9AttributeIlEERNS0_6BPBase5StatsIlEE
libadios2_core.so.2:_ZThn160_N6adios26format13BP4Serializer20DoPutAttributeInDataERKNS_4core9AttributeImEERNS0_6BPBase5StatsImEE
libadios2_core.so.2:_ZThn160_N6adios26format13BP4Serializer20DoPutAttributeInDataERKNS_4core9AttributeIsEERNS0_6BPBase5StatsIsEE
libadios2_core.so.2:_ZThn160_N6adios26format13BP4Serializer20DoPutAttributeInDataERKNS_4core9AttributeItEERNS0_6BPBase5StatsItEE
libadios2_core.so.2:_ZThn8_N6adios26format13BP3Serializer19SerializeDataBufferERNS_4core2IOE
libadios2_core.so.2:_ZThn8_N6adios26format13BP3Serializer20DoPutAttributeInDataERKNS_4core9AttributeINSt7__cxx1112basic_stringIcSt11char_traitsIcESaIcEEEEERNS0_6BPBase5StatsIS9_EE
libadios2_core.so.2:_ZThn8_N6adios26format13BP3Serializer20DoPutAttributeInDataERKNS_4core9AttributeISt7complexIdEEERNS0_6BPBase5StatsIS5_EE
libadios2_core.so.2:_ZThn8_N6adios26format13BP3Serializer20DoPutAttributeInDataERKNS_4core9AttributeISt7complexIfEEERNS0_6BPBase5StatsIS5_EE
libadios2_core.so.2:_ZThn8_N6adios26format13BP3Serializer20DoPutAttributeInDataERKNS_4core9AttributeIaEERNS0_6BPBase5StatsIaEE
libadios2_core.so.2:_ZThn8_N6adios26format13BP3Serializer20DoPutAttributeInDataERKNS_4core9AttributeIdEERNS0_6BPBase5StatsIdEE
libadios2_core.so.2:_ZThn8_N6adios26format13BP3Serializer20DoPutAttributeInDataERKNS_4core9AttributeIeEERNS0_6BPBase5StatsIeEE
libadios2_core.so.2:_ZThn8_N6adios26format13BP3Serializer20DoPutAttributeInDataERKNS_4core9AttributeIfEERNS0_6BPBase5StatsIfEE
libadios2_core.so.2:_ZThn8_N6adios26format13BP3Serializer20DoPutAttributeInDataERKNS_4core9AttributeIhEERNS0_6BPBase5StatsIhEE
libadios2_core.so.2:_ZThn8_N6adios26format13BP3Serializer20DoPutAttributeInDataERKNS_4core9AttributeIiEERNS0_6BPBase5StatsIiEE
libadios2_core.so.2:_ZThn8_N6adios26format13BP3Serializer20DoPutAttributeInDataERKNS_4core9AttributeIjEERNS0_6BPBase5StatsIjEE
libadios2_core.so.2:_ZThn8_N6adios26format13BP3Serializer20DoPutAttributeInDataERKNS_4core9AttributeIlEERNS0_6BPBase5StatsIlEE
libadios2_core.so.2:_ZThn8_N6adios26format13BP3Serializer20DoPutAttributeInDataERKNS_4core9AttributeImEERNS0_6BPBase5StatsImEE
libadios2_core.so.2:_ZThn8_N6adios26format13BP3Serializer20DoPutAttributeInDataERKNS_4core9AttributeIsEERNS0_6BPBase5StatsIsEE
libadios2_core.so.2:_ZThn8_N6adios26format13BP3Serializer20DoPutAttributeInDataERKNS_4core9AttributeItEERNS0_6BPBase5StatsItEE
libadios2_core.so.2:_ZTv0_n32_NK6adios26format7BP3Base22ReadElementIndexHeaderERKSt6vectorIcSaIcEERmb
libadios2_core.so.2:_ZTv0_n32_NK6adios26format7BP4Base22ReadElementIndexHeaderERKSt6vectorIcSaIcEERmb
libadios2_core.so.2:__bss_start
libadios2_core.so.2:_edata
libadios2_core.so.2:_end
libadios2_core.so.2:adios2sysEncoding_DupToNarrow
libadios2_core.so.2:adios2sysEncoding_DupToWide
libadios2_core.so.2:adios2sysEncoding_mbstowcs
libadios2_core.so.2:adios2sysEncoding_wcstombs
libadios2_core.so.2:dcomplex_field_list
libadios2_core.so.2:fcomplex_field_list
libadios2_core.so.2:getPeerArrays
libadios2_core.so.2:globalNetinfoCallback
libadios2_core.so.2:queueReaderRegisterMsgAndNotify
libadios2_core.so.2:queueTimestepMetadataMsgAndNotify
libadios2_core.so.2:sendOneToEachReaderRank
libadios2_core.so.2:sendOneToWSRCohort
libadios2_core.so.2:ts_mutex
libadios2_core.so.2:wsr_mutex
libadios2_cxx11.so.2:_ZN4pugi10xpath_nodeC1ERKNS_13xml_attributeERKNS_8xml_nodeE
libadios2_cxx11.so.2:_ZN4pugi10xpath_nodeC1ERKNS_8xml_nodeE
libadios2_cxx11.so.2:_ZN4pugi10xpath_nodeC1Ev
libadios2_cxx11.so.2:_ZN4pugi10xpath_nodeC2ERKNS_13xml_attributeERKNS_8xml_nodeE
libadios2_cxx11.so.2:_ZN4pugi10xpath_nodeC2ERKNS_8xml_nodeE
libadios2_cxx11.so.2:_ZN4pugi10xpath_nodeC2Ev
libadios2_cxx11.so.2:_ZN4pugi11xpath_queryC1EOS0_
libadios2_cxx11.so.2:_ZN4pugi11xpath_queryC1EPKcPNS_18xpath_variable_setE
libadios2_cxx11.so.2:_ZN4pugi11xpath_queryC1Ev
libadios2_cxx11.so.2:_ZN4pugi11xpath_queryC2EOS0_
libadios2_cxx11.so.2:_ZN4pugi11xpath_queryC2EPKcPNS_18xpath_variable_setE
libadios2_cxx11.so.2:_ZN4pugi11xpath_queryC2Ev
libadios2_cxx11.so.2:_ZN4pugi11xpath_queryD1Ev
libadios2_cxx11.so.2:_ZN4pugi11xpath_queryD2Ev
libadios2_cxx11.so.2:_ZN4pugi11xpath_queryaSEOS0_
libadios2_cxx11.so.2:_ZN4pugi12xml_document11load_bufferEPKvmjNS_12xml_encodingE
libadios2_cxx11.so.2:_ZN4pugi12xml_document11load_stringEPKcj
libadios2_cxx11.so.2:_ZN4pugi12xml_document19load_buffer_inplaceEPvmjNS_12xml_encodingE
libadios2_cxx11.so.2:_ZN4pugi12xml_document23load_buffer_inplace_ownEPvmjNS_12xml_encodingE
libadios2_cxx11.so.2:_ZN4pugi12xml_document4loadEPKcj
libadios2_cxx11.so.2:_ZN4pugi12xml_document4loadERSijNS_12xml_encodingE
libadios2_cxx11.so.2:_ZN4pugi12xml_document4loadERSt13basic_istreamIwSt11char_traitsIwEEj
libadios2_cxx11.so.2:_ZN4pugi12xml_document5_moveERS0_
libadios2_cxx11.so.2:_ZN4pugi12xml_document5resetERKS0_
libadios2_cxx11.so.2:_ZN4pugi12xml_document5resetEv
libadios2_cxx11.so.2:_ZN4pugi12xml_document7_createEv
libadios2_cxx11.so.2:_ZN4pugi12xml_document8_destroyEv
libadios2_cxx11.so.2:_ZN4pugi12xml_document9load_fileEPKcjNS_12xml_encodingE
libadios2_cxx11.so.2:_ZN4pugi12xml_document9load_fileEPKwjNS_12xml_encodingE
libadios2_cxx11.so.2:_ZN4pugi12xml_documentC1EOS0_
libadios2_cxx11.so.2:_ZN4pugi12xml_documentC1Ev
libadios2_cxx11.so.2:_ZN4pugi12xml_documentC2EOS0_
libadios2_cxx11.so.2:_ZN4pugi12xml_documentC2Ev
libadios2_cxx11.so.2:_ZN4pugi12xml_documentD1Ev
libadios2_cxx11.so.2:_ZN4pugi12xml_documentD2Ev
libadios2_cxx11.so.2:_ZN4pugi12xml_documentaSEOS0_
libadios2_cxx11.so.2:_ZN4pugi13xml_attribute8set_nameEPKc
libadios2_cxx11.so.2:_ZN4pugi13xml_attribute9set_valueEPKc
libadios2_cxx11.so.2:_ZN4pugi13xml_attribute9set_valueEb
libadios2_cxx11.so.2:_ZN4pugi13xml_attribute9set_valueEd
libadios2_cxx11.so.2:_ZN4pugi13xml_attribute9set_valueEdi
libadios2_cxx11.so.2:_ZN4pugi13xml_attribute9set_valueEf
libadios2_cxx11.so.2:_ZN4pugi13xml_attribute9set_valueEfi
libadios2_cxx11.so.2:_ZN4pugi13xml_attribute9set_valueEi
libadios2_cxx11.so.2:_ZN4pugi13xml_attribute9set_valueEj
libadios2_cxx11.so.2:_ZN4pugi13xml_attribute9set_valueEl
libadios2_cxx11.so.2:_ZN4pugi13xml_attribute9set_valueEm
libadios2_cxx11.so.2:_ZN4pugi13xml_attribute9set_valueEx
libadios2_cxx11.so.2:_ZN4pugi13xml_attribute9set_valueEy
libadios2_cxx11.so.2:_ZN4pugi13xml_attributeC1EPNS_20xml_attribute_structE
libadios2_cxx11.so.2:_ZN4pugi13xml_attributeC1Ev
libadios2_cxx11.so.2:_ZN4pugi13xml_attributeC2EPNS_20xml_attribute_structE
libadios2_cxx11.so.2:_ZN4pugi13xml_attributeC2Ev
libadios2_cxx11.so.2:_ZN4pugi13xml_attributeaSEPKc
libadios2_cxx11.so.2:_ZN4pugi13xml_attributeaSEb
libadios2_cxx11.so.2:_ZN4pugi13xml_attributeaSEd
libadios2_cxx11.so.2:_ZN4pugi13xml_attributeaSEf
libadios2_cxx11.so.2:_ZN4pugi13xml_attributeaSEi
libadios2_cxx11.so.2:_ZN4pugi13xml_attributeaSEj
libadios2_cxx11.so.2:_ZN4pugi13xml_attributeaSEl
libadios2_cxx11.so.2:_ZN4pugi13xml_attributeaSEm
libadios2_cxx11.so.2:_ZN4pugi13xml_attributeaSEx
libadios2_cxx11.so.2:_ZN4pugi13xml_attributeaSEy
libadios2_cxx11.so.2:_ZN4pugi14xpath_node_set4sortEb
libadios2_cxx11.so.2:_ZN4pugi14xpath_node_set5_moveERS0_
libadios2_cxx11.so.2:_ZN4pugi14xpath_node_set7_assignEPKNS_10xpath_nodeES3_NS0_6type_tE
libadios2_cxx11.so.2:_ZN4pugi14xpath_node_setC1EOS0_
libadios2_cxx11.so.2:_ZN4pugi14xpath_node_setC1EPKNS_10xpath_nodeES3_NS0_6type_tE
libadios2_cxx11.so.2:_ZN4pugi14xpath_node_setC1ERKS0_
libadios2_cxx11.so.2:_ZN4pugi14xpath_node_setC1Ev
libadios2_cxx11.so.2:_ZN4pugi14xpath_node_setC2EOS0_
libadios2_cxx11.so.2:_ZN4pugi14xpath_node_setC2EPKNS_10xpath_nodeES3_NS0_6type_tE
libadios2_cxx11.so.2:_ZN4pugi14xpath_node_setC2ERKS0_
libadios2_cxx11.so.2:_ZN4pugi14xpath_node_setC2Ev
libadios2_cxx11.so.2:_ZN4pugi14xpath_node_setD1Ev
libadios2_cxx11.so.2:_ZN4pugi14xpath_node_setD2Ev
libadios2_cxx11.so.2:_ZN4pugi14xpath_node_setaSEOS0_
libadios2_cxx11.so.2:_ZN4pugi14xpath_node_setaSERKS0_
libadios2_cxx11.so.2:_ZN4pugi14xpath_variable3setEPKc
libadios2_cxx11.so.2:_ZN4pugi14xpath_variable3setERKNS_14xpath_node_setE
libadios2_cxx11.so.2:_ZN4pugi14xpath_variable3setEb
libadios2_cxx11.so.2:_ZN4pugi14xpath_variable3setEd
libadios2_cxx11.so.2:_ZN4pugi14xpath_variableC1ENS_16xpath_value_typeE
libadios2_cxx11.so.2:_ZN4pugi14xpath_variableC2ENS_16xpath_value_typeE
libadios2_cxx11.so.2:_ZN4pugi15xml_tree_walker3endERNS_8xml_nodeE
libadios2_cxx11.so.2:_ZN4pugi15xml_tree_walker5beginERNS_8xml_nodeE
libadios2_cxx11.so.2:_ZN4pugi15xml_tree_walkerC1Ev
libadios2_cxx11.so.2:_ZN4pugi15xml_tree_walkerC2Ev
libadios2_cxx11.so.2:_ZN4pugi15xml_tree_walkerD0Ev
libadios2_cxx11.so.2:_ZN4pugi15xml_tree_walkerD1Ev
libadios2_cxx11.so.2:_ZN4pugi15xml_tree_walkerD2Ev
libadios2_cxx11.so.2:_ZN4pugi15xml_writer_file5writeEPKvm
libadios2_cxx11.so.2:_ZN4pugi15xml_writer_fileC1EPv
libadios2_cxx11.so.2:_ZN4pugi15xml_writer_fileC2EPv
libadios2_cxx11.so.2:_ZN4pugi15xpath_exceptionC1ERKNS_18xpath_parse_resultE
libadios2_cxx11.so.2:_ZN4pugi15xpath_exceptionC2ERKNS_18xpath_parse_resultE
libadios2_cxx11.so.2:_ZN4pugi16xml_parse_resultC1Ev
libadios2_cxx11.so.2:_ZN4pugi16xml_parse_resultC2Ev
libadios2_cxx11.so.2:_ZN4pugi17xml_node_iteratorC1EPNS_15xml_node_structES2_
libadios2_cxx11.so.2:_ZN4pugi17xml_node_iteratorC1ERKNS_8xml_nodeE
libadios2_cxx11.so.2:_ZN4pugi17xml_node_iteratorC1Ev
libadios2_cxx11.so.2:_ZN4pugi17xml_node_iteratorC2EPNS_15xml_node_structES2_
libadios2_cxx11.so.2:_ZN4pugi17xml_node_iteratorC2ERKNS_8xml_nodeE
libadios2_cxx11.so.2:_ZN4pugi17xml_node_iteratorC2Ev
libadios2_cxx11.so.2:_ZN4pugi17xml_node_iteratormmEi
libadios2_cxx11.so.2:_ZN4pugi17xml_node_iteratormmEv
libadios2_cxx11.so.2:_ZN4pugi17xml_node_iteratorppEi
libadios2_cxx11.so.2:_ZN4pugi17xml_node_iteratorppEv
libadios2_cxx11.so.2:_ZN4pugi17xml_writer_stream5writeEPKvm
libadios2_cxx11.so.2:_ZN4pugi17xml_writer_streamC1ERSo
libadios2_cxx11.so.2:_ZN4pugi17xml_writer_streamC1ERSt13basic_ostreamIwSt11char_traitsIwEE
libadios2_cxx11.so.2:_ZN4pugi17xml_writer_streamC2ERSo
libadios2_cxx11.so.2:_ZN4pugi17xml_writer_streamC2ERSt13basic_ostreamIwSt11char_traitsIwEE
libadios2_cxx11.so.2:_ZN4pugi18xpath_parse_resultC1Ev
libadios2_cxx11.so.2:_ZN4pugi18xpath_parse_resultC2Ev
libadios2_cxx11.so.2:_ZN4pugi18xpath_variable_set3addEPKcNS_16xpath_value_typeE
libadios2_cxx11.so.2:_ZN4pugi18xpath_variable_set3getEPKc
libadios2_cxx11.so.2:_ZN4pugi18xpath_variable_set3setEPKcRKNS_14xpath_node_setE
libadios2_cxx11.so.2:_ZN4pugi18xpath_variable_set3setEPKcS2_
libadios2_cxx11.so.2:_ZN4pugi18xpath_variable_set3setEPKcb
libadios2_cxx11.so.2:_ZN4pugi18xpath_variable_set3setEPKcd
libadios2_cxx11.so.2:_ZN4pugi18xpath_variable_set5_swapERS0_
libadios2_cxx11.so.2:_ZN4pugi18xpath_variable_set6_cloneEPNS_14xpath_variableEPS2_
libadios2_cxx11.so.2:_ZN4pugi18xpath_variable_set7_assignERKS0_
libadios2_cxx11.so.2:_ZN4pugi18xpath_variable_set8_destroyEPNS_14xpath_variableE
libadios2_cxx11.so.2:_ZN4pugi18xpath_variable_setC1EOS0_
libadios2_cxx11.so.2:_ZN4pugi18xpath_variable_setC1ERKS0_
libadios2_cxx11.so.2:_ZN4pugi18xpath_variable_setC1Ev
libadios2_cxx11.so.2:_ZN4pugi18xpath_variable_setC2EOS0_
libadios2_cxx11.so.2:_ZN4pugi18xpath_variable_setC2ERKS0_
libadios2_cxx11.so.2:_ZN4pugi18xpath_variable_setC2Ev
libadios2_cxx11.so.2:_ZN4pugi18xpath_variable_setD1Ev
libadios2_cxx11.so.2:_ZN4pugi18xpath_variable_setD2Ev
libadios2_cxx11.so.2:_ZN4pugi18xpath_variable_setaSEOS0_
libadios2_cxx11.so.2:_ZN4pugi18xpath_variable_setaSERKS0_
libadios2_cxx11.so.2:_ZN4pugi22xml_attribute_iteratorC1EPNS_20xml_attribute_structEPNS_15xml_node_structE
libadios2_cxx11.so.2:_ZN4pugi22xml_attribute_iteratorC1ERKNS_13xml_attributeERKNS_8xml_nodeE
libadios2_cxx11.so.2:_ZN4pugi22xml_attribute_iteratorC1Ev
libadios2_cxx11.so.2:_ZN4pugi22xml_attribute_iteratorC2EPNS_20xml_attribute_structEPNS_15xml_node_structE
libadios2_cxx11.so.2:_ZN4pugi22xml_attribute_iteratorC2ERKNS_13xml_attributeERKNS_8xml_nodeE
libadios2_cxx11.so.2:_ZN4pugi22xml_attribute_iteratorC2Ev
libadios2_cxx11.so.2:_ZN4pugi22xml_attribute_iteratormmEi
libadios2_cxx11.so.2:_ZN4pugi22xml_attribute_iteratormmEv
libadios2_cxx11.so.2:_ZN4pugi22xml_attribute_iteratorppEi
libadios2_cxx11.so.2:_ZN4pugi22xml_attribute_iteratorppEv
libadios2_cxx11.so.2:_ZN4pugi23xml_named_node_iteratorC1EPNS_15xml_node_structES2_PKc
libadios2_cxx11.so.2:_ZN4pugi23xml_named_node_iteratorC1ERKNS_8xml_nodeEPKc
libadios2_cxx11.so.2:_ZN4pugi23xml_named_node_iteratorC1Ev
libadios2_cxx11.so.2:_ZN4pugi23xml_named_node_iteratorC2EPNS_15xml_node_structES2_PKc
libadios2_cxx11.so.2:_ZN4pugi23xml_named_node_iteratorC2ERKNS_8xml_nodeEPKc
libadios2_cxx11.so.2:_ZN4pugi23xml_named_node_iteratorC2Ev
libadios2_cxx11.so.2:_ZN4pugi23xml_named_node_iteratormmEi
libadios2_cxx11.so.2:_ZN4pugi23xml_named_node_iteratormmEv
libadios2_cxx11.so.2:_ZN4pugi23xml_named_node_iteratorppEi
libadios2_cxx11.so.2:_ZN4pugi23xml_named_node_iteratorppEv
libadios2_cxx11.so.2:_ZN4pugi30get_memory_allocation_functionEv
libadios2_cxx11.so.2:_ZN4pugi31set_memory_management_functionsEPFPvmEPFvS0_E
libadios2_cxx11.so.2:_ZN4pugi32get_memory_deallocation_functionEv
libadios2_cxx11.so.2:_ZN4pugi7as_utf8B5cxx11EPKw
libadios2_cxx11.so.2:_ZN4pugi7as_utf8ERKNSt7__cxx1112basic_stringIwSt11char_traitsIwESaIwEEE
libadios2_cxx11.so.2:_ZN4pugi7as_wideB5cxx11EPKc
libadios2_cxx11.so.2:_ZN4pugi7as_wideERKNSt7__cxx1112basic_stringIcSt11char_traitsIcESaIcEEE
libadios2_cxx11.so.2:_ZN4pugi8xml_node11append_copyERKNS_13xml_attributeE
libadios2_cxx11.so.2:_ZN4pugi8xml_node11append_copyERKS0_
libadios2_cxx11.so.2:_ZN4pugi8xml_node11append_moveERKS0_
libadios2_cxx11.so.2:_ZN4pugi8xml_node12append_childENS_13xml_node_typeE
libadios2_cxx11.so.2:_ZN4pugi8xml_node12append_childEPKc
libadios2_cxx11.so.2:_ZN4pugi8xml_node12prepend_copyERKNS_13xml_attributeE
libadios2_cxx11.so.2:_ZN4pugi8xml_node12prepend_copyERKS0_
libadios2_cxx11.so.2:_ZN4pugi8xml_node12prepend_moveERKS0_
libadios2_cxx11.so.2:_ZN4pugi8xml_node12remove_childEPKc
libadios2_cxx11.so.2:_ZN4pugi8xml_node12remove_childERKS0_
libadios2_cxx11.so.2:_ZN4pugi8xml_node13append_bufferEPKvmjNS_12xml_encodingE
libadios2_cxx11.so.2:_ZN4pugi8xml_node13prepend_childENS_13xml_node_typeE
libadios2_cxx11.so.2:_ZN4pugi8xml_node13prepend_childEPKc
libadios2_cxx11.so.2:_ZN4pugi8xml_node15remove_childrenEv
libadios2_cxx11.so.2:_ZN4pugi8xml_node16append_attributeEPKc
libadios2_cxx11.so.2:_ZN4pugi8xml_node16remove_attributeEPKc
libadios2_cxx11.so.2:_ZN4pugi8xml_node16remove_attributeERKNS_13xml_attributeE
libadios2_cxx11.so.2:_ZN4pugi8xml_node17insert_copy_afterERKNS_13xml_attributeES3_
libadios2_cxx11.so.2:_ZN4pugi8xml_node17insert_copy_afterERKS0_S2_
libadios2_cxx11.so.2:_ZN4pugi8xml_node17insert_move_afterERKS0_S2_
libadios2_cxx11.so.2:_ZN4pugi8xml_node17prepend_attributeEPKc
libadios2_cxx11.so.2:_ZN4pugi8xml_node17remove_attributesEv
libadios2_cxx11.so.2:_ZN4pugi8xml_node18insert_child_afterENS_13xml_node_typeERKS0_
libadios2_cxx11.so.2:_ZN4pugi8xml_node18insert_child_afterEPKcRKS0_
libadios2_cxx11.so.2:_ZN4pugi8xml_node18insert_copy_beforeERKNS_13xml_attributeES3_
libadios2_cxx11.so.2:_ZN4pugi8xml_node18insert_copy_beforeERKS0_S2_
libadios2_cxx11.so.2:_ZN4pugi8xml_node18insert_move_beforeERKS0_S2_
libadios2_cxx11.so.2:_ZN4pugi8xml_node19insert_child_beforeENS_13xml_node_typeERKS0_
libadios2_cxx11.so.2:_ZN4pugi8xml_node19insert_child_beforeEPKcRKS0_
libadios2_cxx11.so.2:_ZN4pugi8xml_node22insert_attribute_afterEPKcRKNS_13xml_attributeE
libadios2_cxx11.so.2:_ZN4pugi8xml_node23insert_attribute_beforeEPKcRKNS_13xml_attributeE
libadios2_cxx11.so.2:_ZN4pugi8xml_node8set_nameEPKc
libadios2_cxx11.so.2:_ZN4pugi8xml_node8traverseERNS_15xml_tree_walkerE
libadios2_cxx11.so.2:_ZN4pugi8xml_node9set_valueEPKc
libadios2_cxx11.so.2:_ZN4pugi8xml_nodeC1EPNS_15xml_node_structE
libadios2_cxx11.so.2:_ZN4pugi8xml_nodeC1Ev
libadios2_cxx11.so.2:_ZN4pugi8xml_nodeC2EPNS_15xml_node_structE
libadios2_cxx11.so.2:_ZN4pugi8xml_nodeC2Ev
libadios2_cxx11.so.2:_ZN4pugi8xml_text3setEPKc
libadios2_cxx11.so.2:_ZN4pugi8xml_text3setEb
libadios2_cxx11.so.2:_ZN4pugi8xml_text3setEd
libadios2_cxx11.so.2:_ZN4pugi8xml_text3setEdi
libadios2_cxx11.so.2:_ZN4pugi8xml_text3setEf
libadios2_cxx11.so.2:_ZN4pugi8xml_text3setEfi
libadios2_cxx11.so.2:_ZN4pugi8xml_text3setEi
libadios2_cxx11.so.2:_ZN4pugi8xml_text3setEj
libadios2_cxx11.so.2:_ZN4pugi8xml_text3setEl
libadios2_cxx11.so.2:_ZN4pugi8xml_text3setEm
libadios2_cxx11.so.2:_ZN4pugi8xml_text3setEx
libadios2_cxx11.so.2:_ZN4pugi8xml_text3setEy
libadios2_cxx11.so.2:_ZN4pugi8xml_text9_data_newEv
libadios2_cxx11.so.2:_ZN4pugi8xml_textC1EPNS_15xml_node_structE
libadios2_cxx11.so.2:_ZN4pugi8xml_textC1Ev
libadios2_cxx11.so.2:_ZN4pugi8xml_textC2EPNS_15xml_node_structE
libadios2_cxx11.so.2:_ZN4pugi8xml_textC2Ev
libadios2_cxx11.so.2:_ZN4pugi8xml_textaSEPKc
libadios2_cxx11.so.2:_ZN4pugi8xml_textaSEb
libadios2_cxx11.so.2:_ZN4pugi8xml_textaSEd
libadios2_cxx11.so.2:_ZN4pugi8xml_textaSEf
libadios2_cxx11.so.2:_ZN4pugi8xml_textaSEi
libadios2_cxx11.so.2:_ZN4pugi8xml_textaSEj
libadios2_cxx11.so.2:_ZN4pugi8xml_textaSEl
libadios2_cxx11.so.2:_ZN4pugi8xml_textaSEm
libadios2_cxx11.so.2:_ZN4pugi8xml_textaSEx
libadios2_cxx11.so.2:_ZN4pugi8xml_textaSEy
libadios2_cxx11.so.2:_ZN6adios211QueryWorker17GetResultCoverageERSt4pairISt6vectorImSaImEES4_ERS2_IS5_SaIS5_EE
libadios2_cxx11.so.2:_ZN6adios211QueryWorkerC1ERKNSt7__cxx1112basic_stringIcSt11char_traitsIcESaIcEEERNS_6EngineE
libadios2_cxx11.so.2:_ZN6adios211QueryWorkerC2ERKNSt7__cxx1112basic_stringIcSt11char_traitsIcESaIcEEERNS_6EngineE
libadios2_cxx11.so.2:_ZN6adios22IO12AddOperationENS_8OperatorERKSt3mapINSt7__cxx1112basic_stringIcSt11char_traitsIcESaIcEEES8_St4lessIS8_ESaISt4pairIKS8_S8_EEE
libadios2_cxx11.so.2:_ZN6adios22IO12AddTransportENSt7__cxx1112basic_stringIcSt11char_traitsIcESaIcEEERKSt3mapIS6_S6_St4lessIS6_ESaISt4pairIKS6_S6_EEE
libadios2_cxx11.so.2:_ZN6adios22IO12InquireGroupERKNSt7__cxx1112basic_stringIcSt11char_traitsIcESaIcEEEc
libadios2_cxx11.so.2:_ZN6adios22IO12SetParameterENSt7__cxx1112basic_stringIcSt11char_traitsIcESaIcEEES6_
libadios2_cxx11.so.2:_ZN6adios22IO13SetParametersERKNSt7__cxx1112basic_stringIcSt11char_traitsIcESaIcEEE
libadios2_cxx11.so.2:_ZN6adios22IO13SetParametersERKSt3mapINSt7__cxx1112basic_stringIcSt11char_traitsIcESaIcEEES7_St4lessIS7_ESaISt4pairIKS7_S7_EEE
libadios2_cxx11.so.2:_ZN6adios22IO14RemoveVariableERKNSt7__cxx1112basic_stringIcSt11char_traitsIcESaIcEEE
libadios2_cxx11.so.2:_ZN6adios22IO15ClearParametersEv
libadios2_cxx11.so.2:_ZN6adios22IO15RemoveAttributeERKNSt7__cxx1112basic_stringIcSt11char_traitsIcESaIcEEE
libadios2_cxx11.so.2:_ZN6adios22IO18AvailableVariablesB5cxx11Eb
libadios2_cxx11.so.2:_ZN6adios22IO18RemoveAllVariablesEv
libadios2_cxx11.so.2:_ZN6adios22IO19AvailableAttributesERKNSt7__cxx1112basic_stringIcSt11char_traitsIcESaIcEEES6_b
libadios2_cxx11.so.2:_ZN6adios22IO19RemoveAllAttributesEv
libadios2_cxx11.so.2:_ZN6adios22IO21SetTransportParameterEmNSt7__cxx1112basic_stringIcSt11char_traitsIcESaIcEEES6_
libadios2_cxx11.so.2:_ZN6adios22IO4OpenERKNSt7__cxx1112basic_stringIcSt11char_traitsIcESaIcEEENS_4ModeE
libadios2_cxx11.so.2:_ZN6adios22IO8FlushAllEv
libadios2_cxx11.so.2:_ZN6adios22IO9SetEngineENSt7__cxx1112basic_stringIcSt11char_traitsIcESaIcEEE
libadios2_cxx11.so.2:_ZN6adios22IOC1EPNS_4core2IOE
libadios2_cxx11.so.2:_ZN6adios22IOC2EPNS_4core2IOE
libadios2_cxx11.so.2:_ZN6adios25ADIOS12CheckPointerENSt7__cxx1112basic_stringIcSt11char_traitsIcESaIcEEE
libadios2_cxx11.so.2:_ZN6adios25ADIOS12RemoveAllIOsEv
libadios2_cxx11.so.2:_ZN6adios25ADIOS14DefineCallBackENSt7__cxx1112basic_stringIcSt11char_traitsIcESaIcEEERKSt8functionIFvPKS6_RS8_SA_SA_mRKSt6vectorImSaImEESF_SF_EERKSt3mapIS6_S6_St4lessIS6_ESaISt4pairIS8_S6_EEE
libadios2_cxx11.so.2:_ZN6adios25ADIOS14DefineCallBackENSt7__cxx1112basic_stringIcSt11char_traitsIcESaIcEEERKSt8functionIFvPKSt7complexIdERKS6_SD_SD_mRKSt6vectorImSaImEESI_SI_EERKSt3mapIS6_S6_St4lessIS6_ESaISt4pairISC_S6_EEE
libadios2_cxx11.so.2:_ZN6adios25ADIOS14DefineCallBackENSt7__cxx1112basic_stringIcSt11char_traitsIcESaIcEEERKSt8functionIFvPKSt7complexIfERKS6_SD_SD_mRKSt6vectorImSaImEESI_SI_EERKSt3mapIS6_S6_St4lessIS6_ESaISt4pairISC_S6_EEE
libadios2_cxx11.so.2:_ZN6adios25ADIOS14DefineCallBackENSt7__cxx1112basic_stringIcSt11char_traitsIcESaIcEEERKSt8functionIFvPKaRKS6_SB_SB_mRKSt6vectorImSaImEESG_SG_EERKSt3mapIS6_S6_St4lessIS6_ESaISt4pairISA_S6_EEE
libadios2_cxx11.so.2:_ZN6adios25ADIOS14DefineCallBackENSt7__cxx1112basic_stringIcSt11char_traitsIcESaIcEEERKSt8functionIFvPKcRKS6_SB_SB_mRKSt6vectorImSaImEESG_SG_EERKSt3mapIS6_S6_St4lessIS6_ESaISt4pairISA_S6_EEE
libadios2_cxx11.so.2:_ZN6adios25ADIOS14DefineCallBackENSt7__cxx1112basic_stringIcSt11char_traitsIcESaIcEEERKSt8functionIFvPKdRKS6_SB_SB_mRKSt6vectorImSaImEESG_SG_EERKSt3mapIS6_S6_St4lessIS6_ESaISt4pairISA_S6_EEE
libadios2_cxx11.so.2:_ZN6adios25ADIOS14DefineCallBackENSt7__cxx1112basic_stringIcSt11char_traitsIcESaIcEEERKSt8functionIFvPKeRKS6_SB_SB_mRKSt6vectorImSaImEESG_SG_EERKSt3mapIS6_S6_St4lessIS6_ESaISt4pairISA_S6_EEE
libadios2_cxx11.so.2:_ZN6adios25ADIOS14DefineCallBackENSt7__cxx1112basic_stringIcSt11char_traitsIcESaIcEEERKSt8functionIFvPKfRKS6_SB_SB_mRKSt6vectorImSaImEESG_SG_EERKSt3mapIS6_S6_St4lessIS6_ESaISt4pairISA_S6_EEE
libadios2_cxx11.so.2:_ZN6adios25ADIOS14DefineCallBackENSt7__cxx1112basic_stringIcSt11char_traitsIcESaIcEEERKSt8functionIFvPKhRKS6_SB_SB_mRKSt6vectorImSaImEESG_SG_EERKSt3mapIS6_S6_St4lessIS6_ESaISt4pairISA_S6_EEE
libadios2_cxx11.so.2:_ZN6adios25ADIOS14DefineCallBackENSt7__cxx1112basic_stringIcSt11char_traitsIcESaIcEEERKSt8functionIFvPKiRKS6_SB_SB_mRKSt6vectorImSaImEESG_SG_EERKSt3mapIS6_S6_St4lessIS6_ESaISt4pairISA_S6_EEE
libadios2_cxx11.so.2:_ZN6adios25ADIOS14DefineCallBackENSt7__cxx1112basic_stringIcSt11char_traitsIcESaIcEEERKSt8functionIFvPKjRKS6_SB_SB_mRKSt6vectorImSaImEESG_SG_EERKSt3mapIS6_S6_St4lessIS6_ESaISt4pairISA_S6_EEE
libadios2_cxx11.so.2:_ZN6adios25ADIOS14DefineCallBackENSt7__cxx1112basic_stringIcSt11char_traitsIcESaIcEEERKSt8functionIFvPKlRKS6_SB_SB_mRKSt6vectorImSaImEESG_SG_EERKSt3mapIS6_S6_St4lessIS6_ESaISt4pairISA_S6_EEE
libadios2_cxx11.so.2:_ZN6adios25ADIOS14DefineCallBackENSt7__cxx1112basic_stringIcSt11char_traitsIcESaIcEEERKSt8functionIFvPKmRKS6_SB_SB_mRKSt6vectorImSaImEESG_SG_EERKSt3mapIS6_S6_St4lessIS6_ESaISt4pairISA_S6_EEE
libadios2_cxx11.so.2:_ZN6adios25ADIOS14DefineCallBackENSt7__cxx1112basic_stringIcSt11char_traitsIcESaIcEEERKSt8functionIFvPKsRKS6_SB_SB_mRKSt6vectorImSaImEESG_SG_EERKSt3mapIS6_S6_St4lessIS6_ESaISt4pairISA_S6_EEE
libadios2_cxx11.so.2:_ZN6adios25ADIOS14DefineCallBackENSt7__cxx1112basic_stringIcSt11char_traitsIcESaIcEEERKSt8functionIFvPKtRKS6_SB_SB_mRKSt6vectorImSaImEESG_SG_EERKSt3mapIS6_S6_St4lessIS6_ESaISt4pairISA_S6_EEE
libadios2_cxx11.so.2:_ZN6adios25ADIOS14DefineCallBackENSt7__cxx1112basic_stringIcSt11char_traitsIcESaIcEEERKSt8functionIFvPKxRKS6_SB_SB_mRKSt6vectorImSaImEESG_SG_EERKSt3mapIS6_S6_St4lessIS6_ESaISt4pairISA_S6_EEE
libadios2_cxx11.so.2:_ZN6adios25ADIOS14DefineCallBackENSt7__cxx1112basic_stringIcSt11char_traitsIcESaIcEEERKSt8functionIFvPKyRKS6_SB_SB_mRKSt6vectorImSaImEESG_SG_EERKSt3mapIS6_S6_St4lessIS6_ESaISt4pairISA_S6_EEE
libadios2_cxx11.so.2:_ZN6adios25ADIOS14DefineCallBackENSt7__cxx1112basic_stringIcSt11char_traitsIcESaIcEEERKSt8functionIFvPvRKS6_SA_SA_mRKSt6vectorImSaImEESF_SF_EERKSt3mapIS6_S6_St4lessIS6_ESaISt4pairIS9_S6_EEE
libadios2_cxx11.so.2:_ZN6adios25ADIOS14DefineOperatorENSt7__cxx1112basic_stringIcSt11char_traitsIcESaIcEEES6_RKSt3mapIS6_S6_St4lessIS6_ESaISt4pairIKS6_S6_EEE
libadios2_cxx11.so.2:_ZN6adios25ADIOS15InquireOperatorENSt7__cxx1112basic_stringIcSt11char_traitsIcESaIcEEE
libadios2_cxx11.so.2:_ZN6adios25ADIOS4AtIOENSt7__cxx1112basic_stringIcSt11char_traitsIcESaIcEEE
libadios2_cxx11.so.2:_ZN6adios25ADIOS8FlushAllEv
libadios2_cxx11.so.2:_ZN6adios25ADIOS8RemoveIOENSt7__cxx1112basic_stringIcSt11char_traitsIcESaIcEEE
libadios2_cxx11.so.2:_ZN6adios25ADIOS9DeclareIOENSt7__cxx1112basic_stringIcSt11char_traitsIcESaIcEEE
libadios2_cxx11.so.2:_ZN6adios25ADIOSC1ERKNSt7__cxx1112basic_stringIcSt11char_traitsIcESaIcEEEb
libadios2_cxx11.so.2:_ZN6adios25ADIOSC1Eb
libadios2_cxx11.so.2:_ZN6adios25ADIOSC2ERKNSt7__cxx1112basic_stringIcSt11char_traitsIcESaIcEEEb
libadios2_cxx11.so.2:_ZN6adios25ADIOSC2Eb
libadios2_cxx11.so.2:_ZN6adios25Group10getTreeMapB5cxx11Ev
libadios2_cxx11.so.2:_ZN6adios25Group11InquirePathB5cxx11Ev
libadios2_cxx11.so.2:_ZN6adios25Group12InquireGroupENSt7__cxx1112basic_stringIcSt11char_traitsIcESaIcEEE
libadios2_cxx11.so.2:_ZN6adios25Group15AvailableGroupsB5cxx11Ev
libadios2_cxx11.so.2:_ZN6adios25Group18AvailableVariablesB5cxx11Ev
libadios2_cxx11.so.2:_ZN6adios25Group19AvailableAttributesB5cxx11Ev
libadios2_cxx11.so.2:_ZN6adios25Group7setPathENSt7__cxx1112basic_stringIcSt11char_traitsIcESaIcEEE
libadios2_cxx11.so.2:_ZN6adios25Group9BuildTreeEv
libadios2_cxx11.so.2:_ZN6adios25Group9PrintTreeEv
libadios2_cxx11.so.2:_ZN6adios25GroupC1EPNS_4core5GroupE
libadios2_cxx11.so.2:_ZN6adios25GroupC2EPNS_4core5GroupE
libadios2_cxx11.so.2:_ZN6adios25GroupD1Ev
libadios2_cxx11.so.2:_ZN6adios25GroupD2Ev
libadios2_cxx11.so.2:_ZN6adios26Engine11PerformGetsEv
libadios2_cxx11.so.2:_ZN6adios26Engine11PerformPutsEv
libadios2_cxx11.so.2:_ZN6adios26Engine20LockReaderSelectionsEv
libadios2_cxx11.so.2:_ZN6adios26Engine21LockWriterDefinitionsEv
libadios2_cxx11.so.2:_ZN6adios26Engine5CloseEi
libadios2_cxx11.so.2:_ZN6adios26Engine5FlushEi
libadios2_cxx11.so.2:_ZN6adios26Engine7EndStepEv
libadios2_cxx11.so.2:_ZN6adios26Engine9BeginStepENS_8StepModeEf
libadios2_cxx11.so.2:_ZN6adios26Engine9BeginStepEv
libadios2_cxx11.so.2:_ZN6adios26EngineC1EPNS_4core6EngineE
libadios2_cxx11.so.2:_ZN6adios26EngineC2EPNS_4core6EngineE
libadios2_cxx11.so.2:_ZN6adios27fstream13set_parameterENSt7__cxx1112basic_stringIcSt11char_traitsIcESaIcEEES6_
libadios2_cxx11.so.2:_ZN6adios27fstream14set_parametersERKSt3mapINSt7__cxx1112basic_stringIcSt11char_traitsIcESaIcEEES7_St4lessIS7_ESaISt4pairIKS7_S7_EEE
libadios2_cxx11.so.2:_ZN6adios27fstream4openERKNSt7__cxx1112basic_stringIcSt11char_traitsIcESaIcEEENS0_8openmodeES6_
libadios2_cxx11.so.2:_ZN6adios27fstream4openERKNSt7__cxx1112basic_stringIcSt11char_traitsIcESaIcEEENS0_8openmodeES6_S6_
libadios2_cxx11.so.2:_ZN6adios27fstream5closeEv
libadios2_cxx11.so.2:_ZN6adios27fstream8end_stepEv
libadios2_cxx11.so.2:_ZN6adios27fstreamC1ERKNSt7__cxx1112basic_stringIcSt11char_traitsIcESaIcEEENS0_8openmodeES6_
libadios2_cxx11.so.2:_ZN6adios27fstreamC1ERKNSt7__cxx1112basic_stringIcSt11char_traitsIcESaIcEEENS0_8openmodeES8_S6_
libadios2_cxx11.so.2:_ZN6adios27fstreamC2ERKNSt7__cxx1112basic_stringIcSt11char_traitsIcESaIcEEENS0_8openmodeES6_
libadios2_cxx11.so.2:_ZN6adios27fstreamC2ERKNSt7__cxx1112basic_stringIcSt11char_traitsIcESaIcEEENS0_8openmodeES8_S6_
libadios2_cxx11.so.2:_ZN6adios27getstepERNS_7fstreamES1_
libadios2_cxx11.so.2:_ZN6adios28Operator12SetParameterENSt7__cxx1112basic_stringIcSt11char_traitsIcESaIcEEES6_
libadios2_cxx11.so.2:_ZN6adios28OperatorC1EPNS_4core8OperatorE
libadios2_cxx11.so.2:_ZN6adios28OperatorC2EPNS_4core8OperatorE
libadios2_cxx11.so.2:_ZN6adios28ToStringB5cxx11ERKNS_2IOE
libadios2_cxx11.so.2:_ZN6adios28ToStringB5cxx11ERKNS_6EngineE
libadios2_cxx11.so.2:_ZN6adios28ToStringB5cxx11ERKNS_8OperatorE
libadios2_cxx11.so.2:_ZN6adios28ToStringINSt7__cxx1112basic_stringIcSt11char_traitsIcESaIcEEEEES6_RKNS_9AttributeIT_EE
libadios2_cxx11.so.2:_ZN6adios28ToStringISt7complexIdEEENSt7__cxx1112basic_stringIcSt11char_traitsIcESaIcEEERKNS_9AttributeIT_EE
libadios2_cxx11.so.2:_ZN6adios28ToStringISt7complexIfEEENSt7__cxx1112basic_stringIcSt11char_traitsIcESaIcEEERKNS_9AttributeIT_EE
libadios2_cxx11.so.2:_ZN6adios28ToStringIaEENSt7__cxx1112basic_stringIcSt11char_traitsIcESaIcEEERKNS_9AttributeIT_EE
libadios2_cxx11.so.2:_ZN6adios28ToStringIcEENSt7__cxx1112basic_stringIcSt11char_traitsIcESaIcEEERKNS_9AttributeIT_EE
libadios2_cxx11.so.2:_ZN6adios28ToStringIdEENSt7__cxx1112basic_stringIcSt11char_traitsIcESaIcEEERKNS_9AttributeIT_EE
libadios2_cxx11.so.2:_ZN6adios28ToStringIeEENSt7__cxx1112basic_stringIcSt11char_traitsIcESaIcEEERKNS_9AttributeIT_EE
libadios2_cxx11.so.2:_ZN6adios28ToStringIfEENSt7__cxx1112basic_stringIcSt11char_traitsIcESaIcEEERKNS_9AttributeIT_EE
libadios2_cxx11.so.2:_ZN6adios28ToStringIhEENSt7__cxx1112basic_stringIcSt11char_traitsIcESaIcEEERKNS_9AttributeIT_EE
libadios2_cxx11.so.2:_ZN6adios28ToStringIiEENSt7__cxx1112basic_stringIcSt11char_traitsIcESaIcEEERKNS_9AttributeIT_EE
libadios2_cxx11.so.2:_ZN6adios28ToStringIjEENSt7__cxx1112basic_stringIcSt11char_traitsIcESaIcEEERKNS_9AttributeIT_EE
libadios2_cxx11.so.2:_ZN6adios28ToStringIlEENSt7__cxx1112basic_stringIcSt11char_traitsIcESaIcEEERKNS_9AttributeIT_EE
libadios2_cxx11.so.2:_ZN6adios28ToStringImEENSt7__cxx1112basic_stringIcSt11char_traitsIcESaIcEEERKNS_9AttributeIT_EE
libadios2_cxx11.so.2:_ZN6adios28ToStringIsEENSt7__cxx1112basic_stringIcSt11char_traitsIcESaIcEEERKNS_9AttributeIT_EE
libadios2_cxx11.so.2:_ZN6adios28ToStringItEENSt7__cxx1112basic_stringIcSt11char_traitsIcESaIcEEERKNS_9AttributeIT_EE
libadios2_cxx11.so.2:_ZN6adios28ToStringIxEENSt7__cxx1112basic_stringIcSt11char_traitsIcESaIcEEERKNS_9AttributeIT_EE
libadios2_cxx11.so.2:_ZN6adios28ToStringIyEENSt7__cxx1112basic_stringIcSt11char_traitsIcESaIcEEERKNS_9AttributeIT_EE
libadios2_cxx11.so.2:_ZN6adios28VariableINSt7__cxx1112basic_stringIcSt11char_traitsIcESaIcEEEE12AddOperationENS_8OperatorERKSt3mapIS6_S6_St4lessIS6_ESaISt4pairIKS6_S6_EEE
libadios2_cxx11.so.2:_ZN6adios28VariableINSt7__cxx1112basic_stringIcSt11char_traitsIcESaIcEEEE12SetSelectionERKSt4pairISt6vectorImSaImEESB_E
libadios2_cxx11.so.2:_ZN6adios28VariableINSt7__cxx1112basic_stringIcSt11char_traitsIcESaIcEEEE16SetStepSelectionERKSt4pairImmE
libadios2_cxx11.so.2:_ZN6adios28VariableINSt7__cxx1112basic_stringIcSt11char_traitsIcESaIcEEEE17SetBlockSelectionEm
libadios2_cxx11.so.2:_ZN6adios28VariableINSt7__cxx1112basic_stringIcSt11char_traitsIcESaIcEEEE18AllStepsBlocksInfoEv
libadios2_cxx11.so.2:_ZN6adios28VariableINSt7__cxx1112basic_stringIcSt11char_traitsIcESaIcEEEE18SetMemorySelectionERKSt4pairISt6vectorImSaImEESB_E
libadios2_cxx11.so.2:_ZN6adios28VariableINSt7__cxx1112basic_stringIcSt11char_traitsIcESaIcEEEE8SetShapeERKSt6vectorImSaImEE
libadios2_cxx11.so.2:_ZN6adios28VariableINSt7__cxx1112basic_stringIcSt11char_traitsIcESaIcEEEEC1EPNS_4core8VariableIS6_EE
libadios2_cxx11.so.2:_ZN6adios28VariableINSt7__cxx1112basic_stringIcSt11char_traitsIcESaIcEEEEC2EPNS_4core8VariableIS6_EE
libadios2_cxx11.so.2:_ZN6adios28VariableISt7complexIdEE12AddOperationENS_8OperatorERKSt3mapINSt7__cxx1112basic_stringIcSt11char_traitsIcESaIcEEESB_St4lessISB_ESaISt4pairIKSB_SB_EEE
libadios2_cxx11.so.2:_ZN6adios28VariableISt7complexIdEE12SetSelectionERKSt4pairISt6vectorImSaImEES7_E
libadios2_cxx11.so.2:_ZN6adios28VariableISt7complexIdEE16SetStepSelectionERKSt4pairImmE
libadios2_cxx11.so.2:_ZN6adios28VariableISt7complexIdEE17SetBlockSelectionEm
libadios2_cxx11.so.2:_ZN6adios28VariableISt7complexIdEE18AllStepsBlocksInfoEv
libadios2_cxx11.so.2:_ZN6adios28VariableISt7complexIdEE18SetMemorySelectionERKSt4pairISt6vectorImSaImEES7_E
libadios2_cxx11.so.2:_ZN6adios28VariableISt7complexIdEE8SetShapeERKSt6vectorImSaImEE
libadios2_cxx11.so.2:_ZN6adios28VariableISt7complexIdEEC1EPNS_4core8VariableIS2_EE
libadios2_cxx11.so.2:_ZN6adios28VariableISt7complexIdEEC2EPNS_4core8VariableIS2_EE
libadios2_cxx11.so.2:_ZN6adios28VariableISt7complexIfEE12AddOperationENS_8OperatorERKSt3mapINSt7__cxx1112basic_stringIcSt11char_traitsIcESaIcEEESB_St4lessISB_ESaISt4pairIKSB_SB_EEE
libadios2_cxx11.so.2:_ZN6adios28VariableISt7complexIfEE12SetSelectionERKSt4pairISt6vectorImSaImEES7_E
libadios2_cxx11.so.2:_ZN6adios28VariableISt7complexIfEE16SetStepSelectionERKSt4pairImmE
libadios2_cxx11.so.2:_ZN6adios28VariableISt7complexIfEE17SetBlockSelectionEm
libadios2_cxx11.so.2:_ZN6adios28VariableISt7complexIfEE18AllStepsBlocksInfoEv
libadios2_cxx11.so.2:_ZN6adios28VariableISt7complexIfEE18SetMemorySelectionERKSt4pairISt6vectorImSaImEES7_E
libadios2_cxx11.so.2:_ZN6adios28VariableISt7complexIfEE8SetShapeERKSt6vectorImSaImEE
libadios2_cxx11.so.2:_ZN6adios28VariableISt7complexIfEEC1EPNS_4core8VariableIS2_EE
libadios2_cxx11.so.2:_ZN6adios28VariableISt7complexIfEEC2EPNS_4core8VariableIS2_EE
libadios2_cxx11.so.2:_ZN6adios28VariableIaE12AddOperationENS_8OperatorERKSt3mapINSt7__cxx1112basic_stringIcSt11char_traitsIcESaIcEEES9_St4lessIS9_ESaISt4pairIKS9_S9_EEE
libadios2_cxx11.so.2:_ZN6adios28VariableIaE12SetSelectionERKSt4pairISt6vectorImSaImEES5_E
libadios2_cxx11.so.2:_ZN6adios28VariableIaE16SetStepSelectionERKSt4pairImmE
libadios2_cxx11.so.2:_ZN6adios28VariableIaE17SetBlockSelectionEm
libadios2_cxx11.so.2:_ZN6adios28VariableIaE18AllStepsBlocksInfoEv
libadios2_cxx11.so.2:_ZN6adios28VariableIaE18SetMemorySelectionERKSt4pairISt6vectorImSaImEES5_E
libadios2_cxx11.so.2:_ZN6adios28VariableIaE8SetShapeERKSt6vectorImSaImEE
libadios2_cxx11.so.2:_ZN6adios28VariableIaEC1EPNS_4core8VariableIaEE
libadios2_cxx11.so.2:_ZN6adios28VariableIaEC2EPNS_4core8VariableIaEE
libadios2_cxx11.so.2:_ZN6adios28VariableIcE12AddOperationENS_8OperatorERKSt3mapINSt7__cxx1112basic_stringIcSt11char_traitsIcESaIcEEES9_St4lessIS9_ESaISt4pairIKS9_S9_EEE
libadios2_cxx11.so.2:_ZN6adios28VariableIcE12SetSelectionERKSt4pairISt6vectorImSaImEES5_E
libadios2_cxx11.so.2:_ZN6adios28VariableIcE16SetStepSelectionERKSt4pairImmE
libadios2_cxx11.so.2:_ZN6adios28VariableIcE17SetBlockSelectionEm
libadios2_cxx11.so.2:_ZN6adios28VariableIcE18AllStepsBlocksInfoEv
libadios2_cxx11.so.2:_ZN6adios28VariableIcE18SetMemorySelectionERKSt4pairISt6vectorImSaImEES5_E
libadios2_cxx11.so.2:_ZN6adios28VariableIcE8SetShapeERKSt6vectorImSaImEE
libadios2_cxx11.so.2:_ZN6adios28VariableIcEC1EPNS_4core8VariableIaEE
libadios2_cxx11.so.2:_ZN6adios28VariableIcEC2EPNS_4core8VariableIaEE
libadios2_cxx11.so.2:_ZN6adios28VariableIdE12AddOperationENS_8OperatorERKSt3mapINSt7__cxx1112basic_stringIcSt11char_traitsIcESaIcEEES9_St4lessIS9_ESaISt4pairIKS9_S9_EEE
libadios2_cxx11.so.2:_ZN6adios28VariableIdE12SetSelectionERKSt4pairISt6vectorImSaImEES5_E
libadios2_cxx11.so.2:_ZN6adios28VariableIdE16SetStepSelectionERKSt4pairImmE
libadios2_cxx11.so.2:_ZN6adios28VariableIdE17SetBlockSelectionEm
libadios2_cxx11.so.2:_ZN6adios28VariableIdE18AllStepsBlocksInfoEv
libadios2_cxx11.so.2:_ZN6adios28VariableIdE18SetMemorySelectionERKSt4pairISt6vectorImSaImEES5_E
libadios2_cxx11.so.2:_ZN6adios28VariableIdE8SetShapeERKSt6vectorImSaImEE
libadios2_cxx11.so.2:_ZN6adios28VariableIdEC1EPNS_4core8VariableIdEE
libadios2_cxx11.so.2:_ZN6adios28VariableIdEC2EPNS_4core8VariableIdEE
libadios2_cxx11.so.2:_ZN6adios28VariableIeE12AddOperationENS_8OperatorERKSt3mapINSt7__cxx1112basic_stringIcSt11char_traitsIcESaIcEEES9_St4lessIS9_ESaISt4pairIKS9_S9_EEE
libadios2_cxx11.so.2:_ZN6adios28VariableIeE12SetSelectionERKSt4pairISt6vectorImSaImEES5_E
libadios2_cxx11.so.2:_ZN6adios28VariableIeE16SetStepSelectionERKSt4pairImmE
libadios2_cxx11.so.2:_ZN6adios28VariableIeE17SetBlockSelectionEm
libadios2_cxx11.so.2:_ZN6adios28VariableIeE18AllStepsBlocksInfoEv
libadios2_cxx11.so.2:_ZN6adios28VariableIeE18SetMemorySelectionERKSt4pairISt6vectorImSaImEES5_E
libadios2_cxx11.so.2:_ZN6adios28VariableIeE8SetShapeERKSt6vectorImSaImEE
libadios2_cxx11.so.2:_ZN6adios28VariableIeEC1EPNS_4core8VariableIeEE
libadios2_cxx11.so.2:_ZN6adios28VariableIeEC2EPNS_4core8VariableIeEE
libadios2_cxx11.so.2:_ZN6adios28VariableIfE12AddOperationENS_8OperatorERKSt3mapINSt7__cxx1112basic_stringIcSt11char_traitsIcESaIcEEES9_St4lessIS9_ESaISt4pairIKS9_S9_EEE
libadios2_cxx11.so.2:_ZN6adios28VariableIfE12SetSelectionERKSt4pairISt6vectorImSaImEES5_E
libadios2_cxx11.so.2:_ZN6adios28VariableIfE16SetStepSelectionERKSt4pairImmE
libadios2_cxx11.so.2:_ZN6adios28VariableIfE17SetBlockSelectionEm
libadios2_cxx11.so.2:_ZN6adios28VariableIfE18AllStepsBlocksInfoEv
libadios2_cxx11.so.2:_ZN6adios28VariableIfE18SetMemorySelectionERKSt4pairISt6vectorImSaImEES5_E
libadios2_cxx11.so.2:_ZN6adios28VariableIfE8SetShapeERKSt6vectorImSaImEE
libadios2_cxx11.so.2:_ZN6adios28VariableIfEC1EPNS_4core8VariableIfEE
libadios2_cxx11.so.2:_ZN6adios28VariableIfEC2EPNS_4core8VariableIfEE
libadios2_cxx11.so.2:_ZN6adios28VariableIhE12AddOperationENS_8OperatorERKSt3mapINSt7__cxx1112basic_stringIcSt11char_traitsIcESaIcEEES9_St4lessIS9_ESaISt4pairIKS9_S9_EEE
libadios2_cxx11.so.2:_ZN6adios28VariableIhE12SetSelectionERKSt4pairISt6vectorImSaImEES5_E
libadios2_cxx11.so.2:_ZN6adios28VariableIhE16SetStepSelectionERKSt4pairImmE
libadios2_cxx11.so.2:_ZN6adios28VariableIhE17SetBlockSelectionEm
libadios2_cxx11.so.2:_ZN6adios28VariableIhE18AllStepsBlocksInfoEv
libadios2_cxx11.so.2:_ZN6adios28VariableIhE18SetMemorySelectionERKSt4pairISt6vectorImSaImEES5_E
libadios2_cxx11.so.2:_ZN6adios28VariableIhE8SetShapeERKSt6vectorImSaImEE
libadios2_cxx11.so.2:_ZN6adios28VariableIhEC1EPNS_4core8VariableIhEE
libadios2_cxx11.so.2:_ZN6adios28VariableIhEC2EPNS_4core8VariableIhEE
libadios2_cxx11.so.2:_ZN6adios28VariableIiE12AddOperationENS_8OperatorERKSt3mapINSt7__cxx1112basic_stringIcSt11char_traitsIcESaIcEEES9_St4lessIS9_ESaISt4pairIKS9_S9_EEE
libadios2_cxx11.so.2:_ZN6adios28VariableIiE12SetSelectionERKSt4pairISt6vectorImSaImEES5_E
libadios2_cxx11.so.2:_ZN6adios28VariableIiE16SetStepSelectionERKSt4pairImmE
libadios2_cxx11.so.2:_ZN6adios28VariableIiE17SetBlockSelectionEm
libadios2_cxx11.so.2:_ZN6adios28VariableIiE18AllStepsBlocksInfoEv
libadios2_cxx11.so.2:_ZN6adios28VariableIiE18SetMemorySelectionERKSt4pairISt6vectorImSaImEES5_E
libadios2_cxx11.so.2:_ZN6adios28VariableIiE8SetShapeERKSt6vectorImSaImEE
libadios2_cxx11.so.2:_ZN6adios28VariableIiEC1EPNS_4core8VariableIiEE
libadios2_cxx11.so.2:_ZN6adios28VariableIiEC2EPNS_4core8VariableIiEE
libadios2_cxx11.so.2:_ZN6adios28VariableIjE12AddOperationENS_8OperatorERKSt3mapINSt7__cxx1112basic_stringIcSt11char_traitsIcESaIcEEES9_St4lessIS9_ESaISt4pairIKS9_S9_EEE
libadios2_cxx11.so.2:_ZN6adios28VariableIjE12SetSelectionERKSt4pairISt6vectorImSaImEES5_E
libadios2_cxx11.so.2:_ZN6adios28VariableIjE16SetStepSelectionERKSt4pairImmE
libadios2_cxx11.so.2:_ZN6adios28VariableIjE17SetBlockSelectionEm
libadios2_cxx11.so.2:_ZN6adios28VariableIjE18AllStepsBlocksInfoEv
libadios2_cxx11.so.2:_ZN6adios28VariableIjE18SetMemorySelectionERKSt4pairISt6vectorImSaImEES5_E
libadios2_cxx11.so.2:_ZN6adios28VariableIjE8SetShapeERKSt6vectorImSaImEE
libadios2_cxx11.so.2:_ZN6adios28VariableIjEC1EPNS_4core8VariableIjEE
libadios2_cxx11.so.2:_ZN6adios28VariableIjEC2EPNS_4core8VariableIjEE
libadios2_cxx11.so.2:_ZN6adios28VariableIlE12AddOperationENS_8OperatorERKSt3mapINSt7__cxx1112basic_stringIcSt11char_traitsIcESaIcEEES9_St4lessIS9_ESaISt4pairIKS9_S9_EEE
libadios2_cxx11.so.2:_ZN6adios28VariableIlE12SetSelectionERKSt4pairISt6vectorImSaImEES5_E
libadios2_cxx11.so.2:_ZN6adios28VariableIlE16SetStepSelectionERKSt4pairImmE
libadios2_cxx11.so.2:_ZN6adios28VariableIlE17SetBlockSelectionEm
libadios2_cxx11.so.2:_ZN6adios28VariableIlE18AllStepsBlocksInfoEv
libadios2_cxx11.so.2:_ZN6adios28VariableIlE18SetMemorySelectionERKSt4pairISt6vectorImSaImEES5_E
libadios2_cxx11.so.2:_ZN6adios28VariableIlE8SetShapeERKSt6vectorImSaImEE
libadios2_cxx11.so.2:_ZN6adios28VariableIlEC1EPNS_4core8VariableIlEE
libadios2_cxx11.so.2:_ZN6adios28VariableIlEC2EPNS_4core8VariableIlEE
libadios2_cxx11.so.2:_ZN6adios28VariableImE12AddOperationENS_8OperatorERKSt3mapINSt7__cxx1112basic_stringIcSt11char_traitsIcESaIcEEES9_St4lessIS9_ESaISt4pairIKS9_S9_EEE
libadios2_cxx11.so.2:_ZN6adios28VariableImE12SetSelectionERKSt4pairISt6vectorImSaImEES5_E
libadios2_cxx11.so.2:_ZN6adios28VariableImE16SetStepSelectionERKSt4pairImmE
libadios2_cxx11.so.2:_ZN6adios28VariableImE17SetBlockSelectionEm
libadios2_cxx11.so.2:_ZN6adios28VariableImE18AllStepsBlocksInfoEv
libadios2_cxx11.so.2:_ZN6adios28VariableImE18SetMemorySelectionERKSt4pairISt6vectorImSaImEES5_E
libadios2_cxx11.so.2:_ZN6adios28VariableImE8SetShapeERKSt6vectorImSaImEE
libadios2_cxx11.so.2:_ZN6adios28VariableImEC1EPNS_4core8VariableImEE
libadios2_cxx11.so.2:_ZN6adios28VariableImEC2EPNS_4core8VariableImEE
libadios2_cxx11.so.2:_ZN6adios28VariableIsE12AddOperationENS_8OperatorERKSt3mapINSt7__cxx1112basic_stringIcSt11char_traitsIcESaIcEEES9_St4lessIS9_ESaISt4pairIKS9_S9_EEE
libadios2_cxx11.so.2:_ZN6adios28VariableIsE12SetSelectionERKSt4pairISt6vectorImSaImEES5_E
libadios2_cxx11.so.2:_ZN6adios28VariableIsE16SetStepSelectionERKSt4pairImmE
libadios2_cxx11.so.2:_ZN6adios28VariableIsE17SetBlockSelectionEm
libadios2_cxx11.so.2:_ZN6adios28VariableIsE18AllStepsBlocksInfoEv
libadios2_cxx11.so.2:_ZN6adios28VariableIsE18SetMemorySelectionERKSt4pairISt6vectorImSaImEES5_E
libadios2_cxx11.so.2:_ZN6adios28VariableIsE8SetShapeERKSt6vectorImSaImEE
libadios2_cxx11.so.2:_ZN6adios28VariableIsEC1EPNS_4core8VariableIsEE
libadios2_cxx11.so.2:_ZN6adios28VariableIsEC2EPNS_4core8VariableIsEE
libadios2_cxx11.so.2:_ZN6adios28VariableItE12AddOperationENS_8OperatorERKSt3mapINSt7__cxx1112basic_stringIcSt11char_traitsIcESaIcEEES9_St4lessIS9_ESaISt4pairIKS9_S9_EEE
libadios2_cxx11.so.2:_ZN6adios28VariableItE12SetSelectionERKSt4pairISt6vectorImSaImEES5_E
libadios2_cxx11.so.2:_ZN6adios28VariableItE16SetStepSelectionERKSt4pairImmE
libadios2_cxx11.so.2:_ZN6adios28VariableItE17SetBlockSelectionEm
libadios2_cxx11.so.2:_ZN6adios28VariableItE18AllStepsBlocksInfoEv
libadios2_cxx11.so.2:_ZN6adios28VariableItE18SetMemorySelectionERKSt4pairISt6vectorImSaImEES5_E
libadios2_cxx11.so.2:_ZN6adios28VariableItE8SetShapeERKSt6vectorImSaImEE
libadios2_cxx11.so.2:_ZN6adios28VariableItEC1EPNS_4core8VariableItEE
libadios2_cxx11.so.2:_ZN6adios28VariableItEC2EPNS_4core8VariableItEE
libadios2_cxx11.so.2:_ZN6adios28VariableIxE12AddOperationENS_8OperatorERKSt3mapINSt7__cxx1112basic_stringIcSt11char_traitsIcESaIcEEES9_St4lessIS9_ESaISt4pairIKS9_S9_EEE
libadios2_cxx11.so.2:_ZN6adios28VariableIxE12SetSelectionERKSt4pairISt6vectorImSaImEES5_E
libadios2_cxx11.so.2:_ZN6adios28VariableIxE16SetStepSelectionERKSt4pairImmE
libadios2_cxx11.so.2:_ZN6adios28VariableIxE17SetBlockSelectionEm
libadios2_cxx11.so.2:_ZN6adios28VariableIxE18AllStepsBlocksInfoEv
libadios2_cxx11.so.2:_ZN6adios28VariableIxE18SetMemorySelectionERKSt4pairISt6vectorImSaImEES5_E
libadios2_cxx11.so.2:_ZN6adios28VariableIxE8SetShapeERKSt6vectorImSaImEE
libadios2_cxx11.so.2:_ZN6adios28VariableIxEC1EPNS_4core8VariableIlEE
libadios2_cxx11.so.2:_ZN6adios28VariableIxEC2EPNS_4core8VariableIlEE
libadios2_cxx11.so.2:_ZN6adios28VariableIyE12AddOperationENS_8OperatorERKSt3mapINSt7__cxx1112basic_stringIcSt11char_traitsIcESaIcEEES9_St4lessIS9_ESaISt4pairIKS9_S9_EEE
libadios2_cxx11.so.2:_ZN6adios28VariableIyE12SetSelectionERKSt4pairISt6vectorImSaImEES5_E
libadios2_cxx11.so.2:_ZN6adios28VariableIyE16SetStepSelectionERKSt4pairImmE
libadios2_cxx11.so.2:_ZN6adios28VariableIyE17SetBlockSelectionEm
libadios2_cxx11.so.2:_ZN6adios28VariableIyE18AllStepsBlocksInfoEv
libadios2_cxx11.so.2:_ZN6adios28VariableIyE18SetMemorySelectionERKSt4pairISt6vectorImSaImEES5_E
libadios2_cxx11.so.2:_ZN6adios28VariableIyE8SetShapeERKSt6vectorImSaImEE
libadios2_cxx11.so.2:_ZN6adios28VariableIyEC1EPNS_4core8VariableImEE
libadios2_cxx11.so.2:_ZN6adios28VariableIyEC2EPNS_4core8VariableImEE
libadios2_cxx11.so.2:_ZN6adios29AttributeINSt7__cxx1112basic_stringIcSt11char_traitsIcESaIcEEEEC1EPNS_4core9AttributeIS6_EE
libadios2_cxx11.so.2:_ZN6adios29AttributeINSt7__cxx1112basic_stringIcSt11char_traitsIcESaIcEEEEC2EPNS_4core9AttributeIS6_EE
libadios2_cxx11.so.2:_ZN6adios29AttributeISt7complexIdEEC1EPNS_4core9AttributeIS2_EE
libadios2_cxx11.so.2:_ZN6adios29AttributeISt7complexIdEEC2EPNS_4core9AttributeIS2_EE
libadios2_cxx11.so.2:_ZN6adios29AttributeISt7complexIfEEC1EPNS_4core9AttributeIS2_EE
libadios2_cxx11.so.2:_ZN6adios29AttributeISt7complexIfEEC2EPNS_4core9AttributeIS2_EE
libadios2_cxx11.so.2:_ZN6adios29AttributeIaEC1EPNS_4core9AttributeIaEE
libadios2_cxx11.so.2:_ZN6adios29AttributeIaEC2EPNS_4core9AttributeIaEE
libadios2_cxx11.so.2:_ZN6adios29AttributeIcEC1EPNS_4core9AttributeIaEE
libadios2_cxx11.so.2:_ZN6adios29AttributeIcEC2EPNS_4core9AttributeIaEE
libadios2_cxx11.so.2:_ZN6adios29AttributeIdEC1EPNS_4core9AttributeIdEE
libadios2_cxx11.so.2:_ZN6adios29AttributeIdEC2EPNS_4core9AttributeIdEE
libadios2_cxx11.so.2:_ZN6adios29AttributeIeEC1EPNS_4core9AttributeIeEE
libadios2_cxx11.so.2:_ZN6adios29AttributeIeEC2EPNS_4core9AttributeIeEE
libadios2_cxx11.so.2:_ZN6adios29AttributeIfEC1EPNS_4core9AttributeIfEE
libadios2_cxx11.so.2:_ZN6adios29AttributeIfEC2EPNS_4core9AttributeIfEE
libadios2_cxx11.so.2:_ZN6adios29AttributeIhEC1EPNS_4core9AttributeIhEE
libadios2_cxx11.so.2:_ZN6adios29AttributeIhEC2EPNS_4core9AttributeIhEE
libadios2_cxx11.so.2:_ZN6adios29AttributeIiEC1EPNS_4core9AttributeIiEE
libadios2_cxx11.so.2:_ZN6adios29AttributeIiEC2EPNS_4core9AttributeIiEE
libadios2_cxx11.so.2:_ZN6adios29AttributeIjEC1EPNS_4core9AttributeIjEE
libadios2_cxx11.so.2:_ZN6adios29AttributeIjEC2EPNS_4core9AttributeIjEE
libadios2_cxx11.so.2:_ZN6adios29AttributeIlEC1EPNS_4core9AttributeIlEE
libadios2_cxx11.so.2:_ZN6adios29AttributeIlEC2EPNS_4core9AttributeIlEE
libadios2_cxx11.so.2:_ZN6adios29AttributeImEC1EPNS_4core9AttributeImEE
libadios2_cxx11.so.2:_ZN6adios29AttributeImEC2EPNS_4core9AttributeImEE
libadios2_cxx11.so.2:_ZN6adios29AttributeIsEC1EPNS_4core9AttributeIsEE
libadios2_cxx11.so.2:_ZN6adios29AttributeIsEC2EPNS_4core9AttributeIsEE
libadios2_cxx11.so.2:_ZN6adios29AttributeItEC1EPNS_4core9AttributeItEE
libadios2_cxx11.so.2:_ZN6adios29AttributeItEC2EPNS_4core9AttributeItEE
libadios2_cxx11.so.2:_ZN6adios29AttributeIxEC1EPNS_4core9AttributeIlEE
libadios2_cxx11.so.2:_ZN6adios29AttributeIxEC2EPNS_4core9AttributeIlEE
libadios2_cxx11.so.2:_ZN6adios29AttributeIyEC1EPNS_4core9AttributeImEE
libadios2_cxx11.so.2:_ZN6adios29AttributeIyEC2EPNS_4core9AttributeImEE
libadios2_cxx11.so.2:_ZNK4pugi10xpath_node4nodeEv
libadios2_cxx11.so.2:_ZNK4pugi10xpath_node6parentEv
libadios2_cxx11.so.2:_ZNK4pugi10xpath_node9attributeEv
libadios2_cxx11.so.2:_ZNK4pugi10xpath_nodecvPFvPPPS0_EEv
libadios2_cxx11.so.2:_ZNK4pugi10xpath_nodeeqERKS0_
libadios2_cxx11.so.2:_ZNK4pugi10xpath_nodeneERKS0_
libadios2_cxx11.so.2:_ZNK4pugi10xpath_nodentEv
libadios2_cxx11.so.2:_ZNK4pugi11xpath_query11return_typeEv
libadios2_cxx11.so.2:_ZNK4pugi11xpath_query13evaluate_nodeERKNS_10xpath_nodeE
libadios2_cxx11.so.2:_ZNK4pugi11xpath_query15evaluate_numberERKNS_10xpath_nodeE
libadios2_cxx11.so.2:_ZNK4pugi11xpath_query15evaluate_stringB5cxx11ERKNS_10xpath_nodeE
libadios2_cxx11.so.2:_ZNK4pugi11xpath_query15evaluate_stringEPcmRKNS_10xpath_nodeE
libadios2_cxx11.so.2:_ZNK4pugi11xpath_query16evaluate_booleanERKNS_10xpath_nodeE
libadios2_cxx11.so.2:_ZNK4pugi11xpath_query17evaluate_node_setERKNS_10xpath_nodeE
libadios2_cxx11.so.2:_ZNK4pugi11xpath_query6resultEv
libadios2_cxx11.so.2:_ZNK4pugi11xpath_querycvPFvPPPS0_EEv
libadios2_cxx11.so.2:_ZNK4pugi11xpath_queryntEv
libadios2_cxx11.so.2:_ZNK4pugi12xml_document16document_elementEv
libadios2_cxx11.so.2:_ZNK4pugi12xml_document4saveERNS_10xml_writerEPKcjNS_12xml_encodingE
libadios2_cxx11.so.2:_ZNK4pugi12xml_document4saveERSoPKcjNS_12xml_encodingE
libadios2_cxx11.so.2:_ZNK4pugi12xml_document4saveERSt13basic_ostreamIwSt11char_traitsIwEEPKcj
libadios2_cxx11.so.2:_ZNK4pugi12xml_document9save_fileEPKcS2_jNS_12xml_encodingE
libadios2_cxx11.so.2:_ZNK4pugi12xml_document9save_fileEPKwPKcjNS_12xml_encodingE
libadios2_cxx11.so.2:_ZNK4pugi13xml_attribute10hash_valueEv
libadios2_cxx11.so.2:_ZNK4pugi13xml_attribute14next_attributeEv
libadios2_cxx11.so.2:_ZNK4pugi13xml_attribute15internal_objectEv
libadios2_cxx11.so.2:_ZNK4pugi13xml_attribute18previous_attributeEv
libadios2_cxx11.so.2:_ZNK4pugi13xml_attribute4nameEv
libadios2_cxx11.so.2:_ZNK4pugi13xml_attribute5emptyEv
libadios2_cxx11.so.2:_ZNK4pugi13xml_attribute5valueEv
libadios2_cxx11.so.2:_ZNK4pugi13xml_attribute6as_intEi
libadios2_cxx11.so.2:_ZNK4pugi13xml_attribute7as_boolEb
libadios2_cxx11.so.2:_ZNK4pugi13xml_attribute7as_uintEj
libadios2_cxx11.so.2:_ZNK4pugi13xml_attribute8as_floatEf
libadios2_cxx11.so.2:_ZNK4pugi13xml_attribute8as_llongEx
libadios2_cxx11.so.2:_ZNK4pugi13xml_attribute9as_doubleEd
libadios2_cxx11.so.2:_ZNK4pugi13xml_attribute9as_stringEPKc
libadios2_cxx11.so.2:_ZNK4pugi13xml_attribute9as_ullongEy
libadios2_cxx11.so.2:_ZNK4pugi13xml_attributecvPFvPPPS0_EEv
libadios2_cxx11.so.2:_ZNK4pugi13xml_attributeeqERKS0_
libadios2_cxx11.so.2:_ZNK4pugi13xml_attributegeERKS0_
libadios2_cxx11.so.2:_ZNK4pugi13xml_attributegtERKS0_
libadios2_cxx11.so.2:_ZNK4pugi13xml_attributeleERKS0_
libadios2_cxx11.so.2:_ZNK4pugi13xml_attributeltERKS0_
libadios2_cxx11.so.2:_ZNK4pugi13xml_attributeneERKS0_
libadios2_cxx11.so.2:_ZNK4pugi13xml_attributentEv
libadios2_cxx11.so.2:_ZNK4pugi14xpath_node_set3endEv
libadios2_cxx11.so.2:_ZNK4pugi14xpath_node_set4sizeEv
libadios2_cxx11.so.2:_ZNK4pugi14xpath_node_set4typeEv
libadios2_cxx11.so.2:_ZNK4pugi14xpath_node_set5beginEv
libadios2_cxx11.so.2:_ZNK4pugi14xpath_node_set5emptyEv
libadios2_cxx11.so.2:_ZNK4pugi14xpath_node_set5firstEv
libadios2_cxx11.so.2:_ZNK4pugi14xpath_node_setixEm
libadios2_cxx11.so.2:_ZNK4pugi14xpath_variable10get_numberEv
libadios2_cxx11.so.2:_ZNK4pugi14xpath_variable10get_stringEv
libadios2_cxx11.so.2:_ZNK4pugi14xpath_variable11get_booleanEv
libadios2_cxx11.so.2:_ZNK4pugi14xpath_variable12get_node_setEv
libadios2_cxx11.so.2:_ZNK4pugi14xpath_variable4nameEv
libadios2_cxx11.so.2:_ZNK4pugi14xpath_variable4typeEv
libadios2_cxx11.so.2:_ZNK4pugi15xml_tree_walker5depthEv
libadios2_cxx11.so.2:_ZNK4pugi15xpath_exception4whatEv
libadios2_cxx11.so.2:_ZNK4pugi15xpath_exception6resultEv
libadios2_cxx11.so.2:_ZNK4pugi16xml_parse_result11descriptionEv
libadios2_cxx11.so.2:_ZNK4pugi16xml_parse_resultcvbEv
libadios2_cxx11.so.2:_ZNK4pugi17xml_node_iteratordeEv
libadios2_cxx11.so.2:_ZNK4pugi17xml_node_iteratoreqERKS0_
libadios2_cxx11.so.2:_ZNK4pugi17xml_node_iteratorneERKS0_
libadios2_cxx11.so.2:_ZNK4pugi17xml_node_iteratorptEv
libadios2_cxx11.so.2:_ZNK4pugi18xpath_parse_result11descriptionEv
libadios2_cxx11.so.2:_ZNK4pugi18xpath_parse_resultcvbEv
libadios2_cxx11.so.2:_ZNK4pugi18xpath_variable_set3getEPKc
libadios2_cxx11.so.2:_ZNK4pugi18xpath_variable_set5_findEPKc
libadios2_cxx11.so.2:_ZNK4pugi22xml_attribute_iteratordeEv
libadios2_cxx11.so.2:_ZNK4pugi22xml_attribute_iteratoreqERKS0_
libadios2_cxx11.so.2:_ZNK4pugi22xml_attribute_iteratorneERKS0_
libadios2_cxx11.so.2:_ZNK4pugi22xml_attribute_iteratorptEv
libadios2_cxx11.so.2:_ZNK4pugi23xml_named_node_iteratordeEv
libadios2_cxx11.so.2:_ZNK4pugi23xml_named_node_iteratoreqERKS0_
libadios2_cxx11.so.2:_ZNK4pugi23xml_named_node_iteratorneERKS0_
libadios2_cxx11.so.2:_ZNK4pugi23xml_named_node_iteratorptEv
libadios2_cxx11.so.2:_ZNK4pugi8xml_node10attributesEv
libadios2_cxx11.so.2:_ZNK4pugi8xml_node10hash_valueEv
libadios2_cxx11.so.2:_ZNK4pugi8xml_node10last_childEv
libadios2_cxx11.so.2:_ZNK4pugi8xml_node11child_valueEPKc
libadios2_cxx11.so.2:_ZNK4pugi8xml_node11child_valueEv
libadios2_cxx11.so.2:_ZNK4pugi8xml_node11first_childEv
libadios2_cxx11.so.2:_ZNK4pugi8xml_node11select_nodeEPKcPNS_18xpath_variable_setE
libadios2_cxx11.so.2:_ZNK4pugi8xml_node11select_nodeERKNS_11xpath_queryE
libadios2_cxx11.so.2:_ZNK4pugi8xml_node12next_siblingEPKc
libadios2_cxx11.so.2:_ZNK4pugi8xml_node12next_siblingEv
libadios2_cxx11.so.2:_ZNK4pugi8xml_node12offset_debugEv
libadios2_cxx11.so.2:_ZNK4pugi8xml_node12select_nodesEPKcPNS_18xpath_variable_setE
libadios2_cxx11.so.2:_ZNK4pugi8xml_node12select_nodesERKNS_11xpath_queryE
libadios2_cxx11.so.2:_ZNK4pugi8xml_node14attributes_endEv
libadios2_cxx11.so.2:_ZNK4pugi8xml_node14last_attributeEv
libadios2_cxx11.so.2:_ZNK4pugi8xml_node15first_attributeEv
libadios2_cxx11.so.2:_ZNK4pugi8xml_node15internal_objectEv
libadios2_cxx11.so.2:_ZNK4pugi8xml_node16attributes_beginEv
libadios2_cxx11.so.2:_ZNK4pugi8xml_node16previous_siblingEPKc
libadios2_cxx11.so.2:_ZNK4pugi8xml_node16previous_siblingEv
libadios2_cxx11.so.2:_ZNK4pugi8xml_node18select_single_nodeEPKcPNS_18xpath_variable_setE
libadios2_cxx11.so.2:_ZNK4pugi8xml_node18select_single_nodeERKNS_11xpath_queryE
libadios2_cxx11.so.2:_ZNK4pugi8xml_node21first_element_by_pathEPKcc
libadios2_cxx11.so.2:_ZNK4pugi8xml_node23find_child_by_attributeEPKcS2_
libadios2_cxx11.so.2:_ZNK4pugi8xml_node23find_child_by_attributeEPKcS2_S2_
libadios2_cxx11.so.2:_ZNK4pugi8xml_node3endEv
libadios2_cxx11.so.2:_ZNK4pugi8xml_node4nameEv
libadios2_cxx11.so.2:_ZNK4pugi8xml_node4pathB5cxx11Ec
libadios2_cxx11.so.2:_ZNK4pugi8xml_node4rootEv
libadios2_cxx11.so.2:_ZNK4pugi8xml_node4textEv
libadios2_cxx11.so.2:_ZNK4pugi8xml_node4typeEv
libadios2_cxx11.so.2:_ZNK4pugi8xml_node5beginEv
libadios2_cxx11.so.2:_ZNK4pugi8xml_node5childEPKc
libadios2_cxx11.so.2:_ZNK4pugi8xml_node5emptyEv
libadios2_cxx11.so.2:_ZNK4pugi8xml_node5printERNS_10xml_writerEPKcjNS_12xml_encodingEj
libadios2_cxx11.so.2:_ZNK4pugi8xml_node5printERSoPKcjNS_12xml_encodingEj
libadios2_cxx11.so.2:_ZNK4pugi8xml_node5printERSt13basic_ostreamIwSt11char_traitsIwEEPKcjj
libadios2_cxx11.so.2:_ZNK4pugi8xml_node5valueEv
libadios2_cxx11.so.2:_ZNK4pugi8xml_node6parentEv
libadios2_cxx11.so.2:_ZNK4pugi8xml_node8childrenEPKc
libadios2_cxx11.so.2:_ZNK4pugi8xml_node8childrenEv
libadios2_cxx11.so.2:_ZNK4pugi8xml_node9attributeEPKc
libadios2_cxx11.so.2:_ZNK4pugi8xml_node9attributeEPKcRNS_13xml_attributeE
libadios2_cxx11.so.2:_ZNK4pugi8xml_nodecvPFvPPPS0_EEv
libadios2_cxx11.so.2:_ZNK4pugi8xml_nodeeqERKS0_
libadios2_cxx11.so.2:_ZNK4pugi8xml_nodegeERKS0_
libadios2_cxx11.so.2:_ZNK4pugi8xml_nodegtERKS0_
libadios2_cxx11.so.2:_ZNK4pugi8xml_nodeleERKS0_
libadios2_cxx11.so.2:_ZNK4pugi8xml_nodeltERKS0_
libadios2_cxx11.so.2:_ZNK4pugi8xml_nodeneERKS0_
libadios2_cxx11.so.2:_ZNK4pugi8xml_nodentEv
libadios2_cxx11.so.2:_ZNK4pugi8xml_text3getEv
libadios2_cxx11.so.2:_ZNK4pugi8xml_text4dataEv
libadios2_cxx11.so.2:_ZNK4pugi8xml_text5_dataEv
libadios2_cxx11.so.2:_ZNK4pugi8xml_text5emptyEv
libadios2_cxx11.so.2:_ZNK4pugi8xml_text6as_intEi
libadios2_cxx11.so.2:_ZNK4pugi8xml_text7as_boolEb
libadios2_cxx11.so.2:_ZNK4pugi8xml_text7as_uintEj
libadios2_cxx11.so.2:_ZNK4pugi8xml_text8as_floatEf
libadios2_cxx11.so.2:_ZNK4pugi8xml_text8as_llongEx
libadios2_cxx11.so.2:_ZNK4pugi8xml_text9as_doubleEd
libadios2_cxx11.so.2:_ZNK4pugi8xml_text9as_stringEPKc
libadios2_cxx11.so.2:_ZNK4pugi8xml_text9as_ullongEy
libadios2_cxx11.so.2:_ZNK4pugi8xml_textcvPFvPPPS0_EEv
libadios2_cxx11.so.2:_ZNK4pugi8xml_textntEv
libadios2_cxx11.so.2:_ZNK6adios22IO10EngineTypeB5cxx11Ev
libadios2_cxx11.so.2:_ZNK6adios22IO10ParametersB5cxx11Ev
libadios2_cxx11.so.2:_ZNK6adios22IO12InConfigFileEv
libadios2_cxx11.so.2:_ZNK6adios22IO12VariableTypeERKNSt7__cxx1112basic_stringIcSt11char_traitsIcESaIcEEE
libadios2_cxx11.so.2:_ZNK6adios22IO13AttributeTypeERKNSt7__cxx1112basic_stringIcSt11char_traitsIcESaIcEEE
libadios2_cxx11.so.2:_ZNK6adios22IO4NameB5cxx11Ev
libadios2_cxx11.so.2:_ZNK6adios22IOcvbEv
libadios2_cxx11.so.2:_ZNK6adios25ADIOScvbEv
libadios2_cxx11.so.2:_ZNK6adios25Group12VariableTypeERKNSt7__cxx1112basic_stringIcSt11char_traitsIcESaIcEEE
libadios2_cxx11.so.2:_ZNK6adios25Group13AttributeTypeERKNSt7__cxx1112basic_stringIcSt11char_traitsIcESaIcEEE
libadios2_cxx11.so.2:_ZNK6adios26Engine11CurrentStepEv
libadios2_cxx11.so.2:_ZNK6adios26Engine22DebugGetDataBufferSizeEv
libadios2_cxx11.so.2:_ZNK6adios26Engine4NameB5cxx11Ev
libadios2_cxx11.so.2:_ZNK6adios26Engine4TypeB5cxx11Ev
libadios2_cxx11.so.2:_ZNK6adios26Engine5StepsEv
libadios2_cxx11.so.2:_ZNK6adios26EnginecvbEv
libadios2_cxx11.so.2:_ZNK6adios27fstream12current_stepEv
libadios2_cxx11.so.2:_ZNK6adios27fstream5stepsEv
libadios2_cxx11.so.2:_ZNK6adios27fstream6ToModeENS0_8openmodeE
libadios2_cxx11.so.2:_ZNK6adios27fstream9CheckOpenERKNSt7__cxx1112basic_stringIcSt11char_traitsIcESaIcEEE
libadios2_cxx11.so.2:_ZNK6adios27fstreamcvbEv
libadios2_cxx11.so.2:_ZNK6adios28Operator10ParametersB5cxx11Ev
libadios2_cxx11.so.2:_ZNK6adios28Operator4TypeB5cxx11Ev
libadios2_cxx11.so.2:_ZNK6adios28OperatorcvbEv
libadios2_cxx11.so.2:_ZNK6adios28VariableINSt7__cxx1112basic_stringIcSt11char_traitsIcESaIcEEEE10OperationsEv
libadios2_cxx11.so.2:_ZNK6adios28VariableINSt7__cxx1112basic_stringIcSt11char_traitsIcESaIcEEEE10StepsStartEv
libadios2_cxx11.so.2:_ZNK6adios28VariableINSt7__cxx1112basic_stringIcSt11char_traitsIcESaIcEEEE13SelectionSizeEv
libadios2_cxx11.so.2:_ZNK6adios28VariableINSt7__cxx1112basic_stringIcSt11char_traitsIcESaIcEEEE3MaxEm
libadios2_cxx11.so.2:_ZNK6adios28VariableINSt7__cxx1112basic_stringIcSt11char_traitsIcESaIcEEEE3MinEm
libadios2_cxx11.so.2:_ZNK6adios28VariableINSt7__cxx1112basic_stringIcSt11char_traitsIcESaIcEEEE4Info4DataEv
libadios2_cxx11.so.2:_ZNK6adios28VariableINSt7__cxx1112basic_stringIcSt11char_traitsIcESaIcEEEE4NameEv
libadios2_cxx11.so.2:_ZNK6adios28VariableINSt7__cxx1112basic_stringIcSt11char_traitsIcESaIcEEEE4TypeEv
libadios2_cxx11.so.2:_ZNK6adios28VariableINSt7__cxx1112basic_stringIcSt11char_traitsIcESaIcEEEE5CountEv
libadios2_cxx11.so.2:_ZNK6adios28VariableINSt7__cxx1112basic_stringIcSt11char_traitsIcESaIcEEEE5ShapeEm
libadios2_cxx11.so.2:_ZNK6adios28VariableINSt7__cxx1112basic_stringIcSt11char_traitsIcESaIcEEEE5StartEv
libadios2_cxx11.so.2:_ZNK6adios28VariableINSt7__cxx1112basic_stringIcSt11char_traitsIcESaIcEEEE5StepsEv
libadios2_cxx11.so.2:_ZNK6adios28VariableINSt7__cxx1112basic_stringIcSt11char_traitsIcESaIcEEEE6MinMaxEm
libadios2_cxx11.so.2:_ZNK6adios28VariableINSt7__cxx1112basic_stringIcSt11char_traitsIcESaIcEEEE6SizeofEv
libadios2_cxx11.so.2:_ZNK6adios28VariableINSt7__cxx1112basic_stringIcSt11char_traitsIcESaIcEEEE7BlockIDEv
libadios2_cxx11.so.2:_ZNK6adios28VariableINSt7__cxx1112basic_stringIcSt11char_traitsIcESaIcEEEE7ShapeIDEv
libadios2_cxx11.so.2:_ZNK6adios28VariableINSt7__cxx1112basic_stringIcSt11char_traitsIcESaIcEEEEcvbEv
libadios2_cxx11.so.2:_ZNK6adios28VariableISt7complexIdEE10OperationsEv
libadios2_cxx11.so.2:_ZNK6adios28VariableISt7complexIdEE10StepsStartEv
libadios2_cxx11.so.2:_ZNK6adios28VariableISt7complexIdEE13SelectionSizeEv
libadios2_cxx11.so.2:_ZNK6adios28VariableISt7complexIdEE3MaxEm
libadios2_cxx11.so.2:_ZNK6adios28VariableISt7complexIdEE3MinEm
libadios2_cxx11.so.2:_ZNK6adios28VariableISt7complexIdEE4Info4DataEv
libadios2_cxx11.so.2:_ZNK6adios28VariableISt7complexIdEE4NameB5cxx11Ev
libadios2_cxx11.so.2:_ZNK6adios28VariableISt7complexIdEE4TypeB5cxx11Ev
libadios2_cxx11.so.2:_ZNK6adios28VariableISt7complexIdEE5CountEv
libadios2_cxx11.so.2:_ZNK6adios28VariableISt7complexIdEE5ShapeEm
libadios2_cxx11.so.2:_ZNK6adios28VariableISt7complexIdEE5StartEv
libadios2_cxx11.so.2:_ZNK6adios28VariableISt7complexIdEE5StepsEv
libadios2_cxx11.so.2:_ZNK6adios28VariableISt7complexIdEE6MinMaxEm
libadios2_cxx11.so.2:_ZNK6adios28VariableISt7complexIdEE6SizeofEv
libadios2_cxx11.so.2:_ZNK6adios28VariableISt7complexIdEE7BlockIDEv
libadios2_cxx11.so.2:_ZNK6adios28VariableISt7complexIdEE7ShapeIDEv
libadios2_cxx11.so.2:_ZNK6adios28VariableISt7complexIdEEcvbEv
libadios2_cxx11.so.2:_ZNK6adios28VariableISt7complexIfEE10OperationsEv
libadios2_cxx11.so.2:_ZNK6adios28VariableISt7complexIfEE10StepsStartEv
libadios2_cxx11.so.2:_ZNK6adios28VariableISt7complexIfEE13SelectionSizeEv
libadios2_cxx11.so.2:_ZNK6adios28VariableISt7complexIfEE3MaxEm
libadios2_cxx11.so.2:_ZNK6adios28VariableISt7complexIfEE3MinEm
libadios2_cxx11.so.2:_ZNK6adios28VariableISt7complexIfEE4Info4DataEv
libadios2_cxx11.so.2:_ZNK6adios28VariableISt7complexIfEE4NameB5cxx11Ev
libadios2_cxx11.so.2:_ZNK6adios28VariableISt7complexIfEE4TypeB5cxx11Ev
libadios2_cxx11.so.2:_ZNK6adios28VariableISt7complexIfEE5CountEv
libadios2_cxx11.so.2:_ZNK6adios28VariableISt7complexIfEE5ShapeEm
libadios2_cxx11.so.2:_ZNK6adios28VariableISt7complexIfEE5StartEv
libadios2_cxx11.so.2:_ZNK6adios28VariableISt7complexIfEE5StepsEv
libadios2_cxx11.so.2:_ZNK6adios28VariableISt7complexIfEE6MinMaxEm
libadios2_cxx11.so.2:_ZNK6adios28VariableISt7complexIfEE6SizeofEv
libadios2_cxx11.so.2:_ZNK6adios28VariableISt7complexIfEE7BlockIDEv
libadios2_cxx11.so.2:_ZNK6adios28VariableISt7complexIfEE7ShapeIDEv
libadios2_cxx11.so.2:_ZNK6adios28VariableISt7complexIfEEcvbEv
libadios2_cxx11.so.2:_ZNK6adios28VariableIaE10OperationsEv
libadios2_cxx11.so.2:_ZNK6adios28VariableIaE10StepsStartEv
libadios2_cxx11.so.2:_ZNK6adios28VariableIaE13SelectionSizeEv
libadios2_cxx11.so.2:_ZNK6adios28VariableIaE3MaxEm
libadios2_cxx11.so.2:_ZNK6adios28VariableIaE3MinEm
libadios2_cxx11.so.2:_ZNK6adios28VariableIaE4Info4DataEv
libadios2_cxx11.so.2:_ZNK6adios28VariableIaE4NameB5cxx11Ev
libadios2_cxx11.so.2:_ZNK6adios28VariableIaE4TypeB5cxx11Ev
libadios2_cxx11.so.2:_ZNK6adios28VariableIaE5CountEv
libadios2_cxx11.so.2:_ZNK6adios28VariableIaE5ShapeEm
libadios2_cxx11.so.2:_ZNK6adios28VariableIaE5StartEv
libadios2_cxx11.so.2:_ZNK6adios28VariableIaE5StepsEv
libadios2_cxx11.so.2:_ZNK6adios28VariableIaE6MinMaxEm
libadios2_cxx11.so.2:_ZNK6adios28VariableIaE6SizeofEv
libadios2_cxx11.so.2:_ZNK6adios28VariableIaE7BlockIDEv
libadios2_cxx11.so.2:_ZNK6adios28VariableIaE7ShapeIDEv
libadios2_cxx11.so.2:_ZNK6adios28VariableIaEcvbEv
libadios2_cxx11.so.2:_ZNK6adios28VariableIcE10OperationsEv
libadios2_cxx11.so.2:_ZNK6adios28VariableIcE10StepsStartEv
libadios2_cxx11.so.2:_ZNK6adios28VariableIcE13SelectionSizeEv
libadios2_cxx11.so.2:_ZNK6adios28VariableIcE3MaxEm
libadios2_cxx11.so.2:_ZNK6adios28VariableIcE3MinEm
libadios2_cxx11.so.2:_ZNK6adios28VariableIcE4Info4DataEv
libadios2_cxx11.so.2:_ZNK6adios28VariableIcE4NameB5cxx11Ev
libadios2_cxx11.so.2:_ZNK6adios28VariableIcE4TypeB5cxx11Ev
libadios2_cxx11.so.2:_ZNK6adios28VariableIcE5CountEv
libadios2_cxx11.so.2:_ZNK6adios28VariableIcE5ShapeEm
libadios2_cxx11.so.2:_ZNK6adios28VariableIcE5StartEv
libadios2_cxx11.so.2:_ZNK6adios28VariableIcE5StepsEv
libadios2_cxx11.so.2:_ZNK6adios28VariableIcE6MinMaxEm
libadios2_cxx11.so.2:_ZNK6adios28VariableIcE6SizeofEv
libadios2_cxx11.so.2:_ZNK6adios28VariableIcE7BlockIDEv
libadios2_cxx11.so.2:_ZNK6adios28VariableIcE7ShapeIDEv
libadios2_cxx11.so.2:_ZNK6adios28VariableIcEcvbEv
libadios2_cxx11.so.2:_ZNK6adios28VariableIdE10OperationsEv
libadios2_cxx11.so.2:_ZNK6adios28VariableIdE10StepsStartEv
libadios2_cxx11.so.2:_ZNK6adios28VariableIdE13SelectionSizeEv
libadios2_cxx11.so.2:_ZNK6adios28VariableIdE3MaxEm
libadios2_cxx11.so.2:_ZNK6adios28VariableIdE3MinEm
libadios2_cxx11.so.2:_ZNK6adios28VariableIdE4Info4DataEv
libadios2_cxx11.so.2:_ZNK6adios28VariableIdE4NameB5cxx11Ev
libadios2_cxx11.so.2:_ZNK6adios28VariableIdE4TypeB5cxx11Ev
libadios2_cxx11.so.2:_ZNK6adios28VariableIdE5CountEv
libadios2_cxx11.so.2:_ZNK6adios28VariableIdE5ShapeEm
libadios2_cxx11.so.2:_ZNK6adios28VariableIdE5StartEv
libadios2_cxx11.so.2:_ZNK6adios28VariableIdE5StepsEv
libadios2_cxx11.so.2:_ZNK6adios28VariableIdE6MinMaxEm
libadios2_cxx11.so.2:_ZNK6adios28VariableIdE6SizeofEv
libadios2_cxx11.so.2:_ZNK6adios28VariableIdE7BlockIDEv
libadios2_cxx11.so.2:_ZNK6adios28VariableIdE7ShapeIDEv
libadios2_cxx11.so.2:_ZNK6adios28VariableIdEcvbEv
libadios2_cxx11.so.2:_ZNK6adios28VariableIeE10OperationsEv
libadios2_cxx11.so.2:_ZNK6adios28VariableIeE10StepsStartEv
libadios2_cxx11.so.2:_ZNK6adios28VariableIeE13SelectionSizeEv
libadios2_cxx11.so.2:_ZNK6adios28VariableIeE3MaxEm
libadios2_cxx11.so.2:_ZNK6adios28VariableIeE3MinEm
libadios2_cxx11.so.2:_ZNK6adios28VariableIeE4Info4DataEv
libadios2_cxx11.so.2:_ZNK6adios28VariableIeE4NameB5cxx11Ev
libadios2_cxx11.so.2:_ZNK6adios28VariableIeE4TypeB5cxx11Ev
libadios2_cxx11.so.2:_ZNK6adios28VariableIeE5CountEv
libadios2_cxx11.so.2:_ZNK6adios28VariableIeE5ShapeEm
libadios2_cxx11.so.2:_ZNK6adios28VariableIeE5StartEv
libadios2_cxx11.so.2:_ZNK6adios28VariableIeE5StepsEv
libadios2_cxx11.so.2:_ZNK6adios28VariableIeE6MinMaxEm
libadios2_cxx11.so.2:_ZNK6adios28VariableIeE6SizeofEv
libadios2_cxx11.so.2:_ZNK6adios28VariableIeE7BlockIDEv
libadios2_cxx11.so.2:_ZNK6adios28VariableIeE7ShapeIDEv
libadios2_cxx11.so.2:_ZNK6adios28VariableIeEcvbEv
libadios2_cxx11.so.2:_ZNK6adios28VariableIfE10OperationsEv
libadios2_cxx11.so.2:_ZNK6adios28VariableIfE10StepsStartEv
libadios2_cxx11.so.2:_ZNK6adios28VariableIfE13SelectionSizeEv
libadios2_cxx11.so.2:_ZNK6adios28VariableIfE3MaxEm
libadios2_cxx11.so.2:_ZNK6adios28VariableIfE3MinEm
libadios2_cxx11.so.2:_ZNK6adios28VariableIfE4Info4DataEv
libadios2_cxx11.so.2:_ZNK6adios28VariableIfE4NameB5cxx11Ev
libadios2_cxx11.so.2:_ZNK6adios28VariableIfE4TypeB5cxx11Ev
libadios2_cxx11.so.2:_ZNK6adios28VariableIfE5CountEv
libadios2_cxx11.so.2:_ZNK6adios28VariableIfE5ShapeEm
libadios2_cxx11.so.2:_ZNK6adios28VariableIfE5StartEv
libadios2_cxx11.so.2:_ZNK6adios28VariableIfE5StepsEv
libadios2_cxx11.so.2:_ZNK6adios28VariableIfE6MinMaxEm
libadios2_cxx11.so.2:_ZNK6adios28VariableIfE6SizeofEv
libadios2_cxx11.so.2:_ZNK6adios28VariableIfE7BlockIDEv
libadios2_cxx11.so.2:_ZNK6adios28VariableIfE7ShapeIDEv
libadios2_cxx11.so.2:_ZNK6adios28VariableIfEcvbEv
libadios2_cxx11.so.2:_ZNK6adios28VariableIhE10OperationsEv
libadios2_cxx11.so.2:_ZNK6adios28VariableIhE10StepsStartEv
libadios2_cxx11.so.2:_ZNK6adios28VariableIhE13SelectionSizeEv
libadios2_cxx11.so.2:_ZNK6adios28VariableIhE3MaxEm
libadios2_cxx11.so.2:_ZNK6adios28VariableIhE3MinEm
libadios2_cxx11.so.2:_ZNK6adios28VariableIhE4Info4DataEv
libadios2_cxx11.so.2:_ZNK6adios28VariableIhE4NameB5cxx11Ev
libadios2_cxx11.so.2:_ZNK6adios28VariableIhE4TypeB5cxx11Ev
libadios2_cxx11.so.2:_ZNK6adios28VariableIhE5CountEv
libadios2_cxx11.so.2:_ZNK6adios28VariableIhE5ShapeEm
libadios2_cxx11.so.2:_ZNK6adios28VariableIhE5StartEv
libadios2_cxx11.so.2:_ZNK6adios28VariableIhE5StepsEv
libadios2_cxx11.so.2:_ZNK6adios28VariableIhE6MinMaxEm
libadios2_cxx11.so.2:_ZNK6adios28VariableIhE6SizeofEv
libadios2_cxx11.so.2:_ZNK6adios28VariableIhE7BlockIDEv
libadios2_cxx11.so.2:_ZNK6adios28VariableIhE7ShapeIDEv
libadios2_cxx11.so.2:_ZNK6adios28VariableIhEcvbEv
libadios2_cxx11.so.2:_ZNK6adios28VariableIiE10OperationsEv
libadios2_cxx11.so.2:_ZNK6adios28VariableIiE10StepsStartEv
libadios2_cxx11.so.2:_ZNK6adios28VariableIiE13SelectionSizeEv
libadios2_cxx11.so.2:_ZNK6adios28VariableIiE3MaxEm
libadios2_cxx11.so.2:_ZNK6adios28VariableIiE3MinEm
libadios2_cxx11.so.2:_ZNK6adios28VariableIiE4Info4DataEv
libadios2_cxx11.so.2:_ZNK6adios28VariableIiE4NameB5cxx11Ev
libadios2_cxx11.so.2:_ZNK6adios28VariableIiE4TypeB5cxx11Ev
libadios2_cxx11.so.2:_ZNK6adios28VariableIiE5CountEv
libadios2_cxx11.so.2:_ZNK6adios28VariableIiE5ShapeEm
libadios2_cxx11.so.2:_ZNK6adios28VariableIiE5StartEv
libadios2_cxx11.so.2:_ZNK6adios28VariableIiE5StepsEv
libadios2_cxx11.so.2:_ZNK6adios28VariableIiE6MinMaxEm
libadios2_cxx11.so.2:_ZNK6adios28VariableIiE6SizeofEv
libadios2_cxx11.so.2:_ZNK6adios28VariableIiE7BlockIDEv
libadios2_cxx11.so.2:_ZNK6adios28VariableIiE7ShapeIDEv
libadios2_cxx11.so.2:_ZNK6adios28VariableIiEcvbEv
libadios2_cxx11.so.2:_ZNK6adios28VariableIjE10OperationsEv
libadios2_cxx11.so.2:_ZNK6adios28VariableIjE10StepsStartEv
libadios2_cxx11.so.2:_ZNK6adios28VariableIjE13SelectionSizeEv
libadios2_cxx11.so.2:_ZNK6adios28VariableIjE3MaxEm
libadios2_cxx11.so.2:_ZNK6adios28VariableIjE3MinEm
libadios2_cxx11.so.2:_ZNK6adios28VariableIjE4Info4DataEv
libadios2_cxx11.so.2:_ZNK6adios28VariableIjE4NameB5cxx11Ev
libadios2_cxx11.so.2:_ZNK6adios28VariableIjE4TypeB5cxx11Ev
libadios2_cxx11.so.2:_ZNK6adios28VariableIjE5CountEv
libadios2_cxx11.so.2:_ZNK6adios28VariableIjE5ShapeEm
libadios2_cxx11.so.2:_ZNK6adios28VariableIjE5StartEv
libadios2_cxx11.so.2:_ZNK6adios28VariableIjE5StepsEv
libadios2_cxx11.so.2:_ZNK6adios28VariableIjE6MinMaxEm
libadios2_cxx11.so.2:_ZNK6adios28VariableIjE6SizeofEv
libadios2_cxx11.so.2:_ZNK6adios28VariableIjE7BlockIDEv
libadios2_cxx11.so.2:_ZNK6adios28VariableIjE7ShapeIDEv
libadios2_cxx11.so.2:_ZNK6adios28VariableIjEcvbEv
libadios2_cxx11.so.2:_ZNK6adios28VariableIlE10OperationsEv
libadios2_cxx11.so.2:_ZNK6adios28VariableIlE10StepsStartEv
libadios2_cxx11.so.2:_ZNK6adios28VariableIlE13SelectionSizeEv
libadios2_cxx11.so.2:_ZNK6adios28VariableIlE3MaxEm
libadios2_cxx11.so.2:_ZNK6adios28VariableIlE3MinEm
libadios2_cxx11.so.2:_ZNK6adios28VariableIlE4Info4DataEv
libadios2_cxx11.so.2:_ZNK6adios28VariableIlE4NameB5cxx11Ev
libadios2_cxx11.so.2:_ZNK6adios28VariableIlE4TypeB5cxx11Ev
libadios2_cxx11.so.2:_ZNK6adios28VariableIlE5CountEv
libadios2_cxx11.so.2:_ZNK6adios28VariableIlE5ShapeEm
libadios2_cxx11.so.2:_ZNK6adios28VariableIlE5StartEv
libadios2_cxx11.so.2:_ZNK6adios28VariableIlE5StepsEv
libadios2_cxx11.so.2:_ZNK6adios28VariableIlE6MinMaxEm
libadios2_cxx11.so.2:_ZNK6adios28VariableIlE6SizeofEv
libadios2_cxx11.so.2:_ZNK6adios28VariableIlE7BlockIDEv
libadios2_cxx11.so.2:_ZNK6adios28VariableIlE7ShapeIDEv
libadios2_cxx11.so.2:_ZNK6adios28VariableIlEcvbEv
libadios2_cxx11.so.2:_ZNK6adios28VariableImE10OperationsEv
libadios2_cxx11.so.2:_ZNK6adios28VariableImE10StepsStartEv
libadios2_cxx11.so.2:_ZNK6adios28VariableImE13SelectionSizeEv
libadios2_cxx11.so.2:_ZNK6adios28VariableImE3MaxEm
libadios2_cxx11.so.2:_ZNK6adios28VariableImE3MinEm
libadios2_cxx11.so.2:_ZNK6adios28VariableImE4Info4DataEv
libadios2_cxx11.so.2:_ZNK6adios28VariableImE4NameB5cxx11Ev
libadios2_cxx11.so.2:_ZNK6adios28VariableImE4TypeB5cxx11Ev
libadios2_cxx11.so.2:_ZNK6adios28VariableImE5CountEv
libadios2_cxx11.so.2:_ZNK6adios28VariableImE5ShapeEm
libadios2_cxx11.so.2:_ZNK6adios28VariableImE5StartEv
libadios2_cxx11.so.2:_ZNK6adios28VariableImE5StepsEv
libadios2_cxx11.so.2:_ZNK6adios28VariableImE6MinMaxEm
libadios2_cxx11.so.2:_ZNK6adios28VariableImE6SizeofEv
libadios2_cxx11.so.2:_ZNK6adios28VariableImE7BlockIDEv
libadios2_cxx11.so.2:_ZNK6adios28VariableImE7ShapeIDEv
libadios2_cxx11.so.2:_ZNK6adios28VariableImEcvbEv
libadios2_cxx11.so.2:_ZNK6adios28VariableIsE10OperationsEv
libadios2_cxx11.so.2:_ZNK6adios28VariableIsE10StepsStartEv
libadios2_cxx11.so.2:_ZNK6adios28VariableIsE13SelectionSizeEv
libadios2_cxx11.so.2:_ZNK6adios28VariableIsE3MaxEm
libadios2_cxx11.so.2:_ZNK6adios28VariableIsE3MinEm
libadios2_cxx11.so.2:_ZNK6adios28VariableIsE4Info4DataEv
libadios2_cxx11.so.2:_ZNK6adios28VariableIsE4NameB5cxx11Ev
libadios2_cxx11.so.2:_ZNK6adios28VariableIsE4TypeB5cxx11Ev
libadios2_cxx11.so.2:_ZNK6adios28VariableIsE5CountEv
libadios2_cxx11.so.2:_ZNK6adios28VariableIsE5ShapeEm
libadios2_cxx11.so.2:_ZNK6adios28VariableIsE5StartEv
libadios2_cxx11.so.2:_ZNK6adios28VariableIsE5StepsEv
libadios2_cxx11.so.2:_ZNK6adios28VariableIsE6MinMaxEm
libadios2_cxx11.so.2:_ZNK6adios28VariableIsE6SizeofEv
libadios2_cxx11.so.2:_ZNK6adios28VariableIsE7BlockIDEv
libadios2_cxx11.so.2:_ZNK6adios28VariableIsE7ShapeIDEv
libadios2_cxx11.so.2:_ZNK6adios28VariableIsEcvbEv
libadios2_cxx11.so.2:_ZNK6adios28VariableItE10OperationsEv
libadios2_cxx11.so.2:_ZNK6adios28VariableItE10StepsStartEv
libadios2_cxx11.so.2:_ZNK6adios28VariableItE13SelectionSizeEv
libadios2_cxx11.so.2:_ZNK6adios28VariableItE3MaxEm
libadios2_cxx11.so.2:_ZNK6adios28VariableItE3MinEm
libadios2_cxx11.so.2:_ZNK6adios28VariableItE4Info4DataEv
libadios2_cxx11.so.2:_ZNK6adios28VariableItE4NameB5cxx11Ev
libadios2_cxx11.so.2:_ZNK6adios28VariableItE4TypeB5cxx11Ev
libadios2_cxx11.so.2:_ZNK6adios28VariableItE5CountEv
libadios2_cxx11.so.2:_ZNK6adios28VariableItE5ShapeEm
libadios2_cxx11.so.2:_ZNK6adios28VariableItE5StartEv
libadios2_cxx11.so.2:_ZNK6adios28VariableItE5StepsEv
libadios2_cxx11.so.2:_ZNK6adios28VariableItE6MinMaxEm
libadios2_cxx11.so.2:_ZNK6adios28VariableItE6SizeofEv
libadios2_cxx11.so.2:_ZNK6adios28VariableItE7BlockIDEv
libadios2_cxx11.so.2:_ZNK6adios28VariableItE7ShapeIDEv
libadios2_cxx11.so.2:_ZNK6adios28VariableItEcvbEv
libadios2_cxx11.so.2:_ZNK6adios28VariableIxE10OperationsEv
libadios2_cxx11.so.2:_ZNK6adios28VariableIxE10StepsStartEv
libadios2_cxx11.so.2:_ZNK6adios28VariableIxE13SelectionSizeEv
libadios2_cxx11.so.2:_ZNK6adios28VariableIxE3MaxEm
libadios2_cxx11.so.2:_ZNK6adios28VariableIxE3MinEm
libadios2_cxx11.so.2:_ZNK6adios28VariableIxE4Info4DataEv
libadios2_cxx11.so.2:_ZNK6adios28VariableIxE4NameB5cxx11Ev
libadios2_cxx11.so.2:_ZNK6adios28VariableIxE4TypeB5cxx11Ev
libadios2_cxx11.so.2:_ZNK6adios28VariableIxE5CountEv
libadios2_cxx11.so.2:_ZNK6adios28VariableIxE5ShapeEm
libadios2_cxx11.so.2:_ZNK6adios28VariableIxE5StartEv
libadios2_cxx11.so.2:_ZNK6adios28VariableIxE5StepsEv
libadios2_cxx11.so.2:_ZNK6adios28VariableIxE6MinMaxEm
libadios2_cxx11.so.2:_ZNK6adios28VariableIxE6SizeofEv
libadios2_cxx11.so.2:_ZNK6adios28VariableIxE7BlockIDEv
libadios2_cxx11.so.2:_ZNK6adios28VariableIxE7ShapeIDEv
libadios2_cxx11.so.2:_ZNK6adios28VariableIxEcvbEv
libadios2_cxx11.so.2:_ZNK6adios28VariableIyE10OperationsEv
libadios2_cxx11.so.2:_ZNK6adios28VariableIyE10StepsStartEv
libadios2_cxx11.so.2:_ZNK6adios28VariableIyE13SelectionSizeEv
libadios2_cxx11.so.2:_ZNK6adios28VariableIyE3MaxEm
libadios2_cxx11.so.2:_ZNK6adios28VariableIyE3MinEm
libadios2_cxx11.so.2:_ZNK6adios28VariableIyE4Info4DataEv
libadios2_cxx11.so.2:_ZNK6adios28VariableIyE4NameB5cxx11Ev
libadios2_cxx11.so.2:_ZNK6adios28VariableIyE4TypeB5cxx11Ev
libadios2_cxx11.so.2:_ZNK6adios28VariableIyE5CountEv
libadios2_cxx11.so.2:_ZNK6adios28VariableIyE5ShapeEm
libadios2_cxx11.so.2:_ZNK6adios28VariableIyE5StartEv
libadios2_cxx11.so.2:_ZNK6adios28VariableIyE5StepsEv
libadios2_cxx11.so.2:_ZNK6adios28VariableIyE6MinMaxEm
libadios2_cxx11.so.2:_ZNK6adios28VariableIyE6SizeofEv
libadios2_cxx11.so.2:_ZNK6adios28VariableIyE7BlockIDEv
libadios2_cxx11.so.2:_ZNK6adios28VariableIyE7ShapeIDEv
libadios2_cxx11.so.2:_ZNK6adios28VariableIyEcvbEv
libadios2_cxx11.so.2:_ZNK6adios29AttributeINSt7__cxx1112basic_stringIcSt11char_traitsIcESaIcEEEE4DataEv
libadios2_cxx11.so.2:_ZNK6adios29AttributeINSt7__cxx1112basic_stringIcSt11char_traitsIcESaIcEEEE4NameEv
libadios2_cxx11.so.2:_ZNK6adios29AttributeINSt7__cxx1112basic_stringIcSt11char_traitsIcESaIcEEEE4TypeEv
libadios2_cxx11.so.2:_ZNK6adios29AttributeINSt7__cxx1112basic_stringIcSt11char_traitsIcESaIcEEEEcvbEv
libadios2_cxx11.so.2:_ZNK6adios29AttributeISt7complexIdEE4DataEv
libadios2_cxx11.so.2:_ZNK6adios29AttributeISt7complexIdEE4NameB5cxx11Ev
libadios2_cxx11.so.2:_ZNK6adios29AttributeISt7complexIdEE4TypeB5cxx11Ev
libadios2_cxx11.so.2:_ZNK6adios29AttributeISt7complexIdEEcvbEv
libadios2_cxx11.so.2:_ZNK6adios29AttributeISt7complexIfEE4DataEv
libadios2_cxx11.so.2:_ZNK6adios29AttributeISt7complexIfEE4NameB5cxx11Ev
libadios2_cxx11.so.2:_ZNK6adios29AttributeISt7complexIfEE4TypeB5cxx11Ev
libadios2_cxx11.so.2:_ZNK6adios29AttributeISt7complexIfEEcvbEv
libadios2_cxx11.so.2:_ZNK6adios29AttributeIaE4DataEv
libadios2_cxx11.so.2:_ZNK6adios29AttributeIaE4NameB5cxx11Ev
libadios2_cxx11.so.2:_ZNK6adios29AttributeIaE4TypeB5cxx11Ev
libadios2_cxx11.so.2:_ZNK6adios29AttributeIaEcvbEv
libadios2_cxx11.so.2:_ZNK6adios29AttributeIcE4DataEv
libadios2_cxx11.so.2:_ZNK6adios29AttributeIcE4NameB5cxx11Ev
libadios2_cxx11.so.2:_ZNK6adios29AttributeIcE4TypeB5cxx11Ev
libadios2_cxx11.so.2:_ZNK6adios29AttributeIcEcvbEv
libadios2_cxx11.so.2:_ZNK6adios29AttributeIdE4DataEv
libadios2_cxx11.so.2:_ZNK6adios29AttributeIdE4NameB5cxx11Ev
libadios2_cxx11.so.2:_ZNK6adios29AttributeIdE4TypeB5cxx11Ev
libadios2_cxx11.so.2:_ZNK6adios29AttributeIdEcvbEv
libadios2_cxx11.so.2:_ZNK6adios29AttributeIeE4DataEv
libadios2_cxx11.so.2:_ZNK6adios29AttributeIeE4NameB5cxx11Ev
libadios2_cxx11.so.2:_ZNK6adios29AttributeIeE4TypeB5cxx11Ev
libadios2_cxx11.so.2:_ZNK6adios29AttributeIeEcvbEv
libadios2_cxx11.so.2:_ZNK6adios29AttributeIfE4DataEv
libadios2_cxx11.so.2:_ZNK6adios29AttributeIfE4NameB5cxx11Ev
libadios2_cxx11.so.2:_ZNK6adios29AttributeIfE4TypeB5cxx11Ev
libadios2_cxx11.so.2:_ZNK6adios29AttributeIfEcvbEv
libadios2_cxx11.so.2:_ZNK6adios29AttributeIhE4DataEv
libadios2_cxx11.so.2:_ZNK6adios29AttributeIhE4NameB5cxx11Ev
libadios2_cxx11.so.2:_ZNK6adios29AttributeIhE4TypeB5cxx11Ev
libadios2_cxx11.so.2:_ZNK6adios29AttributeIhEcvbEv
libadios2_cxx11.so.2:_ZNK6adios29AttributeIiE4DataEv
libadios2_cxx11.so.2:_ZNK6adios29AttributeIiE4NameB5cxx11Ev
libadios2_cxx11.so.2:_ZNK6adios29AttributeIiE4TypeB5cxx11Ev
libadios2_cxx11.so.2:_ZNK6adios29AttributeIiEcvbEv
libadios2_cxx11.so.2:_ZNK6adios29AttributeIjE4DataEv
libadios2_cxx11.so.2:_ZNK6adios29AttributeIjE4NameB5cxx11Ev
libadios2_cxx11.so.2:_ZNK6adios29AttributeIjE4TypeB5cxx11Ev
libadios2_cxx11.so.2:_ZNK6adios29AttributeIjEcvbEv
libadios2_cxx11.so.2:_ZNK6adios29AttributeIlE4DataEv
libadios2_cxx11.so.2:_ZNK6adios29AttributeIlE4NameB5cxx11Ev
libadios2_cxx11.so.2:_ZNK6adios29AttributeIlE4TypeB5cxx11Ev
libadios2_cxx11.so.2:_ZNK6adios29AttributeIlEcvbEv
libadios2_cxx11.so.2:_ZNK6adios29AttributeImE4DataEv
libadios2_cxx11.so.2:_ZNK6adios29AttributeImE4NameB5cxx11Ev
libadios2_cxx11.so.2:_ZNK6adios29AttributeImE4TypeB5cxx11Ev
libadios2_cxx11.so.2:_ZNK6adios29AttributeImEcvbEv
libadios2_cxx11.so.2:_ZNK6adios29AttributeIsE4DataEv
libadios2_cxx11.so.2:_ZNK6adios29AttributeIsE4NameB5cxx11Ev
libadios2_cxx11.so.2:_ZNK6adios29AttributeIsE4TypeB5cxx11Ev
libadios2_cxx11.so.2:_ZNK6adios29AttributeIsEcvbEv
libadios2_cxx11.so.2:_ZNK6adios29AttributeItE4DataEv
libadios2_cxx11.so.2:_ZNK6adios29AttributeItE4NameB5cxx11Ev
libadios2_cxx11.so.2:_ZNK6adios29AttributeItE4TypeB5cxx11Ev
libadios2_cxx11.so.2:_ZNK6adios29AttributeItEcvbEv
libadios2_cxx11.so.2:_ZNK6adios29AttributeIxE4DataEv
libadios2_cxx11.so.2:_ZNK6adios29AttributeIxE4NameB5cxx11Ev
libadios2_cxx11.so.2:_ZNK6adios29AttributeIxE4TypeB5cxx11Ev
libadios2_cxx11.so.2:_ZNK6adios29AttributeIxEcvbEv
libadios2_cxx11.so.2:_ZNK6adios29AttributeIyE4DataEv
libadios2_cxx11.so.2:_ZNK6adios29AttributeIyE4NameB5cxx11Ev
libadios2_cxx11.so.2:_ZNK6adios29AttributeIyE4TypeB5cxx11Ev
libadios2_cxx11.so.2:_ZNK6adios29AttributeIyEcvbEv
libadios2_cxx11.so.2:__bss_start
libadios2_cxx11.so.2:_edata
libadios2_cxx11.so.2:_end
libadios2_dill.so.2:DILLprint_version
libadios2_dill.so.2:alloc_dill_jump_table
libadios2_dill.so.2:arith2_name
libadios2_dill.so.2:arith3_name
libadios2_dill.so.2:branch_op_names
libadios2_dill.so.2:compare_op_names
libadios2_dill.so.2:dill_add_const
libadios2_dill.so.2:dill_add_poly_map
libadios2_dill.so.2:dill_alloc_label
libadios2_dill.so.2:dill_alloc_specific
libadios2_dill.so.2:dill_and_poly_map
libadios2_dill.so.2:dill_assoc_client_data
libadios2_dill.so.2:dill_begin_prefix_code
libadios2_dill.so.2:dill_clone_code
libadios2_dill.so.2:dill_code_size
libadios2_dill.so.2:dill_create_raw_stream
libadios2_dill.so.2:dill_create_stream
libadios2_dill.so.2:dill_cross_init
libadios2_dill.so.2:dill_dealloc_specific
libadios2_dill.so.2:dill_div_poly_map
libadios2_dill.so.2:dill_do_reverse_vararg_push
libadios2_dill.so.2:dill_dump
libadios2_dill.so.2:dill_dump_reg
libadios2_dill.so.2:dill_end_vararg_push
libadios2_dill.so.2:dill_error
libadios2_dill.so.2:dill_finalize
libadios2_dill.so.2:dill_finalize_package
libadios2_dill.so.2:dill_free_exec_context
libadios2_dill.so.2:dill_free_handle
libadios2_dill.so.2:dill_free_stream
libadios2_dill.so.2:dill_get_client_data
libadios2_dill.so.2:dill_get_exec_context
libadios2_dill.so.2:dill_get_fp
libadios2_dill.so.2:dill_get_handle
libadios2_dill.so.2:dill_getreg
libadios2_dill.so.2:dill_getvblock
libadios2_dill.so.2:dill_is_label_mark
libadios2_dill.so.2:dill_lookup_xfer_addrs
libadios2_dill.so.2:dill_lsh_poly_map
libadios2_dill.so.2:dill_mark_branch_location
libadios2_dill.so.2:dill_mark_call_location
libadios2_dill.so.2:dill_mark_label
libadios2_dill.so.2:dill_mark_ret_location
libadios2_dill.so.2:dill_markused
libadios2_dill.so.2:dill_mod_poly_map
libadios2_dill.so.2:dill_mul_poly_map
libadios2_dill.so.2:dill_mustsave
libadios2_dill.so.2:dill_native_dcg
libadios2_dill.so.2:dill_or_poly_map
libadios2_dill.so.2:dill_package_entry
libadios2_dill.so.2:dill_package_stitch
libadios2_dill.so.2:dill_param_alloc
libadios2_dill.so.2:dill_param_reg
libadios2_dill.so.2:dill_param_struct_alloc
libadios2_dill.so.2:dill_pbr
libadios2_dill.so.2:dill_pcompare
libadios2_dill.so.2:dill_raw_availreg
libadios2_dill.so.2:dill_raw_getreg
libadios2_dill.so.2:dill_raw_putreg
libadios2_dill.so.2:dill_raw_unavailreg
libadios2_dill.so.2:dill_ref_handle
libadios2_dill.so.2:dill_rsh_poly_map
libadios2_dill.so.2:dill_scalld
libadios2_dill.so.2:dill_scallf
libadios2_dill.so.2:dill_scalli
libadios2_dill.so.2:dill_scalll
libadios2_dill.so.2:dill_scallp
libadios2_dill.so.2:dill_scallu
libadios2_dill.so.2:dill_scallul
libadios2_dill.so.2:dill_scallv
libadios2_dill.so.2:dill_set_foreign_cg
libadios2_dill.so.2:dill_start_proc
libadios2_dill.so.2:dill_start_simple_proc
libadios2_dill.so.2:dill_sub_poly_map
libadios2_dill.so.2:dill_take_code
libadios2_dill.so.2:dill_type_names
libadios2_dill.so.2:dill_type_of
libadios2_dill.so.2:dill_virtual_init
libadios2_dill.so.2:dill_virtual_lea
libadios2_dill.so.2:dill_vparam
libadios2_dill.so.2:dill_wasused
libadios2_dill.so.2:dill_x86_64_hidden_DtoUL
libadios2_dill.so.2:dill_x86_64_hidden_ULtoD
libadios2_dill.so.2:dill_x86_64_init
libadios2_dill.so.2:dill_xor_poly_map
libadios2_dill.so.2:dump_cur_dill_insn
libadios2_dill.so.2:emulate_arith2
libadios2_dill.so.2:emulate_arith3
libadios2_dill.so.2:emulate_arith3i
libadios2_dill.so.2:emulate_branch
libadios2_dill.so.2:emulate_branchi
libadios2_dill.so.2:emulate_compare
libadios2_dill.so.2:emulate_convert
libadios2_dill.so.2:emulate_loadi
libadios2_dill.so.2:emulate_storei
libadios2_dill.so.2:extend_dill_stream
libadios2_dill.so.2:float_regs
libadios2_dill.so.2:foreach_bit
libadios2_dill.so.2:gen_x86_64_mach_info
libadios2_dill.so.2:get_this_ptr
libadios2_dill.so.2:get_xfer_ptr
libadios2_dill.so.2:init_code_block
libadios2_dill.so.2:long_regs
libadios2_dill.so.2:virtual_a2
libadios2_dill.so.2:virtual_a2_data
libadios2_dill.so.2:virtual_a3
libadios2_dill.so.2:virtual_a3_data
libadios2_dill.so.2:virtual_a3i
libadios2_dill.so.2:virtual_a3i_data
libadios2_dill.so.2:virtual_b
libadios2_dill.so.2:virtual_b_data
libadios2_dill.so.2:virtual_bi
libadios2_dill.so.2:virtual_c
libadios2_dill.so.2:virtual_c_data
libadios2_dill.so.2:virtual_calli
libadios2_dill.so.2:virtual_callr
libadios2_dill.so.2:virtual_ci
libadios2_dill.so.2:virtual_convert
libadios2_dill.so.2:virtual_end
libadios2_dill.so.2:virtual_jump_table
libadios2_dill.so.2:virtual_jump_to_imm
libadios2_dill.so.2:virtual_jump_to_reg
libadios2_dill.so.2:virtual_lea
libadios2_dill.so.2:virtual_load
libadios2_dill.so.2:virtual_loadi
libadios2_dill.so.2:virtual_mov
libadios2_dill.so.2:virtual_package_end
libadios2_dill.so.2:virtual_pbsload
libadios2_dill.so.2:virtual_pbsloadi
libadios2_dill.so.2:virtual_print_insn
libadios2_dill.so.2:virtual_proc_start
libadios2_dill.so.2:virtual_pset
libadios2_dill.so.2:virtual_push
libadios2_dill.so.2:virtual_pushfi
libadios2_dill.so.2:virtual_pushi
libadios2_dill.so.2:virtual_pushpi
libadios2_dill.so.2:virtual_ret
libadios2_dill.so.2:virtual_reti
libadios2_dill.so.2:virtual_setf
libadios2_dill.so.2:virtual_setp
libadios2_dill.so.2:virtual_special
libadios2_dill.so.2:virtual_store
libadios2_dill.so.2:virtual_storei
libadios2_dill.so.2:virtual_table_s
libadios2_dill.so.2:virtual_type_align
libadios2_dill.so.2:virtual_type_size
libadios2_dill.so.2:x86_64_a2
libadios2_dill.so.2:x86_64_a2_data
libadios2_dill.so.2:x86_64_a3
libadios2_dill.so.2:x86_64_a3_data
libadios2_dill.so.2:x86_64_a3i
libadios2_dill.so.2:x86_64_a3i_data
libadios2_dill.so.2:x86_64_arith2
libadios2_dill.so.2:x86_64_arith3
libadios2_dill.so.2:x86_64_arith3i
libadios2_dill.so.2:x86_64_b
libadios2_dill.so.2:x86_64_b_data
libadios2_dill.so.2:x86_64_bi
libadios2_dill.so.2:x86_64_branch
libadios2_dill.so.2:x86_64_branchi
libadios2_dill.so.2:x86_64_bswap
libadios2_dill.so.2:x86_64_c
libadios2_dill.so.2:x86_64_c_data
libadios2_dill.so.2:x86_64_calli
libadios2_dill.so.2:x86_64_callr
libadios2_dill.so.2:x86_64_ci
libadios2_dill.so.2:x86_64_clone_code
libadios2_dill.so.2:x86_64_compare
libadios2_dill.so.2:x86_64_comparei
libadios2_dill.so.2:x86_64_convert
libadios2_dill.so.2:x86_64_count_insn
libadios2_dill.so.2:x86_64_div
libadios2_dill.so.2:x86_64_div_mod
libadios2_dill.so.2:x86_64_div_modi
libadios2_dill.so.2:x86_64_divi
libadios2_dill.so.2:x86_64_end
libadios2_dill.so.2:x86_64_farith
libadios2_dill.so.2:x86_64_farith2
libadios2_dill.so.2:x86_64_init_disassembly_info
libadios2_dill.so.2:x86_64_jal
libadios2_dill.so.2:x86_64_jump_table
libadios2_dill.so.2:x86_64_jump_to_imm
libadios2_dill.so.2:x86_64_jump_to_label
libadios2_dill.so.2:x86_64_jump_to_reg
libadios2_dill.so.2:x86_64_local
libadios2_dill.so.2:x86_64_local_op
libadios2_dill.so.2:x86_64_localb
libadios2_dill.so.2:x86_64_mov
libadios2_dill.so.2:x86_64_mul
libadios2_dill.so.2:x86_64_package_end
libadios2_dill.so.2:x86_64_package_stitch
libadios2_dill.so.2:x86_64_pbsload
libadios2_dill.so.2:x86_64_pbsloadi
libadios2_dill.so.2:x86_64_pload
libadios2_dill.so.2:x86_64_ploadi
libadios2_dill.so.2:x86_64_print_insn
libadios2_dill.so.2:x86_64_print_reg
libadios2_dill.so.2:x86_64_proc_start
libadios2_dill.so.2:x86_64_pset
libadios2_dill.so.2:x86_64_pstore
libadios2_dill.so.2:x86_64_pstorei
libadios2_dill.so.2:x86_64_push
libadios2_dill.so.2:x86_64_pushfi
libadios2_dill.so.2:x86_64_pushi
libadios2_dill.so.2:x86_64_pushpi
libadios2_dill.so.2:x86_64_reg_init
libadios2_dill.so.2:x86_64_ret
libadios2_dill.so.2:x86_64_retf
libadios2_dill.so.2:x86_64_reti
libadios2_dill.so.2:x86_64_rt_call_link
libadios2_dill.so.2:x86_64_save_restore_op
libadios2_dill.so.2:x86_64_setf
libadios2_dill.so.2:x86_64_setp
libadios2_dill.so.2:x86_64_shift
libadios2_dill.so.2:x86_64_shifti
libadios2_dill.so.2:x86_64_special
libadios2_dill.so.2:x86_64_table_s
libadios2_dill.so.2:x86_64_type_align
libadios2_dill.so.2:x86_64_type_size
libadios2_enet.so.1:enet_address_get_host
libadios2_enet.so.1:enet_address_get_host_ip
libadios2_enet.so.1:enet_address_set_host
libadios2_enet.so.1:enet_address_set_host_ip
libadios2_enet.so.1:enet_crc32
libadios2_enet.so.1:enet_deinitialize
libadios2_enet.so.1:enet_free
libadios2_enet.so.1:enet_host_bandwidth_limit
libadios2_enet.so.1:enet_host_bandwidth_throttle
libadios2_enet.so.1:enet_host_broadcast
libadios2_enet.so.1:enet_host_channel_limit
libadios2_enet.so.1:enet_host_check_events
libadios2_enet.so.1:enet_host_compress
libadios2_enet.so.1:enet_host_compress_with_range_coder
libadios2_enet.so.1:enet_host_connect
libadios2_enet.so.1:enet_host_create
libadios2_enet.so.1:enet_host_destroy
libadios2_enet.so.1:enet_host_flush
libadios2_enet.so.1:enet_host_get_sock_fd
libadios2_enet.so.1:enet_host_random_seed
libadios2_enet.so.1:enet_host_service
libadios2_enet.so.1:enet_initialize
libadios2_enet.so.1:enet_initialize_with_callbacks
libadios2_enet.so.1:enet_linked_version
libadios2_enet.so.1:enet_list_clear
libadios2_enet.so.1:enet_list_insert
libadios2_enet.so.1:enet_list_move
libadios2_enet.so.1:enet_list_remove
libadios2_enet.so.1:enet_list_size
libadios2_enet.so.1:enet_malloc
libadios2_enet.so.1:enet_packet_create
libadios2_enet.so.1:enet_packet_destroy
libadios2_enet.so.1:enet_packet_resize
libadios2_enet.so.1:enet_peer_disconnect
libadios2_enet.so.1:enet_peer_disconnect_later
libadios2_enet.so.1:enet_peer_disconnect_now
libadios2_enet.so.1:enet_peer_dispatch_incoming_reliable_commands
libadios2_enet.so.1:enet_peer_dispatch_incoming_unreliable_commands
libadios2_enet.so.1:enet_peer_on_connect
libadios2_enet.so.1:enet_peer_on_disconnect
libadios2_enet.so.1:enet_peer_ping
libadios2_enet.so.1:enet_peer_ping_interval
libadios2_enet.so.1:enet_peer_queue_acknowledgement
libadios2_enet.so.1:enet_peer_queue_incoming_command
libadios2_enet.so.1:enet_peer_queue_outgoing_command
libadios2_enet.so.1:enet_peer_receive
libadios2_enet.so.1:enet_peer_reset
libadios2_enet.so.1:enet_peer_reset_queues
libadios2_enet.so.1:enet_peer_send
libadios2_enet.so.1:enet_peer_setup_outgoing_command
libadios2_enet.so.1:enet_peer_throttle
libadios2_enet.so.1:enet_peer_throttle_configure
libadios2_enet.so.1:enet_peer_timeout
libadios2_enet.so.1:enet_protocol_command_size
libadios2_enet.so.1:enet_range_coder_compress
libadios2_enet.so.1:enet_range_coder_create
libadios2_enet.so.1:enet_range_coder_decompress
libadios2_enet.so.1:enet_range_coder_destroy
libadios2_enet.so.1:enet_socket_accept
libadios2_enet.so.1:enet_socket_bind
libadios2_enet.so.1:enet_socket_connect
libadios2_enet.so.1:enet_socket_create
libadios2_enet.so.1:enet_socket_destroy
libadios2_enet.so.1:enet_socket_get_address
libadios2_enet.so.1:enet_socket_get_option
libadios2_enet.so.1:enet_socket_listen
libadios2_enet.so.1:enet_socket_receive
libadios2_enet.so.1:enet_socket_send
libadios2_enet.so.1:enet_socket_set_option
libadios2_enet.so.1:enet_socket_shutdown
libadios2_enet.so.1:enet_socket_wait
libadios2_enet.so.1:enet_socketset_select
libadios2_enet.so.1:enet_time_get
libadios2_enet.so.1:enet_time_set
libadios2_evpath.so:ACT_string
libadios2_evpath.so:CMCondition_destroy
libadios2_evpath.so:CMCondition_get
libadios2_evpath.so:CMCondition_get_client_data
libadios2_evpath.so:CMCondition_has_failed
libadios2_evpath.so:CMCondition_has_signaled
libadios2_evpath.so:CMCondition_set_client_data
libadios2_evpath.so:CMCondition_signal
libadios2_evpath.so:CMCondition_wait
libadios2_evpath.so:CMConnection_add_reference
libadios2_evpath.so:CMConnection_close
libadios2_evpath.so:CMConnection_create
libadios2_evpath.so:CMConnection_dereference
libadios2_evpath.so:CMConnection_get_attrs
libadios2_evpath.so:CMConnection_set_character
libadios2_evpath.so:CMConnection_write_would_block
libadios2_evpath.so:CMControlList_set_blocking_func
libadios2_evpath.so:CMDataAvailable
libadios2_evpath.so:CMTrace_file_id
libadios2_evpath.so:CMWriteQueuedData
libadios2_evpath.so:CM_BW_MEASURED_COF
libadios2_evpath.so:CM_BW_MEASURED_VALUE
libadios2_evpath.so:CM_BW_MEASURE_INTERVAL
libadios2_evpath.so:CM_BW_MEASURE_SIZE
libadios2_evpath.so:CM_BW_MEASURE_SIZEINC
libadios2_evpath.so:CM_BW_MEASURE_TASK
libadios2_evpath.so:CM_REBWM_REPT
libadios2_evpath.so:CM_REBWM_RLEN
libadios2_evpath.so:CM_fd_add_select
libadios2_evpath.so:CM_fd_remove_select
libadios2_evpath.so:CM_fd_write_select
libadios2_evpath.so:CM_insert_contact_info
libadios2_evpath.so:CM_pbio_query
libadios2_evpath.so:CMadd_delayed_task
libadios2_evpath.so:CMadd_periodic
libadios2_evpath.so:CMadd_periodic_task
libadios2_evpath.so:CMadd_poll
libadios2_evpath.so:CMadd_shutdown_task
libadios2_evpath.so:CMadd_stone_to_global_lookup
libadios2_evpath.so:CManager_close
libadios2_evpath.so:CManager_create
libadios2_evpath.so:CManager_create_control
libadios2_evpath.so:CManager_locked
libadios2_evpath.so:CMcomplete_format_registration
libadios2_evpath.so:CMconn_fail_conditions
libadios2_evpath.so:CMconn_register_close_handler
libadios2_evpath.so:CMcontact_self_check
libadios2_evpath.so:CMcontrol_list_wait
libadios2_evpath.so:CMcreate_conversion
libadios2_evpath.so:CMderef_and_copy_list
libadios2_evpath.so:CMdladdsearchdir
libadios2_evpath.so:CMdlclearsearchlist
libadios2_evpath.so:CMdlclose
libadios2_evpath.so:CMdlopen
libadios2_evpath.so:CMdlsym
libadios2_evpath.so:CMdo_non_CM_handler
libadios2_evpath.so:CMdo_performance_response
libadios2_evpath.so:CMfork_comm_thread
libadios2_evpath.so:CMformat_preload
libadios2_evpath.so:CMfree
libadios2_evpath.so:CMget_FMcontext
libadios2_evpath.so:CMget_conn
libadios2_evpath.so:CMget_contact_list
libadios2_evpath.so:CMget_indexed_conn
libadios2_evpath.so:CMget_ip_config_diagnostics
libadios2_evpath.so:CMget_port_range
libadios2_evpath.so:CMget_qual_hostname
libadios2_evpath.so:CMget_self_ip_addr
libadios2_evpath.so:CMget_specific_contact_list
libadios2_evpath.so:CMget_static_trans_services
libadios2_evpath.so:CMget_transport_data
libadios2_evpath.so:CMidentify_CMformat
libadios2_evpath.so:CMidentify_rollbackCMformat
libadios2_evpath.so:CMinit_local_formats
libadios2_evpath.so:CMinitiate_conn
libadios2_evpath.so:CMinstall_perf_upcall
libadios2_evpath.so:CMinstall_pull_schedule
libadios2_evpath.so:CMint_add_ref_attr_list
libadios2_evpath.so:CMint_attr_copy_list
libadios2_evpath.so:CMint_attr_merge_lists
libadios2_evpath.so:CMint_create_attr_list
libadios2_evpath.so:CMint_decode_attr_from_xmit
libadios2_evpath.so:CMint_free_attr_list
libadios2_evpath.so:CMinternal_get_conn
libadios2_evpath.so:CMinternal_initiate_conn
libadios2_evpath.so:CMinternal_listen
libadios2_evpath.so:CMlisten
libadios2_evpath.so:CMlisten_specific
libadios2_evpath.so:CMlookup_format
libadios2_evpath.so:CMmalloc
libadios2_evpath.so:CMpbio_get_format_rep_callback
libadios2_evpath.so:CMpbio_get_port_callback
libadios2_evpath.so:CMpbio_send_format_preload
libadios2_evpath.so:CMpoll_network
libadios2_evpath.so:CMprobe_bandwidth
libadios2_evpath.so:CMprobe_latency
libadios2_evpath.so:CMrealloc
libadios2_evpath.so:CMregister_format
libadios2_evpath.so:CMregister_handler
libadios2_evpath.so:CMregister_invalid_message_handler
libadios2_evpath.so:CMregister_non_CM_message_handler
libadios2_evpath.so:CMregister_simple_format
libadios2_evpath.so:CMregister_write_callback
libadios2_evpath.so:CMregressive_probe_bandwidth
libadios2_evpath.so:CMremove_periodic
libadios2_evpath.so:CMremove_task
libadios2_evpath.so:CMreturn_buffer
libadios2_evpath.so:CMrun_network
libadios2_evpath.so:CMself_hosted_formats
libadios2_evpath.so:CMset_dlopen_verbose
libadios2_evpath.so:CMsleep
libadios2_evpath.so:CMstatic_trans_svcs
libadios2_evpath.so:CMtake_buffer
libadios2_evpath.so:CMtest_transport
libadios2_evpath.so:CMtrace_PID
libadios2_evpath.so:CMtrace_init
libadios2_evpath.so:CMtrace_timing
libadios2_evpath.so:CMtrace_val
libadios2_evpath.so:CMtransport_trace
libadios2_evpath.so:CMtransport_verbose
libadios2_evpath.so:CMusleep
libadios2_evpath.so:CMwake_server_thread
libadios2_evpath.so:CMwrite
libadios2_evpath.so:CMwrite_attr
libadios2_evpath.so:EVPinit
libadios2_evpath.so:EV_EVevent_list_response_flds
libadios2_evpath.so:EV_EVevent_list_response_formats
libadios2_evpath.so:EV_int_response_flds
libadios2_evpath.so:EV_int_response_formats
libadios2_evpath.so:EV_string_response_flds
libadios2_evpath.so:EV_string_response_formats
libadios2_evpath.so:EV_void_response_flds
libadios2_evpath.so:EV_void_response_formats
libadios2_evpath.so:EVaction_add_split_target
libadios2_evpath.so:EVaction_add_split_target_req_flds
libadios2_evpath.so:EVaction_add_split_target_req_formats
libadios2_evpath.so:EVaction_remove_split_target
libadios2_evpath.so:EVaction_remove_split_target_req_flds
libadios2_evpath.so:EVaction_remove_split_target_req_formats
libadios2_evpath.so:EVaction_set_output
libadios2_evpath.so:EVaction_set_output_req_flds
libadios2_evpath.so:EVaction_set_output_req_formats
libadios2_evpath.so:EVadd_dll_search_dir
libadios2_evpath.so:EVadd_standard_routines
libadios2_evpath.so:EVadd_standard_structs
libadios2_evpath.so:EValloc_stone
libadios2_evpath.so:EValloc_stone_req_flds
libadios2_evpath.so:EValloc_stone_req_formats
libadios2_evpath.so:EVassoc_bridge_action
libadios2_evpath.so:EVassoc_bridge_action_req_flds
libadios2_evpath.so:EVassoc_bridge_action_req_formats
libadios2_evpath.so:EVassoc_congestion_action
libadios2_evpath.so:EVassoc_conversion_action
libadios2_evpath.so:EVassoc_filter_action
libadios2_evpath.so:EVassoc_filter_action_req_flds
libadios2_evpath.so:EVassoc_filter_action_req_formats
libadios2_evpath.so:EVassoc_immediate_action
libadios2_evpath.so:EVassoc_immediate_action_req_flds
libadios2_evpath.so:EVassoc_immediate_action_req_formats
libadios2_evpath.so:EVassoc_multi_action
libadios2_evpath.so:EVassoc_multi_action_req_flds
libadios2_evpath.so:EVassoc_multi_action_req_formats
libadios2_evpath.so:EVassoc_output_action
libadios2_evpath.so:EVassoc_raw_terminal_action
libadios2_evpath.so:EVassoc_split_action
libadios2_evpath.so:EVassoc_split_action_req_flds
libadios2_evpath.so:EVassoc_split_action_req_formats
libadios2_evpath.so:EVassoc_store_action
libadios2_evpath.so:EVassoc_store_action_req_flds
libadios2_evpath.so:EVassoc_store_action_req_formats
libadios2_evpath.so:EVassoc_terminal_action
libadios2_evpath.so:EVassoc_terminal_action_req_flds
libadios2_evpath.so:EVassoc_terminal_action_req_formats
libadios2_evpath.so:EVassoc_thread_bridge_action
libadios2_evpath.so:EVclear_stored
libadios2_evpath.so:EVclear_stored_req_flds
libadios2_evpath.so:EVclear_stored_req_formats
libadios2_evpath.so:EVclient_active_sink_count
libadios2_evpath.so:EVclient_assoc
libadios2_evpath.so:EVclient_assoc_local
libadios2_evpath.so:EVclient_force_shutdown
libadios2_evpath.so:EVclient_ready_for_shutdown
libadios2_evpath.so:EVclient_ready_wait
libadios2_evpath.so:EVclient_register_raw_sink_handler
libadios2_evpath.so:EVclient_register_sink_handler
libadios2_evpath.so:EVclient_register_source
libadios2_evpath.so:EVclient_shutdown
libadios2_evpath.so:EVclient_source_active
libadios2_evpath.so:EVclient_test_for_shutdown
libadios2_evpath.so:EVclient_wait_for_shutdown
libadios2_evpath.so:EVcreate_auto_stone
libadios2_evpath.so:EVcreate_auto_stone_req_flds
libadios2_evpath.so:EVcreate_auto_stone_req_formats
libadios2_evpath.so:EVcreate_bridge_action
libadios2_evpath.so:EVcreate_bridge_action_req_flds
libadios2_evpath.so:EVcreate_bridge_action_req_formats
libadios2_evpath.so:EVcreate_immediate_action
libadios2_evpath.so:EVcreate_immediate_action_req_flds
libadios2_evpath.so:EVcreate_immediate_action_req_formats
libadios2_evpath.so:EVcreate_output_action
libadios2_evpath.so:EVcreate_split_action
libadios2_evpath.so:EVcreate_split_action_req_flds
libadios2_evpath.so:EVcreate_split_action_req_formats
libadios2_evpath.so:EVcreate_stone_action
libadios2_evpath.so:EVcreate_stone_action_req_flds
libadios2_evpath.so:EVcreate_stone_action_req_formats
libadios2_evpath.so:EVcreate_store_action
libadios2_evpath.so:EVcreate_store_action_req_flds
libadios2_evpath.so:EVcreate_store_action_req_formats
libadios2_evpath.so:EVcreate_submit_handle
libadios2_evpath.so:EVcreate_submit_handle_free
libadios2_evpath.so:EVcreate_terminal_action
libadios2_evpath.so:EVcreate_terminal_action_req_flds
libadios2_evpath.so:EVcreate_terminal_action_req_formats
libadios2_evpath.so:EVcreate_thread_bridge_action
libadios2_evpath.so:EVdestroy_stone
libadios2_evpath.so:EVdestroy_stone_req_flds
libadios2_evpath.so:EVdestroy_stone_req_formats
libadios2_evpath.so:EVdfg_add_action
libadios2_evpath.so:EVdfg_add_sink_action
libadios2_evpath.so:EVdfg_assign_node
libadios2_evpath.so:EVdfg_create
libadios2_evpath.so:EVdfg_create_sink_stone
libadios2_evpath.so:EVdfg_create_source_stone
libadios2_evpath.so:EVdfg_create_stone
libadios2_evpath.so:EVdfg_dump_graph
libadios2_evpath.so:EVdfg_enable_auto_stone
libadios2_evpath.so:EVdfg_get_attr_list
libadios2_evpath.so:EVdfg_link_dest
libadios2_evpath.so:EVdfg_link_port
libadios2_evpath.so:EVdfg_realize
libadios2_evpath.so:EVdfg_set_attr_list
libadios2_evpath.so:EVdfg_unlink_dest
libadios2_evpath.so:EVdfg_unlink_port
libadios2_evpath.so:EVdiscard_queue_item
libadios2_evpath.so:EVdrain_stone
libadios2_evpath.so:EVdrain_stone_req_flds
libadios2_evpath.so:EVdrain_stone_req_formats
libadios2_evpath.so:EVdump_stone
libadios2_evpath.so:EVenable_auto_stone
libadios2_evpath.so:EVenable_auto_stone_req_flds
libadios2_evpath.so:EVenable_auto_stone_req_formats
libadios2_evpath.so:EVevent_list_flds
libadios2_evpath.so:EVexecuting_stone
libadios2_evpath.so:EVextract_attr_list
libadios2_evpath.so:EVextract_attr_list_req_flds
libadios2_evpath.so:EVextract_attr_list_req_formats
libadios2_evpath.so:EVextract_stone_events
libadios2_evpath.so:EVfprint_version
libadios2_evpath.so:EVfree_source
libadios2_evpath.so:EVfree_stone
libadios2_evpath.so:EVfree_stone_req_flds
libadios2_evpath.so:EVfree_stone_req_formats
libadios2_evpath.so:EVfreeze_stone
libadios2_evpath.so:EVfreeze_stone_req_flds
libadios2_evpath.so:EVfreeze_stone_req_formats
libadios2_evpath.so:EVget_src_ref_format
libadios2_evpath.so:EVmaster_assign_canonical_name
libadios2_evpath.so:EVmaster_create
libadios2_evpath.so:EVmaster_get_contact_list
libadios2_evpath.so:EVmaster_node_fail_handler
libadios2_evpath.so:EVmaster_node_join_handler
libadios2_evpath.so:EVmaster_node_reconfig_handler
libadios2_evpath.so:EVmaster_register_node_list
libadios2_evpath.so:EVprint_version
libadios2_evpath.so:EVregister_close_handler
libadios2_evpath.so:EVregister_format_set
libadios2_evpath.so:EVreturn_event_buffer
libadios2_evpath.so:EVsend_stored
libadios2_evpath.so:EVset_attr_list
libadios2_evpath.so:EVset_attr_list_req_flds
libadios2_evpath.so:EVset_attr_list_req_formats
libadios2_evpath.so:EVset_store_limit
libadios2_evpath.so:EVstall_stone
libadios2_evpath.so:EVstall_stone_req_flds
libadios2_evpath.so:EVstall_stone_req_formats
libadios2_evpath.so:EVstone_add_split_target
libadios2_evpath.so:EVstone_add_split_target_req_flds
libadios2_evpath.so:EVstone_add_split_target_req_formats
libadios2_evpath.so:EVstone_remove_split_target
libadios2_evpath.so:EVstone_remove_split_target_req_flds
libadios2_evpath.so:EVstone_remove_split_target_req_formats
libadios2_evpath.so:EVstone_set_output
libadios2_evpath.so:EVstone_set_output_req_flds
libadios2_evpath.so:EVstone_set_output_req_formats
libadios2_evpath.so:EVstore_count
libadios2_evpath.so:EVstore_is_sending
libadios2_evpath.so:EVstore_start_send
libadios2_evpath.so:EVsubmit
libadios2_evpath.so:EVsubmit_encoded
libadios2_evpath.so:EVsubmit_encoded_or_wait
libadios2_evpath.so:EVsubmit_general
libadios2_evpath.so:EVsubmit_or_wait
libadios2_evpath.so:EVtake_event_buffer
libadios2_evpath.so:EVthin_socket_listen
libadios2_evpath.so:EVtransfer_events
libadios2_evpath.so:EVtransfer_events_req_flds
libadios2_evpath.so:EVtransfer_events_req_formats
libadios2_evpath.so:EVunfreeze_stone
libadios2_evpath.so:EVunfreeze_stone_req_flds
libadios2_evpath.so:EVunfreeze_stone_req_formats
libadios2_evpath.so:EVunstall_stone
libadios2_evpath.so:EVunstall_stone_req_flds
libadios2_evpath.so:EVunstall_stone_req_formats
libadios2_evpath.so:INT_CMCondition_fail
libadios2_evpath.so:INT_CMCondition_get
libadios2_evpath.so:INT_CMCondition_get_client_data
libadios2_evpath.so:INT_CMCondition_has_failed
libadios2_evpath.so:INT_CMCondition_has_signaled
libadios2_evpath.so:INT_CMCondition_set_client_data
libadios2_evpath.so:INT_CMCondition_signal
libadios2_evpath.so:INT_CMCondition_wait
libadios2_evpath.so:INT_CMConnection_add_reference
libadios2_evpath.so:INT_CMConnection_close
libadios2_evpath.so:INT_CMConnection_dereference
libadios2_evpath.so:INT_CMConnection_failed
libadios2_evpath.so:INT_CMConnection_get_attrs
libadios2_evpath.so:INT_CMConnection_set_character
libadios2_evpath.so:INT_CMConnection_wait_for_pending_write
libadios2_evpath.so:INT_CMConnection_write_would_block
libadios2_evpath.so:INT_CMTrace_file_id
libadios2_evpath.so:INT_CM_fd_add_select
libadios2_evpath.so:INT_CM_insert_contact_info
libadios2_evpath.so:INT_CMadd_delayed_task
libadios2_evpath.so:INT_CMadd_periodic
libadios2_evpath.so:INT_CMadd_periodic_task
libadios2_evpath.so:INT_CMadd_poll
libadios2_evpath.so:INT_CMadd_shutdown_task
libadios2_evpath.so:INT_CMadd_stone_to_global_lookup
libadios2_evpath.so:INT_CManager_close
libadios2_evpath.so:INT_CManager_create
libadios2_evpath.so:INT_CManager_create_control
libadios2_evpath.so:INT_CMconn_register_close_handler
libadios2_evpath.so:INT_CMcontact_self_check
libadios2_evpath.so:INT_CMderef_and_copy_list
libadios2_evpath.so:INT_CMfork_comm_thread
libadios2_evpath.so:INT_CMfree
libadios2_evpath.so:INT_CMget_FMcontext
libadios2_evpath.so:INT_CMget_conn
libadios2_evpath.so:INT_CMget_contact_list
libadios2_evpath.so:INT_CMget_format_IOcontext
libadios2_evpath.so:INT_CMget_format_app_IOcontext
libadios2_evpath.so:INT_CMget_indexed_conn
libadios2_evpath.so:INT_CMget_ip_config_diagnostics
libadios2_evpath.so:INT_CMget_port_range
libadios2_evpath.so:INT_CMget_qual_hostname
libadios2_evpath.so:INT_CMget_self_ip_addr
libadios2_evpath.so:INT_CMget_specific_contact_list
libadios2_evpath.so:INT_CMget_static_trans_services
libadios2_evpath.so:INT_CMget_transport_data
libadios2_evpath.so:INT_CMinitiate_conn
libadios2_evpath.so:INT_CMinstall_perf_upcall
libadios2_evpath.so:INT_CMinstall_pull_schedule
libadios2_evpath.so:INT_CMlisten
libadios2_evpath.so:INT_CMlisten_specific
libadios2_evpath.so:INT_CMlookup_format
libadios2_evpath.so:INT_CMmalloc
libadios2_evpath.so:INT_CMpoll_network
libadios2_evpath.so:INT_CMprobe_bandwidth
libadios2_evpath.so:INT_CMprobe_latency
libadios2_evpath.so:INT_CMrealloc
libadios2_evpath.so:INT_CMregister_format
libadios2_evpath.so:INT_CMregister_handler
libadios2_evpath.so:INT_CMregister_invalid_message_handler
libadios2_evpath.so:INT_CMregister_non_CM_message_handler
libadios2_evpath.so:INT_CMregister_simple_format
libadios2_evpath.so:INT_CMregister_write_callback
libadios2_evpath.so:INT_CMregressive_probe_bandwidth
libadios2_evpath.so:INT_CMremove_periodic
libadios2_evpath.so:INT_CMremove_task
libadios2_evpath.so:INT_CMreturn_buffer
libadios2_evpath.so:INT_CMrun_network
libadios2_evpath.so:INT_CMset_conversion_IOcontext
libadios2_evpath.so:INT_CMsleep
libadios2_evpath.so:INT_CMstart_read_thread
libadios2_evpath.so:INT_CMtake_buffer
libadios2_evpath.so:INT_CMtest_transport
libadios2_evpath.so:INT_CMunregister_write_callback
libadios2_evpath.so:INT_CMusleep
libadios2_evpath.so:INT_CMwrite
libadios2_evpath.so:INT_CMwrite_attr
libadios2_evpath.so:INT_CMwrite_evcontrol
libadios2_evpath.so:INT_CMwrite_raw
libadios2_evpath.so:INT_CMwrite_raw_notify
libadios2_evpath.so:INT_EVaction_add_split_target
libadios2_evpath.so:INT_EVaction_remove_split_target
libadios2_evpath.so:INT_EVaction_set_output
libadios2_evpath.so:INT_EVadd_dll_search_dir
libadios2_evpath.so:INT_EVadd_standard_routines
libadios2_evpath.so:INT_EVadd_standard_structs
libadios2_evpath.so:INT_EValloc_stone
libadios2_evpath.so:INT_EVassoc_anon_multi_action
libadios2_evpath.so:INT_EVassoc_bridge_action
libadios2_evpath.so:INT_EVassoc_congestion_action
libadios2_evpath.so:INT_EVassoc_conversion_action
libadios2_evpath.so:INT_EVassoc_filter_action
libadios2_evpath.so:INT_EVassoc_general_action
libadios2_evpath.so:INT_EVassoc_immediate_action
libadios2_evpath.so:INT_EVassoc_multi_action
libadios2_evpath.so:INT_EVassoc_mutated_imm_action
libadios2_evpath.so:INT_EVassoc_mutated_multi_action
libadios2_evpath.so:INT_EVassoc_raw_terminal_action
libadios2_evpath.so:INT_EVassoc_split_action
libadios2_evpath.so:INT_EVassoc_store_action
libadios2_evpath.so:INT_EVassoc_terminal_action
libadios2_evpath.so:INT_EVassoc_thread_bridge_action
libadios2_evpath.so:INT_EVclear_stored
libadios2_evpath.so:INT_EVclient_active_sink_count
libadios2_evpath.so:INT_EVclient_assoc
libadios2_evpath.so:INT_EVclient_assoc_local
libadios2_evpath.so:INT_EVclient_force_shutdown
libadios2_evpath.so:INT_EVclient_ready_for_shutdown
libadios2_evpath.so:INT_EVclient_ready_wait
libadios2_evpath.so:INT_EVclient_register_raw_sink_handler
libadios2_evpath.so:INT_EVclient_register_sink_handler
libadios2_evpath.so:INT_EVclient_register_source
libadios2_evpath.so:INT_EVclient_shutdown
libadios2_evpath.so:INT_EVclient_source_active
libadios2_evpath.so:INT_EVclient_test_for_shutdown
libadios2_evpath.so:INT_EVclient_wait_for_shutdown
libadios2_evpath.so:INT_EVcreate_auto_stone
libadios2_evpath.so:INT_EVcreate_bridge_action
libadios2_evpath.so:INT_EVcreate_immediate_action
libadios2_evpath.so:INT_EVcreate_split_action
libadios2_evpath.so:INT_EVcreate_stone_action
libadios2_evpath.so:INT_EVcreate_store_action
libadios2_evpath.so:INT_EVcreate_submit_handle
libadios2_evpath.so:INT_EVcreate_submit_handle_free
libadios2_evpath.so:INT_EVcreate_terminal_action
libadios2_evpath.so:INT_EVcreate_thread_bridge_action
libadios2_evpath.so:INT_EVdestroy_stone
libadios2_evpath.so:INT_EVdfg_add_action
libadios2_evpath.so:INT_EVdfg_add_sink_action
libadios2_evpath.so:INT_EVdfg_assign_node
libadios2_evpath.so:INT_EVdfg_create
libadios2_evpath.so:INT_EVdfg_create_sink_stone
libadios2_evpath.so:INT_EVdfg_create_source_stone
libadios2_evpath.so:INT_EVdfg_create_stone
libadios2_evpath.so:INT_EVdfg_dump_graph
libadios2_evpath.so:INT_EVdfg_enable_auto_stone
libadios2_evpath.so:INT_EVdfg_get_attr_list
libadios2_evpath.so:INT_EVdfg_link_dest
libadios2_evpath.so:INT_EVdfg_link_port
libadios2_evpath.so:INT_EVdfg_realize
libadios2_evpath.so:INT_EVdfg_reconfig_transfer_events
libadios2_evpath.so:INT_EVdfg_set_attr_list
libadios2_evpath.so:INT_EVdfg_unlink_dest
libadios2_evpath.so:INT_EVdfg_unlink_port
libadios2_evpath.so:INT_EVdrain_stone
libadios2_evpath.so:INT_EVenable_auto_stone
libadios2_evpath.so:INT_EVexecuting_stone
libadios2_evpath.so:INT_EVextract_attr_list
libadios2_evpath.so:INT_EVextract_stone_events
libadios2_evpath.so:INT_EVforget_connection
libadios2_evpath.so:INT_EVfree_source
libadios2_evpath.so:INT_EVfree_stone
libadios2_evpath.so:INT_EVfreeze_stone
libadios2_evpath.so:INT_EVget_src_ref_format
libadios2_evpath.so:INT_EVhandle_control_message
libadios2_evpath.so:INT_EVmaster_assign_canonical_name
libadios2_evpath.so:INT_EVmaster_create
libadios2_evpath.so:INT_EVmaster_get_contact_list
libadios2_evpath.so:INT_EVmaster_node_fail_handler
libadios2_evpath.so:INT_EVmaster_node_join_handler
libadios2_evpath.so:INT_EVmaster_node_reconfig_handler
libadios2_evpath.so:INT_EVmaster_register_node_list
libadios2_evpath.so:INT_EVregister_close_handler
libadios2_evpath.so:INT_EVreturn_event_buffer
libadios2_evpath.so:INT_EVsend_stored
libadios2_evpath.so:INT_EVset_attr_list
libadios2_evpath.so:INT_EVset_store_limit
libadios2_evpath.so:INT_EVstall_stone
libadios2_evpath.so:INT_EVstone_add_split_target
libadios2_evpath.so:INT_EVstone_remove_split_target
libadios2_evpath.so:INT_EVstone_set_output
libadios2_evpath.so:INT_EVstore_count
libadios2_evpath.so:INT_EVstore_is_sending
libadios2_evpath.so:INT_EVstore_start_send
libadios2_evpath.so:INT_EVsubmit
libadios2_evpath.so:INT_EVsubmit_encoded
libadios2_evpath.so:INT_EVsubmit_encoded_or_wait
libadios2_evpath.so:INT_EVsubmit_general
libadios2_evpath.so:INT_EVsubmit_or_wait
libadios2_evpath.so:INT_EVtake_event_buffer
libadios2_evpath.so:INT_EVtransfer_events
libadios2_evpath.so:INT_EVunfreeze_stone
libadios2_evpath.so:INT_EVunstall_stone
libadios2_evpath.so:INT_REVaction_add_split_target
libadios2_evpath.so:INT_REVaction_remove_split_target
libadios2_evpath.so:INT_REVaction_set_output
libadios2_evpath.so:INT_REValloc_stone
libadios2_evpath.so:INT_REVassoc_bridge_action
libadios2_evpath.so:INT_REVassoc_filter_action
libadios2_evpath.so:INT_REVassoc_immediate_action
libadios2_evpath.so:INT_REVassoc_multi_action
libadios2_evpath.so:INT_REVassoc_split_action
libadios2_evpath.so:INT_REVassoc_store_action
libadios2_evpath.so:INT_REVassoc_terminal_action
libadios2_evpath.so:INT_REVclear_stored
libadios2_evpath.so:INT_REVcreate_auto_stone
libadios2_evpath.so:INT_REVcreate_bridge_action
libadios2_evpath.so:INT_REVcreate_immediate_action
libadios2_evpath.so:INT_REVcreate_split_action
libadios2_evpath.so:INT_REVcreate_stone_action
libadios2_evpath.so:INT_REVcreate_store_action
libadios2_evpath.so:INT_REVcreate_terminal_action
libadios2_evpath.so:INT_REVdestroy_stone
libadios2_evpath.so:INT_REVdrain_stone
libadios2_evpath.so:INT_REVenable_auto_stone
libadios2_evpath.so:INT_REVextract_attr_list
libadios2_evpath.so:INT_REVfree_stone
libadios2_evpath.so:INT_REVfreeze_stone
libadios2_evpath.so:INT_REVset_attr_list
libadios2_evpath.so:INT_REVstall_stone
libadios2_evpath.so:INT_REVstone_add_split_target
libadios2_evpath.so:INT_REVstone_remove_split_target
libadios2_evpath.so:INT_REVstone_set_output
libadios2_evpath.so:INT_REVtransfer_events
libadios2_evpath.so:INT_REVunfreeze_stone
libadios2_evpath.so:INT_REVunstall_stone
libadios2_evpath.so:INT_create_bridge_action_spec
libadios2_evpath.so:INT_create_filter_action_spec
libadios2_evpath.so:INT_create_multityped_action_spec
libadios2_evpath.so:INT_create_router_action_spec
libadios2_evpath.so:INT_create_transform_action_spec
libadios2_evpath.so:IP_get_diagnostics
libadios2_evpath.so:IntCManager_lock
libadios2_evpath.so:IntCManager_unlock
libadios2_evpath.so:REVPinit
libadios2_evpath.so:REVPlookup_format_structs
libadios2_evpath.so:REVPlookup_handler
libadios2_evpath.so:REVaction_add_split_target
libadios2_evpath.so:REVaction_remove_split_target
libadios2_evpath.so:REVaction_set_output
libadios2_evpath.so:REValloc_stone
libadios2_evpath.so:REVassoc_bridge_action
libadios2_evpath.so:REVassoc_filter_action
libadios2_evpath.so:REVassoc_immediate_action
libadios2_evpath.so:REVassoc_multi_action
libadios2_evpath.so:REVassoc_split_action
libadios2_evpath.so:REVassoc_store_action
libadios2_evpath.so:REVassoc_terminal_action
libadios2_evpath.so:REVclear_stored
libadios2_evpath.so:REVcreate_auto_stone
libadios2_evpath.so:REVcreate_bridge_action
libadios2_evpath.so:REVcreate_immediate_action
libadios2_evpath.so:REVcreate_split_action
libadios2_evpath.so:REVcreate_stone_action
libadios2_evpath.so:REVcreate_store_action
libadios2_evpath.so:REVcreate_terminal_action
libadios2_evpath.so:REVdestroy_stone
libadios2_evpath.so:REVdrain_stone
libadios2_evpath.so:REVenable_auto_stone
libadios2_evpath.so:REVextract_attr_list
libadios2_evpath.so:REVfree_stone
libadios2_evpath.so:REVfreeze_stone
libadios2_evpath.so:REVset_attr_list
libadios2_evpath.so:REVstall_stone
libadios2_evpath.so:REVstone_add_split_target
libadios2_evpath.so:REVstone_remove_split_target
libadios2_evpath.so:REVstone_set_output
libadios2_evpath.so:REVtransfer_events
libadios2_evpath.so:REVunfreeze_stone
libadios2_evpath.so:REVunstall_stone
libadios2_evpath.so:action_type
libadios2_evpath.so:add_metrics_routines
libadios2_evpath.so:add_proto_action
libadios2_evpath.so:add_stone_to_lookup
libadios2_evpath.so:add_transport_to_cm
libadios2_evpath.so:chr_approx_resolution
libadios2_evpath.so:chr_get_time
libadios2_evpath.so:chr_time_to_microsecs
libadios2_evpath.so:chr_time_to_millisecs
libadios2_evpath.so:chr_time_to_nanosecs
libadios2_evpath.so:chr_time_to_secs
libadios2_evpath.so:chr_timer_diff
libadios2_evpath.so:chr_timer_eq_zero
libadios2_evpath.so:chr_timer_start
libadios2_evpath.so:chr_timer_stop
libadios2_evpath.so:chr_timer_sum
libadios2_evpath.so:cm_create_transport_and_link_buffer
libadios2_evpath.so:cm_create_transport_buffer
libadios2_evpath.so:cm_extend_data_buf
libadios2_evpath.so:cm_get_data_buf
libadios2_evpath.so:cm_last_postread_hook
libadios2_evpath.so:cm_postread_hook
libadios2_evpath.so:cm_preread_hook
libadios2_evpath.so:cm_return_data_buf
libadios2_evpath.so:cm_write_hook
libadios2_evpath.so:cod_decode_event
libadios2_evpath.so:cod_encode_event
libadios2_evpath.so:copy_EVevent_list
libadios2_evpath.so:count_EVevent_list
libadios2_evpath.so:cpu_and_core_usage_func
libadios2_evpath.so:cpu_idle_func
libadios2_evpath.so:cpu_nice_func
libadios2_evpath.so:cpu_system_func
libadios2_evpath.so:cpu_user_func
libadios2_evpath.so:create_filter_action_spec
libadios2_evpath.so:create_multityped_action_spec
libadios2_evpath.so:create_router_action_spec
libadios2_evpath.so:create_terminal_action_spec
libadios2_evpath.so:create_transform_action_spec
libadios2_evpath.so:dfg_assoc_client
libadios2_evpath.so:dgettimeofday
libadios2_evpath.so:do_local_actions
libadios2_evpath.so:dump_mrd
libadios2_evpath.so:ensure_ev_owned
libadios2_evpath.so:extract_events_from_queue
libadios2_evpath.so:find_transport_in_cm
libadios2_evpath.so:fix_response_cache
libadios2_evpath.so:free_CMFormat
libadios2_evpath.so:free_struct_list
libadios2_evpath.so:get_IP_config
libadios2_evpath.so:get_cm_from_ev_state
libadios2_evpath.so:get_free_event
libadios2_evpath.so:hostname
libadios2_evpath.so:hw_cpu_curr_freq
libadios2_evpath.so:hw_cpu_max_freq
libadios2_evpath.so:hw_cpu_min_freq
libadios2_evpath.so:hw_cpus
libadios2_evpath.so:install_response_handler
libadios2_evpath.so:internal_add_shutdown_task
libadios2_evpath.so:internal_cm_network_submit
libadios2_evpath.so:internal_condition_free
libadios2_evpath.so:internal_connection_close
libadios2_evpath.so:internal_path_submit
libadios2_evpath.so:internal_write_event
libadios2_evpath.so:load_transport
libadios2_evpath.so:lookup_global_stone
libadios2_evpath.so:lookup_local_stone
libadios2_evpath.so:net_bw
libadios2_evpath.so:num_cpustates_func
libadios2_evpath.so:old_CMregister_format
libadios2_evpath.so:old_EVassoc_filter_action
libadios2_evpath.so:old_EVassoc_terminal_action
libadios2_evpath.so:old_EVcreate_submit_handle
libadios2_evpath.so:old_EVcreate_submit_handle_free
libadios2_evpath.so:old_create_filter_action_spec
libadios2_evpath.so:old_create_multityped_action_spec
libadios2_evpath.so:old_create_router_action_spec
libadios2_evpath.so:old_create_transform_action_spec
libadios2_evpath.so:os_release
libadios2_evpath.so:os_type
libadios2_evpath.so:parse_bridge_action_spec
libadios2_evpath.so:received_bytes
libadios2_evpath.so:remove_stone_from_lookup
libadios2_evpath.so:response_data_free
libadios2_evpath.so:response_determination
libadios2_evpath.so:return_event
libadios2_evpath.so:sent_bytes
libadios2_evpath.so:skip_token
libadios2_evpath.so:skip_whitespace
libadios2_evpath.so:slurpfile
libadios2_evpath.so:stat_loadavg_fifteen
libadios2_evpath.so:stat_loadavg_five
libadios2_evpath.so:stat_loadavg_one
libadios2_evpath.so:stat_uptime
libadios2_evpath.so:stone_condition_str
libadios2_evpath.so:stone_struct
libadios2_evpath.so:str_state
libadios2_evpath.so:thread_bridge_transfer
libadios2_evpath.so:total_jiffies_func
libadios2_evpath.so:update_file
libadios2_evpath.so:vm_mem_free
libadios2_evpath.so:vm_mem_total
libadios2_evpath.so:vm_swap_free
libadios2_evpath.so:vm_swap_total
libadios2_evpath.so:wait_for_pending_write
libadios2_ffs.so.1:CDLLadd
libadios2_ffs.so.1:CDLLremove
libadios2_ffs.so.1:FFSContext_of_file
libadios2_ffs.so.1:FFSTypeHandle_by_index
libadios2_ffs.so.1:FFSTypeHandle_from_encode
libadios2_ffs.so.1:FFSTypeHandle_name
libadios2_ffs.so.1:FFS_decode_length_format
libadios2_ffs.so.1:FFS_determine_conversion
libadios2_ffs.so.1:FFS_est_decode_length
libadios2_ffs.so.1:FFS_gen_authentication
libadios2_ffs.so.1:FFS_self_server_IP_addr
libadios2_ffs.so.1:FFS_target_from_encode
libadios2_ffs.so.1:FFSattrs_from_last_read
libadios2_ffs.so.1:FFSconvert_record
libadios2_ffs.so.1:FFScreate_compat_info
libadios2_ffs.so.1:FFSdecode
libadios2_ffs.so.1:FFSdecode_in_place
libadios2_ffs.so.1:FFSdecode_in_place_possible
libadios2_ffs.so.1:FFSdecode_to_buffer
libadios2_ffs.so.1:FFSdump_index
libadios2_ffs.so.1:FFSencode
libadios2_ffs.so.1:FFSencode_no_leaf_copy
libadios2_ffs.so.1:FFSencode_vector
libadios2_ffs.so.1:FFSfile_next_decode_length
libadios2_ffs.so.1:FFSfree_conversion
libadios2_ffs.so.1:FFShas_conversion
libadios2_ffs.so.1:FFSheader_size
libadios2_ffs.so.1:FFSnext_data_length
libadios2_ffs.so.1:FFSnext_record_type
libadios2_ffs.so.1:FFSnext_type_handle
libadios2_ffs.so.1:FFSprint_version
libadios2_ffs.so.1:FFSread
libadios2_ffs.so.1:FFSread_attr
libadios2_ffs.so.1:FFSread_comment
libadios2_ffs.so.1:FFSread_format
libadios2_ffs.so.1:FFSread_index
libadios2_ffs.so.1:FFSread_raw
libadios2_ffs.so.1:FFSread_raw_header
libadios2_ffs.so.1:FFSread_to_buffer
libadios2_ffs.so.1:FFSseek
libadios2_ffs.so.1:FFSset_fixed_target
libadios2_ffs.so.1:FFSset_simple_target
libadios2_ffs.so.1:FFSset_visible
libadios2_ffs.so.1:FMContext_from_FFS
libadios2_ffs.so.1:FMContext_from_FMformat
libadios2_ffs.so.1:FMContext_of_file
libadios2_ffs.so.1:FMDatatypeString
libadios2_ffs.so.1:FMFormat_of_original
libadios2_ffs.so.1:FMTypeEnumString
libadios2_ffs.so.1:FM_field_type_eq
libadios2_ffs.so.1:FMarray_str_to_data_type
libadios2_ffs.so.1:FMbase_type
libadios2_ffs.so.1:FMcontext_allow_self_formats
libadios2_ffs.so.1:FMcontext_get_format_server_identifier
libadios2_ffs.so.1:FMcopy_struct_list
libadios2_ffs.so.1:FMdumpVerbose
libadios2_ffs.so.1:FMdump_XML
libadios2_ffs.so.1:FMdump_data
libadios2_ffs.so.1:FMdump_encoded_XML
libadios2_ffs.so.1:FMdump_encoded_data
libadios2_ffs.so.1:FMfdump_data
libadios2_ffs.so.1:FMfdump_encoded_XML
libadios2_ffs.so.1:FMfdump_encoded_data
libadios2_ffs.so.1:FMformatID_len
libadios2_ffs.so.1:FMformat_by_index
libadios2_ffs.so.1:FMformat_cmp
libadios2_ffs.so.1:FMformat_compat_cmp
libadios2_ffs.so.1:FMformat_compat_cmp2
libadios2_ffs.so.1:FMformat_from_ID
libadios2_ffs.so.1:FMformat_index
libadios2_ffs.so.1:FMfree_struct_list
libadios2_ffs.so.1:FMfree_var_rec_elements
libadios2_ffs.so.1:FMget_array_element_count
libadios2_ffs.so.1:FMget_compat_formats
libadios2_ffs.so.1:FMhas_XML_info
libadios2_ffs.so.1:FMheader_skip
libadios2_ffs.so.1:FMlocalize_structs
libadios2_ffs.so.1:FMlookup_format
libadios2_ffs.so.1:FMregister_data_format
libadios2_ffs.so.1:FMregister_simple_format
libadios2_ffs.so.1:FMstr_to_data_type
libadios2_ffs.so.1:FMstruct_size_field_list
libadios2_ffs.so.1:FMunencoded_to_XML_string
libadios2_ffs.so.1:ID_length
libadios2_ffs.so.1:IOget_array_size_dimen
libadios2_ffs.so.1:add_data_iovec
libadios2_ffs.so.1:add_format_to_iofile
libadios2_ffs.so.1:add_marshal_info
libadios2_ffs.so.1:add_opt_info_FMformat
libadios2_ffs.so.1:add_ref_FMcontext
libadios2_ffs.so.1:add_single_value_as_XML
libadios2_ffs.so.1:allocate_tmp_space
libadios2_ffs.so.1:are_compatible_ptrs
libadios2_ffs.so.1:base_data_type
libadios2_ffs.so.1:cg_get_size
libadios2_ffs.so.1:chr_time_list
libadios2_ffs.so.1:close_FFSfile
libadios2_ffs.so.1:cod_add_decl_to_parse_context
libadios2_ffs.so.1:cod_add_decl_to_scope
libadios2_ffs.so.1:cod_add_defined_type
libadios2_ffs.so.1:cod_add_encoded_param
libadios2_ffs.so.1:cod_add_enum_const
libadios2_ffs.so.1:cod_add_int_constant_to_parse_context
libadios2_ffs.so.1:cod_add_param
libadios2_ffs.so.1:cod_add_simple_struct_type
libadios2_ffs.so.1:cod_add_standard_elements
libadios2_ffs.so.1:cod_add_struct_type
libadios2_ffs.so.1:cod_append_list
libadios2_ffs.so.1:cod_apply
libadios2_ffs.so.1:cod_assoc_client_data
libadios2_ffs.so.1:cod_assoc_externs
libadios2_ffs.so.1:cod_build_param_node
libadios2_ffs.so.1:cod_build_type_node
libadios2_ffs.so.1:cod_cg_net
libadios2_ffs.so.1:cod_code_free
libadios2_ffs.so.1:cod_code_gen
libadios2_ffs.so.1:cod_code_verify
libadios2_ffs.so.1:cod_copy
libadios2_ffs.so.1:cod_copy_context
libadios2_ffs.so.1:cod_copy_globals
libadios2_ffs.so.1:cod_copy_list
libadios2_ffs.so.1:cod_create_exec_context
libadios2_ffs.so.1:cod_dump
libadios2_ffs.so.1:cod_exec_context_free
libadios2_ffs.so.1:cod_expr_is_string
libadios2_ffs.so.1:cod_extract_state
libadios2_ffs.so.1:cod_free
libadios2_ffs.so.1:cod_free_list
libadios2_ffs.so.1:cod_free_parse_context
libadios2_ffs.so.1:cod_get_client_data
libadios2_ffs.so.1:cod_get_srcpos
libadios2_ffs.so.1:cod_install_state
libadios2_ffs.so.1:cod_kplugins_integration
libadios2_ffs.so.1:cod_make_free
libadios2_ffs.so.1:cod_new_array_type_decl
libadios2_ffs.so.1:cod_new_assignment_expression
libadios2_ffs.so.1:cod_new_cast
libadios2_ffs.so.1:cod_new_comma_expression
libadios2_ffs.so.1:cod_new_compound_statement
libadios2_ffs.so.1:cod_new_conditional_operator
libadios2_ffs.so.1:cod_new_constant
libadios2_ffs.so.1:cod_new_declaration
libadios2_ffs.so.1:cod_new_designator
libadios2_ffs.so.1:cod_new_element_ref
libadios2_ffs.so.1:cod_new_enum_type_decl
libadios2_ffs.so.1:cod_new_enumerator
libadios2_ffs.so.1:cod_new_expression_statement
libadios2_ffs.so.1:cod_new_field
libadios2_ffs.so.1:cod_new_field_ref
libadios2_ffs.so.1:cod_new_identifier
libadios2_ffs.so.1:cod_new_initializer
libadios2_ffs.so.1:cod_new_initializer_list
libadios2_ffs.so.1:cod_new_iteration_statement
libadios2_ffs.so.1:cod_new_jump_statement
libadios2_ffs.so.1:cod_new_label_statement
libadios2_ffs.so.1:cod_new_operator
libadios2_ffs.so.1:cod_new_reference_type_decl
libadios2_ffs.so.1:cod_new_return_statement
libadios2_ffs.so.1:cod_new_selection_statement
libadios2_ffs.so.1:cod_new_struct_type_decl
libadios2_ffs.so.1:cod_new_subroutine_call
libadios2_ffs.so.1:cod_new_type_specifier
libadios2_ffs.so.1:cod_parse_for_context
libadios2_ffs.so.1:cod_parse_for_globals
libadios2_ffs.so.1:cod_print
libadios2_ffs.so.1:cod_print_dimen_p
libadios2_ffs.so.1:cod_print_enc_info
libadios2_ffs.so.1:cod_print_operator_t
libadios2_ffs.so.1:cod_print_srcpos
libadios2_ffs.so.1:cod_process_include
libadios2_ffs.so.1:cod_remove_defined_types
libadios2_ffs.so.1:cod_rfree
libadios2_ffs.so.1:cod_rfree_list
libadios2_ffs.so.1:cod_segmented_pointers
libadios2_ffs.so.1:cod_semanticize_added_decls
libadios2_ffs.so.1:cod_set_closure
libadios2_ffs.so.1:cod_set_dont_coerce_return
libadios2_ffs.so.1:cod_set_error_func
libadios2_ffs.so.1:cod_set_return_type
libadios2_ffs.so.1:cod_sm_get_type
libadios2_ffs.so.1:cod_subroutine_declaration
libadios2_ffs.so.1:cod_swap_decls_to_standard
libadios2_ffs.so.1:cod_yy_create_buffer
libadios2_ffs.so.1:cod_yy_delete_buffer
libadios2_ffs.so.1:cod_yy_flex_debug
libadios2_ffs.so.1:cod_yy_flush_buffer
libadios2_ffs.so.1:cod_yy_scan_buffer
libadios2_ffs.so.1:cod_yy_scan_bytes
libadios2_ffs.so.1:cod_yy_scan_string
libadios2_ffs.so.1:cod_yy_switch_to_buffer
libadios2_ffs.so.1:cod_yyalloc
libadios2_ffs.so.1:cod_yychar
libadios2_ffs.so.1:cod_yyerror
libadios2_ffs.so.1:cod_yyfree
libadios2_ffs.so.1:cod_yyget_debug
libadios2_ffs.so.1:cod_yyget_in
libadios2_ffs.so.1:cod_yyget_leng
libadios2_ffs.so.1:cod_yyget_lineno
libadios2_ffs.so.1:cod_yyget_out
libadios2_ffs.so.1:cod_yyget_text
libadios2_ffs.so.1:cod_yyin
libadios2_ffs.so.1:cod_yyleng
libadios2_ffs.so.1:cod_yylex
libadios2_ffs.so.1:cod_yylex_destroy
libadios2_ffs.so.1:cod_yylineno
libadios2_ffs.so.1:cod_yylval
libadios2_ffs.so.1:cod_yynerrs
libadios2_ffs.so.1:cod_yyout
libadios2_ffs.so.1:cod_yyparse
libadios2_ffs.so.1:cod_yypop_buffer_state
libadios2_ffs.so.1:cod_yypush_buffer_state
libadios2_ffs.so.1:cod_yyrealloc
libadios2_ffs.so.1:cod_yyrestart
libadios2_ffs.so.1:cod_yyset_debug
libadios2_ffs.so.1:cod_yyset_in
libadios2_ffs.so.1:cod_yyset_lineno
libadios2_ffs.so.1:cod_yyset_out
libadios2_ffs.so.1:cod_yytext
libadios2_ffs.so.1:cod_yywrap
libadios2_ffs.so.1:compare_field_lists
libadios2_ffs.so.1:copy_all_to_FFSBuffer
libadios2_ffs.so.1:copy_data_to_tmp
libadios2_ffs.so.1:copy_field_list
libadios2_ffs.so.1:copy_vector_to_FFSBuffer
libadios2_ffs.so.1:count_FMfield
libadios2_ffs.so.1:create_FFSBuffer
libadios2_ffs.so.1:create_FFSContext_FM
libadios2_ffs.so.1:create_FMcontext
libadios2_ffs.so.1:create_fixed_FFSBuffer
libadios2_ffs.so.1:create_local_FMcontext
libadios2_ffs.so.1:data_type_to_str
libadios2_ffs.so.1:decode_in_place_possible
libadios2_ffs.so.1:dump_FMFormat
libadios2_ffs.so.1:dump_FMFormat_as_XML
libadios2_ffs.so.1:dump_FMfield_as_XML
libadios2_ffs.so.1:dump_IOConversion
libadios2_ffs.so.1:dump_IOConversion_as_XML
libadios2_ffs.so.1:dump_output
libadios2_ffs.so.1:dump_raw_FMrecord
libadios2_ffs.so.1:dump_raw_FMrecord_to_string
libadios2_ffs.so.1:dump_raw_IOrecord_as_XML
libadios2_ffs.so.1:dump_scope
libadios2_ffs.so.1:dump_unencoded_FMrecord_as_XML
libadios2_ffs.so.1:establish_conversion
libadios2_ffs.so.1:establish_server_connection
libadios2_ffs.so.1:establish_server_connection_ptr
libadios2_ffs.so.1:evaluate_constant_return_expr
libadios2_ffs.so.1:expand_format_from_rep
libadios2_ffs.so.1:ffs_close_func
libadios2_ffs.so.1:ffs_file_open_func
libadios2_ffs.so.1:ffs_file_read_func
libadios2_ffs.so.1:ffs_file_readv_func
libadios2_ffs.so.1:ffs_file_write_func
libadios2_ffs.so.1:ffs_file_writev_func
libadios2_ffs.so.1:ffs_getreg
libadios2_ffs.so.1:ffs_internal_convert_field
libadios2_ffs.so.1:ffs_local
libadios2_ffs.so.1:ffs_localb
libadios2_ffs.so.1:ffs_max_iov
libadios2_ffs.so.1:ffs_my_float_format
libadios2_ffs.so.1:ffs_putreg
libadios2_ffs.so.1:ffs_read_func
libadios2_ffs.so.1:ffs_readv_func
libadios2_ffs.so.1:ffs_reverse_float_formats
libadios2_ffs.so.1:ffs_server_read_func
libadios2_ffs.so.1:ffs_server_write_func
libadios2_ffs.so.1:ffs_sockets_init_func
libadios2_ffs.so.1:ffs_write_func
libadios2_ffs.so.1:ffs_writev_func
libadios2_ffs.so.1:field_is_flat
libadios2_ffs.so.1:field_list_of_IOformat
libadios2_ffs.so.1:field_name_compar
libadios2_ffs.so.1:field_offset_compar
libadios2_ffs.so.1:fm_my_float_format
libadios2_ffs.so.1:fm_reverse_float_formats
libadios2_ffs.so.1:fmc_of_IOformat
libadios2_ffs.so.1:format_list_of_FMFormat
libadios2_ffs.so.1:format_server_restarted
libadios2_ffs.so.1:fprint_server_ID
libadios2_ffs.so.1:free_FFSBuffer
libadios2_ffs.so.1:free_FFSContext
libadios2_ffs.so.1:free_FFSTypeHandle
libadios2_ffs.so.1:free_FFSfile
libadios2_ffs.so.1:free_FMFormatList
libadios2_ffs.so.1:free_FMcontext
libadios2_ffs.so.1:free_FMfield_list
libadios2_ffs.so.1:free_XML_output_info
libadios2_ffs.so.1:free_enc_info
libadios2_ffs.so.1:free_field_list
libadios2_ffs.so.1:free_oprnd
libadios2_ffs.so.1:gen_FMTypeDesc
libadios2_ffs.so.1:gen_bswap_fetch
libadios2_ffs.so.1:gen_byte_swap
libadios2_ffs.so.1:gen_fetch
libadios2_ffs.so.1:gen_load
libadios2_ffs.so.1:gen_memcpy
libadios2_ffs.so.1:gen_operand
libadios2_ffs.so.1:gen_rollback_code
libadios2_ffs.so.1:gen_set
libadios2_ffs.so.1:gen_size_conversion
libadios2_ffs.so.1:gen_store
libadios2_ffs.so.1:gen_type_conversion
libadios2_ffs.so.1:generate_arg_str
libadios2_ffs.so.1:generate_conversion
libadios2_ffs.so.1:generate_format3_server_ID
libadios2_ffs.so.1:generate_var_list
libadios2_ffs.so.1:get_FMPtrField_by_name
libadios2_ffs.so.1:get_FMaddr
libadios2_ffs.so.1:get_FMchar
libadios2_ffs.so.1:get_FMdouble
libadios2_ffs.so.1:get_FMenum
libadios2_ffs.so.1:get_FMfieldAddr_by_name
libadios2_ffs.so.1:get_FMfieldInt_by_name
libadios2_ffs.so.1:get_FMfieldLong_by_name
libadios2_ffs.so.1:get_FMfieldPtr
libadios2_ffs.so.1:get_FMfieldPtrFromList
libadios2_ffs.so.1:get_FMfloat
libadios2_ffs.so.1:get_FMformat_characteristics
libadios2_ffs.so.1:get_FMint
libadios2_ffs.so.1:get_FMlong
libadios2_ffs.so.1:get_FMlong8
libadios2_ffs.so.1:get_FMlong_double
libadios2_ffs.so.1:get_FMlong_long
libadios2_ffs.so.1:get_FMshort
libadios2_ffs.so.1:get_FMstring
libadios2_ffs.so.1:get_FMstring_base
libadios2_ffs.so.1:get_FMuint
libadios2_ffs.so.1:get_FMulong
libadios2_ffs.so.1:get_FMulong8
libadios2_ffs.so.1:get_FMulong_long
libadios2_ffs.so.1:get_FMushort
libadios2_ffs.so.1:get_complex_type
libadios2_ffs.so.1:get_local_FieldPtr
libadios2_ffs.so.1:get_local_format_IOcontext
libadios2_ffs.so.1:get_localized_formats
libadios2_ffs.so.1:get_localized_formats_dill
libadios2_ffs.so.1:get_marshal_info
libadios2_ffs.so.1:get_optinfo_FMFormat
libadios2_ffs.so.1:get_rep_len_format_ID
libadios2_ffs.so.1:get_server_ID_FMformat
libadios2_ffs.so.1:get_server_rep_FMformat
libadios2_ffs.so.1:get_static_array_element_count
libadios2_ffs.so.1:get_subformat_names
libadios2_ffs.so.1:get_subformats_IOformat
libadios2_ffs.so.1:gettimeofday_wrapper
libadios2_ffs.so.1:global_name_eq
libadios2_ffs.so.1:global_name_of_FMFormat
libadios2_ffs.so.1:hashbig
libadios2_ffs.so.1:hashlittle
libadios2_ffs.so.1:hashlittle2
libadios2_ffs.so.1:hashword
libadios2_ffs.so.1:hashword2
libadios2_ffs.so.1:init_dump_state
libadios2_ffs.so.1:init_encode_state
libadios2_ffs.so.1:init_float_formats
libadios2_ffs.so.1:init_format_info
libadios2_ffs.so.1:install_drop_code
libadios2_ffs.so.1:install_subsample_code
libadios2_ffs.so.1:internal_dump_XML_record
libadios2_ffs.so.1:is_array
libadios2_ffs.so.1:is_control_value
libadios2_ffs.so.1:load_external_format_FMcontext
libadios2_ffs.so.1:make_tmp_buffer
libadios2_ffs.so.1:max_field_lists
libadios2_ffs.so.1:name_of_FMformat
libadios2_ffs.so.1:namespace_str
libadios2_ffs.so.1:new_FMContext
libadios2_ffs.so.1:new_FMFormat
libadios2_ffs.so.1:new_cod_parse_context
libadios2_ffs.so.1:new_generate_conversion_code
libadios2_ffs.so.1:open_FFSfd
libadios2_ffs.so.1:open_FFSfile
libadios2_ffs.so.1:os_close_func
libadios2_ffs.so.1:os_file_open_func
libadios2_ffs.so.1:os_file_read_func
libadios2_ffs.so.1:os_file_write_func
libadios2_ffs.so.1:os_max_iov
libadios2_ffs.so.1:os_poll_func
libadios2_ffs.so.1:os_read_func
libadios2_ffs.so.1:os_server_read_func
libadios2_ffs.so.1:os_server_write_func
libadios2_ffs.so.1:os_sockets_init_func
libadios2_ffs.so.1:os_write_func
libadios2_ffs.so.1:parse_index_block
libadios2_ffs.so.1:pointer_size_of_IOformat
libadios2_ffs.so.1:print_format_ID
libadios2_ffs.so.1:print_server_ID
libadios2_ffs.so.1:quick_put_ulong
libadios2_ffs.so.1:register_data_format
libadios2_ffs.so.1:reserve_space_for_data_in_tmp
libadios2_ffs.so.1:serverAtomicRead
libadios2_ffs.so.1:serverAtomicWrite
libadios2_ffs.so.1:server_get_server_ID
libadios2_ffs.so.1:server_write_header
libadios2_ffs.so.1:set_FMPtrField_by_name
libadios2_ffs.so.1:set_alignment
libadios2_ffs.so.1:set_array_order_FMContext
libadios2_ffs.so.1:set_format_server
libadios2_ffs.so.1:set_general_IOconversion_for_format
libadios2_ffs.so.1:set_interface_FFSFile
libadios2_ffs.so.1:setup_header
libadios2_ffs.so.1:str_to_val
libadios2_ffs.so.1:stringify_server_ID
libadios2_ffs.so.1:struct_size_IOfield
libadios2_ffs.so.1:struct_size_field_list
libadios2_ffs.so.1:timeval_list
libadios2_ffs.so.1:transpose_array
libadios2_ffs.so.1:type_of_int_const_string
libadios2_ffs.so.1:unix_timeout_read_func
libadios2_ffs.so.1:validate_and_copy_field_list
libadios2_ffs.so.1:version_of_format_ID
libadios2_ffs.so.1:write_FFSfile
libadios2_ffs.so.1:write_FFSfile_attrs
libadios2_ffs.so.1:write_comment_FFSfile
libadios2_ffs.so.1:write_encoded_FFSfile
libadios2_fortran.so.2:__adios2_adios_init_mod_MOD_adios2_init_config_debug_serial
libadios2_fortran.so.2:__adios2_adios_init_mod_MOD_adios2_init_config_serial
libadios2_fortran.so.2:__adios2_adios_init_mod_MOD_adios2_init_debug_serial
libadios2_fortran.so.2:__adios2_adios_init_mod_MOD_adios2_init_serial
libadios2_fortran.so.2:__adios2_adios_mod_MOD_adios2_at_io
libadios2_fortran.so.2:__adios2_adios_mod_MOD_adios2_declare_io
libadios2_fortran.so.2:__adios2_adios_mod_MOD_adios2_define_operator
libadios2_fortran.so.2:__adios2_adios_mod_MOD_adios2_finalize
libadios2_fortran.so.2:__adios2_adios_mod_MOD_adios2_flush_all
libadios2_fortran.so.2:__adios2_adios_mod_MOD_adios2_inquire_operator
libadios2_fortran.so.2:__adios2_adios_mod_MOD_adios2_remove_all_ios
libadios2_fortran.so.2:__adios2_adios_mod_MOD_adios2_remove_io
libadios2_fortran.so.2:__adios2_attribute_data_mod_MOD_adios2_attribute_data_dp
libadios2_fortran.so.2:__adios2_attribute_data_mod_MOD_adios2_attribute_data_dp_1d
libadios2_fortran.so.2:__adios2_attribute_data_mod_MOD_adios2_attribute_data_integer1
libadios2_fortran.so.2:__adios2_attribute_data_mod_MOD_adios2_attribute_data_integer1_1d
libadios2_fortran.so.2:__adios2_attribute_data_mod_MOD_adios2_attribute_data_integer2
libadios2_fortran.so.2:__adios2_attribute_data_mod_MOD_adios2_attribute_data_integer2_1d
libadios2_fortran.so.2:__adios2_attribute_data_mod_MOD_adios2_attribute_data_integer4
libadios2_fortran.so.2:__adios2_attribute_data_mod_MOD_adios2_attribute_data_integer4_1d
libadios2_fortran.so.2:__adios2_attribute_data_mod_MOD_adios2_attribute_data_integer8
libadios2_fortran.so.2:__adios2_attribute_data_mod_MOD_adios2_attribute_data_integer8_1d
libadios2_fortran.so.2:__adios2_attribute_data_mod_MOD_adios2_attribute_data_real
libadios2_fortran.so.2:__adios2_attribute_data_mod_MOD_adios2_attribute_data_real_1d
libadios2_fortran.so.2:__adios2_attribute_data_mod_MOD_adios2_attribute_data_string
libadios2_fortran.so.2:__adios2_attribute_data_mod_MOD_adios2_attribute_data_string_1d
libadios2_fortran.so.2:__adios2_attribute_mod_MOD_adios2_attribute_check_type
libadios2_fortran.so.2:__adios2_attribute_mod_MOD_adios2_attribute_name
libadios2_fortran.so.2:__adios2_engine_begin_step_mod_MOD_adios2_begin_step_default
libadios2_fortran.so.2:__adios2_engine_begin_step_mod_MOD_adios2_begin_step_full
libadios2_fortran.so.2:__adios2_engine_begin_step_mod_MOD_adios2_begin_step_mode
libadios2_fortran.so.2:__adios2_engine_get_mod_MOD_adios2_get_by_name_complex
libadios2_fortran.so.2:__adios2_engine_get_mod_MOD_adios2_get_by_name_complex_1d
libadios2_fortran.so.2:__adios2_engine_get_mod_MOD_adios2_get_by_name_complex_2d
libadios2_fortran.so.2:__adios2_engine_get_mod_MOD_adios2_get_by_name_complex_3d
libadios2_fortran.so.2:__adios2_engine_get_mod_MOD_adios2_get_by_name_complex_4d
libadios2_fortran.so.2:__adios2_engine_get_mod_MOD_adios2_get_by_name_complex_5d
libadios2_fortran.so.2:__adios2_engine_get_mod_MOD_adios2_get_by_name_complex_6d
libadios2_fortran.so.2:__adios2_engine_get_mod_MOD_adios2_get_by_name_complex_dp
libadios2_fortran.so.2:__adios2_engine_get_mod_MOD_adios2_get_by_name_complex_dp_1d
libadios2_fortran.so.2:__adios2_engine_get_mod_MOD_adios2_get_by_name_complex_dp_2d
libadios2_fortran.so.2:__adios2_engine_get_mod_MOD_adios2_get_by_name_complex_dp_3d
libadios2_fortran.so.2:__adios2_engine_get_mod_MOD_adios2_get_by_name_complex_dp_4d
libadios2_fortran.so.2:__adios2_engine_get_mod_MOD_adios2_get_by_name_complex_dp_5d
libadios2_fortran.so.2:__adios2_engine_get_mod_MOD_adios2_get_by_name_complex_dp_6d
libadios2_fortran.so.2:__adios2_engine_get_mod_MOD_adios2_get_by_name_dp
libadios2_fortran.so.2:__adios2_engine_get_mod_MOD_adios2_get_by_name_dp_1d
libadios2_fortran.so.2:__adios2_engine_get_mod_MOD_adios2_get_by_name_dp_2d
libadios2_fortran.so.2:__adios2_engine_get_mod_MOD_adios2_get_by_name_dp_3d
libadios2_fortran.so.2:__adios2_engine_get_mod_MOD_adios2_get_by_name_dp_4d
libadios2_fortran.so.2:__adios2_engine_get_mod_MOD_adios2_get_by_name_dp_5d
libadios2_fortran.so.2:__adios2_engine_get_mod_MOD_adios2_get_by_name_dp_6d
libadios2_fortran.so.2:__adios2_engine_get_mod_MOD_adios2_get_by_name_integer1
libadios2_fortran.so.2:__adios2_engine_get_mod_MOD_adios2_get_by_name_integer1_1d
libadios2_fortran.so.2:__adios2_engine_get_mod_MOD_adios2_get_by_name_integer1_2d
libadios2_fortran.so.2:__adios2_engine_get_mod_MOD_adios2_get_by_name_integer1_3d
libadios2_fortran.so.2:__adios2_engine_get_mod_MOD_adios2_get_by_name_integer1_4d
libadios2_fortran.so.2:__adios2_engine_get_mod_MOD_adios2_get_by_name_integer1_5d
libadios2_fortran.so.2:__adios2_engine_get_mod_MOD_adios2_get_by_name_integer1_6d
libadios2_fortran.so.2:__adios2_engine_get_mod_MOD_adios2_get_by_name_integer2
libadios2_fortran.so.2:__adios2_engine_get_mod_MOD_adios2_get_by_name_integer2_1d
libadios2_fortran.so.2:__adios2_engine_get_mod_MOD_adios2_get_by_name_integer2_2d
libadios2_fortran.so.2:__adios2_engine_get_mod_MOD_adios2_get_by_name_integer2_3d
libadios2_fortran.so.2:__adios2_engine_get_mod_MOD_adios2_get_by_name_integer2_4d
libadios2_fortran.so.2:__adios2_engine_get_mod_MOD_adios2_get_by_name_integer2_5d
libadios2_fortran.so.2:__adios2_engine_get_mod_MOD_adios2_get_by_name_integer2_6d
libadios2_fortran.so.2:__adios2_engine_get_mod_MOD_adios2_get_by_name_integer4
libadios2_fortran.so.2:__adios2_engine_get_mod_MOD_adios2_get_by_name_integer4_1d
libadios2_fortran.so.2:__adios2_engine_get_mod_MOD_adios2_get_by_name_integer4_2d
libadios2_fortran.so.2:__adios2_engine_get_mod_MOD_adios2_get_by_name_integer4_3d
libadios2_fortran.so.2:__adios2_engine_get_mod_MOD_adios2_get_by_name_integer4_4d
libadios2_fortran.so.2:__adios2_engine_get_mod_MOD_adios2_get_by_name_integer4_5d
libadios2_fortran.so.2:__adios2_engine_get_mod_MOD_adios2_get_by_name_integer4_6d
libadios2_fortran.so.2:__adios2_engine_get_mod_MOD_adios2_get_by_name_integer8
libadios2_fortran.so.2:__adios2_engine_get_mod_MOD_adios2_get_by_name_integer8_1d
libadios2_fortran.so.2:__adios2_engine_get_mod_MOD_adios2_get_by_name_integer8_2d
libadios2_fortran.so.2:__adios2_engine_get_mod_MOD_adios2_get_by_name_integer8_3d
libadios2_fortran.so.2:__adios2_engine_get_mod_MOD_adios2_get_by_name_integer8_4d
libadios2_fortran.so.2:__adios2_engine_get_mod_MOD_adios2_get_by_name_integer8_5d
libadios2_fortran.so.2:__adios2_engine_get_mod_MOD_adios2_get_by_name_integer8_6d
libadios2_fortran.so.2:__adios2_engine_get_mod_MOD_adios2_get_by_name_real
libadios2_fortran.so.2:__adios2_engine_get_mod_MOD_adios2_get_by_name_real_1d
libadios2_fortran.so.2:__adios2_engine_get_mod_MOD_adios2_get_by_name_real_2d
libadios2_fortran.so.2:__adios2_engine_get_mod_MOD_adios2_get_by_name_real_3d
libadios2_fortran.so.2:__adios2_engine_get_mod_MOD_adios2_get_by_name_real_4d
libadios2_fortran.so.2:__adios2_engine_get_mod_MOD_adios2_get_by_name_real_5d
libadios2_fortran.so.2:__adios2_engine_get_mod_MOD_adios2_get_by_name_real_6d
libadios2_fortran.so.2:__adios2_engine_get_mod_MOD_adios2_get_by_name_string
libadios2_fortran.so.2:__adios2_engine_get_mod_MOD_adios2_get_complex
libadios2_fortran.so.2:__adios2_engine_get_mod_MOD_adios2_get_complex_1d
libadios2_fortran.so.2:__adios2_engine_get_mod_MOD_adios2_get_complex_2d
libadios2_fortran.so.2:__adios2_engine_get_mod_MOD_adios2_get_complex_3d
libadios2_fortran.so.2:__adios2_engine_get_mod_MOD_adios2_get_complex_4d
libadios2_fortran.so.2:__adios2_engine_get_mod_MOD_adios2_get_complex_5d
libadios2_fortran.so.2:__adios2_engine_get_mod_MOD_adios2_get_complex_6d
libadios2_fortran.so.2:__adios2_engine_get_mod_MOD_adios2_get_complex_dp
libadios2_fortran.so.2:__adios2_engine_get_mod_MOD_adios2_get_complex_dp_1d
libadios2_fortran.so.2:__adios2_engine_get_mod_MOD_adios2_get_complex_dp_2d
libadios2_fortran.so.2:__adios2_engine_get_mod_MOD_adios2_get_complex_dp_3d
libadios2_fortran.so.2:__adios2_engine_get_mod_MOD_adios2_get_complex_dp_4d
libadios2_fortran.so.2:__adios2_engine_get_mod_MOD_adios2_get_complex_dp_5d
libadios2_fortran.so.2:__adios2_engine_get_mod_MOD_adios2_get_complex_dp_6d
libadios2_fortran.so.2:__adios2_engine_get_mod_MOD_adios2_get_deferred_by_name_complex
libadios2_fortran.so.2:__adios2_engine_get_mod_MOD_adios2_get_deferred_by_name_complex_1d
libadios2_fortran.so.2:__adios2_engine_get_mod_MOD_adios2_get_deferred_by_name_complex_2d
libadios2_fortran.so.2:__adios2_engine_get_mod_MOD_adios2_get_deferred_by_name_complex_3d
libadios2_fortran.so.2:__adios2_engine_get_mod_MOD_adios2_get_deferred_by_name_complex_4d
libadios2_fortran.so.2:__adios2_engine_get_mod_MOD_adios2_get_deferred_by_name_complex_5d
libadios2_fortran.so.2:__adios2_engine_get_mod_MOD_adios2_get_deferred_by_name_complex_6d
libadios2_fortran.so.2:__adios2_engine_get_mod_MOD_adios2_get_deferred_by_name_complex_dp
libadios2_fortran.so.2:__adios2_engine_get_mod_MOD_adios2_get_deferred_by_name_complex_dp_1d
libadios2_fortran.so.2:__adios2_engine_get_mod_MOD_adios2_get_deferred_by_name_complex_dp_2d
libadios2_fortran.so.2:__adios2_engine_get_mod_MOD_adios2_get_deferred_by_name_complex_dp_3d
libadios2_fortran.so.2:__adios2_engine_get_mod_MOD_adios2_get_deferred_by_name_complex_dp_4d
libadios2_fortran.so.2:__adios2_engine_get_mod_MOD_adios2_get_deferred_by_name_complex_dp_5d
libadios2_fortran.so.2:__adios2_engine_get_mod_MOD_adios2_get_deferred_by_name_complex_dp_6d
libadios2_fortran.so.2:__adios2_engine_get_mod_MOD_adios2_get_deferred_by_name_dp
libadios2_fortran.so.2:__adios2_engine_get_mod_MOD_adios2_get_deferred_by_name_dp_1d
libadios2_fortran.so.2:__adios2_engine_get_mod_MOD_adios2_get_deferred_by_name_dp_2d
libadios2_fortran.so.2:__adios2_engine_get_mod_MOD_adios2_get_deferred_by_name_dp_3d
libadios2_fortran.so.2:__adios2_engine_get_mod_MOD_adios2_get_deferred_by_name_dp_4d
libadios2_fortran.so.2:__adios2_engine_get_mod_MOD_adios2_get_deferred_by_name_dp_5d
libadios2_fortran.so.2:__adios2_engine_get_mod_MOD_adios2_get_deferred_by_name_dp_6d
libadios2_fortran.so.2:__adios2_engine_get_mod_MOD_adios2_get_deferred_by_name_integer1
libadios2_fortran.so.2:__adios2_engine_get_mod_MOD_adios2_get_deferred_by_name_integer1_1d
libadios2_fortran.so.2:__adios2_engine_get_mod_MOD_adios2_get_deferred_by_name_integer1_2d
libadios2_fortran.so.2:__adios2_engine_get_mod_MOD_adios2_get_deferred_by_name_integer1_3d
libadios2_fortran.so.2:__adios2_engine_get_mod_MOD_adios2_get_deferred_by_name_integer1_4d
libadios2_fortran.so.2:__adios2_engine_get_mod_MOD_adios2_get_deferred_by_name_integer1_5d
libadios2_fortran.so.2:__adios2_engine_get_mod_MOD_adios2_get_deferred_by_name_integer1_6d
