libdocklike.so:_ZN11GroupWindow10getInGroupEv
libdocklike.so:_ZN11GroupWindow10leaveGroupEv
libdocklike.so:_ZN11GroupWindow10onActivateEv
libdocklike.so:_ZN11GroupWindow11updateStateEv
libdocklike.so:_ZN11GroupWindow8activateEj
libdocklike.so:_ZN11GroupWindow8minimizeEv
libdocklike.so:_ZN11GroupWindowC1EP11_WnckWindow
libdocklike.so:_ZN11GroupWindowC2EP11_WnckWindow
libdocklike.so:_ZN11GroupWindowD1Ev
libdocklike.so:_ZN11GroupWindowD2Ev
libdocklike.so:_ZN13GroupMenuItem10updateIconEv
libdocklike.so:_ZN13GroupMenuItem11updateLabelEv
libdocklike.so:_ZN13GroupMenuItem13updatePreviewEv
libdocklike.so:_ZN13GroupMenuItemC1EP11GroupWindow
libdocklike.so:_ZN13GroupMenuItemC2EP11GroupWindow
libdocklike.so:_ZN13GroupMenuItemD1Ev
libdocklike.so:_ZN13GroupMenuItemD2Ev
libdocklike.so:_ZN14SettingsDialog27updateKeyComboActiveWarningEP10_GtkWidget
libdocklike.so:_ZN14SettingsDialog5popupEv
libdocklike.so:_ZN4Dock10drawGroupsEv
libdocklike.so:_ZN4Dock10mPanelSizeE
libdocklike.so:_ZN4Dock10moveButtonEP5GroupS1_
libdocklike.so:_ZN4Dock10savePinnedEv
libdocklike.so:_ZN4Dock12hoverSuperedEb
libdocklike.so:_ZN4Dock12prepareGroupESt10shared_ptrI7AppInfoE
libdocklike.so:_ZN4Dock13activateGroupEij
libdocklike.so:_ZN4Dock13onPanelResizeEi
libdocklike.so:_ZN4Dock24onPanelOrientationChangeE14GtkOrientation
libdocklike.so:_ZN4Dock4initEv
libdocklike.so:_ZN4Dock4mBoxE
libdocklike.so:_ZN4Dock7mGroupsE
libdocklike.so:_ZN4Dock9mIconSizeE
libdocklike.so:_ZN4Help3Gtk11cssClassAddEP10_GtkWidgetPKc
libdocklike.so:_ZN4Help3Gtk14cssClassRemoveEP10_GtkWidgetPKc
libdocklike.so:_ZN4Help3Gtk16getChildPositionEP13_GtkContainerP10_GtkWidget
libdocklike.so:_ZN4Help3Gtk21bufferToStdStringListB5cxx11EPPc
libdocklike.so:_ZN4Help3Gtk21stdToBufferStringListERNSt7__cxx114listINS1_12basic_stringIcSt11char_traitsIcESaIcEEESaIS7_EEE
libdocklike.so:_ZN4Help3Gtk4Idle4stopEv
libdocklike.so:_ZN4Help3Gtk4Idle5setupESt8functionIFbvEE
libdocklike.so:_ZN4Help3Gtk4Idle5startEv
libdocklike.so:_ZN4Help3Gtk4IdleC1Ev
libdocklike.so:_ZN4Help3Gtk4IdleC2Ev
libdocklike.so:_ZN4Help3Gtk7Timeout4stopEv
libdocklike.so:_ZN4Help3Gtk7Timeout5setupEjSt8functionIFbvEE
libdocklike.so:_ZN4Help3Gtk7Timeout5startEv
libdocklike.so:_ZN4Help3Gtk7TimeoutC1Ev
libdocklike.so:_ZN4Help3Gtk7TimeoutC2Ev
libdocklike.so:_ZN4Help6String11numericOnlyENSt7__cxx1112basic_stringIcSt11char_traitsIcESaIcEEE
libdocklike.so:_ZN4Help6String11toLowercaseENSt7__cxx1112basic_stringIcSt11char_traitsIcESaIcEEE
libdocklike.so:_ZN4Help6String12pathBasenameENSt7__cxx1112basic_stringIcSt11char_traitsIcESaIcEEE
libdocklike.so:_ZN4Help6String4trimENSt7__cxx1112basic_stringIcSt11char_traitsIcESaIcEEE
libdocklike.so:_ZN4Help6String5splitERKNSt7__cxx1112basic_stringIcSt11char_traitsIcESaIcEEERNS1_4listIS6_SaIS6_EEEc
libdocklike.so:_ZN4Help6String7getWordENSt7__cxx1112basic_stringIcSt11char_traitsIcESaIcEEEic
libdocklike.so:_ZN4Wnck11mWnckScreenE
libdocklike.so:_ZN4Wnck12getGroupNameB5cxx11EP11GroupWindow
libdocklike.so:_ZN4Wnck13mGroupWindowsE
libdocklike.so:_ZN4Wnck15buildActionMenuEP11GroupWindowP5Group
libdocklike.so:_ZN4Wnck15setActiveWindowEv
libdocklike.so:_ZN4Wnck16setVisibleGroupsEv
libdocklike.so:_ZN4Wnck18getActiveWindowXIDEv
libdocklike.so:_ZN4Wnck18switchToLastWindowEj
libdocklike.so:_ZN4Wnck4initEv
libdocklike.so:_ZN4Wnck5closeEP11GroupWindowj
libdocklike.so:_ZN4Wnck8activateEP11GroupWindowj
libdocklike.so:_ZN5Group11onDragBeginEP15_GdkDragContext
libdocklike.so:_ZN5Group11onDragLeaveEPK15_GdkDragContextj
libdocklike.so:_ZN5Group11updateStyleEv
libdocklike.so:_ZN5Group12onDragMotionEP10_GtkWidgetP15_GdkDragContextiij
libdocklike.so:_ZN5Group12onMouseEnterEv
libdocklike.so:_ZN5Group12onMouseLeaveEv
libdocklike.so:_ZN5Group12setTopWindowEP11GroupWindow
libdocklike.so:_ZN5Group13onButtonPressEP15_GdkEventButton
libdocklike.so:_ZN5Group13onDragDataGetEPK15_GdkDragContextP17_GtkSelectionDatajj
libdocklike.so:_ZN5Group13scrollWindowsEj18GdkScrollDirection
libdocklike.so:_ZN5Group15onButtonReleaseEP15_GdkEventButton
libdocklike.so:_ZN5Group16onWindowActivateEP11GroupWindow
libdocklike.so:_ZN5Group17electNewTopWindowEv
libdocklike.so:_ZN5Group18onDragDataReceivedEPK15_GdkDragContextiiPK17_GtkSelectionDatajj
libdocklike.so:_ZN5Group18onWindowUnactivateEv
libdocklike.so:_ZN5Group20setMouseLeaveTimeoutEv
libdocklike.so:_ZN5Group3addEP11GroupWindow
libdocklike.so:_ZN5Group6onDrawEP6_cairo
libdocklike.so:_ZN5Group6removeEP11GroupWindow
libdocklike.so:_ZN5Group6resizeEv
libdocklike.so:_ZN5Group8activateEj
libdocklike.so:_ZN5Group8closeAllEv
libdocklike.so:_ZN5GroupC1ESt10shared_ptrI7AppInfoEb
libdocklike.so:_ZN5GroupC2ESt10shared_ptrI7AppInfoEb
libdocklike.so:_ZN5GroupD1Ev
libdocklike.so:_ZN5GroupD2Ev
libdocklike.so:_ZN5Theme16get_theme_colorsB5cxx11Ev
libdocklike.so:_ZN5Theme4initEv
libdocklike.so:_ZN5Theme4loadEv
libdocklike.so:_ZN6Plugin11aboutDialogEv
libdocklike.so:_ZN6Plugin11remoteEventEPcP7_GValue
libdocklike.so:_ZN6Plugin8mDisplayE
libdocklike.so:_ZN6Plugin8mPointerE
libdocklike.so:_ZN6Plugin9mXfPluginE
libdocklike.so:_ZN7AppInfo13launch_actionEPKc
libdocklike.so:_ZN7AppInfo4editEv
libdocklike.so:_ZN7AppInfo6launchEv
libdocklike.so:_ZN7Hotkeys12mGrabbedKeysE
libdocklike.so:_ZN7Hotkeys14mSuperLKeycodeE
libdocklike.so:_ZN7Hotkeys14mSuperRKeycodeE
libdocklike.so:_ZN7Hotkeys14updateSettingsEv
libdocklike.so:_ZN7Hotkeys15mXIExtAvailableE
libdocklike.so:_ZN7Hotkeys16mHotkeysHandlingE
libdocklike.so:_ZN7Hotkeys4initEv
libdocklike.so:_ZN7Hotkeys7mThreadE
libdocklike.so:_ZN7Hotkeys9m1KeycodeE
libdocklike.so:_ZN7Hotkeys9mXIOpcodeE
libdocklike.so:_ZN8AppInfos11mAppInfoIdsB5cxx11E
libdocklike.so:_ZN8AppInfos12mXdgDataDirsB5cxx11E
libdocklike.so:_ZN8AppInfos13mAppInfoNamesB5cxx11E
libdocklike.so:_ZN8AppInfos16mGroupNameRenameB5cxx11E
libdocklike.so:_ZN8AppInfos17mAppInfoWMClassesB5cxx11E
libdocklike.so:_ZN8AppInfos4initEv
libdocklike.so:_ZN8AppInfos6searchENSt7__cxx1112basic_stringIcSt11char_traitsIcESaIcEEE
libdocklike.so:_ZN8AppInfos8finalizeEv
libdocklike.so:_ZN8AppInfos8mMonitorE
libdocklike.so:_ZN8Settings12previewScaleE
libdocklike.so:_ZN8Settings12previewSleepE
libdocklike.so:_ZN8Settings12showPreviewsE
libdocklike.so:_ZN8Settings13forceIconSizeE
libdocklike.so:_ZN8Settings13inactiveColorE
libdocklike.so:_ZN8Settings13pinnedAppListB5cxx11E
libdocklike.so:_ZN8Settings14indicatorColorE
libdocklike.so:_ZN8Settings14indicatorStyleE
libdocklike.so:_ZN8Settings14keyAloneActiveE
libdocklike.so:_ZN8Settings14keyComboActiveE
libdocklike.so:_ZN8Settings15showWindowCountE
libdocklike.so:_ZN8Settings17onlyDisplayScreenE
libdocklike.so:_ZN8Settings18onlyDisplayVisibleE
libdocklike.so:_ZN8Settings20indicatorOrientationE
libdocklike.so:_ZN8Settings20middleButtonBehaviorE
libdocklike.so:_ZN8Settings21noWindowsListIfSingleE
libdocklike.so:_ZN8Settings22inactiveIndicatorStyleE
libdocklike.so:_ZN8Settings23indicatorColorFromThemeE
libdocklike.so:_ZN8Settings4initEv
libdocklike.so:_ZN8Settings5mFileE
libdocklike.so:_ZN8Settings5mPathE
libdocklike.so:_ZN8Settings8dockSizeE
libdocklike.so:_ZN8Settings8finalizeEv
libdocklike.so:_ZN8Settings8iconSizeE
libdocklike.so:_ZN8Settings8saveFileEv
libdocklike.so:_ZN9GroupMenu14updatePositionEii
libdocklike.so:_ZN9GroupMenu17updateOrientationEv
libdocklike.so:_ZN9GroupMenu18getPointerDistanceEv
libdocklike.so:_ZN9GroupMenu19showPreviewsChangedEv
libdocklike.so:_ZN9GroupMenu3addEP13GroupMenuItem
libdocklike.so:_ZN9GroupMenu4hideEv
libdocklike.so:_ZN9GroupMenu5popupEv
libdocklike.so:_ZN9GroupMenu6removeEP13GroupMenuItem
libdocklike.so:_ZN9GroupMenuC1EP5Group
libdocklike.so:_ZN9GroupMenuC2EP5Group
libdocklike.so:_ZN9GroupMenuD1Ev
libdocklike.so:_ZN9GroupMenuD2Ev
libdocklike.so:_ZNK11GroupWindow12onUnactivateEv
libdocklike.so:_ZNK11GroupWindow8getStateE15WnckWindowState
libdocklike.so:_gresources_get_resource
libdocklike.so:construct
libdocklike.so:xfce_panel_module_construct
