kvantummanager:_IO_stdin_used
kvantummanager:_Z29qInitResources_kvantummanagerv
kvantummanager:_Z32qCleanupResources_kvantummanagerv
kvantummanager:_ZN9KvManager11assignThemeERK7QStringRK5QListIS0_E
kvantummanager:_ZN9KvManager12symbolicIcon4iconERK7QString
kvantummanager:_ZN9KvManager14KvantumManager10closeEventEP11QCloseEvent
kvantummanager:_ZN9KvManager14KvantumManager10getCommentERK7QStringb
kvantummanager:_ZN9KvManager14KvantumManager10tabChangedEi
kvantummanager:_ZN9KvManager14KvantumManager10txtChangedERK7QString
kvantummanager:_ZN9KvManager14KvantumManager11aboutDialogEv
kvantummanager:_ZN9KvManager14KvantumManager11deleteThemeEv
kvantummanager:_ZN9KvManager14KvantumManager11eventFilterEP7QObjectP6QEvent
kvantummanager:_ZN9KvManager14KvantumManager11notWritableERK7QString
kvantummanager:_ZN9KvManager14KvantumManager11qt_metacallEN11QMetaObject4CallEiPPv
kvantummanager:_ZN9KvManager14KvantumManager11qt_metacastEPKc
kvantummanager:_ZN9KvManager14KvantumManager11writeConfigEv
kvantummanager:_ZN9KvManager14KvantumManager12installThemeEv
kvantummanager:_ZN9KvManager14KvantumManager12showAnimatedEP7QWidgeti
kvantummanager:_ZN9KvManager14KvantumManager13copyRootThemeE7QStringS1_
kvantummanager:_ZN9KvManager14KvantumManager13isTranslucentEb
kvantummanager:_ZN9KvManager14KvantumManager13notCompisitedEb
kvantummanager:_ZN9KvManager14KvantumManager13popupBlurringEb
kvantummanager:_ZN9KvManager14KvantumManager13removeAppListEv
kvantummanager:_ZN9KvManager14KvantumManager13restyleWindowEv
kvantummanager:_ZN9KvManager14KvantumManager13showWhatsThisEv
kvantummanager:_ZN9KvManager14KvantumManager13writeAppListsEv
kvantummanager:_ZN9KvManager14KvantumManager14assignAppThemeERK7QStringS3_
kvantummanager:_ZN9KvManager14KvantumManager14restoreDefaultEv
kvantummanager:_ZN9KvManager14KvantumManager15canNotBeRemovedERK7QStringb
kvantummanager:_ZN9KvManager14KvantumManager15updateThemeListEb
kvantummanager:_ZN9KvManager14KvantumManager16selectionChangedEi
kvantummanager:_ZN9KvManager14KvantumManager16staticMetaObjectE
kvantummanager:_ZN9KvManager14KvantumManager17setTabWidgetFocusEv
kvantummanager:_ZN9KvManager14KvantumManager17tooTipToWhatsThisERK7QString
kvantummanager:_ZN9KvManager14KvantumManager17writeOrigAppListsEv
kvantummanager:_ZN9KvManager14KvantumManager18openUserConfigFileERK7QString
kvantummanager:_ZN9KvManager14KvantumManager19defaultThemeButtonsEv
kvantummanager:_ZN9KvManager14KvantumManager21fitConfPageToContentsEv
kvantummanager:_ZN9KvManager14KvantumManager25trantsientScrollbarEnbledEb
kvantummanager:_ZN9KvManager14KvantumManager7previewEv
kvantummanager:_ZN9KvManager14KvantumManager8useThemeEv
kvantummanager:_ZN9KvManager14KvantumManager9comboMenuEb
kvantummanager:_ZN9KvManager14KvantumManager9openThemeEv
kvantummanager:_ZN9KvManager14KvantumManager9respectDEEb
kvantummanager:_ZN9KvManager14KvantumManagerC1ERK7QStringP7QWidget
kvantummanager:_ZN9KvManager14KvantumManagerC2ERK7QStringP7QWidget
kvantummanager:_ZN9KvManager14KvantumManagerD0Ev
kvantummanager:_ZN9KvManager14KvantumManagerD1Ev
kvantummanager:_ZN9KvManager14KvantumManagerD2Ev
kvantummanager:_ZN9KvManager8ComboBox11qt_metacallEN11QMetaObject4CallEiPPv
kvantummanager:_ZN9KvManager8ComboBox11qt_metacastEPKc
kvantummanager:_ZN9KvManager8ComboBox16staticMetaObjectE
kvantummanager:_ZN9KvManager8ComboBox17textChangedSignalERK7QStringS3_
kvantummanager:_ZN9KvManager8setThemeERK7QString
kvantummanager:_ZNK9KvManager14KvantumManager10isThemeDirERK7QString
kvantummanager:_ZNK9KvManager14KvantumManager10metaObjectEv
kvantummanager:_ZNK9KvManager14KvantumManager12rootThemeDirERK7QString
kvantummanager:_ZNK9KvManager14KvantumManager12userThemeDirERK7QString
kvantummanager:_ZNK9KvManager14KvantumManager18isLightWithDarkDirERK7QString
kvantummanager:_ZNK9KvManager14KvantumManager21fileBelongsToThemeDirERK7QStringS3_
kvantummanager:_ZNK9KvManager8ComboBox10metaObjectEv
kvantummanager:_ZTIN9KvManager14KvantumManagerE
kvantummanager:_ZTIN9KvManager8ComboBoxE
kvantummanager:_ZTSN9KvManager14KvantumManagerE
kvantummanager:_ZTSN9KvManager8ComboBoxE
kvantummanager:_ZTVN9KvManager14KvantumManagerE
kvantummanager:_ZTVN9KvManager8ComboBoxE
kvantummanager:_ZThn16_N9KvManager14KvantumManagerD0Ev
kvantummanager:_ZThn16_N9KvManager14KvantumManagerD1Ev
kvantummanager:__data_start
kvantummanager:_start
kvantummanager:main
kvantumpreview:_IO_stdin_used
kvantumpreview:_Z38qInitResources_KvantumPreviewResourcesv
kvantumpreview:_Z41qCleanupResources_KvantumPreviewResourcesv
kvantumpreview:_ZN14KvantumPreview11qt_metacallEN11QMetaObject4CallEiPPv
kvantumpreview:_ZN14KvantumPreview11qt_metacastEPKc
kvantumpreview:_ZN14KvantumPreview16staticMetaObjectE
kvantumpreview:_ZNK14KvantumPreview10metaObjectEv
kvantumpreview:_ZTI14KvantumPreview
kvantumpreview:_ZTS14KvantumPreview
kvantumpreview:_ZTV14KvantumPreview
kvantumpreview:__data_start
kvantumpreview:_start
kvantumpreview:main
libkvantum.so:_Z27qInitResources_defaultthemev
libkvantum.so:_Z30qCleanupResources_defaultthemev
libkvantum.so:_ZN7Kvantum10BlurHelper11eventFilterEP7QObjectP6QEvent
libkvantum.so:_ZN7Kvantum10BlurHelper11qt_metacallEN11QMetaObject4CallEiPPv
libkvantum.so:_ZN7Kvantum10BlurHelper11qt_metacastEPKc
libkvantum.so:_ZN7Kvantum10BlurHelper14registerWidgetEP7QWidget
libkvantum.so:_ZN7Kvantum10BlurHelper16staticMetaObjectE
libkvantum.so:_ZN7Kvantum10BlurHelper16unregisterWidgetEP7QWidget
libkvantum.so:_ZN7Kvantum10BlurHelperC1EP7QObject5QListIdES4_iidddb
libkvantum.so:_ZN7Kvantum10BlurHelperC2EP7QObject5QListIdES4_iidddb
libkvantum.so:_ZN7Kvantum11ThemeConfig11getSizeSpecERK7QString
libkvantum.so:_ZN7Kvantum11ThemeConfig12getFrameSpecERK7QString
libkvantum.so:_ZN7Kvantum11ThemeConfig12getLabelSpecERK7QString
libkvantum.so:_ZN7Kvantum11ThemeConfig12getThemeSpecEv
libkvantum.so:_ZN7Kvantum11ThemeConfig15getInteriorSpecERK7QString
libkvantum.so:_ZN7Kvantum11ThemeConfig16getCompositeSpecEv
libkvantum.so:_ZN7Kvantum11ThemeConfig16getIndicatorSpecERK7QString
libkvantum.so:_ZN7Kvantum11ThemeConfig4loadERK7QString
libkvantum.so:_ZN7Kvantum11ThemeConfigC1ERK7QString
libkvantum.so:_ZN7Kvantum11ThemeConfigC2ERK7QString
libkvantum.so:_ZN7Kvantum11ThemeConfigD1Ev
libkvantum.so:_ZN7Kvantum11ThemeConfigD2Ev
libkvantum.so:_ZN7Kvantum13KvantumPlugin11qt_metacallEN11QMetaObject4CallEiPPv
libkvantum.so:_ZN7Kvantum13KvantumPlugin11qt_metacastEPKc
libkvantum.so:_ZN7Kvantum13KvantumPlugin16staticMetaObjectE
libkvantum.so:_ZN7Kvantum13KvantumPlugin6createERK7QString
libkvantum.so:_ZN7Kvantum13WindowManager10initializeERK11QStringList
libkvantum.so:_ZN7Kvantum13WindowManager10initializeERK5QListI7QStringE
libkvantum.so:_ZN7Kvantum13WindowManager10timerEventEP11QTimerEvent
libkvantum.so:_ZN7Kvantum13WindowManager11eventFilterEP7QObjectP6QEvent
libkvantum.so:_ZN7Kvantum13WindowManager11isDraggableEP7QWidget
libkvantum.so:_ZN7Kvantum13WindowManager11qt_metacallEN11QMetaObject4CallEiPPv
libkvantum.so:_ZN7Kvantum13WindowManager11qt_metacastEPKc
libkvantum.so:_ZN7Kvantum13WindowManager13isBlackListedEP7QWidget
libkvantum.so:_ZN7Kvantum13WindowManager13leavingWindowEv
libkvantum.so:_ZN7Kvantum13WindowManager14AppEventFilter11eventFilterEP7QObjectP6QEvent
libkvantum.so:_ZN7Kvantum13WindowManager14mouseMoveEventEP6QEvent
libkvantum.so:_ZN7Kvantum13WindowManager14registerWidgetEP7QWidget
libkvantum.so:_ZN7Kvantum13WindowManager15mousePressEventEP7QObjectP6QEvent
libkvantum.so:_ZN7Kvantum13WindowManager16staticMetaObjectE
libkvantum.so:_ZN7Kvantum13WindowManager16unregisterWidgetEP7QWidget
libkvantum.so:_ZN7Kvantum13WindowManager17mouseReleaseEventEP6QEvent
libkvantum.so:_ZN7Kvantum13WindowManager19initializeBlackListERK11QStringList
libkvantum.so:_ZN7Kvantum13WindowManager19initializeBlackListERK5QListI7QStringE
libkvantum.so:_ZN7Kvantum13WindowManager7canDragEP7QWidget
libkvantum.so:_ZN7Kvantum13WindowManager9resetDragEv
libkvantum.so:_ZN7Kvantum13WindowManagerC1EP7QObjectNS0_4DragEb
libkvantum.so:_ZN7Kvantum13WindowManagerC2EP7QObjectNS0_4DragEb
libkvantum.so:_ZN7Kvantum13WindowManagerD0Ev
libkvantum.so:_ZN7Kvantum13WindowManagerD1Ev
libkvantum.so:_ZN7Kvantum13WindowManagerD2Ev
libkvantum.so:_ZN7Kvantum15NumberAnimation11qt_metacallEN11QMetaObject4CallEiPPv
libkvantum.so:_ZN7Kvantum15NumberAnimation11qt_metacastEPKc
libkvantum.so:_ZN7Kvantum15NumberAnimation11setEndValueEd
libkvantum.so:_ZN7Kvantum15NumberAnimation13setStartValueEd
libkvantum.so:_ZN7Kvantum15NumberAnimation16staticMetaObjectE
libkvantum.so:_ZN7Kvantum15NumberAnimationC1EP7QObject
libkvantum.so:_ZN7Kvantum15NumberAnimationC2EP7QObject
libkvantum.so:_ZN7Kvantum15ShortcutHandler11eventFilterEP7QObjectP6QEvent
libkvantum.so:_ZN7Kvantum15ShortcutHandler11qt_metacallEN11QMetaObject4CallEiPPv
libkvantum.so:_ZN7Kvantum15ShortcutHandler11qt_metacastEPKc
libkvantum.so:_ZN7Kvantum15ShortcutHandler12updateWidgetEP7QWidget
libkvantum.so:_ZN7Kvantum15ShortcutHandler15widgetDestroyedEP7QObject
libkvantum.so:_ZN7Kvantum15ShortcutHandler16staticMetaObjectE
libkvantum.so:_ZN7Kvantum15ShortcutHandlerC1EP7QObject
libkvantum.so:_ZN7Kvantum15ShortcutHandlerC2EP7QObject
libkvantum.so:_ZN7Kvantum15ShortcutHandlerD0Ev
libkvantum.so:_ZN7Kvantum15ShortcutHandlerD1Ev
libkvantum.so:_ZN7Kvantum15ShortcutHandlerD2Ev
libkvantum.so:_ZN7Kvantum18ScrollbarAnimation11qt_metacallEN11QMetaObject4CallEiPPv
libkvantum.so:_ZN7Kvantum18ScrollbarAnimation11qt_metacastEPKc
libkvantum.so:_ZN7Kvantum18ScrollbarAnimation16staticMetaObjectE
libkvantum.so:_ZN7Kvantum18ScrollbarAnimation17updateCurrentTimeEi
libkvantum.so:_ZN7Kvantum18ScrollbarAnimationC1ENS0_4ModeEP7QObject
libkvantum.so:_ZN7Kvantum18ScrollbarAnimationC2ENS0_4ModeEP7QObject
libkvantum.so:_ZN7Kvantum19KvComboItemDelegate11qt_metacallEN11QMetaObject4CallEiPPv
libkvantum.so:_ZN7Kvantum19KvComboItemDelegate11qt_metacastEPKc
libkvantum.so:_ZN7Kvantum19KvComboItemDelegate16staticMetaObjectE
libkvantum.so:_ZN7Kvantum20ProgressbarAnimation11qt_metacallEN11QMetaObject4CallEiPPv
libkvantum.so:_ZN7Kvantum20ProgressbarAnimation11qt_metacastEPKc
libkvantum.so:_ZN7Kvantum20ProgressbarAnimation12updateTargetEv
libkvantum.so:_ZN7Kvantum20ProgressbarAnimation16staticMetaObjectE
libkvantum.so:_ZN7Kvantum20ProgressbarAnimationC1EP7QObject
libkvantum.so:_ZN7Kvantum20ProgressbarAnimationC2EP7QObject
libkvantum.so:_ZN7Kvantum5Style11eventFilterEP7QObjectP6QEvent
libkvantum.so:_ZN7Kvantum5Style11qt_metacallEN11QMetaObject4CallEiPPv
libkvantum.so:_ZN7Kvantum5Style11qt_metacastEPKc
libkvantum.so:_ZN7Kvantum5Style13removeFromSetEP7QObject
libkvantum.so:_ZN7Kvantum5Style14noTranslucencyEP7QObject
libkvantum.so:_ZN7Kvantum5Style14setupThemeDepsEv
libkvantum.so:_ZN7Kvantum5Style15forgetMovedMenuEP7QObject
libkvantum.so:_ZN7Kvantum5Style15removeAnimationEP7QObject
libkvantum.so:_ZN7Kvantum5Style16staticMetaObjectE
libkvantum.so:_ZN7Kvantum5Style17forgetPopupOriginEP7QObject
libkvantum.so:_ZN7Kvantum5Style19setAnimationOpacityEv
libkvantum.so:_ZN7Kvantum5Style22setAnimationOpacityOutEv
libkvantum.so:_ZN7Kvantum5Style22setBuiltinDefaultThemeEv
libkvantum.so:_ZN7Kvantum5Style6polishEP12QApplication
libkvantum.so:_ZN7Kvantum5Style6polishEP7QWidget
libkvantum.so:_ZN7Kvantum5Style6polishER8QPalette
libkvantum.so:_ZN7Kvantum5Style8setThemeERK7QStringb
libkvantum.so:_ZN7Kvantum5Style8unpolishEP12QApplication
libkvantum.so:_ZN7Kvantum5Style8unpolishEP7QWidget
libkvantum.so:_ZN7Kvantum5Style9getShadowERK7QStringii
libkvantum.so:_ZN7Kvantum5StyleC1Eb
libkvantum.so:_ZN7Kvantum5StyleC2Eb
libkvantum.so:_ZN7Kvantum5StyleD0Ev
libkvantum.so:_ZN7Kvantum5StyleD1Ev
libkvantum.so:_ZN7Kvantum5StyleD2Ev
libkvantum.so:_ZN7Kvantum9Animation11qt_metacallEN11QMetaObject4CallEiPPv
libkvantum.so:_ZN7Kvantum9Animation11qt_metacastEPKc
libkvantum.so:_ZN7Kvantum9Animation11setDurationEi
libkvantum.so:_ZN7Kvantum9Animation12setFrameRateENS0_9FrameRateE
libkvantum.so:_ZN7Kvantum9Animation12updateTargetEv
libkvantum.so:_ZN7Kvantum9Animation16staticMetaObjectE
libkvantum.so:_ZN7Kvantum9Animation17updateCurrentTimeEi
libkvantum.so:_ZN7Kvantum9Animation5startEv
libkvantum.so:_ZN7Kvantum9Animation8setDelayEi
libkvantum.so:_ZN7Kvantum9AnimationC1EP7QObject
libkvantum.so:_ZN7Kvantum9AnimationC2EP7QObject
libkvantum.so:_ZN7Kvantum9AnimationD0Ev
libkvantum.so:_ZN7Kvantum9AnimationD1Ev
libkvantum.so:_ZN7Kvantum9AnimationD2Ev
libkvantum.so:_ZNK7Kvantum10BlurHelper10blurRegionEP7QWidget
libkvantum.so:_ZNK7Kvantum10BlurHelper10metaObjectEv
libkvantum.so:_ZNK7Kvantum10BlurHelper14isWidgetActiveEPK7QWidget
libkvantum.so:_ZNK7Kvantum10BlurHelper5clearEP7QWidget
libkvantum.so:_ZNK7Kvantum10BlurHelper6updateEP7QWidget
libkvantum.so:_ZNK7Kvantum11ThemeConfig12getColorSpecEv
libkvantum.so:_ZNK7Kvantum11ThemeConfig12getHacksSpecEv
libkvantum.so:_ZNK7Kvantum11ThemeConfig8getValueERK7QStringS3_
libkvantum.so:_ZNK7Kvantum11ThemeConfig8getValueERK7QStringS3_S3_
libkvantum.so:_ZNK7Kvantum13KvantumPlugin10metaObjectEv
libkvantum.so:_ZNK7Kvantum13KvantumPlugin4keysEv
libkvantum.so:_ZNK7Kvantum13WindowManager10metaObjectEv
libkvantum.so:_ZNK7Kvantum15NumberAnimation10metaObjectEv
libkvantum.so:_ZNK7Kvantum15NumberAnimation10startValueEv
libkvantum.so:_ZNK7Kvantum15NumberAnimation12currentValueEv
libkvantum.so:_ZNK7Kvantum15NumberAnimation14isUpdateNeededEv
libkvantum.so:_ZNK7Kvantum15NumberAnimation8endValueEv
libkvantum.so:_ZNK7Kvantum15ShortcutHandler10hasSeenAltEPK7QWidget
libkvantum.so:_ZNK7Kvantum15ShortcutHandler10metaObjectEv
libkvantum.so:_ZNK7Kvantum15ShortcutHandler12showShortcutEPK7QWidget
libkvantum.so:_ZNK7Kvantum18ScrollbarAnimation10metaObjectEv
libkvantum.so:_ZNK7Kvantum18ScrollbarAnimation4modeEv
libkvantum.so:_ZNK7Kvantum19KvComboItemDelegate10metaObjectEv
libkvantum.so:_ZNK7Kvantum20ProgressbarAnimation10metaObjectEv
libkvantum.so:_ZNK7Kvantum20ProgressbarAnimation6pixelsEv
libkvantum.so:_ZNK7Kvantum5Style10metaObjectEv
libkvantum.so:_ZNK7Kvantum5Style11drawControlEN6QStyle14ControlElementEPK12QStyleOptionP8QPainterPK7QWidget
libkvantum.so:_ZNK7Kvantum5Style11getFromRGBAERK7QString
libkvantum.so:_ZNK7Kvantum5Style11getIconModeEibRKNS_10label_specE
libkvantum.so:_ZNK7Kvantum5Style11pixelMetricEN6QStyle11PixelMetricEPK12QStyleOptionPK7QWidget
libkvantum.so:_ZNK7Kvantum5Style11renderFrameEP8QPainterRK5QRectNS_10frame_specERK7QStringiiiiibbb
libkvantum.so:_ZNK7Kvantum5Style11renderLabelEPK12QStyleOptionP8QPainterRK5QRectRKNS_10frame_specERKNS_10label_specEiRK7QStringN8QPalette9ColorRoleEibRK7QPixmap5QSizeN2Qt15ToolButtonStyleEb
libkvantum.so:_ZNK7Kvantum5Style12drawItemTextEP8QPainterRK5QRectiRK8QPalettebRK7QStringNS6_9ColorRoleE
libkvantum.so:_ZNK7Kvantum5Style12drawViewItemEPK12QStyleOptionP8QPainterPK7QWidget
libkvantum.so:_ZNK7Kvantum5Style12forcePaletteEP7QWidgetRK8QPalette
libkvantum.so:_ZNK7Kvantum5Style12getLabelSpecERK7QString
libkvantum.so:_ZNK7Kvantum5Style12interiorRectERK5QRectRKNS_10frame_specE
libkvantum.so:_ZNK7Kvantum5Style12overlayColorERK6QColorS3_
libkvantum.so:_ZNK7Kvantum5Style12standardIconEN6QStyle14StandardPixmapEPK12QStyleOptionPK7QWidget
libkvantum.so:_ZNK7Kvantum5Style12tintedPixmapEPK12QStyleOptionRK7QPixmapd
libkvantum.so:_ZNK7Kvantum5Style12viewItemSizeEPK20QStyleOptionViewItemi
libkvantum.so:_ZNK7Kvantum5Style13drawFocusRectEP8QPainterRK5QRectRK7QString
libkvantum.so:_ZNK7Kvantum5Style13drawPrimitiveEN6QStyle16PrimitiveElementEPK12QStyleOptionP8QPainterPK7QWidget
libkvantum.so:_ZNK7Kvantum5Style13elementExistsERK7QString
libkvantum.so:_ZNK7Kvantum5Style13getMenuMarginEb
libkvantum.so:_ZNK7Kvantum5Style13renderElementEP8QPainterRK7QStringRK5QRectiib
libkvantum.so:_ZNK7Kvantum5Style13stopAnimationEPK7QObject
libkvantum.so:_ZNK7Kvantum5Style14drawItemPixmapEP8QPainterRK5QRectiRK7QPixmap
libkvantum.so:_ZNK7Kvantum5Style14enoughContrastERK6QColorS3_
libkvantum.so:_ZNK7Kvantum5Style14renderInteriorEP8QPainterRK5QRectRKNS_10frame_specERKNS_13interior_specERK7QStringbb
libkvantum.so:_ZNK7Kvantum5Style14sizeCalculatedERK5QFontRKNS_10frame_specERKNS_10label_specERKNS_9size_specERK7QString5QSizeN2Qt15ToolButtonStyleE
libkvantum.so:_ZNK7Kvantum5Style14startAnimationEPNS_9AnimationE
libkvantum.so:_ZNK7Kvantum5Style14subControlRectEN6QStyle14ComplexControlEPK19QStyleOptionComplexNS1_10SubControlEPK7QWidget
libkvantum.so:_ZNK7Kvantum5Style14subElementRectEN6QStyle10SubElementEPK12QStyleOptionPK7QWidget
libkvantum.so:_ZNK7Kvantum5Style14viewItemLayoutEPK20QStyleOptionViewItemP5QRectS5_S5_b
libkvantum.so:_ZNK7Kvantum5Style15extraComboWidthEPK20QStyleOptionComboBoxb
libkvantum.so:_ZNK7Kvantum5Style15flatArrowExistsERK7QString
libkvantum.so:_ZNK7Kvantum5Style15renderIndicatorEP8QPainterRK5QRectRKNS_10frame_specERKNS_14indicator_specERK7QStringN2Qt15LayoutDirectionE6QFlagsINSF_13AlignmentFlagEEi
libkvantum.so:_ZNK7Kvantum5Style15standardPaletteEv
libkvantum.so:_ZNK7Kvantum5Style16isWidgetInactiveEPK7QWidget
libkvantum.so:_ZNK7Kvantum5Style16renderSliderTickEP8QPainterRK7QStringRK5QRectiiiibb
libkvantum.so:_ZNK7Kvantum5Style16setSurfaceFormatEP7QWidget
libkvantum.so:_ZNK7Kvantum5Style16sizeFromContentsEN6QStyle12ContentsTypeEPK12QStyleOptionRK5QSizePK7QWidget
libkvantum.so:_ZNK7Kvantum5Style16viewItemDrawTextEP8QPainterPK20QStyleOptionViewItemRK5QRect
libkvantum.so:_ZNK7Kvantum5Style16whichGroupedTBtnEPK11QToolButtonPK7QWidgetRb
libkvantum.so:_ZNK7Kvantum5Style17btnDragInProgressEv
libkvantum.so:_ZNK7Kvantum5Style17drawComboLineEditEPK12QStyleOptionP8QPainterPK7QWidgetS8_RK7QStringb
libkvantum.so:_ZNK7Kvantum5Style17getPixmapFromIconERK5QIconNS0_10KvIconModeENS1_5StateE5QSize
libkvantum.so:_ZNK7Kvantum5Style17hasExpandedBorderERKNS_10frame_specE
libkvantum.so:_ZNK7Kvantum5Style17isStylableToolbarEPK7QWidgetb
libkvantum.so:_ZNK7Kvantum5Style17translucentPixmapERK7QPixmapd
libkvantum.so:_ZNK7Kvantum5Style18drawComplexControlEN6QStyle14ComplexControlEPK19QStyleOptionComplexP8QPainterPK7QWidget
libkvantum.so:_ZNK7Kvantum5Style19calculateElidedTextERK7QStringRK11QTextOptionRK5QFontRK5QRect6QFlagsIN2Qt13AlignmentFlagEENSE_13TextElideModeEibP7QPointF
libkvantum.so:_ZNK7Kvantum5Style19generatedIconPixmapEN5QIcon4ModeERK7QPixmapPK12QStyleOption
libkvantum.so:_ZNK7Kvantum5Style19mergedToolbarHeightEPK7QWidget
libkvantum.so:_ZNK7Kvantum5Style20forceButtonTextColorEP7QWidget6QColor
libkvantum.so:_ZNK7Kvantum5Style21hitTestComplexControlEN6QStyle14ComplexControlEPK19QStyleOptionComplexRK6QPointPK7QWidget
libkvantum.so:_ZNK7Kvantum5Style27getStylableToolbarContainerEPK7QWidgetb
libkvantum.so:_ZNK7Kvantum5Style28hasHighContrastWithContainerEPK7QWidget6QColor
libkvantum.so:_ZNK7Kvantum5Style6drawBgEP8QPainterPK7QWidget
libkvantum.so:_ZNK7Kvantum5Style8getStateEPK12QStyleOptionPK7QWidget
libkvantum.so:_ZNK7Kvantum5Style9getParentEPK7QWidgeti
libkvantum.so:_ZNK7Kvantum5Style9styleHintEN6QStyle9StyleHintEPK12QStyleOptionPK7QWidgetP16QStyleHintReturn
libkvantum.so:_ZNK7Kvantum9Animation10metaObjectEv
libkvantum.so:_ZNK7Kvantum9Animation14isUpdateNeededEv
libkvantum.so:_ZNK7Kvantum9Animation5delayEv
libkvantum.so:_ZNK7Kvantum9Animation6targetEv
libkvantum.so:_ZNK7Kvantum9Animation8durationEv
libkvantum.so:_ZNK7Kvantum9Animation9frameRateEv
libkvantum.so:_ZTIN7Kvantum10BlurHelperE
libkvantum.so:_ZTIN7Kvantum13KvantumPluginE
libkvantum.so:_ZTIN7Kvantum13WindowManager14AppEventFilterE
libkvantum.so:_ZTIN7Kvantum13WindowManagerE
libkvantum.so:_ZTIN7Kvantum15NumberAnimationE
libkvantum.so:_ZTIN7Kvantum15ShortcutHandlerE
libkvantum.so:_ZTIN7Kvantum18ScrollbarAnimationE
libkvantum.so:_ZTIN7Kvantum19KvComboItemDelegateE
libkvantum.so:_ZTIN7Kvantum20ProgressbarAnimationE
libkvantum.so:_ZTIN7Kvantum5StyleE
libkvantum.so:_ZTIN7Kvantum9AnimationE
libkvantum.so:_ZTSN7Kvantum10BlurHelperE
libkvantum.so:_ZTSN7Kvantum13KvantumPluginE
libkvantum.so:_ZTSN7Kvantum13WindowManager14AppEventFilterE
libkvantum.so:_ZTSN7Kvantum13WindowManagerE
libkvantum.so:_ZTSN7Kvantum15NumberAnimationE
libkvantum.so:_ZTSN7Kvantum15ShortcutHandlerE
libkvantum.so:_ZTSN7Kvantum18ScrollbarAnimationE
libkvantum.so:_ZTSN7Kvantum19KvComboItemDelegateE
libkvantum.so:_ZTSN7Kvantum20ProgressbarAnimationE
libkvantum.so:_ZTSN7Kvantum5StyleE
libkvantum.so:_ZTSN7Kvantum9AnimationE
libkvantum.so:_ZTVN7Kvantum10BlurHelperE
libkvantum.so:_ZTVN7Kvantum13KvantumPluginE
libkvantum.so:_ZTVN7Kvantum13WindowManager14AppEventFilterE
libkvantum.so:_ZTVN7Kvantum13WindowManagerE
libkvantum.so:_ZTVN7Kvantum15NumberAnimationE
libkvantum.so:_ZTVN7Kvantum15ShortcutHandlerE
libkvantum.so:_ZTVN7Kvantum18ScrollbarAnimationE
libkvantum.so:_ZTVN7Kvantum19KvComboItemDelegateE
libkvantum.so:_ZTVN7Kvantum20ProgressbarAnimationE
libkvantum.so:_ZTVN7Kvantum5StyleE
libkvantum.so:_ZTVN7Kvantum9AnimationE
libkvantum.so:qt_plugin_instance
libkvantum.so:qt_plugin_query_metadata
libkvantum.so:qt_plugin_query_metadata_v2
