libKF5GlobalAccel.so.5:_ZN12KGlobalAccel10setEnabledEb
libKF5GlobalAccel.so.5:_ZN12KGlobalAccel11eventFilterEP7QObjectP6QEvent
libKF5GlobalAccel.so.5:_ZN12KGlobalAccel11qt_metacallEN11QMetaObject4CallEiPPv
libKF5GlobalAccel.so.5:_ZN12KGlobalAccel11qt_metacastEPKc
libKF5GlobalAccel.so.5:_ZN12KGlobalAccel11setShortcutEP7QActionRK5QListI12QKeySequenceENS_21GlobalShortcutLoadingE
libKF5GlobalAccel.so.5:_ZN12KGlobalAccel14cleanComponentERK7QString
libKF5GlobalAccel.so.5:_ZN12KGlobalAccel16staticMetaObjectE
libKF5GlobalAccel.so.5:_ZN12KGlobalAccel17allMainComponentsEv
libKF5GlobalAccel.so.5:_ZN12KGlobalAccel17isComponentActiveERK7QString
libKF5GlobalAccel.so.5:_ZN12KGlobalAccel17setGlobalShortcutEP7QActionRK12QKeySequence
libKF5GlobalAccel.so.5:_ZN12KGlobalAccel17setGlobalShortcutEP7QActionRK5QListI12QKeySequenceE
libKF5GlobalAccel.so.5:_ZN12KGlobalAccel18removeAllShortcutsEP7QAction
libKF5GlobalAccel.so.5:_ZN12KGlobalAccel18setDefaultShortcutEP7QActionRK5QListI12QKeySequenceENS_21GlobalShortcutLoadingE
libKF5GlobalAccel.so.5:_ZN12KGlobalAccel20globalShortcutsByKeyERK12QKeySequenceNS_9MatchTypeE
libKF5GlobalAccel.so.5:_ZN12KGlobalAccel21globalShortcutChangedEP7QActionRK12QKeySequence
libKF5GlobalAccel.so.5:_ZN12KGlobalAccel22allActionsForComponentERK11QStringList
libKF5GlobalAccel.so.5:_ZN12KGlobalAccel23getGlobalShortcutsByKeyERK12QKeySequence
libKF5GlobalAccel.so.5:_ZN12KGlobalAccel23stealShortcutSystemwideERK12QKeySequence
libKF5GlobalAccel.so.5:_ZN12KGlobalAccel24findActionNameSystemwideERK12QKeySequence
libKF5GlobalAccel.so.5:_ZN12KGlobalAccel25isGlobalShortcutAvailableERK12QKeySequenceRK7QString
libKF5GlobalAccel.so.5:_ZN12KGlobalAccel27globalShortcutActiveChangedEP7QActionb
libKF5GlobalAccel.so.5:_ZN12KGlobalAccel29activateGlobalShortcutContextERK7QStringS2_S2_
libKF5GlobalAccel.so.5:_ZN12KGlobalAccel29promptStealShortcutSystemwideEP7QWidgetRK11QStringListRK12QKeySequence
libKF5GlobalAccel.so.5:_ZN12KGlobalAccel29promptStealShortcutSystemwideEP7QWidgetRK5QListI19KGlobalShortcutInfoERK12QKeySequence
libKF5GlobalAccel.so.5:_ZN12KGlobalAccel4selfEv
libKF5GlobalAccel.so.5:_ZN19KGlobalShortcutInfo11qt_metacallEN11QMetaObject4CallEiPPv
libKF5GlobalAccel.so.5:_ZN19KGlobalShortcutInfo11qt_metacastEPKc
libKF5GlobalAccel.so.5:_ZN19KGlobalShortcutInfo16staticMetaObjectE
libKF5GlobalAccel.so.5:_ZN19KGlobalShortcutInfoC1ERKS_
libKF5GlobalAccel.so.5:_ZN19KGlobalShortcutInfoC1Ev
libKF5GlobalAccel.so.5:_ZN19KGlobalShortcutInfoC2ERKS_
libKF5GlobalAccel.so.5:_ZN19KGlobalShortcutInfoC2Ev
libKF5GlobalAccel.so.5:_ZN19KGlobalShortcutInfoD0Ev
libKF5GlobalAccel.so.5:_ZN19KGlobalShortcutInfoD1Ev
libKF5GlobalAccel.so.5:_ZN19KGlobalShortcutInfoD2Ev
libKF5GlobalAccel.so.5:_ZN19KGlobalShortcutInfoaSERKS_
libKF5GlobalAccel.so.5:_ZNK12KGlobalAccel10metaObjectEv
libKF5GlobalAccel.so.5:_ZNK12KGlobalAccel11hasShortcutEPK7QAction
libKF5GlobalAccel.so.5:_ZNK12KGlobalAccel14globalShortcutERK7QStringS2_
libKF5GlobalAccel.so.5:_ZNK12KGlobalAccel15defaultShortcutEPK7QAction
libKF5GlobalAccel.so.5:_ZNK12KGlobalAccel8shortcutEPK7QAction
libKF5GlobalAccel.so.5:_ZNK12KGlobalAccel9isEnabledEv
libKF5GlobalAccel.so.5:_ZNK19KGlobalShortcutInfo10metaObjectEv
libKF5GlobalAccel.so.5:_ZNK19KGlobalShortcutInfo10uniqueNameEv
libKF5GlobalAccel.so.5:_ZNK19KGlobalShortcutInfo11defaultKeysEv
libKF5GlobalAccel.so.5:_ZNK19KGlobalShortcutInfo12friendlyNameEv
libKF5GlobalAccel.so.5:_ZNK19KGlobalShortcutInfo17contextUniqueNameEv
libKF5GlobalAccel.so.5:_ZNK19KGlobalShortcutInfo19componentUniqueNameEv
libKF5GlobalAccel.so.5:_ZNK19KGlobalShortcutInfo19contextFriendlyNameEv
libKF5GlobalAccel.so.5:_ZNK19KGlobalShortcutInfo21componentFriendlyNameEv
libKF5GlobalAccel.so.5:_ZNK19KGlobalShortcutInfo4keysEv
libKF5GlobalAccel.so.5:_ZTI12KGlobalAccel
libKF5GlobalAccel.so.5:_ZTI19KGlobalShortcutInfo
libKF5GlobalAccel.so.5:_ZTS12KGlobalAccel
libKF5GlobalAccel.so.5:_ZTS19KGlobalShortcutInfo
libKF5GlobalAccel.so.5:_ZTV12KGlobalAccel
libKF5GlobalAccel.so.5:_ZTV19KGlobalShortcutInfo
libKF5GlobalAccel.so.5:_ZlsR13QDBusArgumentRK12QKeySequence
libKF5GlobalAccel.so.5:_ZlsR13QDBusArgumentRK19KGlobalShortcutInfo
libKF5GlobalAccel.so.5:_ZlsR13QDBusArgumentRKN12KGlobalAccel9MatchTypeE
libKF5GlobalAccel.so.5:_ZrsRK13QDBusArgumentR12QKeySequence
libKF5GlobalAccel.so.5:_ZrsRK13QDBusArgumentR19KGlobalShortcutInfo
libKF5GlobalAccel.so.5:_ZrsRK13QDBusArgumentRN12KGlobalAccel9MatchTypeE
libKF5GlobalAccelPrivate.so.5:_ZN13KGlobalAccelD10doRegisterERK11QStringList
libKF5GlobalAccelPrivate.so.5:_ZN13KGlobalAccelD10unRegisterERK11QStringList
libKF5GlobalAccelPrivate.so.5:_ZN13KGlobalAccelD10unregisterERK7QStringS2_
libKF5GlobalAccelPrivate.so.5:_ZN13KGlobalAccelD11qt_metacallEN11QMetaObject4CallEiPPv
libKF5GlobalAccelPrivate.so.5:_ZN13KGlobalAccelD11qt_metacastEPKc
libKF5GlobalAccelPrivate.so.5:_ZN13KGlobalAccelD11setInactiveERK11QStringList
libKF5GlobalAccelPrivate.so.5:_ZN13KGlobalAccelD11setShortcutERK11QStringListRK5QListIiEj
libKF5GlobalAccelPrivate.so.5:_ZN13KGlobalAccelD15setShortcutKeysERK11QStringListRK5QListI12QKeySequenceEj
libKF5GlobalAccelPrivate.so.5:_ZN13KGlobalAccelD16staticMetaObjectE
libKF5GlobalAccelPrivate.so.5:_ZN13KGlobalAccelD18setForeignShortcutERK11QStringListRK5QListIiE
libKF5GlobalAccelPrivate.so.5:_ZN13KGlobalAccelD20blockGlobalShortcutsEb
libKF5GlobalAccelPrivate.so.5:_ZN13KGlobalAccelD20yourShortcutsChangedERK11QStringListRK5QListI12QKeySequenceE
libKF5GlobalAccelPrivate.so.5:_ZN13KGlobalAccelD22setForeignShortcutKeysERK11QStringListRK5QListI12QKeySequenceE
libKF5GlobalAccelPrivate.so.5:_ZN13KGlobalAccelD22yourShortcutGotChangedERK11QStringListRK5QListIiE
libKF5GlobalAccelPrivate.so.5:_ZN13KGlobalAccelD29activateGlobalShortcutContextERK7QStringS2_
libKF5GlobalAccelPrivate.so.5:_ZN13KGlobalAccelD4initEv
libKF5GlobalAccelPrivate.so.5:_ZN13KGlobalAccelDC1EP7QObject
libKF5GlobalAccelPrivate.so.5:_ZN13KGlobalAccelDC2EP7QObject
libKF5GlobalAccelPrivate.so.5:_ZN13KGlobalAccelDD0Ev
libKF5GlobalAccelPrivate.so.5:_ZN13KGlobalAccelDD1Ev
libKF5GlobalAccelPrivate.so.5:_ZN13KGlobalAccelDD2Ev
libKF5GlobalAccelPrivate.so.5:_ZN21KGlobalAccelInterface10keyPressedEi
libKF5GlobalAccelPrivate.so.5:_ZN21KGlobalAccelInterface10ungrabKeysEv
libKF5GlobalAccelPrivate.so.5:_ZN21KGlobalAccelInterface11qt_metacallEN11QMetaObject4CallEiPPv
libKF5GlobalAccelPrivate.so.5:_ZN21KGlobalAccelInterface11qt_metacastEPKc
libKF5GlobalAccelPrivate.so.5:_ZN21KGlobalAccelInterface11setRegistryEP23GlobalShortcutsRegistry
libKF5GlobalAccelPrivate.so.5:_ZN21KGlobalAccelInterface16staticMetaObjectE
libKF5GlobalAccelPrivate.so.5:_ZN21KGlobalAccelInterface19syncWindowingSystemEv
libKF5GlobalAccelPrivate.so.5:_ZN21KGlobalAccelInterface8grabKeysEv
libKF5GlobalAccelPrivate.so.5:_ZN21KGlobalAccelInterfaceC1EP7QObject
libKF5GlobalAccelPrivate.so.5:_ZN21KGlobalAccelInterfaceC2EP7QObject
libKF5GlobalAccelPrivate.so.5:_ZN21KGlobalAccelInterfaceD0Ev
libKF5GlobalAccelPrivate.so.5:_ZN21KGlobalAccelInterfaceD1Ev
libKF5GlobalAccelPrivate.so.5:_ZN21KGlobalAccelInterfaceD2Ev
libKF5GlobalAccelPrivate.so.5:_ZN23KGlobalAccelInterfaceV211keyReleasedEi
libKF5GlobalAccelPrivate.so.5:_ZN23KGlobalAccelInterfaceV211qt_metacallEN11QMetaObject4CallEiPPv
libKF5GlobalAccelPrivate.so.5:_ZN23KGlobalAccelInterfaceV211qt_metacastEPKc
libKF5GlobalAccelPrivate.so.5:_ZN23KGlobalAccelInterfaceV216staticMetaObjectE
libKF5GlobalAccelPrivate.so.5:_ZN23KGlobalAccelInterfaceV2C1EP7QObject
libKF5GlobalAccelPrivate.so.5:_ZN23KGlobalAccelInterfaceV2C2EP7QObject
libKF5GlobalAccelPrivate.so.5:_ZN5Utils10reverseKeyERK12QKeySequence
libKF5GlobalAccelPrivate.so.5:_ZN5Utils14matchSequencesERK12QKeySequenceRK5QListIS0_E
libKF5GlobalAccelPrivate.so.5:_ZN5Utils7cropKeyERK12QKeySequencei
libKF5GlobalAccelPrivate.so.5:_ZN5Utils9mangleKeyERK12QKeySequence
libKF5GlobalAccelPrivate.so.5:_ZNK13KGlobalAccelD10actionListERK12QKeySequence
libKF5GlobalAccelPrivate.so.5:_ZNK13KGlobalAccelD10metaObjectEv
libKF5GlobalAccelPrivate.so.5:_ZNK13KGlobalAccelD12getComponentERK7QString
libKF5GlobalAccelPrivate.so.5:_ZNK13KGlobalAccelD12shortcutKeysERK11QStringList
libKF5GlobalAccelPrivate.so.5:_ZNK13KGlobalAccelD13allComponentsEv
libKF5GlobalAccelPrivate.so.5:_ZNK13KGlobalAccelD15defaultShortcutERK11QStringList
libKF5GlobalAccelPrivate.so.5:_ZNK13KGlobalAccelD17allMainComponentsEv
libKF5GlobalAccelPrivate.so.5:_ZNK13KGlobalAccelD19defaultShortcutKeysERK11QStringList
libKF5GlobalAccelPrivate.so.5:_ZNK13KGlobalAccelD20globalShortcutsByKeyERK12QKeySequenceN12KGlobalAccel9MatchTypeE
libKF5GlobalAccelPrivate.so.5:_ZNK13KGlobalAccelD21scheduleWriteSettingsEv
libKF5GlobalAccelPrivate.so.5:_ZNK13KGlobalAccelD22allActionsForComponentERK11QStringList
libKF5GlobalAccelPrivate.so.5:_ZNK13KGlobalAccelD23getGlobalShortcutsByKeyEi
libKF5GlobalAccelPrivate.so.5:_ZNK13KGlobalAccelD23globalShortcutAvailableERK12QKeySequenceRK7QString
libKF5GlobalAccelPrivate.so.5:_ZNK13KGlobalAccelD25isGlobalShortcutAvailableEiRK7QString
libKF5GlobalAccelPrivate.so.5:_ZNK13KGlobalAccelD6actionEi
libKF5GlobalAccelPrivate.so.5:_ZNK13KGlobalAccelD8shortcutERK11QStringList
libKF5GlobalAccelPrivate.so.5:_ZNK21KGlobalAccelInterface10metaObjectEv
libKF5GlobalAccelPrivate.so.5:_ZNK23KGlobalAccelInterfaceV210metaObjectEv
libKF5GlobalAccelPrivate.so.5:_ZTI12QDBusContext
libKF5GlobalAccelPrivate.so.5:_ZTI13KGlobalAccelD
libKF5GlobalAccelPrivate.so.5:_ZTI21KGlobalAccelInterface
libKF5GlobalAccelPrivate.so.5:_ZTI23KGlobalAccelInterfaceV2
libKF5GlobalAccelPrivate.so.5:_ZTS12QDBusContext
libKF5GlobalAccelPrivate.so.5:_ZTS13KGlobalAccelD
libKF5GlobalAccelPrivate.so.5:_ZTS21KGlobalAccelInterface
libKF5GlobalAccelPrivate.so.5:_ZTS23KGlobalAccelInterfaceV2
libKF5GlobalAccelPrivate.so.5:_ZTV13KGlobalAccelD
libKF5GlobalAccelPrivate.so.5:_ZTV21KGlobalAccelInterface
libKF5GlobalAccelPrivate.so.5:_ZTV23KGlobalAccelInterfaceV2
