zig:ZigClangAPFloat_convertToHexString
zig:ZigClangAPInt_getLimitedValue
zig:ZigClangAPSInt_free
zig:ZigClangAPSInt_getNumWords
zig:ZigClangAPSInt_getRawData
zig:ZigClangAPSInt_isNegative
zig:ZigClangAPSInt_isSigned
zig:ZigClangAPSInt_lessThanEqual
zig:ZigClangAPSInt_negate
zig:ZigClangAPValueLValueBase_dyn_cast_Expr
zig:ZigClangAPValue_getArrayFiller
zig:ZigClangAPValue_getArrayInitializedElt
zig:ZigClangAPValue_getArrayInitializedElts
zig:ZigClangAPValue_getArraySize
zig:ZigClangAPValue_getInt
zig:ZigClangAPValue_getKind
zig:ZigClangAPValue_getLValueBase
zig:ZigClangASTContext_getPointerType
zig:ZigClangASTRecordLayout_getAlignment
zig:ZigClangASTRecordLayout_getFieldOffset
zig:ZigClangASTUnit_delete
zig:ZigClangASTUnit_getASTContext
zig:ZigClangASTUnit_getLocalPreprocessingEntities_begin
zig:ZigClangASTUnit_getLocalPreprocessingEntities_end
zig:ZigClangASTUnit_getSourceManager
zig:ZigClangASTUnit_visitLocalTopLevelDecls
zig:ZigClangAbstractConditionalOperator_getCond
zig:ZigClangAbstractConditionalOperator_getFalseExpr
zig:ZigClangAbstractConditionalOperator_getTrueExpr
zig:ZigClangArraySubscriptExpr_getBase
zig:ZigClangArraySubscriptExpr_getIdx
zig:ZigClangArrayType_getElementType
zig:ZigClangAttributedType_getEquivalentType
zig:ZigClangBinaryOperator_getBeginLoc
zig:ZigClangBinaryOperator_getLHS
zig:ZigClangBinaryOperator_getOpcode
zig:ZigClangBinaryOperator_getRHS
zig:ZigClangBinaryOperator_getType
zig:ZigClangBuiltinType_getKind
zig:ZigClangCStyleCastExpr_getBeginLoc
zig:ZigClangCStyleCastExpr_getSubExpr
zig:ZigClangCStyleCastExpr_getType
zig:ZigClangCallExpr_getArgs
zig:ZigClangCallExpr_getCallee
zig:ZigClangCallExpr_getNumArgs
zig:ZigClangCaseStmt_getBeginLoc
zig:ZigClangCaseStmt_getLHS
zig:ZigClangCaseStmt_getRHS
zig:ZigClangCaseStmt_getSubStmt
zig:ZigClangCharacterLiteral_getBeginLoc
zig:ZigClangCharacterLiteral_getKind
zig:ZigClangCharacterLiteral_getValue
zig:ZigClangChooseExpr_getChosenSubExpr
zig:ZigClangCompoundAssignOperator_getBeginLoc
zig:ZigClangCompoundAssignOperator_getComputationLHSType
zig:ZigClangCompoundAssignOperator_getComputationResultType
zig:ZigClangCompoundAssignOperator_getLHS
zig:ZigClangCompoundAssignOperator_getOpcode
zig:ZigClangCompoundAssignOperator_getRHS
zig:ZigClangCompoundAssignOperator_getType
zig:ZigClangCompoundLiteralExpr_getInitializer
zig:ZigClangCompoundStmt_body_begin
zig:ZigClangCompoundStmt_body_end
zig:ZigClangConstantArrayType_getElementType
zig:ZigClangConstantArrayType_getSize
zig:ZigClangConvertVectorExpr_getSrcExpr
zig:ZigClangConvertVectorExpr_getTypeSourceInfo_getType
zig:ZigClangDecayedType_getDecayedType
zig:ZigClangDeclRefExpr_getDecl
zig:ZigClangDeclRefExpr_getFoundDecl
zig:ZigClangDeclStmt_decl_begin
zig:ZigClangDeclStmt_decl_end
zig:ZigClangDeclStmt_getBeginLoc
zig:ZigClangDecl_castToNamedDecl
zig:ZigClangDecl_getDeclKindName
zig:ZigClangDecl_getKind
zig:ZigClangDecl_getLocation
zig:ZigClangDefaultStmt_getSubStmt
zig:ZigClangDoStmt_getBody
zig:ZigClangDoStmt_getCond
zig:ZigClangElaboratedType_getKeyword
zig:ZigClangElaboratedType_getNamedType
zig:ZigClangEnumConstantDecl_getInitVal
zig:ZigClangEnumDecl_enumerator_begin
zig:ZigClangEnumDecl_enumerator_end
zig:ZigClangEnumDecl_enumerator_iterator_deref
zig:ZigClangEnumDecl_enumerator_iterator_neq
zig:ZigClangEnumDecl_enumerator_iterator_next
zig:ZigClangEnumDecl_getCanonicalDecl
zig:ZigClangEnumDecl_getDefinition
zig:ZigClangEnumDecl_getIntegerType
zig:ZigClangEnumDecl_getLocation
zig:ZigClangEnumType_getDecl
zig:ZigClangErrorMsg_delete
zig:ZigClangExpr_EvaluateAsBooleanCondition
zig:ZigClangExpr_EvaluateAsConstantExpr
zig:ZigClangExpr_EvaluateAsFloat
zig:ZigClangExpr_getBeginLoc
zig:ZigClangExpr_getStmtClass
zig:ZigClangExpr_getType
zig:ZigClangFieldDecl_getAlignedAttribute
zig:ZigClangFieldDecl_getCanonicalDecl
zig:ZigClangFieldDecl_getFieldIndex
zig:ZigClangFieldDecl_getLocation
zig:ZigClangFieldDecl_getParent
zig:ZigClangFieldDecl_getType
zig:ZigClangFieldDecl_isAnonymousStructOrUnion
zig:ZigClangFieldDecl_isBitField
zig:ZigClangFileScopeAsmDecl_getAsmString
zig:ZigClangFloatingLiteral_getRawSemantics
zig:ZigClangFloatingLiteral_getValueAsApproximateDouble
zig:ZigClangForStmt_getBody
zig:ZigClangForStmt_getCond
zig:ZigClangForStmt_getInc
zig:ZigClangForStmt_getInit
zig:ZigClangFunctionDecl_doesDeclarationForceExternallyVisibleDefinition
zig:ZigClangFunctionDecl_doesThisDeclarationHaveABody
zig:ZigClangFunctionDecl_getAlignedAttribute
zig:ZigClangFunctionDecl_getBody
zig:ZigClangFunctionDecl_getCanonicalDecl
zig:ZigClangFunctionDecl_getDefinition
zig:ZigClangFunctionDecl_getLocation
zig:ZigClangFunctionDecl_getParamDecl
zig:ZigClangFunctionDecl_getSectionAttribute
zig:ZigClangFunctionDecl_getStorageClass
zig:ZigClangFunctionDecl_getType
zig:ZigClangFunctionDecl_hasAlwaysInlineAttr
zig:ZigClangFunctionDecl_hasBody
zig:ZigClangFunctionDecl_isDefined
zig:ZigClangFunctionDecl_isInlineSpecified
zig:ZigClangFunctionDecl_isThisDeclarationADefinition
zig:ZigClangFunctionProtoType_getNumParams
zig:ZigClangFunctionProtoType_getParamType
zig:ZigClangFunctionProtoType_getReturnType
zig:ZigClangFunctionProtoType_isVariadic
zig:ZigClangFunctionType_getCallConv
zig:ZigClangFunctionType_getNoReturnAttr
zig:ZigClangFunctionType_getReturnType
zig:ZigClangGenericSelectionExpr_getResultExpr
zig:ZigClangIfStmt_getCond
zig:ZigClangIfStmt_getElse
zig:ZigClangIfStmt_getThen
zig:ZigClangImplicitCastExpr_getBeginLoc
zig:ZigClangImplicitCastExpr_getCastKind
zig:ZigClangImplicitCastExpr_getSubExpr
zig:ZigClangIncompleteArrayType_getElementType
zig:ZigClangInitListExpr_getArrayFiller
zig:ZigClangInitListExpr_getInit
zig:ZigClangInitListExpr_getInitializedFieldInUnion
zig:ZigClangInitListExpr_getNumInits
zig:ZigClangIntegerLiteral_EvaluateAsInt
zig:ZigClangIntegerLiteral_getBeginLoc
zig:ZigClangIntegerLiteral_getSignum
zig:ZigClangLexer_getLocForEndOfToken
zig:ZigClangLoadFromCommandLine
zig:ZigClangMacroDefinitionRecord_getName_getNameStart
zig:ZigClangMacroDefinitionRecord_getSourceRange_getBegin
zig:ZigClangMacroDefinitionRecord_getSourceRange_getEnd
zig:ZigClangMacroQualifiedType_getModifiedType
zig:ZigClangMemberExpr_getBase
zig:ZigClangMemberExpr_getMemberDecl
zig:ZigClangMemberExpr_isArrow
zig:ZigClangNamedDecl_getName_bytes_begin
zig:ZigClangOffsetOfExpr_getBeginLoc
zig:ZigClangOffsetOfExpr_getComponent
zig:ZigClangOffsetOfExpr_getIndexExpr
zig:ZigClangOffsetOfExpr_getNumComponents
zig:ZigClangOffsetOfExpr_getNumExpressions
zig:ZigClangOffsetOfNode_getArrayExprIndex
zig:ZigClangOffsetOfNode_getField
zig:ZigClangOffsetOfNode_getKind
zig:ZigClangOpaqueValueExpr_getSourceExpr
zig:ZigClangParenExpr_getSubExpr
zig:ZigClangParenType_getInnerType
zig:ZigClangParmVarDecl_getOriginalType
zig:ZigClangPredefinedExpr_getFunctionName
zig:ZigClangPreprocessedEntity_getKind
zig:ZigClangPreprocessingRecord_iterator_deref
zig:ZigClangQualType_addConst
zig:ZigClangQualType_eq
zig:ZigClangQualType_getCanonicalType
zig:ZigClangQualType_getTypeClass
zig:ZigClangQualType_getTypePtr
zig:ZigClangQualType_isConstQualified
zig:ZigClangQualType_isRestrictQualified
zig:ZigClangQualType_isVolatileQualified
zig:ZigClangRecordDecl_field_begin
zig:ZigClangRecordDecl_field_end
zig:ZigClangRecordDecl_field_iterator_deref
zig:ZigClangRecordDecl_field_iterator_neq
zig:ZigClangRecordDecl_field_iterator_next
zig:ZigClangRecordDecl_getASTRecordLayout
zig:ZigClangRecordDecl_getCanonicalDecl
zig:ZigClangRecordDecl_getDefinition
zig:ZigClangRecordDecl_getLocation
zig:ZigClangRecordDecl_getPackedAttribute
zig:ZigClangRecordDecl_isAnonymousStructOrUnion
zig:ZigClangRecordDecl_isStruct
zig:ZigClangRecordDecl_isUnion
zig:ZigClangRecordType_getDecl
zig:ZigClangReturnStmt_getRetValue
zig:ZigClangShuffleVectorExpr_getExpr
zig:ZigClangShuffleVectorExpr_getNumSubExprs
zig:ZigClangSourceLocation_eq
zig:ZigClangSourceManager_getCharacterData
zig:ZigClangSourceManager_getFilename
zig:ZigClangSourceManager_getSpellingColumnNumber
zig:ZigClangSourceManager_getSpellingLineNumber
zig:ZigClangSourceManager_getSpellingLoc
zig:ZigClangStmtExpr_getSubStmt
zig:ZigClangStmt_classof_Expr
zig:ZigClangStmt_getBeginLoc
zig:ZigClangStmt_getStmtClass
zig:ZigClangStringLiteral_getCharByteWidth
zig:ZigClangStringLiteral_getCodeUnit
zig:ZigClangStringLiteral_getKind
zig:ZigClangStringLiteral_getLength
zig:ZigClangStringLiteral_getString_bytes_begin_size
zig:ZigClangSwitchStmt_getBody
zig:ZigClangSwitchStmt_getCond
zig:ZigClangSwitchStmt_getConditionVariableDeclStmt
zig:ZigClangSwitchStmt_isAllEnumCasesCovered
zig:ZigClangTagDecl_isThisDeclarationADefinition
zig:ZigClangTypeOfExprType_getUnderlyingExpr
zig:ZigClangTypeOfType_getUnderlyingType
zig:ZigClangType_getAsArrayTypeUnsafe
zig:ZigClangType_getAsRecordType
zig:ZigClangType_getAsUnionType
zig:ZigClangType_getPointeeType
zig:ZigClangType_getTypeClass
zig:ZigClangType_getTypeClassName
zig:ZigClangType_isArrayType
zig:ZigClangType_isBooleanType
zig:ZigClangType_isConstantArrayType
zig:ZigClangType_isIncompleteOrZeroLengthArrayType
zig:ZigClangType_isRecordType
zig:ZigClangType_isVectorType
zig:ZigClangType_isVoidType
zig:ZigClangTypedefNameDecl_getCanonicalDecl
zig:ZigClangTypedefNameDecl_getLocation
zig:ZigClangTypedefNameDecl_getUnderlyingType
zig:ZigClangTypedefType_getDecl
zig:ZigClangUnaryExprOrTypeTraitExpr_getBeginLoc
zig:ZigClangUnaryExprOrTypeTraitExpr_getKind
zig:ZigClangUnaryExprOrTypeTraitExpr_getTypeOfArgument
zig:ZigClangUnaryOperator_getBeginLoc
zig:ZigClangUnaryOperator_getOpcode
zig:ZigClangUnaryOperator_getSubExpr
zig:ZigClangUnaryOperator_getType
zig:ZigClangValueDecl_getType
zig:ZigClangVarDecl_evaluateValue
zig:ZigClangVarDecl_getAlignedAttribute
zig:ZigClangVarDecl_getCanonicalDecl
zig:ZigClangVarDecl_getCleanupAttribute
zig:ZigClangVarDecl_getInit
zig:ZigClangVarDecl_getLocation
zig:ZigClangVarDecl_getSectionAttribute
zig:ZigClangVarDecl_getStorageClass
zig:ZigClangVarDecl_getTLSKind
zig:ZigClangVarDecl_getType
zig:ZigClangVarDecl_getTypeSourceInfo_getType
zig:ZigClangVarDecl_hasExternalStorage
zig:ZigClangVarDecl_hasInit
zig:ZigClangVarDecl_isFileVarDecl
zig:ZigClangVarDecl_isStaticLocal
zig:ZigClangVectorType_getElementType
zig:ZigClangVectorType_getNumElements
zig:ZigClangWhileStmt_getBody
zig:ZigClangWhileStmt_getCond
zig:ZigClang_main
zig:ZigLLDLinkCOFF
zig:ZigLLDLinkELF
zig:ZigLLDLinkWasm
zig:ZigLLVMAddByValAttr
zig:ZigLLVMAddFunctionAttr
zig:ZigLLVMAddFunctionAttrCold
zig:ZigLLVMAddFunctionInAddressSpace
zig:ZigLLVMAddModuleCodeViewFlag
zig:ZigLLVMAddModuleDebugInfoFlag
zig:ZigLLVMAddSretAttr
zig:ZigLLVMBuildAShrExact
zig:ZigLLVMBuildCall
zig:ZigLLVMBuildLShrExact
zig:ZigLLVMBuildMaxNum
zig:ZigLLVMBuildMemCpy
zig:ZigLLVMBuildMemSet
zig:ZigLLVMBuildMinNum
zig:ZigLLVMBuildNSWShl
zig:ZigLLVMBuildNUWShl
zig:ZigLLVMBuildSAddSat
zig:ZigLLVMBuildSMax
zig:ZigLLVMBuildSMin
zig:ZigLLVMBuildSMulFixSat
zig:ZigLLVMBuildSShlSat
zig:ZigLLVMBuildSSubSat
zig:ZigLLVMBuildUAddSat
zig:ZigLLVMBuildUMax
zig:ZigLLVMBuildUMin
zig:ZigLLVMBuildUMulFixSat
zig:ZigLLVMBuildUShlSat
zig:ZigLLVMBuildUSubSat
zig:ZigLLVMClearCurrentDebugLocation
zig:ZigLLVMCompileUnitToScope
zig:ZigLLVMCreateAutoVariable
zig:ZigLLVMCreateCompileUnit
zig:ZigLLVMCreateDIBuilder
zig:ZigLLVMCreateDebugArrayType
zig:ZigLLVMCreateDebugBasicType
zig:ZigLLVMCreateDebugEnumerationType
zig:ZigLLVMCreateDebugEnumerator
zig:ZigLLVMCreateDebugForwardDeclType
zig:ZigLLVMCreateDebugMemberType
zig:ZigLLVMCreateDebugPointerType
zig:ZigLLVMCreateDebugStructType
zig:ZigLLVMCreateDebugUnionType
zig:ZigLLVMCreateFile
zig:ZigLLVMCreateFunction
zig:ZigLLVMCreateGlobalVariable
zig:ZigLLVMCreateLexicalBlock
zig:ZigLLVMCreateParameterVariable
zig:ZigLLVMCreateReplaceableCompositeType
zig:ZigLLVMCreateSubroutineType
zig:ZigLLVMCreateTargetMachine
zig:ZigLLVMDIBuilderCreateVectorType
zig:ZigLLVMDIBuilderFinalize
zig:ZigLLVMDataLayoutGetProgramAddressSpace
zig:ZigLLVMDataLayoutGetStackAlignment
zig:ZigLLVMDisposeDIBuilder
zig:ZigLLVMEncoding_DW_ATE_boolean
zig:ZigLLVMEncoding_DW_ATE_float
zig:ZigLLVMEncoding_DW_ATE_signed
zig:ZigLLVMEncoding_DW_ATE_signed_char
zig:ZigLLVMEncoding_DW_ATE_unsigned
zig:ZigLLVMEncoding_DW_ATE_unsigned_char
zig:ZigLLVMFileToScope
zig:ZigLLVMFnSetSubprogram
zig:ZigLLVMFunctionSetCallingConv
zig:ZigLLVMFunctionSetPrefixData
zig:ZigLLVMGetArchTypeName
zig:ZigLLVMGetDebugLoc
zig:ZigLLVMGetEnvironmentTypeName
zig:ZigLLVMGetHostCPUName
zig:ZigLLVMGetNativeFeatures
zig:ZigLLVMGetNativeTarget
zig:ZigLLVMGetOSTypeName
zig:ZigLLVMGetVendorTypeName
zig:ZigLLVMInitializeLoopStrengthReducePass
zig:ZigLLVMInitializeLowerIntrinsicsPass
zig:ZigLLVMInsertDeclare
zig:ZigLLVMInsertDeclareAtEnd
zig:ZigLLVMLang_DW_LANG_C99
zig:ZigLLVMLexicalBlockToScope
zig:ZigLLVMParseCommandLineOptions
zig:ZigLLVMReplaceDebugArrays
zig:ZigLLVMReplaceTemporary
zig:ZigLLVMSetCallSret
zig:ZigLLVMSetCurrentDebugLocation
zig:ZigLLVMSetFastMath
zig:ZigLLVMSetModuleCodeModel
zig:ZigLLVMSetModulePICLevel
zig:ZigLLVMSetModulePIELevel
zig:ZigLLVMSetTailCall
zig:ZigLLVMSubprogramToScope
zig:ZigLLVMTag_DW_enumeration_type
zig:ZigLLVMTag_DW_structure_type
zig:ZigLLVMTag_DW_union_type
zig:ZigLLVMTag_DW_variable
zig:ZigLLVMTargetMachineEmitToFile
zig:ZigLLVMTokenTypeInContext
zig:ZigLLVMTypeToScope
zig:ZigLLVMWriteArchive
zig:ZigLLVMWriteImportLibrary
zig:ZigLlvmAr_main
zig:_IO_stdin_used
zig:_Z10bigint_addP6BigIntPKS_S2_
zig:_Z10bigint_andP6BigIntPKS_S2_
zig:_Z10bigint_clzPK6BigIntm
zig:_Z10bigint_cmpPK6BigIntS1_
zig:_Z10bigint_ctzPK6BigIntm
zig:_Z10bigint_eqlPK6BigIntS1_
zig:_Z10bigint_maxP6BigIntPKS_S2_
zig:_Z10bigint_minP6BigIntPKS_S2_
zig:_Z10bigint_modP6BigIntPKS_S2_
zig:_Z10bigint_mulP6BigIntPKS_S2_
zig:_Z10bigint_notP6BigIntPKS_mb
zig:_Z10bigint_remP6BigIntPKS_S2_
zig:_Z10bigint_shlP6BigIntPKS_S2_
zig:_Z10bigint_shrP6BigIntPKS_S2_
zig:_Z10bigint_subP6BigIntPKS_S2_
zig:_Z10bigint_xorP6BigIntPKS_S2_
zig:_Z10cc1as_mainN4llvm8ArrayRefIPKcEES2_Pv
zig:_Z10file_fetchP7CodeGenP3BufS2_
zig:_Z10fn_ptr_eqlPK5ZigFnS1_
zig:_Z10init_scopeP7CodeGenP5Scope7ScopeIdP7AstNodeS2_
zig:_Z10ir_analyzeP7CodeGenP9Stage1ZirP9Stage1AirPmS5_P7ZigTypeP7AstNodeP8ZigValueP5ZigFn
zig:_Z10os_get_cwdP3Buf
zig:_Z10scan_declsP7CodeGenP10ScopeDeclsP7AstNode
zig:_Z10token_name7TokenId
zig:_Z11bigint_decrP6BigInt
zig:_Z11bigint_hashPK6BigInt
zig:_Z11bigint_incrP6BigInt
zig:_Z11buf_appendfP3BufPKcz
zig:_Z11buf_eql_bufP3BufS0_
zig:_Z11buf_sprintfPKcz
zig:_Z11buf_vprintfPKcP13__va_list_tag
zig:_Z11err_ptr_eqlPK15ErrorTableEntryS1_
zig:_Z11f128M_truncPK10float128_tPS_
zig:_Z11fn_eval_eqlP5ScopeS0_
zig:_Z11fn_is_asyncP5ZigFn
zig:_Z11fn_ptr_hashPK5ZigFn
zig:_Z11get_fn_typeP7CodeGenP8FnTypeId
zig:_Z11os_make_dirP3Buf
zig:_Z11pkg_ptr_eqlPK10ZigPackageS1_
zig:_Z11tld_ptr_eqlPK3TldS1_
zig:_Z11type_h_nameP7ZigType
zig:_Z11type_id_eqlPK6TypeIdS1_
zig:_Z11type_id_lenv
zig:_Z12add_variableP7CodeGenP7AstNodeP5ScopeP3BufbP8ZigValueP3TldP7ZigType
zig:_Z12bigfloat_addP8BigFloatPKS_S2_
zig:_Z12bigfloat_cmpPK8BigFloatS1_
zig:_Z12bigfloat_divP8BigFloatPKS_S2_
zig:_Z12bigfloat_maxP8BigFloatPKS_S2_
zig:_Z12bigfloat_minP8BigFloatPKS_S2_
zig:_Z12bigfloat_modP8BigFloatPKS_S2_
zig:_Z12bigfloat_mulP8BigFloatPKS_S2_
zig:_Z12bigfloat_remP8BigFloatPKS_S2_
zig:_Z12bigfloat_subP8BigFloatPKS_S2_
zig:_Z12bigint_as_u8PK6BigInt
zig:_Z12err_ptr_hashPK15ErrorTableEntry
zig:_Z12fn_eval_hashP5Scope
zig:_Z12get_int_typeP7CodeGenbj
zig:_Z12ir_print_genP7CodeGenP8_IO_FILEP9Stage1Airi
zig:_Z12ir_print_srcP7CodeGenP8_IO_FILEP9Stage1Ziri
zig:_Z12is_array_refP7ZigType
zig:_Z12is_containerP7ZigType
zig:_Z12node_ptr_eqlPK7AstNodeS1_
zig:_Z12os_copy_fileP3BufS0_
zig:_Z12os_make_pathP3Buf
zig:_Z12os_path_joinP3BufS0_S0_
zig:_Z12pkg_ptr_hashPK10ZigPackage
zig:_Z12tld_ptr_hashPK3Tld
zig:_Z12type_id_hashPK6TypeId
zig:_Z12type_id_name9ZigTypeId
zig:_Z12type_ptr_eqlPK7ZigTypeS1_
zig:_Z12type_resolveP7CodeGenP7ZigType13ResolveStatus
zig:_Z13add_fn_exportP7CodeGenP5ZigFnPKc15GlobalLinkageId17CallingConvention
zig:_Z13bigfloat_sqrtP8BigFloatPKS_
zig:_Z13bigint_as_u32PK6BigInt
zig:_Z13bigint_as_u64PK6BigInt
zig:_Z13bigint_deinitP6BigInt
zig:_Z13bigint_negateP6BigIntPKS_
zig:_Z13find_variableP7CodeGenP5ScopeP3BufPP10ScopeFnDef
zig:_Z13get_llvm_typeP7CodeGenP7ZigType
zig:_Z13get_ptr_alignP7CodeGenP7ZigType
zig:_Z13get_ptr_constP7CodeGenP7ZigType
zig:_Z13handle_is_ptrP7CodeGenP7ZigType
zig:_Z13init_const_fnP8ZigValueP5ZigFn
zig:_Z13make_int_typeP7CodeGenbj
zig:_Z13no_result_locv
zig:_Z13node_ptr_hashPK7AstNode
zig:_Z13os_fetch_fileP8_IO_FILEP3Buf
zig:_Z13os_path_splitP3BufS0_S0_
zig:_Z13os_write_fileP3BufS0_
zig:_Z13print_err_msgP8ErrorMsg8ErrColor
zig:_Z13rangeset_sortP8RangeSet
zig:_Z13scope_packageP5Scope
zig:_Z13stage1_astgenP7CodeGenP7AstNodeP5ScopeP9Stage1ZirP5ZigFnb
zig:_Z13target_is_armPK9ZigTarget
zig:_Z13target_is_bpfPK9ZigTarget
zig:_Z13target_is_ppcPK9ZigTarget
zig:_Z13type_can_failP7ZigType
zig:_Z13type_has_bitsP7CodeGenP7ZigType
zig:_Z13type_id_indexP7ZigType
zig:_Z13type_ptr_hashPK7ZigType
zig:_Z14add_error_noteP7CodeGenP8ErrorMsgPK7AstNodeP3Buf
zig:_Z14add_node_errorP7CodeGenP7AstNodeP3Buf
zig:_Z14add_var_exportP7CodeGenP6ZigVarPKc15GlobalLinkageId
zig:_Z14analyze_importP7CodeGenP7ZigTypeP3BufPS2_PS4_S4_
zig:_Z14bigint_add_satP6BigIntPKS_S2_jb
zig:_Z14bigint_mul_satP6BigIntPKS_S2_jb
zig:_Z14bigint_shl_satP6BigIntPKS_S2_jb
zig:_Z14bigint_sub_satP6BigIntPKS_S2_jb
zig:_Z14codegen_createP3BufS0_PK9ZigTarget9BuildModeS0_b
zig:_Z14copy_const_valP7CodeGenP8ZigValueS2_
zig:_Z14fn_type_id_eqlP8FnTypeIdS0_
zig:_Z14get_array_typeP7CodeGenP7ZigTypemP8ZigValue
zig:_Z14get_c_int_typeP7CodeGen8CIntType
zig:_Z14get_slice_typeP7CodeGenP7ZigType
zig:_Z14is_opt_err_setP7ZigType
zig:_Z14rangeset_spansP8RangeSetP6BigIntS2_
zig:_Z14scope_fn_entryP5Scope
zig:_Z14target_is_mipsPK9ZigTarget
zig:_Z14target_is_wasmPK9ZigTarget
zig:_Z14target_os_enumm
zig:_Z14target_os_name2Os
zig:_Z14type_bare_nameP7ZigType
zig:_Z14type_decl_nodeP7ZigType
zig:_Z14type_has_bits2P7CodeGenP7ZigTypePb
zig:_Z14type_size_bitsP7CodeGenP7ZigType
zig:_Z15add_source_fileP7CodeGenP10ZigPackageP3BufS4_10SourceKind
zig:_Z15add_token_errorP7CodeGenP7ZigTypejP3Buf
zig:_Z15bigfloat_is_nanPK8BigFloat
zig:_Z15bigfloat_negateP8BigFloatPKS_
zig:_Z15bigfloat_to_f16PK8BigFloat
zig:_Z15bigfloat_to_f32PK8BigFloat
zig:_Z15bigfloat_to_f64PK8BigFloat
zig:_Z15bigint_add_wrapP6BigIntPKS_S2_mb
zig:_Z15bigint_as_usizePK6BigInt
zig:_Z15bigint_cmp_zeroPK6BigInt
zig:_Z15bigint_mul_wrapP6BigIntPKS_S2_mb
zig:_Z15bigint_sub_wrapP6BigIntPKS_S2_mb
zig:_Z15bigint_truncateP6BigIntPKS_mb
zig:_Z15codegen_destroyP7CodeGen
zig:_Z15create_const_fnP7CodeGenP5ZigFn
zig:_Z15fn_type_id_hashP8FnTypeId
zig:_Z15get_opaque_typeP7CodeGenP5ScopeP7AstNodePKcP3Buf
zig:_Z15get_vector_typeP7CodeGenjP7ZigType
zig:_Z15init_const_boolP7CodeGenP8ZigValueb
zig:_Z15init_const_enumP8ZigValueP7ZigTypePK6BigInt
zig:_Z15init_const_nullP8ZigValueP7ZigType
zig:_Z15init_const_typeP7CodeGenP8ZigValueP7ZigType
zig:_Z15init_fn_type_idP8FnTypeIdP7AstNode17CallingConventionm
zig:_Z15invalidate_execP9Stage1ZirP8ErrorMsg
zig:_Z15ir_resolve_lazyP7CodeGenP7AstNodeP8ZigValue
zig:_Z15os_path_dirnameP3BufS0_
zig:_Z15os_path_extnameP3BufS0_S0_
zig:_Z15os_path_resolvePP3Bufm
zig:_Z15src_assert_implbP7AstNodePKcj
zig:_Z15target_abi_enumm
zig:_Z15target_abi_name23ZigLLVM_EnvironmentType
zig:_Z15target_fn_alignPK9ZigTarget
zig:_Z15target_is_riscvPK9ZigTarget
zig:_Z15target_is_sparcPK9ZigTarget
zig:_Z15target_os_countv
zig:_Z15target_parse_osP2OsPKcm
zig:_Z15type_is_invalidP7ZigType
zig:_Z15type_is_numericP7ZigType
zig:_Z16bigfloat_init_16P8BigFloat9float16_t
zig:_Z16bigfloat_init_32P8BigFloatf
zig:_Z16bigfloat_init_64P8BigFloatd
zig:_Z16bigfloat_to_f128PK8BigFloat
zig:_Z16bigint_as_signedPK6BigInt
zig:_Z16bigint_div_floorP6BigIntPKS_S2_
zig:_Z16bigint_div_truncP6BigIntPKS_S2_
zig:_Z16bigint_init_dataP6BigIntPKmmb
zig:_Z16bigint_shl_truncP6BigIntPKS_S2_mb
zig:_Z16cc_from_fn_protoP14AstNodeFnProto
zig:_Z16container_string13ContainerKind
zig:_Z16create_local_varP7CodeGenP7AstNodeP5ScopeP3BufbbbP13Stage1ZirInstb
zig:_Z16create_var_scopeP7CodeGenP7AstNodeP5ScopeP6ZigVar
zig:_Z16detect_subsystemP7CodeGen
zig:_Z16err_msg_add_noteP8ErrorMsgS0_
zig:_Z16float_op_to_name11BuiltinFnId
zig:_Z16fn_type_can_failP8FnTypeId
zig:_Z16get_builtin_typeP7CodeGenPKc
zig:_Z16get_llvm_di_typeP7CodeGenP7ZigType
zig:_Z16get_llvm_os_type2Os
zig:_Z16get_scope_importP5Scope
zig:_Z16get_scope_typeofP5Scope
zig:_Z16get_src_ptr_typeP7ZigType
zig:_Z16get_test_fn_typeP7CodeGen
zig:_Z16init_all_targetsv
zig:_Z16init_const_floatP8ZigValueP7ZigTyped
zig:_Z16init_const_sliceP7CodeGenP8ZigValueS2_mmbS2_
zig:_Z16init_const_usizeP7CodeGenP8ZigValuem
zig:_Z16ir_create_allocaP7CodeGenP5ScopeP7AstNodeP5ZigFnP7ZigTypePKc
zig:_Z16ir_should_inlineP9Stage1ZirP5Scope
zig:_Z16is_container_refP7ZigType
zig:_Z16mul_u64_overflowmmPm
zig:_Z16semantic_analyzeP7CodeGen
zig:_Z16stage1_astgen_fnP7CodeGenP5ZigFn
zig:_Z16target_abi_countv
zig:_Z16target_arch_enumm
zig:_Z16target_arch_name16ZigLLVM_ArchType
zig:_Z16target_parse_abiP23ZigLLVM_EnvironmentTypePKcm
zig:_Z16type_id_at_indexm
zig:_Z16type_is_completeP7ZigType
zig:_Z16type_is_resolvedP7ZigType13ResolveStatus
zig:_Z17GetExecutablePathB5cxx11PKcb
zig:_Z17analyze_type_exprP7CodeGenP5ScopeP7AstNode
zig:_Z17bigfloat_cmp_zeroPK8BigFloat
zig:_Z17bigfloat_init_128P8BigFloat10float128_t
zig:_Z17bigfloat_init_bufP8BigFloatPKh
zig:_Z17bigint_append_bufP3BufPK6BigIntm
zig:_Z17codegen_set_stripP7CodeGenb
zig:_Z17const_ptr_pointeeP9IrAnalyzeP7CodeGenP8ZigValueP7AstNode
zig:_Z17create_const_boolP7CodeGenb
zig:_Z17create_const_enumP7CodeGenP7ZigTypePK6BigInt
zig:_Z17create_const_nullP7CodeGenP7ZigType
zig:_Z17create_const_typeP7CodeGenP7ZigType
zig:_Z17create_expr_scopeP7CodeGenP7AstNodeP5Scope
zig:_Z17create_loop_scopeP7CodeGenP7AstNodeP5Scope
zig:_Z17fn_eval_cacheableP5ScopeP7ZigType
zig:_Z17get_abi_alignmentP7CodeGenP7ZigType
zig:_Z17get_bound_fn_typeP7CodeGenP5ZigFn
zig:_Z17get_builtin_valueP7CodeGenPKc
zig:_Z17get_fn_frame_typeP7CodeGenP5ZigFn
zig:_Z17get_optional_typeP7CodeGenP7ZigType
zig:_Z17init_const_bigintP8ZigValueP7ZigTypePK6BigInt
zig:_Z17init_const_signedP8ZigValueP7ZigTypel
zig:_Z17ir_print_inst_genP7CodeGenP8_IO_FILEP13Stage1AirInsti
zig:_Z17ir_print_inst_srcP7CodeGenP8_IO_FILEP13Stage1ZirInsti
zig:_Z17is_anon_containerP7ZigType
zig:_Z17target_arch_countv
zig:_Z17target_is_androidPK9ZigTarget
zig:_Z17target_o_file_extPK9ZigTarget
zig:_Z17target_parse_archP16ZigLLVM_ArchTypePKcm
zig:_Z17target_triple_zigP3BufPK9ZigTarget
zig:_Z17type_is_c_abi_intP7CodeGenP7ZigTypePb
zig:_Z17validate_var_typeP7CodeGenP26AstNodeVariableDeclarationP7ZigType
zig:_Z18SplitIterator_nextP13SplitIterator
zig:_Z18SplitIterator_restP13SplitIterator
zig:_Z18address_space_name12AddressSpace
zig:_Z18bigfloat_div_floorP8BigFloatPKS_S2_
zig:_Z18bigfloat_div_truncP8BigFloatPKS_S2_
zig:_Z18bigint_bits_neededPK6BigInt
zig:_Z18bigint_init_bigintP6BigIntPKS_
zig:_Z18bigint_init_signedP6BigIntl
zig:_Z18bigint_negate_wrapP6BigIntPKS_mb
zig:_Z18const_values_equalP7CodeGenP8ZigValueS2_
zig:_Z18container_ref_typeP7ZigType
zig:_Z18create_block_scopeP7CodeGenP7AstNodeP5Scope
zig:_Z18create_const_floatP7CodeGenP7ZigTyped
zig:_Z18create_const_sliceP7CodeGenP8ZigValuemmbS2_
zig:_Z18create_const_usizeP7CodeGenm
zig:_Z18create_decls_scopeP7CodeGenP7AstNodeP5ScopeP7ZigTypeS6_P3Buf
zig:_Z18create_defer_scopeP7CodeGenP7AstNodeP5Scope
zig:_Z18create_fndef_scopeP7CodeGenP7AstNodeP5ScopeP5ZigFn
zig:_Z18eval_min_max_valueP7CodeGenP7ZigTypeP8ZigValueb
zig:_Z18expand_undef_arrayP7CodeGenP8ZigValue
zig:_Z18float_read_ieee597P8ZigValuePhb
zig:_Z18fn_table_entry_eqlP5ZigFnS0_
zig:_Z18get_align_amt_typeP7CodeGen
zig:_Z18get_anon_type_nameP7CodeGenP9Stage1ZirPKcP5ScopeP7AstNodeP3BufP9ResultLoc
zig:_Z18get_any_frame_typeP7CodeGenP7ZigType
zig:_Z18get_c_int_type_ptrP7CodeGen8CIntType
zig:_Z18get_host_int_bytesP7CodeGenP7ZigTypeP15TypeStructField
zig:_Z18get_optional_type2P7CodeGenP7ZigType
zig:_Z18get_primitive_typeP7CodeGenP3BufPP7ZigType
zig:_Z18init_const_ptr_refP7CodeGenP8ZigValueS2_b
zig:_Z18init_const_runtimeP8ZigValueP7ZigType
zig:_Z18init_const_str_litP7CodeGenP8ZigValueP3Bufb
zig:_Z18os_fetch_file_pathP3BufS0_
zig:_Z18rangeset_add_rangeP8RangeSetP6BigIntS2_P7AstNode
zig:_Z18render_const_valueP7CodeGenP3BufP8ZigValue
zig:_Z18target_default_abi16ZigLLVM_ArchType2Os
zig:_Z18target_triple_llvmP3BufPK9ZigTarget
zig:_Z18target_vendor_enumm
zig:_Z18update_compile_varP7CodeGenP3BufP8ZigValue
zig:_Z19analyze_const_valueP7CodeGenP5ScopeP7AstNodeP7ZigTypeP3Buf12UndefAllowed
zig:_Z19bigfloat_append_bufP3BufPK8BigFloat
zig:_Z19bigint_fits_in_bitsPK6BigIntmb
zig:_Z19create_const_bigintP7CodeGenP7ZigTypePK6BigInt
zig:_Z19create_const_signedP7CodeGenP7ZigTypel
zig:_Z19create_typeof_scopeP7CodeGenP7AstNodeP5Scope
zig:_Z19expand_undef_structP7CodeGenP8ZigValue
zig:_Z19find_container_declP7CodeGenP10ScopeDeclsP3Buf
zig:_Z19float_write_ieee597P8ZigValuePhb
zig:_Z19fn_table_entry_hashP5ZigFn
zig:_Z19get_container_scopeP7ZigType
zig:_Z19get_generic_fn_typeP7CodeGenP8FnTypeId
zig:_Z19get_llvm_c_abi_typeP7CodeGenP7ZigType
zig:_Z19get_param_decl_nodeP5ZigFnm
zig:_Z19get_pointer_to_typeP7CodeGenP7ZigTypeb
zig:_Z19ir_eval_const_valueP7CodeGenP5ScopeP7AstNodeP8ZigValuePmS7_P5ZigFnP3BufS4_SB_P9Stage1AirS4_12UndefAllowed
zig:_Z19is_valid_param_typeP7ZigType
zig:_Z19node_identifier_bufP7AstNode
zig:_Z19os_stderr_set_color9TermColor
zig:_Z19source_char_literalPKcPjPm
zig:_Z19target_asm_file_extPK9ZigTarget
zig:_Z19target_fn_ptr_alignPK9ZigTarget
zig:_Z19target_oformat_enumm
zig:_Z19target_oformat_name24ZigLLVM_ObjectFormatType
zig:_Z19target_os_is_darwin2Os
zig:_Z19target_vendor_countv
zig:_Z19type_is_nonnull_ptrP7CodeGenP7ZigType
zig:_Z19want_first_arg_sretP7CodeGenP8FnTypeId
zig:_Z19zig_llvm_fn_key_eqlPK12ZigLLVMFnKeyS1_
zig:_Z20ZigLLVMBuildOrReduceP17LLVMOpaqueBuilderP15LLVMOpaqueValue
zig:_Z20bigfloat_init_bigintP8BigFloatPK6BigInt
zig:_Z20bigint_init_bigfloatP6BigIntPK8BigFloat
zig:_Z20bigint_init_unsignedP6BigIntm
zig:_Z20codegen_build_objectP7CodeGen
zig:_Z20create_cimport_scopeP7CodeGenP7AstNodeP5Scope
zig:_Z20create_const_ptr_refP7CodeGenP8ZigValueb
zig:_Z20create_const_runtimeP7CodeGenP7ZigType
zig:_Z20create_const_str_litP7CodeGenP3Buf
zig:_Z20create_runtime_scopeP7CodeGenP7AstNodeP5ScopeP13Stage1ZirInst
zig:_Z20create_suspend_scopeP7CodeGenP7AstNodeP5Scope
zig:_Z20find_enum_type_fieldP7ZigTypeP3Buf
zig:_Z20get_codegen_ptr_typeP7CodeGenP7ZigTypePS2_
zig:_Z20get_error_union_typeP7CodeGenP7ZigTypeS2_
zig:_Z20get_stack_trace_typeP7CodeGen
zig:_Z20init_const_ptr_arrayP7CodeGenP8ZigValueS2_mb6PtrLen
zig:_Z20ir_analyze_type_exprP9IrAnalyzeP5ScopeP7AstNode
zig:_Z20ir_inst_gen_type_str15Stage1AirInstId
zig:_Z20ir_inst_src_type_str15Stage1ZirInstId
zig:_Z20is_valid_return_typeP7ZigType
zig:_Z20new_type_table_entry9ZigTypeId
zig:_Z20node_identifier_buf2P7AstNodePb
zig:_Z20ptr_allows_addr_zeroP7ZigType
zig:_Z20target_object_formatPK9ZigTarget
zig:_Z20target_oformat_countv
zig:_Z20token_identifier_bufP10RootStructj
zig:_Z20type_is_nonnull_ptr2P7CodeGenP7ZigTypePb
zig:_Z20walk_function_paramsP7CodeGenP7ZigTypeP6FnWalk
zig:_Z20zig_llvm_fn_key_hashPK12ZigLLVMFnKey
zig:_Z21ZigLLVMBuildAddReduceP17LLVMOpaqueBuilderP15LLVMOpaqueValue
zig:_Z21ZigLLVMBuildAndReduceP17LLVMOpaqueBuilderP15LLVMOpaqueValue
zig:_Z21ZigLLVMBuildMulReduceP17LLVMOpaqueBuilderP15LLVMOpaqueValue
zig:_Z21ZigLLVMBuildXorReduceP17LLVMOpaqueBuilderP15LLVMOpaqueValue
zig:_Z21add_async_error_notesP7CodeGenP8ErrorMsgP5ZigFn
zig:_Z21alloc_const_vals_ptrsP7CodeGenm
zig:_Z21bigfloat_has_fractionPK8BigFloat
zig:_Z21create_comptime_scopeP7CodeGenP7AstNodeP5Scope
zig:_Z21ensure_const_val_reprP9IrAnalyzeP7CodeGenP7AstNodeP8ZigValueP7ZigType
zig:_Z21find_union_type_fieldP7ZigTypeP3Buf
zig:_Z21get_auto_err_set_typeP7CodeGenP5ZigFn
zig:_Z21new_anonymous_packagev
zig:_Z21resolve_llvm_types_fnP7CodeGenP5ZigFn
zig:_Z21target_has_debug_infoPK9ZigTarget
zig:_Z22add_token_error_offsetP7CodeGenP7ZigTypejP3Bufj
zig:_Z22bigfloat_init_bigfloatP8BigFloatPKS_
zig:_Z22bigint_popcount_signedPK6BigIntm
zig:_Z22codegen_add_time_eventP7CodeGenPKc
zig:_Z22codegen_create_packageP7CodeGenPKcS2_S2_
zig:_Z22const_values_equal_ptrP8ZigValueS0_
zig:_Z22create_const_ptr_arrayP7CodeGenP8ZigValuemb6PtrLen
zig:_Z22create_nosuspend_scopeP7CodeGenP7AstNodeP5Scope
zig:_Z22eval_min_max_value_intP7CodeGenP7ZigTypeP6BigIntb
zig:_Z22find_enum_field_by_tagP7ZigTypePK6BigInt
zig:_Z22find_struct_type_fieldP7ZigTypeP3Buf
zig:_Z22generic_fn_type_id_eqlP15GenericFnTypeIdS0_
zig:_Z22ir_get_var_is_comptimeP6ZigVar
zig:_Z22optional_value_is_nullP8ZigValue
zig:_Z22os_timestamp_monotonicv
zig:_Z22resolve_top_level_declP7CodeGenP3TldP7AstNodeb
zig:_Z22type_allowed_in_externP7CodeGenP7ZigType14ExternPositionPb
zig:_Z22type_has_optional_reprP7ZigType
zig:_Z22type_is_c_abi_int_bailP7CodeGenP7ZigType
zig:_Z22type_requires_comptimeP7CodeGenP7ZigType
zig:_Z22zig_pretty_print_bytesP8_IO_FILEd
zig:_Z22zig_print_stack_reportP7CodeGenP8_IO_FILE
zig:_Z23ZigClang_detect_enum_BON5clang18BinaryOperatorKindE
zig:_Z23ZigClang_detect_enum_CKN5clang8CastKindE
zig:_Z23ZigClang_detect_enum_UON5clang17UnaryOperatorKindE
zig:_Z23ZigLLVMBuildFPAddReduceP17LLVMOpaqueBuilderP15LLVMOpaqueValueS2_
zig:_Z23ZigLLVMBuildFPMaxReduceP17LLVMOpaqueBuilderP15LLVMOpaqueValue
zig:_Z23ZigLLVMBuildFPMinReduceP17LLVMOpaqueBuilderP15LLVMOpaqueValue
zig:_Z23ZigLLVMBuildFPMulReduceP17LLVMOpaqueBuilderP15LLVMOpaqueValueS2_
zig:_Z23ast_visit_node_childrenP7AstNodePFvPS0_PvES2_
zig:_Z23calling_convention_name17CallingConvention
zig:_Z23create_defer_expr_scopeP7CodeGenP7AstNodeP5Scope
zig:_Z23destroy_instruction_genP13Stage1AirInst
zig:_Z23destroy_instruction_srcP13Stage1ZirInst
zig:_Z23find_union_field_by_tagP7ZigTypePK6BigInt
zig:_Z23generic_fn_type_id_hashP15GenericFnTypeId
zig:_Z23realloc_const_vals_ptrsP7CodeGenPP8ZigValuemm
zig:_Z23target_allows_addr_zeroPK9ZigTarget
zig:_Z23target_llvm_ir_file_extPK9ZigTarget
zig:_Z23type_c_abi_x86_64_classP7CodeGenP7ZigType
zig:_Z23zig_print_analysis_dumpP7CodeGenP8_IO_FILEPKcS4_
zig:_Z24ZigLLVMBuildIntMaxReduceP17LLVMOpaqueBuilderP15LLVMOpaqueValueb
zig:_Z24ZigLLVMBuildIntMinReduceP17LLVMOpaqueBuilderP15LLVMOpaqueValueb
zig:_Z24alloc_type_struct_fieldsm
zig:_Z24ast_field_to_symbol_nodeP7AstNode
zig:_Z24bigint_clamp_by_bitcountP6BigIntjb
zig:_Z24bigint_popcount_unsignedPK6BigInt
zig:_Z24ir_print_basic_block_genP7CodeGenP8_IO_FILEP19Stage1AirBasicBlocki
zig:_Z24ir_print_basic_block_srcP7CodeGenP8_IO_FILEP19Stage1ZirBasicBlocki
zig:_Z24os_stderr_supports_colorv
zig:_Z24resolve_union_field_typeP7CodeGenP14TypeUnionField
zig:_Z24type_is_global_error_setP7ZigType
zig:_Z25SplitIterator_isSplitByteP13SplitIteratorh
zig:_Z25create_sentineled_str_litP7CodeGenP3BufP8ZigValue
zig:_Z25get_codegen_ptr_type_bailP7CodeGenP7ZigType
zig:_Z25get_pointer_to_type_extraP7CodeGenP7ZigTypebb6PtrLenjjjb
zig:_Z25is_valid_vector_elem_typeP7CodeGenP7ZigTypePb
zig:_Z25resolve_struct_field_typeP7CodeGenP15TypeStructField
zig:_Z25source_string_literal_bufPKcP3BufPm
zig:_Z25type_val_resolve_abi_sizeP7CodeGenP7AstNodeP8ZigValuePmS5_
zig:_Z26err_msg_create_with_offsetP3BufjPKcS0_
zig:_Z26get_partial_container_typeP7CodeGenP5Scope13ContainerKindP7AstNodePKcP3Buf15ContainerLayout
zig:_Z26get_pointer_to_type_extra2P7CodeGenP7ZigTypebb6PtrLenjjjbjP19InferredStructFieldP8ZigValue
zig:_Z26get_the_one_possible_valueP7CodeGenP7ZigType
zig:_Z26realloc_type_struct_fieldsPP15TypeStructFieldmm
zig:_Z26resolve_inferred_error_setP7CodeGenP7ZigTypeP7AstNode
zig:_Z26target_c_type_size_in_bitsPK9ZigTarget8CIntType
zig:_Z26target_long_double_is_f128PK9ZigTarget
zig:_Z26type_val_resolve_abi_alignP7CodeGenP7AstNodeP8ZigValuePj
zig:_Z26type_val_resolve_zero_bitsP7CodeGenP8ZigValueP7ZigTypeS2_Pb
zig:_Z27SplitIterator_next_separateP13SplitIterator
zig:_Z27bigint_read_twos_complementP6BigIntPKhmbb
zig:_Z27codegen_print_timing_reportP7CodeGenP8_IO_FILE
zig:_Z27get_async_frame_align_bytesP7CodeGen
zig:_Z27target_has_valgrind_supportPK9ZigTarget
zig:_Z27token_number_literal_bigintP10RootStructP6BigIntj
zig:_Z27type_has_one_possible_valueP7CodeGenP7ZigType
zig:_Z28bigint_write_twos_complementPK6BigIntPhmb
zig:_Z28codegen_switch_sub_prog_nodeP7CodeGenP18Stage2ProgressNode
zig:_Z28init_const_unsigned_negativeP8ZigValueP7ZigTypemb
zig:_Z28ir_add_call_stack_errors_genP7CodeGenP9Stage1AirP8ErrorMsgi
zig:_Z28ir_inst_gen_has_side_effectsP13Stage1AirInst
zig:_Z28ir_inst_src_has_side_effectsP13Stage1ZirInst
zig:_Z29ZigClang_detect_enum_DeclKindN5clang4Decl4KindE
zig:_Z29fn_returns_c_abi_small_structP8FnTypeId
zig:_Z29target_arch_pointer_bit_width16ZigLLVM_ArchType
zig:_Z30ZigClang_detect_enum_StmtClassN5clang4Stmt9StmtClassE
zig:_Z30ZigClang_detect_enum_TypeClassN5clang4Type9TypeClassE
zig:_Z30append_namespace_qualificationP7CodeGenP3BufP7ZigType
zig:_Z30codegen_report_errors_and_exitP7CodeGen
zig:_Z30create_const_unsigned_negativeP7CodeGenP7ZigTypemb
zig:_Z30get_smallest_unsigned_int_typeP7CodeGenm
zig:_Z30init_const_ptr_hard_coded_addrP7CodeGenP8ZigValueP7ZigTypemb
zig:_Z31ZigClangASTContext_getTypeAlignPK18ZigClangASTContext16ZigClangQualType
zig:_Z31ZigClang_detect_enum_EntityKindN5clang18PreprocessedEntity10EntityKindE
zig:_Z31ZigClang_detect_enum_StringKindN5clang13StringLiteral10StringKindE
zig:_Z31codegen_generate_builtin_sourceP7CodeGen
zig:_Z31target_arch_largest_atomic_bits16ZigLLVM_ArchType
zig:_Z31type_val_resolve_is_opaque_typeP7CodeGenP8ZigValuePb
zig:_Z32ZigClang_detect_enum_APValueKindN5clang7APValue9ValueKindE
zig:_Z32ZigClang_detect_enum_CallingConvN5clang11CallingConvE
zig:_Z32arch_stack_pointer_register_name16ZigLLVM_ArchType
zig:_Z32create_const_ptr_hard_coded_addrP7CodeGenP7ZigTypemb
zig:_Z33ZigClang_detect_enum_RoundingModeN4llvm12RoundingModeE
zig:_Z33ZigClang_detect_enum_StorageClassN5clang12StorageClassE
zig:_Z34ZigClang_detect_enum_CharacterKindN5clang16CharacterLiteral13CharacterKindE
zig:_Z34codegen_fn_has_err_ret_tracing_argP7CodeGenP7ZigType
zig:_Z35calling_convention_allows_zig_types17CallingConvention
zig:_Z36ZigClang_detect_enum_BuiltinTypeKindN5clang11BuiltinType4KindE
zig:_Z36codegen_fn_has_err_ret_tracing_stackP7CodeGenP5ZigFnb
zig:_Z37ZigClang_detect_enum_ConstantExprKindN5clang4Expr16ConstantExprKindE
zig:_Z38resolve_container_usingnamespace_declsP7CodeGenP10ScopeDecls
zig:_Z42ZigClang_detect_enum_ElaboratedTypeKeywordN5clang21ElaboratedTypeKeywordE
zig:_Z45emit_error_unless_callconv_allowed_for_targetP7CodeGenP7AstNode17CallingConvention
zig:_Z6is_refP7ZigType
zig:_Z7err_str5Error
zig:_Z7f16_neg9float16_t
zig:_Z7os_initv
zig:_Z8buf_hashP3Buf
zig:_Z8cc1_mainN4llvm8ArrayRefIPKcEES2_Pv
zig:_Z8init_tldP3Tld5TldIdP3Buf8VisibModP7AstNodeP5Scope
zig:_Z8memSplit5SliceIhES0_
zig:_Z8tokenizePKcP12Tokenization
zig:_Z9ast_parseP3BufP7ZigType8ErrColor
zig:_Z9bigint_orP6BigIntPKS_S2_
zig:_Z9create_fnP7CodeGenP7AstNode
zig:_Z9f128M_absPK10float128_tPS_
zig:_Z9f128M_negPK10float128_tPS_
zig:_Z9find_declP7CodeGenP5ScopeP3Buf
zig:_Z9os_is_seph
zig:_Z9os_renameP3BufS0_
zig:_Z9type_sizeP7CodeGenP7ZigType
zig:_Z9zig_panicPKcz
zig:_ZN13Stage1AirInst3srcEv
zig:_ZN13Stage1AirInst4dumpEv
zig:_ZN13Stage1ZirInst3srcEv
zig:_ZN13Stage1ZirInst4dumpEv
zig:_ZN3lld10DWARFCache13getDILineInfoEmm
zig:_ZN3lld10DWARFCache14getVariableLocB5cxx11EN4llvm9StringRefE
zig:_ZN3lld10DWARFCacheC1ESt10unique_ptrIN4llvm12DWARFContextESt14default_deleteIS3_EE
zig:_ZN3lld10DWARFCacheC2ESt10unique_ptrIN4llvm12DWARFContextESt14default_deleteIS3_EE
zig:_ZN3lld10checkErrorEN4llvm5ErrorE
zig:_ZN3lld10saveBufferEN4llvm9StringRefERKNS0_5TwineE
zig:_ZN3lld11ScopedTimer4stopEv
zig:_ZN3lld11ScopedTimerC1ERNS_5TimerE
zig:_ZN3lld11ScopedTimerC2ERNS_5TimerE
zig:_ZN3lld11ScopedTimerD1Ev
zig:_ZN3lld11ScopedTimerD2Ev
zig:_ZN3lld11toELFStringB5cxx11ERKN4llvm6object7Archive6SymbolE
zig:_ZN3lld11unlinkAsyncEN4llvm9StringRefE
zig:_ZN3lld12ErrorHandler11getLocationB5cxx11ERKN4llvm5TwineE
zig:_ZN3lld12ErrorHandler3logERKN4llvm5TwineE
zig:_ZN3lld12ErrorHandler4warnERKN4llvm5TwineE
zig:_ZN3lld12ErrorHandler5errorERKN4llvm5TwineE
zig:_ZN3lld12ErrorHandler5errorERKN4llvm5TwineENS_8ErrorTagENS1_8ArrayRefINS1_9StringRefEEE
zig:_ZN3lld12ErrorHandler5fatalERKN4llvm5TwineE
zig:_ZN3lld12ErrorHandler7messageERKN4llvm5TwineE
zig:_ZN3lld12errorHandlerEv
zig:_ZN3lld12toCOFFStringB5cxx11ERKN4llvm6object7Archive6SymbolE
zig:_ZN3lld13getLLDVersionB5cxx11Ev
zig:_ZN3lld13tryCreateFileEN4llvm9StringRefE
zig:_ZN3lld14relativeToRootB5cxx11EN4llvm9StringRefE
zig:_ZN3lld15demangleItaniumB5cxx11EN4llvm9StringRefE
zig:_ZN3lld17SpecificAllocBase9instancesE
zig:_ZN3lld17diagnosticHandlerERKN4llvm14DiagnosticInfoE
zig:_ZN3lld17relocTypeToStringEh
zig:_ZN3lld18isValidCIdentifierEN4llvm9StringRefE
zig:_ZN3lld19SingleStringMatcherC1EN4llvm9StringRefE
zig:_ZN3lld19SingleStringMatcherC2EN4llvm9StringRefE
zig:_ZN3lld19maybeDemangleSymbolB5cxx11EN4llvm9StringRefE
zig:_ZN3lld23getCodeModelFromCMModelEv
zig:_ZN3lld24getRelocModelFromCMModelEv
zig:_ZN3lld33initTargetOptionsFromCodeGenFlagsEv
zig:_ZN3lld3elf10BinaryFile5parseEv
zig:_ZN3lld3elf10BssSectionC1EN4llvm9StringRefEmj
zig:_ZN3lld3elf10BssSectionC2EN4llvm9StringRefEmj
zig:_ZN3lld3elf10GotSection11addTlsIndexEv
zig:_ZN3lld3elf10GotSection14addDynTlsEntryERNS0_6SymbolE
zig:_ZN3lld3elf10GotSection16finalizeContentsEv
zig:_ZN3lld3elf10GotSection7writeToEPh
zig:_ZN3lld3elf10GotSection8addEntryERNS0_6SymbolE
zig:_ZN3lld3elf10GotSectionC1Ev
zig:_ZN3lld3elf10GotSectionC2Ev
zig:_ZN3lld3elf10PltSection10addSymbolsEv
zig:_ZN3lld3elf10PltSection7writeToEPh
zig:_ZN3lld3elf10PltSection8addEntryERNS0_6SymbolE
zig:_ZN3lld3elf10PltSectionC1Ev
zig:_ZN3lld3elf10PltSectionC2Ev
zig:_ZN3lld3elf10SharedFile10vernauxNumE
zig:_ZN3lld3elf10TargetInfoD0Ev
zig:_ZN3lld3elf10TargetInfoD1Ev
zig:_ZN3lld3elf10TargetInfoD2Ev
zig:_ZN3lld3elf10addVerneedEPNS0_6SymbolE
zig:_ZN3lld3elf10partitionsE
zig:_ZN3lld3elf10readDefsymEN4llvm9StringRefENS1_15MemoryBufferRefE
zig:_ZN3lld3elf11ArchiveFile20shouldFetchForCommonERKN4llvm6object7Archive6SymbolE
zig:_ZN3lld3elf11ArchiveFile5fetchERKN4llvm6object7Archive6SymbolE
zig:_ZN3lld3elf11ArchiveFile5parseEv
zig:_ZN3lld3elf11ArchiveFileC1EOSt10unique_ptrIN4llvm6object7ArchiveESt14default_deleteIS5_EE
zig:_ZN3lld3elf11ArchiveFileC2EOSt10unique_ptrIN4llvm6object7ArchiveESt14default_deleteIS5_EE
zig:_ZN3lld3elf11BitcodeFileC1EN4llvm15MemoryBufferRefENS2_9StringRefEm
zig:_ZN3lld3elf11BitcodeFileC2EN4llvm15MemoryBufferRefENS2_9StringRefEm
zig:_ZN3lld3elf11ELFFileBaseC1ENS0_9InputFile4KindEN4llvm15MemoryBufferRefE
zig:_ZN3lld3elf11ELFFileBaseC2ENS0_9InputFile4KindEN4llvm15MemoryBufferRefE
zig:_ZN3lld3elf11ELFOptTable5parseEN4llvm8ArrayRefIPKcEE
zig:_ZN3lld3elf11ELFOptTableC1Ev
zig:_ZN3lld3elf11ELFOptTableC2Ev
zig:_ZN3lld3elf11IpltSection10addSymbolsEv
zig:_ZN3lld3elf11IpltSection7writeToEPh
zig:_ZN3lld3elf11IpltSection8addEntryERNS0_6SymbolE
zig:_ZN3lld3elf11IpltSectionC1Ev
zig:_ZN3lld3elf11IpltSectionC2Ev
zig:_ZN3lld3elf11LazyArchive15getMemberBufferEv
zig:_ZN3lld3elf11LazyObjFile20shouldFetchForCommonERKN4llvm9StringRefE
zig:_ZN3lld3elf11LazyObjFile5fetchEv
zig:_ZN3lld3elf11ScriptLexer12consumeLabelEN4llvm9StringRefE
zig:_ZN3lld3elf11ScriptLexer12getCurrentMBEv
zig:_ZN3lld3elf11ScriptLexer13getLineNumberEv
zig:_ZN3lld3elf11ScriptLexer14maybeSplitExprEv
zig:_ZN3lld3elf11ScriptLexer15getColumnNumberEv
zig:_ZN3lld3elf11ScriptLexer18getCurrentLocationB5cxx11Ev
zig:_ZN3lld3elf11ScriptLexer4nextEv
zig:_ZN3lld3elf11ScriptLexer4peekEv
zig:_ZN3lld3elf11ScriptLexer4skipEv
zig:_ZN3lld3elf11ScriptLexer5atEOFEv
zig:_ZN3lld3elf11ScriptLexer5peek2Ev
zig:_ZN3lld3elf11ScriptLexer6expectEN4llvm9StringRefE
zig:_ZN3lld3elf11ScriptLexer7consumeEN4llvm9StringRefE
zig:_ZN3lld3elf11ScriptLexer7getLineEv
zig:_ZN3lld3elf11ScriptLexer8setErrorERKN4llvm5TwineE
zig:_ZN3lld3elf11ScriptLexer8tokenizeEN4llvm15MemoryBufferRefE
zig:_ZN3lld3elf11ScriptLexer9skipSpaceEN4llvm9StringRefE
zig:_ZN3lld3elf11ScriptLexerC1EN4llvm15MemoryBufferRefE
zig:_ZN3lld3elf11ScriptLexerC2EN4llvm15MemoryBufferRefE
zig:_ZN3lld3elf11SectionBase16getOutputSectionEv
zig:_ZN3lld3elf11SymbolTable13findByVersionENS0_13SymbolVersionE
zig:_ZN3lld3elf11SymbolTable16findAllByVersionENS0_13SymbolVersionEb
zig:_ZN3lld3elf11SymbolTable16getDemangledSymsEv
zig:_ZN3lld3elf11SymbolTable17handleDynamicListEv
zig:_ZN3lld3elf11SymbolTable17scanVersionScriptEv
zig:_ZN3lld3elf11SymbolTable18assignExactVersionENS0_13SymbolVersionEtN4llvm9StringRefEb
zig:_ZN3lld3elf11SymbolTable21assignWildcardVersionENS0_13SymbolVersionEtb
zig:_ZN3lld3elf11SymbolTable4findEN4llvm9StringRefE
zig:_ZN3lld3elf11SymbolTable4wrapEPNS0_6SymbolES3_S3_
zig:_ZN3lld3elf11SymbolTable6insertEN4llvm9StringRefE
zig:_ZN3lld3elf11SymbolTable9addSymbolERKNS0_6SymbolE
zig:_ZN3lld3elf11binaryFilesE
zig:_ZN3lld3elf11getPriorityEN4llvm9StringRefE
zig:_ZN3lld3elf11hasWildcardEN4llvm9StringRefE
zig:_ZN3lld3elf11isMicroMipsEv
zig:_ZN3lld3elf11objectFilesE
zig:_ZN3lld3elf11sharedFilesE
zig:_ZN3lld3elf12InputSection7classofEPKNS0_11SectionBaseE
zig:_ZN3lld3elf12InputSection7replaceEPS1_
zig:_ZN3lld3elf12InputSection9discardedE
zig:_ZN3lld3elf12InputSectionC1EPNS0_9InputFileEmjjN4llvm8ArrayRefIhEENS4_9StringRefENS0_11SectionBase4KindE
zig:_ZN3lld3elf12InputSectionC2EPNS0_9InputFileEmjjN4llvm8ArrayRefIhEENS4_9StringRefENS0_11SectionBase4KindE
zig:_ZN3lld3elf12LinkerDriver10addLibraryEN4llvm9StringRefE
zig:_ZN3lld3elf12LinkerDriver10linkerMainEN4llvm8ArrayRefIPKcEE
zig:_ZN3lld3elf12LinkerDriver11createFilesERN4llvm3opt12InputArgListE
zig:_ZN3lld3elf12LinkerDriver16inferMachineTypeEv
zig:_ZN3lld3elf12LinkerDriver7addFileEN4llvm9StringRefEb
zig:_ZN3lld3elf12LinkerScript10shouldKeepEPNS0_16InputSectionBaseE
zig:_ZN3lld3elf12LinkerScript11createPhdrsEv
zig:_ZN3lld3elf12LinkerScript12AddressStateC1Ev
zig:_ZN3lld3elf12LinkerScript12AddressStateC2Ev
zig:_ZN3lld3elf12LinkerScript12assignSymbolEPNS0_16SymbolAssignmentEb
zig:_ZN3lld3elf12LinkerScript13assignOffsetsEPNS0_13OutputSectionE
zig:_ZN3lld3elf12LinkerScript14declareSymbolsEv
zig:_ZN3lld3elf12LinkerScript14getPhdrIndicesEPNS0_13OutputSectionE
zig:_ZN3lld3elf12LinkerScript14getSymbolValueEN4llvm9StringRefERKNS2_5TwineE
zig:_ZN3lld3elf12LinkerScript15allocateHeadersERSt6vectorIPNS0_9PhdrEntryESaIS4_EE
zig:_ZN3lld3elf12LinkerScript15assignAddressesEv
zig:_ZN3lld3elf12LinkerScript16discardSyntheticERNS0_13OutputSectionE
zig:_ZN3lld3elf12LinkerScript16findMemoryRegionEPNS0_13OutputSectionE
zig:_ZN3lld3elf12LinkerScript17addOrphanSectionsEv
zig:_ZN3lld3elf12LinkerScript18needsInterpSectionEv
zig:_ZN3lld3elf12LinkerScript19createOutputSectionEN4llvm9StringRefES3_
zig:_ZN3lld3elf12LinkerScript19expandMemoryRegionsEm
zig:_ZN3lld3elf12LinkerScript19expandOutputSectionEm
zig:_ZN3lld3elf12LinkerScript20computeInputSectionsEPKNS0_23InputSectionDescriptionEN4llvm8ArrayRefIPNS0_16InputSectionBaseEEE
zig:_ZN3lld3elf12LinkerScript21processInsertCommandsEv
zig:_ZN3lld3elf12LinkerScript22createInputSectionListERNS0_13OutputSectionE
zig:_ZN3lld3elf12LinkerScript22processSectionCommandsEv
zig:_ZN3lld3elf12LinkerScript24getOrCreateOutputSectionEN4llvm9StringRefE
zig:_ZN3lld3elf12LinkerScript24processSymbolAssignmentsEv
zig:_ZN3lld3elf12LinkerScript26adjustSectionsAfterSortingEv
zig:_ZN3lld3elf12LinkerScript27adjustSectionsBeforeSortingEv
zig:_ZN3lld3elf12LinkerScript6outputEPNS0_12InputSectionE
zig:_ZN3lld3elf12LinkerScript6setDotESt8functionIFNS0_9ExprValueEvEERKN4llvm5TwineEb
zig:_ZN3lld3elf12LinkerScript7advanceEmj
zig:_ZN3lld3elf12LinkerScript7discardEPNS0_16InputSectionBaseE
zig:_ZN3lld3elf12LinkerScript8switchToEPNS0_13OutputSectionE
zig:_ZN3lld3elf12LinkerScript9addSymbolEPNS0_16SymbolAssignmentE
zig:_ZN3lld3elf12ThunkCreator11mergeThunksEN4llvm8ArrayRefIPNS0_13OutputSectionEEE
zig:_ZN3lld3elf12ThunkCreator12createThunksEN4llvm8ArrayRefIPNS0_13OutputSectionEEE
zig:_ZN3lld3elf12ThunkCreator13getISThunkSecEPNS0_12InputSectionE
zig:_ZN3lld3elf12ThunkCreator14getISDThunkSecEPNS0_13OutputSectionEPNS0_12InputSectionEPNS0_23InputSectionDescriptionERKNS0_10RelocationEm
zig:_ZN3lld3elf12ThunkCreator15addThunkSectionEPNS0_13OutputSectionEPNS0_23InputSectionDescriptionEm
zig:_ZN3lld3elf12ThunkCreator22normalizeExistingThunkERNS0_10RelocationEm
zig:_ZN3lld3elf12ThunkCreator26createInitialThunkSectionsEN4llvm8ArrayRefIPNS0_13OutputSectionEEE
zig:_ZN3lld3elf12ThunkCreator8getThunkEPNS0_12InputSectionERNS0_10RelocationEm
zig:_ZN3lld3elf12ThunkSection13assignOffsetsEv
zig:_ZN3lld3elf12ThunkSection7writeToEPh
zig:_ZN3lld3elf12ThunkSection8addThunkEPNS0_5ThunkE
zig:_ZN3lld3elf12ThunkSectionC1EPNS0_13OutputSectionEm
zig:_ZN3lld3elf12ThunkSectionC2EPNS0_13OutputSectionEm
zig:_ZN3lld3elf12archiveFilesE
zig:_ZN3lld3elf12bitcodeFilesE
zig:_ZN3lld3elf12isMipsN32AbiEPKNS0_9InputFileE
zig:_ZN3lld3elf12lazyObjFilesE
zig:_ZN3lld3elf12searchScriptB5cxx11EN4llvm9StringRefE
zig:_ZN3lld3elf12writeMapFileEv
zig:_ZN3lld3elf13EhFrameHeader5writeEv
zig:_ZN3lld3elf13EhFrameHeader7writeToEPh
zig:_ZN3lld3elf13EhFrameHeaderC1Ev
zig:_ZN3lld3elf13EhFrameHeaderC2Ev
zig:_ZN3lld3elf13GotPltSection7writeToEPh
zig:_ZN3lld3elf13GotPltSection8addEntryERNS0_6SymbolE
zig:_ZN3lld3elf13GotPltSectionC1Ev
zig:_ZN3lld3elf13GotPltSectionC2Ev
zig:_ZN3lld3elf13IBTPltSection7writeToEPh
zig:_ZN3lld3elf13IBTPltSectionC1Ev
zig:_ZN3lld3elf13IBTPltSectionC2Ev
zig:_ZN3lld3elf13OutputSection12sortInitFiniEv
zig:_ZN3lld3elf13OutputSection13commitSectionEPNS0_12InputSectionE
zig:_ZN3lld3elf13OutputSection13recordSectionEPNS0_16InputSectionBaseE
zig:_ZN3lld3elf13OutputSection14sortCtorsDtorsEv
zig:_ZN3lld3elf13OutputSection18checkDynRelAddendsEPKh
zig:_ZN3lld3elf13OutputSection21finalizeInputSectionsEv
zig:_ZN3lld3elf13OutputSection4sortEN4llvm12function_refIFiPNS0_16InputSectionBaseEEEE
zig:_ZN3lld3elf13OutputSection7classofEPKNS0_11BaseCommandE
zig:_ZN3lld3elf13OutputSection8finalizeEv
zig:_ZN3lld3elf13OutputSection9getFillerEv
zig:_ZN3lld3elf13OutputSectionC1EN4llvm9StringRefEjm
zig:_ZN3lld3elf13OutputSectionC2EN4llvm9StringRefEjm
zig:_ZN3lld3elf13getErrorPlaceEPKh
zig:_ZN3lld3elf13getHeaderSizeEv
zig:_ZN3lld3elf13getPPCDFormOpEj
zig:_ZN3lld3elf13inputSectionsE
zig:_ZN3lld3elf13searchLibraryB5cxx11EN4llvm9StringRefE
zig:_ZN3lld3elf14BuildIdSection12writeBuildIdEN4llvm8ArrayRefIhEE
zig:_ZN3lld3elf14BuildIdSection7writeToEPh
zig:_ZN3lld3elf14BuildIdSectionC1Ev
zig:_ZN3lld3elf14BuildIdSectionC2Ev
zig:_ZN3lld3elf14EhFrameSection10addSectionEPNS0_14EhInputSectionE
zig:_ZN3lld3elf14EhFrameSection16finalizeContentsEv
zig:_ZN3lld3elf14EhFrameSection7writeToEPh
zig:_ZN3lld3elf14EhFrameSectionC1Ev
zig:_ZN3lld3elf14EhFrameSectionC2Ev
zig:_ZN3lld3elf14IgotPltSection7writeToEPh
zig:_ZN3lld3elf14IgotPltSection8addEntryERNS0_6SymbolE
zig:_ZN3lld3elf14IgotPltSectionC1Ev
zig:_ZN3lld3elf14IgotPltSectionC2Ev
zig:_ZN3lld3elf14MipsGotSection11addTlsIndexERNS0_9InputFileE
zig:_ZN3lld3elf14MipsGotSection12tryMergeGotsERNS1_7FileGotES3_b
zig:_ZN3lld3elf14MipsGotSection14addDynTlsEntryERNS0_9InputFileERNS0_6SymbolE
zig:_ZN3lld3elf14MipsGotSection15updateAllocSizeEv
zig:_ZN3lld3elf14MipsGotSection16finalizeContentsEv
zig:_ZN3lld3elf14MipsGotSection5buildEv
zig:_ZN3lld3elf14MipsGotSection6getGotERNS0_9InputFileE
zig:_ZN3lld3elf14MipsGotSection7writeToEPh
zig:_ZN3lld3elf14MipsGotSection8addEntryERNS0_9InputFileERNS0_6SymbolElNS0_7RelExprE
zig:_ZN3lld3elf14MipsGotSectionC1Ev
zig:_ZN3lld3elf14MipsGotSectionC2Ev
zig:_ZN3lld3elf14getAArch64PageEm
zig:_ZN3lld3elf14getFdeEncodingEPNS0_14EhSectionPieceE
zig:_ZN3lld3elf14outputSectionsE
zig:_ZN3lld3elf14reportBackrefsEv
zig:_ZN3lld3elf15BitcodeCompiler3addERNS0_11BitcodeFileE
zig:_ZN3lld3elf15BitcodeCompiler7compileEv
zig:_ZN3lld3elf15BitcodeCompilerC1Ev
zig:_ZN3lld3elf15BitcodeCompilerC2Ev
zig:_ZN3lld3elf15BitcodeCompilerD1Ev
zig:_ZN3lld3elf15BitcodeCompilerD2Ev
zig:_ZN3lld3elf15GdbIndexSection14initOutputSizeEv
zig:_ZN3lld3elf15GdbIndexSection7writeToEPh
zig:_ZN3lld3elf15GdbIndexSectionC1Ev
zig:_ZN3lld3elf15GdbIndexSectionC2Ev
zig:_ZN3lld3elf15RelrBaseSectionC2Ev
zig:_ZN3lld3elf15getPPC64TocBaseEv
zig:_ZN3lld3elf15ppc64noTocRelaxE
zig:_ZN3lld3elf15readDynamicListEN4llvm15MemoryBufferRefE
zig:_ZN3lld3elf16HashTableSection16finalizeContentsEv
zig:_ZN3lld3elf16HashTableSection7writeToEPh
zig:_ZN3lld3elf16HashTableSectionC1Ev
zig:_ZN3lld3elf16HashTableSectionC2Ev
zig:_ZN3lld3elf16InputSectionBase13relocateAllocEPhS2_
zig:_ZN3lld3elf16InputSectionBase16getRelocTargetVAEPKNS0_9InputFileEjlmRKNS0_6SymbolENS0_7RelExprE
zig:_ZN3lld3elf16InputSectionBase9getObjMsgB5cxx11Em
zig:_ZN3lld3elf16InputSectionBase9getSrcMsgB5cxx11ERKNS0_6SymbolEm
zig:_ZN3lld3elf16InputSectionBaseC1EPNS0_9InputFileEmjmjjjN4llvm8ArrayRefIhEENS4_9StringRefENS0_11SectionBase4KindE
zig:_ZN3lld3elf16InputSectionBaseC2EPNS0_9InputFileEmjmjjjN4llvm8ArrayRefIhEENS4_9StringRefENS0_11SectionBase4KindE
zig:_ZN3lld3elf16MergeTailSection16finalizeContentsEv
zig:_ZN3lld3elf16MergeTailSection7writeToEPh
zig:_ZN3lld3elf16MergeTailSectionC1EN4llvm9StringRefEjmj
zig:_ZN3lld3elf16MergeTailSectionC2EN4llvm9StringRefEjmj
zig:_ZN3lld3elf16PPC32Got2Section16finalizeContentsEv
zig:_ZN3lld3elf16PPC32Got2SectionC1Ev
zig:_ZN3lld3elf16PPC32Got2SectionC2Ev
zig:_ZN3lld3elf16createObjectFileEN4llvm15MemoryBufferRefENS1_9StringRefEm
zig:_ZN3lld3elf16getARMTargetInfoEv
zig:_ZN3lld3elf16getAVRTargetInfoEv
zig:_ZN3lld3elf16getInputSectionsEPKNS0_13OutputSectionE
zig:_ZN3lld3elf16getMipsFpAbiFlagEhhN4llvm9StringRefE
zig:_ZN3lld3elf16getPPCTargetInfoEv
zig:_ZN3lld3elf16getX86TargetInfoEv
zig:_ZN3lld3elf16printTraceSymbolEPKNS0_6SymbolE
zig:_ZN3lld3elf16readEhRecordSizeEPNS0_16InputSectionBaseEm
zig:_ZN3lld3elf16readLinkerScriptEN4llvm15MemoryBufferRefE
zig:_ZN3lld3elf16reportRangeErrorEPhRKNS0_10RelocationERKN4llvm5TwineElm
zig:_ZN3lld3elf16reportRangeErrorEPhliRKNS0_6SymbolERKN4llvm5TwineE
zig:_ZN3lld3elf17MergeInputSection12splitStringsEN4llvm8ArrayRefIhEEm
zig:_ZN3lld3elf17MergeInputSection15getSectionPieceEm
zig:_ZN3lld3elf17MergeInputSection15splitIntoPiecesEv
zig:_ZN3lld3elf17MergeInputSection15splitNonStringsEN4llvm8ArrayRefIhEEm
zig:_ZN3lld3elf17MergeInputSectionC1EmjmN4llvm8ArrayRefIhEENS2_9StringRefE
zig:_ZN3lld3elf17MergeInputSectionC2EmjmN4llvm8ArrayRefIhEENS2_9StringRefE
zig:_ZN3lld3elf17MipsRldMapSectionC1Ev
zig:_ZN3lld3elf17MipsRldMapSectionC2Ev
zig:_ZN3lld3elf17PPC32GlinkSection7writeToEPh
zig:_ZN3lld3elf17PPC32GlinkSectionC1Ev
zig:_ZN3lld3elf17PPC32GlinkSectionC2Ev
zig:_ZN3lld3elf17addSyntheticLocalEN4llvm9StringRefEhmmRNS0_16InputSectionBaseE
zig:_ZN3lld3elf17combineEhSectionsEv
zig:_ZN3lld3elf17readVersionScriptEN4llvm15MemoryBufferRefE
zig:_ZN3lld3elf17writeArchiveStatsEv
zig:_ZN3lld3elf18GnuPropertySection7writeToEPh
zig:_ZN3lld3elf18GnuPropertySectionC1Ev
zig:_ZN3lld3elf18GnuPropertySectionC2Ev
zig:_ZN3lld3elf18MergeNoTailSection16finalizeContentsEv
zig:_ZN3lld3elf18MergeNoTailSection7writeToEPh
zig:_ZN3lld3elf18MergeNoTailSection9numShardsE
zig:_ZN3lld3elf18Patch657417Section7writeToEPh
zig:_ZN3lld3elf18Patch657417SectionC1EPNS0_12InputSectionEmjb
zig:_ZN3lld3elf18Patch657417SectionC2EPNS0_12InputSectionEmjb
zig:_ZN3lld3elf18Patch843419Section7writeToEPh
zig:_ZN3lld3elf18Patch843419SectionC1EPNS0_12InputSectionEm
zig:_ZN3lld3elf18Patch843419SectionC2EPNS0_12InputSectionEm
zig:_ZN3lld3elf18StringTableSection7writeToEPh
zig:_ZN3lld3elf18StringTableSection9addStringEN4llvm9StringRefEb
zig:_ZN3lld3elf18StringTableSectionC1EN4llvm9StringRefEb
zig:_ZN3lld3elf18StringTableSectionC2EN4llvm9StringRefEb
zig:_ZN3lld3elf18SymtabShndxSection16finalizeContentsEv
zig:_ZN3lld3elf18SymtabShndxSection7writeToEPh
zig:_ZN3lld3elf18SymtabShndxSectionC1Ev
zig:_ZN3lld3elf18SymtabShndxSectionC2Ev
zig:_ZN3lld3elf18addReservedSymbolsEv
zig:_ZN3lld3elf18backwardReferencesE
zig:_ZN3lld3elf18createResponseFileB5cxx11ERKN4llvm3opt12InputArgListE
zig:_ZN3lld3elf18getPPC64TargetInfoEv
zig:_ZN3lld3elf18getRISCVTargetInfoEv
zig:_ZN3lld3elf19ARMErr657417Patcher11createFixesEv
zig:_ZN3lld3elf19ARMErr657417Patcher13insertPatchesERNS0_23InputSectionDescriptionERSt6vectorIPNS0_18Patch657417SectionESaIS6_EE
zig:_ZN3lld3elf19ARMErr657417Patcher28patchInputSectionDescriptionERNS0_23InputSectionDescriptionE
zig:_ZN3lld3elf19ARMErr657417Patcher4initEv
zig:_ZN3lld3elf19GnuHashTableSection10addSymbolsERSt6vectorINS0_16SymbolTableEntryESaIS3_EE
zig:_ZN3lld3elf19GnuHashTableSection14writeHashTableEPh
zig:_ZN3lld3elf19GnuHashTableSection16finalizeContentsEv
zig:_ZN3lld3elf19GnuHashTableSection16writeBloomFilterEPh
zig:_ZN3lld3elf19GnuHashTableSection7writeToEPh
zig:_ZN3lld3elf19GnuHashTableSectionC1Ev
zig:_ZN3lld3elf19GnuHashTableSectionC2Ev
zig:_ZN3lld3elf19VersionTableSection16finalizeContentsEv
zig:_ZN3lld3elf19VersionTableSection7writeToEPh
zig:_ZN3lld3elf19VersionTableSectionC1Ev
zig:_ZN3lld3elf19VersionTableSectionC2Ev
zig:_ZN3lld3elf19addPPC64SaveRestoreEv
zig:_ZN3lld3elf19createInterpSectionEv
zig:_ZN3lld3elf19findFromSearchPathsB5cxx11EN4llvm9StringRefE
zig:_ZN3lld3elf19getAMDGPUTargetInfoEv
zig:_ZN3lld3elf19getMSP430TargetInfoEv
zig:_ZN3lld3elf19getX86_64TargetInfoEv
zig:_ZN3lld3elf20computeIsPreemptibleERKNS0_6SymbolE
zig:_ZN3lld3elf20createCommentSectionEv
zig:_ZN3lld3elf20createMergeSyntheticEN4llvm9StringRefEjmj
zig:_ZN3lld3elf20getAArch64TargetInfoEv
zig:_ZN3lld3elf20getFirstInputSectionEPKNS0_13OutputSectionE
zig:_ZN3lld3elf20getHexagonTargetInfoEv
zig:_ZN3lld3elf20getOutputSectionNameEPKNS0_16InputSectionBaseE
zig:_ZN3lld3elf20getSPARCV9TargetInfoEv
zig:_ZN3lld3elf20replaceThinLTOSuffixB5cxx11EN4llvm9StringRefE
zig:_ZN3lld3elf21MergeSyntheticSection10addSectionEPNS0_17MergeInputSectionE
zig:_ZN3lld3elf21PartitionIndexSection16finalizeContentsEv
zig:_ZN3lld3elf21PartitionIndexSection7writeToEPh
zig:_ZN3lld3elf21PartitionIndexSectionC1Ev
zig:_ZN3lld3elf21PartitionIndexSectionC2Ev
zig:_ZN3lld3elf21RelocationBaseSection14addSymbolRelocEjPNS0_16InputSectionBaseEmRNS0_6SymbolElN4llvm8OptionalIjEE
zig:_ZN3lld3elf21RelocationBaseSection16addRelativeRelocEjPNS0_16InputSectionBaseEmRNS0_6SymbolEljNS0_7RelExprE
zig:_ZN3lld3elf21RelocationBaseSection16finalizeContentsEv
zig:_ZN3lld3elf21RelocationBaseSection34addAddendOnlyRelocIfNonPreemptibleEjPNS0_16InputSectionBaseEmRNS0_6SymbolEj
zig:_ZN3lld3elf21RelocationBaseSection8addRelocENS0_12DynamicReloc4KindEjPNS0_16InputSectionBaseEmRNS0_6SymbolElNS0_7RelExprEj
zig:_ZN3lld3elf21RelocationBaseSection8addRelocERKNS0_12DynamicRelocE
zig:_ZN3lld3elf21RelocationBaseSectionC2EN4llvm9StringRefEjii
zig:_ZN3lld3elf21hexagonNeedsTLSSymbolEN4llvm8ArrayRefIPNS0_13OutputSectionEEE
zig:_ZN3lld3elf21searchLibraryBaseNameB5cxx11EN4llvm9StringRefE
zig:_ZN3lld3elf21writePPC32PltCallStubEPhmPKNS0_9InputFileEl
zig:_ZN3lld3elf22SymbolTableBaseSection14getSymbolIndexEPNS0_6SymbolE
zig:_ZN3lld3elf22SymbolTableBaseSection16finalizeContentsEv
zig:_ZN3lld3elf22SymbolTableBaseSection17sortSymTabSymbolsEv
zig:_ZN3lld3elf22SymbolTableBaseSection9addSymbolEPNS0_6SymbolE
zig:_ZN3lld3elf22SymbolTableBaseSectionC2ERNS0_18StringTableSectionE
zig:_ZN3lld3elf22hexagonTLSSymbolUpdateEN4llvm8ArrayRefIPNS0_13OutputSectionEEE
zig:_ZN3lld3elf22writePPC32GlinkSectionEPhm
zig:_ZN3lld3elf23AArch64Err843419Patcher11createFixesEv
zig:_ZN3lld3elf23AArch64Err843419Patcher13insertPatchesERNS0_23InputSectionDescriptionERSt6vectorIPNS0_18Patch843419SectionESaIS6_EE
zig:_ZN3lld3elf23AArch64Err843419Patcher28patchInputSectionDescriptionERNS0_23InputSectionDescriptionE
zig:_ZN3lld3elf23AArch64Err843419Patcher4initEv
zig:_ZN3lld3elf23writePPC64LoadAndBranchEPhl
zig:_ZN3lld3elf24ARMExidxSyntheticSection10addSectionEPNS0_12InputSectionE
zig:_ZN3lld3elf24ARMExidxSyntheticSection16finalizeContentsEv
zig:_ZN3lld3elf24ARMExidxSyntheticSection7classofEPKNS0_11SectionBaseE
zig:_ZN3lld3elf24ARMExidxSyntheticSection7writeToEPh
zig:_ZN3lld3elf24ARMExidxSyntheticSectionC1Ev
zig:_ZN3lld3elf24ARMExidxSyntheticSectionC2Ev
zig:_ZN3lld3elf24VersionDefinitionSection14getFileDefNameEv
zig:_ZN3lld3elf24VersionDefinitionSection16finalizeContentsEv
zig:_ZN3lld3elf24VersionDefinitionSection7writeToEPh
zig:_ZN3lld3elf24VersionDefinitionSection8writeOneEPhjN4llvm9StringRefEm
zig:_ZN3lld3elf24VersionDefinitionSectionC1Ev
zig:_ZN3lld3elf24VersionDefinitionSectionC2Ev
zig:_ZN3lld3elf24writeCrossReferenceTableEv
zig:_ZN3lld3elf24writePrefixedInstructionEPhm
zig:_ZN3lld3elf26copySectionsIntoPartitionsEv
zig:_ZN3lld3elf26maybeWarnUnorderableSymbolEPKNS0_6SymbolE
zig:_ZN3lld3elf27tryRelaxPPC64TocIndirectionERKNS0_10RelocationEPh
zig:_ZN3lld3elf28PPC64LongBranchTargetSection10getEntryVAEPKNS0_6SymbolEl
zig:_ZN3lld3elf28PPC64LongBranchTargetSection7writeToEPh
zig:_ZN3lld3elf28PPC64LongBranchTargetSection8addEntryEPKNS0_6SymbolEl
zig:_ZN3lld3elf28PPC64LongBranchTargetSectionC1Ev
zig:_ZN3lld3elf28PPC64LongBranchTargetSectionC2Ev
zig:_ZN3lld3elf28computeCallGraphProfileOrderEv
zig:_ZN3lld3elf29isPPC64SmallCodeModelTocRelocEj
zig:_ZN3lld3elf2inE
zig:_ZN3lld3elf37getPPC64GlobalEntryToLocalEntryOffsetEh
zig:_ZN3lld3elf3Out11bufferStartE
zig:_ZN3lld3elf3Out12preinitArrayE
zig:_ZN3lld3elf3Out14programHeadersE
zig:_ZN3lld3elf3Out5firstE
zig:_ZN3lld3elf3Out7tlsPhdrE
zig:_ZN3lld3elf3Out9elfHeaderE
zig:_ZN3lld3elf3Out9finiArrayE
zig:_ZN3lld3elf3Out9initArrayE
zig:_ZN3lld3elf3tarE
zig:_ZN3lld3elf4linkEN4llvm8ArrayRefIPKcEEbRNS1_11raw_ostreamES7_
zig:_ZN3lld3elf5Thunk9addSymbolEN4llvm9StringRefEhmRNS0_16InputSectionBaseE
zig:_ZN3lld3elf5Thunk9setOffsetEm
zig:_ZN3lld3elf5ThunkC2ERNS0_6SymbolEl
zig:_ZN3lld3elf5ThunkD0Ev
zig:_ZN3lld3elf5ThunkD1Ev
zig:_ZN3lld3elf5ThunkD2Ev
zig:_ZN3lld3elf6ElfSym10mipsGpDispE
zig:_ZN3lld3elf6ElfSym11mipsLocalGpE
zig:_ZN3lld3elf6ElfSym11relaIpltEndE
zig:_ZN3lld3elf6ElfSym13relaIpltStartE
zig:_ZN3lld3elf6ElfSym13tlsModuleBaseE
zig:_ZN3lld3elf6ElfSym17globalOffsetTableE
zig:_ZN3lld3elf6ElfSym18riscvGlobalPointerE
zig:_ZN3lld3elf6ElfSym3bssE
zig:_ZN3lld3elf6ElfSym4end1E
zig:_ZN3lld3elf6ElfSym4end2E
zig:_ZN3lld3elf6ElfSym6edata1E
zig:_ZN3lld3elf6ElfSym6edata2E
zig:_ZN3lld3elf6ElfSym6etext1E
zig:_ZN3lld3elf6ElfSym6etext2E
zig:_ZN3lld3elf6ElfSym6mipsGpE
zig:_ZN3lld3elf6Symbol13resolveCommonERKNS0_12CommonSymbolE
zig:_ZN3lld3elf6Symbol13resolveSharedERKNS0_12SharedSymbolE
zig:_ZN3lld3elf6Symbol14resolveDefinedERKNS0_7DefinedE
zig:_ZN3lld3elf6Symbol15mergePropertiesERKS1_
zig:_ZN3lld3elf6Symbol16resolveUndefinedERKNS0_9UndefinedE
zig:_ZN3lld3elf6Symbol18parseSymbolVersionEv
zig:_ZN3lld3elf6Symbol7resolveERKS1_
zig:_ZN3lld3elf6configE
zig:_ZN3lld3elf6driverE
zig:_ZN3lld3elf6scriptE
zig:_ZN3lld3elf6symtabE
zig:_ZN3lld3elf6targetE
zig:_ZN3lld3elf7hasLSDAERKNS0_14EhSectionPieceE
zig:_ZN3lld3elf8addThunkERKNS0_12InputSectionERNS0_10RelocationE
zig:_ZN3lld3elf8isMipsR6Ev
zig:_ZN3lld3elf8mainPartE
zig:_ZN3lld3elf8readFileEN4llvm9StringRefE
zig:_ZN3lld3elf9InputFile11nextGroupIdE
zig:_ZN3lld3elf9InputFile9getSrcMsgB5cxx11ERKNS0_6SymbolERNS0_16InputSectionBaseEm
zig:_ZN3lld3elf9InputFile9isInGroupE
zig:_ZN3lld3elf9InputFileC1ENS1_4KindEN4llvm15MemoryBufferRefE
zig:_ZN3lld3elf9InputFileC2ENS1_4KindEN4llvm15MemoryBufferRefE
zig:_ZN3lld3elf9PhdrEntry3addEPNS0_13OutputSectionE
zig:_ZN3lld3elf9getTargetEv
zig:_ZN3lld3elf9parseFileEPNS0_9InputFileE
zig:_ZN3lld3elf9printHelpEv
zig:_ZN3lld4args10getIntegerERN4llvm3opt12InputArgListEjl
zig:_ZN3lld4args10getStringsERN4llvm3opt12InputArgListEi
zig:_ZN3lld4args13getCGOptLevelEi
zig:_ZN3lld4args15getZOptionValueERN4llvm3opt12InputArgListEiNS1_9StringRefEm
zig:_ZN3lld4args21getFilenameWithoutExeEN4llvm9StringRefE
zig:_ZN3lld4args6getHexERN4llvm3opt12InputArgListEjl
zig:_ZN3lld4args8getLinesEN4llvm15MemoryBufferRefE
zig:_ZN3lld4coff10ImportFile5parseEv
zig:_ZN3lld4coff10ImportFile9instancesE
zig:_ZN3lld4coff10MergeChunk10addSectionEPNS0_12SectionChunkE
zig:_ZN3lld4coff10MergeChunk16finalizeContentsEv
zig:_ZN3lld4coff10MergeChunk20assignSubsectionRVAsEv
zig:_ZN3lld4coff10MergeChunk9instancesE
zig:_ZN3lld4coff10MergeChunkC1Ej
zig:_ZN3lld4coff10MergeChunkC2Ej
zig:_ZN3lld4coff10TypeMerger19mergeTypesWithGHashEv
zig:_ZN3lld4coff10TypeMergerC1ERN4llvm20BumpPtrAllocatorImplINS2_15MallocAllocatorELm4096ELm4096ELm128EEE
zig:_ZN3lld4coff10TypeMergerC2ERN4llvm20BumpPtrAllocatorImplINS2_15MallocAllocatorELm4096ELm4096ELm128EEE
zig:_ZN3lld4coff10TypeMergerD1Ev
zig:_ZN3lld4coff10TypeMergerD2Ev
zig:_ZN3lld4coff10parseGuardEN4llvm9StringRefE
zig:_ZN3lld4coff10parseMergeEN4llvm9StringRefE
zig:_ZN3lld4coff11ArchiveFile5parseEv
zig:_ZN3lld4coff11ArchiveFile9addMemberERKN4llvm6object7Archive6SymbolE
zig:_ZN3lld4coff11ArchiveFileC1EN4llvm15MemoryBufferRefE
zig:_ZN3lld4coff11ArchiveFileC2EN4llvm15MemoryBufferRefE
zig:_ZN3lld4coff11BitcodeFile14getMachineTypeEv
zig:_ZN3lld4coff11BitcodeFile5parseEv
zig:_ZN3lld4coff11BitcodeFile9instancesE
zig:_ZN3lld4coff11BitcodeFileC1EN4llvm15MemoryBufferRefENS2_9StringRefEm
zig:_ZN3lld4coff11BitcodeFileC1EN4llvm15MemoryBufferRefENS2_9StringRefEmOSt6vectorIPNS0_6SymbolESaIS7_EE
zig:_ZN3lld4coff11BitcodeFileC2EN4llvm15MemoryBufferRefENS2_9StringRefEm
zig:_ZN3lld4coff11BitcodeFileC2EN4llvm15MemoryBufferRefENS2_9StringRefEmOSt6vectorIPNS0_6SymbolESaIS7_EE
zig:_ZN3lld4coff11BitcodeFileD0Ev
zig:_ZN3lld4coff11BitcodeFileD1Ev
zig:_ZN3lld4coff11BitcodeFileD2Ev
zig:_ZN3lld4coff11CommonChunkC1EN4llvm6object13COFFSymbolRefE
zig:_ZN3lld4coff11CommonChunkC2EN4llvm6object13COFFSymbolRefE
zig:_ZN3lld4coff11DefinedCOFF13getCOFFSymbolEv
zig:_ZN3lld4coff11LazyArchive15getMemberBufferEv
zig:_ZN3lld4coff11LazyObjFile5fetchEv
zig:_ZN3lld4coff11LazyObjFile5parseEv
zig:_ZN3lld4coff11SymbolTable10addLibcallEN4llvm9StringRefE
zig:_ZN3lld4coff11SymbolTable10addRegularEPNS0_9InputFileEN4llvm9StringRefEPKNS4_6object19coff_symbol_genericEPNS0_12SectionChunkEj
zig:_ZN3lld4coff11SymbolTable10findMangleEN4llvm9StringRefE
zig:_ZN3lld4coff11SymbolTable11addAbsoluteEN4llvm9StringRefENS2_6object13COFFSymbolRefE
zig:_ZN3lld4coff11SymbolTable11addAbsoluteEN4llvm9StringRefEm
zig:_ZN3lld4coff11SymbolTable12addSyntheticEN4llvm9StringRefEPNS0_5ChunkE
zig:_ZN3lld4coff11SymbolTable12addUndefinedEN4llvm9StringRefE
zig:_ZN3lld4coff11SymbolTable12addUndefinedEN4llvm9StringRefEPNS0_9InputFileEb
zig:_ZN3lld4coff11SymbolTable13addImportDataEN4llvm9StringRefEPNS0_10ImportFileE
zig:_ZN3lld4coff11SymbolTable13addLazyObjectEPNS0_11LazyObjFileEN4llvm9StringRefE
zig:_ZN3lld4coff11SymbolTable14addImportThunkEN4llvm9StringRefEPNS0_17DefinedImportDataEt
zig:_ZN3lld4coff11SymbolTable14addLazyArchiveEPNS0_11ArchiveFileERKN4llvm6object7Archive6SymbolE
zig:_ZN3lld4coff11SymbolTable14findUnderscoreEN4llvm9StringRefE
zig:_ZN3lld4coff11SymbolTable15reportDuplicateEPNS0_6SymbolEPNS0_9InputFileEPNS0_12SectionChunkEj
zig:_ZN3lld4coff11SymbolTable16addLazyDLLSymbolEPNS0_7DLLFileEPNS2_6SymbolEN4llvm9StringRefE
zig:_ZN3lld4coff11SymbolTable16loadMinGWSymbolsEv
zig:_ZN3lld4coff11SymbolTable17getSymsWithPrefixEN4llvm9StringRefE
zig:_ZN3lld4coff11SymbolTable18reportUnresolvableEv
zig:_ZN3lld4coff11SymbolTable21addCombinedLTOObjectsEv
zig:_ZN3lld4coff11SymbolTable25resolveRemainingUndefinesEv
zig:_ZN3lld4coff11SymbolTable26handleMinGWAutomaticImportEPNS0_6SymbolEN4llvm9StringRefE
zig:_ZN3lld4coff11SymbolTable4findEN4llvm9StringRefE
zig:_ZN3lld4coff11SymbolTable6insertEN4llvm9StringRefE
zig:_ZN3lld4coff11SymbolTable6insertEN4llvm9StringRefEPNS0_9InputFileE
zig:_ZN3lld4coff11SymbolTable7addFileEPNS0_9InputFileE
zig:_ZN3lld4coff11SymbolTable9addComdatEPNS0_9InputFileEN4llvm9StringRefEPKNS4_6object19coff_symbol_genericE
zig:_ZN3lld4coff11SymbolTable9addCommonEPNS0_9InputFileEN4llvm9StringRefEmPKNS4_6object19coff_symbol_genericEPNS0_11CommonChunkE
zig:_ZN3lld4coff11SymbolTable9getChunksEv
zig:_ZN3lld4coff11SymbolTable9impSymbolEN4llvm9StringRefE
zig:_ZN3lld4coff11applyMOV32TEPhj
zig:_ZN3lld4coff11parseExportEN4llvm9StringRefE
zig:_ZN3lld4coff11wrapSymbolsEN4llvm8ArrayRefINS0_13WrappedSymbolEEE
zig:_ZN3lld4coff11writeResultEv
zig:_ZN3lld4coff12AutoExporter15addWholeArchiveEN4llvm9StringRefE
zig:_ZN3lld4coff12AutoExporterC1Ev
zig:_ZN3lld4coff12AutoExporterC2Ev
zig:_ZN3lld4coff12BaserelChunkC1EjPNS0_7BaserelES3_
zig:_ZN3lld4coff12BaserelChunkC2EjPNS0_7BaserelES3_
zig:_ZN3lld4coff12COFFOptTableC1Ev
zig:_ZN3lld4coff12COFFOptTableC2Ev
zig:_ZN3lld4coff12LinkerDriver10doFindFileEN4llvm9StringRefE
zig:_ZN3lld4coff12LinkerDriver10linkerMainEN4llvm8ArrayRefIPKcEE
zig:_ZN3lld4coff12LinkerDriver10takeBufferESt10unique_ptrIN4llvm12MemoryBufferESt14default_deleteIS4_EE
zig:_ZN3lld4coff12LinkerDriver11enqueuePathEN4llvm9StringRefEbb
zig:_ZN3lld4coff12LinkerDriver11enqueueTaskESt8functionIFvvEE
zig:_ZN3lld4coff12LinkerDriver11mangleMaybeEPNS0_6SymbolE
zig:_ZN3lld4coff12LinkerDriver12addUndefinedEN4llvm9StringRefE
zig:_ZN3lld4coff12LinkerDriver14doFindLibMinGWEN4llvm9StringRefE
zig:_ZN3lld4coff12LinkerDriver14inferSubsystemEv
zig:_ZN3lld4coff12LinkerDriver15parseDirectivesEPNS0_9InputFileE
zig:_ZN3lld4coff12LinkerDriver16addArchiveBufferEN4llvm15MemoryBufferRefENS2_9StringRefES4_m
zig:_ZN3lld4coff12LinkerDriver16convertResourcesEv
zig:_ZN3lld4coff12LinkerDriver16findDefaultEntryEv
zig:_ZN3lld4coff12LinkerDriver17addLibSearchPathsEv
zig:_ZN3lld4coff12LinkerDriver20enqueueArchiveMemberERKN4llvm6object7Archive5ChildERKNS4_6SymbolENS2_9StringRefE
zig:_ZN3lld4coff12LinkerDriver23maybeExportMinGWSymbolsERKN4llvm3opt12InputArgListE
zig:_ZN3lld4coff12LinkerDriver3runEv
zig:_ZN3lld4coff12LinkerDriver7findLibEN4llvm9StringRefE
zig:_ZN3lld4coff12LinkerDriver8findFileEN4llvm9StringRefE
zig:_ZN3lld4coff12LinkerDriver9addBufferESt10unique_ptrIN4llvm12MemoryBufferESt14default_deleteIS4_EEbb
zig:_ZN3lld4coff12LinkerDriver9doFindLibEN4llvm9StringRefE
zig:_ZN3lld4coff12PDBInputFile18findFromRecordPathEN4llvm9StringRefEPNS0_7ObjFileE
zig:_ZN3lld4coff12PDBInputFile5parseEv
zig:_ZN3lld4coff12PDBInputFile7enqueueEN4llvm9StringRefEPNS0_7ObjFileE
zig:_ZN3lld4coff12PDBInputFile9instancesB5cxx11E
zig:_ZN3lld4coff12PDBInputFileC1EN4llvm15MemoryBufferRefE
zig:_ZN3lld4coff12PDBInputFileC2EN4llvm15MemoryBufferRefE
zig:_ZN3lld4coff12PDBInputFileD0Ev
zig:_ZN3lld4coff12PDBInputFileD1Ev
zig:_ZN3lld4coff12PDBInputFileD2Ev
zig:_ZN3lld4coff12SectionChunk10findByNameEN4llvm8ArrayRefIPS1_EENS2_9StringRefE
zig:_ZN3lld4coff12SectionChunk11getBaserelsEPSt6vectorINS0_7BaserelESaIS3_EE
zig:_ZN3lld4coff12SectionChunk14addAssociativeEPS1_
zig:_ZN3lld4coff12SectionChunk15sortRelocationsEv
zig:_ZN3lld4coff12SectionChunk17consumeDebugMagicEN4llvm8ArrayRefIhEENS2_9StringRefE
zig:_ZN3lld4coff12SectionChunk17consumeDebugMagicEv
zig:_ZN3lld4coff12SectionChunk22getRuntimePseudoRelocsERSt6vectorINS0_18RuntimePseudoRelocESaIS3_EE
zig:_ZN3lld4coff12SectionChunk7replaceEPS1_
zig:_ZN3lld4coff12SectionChunkC1EPNS0_7ObjFileEPKN4llvm6object12coff_sectionE
zig:_ZN3lld4coff12SectionChunkC2EPNS0_7ObjFileEPKN4llvm6object12coff_sectionE
zig:_ZN3lld4coff12fixupExportsEv
zig:_ZN3lld4coff12parseNumbersEN4llvm9StringRefEPmS3_
zig:_ZN3lld4coff12parseSectionEN4llvm9StringRefE
zig:_ZN3lld4coff12parseSwaprunEN4llvm9StringRefE
zig:_ZN3lld4coff12parseVersionEN4llvm9StringRefEPjS3_
zig:_ZN3lld4coff12writeDefFileEN4llvm9StringRefE
zig:_ZN3lld4coff12writeMapFileEN4llvm8ArrayRefIPNS0_13OutputSectionEEE
zig:_ZN3lld4coff13EdataContentsC1Ev
zig:_ZN3lld4coff13EdataContentsC2Ev
zig:_ZN3lld4coff13IdataContents6createEv
zig:_ZN3lld4coff13OutputSection13writeHeaderToEPh
zig:_ZN3lld4coff13OutputSection14setPermissionsEj
zig:_ZN3lld4coff13OutputSection18insertChunkAtStartEPNS0_5ChunkE
zig:_ZN3lld4coff13OutputSection29addContributingPartialSectionEPNS0_14PartialSectionE
zig:_ZN3lld4coff13OutputSection5clearEv
zig:_ZN3lld4coff13OutputSection5mergeEPS1_
zig:_ZN3lld4coff13OutputSection8addChunkEPNS0_5ChunkE
zig:_ZN3lld4coff13applyArm64ImmEPhmj
zig:_ZN3lld4coff13makeTpiSourceEPNS0_7ObjFileE
zig:_ZN3lld4coff13parseManifestEN4llvm9StringRefE
zig:_ZN3lld4coff14applyArm64AddrEPhmmi
zig:_ZN3lld4coff14applyBranch24TEPhi
zig:_ZN3lld4coff14loadGHashTimerE
zig:_ZN3lld4coff14parseAligncommEN4llvm9StringRefE
zig:_ZN3lld4coff14parseSubsystemEN4llvm9StringRefEPNS1_4COFF16WindowsSubsystemEPjS6_Pb
zig:_ZN3lld4coff15BitcodeCompiler3addERNS0_11BitcodeFileE
zig:_ZN3lld4coff15BitcodeCompiler7compileEv
zig:_ZN3lld4coff15BitcodeCompilerC1Ev
zig:_ZN3lld4coff15BitcodeCompilerC2Ev
zig:_ZN3lld4coff15BitcodeCompilerD1Ev
zig:_ZN3lld4coff15BitcodeCompilerD2Ev
zig:_ZN3lld4coff15DefinedAbsolute17numOutputSectionsE
zig:_ZN3lld4coff15mergeGHashTimerE
zig:_ZN3lld4coff15writeLLDMapFileEN4llvm8ArrayRefIPNS0_13OutputSectionEEE
zig:_ZN3lld4coff16LocalImportChunk11getBaserelsEPSt6vectorINS0_7BaserelESaIS3_EE
zig:_ZN3lld4coff16convertResToCOFFEN4llvm8ArrayRefINS1_15MemoryBufferRefEEENS2_IPNS0_7ObjFileEEE
zig:_ZN3lld4coff16getReproduceFileB5cxx11ERKN4llvm3opt12InputArgListE
zig:_ZN3lld4coff16parseManifestUACEN4llvm9StringRefE
zig:_ZN3lld4coff17DelayLoadContents10getDirSizeEv
zig:_ZN3lld4coff17DelayLoadContents13getDataChunksEv
zig:_ZN3lld4coff17DelayLoadContents13newThunkChunkEPNS0_17DefinedImportDataEPNS0_5ChunkE
zig:_ZN3lld4coff17DelayLoadContents17newTailMergeChunkEPNS0_5ChunkE
zig:_ZN3lld4coff17DelayLoadContents6createEPNS0_7DefinedE
zig:_ZN3lld4coff17DelayLoadContents9getChunksEv
zig:_ZN3lld4coff17addWrappedSymbolsERN4llvm3opt12InputArgListE
zig:_ZN3lld4coff17createManifestResEv
zig:_ZN3lld4coff17getArchiveMembersEPN4llvm6object7ArchiveE
zig:_ZN3lld4coff17makePrecompSourceEPNS0_7ObjFileE
zig:_ZN3lld4coff18DefinedImportThunkC1EN4llvm9StringRefEPNS0_17DefinedImportDataEt
zig:_ZN3lld4coff18DefinedImportThunkC2EN4llvm9StringRefEPNS0_17DefinedImportDataEt
zig:_ZN3lld4coff18applyArm64Branch26EPhl
zig:_ZN3lld4coff18getSymbolLocationsB5cxx11EPNS0_7ObjFileEj
zig:_ZN3lld4coff18parseAlternateNameEN4llvm9StringRefE
zig:_ZN3lld4coff19ImportThunkChunkARM11getBaserelsEPSt6vectorINS0_7BaserelESaIS3_EE
zig:_ZN3lld4coff19ImportThunkChunkX64C1EPNS0_7DefinedE
zig:_ZN3lld4coff19ImportThunkChunkX64C2EPNS0_7DefinedE
zig:_ZN3lld4coff19ImportThunkChunkX8611getBaserelsEPSt6vectorINS0_7BaserelESaIS3_EE
zig:_ZN3lld4coff19checkFailIfMismatchEN4llvm9StringRefEPNS0_9InputFileE
zig:_ZN3lld4coff19getFileLineCodeViewEPKNS0_12SectionChunkEj
zig:_ZN3lld4coff19parseFunctionPadMinEPN4llvm3opt3ArgENS1_4COFF12MachineTypesE
zig:_ZN3lld4coff20assignExportOrdinalsEv
zig:_ZN3lld4coff20makeTypeServerSourceEPNS0_12PDBInputFileE
zig:_ZN3lld4coff20makeUsePrecompSourceEPNS0_7ObjFileEN4llvm8codeview13PrecompRecordE
zig:_ZN3lld4coff20replaceThinLTOSuffixB5cxx11EN4llvm9StringRefE
zig:_ZN3lld4coff23makeUseTypeServerSourceEPNS0_7ObjFileEN4llvm8codeview17TypeServer2RecordE
zig:_ZN3lld4coff24createSideBySideManifestEv
zig:_ZN3lld4coff28computeCallGraphProfileOrderEv
zig:_ZN3lld4coff3ICF10isEligibleEPNS0_12SectionChunkE
zig:_ZN3lld4coff3ICF11assocEqualsEPKNS0_12SectionChunkES4_
zig:_ZN3lld4coff3ICF12findBoundaryEmm
zig:_ZN3lld4coff3ICF12forEachClassESt8functionIFvmmEE
zig:_ZN3lld4coff3ICF14equalsConstantEPKNS0_12SectionChunkES4_
zig:_ZN3lld4coff3ICF14equalsVariableEPKNS0_12SectionChunkES4_
zig:_ZN3lld4coff3ICF17forEachClassRangeEmmSt8functionIFvmmEE
zig:_ZN3lld4coff3ICF3runEN4llvm8ArrayRefIPNS0_5ChunkEEE
zig:_ZN3lld4coff3ICF9segregateEmmb
zig:_ZN3lld4coff4linkEN4llvm8ArrayRefIPKcEEbRNS1_11raw_ostreamES7_
zig:_ZN3lld4coff5doICFEN4llvm8ArrayRefIPNS0_5ChunkEEENS0_8ICFLevelE
zig:_ZN3lld4coff6Symbol11computeNameEv
zig:_ZN3lld4coff6Symbol18replaceKeepingNameEPS1_m
zig:_ZN3lld4coff6Symbol7getFileEv
zig:_ZN3lld4coff6configE
zig:_ZN3lld4coff6driverE
zig:_ZN3lld4coff6ltrim1EN4llvm9StringRefEPKc
zig:_ZN3lld4coff6symtabE
zig:_ZN3lld4coff7Baserel14getDefaultTypeEv
zig:_ZN3lld4coff7DLLFile10makeImportEPNS1_6SymbolE
zig:_ZN3lld4coff7DLLFile14getMachineTypeEv
zig:_ZN3lld4coff7DLLFile5parseEv
zig:_ZN3lld4coff7ObjFile10getSectionEj
zig:_ZN3lld4coff7ObjFile11readSectionEjPKN4llvm6object27coff_aux_section_definitionENS2_9StringRefE
zig:_ZN3lld4coff7ObjFile13createDefinedEN4llvm6object13COFFSymbolRefERSt6vectorIPKNS3_27coff_aux_section_definitionESaIS8_EERb
zig:_ZN3lld4coff7ObjFile13createRegularEN4llvm6object13COFFSymbolRefE
zig:_ZN3lld4coff7ObjFile13getDILineInfoEjj
zig:_ZN3lld4coff7ObjFile14getMachineTypeEv
zig:_ZN3lld4coff7ObjFile15createUndefinedEN4llvm6object13COFFSymbolRefE
zig:_ZN3lld4coff7ObjFile15getDebugSectionEN4llvm9StringRefE
zig:_ZN3lld4coff7ObjFile15initializeFlagsEv
zig:_ZN3lld4coff7ObjFile16initializeChunksEv
zig:_ZN3lld4coff7ObjFile17initializeSymbolsEv
zig:_ZN3lld4coff7ObjFile19getVariableLocationEN4llvm9StringRefE
zig:_ZN3lld4coff7ObjFile21handleComdatSelectionEN4llvm6object13COFFSymbolRefERNS2_4COFF10COMDATTypeERbPNS0_14DefinedRegularEPKNS3_27coff_aux_section_definitionE
zig:_ZN3lld4coff7ObjFile21includeResourceChunksEv
zig:_ZN3lld4coff7ObjFile22initializeDependenciesEv
zig:_ZN3lld4coff7ObjFile25maybeAssociateSEHForMingwEN4llvm6object13COFFSymbolRefEPKNS3_27coff_aux_section_definitionERKNS2_8DenseMapINS2_9StringRefEjNS2_12DenseMapInfoIS9_EENS2_6detail12DenseMapPairIS9_jEEEE
zig:_ZN3lld4coff7ObjFile25readAssociativeDefinitionEN4llvm6object13COFFSymbolRefEPKNS3_27coff_aux_section_definitionE
zig:_ZN3lld4coff7ObjFile25readAssociativeDefinitionEN4llvm6object13COFFSymbolRefEPKNS3_27coff_aux_section_definitionEj
zig:_ZN3lld4coff7ObjFile30recordPrevailingSymbolForMingwEN4llvm6object13COFFSymbolRefERNS2_8DenseMapINS2_9StringRefEjNS2_12DenseMapInfoIS6_EENS2_6detail12DenseMapPairIS6_jEEEE
zig:_ZN3lld4coff7ObjFile5parseEv
zig:_ZN3lld4coff7ObjFile9instancesE
zig:_ZN3lld4coff8markLiveEN4llvm8ArrayRefIPNS0_5ChunkEEE
zig:_ZN3lld4coff8optTableE
zig:_ZN3lld4coff9ArgParser15parseDirectivesEN4llvm9StringRefE
zig:_ZN3lld4coff9ArgParser5parseEN4llvm8ArrayRefIPKcEE
zig:_ZN3lld4coff9ArgParser7addLINKERN4llvm11SmallVectorIPKcLj256EEE
zig:_ZN3lld4coff9ArgParser8tokenizeEN4llvm9StringRefE
zig:_ZN3lld4coff9TpiSource11loadGHashesEv
zig:_ZN3lld4coff9TpiSource11mergeDebugTEPNS0_10TypeMergerE
zig:_ZN3lld4coff9TpiSource11remapRecordEN4llvm15MutableArrayRefIhEENS2_8ArrayRefINS2_8codeview11TiReferenceEEE
zig:_ZN3lld4coff9TpiSource12clearGHashesEv
zig:_ZN3lld4coff9TpiSource13objectSourcesE
zig:_ZN3lld4coff9TpiSource15mergeTypeRecordEN4llvm8codeview9TypeIndexENS3_8CVRecordINS3_12TypeLeafKindEEE
zig:_ZN3lld4coff9TpiSource16countPrecompObjsEv
zig:_ZN3lld4coff9TpiSource16sortDependenciesEv
zig:_ZN3lld4coff9TpiSource17dependencySourcesE
zig:_ZN3lld4coff9TpiSource18fillMapFromGHashesEPNS0_10GHashStateE
zig:_ZN3lld4coff9TpiSource19countTypeServerPDBsEv
zig:_ZN3lld4coff9TpiSource19remapTpiWithGHashesEPNS0_10GHashStateE
zig:_ZN3lld4coff9TpiSource22mergeUniqueTypeRecordsEN4llvm8ArrayRefIhEENS2_8codeview9TypeIndexE
zig:_ZN3lld4coff9TpiSource22remapTypesInTypeRecordEN4llvm15MutableArrayRefIhEE
zig:_ZN3lld4coff9TpiSource23assignGHashesFromVectorEOSt6vectorIN4llvm8codeview18GloballyHashedTypeESaIS5_EE
zig:_ZN3lld4coff9TpiSource24remapTypesInSymbolRecordEN4llvm15MutableArrayRefIhEE
zig:_ZN3lld4coff9TpiSource25fillIsItemIndexFromDebugTEv
zig:_ZN3lld4coff9TpiSource5clearEv
zig:_ZN3lld4coff9TpiSource9instancesE
zig:_ZN3lld4coff9TpiSourceC1ENS1_7TpiKindEPNS0_7ObjFileE
zig:_ZN3lld4coff9TpiSourceC2ENS1_7TpiKindEPNS0_7ObjFileE
zig:_ZN3lld4coff9TpiSourceD0Ev
zig:_ZN3lld4coff9TpiSourceD1Ev
zig:_ZN3lld4coff9TpiSourceD2Ev
zig:_ZN3lld4coff9Undefined12getWeakAliasEv
zig:_ZN3lld4coff9createPDBEPNS0_11SymbolTableEN4llvm8ArrayRefIPNS0_13OutputSectionEEENS4_IhEEPNS3_8codeview9DebugInfoE
zig:_ZN3lld4coff9printHelpEPKc
zig:_ZN3lld4errsEv
zig:_ZN3lld4outsEv
zig:_ZN3lld4wasm10DefinedTagC1EN4llvm9StringRefEjPNS0_9InputFileEPNS0_8InputTagE
zig:_ZN3lld4wasm10DefinedTagC2EN4llvm9StringRefEjPNS0_9InputFileEPNS0_8InputTagE
zig:_ZN3lld4wasm10LazySymbol15getMemberBufferEv
zig:_ZN3lld4wasm10LazySymbol5fetchEv
zig:_ZN3lld4wasm10LazySymbol7setWeakEv
zig:_ZN3lld4wasm10TagSection6addTagEPNS0_8InputTagE
zig:_ZN3lld4wasm10TagSection9writeBodyEv
zig:_ZN3lld4wasm10debugWriteEmRKN4llvm5TwineE
zig:_ZN3lld4wasm10writeBytesERN4llvm11raw_ostreamEPKcmRKNS1_5TwineE
zig:_ZN3lld4wasm11ArchiveFile5parseEv
zig:_ZN3lld4wasm11ArchiveFile9addMemberEPKN4llvm6object7Archive6SymbolE
zig:_ZN3lld4wasm11BitcodeFile5parseEv
zig:_ZN3lld4wasm11BitcodeFile7doneLTOE
zig:_ZN3lld4wasm11CodeSection16finalizeContentsEv
zig:_ZN3lld4wasm11CodeSection7writeToEPh
zig:_ZN3lld4wasm11DataSection16finalizeContentsEv
zig:_ZN3lld4wasm11DataSection7writeToEPh
zig:_ZN3lld4wasm11DefinedData5setVAEm
zig:_ZN3lld4wasm11ElemSection8addEntryEPNS0_14FunctionSymbolE
zig:_ZN3lld4wasm11ElemSection9writeBodyEv
zig:_ZN3lld4wasm11NameSection9writeBodyEv
zig:_ZN3lld4wasm11SymbolTable10insertNameEN4llvm9StringRefE
zig:_ZN3lld4wasm11SymbolTable13addDefinedTagEN4llvm9StringRefEjPNS0_9InputFileEPNS0_8InputTagE
zig:_ZN3lld4wasm11SymbolTable14addDefinedDataEN4llvm9StringRefEjPNS0_9InputFileEPNS0_10InputChunkEmm
zig:_ZN3lld4wasm11SymbolTable15addDefinedTableEN4llvm9StringRefEjPNS0_9InputFileEPNS0_10InputTableE
zig:_ZN3lld4wasm11SymbolTable16addDefinedGlobalEN4llvm9StringRefEjPNS0_9InputFileEPNS0_11InputGlobalE
zig:_ZN3lld4wasm11SymbolTable16addUndefinedDataEN4llvm9StringRefEjPNS0_9InputFileE
zig:_ZN3lld4wasm11SymbolTable17addSyntheticTableEN4llvm9StringRefEjPNS0_10InputTableE
zig:_ZN3lld4wasm11SymbolTable17addUndefinedTableEN4llvm9StringRefENS2_8OptionalIS3_EES5_jPNS0_9InputFileEPKNS2_4wasm13WasmTableTypeE
zig:_ZN3lld4wasm11SymbolTable18addDefinedFunctionEN4llvm9StringRefEjPNS0_9InputFileEPNS0_13InputFunctionE
zig:_ZN3lld4wasm11SymbolTable18addSyntheticGlobalEN4llvm9StringRefEjPNS0_11InputGlobalE
zig:_ZN3lld4wasm11SymbolTable18addUndefinedGlobalEN4llvm9StringRefENS2_8OptionalIS3_EES5_jPNS0_9InputFileEPKNS2_4wasm14WasmGlobalTypeE
zig:_ZN3lld4wasm11SymbolTable18getFunctionVariantEPNS0_6SymbolEPKN4llvm4wasm13WasmSignatureEPKNS0_9InputFileEPS3_
zig:_ZN3lld4wasm11SymbolTable19createUndefinedStubERKN4llvm4wasm13WasmSignatureE
zig:_ZN3lld4wasm11SymbolTable19handleWeakUndefinesEv
zig:_ZN3lld4wasm11SymbolTable20addCombinedLTOObjectEv
zig:_ZN3lld4wasm11SymbolTable20addSyntheticFunctionEN4llvm9StringRefEjPNS0_13InputFunctionE
zig:_ZN3lld4wasm11SymbolTable20addUndefinedFunctionEN4llvm9StringRefENS2_8OptionalIS3_EES5_jPNS0_9InputFileEPKNS2_4wasm13WasmSignatureEb
zig:_ZN3lld4wasm11SymbolTable20handleSymbolVariantsEv
zig:_ZN3lld4wasm11SymbolTable20replaceWithUndefinedEPNS0_6SymbolE
zig:_ZN3lld4wasm11SymbolTable21addOptionalDataSymbolEN4llvm9StringRefEm
zig:_ZN3lld4wasm11SymbolTable22addSyntheticDataSymbolEN4llvm9StringRefEj
zig:_ZN3lld4wasm11SymbolTable22replaceWithUnreachableEPNS0_6SymbolERKN4llvm4wasm13WasmSignatureENS4_9StringRefE
zig:_ZN3lld4wasm11SymbolTable23addOptionalGlobalSymbolEN4llvm9StringRefEPNS0_11InputGlobalE
zig:_ZN3lld4wasm11SymbolTable28resolveIndirectFunctionTableEb
zig:_ZN3lld4wasm11SymbolTable34createDefinedIndirectFunctionTableEN4llvm9StringRefE
zig:_ZN3lld4wasm11SymbolTable36createUndefinedIndirectFunctionTableEN4llvm9StringRefE
zig:_ZN3lld4wasm11SymbolTable4findEN4llvm9StringRefE
zig:_ZN3lld4wasm11SymbolTable4wrapEPNS0_6SymbolES3_S3_
zig:_ZN3lld4wasm11SymbolTable5traceEN4llvm9StringRefE
zig:_ZN3lld4wasm11SymbolTable6insertEN4llvm9StringRefEPKNS0_9InputFileE
zig:_ZN3lld4wasm11SymbolTable7addFileEPNS0_9InputFileE
zig:_ZN3lld4wasm11SymbolTable7addLazyEPNS0_11ArchiveFileEPKN4llvm6object7Archive6SymbolE
zig:_ZN3lld4wasm11SymbolTable7replaceEN4llvm9StringRefEPNS0_6SymbolE
zig:_ZN3lld4wasm11SymbolTable9addComdatEN4llvm9StringRefE
zig:_ZN3lld4wasm11TableSymbol14setTableNumberEj
zig:_ZN3lld4wasm11TableSymbol9setLimitsERKN4llvm4wasm10WasmLimitsE
zig:_ZN3lld4wasm11TypeSection10lookupTypeERKN4llvm4wasm13WasmSignatureE
zig:_ZN3lld4wasm11TypeSection12registerTypeERKN4llvm4wasm13WasmSignatureE
zig:_ZN3lld4wasm11TypeSection9writeBodyEv
zig:_ZN3lld4wasm11writeExportERN4llvm11raw_ostreamERKNS1_4wasm10WasmExportE
zig:_ZN3lld4wasm11writeImportERN4llvm11raw_ostreamERKNS1_4wasm10WasmImportE
zig:_ZN3lld4wasm11writeLimitsERN4llvm11raw_ostreamERKNS1_4wasm10WasmLimitsE
zig:_ZN3lld4wasm11writeMemArgERN4llvm11raw_ostreamEjm
zig:_ZN3lld4wasm11writeResultEv
zig:_ZN3lld4wasm12DefinedTableC1EN4llvm9StringRefEjPNS0_9InputFileEPNS0_10InputTableE
zig:_ZN3lld4wasm12DefinedTableC2EN4llvm9StringRefEjPNS0_9InputFileEPNS0_10InputTableE
zig:_ZN3lld4wasm12GlobalSymbol14setGlobalIndexEj
zig:_ZN3lld4wasm12InputSection22getTombstoneForSectionEN4llvm9StringRefE
zig:_ZN3lld4wasm12RelocSection9writeBodyEv
zig:_ZN3lld4wasm12StartSection9writeBodyEv
zig:_ZN3lld4wasm12TableSection13assignIndexesEv
zig:_ZN3lld4wasm12TableSection8addTableEPNS0_10InputTableE
zig:_ZN3lld4wasm12TableSection9writeBodyEv
zig:_ZN3lld4wasm12writeMapFileEN4llvm8ArrayRefIPNS0_13OutputSectionEEE
zig:_ZN3lld4wasm12writeSleb128ERN4llvm11raw_ostreamElRKNS1_5TwineE
zig:_ZN3lld4wasm12writeTagTypeERN4llvm11raw_ostreamERKNS1_4wasm11WasmTagTypeE
zig:_ZN3lld4wasm12writeUleb128ERN4llvm11raw_ostreamEmRKNS1_5TwineE
zig:_ZN3lld4wasm13CustomSection16finalizeContentsEv
zig:_ZN3lld4wasm13CustomSection21finalizeInputSectionsEv
zig:_ZN3lld4wasm13CustomSection7writeToEPh
zig:_ZN3lld4wasm13DefinedGlobalC1EN4llvm9StringRefEjPNS0_9InputFileEPNS0_11InputGlobalE
zig:_ZN3lld4wasm13DefinedGlobalC2EN4llvm9StringRefEjPNS0_9InputFileEPNS0_11InputGlobalE
zig:_ZN3lld4wasm13DylinkSection9writeBodyEv
zig:_ZN3lld4wasm13ExportSection9writeBodyEv
zig:_ZN3lld4wasm13GlobalSection13assignIndexesEv
zig:_ZN3lld4wasm13GlobalSection19addInternalGOTEntryEPNS0_6SymbolE
zig:_ZN3lld4wasm13GlobalSection9addGlobalEPNS0_11InputGlobalE
zig:_ZN3lld4wasm13GlobalSection9writeBodyEv
zig:_ZN3lld4wasm13ImportSection11addGOTEntryEPNS0_6SymbolE
zig:_ZN3lld4wasm13ImportSection9addImportEPNS0_6SymbolE
zig:_ZN3lld4wasm13ImportSection9writeBodyEv
zig:_ZN3lld4wasm13InputFunction13calculateSizeEv
zig:_ZN3lld4wasm13InputFunction13setTableIndexEj
zig:_ZN3lld4wasm13InputFunction16setFunctionIndexEj
zig:_ZN3lld4wasm13MemorySection9writeBodyEv
zig:_ZN3lld4wasm13OutputSection12createHeaderEm
zig:_ZN3lld4wasm13OutputSegment15addInputSegmentEPNS0_10InputChunkE
zig:_ZN3lld4wasm13OutputSegment21finalizeInputSegmentsEv
zig:_ZN3lld4wasm13defaultModuleE
zig:_ZN3lld4wasm13writeI32ConstERN4llvm11raw_ostreamEiRKNS1_5TwineE
zig:_ZN3lld4wasm13writeI64ConstERN4llvm11raw_ostreamElRKNS1_5TwineE
zig:_ZN3lld4wasm13writeInitExprERN4llvm11raw_ostreamERKNS1_4wasm12WasmInitExprE
zig:_ZN3lld4wasm13writePtrConstERN4llvm11raw_ostreamElbRKNS1_5TwineE
zig:_ZN3lld4wasm14FunctionSymbol13setTableIndexEj
zig:_ZN3lld4wasm14FunctionSymbol16setFunctionIndexEj
zig:_ZN3lld4wasm14LinkingSection11addToSymtabEPNS0_6SymbolE
zig:_ZN3lld4wasm14LinkingSection9writeBodyEv
zig:_ZN3lld4wasm14writeTableTypeERN4llvm11raw_ostreamERKNS1_4wasm13WasmTableTypeE
zig:_ZN3lld4wasm14writeValueTypeERN4llvm11raw_ostreamENS1_4wasm7ValTypeERKNS1_5TwineE
zig:_ZN3lld4wasm15BitcodeCompiler3addERNS0_11BitcodeFileE
zig:_ZN3lld4wasm15BitcodeCompiler7compileEv
zig:_ZN3lld4wasm15BitcodeCompilerC1Ev
zig:_ZN3lld4wasm15BitcodeCompilerC2Ev
zig:_ZN3lld4wasm15BitcodeCompilerD1Ev
zig:_ZN3lld4wasm15BitcodeCompilerD2Ev
zig:_ZN3lld4wasm15DefinedFunctionC1EN4llvm9StringRefEjPNS0_9InputFileEPNS0_13InputFunctionE
zig:_ZN3lld4wasm15DefinedFunctionC2EN4llvm9StringRefEjPNS0_9InputFileEPNS0_13InputFunctionE
zig:_ZN3lld4wasm15FunctionSection11addFunctionEPNS0_13InputFunctionE
zig:_ZN3lld4wasm15FunctionSection9writeBodyEv
zig:_ZN3lld4wasm15MergeInputChunk12splitStringsEN4llvm8ArrayRefIhEE
zig:_ZN3lld4wasm15MergeInputChunk15getSectionPieceEm
zig:_ZN3lld4wasm15MergeInputChunk15splitIntoPiecesEv
zig:_ZN3lld4wasm15scanRelocationsEPNS0_10InputChunkE
zig:_ZN3lld4wasm15writeGlobalTypeERN4llvm11raw_ostreamERKNS1_4wasm14WasmGlobalTypeE
zig:_ZN3lld4wasm16DataCountSection9writeBodyEv
zig:_ZN3lld4wasm16DataCountSectionC1EN4llvm8ArrayRefIPNS0_13OutputSegmentEEE
zig:_ZN3lld4wasm16DataCountSectionC2EN4llvm8ArrayRefIPNS0_13OutputSegmentEEE
zig:_ZN3lld4wasm16ProducersSection7addInfoERKN4llvm4wasm16WasmProducerInfoE
zig:_ZN3lld4wasm16ProducersSection9writeBodyEv
zig:_ZN3lld4wasm16createObjectFileEN4llvm15MemoryBufferRefENS1_9StringRefE
zig:_ZN3lld4wasm16printTraceSymbolEPNS0_6SymbolE
zig:_ZN3lld4wasm17functionTableNameE
zig:_ZN3lld4wasm20SyntheticMergedChunk16finalizeContentsEv
zig:_ZN3lld4wasm21TargetFeaturesSection9writeBodyEv
zig:_ZN3lld4wasm25printTraceSymbolUndefinedEN4llvm9StringRefEPKNS0_9InputFileE
zig:_ZN3lld4wasm3outE
zig:_ZN3lld4wasm3tarE
zig:_ZN3lld4wasm4linkEN4llvm8ArrayRefIPKcEEbRNS1_11raw_ostreamES7_
zig:_ZN3lld4wasm6Symbol11setGOTIndexEj
zig:_ZN3lld4wasm6Symbol20setOutputSymbolIndexEj
zig:_ZN3lld4wasm6Symbol8markLiveEv
zig:_ZN3lld4wasm6Symbol9setHiddenEb
zig:_ZN3lld4wasm6configE
zig:_ZN3lld4wasm6symtabE
zig:_ZN3lld4wasm7ObjFile13createDefinedERKN4llvm6object10WasmSymbolE
zig:_ZN3lld4wasm7ObjFile15createUndefinedERKN4llvm6object10WasmSymbolEb
zig:_ZN3lld4wasm7ObjFile38addLegacyIndirectFunctionTableIfNeededEj
zig:_ZN3lld4wasm7ObjFile5parseEb
zig:_ZN3lld4wasm7WasmSym10globalBaseE
zig:_ZN3lld4wasm7WasmSym10initMemoryE
zig:_ZN3lld4wasm7WasmSym10memoryBaseE
zig:_ZN3lld4wasm7WasmSym11tableBase32E
zig:_ZN3lld4wasm7WasmSym12stackPointerE
zig:_ZN3lld4wasm7WasmSym13startFunctionE
zig:_ZN3lld4wasm7WasmSym14initMemoryFlagE
zig:_ZN3lld4wasm7WasmSym15applyDataRelocsE
zig:_ZN3lld4wasm7WasmSym16definedTableBaseE
zig:_ZN3lld4wasm7WasmSym17applyGlobalRelocsE
zig:_ZN3lld4wasm7WasmSym17definedMemoryBaseE
zig:_ZN3lld4wasm7WasmSym18definedTableBase32E
zig:_ZN3lld4wasm7WasmSym21indirectFunctionTableE
zig:_ZN3lld4wasm7WasmSym7dataEndE
zig:_ZN3lld4wasm7WasmSym7initTLSE
zig:_ZN3lld4wasm7WasmSym7tlsBaseE
zig:_ZN3lld4wasm7WasmSym7tlsSizeE
zig:_ZN3lld4wasm7WasmSym8heapBaseE
zig:_ZN3lld4wasm7WasmSym8tlsAlignE
zig:_ZN3lld4wasm7WasmSym9callCtorsE
zig:_ZN3lld4wasm7WasmSym9callDtorsE
zig:_ZN3lld4wasm7WasmSym9dsoHandleE
zig:_ZN3lld4wasm7WasmSym9tableBaseE
zig:_ZN3lld4wasm7writeU8ERN4llvm11raw_ostreamEhRKNS1_5TwineE
zig:_ZN3lld4wasm8markLiveEv
zig:_ZN3lld4wasm8readFileEN4llvm9StringRefE
zig:_ZN3lld4wasm8writeSigERN4llvm11raw_ostreamERKNS1_4wasm13WasmSignatureE
zig:_ZN3lld4wasm8writeStrERN4llvm11raw_ostreamENS1_9StringRefERKNS1_5TwineE
zig:_ZN3lld4wasm8writeTagERN4llvm11raw_ostreamERKNS1_4wasm7WasmTagE
zig:_ZN3lld4wasm8writeU32ERN4llvm11raw_ostreamEjRKNS1_5TwineE
zig:_ZN3lld4wasm8writeU64ERN4llvm11raw_ostreamEmRKNS1_5TwineE
zig:_ZN3lld4wasm9TagSymbol11setTagIndexEj
zig:_ZN3lld5Timer4rootEv
zig:_ZN3lld5Timer5printEv
zig:_ZN3lld5TimerC1EN4llvm9StringRefE
zig:_ZN3lld5TimerC1EN4llvm9StringRefERS0_
zig:_ZN3lld5TimerC2EN4llvm9StringRefE
zig:_ZN3lld5TimerC2EN4llvm9StringRefERS0_
zig:_ZN3lld5quoteB5cxx11EN4llvm9StringRefE
zig:_ZN3lld5saverE
zig:_ZN3lld6bAllocE
zig:_ZN3lld7exitLldEi
zig:_ZN3lld8parseHexEN4llvm9StringRefE
zig:_ZN3lld8stderrOSE
zig:_ZN3lld8stdoutOSE
zig:_ZN3lld8toStringB5cxx11EN4llvm4wasm7ValTypeE
zig:_ZN3lld8toStringB5cxx11ENS_4wasm6Symbol4KindE
zig:_ZN3lld8toStringB5cxx11EPKNS_3elf16InputSectionBaseE
zig:_ZN3lld8toStringB5cxx11EPKNS_3elf9InputFileE
zig:_ZN3lld8toStringB5cxx11EPKNS_4coff9InputFileE
zig:_ZN3lld8toStringB5cxx11EPKNS_4wasm10InputChunkE
zig:_ZN3lld8toStringB5cxx11EPKNS_4wasm9InputFileE
zig:_ZN3lld8toStringB5cxx11ERKN4llvm3opt3ArgE
zig:_ZN3lld8toStringB5cxx11ERKN4llvm4wasm11WasmTagTypeE
zig:_ZN3lld8toStringB5cxx11ERKN4llvm4wasm13WasmSignatureE
zig:_ZN3lld8toStringB5cxx11ERKN4llvm4wasm13WasmTableTypeE
zig:_ZN3lld8toStringB5cxx11ERKN4llvm4wasm14WasmGlobalTypeE
zig:_ZN3lld8toStringB5cxx11ERKNS_3elf6SymbolE
zig:_ZN3lld8toStringB5cxx11ERKNS_4wasm13OutputSectionE
zig:_ZN3lld8toStringB5cxx11ERKNS_4wasm6SymbolE
zig:_ZN3lld8toStringB5cxx11ERNS_4coff6SymbolE
zig:_ZN3lld8toStringB5cxx11Ej
zig:_ZN3lld9freeArenaEv
zig:_ZN3lld9getCPUStrB5cxx11Ev
zig:_ZN3lld9getMAttrsB5cxx11Ev
zig:_ZN3lld9relocIs64Eh
zig:_ZN3mem4initEv
zig:_ZN3mem6deinitEv
zig:_ZN4heap10CAllocator17internal_allocateERKN3mem8TypeInfoEm
zig:_ZN4heap10CAllocator19internal_deallocateERKN3mem8TypeInfoEPvm
zig:_ZN4heap10CAllocator19internal_reallocateERKN3mem8TypeInfoEPvmm
zig:_ZN4heap10CAllocator25internal_allocate_nonzeroERKN3mem8TypeInfoEm
zig:_ZN4heap10CAllocator27internal_reallocate_nonzeroERKN3mem8TypeInfoEPvmm
zig:_ZN4heap10CAllocator4initEPKc
zig:_ZN4heap10CAllocator6deinitEv
zig:_ZN4heap10CAllocator8destructEPN3mem9AllocatorE
zig:_ZN4heap10CAllocator9constructEPN3mem9AllocatorEPKc
zig:_ZN4heap11c_allocatorE
zig:_ZN4heap14ArenaAllocator17internal_allocateERKN3mem8TypeInfoEm
zig:_ZN4heap14ArenaAllocator19internal_deallocateERKN3mem8TypeInfoEPvm
zig:_ZN4heap14ArenaAllocator19internal_reallocateERKN3mem8TypeInfoEPvmm
zig:_ZN4heap14ArenaAllocator25internal_allocate_nonzeroERKN3mem8TypeInfoEm
zig:_ZN4heap14ArenaAllocator27internal_reallocate_nonzeroERKN3mem8TypeInfoEPvmm
zig:_ZN4heap14ArenaAllocator4initEPN3mem9AllocatorEPKc
zig:_ZN4heap14ArenaAllocator6deinitEv
zig:_ZN4heap14ArenaAllocator8destructEPN3mem9AllocatorE
zig:_ZN4heap14ArenaAllocator9constructEPN3mem9AllocatorES3_PKc
zig:_ZN4heap17c_allocator_stateE
zig:_ZN4heap18BootstrapAllocator17internal_allocateERKN3mem8TypeInfoEm
zig:_ZN4heap18BootstrapAllocator19internal_deallocateERKN3mem8TypeInfoEPvm
zig:_ZN4heap18BootstrapAllocator19internal_reallocateERKN3mem8TypeInfoEPvmm
zig:_ZN4heap18BootstrapAllocator25internal_allocate_nonzeroERKN3mem8TypeInfoEm
zig:_ZN4heap18BootstrapAllocator27internal_reallocate_nonzeroERKN3mem8TypeInfoEPvmm
zig:_ZN4heap18BootstrapAllocator4initEPKc
zig:_ZN4heap18BootstrapAllocator6deinitEv
zig:_ZN4heap19bootstrap_allocatorE
zig:_ZN4heap25bootstrap_allocator_stateE
zig:_ZN7AstNode3srcEv
zig:_ZN7CodeGen6Intern13for_undefinedEv
zig:_ZN7CodeGen6Intern13for_zero_byteEv
zig:_ZN7CodeGen6Intern15for_unreachableEv
zig:_ZN7CodeGen6Intern8for_nullEv
zig:_ZN7CodeGen6Intern8for_voidEv
zig:_ZN8ZigValue4dumpEv
zig:_ZN9IrAnalyze4dumpEv
zig:_ZN9Stage1Air3srcEv
zig:_ZNK3lld13StringMatcher5matchEN4llvm9StringRefE
zig:_ZNK3lld19SingleStringMatcher5matchEN4llvm9StringRefE
zig:_ZNK3lld3elf10GotSection16getGlobalDynAddrERKNS0_6SymbolE
zig:_ZNK3lld3elf10GotSection18getGlobalDynOffsetERKNS0_6SymbolE
zig:_ZNK3lld3elf10GotSection8isNeededEv
zig:_ZNK3lld3elf10PltSection7getSizeEv
zig:_ZNK3lld3elf10PltSection8isNeededEv
zig:_ZNK3lld3elf10TargetInfo10needsThunkENS0_7RelExprEjPKNS0_9InputFileEmRKNS0_6SymbolEl
zig:_ZNK3lld3elf10TargetInfo12getImageBaseEv
zig:_ZNK3lld3elf10TargetInfo13adjustTlsExprEjNS0_7RelExprE
zig:_ZNK3lld3elf10TargetInfo13inBranchRangeEjmm
zig:_ZNK3lld3elf10TargetInfo14relaxTlsGdToIeEPhRKNS0_10RelocationEm
zig:_ZNK3lld3elf10TargetInfo14relaxTlsGdToLeEPhRKNS0_10RelocationEm
zig:_ZNK3lld3elf10TargetInfo14relaxTlsIeToLeEPhRKNS0_10RelocationEm
zig:_ZNK3lld3elf10TargetInfo14relaxTlsLdToLeEPhRKNS0_10RelocationEm
zig:_ZNK3lld3elf10TargetInfo15adjustGotPcExprEjlPKh
zig:_ZNK3lld3elf10TargetInfo17getImplicitAddendEPKhj
zig:_ZNK3lld3elf10TargetInfo19usesOnlyLowPageBitsEj
zig:_ZNK3lld3elf10TargetInfo32adjustPrologueForCrossSplitStackEPhS2_h
zig:_ZNK3lld3elf10TargetInfo8relaxGotEPhRKNS0_10RelocationEm
zig:_ZNK3lld3elf11ArchiveFile14getMemberCountEv
zig:_ZNK3lld3elf11IpltSection7getSizeEv
zig:_ZNK3lld3elf11SectionBase5getVAEm
zig:_ZNK3lld3elf11SectionBase9getOffsetEm
zig:_ZNK3lld3elf12DynamicReloc11getSymIndexEPNS0_22SymbolTableBaseSectionE
zig:_ZNK3lld3elf12DynamicReloc13computeAddendEv
zig:_ZNK3lld3elf12DynamicReloc9getOffsetEv
zig:_ZNK3lld3elf12InputSection19getRelocatedSectionEv
zig:_ZNK3lld3elf12InputSection9getParentEv
zig:_ZNK3lld3elf12LinkerScript22diagnoseOrphanHandlingEv
zig:_ZNK3lld3elf12ThunkSection21getTargetInputSectionEv
zig:_ZNK3lld3elf12ThunkSection7getSizeEv
zig:_ZNK3lld3elf13EhFrameHeader7getSizeEv
zig:_ZNK3lld3elf13EhFrameHeader8isNeededEv
zig:_ZNK3lld3elf13GotPltSection7getSizeEv
zig:_ZNK3lld3elf13GotPltSection8isNeededEv
zig:_ZNK3lld3elf13IBTPltSection7getSizeEv
zig:_ZNK3lld3elf13OutputSection12getPhdrFlagsEv
zig:_ZNK3lld3elf14EhFrameSection10getFdeDataEv
zig:_ZNK3lld3elf14EhFrameSection8getFdePcEPhmh
zig:_ZNK3lld3elf14EhInputSection9getParentEv
zig:_ZNK3lld3elf14IgotPltSection7getSizeEv
zig:_ZNK3lld3elf14MipsGotSection17getSymEntryOffsetEPKNS0_9InputFileERKNS0_6SymbolEl
zig:_ZNK3lld3elf14MipsGotSection17getTlsIndexOffsetEPKNS0_9InputFileE
zig:_ZNK3lld3elf14MipsGotSection18getGlobalDynOffsetEPKNS0_9InputFileERKNS0_6SymbolE
zig:_ZNK3lld3elf14MipsGotSection18getLocalEntriesNumEv
zig:_ZNK3lld3elf14MipsGotSection18getPageEntryOffsetEPKNS0_9InputFileERKNS0_6SymbolEl
zig:_ZNK3lld3elf14MipsGotSection19getFirstGlobalEntryEv
zig:_ZNK3lld3elf14MipsGotSection5getGpEPKNS0_9InputFileE
zig:_ZNK3lld3elf14MipsGotSection7FileGot13getEntriesNumEv
zig:_ZNK3lld3elf14MipsGotSection7FileGot17getPageEntriesNumEv
zig:_ZNK3lld3elf14MipsGotSection7FileGot20getIndexedEntriesNumEv
zig:_ZNK3lld3elf14MipsGotSection8isNeededEv
zig:_ZNK3lld3elf14SectionPattern12excludesFileEPKNS0_9InputFileE
zig:_ZNK3lld3elf15GdbIndexSection17computeSymtabSizeEv
zig:_ZNK3lld3elf15GdbIndexSection8isNeededEv
zig:_ZNK3lld3elf16InputSectionBase10uncompressEv
zig:_ZNK3lld3elf16InputSectionBase15getLinkOrderDepEv
zig:_ZNK3lld3elf16InputSectionBase15getOffsetInFileEv
zig:_ZNK3lld3elf16InputSectionBase7getSizeEv
zig:_ZNK3lld3elf16MergeTailSection7getSizeEv
zig:_ZNK3lld3elf16PPC32Got2Section8isNeededEv
zig:_ZNK3lld3elf17MergeInputSection15getParentOffsetEm
zig:_ZNK3lld3elf17MergeInputSection9getParentEv
zig:_ZNK3lld3elf17PPC32GlinkSection7getSizeEv
zig:_ZNK3lld3elf18GnuPropertySection7getSizeEv
zig:_ZNK3lld3elf18Patch657417Section13getBranchAddrEv
zig:_ZNK3lld3elf18Patch843419Section11getLDSTAddrEv
zig:_ZNK3lld3elf18SymtabShndxSection7getSizeEv
zig:_ZNK3lld3elf18SymtabShndxSection8isNeededEv
zig:_ZNK3lld3elf19VersionTableSection7getSizeEv
zig:_ZNK3lld3elf19VersionTableSection8isNeededEv
zig:_ZNK3lld3elf21PartitionIndexSection7getSizeEv
zig:_ZNK3lld3elf23InputSectionDescription11matchesFileEPKNS0_9InputFileE
zig:_ZNK3lld3elf24ARMExidxSyntheticSection15getLinkOrderDepEv
zig:_ZNK3lld3elf24ARMExidxSyntheticSection8isNeededEv
zig:_ZNK3lld3elf24VersionDefinitionSection7getSizeEv
zig:_ZNK3lld3elf28PPC64LongBranchTargetSection7getSizeEv
zig:_ZNK3lld3elf28PPC64LongBranchTargetSection8isNeededEv
zig:_ZNK3lld3elf6Symbol11getGotPltVAEv
zig:_ZNK3lld3elf6Symbol12getGotOffsetEv
zig:_ZNK3lld3elf6Symbol14computeBindingEv
zig:_ZNK3lld3elf6Symbol15getGotPltOffsetEv
zig:_ZNK3lld3elf6Symbol15includeInDynsymEv
zig:_ZNK3lld3elf6Symbol16getOutputSectionEv
zig:_ZNK3lld3elf6Symbol5fetchEv
zig:_ZNK3lld3elf6Symbol5getVAEl
zig:_ZNK3lld3elf6Symbol7compareEPKS1_
zig:_ZNK3lld3elf6Symbol7getSizeEv
zig:_ZNK3lld3elf6Symbol8getGotVAEv
zig:_ZNK3lld3elf6Symbol8getPltVAEv
zig:_ZNK3lld3elf9ExprValue10getSecAddrEv
zig:_ZNK3lld3elf9ExprValue16getSectionOffsetEv
zig:_ZNK3lld3elf9ExprValue8getValueEv
zig:_ZNK3lld3elf9InputFile16getNameForScriptEv
zig:_ZNK3lld4coff10MergeChunk24getOutputCharacteristicsEv
zig:_ZNK3lld4coff10MergeChunk7getSizeEv
zig:_ZNK3lld4coff10MergeChunk7writeToEPh
zig:_ZNK3lld4coff11CommonChunk24getOutputCharacteristicsEv
zig:_ZNK3lld4coff11StringChunk7writeToEPh
zig:_ZNK3lld4coff12AutoExporter12shouldExportEPNS0_7DefinedE
zig:_ZNK3lld4coff12BaserelChunk7writeToEPh
zig:_ZNK3lld4coff12SectionChunk11applyRelARMEPhtPNS0_13OutputSectionEmm
zig:_ZNK3lld4coff12SectionChunk11applyRelX64EPhtPNS0_13OutputSectionEmm
zig:_ZNK3lld4coff12SectionChunk11applyRelX86EPhtPNS0_13OutputSectionEmm
zig:_ZNK3lld4coff12SectionChunk11getContentsEv
zig:_ZNK3lld4coff12SectionChunk12getDebugNameEv
zig:_ZNK3lld4coff12SectionChunk13applyRelARM64EPhtPNS0_13OutputSectionEmm
zig:_ZNK3lld4coff12SectionChunk15applyRelocationEPhRKN4llvm6object15coff_relocationE
zig:_ZNK3lld4coff12SectionChunk16getSectionNumberEv
zig:_ZNK3lld4coff12SectionChunk21printDiscardedMessageEv
zig:_ZNK3lld4coff12SectionChunk26writeAndRelocateSubsectionEN4llvm8ArrayRefIhEES4_RjPh
zig:_ZNK3lld4coff12SectionChunk7writeToEPh
zig:_ZNK3lld4coff12SectionChunk8isCOMDATEv
zig:_ZNK3lld4coff13RVATableChunk7writeToEPh
zig:_ZNK3lld4coff16LocalImportChunk7getSizeEv
zig:_ZNK3lld4coff16LocalImportChunk7writeToEPh
zig:_ZNK3lld4coff17RVAFlagTableChunk7writeToEPh
zig:_ZNK3lld4coff19ImportThunkChunkARM7writeToEPh
zig:_ZNK3lld4coff19ImportThunkChunkX647writeToEPh
zig:_ZNK3lld4coff19ImportThunkChunkX867writeToEPh
zig:_ZNK3lld4coff20AbsolutePointerChunk7getSizeEv
zig:_ZNK3lld4coff20AbsolutePointerChunk7writeToEPh
zig:_ZNK3lld4coff21ImportThunkChunkARM647writeToEPh
zig:_ZNK3lld4coff21PseudoRelocTableChunk7getSizeEv
zig:_ZNK3lld4coff21PseudoRelocTableChunk7writeToEPh
zig:_ZNK3lld4coff22RangeExtensionThunkARM7getSizeEv
zig:_ZNK3lld4coff22RangeExtensionThunkARM7writeToEPh
zig:_ZNK3lld4coff24RangeExtensionThunkARM647getSizeEv
zig:_ZNK3lld4coff24RangeExtensionThunkARM647writeToEPh
zig:_ZNK3lld4coff5Chunk16getOutputSectionEv
zig:_ZNK3lld4coff6Symbol6isLiveEv
zig:_ZNK3lld4coff9TpiSource14remapTypeIndexERN4llvm8codeview9TypeIndexENS3_9TiRefKindE
zig:_ZNK3lld4wasm10InputChunk12getInputSizeEv
zig:_ZNK3lld4wasm10InputChunk12getTombstoneEv
zig:_ZNK3lld4wasm10InputChunk13getComdatNameEv
zig:_ZNK3lld4wasm10InputChunk14getChunkOffsetEm
zig:_ZNK3lld4wasm10InputChunk16writeRelocationsERN4llvm11raw_ostreamE
zig:_ZNK3lld4wasm10InputChunk22generateRelocationCodeERN4llvm11raw_ostreamE
zig:_ZNK3lld4wasm10InputChunk5getVAEm
zig:_ZNK3lld4wasm10InputChunk7getSizeEv
zig:_ZNK3lld4wasm10InputChunk7writeToEPh
zig:_ZNK3lld4wasm10InputChunk8relocateEPh
zig:_ZNK3lld4wasm10InputChunk9getOffsetEm
zig:_ZNK3lld4wasm11CodeSection16writeRelocationsERN4llvm11raw_ostreamE
zig:_ZNK3lld4wasm11CodeSection17getNumRelocationsEv
zig:_ZNK3lld4wasm11DataSection16writeRelocationsERN4llvm11raw_ostreamE
zig:_ZNK3lld4wasm11DataSection17getNumRelocationsEv
zig:_ZNK3lld4wasm11DataSection8isNeededEv
zig:_ZNK3lld4wasm11DefinedData21getOutputSegmentIndexEv
zig:_ZNK3lld4wasm11DefinedData22getOutputSegmentOffsetEv
zig:_ZNK3lld4wasm11DefinedData5getVAEv
zig:_ZNK3lld4wasm11NameSection15numNamedGlobalsEv
zig:_ZNK3lld4wasm11NameSection17numNamedFunctionsEv
zig:_ZNK3lld4wasm11NameSection20numNamedDataSegmentsEv
zig:_ZNK3lld4wasm11TableSymbol14getTableNumberEv
zig:_ZNK3lld4wasm11TableSymbol14hasTableNumberEv
zig:_ZNK3lld4wasm12GlobalSymbol14getGlobalIndexEv
zig:_ZNK3lld4wasm12GlobalSymbol14hasGlobalIndexEv
zig:_ZNK3lld4wasm12StartSection8isNeededEv
zig:_ZNK3lld4wasm13CustomSection16writeRelocationsERN4llvm11raw_ostreamE
zig:_ZNK3lld4wasm13CustomSection17getNumRelocationsEv
zig:_ZNK3lld4wasm13GlobalSection22generateRelocationCodeERN4llvm11raw_ostreamE
zig:_ZNK3lld4wasm13ImportSection13getNumImportsEv
zig:_ZNK3lld4wasm13InputFunction15writeCompressedEPh
zig:_ZNK3lld4wasm13OutputSection14getSectionNameEv
zig:_ZNK3lld4wasm13SectionSymbol22getOutputSectionSymbolEv
zig:_ZNK3lld4wasm14FunctionSymbol13getTableIndexEv
zig:_ZNK3lld4wasm14FunctionSymbol13hasTableIndexEv
zig:_ZNK3lld4wasm14FunctionSymbol16getFunctionIndexEv
zig:_ZNK3lld4wasm14FunctionSymbol16hasFunctionIndexEv
zig:_ZNK3lld4wasm15MergeInputChunk15getParentOffsetEm
zig:_ZNK3lld4wasm16DataCountSection8isNeededEv
zig:_ZNK3lld4wasm6Symbol10isExportedEv
zig:_ZNK3lld4wasm6Symbol11getWasmTypeEv
zig:_ZNK3lld4wasm6Symbol11isDiscardedEv
zig:_ZNK3lld4wasm6Symbol12getSignatureEv
zig:_ZNK3lld4wasm6Symbol18isExportedExplicitEv
zig:_ZNK3lld4wasm6Symbol20getOutputSymbolIndexEv
zig:_ZNK3lld4wasm6Symbol6isLiveEv
zig:_ZNK3lld4wasm6Symbol6isWeakEv
zig:_ZNK3lld4wasm6Symbol7isLocalEv
zig:_ZNK3lld4wasm6Symbol8getChunkEv
zig:_ZNK3lld4wasm6Symbol8isHiddenEv
zig:_ZNK3lld4wasm6Symbol9isNoStripEv
zig:_ZNK3lld4wasm7ObjFile12calcNewIndexERKN4llvm4wasm14WasmRelocationE
zig:_ZNK3lld4wasm7ObjFile12calcNewValueERKN4llvm4wasm14WasmRelocationEmPKNS0_10InputChunkE
zig:_ZNK3lld4wasm7ObjFile12getTagSymbolEj
zig:_ZNK3lld4wasm7ObjFile13calcNewAddendERKN4llvm4wasm14WasmRelocationE
zig:_ZNK3lld4wasm7ObjFile13getDataSymbolEj
zig:_ZNK3lld4wasm7ObjFile14getTableSymbolEj
zig:_ZNK3lld4wasm7ObjFile15getGlobalSymbolEj
zig:_ZNK3lld4wasm7ObjFile16getSectionSymbolEj
zig:_ZNK3lld4wasm7ObjFile17getFunctionSymbolEj
zig:_ZNK3lld4wasm7ObjFile18isExcludedByComdatEPNS0_10InputChunkE
zig:_ZNK3lld4wasm7ObjFile8dumpInfoEv
zig:_ZNK3lld4wasm9InputFile9checkArchEN4llvm6Triple8ArchTypeE
zig:_ZNK3lld4wasm9TagSymbol11getTagIndexEv
zig:_ZNK3lld4wasm9TagSymbol11hasTagIndexEv
zig:_ZNK3lld5Timer5printEidb
zig:_ZNK3lld5Timer6millisEv
zig:_ZTIN3lld3elf10GotSectionE
zig:_ZTIN3lld3elf10PltSectionE
zig:_ZTIN3lld3elf10TargetInfoE
zig:_ZTIN3lld3elf11IpltSectionE
zig:_ZTIN3lld3elf12ThunkSectionE
zig:_ZTIN3lld3elf13EhFrameHeaderE
zig:_ZTIN3lld3elf13GotPltSectionE
zig:_ZTIN3lld3elf13IBTPltSectionE
zig:_ZTIN3lld3elf14BuildIdSectionE
zig:_ZTIN3lld3elf14EhFrameSectionE
zig:_ZTIN3lld3elf14IgotPltSectionE
zig:_ZTIN3lld3elf14MipsGotSectionE
zig:_ZTIN3lld3elf15GdbIndexSectionE
zig:_ZTIN3lld3elf16HashTableSectionE
zig:_ZTIN3lld3elf16MergeTailSectionE
zig:_ZTIN3lld3elf16PPC32Got2SectionE
zig:_ZTIN3lld3elf17PPC32GlinkSectionE
zig:_ZTIN3lld3elf18GnuPropertySectionE
zig:_ZTIN3lld3elf18MergeNoTailSectionE
zig:_ZTIN3lld3elf18Patch657417SectionE
zig:_ZTIN3lld3elf18Patch843419SectionE
zig:_ZTIN3lld3elf18StringTableSectionE
zig:_ZTIN3lld3elf18SymtabShndxSectionE
zig:_ZTIN3lld3elf19GnuHashTableSectionE
zig:_ZTIN3lld3elf19VersionTableSectionE
zig:_ZTIN3lld3elf21PartitionIndexSectionE
zig:_ZTIN3lld3elf21RelocationBaseSectionE
zig:_ZTIN3lld3elf22SymbolTableBaseSectionE
zig:_ZTIN3lld3elf24ARMExidxSyntheticSectionE
zig:_ZTIN3lld3elf24VersionDefinitionSectionE
zig:_ZTIN3lld3elf28PPC64LongBranchTargetSectionE
zig:_ZTIN3lld3elf5ThunkE
zig:_ZTIN3lld4coff10ImportFileE
zig:_ZTIN3lld4coff10MergeChunkE
zig:_ZTIN3lld4coff11ArchiveFileE
zig:_ZTIN3lld4coff11BitcodeFileE
zig:_ZTIN3lld4coff11CommonChunkE
zig:_ZTIN3lld4coff11LazyObjFileE
zig:_ZTIN3lld4coff11StringChunkE
zig:_ZTIN3lld4coff12BaserelChunkE
zig:_ZTIN3lld4coff12PDBInputFileE
zig:_ZTIN3lld4coff13RVATableChunkE
zig:_ZTIN3lld4coff16LocalImportChunkE
zig:_ZTIN3lld4coff17RVAFlagTableChunkE
zig:_ZTIN3lld4coff19ImportThunkChunkARME
zig:_ZTIN3lld4coff19ImportThunkChunkX64E
zig:_ZTIN3lld4coff19ImportThunkChunkX86E
zig:_ZTIN3lld4coff20AbsolutePointerChunkE
zig:_ZTIN3lld4coff21ImportThunkChunkARM64E
zig:_ZTIN3lld4coff21PseudoRelocTableChunkE
zig:_ZTIN3lld4coff22RangeExtensionThunkARME
zig:_ZTIN3lld4coff24RangeExtensionThunkARM64E
zig:_ZTIN3lld4coff7DLLFileE
zig:_ZTIN3lld4coff7ObjFileE
zig:_ZTIN3lld4coff9TpiSourceE
zig:_ZTIN3lld4wasm10TagSectionE
zig:_ZTIN3lld4wasm11CodeSectionE
zig:_ZTIN3lld4wasm11DataSectionE
zig:_ZTIN3lld4wasm11ElemSectionE
zig:_ZTIN3lld4wasm11NameSectionE
zig:_ZTIN3lld4wasm11TypeSectionE
zig:_ZTIN3lld4wasm12RelocSectionE
zig:_ZTIN3lld4wasm12StartSectionE
zig:_ZTIN3lld4wasm12TableSectionE
zig:_ZTIN3lld4wasm13CustomSectionE
zig:_ZTIN3lld4wasm13DylinkSectionE
zig:_ZTIN3lld4wasm13ExportSectionE
zig:_ZTIN3lld4wasm13GlobalSectionE
zig:_ZTIN3lld4wasm13ImportSectionE
zig:_ZTIN3lld4wasm13MemorySectionE
zig:_ZTIN3lld4wasm14LinkingSectionE
zig:_ZTIN3lld4wasm15FunctionSectionE
zig:_ZTIN3lld4wasm16DataCountSectionE
zig:_ZTIN3lld4wasm16ProducersSectionE
zig:_ZTIN3lld4wasm21TargetFeaturesSectionE
zig:_ZTSN3lld3elf10GotSectionE
zig:_ZTSN3lld3elf10PltSectionE
zig:_ZTSN3lld3elf10TargetInfoE
zig:_ZTSN3lld3elf11IpltSectionE
zig:_ZTSN3lld3elf12ThunkSectionE
zig:_ZTSN3lld3elf13EhFrameHeaderE
zig:_ZTSN3lld3elf13GotPltSectionE
zig:_ZTSN3lld3elf13IBTPltSectionE
zig:_ZTSN3lld3elf14BuildIdSectionE
zig:_ZTSN3lld3elf14EhFrameSectionE
zig:_ZTSN3lld3elf14IgotPltSectionE
zig:_ZTSN3lld3elf14MipsGotSectionE
zig:_ZTSN3lld3elf15GdbIndexSectionE
zig:_ZTSN3lld3elf16HashTableSectionE
zig:_ZTSN3lld3elf16MergeTailSectionE
zig:_ZTSN3lld3elf16PPC32Got2SectionE
zig:_ZTSN3lld3elf17PPC32GlinkSectionE
zig:_ZTSN3lld3elf18GnuPropertySectionE
zig:_ZTSN3lld3elf18MergeNoTailSectionE
zig:_ZTSN3lld3elf18Patch657417SectionE
zig:_ZTSN3lld3elf18Patch843419SectionE
zig:_ZTSN3lld3elf18StringTableSectionE
zig:_ZTSN3lld3elf18SymtabShndxSectionE
zig:_ZTSN3lld3elf19GnuHashTableSectionE
zig:_ZTSN3lld3elf19VersionTableSectionE
zig:_ZTSN3lld3elf21PartitionIndexSectionE
zig:_ZTSN3lld3elf21RelocationBaseSectionE
zig:_ZTSN3lld3elf22SymbolTableBaseSectionE
zig:_ZTSN3lld3elf24ARMExidxSyntheticSectionE
zig:_ZTSN3lld3elf24VersionDefinitionSectionE
zig:_ZTSN3lld3elf28PPC64LongBranchTargetSectionE
zig:_ZTSN3lld3elf5ThunkE
zig:_ZTSN3lld4coff10ImportFileE
zig:_ZTSN3lld4coff10MergeChunkE
zig:_ZTSN3lld4coff11ArchiveFileE
zig:_ZTSN3lld4coff11BitcodeFileE
zig:_ZTSN3lld4coff11CommonChunkE
zig:_ZTSN3lld4coff11LazyObjFileE
zig:_ZTSN3lld4coff11StringChunkE
zig:_ZTSN3lld4coff12BaserelChunkE
zig:_ZTSN3lld4coff12PDBInputFileE
zig:_ZTSN3lld4coff13RVATableChunkE
zig:_ZTSN3lld4coff16LocalImportChunkE
zig:_ZTSN3lld4coff17RVAFlagTableChunkE
zig:_ZTSN3lld4coff19ImportThunkChunkARME
zig:_ZTSN3lld4coff19ImportThunkChunkX64E
zig:_ZTSN3lld4coff19ImportThunkChunkX86E
zig:_ZTSN3lld4coff20AbsolutePointerChunkE
zig:_ZTSN3lld4coff21ImportThunkChunkARM64E
zig:_ZTSN3lld4coff21PseudoRelocTableChunkE
zig:_ZTSN3lld4coff22RangeExtensionThunkARME
zig:_ZTSN3lld4coff24RangeExtensionThunkARM64E
zig:_ZTSN3lld4coff7DLLFileE
zig:_ZTSN3lld4coff7ObjFileE
zig:_ZTSN3lld4coff9TpiSourceE
zig:_ZTSN3lld4wasm10TagSectionE
zig:_ZTSN3lld4wasm11CodeSectionE
zig:_ZTSN3lld4wasm11DataSectionE
zig:_ZTSN3lld4wasm11ElemSectionE
zig:_ZTSN3lld4wasm11NameSectionE
zig:_ZTSN3lld4wasm11TypeSectionE
zig:_ZTSN3lld4wasm12RelocSectionE
zig:_ZTSN3lld4wasm12StartSectionE
zig:_ZTSN3lld4wasm12TableSectionE
zig:_ZTSN3lld4wasm13CustomSectionE
zig:_ZTSN3lld4wasm13DylinkSectionE
zig:_ZTSN3lld4wasm13ExportSectionE
zig:_ZTSN3lld4wasm13GlobalSectionE
zig:_ZTSN3lld4wasm13ImportSectionE
zig:_ZTSN3lld4wasm13MemorySectionE
zig:_ZTSN3lld4wasm14LinkingSectionE
zig:_ZTSN3lld4wasm15FunctionSectionE
zig:_ZTSN3lld4wasm16DataCountSectionE
zig:_ZTSN3lld4wasm16ProducersSectionE
zig:_ZTSN3lld4wasm21TargetFeaturesSectionE
zig:_ZTVN3lld3elf10GotSectionE
zig:_ZTVN3lld3elf10PltSectionE
zig:_ZTVN3lld3elf10TargetInfoE
zig:_ZTVN3lld3elf11IpltSectionE
zig:_ZTVN3lld3elf12ThunkSectionE
zig:_ZTVN3lld3elf13EhFrameHeaderE
zig:_ZTVN3lld3elf13GotPltSectionE
zig:_ZTVN3lld3elf13IBTPltSectionE
zig:_ZTVN3lld3elf14BuildIdSectionE
zig:_ZTVN3lld3elf14EhFrameSectionE
zig:_ZTVN3lld3elf14IgotPltSectionE
zig:_ZTVN3lld3elf14MipsGotSectionE
zig:_ZTVN3lld3elf15GdbIndexSectionE
zig:_ZTVN3lld3elf16HashTableSectionE
zig:_ZTVN3lld3elf16MergeTailSectionE
zig:_ZTVN3lld3elf16PPC32Got2SectionE
zig:_ZTVN3lld3elf17PPC32GlinkSectionE
zig:_ZTVN3lld3elf18GnuPropertySectionE
zig:_ZTVN3lld3elf18MergeNoTailSectionE
zig:_ZTVN3lld3elf18Patch657417SectionE
zig:_ZTVN3lld3elf18Patch843419SectionE
zig:_ZTVN3lld3elf18StringTableSectionE
zig:_ZTVN3lld3elf18SymtabShndxSectionE
zig:_ZTVN3lld3elf19GnuHashTableSectionE
zig:_ZTVN3lld3elf19VersionTableSectionE
zig:_ZTVN3lld3elf21PartitionIndexSectionE
zig:_ZTVN3lld3elf21RelocationBaseSectionE
zig:_ZTVN3lld3elf22SymbolTableBaseSectionE
zig:_ZTVN3lld3elf24ARMExidxSyntheticSectionE
zig:_ZTVN3lld3elf24VersionDefinitionSectionE
zig:_ZTVN3lld3elf28PPC64LongBranchTargetSectionE
zig:_ZTVN3lld3elf5ThunkE
zig:_ZTVN3lld4coff10ImportFileE
zig:_ZTVN3lld4coff10MergeChunkE
zig:_ZTVN3lld4coff11ArchiveFileE
zig:_ZTVN3lld4coff11BitcodeFileE
zig:_ZTVN3lld4coff11CommonChunkE
zig:_ZTVN3lld4coff11LazyObjFileE
zig:_ZTVN3lld4coff11StringChunkE
zig:_ZTVN3lld4coff12BaserelChunkE
zig:_ZTVN3lld4coff12PDBInputFileE
zig:_ZTVN3lld4coff13RVATableChunkE
zig:_ZTVN3lld4coff16LocalImportChunkE
zig:_ZTVN3lld4coff17RVAFlagTableChunkE
zig:_ZTVN3lld4coff19ImportThunkChunkARME
zig:_ZTVN3lld4coff19ImportThunkChunkX64E
zig:_ZTVN3lld4coff19ImportThunkChunkX86E
zig:_ZTVN3lld4coff20AbsolutePointerChunkE
zig:_ZTVN3lld4coff21ImportThunkChunkARM64E
zig:_ZTVN3lld4coff21PseudoRelocTableChunkE
zig:_ZTVN3lld4coff22RangeExtensionThunkARME
zig:_ZTVN3lld4coff24RangeExtensionThunkARM64E
zig:_ZTVN3lld4coff7DLLFileE
zig:_ZTVN3lld4coff7ObjFileE
zig:_ZTVN3lld4coff9TpiSourceE
zig:_ZTVN3lld4wasm10TagSectionE
zig:_ZTVN3lld4wasm11CodeSectionE
zig:_ZTVN3lld4wasm11DataSectionE
zig:_ZTVN3lld4wasm11ElemSectionE
zig:_ZTVN3lld4wasm11NameSectionE
zig:_ZTVN3lld4wasm11TypeSectionE
zig:_ZTVN3lld4wasm12RelocSectionE
zig:_ZTVN3lld4wasm12StartSectionE
zig:_ZTVN3lld4wasm12TableSectionE
zig:_ZTVN3lld4wasm13CustomSectionE
zig:_ZTVN3lld4wasm13DylinkSectionE
zig:_ZTVN3lld4wasm13ExportSectionE
zig:_ZTVN3lld4wasm13GlobalSectionE
zig:_ZTVN3lld4wasm13ImportSectionE
zig:_ZTVN3lld4wasm13MemorySectionE
zig:_ZTVN3lld4wasm14LinkingSectionE
zig:_ZTVN3lld4wasm15FunctionSectionE
zig:_ZTVN3lld4wasm16DataCountSectionE
zig:_ZTVN3lld4wasm16ProducersSectionE
zig:_ZTVN3lld4wasm21TargetFeaturesSectionE
zig:_ZTVN4heap10CAllocatorE
zig:_ZTVN4heap14ArenaAllocatorE
zig:_ZTVN4heap18BootstrapAllocatorE
zig:__cmpdf2
zig:__cmpsf2
zig:__cmptf2
zig:__data_start
zig:__eqtf2
zig:__floatscan
zig:__gnu_f2h_ieee
zig:__gnu_h2f_ieee
zig:__gttf2
zig:__lttf2
zig:__netf2
zig:_start
zig:extF80_roundingPrecision
zig:f128M_add
zig:f128M_div
zig:f128M_eq
zig:f128M_isSignalingNaN
zig:f128M_le
zig:f128M_lt
zig:f128M_mul
zig:f128M_mulAdd
zig:f128M_rem
zig:f128M_roundToInt
zig:f128M_sqrt
zig:f128M_sub
zig:f128M_to_f16
zig:f128M_to_f32
zig:f128M_to_f64
zig:f128M_to_ui64
zig:f16_add
zig:f16_div
zig:f16_eq
zig:f16_lt
zig:f16_mul
zig:f16_mulAdd
zig:f16_rem
zig:f16_roundToInt
zig:f16_sqrt
zig:f16_sub
zig:f16_to_f128M
zig:f16_to_f64
zig:f32_to_f128M
zig:f64_to_f128M
zig:f64_to_f16
zig:i32_to_f128M
zig:main
zig:native_is_big_endian
zig:parse_f128
zig:softfloat_addCarryM
zig:softfloat_addComplCarryM
zig:softfloat_addF128M
zig:softfloat_addM
zig:softfloat_addMagsF16
zig:softfloat_approxRecip32_1
zig:softfloat_approxRecipSqrt32_1
zig:softfloat_approxRecipSqrt_1k0s
zig:softfloat_approxRecipSqrt_1k1s
zig:softfloat_approxRecip_1k0s
zig:softfloat_approxRecip_1k1s
zig:softfloat_commonNaNToF128M
zig:softfloat_commonNaNToF16UI
zig:softfloat_commonNaNToF32UI
zig:softfloat_commonNaNToF64UI
zig:softfloat_compare128M
zig:softfloat_countLeadingZeros16
zig:softfloat_countLeadingZeros32
zig:softfloat_countLeadingZeros64
zig:softfloat_countLeadingZeros8
zig:softfloat_detectTininess
zig:softfloat_exceptionFlags
zig:softfloat_f128MToCommonNaN
zig:softfloat_f16UIToCommonNaN
zig:softfloat_f32UIToCommonNaN
zig:softfloat_f64UIToCommonNaN
zig:softfloat_invalidF128M
zig:softfloat_isNaNF128M
zig:softfloat_mul128MTo256M
zig:softfloat_mulAddF128M
zig:softfloat_mulAddF16
zig:softfloat_negXM
zig:softfloat_normRoundPackMToF128M
zig:softfloat_normRoundPackToF16
zig:softfloat_normSubnormalF16Sig
zig:softfloat_normSubnormalF32Sig
zig:softfloat_normSubnormalF64Sig
zig:softfloat_propagateNaNF128M
zig:softfloat_propagateNaNF16UI
zig:softfloat_raiseFlags
zig:softfloat_remStepMBy32
zig:softfloat_roundMToUI64
zig:softfloat_roundPackMToF128M
zig:softfloat_roundPackToF16
zig:softfloat_roundPackToF32
zig:softfloat_roundPackToF64
zig:softfloat_roundingMode
zig:softfloat_shiftLeftM
zig:softfloat_shiftNormSigF128M
zig:softfloat_shiftRightJam32
zig:softfloat_shiftRightJam64
zig:softfloat_shiftRightJamM
zig:softfloat_shortShiftLeftM
zig:softfloat_shortShiftRightJam64
zig:softfloat_shortShiftRightJamM
zig:softfloat_shortShiftRightM
zig:softfloat_sub1XM
zig:softfloat_subM
zig:softfloat_subMagsF16
zig:softfloat_tryPropagateNaNF128M
zig:stage2_add_link_lib
zig:stage2_attach_segfault_handler
zig:stage2_cimport
zig:stage2_fetch_file
zig:stage2_panic
zig:stage2_progress_complete_one
zig:stage2_progress_create
zig:stage2_progress_destroy
zig:stage2_progress_disable_tty
zig:stage2_progress_end
zig:stage2_progress_start
zig:stage2_progress_start_root
zig:stage2_progress_update_node
zig:stage2_version
zig:stage2_version_string
zig:ui32_to_f128M
zig:ui64_to_f128M
zig:zig_stage1_build_object
zig:zig_stage1_create
zig:zig_stage1_destroy
zig:zig_stage1_os_init
