libzinnia.so.0:_ZN6zinnia10Recognizer6createEv
libzinnia.so.0:_ZN6zinnia10init_paramEPNSt7__cxx1112basic_stringIcSt11char_traitsIcESaIcEEES6_RKS5_PKNS_6OptionE
libzinnia.so.0:_ZN6zinnia11TrainerImpl5trainEPKc
libzinnia.so.0:_ZN6zinnia12make_exampleERKNSt7__cxx1112basic_stringIcSt11char_traitsIcESaIcEEERKSt6vectorISt4pairIS5_PNS_11FeatureNodeEESaISC_EEPS8_IfSaIfEEPS8_ISB_SaISB_EE
libzinnia.so.0:_ZN6zinnia13CharacterImpl3addEmii
libzinnia.so.0:_ZN6zinnia13CharacterImpl5parseEPKcm
libzinnia.so.0:_ZN6zinnia13createTrainerEv
libzinnia.so.0:_ZN6zinnia14RecognizerImpl4openEPKc
libzinnia.so.0:_ZN6zinnia14RecognizerImpl4openEPKcm
libzinnia.so.0:_ZN6zinnia14RecognizerImpl5closeEv
libzinnia.so.0:_ZN6zinnia15createCharacterEv
libzinnia.so.0:_ZN6zinnia16createRecognizerEv
libzinnia.so.0:_ZN6zinnia17copy_feature_nodeEPKNS_11FeatureNodeEPm
libzinnia.so.0:_ZN6zinnia4Sexp10next_tokenEPPcPKcc
libzinnia.so.0:_ZN6zinnia4Sexp4dumpEPKNS0_4CellEPSo
libzinnia.so.0:_ZN6zinnia4Sexp4freeEv
libzinnia.so.0:_ZN6zinnia4Sexp4readEPPcPKc
libzinnia.so.0:_ZN6zinnia4Sexp7commentEPPcPKc
libzinnia.so.0:_ZN6zinnia4Sexp8read_carEPPcPKc
libzinnia.so.0:_ZN6zinnia4Sexp8read_cdrEPPcPKc
libzinnia.so.0:_ZN6zinnia4Sexp9read_atomEPPcPKc
libzinnia.so.0:_ZN6zinnia5Param4loadEPKc
libzinnia.so.0:_ZN6zinnia5Param4openEPKcPKNS_6OptionE
libzinnia.so.0:_ZN6zinnia5Param4openEiPPcPKNS_6OptionE
libzinnia.so.0:_ZN6zinnia5Param5clearEv
libzinnia.so.0:_ZN6zinnia7Trainer10makeHeaderEPKcS2_S2_d
libzinnia.so.0:_ZN6zinnia7Trainer6createEv
libzinnia.so.0:_ZN6zinnia7Trainer7convertEPKcS2_d
libzinnia.so.0:_ZN6zinnia7versionEv
libzinnia.so.0:_ZN6zinnia8Features10addFeatureEif
libzinnia.so.0:_ZN6zinnia8Features15makeMoveFeatureEiPKNS_4NodeES3_
libzinnia.so.0:_ZN6zinnia8Features16makeBasicFeatureEiPKNS_4NodeES3_
libzinnia.so.0:_ZN6zinnia8Features17makeVertexFeatureEiPSt6vectorINS0_8NodePairESaIS2_EE
libzinnia.so.0:_ZN6zinnia8Features4readERKNS_9CharacterE
libzinnia.so.0:_ZN6zinnia9Character6createEv
libzinnia.so.0:_ZN6zinnia9svm_trainEmmPKfPPKNS_11FeatureNodeEdPd
libzinnia.so.0:_ZNK6zinnia13CharacterImpl8toStringEPcm
libzinnia.so.0:_ZNK6zinnia14RecognizerImpl5valueEm
libzinnia.so.0:_ZNK6zinnia14RecognizerImpl8classifyERKNS_9CharacterEm
libzinnia.so.0:_ZNK6zinnia5Param11dump_configEPSo
libzinnia.so.0:_ZNK6zinnia5Param12help_versionEv
libzinnia.so.0:_ZNK6zinnia8Features9getVertexEPKNS_4NodeES3_iPSt6vectorINS0_8NodePairESaIS5_EE
libzinnia.so.0:zinnia_character_add
libzinnia.so.0:zinnia_character_clear
libzinnia.so.0:zinnia_character_destroy
libzinnia.so.0:zinnia_character_height
libzinnia.so.0:zinnia_character_new
libzinnia.so.0:zinnia_character_parse
libzinnia.so.0:zinnia_character_parse2
libzinnia.so.0:zinnia_character_set_height
libzinnia.so.0:zinnia_character_set_value
libzinnia.so.0:zinnia_character_set_value2
libzinnia.so.0:zinnia_character_set_width
libzinnia.so.0:zinnia_character_strerror
libzinnia.so.0:zinnia_character_stroke_size
libzinnia.so.0:zinnia_character_strokes_size
libzinnia.so.0:zinnia_character_to_string
libzinnia.so.0:zinnia_character_value
libzinnia.so.0:zinnia_character_width
libzinnia.so.0:zinnia_character_x
libzinnia.so.0:zinnia_character_y
libzinnia.so.0:zinnia_convert
libzinnia.so.0:zinnia_do
libzinnia.so.0:zinnia_learn
libzinnia.so.0:zinnia_recognizer_classify
libzinnia.so.0:zinnia_recognizer_close
libzinnia.so.0:zinnia_recognizer_destroy
libzinnia.so.0:zinnia_recognizer_new
libzinnia.so.0:zinnia_recognizer_open
libzinnia.so.0:zinnia_recognizer_open_from_ptr
libzinnia.so.0:zinnia_recognizer_size
libzinnia.so.0:zinnia_recognizer_strerror
libzinnia.so.0:zinnia_recognizer_value
libzinnia.so.0:zinnia_result_destroy
libzinnia.so.0:zinnia_result_score
libzinnia.so.0:zinnia_result_size
libzinnia.so.0:zinnia_result_value
libzinnia.so.0:zinnia_trainer_add
libzinnia.so.0:zinnia_trainer_clear
libzinnia.so.0:zinnia_trainer_convert_model
libzinnia.so.0:zinnia_trainer_destroy
libzinnia.so.0:zinnia_trainer_make_header
libzinnia.so.0:zinnia_trainer_new
libzinnia.so.0:zinnia_trainer_strerror
libzinnia.so.0:zinnia_trainer_train
libzinnia.so.0:zinnia_version
