UNKNOWN:PyBool_FromLong
UNKNOWN:PyCapsule_GetPointer
UNKNOWN:PyCapsule_Type
UNKNOWN:PyDict_GetItemString
UNKNOWN:PyDict_New
UNKNOWN:PyDict_Next
UNKNOWN:PyDict_SetItem
UNKNOWN:PyErr_Clear
UNKNOWN:PyErr_Format
UNKNOWN:PyErr_Occurred
UNKNOWN:PyErr_SetString
UNKNOWN:PyEval_RestoreThread
UNKNOWN:PyEval_SaveThread
UNKNOWN:PyExc_AttributeError
UNKNOWN:PyExc_ImportError
UNKNOWN:PyExc_TypeError
UNKNOWN:PyFloat_FromDouble
UNKNOWN:PyGILState_Ensure
UNKNOWN:PyGILState_Release
UNKNOWN:PyImport_ImportModule
UNKNOWN:PyIter_Next
UNKNOWN:PyList_New
UNKNOWN:PyList_SetItem
UNKNOWN:PyLong_AsLong
UNKNOWN:PyLong_FromLong
UNKNOWN:PyLong_FromLongLong
UNKNOWN:PyLong_FromUnsignedLong
UNKNOWN:PyModule_Create2
UNKNOWN:PyModule_GetDict
UNKNOWN:PyObject_CallFunctionObjArgs
UNKNOWN:PyObject_GetIter
UNKNOWN:PyType_GetFlags
UNKNOWN:PyType_IsSubtype
UNKNOWN:Py_FatalError
UNKNOWN:_Py_Dealloc
UNKNOWN:_Py_FalseStruct
UNKNOWN:_Py_NoneStruct
UNKNOWN:_Py_NotImplementedStruct
UNKNOWN:_Py_TrueStruct
libQt5Core.so.5:_Z7qstrcmpRK10QByteArrayS1_
libQt5Core.so.5:_ZN10QArrayData10deallocateEPS_mm
libQt5Core.so.5:_ZN10QArrayData11shared_nullE
libQt5Core.so.5:_ZN10QArrayData8allocateEmmm6QFlagsINS_16AllocationOptionEE
libQt5Core.so.5:_ZN10QByteArrayaSERKS_
libQt5Core.so.5:_ZN12QMapDataBase10createDataEv
libQt5Core.so.5:_ZN12QMapDataBase10createNodeEiiP12QMapNodeBaseb
libQt5Core.so.5:_ZN12QMapDataBase11shared_nullE
libQt5Core.so.5:_ZN12QMapDataBase18recalcMostLeftNodeEv
libQt5Core.so.5:_ZN12QMapDataBase8freeDataEPS_
libQt5Core.so.5:_ZN12QMapDataBase8freeTreeEP12QMapNodeBasei
libQt5Core.so.5:_ZN16QCoreApplication4selfE
libQt5Core.so.5:_ZN4QUrlC1ERKS_
libQt5Core.so.5:_ZN4QUrlC1Ev
libQt5Core.so.5:_ZN4QUrlD1Ev
libQt5Core.so.5:_ZN4QUrlaSERKS_
libQt5Core.so.5:_ZN7QObject10childEventEP11QChildEvent
libQt5Core.so.5:_ZN7QObject10timerEventEP11QTimerEvent
libQt5Core.so.5:_ZN7QObject11customEventEP6QEvent
libQt5Core.so.5:_ZN7QObject11deleteLaterEv
libQt5Core.so.5:_ZN7QObject11eventFilterEPS_P6QEvent
libQt5Core.so.5:_ZN7QObject13connectNotifyERK11QMetaMethod
libQt5Core.so.5:_ZN7QObject16disconnectNotifyERK11QMetaMethod
libQt5Core.so.5:_ZN7QObject5eventEP6QEvent
libQt5Core.so.5:_ZN7QObjectC2EPS_
libQt5Core.so.5:_ZN7QObjectD2Ev
libQt5Core.so.5:_ZN7QStringaSERKS_
libQt5Core.so.5:_ZN7QThread13currentThreadEv
libQt5Core.so.5:_ZN8QVariantC1ERKS_
libQt5Core.so.5:_ZN9QListData11detach_growEPii
libQt5Core.so.5:_ZN9QListData11shared_nullE
libQt5Core.so.5:_ZN9QListData6appendEv
libQt5Core.so.5:_ZN9QListData6detachEi
libQt5Core.so.5:_ZN9QListData7disposeEPNS_4DataE
libQt5Core.so.5:_ZNK11QObjectData17dynamicMetaObjectEv
libQt5Core.so.5:_ZNK12QMapNodeBase8nextNodeEv
libQt5Core.so.5:_ZNK7QObject6threadEv
libQt5Core.so.5:_ZltRK7QStringS1_
libQt5Core.so.5:qt_version_tag
libQt5Gui.so.5:_ZN11QPageLayoutC1ERK9QPageSizeNS_11OrientationERK9QMarginsFNS_4UnitES6_
libQt5Gui.so.5:_ZN11QPageLayoutD1Ev
libQt5Gui.so.5:_ZN9QPageSizeC1ENS_10PageSizeIdE
libQt5Gui.so.5:_ZN9QPageSizeD1Ev
libQt5Network.so.5:_ZN15QSslCertificateC1ERKS_
libQt5Network.so.5:_ZN15QSslCertificateD1Ev
libQt5WebEngine.so.5:_ZN11QtWebEngine10initializeEv
libQt5WebEngine.so.5:_ZN21QQuickWebEngineScript10setWorldIdENS_13ScriptWorldIdE
libQt5WebEngine.so.5:_ZN21QQuickWebEngineScript10timerEventEP11QTimerEvent
libQt5WebEngine.so.5:_ZN21QQuickWebEngineScript11qt_metacallEN11QMetaObject4CallEiPPv
libQt5WebEngine.so.5:_ZN21QQuickWebEngineScript11qt_metacastEPKc
libQt5WebEngine.so.5:_ZN21QQuickWebEngineScript12setSourceUrlERK4QUrl
libQt5WebEngine.so.5:_ZN21QQuickWebEngineScript13setSourceCodeERK7QString
libQt5WebEngine.so.5:_ZN21QQuickWebEngineScript16staticMetaObjectE
libQt5WebEngine.so.5:_ZN21QQuickWebEngineScript17setInjectionPointENS_14InjectionPointE
libQt5WebEngine.so.5:_ZN21QQuickWebEngineScript17setRunOnSubframesEb
libQt5WebEngine.so.5:_ZN21QQuickWebEngineScript7setNameERK7QString
libQt5WebEngine.so.5:_ZN21QQuickWebEngineScriptC1EP7QObject
libQt5WebEngine.so.5:_ZN21QQuickWebEngineScriptC2EP7QObject
libQt5WebEngine.so.5:_ZN21QQuickWebEngineScriptD2Ev
libQt5WebEngine.so.5:_ZN22QQuickWebEngineProfile11qt_metacallEN11QMetaObject4CallEiPPv
libQt5WebEngine.so.5:_ZN22QQuickWebEngineProfile11qt_metacastEPKc
libQt5WebEngine.so.5:_ZN22QQuickWebEngineProfile12setCachePathERK7QString
libQt5WebEngine.so.5:_ZN22QQuickWebEngineProfile14clearHttpCacheEv
libQt5WebEngine.so.5:_ZN22QQuickWebEngineProfile14defaultProfileEv
libQt5WebEngine.so.5:_ZN22QQuickWebEngineProfile14setStorageNameERK7QString
libQt5WebEngine.so.5:_ZN22QQuickWebEngineProfile15removeUrlSchemeERK10QByteArray
libQt5WebEngine.so.5:_ZN22QQuickWebEngineProfile15setDownloadPathERK7QString
libQt5WebEngine.so.5:_ZN22QQuickWebEngineProfile15setOffTheRecordEb
libQt5WebEngine.so.5:_ZN22QQuickWebEngineProfile16setHttpCacheTypeENS_13HttpCacheTypeE
libQt5WebEngine.so.5:_ZN22QQuickWebEngineProfile16setHttpUserAgentERK7QString
libQt5WebEngine.so.5:_ZN22QQuickWebEngineProfile16staticMetaObjectE
libQt5WebEngine.so.5:_ZN22QQuickWebEngineProfile20setSpellCheckEnabledEb
libQt5WebEngine.so.5:_ZN22QQuickWebEngineProfile21setHttpAcceptLanguageERK7QString
libQt5WebEngine.so.5:_ZN22QQuickWebEngineProfile21setRequestInterceptorEP31QWebEngineUrlRequestInterceptor
libQt5WebEngine.so.5:_ZN22QQuickWebEngineProfile22clientCertificateStoreEv
libQt5WebEngine.so.5:_ZN22QQuickWebEngineProfile22removeUrlSchemeHandlerEP26QWebEngineUrlSchemeHandler
libQt5WebEngine.so.5:_ZN22QQuickWebEngineProfile22setSpellCheckLanguagesERK11QStringList
libQt5WebEngine.so.5:_ZN22QQuickWebEngineProfile23installUrlSchemeHandlerERK10QByteArrayP26QWebEngineUrlSchemeHandler
libQt5WebEngine.so.5:_ZN22QQuickWebEngineProfile23setHttpCacheMaximumSizeEi
libQt5WebEngine.so.5:_ZN22QQuickWebEngineProfile24setPersistentStoragePathERK7QString
libQt5WebEngine.so.5:_ZN22QQuickWebEngineProfile24setUrlRequestInterceptorEP31QWebEngineUrlRequestInterceptor
libQt5WebEngine.so.5:_ZN22QQuickWebEngineProfile26removeAllUrlSchemeHandlersEv
libQt5WebEngine.so.5:_ZN22QQuickWebEngineProfile26setPersistentCookiesPolicyENS_23PersistentCookiesPolicyE
libQt5WebEngine.so.5:_ZN22QQuickWebEngineProfile38setUseForGlobalCertificateVerificationEb
libQt5WebEngine.so.5:_ZN22QQuickWebEngineProfileC1EP7QObject
libQt5WebEngine.so.5:_ZN22QQuickWebEngineProfileC2EP7QObject
libQt5WebEngine.so.5:_ZN22QQuickWebEngineProfileD2Ev
libQt5WebEngine.so.5:_ZNK21QQuickWebEngineScript10metaObjectEv
libQt5WebEngine.so.5:_ZNK21QQuickWebEngineScript10sourceCodeEv
libQt5WebEngine.so.5:_ZNK21QQuickWebEngineScript14injectionPointEv
libQt5WebEngine.so.5:_ZNK21QQuickWebEngineScript14runOnSubframesEv
libQt5WebEngine.so.5:_ZNK21QQuickWebEngineScript4nameEv
libQt5WebEngine.so.5:_ZNK21QQuickWebEngineScript7worldIdEv
libQt5WebEngine.so.5:_ZNK21QQuickWebEngineScript8toStringEv
libQt5WebEngine.so.5:_ZNK21QQuickWebEngineScript9sourceUrlEv
libQt5WebEngine.so.5:_ZNK22QQuickWebEngineProfile10metaObjectEv
libQt5WebEngine.so.5:_ZNK22QQuickWebEngineProfile11cookieStoreEv
libQt5WebEngine.so.5:_ZNK22QQuickWebEngineProfile11storageNameEv
libQt5WebEngine.so.5:_ZNK22QQuickWebEngineProfile12downloadPathEv
libQt5WebEngine.so.5:_ZNK22QQuickWebEngineProfile13httpCacheTypeEv
libQt5WebEngine.so.5:_ZNK22QQuickWebEngineProfile13httpUserAgentEv
libQt5WebEngine.so.5:_ZNK22QQuickWebEngineProfile14isOffTheRecordEv
libQt5WebEngine.so.5:_ZNK22QQuickWebEngineProfile16urlSchemeHandlerERK10QByteArray
libQt5WebEngine.so.5:_ZNK22QQuickWebEngineProfile18httpAcceptLanguageEv
libQt5WebEngine.so.5:_ZNK22QQuickWebEngineProfile19isSpellCheckEnabledEv
libQt5WebEngine.so.5:_ZNK22QQuickWebEngineProfile19spellCheckLanguagesEv
libQt5WebEngine.so.5:_ZNK22QQuickWebEngineProfile20httpCacheMaximumSizeEv
libQt5WebEngine.so.5:_ZNK22QQuickWebEngineProfile21persistentStoragePathEv
libQt5WebEngine.so.5:_ZNK22QQuickWebEngineProfile23persistentCookiesPolicyEv
libQt5WebEngine.so.5:_ZNK22QQuickWebEngineProfile38isUsedForGlobalCertificateVerificationEv
libQt5WebEngine.so.5:_ZNK22QQuickWebEngineProfile9cachePathEv
libQt5WebEngine.so.5:_ZTI21QQuickWebEngineScript
libQt5WebEngine.so.5:_ZTI22QQuickWebEngineProfile
libQt5WebEngineCore.so.5:_ZN19QWebEngineUrlScheme12schemeByNameERK10QByteArray
libQt5WebEngineCore.so.5:_ZN19QWebEngineUrlScheme14registerSchemeERKS_
libQt5WebEngineCore.so.5:_ZN19QWebEngineUrlScheme14setDefaultPortEi
libQt5WebEngineCore.so.5:_ZN19QWebEngineUrlScheme7setNameERK10QByteArray
libQt5WebEngineCore.so.5:_ZN19QWebEngineUrlScheme8setFlagsE6QFlagsINS_4FlagEE
libQt5WebEngineCore.so.5:_ZN19QWebEngineUrlScheme9setSyntaxENS_6SyntaxE
libQt5WebEngineCore.so.5:_ZN19QWebEngineUrlSchemeC1ERK10QByteArray
libQt5WebEngineCore.so.5:_ZN19QWebEngineUrlSchemeC1ERKS_
libQt5WebEngineCore.so.5:_ZN19QWebEngineUrlSchemeC1Ev
libQt5WebEngineCore.so.5:_ZN19QWebEngineUrlSchemeD1Ev
libQt5WebEngineCore.so.5:_ZN19QWebEngineUrlSchemeaSERKS_
libQt5WebEngineCore.so.5:_ZN21QWebEngineCookieStore12deleteCookieERK14QNetworkCookieRK4QUrl
libQt5WebEngineCore.so.5:_ZN21QWebEngineCookieStore14loadAllCookiesEv
libQt5WebEngineCore.so.5:_ZN21QWebEngineCookieStore15setCookieFilterEOSt8functionIFbRKNS_13FilterRequestEEE
libQt5WebEngineCore.so.5:_ZN21QWebEngineCookieStore16deleteAllCookiesEv
libQt5WebEngineCore.so.5:_ZN21QWebEngineCookieStore16staticMetaObjectE
libQt5WebEngineCore.so.5:_ZN21QWebEngineCookieStore20deleteSessionCookiesEv
libQt5WebEngineCore.so.5:_ZN21QWebEngineCookieStore9setCookieERK14QNetworkCookieRK4QUrl
libQt5WebEngineCore.so.5:_ZN21QWebEngineHttpRequest11postRequestERK4QUrlRK4QMapI7QStringS4_E
libQt5WebEngineCore.so.5:_ZN21QWebEngineHttpRequest11setPostDataERK10QByteArray
libQt5WebEngineCore.so.5:_ZN21QWebEngineHttpRequest11unsetHeaderERK10QByteArray
libQt5WebEngineCore.so.5:_ZN21QWebEngineHttpRequest6setUrlERK4QUrl
libQt5WebEngineCore.so.5:_ZN21QWebEngineHttpRequest9setHeaderERK10QByteArrayS2_
libQt5WebEngineCore.so.5:_ZN21QWebEngineHttpRequest9setMethodENS_6MethodE
libQt5WebEngineCore.so.5:_ZN21QWebEngineHttpRequestC1ERK4QUrlRKNS_6MethodE
libQt5WebEngineCore.so.5:_ZN21QWebEngineHttpRequestC1ERKS_
libQt5WebEngineCore.so.5:_ZN21QWebEngineHttpRequestD1Ev
libQt5WebEngineCore.so.5:_ZN21QWebEngineHttpRequestaSERKS_
libQt5WebEngineCore.so.5:_ZN22QWebEngineNotification16staticMetaObjectE
libQt5WebEngineCore.so.5:_ZN22QWebEngineQuotaRequest6acceptEv
libQt5WebEngineCore.so.5:_ZN22QWebEngineQuotaRequest6rejectEv
libQt5WebEngineCore.so.5:_ZN23QWebEngineUrlRequestJob16staticMetaObjectE
libQt5WebEngineCore.so.5:_ZN23QWebEngineUrlRequestJob4failENS_5ErrorE
libQt5WebEngineCore.so.5:_ZN23QWebEngineUrlRequestJob5replyERK10QByteArrayP9QIODevice
libQt5WebEngineCore.so.5:_ZN23QWebEngineUrlRequestJob8redirectERK4QUrl
libQt5WebEngineCore.so.5:_ZN24QWebEngineFindTextResultC1ERKS_
libQt5WebEngineCore.so.5:_ZN24QWebEngineFindTextResultC1Ev
libQt5WebEngineCore.so.5:_ZN24QWebEngineFindTextResultD1Ev
libQt5WebEngineCore.so.5:_ZN24QWebEngineFindTextResultaSERKS_
libQt5WebEngineCore.so.5:_ZN24QWebEngineUrlRequestInfo13setHttpHeaderERK10QByteArrayS2_
libQt5WebEngineCore.so.5:_ZN24QWebEngineUrlRequestInfo5blockEb
libQt5WebEngineCore.so.5:_ZN24QWebEngineUrlRequestInfo8redirectERK4QUrl
libQt5WebEngineCore.so.5:_ZN26QWebEngineUrlSchemeHandler11qt_metacallEN11QMetaObject4CallEiPPv
libQt5WebEngineCore.so.5:_ZN26QWebEngineUrlSchemeHandler11qt_metacastEPKc
libQt5WebEngineCore.so.5:_ZN26QWebEngineUrlSchemeHandler16staticMetaObjectE
libQt5WebEngineCore.so.5:_ZN26QWebEngineUrlSchemeHandlerC2EP7QObject
libQt5WebEngineCore.so.5:_ZN26QWebEngineUrlSchemeHandlerD2Ev
libQt5WebEngineCore.so.5:_ZN31QWebEngineUrlRequestInterceptor11qt_metacallEN11QMetaObject4CallEiPPv
libQt5WebEngineCore.so.5:_ZN31QWebEngineUrlRequestInterceptor11qt_metacastEPKc
libQt5WebEngineCore.so.5:_ZN31QWebEngineUrlRequestInterceptor16staticMetaObjectE
libQt5WebEngineCore.so.5:_ZN32QWebEngineClientCertificateStore3addERK15QSslCertificateRK7QSslKey
libQt5WebEngineCore.so.5:_ZN32QWebEngineClientCertificateStore5clearEv
libQt5WebEngineCore.so.5:_ZN32QWebEngineClientCertificateStore6removeERK15QSslCertificate
libQt5WebEngineCore.so.5:_ZN40QWebEngineRegisterProtocolHandlerRequest6acceptEv
libQt5WebEngineCore.so.5:_ZN40QWebEngineRegisterProtocolHandlerRequest6rejectEv
libQt5WebEngineCore.so.5:_ZNK19QWebEngineUrlScheme11defaultPortEv
libQt5WebEngineCore.so.5:_ZNK19QWebEngineUrlScheme4nameEv
libQt5WebEngineCore.so.5:_ZNK19QWebEngineUrlScheme5flagsEv
libQt5WebEngineCore.so.5:_ZNK19QWebEngineUrlScheme6syntaxEv
libQt5WebEngineCore.so.5:_ZNK19QWebEngineUrlSchemeeqERKS_
libQt5WebEngineCore.so.5:_ZNK21QWebEngineHttpRequest3urlEv
libQt5WebEngineCore.so.5:_ZNK21QWebEngineHttpRequest6headerERK10QByteArray
libQt5WebEngineCore.so.5:_ZNK21QWebEngineHttpRequest6methodEv
libQt5WebEngineCore.so.5:_ZNK21QWebEngineHttpRequest7headersEv
libQt5WebEngineCore.so.5:_ZNK21QWebEngineHttpRequest8postDataEv
libQt5WebEngineCore.so.5:_ZNK21QWebEngineHttpRequest9hasHeaderERK10QByteArray
libQt5WebEngineCore.so.5:_ZNK21QWebEngineHttpRequesteqERKS_
libQt5WebEngineCore.so.5:_ZNK22QWebEngineNotification3tagEv
libQt5WebEngineCore.so.5:_ZNK22QWebEngineNotification4iconEv
libQt5WebEngineCore.so.5:_ZNK22QWebEngineNotification4showEv
libQt5WebEngineCore.so.5:_ZNK22QWebEngineNotification5clickEv
libQt5WebEngineCore.so.5:_ZNK22QWebEngineNotification5closeEv
libQt5WebEngineCore.so.5:_ZNK22QWebEngineNotification5titleEv
libQt5WebEngineCore.so.5:_ZNK22QWebEngineNotification6originEv
libQt5WebEngineCore.so.5:_ZNK22QWebEngineNotification7matchesEPKS_
libQt5WebEngineCore.so.5:_ZNK22QWebEngineNotification7messageEv
libQt5WebEngineCore.so.5:_ZNK22QWebEngineNotification8languageEv
libQt5WebEngineCore.so.5:_ZNK22QWebEngineNotification9directionEv
libQt5WebEngineCore.so.5:_ZNK22QWebEngineQuotaRequest13requestedSizeEv
libQt5WebEngineCore.so.5:_ZNK22QWebEngineQuotaRequest6originEv
libQt5WebEngineCore.so.5:_ZNK23QWebEngineUrlRequestJob10requestUrlEv
libQt5WebEngineCore.so.5:_ZNK23QWebEngineUrlRequestJob13requestMethodEv
libQt5WebEngineCore.so.5:_ZNK23QWebEngineUrlRequestJob14requestHeadersEv
libQt5WebEngineCore.so.5:_ZNK23QWebEngineUrlRequestJob9initiatorEv
libQt5WebEngineCore.so.5:_ZNK24QWebEngineFindTextResult11activeMatchEv
libQt5WebEngineCore.so.5:_ZNK24QWebEngineFindTextResult15numberOfMatchesEv
libQt5WebEngineCore.so.5:_ZNK24QWebEngineUrlRequestInfo10requestUrlEv
libQt5WebEngineCore.so.5:_ZNK24QWebEngineUrlRequestInfo12resourceTypeEv
libQt5WebEngineCore.so.5:_ZNK24QWebEngineUrlRequestInfo13firstPartyUrlEv
libQt5WebEngineCore.so.5:_ZNK24QWebEngineUrlRequestInfo13requestMethodEv
libQt5WebEngineCore.so.5:_ZNK24QWebEngineUrlRequestInfo14navigationTypeEv
libQt5WebEngineCore.so.5:_ZNK24QWebEngineUrlRequestInfo9initiatorEv
libQt5WebEngineCore.so.5:_ZNK26QWebEngineUrlSchemeHandler10metaObjectEv
libQt5WebEngineCore.so.5:_ZNK31QWebEngineUrlRequestInterceptor10metaObjectEv
libQt5WebEngineCore.so.5:_ZNK32QWebEngineClientCertificateStore12certificatesEv
libQt5WebEngineCore.so.5:_ZNK40QWebEngineRegisterProtocolHandlerRequest6originEv
libQt5WebEngineCore.so.5:_ZNK40QWebEngineRegisterProtocolHandlerRequest6schemeEv
libQt5WebEngineCore.so.5:_ZTI26QWebEngineUrlSchemeHandler
libQt5WebEngineCore.so.5:_ZTI31QWebEngineUrlRequestInterceptor
libQt5WebEngineCore.so.5:_ZTV31QWebEngineUrlRequestInterceptor
libQt5WebEngineWidgets.so.5:_ZN14QWebEnginePage10printToPdfERK18QWebEngineCallbackIRK10QByteArrayERK11QPageLayout
libQt5WebEngineWidgets.so.5:_ZN14QWebEnginePage10printToPdfERK7QStringRK11QPageLayout
libQt5WebEngineWidgets.so.5:_ZN14QWebEnginePage10setContentERK10QByteArrayRK7QStringRK4QUrl
libQt5WebEngineWidgets.so.5:_ZN14QWebEnginePage10setVisibleEb
libQt5WebEngineWidgets.so.5:_ZN14QWebEnginePage11chooseFilesENS_17FileSelectionModeERK11QStringListS3_
libQt5WebEngineWidgets.so.5:_ZN14QWebEnginePage11qt_metacallEN11QMetaObject4CallEiPPv
libQt5WebEngineWidgets.so.5:_ZN14QWebEnginePage11qt_metacastEPKc
libQt5WebEngineWidgets.so.5:_ZN14QWebEnginePage12createWindowENS_13WebWindowTypeE
libQt5WebEngineWidgets.so.5:_ZN14QWebEnginePage13runJavaScriptERK7QString
libQt5WebEngineWidgets.so.5:_ZN14QWebEnginePage13runJavaScriptERK7QStringRK18QWebEngineCallbackIRK8QVariantE
libQt5WebEngineWidgets.so.5:_ZN14QWebEnginePage13runJavaScriptERK7QStringj
libQt5WebEngineWidgets.so.5:_ZN14QWebEnginePage13runJavaScriptERK7QStringjRK18QWebEngineCallbackIRK8QVariantE
libQt5WebEngineWidgets.so.5:_ZN14QWebEnginePage13setAudioMutedEb
libQt5WebEngineWidgets.so.5:_ZN14QWebEnginePage13setWebChannelEP11QWebChannel
libQt5WebEngineWidgets.so.5:_ZN14QWebEnginePage13setWebChannelEP11QWebChannelj
libQt5WebEngineWidgets.so.5:_ZN14QWebEnginePage13setZoomFactorEd
libQt5WebEngineWidgets.so.5:_ZN14QWebEnginePage13triggerActionENS_9WebActionEb
libQt5WebEngineWidgets.so.5:_ZN14QWebEnginePage15javaScriptAlertERK4QUrlRK7QString
libQt5WebEngineWidgets.so.5:_ZN14QWebEnginePage15setDevToolsPageEPS_
libQt5WebEngineWidgets.so.5:_ZN14QWebEnginePage16certificateErrorERK26QWebEngineCertificateError
libQt5WebEngineWidgets.so.5:_ZN14QWebEnginePage16javaScriptPromptERK4QUrlRK7QStringS5_PS3_
libQt5WebEngineWidgets.so.5:_ZN14QWebEnginePage16setInspectedPageEPS_
libQt5WebEngineWidgets.so.5:_ZN14QWebEnginePage16staticMetaObjectE
libQt5WebEngineWidgets.so.5:_ZN14QWebEnginePage17javaScriptConfirmERK4QUrlRK7QString
libQt5WebEngineWidgets.so.5:_ZN14QWebEnginePage17setLifecycleStateENS_14LifecycleStateE
libQt5WebEngineWidgets.so.5:_ZN14QWebEnginePage18setBackgroundColorERK6QColor
libQt5WebEngineWidgets.so.5:_ZN14QWebEnginePage20setFeaturePermissionERK4QUrlNS_7FeatureENS_16PermissionPolicyE
libQt5WebEngineWidgets.so.5:_ZN14QWebEnginePage21replaceMisspelledWordERK7QString
libQt5WebEngineWidgets.so.5:_ZN14QWebEnginePage23acceptNavigationRequestERK4QUrlNS_14NavigationTypeEb
libQt5WebEngineWidgets.so.5:_ZN14QWebEnginePage24javaScriptConsoleMessageENS_29JavaScriptConsoleMessageLevelERK7QStringiS3_
libQt5WebEngineWidgets.so.5:_ZN14QWebEnginePage24setUrlRequestInterceptorEP31QWebEngineUrlRequestInterceptor
libQt5WebEngineWidgets.so.5:_ZN14QWebEnginePage25createStandardContextMenuEv
libQt5WebEngineWidgets.so.5:_ZN14QWebEnginePage4loadERK21QWebEngineHttpRequest
libQt5WebEngineWidgets.so.5:_ZN14QWebEnginePage4loadERK4QUrl
libQt5WebEngineWidgets.so.5:_ZN14QWebEnginePage5eventEP6QEvent
libQt5WebEngineWidgets.so.5:_ZN14QWebEnginePage5printEP8QPrinterRK18QWebEngineCallbackIbE
libQt5WebEngineWidgets.so.5:_ZN14QWebEnginePage6setUrlERK4QUrl
libQt5WebEngineWidgets.so.5:_ZN14QWebEnginePage7scriptsEv
libQt5WebEngineWidgets.so.5:_ZN14QWebEnginePage7setHtmlERK7QStringRK4QUrl
libQt5WebEngineWidgets.so.5:_ZN14QWebEnginePage7setViewEP7QWidget
libQt5WebEngineWidgets.so.5:_ZN14QWebEnginePage8downloadERK4QUrlRK7QString
libQt5WebEngineWidgets.so.5:_ZN14QWebEnginePage8findTextERK7QString6QFlagsINS_8FindFlagEERK18QWebEngineCallbackIbE
libQt5WebEngineWidgets.so.5:_ZN14QWebEnginePageC1EP7QObject
libQt5WebEngineWidgets.so.5:_ZN14QWebEnginePageC2EP17QWebEngineProfileP7QObject
libQt5WebEngineWidgets.so.5:_ZN14QWebEnginePageC2EP7QObject
libQt5WebEngineWidgets.so.5:_ZN14QWebEnginePageD2Ev
libQt5WebEngineWidgets.so.5:_ZN14QWebEngineView10closeEventEP11QCloseEvent
libQt5WebEngineWidgets.so.5:_ZN14QWebEngineView10setContentERK10QByteArrayRK7QStringRK4QUrl
libQt5WebEngineWidgets.so.5:_ZN14QWebEngineView11qt_metacallEN11QMetaObject4CallEiPPv
libQt5WebEngineWidgets.so.5:_ZN14QWebEngineView11qt_metacastEPKc
libQt5WebEngineWidgets.so.5:_ZN14QWebEngineView12createWindowEN14QWebEnginePage13WebWindowTypeE
libQt5WebEngineWidgets.so.5:_ZN14QWebEngineView13dragMoveEventEP14QDragMoveEvent
libQt5WebEngineWidgets.so.5:_ZN14QWebEngineView13setZoomFactorEd
libQt5WebEngineWidgets.so.5:_ZN14QWebEngineView14dragEnterEventEP15QDragEnterEvent
libQt5WebEngineWidgets.so.5:_ZN14QWebEngineView14dragLeaveEventEP15QDragLeaveEvent
libQt5WebEngineWidgets.so.5:_ZN14QWebEngineView16contextMenuEventEP17QContextMenuEvent
libQt5WebEngineWidgets.so.5:_ZN14QWebEngineView16staticMetaObjectE
libQt5WebEngineWidgets.so.5:_ZN14QWebEngineView17triggerPageActionEN14QWebEnginePage9WebActionEb
libQt5WebEngineWidgets.so.5:_ZN14QWebEngineView4backEv
libQt5WebEngineWidgets.so.5:_ZN14QWebEngineView4loadERK21QWebEngineHttpRequest
libQt5WebEngineWidgets.so.5:_ZN14QWebEngineView4loadERK4QUrl
libQt5WebEngineWidgets.so.5:_ZN14QWebEngineView4stopEv
libQt5WebEngineWidgets.so.5:_ZN14QWebEngineView5eventEP6QEvent
libQt5WebEngineWidgets.so.5:_ZN14QWebEngineView6reloadEv
libQt5WebEngineWidgets.so.5:_ZN14QWebEngineView6setUrlERK4QUrl
libQt5WebEngineWidgets.so.5:_ZN14QWebEngineView7forwardEv
libQt5WebEngineWidgets.so.5:_ZN14QWebEngineView7setHtmlERK7QStringRK4QUrl
libQt5WebEngineWidgets.so.5:_ZN14QWebEngineView7setPageEP14QWebEnginePage
libQt5WebEngineWidgets.so.5:_ZN14QWebEngineView8findTextERK7QString6QFlagsIN14QWebEnginePage8FindFlagEERK18QWebEngineCallbackIbE
libQt5WebEngineWidgets.so.5:_ZN14QWebEngineView9dropEventEP10QDropEvent
libQt5WebEngineWidgets.so.5:_ZN14QWebEngineView9hideEventEP10QHideEvent
libQt5WebEngineWidgets.so.5:_ZN14QWebEngineView9showEventEP10QShowEvent
libQt5WebEngineWidgets.so.5:_ZN14QWebEngineViewC1EP7QWidget
libQt5WebEngineWidgets.so.5:_ZN14QWebEngineViewC2EP7QWidget
libQt5WebEngineWidgets.so.5:_ZN14QWebEngineViewD2Ev
libQt5WebEngineWidgets.so.5:_ZN16QWebEngineScript10setWorldIdEj
libQt5WebEngineWidgets.so.5:_ZN16QWebEngineScript13setSourceCodeERK7QString
libQt5WebEngineWidgets.so.5:_ZN16QWebEngineScript17setInjectionPointENS_14InjectionPointE
libQt5WebEngineWidgets.so.5:_ZN16QWebEngineScript18setRunsOnSubFramesEb
libQt5WebEngineWidgets.so.5:_ZN16QWebEngineScript7setNameERK7QString
libQt5WebEngineWidgets.so.5:_ZN16QWebEngineScriptC1ERKS_
libQt5WebEngineWidgets.so.5:_ZN16QWebEngineScriptC1Ev
libQt5WebEngineWidgets.so.5:_ZN16QWebEngineScriptD1Ev
libQt5WebEngineWidgets.so.5:_ZN16QWebEngineScriptaSERKS_
libQt5WebEngineWidgets.so.5:_ZN17QWebEngineHistory4backEv
libQt5WebEngineWidgets.so.5:_ZN17QWebEngineHistory5clearEv
libQt5WebEngineWidgets.so.5:_ZN17QWebEngineHistory7forwardEv
libQt5WebEngineWidgets.so.5:_ZN17QWebEngineHistory8goToItemERK21QWebEngineHistoryItem
libQt5WebEngineWidgets.so.5:_ZN17QWebEngineProfile11cookieStoreEv
libQt5WebEngineWidgets.so.5:_ZN17QWebEngineProfile11qt_metacallEN11QMetaObject4CallEiPPv
libQt5WebEngineWidgets.so.5:_ZN17QWebEngineProfile11qt_metacastEPKc
libQt5WebEngineWidgets.so.5:_ZN17QWebEngineProfile12setCachePathERK7QString
libQt5WebEngineWidgets.so.5:_ZN17QWebEngineProfile14clearHttpCacheEv
libQt5WebEngineWidgets.so.5:_ZN17QWebEngineProfile14defaultProfileEv
libQt5WebEngineWidgets.so.5:_ZN17QWebEngineProfile15removeUrlSchemeERK10QByteArray
libQt5WebEngineWidgets.so.5:_ZN17QWebEngineProfile15setDownloadPathERK7QString
libQt5WebEngineWidgets.so.5:_ZN17QWebEngineProfile16setHttpCacheTypeENS_13HttpCacheTypeE
libQt5WebEngineWidgets.so.5:_ZN17QWebEngineProfile16setHttpUserAgentERK7QString
libQt5WebEngineWidgets.so.5:_ZN17QWebEngineProfile16staticMetaObjectE
libQt5WebEngineWidgets.so.5:_ZN17QWebEngineProfile17clearVisitedLinksERK5QListI4QUrlE
libQt5WebEngineWidgets.so.5:_ZN17QWebEngineProfile20clearAllVisitedLinksEv
libQt5WebEngineWidgets.so.5:_ZN17QWebEngineProfile20setSpellCheckEnabledEb
libQt5WebEngineWidgets.so.5:_ZN17QWebEngineProfile21setHttpAcceptLanguageERK7QString
libQt5WebEngineWidgets.so.5:_ZN17QWebEngineProfile21setRequestInterceptorEP31QWebEngineUrlRequestInterceptor
libQt5WebEngineWidgets.so.5:_ZN17QWebEngineProfile22clientCertificateStoreEv
libQt5WebEngineWidgets.so.5:_ZN17QWebEngineProfile22removeUrlSchemeHandlerEP26QWebEngineUrlSchemeHandler
libQt5WebEngineWidgets.so.5:_ZN17QWebEngineProfile22setSpellCheckLanguagesERK11QStringList
libQt5WebEngineWidgets.so.5:_ZN17QWebEngineProfile23installUrlSchemeHandlerERK10QByteArrayP26QWebEngineUrlSchemeHandler
libQt5WebEngineWidgets.so.5:_ZN17QWebEngineProfile23setHttpCacheMaximumSizeEi
libQt5WebEngineWidgets.so.5:_ZN17QWebEngineProfile24setNotificationPresenterESt8functionIFvSt10unique_ptrI22QWebEngineNotificationSt14default_deleteIS2_EEEE
libQt5WebEngineWidgets.so.5:_ZN17QWebEngineProfile24setPersistentStoragePathERK7QString
libQt5WebEngineWidgets.so.5:_ZN17QWebEngineProfile24setUrlRequestInterceptorEP31QWebEngineUrlRequestInterceptor
libQt5WebEngineWidgets.so.5:_ZN17QWebEngineProfile26removeAllUrlSchemeHandlersEv
libQt5WebEngineWidgets.so.5:_ZN17QWebEngineProfile26setPersistentCookiesPolicyENS_23PersistentCookiesPolicyE
libQt5WebEngineWidgets.so.5:_ZN17QWebEngineProfile38setUseForGlobalCertificateVerificationEb
libQt5WebEngineWidgets.so.5:_ZN17QWebEngineProfileC1EP7QObject
libQt5WebEngineWidgets.so.5:_ZN17QWebEngineProfileC2EP7QObject
libQt5WebEngineWidgets.so.5:_ZN17QWebEngineProfileC2ERK7QStringP7QObject
libQt5WebEngineWidgets.so.5:_ZN17QWebEngineProfileD2Ev
libQt5WebEngineWidgets.so.5:_ZN18QWebEngineSettings11setFontSizeENS_8FontSizeEi
libQt5WebEngineWidgets.so.5:_ZN18QWebEngineSettings12setAttributeENS_12WebAttributeEb
libQt5WebEngineWidgets.so.5:_ZN18QWebEngineSettings13resetFontSizeENS_8FontSizeE
libQt5WebEngineWidgets.so.5:_ZN18QWebEngineSettings13setFontFamilyENS_10FontFamilyERK7QString
libQt5WebEngineWidgets.so.5:_ZN18QWebEngineSettings14globalSettingsEv
libQt5WebEngineWidgets.so.5:_ZN18QWebEngineSettings14resetAttributeENS_12WebAttributeE
libQt5WebEngineWidgets.so.5:_ZN18QWebEngineSettings15defaultSettingsEv
libQt5WebEngineWidgets.so.5:_ZN18QWebEngineSettings15resetFontFamilyENS_10FontFamilyE
libQt5WebEngineWidgets.so.5:_ZN18QWebEngineSettings22setDefaultTextEncodingERK7QString
libQt5WebEngineWidgets.so.5:_ZN18QWebEngineSettings25setUnknownUrlSchemePolicyENS_22UnknownUrlSchemePolicyE
libQt5WebEngineWidgets.so.5:_ZN18QWebEngineSettings27resetUnknownUrlSchemePolicyEv
libQt5WebEngineWidgets.so.5:_ZN21QWebEngineHistoryItemC1ERKS_
libQt5WebEngineWidgets.so.5:_ZN21QWebEngineHistoryItemD1Ev
libQt5WebEngineWidgets.so.5:_ZN21QWebEngineHistoryItemaSERKS_
libQt5WebEngineWidgets.so.5:_ZN22QWebEngineDownloadItem16staticMetaObjectE
libQt5WebEngineWidgets.so.5:_ZN22QWebEngineDownloadItem17setSavePageFormatENS_14SavePageFormatE
libQt5WebEngineWidgets.so.5:_ZN22QWebEngineDownloadItem19setDownloadFileNameERK7QString
libQt5WebEngineWidgets.so.5:_ZN22QWebEngineDownloadItem20setDownloadDirectoryERK7QString
libQt5WebEngineWidgets.so.5:_ZN22QWebEngineDownloadItem5pauseEv
libQt5WebEngineWidgets.so.5:_ZN22QWebEngineDownloadItem6acceptEv
libQt5WebEngineWidgets.so.5:_ZN22QWebEngineDownloadItem6cancelEv
libQt5WebEngineWidgets.so.5:_ZN22QWebEngineDownloadItem6resumeEv
libQt5WebEngineWidgets.so.5:_ZN22QWebEngineDownloadItem7setPathE7QString
libQt5WebEngineWidgets.so.5:_ZN25QWebEngineContextMenuDataC1ERKS_
libQt5WebEngineWidgets.so.5:_ZN25QWebEngineContextMenuDataC1Ev
libQt5WebEngineWidgets.so.5:_ZN25QWebEngineContextMenuDataD1Ev
libQt5WebEngineWidgets.so.5:_ZN25QWebEngineContextMenuDataaSERKS_
libQt5WebEngineWidgets.so.5:_ZN26QWebEngineCertificateError17rejectCertificateEv
libQt5WebEngineWidgets.so.5:_ZN26QWebEngineCertificateError22ignoreCertificateErrorEv
libQt5WebEngineWidgets.so.5:_ZN26QWebEngineCertificateError5deferEv
libQt5WebEngineWidgets.so.5:_ZN26QWebEngineCertificateErrorC1ERKS_
libQt5WebEngineWidgets.so.5:_ZN26QWebEngineCertificateErrorD1Ev
libQt5WebEngineWidgets.so.5:_ZN26QWebEngineCertificateErroraSERKS_
libQt5WebEngineWidgets.so.5:_ZN26QWebEngineScriptCollection5clearEv
libQt5WebEngineWidgets.so.5:_ZN26QWebEngineScriptCollection6insertERK16QWebEngineScript
libQt5WebEngineWidgets.so.5:_ZN26QWebEngineScriptCollection6insertERK5QListI16QWebEngineScriptE
libQt5WebEngineWidgets.so.5:_ZN26QWebEngineScriptCollection6removeERK16QWebEngineScript
libQt5WebEngineWidgets.so.5:_ZN26QWebEngineScriptCollectionD1Ev
libQt5WebEngineWidgets.so.5:_ZN27QWebEngineFullScreenRequest6acceptEv
libQt5WebEngineWidgets.so.5:_ZN27QWebEngineFullScreenRequest6rejectEv
libQt5WebEngineWidgets.so.5:_ZN36QWebEngineClientCertificateSelection10selectNoneEv
libQt5WebEngineWidgets.so.5:_ZN36QWebEngineClientCertificateSelection6selectERK15QSslCertificate
libQt5WebEngineWidgets.so.5:_ZN36QWebEngineClientCertificateSelectionC1ERKS_
libQt5WebEngineWidgets.so.5:_ZN36QWebEngineClientCertificateSelectionD1Ev
libQt5WebEngineWidgets.so.5:_ZN36QWebEngineClientCertificateSelectionaSERKS_
libQt5WebEngineWidgets.so.5:_ZNK14QWebEnginePage10metaObjectEv
libQt5WebEngineWidgets.so.5:_ZNK14QWebEnginePage10webChannelEv
libQt5WebEngineWidgets.so.5:_ZNK14QWebEnginePage10zoomFactorEv
libQt5WebEngineWidgets.so.5:_ZNK14QWebEnginePage11toPlainTextERK18QWebEngineCallbackIRK7QStringE
libQt5WebEngineWidgets.so.5:_ZNK14QWebEnginePage12contentsSizeEv
libQt5WebEngineWidgets.so.5:_ZNK14QWebEnginePage12devToolsPageEv
libQt5WebEngineWidgets.so.5:_ZNK14QWebEnginePage12hasSelectionEv
libQt5WebEngineWidgets.so.5:_ZNK14QWebEnginePage12isAudioMutedEv
libQt5WebEngineWidgets.so.5:_ZNK14QWebEnginePage12requestedUrlEv
libQt5WebEngineWidgets.so.5:_ZNK14QWebEnginePage12selectedTextEv
libQt5WebEngineWidgets.so.5:_ZNK14QWebEnginePage13inspectedPageEv
libQt5WebEngineWidgets.so.5:_ZNK14QWebEnginePage14lifecycleStateEv
libQt5WebEngineWidgets.so.5:_ZNK14QWebEnginePage14scrollPositionEv
libQt5WebEngineWidgets.so.5:_ZNK14QWebEnginePage15backgroundColorEv
libQt5WebEngineWidgets.so.5:_ZNK14QWebEnginePage15contextMenuDataEv
libQt5WebEngineWidgets.so.5:_ZNK14QWebEnginePage15recentlyAudibleEv
libQt5WebEngineWidgets.so.5:_ZNK14QWebEnginePage16recommendedStateEv
libQt5WebEngineWidgets.so.5:_ZNK14QWebEnginePage16renderProcessPidEv
libQt5WebEngineWidgets.so.5:_ZNK14QWebEnginePage3urlEv
libQt5WebEngineWidgets.so.5:_ZNK14QWebEnginePage4iconEv
libQt5WebEngineWidgets.so.5:_ZNK14QWebEnginePage4saveERK7QStringN22QWebEngineDownloadItem14SavePageFormatE
libQt5WebEngineWidgets.so.5:_ZNK14QWebEnginePage4viewEv
libQt5WebEngineWidgets.so.5:_ZNK14QWebEnginePage5titleEv
libQt5WebEngineWidgets.so.5:_ZNK14QWebEnginePage6actionENS_9WebActionE
libQt5WebEngineWidgets.so.5:_ZNK14QWebEnginePage6toHtmlERK18QWebEngineCallbackIRK7QStringE
libQt5WebEngineWidgets.so.5:_ZNK14QWebEnginePage7historyEv
libQt5WebEngineWidgets.so.5:_ZNK14QWebEnginePage7iconUrlEv
libQt5WebEngineWidgets.so.5:_ZNK14QWebEnginePage7profileEv
libQt5WebEngineWidgets.so.5:_ZNK14QWebEnginePage8settingsEv
libQt5WebEngineWidgets.so.5:_ZNK14QWebEnginePage9isVisibleEv
libQt5WebEngineWidgets.so.5:_ZNK14QWebEngineView10metaObjectEv
libQt5WebEngineWidgets.so.5:_ZNK14QWebEngineView10pageActionEN14QWebEnginePage9WebActionE
libQt5WebEngineWidgets.so.5:_ZNK14QWebEngineView10zoomFactorEv
libQt5WebEngineWidgets.so.5:_ZNK14QWebEngineView12hasSelectionEv
libQt5WebEngineWidgets.so.5:_ZNK14QWebEngineView12selectedTextEv
libQt5WebEngineWidgets.so.5:_ZNK14QWebEngineView3urlEv
libQt5WebEngineWidgets.so.5:_ZNK14QWebEngineView4iconEv
libQt5WebEngineWidgets.so.5:_ZNK14QWebEngineView4pageEv
libQt5WebEngineWidgets.so.5:_ZNK14QWebEngineView5titleEv
libQt5WebEngineWidgets.so.5:_ZNK14QWebEngineView7historyEv
libQt5WebEngineWidgets.so.5:_ZNK14QWebEngineView7iconUrlEv
libQt5WebEngineWidgets.so.5:_ZNK14QWebEngineView8settingsEv
libQt5WebEngineWidgets.so.5:_ZNK14QWebEngineView8sizeHintEv
libQt5WebEngineWidgets.so.5:_ZNK16QWebEngineScript10sourceCodeEv
libQt5WebEngineWidgets.so.5:_ZNK16QWebEngineScript14injectionPointEv
libQt5WebEngineWidgets.so.5:_ZNK16QWebEngineScript15runsOnSubFramesEv
libQt5WebEngineWidgets.so.5:_ZNK16QWebEngineScript4nameEv
libQt5WebEngineWidgets.so.5:_ZNK16QWebEngineScript6isNullEv
libQt5WebEngineWidgets.so.5:_ZNK16QWebEngineScript7worldIdEv
libQt5WebEngineWidgets.so.5:_ZNK16QWebEngineScripteqERKS_
libQt5WebEngineWidgets.so.5:_ZNK17QWebEngineHistory11currentItemEv
libQt5WebEngineWidgets.so.5:_ZNK17QWebEngineHistory11forwardItemEv
libQt5WebEngineWidgets.so.5:_ZNK17QWebEngineHistory12canGoForwardEv
libQt5WebEngineWidgets.so.5:_ZNK17QWebEngineHistory12forwardItemsEi
libQt5WebEngineWidgets.so.5:_ZNK17QWebEngineHistory16currentItemIndexEv
libQt5WebEngineWidgets.so.5:_ZNK17QWebEngineHistory5countEv
libQt5WebEngineWidgets.so.5:_ZNK17QWebEngineHistory5itemsEv
libQt5WebEngineWidgets.so.5:_ZNK17QWebEngineHistory6itemAtEi
libQt5WebEngineWidgets.so.5:_ZNK17QWebEngineHistory8backItemEv
libQt5WebEngineWidgets.so.5:_ZNK17QWebEngineHistory9backItemsEi
libQt5WebEngineWidgets.so.5:_ZNK17QWebEngineHistory9canGoBackEv
libQt5WebEngineWidgets.so.5:_ZNK17QWebEngineProfile10metaObjectEv
libQt5WebEngineWidgets.so.5:_ZNK17QWebEngineProfile11storageNameEv
libQt5WebEngineWidgets.so.5:_ZNK17QWebEngineProfile12downloadPathEv
libQt5WebEngineWidgets.so.5:_ZNK17QWebEngineProfile13httpCacheTypeEv
libQt5WebEngineWidgets.so.5:_ZNK17QWebEngineProfile13httpUserAgentEv
libQt5WebEngineWidgets.so.5:_ZNK17QWebEngineProfile14isOffTheRecordEv
libQt5WebEngineWidgets.so.5:_ZNK17QWebEngineProfile16urlSchemeHandlerERK10QByteArray
libQt5WebEngineWidgets.so.5:_ZNK17QWebEngineProfile18httpAcceptLanguageEv
libQt5WebEngineWidgets.so.5:_ZNK17QWebEngineProfile19isSpellCheckEnabledEv
libQt5WebEngineWidgets.so.5:_ZNK17QWebEngineProfile19spellCheckLanguagesEv
libQt5WebEngineWidgets.so.5:_ZNK17QWebEngineProfile20httpCacheMaximumSizeEv
libQt5WebEngineWidgets.so.5:_ZNK17QWebEngineProfile21persistentStoragePathEv
libQt5WebEngineWidgets.so.5:_ZNK17QWebEngineProfile23persistentCookiesPolicyEv
libQt5WebEngineWidgets.so.5:_ZNK17QWebEngineProfile23visitedLinksContainsUrlERK4QUrl
libQt5WebEngineWidgets.so.5:_ZNK17QWebEngineProfile38isUsedForGlobalCertificateVerificationEv
libQt5WebEngineWidgets.so.5:_ZNK17QWebEngineProfile7scriptsEv
libQt5WebEngineWidgets.so.5:_ZNK17QWebEngineProfile8settingsEv
libQt5WebEngineWidgets.so.5:_ZNK17QWebEngineProfile9cachePathEv
libQt5WebEngineWidgets.so.5:_ZNK18QWebEngineSettings10fontFamilyENS_10FontFamilyE
libQt5WebEngineWidgets.so.5:_ZNK18QWebEngineSettings13testAttributeENS_12WebAttributeE
libQt5WebEngineWidgets.so.5:_ZNK18QWebEngineSettings19defaultTextEncodingEv
libQt5WebEngineWidgets.so.5:_ZNK18QWebEngineSettings22unknownUrlSchemePolicyEv
libQt5WebEngineWidgets.so.5:_ZNK18QWebEngineSettings8fontSizeENS_8FontSizeE
libQt5WebEngineWidgets.so.5:_ZNK21QWebEngineHistoryItem11lastVisitedEv
libQt5WebEngineWidgets.so.5:_ZNK21QWebEngineHistoryItem11originalUrlEv
libQt5WebEngineWidgets.so.5:_ZNK21QWebEngineHistoryItem3urlEv
libQt5WebEngineWidgets.so.5:_ZNK21QWebEngineHistoryItem5titleEv
libQt5WebEngineWidgets.so.5:_ZNK21QWebEngineHistoryItem7iconUrlEv
libQt5WebEngineWidgets.so.5:_ZNK21QWebEngineHistoryItem7isValidEv
libQt5WebEngineWidgets.so.5:_ZNK22QWebEngineDownloadItem10isFinishedEv
libQt5WebEngineWidgets.so.5:_ZNK22QWebEngineDownloadItem10totalBytesEv
libQt5WebEngineWidgets.so.5:_ZNK22QWebEngineDownloadItem13receivedBytesEv
libQt5WebEngineWidgets.so.5:_ZNK22QWebEngineDownloadItem14savePageFormatEv
libQt5WebEngineWidgets.so.5:_ZNK22QWebEngineDownloadItem15interruptReasonEv
libQt5WebEngineWidgets.so.5:_ZNK22QWebEngineDownloadItem16downloadFileNameEv
libQt5WebEngineWidgets.so.5:_ZNK22QWebEngineDownloadItem17downloadDirectoryEv
libQt5WebEngineWidgets.so.5:_ZNK22QWebEngineDownloadItem17suggestedFileNameEv
libQt5WebEngineWidgets.so.5:_ZNK22QWebEngineDownloadItem18isSavePageDownloadEv
libQt5WebEngineWidgets.so.5:_ZNK22QWebEngineDownloadItem21interruptReasonStringEv
libQt5WebEngineWidgets.so.5:_ZNK22QWebEngineDownloadItem2idEv
libQt5WebEngineWidgets.so.5:_ZNK22QWebEngineDownloadItem3urlEv
libQt5WebEngineWidgets.so.5:_ZNK22QWebEngineDownloadItem4pageEv
libQt5WebEngineWidgets.so.5:_ZNK22QWebEngineDownloadItem4pathEv
libQt5WebEngineWidgets.so.5:_ZNK22QWebEngineDownloadItem4typeEv
libQt5WebEngineWidgets.so.5:_ZNK22QWebEngineDownloadItem5stateEv
libQt5WebEngineWidgets.so.5:_ZNK22QWebEngineDownloadItem8isPausedEv
libQt5WebEngineWidgets.so.5:_ZNK22QWebEngineDownloadItem8mimeTypeEv
libQt5WebEngineWidgets.so.5:_ZNK25QWebEngineContextMenuData10mediaFlagsEv
libQt5WebEngineWidgets.so.5:_ZNK25QWebEngineContextMenuData12selectedTextEv
libQt5WebEngineWidgets.so.5:_ZNK25QWebEngineContextMenuData14misspelledWordEv
libQt5WebEngineWidgets.so.5:_ZNK25QWebEngineContextMenuData17isContentEditableEv
libQt5WebEngineWidgets.so.5:_ZNK25QWebEngineContextMenuData23spellCheckerSuggestionsEv
libQt5WebEngineWidgets.so.5:_ZNK25QWebEngineContextMenuData7isValidEv
libQt5WebEngineWidgets.so.5:_ZNK25QWebEngineContextMenuData7linkUrlEv
libQt5WebEngineWidgets.so.5:_ZNK25QWebEngineContextMenuData8linkTextEv
libQt5WebEngineWidgets.so.5:_ZNK25QWebEngineContextMenuData8mediaUrlEv
libQt5WebEngineWidgets.so.5:_ZNK25QWebEngineContextMenuData8positionEv
libQt5WebEngineWidgets.so.5:_ZNK25QWebEngineContextMenuData9editFlagsEv
libQt5WebEngineWidgets.so.5:_ZNK25QWebEngineContextMenuData9mediaTypeEv
libQt5WebEngineWidgets.so.5:_ZNK26QWebEngineCertificateError13isOverridableEv
libQt5WebEngineWidgets.so.5:_ZNK26QWebEngineCertificateError16certificateChainEv
libQt5WebEngineWidgets.so.5:_ZNK26QWebEngineCertificateError16errorDescriptionEv
libQt5WebEngineWidgets.so.5:_ZNK26QWebEngineCertificateError3urlEv
libQt5WebEngineWidgets.so.5:_ZNK26QWebEngineCertificateError5errorEv
libQt5WebEngineWidgets.so.5:_ZNK26QWebEngineCertificateError8answeredEv
libQt5WebEngineWidgets.so.5:_ZNK26QWebEngineCertificateError8deferredEv
libQt5WebEngineWidgets.so.5:_ZNK26QWebEngineScriptCollection10findScriptERK7QString
libQt5WebEngineWidgets.so.5:_ZNK26QWebEngineScriptCollection11findScriptsERK7QString
libQt5WebEngineWidgets.so.5:_ZNK26QWebEngineScriptCollection5countEv
libQt5WebEngineWidgets.so.5:_ZNK26QWebEngineScriptCollection6toListEv
libQt5WebEngineWidgets.so.5:_ZNK26QWebEngineScriptCollection8containsERK16QWebEngineScript
libQt5WebEngineWidgets.so.5:_ZNK36QWebEngineClientCertificateSelection12certificatesEv
libQt5WebEngineWidgets.so.5:_ZNK36QWebEngineClientCertificateSelection4hostEv
libQt5WebEngineWidgets.so.5:_ZTI14QWebEnginePage
libQt5WebEngineWidgets.so.5:_ZTI14QWebEngineView
libQt5WebEngineWidgets.so.5:_ZTI17QWebEngineProfile
libQt5WebEngineWidgets.so.5:_ZlsR11QDataStreamRK17QWebEngineHistory
libQt5WebEngineWidgets.so.5:_ZrsR11QDataStreamR17QWebEngineHistory
libQt5Widgets.so.5:_ZN7QWidget10enterEventEP6QEvent
libQt5Widgets.so.5:_ZN7QWidget10leaveEventEP6QEvent
libQt5Widgets.so.5:_ZN7QWidget10paintEventEP11QPaintEvent
libQt5Widgets.so.5:_ZN7QWidget10setVisibleEb
libQt5Widgets.so.5:_ZN7QWidget10wheelEventEP11QWheelEvent
libQt5Widgets.so.5:_ZN7QWidget11actionEventEP12QActionEvent
libQt5Widgets.so.5:_ZN7QWidget11changeEventEP6QEvent
libQt5Widgets.so.5:_ZN7QWidget11nativeEventERK10QByteArrayPvPl
libQt5Widgets.so.5:_ZN7QWidget11resizeEventEP12QResizeEvent
libQt5Widgets.so.5:_ZN7QWidget11tabletEventEP12QTabletEvent
libQt5Widgets.so.5:_ZN7QWidget12focusInEventEP11QFocusEvent
libQt5Widgets.so.5:_ZN7QWidget13focusOutEventEP11QFocusEvent
libQt5Widgets.so.5:_ZN7QWidget13keyPressEventEP9QKeyEvent
libQt5Widgets.so.5:_ZN7QWidget14mouseMoveEventEP11QMouseEvent
libQt5Widgets.so.5:_ZN7QWidget15keyReleaseEventEP9QKeyEvent
libQt5Widgets.so.5:_ZN7QWidget15mousePressEventEP11QMouseEvent
libQt5Widgets.so.5:_ZN7QWidget16inputMethodEventEP17QInputMethodEvent
libQt5Widgets.so.5:_ZN7QWidget17mouseReleaseEventEP11QMouseEvent
libQt5Widgets.so.5:_ZN7QWidget18focusNextPrevChildEb
libQt5Widgets.so.5:_ZN7QWidget21mouseDoubleClickEventEP11QMouseEvent
libQt5Widgets.so.5:_ZN7QWidget9moveEventEP10QMoveEvent
libQt5Widgets.so.5:_ZNK7QWidget10redirectedEP6QPoint
libQt5Widgets.so.5:_ZNK7QWidget11initPainterEP8QPainter
libQt5Widgets.so.5:_ZNK7QWidget11paintEngineEv
libQt5Widgets.so.5:_ZNK7QWidget13sharedPainterEv
libQt5Widgets.so.5:_ZNK7QWidget14heightForWidthEi
libQt5Widgets.so.5:_ZNK7QWidget15minimumSizeHintEv
libQt5Widgets.so.5:_ZNK7QWidget16inputMethodQueryEN2Qt16InputMethodQueryE
libQt5Widgets.so.5:_ZNK7QWidget17hasHeightForWidthEv
libQt5Widgets.so.5:_ZNK7QWidget6metricEN12QPaintDevice17PaintDeviceMetricE
libQt5Widgets.so.5:_ZNK7QWidget7devTypeEv
libQt5Widgets.so.5:_ZThn16_NK7QWidget10redirectedEP6QPoint
libc.so.6:__stack_chk_fail
libc.so.6:memcpy
libc.so.6:memset
libstdc++.so.6:_ZTVN10__cxxabiv117__class_type_infoE
libstdc++.so.6:_ZTVN10__cxxabiv120__si_class_type_infoE
libstdc++.so.6:_ZTVN10__cxxabiv121__vmi_class_type_infoE
libstdc++.so.6:_ZdlPv
libstdc++.so.6:_ZdlPvm
libstdc++.so.6:_Znam
libstdc++.so.6:_Znwm
