UNKNOWN:_ZN5boost11basic_regexIcNS_12regex_traitsIcNS_16cpp_regex_traitsIcEEEEE9do_assignEPKcS7_j
UNKNOWN:_ZN5boost11basic_regexIiNS_16icu_regex_traitsEE9do_assignEPKiS4_j
UNKNOWN:_ZN5boost13match_resultsIN9__gnu_cxx17__normal_iteratorIPKcNSt7__cxx1112basic_stringIcSt11char_traitsIcESaIcEEEEESaINS_9sub_matchISB_EEEE12maybe_assignERKSF_
UNKNOWN:_ZN5boost16re_detail_10720012perl_matcherIN9__gnu_cxx17__normal_iteratorIPKcNSt7__cxx1112basic_stringIcSt11char_traitsIcESaIcEEEEESaINS_9sub_matchISC_EEENS_12regex_traitsIcNS_16cpp_regex_traitsIcEEEEE14construct_initERKNS_11basic_regexIcSJ_EENS_15regex_constants12_match_flagsE
UNKNOWN:_ZNK5boost16re_detail_10720031cpp_regex_traits_implementationIcE17transform_primaryB5cxx11EPKcS4_
UNKNOWN:_ZNK5boost16re_detail_10720031cpp_regex_traits_implementationIcE9transformB5cxx11EPKcS4_
UNKNOWN:_ZTIN5boost11regex_errorE
UNKNOWN:_ZTIN5boost15program_options22error_with_option_nameE
UNKNOWN:_ZTIN5boost15program_options29value_semantic_codecvt_helperIcEE
UNKNOWN:_ZTIN5boost6detail16thread_data_baseE
UNKNOWN:_ZTIN6TagLib4FLAC4FileE
UNKNOWN:_ZTIN6TagLib4FileE
UNKNOWN:_ZTIN6TagLib4MPEG4FileE
UNKNOWN:_ZTIN6TagLib5ID3v223TextIdentificationFrameE
UNKNOWN:_ZTIN6TagLib5ID3v25FrameE
UNKNOWN:_ZTIN6TagLib6Vorbis4FileE
UNKNOWN:_ZTVN5boost15program_options13variables_mapE
UNKNOWN:_ZTVN5boost15program_options22error_with_option_nameE
UNKNOWN:_ZTVN5boost6detail16thread_data_baseE
UNKNOWN:_ZTVN6icu_699ErrorCodeE
libboost_filesystem.so.1.72.0:_ZN5boost10filesystem6detail13dir_itr_closeERPvS3_
libboost_filesystem.so.1.72.0:_ZN5boost10filesystem6detail15last_write_timeERKNS0_4pathEPNS_6system10error_codeE
libboost_filesystem.so.1.72.0:_ZN5boost10filesystem6detail16create_directoryERKNS0_4pathEPNS_6system10error_codeE
libboost_filesystem.so.1.72.0:_ZN5boost10filesystem6detail18create_directoriesERKNS0_4pathEPNS_6system10error_codeE
libboost_filesystem.so.1.72.0:_ZN5boost10filesystem6detail28directory_iterator_constructERNS0_18directory_iteratorERKNS0_4pathEjPNS_6system10error_codeE
libboost_filesystem.so.1.72.0:_ZN5boost10filesystem6detail28directory_iterator_incrementERNS0_18directory_iteratorEPNS_6system10error_codeE
libboost_filesystem.so.1.72.0:_ZN5boost10filesystem6detail6removeERKNS0_4pathEPNS_6system10error_codeE
libboost_filesystem.so.1.72.0:_ZN5boost10filesystem6detail6renameERKNS0_4pathES4_PNS_6system10error_codeE
libboost_filesystem.so.1.72.0:_ZN5boost10filesystem6detail6statusERKNS0_4pathEPNS_6system10error_codeE
libboost_filesystem.so.1.72.0:_ZNK5boost10filesystem15directory_entry10get_statusEPNS_6system10error_codeE
libboost_filesystem.so.1.72.0:_ZNK5boost10filesystem4path8filenameEv
libboost_filesystem.so.1.72.0:_ZNK5boost10filesystem4path9extensionEv
libboost_locale.so.1.72.0:_ZN5boost6locale4conv8from_utfIcEENSt7__cxx1112basic_stringIcSt11char_traitsIcESaIcEEEPKT_SB_RKS8_NS1_11method_typeE
libboost_locale.so.1.72.0:_ZN5boost6locale4info2idE
libboost_locale.so.1.72.0:_ZN5boost6locale9converterIcE2idE
libboost_locale.so.1.72.0:_ZN5boost6locale9generatorC1Ev
libboost_locale.so.1.72.0:_ZN5boost6locale9generatorD1Ev
libboost_locale.so.1.72.0:_ZNK5boost6locale9generator8generateERKNSt7__cxx1112basic_stringIcSt11char_traitsIcESaIcEEE
libboost_program_options.so.1.72.0:_ZN5boost15program_options10validators22check_first_occurrenceERKNS_3anyE
libboost_program_options.so.1.72.0:_ZN5boost15program_options11to_internalERKNSt7__cxx1112basic_stringIcSt11char_traitsIcESaIcEEE
libboost_program_options.so.1.72.0:_ZN5boost15program_options13variables_mapC1Ev
libboost_program_options.so.1.72.0:_ZN5boost15program_options16validation_error12get_templateB5cxx11ENS1_6kind_tE
libboost_program_options.so.1.72.0:_ZN5boost15program_options19options_description11add_optionsEv
libboost_program_options.so.1.72.0:_ZN5boost15program_options19options_description21m_default_line_lengthE
libboost_program_options.so.1.72.0:_ZN5boost15program_options19options_descriptionC1ERKNSt7__cxx1112basic_stringIcSt11char_traitsIcESaIcEEEjj
libboost_program_options.so.1.72.0:_ZN5boost15program_options20invalid_option_valueC1ERKNSt7__cxx1112basic_stringIcSt11char_traitsIcESaIcEEE
libboost_program_options.so.1.72.0:_ZN5boost15program_options22error_with_option_nameC2ERKNSt7__cxx1112basic_stringIcSt11char_traitsIcESaIcEEES9_S9_i
libboost_program_options.so.1.72.0:_ZN5boost15program_options29options_description_easy_initclEPKcPKNS0_14value_semanticES3_
libboost_program_options.so.1.72.0:_ZN5boost15program_options29options_description_easy_initclEPKcS3_
libboost_program_options.so.1.72.0:_ZN5boost15program_options3argB5cxx11E
libboost_program_options.so.1.72.0:_ZN5boost15program_options5storeERKNS0_20basic_parsed_optionsIcEERNS0_13variables_mapEb
libboost_program_options.so.1.72.0:_ZN5boost15program_options6detail7cmdline21set_additional_parserENS_9function1ISt4pairINSt7__cxx1112basic_stringIcSt11char_traitsIcESaIcEEESA_ERKSA_EE
libboost_program_options.so.1.72.0:_ZN5boost15program_options6detail7cmdline23set_options_descriptionERKNS0_19options_descriptionE
libboost_program_options.so.1.72.0:_ZN5boost15program_options6detail7cmdline27get_canonical_option_prefixEv
libboost_program_options.so.1.72.0:_ZN5boost15program_options6detail7cmdline3runEv
libboost_program_options.so.1.72.0:_ZN5boost15program_options6detail7cmdline5styleEi
libboost_program_options.so.1.72.0:_ZN5boost15program_options6detail7cmdlineC2ERKSt6vectorINSt7__cxx1112basic_stringIcSt11char_traitsIcESaIcEEESaIS9_EE
libboost_program_options.so.1.72.0:_ZN5boost15program_options6notifyERNS0_13variables_mapE
libboost_program_options.so.1.72.0:_ZN5boost15program_options8validateERNS_3anyERKSt6vectorINSt7__cxx1112basic_stringIcSt11char_traitsIcESaIcEEESaIS9_EEPS9_i
libboost_program_options.so.1.72.0:_ZN5boost15program_optionslsERSoRKNS0_19options_descriptionE
libboost_program_options.so.1.72.0:_ZNK5boost15program_options22abstract_variables_mapixERKNSt7__cxx1112basic_stringIcSt11char_traitsIcESaIcEEE
libboost_program_options.so.1.72.0:_ZNK5boost15program_options22error_with_option_name23substitute_placeholdersERKNSt7__cxx1112basic_stringIcSt11char_traitsIcESaIcEEE
libboost_program_options.so.1.72.0:_ZNK5boost15program_options22error_with_option_name4whatEv
libboost_program_options.so.1.72.0:_ZNK5boost15program_options29value_semantic_codecvt_helperIcE5parseERNS_3anyERKSt6vectorINSt7__cxx1112basic_stringIcSt11char_traitsIcESaIcEEESaISB_EEb
libboost_regex.so.1.72.0:_ZN5boost16re_detail_10720013get_mem_blockEv
libboost_regex.so.1.72.0:_ZN5boost16re_detail_10720013put_mem_blockEPv
libboost_regex.so.1.72.0:_ZN5boost16re_detail_10720014verify_optionsEjNS_15regex_constants12_match_flagsE
libboost_regex.so.1.72.0:_ZN5boost16re_detail_10720019raise_runtime_errorERKSt13runtime_error
libboost_regex.so.1.72.0:_ZN5boost16re_detail_10720024get_default_error_stringENS_15regex_constants10error_typeE
libboost_regex.so.1.72.0:_ZN5boost16re_detail_10720027is_combining_implementationEt
libboost_regex.so.1.72.0:_ZNK5boost16icu_regex_traits7isctypeEim
libboost_regex.so.1.72.0:_ZNK5boost16re_detail_10720031icu_regex_traits_implementation12do_transformEPKiS3_PKN6icu_698CollatorE
libboost_thread.so.1.72.0:_ZN5boost11this_thread18interruption_pointEv
libboost_thread.so.1.72.0:_ZN5boost15future_categoryEv
libboost_thread.so.1.72.0:_ZN5boost6detail16thread_data_baseD2Ev
libboost_thread.so.1.72.0:_ZN5boost6detail23get_current_thread_dataEv
libboost_thread.so.1.72.0:_ZN5boost6detail25make_ready_at_thread_exitENS_10shared_ptrINS0_17shared_state_baseEEE
libboost_thread.so.1.72.0:_ZN5boost6thread21start_thread_noexceptEv
libboost_thread.so.1.72.0:_ZN5boost6thread6detachEv
libc.so.6:__assert_fail
libc.so.6:__ctype_get_mb_cur_max
libc.so.6:__cxa_atexit
libc.so.6:__fdelt_chk
libc.so.6:__libc_start_main
libc.so.6:__printf_chk
libc.so.6:__stack_chk_fail
libc.so.6:bind
libc.so.6:exit
libc.so.6:fcntl
libc.so.6:fflush
libc.so.6:free
libc.so.6:freeaddrinfo
libc.so.6:gai_strerror
libc.so.6:getaddrinfo
libc.so.6:getenv
libc.so.6:gettimeofday
libc.so.6:isalnum
libc.so.6:isalpha
libc.so.6:isspace
libc.so.6:iswalpha
libc.so.6:iswspace
libc.so.6:localtime_r
libc.so.6:mbrtowc
libc.so.6:mbtowc
libc.so.6:memcmp
libc.so.6:memcpy
libc.so.6:memmove
libc.so.6:memset
libc.so.6:nl_langinfo
libc.so.6:pthread_cond_destroy
libc.so.6:pthread_cond_init
libc.so.6:pthread_condattr_destroy
libc.so.6:pthread_condattr_init
libc.so.6:remove
libc.so.6:rename
libc.so.6:select
libc.so.6:setenv
libc.so.6:setlocale
libc.so.6:setsockopt
libc.so.6:signal
libc.so.6:socket
libc.so.6:stdout
libc.so.6:strcmp
libc.so.6:strerror
libc.so.6:strerror_r
libc.so.6:strftime
libc.so.6:strlen
libc.so.6:strncpy
libc.so.6:strrchr
libc.so.6:strstr
libc.so.6:strtol
libc.so.6:system
libc.so.6:towupper
libc.so.6:unsetenv
libc.so.6:usleep
libc.so.6:wcslen
libc.so.6:wcswidth
libc.so.6:wcwidth
libc.so.6:wmemcpy
libcurl.so.4:curl_easy_cleanup
libcurl.so.4:curl_easy_escape
libcurl.so.4:curl_easy_init
libcurl.so.4:curl_easy_perform
libcurl.so.4:curl_easy_setopt
libcurl.so.4:curl_easy_strerror
libcurl.so.4:curl_free
libfftw3.so.3:fftw_execute
libfftw3.so.3:fftw_malloc
libfftw3.so.3:fftw_plan_dft_r2c_1d
libgcc_s.so.1:_Unwind_Resume
libgcc_s.so.1:__gcc_personality_v0
libicui18n.so.69:_ZN6icu_6914Transliterator14createInstanceERKNS_13UnicodeStringE15UTransDirectionR10UErrorCode
libicuuc.so.69:_ZN6icu_6913UnicodeString8fromUTF8ENS_11StringPieceE
libicuuc.so.69:_ZN6icu_6913UnicodeStringC1EPKc
libicuuc.so.69:_ZN6icu_6913UnicodeStringD1Ev
libicuuc.so.69:_ZN6icu_699ErrorCodeD1Ev
libicuuc.so.69:_ZNK6icu_699ErrorCode9errorNameEv
libicuuc.so.69:u_tolower_69
libm.so.6:cos
libm.so.6:exp
libm.so.6:log10
libm.so.6:sincos
libmpdclient.so.2:mpd_command_list_begin
libmpdclient.so.2:mpd_command_list_end
libmpdclient.so.2:mpd_connection_clear_error
libmpdclient.so.2:mpd_connection_free
libmpdclient.so.2:mpd_connection_get_error
libmpdclient.so.2:mpd_connection_get_error_message
libmpdclient.so.2:mpd_connection_get_fd
libmpdclient.so.2:mpd_connection_get_server_error
libmpdclient.so.2:mpd_connection_get_server_version
libmpdclient.so.2:mpd_connection_new
libmpdclient.so.2:mpd_directory_get_last_modified
libmpdclient.so.2:mpd_directory_get_path
libmpdclient.so.2:mpd_entity_free
libmpdclient.so.2:mpd_entity_get_directory
libmpdclient.so.2:mpd_entity_get_playlist
libmpdclient.so.2:mpd_entity_get_song
libmpdclient.so.2:mpd_entity_get_type
libmpdclient.so.2:mpd_output_free
libmpdclient.so.2:mpd_output_get_enabled
libmpdclient.so.2:mpd_output_get_id
libmpdclient.so.2:mpd_output_get_name
libmpdclient.so.2:mpd_playlist_get_last_modified
libmpdclient.so.2:mpd_playlist_get_path
libmpdclient.so.2:mpd_recv_directory
libmpdclient.so.2:mpd_recv_entity
libmpdclient.so.2:mpd_recv_idle
libmpdclient.so.2:mpd_recv_output
libmpdclient.so.2:mpd_recv_pair_named
libmpdclient.so.2:mpd_recv_pair_tag
libmpdclient.so.2:mpd_recv_playlist
libmpdclient.so.2:mpd_recv_song
libmpdclient.so.2:mpd_recv_song_id
libmpdclient.so.2:mpd_recv_update_id
libmpdclient.so.2:mpd_response_finish
libmpdclient.so.2:mpd_return_pair
libmpdclient.so.2:mpd_run_add
libmpdclient.so.2:mpd_run_change_volume
libmpdclient.so.2:mpd_run_clear
libmpdclient.so.2:mpd_run_consume
libmpdclient.so.2:mpd_run_crossfade
libmpdclient.so.2:mpd_run_disable_output
libmpdclient.so.2:mpd_run_enable_output
libmpdclient.so.2:mpd_run_load
libmpdclient.so.2:mpd_run_move
libmpdclient.so.2:mpd_run_next
libmpdclient.so.2:mpd_run_password
libmpdclient.so.2:mpd_run_play
libmpdclient.so.2:mpd_run_play_id
libmpdclient.so.2:mpd_run_play_pos
libmpdclient.so.2:mpd_run_playlist_add
libmpdclient.so.2:mpd_run_playlist_clear
libmpdclient.so.2:mpd_run_previous
libmpdclient.so.2:mpd_run_prio_id
libmpdclient.so.2:mpd_run_random
libmpdclient.so.2:mpd_run_rename
libmpdclient.so.2:mpd_run_repeat
libmpdclient.so.2:mpd_run_rm
libmpdclient.so.2:mpd_run_seek_pos
libmpdclient.so.2:mpd_run_set_volume
libmpdclient.so.2:mpd_run_shuffle_range
libmpdclient.so.2:mpd_run_single
libmpdclient.so.2:mpd_run_stats
libmpdclient.so.2:mpd_run_status
libmpdclient.so.2:mpd_run_stop
libmpdclient.so.2:mpd_run_swap
libmpdclient.so.2:mpd_run_toggle_pause
libmpdclient.so.2:mpd_search_add_any_tag_constraint
libmpdclient.so.2:mpd_search_add_tag_constraint
libmpdclient.so.2:mpd_search_add_uri_constraint
libmpdclient.so.2:mpd_search_commit
libmpdclient.so.2:mpd_search_db_songs
libmpdclient.so.2:mpd_search_db_tags
libmpdclient.so.2:mpd_send_add
libmpdclient.so.2:mpd_send_add_id
libmpdclient.so.2:mpd_send_add_id_to
libmpdclient.so.2:mpd_send_command
libmpdclient.so.2:mpd_send_current_song
libmpdclient.so.2:mpd_send_delete
libmpdclient.so.2:mpd_send_delete_range
libmpdclient.so.2:mpd_send_idle
libmpdclient.so.2:mpd_send_list_all
libmpdclient.so.2:mpd_send_list_all_meta
libmpdclient.so.2:mpd_send_list_meta
libmpdclient.so.2:mpd_send_list_playlist
libmpdclient.so.2:mpd_send_list_playlist_meta
libmpdclient.so.2:mpd_send_list_playlists
libmpdclient.so.2:mpd_send_list_tag_types
libmpdclient.so.2:mpd_send_list_url_schemes
libmpdclient.so.2:mpd_send_move
libmpdclient.so.2:mpd_send_noidle
libmpdclient.so.2:mpd_send_outputs
libmpdclient.so.2:mpd_send_playlist_add
libmpdclient.so.2:mpd_send_playlist_delete
libmpdclient.so.2:mpd_send_playlist_move
libmpdclient.so.2:mpd_send_prio_id
libmpdclient.so.2:mpd_send_queue_changes_meta
libmpdclient.so.2:mpd_send_save
libmpdclient.so.2:mpd_send_swap
libmpdclient.so.2:mpd_send_update
libmpdclient.so.2:mpd_song_begin
libmpdclient.so.2:mpd_song_dup
libmpdclient.so.2:mpd_song_feed
libmpdclient.so.2:mpd_song_free
libmpdclient.so.2:mpd_song_get_duration
libmpdclient.so.2:mpd_song_get_id
libmpdclient.so.2:mpd_song_get_last_modified
libmpdclient.so.2:mpd_song_get_pos
libmpdclient.so.2:mpd_song_get_prio
libmpdclient.so.2:mpd_song_get_tag
libmpdclient.so.2:mpd_song_get_uri
libmpdclient.so.2:mpd_stats_free
libmpdclient.so.2:mpd_stats_get_db_play_time
libmpdclient.so.2:mpd_stats_get_db_update_time
libmpdclient.so.2:mpd_stats_get_number_of_albums
libmpdclient.so.2:mpd_stats_get_number_of_artists
libmpdclient.so.2:mpd_stats_get_number_of_songs
libmpdclient.so.2:mpd_stats_get_play_time
libmpdclient.so.2:mpd_stats_get_uptime
libmpdclient.so.2:mpd_status_free
libmpdclient.so.2:mpd_status_get_consume
libmpdclient.so.2:mpd_status_get_crossfade
libmpdclient.so.2:mpd_status_get_elapsed_time
libmpdclient.so.2:mpd_status_get_kbit_rate
libmpdclient.so.2:mpd_status_get_queue_length
libmpdclient.so.2:mpd_status_get_queue_version
libmpdclient.so.2:mpd_status_get_random
libmpdclient.so.2:mpd_status_get_repeat
libmpdclient.so.2:mpd_status_get_single
libmpdclient.so.2:mpd_status_get_song_id
libmpdclient.so.2:mpd_status_get_song_pos
libmpdclient.so.2:mpd_status_get_state
libmpdclient.so.2:mpd_status_get_total_time
libmpdclient.so.2:mpd_status_get_update_id
libmpdclient.so.2:mpd_status_get_volume
libmvec.so.1:_ZGVbN2v_cos
libncursesw.so.5:COLORS
libncursesw.so.5:COLOR_PAIRS
libncursesw.so.5:COLS
libncursesw.so.5:LINES
libncursesw.so.5:attroff
libncursesw.so.5:attron
libncursesw.so.5:color_set
libncursesw.so.5:curs_set
libncursesw.so.5:def_prog_mode
libncursesw.so.5:delwin
libncursesw.so.5:dupwin
libncursesw.so.5:endwin
libncursesw.so.5:getch
libncursesw.so.5:getcurx
libncursesw.so.5:getcury
libncursesw.so.5:has_colors
libncursesw.so.5:idlok
libncursesw.so.5:init_pair
libncursesw.so.5:initscr
libncursesw.so.5:mvaddch
libncursesw.so.5:mvaddstr
libncursesw.so.5:mvhline
libncursesw.so.5:mvvline
libncursesw.so.5:mvwhline
libncursesw.so.5:newpad
libncursesw.so.5:noecho
libncursesw.so.5:nonl
libncursesw.so.5:prefresh
libncursesw.so.5:raw
libncursesw.so.5:refresh
libncursesw.so.5:scrollok
libncursesw.so.5:standend
libncursesw.so.5:start_color
libncursesw.so.5:timeout
libncursesw.so.5:use_default_colors
libncursesw.so.5:waddnstr
libncursesw.so.5:waddnwstr
libncursesw.so.5:waddstr
libncursesw.so.5:waddwstr
libncursesw.so.5:wattroff
libncursesw.so.5:wattron
libncursesw.so.5:wclrtoeol
libncursesw.so.5:wcolor_set
libncursesw.so.5:werase
libncursesw.so.5:wgetch
libncursesw.so.5:whline
libncursesw.so.5:wmouse_trafo
libncursesw.so.5:wmove
libncursesw.so.5:wscrl
libncursesw.so.5:wtimeout
libpthread.so.0:__errno_location
libpthread.so.0:close
libpthread.so.0:open
libpthread.so.0:pthread_cond_broadcast
libpthread.so.0:pthread_cond_wait
libpthread.so.0:pthread_condattr_setclock
libpthread.so.0:pthread_create
libpthread.so.0:pthread_mutex_destroy
libpthread.so.0:pthread_mutex_init
libpthread.so.0:pthread_mutex_lock
libpthread.so.0:pthread_mutex_unlock
libpthread.so.0:read
libreadline.so.6:add_history
libreadline.so.6:readline
libreadline.so.6:rl_attempted_completion_function
libreadline.so.6:rl_attempted_completion_over
libreadline.so.6:rl_bind_key
libreadline.so.6:rl_catch_signals
libreadline.so.6:rl_catch_sigwinch
libreadline.so.6:rl_deprep_term_function
libreadline.so.6:rl_done
libreadline.so.6:rl_end
libreadline.so.6:rl_getc_function
libreadline.so.6:rl_initialize
libreadline.so.6:rl_insert_text
libreadline.so.6:rl_line_buffer
libreadline.so.6:rl_point
libreadline.so.6:rl_prep_term_function
libreadline.so.6:rl_readline_state
libreadline.so.6:rl_redisplay_function
libreadline.so.6:rl_resize_terminal
libreadline.so.6:rl_startup_hook
libstdc++.so.6:_ZNKSt10bad_typeid4whatEv
libstdc++.so.6:_ZNKSt11logic_error4whatEv
libstdc++.so.6:_ZNKSt12__basic_fileIcE7is_openEv
libstdc++.so.6:_ZNKSt13bad_exception4whatEv
libstdc++.so.6:_ZNKSt13runtime_error4whatEv
libstdc++.so.6:_ZNKSt3_V214error_category10_M_messageB5cxx11Ei
libstdc++.so.6:_ZNKSt5ctypeIcE13_M_widen_initEv
libstdc++.so.6:_ZNKSt6locale2id5_M_idEv
libstdc++.so.6:_ZNKSt6localeeqERKS_
libstdc++.so.6:_ZNKSt7__cxx1112basic_stringIcSt11char_traitsIcESaIcEE4findEPKcmm
libstdc++.so.6:_ZNKSt7__cxx1112basic_stringIcSt11char_traitsIcESaIcEE4findEcm
libstdc++.so.6:_ZNKSt7__cxx1112basic_stringIcSt11char_traitsIcESaIcEE5rfindEPKcm
libstdc++.so.6:_ZNKSt7__cxx1112basic_stringIcSt11char_traitsIcESaIcEE5rfindEPKcmm
libstdc++.so.6:_ZNKSt7__cxx1112basic_stringIcSt11char_traitsIcESaIcEE5rfindEcm
libstdc++.so.6:_ZNKSt7__cxx1112basic_stringIcSt11char_traitsIcESaIcEE6substrEmm
libstdc++.so.6:_ZNKSt7__cxx1112basic_stringIcSt11char_traitsIcESaIcEE7compareEPKc
libstdc++.so.6:_ZNKSt7__cxx1112basic_stringIcSt11char_traitsIcESaIcEE7compareEmmPKc
libstdc++.so.6:_ZNKSt7__cxx1112basic_stringIcSt11char_traitsIcESaIcEE7compareEmmRKS4_mm
libstdc++.so.6:_ZNKSt8__detail20_Prime_rehash_policy14_M_need_rehashEmmm
libstdc++.so.6:_ZNKSt8bad_cast4whatEv
libstdc++.so.6:_ZNKSt8ios_base7failureB5cxx114whatEv
libstdc++.so.6:_ZNKSt9bad_alloc4whatEv
libstdc++.so.6:_ZNKSt9exception4whatEv
libstdc++.so.6:_ZNSi10_M_extractIdEERSiRT_
libstdc++.so.6:_ZNSi3getEv
libstdc++.so.6:_ZNSi4peekEv
libstdc++.so.6:_ZNSo3putEc
libstdc++.so.6:_ZNSo5flushEv
libstdc++.so.6:_ZNSo9_M_insertIdEERSoT_
libstdc++.so.6:_ZNSo9_M_insertImEERSoT_
libstdc++.so.6:_ZNSolsEi
libstdc++.so.6:_ZNSt10bad_typeidD2Ev
libstdc++.so.6:_ZNSt11logic_errorC1EPKc
libstdc++.so.6:_ZNSt11logic_errorC1ERKNSt7__cxx1112basic_stringIcSt11char_traitsIcESaIcEEE
libstdc++.so.6:_ZNSt11logic_errorC2ERKNSt7__cxx1112basic_stringIcSt11char_traitsIcESaIcEEE
libstdc++.so.6:_ZNSt11logic_errorC2ERKS_
libstdc++.so.6:_ZNSt11logic_errorD1Ev
libstdc++.so.6:_ZNSt11logic_errorD2Ev
libstdc++.so.6:_ZNSt11range_errorD2Ev
libstdc++.so.6:_ZNSt12__basic_fileIcED1Ev
libstdc++.so.6:_ZNSt12domain_errorD2Ev
libstdc++.so.6:_ZNSt12length_errorD2Ev
libstdc++.so.6:_ZNSt12out_of_rangeC1EPKc
libstdc++.so.6:_ZNSt12out_of_rangeC2ERKNSt7__cxx1112basic_stringIcSt11char_traitsIcESaIcEEE
libstdc++.so.6:_ZNSt12out_of_rangeD1Ev
libstdc++.so.6:_ZNSt12out_of_rangeD2Ev
libstdc++.so.6:_ZNSt13bad_exceptionD2Ev
libstdc++.so.6:_ZNSt13basic_filebufIcSt11char_traitsIcEE4openEPKcSt13_Ios_Openmode
libstdc++.so.6:_ZNSt13basic_filebufIcSt11char_traitsIcEE5closeEv
libstdc++.so.6:_ZNSt13basic_filebufIcSt11char_traitsIcEEC1Ev
libstdc++.so.6:_ZNSt13basic_filebufIcSt11char_traitsIcEED1Ev
libstdc++.so.6:_ZNSt13random_device7_M_finiEv
libstdc++.so.6:_ZNSt13random_device7_M_initERKNSt7__cxx1112basic_stringIcSt11char_traitsIcESaIcEEE
libstdc++.so.6:_ZNSt13random_device9_M_getvalEv
libstdc++.so.6:_ZNSt13runtime_errorC1EPKc
libstdc++.so.6:_ZNSt13runtime_errorC1ERKNSt7__cxx1112basic_stringIcSt11char_traitsIcESaIcEEE
libstdc++.so.6:_ZNSt13runtime_errorC2EPKc
libstdc++.so.6:_ZNSt13runtime_errorC2ERKNSt7__cxx1112basic_stringIcSt11char_traitsIcESaIcEEE
libstdc++.so.6:_ZNSt13runtime_errorC2ERKS_
libstdc++.so.6:_ZNSt13runtime_errorD1Ev
libstdc++.so.6:_ZNSt13runtime_errorD2Ev
libstdc++.so.6:_ZNSt14basic_ifstreamIcSt11char_traitsIcEED1Ev
libstdc++.so.6:_ZNSt14basic_ofstreamIcSt11char_traitsIcEE4openEPKcSt13_Ios_Openmode
libstdc++.so.6:_ZNSt14basic_ofstreamIcSt11char_traitsIcEEC1Ev
libstdc++.so.6:_ZNSt14basic_ofstreamIcSt11char_traitsIcEED1Ev
libstdc++.so.6:_ZNSt14overflow_errorD2Ev
libstdc++.so.6:_ZNSt15basic_streambufIcSt11char_traitsIcEE4syncEv
libstdc++.so.6:_ZNSt15basic_streambufIcSt11char_traitsIcEE5imbueERKSt6locale
libstdc++.so.6:_ZNSt15basic_streambufIcSt11char_traitsIcEE5uflowEv
libstdc++.so.6:_ZNSt15basic_streambufIcSt11char_traitsIcEE6setbufEPcl
libstdc++.so.6:_ZNSt15basic_streambufIcSt11char_traitsIcEE6xsgetnEPcl
libstdc++.so.6:_ZNSt15basic_streambufIcSt11char_traitsIcEE6xsputnEPKcl
libstdc++.so.6:_ZNSt15basic_streambufIcSt11char_traitsIcEE8overflowEi
libstdc++.so.6:_ZNSt15basic_streambufIcSt11char_traitsIcEE9pbackfailEi
libstdc++.so.6:_ZNSt15basic_streambufIcSt11char_traitsIcEE9showmanycEv
libstdc++.so.6:_ZNSt15basic_streambufIcSt11char_traitsIcEE9underflowEv
libstdc++.so.6:_ZNSt15underflow_errorD2Ev
libstdc++.so.6:_ZNSt16invalid_argumentC1EPKc
libstdc++.so.6:_ZNSt16invalid_argumentD1Ev
libstdc++.so.6:_ZNSt16invalid_argumentD2Ev
libstdc++.so.6:_ZNSt3_V214error_categoryD2Ev
libstdc++.so.6:_ZNSt3_V216generic_categoryEv
libstdc++.so.6:_ZNSt6locale6globalERKS_
libstdc++.so.6:_ZNSt6locale7classicEv
libstdc++.so.6:_ZNSt6localeC1ERKS_
libstdc++.so.6:_ZNSt6localeC1Ev
libstdc++.so.6:_ZNSt6localeD1Ev
libstdc++.so.6:_ZNSt6localeaSERKS_
libstdc++.so.6:_ZNSt6thread15_M_start_threadESt10unique_ptrINS_6_StateESt14default_deleteIS1_EEPFvvE
libstdc++.so.6:_ZNSt6thread6_StateD2Ev
libstdc++.so.6:_ZNSt6thread6detachEv
libstdc++.so.6:_ZNSt7__cxx1112basic_stringIcSt11char_traitsIcESaIcEE10_M_disposeEv
libstdc++.so.6:_ZNSt7__cxx1112basic_stringIcSt11char_traitsIcESaIcEE10_M_replaceEmmPKcm
libstdc++.so.6:_ZNSt7__cxx1112basic_stringIcSt11char_traitsIcESaIcEE12_M_constructEmc
libstdc++.so.6:_ZNSt7__cxx1112basic_stringIcSt11char_traitsIcESaIcEE14_M_replace_auxEmmmc
libstdc++.so.6:_ZNSt7__cxx1112basic_stringIcSt11char_traitsIcESaIcEE4swapERS4_
libstdc++.so.6:_ZNSt7__cxx1112basic_stringIcSt11char_traitsIcESaIcEE6appendEPKc
libstdc++.so.6:_ZNSt7__cxx1112basic_stringIcSt11char_traitsIcESaIcEE6assignEPKc
libstdc++.so.6:_ZNSt7__cxx1112basic_stringIcSt11char_traitsIcESaIcEE6resizeEmc
libstdc++.so.6:_ZNSt7__cxx1112basic_stringIcSt11char_traitsIcESaIcEE7reserveEm
libstdc++.so.6:_ZNSt7__cxx1112basic_stringIcSt11char_traitsIcESaIcEE8_M_eraseEmm
libstdc++.so.6:_ZNSt7__cxx1112basic_stringIcSt11char_traitsIcESaIcEE9_M_appendEPKcm
libstdc++.so.6:_ZNSt7__cxx1112basic_stringIcSt11char_traitsIcESaIcEE9_M_assignERKS4_
libstdc++.so.6:_ZNSt7__cxx1112basic_stringIcSt11char_traitsIcESaIcEE9_M_createERmm
libstdc++.so.6:_ZNSt7__cxx1112basic_stringIcSt11char_traitsIcESaIcEE9_M_mutateEmmPKcm
libstdc++.so.6:_ZNSt7__cxx1112basic_stringIcSt11char_traitsIcESaIcEE9push_backEc
libstdc++.so.6:_ZNSt7__cxx1112basic_stringIcSt11char_traitsIcESaIcEEC1ERKS4_
libstdc++.so.6:_ZNSt7__cxx1112basic_stringIcSt11char_traitsIcESaIcEED1Ev
libstdc++.so.6:_ZNSt7__cxx1112basic_stringIcSt11char_traitsIcESaIcEEaSEOS4_
libstdc++.so.6:_ZNSt7__cxx1112basic_stringIwSt11char_traitsIwESaIwEE10_M_disposeEv
libstdc++.so.6:_ZNSt7__cxx1112basic_stringIwSt11char_traitsIwESaIwEE10_M_replaceEmmPKwm
libstdc++.so.6:_ZNSt7__cxx1112basic_stringIwSt11char_traitsIwESaIwEE12_M_constructEmw
libstdc++.so.6:_ZNSt7__cxx1112basic_stringIwSt11char_traitsIwESaIwEE14_M_replace_auxEmmmw
libstdc++.so.6:_ZNSt7__cxx1112basic_stringIwSt11char_traitsIwESaIwEE6appendEPKw
libstdc++.so.6:_ZNSt7__cxx1112basic_stringIwSt11char_traitsIwESaIwEE6resizeEmw
libstdc++.so.6:_ZNSt7__cxx1112basic_stringIwSt11char_traitsIwESaIwEE7reserveEm
libstdc++.so.6:_ZNSt7__cxx1112basic_stringIwSt11char_traitsIwESaIwEE9_M_appendEPKwm
libstdc++.so.6:_ZNSt7__cxx1112basic_stringIwSt11char_traitsIwESaIwEE9_M_assignERKS4_
libstdc++.so.6:_ZNSt7__cxx1112basic_stringIwSt11char_traitsIwESaIwEE9_M_createERmm
libstdc++.so.6:_ZNSt7__cxx1112basic_stringIwSt11char_traitsIwESaIwEE9_M_mutateEmmPKwm
libstdc++.so.6:_ZNSt7__cxx1112basic_stringIwSt11char_traitsIwESaIwEE9push_backEw
libstdc++.so.6:_ZNSt7__cxx1112basic_stringIwSt11char_traitsIwESaIwEEC1EOS4_
libstdc++.so.6:_ZNSt7__cxx1119basic_ostringstreamIcSt11char_traitsIcESaIcEEC1Ev
libstdc++.so.6:_ZNSt7__cxx1119basic_ostringstreamIcSt11char_traitsIcESaIcEED1Ev
libstdc++.so.6:_ZNSt8__detail15_List_node_base7_M_hookEPS0_
libstdc++.so.6:_ZNSt8__detail15_List_node_base9_M_unhookEv
libstdc++.so.6:_ZNSt8bad_castD2Ev
libstdc++.so.6:_ZNSt8ios_base4InitC1Ev
libstdc++.so.6:_ZNSt8ios_base4InitD1Ev
libstdc++.so.6:_ZNSt8ios_base7failureB5cxx11D2Ev
libstdc++.so.6:_ZNSt8ios_baseC2Ev
libstdc++.so.6:_ZNSt8ios_baseD2Ev
libstdc++.so.6:_ZNSt9bad_allocD2Ev
libstdc++.so.6:_ZNSt9basic_iosIcSt11char_traitsIcEE4initEPSt15basic_streambufIcS1_E
libstdc++.so.6:_ZNSt9basic_iosIcSt11char_traitsIcEE5clearESt12_Ios_Iostate
libstdc++.so.6:_ZNSt9basic_iosIcSt11char_traitsIcEE5imbueERKSt6locale
libstdc++.so.6:_ZNSt9basic_iosIcSt11char_traitsIcEE5rdbufEPSt15basic_streambufIcS1_E
libstdc++.so.6:_ZNSt9exceptionD2Ev
libstdc++.so.6:_ZSt11_Hash_bytesPKvmm
libstdc++.so.6:_ZSt16__ostream_insertIcSt11char_traitsIcEERSt13basic_ostreamIT_T0_ES6_PKS3_l
libstdc++.so.6:_ZSt16__throw_bad_castv
libstdc++.so.6:_ZSt17__throw_bad_allocv
libstdc++.so.6:_ZSt18_Rb_tree_decrementPSt18_Rb_tree_node_base
libstdc++.so.6:_ZSt18_Rb_tree_incrementPKSt18_Rb_tree_node_base
libstdc++.so.6:_ZSt18_Rb_tree_incrementPSt18_Rb_tree_node_base
libstdc++.so.6:_ZSt19__throw_logic_errorPKc
libstdc++.so.6:_ZSt20__throw_length_errorPKc
libstdc++.so.6:_ZSt20__throw_system_errori
libstdc++.so.6:_ZSt24__throw_out_of_range_fmtPKcz
libstdc++.so.6:_ZSt25__throw_bad_function_callv
libstdc++.so.6:_ZSt28_Rb_tree_rebalance_for_erasePSt18_Rb_tree_node_baseRS_
libstdc++.so.6:_ZSt29_Rb_tree_insert_and_rebalancebPSt18_Rb_tree_node_baseS0_RS_
libstdc++.so.6:_ZSt4cerr
libstdc++.so.6:_ZSt4clog
libstdc++.so.6:_ZSt4cout
libstdc++.so.6:_ZSt7getlineIcSt11char_traitsIcESaIcEERSt13basic_istreamIT_T0_ES7_RNSt7__cxx1112basic_stringIS4_S5_T1_EES4_
libstdc++.so.6:_ZSt7nothrow
libstdc++.so.6:_ZSt9terminatev
libstdc++.so.6:_ZSt9use_facetINSt7__cxx117collateIcEEERKT_RKSt6locale
libstdc++.so.6:_ZSt9use_facetINSt7__cxx118numpunctIcEEERKT_RKSt6locale
libstdc++.so.6:_ZSt9use_facetINSt7__cxx118numpunctIwEEERKT_RKSt6locale
libstdc++.so.6:_ZSt9use_facetISt5ctypeIcEERKT_RKSt6locale
libstdc++.so.6:_ZStlsISt11char_traitsIcEERSt13basic_ostreamIcT_ES5_PKc
libstdc++.so.6:_ZStrsIcSt11char_traitsIcESaIcEERSt13basic_istreamIT_T0_ES7_RNSt7__cxx1112basic_stringIS4_S5_T1_EE
libstdc++.so.6:_ZTINSt3_V214error_categoryE
libstdc++.so.6:_ZTINSt6locale5facetE
libstdc++.so.6:_ZTINSt6thread6_StateE
libstdc++.so.6:_ZTINSt8ios_base7failureB5cxx11E
libstdc++.so.6:_ZTISo
libstdc++.so.6:_ZTISt10bad_typeid
libstdc++.so.6:_ZTISt11logic_error
libstdc++.so.6:_ZTISt11range_error
libstdc++.so.6:_ZTISt12domain_error
libstdc++.so.6:_ZTISt12length_error
libstdc++.so.6:_ZTISt12out_of_range
libstdc++.so.6:_ZTISt13bad_exception
libstdc++.so.6:_ZTISt13runtime_error
libstdc++.so.6:_ZTISt14overflow_error
libstdc++.so.6:_ZTISt15basic_streambufIcSt11char_traitsIcEE
libstdc++.so.6:_ZTISt15underflow_error
libstdc++.so.6:_ZTISt16invalid_argument
libstdc++.so.6:_ZTISt8bad_cast
libstdc++.so.6:_ZTISt9bad_alloc
libstdc++.so.6:_ZTISt9exception
libstdc++.so.6:_ZTId
libstdc++.so.6:_ZTIi
libstdc++.so.6:_ZTIj
libstdc++.so.6:_ZTIm
libstdc++.so.6:_ZTIv
libstdc++.so.6:_ZTTNSt7__cxx1119basic_ostringstreamIcSt11char_traitsIcESaIcEEE
libstdc++.so.6:_ZTTSt14basic_ifstreamIcSt11char_traitsIcEE
libstdc++.so.6:_ZTTSt14basic_ofstreamIcSt11char_traitsIcEE
libstdc++.so.6:_ZTVN10__cxxabiv116__enum_type_infoE
libstdc++.so.6:_ZTVN10__cxxabiv117__class_type_infoE
libstdc++.so.6:_ZTVN10__cxxabiv119__pointer_type_infoE
libstdc++.so.6:_ZTVN10__cxxabiv120__function_type_infoE
libstdc++.so.6:_ZTVN10__cxxabiv120__si_class_type_infoE
libstdc++.so.6:_ZTVN10__cxxabiv121__vmi_class_type_infoE
libstdc++.so.6:_ZTVN10__cxxabiv129__pointer_to_member_type_infoE
libstdc++.so.6:_ZTVNSt7__cxx1115basic_stringbufIcSt11char_traitsIcESaIcEEE
libstdc++.so.6:_ZTVNSt7__cxx1119basic_ostringstreamIcSt11char_traitsIcESaIcEEE
libstdc++.so.6:_ZTVNSt8ios_base7failureB5cxx11E
libstdc++.so.6:_ZTVSi
libstdc++.so.6:_ZTVSt10bad_typeid
libstdc++.so.6:_ZTVSt11range_error
libstdc++.so.6:_ZTVSt12domain_error
libstdc++.so.6:_ZTVSt12length_error
libstdc++.so.6:_ZTVSt12out_of_range
libstdc++.so.6:_ZTVSt13bad_exception
libstdc++.so.6:_ZTVSt13basic_filebufIcSt11char_traitsIcEE
libstdc++.so.6:_ZTVSt14basic_ifstreamIcSt11char_traitsIcEE
libstdc++.so.6:_ZTVSt14basic_ofstreamIcSt11char_traitsIcEE
libstdc++.so.6:_ZTVSt14overflow_error
libstdc++.so.6:_ZTVSt15basic_streambufIcSt11char_traitsIcEE
libstdc++.so.6:_ZTVSt15underflow_error
libstdc++.so.6:_ZTVSt16invalid_argument
libstdc++.so.6:_ZTVSt8bad_cast
libstdc++.so.6:_ZTVSt9bad_alloc
libstdc++.so.6:_ZTVSt9basic_iosIcSt11char_traitsIcEE
libstdc++.so.6:_ZdaPv
libstdc++.so.6:_ZdlPvm
libstdc++.so.6:_Znam
libstdc++.so.6:_Znwm
libstdc++.so.6:_ZnwmRKSt9nothrow_t
libstdc++.so.6:__cxa_allocate_exception
libstdc++.so.6:__cxa_bad_cast
libstdc++.so.6:__cxa_begin_catch
libstdc++.so.6:__cxa_demangle
libstdc++.so.6:__cxa_end_catch
libstdc++.so.6:__cxa_free_exception
libstdc++.so.6:__cxa_guard_abort
libstdc++.so.6:__cxa_guard_acquire
libstdc++.so.6:__cxa_guard_release
libstdc++.so.6:__cxa_pure_virtual
libstdc++.so.6:__cxa_rethrow
libstdc++.so.6:__cxa_throw
libstdc++.so.6:__dynamic_cast
libstdc++.so.6:__gxx_personality_v0
libtag.so.1:_ZN6TagLib10ByteVectorC1EPKc
libtag.so.1:_ZN6TagLib10ByteVectorC1ERKS0_
libtag.so.1:_ZN6TagLib10ByteVectorD1Ev
libtag.so.1:_ZN6TagLib10StringList6appendERKNS_6StringE
libtag.so.1:_ZN6TagLib10StringListC1Ev
libtag.so.1:_ZN6TagLib10StringListD1Ev
libtag.so.1:_ZN6TagLib3Ogg11XiphComment12removeFieldsERKNS_6StringE
libtag.so.1:_ZN6TagLib3Ogg11XiphComment8addFieldERKNS_6StringES4_b
libtag.so.1:_ZN6TagLib4FLAC4File11xiphCommentEb
libtag.so.1:_ZN6TagLib4MPEG4File4saveEibib
libtag.so.1:_ZN6TagLib4MPEG4File8ID3v1TagEb
libtag.so.1:_ZN6TagLib4MPEG4File8ID3v2TagEb
libtag.so.1:_ZN6TagLib5ID3v213CommentsFrame7setTextERKNS_6StringE
libtag.so.1:_ZN6TagLib5ID3v213CommentsFrameC1ENS_6String4TypeE
libtag.so.1:_ZN6TagLib5ID3v223TextIdentificationFrame7setTextERKNS_10StringListE
libtag.so.1:_ZN6TagLib5ID3v223TextIdentificationFrameC1ERKNS_10ByteVectorENS_6String4TypeE
libtag.so.1:_ZN6TagLib5ID3v23Tag12removeFramesERKNS_10ByteVectorE
libtag.so.1:_ZN6TagLib5ID3v23Tag8addFrameEPNS0_5FrameE
libtag.so.1:_ZN6TagLib6StringC1EPKcNS0_4TypeE
libtag.so.1:_ZN6TagLib6StringC1ERKNSt7__cxx1112basic_stringIcSt11char_traitsIcESaIcEEENS0_4TypeE
libtag.so.1:_ZN6TagLib6StringC1ERKNSt7__cxx1112basic_stringIwSt11char_traitsIwESaIwEEENS0_4TypeE
libtag.so.1:_ZN6TagLib6StringC1ERKS0_
libtag.so.1:_ZN6TagLib6StringC1Ev
libtag.so.1:_ZN6TagLib6StringD1Ev
libtag.so.1:_ZN6TagLib6StringpLERKS0_
libtag.so.1:_ZN6TagLib7FileRef4saveEv
libtag.so.1:_ZN6TagLib7FileRefC1EPKcbNS_15AudioProperties9ReadStyleE
libtag.so.1:_ZN6TagLib7FileRefD1Ev
libtag.so.1:_ZNK6TagLib10ByteVectoreqEPKc
libtag.so.1:_ZNK6TagLib10ByteVectorltERKS0_
libtag.so.1:_ZNK6TagLib3Ogg11XiphComment12fieldListMapEv
libtag.so.1:_ZNK6TagLib5ID3v223TextIdentificationFrame9fieldListEv
libtag.so.1:_ZNK6TagLib5ID3v23Tag12frameListMapEv
libtag.so.1:_ZNK6TagLib6String6to8BitB5cxx11Eb
libtag.so.1:_ZNK6TagLib6StringltERKS0_
libtag.so.1:_ZNK6TagLib7FileRef15audioPropertiesEv
libtag.so.1:_ZNK6TagLib7FileRef3tagEv
libtag.so.1:_ZNK6TagLib7FileRef4fileEv
libtag.so.1:_ZNK6TagLib7FileRef6isNullEv
