gpcl6:AlphaMaskBorderVals
gpcl6:BJL_command_set
gpcl6:BlackPoint_default
gpcl6:ClapTrap_Fin
gpcl6:ClapTrap_GetLine
gpcl6:ClapTrap_GetLinePlanar
gpcl6:ClapTrap_Init
gpcl6:Clear_CodeRange
gpcl6:Context_Create
gpcl6:Context_Destroy
gpcl6:Context_Load
gpcl6:Context_Run
gpcl6:Context_Save
gpcl6:ConvolveSamplingFactX
gpcl6:ConvolveSamplingFactY
gpcl6:DecodeABC_default
gpcl6:DecodeABC_from_cache
gpcl6:DecodeA_default
gpcl6:DecodeA_from_cache
gpcl6:DecodeDEFG_default
gpcl6:DecodeDEFG_from_cache
gpcl6:DecodeDEF_default
gpcl6:DecodeDEF_from_cache
gpcl6:DecodeLMN_default
gpcl6:DecodeLMN_from_cache
gpcl6:Default_GraphicsState
gpcl6:DevCMYKOGComponents
gpcl6:DevCMYKTComponents
gpcl6:DeviceCMYKComponents
gpcl6:DeviceGrayComponents
gpcl6:DeviceRGBComponents
gpcl6:DoubleGlyphList
gpcl6:EncodeABC_from_cache
gpcl6:EncodeLMN_from_cache
gpcl6:Encode_default
gpcl6:Face_Create
gpcl6:Face_Destroy
gpcl6:FloydSteinbergCloseC
gpcl6:FloydSteinbergCloseG
gpcl6:FloydSteinbergDitheringC
gpcl6:FloydSteinbergDitheringG
gpcl6:FloydSteinbergInitC
gpcl6:FloydSteinbergInitG
gpcl6:GDI_BAND_WIDTH
gpcl6:Get_CodeRange
gpcl6:Goto_CodeRange
gpcl6:ImageFileFormatExtensions
gpcl6:Instance_Create
gpcl6:Instance_Destroy
gpcl6:Instance_Init
gpcl6:Instance_Reset
gpcl6:IsInWhiteList
gpcl6:LeptDebugOK
gpcl6:LeptMsgSeverity
gpcl6:Load_TrueType_CVT
gpcl6:Load_TrueType_MaxProfile
gpcl6:Load_TrueType_Programs
gpcl6:MORPH_BC
gpcl6:MacintoshOrdering
gpcl6:Matrix3_default
gpcl6:MatrixA_default
gpcl6:MaxInitPtraSize
gpcl6:Memento_adjustRef
gpcl6:Memento_blockInfo
gpcl6:Memento_breakAt
gpcl6:Memento_breakOnFree
gpcl6:Memento_breakOnRealloc
gpcl6:Memento_breakpoint
gpcl6:Memento_calloc
gpcl6:Memento_check
gpcl6:Memento_checkAllMemory
gpcl6:Memento_checkBlock
gpcl6:Memento_dropRef
gpcl6:Memento_failAt
gpcl6:Memento_find
gpcl6:Memento_free
gpcl6:Memento_getBlockNum
gpcl6:Memento_info
gpcl6:Memento_label
gpcl6:Memento_listBlockInfo
gpcl6:Memento_listBlocks
gpcl6:Memento_listNewBlocks
gpcl6:Memento_listPhasedBlocks
gpcl6:Memento_malloc
gpcl6:Memento_paranoidAt
gpcl6:Memento_realloc
gpcl6:Memento_reference
gpcl6:Memento_setMax
gpcl6:Memento_setParanoia
gpcl6:Memento_setVerbose
gpcl6:Memento_showHash
gpcl6:Memento_squeezing
gpcl6:Memento_startLeaking
gpcl6:Memento_stats
gpcl6:Memento_stopLeaking
gpcl6:Memento_takeRef
gpcl6:MulDiv_Round
gpcl6:NumImageFileFormatExtensions
gpcl6:PCLm_close
gpcl6:PCLm_open
gpcl6:QuadGlyphList
gpcl6:Range3_default
gpcl6:Range4_default
gpcl6:RangeA_default
gpcl6:RenderTableT_default
gpcl6:RenderTableT_from_cache
gpcl6:RunIns
gpcl6:SaveScanData
gpcl6:Scale_X
gpcl6:Scale_Y
gpcl6:Set_CodeRange
gpcl6:SingleGlyphList
gpcl6:Sqrt64
gpcl6:TT_Set_Instance_CharSizes
gpcl6:TessAltoRendererCreate
gpcl6:TessBaseAPIAdaptToWordStr
gpcl6:TessBaseAPIAllWordConfidences
gpcl6:TessBaseAPIAnalyseLayout
gpcl6:TessBaseAPIClear
gpcl6:TessBaseAPIClearAdaptiveClassifier
gpcl6:TessBaseAPICreate
gpcl6:TessBaseAPIDelete
gpcl6:TessBaseAPIEnd
gpcl6:TessBaseAPIGetAltoText
gpcl6:TessBaseAPIGetAvailableLanguagesAsVector
gpcl6:TessBaseAPIGetBoolVariable
gpcl6:TessBaseAPIGetBoxText
gpcl6:TessBaseAPIGetComponentImages
gpcl6:TessBaseAPIGetComponentImages1
gpcl6:TessBaseAPIGetConnectedComponents
gpcl6:TessBaseAPIGetDatapath
gpcl6:TessBaseAPIGetDoubleVariable
gpcl6:TessBaseAPIGetHOCRText
gpcl6:TessBaseAPIGetInitLanguagesAsString
gpcl6:TessBaseAPIGetInputImage
gpcl6:TessBaseAPIGetInputName
gpcl6:TessBaseAPIGetIntVariable
gpcl6:TessBaseAPIGetIterator
gpcl6:TessBaseAPIGetLSTMBoxText
gpcl6:TessBaseAPIGetLoadedLanguagesAsVector
gpcl6:TessBaseAPIGetMutableIterator
gpcl6:TessBaseAPIGetOpenCLDevice
gpcl6:TessBaseAPIGetPageSegMode
gpcl6:TessBaseAPIGetRegions
gpcl6:TessBaseAPIGetSourceYResolution
gpcl6:TessBaseAPIGetStringVariable
gpcl6:TessBaseAPIGetStrips
gpcl6:TessBaseAPIGetTextDirection
gpcl6:TessBaseAPIGetTextlines
gpcl6:TessBaseAPIGetTextlines1
gpcl6:TessBaseAPIGetThresholdedImage
gpcl6:TessBaseAPIGetThresholdedImageScaleFactor
gpcl6:TessBaseAPIGetTsvText
gpcl6:TessBaseAPIGetUNLVText
gpcl6:TessBaseAPIGetUTF8Text
gpcl6:TessBaseAPIGetUnichar
gpcl6:TessBaseAPIGetWordStrBoxText
gpcl6:TessBaseAPIGetWords
gpcl6:TessBaseAPIInit1
gpcl6:TessBaseAPIInit2
gpcl6:TessBaseAPIInit3
gpcl6:TessBaseAPIInit4
gpcl6:TessBaseAPIInitForAnalysePage
gpcl6:TessBaseAPIInitLangMod
gpcl6:TessBaseAPIIsValidWord
gpcl6:TessBaseAPIMeanTextConf
gpcl6:TessBaseAPIPrintVariables
gpcl6:TessBaseAPIPrintVariablesToFile
gpcl6:TessBaseAPIProcessPage
gpcl6:TessBaseAPIProcessPages
gpcl6:TessBaseAPIReadConfigFile
gpcl6:TessBaseAPIReadDebugConfigFile
gpcl6:TessBaseAPIRecognize
gpcl6:TessBaseAPIRect
gpcl6:TessBaseAPISetDebugVariable
gpcl6:TessBaseAPISetImage
gpcl6:TessBaseAPISetImage2
gpcl6:TessBaseAPISetInputImage
gpcl6:TessBaseAPISetInputName
gpcl6:TessBaseAPISetMinOrientationMargin
gpcl6:TessBaseAPISetOutputName
gpcl6:TessBaseAPISetPageSegMode
gpcl6:TessBaseAPISetRectangle
gpcl6:TessBaseAPISetSourceResolution
gpcl6:TessBaseAPISetVariable
gpcl6:TessBoxTextRendererCreate
gpcl6:TessChoiceIteratorConfidence
gpcl6:TessChoiceIteratorDelete
gpcl6:TessChoiceIteratorGetUTF8Text
gpcl6:TessChoiceIteratorNext
gpcl6:TessDeleteIntArray
gpcl6:TessDeleteResultRenderer
gpcl6:TessDeleteText
gpcl6:TessDeleteTextArray
gpcl6:TessHOcrRendererCreate
gpcl6:TessHOcrRendererCreate2
gpcl6:TessLSTMBoxRendererCreate
gpcl6:TessMonitorCreate
gpcl6:TessMonitorDelete
gpcl6:TessMonitorGetCancelThis
gpcl6:TessMonitorGetProgress
gpcl6:TessMonitorSetCancelFunc
gpcl6:TessMonitorSetCancelThis
gpcl6:TessMonitorSetDeadlineMSecs
gpcl6:TessMonitorSetProgressFunc
gpcl6:TessPDFRendererCreate
gpcl6:TessPageIteratorBaseline
gpcl6:TessPageIteratorBegin
gpcl6:TessPageIteratorBlockType
gpcl6:TessPageIteratorBoundingBox
gpcl6:TessPageIteratorCopy
gpcl6:TessPageIteratorDelete
gpcl6:TessPageIteratorGetBinaryImage
gpcl6:TessPageIteratorGetImage
gpcl6:TessPageIteratorIsAtBeginningOf
gpcl6:TessPageIteratorIsAtFinalElement
gpcl6:TessPageIteratorNext
gpcl6:TessPageIteratorOrientation
gpcl6:TessPageIteratorParagraphInfo
gpcl6:TessResultIteratorConfidence
gpcl6:TessResultIteratorCopy
gpcl6:TessResultIteratorDelete
gpcl6:TessResultIteratorGetChoiceIterator
gpcl6:TessResultIteratorGetPageIterator
gpcl6:TessResultIteratorGetPageIteratorConst
gpcl6:TessResultIteratorGetUTF8Text
gpcl6:TessResultIteratorNext
gpcl6:TessResultIteratorSymbolIsDropcap
gpcl6:TessResultIteratorSymbolIsSubscript
gpcl6:TessResultIteratorSymbolIsSuperscript
gpcl6:TessResultIteratorWordFontAttributes
gpcl6:TessResultIteratorWordIsFromDictionary
gpcl6:TessResultIteratorWordIsNumeric
gpcl6:TessResultIteratorWordRecognitionLanguage
gpcl6:TessResultRendererAddImage
gpcl6:TessResultRendererBeginDocument
gpcl6:TessResultRendererEndDocument
gpcl6:TessResultRendererExtention
gpcl6:TessResultRendererImageNum
gpcl6:TessResultRendererInsert
gpcl6:TessResultRendererNext
gpcl6:TessResultRendererTitle
gpcl6:TessTextRendererCreate
gpcl6:TessTsvRendererCreate
gpcl6:TessUnlvRendererCreate
gpcl6:TessVersion
gpcl6:TessWordStrBoxRendererCreate
gpcl6:TransformPQR_default
gpcl6:TransformPQR_from_cache
gpcl6:TransformPQR_lookup_proc_name
gpcl6:TrebleGlyphList
gpcl6:Unset_CodeRange
gpcl6:UpdateScanLine
gpcl6:UpdateScanSize
gpcl6:WRF_init
gpcl6:WRF_wbyte
gpcl6:WRF_wfloat
gpcl6:WRF_wint
gpcl6:WRF_wstring
gpcl6:WRF_wtext
gpcl6:_IO_stdin_used
gpcl6:_Z15DistanceBetween6FPOINTS_
gpcl6:_Z19NormalizedAngleFromP6FPOINTS0_f
gpcl6:_Z7tfscanfP8_IO_FILEPKcz
gpcl6:_ZN9tesseract10AddFeatureEPNS_18FEATURE_SET_STRUCTEPNS_14FEATURE_STRUCTE
gpcl6:_ZN9tesseract10BLOCK_LIST9deep_copyEPKS0_PFPNS_5BLOCKEPKS3_E
gpcl6:_ZN9tesseract10Bucket8ForEffi
gpcl6:_ZN9tesseract10ColSegment8set_typeEv
gpcl6:_ZN9tesseract10ColSegment9InsertBoxERKNS_4TBOXE
gpcl6:_ZN9tesseract10ColSegmentC1Ev
gpcl6:_ZN9tesseract10ColSegmentC2Ev
gpcl6:_ZN9tesseract10DawgLoader4LoadEv
gpcl6:_ZN9tesseract10DetLineFit14ConstrainedFitERKNS_6FCOORDEddbPNS_6ICOORDE
gpcl6:_ZN9tesseract10DetLineFit14ConstrainedFitEdPf
gpcl6:_ZN9tesseract10DetLineFit15EvaluateLineFitEv
gpcl6:_ZN9tesseract10DetLineFit16ComputeDistancesERKNS_6ICOORDES3_
gpcl6:_ZN9tesseract10DetLineFit25ComputeUpperQuartileErrorEv
gpcl6:_ZN9tesseract10DetLineFit27ComputeConstrainedDistancesERKNS_6FCOORDEdd
gpcl6:_ZN9tesseract10DetLineFit3AddERKNS_6ICOORDE
gpcl6:_ZN9tesseract10DetLineFit3AddERKNS_6ICOORDEi
gpcl6:_ZN9tesseract10DetLineFit3FitEPfS1_
gpcl6:_ZN9tesseract10DetLineFit3FitEiiPNS_6ICOORDES2_
gpcl6:_ZN9tesseract10DetLineFit5ClearEv
gpcl6:_ZN9tesseract10DetLineFitC1Ev
gpcl6:_ZN9tesseract10DetLineFitC2Ev
gpcl6:_ZN9tesseract10DotProductE
gpcl6:_ZN9tesseract10FPAnalyzer13EstimatePitchEb
gpcl6:_ZN9tesseract10FPAnalyzerC1ENS_6ICOORDEPNS_13TO_BLOCK_LISTE
gpcl6:_ZN9tesseract10FPAnalyzerC2ENS_6ICOORDEPNS_13TO_BLOCK_LISTE
gpcl6:_ZN9tesseract10FillerDoneEPNS_12TABLE_FILLERE
gpcl6:_ZN9tesseract10FreeKDNodeEPNS_6KDNODEE
gpcl6:_ZN9tesseract10FreeKDTreeEPNS_6KDTREEE
gpcl6:_ZN9tesseract10HOcrEscapeB5cxx11EPKc
gpcl6:_ZN9tesseract10LineFinder12GetLineBoxesEbP3PixS2_PNS_11C_BLOB_LISTEPNS_13BLOBNBOX_LISTE
gpcl6:_ZN9tesseract10LineFinder12GetLineMasksEiP3PixPS2_S3_S3_S3_S3_S3_P4Pixa
gpcl6:_ZN9tesseract10LineFinder15FindLineVectorsERKNS_6ICOORDES3_PNS_13BLOBNBOX_LISTEPiS6_PNS_14TabVector_LISTE
gpcl6:_ZN9tesseract10LineFinder18ConvertBoxaToBlobsEiiPP4BoxaPNS_11C_BLOB_LISTE
gpcl6:_ZN9tesseract10LineFinder18FindAndRemoveLinesEibP3PixPiS3_PS2_PNS_14TabVector_LISTES6_
gpcl6:_ZN9tesseract10LineFinder19FindAndRemoveHLinesEiP3PixiiPS2_S2_S2_PNS_14TabVector_LISTE
gpcl6:_ZN9tesseract10LineFinder19FindAndRemoveVLinesEiP3PixPiS3_PS2_S2_S2_PNS_14TabVector_LISTE
gpcl6:_ZN9tesseract10MakeKDNodeEPNS_6KDTREEEPfPvi
gpcl6:_ZN9tesseract10MakeKDTreeEsPKNS_10PARAM_DESCE
gpcl6:_ZN9tesseract10MakeSampleEPNS_9CLUSTEREREPKfi
gpcl6:_ZN9tesseract10NewFeatureEPKNS_19FEATURE_DESC_STRUCTE
gpcl6:_ZN9tesseract10NextSampleEPPNS_8list_recE
gpcl6:_ZN9tesseract10OL_BUCKETS14count_childrenEPNS_9C_OUTLINEEi
gpcl6:_ZN9tesseract10OL_BUCKETS16extract_childrenEPNS_9C_OUTLINEEPNS_12C_OUTLINE_ITE
gpcl6:_ZN9tesseract10OL_BUCKETS18outline_complexityEPNS_9C_OUTLINEEis
gpcl6:_ZN9tesseract10OL_BUCKETSC1ENS_6ICOORDES1_
gpcl6:_ZN9tesseract10OL_BUCKETSC2ENS_6ICOORDES1_
gpcl6:_ZN9tesseract10OL_BUCKETSclEss
gpcl6:_ZN9tesseract10PB_LINE_IT8get_lineEs
gpcl6:_ZN9tesseract10POLY_BLOCK10compute_bbEv
gpcl6:_ZN9tesseract10POLY_BLOCK14winding_numberERKNS_6ICOORDE
gpcl6:_ZN9tesseract10POLY_BLOCK17reflect_in_y_axisEv
gpcl6:_ZN9tesseract10POLY_BLOCK4moveENS_6ICOORDE
gpcl6:_ZN9tesseract10POLY_BLOCK6rotateENS_6FCOORDE
gpcl6:_ZN9tesseract10POLY_BLOCK7overlapEPS0_
gpcl6:_ZN9tesseract10POLY_BLOCK8containsEPS0_
gpcl6:_ZN9tesseract10POLY_BLOCKC1EPNS_14ICOORDELT_LISTENS_13PolyBlockTypeE
gpcl6:_ZN9tesseract10POLY_BLOCKC1ERKNS_4TBOXENS_13PolyBlockTypeE
gpcl6:_ZN9tesseract10POLY_BLOCKC2EPNS_14ICOORDELT_LISTENS_13PolyBlockTypeE
gpcl6:_ZN9tesseract10POLY_BLOCKC2ERKNS_4TBOXENS_13PolyBlockTypeE
gpcl6:_ZN9tesseract10ParamUtils11PrintParamsEP8_IO_FILEPKNS_13ParamsVectorsE
gpcl6:_ZN9tesseract10ParamUtils14ReadParamsFileEPKcNS_18SetParamConstraintEPNS_13ParamsVectorsE
gpcl6:_ZN9tesseract10ParamUtils15ResetToDefaultsEPNS_13ParamsVectorsE
gpcl6:_ZN9tesseract10ParamUtils16GetParamAsStringEPKcPKNS_13ParamsVectorsEPNSt7__cxx1112basic_stringIcSt11char_traitsIcESaIcEEE
gpcl6:_ZN9tesseract10ParamUtils16ReadParamsFromFpENS_18SetParamConstraintEPNS_5TFileEPNS_13ParamsVectorsE
gpcl6:_ZN9tesseract10ParamUtils8SetParamEPKcS2_NS_18SetParamConstraintEPNS_13ParamsVectorsE
gpcl6:_ZN9tesseract10ROW_zapperEPNS_10ELIST_LINKE
gpcl6:_ZN9tesseract10SIMDDetect14avx_available_E
gpcl6:_ZN9tesseract10SIMDDetect14fma_available_E
gpcl6:_ZN9tesseract10SIMDDetect14sse_available_E
gpcl6:_ZN9tesseract10SIMDDetect15avx2_available_E
gpcl6:_ZN9tesseract10SIMDDetect18avx512F_available_E
gpcl6:_ZN9tesseract10SIMDDetect19avx512BW_available_E
gpcl6:_ZN9tesseract10SIMDDetect6UpdateEv
gpcl6:_ZN9tesseract10SIMDDetect8detectorE
gpcl6:_ZN9tesseract10SIMDDetectC1Ev
gpcl6:_ZN9tesseract10SIMDDetectC2Ev
gpcl6:_ZN9tesseract10ScrollViewD1Ev
gpcl6:_ZN9tesseract10ScrollViewD2Ev
gpcl6:_ZN9tesseract10ShapeTable10AddToShapeEiii
gpcl6:_ZN9tesseract10ShapeTable10SwapShapesEii
gpcl6:_ZN9tesseract10ShapeTable11DeSerializeEPNS_5TFileE
gpcl6:_ZN9tesseract10ShapeTable11DeleteShapeEi
gpcl6:_ZN9tesseract10ShapeTable11MergeShapesEii
gpcl6:_ZN9tesseract10ShapeTable13ReMapClassIdsERKNS_13GenericVectorIiEE
gpcl6:_ZN9tesseract10ShapeTable14BuildFromShapeERKNS_5ShapeERKS0_
gpcl6:_ZN9tesseract10ShapeTable15AddShapeToShapeEiRKNS_5ShapeE
gpcl6:_ZN9tesseract10ShapeTable15ForceFontMergesEii
gpcl6:_ZN9tesseract10ShapeTable18AppendMasterShapesERKS0_PNS_13GenericVectorIiEE
gpcl6:_ZN9tesseract10ShapeTable8AddShapeERKNS_5ShapeE
gpcl6:_ZN9tesseract10ShapeTable8AddShapeEii
gpcl6:_ZN9tesseract10ShapeTableC1ERKNS_10UNICHARSETE
gpcl6:_ZN9tesseract10ShapeTableC1Ev
gpcl6:_ZN9tesseract10ShapeTableC2ERKNS_10UNICHARSETE
gpcl6:_ZN9tesseract10ShapeTableC2Ev
gpcl6:_ZN9tesseract10UNICHARMAP15UNICHARMAP_NODEC1Ev
gpcl6:_ZN9tesseract10UNICHARMAP15UNICHARMAP_NODEC2Ev
gpcl6:_ZN9tesseract10UNICHARMAP15UNICHARMAP_NODED1Ev
gpcl6:_ZN9tesseract10UNICHARMAP15UNICHARMAP_NODED2Ev
gpcl6:_ZN9tesseract10UNICHARMAP5clearEv
gpcl6:_ZN9tesseract10UNICHARMAP6insertEPKci
gpcl6:_ZN9tesseract10UNICHARMAPC1Ev
gpcl6:_ZN9tesseract10UNICHARMAPC2Ev
gpcl6:_ZN9tesseract10UNICHARMAPD1Ev
gpcl6:_ZN9tesseract10UNICHARMAPD2Ev
gpcl6:_ZN9tesseract10UNICHARSET10add_scriptEPKc
gpcl6:_ZN9tesseract10UNICHARSET11null_scriptE
gpcl6:_ZN9tesseract10UNICHARSET12kCleanupMapsE
gpcl6:_ZN9tesseract10UNICHARSET13CleanupStringB5cxx11EPKcm
gpcl6:_ZN9tesseract10UNICHARSET14debug_utf8_strEPKc
gpcl6:_ZN9tesseract10UNICHARSET14load_from_fileEP8_IO_FILEb
gpcl6:_ZN9tesseract10UNICHARSET14load_from_fileEPNS_5TFileEb
gpcl6:_ZN9tesseract10UNICHARSET14load_via_fgetsESt8functionIFPcS2_iEEb
gpcl6:_ZN9tesseract10UNICHARSET14set_normed_idsEi
gpcl6:_ZN9tesseract10UNICHARSET14unichar_insertEPKcNS_18OldUncleanUnicharsE
gpcl6:_ZN9tesseract10UNICHARSET15post_load_setupEv
gpcl6:_ZN9tesseract10UNICHARSET16kCustomLigaturesE
gpcl6:_ZN9tesseract10UNICHARSET16set_ranges_emptyEv
gpcl6:_ZN9tesseract10UNICHARSET18UNICHAR_PROPERTIES13SetRangesOpenEv
gpcl6:_ZN9tesseract10UNICHARSET18UNICHAR_PROPERTIES14SetRangesEmptyEv
gpcl6:_ZN9tesseract10UNICHARSET18UNICHAR_PROPERTIES16ExpandRangesFromERKS1_
gpcl6:_ZN9tesseract10UNICHARSET18UNICHAR_PROPERTIES4InitEv
gpcl6:_ZN9tesseract10UNICHARSET18UNICHAR_PROPERTIES8CopyFromERKS1_
gpcl6:_ZN9tesseract10UNICHARSET18UNICHAR_PROPERTIESC1Ev
gpcl6:_ZN9tesseract10UNICHARSET18UNICHAR_PROPERTIESC2Ev
gpcl6:_ZN9tesseract10UNICHARSET20kSpecialUnicharCodesE
gpcl6:_ZN9tesseract10UNICHARSET21AppendOtherUnicharsetERKS0_
gpcl6:_ZN9tesseract10UNICHARSET21ExpandRangesFromOtherERKS0_
gpcl6:_ZN9tesseract10UNICHARSET23set_black_and_whitelistEPKcS2_S2_
gpcl6:_ZN9tesseract10UNICHARSET29PartialSetPropertiesFromOtherEiRKS0_
gpcl6:_ZN9tesseract10UNICHARSET8CopyFromERKS0_
gpcl6:_ZN9tesseract10UNICHARSETC1Ev
gpcl6:_ZN9tesseract10UNICHARSETC2Ev
gpcl6:_ZN9tesseract10UNICHARSETD1Ev
gpcl6:_ZN9tesseract10UNICHARSETD2Ev
gpcl6:_ZN9tesseract10UnicodeForEPKNS_10UNICHARSETEPKNS_11WERD_CHOICEEi
gpcl6:_ZN9tesseract10color_listE
gpcl6:_ZN9tesseract10get_ydiffsEPNS_4TBOXEiPNS_7QSPLINEEPf
gpcl6:_ZN9tesseract10kCrownLeftE
gpcl6:_ZN9tesseract10make_wordsEPNS_7TextordENS_6ICOORDEfPNS_10BLOCK_LISTEPNS_13TO_BLOCK_LISTE
gpcl6:_ZN9tesseract10row_words2EPNS_8TO_BLOCKEPNS_6TO_ROWEiNS_6FCOORDEb
gpcl6:_ZN9tesseract10write_infoEP8_IO_FILERKNS_8FontInfoE
gpcl6:_ZN9tesseract11AddIntClassEPNS_20INT_TEMPLATES_STRUCTEiPNS_16INT_CLASS_STRUCTE
gpcl6:_ZN9tesseract11AddIntProtoEPNS_16INT_CLASS_STRUCTE
gpcl6:_ZN9tesseract11AlignedBlob15FindAlignedBlobERKNS_17AlignedBlobParamsEbPNS_8BLOBNBOXEiPi
gpcl6:_ZN9tesseract11AlignedBlob16WithinTestRegionEiii
gpcl6:_ZN9tesseract11AlignedBlob21FindVerticalAlignmentENS_17AlignedBlobParamsEPNS_8BLOBNBOXEPiS4_
gpcl6:_ZN9tesseract11AlignedBlob9AlignTabsERKNS_17AlignedBlobParamsEbPNS_8BLOBNBOXEPNS_14BLOBNBOX_CLISTEPi
gpcl6:_ZN9tesseract11AlignedBlobC1EiRKNS_6ICOORDES3_
gpcl6:_ZN9tesseract11AlignedBlobC2EiRKNS_6ICOORDES3_
gpcl6:_ZN9tesseract11AlignedBlobD0Ev
gpcl6:_ZN9tesseract11AlignedBlobD1Ev
gpcl6:_ZN9tesseract11AlignedBlobD2Ev
gpcl6:_ZN9tesseract11BLOB_CHOICEC1ERKS0_
gpcl6:_ZN9tesseract11BLOB_CHOICEC1EiffifffNS_20BlobChoiceClassifierE
gpcl6:_ZN9tesseract11BLOB_CHOICEC2ERKS0_
gpcl6:_ZN9tesseract11BLOB_CHOICEC2EiffifffNS_20BlobChoiceClassifierE
gpcl6:_ZN9tesseract11BLOB_CHOICEaSERKS0_
gpcl6:_ZN9tesseract11BaselineRow11FitBaselineEb
gpcl6:_ZN9tesseract11BaselineRow18ComputeBoundingBoxEv
gpcl6:_ZN9tesseract11BaselineRow20AdjustBaselineToGridEiRKNS_6FCOORDEdd
gpcl6:_ZN9tesseract11BaselineRow22FitConstrainedIfBetterEiRKNS_6FCOORDEdd
gpcl6:_ZN9tesseract11BaselineRow22SetupBlobDisplacementsERKNS_6FCOORDE
gpcl6:_ZN9tesseract11BaselineRow24AdjustBaselineToParallelEiRKNS_6FCOORDE
gpcl6:_ZN9tesseract11BaselineRowC1EdPNS_6TO_ROWE
gpcl6:_ZN9tesseract11BaselineRowC2EdPNS_6TO_ROWE
gpcl6:_ZN9tesseract11Bucket16ForEffi
gpcl6:_ZN9tesseract11BucketStartEifi
gpcl6:_ZN9tesseract11C_BLOB_LIST9deep_copyEPKS0_PFPNS_6C_BLOBEPKS3_E
gpcl6:_ZN9tesseract11ConvertBlobEPNS_5TBLOBE
gpcl6:_ZN9tesseract11FreeFeatureEPNS_14FEATURE_STRUCTE
gpcl6:_ZN9tesseract11FreeSubTreeEPNS_6KDNODEE
gpcl6:_ZN9tesseract11GeoFeatDescE
gpcl6:_ZN9tesseract11GetNextFillEPNS_12TABLE_FILLEREPNS_9FILL_SPECE
gpcl6:_ZN9tesseract11InsertNodesEPNS_6KDTREEEPNS_6KDNODEE
gpcl6:_ZN9tesseract11IntFeatDescE
gpcl6:_ZN9tesseract11NewIntClassEii
gpcl6:_ZN9tesseract11OpenBoxFileEPKc
gpcl6:_ZN9tesseract11PAGE_RES_IT10start_pageEb
gpcl6:_ZN9tesseract11PAGE_RES_IT11restart_rowEv
gpcl6:_ZN9tesseract11PAGE_RES_IT13forward_blockEv
gpcl6:_ZN9tesseract11PAGE_RES_IT13rej_stat_wordEv
gpcl6:_ZN9tesseract11PAGE_RES_IT16internal_forwardEbb
gpcl6:_ZN9tesseract11PAGE_RES_IT17DeleteCurrentWordEv
gpcl6:_ZN9tesseract11PAGE_RES_IT17ResetWordIteratorEv
gpcl6:_ZN9tesseract11PAGE_RES_IT17forward_paragraphEv
gpcl6:_ZN9tesseract11PAGE_RES_IT18ReplaceCurrentWordEPNS_13PointerVectorINS_8WERD_RESEEE
gpcl6:_ZN9tesseract11PAGE_RES_IT20MakeCurrentWordFuzzyEv
gpcl6:_ZN9tesseract11PAGE_RES_IT21InsertSimpleCloneWordERKNS_8WERD_RESEPNS_4WERDE
gpcl6:_ZN9tesseract11PARA_zapperEPNS_10ELIST_LINKE
gpcl6:_ZN9tesseract11ParamsModel10LoadFromFpEPKcPNS_5TFileE
gpcl6:_ZN9tesseract11ParamsModel4CopyERKS0_
gpcl6:_ZN9tesseract11ParamsModel5PrintEv
gpcl6:_ZN9tesseract11ParamsModel9ParseLineEPcPS1_Pf
gpcl6:_ZN9tesseract11ReadNextBoxEPiP8_IO_FILEPNS_6STRINGEPNS_4TBOXE
gpcl6:_ZN9tesseract11ReadNextBoxEiPiP8_IO_FILEPNS_6STRINGEPNS_4TBOXE
gpcl6:_ZN9tesseract11ShapeRating22FirstResultWithUnicharERKNS_13GenericVectorIS0_EERKNS_10ShapeTableEi
gpcl6:_ZN9tesseract11StrokeWidth10EasyMergesEPNS_16ColPartitionGridE
gpcl6:_ZN9tesseract11StrokeWidth11HandleClickEii
gpcl6:_ZN9tesseract11StrokeWidth11InsertBlobsEPNS_8TO_BLOCKE
gpcl6:_ZN9tesseract11StrokeWidth12FixBrokenCJKEPNS_8TO_BLOCKE
gpcl6:_ZN9tesseract11StrokeWidth13DiacriticBlobEPNS_8BlobGridEPNS_8BLOBNBOXE
gpcl6:_ZN9tesseract11StrokeWidth13SetNeighboursEbbPNS_8BLOBNBOXE
gpcl6:_ZN9tesseract11StrokeWidth14TestDiacriticsEPNS_16ColPartitionGridEPNS_8TO_BLOCKE
gpcl6:_ZN9tesseract11StrokeWidth15MergeDiacriticsEPNS_8TO_BLOCKEPNS_16ColPartitionGridE
gpcl6:_ZN9tesseract11StrokeWidth16ConfirmEasyMergeEPKNS_12ColPartitionES3_
gpcl6:_ZN9tesseract11StrokeWidth17CompletePartitionENS_11PageSegModeEPNS_12ColPartitionEPNS_16ColPartitionGridE
gpcl6:_ZN9tesseract11StrokeWidth17FindGoodNeighbourENS_16BlobNeighbourDirEbPNS_8BLOBNBOXE
gpcl6:_ZN9tesseract11StrokeWidth17RemoveLineResidueEPNS_17ColPartition_LISTE
gpcl6:_ZN9tesseract11StrokeWidth17SetNeighbourFlowsEPNS_8BLOBNBOXE
gpcl6:_ZN9tesseract11StrokeWidth18AccumulateOverlapsEPKNS_8BLOBNBOXEbiiPNS_4TBOXEPNS_14BLOBNBOX_CLISTE
gpcl6:_ZN9tesseract11StrokeWidth18CorrectForRotationERKNS_6FCOORDEPNS_16ColPartitionGridE
gpcl6:_ZN9tesseract11StrokeWidth19DiacriticXGapFilledEPNS_8BlobGridERKNS_4TBOXES5_
gpcl6:_ZN9tesseract11StrokeWidth20DetectAndRemoveNoiseEiRKNS_4TBOXEPNS_8TO_BLOCKEPNS_16ColPartitionGridEPNS_13BLOBNBOX_LISTE
gpcl6:_ZN9tesseract11StrokeWidth20FindLeaderPartitionsEPNS_8TO_BLOCKEPNS_16ColPartitionGridE
gpcl6:_ZN9tesseract11StrokeWidth20MarkLeaderNeighboursEPKNS_12ColPartitionENS_11LeftOrRightE
gpcl6:_ZN9tesseract11StrokeWidth20OrientationSearchBoxEPNS_12ColPartitionEPNS_4TBOXE
gpcl6:_ZN9tesseract11StrokeWidth20SmoothNeighbourTypesENS_11PageSegModeEbPNS_8BLOBNBOXE
gpcl6:_ZN9tesseract11StrokeWidth21FindInitialPartitionsENS_11PageSegModeERKNS_6FCOORDEbPNS_8TO_BLOCKEPNS_13BLOBNBOX_LISTEPNS_16ColPartitionGridEPNS_17ColPartition_LISTEPS2_
gpcl6:_ZN9tesseract11StrokeWidth22FindVerticalTextChainsEPNS_16ColPartitionGridE
gpcl6:_ZN9tesseract11StrokeWidth22RemoveLargeUnusedBlobsEPNS_8TO_BLOCKEPNS_16ColPartitionGridEPNS_17ColPartition_LISTE
gpcl6:_ZN9tesseract11StrokeWidth23FindLeadersAndMarkNoiseEPNS_8TO_BLOCKEPNS_17ColPartition_LISTE
gpcl6:_ZN9tesseract11StrokeWidth23PartitionRemainingBlobsENS_11PageSegModeEPNS_16ColPartitionGridE
gpcl6:_ZN9tesseract11StrokeWidth24FindHorizontalTextChainsEPNS_16ColPartitionGridE
gpcl6:_ZN9tesseract11StrokeWidth24GradeBlobsIntoPartitionsENS_11PageSegModeERKNS_6FCOORDEPNS_8TO_BLOCKEP3PixPKNS_6DENORMEbPNS_18TextlineProjectionEPNS_13BLOBNBOX_LISTEPNS_16ColPartitionGridEPNS_17ColPartition_LISTE
gpcl6:_ZN9tesseract11StrokeWidth25FindTextlineFlowDirectionENS_11PageSegModeEb
gpcl6:_ZN9tesseract11StrokeWidth25SimplifyObviousNeighboursEPNS_8BLOBNBOXE
gpcl6:_ZN9tesseract11StrokeWidth25TestVerticalTextDirectionEdPNS_8TO_BLOCKEPNS_14BLOBNBOX_CLISTE
gpcl6:_ZN9tesseract11StrokeWidth26MakePartitionsFromCellListENS_11PageSegModeEbPNS_16ColPartitionGridEPNS_14BLOBNBOX_CLISTE
gpcl6:_ZN9tesseract11StrokeWidth26SetNeighboursOnMediumBlobsEPNS_8TO_BLOCKE
gpcl6:_ZN9tesseract11StrokeWidth36FindTextlineDirectionAndFixBrokenCJKENS_11PageSegModeEbPNS_8TO_BLOCKE
gpcl6:_ZN9tesseract11StrokeWidthC1EiRKNS_6ICOORDES3_
gpcl6:_ZN9tesseract11StrokeWidthC2EiRKNS_6ICOORDES3_
gpcl6:_ZN9tesseract11StrokeWidthD0Ev
gpcl6:_ZN9tesseract11StrokeWidthD1Ev
gpcl6:_ZN9tesseract11StrokeWidthD2Ev
gpcl6:_ZN9tesseract11TO_ROW_LIST9deep_copyEPKS0_PFPNS_6TO_ROWEPKS3_E
gpcl6:_ZN9tesseract11TableFinder12GrowTableBoxERKNS_4TBOXEPS1_
gpcl6:_ZN9tesseract11TableFinder12LocateTablesEPNS_16ColPartitionGridEPPNS_15ColPartitionSetESt8functionIFbiEERKNS_6FCOORDE
gpcl6:_ZN9tesseract11TableFinder13FindNeighborsEv
gpcl6:_ZN9tesseract11TableFinder14SetColumnsTypeEPNS_15ColSegment_LISTE
gpcl6:_ZN9tesseract11TableFinder15GetColumnBlocksEPPNS_15ColPartitionSetEPNS_15ColSegment_LISTE
gpcl6:_ZN9tesseract11TableFinder15GetTableColumnsEPNS_15ColSegment_LISTE
gpcl6:_ZN9tesseract11TableFinder15GetTableRegionsEPNS_15ColSegment_LISTES2_
gpcl6:_ZN9tesseract11TableFinder15MakeTableBlocksEPNS_16ColPartitionGridEPPNS_15ColPartitionSetESt8functionIFbiEE
gpcl6:_ZN9tesseract11TableFinder15RecognizeTablesEv
gpcl6:_ZN9tesseract11TableFinder16BelongToOneTableERKNS_4TBOXES3_
gpcl6:_ZN9tesseract11TableFinder16ConsecutiveBoxesERKNS_4TBOXES3_
gpcl6:_ZN9tesseract11TableFinder16GapInXProjectionEPii
gpcl6:_ZN9tesseract11TableFinder17FilterFalseAlarmsEv
gpcl6:_ZN9tesseract11TableFinder17GroupColumnBlocksEPNS_15ColSegment_LISTES2_
gpcl6:_ZN9tesseract11TableFinder17HasLeaderAdjacentERKNS_12ColPartitionE
gpcl6:_ZN9tesseract11TableFinder17SetGlobalSpacingsEPNS_16ColPartitionGridE
gpcl6:_ZN9tesseract11TableFinder18SetVerticalSpacingEPNS_12ColPartitionE
gpcl6:_ZN9tesseract11TableFinder19HLineBelongsToTableERKNS_12ColPartitionERKNS_4TBOXE
gpcl6:_ZN9tesseract11TableFinder19InsertTextPartitionEPNS_12ColPartitionE
gpcl6:_ZN9tesseract11TableFinder19MarkTablePartitionsEv
gpcl6:_ZN9tesseract11TableFinder20InitializePartitionsEPPNS_15ColPartitionSetE
gpcl6:_ZN9tesseract11TableFinder20InsertImagePartitionEPNS_12ColPartitionE
gpcl6:_ZN9tesseract11TableFinder20SetPartitionSpacingsEPNS_16ColPartitionGridEPPNS_15ColPartitionSetE
gpcl6:_ZN9tesseract11TableFinder21AdjustTableBoundariesEv
gpcl6:_ZN9tesseract11TableFinder21FilterHeaderAndFooterEv
gpcl6:_ZN9tesseract11TableFinder21GridMergeColumnBlocksEv
gpcl6:_ZN9tesseract11TableFinder21GridMergeTableRegionsEv
gpcl6:_ZN9tesseract11TableFinder21InsertCleanPartitionsEPNS_16ColPartitionGridEPNS_8TO_BLOCKE
gpcl6:_ZN9tesseract11TableFinder21InsertLeaderPartitionEPNS_12ColPartitionE
gpcl6:_ZN9tesseract11TableFinder21InsertRulingPartitionEPNS_12ColPartitionE
gpcl6:_ZN9tesseract11TableFinder21MoveColSegmentsToGridEPNS_15ColSegment_LISTEPNS_6BBGridINS_10ColSegmentENS_16ColSegment_CLISTENS_15ColSegment_C_ITEEE
gpcl6:_ZN9tesseract11TableFinder22FilterParagraphEndingsEv
gpcl6:_ZN9tesseract11TableFinder23GrowTableToIncludeLinesERKNS_4TBOXES3_PS1_
gpcl6:_ZN9tesseract11TableFinder24DeleteSingleColumnTablesEv
gpcl6:_ZN9tesseract11TableFinder24SmoothTablePartitionRunsEv
gpcl6:_ZN9tesseract11TableFinder25set_global_median_leddingEi
gpcl6:_ZN9tesseract11TableFinder25set_global_median_xheightEi
gpcl6:_ZN9tesseract11TableFinder26GrowTableToIncludePartialsERKNS_4TBOXES3_PS1_
gpcl6:_ZN9tesseract11TableFinder26set_left_to_right_languageEb
gpcl6:_ZN9tesseract11TableFinder27IncludeLeftOutColumnHeadersEPNS_4TBOXE
gpcl6:_ZN9tesseract11TableFinder28set_global_median_blob_widthEi
gpcl6:_ZN9tesseract11TableFinder29InsertFragmentedTextPartitionEPNS_12ColPartitionE
gpcl6:_ZN9tesseract11TableFinder35MarkPartitionsUsingLocalInformationEv
gpcl6:_ZN9tesseract11TableFinder37SplitAndInsertFragmentedTextPartitionEPNS_12ColPartitionE
gpcl6:_ZN9tesseract11TableFinder4InitEiRKNS_6ICOORDES3_
gpcl6:_ZN9tesseract11TableFinderC1Ev
gpcl6:_ZN9tesseract11TableFinderC2Ev
gpcl6:_ZN9tesseract11TableFinderD1Ev
gpcl6:_ZN9tesseract11TableFinderD2Ev
gpcl6:_ZN9tesseract11TessBaseAPI10GetBoxTextEi
gpcl6:_ZN9tesseract11TessBaseAPI10GetOsdTextEi
gpcl6:_ZN9tesseract11TessBaseAPI10GetRegionsEPP4Pixa
gpcl6:_ZN9tesseract11TessBaseAPI10GetTSVTextEi
gpcl6:_ZN9tesseract11TessBaseAPI10GetUnicharEi
gpcl6:_ZN9tesseract11TessBaseAPI10TextLengthEPi
gpcl6:_ZN9tesseract11TessBaseAPI11GetAltoTextEPNS_10ETEXT_DESCEi
gpcl6:_ZN9tesseract11TessBaseAPI11GetAltoTextEi
gpcl6:_ZN9tesseract11TessBaseAPI11GetDatapathEv
gpcl6:_ZN9tesseract11TessBaseAPI11GetHOCRTextEPNS_10ETEXT_DESCEi
gpcl6:_ZN9tesseract11TessBaseAPI11GetHOCRTextEi
gpcl6:_ZN9tesseract11TessBaseAPI11GetIteratorEv
gpcl6:_ZN9tesseract11TessBaseAPI11GetUNLVTextEv
gpcl6:_ZN9tesseract11TessBaseAPI11GetUTF8TextEv
gpcl6:_ZN9tesseract11TessBaseAPI11InitLangModEPKcS2_
gpcl6:_ZN9tesseract11TessBaseAPI11IsValidWordEPKc
gpcl6:_ZN9tesseract11TessBaseAPI11ProcessPageEP3PixiPKcS4_iPNS_18TessResultRendererE
gpcl6:_ZN9tesseract11TessBaseAPI11SetDictFuncEMNS_4DictEKFiPvRKNS_10UNICHARSETEibE
gpcl6:_ZN9tesseract11TessBaseAPI11SetVariableEPKcS2_
gpcl6:_ZN9tesseract11TessBaseAPI12ClearResultsEv
gpcl6:_ZN9tesseract11TessBaseAPI12GetInputNameEv
gpcl6:_ZN9tesseract11TessBaseAPI12GetTextlinesEbiPP4PixaPPiS5_
gpcl6:_ZN9tesseract11TessBaseAPI12MeanTextConfEv
gpcl6:_ZN9tesseract11TessBaseAPI12ProcessPagesEPKcS2_iPNS_18TessResultRendererE
gpcl6:_ZN9tesseract11TessBaseAPI12SetInputNameEPKc
gpcl6:_ZN9tesseract11TessBaseAPI12SetRectangleEiiii
gpcl6:_ZN9tesseract11TessBaseAPI13AnalyseLayoutEb
gpcl6:_ZN9tesseract11TessBaseAPI13AnalyseLayoutEv
gpcl6:_ZN9tesseract11TessBaseAPI13GetInputImageEv
gpcl6:_ZN9tesseract11TessBaseAPI13SetInputImageEP3Pix
gpcl6:_ZN9tesseract11TessBaseAPI13SetOutputNameEPKc
gpcl6:_ZN9tesseract11TessBaseAPI13TesseractRectEPKhiiiiii
gpcl6:_ZN9tesseract11TessBaseAPI14AdaptToWordStrENS_11PageSegModeEPKc
gpcl6:_ZN9tesseract11TessBaseAPI14GetLSTMBoxTextEi
gpcl6:_ZN9tesseract11TessBaseAPI14GetLTRIteratorEv
gpcl6:_ZN9tesseract11TessBaseAPI14ReadConfigFileEPKc
gpcl6:_ZN9tesseract11TessBaseAPI14SetPageSegModeENS_11PageSegModeE
gpcl6:_ZN9tesseract11TessBaseAPI15getOpenCLDeviceEPPv
gpcl6:_ZN9tesseract11TessBaseAPI16DetectParagraphsEb
gpcl6:_ZN9tesseract11TessBaseAPI16GetTextDirectionEPiPf
gpcl6:_ZN9tesseract11TessBaseAPI16InternalSetImageEv
gpcl6:_ZN9tesseract11TessBaseAPI16IsValidCharacterEPKc
gpcl6:_ZN9tesseract11TessBaseAPI16SetDebugVariableEPKcS2_
gpcl6:_ZN9tesseract11TessBaseAPI17GetWordStrBoxTextEi
gpcl6:_ZN9tesseract11TessBaseAPI18AllWordConfidencesEv
gpcl6:_ZN9tesseract11TessBaseAPI18GetComponentImagesENS_17PageIteratorLevelEbbiPP4PixaPPiS6_
gpcl6:_ZN9tesseract11TessBaseAPI18GetMutableIteratorEv
gpcl6:_ZN9tesseract11TessBaseAPI18InitForAnalysePageEv
gpcl6:_ZN9tesseract11TessBaseAPI19GetThresholdedImageEv
gpcl6:_ZN9tesseract11TessBaseAPI19GetVariableAsStringEPKcPNSt7__cxx1112basic_stringIcSt11char_traitsIcESaIcEEE
gpcl6:_ZN9tesseract11TessBaseAPI19ReadDebugConfigFileEPKc
gpcl6:_ZN9tesseract11TessBaseAPI19SetSourceResolutionEi
gpcl6:_ZN9tesseract11TessBaseAPI20ClearPersistentCacheEv
gpcl6:_ZN9tesseract11TessBaseAPI20GetSourceYResolutionEv
gpcl6:_ZN9tesseract11TessBaseAPI20ProcessPagesFileListEP8_IO_FILEPNSt7__cxx1112basic_stringIcSt11char_traitsIcESaIcEEEPKciPNS_18TessResultRendererEi
gpcl6:_ZN9tesseract11TessBaseAPI20ProcessPagesInternalEPKcS2_iPNS_18TessResultRendererE
gpcl6:_ZN9tesseract11TessBaseAPI22GetConnectedComponentsEPP4Pixa
gpcl6:_ZN9tesseract11TessBaseAPI23ClearAdaptiveClassifierEv
gpcl6:_ZN9tesseract11TessBaseAPI23DetectOrientationScriptEPiPfPPKcS2_
gpcl6:_ZN9tesseract11TessBaseAPI24GetBlockTextOrientationsEPPiPPb
gpcl6:_ZN9tesseract11TessBaseAPI25ProcessPagesMultipageTiffEPKhmPKcS4_iPNS_18TessResultRendererEi
gpcl6:_ZN9tesseract11TessBaseAPI26set_min_orientation_marginEd
gpcl6:_ZN9tesseract11TessBaseAPI27SetProbabilityInContextFuncEMNS_4DictEFdPKcS3_iS3_iE
gpcl6:_ZN9tesseract11TessBaseAPI3EndEv
gpcl6:_ZN9tesseract11TessBaseAPI4InitEPKcS2_NS_13OcrEngineModeEPPciPKSt6vectorINSt7__cxx1112basic_stringIcSt11char_traitsIcESaIcEEESaISC_EESG_b
gpcl6:_ZN9tesseract11TessBaseAPI4InitEPKciS2_NS_13OcrEngineModeEPPciPKSt6vectorINSt7__cxx1112basic_stringIcSt11char_traitsIcESaIcEEESaISC_EESG_bPFbS2_PS6_IcSB_EE
gpcl6:_ZN9tesseract11TessBaseAPI5ClearEv
gpcl6:_ZN9tesseract11TessBaseAPI7VersionEv
gpcl6:_ZN9tesseract11TessBaseAPI8DetectOSEPNS_9OSResultsE
gpcl6:_ZN9tesseract11TessBaseAPI8GetWordsEPP4Pixa
gpcl6:_ZN9tesseract11TessBaseAPI8SetImageEP3Pix
gpcl6:_ZN9tesseract11TessBaseAPI8SetImageEPKhiiii
gpcl6:_ZN9tesseract11TessBaseAPI9FindLinesEv
gpcl6:_ZN9tesseract11TessBaseAPI9GetStripsEPP4PixaPPi
gpcl6:_ZN9tesseract11TessBaseAPI9RecognizeEPNS_10ETEXT_DESCE
gpcl6:_ZN9tesseract11TessBaseAPI9ThresholdEPP3Pix
gpcl6:_ZN9tesseract11TessBaseAPIC1Ev
gpcl6:_ZN9tesseract11TessBaseAPIC2Ev
gpcl6:_ZN9tesseract11TessBaseAPID0Ev
gpcl6:_ZN9tesseract11TessBaseAPID1Ev
gpcl6:_ZN9tesseract11TessBaseAPID2Ev
gpcl6:_ZN9tesseract11WERD_CHOICE10kBadRatingE
gpcl6:_ZN9tesseract11WERD_CHOICE13permuter_nameEh
gpcl6:_ZN9tesseract11WERD_CHOICE15set_blob_choiceEiiPKNS_11BLOB_CHOICEE
gpcl6:_ZN9tesseract11WERD_CHOICE16ScriptPositionOfEbRKNS_10UNICHARSETERKNS_4TBOXEi
gpcl6:_ZN9tesseract11WERD_CHOICE17append_unichar_idEiiff
gpcl6:_ZN9tesseract11WERD_CHOICE18SetScriptPositionsEPKNS_9ScriptPosEi
gpcl6:_ZN9tesseract11WERD_CHOICE18SetScriptPositionsEbPNS_5TWERDEi
gpcl6:_ZN9tesseract11WERD_CHOICE18remove_unichar_idsEii
gpcl6:_ZN9tesseract11WERD_CHOICE19UpdateStateForSplitEi
gpcl6:_ZN9tesseract11WERD_CHOICE21SetAllScriptPositionsENS_9ScriptPosE
gpcl6:_ZN9tesseract11WERD_CHOICE30reverse_and_mirror_unichar_idsEv
gpcl6:_ZN9tesseract11WERD_CHOICE4initEPKcS2_ffh
gpcl6:_ZN9tesseract11WERD_CHOICEC1EPKcRKNS_10UNICHARSETE
gpcl6:_ZN9tesseract11WERD_CHOICEC2EPKcRKNS_10UNICHARSETE
gpcl6:_ZN9tesseract11WERD_CHOICED1Ev
gpcl6:_ZN9tesseract11WERD_CHOICED2Ev
gpcl6:_ZN9tesseract11WERD_CHOICEaSERKS0_
gpcl6:_ZN9tesseract11WERD_CHOICEpLERKS0_
gpcl6:_ZN9tesseract11WERD_zapperEPNS_11ELIST2_LINKE
gpcl6:_ZN9tesseract11WordFeature11ComputeSizeERKNS_13GenericVectorIS0_EEPiS5_
gpcl6:_ZN9tesseract11WordFeature11DeSerializeEbP8_IO_FILE
gpcl6:_ZN9tesseract11WordFeature4DrawERKNS_13GenericVectorIS0_EEPNS_10ScrollViewE
gpcl6:_ZN9tesseract11WordFeatureC1ERKNS_6FCOORDEh
gpcl6:_ZN9tesseract11WordFeatureC1Ev
gpcl6:_ZN9tesseract11WordFeatureC2ERKNS_6FCOORDEh
gpcl6:_ZN9tesseract11WordFeatureC2Ev
gpcl6:_ZN9tesseract11blob_windowE
gpcl6:_ZN9tesseract11block_edgesEP3PixPNS_5PDBLKEPNS_12C_OUTLINE_ITE
gpcl6:_ZN9tesseract11expand_rowsENS_6ICOORDEPNS_8TO_BLOCKEfNS_6FCOORDEib
gpcl6:_ZN9tesseract11kCrownRightE
gpcl6:_ZN9tesseract11make_edgeptEiiPNS_6EDGEPTES1_
gpcl6:_ZN9tesseract11row_y_orderEPKvS1_
gpcl6:_ZN9tesseract12AddIntConfigEPNS_16INT_CLASS_STRUCTE
gpcl6:_ZN9tesseract12BLOCK_zapperEPNS_10ELIST_LINKE
gpcl6:_ZN9tesseract12BlamerBundle10JoinBlamesERKS0_S2_b
gpcl6:_ZN9tesseract12BlamerBundle12SetWordTruthERKNS_10UNICHARSETEPKcRKNS_4TBOXE
gpcl6:_ZN9tesseract12BlamerBundle14SetSymbolTruthERKNS_10UNICHARSETEPKcRKNS_4TBOXE
gpcl6:_ZN9tesseract12BlamerBundle15BlameClassifierERKNS_10UNICHARSETERKNS_4TBOXERKNS_16BLOB_CHOICE_LISTEb
gpcl6:_ZN9tesseract12BlamerBundle15FillDebugStringERKNS_6STRINGEPKNS_11WERD_CHOICEEPS1_
gpcl6:_ZN9tesseract12BlamerBundle15FinishSegSearchEPKNS_11WERD_CHOICEEbPNS_6STRINGE
gpcl6:_ZN9tesseract12BlamerBundle15LastChanceBlameEbPNS_8WERD_RESE
gpcl6:_ZN9tesseract12BlamerBundle15SetChopperBlameEPKNS_8WERD_RESEb
gpcl6:_ZN9tesseract12BlamerBundle16InitForSegSearchEPKNS_11WERD_CHOICEEPNS_6MATRIXEibPNS_6STRINGEPNS_12LMPainPointsEdPNS_8WERD_RESE
gpcl6:_ZN9tesseract12BlamerBundle16SetRejectedTruthEv
gpcl6:_ZN9tesseract12BlamerBundle18SetupNormTruthWordERKNS_6DENORME
gpcl6:_ZN9tesseract12BlamerBundle19IncorrectReasonNameENS_21IncorrectResultReasonE
gpcl6:_ZN9tesseract12BlamerBundle19SetMisAdaptionDebugEPKNS_11WERD_CHOICEEb
gpcl6:_ZN9tesseract12BlamerBundle24SetupCorrectSegmentationEPKNS_5TWERDEb
gpcl6:_ZN9tesseract12BlamerBundle26BlameClassifierOrLangModelEPKNS_8WERD_RESERKNS_10UNICHARSETEbb
gpcl6:_ZN9tesseract12CharNormDescE
gpcl6:_ZN9tesseract12ColPartition10AddPartnerEbPS0_
gpcl6:_ZN9tesseract12ColPartition10BiggestBoxEv
gpcl6:_ZN9tesseract12ColPartition10ClaimBoxesEv
gpcl6:_ZN9tesseract12ColPartition10SetLeftTabEPKNS_9TabVectorE
gpcl6:_ZN9tesseract12ColPartition11ColumnRangeEiPNS_15ColPartitionSetEPiS3_
gpcl6:_ZN9tesseract12ColPartition11CopyLeftTabERKS0_b
gpcl6:_ZN9tesseract12ColPartition11DeleteBoxesEv
gpcl6:_ZN9tesseract12ColPartition11DisownBoxesEv
gpcl6:_ZN9tesseract12ColPartition11LeftEdgeRunEPNS_15ColPartition_ITEPNS_6ICOORDES4_
gpcl6:_ZN9tesseract12ColPartition11PrintColorsEv
gpcl6:_ZN9tesseract12ColPartition11SetRightTabEPKNS_9TabVectorE
gpcl6:_ZN9tesseract12ColPartition11SplitAtBlobEPNS_8BLOBNBOXE
gpcl6:_ZN9tesseract12ColPartition12CopyRightTabERKS0_b
gpcl6:_ZN9tesseract12ColPartition12RightEdgeRunEPNS_15ColPartition_ITEPNS_6ICOORDES4_
gpcl6:_ZN9tesseract12ColPartition12SetBlobTypesEv
gpcl6:_ZN9tesseract12ColPartition13ComputeLimitsEv
gpcl6:_ZN9tesseract12ColPartition13FakePartitionERKNS_4TBOXENS_13PolyBlockTypeENS_14BlobRegionTypeENS_16BlobTextFlowTypeE
gpcl6:_ZN9tesseract12ColPartition13OKSpacingBlipEiiPPS0_i
gpcl6:_ZN9tesseract12ColPartition13RemovePartnerEbPS0_
gpcl6:_ZN9tesseract12ColPartition14OKMergeOverlapERKS0_S2_ib
gpcl6:_ZN9tesseract12ColPartition14RefinePartnersENS_13PolyBlockTypeEbPNS_16ColPartitionGridE
gpcl6:_ZN9tesseract12ColPartition14ReflectInYAxisEv
gpcl6:_ZN9tesseract12ColPartition14SmoothSpacingsEiiPNS_17ColPartition_LISTE
gpcl6:_ZN9tesseract12ColPartition15AddToWorkingSetERKNS_6ICOORDES3_iPNS_17ColPartition_LISTEPNS_19WorkingPartSet_LISTE
gpcl6:_ZN9tesseract12ColPartition15HasGoodBaselineEv
gpcl6:_ZN9tesseract12ColPartition16BoundsWithoutBoxEPNS_8BLOBNBOXE
gpcl6:_ZN9tesseract12ColPartition16MakeBigPartitionEPNS_8BLOBNBOXEPNS_17ColPartition_LISTE
gpcl6:_ZN9tesseract12ColPartition16OverlapSplitBlobERKNS_4TBOXE
gpcl6:_ZN9tesseract12ColPartition16SetPartitionTypeEiPNS_15ColPartitionSetE
gpcl6:_ZN9tesseract12ColPartition16SingletonPartnerEb
gpcl6:_ZN9tesseract12ColPartition16SmoothPartnerRunEi
gpcl6:_ZN9tesseract12ColPartition17LineSpacingBlocksERKNS_6ICOORDES3_iPNS_17ColPartition_LISTES5_PNS_10BLOCK_LISTEPNS_13TO_BLOCK_LISTE
gpcl6:_ZN9tesseract12ColPartition17MakeLinePartitionENS_14BlobRegionTypeERKNS_6ICOORDEiiii
gpcl6:_ZN9tesseract12ColPartition17SetColumnGoodnessESt8functionIFbiEE
gpcl6:_ZN9tesseract12ColPartition17SpecialBlobsCountENS_19BlobSpecialTextTypeE
gpcl6:_ZN9tesseract12ColPartition19CopyButDontOwnBlobsEv
gpcl6:_ZN9tesseract12ColPartition19DisownBoxesNoAssertEv
gpcl6:_ZN9tesseract12ColPartition19ThisPartitionBetterEPNS_8BLOBNBOXERKS0_
gpcl6:_ZN9tesseract12ColPartition20RefinePartnersByTypeEbPNS_18ColPartition_CLISTE
gpcl6:_ZN9tesseract12ColPartition21CountOverlappingBoxesERKNS_4TBOXE
gpcl6:_ZN9tesseract12ColPartition21MakeVerticalTextBlockERKNS_6ICOORDES3_PNS_17ColPartition_LISTES5_
gpcl6:_ZN9tesseract12ColPartition21ReleaseNonLeaderBoxesEv
gpcl6:_ZN9tesseract12ColPartition22RefinePartnerShortcutsEbPNS_18ColPartition_CLISTE
gpcl6:_ZN9tesseract12ColPartition22RefinePartnersInternalEbbPNS_16ColPartitionGridE
gpcl6:_ZN9tesseract12ColPartition22SetSpecialBlobsDensityENS_19BlobSpecialTextTypeEf
gpcl6:_ZN9tesseract12ColPartition23RefinePartnersByOverlapEbPNS_18ColPartition_CLISTE
gpcl6:_ZN9tesseract12ColPartition24MarkAsLeaderIfMonospacedEv
gpcl6:_ZN9tesseract12ColPartition25RefineTextPartnersByMergeEbbPNS_18ColPartition_CLISTEPNS_16ColPartitionGridE
gpcl6:_ZN9tesseract12ColPartition26ComputeSpecialBlobsDensityEv
gpcl6:_ZN9tesseract12ColPartition40SetRegionAndFlowTypesFromProjectionValueEi
gpcl6:_ZN9tesseract12ColPartition6AbsorbEPS0_St8functionIFbiEE
gpcl6:_ZN9tesseract12ColPartition6AddBoxEPNS_8BLOBNBOXE
gpcl6:_ZN9tesseract12ColPartition7IsLegalEv
gpcl6:_ZN9tesseract12ColPartition7SplitAtEi
gpcl6:_ZN9tesseract12ColPartition9MakeBlockERKNS_6ICOORDES3_PNS_17ColPartition_LISTES5_
gpcl6:_ZN9tesseract12ColPartition9MakeToRowEv
gpcl6:_ZN9tesseract12ColPartition9RemoveBoxEPNS_8BLOBNBOXE
gpcl6:_ZN9tesseract12ColPartitionC1ENS_14BlobRegionTypeERKNS_6ICOORDE
gpcl6:_ZN9tesseract12ColPartitionC2ENS_14BlobRegionTypeERKNS_6ICOORDE
gpcl6:_ZN9tesseract12ColPartitionD1Ev
gpcl6:_ZN9tesseract12ColPartitionD2Ev
gpcl6:_ZN9tesseract12ColumnFinder10FindBlocksENS_11PageSegModeEP3PixiPNS_8TO_BLOCKES3_S3_S3_PNS_9DebugPixaEPNS_10BLOCK_LISTEPNS_13BLOBNBOX_LISTEPNS_13TO_BLOCK_LISTE
gpcl6:_ZN9tesseract12ColumnFinder11MakeColumnsEb
gpcl6:_ZN9tesseract12ColumnFinder13AssignColumnsERKNS_13GenericVectorIPNS_15ColPartitionSetEEE
gpcl6:_ZN9tesseract12ColumnFinder13ReflectForRtlEPNS_8TO_BLOCKEPNS_13BLOBNBOX_LISTE
gpcl6:_ZN9tesseract12ColumnFinder16GetDeskewVectorsEPNS_6FCOORDES2_
gpcl6:_ZN9tesseract12ColumnFinder17AddToTempPartListEPNS_12ColPartitionEPNS_18ColPartition_CLISTE
gpcl6:_ZN9tesseract12ColumnFinder17EmptyTempPartListEPNS_18ColPartition_CLISTEPNS_19WorkingPartSet_LISTE
gpcl6:_ZN9tesseract12ColumnFinder17SetEquationDetectEPNS_18EquationDetectBaseE
gpcl6:_ZN9tesseract12ColumnFinder17SetPartitionTypesEv
gpcl6:_ZN9tesseract12ColumnFinder17SmoothPartnerRunsEv
gpcl6:_ZN9tesseract12ColumnFinder17TransformToBlocksEPNS_10BLOCK_LISTEPNS_13TO_BLOCK_LISTE
gpcl6:_ZN9tesseract12ColumnFinder18CorrectOrientationEPNS_8TO_BLOCKEbi
gpcl6:_ZN9tesseract12ColumnFinder19AssignColumnToRangeEiiiPPiS1_
gpcl6:_ZN9tesseract12ColumnFinder19GridMergePartitionsEv
gpcl6:_ZN9tesseract12ColumnFinder19GridSplitPartitionsEv
gpcl6:_ZN9tesseract12ColumnFinder19RangeModalColumnSetEPPiPKiii
gpcl6:_ZN9tesseract12ColumnFinder19SetupAndFilterNoiseENS_11PageSegModeEP3PixPNS_8TO_BLOCKE
gpcl6:_ZN9tesseract12ColumnFinder20ComputeMeanColumnGapEb
gpcl6:_ZN9tesseract12ColumnFinder20InsertRemainingNoiseEPNS_8TO_BLOCKE
gpcl6:_ZN9tesseract12ColumnFinder21PrintColumnCandidatesEPKc
gpcl6:_ZN9tesseract12ColumnFinder21RotateAndReskewBlocksEbPNS_13TO_BLOCK_LISTE
gpcl6:_ZN9tesseract12ColumnFinder22BiggestUnassignedRangeEiPKbPiS3_
gpcl6:_ZN9tesseract12ColumnFinder23ImproveColumnCandidatesEPNS_13GenericVectorIPNS_15ColPartitionSetEEES5_
gpcl6:_ZN9tesseract12ColumnFinder23IsVerticallyAlignedTextEdPNS_8TO_BLOCKEPNS_14BLOBNBOX_CLISTE
gpcl6:_ZN9tesseract12ColumnFinder23ShrinkRangeToLongestRunEPPiPKiPKbiS1_S1_
gpcl6:_ZN9tesseract12ColumnFinder24ExtendRangePastSmallGapsEPPiPKiPKbiiiS1_
gpcl6:_ZN9tesseract12ColumnFinder25GridInsertHLinePartitionsEv
gpcl6:_ZN9tesseract12ColumnFinder25GridInsertVLinePartitionsEv
gpcl6:_ZN9tesseract12ColumnFinder28ReleaseBlobsAndCleanupUnusedEPNS_8TO_BLOCKE
gpcl6:_ZN9tesseract12ColumnFinder29GridRemoveUnderlinePartitionsEv
gpcl6:_ZN9tesseract12ColumnFinder31ComputeBlockAndClassifyRotationEPNS_5BLOCKE
gpcl6:_ZN9tesseract12ColumnFinderC1EiRKNS_6ICOORDES3_ibdPNS_14TabVector_LISTES5_ii
gpcl6:_ZN9tesseract12ColumnFinderC2EiRKNS_6ICOORDES3_ibdPNS_14TabVector_LISTES5_ii
gpcl6:_ZN9tesseract12ColumnFinderD0Ev
gpcl6:_ZN9tesseract12ColumnFinderD1Ev
gpcl6:_ZN9tesseract12ColumnFinderD2Ev
gpcl6:_ZN9tesseract12DocumentData11SetDocumentEPKclPFbS2_PSt6vectorIcSaIcEEE
gpcl6:_ZN9tesseract12DocumentData12LoadDocumentEPKcilPFbS2_PSt6vectorIcSaIcEEE
gpcl6:_ZN9tesseract12DocumentData12ReCachePagesEv
gpcl6:_ZN9tesseract12DocumentData12SaveDocumentEPKcPFbRKSt6vectorIcSaIcEES2_E
gpcl6:_ZN9tesseract12DocumentData15IsPageAvailableEiPPNS_9ImageDataE
gpcl6:_ZN9tesseract12DocumentData17AddPageToDocumentEPNS_9ImageDataE
gpcl6:_ZN9tesseract12DocumentData20LoadPageInBackgroundEi
gpcl6:_ZN9tesseract12DocumentData7GetPageEi
gpcl6:_ZN9tesseract12DocumentData7ShuffleEv
gpcl6:_ZN9tesseract12DocumentData7UnCacheEv
gpcl6:_ZN9tesseract12DocumentDataC1ERKNS_6STRINGE
gpcl6:_ZN9tesseract12DocumentDataC2ERKNS_6STRINGE
gpcl6:_ZN9tesseract12DocumentDataD1Ev
gpcl6:_ZN9tesseract12DocumentDataD2Ev
gpcl6:_ZN9tesseract12FPSEGPT_LIST9deep_copyEPKS0_PFPNS_7FPSEGPTEPKS3_E
gpcl6:_ZN9tesseract12FreeOutlinesEPNS_8list_recE
gpcl6:_ZN9tesseract12GlobalParamsEv
gpcl6:_ZN9tesseract12IndexMapBiDi11DeSerializeEbP8_IO_FILE
gpcl6:_ZN9tesseract12IndexMapBiDi14CompleteMergesEv
gpcl6:_ZN9tesseract12IndexMapBiDi17InitAndSetupRangeEiii
gpcl6:_ZN9tesseract12IndexMapBiDi4InitEib
gpcl6:_ZN9tesseract12IndexMapBiDi5MergeEii
gpcl6:_ZN9tesseract12IndexMapBiDi5SetupEv
gpcl6:_ZN9tesseract12IndexMapBiDi6SetMapEib
gpcl6:_ZN9tesseract12IndexMapBiDi8CopyFromERKS0_
gpcl6:_ZN9tesseract12IndexMapBiDiD0Ev
gpcl6:_ZN9tesseract12IndexMapBiDiD1Ev
gpcl6:_ZN9tesseract12IndexMapBiDiD2Ev
gpcl6:_ZN9tesseract12KDTreeSearch19BoxIntersectsSearchEPfS1_
gpcl6:_ZN9tesseract12KDTreeSearch6SearchEPiPfPPv
gpcl6:_ZN9tesseract12KDTreeSearch9SearchRecEiPNS_6KDNODEE
gpcl6:_ZN9tesseract12KDTreeSearchC1EPNS_6KDTREEEPfi
gpcl6:_ZN9tesseract12KDTreeSearchC2EPNS_6KDTREEEPfi
gpcl6:_ZN9tesseract12KDTreeSearchD1Ev
gpcl6:_ZN9tesseract12KDTreeSearchD2Ev
gpcl6:_ZN9tesseract12LMPainPoints13RemapForSplitEi
gpcl6:_ZN9tesseract12LMPainPoints15GenerateInitialEPNS_8WERD_RESE
gpcl6:_ZN9tesseract12LMPainPoints16GenerateFromPathEfPNS_17ViterbiStateEntryEPNS_8WERD_RESE
gpcl6:_ZN9tesseract12LMPainPoints17GeneratePainPointEiiNS_16LMPainPointsTypeEfbfPNS_8WERD_RESE
gpcl6:_ZN9tesseract12LMPainPoints18GenerateFromAmbigsERKNS_13GenericVectorINS_12DANGERR_INFOEEEPNS_17ViterbiStateEntryEPNS_8WERD_RESE
gpcl6:_ZN9tesseract12LMPainPoints20kLooseMaxCharWhRatioE
gpcl6:_ZN9tesseract12LMPainPoints35kDefaultPainPointPriorityAdjustmentE
gpcl6:_ZN9tesseract12LMPainPoints5DequeEPNS_12MATRIX_COORDEPf
gpcl6:_ZN9tesseract12NewEdgePointEv
gpcl6:_ZN9tesseract12NewTempProtoEv
gpcl6:_ZN9tesseract12PageIterator10RestartRowEv
gpcl6:_ZN9tesseract12PageIterator16RestartParagraphEv
gpcl6:_ZN9tesseract12PageIterator19SetWordBlamerBundleEPNS_12BlamerBundleE
gpcl6:_ZN9tesseract12PageIterator4NextENS_17PageIteratorLevelE
gpcl6:_ZN9tesseract12PageIterator5BeginEv
gpcl6:_ZN9tesseract12PageIterator9BeginWordEi
gpcl6:_ZN9tesseract12PageIteratorC1EPNS_8PAGE_RESEPNS_9TesseractEiiiiii
gpcl6:_ZN9tesseract12PageIteratorC1ERKS0_
gpcl6:_ZN9tesseract12PageIteratorC2EPNS_8PAGE_RESEPNS_9TesseractEiiiiii
gpcl6:_ZN9tesseract12PageIteratorC2ERKS0_
gpcl6:_ZN9tesseract12PageIteratorD0Ev
gpcl6:_ZN9tesseract12PageIteratorD1Ev
gpcl6:_ZN9tesseract12PageIteratorD2Ev
gpcl6:_ZN9tesseract12PageIteratoraSERKS0_
gpcl6:_ZN9tesseract12PicoFeatDescE
gpcl6:_ZN9tesseract12ROW_RES_LIST9deep_copyEPKS0_PFPNS_7ROW_RESEPKS3_E
gpcl6:_ZN9tesseract12ReadAllBoxesEibPKcPSt6vectorINS_4TBOXESaIS3_EEPS2_INS_6STRINGESaIS7_EESA_PS2_IiSaIiEE
gpcl6:_ZN9tesseract12ReadMemBoxesEibPKcbPSt6vectorINS_4TBOXESaIS3_EEPS2_INS_6STRINGESaIS7_EESA_PS2_IiSaIiEE
gpcl6:_ZN9tesseract12RowsFitModelEPKNS_13GenericVectorINS_19RowScratchRegistersEEEiiPKNS_14ParagraphModelE
gpcl6:_ZN9tesseract12SquishedDawg18read_squished_dawgEPNS_5TFileE
gpcl6:_ZN9tesseract12SquishedDawg19write_squished_dawgEPNS_5TFileE
gpcl6:_ZN9tesseract12SquishedDawgD0Ev
gpcl6:_ZN9tesseract12SquishedDawgD1Ev
gpcl6:_ZN9tesseract12SquishedDawgD2Ev
gpcl6:_ZN9tesseract12WeightMatrix11DeSerializeEbPNS_5TFileE
gpcl6:_ZN9tesseract12WeightMatrix12ConvertToIntEv
gpcl6:_ZN9tesseract12WeightMatrix12InitBackwardEv
gpcl6:_ZN9tesseract12WeightMatrix12RemapOutputsERKSt6vectorIiSaIiEE
gpcl6:_ZN9tesseract12WeightMatrix13FloatToDoubleERKNS_16GENERIC_2D_ARRAYIfEEPNS1_IdEE
gpcl6:_ZN9tesseract12WeightMatrix14DeSerializeOldEbPNS_5TFileE
gpcl6:_ZN9tesseract12WeightMatrix16InitWeightsFloatEiibfPNS_5TRandE
gpcl6:_ZN9tesseract12WeightMatrix18MultiplyAccumulateEPKdPd
gpcl6:_ZN9tesseract12WeightMatrix18SumOuterTransposedERKNS_15TransposedArrayES3_b
gpcl6:_ZN9tesseract12WeightMatrix6UpdateEdddi
gpcl6:_ZN9tesseract12WeightMatrix7Debug2DEPKc
gpcl6:_ZN9tesseract12WeightMatrix9AddDeltasERKS0_
gpcl6:_ZN9tesseract12blob_x_orderEPKvS1_
gpcl6:_ZN9tesseract12divide_blobsEPNS_5TBLOBES1_bRKNS_6TPOINTE
gpcl6:_ZN9tesseract12fill_bucketsEPNS_14C_OUTLINE_LISTEPNS_10OL_BUCKETSE
gpcl6:_ZN9tesseract12fill_heightsEPNS_6TO_ROWEfiiPNS_5STATSES3_
gpcl6:_ZN9tesseract12fit_lms_lineEPNS_6TO_ROWE
gpcl6:_ZN9tesseract12fixspace_dbgEPNS_8WERD_RESE
gpcl6:_ZN9tesseract12gapmap_debugE
gpcl6:_ZN9tesseract12swap_entriesEPvmii
gpcl6:_ZN9tesseract13BLOBNBOX_LIST9deep_copyEPKS0_PFPNS_8BLOBNBOXEPKS3_E
gpcl6:_ZN9tesseract13BLOCK_LINE_IT8get_lineEsRs
gpcl6:_ZN9tesseract13BLOCK_RECT_IT11start_blockEv
gpcl6:_ZN9tesseract13BLOCK_RECT_IT12set_to_blockEPNS_5PDBLKE
gpcl6:_ZN9tesseract13BLOCK_RECT_IT7forwardEv
gpcl6:_ZN9tesseract13BLOCK_RECT_ITC1EPNS_5PDBLKE
gpcl6:_ZN9tesseract13BLOCK_RECT_ITC2EPNS_5PDBLKE
gpcl6:_ZN9tesseract13BaselineBlock13DrawPixSplineEP3Pix
gpcl6:_ZN9tesseract13BaselineBlock17RefineLineSpacingERKNS_13GenericVectorIdEE
gpcl6:_ZN9tesseract13BaselineBlock17SpacingModelErrorEddd
gpcl6:_ZN9tesseract13BaselineBlock18ComputeLineSpacingEv
gpcl6:_ZN9tesseract13BaselineBlock18FitBaselineSplinesEbbPNS_7TextordE
gpcl6:_ZN9tesseract13BaselineBlock19EstimateLineSpacingEv
gpcl6:_ZN9tesseract13BaselineBlock19FitLineSpacingModelERKNS_13GenericVectorIdEEdPdS5_Pi
gpcl6:_ZN9tesseract13BaselineBlock20ParallelizeBaselinesEd
gpcl6:_ZN9tesseract13BaselineBlock23FitBaselinesAndFindSkewEb
gpcl6:_ZN9tesseract13BaselineBlock23PrepareForSplineFittingENS_6ICOORDEb
gpcl6:_ZN9tesseract13BaselineBlock24ComputeBaselinePositionsERKNS_6FCOORDEPNS_13GenericVectorIdEE
gpcl6:_ZN9tesseract13BaselineBlockC1EibPNS_8TO_BLOCKE
gpcl6:_ZN9tesseract13BaselineBlockC2EibPNS_8TO_BLOCKE
gpcl6:_ZN9tesseract13CHAR_FRAGMENT17parse_from_stringEPKc
gpcl6:_ZN9tesseract13CHAR_FRAGMENT9to_stringEPKciib
gpcl6:_ZN9tesseract13C_BLOB_zapperEPNS_10ELIST_LINKE
gpcl6:_ZN9tesseract13CircBucketForEffi
gpcl6:_ZN9tesseract13ConvertConfigEPjiPNS_16INT_CLASS_STRUCTE
gpcl6:_ZN9tesseract13DocumentCache10AddToCacheEPNS_12DocumentDataE
gpcl6:_ZN9tesseract13DocumentCache10TotalPagesEv
gpcl6:_ZN9tesseract13DocumentCache13LoadDocumentsERKSt6vectorINS_6STRINGESaIS2_EENS_15CachingStrategyEPFbPKcPS1_IcSaIcEEE
gpcl6:_ZN9tesseract13DocumentCache17GetPageRoundRobinEi
gpcl6:_ZN9tesseract13DocumentCache17GetPageSequentialEi
gpcl6:_ZN9tesseract13DocumentCache18CountNeighbourDocsEii
gpcl6:_ZN9tesseract13DocumentCacheC1El
gpcl6:_ZN9tesseract13DocumentCacheC2El
gpcl6:_ZN9tesseract13DocumentCacheD1Ev
gpcl6:_ZN9tesseract13DocumentCacheD2Ev
gpcl6:_ZN9tesseract13DotProductAVXEPKdS1_i
gpcl6:_ZN9tesseract13DotProductFMAEPKdS1_i
gpcl6:_ZN9tesseract13DotProductSSEEPKdS1_i
gpcl6:_ZN9tesseract13ExtractMicrosEPNS_5TBLOBERKNS_6DENORME
gpcl6:_ZN9tesseract13FontInfoTable11DeSerializeEPNS_5TFileE
gpcl6:_ZN9tesseract13FontInfoTable19MoveSpacingInfoFromEPS0_
gpcl6:_ZN9tesseract13FontInfoTable6MoveToEPNS_12UnicityTableINS_8FontInfoEEE
gpcl6:_ZN9tesseract13FontInfoTableC1Ev
gpcl6:_ZN9tesseract13FontInfoTableC2Ev
gpcl6:_ZN9tesseract13FontInfoTableD1Ev
gpcl6:_ZN9tesseract13FontInfoTableD2Ev
gpcl6:_ZN9tesseract13FreeClustererEPNS_9CLUSTERERE
gpcl6:_ZN9tesseract13FreeMFOutlineEPv
gpcl6:_ZN9tesseract13FreeProtoListEPPNS_8list_recE
gpcl6:_ZN9tesseract13FreePrototypeEPv
gpcl6:_ZN9tesseract13FreeTempProtoEPv
gpcl6:_ZN9tesseract13FullPageBlockEiiPNS_10BLOCK_LISTE
gpcl6:_ZN9tesseract13HistogramRectEP3PixiiiiiPi
gpcl6:_ZN9tesseract13InitIntegerFXEv
gpcl6:_ZN9tesseract13IntSimdMatrix13intSimdMatrixE
gpcl6:_ZN9tesseract13IntSimdMatrix15MatrixDotVectorERKNS_16GENERIC_2D_ARRAYIaEERKSt6vectorIdSaIdEEPKaPd
gpcl6:_ZN9tesseract13IntSimdMatrix16intSimdMatrixSSEE
gpcl6:_ZN9tesseract13IntSimdMatrix17intSimdMatrixAVX2E
gpcl6:_ZN9tesseract13LanguageModel11InitForWordEPKNS_11WERD_CHOICEEbff
gpcl6:_ZN9tesseract13LanguageModel11UpdateStateEbiiPNS_16BLOB_CHOICE_LISTEPNS_18LanguageModelStateEPNS_12LMPainPointsEPNS_8WERD_RESEPNS_16BestChoiceBundleEPNS_12BlamerBundleE
gpcl6:_ZN9tesseract13LanguageModel12ComputeDenomEPNS_16BLOB_CHOICE_LISTE
gpcl6:_ZN9tesseract13LanguageModel13ConstructWordEPNS_17ViterbiStateEntryEPNS_8WERD_RESEPNS_13GenericVectorINS_12DANGERR_INFOEEEPNS_12BlamerBundleEPb
gpcl6:_ZN9tesseract13LanguageModel16ComputeNgramCostEPKcffS2_PiPbPf
gpcl6:_ZN9tesseract13LanguageModel16GenerateDawgInfoEbiiRKNS_11BLOB_CHOICEEPKNS_17ViterbiStateEntryE
gpcl6:_ZN9tesseract13LanguageModel16UpdateBestChoiceEPNS_17ViterbiStateEntryEPNS_12LMPainPointsEPNS_8WERD_RESEPNS_16BestChoiceBundleEPNS_12BlamerBundleE
gpcl6:_ZN9tesseract13LanguageModel16kMaxAvgNgramCostE
gpcl6:_ZN9tesseract13LanguageModel17GenerateNgramInfoEPKcffiifPKNS_17ViterbiStateEntryE
gpcl6:_ZN9tesseract13LanguageModel19FillConsistencyInfoEibPNS_11BLOB_CHOICEEPNS_17ViterbiStateEntryEPNS_8WERD_RESEPNS_17LMConsistencyInfoE
gpcl6:_ZN9tesseract13LanguageModel20AddViterbiStateEntryEhfbiiPNS_11BLOB_CHOICEEPNS_18LanguageModelStateEPNS_17ViterbiStateEntryEPNS_12LMPainPointsEPNS_8WERD_RESEPNS_16BestChoiceBundleEPNS_12BlamerBundleE
gpcl6:_ZN9tesseract13LanguageModel21GenerateTopChoiceInfoEPNS_17ViterbiStateEntryEPKS1_PNS_18LanguageModelStateE
gpcl6:_ZN9tesseract13LanguageModel23ComputeAdjustedPathCostEPNS_17ViterbiStateEntryE
gpcl6:_ZN9tesseract13LanguageModel23ExtractFeaturesFromPathERKNS_17ViterbiStateEntryEPf
gpcl6:_ZN9tesseract13LanguageModelC1EPKNS_12UnicityTableINS_8FontInfoEEEPNS_4DictE
gpcl6:_ZN9tesseract13LanguageModelC2EPKNS_12UnicityTableINS_8FontInfoEEEPNS_4DictE
gpcl6:_ZN9tesseract13LanguageModelD1Ev
gpcl6:_ZN9tesseract13LanguageModelD2Ev
gpcl6:_ZN9tesseract13LogisticTableE
gpcl6:_ZN9tesseract13MakeClustererEsPKNS_10PARAM_DESCE
gpcl6:_ZN9tesseract13MergeClustersEsPNS_10PARAM_DESCEiiPfS2_S2_
gpcl6:_ZN9tesseract13NewFeatureSetEi
gpcl6:_ZN9tesseract13NewTempConfigEii
gpcl6:_ZN9tesseract13NextExtremityEPNS_8list_recE
gpcl6:_ZN9tesseract13OtsuThresholdEP3PixiiiiPPiS3_
gpcl6:_ZN9tesseract13ReadParamDescEPNS_5TFileEt
gpcl6:_ZN9tesseract13ReadPrototypeEPNS_5TFileEt
gpcl6:_ZN9tesseract13SORTED_FLOATS3addEfi
gpcl6:_ZN9tesseract13SORTED_FLOATS6removeEi
gpcl6:_ZN9tesseract13SORTED_FLOATSixEi
gpcl6:_ZN9tesseract13TO_BLOCK_LIST9deep_copyEPKS0_PFPNS_8TO_BLOCKEPKS3_E
gpcl6:_ZN9tesseract13TO_ROW_zapperEPNS_11ELIST2_LINKE
gpcl6:_ZN9tesseract13TabConstraint14GetConstraintsEPNS_18TabConstraint_LISTEPiS3_
gpcl6:_ZN9tesseract13TabConstraint16ApplyConstraintsEPNS_18TabConstraint_LISTE
gpcl6:_ZN9tesseract13TabConstraint16CreateConstraintEPNS_9TabVectorEb
gpcl6:_ZN9tesseract13TabConstraint16MergeConstraintsEPNS_18TabConstraint_LISTES2_
gpcl6:_ZN9tesseract13TabConstraint21CompatibleConstraintsEPNS_18TabConstraint_LISTES2_
gpcl6:_ZN9tesseract13TabConstraintC1EPNS_9TabVectorEb
gpcl6:_ZN9tesseract13TabConstraintC2EPNS_9TabVectorEb
gpcl6:_ZN9tesseract13UnicharAmbigs13LoadUniversalERKNS_10UNICHARSETEPS1_
gpcl6:_ZN9tesseract13UnicharAmbigs15InsertIntoTableERNS_13GenericVectorIPNS_14AmbigSpec_LISTEEEiPiiPKciPNS_9AmbigSpecEPNS_10UNICHARSETE
gpcl6:_ZN9tesseract13UnicharAmbigs17InitUnicharAmbigsERKNS_10UNICHARSETEb
gpcl6:_ZN9tesseract13UnicharAmbigs17LoadUnicharAmbigsERKNS_10UNICHARSETEPNS_5TFileEibPS1_
gpcl6:_ZN9tesseract13UnicharAmbigs18ParseAmbiguityLineEiiiRKNS_10UNICHARSETEPcPiS5_S5_S4_S5_
gpcl6:_ZN9tesseract13UnicharRating22FirstResultWithUnicharERKNS_13GenericVectorIS0_EEi
gpcl6:_ZN9tesseract13ValidBodyLineEPKNS_13GenericVectorINS_19RowScratchRegistersEEEiPKNS_14ParagraphModelE
gpcl6:_ZN9tesseract13WERD_RES_LIST9deep_copyEPKS0_PFPNS_8WERD_RESEPKS3_E
gpcl6:_ZN9tesseract13complete_edgeEPNS_9CRACKEDGEEPNS_12C_OUTLINE_ITE
gpcl6:_ZN9tesseract13crotate_cblobEPNS_6C_BLOBENS_6FCOORDE
gpcl6:_ZN9tesseract13destroy_nodesEPNS_8list_recEPFvPvE
gpcl6:_ZN9tesseract13empty_bucketsEPNS_5BLOCKEPNS_10OL_BUCKETSE
gpcl6:_ZN9tesseract13extract_edgesEP3PixPNS_5BLOCKE
gpcl6:_ZN9tesseract13fix_row_pitchEPNS_6TO_ROWEPNS_8TO_BLOCKEPNS_13TO_BLOCK_LISTEii
gpcl6:_ZN9tesseract13pick_x_heightEPNS_6TO_ROWEPiS2_S2_PNS_5STATSEi
gpcl6:_ZN9tesseract13reject_blanksEPNS_8WERD_RESE
gpcl6:_ZN9tesseract13remove_edgeptEPNS_6EDGEPTE
gpcl6:_ZN9tesseract13split_to_blobEPNS_8BLOBNBOXEsfPNS_14C_OUTLINE_LISTES3_
gpcl6:_ZN9tesseract13textord_minxhE
gpcl6:_ZN9tesseract13try_doc_fixedENS_6ICOORDEPNS_13TO_BLOCK_LISTEf
gpcl6:_ZN9tesseract14AmbigSpec_LIST9deep_copyEPKS0_PFPNS_9AmbigSpecEPKS3_E
gpcl6:_ZN9tesseract14AssociateUtils12ComputeStatsEiiPKNS_14AssociateStatsEibfPNS_8WERD_RESEbPS1_
gpcl6:_ZN9tesseract14AssociateUtils19FixedPitchWidthCostEffbf
gpcl6:_ZN9tesseract14AssociateUtils29kMaxFixedPitchCharAspectRatioE
gpcl6:_ZN9tesseract14AssociateUtils7kMinGapE
gpcl6:_ZN9tesseract14BLOCK_RES_LIST9deep_copyEPKS0_PFPNS_9BLOCK_RESEPKS3_E
gpcl6:_ZN9tesseract14BaselineDetect24ComputeStraightBaselinesEb
gpcl6:_ZN9tesseract14BaselineDetect33ComputeBaselineSplinesAndXheightsERKNS_6ICOORDEbbbPNS_7TextordE
gpcl6:_ZN9tesseract14BaselineDetectC1EiRKNS_6FCOORDEPNS_13TO_BLOCK_LISTE
gpcl6:_ZN9tesseract14BaselineDetectC2EiRKNS_6FCOORDEPNS_13TO_BLOCK_LISTE
gpcl6:_ZN9tesseract14CLIST_ITERATOR12move_to_lastEv
gpcl6:_ZN9tesseract14CLIST_ITERATOR13data_relativeEa
gpcl6:_ZN9tesseract14CLIST_ITERATOR15extract_sublistEPS0_
gpcl6:_ZN9tesseract14CLIST_ITERATOR7forwardEv
gpcl6:_ZN9tesseract14CLIST_ITERATOR8exchangeEPS0_
gpcl6:_ZN9tesseract14C_OUTLINE_FRAG5closeEv
gpcl6:_ZN9tesseract14C_OUTLINE_FRAGC1ENS_6ICOORDES1_PNS_9C_OUTLINEEss
gpcl6:_ZN9tesseract14C_OUTLINE_FRAGC1EPS0_s
gpcl6:_ZN9tesseract14C_OUTLINE_FRAGC2ENS_6ICOORDES1_PNS_9C_OUTLINEEss
gpcl6:_ZN9tesseract14C_OUTLINE_FRAGC2EPS0_s
gpcl6:_ZN9tesseract14C_OUTLINE_FRAGaSERKS0_
gpcl6:_ZN9tesseract14C_OUTLINE_LIST9deep_copyEPKS0_PFPNS_9C_OUTLINEEPKS3_E
gpcl6:_ZN9tesseract14ChoiceIterator12filterSpacesEv
gpcl6:_ZN9tesseract14ChoiceIterator4NextEv
gpcl6:_ZN9tesseract14ChoiceIteratorC1ERKNS_17LTRResultIteratorE
gpcl6:_ZN9tesseract14ChoiceIteratorC2ERKNS_17LTRResultIteratorE
gpcl6:_ZN9tesseract14ChoiceIteratorD1Ev
gpcl6:_ZN9tesseract14ChoiceIteratorD2Ev
gpcl6:_ZN9tesseract14ClusterSamplesEPNS_9CLUSTEREREPNS_13CLUSTERCONFIGE
gpcl6:_ZN9tesseract14ConvertOutlineEPNS_8TESSLINEE
gpcl6:_ZN9tesseract14ELIST_ITERATOR12move_to_lastEv
gpcl6:_ZN9tesseract14ELIST_ITERATOR13data_relativeEa
gpcl6:_ZN9tesseract14ELIST_ITERATOR15extract_sublistEPS0_
gpcl6:_ZN9tesseract14ELIST_ITERATOR7forwardEv
gpcl6:_ZN9tesseract14ELIST_ITERATOR8exchangeEPS0_
gpcl6:_ZN9tesseract14EquationDetect10ExpandSeedEPNS_12ColPartitionE
gpcl6:_ZN9tesseract14EquationDetect10IsIndentedEPNS_12ColPartitionE
gpcl6:_ZN9tesseract14EquationDetect10SplitCPHorEPNS_12ColPartitionEPNS_13GenericVectorIS2_EE
gpcl6:_ZN9tesseract14EquationDetect13CheckForSeed2ERKNS_13GenericVectorIiEEfPNS_12ColPartitionE
gpcl6:_ZN9tesseract14EquationDetect13SetResolutionEi
gpcl6:_ZN9tesseract14EquationDetect14SplitCPHorLiteEPNS_12ColPartitionEPNS_13GenericVectorINS_4TBOXEEE
gpcl6:_ZN9tesseract14EquationDetect15SearchByOverlapEPNS_12ColPartitionEPNS_13GenericVectorIS2_EE
gpcl6:_ZN9tesseract14EquationDetect16LabelSpecialTextEPNS_8TO_BLOCKE
gpcl6:_ZN9tesseract14EquationDetect16SearchNNVerticalEbPKNS_12ColPartitionE
gpcl6:_ZN9tesseract14EquationDetect16SetLangTesseractEPNS_9TesseractE
gpcl6:_ZN9tesseract14EquationDetect17FindEquationPartsEPNS_16ColPartitionGridEPPNS_15ColPartitionSetE
gpcl6:_ZN9tesseract14EquationDetect17IdentifySeedPartsEv
gpcl6:_ZN9tesseract14EquationDetect18CheckSeedFgDensityEfPNS_12ColPartitionE
gpcl6:_ZN9tesseract14EquationDetect18ExpandSeedVerticalEbPNS_12ColPartitionEPNS_13GenericVectorIS2_EE
gpcl6:_ZN9tesseract14EquationDetect19CheckSeedBlobsCountEPNS_12ColPartitionE
gpcl6:_ZN9tesseract14EquationDetect19ComputeCPsSuperBBoxEv
gpcl6:_ZN9tesseract14EquationDetect19IdentifyBlobsToSkipEPNS_12ColPartitionE
gpcl6:_ZN9tesseract14EquationDetect19IdentifyInlinePartsEv
gpcl6:_ZN9tesseract14EquationDetect19IdentifySpecialTextEPNS_8BLOBNBOXEi
gpcl6:_ZN9tesseract14EquationDetect19IdentifySpecialTextEv
gpcl6:_ZN9tesseract14EquationDetect20ExpandSeedHorizontalEbPNS_12ColPartitionEPNS_13GenericVectorIS2_EE
gpcl6:_ZN9tesseract14EquationDetect20IsMathBlockSatelliteEPNS_12ColPartitionEPNS_13GenericVectorIS2_EE
gpcl6:_ZN9tesseract14EquationDetect20MergePartsByLocationEv
gpcl6:_ZN9tesseract14EquationDetect21InsertPartAfterAbsorbEPNS_12ColPartitionE
gpcl6:_ZN9tesseract14EquationDetect24ComputeForegroundDensityERKNS_4TBOXE
gpcl6:_ZN9tesseract14EquationDetect27EstimateTextPartLineSpacingEv
gpcl6:_ZN9tesseract14EquationDetect27IdentifyInlinePartsVerticalEbi
gpcl6:_ZN9tesseract14EquationDetect29IdentifyInlinePartsHorizontalEv
gpcl6:_ZN9tesseract14EquationDetect30ProcessMathBlockSatellitePartsEv
gpcl6:_ZN9tesseract14EquationDetect8IsInlineEbiPNS_12ColPartitionE
gpcl6:_ZN9tesseract14EquationDetectC1EPKcS2_
gpcl6:_ZN9tesseract14EquationDetectC2EPKcS2_
gpcl6:_ZN9tesseract14EquationDetectD0Ev
gpcl6:_ZN9tesseract14EquationDetectD1Ev
gpcl6:_ZN9tesseract14EquationDetectD2Ev
gpcl6:_ZN9tesseract14FPSEGPT_zapperEPNS_10ELIST_LINKE
gpcl6:_ZN9tesseract14FreeFeatureSetEPNS_18FEATURE_SET_STRUCTE
gpcl6:_ZN9tesseract14FreeTempConfigEPNS_18TEMP_CONFIG_STRUCTE
gpcl6:_ZN9tesseract14FullyConnected11DeSerializeEPNS_5TFileE
gpcl6:_ZN9tesseract14FullyConnected11InitWeightsEfPNS_5TRandE
gpcl6:_ZN9tesseract14FullyConnected12ConvertToIntEv
gpcl6:_ZN9tesseract14FullyConnected12DebugWeightsEv
gpcl6:_ZN9tesseract14FullyConnected12RemapOutputsEiRKSt6vectorIiSaIiEE
gpcl6:_ZN9tesseract14FullyConnected12SetupForwardERKNS_9NetworkIOEPKNS_15TransposedArrayE
gpcl6:_ZN9tesseract14FullyConnected14FinishBackwardERKNS_15TransposedArrayE
gpcl6:_ZN9tesseract14FullyConnected15ForwardTimeStepEPKaiPd
gpcl6:_ZN9tesseract14FullyConnected15ForwardTimeStepEPKdiPd
gpcl6:_ZN9tesseract14FullyConnected15ForwardTimeStepEiPd
gpcl6:_ZN9tesseract14FullyConnected16BackwardTimeStepERKNS_9NetworkIOEiPdPNS_15TransposedArrayES4_
gpcl6:_ZN9tesseract14FullyConnected17SetEnableTrainingENS_13TrainingStateE
gpcl6:_ZN9tesseract14FullyConnected6UpdateEfffi
gpcl6:_ZN9tesseract14FullyConnected7ForwardEbRKNS_9NetworkIOEPKNS_15TransposedArrayEPNS_14NetworkScratchEPS1_
gpcl6:_ZN9tesseract14FullyConnected8BackwardEbRKNS_9NetworkIOEPNS_14NetworkScratchEPS1_
gpcl6:_ZN9tesseract14FullyConnectedC1ERKNSt7__cxx1112basic_stringIcSt11char_traitsIcESaIcEEEiiNS_11NetworkTypeE
gpcl6:_ZN9tesseract14FullyConnectedC2ERKNSt7__cxx1112basic_stringIcSt11char_traitsIcESaIcEEEiiNS_11NetworkTypeE
gpcl6:_ZN9tesseract14ICOORDELT_LIST9deep_copyEPKS0_PFPNS_9ICOORDELTEPKS3_E
gpcl6:_ZN9tesseract14IntegerMatcher13FindBestMatchEPNS_16INT_CLASS_STRUCTERKNS_15ScratchEvidenceEPNS_13UnicharRatingE
gpcl6:_ZN9tesseract14IntegerMatcher14FindGoodProtosEPNS_16INT_CLASS_STRUCTEPjS3_sPNS_18INT_FEATURE_STRUCTEPsii
gpcl6:_ZN9tesseract14IntegerMatcher15FindBadFeaturesEPNS_16INT_CLASS_STRUCTEPjS3_sPNS_18INT_FEATURE_STRUCTEPhii
gpcl6:_ZN9tesseract14IntegerMatcher17ApplyCNCorrectionEfiii
gpcl6:_ZN9tesseract14IntegerMatcher17kSimilarityCenterE
gpcl6:_ZN9tesseract14IntegerMatcher22UpdateTablesForFeatureEPNS_16INT_CLASS_STRUCTEPjS3_iPKNS_18INT_FEATURE_STRUCTEPNS_15ScratchEvidenceEi
gpcl6:_ZN9tesseract14IntegerMatcher24kSEExponentialMultiplierE
gpcl6:_ZN9tesseract14IntegerMatcher5MatchEPNS_16INT_CLASS_STRUCTEPjS3_sPKNS_18INT_FEATURE_STRUCTEPNS_13UnicharRatingEiib
gpcl6:_ZN9tesseract14IntegerMatcherC1EPNS_8IntParamE
gpcl6:_ZN9tesseract14IntegerMatcherC2EPNS_8IntParamE
gpcl6:_ZN9tesseract14InterwordSpaceERKNS_13GenericVectorINS_19RowScratchRegistersEEEii
gpcl6:_ZN9tesseract14LSTMRecognizer11DeSerializeEPKNS_15TessdataManagerEPNS_5TFileE
gpcl6:_ZN9tesseract14LSTMRecognizer11DecodeLabelERKSt6vectorIiSaIiEEiPiS6_
gpcl6:_ZN9tesseract14LSTMRecognizer11LoadRecoderEPNS_5TFileE
gpcl6:_ZN9tesseract14LSTMRecognizer11OutputStatsERKNS_9NetworkIOEPfS4_S4_
gpcl6:_ZN9tesseract14LSTMRecognizer12DecodeLabelsERKSt6vectorIiSaIiEE
gpcl6:_ZN9tesseract14LSTMRecognizer12LoadCharsetsEPKNS_15TessdataManagerE
gpcl6:_ZN9tesseract14LSTMRecognizer13RecognizeLineERKNS_9ImageDataEbbbbPfPNS_9NetworkIOES6_
gpcl6:_ZN9tesseract14LSTMRecognizer13RecognizeLineERKNS_9ImageDataEbbdRKNS_4TBOXEPNS_13PointerVectorINS_8WERD_RESEEEii
gpcl6:_ZN9tesseract14LSTMRecognizer14LoadDictionaryEPKNS_13ParamsVectorsEPKcPNS_15TessdataManagerE
gpcl6:_ZN9tesseract14LSTMRecognizer17DecodeSingleLabelEi
gpcl6:_ZN9tesseract14LSTMRecognizer17LabelsFromOutputsERKNS_9NetworkIOEPSt6vectorIiSaIiEES7_
gpcl6:_ZN9tesseract14LSTMRecognizer17LabelsViaReEncodeERKNS_9NetworkIOEPSt6vectorIiSaIiEES7_
gpcl6:_ZN9tesseract14LSTMRecognizer19DebugActivationPathERKNS_9NetworkIOERKSt6vectorIiSaIiEES8_
gpcl6:_ZN9tesseract14LSTMRecognizer19LabelsViaSimpleTextERKNS_9NetworkIOEPSt6vectorIiSaIiEES7_
gpcl6:_ZN9tesseract14LSTMRecognizer20DebugActivationRangeERKNS_9NetworkIOEPKciii
gpcl6:_ZN9tesseract14LSTMRecognizer4LoadEPKNS_13ParamsVectorsEPKcPNS_15TessdataManagerE
gpcl6:_ZN9tesseract14LSTMRecognizerC1EPKc
gpcl6:_ZN9tesseract14LSTMRecognizerC1Ev
gpcl6:_ZN9tesseract14LSTMRecognizerC2EPKc
gpcl6:_ZN9tesseract14LSTMRecognizerC2Ev
gpcl6:_ZN9tesseract14LSTMRecognizerD1Ev
gpcl6:_ZN9tesseract14LSTMRecognizerD2Ev
gpcl6:_ZN9tesseract14MakeBoxFileStrEPKcRKNS_4TBOXEiPNS_6STRINGE
gpcl6:_ZN9tesseract14NormalizePicoXEPNS_18FEATURE_SET_STRUCTE
gpcl6:_ZN9tesseract14PixelHistogram26ConstructVerticalCountHistEP3Pix
gpcl6:_ZN9tesseract14PixelHistogram28ConstructHorizontalCountHistEP3Pix
gpcl6:_ZN9tesseract14ROW_RES_zapperEPNS_10ELIST_LINKE
gpcl6:_ZN9tesseract14ReadFeatureSetEP8_IO_FILEPKNS_19FEATURE_DESC_STRUCTE
gpcl6:_ZN9tesseract14ReadPermConfigEPNS_5TFileE
gpcl6:_ZN9tesseract14ReadSampleSizeEPNS_5TFileE
gpcl6:_ZN9tesseract14ReadTempConfigEPNS_5TFileE
gpcl6:_ZN9tesseract14ResultIterator12kComplexWordE
gpcl6:_ZN9tesseract14ResultIterator12kMinorRunEndE
gpcl6:_ZN9tesseract14ResultIterator14kMinorRunStartE
gpcl6:_ZN9tesseract14ResultIterator16StartOfParagraphERKNS_17LTRResultIteratorE
gpcl6:_ZN9tesseract14ResultIterator22CalculateTextlineOrderEbRKSt6vectorINS_21StrongScriptDirectionESaIS2_EEPS1_IiSaIiEE
gpcl6:_ZN9tesseract14ResultIterator24MoveToLogicalStartOfWordEv
gpcl6:_ZN9tesseract14ResultIterator28MoveToLogicalStartOfTextlineEv
gpcl6:_ZN9tesseract14ResultIterator32IterateAndAppendUTF8TextlineTextEPNSt7__cxx1112basic_stringIcSt11char_traitsIcESaIcEEE
gpcl6:_ZN9tesseract14ResultIterator4NextENS_17PageIteratorLevelE
gpcl6:_ZN9tesseract14ResultIterator5BeginEv
gpcl6:_ZN9tesseract14ResultIteratorC1ERKNS_17LTRResultIteratorE
gpcl6:_ZN9tesseract14ResultIteratorC2ERKNS_17LTRResultIteratorE
gpcl6:_ZN9tesseract14SVEventHandlerD0Ev
gpcl6:_ZN9tesseract14SVEventHandlerD1Ev
gpcl6:_ZN9tesseract14SVEventHandlerD2Ev
gpcl6:_ZN9tesseract14SaveDataToFileERKSt6vectorIcSaIcEEPKc
gpcl6:_ZN9tesseract14ScriptDetector11detect_blobEPNS_16BLOB_CHOICE_LISTE
gpcl6:_ZN9tesseract14ScriptDetector14korean_script_E
gpcl6:_ZN9tesseract14ScriptDetector15fraktur_script_E
gpcl6:_ZN9tesseract14ScriptDetector16japanese_script_E
gpcl6:_ZN9tesseract14ScriptDetector9must_stopEi
gpcl6:_ZN9tesseract14ScriptDetectorC1EPKSt6vectorIiSaIiEEPNS_9OSResultsEPNS_9TesseractE
gpcl6:_ZN9tesseract14ScriptDetectorC2EPKSt6vectorIiSaIiEEPNS_9OSResultsEPNS_9TesseractE
gpcl6:_ZN9tesseract14TabVector_LIST9deep_copyEPKS0_PFPNS_9TabVectorEPKS3_E
gpcl6:_ZN9tesseract14TessClassifier17DisplayClassifyAsERKNS_14TrainingSampleEP3PixiiPNS_13PointerVectorINS_10ScrollViewEEE
gpcl6:_ZN9tesseract14TessClassifier21UnicharClassifySampleERKNS_14TrainingSampleEP3PixiiPSt6vectorINS_13UnicharRatingESaIS7_EE
gpcl6:_ZN9tesseract14TrainingSample11DeSerializeEbP8_IO_FILE
gpcl6:_ZN9tesseract14TrainingSample12kScaleValuesE
gpcl6:_ZN9tesseract14TrainingSample13IndexFeaturesERKNS_15IntFeatureSpaceE
gpcl6:_ZN9tesseract14TrainingSample13kYShiftValuesE
gpcl6:_ZN9tesseract14TrainingSample15ExtractCharDescEiiiiPNS_16CHAR_DESC_STRUCTE
gpcl6:_ZN9tesseract14TrainingSample16CopyFromFeaturesERKNS_20INT_FX_RESULT_STRUCTERKNS_4TBOXEPKNS_18INT_FEATURE_STRUCTEi
gpcl6:_ZN9tesseract14TrainingSample17DeSerializeCreateEbP8_IO_FILE
gpcl6:_ZN9tesseract14TrainingSampleD1Ev
gpcl6:_ZN9tesseract14TrainingSampleD2Ev
gpcl6:_ZN9tesseract14ValidFirstLineEPKNS_13GenericVectorINS_19RowScratchRegistersEEEiPKNS_14ParagraphModelE
gpcl6:_ZN9tesseract14WorkingPartSet10MakeBlocksERKNS_6ICOORDES3_iPNS_17ColPartition_LISTE
gpcl6:_ZN9tesseract14WorkingPartSet12AddPartitionEPNS_12ColPartitionE
gpcl6:_ZN9tesseract14WorkingPartSet21InsertCompletedBlocksEPNS_10BLOCK_LISTEPNS_13TO_BLOCK_LISTE
gpcl6:_ZN9tesseract14WorkingPartSet22ExtractCompletedBlocksERKNS_6ICOORDES3_iPNS_17ColPartition_LISTEPNS_10BLOCK_LISTEPNS_13TO_BLOCK_LISTE
gpcl6:_ZN9tesseract14WriteParamDescEP8_IO_FILEtPKNS_10PARAM_DESCE
gpcl6:_ZN9tesseract14WritePrototypeEP8_IO_FILEtPNS_9PROTOTYPEE
gpcl6:_ZN9tesseract14divisible_blobEPNS_5TBLOBEbPNS_6TPOINTE
gpcl6:_ZN9tesseract14find_row_pitchEPNS_6TO_ROWEiiPNS_8TO_BLOCKEiib
gpcl6:_ZN9tesseract14find_top_modesEPNS_5STATSEiPii
gpcl6:_ZN9tesseract14kCNFeatureTypeE
gpcl6:_ZN9tesseract14make_real_wordEPNS_11BLOBNBOX_ITEibh
gpcl6:_ZN9tesseract14make_rep_wordsEPNS_6TO_ROWEPNS_8TO_BLOCKE
gpcl6:_ZN9tesseract14os_detect_blobEPNS_8BLOBNBOXEPNS_19OrientationDetectorEPNS_14ScriptDetectorEPNS_9OSResultsEPNS_9TesseractE
gpcl6:_ZN9tesseract14partition_lineEPNS_4TBOXEiPiPcS2_PNS_7QSPLINEEfPf
gpcl6:_ZN9tesseract14print_pitch_sdEPNS_6TO_ROWEPNS_5STATSEssff
gpcl6:_ZN9tesseract14read_unlv_fileERNSt7__cxx1112basic_stringIcSt11char_traitsIcESaIcEEEiiPNS_10BLOCK_LISTE
gpcl6:_ZN9tesseract14segment_splineEPNS_4TBOXEiPiS2_iiS2_
gpcl6:_ZN9tesseract14set_row_spacesEPNS_8TO_BLOCKENS_6FCOORDEb
gpcl6:_ZN9tesseract14test_underlineEbPNS_6C_BLOBEss
gpcl6:_ZN9tesseract14textord_test_xE
gpcl6:_ZN9tesseract14textord_test_yE
gpcl6:_ZN9tesseract14try_rows_fixedEPNS_8TO_BLOCKEib
gpcl6:_ZN9tesseract14tune_row_pitchEPNS_6TO_ROWEPNS_5STATSEssfRfS4_RsPNS_14ICOORDELT_LISTEb
gpcl6:_ZN9tesseract15AddAdaptedClassEPNS_22ADAPT_TEMPLATES_STRUCTEPNS_18ADAPT_CLASS_STRUCTEi
gpcl6:_ZN9tesseract15AddProtoToClassEPNS_12CLASS_STRUCTE
gpcl6:_ZN9tesseract15BLOBNBOX_zapperEPNS_10ELIST_LINKE
gpcl6:_ZN9tesseract15CCNonTextDetect18ComputeNonTextMaskEbP3PixPNS_8TO_BLOCKE
gpcl6:_ZN9tesseract15CCNonTextDetect19BlobOverlapsTooMuchEPNS_8BLOBNBOXEi
gpcl6:_ZN9tesseract15CCNonTextDetect19ComputeNoiseDensityEbP3PixPNS_8BlobGridE
gpcl6:_ZN9tesseract15CCNonTextDetect25MarkAndDeleteNonTextBlobsEPNS_13BLOBNBOX_LISTEiPNS_10ScrollViewENS3_5ColorEP3Pix
gpcl6:_ZN9tesseract15CCNonTextDetectC1EiRKNS_6ICOORDES3_
gpcl6:_ZN9tesseract15CCNonTextDetectC2EiRKNS_6ICOORDES3_
gpcl6:_ZN9tesseract15CCNonTextDetectD0Ev
gpcl6:_ZN9tesseract15CCNonTextDetectD1Ev
gpcl6:_ZN9tesseract15CCNonTextDetectD2Ev
gpcl6:_ZN9tesseract15ChangeDirectionEPNS_8list_recES1_NS_9DIRECTIONE
gpcl6:_ZN9tesseract15ColPartitionSet12AddPartitionEPNS_12ColPartitionEPNS_15ColPartition_ITE
gpcl6:_ZN9tesseract15ColPartitionSet12SpanningTypeEiiiiiiiPiS1_S1_
gpcl6:_ZN9tesseract15ColPartitionSet14GetColumnBoxesEiiPNS_15ColSegment_LISTE
gpcl6:_ZN9tesseract15ColPartitionSet14UnmatchedWidthEPS0_
gpcl6:_ZN9tesseract15ColPartitionSet15ComputeCoverageEv
gpcl6:_ZN9tesseract15ColPartitionSet15RelinquishPartsEv
gpcl6:_ZN9tesseract15ColPartitionSet16ColumnContainingEii
gpcl6:_ZN9tesseract15ColPartitionSet16GetColumnByIndexEi
gpcl6:_ZN9tesseract15ColPartitionSet17ChangeWorkColumnsERKNS_6ICOORDES3_iPNS_17ColPartition_LISTEPNS_19WorkingPartSet_LISTE
gpcl6:_ZN9tesseract15ColPartitionSet17CompatibleColumnsEbPS0_St8functionIFbiEE
gpcl6:_ZN9tesseract15ColPartitionSet20LegalColumnCandidateEv
gpcl6:_ZN9tesseract15ColPartitionSet22ImproveColumnCandidateESt8functionIFbiEEPNS_13GenericVectorIPS0_EE
gpcl6:_ZN9tesseract15ColPartitionSet23AddToColumnSetsIfUniqueEPNS_13GenericVectorIPS0_EESt8functionIFbiEE
gpcl6:_ZN9tesseract15ColPartitionSet26AddPartitionCoverageAndBoxERKNS_12ColPartitionE
gpcl6:_ZN9tesseract15ColPartitionSet29AccumulateColumnWidthsAndGapsEPiS1_S1_S1_
gpcl6:_ZN9tesseract15ColPartitionSet4CopyEb
gpcl6:_ZN9tesseract15ColPartitionSet5PrintEv
gpcl6:_ZN9tesseract15ColPartitionSetC1EPNS_12ColPartitionE
gpcl6:_ZN9tesseract15ColPartitionSetC1EPNS_17ColPartition_LISTE
gpcl6:_ZN9tesseract15ColPartitionSetC2EPNS_12ColPartitionE
gpcl6:_ZN9tesseract15ColPartitionSetC2EPNS_17ColPartition_LISTE
gpcl6:_ZN9tesseract15ColSegment_LIST9deep_copyEPKS0_PFPNS_10ColSegmentEPKS3_E
gpcl6:_ZN9tesseract15ComputeDistanceEiPNS_10PARAM_DESCEPfS2_
gpcl6:_ZN9tesseract15ConvertOutlinesEPNS_8TESSLINEEPNS_8list_recENS_11OUTLINETYPEE
gpcl6:_ZN9tesseract15CrownCompatibleEPKNS_13GenericVectorINS_19RowScratchRegistersEEEiiPKNS_14ParagraphModelE
gpcl6:_ZN9tesseract15DistanceSquaredEiPNS_10PARAM_DESCEPfS2_
gpcl6:_ZN9tesseract15ELIST2_ITERATOR13data_relativeEa
gpcl6:_ZN9tesseract15ELIST2_ITERATOR15extract_sublistEPS0_
gpcl6:_ZN9tesseract15ELIST2_ITERATOR7forwardEv
gpcl6:_ZN9tesseract15ELIST2_ITERATOR8backwardEv
gpcl6:_ZN9tesseract15ELIST2_ITERATOR8exchangeEPS0_
gpcl6:_ZN9tesseract15ExtractFontNameEPKcPNS_6STRINGE
gpcl6:_ZN9tesseract15FreeClassFieldsEPNS_12CLASS_STRUCTE
gpcl6:_ZN9tesseract15InitFeatureDefsEPNS_19FEATURE_DEFS_STRUCTE
gpcl6:_ZN9tesseract15InitTableFillerEfffPNS_12PROTO_STRUCTEPNS_12TABLE_FILLERE
gpcl6:_ZN9tesseract15IntFeatureSpace4InitEhhh
gpcl6:_ZN9tesseract15IntFeatureSpaceC1Ev
gpcl6:_ZN9tesseract15IntFeatureSpaceC2Ev
gpcl6:_ZN9tesseract15MutableIteratorD0Ev
gpcl6:_ZN9tesseract15MutableIteratorD1Ev
gpcl6:_ZN9tesseract15MutableIteratorD2Ev
gpcl6:_ZN9tesseract15NewAdaptedClassEv
gpcl6:_ZN9tesseract15NewIntTemplatesEv
gpcl6:_ZN9tesseract15NewMicroFeatureEv
gpcl6:_ZN9tesseract15OutlineFeatDescE
gpcl6:_ZN9tesseract15PDBLK_c1_zapperEPv
gpcl6:_ZN9tesseract15ParagraphTheory17NonCenteredModelsEPNS_13GenericVectorIPKNS_14ParagraphModelEEE
gpcl6:_ZN9tesseract15ParagraphTheory19DiscardUnusedModelsERKNS_13GenericVectorIPKNS_14ParagraphModelEEE
gpcl6:_ZN9tesseract15ParagraphTheory8AddModelERKNS_14ParagraphModelE
gpcl6:_ZN9tesseract15ParseBoxFileStrEPKcPiPNS_6STRINGEPNS_4TBOXE
gpcl6:_ZN9tesseract15ScratchEvidence13NormalizeSumsEPNS_16INT_CLASS_STRUCTEs
gpcl6:_ZN9tesseract15ScratchEvidence20ClearFeatureEvidenceEPNS_16INT_CLASS_STRUCTE
gpcl6:_ZN9tesseract15ScratchEvidence25UpdateSumOfProtoEvidencesEPNS_16INT_CLASS_STRUCTEPj
gpcl6:_ZN9tesseract15ScratchEvidence5ClearEPNS_16INT_CLASS_STRUCTE
gpcl6:_ZN9tesseract15ShapeClassifier14ClassifySampleERKNS_14TrainingSampleEP3PixiiPSt6vectorINS_11ShapeRatingESaIS7_EE
gpcl6:_ZN9tesseract15ShapeClassifier17DisplayClassifyAsERKNS_14TrainingSampleEP3PixiiPNS_13PointerVectorINS_10ScrollViewEEE
gpcl6:_ZN9tesseract15ShapeClassifier19BestShapeForUnicharERKNS_14TrainingSampleEP3PixiPNS_11ShapeRatingE
gpcl6:_ZN9tesseract15ShapeClassifier21UnicharClassifySampleERKNS_14TrainingSampleEP3PixiiPSt6vectorINS_13UnicharRatingESaIS7_EE
gpcl6:_ZN9tesseract15SimpleClusterer11GetClustersEPNS_13GenericVectorINS_7ClusterEEE
gpcl6:_ZN9tesseract15StructuredTable13UpdateMarginsEPNS_16ColPartitionGridE
gpcl6:_ZN9tesseract15StructuredTable13set_line_gridEPNS_16ColPartitionGridE
gpcl6:_ZN9tesseract15StructuredTable13set_text_gridEPNS_16ColPartitionGridE
gpcl6:_ZN9tesseract15StructuredTable14CalculateStatsEv
gpcl6:_ZN9tesseract15StructuredTable14ClearStructureEv
gpcl6:_ZN9tesseract15StructuredTable15CountPartitionsERKNS_4TBOXE
gpcl6:_ZN9tesseract15StructuredTable15VerifyRowFilledEi
gpcl6:_ZN9tesseract15StructuredTable16CalculateMarginsEv
gpcl6:_ZN9tesseract15StructuredTable16CountFilledCellsEiiii
gpcl6:_ZN9tesseract15StructuredTable16CountFilledCellsEv
gpcl6:_ZN9tesseract15StructuredTable16set_bounding_boxERKNS_4TBOXE
gpcl6:_ZN9tesseract15StructuredTable17AbsorbNearbyLinesEv
gpcl6:_ZN9tesseract15StructuredTable17median_cell_widthEv
gpcl6:_ZN9tesseract15StructuredTable18FindLinedStructureEv
gpcl6:_ZN9tesseract15StructuredTable18median_cell_heightEv
gpcl6:_ZN9tesseract15StructuredTable19FindWhitespacedRowsEv
gpcl6:_ZN9tesseract15StructuredTable19set_max_text_heightEi
gpcl6:_ZN9tesseract15StructuredTable21CountFilledCellsInRowEi
gpcl6:_ZN9tesseract15StructuredTable21VerifyLinedTableCellsEv
gpcl6:_ZN9tesseract15StructuredTable22FindCellSplitLocationsERKNS_13GenericVectorIiEES4_iPS2_
gpcl6:_ZN9tesseract15StructuredTable22FindWhitespacedColumnsEv
gpcl6:_ZN9tesseract15StructuredTable22VerifyWhitespacedTableEv
gpcl6:_ZN9tesseract15StructuredTable24CountFilledCellsInColumnEi
gpcl6:_ZN9tesseract15StructuredTable24FindWhitespacedStructureEv
gpcl6:_ZN9tesseract15StructuredTable26CountVerticalIntersectionsEi
gpcl6:_ZN9tesseract15StructuredTable28CountHorizontalIntersectionsEi
gpcl6:_ZN9tesseract15StructuredTable29CalculateCellFilledPercentageEii
gpcl6:_ZN9tesseract15StructuredTable4InitEv
gpcl6:_ZN9tesseract15StructuredTableC1Ev
gpcl6:_ZN9tesseract15StructuredTableC2Ev
gpcl6:_ZN9tesseract15TO_BLOCK_zapperEPNS_10ELIST_LINKE
gpcl6:_ZN9tesseract15TableRecognizer13set_line_gridEPNS_16ColPartitionGridE
gpcl6:_ZN9tesseract15TableRecognizer13set_min_widthEi
gpcl6:_ZN9tesseract15TableRecognizer13set_text_gridEPNS_16ColPartitionGridE
gpcl6:_ZN9tesseract15TableRecognizer14IsWeakTableRowEPNS_15StructuredTableEi
gpcl6:_ZN9tesseract15TableRecognizer14RecognizeTableERKNS_4TBOXE
gpcl6:_ZN9tesseract15TableRecognizer14set_min_heightEi
gpcl6:_ZN9tesseract15TableRecognizer19HasSignificantLinesERKNS_4TBOXE
gpcl6:_ZN9tesseract15TableRecognizer19NextHorizontalSplitEiiib
gpcl6:_ZN9tesseract15TableRecognizer19RecognizeLinedTableERKNS_4TBOXEPNS_15StructuredTableE
gpcl6:_ZN9tesseract15TableRecognizer19set_max_text_heightEi
gpcl6:_ZN9tesseract15TableRecognizer20FindLinesBoundingBoxEPNS_4TBOXE
gpcl6:_ZN9tesseract15TableRecognizer25RecognizeWhitespacedTableERKNS_4TBOXEPNS_15StructuredTableE
gpcl6:_ZN9tesseract15TableRecognizer29FindLinesBoundingBoxIterationEPNS_4TBOXE
gpcl6:_ZN9tesseract15TableRecognizer4InitEv
gpcl6:_ZN9tesseract15TableRecognizerC1Ev
gpcl6:_ZN9tesseract15TableRecognizerC2Ev
gpcl6:_ZN9tesseract15TableRecognizerD1Ev
gpcl6:_ZN9tesseract15TableRecognizerD2Ev
gpcl6:_ZN9tesseract15TessOsdRenderer15AddImageHandlerEPNS_11TessBaseAPIE
gpcl6:_ZN9tesseract15TessOsdRendererC1EPKc
gpcl6:_ZN9tesseract15TessOsdRendererC2EPKc
gpcl6:_ZN9tesseract15TessPDFRenderer13imageToPDFObjEP3PixPKclPPcPli
gpcl6:_ZN9tesseract15TessPDFRenderer15AddImageHandlerEPNS_11TessBaseAPIE
gpcl6:_ZN9tesseract15TessPDFRenderer15AppendPDFObjectEPKc
gpcl6:_ZN9tesseract15TessPDFRenderer17GetPDFTextObjectsEPNS_11TessBaseAPIEdd
gpcl6:_ZN9tesseract15TessPDFRenderer18AppendPDFObjectDIYEm
gpcl6:_ZN9tesseract15TessPDFRenderer18EndDocumentHandlerEv
gpcl6:_ZN9tesseract15TessPDFRenderer20BeginDocumentHandlerEv
gpcl6:_ZN9tesseract15TessPDFRendererC1EPKcS2_b
gpcl6:_ZN9tesseract15TessPDFRendererC2EPKcS2_b
gpcl6:_ZN9tesseract15TessTsvRenderer15AddImageHandlerEPNS_11TessBaseAPIE
gpcl6:_ZN9tesseract15TessTsvRenderer18EndDocumentHandlerEv
gpcl6:_ZN9tesseract15TessTsvRenderer20BeginDocumentHandlerEv
gpcl6:_ZN9tesseract15TessTsvRendererC1EPKc
gpcl6:_ZN9tesseract15TessTsvRendererC1EPKcb
gpcl6:_ZN9tesseract15TessTsvRendererC2EPKc
gpcl6:_ZN9tesseract15TessTsvRendererC2EPKcb
gpcl6:_ZN9tesseract15TessdataManager12GetComponentENS_12TessdataTypeEPNS_5TFileE
gpcl6:_ZN9tesseract15TessdataManager13ExtractToFileEPKc
gpcl6:_ZN9tesseract15TessdataManager13LoadFileLaterEPKc
gpcl6:_ZN9tesseract15TessdataManager13LoadMemBufferEPKcS2_i
gpcl6:_ZN9tesseract15TessdataManager14OverwriteEntryENS_12TessdataTypeEPKci
gpcl6:_ZN9tesseract15TessdataManager16CombineDataFilesEPKcS2_
gpcl6:_ZN9tesseract15TessdataManager16SetVersionStringERKNSt7__cxx1112basic_stringIcSt11char_traitsIcESaIcEEE
gpcl6:_ZN9tesseract15TessdataManager19OverwriteComponentsEPKcPPci
gpcl6:_ZN9tesseract15TessdataManager24TessdataTypeFromFileNameEPKcPNS_12TessdataTypeE
gpcl6:_ZN9tesseract15TessdataManager26TessdataTypeFromFileSuffixEPKcPNS_12TessdataTypeE
gpcl6:_ZN9tesseract15TessdataManager4InitEPKc
gpcl6:_ZN9tesseract15TessdataManager5ClearEv
gpcl6:_ZN9tesseract15TessdataManagerC1EPFbPKcPSt6vectorIcSaIcEEE
gpcl6:_ZN9tesseract15TessdataManagerC1Ev
gpcl6:_ZN9tesseract15TessdataManagerC2EPFbPKcPSt6vectorIcSaIcEEE
gpcl6:_ZN9tesseract15TessdataManagerC2Ev
gpcl6:_ZN9tesseract15TransposedArray9TransposeERKNS_16GENERIC_2D_ARRAYIdEE
gpcl6:_ZN9tesseract15TransposedArrayD0Ev
gpcl6:_ZN9tesseract15TransposedArrayD1Ev
gpcl6:_ZN9tesseract15TransposedArrayD2Ev
gpcl6:_ZN9tesseract15UnicharAndFonts11DeSerializeEPNS_5TFileE
gpcl6:_ZN9tesseract15UnicharAndFonts15SortByUnicharIdEPKvS2_
gpcl6:_ZN9tesseract15UnicharCompress11DeSerializeEPNS_5TFileE
gpcl6:_ZN9tesseract15UnicharCompress11SetupDirectERKNS_13GenericVectorINS_13RecodedCharIDEEE
gpcl6:_ZN9tesseract15UnicharCompress12SetupDecoderEv
gpcl6:_ZN9tesseract15UnicharCompress15ComputeEncodingERKNS_10UNICHARSETEiPNS_6STRINGE
gpcl6:_ZN9tesseract15UnicharCompress15DecomposeHangulEiPiS1_S1_
gpcl6:_ZN9tesseract15UnicharCompress16ComputeCodeRangeEv
gpcl6:_ZN9tesseract15UnicharCompress16SetupPassThroughERKNS_10UNICHARSETE
gpcl6:_ZN9tesseract15UnicharCompress20DefragmentCodeValuesEi
gpcl6:_ZN9tesseract15UnicharCompress7CleanupEv
gpcl6:_ZN9tesseract15UnicharCompressC1ERKS0_
gpcl6:_ZN9tesseract15UnicharCompressC1Ev
gpcl6:_ZN9tesseract15UnicharCompressC2ERKS0_
gpcl6:_ZN9tesseract15UnicharCompressC2Ev
gpcl6:_ZN9tesseract15UnicharCompressD1Ev
gpcl6:_ZN9tesseract15UnicharCompressD2Ev
gpcl6:_ZN9tesseract15UnicharCompressaSERKS0_
gpcl6:_ZN9tesseract15WERD_RES_zapperEPNS_10ELIST_LINKE
gpcl6:_ZN9tesseract15WriteFeatureSetEPNS_18FEATURE_SET_STRUCTEPNS_6STRINGE
gpcl6:_ZN9tesseract15WritePermConfigEP8_IO_FILEPNS_18PERM_CONFIG_STRUCTE
gpcl6:_ZN9tesseract15WriteTempConfigEP8_IO_FILEPNS_18TEMP_CONFIG_STRUCTE
gpcl6:_ZN9tesseract15choose_nth_itemEiPfi
gpcl6:_ZN9tesseract15choose_nth_itemEiPvimPFiPKvS2_E
gpcl6:_ZN9tesseract15fixed_pitch_rowEPNS_6TO_ROWEPNS_5BLOCKEi
gpcl6:_ZN9tesseract15gapmap_big_gapsE
gpcl6:_ZN9tesseract15gapmap_use_endsE
gpcl6:_ZN9tesseract15get_blob_coordsEPNS_6TO_ROWEiPNS_4TBOXERbRi
gpcl6:_ZN9tesseract15kGeoFeatureTypeE
gpcl6:_ZN9tesseract15kIntFeatureTypeE
gpcl6:_ZN9tesseract15make_real_wordsEPNS_7TextordEPNS_8TO_BLOCKENS_6FCOORDE
gpcl6:_ZN9tesseract15make_single_rowENS_6ICOORDEbPNS_8TO_BLOCKEPNS_13TO_BLOCK_LISTE
gpcl6:_ZN9tesseract15os_detect_blobsEPKSt6vectorIiSaIiEEPNS_14BLOBNBOX_CLISTEPNS_9OSResultsEPNS_9TesseractE
gpcl6:_ZN9tesseract15row_pitch_statsEPNS_6TO_ROWEib
gpcl6:_ZN9tesseract15start_seam_listEPNS_5TWERDEPNS_13GenericVectorIPNS_4SEAMEEE
gpcl6:_ZN9tesseract15try_block_fixedEPNS_8TO_BLOCKEi
gpcl6:_ZN9tesseract15tune_row_pitch2EPNS_6TO_ROWEPNS_5STATSEssfRfS4_RsPNS_14ICOORDELT_LISTEb
gpcl6:_ZN9tesseract15word_comparatorEPKvS1_
gpcl6:_ZN9tesseract16AddConfigToClassEPNS_12CLASS_STRUCTE
gpcl6:_ZN9tesseract16AmbigSpec_zapperEPNS_10ELIST_LINKE
gpcl6:_ZN9tesseract16BLOB_CHOICE_LIST9deep_copyEPKS0_PFPNS_11BLOB_CHOICEEPKS3_E
gpcl6:_ZN9tesseract16BLOCK_RES_zapperEPNS_10ELIST_LINKE
gpcl6:_ZN9tesseract16C_OUTLINE_zapperEPNS_10ELIST_LINKE
gpcl6:_ZN9tesseract16ColPartitionGrid10ClaimBoxesEv
gpcl6:_ZN9tesseract16ColPartitionGrid10FindMarginEibiiiPKNS_12ColPartitionE
gpcl6:_ZN9tesseract16ColPartitionGrid11DeletePartsEv
gpcl6:_ZN9tesseract16ColPartitionGrid11HandleClickEii
gpcl6:_ZN9tesseract16ColPartitionGrid11ReTypeBlobsEPNS_13BLOBNBOX_LISTE
gpcl6:_ZN9tesseract16ColPartitionGrid11SetTabStopsEPNS_7TabFindE
gpcl6:_ZN9tesseract16ColPartitionGrid14ReflectInYAxisEv
gpcl6:_ZN9tesseract16ColPartitionGrid15GridFindMarginsEPPNS_15ColPartitionSetE
gpcl6:_ZN9tesseract16ColPartitionGrid15ListFindMarginsEPPNS_15ColPartitionSetEPNS_17ColPartition_LISTE
gpcl6:_ZN9tesseract16ColPartitionGrid15MakeColPartSetsEPNS_13GenericVectorIPNS_15ColPartitionSetEEE
gpcl6:_ZN9tesseract16ColPartitionGrid15RecomputeBoundsEiRKNS_6ICOORDES3_S3_
gpcl6:_ZN9tesseract16ColPartitionGrid16SmoothRegionTypeEP3PixRKNS_4TBOXERKNS_6FCOORDEbPNS_12ColPartitionE
gpcl6:_ZN9tesseract16ColPartitionGrid18BestMergeCandidateEPKNS_12ColPartitionEPNS_18ColPartition_CLISTEbSt8functionIFbS3_S3_EEPi
gpcl6:_ZN9tesseract16ColPartitionGrid18DeleteUnknownPartsEPNS_8TO_BLOCKE
gpcl6:_ZN9tesseract16ColPartitionGrid18FindFigureCaptionsEv
gpcl6:_ZN9tesseract16ColPartitionGrid19ComputeTotalOverlapEPPS0_
gpcl6:_ZN9tesseract16ColPartitionGrid19FindMergeCandidatesEPKNS_12ColPartitionERKNS_4TBOXEbPNS_18ColPartition_CLISTE
gpcl6:_ZN9tesseract16ColPartitionGrid19MakeSingleColumnSetESt8functionIFbiEE
gpcl6:_ZN9tesseract16ColPartitionGrid20DeleteNonLeaderPartsEv
gpcl6:_ZN9tesseract16ColPartitionGrid20FindPartitionMarginsEPNS_15ColPartitionSetEPNS_12ColPartitionE
gpcl6:_ZN9tesseract16ColPartitionGrid20GridSmoothNeighboursENS_16BlobTextFlowTypeEP3PixRKNS_4TBOXERKNS_6FCOORDE
gpcl6:_ZN9tesseract16ColPartitionGrid20SmoothInOneDirectionENS_16BlobNeighbourDirEP3PixRKNS_4TBOXERKNS_6FCOORDEbRKNS_12ColPartitionEPi
gpcl6:_ZN9tesseract16ColPartitionGrid21FindPartitionPartnersEbPNS_12ColPartitionE
gpcl6:_ZN9tesseract16ColPartitionGrid21FindPartitionPartnersEv
gpcl6:_ZN9tesseract16ColPartitionGrid22FindVPartitionPartnersEbPNS_12ColPartitionE
gpcl6:_ZN9tesseract16ColPartitionGrid23AccumulatePartDistancesERKNS_12ColPartitionERKNS_6ICOORDERKNS_4TBOXEP3PixS9_RKNS_6FCOORDEbPNS_13GenericVectorIiEE
gpcl6:_ZN9tesseract16ColPartitionGrid23RefinePartitionPartnersEb
gpcl6:_ZN9tesseract16ColPartitionGrid25ExtractPartitionsAsBlocksEPNS_10BLOCK_LISTEPNS_13TO_BLOCK_LISTE
gpcl6:_ZN9tesseract16ColPartitionGrid25FindOverlappingPartitionsERKNS_4TBOXEPKNS_12ColPartitionEPNS_18ColPartition_CLISTE
gpcl6:_ZN9tesseract16ColPartitionGrid26SplitOverlappingPartitionsEPNS_17ColPartition_LISTE
gpcl6:_ZN9tesseract16ColPartitionGrid6DeskewERKNS_6FCOORDE
gpcl6:_ZN9tesseract16ColPartitionGrid6MergesESt8functionIFbPNS_12ColPartitionEPNS_4TBOXEEES1_IFbPKS2_S9_EE
gpcl6:_ZN9tesseract16ColPartitionGrid9MergePartESt8functionIFbPNS_12ColPartitionEPNS_4TBOXEEES1_IFbPKS2_S9_EES3_
gpcl6:_ZN9tesseract16ColPartitionGridC1EiRKNS_6ICOORDES3_
gpcl6:_ZN9tesseract16ColPartitionGridC2EiRKNS_6ICOORDES3_
gpcl6:_ZN9tesseract16ComputeDirectionEPNS_8MFEDGEPTES1_ff
gpcl6:_ZN9tesseract16DetectParagraphsEiPSt6vectorINS_7RowInfoESaIS1_EEPNS_13GenericVectorIPNS_4PARAEEEPNS_9PARA_LISTEPS0_IPNS_14ParagraphModelESaISD_EE
gpcl6:_ZN9tesseract16DetectParagraphsEibPKNS_15MutableIteratorEPSt6vectorIPNS_14ParagraphModelESaIS5_EE
gpcl6:_ZN9tesseract16DotProductNativeEPKdS1_i
gpcl6:_ZN9tesseract16EDGEPT_c1_zapperEPv
gpcl6:_ZN9tesseract16FeatureDirectionEh
gpcl6:_ZN9tesseract16FillPPLinearBitsEPA2_jiffb
gpcl6:_ZN9tesseract16FloatWordFeature13SortByXBucketEPKvS2_
gpcl6:_ZN9tesseract16FloatWordFeature16FromWordFeaturesERKNS_13GenericVectorINS_11WordFeatureEEEPNS1_IS0_EE
gpcl6:_ZN9tesseract16GetMatchColorForEf
gpcl6:_ZN9tesseract16ICOORDELT_zapperEPNS_10ELIST_LINKE
gpcl6:_ZN9tesseract16ImageThresholder10GetPixRectEv
gpcl6:_ZN9tesseract16ImageThresholder12SetRectangleEiiii
gpcl6:_ZN9tesseract16ImageThresholder13GetImageSizesEPiS1_S1_S1_S1_S1_
gpcl6:_ZN9tesseract16ImageThresholder14GetPixRectGreyEv
gpcl6:_ZN9tesseract16ImageThresholder14ThresholdToPixENS_11PageSegModeEPP3Pix
gpcl6:_ZN9tesseract16ImageThresholder20GetPixRectThresholdsEv
gpcl6:_ZN9tesseract16ImageThresholder4InitEv
gpcl6:_ZN9tesseract16ImageThresholder5ClearEv
gpcl6:_ZN9tesseract16ImageThresholder8SetImageEPK3Pix
gpcl6:_ZN9tesseract16ImageThresholder8SetImageEPKhiiii
gpcl6:_ZN9tesseract16ImageThresholderC1Ev
gpcl6:_ZN9tesseract16ImageThresholderC2Ev
gpcl6:_ZN9tesseract16ImageThresholderD0Ev
gpcl6:_ZN9tesseract16ImageThresholderD1Ev
gpcl6:_ZN9tesseract16ImageThresholderD2Ev
gpcl6:_ZN9tesseract16LoadDataFromFileEPKcPSt6vectorIcSaIcEE
gpcl6:_ZN9tesseract16MicroFeatureDescE
gpcl6:_ZN9tesseract16NormalizeOutlineEPNS_8list_recEf
gpcl6:_ZN9tesseract16ReadAdaptedClassEPNS_5TFileE
gpcl6:_ZN9tesseract16RecodeBeamSearch10DecodeStepEPKfidddPKNS_10UNICHARSETEb
gpcl6:_ZN9tesseract16RecodeBeamSearch11ComputeTopNEPKfii
gpcl6:_ZN9tesseract16RecodeBeamSearch11kBeamWidthsE
gpcl6:_ZN9tesseract16RecodeBeamSearch12ContinueDawgEiifNS_16NodeContinuationEPKNS_10RecodeNodeEPNS0_10RecodeBeamE
gpcl6:_ZN9tesseract16RecodeBeamSearch14ComputeSecTopNEPSt13unordered_setIiSt4hashIiESt8equal_toIiESaIiEEPKfii
gpcl6:_ZN9tesseract16RecodeBeamSearch14InitializeWordEbRKNS_4TBOXEiifPKNS_10UNICHARSETERKSt6vectorIiSaIiEEf
gpcl6:_ZN9tesseract16RecodeBeamSearch15ContinueContextEPKNS_10RecodeNodeEiPKfNS_9TopNStateEPKNS_10UNICHARSETEdddPNS0_10RecodeBeamE
gpcl6:_ZN9tesseract16RecodeBeamSearch15ContinueUnicharEiifffbNS_16NodeContinuationEPKNS_10RecodeNodeEPNS0_10RecodeBeamE
gpcl6:_ZN9tesseract16RecodeBeamSearch16PushHeapIfBetterEiPNS_10RecodeNodeEPNS_11GenericHeapINS_9KDPairIncIdS1_EEEE
gpcl6:_ZN9tesseract16RecodeBeamSearch16PushHeapIfBetterEiiiNS_12PermuterTypeEbbbbfPKNS_10RecodeNodeEPNS_18DawgPositionVectorEPNS_11GenericHeapINS_9KDPairIncIdS2_EEEE
gpcl6:_ZN9tesseract16RecodeBeamSearch19DecodeSecondaryStepEPKfidddPKNS_10UNICHARSETEb
gpcl6:_ZN9tesseract16RecodeBeamSearch19UpdateHeapIfMatchedEPNS_10RecodeNodeEPNS_11GenericHeapINS_9KDPairIncIdS1_EEEE
gpcl6:_ZN9tesseract16RecodeBeamSearch20DecodeSecondaryBeamsERKNS_9NetworkIOEdddPKNS_10UNICHARSETEi
gpcl6:_ZN9tesseract16RecodeBeamSearch20extractSymbolChoicesEPKNS_10UNICHARSETE
gpcl6:_ZN9tesseract16RecodeBeamSearch22ExtractBestPathAsWordsERKNS_4TBOXEfbPKNS_10UNICHARSETEPNS_13PointerVectorINS_8WERD_RESEEEi
gpcl6:_ZN9tesseract16RecodeBeamSearch22SaveMostCertainChoicesEPKfiPKNS_10UNICHARSETEi
gpcl6:_ZN9tesseract16RecodeBeamSearch23ExtractPathAsUnicharIdsERKNS_13GenericVectorIPKNS_10RecodeNodeEEEPSt6vectorIiSaIiEEPS8_IfSaIfEESE_SB_SB_
gpcl6:_ZN9tesseract16RecodeBeamSearch23PushDupOrNoDawgIfBetterEibiifffbNS_16NodeContinuationEPKNS_10RecodeNodeEPNS0_10RecodeBeamE
gpcl6:_ZN9tesseract16RecodeBeamSearch23PushInitialDawgIfBetterEiiNS_12PermuterTypeEbbfNS_16NodeContinuationEPKNS_10RecodeNodeEPNS0_10RecodeBeamE
gpcl6:_ZN9tesseract16RecodeBeamSearch23calculateCharBoundariesEPSt6vectorIiSaIiEES4_S4_i
gpcl6:_ZN9tesseract16RecodeBeamSearch25combineSegmentedTimestepsEPSt6vectorIS1_IS1_ISt4pairIPKcfESaIS5_EESaIS7_EESaIS9_EE
gpcl6:_ZN9tesseract16RecodeBeamSearch28segmentTimestepsByCharactersEv
gpcl6:_ZN9tesseract16RecodeBeamSearch6DecodeERKNS_16GENERIC_2D_ARRAYIfEEdddPKNS_10UNICHARSETE
gpcl6:_ZN9tesseract16RecodeBeamSearch6DecodeERKNS_9NetworkIOEdddPKNS_10UNICHARSETEi
gpcl6:_ZN9tesseract16RecodeBeamSearchC1ERKNS_15UnicharCompressEibPNS_4DictE
gpcl6:_ZN9tesseract16RecodeBeamSearchC2ERKNS_15UnicharCompressEibPNS_4DictE
gpcl6:_ZN9tesseract16STRING_c1_zapperEPv
gpcl6:_ZN9tesseract16TabVector_zapperEPNS_11ELIST2_LINKE
gpcl6:_ZN9tesseract16TessAltoRenderer15AddImageHandlerEPNS_11TessBaseAPIE
gpcl6:_ZN9tesseract16TessAltoRenderer18EndDocumentHandlerEv
gpcl6:_ZN9tesseract16TessAltoRenderer20BeginDocumentHandlerEv
gpcl6:_ZN9tesseract16TessAltoRendererC1EPKc
gpcl6:_ZN9tesseract16TessAltoRendererC2EPKc
gpcl6:_ZN9tesseract16TessHOcrRenderer15AddImageHandlerEPNS_11TessBaseAPIE
gpcl6:_ZN9tesseract16TessHOcrRenderer18EndDocumentHandlerEv
gpcl6:_ZN9tesseract16TessHOcrRenderer20BeginDocumentHandlerEv
gpcl6:_ZN9tesseract16TessHOcrRendererC1EPKc
gpcl6:_ZN9tesseract16TessHOcrRendererC1EPKcb
gpcl6:_ZN9tesseract16TessHOcrRendererC2EPKc
gpcl6:_ZN9tesseract16TessHOcrRendererC2EPKcb
gpcl6:_ZN9tesseract16TessTextRenderer15AddImageHandlerEPNS_11TessBaseAPIE
gpcl6:_ZN9tesseract16TessTextRendererC1EPKc
gpcl6:_ZN9tesseract16TessTextRendererC2EPKc
gpcl6:_ZN9tesseract16TessUnlvRenderer15AddImageHandlerEPNS_11TessBaseAPIE
gpcl6:_ZN9tesseract16TessUnlvRendererC1EPKc
gpcl6:_ZN9tesseract16TessUnlvRendererC2EPKc
gpcl6:_ZN9tesseract16WERD_CHOICE_LIST9deep_copyEPKS0_PFPNS_11WERD_CHOICEEPKS3_E
gpcl6:_ZN9tesseract16capture_childrenEPNS_10OL_BUCKETSEPNS_9C_BLOB_ITEPNS_12C_OUTLINE_ITE
gpcl6:_ZN9tesseract16check_path_legalEPNS_9CRACKEDGEE
gpcl6:_ZN9tesseract16check_pitch_syncEPNS_11BLOBNBOX_ITEsssPNS_5STATSEPNS_12FPSEGPT_LISTE
gpcl6:_ZN9tesseract16choose_partitionEfPfifS0_S0_Pi
gpcl6:_ZN9tesseract16compute_pitch_sdEPNS_6TO_ROWEPNS_5STATSEssffRfRsPNS_14ICOORDELT_LISTEbss
gpcl6:_ZN9tesseract16fit_parallel_lmsEfPNS_6TO_ROWE
gpcl6:_ZN9tesseract16make_pseudo_wordEPNS_8PAGE_RESERKNS_4TBOXE
gpcl6:_ZN9tesseract16make_single_wordEbPNS_11TO_ROW_LISTEPNS_8ROW_LISTE
gpcl6:_ZN9tesseract16partition_coordsEPNS_4TBOXEiPciPiS3_
gpcl6:_ZN9tesseract16segment_baselineEPNS_6TO_ROWEPNS_8TO_BLOCKERiPi
gpcl6:_ZN9tesseract16textord_heavy_nrE
gpcl6:_ZN9tesseract16textord_skew_ileE
gpcl6:_ZN9tesseract16textord_skew_lagE
gpcl6:_ZN9tesseract17AlignedBlobParams12set_verticalEii
gpcl6:_ZN9tesseract17AlignedBlobParamsC1Eiii
gpcl6:_ZN9tesseract17AlignedBlobParamsC1EiiiiiiNS_12TabAlignmentE
gpcl6:_ZN9tesseract17AlignedBlobParamsC2Eiii
gpcl6:_ZN9tesseract17AlignedBlobParamsC2EiiiiiiNS_12TabAlignmentE
gpcl6:_ZN9tesseract17BlobMicroFeaturesEPNS_5TBLOBERKNS_6DENORME
gpcl6:_ZN9tesseract17ColPartition_LIST9deep_copyEPKS0_PFPNS_12ColPartitionEPKS3_E
gpcl6:_ZN9tesseract17ColSegment_zapperEPNS_10ELIST_LINKE
gpcl6:_ZN9tesseract17FreeMicroFeaturesEPNS_8list_recE
gpcl6:_ZN9tesseract17GetCPPadsForLevelEiPfS0_S0_
gpcl6:_ZN9tesseract17LMConsistencyInfo25ComputeXheightConsistencyEPKNS_11BLOB_CHOICEEb
gpcl6:_ZN9tesseract17LTRResultIterator16SetLineSeparatorEPKc
gpcl6:_ZN9tesseract17LTRResultIterator21SetParagraphSeparatorEPKc
gpcl6:_ZN9tesseract17LTRResultIteratorC1EPNS_8PAGE_RESEPNS_9TesseractEiiiiii
gpcl6:_ZN9tesseract17LTRResultIteratorC2EPNS_8PAGE_RESEPNS_9TesseractEiiiiii
gpcl6:_ZN9tesseract17LTRResultIteratorD0Ev
gpcl6:_ZN9tesseract17LTRResultIteratorD1Ev
gpcl6:_ZN9tesseract17LTRResultIteratorD2Ev
gpcl6:_ZN9tesseract17MakeTempProtoPermEPvS0_
gpcl6:_ZN9tesseract17NormalizeOutlineXEPNS_18FEATURE_SET_STRUCTE
gpcl6:_ZN9tesseract17PicoFeatureLengthE
gpcl6:_ZN9tesseract17SORTED_FLOAT_LIST9deep_copyEPKS0_PFPNS_12SORTED_FLOATEPKS3_E
gpcl6:_ZN9tesseract17ScriptPosToStringENS_9ScriptPosE
gpcl6:_ZN9tesseract17StandardDeviationEPNS_9PROTOTYPEEt
gpcl6:_ZN9tesseract17WriteAdaptedClassEP8_IO_FILEPNS_18ADAPT_CLASS_STRUCTEi
gpcl6:_ZN9tesseract17adjust_row_limitsEPNS_8TO_BLOCKE
gpcl6:_ZN9tesseract17check_pitch_sync2EPNS_11BLOBNBOX_ITEsssPNS_5STATSEssfRsPNS_12FPSEGPT_LISTEss
gpcl6:_ZN9tesseract17check_pitch_sync3EsssssPNS_5STATSEfRsPNS_12FPSEGPT_LISTEss
gpcl6:_ZN9tesseract17compute_page_skewEPNS_13TO_BLOCK_LISTERfS2_
gpcl6:_ZN9tesseract17compute_pitch_sd2EPNS_6TO_ROWEPNS_5STATSEssfRsS4_PNS_14ICOORDELT_LISTEbss
gpcl6:_ZN9tesseract17compute_row_statsEPNS_8TO_BLOCKEb
gpcl6:_ZN9tesseract17count_block_votesEPNS_8TO_BLOCKERiS2_S2_S2_S2_S2_S2_
gpcl6:_ZN9tesseract17count_pitch_statsEPNS_6TO_ROWEPNS_5STATSES3_ffbbi
gpcl6:_ZN9tesseract17find_cblob_limitsEPNS_6C_BLOBEffNS_6FCOORDERfS3_
gpcl6:_ZN9tesseract17find_lesser_partsEPNS_6TO_ROWEPNS_4TBOXEiPcPiii
gpcl6:_ZN9tesseract17fit_parallel_rowsEPNS_8TO_BLOCKEfNS_6FCOORDEib
gpcl6:_ZN9tesseract17fixed_pitch_wordsEPNS_6TO_ROWENS_6FCOORDE
gpcl6:_ZN9tesseract17initialise_searchERNS_13WERD_RES_LISTES1_
gpcl6:_ZN9tesseract17kMicroFeatureTypeE
gpcl6:_ZN9tesseract17loop_bounding_boxERPNS_9CRACKEDGEERNS_6ICOORDES4_
gpcl6:_ZN9tesseract17merge_oldbl_partsEPNS_4TBOXEiPcPiif
gpcl6:_ZN9tesseract17old_first_xheightEPNS_6TO_ROWEPNS_4TBOXEiiPNS_7QSPLINEEf
gpcl6:_ZN9tesseract17outlines_to_blobsEPNS_5BLOCKENS_6ICOORDES2_PNS_14C_OUTLINE_LISTE
gpcl6:_ZN9tesseract17read_spacing_infoEPNS_5TFileEPNS_8FontInfoE
gpcl6:_ZN9tesseract17reject_whole_pageERNS_11PAGE_RES_ITE
gpcl6:_ZN9tesseract17row_spacing_orderEPKvS1_
gpcl6:_ZN9tesseract17textord_test_modeE
gpcl6:_ZN9tesseract18ApproximateOutlineEbPNS_9C_OUTLINEE
gpcl6:_ZN9tesseract18BLOB_CHOICE_zapperEPNS_10ELIST_LINKE
gpcl6:_ZN9tesseract18EquationDetectBase17RenderSpecialTextEP3PixPNS_8BLOBNBOXE
gpcl6:_ZN9tesseract18EquationDetectBaseD0Ev
gpcl6:_ZN9tesseract18EquationDetectBaseD1Ev
gpcl6:_ZN9tesseract18EquationDetectBaseD2Ev
gpcl6:_ZN9tesseract18FillPPCircularBitsEPA2_jiffb
gpcl6:_ZN9tesseract18FindMatchingChoiceEiPNS_16BLOB_CHOICE_LISTE
gpcl6:_ZN9tesseract18INT_FEATURE_STRUCTC1ERKNS_6FCOORDEh
gpcl6:_ZN9tesseract18INT_FEATURE_STRUCTC1Eiii
gpcl6:_ZN9tesseract18INT_FEATURE_STRUCTC2ERKNS_6FCOORDEh
gpcl6:_ZN9tesseract18INT_FEATURE_STRUCTC2Eiii
gpcl6:_ZN9tesseract18LanguageModelState5ClearEv
gpcl6:_ZN9tesseract18LanguageModelState5PrintEPKc
gpcl6:_ZN9tesseract18LeftWordAttributesEPKNS_10UNICHARSETEPKNS_11WERD_CHOICEERKNS_6STRINGEPbS9_S9_
gpcl6:_ZN9tesseract18NewCharDescriptionERKNS_19FEATURE_DEFS_STRUCTE
gpcl6:_ZN9tesseract18SetBlobStrokeWidthEP3PixPNS_8BLOBNBOXE
gpcl6:_ZN9tesseract18ShiroRekhaSplitter12PerformCloseEP3Pixi
gpcl6:_ZN9tesseract18ShiroRekhaSplitter12set_orig_pixEP3Pix
gpcl6:_ZN9tesseract18ShiroRekhaSplitter13GetModeHeightEP3Pix
gpcl6:_ZN9tesseract18ShiroRekhaSplitter15GetXheightForCCEP3Box
gpcl6:_ZN9tesseract18ShiroRekhaSplitter19SplitWordShiroRekhaENS0_13SplitStrategyEP3PixiiiP4Boxa
gpcl6:_ZN9tesseract18ShiroRekhaSplitter21GetShiroRekhaYExtentsEP3PixPiS3_S3_
gpcl6:_ZN9tesseract18ShiroRekhaSplitter31RefreshSegmentationWithNewBlobsEPNS_11C_BLOB_LISTE
gpcl6:_ZN9tesseract18ShiroRekhaSplitter5ClearEv
gpcl6:_ZN9tesseract18ShiroRekhaSplitter5SplitEbPNS_9DebugPixaE
gpcl6:_ZN9tesseract18ShiroRekhaSplitterC1Ev
gpcl6:_ZN9tesseract18ShiroRekhaSplitterC2Ev
gpcl6:_ZN9tesseract18ShiroRekhaSplitterD0Ev
gpcl6:_ZN9tesseract18ShiroRekhaSplitterD1Ev
gpcl6:_ZN9tesseract18ShiroRekhaSplitterD2Ev
gpcl6:_ZN9tesseract18TabConstraint_LIST9deep_copyEPKS0_PFPNS_13TabConstraintEPKS3_E
gpcl6:_ZN9tesseract18TessResultRenderer10AppendDataEPKci
gpcl6:_ZN9tesseract18TessResultRenderer11EndDocumentEv
gpcl6:_ZN9tesseract18TessResultRenderer12AppendStringEPKc
gpcl6:_ZN9tesseract18TessResultRenderer13BeginDocumentEPKc
gpcl6:_ZN9tesseract18TessResultRenderer18EndDocumentHandlerEv
gpcl6:_ZN9tesseract18TessResultRenderer20BeginDocumentHandlerEv
gpcl6:_ZN9tesseract18TessResultRenderer6insertEPS0_
gpcl6:_ZN9tesseract18TessResultRenderer8AddImageEPNS_11TessBaseAPIE
gpcl6:_ZN9tesseract18TessResultRendererC1EPKcS2_
gpcl6:_ZN9tesseract18TessResultRendererC2EPKcS2_
gpcl6:_ZN9tesseract18TessResultRendererD0Ev
gpcl6:_ZN9tesseract18TessResultRendererD1Ev
gpcl6:_ZN9tesseract18TessResultRendererD2Ev
gpcl6:_ZN9tesseract18TextlineProjection10PadBlobBoxEPNS_8BLOBNBOXEPNS_4TBOXE
gpcl6:_ZN9tesseract18TextlineProjection12ProjectBlobsEPNS_13BLOBNBOX_LISTERKNS_6FCOORDERKNS_4TBOXEP3Pix
gpcl6:_ZN9tesseract18TextlineProjection19ConstructProjectionEPNS_8TO_BLOCKERKNS_6FCOORDEP3Pix
gpcl6:_ZN9tesseract18TextlineProjection22IncrementRectangle8BitERKNS_4TBOXE
gpcl6:_ZN9tesseract18TextlineProjectionC1Ei
gpcl6:_ZN9tesseract18TextlineProjectionC2Ei
gpcl6:_ZN9tesseract18TextlineProjectionD1Ev
gpcl6:_ZN9tesseract18TextlineProjectionD2Ev
gpcl6:_ZN9tesseract18UnicodeSpanSkipper10SkipDigitsEi
gpcl6:_ZN9tesseract18UnicodeSpanSkipper10SkipRomansEi
gpcl6:_ZN9tesseract18UnicodeSpanSkipper8SkipPuncEi
gpcl6:_ZN9tesseract18UnicodeSpanSkipper9SkipAlphaEi
gpcl6:_ZN9tesseract18WERD_CHOICE_zapperEPNS_10ELIST_LINKE
gpcl6:_ZN9tesseract18classify_max_slopeE
gpcl6:_ZN9tesseract18classify_min_slopeE
gpcl6:_ZN9tesseract18compute_rows_pitchEPNS_8TO_BLOCKEib
gpcl6:_ZN9tesseract18create_fxdebug_winEv
gpcl6:_ZN9tesseract18find_cblob_hlimitsEPNS_6C_BLOBEffRfS2_
gpcl6:_ZN9tesseract18find_cblob_vlimitsEPNS_6C_BLOBEffRfS2_
gpcl6:_ZN9tesseract18free_adapted_classEPNS_18ADAPT_CLASS_STRUCTE
gpcl6:_ZN9tesseract18free_int_templatesEPNS_20INT_TEMPLATES_STRUCTE
gpcl6:_ZN9tesseract18make_first_xheightEPNS_6TO_ROWEPNS_4TBOXEiiiPNS_7QSPLINEEf
gpcl6:_ZN9tesseract18pitsync_fake_depthE
gpcl6:_ZN9tesseract18print_block_countsEPNS_8TO_BLOCKEi
gpcl6:_ZN9tesseract18print_ratings_listEPKcPNS_16BLOB_CHOICE_LISTERKNS_10UNICHARSETE
gpcl6:_ZN9tesseract18textord_chop_widthE
gpcl6:_ZN9tesseract18textord_debug_blobE
gpcl6:_ZN9tesseract18textord_debug_bugsE
gpcl6:_ZN9tesseract18tweak_row_baselineEPNS_3ROWEdd
gpcl6:_ZN9tesseract18wordrec_blob_pauseE
gpcl6:_ZN9tesseract18write_spacing_infoEP8_IO_FILERKNS_8FontInfoE
gpcl6:_ZN9tesseract19ActualOutlineLengthEPNS_14FEATURE_STRUCTE
gpcl6:_ZN9tesseract19AsciiLikelyListItemERKNS_6STRINGE
gpcl6:_ZN9tesseract19BLOCK_RES_c1_zapperEPv
gpcl6:_ZN9tesseract19C_OUTLINE_FRAG_LIST9deep_copyEPKS0_PFPNS_14C_OUTLINE_FRAGEPKS3_E
gpcl6:_ZN9tesseract19ColPartition_zapperEPNS_11ELIST2_LINKE
gpcl6:_ZN9tesseract19ExtractMicroFeatureEPNS_8list_recES1_
gpcl6:_ZN9tesseract19FreeCharDescriptionEPNS_16CHAR_DESC_STRUCTE
gpcl6:_ZN9tesseract19NextDirectionChangeEPNS_8list_recE
gpcl6:_ZN9tesseract19OrientationDetector11detect_blobEPNS_16BLOB_CHOICE_LISTE
gpcl6:_ZN9tesseract19OrientationDetector15get_orientationEv
gpcl6:_ZN9tesseract19OrientationDetectorC1EPKSt6vectorIiSaIiEEPNS_9OSResultsE
gpcl6:_ZN9tesseract19OrientationDetectorC2EPKSt6vectorIiSaIiEEPNS_9OSResultsE
gpcl6:_ZN9tesseract19ReadCharDescriptionERKNS_19FEATURE_DEFS_STRUCTEP8_IO_FILE
gpcl6:_ZN9tesseract19RightWordAttributesEPKNS_10UNICHARSETEPKNS_11WERD_CHOICEERKNS_6STRINGEPbS9_S9_
gpcl6:_ZN9tesseract19RowScratchRegisters11AddBodyLineEPKNS_14ParagraphModelE
gpcl6:_ZN9tesseract19RowScratchRegisters11SetBodyLineEv
gpcl6:_ZN9tesseract19RowScratchRegisters12AddStartLineEPKNS_14ParagraphModelE
gpcl6:_ZN9tesseract19RowScratchRegisters12SetStartLineEv
gpcl6:_ZN9tesseract19RowScratchRegisters23AppendDebugHeaderFieldsEPSt6vectorINS_6STRINGESaIS2_EE
gpcl6:_ZN9tesseract19RowScratchRegisters28DiscardNonMatchingHypothesesERKNS_13GenericVectorIPKNS_14ParagraphModelEEE
gpcl6:_ZN9tesseract19RowScratchRegisters4InitERKNS_7RowInfoE
gpcl6:_ZN9tesseract19SORTED_FLOAT_zapperEPNS_10ELIST_LINKE
gpcl6:_ZN9tesseract19TabVector_c1_zapperEPv
gpcl6:_ZN9tesseract19TessBoxTextRenderer15AddImageHandlerEPNS_11TessBaseAPIE
gpcl6:_ZN9tesseract19TessBoxTextRendererC1EPKc
gpcl6:_ZN9tesseract19TessBoxTextRendererC2EPKc
gpcl6:_ZN9tesseract19TessLSTMBoxRenderer15AddImageHandlerEPNS_11TessBaseAPIE
gpcl6:_ZN9tesseract19TessLSTMBoxRendererC1EPKc
gpcl6:_ZN9tesseract19TessLSTMBoxRendererC2EPKc
gpcl6:_ZN9tesseract19TrainingSample_LIST9deep_copyEPKS0_PFPNS_14TrainingSampleEPKS3_E
gpcl6:_ZN9tesseract19WorkingPartSet_LIST9deep_copyEPKS0_PFPNS_14WorkingPartSetEPKS3_E
gpcl6:_ZN9tesseract19cleanup_rows_makingENS_6ICOORDEPNS_8TO_BLOCKEfNS_6FCOORDEib
gpcl6:_ZN9tesseract19compute_block_pitchEPNS_8TO_BLOCKENS_6FCOORDEib
gpcl6:_ZN9tesseract19compute_fixed_pitchENS_6ICOORDEPNS_13TO_BLOCK_LISTEfNS_6FCOORDEb
gpcl6:_ZN9tesseract19correct_row_xheightEPNS_6TO_ROWEfff
gpcl6:_ZN9tesseract19deskew_block_coordsEPNS_8TO_BLOCKEf
gpcl6:_ZN9tesseract19find_repeated_charsEPNS_8TO_BLOCKEb
gpcl6:_ZN9tesseract19insert_spline_pointEPiiiiRi
gpcl6:_ZN9tesseract19make_first_baselineEPNS_4TBOXEiPiS2_PNS_7QSPLINEES4_f
gpcl6:_ZN9tesseract19make_holed_baselineEPNS_4TBOXEiPNS_7QSPLINEES3_f
gpcl6:_ZN9tesseract19mark_repeated_charsEPNS_6TO_ROWE
gpcl6:_ZN9tesseract19pitsync_joined_edgeE
gpcl6:_ZN9tesseract19pre_associate_blobsENS_6ICOORDEPNS_8TO_BLOCKENS_6FCOORDEb
gpcl6:_ZN9tesseract19reject_poor_matchesEPNS_8WERD_RESE
gpcl6:_ZN9tesseract19separate_underlinesEPNS_8TO_BLOCKEfNS_6FCOORDEb
gpcl6:_ZN9tesseract19textord_debug_blockE
gpcl6:_ZN9tesseract19textord_fp_choppingE
gpcl6:_ZN9tesseract19textord_fpiqr_ratioE
gpcl6:_ZN9tesseract19textord_min_xheightE
gpcl6:_ZN9tesseract19textord_old_xheightE
gpcl6:_ZN9tesseract19textord_oldbl_debugE
gpcl6:_ZN9tesseract19textord_pitch_cheatE
gpcl6:_ZN9tesseract19textord_pitch_rangeE
gpcl6:_ZN9tesseract19textord_width_limitE
gpcl6:_ZN9tesseract19words_initial_lowerE
gpcl6:_ZN9tesseract19words_initial_upperE
gpcl6:_ZN9tesseract20BlobToTrainingSampleERKNS_5TBLOBEbPNS_20INT_FX_RESULT_STRUCTEPSt6vectorINS_18INT_FEATURE_STRUCTESaIS6_EE
gpcl6:_ZN9tesseract20CharNormalizeOutlineEPNS_8list_recERKNS_6DENORME
gpcl6:_ZN9tesseract20ColPartitionSet_LIST9deep_copyEPKS0_PFPNS_15ColPartitionSetEPKS3_E
gpcl6:_ZN9tesseract20ColSegment_c1_zapperEPv
gpcl6:_ZN9tesseract20FindDirectionChangesEPNS_8list_recEff
gpcl6:_ZN9tesseract20MarkDirectionChangesEPNS_8list_recE
gpcl6:_ZN9tesseract20OrientationIdToValueERKi
gpcl6:_ZN9tesseract20TabConstraint_zapperEPNS_10ELIST_LINKE
gpcl6:_ZN9tesseract20ValidCharDescriptionERKNS_19FEATURE_DEFS_STRUCTEPNS_16CHAR_DESC_STRUCTE
gpcl6:_ZN9tesseract20WriteCharDescriptionERKNS_19FEATURE_DEFS_STRUCTEPNS_16CHAR_DESC_STRUCTEPNS_6STRINGE
gpcl6:_ZN9tesseract20assign_blobs_to_rowsEPNS_8TO_BLOCKEPfibbb
gpcl6:_ZN9tesseract20box_next_pre_choppedEPNS_11BLOBNBOX_ITE
gpcl6:_ZN9tesseract20compute_height_modesEPNS_5STATSEiiPii
gpcl6:_ZN9tesseract20compute_row_descdropEPNS_6TO_ROWEfiPNS_5STATSE
gpcl6:_ZN9tesseract20edgesteps_to_edgeptsEPNS_9C_OUTLINEEPNS_6EDGEPTE
gpcl6:_ZN9tesseract20kUniversalAmbigsFileE
gpcl6:_ZN9tesseract20make_baseline_splineEPNS_6TO_ROWEPNS_8TO_BLOCKE
gpcl6:_ZN9tesseract20make_illegal_segmentEPNS_12FPSEGPT_LISTENS_4TBOXENS_11BLOBNBOX_ITEsssS1_
gpcl6:_ZN9tesseract20most_overlapping_rowEPNS_11TO_ROW_LISTEPNS_8BLOBNBOXE
gpcl6:_ZN9tesseract20most_overlapping_rowEPNS_9TO_ROW_ITERPNS_6TO_ROWEfffb
gpcl6:_ZN9tesseract20split_stepped_splineEPNS_7QSPLINEEfPiS2_Ri
gpcl6:_ZN9tesseract20textord_chopper_testE
gpcl6:_ZN9tesseract20textord_fp_chop_snapE
gpcl6:_ZN9tesseract20textord_fp_min_widthE
gpcl6:_ZN9tesseract20textord_min_linesizeE
gpcl6:_ZN9tesseract21AddProtoToClassPrunerEPNS_12PROTO_STRUCTEiPNS_20INT_TEMPLATES_STRUCTE
gpcl6:_ZN9tesseract21AddProtoToProtoPrunerEPNS_12PROTO_STRUCTEiPNS_16INT_CLASS_STRUCTEb
gpcl6:_ZN9tesseract21C_OUTLINE_FRAG_zapperEPNS_10ELIST_LINKE
gpcl6:_ZN9tesseract21FirstWordWouldHaveFitERKNS_19RowScratchRegistersES2_
gpcl6:_ZN9tesseract21FirstWordWouldHaveFitERKNS_19RowScratchRegistersES2_NS_22ParagraphJustificationE
gpcl6:_ZN9tesseract21FontSetDeleteCallbackENS_7FontSetE
gpcl6:_ZN9tesseract21ParagraphModelSmearer19CalculateOpenModelsEii
gpcl6:_ZN9tesseract21ParagraphModelSmearer5SmearEv
gpcl6:_ZN9tesseract21ParagraphModelSmearerC1EPNS_13GenericVectorINS_19RowScratchRegistersEEEiiPNS_15ParagraphTheoryE
gpcl6:_ZN9tesseract21ParagraphModelSmearerC2EPNS_13GenericVectorINS_19RowScratchRegistersEEEiiPNS_15ParagraphTheoryE
gpcl6:_ZN9tesseract21TrainingSample_zapperEPNS_10ELIST_LINKE
gpcl6:_ZN9tesseract21WordWithBox_c1_zapperEPv
gpcl6:_ZN9tesseract21WorkingPartSet_zapperEPNS_10ELIST_LINKE
gpcl6:_ZN9tesseract21find_best_dropout_rowEPNS_6TO_ROWEifiPNS_9TO_ROW_ITEb
gpcl6:_ZN9tesseract21find_underlined_blobsEPNS_8BLOBNBOXEPNS_7QSPLINEEffPNS_14ICOORDELT_LISTE
gpcl6:_ZN9tesseract21make_initial_textrowsENS_6ICOORDEPNS_8TO_BLOCKENS_6FCOORDEb
gpcl6:_ZN9tesseract21textord_debug_tabfindE
gpcl6:_ZN9tesseract21textord_dotmatrix_gapE
gpcl6:_ZN9tesseract21textord_fp_chop_errorE
gpcl6:_ZN9tesseract21textord_max_pitch_iqrE
gpcl6:_ZN9tesseract21textord_old_baselinesE
gpcl6:_ZN9tesseract21textord_show_row_cutsE
gpcl6:_ZN9tesseract22AddOutlineFeatureToSetEP6FPOINTS1_PNS_18FEATURE_SET_STRUCTE
gpcl6:_ZN9tesseract22ColPartitionSet_zapperEPNS_10ELIST_LINKE
gpcl6:_ZN9tesseract22ColPartition_c1_zapperEPv
gpcl6:_ZN9tesseract22ConvertToMicroFeaturesEPNS_8list_recES1_
gpcl6:_ZN9tesseract22ConvertToPicoFeatures2EPNS_8list_recEPNS_18FEATURE_SET_STRUCTE
gpcl6:_ZN9tesseract22FPSEGPT_LIST_c1_zapperEPv
gpcl6:_ZN9tesseract22FontInfoDeleteCallbackENS_8FontInfoE
gpcl6:_ZN9tesseract22PrintSegmentationStatsEPNS_10BLOCK_LISTE
gpcl6:_ZN9tesseract22ShortNameToFeatureTypeERKNS_19FEATURE_DEFS_STRUCTEPKc
gpcl6:_ZN9tesseract22TessWordStrBoxRenderer15AddImageHandlerEPNS_11TessBaseAPIE
gpcl6:_ZN9tesseract22TessWordStrBoxRendererC1EPKc
gpcl6:_ZN9tesseract22TessWordStrBoxRendererC2EPKc
gpcl6:_ZN9tesseract22TraceBlockOnReducedPixEPNS_5BLOCKEiNS_6ICOORDEPiS3_
gpcl6:_ZN9tesseract22ViterbiStateEntry_LIST9deep_copyEPKS0_PFPNS_17ViterbiStateEntryEPKS3_E
gpcl6:_ZN9tesseract22classify_norm_adj_curlE
gpcl6:_ZN9tesseract22determine_newline_typeEPNS_4WERDEPNS_5BLOCKES1_S3_
gpcl6:_ZN9tesseract22free_adapted_templatesEPNS_22ADAPT_TEMPLATES_STRUCTE
gpcl6:_ZN9tesseract22linear_spline_baselineEPNS_6TO_ROWEPNS_8TO_BLOCKERiPi
gpcl6:_ZN9tesseract22pitsync_linear_versionE
gpcl6:_ZN9tesseract22textord_ascx_ratio_maxE
gpcl6:_ZN9tesseract22textord_ascx_ratio_minE
gpcl6:_ZN9tesseract22textord_balance_factorE
gpcl6:_ZN9tesseract22textord_blocksall_propE
gpcl6:_ZN9tesseract22textord_debug_xheightsE
gpcl6:_ZN9tesseract22textord_show_new_wordsE
gpcl6:_ZN9tesseract22textord_show_page_cutsE
gpcl6:_ZN9tesseract22textord_test_landscapeE
gpcl6:_ZN9tesseract22textord_words_def_propE
gpcl6:_ZN9tesseract22textord_words_maxspaceE
gpcl6:_ZN9tesseract22textord_words_minlargeE
gpcl6:_ZN9tesseract22transform_to_next_permERNS_13WERD_RES_LISTE
gpcl6:_ZN9tesseract22vigorous_noise_removalEPNS_8TO_BLOCKE
gpcl6:_ZN9tesseract22wordrec_display_splitsE
gpcl6:_ZN9tesseract23ExtractCharNormFeaturesERKNS_20INT_FX_RESULT_STRUCTE
gpcl6:_ZN9tesseract23KDNearestNeighborSearchEPNS_6KDTREEEPfifPiPPvS2_
gpcl6:_ZN9tesseract23assign_blobs_to_blocks2EP3PixPNS_10BLOCK_LISTEPNS_13TO_BLOCK_LISTE
gpcl6:_ZN9tesseract23compute_fixed_pitch_cjkENS_6ICOORDEPNS_13TO_BLOCK_LISTE
gpcl6:_ZN9tesseract23compute_line_occupationEPNS_8TO_BLOCKEfiiPiS2_
gpcl6:_ZN9tesseract23delete_non_dropout_rowsEPNS_8TO_BLOCKEfNS_6FCOORDEib
gpcl6:_ZN9tesseract23textord_blockndoc_fixedE
gpcl6:_ZN9tesseract23textord_blocksall_fixedE
gpcl6:_ZN9tesseract23textord_debug_printableE
gpcl6:_ZN9tesseract23textord_descx_ratio_maxE
gpcl6:_ZN9tesseract23textord_descx_ratio_minE
gpcl6:_ZN9tesseract23textord_excess_blobsizeE
gpcl6:_ZN9tesseract23textord_fast_pitch_testE
gpcl6:_ZN9tesseract23textord_fix_makerow_bugE
gpcl6:_ZN9tesseract23textord_fix_xheight_bugE
gpcl6:_ZN9tesseract23textord_lms_line_trialsE
gpcl6:_ZN9tesseract23textord_show_final_rowsE
gpcl6:_ZN9tesseract23textord_show_fixed_cutsE
gpcl6:_ZN9tesseract23textord_spline_minblobsE
gpcl6:_ZN9tesseract23textord_underline_widthE
gpcl6:_ZN9tesseract23textord_words_def_fixedE
gpcl6:_ZN9tesseract23textord_words_width_ileE
gpcl6:_ZN9tesseract24ConvertSegmentToPicoFeatEP6FPOINTS1_PNS_18FEATURE_SET_STRUCTE
gpcl6:_ZN9tesseract24ConvertToOutlineFeaturesEPNS_8list_recEPNS_18FEATURE_SET_STRUCTE
gpcl6:_ZN9tesseract24TraceOutlineOnReducedPixEPNS_9C_OUTLINEEiNS_6ICOORDEPiS3_
gpcl6:_ZN9tesseract24ViterbiStateEntry_zapperEPNS_10ELIST_LINKE
gpcl6:_ZN9tesseract24compute_reject_thresholdEPNS_11WERD_CHOICEE
gpcl6:_ZN9tesseract24restore_underlined_blobsEPNS_8TO_BLOCKE
gpcl6:_ZN9tesseract24textord_debug_pitch_testE
gpcl6:_ZN9tesseract24textord_min_blobs_in_rowE
gpcl6:_ZN9tesseract24textord_projection_scaleE
gpcl6:_ZN9tesseract24textord_show_final_blobsE
gpcl6:_ZN9tesseract24textord_show_fixed_wordsE
gpcl6:_ZN9tesseract24textord_spline_medianwinE
gpcl6:_ZN9tesseract24textord_underline_offsetE
gpcl6:_ZN9tesseract24textord_words_veto_powerE
gpcl6:_ZN9tesseract25compute_dropout_distancesEPiS0_i
gpcl6:_ZN9tesseract25gapmap_no_isolated_quantaE
gpcl6:_ZN9tesseract25textord_blocksall_testingE
gpcl6:_ZN9tesseract25textord_show_initial_rowsE
gpcl6:_ZN9tesseract25textord_spacesize_ratiofpE
gpcl6:_ZN9tesseract25vertical_cblob_projectionEPNS_6C_BLOBEPNS_5STATSE
gpcl6:_ZN9tesseract25wordrec_display_all_blobsE
gpcl6:_ZN9tesseract25words_default_fixed_limitE
gpcl6:_ZN9tesseract25words_default_fixed_spaceE
gpcl6:_ZN9tesseract26classify_norm_adj_midpointE
gpcl6:_ZN9tesseract26compute_xheight_from_modesEPNS_5STATSES1_biiPfS2_
gpcl6:_ZN9tesseract26ksizeofUniversalAmbigsFileE
gpcl6:_ZN9tesseract26textord_debug_pitch_metricE
gpcl6:_ZN9tesseract26textord_linespace_iqrlimitE
gpcl6:_ZN9tesseract26textord_parallel_baselinesE
gpcl6:_ZN9tesseract26textord_restore_underlinesE
gpcl6:_ZN9tesseract26textord_show_expanded_rowsE
gpcl6:_ZN9tesseract26textord_show_initial_wordsE
gpcl6:_ZN9tesseract26textord_show_parallel_rowsE
gpcl6:_ZN9tesseract26textord_straight_baselinesE
gpcl6:_ZN9tesseract26textord_words_min_minspaceE
gpcl6:_ZN9tesseract27ParamsTrainingFeatureByNameEPKc
gpcl6:_ZN9tesseract27devanagari_split_debugimageE
gpcl6:_ZN9tesseract27devanagari_split_debuglevelE
gpcl6:_ZN9tesseract27textord_new_initial_xheightE
gpcl6:_ZN9tesseract27textord_occupancy_thresholdE
gpcl6:_ZN9tesseract27textord_pitch_rowsimilarityE
gpcl6:_ZN9tesseract27textord_pitch_scalebigwordsE
gpcl6:_ZN9tesseract27textord_spacesize_ratiopropE
gpcl6:_ZN9tesseract27textord_underline_thresholdE
gpcl6:_ZN9tesseract27textord_width_smooth_factorE
gpcl6:_ZN9tesseract27textord_words_initial_lowerE
gpcl6:_ZN9tesseract27textord_words_initial_upperE
gpcl6:_ZN9tesseract27words_default_prop_nonspaceE
gpcl6:_ZN9tesseract28CanonicalizeDetectionResultsEPNS_13GenericVectorIPNS_4PARAEEEPNS_9PARA_LISTE
gpcl6:_ZN9tesseract28ExtractBlobsFromSegmentationEPNS_10BLOCK_LISTEPNS_11C_BLOB_LISTE
gpcl6:_ZN9tesseract28RefreshWordBlobsFromNewBlobsEPNS_10BLOCK_LISTEPNS_11C_BLOB_LISTES3_
gpcl6:_ZN9tesseract28classify_pico_feature_lengthE
gpcl6:_ZN9tesseract28compute_occupation_thresholdEiiiPiS0_
gpcl6:_ZN9tesseract28textord_xheight_error_marginE
gpcl6:_ZN9tesseract28vertical_coutline_projectionEPNS_9C_OUTLINEEPNS_5STATSE
gpcl6:_ZN9tesseract29textord_force_make_prop_wordsE
gpcl6:_ZN9tesseract29textord_spline_shift_fractionE
gpcl6:_ZN9tesseract29textord_words_definite_spreadE
gpcl6:_ZN9tesseract29textord_xheight_mode_fractionE
gpcl6:_ZN9tesseract30textord_words_default_maxspaceE
gpcl6:_ZN9tesseract30textord_words_default_minspaceE
gpcl6:_ZN9tesseract30textord_words_default_nonspaceE
gpcl6:_ZN9tesseract30vertical_cunderline_projectionEPNS_9C_OUTLINEEPNS_7QSPLINEEffPNS_5STATSES5_S5_
gpcl6:_ZN9tesseract31pitsync_offset_freecut_fractionE
gpcl6:_ZN9tesseract31textord_ascheight_mode_fractionE
gpcl6:_ZN9tesseract31textord_spline_outlier_fractionE
gpcl6:_ZN9tesseract31textord_words_pitchsd_thresholdE
gpcl6:_ZN9tesseract31textord_wordstats_smooth_factorE
gpcl6:_ZN9tesseract32orientation_and_script_detectionEPKcPNS_9OSResultsEPNS_9TesseractE
gpcl6:_ZN9tesseract32textord_min_blob_height_fractionE
gpcl6:_ZN9tesseract33EqualIgnoringCaseAndTerminalPunctERKNS_11WERD_CHOICEES2_
gpcl6:_ZN9tesseract34RecomputeMarginsAndClearHypothesesEPNS_13GenericVectorINS_19RowScratchRegistersEEEiii
gpcl6:_ZN9tesseract36textord_tabvector_vertical_box_ratioE
gpcl6:_ZN9tesseract39textord_tabvector_vertical_gap_fractionE
gpcl6:_ZN9tesseract3REJ10full_printEP8_IO_FILE
gpcl6:_ZN9tesseract3REJ13perm_rejectedEv
gpcl6:_ZN9tesseract3REJ13setrej_hyphenEv
gpcl6:_ZN9tesseract3REJ14setrej_doc_rejEv
gpcl6:_ZN9tesseract3REJ14setrej_dubiousEv
gpcl6:_ZN9tesseract3REJ14setrej_row_rejEv
gpcl6:_ZN9tesseract3REJ15setrej_unlv_rejEv
gpcl6:_ZN9tesseract3REJ16setrej_block_rejEv
gpcl6:_ZN9tesseract3REJ16setrej_edge_charEv
gpcl6:_ZN9tesseract3REJ16setrej_mm_acceptEv
gpcl6:_ZN9tesseract3REJ16setrej_mm_rejectEv
gpcl6:_ZN9tesseract3REJ16setrej_nn_acceptEv
gpcl6:_ZN9tesseract3REJ16setrej_rej_cblobEv
gpcl6:_ZN9tesseract3REJ16setrej_small_xhtEv
gpcl6:_ZN9tesseract3REJ16setrej_xht_fixupEv
gpcl6:_ZN9tesseract3REJ17setrej_mostly_rejEv
gpcl6:_ZN9tesseract3REJ17setrej_poor_matchEv
gpcl6:_ZN9tesseract3REJ17setrej_postNN_1IlEv
gpcl6:_ZN9tesseract3REJ18setrej_bad_qualityEv
gpcl6:_ZN9tesseract3REJ19setrej_1Il_conflictEv
gpcl6:_ZN9tesseract3REJ19setrej_bad_permuterEv
gpcl6:_ZN9tesseract3REJ19setrej_no_alphanumsEv
gpcl6:_ZN9tesseract3REJ19setrej_tess_failureEv
gpcl6:_ZN9tesseract3REJ20rej_before_mm_acceptEv
gpcl6:_ZN9tesseract3REJ20rej_before_nn_acceptEv
gpcl6:_ZN9tesseract3REJ20setrej_hyphen_acceptEv
gpcl6:_ZN9tesseract3REJ21rej_between_nn_and_mmEv
gpcl6:_ZN9tesseract3REJ21setrej_bad_repetitionEv
gpcl6:_ZN9tesseract3REJ21setrej_quality_acceptEv
gpcl6:_ZN9tesseract3REJ22accept_if_good_qualityEv
gpcl6:_ZN9tesseract3REJ22setrej_contains_blanksEv
gpcl6:_ZN9tesseract3REJ24setrej_not_tess_acceptedEv
gpcl6:_ZN9tesseract3REJ25rej_before_quality_acceptEv
gpcl6:_ZN9tesseract3REJ25setrej_minimal_rej_acceptEv
gpcl6:_ZN9tesseract3REJ33rej_between_mm_and_quality_acceptEv
gpcl6:_ZN9tesseract3REJ42rej_between_quality_and_minimal_rej_acceptEv
gpcl6:_ZN9tesseract3REJ8rejectedEv
gpcl6:_ZN9tesseract3ROW19recalc_bounding_boxEv
gpcl6:_ZN9tesseract3ROW4moveENS_6ICOORDE
gpcl6:_ZN9tesseract3ROW5printEP8_IO_FILE
gpcl6:_ZN9tesseract3ROWC1EPNS_6TO_ROWEss
gpcl6:_ZN9tesseract3ROWC1EiPiPdfffss
gpcl6:_ZN9tesseract3ROWC2EPNS_6TO_ROWEss
gpcl6:_ZN9tesseract3ROWC2EiPiPdfffss
gpcl6:_ZN9tesseract3ROWaSERKS0_
gpcl6:_ZN9tesseract3popEPNS_8list_recE
gpcl6:_ZN9tesseract4Dawg4initEi
gpcl6:_ZN9tesseract4DawgD0Ev
gpcl6:_ZN9tesseract4DawgD1Ev
gpcl6:_ZN9tesseract4DawgD2Ev
gpcl6:_ZN9tesseract4Dict10FinishLoadEv
gpcl6:_ZN9tesseract4Dict11adjust_wordEPNS_11WERD_CHOICEEbNS_22XHeightConsistencyEnumEfbb
gpcl6:_ZN9tesseract4Dict12ReplaceAmbigEiiiPNS_11WERD_CHOICEEPNS_6MATRIXE
gpcl6:_ZN9tesseract4Dict12SetupForLoadEPNS_9DawgCacheE
gpcl6:_ZN9tesseract4Dict14append_choicesEPKcRKNS_13GenericVectorIPNS_16BLOB_CHOICE_LISTEEERKNS_11BLOB_CHOICEEiPKNS_18CHAR_FRAGMENT_INFOEPNS_11WERD_CHOICEEPfSH_SG_PiPv
gpcl6:_ZN9tesseract4Dict15GlobalDawgCacheEv
gpcl6:_ZN9tesseract4Dict15permute_choicesEPKcRKNS_13GenericVectorIPNS_16BLOB_CHOICE_LISTEEEiPKNS_18CHAR_FRAGMENT_INFOEPNS_11WERD_CHOICEEPfSE_SD_PiPv
gpcl6:_ZN9tesseract4Dict15set_hyphen_wordERKNS_11WERD_CHOICEERKNS_18DawgPositionVectorE
gpcl6:_ZN9tesseract4Dict16AcceptableChoiceERKNS_11WERD_CHOICEENS_22XHeightConsistencyEnumE
gpcl6:_ZN9tesseract4Dict16NoDangerousAmbigEPNS_11WERD_CHOICEEPNS_13GenericVectorINS_12DANGERR_INFOEEEbPNS_6MATRIXE
gpcl6:_ZN9tesseract4Dict16absolute_garbageERKNS_11WERD_CHOICEERKNS_10UNICHARSETE
gpcl6:_ZN9tesseract4Dict17add_document_wordERKNS_11WERD_CHOICEE
gpcl6:_ZN9tesseract4Dict17reset_hyphen_varsEb
gpcl6:_ZN9tesseract4Dict17valid_punctuationERKNS_11WERD_CHOICEE
gpcl6:_ZN9tesseract4Dict18EndDangerousAmbigsEv
gpcl6:_ZN9tesseract4Dict18SettupStopperPass1Ev
gpcl6:_ZN9tesseract4Dict18SettupStopperPass2Ev
gpcl6:_ZN9tesseract4Dict18UniformCertaintiesERKNS_11WERD_CHOICEE
gpcl6:_ZN9tesseract4Dict18go_deeper_dawg_fxnEPKcRKNS_13GenericVectorIPNS_16BLOB_CHOICE_LISTEEEiPKNS_18CHAR_FRAGMENT_INFOEbPNS_11WERD_CHOICEEPfSE_SD_PiPv
gpcl6:_ZN9tesseract4Dict19fragment_state_okayEiffPKNS_18CHAR_FRAGMENT_INFOEPKciPS1_
gpcl6:_ZN9tesseract4Dict23dawg_permute_and_selectERKNS_13GenericVectorIPNS_16BLOB_CHOICE_LISTEEEf
gpcl6:_ZN9tesseract4Dict3EndEv
gpcl6:_ZN9tesseract4Dict4LoadERKNS_6STRINGEPNS_15TessdataManagerE
gpcl6:_ZN9tesseract4Dict8LoadLSTMERKNS_6STRINGEPNS_15TessdataManagerE
gpcl6:_ZN9tesseract4DictC1EPNS_6CCUtilE
gpcl6:_ZN9tesseract4DictC2EPNS_6CCUtilE
gpcl6:_ZN9tesseract4DictD1Ev
gpcl6:_ZN9tesseract4DictD2Ev
gpcl6:_ZN9tesseract4LLSQ3addERKS0_
gpcl6:_ZN9tesseract4LLSQ3addEdd
gpcl6:_ZN9tesseract4LLSQ3addEddd
gpcl6:_ZN9tesseract4LLSQ5clearEv
gpcl6:_ZN9tesseract4LLSQ6removeEdd
gpcl6:_ZN9tesseract4LSTM11DeSerializeEPNS_5TFileE
gpcl6:_ZN9tesseract4LSTM11InitWeightsEfPNS_5TRandE
gpcl6:_ZN9tesseract4LSTM12ConvertToIntEv
gpcl6:_ZN9tesseract4LSTM12DebugWeightsEv
gpcl6:_ZN9tesseract4LSTM12RemapOutputsEiRKSt6vectorIiSaIiEE
gpcl6:_ZN9tesseract4LSTM13ResizeForwardERKNS_9NetworkIOE
gpcl6:_ZN9tesseract4LSTM17SetEnableTrainingENS_13TrainingStateE
gpcl6:_ZN9tesseract4LSTM6PrintWEv
gpcl6:_ZN9tesseract4LSTM6UpdateEfffi
gpcl6:_ZN9tesseract4LSTM7ForwardEbRKNS_9NetworkIOEPKNS_15TransposedArrayEPNS_14NetworkScratchEPS1_
gpcl6:_ZN9tesseract4LSTM7PrintDWEv
gpcl6:_ZN9tesseract4LSTM8BackwardEbRKNS_9NetworkIOEPNS_14NetworkScratchEPS1_
gpcl6:_ZN9tesseract4LSTMC1ERKNSt7__cxx1112basic_stringIcSt11char_traitsIcESaIcEEEiiibNS_11NetworkTypeE
gpcl6:_ZN9tesseract4LSTMC2ERKNSt7__cxx1112basic_stringIcSt11char_traitsIcESaIcEEEiiibNS_11NetworkTypeE
gpcl6:_ZN9tesseract4LSTMD0Ev
gpcl6:_ZN9tesseract4LSTMD1Ev
gpcl6:_ZN9tesseract4LSTMD2Ev
gpcl6:_ZN9tesseract4MeanEPNS_9PROTOTYPEEt
gpcl6:_ZN9tesseract4QLSQ3addEdd
gpcl6:_ZN9tesseract4QLSQ3fitEi
gpcl6:_ZN9tesseract4QLSQ5clearEv
gpcl6:_ZN9tesseract4QLSQ6removeEdd
gpcl6:_ZN9tesseract4SEAM10JoinPiecesERKNS_13GenericVectorIPS0_EERKNS1_IPNS_5TBLOBEEEii
gpcl6:_ZN9tesseract4SEAM10PrintSeamsEPKcRKNS_13GenericVectorIPS0_EE
gpcl6:_ZN9tesseract4SEAM11BreakPiecesERKNS_13GenericVectorIPS0_EERKNS1_IPNS_5TBLOBEEEii
gpcl6:_ZN9tesseract4SEAM13FindBlobWidthERKNS_13GenericVectorIPNS_5TBLOBEEEib
gpcl6:_ZN9tesseract4SEAM19PrepareToInsertSeamERKNS_13GenericVectorIPS0_EERKNS1_IPNS_5TBLOBEEEib
gpcl6:_ZN9tesseract4TBOX11DeSerializeEbP8_IO_FILE
gpcl6:_ZN9tesseract4TBOX12rotate_largeERKNS_6FCOORDE
gpcl6:_ZN9tesseract4TBOXC1ENS_6ICOORDES1_
gpcl6:_ZN9tesseract4TBOXC2ENS_6ICOORDES1_
gpcl6:_ZN9tesseract4Trie10sort_edgesEPNS_13GenericVectorImEE
gpcl6:_ZN9tesseract4Trie12trie_to_dawgEv
gpcl6:_ZN9tesseract4Trie13add_word_listERKSt6vectorINS_6STRINGESaIS2_EERKNS_10UNICHARSETENS0_16RTLReversePolicyE
gpcl6:_ZN9tesseract4Trie13new_dawg_nodeEv
gpcl6:_ZN9tesseract4Trie14read_word_listEPKcPSt6vectorINS_6STRINGESaIS4_EE
gpcl6:_ZN9tesseract4Trie15add_word_endingEPmlbi
gpcl6:_ZN9tesseract4Trie16add_edge_linkageEllbibi
gpcl6:_ZN9tesseract4Trie16add_word_to_dawgERKNS_11WERD_CHOICEEPKNS_13GenericVectorIbEE
gpcl6:_ZN9tesseract4Trie17read_pattern_listEPKcRKNS_10UNICHARSETE
gpcl6:_ZN9tesseract4Trie17reduce_node_inputElPb
gpcl6:_ZN9tesseract4Trie19initialize_patternsEPNS_10UNICHARSETE
gpcl6:_ZN9tesseract4Trie19kPuncPatternUnicodeE
gpcl6:_ZN9tesseract4Trie19remove_edge_linkageEllibi
gpcl6:_ZN9tesseract4Trie20kAlphaPatternUnicodeE
gpcl6:_ZN9tesseract4Trie20kDigitPatternUnicodeE
gpcl6:_ZN9tesseract4Trie20kLowerPatternUnicodeE
gpcl6:_ZN9tesseract4Trie20kUpperPatternUnicodeE
gpcl6:_ZN9tesseract4Trie21reduce_lettered_edgesElilPNS_13GenericVectorImEEPb
gpcl6:_ZN9tesseract4Trie22read_and_add_word_listEPKcRKNS_10UNICHARSETENS0_16RTLReversePolicyE
gpcl6:_ZN9tesseract4Trie23get_reverse_policy_nameENS0_16RTLReversePolicyE
gpcl6:_ZN9tesseract4Trie23kAlphanumPatternUnicodeE
gpcl6:_ZN9tesseract4Trie25eliminate_redundant_edgesElRKmS2_
gpcl6:_ZN9tesseract4Trie26character_class_to_patternEc
gpcl6:_ZN9tesseract4Trie5clearEv
gpcl6:_ZN9tesseract4WERD10CleanNoiseEf
gpcl6:_ZN9tesseract4WERD12shallow_copyEv
gpcl6:_ZN9tesseract4WERD16GetNoiseOutlinesEPNS_13GenericVectorIPNS_9C_OUTLINEEEE
gpcl6:_ZN9tesseract4WERD19AddSelectedOutlinesERKNS_13GenericVectorIbEERKNS1_IPNS_6C_BLOBEEERKNS1_IPNS_9C_OUTLINEEEEPb
gpcl6:_ZN9tesseract4WERD23ConstructFromSingleBlobEbbPNS_6C_BLOBE
gpcl6:_ZN9tesseract4WERD25ConstructWerdWithNewBlobsEPNS_11C_BLOB_LISTES2_
gpcl6:_ZN9tesseract4WERD4moveENS_6ICOORDE
gpcl6:_ZN9tesseract4WERD5printEv
gpcl6:_ZN9tesseract4WERD7copy_onEPS0_
gpcl6:_ZN9tesseract4WERD7join_onEPS0_
gpcl6:_ZN9tesseract4WERDC1EPNS_11C_BLOB_LISTEPS0_
gpcl6:_ZN9tesseract4WERDC1EPNS_11C_BLOB_LISTEhPKc
gpcl6:_ZN9tesseract4WERDC2EPNS_11C_BLOB_LISTEPS0_
gpcl6:_ZN9tesseract4WERDC2EPNS_11C_BLOB_LISTEhPKc
gpcl6:_ZN9tesseract4WERDaSERKS0_
gpcl6:_ZN9tesseract4WalkEPNS_6KDTREEEPFvzEPvPNS_6KDNODEEi
gpcl6:_ZN9tesseract4fix2EPNS_6EDGEPTEi
gpcl6:_ZN9tesseract4lastEPNS_8list_recE
gpcl6:_ZN9tesseract4pushEPNS_8list_recEPv
gpcl6:_ZN9tesseract5BLOCK11check_pitchEv
gpcl6:_ZN9tesseract5BLOCK19compute_row_marginsEv
gpcl6:_ZN9tesseract5BLOCK25reflect_polygon_in_y_axisEv
gpcl6:_ZN9tesseract5BLOCK5printEP8_IO_FILEb
gpcl6:_ZN9tesseract5BLOCK6rotateERKNS_6FCOORDE
gpcl6:_ZN9tesseract5BLOCK8compressENS_6ICOORDE
gpcl6:_ZN9tesseract5BLOCK8compressEv
gpcl6:_ZN9tesseract5BLOCK9sort_rowsEv
gpcl6:_ZN9tesseract5BLOCKC1EPKcbssssss
gpcl6:_ZN9tesseract5BLOCKC2EPKcbssssss
gpcl6:_ZN9tesseract5BLOCKaSERKS0_
gpcl6:_ZN9tesseract5CLIST10add_sortedEPFiPKvS2_EbPv
gpcl6:_ZN9tesseract5CLIST12set_subtractEPFiPKvS2_EbPS0_S5_
gpcl6:_ZN9tesseract5CLIST13shallow_clearEv
gpcl6:_ZN9tesseract5CLIST17assign_to_sublistEPNS_14CLIST_ITERATORES2_
gpcl6:_ZN9tesseract5CLIST19internal_deep_clearEPFvPvE
gpcl6:_ZN9tesseract5CLIST4sortEPFiPKvS2_E
gpcl6:_ZN9tesseract5ELIST14internal_clearEPFvPNS_10ELIST_LINKEE
gpcl6:_ZN9tesseract5ELIST17assign_to_sublistEPNS_14ELIST_ITERATORES2_
gpcl6:_ZN9tesseract5ELIST19add_sorted_and_findEPFiPKvS2_EbPNS_10ELIST_LINKE
gpcl6:_ZN9tesseract5ELIST4sortEPFiPKvS2_E
gpcl6:_ZN9tesseract5FPRow12Pass1AnalyzeEv
gpcl6:_ZN9tesseract5FPRow12Pass2AnalyzeEv
gpcl6:_ZN9tesseract5FPRow13EstimatePitchEb
gpcl6:_ZN9tesseract5FPRow14MergeFragmentsEv
gpcl6:_ZN9tesseract5FPRow17DebugOutputResultEi
gpcl6:_ZN9tesseract5FPRow17OutputEstimationsEv
gpcl6:_ZN9tesseract5FPRow18FinalizeLargeCharsEv
gpcl6:_ZN9tesseract5FPRow4InitEPNS_6TO_ROWE
gpcl6:_ZN9tesseract5Input11DeSerializeEPNS_5TFileE
gpcl6:_ZN9tesseract5Input15PreparePixInputERKNS_11StaticShapeEPK3PixPNS_5TRandEPNS_9NetworkIOE
gpcl6:_ZN9tesseract5Input17CacheXScaleFactorEi
gpcl6:_ZN9tesseract5Input17PrepareLSTMInputsERKNS_9ImageDataEPKNS_7NetworkEiPNS_5TRandEPf
gpcl6:_ZN9tesseract5Input7ForwardEbRKNS_9NetworkIOEPKNS_15TransposedArrayEPNS_14NetworkScratchEPS1_
gpcl6:_ZN9tesseract5Input8BackwardEbRKNS_9NetworkIOEPNS_14NetworkScratchEPS1_
gpcl6:_ZN9tesseract5InputC1ERKNSt7__cxx1112basic_stringIcSt11char_traitsIcESaIcEEERKNS_11StaticShapeE
gpcl6:_ZN9tesseract5InputC1ERKNSt7__cxx1112basic_stringIcSt11char_traitsIcESaIcEEEii
gpcl6:_ZN9tesseract5InputC2ERKNSt7__cxx1112basic_stringIcSt11char_traitsIcESaIcEEERKNS_11StaticShapeE
gpcl6:_ZN9tesseract5InputC2ERKNSt7__cxx1112basic_stringIcSt11char_traitsIcESaIcEEEii
gpcl6:_ZN9tesseract5PDBLK11render_maskERKNS_6FCOORDEPNS_4TBOXE
gpcl6:_ZN9tesseract5PDBLK4moveENS_6ICOORDE
gpcl6:_ZN9tesseract5PDBLK8containsENS_6ICOORDE
gpcl6:_ZN9tesseract5PDBLK9set_sidesEPNS_14ICOORDELT_LISTES2_
gpcl6:_ZN9tesseract5PDBLKC1Essss
gpcl6:_ZN9tesseract5PDBLKC2Essss
gpcl6:_ZN9tesseract5PDBLKaSERKS0_
gpcl6:_ZN9tesseract5STATS3addEii
gpcl6:_ZN9tesseract5STATS5clearEv
gpcl6:_ZN9tesseract5STATS6smoothEi
gpcl6:_ZN9tesseract5STATS7clusterEfffiPS0_
gpcl6:_ZN9tesseract5STATS9set_rangeEii
gpcl6:_ZN9tesseract5STATSC1Eii
gpcl6:_ZN9tesseract5STATSC2Eii
gpcl6:_ZN9tesseract5STATSD1Ev
gpcl6:_ZN9tesseract5STATSD2Ev
gpcl6:_ZN9tesseract5Shape10AddToShapeEii
gpcl6:_ZN9tesseract5Shape11DeSerializeEPNS_5TFileE
gpcl6:_ZN9tesseract5Shape12SortUnicharsEv
gpcl6:_ZN9tesseract5Shape15IsEqualUnicharsEPS0_
gpcl6:_ZN9tesseract5Shape8AddShapeERKS0_
gpcl6:_ZN9tesseract5TBLOB11ShallowCopyERKS0_
gpcl6:_ZN9tesseract5TBLOB13PolygonalCopyEbPNS_6C_BLOBE
gpcl6:_ZN9tesseract5TBLOB16CorrectBlobOrderEPS0_
gpcl6:_ZN9tesseract5TBLOB20ComputeBoundingBoxesEv
gpcl6:_ZN9tesseract5TBLOB26EliminateDuplicateOutlinesEv
gpcl6:_ZN9tesseract5TBLOB4MoveENS_6ICOORDE
gpcl6:_ZN9tesseract5TBLOB5ClearEv
gpcl6:_ZN9tesseract5TBLOB5ScaleEf
gpcl6:_ZN9tesseract5TBLOB6RotateENS_6FCOORDE
gpcl6:_ZN9tesseract5TBLOB8CopyFromERKS0_
gpcl6:_ZN9tesseract5TBLOB9NormalizeEPKNS_5BLOCKEPKNS_6FCOORDEPKNS_6DENORMEffffffbP3Pix
gpcl6:_ZN9tesseract5TFile10CloseWriteEPKcPFbRKSt6vectorIcSaIcEES2_E
gpcl6:_ZN9tesseract5TFile11DeSerializeERNSt7__cxx1112basic_stringIcSt11char_traitsIcESaIcEEE
gpcl6:_ZN9tesseract5TFile11DeSerializeERSt6vectorIcSaIcEE
gpcl6:_ZN9tesseract5TFile11FReadEndianEPvmi
gpcl6:_ZN9tesseract5TFile4OpenEP8_IO_FILEl
gpcl6:_ZN9tesseract5TFile4OpenEPKcPFbS2_PSt6vectorIcSaIcEEE
gpcl6:_ZN9tesseract5TFile4OpenEPKci
gpcl6:_ZN9tesseract5TFile4SkipEm
gpcl6:_ZN9tesseract5TFile5FGetsEPci
gpcl6:_ZN9tesseract5TFile5FReadEPvmi
gpcl6:_ZN9tesseract5TFile6FWriteEPKvmi
gpcl6:_ZN9tesseract5TFile6RewindEv
gpcl6:_ZN9tesseract5TFile9OpenWriteEPSt6vectorIcSaIcEE
gpcl6:_ZN9tesseract5TFile9SerializeERKNSt7__cxx1112basic_stringIcSt11char_traitsIcESaIcEEE
gpcl6:_ZN9tesseract5TFile9SerializeERKSt6vectorIcSaIcEE
gpcl6:_ZN9tesseract5TFileC1Ev
gpcl6:_ZN9tesseract5TFileC2Ev
gpcl6:_ZN9tesseract5TFileD1Ev
gpcl6:_ZN9tesseract5TFileD2Ev
gpcl6:_ZN9tesseract5TWERD10MergeBlobsEii
gpcl6:_ZN9tesseract5TWERD11BLNormalizeEPKNS_5BLOCKEPKNS_3ROWEP3PixbffbNS_13OcrEngineModeEPKNS_4TBOXEPNS_6DENORME
gpcl6:_ZN9tesseract5TWERD13PolygonalCopyEbPNS_4WERDE
gpcl6:_ZN9tesseract5TWERD20ComputeBoundingBoxesEv
gpcl6:_ZN9tesseract5TWERD5ClearEv
gpcl6:_ZN9tesseract5TWERD8CopyFromERKS0_
gpcl6:_ZN9tesseract5countEPNS_8list_recE
gpcl6:_ZN9tesseract5poly2EPNS_6EDGEPTEi
gpcl6:_ZN9tesseract6CCUtil10main_setupEPKcS2_
gpcl6:_ZN9tesseract6CCUtilC1Ev
gpcl6:_ZN9tesseract6CCUtilC2Ev
gpcl6:_ZN9tesseract6CCUtilD0Ev
gpcl6:_ZN9tesseract6CCUtilD1Ev
gpcl6:_ZN9tesseract6CCUtilD2Ev
gpcl6:_ZN9tesseract6C_BLOB10outer_areaEv
gpcl6:_ZN9tesseract6C_BLOB14render_outlineEv
gpcl6:_ZN9tesseract6C_BLOB17count_transitionsEi
gpcl6:_ZN9tesseract6C_BLOB18ComputeEdgeOffsetsEiP3Pix
gpcl6:_ZN9tesseract6C_BLOB24EstimateBaselinePositionEv
gpcl6:_ZN9tesseract6C_BLOB26ConstructBlobsFromOutlinesEbPNS_14C_OUTLINE_LISTEPNS_9C_BLOB_ITES4_
gpcl6:_ZN9tesseract6C_BLOB28CheckInverseFlagAndDirectionEv
gpcl6:_ZN9tesseract6C_BLOB4areaEv
gpcl6:_ZN9tesseract6C_BLOB4moveENS_6ICOORDE
gpcl6:_ZN9tesseract6C_BLOB6renderEv
gpcl6:_ZN9tesseract6C_BLOB6rotateERKNS_6FCOORDE
gpcl6:_ZN9tesseract6C_BLOB8FakeBlobERKNS_4TBOXE
gpcl6:_ZN9tesseract6C_BLOB9perimeterEv
gpcl6:_ZN9tesseract6C_BLOBC1EPNS_14C_OUTLINE_LISTE
gpcl6:_ZN9tesseract6C_BLOBC1EPNS_9C_OUTLINEE
gpcl6:_ZN9tesseract6C_BLOBC2EPNS_14C_OUTLINE_LISTE
gpcl6:_ZN9tesseract6C_BLOBC2EPNS_9C_OUTLINEE
gpcl6:_ZN9tesseract6DENORM14SetupNonLinearEPKS0_RKNS_4TBOXEffffRKNS_13GenericVectorINS6_IiEEEESA_
gpcl6:_ZN9tesseract6DENORM18SetupNormalizationEPKNS_5BLOCKEPKNS_6FCOORDEPKS0_ffffff
gpcl6:_ZN9tesseract6DENORM4InitEv
gpcl6:_ZN9tesseract6DENORM5ClearEv
gpcl6:_ZN9tesseract6DENORMC1ERKS0_
gpcl6:_ZN9tesseract6DENORMC1Ev
gpcl6:_ZN9tesseract6DENORMC2ERKS0_
gpcl6:_ZN9tesseract6DENORMC2Ev
gpcl6:_ZN9tesseract6DENORMD1Ev
gpcl6:_ZN9tesseract6DENORMD2Ev
gpcl6:_ZN9tesseract6DENORMaSERKS0_
gpcl6:_ZN9tesseract6DIR128C1ENS_6FCOORDE
gpcl6:_ZN9tesseract6DIR128C2ENS_6FCOORDE
gpcl6:_ZN9tesseract6DoFillEPNS_9FILL_SPECEPNS_19CLASS_PRUNER_STRUCTEjjj
gpcl6:_ZN9tesseract6ELIST210add_sortedEPFiPKvS2_EPNS_11ELIST2_LINKE
gpcl6:_ZN9tesseract6ELIST214internal_clearEPFvPNS_11ELIST2_LINKEE
gpcl6:_ZN9tesseract6ELIST217assign_to_sublistEPNS_15ELIST2_ITERATORES2_
gpcl6:_ZN9tesseract6ELIST24sortEPFiPKvS2_E
gpcl6:_ZN9tesseract6FCOORD14from_directionEh
gpcl6:_ZN9tesseract6FCOORD20angle_from_directionEh
gpcl6:_ZN9tesseract6FCOORD20binary_angle_plus_piEd
gpcl6:_ZN9tesseract6FCOORD9normaliseEv
gpcl6:_ZN9tesseract6GAPMAP9table_gapEss
gpcl6:_ZN9tesseract6GAPMAPC1EPNS_8TO_BLOCKE
gpcl6:_ZN9tesseract6GAPMAPC2EPNS_8TO_BLOCKE
gpcl6:_ZN9tesseract6ICOORD11DeSerializeEbP8_IO_FILE
gpcl6:_ZN9tesseract6ICOORD15set_with_shrinkEii
gpcl6:_ZN9tesseract6KDWalkEPNS_6KDTREEEPFvzEPv
gpcl6:_ZN9tesseract6MATRIX16IncreaseBandSizeEi
gpcl6:_ZN9tesseract6MATRIX20ConsumeAndMakeBiggerEi
gpcl6:_ZN9tesseract6MATRIXD0Ev
gpcl6:_ZN9tesseract6MATRIXD1Ev
gpcl6:_ZN9tesseract6MATRIXD2Ev
gpcl6:_ZN9tesseract6REJMAP10full_printEP8_IO_FILE
gpcl6:_ZN9tesseract6REJMAP10initialiseEs
gpcl6:_ZN9tesseract6REJMAP10remove_posEs
gpcl6:_ZN9tesseract6REJMAP12accept_countEv
gpcl6:_ZN9tesseract6REJMAP16rej_word_doc_rejEv
gpcl6:_ZN9tesseract6REJMAP16rej_word_row_rejEv
gpcl6:_ZN9tesseract6REJMAP18rej_word_block_rejEv
gpcl6:_ZN9tesseract6REJMAP18rej_word_small_xhtEv
gpcl6:_ZN9tesseract6REJMAP18rej_word_xht_fixupEv
gpcl6:_ZN9tesseract6REJMAP19recoverable_rejectsEv
gpcl6:_ZN9tesseract6REJMAP19rej_word_mostly_rejEv
gpcl6:_ZN9tesseract6REJMAP20rej_word_bad_qualityEv
gpcl6:_ZN9tesseract6REJMAP21rej_word_bad_permuterEv
gpcl6:_ZN9tesseract6REJMAP21rej_word_no_alphanumsEv
gpcl6:_ZN9tesseract6REJMAP21rej_word_tess_failureEv
gpcl6:_ZN9tesseract6REJMAP24rej_word_contains_blanksEv
gpcl6:_ZN9tesseract6REJMAP26rej_word_not_tess_acceptedEv
gpcl6:_ZN9tesseract6REJMAP27quality_recoverable_rejectsEv
gpcl6:_ZN9tesseract6REJMAP5printEP8_IO_FILE
gpcl6:_ZN9tesseract6REJMAPaSERKS0_
gpcl6:_ZN9tesseract6STRING11DeSerializeEPNS_5TFileE
gpcl6:_ZN9tesseract6STRING11DeSerializeEbP8_IO_FILE
gpcl6:_ZN9tesseract6STRING11add_str_intEPKci
gpcl6:_ZN9tesseract6STRING11truncate_atEi
gpcl6:_ZN9tesseract6STRING14add_str_doubleEPKcd
gpcl6:_ZN9tesseract6STRING15SkipDeSerializeEPNS_5TFileE
gpcl6:_ZN9tesseract6STRING5splitEcPSt6vectorIS0_SaIS0_EE
gpcl6:_ZN9tesseract6Series11InitWeightsEfPNS_5TRandE
gpcl6:_ZN9tesseract6Series12AppendSeriesEPNS_7NetworkE
gpcl6:_ZN9tesseract6Series12RemapOutputsEiRKSt6vectorIiSaIiEE
gpcl6:_ZN9tesseract6Series17CacheXScaleFactorEi
gpcl6:_ZN9tesseract6Series18SetupNeedsBackpropEb
gpcl6:_ZN9tesseract6Series7ForwardEbRKNS_9NetworkIOEPKNS_15TransposedArrayEPNS_14NetworkScratchEPS1_
gpcl6:_ZN9tesseract6Series7SplitAtEiPPS0_S2_
gpcl6:_ZN9tesseract6Series8BackwardEbRKNS_9NetworkIOEPNS_14NetworkScratchEPS1_
gpcl6:_ZN9tesseract6SeriesC1EPKc
gpcl6:_ZN9tesseract6SeriesC2EPKc
gpcl6:_ZN9tesseract6TO_ROW11insert_blobEPNS_8BLOBNBOXE
gpcl6:_ZN9tesseract6TO_ROW27compute_vertical_projectionEv
gpcl6:_ZN9tesseract6TO_ROW5clearEv
gpcl6:_ZN9tesseract6TO_ROW8add_blobEPNS_8BLOBNBOXEfff
gpcl6:_ZN9tesseract6TO_ROWC1EPNS_8BLOBNBOXEfff
gpcl6:_ZN9tesseract6TO_ROWC2EPNS_8BLOBNBOXEfff
gpcl6:_ZN9tesseract6TPOINT9IsCrossedERKS0_S2_S2_S2_
gpcl6:_ZN9tesseract6searchEPNS_8list_recEPvPFiS2_S2_E
gpcl6:_ZN9tesseract6to_winE
gpcl6:_ZN9tesseract7BoxWord10MergeBoxesEii
gpcl6:_ZN9tesseract7BoxWord14DeleteAllBoxesEv
gpcl6:_ZN9tesseract7BoxWord18ClipToOriginalWordEPKNS_5BLOCKEPNS_4WERDE
gpcl6:_ZN9tesseract7BoxWord18ComputeBoundingBoxEv
gpcl6:_ZN9tesseract7BoxWord18CopyFromNormalizedEPNS_5TWERDE
gpcl6:_ZN9tesseract7BoxWord8CopyFromERKS0_
gpcl6:_ZN9tesseract7BoxWord9ChangeBoxEiRKNS_4TBOXE
gpcl6:_ZN9tesseract7BoxWord9DeleteBoxEi
gpcl6:_ZN9tesseract7BoxWord9InsertBoxEiRKNS_4TBOXE
gpcl6:_ZN9tesseract7BoxWordC1ERKS0_
gpcl6:_ZN9tesseract7BoxWordC1Ev
gpcl6:_ZN9tesseract7BoxWordC2ERKS0_
gpcl6:_ZN9tesseract7BoxWordC2Ev
gpcl6:_ZN9tesseract7BoxWordaSERKS0_
gpcl6:_ZN9tesseract7DPPoint14UpdateIfBetterEliPKS0_iil
gpcl6:_ZN9tesseract7DPPoint16CostWithVarianceEPKS0_
gpcl6:_ZN9tesseract7DPPoint5SolveEiibMS0_FlPKS0_EiPS0_
gpcl6:_ZN9tesseract7FPCUTPT12assign_cheapEPS0_ssbbsPNS_5STATSEfsss
gpcl6:_ZN9tesseract7FPCUTPT5setupEPS0_sPNS_5STATSEssss
gpcl6:_ZN9tesseract7FPCUTPT6assignEPS0_ssbbsPNS_5STATSEfsss
gpcl6:_ZN9tesseract7FPSEGPTC1EPNS_7FPCUTPTE
gpcl6:_ZN9tesseract7FPSEGPTC1Es
gpcl6:_ZN9tesseract7FPSEGPTC1EsbssssPNS_12FPSEGPT_LISTE
gpcl6:_ZN9tesseract7FPSEGPTC2EPNS_7FPCUTPTE
gpcl6:_ZN9tesseract7FPSEGPTC2Es
gpcl6:_ZN9tesseract7FPSEGPTC2EsbssssPNS_12FPSEGPT_LISTE
gpcl6:_ZN9tesseract7FillABCEPNS_12PROTO_STRUCTE
gpcl6:_ZN9tesseract7IntGrid4InitEiRKNS_6ICOORDES3_
gpcl6:_ZN9tesseract7IntGrid5ClearEv
gpcl6:_ZN9tesseract7IntGrid6RotateERKNS_6FCOORDE
gpcl6:_ZN9tesseract7IntGridC1EiRKNS_6ICOORDES3_
gpcl6:_ZN9tesseract7IntGridC1Ev
gpcl6:_ZN9tesseract7IntGridC2EiRKNS_6ICOORDES3_
gpcl6:_ZN9tesseract7IntGridC2Ev
gpcl6:_ZN9tesseract7IntGridD0Ev
gpcl6:_ZN9tesseract7IntGridD1Ev
gpcl6:_ZN9tesseract7IntGridD2Ev
gpcl6:_ZN9tesseract7KDStoreEPNS_6KDTREEEPfPv
gpcl6:_ZN9tesseract7Maxpool11DeSerializeEPNS_5TFileE
gpcl6:_ZN9tesseract7Maxpool7ForwardEbRKNS_9NetworkIOEPKNS_15TransposedArrayEPNS_14NetworkScratchEPS1_
gpcl6:_ZN9tesseract7Maxpool8BackwardEbRKNS_9NetworkIOEPNS_14NetworkScratchEPS1_
gpcl6:_ZN9tesseract7MaxpoolC1EPKciii
gpcl6:_ZN9tesseract7MaxpoolC2EPKciii
gpcl6:_ZN9tesseract7Network11InitWeightsEfPNS_5TRandE
gpcl6:_ZN9tesseract7Network13SetRandomizerEPNS_5TRandE
gpcl6:_ZN9tesseract7Network14CreateFromFileEPNS_5TFileE
gpcl6:_ZN9tesseract7Network15SetNetworkFlagsEj
gpcl6:_ZN9tesseract7Network17SetEnableTrainingENS_13TrainingStateE
gpcl6:_ZN9tesseract7Network18SetupNeedsBackpropEb
gpcl6:_ZN9tesseract7Network6RandomEd
gpcl6:_ZN9tesseract7NetworkC1ENS_11NetworkTypeERKNSt7__cxx1112basic_stringIcSt11char_traitsIcESaIcEEEii
gpcl6:_ZN9tesseract7NetworkC1Ev
gpcl6:_ZN9tesseract7NetworkC2ENS_11NetworkTypeERKNSt7__cxx1112basic_stringIcSt11char_traitsIcESaIcEEEii
gpcl6:_ZN9tesseract7NetworkC2Ev
gpcl6:_ZN9tesseract7QSPLINE11extrapolateEdii
gpcl6:_ZN9tesseract7QSPLINE4moveENS_6ICOORDE
gpcl6:_ZN9tesseract7QSPLINE4stepEdd
gpcl6:_ZN9tesseract7QSPLINE7overlapEPS0_d
gpcl6:_ZN9tesseract7QSPLINEC1EPiiS1_S1_ii
gpcl6:_ZN9tesseract7QSPLINEC1ERKS0_
gpcl6:_ZN9tesseract7QSPLINEC1EiPiPd
gpcl6:_ZN9tesseract7QSPLINEC2EPiiS1_S1_ii
gpcl6:_ZN9tesseract7QSPLINEC2ERKS0_
gpcl6:_ZN9tesseract7QSPLINEC2EiPiPd
gpcl6:_ZN9tesseract7QSPLINED1Ev
gpcl6:_ZN9tesseract7QSPLINED2Ev
gpcl6:_ZN9tesseract7QSPLINEaSERKS0_
gpcl6:_ZN9tesseract7ROW_RESC1EbPNS_3ROWE
gpcl6:_ZN9tesseract7ROW_RESC2EbPNS_3ROWE
gpcl6:_ZN9tesseract7SVEvent4copyEv
gpcl6:_ZN9tesseract7TabFind10InsertBlobEbbPNS_8BLOBNBOXEPNS_6BBGridIS1_NS_14BLOBNBOX_CLISTENS_13BLOBNBOX_C_ITEEE
gpcl6:_ZN9tesseract7TabFind11CleanupTabsEv
gpcl6:_ZN9tesseract7TabFind11CommonWidthEi
gpcl6:_ZN9tesseract7TabFind11GutterWidthEiiRKNS_9TabVectorEbiPi
gpcl6:_ZN9tesseract7TabFind11SortVectorsEv
gpcl6:_ZN9tesseract7TabFind12AdjacentBlobEPKNS_8BLOBNBOXEbbdiii
gpcl6:_ZN9tesseract7TabFind12EvaluateTabsEv
gpcl6:_ZN9tesseract7TabFind12FindTabBoxesEid
gpcl6:_ZN9tesseract7TabFind13FindTabVectorEiiNS_12TabAlignmentEPNS_8BLOBNBOXEPiS4_
gpcl6:_ZN9tesseract7TabFind13LeftTabForBoxERKNS_4TBOXEbb
gpcl6:_ZN9tesseract7TabFind14DifferentSizesEii
gpcl6:_ZN9tesseract7TabFind14FindTabVectorsEPNS_14TabVector_LISTEPNS_13BLOBNBOX_LISTEPNS_8TO_BLOCKEidPNS_16ColPartitionGridEPNS_6FCOORDESA_
gpcl6:_ZN9tesseract7TabFind14FindTabVectorsEiNS_12TabAlignmentEiPNS_14TabVector_LISTEPiS4_
gpcl6:_ZN9tesseract7TabFind14LeftEdgeForBoxERKNS_4TBOXEbb
gpcl6:_ZN9tesseract7TabFind14ReflectInYAxisEv
gpcl6:_ZN9tesseract7TabFind14RightTabForBoxERKNS_4TBOXEbb
gpcl6:_ZN9tesseract7TabFind14RotateBlobListERKNS_6FCOORDEPNS_13BLOBNBOX_LISTE
gpcl6:_ZN9tesseract7TabFind14SetupTabSearchEiiPiS1_
gpcl6:_ZN9tesseract7TabFind14TestBoxForTabsEPNS_8BLOBNBOXEid
gpcl6:_ZN9tesseract7TabFind15RightEdgeForBoxERKNS_4TBOXEbb
gpcl6:_ZN9tesseract7TabFind16AddPartnerVectorEPNS_8BLOBNBOXES2_PNS_9TabVectorES4_
gpcl6:_ZN9tesseract7TabFind16MakeColumnWidthsEiPNS_5STATSE
gpcl6:_ZN9tesseract7TabFind16MarkVerticalTextEv
gpcl6:_ZN9tesseract7TabFind16SetBlobRuleEdgesEPNS_13BLOBNBOX_LISTE
gpcl6:_ZN9tesseract7TabFind17ConfirmRaggedLeftEPNS_8BLOBNBOXEi
gpcl6:_ZN9tesseract7TabFind17FindAllTabVectorsEi
gpcl6:_ZN9tesseract7TabFind17InsertBlobsToGridEbbPNS_13BLOBNBOX_LISTEPNS_6BBGridINS_8BLOBNBOXENS_14BLOBNBOX_CLISTENS_13BLOBNBOX_C_ITEEE
gpcl6:_ZN9tesseract7TabFind17SetBlockRuleEdgesEPNS_8TO_BLOCKE
gpcl6:_ZN9tesseract7TabFind18ConfirmRaggedRightEPNS_8BLOBNBOXEi
gpcl6:_ZN9tesseract7TabFind18DontFindTabVectorsEPNS_13BLOBNBOX_LISTEPNS_8TO_BLOCKEPNS_6FCOORDES6_
gpcl6:_ZN9tesseract7TabFind18VeryDifferentSizesEii
gpcl6:_ZN9tesseract7TabFind19ApplyTabConstraintsEv
gpcl6:_ZN9tesseract7TabFind19ComputeColumnWidthsEPNS_10ScrollViewEPNS_16ColPartitionGridE
gpcl6:_ZN9tesseract7TabFind20ComputeDeskewVectorsEPNS_6FCOORDES2_
gpcl6:_ZN9tesseract7TabFind20ResetForVerticalTextERKNS_6FCOORDES3_PNS_14TabVector_LISTEPi
gpcl6:_ZN9tesseract7TabFind21FindInitialTabVectorsEPNS_13BLOBNBOX_LISTEidPNS_8TO_BLOCKE
gpcl6:_ZN9tesseract7TabFind21FindMedianGutterWidthEPNS_14TabVector_LISTE
gpcl6:_ZN9tesseract7TabFind21NothingYOverlapsInBoxERKNS_4TBOXES3_
gpcl6:_ZN9tesseract7TabFind26GutterWidthAndNeighbourGapEiiibPNS_8BLOBNBOXEPiS3_
gpcl6:_ZN9tesseract7TabFind29ApplyPartitionsToColumnWidthsEPNS_16ColPartitionGridEPNS_5STATSE
gpcl6:_ZN9tesseract7TabFind29SetVerticalSkewAndParallelizeEii
gpcl6:_ZN9tesseract7TabFind5ResetEv
gpcl6:_ZN9tesseract7TabFind6DeskewEPNS_14TabVector_LISTEPNS_13BLOBNBOX_LISTEPNS_8TO_BLOCKEPNS_6FCOORDES8_
gpcl6:_ZN9tesseract7TabFind9TidyBlobsEPNS_8TO_BLOCKE
gpcl6:_ZN9tesseract7TabFindC1EiRKNS_6ICOORDES3_PNS_14TabVector_LISTEiii
gpcl6:_ZN9tesseract7TabFindC2EiRKNS_6ICOORDES3_PNS_14TabVector_LISTEiii
gpcl6:_ZN9tesseract7TabFindD0Ev
gpcl6:_ZN9tesseract7TabFindD1Ev
gpcl6:_ZN9tesseract7TabFindD2Ev
gpcl6:_ZN9tesseract7Textord10to_spacingENS_6ICOORDEPNS_13TO_BLOCK_LISTE
gpcl6:_ZN9tesseract7Textord11TextordPageENS_11PageSegModeERKNS_6FCOORDEiiP3PixS6_S6_bPNS_13BLOBNBOX_LISTEPNS_10BLOCK_LISTEPNS_13TO_BLOCK_LISTE
gpcl6:_ZN9tesseract7Textord11narrow_blobEPNS_6TO_ROWENS_4TBOXE
gpcl6:_ZN9tesseract7Textord12filter_blobsENS_6ICOORDEPNS_13TO_BLOCK_LISTEb
gpcl6:_ZN9tesseract7Textord13old_to_methodEPNS_6TO_ROWEPNS_5STATSES4_S4_ss
gpcl6:_ZN9tesseract7Textord14cleanup_blocksEbPNS_10BLOCK_LISTE
gpcl6:_ZN9tesseract7Textord14find_textlinesEPNS_8TO_BLOCKEPNS_6TO_ROWEiPNS_7QSPLINEE
gpcl6:_ZN9tesseract7Textord14ignore_big_gapEPNS_6TO_ROWEiPNS_6GAPMAPEss
gpcl6:_ZN9tesseract7Textord15correlate_linesEPNS_8TO_BLOCKEf
gpcl6:_ZN9tesseract7Textord15find_componentsEP3PixPNS_10BLOCK_LISTEPNS_13TO_BLOCK_LISTE
gpcl6:_ZN9tesseract7Textord15make_blob_wordsEPNS_6TO_ROWENS_6FCOORDE
gpcl6:_ZN9tesseract7Textord15make_prop_wordsEPNS_6TO_ROWENS_6FCOORDE
gpcl6:_ZN9tesseract7Textord16make_spline_rowsEPNS_8TO_BLOCKEfb
gpcl6:_ZN9tesseract7Textord16peek_at_next_gapEPNS_6TO_ROWENS_11BLOBNBOX_ITERNS_4TBOXERsS6_
gpcl6:_ZN9tesseract7Textord16reduced_box_nextEPNS_6TO_ROWEPNS_11BLOBNBOX_ITE
gpcl6:_ZN9tesseract7Textord17make_a_word_breakEPNS_6TO_ROWENS_4TBOXEsS3_ssS3_sRhRbS5_S5_S5_
gpcl6:_ZN9tesseract7Textord17row_spacing_statsEPNS_6TO_ROWEPNS_6GAPMAPEssss
gpcl6:_ZN9tesseract7Textord17stats_count_underEPNS_5STATSEs
gpcl6:_ZN9tesseract7Textord18filter_noise_blobsEPNS_13BLOBNBOX_LISTES2_S2_S2_
gpcl6:_ZN9tesseract7Textord18isolated_row_statsEPNS_6TO_ROWEPNS_6GAPMAPEPNS_5STATSEbss
gpcl6:_ZN9tesseract7Textord18make_old_baselinesEPNS_8TO_BLOCKEbf
gpcl6:_ZN9tesseract7Textord19block_spacing_statsEPNS_8TO_BLOCKEPNS_6GAPMAPERbRsS6_
gpcl6:_ZN9tesseract7Textord19compute_row_xheightEPNS_6TO_ROWERKNS_6FCOORDEfi
gpcl6:_ZN9tesseract7Textord20clean_noise_from_rowEPNS_3ROWE
gpcl6:_ZN9tesseract7Textord20correlate_neighboursEPNS_8TO_BLOCKEPPNS_6TO_ROWEi
gpcl6:_ZN9tesseract7Textord20correlate_with_statsEPPNS_6TO_ROWEiPNS_8TO_BLOCKE
gpcl6:_ZN9tesseract7Textord20reduced_box_for_blobEPNS_8BLOBNBOXEPNS_6TO_ROWEPs
gpcl6:_ZN9tesseract7Textord20suspected_punct_blobEPNS_6TO_ROWENS_4TBOXE
gpcl6:_ZN9tesseract7Textord21cleanup_nontext_blockEPNS_5BLOCKE
gpcl6:_ZN9tesseract7Textord21compute_block_xheightEPNS_8TO_BLOCKEf
gpcl6:_ZN9tesseract7Textord21improve_row_thresholdEPNS_6TO_ROWEPNS_5STATSE
gpcl6:_ZN9tesseract7Textord22CleanupSingleRowResultENS_11PageSegModeEPNS_8PAGE_RESE
gpcl6:_ZN9tesseract7Textord22clean_noise_from_wordsEPNS_3ROWE
gpcl6:_ZN9tesseract7Textord22find_mean_blob_spacingEPNS_4WERDE
gpcl6:_ZN9tesseract7Textord25TransferDiacriticsToWordsEPNS_13BLOBNBOX_LISTERKNS_6FCOORDEPNS_6BBGridINS_11WordWithBoxENS_17WordWithBox_CLISTENS_16WordWithBox_C_ITEEE
gpcl6:_ZN9tesseract7Textord28clean_small_noise_from_wordsEPNS_3ROWE
gpcl6:_ZN9tesseract7Textord31TransferDiacriticsToBlockGroupsEPNS_13BLOBNBOX_LISTEPNS_10BLOCK_LISTE
gpcl6:_ZN9tesseract7Textord9wide_blobEPNS_6TO_ROWENS_4TBOXE
gpcl6:_ZN9tesseract7TextordC1EPNS_8CCStructE
gpcl6:_ZN9tesseract7TextordC2EPNS_8CCStructE
gpcl6:_ZN9tesseract7UNICHAR11UTF32ToUTF8B5cxx11ERKSt6vectorIiSaIiEE
gpcl6:_ZN9tesseract7UNICHAR11UTF8ToUTF32EPKc
gpcl6:_ZN9tesseract7UNICHAR14const_iteratorppEv
gpcl6:_ZN9tesseract7UNICHAR3endEPKci
gpcl6:_ZN9tesseract7UNICHAR5beginEPKci
gpcl6:_ZN9tesseract7UNICHAR9utf8_stepEPKc
gpcl6:_ZN9tesseract7UNICHARC1EPKci
gpcl6:_ZN9tesseract7UNICHARC1Ei
gpcl6:_ZN9tesseract7UNICHARC2EPKci
gpcl6:_ZN9tesseract7UNICHARC2Ei
gpcl6:_ZN9tesseract7Wordrec10near_pointEPNS_6EDGEPTES2_S2_PS2_
gpcl6:_ZN9tesseract7Wordrec11DoSegSearchEPNS_8WERD_RESE
gpcl6:_ZN9tesseract7Wordrec12angle_changeEPNS_6EDGEPTES2_S2_
gpcl6:_ZN9tesseract7Wordrec12call_matcherEPNS_5TBLOBE
gpcl6:_ZN9tesseract7Wordrec12combine_seamERKNS_11GenericHeapINS_12KDPtrPairDecIfNS_4SEAMEEEEEPKS3_PNS1_INS_12KDPtrPairIncIfS3_EEEE
gpcl6:_ZN9tesseract7Wordrec13chop_one_blobERKSt6vectorINS_4TBOXESaIS2_EERKNS_13GenericVectorIPNS_11BLOB_CHOICEEEEPNS_8WERD_RESEPi
gpcl6:_ZN9tesseract7Wordrec13classify_blobEPNS_5TBLOBEPKcNS_10ScrollView5ColorEPNS_12BlamerBundleE
gpcl6:_ZN9tesseract7Wordrec13new_max_pointEPNS_6EDGEPTEPNS_11GenericHeapINS_9KDPairIncIfS2_EEEE
gpcl6:_ZN9tesseract7Wordrec13new_min_pointEPNS_6EDGEPTEPNS_11GenericHeapINS_9KDPairIncIfS2_EEEE
gpcl6:_ZN9tesseract7Wordrec14chop_word_mainEPNS_8WERD_RESE
gpcl6:_ZN9tesseract7Wordrec14classify_pieceERKNS_13GenericVectorIPNS_4SEAMEEEssPKcPNS_5TWERDEPNS_12BlamerBundleE
gpcl6:_ZN9tesseract7Wordrec14pick_good_seamEPNS_5TBLOBE
gpcl6:_ZN9tesseract7Wordrec14point_priorityEPNS_6EDGEPTE
gpcl6:_ZN9tesseract7Wordrec14program_editupEPKcPNS_15TessdataManagerES4_
gpcl6:_ZN9tesseract7Wordrec15grade_sharpnessEPNS_5SPLITE
gpcl6:_ZN9tesseract7Wordrec15is_inside_angleEPNS_6EDGEPTE
gpcl6:_ZN9tesseract7Wordrec15merge_fragmentsEPNS_6MATRIXEs
gpcl6:_ZN9tesseract7Wordrec15try_point_pairsEPPNS_6EDGEPTEsPNS_11GenericHeapINS_12KDPtrPairIncIfNS_4SEAMEEEEEPNS4_INS_12KDPtrPairDecIfS6_EEEEPPS6_PNS_5TBLOBE
gpcl6:_ZN9tesseract7Wordrec16InitialSegSearchEPNS_8WERD_RESEPNS_12LMPainPointsEPNS_13GenericVectorINS_16SegSearchPendingEEEPNS_16BestChoiceBundleEPNS_12BlamerBundleE
gpcl6:_ZN9tesseract7Wordrec16ResetNGramSearchEPNS_8WERD_RESEPNS_16BestChoiceBundleEPNS_13GenericVectorINS_16SegSearchPendingEEE
gpcl6:_ZN9tesseract7Wordrec16choose_best_seamEPNS_11GenericHeapINS_12KDPtrPairIncIfNS_4SEAMEEEEEPKNS_5SPLITEfPPS3_PNS_5TBLOBEPNS1_INS_12KDPtrPairDecIfS3_EEEE
gpcl6:_ZN9tesseract7Wordrec16improve_one_blobERKNS_13GenericVectorIPNS_11BLOB_CHOICEEEEPNS1_INS_12DANGERR_INFOEEEbbPNS_8WERD_RESEPi
gpcl6:_ZN9tesseract7Wordrec16pick_close_pointEPNS_6EDGEPTES2_Pi
gpcl6:_ZN9tesseract7Wordrec16program_editdownEi
gpcl6:_ZN9tesseract7Wordrec17add_point_to_listEPNS_11GenericHeapINS_9KDPairIncIfPNS_6EDGEPTEEEEES4_
gpcl6:_ZN9tesseract7Wordrec17add_seam_to_queueEfPNS_4SEAMEPNS_11GenericHeapINS_12KDPtrPairIncIfS1_EEEE
gpcl6:_ZN9tesseract7Wordrec17attempt_blob_chopEPNS_5TWERDEPNS_5TBLOBEibRKNS_13GenericVectorIPNS_4SEAMEEE
gpcl6:_ZN9tesseract7Wordrec17prioritize_pointsEPNS_8TESSLINEEPNS_11GenericHeapINS_9KDPairIncIfPNS_6EDGEPTEEEEE
gpcl6:_ZN9tesseract7Wordrec18chop_numbered_blobEPNS_5TWERDEibRKNS_13GenericVectorIPNS_4SEAMEEE
gpcl6:_ZN9tesseract7Wordrec18get_fragment_listsEsssssPNS_6MATRIXEPNS_16BLOB_CHOICE_LISTE
gpcl6:_ZN9tesseract7Wordrec18grade_split_lengthEPNS_5SPLITE
gpcl6:_ZN9tesseract7Wordrec19improve_by_choppingEfPNS_8WERD_RESEPNS_16BestChoiceBundleEPNS_12BlamerBundleEPNS_12LMPainPointsEPNS_13GenericVectorINS_16SegSearchPendingEEE
gpcl6:_ZN9tesseract7Wordrec19try_vertical_splitsEPPNS_6EDGEPTEsPNS_12EDGEPT_CLISTEPNS_11GenericHeapINS_12KDPtrPairIncIfNS_4SEAMEEEEEPNS6_INS_12KDPtrPairDecIfS8_EEEEPPS8_PNS_5TBLOBE
gpcl6:_ZN9tesseract7Wordrec20UpdateSegSearchNodesEfiPNS_13GenericVectorINS_16SegSearchPendingEEEPNS_8WERD_RESEPNS_12LMPainPointsEPNS_16BestChoiceBundleEPNS_12BlamerBundleE
gpcl6:_ZN9tesseract7Wordrec20select_blob_to_splitERKNS_13GenericVectorIPNS_11BLOB_CHOICEEEEfb
gpcl6:_ZN9tesseract7Wordrec21chop_overlapping_blobERKSt6vectorINS_4TBOXESaIS2_EEbPNS_8WERD_RESEPi
gpcl6:_ZN9tesseract7Wordrec22InitBlamerForSegSearchEPNS_8WERD_RESEPNS_12LMPainPointsEPNS_12BlamerBundleEPNS_6STRINGE
gpcl6:_ZN9tesseract7Wordrec25ProcessSegSearchPainPointEfRKNS_12MATRIX_COORDEPKcPNS_13GenericVectorINS_16SegSearchPendingEEEPNS_8WERD_RESEPNS_12LMPainPointsEPNS_12BlamerBundleE
gpcl6:_ZN9tesseract7Wordrec25vertical_projection_pointEPNS_6EDGEPTES2_PS2_PNS_12EDGEPT_CLISTE
gpcl6:_ZN9tesseract7Wordrec27fill_filtered_fragment_listEPNS_16BLOB_CHOICE_LISTEiiS2_
gpcl6:_ZN9tesseract7Wordrec28merge_and_put_fragment_listsEsssPNS_16BLOB_CHOICE_LISTEPNS_6MATRIXE
gpcl6:_ZN9tesseract7Wordrec31select_blob_to_split_from_fixptEPNS_13GenericVectorINS_12DANGERR_INFOEEE
gpcl6:_ZN9tesseract7Wordrec8cc_recogEPNS_8WERD_RESE
gpcl6:_ZN9tesseract7Wordrec9SegSearchEPNS_8WERD_RESEPNS_16BestChoiceBundleEPNS_12BlamerBundleE
gpcl6:_ZN9tesseract7Wordrec9dict_wordERKNS_11WERD_CHOICEE
gpcl6:_ZN9tesseract7Wordrec9end_recogEv
gpcl6:_ZN9tesseract7Wordrec9set_pass1Ev
gpcl6:_ZN9tesseract7Wordrec9set_pass2Ev
gpcl6:_ZN9tesseract7WordrecC1Ev
gpcl6:_ZN9tesseract7WordrecC2Ev
gpcl6:_ZN9tesseract7cutlineEPNS_6EDGEPTES1_i
gpcl6:_ZN9tesseract7destroyEPNS_8list_recE
gpcl6:_ZN9tesseract7tprintfEPKcz
gpcl6:_ZN9tesseract8BLOBNBOX10rotate_boxENS_6FCOORDE
gpcl6:_ZN9tesseract8BLOBNBOX12really_mergeEPS0_
gpcl6:_ZN9tesseract8BLOBNBOX15CleanNeighboursEPNS_13BLOBNBOX_LISTE
gpcl6:_ZN9tesseract8BLOBNBOX15CleanNeighboursEv
gpcl6:_ZN9tesseract8BLOBNBOX16DeleteNoiseBlobsEPNS_13BLOBNBOX_LISTE
gpcl6:_ZN9tesseract8BLOBNBOX18BoundsWithinLimitsEii
gpcl6:_ZN9tesseract8BLOBNBOX18ComputeEdgeOffsetsEP3PixS2_PNS_13BLOBNBOX_LISTE
gpcl6:_ZN9tesseract8BLOBNBOX21reflect_box_in_y_axisEv
gpcl6:_ZN9tesseract8BLOBNBOX22DefiniteIndividualFlowEv
gpcl6:_ZN9tesseract8BLOBNBOX24EstimateBaselinePositionEv
gpcl6:_ZN9tesseract8BLOBNBOX4chopEPNS_11BLOBNBOX_ITES2_NS_6FCOORDEf
gpcl6:_ZN9tesseract8BLOBNBOX5mergeEPS0_
gpcl6:_ZN9tesseract8BLOBNBOX6rotateENS_6FCOORDE
gpcl6:_ZN9tesseract8BlobGrid14InsertBlobListEPNS_13BLOBNBOX_LISTE
gpcl6:_ZN9tesseract8BlobGridC1EiRKNS_6ICOORDES3_
gpcl6:_ZN9tesseract8BlobGridC2EiRKNS_6ICOORDES3_
gpcl6:_ZN9tesseract8BlobGridD0Ev
gpcl6:_ZN9tesseract8BlobGridD1Ev
gpcl6:_ZN9tesseract8BlobGridD2Ev
gpcl6:_ZN9tesseract8CCStruct16kXHeightCapRatioE
gpcl6:_ZN9tesseract8CCStruct16kXHeightFractionE
gpcl6:_ZN9tesseract8CCStruct17kAscenderFractionE
gpcl6:_ZN9tesseract8CCStruct18kDescenderFractionE
gpcl6:_ZN9tesseract8CCStructD0Ev
gpcl6:_ZN9tesseract8CCStructD1Ev
gpcl6:_ZN9tesseract8CCStructD2Ev
gpcl6:_ZN9tesseract8Classify11AdaptToCharEPNS_5TBLOBEiifPNS_22ADAPT_TEMPLATES_STRUCTE
gpcl6:_ZN9tesseract8Classify11LearnPiecesEPKciifNS_20CharSegmentationTypeES2_PNS_8WERD_RESE
gpcl6:_ZN9tesseract8Classify11SettupPass1Ev
gpcl6:_ZN9tesseract8Classify11SettupPass2Ev
gpcl6:_ZN9tesseract8Classify11WriteTRFileEPKc
gpcl6:_ZN9tesseract8Classify12AddNewResultERKNS_13UnicharRatingEPNS_13ADAPT_RESULTSE
gpcl6:_ZN9tesseract8Classify12ConvertProtoEPNS_12PROTO_STRUCTEiPNS_16INT_CLASS_STRUCTE
gpcl6:_ZN9tesseract8Classify12LargeSpeckleERKNS_5TBLOBE
gpcl6:_ZN9tesseract8Classify12PruneClassesEPKNS_20INT_TEMPLATES_STRUCTEiiPKNS_18INT_FEATURE_STRUCTEPKhPKtPSt6vectorINS_16CP_RESULT_STRUCTESaISC_EE
gpcl6:_ZN9tesseract8Classify13AdaptableWordEPNS_8WERD_RESE
gpcl6:_ZN9tesseract8Classify13GetFontinfoIdEPNS_18ADAPT_CLASS_STRUCTEh
gpcl6:_ZN9tesseract8Classify13MakePermanentEPNS_22ADAPT_TEMPLATES_STRUCTEiiPNS_5TBLOBE
gpcl6:_ZN9tesseract8Classify13MasterMatcherEPNS_20INT_TEMPLATES_STRUCTEsPKNS_18INT_FEATURE_STRUCTEPKhPPNS_18ADAPT_CLASS_STRUCTEiiRKNS_4TBOXERKSt6vectorINS_16CP_RESULT_STRUCTESaISF_EEPNS_13ADAPT_RESULTSE
gpcl6:_ZN9tesseract8Classify14FreeNormProtosEv
gpcl6:_ZN9tesseract8Classify14GetAmbiguitiesEPNS_5TBLOBEi
gpcl6:_ZN9tesseract8Classify14ReadNewCutoffsEPNS_5TFileEPt
gpcl6:_ZN9tesseract8Classify14ReadNormProtosEPNS_5TFileE
gpcl6:_ZN9tesseract8Classify15AmbigClassifierERKSt6vectorINS_18INT_FEATURE_STRUCTESaIS2_EERKNS_20INT_FX_RESULT_STRUCTEPKNS_5TBLOBEPNS_20INT_TEMPLATES_STRUCTEPPNS_18ADAPT_CLASS_STRUCTEPiPNS_13ADAPT_RESULTSE
gpcl6:_ZN9tesseract8Classify15ClassifyAsNoiseEPNS_13ADAPT_RESULTSE
gpcl6:_ZN9tesseract8Classify15DoAdaptiveMatchEPNS_5TBLOBEPNS_13ADAPT_RESULTSE
gpcl6:_ZN9tesseract8Classify15ExtractFeaturesERKNS_5TBLOBEbPSt6vectorINS_18INT_FEATURE_STRUCTESaIS5_EES8_PNS_20INT_FX_RESULT_STRUCTEPNS_13GenericVectorIiEE
gpcl6:_ZN9tesseract8Classify16ComputeNormMatchEiRKNS_14FEATURE_STRUCTEb
gpcl6:_ZN9tesseract8Classify16InitAdaptedClassEPNS_5TBLOBEiiPNS_18ADAPT_CLASS_STRUCTEPNS_22ADAPT_TEMPLATES_STRUCTE
gpcl6:_ZN9tesseract8Classify16LooksLikeGarbageEPNS_5TBLOBE
gpcl6:_ZN9tesseract8Classify16ReadIntTemplatesEPNS_5TFileE
gpcl6:_ZN9tesseract8Classify16RemoveBadMatchesEPNS_13ADAPT_RESULTSE
gpcl6:_ZN9tesseract8Classify16RemoveExtraPuncsEPNS_13ADAPT_RESULTSE
gpcl6:_ZN9tesseract8Classify16SetupBLCNDenormsERKNS_5TBLOBEbPNS_6DENORMES5_PNS_20INT_FX_RESULT_STRUCTE
gpcl6:_ZN9tesseract8Classify17AddLargeSpeckleToEiPNS_16BLOB_CHOICE_LISTE
gpcl6:_ZN9tesseract8Classify17MakeNewTempProtosEPNS_18FEATURE_SET_STRUCTEiPhPNS_16INT_CLASS_STRUCTEPNS_18ADAPT_CLASS_STRUCTEPj
gpcl6:_ZN9tesseract8Classify17NormalizeOutlinesEPNS_8list_recEPfS3_
gpcl6:_ZN9tesseract8Classify17UpdateAmbigsGroupEiPNS_5TBLOBE
gpcl6:_ZN9tesseract8Classify17WriteIntTemplatesEP8_IO_FILEPNS_20INT_TEMPLATES_STRUCTERKNS_10UNICHARSETE
gpcl6:_ZN9tesseract8Classify18AdaptiveClassifierEPNS_5TBLOBEPNS_16BLOB_CHOICE_LISTE
gpcl6:_ZN9tesseract8Classify18BaselineClassifierEPNS_5TBLOBERKSt6vectorINS_18INT_FEATURE_STRUCTESaIS4_EERKNS_20INT_FX_RESULT_STRUCTEPNS_22ADAPT_TEMPLATES_STRUCTEPNS_13ADAPT_RESULTSE
gpcl6:_ZN9tesseract8Classify18CharNormClassifierEPNS_5TBLOBERKNS_14TrainingSampleEPNS_13ADAPT_RESULTSE
gpcl6:_ZN9tesseract8Classify18ClearCharNormArrayEPh
gpcl6:_ZN9tesseract8Classify18ComputeIntFeaturesEPNS_18FEATURE_SET_STRUCTEPNS_18INT_FEATURE_STRUCTE
gpcl6:_ZN9tesseract8Classify18CreateIntTemplatesEPNS_12CLASS_STRUCTERKNS_10UNICHARSETE
gpcl6:_ZN9tesseract8Classify18GetCharNormFeatureERKNS_20INT_FX_RESULT_STRUCTEPNS_20INT_TEMPLATES_STRUCTEPhS6_
gpcl6:_ZN9tesseract8Classify18TempConfigReliableEiRKPNS_18TEMP_CONFIG_STRUCTE
gpcl6:_ZN9tesseract8Classify19ExtractPicoFeaturesEPNS_5TBLOBE
gpcl6:_ZN9tesseract8Classify19GetAdaptiveFeaturesEPNS_5TBLOBEPNS_18INT_FEATURE_STRUCTEPPNS_18FEATURE_SET_STRUCTE
gpcl6:_ZN9tesseract8Classify19NewAdaptedTemplatesEb
gpcl6:_ZN9tesseract8Classify19SetStaticClassifierEPNS_15ShapeClassifierE
gpcl6:_ZN9tesseract8Classify20ExtractIntCNFeaturesERKNS_5TBLOBERKNS_20INT_FX_RESULT_STRUCTE
gpcl6:_ZN9tesseract8Classify20ReadAdaptedTemplatesEPNS_5TFileE
gpcl6:_ZN9tesseract8Classify20SetAdaptiveThresholdEf
gpcl6:_ZN9tesseract8Classify21ComputeCharNormArraysEPNS_14FEATURE_STRUCTEPNS_20INT_TEMPLATES_STRUCTEPhS5_
gpcl6:_ZN9tesseract8Classify21EndAdaptiveClassifierEv
gpcl6:_ZN9tesseract8Classify21ExtractIntGeoFeaturesERKNS_5TBLOBERKNS_20INT_FX_RESULT_STRUCTE
gpcl6:_ZN9tesseract8Classify21PrintAdaptedTemplatesEP8_IO_FILEPNS_22ADAPT_TEMPLATES_STRUCTE
gpcl6:_ZN9tesseract8Classify21WriteAdaptedTemplatesEP8_IO_FILEPNS_22ADAPT_TEMPLATES_STRUCTE
gpcl6:_ZN9tesseract8Classify22CharNormTrainingSampleEbiRKNS_14TrainingSampleEPSt6vectorINS_13UnicharRatingESaIS5_EE
gpcl6:_ZN9tesseract8Classify22ComputeCorrectedRatingEbiddiiiiiPKh
gpcl6:_ZN9tesseract8Classify22ExtractOutlineFeaturesEPNS_5TBLOBE
gpcl6:_ZN9tesseract8Classify22InitAdaptiveClassifierEPNS_15TessdataManagerE
gpcl6:_ZN9tesseract8Classify22MakeNewTemporaryConfigEPNS_22ADAPT_TEMPLATES_STRUCTEiiiPNS_18INT_FEATURE_STRUCTEPNS_18FEATURE_SET_STRUCTE
gpcl6:_ZN9tesseract8Classify23ComputeIntCharNormArrayERKNS_14FEATURE_STRUCTEPh
gpcl6:_ZN9tesseract8Classify23ConvertMatchesToChoicesERKNS_6DENORMERKNS_4TBOXEPNS_13ADAPT_RESULTSEPNS_16BLOB_CHOICE_LISTE
gpcl6:_ZN9tesseract8Classify24SwitchAdaptiveClassifierEv
gpcl6:_ZN9tesseract8Classify25PrintAdaptiveMatchResultsERKNS_13ADAPT_RESULTSE
gpcl6:_ZN9tesseract8Classify29StartBackupAdaptiveClassifierEv
gpcl6:_ZN9tesseract8Classify31ExpandShapesAndApplyCorrectionsEPPNS_18ADAPT_CLASS_STRUCTEbiiifiiPKhPNS_13UnicharRatingEPNS_13ADAPT_RESULTSE
gpcl6:_ZN9tesseract8Classify31ResetAdaptiveClassifierInternalEv
gpcl6:_ZN9tesseract8Classify9LearnBlobERKNS_6STRINGEPNS_5TBLOBERKNS_6DENORMERKNS_20INT_FX_RESULT_STRUCTEPKc
gpcl6:_ZN9tesseract8Classify9LearnWordEPKcPNS_8WERD_RESE
gpcl6:_ZN9tesseract8ClassifyC1Ev
gpcl6:_ZN9tesseract8ClassifyC2Ev
gpcl6:_ZN9tesseract8ClassifyD0Ev
gpcl6:_ZN9tesseract8ClassifyD1Ev
gpcl6:_ZN9tesseract8ClassifyD2Ev
gpcl6:_ZN9tesseract8Convolve11DeSerializeEPNS_5TFileE
gpcl6:_ZN9tesseract8Convolve7ForwardEbRKNS_9NetworkIOEPKNS_15TransposedArrayEPNS_14NetworkScratchEPS1_
gpcl6:_ZN9tesseract8Convolve8BackwardEbRKNS_9NetworkIOEPNS_14NetworkScratchEPS1_
gpcl6:_ZN9tesseract8ConvolveC1ERKNSt7__cxx1112basic_stringIcSt11char_traitsIcESaIcEEEiii
gpcl6:_ZN9tesseract8ConvolveC2ERKNSt7__cxx1112basic_stringIcSt11char_traitsIcESaIcEEEiii
gpcl6:_ZN9tesseract8FontInfo11DeSerializeEPNS_5TFileE
gpcl6:_ZN9tesseract8GridBase4InitEiRKNS_6ICOORDES3_
gpcl6:_ZN9tesseract8GridBaseC1EiRKNS_6ICOORDES3_
gpcl6:_ZN9tesseract8GridBaseC2EiRKNS_6ICOORDES3_
gpcl6:_ZN9tesseract8GridBaseD0Ev
gpcl6:_ZN9tesseract8GridBaseD1Ev
gpcl6:_ZN9tesseract8GridBaseD2Ev
gpcl6:_ZN9tesseract8IndexMap11DeSerializeEbP8_IO_FILE
gpcl6:_ZN9tesseract8IndexMap8CopyFromERKNS_12IndexMapBiDiE
gpcl6:_ZN9tesseract8IndexMap8CopyFromERKS0_
gpcl6:_ZN9tesseract8IndexMapD0Ev
gpcl6:_ZN9tesseract8IndexMapD1Ev
gpcl6:_ZN9tesseract8IndexMapD2Ev
gpcl6:_ZN9tesseract8KDDeleteEPNS_6KDTREEEPfPv
gpcl6:_ZN9tesseract8NewClassEii
gpcl6:_ZN9tesseract8PAGE_RESC1EbPNS_10BLOCK_LISTEPPNS_11WERD_CHOICEE
gpcl6:_ZN9tesseract8PAGE_RESC2EbPNS_10BLOCK_LISTEPPNS_11WERD_CHOICEE
gpcl6:_ZN9tesseract8Parallel7ForwardEbRKNS_9NetworkIOEPKNS_15TransposedArrayEPNS_14NetworkScratchEPS1_
gpcl6:_ZN9tesseract8Parallel8BackwardEbRKNS_9NetworkIOEPNS_14NetworkScratchEPS1_
gpcl6:_ZN9tesseract8ParallelC1EPKcNS_11NetworkTypeE
gpcl6:_ZN9tesseract8ParallelC2EPKcNS_11NetworkTypeE
gpcl6:_ZN9tesseract8Plumbing10AddToStackEPNS_7NetworkE
gpcl6:_ZN9tesseract8Plumbing11DeSerializeEPNS_5TFileE
gpcl6:_ZN9tesseract8Plumbing11InitWeightsEfPNS_5TRandE
gpcl6:_ZN9tesseract8Plumbing12ConvertToIntEv
gpcl6:_ZN9tesseract8Plumbing12DebugWeightsEv
gpcl6:_ZN9tesseract8Plumbing12RemapOutputsEiRKSt6vectorIiSaIiEE
gpcl6:_ZN9tesseract8Plumbing13SetRandomizerEPNS_5TRandE
gpcl6:_ZN9tesseract8Plumbing15SetNetworkFlagsEj
gpcl6:_ZN9tesseract8Plumbing17CacheXScaleFactorEi
gpcl6:_ZN9tesseract8Plumbing17SetEnableTrainingENS_13TrainingStateE
gpcl6:_ZN9tesseract8Plumbing18SetupNeedsBackpropEb
gpcl6:_ZN9tesseract8Plumbing20LayerLearningRatePtrEPKc
gpcl6:_ZN9tesseract8Plumbing6UpdateEfffi
gpcl6:_ZN9tesseract8PlumbingC1ERKNSt7__cxx1112basic_stringIcSt11char_traitsIcESaIcEEE
gpcl6:_ZN9tesseract8PlumbingC2ERKNSt7__cxx1112basic_stringIcSt11char_traitsIcESaIcEEE
gpcl6:_ZN9tesseract8ROW_LIST9deep_copyEPKS0_PFPNS_3ROWEPKS3_E
gpcl6:_ZN9tesseract8Reconfig11DeSerializeEPNS_5TFileE
gpcl6:_ZN9tesseract8Reconfig7ForwardEbRKNS_9NetworkIOEPKNS_15TransposedArrayEPNS_14NetworkScratchEPS1_
gpcl6:_ZN9tesseract8Reconfig8BackwardEbRKNS_9NetworkIOEPNS_14NetworkScratchEPS1_
gpcl6:_ZN9tesseract8ReconfigC1EPKciii
gpcl6:_ZN9tesseract8ReconfigC2EPKciii
gpcl6:_ZN9tesseract8Reversed10SetNetworkEPNS_7NetworkE
gpcl6:_ZN9tesseract8Reversed7ForwardEbRKNS_9NetworkIOEPKNS_15TransposedArrayEPNS_14NetworkScratchEPS1_
gpcl6:_ZN9tesseract8Reversed8BackwardEbRKNS_9NetworkIOEPNS_14NetworkScratchEPS1_
gpcl6:_ZN9tesseract8ReversedC1ERKNSt7__cxx1112basic_stringIcSt11char_traitsIcESaIcEEENS_11NetworkTypeE
gpcl6:_ZN9tesseract8ReversedC2ERKNSt7__cxx1112basic_stringIcSt11char_traitsIcESaIcEEENS_11NetworkTypeE
gpcl6:_ZN9tesseract8TESSLINE12SetupFromPosEv
gpcl6:_ZN9tesseract8TESSLINE18ComputeBoundingBoxEv
gpcl6:_ZN9tesseract8TESSLINE20BuildFromOutlineListEPNS_6EDGEPTE
gpcl6:_ZN9tesseract8TESSLINE4MoveENS_6ICOORDE
gpcl6:_ZN9tesseract8TESSLINE5ClearEv
gpcl6:_ZN9tesseract8TESSLINE5ScaleEf
gpcl6:_ZN9tesseract8TESSLINE6RotateENS_6FCOORDE
gpcl6:_ZN9tesseract8TESSLINE8CopyFromERKS0_
gpcl6:_ZN9tesseract8TESSLINE9NormalizeERKNS_6DENORME
gpcl6:_ZN9tesseract8TO_BLOCK18ComputeEdgeOffsetsEP3PixS2_
gpcl6:_ZN9tesseract8TO_BLOCK18DeleteUnownedNoiseEv
gpcl6:_ZN9tesseract8TO_BLOCK21ReSetAndReFilterBlobsEv
gpcl6:_ZN9tesseract8TO_BLOCK5clearEv
gpcl6:_ZN9tesseract8TO_BLOCKC1EPNS_5BLOCKE
gpcl6:_ZN9tesseract8TO_BLOCKC2EPNS_5BLOCKE
gpcl6:_ZN9tesseract8TO_BLOCKD1Ev
gpcl6:_ZN9tesseract8TO_BLOCKD2Ev
gpcl6:_ZN9tesseract8WERD_RES10BothQuotesEii
gpcl6:_ZN9tesseract8WERD_RES10BothSpacesEii
gpcl6:_ZN9tesseract8WERD_RES10InsertSeamEiPNS_4SEAME
gpcl6:_ZN9tesseract8WERD_RES10fix_quotesEv
gpcl6:_ZN9tesseract8WERD_RES11BothHyphensEii
gpcl6:_ZN9tesseract8WERD_RES11GetBlobsGapEi
gpcl6:_ZN9tesseract8WERD_RES11IsAmbiguousEv
gpcl6:_ZN9tesseract8WERD_RES11fix_hyphensEv
gpcl6:_ZN9tesseract8WERD_RES12ClearRatingsEv
gpcl6:_ZN9tesseract8WERD_RES12ClearResultsEv
gpcl6:_ZN9tesseract8WERD_RES12SetupBoxWordEv
gpcl6:_ZN9tesseract8WERD_RES13GetBlobsWidthEii
gpcl6:_ZN9tesseract8WERD_RES14StatesAllValidEv
gpcl6:_ZN9tesseract8WERD_RES15LogNewRawChoiceEPNS_11WERD_CHOICEE
gpcl6:_ZN9tesseract8WERD_RES15SetupWordScriptERKNS_10UNICHARSETE
gpcl6:_ZN9tesseract8WERD_RES16ClearWordChoicesEv
gpcl6:_ZN9tesseract8WERD_RES16CopySimpleFieldsERKS0_
gpcl6:_ZN9tesseract8WERD_RES16DebugWordChoicesEbPKc
gpcl6:_ZN9tesseract8WERD_RES16FakeClassifyWordEiPPNS_11BLOB_CHOICEE
gpcl6:_ZN9tesseract8WERD_RES16RebuildBestStateEv
gpcl6:_ZN9tesseract8WERD_RES16merge_tess_failsEv
gpcl6:_ZN9tesseract8WERD_RES17FilterWordChoicesEi
gpcl6:_ZN9tesseract8WERD_RES17ReplaceBestChoiceEPNS_11WERD_CHOICEE
gpcl6:_ZN9tesseract8WERD_RES17SetupBlamerBundleEv
gpcl6:_ZN9tesseract8WERD_RES18ConsumeWordResultsEPS0_
gpcl6:_ZN9tesseract8WERD_RES18HyphenBoxesOverlapERKNS_4TBOXES3_
gpcl6:_ZN9tesseract8WERD_RES18LogNewCookedChoiceEibPNS_11WERD_CHOICEE
gpcl6:_ZN9tesseract8WERD_RES18MergeAdjacentBlobsEi
gpcl6:_ZN9tesseract8WERD_RES18SetScriptPositionsEv
gpcl6:_ZN9tesseract8WERD_RES19FakeWordFromRatingsENS_12PermuterTypeE
gpcl6:_ZN9tesseract8WERD_RES19SetupForRecognitionERKNS_10UNICHARSETEPNS_9TesseractEP3PixiPKNS_4TBOXEbbbPNS_3ROWEPKNS_5BLOCKE
gpcl6:_ZN9tesseract8WERD_RES20ConditionalBlobMergeESt8functionIFiiiEES1_IFbRKNS_4TBOXES6_EE
gpcl6:_ZN9tesseract8WERD_RES21CloneChoppedToRebuildEv
gpcl6:_ZN9tesseract8WERD_RES21SetAllScriptPositionsENS_9ScriptPosE
gpcl6:_ZN9tesseract8WERD_RES22SetupBlobWidthsAndGapsEv
gpcl6:_ZN9tesseract8WERD_RES23BestChoiceToCorrectTextEv
gpcl6:_ZN9tesseract8WERD_RES23InitForRetryRecognitionERKS0_
gpcl6:_ZN9tesseract8WERD_RES25ComputeAdaptionThresholdsEffffPf
gpcl6:_ZN9tesseract8WERD_RES26SetupBasicsFromChoppedWordERKNS_10UNICHARSETE
gpcl6:_ZN9tesseract8WERD_RES5ClearEv
gpcl6:_ZN9tesseract8WERD_RES9SetupFakeERKNS_10UNICHARSETE
gpcl6:_ZN9tesseract8WERD_RESD1Ev
gpcl6:_ZN9tesseract8WERD_RESD2Ev
gpcl6:_ZN9tesseract8WERD_RESaSERKS0_
gpcl6:_ZN9tesseract8box_nextEPNS_11BLOBNBOX_ITE
gpcl6:_ZN9tesseract8delete_dEPNS_8list_recEPvPFiS2_S2_E
gpcl6:_ZN9tesseract8lessthanEPKvS1_
gpcl6:_ZN9tesseract8read_setEPNS_5TFileEPNS_7FontSetE
gpcl6:_ZN9tesseract9AmbigSpecC1Ev
gpcl6:_ZN9tesseract9AmbigSpecC2Ev
gpcl6:_ZN9tesseract9BLOCK_RESC1EbPNS_5BLOCKE
gpcl6:_ZN9tesseract9BLOCK_RESC2EbPNS_5BLOCKE
gpcl6:_ZN9tesseract9BitVector10SetAllTrueEv
gpcl6:_ZN9tesseract9BitVector10lsb_index_E
gpcl6:_ZN9tesseract9BitVector11DeSerializeEbP8_IO_FILE
gpcl6:_ZN9tesseract9BitVector11SetAllFalseEv
gpcl6:_ZN9tesseract9BitVector11SetSubtractERKS0_S2_
gpcl6:_ZN9tesseract9BitVector11lsb_eroded_E
gpcl6:_ZN9tesseract9BitVector14hamming_table_E
gpcl6:_ZN9tesseract9BitVector4InitEi
gpcl6:_ZN9tesseract9BitVector5AllocEi
gpcl6:_ZN9tesseract9BitVectorC1ERKS0_
gpcl6:_ZN9tesseract9BitVectorC1Ei
gpcl6:_ZN9tesseract9BitVectorC1Ev
gpcl6:_ZN9tesseract9BitVectorC2ERKS0_
gpcl6:_ZN9tesseract9BitVectorC2Ei
gpcl6:_ZN9tesseract9BitVectorC2Ev
gpcl6:_ZN9tesseract9BitVectorD1Ev
gpcl6:_ZN9tesseract9BitVectorD2Ev
gpcl6:_ZN9tesseract9BitVectoraNERKS0_
gpcl6:_ZN9tesseract9BitVectoraSERKS0_
gpcl6:_ZN9tesseract9BitVectoreOERKS0_
gpcl6:_ZN9tesseract9BitVectoroRERKS0_
gpcl6:_ZN9tesseract9BucketEndEifi
gpcl6:_ZN9tesseract9C_OUTLINE10chain_stepEi
gpcl6:_ZN9tesseract9C_OUTLINE11FakeOutlineERKNS_4TBOXEPNS_14C_OUTLINE_LISTE
gpcl6:_ZN9tesseract9C_OUTLINE11step_coordsE
gpcl6:_ZN9tesseract9C_OUTLINE17count_transitionsEi
gpcl6:_ZN9tesseract9C_OUTLINE18ComputeEdgeOffsetsEiP3Pix
gpcl6:_ZN9tesseract9C_OUTLINE20ComputeBinaryOffsetsEv
gpcl6:_ZN9tesseract9C_OUTLINE20RemoveSmallRecursiveEiPNS_12C_OUTLINE_ITE
gpcl6:_ZN9tesseract9C_OUTLINE4moveENS_6ICOORDE
gpcl6:_ZN9tesseract9C_OUTLINE7reverseEv
gpcl6:_ZN9tesseract9C_OUTLINEC1ENS_6ICOORDEPNS_6DIR128Es
gpcl6:_ZN9tesseract9C_OUTLINEC1EPNS_9CRACKEDGEENS_6ICOORDES3_s
gpcl6:_ZN9tesseract9C_OUTLINEC1EPS0_NS_6FCOORDE
gpcl6:_ZN9tesseract9C_OUTLINEC2ENS_6ICOORDEPNS_6DIR128Es
gpcl6:_ZN9tesseract9C_OUTLINEC2EPNS_9CRACKEDGEENS_6ICOORDES3_s
gpcl6:_ZN9tesseract9C_OUTLINEC2EPS0_NS_6FCOORDE
gpcl6:_ZN9tesseract9C_OUTLINEaSERKS0_
gpcl6:_ZN9tesseract9DawgCache15GetSquishedDawgERKNS_6STRINGENS_12TessdataTypeEiPNS_15TessdataManagerE
gpcl6:_ZN9tesseract9FreeClassEPNS_12CLASS_STRUCTE
gpcl6:_ZN9tesseract9ImageData11DeSerializeEPNS_5TFileE
gpcl6:_ZN9tesseract9ImageData15SkipDeSerializeEPNS_5TFileE
gpcl6:_ZN9tesseract9ImageData5BuildEPKciS2_S2_iS2_S2_
gpcl6:_ZN9tesseract9ImageData6SetPixEP3Pix
gpcl6:_ZN9tesseract9ImageData8AddBoxesEPKc
gpcl6:_ZN9tesseract9ImageData8AddBoxesERKSt6vectorINS_4TBOXESaIS2_EERKS1_INS_6STRINGESaIS7_EERKS1_IiSaIiEE
gpcl6:_ZN9tesseract9ImageDataC1EbP3Pix
gpcl6:_ZN9tesseract9ImageDataC1Ev
gpcl6:_ZN9tesseract9ImageDataC2EbP3Pix
gpcl6:_ZN9tesseract9ImageDataC2Ev
gpcl6:_ZN9tesseract9ImageDataD1Ev
gpcl6:_ZN9tesseract9ImageDataD2Ev
gpcl6:_ZN9tesseract9ImageFind10ClipToByteEd
gpcl6:_ZN9tesseract9ImageFind10ComposeRGBEjjj
gpcl6:_ZN9tesseract9ImageFind10FindImagesEP3PixPNS_9DebugPixaE
gpcl6:_ZN9tesseract9ImageFind16BoundsWithinRectEP3PixPiS3_S3_S3_
gpcl6:_ZN9tesseract9ImageFind19BlankImageInBetweenERKNS_4TBOXES3_S3_RKNS_6FCOORDEP3Pix
gpcl6:_ZN9tesseract9ImageFind19FindImagePartitionsEP3PixRKNS_6FCOORDES5_PNS_8TO_BLOCKEPNS_7TabFindEPNS_9DebugPixaEPNS_16ColPartitionGridEPNS_17ColPartition_LISTE
gpcl6:_ZN9tesseract9ImageFind20pixNearlyRectangularEP3PixdddPiS3_S3_S3_
gpcl6:_ZN9tesseract9ImageFind21ColorDistanceFromLineEPKhS2_S2_
gpcl6:_ZN9tesseract9ImageFind22ComputeRectangleColorsERKNS_4TBOXEP3PixiS5_S5_S5_PhS6_
gpcl6:_ZN9tesseract9ImageFind23CountPixelsInRotatedBoxENS_4TBOXERKS1_RKNS_6FCOORDEP3Pix
gpcl6:_ZN9tesseract9ImageFind25ConnCompAndRectangularizeEP3PixPNS_9DebugPixaEPP4BoxaPP4Pixa
gpcl6:_ZN9tesseract9ImageFind29TransferImagePartsToImageMaskERKNS_6FCOORDEPNS_16ColPartitionGridEP3Pix
gpcl6:_ZN9tesseract9NetworkIO10ClipVectorEif
gpcl6:_ZN9tesseract9NetworkIO10GetPaddingEi
gpcl6:_ZN9tesseract9NetworkIO10ResizeXTo1ERKS0_i
gpcl6:_ZN9tesseract9NetworkIO11Copy2DImageEiP3PixffPNS_5TRandE
gpcl6:_ZN9tesseract9NetworkIO11CopyPackingERKS0_i
gpcl6:_ZN9tesseract9NetworkIO11ResizeToMapEbRKNS_9StrideMapEi
gpcl6:_ZN9tesseract9NetworkIO12ResizeScaledERKS0_iii
gpcl6:_ZN9tesseract9NetworkIO13AddAllToFloatERKS0_
gpcl6:_ZN9tesseract9NetworkIO13CopyUnpackingERKS0_ii
gpcl6:_ZN9tesseract9NetworkIO13WriteTimeStepEiPKd
gpcl6:_ZN9tesseract9NetworkIO14CombineOutputsERKS0_S2_
gpcl6:_ZN9tesseract9NetworkIO14SetActivationsEiif
gpcl6:_ZN9tesseract9NetworkIO15Copy1DGreyImageEiP3PixffPNS_5TRandE
gpcl6:_ZN9tesseract9NetworkIO15EnsureBestLabelEii
gpcl6:_ZN9tesseract9NetworkIO15MaxpoolBackwardERKS0_RKNS_16GENERIC_2D_ARRAYIiEE
gpcl6:_ZN9tesseract9NetworkIO15MaxpoolTimeStepEiRKS0_iPi
gpcl6:_ZN9tesseract9NetworkIO15ProbToCertaintyEf
gpcl6:_ZN9tesseract9NetworkIO16CopyTimeStepFromEiRKS0_i
gpcl6:_ZN9tesseract9NetworkIO17CopyWithXReversalERKS0_
gpcl6:_ZN9tesseract9NetworkIO17CopyWithYReversalERKS0_
gpcl6:_ZN9tesseract9NetworkIO17WriteTimeStepPartEiiiPKd
gpcl6:_ZN9tesseract9NetworkIO19CopyTimeStepGeneralEiiiRKS0_ii
gpcl6:_ZN9tesseract9NetworkIO19CopyWithXYTransposeERKS0_
gpcl6:_ZN9tesseract9NetworkIO19ZeroInvalidElementsEv
gpcl6:_ZN9tesseract9NetworkIO19ZeroTimeStepGeneralEiii
gpcl6:_ZN9tesseract9NetworkIO20SubtractAllFromFloatERKS0_
gpcl6:_ZN9tesseract9NetworkIO21ComputeCombinerDeltasERKS0_S2_
gpcl6:_ZN9tesseract9NetworkIO21CopyWithNormalizationERKS0_S2_
gpcl6:_ZN9tesseract9NetworkIO4ZeroEv
gpcl6:_ZN9tesseract9NetworkIO7CopyAllERKS0_
gpcl6:_ZN9tesseract9NetworkIO7FromPixERKNS_11StaticShapeEPK3PixPNS_5TRandE
gpcl6:_ZN9tesseract9NetworkIO8Resize2dEbii
gpcl6:_ZN9tesseract9NetworkIO8SetPixelEiiiff
gpcl6:_ZN9tesseract9NetworkIO9FromPixesERKNS_11StaticShapeERKSt6vectorIPK3PixSaIS7_EEPNS_5TRandE
gpcl6:_ZN9tesseract9NetworkIO9RandomizeEiiiPNS_5TRandE
gpcl6:_ZN9tesseract9OSResults10accumulateERKS0_
gpcl6:_ZN9tesseract9OSResults18update_best_scriptEi
gpcl6:_ZN9tesseract9OSResults20set_best_orientationEi
gpcl6:_ZN9tesseract9OSResults23update_best_orientationEv
gpcl6:_ZN9tesseract9OtsuStatsEPKiPiS2_
gpcl6:_ZN9tesseract9PARA_LIST9deep_copyEPKS0_PFPNS_4PARAEPKS3_E
gpcl6:_ZN9tesseract9StrideMap11TransposeXYEv
gpcl6:_ZN9tesseract9StrideMap14ReduceWidthTo1Ev
gpcl6:_ZN9tesseract9StrideMap18ComputeTIncrementsEv
gpcl6:_ZN9tesseract9StrideMap5Index15SetTFromIndicesEv
gpcl6:_ZN9tesseract9StrideMap5Index17InitToLastOfBatchEi
gpcl6:_ZN9tesseract9StrideMap5Index9AddOffsetEiNS_14FlexDimensionsE
gpcl6:_ZN9tesseract9StrideMap5Index9DecrementEv
gpcl6:_ZN9tesseract9StrideMap5Index9IncrementEv
gpcl6:_ZN9tesseract9StrideMap7ScaleXYEii
gpcl6:_ZN9tesseract9StrideMap9SetStrideERKSt6vectorISt4pairIiiESaIS3_EE
gpcl6:_ZN9tesseract9TabVector10AddPartnerEPS0_
gpcl6:_ZN9tesseract9TabVector10IsAPartnerEPKS0_
gpcl6:_ZN9tesseract9TabVector11ExtendToBoxEPNS_8BLOBNBOXE
gpcl6:_ZN9tesseract9TabVector16ApplyConstraintsEv
gpcl6:_ZN9tesseract9TabVector16GetSinglePartnerEv
gpcl6:_ZN9tesseract9TabVector16SetupConstraintsEv
gpcl6:_ZN9tesseract9TabVector22FitAndEvaluateIfNeededERKNS_6ICOORDEPNS_7TabFindE
gpcl6:_ZN9tesseract9TabVector22MergeSimilarTabVectorsERKNS_6ICOORDEPNS_14TabVector_LISTEPNS_8BlobGridE
gpcl6:_ZN9tesseract9TabVector23SetupPartnerConstraintsEPS0_
gpcl6:_ZN9tesseract9TabVector23SetupPartnerConstraintsEv
gpcl6:_ZN9tesseract9TabVector23VerticalTextlinePartnerEv
gpcl6:_ZN9tesseract9TabVector3FitENS_6ICOORDEb
gpcl6:_ZN9tesseract9TabVector5DebugEPKc
gpcl6:_ZN9tesseract9TabVector5PrintEPKc
gpcl6:_ZN9tesseract9TabVector6DeleteEPS0_
gpcl6:_ZN9tesseract9TabVector6RotateERKNS_6FCOORDE
gpcl6:_ZN9tesseract9TabVector7SetYEndEi
gpcl6:_ZN9tesseract9TabVector8EvaluateERKNS_6ICOORDEPNS_7TabFindE
gpcl6:_ZN9tesseract9TabVector9FitVectorENS_12TabAlignmentENS_6ICOORDEiiPNS_14BLOBNBOX_CLISTEPiS5_
gpcl6:_ZN9tesseract9TabVector9MergeWithERKNS_6ICOORDEPS0_
gpcl6:_ZN9tesseract9TabVector9SetYStartEi
gpcl6:_ZN9tesseract9TabVectorC1ERKS0_NS_12TabAlignmentERKNS_6ICOORDEPNS_8BLOBNBOXE
gpcl6:_ZN9tesseract9TabVectorC1EiiNS_12TabAlignmentEPNS_14BLOBNBOX_CLISTE
gpcl6:_ZN9tesseract9TabVectorC2ERKS0_NS_12TabAlignmentERKNS_6ICOORDEPNS_8BLOBNBOXE
gpcl6:_ZN9tesseract9TabVectorC2EiiNS_12TabAlignmentEPNS_14BLOBNBOX_CLISTE
gpcl6:_ZN9tesseract9TanhTableE
gpcl6:_ZN9tesseract9Tesseract10ApplyBoxesEPKcbPNS_10BLOCK_LISTE
gpcl6:_ZN9tesseract9Tesseract10dump_wordsERNS_13WERD_RES_LISTEssb
gpcl6:_ZN9tesseract9Tesseract10recog_wordEPNS_8WERD_RESE
gpcl6:_ZN9tesseract9Tesseract11AutoPageSegENS_11PageSegModeEPNS_10BLOCK_LISTEPNS_13TO_BLOCK_LISTEPNS_13BLOBNBOX_LISTEPS0_PNS_9OSResultsE
gpcl6:_ZN9tesseract9Tesseract11GetLineDataERKNS_4TBOXERKSt6vectorIS1_SaIS1_EERKS4_INS_6STRINGESaIS9_EEiiRKNS_5BLOCKE
gpcl6:_ZN9tesseract9Tesseract11SearchWordsEPNS_13PointerVectorINS_8WERD_RESEEE
gpcl6:_ZN9tesseract9Tesseract11SegmentPageEPKcPNS_10BLOCK_LISTEPS0_PNS_9OSResultsE
gpcl6:_ZN9tesseract9Tesseract11alpha_countEPKcS2_
gpcl6:_ZN9tesseract9Tesseract11blamer_passEPNS_8PAGE_RESE
gpcl6:_ZN9tesseract9Tesseract11non_0_digitERKNS_10UNICHARSETEi
gpcl6:_ZN9tesseract9Tesseract11non_O_upperERKNS_10UNICHARSETEi
gpcl6:_ZN9tesseract9Tesseract11output_passERNS_11PAGE_RES_ITEPKNS_4TBOXE
gpcl6:_ZN9tesseract9Tesseract11word_dumperEPNS_11PAGE_RES_ITE
gpcl6:_ZN9tesseract9Tesseract12count_alphasERKNS_11WERD_CHOICEE
gpcl6:_ZN9tesseract9Tesseract12fix_rep_charEPNS_11PAGE_RES_ITE
gpcl6:_ZN9tesseract9Tesseract12flip_hyphensEPNS_8WERD_RESE
gpcl6:_ZN9tesseract9Tesseract12garbage_wordEPNS_8WERD_RESEb
gpcl6:_ZN9tesseract9Tesseract12get_rep_charEPNS_8WERD_RESE
gpcl6:_ZN9tesseract9Tesseract12reject_I_1_LEPNS_8WERD_RESE
gpcl6:_ZN9tesseract9Tesseract12tilde_crunchERNS_11PAGE_RES_ITE
gpcl6:_ZN9tesseract9Tesseract12tilde_deleteERNS_11PAGE_RES_ITE
gpcl6:_ZN9tesseract9Tesseract13PreenXHeightsEPNS_10BLOCK_LISTE
gpcl6:_ZN9tesseract9Tesseract13SearchForTextEPKNS_13GenericVectorIPNS_16BLOB_CHOICE_LISTEEEiiRKNS1_IiEEifPS7_PfSA_
gpcl6:_ZN9tesseract9Tesseract13end_tesseractEv
gpcl6:_ZN9tesseract9Tesseract13failure_countEPNS_8WERD_RESE
gpcl6:_ZN9tesseract9Tesseract13write_resultsERNS_11PAGE_RES_ITEcb
gpcl6:_ZN9tesseract9Tesseract14SetupWordPassNEiPNS_8WordDataE
gpcl6:_ZN9tesseract9Tesseract14TrainFromBoxesERKSt6vectorINS_4TBOXESaIS2_EERKS1_INS_6STRINGESaIS7_EEPNS_10BLOCK_LISTEPNS_12DocumentDataE
gpcl6:_ZN9tesseract9Tesseract14check_debug_ptEPNS_8WERD_RESEi
gpcl6:_ZN9tesseract9Tesseract14dont_allow_1IlEPNS_8WERD_RESE
gpcl6:_ZN9tesseract9Tesseract14fix_sp_fp_wordERNS_11WERD_RES_ITEPNS_3ROWEPNS_5BLOCKE
gpcl6:_ZN9tesseract9Tesseract14init_tesseractEPKcS2_S2_NS_13OcrEngineModeEPPciPKSt6vectorINSt7__cxx1112basic_stringIcSt11char_traitsIcESaIcEEESaISC_EESG_bPNS_15TessdataManagerE
gpcl6:_ZN9tesseract9Tesseract14noise_outlinesEPNS_5TWERDE
gpcl6:_ZN9tesseract9Tesseract14safe_dict_wordEPKNS_8WERD_RESE
gpcl6:_ZN9tesseract9Tesseract14set_word_fontsEPNS_8WERD_RESE
gpcl6:_ZN9tesseract9Tesseract14unrej_good_chsEPNS_8WERD_RESE
gpcl6:_ZN9tesseract9Tesseract14word_adaptableEPNS_8WERD_RESEt
gpcl6:_ZN9tesseract9Tesseract14word_deletableEPNS_8WERD_RESERs
gpcl6:_ZN9tesseract9Tesseract15CountMisfitTopsEPNS_8WERD_RESE
gpcl6:_ZN9tesseract9Tesseract15ReportFailedBoxEiNS_4TBOXEPKcS3_
gpcl6:_ZN9tesseract9Tesseract15SetupApplyBoxesERKSt6vectorINS_4TBOXESaIS2_EEPNS_10BLOCK_LISTE
gpcl6:_ZN9tesseract9Tesseract15count_alphanumsEPNS_8WERD_RESE
gpcl6:_ZN9tesseract9Tesseract15count_alphanumsERKNS_11WERD_CHOICEE
gpcl6:_ZN9tesseract9Tesseract15make_reject_mapEPNS_8WERD_RESEPNS_3ROWEs
gpcl6:_ZN9tesseract9Tesseract15recog_all_wordsEPNS_8PAGE_RESEPNS_10ETEXT_DESCEPKNS_4TBOXEPKci
gpcl6:_ZN9tesseract9Tesseract15script_pos_passEPNS_8PAGE_RESE
gpcl6:_ZN9tesseract9Tesseract16ApplyBoxTrainingERKNS_6STRINGEPNS_8PAGE_RESE
gpcl6:_ZN9tesseract9Tesseract16FindSegmentationERKNS_13GenericVectorIiEEPNS_8WERD_RESE
gpcl6:_ZN9tesseract9Tesseract16ResegmentCharBoxEPNS_8PAGE_RESEPKNS_4TBOXERS4_S5_PKc
gpcl6:_ZN9tesseract9Tesseract16ResegmentWordBoxEPNS_10BLOCK_LISTERKNS_4TBOXEPS4_PKc
gpcl6:_ZN9tesseract9Tesseract16blob_noise_scoreEPNS_5TBLOBE
gpcl6:_ZN9tesseract9Tesseract16fix_fuzzy_spacesEPNS_10ETEXT_DESCEiPNS_8PAGE_RESE
gpcl6:_ZN9tesseract9Tesseract16one_ell_conflictEPNS_8WERD_RESEb
gpcl6:_ZN9tesseract9Tesseract16read_config_fileEPKcNS_18SetParamConstraintE
gpcl6:_ZN9tesseract9Tesseract16rejection_passesEPNS_8PAGE_RESEPNS_10ETEXT_DESCEPKNS_4TBOXEPKc
gpcl6:_ZN9tesseract9Tesseract16worst_noise_blobEPNS_8WERD_RESEPf
gpcl6:_ZN9tesseract9Tesseract17LSTMRecognizeWordERKNS_5BLOCKEPNS_3ROWEPNS_8WERD_RESEPNS_13PointerVectorIS6_EE
gpcl6:_ZN9tesseract9Tesseract17MaximallyChopWordERKSt6vectorINS_4TBOXESaIS2_EEPNS_5BLOCKEPNS_3ROWEPNS_8WERD_RESE
gpcl6:_ZN9tesseract9Tesseract17PrepareForPagesegEv
gpcl6:_ZN9tesseract9Tesseract17PrepareForTessOCREPNS_10BLOCK_LISTEPS0_PNS_9OSResultsE
gpcl6:_ZN9tesseract9Tesseract17PrerecAllWordsParERKSt6vectorINS_8WordDataESaIS2_EE
gpcl6:_ZN9tesseract9Tesseract17ProcessTargetWordERKNS_4TBOXES3_PKci
gpcl6:_ZN9tesseract9Tesseract17RetryWithLanguageERKNS_8WordDataEMS0_FvS3_PPNS_8WERD_RESEPNS_13PointerVectorIS4_EEEbS6_S9_
gpcl6:_ZN9tesseract9Tesseract17SetEquationDetectEPNS_14EquationDetectE
gpcl6:_ZN9tesseract9Tesseract17TrainedXheightFixEPNS_8WERD_RESEPNS_5BLOCKEPNS_3ROWE
gpcl6:_ZN9tesseract9Tesseract17eval_word_spacingERNS_13WERD_RES_LISTE
gpcl6:_ZN9tesseract9Tesseract17init_tesseract_lmEPKcS2_S2_PNS_15TessdataManagerE
gpcl6:_ZN9tesseract9Tesseract17match_word_pass_nEiPNS_8WERD_RESEPNS_3ROWEPNS_5BLOCKE
gpcl6:_ZN9tesseract9Tesseract17recog_interactiveEPNS_11PAGE_RES_ITE
gpcl6:_ZN9tesseract9Tesseract17recog_pseudo_wordEPNS_8PAGE_RESERNS_4TBOXE
gpcl6:_ZN9tesseract9Tesseract17reject_edge_blobsEPNS_8WERD_RESE
gpcl6:_ZN9tesseract9Tesseract17set_unlv_suspectsEPNS_8WERD_RESE
gpcl6:_ZN9tesseract9Tesseract17tess_add_doc_wordEPNS_11WERD_CHOICEE
gpcl6:_ZN9tesseract9Tesseract17word_blob_qualityEPNS_8WERD_RESE
gpcl6:_ZN9tesseract9Tesseract17word_char_qualityEPNS_8WERD_RESEPsS3_
gpcl6:_ZN9tesseract9Tesseract17word_outline_errsEPNS_8WERD_RESE
gpcl6:_ZN9tesseract9Tesseract18ClassifyBlobAsWordEiPNS_11PAGE_RES_ITEPNS_6C_BLOBEPNS_6STRINGEPf
gpcl6:_ZN9tesseract9Tesseract18ReassignDiacriticsEiPNS_11PAGE_RES_ITEPb
gpcl6:_ZN9tesseract9Tesseract18RecogAllWordsPassNEiPNS_10ETEXT_DESCEPNS_11PAGE_RES_ITEPSt6vectorINS_8WordDataESaIS6_EE
gpcl6:_ZN9tesseract9Tesseract18ReportXhtFixResultEbfPNS_8WERD_RESES2_
gpcl6:_ZN9tesseract9Tesseract18SetupAllWordsPassNEiPKNS_4TBOXEPKcPNS_8PAGE_RESEPSt6vectorINS_8WordDataESaIS9_EE
gpcl6:_ZN9tesseract9Tesseract18count_outline_errsEcs
gpcl6:_ZN9tesseract9Tesseract19ParseLanguageStringEPKcPSt6vectorINSt7__cxx1112basic_stringIcSt11char_traitsIcESaIcEEESaIS9_EESC_
gpcl6:_ZN9tesseract9Tesseract19TrainLineRecognizerEPKcRKNS_6STRINGEPNS_10BLOCK_LISTE
gpcl6:_ZN9tesseract9Tesseract19classify_word_pass1ERKNS_8WordDataEPPNS_8WERD_RESEPNS_13PointerVectorIS4_EE
gpcl6:_ZN9tesseract9Tesseract19classify_word_pass2ERKNS_8WordDataEPPNS_8WERD_RESEPNS_13PointerVectorIS4_EE
gpcl6:_ZN9tesseract9Tesseract19init_recog_trainingEPKc
gpcl6:_ZN9tesseract9Tesseract19match_current_wordsERNS_13WERD_RES_LISTEPNS_3ROWEPNS_5BLOCKE
gpcl6:_ZN9tesseract9Tesseract19tess_segment_pass_nEiPNS_8WERD_RESE
gpcl6:_ZN9tesseract9Tesseract20CorrectClassifyWordsEPNS_8PAGE_RESE
gpcl6:_ZN9tesseract9Tesseract20SetBlackAndWhitelistEv
gpcl6:_ZN9tesseract9Tesseract20SubAndSuperscriptFixEPNS_8WERD_RESE
gpcl6:_ZN9tesseract9Tesseract20TestNewNormalizationEiffPNS_8WERD_RESEPNS_5BLOCKEPNS_3ROWE
gpcl6:_ZN9tesseract9Tesseract20TrySuperscriptSplitsEifNS_9ScriptPosEifS1_PNS_8WERD_RESEPbPiS5_
gpcl6:_ZN9tesseract9Tesseract20convert_bad_unlv_chsEPNS_8WERD_RESE
gpcl6:_ZN9tesseract9Tesseract20first_alphanum_indexEPKcS2_
gpcl6:_ZN9tesseract9Tesseract20fix_fuzzy_space_listERNS_13WERD_RES_LISTEPNS_3ROWEPNS_5BLOCKE
gpcl6:_ZN9tesseract9Tesseract20fix_noisy_space_listERNS_13WERD_RES_LISTEPNS_3ROWEPNS_5BLOCKE
gpcl6:_ZN9tesseract9Tesseract20fp_eval_word_spacingERNS_13WERD_RES_LISTE
gpcl6:_ZN9tesseract9Tesseract20recog_word_recursiveEPNS_8WERD_RESE
gpcl6:_ZN9tesseract9Tesseract20split_and_recog_wordEPNS_8WERD_RESE
gpcl6:_ZN9tesseract9Tesseract20terrible_word_crunchEPNS_8WERD_RESENS_13GARBAGE_LEVELE
gpcl6:_ZN9tesseract9Tesseract20tess_acceptable_wordEPNS_8WERD_RESE
gpcl6:_ZN9tesseract9Tesseract21SetupUniversalFontIdsEv
gpcl6:_ZN9tesseract9Tesseract21first_alphanum_offsetEPKcS2_
gpcl6:_ZN9tesseract9Tesseract21font_recognition_passEPNS_8PAGE_RESE
gpcl6:_ZN9tesseract9Tesseract21potential_word_crunchEPNS_8WERD_RESENS_13GARBAGE_LEVELEb
gpcl6:_ZN9tesseract9Tesseract21reject_mostly_rejectsEPNS_8WERD_RESE
gpcl6:_ZN9tesseract9Tesseract22acceptable_word_stringERKNS_10UNICHARSETEPKcS5_
gpcl6:_ZN9tesseract9Tesseract22bigram_correction_passEPNS_8PAGE_RESE
gpcl6:_ZN9tesseract9Tesseract22digit_or_numeric_punctEPNS_8WERD_RESEi
gpcl6:_ZN9tesseract9Tesseract22process_selected_wordsEPNS_8PAGE_RESERNS_4TBOXEMS0_FbPNS_11PAGE_RES_ITEE
gpcl6:_ZN9tesseract9Tesseract23ConvertStringToUnicharsEPKcPNS_13GenericVectorIiEE
gpcl6:_ZN9tesseract9Tesseract23ResetAdaptiveClassifierEv
gpcl6:_ZN9tesseract9Tesseract23ResetDocumentDictionaryEv
gpcl6:_ZN9tesseract9Tesseract23doc_and_block_rejectionERNS_11PAGE_RES_ITEb
gpcl6:_ZN9tesseract9Tesseract23init_tesseract_internalEPKcS2_S2_NS_13OcrEngineModeEPPciPKSt6vectorINSt7__cxx1112basic_stringIcSt11char_traitsIcESaIcEEESaISC_EESG_bPNS_15TessdataManagerE
gpcl6:_ZN9tesseract9Tesseract23quality_based_rejectionERNS_11PAGE_RES_ITEb
gpcl6:_ZN9tesseract9Tesseract23repeated_nonalphanum_wdEPNS_8WERD_RESEPNS_3ROWE
gpcl6:_ZN9tesseract9Tesseract24ClassifyBlobPlusOutlinesERKSt6vectorIbSaIbEERKNS_13GenericVectorIPNS_9C_OUTLINEEEEiPNS_11PAGE_RES_ITEPNS_6C_BLOBEPNS_6STRINGE
gpcl6:_ZN9tesseract9Tesseract24ComputeCompatibleXheightEPNS_8WERD_RESEPf
gpcl6:_ZN9tesseract9Tesseract24acceptable_number_stringEPKcS2_
gpcl6:_ZN9tesseract9Tesseract24break_noisiest_blob_wordERNS_13WERD_RES_LISTE
gpcl6:_ZN9tesseract9Tesseract24init_tesseract_lang_dataEPKcS2_S2_NS_13OcrEngineModeEPPciPKSt6vectorINSt7__cxx1112basic_stringIcSt11char_traitsIcESaIcEEESaISC_EESG_bPNS_15TessdataManagerE
gpcl6:_ZN9tesseract9Tesseract24recog_training_segmentedEPKcPNS_8PAGE_RESEPVNS_10ETEXT_DESCEP8_IO_FILE
gpcl6:_ZN9tesseract9Tesseract24unrej_good_quality_wordsERNS_11PAGE_RES_ITE
gpcl6:_ZN9tesseract9Tesseract25ReSegmentByClassificationEPNS_8PAGE_RESE
gpcl6:_ZN9tesseract9Tesseract25fixspace_thinks_word_doneEPNS_8WERD_RESE
gpcl6:_ZN9tesseract9Tesseract25word_contains_non_1_digitEPKcS2_
gpcl6:_ZN9tesseract9Tesseract26AssignDiacriticsToNewBlobsERKNS_13GenericVectorIPNS_9C_OUTLINEEEEiPNS_4WERDEPNS_11PAGE_RES_ITEPNS1_IbEEPNS1_IPNS_6C_BLOBEEE
gpcl6:_ZN9tesseract9Tesseract26ambigs_classify_and_outputEPKcPNS_11PAGE_RES_ITEP8_IO_FILE
gpcl6:_ZN9tesseract9Tesseract26classify_word_and_languageEiPNS_11PAGE_RES_ITEPNS_8WordDataE
gpcl6:_ZN9tesseract9Tesseract26dictionary_correction_passEPNS_8PAGE_RESE
gpcl6:_ZN9tesseract9Tesseract27SelectGoodDiacriticOutlinesEifPNS_11PAGE_RES_ITEPNS_6C_BLOBERKNS_13GenericVectorIPNS_9C_OUTLINEEEEiPSt6vectorIbSaIbEE
gpcl6:_ZN9tesseract9Tesseract30GetSubAndSuperscriptCandidatesEPKNS_8WERD_RESEPiPNS_9ScriptPosEPfS4_S6_S7_S7_S7_
gpcl6:_ZN9tesseract9Tesseract32SetupPageSegAndDetectOrientationENS_11PageSegModeEPNS_10BLOCK_LISTEPS0_PNS_9OSResultsEPNS_13TO_BLOCK_LISTEPP3PixSB_
gpcl6:_ZN9tesseract9Tesseract34AssignDiacriticsToOverlappingBlobsERKNS_13GenericVectorIPNS_9C_OUTLINEEEEiPNS_4WERDEPNS_11PAGE_RES_ITEPNS1_IbEESC_PNS1_IPNS_6C_BLOBEEE
gpcl6:_ZN9tesseract9Tesseract5ClearEv
gpcl6:_ZN9tesseract9Tesseract6TidyUpEPNS_8PAGE_RESE
gpcl6:_ZN9tesseract9Tesseract7flip_0OEPNS_8WERD_RESE
gpcl6:_ZN9tesseract9Tesseract7getDictEv
gpcl6:_ZN9tesseract9Tesseract8set_doneEPNS_8WERD_RESEs
gpcl6:_ZN9tesseract9TesseractC1Ev
gpcl6:_ZN9tesseract9TesseractC2Ev
gpcl6:_ZN9tesseract9TesseractD0Ev
gpcl6:_ZN9tesseract9TesseractD1Ev
gpcl6:_ZN9tesseract9TesseractD2Ev
gpcl6:_ZN9tesseract9WERD_LIST9deep_copyEPKS0_PFPNS_4WERDEPKS3_E
gpcl6:_ZN9tesseract9make_rowsENS_6ICOORDEPNS_13TO_BLOCK_LISTE
gpcl6:_ZN9tesseract9os_detectEPNS_13TO_BLOCK_LISTEPNS_9OSResultsEPNS_9TesseractE
gpcl6:_ZN9tesseract9push_lastEPNS_8list_recEPv
gpcl6:_ZN9tesseract9read_infoEPNS_5TFileEPNS_8FontInfoE
gpcl6:_ZN9tesseract9row_wordsEPNS_8TO_BLOCKEPNS_6TO_ROWEiNS_6FCOORDEb
gpcl6:_ZN9tesseract9write_setEP8_IO_FILERKNS_7FontSetE
gpcl6:_ZN9tesseractaNERNS_4TBOXERKS0_
gpcl6:_ZN9tesseractpLERNS_4TBOXERKS0_
gpcl6:_ZNK9tesseract10ColSegment8BoxColorEv
gpcl6:_ZNK9tesseract10DetLineFit23NumberOfMisfittedPointsEd
gpcl6:_ZNK9tesseract10DetLineFit33SufficientPointsForIndependentFitEv
gpcl6:_ZNK9tesseract10RecodeNode5PrintEiRKNS_10UNICHARSETEi
gpcl6:_ZNK9tesseract10ShapeTable10CommonFontEii
gpcl6:_ZNK9tesseract10ShapeTable10SummaryStrEv
gpcl6:_ZNK9tesseract10ShapeTable13AlreadyMergedEii
gpcl6:_ZNK9tesseract10ShapeTable13EqualUnicharsEii
gpcl6:_ZNK9tesseract10ShapeTable13SubsetUnicharEii
gpcl6:_ZNK9tesseract10ShapeTable14CommonUnicharsEii
gpcl6:_ZNK9tesseract10ShapeTable14MaxNumUnicharsEv
gpcl6:_ZNK9tesseract10ShapeTable15MasterFontCountEi
gpcl6:_ZNK9tesseract10ShapeTable15NumMasterShapesEv
gpcl6:_ZNK9tesseract10ShapeTable17AddShapeToResultsERKNS_11ShapeRatingEPNS_13GenericVectorIiEEPSt6vectorINS_13UnicharRatingESaIS8_EE
gpcl6:_ZNK9tesseract10ShapeTable18MasterUnicharCountEi
gpcl6:_ZNK9tesseract10ShapeTable18MergeEqualUnicharsEiii
gpcl6:_ZNK9tesseract10ShapeTable18MergeSubsetUnicharEiii
gpcl6:_ZNK9tesseract10ShapeTable18MergedUnicharCountEii
gpcl6:_ZNK9tesseract10ShapeTable19AddUnicharToResultsEifPNS_13GenericVectorIiEEPSt6vectorINS_13UnicharRatingESaIS5_EE
gpcl6:_ZNK9tesseract10ShapeTable19AnyMultipleUnicharsEv
gpcl6:_ZNK9tesseract10ShapeTable22GetFirstUnicharAndFontEiPiS1_
gpcl6:_ZNK9tesseract10ShapeTable22MasterDestinationIndexEi
gpcl6:_ZNK9tesseract10ShapeTable8DebugStrEi
gpcl6:_ZNK9tesseract10ShapeTable8NumFontsEv
gpcl6:_ZNK9tesseract10ShapeTable9FindShapeEii
gpcl6:_ZNK9tesseract10ShapeTable9SerializeEP8_IO_FILE
gpcl6:_ZNK9tesseract10UNICHARMAP13unichar_to_idEPKci
gpcl6:_ZNK9tesseract10UNICHARMAP8containsEPKci
gpcl6:_ZNK9tesseract10UNICHARMAP8minmatchEPKc
gpcl6:_ZNK9tesseract10UNICHARSET12get_chartypeEi
gpcl6:_ZNK9tesseract10UNICHARSET13SizesDistinctEii
gpcl6:_ZNK9tesseract10UNICHARSET13encode_stringEPKcbPSt6vectorIiSaIiEEPS3_IcSaIcEEPi
gpcl6:_ZNK9tesseract10UNICHARSET13encode_stringEPKciiPSt6vectorIiSaIiEEPS3_IcSaIcEEPiS6_S9_
gpcl6:_ZNK9tesseract10UNICHARSET13get_isprivateEi
gpcl6:_ZNK9tesseract10UNICHARSET13id_to_unicharEi
gpcl6:_ZNK9tesseract10UNICHARSET13unichar_to_idEPKc
gpcl6:_ZNK9tesseract10UNICHARSET13unichar_to_idEPKci
gpcl6:_ZNK9tesseract10UNICHARSET14get_propertiesEi
gpcl6:_ZNK9tesseract10UNICHARSET14save_to_stringEPNS_6STRINGE
gpcl6:_ZNK9tesseract10UNICHARSET16GetStrPropertiesEPKcPNS0_18UNICHAR_PROPERTIESE
gpcl6:_ZNK9tesseract10UNICHARSET16contains_unicharEPKc
gpcl6:_ZNK9tesseract10UNICHARSET16contains_unicharEPKci
gpcl6:_ZNK9tesseract10UNICHARSET16encodable_stringEPKcPi
gpcl6:_ZNK9tesseract10UNICHARSET17id_to_unichar_extEi
gpcl6:_ZNK9tesseract10UNICHARSET18UNICHAR_PROPERTIES13AnyRangeEmptyEv
gpcl6:_ZNK9tesseract10UNICHARSET19AnyRepeatedUnicodesEv
gpcl6:_ZNK9tesseract10UNICHARSET19major_right_to_leftEv
gpcl6:_ZNK9tesseract10UNICHARSET23get_script_id_from_nameEPKc
gpcl6:_ZNK9tesseract10UNICHARSET2eqEiPKc
gpcl6:_ZNK9tesseract10UNICHARSET4stepEPKc
gpcl6:_ZNK9tesseract10UNICHARSET9debug_strEi
gpcl6:_ZNK9tesseract11BLOB_CHOICE15PosAndSizeAgreeERKS0_fb
gpcl6:_ZNK9tesseract11BaselineRow12SpaceBetweenERKS0_
gpcl6:_ZNK9tesseract11BaselineRow12StraightYAtXEd
gpcl6:_ZNK9tesseract11BaselineRow13BaselineAngleEv
gpcl6:_ZNK9tesseract11BaselineRow22SetupOldLineParametersEPNS_6TO_ROWE
gpcl6:_ZNK9tesseract11BaselineRow24PerpDistanceFromBaselineERKNS_6FCOORDE
gpcl6:_ZNK9tesseract11BaselineRow5PrintEv
gpcl6:_ZNK9tesseract11BaselineRow8PerpDispERKNS_6FCOORDE
gpcl6:_ZNK9tesseract11PAGE_RES_IT3cmpERKS0_
gpcl6:_ZNK9tesseract11ParamsModel10EquivalentERKS0_
gpcl6:_ZNK9tesseract11ParamsModel10SaveToFileEPKc
gpcl6:_ZNK9tesseract11ParamsModel11ComputeCostEPKf
gpcl6:_ZNK9tesseract11StrokeWidth16NoNoiseInBetweenERKNS_4TBOXES3_
gpcl6:_ZNK9tesseract11TableFinder10gridheightEv
gpcl6:_ZNK9tesseract11TableFinder18AllowTextPartitionERKNS_12ColPartitionE
gpcl6:_ZNK9tesseract11TableFinder23HasWideOrNoInterWordGapEPNS_12ColPartitionE
gpcl6:_ZNK9tesseract11TableFinder5bleftEv
gpcl6:_ZNK9tesseract11TableFinder6trightEv
gpcl6:_ZNK9tesseract11TableFinder8gridsizeEv
gpcl6:_ZNK9tesseract11TableFinder9AllowBlobERKNS_8BLOBNBOXE
gpcl6:_ZNK9tesseract11TableFinder9gridwidthEv
gpcl6:_ZNK9tesseract11TessBaseAPI14GetIntVariableEPKcPi
gpcl6:_ZNK9tesseract11TessBaseAPI14GetPageSegModeEv
gpcl6:_ZNK9tesseract11TessBaseAPI14PrintVariablesEP8_IO_FILE
gpcl6:_ZNK9tesseract11TessBaseAPI15GetBoolVariableEPKcPb
gpcl6:_ZNK9tesseract11TessBaseAPI17GetDoubleVariableEPKcPd
gpcl6:_ZNK9tesseract11TessBaseAPI17GetStringVariableEPKc
gpcl6:_ZNK9tesseract11TessBaseAPI24GetInitLanguagesAsStringEv
gpcl6:_ZNK9tesseract11TessBaseAPI26GetLoadedLanguagesAsVectorEPSt6vectorINSt7__cxx1112basic_stringIcSt11char_traitsIcESaIcEEESaIS7_EE
gpcl6:_ZNK9tesseract11TessBaseAPI29GetAvailableLanguagesAsVectorEPSt6vectorINSt7__cxx1112basic_stringIcSt11char_traitsIcESaIcEEESaIS7_EE
gpcl6:_ZNK9tesseract11TessBaseAPI30GetThresholdedImageScaleFactorEv
gpcl6:_ZNK9tesseract11TessBaseAPI7GetDawgEi
gpcl6:_ZNK9tesseract11TessBaseAPI8NumDawgsEv
gpcl6:_ZNK9tesseract11WERD_CHOICE11MatrixCoordEi
gpcl6:_ZNK9tesseract11WERD_CHOICE11print_stateEPKc
gpcl6:_ZNK9tesseract11WERD_CHOICE12blob_choicesEiPNS_6MATRIXE
gpcl6:_ZNK9tesseract11WERD_CHOICE12shallow_copyEii
gpcl6:_ZNK9tesseract11WERD_CHOICE13TotalOfStatesEv
gpcl6:_ZNK9tesseract11WERD_CHOICE13permuter_nameEv
gpcl6:_ZNK9tesseract11WERD_CHOICE14GetTopScriptIDEv
gpcl6:_ZNK9tesseract11WERD_CHOICE14punct_strippedEPiS1_
gpcl6:_ZNK9tesseract11WERD_CHOICE18has_rtl_unichar_idEv
gpcl6:_ZNK9tesseract11WERD_CHOICE18string_and_lengthsEPNS_6STRINGES2_
gpcl6:_ZNK9tesseract11WERD_CHOICE19contains_unichar_idEi
gpcl6:_ZNK9tesseract11WERD_CHOICE21GetNonSuperscriptSpanEPiS1_
gpcl6:_ZNK9tesseract11WERD_CHOICE5printEPKc
gpcl6:_ZNK9tesseract11WordFeature9SerializeEP8_IO_FILE
gpcl6:_ZNK9tesseract12BlamerBundle11SplitBundleEiibPS0_S1_
gpcl6:_ZNK9tesseract12BlamerBundle15ChoiceIsCorrectEPKNS_11WERD_CHOICEE
gpcl6:_ZNK9tesseract12BlamerBundle15IncorrectReasonEv
gpcl6:_ZNK9tesseract12BlamerBundle21GuidedSegsearchNeededEPKNS_11WERD_CHOICEE
gpcl6:_ZNK9tesseract12BlamerBundle25GuidedSegsearchStillGoingEv
gpcl6:_ZNK9tesseract12ColPartition11ShallowCopyEv
gpcl6:_ZNK9tesseract12ColPartition12LeftBlobRuleEv
gpcl6:_ZNK9tesseract12ColPartition12SizesSimilarERKS0_
gpcl6:_ZNK9tesseract12ColPartition12SpacingEqualEii
gpcl6:_ZNK9tesseract12ColPartition13MatchingSizesERKS0_
gpcl6:_ZNK9tesseract12ColPartition13PartitionTypeENS_18ColumnSpanningTypeE
gpcl6:_ZNK9tesseract12ColPartition13RightBlobRuleEv
gpcl6:_ZNK9tesseract12ColPartition13SpacingsEqualERKS0_i
gpcl6:_ZNK9tesseract12ColPartition15MatchingColumnsERKS0_
gpcl6:_ZNK9tesseract12ColPartition15SummedSpacingOKERKS0_ii
gpcl6:_ZNK9tesseract12ColPartition16IsInSameColumnAsERKS0_
gpcl6:_ZNK9tesseract12ColPartition16OKDiacriticMergeERKS0_b
gpcl6:_ZNK9tesseract12ColPartition16TopSpacingMarginEi
gpcl6:_ZNK9tesseract12ColPartition17MatchingTextColorERKS0_
gpcl6:_ZNK9tesseract12ColPartition19BottomSpacingMarginEi
gpcl6:_ZNK9tesseract12ColPartition19MatchingStrokeWidthERKS0_dd
gpcl6:_ZNK9tesseract12ColPartition19SpecialBlobsDensityENS_19BlobSpecialTextTypeE
gpcl6:_ZNK9tesseract12ColPartition21ConfirmNoTabViolationERKS0_
gpcl6:_ZNK9tesseract12ColPartition5PrintEv
gpcl6:_ZNK9tesseract12IndexMapBiDi11MapFeaturesERKNS_13GenericVectorIiEEPS2_
gpcl6:_ZNK9tesseract12IndexMapBiDi9SerializeEP8_IO_FILE
gpcl6:_ZNK9tesseract12PageIterator11BoundingBoxENS_17PageIteratorLevelEPiS2_S2_S2_
gpcl6:_ZNK9tesseract12PageIterator11BoundingBoxENS_17PageIteratorLevelEiPiS2_S2_S2_
gpcl6:_ZNK9tesseract12PageIterator11OrientationEPNS_11OrientationEPNS_16WritingDirectionEPNS_13TextlineOrderEPf
gpcl6:_ZNK9tesseract12PageIterator12BlockPolygonEv
gpcl6:_ZNK9tesseract12PageIterator13ParagraphInfoEPNS_22ParagraphJustificationEPbS3_Pi
gpcl6:_ZNK9tesseract12PageIterator14GetBinaryImageENS_17PageIteratorLevelE
gpcl6:_ZNK9tesseract12PageIterator15IsAtBeginningOfENS_17PageIteratorLevelE
gpcl6:_ZNK9tesseract12PageIterator16IsAtFinalElementENS_17PageIteratorLevelES1_
gpcl6:_ZNK9tesseract12PageIterator19BoundingBoxInternalENS_17PageIteratorLevelEPiS2_S2_S2_
gpcl6:_ZNK9tesseract12PageIterator20PositionedAtSameWordEPKNS_11PAGE_RES_ITE
gpcl6:_ZNK9tesseract12PageIterator32IsWithinFirstTextlineOfParagraphEv
gpcl6:_ZNK9tesseract12PageIterator3CmpERKS0_
gpcl6:_ZNK9tesseract12PageIterator5EmptyENS_17PageIteratorLevelE
gpcl6:_ZNK9tesseract12PageIterator8BaselineENS_17PageIteratorLevelEPiS2_S2_S2_
gpcl6:_ZNK9tesseract12PageIterator8GetImageENS_17PageIteratorLevelEiP3PixPiS4_
gpcl6:_ZNK9tesseract12PageIterator9BlockTypeEv
gpcl6:_ZNK9tesseract12SquishedDawg10print_edgeEl
gpcl6:_ZNK9tesseract12SquishedDawg10print_nodeEli
gpcl6:_ZNK9tesseract12SquishedDawg12edge_char_ofElib
gpcl6:_ZNK9tesseract12SquishedDawg14build_node_mapEPi
gpcl6:_ZNK9tesseract12SquishedDawg17num_forward_edgesEl
gpcl6:_ZNK9tesseract12WeightMatrix15MatrixDotVectorEPKaPd
gpcl6:_ZNK9tesseract12WeightMatrix15MatrixDotVectorEPKdPd
gpcl6:_ZNK9tesseract12WeightMatrix15VectorDotMatrixEPKdPd
gpcl6:_ZNK9tesseract12WeightMatrix16CountAlternatorsERKS0_PdS3_
gpcl6:_ZNK9tesseract12WeightMatrix9SerializeEbPNS_5TFileE
gpcl6:_ZNK9tesseract13BaselineBlock20SetupBlockParametersEv
gpcl6:_ZNK9tesseract13DocumentCache12FindDocumentERKNS_6STRINGE
gpcl6:_ZNK9tesseract13FontInfoTable25SetContainsFontPropertiesEiRKSt6vectorINS_10ScoredFontESaIS2_EE
gpcl6:_ZNK9tesseract13FontInfoTable33SetContainsMultipleFontPropertiesERKSt6vectorINS_10ScoredFontESaIS2_EE
gpcl6:_ZNK9tesseract13FontInfoTable9SerializeEP8_IO_FILE
gpcl6:_ZNK9tesseract13IntSimdMatrix4InitERKNS_16GENERIC_2D_ARRAYIaEERSt6vectorIaSaIaEERi
gpcl6:_ZNK9tesseract13LanguageModel16GetNextParentVSEEbbPKNS_11BLOB_CHOICEEhRKNS_10UNICHARSETEPNS_8WERD_RESEPNS_20ViterbiStateEntry_ITEPh
gpcl6:_ZNK9tesseract13LanguageModel21GetTopLowerUpperDigitEPNS_16BLOB_CHOICE_LISTEPPNS_11BLOB_CHOICEES5_S5_
gpcl6:_ZNK9tesseract13LanguageModel27SetTopParentLowerUpperDigitEPNS_18LanguageModelStateE
gpcl6:_ZNK9tesseract14ChoiceIterator10ConfidenceEv
gpcl6:_ZNK9tesseract14ChoiceIterator11GetUTF8TextEv
gpcl6:_ZNK9tesseract14ChoiceIterator9TimestepsEv
gpcl6:_ZNK9tesseract14EquationDetect13PaintColPartsERKNS_6STRINGE
gpcl6:_ZNK9tesseract14EquationDetect14CountAlignmentERKNS_13GenericVectorIiEEi
gpcl6:_ZNK9tesseract14EquationDetect16CheckSeedDensityEffPKNS_12ColPartitionE
gpcl6:_ZNK9tesseract14EquationDetect17GetOutputTiffNameEPKcPNS_6STRINGE
gpcl6:_ZNK9tesseract14EquationDetect17PaintSpecialTextsERKNS_6STRINGE
gpcl6:_ZNK9tesseract14EquationDetect18IsNearMathNeighborEiPKNS_12ColPartitionE
gpcl6:_ZNK9tesseract14EquationDetect19IsNearSmallNeighborERKNS_4TBOXES3_
gpcl6:_ZNK9tesseract14EquationDetect22EstimateTypeForUnicharERKNS_10UNICHARSETEi
gpcl6:_ZNK9tesseract14EquationDetect24CheckSeedNeighborDensityEPKNS_12ColPartitionE
gpcl6:_ZNK9tesseract14EquationDetect24PrintSpecialBlobsDensityEPKNS_12ColPartitionE
gpcl6:_ZNK9tesseract14FullyConnected11OutputShapeERKNS_11StaticShapeE
gpcl6:_ZNK9tesseract14FullyConnected16CountAlternatorsERKNS_7NetworkEPdS4_
gpcl6:_ZNK9tesseract14FullyConnected9SerializeEPNS_5TFileE
gpcl6:_ZNK9tesseract14LSTMRecognizer9SerializeEPKNS_15TessdataManagerEPNS_5TFileE
gpcl6:_ZNK9tesseract14ParagraphModel10ComparableERKS0_
gpcl6:_ZNK9tesseract14ParagraphModel13ValidBodyLineEiiii
gpcl6:_ZNK9tesseract14ParagraphModel14ValidFirstLineEiiii
gpcl6:_ZNK9tesseract14ParagraphModel8ToStringEv
gpcl6:_ZNK9tesseract14PixelHistogram19GetHistogramMaximumEPi
gpcl6:_ZNK9tesseract14ResultIterator11GetUTF8TextENS_17PageIteratorLevelE
gpcl6:_ZNK9tesseract14ResultIterator12LTRWordIndexEv
gpcl6:_ZNK9tesseract14ResultIterator14ParagraphIsLtrEv
gpcl6:_ZNK9tesseract14ResultIterator15IsAtBeginningOfENS_17PageIteratorLevelE
gpcl6:_ZNK9tesseract14ResultIterator16BlanksBeforeWordEv
gpcl6:_ZNK9tesseract14ResultIterator16IsAtFinalElementENS_17PageIteratorLevelES1_
gpcl6:_ZNK9tesseract14ResultIterator17AppendSuffixMarksEPNSt7__cxx1112basic_stringIcSt11char_traitsIcESaIcEEE
gpcl6:_ZNK9tesseract14ResultIterator18AppendUTF8WordTextEPNSt7__cxx1112basic_stringIcSt11char_traitsIcESaIcEEE
gpcl6:_ZNK9tesseract14ResultIterator18CalculateBlobOrderEPSt6vectorIiSaIiEE
gpcl6:_ZNK9tesseract14ResultIterator19GetRawLSTMTimestepsEv
gpcl6:_ZNK9tesseract14ResultIterator21CurrentParagraphIsLtrEv
gpcl6:_ZNK9tesseract14ResultIterator21IsAtFinalSymbolOfWordEv
gpcl6:_ZNK9tesseract14ResultIterator21IsAtFirstSymbolOfWordEv
gpcl6:_ZNK9tesseract14ResultIterator22CalculateTextlineOrderEbRKNS_17LTRResultIteratorEPSt6vectorINS_21StrongScriptDirectionESaIS5_EEPS4_IiSaIiEE
gpcl6:_ZNK9tesseract14ResultIterator22CalculateTextlineOrderEbRKNS_17LTRResultIteratorEPSt6vectorIiSaIiEE
gpcl6:_ZNK9tesseract14ResultIterator23AppendUTF8ParagraphTextEPNSt7__cxx1112basic_stringIcSt11char_traitsIcESaIcEEE
gpcl6:_ZNK9tesseract14ResultIterator24GetBestLSTMSymbolChoicesEv
gpcl6:_ZNK9tesseract14ResultIterator9BidiDebugEi
gpcl6:_ZNK9tesseract14TessClassifier13GetShapeTableEv
gpcl6:_ZNK9tesseract14TessClassifier13GetUnicharsetEv
gpcl6:_ZNK9tesseract14TrainingSample11RenderToPixEPKNS_10UNICHARSETE
gpcl6:_ZNK9tesseract14TrainingSample12GetCNFeatureEv
gpcl6:_ZNK9tesseract14TrainingSample12GetSamplePixEiP3Pix
gpcl6:_ZNK9tesseract14TrainingSample14RandomizedCopyEi
gpcl6:_ZNK9tesseract14TrainingSample4CopyEv
gpcl6:_ZNK9tesseract14TrainingSample9SerializeEP8_IO_FILE
gpcl6:_ZNK9tesseract15ColPartitionSet15GoodColumnCountEv
gpcl6:_ZNK9tesseract15IntFeatureSpace13IndexFeaturesEPKNS_18INT_FEATURE_STRUCTEiPNS_13GenericVectorIiEE
gpcl6:_ZNK9tesseract15IntFeatureSpace16XYToFeatureIndexEii
gpcl6:_ZNK9tesseract15IntFeatureSpace17PositionFromIndexEi
gpcl6:_ZNK9tesseract15IntFeatureSpace19PositionFromBucketsEiii
gpcl6:_ZNK9tesseract15IntFeatureSpace20IndexAndSortFeaturesEPKNS_18INT_FEATURE_STRUCTEiPNS_13GenericVectorIiEE
gpcl6:_ZNK9tesseract15IntFeatureSpace9SerializeEP8_IO_FILE
gpcl6:_ZNK9tesseract15ParagraphTheory4FitsEPKNS_13GenericVectorINS_19RowScratchRegistersEEEii
gpcl6:_ZNK9tesseract15ParagraphTheory7IndexOfEPKNS_14ParagraphModelE
gpcl6:_ZNK9tesseract15ShapeClassifier12PrintResultsEPKcRKSt6vectorINS_11ShapeRatingESaIS4_EE
gpcl6:_ZNK9tesseract15ShapeClassifier13GetUnicharsetEv
gpcl6:_ZNK9tesseract15ShapeClassifier19UnicharPrintResultsEPKcRKSt6vectorINS_13UnicharRatingESaIS4_EE
gpcl6:_ZNK9tesseract15ShapeClassifier23FilterDuplicateUnicharsEPSt6vectorINS_11ShapeRatingESaIS2_EE
gpcl6:_ZNK9tesseract15StructuredTable10cell_countEv
gpcl6:_ZNK9tesseract15StructuredTable10row_heightEi
gpcl6:_ZNK9tesseract15StructuredTable11space_aboveEv
gpcl6:_ZNK9tesseract15StructuredTable11space_belowEv
gpcl6:_ZNK9tesseract15StructuredTable12bounding_boxEv
gpcl6:_ZNK9tesseract15StructuredTable12column_countEv
gpcl6:_ZNK9tesseract15StructuredTable12column_widthEi
gpcl6:_ZNK9tesseract15StructuredTable16DoesPartitionFitERKNS_12ColPartitionE
gpcl6:_ZNK9tesseract15StructuredTable18FindVerticalMarginEPNS_16ColPartitionGridEib
gpcl6:_ZNK9tesseract15StructuredTable20FindHorizontalMarginEPNS_16ColPartitionGridEib
gpcl6:_ZNK9tesseract15StructuredTable8is_linedEv
gpcl6:_ZNK9tesseract15StructuredTable9row_countEv
gpcl6:_ZNK9tesseract15TessdataManager12GetComponentENS_12TessdataTypeEPNS_5TFileE
gpcl6:_ZNK9tesseract15TessdataManager13VersionStringB5cxx11Ev
gpcl6:_ZNK9tesseract15TessdataManager8SaveFileEPKcPFbRKSt6vectorIcSaIcEES2_E
gpcl6:_ZNK9tesseract15TessdataManager9DirectoryEv
gpcl6:_ZNK9tesseract15TessdataManager9SerializeEPSt6vectorIcSaIcEE
gpcl6:_ZNK9tesseract15UnicharAndFonts9SerializeEP8_IO_FILE
gpcl6:_ZNK9tesseract15UnicharCompress13DecodeUnicharERKNS_13RecodedCharIDE
gpcl6:_ZNK9tesseract15UnicharCompress13EncodeUnicharEiPNS_13RecodedCharIDE
gpcl6:_ZNK9tesseract15UnicharCompress19GetEncodingAsStringERKNS_10UNICHARSETE
gpcl6:_ZNK9tesseract15UnicharCompress9SerializeEPNS_5TFileE
gpcl6:_ZNK9tesseract16ImageThresholder18ThresholdRectToPixEP3PixiPKiS4_PS2_
gpcl6:_ZNK9tesseract16ImageThresholder22OtsuThresholdRectToPixEP3PixPS2_
gpcl6:_ZNK9tesseract16ImageThresholder7IsEmptyEv
gpcl6:_ZNK9tesseract16RecodeBeamSearch10DebugBeamsERKNS_10UNICHARSETE
gpcl6:_ZNK9tesseract16RecodeBeamSearch10PrintBeam2EbiPKNS_10UNICHARSETEb
gpcl6:_ZNK9tesseract16RecodeBeamSearch11ExtractPathEPKNS_10RecodeNodeEPNS_13GenericVectorIS3_EE
gpcl6:_ZNK9tesseract16RecodeBeamSearch11ExtractPathEPKNS_10RecodeNodeEPNS_13GenericVectorIS3_EEi
gpcl6:_ZNK9tesseract16RecodeBeamSearch12DebugBeamPosERKNS_10UNICHARSETERKNS_11GenericHeapINS_9KDPairIncIdNS_10RecodeNodeEEEEE
gpcl6:_ZNK9tesseract16RecodeBeamSearch15ComputeCodeHashEibPKNS_10RecodeNodeE
gpcl6:_ZNK9tesseract16RecodeBeamSearch16DebugUnicharPathEPKNS_10UNICHARSETERKNS_13GenericVectorIPKNS_10RecodeNodeEEERKSt6vectorIiSaIiEERKSB_IfSaIfEESJ_SF_
gpcl6:_ZNK9tesseract16RecodeBeamSearch16ExtractBestPathsEPNS_13GenericVectorIPKNS_10RecodeNodeEEES6_
gpcl6:_ZNK9tesseract16RecodeBeamSearch23ExtractBestPathAsLabelsEPSt6vectorIiSaIiEES4_
gpcl6:_ZNK9tesseract16RecodeBeamSearch27ExtractBestPathAsUnicharIdsEbPKNS_10UNICHARSETEPSt6vectorIiSaIiEEPS4_IfSaIfEESA_S7_
gpcl6:_ZNK9tesseract16RecodeBeamSearch9DebugPathEPKNS_10UNICHARSETERKNS_13GenericVectorIPKNS_10RecodeNodeEEE
gpcl6:_ZNK9tesseract17LTRResultIterator10ConfidenceENS_17PageIteratorLevelE
gpcl6:_ZNK9tesseract17LTRResultIterator11GetUTF8TextENS_17PageIteratorLevelE
gpcl6:_ZNK9tesseract17LTRResultIterator11WordLatticeEPi
gpcl6:_ZNK9tesseract17LTRResultIterator13HasBlamerInfoEv
gpcl6:_ZNK9tesseract17LTRResultIterator13RowAttributesEPfS1_S1_
gpcl6:_ZNK9tesseract17LTRResultIterator13WordDirectionEv
gpcl6:_ZNK9tesseract17LTRResultIterator13WordIsNumericEv
gpcl6:_ZNK9tesseract17LTRResultIterator14GetBlamerDebugEv
gpcl6:_ZNK9tesseract17LTRResultIterator14HasTruthStringEv
gpcl6:_ZNK9tesseract17LTRResultIterator15SymbolIsDropcapEv
gpcl6:_ZNK9tesseract17LTRResultIterator16BlanksBeforeWordEv
gpcl6:_ZNK9tesseract17LTRResultIterator17EquivalentToTruthEPKc
gpcl6:_ZNK9tesseract17LTRResultIterator17SymbolIsSubscriptEv
gpcl6:_ZNK9tesseract17LTRResultIterator17WordTruthUTF8TextEv
gpcl6:_ZNK9tesseract17LTRResultIterator18WordFontAttributesEPbS1_S1_S1_S1_S1_PiS2_
gpcl6:_ZNK9tesseract17LTRResultIterator18WordNormedUTF8TextEv
gpcl6:_ZNK9tesseract17LTRResultIterator19SymbolIsSuperscriptEv
gpcl6:_ZNK9tesseract17LTRResultIterator20WordIsFromDictionaryEv
gpcl6:_ZNK9tesseract17LTRResultIterator23GetParamsTrainingBundleEv
gpcl6:_ZNK9tesseract17LTRResultIterator23WordRecognitionLanguageEv
gpcl6:_ZNK9tesseract17LTRResultIterator25GetBlamerMisadaptionDebugEv
gpcl6:_ZNK9tesseract17ViterbiStateEntry5PrintEPKc
gpcl6:_ZNK9tesseract18ShiroRekhaSplitter13GetBoxForTBOXERKNS_4TBOXE
gpcl6:_ZNK9tesseract18TextlineProjection11EvaluateBoxERKNS_4TBOXEPKNS_6DENORMEb
gpcl6:_ZNK9tesseract18TextlineProjection16VerticalDistanceEbiii
gpcl6:_ZNK9tesseract18TextlineProjection17BoxOutOfHTextlineERKNS_4TBOXEPKNS_6DENORMEb
gpcl6:_ZNK9tesseract18TextlineProjection18HorizontalDistanceEbiii
gpcl6:_ZNK9tesseract18TextlineProjection19EvaluateBoxInternalERKNS_4TBOXEPKNS_6DENORMEbPiS7_S7_S7_
gpcl6:_ZNK9tesseract18TextlineProjection19ImageXToProjectionXEi
gpcl6:_ZNK9tesseract18TextlineProjection19ImageYToProjectionYEi
gpcl6:_ZNK9tesseract18TextlineProjection20DistanceOfBoxFromBoxERKNS_4TBOXES3_bPKNS_6DENORMEb
gpcl6:_ZNK9tesseract18TextlineProjection20EvaluateColPartitionERKNS_12ColPartitionEPKNS_6DENORMEb
gpcl6:_ZNK9tesseract18TextlineProjection20MoveNonTextlineBlobsEPNS_13BLOBNBOX_LISTES2_
gpcl6:_ZNK9tesseract18TextlineProjection20TransformToPixCoordsEPKNS_6DENORMEPNS_6TPOINTE
gpcl6:_ZNK9tesseract18TextlineProjection21BestMeanGradientInRowEPKNS_6DENORMEsssb
gpcl6:_ZNK9tesseract18TextlineProjection21TruncateToImageBoundsEPNS_6TPOINTE
gpcl6:_ZNK9tesseract18TextlineProjection23MeanPixelsInLineSegmentEPKNS_6DENORMEiNS_6TPOINTES4_
gpcl6:_ZNK9tesseract18TextlineProjection24BestMeanGradientInColumnEPKNS_6DENORMEsssb
gpcl6:_ZNK9tesseract18TextlineProjection26DistanceOfBoxFromPartitionERKNS_4TBOXERKNS_12ColPartitionEPKNS_6DENORMEb
gpcl6:_ZNK9tesseract19RowScratchRegisters11GetLineTypeEPKNS_14ParagraphModelE
gpcl6:_ZNK9tesseract19RowScratchRegisters11GetLineTypeEv
gpcl6:_ZNK9tesseract19RowScratchRegisters15AppendDebugInfoERKNS_15ParagraphTheoryEPSt6vectorINS_6STRINGESaIS5_EE
gpcl6:_ZNK9tesseract19RowScratchRegisters15StartHypothesesEPNS_13GenericVectorIPKNS_14ParagraphModelEEE
gpcl6:_ZNK9tesseract19RowScratchRegisters16StrongHypothesesEPNS_13GenericVectorIPKNS_14ParagraphModelEEE
gpcl6:_ZNK9tesseract19RowScratchRegisters17NonNullHypothesesEPNS_13GenericVectorIPKNS_14ParagraphModelEEE
gpcl6:_ZNK9tesseract19RowScratchRegisters20UniqueBodyHypothesisEv
gpcl6:_ZNK9tesseract19RowScratchRegisters21UniqueStartHypothesisEv
gpcl6:_ZNK9tesseract3ROW23restricted_bounding_boxEbb
gpcl6:_ZNK9tesseract4Dawg11match_wordsEPNS_11WERD_CHOICEEili
gpcl6:_ZNK9tesseract4Dawg12word_in_dawgERKNS_11WERD_CHOICEE
gpcl6:_ZNK9tesseract4Dawg13iterate_wordsERKNS_10UNICHARSETESt8functionIFvPKNS_11WERD_CHOICEEEE
gpcl6:_ZNK9tesseract4Dawg13iterate_wordsERKNS_10UNICHARSETESt8functionIFvPKcEE
gpcl6:_ZNK9tesseract4Dawg14prefix_in_dawgERKNS_11WERD_CHOICEEb
gpcl6:_ZNK9tesseract4Dawg15check_for_wordsEPKcRKNS_10UNICHARSETEb
gpcl6:_ZNK9tesseract4Dawg17iterate_words_recERKNS_11WERD_CHOICEElSt8functionIFvPS2_EE
gpcl6:_ZNK9tesseract4Dict10valid_wordERKNS_11WERD_CHOICEEb
gpcl6:_ZNK9tesseract4Dict12valid_bigramERKNS_11WERD_CHOICEES3_
gpcl6:_ZNK9tesseract4Dict13default_dawgsEPNS_18DawgPositionVectorEb
gpcl6:_ZNK9tesseract4Dict16AcceptableResultEPNS_8WERD_RESE
gpcl6:_ZNK9tesseract4Dict17init_active_dawgsEPNS_18DawgPositionVectorEb
gpcl6:_ZNK9tesseract4Dict18def_letter_is_okayEPvRKNS_10UNICHARSETEib
gpcl6:_ZNK9tesseract4Dict19ProcessPatternEdgesEPKNS_4DawgERKNS_12DawgPositionEibPNS_8DawgArgsEPNS_12PermuterTypeE
gpcl6:_ZNK9tesseract4Dict20IsSpaceDelimitedLangEv
gpcl6:_ZNK9tesseract4Dict24LengthOfShortestAlphaRunERKNS_11WERD_CHOICEE
gpcl6:_ZNK9tesseract4Dict7case_okERKNS_11WERD_CHOICEE
gpcl6:_ZNK9tesseract4LLSQ10mean_pointEv
gpcl6:_ZNK9tesseract4LLSQ10vector_fitEv
gpcl6:_ZNK9tesseract4LLSQ1cEd
gpcl6:_ZNK9tesseract4LLSQ1mEv
gpcl6:_ZNK9tesseract4LLSQ3rmsEdd
gpcl6:_ZNK9tesseract4LLSQ7pearsonEv
gpcl6:_ZNK9tesseract4LLSQ8rms_orthERKNS_6FCOORDE
gpcl6:_ZNK9tesseract4LSTM11OutputShapeERKNS_11StaticShapeE
gpcl6:_ZNK9tesseract4LSTM16CountAlternatorsERKNS_7NetworkEPdS4_
gpcl6:_ZNK9tesseract4LSTM9SerializeEPNS_5TFileE
gpcl6:_ZNK9tesseract4SEAM12FullPriorityEiididd
gpcl6:_ZNK9tesseract4SEAM12bounding_boxEv
gpcl6:_ZNK9tesseract4SEAM4HideEv
gpcl6:_ZNK9tesseract4SEAM5PrintEPKc
gpcl6:_ZNK9tesseract4SEAM6RevealEv
gpcl6:_ZNK9tesseract4SEAM8UndoSeamEPNS_5TBLOBES2_
gpcl6:_ZNK9tesseract4SEAM9ApplySeamEbPNS_5TBLOBES2_
gpcl6:_ZNK9tesseract4SEAM9IsHealthyERKNS_5TBLOBEii
gpcl6:_ZNK9tesseract4TBOX12almost_equalERKS0_i
gpcl6:_ZNK9tesseract4TBOX12intersectionERKS0_
gpcl6:_ZNK9tesseract4TBOX12print_to_strEPNS_6STRINGE
gpcl6:_ZNK9tesseract4TBOX14bounding_unionERKS0_
gpcl6:_ZNK9tesseract4TBOX14x_almost_equalERKS0_i
gpcl6:_ZNK9tesseract4TBOX9SerializeEP8_IO_FILE
gpcl6:_ZNK9tesseract4Trie10print_nodeEli
gpcl6:_ZNK9tesseract4Trie12edge_char_ofEllibiPPmPl
gpcl6:_ZNK9tesseract4Trie22unichar_id_to_patternsEiRKNS_10UNICHARSETEPNS_13GenericVectorIiEE
gpcl6:_ZNK9tesseract4WERD12bounding_boxEv
gpcl6:_ZNK9tesseract4WERD17true_bounding_boxEv
gpcl6:_ZNK9tesseract4WERD23restricted_bounding_boxEbb
gpcl6:_ZNK9tesseract5BLOCK23restricted_bounding_boxEbb
gpcl6:_ZNK9tesseract5CLIST6lengthEv
gpcl6:_ZNK9tesseract5ELIST6lengthEv
gpcl6:_ZNK9tesseract5Input12XScaleFactorEv
gpcl6:_ZNK9tesseract5Input9SerializeEPNS_5TFileE
gpcl6:_ZNK9tesseract5SPLIT12FullPriorityEiididd
gpcl6:_ZNK9tesseract5SPLIT12SplitOutlineEv
gpcl6:_ZNK9tesseract5SPLIT13IsLittleChunkEii
gpcl6:_ZNK9tesseract5SPLIT15UnsplitOutlinesEv
gpcl6:_ZNK9tesseract5SPLIT16SplitOutlineListEPNS_8TESSLINEE
gpcl6:_ZNK9tesseract5SPLIT18UnsplitOutlineListEPNS_5TBLOBE
gpcl6:_ZNK9tesseract5SPLIT4HideEv
gpcl6:_ZNK9tesseract5SPLIT5PrintEv
gpcl6:_ZNK9tesseract5SPLIT6RevealEv
gpcl6:_ZNK9tesseract5SPLIT9IsHealthyERKNS_5TBLOBEii
gpcl6:_ZNK9tesseract5STATS10max_bucketEv
gpcl6:_ZNK9tesseract5STATS10min_bucketEv
gpcl6:_ZNK9tesseract5STATS11top_n_modesEiPNS_13GenericVectorINS_9KDPairIncIfiEEEE
gpcl6:_ZNK9tesseract5STATS13print_summaryEv
gpcl6:_ZNK9tesseract5STATS2sdEv
gpcl6:_ZNK9tesseract5STATS3ileEd
gpcl6:_ZNK9tesseract5STATS4meanEv
gpcl6:_ZNK9tesseract5STATS4modeEv
gpcl6:_ZNK9tesseract5STATS5printEv
gpcl6:_ZNK9tesseract5STATS6medianEv
gpcl6:_ZNK9tesseract5STATS9local_minEi
gpcl6:_ZNK9tesseract5Shape10IsSubsetOfERKS0_
gpcl6:_ZNK9tesseract5Shape12ContainsFontEi
gpcl6:_ZNK9tesseract5Shape15ContainsUnicharEi
gpcl6:_ZNK9tesseract5Shape22ContainsFontPropertiesERKNS_13FontInfoTableEj
gpcl6:_ZNK9tesseract5Shape22ContainsUnicharAndFontEii
gpcl6:_ZNK9tesseract5Shape30ContainsMultipleFontPropertiesERKNS_13FontInfoTableE
gpcl6:_ZNK9tesseract5Shape9SerializeEP8_IO_FILE
gpcl6:_ZNK9tesseract5ShapeeqERKS0_
gpcl6:_ZNK9tesseract5TBLOB11NumOutlinesEv
gpcl6:_ZNK9tesseract5TBLOB12CollectEdgesERKNS_4TBOXEPS1_PNS_4LLSQEPNS_13GenericVectorINS7_IiEEEESA_
gpcl6:_ZNK9tesseract5TBLOB12bounding_boxEv
gpcl6:_ZNK9tesseract5TBLOB13GetEdgeCoordsERKNS_4TBOXEPNS_13GenericVectorINS4_IiEEEES7_
gpcl6:_ZNK9tesseract5TBLOB14ComputeMomentsEPNS_6FCOORDES2_
gpcl6:_ZNK9tesseract5TBLOB21GetPreciseBoundingBoxEPNS_4TBOXE
gpcl6:_ZNK9tesseract5TBLOB25ClassifyNormalizeIfNeededEv
gpcl6:_ZNK9tesseract5TWERD12bounding_boxEv
gpcl6:_ZNK9tesseract6C_BLOB12bounding_boxEv
gpcl6:_ZNK9tesseract6DENORM12XHeightRangeEiRKNS_10UNICHARSETERKNS_4TBOXEPfS7_S7_
gpcl6:_ZNK9tesseract6DENORM13LocalNormBlobEPNS_5TBLOBE
gpcl6:_ZNK9tesseract6DENORM13NormTransformEPKS0_RKNS_6FCOORDEPS3_
gpcl6:_ZNK9tesseract6DENORM13NormTransformEPKS0_RKNS_6TPOINTEPS3_
gpcl6:_ZNK9tesseract6DENORM15DenormTransformEPKS0_RKNS_6FCOORDEPS3_
gpcl6:_ZNK9tesseract6DENORM15DenormTransformEPKS0_RKNS_6TPOINTEPS3_
gpcl6:_ZNK9tesseract6DENORM18LocalNormTransformERKNS_6FCOORDEPS1_
gpcl6:_ZNK9tesseract6DENORM18LocalNormTransformERKNS_6TPOINTEPS1_
gpcl6:_ZNK9tesseract6DENORM20LocalDenormTransformERKNS_6FCOORDEPS1_
gpcl6:_ZNK9tesseract6DENORM20LocalDenormTransformERKNS_6TPOINTEPS1_
gpcl6:_ZNK9tesseract6DENORM5PrintEv
gpcl6:_ZNK9tesseract6ELIST26lengthEv
gpcl6:_ZNK9tesseract6FCOORD12to_directionEv
gpcl6:_ZNK9tesseract6FCOORD18nearest_pt_on_lineERKS0_S2_
gpcl6:_ZNK9tesseract6ICOORD12setup_renderEPS0_S1_PiS2_
gpcl6:_ZNK9tesseract6ICOORD9SerializeEP8_IO_FILE
gpcl6:_ZNK9tesseract6MATRIX10ClassifiedEiii
gpcl6:_ZNK9tesseract6MATRIX5printERKNS_10UNICHARSETE
gpcl6:_ZNK9tesseract6MATRIX8DeepCopyEv
gpcl6:_ZNK9tesseract6STRING8containsEc
gpcl6:_ZNK9tesseract6STRING9SerializeEP8_IO_FILE
gpcl6:_ZNK9tesseract6STRING9SerializeEPNS_5TFileE
gpcl6:_ZNK9tesseract6Series11OutputShapeERKNS_11StaticShapeE
gpcl6:_ZNK9tesseract6Series12XScaleFactorEv
gpcl6:_ZNK9tesseract6TO_ROW5printEv
gpcl6:_ZNK9tesseract7BoxWord19ProcessMatchedBlobsERKNS_5TWERDESt8functionIFviEE
gpcl6:_ZNK9tesseract7ERRCODE5errorEPKcNS_16TessErrorLogCodeES2_z
gpcl6:_ZNK9tesseract7IntGrid13AnyZeroInRectERKNS_4TBOXE
gpcl6:_ZNK9tesseract7IntGrid14ThresholdToPixEi
gpcl6:_ZNK9tesseract7IntGrid16NeighbourhoodSumEv
gpcl6:_ZNK9tesseract7IntGrid23RectMostlyOverThresholdERKNS_4TBOXEi
gpcl6:_ZNK9tesseract7Network9SerializeEPNS_5TFileE
gpcl6:_ZNK9tesseract7QSPLINE12spline_indexEd
gpcl6:_ZNK9tesseract7QSPLINE1yEd
gpcl6:_ZNK9tesseract7QSPLINE4plotEP3Pix
gpcl6:_ZNK9tesseract7UNICHAR14const_iterator8get_utf8EPc
gpcl6:_ZNK9tesseract7UNICHAR14const_iterator8is_legalEv
gpcl6:_ZNK9tesseract7UNICHAR14const_iterator8utf8_lenEv
gpcl6:_ZNK9tesseract7UNICHAR14const_iteratordeEv
gpcl6:_ZNK9tesseract7UNICHAR8utf8_strEv
gpcl6:_ZNK9tesseract7UNICHAR9first_uniEv
gpcl6:_ZNK9tesseract8BLOBNBOX12GoodTextBlobEv
gpcl6:_ZNK9tesseract8BLOBNBOX13NeighbourGapsEPi
gpcl6:_ZNK9tesseract8BLOBNBOX15NoisyNeighboursEv
gpcl6:_ZNK9tesseract8BLOBNBOX17MinMaxGapsClippedEPiS1_S1_S1_
gpcl6:_ZNK9tesseract8BLOBNBOX19MatchingStrokeWidthERKS0_dd
gpcl6:_ZNK9tesseract8BLOBNBOX21ConfirmNoTabViolationERKS0_
gpcl6:_ZNK9tesseract8Classify16ShapeIDToClassIDEi
gpcl6:_ZNK9tesseract8Classify17ClassIDToDebugStrEPKNS_20INT_TEMPLATES_STRUCTEii
gpcl6:_ZNK9tesseract8Classify31ClassAndConfigIDToFontOrShapeIDEii
gpcl6:_ZNK9tesseract8Convolve9SerializeEPNS_5TFileE
gpcl6:_ZNK9tesseract8FontInfo9SerializeEP8_IO_FILE
gpcl6:_ZNK9tesseract8GridBase10GridCoordsEiiPiS1_
gpcl6:_ZNK9tesseract8GridBase14ClipGridCoordsEPiS1_
gpcl6:_ZNK9tesseract8IndexMap15SparseToCompactEi
gpcl6:_ZNK9tesseract8IndexMap9SerializeEP8_IO_FILE
gpcl6:_ZNK9tesseract8Parallel11OutputShapeERKNS_11StaticShapeE
gpcl6:_ZNK9tesseract8Plumbing12XScaleFactorEv
gpcl6:_ZNK9tesseract8Plumbing15EnumerateLayersEPKNS_6STRINGEPSt6vectorIS1_SaIS1_EE
gpcl6:_ZNK9tesseract8Plumbing16CountAlternatorsERKNS_7NetworkEPdS4_
gpcl6:_ZNK9tesseract8Plumbing8GetLayerEPKc
gpcl6:_ZNK9tesseract8Plumbing9SerializeEPNS_5TFileE
gpcl6:_ZNK9tesseract8Reconfig11OutputShapeERKNS_11StaticShapeE
gpcl6:_ZNK9tesseract8Reconfig12XScaleFactorEv
gpcl6:_ZNK9tesseract8Reconfig9SerializeEPNS_5TFileE
gpcl6:_ZNK9tesseract8Reversed11OutputShapeERKNS_11StaticShapeE
gpcl6:_ZNK9tesseract8Reversed11ReverseDataERKNS_9NetworkIOEPS1_
gpcl6:_ZNK9tesseract8TESSLINE12bounding_boxEv
gpcl6:_ZNK9tesseract8TESSLINE15FindBestStartPtEv
gpcl6:_ZNK9tesseract8TESSLINE18MinMaxCrossProductENS_6TPOINTEPiS2_
gpcl6:_ZNK9tesseract8WERD_RES13GetBlobChoiceEi
gpcl6:_ZNK9tesseract8WERD_RES14DebugTopChoiceEPKc
gpcl6:_ZNK9tesseract8WERD_RES14GetBlobChoicesEi
gpcl6:_ZNK9tesseract8WERD_RES16PiecesAllNaturalEii
gpcl6:_ZNK9tesseract8WERD_RES16PrintBestChoicesEv
gpcl6:_ZNK9tesseract8WERD_RES37AlternativeChoiceAdjustmentsWorseThanEf
gpcl6:_ZNK9tesseract9BitVector10NextSetBitEi
gpcl6:_ZNK9tesseract9BitVector10NumSetBitsEv
gpcl6:_ZNK9tesseract9BitVector9SerializeEP8_IO_FILE
gpcl6:_ZNK9tesseract9C_OUTLINE10outer_areaEv
gpcl6:_ZNK9tesseract9C_OUTLINE14increment_stepEiiPNS_6ICOORDEPiS3_
gpcl6:_ZNK9tesseract9C_OUTLINE14render_outlineEiiP3Pix
gpcl6:_ZNK9tesseract9C_OUTLINE14turn_directionEv
gpcl6:_ZNK9tesseract9C_OUTLINE14winding_numberENS_6ICOORDE
gpcl6:_ZNK9tesseract9C_OUTLINE15IsLegallyNestedEv
gpcl6:_ZNK9tesseract9C_OUTLINE4areaEv
gpcl6:_ZNK9tesseract9C_OUTLINE6renderEiiP3Pix
gpcl6:_ZNK9tesseract9C_OUTLINE9perimeterEv
gpcl6:_ZNK9tesseract9C_OUTLINEltERKS0_
gpcl6:_ZNK9tesseract9ImageData10MemoryUsedEv
gpcl6:_ZNK9tesseract9ImageData6GetPixEv
gpcl6:_ZNK9tesseract9ImageData8PreScaleEiiPfPiS2_PNS_13GenericVectorINS_4TBOXEEE
gpcl6:_ZNK9tesseract9ImageData9SerializeEPNS_5TFileE
gpcl6:_ZNK9tesseract9NetworkIO10MinOfMaxesEv
gpcl6:_ZNK9tesseract9NetworkIO11AddTimeStepEiPd
gpcl6:_ZNK9tesseract9NetworkIO12ReadTimeStepEiPd
gpcl6:_ZNK9tesseract9NetworkIO13ScoreOfLabelsERKNS_13GenericVectorIiEEi
gpcl6:_ZNK9tesseract9NetworkIO15AddTimeStepPartEiiiPf
gpcl6:_ZNK9tesseract9NetworkIO15ScoresOverRangeEiiiiPfS1_
gpcl6:_ZNK9tesseract9NetworkIO18AnySuspiciousTruthEf
gpcl6:_ZNK9tesseract9NetworkIO19BestChoiceOverRangeEiiiiPfS1_
gpcl6:_ZNK9tesseract9NetworkIO19PositionOfBestMatchERKNS_13GenericVectorIiEEii
gpcl6:_ZNK9tesseract9NetworkIO5PrintEi
gpcl6:_ZNK9tesseract9NetworkIO5ToPixEv
gpcl6:_ZNK9tesseract9NetworkIO9BestLabelEiiiPf
gpcl6:_ZNK9tesseract9NetworkIO9TransposeEPNS_15TransposedArrayE
gpcl6:_ZNK9tesseract9OSResults12print_scoresEi
gpcl6:_ZNK9tesseract9OSResults12print_scoresEv
gpcl6:_ZNK9tesseract9OSResults15get_best_scriptEi
gpcl6:_ZNK9tesseract9StrideMap5Index13MaxIndexOfDimENS_14FlexDimensionsE
gpcl6:_ZNK9tesseract9StrideMap5Index6IsLastENS_14FlexDimensionsE
gpcl6:_ZNK9tesseract9StrideMap5Index7IsValidEv
gpcl6:_ZNK9tesseract9TabVector11ShallowCopyEv
gpcl6:_ZNK9tesseract9TabVector9SimilarToERKNS_6ICOORDERKS0_PNS_8BlobGridE
gpcl6:_ZNK9tesseract9Tesseract10join_wordsEPNS_8WERD_RESES2_PNS_12BlamerBundleE
gpcl6:_ZNK9tesseract9Tesseract10split_wordEPNS_8WERD_RESEiPS2_PPNS_12BlamerBundleE
gpcl6:_ZNK9tesseract9Tesseract12GetRectImageERKNS_4TBOXERKNS_5BLOCKEiPS1_
gpcl6:_ZNK9tesseract9Tesseract21BelievableSuperscriptEbRKNS_8WERD_RESEfPiS4_
gpcl6:__bss_start
gpcl6:__data_start
gpcl6:_edata
gpcl6:_end
gpcl6:_start
gpcl6:a_identity
gpcl6:abc_identity
gpcl6:addColorizedGrayToCmap
gpcl6:adjacentOnPixelInRaster
gpcl6:adjust_first_last_char
gpcl6:affineInvertXform
gpcl6:affineXformPt
gpcl6:affineXformSampledPt
gpcl6:alloc_close_clump
gpcl6:alloc_device_n_map
gpcl6:alloc_free_clump
gpcl6:alloc_function_array
gpcl6:alloc_indexed_map
gpcl6:alloc_init_clump
gpcl6:alloc_init_free_strings
gpcl6:alloc_link_clump
gpcl6:alloc_open_clump
gpcl6:alloc_unlink_clump
gpcl6:alpha_buffer_bits
gpcl6:amapGetCountForColor
gpcl6:appendSubdirs
gpcl6:applyCubicFit
gpcl6:applyLinearFit
gpcl6:applyQuadraticFit
gpcl6:applyQuarticFit
gpcl6:applymap16
gpcl6:applymap8
gpcl6:apxArcPath
gpcl6:apxBeginChar
gpcl6:apxBeginFontHeader
gpcl6:apxBeginImage
gpcl6:apxBeginPage
gpcl6:apxBeginRastPattern
gpcl6:apxBeginScan
gpcl6:apxBeginSession
gpcl6:apxBeginStream
gpcl6:apxBeginUserDefinedLineCap
gpcl6:apxBezierPath
gpcl6:apxBezierRelPath
gpcl6:apxChord
gpcl6:apxChordPath
gpcl6:apxCloseDataSource
gpcl6:apxCloseSubPath
gpcl6:apxComment
gpcl6:apxEllipse
gpcl6:apxEllipsePath
gpcl6:apxEndChar
gpcl6:apxEndFontHeader
gpcl6:apxEndImage
gpcl6:apxEndPage
gpcl6:apxEndRastPattern
gpcl6:apxEndScan
gpcl6:apxEndSession
gpcl6:apxEndStream
gpcl6:apxEndUserDefinedLineCap
gpcl6:apxExecStream
gpcl6:apxLinePath
gpcl6:apxLineRelPath
gpcl6:apxNewPath
gpcl6:apxOpenDataSource
gpcl6:apxPaintPath
gpcl6:apxPassthrough
gpcl6:apxPie
gpcl6:apxPiePath
gpcl6:apxPopGS
gpcl6:apxPushGS
gpcl6:apxReadChar
gpcl6:apxReadFontHeader
gpcl6:apxReadImage
gpcl6:apxReadRastPattern
gpcl6:apxReadStream
gpcl6:apxRectangle
gpcl6:apxRectanglePath
gpcl6:apxRemoveFont
gpcl6:apxRemoveStream
gpcl6:apxRoundRectangle
gpcl6:apxRoundRectanglePath
gpcl6:apxScanLineRel
gpcl6:apxSetAdaptiveHalftoning
gpcl6:apxSetBrushSource
gpcl6:apxSetCharAngle
gpcl6:apxSetCharAttributes
gpcl6:apxSetCharBoldValue
gpcl6:apxSetCharScale
gpcl6:apxSetCharShear
gpcl6:apxSetCharSubMode
gpcl6:apxSetClipIntersect
gpcl6:apxSetClipMode
gpcl6:apxSetClipRectangle
gpcl6:apxSetClipReplace
gpcl6:apxSetClipToPage
gpcl6:apxSetColorSpace
gpcl6:apxSetColorTrapping
gpcl6:apxSetColorTreatment
gpcl6:apxSetCursor
gpcl6:apxSetCursorRel
gpcl6:apxSetDefaultGS
gpcl6:apxSetFillMode
gpcl6:apxSetFont
gpcl6:apxSetHalftoneMethod
gpcl6:apxSetLineCap
gpcl6:apxSetLineDash
gpcl6:apxSetLineJoin
gpcl6:apxSetMiterLimit
gpcl6:apxSetNeutralAxis
gpcl6:apxSetPageDefaultCTM
gpcl6:apxSetPageOrigin
gpcl6:apxSetPageRotation
gpcl6:apxSetPageScale
gpcl6:apxSetPaintTxMode
gpcl6:apxSetPathToClip
gpcl6:apxSetPenSource
gpcl6:apxSetPenWidth
gpcl6:apxSetROP
gpcl6:apxSetSourceTxMode
gpcl6:apxText
gpcl6:apxTextPath
gpcl6:apxVendorUnique
gpcl6:arc_font_data
gpcl6:arc_font_offsets
gpcl6:arc_font_widths
gpcl6:arg_copy
gpcl6:arg_finit
gpcl6:arg_free
gpcl6:arg_init
gpcl6:arg_next
gpcl6:arg_push_decoded_memory_string
gpcl6:arg_push_memory_string
gpcl6:arg_strcmp
gpcl6:arrayFindEachSequence
gpcl6:arrayFindSequence
gpcl6:arrayReplaceEachSequence
gpcl6:art_blend_luminosity_cmyk_16
gpcl6:art_blend_luminosity_cmyk_8
gpcl6:art_blend_luminosity_custom_16
gpcl6:art_blend_luminosity_custom_8
gpcl6:art_blend_luminosity_rgb_16
gpcl6:art_blend_luminosity_rgb_8
gpcl6:art_blend_pixel_16
gpcl6:art_blend_pixel_8
gpcl6:art_blend_saturation_cmyk_16
gpcl6:art_blend_saturation_cmyk_8
gpcl6:art_blend_saturation_custom_16
gpcl6:art_blend_saturation_custom_8
gpcl6:art_blend_saturation_rgb_16
gpcl6:art_blend_saturation_rgb_8
gpcl6:art_blend_soft_light_8
gpcl6:art_blend_sq_diff_8
gpcl6:art_pdf_composite_knockout_16
gpcl6:art_pdf_composite_knockout_8
gpcl6:art_pdf_composite_pixel_alpha_16
gpcl6:art_pdf_composite_pixel_alpha_8
gpcl6:art_pdf_knockoutisolated_group_16
gpcl6:art_pdf_knockoutisolated_group_8
gpcl6:art_pdf_knockoutisolated_group_aa_8
gpcl6:basic_enum_ptrs
gpcl6:basic_reloc_ptrs
gpcl6:bbox_default_add_rect
gpcl6:bbox_default_get_box
gpcl6:bbox_default_in_rect
gpcl6:bbox_default_init_box
gpcl6:bbufferCreate
gpcl6:bbufferDestroy
gpcl6:bbufferDestroyAndSaveData
gpcl6:bbufferExtendArray
gpcl6:bbufferRead
gpcl6:bbufferReadStream
gpcl6:bbufferWrite
gpcl6:bbufferWriteStream
gpcl6:bilinearXformPt
gpcl6:bilinearXformSampledPt
gpcl6:bits_bounding_box
gpcl6:bits_compress_scaled
gpcl6:bits_expand_plane
gpcl6:bits_extract_plane
gpcl6:bits_fill_rectangle
gpcl6:bits_fill_rectangle_masked
gpcl6:bits_replicate_horizontally
gpcl6:bits_replicate_vertically
gpcl6:bjc_build_gamma_table
gpcl6:bjc_compress
gpcl6:bjc_init_tresh
gpcl6:bjc_invert_bytes
gpcl6:bjc_invert_cmyk_bytes
gpcl6:bjc_put_CR
gpcl6:bjc_put_FF
gpcl6:bjc_put_LF
gpcl6:bjc_put_bjl_command
gpcl6:bjc_put_cmyk_image
gpcl6:bjc_put_continue_image
gpcl6:bjc_put_extended_margins
gpcl6:bjc_put_image_format
gpcl6:bjc_put_indexed_image
gpcl6:bjc_put_initialize
gpcl6:bjc_put_media_supply
gpcl6:bjc_put_move_lines
gpcl6:bjc_put_move_lines_unit
gpcl6:bjc_put_page_id
gpcl6:bjc_put_page_margins
gpcl6:bjc_put_print_method
gpcl6:bjc_put_print_method_short
gpcl6:bjc_put_raster_resolution
gpcl6:bjc_put_raster_skip
gpcl6:bjc_put_set_compression
gpcl6:bjc_put_set_initial
gpcl6:bjc_rand
gpcl6:bjc_rand_seed
gpcl6:bjc_rgb_to_cmy
gpcl6:bjc_rgb_to_gray
gpcl6:black_sep
gpcl6:blend_valid_for_spot
gpcl6:bmfCreate
gpcl6:bmfDestroy
gpcl6:bmfGetBaseline
gpcl6:bmfGetLineStrings
gpcl6:bmfGetPix
gpcl6:bmfGetStringWidth
gpcl6:bmfGetWidth
gpcl6:bmfGetWordWidths
gpcl6:bmp_map_16m_color_rgb
gpcl6:bmp_map_16m_rgb_color
gpcl6:boxAdjustSides
gpcl6:boxBoundingRegion
gpcl6:boxChangeRefcount
gpcl6:boxClipToRectangle
gpcl6:boxClipToRectangleParams
gpcl6:boxClone
gpcl6:boxCompareSize
gpcl6:boxContains
gpcl6:boxContainsPt
gpcl6:boxConvertToPta
gpcl6:boxCopy
gpcl6:boxCreate
gpcl6:boxCreateValid
gpcl6:boxDestroy
gpcl6:boxEqual
gpcl6:boxGetCenter
gpcl6:boxGetGeometry
gpcl6:boxGetRefcount
gpcl6:boxGetSideLocations
gpcl6:boxIntersectByLine
gpcl6:boxIntersects
gpcl6:boxIsValid
gpcl6:boxOverlapArea
gpcl6:boxOverlapDistance
gpcl6:boxOverlapFraction
gpcl6:boxOverlapRegion
gpcl6:boxPrintStreamInfo
gpcl6:boxRelocateOneSide
gpcl6:boxRotateOrth
gpcl6:boxSeparationDistance
gpcl6:boxSetGeometry
gpcl6:boxSetSide
gpcl6:boxSetSideLocations
gpcl6:boxSimilar
gpcl6:boxTransform
gpcl6:boxTransformOrdered
gpcl6:boxaAddBox
gpcl6:boxaAdjustBoxSides
gpcl6:boxaAdjustHeightToTarget
gpcl6:boxaAdjustSides
gpcl6:boxaAdjustWidthToTarget
gpcl6:boxaAffineTransform
gpcl6:boxaBinSort
gpcl6:boxaClear
gpcl6:boxaClipToBox
gpcl6:boxaCombineOverlaps
gpcl6:boxaCombineOverlapsInPair
gpcl6:boxaCompareRegions
gpcl6:boxaConstrainSize
gpcl6:boxaContainedInBox
gpcl6:boxaContainedInBoxCount
gpcl6:boxaContainedInBoxa
gpcl6:boxaConvertToPta
gpcl6:boxaCopy
gpcl6:boxaCreate
gpcl6:boxaDestroy
gpcl6:boxaDisplayTiled
gpcl6:boxaEncapsulateAligned
gpcl6:boxaEqual
gpcl6:boxaExtendArray
gpcl6:boxaExtendArrayToSize
gpcl6:boxaExtractAsNuma
gpcl6:boxaExtractAsPta
gpcl6:boxaExtractCorners
gpcl6:boxaExtractSortedPattern
gpcl6:boxaFillSequence
gpcl6:boxaFindInvalidBoxes
gpcl6:boxaFindNearestBoxes
gpcl6:boxaGetArea
gpcl6:boxaGetAverageSize
gpcl6:boxaGetBox
gpcl6:boxaGetBoxGeometry
gpcl6:boxaGetCount
gpcl6:boxaGetCoverage
gpcl6:boxaGetExtent
gpcl6:boxaGetMedianVals
gpcl6:boxaGetNearestByDirection
gpcl6:boxaGetNearestToLine
gpcl6:boxaGetNearestToPt
gpcl6:boxaGetRankVals
gpcl6:boxaGetSizes
gpcl6:boxaGetValidBox
gpcl6:boxaGetValidCount
gpcl6:boxaGetWhiteblocks
gpcl6:boxaHandleOverlaps
gpcl6:boxaInitFull
gpcl6:boxaInsertBox
gpcl6:boxaIntersectsBox
gpcl6:boxaIntersectsBoxCount
gpcl6:boxaIsFull
gpcl6:boxaJoin
gpcl6:boxaLocationRange
gpcl6:boxaMakeAreaIndicator
gpcl6:boxaMakeSizeIndicator
gpcl6:boxaMakeWHRatioIndicator
gpcl6:boxaMedianDimensions
gpcl6:boxaMergeEvenOdd
gpcl6:boxaModifyWithBoxa
gpcl6:boxaPermutePseudorandom
gpcl6:boxaPermuteRandom
gpcl6:boxaPlotSides
gpcl6:boxaPlotSizes
gpcl6:boxaPruneSortedOnOverlap
gpcl6:boxaRead
gpcl6:boxaReadMem
gpcl6:boxaReadStream
gpcl6:boxaReconcileAllByMedian
gpcl6:boxaReconcileEvenOddHeight
gpcl6:boxaReconcilePairWidth
gpcl6:boxaReconcileSidesByMedian
gpcl6:boxaReconcileSizeByMedian
gpcl6:boxaRemoveBox
gpcl6:boxaRemoveBoxAndSave
gpcl6:boxaReplaceBox
gpcl6:boxaRotate
gpcl6:boxaRotateOrth
gpcl6:boxaSaveValid
gpcl6:boxaScale
gpcl6:boxaSelectByArea
gpcl6:boxaSelectBySize
gpcl6:boxaSelectByWHRatio
gpcl6:boxaSelectLargeULBox
gpcl6:boxaSelectRange
gpcl6:boxaSelectWithIndicator
gpcl6:boxaSetSide
gpcl6:boxaShiftWithPta
gpcl6:boxaSimilar
gpcl6:boxaSizeConsistency1
gpcl6:boxaSizeConsistency2
gpcl6:boxaSizeRange
gpcl6:boxaSizeVariation
gpcl6:boxaSmoothSequenceMedian
gpcl6:boxaSort
gpcl6:boxaSort2d
gpcl6:boxaSort2dByIndex
gpcl6:boxaSortByIndex
gpcl6:boxaSplitEvenOdd
gpcl6:boxaSwapBoxes
gpcl6:boxaTransform
gpcl6:boxaTransformOrdered
gpcl6:boxaTranslate
gpcl6:boxaWindowedMedian
gpcl6:boxaWrite
gpcl6:boxaWriteDebug
gpcl6:boxaWriteMem
gpcl6:boxaWriteStderr
gpcl6:boxaWriteStream
gpcl6:boxaaAddBox
gpcl6:boxaaAddBoxa
gpcl6:boxaaAlignBox
gpcl6:boxaaCopy
gpcl6:boxaaCreate
gpcl6:boxaaDestroy
gpcl6:boxaaDisplay
gpcl6:boxaaExtendArray
gpcl6:boxaaExtendArrayToSize
gpcl6:boxaaExtendWithInit
gpcl6:boxaaFlattenAligned
gpcl6:boxaaFlattenToBoxa
gpcl6:boxaaGetBox
gpcl6:boxaaGetBoxCount
gpcl6:boxaaGetBoxa
gpcl6:boxaaGetCount
gpcl6:boxaaGetExtent
gpcl6:boxaaInitFull
gpcl6:boxaaInsertBoxa
gpcl6:boxaaJoin
gpcl6:boxaaQuadtreeRegions
gpcl6:boxaaRead
gpcl6:boxaaReadFromFiles
gpcl6:boxaaReadMem
gpcl6:boxaaReadStream
gpcl6:boxaaRemoveBoxa
gpcl6:boxaaReplaceBoxa
gpcl6:boxaaSelectRange
gpcl6:boxaaSizeRange
gpcl6:boxaaTranspose
gpcl6:boxaaWrite
gpcl6:boxaaWriteMem
gpcl6:boxaaWriteStream
gpcl6:bpc_to_depth
gpcl6:build_cmyk_map
gpcl6:bwmap
gpcl6:byte_acegbdfh_to_abcdefgh
gpcl6:byte_bit_run_length
gpcl6:byte_bit_run_length_0
gpcl6:byte_bit_run_length_1
gpcl6:byte_bit_run_length_2
gpcl6:byte_bit_run_length_3
gpcl6:byte_bit_run_length_4
gpcl6:byte_bit_run_length_5
gpcl6:byte_bit_run_length_6
gpcl6:byte_bit_run_length_7
gpcl6:byte_bit_run_length_neg
gpcl6:byte_count_bits
gpcl6:byte_reverse_bits
gpcl6:byte_right_mask
gpcl6:bytes_compare
gpcl6:bytes_copy_rectangle
gpcl6:bytes_copy_rectangle_zero_padding
gpcl6:bytes_fill_rectangle
gpcl6:bytes_rectangle_is_const
gpcl6:callSystemDebug
gpcl6:capture_spot_equivalent_cmyk_colors
gpcl6:ccbCreate
gpcl6:ccbDestroy
gpcl6:ccbaAddCcb
gpcl6:ccbaCreate
gpcl6:ccbaDestroy
gpcl6:ccbaDisplayBorder
gpcl6:ccbaDisplayImage1
gpcl6:ccbaDisplayImage2
gpcl6:ccbaDisplaySPBorder
gpcl6:ccbaGenerateGlobalLocs
gpcl6:ccbaGenerateSPGlobalLocs
gpcl6:ccbaGenerateSinglePath
gpcl6:ccbaGenerateStepChains
gpcl6:ccbaGetCcb
gpcl6:ccbaGetCount
gpcl6:ccbaRead
gpcl6:ccbaReadStream
gpcl6:ccbaStepChainsToPixCoords
gpcl6:ccbaWrite
gpcl6:ccbaWriteSVG
gpcl6:ccbaWriteSVGString
gpcl6:ccbaWriteStream
gpcl6:cf1_run_uncompressed
gpcl6:cf2_run_eol_1d
gpcl6:cf2_run_eol_2d
gpcl6:cf2_run_horizontal
gpcl6:cf2_run_pass
gpcl6:cf2_run_uncompressed
gpcl6:cf2_run_vertical
gpcl6:cf_2d_decode
gpcl6:cf_black_decode
gpcl6:cf_black_runs
gpcl6:cf_run_eol
gpcl6:cf_uncompressed
gpcl6:cf_uncompressed_decode
gpcl6:cf_uncompressed_exit
gpcl6:cf_white_decode
gpcl6:cf_white_runs
gpcl6:changeFormatForMissingLib
gpcl6:char_is_printable
gpcl6:check_cie_range
gpcl6:check_cmyk_color_model_comps
gpcl6:check_device_compatible_encoding
gpcl6:check_device_separable
gpcl6:check_pcm_and_separation_names
gpcl6:check_range
gpcl6:check_separation_names
gpcl6:cidConvertToPdfData
gpcl6:cid_system_info_is_null
gpcl6:cid_system_info_set_null
gpcl6:cie_matrix_mult3
gpcl6:cie_matrix_transpose3
gpcl6:cie_mult3
gpcl6:cl_cache_alloc
gpcl6:cl_cache_destroy
gpcl6:cl_cache_get_empty_slot
gpcl6:cl_cache_load_slot
gpcl6:cl_cache_read
gpcl6:cl_cache_read_init
gpcl6:clip_call_copy_alpha
gpcl6:clip_call_copy_alpha_hl_color
gpcl6:clip_call_copy_color
gpcl6:clip_call_copy_mono
gpcl6:clip_call_copy_planes
gpcl6:clip_call_fill_mask
gpcl6:clip_call_fill_rectangle
gpcl6:clip_call_fill_rectangle_hl_color
gpcl6:clip_call_strip_copy_rop2
gpcl6:clip_call_strip_tile_rect_devn
gpcl6:clip_call_strip_tile_rectangle
gpcl6:clist_begin_typed_image
gpcl6:clist_bitmap_bytes
gpcl6:clist_cfd_init
gpcl6:clist_cfe_init
gpcl6:clist_change_bits
gpcl6:clist_change_tile
gpcl6:clist_close
gpcl6:clist_close_output_file
gpcl6:clist_close_page_info
gpcl6:clist_close_writer_and_init_reader
gpcl6:clist_composite
gpcl6:clist_compressor_init
gpcl6:clist_compressor_template
gpcl6:clist_copy_alpha
gpcl6:clist_copy_alpha_hl_color
gpcl6:clist_copy_color
gpcl6:clist_copy_mono
gpcl6:clist_copy_planes
gpcl6:clist_data_size
gpcl6:clist_decompressor_init
gpcl6:clist_decompressor_template
gpcl6:clist_dev_spec_op
gpcl6:clist_enable_multi_thread_render
gpcl6:clist_end_page
gpcl6:clist_fill_linear_color_trapezoid
gpcl6:clist_fill_linear_color_triangle
gpcl6:clist_fill_mask
gpcl6:clist_fill_parallelogram
gpcl6:clist_fill_path
gpcl6:clist_fill_rectangle
gpcl6:clist_fill_rectangle_hl_color
gpcl6:clist_fill_stroke_path
gpcl6:clist_fill_trapezoid
gpcl6:clist_fill_triangle
gpcl6:clist_fillpage
gpcl6:clist_finish_page
gpcl6:clist_free_icc_table
gpcl6:clist_get_bits_rectangle
gpcl6:clist_get_data
gpcl6:clist_icc_addentry
gpcl6:clist_icc_addprofile
gpcl6:clist_icc_searchtable
gpcl6:clist_icc_table_finalize
gpcl6:clist_icc_writetable
gpcl6:clist_init_io_procs
gpcl6:clist_initialize_device_procs
gpcl6:clist_io_procs_memory
gpcl6:clist_make_accum_device
gpcl6:clist_minimum_buffer
gpcl6:clist_mutate_to_clist
gpcl6:clist_open
gpcl6:clist_output_page
gpcl6:clist_playback_band
gpcl6:clist_playback_file_bands
gpcl6:clist_process_page
gpcl6:clist_put_data
gpcl6:clist_rasterize_lines
gpcl6:clist_read_chunk
gpcl6:clist_read_color_usage_array
gpcl6:clist_read_icctable
gpcl6:clist_read_op_equiv_cmyk_colors
gpcl6:clist_render_init
gpcl6:clist_render_rectangle
gpcl6:clist_rld_init
gpcl6:clist_rle_init
gpcl6:clist_select_color0
gpcl6:clist_select_color1
gpcl6:clist_select_render_plane
gpcl6:clist_select_tile_color0
gpcl6:clist_select_tile_color1
gpcl6:clist_setup_params
gpcl6:clist_strip_copy_rop2
gpcl6:clist_strip_tile_rect_devn
gpcl6:clist_strip_tile_rectangle
gpcl6:clist_stroke_path
gpcl6:clist_teardown_render_threads
gpcl6:clist_update_trans_bbox
gpcl6:clist_write_color_usage_array
gpcl6:clist_write_op_equiv_cmyk_colors
gpcl6:clist_writer_check_empty_cropping_stack
gpcl6:clist_writer_color_usage
gpcl6:clist_writer_pop_cropping
gpcl6:clist_writer_push_cropping
gpcl6:clist_writer_push_no_cropping
gpcl6:clump_locate_ptr
gpcl6:clump_splay_app
gpcl6:clump_splay_walk_bwd
gpcl6:clump_splay_walk_bwd_init
gpcl6:clump_splay_walk_fwd
gpcl6:clump_splay_walk_init
gpcl6:clump_splay_walk_init_mid
gpcl6:cmapEqual
gpcl6:cmap_procs_default
gpcl6:cmap_transfer
gpcl6:cmap_transfer_halftone
gpcl6:cmap_transfer_plane
gpcl6:cmd_check_clip_path
gpcl6:cmd_clear_known
gpcl6:cmd_delta_offsets
gpcl6:cmd_drawing_color_usage
gpcl6:cmd_get_buffer_space
gpcl6:cmd_put_bits
gpcl6:cmd_put_color
gpcl6:cmd_put_color_map
gpcl6:cmd_put_color_mapping
gpcl6:cmd_put_drawing_color
gpcl6:cmd_put_enable_clip
gpcl6:cmd_put_enable_lop
gpcl6:cmd_put_frac31
gpcl6:cmd_put_halftone
gpcl6:cmd_put_list_extended_op
gpcl6:cmd_put_list_op
gpcl6:cmd_put_params
gpcl6:cmd_put_range_op
gpcl6:cmd_put_w
gpcl6:cmd_read_matrix
gpcl6:cmd_set_lop
gpcl6:cmd_set_screen_phase
gpcl6:cmd_set_screen_phase_generic
gpcl6:cmd_set_tile_colors
gpcl6:cmd_set_tile_phase
gpcl6:cmd_set_tile_phase_generic
gpcl6:cmd_size_frac31
gpcl6:cmd_size_w
gpcl6:cmd_slow_rop
gpcl6:cmd_update_lop
gpcl6:cmd_write_buffer
gpcl6:cmd_write_ctm
gpcl6:cmd_write_ctm_return_length
gpcl6:cmd_write_ctm_return_length_nodevice
gpcl6:cmd_write_page_rect_cmd
gpcl6:cmd_write_pseudo_band
gpcl6:cmd_write_rect_cmd
gpcl6:cmd_write_rect_hl_cmd
gpcl6:cmd_write_unknown
gpcl6:cmyk_16bit_map_cmyk_color
gpcl6:cmyk_16bit_map_color_cmyk
gpcl6:cmyk_16bit_map_color_rgb
gpcl6:cmyk_1bit_map_cmyk_color
gpcl6:cmyk_1bit_map_color_cmyk
gpcl6:cmyk_1bit_map_color_rgb
gpcl6:cmyk_8bit_map_cmyk_color
gpcl6:cmyk_8bit_map_color_cmyk
gpcl6:cmyk_8bit_map_color_rgb
gpcl6:cmyk_cs_to_cmyk_cm
gpcl6:cmyk_cs_to_devn_cm
gpcl6:codepoint_to_utf8
gpcl6:color_cmyk_to_gray
gpcl6:color_cmyk_to_rgb
gpcl6:color_rgb_to_cmyk
gpcl6:color_rgb_to_gray
gpcl6:common_identity
gpcl6:compareTilesByHisto
gpcl6:composeRGBAPixel
gpcl6:composeRGBPixel
gpcl6:concatenatePdf
gpcl6:concatenatePdfToData
gpcl6:const_90_degrees
gpcl6:constant_color_quadrangle
gpcl6:convertFilesFittedToPS
gpcl6:convertFilesTo1bpp
gpcl6:convertFilesToPS
gpcl6:convertFilesToPdf
gpcl6:convertFlateToPS
gpcl6:convertFlateToPSEmbed
gpcl6:convertG4ToPS
gpcl6:convertG4ToPSEmbed
gpcl6:convertGrayCodeToInt
gpcl6:convertHSVToRGB
gpcl6:convertImageDataToPdf
gpcl6:convertImageDataToPdfData
gpcl6:convertIntToGrayCode
gpcl6:convertJpegToPS
gpcl6:convertJpegToPSEmbed
gpcl6:convertLABToRGB
gpcl6:convertLABToXYZ
gpcl6:convertNumberedMasksToBoxaa
gpcl6:convertOnBigEnd16
gpcl6:convertOnBigEnd32
gpcl6:convertOnLittleEnd16
gpcl6:convertOnLittleEnd32
gpcl6:convertPtaLineTo4cc
gpcl6:convertRGBToHSV
gpcl6:convertRGBToLAB
gpcl6:convertRGBToXYZ
gpcl6:convertRGBToYUV
gpcl6:convertSegmentedFilesToPdf
gpcl6:convertSegmentedPagesToPS
gpcl6:convertSepCharsInPath
gpcl6:convertSortedToNumberedPathnames
gpcl6:convertTiffMultipageToPS
gpcl6:convertTiffMultipageToPdf
gpcl6:convertToNUpFiles
gpcl6:convertToNUpPixa
gpcl6:convertToPSEmbed
gpcl6:convertToPdf
gpcl6:convertToPdfData
gpcl6:convertToPdfDataSegmented
gpcl6:convertToPdfSegmented
gpcl6:convertUnscaledFilesToPdf
gpcl6:convertUnscaledToPdfData
gpcl6:convertXYZToLAB
gpcl6:convertXYZToRGB
gpcl6:convertYUVToRGB
gpcl6:convert_DeviceN_alternate
gpcl6:convert_separation_alternate
gpcl6:copied_drop_extension_glyphs
gpcl6:copied_get_notdef
gpcl6:copied_order_font
gpcl6:cos_array_add
gpcl6:cos_array_add_c_string
gpcl6:cos_array_add_int
gpcl6:cos_array_add_no_copy
gpcl6:cos_array_add_object
gpcl6:cos_array_add_real
gpcl6:cos_array_alloc
gpcl6:cos_array_element_first
gpcl6:cos_array_element_next
gpcl6:cos_array_from_floats
gpcl6:cos_array_procs
gpcl6:cos_array_put
gpcl6:cos_array_put_no_copy
gpcl6:cos_array_unadd
gpcl6:cos_become
gpcl6:cos_c_string_value
gpcl6:cos_dict_alloc
gpcl6:cos_dict_delete_c_key
gpcl6:cos_dict_elements_write
gpcl6:cos_dict_find
gpcl6:cos_dict_find_c_key
gpcl6:cos_dict_forall
gpcl6:cos_dict_move_all
gpcl6:cos_dict_objects_delete
gpcl6:cos_dict_objects_write
gpcl6:cos_dict_procs
gpcl6:cos_dict_put
gpcl6:cos_dict_put_c_key
gpcl6:cos_dict_put_c_key_bool
gpcl6:cos_dict_put_c_key_floats
gpcl6:cos_dict_put_c_key_int
gpcl6:cos_dict_put_c_key_object
gpcl6:cos_dict_put_c_key_real
gpcl6:cos_dict_put_c_key_string
gpcl6:cos_dict_put_c_strings
gpcl6:cos_dict_put_no_copy
gpcl6:cos_dict_put_string
gpcl6:cos_dict_put_string_copy
gpcl6:cos_free
gpcl6:cos_generic_procs
gpcl6:cos_object_alloc
gpcl6:cos_object_memory
gpcl6:cos_object_value
gpcl6:cos_param_list_writer_init
gpcl6:cos_reference_alloc
gpcl6:cos_reference_procs
gpcl6:cos_release
gpcl6:cos_resource_value
gpcl6:cos_stream_add
gpcl6:cos_stream_add_bytes
gpcl6:cos_stream_add_stream_contents
gpcl6:cos_stream_alloc
gpcl6:cos_stream_contents_write
gpcl6:cos_stream_dict
gpcl6:cos_stream_elements_write
gpcl6:cos_stream_from_pipeline
gpcl6:cos_stream_length
gpcl6:cos_stream_procs
gpcl6:cos_stream_release_pieces
gpcl6:cos_string_value
gpcl6:cos_value_free
gpcl6:cos_value_write
gpcl6:cos_write
gpcl6:cos_write_dict_as_ordered_array
gpcl6:cos_write_object
gpcl6:cos_write_stream_alloc
gpcl6:cpath_is_rectangle
gpcl6:create2dFloatArray
gpcl6:create2dIntArray
gpcl6:createMatrix2dRotate
gpcl6:createMatrix2dScale
gpcl6:createMatrix2dTranslate
gpcl6:create_2d_gauss_filter
gpcl6:cs_adjust_counts_icc
gpcl6:cs_adjust_swappedcounts_icc
gpcl6:cups_close
gpcl6:cups_decode_color
gpcl6:cups_encode_color
gpcl6:cups_get_color_comp_index
gpcl6:cups_get_color_mapping_procs
gpcl6:cups_get_matrix
gpcl6:cups_get_params
gpcl6:cups_get_space_params
gpcl6:cups_map_cmyk
gpcl6:cups_map_gray
gpcl6:cups_map_rgb
gpcl6:cups_open
gpcl6:cups_output_page
gpcl6:cups_print_pages
gpcl6:cups_put_params
gpcl6:cups_set_color_info
gpcl6:cups_spec_op
gpcl6:cups_sync_output
gpcl6:current_units_out_of_range
gpcl6:curve_coeffs_ranged
gpcl6:data_source_access_bytes
gpcl6:data_source_access_stream
gpcl6:data_source_access_string
gpcl6:debug_dump_bitmap
gpcl6:debug_dump_bytes
gpcl6:debug_fp
gpcl6:debug_print_string
gpcl6:debug_print_string_hex
gpcl6:decodeAscii85
gpcl6:decodeAscii85WithComp
gpcl6:decodeBase64
gpcl6:default_defaultWidthX
gpcl6:default_subclass_begin_page
gpcl6:default_subclass_begin_transparency_group
gpcl6:default_subclass_begin_transparency_mask
gpcl6:default_subclass_begin_typed_image
gpcl6:default_subclass_close_device
gpcl6:default_subclass_composite
gpcl6:default_subclass_copy_alpha
gpcl6:default_subclass_copy_alpha_hl_color
gpcl6:default_subclass_copy_color
gpcl6:default_subclass_copy_mono
gpcl6:default_subclass_copy_planes
gpcl6:default_subclass_decode_color
gpcl6:default_subclass_dev_spec_op
gpcl6:default_subclass_discard_transparency_layer
gpcl6:default_subclass_draw_thin_line
gpcl6:default_subclass_encode_color
gpcl6:default_subclass_end_page
gpcl6:default_subclass_end_transparency_group
gpcl6:default_subclass_end_transparency_mask
gpcl6:default_subclass_fill_linear_color_scanline
gpcl6:default_subclass_fill_linear_color_trapezoid
gpcl6:default_subclass_fill_linear_color_triangle
gpcl6:default_subclass_fill_mask
gpcl6:default_subclass_fill_parallelogram
gpcl6:default_subclass_fill_path
gpcl6:default_subclass_fill_rectangle
gpcl6:default_subclass_fill_rectangle_hl_color
gpcl6:default_subclass_fill_stroke_path
gpcl6:default_subclass_fill_trapezoid
gpcl6:default_subclass_fill_triangle
gpcl6:default_subclass_fillpage
gpcl6:default_subclass_finalize
gpcl6:default_subclass_get_alpha_bits
gpcl6:default_subclass_get_bits_rectangle
gpcl6:default_subclass_get_clipping_box
gpcl6:default_subclass_get_color_comp_index
gpcl6:default_subclass_get_color_mapping_procs
gpcl6:default_subclass_get_hardware_params
gpcl6:default_subclass_get_initial_matrix
gpcl6:default_subclass_get_page_device
gpcl6:default_subclass_get_params
gpcl6:default_subclass_get_profile
gpcl6:default_subclass_include_color_space
gpcl6:default_subclass_initialize_device_procs
gpcl6:default_subclass_install
gpcl6:default_subclass_map_cmyk_color
gpcl6:default_subclass_map_color_rgb
gpcl6:default_subclass_map_rgb_color
gpcl6:default_subclass_open_device
gpcl6:default_subclass_output_page
gpcl6:default_subclass_pop_transparency_state
gpcl6:default_subclass_process_page
gpcl6:default_subclass_push_transparency_state
gpcl6:default_subclass_put_image
gpcl6:default_subclass_put_params
gpcl6:default_subclass_ret_devn_params
gpcl6:default_subclass_set_graphics_type_tag
gpcl6:default_subclass_strip_copy_rop2
gpcl6:default_subclass_strip_tile_rect_devn
gpcl6:default_subclass_strip_tile_rectangle
gpcl6:default_subclass_stroke_path
gpcl6:default_subclass_sync_output
gpcl6:default_subclass_text_begin
gpcl6:default_subclass_transform_pixel_region
gpcl6:default_subclass_update_spot_equivalent_colors
gpcl6:device_is_contone
gpcl6:devn_copy_params
gpcl6:devn_free_params
gpcl6:devn_get_color_comp_index
gpcl6:devn_get_params
gpcl6:devn_printer_put_params
gpcl6:devn_put_params
gpcl6:dewarpBuildLineModel
gpcl6:dewarpBuildPageModel
gpcl6:dewarpCreate
gpcl6:dewarpCreateRef
gpcl6:dewarpDebug
gpcl6:dewarpDestroy
gpcl6:dewarpFindHorizDisparity
gpcl6:dewarpFindHorizSlopeDisparity
gpcl6:dewarpFindVertDisparity
gpcl6:dewarpGetTextlineCenters
gpcl6:dewarpMinimize
gpcl6:dewarpPopulateFullRes
gpcl6:dewarpRead
gpcl6:dewarpReadMem
gpcl6:dewarpReadStream
gpcl6:dewarpRemoveShortLines
gpcl6:dewarpShowResults
gpcl6:dewarpSinglePage
gpcl6:dewarpSinglePageInit
gpcl6:dewarpSinglePageRun
gpcl6:dewarpWrite
gpcl6:dewarpWriteMem
gpcl6:dewarpWriteStream
gpcl6:dewarpaApplyDisparity
gpcl6:dewarpaApplyDisparityBoxa
gpcl6:dewarpaCreate
gpcl6:dewarpaCreateFromPixacomp
gpcl6:dewarpaDestroy
gpcl6:dewarpaDestroyDewarp
gpcl6:dewarpaGetDewarp
gpcl6:dewarpaInfo
gpcl6:dewarpaInsertDewarp
gpcl6:dewarpaInsertRefModels
gpcl6:dewarpaListPages
gpcl6:dewarpaModelStats
gpcl6:dewarpaModelStatus
gpcl6:dewarpaRead
gpcl6:dewarpaReadMem
gpcl6:dewarpaReadStream
gpcl6:dewarpaRestoreModels
gpcl6:dewarpaSetCheckColumns
gpcl6:dewarpaSetCurvatures
gpcl6:dewarpaSetMaxDistance
gpcl6:dewarpaSetValidModels
gpcl6:dewarpaShowArrays
gpcl6:dewarpaStripRefModels
gpcl6:dewarpaUseBothArrays
gpcl6:dewarpaWrite
gpcl6:dewarpaWriteMem
gpcl6:dewarpaWriteStream
gpcl6:dflush
gpcl6:displayHSVColorRange
gpcl6:ditherToBinaryLineLow
gpcl6:dljet_mono_print_page
gpcl6:dljet_mono_print_page_copies
gpcl6:dmprintf_file_and_line
gpcl6:docx_template_items
gpcl6:docx_template_items_num
gpcl6:dpixAddMultConstant
gpcl6:dpixChangeRefcount
gpcl6:dpixClone
gpcl6:dpixConvertToFPix
gpcl6:dpixConvertToPix
gpcl6:dpixCopy
gpcl6:dpixCopyResolution
gpcl6:dpixCreate
gpcl6:dpixCreateTemplate
gpcl6:dpixDestroy
gpcl6:dpixEndianByteSwap
gpcl6:dpixGetData
gpcl6:dpixGetDimensions
gpcl6:dpixGetMax
gpcl6:dpixGetMin
gpcl6:dpixGetPixel
gpcl6:dpixGetRefcount
gpcl6:dpixGetResolution
gpcl6:dpixGetWpl
gpcl6:dpixLinearCombination
gpcl6:dpixRead
gpcl6:dpixReadMem
gpcl6:dpixReadStream
gpcl6:dpixScaleByInteger
gpcl6:dpixSetAllArbitrary
gpcl6:dpixSetData
gpcl6:dpixSetDimensions
gpcl6:dpixSetPixel
gpcl6:dpixSetResolution
gpcl6:dpixSetWpl
gpcl6:dpixWrite
gpcl6:dpixWriteMem
gpcl6:dpixWriteStream
gpcl6:dprintf_file_and_line
gpcl6:dprintf_file_and_line_format
gpcl6:dprintf_file_only_format
gpcl6:eb_free_aligned
gpcl6:eb_malloc_aligned
gpcl6:emprintf_program_ident
gpcl6:enc_s_get_int
gpcl6:enc_s_get_int_nc
gpcl6:enc_s_put_int
gpcl6:enc_s_size_int
gpcl6:enc_u_get_uint
gpcl6:enc_u_get_uint_nc
gpcl6:enc_u_put_uint
gpcl6:enc_u_size_uint
gpcl6:encodeAscii85
gpcl6:encodeAscii85WithComp
gpcl6:encodeBase64
gpcl6:enum_bytestring
gpcl6:enum_const_bytestring
gpcl6:epo_check_and_install
gpcl6:epo_disable
gpcl6:eprintf_program_ident
gpcl6:eprn_bits_for_levels
gpcl6:eprn_check_colour_info
gpcl6:eprn_close_device
gpcl6:eprn_colour_model_list
gpcl6:eprn_fetch_scan_line
gpcl6:eprn_fillpage
gpcl6:eprn_finalize
gpcl6:eprn_get_initial_matrix
gpcl6:eprn_get_int
gpcl6:eprn_get_params
gpcl6:eprn_get_planes
gpcl6:eprn_get_string
gpcl6:eprn_init_device
gpcl6:eprn_map_cmyk_color
gpcl6:eprn_map_cmyk_color_flex
gpcl6:eprn_map_cmyk_color_glob
gpcl6:eprn_map_cmyk_color_max
gpcl6:eprn_map_color_rgb
gpcl6:eprn_map_rgb_color_for_CMY_or_K
gpcl6:eprn_map_rgb_color_for_CMY_or_K_flex
gpcl6:eprn_map_rgb_color_for_CMY_or_K_max
gpcl6:eprn_map_rgb_color_for_RGB
gpcl6:eprn_map_rgb_color_for_RGB_flex
gpcl6:eprn_map_rgb_color_for_RGB_max
gpcl6:eprn_number_of_bitplanes
gpcl6:eprn_number_of_octets
gpcl6:eprn_open_device
gpcl6:eprn_output_page
gpcl6:eprn_put_params
gpcl6:eprn_set_media_data
gpcl6:eprn_set_media_flags
gpcl6:eprn_set_page_layout
gpcl6:eprn_split_FS
gpcl6:errflush
gpcl6:errprintf
gpcl6:errprintf_nomem
gpcl6:errwrite
gpcl6:ets_calloc
gpcl6:ets_create
gpcl6:ets_destroy
gpcl6:ets_free
gpcl6:ets_line
gpcl6:ets_malloc
gpcl6:even_better_free
gpcl6:even_better_line
gpcl6:even_better_line_rll
gpcl6:even_better_new
gpcl6:extractG4DataFromFile
gpcl6:extractMinMaxComponent
gpcl6:extractNumberFromFilename
gpcl6:extractRGBAValues
gpcl6:extractRGBValues
gpcl6:extract_add_char
gpcl6:extract_add_image
gpcl6:extract_add_line
gpcl6:extract_add_path4
gpcl6:extract_alloc_create
gpcl6:extract_alloc_destroy
gpcl6:extract_alloc_exp_min
gpcl6:extract_alloc_stats
gpcl6:extract_asprintf
gpcl6:extract_astring_cat
gpcl6:extract_astring_catc
gpcl6:extract_astring_catc_unicode
gpcl6:extract_astring_catc_unicode_xml
gpcl6:extract_astring_catf
gpcl6:extract_astring_catl
gpcl6:extract_astring_char_truncate_if
gpcl6:extract_astring_free
gpcl6:extract_astring_init
gpcl6:extract_astring_truncate
gpcl6:extract_begin
gpcl6:extract_buffer_alloc
gpcl6:extract_buffer_close
gpcl6:extract_buffer_expanding_create
gpcl6:extract_buffer_open
gpcl6:extract_buffer_open_file
gpcl6:extract_buffer_open_simple
gpcl6:extract_buffer_pos
gpcl6:extract_buffer_read_internal
gpcl6:extract_buffer_write_internal
gpcl6:extract_bzero
gpcl6:extract_cell_free
gpcl6:extract_cell_init
gpcl6:extract_check_path_shell_safe
gpcl6:extract_closepath
gpcl6:extract_content_insert
gpcl6:extract_document_join
gpcl6:extract_document_to_docx_content
gpcl6:extract_document_to_html_content
gpcl6:extract_document_to_odt_content
gpcl6:extract_docx_content_item
gpcl6:extract_docx_write_template
gpcl6:extract_end
gpcl6:extract_exp_min
gpcl6:extract_fill_begin
gpcl6:extract_fill_end
gpcl6:extract_free
gpcl6:extract_image_clear
gpcl6:extract_internal_end
gpcl6:extract_line_free
gpcl6:extract_line_span_first
gpcl6:extract_line_span_last
gpcl6:extract_lines_free
gpcl6:extract_lineto
gpcl6:extract_malloc
gpcl6:extract_matrices_to_font_size
gpcl6:extract_matrix_cmp4
gpcl6:extract_matrix_expansion
gpcl6:extract_matrix_string
gpcl6:extract_mkdir
gpcl6:extract_moveto
gpcl6:extract_multiply_matrix_matrix
gpcl6:extract_multiply_matrix_point
gpcl6:extract_odt_content_item
gpcl6:extract_odt_styles_free
gpcl6:extract_odt_write_template
gpcl6:extract_outf
gpcl6:extract_outf_verbose
gpcl6:extract_outf_verbose_set
gpcl6:extract_page_begin
gpcl6:extract_page_end
gpcl6:extract_point_string
gpcl6:extract_process
gpcl6:extract_read_all
gpcl6:extract_read_all_path
gpcl6:extract_read_intermediate
gpcl6:extract_realloc
gpcl6:extract_realloc2
gpcl6:extract_rect_string
gpcl6:extract_remove_directory
gpcl6:extract_span_append_c
gpcl6:extract_span_begin
gpcl6:extract_span_char_last
gpcl6:extract_span_end
gpcl6:extract_span_free
gpcl6:extract_span_init
gpcl6:extract_span_string
gpcl6:extract_spans_free
gpcl6:extract_strdup
gpcl6:extract_stroke_begin
gpcl6:extract_stroke_end
gpcl6:extract_systemf
gpcl6:extract_tables_csv_format
gpcl6:extract_vasprintf
gpcl6:extract_write
gpcl6:extract_write_all
gpcl6:extract_write_content
gpcl6:extract_write_template
gpcl6:extract_xml_pparse_init
gpcl6:extract_xml_pparse_next
gpcl6:extract_xml_str_to_double
gpcl6:extract_xml_str_to_float
gpcl6:extract_xml_str_to_int
gpcl6:extract_xml_str_to_llint
gpcl6:extract_xml_str_to_size
gpcl6:extract_xml_str_to_uint
gpcl6:extract_xml_str_to_ullint
gpcl6:extract_xml_tag_attributes_find
gpcl6:extract_xml_tag_attributes_find_double
gpcl6:extract_xml_tag_attributes_find_float
gpcl6:extract_xml_tag_attributes_find_int
gpcl6:extract_xml_tag_attributes_find_size
gpcl6:extract_xml_tag_attributes_find_uint
gpcl6:extract_xml_tag_free
gpcl6:extract_xml_tag_init
gpcl6:extract_zip_close
gpcl6:extract_zip_open
gpcl6:extract_zip_write_file
gpcl6:fax_adjusted_width
gpcl6:fc_color_quo
gpcl6:fgetJp2kResolution
gpcl6:fgetJpegComment
gpcl6:fgetJpegResolution
gpcl6:fgetPngColormapInfo
gpcl6:fgetPngResolution
gpcl6:fhmtautogen
gpcl6:fhmtautogen1
gpcl6:fhmtautogen2
gpcl6:fhmtgen_low_1
gpcl6:fileAppendString
gpcl6:fileConcatenate
gpcl6:fileCopy
gpcl6:fileCorruptByDeletion
gpcl6:fileCorruptByMutation
gpcl6:fileFormatIsTiff
gpcl6:fileReplaceBytes
gpcl6:fileSplitLinesUniform
gpcl6:file_alloc_stream
gpcl6:file_close_disable
gpcl6:file_close_file
gpcl6:file_close_finish
gpcl6:file_default_buffer_size
gpcl6:file_init_stream
gpcl6:file_open_stream
gpcl6:file_prepare_stream
gpcl6:filesAreIdentical
gpcl6:findFileFormat
gpcl6:findFileFormatBuffer
gpcl6:findFileFormatStream
gpcl6:findNextLargerPrime
gpcl6:findTiffCompression
gpcl6:fixed_coeff_mult
gpcl6:fixed_mult_quo
gpcl6:float_value
gpcl6:fmorphautogen
gpcl6:fmorphautogen1
gpcl6:fmorphautogen2
gpcl6:fmorphopgen_low_1
gpcl6:fmorphopgen_low_2
gpcl6:fn_check_mnDR
gpcl6:fn_common_free
gpcl6:fn_common_free_params
gpcl6:fn_common_get_params
gpcl6:fn_common_scale
gpcl6:fn_common_serialize
gpcl6:fn_copy_values
gpcl6:fn_scale_pairs
gpcl6:fnbytesInFile
gpcl6:font_resource_encoded_alloc
gpcl6:font_resource_free
gpcl6:fontpg_init
gpcl6:fopenReadFromMemory
gpcl6:fopenReadStream
gpcl6:fopenWriteStream
gpcl6:fopenWriteWinTempfile
gpcl6:fpixAddBorder
gpcl6:fpixAddContinuedBorder
gpcl6:fpixAddMirroredBorder
gpcl6:fpixAddMultConstant
gpcl6:fpixAddSlopeBorder
gpcl6:fpixAffine
gpcl6:fpixAffinePta
gpcl6:fpixAutoRenderContours
gpcl6:fpixChangeRefcount
gpcl6:fpixClone
gpcl6:fpixConvertToDPix
gpcl6:fpixConvertToPix
gpcl6:fpixConvolve
gpcl6:fpixConvolveSep
gpcl6:fpixCopy
gpcl6:fpixCopyResolution
gpcl6:fpixCreate
gpcl6:fpixCreateTemplate
gpcl6:fpixDestroy
gpcl6:fpixDisplayMaxDynamicRange
gpcl6:fpixEndianByteSwap
gpcl6:fpixFlipLR
gpcl6:fpixFlipTB
gpcl6:fpixGetData
gpcl6:fpixGetDimensions
gpcl6:fpixGetMax
gpcl6:fpixGetMin
gpcl6:fpixGetPixel
gpcl6:fpixGetRefcount
gpcl6:fpixGetResolution
gpcl6:fpixGetWpl
gpcl6:fpixLinearCombination
gpcl6:fpixPrintStream
gpcl6:fpixProjective
gpcl6:fpixProjectivePta
gpcl6:fpixRasterop
gpcl6:fpixRead
gpcl6:fpixReadMem
gpcl6:fpixReadStream
gpcl6:fpixRemoveBorder
gpcl6:fpixRenderContours
gpcl6:fpixRotate180
gpcl6:fpixRotate90
gpcl6:fpixRotateOrth
gpcl6:fpixScaleByInteger
gpcl6:fpixSetAllArbitrary
gpcl6:fpixSetData
gpcl6:fpixSetDimensions
gpcl6:fpixSetPixel
gpcl6:fpixSetResolution
gpcl6:fpixSetWpl
gpcl6:fpixThresholdToPix
gpcl6:fpixWrite
gpcl6:fpixWriteMem
gpcl6:fpixWriteStream
gpcl6:fpixaAddFPix
gpcl6:fpixaChangeRefcount
gpcl6:fpixaConvertLABToRGB
gpcl6:fpixaConvertLABToXYZ
gpcl6:fpixaConvertXYZToLAB
gpcl6:fpixaConvertXYZToRGB
gpcl6:fpixaCopy
gpcl6:fpixaCreate
gpcl6:fpixaDestroy
gpcl6:fpixaDisplayQuadtree
gpcl6:fpixaGetCount
gpcl6:fpixaGetData
gpcl6:fpixaGetFPix
gpcl6:fpixaGetFPixDimensions
gpcl6:fpixaGetPixel
gpcl6:fpixaSetPixel
gpcl6:fprintTiffInfo
gpcl6:freadHeaderJp2k
gpcl6:freadHeaderJpeg
gpcl6:freadHeaderPng
gpcl6:freadHeaderPnm
gpcl6:freadHeaderSpix
gpcl6:freadHeaderTiff
gpcl6:free_color_space
gpcl6:free_function_refs
gpcl6:free_indexed_map
gpcl6:free_separation_names
gpcl6:gaussDistribSampling
gpcl6:gaussjordan
gpcl6:gdev_begin_input_media
gpcl6:gdev_begin_output_media
gpcl6:gdev_create_buf_device
gpcl6:gdev_end_input_media
gpcl6:gdev_end_output_media
gpcl6:gdev_fax_get_params
gpcl6:gdev_fax_init_fax_state
gpcl6:gdev_fax_init_state
gpcl6:gdev_fax_open
gpcl6:gdev_fax_print_page
gpcl6:gdev_fax_print_strip
gpcl6:gdev_fax_put_params
gpcl6:gdev_input_media_default
gpcl6:gdev_mem_bits_size
gpcl6:gdev_mem_data_size
gpcl6:gdev_mem_device_for_bits
gpcl6:gdev_mem_fns_1
gpcl6:gdev_mem_fns_16
gpcl6:gdev_mem_fns_1w
gpcl6:gdev_mem_fns_2
gpcl6:gdev_mem_fns_24
gpcl6:gdev_mem_fns_24w
gpcl6:gdev_mem_fns_2w
gpcl6:gdev_mem_fns_32
gpcl6:gdev_mem_fns_32w
gpcl6:gdev_mem_fns_4
gpcl6:gdev_mem_fns_40
gpcl6:gdev_mem_fns_40w
gpcl6:gdev_mem_fns_48
gpcl6:gdev_mem_fns_48w
gpcl6:gdev_mem_fns_4w
gpcl6:gdev_mem_fns_56
gpcl6:gdev_mem_fns_56w
gpcl6:gdev_mem_fns_64
gpcl6:gdev_mem_fns_64w
gpcl6:gdev_mem_fns_8
gpcl6:gdev_mem_fns_8w
gpcl6:gdev_mem_functions_for_bits
gpcl6:gdev_mem_line_ptrs_size
gpcl6:gdev_mem_max_height
gpcl6:gdev_mem_mono_set_inverted
gpcl6:gdev_mem_open_scan_lines
gpcl6:gdev_mem_open_scan_lines_interleaved
gpcl6:gdev_mem_set_line_ptrs
gpcl6:gdev_mem_set_line_ptrs_interleaved
gpcl6:gdev_mem_set_planar
gpcl6:gdev_mem_set_planar_interleaved
gpcl6:gdev_mem_word_device_for_bits
gpcl6:gdev_mem_word_functions_for_bits
gpcl6:gdev_output_media_default
gpcl6:gdev_pcl_3bit_map_color_rgb
gpcl6:gdev_pcl_3bit_map_rgb_color
gpcl6:gdev_pcl_mode2compress
gpcl6:gdev_pcl_mode2compress_padded
gpcl6:gdev_pcl_mode3compress
gpcl6:gdev_pcl_mode9compress
gpcl6:gdev_pcl_page_orientation
gpcl6:gdev_pcl_paper_size
gpcl6:gdev_pdf_begin_transparency_group
gpcl6:gdev_pdf_begin_transparency_mask
gpcl6:gdev_pdf_begin_typed_image
gpcl6:gdev_pdf_composite
gpcl6:gdev_pdf_copy_color
gpcl6:gdev_pdf_copy_mono
gpcl6:gdev_pdf_dev_spec_op
gpcl6:gdev_pdf_end_transparency_group
gpcl6:gdev_pdf_end_transparency_mask
gpcl6:gdev_pdf_fill_mask
gpcl6:gdev_pdf_fill_path
gpcl6:gdev_pdf_fill_rectangle
gpcl6:gdev_pdf_fill_rectangle_hl_color
gpcl6:gdev_pdf_fill_stroke_path
gpcl6:gdev_pdf_fillpage
gpcl6:gdev_pdf_get_param
gpcl6:gdev_pdf_get_params
gpcl6:gdev_pdf_include_color_space
gpcl6:gdev_pdf_put_params
gpcl6:gdev_pdf_strip_tile_rectangle
gpcl6:gdev_pdf_stroke_path
gpcl6:gdev_pdf_text_begin
gpcl6:gdev_prn_allocate_memory
gpcl6:gdev_prn_bg_output_page
gpcl6:gdev_prn_bg_output_page_seekable
gpcl6:gdev_prn_clear_trailing_bits
gpcl6:gdev_prn_close
gpcl6:gdev_prn_close_printer
gpcl6:gdev_prn_color_usage
gpcl6:gdev_prn_copy_scan_lines
gpcl6:gdev_prn_create_buf_planar
gpcl6:gdev_prn_dev_spec_op
gpcl6:gdev_prn_file_is_new
gpcl6:gdev_prn_finalize
gpcl6:gdev_prn_forwarding_dev_spec_op
gpcl6:gdev_prn_free_memory
gpcl6:gdev_prn_get_bits
gpcl6:gdev_prn_get_lines
gpcl6:gdev_prn_get_param
gpcl6:gdev_prn_get_params
gpcl6:gdev_prn_get_params_planar
gpcl6:gdev_prn_initialize_device_procs
gpcl6:gdev_prn_initialize_device_procs_bg
gpcl6:gdev_prn_initialize_device_procs_cmyk1
gpcl6:gdev_prn_initialize_device_procs_cmyk16
gpcl6:gdev_prn_initialize_device_procs_cmyk16_bg
gpcl6:gdev_prn_initialize_device_procs_cmyk1_bg
gpcl6:gdev_prn_initialize_device_procs_cmyk8
gpcl6:gdev_prn_initialize_device_procs_cmyk8_bg
gpcl6:gdev_prn_initialize_device_procs_gray
gpcl6:gdev_prn_initialize_device_procs_gray8
gpcl6:gdev_prn_initialize_device_procs_gray8_bg
gpcl6:gdev_prn_initialize_device_procs_gray_bg
gpcl6:gdev_prn_initialize_device_procs_mono
gpcl6:gdev_prn_initialize_device_procs_mono_bg
gpcl6:gdev_prn_initialize_device_procs_rgb
gpcl6:gdev_prn_initialize_device_procs_rgb_bg
gpcl6:gdev_prn_maybe_realloc_memory
gpcl6:gdev_prn_open
gpcl6:gdev_prn_open_planar
gpcl6:gdev_prn_open_printer
gpcl6:gdev_prn_open_printer_seekable
gpcl6:gdev_prn_output_page
gpcl6:gdev_prn_output_page_seekable
gpcl6:gdev_prn_print_scan_lines
gpcl6:gdev_prn_put_params
gpcl6:gdev_prn_put_params_planar
gpcl6:gdev_prn_reallocate_memory
gpcl6:gdev_prn_render_pages
gpcl6:gdev_prn_save_page
gpcl6:gdev_prn_set_procs_planar
gpcl6:gdev_prn_size_buf_planar
gpcl6:gdev_psdf_get_param
gpcl6:gdev_psdf_get_params
gpcl6:gdev_psdf_put_params
gpcl6:gdev_space_params_cmp
gpcl6:gdev_tiff_begin_page
gpcl6:gdev_vector_begin_image
gpcl6:gdev_vector_close_file
gpcl6:gdev_vector_dev_spec_op
gpcl6:gdev_vector_dopath
gpcl6:gdev_vector_dopath_init
gpcl6:gdev_vector_dopath_segment
gpcl6:gdev_vector_dorect
gpcl6:gdev_vector_end_image
gpcl6:gdev_vector_fill_parallelogram
gpcl6:gdev_vector_fill_path
gpcl6:gdev_vector_fill_rectangle
gpcl6:gdev_vector_fill_trapezoid
gpcl6:gdev_vector_fill_triangle
gpcl6:gdev_vector_get_param
gpcl6:gdev_vector_get_params
gpcl6:gdev_vector_init
gpcl6:gdev_vector_open_file_options
gpcl6:gdev_vector_prepare_fill
gpcl6:gdev_vector_prepare_stroke
gpcl6:gdev_vector_put_params
gpcl6:gdev_vector_reset
gpcl6:gdev_vector_setflat
gpcl6:gdev_vector_stream
gpcl6:gdev_vector_stroke_path
gpcl6:gdev_vector_stroke_scaling
gpcl6:gdev_vector_update_clip_path
gpcl6:gdev_vector_update_fill_color
gpcl6:gdev_vector_update_log_op
gpcl6:gdev_vector_write_clip_path
gpcl6:gdev_vector_write_polygon
gpcl6:gdev_vector_write_rectangle
gpcl6:gdev_write_input_media
gpcl6:gdev_write_input_page_size
gpcl6:gdev_write_output_media
gpcl6:genConstrainedNumaInRange
gpcl6:genPathname
gpcl6:genRandomIntOnInterval
gpcl6:generatePtaBox
gpcl6:generatePtaBoxa
gpcl6:generatePtaFilledCircle
gpcl6:generatePtaFilledSquare
gpcl6:generatePtaGrid
gpcl6:generatePtaHashBox
gpcl6:generatePtaHashBoxa
gpcl6:generatePtaLine
gpcl6:generatePtaLineFromPt
gpcl6:generatePtaPolyline
gpcl6:generatePtaWideLine
gpcl6:generatePtaaBoxa
gpcl6:generatePtaaHashBoxa
gpcl6:generateUncompressedPS
gpcl6:getAffineXformCoeffs
gpcl6:getBilinearXformCoeffs
gpcl6:getCompositeParameters
gpcl6:getCutPathForHole
gpcl6:getExtendedCompositeParameters
gpcl6:getFilenamesInDirectory
gpcl6:getFormatExtension
gpcl6:getImagelibVersions
gpcl6:getImpliedFileFormat
gpcl6:getLeptonicaVersion
gpcl6:getLogBase2
gpcl6:getMorphBorderPixelColor
gpcl6:getNumberedPathnamesInDirectory
gpcl6:getOctcubeIndexFromRGB
gpcl6:getProjectiveXformCoeffs
gpcl6:getRGBFromIndex
gpcl6:getResA4Page
gpcl6:getResLetterPage
gpcl6:getSortedPathnamesInDirectory
gpcl6:getTiffResolution
gpcl6:get_cie_range
gpcl6:get_map
gpcl6:get_u32_msb
gpcl6:get_unpack_proc
gpcl6:gp_can_share_fdesc
gpcl6:gp_close_printer
gpcl6:gp_create_thread
gpcl6:gp_current_directory_name
gpcl6:gp_defaultpapersize
gpcl6:gp_do_exit
gpcl6:gp_enumerate_files_close
gpcl6:gp_enumerate_files_close_impl
gpcl6:gp_enumerate_files_init
gpcl6:gp_enumerate_files_init_impl
gpcl6:gp_enumerate_files_next
gpcl6:gp_enumerate_files_next_impl
gpcl6:gp_enumerate_fonts_free
gpcl6:gp_enumerate_fonts_init
gpcl6:gp_enumerate_fonts_next
gpcl6:gp_exit
gpcl6:gp_fdup_impl
gpcl6:gp_fgets
gpcl6:gp_file_FILE_alloc
gpcl6:gp_file_FILE_set
gpcl6:gp_file_alloc
gpcl6:gp_file_dealloc
gpcl6:gp_file_name_combine
gpcl6:gp_file_name_combine_generic
gpcl6:gp_file_name_current
gpcl6:gp_file_name_cwds
gpcl6:gp_file_name_directory_separator
gpcl6:gp_file_name_good_char
gpcl6:gp_file_name_is_absolute
gpcl6:gp_file_name_is_current
gpcl6:gp_file_name_is_empty_item_meanful
gpcl6:gp_file_name_is_parent
gpcl6:gp_file_name_is_parent_allowed
gpcl6:gp_file_name_list_separator
gpcl6:gp_file_name_parent
gpcl6:gp_file_name_parents
gpcl6:gp_file_name_reduce
gpcl6:gp_file_name_root
gpcl6:gp_file_name_separator
gpcl6:gp_fmode_binary_suffix
gpcl6:gp_fmode_rb
gpcl6:gp_fmode_wb
gpcl6:gp_fopen
gpcl6:gp_fopen_impl
gpcl6:gp_fopentemp
gpcl6:gp_fprintf
gpcl6:gp_fseek_impl
gpcl6:gp_fseekable_impl
gpcl6:gp_ftell_impl
gpcl6:gp_get_debug_mem_ptr
gpcl6:gp_get_globals
gpcl6:gp_get_realtime
gpcl6:gp_get_usertime
gpcl6:gp_getenv
gpcl6:gp_getenv_display
gpcl6:gp_gettmpdir
gpcl6:gp_global_lock
gpcl6:gp_global_unlock
gpcl6:gp_init
gpcl6:gp_monitor_close
gpcl6:gp_monitor_enter
gpcl6:gp_monitor_label
gpcl6:gp_monitor_leave
gpcl6:gp_monitor_open
gpcl6:gp_monitor_sizeof
gpcl6:gp_null_file_name
gpcl6:gp_open_printer
gpcl6:gp_open_printer_impl
gpcl6:gp_open_scratch_file
gpcl6:gp_open_scratch_file_impl
gpcl6:gp_open_scratch_file_rm
gpcl6:gp_pread_impl
gpcl6:gp_pwrite_impl
gpcl6:gp_read_macresource
gpcl6:gp_readline
gpcl6:gp_readline_finit
gpcl6:gp_readline_init
gpcl6:gp_rename
gpcl6:gp_rename_impl
gpcl6:gp_scratch_file_name_prefix
gpcl6:gp_semaphore_close
gpcl6:gp_semaphore_label
gpcl6:gp_semaphore_open
gpcl6:gp_semaphore_signal
gpcl6:gp_semaphore_sizeof
gpcl6:gp_semaphore_wait
gpcl6:gp_serialnumber
gpcl6:gp_set_debug_mem_ptr
gpcl6:gp_setmode_binary_impl
gpcl6:gp_stat
gpcl6:gp_stat_impl
gpcl6:gp_stdin_read
gpcl6:gp_strerror
gpcl6:gp_thread_finish
gpcl6:gp_thread_label
gpcl6:gp_thread_start
gpcl6:gp_unlink
gpcl6:gp_unlink_impl
gpcl6:gp_validate_path
gpcl6:gp_validate_path_len
gpcl6:gp_xpsprint
gpcl6:gplotAddPlot
gpcl6:gplotCreate
gpcl6:gplotDestroy
gpcl6:gplotGenCommandFile
gpcl6:gplotGenDataFiles
gpcl6:gplotGeneralPix1
gpcl6:gplotGeneralPix2
gpcl6:gplotGeneralPixN
gpcl6:gplotMakeOutput
gpcl6:gplotMakeOutputPix
gpcl6:gplotRead
gpcl6:gplotSetScaling
gpcl6:gplotSimple1
gpcl6:gplotSimple2
gpcl6:gplotSimpleN
gpcl6:gplotSimplePix1
gpcl6:gplotSimplePix2
gpcl6:gplotSimplePixN
gpcl6:gplotSimpleXY1
gpcl6:gplotSimpleXY2
gpcl6:gplotSimpleXYN
gpcl6:gplotWrite
gpcl6:gplotfileoutputs
gpcl6:gplotstylenames
gpcl6:grayHistogramsToEMD
gpcl6:grayInterHistogramStats
gpcl6:gray_cs_to_devn_cm
gpcl6:gray_cs_to_gray_cm
gpcl6:gs_PCLm8_device
gpcl6:gs_PCLm_device
gpcl6:gs_abort_pdf14trans_device
gpcl6:gs_activate_path_control
gpcl6:gs_add_control_path
gpcl6:gs_add_control_path_flags
gpcl6:gs_add_control_path_len
gpcl6:gs_add_control_path_len_flags
gpcl6:gs_add_explicit_control_path
gpcl6:gs_add_fs
gpcl6:gs_add_outputfile_control_path
gpcl6:gs_alc1900_device
gpcl6:gs_alc2000_device
gpcl6:gs_alc4000_device
gpcl6:gs_alc4100_device
gpcl6:gs_alc8500_device
gpcl6:gs_alc8600_device
gpcl6:gs_alc9100_device
gpcl6:gs_alloc_fill_alloc
gpcl6:gs_alloc_fill_block
gpcl6:gs_alloc_fill_collected
gpcl6:gs_alloc_fill_deleted
gpcl6:gs_alloc_fill_free
gpcl6:gs_alloc_memset
gpcl6:gs_ap3250_device
gpcl6:gs_appledmp_device
gpcl6:gs_appleraster_device
gpcl6:gs_arc
gpcl6:gs_arc_add
gpcl6:gs_arcn
gpcl6:gs_arcto
gpcl6:gs_ashow_begin
gpcl6:gs_atan2_degrees
gpcl6:gs_attach_colorant_to_space
gpcl6:gs_attachcolorant
gpcl6:gs_atx23_device
gpcl6:gs_atx24_device
gpcl6:gs_atx38_device
gpcl6:gs_awidthshow_begin
gpcl6:gs_band_donor_band_full
gpcl6:gs_band_donor_band_get
gpcl6:gs_band_donor_band_release
gpcl6:gs_band_donor_fin
gpcl6:gs_band_donor_init
gpcl6:gs_base_make_font
gpcl6:gs_base_same_font
gpcl6:gs_bbox_device
gpcl6:gs_bbox_transform
gpcl6:gs_bbox_transform_inverse
gpcl6:gs_bbox_transform_only
gpcl6:gs_begin_transparency_group
gpcl6:gs_begin_transparency_mask
gpcl6:gs_begin_transparency_text_group
gpcl6:gs_bit_device
gpcl6:gs_bitcmyk_device
gpcl6:gs_bitrgb_device
gpcl6:gs_bitrgbtags_device
gpcl6:gs_bj10e_device
gpcl6:gs_bj10v_device
gpcl6:gs_bj10vh_device
gpcl6:gs_bj200_device
gpcl6:gs_bjc600_device
gpcl6:gs_bjc800_device
gpcl6:gs_bjc880j_device
gpcl6:gs_bjccmyk_device
gpcl6:gs_bjccolor_device
gpcl6:gs_bjcgray_device
gpcl6:gs_bjcmono_device
gpcl6:gs_bmp16_device
gpcl6:gs_bmp16m_device
gpcl6:gs_bmp256_device
gpcl6:gs_bmp32b_device
gpcl6:gs_bmpgray_device
gpcl6:gs_bmpmono_device
gpcl6:gs_bmpsep1_device
gpcl6:gs_bmpsep8_device
gpcl6:gs_buildtime
gpcl6:gs_c_decode
gpcl6:gs_c_glyph_name
gpcl6:gs_c_known_encode
gpcl6:gs_c_known_encoding_chars
gpcl6:gs_c_known_encoding_count
gpcl6:gs_c_known_encoding_lengths
gpcl6:gs_c_known_encoding_max_length
gpcl6:gs_c_known_encoding_offsets
gpcl6:gs_c_known_encoding_reverse_lengths
gpcl6:gs_c_known_encoding_total_chars
gpcl6:gs_c_known_encodings
gpcl6:gs_c_known_encodings_reverse
gpcl6:gs_c_min_std_encoding_glyph
gpcl6:gs_c_name_glyph
gpcl6:gs_c_param_list_alloc
gpcl6:gs_c_param_list_read
gpcl6:gs_c_param_list_release
gpcl6:gs_c_param_list_set_target
gpcl6:gs_c_param_list_write
gpcl6:gs_c_param_list_write_more
gpcl6:gs_c_pdf_glyph_type
gpcl6:gs_cached_color_index
gpcl6:gs_cachestatus
gpcl6:gs_ccr_device
gpcl6:gs_cdeskjet_device
gpcl6:gs_cdj1600_device
gpcl6:gs_cdj500_device
gpcl6:gs_cdj550_device
gpcl6:gs_cdj670_device
gpcl6:gs_cdj850_device
gpcl6:gs_cdj880_device
gpcl6:gs_cdj890_device
gpcl6:gs_cdj970_device
gpcl6:gs_cdjcolor_device
gpcl6:gs_cdjmono_device
gpcl6:gs_cdnj500_device
gpcl6:gs_cfax_device
gpcl6:gs_char_flatness
gpcl6:gs_charboxpath_begin
gpcl6:gs_charpath_begin
gpcl6:gs_check_file_permission
gpcl6:gs_chp2200_device
gpcl6:gs_cid0_has_type2
gpcl6:gs_cid0_indexed_font
gpcl6:gs_cie_a_complete
gpcl6:gs_cie_abc_complete
gpcl6:gs_cie_cache_init
gpcl6:gs_cie_cache_to_fracs
gpcl6:gs_cie_cached_value
gpcl6:gs_cie_compute_points_sd
gpcl6:gs_cie_cs_common
gpcl6:gs_cie_cs_complete
gpcl6:gs_cie_def_complete
gpcl6:gs_cie_defg_complete
gpcl6:gs_cie_defx_set_lookup_table
gpcl6:gs_cie_jc_complete
gpcl6:gs_cie_render1_build
gpcl6:gs_cie_render1_init_from
gpcl6:gs_cie_render1_initialize
gpcl6:gs_cie_render1_param_initialize
gpcl6:gs_cie_render_complete
gpcl6:gs_cie_render_init
gpcl6:gs_cie_render_sample
gpcl6:gs_cif_device
gpcl6:gs_clean_fm_pair
gpcl6:gs_clip
gpcl6:gs_clippath
gpcl6:gs_cliprestore
gpcl6:gs_clipsave
gpcl6:gs_cljet5_device
gpcl6:gs_cljet5c_device
gpcl6:gs_cljet5pr_device
gpcl6:gs_closedevice
gpcl6:gs_closepath
gpcl6:gs_cmap_ToUnicode_add_pair
gpcl6:gs_cmap_ToUnicode_alloc
gpcl6:gs_cmap_ToUnicode_check_pair
gpcl6:gs_cmap_ToUnicode_free
gpcl6:gs_cmap_ToUnicode_realloc
gpcl6:gs_cmap_adobe1_alloc
gpcl6:gs_cmap_alloc
gpcl6:gs_cmap_compute_identity
gpcl6:gs_cmap_create_char_identity
gpcl6:gs_cmap_create_identity
gpcl6:gs_cmap_decode_next
gpcl6:gs_cmap_enum_next_entry
gpcl6:gs_cmap_enum_next_lookup
gpcl6:gs_cmap_enum_next_range
gpcl6:gs_cmap_free
gpcl6:gs_cmap_from_type42_cmap
gpcl6:gs_cmap_init
gpcl6:gs_cmap_is_identity
gpcl6:gs_cmap_lookups_enum_init
gpcl6:gs_cmap_lookups_enum_setup
gpcl6:gs_cmap_no_lookups_procs
gpcl6:gs_cmap_ranges_enum_init
gpcl6:gs_cmap_ranges_enum_setup
gpcl6:gs_cname_to_colorant_number
gpcl6:gs_color_index_cache_create
gpcl6:gs_color_index_cache_destroy
gpcl6:gs_color_name_component_number
gpcl6:gs_color_space_get_index
gpcl6:gs_color_space_is_CIE
gpcl6:gs_color_space_is_ICC
gpcl6:gs_color_space_is_PSCIE
gpcl6:gs_color_space_num_components
gpcl6:gs_color_space_restrict_color
gpcl6:gs_color_space_type_CIEA
gpcl6:gs_color_space_type_CIEABC
gpcl6:gs_color_space_type_CIEDEF
gpcl6:gs_color_space_type_CIEDEFG
gpcl6:gs_color_space_type_DeviceN
gpcl6:gs_color_space_type_ICC
gpcl6:gs_color_space_type_Indexed
gpcl6:gs_color_space_type_Indexed_Named
gpcl6:gs_color_space_type_Pattern
gpcl6:gs_color_space_type_Separation
gpcl6:gs_colorspace_set_icc_equivalent
gpcl6:gs_composite_overprint_type
gpcl6:gs_composite_pdf14trans_no_clist_writer_type
gpcl6:gs_composite_pdf14trans_type
gpcl6:gs_concat
gpcl6:gs_copied_can_copy_glyphs
gpcl6:gs_copied_font_add_encoding
gpcl6:gs_copy_font
gpcl6:gs_copy_font_complete
gpcl6:gs_copy_glyph
gpcl6:gs_copy_glyph_options
gpcl6:gs_copydevice
gpcl6:gs_copydevice2
gpcl6:gs_copygstate
gpcl6:gs_copypage
gpcl6:gs_copyright
gpcl6:gs_copyscanlines
gpcl6:gs_cos_degrees
gpcl6:gs_coslw2p_device
gpcl6:gs_coslwxl_device
gpcl6:gs_create_overprint
gpcl6:gs_cshow_begin
gpcl6:gs_cspace_alloc
gpcl6:gs_cspace_base_space
gpcl6:gs_cspace_build_CIEA
gpcl6:gs_cspace_build_CIEABC
gpcl6:gs_cspace_build_CIEDEF
gpcl6:gs_cspace_build_CIEDEFG
gpcl6:gs_cspace_build_ICC
gpcl6:gs_cspace_build_Indexed
gpcl6:gs_cspace_build_Pattern1
gpcl6:gs_cspace_devn_process_space
gpcl6:gs_cspace_get_devn_function
gpcl6:gs_cspace_get_sepr_function
gpcl6:gs_cspace_indexed_lookup
gpcl6:gs_cspace_indexed_lookup_bytes
gpcl6:gs_cspace_indexed_lookup_frac
gpcl6:gs_cspace_indexed_num_entries
gpcl6:gs_cspace_indexed_set_proc
gpcl6:gs_cspace_indexed_value_array
gpcl6:gs_cspace_new_DeviceCMYK
gpcl6:gs_cspace_new_DeviceGray
gpcl6:gs_cspace_new_DeviceN
gpcl6:gs_cspace_new_DevicePixel
gpcl6:gs_cspace_new_DeviceRGB
gpcl6:gs_cspace_new_ICC
gpcl6:gs_cspace_new_Separation
gpcl6:gs_cspace_new_scrgb
gpcl6:gs_cspace_set_devn_function
gpcl6:gs_cspace_set_sepr_function
gpcl6:gs_cups_device
gpcl6:gs_currentPDFfontsize
gpcl6:gs_current_logical_op
gpcl6:gs_currentaccuratecurves
gpcl6:gs_currentaccuratescreens
gpcl6:gs_currentaligntopixels
gpcl6:gs_currentblackgeneration
gpcl6:gs_currentblackptcomp
gpcl6:gs_currentblendmode
gpcl6:gs_currentcachelower
gpcl6:gs_currentcachesize
gpcl6:gs_currentcacheupper
gpcl6:gs_currentcharmatrix
gpcl6:gs_currentcolor
gpcl6:gs_currentcolorrendering
gpcl6:gs_currentcolorscreen
gpcl6:gs_currentcolorspace
gpcl6:gs_currentcolortransfer
gpcl6:gs_currentcpsimode
gpcl6:gs_currentcurvejoin
gpcl6:gs_currentdash_length
gpcl6:gs_currentdash_offset
gpcl6:gs_currentdash_pattern
gpcl6:gs_currentdashadapt
gpcl6:gs_currentdefaultcmykicc
gpcl6:gs_currentdefaultgrayicc
gpcl6:gs_currentdefaultrgbicc
gpcl6:gs_currentdevice
gpcl6:gs_currentdevicecolor
gpcl6:gs_currentdevicenicc
gpcl6:gs_currentdotlength
gpcl6:gs_currentdotlength_absolute
gpcl6:gs_currentfilladjust
gpcl6:gs_currentfilloverprint
gpcl6:gs_currentflat
gpcl6:gs_currentfont
gpcl6:gs_currentgridfittt
gpcl6:gs_currentgstate
gpcl6:gs_currenthalftone
gpcl6:gs_currenthpglpathmode
gpcl6:gs_currenticcdirectory
gpcl6:gs_currentlabicc
gpcl6:gs_currentlimitclamp
gpcl6:gs_currentlinecap
gpcl6:gs_currentlinejoin
gpcl6:gs_currentlineparams
gpcl6:gs_currentlinewidth
gpcl6:gs_currentmatrix
gpcl6:gs_currentminscreenlevels
gpcl6:gs_currentmiterlimit
gpcl6:gs_currentnamedicc
gpcl6:gs_currentoverprint
gpcl6:gs_currentoverprintmode
gpcl6:gs_currentoverrideicc
gpcl6:gs_currentpoint
gpcl6:gs_currentrasterop
gpcl6:gs_currentrenderingintent
gpcl6:gs_currentscreen
gpcl6:gs_currentscreenlevels
gpcl6:gs_currentscreenphase
gpcl6:gs_currentscreenphase_pgs
gpcl6:gs_currentsmoothness
gpcl6:gs_currentsourcetransparent
gpcl6:gs_currentsrcgtagicc
gpcl6:gs_currentstrokeadjust
gpcl6:gs_currentstrokeoverprint
gpcl6:gs_currenttexthscaling
gpcl6:gs_currenttextknockout
gpcl6:gs_currenttextleading
gpcl6:gs_currenttextrenderingmode
gpcl6:gs_currenttextrise
gpcl6:gs_currenttextspacing
gpcl6:gs_currenttexturetransparent
gpcl6:gs_currenttransfer
gpcl6:gs_currentundercolorremoval
gpcl6:gs_currentwordspacing
gpcl6:gs_curveto
gpcl6:gs_dashpath
gpcl6:gs_data_image_t_init
gpcl6:gs_dc_get_pattern_id
gpcl6:gs_debug
gpcl6:gs_debug_c
gpcl6:gs_debug_flag_implied_by
gpcl6:gs_debug_flags
gpcl6:gs_debug_flags_list
gpcl6:gs_debug_flags_parse
gpcl6:gs_declj250_device
gpcl6:gs_default_font_info
gpcl6:gs_default_glyph_info
gpcl6:gs_default_init_fstack
gpcl6:gs_default_next_char_glyph
gpcl6:gs_default_same_font
gpcl6:gs_defaultmatrix
gpcl6:gs_definefont
gpcl6:gs_deskjet_device
gpcl6:gs_dev_defaults
gpcl6:gs_device_is_abuf
gpcl6:gs_device_is_memory
gpcl6:gs_deviceinitialmatrix
gpcl6:gs_devicen_device
gpcl6:gs_devicename
gpcl6:gs_dfaxhigh_device
gpcl6:gs_dfaxlow_device
gpcl6:gs_display_device
gpcl6:gs_distance_transform
gpcl6:gs_distance_transform2fixed
gpcl6:gs_distance_transform_inverse
gpcl6:gs_dj505j_device
gpcl6:gs_djet500_device
gpcl6:gs_djet500c_device
gpcl6:gs_dl2100_device
gpcl6:gs_dnj650c_device
gpcl6:gs_do_set_overprint
gpcl6:gs_doc_directory
gpcl6:gs_docxwrite_device
gpcl6:gs_dotorientation
gpcl6:gs_dtransform
gpcl6:gs_end_transparency_group
gpcl6:gs_end_transparency_mask
gpcl6:gs_end_transparency_text_group
gpcl6:gs_enumerate_files_close
gpcl6:gs_enumerate_files_init
gpcl6:gs_enumerate_files_next
gpcl6:gs_eoclip
gpcl6:gs_eofill
gpcl6:gs_eofillstroke
gpcl6:gs_epl2050_device
gpcl6:gs_epl2050p_device
gpcl6:gs_epl2120_device
gpcl6:gs_epl2500_device
gpcl6:gs_epl2750_device
gpcl6:gs_epl5800_device
gpcl6:gs_epl5900_device
gpcl6:gs_epl6100_device
gpcl6:gs_epl6200_device
gpcl6:gs_eplcolor_device
gpcl6:gs_eplmono_device
gpcl6:gs_epo_device
gpcl6:gs_eps2write_device
gpcl6:gs_eps9high_device
gpcl6:gs_eps9mid_device
gpcl6:gs_epson_device
gpcl6:gs_epsonc_device
gpcl6:gs_erasepage
gpcl6:gs_errstr
gpcl6:gs_escp_device
gpcl6:gs_escpage_device
gpcl6:gs_escpc_device
gpcl6:gs_fapi_available
gpcl6:gs_fapi_do_char
gpcl6:gs_fapi_find_server
gpcl6:gs_fapi_finish_render
gpcl6:gs_fapi_finit
gpcl6:gs_fapi_ft_init
gpcl6:gs_fapi_get_font_info
gpcl6:gs_fapi_get_metrics_count
gpcl6:gs_fapi_get_server_list
gpcl6:gs_fapi_init
gpcl6:gs_fapi_passfont
gpcl6:gs_fapi_prepare_font
gpcl6:gs_fapi_serialize_type1_font
gpcl6:gs_fapi_serialize_type1_font_complete
gpcl6:gs_fapi_serialize_type2_font
gpcl6:gs_fapi_server_inits
gpcl6:gs_fapi_set_servers_client_data
gpcl6:gs_faxg32d_device
gpcl6:gs_faxg3_device
gpcl6:gs_faxg4_device
gpcl6:gs_file_name_check_separator
gpcl6:gs_fill
gpcl6:gs_fillpage
gpcl6:gs_fillstroke
gpcl6:gs_find_compositor
gpcl6:gs_find_font_by_id
gpcl6:gs_findiodevice
gpcl6:gs_flattenpath
gpcl6:gs_flp_device
gpcl6:gs_flushpage
gpcl6:gs_fmlbp_device
gpcl6:gs_fmpr_device
gpcl6:gs_font_alloc
gpcl6:gs_font_base_alloc
gpcl6:gs_font_cid0_enumerate_glyph
gpcl6:gs_font_cid2_from_type42
gpcl6:gs_font_cid_system_info
gpcl6:gs_font_dir_alloc2
gpcl6:gs_font_dir_alloc2_limits
gpcl6:gs_font_dir_free
gpcl6:gs_font_finalize
gpcl6:gs_font_find_similar
gpcl6:gs_font_glyph_is_notdef
gpcl6:gs_font_notify_init
gpcl6:gs_font_notify_register
gpcl6:gs_font_notify_unregister
gpcl6:gs_font_parent
gpcl6:gs_font_procs_default
gpcl6:gs_font_type0_from_cidfont
gpcl6:gs_font_type0_from_type42
gpcl6:gs_fopen_errno_to_code
gpcl6:gs_fpng_device
gpcl6:gs_free_bytestring
gpcl6:gs_free_const_bytestring
gpcl6:gs_free_const_object
gpcl6:gs_free_const_string
gpcl6:gs_free_copied_font
gpcl6:gs_free_file_name
gpcl6:gs_fs600_device
gpcl6:gs_function_1ItSg_free_params
gpcl6:gs_function_1ItSg_init
gpcl6:gs_function_AdOt_free_params
gpcl6:gs_function_AdOt_init
gpcl6:gs_function_ElIn_free_params
gpcl6:gs_function_ElIn_init
gpcl6:gs_function_Sd_free_params
gpcl6:gs_function_Sd_init
gpcl6:gs_function_get_info_default
gpcl6:gs_gdi_device
gpcl6:gs_get_callout_stdin
gpcl6:gs_get_device_or_hw_params
gpcl6:gs_get_fapi_server_inits
gpcl6:gs_get_glyph_data_cached
gpcl6:gs_get_pattern
gpcl6:gs_get_pattern_client_data
gpcl6:gs_get_text_params
gpcl6:gs_getalphaisshape
gpcl6:gs_getdefaultdevice
gpcl6:gs_getdefaultlibdevice
gpcl6:gs_getdevice
gpcl6:gs_getdevparams
gpcl6:gs_getfillconstantalpha
gpcl6:gs_getiodevice
gpcl6:gs_getpattern
gpcl6:gs_getscanconverter
gpcl6:gs_getstrokeconstantalpha
gpcl6:gs_gettextlinematrix
gpcl6:gs_gettextmatrix
gpcl6:gs_globals_init
gpcl6:gs_glyph_cache__alloc
gpcl6:gs_glyph_cache__release
gpcl6:gs_glyph_data_free
gpcl6:gs_glyph_data_from_bytes
gpcl6:gs_glyph_data_from_null
gpcl6:gs_glyph_data_from_string
gpcl6:gs_glyph_data_substring
gpcl6:gs_glyphpath_begin
gpcl6:gs_glyphshow_begin
gpcl6:gs_glyphwidth_begin
gpcl6:gs_grestore
gpcl6:gs_grestore_only
gpcl6:gs_grestoreall
gpcl6:gs_grestoreall_for_restore
gpcl6:gs_gsave
gpcl6:gs_gsave_for_save
gpcl6:gs_gshtscr_init
gpcl6:gs_gstate_alloc
gpcl6:gs_gstate_client_data
gpcl6:gs_gstate_copied
gpcl6:gs_gstate_copy
gpcl6:gs_gstate_currentaccuratecurves
gpcl6:gs_gstate_currentdashadapt
gpcl6:gs_gstate_finalize
gpcl6:gs_gstate_free
gpcl6:gs_gstate_free_chain
gpcl6:gs_gstate_idtransform
gpcl6:gs_gstate_initialize
gpcl6:gs_gstate_memory
gpcl6:gs_gstate_pre_assign
gpcl6:gs_gstate_putdeviceparams
gpcl6:gs_gstate_release
gpcl6:gs_gstate_saved
gpcl6:gs_gstate_set_client
gpcl6:gs_gstate_setflat
gpcl6:gs_gstate_setmatrix
gpcl6:gs_gstate_swap_memory
gpcl6:gs_gstate_swap_saved
gpcl6:gs_gstate_update_overprint
gpcl6:gs_gsub_release
gpcl6:gs_gxclfile_init
gpcl6:gs_gxclmem_init
gpcl6:gs_hl1240_device
gpcl6:gs_hl1250_device
gpcl6:gs_hl7x0_device
gpcl6:gs_hocr_device
gpcl6:gs_hpdj1120c_device
gpcl6:gs_hpdj310_device
gpcl6:gs_hpdj320_device
gpcl6:gs_hpdj340_device
gpcl6:gs_hpdj400_device
gpcl6:gs_hpdj500_device
gpcl6:gs_hpdj500c_device
gpcl6:gs_hpdj510_device
gpcl6:gs_hpdj520_device
gpcl6:gs_hpdj540_device
gpcl6:gs_hpdj550c_device
gpcl6:gs_hpdj560c_device
gpcl6:gs_hpdj600_device
gpcl6:gs_hpdj660c_device
gpcl6:gs_hpdj670c_device
gpcl6:gs_hpdj680c_device
gpcl6:gs_hpdj690c_device
gpcl6:gs_hpdj850c_device
gpcl6:gs_hpdj855c_device
gpcl6:gs_hpdj870c_device
gpcl6:gs_hpdj890c_device
gpcl6:gs_hpdjplus_device
gpcl6:gs_hpdjportable_device
gpcl6:gs_ht_build
gpcl6:gs_ht_install
gpcl6:gs_ht_reference
gpcl6:gs_ht_release
gpcl6:gs_ht_set_mask_comp
gpcl6:gs_ht_set_spot_comp
gpcl6:gs_ht_set_threshold_comp
gpcl6:gs_ibmpro_device
gpcl6:gs_identity_transfer
gpcl6:gs_idtransform
gpcl6:gs_ignore_consolidate_free
gpcl6:gs_ignore_free_object
gpcl6:gs_ignore_free_string
gpcl6:gs_ijs_device
gpcl6:gs_image3_t_init
gpcl6:gs_image3x_t_init
gpcl6:gs_image4_t_init
gpcl6:gs_image_begin_typed
gpcl6:gs_image_bytes_per_plane_row
gpcl6:gs_image_class_0_interpolate
gpcl6:gs_image_class_1_simple
gpcl6:gs_image_class_2_fracs
gpcl6:gs_image_class_3_mono
gpcl6:gs_image_class_4_color
gpcl6:gs_image_cleanup
gpcl6:gs_image_cleanup_and_free_enum
gpcl6:gs_image_common_init
gpcl6:gs_image_common_t_init
gpcl6:gs_image_enum_alloc
gpcl6:gs_image_enum_init
gpcl6:gs_image_init
gpcl6:gs_image_next
gpcl6:gs_image_next_planes
gpcl6:gs_image_planes_wanted
gpcl6:gs_image_t_init_adjust
gpcl6:gs_image_t_init_mask_adjust
gpcl6:gs_image_type_1
gpcl6:gs_image_type_3
gpcl6:gs_image_type_3x
gpcl6:gs_image_type_4
gpcl6:gs_image_type_mask1
gpcl6:gs_imagen_device
gpcl6:gs_imagepath
gpcl6:gs_incachedevice
gpcl6:gs_includecolorspace
gpcl6:gs_indexed_limit_and_lookup
gpcl6:gs_inferno_device
gpcl6:gs_init_file
gpcl6:gs_initclip
gpcl6:gs_initgraphics
gpcl6:gs_initialize_wordimagedevice
gpcl6:gs_initmatrix
gpcl6:gs_ink_cov_device
gpcl6:gs_inkcov_device
gpcl6:gs_iodev_finit
gpcl6:gs_iodev_init
gpcl6:gs_iodev_os
gpcl6:gs_iodev_pipe
gpcl6:gs_iodev_ram
gpcl6:gs_iodev_register_dev
gpcl6:gs_iodev_rom
gpcl6:gs_iodev_stderr
gpcl6:gs_iodev_stdin
gpcl6:gs_iodev_stdout
gpcl6:gs_is_CIDSystemInfo_compatible
gpcl6:gs_is_c_glyph_name
gpcl6:gs_is_null_device
gpcl6:gs_is_overprint_compositor
gpcl6:gs_is_path_control_active
gpcl6:gs_is_pdf14trans_compositor
gpcl6:gs_itk24i_device
gpcl6:gs_itk38_device
gpcl6:gs_itransform
gpcl6:gs_iwhi_device
gpcl6:gs_iwlo_device
gpcl6:gs_iwlq_device
gpcl6:gs_jetp3852_device
gpcl6:gs_jj100_device
gpcl6:gs_jpeg_alloc_huff_table
gpcl6:gs_jpeg_alloc_quant_table
gpcl6:gs_jpeg_create_compress
gpcl6:gs_jpeg_create_decompress
gpcl6:gs_jpeg_destroy
gpcl6:gs_jpeg_device
gpcl6:gs_jpeg_error_setup
gpcl6:gs_jpeg_finish_compress
gpcl6:gs_jpeg_finish_decompress
gpcl6:gs_jpeg_log_error
gpcl6:gs_jpeg_mem_init
gpcl6:gs_jpeg_mem_term
gpcl6:gs_jpeg_read_header
gpcl6:gs_jpeg_read_scanlines
gpcl6:gs_jpeg_set_colorspace
gpcl6:gs_jpeg_set_defaults
gpcl6:gs_jpeg_set_linear_quality
gpcl6:gs_jpeg_set_quality
gpcl6:gs_jpeg_start_compress
gpcl6:gs_jpeg_start_decompress
gpcl6:gs_jpeg_write_scanlines
gpcl6:gs_jpegcmyk_device
gpcl6:gs_jpeggray_device
gpcl6:gs_kshow_begin
gpcl6:gs_kshow_next_char
gpcl6:gs_kshow_previous_char
gpcl6:gs_la50_device
gpcl6:gs_la70_device
gpcl6:gs_la75_device
gpcl6:gs_la75plus_device
gpcl6:gs_laserjet_device
gpcl6:gs_lbp310_device
gpcl6:gs_lbp320_device
gpcl6:gs_lbp8_device
gpcl6:gs_len_glyphs_release
gpcl6:gs_lex2050_device
gpcl6:gs_lex3200_device
gpcl6:gs_lex5700_device
gpcl6:gs_lex7000_device
gpcl6:gs_lib_ctx_callout
gpcl6:gs_lib_ctx_deregister_callout
gpcl6:gs_lib_ctx_fin
gpcl6:gs_lib_ctx_get_act_on_uel
gpcl6:gs_lib_ctx_get_args
gpcl6:gs_lib_ctx_get_cms_context
gpcl6:gs_lib_ctx_get_default_device_list
gpcl6:gs_lib_ctx_get_interp_instance
gpcl6:gs_lib_ctx_init
gpcl6:gs_lib_ctx_nts_adjust
gpcl6:gs_lib_ctx_register_callout
gpcl6:gs_lib_ctx_set_default_device_list
gpcl6:gs_lib_ctx_set_icc_directory
gpcl6:gs_lib_ctx_stash_exe
gpcl6:gs_lib_ctx_stash_sanitized_arg
gpcl6:gs_lib_default_path
gpcl6:gs_lib_device_list
gpcl6:gs_lib_finit
gpcl6:gs_lib_init
gpcl6:gs_lib_init0
gpcl6:gs_lib_init1
gpcl6:gs_lib_register_device
gpcl6:gs_lineto
gpcl6:gs_lips2p_device
gpcl6:gs_lips3_device
gpcl6:gs_lips4_device
gpcl6:gs_lips4v_device
gpcl6:gs_lj250_device
gpcl6:gs_lj3100sw_device
gpcl6:gs_lj4dith_device
gpcl6:gs_lj4dithp_device
gpcl6:gs_lj5gray_device
gpcl6:gs_lj5mono_device
gpcl6:gs_ljet2p_device
gpcl6:gs_ljet3_device
gpcl6:gs_ljet3d_device
gpcl6:gs_ljet4_device
gpcl6:gs_ljet4d_device
gpcl6:gs_ljet4pjl_device
gpcl6:gs_ljetplus_device
gpcl6:gs_ln03_device
gpcl6:gs_log_error
gpcl6:gs_lp1800_device
gpcl6:gs_lp1900_device
gpcl6:gs_lp2000_device
gpcl6:gs_lp2200_device
gpcl6:gs_lp2400_device
gpcl6:gs_lp2500_device
gpcl6:gs_lp2563_device
gpcl6:gs_lp3000c_device
gpcl6:gs_lp7500_device
gpcl6:gs_lp7700_device
gpcl6:gs_lp7900_device
gpcl6:gs_lp8000_device
gpcl6:gs_lp8000c_device
gpcl6:gs_lp8100_device
gpcl6:gs_lp8200c_device
gpcl6:gs_lp8300c_device
gpcl6:gs_lp8300f_device
gpcl6:gs_lp8400f_device
gpcl6:gs_lp8500c_device
gpcl6:gs_lp8600_device
gpcl6:gs_lp8600f_device
gpcl6:gs_lp8700_device
gpcl6:gs_lp8800c_device
gpcl6:gs_lp8900_device
gpcl6:gs_lp9000b_device
gpcl6:gs_lp9000c_device
gpcl6:gs_lp9100_device
gpcl6:gs_lp9200b_device
gpcl6:gs_lp9200c_device
gpcl6:gs_lp9300_device
gpcl6:gs_lp9400_device
gpcl6:gs_lp9500c_device
gpcl6:gs_lp9600_device
gpcl6:gs_lp9600s_device
gpcl6:gs_lp9800c_device
gpcl6:gs_lps4500_device
gpcl6:gs_lps6500_device
gpcl6:gs_lq850_device
gpcl6:gs_lxm3200_device
gpcl6:gs_lxm5700m_device
gpcl6:gs_m8510_device
gpcl6:gs_make_identity
gpcl6:gs_make_mem_abuf_device
gpcl6:gs_make_mem_device
gpcl6:gs_make_mem_device_with_copydevice
gpcl6:gs_make_mem_mono_device
gpcl6:gs_make_mem_mono_device_with_copydevice
gpcl6:gs_make_null_device
gpcl6:gs_make_pattern
gpcl6:gs_make_pattern_common
gpcl6:gs_make_rotation
gpcl6:gs_make_scaling
gpcl6:gs_make_translation
gpcl6:gs_makebitmappattern_xform
gpcl6:gs_makefont
gpcl6:gs_makepattern
gpcl6:gs_makepixmappattern
gpcl6:gs_makewordimagedevice
gpcl6:gs_malloc_init
gpcl6:gs_malloc_init_with_context
gpcl6:gs_malloc_memory_init
gpcl6:gs_malloc_release
gpcl6:gs_malloc_unwrap
gpcl6:gs_malloc_wrap
gpcl6:gs_malloc_wrapped_contents
gpcl6:gs_mapped_transfer
gpcl6:gs_mask_clip_device
gpcl6:gs_matrix_compare
gpcl6:gs_matrix_fixed_from_matrix
gpcl6:gs_matrix_invert
gpcl6:gs_matrix_invert_to_double
gpcl6:gs_matrix_multiply
gpcl6:gs_matrix_multiply_double
gpcl6:gs_matrix_rotate
gpcl6:gs_matrix_scale
gpcl6:gs_matrix_translate
gpcl6:gs_md1xMono_device
gpcl6:gs_md2k_device
gpcl6:gs_md50Eco_device
gpcl6:gs_md50Mono_device
gpcl6:gs_md5_append
gpcl6:gs_md5_finish
gpcl6:gs_md5_init
gpcl6:gs_md5k_device
gpcl6:gs_memory_chunk_release
gpcl6:gs_memory_chunk_target
gpcl6:gs_memory_chunk_unwrap
gpcl6:gs_memory_chunk_wrap
gpcl6:gs_memory_gc_status
gpcl6:gs_memory_retrying_init
gpcl6:gs_memory_retrying_release
gpcl6:gs_memory_retrying_set_recover
gpcl6:gs_memory_retrying_target
gpcl6:gs_memory_set_gc_status
gpcl6:gs_memory_set_vm_reclaim
gpcl6:gs_memory_set_vm_threshold
gpcl6:gs_mgl_e_ps
gpcl6:gs_mgr4_device
gpcl6:gs_mgr8_device
gpcl6:gs_mgrgray2_device
gpcl6:gs_mgrgray4_device
gpcl6:gs_mgrgray8_device
gpcl6:gs_mgrmono_device
gpcl6:gs_miff24_device
gpcl6:gs_mj500c_device
gpcl6:gs_mj6000c_device
gpcl6:gs_mj700v2c_device
gpcl6:gs_mj8000c_device
gpcl6:gs_ml600_device
gpcl6:gs_moveto
gpcl6:gs_moveto_aux
gpcl6:gs_mro_e_ps
gpcl6:gs_necp6_device
gpcl6:gs_newpath
gpcl6:gs_next_ids
gpcl6:gs_no_build_char
gpcl6:gs_no_decode_glyph
gpcl6:gs_no_define_font
gpcl6:gs_no_encode_char
gpcl6:gs_no_enumerate_glyph
gpcl6:gs_no_glyph_name
gpcl6:gs_no_glyph_outline
gpcl6:gs_no_make_font
gpcl6:gs_no_struct_enum_ptrs
gpcl6:gs_no_struct_reloc_ptrs
gpcl6:gs_nogc_reclaim
gpcl6:gs_notify_all
gpcl6:gs_notify_init
gpcl6:gs_notify_register
gpcl6:gs_notify_release
gpcl6:gs_notify_unregister
gpcl6:gs_notify_unregister_calling
gpcl6:gs_npdl_device
gpcl6:gs_null_device
gpcl6:gs_nulldevice
gpcl6:gs_nullpage_device
gpcl6:gs_nup_device
gpcl6:gs_obj_filter_device
gpcl6:gs_oce9050_device
gpcl6:gs_ocr_device
gpcl6:gs_oki182_device
gpcl6:gs_oki4w_device
gpcl6:gs_okiibm_device
gpcl6:gs_opendevice
gpcl6:gs_oprp_device
gpcl6:gs_opvp_device
gpcl6:gs_output_page
gpcl6:gs_overprint_device
gpcl6:gs_paintjet_device
gpcl6:gs_pam_device
gpcl6:gs_pamcmyk32_device
gpcl6:gs_pamcmyk4_device
gpcl6:gs_param_list_add_parsed_value
gpcl6:gs_param_list_add_tokens
gpcl6:gs_param_list_dump
gpcl6:gs_param_list_init
gpcl6:gs_param_list_serialize
gpcl6:gs_param_list_set_persist_keys
gpcl6:gs_param_list_to_string
gpcl6:gs_param_list_unserialize
gpcl6:gs_param_read_items
gpcl6:gs_param_request_default
gpcl6:gs_param_requested_default
gpcl6:gs_param_string_eq
gpcl6:gs_param_type_base_sizes
gpcl6:gs_param_type_sizes
gpcl6:gs_param_typed_value_enum_ptrs
gpcl6:gs_param_typed_value_reloc_ptrs
gpcl6:gs_param_write_items
gpcl6:gs_parse_file_name
gpcl6:gs_parse_real_file_name
gpcl6:gs_path_enum_alloc
gpcl6:gs_path_enum_cleanup
gpcl6:gs_path_enum_copy_init
gpcl6:gs_path_enum_next
gpcl6:gs_pattern1_init
gpcl6:gs_pattern1_remap_color
gpcl6:gs_pattern2_init
gpcl6:gs_pattern2_set_shfill
gpcl6:gs_pattern_common_init
gpcl6:gs_pattern_reference
gpcl6:gs_pbm_device
gpcl6:gs_pbmraw_device
gpcl6:gs_pcl3_device
gpcl6:gs_pcl_mono_palette_device
gpcl6:gs_pcx16_device
gpcl6:gs_pcx24b_device
gpcl6:gs_pcx256_device
gpcl6:gs_pcxcmyk_device
gpcl6:gs_pcxgray_device
gpcl6:gs_pcxmono_device
gpcl6:gs_pdf14_CMYK_device
gpcl6:gs_pdf14_CMYKspot_device
gpcl6:gs_pdf14_Gray_device
gpcl6:gs_pdf14_Grayspot_device
gpcl6:gs_pdf14_RGB_device
gpcl6:gs_pdf14_RGBspot_device
gpcl6:gs_pdf14_custom_device
gpcl6:gs_pdf14_device_color_mon_set
gpcl6:gs_pdfimage24_device
gpcl6:gs_pdfimage32_device
gpcl6:gs_pdfimage8_device
gpcl6:gs_pdfocr24_device
gpcl6:gs_pdfocr32_device
gpcl6:gs_pdfocr8_device
gpcl6:gs_pdfwrite_device
gpcl6:gs_pgm_device
gpcl6:gs_pgmraw_device
gpcl6:gs_pgnm_device
gpcl6:gs_pgnmraw_device
gpcl6:gs_photoex_device
gpcl6:gs_picty180_device
gpcl6:gs_pixel_image_t_init
gpcl6:gs_pj_device
gpcl6:gs_pjetxl_device
gpcl6:gs_pjxl300_device
gpcl6:gs_pjxl_device
gpcl6:gs_pkm_device
gpcl6:gs_pkmraw_device
gpcl6:gs_pksm_device
gpcl6:gs_pksmraw_device
gpcl6:gs_plan9bm_device
gpcl6:gs_plan_device
gpcl6:gs_planc_device
gpcl6:gs_plang_device
gpcl6:gs_plank_device
gpcl6:gs_planm_device
gpcl6:gs_planr_device
gpcl6:gs_plib_device
gpcl6:gs_plibc_device
gpcl6:gs_plibg_device
gpcl6:gs_plibk_device
gpcl6:gs_plibm_device
gpcl6:gs_png16_device
gpcl6:gs_png16m_device
gpcl6:gs_png16malpha_device
gpcl6:gs_png256_device
gpcl6:gs_png48_device
gpcl6:gs_pngalpha_device
gpcl6:gs_pnggray_device
gpcl6:gs_pngmono_device
gpcl6:gs_pngmonod_device
gpcl6:gs_pnm_device
gpcl6:gs_pnmcmyk_device
gpcl6:gs_pnmraw_device
gpcl6:gs_point_transform
gpcl6:gs_point_transform2fixed
gpcl6:gs_point_transform2fixed_rounding
gpcl6:gs_point_transform_inverse
gpcl6:gs_points_bbox
gpcl6:gs_pop_pdf14trans_device
gpcl6:gs_pop_transparency_state
gpcl6:gs_ppm_device
gpcl6:gs_ppmraw_device
gpcl6:gs_pr1000_4_device
gpcl6:gs_pr1000_device
gpcl6:gs_pr150_device
gpcl6:gs_pr201_device
gpcl6:gs_product
gpcl6:gs_productfamily
gpcl6:gs_program_family_name
gpcl6:gs_program_name
gpcl6:gs_ps2write_device
gpcl6:gs_psdcmyk16_device
gpcl6:gs_psdcmyk_device
gpcl6:gs_psdcmykog_device
gpcl6:gs_psdcmyktags16_device
gpcl6:gs_psdcmyktags_device
gpcl6:gs_psdrgb16_device
gpcl6:gs_psdrgb_device
gpcl6:gs_purge_control_paths
gpcl6:gs_purge_fm_pair
gpcl6:gs_purge_font
gpcl6:gs_purge_font_from_char_caches
gpcl6:gs_purge_font_from_char_caches_completely
gpcl6:gs_purge_scratch_files
gpcl6:gs_push_pdf14trans_device
gpcl6:gs_push_transparency_state
gpcl6:gs_putdeviceparams
gpcl6:gs_putdevparams
gpcl6:gs_pwgraster_device
gpcl6:gs_pxlcolor_device
gpcl6:gs_pxlmono_device
gpcl6:gs_r4081_device
gpcl6:gs_raw_alloc_struct_immovable
gpcl6:gs_rcurveto
gpcl6:gs_realloc
gpcl6:gs_rectappend
gpcl6:gs_rectclip
gpcl6:gs_rectfill
gpcl6:gs_rectstroke
gpcl6:gs_ref_memory_procs
gpcl6:gs_register_struct_root
gpcl6:gs_remove_control_path
gpcl6:gs_remove_control_path_flags
gpcl6:gs_remove_control_path_len
gpcl6:gs_remove_control_path_len_flags
gpcl6:gs_remove_fs
gpcl6:gs_remove_outputfile_control_path
gpcl6:gs_resize_struct_array
gpcl6:gs_return_check_interrupt
gpcl6:gs_reversepath
gpcl6:gs_revision
gpcl6:gs_revision_number
gpcl6:gs_revisiondate
gpcl6:gs_rinkj_device
gpcl6:gs_rlineto
gpcl6:gs_rmoveto
gpcl6:gs_romfs
gpcl6:gs_romfs_buildtime
gpcl6:gs_rootfont
gpcl6:gs_rotate
gpcl6:gs_rpdl_device
gpcl6:gs_samsunggdi_device
gpcl6:gs_scale
gpcl6:gs_scalefont
gpcl6:gs_screen_currentpoint
gpcl6:gs_screen_enum_alloc
gpcl6:gs_screen_enum_init_memory
gpcl6:gs_screen_init
gpcl6:gs_screen_init_memory
gpcl6:gs_screen_install
gpcl6:gs_screen_next
gpcl6:gs_screen_order_alloc
gpcl6:gs_screen_order_init_memory
gpcl6:gs_serialnumber
gpcl6:gs_setPDFfontsize
gpcl6:gs_set_currentfont
gpcl6:gs_set_logical_op
gpcl6:gs_setaccuratecurves
gpcl6:gs_setaccuratescreens
gpcl6:gs_setaligntopixels
gpcl6:gs_setalphaisshape
gpcl6:gs_setbbox
gpcl6:gs_setblackgeneration
gpcl6:gs_setblackgeneration_remap
gpcl6:gs_setblackptcomp
gpcl6:gs_setblendmode
gpcl6:gs_setcachedevice2_double
gpcl6:gs_setcachedevice2_float
gpcl6:gs_setcachedevice_double
gpcl6:gs_setcachedevice_float
gpcl6:gs_setcachelower
gpcl6:gs_setcachesize
gpcl6:gs_setcacheupper
gpcl6:gs_setcharmatrix
gpcl6:gs_setcharwidth
gpcl6:gs_setcmykcolor
gpcl6:gs_setcolor
gpcl6:gs_setcolorrendering
gpcl6:gs_setcolorscreen
gpcl6:gs_setcolorspace
gpcl6:gs_setcolorspace_only
gpcl6:gs_setcolortransfer
gpcl6:gs_setcolortransfer_remap
gpcl6:gs_setcpsimode
gpcl6:gs_setcurvejoin
gpcl6:gs_setdash
gpcl6:gs_setdashadapt
gpcl6:gs_setdefaultcmykicc
gpcl6:gs_setdefaultgrayicc
gpcl6:gs_setdefaultmatrix
gpcl6:gs_setdefaultrgbicc
gpcl6:gs_setdevice
gpcl6:gs_setdevice_no_erase
gpcl6:gs_setdevice_no_init
gpcl6:gs_setdevicenprofileicc
gpcl6:gs_setdotlength
gpcl6:gs_setdotorientation
gpcl6:gs_setfilladjust
gpcl6:gs_setfillconstantalpha
gpcl6:gs_setfilloverprint
gpcl6:gs_setflat
gpcl6:gs_setfont
gpcl6:gs_setgray
gpcl6:gs_setgridfittt
gpcl6:gs_setgstate
gpcl6:gs_sethalftone
gpcl6:gs_sethalftone_allocated
gpcl6:gs_sethalftone_prepare
gpcl6:gs_sethpglpathmode
gpcl6:gs_seticcdirectory
gpcl6:gs_setlabicc
gpcl6:gs_setlimitclamp
gpcl6:gs_setlinecap
gpcl6:gs_setlinedashcap
gpcl6:gs_setlineendcap
gpcl6:gs_setlinejoin
gpcl6:gs_setlinestartcap
gpcl6:gs_setlinewidth
gpcl6:gs_setmatrix
gpcl6:gs_setminscreenlevels
gpcl6:gs_setmiterlimit
gpcl6:gs_setnamedprofileicc
gpcl6:gs_setnullcolor
gpcl6:gs_setoverprint
gpcl6:gs_setoverprintmode
gpcl6:gs_setoverrideicc
gpcl6:gs_setpattern
gpcl6:gs_setpatternspace
gpcl6:gs_setrasterop
gpcl6:gs_setrenderingintent
gpcl6:gs_setrgbcolor
gpcl6:gs_setscanconverter
gpcl6:gs_setscreen
gpcl6:gs_setscreenphase
gpcl6:gs_setsmoothness
gpcl6:gs_setsourcetransparent
gpcl6:gs_setsrcgtagicc
gpcl6:gs_setstrokeadjust
gpcl6:gs_setstrokeconstantalpha
gpcl6:gs_setstrokeoverprint
gpcl6:gs_settexthscaling
gpcl6:gs_settextknockout
gpcl6:gs_settextleading
gpcl6:gs_settextlinematrix
gpcl6:gs_settextmatrix
gpcl6:gs_settextrenderingmode
gpcl6:gs_settextrise
gpcl6:gs_settextspacing
gpcl6:gs_settexturetransparent
gpcl6:gs_settocharmatrix
gpcl6:gs_settransfer
gpcl6:gs_settransfer_remap
gpcl6:gs_setundercolorremoval
gpcl6:gs_setundercolorremoval_remap
gpcl6:gs_setwordspacing
gpcl6:gs_shading_A_fill_rectangle
gpcl6:gs_shading_A_init
gpcl6:gs_shading_A_params_init
gpcl6:gs_shading_Cp_fill_rectangle
gpcl6:gs_shading_Cp_init
gpcl6:gs_shading_Cp_params_init
gpcl6:gs_shading_Fb_fill_rectangle
gpcl6:gs_shading_Fb_init
gpcl6:gs_shading_Fb_params_init
gpcl6:gs_shading_FfGt_fill_rectangle
gpcl6:gs_shading_FfGt_init
gpcl6:gs_shading_FfGt_params_init
gpcl6:gs_shading_LfGt_fill_rectangle
gpcl6:gs_shading_LfGt_init
gpcl6:gs_shading_LfGt_params_init
gpcl6:gs_shading_R_fill_rectangle
gpcl6:gs_shading_R_init
gpcl6:gs_shading_R_params_init
gpcl6:gs_shading_Tpp_fill_rectangle
gpcl6:gs_shading_Tpp_init
gpcl6:gs_shading_Tpp_params_init
gpcl6:gs_shading_do_fill_rectangle
gpcl6:gs_shading_path_add_box
gpcl6:gs_shfill
gpcl6:gs_show_begin
gpcl6:gs_show_current_char
gpcl6:gs_show_current_font
gpcl6:gs_show_current_glyph
gpcl6:gs_show_current_width
gpcl6:gs_show_enum_alloc
gpcl6:gs_show_enum_release
gpcl6:gs_show_in_charpath
gpcl6:gs_show_next
gpcl6:gs_show_width
gpcl6:gs_show_width_only
gpcl6:gs_sin_degrees
gpcl6:gs_sincos_degrees
gpcl6:gs_sj48_device
gpcl6:gs_snprintf
gpcl6:gs_spotcmyk_device
gpcl6:gs_sprintf
gpcl6:gs_sqrt
gpcl6:gs_st800_device
gpcl6:gs_stcolor_device
gpcl6:gs_stringwidth_begin
gpcl6:gs_strlcat
gpcl6:gs_strlcpy
gpcl6:gs_stroke
gpcl6:gs_strokepath
gpcl6:gs_strokepath2
gpcl6:gs_strtok
gpcl6:gs_struct_type_name
gpcl6:gs_struct_type_size
gpcl6:gs_swapcolors_quick
gpcl6:gs_sxlcrt_device
gpcl6:gs_t4693d2_device
gpcl6:gs_t4693d4_device
gpcl6:gs_t4693d8_device
gpcl6:gs_tek4696_device
gpcl6:gs_terminate_file_name
gpcl6:gs_text_begin
gpcl6:gs_text_count_chars
gpcl6:gs_text_current_char
gpcl6:gs_text_current_font
gpcl6:gs_text_current_glyph
gpcl6:gs_text_current_width
gpcl6:gs_text_enum_alloc
gpcl6:gs_text_enum_copy_dynamic
gpcl6:gs_text_enum_init
gpcl6:gs_text_is_width_only
gpcl6:gs_text_next_char
gpcl6:gs_text_process
gpcl6:gs_text_release
gpcl6:gs_text_replaced_width
gpcl6:gs_text_restart
gpcl6:gs_text_resync
gpcl6:gs_text_retry
gpcl6:gs_text_set_cache
gpcl6:gs_text_setcachedevice
gpcl6:gs_text_setcachedevice2
gpcl6:gs_text_setcharwidth
gpcl6:gs_text_total_width
gpcl6:gs_text_update_dev_color
gpcl6:gs_throw_imp
gpcl6:gs_tiff12nc_device
gpcl6:gs_tiff24nc_device
gpcl6:gs_tiff32nc_device
gpcl6:gs_tiff48nc_device
gpcl6:gs_tiff64nc_device
gpcl6:gs_tiffcrle_device
gpcl6:gs_tiffg32d_device
gpcl6:gs_tiffg3_device
gpcl6:gs_tiffg4_device
gpcl6:gs_tiffgray_device
gpcl6:gs_tifflzw_device
gpcl6:gs_tiffpack_device
gpcl6:gs_tiffscaled24_device
gpcl6:gs_tiffscaled32_device
gpcl6:gs_tiffscaled4_device
gpcl6:gs_tiffscaled8_device
gpcl6:gs_tiffscaled_device
gpcl6:gs_tiffsep1_device
gpcl6:gs_tiffsep_device
gpcl6:gs_trans_group_params_init
gpcl6:gs_trans_mask_params_init
gpcl6:gs_transform
gpcl6:gs_translate
gpcl6:gs_translate_untransformed
gpcl6:gs_truetype_font_info
gpcl6:gs_txtwrite_device
gpcl6:gs_type0_define_font
gpcl6:gs_type0_init_fstack
gpcl6:gs_type0_make_font
gpcl6:gs_type0_next_char_glyph
gpcl6:gs_type1_blend
gpcl6:gs_type1_check_float
gpcl6:gs_type1_decrypt
gpcl6:gs_type1_encrypt
gpcl6:gs_type1_endchar
gpcl6:gs_type1_finish_init
gpcl6:gs_type1_glyph_info
gpcl6:gs_type1_interp_init
gpcl6:gs_type1_interpret
gpcl6:gs_type1_piece_codes
gpcl6:gs_type1_sbw
gpcl6:gs_type1_seac
gpcl6:gs_type1_set_callback_data
gpcl6:gs_type1_set_lsb
gpcl6:gs_type1_set_width
gpcl6:gs_type2_interpret
gpcl6:gs_type42_append
gpcl6:gs_type42_default_get_metrics
gpcl6:gs_type42_enumerate_glyph
gpcl6:gs_type42_find_post_name
gpcl6:gs_type42_font_info
gpcl6:gs_type42_font_init
gpcl6:gs_type42_get_metrics
gpcl6:gs_type42_get_outline_from_TT_file
gpcl6:gs_type42_glyph_info
gpcl6:gs_type42_glyph_info_by_gid
gpcl6:gs_type42_glyph_outline
gpcl6:gs_type42_parse_component
gpcl6:gs_type42_read_data
gpcl6:gs_type42_substitute_glyph_index_vertical
gpcl6:gs_uniprint_device
gpcl6:gs_upathbbox
gpcl6:gs_update_trans_marking_params
gpcl6:gs_updatematrices
gpcl6:gs_upmergepath
gpcl6:gs_urf_device
gpcl6:gs_vsnprintf
gpcl6:gs_vsprintf
gpcl6:gs_widthshow_begin
gpcl6:gs_woff2sfnt_buffer
gpcl6:gs_woff2sfnt_stream
gpcl6:gs_xcf_device
gpcl6:gs_xcfcmyk_device
gpcl6:gs_xes_device
gpcl6:gs_xpswrite_device
gpcl6:gs_xyshow_begin
gpcl6:gsapi_activate_path_control
gpcl6:gsapi_add_control_path
gpcl6:gsapi_add_fs
gpcl6:gsapi_delete_instance
gpcl6:gsapi_deregister_callout
gpcl6:gsapi_enumerate_params
gpcl6:gsapi_exit
gpcl6:gsapi_get_default_device_list
gpcl6:gsapi_get_param
gpcl6:gsapi_init_with_args
gpcl6:gsapi_is_path_control_active
gpcl6:gsapi_new_instance
gpcl6:gsapi_purge_control_paths
gpcl6:gsapi_register_callout
gpcl6:gsapi_remove_control_path
gpcl6:gsapi_remove_fs
gpcl6:gsapi_revision
gpcl6:gsapi_run_file
gpcl6:gsapi_run_string
gpcl6:gsapi_run_string_begin
gpcl6:gsapi_run_string_continue
gpcl6:gsapi_run_string_end
gpcl6:gsapi_run_string_with_length
gpcl6:gsapi_set_arg_encoding
gpcl6:gsapi_set_default_device_list
gpcl6:gsapi_set_display_callback
gpcl6:gsapi_set_param
gpcl6:gsapi_set_poll
gpcl6:gsapi_set_poll_with_handle
gpcl6:gsapi_set_stdio
gpcl6:gsapi_set_stdio_with_handle
gpcl6:gsbittab_dummy
gpcl6:gscms_avoid_white_fix_flag
gpcl6:gscms_create
gpcl6:gscms_destroy
gpcl6:gscms_get_clrtname
gpcl6:gscms_get_device_class
gpcl6:gscms_get_input_channel_count
gpcl6:gscms_get_link
gpcl6:gscms_get_link_dim
gpcl6:gscms_get_link_proof_devlink
gpcl6:gscms_get_name2device_link
gpcl6:gscms_get_numberclrtnames
gpcl6:gscms_get_output_channel_count
gpcl6:gscms_get_profile_data_space
gpcl6:gscms_get_profile_handle_file
gpcl6:gscms_get_profile_handle_mem
gpcl6:gscms_is_device_link
gpcl6:gscms_is_input
gpcl6:gscms_is_threadsafe
gpcl6:gscms_release_link
gpcl6:gscms_release_profile
gpcl6:gscms_transform_color
gpcl6:gscms_transform_color_buffer
gpcl6:gscms_transform_color_const
gpcl6:gscms_transform_named_color
gpcl6:gsicc_add_cs
gpcl6:gsicc_adjust_profile_rc
gpcl6:gsicc_alloc_link_dev
gpcl6:gsicc_alloc_link_entry
gpcl6:gsicc_blacktext_state_new
gpcl6:gsicc_cache_new
gpcl6:gsicc_clone_profile
gpcl6:gsicc_create_from_cal
gpcl6:gsicc_create_froma
gpcl6:gsicc_create_fromabc
gpcl6:gsicc_create_fromcrd
gpcl6:gsicc_create_fromdef
gpcl6:gsicc_create_fromdefg
gpcl6:gsicc_create_getv2buffer
gpcl6:gsicc_currentcoloraccuracy
gpcl6:gsicc_extract_profile
gpcl6:gsicc_find_cs
gpcl6:gsicc_findcachelink
gpcl6:gsicc_finddevicen
gpcl6:gsicc_free_link_dev
gpcl6:gsicc_get_default_type
gpcl6:gsicc_get_dev_icccolorants
gpcl6:gsicc_get_device_class
gpcl6:gsicc_get_device_profile_comps
gpcl6:gsicc_get_gscs_profile
gpcl6:gsicc_get_hash
gpcl6:gsicc_get_icc_buff_hash
gpcl6:gsicc_get_link
gpcl6:gsicc_get_link_profile
gpcl6:gsicc_get_profile_handle_buffer
gpcl6:gsicc_get_profile_handle_clist
gpcl6:gsicc_get_profile_handle_file
gpcl6:gsicc_getprofilesize
gpcl6:gsicc_getprofilevers
gpcl6:gsicc_getsrc_channel_count
gpcl6:gsicc_init_buffer
gpcl6:gsicc_init_device_profile_struct
gpcl6:gsicc_init_gs_colors
gpcl6:gsicc_init_hash_cs
gpcl6:gsicc_init_iccmanager
gpcl6:gsicc_init_profile_info
gpcl6:gsicc_initialize_default_profile
gpcl6:gsicc_initialize_iccsmask
gpcl6:gsicc_is_default_profile
gpcl6:gsicc_link_free
gpcl6:gsicc_manager_new
gpcl6:gsicc_mcm_begin_monitor
gpcl6:gsicc_mcm_end_monitor
gpcl6:gsicc_mcm_monitor_cmyk
gpcl6:gsicc_mcm_monitor_lab
gpcl6:gsicc_mcm_monitor_rgb
gpcl6:gsicc_mcm_set_link
gpcl6:gsicc_new_device_profile_array
gpcl6:gsicc_new_iccsmask
gpcl6:gsicc_nocm_get_link
gpcl6:gsicc_open_search
gpcl6:gsicc_profile_from_ps
gpcl6:gsicc_profile_new
gpcl6:gsicc_profile_serialize
gpcl6:gsicc_profilecache_new
gpcl6:gsicc_profiles_equal
gpcl6:gsicc_rcm_get_link
gpcl6:gsicc_read_serial_icc
gpcl6:gsicc_release_link
gpcl6:gsicc_restore_black_text
gpcl6:gsicc_set_device_blackpreserve
gpcl6:gsicc_set_device_blackptcomp
gpcl6:gsicc_set_device_profile
gpcl6:gsicc_set_device_profile_colorants
gpcl6:gsicc_set_device_profile_intent
gpcl6:gsicc_set_devicen_equiv_colors
gpcl6:gsicc_set_gscs_profile
gpcl6:gsicc_set_icc_range
gpcl6:gsicc_set_iccsmaskprofile
gpcl6:gsicc_set_profile
gpcl6:gsicc_setcoloraccuracy
gpcl6:gsicc_setrange_lab
gpcl6:gsicc_support_named_color
gpcl6:gsicc_transform_named_color
gpcl6:gsicc_use_fast_color
gpcl6:gstate_pattern_cache
gpcl6:gstate_set_pattern_cache
gpcl6:gx_abort_trans_device
gpcl6:gx_add_cached_char
gpcl6:gx_add_char_bits
gpcl6:gx_add_fm_pair
gpcl6:gx_alloc_char_bits
gpcl6:gx_alloc_rop_texture_device
gpcl6:gx_backwards_compatible_gray_encode
gpcl6:gx_begin_image1
gpcl6:gx_begin_image3_generic
gpcl6:gx_begin_image3x_generic
gpcl6:gx_begin_transparency_group
gpcl6:gx_begin_transparency_mask
gpcl6:gx_bits_cache_alloc
gpcl6:gx_bits_cache_chunk_init
gpcl6:gx_bits_cache_free
gpcl6:gx_bits_cache_init
gpcl6:gx_bits_cache_shorten
gpcl6:gx_blank_get_bits_rectangle
gpcl6:gx_blend_image_buffer
gpcl6:gx_blend_image_buffer16
gpcl6:gx_blend_image_buffer8to16
gpcl6:gx_build_blended_image_row
gpcl6:gx_build_blended_image_row16
gpcl6:gx_build_cie_space
gpcl6:gx_callout
gpcl6:gx_change_color_model
gpcl6:gx_char_cache_alloc
gpcl6:gx_char_cache_init
gpcl6:gx_check_fixed_diff_overflow
gpcl6:gx_check_fixed_sum_overflow
gpcl6:gx_cie_check_rendering
gpcl6:gx_cie_common_complete
gpcl6:gx_cie_load_common_cache
gpcl6:gx_cie_real_remap_finish
gpcl6:gx_cie_remap_finish
gpcl6:gx_cie_to_xyz_alloc
gpcl6:gx_cie_to_xyz_free
gpcl6:gx_cie_xyz_remap_finish
gpcl6:gx_clip_list_free
gpcl6:gx_clip_list_init
gpcl6:gx_clip_to_path
gpcl6:gx_clip_to_rectangle
gpcl6:gx_color_frac_map
gpcl6:gx_color_index2usage
gpcl6:gx_color_info_equal
gpcl6:gx_color_interpolate_linear
gpcl6:gx_color_interpolate_nearest
gpcl6:gx_color_space_needs_cie_caches
gpcl6:gx_complete_halftone
gpcl6:gx_compute_ccache_key
gpcl6:gx_compute_cell_values
gpcl6:gx_compute_char_matrix
gpcl6:gx_compute_text_oversampling
gpcl6:gx_concrete_space_CIE
gpcl6:gx_concretize_CIEA
gpcl6:gx_concretize_CIEABC
gpcl6:gx_concretize_CIEDEF
gpcl6:gx_concretize_CIEDEFG
gpcl6:gx_concretize_DeviceCMYK
gpcl6:gx_concretize_DeviceGray
gpcl6:gx_concretize_DeviceRGB
gpcl6:gx_copy_alpha_unaligned
gpcl6:gx_copy_color_unaligned
gpcl6:gx_copy_device_procs
gpcl6:gx_copy_mono_unaligned
gpcl6:gx_cpath_accum_begin
gpcl6:gx_cpath_accum_discard
gpcl6:gx_cpath_accum_end
gpcl6:gx_cpath_accum_set_cbox
gpcl6:gx_cpath_alloc_shared
gpcl6:gx_cpath_assign_free
gpcl6:gx_cpath_assign_preserve
gpcl6:gx_cpath_clip
gpcl6:gx_cpath_copy
gpcl6:gx_cpath_ensure_path_list
gpcl6:gx_cpath_enum_init
gpcl6:gx_cpath_enum_next
gpcl6:gx_cpath_enum_notes
gpcl6:gx_cpath_free
gpcl6:gx_cpath_from_rectangle
gpcl6:gx_cpath_includes_rectangle
gpcl6:gx_cpath_init_contained_shared
gpcl6:gx_cpath_init_local_shared
gpcl6:gx_cpath_init_local_shared_nested
gpcl6:gx_cpath_inner_box
gpcl6:gx_cpath_intersect
gpcl6:gx_cpath_intersect_path_slow
gpcl6:gx_cpath_intersect_with_params
gpcl6:gx_cpath_list
gpcl6:gx_cpath_outer_box
gpcl6:gx_cpath_rect_visible
gpcl6:gx_cpath_reset
gpcl6:gx_cpath_scale_exp2_shared
gpcl6:gx_cpath_set_outer_box
gpcl6:gx_cpath_to_path
gpcl6:gx_cpath_to_path_synthesize
gpcl6:gx_cpath_unshare
gpcl6:gx_cspace_is_linear_default
gpcl6:gx_cspace_no_linear
gpcl6:gx_curr_bbox
gpcl6:gx_curr_fixed_bbox
gpcl6:gx_current_char
gpcl6:gx_current_path
gpcl6:gx_curve_log2_samples
gpcl6:gx_curve_monotonic_points
gpcl6:gx_curve_monotonize
gpcl6:gx_dc_binary_masked
gpcl6:gx_dc_binary_masked_fill_rect
gpcl6:gx_dc_cannot_read
gpcl6:gx_dc_cannot_write
gpcl6:gx_dc_colored_masked
gpcl6:gx_dc_colored_masked_fill_rect
gpcl6:gx_dc_default_fill_masked
gpcl6:gx_dc_devn_fill_masked
gpcl6:gx_dc_devn_get_nonzero_comps
gpcl6:gx_dc_devn_masked
gpcl6:gx_dc_devn_masked_fill_rect
gpcl6:gx_dc_ht_binary_get_nonzero_comps
gpcl6:gx_dc_ht_colored_get_nonzero_comps
gpcl6:gx_dc_ht_get_phase
gpcl6:gx_dc_is_pattern1_color
gpcl6:gx_dc_is_pattern1_color_clist_based
gpcl6:gx_dc_is_pattern1_color_with_trans
gpcl6:gx_dc_is_pattern2_color
gpcl6:gx_dc_no_get_phase
gpcl6:gx_dc_pat_trans_fill_rectangle
gpcl6:gx_dc_pattern
gpcl6:gx_dc_pattern2
gpcl6:gx_dc_pattern2_can_overlap
gpcl6:gx_dc_pattern2_clip_with_bbox
gpcl6:gx_dc_pattern2_clip_with_bbox_simple
gpcl6:gx_dc_pattern2_color_has_bbox
gpcl6:gx_dc_pattern2_get_bbox
gpcl6:gx_dc_pattern2_get_color_space
gpcl6:gx_dc_pattern2_has_background
gpcl6:gx_dc_pattern2_is_rectangular_cell
gpcl6:gx_dc_pattern2_shade_bbox_transform2fixed
gpcl6:gx_dc_pattern_fill_rectangle
gpcl6:gx_dc_pattern_get_nonzero_comps
gpcl6:gx_dc_pattern_read
gpcl6:gx_dc_pattern_save_dc
gpcl6:gx_dc_pattern_trans
gpcl6:gx_dc_pattern_write
gpcl6:gx_dc_pure_get_nonzero_comps
gpcl6:gx_dc_pure_masked
gpcl6:gx_dc_pure_masked_fill_rect
gpcl6:gx_dc_read_color
gpcl6:gx_dc_type_data_devn
gpcl6:gx_dc_type_data_ht_binary
gpcl6:gx_dc_type_data_ht_colored
gpcl6:gx_dc_type_data_none
gpcl6:gx_dc_type_data_null
gpcl6:gx_dc_type_data_pure
gpcl6:gx_dc_type_devn
gpcl6:gx_dc_type_ht_binary
gpcl6:gx_dc_type_ht_colored
gpcl6:gx_dc_type_none
gpcl6:gx_dc_type_null
gpcl6:gx_dc_type_pattern
gpcl6:gx_dc_type_pure
gpcl6:gx_dc_write_color
gpcl6:gx_default_8bit_map_color_gray
gpcl6:gx_default_8bit_map_gray_color
gpcl6:gx_default_DevCMYK_get_color_comp_index
gpcl6:gx_default_DevCMYK_get_color_mapping_procs
gpcl6:gx_default_DevGray_get_color_comp_index
gpcl6:gx_default_DevGray_get_color_mapping_procs
gpcl6:gx_default_DevRGBK_get_color_comp_index
gpcl6:gx_default_DevRGBK_get_color_mapping_procs
gpcl6:gx_default_DevRGB_get_color_comp_index
gpcl6:gx_default_DevRGB_get_color_mapping_procs
gpcl6:gx_default_b_w_map_color_rgb
gpcl6:gx_default_b_w_map_rgb_color
gpcl6:gx_default_b_w_mono_decode_color
gpcl6:gx_default_b_w_mono_encode_color
gpcl6:gx_default_begin_page
gpcl6:gx_default_begin_transparency_group
gpcl6:gx_default_begin_transparency_mask
gpcl6:gx_default_begin_typed_image
gpcl6:gx_default_clip_box
gpcl6:gx_default_close_device
gpcl6:gx_default_composite
gpcl6:gx_default_composite_adjust_ctm
gpcl6:gx_default_composite_clist_read_update
gpcl6:gx_default_composite_clist_write_update
gpcl6:gx_default_composite_get_cropping
gpcl6:gx_default_composite_is_closing
gpcl6:gx_default_composite_is_friendly
gpcl6:gx_default_copy_alpha
gpcl6:gx_default_copy_alpha_hl_color
gpcl6:gx_default_copy_color
gpcl6:gx_default_copy_mono
gpcl6:gx_default_copy_planes
gpcl6:gx_default_create_buf_device
gpcl6:gx_default_decode_color
gpcl6:gx_default_destroy_buf_device
gpcl6:gx_default_dev_spec_op
gpcl6:gx_default_discard_transparency_layer
gpcl6:gx_default_draw_thin_line
gpcl6:gx_default_encode_color
gpcl6:gx_default_end_page
gpcl6:gx_default_end_transparency_group
gpcl6:gx_default_end_transparency_mask
gpcl6:gx_default_fill_linear_color_scanline
gpcl6:gx_default_fill_linear_color_trapezoid
gpcl6:gx_default_fill_linear_color_triangle
gpcl6:gx_default_fill_mask
gpcl6:gx_default_fill_parallelogram
gpcl6:gx_default_fill_path
gpcl6:gx_default_fill_path_shading_or_pattern
gpcl6:gx_default_fill_rectangle_hl_color
gpcl6:gx_default_fill_stroke_path
gpcl6:gx_default_fill_trapezoid
gpcl6:gx_default_fill_triangle
gpcl6:gx_default_fillpage
gpcl6:gx_default_get_alpha_bits
gpcl6:gx_default_get_bits_rectangle
gpcl6:gx_default_get_clipping_box
gpcl6:gx_default_get_cmap_procs
gpcl6:gx_default_get_hardware_params
gpcl6:gx_default_get_initial_matrix
gpcl6:gx_default_get_page_device
gpcl6:gx_default_get_param
gpcl6:gx_default_get_params
gpcl6:gx_default_get_profile
gpcl6:gx_default_get_space_params
gpcl6:gx_default_gray_decode_color
gpcl6:gx_default_gray_encode
gpcl6:gx_default_gray_encode_color
gpcl6:gx_default_gray_fast_encode
gpcl6:gx_default_gray_map_color_rgb
gpcl6:gx_default_gray_map_rgb_color
gpcl6:gx_default_include_color_space
gpcl6:gx_default_initialize_device
gpcl6:gx_default_install
gpcl6:gx_default_map_cmyk_color
gpcl6:gx_default_no_copy_alpha_hl_color
gpcl6:gx_default_open_device
gpcl6:gx_default_output_page
gpcl6:gx_default_pop_transparency_state
gpcl6:gx_default_print_page_copies
gpcl6:gx_default_process_page
gpcl6:gx_default_push_transparency_state
gpcl6:gx_default_put_image
gpcl6:gx_default_put_params
gpcl6:gx_default_remap_color
gpcl6:gx_default_ret_devn_params
gpcl6:gx_default_rgb_map_color_rgb
gpcl6:gx_default_rgb_map_rgb_color
gpcl6:gx_default_set_graphics_type_tag
gpcl6:gx_default_setup_buf_device
gpcl6:gx_default_size_buf_device
gpcl6:gx_default_strip_copy_rop2
gpcl6:gx_default_strip_tile_rect_devn
gpcl6:gx_default_strip_tile_rectangle
gpcl6:gx_default_stroke_path
gpcl6:gx_default_stroke_path_shading_or_pattern
gpcl6:gx_default_sync_output
gpcl6:gx_default_text_begin
gpcl6:gx_default_text_release
gpcl6:gx_default_text_restore_state
gpcl6:gx_default_transform_pixel_region
gpcl6:gx_default_update_spot_equivalent_colors
gpcl6:gx_default_w_b_map_color_rgb
gpcl6:gx_default_w_b_map_rgb_color
gpcl6:gx_default_w_b_mono_decode_color
gpcl6:gx_default_w_b_mono_encode_color
gpcl6:gx_destroy_clip_device_on_stack
gpcl6:gx_device_adjust_resolution
gpcl6:gx_device_bbox_bbox
gpcl6:gx_device_bbox_fwd_open_close
gpcl6:gx_device_bbox_init
gpcl6:gx_device_bbox_release
gpcl6:gx_device_bbox_set_white_opaque
gpcl6:gx_device_black
gpcl6:gx_device_close_output_file
gpcl6:gx_device_color_equal
gpcl6:gx_device_copy_color_params
gpcl6:gx_device_copy_color_procs
gpcl6:gx_device_copy_params
gpcl6:gx_device_decache_colors
gpcl6:gx_device_delete_output_file
gpcl6:gx_device_enum_ptr
gpcl6:gx_device_fill_in_procs
gpcl6:gx_device_finalize
gpcl6:gx_device_forward_color_procs
gpcl6:gx_device_forward_fill_in_procs
gpcl6:gx_device_free_local
gpcl6:gx_device_halftone_list
gpcl6:gx_device_halftone_release
gpcl6:gx_device_init
gpcl6:gx_device_init_on_stack
gpcl6:gx_device_is_pattern_accum
gpcl6:gx_device_is_pattern_clist
gpcl6:gx_device_nup_device_install
gpcl6:gx_device_open_output_file
gpcl6:gx_device_raster
gpcl6:gx_device_raster_chunky
gpcl6:gx_device_raster_plane
gpcl6:gx_device_reloc_ptr
gpcl6:gx_device_request_leadingedge
gpcl6:gx_device_retain
gpcl6:gx_device_set_margins
gpcl6:gx_device_set_media_size
gpcl6:gx_device_set_resolution
gpcl6:gx_device_set_target
gpcl6:gx_device_set_width_height
gpcl6:gx_device_subclass
gpcl6:gx_device_text_begin
gpcl6:gx_device_unsubclass
gpcl6:gx_device_uses_std_cmap_procs
gpcl6:gx_device_white
gpcl6:gx_devn_prn_decode_color
gpcl6:gx_devn_prn_device_finalize
gpcl6:gx_devn_prn_encode_color
gpcl6:gx_devn_prn_get_color_comp_index
gpcl6:gx_devn_prn_get_color_mapping_procs
gpcl6:gx_devn_prn_get_params
gpcl6:gx_devn_prn_put_params
gpcl6:gx_devn_prn_ret_devn_params
gpcl6:gx_devn_prn_ret_devn_params_const
gpcl6:gx_devn_prn_update_spot_equivalent_colors
gpcl6:gx_devn_reduce_colored_halftone
gpcl6:gx_downscaler_adjust_bandheight
gpcl6:gx_downscaler_create_icc_link
gpcl6:gx_downscaler_create_post_render_link
gpcl6:gx_downscaler_decode_factor
gpcl6:gx_downscaler_fin
gpcl6:gx_downscaler_get_bits_rectangle
gpcl6:gx_downscaler_getbits
gpcl6:gx_downscaler_init
gpcl6:gx_downscaler_init_cm
gpcl6:gx_downscaler_init_cm_halftone
gpcl6:gx_downscaler_init_planar
gpcl6:gx_downscaler_init_planar_cm
gpcl6:gx_downscaler_process_page
gpcl6:gx_downscaler_read_params
gpcl6:gx_downscaler_scale
gpcl6:gx_downscaler_scale_rounded
gpcl6:gx_downscaler_write_params
gpcl6:gx_edgebuffer_fin
gpcl6:gx_edgebuffer_init
gpcl6:gx_effective_clip_path
gpcl6:gx_end_transparency_group
gpcl6:gx_end_transparency_mask
gpcl6:gx_erase_colored_pattern
gpcl6:gx_error_decode_color
gpcl6:gx_error_encode_color
gpcl6:gx_error_get_color_comp_index
gpcl6:gx_error_get_color_mapping_procs
gpcl6:gx_extendeg_glyph_name_separator
gpcl6:gx_fill_edgebuffer
gpcl6:gx_fill_edgebuffer_app
gpcl6:gx_fill_edgebuffer_tr
gpcl6:gx_fill_edgebuffer_tr_app
gpcl6:gx_fill_path
gpcl6:gx_fill_stroke_path
gpcl6:gx_fill_trapezoid_cf_fd
gpcl6:gx_fill_trapezoid_cf_nd
gpcl6:gx_fill_triangle_small
gpcl6:gx_filter_edgebuffer
gpcl6:gx_filter_edgebuffer_app
gpcl6:gx_filter_edgebuffer_tr
gpcl6:gx_filter_edgebuffer_tr_app
gpcl6:gx_finish_output_page
gpcl6:gx_flattened_iterator__init
gpcl6:gx_flattened_iterator__init_line
gpcl6:gx_flattened_iterator__next
gpcl6:gx_flattened_iterator__prev
gpcl6:gx_flattened_iterator__switch_to_backscan
gpcl6:gx_forward_begin_typed_image
gpcl6:gx_forward_close_device
gpcl6:gx_forward_composite
gpcl6:gx_forward_copy_alpha
gpcl6:gx_forward_copy_alpha_hl_color
gpcl6:gx_forward_copy_color
gpcl6:gx_forward_copy_mono
gpcl6:gx_forward_copy_planes
gpcl6:gx_forward_decode_color
gpcl6:gx_forward_dev_spec_op
gpcl6:gx_forward_device_initialize_procs
gpcl6:gx_forward_draw_thin_line
gpcl6:gx_forward_encode_color
gpcl6:gx_forward_fill_linear_color_scanline
gpcl6:gx_forward_fill_linear_color_trapezoid
gpcl6:gx_forward_fill_linear_color_triangle
gpcl6:gx_forward_fill_mask
gpcl6:gx_forward_fill_parallelogram
gpcl6:gx_forward_fill_path
gpcl6:gx_forward_fill_rectangle
gpcl6:gx_forward_fill_rectangle_hl_color
gpcl6:gx_forward_fill_stroke_path
gpcl6:gx_forward_fill_trapezoid
gpcl6:gx_forward_fill_triangle
gpcl6:gx_forward_fillpage
gpcl6:gx_forward_get_bits_rectangle
gpcl6:gx_forward_get_clipping_box
gpcl6:gx_forward_get_color_comp_index
gpcl6:gx_forward_get_color_mapping_procs
gpcl6:gx_forward_get_hardware_params
gpcl6:gx_forward_get_initial_matrix
gpcl6:gx_forward_get_page_device
gpcl6:gx_forward_get_params
gpcl6:gx_forward_get_profile
gpcl6:gx_forward_include_color_space
gpcl6:gx_forward_map_cmyk_color
gpcl6:gx_forward_map_color_rgb
gpcl6:gx_forward_map_rgb_color
gpcl6:gx_forward_output_page
gpcl6:gx_forward_put_image
gpcl6:gx_forward_put_params
gpcl6:gx_forward_ret_devn_params
gpcl6:gx_forward_set_graphics_type_tag
gpcl6:gx_forward_strip_copy_rop2
gpcl6:gx_forward_strip_tile_rect_devn
gpcl6:gx_forward_strip_tile_rectangle
gpcl6:gx_forward_stroke_path
gpcl6:gx_forward_sync_output
gpcl6:gx_forward_text_begin
gpcl6:gx_forward_transform_pixel_region
gpcl6:gx_forward_update_spot_equivalent_colors
gpcl6:gx_free_cached_char
gpcl6:gx_get_bits_copy
gpcl6:gx_get_bits_return_pointer
gpcl6:gx_get_cie_caches_ref
gpcl6:gx_get_clip_path_id
gpcl6:gx_get_cmap_procs
gpcl6:gx_get_cmapper
gpcl6:gx_get_dc_type_from_index
gpcl6:gx_get_dc_type_index
gpcl6:gx_get_largest_clipping_box
gpcl6:gx_gstate_dev_ht_copy_to_objtype
gpcl6:gx_gstate_dev_ht_install
gpcl6:gx_gstate_set_effective_xfer
gpcl6:gx_gstate_setscreenphase
gpcl6:gx_gstate_stroke_add
gpcl6:gx_has_transfer
gpcl6:gx_hl_fill_linear_color_scanline
gpcl6:gx_hld_get_color_component
gpcl6:gx_hld_get_color_space_and_ccolor
gpcl6:gx_hld_get_number_color_components
gpcl6:gx_hld_is_hl_color_available
gpcl6:gx_hld_save_color
gpcl6:gx_hld_saved_color_equal
gpcl6:gx_hld_saved_color_init
gpcl6:gx_hld_saved_color_same_cspace
gpcl6:gx_hld_stringwidth_begin
gpcl6:gx_ht_alloc_cache
gpcl6:gx_ht_alloc_client_order
gpcl6:gx_ht_alloc_ht_order
gpcl6:gx_ht_alloc_order
gpcl6:gx_ht_alloc_threshold_order
gpcl6:gx_ht_cache_default_bits_size
gpcl6:gx_ht_cache_default_tiles
gpcl6:gx_ht_complete_threshold_order
gpcl6:gx_ht_construct_bit
gpcl6:gx_ht_construct_bits
gpcl6:gx_ht_construct_spot_order
gpcl6:gx_ht_construct_threshold
gpcl6:gx_ht_construct_threshold_order
gpcl6:gx_ht_free_cache
gpcl6:gx_ht_init_cache
gpcl6:gx_ht_install
gpcl6:gx_ht_order_release
gpcl6:gx_ht_process_screen_memory
gpcl6:gx_ht_read_and_install
gpcl6:gx_ht_threshold_landscape
gpcl6:gx_ht_threshold_landscape_sub
gpcl6:gx_ht_threshold_row_bit
gpcl6:gx_ht_threshold_row_bit_sub
gpcl6:gx_ht_write
gpcl6:gx_ignore_end_image
gpcl6:gx_image1_end_image
gpcl6:gx_image1_flush
gpcl6:gx_image1_plane_data
gpcl6:gx_image_cached_char
gpcl6:gx_image_class_table
gpcl6:gx_image_class_table_count
gpcl6:gx_image_compute_mat
gpcl6:gx_image_data
gpcl6:gx_image_default_release
gpcl6:gx_image_end
gpcl6:gx_image_enum_alloc
gpcl6:gx_image_enum_begin
gpcl6:gx_image_enum_common_init
gpcl6:gx_image_fill_masked
gpcl6:gx_image_fill_masked_end
gpcl6:gx_image_fill_masked_start
gpcl6:gx_image_flush
gpcl6:gx_image_free_enum
gpcl6:gx_image_matrix_is_default
gpcl6:gx_image_matrix_set_default
gpcl6:gx_image_no_sget
gpcl6:gx_image_no_sput
gpcl6:gx_image_plane_data
gpcl6:gx_image_plane_data_rows
gpcl6:gx_image_planes_wanted
gpcl6:gx_image_scale_mask_colors
gpcl6:gx_image_type_table
gpcl6:gx_image_type_table_count
gpcl6:gx_init_CIE
gpcl6:gx_init_non_threadsafe_device
gpcl6:gx_init_paint_1
gpcl6:gx_init_paint_3
gpcl6:gx_init_paint_4
gpcl6:gx_init_patch_fill_state_for_clist
gpcl6:gx_init_table
gpcl6:gx_install_CIE
gpcl6:gx_install_CIEA
gpcl6:gx_install_CIEABC
gpcl6:gx_install_CIEDEF
gpcl6:gx_install_CIEDEFG
gpcl6:gx_install_cie_abc
gpcl6:gx_intersect_small_bars
gpcl6:gx_io_device_table
gpcl6:gx_io_device_table_count
gpcl6:gx_lookup_cached_char
gpcl6:gx_lookup_fm_pair
gpcl6:gx_make_clip_device_in_heap
gpcl6:gx_make_clip_device_on_stack
gpcl6:gx_make_clip_device_on_stack_if_needed
gpcl6:gx_make_rop_texture_device
gpcl6:gx_mask_clip_initialize
gpcl6:gx_matrix_to_fixed_coeff
gpcl6:gx_monitor_alloc
gpcl6:gx_monitor_free
gpcl6:gx_monitor_label
gpcl6:gx_no_adjust_color_count
gpcl6:gx_no_composite
gpcl6:gx_no_concrete_space
gpcl6:gx_no_concretize_color
gpcl6:gx_no_copy_alpha
gpcl6:gx_no_install_cspace
gpcl6:gx_no_plane_data
gpcl6:gx_no_strip_copy_rop2
gpcl6:gx_null_composite
gpcl6:gx_num_components_1
gpcl6:gx_num_components_3
gpcl6:gx_num_components_4
gpcl6:gx_open_cache_device
gpcl6:gx_outputfile_is_separate_pages
gpcl6:gx_overprint_generic_fill_rectangle
gpcl6:gx_overprint_sep_fill_rectangle_1
gpcl6:gx_overprint_sep_fill_rectangle_2
gpcl6:gx_page_device_get_page_device
gpcl6:gx_page_info_color_usage
gpcl6:gx_parse_output_file_name
gpcl6:gx_pat_cache_default_bits
gpcl6:gx_pat_cache_default_tiles
gpcl6:gx_path__check_curves
gpcl6:gx_path_add_char_path
gpcl6:gx_path_add_curve_notes
gpcl6:gx_path_add_dash_expansion
gpcl6:gx_path_add_dash_notes
gpcl6:gx_path_add_gap_notes
gpcl6:gx_path_add_line_notes
gpcl6:gx_path_add_lines_notes
gpcl6:gx_path_add_partial_arc_notes
gpcl6:gx_path_add_path
gpcl6:gx_path_add_point
gpcl6:gx_path_add_rectangle
gpcl6:gx_path_add_relative_point
gpcl6:gx_path_alloc_shared
gpcl6:gx_path_append_reversed
gpcl6:gx_path_assign_free
gpcl6:gx_path_assign_preserve
gpcl6:gx_path_bbox
gpcl6:gx_path_bbox_set
gpcl6:gx_path_close_subpath_notes
gpcl6:gx_path_copy_reducing
gpcl6:gx_path_copy_reversed
gpcl6:gx_path_current_point
gpcl6:gx_path_elide_1d
gpcl6:gx_path_enum_backup
gpcl6:gx_path_enum_init
gpcl6:gx_path_enum_next
gpcl6:gx_path_enum_notes
gpcl6:gx_path_free
gpcl6:gx_path_get_state_flags
gpcl6:gx_path_has_curves
gpcl6:gx_path_has_long_segments
gpcl6:gx_path_init_bbox_accumulator
gpcl6:gx_path_init_contained_shared
gpcl6:gx_path_init_local_shared
gpcl6:gx_path_is_drawing
gpcl6:gx_path_is_null
gpcl6:gx_path_is_rectangular
gpcl6:gx_path_is_void
gpcl6:gx_path_merge_contacting_contours
gpcl6:gx_path_new
gpcl6:gx_path_pop_close_notes
gpcl6:gx_path_position_valid
gpcl6:gx_path_scale_exp2_shared
gpcl6:gx_path_set_state_flags
gpcl6:gx_path_subpath_start_point
gpcl6:gx_path_translate
gpcl6:gx_path_unshare
gpcl6:gx_pattern1_clist_has_trans
gpcl6:gx_pattern1_get_transptr
gpcl6:gx_pattern_accum_alloc
gpcl6:gx_pattern_alloc_cache
gpcl6:gx_pattern_cache_add_dummy_entry
gpcl6:gx_pattern_cache_add_entry
gpcl6:gx_pattern_cache_ensure_space
gpcl6:gx_pattern_cache_entry_set_lock
gpcl6:gx_pattern_cache_free
gpcl6:gx_pattern_cache_get_entry
gpcl6:gx_pattern_cache_lookup
gpcl6:gx_pattern_cache_update_used
gpcl6:gx_pattern_cache_winnow
gpcl6:gx_pattern_load
gpcl6:gx_pattern_procs_istrans
gpcl6:gx_pattern_tile_is_clist
gpcl6:gx_pixel_image_release
gpcl6:gx_pixel_image_sget
gpcl6:gx_pixel_image_sput
gpcl6:gx_point_scale_exp2
gpcl6:gx_polarity_additive
gpcl6:gx_polarity_subtractive
gpcl6:gx_polarity_unknown
gpcl6:gx_pop_transparency_state
gpcl6:gx_print_page_single_copy
gpcl6:gx_provide_fm_pair_attributes
gpcl6:gx_psconcretize_CIEA
gpcl6:gx_psconcretize_CIEABC
gpcl6:gx_psconcretize_CIEDEF
gpcl6:gx_psconcretize_CIEDEFG
gpcl6:gx_purge_selected_cached_chars
gpcl6:gx_push_transparency_state
gpcl6:gx_put_blended_image_custom
gpcl6:gx_rect_scale_exp2
gpcl6:gx_remap_CIEA
gpcl6:gx_remap_CIEABC
gpcl6:gx_remap_CIEDEF
gpcl6:gx_remap_CIEDEFG
gpcl6:gx_remap_DeviceCMYK
gpcl6:gx_remap_DeviceGray
gpcl6:gx_remap_DeviceRGB
gpcl6:gx_remap_ICC_imagelab
gpcl6:gx_remap_ICC_with_link
gpcl6:gx_remap_color
gpcl6:gx_remap_concrete_DCMYK
gpcl6:gx_remap_concrete_DGray
gpcl6:gx_remap_concrete_DRGB
gpcl6:gx_remap_named_color
gpcl6:gx_render_device_DeviceN
gpcl6:gx_render_plane_init
gpcl6:gx_restrict01_paint_1
gpcl6:gx_restrict01_paint_3
gpcl6:gx_restrict01_paint_4
gpcl6:gx_restrict_CIEA
gpcl6:gx_restrict_CIEABC
gpcl6:gx_restrict_CIEDEF
gpcl6:gx_restrict_CIEDEFG
gpcl6:gx_same_concrete_space
gpcl6:gx_san__obtain
gpcl6:gx_san__release
gpcl6:gx_san_begin
gpcl6:gx_san_end
gpcl6:gx_san_generate_stems
gpcl6:gx_san_trap_store
gpcl6:gx_saved_pages_list_add
gpcl6:gx_saved_pages_list_free
gpcl6:gx_saved_pages_list_new
gpcl6:gx_saved_pages_list_print
gpcl6:gx_saved_pages_param_process
gpcl6:gx_scale_char_matrix
gpcl6:gx_scan_convert
gpcl6:gx_scan_convert_and_fill
gpcl6:gx_scan_convert_app
gpcl6:gx_scan_convert_tr
gpcl6:gx_scan_convert_tr_app
gpcl6:gx_scan_converter
gpcl6:gx_scan_converter_app
gpcl6:gx_scan_converter_tr
gpcl6:gx_scan_converter_tr_app
gpcl6:gx_select_dev_ht
gpcl6:gx_semaphore_alloc
gpcl6:gx_semaphore_free
gpcl6:gx_semaphore_label
gpcl6:gx_serialize_cie_common_elements
gpcl6:gx_serialize_cspace_type
gpcl6:gx_serialize_device_n_map
gpcl6:gx_set_cmap_procs
gpcl6:gx_set_common_cie_defaults
gpcl6:gx_set_dash
gpcl6:gx_set_device_color_1
gpcl6:gx_set_device_only
gpcl6:gx_set_dot_length
gpcl6:gx_set_effective_transfer
gpcl6:gx_set_identity_transfer
gpcl6:gx_set_miter_limit
gpcl6:gx_set_no_overprint
gpcl6:gx_set_overprint_cmyk
gpcl6:gx_set_pattern_procs_standard
gpcl6:gx_set_pattern_procs_trans
gpcl6:gx_set_rop_no_source
gpcl6:gx_set_spot_only_overprint
gpcl6:gx_setcurrentpoint_from_path
gpcl6:gx_shade_background
gpcl6:gx_sort_ht_order
gpcl6:gx_spot_colors_set_overprint
gpcl6:gx_stroke_add
gpcl6:gx_stroke_fill
gpcl6:gx_stroke_path_expansion
gpcl6:gx_stroke_path_only
gpcl6:gx_subclass_composite
gpcl6:gx_subclass_fill_in_page_procs
gpcl6:gx_subdivide_curve
gpcl6:gx_subpath_is_rectangular
gpcl6:gx_touch_fm_pair
gpcl6:gx_trans_pattern_fill_rect
gpcl6:gx_transfer_is_monotonic
gpcl6:gx_translate_to_fixed
gpcl6:gx_ttfReader__create
gpcl6:gx_ttfReader__destroy
gpcl6:gx_ttfReader__set_font
gpcl6:gx_ttf_outline
gpcl6:gx_unit_frac
gpcl6:gx_unshare_cie_caches
gpcl6:gx_update_from_subclass
gpcl6:gx_upright_get_initial_matrix
gpcl6:gxclip2_dummy
gpcl6:gxht_dda_length
gpcl6:gxht_thresh_image_init
gpcl6:gxht_thresh_planes
gpcl6:hc_put_code_proc
gpcl6:hc_put_last_bits_proc
gpcl6:height
gpcl6:hpgl_531_segments
gpcl6:hpgl_AA
gpcl6:hpgl_AC
gpcl6:hpgl_AD
gpcl6:hpgl_AR
gpcl6:hpgl_AT
gpcl6:hpgl_BR
gpcl6:hpgl_BZ
gpcl6:hpgl_CF
gpcl6:hpgl_CI
gpcl6:hpgl_CO
gpcl6:hpgl_CP
gpcl6:hpgl_CR
gpcl6:hpgl_DF
gpcl6:hpgl_DI
gpcl6:hpgl_DL
gpcl6:hpgl_DR
gpcl6:hpgl_DT
gpcl6:hpgl_DV
gpcl6:hpgl_EA
gpcl6:hpgl_EC
gpcl6:hpgl_EP
gpcl6:hpgl_ER
gpcl6:hpgl_ES
gpcl6:hpgl_EW
gpcl6:hpgl_FI
gpcl6:hpgl_FN
gpcl6:hpgl_FP
gpcl6:hpgl_FR
gpcl6:hpgl_FT
gpcl6:hpgl_IN
gpcl6:hpgl_IN_implicit
gpcl6:hpgl_IP
gpcl6:hpgl_IR
gpcl6:hpgl_IW
gpcl6:hpgl_LA
gpcl6:hpgl_LB
gpcl6:hpgl_LM
gpcl6:hpgl_LO
gpcl6:hpgl_LT
gpcl6:hpgl_MC
gpcl6:hpgl_NP
gpcl6:hpgl_PA
gpcl6:hpgl_PD
gpcl6:hpgl_PE
gpcl6:hpgl_PG
gpcl6:hpgl_PM
gpcl6:hpgl_PP
gpcl6:hpgl_PR
gpcl6:hpgl_PS
gpcl6:hpgl_PU
gpcl6:hpgl_PW
gpcl6:hpgl_RA
gpcl6:hpgl_RF
gpcl6:hpgl_RO
gpcl6:hpgl_RP
gpcl6:hpgl_RQ
gpcl6:hpgl_RR
gpcl6:hpgl_RT
gpcl6:hpgl_SA
gpcl6:hpgl_SB
gpcl6:hpgl_SC
gpcl6:hpgl_SD
gpcl6:hpgl_SI
gpcl6:hpgl_SL
gpcl6:hpgl_SM
gpcl6:hpgl_SP
gpcl6:hpgl_SR
gpcl6:hpgl_SS
gpcl6:hpgl_SV
gpcl6:hpgl_TD
gpcl6:hpgl_TR
gpcl6:hpgl_UL
gpcl6:hpgl_WG
gpcl6:hpgl_WU
gpcl6:hpgl_add_arc_3point_to_path
gpcl6:hpgl_add_arc_to_path
gpcl6:hpgl_add_bezier_to_path
gpcl6:hpgl_add_pcl_point_to_path
gpcl6:hpgl_add_point_to_path
gpcl6:hpgl_arg_c_int
gpcl6:hpgl_arg_c_real
gpcl6:hpgl_arg_int
gpcl6:hpgl_arg_real
gpcl6:hpgl_arg_units
gpcl6:hpgl_clear_current_path
gpcl6:hpgl_close_current_path
gpcl6:hpgl_close_path
gpcl6:hpgl_close_subpolygon
gpcl6:hpgl_compute_angle
gpcl6:hpgl_compute_arc_center
gpcl6:hpgl_compute_arc_coords
gpcl6:hpgl_compute_user_units_to_plu_ctm
gpcl6:hpgl_compute_vector_endpoints
gpcl6:hpgl_copy_current_path_to_polygon_buffer
gpcl6:hpgl_copy_polygon_buffer_to_current_path
gpcl6:hpgl_current_char_scale
gpcl6:hpgl_default_all_fill_patterns
gpcl6:hpgl_default_font_params
gpcl6:hpgl_define_commands
gpcl6:hpgl_destroy_label_buffer
gpcl6:hpgl_do_reset
gpcl6:hpgl_draw_current_path
gpcl6:hpgl_fill_in_531_font
gpcl6:hpgl_fill_in_arc_font
gpcl6:hpgl_fill_in_stick_font
gpcl6:hpgl_free_531_fonts
gpcl6:hpgl_free_stick_fonts
gpcl6:hpgl_get_character_edge_pen
gpcl6:hpgl_get_current_position
gpcl6:hpgl_get_selected_pen
gpcl6:hpgl_init_command_index
gpcl6:hpgl_initialize_stick_fonts
gpcl6:hpgl_is_currentfont_stick_or_arc
gpcl6:hpgl_print_symbol_mode_char
gpcl6:hpgl_process
gpcl6:hpgl_process_init
gpcl6:hpgl_reset_overlay
gpcl6:hpgl_set_clipping_region
gpcl6:hpgl_set_ctm
gpcl6:hpgl_set_current_position
gpcl6:hpgl_set_drawing_color
gpcl6:hpgl_set_hpgl_path_mode
gpcl6:hpgl_set_line_attribute_defaults
gpcl6:hpgl_set_line_pattern_defaults
gpcl6:hpgl_set_lost_mode
gpcl6:hpgl_set_pcl_to_plu_ctm
gpcl6:hpgl_set_plu_ctm
gpcl6:hpgl_stick_arc_segments
gpcl6:hpgl_stick_arc_width
gpcl6:hpgl_update_carriage_return_pos
gpcl6:hpgl_width_scale
gpcl6:ht_order_procs_table
gpcl6:htsc_gen_ordered
gpcl6:htsc_set_default_params
gpcl6:ialloc_add_clump
gpcl6:ialloc_alloc_state
gpcl6:ialloc_consolidate_free
gpcl6:ialloc_free_state
gpcl6:ialloc_gc_prepare
gpcl6:ialloc_reset
gpcl6:ialloc_reset_free
gpcl6:ialloc_set_limit
gpcl6:icc_link_finalize
gpcl6:icc_linkcache_finalize
gpcl6:idivmod
gpcl6:igcd
gpcl6:ijs_client_begin_cmd
gpcl6:ijs_client_begin_job
gpcl6:ijs_client_begin_page
gpcl6:ijs_client_close
gpcl6:ijs_client_end_job
gpcl6:ijs_client_end_page
gpcl6:ijs_client_enum_param
gpcl6:ijs_client_get_param
gpcl6:ijs_client_get_version
gpcl6:ijs_client_list_params
gpcl6:ijs_client_open
gpcl6:ijs_client_send_cmd
gpcl6:ijs_client_send_cmd_wait
gpcl6:ijs_client_send_data_wait
gpcl6:ijs_client_send_int
gpcl6:ijs_client_set_param
gpcl6:ijs_exec_server
gpcl6:ijs_get_int
gpcl6:ijs_invoke_server
gpcl6:ijs_recv_ack
gpcl6:ijs_recv_block
gpcl6:ijs_recv_buf
gpcl6:ijs_recv_init
gpcl6:ijs_recv_int
gpcl6:ijs_recv_read
gpcl6:ijs_send_begin
gpcl6:ijs_send_block
gpcl6:ijs_send_buf
gpcl6:ijs_send_init
gpcl6:ijs_send_int
gpcl6:ijs_server_done
gpcl6:ijs_server_get_data
gpcl6:ijs_server_get_page_header
gpcl6:ijs_server_init
gpcl6:ijs_server_install_begin_cb
gpcl6:ijs_server_install_end_cb
gpcl6:ijs_server_install_enum_cb
gpcl6:ijs_server_install_get_cb
gpcl6:ijs_server_install_list_cb
gpcl6:ijs_server_install_set_cb
gpcl6:ijs_server_install_status_cb
gpcl6:ijs_server_iter
gpcl6:ijs_server_procs
gpcl6:ilog2
gpcl6:image_flip_planes
gpcl6:image_init_clues
gpcl6:image_init_color_cache
gpcl6:image_init_map
gpcl6:imod
gpcl6:init_p9color
gpcl6:init_patch_fill_state
gpcl6:install_internal_subclass_devices
gpcl6:int_rect_difference
gpcl6:int_value
gpcl6:integer_elt
gpcl6:ioFormatTest
gpcl6:io_device_finalize
gpcl6:iodev_dtype_stdio
gpcl6:iodev_no_delete_file
gpcl6:iodev_no_enumerate_files
gpcl6:iodev_no_fclose
gpcl6:iodev_no_file_status
gpcl6:iodev_no_finit
gpcl6:iodev_no_fopen
gpcl6:iodev_no_get_params
gpcl6:iodev_no_init
gpcl6:iodev_no_open_device
gpcl6:iodev_no_open_file
gpcl6:iodev_no_put_params
gpcl6:iodev_no_rename_file
gpcl6:iodev_os_fclose
gpcl6:iodev_os_gp_fopen
gpcl6:isPngInterlaced
gpcl6:is_invisible_pattern
gpcl6:jbAccumulateComposites
gpcl6:jbAddPage
gpcl6:jbAddPageComponents
gpcl6:jbAddPages
gpcl6:jbClasserCreate
gpcl6:jbClasserDestroy
gpcl6:jbClassifyCorrelation
gpcl6:jbClassifyRankHaus
gpcl6:jbCorrelation
gpcl6:jbCorrelationInit
gpcl6:jbCorrelationInitWithoutComponents
gpcl6:jbDataDestroy
gpcl6:jbDataRead
gpcl6:jbDataRender
gpcl6:jbDataSave
gpcl6:jbDataWrite
gpcl6:jbGetComponents
gpcl6:jbGetLLCorners
gpcl6:jbGetULCorners
gpcl6:jbRankHaus
gpcl6:jbRankHausInit
gpcl6:jbTemplatesFromComposites
gpcl6:jbWordsInTextlines
gpcl6:kernelCopy
gpcl6:kernelCreate
gpcl6:kernelCreateFromFile
gpcl6:kernelCreateFromPix
gpcl6:kernelCreateFromString
gpcl6:kernelDestroy
gpcl6:kernelDisplayInPix
gpcl6:kernelGetElement
gpcl6:kernelGetMinMax
gpcl6:kernelGetParameters
gpcl6:kernelGetSum
gpcl6:kernelInvert
gpcl6:kernelNormalize
gpcl6:kernelRead
gpcl6:kernelReadStream
gpcl6:kernelSetElement
gpcl6:kernelSetOrigin
gpcl6:kernelWrite
gpcl6:kernelWriteStream
gpcl6:l_CIDataDestroy
gpcl6:l_amapCreate
gpcl6:l_amapDelete
gpcl6:l_amapDestroy
gpcl6:l_amapFind
gpcl6:l_amapGetFirst
gpcl6:l_amapGetLast
gpcl6:l_amapGetNext
gpcl6:l_amapGetPrev
gpcl6:l_amapInsert
gpcl6:l_amapSize
gpcl6:l_angleBetweenVectors
gpcl6:l_asetCreate
gpcl6:l_asetCreateFromDna
gpcl6:l_asetCreateFromPta
gpcl6:l_asetCreateFromSarray
gpcl6:l_asetDelete
gpcl6:l_asetDestroy
gpcl6:l_asetFind
gpcl6:l_asetGetFirst
gpcl6:l_asetGetLast
gpcl6:l_asetGetNext
gpcl6:l_asetGetPrev
gpcl6:l_asetInsert
gpcl6:l_asetSize
gpcl6:l_binaryCompare
gpcl6:l_binaryCopy
gpcl6:l_binaryRead
gpcl6:l_binaryReadSelect
gpcl6:l_binaryReadSelectStream
gpcl6:l_binaryReadStream
gpcl6:l_binaryWrite
gpcl6:l_bootnum_gen1
gpcl6:l_bootnum_gen2
gpcl6:l_bootnum_gen3
gpcl6:l_bootnum_gen4
gpcl6:l_byteaAppendData
gpcl6:l_byteaAppendString
gpcl6:l_byteaCopy
gpcl6:l_byteaCopyData
gpcl6:l_byteaCreate
gpcl6:l_byteaDestroy
gpcl6:l_byteaFindEachSequence
gpcl6:l_byteaGetData
gpcl6:l_byteaGetSize
gpcl6:l_byteaInitFromFile
gpcl6:l_byteaInitFromMem
gpcl6:l_byteaInitFromStream
gpcl6:l_byteaJoin
gpcl6:l_byteaSplit
gpcl6:l_byteaWrite
gpcl6:l_byteaWriteStream
gpcl6:l_chooseDisplayProg
gpcl6:l_clearDataBit
gpcl6:l_clearDataDibit
gpcl6:l_clearDataQbit
gpcl6:l_compressGrayHistograms
gpcl6:l_dnaAddNumber
gpcl6:l_dnaChangeRefcount
gpcl6:l_dnaClone
gpcl6:l_dnaConvertToNuma
gpcl6:l_dnaCopy
gpcl6:l_dnaCopyParameters
gpcl6:l_dnaCreate
gpcl6:l_dnaCreateFromDArray
gpcl6:l_dnaCreateFromIArray
gpcl6:l_dnaDestroy
gpcl6:l_dnaDiffAdjValues
gpcl6:l_dnaEmpty
gpcl6:l_dnaFindValByHash
gpcl6:l_dnaGetCount
gpcl6:l_dnaGetDArray
gpcl6:l_dnaGetDValue
gpcl6:l_dnaGetIArray
gpcl6:l_dnaGetIValue
gpcl6:l_dnaGetParameters
gpcl6:l_dnaGetRefcount
gpcl6:l_dnaHashAdd
gpcl6:l_dnaHashCreate
gpcl6:l_dnaHashCreateFromDna
gpcl6:l_dnaHashCreateFromPta
gpcl6:l_dnaHashCreateFromSarray
gpcl6:l_dnaHashDestroy
gpcl6:l_dnaHashGetCount
gpcl6:l_dnaHashGetDna
gpcl6:l_dnaHashGetTotalCount
gpcl6:l_dnaInsertNumber
gpcl6:l_dnaIntersectionByAset
gpcl6:l_dnaIntersectionByHash
gpcl6:l_dnaJoin
gpcl6:l_dnaMakeHistoByHash
gpcl6:l_dnaMakeSequence
gpcl6:l_dnaRead
gpcl6:l_dnaReadStream
gpcl6:l_dnaRemoveDupsByAset
gpcl6:l_dnaRemoveDupsByHash
gpcl6:l_dnaRemoveNumber
gpcl6:l_dnaReplaceNumber
gpcl6:l_dnaSetCount
gpcl6:l_dnaSetParameters
gpcl6:l_dnaSetValue
gpcl6:l_dnaShiftValue
gpcl6:l_dnaUnionByAset
gpcl6:l_dnaWrite
gpcl6:l_dnaWriteStream
gpcl6:l_dnaaAddDna
gpcl6:l_dnaaAddNumber
gpcl6:l_dnaaCreate
gpcl6:l_dnaaCreateFull
gpcl6:l_dnaaDestroy
gpcl6:l_dnaaFlattenToDna
gpcl6:l_dnaaGetCount
gpcl6:l_dnaaGetDna
gpcl6:l_dnaaGetDnaCount
gpcl6:l_dnaaGetNumberCount
gpcl6:l_dnaaGetValue
gpcl6:l_dnaaRead
gpcl6:l_dnaaReadStream
gpcl6:l_dnaaReplaceDna
gpcl6:l_dnaaTruncate
gpcl6:l_dnaaWrite
gpcl6:l_dnaaWriteStream
gpcl6:l_fileDisplay
gpcl6:l_generateCIData
gpcl6:l_generateCIDataForPdf
gpcl6:l_generateFlateData
gpcl6:l_generateFlateDataPdf
gpcl6:l_generateG4Data
gpcl6:l_generateJpegData
gpcl6:l_generateJpegDataMem
gpcl6:l_getCurrentTime
gpcl6:l_getDataBit
gpcl6:l_getDataByte
gpcl6:l_getDataDibit
gpcl6:l_getDataFourBytes
gpcl6:l_getDataQbit
gpcl6:l_getDataTwoBytes
gpcl6:l_getFormattedDate
gpcl6:l_getStructStrFromFile
gpcl6:l_hashFloat64ToUint64
gpcl6:l_hashPtToUint64
gpcl6:l_hashStringToUint64
gpcl6:l_jpegSetQuality
gpcl6:l_makeTempFilename
gpcl6:l_pdfSetDateAndVersion
gpcl6:l_pdfSetG4ImageMask
gpcl6:l_pngSetReadStrip16To8
gpcl6:l_productMat2
gpcl6:l_productMat3
gpcl6:l_productMat4
gpcl6:l_productMatVec
gpcl6:l_psWriteBoundingBox
gpcl6:l_rbtreeCreate
gpcl6:l_rbtreeDelete
gpcl6:l_rbtreeDestroy
gpcl6:l_rbtreeGetCount
gpcl6:l_rbtreeGetFirst
gpcl6:l_rbtreeGetLast
gpcl6:l_rbtreeGetNext
gpcl6:l_rbtreeGetPrev
gpcl6:l_rbtreeInsert
gpcl6:l_rbtreeLookup
gpcl6:l_rbtreePrint
gpcl6:l_setAlphaMaskBorder
gpcl6:l_setConvolveSampling
gpcl6:l_setDataBit
gpcl6:l_setDataBitVal
gpcl6:l_setDataByte
gpcl6:l_setDataDibit
gpcl6:l_setDataFourBytes
gpcl6:l_setDataQbit
gpcl6:l_setDataTwoBytes
gpcl6:l_setNeutralBoostVal
gpcl6:l_uncompressGrayHistograms
gpcl6:leptSetStderrHandler
gpcl6:lept_calloc
gpcl6:lept_cp
gpcl6:lept_direxists
gpcl6:lept_fclose
gpcl6:lept_fopen
gpcl6:lept_free
gpcl6:lept_isPrime
gpcl6:lept_mkdir
gpcl6:lept_mv
gpcl6:lept_rm
gpcl6:lept_rm_match
gpcl6:lept_rmdir
gpcl6:lept_rmfile
gpcl6:lept_roundftoi
gpcl6:lept_stderr
gpcl6:leptonica_calloc
gpcl6:leptonica_free
gpcl6:leptonica_malloc
gpcl6:leptonica_realloc
gpcl6:lheapAdd
gpcl6:lheapCreate
gpcl6:lheapDestroy
gpcl6:lheapGetCount
gpcl6:lheapGetElement
gpcl6:lheapPrint
gpcl6:lheapRemove
gpcl6:lheapSort
gpcl6:lheapSortStrictOrder
gpcl6:lineEndianByteSwap
gpcl6:linearInterpolatePixelColor
gpcl6:linearInterpolatePixelFloat
gpcl6:linearInterpolatePixelGray
gpcl6:linearScaleRGBVal
gpcl6:lips_media_selection
gpcl6:lips_mode3format_encode
gpcl6:lips_packbits_encode
gpcl6:lips_rle_encode
gpcl6:listAddToHead
gpcl6:listAddToTail
gpcl6:listDestroy
gpcl6:listFindElement
gpcl6:listFindTail
gpcl6:listGetCount
gpcl6:listInsertAfter
gpcl6:listInsertBefore
gpcl6:listJoin
gpcl6:listRemoveElement
gpcl6:listRemoveFromHead
gpcl6:listRemoveFromTail
gpcl6:listReverse
gpcl6:load_transfer_map
gpcl6:locatePtRadially
gpcl6:logScaleRGBVal
gpcl6:lookup4x1to32_identity
gpcl6:lookup4x1to32_inverted
gpcl6:lookup_indexed_map
gpcl6:lprintf_file_and_line
gpcl6:lprn_get_params
gpcl6:lprn_print_image
gpcl6:lprn_put_params
gpcl6:lqueueAdd
gpcl6:lqueueCreate
gpcl6:lqueueDestroy
gpcl6:lqueueGetCount
gpcl6:lqueuePrint
gpcl6:lqueueRemove
gpcl6:lstackAdd
gpcl6:lstackCreate
gpcl6:lstackDestroy
gpcl6:lstackGetCount
gpcl6:lstackPrint
gpcl6:lstackRemove
gpcl6:main
gpcl6:makeDoGKernel
gpcl6:makeFlatKernel
gpcl6:makeGaussianKernel
gpcl6:makeGaussianKernelSep
gpcl6:makeGrayQuantIndexTable
gpcl6:makeGrayQuantTableArb
gpcl6:makeLogBase2Tab
gpcl6:makeMSBitLocTab
gpcl6:makeMosaicStrips
gpcl6:makePixelCentroidTab8
gpcl6:makePixelSumTab8
gpcl6:makePlotPtaFromNuma
gpcl6:makePlotPtaFromNumaGen
gpcl6:makeRGBIndexTables
gpcl6:makeRGBToIndexTables
gpcl6:makeRangeKernel
gpcl6:makeSubsampleTab2x
gpcl6:makeTempDirname
gpcl6:make_quadrant_arc
gpcl6:map_26U_unicode
gpcl6:map_4U_unicode
gpcl6:map_8U_unicode
gpcl6:map_devn_using_function
gpcl6:mark_font_descriptor_symbolic
gpcl6:matrix2
gpcl6:matrix_equal
gpcl6:media
gpcl6:mem_close
gpcl6:mem_default_strip_copy_rop2
gpcl6:mem_dev_initialize_device_procs
gpcl6:mem_draw_thin_line
gpcl6:mem_get_bits_rectangle
gpcl6:mem_get_initial_matrix
gpcl6:mem_gray8_rgb24_strip_copy_rop2
gpcl6:mem_gray_strip_copy_rop2
gpcl6:mem_initialize_device_procs
gpcl6:mem_mapped2_device
gpcl6:mem_mapped2_word_device
gpcl6:mem_mapped4_device
gpcl6:mem_mapped4_word_device
gpcl6:mem_mapped8_device
gpcl6:mem_mapped8_word_device
gpcl6:mem_mapped_map_color_rgb
gpcl6:mem_mapped_map_rgb_color
gpcl6:mem_mono_b_w_palette
gpcl6:mem_mono_copy_mono
gpcl6:mem_mono_device
gpcl6:mem_mono_fill_rectangle
gpcl6:mem_mono_strip_copy_rop2
gpcl6:mem_mono_strip_copy_rop2_dev
gpcl6:mem_mono_w_b_palette
gpcl6:mem_mono_word_device
gpcl6:mem_open
gpcl6:mem_swap_byte_rect
gpcl6:mem_transform_pixel_region
gpcl6:mem_true16_device
gpcl6:mem_true24_device
gpcl6:mem_true24_word_device
gpcl6:mem_true32_device
gpcl6:mem_true32_word_device
gpcl6:mem_true40_device
gpcl6:mem_true40_word_device
gpcl6:mem_true48_device
gpcl6:mem_true48_word_device
gpcl6:mem_true56_device
gpcl6:mem_true56_word_device
gpcl6:mem_true64_device
gpcl6:mem_true64_word_device
gpcl6:mem_word_dev_initialize_device_procs
gpcl6:mem_word_get_bits_rectangle
gpcl6:mem_x_device
gpcl6:memflip8x8
gpcl6:mesh_init_fill_state
gpcl6:mesh_padding
gpcl6:mesh_triangle
gpcl6:mgr_8bit_map_color_rgb
gpcl6:mgr_8bit_map_rgb_color
gpcl6:min_feature_size_dnit
gpcl6:min_feature_size_init
gpcl6:min_feature_size_process
gpcl6:mlprintf_file_and_line
gpcl6:modifyTrailingSlash
gpcl6:mono_copy_masks
gpcl6:mono_fill_masks
gpcl6:morphSequenceVerify
gpcl6:ms_find_code_from_name
gpcl6:ms_find_name_from_code
gpcl6:ms_find_size_from_code
gpcl6:named_color_equivalent_cmyk_colors
gpcl6:nbytesInFile
gpcl6:new_logical_page
gpcl6:new_pattern_trans_buff
gpcl6:new_resize_input
gpcl6:new_setup_image_filters
gpcl6:new_setup_lossless_filters
gpcl6:nextOnPixelInRaster
gpcl6:numaAddBorder
gpcl6:numaAddNumber
gpcl6:numaAddSorted
gpcl6:numaAddSpecifiedBorder
gpcl6:numaAddToNumber
gpcl6:numaArithOp
gpcl6:numaBinSort
gpcl6:numaChangeRefcount
gpcl6:numaChooseSortType
gpcl6:numaClipToInterval
gpcl6:numaClone
gpcl6:numaClose
gpcl6:numaContrastTRC
gpcl6:numaConvertToDna
gpcl6:numaConvertToInt
gpcl6:numaConvertToPta1
gpcl6:numaConvertToPta2
gpcl6:numaConvertToSarray
gpcl6:numaCopy
gpcl6:numaCopyParameters
gpcl6:numaCountNonzeroRuns
gpcl6:numaCountReversals
gpcl6:numaCreate
gpcl6:numaCreateFromFArray
gpcl6:numaCreateFromIArray
gpcl6:numaCreateFromString
gpcl6:numaCrossingsByPeaks
gpcl6:numaCrossingsByThreshold
gpcl6:numaDestroy
gpcl6:numaDifferentiateInterval
gpcl6:numaDilate
gpcl6:numaDiscretizeHistoInBins
gpcl6:numaDiscretizeSortedInBins
gpcl6:numaEarthMoverDistance
gpcl6:numaEmpty
gpcl6:numaEqualizeTRC
gpcl6:numaErode
gpcl6:numaEvalBestHaarParameters
gpcl6:numaEvalHaarSum
gpcl6:numaFindExtrema
gpcl6:numaFindLocForThreshold
gpcl6:numaFindPeaks
gpcl6:numaFindSortedLoc
gpcl6:numaFitMax
gpcl6:numaGammaTRC
gpcl6:numaGetBinSortIndex
gpcl6:numaGetBinnedMedian
gpcl6:numaGetCount
gpcl6:numaGetCountRelativeToZero
gpcl6:numaGetEdgeValues
gpcl6:numaGetFArray
gpcl6:numaGetFValue
gpcl6:numaGetHistogramStats
gpcl6:numaGetHistogramStatsOnInterval
gpcl6:numaGetIArray
gpcl6:numaGetIValue
gpcl6:numaGetMax
gpcl6:numaGetMeanDevFromMedian
gpcl6:numaGetMedian
gpcl6:numaGetMedianDevFromMedian
gpcl6:numaGetMin
gpcl6:numaGetMode
gpcl6:numaGetNonzeroRange
gpcl6:numaGetParameters
gpcl6:numaGetPartialSums
gpcl6:numaGetRankBinValues
gpcl6:numaGetRankValue
gpcl6:numaGetRefcount
gpcl6:numaGetSortIndex
gpcl6:numaGetSpanValues
gpcl6:numaGetStatsUsingHistogram
gpcl6:numaGetSum
gpcl6:numaGetSumOnInterval
gpcl6:numaGetUniformBinSizes
gpcl6:numaHasOnlyIntegers
gpcl6:numaHistogramGetRankFromVal
gpcl6:numaHistogramGetValFromRank
gpcl6:numaInsertNumber
gpcl6:numaIntegrateInterval
gpcl6:numaInterpolateArbxInterval
gpcl6:numaInterpolateArbxVal
gpcl6:numaInterpolateEqxInterval
gpcl6:numaInterpolateEqxVal
gpcl6:numaInvert
gpcl6:numaInvertMap
gpcl6:numaIsSorted
gpcl6:numaJoin
gpcl6:numaLogicalOp
gpcl6:numaLowPassIntervals
gpcl6:numaMakeAbsValue
gpcl6:numaMakeConstant
gpcl6:numaMakeDelta
gpcl6:numaMakeHistogram
gpcl6:numaMakeHistogramAuto
gpcl6:numaMakeHistogramClipped
gpcl6:numaMakeRankFromHistogram
gpcl6:numaMakeSequence
gpcl6:numaMakeThresholdIndicator
gpcl6:numaNormalizeHistogram
gpcl6:numaOpen
gpcl6:numaPseudorandomSequence
gpcl6:numaRandomPermutation
gpcl6:numaRead
gpcl6:numaReadMem
gpcl6:numaReadStream
gpcl6:numaRebinHistogram
gpcl6:numaRemoveBorder
gpcl6:numaRemoveNumber
gpcl6:numaReplaceNumber
gpcl6:numaReverse
gpcl6:numaSelectCrossingThreshold
gpcl6:numaSetCount
gpcl6:numaSetParameters
gpcl6:numaSetValue
gpcl6:numaShiftValue
gpcl6:numaSimilar
gpcl6:numaSimpleStats
gpcl6:numaSort
gpcl6:numaSortAutoSelect
gpcl6:numaSortByIndex
gpcl6:numaSortGeneral
gpcl6:numaSortIndexAutoSelect
gpcl6:numaSortPair
gpcl6:numaSplitDistribution
gpcl6:numaSubsample
gpcl6:numaThresholdEdges
gpcl6:numaTransform
gpcl6:numaUniformSampling
gpcl6:numaWindowedMean
gpcl6:numaWindowedMeanSquare
gpcl6:numaWindowedMedian
gpcl6:numaWindowedStats
gpcl6:numaWindowedVariance
gpcl6:numaWrite
gpcl6:numaWriteDebug
gpcl6:numaWriteMem
gpcl6:numaWriteStderr
gpcl6:numaWriteStream
gpcl6:numaaAddNuma
gpcl6:numaaAddNumber
gpcl6:numaaCompareImagesByBoxes
gpcl6:numaaCreate
gpcl6:numaaCreateFull
gpcl6:numaaDestroy
gpcl6:numaaFlattenToNuma
gpcl6:numaaGetCount
gpcl6:numaaGetNuma
gpcl6:numaaGetNumaCount
gpcl6:numaaGetNumberCount
gpcl6:numaaGetPtrArray
gpcl6:numaaGetValue
gpcl6:numaaJoin
gpcl6:numaaRead
gpcl6:numaaReadMem
gpcl6:numaaReadStream
gpcl6:numaaReplaceNuma
gpcl6:numaaTruncate
gpcl6:numaaWrite
gpcl6:numaaWriteMem
gpcl6:numaaWriteStream
gpcl6:ocr_bitmap_to_unicodes
gpcl6:ocr_fin_api
gpcl6:ocr_image_to_hocr
gpcl6:ocr_image_to_utf8
gpcl6:ocr_init_api
gpcl6:ocr_recognise
gpcl6:odt_template_items
gpcl6:odt_template_items_num
gpcl6:opdfread_ps
gpcl6:outflush
gpcl6:outprintf
gpcl6:outwrite
gpcl6:paperTable
gpcl6:paper_types_proto
gpcl6:paramStringToParam
gpcl6:paramValueToParam
gpcl6:param_coerce_typed
gpcl6:param_get_cie_render1
gpcl6:param_init_enumerator
gpcl6:param_list_copy
gpcl6:param_printer_params_default
gpcl6:param_put_bool
gpcl6:param_put_cie_render1
gpcl6:param_put_enum
gpcl6:param_put_int
gpcl6:param_put_long
gpcl6:param_read_bool
gpcl6:param_read_float
gpcl6:param_read_float_array
gpcl6:param_read_i64
gpcl6:param_read_int
gpcl6:param_read_int_array
gpcl6:param_read_long
gpcl6:param_read_name
gpcl6:param_read_name_array
gpcl6:param_read_null
gpcl6:param_read_requested_typed
gpcl6:param_read_size_t
gpcl6:param_read_string
gpcl6:param_read_string_array
gpcl6:param_write_bool
gpcl6:param_write_cie_render1
gpcl6:param_write_float
gpcl6:param_write_float_array
gpcl6:param_write_float_values
gpcl6:param_write_i64
gpcl6:param_write_int
gpcl6:param_write_int_array
gpcl6:param_write_int_values
gpcl6:param_write_long
gpcl6:param_write_name
gpcl6:param_write_name_array
gpcl6:param_write_null
gpcl6:param_write_size_t
gpcl6:param_write_string
gpcl6:param_write_string_array
gpcl6:parseStringForNumbers
gpcl6:partifyFiles
gpcl6:partifyPixac
gpcl6:patch_color_to_device_color
gpcl6:patch_fill
gpcl6:patch_resolve_color
gpcl6:pathJoin
gpcl6:pattern_accum_dev_spec_op
gpcl6:pattern_clist_open_device
gpcl6:pc_4bit_map_color_rgb
gpcl6:pc_4bit_map_rgb_color
gpcl6:pc_8bit_map_color_rgb
gpcl6:pc_8bit_map_rgb_color
gpcl6:pc_write_palette
gpcl6:pccprint_init
gpcl6:pcf_getcount
gpcl6:pcf_inccount
gpcl6:pcfont_init
gpcl6:pcjob_init
gpcl6:pcl3_begin_page
gpcl6:pcl3_begin_raster
gpcl6:pcl3_end_file
gpcl6:pcl3_end_page
gpcl6:pcl3_end_raster
gpcl6:pcl3_fill_defaults
gpcl6:pcl3_init_file
gpcl6:pcl3_levels_to_planes
gpcl6:pcl3_media_code
gpcl6:pcl3_page_size
gpcl6:pcl3_printers
gpcl6:pcl3_set_mediatype
gpcl6:pcl3_set_oldquality
gpcl6:pcl3_set_printquality
gpcl6:pcl3_size_description
gpcl6:pcl3_skip_groups
gpcl6:pcl3_transfer_group
gpcl6:pcl_break_underline
gpcl6:pcl_char_bytelen
gpcl6:pcl_char_get_char
gpcl6:pcl_check_symbol_support
gpcl6:pcl_cid_CCITT_raster
gpcl6:pcl_cid_IN
gpcl6:pcl_cid_get_bits_per_index
gpcl6:pcl_cid_get_bits_per_primary
gpcl6:pcl_cid_get_cspace
gpcl6:pcl_cid_get_encoding
gpcl6:pcl_cid_init
gpcl6:pcl_cmap_apply_remap_ary
gpcl6:pcl_cmap_create_remap_ary
gpcl6:pcl_cmap_map_raster
gpcl6:pcl_color_init
gpcl6:pcl_complete_raster
gpcl6:pcl_compress
gpcl6:pcl_cs_base_build_cspace
gpcl6:pcl_cs_base_build_white_cspace
gpcl6:pcl_cs_base_init
gpcl6:pcl_cs_base_install
gpcl6:pcl_cs_base_update_lookup_tbl
gpcl6:pcl_cs_indexed_build_cspace
gpcl6:pcl_cs_indexed_build_default_cspace
gpcl6:pcl_cs_indexed_build_special
gpcl6:pcl_cs_indexed_init
gpcl6:pcl_cs_indexed_install
gpcl6:pcl_cs_indexed_is_black
gpcl6:pcl_cs_indexed_is_white
gpcl6:pcl_cs_indexed_set_default_palette_entry
gpcl6:pcl_cs_indexed_set_norm_and_Decode
gpcl6:pcl_cs_indexed_set_num_entries
gpcl6:pcl_cs_indexed_set_palette_entry
gpcl6:pcl_cs_indexed_set_pen_width
gpcl6:pcl_cs_indexed_update_lookup_tbl
gpcl6:pcl_cursor_moved
gpcl6:pcl_decache_font
gpcl6:pcl_decomp_proc
gpcl6:pcl_define_class_command
gpcl6:pcl_define_class_commands
gpcl6:pcl_define_control_command
gpcl6:pcl_define_escape_command
gpcl6:pcl_disable_display_functions
gpcl6:pcl_do_CR
gpcl6:pcl_do_FF
gpcl6:pcl_do_LF
gpcl6:pcl_do_printer_reset
gpcl6:pcl_do_registrations
gpcl6:pcl_do_resets
gpcl6:pcl_do_underline
gpcl6:pcl_downloaded_and_bound
gpcl6:pcl_end_graphics_mode
gpcl6:pcl_end_graphics_mode_implicit
gpcl6:pcl_end_page
gpcl6:pcl_end_page_top
gpcl6:pcl_enter_graphics_mode
gpcl6:pcl_execute_macro
gpcl6:pcl_find_symbol_map
gpcl6:pcl_font_scale
gpcl6:pcl_free_default_objects
gpcl6:pcl_free_gstate_stk
gpcl6:pcl_frgrnd_init
gpcl6:pcl_frgrnd_set_default_foreground
gpcl6:pcl_get_default_paper
gpcl6:pcl_get_gstate
gpcl6:pcl_grestore
gpcl6:pcl_gsave
gpcl6:pcl_home_cursor
gpcl6:pcl_horiz_pic_frame_size_decipoints
gpcl6:pcl_hpgl_plot_horiz_size
gpcl6:pcl_hpgl_plot_vert_size
gpcl6:pcl_ht_build_default_ht
gpcl6:pcl_ht_init_render_methods
gpcl6:pcl_ht_is_all_gray_palette
gpcl6:pcl_ht_remap_render_method
gpcl6:pcl_ht_set_gamma
gpcl6:pcl_ht_set_halftone
gpcl6:pcl_ht_set_lookup_tbl
gpcl6:pcl_ht_set_print_mode
gpcl6:pcl_ht_set_render_method
gpcl6:pcl_ht_set_udither
gpcl6:pcl_ht_update_cspace
gpcl6:pcl_implementation
gpcl6:pcl_implicit_gl2_finish
gpcl6:pcl_init_command_index
gpcl6:pcl_init_gstate_stk
gpcl6:pcl_init_state
gpcl6:pcl_init_table
gpcl6:pcl_invert_mtx
gpcl6:pcl_legal_resolutions
gpcl6:pcl_lookup_tbl_init
gpcl6:pcl_make_rotation
gpcl6:pcl_mark_page_for_character
gpcl6:pcl_mark_page_for_current_pos
gpcl6:pcl_mark_page_for_path
gpcl6:pcl_mtx3_add
gpcl6:pcl_mtx3_convert_from_gs
gpcl6:pcl_mtx3_convert_to_gs
gpcl6:pcl_mtx3_invert
gpcl6:pcl_mtx3_mul
gpcl6:pcl_mtx3_sub
gpcl6:pcl_new_logical_page_for_passthrough
gpcl6:pcl_next_id
gpcl6:pcl_page_marked
gpcl6:pcl_palette_CR
gpcl6:pcl_palette_NP
gpcl6:pcl_palette_PW
gpcl6:pcl_palette_check_complete
gpcl6:pcl_palette_init
gpcl6:pcl_palette_set_cid
gpcl6:pcl_palette_set_color
gpcl6:pcl_palette_set_default_color
gpcl6:pcl_palette_set_gamma
gpcl6:pcl_palette_set_lookup_tbl
gpcl6:pcl_palette_set_render_method
gpcl6:pcl_palette_set_udither
gpcl6:pcl_palette_set_view_illuminant
gpcl6:pcl_paper_type_count
gpcl6:pcl_parser_shutdown
gpcl6:pcl_pattern_RF
gpcl6:pcl_pattern_build_pattern
gpcl6:pcl_pattern_clear_bi_patterns
gpcl6:pcl_pattern_free_pattern
gpcl6:pcl_pattern_get_cross
gpcl6:pcl_pattern_get_gl_uptrn
gpcl6:pcl_pattern_get_pcl_uptrn
gpcl6:pcl_pattern_get_proc_FT
gpcl6:pcl_pattern_get_proc_PCL
gpcl6:pcl_pattern_get_proc_SV
gpcl6:pcl_pattern_get_shade
gpcl6:pcl_pattern_get_solid_pattern
gpcl6:pcl_pattern_get_unsolid_pattern
gpcl6:pcl_pattern_init
gpcl6:pcl_pattern_init_bi_patterns
gpcl6:pcl_pjl_pdfmark
gpcl6:pcl_pjl_setdistillerparams
gpcl6:pcl_plain_char
gpcl6:pcl_process
gpcl6:pcl_process_init
gpcl6:pcl_recompute_font
gpcl6:pcl_reselect_font
gpcl6:pcl_select_font_by_id
gpcl6:pcl_set_cap_x
gpcl6:pcl_set_cap_y
gpcl6:pcl_set_ctm
gpcl6:pcl_set_current_font_environment
gpcl6:pcl_set_custom_paper_size
gpcl6:pcl_set_drawing_color
gpcl6:pcl_set_graphics_state
gpcl6:pcl_set_id_parameters
gpcl6:pcl_set_pic_frame_anchor_point
gpcl6:pcl_start_raster
gpcl6:pcl_status_read
gpcl6:pcl_text
gpcl6:pcl_transform_rect
gpcl6:pcl_udither_get_threshold
gpcl6:pcl_udither_init
gpcl6:pcl_upattern_init
gpcl6:pcl_update_hmi_cp
gpcl6:pcl_updated_hmi
gpcl6:pcl_vec3_add
gpcl6:pcl_vec3_sub
gpcl6:pcl_vec3_xform
gpcl6:pcl_vert_pic_frame_size_decipoints
gpcl6:pcl_vmi_default
gpcl6:pcl_xfm_get_pat_xfm
gpcl6:pcl_xfm_gl_set_pat_ref_pt
gpcl6:pcl_xfm_init
gpcl6:pcl_xfm_pcl_set_pat_ref_pt
gpcl6:pcl_xfm_reset_pcl_pat_ref_pt
gpcl6:pcmacros_init
gpcl6:pcmisc_init
gpcl6:pcpage_init
gpcl6:pcparse_do_reset
gpcl6:pcparse_init
gpcl6:pcrect_init
gpcl6:pcsfont_init
gpcl6:pcstatus_init
gpcl6:pcsymbol_init
gpcl6:pctext_init
gpcl6:pcursor_init
gpcl6:pdf14_accum_CMYK
gpcl6:pdf14_accum_CMYKspot
gpcl6:pdf14_accum_Gray
gpcl6:pdf14_accum_RGB
gpcl6:pdf14_accum_dev_spec_op
gpcl6:pdf14_clist_CMYK_device
gpcl6:pdf14_clist_CMYKspot_device
gpcl6:pdf14_clist_Gray_device
gpcl6:pdf14_clist_RGB_device
gpcl6:pdf14_clist_custom_device
gpcl6:pdf14_cmyk_cs_to_cmyk_cm
gpcl6:pdf14_cmyk_cs_to_grayspot_cm
gpcl6:pdf14_cmyk_cs_to_rgbspot_cm
gpcl6:pdf14_compose_alphaless_group
gpcl6:pdf14_compose_group
gpcl6:pdf14_decode_color
gpcl6:pdf14_decode_color16
gpcl6:pdf14_disable_device
gpcl6:pdf14_encode_color
gpcl6:pdf14_encode_color16
gpcl6:pdf14_encode_color16_tag
gpcl6:pdf14_encode_color_tag
gpcl6:pdf14_get_buffer_information
gpcl6:pdf14_gray_cs_to_cmyk_cm
gpcl6:pdf14_gray_cs_to_grayspot_cm
gpcl6:pdf14_gray_cs_to_rgbspot_cm
gpcl6:pdf14_mark_fill_rectangle
gpcl6:pdf14_ok_to_optimize
gpcl6:pdf14_preserve_backdrop
gpcl6:pdf14_preserve_backdrop_cm
gpcl6:pdf14_put_devn_params
gpcl6:pdf14_rgb_cs_to_cmyk_cm
gpcl6:pdf14_rgb_cs_to_grayspot_cm
gpcl6:pdf14_rgb_cs_to_rgbspot_cm
gpcl6:pdf14_unpack16_additive
gpcl6:pdf14_unpack16_custom
gpcl6:pdf14_unpack16_gray_mix
gpcl6:pdf14_unpack16_rgb_mix
gpcl6:pdf14_unpack16_subtractive
gpcl6:pdf14_unpack_additive
gpcl6:pdf14_unpack_custom
gpcl6:pdf14_unpack_gray_mix
gpcl6:pdf14_unpack_rgb_mix
gpcl6:pdf14_unpack_subtractive
gpcl6:pdf_add_ToUnicode
gpcl6:pdf_add_procsets
gpcl6:pdf_add_resource
gpcl6:pdf_add_subset_prefix
gpcl6:pdf_alloc_aside
gpcl6:pdf_alloc_resource
gpcl6:pdf_append_chars
gpcl6:pdf_append_data_stream_filters
gpcl6:pdf_assign_font_object_id
gpcl6:pdf_attach_font_resource
gpcl6:pdf_attached_font_resource
gpcl6:pdf_base_font_alloc
gpcl6:pdf_base_font_copy_glyph
gpcl6:pdf_base_font_drop_complete
gpcl6:pdf_base_font_font
gpcl6:pdf_base_font_free
gpcl6:pdf_base_font_is_subset
gpcl6:pdf_base_font_name
gpcl6:pdf_begin_aside
gpcl6:pdf_begin_char_proc
gpcl6:pdf_begin_data
gpcl6:pdf_begin_data_stream
gpcl6:pdf_begin_encrypt
gpcl6:pdf_begin_image_data
gpcl6:pdf_begin_obj
gpcl6:pdf_begin_resource
gpcl6:pdf_begin_resource_body
gpcl6:pdf_begin_separate
gpcl6:pdf_begin_write_image
gpcl6:pdf_bitmap_char_update_bbox
gpcl6:pdf_bitmap_fonts_alloc
gpcl6:pdf_calculate_text_size
gpcl6:pdf_cancel_resource
gpcl6:pdf_charproc_x_offset
gpcl6:pdf_charproc_y_offset
gpcl6:pdf_check_encoding_compatibility
gpcl6:pdf_check_soft_mask
gpcl6:pdf_choose_compression
gpcl6:pdf_clean_standard_fonts
gpcl6:pdf_close_aside
gpcl6:pdf_close_contents
gpcl6:pdf_close_text_contents
gpcl6:pdf_close_text_page
gpcl6:pdf_cmap_alloc
gpcl6:pdf_color_space_named
gpcl6:pdf_color_space_names
gpcl6:pdf_color_space_names_short
gpcl6:pdf_color_space_procsets
gpcl6:pdf_compare_text_state_for_charpath
gpcl6:pdf_complete_image_data
gpcl6:pdf_compute_BaseFont
gpcl6:pdf_compute_font_descriptor
gpcl6:pdf_convert_ICC
gpcl6:pdf_convert_cie_space
gpcl6:pdf_convert_truetype_font
gpcl6:pdf_convert_truetype_font_descriptor
gpcl6:pdf_copy_color_bits
gpcl6:pdf_copy_color_data
gpcl6:pdf_copy_data
gpcl6:pdf_copy_data_safe
gpcl6:pdf_copy_mask_bits
gpcl6:pdf_create_named
gpcl6:pdf_create_named_dict
gpcl6:pdf_cs_Pattern_colored
gpcl6:pdf_cs_Pattern_uncolored
gpcl6:pdf_cs_Pattern_uncolored_hl
gpcl6:pdf_cspace_init_Device
gpcl6:pdf_current_page
gpcl6:pdf_current_page_dict
gpcl6:pdf_default_text_begin
gpcl6:pdf_delete_base_space_function
gpcl6:pdf_delete_sampled_base_space_function
gpcl6:pdf_different_encoding_index
gpcl6:pdf_do_char_image
gpcl6:pdf_do_image
gpcl6:pdf_do_image_by_id
gpcl6:pdf_do_subset_font
gpcl6:pdf_document_metadata
gpcl6:pdf_drop_resource_from_chain
gpcl6:pdf_drop_resources
gpcl6:pdf_dump_converted_image
gpcl6:pdf_encode_glyph
gpcl6:pdf_encrypt_init
gpcl6:pdf_end_abort_image
gpcl6:pdf_end_aside
gpcl6:pdf_end_char_proc
gpcl6:pdf_end_charproc_accum
gpcl6:pdf_end_data
gpcl6:pdf_end_gstate
gpcl6:pdf_end_image_binary
gpcl6:pdf_end_obj
gpcl6:pdf_end_resource
gpcl6:pdf_end_separate
gpcl6:pdf_end_write_image
gpcl6:pdf_enter_substream
gpcl6:pdf_exit_substream
gpcl6:pdf_find_base14_name
gpcl6:pdf_find_glyph
gpcl6:pdf_find_named
gpcl6:pdf_find_resource_by_gs_id
gpcl6:pdf_find_resource_by_resource_id
gpcl6:pdf_find_same_resource
gpcl6:pdf_finish_FontDescriptor
gpcl6:pdf_finish_cie_space
gpcl6:pdf_finish_resources
gpcl6:pdf_finish_write_contents_type3
gpcl6:pdf_font_cidfont_alloc
gpcl6:pdf_font_descriptor_FontType
gpcl6:pdf_font_descriptor_alloc
gpcl6:pdf_font_descriptor_base_name
gpcl6:pdf_font_descriptor_drop_complete_font
gpcl6:pdf_font_descriptor_embedding
gpcl6:pdf_font_descriptor_font
gpcl6:pdf_font_descriptor_free
gpcl6:pdf_font_descriptor_id
gpcl6:pdf_font_descriptor_is_subset
gpcl6:pdf_font_descriptor_name
gpcl6:pdf_font_embed_status
gpcl6:pdf_font_id
gpcl6:pdf_font_orig_matrix
gpcl6:pdf_font_resource_font
gpcl6:pdf_font_simple_alloc
gpcl6:pdf_font_std_alloc
gpcl6:pdf_font_type0_alloc
gpcl6:pdf_font_type3_alloc
gpcl6:pdf_font_used_glyph
gpcl6:pdf_fontfile_hash
gpcl6:pdf_forget_resource
gpcl6:pdf_free_charproc_ownership
gpcl6:pdf_free_font_cache
gpcl6:pdf_free_resource_objects
gpcl6:pdf_from_stream_to_text
gpcl6:pdf_from_string_to_text
gpcl6:pdf_function
gpcl6:pdf_function_scaled
gpcl6:pdf_get_FontFile_object
gpcl6:pdf_get_docinfo_item
gpcl6:pdf_get_named
gpcl6:pdf_get_text_render_mode
gpcl6:pdf_get_text_state_values
gpcl6:pdf_glyph_widths
gpcl6:pdf_has_subset_prefix
gpcl6:pdf_iccbased_color_space
gpcl6:pdf_image_close
gpcl6:pdf_image_get_params_downscale
gpcl6:pdf_image_get_params_downscale_cmyk
gpcl6:pdf_image_get_params_downscale_cmyk_ets
gpcl6:pdf_image_names_full
gpcl6:pdf_image_names_short
gpcl6:pdf_image_open
gpcl6:pdf_image_print_page
gpcl6:pdf_image_put_params_downscale
gpcl6:pdf_image_put_params_downscale_cmyk
gpcl6:pdf_image_put_params_downscale_cmyk_ets
gpcl6:pdf_image_writer_init
gpcl6:pdf_indexed_color_space
gpcl6:pdf_initialize_ids
gpcl6:pdf_is_CID_font
gpcl6:pdf_is_simple_font
gpcl6:pdf_is_standard_font
gpcl6:pdf_key_eq
gpcl6:pdf_locate_font_cache_elem
gpcl6:pdf_make_alt_stream
gpcl6:pdf_make_base_space_function
gpcl6:pdf_make_bitmap_matrix
gpcl6:pdf_make_font3_resource
gpcl6:pdf_make_named
gpcl6:pdf_make_named_dict
gpcl6:pdf_make_sampled_base_space_function
gpcl6:pdf_mark_font_descriptor_used
gpcl6:pdf_mark_glyph_names
gpcl6:pdf_modify_text_render_mode
gpcl6:pdf_must_put_clip_path
gpcl6:pdf_obj_forward_ref
gpcl6:pdf_obj_mark_unused
gpcl6:pdf_obj_ref
gpcl6:pdf_objname_is_valid
gpcl6:pdf_obtain_cidfont_resource
gpcl6:pdf_obtain_cidfont_widths_arrays
gpcl6:pdf_obtain_font_resource
gpcl6:pdf_obtain_font_resource_unencoded
gpcl6:pdf_obtain_parent_type0_font_resource
gpcl6:pdf_ocr_close
gpcl6:pdf_ocr_open
gpcl6:pdf_open_aside
gpcl6:pdf_open_contents
gpcl6:pdf_open_obj
gpcl6:pdf_open_page
gpcl6:pdf_open_separate
gpcl6:pdf_outline_fonts_alloc
gpcl6:pdf_page_id
gpcl6:pdf_pop_namespace
gpcl6:pdf_prepare_drawing
gpcl6:pdf_prepare_fill
gpcl6:pdf_prepare_fill_stroke
gpcl6:pdf_prepare_image
gpcl6:pdf_prepare_imagemask
gpcl6:pdf_prepare_initial_viewer_state
gpcl6:pdf_prepare_stroke
gpcl6:pdf_print_resource_statistics
gpcl6:pdf_process_string_aux
gpcl6:pdf_push_namespace
gpcl6:pdf_put_clip_path
gpcl6:pdf_put_colored_pattern
gpcl6:pdf_put_filters
gpcl6:pdf_put_image_filters
gpcl6:pdf_put_image_matrix
gpcl6:pdf_put_image_values
gpcl6:pdf_put_lab_color_space
gpcl6:pdf_put_matrix
gpcl6:pdf_put_name
gpcl6:pdf_put_name_chars
gpcl6:pdf_put_name_chars_proc
gpcl6:pdf_put_pattern2
gpcl6:pdf_put_string
gpcl6:pdf_put_uncolored_pattern
gpcl6:pdf_record_usage
gpcl6:pdf_record_usage_by_parent
gpcl6:pdf_refer_named
gpcl6:pdf_release_FontDescriptor_components
gpcl6:pdf_remember_clip_path
gpcl6:pdf_remove_masked_image_converter
gpcl6:pdf_render_mode_uses_stroke
gpcl6:pdf_replace_names
gpcl6:pdf_reserve_object_id
gpcl6:pdf_reset_color
gpcl6:pdf_reset_graphics
gpcl6:pdf_reset_text
gpcl6:pdf_reset_text_page
gpcl6:pdf_reset_text_state
gpcl6:pdf_resize_resource_arrays
gpcl6:pdf_resource_id
gpcl6:pdf_resource_type_names
gpcl6:pdf_resource_type_structs
gpcl6:pdf_restore_viewer_state
gpcl6:pdf_reverse_resource_chain
gpcl6:pdf_save_viewer_state
gpcl6:pdf_scan_token
gpcl6:pdf_scan_token_composite
gpcl6:pdf_set_FontFile_object
gpcl6:pdf_set_PaintType0_params
gpcl6:pdf_set_charproc_attrs
gpcl6:pdf_set_drawing_color
gpcl6:pdf_set_font_descriptor_usage
gpcl6:pdf_set_initial_color
gpcl6:pdf_set_process_color_model
gpcl6:pdf_set_pure_color
gpcl6:pdf_set_text_process_state
gpcl6:pdf_set_text_render_mode
gpcl6:pdf_set_text_state_default
gpcl6:pdf_set_text_state_values
gpcl6:pdf_set_text_wmode
gpcl6:pdf_setup_masked_image_converter
gpcl6:pdf_shift_text_currentpoint
gpcl6:pdf_standard_fonts
gpcl6:pdf_start_charproc_accum
gpcl6:pdf_stell
gpcl6:pdf_store_default_Producer
gpcl6:pdf_store_page_resources
gpcl6:pdf_store_pattern1_params
gpcl6:pdf_string_to_cos_name
gpcl6:pdf_substitute_pattern
gpcl6:pdf_substitute_resource
gpcl6:pdf_text_data_alloc
gpcl6:pdf_text_distance_transform
gpcl6:pdf_text_position
gpcl6:pdf_text_release_cgp
gpcl6:pdf_text_state_alloc
gpcl6:pdf_text_state_copy
gpcl6:pdf_try_prepare_fill
gpcl6:pdf_unclip
gpcl6:pdf_update_text_state
gpcl6:pdf_used_charproc_resources
gpcl6:pdf_vector_procs
gpcl6:pdf_viewer_state_from_gs_gstate
gpcl6:pdf_write_CIDSet
gpcl6:pdf_write_CharSet
gpcl6:pdf_write_FontDescriptor
gpcl6:pdf_write_FontFile_entry
gpcl6:pdf_write_OneByteIdentityH
gpcl6:pdf_write_bitmap_fonts_Encoding
gpcl6:pdf_write_cid_systemInfo_separate
gpcl6:pdf_write_cid_system_info
gpcl6:pdf_write_cmap
gpcl6:pdf_write_contents_bitmap
gpcl6:pdf_write_contents_cid0
gpcl6:pdf_write_contents_cid2
gpcl6:pdf_write_contents_simple
gpcl6:pdf_write_contents_std
gpcl6:pdf_write_contents_type0
gpcl6:pdf_write_embedded_font
gpcl6:pdf_write_encoding
gpcl6:pdf_write_encoding_ref
gpcl6:pdf_write_font_bbox
gpcl6:pdf_write_font_bbox_float
gpcl6:pdf_write_function
gpcl6:pdf_write_resource_objects
gpcl6:pdf_write_saved_string
gpcl6:pdf_write_value
gpcl6:pdfmark_close_outline
gpcl6:pdfmark_end_pagelabels
gpcl6:pdfmark_process
gpcl6:pdfmark_scan_int
gpcl6:pdfmark_write_article
gpcl6:pdfwrite_fwrite_args_comment
gpcl6:pdfwrite_pdf_open_document
gpcl6:pdfwrite_write_args_comment
gpcl6:pdl_implementations
gpcl6:pgchar_init
gpcl6:pgcolor_init
gpcl6:pgconfig_init
gpcl6:pgframe_init
gpcl6:pginit_init
gpcl6:pglabel_init
gpcl6:pglfill_init
gpcl6:pgpoly_init
gpcl6:pgvector_init
gpcl6:pixAbsDiffByColumn
gpcl6:pixAbsDiffByRow
gpcl6:pixAbsDiffInRect
gpcl6:pixAbsDiffOnLine
gpcl6:pixAbsDifference
gpcl6:pixAccumulate
gpcl6:pixAdaptThresholdToBinary
gpcl6:pixAdaptThresholdToBinaryGen
gpcl6:pixAddAlphaTo1bpp
gpcl6:pixAddAlphaToBlend
gpcl6:pixAddBlackOrWhiteBorder
gpcl6:pixAddBorder
gpcl6:pixAddBorderGeneral
gpcl6:pixAddConstantGray
gpcl6:pixAddContinuedBorder
gpcl6:pixAddGaussianNoise
gpcl6:pixAddGray
gpcl6:pixAddGrayColormap8
gpcl6:pixAddMinimalGrayColormap8
gpcl6:pixAddMirroredBorder
gpcl6:pixAddMixedBorder
gpcl6:pixAddRGB
gpcl6:pixAddRepeatedBorder
gpcl6:pixAddSingleTextblock
gpcl6:pixAddText
gpcl6:pixAddTextlines
gpcl6:pixAddWithIndicator
gpcl6:pixAffine
gpcl6:pixAffineColor
gpcl6:pixAffineGray
gpcl6:pixAffinePta
gpcl6:pixAffinePtaColor
gpcl6:pixAffinePtaGray
gpcl6:pixAffinePtaWithAlpha
gpcl6:pixAffineSampled
gpcl6:pixAffineSampledPta
gpcl6:pixAffineSequential
gpcl6:pixAlphaBlendUniform
gpcl6:pixAlphaIsOpaque
gpcl6:pixAnd
gpcl6:pixApplyInvBackgroundGrayMap
gpcl6:pixApplyInvBackgroundRGBMap
gpcl6:pixApplyVariableGrayMap
gpcl6:pixAssignToNearestColor
gpcl6:pixAutoPhotoinvert
gpcl6:pixAverageByColumn
gpcl6:pixAverageByRow
gpcl6:pixAverageInRect
gpcl6:pixAverageInRectRGB
gpcl6:pixAverageIntensityProfile
gpcl6:pixAverageOnLine
gpcl6:pixBackgroundNorm
gpcl6:pixBackgroundNormFlex
gpcl6:pixBackgroundNormGrayArray
gpcl6:pixBackgroundNormGrayArrayMorph
gpcl6:pixBackgroundNormMorph
gpcl6:pixBackgroundNormRGBArrays
gpcl6:pixBackgroundNormRGBArraysMorph
gpcl6:pixBackgroundNormSimple
gpcl6:pixBestCorrelation
gpcl6:pixBilateral
gpcl6:pixBilateralExact
gpcl6:pixBilateralGray
gpcl6:pixBilateralGrayExact
gpcl6:pixBilinear
gpcl6:pixBilinearColor
gpcl6:pixBilinearGray
gpcl6:pixBilinearPta
gpcl6:pixBilinearPtaColor
gpcl6:pixBilinearPtaGray
gpcl6:pixBilinearPtaWithAlpha
gpcl6:pixBilinearSampled
gpcl6:pixBilinearSampledPta
gpcl6:pixBlend
gpcl6:pixBlendBackgroundToColor
gpcl6:pixBlendBoxaRandom
gpcl6:pixBlendCmap
gpcl6:pixBlendColor
gpcl6:pixBlendColorByChannel
gpcl6:pixBlendGray
gpcl6:pixBlendGrayAdapt
gpcl6:pixBlendGrayInverse
gpcl6:pixBlendHardLight
gpcl6:pixBlendInRect
gpcl6:pixBlendMask
gpcl6:pixBlendWithGrayMask
gpcl6:pixBlockBilateralExact
gpcl6:pixBlockconv
gpcl6:pixBlockconvAccum
gpcl6:pixBlockconvGray
gpcl6:pixBlockconvGrayTile
gpcl6:pixBlockconvGrayUnnormalized
gpcl6:pixBlockconvTiled
gpcl6:pixBlockrank
gpcl6:pixBlocksum
gpcl6:pixCensusTransform
gpcl6:pixCentroid
gpcl6:pixCentroid8
gpcl6:pixChangeRefcount
gpcl6:pixChooseOutputFormat
gpcl6:pixCleanBackgroundToWhite
gpcl6:pixCleanupByteProcessing
gpcl6:pixClearAll
gpcl6:pixClearInRect
gpcl6:pixClearPixel
gpcl6:pixClipBoxToEdges
gpcl6:pixClipBoxToForeground
gpcl6:pixClipMasked
gpcl6:pixClipRectangle
gpcl6:pixClipRectangleWithBorder
gpcl6:pixClipRectangles
gpcl6:pixClipToForeground
gpcl6:pixClone
gpcl6:pixClose
gpcl6:pixCloseBrick
gpcl6:pixCloseBrickDwa
gpcl6:pixCloseCompBrick
gpcl6:pixCloseCompBrickDwa
gpcl6:pixCloseCompBrickExtendDwa
gpcl6:pixCloseGeneralized
gpcl6:pixCloseGray
gpcl6:pixCloseGray3
gpcl6:pixCloseSafe
gpcl6:pixCloseSafeBrick
gpcl6:pixCloseSafeCompBrick
gpcl6:pixColorContent
gpcl6:pixColorFraction
gpcl6:pixColorGray
gpcl6:pixColorGrayCmap
gpcl6:pixColorGrayMasked
gpcl6:pixColorGrayMaskedCmap
gpcl6:pixColorGrayRegions
gpcl6:pixColorGrayRegionsCmap
gpcl6:pixColorMagnitude
gpcl6:pixColorMorph
gpcl6:pixColorMorphSequence
gpcl6:pixColorSegment
gpcl6:pixColorSegmentClean
gpcl6:pixColorSegmentCluster
gpcl6:pixColorSegmentRemoveColors
gpcl6:pixColorShiftRGB
gpcl6:pixColorShiftWhitePoint
gpcl6:pixColorizeGray
gpcl6:pixColorsForQuantization
gpcl6:pixColumnStats
gpcl6:pixCombineMasked
gpcl6:pixCombineMaskedGeneral
gpcl6:pixCompareBinary
gpcl6:pixCompareGray
gpcl6:pixCompareGrayByHisto
gpcl6:pixCompareGrayOrRGB
gpcl6:pixComparePhotoRegionsByHisto
gpcl6:pixCompareRGB
gpcl6:pixCompareRankDifference
gpcl6:pixCompareTiled
gpcl6:pixCompareWithTranslation
gpcl6:pixComponentFunction
gpcl6:pixConformsToRectangle
gpcl6:pixConnComp
gpcl6:pixConnCompAreaTransform
gpcl6:pixConnCompBB
gpcl6:pixConnCompIncrAdd
gpcl6:pixConnCompIncrInit
gpcl6:pixConnCompPixa
gpcl6:pixConnCompTransform
gpcl6:pixContrastNorm
gpcl6:pixContrastTRC
gpcl6:pixContrastTRCMasked
gpcl6:pixConvert16To8
gpcl6:pixConvert1To16
gpcl6:pixConvert1To2
gpcl6:pixConvert1To2Cmap
gpcl6:pixConvert1To32
gpcl6:pixConvert1To4
gpcl6:pixConvert1To4Cmap
gpcl6:pixConvert1To8
gpcl6:pixConvert1To8Cmap
gpcl6:pixConvert24To32
gpcl6:pixConvert2To8
gpcl6:pixConvert32To16
gpcl6:pixConvert32To24
gpcl6:pixConvert32To8
gpcl6:pixConvert4To8
gpcl6:pixConvert8To16
gpcl6:pixConvert8To2
gpcl6:pixConvert8To32
gpcl6:pixConvert8To4
gpcl6:pixConvertCmapTo1
gpcl6:pixConvertColorToSubpixelRGB
gpcl6:pixConvertDataToDna
gpcl6:pixConvertForPSWrap
gpcl6:pixConvertGrayToColormap
gpcl6:pixConvertGrayToColormap8
gpcl6:pixConvertGrayToFalseColor
gpcl6:pixConvertGrayToSubpixelRGB
gpcl6:pixConvertHSVToRGB
gpcl6:pixConvertLossless
gpcl6:pixConvertRGBToBinaryArb
gpcl6:pixConvertRGBToCmapLossless
gpcl6:pixConvertRGBToColormap
gpcl6:pixConvertRGBToGray
gpcl6:pixConvertRGBToGrayArb
gpcl6:pixConvertRGBToGrayFast
gpcl6:pixConvertRGBToGrayGeneral
gpcl6:pixConvertRGBToGrayMinMax
gpcl6:pixConvertRGBToGraySatBoost
gpcl6:pixConvertRGBToHSV
gpcl6:pixConvertRGBToHue
gpcl6:pixConvertRGBToLAB
gpcl6:pixConvertRGBToLuminance
gpcl6:pixConvertRGBToSaturation
gpcl6:pixConvertRGBToValue
gpcl6:pixConvertRGBToXYZ
gpcl6:pixConvertRGBToYUV
gpcl6:pixConvertTo1
gpcl6:pixConvertTo16
gpcl6:pixConvertTo1Adaptive
gpcl6:pixConvertTo1BySampling
gpcl6:pixConvertTo2
gpcl6:pixConvertTo32
gpcl6:pixConvertTo32BySampling
gpcl6:pixConvertTo4
gpcl6:pixConvertTo8
gpcl6:pixConvertTo8BySampling
gpcl6:pixConvertTo8Colormap
gpcl6:pixConvertTo8Or32
gpcl6:pixConvertToDPix
gpcl6:pixConvertToFPix
gpcl6:pixConvertToPdf
gpcl6:pixConvertToPdfData
gpcl6:pixConvertToPdfDataSegmented
gpcl6:pixConvertToPdfSegmented
gpcl6:pixConvertToSubpixelRGB
gpcl6:pixConvertYUVToRGB
gpcl6:pixConvolve
gpcl6:pixConvolveRGB
gpcl6:pixConvolveRGBSep
gpcl6:pixConvolveSep
gpcl6:pixConvolveWithBias
gpcl6:pixCopy
gpcl6:pixCopyBorder
gpcl6:pixCopyColormap
gpcl6:pixCopyDimensions
gpcl6:pixCopyInputFormat
gpcl6:pixCopyRGBComponent
gpcl6:pixCopyResolution
gpcl6:pixCopySpp
gpcl6:pixCopyText
gpcl6:pixCopyWithBoxa
gpcl6:pixCorrelationBinary
gpcl6:pixCorrelationScore
gpcl6:pixCorrelationScoreShifted
gpcl6:pixCorrelationScoreSimple
gpcl6:pixCorrelationScoreThresholded
gpcl6:pixCountArbInRect
gpcl6:pixCountByColumn
gpcl6:pixCountByRow
gpcl6:pixCountConnComp
gpcl6:pixCountPixels
gpcl6:pixCountPixelsByColumn
gpcl6:pixCountPixelsByRow
gpcl6:pixCountPixelsInRect
gpcl6:pixCountPixelsInRow
gpcl6:pixCountRGBColors
gpcl6:pixCountRGBColorsByHash
gpcl6:pixCountTextColumns
gpcl6:pixCreate
gpcl6:pixCreateFromPixcomp
gpcl6:pixCreateHeader
gpcl6:pixCreateNoInit
gpcl6:pixCreateRGBImage
gpcl6:pixCreateTemplate
gpcl6:pixCreateTemplateNoInit
gpcl6:pixCreateWithCmap
gpcl6:pixCropAlignedToCentroid
gpcl6:pixCropToMatch
gpcl6:pixCropToSize
gpcl6:pixDarkenGray
gpcl6:pixDecideIfPhotoImage
gpcl6:pixDecideIfTable
gpcl6:pixDecideIfText
gpcl6:pixDeserializeFromMemory
gpcl6:pixDeskew
gpcl6:pixDeskewBoth
gpcl6:pixDeskewGeneral
gpcl6:pixDeskewLocal
gpcl6:pixDestroy
gpcl6:pixDestroyColormap
gpcl6:pixDilate
gpcl6:pixDilateBrick
gpcl6:pixDilateBrickDwa
gpcl6:pixDilateCompBrick
gpcl6:pixDilateCompBrickDwa
gpcl6:pixDilateCompBrickExtendDwa
gpcl6:pixDilateGray
gpcl6:pixDilateGray3
gpcl6:pixDisplay
gpcl6:pixDisplayColorArray
gpcl6:pixDisplayDiffBinary
gpcl6:pixDisplayHitMissSel
gpcl6:pixDisplayLayersRGBA
gpcl6:pixDisplayMatchedPattern
gpcl6:pixDisplayPta
gpcl6:pixDisplayPtaPattern
gpcl6:pixDisplayPtaa
gpcl6:pixDisplayPtaaPattern
gpcl6:pixDisplaySelectedPixels
gpcl6:pixDisplayWithTitle
gpcl6:pixDisplayWrite
gpcl6:pixDistanceFunction
gpcl6:pixDitherTo2bpp
gpcl6:pixDitherTo2bppSpec
gpcl6:pixDitherToBinary
gpcl6:pixDitherToBinarySpec
gpcl6:pixDrawBoxa
gpcl6:pixDrawBoxaRandom
gpcl6:pixEmbedForRotation
gpcl6:pixEndianByteSwap
gpcl6:pixEndianByteSwapNew
gpcl6:pixEndianTwoByteSwap
gpcl6:pixEndianTwoByteSwapNew
gpcl6:pixEqual
gpcl6:pixEqualWithAlpha
gpcl6:pixEqualWithCmap
gpcl6:pixEqualizeTRC
gpcl6:pixErode
gpcl6:pixErodeBrick
gpcl6:pixErodeBrickDwa
gpcl6:pixErodeCompBrick
gpcl6:pixErodeCompBrickDwa
gpcl6:pixErodeCompBrickExtendDwa
gpcl6:pixErodeGray
gpcl6:pixErodeGray3
gpcl6:pixEstimateBackground
gpcl6:pixExpandBinaryPower2
gpcl6:pixExpandBinaryReplicate
gpcl6:pixExpandReplicate
gpcl6:pixExtendByReplication
gpcl6:pixExtractBorderConnComps
gpcl6:pixExtractBoundary
gpcl6:pixExtractData
gpcl6:pixExtractOnLine
gpcl6:pixExtractRawTextlines
gpcl6:pixExtractTextlines
gpcl6:pixFMorphopGen_1
gpcl6:pixFMorphopGen_2
gpcl6:pixFadeWithGray
gpcl6:pixFastTophat
gpcl6:pixFewColorsMedianCutQuantMixed
gpcl6:pixFewColorsOctcubeQuant1
gpcl6:pixFewColorsOctcubeQuant2
gpcl6:pixFewColorsOctcubeQuantMixed
gpcl6:pixFillBgFromBorder
gpcl6:pixFillClosedBorders
gpcl6:pixFillHolesToBoundingRect
gpcl6:pixFillMapHoles
gpcl6:pixFillPolygon
gpcl6:pixFilterComponentBySize
gpcl6:pixFinalAccumulate
gpcl6:pixFinalAccumulateThreshold
gpcl6:pixFindAreaFraction
gpcl6:pixFindAreaFractionMasked
gpcl6:pixFindAreaPerimRatio
gpcl6:pixFindBaselines
gpcl6:pixFindColorRegions
gpcl6:pixFindCornerPixels
gpcl6:pixFindDifferentialSquareSum
gpcl6:pixFindEqualValues
gpcl6:pixFindHistoPeaksHSV
gpcl6:pixFindHorizontalRuns
gpcl6:pixFindLargeRectangles
gpcl6:pixFindLargestRectangle
gpcl6:pixFindMaxHorizontalRunOnLine
gpcl6:pixFindMaxRuns
gpcl6:pixFindMaxVerticalRunOnLine
gpcl6:pixFindNormalizedSquareSum
gpcl6:pixFindOverlapFraction
gpcl6:pixFindPageForeground
gpcl6:pixFindPerimSizeRatio
gpcl6:pixFindPerimToAreaRatio
gpcl6:pixFindRectangleComps
gpcl6:pixFindRectangleInCC
gpcl6:pixFindRepCloseTile
gpcl6:pixFindSkew
gpcl6:pixFindSkewAndDeskew
gpcl6:pixFindSkewOrthogonalRange
gpcl6:pixFindSkewSweep
gpcl6:pixFindSkewSweepAndSearch
gpcl6:pixFindSkewSweepAndSearchScore
gpcl6:pixFindSkewSweepAndSearchScorePivot
gpcl6:pixFindThreshFgExtent
gpcl6:pixFindVerticalRuns
gpcl6:pixFindWordAndCharacterBoxes
gpcl6:pixFixedOctcubeQuant256
gpcl6:pixFixedOctcubeQuantGenRGB
gpcl6:pixFlipLR
gpcl6:pixFlipPixel
gpcl6:pixFlipTB
gpcl6:pixForegroundFraction
gpcl6:pixFractionFgInMask
gpcl6:pixFreeData
gpcl6:pixGammaTRC
gpcl6:pixGammaTRCMasked
gpcl6:pixGammaTRCWithAlpha
gpcl6:pixGenHalftoneMask
gpcl6:pixGenPhotoHistos
gpcl6:pixGenTextblockMask
gpcl6:pixGenTextlineMask
gpcl6:pixGenerateCIData
gpcl6:pixGenerateFromPta
gpcl6:pixGenerateHalftoneMask
gpcl6:pixGenerateMaskByBand
gpcl6:pixGenerateMaskByBand32
gpcl6:pixGenerateMaskByDiscr32
gpcl6:pixGenerateMaskByValue
gpcl6:pixGeneratePtaBoundary
gpcl6:pixGenerateSelBoundary
gpcl6:pixGenerateSelRandom
gpcl6:pixGenerateSelWithRuns
gpcl6:pixGetAllCCBorders
gpcl6:pixGetAutoFormat
gpcl6:pixGetAverageMasked
gpcl6:pixGetAverageMaskedRGB
gpcl6:pixGetAverageTiled
gpcl6:pixGetAverageTiledRGB
gpcl6:pixGetBackgroundGrayMap
gpcl6:pixGetBackgroundGrayMapMorph
gpcl6:pixGetBackgroundRGBMap
gpcl6:pixGetBackgroundRGBMapMorph
gpcl6:pixGetBinnedColor
gpcl6:pixGetBinnedComponentRange
gpcl6:pixGetBlackOrWhiteVal
gpcl6:pixGetCmapHistogram
gpcl6:pixGetCmapHistogramInRect
gpcl6:pixGetCmapHistogramMasked
gpcl6:pixGetColorAmapHistogram
gpcl6:pixGetColorHistogram
gpcl6:pixGetColorHistogramMasked
gpcl6:pixGetColorNearMaskBoundary
gpcl6:pixGetColormap
gpcl6:pixGetColumnStats
gpcl6:pixGetData
gpcl6:pixGetDepth
gpcl6:pixGetDifferenceHistogram
gpcl6:pixGetDifferenceStats
gpcl6:pixGetDimensions
gpcl6:pixGetEdgeProfile
gpcl6:pixGetExtremeValue
gpcl6:pixGetGrayHistogram
gpcl6:pixGetGrayHistogramInRect
gpcl6:pixGetGrayHistogramMasked
gpcl6:pixGetGrayHistogramTiled
gpcl6:pixGetHeight
gpcl6:pixGetInputFormat
gpcl6:pixGetInvBackgroundMap
gpcl6:pixGetLastOffPixelInRun
gpcl6:pixGetLastOnPixelInRun
gpcl6:pixGetLinePtrs
gpcl6:pixGetLocalSkewAngles
gpcl6:pixGetLocalSkewTransform
gpcl6:pixGetMaxColorIndex
gpcl6:pixGetMaxValueInRect
gpcl6:pixGetMomentByColumn
gpcl6:pixGetMostPopulatedColors
gpcl6:pixGetOuterBorder
gpcl6:pixGetOuterBordersPtaa
gpcl6:pixGetPSNR
gpcl6:pixGetPerceptualDiff
gpcl6:pixGetPixel
gpcl6:pixGetPixelAverage
gpcl6:pixGetPixelStats
gpcl6:pixGetRGBComponent
gpcl6:pixGetRGBComponentCmap
gpcl6:pixGetRGBHistogram
gpcl6:pixGetRGBLine
gpcl6:pixGetRGBPixel
gpcl6:pixGetRandomPixel
gpcl6:pixGetRangeValues
gpcl6:pixGetRankColorArray
gpcl6:pixGetRankValue
gpcl6:pixGetRankValueMasked
gpcl6:pixGetRankValueMaskedRGB
gpcl6:pixGetRasterData
gpcl6:pixGetRefcount
gpcl6:pixGetRegionsBinary
gpcl6:pixGetResolution
gpcl6:pixGetRowStats
gpcl6:pixGetRunCentersOnLine
gpcl6:pixGetRunsOnLine
gpcl6:pixGetSortedNeighborValues
gpcl6:pixGetSpp
gpcl6:pixGetText
gpcl6:pixGetTextCompNew
gpcl6:pixGetTileCount
gpcl6:pixGetWidth
gpcl6:pixGetWordBoxesInTextlines
gpcl6:pixGetWordsInTextlines
gpcl6:pixGetWpl
gpcl6:pixGetXRes
gpcl6:pixGetYRes
gpcl6:pixGlobalNormNoSatRGB
gpcl6:pixGlobalNormRGB
gpcl6:pixGrayMorphSequence
gpcl6:pixGrayQuantFromCmap
gpcl6:pixGrayQuantFromHisto
gpcl6:pixHDome
gpcl6:pixHMT
gpcl6:pixHShear
gpcl6:pixHShearCenter
gpcl6:pixHShearCorner
gpcl6:pixHShearIP
gpcl6:pixHShearLI
gpcl6:pixHalfEdgeByBandpass
gpcl6:pixHasHighlightRed
gpcl6:pixHaustest
gpcl6:pixHolesByFilling
gpcl6:pixInferResolution
gpcl6:pixInitAccumulate
gpcl6:pixIntersectionOfMorphOps
gpcl6:pixInvert
gpcl6:pixLinearEdgeFade
gpcl6:pixLinearMapToTargetColor
gpcl6:pixLocToColorTransform
gpcl6:pixLocalExtrema
gpcl6:pixMakeAlphaFromMask
gpcl6:pixMakeArbMaskFromRGB
gpcl6:pixMakeColorSquare
gpcl6:pixMakeCoveringOfRectangles
gpcl6:pixMakeFrameMask
gpcl6:pixMakeGamutRGB
gpcl6:pixMakeHistoHS
gpcl6:pixMakeHistoHV
gpcl6:pixMakeHistoSV
gpcl6:pixMakeMaskFromLUT
gpcl6:pixMakeMaskFromVal
gpcl6:pixMakeRangeMaskHS
gpcl6:pixMakeRangeMaskHV
gpcl6:pixMakeRangeMaskSV
gpcl6:pixMakeSymmetricMask
gpcl6:pixMapWithInvariantHue
gpcl6:pixMaskBoxa
gpcl6:pixMaskConnComp
gpcl6:pixMaskOverColorPixels
gpcl6:pixMaskOverColorRange
gpcl6:pixMaskOverGrayPixels
gpcl6:pixMaxDynamicRange
gpcl6:pixMaxDynamicRangeRGB
gpcl6:pixMeanInRectangle
gpcl6:pixMeanSquareAccum
gpcl6:pixMeasureEdgeSmoothness
gpcl6:pixMeasureSaturation
gpcl6:pixMedianCutHisto
gpcl6:pixMedianCutQuant
gpcl6:pixMedianCutQuantGeneral
gpcl6:pixMedianCutQuantMixed
gpcl6:pixMedianFilter
gpcl6:pixMinMaxNearLine
gpcl6:pixMinOrMax
gpcl6:pixMirroredTiling
gpcl6:pixModifyBrightness
gpcl6:pixModifyHue
gpcl6:pixModifySaturation
gpcl6:pixMorphCompSequence
gpcl6:pixMorphCompSequenceDwa
gpcl6:pixMorphDwa_1
gpcl6:pixMorphDwa_2
gpcl6:pixMorphGradient
gpcl6:pixMorphSequence
gpcl6:pixMorphSequenceByComponent
gpcl6:pixMorphSequenceByRegion
gpcl6:pixMorphSequenceDwa
gpcl6:pixMorphSequenceMasked
gpcl6:pixMosaicColorShiftRGB
gpcl6:pixMultConstAccumulate
gpcl6:pixMultConstantColor
gpcl6:pixMultConstantGray
gpcl6:pixMultMatrixColor
gpcl6:pixMultiplyByColor
gpcl6:pixMultiplyGray
gpcl6:pixNumColors
gpcl6:pixNumSignificantGrayColors
gpcl6:pixNumberOccupiedOctcubes
gpcl6:pixOctcubeHistogram
gpcl6:pixOctcubeQuantFromCmap
gpcl6:pixOctcubeQuantMixedWithGray
gpcl6:pixOctreeColorQuant
gpcl6:pixOctreeColorQuantGeneral
gpcl6:pixOctreeQuantByPopulation
gpcl6:pixOctreeQuantNumColors
gpcl6:pixOpen
gpcl6:pixOpenBrick
gpcl6:pixOpenBrickDwa
gpcl6:pixOpenCompBrick
gpcl6:pixOpenCompBrickDwa
gpcl6:pixOpenCompBrickExtendDwa
gpcl6:pixOpenGeneralized
gpcl6:pixOpenGray
gpcl6:pixOpenGray3
gpcl6:pixOr
gpcl6:pixPadToCenterCentroid
gpcl6:pixPaintBoxa
gpcl6:pixPaintBoxaRandom
gpcl6:pixPaintSelfThroughMask
gpcl6:pixPaintThroughMask
gpcl6:pixPlotAlongPta
gpcl6:pixPrepare1bpp
gpcl6:pixPrintStreamInfo
gpcl6:pixProjective
gpcl6:pixProjectiveColor
gpcl6:pixProjectiveGray
gpcl6:pixProjectivePta
gpcl6:pixProjectivePtaColor
gpcl6:pixProjectivePtaGray
gpcl6:pixProjectivePtaWithAlpha
gpcl6:pixProjectiveSampled
gpcl6:pixProjectiveSampledPta
gpcl6:pixQuadraticVShear
gpcl6:pixQuadraticVShearLI
gpcl6:pixQuadraticVShearSampled
gpcl6:pixQuadtreeMean
gpcl6:pixQuadtreeVariance
gpcl6:pixQuantFromCmap
gpcl6:pixQuantizeIfFewColors
gpcl6:pixRandomHarmonicWarp
gpcl6:pixRankBinByStrip
gpcl6:pixRankColumnTransform
gpcl6:pixRankFilter
gpcl6:pixRankFilterGray
gpcl6:pixRankFilterRGB
gpcl6:pixRankFilterWithScaling
gpcl6:pixRankHaustest
gpcl6:pixRankRowTransform
gpcl6:pixRasterop
gpcl6:pixRasteropFullImage
gpcl6:pixRasteropHip
gpcl6:pixRasteropIP
gpcl6:pixRasteropVip
gpcl6:pixRead
gpcl6:pixReadFromMultipageTiff
gpcl6:pixReadHeader
gpcl6:pixReadHeaderMem
gpcl6:pixReadIndexed
gpcl6:pixReadJp2k
gpcl6:pixReadJpeg
gpcl6:pixReadMem
gpcl6:pixReadMemBmp
gpcl6:pixReadMemFromMultipageTiff
gpcl6:pixReadMemGif
gpcl6:pixReadMemJp2k
gpcl6:pixReadMemJpeg
gpcl6:pixReadMemPng
gpcl6:pixReadMemPnm
gpcl6:pixReadMemSpix
gpcl6:pixReadMemTiff
gpcl6:pixReadMemWebP
gpcl6:pixReadStream
gpcl6:pixReadStreamBmp
gpcl6:pixReadStreamGif
gpcl6:pixReadStreamJp2k
gpcl6:pixReadStreamJpeg
gpcl6:pixReadStreamPng
gpcl6:pixReadStreamPnm
gpcl6:pixReadStreamSpix
gpcl6:pixReadStreamTiff
gpcl6:pixReadStreamWebP
gpcl6:pixReadTiff
gpcl6:pixReadWithHint
gpcl6:pixReduceBinary2
gpcl6:pixReduceRankBinary2
gpcl6:pixReduceRankBinaryCascade
gpcl6:pixRemoveAlpha
gpcl6:pixRemoveBorder
gpcl6:pixRemoveBorderConnComps
gpcl6:pixRemoveBorderGeneral
gpcl6:pixRemoveBorderToSize
gpcl6:pixRemoveColormap
gpcl6:pixRemoveColormapGeneral
gpcl6:pixRemoveMatchedPattern
gpcl6:pixRemoveSeededComponents
gpcl6:pixRemoveUnusedColors
gpcl6:pixRemoveWithIndicator
gpcl6:pixRenderBox
gpcl6:pixRenderBoxArb
gpcl6:pixRenderBoxBlend
gpcl6:pixRenderBoxa
gpcl6:pixRenderBoxaArb
gpcl6:pixRenderBoxaBlend
gpcl6:pixRenderContours
gpcl6:pixRenderGridArb
gpcl6:pixRenderHashBox
gpcl6:pixRenderHashBoxArb
gpcl6:pixRenderHashBoxBlend
gpcl6:pixRenderHashBoxa
gpcl6:pixRenderHashBoxaArb
gpcl6:pixRenderHashBoxaBlend
gpcl6:pixRenderHashMaskArb
gpcl6:pixRenderLine
gpcl6:pixRenderLineArb
gpcl6:pixRenderLineBlend
gpcl6:pixRenderPlotFromNuma
gpcl6:pixRenderPlotFromNumaGen
gpcl6:pixRenderPolygon
gpcl6:pixRenderPolyline
gpcl6:pixRenderPolylineArb
gpcl6:pixRenderPolylineBlend
gpcl6:pixRenderPta
gpcl6:pixRenderPtaArb
gpcl6:pixRenderPtaBlend
gpcl6:pixRenderRandomCmapPtaa
gpcl6:pixResizeImageData
gpcl6:pixResizeToMatch
gpcl6:pixReversalProfile
gpcl6:pixRotate
gpcl6:pixRotate180
gpcl6:pixRotate2Shear
gpcl6:pixRotate3Shear
gpcl6:pixRotate90
gpcl6:pixRotateAM
gpcl6:pixRotateAMColor
gpcl6:pixRotateAMColorCorner
gpcl6:pixRotateAMColorFast
gpcl6:pixRotateAMCorner
gpcl6:pixRotateAMGray
gpcl6:pixRotateAMGrayCorner
gpcl6:pixRotateBinaryNice
gpcl6:pixRotateBySampling
gpcl6:pixRotateOrth
gpcl6:pixRotateShear
gpcl6:pixRotateShearCenter
gpcl6:pixRotateShearCenterIP
gpcl6:pixRotateShearIP
gpcl6:pixRotateWithAlpha
gpcl6:pixRowStats
gpcl6:pixRunHistogramMorph
gpcl6:pixRunlengthTransform
gpcl6:pixScale
gpcl6:pixScaleAndTransferAlpha
gpcl6:pixScaleAreaMap
gpcl6:pixScaleAreaMap2
gpcl6:pixScaleAreaMapToSize
gpcl6:pixScaleBinary
gpcl6:pixScaleByIntSampling
gpcl6:pixScaleBySampling
gpcl6:pixScaleBySamplingToSize
gpcl6:pixScaleColor2xLI
gpcl6:pixScaleColor4xLI
gpcl6:pixScaleColorLI
gpcl6:pixScaleGeneral
gpcl6:pixScaleGray2xLI
gpcl6:pixScaleGray2xLIDither
gpcl6:pixScaleGray2xLIThresh
gpcl6:pixScaleGray4xLI
gpcl6:pixScaleGray4xLIDither
gpcl6:pixScaleGray4xLIThresh
gpcl6:pixScaleGrayLI
gpcl6:pixScaleGrayMinMax
gpcl6:pixScaleGrayMinMax2
gpcl6:pixScaleGrayRank2
gpcl6:pixScaleGrayRankCascade
gpcl6:pixScaleGrayToBinaryFast
gpcl6:pixScaleLI
gpcl6:pixScaleMipmap
gpcl6:pixScaleRGBToBinaryFast
gpcl6:pixScaleRGBToGray2
gpcl6:pixScaleRGBToGrayFast
gpcl6:pixScaleResolution
gpcl6:pixScaleSmooth
gpcl6:pixScaleSmoothToSize
gpcl6:pixScaleToGray
gpcl6:pixScaleToGray16
gpcl6:pixScaleToGray2
gpcl6:pixScaleToGray3
gpcl6:pixScaleToGray4
gpcl6:pixScaleToGray6
gpcl6:pixScaleToGray8
gpcl6:pixScaleToGrayFast
gpcl6:pixScaleToGrayMipmap
gpcl6:pixScaleToResolution
gpcl6:pixScaleToSize
gpcl6:pixScaleToSizeRel
gpcl6:pixScaleWithAlpha
gpcl6:pixScanForEdge
gpcl6:pixScanForForeground
gpcl6:pixSeedfill
gpcl6:pixSeedfill4
gpcl6:pixSeedfill4BB
gpcl6:pixSeedfill8
gpcl6:pixSeedfill8BB
gpcl6:pixSeedfillBB
gpcl6:pixSeedfillBinary
gpcl6:pixSeedfillBinaryRestricted
gpcl6:pixSeedfillGray
gpcl6:pixSeedfillGrayBasin
gpcl6:pixSeedfillGrayInv
gpcl6:pixSeedfillGrayInvSimple
gpcl6:pixSeedfillGraySimple
gpcl6:pixSeedfillMorph
gpcl6:pixSeedspread
gpcl6:pixSelectByArea
gpcl6:pixSelectByAreaFraction
gpcl6:pixSelectByPerimSizeRatio
gpcl6:pixSelectByPerimToAreaRatio
gpcl6:pixSelectBySize
gpcl6:pixSelectByWidthHeightRatio
gpcl6:pixSelectComponentBySize
gpcl6:pixSelectLargeULComp
gpcl6:pixSelectMinInConnComp
gpcl6:pixSelectedLocalExtrema
gpcl6:pixSelectiveConnCompFill
gpcl6:pixSerializeToMemory
gpcl6:pixSetAll
gpcl6:pixSetAllArbitrary
gpcl6:pixSetAllGray
gpcl6:pixSetAlphaOverWhite
gpcl6:pixSetBlackOrWhite
gpcl6:pixSetBlackOrWhiteBoxa
gpcl6:pixSetBorderRingVal
gpcl6:pixSetBorderVal
gpcl6:pixSetChromaSampling
gpcl6:pixSetCmapPixel
gpcl6:pixSetColormap
gpcl6:pixSetComponentArbitrary
gpcl6:pixSetData
gpcl6:pixSetDepth
gpcl6:pixSetDimensions
gpcl6:pixSetHeight
gpcl6:pixSetInRect
gpcl6:pixSetInRectArbitrary
gpcl6:pixSetInputFormat
gpcl6:pixSetMasked
gpcl6:pixSetMaskedCmap
gpcl6:pixSetMaskedGeneral
gpcl6:pixSetMirroredBorder
gpcl6:pixSetOrClearBorder
gpcl6:pixSetPadBits
gpcl6:pixSetPadBitsBand
gpcl6:pixSetPixel
gpcl6:pixSetPixelColumn
gpcl6:pixSetRGBComponent
gpcl6:pixSetRGBPixel
gpcl6:pixSetResolution
gpcl6:pixSetSelectCmap
gpcl6:pixSetSelectMaskedCmap
gpcl6:pixSetSpecial
gpcl6:pixSetSpp
gpcl6:pixSetText
gpcl6:pixSetTextCompNew
gpcl6:pixSetTextblock
gpcl6:pixSetTextline
gpcl6:pixSetUnderTransparency
gpcl6:pixSetWidth
gpcl6:pixSetWpl
gpcl6:pixSetXRes
gpcl6:pixSetYRes
gpcl6:pixSetZlibCompression
gpcl6:pixSetupByteProcessing
gpcl6:pixShiftAndTransferAlpha
gpcl6:pixShiftByComponent
gpcl6:pixSimpleCaptcha
gpcl6:pixSimpleColorQuantize
gpcl6:pixSizesEqual
gpcl6:pixSmoothConnectedRegions
gpcl6:pixSnapColor
gpcl6:pixSnapColorCmap
gpcl6:pixSobelEdgeFilter
gpcl6:pixSplitComponentIntoBoxa
gpcl6:pixSplitComponentWithProfile
gpcl6:pixSplitDistributionFgBg
gpcl6:pixSplitIntoBoxa
gpcl6:pixSplitIntoCharacters
gpcl6:pixStereoFromPair
gpcl6:pixStretchHorizontal
gpcl6:pixStretchHorizontalLI
gpcl6:pixStretchHorizontalSampled
gpcl6:pixStrokeWidthTransform
gpcl6:pixSubsampleBoundaryPixels
gpcl6:pixSubtract
gpcl6:pixSubtractGray
gpcl6:pixSwapAndDestroy
gpcl6:pixTRCMap
gpcl6:pixTRCMapGeneral
gpcl6:pixTestClipToForeground
gpcl6:pixTestForSimilarity
gpcl6:pixThreshold8
gpcl6:pixThresholdForFgBg
gpcl6:pixThresholdGrayArb
gpcl6:pixThresholdOn8bpp
gpcl6:pixThresholdPixelSum
gpcl6:pixThresholdSpreadNorm
gpcl6:pixThresholdTo2bpp
gpcl6:pixThresholdTo4bpp
gpcl6:pixThresholdToBinary
gpcl6:pixThresholdToValue
gpcl6:pixTilingCreate
gpcl6:pixTilingDestroy
gpcl6:pixTilingGetCount
gpcl6:pixTilingGetSize
gpcl6:pixTilingGetTile
gpcl6:pixTilingNoStripOnPaint
gpcl6:pixTilingPaintTile
gpcl6:pixTophat
gpcl6:pixTransferAllData
gpcl6:pixTranslate
gpcl6:pixTwoSidedEdgeFilter
gpcl6:pixUnionOfMorphOps
gpcl6:pixUnpackBinary
gpcl6:pixUnsharpMasking
gpcl6:pixUnsharpMaskingFast
gpcl6:pixUnsharpMaskingGray
gpcl6:pixUnsharpMaskingGray1D
gpcl6:pixUnsharpMaskingGray2D
gpcl6:pixUnsharpMaskingGrayFast
gpcl6:pixUsesCmapColor
gpcl6:pixVShear
gpcl6:pixVShearCenter
gpcl6:pixVShearCorner
gpcl6:pixVShearIP
gpcl6:pixVShearLI
gpcl6:pixVarThresholdToBinary
gpcl6:pixVarianceByColumn
gpcl6:pixVarianceByRow
gpcl6:pixVarianceInRect
gpcl6:pixVarianceInRectangle
gpcl6:pixWarpStereoscopic
gpcl6:pixWindowedMean
gpcl6:pixWindowedMeanSquare
gpcl6:pixWindowedStats
gpcl6:pixWindowedVariance
gpcl6:pixWindowedVarianceOnLine
gpcl6:pixWordBoxesByDilation
gpcl6:pixWordMaskByDilation
gpcl6:pixWrite
gpcl6:pixWriteAutoFormat
gpcl6:pixWriteCompressedToPS
gpcl6:pixWriteDebug
gpcl6:pixWriteImpliedFormat
gpcl6:pixWriteJp2k
gpcl6:pixWriteJpeg
gpcl6:pixWriteMem
gpcl6:pixWriteMemBmp
gpcl6:pixWriteMemGif
gpcl6:pixWriteMemJp2k
gpcl6:pixWriteMemJpeg
gpcl6:pixWriteMemPS
gpcl6:pixWriteMemPam
gpcl6:pixWriteMemPdf
gpcl6:pixWriteMemPng
gpcl6:pixWriteMemPnm
gpcl6:pixWriteMemSpix
gpcl6:pixWriteMemTiff
gpcl6:pixWriteMemTiffCustom
gpcl6:pixWriteMemWebP
gpcl6:pixWriteMixedToPS
gpcl6:pixWritePSEmbed
gpcl6:pixWritePng
gpcl6:pixWriteSegmentedPageToPS
gpcl6:pixWriteStream
gpcl6:pixWriteStreamAsciiPnm
gpcl6:pixWriteStreamBmp
gpcl6:pixWriteStreamGif
gpcl6:pixWriteStreamJp2k
gpcl6:pixWriteStreamJpeg
gpcl6:pixWriteStreamPS
gpcl6:pixWriteStreamPam
gpcl6:pixWriteStreamPdf
gpcl6:pixWriteStreamPng
gpcl6:pixWriteStreamPnm
gpcl6:pixWriteStreamSpix
gpcl6:pixWriteStreamTiff
gpcl6:pixWriteStreamTiffWA
gpcl6:pixWriteStreamWebP
gpcl6:pixWriteStringPS
gpcl6:pixWriteTiff
gpcl6:pixWriteTiffCustom
gpcl6:pixWriteWebP
gpcl6:pixXor
gpcl6:pixZero
gpcl6:pixaAddBorderGeneral
gpcl6:pixaAddBox
gpcl6:pixaAddPix
gpcl6:pixaAddPixWithText
gpcl6:pixaAddTextNumber
gpcl6:pixaAddTextlines
gpcl6:pixaAnyColormaps
gpcl6:pixaBinSort
gpcl6:pixaCentroids
gpcl6:pixaChangeRefcount
gpcl6:pixaClear
gpcl6:pixaClipToForeground
gpcl6:pixaClipToPix
gpcl6:pixaCompareInPdf
gpcl6:pixaComparePhotoRegionsByHisto
gpcl6:pixaConstrainedSelect
gpcl6:pixaConvertTo1
gpcl6:pixaConvertTo32
gpcl6:pixaConvertTo8
gpcl6:pixaConvertTo8Colormap
gpcl6:pixaConvertToNUpPixa
gpcl6:pixaConvertToPdf
gpcl6:pixaConvertToPdfData
gpcl6:pixaConvertToSameDepth
gpcl6:pixaCopy
gpcl6:pixaCountPixels
gpcl6:pixaCountText
gpcl6:pixaCreate
gpcl6:pixaCreateFromBoxa
gpcl6:pixaCreateFromPix
gpcl6:pixaCreateFromPixacomp
gpcl6:pixaDestroy
gpcl6:pixaDisplay
gpcl6:pixaDisplayBoxaa
gpcl6:pixaDisplayLinearly
gpcl6:pixaDisplayMultiTiled
gpcl6:pixaDisplayOnLattice
gpcl6:pixaDisplayRandomCmap
gpcl6:pixaDisplayTiled
gpcl6:pixaDisplayTiledAndScaled
gpcl6:pixaDisplayTiledByIndex
gpcl6:pixaDisplayTiledInColumns
gpcl6:pixaDisplayTiledInRows
gpcl6:pixaDisplayTiledWithText
gpcl6:pixaDisplayUnsplit
gpcl6:pixaEqual
gpcl6:pixaExtendArrayToSize
gpcl6:pixaExtendByMorph
gpcl6:pixaExtendByScaling
gpcl6:pixaExtractColumnFromEachPix
gpcl6:pixaFindAreaFraction
gpcl6:pixaFindAreaFractionMasked
gpcl6:pixaFindDimensions
gpcl6:pixaFindPerimSizeRatio
gpcl6:pixaFindPerimToAreaRatio
gpcl6:pixaFindWidthHeightProduct
gpcl6:pixaFindWidthHeightRatio
gpcl6:pixaGetAlignedStats
gpcl6:pixaGetBox
gpcl6:pixaGetBoxGeometry
gpcl6:pixaGetBoxa
gpcl6:pixaGetBoxaCount
gpcl6:pixaGetCount
gpcl6:pixaGetDepthInfo
gpcl6:pixaGetFont
gpcl6:pixaGetLinePtrs
gpcl6:pixaGetPix
gpcl6:pixaGetPixArray
gpcl6:pixaGetPixDimensions
gpcl6:pixaGetRenderingDepth
gpcl6:pixaHasColor
gpcl6:pixaInitFull
gpcl6:pixaInsertPix
gpcl6:pixaInterleave
gpcl6:pixaIsFull
gpcl6:pixaJoin
gpcl6:pixaMakeFromTiledPix
gpcl6:pixaMakeFromTiledPixa
gpcl6:pixaMakeSizeIndicator
gpcl6:pixaMorphSequenceByComponent
gpcl6:pixaMorphSequenceByRegion
gpcl6:pixaRead
gpcl6:pixaReadBoth
gpcl6:pixaReadFiles
gpcl6:pixaReadFilesSA
gpcl6:pixaReadMem
gpcl6:pixaReadMemMultipageTiff
gpcl6:pixaReadMultipageTiff
gpcl6:pixaReadStream
gpcl6:pixaRemovePix
gpcl6:pixaRemovePixAndSave
gpcl6:pixaRemoveSelected
gpcl6:pixaRenderComponent
gpcl6:pixaReplacePix
gpcl6:pixaRotate
gpcl6:pixaRotateOrth
gpcl6:pixaSaveFont
gpcl6:pixaScale
gpcl6:pixaScaleBySampling
gpcl6:pixaScaleToSize
gpcl6:pixaScaleToSizeRel
gpcl6:pixaSelectByArea
gpcl6:pixaSelectByAreaFraction
gpcl6:pixaSelectByNumConnComp
gpcl6:pixaSelectByPerimSizeRatio
gpcl6:pixaSelectByPerimToAreaRatio
gpcl6:pixaSelectBySize
gpcl6:pixaSelectByWidthHeightRatio
gpcl6:pixaSelectRange
gpcl6:pixaSelectToPdf
gpcl6:pixaSelectWithIndicator
gpcl6:pixaSelectWithString
gpcl6:pixaSetBoxa
gpcl6:pixaSetFullSizeBoxa
gpcl6:pixaSetText
gpcl6:pixaSizeRange
gpcl6:pixaSort
gpcl6:pixaSort2dByIndex
gpcl6:pixaSortByIndex
gpcl6:pixaSplitIntoFiles
gpcl6:pixaSplitPix
gpcl6:pixaTranslate
gpcl6:pixaVerifyDepth
gpcl6:pixaVerifyDimensions
gpcl6:pixaWrite
gpcl6:pixaWriteCompressedToPS
gpcl6:pixaWriteDebug
gpcl6:pixaWriteFiles
gpcl6:pixaWriteMem
gpcl6:pixaWriteMemMultipageTiff
gpcl6:pixaWriteMultipageTiff
gpcl6:pixaWriteStream
gpcl6:pixaWriteStreamInfo
gpcl6:pixaaAddBox
gpcl6:pixaaAddPix
gpcl6:pixaaAddPixa
gpcl6:pixaaClear
gpcl6:pixaaCreate
gpcl6:pixaaCreateFromPixa
gpcl6:pixaaDestroy
gpcl6:pixaaDisplay
gpcl6:pixaaDisplayByPixa
gpcl6:pixaaDisplayTiledAndScaled
gpcl6:pixaaFlattenToPixa
gpcl6:pixaaGetBoxa
gpcl6:pixaaGetCount
gpcl6:pixaaGetPix
gpcl6:pixaaGetPixa
gpcl6:pixaaInitFull
gpcl6:pixaaIsFull
gpcl6:pixaaJoin
gpcl6:pixaaRead
gpcl6:pixaaReadFromFiles
gpcl6:pixaaReadMem
gpcl6:pixaaReadStream
gpcl6:pixaaReplacePixa
gpcl6:pixaaScaleToSize
gpcl6:pixaaScaleToSizeVar
gpcl6:pixaaSelectRange
gpcl6:pixaaSizeRange
gpcl6:pixaaTruncate
gpcl6:pixaaVerifyDepth
gpcl6:pixaaVerifyDimensions
gpcl6:pixaaWrite
gpcl6:pixaaWriteMem
gpcl6:pixaaWriteStream
gpcl6:pixaccAdd
gpcl6:pixaccCreate
gpcl6:pixaccCreateFromPix
gpcl6:pixaccDestroy
gpcl6:pixaccFinal
gpcl6:pixaccGetOffset
gpcl6:pixaccGetPix
gpcl6:pixaccMultConst
gpcl6:pixaccMultConstAccumulate
gpcl6:pixaccSubtract
gpcl6:pixacompAddBox
gpcl6:pixacompAddPix
gpcl6:pixacompAddPixcomp
gpcl6:pixacompConvertToPdf
gpcl6:pixacompConvertToPdfData
gpcl6:pixacompCreate
gpcl6:pixacompCreateFromFiles
gpcl6:pixacompCreateFromPixa
gpcl6:pixacompCreateFromSA
gpcl6:pixacompCreateWithInit
gpcl6:pixacompDestroy
gpcl6:pixacompDisplayTiledAndScaled
gpcl6:pixacompFastConvertToPdfData
gpcl6:pixacompGetBox
gpcl6:pixacompGetBoxGeometry
gpcl6:pixacompGetBoxa
gpcl6:pixacompGetBoxaCount
gpcl6:pixacompGetCount
gpcl6:pixacompGetOffset
gpcl6:pixacompGetPix
gpcl6:pixacompGetPixDimensions
gpcl6:pixacompGetPixcomp
gpcl6:pixacompInterleave
gpcl6:pixacompJoin
gpcl6:pixacompRead
gpcl6:pixacompReadMem
gpcl6:pixacompReadStream
gpcl6:pixacompReplacePix
gpcl6:pixacompReplacePixcomp
gpcl6:pixacompSetOffset
gpcl6:pixacompWrite
gpcl6:pixacompWriteFiles
gpcl6:pixacompWriteMem
gpcl6:pixacompWriteStream
gpcl6:pixacompWriteStreamInfo
gpcl6:pixcmapAddBlackOrWhite
gpcl6:pixcmapAddColor
gpcl6:pixcmapAddNearestColor
gpcl6:pixcmapAddNewColor
gpcl6:pixcmapAddRGBA
gpcl6:pixcmapClear
gpcl6:pixcmapColorToGray
gpcl6:pixcmapContrastTRC
gpcl6:pixcmapConvertHSVToRGB
gpcl6:pixcmapConvertRGBToHSV
gpcl6:pixcmapConvertRGBToYUV
gpcl6:pixcmapConvertTo4
gpcl6:pixcmapConvertTo8
gpcl6:pixcmapConvertToHex
gpcl6:pixcmapConvertYUVToRGB
gpcl6:pixcmapCopy
gpcl6:pixcmapCountGrayColors
gpcl6:pixcmapCreate
gpcl6:pixcmapCreateLinear
gpcl6:pixcmapCreateRandom
gpcl6:pixcmapDeserializeFromMemory
gpcl6:pixcmapDestroy
gpcl6:pixcmapGammaTRC
gpcl6:pixcmapGetColor
gpcl6:pixcmapGetColor32
gpcl6:pixcmapGetCount
gpcl6:pixcmapGetDepth
gpcl6:pixcmapGetDistanceToColor
gpcl6:pixcmapGetFreeCount
gpcl6:pixcmapGetIndex
gpcl6:pixcmapGetMinDepth
gpcl6:pixcmapGetNearestGrayIndex
gpcl6:pixcmapGetNearestIndex
gpcl6:pixcmapGetRGBA
gpcl6:pixcmapGetRGBA32
gpcl6:pixcmapGetRangeValues
gpcl6:pixcmapGetRankIntensity
gpcl6:pixcmapGrayToColor
gpcl6:pixcmapGrayToFalseColor
gpcl6:pixcmapHasColor
gpcl6:pixcmapIsBlackAndWhite
gpcl6:pixcmapIsOpaque
gpcl6:pixcmapIsValid
gpcl6:pixcmapRead
gpcl6:pixcmapReadMem
gpcl6:pixcmapReadStream
gpcl6:pixcmapResetColor
gpcl6:pixcmapSerializeToMemory
gpcl6:pixcmapSetAlpha
gpcl6:pixcmapSetBlackAndWhite
gpcl6:pixcmapShiftByComponent
gpcl6:pixcmapShiftIntensity
gpcl6:pixcmapToArrays
gpcl6:pixcmapToOctcubeLUT
gpcl6:pixcmapToRGBTable
gpcl6:pixcmapUsableColor
gpcl6:pixcmapWrite
gpcl6:pixcmapWriteMem
gpcl6:pixcmapWriteStream
gpcl6:pixcompCopy
gpcl6:pixcompCreateFromFile
gpcl6:pixcompCreateFromPix
gpcl6:pixcompCreateFromString
gpcl6:pixcompDestroy
gpcl6:pixcompDetermineFormat
gpcl6:pixcompGetDimensions
gpcl6:pixcompGetParameters
gpcl6:pixcompWriteFile
gpcl6:pixcompWriteStreamInfo
gpcl6:pixelFractionalShift
gpcl6:pixelLinearMapToTargetColor
gpcl6:pixelShiftByComponent
gpcl6:pixmap_high_level_pattern
gpcl6:pjl_compare
gpcl6:pjl_fontsource_to_path
gpcl6:pjl_get_envvar
gpcl6:pjl_get_named_resource
gpcl6:pjl_get_named_resource_size
gpcl6:pjl_implementation
gpcl6:pjl_map_pjl_sym_to_pcl_sym
gpcl6:pjl_proc_compare
gpcl6:pjl_proc_fontsource_to_path
gpcl6:pjl_proc_get_envvar
gpcl6:pjl_proc_get_named_resource
gpcl6:pjl_proc_get_named_resource_size
gpcl6:pjl_proc_map_pjl_sym_to_pcl_sym
gpcl6:pjl_proc_process
gpcl6:pjl_proc_register_permanent_soft_font_addition
gpcl6:pjl_proc_register_permanent_soft_font_deletion
gpcl6:pjl_proc_set_next_fontsource
gpcl6:pjl_proc_vartof
gpcl6:pjl_proc_vartoi
gpcl6:pjl_process
gpcl6:pjl_process_destroy
gpcl6:pjl_process_init
gpcl6:pjl_register_permanent_soft_font_addition
gpcl6:pjl_register_permanent_soft_font_deletion
gpcl6:pjl_set_defvar
gpcl6:pjl_set_envvar
gpcl6:pjl_set_init_from_defaults
gpcl6:pjl_set_next_fontsource
gpcl6:pjl_skip_to_uel
gpcl6:pjl_vartof
gpcl6:pjl_vartoi
gpcl6:pl_add_path
gpcl6:pl_alloc_font
gpcl6:pl_alloc_tt_fontfile_buffer
gpcl6:pl_allocate_interp_instance
gpcl6:pl_bitmap_init_procs
gpcl6:pl_built_in_resident_font_table
gpcl6:pl_built_in_resident_font_table_count
gpcl6:pl_built_in_symbol_map_count
gpcl6:pl_built_in_symbol_maps
gpcl6:pl_characteristics
gpcl6:pl_clone_font
gpcl6:pl_deallocate_interp_instance
gpcl6:pl_dict_enum_next
gpcl6:pl_dict_enum_stack_begin
gpcl6:pl_dict_init
gpcl6:pl_dict_length
gpcl6:pl_dict_lookup
gpcl6:pl_dict_put
gpcl6:pl_dict_put_synonym
gpcl6:pl_dict_release
gpcl6:pl_dict_undef
gpcl6:pl_dict_undef_purge_synonyms
gpcl6:pl_dnit_job
gpcl6:pl_fapi_get_mtype_font_name
gpcl6:pl_fapi_get_mtype_font_number
gpcl6:pl_fapi_get_mtype_font_scaleFactor
gpcl6:pl_fapi_get_mtype_font_spaceBand
gpcl6:pl_fapi_passfont
gpcl6:pl_fapi_ufst_available
gpcl6:pl_fapi_ufst_get_fco_list
gpcl6:pl_fapi_ufst_get_font_dir
gpcl6:pl_fill_in_bitmap_font
gpcl6:pl_fill_in_font
gpcl6:pl_fill_in_intelli_font
gpcl6:pl_fill_in_tt_font
gpcl6:pl_finish_page
gpcl6:pl_flush_to_eoj
gpcl6:pl_font_add_glyph
gpcl6:pl_font_alloc_glyph_table
gpcl6:pl_font_char_metrics
gpcl6:pl_font_char_width
gpcl6:pl_font_disable_composite_metrics
gpcl6:pl_font_glyph_width_cache_remove_nodes
gpcl6:pl_font_lookup_glyph
gpcl6:pl_font_remove_glyph
gpcl6:pl_font_scan_segments
gpcl6:pl_font_vertical_glyph
gpcl6:pl_free_font
gpcl6:pl_free_tt_fontfile_buffer
gpcl6:pl_get_device_memory
gpcl6:pl_get_int16
gpcl6:pl_get_int32
gpcl6:pl_get_uint16
gpcl6:pl_get_uint32
gpcl6:pl_get_ulp_character_data
gpcl6:pl_image_bitmap_char
gpcl6:pl_init_job
gpcl6:pl_intelli_init_procs
gpcl6:pl_load_built_in_fonts
gpcl6:pl_load_cartridge_fonts
gpcl6:pl_load_resident_font_data_from_file
gpcl6:pl_load_simm_fonts
gpcl6:pl_load_tt_font
gpcl6:pl_load_ufst_lineprinter
gpcl6:pl_lookup_font_by_pjl_number
gpcl6:pl_mac_names
gpcl6:pl_main_alloc_instance
gpcl6:pl_main_delete_instance
gpcl6:pl_main_enumerate_params
gpcl6:pl_main_get_forced_geometry
gpcl6:pl_main_get_high_level_device
gpcl6:pl_main_get_instance
gpcl6:pl_main_get_interpolate
gpcl6:pl_main_get_nocache
gpcl6:pl_main_get_page_set_on_command_line
gpcl6:pl_main_get_pcl_instance
gpcl6:pl_main_get_pcl_personality
gpcl6:pl_main_get_pjl_instance
gpcl6:pl_main_get_res_set_on_command_line
gpcl6:pl_main_get_scanconverter
gpcl6:pl_main_get_typed_param
gpcl6:pl_main_init_with_args
gpcl6:pl_main_run_file
gpcl6:pl_main_run_string_begin
gpcl6:pl_main_run_string_continue
gpcl6:pl_main_run_string_end
gpcl6:pl_main_set_arg_decode
gpcl6:pl_main_set_display_callback
gpcl6:pl_main_set_param
gpcl6:pl_main_set_parsed_param
gpcl6:pl_main_set_string_param
gpcl6:pl_main_set_typed_param
gpcl6:pl_map_MSL_to_Unicode
gpcl6:pl_map_Unicode_to_MSL
gpcl6:pl_map_symbol
gpcl6:pl_post_args_init
gpcl6:pl_prepend_xl_dummy_header
gpcl6:pl_print_usage
gpcl6:pl_process
gpcl6:pl_process_begin
gpcl6:pl_process_end
gpcl6:pl_process_eof
gpcl6:pl_process_file
gpcl6:pl_report_errors
gpcl6:pl_reset
gpcl6:pl_run_prefix_commands
gpcl6:pl_set_icc_params
gpcl6:pl_set_param
gpcl6:pl_set_pcl_halftone
gpcl6:pl_store_resident_font_data_in_file
gpcl6:pl_swap_header
gpcl6:pl_to_exit
gpcl6:pl_tt_alloc_char_glyphs
gpcl6:pl_tt_encode_char
gpcl6:pl_tt_f1c2_get_metrics
gpcl6:pl_tt_finish_init
gpcl6:pl_tt_get_outline
gpcl6:pl_tt_init_procs
gpcl6:pl_tt_lookup_char
gpcl6:plane_device_init
gpcl6:pmsCreate
gpcl6:pmsCustomAlloc
gpcl6:pmsCustomDealloc
gpcl6:pmsDestroy
gpcl6:pmsGetAlloc
gpcl6:pmsGetLevelForAlloc
gpcl6:pmsGetLevelForDealloc
gpcl6:pmsLogInfo
gpcl6:pprintd1
gpcl6:pprintd2
gpcl6:pprintd3
gpcl6:pprintd4
gpcl6:pprintg1
gpcl6:pprintg2
gpcl6:pprintg3
gpcl6:pprintg4
gpcl6:pprintg6
gpcl6:pprinti64d1
gpcl6:pprinti64d2
gpcl6:pprinti64d3
gpcl6:pprintld1
gpcl6:pprintld2
gpcl6:pprintld3
gpcl6:pprints1
gpcl6:pprints2
gpcl6:pprints3
gpcl6:pprintzd1
gpcl6:pprintzd2
gpcl6:pprintzd3
gpcl6:printf_program_ident
gpcl6:process_cid_text
gpcl6:process_cmap_text
gpcl6:process_composite_text
gpcl6:process_plain_text
gpcl6:process_text_modify_width
gpcl6:projectiveXformPt
gpcl6:projectiveXformSampledPt
gpcl6:ps2write_dsc_header
gpcl6:psd_allow_multiple_pages
gpcl6:psd_setup
gpcl6:psd_write
gpcl6:psd_write_16
gpcl6:psd_write_32
gpcl6:psd_write_8
gpcl6:psd_write_header
gpcl6:psdf_CFE_binary
gpcl6:psdf_DCT_filter
gpcl6:psdf_adjust_color_index
gpcl6:psdf_begin_binary
gpcl6:psdf_beginpath
gpcl6:psdf_closepath
gpcl6:psdf_composite
gpcl6:psdf_curveto
gpcl6:psdf_dorect
gpcl6:psdf_encode_binary
gpcl6:psdf_end_binary
gpcl6:psdf_get_bits_rectangle
gpcl6:psdf_is_converting_image_to_RGB
gpcl6:psdf_lineto
gpcl6:psdf_moveto
gpcl6:psdf_round
gpcl6:psdf_set_color
gpcl6:psdf_set_fill_color_commands
gpcl6:psdf_set_stroke_color_commands
gpcl6:psdf_setdash
gpcl6:psdf_setflat
gpcl6:psdf_setlinecap
gpcl6:psdf_setlinejoin
gpcl6:psdf_setlinewidth
gpcl6:psdf_setlogop
gpcl6:psdf_setmiterlimit
gpcl6:psdf_setup_compression_chooser
gpcl6:psdf_setup_image_colors_filter
gpcl6:psdf_setup_image_filters
gpcl6:psdf_setup_image_to_mask_filter
gpcl6:psdf_setup_lossless_filters
gpcl6:psf_add_subset_pieces
gpcl6:psf_check_outline_glyphs
gpcl6:psf_convert_type1_to_type2
gpcl6:psf_enumerate_bits_begin
gpcl6:psf_enumerate_glyphs_next
gpcl6:psf_enumerate_glyphs_reset
gpcl6:psf_enumerate_list_begin
gpcl6:psf_get_outline_glyphs
gpcl6:psf_get_type1_glyphs
gpcl6:psf_sort_glyphs
gpcl6:psf_sorted_glyphs_include
gpcl6:psf_sorted_glyphs_index_of
gpcl6:psf_type1_glyph_data
gpcl6:psf_write_cid0_font
gpcl6:psf_write_cid2_font
gpcl6:psf_write_cid2_stripped
gpcl6:psf_write_cmap
gpcl6:psf_write_truetype_font
gpcl6:psf_write_truetype_stripped
gpcl6:psf_write_type1_font
gpcl6:psf_write_type2_font
gpcl6:ptaAddPt
gpcl6:ptaAffineTransform
gpcl6:ptaChangeRefcount
gpcl6:ptaClone
gpcl6:ptaContainsPt
gpcl6:ptaConvertToBox
gpcl6:ptaConvertToBoxa
gpcl6:ptaConvertToNuma
gpcl6:ptaCopy
gpcl6:ptaCopyRange
gpcl6:ptaCreate
gpcl6:ptaCreateFromNuma
gpcl6:ptaCropToMask
gpcl6:ptaCyclicPerm
gpcl6:ptaDestroy
gpcl6:ptaEmpty
gpcl6:ptaEqual
gpcl6:ptaFindPtByHash
gpcl6:ptaGetArrays
gpcl6:ptaGetBoundaryPixels
gpcl6:ptaGetBoundingRegion
gpcl6:ptaGetCount
gpcl6:ptaGetCubicLSF
gpcl6:ptaGetIPt
gpcl6:ptaGetInsideBox
gpcl6:ptaGetLinearLSF
gpcl6:ptaGetMinMax
gpcl6:ptaGetNeighborPixLocs
gpcl6:ptaGetPixelsFromPix
gpcl6:ptaGetPt
gpcl6:ptaGetQuadraticLSF
gpcl6:ptaGetQuarticLSF
gpcl6:ptaGetRange
gpcl6:ptaGetRankValue
gpcl6:ptaGetRefcount
gpcl6:ptaGetSortIndex
gpcl6:ptaInsertPt
gpcl6:ptaIntersectionByAset
gpcl6:ptaIntersectionByHash
gpcl6:ptaJoin
gpcl6:ptaNoisyLinearLSF
gpcl6:ptaNoisyQuadraticLSF
gpcl6:ptaPtInsidePolygon
gpcl6:ptaRead
gpcl6:ptaReadMem
gpcl6:ptaReadStream
gpcl6:ptaRemoveDupsByAset
gpcl6:ptaRemoveDupsByHash
gpcl6:ptaRemovePt
gpcl6:ptaReplicatePattern
gpcl6:ptaReverse
gpcl6:ptaRotate
gpcl6:ptaScale
gpcl6:ptaSelectByValue
gpcl6:ptaSelectRange
gpcl6:ptaSetPt
gpcl6:ptaSort
gpcl6:ptaSort2d
gpcl6:ptaSortByIndex
gpcl6:ptaSubsample
gpcl6:ptaTestIntersection
gpcl6:ptaTransform
gpcl6:ptaTranslate
gpcl6:ptaTranspose
gpcl6:ptaUnionByAset
gpcl6:ptaUnionByHash
gpcl6:ptaWrite
gpcl6:ptaWriteDebug
gpcl6:ptaWriteMem
gpcl6:ptaWriteStream
gpcl6:ptaaAddPt
gpcl6:ptaaAddPta
gpcl6:ptaaCreate
gpcl6:ptaaDestroy
gpcl6:ptaaGetBoundaryPixels
gpcl6:ptaaGetCount
gpcl6:ptaaGetPt
gpcl6:ptaaGetPta
gpcl6:ptaaIndexLabeledPixels
gpcl6:ptaaInitFull
gpcl6:ptaaJoin
gpcl6:ptaaRead
gpcl6:ptaaReadMem
gpcl6:ptaaReadStream
gpcl6:ptaaReplacePta
gpcl6:ptaaSortByIndex
gpcl6:ptaaTruncate
gpcl6:ptaaWrite
gpcl6:ptaaWriteDebug
gpcl6:ptaaWriteMem
gpcl6:ptaaWriteStream
gpcl6:ptr_const_string_procs
gpcl6:ptr_is_within_mem_clumps
gpcl6:ptr_name_index_procs
gpcl6:ptr_string_procs
gpcl6:ptr_struct_procs
gpcl6:ptraAdd
gpcl6:ptraCompactArray
gpcl6:ptraConcatenatePdf
gpcl6:ptraConcatenatePdfToData
gpcl6:ptraCreate
gpcl6:ptraDestroy
gpcl6:ptraGetActualCount
gpcl6:ptraGetMaxIndex
gpcl6:ptraGetPtrToItem
gpcl6:ptraInsert
gpcl6:ptraJoin
gpcl6:ptraRemove
gpcl6:ptraRemoveLast
gpcl6:ptraReplace
gpcl6:ptraReverse
gpcl6:ptraSwap
gpcl6:ptraaCreate
gpcl6:ptraaDestroy
gpcl6:ptraaFlattenToPtra
gpcl6:ptraaGetPtra
gpcl6:ptraaGetSize
gpcl6:ptraaInsertPtra
gpcl6:put_param1_bool
gpcl6:put_param1_float
gpcl6:put_param1_float_array
gpcl6:put_param1_int
gpcl6:put_param1_string
gpcl6:put_param_pdf14_spot_names
gpcl6:put_u32_msb
gpcl6:pxArcPath
gpcl6:pxBeginChar
gpcl6:pxBeginFontHeader
gpcl6:pxBeginImage
gpcl6:pxBeginPage
gpcl6:pxBeginPageFromPassthrough
gpcl6:pxBeginRastPattern
gpcl6:pxBeginScan
gpcl6:pxBeginSession
gpcl6:pxBeginStream
gpcl6:pxBeginUserDefinedLineCap
gpcl6:pxBezierPath
gpcl6:pxBezierRelPath
gpcl6:pxChord
gpcl6:pxChordPath
gpcl6:pxCloseDataSource
gpcl6:pxCloseSubPath
gpcl6:pxComment
gpcl6:pxEllipse
gpcl6:pxEllipsePath
gpcl6:pxEndChar
gpcl6:pxEndFontHeader
gpcl6:pxEndImage
gpcl6:pxEndPage
gpcl6:pxEndRastPattern
gpcl6:pxEndScan
gpcl6:pxEndSession
gpcl6:pxEndStream
gpcl6:pxEndUserDefinedLineCap
gpcl6:pxExecStream
gpcl6:pxLinePath
gpcl6:pxLineRelPath
gpcl6:pxNewPath
gpcl6:pxOpenDataSource
gpcl6:pxPaintPath
gpcl6:pxPassthrough
gpcl6:pxPassthrough_pcl_state_nonpage_exceptions
gpcl6:pxPie
gpcl6:pxPiePath
gpcl6:pxPopGS
gpcl6:pxPushGS
gpcl6:pxReadChar
gpcl6:pxReadFontHeader
gpcl6:pxReadImage
gpcl6:pxReadRastPattern
gpcl6:pxReadStream
gpcl6:pxRectangle
gpcl6:pxRectanglePath
gpcl6:pxRemoveFont
gpcl6:pxRemoveStream
gpcl6:pxRoundRectangle
gpcl6:pxRoundRectanglePath
gpcl6:pxScanLineRel
gpcl6:pxSetAdaptiveHalftoning
gpcl6:pxSetBrushSource
gpcl6:pxSetCharAngle
gpcl6:pxSetCharAttributes
gpcl6:pxSetCharBoldValue
gpcl6:pxSetCharScale
gpcl6:pxSetCharShear
gpcl6:pxSetCharSubMode
gpcl6:pxSetClipIntersect
gpcl6:pxSetClipMode
gpcl6:pxSetClipRectangle
gpcl6:pxSetClipReplace
gpcl6:pxSetClipToPage
gpcl6:pxSetColorSpace
gpcl6:pxSetColorTrapping
gpcl6:pxSetColorTreatment
gpcl6:pxSetCursor
gpcl6:pxSetCursorRel
gpcl6:pxSetDefaultGS
gpcl6:pxSetFillMode
gpcl6:pxSetFont
gpcl6:pxSetHalftoneMethod
gpcl6:pxSetLineCap
gpcl6:pxSetLineDash
gpcl6:pxSetLineJoin
gpcl6:pxSetMiterLimit
gpcl6:pxSetNeutralAxis
gpcl6:pxSetPageDefaultCTM
gpcl6:pxSetPageOrigin
gpcl6:pxSetPageRotation
gpcl6:pxSetPageScale
gpcl6:pxSetPaintTxMode
gpcl6:pxSetPathToClip
gpcl6:pxSetPenSource
gpcl6:pxSetPenWidth
gpcl6:pxSetROP
gpcl6:pxSetSourceTxMode
gpcl6:pxText
gpcl6:pxTextPath
gpcl6:pxVendorUnique
gpcl6:px_attr_value_types
gpcl6:px_begin_error_page
gpcl6:px_bitmap_font_char_data
gpcl6:px_bitmap_font_header
gpcl6:px_bitmap_font_header_size
gpcl6:px_bitmap_font_point_size
gpcl6:px_bitmap_font_resolution
gpcl6:px_concat_font_name
gpcl6:px_default_end_page
gpcl6:px_define_font
gpcl6:px_error_message_line
gpcl6:px_error_names
gpcl6:px_error_page_show
gpcl6:px_find_existing_font
gpcl6:px_find_font
gpcl6:px_free_pattern
gpcl6:px_get_default_media_size
gpcl6:px_gstate_alloc
gpcl6:px_gstate_init
gpcl6:px_gstate_rc_adjust
gpcl6:px_gstate_reset
gpcl6:px_high_level_pattern
gpcl6:px_image_color_space
gpcl6:px_initclip
gpcl6:px_initgraphics
gpcl6:px_operator_definitions
gpcl6:px_operator_names
gpcl6:px_paint_rc_adjust
gpcl6:px_parser_data_left
gpcl6:px_process
gpcl6:px_process_alloc
gpcl6:px_process_init
gpcl6:px_process_release
gpcl6:px_purge_character_cache
gpcl6:px_purge_pattern_cache
gpcl6:px_put_a
gpcl6:px_put_ac
gpcl6:px_put_bytes
gpcl6:px_put_data_length
gpcl6:px_put_l
gpcl6:px_put_r
gpcl6:px_put_rl
gpcl6:px_put_rp
gpcl6:px_put_rpa
gpcl6:px_put_s
gpcl6:px_put_ss
gpcl6:px_put_ssp
gpcl6:px_put_u
gpcl6:px_put_ub
gpcl6:px_put_uba
gpcl6:px_put_ubaa
gpcl6:px_put_us
gpcl6:px_put_usa
gpcl6:px_put_usp
gpcl6:px_put_usq_fixed
gpcl6:px_record_warning
gpcl6:px_reset_errors
gpcl6:px_set_halftone
gpcl6:px_set_paint
gpcl6:px_set_symbol_map
gpcl6:px_state_alloc
gpcl6:px_state_cleanup
gpcl6:px_state_finit
gpcl6:px_state_init
gpcl6:px_state_release
gpcl6:px_text
gpcl6:px_write_file_header
gpcl6:px_write_file_trailer
gpcl6:px_write_page_header
gpcl6:px_write_select_media
gpcl6:pxl_implementation
gpcl6:pxpcl_endpassthroughcontiguous
gpcl6:pxpcl_pagestatereset
gpcl6:pxpcl_passthroughcontiguous
gpcl6:pxpcl_release
gpcl6:pxpcl_selectfont
gpcl6:quadtreeGetChildren
gpcl6:quadtreeGetParent
gpcl6:quadtreeMaxLevels
gpcl6:ramfile_close
gpcl6:ramfile_eof
gpcl6:ramfile_error
gpcl6:ramfile_read
gpcl6:ramfile_seek
gpcl6:ramfile_size
gpcl6:ramfile_tell
gpcl6:ramfile_write
gpcl6:ramfs_blocksfree
gpcl6:ramfs_blocksize
gpcl6:ramfs_destroy
gpcl6:ramfs_enum_end
gpcl6:ramfs_enum_new
gpcl6:ramfs_enum_next
gpcl6:ramfs_error
gpcl6:ramfs_new
gpcl6:ramfs_open
gpcl6:ramfs_rename
gpcl6:ramfs_unlink
gpcl6:range_equal
gpcl6:rasteropHipLow
gpcl6:rasteropLow
gpcl6:rasteropUniLow
gpcl6:rasteropVipLow
gpcl6:rc_decrement_cs
gpcl6:rc_decrement_only_cs
gpcl6:rc_free_NupControl
gpcl6:rc_free_pattern_instance
gpcl6:rc_free_struct_only
gpcl6:rc_free_text_enum
gpcl6:rc_increment_cs
gpcl6:readHeaderJp2k
gpcl6:readHeaderJpeg
gpcl6:readHeaderMemJp2k
gpcl6:readHeaderMemJpeg
gpcl6:readHeaderMemPng
gpcl6:readHeaderMemPnm
gpcl6:readHeaderMemTiff
gpcl6:readHeaderMemWebP
gpcl6:readHeaderPng
gpcl6:readHeaderPnm
gpcl6:readHeaderSpix
gpcl6:readHeaderTiff
gpcl6:readHeaderWebP
gpcl6:readResolutionMemJpeg
gpcl6:real32at
gpcl6:real_elt
gpcl6:reallocNew
gpcl6:reformatPacked64
gpcl6:regTestCheckFile
gpcl6:regTestCleanup
gpcl6:regTestCompareFiles
gpcl6:regTestComparePix
gpcl6:regTestCompareSimilarPix
gpcl6:regTestCompareStrings
gpcl6:regTestCompareValues
gpcl6:regTestGenLocalFilename
gpcl6:regTestSetup
gpcl6:regTestWriteDataAndCheck
gpcl6:regTestWritePixAndCheck
gpcl6:release_colors
gpcl6:reloc_bytestring
gpcl6:reloc_const_bytestring
gpcl6:repack_data
gpcl6:rescale_cie_color
gpcl6:rescale_cie_colors
gpcl6:reserve_colors
gpcl6:resetMorphBoundaryCondition
gpcl6:returnErrorFloat
gpcl6:returnErrorInt
gpcl6:returnErrorPtr
gpcl6:rgb_cs_to_devn_cm
gpcl6:rgb_cs_to_rgb_cm
gpcl6:rinkj_byte_stream_close
gpcl6:rinkj_byte_stream_file_new
gpcl6:rinkj_byte_stream_printf
gpcl6:rinkj_byte_stream_puts
gpcl6:rinkj_byte_stream_write
gpcl6:rinkj_config_get
gpcl6:rinkj_config_keyval
gpcl6:rinkj_device_init
gpcl6:rinkj_device_set
gpcl6:rinkj_device_set_param
gpcl6:rinkj_device_set_param_int
gpcl6:rinkj_device_set_param_string
gpcl6:rinkj_device_write
gpcl6:rinkj_dither_close
gpcl6:rinkj_dither_line
gpcl6:rinkj_epson870_new
gpcl6:rinkj_screen_eb_new
gpcl6:rinkj_screen_eb_set_gamma
gpcl6:rinkj_screen_eb_set_lut
gpcl6:rinkj_screen_eb_set_scale
gpcl6:rinkj_strdup_size
gpcl6:romfs_file_len
gpcl6:rop_get_run_op
gpcl6:rop_proc_table
gpcl6:rop_release_run_op
gpcl6:rop_run
gpcl6:rop_run_subbyte
gpcl6:rop_set_s_bitmap
gpcl6:rop_set_s_bitmap_subbyte
gpcl6:rop_set_s_colors
gpcl6:rop_set_s_constant
gpcl6:rop_set_t_bitmap
gpcl6:rop_set_t_bitmap_subbyte
gpcl6:rop_set_t_colors
gpcl6:rop_set_t_constant
gpcl6:rop_usage_table
gpcl6:rtgmode_init
gpcl6:rtl_enter_hpgl_mode
gpcl6:rtl_enter_pcl_mode
gpcl6:rtmisc_init
gpcl6:rtraster_init
gpcl6:runlengthMembershipOnLine
gpcl6:s_1248_init
gpcl6:s_12_8_template
gpcl6:s_16_8_template
gpcl6:s_1_8_template
gpcl6:s_2_8_template
gpcl6:s_4_8_template
gpcl6:s_8_1_template
gpcl6:s_8_2_template
gpcl6:s_8_4_template
gpcl6:s_A85E_template
gpcl6:s_AXD_template
gpcl6:s_AXE_template
gpcl6:s_Average_template
gpcl6:s_BTD_template
gpcl6:s_BTE_template
gpcl6:s_Bicubic_template
gpcl6:s_C2R_init
gpcl6:s_C2R_template
gpcl6:s_CFD_template
gpcl6:s_CFE_template
gpcl6:s_CF_get_params
gpcl6:s_CF_put_params
gpcl6:s_DCTD_template
gpcl6:s_DCTE_get_params
gpcl6:s_DCTE_put_params
gpcl6:s_DCTE_template
gpcl6:s_DCT_byte_params
gpcl6:s_DCT_get_huffman_tables
gpcl6:s_DCT_get_params
gpcl6:s_DCT_get_quantization_tables
gpcl6:s_DCT_put_huffman_tables
gpcl6:s_DCT_put_params
gpcl6:s_DCT_put_quantization_tables
gpcl6:s_DCT_set_defaults
gpcl6:s_Downsample_size_out
gpcl6:s_IE_template
gpcl6:s_IIEncode_template
gpcl6:s_IScale_template
gpcl6:s_ISpecialDownScale_template
gpcl6:s_LZWD_template
gpcl6:s_LZWE_template
gpcl6:s_LZW_release
gpcl6:s_LZW_set_defaults
gpcl6:s_MD5C_get_digest
gpcl6:s_MD5C_make_stream
gpcl6:s_MD5C_template
gpcl6:s_MD5E_make_stream
gpcl6:s_MD5E_template
gpcl6:s_NullD_template
gpcl6:s_NullE_template
gpcl6:s_PNGPD_template
gpcl6:s_PNGPE_template
gpcl6:s_PSSD_init
gpcl6:s_PSSD_template
gpcl6:s_PSSE_template
gpcl6:s_PWGD_template
gpcl6:s_RLD_template
gpcl6:s_RLE_template
gpcl6:s_Subsample_template
gpcl6:s__image_colors_template
gpcl6:s_add_filter
gpcl6:s_alloc
gpcl6:s_alloc_immovable
gpcl6:s_alloc_param_printer
gpcl6:s_alloc_position_stream
gpcl6:s_alloc_state
gpcl6:s_arcfour_process_buffer
gpcl6:s_arcfour_set_key
gpcl6:s_arcfour_template
gpcl6:s_close_disable
gpcl6:s_close_filters
gpcl6:s_compr_chooser__get_choice
gpcl6:s_compr_chooser_set_dimensions
gpcl6:s_compr_chooser_template
gpcl6:s_disable
gpcl6:s_exD_template
gpcl6:s_exE_template
gpcl6:s_filter_close
gpcl6:s_filter_read_procs
gpcl6:s_filter_write_flush
gpcl6:s_filter_write_procs
gpcl6:s_free_param_printer
gpcl6:s_hex_process
gpcl6:s_image_colors_set_color_space
gpcl6:s_image_colors_set_dimensions
gpcl6:s_image_colors_set_mask_colors
gpcl6:s_init
gpcl6:s_init_filter
gpcl6:s_init_param_printer
gpcl6:s_init_state
gpcl6:s_jbig2decode_finalize
gpcl6:s_jbig2decode_free_global_data
gpcl6:s_jbig2decode_make_global_data
gpcl6:s_jbig2decode_set_global_data
gpcl6:s_jbig2decode_template
gpcl6:s_jpxd_template
gpcl6:s_no_report_error
gpcl6:s_process_read_buf
gpcl6:s_process_write_buf
gpcl6:s_release_param_printer
gpcl6:s_std_close
gpcl6:s_std_init
gpcl6:s_std_noavailable
gpcl6:s_std_noseek
gpcl6:s_std_null
gpcl6:s_std_read_flush
gpcl6:s_std_read_reset
gpcl6:s_std_switch_mode
gpcl6:s_std_write_flush
gpcl6:s_std_write_reset
gpcl6:s_write_ps_string
gpcl6:s_zlibD_template
gpcl6:s_zlibE_template
gpcl6:s_zlib_alloc
gpcl6:s_zlib_alloc_dynamic_state
gpcl6:s_zlib_free
gpcl6:s_zlib_free_dynamic_state
gpcl6:s_zlib_set_defaults
gpcl6:saConcatenatePdf
gpcl6:saConcatenatePdfToData
gpcl6:saConvertFilesToPdf
gpcl6:saConvertFilesToPdfData
gpcl6:saConvertUnscaledFilesToPdf
gpcl6:saConvertUnscaledFilesToPdfData
gpcl6:sample_device_crd_get_params
gpcl6:sample_unpack_1
gpcl6:sample_unpack_12
gpcl6:sample_unpack_16
gpcl6:sample_unpack_16_proc
gpcl6:sample_unpack_1_interleaved
gpcl6:sample_unpack_2
gpcl6:sample_unpack_2_interleaved
gpcl6:sample_unpack_4
gpcl6:sample_unpack_4_interleaved
gpcl6:sample_unpack_8
gpcl6:sample_unpack_8_interleaved
gpcl6:sample_unpack_copy
gpcl6:sample_unpackicc_16
gpcl6:sample_unpackicc_16_proc
gpcl6:san_open
gpcl6:sappend_file
gpcl6:sarrayAddString
gpcl6:sarrayAppend
gpcl6:sarrayAppendRange
gpcl6:sarrayChangeRefcount
gpcl6:sarrayClear
gpcl6:sarrayClone
gpcl6:sarrayConcatUniformly
gpcl6:sarrayConvertFilesFittedToPS
gpcl6:sarrayConvertFilesToPS
gpcl6:sarrayConvertWordsToLines
gpcl6:sarrayCopy
gpcl6:sarrayCreate
gpcl6:sarrayCreateInitialized
gpcl6:sarrayCreateLinesFromString
gpcl6:sarrayCreateWordsFromString
gpcl6:sarrayDestroy
gpcl6:sarrayFindStringByHash
gpcl6:sarrayGenerateIntegers
gpcl6:sarrayGetArray
gpcl6:sarrayGetCount
gpcl6:sarrayGetRefcount
gpcl6:sarrayGetString
gpcl6:sarrayIntersectionByAset
gpcl6:sarrayIntersectionByHash
gpcl6:sarrayJoin
gpcl6:sarrayLookupCSKV
gpcl6:sarrayPadToSameSize
gpcl6:sarrayParseRange
gpcl6:sarrayRead
gpcl6:sarrayReadMem
gpcl6:sarrayReadStream
gpcl6:sarrayRemoveDupsByAset
gpcl6:sarrayRemoveDupsByHash
gpcl6:sarrayRemoveString
gpcl6:sarrayReplaceString
gpcl6:sarraySelectByRange
gpcl6:sarraySelectBySubstring
gpcl6:sarraySort
gpcl6:sarraySortByIndex
gpcl6:sarraySplitString
gpcl6:sarrayToString
gpcl6:sarrayToStringRange
gpcl6:sarrayUnionByAset
gpcl6:sarrayWrite
gpcl6:sarrayWriteMem
gpcl6:sarrayWriteStream
gpcl6:savailable
gpcl6:scan_char_array
gpcl6:scfdtab_dummy
gpcl6:scfetab_dummy
gpcl6:sclose
gpcl6:selCopy
gpcl6:selCreate
gpcl6:selCreateBrick
gpcl6:selCreateComb
gpcl6:selCreateFromColorPix
gpcl6:selCreateFromPix
gpcl6:selCreateFromPta
gpcl6:selCreateFromString
gpcl6:selDestroy
gpcl6:selDisplayInPix
gpcl6:selFindMaxTranslations
gpcl6:selGetElement
gpcl6:selGetName
gpcl6:selGetParameters
gpcl6:selGetTypeAtOrigin
gpcl6:selMakePlusSign
gpcl6:selPrintToString
gpcl6:selRead
gpcl6:selReadFromColorImage
gpcl6:selReadStream
gpcl6:selRotateOrth
gpcl6:selSetElement
gpcl6:selSetName
gpcl6:selSetOrigin
gpcl6:selWrite
gpcl6:selWriteStream
gpcl6:sela4and8ccThin
gpcl6:sela4ccThin
gpcl6:sela8ccThin
gpcl6:selaAddBasic
gpcl6:selaAddCrossJunctions
gpcl6:selaAddDwaCombs
gpcl6:selaAddDwaLinear
gpcl6:selaAddHitMiss
gpcl6:selaAddSel
gpcl6:selaAddTJunctions
gpcl6:selaCreate
gpcl6:selaCreateFromColorPixa
gpcl6:selaCreateFromFile
gpcl6:selaDestroy
gpcl6:selaDisplayInPix
gpcl6:selaFindSelByName
gpcl6:selaGetBrickName
gpcl6:selaGetCombName
gpcl6:selaGetCount
gpcl6:selaGetSel
gpcl6:selaGetSelnames
gpcl6:selaRead
gpcl6:selaReadStream
gpcl6:selaWrite
gpcl6:selaWriteStream
gpcl6:selectComposableSels
gpcl6:selectComposableSizes
gpcl6:selectDefaultPdfEncoding
gpcl6:select_medium
gpcl6:send_pdf14trans
gpcl6:setLeptDebugOK
gpcl6:setLineDataVal
gpcl6:setMsgSeverity
gpcl6:setPixMemoryManager
gpcl6:setPixelLow
gpcl6:set_char_width
gpcl6:set_linear_color_bits_mask_shift
gpcl6:setup_device_and_mem_for_thread
gpcl6:sfclose
gpcl6:sfeof
gpcl6:sferror
gpcl6:sfgetc
gpcl6:sfilename
gpcl6:sfopen
gpcl6:sfread
gpcl6:sfseek
gpcl6:sftell
gpcl6:sget_matrix
gpcl6:sget_variable_uint
gpcl6:sgets
gpcl6:shade_fill_path
gpcl6:shade_init_fill_state
gpcl6:shade_next_color
gpcl6:shade_next_coords
gpcl6:shade_next_flag
gpcl6:shade_next_init
gpcl6:shade_next_vertex
gpcl6:sint16at
gpcl6:sint32at
gpcl6:sjpxd_create
gpcl6:sjpxd_destroy
gpcl6:smask_blend
gpcl6:smask_copy
gpcl6:smask_icc
gpcl6:smask_luminosity_mapping
gpcl6:spgetcc
gpcl6:splitPathAtDirectory
gpcl6:splitPathAtExtension
gpcl6:splitStringToParagraphs
gpcl6:spputc
gpcl6:spseek
gpcl6:spskip
gpcl6:sput_matrix
gpcl6:sput_variable_uint
gpcl6:sputs
gpcl6:sreadHeaderSpix
gpcl6:sread_file
gpcl6:sread_string
gpcl6:sread_string_reusable
gpcl6:sread_subfile
gpcl6:sread_transient_string
gpcl6:sread_transient_string_reusable
gpcl6:sreadline
gpcl6:srewind
gpcl6:ssetfilename
gpcl6:sswitch
gpcl6:st_DCT_state
gpcl6:st_IE_state
gpcl6:st_LZW_state
gpcl6:st_TExecution_Context
gpcl6:st_TFace
gpcl6:st_TInstance
gpcl6:st_base_color_space
gpcl6:st_bytes
gpcl6:st_cid_system_info
gpcl6:st_cid_system_info_element
gpcl6:st_cie_common
gpcl6:st_cie_common_elements_t
gpcl6:st_cie_render1
gpcl6:st_client_color
gpcl6:st_clip_list
gpcl6:st_clip_path
gpcl6:st_clip_rect
gpcl6:st_clump
gpcl6:st_cmap
gpcl6:st_cmap_ToUnicode
gpcl6:st_cmap_adobe1
gpcl6:st_cmap_identity
gpcl6:st_cmap_lookup_range
gpcl6:st_cmap_lookup_range_element
gpcl6:st_cmap_tt_16bit_format4
gpcl6:st_color_space
gpcl6:st_const_string_element
gpcl6:st_data_source
gpcl6:st_dc_ht_binary
gpcl6:st_device
gpcl6:st_device_bbox
gpcl6:st_device_clip
gpcl6:st_device_clist
gpcl6:st_device_clist_mutatable
gpcl6:st_device_color
gpcl6:st_device_cpath_accum
gpcl6:st_device_display
gpcl6:st_device_escv
gpcl6:st_device_forward
gpcl6:st_device_halftone
gpcl6:st_device_lips4v
gpcl6:st_device_mask_clip
gpcl6:st_device_memory
gpcl6:st_device_null
gpcl6:st_device_opvp
gpcl6:st_device_pclxl
gpcl6:st_device_plane_extract
gpcl6:st_device_printer
gpcl6:st_device_psdf
gpcl6:st_device_spot_analyzer
gpcl6:st_device_vector
gpcl6:st_device_xps
gpcl6:st_epo_device
gpcl6:st_flp_device
gpcl6:st_free
gpcl6:st_function
gpcl6:st_gc_root_t
gpcl6:st_glyph_data
gpcl6:st_gs_bitmap
gpcl6:st_gs_data_image
gpcl6:st_gs_depth_bitmap
gpcl6:st_gs_font
gpcl6:st_gs_font_base
gpcl6:st_gs_font_cid0
gpcl6:st_gs_font_cid1
gpcl6:st_gs_font_cid2
gpcl6:st_gs_font_cid_data
gpcl6:st_gs_font_info
gpcl6:st_gs_font_ptr_element
gpcl6:st_gs_font_type0
gpcl6:st_gs_font_type1
gpcl6:st_gs_font_type1_ptr_element
gpcl6:st_gs_font_type42
gpcl6:st_gs_gstate
gpcl6:st_gs_image1
gpcl6:st_gs_notify_list
gpcl6:st_gs_pixel_image
gpcl6:st_gs_show_enum
gpcl6:st_gs_text_enum
gpcl6:st_gs_text_params
gpcl6:st_gs_tile_bitmap
gpcl6:st_gs_tile_depth_bitmap
gpcl6:st_gs_type1_state
gpcl6:st_gx_devn_prn_device
gpcl6:st_gx_image_enum_common
gpcl6:st_gx_strip_bitmap
gpcl6:st_gx_ttfReader
gpcl6:st_halftone
gpcl6:st_halftone_component
gpcl6:st_ht_component_element
gpcl6:st_ht_order
gpcl6:st_ht_order_component_element
gpcl6:st_io_device
gpcl6:st_jpeg_compress_data
gpcl6:st_nup_device
gpcl6:st_obj_filter_device
gpcl6:st_path
gpcl6:st_path_enum
gpcl6:st_pattern1_instance
gpcl6:st_pattern2_instance
gpcl6:st_pattern_instance
gpcl6:st_pattern_template
gpcl6:st_pcl_mono_palette_device
gpcl6:st_pdf_char_proc
gpcl6:st_pdf_color_space
gpcl6:st_pdf_font_descriptor
gpcl6:st_pdf_font_resource
gpcl6:st_pdf_image_writer
gpcl6:st_pdf_lcvd_t
gpcl6:st_pdf_resource
gpcl6:st_pdf_sub_font_descriptor
gpcl6:st_pl_dict
gpcl6:st_psdf_binary_writer
gpcl6:st_ref_memory
gpcl6:st_stream
gpcl6:st_stream_state
gpcl6:st_subst_CID_on_WMode
gpcl6:st_transfer_map
gpcl6:st_ttfFont
gpcl6:st_ttfInterpreter
gpcl6:st_vector_image_enum
gpcl6:st_zlib_state
gpcl6:startTimer
gpcl6:startTimerNested
gpcl6:startWallTimer
gpcl6:stc_fs
gpcl6:stc_fs2
gpcl6:stc_fscmyk
gpcl6:stc_gsmono
gpcl6:stc_gsrgb
gpcl6:stderr_handler
gpcl6:stell
gpcl6:stick_font_data
gpcl6:stick_font_offsets
gpcl6:stopTimer
gpcl6:stopTimerNested
gpcl6:stopWallTimer
gpcl6:strFeeder
gpcl6:strInk
gpcl6:strPrinterType
gpcl6:strQuality
gpcl6:strcodeCreate
gpcl6:strcodeCreateFromFile
gpcl6:strcodeFinalize
gpcl6:strcodeGenerate
gpcl6:stream_dct_end_passthrough
gpcl6:stream_move
gpcl6:stream_puts
gpcl6:stream_write
gpcl6:stringCat
gpcl6:stringCheckForChars
gpcl6:stringCompareLexical
gpcl6:stringConcatNew
gpcl6:stringCopy
gpcl6:stringCopySegment
gpcl6:stringFindEachSubstr
gpcl6:stringFindSubstr
gpcl6:stringJoin
gpcl6:stringJoinIP
gpcl6:stringLength
gpcl6:stringNew
gpcl6:stringRemoveChars
gpcl6:stringReplace
gpcl6:stringReplaceEachSubstr
gpcl6:stringReplaceSubstr
gpcl6:stringReverse
gpcl6:stringSplitOnToken
gpcl6:string_match
gpcl6:string_match_params_default
gpcl6:strtokSafe
gpcl6:sudokuCreate
gpcl6:sudokuDestroy
gpcl6:sudokuGenerate
gpcl6:sudokuOutput
gpcl6:sudokuReadFile
gpcl6:sudokuReadString
gpcl6:sudokuSolve
gpcl6:sudokuTestUniqueness
gpcl6:sungetc
gpcl6:swrite_file
gpcl6:swrite_position_only
gpcl6:swrite_string
gpcl6:sync_text_state
gpcl6:t1_hinter__closepath
gpcl6:t1_hinter__dotsection
gpcl6:t1_hinter__drop_hints
gpcl6:t1_hinter__end_subglyph
gpcl6:t1_hinter__endglyph
gpcl6:t1_hinter__fix_contour_signs
gpcl6:t1_hinter__flex_beg
gpcl6:t1_hinter__flex_end
gpcl6:t1_hinter__flex_point
gpcl6:t1_hinter__hint_mask
gpcl6:t1_hinter__hstem
gpcl6:t1_hinter__hstem3
gpcl6:t1_hinter__init
gpcl6:t1_hinter__is_x_fitting
gpcl6:t1_hinter__overall_hstem
gpcl6:t1_hinter__rcurveto
gpcl6:t1_hinter__rlineto
gpcl6:t1_hinter__rmoveto
gpcl6:t1_hinter__sbw
gpcl6:t1_hinter__sbw_seac
gpcl6:t1_hinter__set_font42_data
gpcl6:t1_hinter__set_font_data
gpcl6:t1_hinter__set_mapping
gpcl6:t1_hinter__setcurrentpoint
gpcl6:t1_hinter__vstem
gpcl6:t1_hinter__vstem3
gpcl6:teardown_device_and_mem_for_thread
gpcl6:term_patch_fill_state
gpcl6:text_data_free
gpcl6:thresholdToBinaryLineLow
gpcl6:tiffGetCount
gpcl6:tiff_close
gpcl6:tiff_compression_allowed
gpcl6:tiff_compression_id
gpcl6:tiff_compression_param_string
gpcl6:tiff_downscale_and_print_page
gpcl6:tiff_from_filep
gpcl6:tiff_get_params
gpcl6:tiff_get_params_downscale
gpcl6:tiff_get_params_downscale_cmyk
gpcl6:tiff_get_params_downscale_cmyk_ets
gpcl6:tiff_open
gpcl6:tiff_open_s
gpcl6:tiff_print_page
gpcl6:tiff_put_params
gpcl6:tiff_put_params_downscale
gpcl6:tiff_put_params_downscale_cmyk
gpcl6:tiff_put_params_downscale_cmyk_ets
gpcl6:tiff_set_compression
gpcl6:tiff_set_fields_for_printer
gpcl6:tiff_set_handlers
gpcl6:tile_clip_free
gpcl6:tile_clip_initialize
gpcl6:tile_clip_set_phase
gpcl6:tile_rect_trans_blend
gpcl6:tile_rect_trans_simple
gpcl6:tmmat
gpcl6:ttMulDiv
gpcl6:tt_find_table
gpcl6:ttfFont__Open
gpcl6:ttfFont__Open_aux
gpcl6:ttfFont__create
gpcl6:ttfFont__destroy
gpcl6:ttfFont__finit
gpcl6:ttfFont__init
gpcl6:ttfInterpreter__obtain
gpcl6:ttfInterpreter__release
gpcl6:ttfOutliner__DrawGlyphOutline
gpcl6:ttfOutliner__Outline
gpcl6:ttfOutliner__init
gpcl6:ttfReader__Byte
gpcl6:ttfReader__Int
gpcl6:ttfReader__Short
gpcl6:ttfReader__SignedByte
gpcl6:ttfReader__UInt
gpcl6:ttfReader__UShort
gpcl6:txt_calculate_text_size
gpcl6:txt_char_widths_to_uts
gpcl6:txt_get_unicode
gpcl6:txt_glyph_widths
gpcl6:type1_cis_get_metrics
gpcl6:uid_copy
gpcl6:uid_equal
gpcl6:uint16at
gpcl6:uint32at
gpcl6:uint_value
gpcl6:update_spot_equivalent_cmyk_colors
gpcl6:using_alt_color_space
gpcl6:vector_equal
gpcl6:wedge_vertex_list_elem_buffer_alloc
gpcl6:wedge_vertex_list_elem_buffer_free
gpcl6:width
gpcl6:writeImageCompressedToPSFile
gpcl6:writeImageFileInfo
gpcl6:writeMultipageTiff
gpcl6:writeMultipageTiffSA
gpcl6:write_bmp_header
gpcl6:write_bmp_separated_header
gpcl6:write_font_resources
gpcl6:xps_fixed_state
gpcl6:zlibCompress
gpcl6:zlibUncompress
gs:AlphaMaskBorderVals
gs:BJL_command_set
gs:BlackPoint_default
gs:ClapTrap_Fin
gs:ClapTrap_GetLine
gs:ClapTrap_GetLinePlanar
gs:ClapTrap_Init
gs:Clear_CodeRange
gs:Context_Create
gs:Context_Destroy
gs:Context_Load
gs:Context_Run
gs:Context_Save
gs:ConvolveSamplingFactX
gs:ConvolveSamplingFactY
gs:DecodeABC_default
gs:DecodeABC_from_cache
gs:DecodeA_default
gs:DecodeA_from_cache
gs:DecodeDEFG_default
gs:DecodeDEFG_from_cache
gs:DecodeDEF_default
gs:DecodeDEF_from_cache
gs:DecodeLMN_default
gs:DecodeLMN_from_cache
gs:Default_GraphicsState
gs:DevCMYKOGComponents
gs:DevCMYKTComponents
gs:DeviceCMYKComponents
gs:DeviceGrayComponents
gs:DeviceRGBComponents
gs:DoubleGlyphList
gs:EncodeABC_from_cache
gs:EncodeLMN_from_cache
gs:Encode_default
gs:ExtGStateTable
gs:Face_Create
gs:Face_Destroy
gs:FloydSteinbergCloseC
gs:FloydSteinbergCloseG
gs:FloydSteinbergDitheringC
gs:FloydSteinbergDitheringG
gs:FloydSteinbergInitC
gs:FloydSteinbergInitG
gs:GDI_BAND_WIDTH
gs:Get_CodeRange
gs:Goto_CodeRange
gs:ImageFileFormatExtensions
gs:Instance_Create
gs:Instance_Destroy
gs:Instance_Init
gs:Instance_Reset
gs:IsInWhiteList
gs:LeptDebugOK
gs:LeptMsgSeverity
gs:Load_TrueType_CVT
gs:Load_TrueType_MaxProfile
gs:Load_TrueType_Programs
gs:MORPH_BC
gs:MacintoshOrdering
gs:Matrix3_default
gs:MatrixA_default
gs:MaxInitPtraSize
gs:Memento_adjustRef
gs:Memento_blockInfo
gs:Memento_breakAt
gs:Memento_breakOnFree
gs:Memento_breakOnRealloc
gs:Memento_breakpoint
gs:Memento_calloc
gs:Memento_check
gs:Memento_checkAllMemory
gs:Memento_checkBlock
gs:Memento_dropRef
gs:Memento_failAt
gs:Memento_find
gs:Memento_free
gs:Memento_getBlockNum
gs:Memento_info
gs:Memento_label
gs:Memento_listBlockInfo
gs:Memento_listBlocks
gs:Memento_listNewBlocks
gs:Memento_listPhasedBlocks
gs:Memento_malloc
gs:Memento_paranoidAt
gs:Memento_realloc
gs:Memento_reference
gs:Memento_setMax
gs:Memento_setParanoia
gs:Memento_setVerbose
gs:Memento_showHash
gs:Memento_squeezing
gs:Memento_startLeaking
gs:Memento_stats
gs:Memento_stopLeaking
gs:Memento_takeRef
gs:MulDiv_Round
gs:NumImageFileFormatExtensions
gs:PCLm_close
gs:PCLm_open
gs:PermittedKeys
gs:QuadGlyphList
gs:Range3_default
gs:Range4_default
gs:RangeA_default
gs:RenderTableT_default
gs:RenderTableT_from_cache
gs:RunIns
gs:SaveScanData
gs:Scale_X
gs:Scale_Y
gs:Set_CodeRange
gs:SingleGlyphList
gs:Sqrt64
gs:TT_Set_Instance_CharSizes
gs:TessAltoRendererCreate
gs:TessBaseAPIAdaptToWordStr
gs:TessBaseAPIAllWordConfidences
gs:TessBaseAPIAnalyseLayout
gs:TessBaseAPIClear
gs:TessBaseAPIClearAdaptiveClassifier
gs:TessBaseAPICreate
gs:TessBaseAPIDelete
gs:TessBaseAPIEnd
gs:TessBaseAPIGetAltoText
gs:TessBaseAPIGetAvailableLanguagesAsVector
gs:TessBaseAPIGetBoolVariable
gs:TessBaseAPIGetBoxText
gs:TessBaseAPIGetComponentImages
gs:TessBaseAPIGetComponentImages1
gs:TessBaseAPIGetConnectedComponents
gs:TessBaseAPIGetDatapath
gs:TessBaseAPIGetDoubleVariable
gs:TessBaseAPIGetHOCRText
gs:TessBaseAPIGetInitLanguagesAsString
gs:TessBaseAPIGetInputImage
gs:TessBaseAPIGetInputName
gs:TessBaseAPIGetIntVariable
gs:TessBaseAPIGetIterator
gs:TessBaseAPIGetLSTMBoxText
gs:TessBaseAPIGetLoadedLanguagesAsVector
gs:TessBaseAPIGetMutableIterator
gs:TessBaseAPIGetOpenCLDevice
gs:TessBaseAPIGetPageSegMode
gs:TessBaseAPIGetRegions
gs:TessBaseAPIGetSourceYResolution
gs:TessBaseAPIGetStringVariable
gs:TessBaseAPIGetStrips
gs:TessBaseAPIGetTextDirection
gs:TessBaseAPIGetTextlines
gs:TessBaseAPIGetTextlines1
gs:TessBaseAPIGetThresholdedImage
gs:TessBaseAPIGetThresholdedImageScaleFactor
gs:TessBaseAPIGetTsvText
gs:TessBaseAPIGetUNLVText
gs:TessBaseAPIGetUTF8Text
gs:TessBaseAPIGetUnichar
gs:TessBaseAPIGetWordStrBoxText
gs:TessBaseAPIGetWords
gs:TessBaseAPIInit1
gs:TessBaseAPIInit2
gs:TessBaseAPIInit3
gs:TessBaseAPIInit4
gs:TessBaseAPIInitForAnalysePage
gs:TessBaseAPIInitLangMod
gs:TessBaseAPIIsValidWord
gs:TessBaseAPIMeanTextConf
gs:TessBaseAPIPrintVariables
gs:TessBaseAPIPrintVariablesToFile
gs:TessBaseAPIProcessPage
gs:TessBaseAPIProcessPages
gs:TessBaseAPIReadConfigFile
gs:TessBaseAPIReadDebugConfigFile
gs:TessBaseAPIRecognize
gs:TessBaseAPIRect
gs:TessBaseAPISetDebugVariable
gs:TessBaseAPISetImage
gs:TessBaseAPISetImage2
gs:TessBaseAPISetInputImage
gs:TessBaseAPISetInputName
gs:TessBaseAPISetMinOrientationMargin
gs:TessBaseAPISetOutputName
gs:TessBaseAPISetPageSegMode
gs:TessBaseAPISetRectangle
gs:TessBaseAPISetSourceResolution
gs:TessBaseAPISetVariable
gs:TessBoxTextRendererCreate
gs:TessChoiceIteratorConfidence
gs:TessChoiceIteratorDelete
gs:TessChoiceIteratorGetUTF8Text
gs:TessChoiceIteratorNext
gs:TessDeleteIntArray
gs:TessDeleteResultRenderer
gs:TessDeleteText
gs:TessDeleteTextArray
gs:TessHOcrRendererCreate
gs:TessHOcrRendererCreate2
gs:TessLSTMBoxRendererCreate
gs:TessMonitorCreate
gs:TessMonitorDelete
gs:TessMonitorGetCancelThis
gs:TessMonitorGetProgress
gs:TessMonitorSetCancelFunc
gs:TessMonitorSetCancelThis
gs:TessMonitorSetDeadlineMSecs
gs:TessMonitorSetProgressFunc
gs:TessPDFRendererCreate
gs:TessPageIteratorBaseline
gs:TessPageIteratorBegin
gs:TessPageIteratorBlockType
gs:TessPageIteratorBoundingBox
gs:TessPageIteratorCopy
gs:TessPageIteratorDelete
gs:TessPageIteratorGetBinaryImage
gs:TessPageIteratorGetImage
gs:TessPageIteratorIsAtBeginningOf
gs:TessPageIteratorIsAtFinalElement
gs:TessPageIteratorNext
gs:TessPageIteratorOrientation
gs:TessPageIteratorParagraphInfo
gs:TessResultIteratorConfidence
gs:TessResultIteratorCopy
gs:TessResultIteratorDelete
gs:TessResultIteratorGetChoiceIterator
gs:TessResultIteratorGetPageIterator
gs:TessResultIteratorGetPageIteratorConst
gs:TessResultIteratorGetUTF8Text
gs:TessResultIteratorNext
gs:TessResultIteratorSymbolIsDropcap
gs:TessResultIteratorSymbolIsSubscript
gs:TessResultIteratorSymbolIsSuperscript
gs:TessResultIteratorWordFontAttributes
gs:TessResultIteratorWordIsFromDictionary
gs:TessResultIteratorWordIsNumeric
gs:TessResultIteratorWordRecognitionLanguage
gs:TessResultRendererAddImage
gs:TessResultRendererBeginDocument
gs:TessResultRendererEndDocument
gs:TessResultRendererExtention
gs:TessResultRendererImageNum
gs:TessResultRendererInsert
gs:TessResultRendererNext
gs:TessResultRendererTitle
gs:TessTextRendererCreate
gs:TessTsvRendererCreate
gs:TessUnlvRendererCreate
gs:TessVersion
gs:TessWordStrBoxRendererCreate
gs:TransformPQR_default
gs:TransformPQR_from_cache
gs:TransformPQR_lookup_proc_name
gs:TrebleGlyphList
gs:Unset_CodeRange
gs:UpdateScanLine
gs:UpdateScanSize
gs:WRF_init
gs:WRF_wbyte
gs:WRF_wfloat
gs:WRF_wint
gs:WRF_wstring
gs:WRF_wtext
gs:_IO_stdin_used
gs:_Z15DistanceBetween6FPOINTS_
gs:_Z19NormalizedAngleFromP6FPOINTS0_f
gs:_Z7tfscanfP8_IO_FILEPKcz
gs:_ZN9tesseract10AddFeatureEPNS_18FEATURE_SET_STRUCTEPNS_14FEATURE_STRUCTE
gs:_ZN9tesseract10BLOCK_LIST9deep_copyEPKS0_PFPNS_5BLOCKEPKS3_E
gs:_ZN9tesseract10Bucket8ForEffi
gs:_ZN9tesseract10ColSegment8set_typeEv
gs:_ZN9tesseract10ColSegment9InsertBoxERKNS_4TBOXE
gs:_ZN9tesseract10ColSegmentC1Ev
gs:_ZN9tesseract10ColSegmentC2Ev
gs:_ZN9tesseract10DawgLoader4LoadEv
gs:_ZN9tesseract10DetLineFit14ConstrainedFitERKNS_6FCOORDEddbPNS_6ICOORDE
gs:_ZN9tesseract10DetLineFit14ConstrainedFitEdPf
gs:_ZN9tesseract10DetLineFit15EvaluateLineFitEv
gs:_ZN9tesseract10DetLineFit16ComputeDistancesERKNS_6ICOORDES3_
gs:_ZN9tesseract10DetLineFit25ComputeUpperQuartileErrorEv
gs:_ZN9tesseract10DetLineFit27ComputeConstrainedDistancesERKNS_6FCOORDEdd
gs:_ZN9tesseract10DetLineFit3AddERKNS_6ICOORDE
gs:_ZN9tesseract10DetLineFit3AddERKNS_6ICOORDEi
gs:_ZN9tesseract10DetLineFit3FitEPfS1_
gs:_ZN9tesseract10DetLineFit3FitEiiPNS_6ICOORDES2_
gs:_ZN9tesseract10DetLineFit5ClearEv
gs:_ZN9tesseract10DetLineFitC1Ev
gs:_ZN9tesseract10DetLineFitC2Ev
gs:_ZN9tesseract10DotProductE
gs:_ZN9tesseract10FPAnalyzer13EstimatePitchEb
gs:_ZN9tesseract10FPAnalyzerC1ENS_6ICOORDEPNS_13TO_BLOCK_LISTE
gs:_ZN9tesseract10FPAnalyzerC2ENS_6ICOORDEPNS_13TO_BLOCK_LISTE
gs:_ZN9tesseract10FillerDoneEPNS_12TABLE_FILLERE
gs:_ZN9tesseract10FreeKDNodeEPNS_6KDNODEE
gs:_ZN9tesseract10FreeKDTreeEPNS_6KDTREEE
gs:_ZN9tesseract10HOcrEscapeB5cxx11EPKc
gs:_ZN9tesseract10LineFinder12GetLineBoxesEbP3PixS2_PNS_11C_BLOB_LISTEPNS_13BLOBNBOX_LISTE
gs:_ZN9tesseract10LineFinder12GetLineMasksEiP3PixPS2_S3_S3_S3_S3_S3_P4Pixa
gs:_ZN9tesseract10LineFinder15FindLineVectorsERKNS_6ICOORDES3_PNS_13BLOBNBOX_LISTEPiS6_PNS_14TabVector_LISTE
gs:_ZN9tesseract10LineFinder18ConvertBoxaToBlobsEiiPP4BoxaPNS_11C_BLOB_LISTE
gs:_ZN9tesseract10LineFinder18FindAndRemoveLinesEibP3PixPiS3_PS2_PNS_14TabVector_LISTES6_
gs:_ZN9tesseract10LineFinder19FindAndRemoveHLinesEiP3PixiiPS2_S2_S2_PNS_14TabVector_LISTE
gs:_ZN9tesseract10LineFinder19FindAndRemoveVLinesEiP3PixPiS3_PS2_S2_S2_PNS_14TabVector_LISTE
gs:_ZN9tesseract10MakeKDNodeEPNS_6KDTREEEPfPvi
gs:_ZN9tesseract10MakeKDTreeEsPKNS_10PARAM_DESCE
gs:_ZN9tesseract10MakeSampleEPNS_9CLUSTEREREPKfi
gs:_ZN9tesseract10NewFeatureEPKNS_19FEATURE_DESC_STRUCTE
gs:_ZN9tesseract10NextSampleEPPNS_8list_recE
gs:_ZN9tesseract10OL_BUCKETS14count_childrenEPNS_9C_OUTLINEEi
gs:_ZN9tesseract10OL_BUCKETS16extract_childrenEPNS_9C_OUTLINEEPNS_12C_OUTLINE_ITE
gs:_ZN9tesseract10OL_BUCKETS18outline_complexityEPNS_9C_OUTLINEEis
gs:_ZN9tesseract10OL_BUCKETSC1ENS_6ICOORDES1_
gs:_ZN9tesseract10OL_BUCKETSC2ENS_6ICOORDES1_
gs:_ZN9tesseract10OL_BUCKETSclEss
gs:_ZN9tesseract10PB_LINE_IT8get_lineEs
gs:_ZN9tesseract10POLY_BLOCK10compute_bbEv
gs:_ZN9tesseract10POLY_BLOCK14winding_numberERKNS_6ICOORDE
gs:_ZN9tesseract10POLY_BLOCK17reflect_in_y_axisEv
gs:_ZN9tesseract10POLY_BLOCK4moveENS_6ICOORDE
gs:_ZN9tesseract10POLY_BLOCK6rotateENS_6FCOORDE
gs:_ZN9tesseract10POLY_BLOCK7overlapEPS0_
gs:_ZN9tesseract10POLY_BLOCK8containsEPS0_
gs:_ZN9tesseract10POLY_BLOCKC1EPNS_14ICOORDELT_LISTENS_13PolyBlockTypeE
gs:_ZN9tesseract10POLY_BLOCKC1ERKNS_4TBOXENS_13PolyBlockTypeE
gs:_ZN9tesseract10POLY_BLOCKC2EPNS_14ICOORDELT_LISTENS_13PolyBlockTypeE
gs:_ZN9tesseract10POLY_BLOCKC2ERKNS_4TBOXENS_13PolyBlockTypeE
gs:_ZN9tesseract10ParamUtils11PrintParamsEP8_IO_FILEPKNS_13ParamsVectorsE
gs:_ZN9tesseract10ParamUtils14ReadParamsFileEPKcNS_18SetParamConstraintEPNS_13ParamsVectorsE
gs:_ZN9tesseract10ParamUtils15ResetToDefaultsEPNS_13ParamsVectorsE
gs:_ZN9tesseract10ParamUtils16GetParamAsStringEPKcPKNS_13ParamsVectorsEPNSt7__cxx1112basic_stringIcSt11char_traitsIcESaIcEEE
gs:_ZN9tesseract10ParamUtils16ReadParamsFromFpENS_18SetParamConstraintEPNS_5TFileEPNS_13ParamsVectorsE
gs:_ZN9tesseract10ParamUtils8SetParamEPKcS2_NS_18SetParamConstraintEPNS_13ParamsVectorsE
gs:_ZN9tesseract10ROW_zapperEPNS_10ELIST_LINKE
gs:_ZN9tesseract10SIMDDetect14avx_available_E
gs:_ZN9tesseract10SIMDDetect14fma_available_E
gs:_ZN9tesseract10SIMDDetect14sse_available_E
gs:_ZN9tesseract10SIMDDetect15avx2_available_E
gs:_ZN9tesseract10SIMDDetect18avx512F_available_E
gs:_ZN9tesseract10SIMDDetect19avx512BW_available_E
gs:_ZN9tesseract10SIMDDetect6UpdateEv
gs:_ZN9tesseract10SIMDDetect8detectorE
gs:_ZN9tesseract10SIMDDetectC1Ev
gs:_ZN9tesseract10SIMDDetectC2Ev
gs:_ZN9tesseract10ScrollViewD1Ev
gs:_ZN9tesseract10ScrollViewD2Ev
gs:_ZN9tesseract10ShapeTable10AddToShapeEiii
gs:_ZN9tesseract10ShapeTable10SwapShapesEii
gs:_ZN9tesseract10ShapeTable11DeSerializeEPNS_5TFileE
gs:_ZN9tesseract10ShapeTable11DeleteShapeEi
gs:_ZN9tesseract10ShapeTable11MergeShapesEii
gs:_ZN9tesseract10ShapeTable13ReMapClassIdsERKNS_13GenericVectorIiEE
gs:_ZN9tesseract10ShapeTable14BuildFromShapeERKNS_5ShapeERKS0_
gs:_ZN9tesseract10ShapeTable15AddShapeToShapeEiRKNS_5ShapeE
gs:_ZN9tesseract10ShapeTable15ForceFontMergesEii
gs:_ZN9tesseract10ShapeTable18AppendMasterShapesERKS0_PNS_13GenericVectorIiEE
gs:_ZN9tesseract10ShapeTable8AddShapeERKNS_5ShapeE
gs:_ZN9tesseract10ShapeTable8AddShapeEii
gs:_ZN9tesseract10ShapeTableC1ERKNS_10UNICHARSETE
gs:_ZN9tesseract10ShapeTableC1Ev
gs:_ZN9tesseract10ShapeTableC2ERKNS_10UNICHARSETE
gs:_ZN9tesseract10ShapeTableC2Ev
gs:_ZN9tesseract10UNICHARMAP15UNICHARMAP_NODEC1Ev
gs:_ZN9tesseract10UNICHARMAP15UNICHARMAP_NODEC2Ev
gs:_ZN9tesseract10UNICHARMAP15UNICHARMAP_NODED1Ev
gs:_ZN9tesseract10UNICHARMAP15UNICHARMAP_NODED2Ev
gs:_ZN9tesseract10UNICHARMAP5clearEv
gs:_ZN9tesseract10UNICHARMAP6insertEPKci
gs:_ZN9tesseract10UNICHARMAPC1Ev
gs:_ZN9tesseract10UNICHARMAPC2Ev
gs:_ZN9tesseract10UNICHARMAPD1Ev
gs:_ZN9tesseract10UNICHARMAPD2Ev
gs:_ZN9tesseract10UNICHARSET10add_scriptEPKc
gs:_ZN9tesseract10UNICHARSET11null_scriptE
gs:_ZN9tesseract10UNICHARSET12kCleanupMapsE
gs:_ZN9tesseract10UNICHARSET13CleanupStringB5cxx11EPKcm
gs:_ZN9tesseract10UNICHARSET14debug_utf8_strEPKc
gs:_ZN9tesseract10UNICHARSET14load_from_fileEP8_IO_FILEb
gs:_ZN9tesseract10UNICHARSET14load_from_fileEPNS_5TFileEb
gs:_ZN9tesseract10UNICHARSET14load_via_fgetsESt8functionIFPcS2_iEEb
gs:_ZN9tesseract10UNICHARSET14set_normed_idsEi
gs:_ZN9tesseract10UNICHARSET14unichar_insertEPKcNS_18OldUncleanUnicharsE
gs:_ZN9tesseract10UNICHARSET15post_load_setupEv
gs:_ZN9tesseract10UNICHARSET16kCustomLigaturesE
gs:_ZN9tesseract10UNICHARSET16set_ranges_emptyEv
gs:_ZN9tesseract10UNICHARSET18UNICHAR_PROPERTIES13SetRangesOpenEv
gs:_ZN9tesseract10UNICHARSET18UNICHAR_PROPERTIES14SetRangesEmptyEv
gs:_ZN9tesseract10UNICHARSET18UNICHAR_PROPERTIES16ExpandRangesFromERKS1_
gs:_ZN9tesseract10UNICHARSET18UNICHAR_PROPERTIES4InitEv
gs:_ZN9tesseract10UNICHARSET18UNICHAR_PROPERTIES8CopyFromERKS1_
gs:_ZN9tesseract10UNICHARSET18UNICHAR_PROPERTIESC1Ev
gs:_ZN9tesseract10UNICHARSET18UNICHAR_PROPERTIESC2Ev
gs:_ZN9tesseract10UNICHARSET20kSpecialUnicharCodesE
gs:_ZN9tesseract10UNICHARSET21AppendOtherUnicharsetERKS0_
gs:_ZN9tesseract10UNICHARSET21ExpandRangesFromOtherERKS0_
gs:_ZN9tesseract10UNICHARSET23set_black_and_whitelistEPKcS2_S2_
gs:_ZN9tesseract10UNICHARSET29PartialSetPropertiesFromOtherEiRKS0_
gs:_ZN9tesseract10UNICHARSET8CopyFromERKS0_
gs:_ZN9tesseract10UNICHARSETC1Ev
gs:_ZN9tesseract10UNICHARSETC2Ev
gs:_ZN9tesseract10UNICHARSETD1Ev
gs:_ZN9tesseract10UNICHARSETD2Ev
gs:_ZN9tesseract10UnicodeForEPKNS_10UNICHARSETEPKNS_11WERD_CHOICEEi
gs:_ZN9tesseract10color_listE
gs:_ZN9tesseract10get_ydiffsEPNS_4TBOXEiPNS_7QSPLINEEPf
gs:_ZN9tesseract10kCrownLeftE
gs:_ZN9tesseract10make_wordsEPNS_7TextordENS_6ICOORDEfPNS_10BLOCK_LISTEPNS_13TO_BLOCK_LISTE
gs:_ZN9tesseract10row_words2EPNS_8TO_BLOCKEPNS_6TO_ROWEiNS_6FCOORDEb
gs:_ZN9tesseract10write_infoEP8_IO_FILERKNS_8FontInfoE
gs:_ZN9tesseract11AddIntClassEPNS_20INT_TEMPLATES_STRUCTEiPNS_16INT_CLASS_STRUCTE
gs:_ZN9tesseract11AddIntProtoEPNS_16INT_CLASS_STRUCTE
gs:_ZN9tesseract11AlignedBlob15FindAlignedBlobERKNS_17AlignedBlobParamsEbPNS_8BLOBNBOXEiPi
gs:_ZN9tesseract11AlignedBlob16WithinTestRegionEiii
gs:_ZN9tesseract11AlignedBlob21FindVerticalAlignmentENS_17AlignedBlobParamsEPNS_8BLOBNBOXEPiS4_
gs:_ZN9tesseract11AlignedBlob9AlignTabsERKNS_17AlignedBlobParamsEbPNS_8BLOBNBOXEPNS_14BLOBNBOX_CLISTEPi
gs:_ZN9tesseract11AlignedBlobC1EiRKNS_6ICOORDES3_
gs:_ZN9tesseract11AlignedBlobC2EiRKNS_6ICOORDES3_
gs:_ZN9tesseract11AlignedBlobD0Ev
gs:_ZN9tesseract11AlignedBlobD1Ev
gs:_ZN9tesseract11AlignedBlobD2Ev
gs:_ZN9tesseract11BLOB_CHOICEC1ERKS0_
gs:_ZN9tesseract11BLOB_CHOICEC1EiffifffNS_20BlobChoiceClassifierE
gs:_ZN9tesseract11BLOB_CHOICEC2ERKS0_
gs:_ZN9tesseract11BLOB_CHOICEC2EiffifffNS_20BlobChoiceClassifierE
gs:_ZN9tesseract11BLOB_CHOICEaSERKS0_
gs:_ZN9tesseract11BaselineRow11FitBaselineEb
gs:_ZN9tesseract11BaselineRow18ComputeBoundingBoxEv
gs:_ZN9tesseract11BaselineRow20AdjustBaselineToGridEiRKNS_6FCOORDEdd
gs:_ZN9tesseract11BaselineRow22FitConstrainedIfBetterEiRKNS_6FCOORDEdd
gs:_ZN9tesseract11BaselineRow22SetupBlobDisplacementsERKNS_6FCOORDE
gs:_ZN9tesseract11BaselineRow24AdjustBaselineToParallelEiRKNS_6FCOORDE
gs:_ZN9tesseract11BaselineRowC1EdPNS_6TO_ROWE
gs:_ZN9tesseract11BaselineRowC2EdPNS_6TO_ROWE
gs:_ZN9tesseract11Bucket16ForEffi
gs:_ZN9tesseract11BucketStartEifi
gs:_ZN9tesseract11C_BLOB_LIST9deep_copyEPKS0_PFPNS_6C_BLOBEPKS3_E
gs:_ZN9tesseract11ConvertBlobEPNS_5TBLOBE
gs:_ZN9tesseract11FreeFeatureEPNS_14FEATURE_STRUCTE
gs:_ZN9tesseract11FreeSubTreeEPNS_6KDNODEE
gs:_ZN9tesseract11GeoFeatDescE
gs:_ZN9tesseract11GetNextFillEPNS_12TABLE_FILLEREPNS_9FILL_SPECE
gs:_ZN9tesseract11InsertNodesEPNS_6KDTREEEPNS_6KDNODEE
gs:_ZN9tesseract11IntFeatDescE
gs:_ZN9tesseract11NewIntClassEii
gs:_ZN9tesseract11OpenBoxFileEPKc
gs:_ZN9tesseract11PAGE_RES_IT10start_pageEb
gs:_ZN9tesseract11PAGE_RES_IT11restart_rowEv
gs:_ZN9tesseract11PAGE_RES_IT13forward_blockEv
gs:_ZN9tesseract11PAGE_RES_IT13rej_stat_wordEv
gs:_ZN9tesseract11PAGE_RES_IT16internal_forwardEbb
gs:_ZN9tesseract11PAGE_RES_IT17DeleteCurrentWordEv
gs:_ZN9tesseract11PAGE_RES_IT17ResetWordIteratorEv
gs:_ZN9tesseract11PAGE_RES_IT17forward_paragraphEv
gs:_ZN9tesseract11PAGE_RES_IT18ReplaceCurrentWordEPNS_13PointerVectorINS_8WERD_RESEEE
gs:_ZN9tesseract11PAGE_RES_IT20MakeCurrentWordFuzzyEv
gs:_ZN9tesseract11PAGE_RES_IT21InsertSimpleCloneWordERKNS_8WERD_RESEPNS_4WERDE
gs:_ZN9tesseract11PARA_zapperEPNS_10ELIST_LINKE
gs:_ZN9tesseract11ParamsModel10LoadFromFpEPKcPNS_5TFileE
gs:_ZN9tesseract11ParamsModel4CopyERKS0_
gs:_ZN9tesseract11ParamsModel5PrintEv
gs:_ZN9tesseract11ParamsModel9ParseLineEPcPS1_Pf
gs:_ZN9tesseract11ReadNextBoxEPiP8_IO_FILEPNS_6STRINGEPNS_4TBOXE
gs:_ZN9tesseract11ReadNextBoxEiPiP8_IO_FILEPNS_6STRINGEPNS_4TBOXE
gs:_ZN9tesseract11ShapeRating22FirstResultWithUnicharERKNS_13GenericVectorIS0_EERKNS_10ShapeTableEi
gs:_ZN9tesseract11StrokeWidth10EasyMergesEPNS_16ColPartitionGridE
gs:_ZN9tesseract11StrokeWidth11HandleClickEii
gs:_ZN9tesseract11StrokeWidth11InsertBlobsEPNS_8TO_BLOCKE
gs:_ZN9tesseract11StrokeWidth12FixBrokenCJKEPNS_8TO_BLOCKE
gs:_ZN9tesseract11StrokeWidth13DiacriticBlobEPNS_8BlobGridEPNS_8BLOBNBOXE
gs:_ZN9tesseract11StrokeWidth13SetNeighboursEbbPNS_8BLOBNBOXE
gs:_ZN9tesseract11StrokeWidth14TestDiacriticsEPNS_16ColPartitionGridEPNS_8TO_BLOCKE
gs:_ZN9tesseract11StrokeWidth15MergeDiacriticsEPNS_8TO_BLOCKEPNS_16ColPartitionGridE
gs:_ZN9tesseract11StrokeWidth16ConfirmEasyMergeEPKNS_12ColPartitionES3_
gs:_ZN9tesseract11StrokeWidth17CompletePartitionENS_11PageSegModeEPNS_12ColPartitionEPNS_16ColPartitionGridE
gs:_ZN9tesseract11StrokeWidth17FindGoodNeighbourENS_16BlobNeighbourDirEbPNS_8BLOBNBOXE
gs:_ZN9tesseract11StrokeWidth17RemoveLineResidueEPNS_17ColPartition_LISTE
gs:_ZN9tesseract11StrokeWidth17SetNeighbourFlowsEPNS_8BLOBNBOXE
gs:_ZN9tesseract11StrokeWidth18AccumulateOverlapsEPKNS_8BLOBNBOXEbiiPNS_4TBOXEPNS_14BLOBNBOX_CLISTE
gs:_ZN9tesseract11StrokeWidth18CorrectForRotationERKNS_6FCOORDEPNS_16ColPartitionGridE
gs:_ZN9tesseract11StrokeWidth19DiacriticXGapFilledEPNS_8BlobGridERKNS_4TBOXES5_
gs:_ZN9tesseract11StrokeWidth20DetectAndRemoveNoiseEiRKNS_4TBOXEPNS_8TO_BLOCKEPNS_16ColPartitionGridEPNS_13BLOBNBOX_LISTE
gs:_ZN9tesseract11StrokeWidth20FindLeaderPartitionsEPNS_8TO_BLOCKEPNS_16ColPartitionGridE
gs:_ZN9tesseract11StrokeWidth20MarkLeaderNeighboursEPKNS_12ColPartitionENS_11LeftOrRightE
gs:_ZN9tesseract11StrokeWidth20OrientationSearchBoxEPNS_12ColPartitionEPNS_4TBOXE
gs:_ZN9tesseract11StrokeWidth20SmoothNeighbourTypesENS_11PageSegModeEbPNS_8BLOBNBOXE
gs:_ZN9tesseract11StrokeWidth21FindInitialPartitionsENS_11PageSegModeERKNS_6FCOORDEbPNS_8TO_BLOCKEPNS_13BLOBNBOX_LISTEPNS_16ColPartitionGridEPNS_17ColPartition_LISTEPS2_
gs:_ZN9tesseract11StrokeWidth22FindVerticalTextChainsEPNS_16ColPartitionGridE
gs:_ZN9tesseract11StrokeWidth22RemoveLargeUnusedBlobsEPNS_8TO_BLOCKEPNS_16ColPartitionGridEPNS_17ColPartition_LISTE
gs:_ZN9tesseract11StrokeWidth23FindLeadersAndMarkNoiseEPNS_8TO_BLOCKEPNS_17ColPartition_LISTE
gs:_ZN9tesseract11StrokeWidth23PartitionRemainingBlobsENS_11PageSegModeEPNS_16ColPartitionGridE
gs:_ZN9tesseract11StrokeWidth24FindHorizontalTextChainsEPNS_16ColPartitionGridE
gs:_ZN9tesseract11StrokeWidth24GradeBlobsIntoPartitionsENS_11PageSegModeERKNS_6FCOORDEPNS_8TO_BLOCKEP3PixPKNS_6DENORMEbPNS_18TextlineProjectionEPNS_13BLOBNBOX_LISTEPNS_16ColPartitionGridEPNS_17ColPartition_LISTE
gs:_ZN9tesseract11StrokeWidth25FindTextlineFlowDirectionENS_11PageSegModeEb
gs:_ZN9tesseract11StrokeWidth25SimplifyObviousNeighboursEPNS_8BLOBNBOXE
gs:_ZN9tesseract11StrokeWidth25TestVerticalTextDirectionEdPNS_8TO_BLOCKEPNS_14BLOBNBOX_CLISTE
gs:_ZN9tesseract11StrokeWidth26MakePartitionsFromCellListENS_11PageSegModeEbPNS_16ColPartitionGridEPNS_14BLOBNBOX_CLISTE
gs:_ZN9tesseract11StrokeWidth26SetNeighboursOnMediumBlobsEPNS_8TO_BLOCKE
gs:_ZN9tesseract11StrokeWidth36FindTextlineDirectionAndFixBrokenCJKENS_11PageSegModeEbPNS_8TO_BLOCKE
gs:_ZN9tesseract11StrokeWidthC1EiRKNS_6ICOORDES3_
gs:_ZN9tesseract11StrokeWidthC2EiRKNS_6ICOORDES3_
gs:_ZN9tesseract11StrokeWidthD0Ev
gs:_ZN9tesseract11StrokeWidthD1Ev
gs:_ZN9tesseract11StrokeWidthD2Ev
gs:_ZN9tesseract11TO_ROW_LIST9deep_copyEPKS0_PFPNS_6TO_ROWEPKS3_E
gs:_ZN9tesseract11TableFinder12GrowTableBoxERKNS_4TBOXEPS1_
gs:_ZN9tesseract11TableFinder12LocateTablesEPNS_16ColPartitionGridEPPNS_15ColPartitionSetESt8functionIFbiEERKNS_6FCOORDE
gs:_ZN9tesseract11TableFinder13FindNeighborsEv
gs:_ZN9tesseract11TableFinder14SetColumnsTypeEPNS_15ColSegment_LISTE
gs:_ZN9tesseract11TableFinder15GetColumnBlocksEPPNS_15ColPartitionSetEPNS_15ColSegment_LISTE
gs:_ZN9tesseract11TableFinder15GetTableColumnsEPNS_15ColSegment_LISTE
gs:_ZN9tesseract11TableFinder15GetTableRegionsEPNS_15ColSegment_LISTES2_
gs:_ZN9tesseract11TableFinder15MakeTableBlocksEPNS_16ColPartitionGridEPPNS_15ColPartitionSetESt8functionIFbiEE
gs:_ZN9tesseract11TableFinder15RecognizeTablesEv
gs:_ZN9tesseract11TableFinder16BelongToOneTableERKNS_4TBOXES3_
gs:_ZN9tesseract11TableFinder16ConsecutiveBoxesERKNS_4TBOXES3_
gs:_ZN9tesseract11TableFinder16GapInXProjectionEPii
gs:_ZN9tesseract11TableFinder17FilterFalseAlarmsEv
gs:_ZN9tesseract11TableFinder17GroupColumnBlocksEPNS_15ColSegment_LISTES2_
gs:_ZN9tesseract11TableFinder17HasLeaderAdjacentERKNS_12ColPartitionE
gs:_ZN9tesseract11TableFinder17SetGlobalSpacingsEPNS_16ColPartitionGridE
gs:_ZN9tesseract11TableFinder18SetVerticalSpacingEPNS_12ColPartitionE
gs:_ZN9tesseract11TableFinder19HLineBelongsToTableERKNS_12ColPartitionERKNS_4TBOXE
gs:_ZN9tesseract11TableFinder19InsertTextPartitionEPNS_12ColPartitionE
gs:_ZN9tesseract11TableFinder19MarkTablePartitionsEv
gs:_ZN9tesseract11TableFinder20InitializePartitionsEPPNS_15ColPartitionSetE
gs:_ZN9tesseract11TableFinder20InsertImagePartitionEPNS_12ColPartitionE
gs:_ZN9tesseract11TableFinder20SetPartitionSpacingsEPNS_16ColPartitionGridEPPNS_15ColPartitionSetE
gs:_ZN9tesseract11TableFinder21AdjustTableBoundariesEv
gs:_ZN9tesseract11TableFinder21FilterHeaderAndFooterEv
gs:_ZN9tesseract11TableFinder21GridMergeColumnBlocksEv
gs:_ZN9tesseract11TableFinder21GridMergeTableRegionsEv
gs:_ZN9tesseract11TableFinder21InsertCleanPartitionsEPNS_16ColPartitionGridEPNS_8TO_BLOCKE
gs:_ZN9tesseract11TableFinder21InsertLeaderPartitionEPNS_12ColPartitionE
gs:_ZN9tesseract11TableFinder21InsertRulingPartitionEPNS_12ColPartitionE
gs:_ZN9tesseract11TableFinder21MoveColSegmentsToGridEPNS_15ColSegment_LISTEPNS_6BBGridINS_10ColSegmentENS_16ColSegment_CLISTENS_15ColSegment_C_ITEEE
gs:_ZN9tesseract11TableFinder22FilterParagraphEndingsEv
gs:_ZN9tesseract11TableFinder23GrowTableToIncludeLinesERKNS_4TBOXES3_PS1_
gs:_ZN9tesseract11TableFinder24DeleteSingleColumnTablesEv
gs:_ZN9tesseract11TableFinder24SmoothTablePartitionRunsEv
gs:_ZN9tesseract11TableFinder25set_global_median_leddingEi
gs:_ZN9tesseract11TableFinder25set_global_median_xheightEi
gs:_ZN9tesseract11TableFinder26GrowTableToIncludePartialsERKNS_4TBOXES3_PS1_
gs:_ZN9tesseract11TableFinder26set_left_to_right_languageEb
gs:_ZN9tesseract11TableFinder27IncludeLeftOutColumnHeadersEPNS_4TBOXE
gs:_ZN9tesseract11TableFinder28set_global_median_blob_widthEi
gs:_ZN9tesseract11TableFinder29InsertFragmentedTextPartitionEPNS_12ColPartitionE
gs:_ZN9tesseract11TableFinder35MarkPartitionsUsingLocalInformationEv
gs:_ZN9tesseract11TableFinder37SplitAndInsertFragmentedTextPartitionEPNS_12ColPartitionE
gs:_ZN9tesseract11TableFinder4InitEiRKNS_6ICOORDES3_
gs:_ZN9tesseract11TableFinderC1Ev
gs:_ZN9tesseract11TableFinderC2Ev
gs:_ZN9tesseract11TableFinderD1Ev
gs:_ZN9tesseract11TableFinderD2Ev
gs:_ZN9tesseract11TessBaseAPI10GetBoxTextEi
gs:_ZN9tesseract11TessBaseAPI10GetOsdTextEi
gs:_ZN9tesseract11TessBaseAPI10GetRegionsEPP4Pixa
gs:_ZN9tesseract11TessBaseAPI10GetTSVTextEi
gs:_ZN9tesseract11TessBaseAPI10GetUnicharEi
gs:_ZN9tesseract11TessBaseAPI10TextLengthEPi
gs:_ZN9tesseract11TessBaseAPI11GetAltoTextEPNS_10ETEXT_DESCEi
gs:_ZN9tesseract11TessBaseAPI11GetAltoTextEi
gs:_ZN9tesseract11TessBaseAPI11GetDatapathEv
gs:_ZN9tesseract11TessBaseAPI11GetHOCRTextEPNS_10ETEXT_DESCEi
gs:_ZN9tesseract11TessBaseAPI11GetHOCRTextEi
gs:_ZN9tesseract11TessBaseAPI11GetIteratorEv
gs:_ZN9tesseract11TessBaseAPI11GetUNLVTextEv
gs:_ZN9tesseract11TessBaseAPI11GetUTF8TextEv
gs:_ZN9tesseract11TessBaseAPI11InitLangModEPKcS2_
gs:_ZN9tesseract11TessBaseAPI11IsValidWordEPKc
gs:_ZN9tesseract11TessBaseAPI11ProcessPageEP3PixiPKcS4_iPNS_18TessResultRendererE
gs:_ZN9tesseract11TessBaseAPI11SetDictFuncEMNS_4DictEKFiPvRKNS_10UNICHARSETEibE
gs:_ZN9tesseract11TessBaseAPI11SetVariableEPKcS2_
gs:_ZN9tesseract11TessBaseAPI12ClearResultsEv
gs:_ZN9tesseract11TessBaseAPI12GetInputNameEv
gs:_ZN9tesseract11TessBaseAPI12GetTextlinesEbiPP4PixaPPiS5_
gs:_ZN9tesseract11TessBaseAPI12MeanTextConfEv
gs:_ZN9tesseract11TessBaseAPI12ProcessPagesEPKcS2_iPNS_18TessResultRendererE
gs:_ZN9tesseract11TessBaseAPI12SetInputNameEPKc
gs:_ZN9tesseract11TessBaseAPI12SetRectangleEiiii
gs:_ZN9tesseract11TessBaseAPI13AnalyseLayoutEb
gs:_ZN9tesseract11TessBaseAPI13AnalyseLayoutEv
gs:_ZN9tesseract11TessBaseAPI13GetInputImageEv
gs:_ZN9tesseract11TessBaseAPI13SetInputImageEP3Pix
gs:_ZN9tesseract11TessBaseAPI13SetOutputNameEPKc
gs:_ZN9tesseract11TessBaseAPI13TesseractRectEPKhiiiiii
gs:_ZN9tesseract11TessBaseAPI14AdaptToWordStrENS_11PageSegModeEPKc
gs:_ZN9tesseract11TessBaseAPI14GetLSTMBoxTextEi
gs:_ZN9tesseract11TessBaseAPI14GetLTRIteratorEv
gs:_ZN9tesseract11TessBaseAPI14ReadConfigFileEPKc
gs:_ZN9tesseract11TessBaseAPI14SetPageSegModeENS_11PageSegModeE
gs:_ZN9tesseract11TessBaseAPI15getOpenCLDeviceEPPv
gs:_ZN9tesseract11TessBaseAPI16DetectParagraphsEb
gs:_ZN9tesseract11TessBaseAPI16GetTextDirectionEPiPf
gs:_ZN9tesseract11TessBaseAPI16InternalSetImageEv
gs:_ZN9tesseract11TessBaseAPI16IsValidCharacterEPKc
gs:_ZN9tesseract11TessBaseAPI16SetDebugVariableEPKcS2_
gs:_ZN9tesseract11TessBaseAPI17GetWordStrBoxTextEi
gs:_ZN9tesseract11TessBaseAPI18AllWordConfidencesEv
gs:_ZN9tesseract11TessBaseAPI18GetComponentImagesENS_17PageIteratorLevelEbbiPP4PixaPPiS6_
gs:_ZN9tesseract11TessBaseAPI18GetMutableIteratorEv
gs:_ZN9tesseract11TessBaseAPI18InitForAnalysePageEv
gs:_ZN9tesseract11TessBaseAPI19GetThresholdedImageEv
gs:_ZN9tesseract11TessBaseAPI19GetVariableAsStringEPKcPNSt7__cxx1112basic_stringIcSt11char_traitsIcESaIcEEE
gs:_ZN9tesseract11TessBaseAPI19ReadDebugConfigFileEPKc
gs:_ZN9tesseract11TessBaseAPI19SetSourceResolutionEi
gs:_ZN9tesseract11TessBaseAPI20ClearPersistentCacheEv
gs:_ZN9tesseract11TessBaseAPI20GetSourceYResolutionEv
gs:_ZN9tesseract11TessBaseAPI20ProcessPagesFileListEP8_IO_FILEPNSt7__cxx1112basic_stringIcSt11char_traitsIcESaIcEEEPKciPNS_18TessResultRendererEi
gs:_ZN9tesseract11TessBaseAPI20ProcessPagesInternalEPKcS2_iPNS_18TessResultRendererE
gs:_ZN9tesseract11TessBaseAPI22GetConnectedComponentsEPP4Pixa
gs:_ZN9tesseract11TessBaseAPI23ClearAdaptiveClassifierEv
gs:_ZN9tesseract11TessBaseAPI23DetectOrientationScriptEPiPfPPKcS2_
gs:_ZN9tesseract11TessBaseAPI24GetBlockTextOrientationsEPPiPPb
gs:_ZN9tesseract11TessBaseAPI25ProcessPagesMultipageTiffEPKhmPKcS4_iPNS_18TessResultRendererEi
gs:_ZN9tesseract11TessBaseAPI26set_min_orientation_marginEd
gs:_ZN9tesseract11TessBaseAPI27SetProbabilityInContextFuncEMNS_4DictEFdPKcS3_iS3_iE
gs:_ZN9tesseract11TessBaseAPI3EndEv
gs:_ZN9tesseract11TessBaseAPI4InitEPKcS2_NS_13OcrEngineModeEPPciPKSt6vectorINSt7__cxx1112basic_stringIcSt11char_traitsIcESaIcEEESaISC_EESG_b
gs:_ZN9tesseract11TessBaseAPI4InitEPKciS2_NS_13OcrEngineModeEPPciPKSt6vectorINSt7__cxx1112basic_stringIcSt11char_traitsIcESaIcEEESaISC_EESG_bPFbS2_PS6_IcSB_EE
gs:_ZN9tesseract11TessBaseAPI5ClearEv
gs:_ZN9tesseract11TessBaseAPI7VersionEv
gs:_ZN9tesseract11TessBaseAPI8DetectOSEPNS_9OSResultsE
gs:_ZN9tesseract11TessBaseAPI8GetWordsEPP4Pixa
gs:_ZN9tesseract11TessBaseAPI8SetImageEP3Pix
gs:_ZN9tesseract11TessBaseAPI8SetImageEPKhiiii
gs:_ZN9tesseract11TessBaseAPI9FindLinesEv
gs:_ZN9tesseract11TessBaseAPI9GetStripsEPP4PixaPPi
gs:_ZN9tesseract11TessBaseAPI9RecognizeEPNS_10ETEXT_DESCE
gs:_ZN9tesseract11TessBaseAPI9ThresholdEPP3Pix
gs:_ZN9tesseract11TessBaseAPIC1Ev
gs:_ZN9tesseract11TessBaseAPIC2Ev
gs:_ZN9tesseract11TessBaseAPID0Ev
gs:_ZN9tesseract11TessBaseAPID1Ev
gs:_ZN9tesseract11TessBaseAPID2Ev
gs:_ZN9tesseract11WERD_CHOICE10kBadRatingE
gs:_ZN9tesseract11WERD_CHOICE13permuter_nameEh
gs:_ZN9tesseract11WERD_CHOICE15set_blob_choiceEiiPKNS_11BLOB_CHOICEE
gs:_ZN9tesseract11WERD_CHOICE16ScriptPositionOfEbRKNS_10UNICHARSETERKNS_4TBOXEi
gs:_ZN9tesseract11WERD_CHOICE17append_unichar_idEiiff
gs:_ZN9tesseract11WERD_CHOICE18SetScriptPositionsEPKNS_9ScriptPosEi
gs:_ZN9tesseract11WERD_CHOICE18SetScriptPositionsEbPNS_5TWERDEi
gs:_ZN9tesseract11WERD_CHOICE18remove_unichar_idsEii
gs:_ZN9tesseract11WERD_CHOICE19UpdateStateForSplitEi
gs:_ZN9tesseract11WERD_CHOICE21SetAllScriptPositionsENS_9ScriptPosE
gs:_ZN9tesseract11WERD_CHOICE30reverse_and_mirror_unichar_idsEv
gs:_ZN9tesseract11WERD_CHOICE4initEPKcS2_ffh
gs:_ZN9tesseract11WERD_CHOICEC1EPKcRKNS_10UNICHARSETE
gs:_ZN9tesseract11WERD_CHOICEC2EPKcRKNS_10UNICHARSETE
gs:_ZN9tesseract11WERD_CHOICED1Ev
gs:_ZN9tesseract11WERD_CHOICED2Ev
gs:_ZN9tesseract11WERD_CHOICEaSERKS0_
gs:_ZN9tesseract11WERD_CHOICEpLERKS0_
gs:_ZN9tesseract11WERD_zapperEPNS_11ELIST2_LINKE
gs:_ZN9tesseract11WordFeature11ComputeSizeERKNS_13GenericVectorIS0_EEPiS5_
gs:_ZN9tesseract11WordFeature11DeSerializeEbP8_IO_FILE
gs:_ZN9tesseract11WordFeature4DrawERKNS_13GenericVectorIS0_EEPNS_10ScrollViewE
gs:_ZN9tesseract11WordFeatureC1ERKNS_6FCOORDEh
gs:_ZN9tesseract11WordFeatureC1Ev
gs:_ZN9tesseract11WordFeatureC2ERKNS_6FCOORDEh
gs:_ZN9tesseract11WordFeatureC2Ev
gs:_ZN9tesseract11blob_windowE
gs:_ZN9tesseract11block_edgesEP3PixPNS_5PDBLKEPNS_12C_OUTLINE_ITE
gs:_ZN9tesseract11expand_rowsENS_6ICOORDEPNS_8TO_BLOCKEfNS_6FCOORDEib
gs:_ZN9tesseract11kCrownRightE
gs:_ZN9tesseract11make_edgeptEiiPNS_6EDGEPTES1_
gs:_ZN9tesseract11row_y_orderEPKvS1_
gs:_ZN9tesseract12AddIntConfigEPNS_16INT_CLASS_STRUCTE
gs:_ZN9tesseract12BLOCK_zapperEPNS_10ELIST_LINKE
gs:_ZN9tesseract12BlamerBundle10JoinBlamesERKS0_S2_b
gs:_ZN9tesseract12BlamerBundle12SetWordTruthERKNS_10UNICHARSETEPKcRKNS_4TBOXE
gs:_ZN9tesseract12BlamerBundle14SetSymbolTruthERKNS_10UNICHARSETEPKcRKNS_4TBOXE
gs:_ZN9tesseract12BlamerBundle15BlameClassifierERKNS_10UNICHARSETERKNS_4TBOXERKNS_16BLOB_CHOICE_LISTEb
gs:_ZN9tesseract12BlamerBundle15FillDebugStringERKNS_6STRINGEPKNS_11WERD_CHOICEEPS1_
gs:_ZN9tesseract12BlamerBundle15FinishSegSearchEPKNS_11WERD_CHOICEEbPNS_6STRINGE
gs:_ZN9tesseract12BlamerBundle15LastChanceBlameEbPNS_8WERD_RESE
gs:_ZN9tesseract12BlamerBundle15SetChopperBlameEPKNS_8WERD_RESEb
gs:_ZN9tesseract12BlamerBundle16InitForSegSearchEPKNS_11WERD_CHOICEEPNS_6MATRIXEibPNS_6STRINGEPNS_12LMPainPointsEdPNS_8WERD_RESE
gs:_ZN9tesseract12BlamerBundle16SetRejectedTruthEv
gs:_ZN9tesseract12BlamerBundle18SetupNormTruthWordERKNS_6DENORME
gs:_ZN9tesseract12BlamerBundle19IncorrectReasonNameENS_21IncorrectResultReasonE
gs:_ZN9tesseract12BlamerBundle19SetMisAdaptionDebugEPKNS_11WERD_CHOICEEb
gs:_ZN9tesseract12BlamerBundle24SetupCorrectSegmentationEPKNS_5TWERDEb
gs:_ZN9tesseract12BlamerBundle26BlameClassifierOrLangModelEPKNS_8WERD_RESERKNS_10UNICHARSETEbb
gs:_ZN9tesseract12CharNormDescE
gs:_ZN9tesseract12ColPartition10AddPartnerEbPS0_
gs:_ZN9tesseract12ColPartition10BiggestBoxEv
gs:_ZN9tesseract12ColPartition10ClaimBoxesEv
gs:_ZN9tesseract12ColPartition10SetLeftTabEPKNS_9TabVectorE
gs:_ZN9tesseract12ColPartition11ColumnRangeEiPNS_15ColPartitionSetEPiS3_
gs:_ZN9tesseract12ColPartition11CopyLeftTabERKS0_b
gs:_ZN9tesseract12ColPartition11DeleteBoxesEv
gs:_ZN9tesseract12ColPartition11DisownBoxesEv
gs:_ZN9tesseract12ColPartition11LeftEdgeRunEPNS_15ColPartition_ITEPNS_6ICOORDES4_
gs:_ZN9tesseract12ColPartition11PrintColorsEv
gs:_ZN9tesseract12ColPartition11SetRightTabEPKNS_9TabVectorE
gs:_ZN9tesseract12ColPartition11SplitAtBlobEPNS_8BLOBNBOXE
gs:_ZN9tesseract12ColPartition12CopyRightTabERKS0_b
gs:_ZN9tesseract12ColPartition12RightEdgeRunEPNS_15ColPartition_ITEPNS_6ICOORDES4_
gs:_ZN9tesseract12ColPartition12SetBlobTypesEv
gs:_ZN9tesseract12ColPartition13ComputeLimitsEv
gs:_ZN9tesseract12ColPartition13FakePartitionERKNS_4TBOXENS_13PolyBlockTypeENS_14BlobRegionTypeENS_16BlobTextFlowTypeE
gs:_ZN9tesseract12ColPartition13OKSpacingBlipEiiPPS0_i
gs:_ZN9tesseract12ColPartition13RemovePartnerEbPS0_
gs:_ZN9tesseract12ColPartition14OKMergeOverlapERKS0_S2_ib
gs:_ZN9tesseract12ColPartition14RefinePartnersENS_13PolyBlockTypeEbPNS_16ColPartitionGridE
gs:_ZN9tesseract12ColPartition14ReflectInYAxisEv
gs:_ZN9tesseract12ColPartition14SmoothSpacingsEiiPNS_17ColPartition_LISTE
gs:_ZN9tesseract12ColPartition15AddToWorkingSetERKNS_6ICOORDES3_iPNS_17ColPartition_LISTEPNS_19WorkingPartSet_LISTE
gs:_ZN9tesseract12ColPartition15HasGoodBaselineEv
gs:_ZN9tesseract12ColPartition16BoundsWithoutBoxEPNS_8BLOBNBOXE
gs:_ZN9tesseract12ColPartition16MakeBigPartitionEPNS_8BLOBNBOXEPNS_17ColPartition_LISTE
gs:_ZN9tesseract12ColPartition16OverlapSplitBlobERKNS_4TBOXE
gs:_ZN9tesseract12ColPartition16SetPartitionTypeEiPNS_15ColPartitionSetE
gs:_ZN9tesseract12ColPartition16SingletonPartnerEb
gs:_ZN9tesseract12ColPartition16SmoothPartnerRunEi
gs:_ZN9tesseract12ColPartition17LineSpacingBlocksERKNS_6ICOORDES3_iPNS_17ColPartition_LISTES5_PNS_10BLOCK_LISTEPNS_13TO_BLOCK_LISTE
gs:_ZN9tesseract12ColPartition17MakeLinePartitionENS_14BlobRegionTypeERKNS_6ICOORDEiiii
gs:_ZN9tesseract12ColPartition17SetColumnGoodnessESt8functionIFbiEE
gs:_ZN9tesseract12ColPartition17SpecialBlobsCountENS_19BlobSpecialTextTypeE
gs:_ZN9tesseract12ColPartition19CopyButDontOwnBlobsEv
gs:_ZN9tesseract12ColPartition19DisownBoxesNoAssertEv
gs:_ZN9tesseract12ColPartition19ThisPartitionBetterEPNS_8BLOBNBOXERKS0_
gs:_ZN9tesseract12ColPartition20RefinePartnersByTypeEbPNS_18ColPartition_CLISTE
gs:_ZN9tesseract12ColPartition21CountOverlappingBoxesERKNS_4TBOXE
gs:_ZN9tesseract12ColPartition21MakeVerticalTextBlockERKNS_6ICOORDES3_PNS_17ColPartition_LISTES5_
gs:_ZN9tesseract12ColPartition21ReleaseNonLeaderBoxesEv
gs:_ZN9tesseract12ColPartition22RefinePartnerShortcutsEbPNS_18ColPartition_CLISTE
gs:_ZN9tesseract12ColPartition22RefinePartnersInternalEbbPNS_16ColPartitionGridE
gs:_ZN9tesseract12ColPartition22SetSpecialBlobsDensityENS_19BlobSpecialTextTypeEf
gs:_ZN9tesseract12ColPartition23RefinePartnersByOverlapEbPNS_18ColPartition_CLISTE
gs:_ZN9tesseract12ColPartition24MarkAsLeaderIfMonospacedEv
gs:_ZN9tesseract12ColPartition25RefineTextPartnersByMergeEbbPNS_18ColPartition_CLISTEPNS_16ColPartitionGridE
gs:_ZN9tesseract12ColPartition26ComputeSpecialBlobsDensityEv
gs:_ZN9tesseract12ColPartition40SetRegionAndFlowTypesFromProjectionValueEi
gs:_ZN9tesseract12ColPartition6AbsorbEPS0_St8functionIFbiEE
gs:_ZN9tesseract12ColPartition6AddBoxEPNS_8BLOBNBOXE
gs:_ZN9tesseract12ColPartition7IsLegalEv
gs:_ZN9tesseract12ColPartition7SplitAtEi
gs:_ZN9tesseract12ColPartition9MakeBlockERKNS_6ICOORDES3_PNS_17ColPartition_LISTES5_
gs:_ZN9tesseract12ColPartition9MakeToRowEv
gs:_ZN9tesseract12ColPartition9RemoveBoxEPNS_8BLOBNBOXE
gs:_ZN9tesseract12ColPartitionC1ENS_14BlobRegionTypeERKNS_6ICOORDE
gs:_ZN9tesseract12ColPartitionC2ENS_14BlobRegionTypeERKNS_6ICOORDE
gs:_ZN9tesseract12ColPartitionD1Ev
gs:_ZN9tesseract12ColPartitionD2Ev
gs:_ZN9tesseract12ColumnFinder10FindBlocksENS_11PageSegModeEP3PixiPNS_8TO_BLOCKES3_S3_S3_PNS_9DebugPixaEPNS_10BLOCK_LISTEPNS_13BLOBNBOX_LISTEPNS_13TO_BLOCK_LISTE
gs:_ZN9tesseract12ColumnFinder11MakeColumnsEb
gs:_ZN9tesseract12ColumnFinder13AssignColumnsERKNS_13GenericVectorIPNS_15ColPartitionSetEEE
gs:_ZN9tesseract12ColumnFinder13ReflectForRtlEPNS_8TO_BLOCKEPNS_13BLOBNBOX_LISTE
gs:_ZN9tesseract12ColumnFinder16GetDeskewVectorsEPNS_6FCOORDES2_
gs:_ZN9tesseract12ColumnFinder17AddToTempPartListEPNS_12ColPartitionEPNS_18ColPartition_CLISTE
gs:_ZN9tesseract12ColumnFinder17EmptyTempPartListEPNS_18ColPartition_CLISTEPNS_19WorkingPartSet_LISTE
gs:_ZN9tesseract12ColumnFinder17SetEquationDetectEPNS_18EquationDetectBaseE
gs:_ZN9tesseract12ColumnFinder17SetPartitionTypesEv
gs:_ZN9tesseract12ColumnFinder17SmoothPartnerRunsEv
gs:_ZN9tesseract12ColumnFinder17TransformToBlocksEPNS_10BLOCK_LISTEPNS_13TO_BLOCK_LISTE
gs:_ZN9tesseract12ColumnFinder18CorrectOrientationEPNS_8TO_BLOCKEbi
gs:_ZN9tesseract12ColumnFinder19AssignColumnToRangeEiiiPPiS1_
gs:_ZN9tesseract12ColumnFinder19GridMergePartitionsEv
gs:_ZN9tesseract12ColumnFinder19GridSplitPartitionsEv
gs:_ZN9tesseract12ColumnFinder19RangeModalColumnSetEPPiPKiii
gs:_ZN9tesseract12ColumnFinder19SetupAndFilterNoiseENS_11PageSegModeEP3PixPNS_8TO_BLOCKE
gs:_ZN9tesseract12ColumnFinder20ComputeMeanColumnGapEb
gs:_ZN9tesseract12ColumnFinder20InsertRemainingNoiseEPNS_8TO_BLOCKE
gs:_ZN9tesseract12ColumnFinder21PrintColumnCandidatesEPKc
gs:_ZN9tesseract12ColumnFinder21RotateAndReskewBlocksEbPNS_13TO_BLOCK_LISTE
gs:_ZN9tesseract12ColumnFinder22BiggestUnassignedRangeEiPKbPiS3_
gs:_ZN9tesseract12ColumnFinder23ImproveColumnCandidatesEPNS_13GenericVectorIPNS_15ColPartitionSetEEES5_
gs:_ZN9tesseract12ColumnFinder23IsVerticallyAlignedTextEdPNS_8TO_BLOCKEPNS_14BLOBNBOX_CLISTE
gs:_ZN9tesseract12ColumnFinder23ShrinkRangeToLongestRunEPPiPKiPKbiS1_S1_
gs:_ZN9tesseract12ColumnFinder24ExtendRangePastSmallGapsEPPiPKiPKbiiiS1_
gs:_ZN9tesseract12ColumnFinder25GridInsertHLinePartitionsEv
gs:_ZN9tesseract12ColumnFinder25GridInsertVLinePartitionsEv
gs:_ZN9tesseract12ColumnFinder28ReleaseBlobsAndCleanupUnusedEPNS_8TO_BLOCKE
gs:_ZN9tesseract12ColumnFinder29GridRemoveUnderlinePartitionsEv
gs:_ZN9tesseract12ColumnFinder31ComputeBlockAndClassifyRotationEPNS_5BLOCKE
gs:_ZN9tesseract12ColumnFinderC1EiRKNS_6ICOORDES3_ibdPNS_14TabVector_LISTES5_ii
gs:_ZN9tesseract12ColumnFinderC2EiRKNS_6ICOORDES3_ibdPNS_14TabVector_LISTES5_ii
gs:_ZN9tesseract12ColumnFinderD0Ev
gs:_ZN9tesseract12ColumnFinderD1Ev
gs:_ZN9tesseract12ColumnFinderD2Ev
gs:_ZN9tesseract12DocumentData11SetDocumentEPKclPFbS2_PSt6vectorIcSaIcEEE
gs:_ZN9tesseract12DocumentData12LoadDocumentEPKcilPFbS2_PSt6vectorIcSaIcEEE
gs:_ZN9tesseract12DocumentData12ReCachePagesEv
gs:_ZN9tesseract12DocumentData12SaveDocumentEPKcPFbRKSt6vectorIcSaIcEES2_E
gs:_ZN9tesseract12DocumentData15IsPageAvailableEiPPNS_9ImageDataE
gs:_ZN9tesseract12DocumentData17AddPageToDocumentEPNS_9ImageDataE
gs:_ZN9tesseract12DocumentData20LoadPageInBackgroundEi
gs:_ZN9tesseract12DocumentData7GetPageEi
gs:_ZN9tesseract12DocumentData7ShuffleEv
gs:_ZN9tesseract12DocumentData7UnCacheEv
gs:_ZN9tesseract12DocumentDataC1ERKNS_6STRINGE
gs:_ZN9tesseract12DocumentDataC2ERKNS_6STRINGE
gs:_ZN9tesseract12DocumentDataD1Ev
gs:_ZN9tesseract12DocumentDataD2Ev
gs:_ZN9tesseract12FPSEGPT_LIST9deep_copyEPKS0_PFPNS_7FPSEGPTEPKS3_E
gs:_ZN9tesseract12FreeOutlinesEPNS_8list_recE
gs:_ZN9tesseract12GlobalParamsEv
gs:_ZN9tesseract12IndexMapBiDi11DeSerializeEbP8_IO_FILE
gs:_ZN9tesseract12IndexMapBiDi14CompleteMergesEv
gs:_ZN9tesseract12IndexMapBiDi17InitAndSetupRangeEiii
gs:_ZN9tesseract12IndexMapBiDi4InitEib
gs:_ZN9tesseract12IndexMapBiDi5MergeEii
gs:_ZN9tesseract12IndexMapBiDi5SetupEv
gs:_ZN9tesseract12IndexMapBiDi6SetMapEib
gs:_ZN9tesseract12IndexMapBiDi8CopyFromERKS0_
gs:_ZN9tesseract12IndexMapBiDiD0Ev
gs:_ZN9tesseract12IndexMapBiDiD1Ev
gs:_ZN9tesseract12IndexMapBiDiD2Ev
gs:_ZN9tesseract12KDTreeSearch19BoxIntersectsSearchEPfS1_
gs:_ZN9tesseract12KDTreeSearch6SearchEPiPfPPv
gs:_ZN9tesseract12KDTreeSearch9SearchRecEiPNS_6KDNODEE
gs:_ZN9tesseract12KDTreeSearchC1EPNS_6KDTREEEPfi
gs:_ZN9tesseract12KDTreeSearchC2EPNS_6KDTREEEPfi
gs:_ZN9tesseract12KDTreeSearchD1Ev
gs:_ZN9tesseract12KDTreeSearchD2Ev
gs:_ZN9tesseract12LMPainPoints13RemapForSplitEi
gs:_ZN9tesseract12LMPainPoints15GenerateInitialEPNS_8WERD_RESE
gs:_ZN9tesseract12LMPainPoints16GenerateFromPathEfPNS_17ViterbiStateEntryEPNS_8WERD_RESE
gs:_ZN9tesseract12LMPainPoints17GeneratePainPointEiiNS_16LMPainPointsTypeEfbfPNS_8WERD_RESE
gs:_ZN9tesseract12LMPainPoints18GenerateFromAmbigsERKNS_13GenericVectorINS_12DANGERR_INFOEEEPNS_17ViterbiStateEntryEPNS_8WERD_RESE
gs:_ZN9tesseract12LMPainPoints20kLooseMaxCharWhRatioE
gs:_ZN9tesseract12LMPainPoints35kDefaultPainPointPriorityAdjustmentE
gs:_ZN9tesseract12LMPainPoints5DequeEPNS_12MATRIX_COORDEPf
gs:_ZN9tesseract12NewEdgePointEv
gs:_ZN9tesseract12NewTempProtoEv
gs:_ZN9tesseract12PageIterator10RestartRowEv
gs:_ZN9tesseract12PageIterator16RestartParagraphEv
gs:_ZN9tesseract12PageIterator19SetWordBlamerBundleEPNS_12BlamerBundleE
gs:_ZN9tesseract12PageIterator4NextENS_17PageIteratorLevelE
gs:_ZN9tesseract12PageIterator5BeginEv
gs:_ZN9tesseract12PageIterator9BeginWordEi
gs:_ZN9tesseract12PageIteratorC1EPNS_8PAGE_RESEPNS_9TesseractEiiiiii
gs:_ZN9tesseract12PageIteratorC1ERKS0_
gs:_ZN9tesseract12PageIteratorC2EPNS_8PAGE_RESEPNS_9TesseractEiiiiii
gs:_ZN9tesseract12PageIteratorC2ERKS0_
gs:_ZN9tesseract12PageIteratorD0Ev
gs:_ZN9tesseract12PageIteratorD1Ev
gs:_ZN9tesseract12PageIteratorD2Ev
gs:_ZN9tesseract12PageIteratoraSERKS0_
gs:_ZN9tesseract12PicoFeatDescE
gs:_ZN9tesseract12ROW_RES_LIST9deep_copyEPKS0_PFPNS_7ROW_RESEPKS3_E
gs:_ZN9tesseract12ReadAllBoxesEibPKcPSt6vectorINS_4TBOXESaIS3_EEPS2_INS_6STRINGESaIS7_EESA_PS2_IiSaIiEE
gs:_ZN9tesseract12ReadMemBoxesEibPKcbPSt6vectorINS_4TBOXESaIS3_EEPS2_INS_6STRINGESaIS7_EESA_PS2_IiSaIiEE
gs:_ZN9tesseract12RowsFitModelEPKNS_13GenericVectorINS_19RowScratchRegistersEEEiiPKNS_14ParagraphModelE
gs:_ZN9tesseract12SquishedDawg18read_squished_dawgEPNS_5TFileE
gs:_ZN9tesseract12SquishedDawg19write_squished_dawgEPNS_5TFileE
gs:_ZN9tesseract12SquishedDawgD0Ev
gs:_ZN9tesseract12SquishedDawgD1Ev
gs:_ZN9tesseract12SquishedDawgD2Ev
gs:_ZN9tesseract12WeightMatrix11DeSerializeEbPNS_5TFileE
gs:_ZN9tesseract12WeightMatrix12ConvertToIntEv
gs:_ZN9tesseract12WeightMatrix12InitBackwardEv
gs:_ZN9tesseract12WeightMatrix12RemapOutputsERKSt6vectorIiSaIiEE
gs:_ZN9tesseract12WeightMatrix13FloatToDoubleERKNS_16GENERIC_2D_ARRAYIfEEPNS1_IdEE
gs:_ZN9tesseract12WeightMatrix14DeSerializeOldEbPNS_5TFileE
gs:_ZN9tesseract12WeightMatrix16InitWeightsFloatEiibfPNS_5TRandE
gs:_ZN9tesseract12WeightMatrix18MultiplyAccumulateEPKdPd
gs:_ZN9tesseract12WeightMatrix18SumOuterTransposedERKNS_15TransposedArrayES3_b
gs:_ZN9tesseract12WeightMatrix6UpdateEdddi
gs:_ZN9tesseract12WeightMatrix7Debug2DEPKc
gs:_ZN9tesseract12WeightMatrix9AddDeltasERKS0_
gs:_ZN9tesseract12blob_x_orderEPKvS1_
gs:_ZN9tesseract12divide_blobsEPNS_5TBLOBES1_bRKNS_6TPOINTE
gs:_ZN9tesseract12fill_bucketsEPNS_14C_OUTLINE_LISTEPNS_10OL_BUCKETSE
gs:_ZN9tesseract12fill_heightsEPNS_6TO_ROWEfiiPNS_5STATSES3_
gs:_ZN9tesseract12fit_lms_lineEPNS_6TO_ROWE
gs:_ZN9tesseract12fixspace_dbgEPNS_8WERD_RESE
gs:_ZN9tesseract12gapmap_debugE
gs:_ZN9tesseract12swap_entriesEPvmii
gs:_ZN9tesseract13BLOBNBOX_LIST9deep_copyEPKS0_PFPNS_8BLOBNBOXEPKS3_E
gs:_ZN9tesseract13BLOCK_LINE_IT8get_lineEsRs
gs:_ZN9tesseract13BLOCK_RECT_IT11start_blockEv
gs:_ZN9tesseract13BLOCK_RECT_IT12set_to_blockEPNS_5PDBLKE
gs:_ZN9tesseract13BLOCK_RECT_IT7forwardEv
gs:_ZN9tesseract13BLOCK_RECT_ITC1EPNS_5PDBLKE
gs:_ZN9tesseract13BLOCK_RECT_ITC2EPNS_5PDBLKE
gs:_ZN9tesseract13BaselineBlock13DrawPixSplineEP3Pix
gs:_ZN9tesseract13BaselineBlock17RefineLineSpacingERKNS_13GenericVectorIdEE
gs:_ZN9tesseract13BaselineBlock17SpacingModelErrorEddd
gs:_ZN9tesseract13BaselineBlock18ComputeLineSpacingEv
gs:_ZN9tesseract13BaselineBlock18FitBaselineSplinesEbbPNS_7TextordE
gs:_ZN9tesseract13BaselineBlock19EstimateLineSpacingEv
gs:_ZN9tesseract13BaselineBlock19FitLineSpacingModelERKNS_13GenericVectorIdEEdPdS5_Pi
gs:_ZN9tesseract13BaselineBlock20ParallelizeBaselinesEd
gs:_ZN9tesseract13BaselineBlock23FitBaselinesAndFindSkewEb
gs:_ZN9tesseract13BaselineBlock23PrepareForSplineFittingENS_6ICOORDEb
gs:_ZN9tesseract13BaselineBlock24ComputeBaselinePositionsERKNS_6FCOORDEPNS_13GenericVectorIdEE
gs:_ZN9tesseract13BaselineBlockC1EibPNS_8TO_BLOCKE
gs:_ZN9tesseract13BaselineBlockC2EibPNS_8TO_BLOCKE
gs:_ZN9tesseract13CHAR_FRAGMENT17parse_from_stringEPKc
gs:_ZN9tesseract13CHAR_FRAGMENT9to_stringEPKciib
gs:_ZN9tesseract13C_BLOB_zapperEPNS_10ELIST_LINKE
gs:_ZN9tesseract13CircBucketForEffi
gs:_ZN9tesseract13ConvertConfigEPjiPNS_16INT_CLASS_STRUCTE
gs:_ZN9tesseract13DocumentCache10AddToCacheEPNS_12DocumentDataE
gs:_ZN9tesseract13DocumentCache10TotalPagesEv
gs:_ZN9tesseract13DocumentCache13LoadDocumentsERKSt6vectorINS_6STRINGESaIS2_EENS_15CachingStrategyEPFbPKcPS1_IcSaIcEEE
gs:_ZN9tesseract13DocumentCache17GetPageRoundRobinEi
gs:_ZN9tesseract13DocumentCache17GetPageSequentialEi
gs:_ZN9tesseract13DocumentCache18CountNeighbourDocsEii
gs:_ZN9tesseract13DocumentCacheC1El
gs:_ZN9tesseract13DocumentCacheC2El
gs:_ZN9tesseract13DocumentCacheD1Ev
gs:_ZN9tesseract13DocumentCacheD2Ev
gs:_ZN9tesseract13DotProductAVXEPKdS1_i
gs:_ZN9tesseract13DotProductFMAEPKdS1_i
gs:_ZN9tesseract13DotProductSSEEPKdS1_i
gs:_ZN9tesseract13ExtractMicrosEPNS_5TBLOBERKNS_6DENORME
gs:_ZN9tesseract13FontInfoTable11DeSerializeEPNS_5TFileE
gs:_ZN9tesseract13FontInfoTable19MoveSpacingInfoFromEPS0_
gs:_ZN9tesseract13FontInfoTable6MoveToEPNS_12UnicityTableINS_8FontInfoEEE
gs:_ZN9tesseract13FontInfoTableC1Ev
gs:_ZN9tesseract13FontInfoTableC2Ev
gs:_ZN9tesseract13FontInfoTableD1Ev
gs:_ZN9tesseract13FontInfoTableD2Ev
gs:_ZN9tesseract13FreeClustererEPNS_9CLUSTERERE
gs:_ZN9tesseract13FreeMFOutlineEPv
gs:_ZN9tesseract13FreeProtoListEPPNS_8list_recE
gs:_ZN9tesseract13FreePrototypeEPv
gs:_ZN9tesseract13FreeTempProtoEPv
gs:_ZN9tesseract13FullPageBlockEiiPNS_10BLOCK_LISTE
gs:_ZN9tesseract13HistogramRectEP3PixiiiiiPi
gs:_ZN9tesseract13InitIntegerFXEv
gs:_ZN9tesseract13IntSimdMatrix13intSimdMatrixE
gs:_ZN9tesseract13IntSimdMatrix15MatrixDotVectorERKNS_16GENERIC_2D_ARRAYIaEERKSt6vectorIdSaIdEEPKaPd
gs:_ZN9tesseract13IntSimdMatrix16intSimdMatrixSSEE
gs:_ZN9tesseract13IntSimdMatrix17intSimdMatrixAVX2E
gs:_ZN9tesseract13LanguageModel11InitForWordEPKNS_11WERD_CHOICEEbff
gs:_ZN9tesseract13LanguageModel11UpdateStateEbiiPNS_16BLOB_CHOICE_LISTEPNS_18LanguageModelStateEPNS_12LMPainPointsEPNS_8WERD_RESEPNS_16BestChoiceBundleEPNS_12BlamerBundleE
gs:_ZN9tesseract13LanguageModel12ComputeDenomEPNS_16BLOB_CHOICE_LISTE
gs:_ZN9tesseract13LanguageModel13ConstructWordEPNS_17ViterbiStateEntryEPNS_8WERD_RESEPNS_13GenericVectorINS_12DANGERR_INFOEEEPNS_12BlamerBundleEPb
gs:_ZN9tesseract13LanguageModel16ComputeNgramCostEPKcffS2_PiPbPf
gs:_ZN9tesseract13LanguageModel16GenerateDawgInfoEbiiRKNS_11BLOB_CHOICEEPKNS_17ViterbiStateEntryE
gs:_ZN9tesseract13LanguageModel16UpdateBestChoiceEPNS_17ViterbiStateEntryEPNS_12LMPainPointsEPNS_8WERD_RESEPNS_16BestChoiceBundleEPNS_12BlamerBundleE
gs:_ZN9tesseract13LanguageModel16kMaxAvgNgramCostE
gs:_ZN9tesseract13LanguageModel17GenerateNgramInfoEPKcffiifPKNS_17ViterbiStateEntryE
gs:_ZN9tesseract13LanguageModel19FillConsistencyInfoEibPNS_11BLOB_CHOICEEPNS_17ViterbiStateEntryEPNS_8WERD_RESEPNS_17LMConsistencyInfoE
gs:_ZN9tesseract13LanguageModel20AddViterbiStateEntryEhfbiiPNS_11BLOB_CHOICEEPNS_18LanguageModelStateEPNS_17ViterbiStateEntryEPNS_12LMPainPointsEPNS_8WERD_RESEPNS_16BestChoiceBundleEPNS_12BlamerBundleE
gs:_ZN9tesseract13LanguageModel21GenerateTopChoiceInfoEPNS_17ViterbiStateEntryEPKS1_PNS_18LanguageModelStateE
gs:_ZN9tesseract13LanguageModel23ComputeAdjustedPathCostEPNS_17ViterbiStateEntryE
gs:_ZN9tesseract13LanguageModel23ExtractFeaturesFromPathERKNS_17ViterbiStateEntryEPf
gs:_ZN9tesseract13LanguageModelC1EPKNS_12UnicityTableINS_8FontInfoEEEPNS_4DictE
gs:_ZN9tesseract13LanguageModelC2EPKNS_12UnicityTableINS_8FontInfoEEEPNS_4DictE
gs:_ZN9tesseract13LanguageModelD1Ev
gs:_ZN9tesseract13LanguageModelD2Ev
gs:_ZN9tesseract13LogisticTableE
gs:_ZN9tesseract13MakeClustererEsPKNS_10PARAM_DESCE
gs:_ZN9tesseract13MergeClustersEsPNS_10PARAM_DESCEiiPfS2_S2_
gs:_ZN9tesseract13NewFeatureSetEi
gs:_ZN9tesseract13NewTempConfigEii
gs:_ZN9tesseract13NextExtremityEPNS_8list_recE
gs:_ZN9tesseract13OtsuThresholdEP3PixiiiiPPiS3_
gs:_ZN9tesseract13ReadParamDescEPNS_5TFileEt
gs:_ZN9tesseract13ReadPrototypeEPNS_5TFileEt
gs:_ZN9tesseract13SORTED_FLOATS3addEfi
gs:_ZN9tesseract13SORTED_FLOATS6removeEi
gs:_ZN9tesseract13SORTED_FLOATSixEi
gs:_ZN9tesseract13TO_BLOCK_LIST9deep_copyEPKS0_PFPNS_8TO_BLOCKEPKS3_E
gs:_ZN9tesseract13TO_ROW_zapperEPNS_11ELIST2_LINKE
gs:_ZN9tesseract13TabConstraint14GetConstraintsEPNS_18TabConstraint_LISTEPiS3_
gs:_ZN9tesseract13TabConstraint16ApplyConstraintsEPNS_18TabConstraint_LISTE
gs:_ZN9tesseract13TabConstraint16CreateConstraintEPNS_9TabVectorEb
gs:_ZN9tesseract13TabConstraint16MergeConstraintsEPNS_18TabConstraint_LISTES2_
gs:_ZN9tesseract13TabConstraint21CompatibleConstraintsEPNS_18TabConstraint_LISTES2_
gs:_ZN9tesseract13TabConstraintC1EPNS_9TabVectorEb
gs:_ZN9tesseract13TabConstraintC2EPNS_9TabVectorEb
gs:_ZN9tesseract13UnicharAmbigs13LoadUniversalERKNS_10UNICHARSETEPS1_
gs:_ZN9tesseract13UnicharAmbigs15InsertIntoTableERNS_13GenericVectorIPNS_14AmbigSpec_LISTEEEiPiiPKciPNS_9AmbigSpecEPNS_10UNICHARSETE
gs:_ZN9tesseract13UnicharAmbigs17InitUnicharAmbigsERKNS_10UNICHARSETEb
gs:_ZN9tesseract13UnicharAmbigs17LoadUnicharAmbigsERKNS_10UNICHARSETEPNS_5TFileEibPS1_
gs:_ZN9tesseract13UnicharAmbigs18ParseAmbiguityLineEiiiRKNS_10UNICHARSETEPcPiS5_S5_S4_S5_
gs:_ZN9tesseract13UnicharRating22FirstResultWithUnicharERKNS_13GenericVectorIS0_EEi
gs:_ZN9tesseract13ValidBodyLineEPKNS_13GenericVectorINS_19RowScratchRegistersEEEiPKNS_14ParagraphModelE
gs:_ZN9tesseract13WERD_RES_LIST9deep_copyEPKS0_PFPNS_8WERD_RESEPKS3_E
gs:_ZN9tesseract13complete_edgeEPNS_9CRACKEDGEEPNS_12C_OUTLINE_ITE
gs:_ZN9tesseract13crotate_cblobEPNS_6C_BLOBENS_6FCOORDE
gs:_ZN9tesseract13destroy_nodesEPNS_8list_recEPFvPvE
gs:_ZN9tesseract13empty_bucketsEPNS_5BLOCKEPNS_10OL_BUCKETSE
gs:_ZN9tesseract13extract_edgesEP3PixPNS_5BLOCKE
gs:_ZN9tesseract13fix_row_pitchEPNS_6TO_ROWEPNS_8TO_BLOCKEPNS_13TO_BLOCK_LISTEii
gs:_ZN9tesseract13pick_x_heightEPNS_6TO_ROWEPiS2_S2_PNS_5STATSEi
gs:_ZN9tesseract13reject_blanksEPNS_8WERD_RESE
gs:_ZN9tesseract13remove_edgeptEPNS_6EDGEPTE
gs:_ZN9tesseract13split_to_blobEPNS_8BLOBNBOXEsfPNS_14C_OUTLINE_LISTES3_
gs:_ZN9tesseract13textord_minxhE
gs:_ZN9tesseract13try_doc_fixedENS_6ICOORDEPNS_13TO_BLOCK_LISTEf
gs:_ZN9tesseract14AmbigSpec_LIST9deep_copyEPKS0_PFPNS_9AmbigSpecEPKS3_E
gs:_ZN9tesseract14AssociateUtils12ComputeStatsEiiPKNS_14AssociateStatsEibfPNS_8WERD_RESEbPS1_
gs:_ZN9tesseract14AssociateUtils19FixedPitchWidthCostEffbf
gs:_ZN9tesseract14AssociateUtils29kMaxFixedPitchCharAspectRatioE
gs:_ZN9tesseract14AssociateUtils7kMinGapE
gs:_ZN9tesseract14BLOCK_RES_LIST9deep_copyEPKS0_PFPNS_9BLOCK_RESEPKS3_E
gs:_ZN9tesseract14BaselineDetect24ComputeStraightBaselinesEb
gs:_ZN9tesseract14BaselineDetect33ComputeBaselineSplinesAndXheightsERKNS_6ICOORDEbbbPNS_7TextordE
gs:_ZN9tesseract14BaselineDetectC1EiRKNS_6FCOORDEPNS_13TO_BLOCK_LISTE
gs:_ZN9tesseract14BaselineDetectC2EiRKNS_6FCOORDEPNS_13TO_BLOCK_LISTE
gs:_ZN9tesseract14CLIST_ITERATOR12move_to_lastEv
gs:_ZN9tesseract14CLIST_ITERATOR13data_relativeEa
gs:_ZN9tesseract14CLIST_ITERATOR15extract_sublistEPS0_
gs:_ZN9tesseract14CLIST_ITERATOR7forwardEv
gs:_ZN9tesseract14CLIST_ITERATOR8exchangeEPS0_
gs:_ZN9tesseract14C_OUTLINE_FRAG5closeEv
gs:_ZN9tesseract14C_OUTLINE_FRAGC1ENS_6ICOORDES1_PNS_9C_OUTLINEEss
gs:_ZN9tesseract14C_OUTLINE_FRAGC1EPS0_s
gs:_ZN9tesseract14C_OUTLINE_FRAGC2ENS_6ICOORDES1_PNS_9C_OUTLINEEss
gs:_ZN9tesseract14C_OUTLINE_FRAGC2EPS0_s
gs:_ZN9tesseract14C_OUTLINE_FRAGaSERKS0_
gs:_ZN9tesseract14C_OUTLINE_LIST9deep_copyEPKS0_PFPNS_9C_OUTLINEEPKS3_E
gs:_ZN9tesseract14ChoiceIterator12filterSpacesEv
gs:_ZN9tesseract14ChoiceIterator4NextEv
gs:_ZN9tesseract14ChoiceIteratorC1ERKNS_17LTRResultIteratorE
gs:_ZN9tesseract14ChoiceIteratorC2ERKNS_17LTRResultIteratorE
gs:_ZN9tesseract14ChoiceIteratorD1Ev
gs:_ZN9tesseract14ChoiceIteratorD2Ev
gs:_ZN9tesseract14ClusterSamplesEPNS_9CLUSTEREREPNS_13CLUSTERCONFIGE
gs:_ZN9tesseract14ConvertOutlineEPNS_8TESSLINEE
gs:_ZN9tesseract14ELIST_ITERATOR12move_to_lastEv
gs:_ZN9tesseract14ELIST_ITERATOR13data_relativeEa
gs:_ZN9tesseract14ELIST_ITERATOR15extract_sublistEPS0_
gs:_ZN9tesseract14ELIST_ITERATOR7forwardEv
gs:_ZN9tesseract14ELIST_ITERATOR8exchangeEPS0_
gs:_ZN9tesseract14EquationDetect10ExpandSeedEPNS_12ColPartitionE
gs:_ZN9tesseract14EquationDetect10IsIndentedEPNS_12ColPartitionE
gs:_ZN9tesseract14EquationDetect10SplitCPHorEPNS_12ColPartitionEPNS_13GenericVectorIS2_EE
gs:_ZN9tesseract14EquationDetect13CheckForSeed2ERKNS_13GenericVectorIiEEfPNS_12ColPartitionE
gs:_ZN9tesseract14EquationDetect13SetResolutionEi
gs:_ZN9tesseract14EquationDetect14SplitCPHorLiteEPNS_12ColPartitionEPNS_13GenericVectorINS_4TBOXEEE
gs:_ZN9tesseract14EquationDetect15SearchByOverlapEPNS_12ColPartitionEPNS_13GenericVectorIS2_EE
gs:_ZN9tesseract14EquationDetect16LabelSpecialTextEPNS_8TO_BLOCKE
gs:_ZN9tesseract14EquationDetect16SearchNNVerticalEbPKNS_12ColPartitionE
gs:_ZN9tesseract14EquationDetect16SetLangTesseractEPNS_9TesseractE
gs:_ZN9tesseract14EquationDetect17FindEquationPartsEPNS_16ColPartitionGridEPPNS_15ColPartitionSetE
gs:_ZN9tesseract14EquationDetect17IdentifySeedPartsEv
gs:_ZN9tesseract14EquationDetect18CheckSeedFgDensityEfPNS_12ColPartitionE
gs:_ZN9tesseract14EquationDetect18ExpandSeedVerticalEbPNS_12ColPartitionEPNS_13GenericVectorIS2_EE
gs:_ZN9tesseract14EquationDetect19CheckSeedBlobsCountEPNS_12ColPartitionE
gs:_ZN9tesseract14EquationDetect19ComputeCPsSuperBBoxEv
gs:_ZN9tesseract14EquationDetect19IdentifyBlobsToSkipEPNS_12ColPartitionE
gs:_ZN9tesseract14EquationDetect19IdentifyInlinePartsEv
gs:_ZN9tesseract14EquationDetect19IdentifySpecialTextEPNS_8BLOBNBOXEi
gs:_ZN9tesseract14EquationDetect19IdentifySpecialTextEv
gs:_ZN9tesseract14EquationDetect20ExpandSeedHorizontalEbPNS_12ColPartitionEPNS_13GenericVectorIS2_EE
gs:_ZN9tesseract14EquationDetect20IsMathBlockSatelliteEPNS_12ColPartitionEPNS_13GenericVectorIS2_EE
gs:_ZN9tesseract14EquationDetect20MergePartsByLocationEv
gs:_ZN9tesseract14EquationDetect21InsertPartAfterAbsorbEPNS_12ColPartitionE
gs:_ZN9tesseract14EquationDetect24ComputeForegroundDensityERKNS_4TBOXE
gs:_ZN9tesseract14EquationDetect27EstimateTextPartLineSpacingEv
gs:_ZN9tesseract14EquationDetect27IdentifyInlinePartsVerticalEbi
gs:_ZN9tesseract14EquationDetect29IdentifyInlinePartsHorizontalEv
gs:_ZN9tesseract14EquationDetect30ProcessMathBlockSatellitePartsEv
gs:_ZN9tesseract14EquationDetect8IsInlineEbiPNS_12ColPartitionE
gs:_ZN9tesseract14EquationDetectC1EPKcS2_
gs:_ZN9tesseract14EquationDetectC2EPKcS2_
gs:_ZN9tesseract14EquationDetectD0Ev
gs:_ZN9tesseract14EquationDetectD1Ev
gs:_ZN9tesseract14EquationDetectD2Ev
gs:_ZN9tesseract14FPSEGPT_zapperEPNS_10ELIST_LINKE
gs:_ZN9tesseract14FreeFeatureSetEPNS_18FEATURE_SET_STRUCTE
gs:_ZN9tesseract14FreeTempConfigEPNS_18TEMP_CONFIG_STRUCTE
gs:_ZN9tesseract14FullyConnected11DeSerializeEPNS_5TFileE
gs:_ZN9tesseract14FullyConnected11InitWeightsEfPNS_5TRandE
gs:_ZN9tesseract14FullyConnected12ConvertToIntEv
gs:_ZN9tesseract14FullyConnected12DebugWeightsEv
gs:_ZN9tesseract14FullyConnected12RemapOutputsEiRKSt6vectorIiSaIiEE
gs:_ZN9tesseract14FullyConnected12SetupForwardERKNS_9NetworkIOEPKNS_15TransposedArrayE
gs:_ZN9tesseract14FullyConnected14FinishBackwardERKNS_15TransposedArrayE
gs:_ZN9tesseract14FullyConnected15ForwardTimeStepEPKaiPd
gs:_ZN9tesseract14FullyConnected15ForwardTimeStepEPKdiPd
gs:_ZN9tesseract14FullyConnected15ForwardTimeStepEiPd
gs:_ZN9tesseract14FullyConnected16BackwardTimeStepERKNS_9NetworkIOEiPdPNS_15TransposedArrayES4_
gs:_ZN9tesseract14FullyConnected17SetEnableTrainingENS_13TrainingStateE
gs:_ZN9tesseract14FullyConnected6UpdateEfffi
gs:_ZN9tesseract14FullyConnected7ForwardEbRKNS_9NetworkIOEPKNS_15TransposedArrayEPNS_14NetworkScratchEPS1_
gs:_ZN9tesseract14FullyConnected8BackwardEbRKNS_9NetworkIOEPNS_14NetworkScratchEPS1_
gs:_ZN9tesseract14FullyConnectedC1ERKNSt7__cxx1112basic_stringIcSt11char_traitsIcESaIcEEEiiNS_11NetworkTypeE
gs:_ZN9tesseract14FullyConnectedC2ERKNSt7__cxx1112basic_stringIcSt11char_traitsIcESaIcEEEiiNS_11NetworkTypeE
gs:_ZN9tesseract14ICOORDELT_LIST9deep_copyEPKS0_PFPNS_9ICOORDELTEPKS3_E
gs:_ZN9tesseract14IntegerMatcher13FindBestMatchEPNS_16INT_CLASS_STRUCTERKNS_15ScratchEvidenceEPNS_13UnicharRatingE
gs:_ZN9tesseract14IntegerMatcher14FindGoodProtosEPNS_16INT_CLASS_STRUCTEPjS3_sPNS_18INT_FEATURE_STRUCTEPsii
gs:_ZN9tesseract14IntegerMatcher15FindBadFeaturesEPNS_16INT_CLASS_STRUCTEPjS3_sPNS_18INT_FEATURE_STRUCTEPhii
gs:_ZN9tesseract14IntegerMatcher17ApplyCNCorrectionEfiii
gs:_ZN9tesseract14IntegerMatcher17kSimilarityCenterE
gs:_ZN9tesseract14IntegerMatcher22UpdateTablesForFeatureEPNS_16INT_CLASS_STRUCTEPjS3_iPKNS_18INT_FEATURE_STRUCTEPNS_15ScratchEvidenceEi
gs:_ZN9tesseract14IntegerMatcher24kSEExponentialMultiplierE
gs:_ZN9tesseract14IntegerMatcher5MatchEPNS_16INT_CLASS_STRUCTEPjS3_sPKNS_18INT_FEATURE_STRUCTEPNS_13UnicharRatingEiib
gs:_ZN9tesseract14IntegerMatcherC1EPNS_8IntParamE
gs:_ZN9tesseract14IntegerMatcherC2EPNS_8IntParamE
gs:_ZN9tesseract14InterwordSpaceERKNS_13GenericVectorINS_19RowScratchRegistersEEEii
gs:_ZN9tesseract14LSTMRecognizer11DeSerializeEPKNS_15TessdataManagerEPNS_5TFileE
gs:_ZN9tesseract14LSTMRecognizer11DecodeLabelERKSt6vectorIiSaIiEEiPiS6_
gs:_ZN9tesseract14LSTMRecognizer11LoadRecoderEPNS_5TFileE
gs:_ZN9tesseract14LSTMRecognizer11OutputStatsERKNS_9NetworkIOEPfS4_S4_
gs:_ZN9tesseract14LSTMRecognizer12DecodeLabelsERKSt6vectorIiSaIiEE
gs:_ZN9tesseract14LSTMRecognizer12LoadCharsetsEPKNS_15TessdataManagerE
gs:_ZN9tesseract14LSTMRecognizer13RecognizeLineERKNS_9ImageDataEbbbbPfPNS_9NetworkIOES6_
gs:_ZN9tesseract14LSTMRecognizer13RecognizeLineERKNS_9ImageDataEbbdRKNS_4TBOXEPNS_13PointerVectorINS_8WERD_RESEEEii
gs:_ZN9tesseract14LSTMRecognizer14LoadDictionaryEPKNS_13ParamsVectorsEPKcPNS_15TessdataManagerE
gs:_ZN9tesseract14LSTMRecognizer17DecodeSingleLabelEi
gs:_ZN9tesseract14LSTMRecognizer17LabelsFromOutputsERKNS_9NetworkIOEPSt6vectorIiSaIiEES7_
gs:_ZN9tesseract14LSTMRecognizer17LabelsViaReEncodeERKNS_9NetworkIOEPSt6vectorIiSaIiEES7_
gs:_ZN9tesseract14LSTMRecognizer19DebugActivationPathERKNS_9NetworkIOERKSt6vectorIiSaIiEES8_
gs:_ZN9tesseract14LSTMRecognizer19LabelsViaSimpleTextERKNS_9NetworkIOEPSt6vectorIiSaIiEES7_
gs:_ZN9tesseract14LSTMRecognizer20DebugActivationRangeERKNS_9NetworkIOEPKciii
gs:_ZN9tesseract14LSTMRecognizer4LoadEPKNS_13ParamsVectorsEPKcPNS_15TessdataManagerE
gs:_ZN9tesseract14LSTMRecognizerC1EPKc
gs:_ZN9tesseract14LSTMRecognizerC1Ev
gs:_ZN9tesseract14LSTMRecognizerC2EPKc
gs:_ZN9tesseract14LSTMRecognizerC2Ev
gs:_ZN9tesseract14LSTMRecognizerD1Ev
gs:_ZN9tesseract14LSTMRecognizerD2Ev
gs:_ZN9tesseract14MakeBoxFileStrEPKcRKNS_4TBOXEiPNS_6STRINGE
gs:_ZN9tesseract14NormalizePicoXEPNS_18FEATURE_SET_STRUCTE
gs:_ZN9tesseract14PixelHistogram26ConstructVerticalCountHistEP3Pix
gs:_ZN9tesseract14PixelHistogram28ConstructHorizontalCountHistEP3Pix
gs:_ZN9tesseract14ROW_RES_zapperEPNS_10ELIST_LINKE
gs:_ZN9tesseract14ReadFeatureSetEP8_IO_FILEPKNS_19FEATURE_DESC_STRUCTE
gs:_ZN9tesseract14ReadPermConfigEPNS_5TFileE
gs:_ZN9tesseract14ReadSampleSizeEPNS_5TFileE
gs:_ZN9tesseract14ReadTempConfigEPNS_5TFileE
gs:_ZN9tesseract14ResultIterator12kComplexWordE
gs:_ZN9tesseract14ResultIterator12kMinorRunEndE
gs:_ZN9tesseract14ResultIterator14kMinorRunStartE
gs:_ZN9tesseract14ResultIterator16StartOfParagraphERKNS_17LTRResultIteratorE
gs:_ZN9tesseract14ResultIterator22CalculateTextlineOrderEbRKSt6vectorINS_21StrongScriptDirectionESaIS2_EEPS1_IiSaIiEE
gs:_ZN9tesseract14ResultIterator24MoveToLogicalStartOfWordEv
gs:_ZN9tesseract14ResultIterator28MoveToLogicalStartOfTextlineEv
gs:_ZN9tesseract14ResultIterator32IterateAndAppendUTF8TextlineTextEPNSt7__cxx1112basic_stringIcSt11char_traitsIcESaIcEEE
gs:_ZN9tesseract14ResultIterator4NextENS_17PageIteratorLevelE
gs:_ZN9tesseract14ResultIterator5BeginEv
gs:_ZN9tesseract14ResultIteratorC1ERKNS_17LTRResultIteratorE
gs:_ZN9tesseract14ResultIteratorC2ERKNS_17LTRResultIteratorE
gs:_ZN9tesseract14SVEventHandlerD0Ev
gs:_ZN9tesseract14SVEventHandlerD1Ev
gs:_ZN9tesseract14SVEventHandlerD2Ev
gs:_ZN9tesseract14SaveDataToFileERKSt6vectorIcSaIcEEPKc
gs:_ZN9tesseract14ScriptDetector11detect_blobEPNS_16BLOB_CHOICE_LISTE
gs:_ZN9tesseract14ScriptDetector14korean_script_E
gs:_ZN9tesseract14ScriptDetector15fraktur_script_E
gs:_ZN9tesseract14ScriptDetector16japanese_script_E
gs:_ZN9tesseract14ScriptDetector9must_stopEi
gs:_ZN9tesseract14ScriptDetectorC1EPKSt6vectorIiSaIiEEPNS_9OSResultsEPNS_9TesseractE
gs:_ZN9tesseract14ScriptDetectorC2EPKSt6vectorIiSaIiEEPNS_9OSResultsEPNS_9TesseractE
gs:_ZN9tesseract14TabVector_LIST9deep_copyEPKS0_PFPNS_9TabVectorEPKS3_E
gs:_ZN9tesseract14TessClassifier17DisplayClassifyAsERKNS_14TrainingSampleEP3PixiiPNS_13PointerVectorINS_10ScrollViewEEE
gs:_ZN9tesseract14TessClassifier21UnicharClassifySampleERKNS_14TrainingSampleEP3PixiiPSt6vectorINS_13UnicharRatingESaIS7_EE
gs:_ZN9tesseract14TrainingSample11DeSerializeEbP8_IO_FILE
gs:_ZN9tesseract14TrainingSample12kScaleValuesE
gs:_ZN9tesseract14TrainingSample13IndexFeaturesERKNS_15IntFeatureSpaceE
gs:_ZN9tesseract14TrainingSample13kYShiftValuesE
gs:_ZN9tesseract14TrainingSample15ExtractCharDescEiiiiPNS_16CHAR_DESC_STRUCTE
gs:_ZN9tesseract14TrainingSample16CopyFromFeaturesERKNS_20INT_FX_RESULT_STRUCTERKNS_4TBOXEPKNS_18INT_FEATURE_STRUCTEi
gs:_ZN9tesseract14TrainingSample17DeSerializeCreateEbP8_IO_FILE
gs:_ZN9tesseract14TrainingSampleD1Ev
gs:_ZN9tesseract14TrainingSampleD2Ev
gs:_ZN9tesseract14ValidFirstLineEPKNS_13GenericVectorINS_19RowScratchRegistersEEEiPKNS_14ParagraphModelE
gs:_ZN9tesseract14WorkingPartSet10MakeBlocksERKNS_6ICOORDES3_iPNS_17ColPartition_LISTE
gs:_ZN9tesseract14WorkingPartSet12AddPartitionEPNS_12ColPartitionE
gs:_ZN9tesseract14WorkingPartSet21InsertCompletedBlocksEPNS_10BLOCK_LISTEPNS_13TO_BLOCK_LISTE
gs:_ZN9tesseract14WorkingPartSet22ExtractCompletedBlocksERKNS_6ICOORDES3_iPNS_17ColPartition_LISTEPNS_10BLOCK_LISTEPNS_13TO_BLOCK_LISTE
gs:_ZN9tesseract14WriteParamDescEP8_IO_FILEtPKNS_10PARAM_DESCE
gs:_ZN9tesseract14WritePrototypeEP8_IO_FILEtPNS_9PROTOTYPEE
gs:_ZN9tesseract14divisible_blobEPNS_5TBLOBEbPNS_6TPOINTE
gs:_ZN9tesseract14find_row_pitchEPNS_6TO_ROWEiiPNS_8TO_BLOCKEiib
gs:_ZN9tesseract14find_top_modesEPNS_5STATSEiPii
gs:_ZN9tesseract14kCNFeatureTypeE
gs:_ZN9tesseract14make_real_wordEPNS_11BLOBNBOX_ITEibh
gs:_ZN9tesseract14make_rep_wordsEPNS_6TO_ROWEPNS_8TO_BLOCKE
gs:_ZN9tesseract14os_detect_blobEPNS_8BLOBNBOXEPNS_19OrientationDetectorEPNS_14ScriptDetectorEPNS_9OSResultsEPNS_9TesseractE
gs:_ZN9tesseract14partition_lineEPNS_4TBOXEiPiPcS2_PNS_7QSPLINEEfPf
gs:_ZN9tesseract14print_pitch_sdEPNS_6TO_ROWEPNS_5STATSEssff
gs:_ZN9tesseract14read_unlv_fileERNSt7__cxx1112basic_stringIcSt11char_traitsIcESaIcEEEiiPNS_10BLOCK_LISTE
gs:_ZN9tesseract14segment_splineEPNS_4TBOXEiPiS2_iiS2_
gs:_ZN9tesseract14set_row_spacesEPNS_8TO_BLOCKENS_6FCOORDEb
gs:_ZN9tesseract14test_underlineEbPNS_6C_BLOBEss
gs:_ZN9tesseract14textord_test_xE
gs:_ZN9tesseract14textord_test_yE
gs:_ZN9tesseract14try_rows_fixedEPNS_8TO_BLOCKEib
gs:_ZN9tesseract14tune_row_pitchEPNS_6TO_ROWEPNS_5STATSEssfRfS4_RsPNS_14ICOORDELT_LISTEb
gs:_ZN9tesseract15AddAdaptedClassEPNS_22ADAPT_TEMPLATES_STRUCTEPNS_18ADAPT_CLASS_STRUCTEi
gs:_ZN9tesseract15AddProtoToClassEPNS_12CLASS_STRUCTE
gs:_ZN9tesseract15BLOBNBOX_zapperEPNS_10ELIST_LINKE
gs:_ZN9tesseract15CCNonTextDetect18ComputeNonTextMaskEbP3PixPNS_8TO_BLOCKE
gs:_ZN9tesseract15CCNonTextDetect19BlobOverlapsTooMuchEPNS_8BLOBNBOXEi
gs:_ZN9tesseract15CCNonTextDetect19ComputeNoiseDensityEbP3PixPNS_8BlobGridE
gs:_ZN9tesseract15CCNonTextDetect25MarkAndDeleteNonTextBlobsEPNS_13BLOBNBOX_LISTEiPNS_10ScrollViewENS3_5ColorEP3Pix
gs:_ZN9tesseract15CCNonTextDetectC1EiRKNS_6ICOORDES3_
gs:_ZN9tesseract15CCNonTextDetectC2EiRKNS_6ICOORDES3_
gs:_ZN9tesseract15CCNonTextDetectD0Ev
gs:_ZN9tesseract15CCNonTextDetectD1Ev
gs:_ZN9tesseract15CCNonTextDetectD2Ev
gs:_ZN9tesseract15ChangeDirectionEPNS_8list_recES1_NS_9DIRECTIONE
gs:_ZN9tesseract15ColPartitionSet12AddPartitionEPNS_12ColPartitionEPNS_15ColPartition_ITE
gs:_ZN9tesseract15ColPartitionSet12SpanningTypeEiiiiiiiPiS1_S1_
gs:_ZN9tesseract15ColPartitionSet14GetColumnBoxesEiiPNS_15ColSegment_LISTE
gs:_ZN9tesseract15ColPartitionSet14UnmatchedWidthEPS0_
gs:_ZN9tesseract15ColPartitionSet15ComputeCoverageEv
gs:_ZN9tesseract15ColPartitionSet15RelinquishPartsEv
gs:_ZN9tesseract15ColPartitionSet16ColumnContainingEii
gs:_ZN9tesseract15ColPartitionSet16GetColumnByIndexEi
gs:_ZN9tesseract15ColPartitionSet17ChangeWorkColumnsERKNS_6ICOORDES3_iPNS_17ColPartition_LISTEPNS_19WorkingPartSet_LISTE
gs:_ZN9tesseract15ColPartitionSet17CompatibleColumnsEbPS0_St8functionIFbiEE
gs:_ZN9tesseract15ColPartitionSet20LegalColumnCandidateEv
gs:_ZN9tesseract15ColPartitionSet22ImproveColumnCandidateESt8functionIFbiEEPNS_13GenericVectorIPS0_EE
gs:_ZN9tesseract15ColPartitionSet23AddToColumnSetsIfUniqueEPNS_13GenericVectorIPS0_EESt8functionIFbiEE
gs:_ZN9tesseract15ColPartitionSet26AddPartitionCoverageAndBoxERKNS_12ColPartitionE
gs:_ZN9tesseract15ColPartitionSet29AccumulateColumnWidthsAndGapsEPiS1_S1_S1_
gs:_ZN9tesseract15ColPartitionSet4CopyEb
gs:_ZN9tesseract15ColPartitionSet5PrintEv
gs:_ZN9tesseract15ColPartitionSetC1EPNS_12ColPartitionE
gs:_ZN9tesseract15ColPartitionSetC1EPNS_17ColPartition_LISTE
gs:_ZN9tesseract15ColPartitionSetC2EPNS_12ColPartitionE
gs:_ZN9tesseract15ColPartitionSetC2EPNS_17ColPartition_LISTE
gs:_ZN9tesseract15ColSegment_LIST9deep_copyEPKS0_PFPNS_10ColSegmentEPKS3_E
gs:_ZN9tesseract15ComputeDistanceEiPNS_10PARAM_DESCEPfS2_
gs:_ZN9tesseract15ConvertOutlinesEPNS_8TESSLINEEPNS_8list_recENS_11OUTLINETYPEE
gs:_ZN9tesseract15CrownCompatibleEPKNS_13GenericVectorINS_19RowScratchRegistersEEEiiPKNS_14ParagraphModelE
gs:_ZN9tesseract15DistanceSquaredEiPNS_10PARAM_DESCEPfS2_
gs:_ZN9tesseract15ELIST2_ITERATOR13data_relativeEa
gs:_ZN9tesseract15ELIST2_ITERATOR15extract_sublistEPS0_
gs:_ZN9tesseract15ELIST2_ITERATOR7forwardEv
gs:_ZN9tesseract15ELIST2_ITERATOR8backwardEv
gs:_ZN9tesseract15ELIST2_ITERATOR8exchangeEPS0_
gs:_ZN9tesseract15ExtractFontNameEPKcPNS_6STRINGE
gs:_ZN9tesseract15FreeClassFieldsEPNS_12CLASS_STRUCTE
gs:_ZN9tesseract15InitFeatureDefsEPNS_19FEATURE_DEFS_STRUCTE
gs:_ZN9tesseract15InitTableFillerEfffPNS_12PROTO_STRUCTEPNS_12TABLE_FILLERE
gs:_ZN9tesseract15IntFeatureSpace4InitEhhh
gs:_ZN9tesseract15IntFeatureSpaceC1Ev
gs:_ZN9tesseract15IntFeatureSpaceC2Ev
gs:_ZN9tesseract15MutableIteratorD0Ev
gs:_ZN9tesseract15MutableIteratorD1Ev
gs:_ZN9tesseract15MutableIteratorD2Ev
gs:_ZN9tesseract15NewAdaptedClassEv
gs:_ZN9tesseract15NewIntTemplatesEv
gs:_ZN9tesseract15NewMicroFeatureEv
gs:_ZN9tesseract15OutlineFeatDescE
gs:_ZN9tesseract15PDBLK_c1_zapperEPv
gs:_ZN9tesseract15ParagraphTheory17NonCenteredModelsEPNS_13GenericVectorIPKNS_14ParagraphModelEEE
gs:_ZN9tesseract15ParagraphTheory19DiscardUnusedModelsERKNS_13GenericVectorIPKNS_14ParagraphModelEEE
gs:_ZN9tesseract15ParagraphTheory8AddModelERKNS_14ParagraphModelE
gs:_ZN9tesseract15ParseBoxFileStrEPKcPiPNS_6STRINGEPNS_4TBOXE
gs:_ZN9tesseract15ScratchEvidence13NormalizeSumsEPNS_16INT_CLASS_STRUCTEs
gs:_ZN9tesseract15ScratchEvidence20ClearFeatureEvidenceEPNS_16INT_CLASS_STRUCTE
gs:_ZN9tesseract15ScratchEvidence25UpdateSumOfProtoEvidencesEPNS_16INT_CLASS_STRUCTEPj
gs:_ZN9tesseract15ScratchEvidence5ClearEPNS_16INT_CLASS_STRUCTE
gs:_ZN9tesseract15ShapeClassifier14ClassifySampleERKNS_14TrainingSampleEP3PixiiPSt6vectorINS_11ShapeRatingESaIS7_EE
gs:_ZN9tesseract15ShapeClassifier17DisplayClassifyAsERKNS_14TrainingSampleEP3PixiiPNS_13PointerVectorINS_10ScrollViewEEE
gs:_ZN9tesseract15ShapeClassifier19BestShapeForUnicharERKNS_14TrainingSampleEP3PixiPNS_11ShapeRatingE
gs:_ZN9tesseract15ShapeClassifier21UnicharClassifySampleERKNS_14TrainingSampleEP3PixiiPSt6vectorINS_13UnicharRatingESaIS7_EE
gs:_ZN9tesseract15SimpleClusterer11GetClustersEPNS_13GenericVectorINS_7ClusterEEE
gs:_ZN9tesseract15StructuredTable13UpdateMarginsEPNS_16ColPartitionGridE
gs:_ZN9tesseract15StructuredTable13set_line_gridEPNS_16ColPartitionGridE
gs:_ZN9tesseract15StructuredTable13set_text_gridEPNS_16ColPartitionGridE
gs:_ZN9tesseract15StructuredTable14CalculateStatsEv
gs:_ZN9tesseract15StructuredTable14ClearStructureEv
gs:_ZN9tesseract15StructuredTable15CountPartitionsERKNS_4TBOXE
gs:_ZN9tesseract15StructuredTable15VerifyRowFilledEi
gs:_ZN9tesseract15StructuredTable16CalculateMarginsEv
gs:_ZN9tesseract15StructuredTable16CountFilledCellsEiiii
gs:_ZN9tesseract15StructuredTable16CountFilledCellsEv
gs:_ZN9tesseract15StructuredTable16set_bounding_boxERKNS_4TBOXE
gs:_ZN9tesseract15StructuredTable17AbsorbNearbyLinesEv
gs:_ZN9tesseract15StructuredTable17median_cell_widthEv
gs:_ZN9tesseract15StructuredTable18FindLinedStructureEv
gs:_ZN9tesseract15StructuredTable18median_cell_heightEv
gs:_ZN9tesseract15StructuredTable19FindWhitespacedRowsEv
gs:_ZN9tesseract15StructuredTable19set_max_text_heightEi
gs:_ZN9tesseract15StructuredTable21CountFilledCellsInRowEi
gs:_ZN9tesseract15StructuredTable21VerifyLinedTableCellsEv
gs:_ZN9tesseract15StructuredTable22FindCellSplitLocationsERKNS_13GenericVectorIiEES4_iPS2_
gs:_ZN9tesseract15StructuredTable22FindWhitespacedColumnsEv
gs:_ZN9tesseract15StructuredTable22VerifyWhitespacedTableEv
gs:_ZN9tesseract15StructuredTable24CountFilledCellsInColumnEi
gs:_ZN9tesseract15StructuredTable24FindWhitespacedStructureEv
gs:_ZN9tesseract15StructuredTable26CountVerticalIntersectionsEi
gs:_ZN9tesseract15StructuredTable28CountHorizontalIntersectionsEi
gs:_ZN9tesseract15StructuredTable29CalculateCellFilledPercentageEii
gs:_ZN9tesseract15StructuredTable4InitEv
gs:_ZN9tesseract15StructuredTableC1Ev
gs:_ZN9tesseract15StructuredTableC2Ev
gs:_ZN9tesseract15TO_BLOCK_zapperEPNS_10ELIST_LINKE
gs:_ZN9tesseract15TableRecognizer13set_line_gridEPNS_16ColPartitionGridE
gs:_ZN9tesseract15TableRecognizer13set_min_widthEi
gs:_ZN9tesseract15TableRecognizer13set_text_gridEPNS_16ColPartitionGridE
gs:_ZN9tesseract15TableRecognizer14IsWeakTableRowEPNS_15StructuredTableEi
gs:_ZN9tesseract15TableRecognizer14RecognizeTableERKNS_4TBOXE
gs:_ZN9tesseract15TableRecognizer14set_min_heightEi
gs:_ZN9tesseract15TableRecognizer19HasSignificantLinesERKNS_4TBOXE
gs:_ZN9tesseract15TableRecognizer19NextHorizontalSplitEiiib
gs:_ZN9tesseract15TableRecognizer19RecognizeLinedTableERKNS_4TBOXEPNS_15StructuredTableE
gs:_ZN9tesseract15TableRecognizer19set_max_text_heightEi
gs:_ZN9tesseract15TableRecognizer20FindLinesBoundingBoxEPNS_4TBOXE
gs:_ZN9tesseract15TableRecognizer25RecognizeWhitespacedTableERKNS_4TBOXEPNS_15StructuredTableE
gs:_ZN9tesseract15TableRecognizer29FindLinesBoundingBoxIterationEPNS_4TBOXE
gs:_ZN9tesseract15TableRecognizer4InitEv
gs:_ZN9tesseract15TableRecognizerC1Ev
gs:_ZN9tesseract15TableRecognizerC2Ev
gs:_ZN9tesseract15TableRecognizerD1Ev
gs:_ZN9tesseract15TableRecognizerD2Ev
gs:_ZN9tesseract15TessOsdRenderer15AddImageHandlerEPNS_11TessBaseAPIE
gs:_ZN9tesseract15TessOsdRendererC1EPKc
gs:_ZN9tesseract15TessOsdRendererC2EPKc
gs:_ZN9tesseract15TessPDFRenderer13imageToPDFObjEP3PixPKclPPcPli
gs:_ZN9tesseract15TessPDFRenderer15AddImageHandlerEPNS_11TessBaseAPIE
gs:_ZN9tesseract15TessPDFRenderer15AppendPDFObjectEPKc
gs:_ZN9tesseract15TessPDFRenderer17GetPDFTextObjectsEPNS_11TessBaseAPIEdd
gs:_ZN9tesseract15TessPDFRenderer18AppendPDFObjectDIYEm
gs:_ZN9tesseract15TessPDFRenderer18EndDocumentHandlerEv
gs:_ZN9tesseract15TessPDFRenderer20BeginDocumentHandlerEv
gs:_ZN9tesseract15TessPDFRendererC1EPKcS2_b
gs:_ZN9tesseract15TessPDFRendererC2EPKcS2_b
gs:_ZN9tesseract15TessTsvRenderer15AddImageHandlerEPNS_11TessBaseAPIE
gs:_ZN9tesseract15TessTsvRenderer18EndDocumentHandlerEv
gs:_ZN9tesseract15TessTsvRenderer20BeginDocumentHandlerEv
gs:_ZN9tesseract15TessTsvRendererC1EPKc
gs:_ZN9tesseract15TessTsvRendererC1EPKcb
gs:_ZN9tesseract15TessTsvRendererC2EPKc
gs:_ZN9tesseract15TessTsvRendererC2EPKcb
gs:_ZN9tesseract15TessdataManager12GetComponentENS_12TessdataTypeEPNS_5TFileE
gs:_ZN9tesseract15TessdataManager13ExtractToFileEPKc
gs:_ZN9tesseract15TessdataManager13LoadFileLaterEPKc
gs:_ZN9tesseract15TessdataManager13LoadMemBufferEPKcS2_i
gs:_ZN9tesseract15TessdataManager14OverwriteEntryENS_12TessdataTypeEPKci
gs:_ZN9tesseract15TessdataManager16CombineDataFilesEPKcS2_
gs:_ZN9tesseract15TessdataManager16SetVersionStringERKNSt7__cxx1112basic_stringIcSt11char_traitsIcESaIcEEE
gs:_ZN9tesseract15TessdataManager19OverwriteComponentsEPKcPPci
gs:_ZN9tesseract15TessdataManager24TessdataTypeFromFileNameEPKcPNS_12TessdataTypeE
gs:_ZN9tesseract15TessdataManager26TessdataTypeFromFileSuffixEPKcPNS_12TessdataTypeE
gs:_ZN9tesseract15TessdataManager4InitEPKc
gs:_ZN9tesseract15TessdataManager5ClearEv
gs:_ZN9tesseract15TessdataManagerC1EPFbPKcPSt6vectorIcSaIcEEE
gs:_ZN9tesseract15TessdataManagerC1Ev
gs:_ZN9tesseract15TessdataManagerC2EPFbPKcPSt6vectorIcSaIcEEE
gs:_ZN9tesseract15TessdataManagerC2Ev
gs:_ZN9tesseract15TransposedArray9TransposeERKNS_16GENERIC_2D_ARRAYIdEE
gs:_ZN9tesseract15TransposedArrayD0Ev
gs:_ZN9tesseract15TransposedArrayD1Ev
gs:_ZN9tesseract15TransposedArrayD2Ev
gs:_ZN9tesseract15UnicharAndFonts11DeSerializeEPNS_5TFileE
gs:_ZN9tesseract15UnicharAndFonts15SortByUnicharIdEPKvS2_
gs:_ZN9tesseract15UnicharCompress11DeSerializeEPNS_5TFileE
gs:_ZN9tesseract15UnicharCompress11SetupDirectERKNS_13GenericVectorINS_13RecodedCharIDEEE
gs:_ZN9tesseract15UnicharCompress12SetupDecoderEv
gs:_ZN9tesseract15UnicharCompress15ComputeEncodingERKNS_10UNICHARSETEiPNS_6STRINGE
gs:_ZN9tesseract15UnicharCompress15DecomposeHangulEiPiS1_S1_
gs:_ZN9tesseract15UnicharCompress16ComputeCodeRangeEv
gs:_ZN9tesseract15UnicharCompress16SetupPassThroughERKNS_10UNICHARSETE
gs:_ZN9tesseract15UnicharCompress20DefragmentCodeValuesEi
gs:_ZN9tesseract15UnicharCompress7CleanupEv
gs:_ZN9tesseract15UnicharCompressC1ERKS0_
gs:_ZN9tesseract15UnicharCompressC1Ev
gs:_ZN9tesseract15UnicharCompressC2ERKS0_
gs:_ZN9tesseract15UnicharCompressC2Ev
gs:_ZN9tesseract15UnicharCompressD1Ev
gs:_ZN9tesseract15UnicharCompressD2Ev
gs:_ZN9tesseract15UnicharCompressaSERKS0_
gs:_ZN9tesseract15WERD_RES_zapperEPNS_10ELIST_LINKE
gs:_ZN9tesseract15WriteFeatureSetEPNS_18FEATURE_SET_STRUCTEPNS_6STRINGE
gs:_ZN9tesseract15WritePermConfigEP8_IO_FILEPNS_18PERM_CONFIG_STRUCTE
gs:_ZN9tesseract15WriteTempConfigEP8_IO_FILEPNS_18TEMP_CONFIG_STRUCTE
gs:_ZN9tesseract15choose_nth_itemEiPfi
gs:_ZN9tesseract15choose_nth_itemEiPvimPFiPKvS2_E
gs:_ZN9tesseract15fixed_pitch_rowEPNS_6TO_ROWEPNS_5BLOCKEi
gs:_ZN9tesseract15gapmap_big_gapsE
gs:_ZN9tesseract15gapmap_use_endsE
gs:_ZN9tesseract15get_blob_coordsEPNS_6TO_ROWEiPNS_4TBOXERbRi
gs:_ZN9tesseract15kGeoFeatureTypeE
gs:_ZN9tesseract15kIntFeatureTypeE
gs:_ZN9tesseract15make_real_wordsEPNS_7TextordEPNS_8TO_BLOCKENS_6FCOORDE
gs:_ZN9tesseract15make_single_rowENS_6ICOORDEbPNS_8TO_BLOCKEPNS_13TO_BLOCK_LISTE
gs:_ZN9tesseract15os_detect_blobsEPKSt6vectorIiSaIiEEPNS_14BLOBNBOX_CLISTEPNS_9OSResultsEPNS_9TesseractE
gs:_ZN9tesseract15row_pitch_statsEPNS_6TO_ROWEib
gs:_ZN9tesseract15start_seam_listEPNS_5TWERDEPNS_13GenericVectorIPNS_4SEAMEEE
gs:_ZN9tesseract15try_block_fixedEPNS_8TO_BLOCKEi
gs:_ZN9tesseract15tune_row_pitch2EPNS_6TO_ROWEPNS_5STATSEssfRfS4_RsPNS_14ICOORDELT_LISTEb
gs:_ZN9tesseract15word_comparatorEPKvS1_
gs:_ZN9tesseract16AddConfigToClassEPNS_12CLASS_STRUCTE
gs:_ZN9tesseract16AmbigSpec_zapperEPNS_10ELIST_LINKE
gs:_ZN9tesseract16BLOB_CHOICE_LIST9deep_copyEPKS0_PFPNS_11BLOB_CHOICEEPKS3_E
gs:_ZN9tesseract16BLOCK_RES_zapperEPNS_10ELIST_LINKE
gs:_ZN9tesseract16C_OUTLINE_zapperEPNS_10ELIST_LINKE
gs:_ZN9tesseract16ColPartitionGrid10ClaimBoxesEv
gs:_ZN9tesseract16ColPartitionGrid10FindMarginEibiiiPKNS_12ColPartitionE
gs:_ZN9tesseract16ColPartitionGrid11DeletePartsEv
gs:_ZN9tesseract16ColPartitionGrid11HandleClickEii
gs:_ZN9tesseract16ColPartitionGrid11ReTypeBlobsEPNS_13BLOBNBOX_LISTE
gs:_ZN9tesseract16ColPartitionGrid11SetTabStopsEPNS_7TabFindE
gs:_ZN9tesseract16ColPartitionGrid14ReflectInYAxisEv
gs:_ZN9tesseract16ColPartitionGrid15GridFindMarginsEPPNS_15ColPartitionSetE
gs:_ZN9tesseract16ColPartitionGrid15ListFindMarginsEPPNS_15ColPartitionSetEPNS_17ColPartition_LISTE
gs:_ZN9tesseract16ColPartitionGrid15MakeColPartSetsEPNS_13GenericVectorIPNS_15ColPartitionSetEEE
gs:_ZN9tesseract16ColPartitionGrid15RecomputeBoundsEiRKNS_6ICOORDES3_S3_
gs:_ZN9tesseract16ColPartitionGrid16SmoothRegionTypeEP3PixRKNS_4TBOXERKNS_6FCOORDEbPNS_12ColPartitionE
gs:_ZN9tesseract16ColPartitionGrid18BestMergeCandidateEPKNS_12ColPartitionEPNS_18ColPartition_CLISTEbSt8functionIFbS3_S3_EEPi
gs:_ZN9tesseract16ColPartitionGrid18DeleteUnknownPartsEPNS_8TO_BLOCKE
gs:_ZN9tesseract16ColPartitionGrid18FindFigureCaptionsEv
gs:_ZN9tesseract16ColPartitionGrid19ComputeTotalOverlapEPPS0_
gs:_ZN9tesseract16ColPartitionGrid19FindMergeCandidatesEPKNS_12ColPartitionERKNS_4TBOXEbPNS_18ColPartition_CLISTE
gs:_ZN9tesseract16ColPartitionGrid19MakeSingleColumnSetESt8functionIFbiEE
gs:_ZN9tesseract16ColPartitionGrid20DeleteNonLeaderPartsEv
gs:_ZN9tesseract16ColPartitionGrid20FindPartitionMarginsEPNS_15ColPartitionSetEPNS_12ColPartitionE
gs:_ZN9tesseract16ColPartitionGrid20GridSmoothNeighboursENS_16BlobTextFlowTypeEP3PixRKNS_4TBOXERKNS_6FCOORDE
gs:_ZN9tesseract16ColPartitionGrid20SmoothInOneDirectionENS_16BlobNeighbourDirEP3PixRKNS_4TBOXERKNS_6FCOORDEbRKNS_12ColPartitionEPi
gs:_ZN9tesseract16ColPartitionGrid21FindPartitionPartnersEbPNS_12ColPartitionE
gs:_ZN9tesseract16ColPartitionGrid21FindPartitionPartnersEv
gs:_ZN9tesseract16ColPartitionGrid22FindVPartitionPartnersEbPNS_12ColPartitionE
gs:_ZN9tesseract16ColPartitionGrid23AccumulatePartDistancesERKNS_12ColPartitionERKNS_6ICOORDERKNS_4TBOXEP3PixS9_RKNS_6FCOORDEbPNS_13GenericVectorIiEE
gs:_ZN9tesseract16ColPartitionGrid23RefinePartitionPartnersEb
gs:_ZN9tesseract16ColPartitionGrid25ExtractPartitionsAsBlocksEPNS_10BLOCK_LISTEPNS_13TO_BLOCK_LISTE
gs:_ZN9tesseract16ColPartitionGrid25FindOverlappingPartitionsERKNS_4TBOXEPKNS_12ColPartitionEPNS_18ColPartition_CLISTE
gs:_ZN9tesseract16ColPartitionGrid26SplitOverlappingPartitionsEPNS_17ColPartition_LISTE
gs:_ZN9tesseract16ColPartitionGrid6DeskewERKNS_6FCOORDE
gs:_ZN9tesseract16ColPartitionGrid6MergesESt8functionIFbPNS_12ColPartitionEPNS_4TBOXEEES1_IFbPKS2_S9_EE
gs:_ZN9tesseract16ColPartitionGrid9MergePartESt8functionIFbPNS_12ColPartitionEPNS_4TBOXEEES1_IFbPKS2_S9_EES3_
gs:_ZN9tesseract16ColPartitionGridC1EiRKNS_6ICOORDES3_
gs:_ZN9tesseract16ColPartitionGridC2EiRKNS_6ICOORDES3_
gs:_ZN9tesseract16ComputeDirectionEPNS_8MFEDGEPTES1_ff
gs:_ZN9tesseract16DetectParagraphsEiPSt6vectorINS_7RowInfoESaIS1_EEPNS_13GenericVectorIPNS_4PARAEEEPNS_9PARA_LISTEPS0_IPNS_14ParagraphModelESaISD_EE
gs:_ZN9tesseract16DetectParagraphsEibPKNS_15MutableIteratorEPSt6vectorIPNS_14ParagraphModelESaIS5_EE
gs:_ZN9tesseract16DotProductNativeEPKdS1_i
gs:_ZN9tesseract16EDGEPT_c1_zapperEPv
gs:_ZN9tesseract16FeatureDirectionEh
gs:_ZN9tesseract16FillPPLinearBitsEPA2_jiffb
gs:_ZN9tesseract16FloatWordFeature13SortByXBucketEPKvS2_
gs:_ZN9tesseract16FloatWordFeature16FromWordFeaturesERKNS_13GenericVectorINS_11WordFeatureEEEPNS1_IS0_EE
gs:_ZN9tesseract16GetMatchColorForEf
gs:_ZN9tesseract16ICOORDELT_zapperEPNS_10ELIST_LINKE
gs:_ZN9tesseract16ImageThresholder10GetPixRectEv
gs:_ZN9tesseract16ImageThresholder12SetRectangleEiiii
gs:_ZN9tesseract16ImageThresholder13GetImageSizesEPiS1_S1_S1_S1_S1_
gs:_ZN9tesseract16ImageThresholder14GetPixRectGreyEv
gs:_ZN9tesseract16ImageThresholder14ThresholdToPixENS_11PageSegModeEPP3Pix
gs:_ZN9tesseract16ImageThresholder20GetPixRectThresholdsEv
gs:_ZN9tesseract16ImageThresholder4InitEv
gs:_ZN9tesseract16ImageThresholder5ClearEv
gs:_ZN9tesseract16ImageThresholder8SetImageEPK3Pix
gs:_ZN9tesseract16ImageThresholder8SetImageEPKhiiii
gs:_ZN9tesseract16ImageThresholderC1Ev
gs:_ZN9tesseract16ImageThresholderC2Ev
gs:_ZN9tesseract16ImageThresholderD0Ev
gs:_ZN9tesseract16ImageThresholderD1Ev
gs:_ZN9tesseract16ImageThresholderD2Ev
gs:_ZN9tesseract16LoadDataFromFileEPKcPSt6vectorIcSaIcEE
gs:_ZN9tesseract16MicroFeatureDescE
gs:_ZN9tesseract16NormalizeOutlineEPNS_8list_recEf
gs:_ZN9tesseract16ReadAdaptedClassEPNS_5TFileE
gs:_ZN9tesseract16RecodeBeamSearch10DecodeStepEPKfidddPKNS_10UNICHARSETEb
gs:_ZN9tesseract16RecodeBeamSearch11ComputeTopNEPKfii
gs:_ZN9tesseract16RecodeBeamSearch11kBeamWidthsE
gs:_ZN9tesseract16RecodeBeamSearch12ContinueDawgEiifNS_16NodeContinuationEPKNS_10RecodeNodeEPNS0_10RecodeBeamE
gs:_ZN9tesseract16RecodeBeamSearch14ComputeSecTopNEPSt13unordered_setIiSt4hashIiESt8equal_toIiESaIiEEPKfii
gs:_ZN9tesseract16RecodeBeamSearch14InitializeWordEbRKNS_4TBOXEiifPKNS_10UNICHARSETERKSt6vectorIiSaIiEEf
gs:_ZN9tesseract16RecodeBeamSearch15ContinueContextEPKNS_10RecodeNodeEiPKfNS_9TopNStateEPKNS_10UNICHARSETEdddPNS0_10RecodeBeamE
gs:_ZN9tesseract16RecodeBeamSearch15ContinueUnicharEiifffbNS_16NodeContinuationEPKNS_10RecodeNodeEPNS0_10RecodeBeamE
gs:_ZN9tesseract16RecodeBeamSearch16PushHeapIfBetterEiPNS_10RecodeNodeEPNS_11GenericHeapINS_9KDPairIncIdS1_EEEE
gs:_ZN9tesseract16RecodeBeamSearch16PushHeapIfBetterEiiiNS_12PermuterTypeEbbbbfPKNS_10RecodeNodeEPNS_18DawgPositionVectorEPNS_11GenericHeapINS_9KDPairIncIdS2_EEEE
gs:_ZN9tesseract16RecodeBeamSearch19DecodeSecondaryStepEPKfidddPKNS_10UNICHARSETEb
gs:_ZN9tesseract16RecodeBeamSearch19UpdateHeapIfMatchedEPNS_10RecodeNodeEPNS_11GenericHeapINS_9KDPairIncIdS1_EEEE
gs:_ZN9tesseract16RecodeBeamSearch20DecodeSecondaryBeamsERKNS_9NetworkIOEdddPKNS_10UNICHARSETEi
gs:_ZN9tesseract16RecodeBeamSearch20extractSymbolChoicesEPKNS_10UNICHARSETE
gs:_ZN9tesseract16RecodeBeamSearch22ExtractBestPathAsWordsERKNS_4TBOXEfbPKNS_10UNICHARSETEPNS_13PointerVectorINS_8WERD_RESEEEi
gs:_ZN9tesseract16RecodeBeamSearch22SaveMostCertainChoicesEPKfiPKNS_10UNICHARSETEi
gs:_ZN9tesseract16RecodeBeamSearch23ExtractPathAsUnicharIdsERKNS_13GenericVectorIPKNS_10RecodeNodeEEEPSt6vectorIiSaIiEEPS8_IfSaIfEESE_SB_SB_
gs:_ZN9tesseract16RecodeBeamSearch23PushDupOrNoDawgIfBetterEibiifffbNS_16NodeContinuationEPKNS_10RecodeNodeEPNS0_10RecodeBeamE
gs:_ZN9tesseract16RecodeBeamSearch23PushInitialDawgIfBetterEiiNS_12PermuterTypeEbbfNS_16NodeContinuationEPKNS_10RecodeNodeEPNS0_10RecodeBeamE
gs:_ZN9tesseract16RecodeBeamSearch23calculateCharBoundariesEPSt6vectorIiSaIiEES4_S4_i
gs:_ZN9tesseract16RecodeBeamSearch25combineSegmentedTimestepsEPSt6vectorIS1_IS1_ISt4pairIPKcfESaIS5_EESaIS7_EESaIS9_EE
gs:_ZN9tesseract16RecodeBeamSearch28segmentTimestepsByCharactersEv
gs:_ZN9tesseract16RecodeBeamSearch6DecodeERKNS_16GENERIC_2D_ARRAYIfEEdddPKNS_10UNICHARSETE
gs:_ZN9tesseract16RecodeBeamSearch6DecodeERKNS_9NetworkIOEdddPKNS_10UNICHARSETEi
gs:_ZN9tesseract16RecodeBeamSearchC1ERKNS_15UnicharCompressEibPNS_4DictE
gs:_ZN9tesseract16RecodeBeamSearchC2ERKNS_15UnicharCompressEibPNS_4DictE
gs:_ZN9tesseract16STRING_c1_zapperEPv
gs:_ZN9tesseract16TabVector_zapperEPNS_11ELIST2_LINKE
gs:_ZN9tesseract16TessAltoRenderer15AddImageHandlerEPNS_11TessBaseAPIE
gs:_ZN9tesseract16TessAltoRenderer18EndDocumentHandlerEv
gs:_ZN9tesseract16TessAltoRenderer20BeginDocumentHandlerEv
gs:_ZN9tesseract16TessAltoRendererC1EPKc
gs:_ZN9tesseract16TessAltoRendererC2EPKc
gs:_ZN9tesseract16TessHOcrRenderer15AddImageHandlerEPNS_11TessBaseAPIE
gs:_ZN9tesseract16TessHOcrRenderer18EndDocumentHandlerEv
gs:_ZN9tesseract16TessHOcrRenderer20BeginDocumentHandlerEv
gs:_ZN9tesseract16TessHOcrRendererC1EPKc
gs:_ZN9tesseract16TessHOcrRendererC1EPKcb
gs:_ZN9tesseract16TessHOcrRendererC2EPKc
gs:_ZN9tesseract16TessHOcrRendererC2EPKcb
gs:_ZN9tesseract16TessTextRenderer15AddImageHandlerEPNS_11TessBaseAPIE
gs:_ZN9tesseract16TessTextRendererC1EPKc
gs:_ZN9tesseract16TessTextRendererC2EPKc
gs:_ZN9tesseract16TessUnlvRenderer15AddImageHandlerEPNS_11TessBaseAPIE
gs:_ZN9tesseract16TessUnlvRendererC1EPKc
gs:_ZN9tesseract16TessUnlvRendererC2EPKc
gs:_ZN9tesseract16WERD_CHOICE_LIST9deep_copyEPKS0_PFPNS_11WERD_CHOICEEPKS3_E
gs:_ZN9tesseract16capture_childrenEPNS_10OL_BUCKETSEPNS_9C_BLOB_ITEPNS_12C_OUTLINE_ITE
gs:_ZN9tesseract16check_path_legalEPNS_9CRACKEDGEE
gs:_ZN9tesseract16check_pitch_syncEPNS_11BLOBNBOX_ITEsssPNS_5STATSEPNS_12FPSEGPT_LISTE
gs:_ZN9tesseract16choose_partitionEfPfifS0_S0_Pi
gs:_ZN9tesseract16compute_pitch_sdEPNS_6TO_ROWEPNS_5STATSEssffRfRsPNS_14ICOORDELT_LISTEbss
gs:_ZN9tesseract16fit_parallel_lmsEfPNS_6TO_ROWE
gs:_ZN9tesseract16make_pseudo_wordEPNS_8PAGE_RESERKNS_4TBOXE
gs:_ZN9tesseract16make_single_wordEbPNS_11TO_ROW_LISTEPNS_8ROW_LISTE
gs:_ZN9tesseract16partition_coordsEPNS_4TBOXEiPciPiS3_
gs:_ZN9tesseract16segment_baselineEPNS_6TO_ROWEPNS_8TO_BLOCKERiPi
gs:_ZN9tesseract16textord_heavy_nrE
gs:_ZN9tesseract16textord_skew_ileE
gs:_ZN9tesseract16textord_skew_lagE
gs:_ZN9tesseract17AlignedBlobParams12set_verticalEii
gs:_ZN9tesseract17AlignedBlobParamsC1Eiii
gs:_ZN9tesseract17AlignedBlobParamsC1EiiiiiiNS_12TabAlignmentE
gs:_ZN9tesseract17AlignedBlobParamsC2Eiii
gs:_ZN9tesseract17AlignedBlobParamsC2EiiiiiiNS_12TabAlignmentE
gs:_ZN9tesseract17BlobMicroFeaturesEPNS_5TBLOBERKNS_6DENORME
gs:_ZN9tesseract17ColPartition_LIST9deep_copyEPKS0_PFPNS_12ColPartitionEPKS3_E
gs:_ZN9tesseract17ColSegment_zapperEPNS_10ELIST_LINKE
gs:_ZN9tesseract17FreeMicroFeaturesEPNS_8list_recE
gs:_ZN9tesseract17GetCPPadsForLevelEiPfS0_S0_
gs:_ZN9tesseract17LMConsistencyInfo25ComputeXheightConsistencyEPKNS_11BLOB_CHOICEEb
gs:_ZN9tesseract17LTRResultIterator16SetLineSeparatorEPKc
gs:_ZN9tesseract17LTRResultIterator21SetParagraphSeparatorEPKc
gs:_ZN9tesseract17LTRResultIteratorC1EPNS_8PAGE_RESEPNS_9TesseractEiiiiii
gs:_ZN9tesseract17LTRResultIteratorC2EPNS_8PAGE_RESEPNS_9TesseractEiiiiii
gs:_ZN9tesseract17LTRResultIteratorD0Ev
gs:_ZN9tesseract17LTRResultIteratorD1Ev
gs:_ZN9tesseract17LTRResultIteratorD2Ev
gs:_ZN9tesseract17MakeTempProtoPermEPvS0_
gs:_ZN9tesseract17NormalizeOutlineXEPNS_18FEATURE_SET_STRUCTE
gs:_ZN9tesseract17PicoFeatureLengthE
gs:_ZN9tesseract17SORTED_FLOAT_LIST9deep_copyEPKS0_PFPNS_12SORTED_FLOATEPKS3_E
gs:_ZN9tesseract17ScriptPosToStringENS_9ScriptPosE
gs:_ZN9tesseract17StandardDeviationEPNS_9PROTOTYPEEt
gs:_ZN9tesseract17WriteAdaptedClassEP8_IO_FILEPNS_18ADAPT_CLASS_STRUCTEi
gs:_ZN9tesseract17adjust_row_limitsEPNS_8TO_BLOCKE
gs:_ZN9tesseract17check_pitch_sync2EPNS_11BLOBNBOX_ITEsssPNS_5STATSEssfRsPNS_12FPSEGPT_LISTEss
gs:_ZN9tesseract17check_pitch_sync3EsssssPNS_5STATSEfRsPNS_12FPSEGPT_LISTEss
gs:_ZN9tesseract17compute_page_skewEPNS_13TO_BLOCK_LISTERfS2_
gs:_ZN9tesseract17compute_pitch_sd2EPNS_6TO_ROWEPNS_5STATSEssfRsS4_PNS_14ICOORDELT_LISTEbss
gs:_ZN9tesseract17compute_row_statsEPNS_8TO_BLOCKEb
gs:_ZN9tesseract17count_block_votesEPNS_8TO_BLOCKERiS2_S2_S2_S2_S2_S2_
gs:_ZN9tesseract17count_pitch_statsEPNS_6TO_ROWEPNS_5STATSES3_ffbbi
gs:_ZN9tesseract17find_cblob_limitsEPNS_6C_BLOBEffNS_6FCOORDERfS3_
gs:_ZN9tesseract17find_lesser_partsEPNS_6TO_ROWEPNS_4TBOXEiPcPiii
gs:_ZN9tesseract17fit_parallel_rowsEPNS_8TO_BLOCKEfNS_6FCOORDEib
gs:_ZN9tesseract17fixed_pitch_wordsEPNS_6TO_ROWENS_6FCOORDE
gs:_ZN9tesseract17initialise_searchERNS_13WERD_RES_LISTES1_
gs:_ZN9tesseract17kMicroFeatureTypeE
gs:_ZN9tesseract17loop_bounding_boxERPNS_9CRACKEDGEERNS_6ICOORDES4_
gs:_ZN9tesseract17merge_oldbl_partsEPNS_4TBOXEiPcPiif
gs:_ZN9tesseract17old_first_xheightEPNS_6TO_ROWEPNS_4TBOXEiiPNS_7QSPLINEEf
gs:_ZN9tesseract17outlines_to_blobsEPNS_5BLOCKENS_6ICOORDES2_PNS_14C_OUTLINE_LISTE
gs:_ZN9tesseract17read_spacing_infoEPNS_5TFileEPNS_8FontInfoE
gs:_ZN9tesseract17reject_whole_pageERNS_11PAGE_RES_ITE
gs:_ZN9tesseract17row_spacing_orderEPKvS1_
gs:_ZN9tesseract17textord_test_modeE
gs:_ZN9tesseract18ApproximateOutlineEbPNS_9C_OUTLINEE
gs:_ZN9tesseract18BLOB_CHOICE_zapperEPNS_10ELIST_LINKE
gs:_ZN9tesseract18EquationDetectBase17RenderSpecialTextEP3PixPNS_8BLOBNBOXE
gs:_ZN9tesseract18EquationDetectBaseD0Ev
gs:_ZN9tesseract18EquationDetectBaseD1Ev
gs:_ZN9tesseract18EquationDetectBaseD2Ev
gs:_ZN9tesseract18FillPPCircularBitsEPA2_jiffb
gs:_ZN9tesseract18FindMatchingChoiceEiPNS_16BLOB_CHOICE_LISTE
gs:_ZN9tesseract18INT_FEATURE_STRUCTC1ERKNS_6FCOORDEh
gs:_ZN9tesseract18INT_FEATURE_STRUCTC1Eiii
gs:_ZN9tesseract18INT_FEATURE_STRUCTC2ERKNS_6FCOORDEh
gs:_ZN9tesseract18INT_FEATURE_STRUCTC2Eiii
gs:_ZN9tesseract18LanguageModelState5ClearEv
gs:_ZN9tesseract18LanguageModelState5PrintEPKc
gs:_ZN9tesseract18LeftWordAttributesEPKNS_10UNICHARSETEPKNS_11WERD_CHOICEERKNS_6STRINGEPbS9_S9_
gs:_ZN9tesseract18NewCharDescriptionERKNS_19FEATURE_DEFS_STRUCTE
gs:_ZN9tesseract18SetBlobStrokeWidthEP3PixPNS_8BLOBNBOXE
gs:_ZN9tesseract18ShiroRekhaSplitter12PerformCloseEP3Pixi
gs:_ZN9tesseract18ShiroRekhaSplitter12set_orig_pixEP3Pix
gs:_ZN9tesseract18ShiroRekhaSplitter13GetModeHeightEP3Pix
gs:_ZN9tesseract18ShiroRekhaSplitter15GetXheightForCCEP3Box
gs:_ZN9tesseract18ShiroRekhaSplitter19SplitWordShiroRekhaENS0_13SplitStrategyEP3PixiiiP4Boxa
gs:_ZN9tesseract18ShiroRekhaSplitter21GetShiroRekhaYExtentsEP3PixPiS3_S3_
gs:_ZN9tesseract18ShiroRekhaSplitter31RefreshSegmentationWithNewBlobsEPNS_11C_BLOB_LISTE
gs:_ZN9tesseract18ShiroRekhaSplitter5ClearEv
gs:_ZN9tesseract18ShiroRekhaSplitter5SplitEbPNS_9DebugPixaE
gs:_ZN9tesseract18ShiroRekhaSplitterC1Ev
gs:_ZN9tesseract18ShiroRekhaSplitterC2Ev
gs:_ZN9tesseract18ShiroRekhaSplitterD0Ev
gs:_ZN9tesseract18ShiroRekhaSplitterD1Ev
gs:_ZN9tesseract18ShiroRekhaSplitterD2Ev
gs:_ZN9tesseract18TabConstraint_LIST9deep_copyEPKS0_PFPNS_13TabConstraintEPKS3_E
gs:_ZN9tesseract18TessResultRenderer10AppendDataEPKci
gs:_ZN9tesseract18TessResultRenderer11EndDocumentEv
gs:_ZN9tesseract18TessResultRenderer12AppendStringEPKc
gs:_ZN9tesseract18TessResultRenderer13BeginDocumentEPKc
gs:_ZN9tesseract18TessResultRenderer18EndDocumentHandlerEv
gs:_ZN9tesseract18TessResultRenderer20BeginDocumentHandlerEv
gs:_ZN9tesseract18TessResultRenderer6insertEPS0_
gs:_ZN9tesseract18TessResultRenderer8AddImageEPNS_11TessBaseAPIE
gs:_ZN9tesseract18TessResultRendererC1EPKcS2_
gs:_ZN9tesseract18TessResultRendererC2EPKcS2_
gs:_ZN9tesseract18TessResultRendererD0Ev
gs:_ZN9tesseract18TessResultRendererD1Ev
gs:_ZN9tesseract18TessResultRendererD2Ev
gs:_ZN9tesseract18TextlineProjection10PadBlobBoxEPNS_8BLOBNBOXEPNS_4TBOXE
gs:_ZN9tesseract18TextlineProjection12ProjectBlobsEPNS_13BLOBNBOX_LISTERKNS_6FCOORDERKNS_4TBOXEP3Pix
gs:_ZN9tesseract18TextlineProjection19ConstructProjectionEPNS_8TO_BLOCKERKNS_6FCOORDEP3Pix
gs:_ZN9tesseract18TextlineProjection22IncrementRectangle8BitERKNS_4TBOXE
gs:_ZN9tesseract18TextlineProjectionC1Ei
gs:_ZN9tesseract18TextlineProjectionC2Ei
gs:_ZN9tesseract18TextlineProjectionD1Ev
gs:_ZN9tesseract18TextlineProjectionD2Ev
gs:_ZN9tesseract18UnicodeSpanSkipper10SkipDigitsEi
gs:_ZN9tesseract18UnicodeSpanSkipper10SkipRomansEi
gs:_ZN9tesseract18UnicodeSpanSkipper8SkipPuncEi
gs:_ZN9tesseract18UnicodeSpanSkipper9SkipAlphaEi
gs:_ZN9tesseract18WERD_CHOICE_zapperEPNS_10ELIST_LINKE
gs:_ZN9tesseract18classify_max_slopeE
gs:_ZN9tesseract18classify_min_slopeE
gs:_ZN9tesseract18compute_rows_pitchEPNS_8TO_BLOCKEib
gs:_ZN9tesseract18create_fxdebug_winEv
gs:_ZN9tesseract18find_cblob_hlimitsEPNS_6C_BLOBEffRfS2_
gs:_ZN9tesseract18find_cblob_vlimitsEPNS_6C_BLOBEffRfS2_
gs:_ZN9tesseract18free_adapted_classEPNS_18ADAPT_CLASS_STRUCTE
gs:_ZN9tesseract18free_int_templatesEPNS_20INT_TEMPLATES_STRUCTE
gs:_ZN9tesseract18make_first_xheightEPNS_6TO_ROWEPNS_4TBOXEiiiPNS_7QSPLINEEf
gs:_ZN9tesseract18pitsync_fake_depthE
gs:_ZN9tesseract18print_block_countsEPNS_8TO_BLOCKEi
gs:_ZN9tesseract18print_ratings_listEPKcPNS_16BLOB_CHOICE_LISTERKNS_10UNICHARSETE
gs:_ZN9tesseract18textord_chop_widthE
gs:_ZN9tesseract18textord_debug_blobE
gs:_ZN9tesseract18textord_debug_bugsE
gs:_ZN9tesseract18tweak_row_baselineEPNS_3ROWEdd
gs:_ZN9tesseract18wordrec_blob_pauseE
gs:_ZN9tesseract18write_spacing_infoEP8_IO_FILERKNS_8FontInfoE
gs:_ZN9tesseract19ActualOutlineLengthEPNS_14FEATURE_STRUCTE
gs:_ZN9tesseract19AsciiLikelyListItemERKNS_6STRINGE
gs:_ZN9tesseract19BLOCK_RES_c1_zapperEPv
gs:_ZN9tesseract19C_OUTLINE_FRAG_LIST9deep_copyEPKS0_PFPNS_14C_OUTLINE_FRAGEPKS3_E
gs:_ZN9tesseract19ColPartition_zapperEPNS_11ELIST2_LINKE
gs:_ZN9tesseract19ExtractMicroFeatureEPNS_8list_recES1_
gs:_ZN9tesseract19FreeCharDescriptionEPNS_16CHAR_DESC_STRUCTE
gs:_ZN9tesseract19NextDirectionChangeEPNS_8list_recE
gs:_ZN9tesseract19OrientationDetector11detect_blobEPNS_16BLOB_CHOICE_LISTE
gs:_ZN9tesseract19OrientationDetector15get_orientationEv
gs:_ZN9tesseract19OrientationDetectorC1EPKSt6vectorIiSaIiEEPNS_9OSResultsE
gs:_ZN9tesseract19OrientationDetectorC2EPKSt6vectorIiSaIiEEPNS_9OSResultsE
gs:_ZN9tesseract19ReadCharDescriptionERKNS_19FEATURE_DEFS_STRUCTEP8_IO_FILE
gs:_ZN9tesseract19RightWordAttributesEPKNS_10UNICHARSETEPKNS_11WERD_CHOICEERKNS_6STRINGEPbS9_S9_
gs:_ZN9tesseract19RowScratchRegisters11AddBodyLineEPKNS_14ParagraphModelE
gs:_ZN9tesseract19RowScratchRegisters11SetBodyLineEv
gs:_ZN9tesseract19RowScratchRegisters12AddStartLineEPKNS_14ParagraphModelE
gs:_ZN9tesseract19RowScratchRegisters12SetStartLineEv
gs:_ZN9tesseract19RowScratchRegisters23AppendDebugHeaderFieldsEPSt6vectorINS_6STRINGESaIS2_EE
gs:_ZN9tesseract19RowScratchRegisters28DiscardNonMatchingHypothesesERKNS_13GenericVectorIPKNS_14ParagraphModelEEE
gs:_ZN9tesseract19RowScratchRegisters4InitERKNS_7RowInfoE
gs:_ZN9tesseract19SORTED_FLOAT_zapperEPNS_10ELIST_LINKE
gs:_ZN9tesseract19TabVector_c1_zapperEPv
gs:_ZN9tesseract19TessBoxTextRenderer15AddImageHandlerEPNS_11TessBaseAPIE
gs:_ZN9tesseract19TessBoxTextRendererC1EPKc
gs:_ZN9tesseract19TessBoxTextRendererC2EPKc
gs:_ZN9tesseract19TessLSTMBoxRenderer15AddImageHandlerEPNS_11TessBaseAPIE
gs:_ZN9tesseract19TessLSTMBoxRendererC1EPKc
gs:_ZN9tesseract19TessLSTMBoxRendererC2EPKc
gs:_ZN9tesseract19TrainingSample_LIST9deep_copyEPKS0_PFPNS_14TrainingSampleEPKS3_E
gs:_ZN9tesseract19WorkingPartSet_LIST9deep_copyEPKS0_PFPNS_14WorkingPartSetEPKS3_E
gs:_ZN9tesseract19cleanup_rows_makingENS_6ICOORDEPNS_8TO_BLOCKEfNS_6FCOORDEib
gs:_ZN9tesseract19compute_block_pitchEPNS_8TO_BLOCKENS_6FCOORDEib
gs:_ZN9tesseract19compute_fixed_pitchENS_6ICOORDEPNS_13TO_BLOCK_LISTEfNS_6FCOORDEb
gs:_ZN9tesseract19correct_row_xheightEPNS_6TO_ROWEfff
gs:_ZN9tesseract19deskew_block_coordsEPNS_8TO_BLOCKEf
gs:_ZN9tesseract19find_repeated_charsEPNS_8TO_BLOCKEb
gs:_ZN9tesseract19insert_spline_pointEPiiiiRi
gs:_ZN9tesseract19make_first_baselineEPNS_4TBOXEiPiS2_PNS_7QSPLINEES4_f
gs:_ZN9tesseract19make_holed_baselineEPNS_4TBOXEiPNS_7QSPLINEES3_f
gs:_ZN9tesseract19mark_repeated_charsEPNS_6TO_ROWE
gs:_ZN9tesseract19pitsync_joined_edgeE
gs:_ZN9tesseract19pre_associate_blobsENS_6ICOORDEPNS_8TO_BLOCKENS_6FCOORDEb
