UNKNOWN:_ZTIN3fcn11SDLGraphicsE
UNKNOWN:_ZTIN3fcn14OpenGLGraphicsE
UNKNOWN:_ZTIN3fcn4FontE
UNKNOWN:_ZTIN3fcn4IconE
UNKNOWN:_ZTIN3fcn5ImageE
UNKNOWN:_ZTIN3fcn6WidgetE
UNKNOWN:_ZTIN3fcn6WindowE
UNKNOWN:_ZTIN3fcn9ContainerE
UNKNOWN:_ZTIN3fcn9TextFieldE
UNKNOWN:_ZTIN5boost10filesystem16filesystem_errorE
UNKNOWN:_ZTV13TiXmlDocument
UNKNOWN:_ZTVN3fcn10CurveGraphE
UNKNOWN:_ZTVN3fcn10PointGraphE
UNKNOWN:_ZTVN3fcn6SliderE
UNKNOWN:_ZTVN3fcn7ListBoxE
UNKNOWN:_ZTVN3fcn8BarGraphE
UNKNOWN:_ZTVN3fcn8GraphicsE
UNKNOWN:_ZTVN3fcn8PieGraphE
UNKNOWN:_ZTVN3fcn9LineGraphE
libGL.so.1:glAlphaFunc
libGL.so.1:glBindTexture
libGL.so.1:glBlendFunc
libGL.so.1:glClear
libGL.so.1:glClearColor
libGL.so.1:glClearDepth
libGL.so.1:glClearStencil
libGL.so.1:glColor4ub
libGL.so.1:glColorMaterial
libGL.so.1:glColorPointer
libGL.so.1:glCopyTexImage2D
libGL.so.1:glCullFace
libGL.so.1:glDeleteTextures
libGL.so.1:glDepthFunc
libGL.so.1:glDisable
libGL.so.1:glDisableClientState
libGL.so.1:glDrawArrays
libGL.so.1:glDrawElements
libGL.so.1:glEnable
libGL.so.1:glEnableClientState
libGL.so.1:glFrontFace
libGL.so.1:glGenTextures
libGL.so.1:glGetIntegerv
libGL.so.1:glGetTexImage
libGL.so.1:glLightfv
libGL.so.1:glLineWidth
libGL.so.1:glLoadIdentity
libGL.so.1:glMatrixMode
libGL.so.1:glOrtho
libGL.so.1:glPixelStorei
libGL.so.1:glPointSize
libGL.so.1:glPopMatrix
libGL.so.1:glPushMatrix
libGL.so.1:glReadPixels
libGL.so.1:glScissor
libGL.so.1:glStencilFunc
libGL.so.1:glStencilOp
libGL.so.1:glTexCoordPointer
libGL.so.1:glTexEnvfv
libGL.so.1:glTexEnvi
libGL.so.1:glTexImage2D
libGL.so.1:glTexParameteri
libGL.so.1:glTexSubImage2D
libGL.so.1:glTranslatef
libGL.so.1:glVertexPointer
libGL.so.1:glViewport
libGLEW.so.2.1:__GLEW_ARB_texture_compression
libGLEW.so.2.1:__GLEW_ARB_texture_non_power_of_two
libGLEW.so.2.1:__GLEW_EXT_framebuffer_object
libGLEW.so.2.1:__GLEW_EXT_texture_filter_anisotropic
libGLEW.so.2.1:__glewActiveTexture
libGLEW.so.2.1:__glewBindFramebufferEXT
libGLEW.so.2.1:__glewClientActiveTexture
libGLEW.so.2.1:__glewDeleteFramebuffers
libGLEW.so.2.1:__glewFramebufferTexture2DEXT
libGLEW.so.2.1:__glewGenFramebuffers
libGLEW.so.2.1:glewExperimental
libGLEW.so.2.1:glewGetErrorString
libGLEW.so.2.1:glewInit
libSDL2-2.0.so.0:SDL_ConvertSurface
libSDL2-2.0.so.0:SDL_CreateColorCursor
libSDL2-2.0.so.0:SDL_CreateRGBSurface
libSDL2-2.0.so.0:SDL_CreateRenderer
libSDL2-2.0.so.0:SDL_CreateSystemCursor
libSDL2-2.0.so.0:SDL_CreateTexture
libSDL2-2.0.so.0:SDL_CreateTextureFromSurface
libSDL2-2.0.so.0:SDL_CreateWindow
libSDL2-2.0.so.0:SDL_Delay
libSDL2-2.0.so.0:SDL_DestroyRenderer
libSDL2-2.0.so.0:SDL_DestroyTexture
libSDL2-2.0.so.0:SDL_DestroyWindow
libSDL2-2.0.so.0:SDL_FillRect
libSDL2-2.0.so.0:SDL_FreeCursor
libSDL2-2.0.so.0:SDL_FreeRW
libSDL2-2.0.so.0:SDL_FreeSurface
libSDL2-2.0.so.0:SDL_GL_CreateContext
libSDL2-2.0.so.0:SDL_GL_DeleteContext
libSDL2-2.0.so.0:SDL_GL_MakeCurrent
libSDL2-2.0.so.0:SDL_GL_SetAttribute
libSDL2-2.0.so.0:SDL_GL_SetSwapInterval
libSDL2-2.0.so.0:SDL_GL_SwapWindow
libSDL2-2.0.so.0:SDL_GameControllerAddMapping
libSDL2-2.0.so.0:SDL_GameControllerAddMappingsFromRW
libSDL2-2.0.so.0:SDL_GameControllerClose
libSDL2-2.0.so.0:SDL_GameControllerEventState
libSDL2-2.0.so.0:SDL_GameControllerGetAxis
libSDL2-2.0.so.0:SDL_GameControllerGetButton
libSDL2-2.0.so.0:SDL_GameControllerMappingForGUID
libSDL2-2.0.so.0:SDL_GameControllerNameForIndex
libSDL2-2.0.so.0:SDL_GameControllerOpen
libSDL2-2.0.so.0:SDL_GetClipboardText
libSDL2-2.0.so.0:SDL_GetClosestDisplayMode
libSDL2-2.0.so.0:SDL_GetCurrentVideoDriver
libSDL2-2.0.so.0:SDL_GetDesktopDisplayMode
libSDL2-2.0.so.0:SDL_GetDisplayBounds
libSDL2-2.0.so.0:SDL_GetDisplayMode
libSDL2-2.0.so.0:SDL_GetDisplayName
libSDL2-2.0.so.0:SDL_GetError
libSDL2-2.0.so.0:SDL_GetKeyName
libSDL2-2.0.so.0:SDL_GetMouseState
libSDL2-2.0.so.0:SDL_GetNumDisplayModes
libSDL2-2.0.so.0:SDL_GetNumRenderDrivers
libSDL2-2.0.so.0:SDL_GetNumVideoDisplays
libSDL2-2.0.so.0:SDL_GetNumVideoDrivers
libSDL2-2.0.so.0:SDL_GetPlatform
libSDL2-2.0.so.0:SDL_GetRGBA
libSDL2-2.0.so.0:SDL_GetRenderDriverInfo
libSDL2-2.0.so.0:SDL_GetTicks
libSDL2-2.0.so.0:SDL_GetVideoDriver
libSDL2-2.0.so.0:SDL_GetWindowSurface
libSDL2-2.0.so.0:SDL_HasClipboardText
libSDL2-2.0.so.0:SDL_Init
libSDL2-2.0.so.0:SDL_InitSubSystem
libSDL2-2.0.so.0:SDL_IsGameController
libSDL2-2.0.so.0:SDL_JoystickClose
libSDL2-2.0.so.0:SDL_JoystickEventState
libSDL2-2.0.so.0:SDL_JoystickGetAttached
libSDL2-2.0.so.0:SDL_JoystickGetAxis
libSDL2-2.0.so.0:SDL_JoystickGetButton
libSDL2-2.0.so.0:SDL_JoystickGetDeviceGUID
libSDL2-2.0.so.0:SDL_JoystickGetGUIDFromString
libSDL2-2.0.so.0:SDL_JoystickGetGUIDString
libSDL2-2.0.so.0:SDL_JoystickGetHat
libSDL2-2.0.so.0:SDL_JoystickInstanceID
libSDL2-2.0.so.0:SDL_JoystickNameForIndex
libSDL2-2.0.so.0:SDL_JoystickNumAxes
libSDL2-2.0.so.0:SDL_JoystickNumButtons
libSDL2-2.0.so.0:SDL_JoystickNumHats
libSDL2-2.0.so.0:SDL_JoystickOpen
libSDL2-2.0.so.0:SDL_LockSurface
libSDL2-2.0.so.0:SDL_MapRGB
libSDL2-2.0.so.0:SDL_MapRGBA
libSDL2-2.0.so.0:SDL_NumJoysticks
libSDL2-2.0.so.0:SDL_PollEvent
libSDL2-2.0.so.0:SDL_PumpEvents
libSDL2-2.0.so.0:SDL_Quit
libSDL2-2.0.so.0:SDL_QuitSubSystem
libSDL2-2.0.so.0:SDL_RWFromConstMem
libSDL2-2.0.so.0:SDL_RenderClear
libSDL2-2.0.so.0:SDL_RenderCopy
libSDL2-2.0.so.0:SDL_RenderDrawLine
libSDL2-2.0.so.0:SDL_RenderDrawPoint
libSDL2-2.0.so.0:SDL_RenderDrawRect
libSDL2-2.0.so.0:SDL_RenderFillRect
libSDL2-2.0.so.0:SDL_RenderPresent
libSDL2-2.0.so.0:SDL_RenderSetClipRect
libSDL2-2.0.so.0:SDL_SetClipboardText
libSDL2-2.0.so.0:SDL_SetColorKey
libSDL2-2.0.so.0:SDL_SetCursor
libSDL2-2.0.so.0:SDL_SetHint
libSDL2-2.0.so.0:SDL_SetRenderDrawBlendMode
libSDL2-2.0.so.0:SDL_SetRenderDrawColor
libSDL2-2.0.so.0:SDL_SetRenderTarget
libSDL2-2.0.so.0:SDL_SetSurfaceBlendMode
libSDL2-2.0.so.0:SDL_SetTextureAlphaMod
libSDL2-2.0.so.0:SDL_SetTextureColorMod
libSDL2-2.0.so.0:SDL_SetWindowDisplayMode
libSDL2-2.0.so.0:SDL_SetWindowIcon
libSDL2-2.0.so.0:SDL_SetWindowTitle
libSDL2-2.0.so.0:SDL_ShowCursor
libSDL2-2.0.so.0:SDL_UnlockSurface
libSDL2-2.0.so.0:SDL_UpperBlit
libSDL2-2.0.so.0:SDL_VideoInit
libSDL2-2.0.so.0:SDL_WarpMouseInWindow
libSDL2-2.0.so.0:SDL_free
libSDL2_image-2.0.so.0:IMG_Load
libSDL2_image-2.0.so.0:IMG_Load_RW
libSDL2_ttf-2.0.so.0:TTF_CloseFont
libSDL2_ttf-2.0.so.0:TTF_FontHeight
libSDL2_ttf-2.0.so.0:TTF_Init
libSDL2_ttf-2.0.so.0:TTF_OpenFont
libSDL2_ttf-2.0.so.0:TTF_Quit
libSDL2_ttf-2.0.so.0:TTF_RenderUTF8_Blended
libSDL2_ttf-2.0.so.0:TTF_RenderUTF8_Solid
libSDL2_ttf-2.0.so.0:TTF_SetFontStyle
libSDL2_ttf-2.0.so.0:TTF_SizeUTF8
libboost_filesystem.so.1.72.0:_ZN5boost10filesystem4path25m_path_iterator_incrementERNS1_8iteratorE
libboost_filesystem.so.1.72.0:_ZN5boost10filesystem4pathdVERKS1_
libboost_filesystem.so.1.72.0:_ZN5boost10filesystem6detail12current_pathEPNS_6system10error_codeE
libboost_filesystem.so.1.72.0:_ZN5boost10filesystem6detail13dir_itr_closeERPvS3_
libboost_filesystem.so.1.72.0:_ZN5boost10filesystem6detail28directory_iterator_constructERNS0_18directory_iteratorERKNS0_4pathEjPNS_6system10error_codeE
libboost_filesystem.so.1.72.0:_ZN5boost10filesystem6detail28directory_iterator_incrementERNS0_18directory_iteratorEPNS_6system10error_codeE
libboost_filesystem.so.1.72.0:_ZN5boost10filesystem6detail6statusERKNS0_4pathEPNS_6system10error_codeE
libboost_filesystem.so.1.72.0:_ZN5boost10filesystem8absoluteERKNS0_4pathES3_
libboost_filesystem.so.1.72.0:_ZNK5boost10filesystem15directory_entry10get_statusEPNS_6system10error_codeE
libboost_filesystem.so.1.72.0:_ZNK5boost10filesystem4path11parent_pathEv
libboost_filesystem.so.1.72.0:_ZNK5boost10filesystem4path3endEv
libboost_filesystem.so.1.72.0:_ZNK5boost10filesystem4path4stemEv
libboost_filesystem.so.1.72.0:_ZNK5boost10filesystem4path5beginEv
libboost_filesystem.so.1.72.0:_ZNK5boost10filesystem4path8filenameEv
libboost_filesystem.so.1.72.0:_ZNK5boost10filesystem4path9extensionEv
libc.so.6:__cxa_atexit
libc.so.6:__isoc99_sscanf
libc.so.6:__libc_single_threaded
libc.so.6:__longjmp_chk
libc.so.6:__printf_chk
libc.so.6:__snprintf_chk
libc.so.6:__sprintf_chk
libc.so.6:__stack_chk_fail
libc.so.6:_setjmp
libc.so.6:abort
libc.so.6:fclose
libc.so.6:fopen
libc.so.6:fputs
libc.so.6:free
libc.so.6:ispunct
libc.so.6:isspace
libc.so.6:malloc
libc.so.6:memcmp
libc.so.6:memcpy
libc.so.6:memmove
libc.so.6:memset
libc.so.6:strchr
libc.so.6:strcmp
libc.so.6:strerror_r
libc.so.6:strlen
libc.so.6:strncmp
libc.so.6:strncpy
libc.so.6:strstr
libc.so.6:vsnprintf
libfifechan.so.0.1.5:_ZN3fcn10CurveGraph12setThicknessEj
libfifechan.so.0.1.5:_ZN3fcn10CurveGraph14setPointVectorERKSt6vectorINS_5PointESaIS2_EE
libfifechan.so.0.1.5:_ZN3fcn10CurveGraph16resetPointVectorEv
libfifechan.so.0.1.5:_ZN3fcn10CurveGraph26setAutomaticControllPointsEb
libfifechan.so.0.1.5:_ZN3fcn10CurveGraph9setOpaqueEb
libfifechan.so.0.1.5:_ZN3fcn10CurveGraphC1ERKSt6vectorINS_5PointESaIS2_EE
libfifechan.so.0.1.5:_ZN3fcn10CurveGraphC1Ev
libfifechan.so.0.1.5:_ZN3fcn10InputEvent7consumeEv
libfifechan.so.0.1.5:_ZN3fcn10PointGraph12setThicknessEj
libfifechan.so.0.1.5:_ZN3fcn10PointGraph14setPointVectorERKSt6vectorINS_5PointESaIS2_EE
libfifechan.so.0.1.5:_ZN3fcn10PointGraph16resetPointVectorEv
libfifechan.so.0.1.5:_ZN3fcn10PointGraph9setOpaqueEb
libfifechan.so.0.1.5:_ZN3fcn10PointGraphC1ERKSt6vectorINS_5PointESaIS2_EE
libfifechan.so.0.1.5:_ZN3fcn10PointGraphC1Ev
libfifechan.so.0.1.5:_ZN3fcn10ScrollArea10setContentEPNS_6WidgetE
libfifechan.so.0.1.5:_ZN3fcn10ScrollArea15setScrollAmountEii
libfifechan.so.0.1.5:_ZN3fcn10ScrollArea15setScrollPolicyENS0_12ScrollPolicyES1_
libfifechan.so.0.1.5:_ZN3fcn10ScrollArea17setScrollbarWidthEi
libfifechan.so.0.1.5:_ZN3fcn10ScrollArea20getVerticalMaxScrollEv
libfifechan.so.0.1.5:_ZN3fcn10ScrollArea22getHorizontalMaxScrollEv
libfifechan.so.0.1.5:_ZN3fcn10ScrollArea23setUpButtonScrollAmountEi
libfifechan.so.0.1.5:_ZN3fcn10ScrollArea23setVerticalScrollAmountEi
libfifechan.so.0.1.5:_ZN3fcn10ScrollArea23setVerticalScrollPolicyENS0_12ScrollPolicyE
libfifechan.so.0.1.5:_ZN3fcn10ScrollArea25setDownButtonScrollAmountEi
libfifechan.so.0.1.5:_ZN3fcn10ScrollArea25setHorizontalScrollAmountEi
libfifechan.so.0.1.5:_ZN3fcn10ScrollArea25setHorizontalScrollPolicyENS0_12ScrollPolicyE
libfifechan.so.0.1.5:_ZN3fcn10ScrollArea25setLeftButtonScrollAmountEi
libfifechan.so.0.1.5:_ZN3fcn10ScrollArea26setRightButtonScrollAmountEi
libfifechan.so.0.1.5:_ZN3fcn10ScrollAreaC1EPNS_6WidgetE
libfifechan.so.0.1.5:_ZN3fcn10ScrollAreaC1EPNS_6WidgetENS0_12ScrollPolicyES3_
libfifechan.so.0.1.5:_ZN3fcn10ScrollAreaC1Ev
libfifechan.so.0.1.5:_ZN3fcn10TabbedArea12setBaseColorERKNS_5ColorE
libfifechan.so.0.1.5:_ZN3fcn10TabbedArea19getBackgroundWidgetEv
libfifechan.so.0.1.5:_ZN3fcn10TabbedArea19setBackgroundWidgetEPNS_6WidgetE
libfifechan.so.0.1.5:_ZN3fcn10TabbedArea9setLayoutENS_9Container12LayoutPolicyE
libfifechan.so.0.1.5:_ZN3fcn10TabbedArea9setOpaqueEb
libfifechan.so.0.1.5:_ZN3fcn10TabbedAreaC1Ev
libfifechan.so.0.1.5:_ZN3fcn11ImageButton10setUpImageEPKNS_5ImageE
libfifechan.so.0.1.5:_ZN3fcn11ImageButton12setDownImageEPKNS_5ImageE
libfifechan.so.0.1.5:_ZN3fcn11ImageButton13setHoverImageEPKNS_5ImageE
libfifechan.so.0.1.5:_ZN3fcn11ImageButton18setInactiveUpImageEPKNS_5ImageE
libfifechan.so.0.1.5:_ZN3fcn11ImageButton20setInactiveDownImageEPKNS_5ImageE
libfifechan.so.0.1.5:_ZN3fcn11ImageButton21setInactiveHoverImageEPKNS_5ImageE
libfifechan.so.0.1.5:_ZN3fcn11ImageButtonC1EPKNS_5ImageE
libfifechan.so.0.1.5:_ZN3fcn11ImageButtonC1Ev
libfifechan.so.0.1.5:_ZN3fcn11RadioButton8setGroupERKNSt7__cxx1112basic_stringIcSt11char_traitsIcESaIcEEE
libfifechan.so.0.1.5:_ZN3fcn11RadioButtonC1ERKNSt7__cxx1112basic_stringIcSt11char_traitsIcESaIcEEES8_b
libfifechan.so.0.1.5:_ZN3fcn11RadioButtonC1Ev
libfifechan.so.0.1.5:_ZN3fcn12ToggleButton8setGroupERKNSt7__cxx1112basic_stringIcSt11char_traitsIcESaIcEEE
libfifechan.so.0.1.5:_ZN3fcn12ToggleButtonC1ERKNSt7__cxx1112basic_stringIcSt11char_traitsIcESaIcEEES8_b
libfifechan.so.0.1.5:_ZN3fcn12ToggleButtonC1Ev
libfifechan.so.0.1.5:_ZN3fcn13FlowContainerC1Ev
libfifechan.so.0.1.5:_ZN3fcn13PasswordFieldC1ERKNSt7__cxx1112basic_stringIcSt11char_traitsIcESaIcEEE
libfifechan.so.0.1.5:_ZN3fcn15IconProgressBar11setMaxIconsEi
libfifechan.so.0.1.5:_ZN3fcn15IconProgressBar12setIconCountEi
libfifechan.so.0.1.5:_ZN3fcn15IconProgressBar14setOrientationENS0_11OrientationE
libfifechan.so.0.1.5:_ZN3fcn15IconProgressBar5resetEv
libfifechan.so.0.1.5:_ZN3fcn15IconProgressBar7advanceEv
libfifechan.so.0.1.5:_ZN3fcn15IconProgressBar8setImageEPNS_5ImageE
libfifechan.so.0.1.5:_ZN3fcn15IconProgressBar9setOpaqueEb
libfifechan.so.0.1.5:_ZN3fcn15IconProgressBarC1EPNS_5ImageEi
libfifechan.so.0.1.5:_ZN3fcn15IconProgressBarC1Ev
libfifechan.so.0.1.5:_ZN3fcn16ImageProgressBar11setBarImageEPNS_5ImageE
libfifechan.so.0.1.5:_ZN3fcn16ImageProgressBar11setMaxValueEi
libfifechan.so.0.1.5:_ZN3fcn16ImageProgressBar14setOrientationENS0_11OrientationE
libfifechan.so.0.1.5:_ZN3fcn16ImageProgressBar18setForegroundImageEPNS_5ImageE
libfifechan.so.0.1.5:_ZN3fcn16ImageProgressBar8setValueEi
libfifechan.so.0.1.5:_ZN3fcn16ImageProgressBar9setOpaqueEb
libfifechan.so.0.1.5:_ZN3fcn16ImageProgressBarC1EPNS_5ImageEi
libfifechan.so.0.1.5:_ZN3fcn16ImageProgressBarC1Ev
libfifechan.so.0.1.5:_ZN3fcn18AdjustingContainerC1Ev
libfifechan.so.0.1.5:_ZN3fcn3GuiC1Ev
libfifechan.so.0.1.5:_ZN3fcn3Tab13getTabbedAreaEv
libfifechan.so.0.1.5:_ZN3fcn3Tab13setTabbedAreaEPNS_10TabbedAreaE
libfifechan.so.0.1.5:_ZN3fcn3TabC1Ev
libfifechan.so.0.1.5:_ZN3fcn4Icon10adjustSizeEv
libfifechan.so.0.1.5:_ZN3fcn4Icon10setScalingEb
libfifechan.so.0.1.5:_ZN3fcn4Icon15resizeToContentEb
libfifechan.so.0.1.5:_ZN3fcn4Icon4drawEPNS_8GraphicsE
libfifechan.so.0.1.5:_ZN3fcn4Icon8setImageEPKNS_5ImageE
libfifechan.so.0.1.5:_ZN3fcn4Icon9setOpaqueEb
libfifechan.so.0.1.5:_ZN3fcn4Icon9setTilingEb
libfifechan.so.0.1.5:_ZN3fcn4IconC1EPKNS_5ImageE
libfifechan.so.0.1.5:_ZN3fcn4IconC2Ev
libfifechan.so.0.1.5:_ZN3fcn4IconD2Ev
libfifechan.so.0.1.5:_ZN3fcn4Size8setWidthEi
libfifechan.so.0.1.5:_ZN3fcn4Size9setHeightEi
libfifechan.so.0.1.5:_ZN3fcn4SizeC1Eii
libfifechan.so.0.1.5:_ZN3fcn4SizeD1Ev
libfifechan.so.0.1.5:_ZN3fcn5ColorC1Ei
libfifechan.so.0.1.5:_ZN3fcn5ColorC1Eiiii
libfifechan.so.0.1.5:_ZN3fcn5ColorC1Ev
libfifechan.so.0.1.5:_ZN3fcn5Image14setImageLoaderEPNS_11ImageLoaderE
libfifechan.so.0.1.5:_ZN3fcn5Image4loadERKNSt7__cxx1112basic_stringIcSt11char_traitsIcESaIcEEEb
libfifechan.so.0.1.5:_ZN3fcn5ImageC2Ev
libfifechan.so.0.1.5:_ZN3fcn5ImageD2Ev
libfifechan.so.0.1.5:_ZN3fcn5Label10setCaptionERKNSt7__cxx1112basic_stringIcSt11char_traitsIcESaIcEEE
libfifechan.so.0.1.5:_ZN3fcn5LabelC1Ev
libfifechan.so.0.1.5:_ZN3fcn6Button10setCaptionERKNSt7__cxx1112basic_stringIcSt11char_traitsIcESaIcEEE
libfifechan.so.0.1.5:_ZN3fcn6Button12setAlignmentENS_8Graphics9AlignmentE
libfifechan.so.0.1.5:_ZN3fcn6Button13setDownOffsetEii
libfifechan.so.0.1.5:_ZN3fcn6Button14setDownXOffsetEi
libfifechan.so.0.1.5:_ZN3fcn6Button14setDownYOffsetEi
libfifechan.so.0.1.5:_ZN3fcn6Button9setActiveEb
libfifechan.so.0.1.5:_ZN3fcn6ButtonC1ERKNSt7__cxx1112basic_stringIcSt11char_traitsIcESaIcEEE
libfifechan.so.0.1.5:_ZN3fcn6ButtonC1Ev
libfifechan.so.0.1.5:_ZN3fcn6Slider11setScaleEndEd
libfifechan.so.0.1.5:_ZN3fcn6Slider13setScaleStartEd
libfifechan.so.0.1.5:_ZN3fcn6Slider13setStepLengthEd
libfifechan.so.0.1.5:_ZN3fcn6Slider14setOrientationENS0_11OrientationE
libfifechan.so.0.1.5:_ZN3fcn6Slider15setMarkerLengthEi
libfifechan.so.0.1.5:_ZN3fcn6Slider8setScaleEdd
libfifechan.so.0.1.5:_ZN3fcn6Slider8setValueEd
libfifechan.so.0.1.5:_ZN3fcn6SliderC1Ed
libfifechan.so.0.1.5:_ZN3fcn6SliderC1Edd
libfifechan.so.0.1.5:_ZN3fcn6SpacerC1Ev
libfifechan.so.0.1.5:_ZN3fcn6Widget10_setParentEPS0_
libfifechan.so.0.1.5:_ZN3fcn6Widget10drawBorderEPNS_8GraphicsE
libfifechan.so.0.1.5:_ZN3fcn6Widget10setEnabledEb
libfifechan.so.0.1.5:_ZN3fcn6Widget10setMaxSizeERKNS_4SizeE
libfifechan.so.0.1.5:_ZN3fcn6Widget10setMinSizeERKNS_4SizeE
libfifechan.so.0.1.5:_ZN3fcn6Widget10setPaddingEj
libfifechan.so.0.1.5:_ZN3fcn6Widget10setVisibleEb
libfifechan.so.0.1.5:_ZN3fcn6Widget11adaptLayoutEb
libfifechan.so.0.1.5:_ZN3fcn6Widget11drawOutlineEPNS_8GraphicsE
libfifechan.so.0.1.5:_ZN3fcn6Widget11getWidgetAtEiiPS0_
libfifechan.so.0.1.5:_ZN3fcn6Widget11setPositionEii
libfifechan.so.0.1.5:_ZN3fcn6Widget12getWidgetsInB5cxx11ERKNS_9RectangleEPS0_
libfifechan.so.0.1.5:_ZN3fcn6Widget12moveToBottomEPS0_
libfifechan.so.0.1.5:_ZN3fcn6Widget12requestFocusEv
libfifechan.so.0.1.5:_ZN3fcn6Widget12setBaseColorERKNS_5ColorE
libfifechan.so.0.1.5:_ZN3fcn6Widget12setDimensionERKNS_9RectangleE
libfifechan.so.0.1.5:_ZN3fcn6Widget12setFixedSizeERKNS_4SizeE
libfifechan.so.0.1.5:_ZN3fcn6Widget12setFocusableEb
libfifechan.so.0.1.5:_ZN3fcn6Widget12setMarginTopEi
libfifechan.so.0.1.5:_ZN3fcn6Widget13focusPreviousEv
libfifechan.so.0.1.5:_ZN3fcn6Widget13setBorderSizeEj
libfifechan.so.0.1.5:_ZN3fcn6Widget13setGlobalFontEPNS_4FontE
libfifechan.so.0.1.5:_ZN3fcn6Widget13setMarginLeftEi
libfifechan.so.0.1.5:_ZN3fcn6Widget13setPaddingTopEj
libfifechan.so.0.1.5:_ZN3fcn6Widget14addKeyListenerEPNS_11KeyListenerE
libfifechan.so.0.1.5:_ZN3fcn6Widget14findWidgetByIdERKNSt7__cxx1112basic_stringIcSt11char_traitsIcESaIcEEE
libfifechan.so.0.1.5:_ZN3fcn6Widget14setBorderColorERKNS_5ColorE
libfifechan.so.0.1.5:_ZN3fcn6Widget14setMarginRightEi
libfifechan.so.0.1.5:_ZN3fcn6Widget14setOutlineSizeEj
libfifechan.so.0.1.5:_ZN3fcn6Widget14setPaddingLeftEj
libfifechan.so.0.1.5:_ZN3fcn6Widget14showWidgetPartEPS0_NS_9RectangleE
libfifechan.so.0.1.5:_ZN3fcn6Widget15getChildrenAreaEv
libfifechan.so.0.1.5:_ZN3fcn6Widget15setMarginBottomEi
libfifechan.so.0.1.5:_ZN3fcn6Widget15setOutlineColorERKNS_5ColorE
libfifechan.so.0.1.5:_ZN3fcn6Widget15setPaddingRightEj
libfifechan.so.0.1.5:_ZN3fcn6Widget15setTabInEnabledEb
libfifechan.so.0.1.5:_ZN3fcn6Widget16_getFocusHandlerEv
libfifechan.so.0.1.5:_ZN3fcn6Widget16_getKeyListenersB5cxx11Ev
libfifechan.so.0.1.5:_ZN3fcn6Widget16_setFocusHandlerEPNS_12FocusHandlerE
libfifechan.so.0.1.5:_ZN3fcn6Widget16addFocusListenerEPNS_13FocusListenerE
libfifechan.so.0.1.5:_ZN3fcn6Widget16addMouseListenerEPNS_13MouseListenerE
libfifechan.so.0.1.5:_ZN3fcn6Widget16requestMoveToTopEv
libfifechan.so.0.1.5:_ZN3fcn6Widget16setActionEventIdERKNSt7__cxx1112basic_stringIcSt11char_traitsIcESaIcEEE
libfifechan.so.0.1.5:_ZN3fcn6Widget16setPaddingBottomEj
libfifechan.so.0.1.5:_ZN3fcn6Widget16setSelectionModeENS0_13SelectionModeE
libfifechan.so.0.1.5:_ZN3fcn6Widget16setTabOutEnabledEb
libfifechan.so.0.1.5:_ZN3fcn6Widget17addActionListenerEPNS_14ActionListenerE
libfifechan.so.0.1.5:_ZN3fcn6Widget17addWidgetListenerEPNS_14WidgetListenerE
libfifechan.so.0.1.5:_ZN3fcn6Widget17releaseModalFocusEv
libfifechan.so.0.1.5:_ZN3fcn6Widget17removeKeyListenerEPNS_11KeyListenerE
libfifechan.so.0.1.5:_ZN3fcn6Widget17requestModalFocusEv
libfifechan.so.0.1.5:_ZN3fcn6Widget17setSelectionColorERKNS_5ColorE
libfifechan.so.0.1.5:_ZN3fcn6Widget17setVerticalExpandEb
libfifechan.so.0.1.5:_ZN3fcn6Widget18_getFocusListenersB5cxx11Ev
libfifechan.so.0.1.5:_ZN3fcn6Widget18_getMouseListenersB5cxx11Ev
libfifechan.so.0.1.5:_ZN3fcn6Widget18drawSelectionFrameEPNS_8GraphicsE
libfifechan.so.0.1.5:_ZN3fcn6Widget18setBackgroundColorERKNS_5ColorE
libfifechan.so.0.1.5:_ZN3fcn6Widget18setForegroundColorERKNS_5ColorE
libfifechan.so.0.1.5:_ZN3fcn6Widget19removeMouseListenerEPNS_13MouseListenerE
libfifechan.so.0.1.5:_ZN3fcn6Widget19requestMoveToBottomEv
libfifechan.so.0.1.5:_ZN3fcn6Widget19setHorizontalExpandEb
libfifechan.so.0.1.5:_ZN3fcn6Widget20removeActionListenerEPNS_14ActionListenerE
libfifechan.so.0.1.5:_ZN3fcn6Widget20removeWidgetListenerEPNS_14WidgetListenerE
libfifechan.so.0.1.5:_ZN3fcn6Widget21distributeActionEventEv
libfifechan.so.0.1.5:_ZN3fcn6Widget24_getInternalFocusHandlerEv
libfifechan.so.0.1.5:_ZN3fcn6Widget27releaseModalMouseInputFocusEv
libfifechan.so.0.1.5:_ZN3fcn6Widget27requestModalMouseInputFocusEv
libfifechan.so.0.1.5:_ZN3fcn6Widget4setXEi
libfifechan.so.0.1.5:_ZN3fcn6Widget4setYEi
libfifechan.so.0.1.5:_ZN3fcn6Widget5_drawEPNS_8GraphicsE
libfifechan.so.0.1.5:_ZN3fcn6Widget5clearEv
libfifechan.so.0.1.5:_ZN3fcn6Widget6_logicEv
libfifechan.so.0.1.5:_ZN3fcn6Widget6removeEPS0_
libfifechan.so.0.1.5:_ZN3fcn6Widget7setFontEPNS_4FontE
libfifechan.so.0.1.5:_ZN3fcn6Widget7setSizeEii
libfifechan.so.0.1.5:_ZN3fcn6Widget8setWidthEi
libfifechan.so.0.1.5:_ZN3fcn6Widget8showPartENS_9RectangleE
libfifechan.so.0.1.5:_ZN3fcn6Widget9focusNextEv
libfifechan.so.0.1.5:_ZN3fcn6Widget9moveToTopEPS0_
libfifechan.so.0.1.5:_ZN3fcn6Widget9setHeightEi
libfifechan.so.0.1.5:_ZN3fcn6Widget9setMarginEi
libfifechan.so.0.1.5:_ZN3fcn6WidgetC2Ev
libfifechan.so.0.1.5:_ZN3fcn6WidgetD2Ev
libfifechan.so.0.1.5:_ZN3fcn6Window10adjustSizeEv
libfifechan.so.0.1.5:_ZN3fcn6Window10setCaptionERKNSt7__cxx1112basic_stringIcSt11char_traitsIcESaIcEEE
libfifechan.so.0.1.5:_ZN3fcn6Window10setMovableEb
libfifechan.so.0.1.5:_ZN3fcn6Window12mouseDraggedERNS_10MouseEventE
libfifechan.so.0.1.5:_ZN3fcn6Window12mousePressedERNS_10MouseEventE
libfifechan.so.0.1.5:_ZN3fcn6Window12setAlignmentENS_8Graphics9AlignmentE
libfifechan.so.0.1.5:_ZN3fcn6Window13mouseReleasedERNS_10MouseEventE
libfifechan.so.0.1.5:_ZN3fcn6Window15drawInnerBorderEPNS_8GraphicsE
libfifechan.so.0.1.5:_ZN3fcn6Window15getChildrenAreaEv
libfifechan.so.0.1.5:_ZN3fcn6Window17setTitleBarHeightEj
libfifechan.so.0.1.5:_ZN3fcn6Window4drawEPNS_8GraphicsE
libfifechan.so.0.1.5:_ZN3fcn6Window9setOpaqueEb
libfifechan.so.0.1.5:_ZN3fcn6WindowC1ERKNSt7__cxx1112basic_stringIcSt11char_traitsIcESaIcEEE
libfifechan.so.0.1.5:_ZN3fcn6WindowC1Ev
libfifechan.so.0.1.5:_ZN3fcn6WindowC2Ev
libfifechan.so.0.1.5:_ZN3fcn6WindowD2Ev
libfifechan.so.0.1.5:_ZN3fcn7ListBox11setSelectedEi
libfifechan.so.0.1.5:_ZN3fcn7ListBox12setListModelEPNS_9ListModelE
libfifechan.so.0.1.5:_ZN3fcn7ListBox18setWrappingEnabledEb
libfifechan.so.0.1.5:_ZN3fcn7ListBoxC1EPNS_9ListModelE
libfifechan.so.0.1.5:_ZN3fcn7ListBoxC1Ev
libfifechan.so.0.1.5:_ZN3fcn7TextBox10setTextRowEiRKNSt7__cxx1112basic_stringIcSt11char_traitsIcESaIcEEE
libfifechan.so.0.1.5:_ZN3fcn7TextBox11setCaretRowEi
libfifechan.so.0.1.5:_ZN3fcn7TextBox11setEditableEb
libfifechan.so.0.1.5:_ZN3fcn7TextBox14setCaretColumnEi
libfifechan.so.0.1.5:_ZN3fcn7TextBox16setCaretPositionEj
libfifechan.so.0.1.5:_ZN3fcn7TextBox17setCaretRowColumnEii
libfifechan.so.0.1.5:_ZN3fcn7TextBox7setTextERKNSt7__cxx1112basic_stringIcSt11char_traitsIcESaIcEEE
libfifechan.so.0.1.5:_ZN3fcn7TextBox8isOpaqueEv
libfifechan.so.0.1.5:_ZN3fcn7TextBox9setOpaqueEb
libfifechan.so.0.1.5:_ZN3fcn7TextBoxC1ERKNSt7__cxx1112basic_stringIcSt11char_traitsIcESaIcEEE
libfifechan.so.0.1.5:_ZN3fcn8BarGraph10setBarSizeEii
libfifechan.so.0.1.5:_ZN3fcn8BarGraph11setBarWidthEi
libfifechan.so.0.1.5:_ZN3fcn8BarGraph12setBarHeightEi
libfifechan.so.0.1.5:_ZN3fcn8BarGraph14setBarPositionERKNS_5PointE
libfifechan.so.0.1.5:_ZN3fcn8BarGraph14setBarPositionEii
libfifechan.so.0.1.5:_ZN3fcn8BarGraph7setBarXEi
libfifechan.so.0.1.5:_ZN3fcn8BarGraph7setBarYEi
libfifechan.so.0.1.5:_ZN3fcn8BarGraph9setOpaqueEb
libfifechan.so.0.1.5:_ZN3fcn8BarGraphC1Eiiii
libfifechan.so.0.1.5:_ZN3fcn8BarGraphC1Ev
libfifechan.so.0.1.5:_ZN3fcn8CheckBox14setMarkerStyleENS0_11MarkerStyleE
libfifechan.so.0.1.5:_ZN3fcn8CheckBox18setBackgroundImageEPKNS_5ImageE
libfifechan.so.0.1.5:_ZN3fcn8CheckBox18setBackgroundImageERKNSt7__cxx1112basic_stringIcSt11char_traitsIcESaIcEEE
libfifechan.so.0.1.5:_ZN3fcn8CheckBoxC1Ev
libfifechan.so.0.1.5:_ZN3fcn8DropDown11setSelectedEi
libfifechan.so.0.1.5:_ZN3fcn8DropDown12adjustHeightEv
libfifechan.so.0.1.5:_ZN3fcn8DropDown12setBaseColorERKNS_5ColorE
libfifechan.so.0.1.5:_ZN3fcn8DropDown12setListModelEPNS_9ListModelE
libfifechan.so.0.1.5:_ZN3fcn8DropDown17setSelectionColorERKNS_5ColorE
libfifechan.so.0.1.5:_ZN3fcn8DropDown18setBackgroundColorERKNS_5ColorE
libfifechan.so.0.1.5:_ZN3fcn8DropDown18setForegroundColorERKNS_5ColorE
libfifechan.so.0.1.5:_ZN3fcn8DropDownC1EPNS_9ListModelEPNS_10ScrollAreaEPNS_7ListBoxE
libfifechan.so.0.1.5:_ZN3fcn8Graphics11popClipAreaEv
libfifechan.so.0.1.5:_ZN3fcn8Graphics12pushClipAreaENS_9RectangleE
libfifechan.so.0.1.5:_ZN3fcn8Graphics18getCurrentClipAreaEv
libfifechan.so.0.1.5:_ZN3fcn8Graphics7setFontEPNS_4FontE
libfifechan.so.0.1.5:_ZN3fcn8Graphics8drawTextERKNSt7__cxx1112basic_stringIcSt11char_traitsIcESaIcEEEiiNS0_9AlignmentE
libfifechan.so.0.1.5:_ZN3fcn8Graphics9drawImageEPKNS_5ImageEii
libfifechan.so.0.1.5:_ZN3fcn8PieGraph10addSegmentEiiRKNS_5ColorE
libfifechan.so.0.1.5:_ZN3fcn8PieGraph10setCenterXEi
libfifechan.so.0.1.5:_ZN3fcn8PieGraph10setCenterYEi
libfifechan.so.0.1.5:_ZN3fcn8PieGraph13clearSegmentsEv
libfifechan.so.0.1.5:_ZN3fcn8PieGraph9setCenterERKNS_5PointE
libfifechan.so.0.1.5:_ZN3fcn8PieGraph9setCenterEii
libfifechan.so.0.1.5:_ZN3fcn8PieGraph9setOpaqueEb
libfifechan.so.0.1.5:_ZN3fcn8PieGraph9setRadiusEi
libfifechan.so.0.1.5:_ZN3fcn8PieGraphC1ERKNS_5PointE
libfifechan.so.0.1.5:_ZN3fcn8PieGraphC1Ev
libfifechan.so.0.1.5:_ZN3fcn9Container10adjustSizeEv
libfifechan.so.0.1.5:_ZN3fcn9Container13expandContentEb
libfifechan.so.0.1.5:_ZN3fcn9Container14findWidgetByIdERKNSt7__cxx1112basic_stringIcSt11char_traitsIcESaIcEEE
libfifechan.so.0.1.5:_ZN3fcn9Container14setUniformSizeEb
libfifechan.so.0.1.5:_ZN3fcn9Container15getChildrenAreaEv
libfifechan.so.0.1.5:_ZN3fcn9Container15resizeToContentEb
libfifechan.so.0.1.5:_ZN3fcn9Container18setVerticalSpacingEj
libfifechan.so.0.1.5:_ZN3fcn9Container19getBackgroundWidgetEv
libfifechan.so.0.1.5:_ZN3fcn9Container19setBackgroundWidgetEPNS_6WidgetE
libfifechan.so.0.1.5:_ZN3fcn9Container20setHorizontalSpacingEj
libfifechan.so.0.1.5:_ZN3fcn9Container3addEPNS_6WidgetE
libfifechan.so.0.1.5:_ZN3fcn9Container3addEPNS_6WidgetEii
libfifechan.so.0.1.5:_ZN3fcn9Container4drawEPNS_8GraphicsE
libfifechan.so.0.1.5:_ZN3fcn9Container5clearEv
libfifechan.so.0.1.5:_ZN3fcn9Container6removeEPNS_6WidgetE
libfifechan.so.0.1.5:_ZN3fcn9Container9setLayoutENS0_12LayoutPolicyE
libfifechan.so.0.1.5:_ZN3fcn9Container9setOpaqueEb
libfifechan.so.0.1.5:_ZN3fcn9ContainerC1Ev
libfifechan.so.0.1.5:_ZN3fcn9ContainerC2Ev
libfifechan.so.0.1.5:_ZN3fcn9ContainerD2Ev
libfifechan.so.0.1.5:_ZN3fcn9ExceptionC1ERKNSt7__cxx1112basic_stringIcSt11char_traitsIcESaIcEEES8_S8_j
libfifechan.so.0.1.5:_ZN3fcn9LineGraph12setThicknessEj
libfifechan.so.0.1.5:_ZN3fcn9LineGraph14setPointVectorERKSt6vectorINS_5PointESaIS2_EE
libfifechan.so.0.1.5:_ZN3fcn9LineGraph16resetPointVectorEv
libfifechan.so.0.1.5:_ZN3fcn9LineGraph9setOpaqueEb
libfifechan.so.0.1.5:_ZN3fcn9LineGraphC1ERKSt6vectorINS_5PointESaIS2_EE
libfifechan.so.0.1.5:_ZN3fcn9LineGraphC1Ev
libfifechan.so.0.1.5:_ZN3fcn9RectangleC1Eiiii
libfifechan.so.0.1.5:_ZN3fcn9RectangleC1Ev
libfifechan.so.0.1.5:_ZN3fcn9TextField10adjustSizeEv
libfifechan.so.0.1.5:_ZN3fcn9TextField10keyPressedERNS_8KeyEventE
libfifechan.so.0.1.5:_ZN3fcn9TextField12adjustHeightEv
libfifechan.so.0.1.5:_ZN3fcn9TextField12mouseDraggedERNS_10MouseEventE
libfifechan.so.0.1.5:_ZN3fcn9TextField12mousePressedERNS_10MouseEventE
libfifechan.so.0.1.5:_ZN3fcn9TextField15resizeToContentEb
libfifechan.so.0.1.5:_ZN3fcn9TextField16setCaretPositionEj
libfifechan.so.0.1.5:_ZN3fcn9TextField4drawEPNS_8GraphicsE
libfifechan.so.0.1.5:_ZN3fcn9TextField7setTextERKNSt7__cxx1112basic_stringIcSt11char_traitsIcESaIcEEE
libfifechan.so.0.1.5:_ZN3fcn9TextField9fixScrollEv
libfifechan.so.0.1.5:_ZN3fcn9TextFieldC1ERKNSt7__cxx1112basic_stringIcSt11char_traitsIcESaIcEEE
libfifechan.so.0.1.5:_ZN3fcn9TextFieldC1Ev
libfifechan.so.0.1.5:_ZN3fcn9TextFieldC2Ev
libfifechan.so.0.1.5:_ZN3fcn9TextFieldD2Ev
libfifechan.so.0.1.5:_ZNK3fcn10CurveGraph12getThicknessEv
libfifechan.so.0.1.5:_ZNK3fcn10CurveGraph14getPointVectorEv
libfifechan.so.0.1.5:_ZNK3fcn10CurveGraph25isAutomaticControllPointsEv
libfifechan.so.0.1.5:_ZNK3fcn10CurveGraph8isOpaqueEv
libfifechan.so.0.1.5:_ZNK3fcn10InputEvent12isAltPressedEv
libfifechan.so.0.1.5:_ZNK3fcn10InputEvent13isMetaPressedEv
libfifechan.so.0.1.5:_ZNK3fcn10InputEvent14isShiftPressedEv
libfifechan.so.0.1.5:_ZNK3fcn10InputEvent16isControlPressedEv
libfifechan.so.0.1.5:_ZNK3fcn10MouseEvent4getXEv
libfifechan.so.0.1.5:_ZNK3fcn10MouseEvent4getYEv
libfifechan.so.0.1.5:_ZNK3fcn10MouseEvent7getTypeEv
libfifechan.so.0.1.5:_ZNK3fcn10MouseEvent9getButtonEv
libfifechan.so.0.1.5:_ZNK3fcn10PointGraph12getThicknessEv
libfifechan.so.0.1.5:_ZNK3fcn10PointGraph14getPointVectorEv
libfifechan.so.0.1.5:_ZNK3fcn10PointGraph8isOpaqueEv
libfifechan.so.0.1.5:_ZNK3fcn10ScrollArea10getContentEv
libfifechan.so.0.1.5:_ZNK3fcn10ScrollArea17getScrollbarWidthEv
libfifechan.so.0.1.5:_ZNK3fcn10ScrollArea23getUpButtonScrollAmountEv
libfifechan.so.0.1.5:_ZNK3fcn10ScrollArea23getVerticalScrollAmountEv
libfifechan.so.0.1.5:_ZNK3fcn10ScrollArea23getVerticalScrollPolicyEv
libfifechan.so.0.1.5:_ZNK3fcn10ScrollArea25getDownButtonScrollAmountEv
libfifechan.so.0.1.5:_ZNK3fcn10ScrollArea25getHorizontalScrollAmountEv
libfifechan.so.0.1.5:_ZNK3fcn10ScrollArea25getHorizontalScrollPolicyEv
libfifechan.so.0.1.5:_ZNK3fcn10ScrollArea25getLeftButtonScrollAmountEv
libfifechan.so.0.1.5:_ZNK3fcn10ScrollArea26getRightButtonScrollAmountEv
libfifechan.so.0.1.5:_ZNK3fcn10TabbedArea14getSelectedTabEv
libfifechan.so.0.1.5:_ZNK3fcn10TabbedArea15getNumberOfTabsEv
libfifechan.so.0.1.5:_ZNK3fcn10TabbedArea8isOpaqueEv
libfifechan.so.0.1.5:_ZNK3fcn10TabbedArea9getLayoutEv
libfifechan.so.0.1.5:_ZNK3fcn11ImageButton10getUpImageEv
libfifechan.so.0.1.5:_ZNK3fcn11ImageButton12getDownImageEv
libfifechan.so.0.1.5:_ZNK3fcn11ImageButton13getHoverImageEv
libfifechan.so.0.1.5:_ZNK3fcn11ImageButton18getInactiveUpImageEv
libfifechan.so.0.1.5:_ZNK3fcn11ImageButton20getInactiveDownImageEv
libfifechan.so.0.1.5:_ZNK3fcn11ImageButton21getInactiveHoverImageEv
libfifechan.so.0.1.5:_ZNK3fcn11RadioButton8getGroupB5cxx11Ev
libfifechan.so.0.1.5:_ZNK3fcn12ToggleButton8getGroupB5cxx11Ev
libfifechan.so.0.1.5:_ZNK3fcn15IconProgressBar11getMaxIconsEv
libfifechan.so.0.1.5:_ZNK3fcn15IconProgressBar12getIconCountEv
libfifechan.so.0.1.5:_ZNK3fcn15IconProgressBar14getOrientationEv
libfifechan.so.0.1.5:_ZNK3fcn15IconProgressBar8getImageEv
libfifechan.so.0.1.5:_ZNK3fcn15IconProgressBar8isOpaqueEv
libfifechan.so.0.1.5:_ZNK3fcn16ImageProgressBar11getBarImageEv
libfifechan.so.0.1.5:_ZNK3fcn16ImageProgressBar11getMaxValueEv
libfifechan.so.0.1.5:_ZNK3fcn16ImageProgressBar14getOrientationEv
libfifechan.so.0.1.5:_ZNK3fcn16ImageProgressBar18getForegroundImageEv
libfifechan.so.0.1.5:_ZNK3fcn16ImageProgressBar8getValueEv
libfifechan.so.0.1.5:_ZNK3fcn16ImageProgressBar8isOpaqueEv
libfifechan.so.0.1.5:_ZNK3fcn3Key11isCharacterEv
libfifechan.so.0.1.5:_ZNK3fcn3Key8getValueEv
libfifechan.so.0.1.5:_ZNK3fcn4Icon8getImageEv
libfifechan.so.0.1.5:_ZNK3fcn4Icon8isOpaqueEv
libfifechan.so.0.1.5:_ZNK3fcn4Icon8isTilingEv
libfifechan.so.0.1.5:_ZNK3fcn4Icon9isScalingEv
libfifechan.so.0.1.5:_ZNK3fcn4Size8getWidthEv
libfifechan.so.0.1.5:_ZNK3fcn4Size9getHeightEv
libfifechan.so.0.1.5:_ZNK3fcn5ColoreqERKS0_
libfifechan.so.0.1.5:_ZNK3fcn5ColormiERKS0_
libfifechan.so.0.1.5:_ZNK3fcn5ColormlEf
libfifechan.so.0.1.5:_ZNK3fcn5ColorneERKS0_
libfifechan.so.0.1.5:_ZNK3fcn5ColorplERKS0_
libfifechan.so.0.1.5:_ZNK3fcn6Button10getCaptionB5cxx11Ev
libfifechan.so.0.1.5:_ZNK3fcn6Button12getAlignmentEv
libfifechan.so.0.1.5:_ZNK3fcn6Button14getDownXOffsetEv
libfifechan.so.0.1.5:_ZNK3fcn6Button14getDownYOffsetEv
libfifechan.so.0.1.5:_ZNK3fcn6Button8isActiveEv
libfifechan.so.0.1.5:_ZNK3fcn6Slider11getScaleEndEv
libfifechan.so.0.1.5:_ZNK3fcn6Slider13getScaleStartEv
libfifechan.so.0.1.5:_ZNK3fcn6Slider13getStepLengthEv
libfifechan.so.0.1.5:_ZNK3fcn6Slider14getOrientationEv
libfifechan.so.0.1.5:_ZNK3fcn6Slider15getMarkerLengthEv
libfifechan.so.0.1.5:_ZNK3fcn6Slider8getValueEv
libfifechan.so.0.1.5:_ZNK3fcn6Widget10getMaxSizeEv
libfifechan.so.0.1.5:_ZNK3fcn6Widget10getMinSizeEv
libfifechan.so.0.1.5:_ZNK3fcn6Widget11isFixedSizeEv
libfifechan.so.0.1.5:_ZNK3fcn6Widget11isFocusableEv
libfifechan.so.0.1.5:_ZNK3fcn6Widget12getBaseColorEv
libfifechan.so.0.1.5:_ZNK3fcn6Widget12getDimensionEv
libfifechan.so.0.1.5:_ZNK3fcn6Widget12getFixedSizeEv
libfifechan.so.0.1.5:_ZNK3fcn6Widget12getMarginTopEv
libfifechan.so.0.1.5:_ZNK3fcn6Widget12isSetVisibleEv
libfifechan.so.0.1.5:_ZNK3fcn6Widget13getBorderSizeEv
libfifechan.so.0.1.5:_ZNK3fcn6Widget13getMarginLeftEv
libfifechan.so.0.1.5:_ZNK3fcn6Widget13getPaddingTopEv
libfifechan.so.0.1.5:_ZNK3fcn6Widget14getBorderColorEv
libfifechan.so.0.1.5:_ZNK3fcn6Widget14getMarginRightEv
libfifechan.so.0.1.5:_ZNK3fcn6Widget14getOutlineSizeEv
libfifechan.so.0.1.5:_ZNK3fcn6Widget14getPaddingLeftEv
libfifechan.so.0.1.5:_ZNK3fcn6Widget14isModalFocusedEv
libfifechan.so.0.1.5:_ZNK3fcn6Widget14isTabInEnabledEv
libfifechan.so.0.1.5:_ZNK3fcn6Widget15getMarginBottomEv
libfifechan.so.0.1.5:_ZNK3fcn6Widget15getOutlineColorEv
libfifechan.so.0.1.5:_ZNK3fcn6Widget15getPaddingRightEv
libfifechan.so.0.1.5:_ZNK3fcn6Widget15isTabOutEnabledEv
libfifechan.so.0.1.5:_ZNK3fcn6Widget16getActionEventIdB5cxx11Ev
libfifechan.so.0.1.5:_ZNK3fcn6Widget16getPaddingBottomEv
libfifechan.so.0.1.5:_ZNK3fcn6Widget16getSelectionModeEv
libfifechan.so.0.1.5:_ZNK3fcn6Widget16isModalFocusableEv
libfifechan.so.0.1.5:_ZNK3fcn6Widget16isVerticalExpandEv
libfifechan.so.0.1.5:_ZNK3fcn6Widget17getSelectionColorEv
libfifechan.so.0.1.5:_ZNK3fcn6Widget18getBackgroundColorEv
libfifechan.so.0.1.5:_ZNK3fcn6Widget18getForegroundColorEv
libfifechan.so.0.1.5:_ZNK3fcn6Widget18isHorizontalExpandEv
libfifechan.so.0.1.5:_ZNK3fcn6Widget19getAbsolutePositionERiS1_
libfifechan.so.0.1.5:_ZNK3fcn6Widget24isModalMouseInputFocusedEv
libfifechan.so.0.1.5:_ZNK3fcn6Widget26isModalMouseInputFocusableEv
libfifechan.so.0.1.5:_ZNK3fcn6Widget4getXEv
libfifechan.so.0.1.5:_ZNK3fcn6Widget4getYEv
libfifechan.so.0.1.5:_ZNK3fcn6Widget6getTopEv
libfifechan.so.0.1.5:_ZNK3fcn6Widget7getFontEv
libfifechan.so.0.1.5:_ZNK3fcn6Widget8getWidthEv
libfifechan.so.0.1.5:_ZNK3fcn6Widget9getHeightEv
libfifechan.so.0.1.5:_ZNK3fcn6Widget9getParentEv
libfifechan.so.0.1.5:_ZNK3fcn6Widget9isEnabledEv
libfifechan.so.0.1.5:_ZNK3fcn6Widget9isFocusedEv
libfifechan.so.0.1.5:_ZNK3fcn6Widget9isVisibleEv
libfifechan.so.0.1.5:_ZNK3fcn6Window10getCaptionB5cxx11Ev
libfifechan.so.0.1.5:_ZNK3fcn6Window12getAlignmentEv
libfifechan.so.0.1.5:_ZNK3fcn6Window17getTitleBarHeightEv
libfifechan.so.0.1.5:_ZNK3fcn6Window8isOpaqueEv
libfifechan.so.0.1.5:_ZNK3fcn6Window9isMovableEv
libfifechan.so.0.1.5:_ZNK3fcn7ListBox11getSelectedEv
libfifechan.so.0.1.5:_ZNK3fcn7ListBox12getListModelEv
libfifechan.so.0.1.5:_ZNK3fcn7ListBox17isWrappingEnabledEv
libfifechan.so.0.1.5:_ZNK3fcn7TextBox10getTextRowB5cxx11Ei
libfifechan.so.0.1.5:_ZNK3fcn7TextBox10isEditableEv
libfifechan.so.0.1.5:_ZNK3fcn7TextBox11getCaretRowEv
libfifechan.so.0.1.5:_ZNK3fcn7TextBox14getCaretColumnEv
libfifechan.so.0.1.5:_ZNK3fcn7TextBox15getNumberOfRowsEv
libfifechan.so.0.1.5:_ZNK3fcn7TextBox16getCaretPositionEv
libfifechan.so.0.1.5:_ZNK3fcn7TextBox7getTextB5cxx11Ev
libfifechan.so.0.1.5:_ZNK3fcn8BarGraph11getBarWidthEv
libfifechan.so.0.1.5:_ZNK3fcn8BarGraph12getBarHeightEv
libfifechan.so.0.1.5:_ZNK3fcn8BarGraph7getBarXEv
libfifechan.so.0.1.5:_ZNK3fcn8BarGraph7getBarYEv
libfifechan.so.0.1.5:_ZNK3fcn8BarGraph8isOpaqueEv
libfifechan.so.0.1.5:_ZNK3fcn8CheckBox14getMarkerStyleEv
libfifechan.so.0.1.5:_ZNK3fcn8CheckBox18getBackgroundImageEv
libfifechan.so.0.1.5:_ZNK3fcn8DropDown11getSelectedEv
libfifechan.so.0.1.5:_ZNK3fcn8DropDown12getListModelEv
libfifechan.so.0.1.5:_ZNK3fcn8KeyEvent12isNumericPadEv
libfifechan.so.0.1.5:_ZNK3fcn8KeyEvent6getKeyEv
libfifechan.so.0.1.5:_ZNK3fcn8KeyEvent7getTypeEv
libfifechan.so.0.1.5:_ZNK3fcn8PieGraph10getCenterXEv
libfifechan.so.0.1.5:_ZNK3fcn8PieGraph10getCenterYEv
libfifechan.so.0.1.5:_ZNK3fcn8PieGraph8isOpaqueEv
libfifechan.so.0.1.5:_ZNK3fcn8PieGraph9getCenterEv
libfifechan.so.0.1.5:_ZNK3fcn8PieGraph9getRadiusEv
libfifechan.so.0.1.5:_ZNK3fcn9Container13isUniformSizeEv
libfifechan.so.0.1.5:_ZNK3fcn9Container18getVerticalSpacingEv
libfifechan.so.0.1.5:_ZNK3fcn9Container20getHorizontalSpacingEv
libfifechan.so.0.1.5:_ZNK3fcn9Container8isOpaqueEv
libfifechan.so.0.1.5:_ZNK3fcn9Container9getLayoutEv
libfifechan.so.0.1.5:_ZNK3fcn9LineGraph12getThicknessEv
libfifechan.so.0.1.5:_ZNK3fcn9LineGraph14getPointVectorEv
libfifechan.so.0.1.5:_ZNK3fcn9LineGraph8isOpaqueEv
libfifechan.so.0.1.5:_ZNK3fcn9Rectangle14isIntersectingERKS0_
libfifechan.so.0.1.5:_ZNK3fcn9TextField16getCaretPositionEv
libfifechan.so.0.1.5:_ZNK3fcn9TextField7getTextB5cxx11Ev
libfifechan.so.0.1.5:_ZThn496_N3fcn9TextField12mouseDraggedERNS_10MouseEventE
libfifechan.so.0.1.5:_ZThn496_N3fcn9TextField12mousePressedERNS_10MouseEventE
libfifechan_opengl.so.0.1.5:_ZN3fcn14OpenGLGraphics14setTargetPlaneEii
libfifechan_opengl.so.0.1.5:_ZN3fcn14OpenGLGraphicsC2Ev
libfifechan_opengl.so.0.1.5:_ZN3fcn14OpenGLGraphicsD2Ev
libfifechan_opengl.so.0.1.5:_ZNK3fcn14OpenGLGraphics19getTargetPlaneWidthEv
libfifechan_opengl.so.0.1.5:_ZNK3fcn14OpenGLGraphics20getTargetPlaneHeightEv
libfifechan_opengl.so.0.1.5:_ZNK3fcn14OpenGLGraphics8getColorEv
libfifechan_sdl.so.0.1.5:_ZN3fcn11SDLGraphics14drawSDLSurfaceEP11SDL_Surface8SDL_RectS3_
libfifechan_sdl.so.0.1.5:_ZN3fcn11SDLGraphics9drawHLineEiii
libfifechan_sdl.so.0.1.5:_ZN3fcn11SDLGraphics9drawVLineEiii
libfifechan_sdl.so.0.1.5:_ZN3fcn11SDLGraphics9setTargetEP11SDL_Surface
libfifechan_sdl.so.0.1.5:_ZN3fcn11SDLGraphicsC2Ev
libfifechan_sdl.so.0.1.5:_ZN3fcn8SDLInputC1Ev
libfifechan_sdl.so.0.1.5:_ZNK3fcn11SDLGraphics8getColorEv
libfifechan_sdl.so.0.1.5:_ZNK3fcn11SDLGraphics9getTargetEv
libgcc_s.so.1:_Unwind_Resume
libm.so.6:acos
libm.so.6:acosf
libm.so.6:asin
libm.so.6:asinf
libm.so.6:atan
libm.so.6:atan2
libm.so.6:atan2f
libm.so.6:atanf
libm.so.6:cos
libm.so.6:cosf
libm.so.6:exp
libm.so.6:expf
libm.so.6:fmod
libm.so.6:fmodf
libm.so.6:log
libm.so.6:logf
libm.so.6:pow
libm.so.6:powf
libm.so.6:round
libm.so.6:roundf
libm.so.6:sin
libm.so.6:sincos
libm.so.6:sincosf
libm.so.6:sinf
libm.so.6:sqrt
libm.so.6:sqrtf
libm.so.6:tan
libm.so.6:tanf
libopenal.so.1:alBufferData
libopenal.so.1:alDeleteBuffers
libopenal.so.1:alDeleteEffects
libopenal.so.1:alDeleteFilters
libopenal.so.1:alDeleteSources
libopenal.so.1:alDistanceModel
libopenal.so.1:alDopplerFactor
libopenal.so.1:alEffectf
libopenal.so.1:alEffectfv
libopenal.so.1:alEffecti
libopenal.so.1:alFilterf
libopenal.so.1:alFilteri
libopenal.so.1:alGenBuffers
libopenal.so.1:alGenEffects
libopenal.so.1:alGenFilters
libopenal.so.1:alGenSources
libopenal.so.1:alGetError
libopenal.so.1:alGetFloat
libopenal.so.1:alGetListenerf
libopenal.so.1:alGetListenerfv
libopenal.so.1:alGetProcAddress
libopenal.so.1:alGetSourcef
libopenal.so.1:alGetSourcei
libopenal.so.1:alListener3f
libopenal.so.1:alListenerf
libopenal.so.1:alListenerfv
libopenal.so.1:alSource3f
libopenal.so.1:alSource3i
libopenal.so.1:alSourcePause
libopenal.so.1:alSourcePlay
libopenal.so.1:alSourceQueueBuffers
libopenal.so.1:alSourceRewind
libopenal.so.1:alSourceStop
libopenal.so.1:alSourceUnqueueBuffers
libopenal.so.1:alSourcef
libopenal.so.1:alSourcefv
libopenal.so.1:alSourcei
libopenal.so.1:alcCloseDevice
libopenal.so.1:alcCreateContext
libopenal.so.1:alcDestroyContext
libopenal.so.1:alcGetError
libopenal.so.1:alcGetIntegerv
libopenal.so.1:alcIsExtensionPresent
libopenal.so.1:alcMakeContextCurrent
libopenal.so.1:alcOpenDevice
libpng16.so.16:png_create_info_struct
libpng16.so.16:png_create_write_struct
libpng16.so.16:png_destroy_write_struct
libpng16.so.16:png_init_io
libpng16.so.16:png_set_IHDR
libpng16.so.16:png_set_longjmp_fn
libpng16.so.16:png_set_packing
libpng16.so.16:png_write_end
libpng16.so.16:png_write_image
libpng16.so.16:png_write_info
libpython3.9.so.1.0:PyArg_ParseTupleAndKeywords
libpython3.9.so.1.0:PyArg_UnpackTuple
libpython3.9.so.1.0:PyBool_FromLong
libpython3.9.so.1.0:PyBool_Type
libpython3.9.so.1.0:PyBytes_AsStringAndSize
libpython3.9.so.1.0:PyCFunction_Type
libpython3.9.so.1.0:PyCMethod_New
libpython3.9.so.1.0:PyCapsule_GetPointer
libpython3.9.so.1.0:PyCapsule_Import
libpython3.9.so.1.0:PyCapsule_New
libpython3.9.so.1.0:PyDict_GetItem
libpython3.9.so.1.0:PyDict_New
libpython3.9.so.1.0:PyDict_SetItem
libpython3.9.so.1.0:PyDict_SetItemString
libpython3.9.so.1.0:PyErr_Clear
libpython3.9.so.1.0:PyErr_Fetch
libpython3.9.so.1.0:PyErr_Format
libpython3.9.so.1.0:PyErr_GivenExceptionMatches
libpython3.9.so.1.0:PyErr_NormalizeException
libpython3.9.so.1.0:PyErr_Occurred
libpython3.9.so.1.0:PyErr_Print
libpython3.9.so.1.0:PyErr_Restore
libpython3.9.so.1.0:PyErr_SetObject
libpython3.9.so.1.0:PyErr_SetString
libpython3.9.so.1.0:PyErr_WriteUnraisable
libpython3.9.so.1.0:PyExc_AttributeError
libpython3.9.so.1.0:PyExc_IOError
libpython3.9.so.1.0:PyExc_IndexError
libpython3.9.so.1.0:PyExc_MemoryError
libpython3.9.so.1.0:PyExc_OverflowError
libpython3.9.so.1.0:PyExc_RuntimeError
libpython3.9.so.1.0:PyExc_StopIteration
libpython3.9.so.1.0:PyExc_SyntaxError
libpython3.9.so.1.0:PyExc_SystemError
libpython3.9.so.1.0:PyExc_TypeError
libpython3.9.so.1.0:PyExc_ValueError
libpython3.9.so.1.0:PyExc_ZeroDivisionError
libpython3.9.so.1.0:PyFloat_AsDouble
libpython3.9.so.1.0:PyFloat_FromDouble
libpython3.9.so.1.0:PyFloat_Type
libpython3.9.so.1.0:PyImport_AddModule
libpython3.9.so.1.0:PyInstanceMethod_New
libpython3.9.so.1.0:PyList_Append
libpython3.9.so.1.0:PyList_New
libpython3.9.so.1.0:PyList_SetItem
libpython3.9.so.1.0:PyLong_AsDouble
libpython3.9.so.1.0:PyLong_AsLong
libpython3.9.so.1.0:PyLong_AsUnsignedLong
libpython3.9.so.1.0:PyLong_FromLong
libpython3.9.so.1.0:PyLong_FromSize_t
libpython3.9.so.1.0:PyLong_FromUnsignedLong
libpython3.9.so.1.0:PyLong_FromUnsignedLongLong
libpython3.9.so.1.0:PyLong_FromVoidPtr
libpython3.9.so.1.0:PyModule_AddObject
libpython3.9.so.1.0:PyModule_Create2
libpython3.9.so.1.0:PyModule_GetDict
libpython3.9.so.1.0:PyObject_Call
libpython3.9.so.1.0:PyObject_CallFunctionObjArgs
libpython3.9.so.1.0:PyObject_CallMethod
libpython3.9.so.1.0:PyObject_Free
libpython3.9.so.1.0:PyObject_GenericGetAttr
libpython3.9.so.1.0:PyObject_GetAttr
libpython3.9.so.1.0:PyObject_GetAttrString
libpython3.9.so.1.0:PyObject_IsInstance
libpython3.9.so.1.0:PyObject_IsTrue
libpython3.9.so.1.0:PyObject_SetAttr
libpython3.9.so.1.0:PyObject_Str
libpython3.9.so.1.0:PyRun_StringFlags
libpython3.9.so.1.0:PySequence_Check
libpython3.9.so.1.0:PySequence_Fast
libpython3.9.so.1.0:PySequence_GetItem
libpython3.9.so.1.0:PySequence_Size
libpython3.9.so.1.0:PySlice_GetIndices
libpython3.9.so.1.0:PySlice_Type
libpython3.9.so.1.0:PyStaticMethod_New
libpython3.9.so.1.0:PySys_SetObject
libpython3.9.so.1.0:PyTuple_New
libpython3.9.so.1.0:PyTuple_SetItem
libpython3.9.so.1.0:PyType_IsSubtype
libpython3.9.so.1.0:PyType_Ready
libpython3.9.so.1.0:PyType_Type
libpython3.9.so.1.0:PyUnicode_AsUTF8String
libpython3.9.so.1.0:PyUnicode_Concat
libpython3.9.so.1.0:PyUnicode_DecodeUTF8
libpython3.9.so.1.0:PyUnicode_FromFormat
libpython3.9.so.1.0:PyUnicode_FromString
libpython3.9.so.1.0:PyUnicode_InternFromString
libpython3.9.so.1.0:Py_DecRef
libpython3.9.so.1.0:_PyObject_New
libpython3.9.so.1.0:_Py_Dealloc
libpython3.9.so.1.0:_Py_NoneStruct
libpython3.9.so.1.0:_Py_NotImplementedStruct
libstdc++.so.6:_ZNKSt13runtime_error4whatEv
libstdc++.so.6:_ZNKSt3_V214error_category10_M_messageB5cxx11Ei
libstdc++.so.6:_ZNKSt5ctypeIcE13_M_widen_initEv
libstdc++.so.6:_ZNKSt6locale2id5_M_idEv
libstdc++.so.6:_ZNKSt7__cxx1112basic_stringIcSt11char_traitsIcESaIcEE17find_first_not_ofEcm
libstdc++.so.6:_ZNKSt7__cxx1112basic_stringIcSt11char_traitsIcESaIcEE4findEPKcmm
libstdc++.so.6:_ZNKSt7__cxx1112basic_stringIcSt11char_traitsIcESaIcEE4findEcm
libstdc++.so.6:_ZNKSt7__cxx1112basic_stringIcSt11char_traitsIcESaIcEE5rfindEcm
libstdc++.so.6:_ZNKSt7__cxx1112basic_stringIcSt11char_traitsIcESaIcEE7compareEPKc
libstdc++.so.6:_ZNKSt7__cxx1115basic_stringbufIcSt11char_traitsIcESaIcEE3strEv
libstdc++.so.6:_ZNKSt9exception4whatEv
libstdc++.so.6:_ZNSdD2Ev
libstdc++.so.6:_ZNSi10_M_extractIdEERSiRT_
libstdc++.so.6:_ZNSi10_M_extractIfEERSiRT_
libstdc++.so.6:_ZNSi10_M_extractIlEERSiRT_
libstdc++.so.6:_ZNSi4readEPcl
libstdc++.so.6:_ZNSi5seekgESt4fposI11__mbstate_tE
libstdc++.so.6:_ZNSi5seekgElSt12_Ios_Seekdir
libstdc++.so.6:_ZNSi5tellgEv
libstdc++.so.6:_ZNSirsERi
libstdc++.so.6:_ZNSo3putEc
libstdc++.so.6:_ZNSo5flushEv
libstdc++.so.6:_ZNSo9_M_insertIPKvEERSoT_
libstdc++.so.6:_ZNSo9_M_insertIbEERSoT_
libstdc++.so.6:_ZNSo9_M_insertIdEERSoT_
libstdc++.so.6:_ZNSo9_M_insertImEERSoT_
libstdc++.so.6:_ZNSolsEi
libstdc++.so.6:_ZNSt11logic_errorC2ERKS_
libstdc++.so.6:_ZNSt11regex_errorD1Ev
libstdc++.so.6:_ZNSt12__basic_fileIcED1Ev
libstdc++.so.6:_ZNSt12out_of_rangeC1EPKc
libstdc++.so.6:_ZNSt12out_of_rangeD1Ev
libstdc++.so.6:_ZNSt13basic_filebufIcSt11char_traitsIcEE4openEPKcSt13_Ios_Openmode
libstdc++.so.6:_ZNSt13basic_filebufIcSt11char_traitsIcEE5closeEv
libstdc++.so.6:_ZNSt13basic_filebufIcSt11char_traitsIcEEC1Ev
libstdc++.so.6:_ZNSt13basic_filebufIcSt11char_traitsIcEED1Ev
libstdc++.so.6:_ZNSt13runtime_errorC2EPKc
libstdc++.so.6:_ZNSt13runtime_errorC2ERKNSt7__cxx1112basic_stringIcSt11char_traitsIcESaIcEEE
libstdc++.so.6:_ZNSt13runtime_errorC2ERKS_
libstdc++.so.6:_ZNSt13runtime_errorD2Ev
libstdc++.so.6:_ZNSt14basic_ifstreamIcSt11char_traitsIcEED1Ev
libstdc++.so.6:_ZNSt16invalid_argumentC1EPKc
libstdc++.so.6:_ZNSt16invalid_argumentD1Ev
libstdc++.so.6:_ZNSt3_V214error_categoryD2Ev
libstdc++.so.6:_ZNSt3_V216generic_categoryEv
libstdc++.so.6:_ZNSt5ctypeIcE2idE
libstdc++.so.6:_ZNSt6localeC1ERKS_
libstdc++.so.6:_ZNSt6localeC1Ev
libstdc++.so.6:_ZNSt6localeD1Ev
libstdc++.so.6:_ZNSt6localeaSERKS_
libstdc++.so.6:_ZNSt7__cxx1112basic_stringIcSt11char_traitsIcESaIcEE10_M_replaceEmmPKcm
libstdc++.so.6:_ZNSt7__cxx1112basic_stringIcSt11char_traitsIcESaIcEE12_M_constructEmc
libstdc++.so.6:_ZNSt7__cxx1112basic_stringIcSt11char_traitsIcESaIcEE13_S_copy_charsEPcPKcS7_
libstdc++.so.6:_ZNSt7__cxx1112basic_stringIcSt11char_traitsIcESaIcEE14_M_replace_auxEmmmc
libstdc++.so.6:_ZNSt7__cxx1112basic_stringIcSt11char_traitsIcESaIcEE6resizeEmc
libstdc++.so.6:_ZNSt7__cxx1112basic_stringIcSt11char_traitsIcESaIcEE7reserveEm
libstdc++.so.6:_ZNSt7__cxx1112basic_stringIcSt11char_traitsIcESaIcEE8_M_eraseEmm
libstdc++.so.6:_ZNSt7__cxx1112basic_stringIcSt11char_traitsIcESaIcEE9_M_appendEPKcm
libstdc++.so.6:_ZNSt7__cxx1112basic_stringIcSt11char_traitsIcESaIcEE9_M_assignERKS4_
libstdc++.so.6:_ZNSt7__cxx1112basic_stringIcSt11char_traitsIcESaIcEE9_M_createERmm
libstdc++.so.6:_ZNSt7__cxx1112basic_stringIcSt11char_traitsIcESaIcEE9_M_mutateEmmPKcm
libstdc++.so.6:_ZNSt7__cxx1112basic_stringIcSt11char_traitsIcESaIcEEC1EPKcRKS3_
libstdc++.so.6:_ZNSt7__cxx1112basic_stringIcSt11char_traitsIcESaIcEEC1ERKS4_
libstdc++.so.6:_ZNSt7__cxx1112basic_stringIcSt11char_traitsIcESaIcEED1Ev
libstdc++.so.6:_ZNSt7__cxx1115basic_stringbufIcSt11char_traitsIcESaIcEE7_M_syncEPcmm
libstdc++.so.6:_ZNSt7__cxx1118basic_stringstreamIcSt11char_traitsIcESaIcEED1Ev
libstdc++.so.6:_ZNSt7__cxx1119basic_istringstreamIcSt11char_traitsIcESaIcEED1Ev
libstdc++.so.6:_ZNSt7__cxx1119basic_ostringstreamIcSt11char_traitsIcESaIcEEC1Ev
libstdc++.so.6:_ZNSt7__cxx1119basic_ostringstreamIcSt11char_traitsIcESaIcEED1Ev
libstdc++.so.6:_ZNSt8__detail15_List_node_base10_M_reverseEv
libstdc++.so.6:_ZNSt8__detail15_List_node_base11_M_transferEPS0_S1_
libstdc++.so.6:_ZNSt8__detail15_List_node_base4swapERS0_S1_
libstdc++.so.6:_ZNSt8__detail15_List_node_base7_M_hookEPS0_
libstdc++.so.6:_ZNSt8__detail15_List_node_base9_M_unhookEv
libstdc++.so.6:_ZNSt8ios_base4InitC1Ev
libstdc++.so.6:_ZNSt8ios_base4InitD1Ev
libstdc++.so.6:_ZNSt8ios_baseC2Ev
libstdc++.so.6:_ZNSt8ios_baseD2Ev
libstdc++.so.6:_ZNSt9basic_iosIcSt11char_traitsIcEE4initEPSt15basic_streambufIcS1_E
libstdc++.so.6:_ZNSt9basic_iosIcSt11char_traitsIcEE5clearESt12_Ios_Iostate
libstdc++.so.6:_ZNSt9exceptionD2Ev
libstdc++.so.6:_ZSt16__ostream_insertIcSt11char_traitsIcEERSt13basic_ostreamIT_T0_ES6_PKS3_l
libstdc++.so.6:_ZSt16__throw_bad_castv
libstdc++.so.6:_ZSt17__throw_bad_allocv
libstdc++.so.6:_ZSt18_Rb_tree_decrementPKSt18_Rb_tree_node_base
libstdc++.so.6:_ZSt18_Rb_tree_decrementPSt18_Rb_tree_node_base
libstdc++.so.6:_ZSt18_Rb_tree_incrementPKSt18_Rb_tree_node_base
libstdc++.so.6:_ZSt18_Rb_tree_incrementPSt18_Rb_tree_node_base
libstdc++.so.6:_ZSt19__throw_logic_errorPKc
libstdc++.so.6:_ZSt19__throw_regex_errorNSt15regex_constants10error_typeE
libstdc++.so.6:_ZSt20__throw_length_errorPKc
libstdc++.so.6:_ZSt20__throw_system_errori
libstdc++.so.6:_ZSt24__throw_out_of_range_fmtPKcz
libstdc++.so.6:_ZSt25__throw_bad_function_callv
libstdc++.so.6:_ZSt28_Rb_tree_rebalance_for_erasePSt18_Rb_tree_node_baseRS_
libstdc++.so.6:_ZSt28__throw_bad_array_new_lengthv
libstdc++.so.6:_ZSt29_Rb_tree_insert_and_rebalancebPSt18_Rb_tree_node_baseS0_RS_
libstdc++.so.6:_ZSt4cout
libstdc++.so.6:_ZSt4endlIcSt11char_traitsIcEERSt13basic_ostreamIT_T0_ES6_
libstdc++.so.6:_ZSt7nothrow
libstdc++.so.6:_ZSt9terminatev
libstdc++.so.6:_ZSt9use_facetINSt7__cxx117collateIcEEERKT_RKSt6locale
libstdc++.so.6:_ZSt9use_facetISt5ctypeIcEERKT_RKSt6locale
libstdc++.so.6:_ZStlsISt11char_traitsIcEERSt13basic_ostreamIcT_ES5_PKc
libstdc++.so.6:_ZTINSt3_V214error_categoryE
libstdc++.so.6:_ZTINSt6locale5facetE
libstdc++.so.6:_ZTISt11regex_error
libstdc++.so.6:_ZTISt12out_of_range
libstdc++.so.6:_ZTISt13runtime_error
libstdc++.so.6:_ZTISt16invalid_argument
libstdc++.so.6:_ZTISt5ctypeIcE
libstdc++.so.6:_ZTISt9exception
libstdc++.so.6:_ZTTNSt7__cxx1118basic_stringstreamIcSt11char_traitsIcESaIcEEE
libstdc++.so.6:_ZTTNSt7__cxx1119basic_istringstreamIcSt11char_traitsIcESaIcEEE
libstdc++.so.6:_ZTTNSt7__cxx1119basic_ostringstreamIcSt11char_traitsIcESaIcEEE
libstdc++.so.6:_ZTTSt14basic_ifstreamIcSt11char_traitsIcEE
libstdc++.so.6:_ZTTSt14basic_ofstreamIcSt11char_traitsIcEE
libstdc++.so.6:_ZTVN10__cxxabiv117__class_type_infoE
libstdc++.so.6:_ZTVN10__cxxabiv120__si_class_type_infoE
libstdc++.so.6:_ZTVN10__cxxabiv121__vmi_class_type_infoE
libstdc++.so.6:_ZTVNSt7__cxx1115basic_stringbufIcSt11char_traitsIcESaIcEEE
libstdc++.so.6:_ZTVNSt7__cxx1118basic_stringstreamIcSt11char_traitsIcESaIcEEE
libstdc++.so.6:_ZTVNSt7__cxx1119basic_istringstreamIcSt11char_traitsIcESaIcEEE
libstdc++.so.6:_ZTVNSt7__cxx1119basic_ostringstreamIcSt11char_traitsIcESaIcEEE
libstdc++.so.6:_ZTVSt11regex_error
libstdc++.so.6:_ZTVSt13basic_filebufIcSt11char_traitsIcEE
libstdc++.so.6:_ZTVSt14basic_ifstreamIcSt11char_traitsIcEE
libstdc++.so.6:_ZTVSt14basic_ofstreamIcSt11char_traitsIcEE
libstdc++.so.6:_ZTVSt15basic_streambufIcSt11char_traitsIcEE
libstdc++.so.6:_ZTVSt16invalid_argument
libstdc++.so.6:_ZTVSt9basic_iosIcSt11char_traitsIcEE
libstdc++.so.6:_ZdaPv
libstdc++.so.6:_ZdlPv
libstdc++.so.6:_Znam
libstdc++.so.6:_Znwm
libstdc++.so.6:_ZnwmRKSt9nothrow_t
libstdc++.so.6:__cxa_allocate_exception
libstdc++.so.6:__cxa_bad_cast
libstdc++.so.6:__cxa_begin_catch
libstdc++.so.6:__cxa_end_catch
libstdc++.so.6:__cxa_free_exception
libstdc++.so.6:__cxa_guard_abort
libstdc++.so.6:__cxa_guard_acquire
libstdc++.so.6:__cxa_guard_release
libstdc++.so.6:__cxa_rethrow
libstdc++.so.6:__cxa_throw
libstdc++.so.6:__cxa_throw_bad_array_new_length
libstdc++.so.6:__dynamic_cast
libstdc++.so.6:__gxx_personality_v0
libtinyxml.so.0:_ZN12TiXmlElement12SetAttributeEPKcS1_
libtinyxml.so.0:_ZN12TiXmlElement12SetAttributeEPKci
libtinyxml.so.0:_ZN12TiXmlElement12SetAttributeERKNSt7__cxx1112basic_stringIcSt11char_traitsIcESaIcEEES7_
libtinyxml.so.0:_ZN12TiXmlElement18SetDoubleAttributeEPKcd
libtinyxml.so.0:_ZN12TiXmlElementC1EPKc
libtinyxml.so.0:_ZN13TiXmlDocument5ParseEPKcP16TiXmlParsingData13TiXmlEncoding
libtinyxml.so.0:_ZN13TiXmlDocumentC1Ev
libtinyxml.so.0:_ZN16TiXmlDeclarationC1EPKcS1_S1_
libtinyxml.so.0:_ZN9TiXmlNode12LinkEndChildEPS_
libtinyxml.so.0:_ZN9TiXmlNodeD2Ev
libtinyxml.so.0:_ZNK12TiXmlElement17QueryIntAttributeEPKcPi
libtinyxml.so.0:_ZNK12TiXmlElement20QueryDoubleAttributeEPKcPd
libtinyxml.so.0:_ZNK12TiXmlElement9AttributeERKNSt7__cxx1112basic_stringIcSt11char_traitsIcESaIcEEE
libtinyxml.so.0:_ZNK13TiXmlDocument8SaveFileEP8_IO_FILE
libtinyxml.so.0:_ZNK17TiXmlAttributeSet4FindERKNSt7__cxx1112basic_stringIcSt11char_traitsIcESaIcEEE
libtinyxml.so.0:_ZNK9TiXmlNode17FirstChildElementEPKc
libtinyxml.so.0:_ZNK9TiXmlNode17FirstChildElementEv
libtinyxml.so.0:_ZNK9TiXmlNode18NextSiblingElementEPKc
libvorbisfile.so.3:ov_clear
libvorbisfile.so.3:ov_info
libvorbisfile.so.3:ov_open_callbacks
libvorbisfile.so.3:ov_pcm_seek
libvorbisfile.so.3:ov_pcm_total
libvorbisfile.so.3:ov_read
libvorbisfile.so.3:ov_seekable
libz.so.1:inflate
libz.so.1:inflateEnd
libz.so.1:inflateInit2_
libz.so.1:uncompress
