_fife.so:PyInit__fife
_fife.so:_ZN20SwigDirector_IPather10solveRouteEPN4FIFE5RouteEib
_fife.so:_ZN20SwigDirector_IPather11createRouteERKN4FIFE8LocationES3_bRKNSt7__cxx1112basic_stringIcSt11char_traitsIcESaIcEEE
_fife.so:_ZN20SwigDirector_IPather11followRouteERKN4FIFE8LocationEPNS0_5RouteEdRS1_
_fife.so:_ZN20SwigDirector_IPather11getMaxTicksEv
_fife.so:_ZN20SwigDirector_IPather11setMaxTicksEi
_fife.so:_ZN20SwigDirector_IPather13cancelSessionEi
_fife.so:_ZN20SwigDirector_IPather6updateEv
_fife.so:_ZN20SwigDirector_IPatherC1EP7_object
_fife.so:_ZN20SwigDirector_IPatherC2EP7_object
_fife.so:_ZN20SwigDirector_IPatherD0Ev
_fife.so:_ZN20SwigDirector_IPatherD1Ev
_fife.so:_ZN20SwigDirector_IPatherD2Ev
_fife.so:_ZN22SwigDirector_IMapSaver13setAtlasSaverERKN4FIFE9SharedPtrINS0_11IAtlasSaverEEE
_fife.so:_ZN22SwigDirector_IMapSaver14setObjectSaverERKN4FIFE9SharedPtrINS0_12IObjectSaverEEE
_fife.so:_ZN22SwigDirector_IMapSaver17setAnimationSaverERKN4FIFE9SharedPtrINS0_15IAnimationSaverEEE
_fife.so:_ZN22SwigDirector_IMapSaver4saveERKN4FIFE3MapERKNSt7__cxx1112basic_stringIcSt11char_traitsIcESaIcEEERKSt6vectorIS9_SaIS9_EE
_fife.so:_ZN22SwigDirector_IMapSaverC1EP7_object
_fife.so:_ZN22SwigDirector_IMapSaverC2EP7_object
_fife.so:_ZN22SwigDirector_IMapSaverD0Ev
_fife.so:_ZN22SwigDirector_IMapSaverD1Ev
_fife.so:_ZN22SwigDirector_IMapSaverD2Ev
_fife.so:_ZN22SwigDirector_TimeEvent11updateEventEj
_fife.so:_ZN22SwigDirector_TimeEventC1EP7_objecti
_fife.so:_ZN22SwigDirector_TimeEventC2EP7_objecti
_fife.so:_ZN22SwigDirector_TimeEventD0Ev
_fife.so:_ZN22SwigDirector_TimeEventD1Ev
_fife.so:_ZN22SwigDirector_TimeEventD2Ev
_fife.so:_ZN23SwigDirector_IKeyFilter10isFilteredERKN4FIFE8KeyEventE
_fife.so:_ZN23SwigDirector_IKeyFilterC1EP7_object
_fife.so:_ZN23SwigDirector_IKeyFilterC2EP7_object
_fife.so:_ZN23SwigDirector_IKeyFilterD0Ev
_fife.so:_ZN23SwigDirector_IKeyFilterD1Ev
_fife.so:_ZN23SwigDirector_IKeyFilterD2Ev
_fife.so:_ZN23SwigDirector_IMapLoader14setAtlasLoaderERKN4FIFE9SharedPtrINS0_12IAtlasLoaderEEE
_fife.so:_ZN23SwigDirector_IMapLoader15setObjectLoaderERKN4FIFE9SharedPtrINS0_13IObjectLoaderEEE
_fife.so:_ZN23SwigDirector_IMapLoader18setAnimationLoaderERKN4FIFE9SharedPtrINS0_16IAnimationLoaderEEE
_fife.so:_ZN23SwigDirector_IMapLoader4loadERKNSt7__cxx1112basic_stringIcSt11char_traitsIcESaIcEEE
_fife.so:_ZN23SwigDirector_IMapLoaderC1EP7_object
_fife.so:_ZN23SwigDirector_IMapLoaderC2EP7_object
_fife.so:_ZN23SwigDirector_IMapLoaderD0Ev
_fife.so:_ZN23SwigDirector_IMapLoaderD1Ev
_fife.so:_ZN23SwigDirector_IMapLoaderD2Ev
_fife.so:_ZN24SwigDirector_IAtlasSaver4saveERKNSt7__cxx1112basic_stringIcSt11char_traitsIcESaIcEEE
_fife.so:_ZN24SwigDirector_IAtlasSaverC1EP7_object
_fife.so:_ZN24SwigDirector_IAtlasSaverC2EP7_object
_fife.so:_ZN24SwigDirector_IAtlasSaverD0Ev
_fife.so:_ZN24SwigDirector_IAtlasSaverD1Ev
_fife.so:_ZN24SwigDirector_IAtlasSaverD2Ev
_fife.so:_ZN25SwigDirector_IAtlasLoader10isLoadableERKNSt7__cxx1112basic_stringIcSt11char_traitsIcESaIcEEE
_fife.so:_ZN25SwigDirector_IAtlasLoader12loadMultipleERKNSt7__cxx1112basic_stringIcSt11char_traitsIcESaIcEEE
_fife.so:_ZN25SwigDirector_IAtlasLoader4loadERKNSt7__cxx1112basic_stringIcSt11char_traitsIcESaIcEEE
_fife.so:_ZN25SwigDirector_IAtlasLoaderC1EP7_object
_fife.so:_ZN25SwigDirector_IAtlasLoaderC2EP7_object
_fife.so:_ZN25SwigDirector_IAtlasLoaderD0Ev
_fife.so:_ZN25SwigDirector_IAtlasLoaderD1Ev
_fife.so:_ZN25SwigDirector_IAtlasLoaderD2Ev
_fife.so:_ZN25SwigDirector_IEventSource18getEventSourceTypeEv
_fife.so:_ZN25SwigDirector_IEventSourceC1EP7_object
_fife.so:_ZN25SwigDirector_IEventSourceC2EP7_object
_fife.so:_ZN25SwigDirector_IEventSourceD0Ev
_fife.so:_ZN25SwigDirector_IEventSourceD1Ev
_fife.so:_ZN25SwigDirector_IEventSourceD2Ev
_fife.so:_ZN25SwigDirector_IKeyListener10keyPressedERN4FIFE8KeyEventE
_fife.so:_ZN25SwigDirector_IKeyListener11keyReleasedERN4FIFE8KeyEventE
_fife.so:_ZN25SwigDirector_IKeyListener17setGlobalListenerEb
_fife.so:_ZN25SwigDirector_IKeyListenerC1EP7_object
_fife.so:_ZN25SwigDirector_IKeyListenerC2EP7_object
_fife.so:_ZN25SwigDirector_IKeyListenerD0Ev
_fife.so:_ZN25SwigDirector_IKeyListenerD1Ev
_fife.so:_ZN25SwigDirector_IKeyListenerD2Ev
_fife.so:_ZN25SwigDirector_IObjectSaver17setAnimationSaverERKN4FIFE9SharedPtrINS0_15IAnimationSaverEEE
_fife.so:_ZN25SwigDirector_IObjectSaver4saveERKNSt7__cxx1112basic_stringIcSt11char_traitsIcESaIcEEE
_fife.so:_ZN25SwigDirector_IObjectSaverC1EP7_object
_fife.so:_ZN25SwigDirector_IObjectSaverC2EP7_object
_fife.so:_ZN25SwigDirector_IObjectSaverD0Ev
_fife.so:_ZN25SwigDirector_IObjectSaverD1Ev
_fife.so:_ZN25SwigDirector_IObjectSaverD2Ev
_fife.so:_ZN26SwigDirector_IDropListener11fileDroppedERN4FIFE9DropEventE
_fife.so:_ZN26SwigDirector_IDropListenerC1EP7_object
_fife.so:_ZN26SwigDirector_IDropListenerC2EP7_object
_fife.so:_ZN26SwigDirector_IDropListenerD0Ev
_fife.so:_ZN26SwigDirector_IDropListenerD1Ev
_fife.so:_ZN26SwigDirector_IDropListenerD2Ev
_fife.so:_ZN26SwigDirector_IObjectLoader14getAtlasLoaderEv
_fife.so:_ZN26SwigDirector_IObjectLoader14setAtlasLoaderERKN4FIFE9SharedPtrINS0_12IAtlasLoaderEEE
_fife.so:_ZN26SwigDirector_IObjectLoader18getAnimationLoaderEv
_fife.so:_ZN26SwigDirector_IObjectLoader18setAnimationLoaderERKN4FIFE9SharedPtrINS0_16IAnimationLoaderEEE
_fife.so:_ZN26SwigDirector_IObjectLoader4loadERKNSt7__cxx1112basic_stringIcSt11char_traitsIcESaIcEEE
_fife.so:_ZN26SwigDirector_IObjectLoaderC1EP7_object
_fife.so:_ZN26SwigDirector_IObjectLoaderC2EP7_object
_fife.so:_ZN26SwigDirector_IObjectLoaderD0Ev
_fife.so:_ZN26SwigDirector_IObjectLoaderD1Ev
_fife.so:_ZN26SwigDirector_IObjectLoaderD2Ev
_fife.so:_ZN26SwigDirector_ITextListener8textEditERN4FIFE9TextEventE
_fife.so:_ZN26SwigDirector_ITextListener9textInputERN4FIFE9TextEventE
_fife.so:_ZN26SwigDirector_ITextListenerC1EP7_object
_fife.so:_ZN26SwigDirector_ITextListenerC2EP7_object
_fife.so:_ZN26SwigDirector_ITextListenerD0Ev
_fife.so:_ZN26SwigDirector_ITextListenerD1Ev
_fife.so:_ZN26SwigDirector_ITextListenerD2Ev
_fife.so:_ZN27SwigDirector_IMouseListener10mouseMovedERN4FIFE10MouseEventE
_fife.so:_ZN27SwigDirector_IMouseListener11mouseExitedERN4FIFE10MouseEventE
_fife.so:_ZN27SwigDirector_IMouseListener12mouseClickedERN4FIFE10MouseEventE
_fife.so:_ZN27SwigDirector_IMouseListener12mouseDraggedERN4FIFE10MouseEventE
_fife.so:_ZN27SwigDirector_IMouseListener12mouseEnteredERN4FIFE10MouseEventE
_fife.so:_ZN27SwigDirector_IMouseListener12mousePressedERN4FIFE10MouseEventE
_fife.so:_ZN27SwigDirector_IMouseListener13mouseReleasedERN4FIFE10MouseEventE
_fife.so:_ZN27SwigDirector_IMouseListener17mouseWheelMovedUpERN4FIFE10MouseEventE
_fife.so:_ZN27SwigDirector_IMouseListener17setGlobalListenerEb
_fife.so:_ZN27SwigDirector_IMouseListener19mouseWheelMovedDownERN4FIFE10MouseEventE
_fife.so:_ZN27SwigDirector_IMouseListener19mouseWheelMovedLeftERN4FIFE10MouseEventE
_fife.so:_ZN27SwigDirector_IMouseListener20mouseWheelMovedRightERN4FIFE10MouseEventE
_fife.so:_ZN27SwigDirector_IMouseListenerC1EP7_object
_fife.so:_ZN27SwigDirector_IMouseListenerC2EP7_object
_fife.so:_ZN27SwigDirector_IMouseListenerD0Ev
_fife.so:_ZN27SwigDirector_IMouseListenerD1Ev
_fife.so:_ZN27SwigDirector_IMouseListenerD2Ev
_fife.so:_ZN28SwigDirector_ConsoleExecuter12onToolsClickEv
_fife.so:_ZN28SwigDirector_ConsoleExecuter16onConsoleCommandERKNSt7__cxx1112basic_stringIcSt11char_traitsIcESaIcEEE
_fife.so:_ZN28SwigDirector_ConsoleExecuterC1EP7_object
_fife.so:_ZN28SwigDirector_ConsoleExecuterC2EP7_object
_fife.so:_ZN28SwigDirector_ConsoleExecuterD0Ev
_fife.so:_ZN28SwigDirector_ConsoleExecuterD1Ev
_fife.so:_ZN28SwigDirector_ConsoleExecuterD2Ev
_fife.so:_ZN28SwigDirector_IAnimationSaver4saveERKNSt7__cxx1112basic_stringIcSt11char_traitsIcESaIcEEE
_fife.so:_ZN28SwigDirector_IAnimationSaverC1EP7_object
_fife.so:_ZN28SwigDirector_IAnimationSaverC2EP7_object
_fife.so:_ZN28SwigDirector_IAnimationSaverD0Ev
_fife.so:_ZN28SwigDirector_IAnimationSaverD1Ev
_fife.so:_ZN28SwigDirector_IAnimationSaverD2Ev
_fife.so:_ZN29SwigDirector_IAnimationLoader10isLoadableERKNSt7__cxx1112basic_stringIcSt11char_traitsIcESaIcEEE
_fife.so:_ZN29SwigDirector_IAnimationLoader12loadMultipleERKNSt7__cxx1112basic_stringIcSt11char_traitsIcESaIcEEE
_fife.so:_ZN29SwigDirector_IAnimationLoader4loadERKNSt7__cxx1112basic_stringIcSt11char_traitsIcESaIcEEE
_fife.so:_ZN29SwigDirector_IAnimationLoaderC1EP7_object
_fife.so:_ZN29SwigDirector_IAnimationLoaderC2EP7_object
_fife.so:_ZN29SwigDirector_IAnimationLoaderD0Ev
_fife.so:_ZN29SwigDirector_IAnimationLoaderD1Ev
_fife.so:_ZN29SwigDirector_IAnimationLoaderD2Ev
_fife.so:_ZN29SwigDirector_ICommandListener9onCommandERN4FIFE7CommandE
_fife.so:_ZN29SwigDirector_ICommandListenerC1EP7_object
_fife.so:_ZN29SwigDirector_ICommandListenerC2EP7_object
_fife.so:_ZN29SwigDirector_ICommandListenerD0Ev
_fife.so:_ZN29SwigDirector_ICommandListenerD1Ev
_fife.so:_ZN29SwigDirector_ICommandListenerD2Ev
_fife.so:_ZN29SwigDirector_ITriggerListener11onTriggeredEv
_fife.so:_ZN29SwigDirector_ITriggerListenerC1EP7_object
_fife.so:_ZN29SwigDirector_ITriggerListenerC2EP7_object
_fife.so:_ZN29SwigDirector_ITriggerListenerD0Ev
_fife.so:_ZN29SwigDirector_ITriggerListenerD1Ev
_fife.so:_ZN29SwigDirector_ITriggerListenerD2Ev
_fife.so:_ZN30SwigDirector_IJoystickListener10axisMotionERN4FIFE13JoystickEventE
_fife.so:_ZN30SwigDirector_IJoystickListener11deviceAddedERN4FIFE13JoystickEventE
_fife.so:_ZN30SwigDirector_IJoystickListener13buttonPressedERN4FIFE13JoystickEventE
_fife.so:_ZN30SwigDirector_IJoystickListener13deviceRemovedERN4FIFE13JoystickEventE
_fife.so:_ZN30SwigDirector_IJoystickListener14buttonReleasedERN4FIFE13JoystickEventE
_fife.so:_ZN30SwigDirector_IJoystickListener9hatMotionERN4FIFE13JoystickEventE
_fife.so:_ZN30SwigDirector_IJoystickListenerC1EP7_object
_fife.so:_ZN30SwigDirector_IJoystickListenerC2EP7_object
_fife.so:_ZN30SwigDirector_IJoystickListenerD0Ev
_fife.so:_ZN30SwigDirector_IJoystickListenerD1Ev
_fife.so:_ZN30SwigDirector_IJoystickListenerD2Ev
_fife.so:_ZN30SwigDirector_ISdlEventListener10onSdlEventER9SDL_Event
_fife.so:_ZN30SwigDirector_ISdlEventListenerC1EP7_object
_fife.so:_ZN30SwigDirector_ISdlEventListenerC2EP7_object
_fife.so:_ZN30SwigDirector_ISdlEventListenerD0Ev
_fife.so:_ZN30SwigDirector_ISdlEventListenerD1Ev
_fife.so:_ZN30SwigDirector_ISdlEventListenerD2Ev
_fife.so:_ZN30SwigDirector_MapChangeListener12onMapChangedEPN4FIFE3MapERSt6vectorIPNS0_5LayerESaIS5_EE
_fife.so:_ZN30SwigDirector_MapChangeListener13onLayerCreateEPN4FIFE3MapEPNS0_5LayerE
_fife.so:_ZN30SwigDirector_MapChangeListener13onLayerDeleteEPN4FIFE3MapEPNS0_5LayerE
_fife.so:_ZN30SwigDirector_MapChangeListenerC1EP7_object
_fife.so:_ZN30SwigDirector_MapChangeListenerC2EP7_object
_fife.so:_ZN30SwigDirector_MapChangeListenerD0Ev
_fife.so:_ZN30SwigDirector_MapChangeListenerD1Ev
_fife.so:_ZN30SwigDirector_MapChangeListenerD2Ev
_fife.so:_ZN31SwigDirector_CellChangeListener20onInstanceExitedCellEPN4FIFE4CellEPNS0_8InstanceE
_fife.so:_ZN31SwigDirector_CellChangeListener21onBlockingChangedCellEPN4FIFE4CellEhb
_fife.so:_ZN31SwigDirector_CellChangeListener21onInstanceEnteredCellEPN4FIFE4CellEPNS0_8InstanceE
_fife.so:_ZN31SwigDirector_CellChangeListenerC1EP7_object
_fife.so:_ZN31SwigDirector_CellChangeListenerC2EP7_object
_fife.so:_ZN31SwigDirector_CellChangeListenerD0Ev
_fife.so:_ZN31SwigDirector_CellChangeListenerD1Ev
_fife.so:_ZN31SwigDirector_CellChangeListenerD2Ev
_fife.so:_ZN31SwigDirector_CellDeleteListener13onCellDeletedEPN4FIFE4CellE
_fife.so:_ZN31SwigDirector_CellDeleteListenerC1EP7_object
_fife.so:_ZN31SwigDirector_CellDeleteListenerC2EP7_object
_fife.so:_ZN31SwigDirector_CellDeleteListenerD0Ev
_fife.so:_ZN31SwigDirector_CellDeleteListenerD1Ev
_fife.so:_ZN31SwigDirector_CellDeleteListenerD2Ev
_fife.so:_ZN32SwigDirector_LayerChangeListener14onLayerChangedEPN4FIFE5LayerERSt6vectorIPNS0_8InstanceESaIS5_EE
_fife.so:_ZN32SwigDirector_LayerChangeListener16onInstanceCreateEPN4FIFE5LayerEPNS0_8InstanceE
_fife.so:_ZN32SwigDirector_LayerChangeListener16onInstanceDeleteEPN4FIFE5LayerEPNS0_8InstanceE
_fife.so:_ZN32SwigDirector_LayerChangeListenerC1EP7_object
_fife.so:_ZN32SwigDirector_LayerChangeListenerC2EP7_object
_fife.so:_ZN32SwigDirector_LayerChangeListenerD0Ev
_fife.so:_ZN32SwigDirector_LayerChangeListenerD1Ev
_fife.so:_ZN32SwigDirector_LayerChangeListenerD2Ev
_fife.so:_ZN32SwigDirector_PercentDoneListener7OnEventEj
_fife.so:_ZN32SwigDirector_PercentDoneListenerC1EP7_object
_fife.so:_ZN32SwigDirector_PercentDoneListenerC2EP7_object
_fife.so:_ZN32SwigDirector_PercentDoneListenerD0Ev
_fife.so:_ZN32SwigDirector_PercentDoneListenerD1Ev
_fife.so:_ZN32SwigDirector_PercentDoneListenerD2Ev
_fife.so:_ZN33SwigDirector_SoundEmitterListener15onSoundFinishedEjj
_fife.so:_ZN33SwigDirector_SoundEmitterListenerC1EP7_object
_fife.so:_ZN33SwigDirector_SoundEmitterListenerC2EP7_object
_fife.so:_ZN33SwigDirector_SoundEmitterListenerD0Ev
_fife.so:_ZN33SwigDirector_SoundEmitterListenerD1Ev
_fife.so:_ZN33SwigDirector_SoundEmitterListenerD2Ev
_fife.so:_ZN34SwigDirector_IEngineChangeListener19onScreenModeChangedERKN4FIFE10ScreenModeE
_fife.so:_ZN34SwigDirector_IEngineChangeListenerC1EP7_object
_fife.so:_ZN34SwigDirector_IEngineChangeListenerC2EP7_object
_fife.so:_ZN34SwigDirector_IEngineChangeListenerD0Ev
_fife.so:_ZN34SwigDirector_IEngineChangeListenerD1Ev
_fife.so:_ZN34SwigDirector_IEngineChangeListenerD2Ev
_fife.so:_ZN35SwigDirector_InstanceActionListener21onInstanceActionFrameEPN4FIFE8InstanceEPNS0_6ActionEi
_fife.so:_ZN35SwigDirector_InstanceActionListener24onInstanceActionFinishedEPN4FIFE8InstanceEPNS0_6ActionE
_fife.so:_ZN35SwigDirector_InstanceActionListener25onInstanceActionCancelledEPN4FIFE8InstanceEPNS0_6ActionE
_fife.so:_ZN35SwigDirector_InstanceActionListenerC1EP7_object
_fife.so:_ZN35SwigDirector_InstanceActionListenerC2EP7_object
_fife.so:_ZN35SwigDirector_InstanceActionListenerD0Ev
_fife.so:_ZN35SwigDirector_InstanceActionListenerD1Ev
_fife.so:_ZN35SwigDirector_InstanceActionListenerD2Ev
_fife.so:_ZN35SwigDirector_InstanceChangeListener17onInstanceChangedEPN4FIFE8InstanceEj
_fife.so:_ZN35SwigDirector_InstanceChangeListenerC1EP7_object
_fife.so:_ZN35SwigDirector_InstanceChangeListenerC2EP7_object
_fife.so:_ZN35SwigDirector_InstanceChangeListenerD0Ev
_fife.so:_ZN35SwigDirector_InstanceChangeListenerD1Ev
_fife.so:_ZN35SwigDirector_InstanceChangeListenerD2Ev
_fife.so:_ZN35SwigDirector_InstanceDeleteListener17onInstanceDeletedEPN4FIFE8InstanceE
_fife.so:_ZN35SwigDirector_InstanceDeleteListenerC1EP7_object
_fife.so:_ZN35SwigDirector_InstanceDeleteListenerC2EP7_object
_fife.so:_ZN35SwigDirector_InstanceDeleteListenerD0Ev
_fife.so:_ZN35SwigDirector_InstanceDeleteListenerD1Ev
_fife.so:_ZN35SwigDirector_InstanceDeleteListenerD2Ev
_fife.so:_ZN3fcn10ClickLabel10adjustSizeEv
_fife.so:_ZN3fcn10ClickLabel10keyPressedERNS_8KeyEventE
_fife.so:_ZN3fcn10ClickLabel10setCaptionERKNSt7__cxx1112basic_stringIcSt11char_traitsIcESaIcEEE
_fife.so:_ZN3fcn10ClickLabel11fontChangedEv
_fife.so:_ZN3fcn10ClickLabel11keyReleasedERNS_8KeyEventE
_fife.so:_ZN3fcn10ClickLabel11mouseExitedERNS_10MouseEventE
_fife.so:_ZN3fcn10ClickLabel12mouseDraggedERNS_10MouseEventE
_fife.so:_ZN3fcn10ClickLabel12mouseEnteredERNS_10MouseEventE
_fife.so:_ZN3fcn10ClickLabel12mousePressedERNS_10MouseEventE
_fife.so:_ZN3fcn10ClickLabel12setAlignmentENS_8Graphics9AlignmentE
_fife.so:_ZN3fcn10ClickLabel12setDimensionERKNS_9RectangleE
_fife.so:_ZN3fcn10ClickLabel13mouseReleasedERNS_10MouseEventE
_fife.so:_ZN3fcn10ClickLabel14ancestorHiddenERKNS_5EventE
_fife.so:_ZN3fcn10ClickLabel15resizeToContentEb
_fife.so:_ZN3fcn10ClickLabel15setTextWrappingEb
_fife.so:_ZN3fcn10ClickLabel4drawEPNS_8GraphicsE
_fife.so:_ZN3fcn10ClickLabel8wrapTextEv
_fife.so:_ZN3fcn10ClickLabel9focusLostERKNS_5EventE
_fife.so:_ZN3fcn10ClickLabel9setOpaqueEb
_fife.so:_ZN3fcn10ClickLabelC1ERKNSt7__cxx1112basic_stringIcSt11char_traitsIcESaIcEEE
_fife.so:_ZN3fcn10ClickLabelC1Ev
_fife.so:_ZN3fcn10ClickLabelC2ERKNSt7__cxx1112basic_stringIcSt11char_traitsIcESaIcEEE
_fife.so:_ZN3fcn10ClickLabelC2Ev
_fife.so:_ZN3fcn10ClickLabelD0Ev
_fife.so:_ZN3fcn10ClickLabelD1Ev
_fife.so:_ZN3fcn10ClickLabelD2Ev
_fife.so:_ZN3fcn13AnimationIcon12setAnimationEN4FIFE9SharedPtrINS1_9AnimationEEE
_fife.so:_ZN3fcn13AnimationIcon12setRepeatingEb
_fife.so:_ZN3fcn13AnimationIcon4playEv
_fife.so:_ZN3fcn13AnimationIcon4stopEv
_fife.so:_ZN3fcn13AnimationIcon5logicEv
_fife.so:_ZN3fcn13AnimationIcon5pauseEv
_fife.so:_ZN3fcn13AnimationIconC1EN4FIFE9SharedPtrINS1_9AnimationEEE
_fife.so:_ZN3fcn13AnimationIconC1Ev
_fife.so:_ZN3fcn13AnimationIconC2EN4FIFE9SharedPtrINS1_9AnimationEEE
_fife.so:_ZN3fcn13AnimationIconC2Ev
_fife.so:_ZN3fcn13AnimationIconD0Ev
_fife.so:_ZN3fcn13AnimationIconD1Ev
_fife.so:_ZN3fcn13AnimationIconD2Ev
_fife.so:_ZN3fcn13PercentageBar14setOrientationENS0_11OrientationE
_fife.so:_ZN3fcn13PercentageBar18setForegroundImageEPNS_5ImageE
_fife.so:_ZN3fcn13PercentageBar4drawEPNS_8GraphicsE
_fife.so:_ZN3fcn13PercentageBar8setValueEi
_fife.so:_ZN3fcn13PercentageBarC1Ev
_fife.so:_ZN3fcn13PercentageBarC2Ev
_fife.so:_ZN3fcn15ResizableWindow10mouseMovedERNS_10MouseEventE
_fife.so:_ZN3fcn15ResizableWindow10saveCursorEv
_fife.so:_ZN3fcn15ResizableWindow11initCursorsEv
_fife.so:_ZN3fcn15ResizableWindow11mouseExitedERNS_10MouseEventE
_fife.so:_ZN3fcn15ResizableWindow12getAnimationENS0_16CursorDirectionsE
_fife.so:_ZN3fcn15ResizableWindow12mouseDraggedERNS_10MouseEventE
_fife.so:_ZN3fcn15ResizableWindow12mouseEnteredERNS_10MouseEventE
_fife.so:_ZN3fcn15ResizableWindow12mousePressedERNS_10MouseEventE
_fife.so:_ZN3fcn15ResizableWindow12setResizableEb
_fife.so:_ZN3fcn15ResizableWindow13mouseReleasedERNS_10MouseEventE
_fife.so:_ZN3fcn15ResizableWindow13restoreCursorEv
_fife.so:_ZN3fcn15ResizableWindow15resizeToContentEb
_fife.so:_ZN3fcn15ResizableWindow15setTopResizableEb
_fife.so:_ZN3fcn15ResizableWindow16setLeftResizableEb
_fife.so:_ZN3fcn15ResizableWindow17setRightResizableEb
_fife.so:_ZN3fcn15ResizableWindow18setBottomResizableEb
_fife.so:_ZN3fcn15ResizableWindow26setResizableBorderDistanceEi
_fife.so:_ZN3fcn15ResizableWindow3setENS0_16CursorDirectionsEN4FIFE9SharedPtrINS2_5ImageEEE
_fife.so:_ZN3fcn15ResizableWindow3setENS0_16CursorDirectionsEN4FIFE9SharedPtrINS2_9AnimationEEE
_fife.so:_ZN3fcn15ResizableWindow3setENS0_16CursorDirectionsEj
_fife.so:_ZN3fcn15ResizableWindow8getImageENS0_16CursorDirectionsE
_fife.so:_ZN3fcn15ResizableWindow8setShoveEb
_fife.so:_ZN3fcn15ResizableWindow9focusLostERKNS_5EventE
_fife.so:_ZN3fcn15ResizableWindowC1ERKNSt7__cxx1112basic_stringIcSt11char_traitsIcESaIcEEEb
_fife.so:_ZN3fcn15ResizableWindowC1Eb
_fife.so:_ZN3fcn15ResizableWindowC1Ev
_fife.so:_ZN3fcn15ResizableWindowC2ERKNSt7__cxx1112basic_stringIcSt11char_traitsIcESaIcEEEb
_fife.so:_ZN3fcn15ResizableWindowC2Eb
_fife.so:_ZN3fcn15ResizableWindowC2Ev
_fife.so:_ZN3fcn15ResizableWindowD0Ev
_fife.so:_ZN3fcn15ResizableWindowD1Ev
_fife.so:_ZN3fcn15ResizableWindowD2Ev
_fife.so:_ZN3fcn16UTF8StringEditor10countCharsERKNSt7__cxx1112basic_stringIcSt11char_traitsIcESaIcEEEi
_fife.so:_ZN3fcn16UTF8StringEditor10insertCharERNSt7__cxx1112basic_stringIcSt11char_traitsIcESaIcEEEii
_fife.so:_ZN3fcn16UTF8StringEditor8nextCharERKNSt7__cxx1112basic_stringIcSt11char_traitsIcESaIcEEEi
_fife.so:_ZN3fcn16UTF8StringEditor8prevCharERKNSt7__cxx1112basic_stringIcSt11char_traitsIcESaIcEEEi
_fife.so:_ZN3fcn16UTF8StringEditor9eraseCharERNSt7__cxx1112basic_stringIcSt11char_traitsIcESaIcEEEi
_fife.so:_ZN3fcn16UTF8StringEditor9getOffsetERKNSt7__cxx1112basic_stringIcSt11char_traitsIcESaIcEEEi
_fife.so:_ZN3fcn5Panel10mouseMovedERNS_10MouseEventE
_fife.so:_ZN3fcn5Panel11mouseExitedERNS_10MouseEventE
_fife.so:_ZN3fcn5Panel11setDockableEb
_fife.so:_ZN3fcn5Panel12findDockAreaEv
_fife.so:_ZN3fcn5Panel12mouseDraggedERNS_10MouseEventE
_fife.so:_ZN3fcn5Panel12mouseEnteredERNS_10MouseEventE
_fife.so:_ZN3fcn5Panel12mousePressedERNS_10MouseEventE
_fife.so:_ZN3fcn5Panel13expandContentEb
_fife.so:_ZN3fcn5Panel13getDockedAreaEv
_fife.so:_ZN3fcn5Panel13mouseReleasedERNS_10MouseEventE
_fife.so:_ZN3fcn5Panel15resizeToContentEb
_fife.so:_ZN3fcn5Panel9setDockedEb
_fife.so:_ZN3fcn5PanelC1Eb
_fife.so:_ZN3fcn5PanelC1Ev
_fife.so:_ZN3fcn5PanelC2Eb
_fife.so:_ZN3fcn5PanelC2Ev
_fife.so:_ZN3fcn5PanelD0Ev
_fife.so:_ZN3fcn5PanelD1Ev
_fife.so:_ZN3fcn5PanelD2Ev
_fife.so:_ZN3fcn8DockArea10dockWidgetEPNS_6WidgetE
_fife.so:_ZN3fcn8DockArea10mouseMovedERNS_10MouseEventE
_fife.so:_ZN3fcn8DockArea10setTopSideEb
_fife.so:_ZN3fcn8DockArea11mouseExitedERNS_10MouseEventE
_fife.so:_ZN3fcn8DockArea11setLeftSideEb
_fife.so:_ZN3fcn8DockArea12keepInBoundsEv
_fife.so:_ZN3fcn8DockArea12mouseDraggedERNS_10MouseEventE
_fife.so:_ZN3fcn8DockArea12mouseEnteredERNS_10MouseEventE
_fife.so:_ZN3fcn8DockArea12mousePressedERNS_10MouseEventE
_fife.so:_ZN3fcn8DockArea12setRightSideEb
_fife.so:_ZN3fcn8DockArea12undockWidgetEPNS_6WidgetE
_fife.so:_ZN3fcn8DockArea13expandContentEb
_fife.so:_ZN3fcn8DockArea13mouseReleasedERNS_10MouseEventE
_fife.so:_ZN3fcn8DockArea13setBottomSideEb
_fife.so:_ZN3fcn8DockArea14setHighlightedEb
_fife.so:_ZN3fcn8DockArea15resizeToContentEb
_fife.so:_ZN3fcn8DockArea16repositionWidgetEPNS_6WidgetE
_fife.so:_ZN3fcn8DockArea17setActiveDockAreaEb
_fife.so:_ZN3fcn8DockArea17setHighlightColorERKNS_5ColorE
_fife.so:_ZN3fcn8DockArea19repositionDockAreasEv
_fife.so:_ZN3fcn8DockArea3addEPNS_6WidgetE
_fife.so:_ZN3fcn8DockArea6removeEPNS_6WidgetE
_fife.so:_ZN3fcn8DockAreaC1Eb
_fife.so:_ZN3fcn8DockAreaC1Ev
_fife.so:_ZN3fcn8DockAreaC2Eb
_fife.so:_ZN3fcn8DockAreaC2Ev
_fife.so:_ZN3fcn8DockAreaD0Ev
_fife.so:_ZN3fcn8DockAreaD1Ev
_fife.so:_ZN3fcn8DockAreaD2Ev
_fife.so:_ZN4FIFE10AtlasBlock5mergeERKS0_
_fife.so:_ZN4FIFE10Compressor13setCompressorEb
_fife.so:_ZN4FIFE10CompressorC1Ev
_fife.so:_ZN4FIFE10CompressorC2Ev
_fife.so:_ZN4FIFE10DeviceCaps14fillDeviceCapsEv
_fife.so:_ZN4FIFE10DeviceCaps19setRenderDriverNameERKNSt7__cxx1112basic_stringIcSt11char_traitsIcESaIcEEE
_fife.so:_ZN4FIFE10DeviceCaps20fillAvailableDriversEv
_fife.so:_ZN4FIFE10DeviceCaps5resetEv
_fife.so:_ZN4FIFE10DeviceCapsC1Ev
_fife.so:_ZN4FIFE10DeviceCapsC2Ev
_fife.so:_ZN4FIFE10DeviceCapsD1Ev
_fife.so:_ZN4FIFE10DeviceCapsD2Ev
_fife.so:_ZN4FIFE10Distortion11setEqCenterEf
_fife.so:_ZN4FIFE10Distortion14setEqBandwidthEf
_fife.so:_ZN4FIFE10Distortion16setLowpassCutoffEf
_fife.so:_ZN4FIFE10Distortion7setEdgeEf
_fife.so:_ZN4FIFE10Distortion7setGainEf
_fife.so:_ZN4FIFE10DistortionC1Ev
_fife.so:_ZN4FIFE10DistortionC2Ev
_fife.so:_ZN4FIFE10LayerCache10fullUpdateEj
_fife.so:_ZN4FIFE10LayerCache11addInstanceEPNS_8InstanceE
_fife.so:_ZN4FIFE10LayerCache12updateVisualEPNS0_5EntryE
_fife.so:_ZN4FIFE10LayerCache13getCacheImageEv
_fife.so:_ZN4FIFE10LayerCache13setCacheImageENS_9SharedPtrINS_5ImageEEE
_fife.so:_ZN4FIFE10LayerCache13updateEntriesERSt3setIiSt4lessIiESaIiEERSt6vectorIPNS_10RenderItemESaIS9_EE
_fife.so:_ZN4FIFE10LayerCache14removeInstanceEPNS_8InstanceE
_fife.so:_ZN4FIFE10LayerCache14sortRenderListERSt6vectorIPNS_10RenderItemESaIS3_EE
_fife.so:_ZN4FIFE10LayerCache14updateInstanceEPNS_8InstanceE
_fife.so:_ZN4FIFE10LayerCache14updatePositionEPNS0_5EntryE
_fife.so:_ZN4FIFE10LayerCache20fullCoordinateUpdateEj
_fife.so:_ZN4FIFE10LayerCache5resetEv
_fife.so:_ZN4FIFE10LayerCache6updateEjRSt6vectorIPNS_10RenderItemESaIS3_EE
_fife.so:_ZN4FIFE10LayerCache7collectERKNS_8RectTypeIiEERSt6vectorIiSaIiEE
_fife.so:_ZN4FIFE10LayerCache8setLayerEPNS_5LayerE
_fife.so:_ZN4FIFE10LayerCacheC1EPNS_6CameraE
_fife.so:_ZN4FIFE10LayerCacheC2EPNS_6CameraE
_fife.so:_ZN4FIFE10LayerCacheD1Ev
_fife.so:_ZN4FIFE10LayerCacheD2Ev
_fife.so:_ZN4FIFE10LogManager10m_instanceE
_fife.so:_ZN4FIFE10LogManager11isLogToFileEv
_fife.so:_ZN4FIFE10LogManager12setLogToFileEb
_fife.so:_ZN4FIFE10LogManager13getModuleNameB5cxx11E11logmodule_t
_fife.so:_ZN4FIFE10LogManager13isLogToPromptEv
_fife.so:_ZN4FIFE10LogManager14getLevelFilterEv
_fife.so:_ZN4FIFE10LogManager14setLevelFilterENS0_8LogLevelE
_fife.so:_ZN4FIFE10LogManager14setLogToPromptEb
_fife.so:_ZN4FIFE10LogManager14validateModuleE11logmodule_t
_fife.so:_ZN4FIFE10LogManager16addVisibleModuleE11logmodule_t
_fife.so:_ZN4FIFE10LogManager19clearVisibleModulesEv
_fife.so:_ZN4FIFE10LogManager19removeVisibleModuleE11logmodule_t
_fife.so:_ZN4FIFE10LogManager25validateModuleDescriptionE11logmodule_t
_fife.so:_ZN4FIFE10LogManager3logENS0_8LogLevelE11logmodule_tRKNSt7__cxx1112basic_stringIcSt11char_traitsIcESaIcEEE
_fife.so:_ZN4FIFE10LogManager8instanceEv
_fife.so:_ZN4FIFE10LogManager9isVisibleE11logmodule_t
_fife.so:_ZN4FIFE10LogManagerC1Ev
_fife.so:_ZN4FIFE10LogManagerC2Ev
_fife.so:_ZN4FIFE10LogManagerD1Ev
_fife.so:_ZN4FIFE10LogManagerD2Ev
_fife.so:_ZN4FIFE10RenderItem15setColorOverlayEPNS_13OverlayColorsE
_fife.so:_ZN4FIFE10RenderItem17deleteOverlayDataEv
_fife.so:_ZN4FIFE10RenderItem19setAnimationOverlayEPSt6vectorINS_9SharedPtrINS_5ImageEEESaIS4_EEPS1_IPNS_13OverlayColorsESaIS9_EE
_fife.so:_ZN4FIFE10RenderItem26getStaticImageIndexByAngleEjPNS_8InstanceE
_fife.so:_ZN4FIFE10RenderItem5resetEv
_fife.so:_ZN4FIFE10RenderItemC1EPNS_8InstanceE
_fife.so:_ZN4FIFE10RenderItemC2EPNS_8InstanceE
_fife.so:_ZN4FIFE10RenderItemD1Ev
_fife.so:_ZN4FIFE10RenderItemD2Ev
_fife.so:_ZN4FIFE10ScreenModeC1ERKS0_
_fife.so:_ZN4FIFE10ScreenModeC1Etttj
_fife.so:_ZN4FIFE10ScreenModeC1Ettttj
_fife.so:_ZN4FIFE10ScreenModeC1Ev
_fife.so:_ZN4FIFE10ScreenModeC2ERKS0_
_fife.so:_ZN4FIFE10ScreenModeC2Etttj
_fife.so:_ZN4FIFE10ScreenModeC2Ettttj
_fife.so:_ZN4FIFE10ScreenModeC2Ev
_fife.so:_ZN4FIFE10SquareGrid11getVerticesERSt6vectorINS_11PointType3DIdEESaIS3_EERKNS2_IiEE
_fife.so:_ZN4FIFE10SquareGrid12isAccessibleERKNS_11PointType3DIiEES4_
_fife.so:_ZN4FIFE10SquareGrid15getAdjacentCostERKNS_11PointType3DIiEES4_
_fife.so:_ZN4FIFE10SquareGrid16getHeuristicCostERKNS_11PointType3DIiEES4_
_fife.so:_ZN4FIFE10SquareGrid16toMapCoordinatesERKNS_11PointType3DIdEE
_fife.so:_ZN4FIFE10SquareGrid18toLayerCoordinatesERKNS_11PointType3DIdEE
_fife.so:_ZN4FIFE10SquareGrid18toMultiCoordinatesERKNS_11PointType3DIiEERKSt6vectorIS2_SaIS2_EEb
_fife.so:_ZN4FIFE10SquareGrid20getCoordinatesInLineERKNS_11PointType3DIiEES4_
_fife.so:_ZN4FIFE10SquareGrid23toExactLayerCoordinatesERKNS_11PointType3DIdEE
_fife.so:_ZN4FIFE10SquareGrid43toLayerCoordinatesFromExactLayerCoordinatesERKNS_11PointType3DIdEE
_fife.so:_ZN4FIFE10SquareGrid5cloneEv
_fife.so:_ZN4FIFE10SquareGridC1Ev
_fife.so:_ZN4FIFE10SquareGridC2Ev
_fife.so:_ZN4FIFE10SquareGridD0Ev
_fife.so:_ZN4FIFE10SquareGridD1Ev
_fife.so:_ZN4FIFE10SquareGridD2Ev
_fife.so:_ZN4FIFE10alEffectfvE
_fife.so:_ZN4FIFE10alEffectivE
_fife.so:_ZN4FIFE10alFilterfvE
_fife.so:_ZN4FIFE10alFilterivE
_fife.so:_ZN4FIFE10alIsEffectE
_fife.so:_ZN4FIFE10alIsFilterE
_fife.so:_ZN4FIFE11ActionAudio10setLoopingEb
_fife.so:_ZN4FIFE11ActionAudio10setMaxGainEf
_fife.so:_ZN4FIFE11ActionAudio10setMinGainEf
_fife.so:_ZN4FIFE11ActionAudio10setRolloffEf
_fife.so:_ZN4FIFE11ActionAudio11setVelocityERKNS_11PointType3DIdEE
_fife.so:_ZN4FIFE11ActionAudio12setDirectionEb
_fife.so:_ZN4FIFE11ActionAudio12setGroupNameERKNSt7__cxx1112basic_stringIcSt11char_traitsIcESaIcEEE
_fife.so:_ZN4FIFE11ActionAudio14setMaxDistanceEf
_fife.so:_ZN4FIFE11ActionAudio16setConeOuterGainEf
_fife.so:_ZN4FIFE11ActionAudio16setSoundFileNameERKNSt7__cxx1112basic_stringIcSt11char_traitsIcESaIcEEE
_fife.so:_ZN4FIFE11ActionAudio17setConeInnerAngleEf
_fife.so:_ZN4FIFE11ActionAudio17setConeOuterAngleEf
_fife.so:_ZN4FIFE11ActionAudio20setReferenceDistanceEf
_fife.so:_ZN4FIFE11ActionAudio22setRelativePositioningEb
_fife.so:_ZN4FIFE11ActionAudio7setGainEf
_fife.so:_ZN4FIFE11ActionAudio8setPitchEf
_fife.so:_ZN4FIFE11ActionAudioC1Ev
_fife.so:_ZN4FIFE11ActionAudioC2Ev
_fife.so:_ZN4FIFE11ActionAudioD1Ev
_fife.so:_ZN4FIFE11ActionAudioD2Ev
_fife.so:_ZN4FIFE11AtlasLoader10isLoadableERKNSt7__cxx1112basic_stringIcSt11char_traitsIcESaIcEEE
_fife.so:_ZN4FIFE11AtlasLoader12loadMultipleERKNSt7__cxx1112basic_stringIcSt11char_traitsIcESaIcEEE
_fife.so:_ZN4FIFE11AtlasLoader4loadERKNSt7__cxx1112basic_stringIcSt11char_traitsIcESaIcEEE
_fife.so:_ZN4FIFE11AtlasLoader9loadAtlasERKNSt7__cxx1112basic_stringIcSt11char_traitsIcESaIcEEEP12TiXmlElement
_fife.so:_ZN4FIFE11AtlasLoaderC1EPNS_5ModelEPNS_3VFSEPNS_12ImageManagerEPNS_16AnimationManagerE
_fife.so:_ZN4FIFE11AtlasLoaderC2EPNS_5ModelEPNS_3VFSEPNS_12ImageManagerEPNS_16AnimationManagerE
_fife.so:_ZN4FIFE11AtlasLoaderD0Ev
_fife.so:_ZN4FIFE11AtlasLoaderD1Ev
_fife.so:_ZN4FIFE11AtlasLoaderD2Ev
_fife.so:_ZN4FIFE11CommandLine10keyPressedERN3fcn8KeyEventE
_fife.so:_ZN4FIFE11CommandLine11setCallbackERKSt8functionIFvNSt7__cxx1112basic_stringIcSt11char_traitsIcESaIcEEEEE
_fife.so:_ZN4FIFE11CommandLine12stopBlinkingEv
_fife.so:_ZN4FIFE11CommandLine13startBlinkingEv
_fife.so:_ZN4FIFE11CommandLine18toggleCaretVisibleEv
_fife.so:_ZN4FIFE11CommandLine9drawCaretEPN3fcn8GraphicsEi
_fife.so:_ZN4FIFE11CommandLineC1Ev
_fife.so:_ZN4FIFE11CommandLineC2Ev
_fife.so:_ZN4FIFE11CommandLineD0Ev
_fife.so:_ZN4FIFE11CommandLineD1Ev
_fife.so:_ZN4FIFE11CommandLineD2Ev
_fife.so:_ZN4FIFE11ImageLoader4loadEPNS_9IResourceE
_fife.so:_ZN4FIFE11LZSSDecoder10LZSSDecodeEPhlS1_
_fife.so:_ZN4FIFE11LZSSDecoder6decodeEPNS_7RawDataEPhj
_fife.so:_ZN4FIFE11LZSSDecoderC1Ev
_fife.so:_ZN4FIFE11LZSSDecoderC2Ev
_fife.so:_ZN4FIFE11LZSSDecoderD1Ev
_fife.so:_ZN4FIFE11LZSSDecoderD2Ev
_fife.so:_ZN4FIFE11OffRenderer10setEnabledEb
_fife.so:_ZN4FIFE11OffRenderer11addTriangleERKNSt7__cxx1112basic_stringIcSt11char_traitsIcESaIcEEENS_11PointType2DIiEESA_SA_hhhh
_fife.so:_ZN4FIFE11OffRenderer11resizeImageERKNSt7__cxx1112basic_stringIcSt11char_traitsIcESaIcEEENS_11PointType2DIiEENS_9SharedPtrINS_5ImageEEEii
_fife.so:_ZN4FIFE11OffRenderer11setClipAreaENS_8RectTypeIiEE
_fife.so:_ZN4FIFE11OffRenderer12addAnimationERKNSt7__cxx1112basic_stringIcSt11char_traitsIcESaIcEEENS_11PointType2DIiEENS_9SharedPtrINS_9AnimationEEE
_fife.so:_ZN4FIFE11OffRenderer6renderEv
_fife.so:_ZN4FIFE11OffRenderer7addLineERKNSt7__cxx1112basic_stringIcSt11char_traitsIcESaIcEEENS_11PointType2DIiEESA_hhhh
_fife.so:_ZN4FIFE11OffRenderer7addQuadERKNSt7__cxx1112basic_stringIcSt11char_traitsIcESaIcEEENS_11PointType2DIiEESA_SA_SA_hhhh
_fife.so:_ZN4FIFE11OffRenderer7addTextERKNSt7__cxx1112basic_stringIcSt11char_traitsIcESaIcEEENS_11PointType2DIiEEPNS_5IFontES8_
_fife.so:_ZN4FIFE11OffRenderer8addImageERKNSt7__cxx1112basic_stringIcSt11char_traitsIcESaIcEEENS_11PointType2DIiEENS_9SharedPtrINS_5ImageEEE
_fife.so:_ZN4FIFE11OffRenderer8addPointERKNSt7__cxx1112basic_stringIcSt11char_traitsIcESaIcEEENS_11PointType2DIiEEhhhh
_fife.so:_ZN4FIFE11OffRenderer9addVertexERKNSt7__cxx1112basic_stringIcSt11char_traitsIcESaIcEEENS_11PointType2DIiEEihhhh
_fife.so:_ZN4FIFE11OffRenderer9isEnabledEv
_fife.so:_ZN4FIFE11OffRenderer9removeAllERKNSt7__cxx1112basic_stringIcSt11char_traitsIcESaIcEEE
_fife.so:_ZN4FIFE11OffRenderer9removeAllEv
_fife.so:_ZN4FIFE11OffRendererC1EPNS_13RenderBackendE
_fife.so:_ZN4FIFE11OffRendererC2EPNS_13RenderBackendE
_fife.so:_ZN4FIFE11OffRendererD0Ev
_fife.so:_ZN4FIFE11OffRendererD1Ev
_fife.so:_ZN4FIFE11OffRendererD2Ev
_fife.so:_ZN4FIFE11OverlayDataC1Ev
_fife.so:_ZN4FIFE11OverlayDataC2Ev
_fife.so:_ZN4FIFE11OverlayDataD1Ev
_fife.so:_ZN4FIFE11OverlayDataD2Ev
_fife.so:_ZN4FIFE11RawDataDAT1C1EPNS_3VFSERKNSt7__cxx1112basic_stringIcSt11char_traitsIcESaIcEEERKNS0_6s_infoE
_fife.so:_ZN4FIFE11RawDataDAT1C2EPNS_3VFSERKNSt7__cxx1112basic_stringIcSt11char_traitsIcESaIcEEERKNS0_6s_infoE
_fife.so:_ZN4FIFE11RawDataDAT2C1EPNS_3VFSERKNSt7__cxx1112basic_stringIcSt11char_traitsIcESaIcEEERKNS0_6s_infoE
_fife.so:_ZN4FIFE11RawDataDAT2C2EPNS_3VFSERKNSt7__cxx1112basic_stringIcSt11char_traitsIcESaIcEEERKNS0_6s_infoE
_fife.so:_ZN4FIFE11RawDataFile8readIntoEPhjj
_fife.so:_ZN4FIFE11RawDataFileC1ERKNSt7__cxx1112basic_stringIcSt11char_traitsIcESaIcEEE
_fife.so:_ZN4FIFE11RawDataFileC2ERKNSt7__cxx1112basic_stringIcSt11char_traitsIcESaIcEEE
_fife.so:_ZN4FIFE11RawDataFileD0Ev
_fife.so:_ZN4FIFE11RawDataFileD1Ev
_fife.so:_ZN4FIFE11RawDataFileD2Ev
_fife.so:_ZN4FIFE11RoutePather10solveRouteEPNS_5RouteEib
_fife.so:_ZN4FIFE11RoutePather11createRouteERKNS_8LocationES3_bRKNSt7__cxx1112basic_stringIcSt11char_traitsIcESaIcEEE
_fife.so:_ZN4FIFE11RoutePather11followRouteERKNS_8LocationEPNS_5RouteEdRS1_
_fife.so:_ZN4FIFE11RoutePather11getMaxTicksEv
_fife.so:_ZN4FIFE11RoutePather11setMaxTicksEi
_fife.so:_ZN4FIFE11RoutePather12addSessionIdEi
_fife.so:_ZN4FIFE11RoutePather13cancelSessionEi
_fife.so:_ZN4FIFE11RoutePather13makeSessionIdEv
_fife.so:_ZN4FIFE11RoutePather14locationsEqualERKNS_8LocationES3_
_fife.so:_ZN4FIFE11RoutePather14sessionIdValidEi
_fife.so:_ZN4FIFE11RoutePather19invalidateSessionIdEi
_fife.so:_ZN4FIFE11RoutePather6updateEv
_fife.so:_ZN4FIFE11SoundEffect10setEnabledEb
_fife.so:_ZN4FIFE11SoundEffect9getFilterEv
_fife.so:_ZN4FIFE11SoundEffect9getSlotIdEv
_fife.so:_ZN4FIFE11SoundEffect9setFilterEPNS_11SoundFilterE
_fife.so:_ZN4FIFE11SoundEffect9setSlotIdEj
_fife.so:_ZN4FIFE11SoundEffectC1Ev
_fife.so:_ZN4FIFE11SoundEffectC2Ev
_fife.so:_ZN4FIFE11SoundEffectD0Ev
_fife.so:_ZN4FIFE11SoundEffectD1Ev
_fife.so:_ZN4FIFE11SoundEffectD2Ev
_fife.so:_ZN4FIFE11SoundFilter10setEnabledEb
_fife.so:_ZN4FIFE11SoundFilter13setFilterTypeENS_15SoundFilterTypeE
_fife.so:_ZN4FIFE11SoundFilter7setGainEf
_fife.so:_ZN4FIFE11SoundFilter9setGainHfEf
_fife.so:_ZN4FIFE11SoundFilter9setGainLfEf
_fife.so:_ZN4FIFE11SoundFilterC1ENS_15SoundFilterTypeE
_fife.so:_ZN4FIFE11SoundFilterC2ENS_15SoundFilterTypeE
_fife.so:_ZN4FIFE11SoundFilterD1Ev
_fife.so:_ZN4FIFE11SoundFilterD2Ev
_fife.so:_ZN4FIFE11SoundSource11setPositionEv
_fife.so:_ZN4FIFE11SoundSource12setDirectionEv
_fife.so:_ZN4FIFE11SoundSource14setActionAudioEPNS_11ActionAudioE
_fife.so:_ZN4FIFE11SoundSource18updateSoundEmitterEv
_fife.so:_ZN4FIFE11SoundSourceC1EPNS_8InstanceE
_fife.so:_ZN4FIFE11SoundSourceC2EPNS_8InstanceE
_fife.so:_ZN4FIFE11SoundSourceD1Ev
_fife.so:_ZN4FIFE11SoundSourceD2Ev
_fife.so:_ZN4FIFE11TimeManager13registerEventEPNS_9TimeEventE
_fife.so:_ZN4FIFE11TimeManager15unregisterEventEPNS_9TimeEventE
_fife.so:_ZN4FIFE11TimeManager6updateEv
_fife.so:_ZN4FIFE11TimeManagerC1Ev
_fife.so:_ZN4FIFE11TimeManagerC2Ev
_fife.so:_ZN4FIFE11TimeManagerD0Ev
_fife.so:_ZN4FIFE11TimeManagerD1Ev
_fife.so:_ZN4FIFE11TimeManagerD2Ev
_fife.so:_ZN4FIFE11Visual2DGfxC1Ev
_fife.so:_ZN4FIFE11Visual2DGfxC2Ev
_fife.so:_ZN4FIFE11Visual2DGfxD0Ev
_fife.so:_ZN4FIFE11Visual2DGfxD1Ev
_fife.so:_ZN4FIFE11Visual2DGfxD2Ev
_fife.so:_ZN4FIFE11ZipProvider12createSourceERKNSt7__cxx1112basic_stringIcSt11char_traitsIcESaIcEEE
_fife.so:_ZN4FIFE12ActionVisual12addAnimationEjNS_9SharedPtrINS_9AnimationEEE
_fife.so:_ZN4FIFE12ActionVisual15addColorOverlayEjRKNS_13OverlayColorsE
_fife.so:_ZN4FIFE12ActionVisual15addColorOverlayEjiRKNS_13OverlayColorsE
_fife.so:_ZN4FIFE12ActionVisual15getColorOverlayEi
_fife.so:_ZN4FIFE12ActionVisual15getColorOverlayEii
_fife.so:_ZN4FIFE12ActionVisual17convertToOverlaysEb
_fife.so:_ZN4FIFE12ActionVisual18removeColorOverlayEi
_fife.so:_ZN4FIFE12ActionVisual18removeColorOverlayEii
_fife.so:_ZN4FIFE12ActionVisual19addAnimationOverlayEjiNS_9SharedPtrINS_9AnimationEEE
_fife.so:_ZN4FIFE12ActionVisual19getAnimationByAngleEi
_fife.so:_ZN4FIFE12ActionVisual19getAnimationOverlayEi
_fife.so:_ZN4FIFE12ActionVisual20getActionImageAnglesERSt6vectorIiSaIiEE
_fife.so:_ZN4FIFE12ActionVisual22removeAnimationOverlayEji
_fife.so:_ZN4FIFE12ActionVisual6createEPNS_6ActionE
_fife.so:_ZN4FIFE12ActionVisualC1Ev
_fife.so:_ZN4FIFE12ActionVisualC2Ev
_fife.so:_ZN4FIFE12ActionVisualD0Ev
_fife.so:_ZN4FIFE12ActionVisualD1Ev
_fife.so:_ZN4FIFE12ActionVisualD2Ev
_fife.so:_ZN4FIFE12CellRenderer11getInstanceEPNS_18IRendererContainerE
_fife.so:_ZN4FIFE12CellRenderer12setPathColorEhhh
_fife.so:_ZN4FIFE12CellRenderer13addPathVisualEPNS_8InstanceE
_fife.so:_ZN4FIFE12CellRenderer13isEnabledCostERKNSt7__cxx1112basic_stringIcSt11char_traitsIcESaIcEEE
_fife.so:_ZN4FIFE12CellRenderer14setEnabledCostERKNSt7__cxx1112basic_stringIcSt11char_traitsIcESaIcEEEb
_fife.so:_ZN4FIFE12CellRenderer15setBlockerColorEhhh
_fife.so:_ZN4FIFE12CellRenderer16removePathVisualEPNS_8InstanceE
_fife.so:_ZN4FIFE12CellRenderer17isEnabledBlockingEv
_fife.so:_ZN4FIFE12CellRenderer18setEnabledBlockingEb
_fife.so:_ZN4FIFE12CellRenderer19isEnabledPathVisualEv
_fife.so:_ZN4FIFE12CellRenderer20setEnabledPathVisualEb
_fife.so:_ZN4FIFE12CellRenderer5cloneEv
_fife.so:_ZN4FIFE12CellRenderer6renderEPNS_6CameraEPNS_5LayerERSt6vectorIPNS_10RenderItemESaIS7_EE
_fife.so:_ZN4FIFE12CellRenderer7getFontEv
_fife.so:_ZN4FIFE12CellRenderer7getNameB5cxx11Ev
_fife.so:_ZN4FIFE12CellRenderer7setFontEPNS_5IFontE
_fife.so:_ZN4FIFE12CellRendererC1EPNS_13RenderBackendEi
_fife.so:_ZN4FIFE12CellRendererC1ERKS0_
_fife.so:_ZN4FIFE12CellRendererC2EPNS_13RenderBackendEi
_fife.so:_ZN4FIFE12CellRendererC2ERKS0_
_fife.so:_ZN4FIFE12CellRendererD0Ev
_fife.so:_ZN4FIFE12CellRendererD1Ev
_fife.so:_ZN4FIFE12CellRendererD2Ev
_fife.so:_ZN4FIFE12EventManager11getJoystickEi
_fife.so:_ZN4FIFE12EventManager12fillKeyEventERK9SDL_EventRNS_8KeyEventE
_fife.so:_ZN4FIFE12EventManager12setKeyFilterEPNS_10IKeyFilterE
_fife.so:_ZN4FIFE12EventManager13combineEventsER9SDL_EventRKS1_
_fife.so:_ZN4FIFE12EventManager13fillModifiersERNS_10InputEventE
_fife.so:_ZN4FIFE12EventManager13fillTextEventERK9SDL_EventRNS_9TextEventE
_fife.so:_ZN4FIFE12EventManager13processEventsEv
_fife.so:_ZN4FIFE12EventManager14addKeyListenerEPNS_12IKeyListenerE
_fife.so:_ZN4FIFE12EventManager14fillMouseEventERK9SDL_EventRNS_10MouseEventE
_fife.so:_ZN4FIFE12EventManager15addDropListenerEPNS_13IDropListenerE
_fife.so:_ZN4FIFE12EventManager15addTextListenerEPNS_13ITextListenerE
_fife.so:_ZN4FIFE12EventManager15dispatchCommandERNS_7CommandE
_fife.so:_ZN4FIFE12EventManager15processKeyEventE9SDL_Event
_fife.so:_ZN4FIFE12EventManager16addMouseListenerEPNS_14IMouseListenerE
_fife.so:_ZN4FIFE12EventManager16dispatchKeyEventERNS_8KeyEventE
_fife.so:_ZN4FIFE12EventManager16dispatchSdlEventER9SDL_Event
_fife.so:_ZN4FIFE12EventManager16processDropEventE9SDL_Event
_fife.so:_ZN4FIFE12EventManager16processTextEventE9SDL_Event
_fife.so:_ZN4FIFE12EventManager16setClipboardTextERKNSt7__cxx1112basic_stringIcSt11char_traitsIcESaIcEEE
_fife.so:_ZN4FIFE12EventManager17dispatchDropEventERNS_9DropEventE
_fife.so:_ZN4FIFE12EventManager17dispatchTextEventERNS_9TextEventE
_fife.so:_ZN4FIFE12EventManager17processMouseEventE9SDL_Event
_fife.so:_ZN4FIFE12EventManager17removeKeyListenerEPNS_12IKeyListenerE
_fife.so:_ZN4FIFE12EventManager18addCommandListenerEPNS_16ICommandListenerE
_fife.so:_ZN4FIFE12EventManager18dispatchMouseEventERNS_10MouseEventE
_fife.so:_ZN4FIFE12EventManager18getEventSourceTypeEv
_fife.so:_ZN4FIFE12EventManager18loadGamepadMappingERKNSt7__cxx1112basic_stringIcSt11char_traitsIcESaIcEEE
_fife.so:_ZN4FIFE12EventManager18processWindowEventE9SDL_Event
_fife.so:_ZN4FIFE12EventManager18removeDropListenerEPNS_13IDropListenerE
_fife.so:_ZN4FIFE12EventManager18removeTextListenerEPNS_13ITextListenerE
_fife.so:_ZN4FIFE12EventManager18saveGamepadMappingENSt7__cxx1112basic_stringIcSt11char_traitsIcESaIcEEERKS6_
_fife.so:_ZN4FIFE12EventManager18setJoystickSupportEb
_fife.so:_ZN4FIFE12EventManager19addJoystickListenerEPNS_17IJoystickListenerE
_fife.so:_ZN4FIFE12EventManager19addKeyListenerFrontEPNS_12IKeyListenerE
_fife.so:_ZN4FIFE12EventManager19addSdlEventListenerEPNS_17ISdlEventListenerE
_fife.so:_ZN4FIFE12EventManager19removeMouseListenerEPNS_14IMouseListenerE
_fife.so:_ZN4FIFE12EventManager19saveGamepadMappingsERKNSt7__cxx1112basic_stringIcSt11char_traitsIcESaIcEEE
_fife.so:_ZN4FIFE12EventManager19setMouseSensitivityEf
_fife.so:_ZN4FIFE12EventManager20addDropListenerFrontEPNS_13IDropListenerE
_fife.so:_ZN4FIFE12EventManager20addTextListenerFrontEPNS_13ITextListenerE
_fife.so:_ZN4FIFE12EventManager21addMouseListenerFrontEPNS_14IMouseListenerE
_fife.so:_ZN4FIFE12EventManager21removeCommandListenerEPNS_16ICommandListenerE
_fife.so:_ZN4FIFE12EventManager22removeJoystickListenerEPNS_17IJoystickListenerE
_fife.so:_ZN4FIFE12EventManager22removeSdlEventListenerEPNS_17ISdlEventListenerE
_fife.so:_ZN4FIFE12EventManager23addCommandListenerFrontEPNS_16ICommandListenerE
_fife.so:_ZN4FIFE12EventManager23getGamepadStringMappingERKNSt7__cxx1112basic_stringIcSt11char_traitsIcESaIcEEE
_fife.so:_ZN4FIFE12EventManager23setGamepadStringMappingERKNSt7__cxx1112basic_stringIcSt11char_traitsIcESaIcEEE
_fife.so:_ZN4FIFE12EventManager24addJoystickListenerFrontEPNS_17IJoystickListenerE
_fife.so:_ZN4FIFE12EventManager24addSdlEventListenerFrontEPNS_17ISdlEventListenerE
_fife.so:_ZN4FIFE12EventManager27setMouseAccelerationEnabledEb
_fife.so:_ZN4FIFE12EventManagerC1Ev
_fife.so:_ZN4FIFE12EventManagerC2Ev
_fife.so:_ZN4FIFE12EventManagerD0Ev
_fife.so:_ZN4FIFE12EventManagerD1Ev
_fife.so:_ZN4FIFE12EventManagerD2Ev
_fife.so:_ZN4FIFE12GetExtensionB5cxx11ERKN5boost10filesystem4pathE
_fife.so:_ZN4FIFE12GetExtensionERKNSt7__cxx1112basic_stringIcSt11char_traitsIcESaIcEEE
_fife.so:_ZN4FIFE12GridRenderer11getInstanceEPNS_18IRendererContainerE
_fife.so:_ZN4FIFE12GridRenderer5cloneEv
_fife.so:_ZN4FIFE12GridRenderer6renderEPNS_6CameraEPNS_5LayerERSt6vectorIPNS_10RenderItemESaIS7_EE
_fife.so:_ZN4FIFE12GridRenderer8setColorEhhh
_fife.so:_ZN4FIFE12GridRendererC1EPNS_13RenderBackendEi
_fife.so:_ZN4FIFE12GridRendererC1ERKS0_
_fife.so:_ZN4FIFE12GridRendererC2EPNS_13RenderBackendEi
_fife.so:_ZN4FIFE12GridRendererC2ERKS0_
_fife.so:_ZN4FIFE12GridRendererD0Ev
_fife.so:_ZN4FIFE12GridRendererD1Ev
_fife.so:_ZN4FIFE12GridRendererD2Ev
_fife.so:_ZN4FIFE12HasExtensionERKN5boost10filesystem4pathE
_fife.so:_ZN4FIFE12HasExtensionERKNSt7__cxx1112basic_stringIcSt11char_traitsIcESaIcEEE
_fife.so:_ZN4FIFE12ImageManager10invalidateERKNSt7__cxx1112basic_stringIcSt11char_traitsIcESaIcEEE
_fife.so:_ZN4FIFE12ImageManager10invalidateEm
_fife.so:_ZN4FIFE12ImageManager13invalidateAllEv
_fife.so:_ZN4FIFE12ImageManager16freeUnreferencedEv
_fife.so:_ZN4FIFE12ImageManager16loadUnreferencedEv
_fife.so:_ZN4FIFE12ImageManager17getResourceHandleERKNSt7__cxx1112basic_stringIcSt11char_traitsIcESaIcEEE
_fife.so:_ZN4FIFE12ImageManager18removeUnreferencedEv
_fife.so:_ZN4FIFE12ImageManager3addEPNS_5ImageE
_fife.so:_ZN4FIFE12ImageManager3getERKNSt7__cxx1112basic_stringIcSt11char_traitsIcESaIcEEE
_fife.so:_ZN4FIFE12ImageManager3getEm
_fife.so:_ZN4FIFE12ImageManager4freeERKNSt7__cxx1112basic_stringIcSt11char_traitsIcESaIcEEE
_fife.so:_ZN4FIFE12ImageManager4freeEm
_fife.so:_ZN4FIFE12ImageManager4loadERKNSt7__cxx1112basic_stringIcSt11char_traitsIcESaIcEEEPNS_15IResourceLoaderE
_fife.so:_ZN4FIFE12ImageManager6createEPNS_15IResourceLoaderE
_fife.so:_ZN4FIFE12ImageManager6createERKNSt7__cxx1112basic_stringIcSt11char_traitsIcESaIcEEEPNS_15IResourceLoaderE
_fife.so:_ZN4FIFE12ImageManager6existsERKNSt7__cxx1112basic_stringIcSt11char_traitsIcESaIcEEE
_fife.so:_ZN4FIFE12ImageManager6existsEm
_fife.so:_ZN4FIFE12ImageManager6getPtrERKNSt7__cxx1112basic_stringIcSt11char_traitsIcESaIcEEE
_fife.so:_ZN4FIFE12ImageManager6getPtrEm
_fife.so:_ZN4FIFE12ImageManager6reloadERKNSt7__cxx1112basic_stringIcSt11char_traitsIcESaIcEEE
_fife.so:_ZN4FIFE12ImageManager6reloadEm
_fife.so:_ZN4FIFE12ImageManager6removeERKNSt7__cxx1112basic_stringIcSt11char_traitsIcESaIcEEE
_fife.so:_ZN4FIFE12ImageManager6removeERNS_9SharedPtrINS_5ImageEEE
_fife.so:_ZN4FIFE12ImageManager6removeEm
_fife.so:_ZN4FIFE12ImageManager7freeAllEv
_fife.so:_ZN4FIFE12ImageManager9loadBlankERKNSt7__cxx1112basic_stringIcSt11char_traitsIcESaIcEEEjj
_fife.so:_ZN4FIFE12ImageManager9loadBlankEjj
_fife.so:_ZN4FIFE12ImageManager9reloadAllEv
_fife.so:_ZN4FIFE12ImageManager9removeAllEv
_fife.so:_ZN4FIFE12ImageManagerD0Ev
_fife.so:_ZN4FIFE12ImageManagerD1Ev
_fife.so:_ZN4FIFE12ImageManagerD2Ev
_fife.so:_ZN4FIFE12InstanceTree11addInstanceEPNS_8InstanceE
_fife.so:_ZN4FIFE12InstanceTree13findInstancesERKNS_11PointType3DIiEEiiRNSt7__cxx114listIPNS_8InstanceESaIS8_EEE
_fife.so:_ZN4FIFE12InstanceTree14removeInstanceEPNS_8InstanceE
_fife.so:_ZN4FIFE12InstanceTreeC1Ev
_fife.so:_ZN4FIFE12InstanceTreeC2Ev
_fife.so:_ZN4FIFE12InstanceTreeD0Ev
_fife.so:_ZN4FIFE12InstanceTreeD1Ev
_fife.so:_ZN4FIFE12InstanceTreeD2Ev
_fife.so:_ZN4FIFE12ObjectLoader14getAtlasLoaderEv
_fife.so:_ZN4FIFE12ObjectLoader14loadImportFileERKNSt7__cxx1112basic_stringIcSt11char_traitsIcESaIcEEES8_
_fife.so:_ZN4FIFE12ObjectLoader14setAtlasLoaderERKNS_9SharedPtrINS_12IAtlasLoaderEEE
_fife.so:_ZN4FIFE12ObjectLoader18getAnimationLoaderEv
_fife.so:_ZN4FIFE12ObjectLoader18setAnimationLoaderERKNS_9SharedPtrINS_16IAnimationLoaderEEE
_fife.so:_ZN4FIFE12ObjectLoader19loadImportDirectoryERKNSt7__cxx1112basic_stringIcSt11char_traitsIcESaIcEEE
_fife.so:_ZN4FIFE12ObjectLoader4loadERKNSt7__cxx1112basic_stringIcSt11char_traitsIcESaIcEEE
_fife.so:_ZN4FIFE12ObjectLoaderC1EPNS_5ModelEPNS_3VFSEPNS_12ImageManagerEPNS_16AnimationManagerERKNS_9SharedPtrINS_16IAnimationLoaderEEERKNS9_INS_12IAtlasLoaderEEE
_fife.so:_ZN4FIFE12ObjectLoaderC2EPNS_5ModelEPNS_3VFSEPNS_12ImageManagerEPNS_16AnimationManagerERKNS_9SharedPtrINS_16IAnimationLoaderEEERKNS9_INS_12IAtlasLoaderEEE
_fife.so:_ZN4FIFE12ObjectLoaderD0Ev
_fife.so:_ZN4FIFE12ObjectLoaderD1Ev
_fife.so:_ZN4FIFE12ObjectLoaderD2Ev
_fife.so:_ZN4FIFE12ObjectVisual14addStaticImageEji
_fife.so:_ZN4FIFE12ObjectVisual20getStaticImageAnglesERSt6vectorIiSaIiEE
_fife.so:_ZN4FIFE12ObjectVisual21addStaticColorOverlayEjRKNS_13OverlayColorsE
_fife.so:_ZN4FIFE12ObjectVisual21getStaticColorOverlayEi
_fife.so:_ZN4FIFE12ObjectVisual23getClosestMatchingAngleEi
_fife.so:_ZN4FIFE12ObjectVisual24removeStaticColorOverlayEi
_fife.so:_ZN4FIFE12ObjectVisual26getStaticImageIndexByAngleEi
_fife.so:_ZN4FIFE12ObjectVisual6createEPNS_6ObjectE
_fife.so:_ZN4FIFE12ObjectVisualC1Ev
_fife.so:_ZN4FIFE12ObjectVisualC2Ev
_fife.so:_ZN4FIFE12ObjectVisualD0Ev
_fife.so:_ZN4FIFE12ObjectVisualD1Ev
_fife.so:_ZN4FIFE12ObjectVisualD2Ev
_fife.so:_ZN4FIFE12PitchShifter11setFineTuneEs
_fife.so:_ZN4FIFE12PitchShifter13setCoarseTuneEs
_fife.so:_ZN4FIFE12PitchShifterC1Ev
_fife.so:_ZN4FIFE12PitchShifterC2Ev
_fife.so:_ZN4FIFE12RenderTarget11addTriangleERKNSt7__cxx1112basic_stringIcSt11char_traitsIcESaIcEEENS_11PointType2DIiEESA_SA_hhhh
_fife.so:_ZN4FIFE12RenderTarget11resizeImageERKNSt7__cxx1112basic_stringIcSt11char_traitsIcESaIcEEENS_11PointType2DIiEENS_9SharedPtrINS_5ImageEEEii
_fife.so:_ZN4FIFE12RenderTarget12addAnimationERKNSt7__cxx1112basic_stringIcSt11char_traitsIcESaIcEEENS_11PointType2DIiEENS_9SharedPtrINS_9AnimationEEE
_fife.so:_ZN4FIFE12RenderTarget6renderEv
_fife.so:_ZN4FIFE12RenderTarget7addLineERKNSt7__cxx1112basic_stringIcSt11char_traitsIcESaIcEEENS_11PointType2DIiEESA_hhhh
_fife.so:_ZN4FIFE12RenderTarget7addQuadERKNSt7__cxx1112basic_stringIcSt11char_traitsIcESaIcEEENS_11PointType2DIiEESA_SA_SA_hhhh
_fife.so:_ZN4FIFE12RenderTarget7addTextERKNSt7__cxx1112basic_stringIcSt11char_traitsIcESaIcEEENS_11PointType2DIiEEPNS_5IFontES8_
_fife.so:_ZN4FIFE12RenderTarget8addImageERKNSt7__cxx1112basic_stringIcSt11char_traitsIcESaIcEEENS_11PointType2DIiEENS_9SharedPtrINS_5ImageEEE
_fife.so:_ZN4FIFE12RenderTarget8addPointERKNSt7__cxx1112basic_stringIcSt11char_traitsIcESaIcEEENS_11PointType2DIiEEhhhh
_fife.so:_ZN4FIFE12RenderTarget9addVertexERKNSt7__cxx1112basic_stringIcSt11char_traitsIcESaIcEEENS_11PointType2DIiEEihhhh
_fife.so:_ZN4FIFE12RenderTarget9removeAllERKNSt7__cxx1112basic_stringIcSt11char_traitsIcESaIcEEE
_fife.so:_ZN4FIFE12RenderTarget9removeAllEv
_fife.so:_ZN4FIFE12RenderTargetC1EPNS_13RenderBackendERKNSt7__cxx1112basic_stringIcSt11char_traitsIcESaIcEEEjj
_fife.so:_ZN4FIFE12RenderTargetC1EPNS_13RenderBackendERNS_9SharedPtrINS_5ImageEEE
_fife.so:_ZN4FIFE12RenderTargetC2EPNS_13RenderBackendERKNSt7__cxx1112basic_stringIcSt11char_traitsIcESaIcEEEjj
_fife.so:_ZN4FIFE12RenderTargetC2EPNS_13RenderBackendERNS_9SharedPtrINS_5ImageEEE
_fife.so:_ZN4FIFE12RenderTargetD1Ev
_fife.so:_ZN4FIFE12RenderTargetD2Ev
_fife.so:_ZN4FIFE12RendererBase10setEnabledEb
_fife.so:_ZN4FIFE12RendererBase14addActiveLayerEPNS_5LayerE
_fife.so:_ZN4FIFE12RendererBase14isActivedLayerEPNS_5LayerE
_fife.so:_ZN4FIFE12RendererBase17activateAllLayersEPNS_3MapE
_fife.so:_ZN4FIFE12RendererBase17clearActiveLayersEv
_fife.so:_ZN4FIFE12RendererBase17removeActiveLayerEPNS_5LayerE
_fife.so:_ZN4FIFE12RendererBase19setPipelinePositionEi
_fife.so:_ZN4FIFE12RendererBaseC1EPNS_13RenderBackendEi
_fife.so:_ZN4FIFE12RendererBaseC1ERKS0_
_fife.so:_ZN4FIFE12RendererBaseC1Ev
_fife.so:_ZN4FIFE12RendererBaseC2EPNS_13RenderBackendEi
_fife.so:_ZN4FIFE12RendererBaseC2ERKS0_
_fife.so:_ZN4FIFE12RendererBaseC2Ev
_fife.so:_ZN4FIFE12RendererNode11addInstanceEPNS_8InstanceE
_fife.so:_ZN4FIFE12RendererNode11getInstanceEv
_fife.so:_ZN4FIFE12RendererNode11getLocationEv
_fife.so:_ZN4FIFE12RendererNode11getPointRefEv
_fife.so:_ZN4FIFE12RendererNode11setAttachedEPNS_5LayerE
_fife.so:_ZN4FIFE12RendererNode11setAttachedEPNS_8InstanceE
_fife.so:_ZN4FIFE12RendererNode11setAttachedEPNS_8InstanceERKNS_11PointType2DIiEE
_fife.so:_ZN4FIFE12RendererNode11setAttachedEPNS_8InstanceERKNS_8LocationE
_fife.so:_ZN4FIFE12RendererNode11setAttachedEPNS_8InstanceERKNS_8LocationERKNS_11PointType2DIiEE
_fife.so:_ZN4FIFE12RendererNode11setAttachedERKNS_11PointType2DIiEE
_fife.so:_ZN4FIFE12RendererNode11setAttachedERKNS_8LocationE
_fife.so:_ZN4FIFE12RendererNode11setAttachedERKNS_8LocationERKNS_11PointType2DIiEE
_fife.so:_ZN4FIFE12RendererNode11setRelativeERKNS_11PointType2DIiEE
_fife.so:_ZN4FIFE12RendererNode11setRelativeERKNS_8LocationE
_fife.so:_ZN4FIFE12RendererNode11setRelativeERKNS_8LocationENS_11PointType2DIiEE
_fife.so:_ZN4FIFE12RendererNode14changeInstanceEPNS_8InstanceE
_fife.so:_ZN4FIFE12RendererNode14getLocationRefEv
_fife.so:_ZN4FIFE12RendererNode14getOffsetPointEv
_fife.so:_ZN4FIFE12RendererNode14removeInstanceEPNS_8InstanceEb
_fife.so:_ZN4FIFE12RendererNode16getAttachedLayerEv
_fife.so:_ZN4FIFE12RendererNode16getAttachedPointEv
_fife.so:_ZN4FIFE12RendererNode17getOffsetLocationEv
_fife.so:_ZN4FIFE12RendererNode18getCalculatedPointEPNS_6CameraEPNS_5LayerEb
_fife.so:_ZN4FIFE12RendererNode19checkDeleteListenerEv
_fife.so:_ZN4FIFE12RendererNode19getAttachedInstanceEv
_fife.so:_ZN4FIFE12RendererNode19getAttachedLocationEv
_fife.so:_ZN4FIFE12RendererNode8getLayerEv
_fife.so:_ZN4FIFE12RendererNode8getPointEv
_fife.so:_ZN4FIFE12RendererNodeC1EPNS_5LayerERKNS_11PointType2DIiEE
_fife.so:_ZN4FIFE12RendererNodeC1EPNS_8InstanceEPNS_5LayerERKNS_11PointType2DIiEE
_fife.so:_ZN4FIFE12RendererNodeC1EPNS_8InstanceERKNS_11PointType2DIiEE
_fife.so:_ZN4FIFE12RendererNodeC1EPNS_8InstanceERKNS_8LocationEPNS_5LayerERKNS_11PointType2DIiEE
_fife.so:_ZN4FIFE12RendererNodeC1EPNS_8InstanceERKNS_8LocationERKNS_11PointType2DIiEE
_fife.so:_ZN4FIFE12RendererNodeC1ERKNS_11PointType2DIiEE
_fife.so:_ZN4FIFE12RendererNodeC1ERKNS_8LocationEPNS_5LayerERKNS_11PointType2DIiEE
_fife.so:_ZN4FIFE12RendererNodeC1ERKNS_8LocationERKNS_11PointType2DIiEE
_fife.so:_ZN4FIFE12RendererNodeC1ERKS0_
_fife.so:_ZN4FIFE12RendererNodeC2EPNS_5LayerERKNS_11PointType2DIiEE
_fife.so:_ZN4FIFE12RendererNodeC2EPNS_8InstanceEPNS_5LayerERKNS_11PointType2DIiEE
_fife.so:_ZN4FIFE12RendererNodeC2EPNS_8InstanceERKNS_11PointType2DIiEE
_fife.so:_ZN4FIFE12RendererNodeC2EPNS_8InstanceERKNS_8LocationEPNS_5LayerERKNS_11PointType2DIiEE
_fife.so:_ZN4FIFE12RendererNodeC2EPNS_8InstanceERKNS_8LocationERKNS_11PointType2DIiEE
_fife.so:_ZN4FIFE12RendererNodeC2ERKNS_11PointType2DIiEE
_fife.so:_ZN4FIFE12RendererNodeC2ERKNS_8LocationEPNS_5LayerERKNS_11PointType2DIiEE
_fife.so:_ZN4FIFE12RendererNodeC2ERKNS_8LocationERKNS_11PointType2DIiEE
_fife.so:_ZN4FIFE12RendererNodeC2ERKS0_
_fife.so:_ZN4FIFE12RendererNodeD1Ev
_fife.so:_ZN4FIFE12RendererNodeD2Ev
_fife.so:_ZN4FIFE12RendererNodeaSERKS0_
_fife.so:_ZN4FIFE12SoundEmitter10isFinishedEv
_fife.so:_ZN4FIFE12SoundEmitter10setLoopingEb
_fife.so:_ZN4FIFE12SoundEmitter10setMaxGainEf
_fife.so:_ZN4FIFE12SoundEmitter10setMinGainEf
_fife.so:_ZN4FIFE12SoundEmitter10setRolloffEf
_fife.so:_ZN4FIFE12SoundEmitter11addListenerEPNS_20SoundEmitterListenerE
_fife.so:_ZN4FIFE12SoundEmitter11getDurationEv
_fife.so:_ZN4FIFE12SoundEmitter11setPositionERKNS_11PointType3DIdEE
_fife.so:_ZN4FIFE12SoundEmitter11setVelocityERKNS_11PointType3DIdEE
_fife.so:_ZN4FIFE12SoundEmitter12getSoundClipEv
_fife.so:_ZN4FIFE12SoundEmitter12removeEffectEPNS_11SoundEffectE
_fife.so:_ZN4FIFE12SoundEmitter12setDirectionERKNS_11PointType3DIdEE
_fife.so:_ZN4FIFE12SoundEmitter12setSoundClipENS_9SharedPtrINS_9SoundClipEEE
_fife.so:_ZN4FIFE12SoundEmitter12setSoundClipERKNSt7__cxx1112basic_stringIcSt11char_traitsIcESaIcEEE
_fife.so:_ZN4FIFE12SoundEmitter13getSampleRateEv
_fife.so:_ZN4FIFE12SoundEmitter14getEffectCountEv
_fife.so:_ZN4FIFE12SoundEmitter14removeListenerEPNS_20SoundEmitterListenerE
_fife.so:_ZN4FIFE12SoundEmitter14setMaxDistanceEf
_fife.so:_ZN4FIFE12SoundEmitter15activateEffectsEv
_fife.so:_ZN4FIFE12SoundEmitter15attachSoundClipEv
_fife.so:_ZN4FIFE12SoundEmitter15detachSoundClipEv
_fife.so:_ZN4FIFE12SoundEmitter15getDirectFilterEv
_fife.so:_ZN4FIFE12SoundEmitter15getEffectNumberEPNS_11SoundEffectE
_fife.so:_ZN4FIFE12SoundEmitter15resetInternDataEv
_fife.so:_ZN4FIFE12SoundEmitter15setDirectFilterEPNS_11SoundFilterE
_fife.so:_ZN4FIFE12SoundEmitter16getBitResolutionEv
_fife.so:_ZN4FIFE12SoundEmitter16getDecodedLengthEv
_fife.so:_ZN4FIFE12SoundEmitter16getPlayTimestampEv
_fife.so:_ZN4FIFE12SoundEmitter16setConeOuterGainEf
_fife.so:_ZN4FIFE12SoundEmitter17deactivateEffectsEv
_fife.so:_ZN4FIFE12SoundEmitter17setConeInnerAngleEf
_fife.so:_ZN4FIFE12SoundEmitter17setConeOuterAngleEf
_fife.so:_ZN4FIFE12SoundEmitter18setCheckDifferenceEv
_fife.so:_ZN4FIFE12SoundEmitter19callOnSoundFinishedEv
_fife.so:_ZN4FIFE12SoundEmitter20setReferenceDistanceEf
_fife.so:_ZN4FIFE12SoundEmitter22setRelativePositioningEb
_fife.so:_ZN4FIFE12SoundEmitter4playEff
_fife.so:_ZN4FIFE12SoundEmitter4playEv
_fife.so:_ZN4FIFE12SoundEmitter4stopEf
_fife.so:_ZN4FIFE12SoundEmitter4stopEv
_fife.so:_ZN4FIFE12SoundEmitter5pauseEv
_fife.so:_ZN4FIFE12SoundEmitter5resetEb
_fife.so:_ZN4FIFE12SoundEmitter6rewindEv
_fife.so:_ZN4FIFE12SoundEmitter6updateEv
_fife.so:_ZN4FIFE12SoundEmitter7releaseEv
_fife.so:_ZN4FIFE12SoundEmitter7setGainEf
_fife.so:_ZN4FIFE12SoundEmitter8getGroupB5cxx11Ev
_fife.so:_ZN4FIFE12SoundEmitter8getStateEv
_fife.so:_ZN4FIFE12SoundEmitter8isStereoEv
_fife.so:_ZN4FIFE12SoundEmitter8setGroupERKNSt7__cxx1112basic_stringIcSt11char_traitsIcESaIcEEE
_fife.so:_ZN4FIFE12SoundEmitter8setPitchEf
_fife.so:_ZN4FIFE12SoundEmitter8syncDataEv
_fife.so:_ZN4FIFE12SoundEmitter9addEffectEPNS_11SoundEffectE
_fife.so:_ZN4FIFE12SoundEmitter9checkFadeEv
_fife.so:_ZN4FIFE12SoundEmitter9getCursorENS_17SoundPositionTypeE
_fife.so:_ZN4FIFE12SoundEmitter9setCursorENS_17SoundPositionTypeEf
_fife.so:_ZN4FIFE12SoundEmitter9setSourceEj
_fife.so:_ZN4FIFE12SoundEmitterC1EPNS_12SoundManagerEj
_fife.so:_ZN4FIFE12SoundEmitterC2EPNS_12SoundManagerEj
_fife.so:_ZN4FIFE12SoundEmitterD1Ev
_fife.so:_ZN4FIFE12SoundEmitterD2Ev
_fife.so:_ZN4FIFE12SoundManager10addToGroupEPNS_12SoundEmitterE
_fife.so:_ZN4FIFE12SoundManager10setMaxGainERKNSt7__cxx1112basic_stringIcSt11char_traitsIcESaIcEEEf
_fife.so:_ZN4FIFE12SoundManager10setMinGainERKNSt7__cxx1112basic_stringIcSt11char_traitsIcESaIcEEEf
_fife.so:_ZN4FIFE12SoundManager11removeGroupERKNSt7__cxx1112basic_stringIcSt11char_traitsIcESaIcEEE
_fife.so:_ZN4FIFE12SoundManager13createEmitterERKNSt7__cxx1112basic_stringIcSt11char_traitsIcESaIcEEE
_fife.so:_ZN4FIFE12SoundManager13createEmitterEv
_fife.so:_ZN4FIFE12SoundManager13deleteEmitterEPNS_12SoundEmitterE
_fife.so:_ZN4FIFE12SoundManager13releaseSourceEPNS_12SoundEmitterE
_fife.so:_ZN4FIFE12SoundManager14activateEffectEPNS_11SoundEffectEPNS_12SoundEmitterE
_fife.so:_ZN4FIFE12SoundManager14activateFilterEPNS_11SoundFilterEPNS_12SoundEmitterE
_fife.so:_ZN4FIFE12SoundManager14releaseEmitterEj
_fife.so:_ZN4FIFE12SoundManager15removeAllGroupsEv
_fife.so:_ZN4FIFE12SoundManager15removeFromGroupEPNS_12SoundEmitterE
_fife.so:_ZN4FIFE12SoundManager16deactivateEffectEPNS_11SoundEffectEPNS_12SoundEmitterE
_fife.so:_ZN4FIFE12SoundManager16deactivateFilterEPNS_11SoundFilterEPNS_12SoundEmitterE
_fife.so:_ZN4FIFE12SoundManager16setDistanceModelENS_22SoundDistanceModelTypeE
_fife.so:_ZN4FIFE12SoundManager16setDopplerFactorEf
_fife.so:_ZN4FIFE12SoundManager16setEmitterSourceEPNS_12SoundEmitterE
_fife.so:_ZN4FIFE12SoundManager17createSoundEffectENS_15SoundEffectTypeE
_fife.so:_ZN4FIFE12SoundManager17createSoundFilterENS_15SoundFilterTypeE
_fife.so:_ZN4FIFE12SoundManager17deleteSoundEffectEPNS_11SoundEffectE
_fife.so:_ZN4FIFE12SoundManager17deleteSoundFilterEPNS_11SoundFilterE
_fife.so:_ZN4FIFE12SoundManager17enableSoundEffectEPNS_11SoundEffectE
_fife.so:_ZN4FIFE12SoundManager18disableSoundEffectEPNS_11SoundEffectE
_fife.so:_ZN4FIFE12SoundManager19setListenerPositionERKNS_11PointType3DIdEE
_fife.so:_ZN4FIFE12SoundManager19setListenerVelocityERKNS_11PointType3DIdEE
_fife.so:_ZN4FIFE12SoundManager22setListenerMaxDistanceEf
_fife.so:_ZN4FIFE12SoundManager22setListenerOrientationERKNS_11PointType3DIdEE
_fife.so:_ZN4FIFE12SoundManager23addEmitterToSoundEffectEPNS_11SoundEffectEPNS_12SoundEmitterE
_fife.so:_ZN4FIFE12SoundManager23createSoundEffectPresetENS_17SoundEffectPresetE
_fife.so:_ZN4FIFE12SoundManager23enableDirectSoundFilterEPNS_11SoundFilterE
_fife.so:_ZN4FIFE12SoundManager24disableDirectSoundFilterEPNS_11SoundFilterE
_fife.so:_ZN4FIFE12SoundManager27addSoundFilterToSoundEffectEPNS_11SoundEffectEPNS_11SoundFilterE
_fife.so:_ZN4FIFE12SoundManager28removeEmitterFromSoundEffectEPNS_11SoundEffectEPNS_12SoundEmitterE
_fife.so:_ZN4FIFE12SoundManager29addEmitterToDirectSoundFilterEPNS_11SoundFilterEPNS_12SoundEmitterE
_fife.so:_ZN4FIFE12SoundManager32removeSoundFilterFromSoundEffectEPNS_11SoundEffectEPNS_11SoundFilterE
_fife.so:_ZN4FIFE12SoundManager34removeEmitterFromDirectSoundFilterEPNS_11SoundFilterEPNS_12SoundEmitterE
_fife.so:_ZN4FIFE12SoundManager4initEv
_fife.so:_ZN4FIFE12SoundManager4muteEv
_fife.so:_ZN4FIFE12SoundManager4playERKNSt7__cxx1112basic_stringIcSt11char_traitsIcESaIcEEE
_fife.so:_ZN4FIFE12SoundManager4playEv
_fife.so:_ZN4FIFE12SoundManager4stopERKNSt7__cxx1112basic_stringIcSt11char_traitsIcESaIcEEE
_fife.so:_ZN4FIFE12SoundManager4stopEv
_fife.so:_ZN4FIFE12SoundManager5pauseERKNSt7__cxx1112basic_stringIcSt11char_traitsIcESaIcEEE
_fife.so:_ZN4FIFE12SoundManager5pauseEv
_fife.so:_ZN4FIFE12SoundManager6rewindERKNSt7__cxx1112basic_stringIcSt11char_traitsIcESaIcEEE
_fife.so:_ZN4FIFE12SoundManager6rewindEv
_fife.so:_ZN4FIFE12SoundManager6unmuteEv
_fife.so:_ZN4FIFE12SoundManager6updateEv
_fife.so:_ZN4FIFE12SoundManager7setGainERKNSt7__cxx1112basic_stringIcSt11char_traitsIcESaIcEEEf
_fife.so:_ZN4FIFE12SoundManager9setVolumeEf
_fife.so:_ZN4FIFE12SoundManagerC1Ev
_fife.so:_ZN4FIFE12SoundManagerC2Ev
_fife.so:_ZN4FIFE12SoundManagerD0Ev
_fife.so:_ZN4FIFE12SoundManagerD1Ev
_fife.so:_ZN4FIFE12SoundManagerD2Ev
_fife.so:_ZN4FIFE12SubImageFontC1ERKNSt7__cxx1112basic_stringIcSt11char_traitsIcESaIcEEES8_
_fife.so:_ZN4FIFE12SubImageFontC2ERKNSt7__cxx1112basic_stringIcSt11char_traitsIcESaIcEEES8_
_fife.so:_ZN4FIFE12TimeProvider13setMultiplierEf
_fife.so:_ZN4FIFE12TimeProviderC1EPS0_
_fife.so:_ZN4FIFE12TimeProviderC2EPS0_
_fife.so:_ZN4FIFE12TimeProviderD1Ev
_fife.so:_ZN4FIFE12TimeProviderD2Ev
_fife.so:_ZN4FIFE12TrueTypeFont12renderStringERKNSt7__cxx1112basic_stringIcSt11char_traitsIcESaIcEEE
_fife.so:_ZN4FIFE12TrueTypeFont12setBoldStyleEb
_fife.so:_ZN4FIFE12TrueTypeFont14setItalicStyleEb
_fife.so:_ZN4FIFE12TrueTypeFont17setUnderlineStyleEb
_fife.so:_ZN4FIFE12TrueTypeFont21setStrikethroughStyleEb
_fife.so:_ZN4FIFE12TrueTypeFont8setColorEhhhh
_fife.so:_ZN4FIFE12TrueTypeFontC1ERKNSt7__cxx1112basic_stringIcSt11char_traitsIcESaIcEEEi
_fife.so:_ZN4FIFE12TrueTypeFontC2ERKNSt7__cxx1112basic_stringIcSt11char_traitsIcESaIcEEEi
_fife.so:_ZN4FIFE12TrueTypeFontD0Ev
_fife.so:_ZN4FIFE12TrueTypeFontD1Ev
_fife.so:_ZN4FIFE12TrueTypeFontD2Ev
_fife.so:_ZN4FIFE12VFSDirectoryC1EPNS_3VFSERKNSt7__cxx1112basic_stringIcSt11char_traitsIcESaIcEEE
_fife.so:_ZN4FIFE12VFSDirectoryC2EPNS_3VFSERKNSt7__cxx1112basic_stringIcSt11char_traitsIcESaIcEEE
_fife.so:_ZN4FIFE12VFSDirectoryD0Ev
_fife.so:_ZN4FIFE12VFSDirectoryD1Ev
_fife.so:_ZN4FIFE12VFSDirectoryD2Ev
_fife.so:_ZN4FIFE12VocalMorpher11setPhonemeAEt
_fife.so:_ZN4FIFE12VocalMorpher11setPhonemeBEt
_fife.so:_ZN4FIFE12VocalMorpher11setWaveformEh
_fife.so:_ZN4FIFE12VocalMorpher17setPhonemeCoarseAEs
_fife.so:_ZN4FIFE12VocalMorpher17setPhonemeCoarseBEs
_fife.so:_ZN4FIFE12VocalMorpher7setRateEf
_fife.so:_ZN4FIFE12VocalMorpherC1Ev
_fife.so:_ZN4FIFE12VocalMorpherC2Ev
_fife.so:_ZN4FIFE12ZipEntryDataC1Ev
_fife.so:_ZN4FIFE12ZipEntryDataC2Ev
_fife.so:_ZN4FIFE12alGenEffectsE
_fife.so:_ZN4FIFE12alGenFiltersE
_fife.so:_ZN4FIFE12alGetEffectfE
_fife.so:_ZN4FIFE12alGetEffectiE
_fife.so:_ZN4FIFE12alGetFilterfE
_fife.so:_ZN4FIFE12alGetFilteriE
_fife.so:_ZN4FIFE12pipelineSortEPKNS_12RendererBaseES2_
_fife.so:_ZN4FIFE13GetParentPathERKN5boost10filesystem4pathE
_fife.so:_ZN4FIFE13HasParentPathERKN5boost10filesystem4pathE
_fife.so:_ZN4FIFE13ImageFontBase12renderStringERKNSt7__cxx1112basic_stringIcSt11char_traitsIcESaIcEEE
_fife.so:_ZN4FIFE13ImageFontBase8setColorEhhhh
_fife.so:_ZN4FIFE13ImageFontBaseC1Ev
_fife.so:_ZN4FIFE13ImageFontBaseC2Ev
_fife.so:_ZN4FIFE13ImageFontBaseD0Ev
_fife.so:_ZN4FIFE13ImageFontBaseD1Ev
_fife.so:_ZN4FIFE13ImageFontBaseD2Ev
_fife.so:_ZN4FIFE13LightRenderer11getInstanceEPNS_18IRendererContainerE
_fife.so:_ZN4FIFE13LightRenderer11resizeImageERKNSt7__cxx1112basic_stringIcSt11char_traitsIcESaIcEEENS_12RendererNodeENS_9SharedPtrINS_5ImageEEEiiii
_fife.so:_ZN4FIFE13LightRenderer12addAnimationERKNSt7__cxx1112basic_stringIcSt11char_traitsIcESaIcEEENS_12RendererNodeENS_9SharedPtrINS_9AnimationEEEii
_fife.so:_ZN4FIFE13LightRenderer12getLightInfoERKNSt7__cxx1112basic_stringIcSt11char_traitsIcESaIcEEE
_fife.so:_ZN4FIFE13LightRenderer14addSimpleLightERKNSt7__cxx1112basic_stringIcSt11char_traitsIcESaIcEEENS_12RendererNodeEhfiffhhhii
_fife.so:_ZN4FIFE13LightRenderer14addStencilTestERKNSt7__cxx1112basic_stringIcSt11char_traitsIcESaIcEEEh
_fife.so:_ZN4FIFE13LightRenderer17removeStencilTestERKNSt7__cxx1112basic_stringIcSt11char_traitsIcESaIcEEE
_fife.so:_ZN4FIFE13LightRenderer5cloneEv
_fife.so:_ZN4FIFE13LightRenderer5resetEv
_fife.so:_ZN4FIFE13LightRenderer6renderEPNS_6CameraEPNS_5LayerERSt6vectorIPNS_10RenderItemESaIS7_EE
_fife.so:_ZN4FIFE13LightRenderer8addImageERKNSt7__cxx1112basic_stringIcSt11char_traitsIcESaIcEEENS_12RendererNodeENS_9SharedPtrINS_5ImageEEEii
_fife.so:_ZN4FIFE13LightRenderer9getGroupsB5cxx11Ev
_fife.so:_ZN4FIFE13LightRenderer9removeAllERKNSt7__cxx1112basic_stringIcSt11char_traitsIcESaIcEEE
_fife.so:_ZN4FIFE13LightRenderer9removeAllEv
_fife.so:_ZN4FIFE13LightRendererC1EPNS_13RenderBackendEi
_fife.so:_ZN4FIFE13LightRendererC1ERKS0_
_fife.so:_ZN4FIFE13LightRendererC2EPNS_13RenderBackendEi
_fife.so:_ZN4FIFE13LightRendererC2ERKS0_
_fife.so:_ZN4FIFE13LightRendererD0Ev
_fife.so:_ZN4FIFE13LightRendererD1Ev
_fife.so:_ZN4FIFE13LightRendererD2Ev
_fife.so:_ZN4FIFE13OverlayColors11changeColorERKNS_5ColorES3_
_fife.so:_ZN4FIFE13OverlayColors11resetColorsEv
_fife.so:_ZN4FIFE13OverlayColors20getColorOverlayImageEv
_fife.so:_ZN4FIFE13OverlayColors20setColorOverlayImageENS_9SharedPtrINS_5ImageEEE
_fife.so:_ZN4FIFE13OverlayColors24getColorOverlayAnimationEv
_fife.so:_ZN4FIFE13OverlayColors24setColorOverlayAnimationENS_9SharedPtrINS_9AnimationEEE
_fife.so:_ZN4FIFE13OverlayColors9getColorsEv
_fife.so:_ZN4FIFE13OverlayColorsC1ENS_9SharedPtrINS_5ImageEEE
_fife.so:_ZN4FIFE13OverlayColorsC1ENS_9SharedPtrINS_9AnimationEEE
_fife.so:_ZN4FIFE13OverlayColorsC1Ev
_fife.so:_ZN4FIFE13OverlayColorsC2ENS_9SharedPtrINS_5ImageEEE
_fife.so:_ZN4FIFE13OverlayColorsC2ENS_9SharedPtrINS_9AnimationEEE
_fife.so:_ZN4FIFE13OverlayColorsC2Ev
_fife.so:_ZN4FIFE13OverlayColorsD1Ev
_fife.so:_ZN4FIFE13OverlayColorsD2Ev
_fife.so:_ZN4FIFE13RawDataSourceC1Ev
_fife.so:_ZN4FIFE13RawDataSourceC2Ev
_fife.so:_ZN4FIFE13RawDataSourceD0Ev
_fife.so:_ZN4FIFE13RawDataSourceD1Ev
_fife.so:_ZN4FIFE13RawDataSourceD2Ev
_fife.so:_ZN4FIFE13RenderBackend10startFrameEv
_fife.so:_ZN4FIFE13RenderBackend11popClipAreaEv
_fife.so:_ZN4FIFE13RenderBackend11setColorKeyERK9SDL_Color
_fife.so:_ZN4FIFE13RenderBackend12pushClipAreaERKNS_8RectTypeIiEEb
_fife.so:_ZN4FIFE13RenderBackend13clearClipAreaEv
_fife.so:_ZN4FIFE13RenderBackend13setFrameLimitEt
_fife.so:_ZN4FIFE13RenderBackend14getBezierPointERKSt6vectorINS_11PointType2DIiEESaIS3_EEif
_fife.so:_ZN4FIFE13RenderBackend15setVSyncEnabledEb
_fife.so:_ZN4FIFE13RenderBackend16addControlPointsERKSt6vectorINS_11PointType2DIiEESaIS3_EERS5_
_fife.so:_ZN4FIFE13RenderBackend16getScreenSurfaceEv
_fife.so:_ZN4FIFE13RenderBackend17setAlphaTestValueEf
_fife.so:_ZN4FIFE13RenderBackend18setBackgroundColorEhhh
_fife.so:_ZN4FIFE13RenderBackend18setColorKeyEnabledEb
_fife.so:_ZN4FIFE13RenderBackend19setTextureFilteringENS_16TextureFilteringE
_fife.so:_ZN4FIFE13RenderBackend20resetBackgroundColorEv
_fife.so:_ZN4FIFE13RenderBackend20setFrameLimitEnabledEb
_fife.so:_ZN4FIFE13RenderBackend20setMipmappingEnabledEb
_fife.so:_ZN4FIFE13RenderBackend20setMonochromeEnabledEb
_fife.so:_ZN4FIFE13RenderBackend21setDepthBufferEnabledEb
_fife.so:_ZN4FIFE13RenderBackend22getRenderTargetSurfaceEv
_fife.so:_ZN4FIFE13RenderBackend6deinitEv
_fife.so:_ZN4FIFE13RenderBackend8endFrameEv
_fife.so:_ZN4FIFE13RenderBackendC1ERK9SDL_Color
_fife.so:_ZN4FIFE13RenderBackendC2ERK9SDL_Color
_fife.so:_ZN4FIFE13RenderBackendD0Ev
_fife.so:_ZN4FIFE13RenderBackendD1Ev
_fife.so:_ZN4FIFE13RenderBackendD2Ev
_fife.so:_ZN4FIFE13RenderVisitorC1EPNS_13RenderBackendEPNS_5LayerEPNS_6CameraE
_fife.so:_ZN4FIFE13RenderVisitorC2EPNS_13RenderBackendEPNS_5LayerEPNS_6CameraE
_fife.so:_ZN4FIFE13RenderVisitorD1Ev
_fife.so:_ZN4FIFE13RenderVisitorD2Ev
_fife.so:_ZN4FIFE13RingModulator11setWaveformEh
_fife.so:_ZN4FIFE13RingModulator12setFrequencyEf
_fife.so:_ZN4FIFE13RingModulator17setHighpassCutoffEf
_fife.so:_ZN4FIFE13RingModulatorC1Ev
_fife.so:_ZN4FIFE13RingModulatorC2Ev
_fife.so:_ZN4FIFE13ZipFileSource8readIntoEPhjj
_fife.so:_ZN4FIFE13ZipFileSourceC1EPhj
_fife.so:_ZN4FIFE13ZipFileSourceC2EPhj
_fife.so:_ZN4FIFE13ZipFileSourceD0Ev
_fife.so:_ZN4FIFE13ZipFileSourceD1Ev
_fife.so:_ZN4FIFE13ZipFileSourceD2Ev
_fife.so:_ZN4FIFE13alGetEffectfvE
_fife.so:_ZN4FIFE13alGetEffectivE
_fife.so:_ZN4FIFE13alGetFilterfvE
_fife.so:_ZN4FIFE13alGetFilterivE
_fife.so:_ZN4FIFE14EngineSettings11setColorKeyEhhh
_fife.so:_ZN4FIFE14EngineSettings12setGLUseNPOTEb
_fife.so:_ZN4FIFE14EngineSettings13setFrameLimitEt
_fife.so:_ZN4FIFE14EngineSettings13setWindowIconERKNSt7__cxx1112basic_stringIcSt11char_traitsIcESaIcEEE
_fife.so:_ZN4FIFE14EngineSettings14setScreenWidthEt
_fife.so:_ZN4FIFE14EngineSettings14setVideoDriverERKNSt7__cxx1112basic_stringIcSt11char_traitsIcESaIcEEE
_fife.so:_ZN4FIFE14EngineSettings14setWindowTitleERKNSt7__cxx1112basic_stringIcSt11char_traitsIcESaIcEEE
_fife.so:_ZN4FIFE14EngineSettings15setBitsPerPixelEh
_fife.so:_ZN4FIFE14EngineSettings15setScreenHeightEt
_fife.so:_ZN4FIFE14EngineSettings16setInitialVolumeEf
_fife.so:_ZN4FIFE14EngineSettings16setLightingModelEj
_fife.so:_ZN4FIFE14EngineSettings16setRenderBackendERKNSt7__cxx1112basic_stringIcSt11char_traitsIcESaIcEEE
_fife.so:_ZN4FIFE14EngineSettings18setColorKeyEnabledEb
_fife.so:_ZN4FIFE14EngineSettings18setDefaultFontPathERKNSt7__cxx1112basic_stringIcSt11char_traitsIcESaIcEEE
_fife.so:_ZN4FIFE14EngineSettings18setDefaultFontSizeEt
_fife.so:_ZN4FIFE14EngineSettings18setGLUseMipmappingEb
_fife.so:_ZN4FIFE14EngineSettings18setGLUseMonochromeEb
_fife.so:_ZN4FIFE14EngineSettings18setJoystickSupportEb
_fife.so:_ZN4FIFE14EngineSettings19setGLAlphaTestValueEf
_fife.so:_ZN4FIFE14EngineSettings19setGLCompressImagesEb
_fife.so:_ZN4FIFE14EngineSettings19setGLUseDepthBufferEb
_fife.so:_ZN4FIFE14EngineSettings19setGLUseFramebufferEb
_fife.so:_ZN4FIFE14EngineSettings19setMouseSensitivityEf
_fife.so:_ZN4FIFE14EngineSettings20setDefaultFontGlyphsERKNSt7__cxx1112basic_stringIcSt11char_traitsIcESaIcEEE
_fife.so:_ZN4FIFE14EngineSettings20setFrameLimitEnabledEb
_fife.so:_ZN4FIFE14EngineSettings21setGLTextureFilteringENS_16TextureFilteringE
_fife.so:_ZN4FIFE14EngineSettings21setSDLRemoveFakeAlphaEb
_fife.so:_ZN4FIFE14EngineSettings25getPossibleRenderBackendsB5cxx11Ev
_fife.so:_ZN4FIFE14EngineSettings27setMouseAccelerationEnabledEb
_fife.so:_ZN4FIFE14EngineSettings27setNativeImageCursorEnabledEb
_fife.so:_ZN4FIFE14EngineSettingsC1Ev
_fife.so:_ZN4FIFE14EngineSettingsC2Ev
_fife.so:_ZN4FIFE14EngineSettingsD1Ev
_fife.so:_ZN4FIFE14EngineSettingsD2Ev
_fife.so:_ZN4FIFE14GuiImageLoader4loadERKNSt7__cxx1112basic_stringIcSt11char_traitsIcESaIcEEEb
_fife.so:_ZN4FIFE14GuiImageLoaderC1Ev
_fife.so:_ZN4FIFE14GuiImageLoaderC2Ev
_fife.so:_ZN4FIFE14GuiImageLoaderD0Ev
_fife.so:_ZN4FIFE14GuiImageLoaderD1Ev
_fife.so:_ZN4FIFE14GuiImageLoaderD2Ev
_fife.so:_ZN4FIFE14InstanceVisual10setVisibleEb
_fife.so:_ZN4FIFE14InstanceVisual15getTransparencyEv
_fife.so:_ZN4FIFE14InstanceVisual15setTransparencyEh
_fife.so:_ZN4FIFE14InstanceVisual16getStackPositionEv
_fife.so:_ZN4FIFE14InstanceVisual16setStackPositionEi
_fife.so:_ZN4FIFE14InstanceVisual6createEPNS_8InstanceE
_fife.so:_ZN4FIFE14InstanceVisual9isVisibleEv
_fife.so:_ZN4FIFE14InstanceVisualC1Ev
_fife.so:_ZN4FIFE14InstanceVisualC2Ev
_fife.so:_ZN4FIFE14InstanceVisualD0Ev
_fife.so:_ZN4FIFE14InstanceVisualD1Ev
_fife.so:_ZN4FIFE14InstanceVisualD2Ev
_fife.so:_ZN4FIFE14SdlGuiGraphics10_beginDrawEv
_fife.so:_ZN4FIFE14SdlGuiGraphics10drawBezierERKSt6vectorIN3fcn5PointESaIS3_EEij
_fife.so:_ZN4FIFE14SdlGuiGraphics10drawCircleERKN3fcn5PointEj
_fife.so:_ZN4FIFE14SdlGuiGraphics11popClipAreaEv
_fife.so:_ZN4FIFE14SdlGuiGraphics12drawPolyLineERKSt6vectorIN3fcn5PointESaIS3_EEj
_fife.so:_ZN4FIFE14SdlGuiGraphics12pushClipAreaEN3fcn9RectangleE
_fife.so:_ZN4FIFE14SdlGuiGraphics12updateTargetEv
_fife.so:_ZN4FIFE14SdlGuiGraphics13drawRectangleERKN3fcn9RectangleE
_fife.so:_ZN4FIFE14SdlGuiGraphics13fillRectangleERKN3fcn9RectangleE
_fife.so:_ZN4FIFE14SdlGuiGraphics14drawFillCircleERKN3fcn5PointEj
_fife.so:_ZN4FIFE14SdlGuiGraphics17drawCircleSegmentERKN3fcn5PointEjii
_fife.so:_ZN4FIFE14SdlGuiGraphics21drawFillCircleSegmentERKN3fcn5PointEjii
_fife.so:_ZN4FIFE14SdlGuiGraphics8_endDrawEv
_fife.so:_ZN4FIFE14SdlGuiGraphics8drawLineEiiii
_fife.so:_ZN4FIFE14SdlGuiGraphics8drawLineEiiiij
_fife.so:_ZN4FIFE14SdlGuiGraphics8drawTextERKNSt7__cxx1112basic_stringIcSt11char_traitsIcESaIcEEEiij
_fife.so:_ZN4FIFE14SdlGuiGraphics8setColorERKN3fcn5ColorE
_fife.so:_ZN4FIFE14SdlGuiGraphics9drawImageEPKN3fcn5ImageEiiiiii
_fife.so:_ZN4FIFE14SdlGuiGraphics9drawPointEii
_fife.so:_ZN4FIFE14SdlGuiGraphicsC1Ev
_fife.so:_ZN4FIFE14SdlGuiGraphicsC2Ev
_fife.so:_ZN4FIFE14TargetRenderer15setRenderTargetERKNSt7__cxx1112basic_stringIcSt11char_traitsIcESaIcEEEbi
_fife.so:_ZN4FIFE14TargetRenderer18createRenderTargetERKNSt7__cxx1112basic_stringIcSt11char_traitsIcESaIcEEEjj
_fife.so:_ZN4FIFE14TargetRenderer18createRenderTargetERNS_9SharedPtrINS_5ImageEEE
_fife.so:_ZN4FIFE14TargetRenderer6renderEv
_fife.so:_ZN4FIFE14TargetRendererC1EPNS_13RenderBackendE
_fife.so:_ZN4FIFE14TargetRendererC2EPNS_13RenderBackendE
_fife.so:_ZN4FIFE14TargetRendererD0Ev
_fife.so:_ZN4FIFE14TargetRendererD1Ev
_fife.so:_ZN4FIFE14TargetRendererD2Ev
_fife.so:_ZN4FIFE14TextRenderPool15addRenderedTextEPNS_8FontBaseERKNSt7__cxx1112basic_stringIcSt11char_traitsIcESaIcEEEPNS_5ImageE
_fife.so:_ZN4FIFE14TextRenderPool15getRenderedTextEPNS_8FontBaseERKNSt7__cxx1112basic_stringIcSt11char_traitsIcESaIcEEE
_fife.so:_ZN4FIFE14TextRenderPool16removeOldEntriesEv
_fife.so:_ZN4FIFE14TextRenderPool20invalidateCachedTextEv
_fife.so:_ZN4FIFE14TextRenderPoolC1Em
_fife.so:_ZN4FIFE14TextRenderPoolC2Em
_fife.so:_ZN4FIFE14TextRenderPoolD1Ev
_fife.so:_ZN4FIFE14TextRenderPoolD2Ev
_fife.so:_ZN4FIFE15AnimationLoader10isLoadableERKNSt7__cxx1112basic_stringIcSt11char_traitsIcESaIcEEE
_fife.so:_ZN4FIFE15AnimationLoader12loadMultipleERKNSt7__cxx1112basic_stringIcSt11char_traitsIcESaIcEEE
_fife.so:_ZN4FIFE15AnimationLoader13loadAnimationERKNSt7__cxx1112basic_stringIcSt11char_traitsIcESaIcEEEP12TiXmlElement
_fife.so:_ZN4FIFE15AnimationLoader4loadERKNSt7__cxx1112basic_stringIcSt11char_traitsIcESaIcEEE
_fife.so:_ZN4FIFE15AnimationLoaderC1EPNS_3VFSEPNS_12ImageManagerEPNS_16AnimationManagerE
_fife.so:_ZN4FIFE15AnimationLoaderC2EPNS_3VFSEPNS_12ImageManagerEPNS_16AnimationManagerE
_fife.so:_ZN4FIFE15FifechanManager10createFontERKNSt7__cxx1112basic_stringIcSt11char_traitsIcESaIcEEEjS8_
_fife.so:_ZN4FIFE15FifechanManager10onSdlEventER9SDL_Event
_fife.so:_ZN4FIFE15FifechanManager11releaseFontEPNS_7GuiFontE
_fife.so:_ZN4FIFE15FifechanManager14setDefaultFontERKNSt7__cxx1112basic_stringIcSt11char_traitsIcESaIcEEEjS8_
_fife.so:_ZN4FIFE15FifechanManager15invalidateFontsEv
_fife.so:_ZN4FIFE15FifechanManager17setConsoleEnabledEb
_fife.so:_ZN4FIFE15FifechanManager17setTabbingEnabledEb
_fife.so:_ZN4FIFE15FifechanManager17translateKeyEventERKN3fcn8KeyEventE
_fife.so:_ZN4FIFE15FifechanManager18resizeTopContainerEjjjj
_fife.so:_ZN4FIFE15FifechanManager19translateMouseEventERKN3fcn10MouseEventE
_fife.so:_ZN4FIFE15FifechanManager27convertFifechanKeyToFifeKeyEi
_fife.so:_ZN4FIFE15FifechanManager3addEPN3fcn6WidgetE
_fife.so:_ZN4FIFE15FifechanManager4initERKNSt7__cxx1112basic_stringIcSt11char_traitsIcESaIcEEEii
_fife.so:_ZN4FIFE15FifechanManager4turnEv
_fife.so:_ZN4FIFE15FifechanManager6removeEPN3fcn6WidgetE
_fife.so:_ZN4FIFE15FifechanManagerC1Ev
_fife.so:_ZN4FIFE15FifechanManagerC2Ev
_fife.so:_ZN4FIFE15FifechanManagerD0Ev
_fife.so:_ZN4FIFE15FifechanManagerD1Ev
_fife.so:_ZN4FIFE15FifechanManagerD2Ev
_fife.so:_ZN4FIFE15GenericRenderer11addTriangleERKNSt7__cxx1112basic_stringIcSt11char_traitsIcESaIcEEENS_12RendererNodeES9_S9_hhhh
_fife.so:_ZN4FIFE15GenericRenderer11getInstanceEPNS_18IRendererContainerE
_fife.so:_ZN4FIFE15GenericRenderer11resizeImageERKNSt7__cxx1112basic_stringIcSt11char_traitsIcESaIcEEENS_12RendererNodeENS_9SharedPtrINS_5ImageEEEiib
_fife.so:_ZN4FIFE15GenericRenderer12addAnimationERKNSt7__cxx1112basic_stringIcSt11char_traitsIcESaIcEEENS_12RendererNodeENS_9SharedPtrINS_9AnimationEEEb
_fife.so:_ZN4FIFE15GenericRenderer5cloneEv
_fife.so:_ZN4FIFE15GenericRenderer5resetEv
_fife.so:_ZN4FIFE15GenericRenderer6renderEPNS_6CameraEPNS_5LayerERSt6vectorIPNS_10RenderItemESaIS7_EE
_fife.so:_ZN4FIFE15GenericRenderer7addLineERKNSt7__cxx1112basic_stringIcSt11char_traitsIcESaIcEEENS_12RendererNodeES9_hhhh
_fife.so:_ZN4FIFE15GenericRenderer7addQuadERKNSt7__cxx1112basic_stringIcSt11char_traitsIcESaIcEEENS_12RendererNodeES9_S9_S9_hhhh
_fife.so:_ZN4FIFE15GenericRenderer7addTextERKNSt7__cxx1112basic_stringIcSt11char_traitsIcESaIcEEENS_12RendererNodeEPNS_5IFontES8_b
_fife.so:_ZN4FIFE15GenericRenderer8addImageERKNSt7__cxx1112basic_stringIcSt11char_traitsIcESaIcEEENS_12RendererNodeENS_9SharedPtrINS_5ImageEEEb
_fife.so:_ZN4FIFE15GenericRenderer8addPointERKNSt7__cxx1112basic_stringIcSt11char_traitsIcESaIcEEENS_12RendererNodeEhhhh
_fife.so:_ZN4FIFE15GenericRenderer9addVertexERKNSt7__cxx1112basic_stringIcSt11char_traitsIcESaIcEEENS_12RendererNodeEihhhh
_fife.so:_ZN4FIFE15GenericRenderer9removeAllERKNSt7__cxx1112basic_stringIcSt11char_traitsIcESaIcEEE
_fife.so:_ZN4FIFE15GenericRenderer9removeAllEv
_fife.so:_ZN4FIFE15GenericRendererC1EPNS_13RenderBackendEi
_fife.so:_ZN4FIFE15GenericRendererC1ERKS0_
_fife.so:_ZN4FIFE15GenericRendererC2EPNS_13RenderBackendEi
_fife.so:_ZN4FIFE15GenericRendererC2ERKS0_
_fife.so:_ZN4FIFE15GenericRendererD0Ev
_fife.so:_ZN4FIFE15GenericRendererD1Ev
_fife.so:_ZN4FIFE15GenericRendererD2Ev
_fife.so:_ZN4FIFE15GetAbsolutePathERKN5boost10filesystem4pathE
_fife.so:_ZN4FIFE15GetAbsolutePathERKNSt7__cxx1112basic_stringIcSt11char_traitsIcESaIcEEE
_fife.so:_ZN4FIFE15JoystickManager11addJoystickEi
_fife.so:_ZN4FIFE15JoystickManager11getJoystickEi
_fife.so:_ZN4FIFE15JoystickManager11loadMappingERKNSt7__cxx1112basic_stringIcSt11char_traitsIcESaIcEEE
_fife.so:_ZN4FIFE15JoystickManager11saveMappingENSt7__cxx1112basic_stringIcSt11char_traitsIcESaIcEEERKS6_
_fife.so:_ZN4FIFE15JoystickManager12convertRangeEs
_fife.so:_ZN4FIFE15JoystickManager12saveMappingsERKNSt7__cxx1112basic_stringIcSt11char_traitsIcESaIcEEE
_fife.so:_ZN4FIFE15JoystickManager13getGuidStringB5cxx11Ei
_fife.so:_ZN4FIFE15JoystickManager14removeJoystickEPNS_8JoystickE
_fife.so:_ZN4FIFE15JoystickManager16getStringMappingERKNSt7__cxx1112basic_stringIcSt11char_traitsIcESaIcEEE
_fife.so:_ZN4FIFE15JoystickManager16setStringMappingERKNSt7__cxx1112basic_stringIcSt11char_traitsIcESaIcEEE
_fife.so:_ZN4FIFE15JoystickManager17addControllerGuidEPNS_8JoystickE
_fife.so:_ZN4FIFE15JoystickManager18getEventSourceTypeEv
_fife.so:_ZN4FIFE15JoystickManager19addJoystickListenerEPNS_17IJoystickListenerE
_fife.so:_ZN4FIFE15JoystickManager20processJoystickEventE9SDL_Event
_fife.so:_ZN4FIFE15JoystickManager20removeControllerGuidEPNS_8JoystickE
_fife.so:_ZN4FIFE15JoystickManager21dispatchJoystickEventERNS_13JoystickEventE
_fife.so:_ZN4FIFE15JoystickManager22processControllerEventE9SDL_Event
_fife.so:_ZN4FIFE15JoystickManager22removeJoystickListenerEPNS_17IJoystickListenerE
_fife.so:_ZN4FIFE15JoystickManager24addJoystickListenerFrontEPNS_17IJoystickListenerE
_fife.so:_ZN4FIFE15JoystickManagerC1Ev
_fife.so:_ZN4FIFE15JoystickManagerC2Ev
_fife.so:_ZN4FIFE15JoystickManagerD0Ev
_fife.so:_ZN4FIFE15JoystickManagerD1Ev
_fife.so:_ZN4FIFE15JoystickManagerD2Ev
_fife.so:_ZN4FIFE15SoundDecoderOgg13releaseBufferEv
_fife.so:_ZN4FIFE15SoundDecoderOgg6decodeEm
_fife.so:_ZN4FIFE15SoundDecoderOgg9setCursorEm
_fife.so:_ZN4FIFE15SoundDecoderOggC1EPNS_7RawDataE
_fife.so:_ZN4FIFE15SoundDecoderOggC2EPNS_7RawDataE
_fife.so:_ZN4FIFE15SoundDecoderOggD0Ev
_fife.so:_ZN4FIFE15SoundDecoderOggD1Ev
_fife.so:_ZN4FIFE15SoundDecoderOggD2Ev
_fife.so:_ZN4FIFE15alDeleteEffectsE
_fife.so:_ZN4FIFE15alDeleteFiltersE
_fife.so:_ZN4FIFE15getAngleBetweenERKNS_11PointType3DIdEES3_
_fife.so:_ZN4FIFE15getAngleBetweenERKNS_8LocationES2_
_fife.so:_ZN4FIFE15getIndexByAngleEiRKSt3mapIjiSt4lessIjESaISt4pairIKjiEEERi
_fife.so:_ZN4FIFE16AnimationManager10invalidateERKNSt7__cxx1112basic_stringIcSt11char_traitsIcESaIcEEE
_fife.so:_ZN4FIFE16AnimationManager10invalidateEm
_fife.so:_ZN4FIFE16AnimationManager13invalidateAllEv
_fife.so:_ZN4FIFE16AnimationManager16freeUnreferencedEv
_fife.so:_ZN4FIFE16AnimationManager16loadUnreferencedEv
_fife.so:_ZN4FIFE16AnimationManager17getResourceHandleERKNSt7__cxx1112basic_stringIcSt11char_traitsIcESaIcEEE
_fife.so:_ZN4FIFE16AnimationManager18removeUnreferencedEv
_fife.so:_ZN4FIFE16AnimationManager3addEPNS_9AnimationE
_fife.so:_ZN4FIFE16AnimationManager3getERKNSt7__cxx1112basic_stringIcSt11char_traitsIcESaIcEEE
_fife.so:_ZN4FIFE16AnimationManager3getEm
_fife.so:_ZN4FIFE16AnimationManager4freeERKNSt7__cxx1112basic_stringIcSt11char_traitsIcESaIcEEE
_fife.so:_ZN4FIFE16AnimationManager4freeEm
_fife.so:_ZN4FIFE16AnimationManager4loadERKNSt7__cxx1112basic_stringIcSt11char_traitsIcESaIcEEEPNS_15IResourceLoaderE
_fife.so:_ZN4FIFE16AnimationManager6createEPNS_15IResourceLoaderE
_fife.so:_ZN4FIFE16AnimationManager6createERKNSt7__cxx1112basic_stringIcSt11char_traitsIcESaIcEEEPNS_15IResourceLoaderE
_fife.so:_ZN4FIFE16AnimationManager6existsERKNSt7__cxx1112basic_stringIcSt11char_traitsIcESaIcEEE
_fife.so:_ZN4FIFE16AnimationManager6existsEm
_fife.so:_ZN4FIFE16AnimationManager6getPtrERKNSt7__cxx1112basic_stringIcSt11char_traitsIcESaIcEEE
_fife.so:_ZN4FIFE16AnimationManager6getPtrEm
_fife.so:_ZN4FIFE16AnimationManager6reloadERKNSt7__cxx1112basic_stringIcSt11char_traitsIcESaIcEEE
_fife.so:_ZN4FIFE16AnimationManager6reloadEm
_fife.so:_ZN4FIFE16AnimationManager6removeERKNSt7__cxx1112basic_stringIcSt11char_traitsIcESaIcEEE
_fife.so:_ZN4FIFE16AnimationManager6removeERNS_9SharedPtrINS_9AnimationEEE
_fife.so:_ZN4FIFE16AnimationManager6removeEm
_fife.so:_ZN4FIFE16AnimationManager7freeAllEv
_fife.so:_ZN4FIFE16AnimationManager9reloadAllEv
_fife.so:_ZN4FIFE16AnimationManager9removeAllEv
_fife.so:_ZN4FIFE16AnimationManagerD0Ev
_fife.so:_ZN4FIFE16AnimationManagerD1Ev
_fife.so:_ZN4FIFE16AnimationManagerD2Ev
_fife.so:_ZN4FIFE16FrequencyShifter12setFrequencyEf
_fife.so:_ZN4FIFE16FrequencyShifter16setLeftDirectionEh
_fife.so:_ZN4FIFE16FrequencyShifter17setRightDirectionEh
_fife.so:_ZN4FIFE16FrequencyShifterC1Ev
_fife.so:_ZN4FIFE16FrequencyShifterC2Ev
_fife.so:_ZN4FIFE16HybridGuiManager10onSdlEventER9SDL_Event
_fife.so:_ZN4FIFE16HybridGuiManager13addGuiManagerEPNS_11IGUIManagerE
_fife.so:_ZN4FIFE16HybridGuiManager16removeGuiManagerEPNS_11IGUIManagerE
_fife.so:_ZN4FIFE16HybridGuiManager18resizeTopContainerEjjjj
_fife.so:_ZN4FIFE16HybridGuiManager4turnEv
_fife.so:_ZN4FIFE16HybridGuiManagerC1Ev
_fife.so:_ZN4FIFE16HybridGuiManagerC2Ev
_fife.so:_ZN4FIFE16HybridGuiManagerD0Ev
_fife.so:_ZN4FIFE16HybridGuiManagerD1Ev
_fife.so:_ZN4FIFE16HybridGuiManagerD2Ev
_fife.so:_ZN4FIFE16InstanceRenderer10addColoredEPNS_8InstanceEiiii
_fife.so:_ZN4FIFE16InstanceRenderer10addToCheckERKNS_9SharedPtrINS_5ImageEEE
_fife.so:_ZN4FIFE16InstanceRenderer11OutlineInfoC1EPS0_
_fife.so:_ZN4FIFE16InstanceRenderer11OutlineInfoC2EPS0_
_fife.so:_ZN4FIFE16InstanceRenderer11OutlineInfoD1Ev
_fife.so:_ZN4FIFE16InstanceRenderer11OutlineInfoD2Ev
_fife.so:_ZN4FIFE16InstanceRenderer11addOutlinedEPNS_8InstanceEiiiii
_fife.so:_ZN4FIFE16InstanceRenderer11bindOutlineERNS0_11OutlineInfoERNS_10RenderItemEPNS_6CameraE
_fife.so:_ZN4FIFE16InstanceRenderer11getInstanceEPNS_18IRendererContainerE
_fife.so:_ZN4FIFE16InstanceRenderer12ColoringInfoC1EPS0_
_fife.so:_ZN4FIFE16InstanceRenderer12ColoringInfoC2EPS0_
_fife.so:_ZN4FIFE16InstanceRenderer12ColoringInfoD1Ev
_fife.so:_ZN4FIFE16InstanceRenderer12ColoringInfoD2Ev
_fife.so:_ZN4FIFE16InstanceRenderer12bindColoringERNS0_12ColoringInfoERNS_10RenderItemEPNS_6CameraE
_fife.so:_ZN4FIFE16InstanceRenderer12isValidImageERKNS_9SharedPtrINS_5ImageEEE
_fife.so:_ZN4FIFE16InstanceRenderer13removeColoredEPNS_8InstanceE
_fife.so:_ZN4FIFE16InstanceRenderer13renderOverlayENS_14RenderDataTypeEPNS_10RenderItemEPKhb
_fife.so:_ZN4FIFE16InstanceRenderer14addIgnoreLightERKNSt7__cxx114listINS1_12basic_stringIcSt11char_traitsIcESaIcEEESaIS7_EEE
_fife.so:_ZN4FIFE16InstanceRenderer14removeInstanceEPNS_8InstanceE
_fife.so:_ZN4FIFE16InstanceRenderer14removeOutlinedEPNS_8InstanceE
_fife.so:_ZN4FIFE16InstanceRenderer14renderUnsortedEPNS_6CameraEPNS_5LayerERSt6vectorIPNS_10RenderItemESaIS7_EE
_fife.so:_ZN4FIFE16InstanceRenderer15removeFromCheckERKNS_9SharedPtrINS_5ImageEEE
_fife.so:_ZN4FIFE16InstanceRenderer16bindMultiOutlineERNS0_11OutlineInfoERNS_10RenderItemEPNS_6CameraE
_fife.so:_ZN4FIFE16InstanceRenderer16removeAllColoredEv
_fife.so:_ZN4FIFE16InstanceRenderer17removeAllOutlinesEv
_fife.so:_ZN4FIFE16InstanceRenderer17removeIgnoreLightERKNSt7__cxx114listINS1_12basic_stringIcSt11char_traitsIcESaIcEEESaIS7_EEE
_fife.so:_ZN4FIFE16InstanceRenderer17setRemoveIntervalEj
_fife.so:_ZN4FIFE16InstanceRenderer18addTransparentAreaEPNS_8InstanceERKNSt7__cxx114listINS3_12basic_stringIcSt11char_traitsIcESaIcEEESaIS9_EEEjjhb
_fife.so:_ZN4FIFE16InstanceRenderer19renderAlreadySortedEPNS_6CameraEPNS_5LayerERSt6vectorIPNS_10RenderItemESaIS7_EE
_fife.so:_ZN4FIFE16InstanceRenderer20getMultiColorOverlayERKNS_10RenderItemEPNS_13OverlayColorsE
_fife.so:_ZN4FIFE16InstanceRenderer20removeAllIgnoreLightEv
_fife.so:_ZN4FIFE16InstanceRenderer21removeTransparentAreaEPNS_8InstanceE
_fife.so:_ZN4FIFE16InstanceRenderer25removeAllTransparentAreasEv
_fife.so:_ZN4FIFE16InstanceRenderer5checkEv
_fife.so:_ZN4FIFE16InstanceRenderer5cloneEv
_fife.so:_ZN4FIFE16InstanceRenderer5resetEv
_fife.so:_ZN4FIFE16InstanceRenderer6renderEPNS_6CameraEPNS_5LayerERSt6vectorIPNS_10RenderItemESaIS7_EE
_fife.so:_ZN4FIFE16InstanceRenderer8AreaInfoC1Ev
_fife.so:_ZN4FIFE16InstanceRenderer8AreaInfoC2Ev
_fife.so:_ZN4FIFE16InstanceRenderer8AreaInfoD1Ev
_fife.so:_ZN4FIFE16InstanceRenderer8AreaInfoD2Ev
_fife.so:_ZN4FIFE16InstanceRendererC1EPNS_13RenderBackendEi
_fife.so:_ZN4FIFE16InstanceRendererC1ERKS0_
_fife.so:_ZN4FIFE16InstanceRendererC2EPNS_13RenderBackendEi
_fife.so:_ZN4FIFE16InstanceRendererC2ERKS0_
_fife.so:_ZN4FIFE16InstanceRendererD0Ev
_fife.so:_ZN4FIFE16InstanceRendererD1Ev
_fife.so:_ZN4FIFE16InstanceRendererD2Ev
_fife.so:_ZN4FIFE16MultiLayerSearch12calcPathStepEv
_fife.so:_ZN4FIFE16MultiLayerSearch12updateSearchEv
_fife.so:_ZN4FIFE16MultiLayerSearch20createSearchFrontierEiPNS_9CellCacheE
_fife.so:_ZN4FIFE16MultiLayerSearch23searchBetweenTargetsMapEv
_fife.so:_ZN4FIFE16MultiLayerSearch28searchBetweenTargetsNeighborEv
_fife.so:_ZN4FIFE16MultiLayerSearch8calcPathEv
_fife.so:_ZN4FIFE16MultiLayerSearchC1EPNS_5RouteEi
_fife.so:_ZN4FIFE16MultiLayerSearchC2EPNS_5RouteEi
_fife.so:_ZN4FIFE16MultiLayerSearchD0Ev
_fife.so:_ZN4FIFE16MultiLayerSearchD1Ev
_fife.so:_ZN4FIFE16MultiLayerSearchD2Ev
_fife.so:_ZN4FIFE16QuadTreeRenderer5cloneEv
_fife.so:_ZN4FIFE16QuadTreeRenderer6renderEPNS_6CameraEPNS_5LayerERSt6vectorIPNS_10RenderItemESaIS7_EE
_fife.so:_ZN4FIFE16QuadTreeRendererC1EPNS_13RenderBackendEi
_fife.so:_ZN4FIFE16QuadTreeRendererC1ERKS0_
_fife.so:_ZN4FIFE16QuadTreeRendererC2EPNS_13RenderBackendEi
_fife.so:_ZN4FIFE16QuadTreeRendererC2ERKS0_
_fife.so:_ZN4FIFE16QuadTreeRendererD0Ev
_fife.so:_ZN4FIFE16QuadTreeRendererD1Ev
_fife.so:_ZN4FIFE16QuadTreeRendererD2Ev
_fife.so:_ZN4FIFE16RawDataMemSource8readIntoEPhjj
_fife.so:_ZN4FIFE16RawDataMemSourceC1Ej
_fife.so:_ZN4FIFE16RawDataMemSourceC2Ej
_fife.so:_ZN4FIFE16RawDataMemSourceD0Ev
_fife.so:_ZN4FIFE16RawDataMemSourceD1Ev
_fife.so:_ZN4FIFE16RawDataMemSourceD2Ev
_fife.so:_ZN4FIFE16RenderBackendSDL10drawBezierERKSt6vectorINS_11PointType2DIiEESaIS3_EEihhhhh
_fife.so:_ZN4FIFE16RenderBackendSDL10drawCircleERKNS_11PointType2DIiEEjhhhh
_fife.so:_ZN4FIFE16RenderBackendSDL10drawVertexERKNS_11PointType2DIiEEhhhhh
_fife.so:_ZN4FIFE16RenderBackendSDL10startFrameEv
_fife.so:_ZN4FIFE16RenderBackendSDL11createImageEP11SDL_Surface
_fife.so:_ZN4FIFE16RenderBackendSDL11createImageEPKhjj
_fife.so:_ZN4FIFE16RenderBackendSDL11createImageEPNS_15IResourceLoaderE
_fife.so:_ZN4FIFE16RenderBackendSDL11createImageERKNSt7__cxx1112basic_stringIcSt11char_traitsIcESaIcEEEP11SDL_Surface
_fife.so:_ZN4FIFE16RenderBackendSDL11createImageERKNSt7__cxx1112basic_stringIcSt11char_traitsIcESaIcEEEPKhjj
_fife.so:_ZN4FIFE16RenderBackendSDL11createImageERKNSt7__cxx1112basic_stringIcSt11char_traitsIcESaIcEEEPNS_15IResourceLoaderE
_fife.so:_ZN4FIFE16RenderBackendSDL11setClipAreaERKNS_8RectTypeIiEEb
_fife.so:_ZN4FIFE16RenderBackendSDL11setLightingEfff
_fife.so:_ZN4FIFE16RenderBackendSDL12drawPolyLineERKSt6vectorINS_11PointType2DIiEESaIS3_EEhhhhh
_fife.so:_ZN4FIFE16RenderBackendSDL12drawTriangleERKNS_11PointType2DIiEES4_S4_hhhh
_fife.so:_ZN4FIFE16RenderBackendSDL13captureScreenERKNSt7__cxx1112basic_stringIcSt11char_traitsIcESaIcEEE
_fife.so:_ZN4FIFE16RenderBackendSDL13captureScreenERKNSt7__cxx1112basic_stringIcSt11char_traitsIcESaIcEEEjj
_fife.so:_ZN4FIFE16RenderBackendSDL13drawRectangleERKNS_11PointType2DIiEEtthhhh
_fife.so:_ZN4FIFE16RenderBackendSDL13drawThickLineERKNS_11PointType2DIiEES4_hhhhh
_fife.so:_ZN4FIFE16RenderBackendSDL13fillRectangleERKNS_11PointType2DIiEEtthhhh
_fife.so:_ZN4FIFE16RenderBackendSDL13resetLightingEv
_fife.so:_ZN4FIFE16RenderBackendSDL13setScreenModeERKNS_10ScreenModeE
_fife.so:_ZN4FIFE16RenderBackendSDL14changeBlendingEii
_fife.so:_ZN4FIFE16RenderBackendSDL14drawFillCircleERKNS_11PointType2DIiEEjhhhh
_fife.so:_ZN4FIFE16RenderBackendSDL15addImageToArrayEjRKNS_8RectTypeIiEEPKfhPKh
_fife.so:_ZN4FIFE16RenderBackendSDL15clearBackBufferEv
_fife.so:_ZN4FIFE16RenderBackendSDL16createMainScreenERKNS_10ScreenModeERKNSt7__cxx1112basic_stringIcSt11char_traitsIcESaIcEEESB_
_fife.so:_ZN4FIFE16RenderBackendSDL16setLightingModelEj
_fife.so:_ZN4FIFE16RenderBackendSDL17changeRenderInfosENS_14RenderDataTypeEtiibbhNS_11GLConstantsES2_NS_11OverlayTypeE
_fife.so:_ZN4FIFE16RenderBackendSDL17drawCircleSegmentERKNS_11PointType2DIiEEjiihhhh
_fife.so:_ZN4FIFE16RenderBackendSDL17enableScissorTestEv
_fife.so:_ZN4FIFE16RenderBackendSDL17renderGuiGeometryERKSt6vectorINS_9GuiVertexESaIS2_EERKS1_IiSaIiEERKNS_11PointType2DIdEENS_9SharedPtrINS_5ImageEEE
_fife.so:_ZN4FIFE16RenderBackendSDL18attachRenderTargetERNS_9SharedPtrINS_5ImageEEEb
_fife.so:_ZN4FIFE16RenderBackendSDL18detachRenderTargetEv
_fife.so:_ZN4FIFE16RenderBackendSDL18disableScissorTestEv
_fife.so:_ZN4FIFE16RenderBackendSDL18drawLightPrimitiveERKNS_11PointType2DIiEEhfiffhhh
_fife.so:_ZN4FIFE16RenderBackendSDL18renderVertexArraysEv
_fife.so:_ZN4FIFE16RenderBackendSDL18resetStencilBufferEh
_fife.so:_ZN4FIFE16RenderBackendSDL21drawFillCircleSegmentERKNS_11PointType2DIiEEjiihhhh
_fife.so:_ZN4FIFE16RenderBackendSDL4initERKNSt7__cxx1112basic_stringIcSt11char_traitsIcESaIcEEE
_fife.so:_ZN4FIFE16RenderBackendSDL8drawLineERKNS_11PointType2DIiEES4_hhhh
_fife.so:_ZN4FIFE16RenderBackendSDL8drawQuadERKNS_11PointType2DIiEES4_S4_S4_hhhh
_fife.so:_ZN4FIFE16RenderBackendSDL8endFrameEv
_fife.so:_ZN4FIFE16RenderBackendSDL8putPixelEiihhhh
_fife.so:_ZN4FIFE16RenderBackendSDLC1ERK9SDL_Color
_fife.so:_ZN4FIFE16RenderBackendSDLC2ERK9SDL_Color
_fife.so:_ZN4FIFE16RenderBackendSDLD0Ev
_fife.so:_ZN4FIFE16RenderBackendSDLD1Ev
_fife.so:_ZN4FIFE16RenderBackendSDLD2Ev
_fife.so:_ZN4FIFE16SoundClipManager16freeUnreferencedEv
_fife.so:_ZN4FIFE16SoundClipManager16loadUnreferencedEv
_fife.so:_ZN4FIFE16SoundClipManager17getResourceHandleERKNSt7__cxx1112basic_stringIcSt11char_traitsIcESaIcEEE
_fife.so:_ZN4FIFE16SoundClipManager18removeUnreferencedEv
_fife.so:_ZN4FIFE16SoundClipManager3addEPNS_9SoundClipE
_fife.so:_ZN4FIFE16SoundClipManager3getERKNSt7__cxx1112basic_stringIcSt11char_traitsIcESaIcEEE
_fife.so:_ZN4FIFE16SoundClipManager3getEm
_fife.so:_ZN4FIFE16SoundClipManager4freeERKNSt7__cxx1112basic_stringIcSt11char_traitsIcESaIcEEE
_fife.so:_ZN4FIFE16SoundClipManager4freeEm
_fife.so:_ZN4FIFE16SoundClipManager4loadERKNSt7__cxx1112basic_stringIcSt11char_traitsIcESaIcEEEPNS_15IResourceLoaderE
_fife.so:_ZN4FIFE16SoundClipManager6createEPNS_15IResourceLoaderE
_fife.so:_ZN4FIFE16SoundClipManager6createERKNSt7__cxx1112basic_stringIcSt11char_traitsIcESaIcEEEPNS_15IResourceLoaderE
_fife.so:_ZN4FIFE16SoundClipManager6existsERKNSt7__cxx1112basic_stringIcSt11char_traitsIcESaIcEEE
_fife.so:_ZN4FIFE16SoundClipManager6existsEm
_fife.so:_ZN4FIFE16SoundClipManager6reloadERKNSt7__cxx1112basic_stringIcSt11char_traitsIcESaIcEEE
_fife.so:_ZN4FIFE16SoundClipManager6reloadEm
_fife.so:_ZN4FIFE16SoundClipManager6removeERKNSt7__cxx1112basic_stringIcSt11char_traitsIcESaIcEEE
_fife.so:_ZN4FIFE16SoundClipManager6removeERNS_9SharedPtrINS_9SoundClipEEE
_fife.so:_ZN4FIFE16SoundClipManager6removeEm
_fife.so:_ZN4FIFE16SoundClipManager7freeAllEv
_fife.so:_ZN4FIFE16SoundClipManager9reloadAllEv
_fife.so:_ZN4FIFE16SoundClipManager9removeAllEv
_fife.so:_ZN4FIFE16SoundClipManagerD0Ev
_fife.so:_ZN4FIFE16SoundClipManagerD1Ev
_fife.so:_ZN4FIFE16SoundClipManagerD2Ev
_fife.so:_ZN4FIFE17DirectoryProvider12createSourceERKNSt7__cxx1112basic_stringIcSt11char_traitsIcESaIcEEE
_fife.so:_ZN4FIFE17OpenGLGuiGraphics10_beginDrawEv
_fife.so:_ZN4FIFE17OpenGLGuiGraphics10drawBezierERKSt6vectorIN3fcn5PointESaIS3_EEij
_fife.so:_ZN4FIFE17OpenGLGuiGraphics10drawCircleERKN3fcn5PointEj
_fife.so:_ZN4FIFE17OpenGLGuiGraphics11popClipAreaEv
_fife.so:_ZN4FIFE17OpenGLGuiGraphics12drawPolyLineERKSt6vectorIN3fcn5PointESaIS3_EEj
_fife.so:_ZN4FIFE17OpenGLGuiGraphics12pushClipAreaEN3fcn9RectangleE
_fife.so:_ZN4FIFE17OpenGLGuiGraphics12updateTargetEv
_fife.so:_ZN4FIFE17OpenGLGuiGraphics13drawRectangleERKN3fcn9RectangleE
_fife.so:_ZN4FIFE17OpenGLGuiGraphics13fillRectangleERKN3fcn9RectangleE
_fife.so:_ZN4FIFE17OpenGLGuiGraphics14drawFillCircleERKN3fcn5PointEj
_fife.so:_ZN4FIFE17OpenGLGuiGraphics17drawCircleSegmentERKN3fcn5PointEjii
_fife.so:_ZN4FIFE17OpenGLGuiGraphics21drawFillCircleSegmentERKN3fcn5PointEjii
_fife.so:_ZN4FIFE17OpenGLGuiGraphics8_endDrawEv
_fife.so:_ZN4FIFE17OpenGLGuiGraphics8drawLineEiiii
_fife.so:_ZN4FIFE17OpenGLGuiGraphics8drawLineEiiiij
_fife.so:_ZN4FIFE17OpenGLGuiGraphics8drawTextERKNSt7__cxx1112basic_stringIcSt11char_traitsIcESaIcEEEiij
_fife.so:_ZN4FIFE17OpenGLGuiGraphics8setColorERKN3fcn5ColorE
_fife.so:_ZN4FIFE17OpenGLGuiGraphics9drawImageEPKN3fcn5ImageEiiiiii
_fife.so:_ZN4FIFE17OpenGLGuiGraphics9drawPointEii
_fife.so:_ZN4FIFE17OpenGLGuiGraphicsC1Ev
_fife.so:_ZN4FIFE17OpenGLGuiGraphicsC2Ev
_fife.so:_ZN4FIFE17RoutePatherSearch15setSearchStatusENS0_12SearchStatusE
_fife.so:_ZN4FIFE17RoutePatherSearch8getRouteEv
_fife.so:_ZN4FIFE17RoutePatherSearchC1EPNS_5RouteEi
_fife.so:_ZN4FIFE17RoutePatherSearchC2EPNS_5RouteEi
_fife.so:_ZN4FIFE17RoutePatherSearchD0Ev
_fife.so:_ZN4FIFE17RoutePatherSearchD1Ev
_fife.so:_ZN4FIFE17RoutePatherSearchD2Ev
_fife.so:_ZN4FIFE17SingleLayerSearch12updateSearchEv
_fife.so:_ZN4FIFE17SingleLayerSearch8calcPathEv
_fife.so:_ZN4FIFE17SingleLayerSearchC1EPNS_5RouteEi
_fife.so:_ZN4FIFE17SingleLayerSearchC2EPNS_5RouteEi
_fife.so:_ZN4FIFE17SingleLayerSearchD0Ev
_fife.so:_ZN4FIFE17SingleLayerSearchD1Ev
_fife.so:_ZN4FIFE17SingleLayerSearchD2Ev
_fife.so:_ZN4FIFE17TriggerController10getTriggerERKNSt7__cxx1112basic_stringIcSt11char_traitsIcESaIcEEE
_fife.so:_ZN4FIFE17TriggerController13createTriggerERKNSt7__cxx1112basic_stringIcSt11char_traitsIcESaIcEEE
_fife.so:_ZN4FIFE17TriggerController13deleteTriggerERKNSt7__cxx1112basic_stringIcSt11char_traitsIcESaIcEEE
_fife.so:_ZN4FIFE17TriggerController14getAllTriggersEv
_fife.so:_ZN4FIFE17TriggerController18getAllTriggerNamesB5cxx11Ev
_fife.so:_ZN4FIFE17TriggerController19createTriggerOnCellERKNSt7__cxx1112basic_stringIcSt11char_traitsIcESaIcEEEPNS_4CellE
_fife.so:_ZN4FIFE17TriggerController19createTriggerOnRectERKNSt7__cxx1112basic_stringIcSt11char_traitsIcESaIcEEEPNS_5LayerERKNS_8RectTypeIiEE
_fife.so:_ZN4FIFE17TriggerController20createTriggerOnCellsERKNSt7__cxx1112basic_stringIcSt11char_traitsIcESaIcEEERKSt6vectorIPNS_4CellESaISB_EE
_fife.so:_ZN4FIFE17TriggerController21removeTriggerFromCellERKNSt7__cxx1112basic_stringIcSt11char_traitsIcESaIcEEEPNS_4CellE
_fife.so:_ZN4FIFE17TriggerController21removeTriggerFromRectERKNSt7__cxx1112basic_stringIcSt11char_traitsIcESaIcEEEPNS_5LayerERKNS_8RectTypeIiEE
_fife.so:_ZN4FIFE17TriggerController22removeTriggerFromCellsERKNSt7__cxx1112basic_stringIcSt11char_traitsIcESaIcEEERKSt6vectorIPNS_4CellESaISB_EE
_fife.so:_ZN4FIFE17TriggerController23createTriggerOnInstanceERKNSt7__cxx1112basic_stringIcSt11char_traitsIcESaIcEEEPNS_8InstanceE
_fife.so:_ZN4FIFE17TriggerController23createTriggerOnLocationERKNSt7__cxx1112basic_stringIcSt11char_traitsIcESaIcEEERKNS_8LocationE
_fife.so:_ZN4FIFE17TriggerController24createTriggerOnLocationsERKNSt7__cxx1112basic_stringIcSt11char_traitsIcESaIcEEERKSt6vectorINS_8LocationESaISA_EE
_fife.so:_ZN4FIFE17TriggerController25createTriggerOnCoordinateERKNSt7__cxx1112basic_stringIcSt11char_traitsIcESaIcEEEPNS_5LayerERKNS_11PointType3DIiEE
_fife.so:_ZN4FIFE17TriggerController25removeTriggerFromInstanceERKNSt7__cxx1112basic_stringIcSt11char_traitsIcESaIcEEEPNS_8InstanceE
_fife.so:_ZN4FIFE17TriggerController25removeTriggerFromLocationERKNSt7__cxx1112basic_stringIcSt11char_traitsIcESaIcEEERKNS_8LocationE
_fife.so:_ZN4FIFE17TriggerController26createTriggerOnCoordinatesERKNSt7__cxx1112basic_stringIcSt11char_traitsIcESaIcEEEPNS_5LayerERKSt6vectorINS_11PointType3DIiEESaISD_EE
_fife.so:_ZN4FIFE17TriggerController26removeTriggerFromLocationsERKNSt7__cxx1112basic_stringIcSt11char_traitsIcESaIcEEERKSt6vectorINS_8LocationESaISA_EE
_fife.so:_ZN4FIFE17TriggerController27removeTriggerFromCoordinateERKNSt7__cxx1112basic_stringIcSt11char_traitsIcESaIcEEEPNS_5LayerERKNS_11PointType3DIiEE
_fife.so:_ZN4FIFE17TriggerController28removeTriggerFromCoordinatesERKNSt7__cxx1112basic_stringIcSt11char_traitsIcESaIcEEEPNS_5LayerERKSt6vectorINS_11PointType3DIiEESaISD_EE
_fife.so:_ZN4FIFE17TriggerController6existsERKNSt7__cxx1112basic_stringIcSt11char_traitsIcESaIcEEE
_fife.so:_ZN4FIFE17TriggerControllerC1EPNS_3MapE
_fife.so:_ZN4FIFE17TriggerControllerC2EPNS_3MapE
_fife.so:_ZN4FIFE17TriggerControllerD0Ev
_fife.so:_ZN4FIFE17TriggerControllerD1Ev
_fife.so:_ZN4FIFE17TriggerControllerD2Ev
_fife.so:_ZN4FIFE17VFSSourceProvider6setVFSEPNS_3VFSE
_fife.so:_ZN4FIFE17VFSSourceProviderC1ERKNSt7__cxx1112basic_stringIcSt11char_traitsIcESaIcEEE
_fife.so:_ZN4FIFE17VFSSourceProviderC2ERKNSt7__cxx1112basic_stringIcSt11char_traitsIcESaIcEEE
_fife.so:_ZN4FIFE17VFSSourceProviderD0Ev
_fife.so:_ZN4FIFE17VFSSourceProviderD1Ev
_fife.so:_ZN4FIFE17VFSSourceProviderD2Ev
_fife.so:_ZN4FIFE18CacheTreeCollector5visitEPNS_8QuadNodeISt3setIiSt4lessIiESaIiEELi128EEEi
_fife.so:_ZN4FIFE18CoordinateRenderer11getInstanceEPNS_18IRendererContainerE
_fife.so:_ZN4FIFE18CoordinateRenderer15adjustLayerAreaEv
_fife.so:_ZN4FIFE18CoordinateRenderer5cloneEv
_fife.so:_ZN4FIFE18CoordinateRenderer6renderEPNS_6CameraEPNS_5LayerERSt6vectorIPNS_10RenderItemESaIS7_EE
_fife.so:_ZN4FIFE18CoordinateRenderer8setColorEhhh
_fife.so:_ZN4FIFE18CoordinateRendererC1EPNS_13RenderBackendEi
_fife.so:_ZN4FIFE18CoordinateRendererC1ERKS0_
_fife.so:_ZN4FIFE18CoordinateRendererC2EPNS_13RenderBackendEi
_fife.so:_ZN4FIFE18CoordinateRendererC2ERKS0_
_fife.so:_ZN4FIFE18CoordinateRendererD0Ev
_fife.so:_ZN4FIFE18CoordinateRendererD1Ev
_fife.so:_ZN4FIFE18CoordinateRendererD2Ev
_fife.so:_ZN4FIFE18SoundEffectManager13createPresetsEv
_fife.so:_ZN4FIFE18SoundEffectManager14activateEffectEPNS_11SoundEffectEPNS_12SoundEmitterE
_fife.so:_ZN4FIFE18SoundEffectManager14activateFilterEPNS_11SoundFilterEPNS_12SoundEmitterE
_fife.so:_ZN4FIFE18SoundEffectManager16deactivateEffectEPNS_11SoundEffectEPNS_12SoundEmitterE
_fife.so:_ZN4FIFE18SoundEffectManager16deactivateFilterEPNS_11SoundFilterEPNS_12SoundEmitterE
_fife.so:_ZN4FIFE18SoundEffectManager17createSoundEffectENS_15SoundEffectTypeE
_fife.so:_ZN4FIFE18SoundEffectManager17createSoundFilterENS_15SoundFilterTypeE
_fife.so:_ZN4FIFE18SoundEffectManager17deleteSoundEffectEPNS_11SoundEffectE
_fife.so:_ZN4FIFE18SoundEffectManager17deleteSoundFilterEPNS_11SoundFilterE
_fife.so:_ZN4FIFE18SoundEffectManager17enableSoundEffectEPNS_11SoundEffectE
_fife.so:_ZN4FIFE18SoundEffectManager18disableSoundEffectEPNS_11SoundEffectE
_fife.so:_ZN4FIFE18SoundEffectManager23addEmitterToSoundEffectEPNS_11SoundEffectEPNS_12SoundEmitterE
_fife.so:_ZN4FIFE18SoundEffectManager23createSoundEffectPresetENS_17SoundEffectPresetE
_fife.so:_ZN4FIFE18SoundEffectManager23enableDirectSoundFilterEPNS_11SoundFilterE
_fife.so:_ZN4FIFE18SoundEffectManager24disableDirectSoundFilterEPNS_11SoundFilterE
_fife.so:_ZN4FIFE18SoundEffectManager27addSoundFilterToSoundEffectEPNS_11SoundEffectEPNS_11SoundFilterE
_fife.so:_ZN4FIFE18SoundEffectManager28removeEmitterFromSoundEffectEPNS_11SoundEffectEPNS_12SoundEmitterE
_fife.so:_ZN4FIFE18SoundEffectManager29addEmitterToDirectSoundFilterEPNS_11SoundFilterEPNS_12SoundEmitterE
_fife.so:_ZN4FIFE18SoundEffectManager32removeSoundFilterFromSoundEffectEPNS_11SoundEffectEPNS_11SoundFilterE
_fife.so:_ZN4FIFE18SoundEffectManager34removeEmitterFromDirectSoundFilterEPNS_11SoundFilterEPNS_12SoundEmitterE
_fife.so:_ZN4FIFE18SoundEffectManager4initEP9ALCdevice
_fife.so:_ZN4FIFE18SoundEffectManagerC1Ev
_fife.so:_ZN4FIFE18SoundEffectManagerC2Ev
_fife.so:_ZN4FIFE18SoundEffectManagerD1Ev
_fife.so:_ZN4FIFE18SoundEffectManagerD2Ev
_fife.so:_ZN4FIFE19GetFilenameFromPathB5cxx11ERKN5boost10filesystem4pathE
_fife.so:_ZN4FIFE19OffRendererLineInfo6renderEPNS_13RenderBackendE
_fife.so:_ZN4FIFE19OffRendererLineInfoC1ENS_11PointType2DIiEES2_hhhh
_fife.so:_ZN4FIFE19OffRendererLineInfoC2ENS_11PointType2DIiEES2_hhhh
_fife.so:_ZN4FIFE19OffRendererQuadInfo6renderEPNS_13RenderBackendE
_fife.so:_ZN4FIFE19OffRendererQuadInfoC1ENS_11PointType2DIiEES2_S2_S2_hhhh
_fife.so:_ZN4FIFE19OffRendererQuadInfoC2ENS_11PointType2DIiEES2_S2_S2_hhhh
_fife.so:_ZN4FIFE19OffRendererTextInfo6renderEPNS_13RenderBackendE
_fife.so:_ZN4FIFE19OffRendererTextInfoC1ENS_11PointType2DIiEEPNS_5IFontENSt7__cxx1112basic_stringIcSt11char_traitsIcESaIcEEE
_fife.so:_ZN4FIFE19OffRendererTextInfoC2ENS_11PointType2DIiEEPNS_5IFontENSt7__cxx1112basic_stringIcSt11char_traitsIcESaIcEEE
_fife.so:_ZN4FIFE19PercentDoneCallback11addListenerEPNS_19PercentDoneListenerE
_fife.so:_ZN4FIFE19PercentDoneCallback14incrementCountEv
_fife.so:_ZN4FIFE19PercentDoneCallback14removeListenerEPNS_19PercentDoneListenerE
_fife.so:_ZN4FIFE19PercentDoneCallback22setPercentDoneIntervalEj
_fife.so:_ZN4FIFE19PercentDoneCallback24setTotalNumberOfElementsEj
_fife.so:_ZN4FIFE19PercentDoneCallback5resetEv
_fife.so:_ZN4FIFE19PercentDoneCallback9fireEventEj
_fife.so:_ZN4FIFE19PercentDoneCallbackC1Ev
_fife.so:_ZN4FIFE19PercentDoneCallbackC2Ev
_fife.so:_ZN4FIFE19PercentDoneCallbackD0Ev
_fife.so:_ZN4FIFE19PercentDoneCallbackD1Ev
_fife.so:_ZN4FIFE19PercentDoneCallbackD2Ev
_fife.so:_ZN4FIFE19PercentDoneListenerD0Ev
_fife.so:_ZN4FIFE19PercentDoneListenerD1Ev
_fife.so:_ZN4FIFE19PercentDoneListenerD2Ev
_fife.so:_ZN4FIFE19RenderBackendOpenGL10drawBezierERKSt6vectorINS_11PointType2DIiEESaIS3_EEihhhhh
_fife.so:_ZN4FIFE19RenderBackendOpenGL10drawCircleERKNS_11PointType2DIiEEjhhhh
_fife.so:_ZN4FIFE19RenderBackendOpenGL10drawVertexERKNS_11PointType2DIiEEhhhhh
_fife.so:_ZN4FIFE19RenderBackendOpenGL10startFrameEv
_fife.so:_ZN4FIFE19RenderBackendOpenGL11bindTextureEj
_fife.so:_ZN4FIFE19RenderBackendOpenGL11bindTextureEjj
_fife.so:_ZN4FIFE19RenderBackendOpenGL11createImageEP11SDL_Surface
_fife.so:_ZN4FIFE19RenderBackendOpenGL11createImageEPKhjj
_fife.so:_ZN4FIFE19RenderBackendOpenGL11createImageEPNS_15IResourceLoaderE
_fife.so:_ZN4FIFE19RenderBackendOpenGL11createImageERKNSt7__cxx1112basic_stringIcSt11char_traitsIcESaIcEEEP11SDL_Surface
_fife.so:_ZN4FIFE19RenderBackendOpenGL11createImageERKNSt7__cxx1112basic_stringIcSt11char_traitsIcESaIcEEEPKhjj
_fife.so:_ZN4FIFE19RenderBackendOpenGL11createImageERKNSt7__cxx1112basic_stringIcSt11char_traitsIcESaIcEEEPNS_15IResourceLoaderE
_fife.so:_ZN4FIFE19RenderBackendOpenGL11renderWithZEv
_fife.so:_ZN4FIFE19RenderBackendOpenGL11setClipAreaERKNS_8RectTypeIiEEb
_fife.so:_ZN4FIFE19RenderBackendOpenGL11setLightingEfff
_fife.so:_ZN4FIFE19RenderBackendOpenGL12drawPolyLineERKSt6vectorINS_11PointType2DIiEESaIS3_EEhhhhh
_fife.so:_ZN4FIFE19RenderBackendOpenGL12drawTriangleERKNS_11PointType2DIiEES4_S4_hhhh
_fife.so:_ZN4FIFE19RenderBackendOpenGL12setAlphaTestEf
_fife.so:_ZN4FIFE19RenderBackendOpenGL13captureScreenERKNSt7__cxx1112basic_stringIcSt11char_traitsIcESaIcEEE
_fife.so:_ZN4FIFE19RenderBackendOpenGL13captureScreenERKNSt7__cxx1112basic_stringIcSt11char_traitsIcESaIcEEEjj
_fife.so:_ZN4FIFE19RenderBackendOpenGL13drawRectangleERKNS_11PointType2DIiEEtthhhh
_fife.so:_ZN4FIFE19RenderBackendOpenGL13drawThickLineERKNS_11PointType2DIiEES4_hhhhh
_fife.so:_ZN4FIFE19RenderBackendOpenGL13fillRectangleERKNS_11PointType2DIiEEtthhhh
_fife.so:_ZN4FIFE19RenderBackendOpenGL13resetLightingEv
_fife.so:_ZN4FIFE19RenderBackendOpenGL13setScreenModeERKNS_10ScreenModeE
_fife.so:_ZN4FIFE19RenderBackendOpenGL14changeBlendingEii
_fife.so:_ZN4FIFE19RenderBackendOpenGL14drawFillCircleERKNS_11PointType2DIiEEjhhhh
_fife.so:_ZN4FIFE19RenderBackendOpenGL14enableLightingEv
_fife.so:_ZN4FIFE19RenderBackendOpenGL14enableTexturesEj
_fife.so:_ZN4FIFE19RenderBackendOpenGL14renderWithoutZEv
_fife.so:_ZN4FIFE19RenderBackendOpenGL14setStencilTestEhjj
_fife.so:_ZN4FIFE19RenderBackendOpenGL15addImageToArrayERKNS_8RectTypeIiEEjPKfjS6_hPKh
_fife.so:_ZN4FIFE19RenderBackendOpenGL15addImageToArrayEjRKNS_8RectTypeIiEEPKfhPKh
_fife.so:_ZN4FIFE19RenderBackendOpenGL15clearBackBufferEv
_fife.so:_ZN4FIFE19RenderBackendOpenGL15disableLightingEv
_fife.so:_ZN4FIFE19RenderBackendOpenGL15disableTexturesEj
_fife.so:_ZN4FIFE19RenderBackendOpenGL15enableAlphaTestEv
_fife.so:_ZN4FIFE19RenderBackendOpenGL15enableDepthTestEv
_fife.so:_ZN4FIFE19RenderBackendOpenGL15renderWithZTestEv
_fife.so:_ZN4FIFE19RenderBackendOpenGL15setColorPointerEiPKv
_fife.so:_ZN4FIFE19RenderBackendOpenGL16addImageToArrayZERKNS_8RectTypeIiEEfjPKfjS6_hPKh
_fife.so:_ZN4FIFE19RenderBackendOpenGL16addImageToArrayZEjRKNS_8RectTypeIiEEfPKfhPKh
_fife.so:_ZN4FIFE19RenderBackendOpenGL16createMainScreenERKNS_10ScreenModeERKNSt7__cxx1112basic_stringIcSt11char_traitsIcESaIcEEESB_
_fife.so:_ZN4FIFE19RenderBackendOpenGL16disableAlphaTestEv
_fife.so:_ZN4FIFE19RenderBackendOpenGL16disableDepthTestEv
_fife.so:_ZN4FIFE19RenderBackendOpenGL16enableColorArrayEv
_fife.so:_ZN4FIFE19RenderBackendOpenGL16setLightingModelEj
_fife.so:_ZN4FIFE19RenderBackendOpenGL16setVertexPointerEiiPKv
_fife.so:_ZN4FIFE19RenderBackendOpenGL17changeRenderInfosENS_14RenderDataTypeEtiibbhNS_11GLConstantsES2_NS_11OverlayTypeE
_fife.so:_ZN4FIFE19RenderBackendOpenGL17disableColorArrayEv
_fife.so:_ZN4FIFE19RenderBackendOpenGL17drawCircleSegmentERKNS_11PointType2DIiEEjiihhhh
_fife.so:_ZN4FIFE19RenderBackendOpenGL17enableScissorTestEv
_fife.so:_ZN4FIFE19RenderBackendOpenGL17enableStencilTestEv
_fife.so:_ZN4FIFE19RenderBackendOpenGL17renderGuiGeometryERKSt6vectorINS_9GuiVertexESaIS2_EERKS1_IiSaIiEERKNS_11PointType2DIdEENS_9SharedPtrINS_5ImageEEE
_fife.so:_ZN4FIFE19RenderBackendOpenGL18attachRenderTargetERNS_9SharedPtrINS_5ImageEEEb
_fife.so:_ZN4FIFE19RenderBackendOpenGL18detachRenderTargetEv
_fife.so:_ZN4FIFE19RenderBackendOpenGL18disableScissorTestEv
_fife.so:_ZN4FIFE19RenderBackendOpenGL18disableStencilTestEv
_fife.so:_ZN4FIFE19RenderBackendOpenGL18drawLightPrimitiveERKNS_11PointType2DIiEEhfiffhhh
_fife.so:_ZN4FIFE19RenderBackendOpenGL18prepareForOverlaysEv
_fife.so:_ZN4FIFE19RenderBackendOpenGL18renderVertexArraysEv
_fife.so:_ZN4FIFE19RenderBackendOpenGL18resetStencilBufferEh
_fife.so:_ZN4FIFE19RenderBackendOpenGL18setTexCoordPointerEjiPKv
_fife.so:_ZN4FIFE19RenderBackendOpenGL19renderWithColorAndZEv
_fife.so:_ZN4FIFE19RenderBackendOpenGL21drawFillCircleSegmentERKNS_11PointType2DIiEEjiihhhh
_fife.so:_ZN4FIFE19RenderBackendOpenGL21getRenderBufferObjectEj
_fife.so:_ZN4FIFE19RenderBackendOpenGL21setEnvironmentalColorEjPKh
_fife.so:_ZN4FIFE19RenderBackendOpenGL26renderWithMultitextureAndZEv
_fife.so:_ZN4FIFE19RenderBackendOpenGL4initERKNSt7__cxx1112basic_stringIcSt11char_traitsIcESaIcEEE
_fife.so:_ZN4FIFE19RenderBackendOpenGL8drawLineERKNS_11PointType2DIiEES4_hhhh
_fife.so:_ZN4FIFE19RenderBackendOpenGL8drawQuadERKNS_11PointType2DIiEES4_S4_S4_hhhh
_fife.so:_ZN4FIFE19RenderBackendOpenGL8endFrameEv
_fife.so:_ZN4FIFE19RenderBackendOpenGL8putPixelEiihhhh
_fife.so:_ZN4FIFE19RenderBackendOpenGLC1ERK9SDL_Color
_fife.so:_ZN4FIFE19RenderBackendOpenGLC2ERK9SDL_Color
_fife.so:_ZN4FIFE19RenderBackendOpenGLD0Ev
_fife.so:_ZN4FIFE19RenderBackendOpenGLD1Ev
_fife.so:_ZN4FIFE19RenderBackendOpenGLD2Ev
_fife.so:_ZN4FIFE20BlockingInfoRenderer11getInstanceEPNS_18IRendererContainerE
_fife.so:_ZN4FIFE20BlockingInfoRenderer5cloneEv
_fife.so:_ZN4FIFE20BlockingInfoRenderer6renderEPNS_6CameraEPNS_5LayerERSt6vectorIPNS_10RenderItemESaIS7_EE
_fife.so:_ZN4FIFE20BlockingInfoRenderer8setColorEhhh
_fife.so:_ZN4FIFE20BlockingInfoRendererC1EPNS_13RenderBackendEi
_fife.so:_ZN4FIFE20BlockingInfoRendererC1ERKS0_
_fife.so:_ZN4FIFE20BlockingInfoRendererC2EPNS_13RenderBackendEi
_fife.so:_ZN4FIFE20BlockingInfoRendererC2ERKS0_
_fife.so:_ZN4FIFE20BlockingInfoRendererD0Ev
_fife.so:_ZN4FIFE20BlockingInfoRendererD1Ev
_fife.so:_ZN4FIFE20BlockingInfoRendererD2Ev
_fife.so:_ZN4FIFE20FloatingTextRenderer11getInstanceEPNS_18IRendererContainerE
_fife.so:_ZN4FIFE20FloatingTextRenderer11resetBorderEv
_fife.so:_ZN4FIFE20FloatingTextRenderer13setBackgroundEhhhh
_fife.so:_ZN4FIFE20FloatingTextRenderer15resetBackgroundEv
_fife.so:_ZN4FIFE20FloatingTextRenderer5cloneEv
_fife.so:_ZN4FIFE20FloatingTextRenderer6renderEPNS_6CameraEPNS_5LayerERSt6vectorIPNS_10RenderItemESaIS7_EE
_fife.so:_ZN4FIFE20FloatingTextRenderer8setColorEhhhh
_fife.so:_ZN4FIFE20FloatingTextRenderer9setBorderEhhhh
_fife.so:_ZN4FIFE20FloatingTextRendererC1EPNS_13RenderBackendEi
_fife.so:_ZN4FIFE20FloatingTextRendererC1ERKS0_
_fife.so:_ZN4FIFE20FloatingTextRendererC2EPNS_13RenderBackendEi
_fife.so:_ZN4FIFE20FloatingTextRendererC2ERKS0_
_fife.so:_ZN4FIFE20FloatingTextRendererD0Ev
_fife.so:_ZN4FIFE20FloatingTextRendererD1Ev
_fife.so:_ZN4FIFE20FloatingTextRendererD2Ev
_fife.so:_ZN4FIFE20OffRendererImageInfo6renderEPNS_13RenderBackendE
_fife.so:_ZN4FIFE20OffRendererImageInfoC1ENS_11PointType2DIiEENS_9SharedPtrINS_5ImageEEE
_fife.so:_ZN4FIFE20OffRendererImageInfoC2ENS_11PointType2DIiEENS_9SharedPtrINS_5ImageEEE
_fife.so:_ZN4FIFE20OffRendererPointInfo6renderEPNS_13RenderBackendE
_fife.so:_ZN4FIFE20OffRendererPointInfoC1ENS_11PointType2DIiEEhhhh
_fife.so:_ZN4FIFE20OffRendererPointInfoC2ENS_11PointType2DIiEEhhhh
_fife.so:_ZN4FIFE21CellSelectionRenderer11getInstanceEPNS_18IRendererContainerE
_fife.so:_ZN4FIFE21CellSelectionRenderer14selectLocationEPKNS_8LocationE
_fife.so:_ZN4FIFE21CellSelectionRenderer16deselectLocationEPKNS_8LocationE
_fife.so:_ZN4FIFE21CellSelectionRenderer5cloneEv
_fife.so:_ZN4FIFE21CellSelectionRenderer5resetEv
_fife.so:_ZN4FIFE21CellSelectionRenderer6renderEPNS_6CameraEPNS_5LayerERSt6vectorIPNS_10RenderItemESaIS7_EE
_fife.so:_ZN4FIFE21CellSelectionRenderer8setColorEhhh
_fife.so:_ZN4FIFE21CellSelectionRendererC1EPNS_13RenderBackendEi
_fife.so:_ZN4FIFE21CellSelectionRendererC1ERKS0_
_fife.so:_ZN4FIFE21CellSelectionRendererC2EPNS_13RenderBackendEi
_fife.so:_ZN4FIFE21CellSelectionRendererC2ERKS0_
_fife.so:_ZN4FIFE21CellSelectionRendererD0Ev
_fife.so:_ZN4FIFE21CellSelectionRendererD1Ev
_fife.so:_ZN4FIFE21CellSelectionRendererD2Ev
_fife.so:_ZN4FIFE21InstanceListCollector5visitEPNS_8QuadNodeINSt7__cxx114listIPNS_8InstanceESaIS5_EEELi2EEEi
_fife.so:_ZN4FIFE21OffRendererResizeInfo6renderEPNS_13RenderBackendE
_fife.so:_ZN4FIFE21OffRendererResizeInfoC1ENS_11PointType2DIiEENS_9SharedPtrINS_5ImageEEEii
_fife.so:_ZN4FIFE21OffRendererResizeInfoC2ENS_11PointType2DIiEENS_9SharedPtrINS_5ImageEEEii
_fife.so:_ZN4FIFE21OffRendererVertexInfo6renderEPNS_13RenderBackendE
_fife.so:_ZN4FIFE21OffRendererVertexInfoC1ENS_11PointType2DIiEEihhhh
_fife.so:_ZN4FIFE21OffRendererVertexInfoC2ENS_11PointType2DIiEEihhhh
_fife.so:_ZN4FIFE22ControllerMappingSaver4saveENSt7__cxx1112basic_stringIcSt11char_traitsIcESaIcEEERKS6_
_fife.so:_ZN4FIFE22LightRendererImageInfo6renderEPNS_6CameraEPNS_5LayerERSt6vectorIPNS_10RenderItemESaIS7_EEPNS_13RenderBackendE
_fife.so:_ZN4FIFE22LightRendererImageInfoC1ENS_12RendererNodeENS_9SharedPtrINS_5ImageEEEii
_fife.so:_ZN4FIFE22LightRendererImageInfoC2ENS_12RendererNodeENS_9SharedPtrINS_5ImageEEEii
_fife.so:_ZN4FIFE22alAuxiliaryEffectSlotfE
_fife.so:_ZN4FIFE22alAuxiliaryEffectSlotiE
_fife.so:_ZN4FIFE22createDefaultMapLoaderEPNS_5ModelEPNS_3VFSEPNS_12ImageManagerEPNS_13RenderBackendE
_fife.so:_ZN4FIFE23ControllerMappingLoader4loadERKNSt7__cxx1112basic_stringIcSt11char_traitsIcESaIcEEE
_fife.so:_ZN4FIFE23GenericRendererLineInfo6renderEPNS_6CameraEPNS_5LayerERSt6vectorIPNS_10RenderItemESaIS7_EEPNS_13RenderBackendE
_fife.so:_ZN4FIFE23GenericRendererLineInfoC1ENS_12RendererNodeES1_hhhh
_fife.so:_ZN4FIFE23GenericRendererLineInfoC2ENS_12RendererNodeES1_hhhh
_fife.so:_ZN4FIFE23GenericRendererQuadInfo6renderEPNS_6CameraEPNS_5LayerERSt6vectorIPNS_10RenderItemESaIS7_EEPNS_13RenderBackendE
_fife.so:_ZN4FIFE23GenericRendererQuadInfoC1ENS_12RendererNodeES1_S1_S1_hhhh
_fife.so:_ZN4FIFE23GenericRendererQuadInfoC2ENS_12RendererNodeES1_S1_S1_hhhh
_fife.so:_ZN4FIFE23GenericRendererTextInfo6renderEPNS_6CameraEPNS_5LayerERSt6vectorIPNS_10RenderItemESaIS7_EEPNS_13RenderBackendE
_fife.so:_ZN4FIFE23GenericRendererTextInfoC1ENS_12RendererNodeEPNS_5IFontENSt7__cxx1112basic_stringIcSt11char_traitsIcESaIcEEEb
_fife.so:_ZN4FIFE23GenericRendererTextInfoC2ENS_12RendererNodeEPNS_5IFontENSt7__cxx1112basic_stringIcSt11char_traitsIcESaIcEEEb
_fife.so:_ZN4FIFE23GetPathIteratorAsStringB5cxx11ERKN5boost10filesystem4path8iteratorE
_fife.so:_ZN4FIFE23LightRendererResizeInfo6renderEPNS_6CameraEPNS_5LayerERSt6vectorIPNS_10RenderItemESaIS7_EEPNS_13RenderBackendE
_fife.so:_ZN4FIFE23LightRendererResizeInfoC1ENS_12RendererNodeENS_9SharedPtrINS_5ImageEEEiiii
_fife.so:_ZN4FIFE23LightRendererResizeInfoC2ENS_12RendererNodeENS_9SharedPtrINS_5ImageEEEiiii
_fife.so:_ZN4FIFE23OffRendererTriangleInfo6renderEPNS_13RenderBackendE
_fife.so:_ZN4FIFE23OffRendererTriangleInfoC1ENS_11PointType2DIiEES2_S2_hhhh
_fife.so:_ZN4FIFE23OffRendererTriangleInfoC2ENS_11PointType2DIiEES2_S2_hhhh
_fife.so:_ZN4FIFE23ResourceAnimationLoader4loadEPNS_9IResourceE
_fife.so:_ZN4FIFE23alAuxiliaryEffectSlotfvE
_fife.so:_ZN4FIFE23alAuxiliaryEffectSlotivE
_fife.so:_ZN4FIFE23alIsAuxiliaryEffectSlotE
_fife.so:_ZN4FIFE24GenericRendererImageInfo6renderEPNS_6CameraEPNS_5LayerERSt6vectorIPNS_10RenderItemESaIS7_EEPNS_13RenderBackendE
_fife.so:_ZN4FIFE24GenericRendererImageInfoC1ENS_12RendererNodeENS_9SharedPtrINS_5ImageEEEb
_fife.so:_ZN4FIFE24GenericRendererImageInfoC2ENS_12RendererNodeENS_9SharedPtrINS_5ImageEEEb
_fife.so:_ZN4FIFE24GenericRendererPointInfo6renderEPNS_6CameraEPNS_5LayerERSt6vectorIPNS_10RenderItemESaIS7_EEPNS_13RenderBackendE
_fife.so:_ZN4FIFE24GenericRendererPointInfoC1ENS_12RendererNodeEhhhh
_fife.so:_ZN4FIFE24GenericRendererPointInfoC2ENS_12RendererNodeEhhhh
_fife.so:_ZN4FIFE24LightRendererElementInfo10getStencilEv
_fife.so:_ZN4FIFE24LightRendererElementInfo10setStencilEh
_fife.so:_ZN4FIFE24LightRendererElementInfo13removeStencilEv
_fife.so:_ZN4FIFE24LightRendererElementInfoC1ENS_12RendererNodeEii
_fife.so:_ZN4FIFE24LightRendererElementInfoC2ENS_12RendererNodeEii
_fife.so:_ZN4FIFE24OffRendererAnimationInfo6renderEPNS_13RenderBackendE
_fife.so:_ZN4FIFE24OffRendererAnimationInfoC1ENS_11PointType2DIiEENS_9SharedPtrINS_9AnimationEEE
_fife.so:_ZN4FIFE24OffRendererAnimationInfoC2ENS_11PointType2DIiEENS_9SharedPtrINS_9AnimationEEE
_fife.so:_ZN4FIFE24createDefaultAtlasLoaderEPNS_5ModelEPNS_3VFSEPNS_12ImageManagerEPNS_16AnimationManagerE
_fife.so:_ZN4FIFE25GenericRendererResizeInfo6renderEPNS_6CameraEPNS_5LayerERSt6vectorIPNS_10RenderItemESaIS7_EEPNS_13RenderBackendE
_fife.so:_ZN4FIFE25GenericRendererResizeInfoC1ENS_12RendererNodeENS_9SharedPtrINS_5ImageEEEiib
_fife.so:_ZN4FIFE25GenericRendererResizeInfoC2ENS_12RendererNodeENS_9SharedPtrINS_5ImageEEEiib
_fife.so:_ZN4FIFE25GenericRendererVertexInfo6renderEPNS_6CameraEPNS_5LayerERSt6vectorIPNS_10RenderItemESaIS7_EEPNS_13RenderBackendE
_fife.so:_ZN4FIFE25GenericRendererVertexInfoC1ENS_12RendererNodeEihhhh
_fife.so:_ZN4FIFE25GenericRendererVertexInfoC2ENS_12RendererNodeEihhhh
_fife.so:_ZN4FIFE25alGenAuxiliaryEffectSlotsE
_fife.so:_ZN4FIFE25alGetAuxiliaryEffectSlotfE
_fife.so:_ZN4FIFE25alGetAuxiliaryEffectSlotiE
_fife.so:_ZN4FIFE26LightRendererAnimationInfo6renderEPNS_6CameraEPNS_5LayerERSt6vectorIPNS_10RenderItemESaIS7_EEPNS_13RenderBackendE
_fife.so:_ZN4FIFE26LightRendererAnimationInfoC1ENS_12RendererNodeENS_9SharedPtrINS_9AnimationEEEii
_fife.so:_ZN4FIFE26LightRendererAnimationInfoC2ENS_12RendererNodeENS_9SharedPtrINS_9AnimationEEEii
_fife.so:_ZN4FIFE26SDL_BlendRow_RGBA8_to_RGB8EPKhPhji
_fife.so:_ZN4FIFE26alGetAuxiliaryEffectSlotfvE
_fife.so:_ZN4FIFE26alGetAuxiliaryEffectSlotivE
_fife.so:_ZN4FIFE27GenericRendererTriangleInfo6renderEPNS_6CameraEPNS_5LayerERSt6vectorIPNS_10RenderItemESaIS7_EEPNS_13RenderBackendE
_fife.so:_ZN4FIFE27GenericRendererTriangleInfoC1ENS_12RendererNodeES1_S1_hhhh
_fife.so:_ZN4FIFE27GenericRendererTriangleInfoC2ENS_12RendererNodeES1_S1_hhhh
_fife.so:_ZN4FIFE27SDL_BlendRow_RGBA8_to_RGBA8EPKhPhji
_fife.so:_ZN4FIFE28GenericRendererAnimationInfo6renderEPNS_6CameraEPNS_5LayerERSt6vectorIPNS_10RenderItemESaIS7_EEPNS_13RenderBackendE
_fife.so:_ZN4FIFE28GenericRendererAnimationInfoC1ENS_12RendererNodeENS_9SharedPtrINS_9AnimationEEEb
_fife.so:_ZN4FIFE28GenericRendererAnimationInfoC2ENS_12RendererNodeENS_9SharedPtrINS_9AnimationEEEb
_fife.so:_ZN4FIFE28LightRendererSimpleLightInfo6renderEPNS_6CameraEPNS_5LayerERSt6vectorIPNS_10RenderItemESaIS7_EEPNS_13RenderBackendE
_fife.so:_ZN4FIFE28LightRendererSimpleLightInfo8getColorEv
_fife.so:_ZN4FIFE28LightRendererSimpleLightInfoC1ENS_12RendererNodeEhfiffhhhii
_fife.so:_ZN4FIFE28LightRendererSimpleLightInfoC2ENS_12RendererNodeEhfiffhhhii
_fife.so:_ZN4FIFE28SDL_BlendRow_RGBA4_to_RGB565EPKhPhji
_fife.so:_ZN4FIFE28SDL_BlendRow_RGBA8_to_RGB565EPKhPhji
_fife.so:_ZN4FIFE28alDeleteAuxiliaryEffectSlotsE
_fife.so:_ZN4FIFE32GetFilenameFromDirectoryIteratorB5cxx11ERKN5boost10filesystem18directory_iteratorE
_fife.so:_ZN4FIFE3Map11createLayerERKNSt7__cxx1112basic_stringIcSt11char_traitsIcESaIcEEEPNS_8CellGridE
_fife.so:_ZN4FIFE3Map11deleteLayerEPNS_5LayerE
_fife.so:_ZN4FIFE3Map12deleteLayersEv
_fife.so:_ZN4FIFE3Map12removeCameraERKNSt7__cxx1112basic_stringIcSt11char_traitsIcESaIcEEE
_fife.so:_ZN4FIFE3Map17addChangeListenerEPNS_17MapChangeListenerE
_fife.so:_ZN4FIFE3Map18finalizeCellCachesEv
_fife.so:_ZN4FIFE3Map20getMinMaxCoordinatesERNS_11PointType3DIdEES3_
_fife.so:_ZN4FIFE3Map20initializeCellCachesEv
_fife.so:_ZN4FIFE3Map20removeChangeListenerEPNS_17MapChangeListenerE
_fife.so:_ZN4FIFE3Map22addInstanceForTransferEPNS_8InstanceERKNS_8LocationE
_fife.so:_ZN4FIFE3Map25removeInstanceForTransferEPNS_8InstanceE
_fife.so:_ZN4FIFE3Map6updateEv
_fife.so:_ZN4FIFE3Map8getLayerERKNSt7__cxx1112basic_stringIcSt11char_traitsIcESaIcEEE
_fife.so:_ZN4FIFE3Map9addCameraERKNSt7__cxx1112basic_stringIcSt11char_traitsIcESaIcEEERKNS_8RectTypeIiEE
_fife.so:_ZN4FIFE3Map9getCameraERKNSt7__cxx1112basic_stringIcSt11char_traitsIcESaIcEEE
_fife.so:_ZN4FIFE3MapC1ERKNSt7__cxx1112basic_stringIcSt11char_traitsIcESaIcEEEPNS_13RenderBackendERKSt6vectorIPNS_12RendererBaseESaISD_EEPNS_12TimeProviderE
_fife.so:_ZN4FIFE3MapC2ERKNSt7__cxx1112basic_stringIcSt11char_traitsIcESaIcEEEPNS_13RenderBackendERKSt6vectorIPNS_12RendererBaseESaISD_EEPNS_12TimeProviderE
_fife.so:_ZN4FIFE3MapD0Ev
_fife.so:_ZN4FIFE3MapD1Ev
_fife.so:_ZN4FIFE3MapD2Ev
_fife.so:_ZN4FIFE3VFS11addProviderEPNS_17VFSSourceProviderE
_fife.so:_ZN4FIFE3VFS12addNewSourceERKNSt7__cxx1112basic_stringIcSt11char_traitsIcESaIcEEE
_fife.so:_ZN4FIFE3VFS12createSourceERKNSt7__cxx1112basic_stringIcSt11char_traitsIcESaIcEEE
_fife.so:_ZN4FIFE3VFS12removeSourceEPNS_9VFSSourceE
_fife.so:_ZN4FIFE3VFS12removeSourceERKNSt7__cxx1112basic_stringIcSt11char_traitsIcESaIcEEE
_fife.so:_ZN4FIFE3VFS4openERKNSt7__cxx1112basic_stringIcSt11char_traitsIcESaIcEEE
_fife.so:_ZN4FIFE3VFS7cleanupEv
_fife.so:_ZN4FIFE3VFS9addSourceEPNS_9VFSSourceE
_fife.so:_ZN4FIFE3VFSC1Ev
_fife.so:_ZN4FIFE3VFSC2Ev
_fife.so:_ZN4FIFE3VFSD0Ev
_fife.so:_ZN4FIFE3VFSD1Ev
_fife.so:_ZN4FIFE3VFSD2Ev
_fife.so:_ZN4FIFE4Cell10isInsertedEv
_fife.so:_ZN4FIFE4Cell10isNeighborEPS0_
_fife.so:_ZN4FIFE4Cell11addInstanceEPNS_8InstanceE
_fife.so:_ZN4FIFE4Cell11addNeighborEPS0_
_fife.so:_ZN4FIFE4Cell11defaultCostEv
_fife.so:_ZN4FIFE4Cell11getCellTypeEv
_fife.so:_ZN4FIFE4Cell11setCellTypeEh
_fife.so:_ZN4FIFE4Cell11setInsertedEb
_fife.so:_ZN4FIFE4Cell12addInstancesERKNSt7__cxx114listIPNS_8InstanceESaIS4_EEE
_fife.so:_ZN4FIFE4Cell12defaultSpeedEv
_fife.so:_ZN4FIFE4Cell12getInstancesEv
_fife.so:_ZN4FIFE4Cell12getNeighborsEv
_fife.so:_ZN4FIFE4Cell13getTransitionEv
_fife.so:_ZN4FIFE4Cell13onCellDeletedEPS0_
_fife.so:_ZN4FIFE4Cell14changeInstanceEPNS_8InstanceE
_fife.so:_ZN4FIFE4Cell14removeInstanceEPNS_8InstanceE
_fife.so:_ZN4FIFE4Cell14resetNeighborsEv
_fife.so:_ZN4FIFE4Cell14updateCellInfoEv
_fife.so:_ZN4FIFE4Cell15isZoneProtectedEv
_fife.so:_ZN4FIFE4Cell16createTransitionEPNS_5LayerERKNS_11PointType3DIiEEb
_fife.so:_ZN4FIFE4Cell16deleteTransitionEv
_fife.so:_ZN4FIFE4Cell16setZoneProtectedEb
_fife.so:_ZN4FIFE4Cell17addChangeListenerEPNS_18CellChangeListenerE
_fife.so:_ZN4FIFE4Cell17addDeleteListenerEPNS_18CellDeleteListenerE
_fife.so:_ZN4FIFE4Cell17getCostMultiplierEv
_fife.so:_ZN4FIFE4Cell17setCostMultiplierEd
_fife.so:_ZN4FIFE4Cell18getSpeedMultiplierEv
_fife.so:_ZN4FIFE4Cell18setSpeedMultiplierEd
_fife.so:_ZN4FIFE4Cell19resetCostMultiplierEv
_fife.so:_ZN4FIFE4Cell20callOnInstanceExitedEPNS_8InstanceE
_fife.so:_ZN4FIFE4Cell20removeChangeListenerEPNS_18CellChangeListenerE
_fife.so:_ZN4FIFE4Cell20removeDeleteListenerEPNS_18CellDeleteListenerE
_fife.so:_ZN4FIFE4Cell20resetSpeedMultiplierEv
_fife.so:_ZN4FIFE4Cell21callOnBlockingChangedEb
_fife.so:_ZN4FIFE4Cell21callOnInstanceEnteredEPNS_8InstanceE
_fife.so:_ZN4FIFE4Cell22updateCellBlockingInfoEv
_fife.so:_ZN4FIFE4Cell7getZoneEv
_fife.so:_ZN4FIFE4Cell7setZoneEPNS_4ZoneE
_fife.so:_ZN4FIFE4Cell8getLayerEv
_fife.so:_ZN4FIFE4Cell9getCellIdEv
_fife.so:_ZN4FIFE4Cell9resetZoneEv
_fife.so:_ZN4FIFE4Cell9setCellIdEi
_fife.so:_ZN4FIFE4CellC1EiNS_11PointType3DIiEEPNS_5LayerE
_fife.so:_ZN4FIFE4CellC2EiNS_11PointType3DIiEEPNS_5LayerE
_fife.so:_ZN4FIFE4CellD0Ev
_fife.so:_ZN4FIFE4CellD1Ev
_fife.so:_ZN4FIFE4CellD2Ev
_fife.so:_ZN4FIFE4DAT110readStringB5cxx11Ev
_fife.so:_ZN4FIFE4DAT112loadFileListERKNSt7__cxx1112basic_stringIcSt11char_traitsIcESaIcEEE
_fife.so:_ZN4FIFE4DAT1C1EPNS_3VFSERKNSt7__cxx1112basic_stringIcSt11char_traitsIcESaIcEEE
_fife.so:_ZN4FIFE4DAT1C2EPNS_3VFSERKNSt7__cxx1112basic_stringIcSt11char_traitsIcESaIcEEE
_fife.so:_ZN4FIFE4DAT2C1EPNS_3VFSERKNSt7__cxx1112basic_stringIcSt11char_traitsIcESaIcEEE
_fife.so:_ZN4FIFE4DAT2C2EPNS_3VFSERKNSt7__cxx1112basic_stringIcSt11char_traitsIcESaIcEEE
_fife.so:_ZN4FIFE4Echo10setDampingEf
_fife.so:_ZN4FIFE4Echo10setLrDelayEf
_fife.so:_ZN4FIFE4Echo11setFeedbackEf
_fife.so:_ZN4FIFE4Echo8setDelayEf
_fife.so:_ZN4FIFE4Echo9setSpreadEf
_fife.so:_ZN4FIFE4EchoC1Ev
_fife.so:_ZN4FIFE4EchoC2Ev
_fife.so:_ZN4FIFE4Zone10removeCellEPNS_4CellE
_fife.so:_ZN4FIFE4Zone10resetCellsEv
_fife.so:_ZN4FIFE4Zone18getTransitionCellsEPNS_5LayerE
_fife.so:_ZN4FIFE4Zone7addCellEPNS_4CellE
_fife.so:_ZN4FIFE4Zone9mergeZoneEPS0_
_fife.so:_ZN4FIFE4ZoneC1Ej
_fife.so:_ZN4FIFE4ZoneC2Ej
_fife.so:_ZN4FIFE4ZoneD1Ev
_fife.so:_ZN4FIFE4ZoneD2Ev
_fife.so:_ZN4FIFE5Atlas14getPackedImageEv
_fife.so:_ZN4FIFE5Atlas14setPackedImageERKNS_9SharedPtrINS_5ImageEEE
_fife.so:_ZN4FIFE5Atlas8addImageERKNSt7__cxx1112basic_stringIcSt11char_traitsIcESaIcEEERKNS_9AtlasDataE
_fife.so:_ZN4FIFE5Atlas8getImageERKNSt7__cxx1112basic_stringIcSt11char_traitsIcESaIcEEE
_fife.so:_ZN4FIFE5Atlas8getImageEj
_fife.so:_ZN4FIFE5Color3setEhhhh
_fife.so:_ZN4FIFE5Color4setBEh
_fife.so:_ZN4FIFE5Color4setGEh
_fife.so:_ZN4FIFE5Color4setREh
_fife.so:_ZN4FIFE5Color8setAlphaEh
_fife.so:_ZN4FIFE5ColorC1Ehhhh
_fife.so:_ZN4FIFE5ColorC2Ehhhh
_fife.so:_ZN4FIFE5ColorD1Ev
_fife.so:_ZN4FIFE5ColorD2Ev
_fife.so:_ZN4FIFE5Image12copySubimageEjjRKNS_9SharedPtrIS0_EE
_fife.so:_ZN4FIFE5Image12getPixelRGBAEiiPhS1_S1_S1_
_fife.so:_ZN4FIFE5Image13detachSurfaceEv
_fife.so:_ZN4FIFE5Image21createUniqueImageNameB5cxx11Ev
_fife.so:_ZN4FIFE5Image4freeEv
_fife.so:_ZN4FIFE5Image4loadEv
_fife.so:_ZN4FIFE5Image5resetEP11SDL_Surface
_fife.so:_ZN4FIFE5Image7getSizeEv
_fife.so:_ZN4FIFE5Image8putPixelEP11SDL_Surfaceiihhhh
_fife.so:_ZN4FIFE5Image9saveAsPngERKNSt7__cxx1112basic_stringIcSt11char_traitsIcESaIcEEERK11SDL_Surface
_fife.so:_ZN4FIFE5Image9saveImageERKNSt7__cxx1112basic_stringIcSt11char_traitsIcESaIcEEE
_fife.so:_ZN4FIFE5ImageC1EP11SDL_Surface
_fife.so:_ZN4FIFE5ImageC1EPKhjj
_fife.so:_ZN4FIFE5ImageC1EPNS_15IResourceLoaderE
_fife.so:_ZN4FIFE5ImageC1ERKNSt7__cxx1112basic_stringIcSt11char_traitsIcESaIcEEEP11SDL_Surface
_fife.so:_ZN4FIFE5ImageC1ERKNSt7__cxx1112basic_stringIcSt11char_traitsIcESaIcEEEPKhjj
_fife.so:_ZN4FIFE5ImageC1ERKNSt7__cxx1112basic_stringIcSt11char_traitsIcESaIcEEEPNS_15IResourceLoaderE
_fife.so:_ZN4FIFE5ImageC2EP11SDL_Surface
_fife.so:_ZN4FIFE5ImageC2EPKhjj
_fife.so:_ZN4FIFE5ImageC2EPNS_15IResourceLoaderE
_fife.so:_ZN4FIFE5ImageC2ERKNSt7__cxx1112basic_stringIcSt11char_traitsIcESaIcEEEP11SDL_Surface
_fife.so:_ZN4FIFE5ImageC2ERKNSt7__cxx1112basic_stringIcSt11char_traitsIcESaIcEEEPKhjj
_fife.so:_ZN4FIFE5ImageC2ERKNSt7__cxx1112basic_stringIcSt11char_traitsIcESaIcEEEPNS_15IResourceLoaderE
_fife.so:_ZN4FIFE5ImageD0Ev
_fife.so:_ZN4FIFE5ImageD1Ev
_fife.so:_ZN4FIFE5ImageD2Ev
_fife.so:_ZN4FIFE5Layer10isInteractEv
_fife.so:_ZN4FIFE5Layer10isWalkableEv
_fife.so:_ZN4FIFE5Layer11addInstanceEPNS_8InstanceERKNS_11PointType3DIdEE
_fife.so:_ZN4FIFE5Layer11getInstanceERKNSt7__cxx1112basic_stringIcSt11char_traitsIcESaIcEEE
_fife.so:_ZN4FIFE5Layer11setCellGridEPNS_8CellGridE
_fife.so:_ZN4FIFE5Layer11setInteractEbRKNSt7__cxx1112basic_stringIcSt11char_traitsIcESaIcEEE
_fife.so:_ZN4FIFE5Layer11setWalkableEb
_fife.so:_ZN4FIFE5Layer12getCellCacheEv
_fife.so:_ZN4FIFE5Layer12getInstancesERKNSt7__cxx1112basic_stringIcSt11char_traitsIcESaIcEEE
_fife.so:_ZN4FIFE5Layer13getWalkableIdB5cxx11Ev
_fife.so:_ZN4FIFE5Layer14createInstanceEPNS_6ObjectERKNS_11PointType3DIdEERKNSt7__cxx1112basic_stringIcSt11char_traitsIcESaIcEEE
_fife.so:_ZN4FIFE5Layer14createInstanceEPNS_6ObjectERKNS_11PointType3DIiEERKNSt7__cxx1112basic_stringIcSt11char_traitsIcESaIcEEE
_fife.so:_ZN4FIFE5Layer14deleteInstanceEPNS_8InstanceE
_fife.so:_ZN4FIFE5Layer14getInstancesAtERNS_8LocationEb
_fife.so:_ZN4FIFE5Layer14getInstancesInB5cxx11ERNS_8RectTypeIiEE
_fife.so:_ZN4FIFE5Layer14removeInstanceEPNS_8InstanceE
_fife.so:_ZN4FIFE5Layer15createCellCacheEv
_fife.so:_ZN4FIFE5Layer16addInteractLayerEPS0_
_fife.so:_ZN4FIFE5Layer16destroyCellCacheEv
_fife.so:_ZN4FIFE5Layer17addChangeListenerEPNS_19LayerChangeListenerE
_fife.so:_ZN4FIFE5Layer17getInteractLayersEv
_fife.so:_ZN4FIFE5Layer18getInstancesInLineERKNS_11PointType3DIiEES4_
_fife.so:_ZN4FIFE5Layer18setPathingStrategyENS_15PathingStrategyE
_fife.so:_ZN4FIFE5Layer18setSortingStrategyENS_15SortingStrategyE
_fife.so:_ZN4FIFE5Layer19getChangedInstancesEv
_fife.so:_ZN4FIFE5Layer19removeInteractLayerEPS0_
_fife.so:_ZN4FIFE5Layer19setInstancesVisibleEb
_fife.so:_ZN4FIFE5Layer20getBlockingInstancesERKNS_11PointType3DIiEE
_fife.so:_ZN4FIFE5Layer20getInstancesInCircleERKNS_11PointType3DIiEEt
_fife.so:_ZN4FIFE5Layer20getLayerTransparencyEv
_fife.so:_ZN4FIFE5Layer20removeChangeListenerEPNS_19LayerChangeListenerE
_fife.so:_ZN4FIFE5Layer20setLayerTransparencyEh
_fife.so:_ZN4FIFE5Layer22toggleInstancesVisibleEv
_fife.so:_ZN4FIFE5Layer25setInstanceActivityStatusEPNS_8InstanceEb
_fife.so:_ZN4FIFE5Layer27getInstancesInCircleSegmentERKNS_11PointType3DIiEEtii
_fife.so:_ZN4FIFE5Layer28cellContainsBlockingInstanceERKNS_11PointType3DIiEE
_fife.so:_ZN4FIFE5Layer5setIdERKNSt7__cxx1112basic_stringIcSt11char_traitsIcESaIcEEE
_fife.so:_ZN4FIFE5Layer6updateEv
_fife.so:_ZN4FIFE5Layer8isStaticEv
_fife.so:_ZN4FIFE5Layer9isChangedEv
_fife.so:_ZN4FIFE5Layer9setStaticEb
_fife.so:_ZN4FIFE5LayerC1ERKNSt7__cxx1112basic_stringIcSt11char_traitsIcESaIcEEEPNS_3MapEPNS_8CellGridE
_fife.so:_ZN4FIFE5LayerC2ERKNSt7__cxx1112basic_stringIcSt11char_traitsIcESaIcEEEPNS_3MapEPNS_8CellGridE
_fife.so:_ZN4FIFE5LayerD0Ev
_fife.so:_ZN4FIFE5LayerD1Ev
_fife.so:_ZN4FIFE5LayerD2Ev
_fife.so:_ZN4FIFE5Model10deleteMapsEv
_fife.so:_ZN4FIFE5Model11adoptPatherEPNS_7IPatherE
_fife.so:_ZN4FIFE5Model11getCellGridERKNSt7__cxx1112basic_stringIcSt11char_traitsIcESaIcEEE
_fife.so:_ZN4FIFE5Model12createObjectERKNSt7__cxx1112basic_stringIcSt11char_traitsIcESaIcEEES8_PNS_6ObjectE
_fife.so:_ZN4FIFE5Model12deleteObjectEPNS_6ObjectE
_fife.so:_ZN4FIFE5Model13adoptCellGridEPNS_8CellGridE
_fife.so:_ZN4FIFE5Model13deleteObjectsEv
_fife.so:_ZN4FIFE5Model14removeCellGridEPNS_8CellGridE
_fife.so:_ZN4FIFE5Model15selectNamespaceERKNSt7__cxx1112basic_stringIcSt11char_traitsIcESaIcEEE
_fife.so:_ZN4FIFE5Model6updateEv
_fife.so:_ZN4FIFE5Model9createMapERKNSt7__cxx1112basic_stringIcSt11char_traitsIcESaIcEEE
_fife.so:_ZN4FIFE5Model9deleteMapEPNS_3MapE
_fife.so:_ZN4FIFE5Model9getObjectERKNSt7__cxx1112basic_stringIcSt11char_traitsIcESaIcEEES8_
_fife.so:_ZN4FIFE5Model9getPatherERKNSt7__cxx1112basic_stringIcSt11char_traitsIcESaIcEEE
_fife.so:_ZN4FIFE5ModelC1EPNS_13RenderBackendERKSt6vectorIPNS_12RendererBaseESaIS5_EE
_fife.so:_ZN4FIFE5ModelC2EPNS_13RenderBackendERKSt6vectorIPNS_12RendererBaseESaIS5_EE
_fife.so:_ZN4FIFE5ModelD0Ev
_fife.so:_ZN4FIFE5ModelD1Ev
_fife.so:_ZN4FIFE5ModelD2Ev
_fife.so:_ZN4FIFE5Route10getEndNodeEv
_fife.so:_ZN4FIFE5Route10reachedEndEv
_fife.so:_ZN4FIFE5Route10setEndNodeERKNS_8LocationE
_fife.so:_ZN4FIFE5Route11getNextNodeEv
_fife.so:_ZN4FIFE5Route11getRotationEv
_fife.so:_ZN4FIFE5Route11isMultiCellEv
_fife.so:_ZN4FIFE5Route11isReplannedEv
_fife.so:_ZN4FIFE5Route11setRotationEi
_fife.so:_ZN4FIFE5Route12getSessionIdEv
_fife.so:_ZN4FIFE5Route12getStartNodeEv
_fife.so:_ZN4FIFE5Route12setReplannedEb
_fife.so:_ZN4FIFE5Route12setSessionIdEi
_fife.so:_ZN4FIFE5Route12setStartNodeERKNS_8LocationE
_fife.so:_ZN4FIFE5Route13getPathLengthEv
_fife.so:_ZN4FIFE5Route13getZStepRangeEv
_fife.so:_ZN4FIFE5Route13isAreaLimitedEv
_fife.so:_ZN4FIFE5Route14getCurrentNodeEv
_fife.so:_ZN4FIFE5Route14getRouteStatusEv
_fife.so:_ZN4FIFE5Route14setRouteStatusEh
_fife.so:_ZN4FIFE5Route14walkToNextNodeEi
_fife.so:_ZN4FIFE5Route15getLimitedAreasB5cxx11Ev
_fife.so:_ZN4FIFE5Route15getOccupiedAreaEv
_fife.so:_ZN4FIFE5Route15getPreviousNodeEv
_fife.so:_ZN4FIFE5Route15getWalkedLengthEv
_fife.so:_ZN4FIFE5Route15setOccupiedAreaERKSt6vectorINS_11PointType3DIiEESaIS3_EE
_fife.so:_ZN4FIFE5Route16getOccupiedCellsEi
_fife.so:_ZN4FIFE5Route23isDynamicBlockerIgnoredEv
_fife.so:_ZN4FIFE5Route24getBlockingPathLocationsB5cxx11Ev
_fife.so:_ZN4FIFE5Route24setDynamicBlockerIgnoredEb
_fife.so:_ZN4FIFE5Route7cutPathEj
_fife.so:_ZN4FIFE5Route7getPathB5cxx11Ev
_fife.so:_ZN4FIFE5Route7setPathERKNSt7__cxx114listINS_8LocationESaIS3_EEE
_fife.so:_ZN4FIFE5Route9getCostIdB5cxx11Ev
_fife.so:_ZN4FIFE5Route9getObjectEv
_fife.so:_ZN4FIFE5Route9setCostIdERKNSt7__cxx1112basic_stringIcSt11char_traitsIcESaIcEEE
_fife.so:_ZN4FIFE5Route9setObjectEPNS_6ObjectE
_fife.so:_ZN4FIFE5RouteC1ERKNS_8LocationES3_
_fife.so:_ZN4FIFE5RouteC2ERKNS_8LocationES3_
_fife.so:_ZN4FIFE5RouteD0Ev
_fife.so:_ZN4FIFE5RouteD1Ev
_fife.so:_ZN4FIFE5RouteD2Ev
_fife.so:_ZN4FIFE5Timer11setCallbackERKSt8functionIFvvEE
_fife.so:_ZN4FIFE5Timer11setIntervalEi
_fife.so:_ZN4FIFE5Timer11updateEventEj
_fife.so:_ZN4FIFE5Timer4stopEv
_fife.so:_ZN4FIFE5Timer5startEv
_fife.so:_ZN4FIFE5TimerC1Ev
_fife.so:_ZN4FIFE5TimerC2Ev
_fife.so:_ZN4FIFE5TimerD0Ev
_fife.so:_ZN4FIFE5TimerD1Ev
_fife.so:_ZN4FIFE5TimerD2Ev
_fife.so:_ZN4FIFE6ActionC1ERKNSt7__cxx1112basic_stringIcSt11char_traitsIcESaIcEEE
_fife.so:_ZN4FIFE6ActionC2ERKNSt7__cxx1112basic_stringIcSt11char_traitsIcESaIcEEE
_fife.so:_ZN4FIFE6ActionD0Ev
_fife.so:_ZN4FIFE6ActionD1Ev
_fife.so:_ZN4FIFE6ActionD2Ev
_fife.so:_ZN4FIFE6Camera10setEnabledEb
_fife.so:_ZN4FIFE6Camera11addRendererEPNS_12RendererBaseE
_fife.so:_ZN4FIFE6Camera11getLocationEv
_fife.so:_ZN4FIFE6Camera11getRendererERKNSt7__cxx1112basic_stringIcSt11char_traitsIcESaIcEEE
_fife.so:_ZN4FIFE6Camera11removeLayerEPNS_5LayerE
_fife.so:_ZN4FIFE6Camera11setLocationERKNS_8LocationE
_fife.so:_ZN4FIFE6Camera11setPositionERKNS_11PointType3DIdEE
_fife.so:_ZN4FIFE6Camera11setRotationEd
_fife.so:_ZN4FIFE6Camera11setViewPortERKNS_8RectTypeIiEE
_fife.so:_ZN4FIFE6Camera12resetUpdatesEv
_fife.so:_ZN4FIFE6Camera13renderOverlayEv
_fife.so:_ZN4FIFE6Camera14getMapViewPortEv
_fife.so:_ZN4FIFE6Camera14resetRenderersEv
_fife.so:_ZN4FIFE6Camera14setZToYEnabledEb
_fife.so:_ZN4FIFE6Camera14updateMatricesEv
_fife.so:_ZN4FIFE6Camera15calculateZValueERNS_11PointType3DIdEE
_fife.so:_ZN4FIFE6Camera15getOverlayColorEv
_fife.so:_ZN4FIFE6Camera15getOverlayImageEv
_fife.so:_ZN4FIFE6Camera15setOverlayColorEhhhh
_fife.so:_ZN4FIFE6Camera15setOverlayImageEib
_fife.so:_ZN4FIFE6Camera16getLayerViewPortEPNS_5LayerE
_fife.so:_ZN4FIFE6Camera16getLightingColorEv
_fife.so:_ZN4FIFE6Camera16getRenderListRefEPNS_5LayerE
_fife.so:_ZN4FIFE6Camera16setLightingColorEfff
_fife.so:_ZN4FIFE6Camera16toMapCoordinatesENS_11PointType3DIiEEb
_fife.so:_ZN4FIFE6Camera17renderStaticLayerEPNS_5LayerEb
_fife.so:_ZN4FIFE6Camera17resetOverlayColorEv
_fife.so:_ZN4FIFE6Camera17resetOverlayImageEv
_fife.so:_ZN4FIFE6Camera17updateRenderListsEv
_fife.so:_ZN4FIFE6Camera18resetLightingColorEv
_fife.so:_ZN4FIFE6Camera19getOverlayAnimationEv
_fife.so:_ZN4FIFE6Camera19setOverlayAnimationENS_9SharedPtrINS_9AnimationEEEb
_fife.so:_ZN4FIFE6Camera19toScreenCoordinatesERKNS_11PointType3DIdEE
_fife.so:_ZN4FIFE6Camera20getMatchingInstancesENS_11PointType3DIiEERNS_5LayerERNSt7__cxx114listIPNS_8InstanceESaIS8_EEEh
_fife.so:_ZN4FIFE6Camera20getMatchingInstancesENS_8RectTypeIiEERNS_5LayerERNSt7__cxx114listIPNS_8InstanceESaIS8_EEEh
_fife.so:_ZN4FIFE6Camera20getMatchingInstancesERNS_8LocationERNSt7__cxx114listIPNS_8InstanceESaIS6_EEEb
_fife.so:_ZN4FIFE6Camera20updateReferenceScaleEv
_fife.so:_ZN4FIFE6Camera21resetOverlayAnimationEv
_fife.so:_ZN4FIFE6Camera21screenToVirtualScreenERKNS_11PointType3DIiEE
_fife.so:_ZN4FIFE6Camera21virtualScreenToScreenERKNS_11PointType3DIdEE
_fife.so:_ZN4FIFE6Camera22getCellImageDimensionsEPNS_5LayerE
_fife.so:_ZN4FIFE6Camera22getCellImageDimensionsEv
_fife.so:_ZN4FIFE6Camera22setCellImageDimensionsEjj
_fife.so:_ZN4FIFE6Camera24getLogicalCellDimensionsEPNS_5LayerE
_fife.so:_ZN4FIFE6Camera24getLogicalCellDimensionsEv
_fife.so:_ZN4FIFE6Camera24onRendererEnabledChangedEPNS_12RendererBaseE
_fife.so:_ZN4FIFE6Camera26toVirtualScreenCoordinatesERKNS_11PointType3DIdEE
_fife.so:_ZN4FIFE6Camera33onRendererPipelinePositionChangedEPNS_12RendererBaseE
_fife.so:_ZN4FIFE6Camera4initEv
_fife.so:_ZN4FIFE6Camera6attachEPNS_8InstanceE
_fife.so:_ZN4FIFE6Camera6detachEv
_fife.so:_ZN4FIFE6Camera6renderEv
_fife.so:_ZN4FIFE6Camera6updateEv
_fife.so:_ZN4FIFE6Camera7refreshEv
_fife.so:_ZN4FIFE6Camera7setTiltEd
_fife.so:_ZN4FIFE6Camera7setZToYEd
_fife.so:_ZN4FIFE6Camera7setZoomEd
_fife.so:_ZN4FIFE6Camera8addLayerEPNS_5LayerE
_fife.so:_ZN4FIFE6Camera9isEnabledEv
_fife.so:_ZN4FIFE6CameraC1ERKNSt7__cxx1112basic_stringIcSt11char_traitsIcESaIcEEEPNS_3MapERKNS_8RectTypeIiEEPNS_13RenderBackendE
_fife.so:_ZN4FIFE6CameraC2ERKNSt7__cxx1112basic_stringIcSt11char_traitsIcESaIcEEEPNS_3MapERKNS_8RectTypeIiEEPNS_13RenderBackendE
_fife.so:_ZN4FIFE6CameraD0Ev
_fife.so:_ZN4FIFE6CameraD1Ev
_fife.so:_ZN4FIFE6CameraD2Ev
_fife.so:_ZN4FIFE6Chorus11setFeedbackEf
_fife.so:_ZN4FIFE6Chorus19setWaveformTriangleEb
_fife.so:_ZN4FIFE6Chorus7setRateEf
_fife.so:_ZN4FIFE6Chorus8setDelayEf
_fife.so:_ZN4FIFE6Chorus8setDepthEf
_fife.so:_ZN4FIFE6Chorus8setPhaseEi
_fife.so:_ZN4FIFE6ChorusC1Ev
_fife.so:_ZN4FIFE6ChorusC2Ev
_fife.so:_ZN4FIFE6Cursor10invalidateEv
_fife.so:_ZN4FIFE6Cursor11getNativeIdEj
_fife.so:_ZN4FIFE6Cursor11getPositionEPiS1_
_fife.so:_ZN4FIFE6Cursor11setPositionEjj
_fife.so:_ZN4FIFE6Cursor15setNativeCursorEj
_fife.so:_ZN4FIFE6Cursor20setNativeImageCursorENS_9SharedPtrINS_5ImageEEE
_fife.so:_ZN4FIFE6Cursor27setNativeImageCursorEnabledEb
_fife.so:_ZN4FIFE6Cursor3setENS_9SharedPtrINS_5ImageEEE
_fife.so:_ZN4FIFE6Cursor3setENS_9SharedPtrINS_9AnimationEEE
_fife.so:_ZN4FIFE6Cursor3setEj
_fife.so:_ZN4FIFE6Cursor4drawEv
_fife.so:_ZN4FIFE6Cursor7setDragENS_9SharedPtrINS_5ImageEEEii
_fife.so:_ZN4FIFE6Cursor7setDragENS_9SharedPtrINS_9AnimationEEEii
_fife.so:_ZN4FIFE6Cursor9resetDragEv
_fife.so:_ZN4FIFE6CursorC1EPNS_13RenderBackendE
_fife.so:_ZN4FIFE6CursorC2EPNS_13RenderBackendE
_fife.so:_ZN4FIFE6Engine11getSettingsEv
_fife.so:_ZN4FIFE6Engine15finalizePumpingEv
_fife.so:_ZN4FIFE6Engine16changeScreenModeERKNS_10ScreenModeE
_fife.so:_ZN4FIFE6Engine17addChangeListenerEPNS_21IEngineChangeListenerE
_fife.so:_ZN4FIFE6Engine17initializePumpingEv
_fife.so:_ZN4FIFE6Engine20removeChangeListenerEPNS_21IEngineChangeListenerE
_fife.so:_ZN4FIFE6Engine4initEv
_fife.so:_ZN4FIFE6Engine4pumpEv
_fife.so:_ZN4FIFE6Engine7destroyEv
_fife.so:_ZN4FIFE6EngineC1Ev
_fife.so:_ZN4FIFE6EngineC2Ev
_fife.so:_ZN4FIFE6EngineD0Ev
_fife.so:_ZN4FIFE6EngineD1Ev
_fife.so:_ZN4FIFE6EngineD2Ev
_fife.so:_ZN4FIFE6Logger3logENS_10LogManager8LogLevelERKNS_4LMsgE
_fife.so:_ZN4FIFE6Logger3logENS_10LogManager8LogLevelERKNSt7__cxx1112basic_stringIcSt11char_traitsIcESaIcEEE
_fife.so:_ZN4FIFE6LoggerC1E11logmodule_t
_fife.so:_ZN4FIFE6LoggerC2E11logmodule_t
_fife.so:_ZN4FIFE6LoggerD1Ev
_fife.so:_ZN4FIFE6LoggerD2Ev
_fife.so:_ZN4FIFE6Object11adoptVisualEPNS_7IVisualE
_fife.so:_ZN4FIFE6Object11setBlockingEb
_fife.so:_ZN4FIFE6Object11setFilenameERKNSt7__cxx1112basic_stringIcSt11char_traitsIcESaIcEEE
_fife.so:_ZN4FIFE6Object12addMultiPartEPS0_
_fife.so:_ZN4FIFE6Object12createActionERKNSt7__cxx1112basic_stringIcSt11char_traitsIcESaIcEEEb
_fife.so:_ZN4FIFE6Object12setMultiPartEb
_fife.so:_ZN4FIFE6Object13setZStepRangeEi
_fife.so:_ZN4FIFE6Object14addMultiPartIdERKNSt7__cxx1112basic_stringIcSt11char_traitsIcESaIcEEE
_fife.so:_ZN4FIFE6Object15addWalkableAreaERKNSt7__cxx1112basic_stringIcSt11char_traitsIcESaIcEEE
_fife.so:_ZN4FIFE6Object15removeMultiPartEPS0_
_fife.so:_ZN4FIFE6Object16removeMultiPartsEv
_fife.so:_ZN4FIFE6Object16setDefaultActionERKNSt7__cxx1112basic_stringIcSt11char_traitsIcESaIcEEE
_fife.so:_ZN4FIFE6Object17removeMultiPartIdERKNSt7__cxx1112basic_stringIcSt11char_traitsIcESaIcEEE
_fife.so:_ZN4FIFE6Object17setRotationAnchorERKNS_11PointType3DIdEE
_fife.so:_ZN4FIFE6Object18removeWalkableAreaERKNSt7__cxx1112basic_stringIcSt11char_traitsIcESaIcEEE
_fife.so:_ZN4FIFE6Object19BasicObjectPropertyC1Ev
_fife.so:_ZN4FIFE6Object19BasicObjectPropertyC2Ev
_fife.so:_ZN4FIFE6Object19BasicObjectPropertyD1Ev
_fife.so:_ZN4FIFE6Object19BasicObjectPropertyD2Ev
_fife.so:_ZN4FIFE6Object19MultiObjectPropertyC1Ev
_fife.so:_ZN4FIFE6Object19MultiObjectPropertyC2Ev
_fife.so:_ZN4FIFE6Object19MultiObjectPropertyD1Ev
_fife.so:_ZN4FIFE6Object19MultiObjectPropertyD2Ev
_fife.so:_ZN4FIFE6Object20setCellStackPositionEh
_fife.so:_ZN4FIFE6Object21MovableObjectPropertyC1Ev
_fife.so:_ZN4FIFE6Object21MovableObjectPropertyC2Ev
_fife.so:_ZN4FIFE6Object21MovableObjectPropertyD1Ev
_fife.so:_ZN4FIFE6Object21MovableObjectPropertyD2Ev
_fife.so:_ZN4FIFE6Object21getRestrictedRotationEi
_fife.so:_ZN4FIFE6Object21removeAllMultiPartIdsEv
_fife.so:_ZN4FIFE6Object21setRestrictedRotationEb
_fife.so:_ZN4FIFE6Object22addMultiPartCoordinateEiNS_11PointType3DIiEE
_fife.so:_ZN4FIFE6Object7setAreaERKNSt7__cxx1112basic_stringIcSt11char_traitsIcESaIcEEE
_fife.so:_ZN4FIFE6Object7setCostEd
_fife.so:_ZN4FIFE6Object8setSpeedEd
_fife.so:_ZN4FIFE6Object9setCostIdERKNSt7__cxx1112basic_stringIcSt11char_traitsIcESaIcEEE
_fife.so:_ZN4FIFE6Object9setPatherEPNS_7IPatherE
_fife.so:_ZN4FIFE6Object9setStaticEb
_fife.so:_ZN4FIFE6ObjectC1ERKNSt7__cxx1112basic_stringIcSt11char_traitsIcESaIcEEES8_PS0_
_fife.so:_ZN4FIFE6ObjectC2ERKNSt7__cxx1112basic_stringIcSt11char_traitsIcESaIcEEES8_PS0_
_fife.so:_ZN4FIFE6ObjectD1Ev
_fife.so:_ZN4FIFE6ObjectD2Ev
_fife.so:_ZN4FIFE6Reverb10setDensityEf
_fife.so:_ZN4FIFE6Reverb12setDecayTimeEf
_fife.so:_ZN4FIFE6Reverb12setDiffusionEf
_fife.so:_ZN4FIFE6Reverb15setDecayHfLimitEb
_fife.so:_ZN4FIFE6Reverb15setDecayHfRatioEf
_fife.so:_ZN4FIFE6Reverb17setLateReverbGainEf
_fife.so:_ZN4FIFE6Reverb18setLateReverbDelayEf
_fife.so:_ZN4FIFE6Reverb18setReflectionsGainEf
_fife.so:_ZN4FIFE6Reverb19setReflectionsDelayEf
_fife.so:_ZN4FIFE6Reverb20setRoomRolloffFactorEf
_fife.so:_ZN4FIFE6Reverb22setAirAbsorptionGainHfEf
_fife.so:_ZN4FIFE6Reverb7setGainEf
_fife.so:_ZN4FIFE6Reverb9setGainHfEf
_fife.so:_ZN4FIFE6ReverbC1Ev
_fife.so:_ZN4FIFE6ReverbC2Ev
_fife.so:_ZN4FIFE7Autowah11setPeakGainEf
_fife.so:_ZN4FIFE7Autowah12setResonanceEf
_fife.so:_ZN4FIFE7Autowah13setAttackTimeEf
_fife.so:_ZN4FIFE7Autowah14setReleaseTimeEf
_fife.so:_ZN4FIFE7AutowahC1Ev
_fife.so:_ZN4FIFE7AutowahC2Ev
_fife.so:_ZN4FIFE7Console13updateCaptionEv
_fife.so:_ZN4FIFE7Console14toggleShowHideEv
_fife.so:_ZN4FIFE7Console15m_maxOutputRowsE
_fife.so:_ZN4FIFE7Console15updateAnimationEv
_fife.so:_ZN4FIFE7Console18setConsoleExecuterEPNS_15ConsoleExecuterE
_fife.so:_ZN4FIFE7Console21removeConsoleExecuterEv
_fife.so:_ZN4FIFE7Console4hideEv
_fife.so:_ZN4FIFE7Console4showEv
_fife.so:_ZN4FIFE7Console5clearEv
_fife.so:_ZN4FIFE7Console6actionERKN3fcn11ActionEventE
_fife.so:_ZN4FIFE7Console6doHideEv
_fife.so:_ZN4FIFE7Console6doShowEv
_fife.so:_ZN4FIFE7Console7executeENSt7__cxx1112basic_stringIcSt11char_traitsIcESaIcEEE
_fife.so:_ZN4FIFE7Console7printlnERKNSt7__cxx1112basic_stringIcSt11char_traitsIcESaIcEEE
_fife.so:_ZN4FIFE7Console8reLayoutEv
_fife.so:_ZN4FIFE7Console9focusLostERKN3fcn5EventE
_fife.so:_ZN4FIFE7Console9setIOFontEPNS_7GuiFontE
_fife.so:_ZN4FIFE7ConsoleC1Ev
_fife.so:_ZN4FIFE7ConsoleC2Ev
_fife.so:_ZN4FIFE7ConsoleD0Ev
_fife.so:_ZN4FIFE7ConsoleD1Ev
_fife.so:_ZN4FIFE7ConsoleD2Ev
_fife.so:_ZN4FIFE7Flanger11setFeedbackEf
_fife.so:_ZN4FIFE7Flanger19setWaveformTriangleEb
_fife.so:_ZN4FIFE7Flanger7setRateEf
_fife.so:_ZN4FIFE7Flanger8setDelayEf
_fife.so:_ZN4FIFE7Flanger8setDepthEf
_fife.so:_ZN4FIFE7Flanger8setPhaseEi
_fife.so:_ZN4FIFE7FlangerC1Ev
_fife.so:_ZN4FIFE7FlangerC2Ev
_fife.so:_ZN4FIFE7GLImage10invalidateEv
_fife.so:_ZN4FIFE7GLImage10setSurfaceEP11SDL_Surface
_fife.so:_ZN4FIFE7GLImage12copySubimageEjjRKNS_9SharedPtrINS_5ImageEEE
_fife.so:_ZN4FIFE7GLImage12resetGlimageEv
_fife.so:_ZN4FIFE7GLImage14useSharedImageERKNS_9SharedPtrINS_5ImageEEERKNS_8RectTypeIiEE
_fife.so:_ZN4FIFE7GLImage14validateSharedEv
_fife.so:_ZN4FIFE7GLImage17forceLoadInternalEv
_fife.so:_ZN4FIFE7GLImage17generateGLTextureEv
_fife.so:_ZN4FIFE7GLImage23generateGLSharedTextureEPKS0_RKNS_8RectTypeIiEE
_fife.so:_ZN4FIFE7GLImage4freeEv
_fife.so:_ZN4FIFE7GLImage4loadEv
_fife.so:_ZN4FIFE7GLImage6renderERKNS_8RectTypeIiEERKNS_9SharedPtrINS_5ImageEEEhPKh
_fife.so:_ZN4FIFE7GLImage6renderERKNS_8RectTypeIiEEhPKh
_fife.so:_ZN4FIFE7GLImage7cleanupEv
_fife.so:_ZN4FIFE7GLImage7renderZERKNS_8RectTypeIiEEfRKNS_9SharedPtrINS_5ImageEEEhPKh
_fife.so:_ZN4FIFE7GLImage7renderZERKNS_8RectTypeIiEEfhPKh
_fife.so:_ZN4FIFE7GLImageC1EP11SDL_Surface
_fife.so:_ZN4FIFE7GLImageC1EPKhjj
_fife.so:_ZN4FIFE7GLImageC1EPNS_15IResourceLoaderE
_fife.so:_ZN4FIFE7GLImageC1ERKNSt7__cxx1112basic_stringIcSt11char_traitsIcESaIcEEEP11SDL_Surface
_fife.so:_ZN4FIFE7GLImageC1ERKNSt7__cxx1112basic_stringIcSt11char_traitsIcESaIcEEEPKhjj
_fife.so:_ZN4FIFE7GLImageC1ERKNSt7__cxx1112basic_stringIcSt11char_traitsIcESaIcEEEPNS_15IResourceLoaderE
_fife.so:_ZN4FIFE7GLImageC2EP11SDL_Surface
_fife.so:_ZN4FIFE7GLImageC2EPKhjj
_fife.so:_ZN4FIFE7GLImageC2EPNS_15IResourceLoaderE
_fife.so:_ZN4FIFE7GLImageC2ERKNSt7__cxx1112basic_stringIcSt11char_traitsIcESaIcEEEP11SDL_Surface
_fife.so:_ZN4FIFE7GLImageC2ERKNSt7__cxx1112basic_stringIcSt11char_traitsIcESaIcEEEPKhjj
_fife.so:_ZN4FIFE7GLImageC2ERKNSt7__cxx1112basic_stringIcSt11char_traitsIcESaIcEEEPNS_15IResourceLoaderE
_fife.so:_ZN4FIFE7GLImageD0Ev
_fife.so:_ZN4FIFE7GLImageD1Ev
_fife.so:_ZN4FIFE7GLImageD2Ev
_fife.so:_ZN4FIFE7GetStemB5cxx11ERKN5boost10filesystem4pathE
_fife.so:_ZN4FIFE7GetStemERKNSt7__cxx1112basic_stringIcSt11char_traitsIcESaIcEEE
_fife.so:_ZN4FIFE7GuiFont10drawStringEPN3fcn8GraphicsERKNSt7__cxx1112basic_stringIcSt11char_traitsIcESaIcEEEii
_fife.so:_ZN4FIFE7GuiFont10getAsImageERKNSt7__cxx1112basic_stringIcSt11char_traitsIcESaIcEEE
_fife.so:_ZN4FIFE7GuiFont10invalidateEv
_fife.so:_ZN4FIFE7GuiFont12setAntiAliasEb
_fife.so:_ZN4FIFE7GuiFont12setBoldStyleEb
_fife.so:_ZN4FIFE7GuiFont13setRowSpacingEi
_fife.so:_ZN4FIFE7GuiFont14setItalicStyleEb
_fife.so:_ZN4FIFE7GuiFont15setGlyphSpacingEi
_fife.so:_ZN4FIFE7GuiFont16splitTextToWidthERKNSt7__cxx1112basic_stringIcSt11char_traitsIcESaIcEEEi
_fife.so:_ZN4FIFE7GuiFont17setUnderlineStyleEb
_fife.so:_ZN4FIFE7GuiFont18setDynamicColoringEb
_fife.so:_ZN4FIFE7GuiFont19drawMultiLineStringEPN3fcn8GraphicsERKNSt7__cxx1112basic_stringIcSt11char_traitsIcESaIcEEEii
_fife.so:_ZN4FIFE7GuiFont19getAsImageMultilineERKNSt7__cxx1112basic_stringIcSt11char_traitsIcESaIcEEE
_fife.so:_ZN4FIFE7GuiFont21setStrikethroughStyleEb
_fife.so:_ZN4FIFE7GuiFont8setColorEhhhh
_fife.so:_ZN4FIFE7GuiFontC1EPNS_5IFontE
_fife.so:_ZN4FIFE7GuiFontC2EPNS_5IFontE
_fife.so:_ZN4FIFE7GuiFontD0Ev
_fife.so:_ZN4FIFE7GuiFontD1Ev
_fife.so:_ZN4FIFE7GuiFontD2Ev
_fife.so:_ZN4FIFE7HexGrid11getVerticesERSt6vectorINS_11PointType3DIdEESaIS3_EERKNS2_IiEE
_fife.so:_ZN4FIFE7HexGrid12isAccessibleERKNS_11PointType3DIiEES4_
_fife.so:_ZN4FIFE7HexGrid15getAdjacentCostERKNS_11PointType3DIiEES4_
_fife.so:_ZN4FIFE7HexGrid16getHeuristicCostERKNS_11PointType3DIiEES4_
_fife.so:_ZN4FIFE7HexGrid16getXZigzagOffsetEd
_fife.so:_ZN4FIFE7HexGrid16toMapCoordinatesERKNS_11PointType3DIdEE
_fife.so:_ZN4FIFE7HexGrid18toLayerCoordinatesERKNS_11PointType3DIdEE
_fife.so:_ZN4FIFE7HexGrid18toMultiCoordinatesERKNS_11PointType3DIiEERKSt6vectorIS2_SaIS2_EEb
_fife.so:_ZN4FIFE7HexGrid20getCoordinatesInLineERKNS_11PointType3DIiEES4_
_fife.so:_ZN4FIFE7HexGrid23toExactLayerCoordinatesERKNS_11PointType3DIdEE
_fife.so:_ZN4FIFE7HexGrid24toLayerCoordinatesHelperERKNS_11PointType3DIdEE
_fife.so:_ZN4FIFE7HexGrid43toLayerCoordinatesFromExactLayerCoordinatesERKNS_11PointType3DIdEE
_fife.so:_ZN4FIFE7HexGrid5cloneEv
_fife.so:_ZN4FIFE7HexGridC1Eb
_fife.so:_ZN4FIFE7HexGridC2Eb
_fife.so:_ZN4FIFE7HexGridD0Ev
_fife.so:_ZN4FIFE7HexGridD1Ev
_fife.so:_ZN4FIFE7HexGridD2Ev
_fife.so:_ZN4FIFE7RawData10readStringB5cxx11Em
_fife.so:_ZN4FIFE7RawData12littleEndianEv
_fife.so:_ZN4FIFE7RawData12read16LittleEv
_fife.so:_ZN4FIFE7RawData12read32LittleEv
_fife.so:_ZN4FIFE7RawData14getDataInBytesEv
_fife.so:_ZN4FIFE7RawData14getDataInLinesB5cxx11Ev
_fife.so:_ZN4FIFE7RawData4readERNSt7__cxx1112basic_stringIcSt11char_traitsIcESaIcEEEi
_fife.so:_ZN4FIFE7RawData5read8Ev
_fife.so:_ZN4FIFE7RawData7getLineERNSt7__cxx1112basic_stringIcSt11char_traitsIcESaIcEEE
_fife.so:_ZN4FIFE7RawData8readIntoEPhm
_fife.so:_ZN4FIFE7RawData8setIndexEj
_fife.so:_ZN4FIFE7RawData9moveIndexEi
_fife.so:_ZN4FIFE7RawData9read16BigEv
_fife.so:_ZN4FIFE7RawData9read32BigEv
_fife.so:_ZN4FIFE7RawDataC1EPNS_13RawDataSourceE
_fife.so:_ZN4FIFE7RawDataC2EPNS_13RawDataSourceE
_fife.so:_ZN4FIFE7RawDataD0Ev
_fife.so:_ZN4FIFE7RawDataD1Ev
_fife.so:_ZN4FIFE7RawDataD2Ev
_fife.so:_ZN4FIFE7Trigger12setTriggeredEv
_fife.so:_ZN4FIFE7Trigger16getAssignedCellsEv
_fife.so:_ZN4FIFE7Trigger17enableForInstanceEPNS_8InstanceE
_fife.so:_ZN4FIFE7Trigger18addTriggerListenerEPNS_16ITriggerListenerE
_fife.so:_ZN4FIFE7Trigger18disableForInstanceEPNS_8InstanceE
_fife.so:_ZN4FIFE7Trigger19addTriggerConditionENS_16TriggerConditionE
_fife.so:_ZN4FIFE7Trigger19getEnabledInstancesEv
_fife.so:_ZN4FIFE7Trigger20getTriggerConditionsEv
_fife.so:_ZN4FIFE7Trigger21enableForAllInstancesEv
_fife.so:_ZN4FIFE7Trigger21removeTriggerListenerEPNS_16ITriggerListenerE
_fife.so:_ZN4FIFE7Trigger22disableForAllInstancesEv
_fife.so:_ZN4FIFE7Trigger22removeTriggerConditionENS_16TriggerConditionE
_fife.so:_ZN4FIFE7Trigger24isEnabledForAllInstancesEv
_fife.so:_ZN4FIFE7Trigger4moveEv
_fife.so:_ZN4FIFE7Trigger5resetEv
_fife.so:_ZN4FIFE7Trigger6assignEPNS_4CellE
_fife.so:_ZN4FIFE7Trigger6assignEPNS_5LayerERKNS_11PointType3DIiEE
_fife.so:_ZN4FIFE7Trigger6attachEPNS_8InstanceE
_fife.so:_ZN4FIFE7Trigger6detachEv
_fife.so:_ZN4FIFE7Trigger6moveToERKNS_11PointType3DIiEES4_
_fife.so:_ZN4FIFE7Trigger6removeEPNS_4CellE
_fife.so:_ZN4FIFE7Trigger6removeEPNS_5LayerERKNS_11PointType3DIiEE
_fife.so:_ZN4FIFE7TriggerC1ERKNSt7__cxx1112basic_stringIcSt11char_traitsIcESaIcEEE
_fife.so:_ZN4FIFE7TriggerC1Ev
_fife.so:_ZN4FIFE7TriggerC2ERKNSt7__cxx1112basic_stringIcSt11char_traitsIcESaIcEEE
_fife.so:_ZN4FIFE7TriggerC2Ev
_fife.so:_ZN4FIFE7TriggerD0Ev
_fife.so:_ZN4FIFE7TriggerD1Ev
_fife.so:_ZN4FIFE7TriggerD2Ev
_fife.so:_ZN4FIFE7ZipNode11removeChildEPS0_
_fife.so:_ZN4FIFE7ZipNode11removeChildERKNSt7__cxx1112basic_stringIcSt11char_traitsIcESaIcEEE
_fife.so:_ZN4FIFE7ZipNode15setZipEntryDataERKNS_12ZipEntryDataE
_fife.so:_ZN4FIFE7ZipNode8addChildERKNSt7__cxx1112basic_stringIcSt11char_traitsIcESaIcEEE
_fife.so:_ZN4FIFE7ZipNodeC1ERKNSt7__cxx1112basic_stringIcSt11char_traitsIcESaIcEEEPS0_
_fife.so:_ZN4FIFE7ZipNodeC2ERKNSt7__cxx1112basic_stringIcSt11char_traitsIcESaIcEEEPS0_
_fife.so:_ZN4FIFE7ZipNodeD1Ev
_fife.so:_ZN4FIFE7ZipNodeD2Ev
_fife.so:_ZN4FIFE7ZipTree7addNodeERKNSt7__cxx1112basic_stringIcSt11char_traitsIcESaIcEEE
_fife.so:_ZN4FIFE7ZipTreeC1Ev
_fife.so:_ZN4FIFE7ZipTreeC2Ev
_fife.so:_ZN4FIFE7ZipTreeD1Ev
_fife.so:_ZN4FIFE7ZipTreeD2Ev
_fife.so:_ZN4FIFE8CellGrid11orientationERKNS_11PointType3DIdEES4_S4_
_fife.so:_ZN4FIFE8CellGrid12ptInTriangleERKNS_11PointType3DIdEES4_S4_S4_
_fife.so:_ZN4FIFE8CellGrid14updateMatricesEv
_fife.so:_ZN4FIFE8CellGrid16toMapCoordinatesERKNS_11PointType3DIiEE
_fife.so:_ZN4FIFE8CellGrid24getAccessibleCoordinatesERKNS_11PointType3DIiEERSt6vectorIS2_SaIS2_EE
_fife.so:_ZN4FIFE8CellGridC1Ev
_fife.so:_ZN4FIFE8CellGridC2Ev
_fife.so:_ZN4FIFE8CellGridD0Ev
_fife.so:_ZN4FIFE8CellGridD1Ev
_fife.so:_ZN4FIFE8CellGridD2Ev
_fife.so:_ZN4FIFE8FontBase10getAsImageERKNSt7__cxx1112basic_stringIcSt11char_traitsIcESaIcEEE
_fife.so:_ZN4FIFE8FontBase10invalidateEv
_fife.so:_ZN4FIFE8FontBase12setAntiAliasEb
_fife.so:_ZN4FIFE8FontBase12setBoldStyleEb
_fife.so:_ZN4FIFE8FontBase13setRowSpacingEi
_fife.so:_ZN4FIFE8FontBase14setItalicStyleEb
_fife.so:_ZN4FIFE8FontBase15setGlyphSpacingEi
_fife.so:_ZN4FIFE8FontBase16splitTextToWidthERKNSt7__cxx1112basic_stringIcSt11char_traitsIcESaIcEEEi
_fife.so:_ZN4FIFE8FontBase17setUnderlineStyleEb
_fife.so:_ZN4FIFE8FontBase18setDynamicColoringEb
_fife.so:_ZN4FIFE8FontBase19getAsImageMultilineERKNSt7__cxx1112basic_stringIcSt11char_traitsIcESaIcEEE
_fife.so:_ZN4FIFE8FontBase21setStrikethroughStyleEb
_fife.so:_ZN4FIFE8FontBaseC1Ev
_fife.so:_ZN4FIFE8FontBaseC2Ev
_fife.so:_ZN4FIFE8GuiImage22convertToDisplayFormatEv
_fife.so:_ZN4FIFE8GuiImage4freeEv
_fife.so:_ZN4FIFE8GuiImage8getPixelEii
_fife.so:_ZN4FIFE8GuiImage8putPixelEiiRKN3fcn5ColorE
_fife.so:_ZN4FIFE8GuiImageC1ENS_9SharedPtrINS_5ImageEEE
_fife.so:_ZN4FIFE8GuiImageC1Ev
_fife.so:_ZN4FIFE8GuiImageC2ENS_9SharedPtrINS_5ImageEEE
_fife.so:_ZN4FIFE8GuiImageC2Ev
_fife.so:_ZN4FIFE8GuiImageD0Ev
_fife.so:_ZN4FIFE8GuiImageD1Ev
_fife.so:_ZN4FIFE8GuiImageD2Ev
_fife.so:_ZN4FIFE8Instance10getRuntimeEv
_fife.so:_ZN4FIFE8Instance11isMultiCellEv
_fife.so:_ZN4FIFE8Instance11setBlockingEb
_fife.so:_ZN4FIFE8Instance11setLocationERKNS_8LocationE
_fife.so:_ZN4FIFE8Instance11setRotationEi
_fife.so:_ZN4FIFE8Instance12cancelActionEv
_fife.so:_ZN4FIFE8Instance13getChangeInfoEv
_fife.so:_ZN4FIFE8Instance13isMultiObjectEv
_fife.so:_ZN4FIFE8Instance13isSpecialCostEv
_fife.so:_ZN4FIFE8Instance14cancelMovementEj
_fife.so:_ZN4FIFE8Instance14finalizeActionEv
_fife.so:_ZN4FIFE8Instance14getLocationRefEv
_fife.so:_ZN4FIFE8Instance14isColorOverlayERKNSt7__cxx1112basic_stringIcSt11char_traitsIcESaIcEEE
_fife.so:_ZN4FIFE8Instance14isSpecialSpeedEv
_fife.so:_ZN4FIFE8Instance15addColorOverlayERKNSt7__cxx1112basic_stringIcSt11char_traitsIcESaIcEEEjRKNS_13OverlayColorsE
_fife.so:_ZN4FIFE8Instance15addColorOverlayERKNSt7__cxx1112basic_stringIcSt11char_traitsIcESaIcEEEjiRKNS_13OverlayColorsE
_fife.so:_ZN4FIFE8Instance15createOwnObjectEv
_fife.so:_ZN4FIFE8Instance15getActionVisualERKNSt7__cxx1112basic_stringIcSt11char_traitsIcESaIcEEEb
_fife.so:_ZN4FIFE8Instance15getColorOverlayERKNSt7__cxx1112basic_stringIcSt11char_traitsIcESaIcEEEj
_fife.so:_ZN4FIFE8Instance15getColorOverlayERKNSt7__cxx1112basic_stringIcSt11char_traitsIcESaIcEEEji
_fife.so:_ZN4FIFE8Instance15processMovementEv
_fife.so:_ZN4FIFE8Instance16InstanceActivity6updateERS0_
_fife.so:_ZN4FIFE8Instance16InstanceActivityC1ERS0_
_fife.so:_ZN4FIFE8Instance16InstanceActivityC2ERS0_
_fife.so:_ZN4FIFE8Instance16InstanceActivityD1Ev
_fife.so:_ZN4FIFE8Instance16InstanceActivityD2Ev
_fife.so:_ZN4FIFE8Instance16bindTimeProviderEv
_fife.so:_ZN4FIFE8Instance16getActionRuntimeEv
_fife.so:_ZN4FIFE8Instance16initializeActionERKNSt7__cxx1112basic_stringIcSt11char_traitsIcESaIcEEE
_fife.so:_ZN4FIFE8Instance16prepareForUpdateEv
_fife.so:_ZN4FIFE8Instance16setActionRuntimeEj
_fife.so:_ZN4FIFE8Instance17addActionListenerEPNS_22InstanceActionListenerE
_fife.so:_ZN4FIFE8Instance17addChangeListenerEPNS_22InstanceChangeListenerE
_fife.so:_ZN4FIFE8Instance17addDeleteListenerEPNS_22InstanceDeleteListenerE
_fife.so:_ZN4FIFE8Instance17callOnActionFrameEPNS_6ActionEi
_fife.so:_ZN4FIFE8Instance17convertToOverlaysERKNSt7__cxx1112basic_stringIcSt11char_traitsIcESaIcEEEb
_fife.so:_ZN4FIFE8Instance17getFacingLocationEv
_fife.so:_ZN4FIFE8Instance17getMultiInstancesEv
_fife.so:_ZN4FIFE8Instance17getOldLocationRefEv
_fife.so:_ZN4FIFE8Instance17getTimeMultiplierEv
_fife.so:_ZN4FIFE8Instance17initializeChangesEv
_fife.so:_ZN4FIFE8Instance17onInstanceDeletedEPS0_
_fife.so:_ZN4FIFE8Instance17setFacingLocationERKNS_8LocationE
_fife.so:_ZN4FIFE8Instance17setTimeMultiplierEf
_fife.so:_ZN4FIFE8Instance18isAnimationOverlayERKNSt7__cxx1112basic_stringIcSt11char_traitsIcESaIcEEE
_fife.so:_ZN4FIFE8Instance18removeColorOverlayERKNSt7__cxx1112basic_stringIcSt11char_traitsIcESaIcEEEi
_fife.so:_ZN4FIFE8Instance18removeColorOverlayERKNSt7__cxx1112basic_stringIcSt11char_traitsIcESaIcEEEii
_fife.so:_ZN4FIFE8Instance19addAnimationOverlayERKNSt7__cxx1112basic_stringIcSt11char_traitsIcESaIcEEEjiRKNS_9SharedPtrINS_9AnimationEEE
_fife.so:_ZN4FIFE8Instance19callOnVisibleChangeEv
_fife.so:_ZN4FIFE8Instance19getAnimationOverlayERKNSt7__cxx1112basic_stringIcSt11char_traitsIcESaIcEEEi
_fife.so:_ZN4FIFE8Instance19setOverrideBlockingEb
_fife.so:_ZN4FIFE8Instance20getCellStackPositionEv
_fife.so:_ZN4FIFE8Instance20getMainMultiInstanceEv
_fife.so:_ZN4FIFE8Instance20isStaticColorOverlayEv
_fife.so:_ZN4FIFE8Instance20removeActionListenerEPNS_22InstanceActionListenerE
_fife.so:_ZN4FIFE8Instance20removeChangeListenerEPNS_22InstanceChangeListenerE
_fife.so:_ZN4FIFE8Instance20removeDeleteListenerEPNS_22InstanceDeleteListenerE
_fife.so:_ZN4FIFE8Instance20setCellStackPositionEh
_fife.so:_ZN4FIFE8Instance20setMainMultiInstanceEPS0_
_fife.so:_ZN4FIFE8Instance20updateMultiInstancesEv
_fife.so:_ZN4FIFE8Instance21addStaticColorOverlayEjRKNS_13OverlayColorsE
_fife.so:_ZN4FIFE8Instance21getStaticColorOverlayEi
_fife.so:_ZN4FIFE8Instance22getTotalTimeMultiplierEv
_fife.so:_ZN4FIFE8Instance22removeAnimationOverlayERKNSt7__cxx1112basic_stringIcSt11char_traitsIcESaIcEEEji
_fife.so:_ZN4FIFE8Instance24callOnTransparencyChangeEv
_fife.so:_ZN4FIFE8Instance24removeStaticColorOverlayEi
_fife.so:_ZN4FIFE8Instance25callOnStackPositionChangeEv
_fife.so:_ZN4FIFE8Instance3sayERKNSt7__cxx1112basic_stringIcSt11char_traitsIcESaIcEEEj
_fife.so:_ZN4FIFE8Instance4moveERKNSt7__cxx1112basic_stringIcSt11char_traitsIcESaIcEEERKNS_8LocationEdS8_
_fife.so:_ZN4FIFE8Instance5getIdB5cxx11Ev
_fife.so:_ZN4FIFE8Instance5setIdERKNSt7__cxx1112basic_stringIcSt11char_traitsIcESaIcEEE
_fife.so:_ZN4FIFE8Instance6followERKNSt7__cxx1112basic_stringIcSt11char_traitsIcESaIcEEEPNS_5RouteEd
_fife.so:_ZN4FIFE8Instance6followERKNSt7__cxx1112basic_stringIcSt11char_traitsIcESaIcEEEPS0_d
_fife.so:_ZN4FIFE8Instance6updateEv
_fife.so:_ZN4FIFE8Instance7actOnceERKNSt7__cxx1112basic_stringIcSt11char_traitsIcESaIcEEE
_fife.so:_ZN4FIFE8Instance7actOnceERKNSt7__cxx1112basic_stringIcSt11char_traitsIcESaIcEEERKNS_8LocationE
_fife.so:_ZN4FIFE8Instance7actOnceERKNSt7__cxx1112basic_stringIcSt11char_traitsIcESaIcEEEi
_fife.so:_ZN4FIFE8Instance7getCostEv
_fife.so:_ZN4FIFE8Instance7refreshEv
_fife.so:_ZN4FIFE8Instance7setCostERKNSt7__cxx1112basic_stringIcSt11char_traitsIcESaIcEEEd
_fife.so:_ZN4FIFE8Instance8getRouteEv
_fife.so:_ZN4FIFE8Instance8getSpeedEv
_fife.so:_ZN4FIFE8Instance9actRepeatERKNSt7__cxx1112basic_stringIcSt11char_traitsIcESaIcEEE
_fife.so:_ZN4FIFE8Instance9actRepeatERKNSt7__cxx1112basic_stringIcSt11char_traitsIcESaIcEEERKNS_8LocationE
_fife.so:_ZN4FIFE8Instance9actRepeatERKNSt7__cxx1112basic_stringIcSt11char_traitsIcESaIcEEEi
_fife.so:_ZN4FIFE8Instance9getCostIdB5cxx11Ev
_fife.so:_ZN4FIFE8Instance9getObjectEv
_fife.so:_ZN4FIFE8Instance9resetCostEv
_fife.so:_ZN4FIFE8InstanceC1EPNS_6ObjectERKNS_8LocationERKNSt7__cxx1112basic_stringIcSt11char_traitsIcESaIcEEE
_fife.so:_ZN4FIFE8InstanceC2EPNS_6ObjectERKNS_8LocationERKNSt7__cxx1112basic_stringIcSt11char_traitsIcESaIcEEE
_fife.so:_ZN4FIFE8InstanceD0Ev
_fife.so:_ZN4FIFE8InstanceD1Ev
_fife.so:_ZN4FIFE8InstanceD2Ev
_fife.so:_ZN4FIFE8Joystick14openControllerEv
_fife.so:_ZN4FIFE8Joystick14setDeviceIndexEi
_fife.so:_ZN4FIFE8Joystick15closeControllerEv
_fife.so:_ZN4FIFE8Joystick4openEv
_fife.so:_ZN4FIFE8Joystick5closeEv
_fife.so:_ZN4FIFE8Joystick7getGuidB5cxx11Ev
_fife.so:_ZN4FIFE8Joystick7getNameB5cxx11Ev
_fife.so:_ZN4FIFE8JoystickC1Eii
_fife.so:_ZN4FIFE8JoystickC2Eii
_fife.so:_ZN4FIFE8JoystickD1Ev
_fife.so:_ZN4FIFE8JoystickD2Ev
_fife.so:_ZN4FIFE8Location17setMapCoordinatesERKNS_11PointType3DIdEE
_fife.so:_ZN4FIFE8Location19setLayerCoordinatesERKNS_11PointType3DIiEE
_fife.so:_ZN4FIFE8Location24setExactLayerCoordinatesERKNS_11PointType3DIdEE
_fife.so:_ZN4FIFE8Location27getExactLayerCoordinatesRefEv
_fife.so:_ZN4FIFE8Location5resetEv
_fife.so:_ZN4FIFE8Location8setLayerEPNS_5LayerE
_fife.so:_ZN4FIFE8LocationC1EPNS_5LayerE
_fife.so:_ZN4FIFE8LocationC1ERKS0_
_fife.so:_ZN4FIFE8LocationC1Ev
_fife.so:_ZN4FIFE8LocationC2EPNS_5LayerE
_fife.so:_ZN4FIFE8LocationC2ERKS0_
_fife.so:_ZN4FIFE8LocationC2Ev
_fife.so:_ZN4FIFE8LocationD1Ev
_fife.so:_ZN4FIFE8LocationD2Ev
_fife.so:_ZN4FIFE8LocationaSERKS0_
_fife.so:_ZN4FIFE8MapSaver13setAtlasSaverERKNS_9SharedPtrINS_11IAtlasSaverEEE
_fife.so:_ZN4FIFE8MapSaver14setObjectSaverERKNS_9SharedPtrINS_12IObjectSaverEEE
_fife.so:_ZN4FIFE8MapSaver17setAnimationSaverERKNS_9SharedPtrINS_15IAnimationSaverEEE
_fife.so:_ZN4FIFE8MapSaver4saveERKNS_3MapERKNSt7__cxx1112basic_stringIcSt11char_traitsIcESaIcEEERKSt6vectorIS9_SaIS9_EE
_fife.so:_ZN4FIFE8MapSaverC1Ev
_fife.so:_ZN4FIFE8MapSaverC2Ev
_fife.so:_ZN4FIFE8MapSaverD0Ev
_fife.so:_ZN4FIFE8MapSaverD1Ev
_fife.so:_ZN4FIFE8MapSaverD2Ev
_fife.so:_ZN4FIFE8SDLImage10getTextureEv
_fife.so:_ZN4FIFE8SDLImage10invalidateEv
_fife.so:_ZN4FIFE8SDLImage10setSurfaceEP11SDL_Surface
_fife.so:_ZN4FIFE8SDLImage10setTextureEP11SDL_Texture
_fife.so:_ZN4FIFE8SDLImage13resetSdlimageEv
_fife.so:_ZN4FIFE8SDLImage14useSharedImageERKNS_9SharedPtrINS_5ImageEEERKNS_8RectTypeIiEE
_fife.so:_ZN4FIFE8SDLImage14validateSharedEv
_fife.so:_ZN4FIFE8SDLImage17forceLoadInternalEv
_fife.so:_ZN4FIFE8SDLImage4freeEv
_fife.so:_ZN4FIFE8SDLImage4loadEv
_fife.so:_ZN4FIFE8SDLImage6renderERKNS_8RectTypeIiEEhPKh
_fife.so:_ZN4FIFE8SDLImage7getSizeEv
_fife.so:_ZN4FIFE8SDLImageC1EP11SDL_Surface
_fife.so:_ZN4FIFE8SDLImageC1EPKhjj
_fife.so:_ZN4FIFE8SDLImageC1EPNS_15IResourceLoaderE
_fife.so:_ZN4FIFE8SDLImageC1ERKNSt7__cxx1112basic_stringIcSt11char_traitsIcESaIcEEEP11SDL_Surface
_fife.so:_ZN4FIFE8SDLImageC1ERKNSt7__cxx1112basic_stringIcSt11char_traitsIcESaIcEEEPKhjj
_fife.so:_ZN4FIFE8SDLImageC1ERKNSt7__cxx1112basic_stringIcSt11char_traitsIcESaIcEEEPNS_15IResourceLoaderE
_fife.so:_ZN4FIFE8SDLImageC2EP11SDL_Surface
_fife.so:_ZN4FIFE8SDLImageC2EPKhjj
_fife.so:_ZN4FIFE8SDLImageC2EPNS_15IResourceLoaderE
_fife.so:_ZN4FIFE8SDLImageC2ERKNSt7__cxx1112basic_stringIcSt11char_traitsIcESaIcEEEP11SDL_Surface
_fife.so:_ZN4FIFE8SDLImageC2ERKNSt7__cxx1112basic_stringIcSt11char_traitsIcESaIcEEEPKhjj
_fife.so:_ZN4FIFE8SDLImageC2ERKNSt7__cxx1112basic_stringIcSt11char_traitsIcESaIcEEEPNS_15IResourceLoaderE
_fife.so:_ZN4FIFE8SDLImageD0Ev
_fife.so:_ZN4FIFE8SDLImageD1Ev
_fife.so:_ZN4FIFE8SDLImageD2Ev
_fife.so:_ZN4FIFE8tokenizeERKNSt7__cxx1112basic_stringIcSt11char_traitsIcESaIcEEEcc
_fife.so:_ZN4FIFE9Animation10invalidateEv
_fife.so:_ZN4FIFE9Animation12setDirectionEj
_fife.so:_ZN4FIFE9Animation13getFrameIndexEj
_fife.so:_ZN4FIFE9Animation19getFrameByTimestampEj
_fife.so:_ZN4FIFE9Animation25createUniqueAnimationNameB5cxx11Ev
_fife.so:_ZN4FIFE9Animation4freeEv
_fife.so:_ZN4FIFE9Animation4loadEv
_fife.so:_ZN4FIFE9Animation7getSizeEv
_fife.so:_ZN4FIFE9Animation8addFrameENS_9SharedPtrINS_5ImageEEEj
_fife.so:_ZN4FIFE9Animation8getFrameEi
_fife.so:_ZN4FIFE9Animation9getFramesEv
_fife.so:_ZN4FIFE9AnimationC1EPNS_15IResourceLoaderE
_fife.so:_ZN4FIFE9AnimationC1ERKNSt7__cxx1112basic_stringIcSt11char_traitsIcESaIcEEEPNS_15IResourceLoaderE
_fife.so:_ZN4FIFE9AnimationC2EPNS_15IResourceLoaderE
_fife.so:_ZN4FIFE9AnimationC2ERKNSt7__cxx1112basic_stringIcSt11char_traitsIcESaIcEEEPNS_15IResourceLoaderE
_fife.so:_ZN4FIFE9AnimationD0Ev
_fife.so:_ZN4FIFE9AnimationD1Ev
_fife.so:_ZN4FIFE9AnimationD2Ev
_fife.so:_ZN4FIFE9AtlasBook11extendCacheEjj
_fife.so:_ZN4FIFE9AtlasBook6shrinkEb
_fife.so:_ZN4FIFE9AtlasBook8getBlockEjj
_fife.so:_ZN4FIFE9AtlasPage6shrinkEb
_fife.so:_ZN4FIFE9AtlasPage8getBlockEjj
_fife.so:_ZN4FIFE9CellCache10createCellERKNS_11PointType3DIiEE
_fife.so:_ZN4FIFE9CellCache10createZoneEv
_fife.so:_ZN4FIFE9CellCache10existsAreaERKNSt7__cxx1112basic_stringIcSt11char_traitsIcESaIcEEE
_fife.so:_ZN4FIFE9CellCache10existsCostERKNSt7__cxx1112basic_stringIcSt11char_traitsIcESaIcEEE
_fife.so:_ZN4FIFE9CellCache10mergeZonesEPNS_4ZoneES2_
_fife.so:_ZN4FIFE9CellCache10removeAreaERKNSt7__cxx1112basic_stringIcSt11char_traitsIcESaIcEEE
_fife.so:_ZN4FIFE9CellCache10removeCellEPNS_4CellE
_fife.so:_ZN4FIFE9CellCache10removeZoneEPNS_4ZoneE
_fife.so:_ZN4FIFE9CellCache11createCellsEv
_fife.so:_ZN4FIFE9CellCache11forceUpdateEv
_fife.so:_ZN4FIFE9CellCache12getAreaCellsERKNSt7__cxx1112basic_stringIcSt11char_traitsIcESaIcEEE
_fife.so:_ZN4FIFE9CellCache12getCellAreasB5cxx11EPNS_4CellE
_fife.so:_ZN4FIFE9CellCache12getCellCostsB5cxx11EPNS_4CellE
_fife.so:_ZN4FIFE9CellCache12getCostCellsERKNSt7__cxx1112basic_stringIcSt11char_traitsIcESaIcEEE
_fife.so:_ZN4FIFE9CellCache12isCellInAreaERKNSt7__cxx1112basic_stringIcSt11char_traitsIcESaIcEEEPNS_4CellE
_fife.so:_ZN4FIFE9CellCache12isStaticSizeEv
_fife.so:_ZN4FIFE9CellCache12registerCostERKNSt7__cxx1112basic_stringIcSt11char_traitsIcESaIcEEEd
_fife.so:_ZN4FIFE9CellCache13addCellToAreaERKNSt7__cxx1112basic_stringIcSt11char_traitsIcESaIcEEEPNS_4CellE
_fife.so:_ZN4FIFE9CellCache13addCellToCostERKNSt7__cxx1112basic_stringIcSt11char_traitsIcESaIcEEEPNS_4CellE
_fife.so:_ZN4FIFE9CellCache13addNarrowCellEPNS_4CellE
_fife.so:_ZN4FIFE9CellCache13addTransitionEPNS_4CellE
_fife.so:_ZN4FIFE9CellCache13isDefaultCostEPNS_4CellE
_fife.so:_ZN4FIFE9CellCache13setSizeUpdateEb
_fife.so:_ZN4FIFE9CellCache13setStaticSizeEb
_fife.so:_ZN4FIFE9CellCache14addCellsToAreaERKNSt7__cxx1112basic_stringIcSt11char_traitsIcESaIcEEERKSt6vectorIPNS_4CellESaISB_EE
_fife.so:_ZN4FIFE9CellCache14addCellsToCostERKNSt7__cxx1112basic_stringIcSt11char_traitsIcESaIcEEERKSt6vectorIPNS_4CellESaISB_EE
_fife.so:_ZN4FIFE9CellCache14getCellsInLineERKNS_11PointType3DIiEES4_b
_fife.so:_ZN4FIFE9CellCache14getCellsInRectERKNS_8RectTypeIiEE
_fife.so:_ZN4FIFE9CellCache14getNarrowCellsEv
_fife.so:_ZN4FIFE9CellCache14isDefaultSpeedEPNS_4CellE
_fife.so:_ZN4FIFE9CellCache14unregisterCostERKNSt7__cxx1112basic_stringIcSt11char_traitsIcESaIcEEE
_fife.so:_ZN4FIFE9CellCache15getAdjacentCostERKNS_11PointType3DIiEES4_
_fife.so:_ZN4FIFE9CellCache15getAdjacentCostERKNS_11PointType3DIiEES4_RKNSt7__cxx1112basic_stringIcSt11char_traitsIcESaIcEEE
_fife.so:_ZN4FIFE9CellCache15getMaxNeighborZEv
_fife.so:_ZN4FIFE9CellCache15setMaxNeighborZEi
_fife.so:_ZN4FIFE9CellCache16getCellsInCircleERKNS_11PointType3DIiEEt
_fife.so:_ZN4FIFE9CellCache16removeNarrowCellEPNS_4CellE
_fife.so:_ZN4FIFE9CellCache16removeTransitionEPNS_4CellE
_fife.so:_ZN4FIFE9CellCache16resetNarrowCellsEv
_fife.so:_ZN4FIFE9CellCache17existsCostForCellERKNSt7__cxx1112basic_stringIcSt11char_traitsIcESaIcEEEPNS_4CellE
_fife.so:_ZN4FIFE9CellCache17getCostMultiplierEPNS_4CellE
_fife.so:_ZN4FIFE9CellCache17setBlockingUpdateEb
_fife.so:_ZN4FIFE9CellCache17setCostMultiplierEPNS_4CellEd
_fife.so:_ZN4FIFE9CellCache18getSpeedMultiplierEPNS_4CellE
_fife.so:_ZN4FIFE9CellCache18getTransitionCellsEPNS_5LayerE
_fife.so:_ZN4FIFE9CellCache18removeCellFromAreaEPNS_4CellE
_fife.so:_ZN4FIFE9CellCache18removeCellFromAreaERKNSt7__cxx1112basic_stringIcSt11char_traitsIcESaIcEEEPNS_4CellE
_fife.so:_ZN4FIFE9CellCache18removeCellFromCostEPNS_4CellE
_fife.so:_ZN4FIFE9CellCache18removeCellFromCostERKNSt7__cxx1112basic_stringIcSt11char_traitsIcESaIcEEEPNS_4CellE
_fife.so:_ZN4FIFE9CellCache18setSpeedMultiplierEPNS_4CellEd
_fife.so:_ZN4FIFE9CellCache18unregisterAllCostsEv
_fife.so:_ZN4FIFE9CellCache19isSearchNarrowCellsEv
_fife.so:_ZN4FIFE9CellCache19removeCellsFromAreaERKNSt7__cxx1112basic_stringIcSt11char_traitsIcESaIcEEERKSt6vectorIPNS_4CellESaISB_EE
_fife.so:_ZN4FIFE9CellCache19removeCellsFromCostERKNSt7__cxx1112basic_stringIcSt11char_traitsIcESaIcEEERKSt6vectorIPNS_4CellESaISB_EE
_fife.so:_ZN4FIFE9CellCache19resetCostMultiplierEPNS_4CellE
_fife.so:_ZN4FIFE9CellCache20addInteractOnRuntimeEPNS_5LayerE
_fife.so:_ZN4FIFE9CellCache20calculateCurrentSizeEv
_fife.so:_ZN4FIFE9CellCache20resetSpeedMultiplierEPNS_4CellE
_fife.so:_ZN4FIFE9CellCache20setSearchNarrowCellsEb
_fife.so:_ZN4FIFE9CellCache22getBlockingCellsInRectERKNS_8RectTypeIiEE
_fife.so:_ZN4FIFE9CellCache22getCellSpeedMultiplierERKNS_11PointType3DIiEERd
_fife.so:_ZN4FIFE9CellCache23getCellsInCircleSegmentERKNS_11PointType3DIiEEtii
_fife.so:_ZN4FIFE9CellCache23removeInteractOnRuntimeEPNS_5LayerE
_fife.so:_ZN4FIFE9CellCache24getDefaultCostMultiplierEv
_fife.so:_ZN4FIFE9CellCache24setDefaultCostMultiplierEd
_fife.so:_ZN4FIFE9CellCache25getDefaultSpeedMultiplierEv
_fife.so:_ZN4FIFE9CellCache25setDefaultSpeedMultiplierEd
_fife.so:_ZN4FIFE9CellCache26getCellCacheChangeListenerEv
_fife.so:_ZN4FIFE9CellCache5resetEv
_fife.so:_ZN4FIFE9CellCache6resizeERKNS_8RectTypeIiEE
_fife.so:_ZN4FIFE9CellCache6resizeEv
_fife.so:_ZN4FIFE9CellCache6updateEv
_fife.so:_ZN4FIFE9CellCache7addCellEPNS_4CellE
_fife.so:_ZN4FIFE9CellCache7getCellERKNS_11PointType3DIiEE
_fife.so:_ZN4FIFE9CellCache7getCostERKNSt7__cxx1112basic_stringIcSt11char_traitsIcESaIcEEE
_fife.so:_ZN4FIFE9CellCache7getSizeEv
_fife.so:_ZN4FIFE9CellCache7getZoneEj
_fife.so:_ZN4FIFE9CellCache7setSizeERKNS_8RectTypeIiEE
_fife.so:_ZN4FIFE9CellCache8getAreasB5cxx11Ev
_fife.so:_ZN4FIFE9CellCache8getCellsEv
_fife.so:_ZN4FIFE9CellCache8getCostsB5cxx11Ev
_fife.so:_ZN4FIFE9CellCache8getLayerEv
_fife.so:_ZN4FIFE9CellCache8getWidthEv
_fife.so:_ZN4FIFE9CellCache8getZonesEv
_fife.so:_ZN4FIFE9CellCache9getHeightEv
_fife.so:_ZN4FIFE9CellCache9splitZoneEPNS_4CellE
_fife.so:_ZN4FIFE9CellCacheC1EPNS_5LayerE
_fife.so:_ZN4FIFE9CellCacheC2EPNS_5LayerE
_fife.so:_ZN4FIFE9CellCacheD0Ev
_fife.so:_ZN4FIFE9CellCacheD1Ev
_fife.so:_ZN4FIFE9CellCacheD2Ev
_fife.so:_ZN4FIFE9EaxReverb10loadPresetERK22EFXEAXREVERBPROPERTIES
_fife.so:_ZN4FIFE9EaxReverb10setDensityEf
_fife.so:_ZN4FIFE9EaxReverb11setEchoTimeEf
_fife.so:_ZN4FIFE9EaxReverb12setDecayTimeEf
_fife.so:_ZN4FIFE9EaxReverb12setDiffusionEf
_fife.so:_ZN4FIFE9EaxReverb12setEchoDepthEf
_fife.so:_ZN4FIFE9EaxReverb14setHfReferenceEf
_fife.so:_ZN4FIFE9EaxReverb14setLfReferenceEf
_fife.so:_ZN4FIFE9EaxReverb15setDecayHfLimitEb
_fife.so:_ZN4FIFE9EaxReverb15setDecayHfRatioEf
_fife.so:_ZN4FIFE9EaxReverb15setDecayLfRatioEf
_fife.so:_ZN4FIFE9EaxReverb16setLateReverbPanERKNS_11PointType3DIdEE
_fife.so:_ZN4FIFE9EaxReverb17setLateReverbGainEf
_fife.so:_ZN4FIFE9EaxReverb17setModulationTimeEf
_fife.so:_ZN4FIFE9EaxReverb17setReflectionsPanERKNS_11PointType3DIdEE
_fife.so:_ZN4FIFE9EaxReverb18setLateReverbDelayEf
_fife.so:_ZN4FIFE9EaxReverb18setModulationDepthEf
_fife.so:_ZN4FIFE9EaxReverb18setReflectionsGainEf
_fife.so:_ZN4FIFE9EaxReverb19setReflectionsDelayEf
_fife.so:_ZN4FIFE9EaxReverb20setRoomRolloffFactorEf
_fife.so:_ZN4FIFE9EaxReverb22setAirAbsorptionGainHfEf
_fife.so:_ZN4FIFE9EaxReverb7setGainEf
_fife.so:_ZN4FIFE9EaxReverb9setGainHfEf
_fife.so:_ZN4FIFE9EaxReverb9setGainLfEf
_fife.so:_ZN4FIFE9EaxReverbC1Ev
_fife.so:_ZN4FIFE9EaxReverbC2Ev
_fife.so:_ZN4FIFE9Equalizer10setLowGainEf
_fife.so:_ZN4FIFE9Equalizer11setHighGainEf
_fife.so:_ZN4FIFE9Equalizer11setMid1GainEf
_fife.so:_ZN4FIFE9Equalizer11setMid2GainEf
_fife.so:_ZN4FIFE9Equalizer12setLowCutoffEf
_fife.so:_ZN4FIFE9Equalizer12setMid1WidthEf
_fife.so:_ZN4FIFE9Equalizer12setMid2WidthEf
_fife.so:_ZN4FIFE9Equalizer13setHighCutoffEf
_fife.so:_ZN4FIFE9Equalizer13setMid1CenterEf
_fife.so:_ZN4FIFE9Equalizer13setMid2CenterEf
_fife.so:_ZN4FIFE9EqualizerC1Ev
_fife.so:_ZN4FIFE9EqualizerC2Ev
_fife.so:_ZN4FIFE9Exception6updateEv
_fife.so:_ZN4FIFE9ExceptionC1ERKNSt7__cxx1112basic_stringIcSt11char_traitsIcESaIcEEE
_fife.so:_ZN4FIFE9ExceptionC2ERKNSt7__cxx1112basic_stringIcSt11char_traitsIcESaIcEEE
_fife.so:_ZN4FIFE9ExceptionD0Ev
_fife.so:_ZN4FIFE9ExceptionD1Ev
_fife.so:_ZN4FIFE9ExceptionD2Ev
_fife.so:_ZN4FIFE9FifeClass7m_curidE
_fife.so:_ZN4FIFE9IResource11m_curhandleE
_fife.so:_ZN4FIFE9MapLoader14getAtlasLoaderEv
_fife.so:_ZN4FIFE9MapLoader14loadImportFileERKNSt7__cxx1112basic_stringIcSt11char_traitsIcESaIcEEES8_
_fife.so:_ZN4FIFE9MapLoader14setAtlasLoaderERKNS_9SharedPtrINS_12IAtlasLoaderEEE
_fife.so:_ZN4FIFE9MapLoader15getObjectLoaderEv
_fife.so:_ZN4FIFE9MapLoader15setObjectLoaderERKNS_9SharedPtrINS_13IObjectLoaderEEE
_fife.so:_ZN4FIFE9MapLoader18getAnimationLoaderEv
_fife.so:_ZN4FIFE9MapLoader18setAnimationLoaderERKNS_9SharedPtrINS_16IAnimationLoaderEEE
_fife.so:_ZN4FIFE9MapLoader19loadImportDirectoryERKNSt7__cxx1112basic_stringIcSt11char_traitsIcESaIcEEE
_fife.so:_ZN4FIFE9MapLoader22addPercentDoneListenerEPNS_19PercentDoneListenerE
_fife.so:_ZN4FIFE9MapLoader4loadERKNSt7__cxx1112basic_stringIcSt11char_traitsIcESaIcEEE
_fife.so:_ZN4FIFE9MapLoaderC1EPNS_5ModelEPNS_3VFSEPNS_12ImageManagerEPNS_13RenderBackendE
_fife.so:_ZN4FIFE9MapLoaderC2EPNS_5ModelEPNS_3VFSEPNS_12ImageManagerEPNS_13RenderBackendE
_fife.so:_ZN4FIFE9MapLoaderD0Ev
_fife.so:_ZN4FIFE9MapLoaderD1Ev
_fife.so:_ZN4FIFE9MapLoaderD2Ev
_fife.so:_ZN4FIFE9OggLoader4loadEPNS_9IResourceE
_fife.so:_ZN4FIFE9SoundClip10setDecoderEPNS_12SoundDecoderE
_fife.so:_ZN4FIFE9SoundClip12adobtDecoderEPNS_12SoundDecoderE
_fife.so:_ZN4FIFE9SoundClip12endStreamingEj
_fife.so:_ZN4FIFE9SoundClip12setStreamPosEjNS_17SoundPositionTypeEf
_fife.so:_ZN4FIFE9SoundClip13acquireStreamEj
_fife.so:_ZN4FIFE9SoundClip13quitStreamingEj
_fife.so:_ZN4FIFE9SoundClip14beginStreamingEv
_fife.so:_ZN4FIFE9SoundClip20createUniqueClipNameB5cxx11Ev
_fife.so:_ZN4FIFE9SoundClip4freeEv
_fife.so:_ZN4FIFE9SoundClip4loadEv
_fife.so:_ZN4FIFE9SoundClip7getSizeEv
_fife.so:_ZN4FIFE9SoundClip9getStreamEjj
_fife.so:_ZN4FIFE9SoundClipC1EPNS_15IResourceLoaderE
_fife.so:_ZN4FIFE9SoundClipC1ERKNSt7__cxx1112basic_stringIcSt11char_traitsIcESaIcEEEPNS_15IResourceLoaderE
_fife.so:_ZN4FIFE9SoundClipC2EPNS_15IResourceLoaderE
_fife.so:_ZN4FIFE9SoundClipC2ERKNSt7__cxx1112basic_stringIcSt11char_traitsIcESaIcEEEPNS_15IResourceLoaderE
_fife.so:_ZN4FIFE9SoundClipD0Ev
_fife.so:_ZN4FIFE9SoundClipD1Ev
_fife.so:_ZN4FIFE9SoundClipD2Ev
_fife.so:_ZN4FIFE9TimeEvent17getLastUpdateTimeEv
_fife.so:_ZN4FIFE9TimeEvent17setLastUpdateTimeEj
_fife.so:_ZN4FIFE9TimeEvent18managerUpdateEventEj
_fife.so:_ZN4FIFE9TimeEvent9getPeriodEv
_fife.so:_ZN4FIFE9TimeEvent9setPeriodEi
_fife.so:_ZN4FIFE9TimeEventC1Ei
_fife.so:_ZN4FIFE9TimeEventC2Ei
_fife.so:_ZN4FIFE9TimeEventD0Ev
_fife.so:_ZN4FIFE9TimeEventD1Ev
_fife.so:_ZN4FIFE9TimeEventD2Ev
_fife.so:_ZN4FIFE9VFSSourceC1EPNS_3VFSE
_fife.so:_ZN4FIFE9VFSSourceC2EPNS_3VFSE
_fife.so:_ZN4FIFE9VFSSourceD0Ev
_fife.so:_ZN4FIFE9VFSSourceD1Ev
_fife.so:_ZN4FIFE9VFSSourceD2Ev
_fife.so:_ZN4FIFE9ZipSource15readFileToIndexEv
_fife.so:_ZN4FIFE9ZipSource9readIndexEv
_fife.so:_ZN4FIFE9ZipSourceC1EPNS_3VFSERKNSt7__cxx1112basic_stringIcSt11char_traitsIcESaIcEEE
_fife.so:_ZN4FIFE9ZipSourceC2EPNS_3VFSERKNSt7__cxx1112basic_stringIcSt11char_traitsIcESaIcEEE
_fife.so:_ZN4FIFE9ZipSourceD0Ev
_fife.so:_ZN4FIFE9ZipSourceD1Ev
_fife.so:_ZN4FIFE9ZipSourceD2Ev
_fife.so:_ZN4FIFE9alEffectfE
_fife.so:_ZN4FIFE9alEffectiE
_fife.so:_ZN4FIFE9alFilterfE
_fife.so:_ZN4FIFE9alFilteriE
_fife.so:_ZN4FIFE9getFacingERKNS_11PointType3DIdEEi
_fife.so:_ZN4FIFE9getFacingERKNS_8LocationEi
_fife.so:_ZN4FIFE9makeInt32ERKNSt7__cxx1112basic_stringIcSt11char_traitsIcESaIcEEE
_fife.so:_ZN4FIFE9scaleTimeEfj
_fife.so:_ZN4FIFElsERSoRKNS_8LocationE
_fife.so:_ZNK20SwigDirector_IPather7getNameB5cxx11Ev
_fife.so:_ZNK23SwigDirector_IMapLoader10isLoadableERKNSt7__cxx1112basic_stringIcSt11char_traitsIcESaIcEEE
_fife.so:_ZNK25SwigDirector_IKeyListener16isGlobalListenerEv
_fife.so:_ZNK26SwigDirector_IObjectLoader10isLoadableERKNSt7__cxx1112basic_stringIcSt11char_traitsIcESaIcEEE
_fife.so:_ZNK27SwigDirector_IMouseListener16isGlobalListenerEv
_fife.so:_ZNK3fcn10ClickLabel10getCaptionB5cxx11Ev
_fife.so:_ZNK3fcn10ClickLabel12getAlignmentEv
_fife.so:_ZNK3fcn10ClickLabel14isTextWrappingEv
_fife.so:_ZNK3fcn10ClickLabel8isOpaqueEv
_fife.so:_ZNK3fcn13AnimationIcon11isRepeatingEv
_fife.so:_ZNK3fcn13AnimationIcon12getAnimationEv
_fife.so:_ZNK3fcn13AnimationIcon9isPlayingEv
_fife.so:_ZNK3fcn13PercentageBar14getOrientationEv
_fife.so:_ZNK3fcn13PercentageBar8getValueEv
_fife.so:_ZNK3fcn15ResizableWindow11isResizableEv
_fife.so:_ZNK3fcn15ResizableWindow14isTopResizableEv
_fife.so:_ZNK3fcn15ResizableWindow15isLeftResizableEv
_fife.so:_ZNK3fcn15ResizableWindow16isRightResizableEv
_fife.so:_ZNK3fcn15ResizableWindow17isBottomResizableEv
_fife.so:_ZNK3fcn15ResizableWindow26getResizableBorderDistanceEv
_fife.so:_ZNK3fcn15ResizableWindow5getIdENS0_16CursorDirectionsE
_fife.so:_ZNK3fcn15ResizableWindow7getTypeENS0_16CursorDirectionsE
_fife.so:_ZNK3fcn15ResizableWindow8getShoveEv
_fife.so:_ZNK3fcn5Panel10isDockableEv
_fife.so:_ZNK3fcn5Panel8isDockedEv
_fife.so:_ZNK3fcn8DockArea10isLeftSideEv
_fife.so:_ZNK3fcn8DockArea11isRightSideEv
_fife.so:_ZNK3fcn8DockArea12isBottomSideEv
_fife.so:_ZNK3fcn8DockArea13isHighlightedEv
_fife.so:_ZNK3fcn8DockArea16isActiveDockAreaEv
_fife.so:_ZNK3fcn8DockArea17getHighlightColorEv
_fife.so:_ZNK3fcn8DockArea9isTopSideEv
_fife.so:_ZNK4FIFE10AtlasBlock10intersectsERKS0_
_fife.so:_ZNK4FIFE10Compressor12isCompressorEv
_fife.so:_ZNK4FIFE10DeviceCaps14getDisplayNameB5cxx11Eh
_fife.so:_ZNK4FIFE10DeviceCaps15getDesktopWidthEh
_fife.so:_ZNK4FIFE10DeviceCaps15getDisplayCountEv
_fife.so:_ZNK4FIFE10DeviceCaps16getDesktopFormatEh
_fife.so:_ZNK4FIFE10DeviceCaps16getDesktopHeightEh
_fife.so:_ZNK4FIFE10DeviceCaps16getDisplayBoundsEh
_fife.so:_ZNK4FIFE10DeviceCaps20getNearestScreenModeEtttRKNSt7__cxx1112basic_stringIcSt11char_traitsIcESaIcEEEb
_fife.so:_ZNK4FIFE10DeviceCaps20getNearestScreenModeEtttRKNSt7__cxx1112basic_stringIcSt11char_traitsIcESaIcEEEbth
_fife.so:_ZNK4FIFE10DeviceCaps21getDesktopRefreshRateEh
_fife.so:_ZNK4FIFE10Distortion11getEqCenterEv
_fife.so:_ZNK4FIFE10Distortion14getEqBandwidthEv
_fife.so:_ZNK4FIFE10Distortion16getLowpassCutoffEv
_fife.so:_ZNK4FIFE10Distortion7getEdgeEv
_fife.so:_ZNK4FIFE10Distortion7getGainEv
_fife.so:_ZNK4FIFE10RenderItem15getColorOverlayEv
_fife.so:_ZNK4FIFE10RenderItem19getAnimationOverlayEv
_fife.so:_ZNK4FIFE10RenderItem24getAnimationColorOverlayEv
_fife.so:_ZNK4FIFE10ScreenModeltERKS0_
_fife.so:_ZNK4FIFE10SquareGrid7getNameB5cxx11Ev
_fife.so:_ZNK4FIFE10SquareGrid7getTypeB5cxx11Ev
_fife.so:_ZNK4FIFE11ActionAudio10getMaxGainEv
_fife.so:_ZNK4FIFE11ActionAudio10getMinGainEv
_fife.so:_ZNK4FIFE11ActionAudio10getRolloffEv
_fife.so:_ZNK4FIFE11ActionAudio11getVelocityEv
_fife.so:_ZNK4FIFE11ActionAudio11isDirectionEv
_fife.so:_ZNK4FIFE11ActionAudio12getGroupNameB5cxx11Ev
_fife.so:_ZNK4FIFE11ActionAudio14getMaxDistanceEv
_fife.so:_ZNK4FIFE11ActionAudio16getConeOuterGainEv
_fife.so:_ZNK4FIFE11ActionAudio16getSoundFileNameB5cxx11Ev
_fife.so:_ZNK4FIFE11ActionAudio17getConeInnerAngleEv
_fife.so:_ZNK4FIFE11ActionAudio17getConeOuterAngleEv
_fife.so:_ZNK4FIFE11ActionAudio20getReferenceDistanceEv
_fife.so:_ZNK4FIFE11ActionAudio21isRelativePositioningEv
_fife.so:_ZNK4FIFE11ActionAudio7getGainEv
_fife.so:_ZNK4FIFE11ActionAudio8getPitchEv
_fife.so:_ZNK4FIFE11ActionAudio9isLoopingEv
_fife.so:_ZNK4FIFE11OffRenderer11getClipAreaEv
_fife.so:_ZNK4FIFE11RawDataFile7getSizeEv
_fife.so:_ZNK4FIFE11RoutePather7getNameB5cxx11Ev
_fife.so:_ZNK4FIFE11SoundEffect11getEffectIdEv
_fife.so:_ZNK4FIFE11SoundEffect13getEffectTypeEv
_fife.so:_ZNK4FIFE11SoundEffect9isEnabledEv
_fife.so:_ZNK4FIFE11SoundFilter11getFilterIdEv
_fife.so:_ZNK4FIFE11SoundFilter13getFilterTypeEv
_fife.so:_ZNK4FIFE11SoundFilter7getGainEv
_fife.so:_ZNK4FIFE11SoundFilter9getGainHfEv
_fife.so:_ZNK4FIFE11SoundFilter9getGainLfEv
_fife.so:_ZNK4FIFE11SoundFilter9isEnabledEv
_fife.so:_ZNK4FIFE11SoundSource14getActionAudioEv
_fife.so:_ZNK4FIFE11TimeManager12getTimeDeltaEv
_fife.so:_ZNK4FIFE11TimeManager15printStatisticsEv
_fife.so:_ZNK4FIFE11TimeManager19getAverageFrameTimeEv
_fife.so:_ZNK4FIFE11TimeManager7getTimeEv
_fife.so:_ZNK4FIFE11ZipProvider10isReadableERKNSt7__cxx1112basic_stringIcSt11char_traitsIcESaIcEEE
_fife.so:_ZNK4FIFE11ZipProvider9getSourceERKNSt7__cxx1112basic_stringIcSt11char_traitsIcESaIcEEE
_fife.so:_ZNK4FIFE11ZipProvider9hasSourceERKNSt7__cxx1112basic_stringIcSt11char_traitsIcESaIcEEE
_fife.so:_ZNK4FIFE12EventManager15isClipboardTextEv
_fife.so:_ZNK4FIFE12EventManager16getClipboardTextB5cxx11Ev
_fife.so:_ZNK4FIFE12EventManager16getJoystickCountEv
_fife.so:_ZNK4FIFE12EventManager19getMouseSensitivityEv
_fife.so:_ZNK4FIFE12EventManager26isMouseAccelerationEnabledEv
_fife.so:_ZNK4FIFE12ImageManager13getMemoryUsedEv
_fife.so:_ZNK4FIFE12ImageManager17getTotalResourcesEv
_fife.so:_ZNK4FIFE12ImageManager23getTotalResourcesLoadedEv
_fife.so:_ZNK4FIFE12ImageManager24getTotalResourcesCreatedEv
_fife.so:_ZNK4FIFE12ObjectLoader10isLoadableERKNSt7__cxx1112basic_stringIcSt11char_traitsIcESaIcEEE
_fife.so:_ZNK4FIFE12PitchShifter11getFineTuneEv
_fife.so:_ZNK4FIFE12PitchShifter13getCoarseTuneEv
_fife.so:_ZNK4FIFE12SoundEmitter10getMaxGainEv
_fife.so:_ZNK4FIFE12SoundEmitter10getMinGainEv
_fife.so:_ZNK4FIFE12SoundEmitter10getRolloffEv
_fife.so:_ZNK4FIFE12SoundEmitter10isPositionEv
_fife.so:_ZNK4FIFE12SoundEmitter11getPositionEv
_fife.so:_ZNK4FIFE12SoundEmitter11getVelocityEv
_fife.so:_ZNK4FIFE12SoundEmitter12getDirectionEv
_fife.so:_ZNK4FIFE12SoundEmitter14getMaxDistanceEv
_fife.so:_ZNK4FIFE12SoundEmitter16getConeOuterGainEv
_fife.so:_ZNK4FIFE12SoundEmitter17getConeInnerAngleEv
_fife.so:_ZNK4FIFE12SoundEmitter17getConeOuterAngleEv
_fife.so:_ZNK4FIFE12SoundEmitter20getReferenceDistanceEv
_fife.so:_ZNK4FIFE12SoundEmitter21isRelativePositioningEv
_fife.so:_ZNK4FIFE12SoundEmitter5getIdEv
_fife.so:_ZNK4FIFE12SoundEmitter7getGainEv
_fife.so:_ZNK4FIFE12SoundEmitter8getPitchEv
_fife.so:_ZNK4FIFE12SoundEmitter8isActiveEv
_fife.so:_ZNK4FIFE12SoundEmitter9getSourceEv
_fife.so:_ZNK4FIFE12SoundEmitter9isLoopingEv
_fife.so:_ZNK4FIFE12SoundManager10getContextEv
_fife.so:_ZNK4FIFE12SoundManager10getEmitterEj
_fife.so:_ZNK4FIFE12SoundManager16getDistanceModelEv
_fife.so:_ZNK4FIFE12SoundManager16getDopplerFactorEv
_fife.so:_ZNK4FIFE12SoundManager19getListenerPositionEv
_fife.so:_ZNK4FIFE12SoundManager19getListenerVelocityEv
_fife.so:_ZNK4FIFE12SoundManager22getListenerMaxDistanceEv
_fife.so:_ZNK4FIFE12SoundManager22getListenerOrientationEv
_fife.so:_ZNK4FIFE12SoundManager8isActiveEv
_fife.so:_ZNK4FIFE12SoundManager9getVolumeEv
_fife.so:_ZNK4FIFE12TimeProvider11getGameTimeEv
_fife.so:_ZNK4FIFE12TimeProvider13getMultiplierEv
_fife.so:_ZNK4FIFE12TimeProvider18getPreciseGameTimeEv
_fife.so:_ZNK4FIFE12TimeProvider18getTotalMultiplierEv
_fife.so:_ZNK4FIFE12TrueTypeFont16getFontStyleMaskEv
_fife.so:_ZNK4FIFE12TrueTypeFont8getWidthERKNSt7__cxx1112basic_stringIcSt11char_traitsIcESaIcEEE
_fife.so:_ZNK4FIFE12TrueTypeFont9getHeightEv
_fife.so:_ZNK4FIFE12VFSDirectory10fileExistsERKNSt7__cxx1112basic_stringIcSt11char_traitsIcESaIcEEE
_fife.so:_ZNK4FIFE12VFSDirectory15listDirectoriesERKNSt7__cxx1112basic_stringIcSt11char_traitsIcESaIcEEE
_fife.so:_ZNK4FIFE12VFSDirectory4listERKNSt7__cxx1112basic_stringIcSt11char_traitsIcESaIcEEEb
_fife.so:_ZNK4FIFE12VFSDirectory4openERKNSt7__cxx1112basic_stringIcSt11char_traitsIcESaIcEEE
_fife.so:_ZNK4FIFE12VFSDirectory9listFilesERKNSt7__cxx1112basic_stringIcSt11char_traitsIcESaIcEEE
_fife.so:_ZNK4FIFE12VocalMorpher11getPhonemeAEv
_fife.so:_ZNK4FIFE12VocalMorpher11getPhonemeBEv
_fife.so:_ZNK4FIFE12VocalMorpher11getWaveformEv
_fife.so:_ZNK4FIFE12VocalMorpher17getPhonemeCoarseAEv
_fife.so:_ZNK4FIFE12VocalMorpher17getPhonemeCoarseBEv
_fife.so:_ZNK4FIFE12VocalMorpher7getRateEv
_fife.so:_ZNK4FIFE13ImageFontBase8getWidthERKNSt7__cxx1112basic_stringIcSt11char_traitsIcESaIcEEE
_fife.so:_ZNK4FIFE13ImageFontBase9getHeightEv
_fife.so:_ZNK4FIFE13RenderBackend11getClipAreaEv
_fife.so:_ZNK4FIFE13RenderBackend11getColorKeyEv
_fife.so:_ZNK4FIFE13RenderBackend13getFrameLimitEv
_fife.so:_ZNK4FIFE13RenderBackend14getPixelFormatEv
_fife.so:_ZNK4FIFE13RenderBackend14isVSyncEnabledEv
_fife.so:_ZNK4FIFE13RenderBackend16getMaxAnisotropyEv
_fife.so:_ZNK4FIFE13RenderBackend17getAlphaTestValueEv
_fife.so:_ZNK4FIFE13RenderBackend17isColorKeyEnabledEv
_fife.so:_ZNK4FIFE13RenderBackend19getTextureFilteringEv
_fife.so:_ZNK4FIFE13RenderBackend19isFrameLimitEnabledEv
_fife.so:_ZNK4FIFE13RenderBackend19isMipmappingEnabledEv
_fife.so:_ZNK4FIFE13RenderBackend19isMonochromeEnabledEv
_fife.so:_ZNK4FIFE13RenderBackend20getCurrentScreenModeEv
_fife.so:_ZNK4FIFE13RenderBackend20isDepthBufferEnabledEv
_fife.so:_ZNK4FIFE13RenderBackend7getAreaEv
_fife.so:_ZNK4FIFE13RenderBackend8getWidthEv
_fife.so:_ZNK4FIFE13RenderBackend9getHeightEv
_fife.so:_ZNK4FIFE13RingModulator11getWaveformEv
_fife.so:_ZNK4FIFE13RingModulator12getFrequencyEv
_fife.so:_ZNK4FIFE13RingModulator17getHighpassCutoffEv
_fife.so:_ZNK4FIFE13ZipFileSource7getSizeEv
_fife.so:_ZNK4FIFE14EngineSettings11getColorKeyEv
_fife.so:_ZNK4FIFE14EngineSettings12getMaxVolumeEv
_fife.so:_ZNK4FIFE14EngineSettings13getFrameLimitEv
_fife.so:_ZNK4FIFE14EngineSettings14getVideoDriverB5cxx11Ev
_fife.so:_ZNK4FIFE14EngineSettings17isColorKeyEnabledEv
_fife.so:_ZNK4FIFE14EngineSettings17isGLUseMipmappingEv
_fife.so:_ZNK4FIFE14EngineSettings17isGLUseMonochromeEv
_fife.so:_ZNK4FIFE14EngineSettings17isJoystickSupportEv
_fife.so:_ZNK4FIFE14EngineSettings18isGLUseDepthBufferEv
_fife.so:_ZNK4FIFE14EngineSettings19getGLAlphaTestValueEv
_fife.so:_ZNK4FIFE14EngineSettings19getMouseSensitivityEv
_fife.so:_ZNK4FIFE14EngineSettings19isFrameLimitEnabledEv
_fife.so:_ZNK4FIFE14EngineSettings21getGLTextureFilteringEv
_fife.so:_ZNK4FIFE14EngineSettings23getPossibleBitsPerPixelEv
_fife.so:_ZNK4FIFE14EngineSettings26isMouseAccelerationEnabledEv
_fife.so:_ZNK4FIFE14EngineSettings26isNativeImageCursorEnabledEv
_fife.so:_ZNK4FIFE15FifechanManager14getFifechanGUIEv
_fife.so:_ZNK4FIFE15FifechanManager16isConsoleEnabledEv
_fife.so:_ZNK4FIFE15FifechanManager16isTabbingEnabledEv
_fife.so:_ZNK4FIFE15JoystickManager16getJoystickCountEv
_fife.so:_ZNK4FIFE16AnimationManager13getMemoryUsedEv
_fife.so:_ZNK4FIFE16AnimationManager17getTotalResourcesEv
_fife.so:_ZNK4FIFE16AnimationManager23getTotalResourcesLoadedEv
_fife.so:_ZNK4FIFE16AnimationManager24getTotalResourcesCreatedEv
_fife.so:_ZNK4FIFE16FrequencyShifter12getFrequencyEv
_fife.so:_ZNK4FIFE16FrequencyShifter16getLeftDirectionEv
_fife.so:_ZNK4FIFE16FrequencyShifter17getRightDirectionEv
_fife.so:_ZNK4FIFE16InstanceRenderer17getRemoveIntervalEv
_fife.so:_ZNK4FIFE16RawDataMemSource10getRawDataEv
_fife.so:_ZNK4FIFE16RawDataMemSource7getSizeEv
_fife.so:_ZNK4FIFE16RenderBackendSDL16getLightingModelEv
_fife.so:_ZNK4FIFE16RenderBackendSDL7getNameB5cxx11Ev
_fife.so:_ZNK4FIFE16SoundClipManager13getMemoryUsedEv
_fife.so:_ZNK4FIFE16SoundClipManager17getTotalResourcesEv
_fife.so:_ZNK4FIFE16SoundClipManager23getTotalResourcesLoadedEv
_fife.so:_ZNK4FIFE16SoundClipManager24getTotalResourcesCreatedEv
_fife.so:_ZNK4FIFE17DirectoryProvider10isReadableERKNSt7__cxx1112basic_stringIcSt11char_traitsIcESaIcEEE
_fife.so:_ZNK4FIFE17DirectoryProvider9getSourceERKNSt7__cxx1112basic_stringIcSt11char_traitsIcESaIcEEE
_fife.so:_ZNK4FIFE17DirectoryProvider9hasSourceERKNSt7__cxx1112basic_stringIcSt11char_traitsIcESaIcEEE
_fife.so:_ZNK4FIFE17RoutePatherSearch12getSessionIdEv
_fife.so:_ZNK4FIFE17RoutePatherSearch15getSearchStatusEv
_fife.so:_ZNK4FIFE17VFSSourceProvider7getNameB5cxx11Ev
_fife.so:_ZNK4FIFE18SoundEffectManager8isActiveEv
_fife.so:_ZNK4FIFE19RenderBackendOpenGL13getStencilRefEv
_fife.so:_ZNK4FIFE19RenderBackendOpenGL16getLightingModelEv
_fife.so:_ZNK4FIFE19RenderBackendOpenGL7getNameB5cxx11Ev
_fife.so:_ZNK4FIFE3Map10getCamerasEv
_fife.so:_ZNK4FIFE3Map13getLayerCountEv
_fife.so:_ZNK4FIFE3Map20getActiveCameraCountEv
_fife.so:_ZNK4FIFE3VFS10filterListERKSt3setINSt7__cxx1112basic_stringIcSt11char_traitsIcESaIcEEESt4lessIS7_ESaIS7_EERKS7_
_fife.so:_ZNK4FIFE3VFS11isDirectoryERKNSt7__cxx1112basic_stringIcSt11char_traitsIcESaIcEEE
_fife.so:_ZNK4FIFE3VFS15listDirectoriesERKNSt7__cxx1112basic_stringIcSt11char_traitsIcESaIcEEE
_fife.so:_ZNK4FIFE3VFS15listDirectoriesERKNSt7__cxx1112basic_stringIcSt11char_traitsIcESaIcEEES8_
_fife.so:_ZNK4FIFE3VFS16getSourceForFileERKNSt7__cxx1112basic_stringIcSt11char_traitsIcESaIcEEE
_fife.so:_ZNK4FIFE3VFS6existsERKNSt7__cxx1112basic_stringIcSt11char_traitsIcESaIcEEE
_fife.so:_ZNK4FIFE3VFS9hasSourceERKNSt7__cxx1112basic_stringIcSt11char_traitsIcESaIcEEE
_fife.so:_ZNK4FIFE3VFS9listFilesERKNSt7__cxx1112basic_stringIcSt11char_traitsIcESaIcEEE
_fife.so:_ZNK4FIFE3VFS9listFilesERKNSt7__cxx1112basic_stringIcSt11char_traitsIcESaIcEEES8_
_fife.so:_ZNK4FIFE4Cell19getLayerCoordinatesEv
_fife.so:_ZNK4FIFE4DAT110fileExistsERKNSt7__cxx1112basic_stringIcSt11char_traitsIcESaIcEEE
_fife.so:_ZNK4FIFE4DAT115listDirectoriesERKNSt7__cxx1112basic_stringIcSt11char_traitsIcESaIcEEE
_fife.so:_ZNK4FIFE4DAT14listERKNSt7__cxx1112basic_stringIcSt11char_traitsIcESaIcEEEb
_fife.so:_ZNK4FIFE4DAT14openERKNSt7__cxx1112basic_stringIcSt11char_traitsIcESaIcEEE
_fife.so:_ZNK4FIFE4DAT17getInfoERKNSt7__cxx1112basic_stringIcSt11char_traitsIcESaIcEEE
_fife.so:_ZNK4FIFE4DAT19listFilesERKNSt7__cxx1112basic_stringIcSt11char_traitsIcESaIcEEE
_fife.so:_ZNK4FIFE4DAT210fileExistsERKNSt7__cxx1112basic_stringIcSt11char_traitsIcESaIcEEE
_fife.so:_ZNK4FIFE4DAT213findFileEntryERKNSt7__cxx1112basic_stringIcSt11char_traitsIcESaIcEEE
_fife.so:_ZNK4FIFE4DAT213readFileEntryEv
_fife.so:_ZNK4FIFE4DAT215listDirectoriesERKNSt7__cxx1112basic_stringIcSt11char_traitsIcESaIcEEE
_fife.so:_ZNK4FIFE4DAT24listERKNSt7__cxx1112basic_stringIcSt11char_traitsIcESaIcEEEb
_fife.so:_ZNK4FIFE4DAT24openERKNSt7__cxx1112basic_stringIcSt11char_traitsIcESaIcEEE
_fife.so:_ZNK4FIFE4DAT27getInfoERKNSt7__cxx1112basic_stringIcSt11char_traitsIcESaIcEEE
_fife.so:_ZNK4FIFE4DAT29listFilesERKNSt7__cxx1112basic_stringIcSt11char_traitsIcESaIcEEE
_fife.so:_ZNK4FIFE4Echo10getDampingEv
_fife.so:_ZNK4FIFE4Echo10getLrDelayEv
_fife.so:_ZNK4FIFE4Echo11getFeedbackEv
_fife.so:_ZNK4FIFE4Echo8getDelayEv
_fife.so:_ZNK4FIFE4Echo9getSpreadEv
_fife.so:_ZNK4FIFE4Zone12getCellCountEv
_fife.so:_ZNK4FIFE4Zone5getIdEv
_fife.so:_ZNK4FIFE4Zone8getCellsEv
_fife.so:_ZNK4FIFE5Atlas13getImageCountEv
_fife.so:_ZNK4FIFE5Atlas7getNameB5cxx11Ev
_fife.so:_ZNK4FIFE5Color4getBEv
_fife.so:_ZNK4FIFE5Color4getGEv
_fife.so:_ZNK4FIFE5Color4getREv
_fife.so:_ZNK4FIFE5Color8getAlphaEv
_fife.so:_ZNK4FIFE5Image7getAreaEv
_fife.so:_ZNK4FIFE5Image8getWidthEv
_fife.so:_ZNK4FIFE5Image9getHeightEv
_fife.so:_ZNK4FIFE5Layer10getZOffsetEv
_fife.so:_ZNK4FIFE5Layer11getCellGridEv
_fife.so:_ZNK4FIFE5Layer12getInstancesEv
_fife.so:_ZNK4FIFE5Layer12hasInstancesEv
_fife.so:_ZNK4FIFE5Layer13getLayerCountEv
_fife.so:_ZNK4FIFE5Layer15getInstanceTreeEv
_fife.so:_ZNK4FIFE5Layer18getPathingStrategyEv
_fife.so:_ZNK4FIFE5Layer18getSortingStrategyEv
_fife.so:_ZNK4FIFE5Layer19areInstancesVisibleEv
_fife.so:_ZNK4FIFE5Layer20getMinMaxCoordinatesERNS_11PointType3DIiEES3_PKS0_
_fife.so:_ZNK4FIFE5Layer5getIdB5cxx11Ev
_fife.so:_ZNK4FIFE5Layer6getMapEv
_fife.so:_ZNK4FIFE5Model10getObjectsERKNSt7__cxx1112basic_stringIcSt11char_traitsIcESaIcEEE
_fife.so:_ZNK4FIFE5Model11getMapCountEv
_fife.so:_ZNK4FIFE5Model13getNamespacesB5cxx11Ev
_fife.so:_ZNK4FIFE5Model15selectNamespaceERKNSt7__cxx1112basic_stringIcSt11char_traitsIcESaIcEEE
_fife.so:_ZNK4FIFE5Model20getActiveCameraCountEv
_fife.so:_ZNK4FIFE5Model6getMapERKNSt7__cxx1112basic_stringIcSt11char_traitsIcESaIcEEE
_fife.so:_ZNK4FIFE6Camera11getPositionEv
_fife.so:_ZNK4FIFE6Camera11getRotationEv
_fife.so:_ZNK4FIFE6Camera11getViewPortEv
_fife.so:_ZNK4FIFE6Camera13isZToYEnabledEv
_fife.so:_ZNK4FIFE6Camera15getOriginalZToYEv
_fife.so:_ZNK4FIFE6Camera7getTiltEv
_fife.so:_ZNK4FIFE6Camera7getZToYEv
_fife.so:_ZNK4FIFE6Camera7getZoomEv
_fife.so:_ZNK4FIFE6Camera9getOriginEv
_fife.so:_ZNK4FIFE6Chorus11getFeedbackEv
_fife.so:_ZNK4FIFE6Chorus18isWaveformTriangleEv
_fife.so:_ZNK4FIFE6Chorus7getRateEv
_fife.so:_ZNK4FIFE6Chorus8getDelayEv
_fife.so:_ZNK4FIFE6Chorus8getDepthEv
_fife.so:_ZNK4FIFE6Chorus8getPhaseEv
_fife.so:_ZNK4FIFE6Cursor26isNativeImageCursorEnabledEv
_fife.so:_ZNK4FIFE6Engine13getDeviceCapsEv
_fife.so:_ZNK4FIFE6Object10isBlockingEv
_fife.so:_ZNK4FIFE6Object11getFilenameB5cxx11Ev
_fife.so:_ZNK4FIFE6Object11isMultiPartEv
_fife.so:_ZNK4FIFE6Object12getActionIdsB5cxx11Ev
_fife.so:_ZNK4FIFE6Object12getInheritedEv
_fife.so:_ZNK4FIFE6Object13getMultiPartsEv
_fife.so:_ZNK4FIFE6Object13getZStepRangeEv
_fife.so:_ZNK4FIFE6Object13isMultiObjectEv
_fife.so:_ZNK4FIFE6Object13isSpecialCostEv
_fife.so:_ZNK4FIFE6Object14isSpecialSpeedEv
_fife.so:_ZNK4FIFE6Object15getMultiPartIdsB5cxx11Ev
_fife.so:_ZNK4FIFE6Object16getDefaultActionEv
_fife.so:_ZNK4FIFE6Object16getWalkableAreasB5cxx11Ev
_fife.so:_ZNK4FIFE6Object17getRotationAnchorEv
_fife.so:_ZNK4FIFE6Object20getCellStackPositionEv
_fife.so:_ZNK4FIFE6Object20isRestrictedRotationEv
_fife.so:_ZNK4FIFE6Object23getMultiPartCoordinatesEi
_fife.so:_ZNK4FIFE6Object23getMultiPartCoordinatesEv
_fife.so:_ZNK4FIFE6Object25getMultiObjectCoordinatesEi
_fife.so:_ZNK4FIFE6Object7getAreaB5cxx11Ev
_fife.so:_ZNK4FIFE6Object7getCostEv
_fife.so:_ZNK4FIFE6Object8getSpeedEv
_fife.so:_ZNK4FIFE6Object8isStaticEv
_fife.so:_ZNK4FIFE6Object9getActionERKNSt7__cxx1112basic_stringIcSt11char_traitsIcESaIcEEEb
_fife.so:_ZNK4FIFE6Object9getCostIdB5cxx11Ev
_fife.so:_ZNK4FIFE6Object9getPatherEv
_fife.so:_ZNK4FIFE6ObjecteqERKS0_
_fife.so:_ZNK4FIFE6ObjectneERKS0_
_fife.so:_ZNK4FIFE6Reverb10getDensityEv
_fife.so:_ZNK4FIFE6Reverb12getDecayTimeEv
_fife.so:_ZNK4FIFE6Reverb12getDiffusionEv
_fife.so:_ZNK4FIFE6Reverb14isDecayHfLimitEv
_fife.so:_ZNK4FIFE6Reverb15getDecayHfRatioEv
_fife.so:_ZNK4FIFE6Reverb17getLateReverbGainEv
_fife.so:_ZNK4FIFE6Reverb18getLateReverbDelayEv
_fife.so:_ZNK4FIFE6Reverb18getReflectionsGainEv
_fife.so:_ZNK4FIFE6Reverb19getReflectionsDelayEv
_fife.so:_ZNK4FIFE6Reverb20getRoomRolloffFactorEv
_fife.so:_ZNK4FIFE6Reverb22getAirAbsorptionGainHfEv
_fife.so:_ZNK4FIFE6Reverb7getGainEv
_fife.so:_ZNK4FIFE6Reverb9getGainHfEv
_fife.so:_ZNK4FIFE7Autowah11getPeakGainEv
_fife.so:_ZNK4FIFE7Autowah12getResonanceEv
_fife.so:_ZNK4FIFE7Autowah13getAttackTimeEv
_fife.so:_ZNK4FIFE7Autowah14getReleaseTimeEv
_fife.so:_ZNK4FIFE7Flanger11getFeedbackEv
_fife.so:_ZNK4FIFE7Flanger18isWaveformTriangleEv
_fife.so:_ZNK4FIFE7Flanger7getRateEv
_fife.so:_ZNK4FIFE7Flanger8getDelayEv
_fife.so:_ZNK4FIFE7Flanger8getDepthEv
_fife.so:_ZNK4FIFE7Flanger8getPhaseEv
_fife.so:_ZNK4FIFE7GLImage12getTexCoordsEv
_fife.so:_ZNK4FIFE7GLImage8getTexIdEv
_fife.so:_ZNK4FIFE7GuiFont11isAntiAliasEv
_fife.so:_ZNK4FIFE7GuiFont11isBoldStyleEv
_fife.so:_ZNK4FIFE7GuiFont13getRowSpacingEv
_fife.so:_ZNK4FIFE7GuiFont13isItalicStyleEv
_fife.so:_ZNK4FIFE7GuiFont15getGlyphSpacingEv
_fife.so:_ZNK4FIFE7GuiFont16getStringIndexAtERKNSt7__cxx1112basic_stringIcSt11char_traitsIcESaIcEEEi
_fife.so:_ZNK4FIFE7GuiFont16isUnderlineStyleEv
_fife.so:_ZNK4FIFE7GuiFont17isDynamicColoringEv
_fife.so:_ZNK4FIFE7GuiFont20isStrikethroughStyleEv
_fife.so:_ZNK4FIFE7GuiFont8getColorEv
_fife.so:_ZNK4FIFE7GuiFont8getWidthERKNSt7__cxx1112basic_stringIcSt11char_traitsIcESaIcEEE
_fife.so:_ZNK4FIFE7GuiFont9getHeightEv
_fife.so:_ZNK4FIFE7HexGrid7getNameB5cxx11Ev
_fife.so:_ZNK4FIFE7HexGrid7getTypeB5cxx11Ev
_fife.so:_ZNK4FIFE7RawData13getDataLengthEv
_fife.so:_ZNK4FIFE7RawData15getCurrentIndexEv
_fife.so:_ZNK4FIFE7ZipNode11getChildrenENS_14ZipContentType4EnumE
_fife.so:_ZNK4FIFE7ZipNode11getFullNameB5cxx11Ev
_fife.so:_ZNK4FIFE7ZipNode14getContentTypeEv
_fife.so:_ZNK4FIFE7ZipNode15getZipEntryDataEv
_fife.so:_ZNK4FIFE7ZipNode6isLeafEv
_fife.so:_ZNK4FIFE7ZipNode7getNameB5cxx11Ev
_fife.so:_ZNK4FIFE7ZipNode8getChildERKNSt7__cxx1112basic_stringIcSt11char_traitsIcESaIcEEENS_14ZipContentType4EnumE
_fife.so:_ZNK4FIFE7ZipNode8isBranchEv
_fife.so:_ZNK4FIFE7ZipNode9getParentEv
_fife.so:_ZNK4FIFE7ZipTree11getRootNodeEv
_fife.so:_ZNK4FIFE7ZipTree7getNodeERKNSt7__cxx1112basic_stringIcSt11char_traitsIcESaIcEEE
_fife.so:_ZNK4FIFE8FontBase11isAntiAliasEv
_fife.so:_ZNK4FIFE8FontBase11isBoldStyleEv
_fife.so:_ZNK4FIFE8FontBase13getRowSpacingEv
_fife.so:_ZNK4FIFE8FontBase13isItalicStyleEv
_fife.so:_ZNK4FIFE8FontBase15getGlyphSpacingEv
_fife.so:_ZNK4FIFE8FontBase16getStringIndexAtERKNSt7__cxx1112basic_stringIcSt11char_traitsIcESaIcEEEi
_fife.so:_ZNK4FIFE8FontBase16isUnderlineStyleEv
_fife.so:_ZNK4FIFE8FontBase17isDynamicColoringEv
_fife.so:_ZNK4FIFE8FontBase20isStrikethroughStyleEv
_fife.so:_ZNK4FIFE8FontBase8getColorEv
_fife.so:_ZNK4FIFE8GuiImage8getWidthEv
_fife.so:_ZNK4FIFE8GuiImage9getHeightEv
_fife.so:_ZNK4FIFE8Instance10getSayTextB5cxx11Ev
_fife.so:_ZNK4FIFE8Instance10isBlockingEv
_fife.so:_ZNK4FIFE8Instance11getLocationEv
_fife.so:_ZNK4FIFE8Instance11getRotationEv
_fife.so:_ZNK4FIFE8Instance14getOldRotationEv
_fife.so:_ZNK4FIFE8Instance16getCurrentActionEv
_fife.so:_ZNK4FIFE8Instance16getMovementSpeedEv
_fife.so:_ZNK4FIFE8Instance17getTargetLocationEv
_fife.so:_ZNK4FIFE8Instance18isOverrideBlockingEv
_fife.so:_ZNK4FIFE8Instance8isActiveEv
_fife.so:_ZNK4FIFE8Joystick11getHatValueEa
_fife.so:_ZNK4FIFE8Joystick11isConnectedEv
_fife.so:_ZNK4FIFE8Joystick12convertRangeEs
_fife.so:_ZNK4FIFE8Joystick12getAxisValueEa
_fife.so:_ZNK4FIFE8Joystick12isControllerEv
_fife.so:_ZNK4FIFE8Joystick13getInstanceIdEv
_fife.so:_ZNK4FIFE8Joystick13getJoystickIdEv
_fife.so:_ZNK4FIFE8Joystick14getDeviceIndexEv
_fife.so:_ZNK4FIFE8Joystick15getNumberOfAxesEv
_fife.so:_ZNK4FIFE8Joystick15getNumberOfHatsEv
_fife.so:_ZNK4FIFE8Joystick15isButtonPressedEa
_fife.so:_ZNK4FIFE8Joystick18getNumberOfButtonsEv
_fife.so:_ZNK4FIFE8Location16getMapDistanceToERKS0_
_fife.so:_ZNK4FIFE8Location17getMapCoordinatesEv
_fife.so:_ZNK4FIFE8Location18getLayerDistanceToERKS0_
_fife.so:_ZNK4FIFE8Location19getLayerCoordinatesEPKNS_5LayerE
_fife.so:_ZNK4FIFE8Location19getLayerCoordinatesEv
_fife.so:_ZNK4FIFE8Location21getCellOffsetDistanceEv
_fife.so:_ZNK4FIFE8Location24getExactLayerCoordinatesEPKNS_5LayerE
_fife.so:_ZNK4FIFE8Location24getExactLayerCoordinatesEv
_fife.so:_ZNK4FIFE8Location6getMapEv
_fife.so:_ZNK4FIFE8Location7isValidEPKNS_5LayerE
_fife.so:_ZNK4FIFE8Location7isValidEv
_fife.so:_ZNK4FIFE8Location8getLayerEv
_fife.so:_ZNK4FIFE9Animation12isValidIndexEi
_fife.so:_ZNK4FIFE9Animation13getFrameCountEv
_fife.so:_ZNK4FIFE9Animation16getFrameDurationEi
_fife.so:_ZNK4FIFE9AtlasPage10intersectsEPKNS_10AtlasBlockE
_fife.so:_ZNK4FIFE9CellCache11getMaxIndexEv
_fife.so:_ZNK4FIFE9CellCache13isInCellCacheERKNS_8LocationE
_fife.so:_ZNK4FIFE9CellCache17convertCoordToIntERKNS_11PointType3DIiEE
_fife.so:_ZNK4FIFE9CellCache17convertIntToCoordEi
_fife.so:_ZNK4FIFE9EaxReverb10getDensityEv
_fife.so:_ZNK4FIFE9EaxReverb11getEchoTimeEv
_fife.so:_ZNK4FIFE9EaxReverb12getDecayTimeEv
_fife.so:_ZNK4FIFE9EaxReverb12getDiffusionEv
_fife.so:_ZNK4FIFE9EaxReverb12getEchoDepthEv
_fife.so:_ZNK4FIFE9EaxReverb14getHfReferenceEv
_fife.so:_ZNK4FIFE9EaxReverb14getLfReferenceEv
_fife.so:_ZNK4FIFE9EaxReverb14isDecayHfLimitEv
_fife.so:_ZNK4FIFE9EaxReverb15getDecayHfRatioEv
_fife.so:_ZNK4FIFE9EaxReverb15getDecayLfRatioEv
_fife.so:_ZNK4FIFE9EaxReverb16getLateReverbPanEv
_fife.so:_ZNK4FIFE9EaxReverb17getLateReverbGainEv
_fife.so:_ZNK4FIFE9EaxReverb17getModulationTimeEv
_fife.so:_ZNK4FIFE9EaxReverb17getReflectionsPanEv
_fife.so:_ZNK4FIFE9EaxReverb18getLateReverbDelayEv
_fife.so:_ZNK4FIFE9EaxReverb18getModulationDepthEv
_fife.so:_ZNK4FIFE9EaxReverb18getReflectionsGainEv
_fife.so:_ZNK4FIFE9EaxReverb19getReflectionsDelayEv
_fife.so:_ZNK4FIFE9EaxReverb20getRoomRolloffFactorEv
_fife.so:_ZNK4FIFE9EaxReverb22getAirAbsorptionGainHfEv
_fife.so:_ZNK4FIFE9EaxReverb7getGainEv
_fife.so:_ZNK4FIFE9EaxReverb9getGainHfEv
_fife.so:_ZNK4FIFE9EaxReverb9getGainLfEv
_fife.so:_ZNK4FIFE9Equalizer10getLowGainEv
_fife.so:_ZNK4FIFE9Equalizer11getHighGainEv
_fife.so:_ZNK4FIFE9Equalizer11getMid1GainEv
_fife.so:_ZNK4FIFE9Equalizer11getMid2GainEv
_fife.so:_ZNK4FIFE9Equalizer12getLowCutoffEv
_fife.so:_ZNK4FIFE9Equalizer12getMid1WidthEv
_fife.so:_ZNK4FIFE9Equalizer12getMid2WidthEv
_fife.so:_ZNK4FIFE9Equalizer13getHighCutoffEv
_fife.so:_ZNK4FIFE9Equalizer13getMid1CenterEv
_fife.so:_ZNK4FIFE9Equalizer13getMid2CenterEv
_fife.so:_ZNK4FIFE9Exception4whatEv
_fife.so:_ZNK4FIFE9MapLoader10isLoadableERKNSt7__cxx1112basic_stringIcSt11char_traitsIcESaIcEEE
_fife.so:_ZNK4FIFE9MapLoader13getLoaderNameB5cxx11Ev
_fife.so:_ZNK4FIFE9SoundClip10getBuffersEj
_fife.so:_ZNK4FIFE9SoundClip10getDecoderEv
_fife.so:_ZNK4FIFE9SoundClip12countBuffersEv
_fife.so:_ZNK4FIFE9SoundClip12getStreamPosEjNS_17SoundPositionTypeE
_fife.so:_ZNK4FIFE9SoundClip8isStreamEv
_fife.so:_ZNK4FIFE9VFSSource7fixPathENSt7__cxx1112basic_stringIcSt11char_traitsIcESaIcEEE
_fife.so:_ZNK4FIFE9ZipSource10fileExistsERKNSt7__cxx1112basic_stringIcSt11char_traitsIcESaIcEEE
_fife.so:_ZNK4FIFE9ZipSource15listDirectoriesERKNSt7__cxx1112basic_stringIcSt11char_traitsIcESaIcEEE
_fife.so:_ZNK4FIFE9ZipSource4openERKNSt7__cxx1112basic_stringIcSt11char_traitsIcESaIcEEE
_fife.so:_ZNK4FIFE9ZipSource9listFilesERKNSt7__cxx1112basic_stringIcSt11char_traitsIcESaIcEEE
_fife.so:_ZThn16_N22SwigDirector_TimeEventD0Ev
_fife.so:_ZThn16_N22SwigDirector_TimeEventD1Ev
_fife.so:_ZThn16_N25SwigDirector_IKeyListenerD0Ev
_fife.so:_ZThn16_N25SwigDirector_IKeyListenerD1Ev
_fife.so:_ZThn16_N26SwigDirector_IDropListenerD0Ev
_fife.so:_ZThn16_N26SwigDirector_IDropListenerD1Ev
_fife.so:_ZThn16_N26SwigDirector_ITextListenerD0Ev
_fife.so:_ZThn16_N26SwigDirector_ITextListenerD1Ev
_fife.so:_ZThn16_N27SwigDirector_IMouseListenerD0Ev
_fife.so:_ZThn16_N27SwigDirector_IMouseListenerD1Ev
_fife.so:_ZThn16_N29SwigDirector_ICommandListenerD0Ev
_fife.so:_ZThn16_N29SwigDirector_ICommandListenerD1Ev
_fife.so:_ZThn16_N30SwigDirector_IJoystickListenerD0Ev
_fife.so:_ZThn16_N30SwigDirector_IJoystickListenerD1Ev
_fife.so:_ZThn16_N30SwigDirector_ISdlEventListenerD0Ev
_fife.so:_ZThn16_N30SwigDirector_ISdlEventListenerD1Ev
_fife.so:_ZThn16_N4FIFE12EventManager15addTextListenerEPNS_13ITextListenerE
_fife.so:_ZThn16_N4FIFE12EventManager18removeTextListenerEPNS_13ITextListenerE
_fife.so:_ZThn16_N4FIFE12EventManager20addTextListenerFrontEPNS_13ITextListenerE
_fife.so:_ZThn16_N4FIFE12EventManagerD0Ev
_fife.so:_ZThn16_N4FIFE12EventManagerD1Ev
_fife.so:_ZThn16_N4FIFE15FifechanManagerD0Ev
_fife.so:_ZThn16_N4FIFE15FifechanManagerD1Ev
_fife.so:_ZThn16_N4FIFE16HybridGuiManagerD0Ev
_fife.so:_ZThn16_N4FIFE16HybridGuiManagerD1Ev
_fife.so:_ZThn16_N4FIFE4Cell13onCellDeletedEPS0_
_fife.so:_ZThn16_N4FIFE4CellD0Ev
_fife.so:_ZThn16_N4FIFE4CellD1Ev
_fife.so:_ZThn16_N4FIFE8Instance17onInstanceDeletedEPS0_
_fife.so:_ZThn16_N4FIFE8InstanceD0Ev
_fife.so:_ZThn16_N4FIFE8InstanceD1Ev
_fife.so:_ZThn24_N4FIFE12EventManager16addMouseListenerEPNS_14IMouseListenerE
_fife.so:_ZThn24_N4FIFE12EventManager19removeMouseListenerEPNS_14IMouseListenerE
_fife.so:_ZThn24_N4FIFE12EventManager21addMouseListenerFrontEPNS_14IMouseListenerE
_fife.so:_ZThn24_N4FIFE12EventManagerD0Ev
_fife.so:_ZThn24_N4FIFE12EventManagerD1Ev
_fife.so:_ZThn32_N4FIFE12EventManager19addSdlEventListenerEPNS_17ISdlEventListenerE
_fife.so:_ZThn32_N4FIFE12EventManager22removeSdlEventListenerEPNS_17ISdlEventListenerE
_fife.so:_ZThn32_N4FIFE12EventManager24addSdlEventListenerFrontEPNS_17ISdlEventListenerE
_fife.so:_ZThn32_N4FIFE12EventManagerD0Ev
_fife.so:_ZThn32_N4FIFE12EventManagerD1Ev
_fife.so:_ZThn40_N4FIFE12EventManager15addDropListenerEPNS_13IDropListenerE
_fife.so:_ZThn40_N4FIFE12EventManager18removeDropListenerEPNS_13IDropListenerE
_fife.so:_ZThn40_N4FIFE12EventManager20addDropListenerFrontEPNS_13IDropListenerE
_fife.so:_ZThn40_N4FIFE12EventManagerD0Ev
_fife.so:_ZThn40_N4FIFE12EventManagerD1Ev
_fife.so:_ZThn48_N4FIFE12EventManager18getEventSourceTypeEv
_fife.so:_ZThn48_N4FIFE12EventManagerD0Ev
_fife.so:_ZThn48_N4FIFE12EventManagerD1Ev
_fife.so:_ZThn496_N3fcn10ClickLabel11mouseExitedERNS_10MouseEventE
_fife.so:_ZThn496_N3fcn10ClickLabel12mouseDraggedERNS_10MouseEventE
_fife.so:_ZThn496_N3fcn10ClickLabel12mouseEnteredERNS_10MouseEventE
_fife.so:_ZThn496_N3fcn10ClickLabel12mousePressedERNS_10MouseEventE
_fife.so:_ZThn496_N3fcn10ClickLabel13mouseReleasedERNS_10MouseEventE
_fife.so:_ZThn496_N3fcn10ClickLabelD0Ev
_fife.so:_ZThn496_N3fcn10ClickLabelD1Ev
_fife.so:_ZThn496_N4FIFE11CommandLineD0Ev
_fife.so:_ZThn496_N4FIFE11CommandLineD1Ev
_fife.so:_ZThn504_N3fcn10ClickLabel10keyPressedERNS_8KeyEventE
_fife.so:_ZThn504_N3fcn10ClickLabel11keyReleasedERNS_8KeyEventE
_fife.so:_ZThn504_N3fcn10ClickLabelD0Ev
_fife.so:_ZThn504_N3fcn10ClickLabelD1Ev
_fife.so:_ZThn504_N4FIFE11CommandLine10keyPressedERN3fcn8KeyEventE
_fife.so:_ZThn504_N4FIFE11CommandLineD0Ev
_fife.so:_ZThn504_N4FIFE11CommandLineD1Ev
_fife.so:_ZThn512_N3fcn10ClickLabel9focusLostERKNS_5EventE
_fife.so:_ZThn512_N3fcn10ClickLabelD0Ev
_fife.so:_ZThn512_N3fcn10ClickLabelD1Ev
_fife.so:_ZThn520_N3fcn10ClickLabel14ancestorHiddenERKNS_5EventE
_fife.so:_ZThn520_N3fcn10ClickLabelD0Ev
_fife.so:_ZThn520_N3fcn10ClickLabelD1Ev
_fife.so:_ZThn552_N3fcn15ResizableWindow10mouseMovedERNS_10MouseEventE
_fife.so:_ZThn552_N3fcn15ResizableWindow11mouseExitedERNS_10MouseEventE
_fife.so:_ZThn552_N3fcn15ResizableWindow12mouseDraggedERNS_10MouseEventE
_fife.so:_ZThn552_N3fcn15ResizableWindow12mouseEnteredERNS_10MouseEventE
_fife.so:_ZThn552_N3fcn15ResizableWindow12mousePressedERNS_10MouseEventE
_fife.so:_ZThn552_N3fcn15ResizableWindow13mouseReleasedERNS_10MouseEventE
_fife.so:_ZThn552_N3fcn15ResizableWindowD0Ev
_fife.so:_ZThn552_N3fcn15ResizableWindowD1Ev
_fife.so:_ZThn552_N3fcn5Panel10mouseMovedERNS_10MouseEventE
_fife.so:_ZThn552_N3fcn5Panel11mouseExitedERNS_10MouseEventE
_fife.so:_ZThn552_N3fcn5Panel12mouseDraggedERNS_10MouseEventE
_fife.so:_ZThn552_N3fcn5Panel12mouseEnteredERNS_10MouseEventE
_fife.so:_ZThn552_N3fcn5Panel12mousePressedERNS_10MouseEventE
_fife.so:_ZThn552_N3fcn5Panel13mouseReleasedERNS_10MouseEventE
_fife.so:_ZThn552_N3fcn5PanelD0Ev
_fife.so:_ZThn552_N3fcn5PanelD1Ev
_fife.so:_ZThn552_N3fcn8DockArea10mouseMovedERNS_10MouseEventE
_fife.so:_ZThn552_N3fcn8DockArea11mouseExitedERNS_10MouseEventE
_fife.so:_ZThn552_N3fcn8DockArea12mouseDraggedERNS_10MouseEventE
_fife.so:_ZThn552_N3fcn8DockArea12mouseEnteredERNS_10MouseEventE
_fife.so:_ZThn552_N3fcn8DockArea12mousePressedERNS_10MouseEventE
_fife.so:_ZThn552_N3fcn8DockArea13mouseReleasedERNS_10MouseEventE
_fife.so:_ZThn552_N3fcn8DockAreaD0Ev
_fife.so:_ZThn552_N3fcn8DockAreaD1Ev
_fife.so:_ZThn552_N4FIFE7Console6actionERKN3fcn11ActionEventE
_fife.so:_ZThn552_N4FIFE7ConsoleD0Ev
_fife.so:_ZThn552_N4FIFE7ConsoleD1Ev
_fife.so:_ZThn560_N4FIFE7Console9focusLostERKN3fcn5EventE
_fife.so:_ZThn560_N4FIFE7ConsoleD0Ev
_fife.so:_ZThn560_N4FIFE7ConsoleD1Ev
_fife.so:_ZThn624_N3fcn15ResizableWindowD0Ev
_fife.so:_ZThn624_N3fcn15ResizableWindowD1Ev
_fife.so:_ZThn624_N3fcn5PanelD0Ev
_fife.so:_ZThn624_N3fcn5PanelD1Ev
_fife.so:_ZThn624_N3fcn8DockAreaD0Ev
_fife.so:_ZThn624_N3fcn8DockAreaD1Ev
_fife.so:_ZThn632_N3fcn15ResizableWindow9focusLostERKNS_5EventE
_fife.so:_ZThn632_N3fcn15ResizableWindowD0Ev
_fife.so:_ZThn632_N3fcn15ResizableWindowD1Ev
_fife.so:_ZThn632_N3fcn5PanelD0Ev
_fife.so:_ZThn632_N3fcn5PanelD1Ev
_fife.so:_ZThn632_N3fcn8DockAreaD0Ev
_fife.so:_ZThn632_N3fcn8DockAreaD1Ev
_fife.so:_ZThn8_N20SwigDirector_IPatherD0Ev
_fife.so:_ZThn8_N20SwigDirector_IPatherD1Ev
_fife.so:_ZThn8_N22SwigDirector_IMapSaverD0Ev
_fife.so:_ZThn8_N22SwigDirector_IMapSaverD1Ev
_fife.so:_ZThn8_N23SwigDirector_IKeyFilterD0Ev
_fife.so:_ZThn8_N23SwigDirector_IKeyFilterD1Ev
_fife.so:_ZThn8_N23SwigDirector_IMapLoaderD0Ev
_fife.so:_ZThn8_N23SwigDirector_IMapLoaderD1Ev
_fife.so:_ZThn8_N24SwigDirector_IAtlasSaverD0Ev
_fife.so:_ZThn8_N24SwigDirector_IAtlasSaverD1Ev
_fife.so:_ZThn8_N25SwigDirector_IAtlasLoaderD0Ev
_fife.so:_ZThn8_N25SwigDirector_IAtlasLoaderD1Ev
_fife.so:_ZThn8_N25SwigDirector_IEventSourceD0Ev
_fife.so:_ZThn8_N25SwigDirector_IEventSourceD1Ev
_fife.so:_ZThn8_N25SwigDirector_IObjectSaverD0Ev
_fife.so:_ZThn8_N25SwigDirector_IObjectSaverD1Ev
_fife.so:_ZThn8_N26SwigDirector_IObjectLoaderD0Ev
_fife.so:_ZThn8_N26SwigDirector_IObjectLoaderD1Ev
_fife.so:_ZThn8_N28SwigDirector_ConsoleExecuterD0Ev
_fife.so:_ZThn8_N28SwigDirector_ConsoleExecuterD1Ev
_fife.so:_ZThn8_N28SwigDirector_IAnimationSaverD0Ev
_fife.so:_ZThn8_N28SwigDirector_IAnimationSaverD1Ev
_fife.so:_ZThn8_N29SwigDirector_IAnimationLoaderD0Ev
_fife.so:_ZThn8_N29SwigDirector_IAnimationLoaderD1Ev
_fife.so:_ZThn8_N29SwigDirector_ITriggerListenerD0Ev
_fife.so:_ZThn8_N29SwigDirector_ITriggerListenerD1Ev
_fife.so:_ZThn8_N30SwigDirector_MapChangeListenerD0Ev
_fife.so:_ZThn8_N30SwigDirector_MapChangeListenerD1Ev
_fife.so:_ZThn8_N31SwigDirector_CellChangeListenerD0Ev
_fife.so:_ZThn8_N31SwigDirector_CellChangeListenerD1Ev
_fife.so:_ZThn8_N31SwigDirector_CellDeleteListenerD0Ev
_fife.so:_ZThn8_N31SwigDirector_CellDeleteListenerD1Ev
_fife.so:_ZThn8_N32SwigDirector_LayerChangeListenerD0Ev
_fife.so:_ZThn8_N32SwigDirector_LayerChangeListenerD1Ev
_fife.so:_ZThn8_N32SwigDirector_PercentDoneListenerD0Ev
_fife.so:_ZThn8_N32SwigDirector_PercentDoneListenerD1Ev
_fife.so:_ZThn8_N33SwigDirector_SoundEmitterListenerD0Ev
_fife.so:_ZThn8_N33SwigDirector_SoundEmitterListenerD1Ev
_fife.so:_ZThn8_N34SwigDirector_IEngineChangeListenerD0Ev
_fife.so:_ZThn8_N34SwigDirector_IEngineChangeListenerD1Ev
_fife.so:_ZThn8_N35SwigDirector_InstanceActionListenerD0Ev
_fife.so:_ZThn8_N35SwigDirector_InstanceActionListenerD1Ev
_fife.so:_ZThn8_N35SwigDirector_InstanceChangeListenerD0Ev
_fife.so:_ZThn8_N35SwigDirector_InstanceChangeListenerD1Ev
_fife.so:_ZThn8_N35SwigDirector_InstanceDeleteListenerD0Ev
_fife.so:_ZThn8_N35SwigDirector_InstanceDeleteListenerD1Ev
_fife.so:_ZThn8_N4FIFE12EventManager14addKeyListenerEPNS_12IKeyListenerE
_fife.so:_ZThn8_N4FIFE12EventManager17removeKeyListenerEPNS_12IKeyListenerE
_fife.so:_ZThn8_N4FIFE12EventManager19addKeyListenerFrontEPNS_12IKeyListenerE
_fife.so:_ZThn8_N4FIFE12EventManagerD0Ev
_fife.so:_ZThn8_N4FIFE12EventManagerD1Ev
_fife.so:_ZThn8_N4FIFE12ImageManagerD0Ev
_fife.so:_ZThn8_N4FIFE12ImageManagerD1Ev
_fife.so:_ZThn8_N4FIFE15JoystickManager18getEventSourceTypeEv
_fife.so:_ZThn8_N4FIFE15JoystickManagerD0Ev
_fife.so:_ZThn8_N4FIFE15JoystickManagerD1Ev
_fife.so:_ZThn8_N4FIFE16AnimationManagerD0Ev
_fife.so:_ZThn8_N4FIFE16AnimationManagerD1Ev
_fife.so:_ZThn8_N4FIFE16SoundClipManagerD0Ev
_fife.so:_ZThn8_N4FIFE16SoundClipManagerD1Ev
_fife.so:_ZThn8_N4FIFE6Camera11getRendererERKNSt7__cxx1112basic_stringIcSt11char_traitsIcESaIcEEE
_fife.so:_ZThn8_N4FIFE6CameraD0Ev
_fife.so:_ZThn8_N4FIFE6CameraD1Ev
_fife.so:_ZThn8_N4FIFE7GuiFont10getAsImageERKNSt7__cxx1112basic_stringIcSt11char_traitsIcESaIcEEE
_fife.so:_ZThn8_N4FIFE7GuiFont10invalidateEv
_fife.so:_ZThn8_N4FIFE7GuiFont12setAntiAliasEb
_fife.so:_ZThn8_N4FIFE7GuiFont12setBoldStyleEb
_fife.so:_ZThn8_N4FIFE7GuiFont13setRowSpacingEi
_fife.so:_ZThn8_N4FIFE7GuiFont14setItalicStyleEb
_fife.so:_ZThn8_N4FIFE7GuiFont15setGlyphSpacingEi
_fife.so:_ZThn8_N4FIFE7GuiFont16splitTextToWidthERKNSt7__cxx1112basic_stringIcSt11char_traitsIcESaIcEEEi
_fife.so:_ZThn8_N4FIFE7GuiFont17setUnderlineStyleEb
_fife.so:_ZThn8_N4FIFE7GuiFont18setDynamicColoringEb
_fife.so:_ZThn8_N4FIFE7GuiFont19getAsImageMultilineERKNSt7__cxx1112basic_stringIcSt11char_traitsIcESaIcEEE
_fife.so:_ZThn8_N4FIFE7GuiFont21setStrikethroughStyleEb
_fife.so:_ZThn8_N4FIFE7GuiFont8setColorEhhhh
_fife.so:_ZThn8_N4FIFE7GuiFontD0Ev
_fife.so:_ZThn8_N4FIFE7GuiFontD1Ev
_fife.so:_ZThn8_NK4FIFE7GuiFont11isAntiAliasEv
_fife.so:_ZThn8_NK4FIFE7GuiFont11isBoldStyleEv
_fife.so:_ZThn8_NK4FIFE7GuiFont13getRowSpacingEv
_fife.so:_ZThn8_NK4FIFE7GuiFont13isItalicStyleEv
_fife.so:_ZThn8_NK4FIFE7GuiFont15getGlyphSpacingEv
_fife.so:_ZThn8_NK4FIFE7GuiFont16getStringIndexAtERKNSt7__cxx1112basic_stringIcSt11char_traitsIcESaIcEEEi
_fife.so:_ZThn8_NK4FIFE7GuiFont16isUnderlineStyleEv
_fife.so:_ZThn8_NK4FIFE7GuiFont17isDynamicColoringEv
_fife.so:_ZThn8_NK4FIFE7GuiFont20isStrikethroughStyleEv
_fife.so:_ZThn8_NK4FIFE7GuiFont8getColorEv
_fife.so:_ZThn8_NK4FIFE7GuiFont8getWidthERKNSt7__cxx1112basic_stringIcSt11char_traitsIcESaIcEEE
_fife.so:_ZThn8_NK4FIFE7GuiFont9getHeightEv
_fife.so:_ZlsRSoRKN4FIFE7ZipNodeE
_fife.so:_ZlsRSoRKN4FIFE7ZipTreeE
_fife.so:moduleInfos
_fifechan.so:PyInit__fifechan
_fifechan.so:_ZN22SwigDirector_ListModel12getElementAtB5cxx11Ei
_fifechan.so:_ZN22SwigDirector_ListModel19getNumberOfElementsEv
_fifechan.so:_ZN22SwigDirector_ListModelC1EP7_object
_fifechan.so:_ZN22SwigDirector_ListModelC2EP7_object
_fifechan.so:_ZN22SwigDirector_ListModelD0Ev
_fifechan.so:_ZN22SwigDirector_ListModelD1Ev
_fifechan.so:_ZN22SwigDirector_ListModelD2Ev
_fifechan.so:_ZN24SwigDirector_KeyListener10keyPressedERN3fcn8KeyEventE
_fifechan.so:_ZN24SwigDirector_KeyListener11keyReleasedERN3fcn8KeyEventE
_fifechan.so:_ZN24SwigDirector_KeyListenerC1EP7_object
_fifechan.so:_ZN24SwigDirector_KeyListenerC2EP7_object
_fifechan.so:_ZN24SwigDirector_KeyListenerD0Ev
_fifechan.so:_ZN24SwigDirector_KeyListenerD1Ev
_fifechan.so:_ZN24SwigDirector_KeyListenerD2Ev
_fifechan.so:_ZN26SwigDirector_MouseListener10mouseMovedERN3fcn10MouseEventE
_fifechan.so:_ZN26SwigDirector_MouseListener11mouseExitedERN3fcn10MouseEventE
_fifechan.so:_ZN26SwigDirector_MouseListener12mouseClickedERN3fcn10MouseEventE
_fifechan.so:_ZN26SwigDirector_MouseListener12mouseDraggedERN3fcn10MouseEventE
_fifechan.so:_ZN26SwigDirector_MouseListener12mouseEnteredERN3fcn10MouseEventE
_fifechan.so:_ZN26SwigDirector_MouseListener12mousePressedERN3fcn10MouseEventE
_fifechan.so:_ZN26SwigDirector_MouseListener13mouseReleasedERN3fcn10MouseEventE
_fifechan.so:_ZN26SwigDirector_MouseListener17mouseWheelMovedUpERN3fcn10MouseEventE
_fifechan.so:_ZN26SwigDirector_MouseListener19mouseWheelMovedDownERN3fcn10MouseEventE
_fifechan.so:_ZN26SwigDirector_MouseListener19mouseWheelMovedLeftERN3fcn10MouseEventE
_fifechan.so:_ZN26SwigDirector_MouseListener20mouseWheelMovedRightERN3fcn10MouseEventE
_fifechan.so:_ZN26SwigDirector_MouseListenerC1EP7_object
_fifechan.so:_ZN26SwigDirector_MouseListenerC2EP7_object
_fifechan.so:_ZN26SwigDirector_MouseListenerD0Ev
_fifechan.so:_ZN26SwigDirector_MouseListenerD1Ev
_fifechan.so:_ZN26SwigDirector_MouseListenerD2Ev
_fifechan.so:_ZN27SwigDirector_ActionListener6actionERKN3fcn11ActionEventE
_fifechan.so:_ZN27SwigDirector_ActionListenerC1EP7_object
_fifechan.so:_ZN27SwigDirector_ActionListenerC2EP7_object
_fifechan.so:_ZN27SwigDirector_ActionListenerD0Ev
_fifechan.so:_ZN27SwigDirector_ActionListenerD1Ev
_fifechan.so:_ZN27SwigDirector_ActionListenerD2Ev
_fifechan.so:_ZN27SwigDirector_WidgetListener11widgetMovedERKN3fcn5EventE
_fifechan.so:_ZN27SwigDirector_WidgetListener11widgetShownERKN3fcn5EventE
_fifechan.so:_ZN27SwigDirector_WidgetListener12widgetHiddenERKN3fcn5EventE
_fifechan.so:_ZN27SwigDirector_WidgetListener13ancestorMovedERKN3fcn5EventE
_fifechan.so:_ZN27SwigDirector_WidgetListener13ancestorShownERKN3fcn5EventE
_fifechan.so:_ZN27SwigDirector_WidgetListener13widgetResizedERKN3fcn5EventE
_fifechan.so:_ZN27SwigDirector_WidgetListener14ancestorHiddenERKN3fcn5EventE
_fifechan.so:_ZN27SwigDirector_WidgetListenerC1EP7_object
_fifechan.so:_ZN27SwigDirector_WidgetListenerC2EP7_object
_fifechan.so:_ZN27SwigDirector_WidgetListenerD0Ev
_fifechan.so:_ZN27SwigDirector_WidgetListenerD1Ev
_fifechan.so:_ZN27SwigDirector_WidgetListenerD2Ev
_fifechan.so:_ZThn8_N22SwigDirector_ListModelD0Ev
_fifechan.so:_ZThn8_N22SwigDirector_ListModelD1Ev
_fifechan.so:_ZThn8_N24SwigDirector_KeyListenerD0Ev
_fifechan.so:_ZThn8_N24SwigDirector_KeyListenerD1Ev
_fifechan.so:_ZThn8_N26SwigDirector_MouseListenerD0Ev
_fifechan.so:_ZThn8_N26SwigDirector_MouseListenerD1Ev
_fifechan.so:_ZThn8_N27SwigDirector_ActionListenerD0Ev
_fifechan.so:_ZThn8_N27SwigDirector_ActionListenerD1Ev
_fifechan.so:_ZThn8_N27SwigDirector_WidgetListenerD0Ev
_fifechan.so:_ZThn8_N27SwigDirector_WidgetListenerD1Ev
