liboslcomp.so.1.13:_ZN9OSL_v1_1311OSLCompiler14compile_bufferEN16OpenImageIO_v2_517basic_string_viewIcSt11char_traitsIcEEERNSt7__cxx1112basic_stringIcS4_SaIcEEERKSt6vectorIS9_SaIS9_EES5_S5_
liboslcomp.so.1.13:_ZN9OSL_v1_1311OSLCompiler7compileEN16OpenImageIO_v2_517basic_string_viewIcSt11char_traitsIcEEERKSt6vectorINSt7__cxx1112basic_stringIcS4_SaIcEEESaISA_EES5_
liboslcomp.so.1.13:_ZN9OSL_v1_1311OSLCompilerC1EPN16OpenImageIO_v2_512ErrorHandlerE
liboslcomp.so.1.13:_ZN9OSL_v1_1311OSLCompilerC2EPN16OpenImageIO_v2_512ErrorHandlerE
liboslcomp.so.1.13:_ZN9OSL_v1_1311OSLCompilerD1Ev
liboslcomp.so.1.13:_ZN9OSL_v1_1311OSLCompilerD2Ev
liboslcomp.so.1.13:_ZNK9OSL_v1_1311OSLCompiler15output_filenameEv
liboslexec.so.1.13:_ZN9OSL_v1_1311Accumulator3endEPv
liboslexec.so.1.13:_ZN9OSL_v1_1311Accumulator4moveEN16OpenImageIO_v2_57ustringE
liboslexec.so.1.13:_ZN9OSL_v1_1311Accumulator4moveEN16OpenImageIO_v2_57ustringES2_PKS2_S2_
liboslexec.so.1.13:_ZN9OSL_v1_1311Accumulator4moveEPKN16OpenImageIO_v2_57ustringE
liboslexec.so.1.13:_ZN9OSL_v1_1311Accumulator5beginEv
liboslexec.so.1.13:_ZN9OSL_v1_1311Accumulator6setAovEiPNS_3AovEbb
liboslexec.so.1.13:_ZN9OSL_v1_1311Accumulator8popStateEv
liboslexec.so.1.13:_ZN9OSL_v1_1311Accumulator9pushStateEv
liboslexec.so.1.13:_ZN9OSL_v1_1311AccumulatorC1EPKNS_13AccumAutomataE
liboslexec.so.1.13:_ZN9OSL_v1_1311AccumulatorC2EPKNS_13AccumAutomataE
liboslexec.so.1.13:_ZN9OSL_v1_1311OSLCompiler14compile_bufferEN16OpenImageIO_v2_517basic_string_viewIcSt11char_traitsIcEEERNSt7__cxx1112basic_stringIcS4_SaIcEEERKSt6vectorIS9_SaIS9_EES5_S5_
liboslexec.so.1.13:_ZN9OSL_v1_1311OSLCompiler7compileEN16OpenImageIO_v2_517basic_string_viewIcSt11char_traitsIcEEERKSt6vectorINSt7__cxx1112basic_stringIcS4_SaIcEEESaISA_EES5_
liboslexec.so.1.13:_ZN9OSL_v1_1311OSLCompilerC1EPN16OpenImageIO_v2_512ErrorHandlerE
liboslexec.so.1.13:_ZN9OSL_v1_1311OSLCompilerC2EPN16OpenImageIO_v2_512ErrorHandlerE
liboslexec.so.1.13:_ZN9OSL_v1_1311OSLCompilerD1Ev
liboslexec.so.1.13:_ZN9OSL_v1_1311OSLCompilerD2Ev
liboslexec.so.1.13:_ZN9OSL_v1_1311shade_imageERNS_13ShadingSystemERNS_11ShaderGroupEPKNS_13ShaderGlobalsERN16OpenImageIO_v2_58ImageBufENS7_4spanIKNS7_7ustringELln1EEENS_19ShadeImageLocationsENS7_3ROIENS7_16parallel_optionsE
liboslexec.so.1.13:_ZN9OSL_v1_1313AccumAutomata7addRuleEPKcib
liboslexec.so.1.13:_ZN9OSL_v1_1313AccumAutomata7compileEv
liboslexec.so.1.13:_ZN9OSL_v1_1313AccumAutomataD1Ev
liboslexec.so.1.13:_ZN9OSL_v1_1313AccumAutomataD2Ev
liboslexec.so.1.13:_ZN9OSL_v1_1313ShadingSystem11ReParameterERNS_11ShaderGroupEN16OpenImageIO_v2_517basic_string_viewIcSt11char_traitsIcEEES7_NS3_8TypeDescEPKv
liboslexec.so.1.13:_ZN9OSL_v1_1313ShadingSystem11add_symlocsEN16OpenImageIO_v2_54spanIKNS_15SymLocationDescELln1EEE
liboslexec.so.1.13:_ZN9OSL_v1_1313ShadingSystem11add_symlocsEPNS_11ShaderGroupEN16OpenImageIO_v2_54spanIKNS_15SymLocationDescELln1EEE
liboslexec.so.1.13:_ZN9OSL_v1_1313ShadingSystem11get_contextEPNS_13PerThreadInfoEPN16OpenImageIO_v2_513TextureSystem9PerthreadE
liboslexec.so.1.13:_ZN9OSL_v1_1313ShadingSystem11globals_bitEN16OpenImageIO_v2_57ustringE
liboslexec.so.1.13:_ZN9OSL_v1_1313ShadingSystem11raytype_bitEN16OpenImageIO_v2_57ustringE
liboslexec.so.1.13:_ZN9OSL_v1_1313ShadingSystem12execute_initERNS_14ShadingContextERNS_11ShaderGroupEiiRNS_13ShaderGlobalsEPvS7_b
liboslexec.so.1.13:_ZN9OSL_v1_1313ShadingSystem12getattributeEN16OpenImageIO_v2_517basic_string_viewIcSt11char_traitsIcEEENS1_8TypeDescEPv
liboslexec.so.1.13:_ZN9OSL_v1_1313ShadingSystem12getattributeEPNS_11ShaderGroupEN16OpenImageIO_v2_517basic_string_viewIcSt11char_traitsIcEEENS3_8TypeDescEPv
liboslexec.so.1.13:_ZN9OSL_v1_1313ShadingSystem12globals_nameENS_6SGBitsE
liboslexec.so.1.13:_ZN9OSL_v1_1313ShadingSystem12set_raytypesEPNS_11ShaderGroupEii
liboslexec.so.1.13:_ZN9OSL_v1_1313ShadingSystem13clear_symlocsEPNS_11ShaderGroupE
liboslexec.so.1.13:_ZN9OSL_v1_1313ShadingSystem13clear_symlocsEv
liboslexec.so.1.13:_ZN9OSL_v1_1313ShadingSystem13convert_valueEPvN16OpenImageIO_v2_58TypeDescEPKvS3_
liboslexec.so.1.13:_ZN9OSL_v1_1313ShadingSystem13execute_layerERNS_14ShadingContextEiiRNS_13ShaderGlobalsEPvS5_N16OpenImageIO_v2_57ustringE
liboslexec.so.1.13:_ZN9OSL_v1_1313ShadingSystem13execute_layerERNS_14ShadingContextEiiRNS_13ShaderGlobalsEPvS5_PKNS_12ShaderSymbolE
liboslexec.so.1.13:_ZN9OSL_v1_1313ShadingSystem13execute_layerERNS_14ShadingContextEiiRNS_13ShaderGlobalsEPvS5_i
liboslexec.so.1.13:_ZN9OSL_v1_1313ShadingSystem13query_closureEPPKcPiPPKNS_12ClosureParamE
liboslexec.so.1.13:_ZN9OSL_v1_1313ShadingSystem14ConnectShadersEN16OpenImageIO_v2_517basic_string_viewIcSt11char_traitsIcEEES5_S5_S5_
liboslexec.so.1.13:_ZN9OSL_v1_1313ShadingSystem14ConnectShadersERNS_11ShaderGroupEN16OpenImageIO_v2_517basic_string_viewIcSt11char_traitsIcEEES7_S7_S7_
liboslexec.so.1.13:_ZN9OSL_v1_1313ShadingSystem14ShaderGroupEndERNS_11ShaderGroupE
liboslexec.so.1.13:_ZN9OSL_v1_1313ShadingSystem14ShaderGroupEndEv
liboslexec.so.1.13:_ZN9OSL_v1_1313ShadingSystem14optimize_groupEPNS_11ShaderGroupEPNS_14ShadingContextEb
liboslexec.so.1.13:_ZN9OSL_v1_1313ShadingSystem14optimize_groupEPNS_11ShaderGroupEiiPNS_14ShadingContextEb
liboslexec.so.1.13:_ZN9OSL_v1_1313ShadingSystem15execute_cleanupERNS_14ShadingContextE
liboslexec.so.1.13:_ZN9OSL_v1_1313ShadingSystem15release_contextEPNS_14ShadingContextE
liboslexec.so.1.13:_ZN9OSL_v1_1313ShadingSystem16ShaderGroupBeginEN16OpenImageIO_v2_517basic_string_viewIcSt11char_traitsIcEEE
liboslexec.so.1.13:_ZN9OSL_v1_1313ShadingSystem16ShaderGroupBeginEN16OpenImageIO_v2_517basic_string_viewIcSt11char_traitsIcEEES5_S5_
liboslexec.so.1.13:_ZN9OSL_v1_1313ShadingSystem16register_closureEN16OpenImageIO_v2_517basic_string_viewIcSt11char_traitsIcEEEiPKNS_12ClosureParamEPFvPNS_16RendererServicesEiPvESD_
liboslexec.so.1.13:_ZN9OSL_v1_1313ShadingSystem18create_thread_infoEv
liboslexec.so.1.13:_ZN9OSL_v1_1313ShadingSystem19archive_shadergroupEPNS_11ShaderGroupEN16OpenImageIO_v2_517basic_string_viewIcSt11char_traitsIcEEE
liboslexec.so.1.13:_ZN9OSL_v1_1313ShadingSystem19archive_shadergroupERNS_11ShaderGroupEN16OpenImageIO_v2_517basic_string_viewIcSt11char_traitsIcEEE
liboslexec.so.1.13:_ZN9OSL_v1_1313ShadingSystem19destroy_thread_infoEPNS_13PerThreadInfoE
liboslexec.so.1.13:_ZN9OSL_v1_1313ShadingSystem19optimize_all_groupsEib
liboslexec.so.1.13:_ZN9OSL_v1_1313ShadingSystem24LoadMemoryCompiledShaderEN16OpenImageIO_v2_517basic_string_viewIcSt11char_traitsIcEEES5_
liboslexec.so.1.13:_ZN9OSL_v1_1313ShadingSystem24register_inline_functionEN16OpenImageIO_v2_57ustringE
liboslexec.so.1.13:_ZN9OSL_v1_1313ShadingSystem26register_noinline_functionEN16OpenImageIO_v2_57ustringE
liboslexec.so.1.13:_ZN9OSL_v1_1313ShadingSystem26unregister_inline_functionEN16OpenImageIO_v2_57ustringE
liboslexec.so.1.13:_ZN9OSL_v1_1313ShadingSystem28unregister_noinline_functionEN16OpenImageIO_v2_57ustringE
liboslexec.so.1.13:_ZN9OSL_v1_1313ShadingSystem6ShaderEN16OpenImageIO_v2_517basic_string_viewIcSt11char_traitsIcEEES5_S5_
liboslexec.so.1.13:_ZN9OSL_v1_1313ShadingSystem6ShaderERNS_11ShaderGroupEN16OpenImageIO_v2_517basic_string_viewIcSt11char_traitsIcEEES7_S7_
liboslexec.so.1.13:_ZN9OSL_v1_1313ShadingSystem7executeERNS_14ShadingContextERNS_11ShaderGroupEiiRNS_13ShaderGlobalsEPvS7_b
liboslexec.so.1.13:_ZN9OSL_v1_1313ShadingSystem8oslqueryERKNS_11ShaderGroupEi
liboslexec.so.1.13:_ZN9OSL_v1_1313ShadingSystem9ParameterEN16OpenImageIO_v2_517basic_string_viewIcSt11char_traitsIcEEENS1_8TypeDescEPKvNS_10ParamHintsE
liboslexec.so.1.13:_ZN9OSL_v1_1313ShadingSystem9ParameterERNS_11ShaderGroupEN16OpenImageIO_v2_517basic_string_viewIcSt11char_traitsIcEEENS3_8TypeDescEPKvNS_10ParamHintsE
liboslexec.so.1.13:_ZN9OSL_v1_1313ShadingSystem9attributeEN16OpenImageIO_v2_517basic_string_viewIcSt11char_traitsIcEEENS1_8TypeDescEPKv
liboslexec.so.1.13:_ZN9OSL_v1_1313ShadingSystem9attributeEPNS_11ShaderGroupEN16OpenImageIO_v2_517basic_string_viewIcSt11char_traitsIcEEENS3_8TypeDescEPKv
liboslexec.so.1.13:_ZN9OSL_v1_1313ShadingSystemC1EPNS_16RendererServicesEPN16OpenImageIO_v2_513TextureSystemEPNS3_12ErrorHandlerE
liboslexec.so.1.13:_ZN9OSL_v1_1313ShadingSystemC2EPNS_16RendererServicesEPN16OpenImageIO_v2_513TextureSystemEPNS3_12ErrorHandlerE
liboslexec.so.1.13:_ZN9OSL_v1_1313ShadingSystemD1Ev
liboslexec.so.1.13:_ZN9OSL_v1_1313ShadingSystemD2Ev
liboslexec.so.1.13:_ZN9OSL_v1_1314ShadingContext10dict_valueEiN16OpenImageIO_v2_57ustringENS1_8TypeDescEPv
liboslexec.so.1.13:_ZN9OSL_v1_1314ShadingContext10find_regexB5cxx11EN16OpenImageIO_v2_57ustringE
liboslexec.so.1.13:_ZN9OSL_v1_1314ShadingContext12execute_initERNS_11ShaderGroupEiiRNS_13ShaderGlobalsEPvS5_b
liboslexec.so.1.13:_ZN9OSL_v1_1314ShadingContext13execute_layerEiiRNS_13ShaderGlobalsEPvS3_i
liboslexec.so.1.13:_ZN9OSL_v1_1314ShadingContext14ocio_transformIN9Imath_3_16Color3IfEEEEbN16OpenImageIO_v2_57ustringES6_RKT_RS7_
liboslexec.so.1.13:_ZN9OSL_v1_1314ShadingContext15execute_cleanupEv
liboslexec.so.1.13:_ZN9OSL_v1_1314ShadingContext17osl_get_attributeEPNS_13ShaderGlobalsEPviN16OpenImageIO_v2_511ustringhashES5_iiNS4_8TypeDescES3_
liboslexec.so.1.13:_ZN9OSL_v1_1314ShadingContext19free_dict_resourcesEv
liboslexec.so.1.13:_ZN9OSL_v1_1314ShadingContext7executeERNS_11ShaderGroupEiiRNS_13ShaderGlobalsEPvS5_b
liboslexec.so.1.13:_ZN9OSL_v1_1314ShadingContext9dict_findEPNS_13ShaderGlobalsEN16OpenImageIO_v2_57ustringES4_
liboslexec.so.1.13:_ZN9OSL_v1_1314ShadingContext9dict_findEPNS_13ShaderGlobalsEiN16OpenImageIO_v2_57ustringE
liboslexec.so.1.13:_ZN9OSL_v1_1314ShadingContext9dict_nextEi
liboslexec.so.1.13:_ZN9OSL_v1_1314ShadingContextC1ERNS_3pvt17ShadingSystemImplEPNS_13PerThreadInfoE
liboslexec.so.1.13:_ZN9OSL_v1_1314ShadingContextC2ERNS_3pvt17ShadingSystemImplEPNS_13PerThreadInfoE
liboslexec.so.1.13:_ZN9OSL_v1_1314ShadingContextD1Ev
liboslexec.so.1.13:_ZN9OSL_v1_1314ShadingContextD2Ev
liboslexec.so.1.13:_ZN9OSL_v1_1316RendererServices10get_matrixEPNS_13ShaderGlobalsERN9Imath_3_18Matrix44IfEEN16OpenImageIO_v2_511ustringhashE
liboslexec.so.1.13:_ZN9OSL_v1_1316RendererServices10get_matrixEPNS_13ShaderGlobalsERN9Imath_3_18Matrix44IfEEN16OpenImageIO_v2_511ustringhashEf
liboslexec.so.1.13:_ZN9OSL_v1_1316RendererServices10getmessageEPNS_13ShaderGlobalsEN16OpenImageIO_v2_511ustringhashES4_NS3_8TypeDescEPvb
liboslexec.so.1.13:_ZN9OSL_v1_1316RendererServices10warningfmtEPNS_13ShaderGlobalsEN16OpenImageIO_v2_511ustringhashEiPKNS_11EncodedTypeEjPh
liboslexec.so.1.13:_ZN9OSL_v1_1316RendererServices11environmentEN16OpenImageIO_v2_511ustringhashEPNS1_13TextureSystem13TextureHandleEPNS3_9PerthreadERNS1_10TextureOptEPNS_13ShaderGlobalsERKN9Imath_3_14Vec3IfEESG_SG_iPfSH_SH_PS2_
liboslexec.so.1.13:_ZN9OSL_v1_1316RendererServices12get_userdataEbN16OpenImageIO_v2_511ustringhashENS1_8TypeDescEPNS_13ShaderGlobalsEPv
liboslexec.so.1.13:_ZN9OSL_v1_1316RendererServices13get_attributeEPNS_13ShaderGlobalsEbN16OpenImageIO_v2_511ustringhashENS3_8TypeDescES4_Pv
liboslexec.so.1.13:_ZN9OSL_v1_1316RendererServices14pointcloud_getEPNS_13ShaderGlobalsEN16OpenImageIO_v2_511ustringhashEPmiS4_NS3_8TypeDescEPv
liboslexec.so.1.13:_ZN9OSL_v1_1316RendererServices16get_texture_infoEN16OpenImageIO_v2_511ustringhashEPNS1_13TextureSystem13TextureHandleEPNS3_9PerthreadEPNS_13ShaderGlobalsEiS2_NS1_8TypeDescEPvPS2_
liboslexec.so.1.13:_ZN9OSL_v1_1316RendererServices16get_texture_infoEN16OpenImageIO_v2_511ustringhashEPNS1_13TextureSystem13TextureHandleEffPNS3_9PerthreadEPNS_13ShaderGlobalsEiS2_NS1_8TypeDescEPvPS2_
liboslexec.so.1.13:_ZN9OSL_v1_1316RendererServices16pointcloud_writeEPNS_13ShaderGlobalsEN16OpenImageIO_v2_511ustringhashERKN9Imath_3_14Vec3IfEEiPKNS3_7ustringEPKNS3_8TypeDescEPPKv
liboslexec.so.1.13:_ZN9OSL_v1_1316RendererServices16transform_pointsEPNS_13ShaderGlobalsEN16OpenImageIO_v2_511ustringhashES4_fPKN9Imath_3_14Vec3IfEEPS7_iNS3_8TypeDesc12VECSEMANTICSE
liboslexec.so.1.13:_ZN9OSL_v1_1316RendererServices17pointcloud_searchEPNS_13ShaderGlobalsEN16OpenImageIO_v2_511ustringhashERKN9Imath_3_14Vec3IfEEfibPmPfi
liboslexec.so.1.13:_ZN9OSL_v1_1316RendererServices18get_inverse_matrixEPNS_13ShaderGlobalsERN9Imath_3_18Matrix44IfEEN16OpenImageIO_v2_511ustringhashE
liboslexec.so.1.13:_ZN9OSL_v1_1316RendererServices18get_inverse_matrixEPNS_13ShaderGlobalsERN9Imath_3_18Matrix44IfEEN16OpenImageIO_v2_511ustringhashEf
liboslexec.so.1.13:_ZN9OSL_v1_1316RendererServices18get_inverse_matrixEPNS_13ShaderGlobalsERN9Imath_3_18Matrix44IfEEPKv
liboslexec.so.1.13:_ZN9OSL_v1_1316RendererServices18get_inverse_matrixEPNS_13ShaderGlobalsERN9Imath_3_18Matrix44IfEEPKvf
liboslexec.so.1.13:_ZN9OSL_v1_1316RendererServices18get_texture_handleEN16OpenImageIO_v2_511ustringhashEPNS_14ShadingContextEPKNS1_10TextureOptE
liboslexec.so.1.13:_ZN9OSL_v1_1316RendererServices18get_texture_handleEN16OpenImageIO_v2_57ustringEPNS_14ShadingContextEPKNS1_10TextureOptE
liboslexec.so.1.13:_ZN9OSL_v1_1316RendererServices19get_array_attributeEPNS_13ShaderGlobalsEbN16OpenImageIO_v2_511ustringhashENS3_8TypeDescES4_iPv
liboslexec.so.1.13:_ZN9OSL_v1_1316RendererServices22build_attribute_getterERKNS_11ShaderGroupEbPKN16OpenImageIO_v2_57ustringES7_bPKiNS4_8TypeDescEbRNS_12FunctionSpecINS_10ArgVariantINS_23AttributeSpecBuiltinArgEEEEE
liboslexec.so.1.13:_ZN9OSL_v1_1316RendererServices4goodEPN16OpenImageIO_v2_513TextureSystem13TextureHandleE
liboslexec.so.1.13:_ZN9OSL_v1_1316RendererServices5traceERNS0_8TraceOptEPNS_13ShaderGlobalsERKN9Imath_3_14Vec3IfEES9_S9_S9_S9_S9_
liboslexec.so.1.13:_ZN9OSL_v1_1316RendererServices7batchedENS_7WidthOfILi16EEE
liboslexec.so.1.13:_ZN9OSL_v1_1316RendererServices7batchedENS_7WidthOfILi8EEE
liboslexec.so.1.13:_ZN9OSL_v1_1316RendererServices7filefmtEPNS_13ShaderGlobalsEN16OpenImageIO_v2_511ustringhashES4_iPKNS_11EncodedTypeEjPh
liboslexec.so.1.13:_ZN9OSL_v1_1316RendererServices7is_udimEPN16OpenImageIO_v2_513TextureSystem13TextureHandleE
liboslexec.so.1.13:_ZN9OSL_v1_1316RendererServices7textureEN16OpenImageIO_v2_511ustringhashEPNS1_13TextureSystem13TextureHandleEPNS3_9PerthreadERNS1_10TextureOptEPNS_13ShaderGlobalsEffffffiPfSC_SC_PS2_
liboslexec.so.1.13:_ZN9OSL_v1_1316RendererServices8errorfmtEPNS_13ShaderGlobalsEN16OpenImageIO_v2_511ustringhashEiPKNS_11EncodedTypeEjPh
liboslexec.so.1.13:_ZN9OSL_v1_1316RendererServices8printfmtEPNS_13ShaderGlobalsEN16OpenImageIO_v2_511ustringhashEiPKNS_11EncodedTypeEjPh
liboslexec.so.1.13:_ZN9OSL_v1_1316RendererServices9texture3dEN16OpenImageIO_v2_511ustringhashEPNS1_13TextureSystem13TextureHandleEPNS3_9PerthreadERNS1_10TextureOptEPNS_13ShaderGlobalsERKN9Imath_3_14Vec3IfEESG_SG_SG_iPfSH_SH_SH_PS2_
liboslexec.so.1.13:_ZN9OSL_v1_1316RendererServicesC1EPN16OpenImageIO_v2_513TextureSystemE
liboslexec.so.1.13:_ZN9OSL_v1_1316RendererServicesC2EPN16OpenImageIO_v2_513TextureSystemE
liboslexec.so.1.13:_ZN9OSL_v1_1319DfOptimizedAutomata10Transition10trans_compERKS1_S3_
liboslexec.so.1.13:_ZN9OSL_v1_1319DfOptimizedAutomata11compileFromERKNS_10DfAutomataE
liboslexec.so.1.13:_ZN9OSL_v1_1319register_JIT_GlobalEPKcPv
liboslexec.so.1.13:_ZN9OSL_v1_133pvt10PointCloud3getEN16OpenImageIO_v2_511ustringhashEb
liboslexec.so.1.13:_ZN9OSL_v1_133pvt10PointCloudC1EN16OpenImageIO_v2_511ustringhashEPN6Partio20ParticlesDataMutableEb
liboslexec.so.1.13:_ZN9OSL_v1_133pvt10PointCloudC2EN16OpenImageIO_v2_511ustringhashEPN6Partio20ParticlesDataMutableEb
liboslexec.so.1.13:_ZN9OSL_v1_133pvt10PointCloudD1Ev
liboslexec.so.1.13:_ZN9OSL_v1_133pvt10PointCloudD2Ev
liboslexec.so.1.13:_ZN9OSL_v1_133pvt11ColorSystem10fromStringEN16OpenImageIO_v2_57ustringE
liboslexec.so.1.13:_ZN9OSL_v1_133pvt11ColorSystem14set_colorspaceEN16OpenImageIO_v2_57ustringE
liboslexec.so.1.13:_ZN9OSL_v1_133pvt13print_closureERSoPKNS_12ClosureColorEPNS0_17ShadingSystemImplE
liboslexec.so.1.13:_ZN9OSL_v1_133pvt17ShadingSystemImpl11raytype_bitEN16OpenImageIO_v2_57ustringE
liboslexec.so.1.13:_ZN9OSL_v1_133pvt27get_max_warnings_per_threadEPv
liboslexec.so.1.13:_ZN9OSL_v1_133pvt9LLVM_Util10constant16Es
liboslexec.so.1.13:_ZN9OSL_v1_133pvt9LLVM_Util10constant16Et
liboslexec.so.1.13:_ZN9OSL_v1_133pvt9LLVM_Util10constant64Ed
liboslexec.so.1.13:_ZN9OSL_v1_133pvt9LLVM_Util10constant64Em
liboslexec.so.1.13:_ZN9OSL_v1_133pvt9LLVM_Util10execengineEPN4llvm15ExecutionEngineE
liboslexec.so.1.13:_ZN9OSL_v1_133pvt9LLVM_Util10new_moduleEPKc
liboslexec.so.1.13:_ZN9OSL_v1_133pvt9LLVM_Util10offset_ptrEPN4llvm5ValueES4_PNS2_4TypeE
liboslexec.so.1.13:_ZN9OSL_v1_133pvt9LLVM_Util10offset_ptrEPN4llvm5ValueEiPNS2_4TypeE
liboslexec.so.1.13:_ZN9OSL_v1_133pvt9LLVM_Util10op_extractEPN4llvm5ValueES4_
liboslexec.so.1.13:_ZN9OSL_v1_133pvt9LLVM_Util10op_extractEPN4llvm5ValueEi
liboslexec.so.1.13:_ZN9OSL_v1_133pvt9LLVM_Util10op_scatterEPN4llvm5ValueEPNS2_4TypeES4_S4_
liboslexec.so.1.13:_ZN9OSL_v1_133pvt9LLVM_Util10op_zero_ifEPN4llvm5ValueES4_
liboslexec.so.1.13:_ZN9OSL_v1_133pvt9LLVM_Util10type_arrayEPN4llvm4TypeEi
liboslexec.so.1.13:_ZN9OSL_v1_133pvt9LLVM_Util10type_unionEN16OpenImageIO_v2_54spanIKPN4llvm4TypeELln1EEE
liboslexec.so.1.13:_ZN9OSL_v1_133pvt9LLVM_Util11constant128Em
liboslexec.so.1.13:_ZN9OSL_v1_133pvt9LLVM_Util11constant128Emm
liboslexec.so.1.13:_ZN9OSL_v1_133pvt9LLVM_Util11constanti64El
liboslexec.so.1.13:_ZN9OSL_v1_133pvt9LLVM_Util11do_optimizeEPNSt7__cxx1112basic_stringIcSt11char_traitsIcESaIcEEE
liboslexec.so.1.13:_ZN9OSL_v1_133pvt9LLVM_Util11end_builderEv
liboslexec.so.1.13:_ZN9OSL_v1_133pvt9LLVM_Util11int_as_maskEPN4llvm5ValueE
liboslexec.so.1.13:_ZN9OSL_v1_133pvt9LLVM_Util11mask_as_intEPN4llvm5ValueE
liboslexec.so.1.13:_ZN9OSL_v1_133pvt9LLVM_Util11negate_maskEPN4llvm5ValueE
liboslexec.so.1.13:_ZN9OSL_v1_133pvt9LLVM_Util11new_builderEPN4llvm10BasicBlockE
liboslexec.so.1.13:_ZN9OSL_v1_133pvt9LLVM_Util11op_split_8xEPN4llvm5ValueE
liboslexec.so.1.13:_ZN9OSL_v1_133pvt9LLVM_Util11ptr_to_castEPN4llvm5ValueEPNS2_4TypeERKNSt7__cxx1112basic_stringIcSt11char_traitsIcESaIcEEE
liboslexec.so.1.13:_ZN9OSL_v1_133pvt9LLVM_Util11shader_maskEv
liboslexec.so.1.13:_ZN9OSL_v1_133pvt9LLVM_Util11type_structEN16OpenImageIO_v2_54spanIKPN4llvm4TypeELln1EEERKNSt7__cxx1112basic_stringIcSt11char_traitsIcESaIcEEEb
liboslexec.so.1.13:_ZN9OSL_v1_133pvt9LLVM_Util11ustring_repENS1_10UstringRepE
liboslexec.so.1.13:_ZN9OSL_v1_133pvt9LLVM_Util11widen_valueEPN4llvm5ValueE
liboslexec.so.1.13:_ZN9OSL_v1_133pvt9LLVM_Util12constant_ptrEPvPN4llvm11PointerTypeE
liboslexec.so.1.13:_ZN9OSL_v1_133pvt9LLVM_Util12current_maskEv
liboslexec.so.1.13:_ZN9OSL_v1_133pvt9LLVM_Util12mask_as_int8EPN4llvm5ValueE
liboslexec.so.1.13:_ZN9OSL_v1_133pvt9LLVM_Util12op_load_maskEPN4llvm5ValueE
liboslexec.so.1.13:_ZN9OSL_v1_133pvt9LLVM_Util12op_split_16xEPN4llvm5ValueE
liboslexec.so.1.13:_ZN9OSL_v1_133pvt9LLVM_Util12pop_functionEv
liboslexec.so.1.13:_ZN9OSL_v1_133pvt9LLVM_Util12supports_isaENS0_9TargetISAE
liboslexec.so.1.13:_ZN9OSL_v1_133pvt9LLVM_Util13PerThreadInfoD1Ev
liboslexec.so.1.13:_ZN9OSL_v1_133pvt9LLVM_Util13PerThreadInfoD2Ev
liboslexec.so.1.13:_ZN9OSL_v1_133pvt9LLVM_Util13absorb_moduleESt10unique_ptrIN4llvm6ModuleESt14default_deleteIS4_EE
liboslexec.so.1.13:_ZN9OSL_v1_133pvt9LLVM_Util13call_functionEPKcN16OpenImageIO_v2_54spanIKPN4llvm5ValueELln1EEE
liboslexec.so.1.13:_ZN9OSL_v1_133pvt9LLVM_Util13call_functionEPN4llvm5ValueEN16OpenImageIO_v2_54spanIKS4_Lln1EEE
liboslexec.so.1.13:_ZN9OSL_v1_133pvt9LLVM_Util13constant_boolEb
liboslexec.so.1.13:_ZN9OSL_v1_133pvt9LLVM_Util13func_is_emptyEPN4llvm8FunctionE
liboslexec.so.1.13:_ZN9OSL_v1_133pvt9LLVM_Util13is_type_arrayEPN4llvm4TypeE
liboslexec.so.1.13:_ZN9OSL_v1_133pvt9LLVM_Util13make_functionERKNSt7__cxx1112basic_stringIcSt11char_traitsIcESaIcEEEbPN4llvm4TypeEN16OpenImageIO_v2_54spanIKSC_Lln1EEEb
liboslexec.so.1.13:_ZN9OSL_v1_133pvt9LLVM_Util13mask4_as_int8EPN4llvm5ValueE
liboslexec.so.1.13:_ZN9OSL_v1_133pvt9LLVM_Util13mask_as_int16EPN4llvm5ValueE
liboslexec.so.1.13:_ZN9OSL_v1_133pvt9LLVM_Util13module_stringB5cxx11Ev
liboslexec.so.1.13:_ZN9OSL_v1_133pvt9LLVM_Util13op_store_maskEPN4llvm5ValueES4_
liboslexec.so.1.13:_ZN9OSL_v1_133pvt9LLVM_Util13push_functionEPN4llvm10BasicBlockE
liboslexec.so.1.13:_ZN9OSL_v1_133pvt9LLVM_Util13type_functionEPN4llvm4TypeEN16OpenImageIO_v2_54spanIKS4_Lln1EEEb
liboslexec.so.1.13:_ZN9OSL_v1_133pvt9LLVM_Util13void_ptr_nullEv
liboslexec.so.1.13:_ZN9OSL_v1_133pvt9LLVM_Util13wide_constantEN16OpenImageIO_v2_57ustringE
liboslexec.so.1.13:_ZN9OSL_v1_133pvt9LLVM_Util13wide_constantEPN4llvm8ConstantE
liboslexec.so.1.13:_ZN9OSL_v1_133pvt9LLVM_Util13wide_constantEf
liboslexec.so.1.13:_ZN9OSL_v1_133pvt9LLVM_Util13wide_constantEi
liboslexec.so.1.13:_ZN9OSL_v1_133pvt9LLVM_Util13wide_constantEif
liboslexec.so.1.13:_ZN9OSL_v1_133pvt9LLVM_Util13wide_constantEii
liboslexec.so.1.13:_ZN9OSL_v1_133pvt9LLVM_Util13wide_constantEm
liboslexec.so.1.13:_ZN9OSL_v1_133pvt9LLVM_Util13wide_ptr_castEPN4llvm5ValueERKN16OpenImageIO_v2_58TypeDescE
liboslexec.so.1.13:_ZN9OSL_v1_133pvt9LLVM_Util14bitcode_stringB5cxx11EPN4llvm6ModuleE
liboslexec.so.1.13:_ZN9OSL_v1_133pvt9LLVM_Util14bitcode_stringB5cxx11EPN4llvm8FunctionE
liboslexec.so.1.13:_ZN9OSL_v1_133pvt9LLVM_Util14op_bool_to_intEPN4llvm5ValueE
liboslexec.so.1.13:_ZN9OSL_v1_133pvt9LLVM_Util14op_int_to_boolEPN4llvm5ValueE
liboslexec.so.1.13:_ZN9OSL_v1_133pvt9LLVM_Util14op_masked_exitEv
liboslexec.so.1.13:_ZN9OSL_v1_133pvt9LLVM_Util14op_quarter_16xEPN4llvm5ValueE
liboslexec.so.1.13:_ZN9OSL_v1_133pvt9LLVM_Util14test_mask_laneEPN4llvm5ValueES4_
liboslexec.so.1.13:_ZN9OSL_v1_133pvt9LLVM_Util14test_mask_laneEPN4llvm5ValueEi
liboslexec.so.1.13:_ZN9OSL_v1_133pvt9LLVM_Util14wide_op_allocaERKN16OpenImageIO_v2_58TypeDescEiRKNSt7__cxx1112basic_stringIcSt11char_traitsIcESaIcEEEi
liboslexec.so.1.13:_ZN9OSL_v1_133pvt9LLVM_Util15apply_return_toEPN4llvm5ValueE
liboslexec.so.1.13:_ZN9OSL_v1_133pvt9LLVM_Util15element_type_ofEPN4llvm4TypeE
liboslexec.so.1.13:_ZN9OSL_v1_133pvt9LLVM_Util15int_to_ptr_castEPN4llvm5ValueE
liboslexec.so.1.13:_ZN9OSL_v1_133pvt9LLVM_Util15new_basic_blockERKNSt7__cxx1112basic_stringIcSt11char_traitsIcESaIcEEE
liboslexec.so.1.13:_ZN9OSL_v1_133pvt9LLVM_Util15op_float_to_intEPN4llvm5ValueE
liboslexec.so.1.13:_ZN9OSL_v1_133pvt9LLVM_Util15op_int_to_floatEPN4llvm5ValueE
liboslexec.so.1.13:_ZN9OSL_v1_133pvt9LLVM_Util15op_masked_breakEv
liboslexec.so.1.13:_ZN9OSL_v1_133pvt9LLVM_Util15pop_masked_loopEv
liboslexec.so.1.13:_ZN9OSL_v1_133pvt9LLVM_Util15target_isa_nameENS0_9TargetISAE
liboslexec.so.1.13:_ZN9OSL_v1_133pvt9LLVM_Util16delete_func_bodyEPN4llvm8FunctionE
liboslexec.so.1.13:_ZN9OSL_v1_133pvt9LLVM_Util16llvm_vector_typeEPN4llvm4TypeEj
liboslexec.so.1.13:_ZN9OSL_v1_133pvt9LLVM_Util16llvm_vector_typeERKN16OpenImageIO_v2_58TypeDescE
liboslexec.so.1.13:_ZN9OSL_v1_133pvt9LLVM_Util16op_bool_to_floatEPN4llvm5ValueE
liboslexec.so.1.13:_ZN9OSL_v1_133pvt9LLVM_Util16op_is_not_finiteEPN4llvm5ValueE
liboslexec.so.1.13:_ZN9OSL_v1_133pvt9LLVM_Util16op_masked_returnEv
liboslexec.so.1.13:_ZN9OSL_v1_133pvt9LLVM_Util16push_masked_loopEPN4llvm5ValueES4_
liboslexec.so.1.13:_ZN9OSL_v1_133pvt9LLVM_Util16set_insert_pointEPN4llvm10BasicBlockE
liboslexec.so.1.13:_ZN9OSL_v1_133pvt9LLVM_Util17op_unmasked_storeEPN4llvm5ValueES4_
liboslexec.so.1.13:_ZN9OSL_v1_133pvt9LLVM_Util17pop_function_maskEv
liboslexec.so.1.13:_ZN9OSL_v1_133pvt9LLVM_Util17ptr_to_int64_castEPN4llvm5ValueE
liboslexec.so.1.13:_ZN9OSL_v1_133pvt9LLVM_Util17ptx_compile_groupEPN4llvm6ModuleERKNSt7__cxx1112basic_stringIcSt11char_traitsIcESaIcEEERSA_
liboslexec.so.1.13:_ZN9OSL_v1_133pvt9LLVM_Util17type_function_ptrEPN4llvm4TypeEN16OpenImageIO_v2_54spanIKS4_Lln1EEEb
liboslexec.so.1.13:_ZN9OSL_v1_133pvt9LLVM_Util18add_global_mappingEPKcPv
liboslexec.so.1.13:_ZN9OSL_v1_133pvt9LLVM_Util18debug_pop_functionEv
liboslexec.so.1.13:_ZN9OSL_v1_133pvt9LLVM_Util18debug_set_locationEN16OpenImageIO_v2_57ustringEi
liboslexec.so.1.13:_ZN9OSL_v1_133pvt9LLVM_Util18lookup_isa_by_nameEN16OpenImageIO_v2_517basic_string_viewIcSt11char_traitsIcEEE
liboslexec.so.1.13:_ZN9OSL_v1_133pvt9LLVM_Util18op_float_to_doubleEPN4llvm5ValueE
liboslexec.so.1.13:_ZN9OSL_v1_133pvt9LLVM_Util18op_int_to_longlongEPN4llvm5ValueE
liboslexec.so.1.13:_ZN9OSL_v1_133pvt9LLVM_Util18op_masked_continueEv
liboslexec.so.1.13:_ZN9OSL_v1_133pvt9LLVM_Util18push_function_maskEPN4llvm5ValueE
liboslexec.so.1.13:_ZN9OSL_v1_133pvt9LLVM_Util18wide_constant_boolEb
liboslexec.so.1.13:_ZN9OSL_v1_133pvt9LLVM_Util18write_bitcode_fileEPKcPNSt7__cxx1112basic_stringIcSt11char_traitsIcESaIcEEE
liboslexec.so.1.13:_ZN9OSL_v1_133pvt9LLVM_Util19ScopedJitMemoryUserC1Ev
liboslexec.so.1.13:_ZN9OSL_v1_133pvt9LLVM_Util19ScopedJitMemoryUserC2Ev
liboslexec.so.1.13:_ZN9OSL_v1_133pvt9LLVM_Util19ScopedJitMemoryUserD1Ev
liboslexec.so.1.13:_ZN9OSL_v1_133pvt9LLVM_Util19ScopedJitMemoryUserD2Ev
liboslexec.so.1.13:_ZN9OSL_v1_133pvt9LLVM_Util19debug_push_functionERKNSt7__cxx1112basic_stringIcSt11char_traitsIcESaIcEEEN16OpenImageIO_v2_57ustringEi
liboslexec.so.1.13:_ZN9OSL_v1_133pvt9LLVM_Util19detect_cpu_featuresENS0_9TargetISAEb
liboslexec.so.1.13:_ZN9OSL_v1_133pvt9LLVM_Util19llvm_mask_to_nativeEPN4llvm5ValueE
liboslexec.so.1.13:_ZN9OSL_v1_133pvt9LLVM_Util19make_jit_execengineEPNSt7__cxx1112basic_stringIcSt11char_traitsIcESaIcEEENS0_9TargetISAEbb
liboslexec.so.1.13:_ZN9OSL_v1_133pvt9LLVM_Util19mark_fast_func_callEPN4llvm5ValueE
liboslexec.so.1.13:_ZN9OSL_v1_133pvt9LLVM_Util19module_from_bitcodeEPKcmRKNSt7__cxx1112basic_stringIcSt11char_traitsIcESaIcEEEPS9_
liboslexec.so.1.13:_ZN9OSL_v1_133pvt9LLVM_Util19native_to_llvm_maskEPN4llvm5ValueE
liboslexec.so.1.13:_ZN9OSL_v1_133pvt9LLVM_Util19pop_shader_instanceEv
liboslexec.so.1.13:_ZN9OSL_v1_133pvt9LLVM_Util20add_function_mappingEPN4llvm8FunctionEPv
liboslexec.so.1.13:_ZN9OSL_v1_133pvt9LLVM_Util20current_function_argEi
liboslexec.so.1.13:_ZN9OSL_v1_133pvt9LLVM_Util20getPointerToFunctionEPN4llvm8FunctionE
liboslexec.so.1.13:_ZN9OSL_v1_133pvt9LLVM_Util20nvptx_target_machineEv
liboslexec.so.1.13:_ZN9OSL_v1_133pvt9LLVM_Util20push_shader_instanceEPN4llvm5ValueE
liboslexec.so.1.13:_ZN9OSL_v1_133pvt9LLVM_Util21assume_ptr_is_alignedEPN4llvm5ValueEj
liboslexec.so.1.13:_ZN9OSL_v1_133pvt9LLVM_Util21op_1st_active_lane_ofEPN4llvm5ValueE
liboslexec.so.1.13:_ZN9OSL_v1_133pvt9LLVM_Util21op_combine_4x_vectorsEPN4llvm5ValueES4_
liboslexec.so.1.13:_ZN9OSL_v1_133pvt9LLVM_Util21op_combine_8x_vectorsEPN4llvm5ValueES4_
liboslexec.so.1.13:_ZN9OSL_v1_133pvt9LLVM_Util21total_jit_memory_heldEv
liboslexec.so.1.13:_ZN9OSL_v1_133pvt9LLVM_Util23dump_struct_data_layoutEPN4llvm4TypeE
liboslexec.so.1.13:_ZN9OSL_v1_133pvt9LLVM_Util23getOrCreateDebugFileForERKNSt7__cxx1112basic_stringIcSt11char_traitsIcESaIcEEE
liboslexec.so.1.13:_ZN9OSL_v1_133pvt9LLVM_Util23op_linearize_8x_indicesEPN4llvm5ValueE
liboslexec.so.1.13:_ZN9OSL_v1_133pvt9LLVM_Util23pop_masked_return_blockEv
liboslexec.so.1.13:_ZN9OSL_v1_133pvt9LLVM_Util24apply_exit_to_mask_stackEv
liboslexec.so.1.13:_ZN9OSL_v1_133pvt9LLVM_Util24op_linearize_16x_indicesEPN4llvm5ValueE
liboslexec.so.1.13:_ZN9OSL_v1_133pvt9LLVM_Util24push_masked_return_blockEPN4llvm10BasicBlockE
liboslexec.so.1.13:_ZN9OSL_v1_133pvt9LLVM_Util24test_if_mask_is_non_zeroEPN4llvm5ValueE
liboslexec.so.1.13:_ZN9OSL_v1_133pvt9LLVM_Util24validate_global_mappingsERSt6vectorINSt7__cxx1112basic_stringIcSt11char_traitsIcESaIcEEESaIS8_EE
liboslexec.so.1.13:_ZN9OSL_v1_133pvt9LLVM_Util25apply_break_to_mask_stackEv
liboslexec.so.1.13:_ZN9OSL_v1_133pvt9LLVM_Util25setup_optimization_passesEib
liboslexec.so.1.13:_ZN9OSL_v1_133pvt9LLVM_Util26InstallLazyFunctionCreatorEPFPvRKNSt7__cxx1112basic_stringIcSt11char_traitsIcESaIcEEEE
liboslexec.so.1.13:_ZN9OSL_v1_133pvt9LLVM_Util26apply_return_to_mask_stackEv
liboslexec.so.1.13:_ZN9OSL_v1_133pvt9LLVM_Util26debug_pop_inlined_functionEv
liboslexec.so.1.13:_ZN9OSL_v1_133pvt9LLVM_Util26op_lanes_that_match_maskedEPN4llvm5ValueES4_S4_
liboslexec.so.1.13:_ZN9OSL_v1_133pvt9LLVM_Util26type_struct_field_at_indexEPN4llvm4TypeEi
liboslexec.so.1.13:_ZN9OSL_v1_133pvt9LLVM_Util27debug_push_inlined_functionEN16OpenImageIO_v2_57ustringES3_i
liboslexec.so.1.13:_ZN9OSL_v1_133pvt9LLVM_Util27validate_struct_data_layoutEPN4llvm4TypeERKSt6vectorIjSaIjEE
liboslexec.so.1.13:_ZN9OSL_v1_133pvt9LLVM_Util28apply_continue_to_mask_stackEv
liboslexec.so.1.13:_ZN9OSL_v1_133pvt9LLVM_Util28debug_setup_compilation_unitEPKc
liboslexec.so.1.13:_ZN9OSL_v1_133pvt9LLVM_Util28internalize_module_functionsERKNSt7__cxx1112basic_stringIcSt11char_traitsIcESaIcEEERKSt6vectorIS7_SaIS7_EESE_
liboslexec.so.1.13:_ZN9OSL_v1_133pvt9LLVM_Util28prune_and_internalize_moduleESt13unordered_setIPN4llvm8FunctionESt4hashIS5_ESt8equal_toIS5_ESaIS5_EENS1_7LinkageEPNSt7__cxx1112basic_stringIcSt11char_traitsIcESaIcEEE
liboslexec.so.1.13:_ZN9OSL_v1_133pvt9LLVM_Util29setup_new_optimization_passesEib
liboslexec.so.1.13:_ZN9OSL_v1_133pvt9LLVM_Util32setup_legacy_optimization_passesEib
liboslexec.so.1.13:_ZN9OSL_v1_133pvt9LLVM_Util3GEPEPN4llvm4TypeEPNS2_5ValueES6_RKNSt7__cxx1112basic_stringIcSt11char_traitsIcESaIcEEE
liboslexec.so.1.13:_ZN9OSL_v1_133pvt9LLVM_Util3GEPEPN4llvm4TypeEPNS2_5ValueEiRKNSt7__cxx1112basic_stringIcSt11char_traitsIcESaIcEEE
liboslexec.so.1.13:_ZN9OSL_v1_133pvt9LLVM_Util3GEPEPN4llvm4TypeEPNS2_5ValueEiiRKNSt7__cxx1112basic_stringIcSt11char_traitsIcESaIcEEE
liboslexec.so.1.13:_ZN9OSL_v1_133pvt9LLVM_Util3GEPEPN4llvm4TypeEPNS2_5ValueEiiiRKNSt7__cxx1112basic_stringIcSt11char_traitsIcESaIcEEE
liboslexec.so.1.13:_ZN9OSL_v1_133pvt9LLVM_Util5op_eqEPN4llvm5ValueES4_b
liboslexec.so.1.13:_ZN9OSL_v1_133pvt9LLVM_Util5op_geEPN4llvm5ValueES4_b
liboslexec.so.1.13:_ZN9OSL_v1_133pvt9LLVM_Util5op_gtEPN4llvm5ValueES4_b
liboslexec.so.1.13:_ZN9OSL_v1_133pvt9LLVM_Util5op_leEPN4llvm5ValueES4_b
liboslexec.so.1.13:_ZN9OSL_v1_133pvt9LLVM_Util5op_ltEPN4llvm5ValueES4_b
liboslexec.so.1.13:_ZN9OSL_v1_133pvt9LLVM_Util5op_neEPN4llvm5ValueES4_b
liboslexec.so.1.13:_ZN9OSL_v1_133pvt9LLVM_Util5op_orEPN4llvm5ValueES4_
liboslexec.so.1.13:_ZN9OSL_v1_133pvt9LLVM_Util6op_addEPN4llvm5ValueES4_
liboslexec.so.1.13:_ZN9OSL_v1_133pvt9LLVM_Util6op_andEPN4llvm5ValueES4_
liboslexec.so.1.13:_ZN9OSL_v1_133pvt9LLVM_Util6op_divEPN4llvm5ValueES4_
liboslexec.so.1.13:_ZN9OSL_v1_133pvt9LLVM_Util6op_modEPN4llvm5ValueES4_
liboslexec.so.1.13:_ZN9OSL_v1_133pvt9LLVM_Util6op_mulEPN4llvm5ValueES4_
liboslexec.so.1.13:_ZN9OSL_v1_133pvt9LLVM_Util6op_negEPN4llvm5ValueE
liboslexec.so.1.13:_ZN9OSL_v1_133pvt9LLVM_Util6op_notEPN4llvm5ValueE
liboslexec.so.1.13:_ZN9OSL_v1_133pvt9LLVM_Util6op_shlEPN4llvm5ValueES4_
liboslexec.so.1.13:_ZN9OSL_v1_133pvt9LLVM_Util6op_shrEPN4llvm5ValueES4_
liboslexec.so.1.13:_ZN9OSL_v1_133pvt9LLVM_Util6op_subEPN4llvm5ValueES4_
liboslexec.so.1.13:_ZN9OSL_v1_133pvt9LLVM_Util6op_xorEPN4llvm5ValueES4_
liboslexec.so.1.13:_ZN9OSL_v1_133pvt9LLVM_Util7builderEv
liboslexec.so.1.13:_ZN9OSL_v1_133pvt9LLVM_Util7op_fabsEPN4llvm5ValueE
liboslexec.so.1.13:_ZN9OSL_v1_133pvt9LLVM_Util7op_loadEPN4llvm4TypeEPNS2_5ValueERKNSt7__cxx1112basic_stringIcSt11char_traitsIcESaIcEEE
liboslexec.so.1.13:_ZN9OSL_v1_133pvt9LLVM_Util8constantEN16OpenImageIO_v2_57ustringE
liboslexec.so.1.13:_ZN9OSL_v1_133pvt9LLVM_Util8constantERKN16OpenImageIO_v2_58TypeDescE
liboslexec.so.1.13:_ZN9OSL_v1_133pvt9LLVM_Util8constantEf
liboslexec.so.1.13:_ZN9OSL_v1_133pvt9LLVM_Util8constantEi
liboslexec.so.1.13:_ZN9OSL_v1_133pvt9LLVM_Util8constantEj
liboslexec.so.1.13:_ZN9OSL_v1_133pvt9LLVM_Util8constantEm
liboslexec.so.1.13:_ZN9OSL_v1_133pvt9LLVM_Util8op_storeEPN4llvm5ValueES4_
liboslexec.so.1.13:_ZN9OSL_v1_133pvt9LLVM_Util8pop_loopEv
liboslexec.so.1.13:_ZN9OSL_v1_133pvt9LLVM_Util8pop_maskEv
liboslexec.so.1.13:_ZN9OSL_v1_133pvt9LLVM_Util8ptr_castEPN4llvm5ValueEPNS2_4TypeERKNSt7__cxx1112basic_stringIcSt11char_traitsIcESaIcEEE
liboslexec.so.1.13:_ZN9OSL_v1_133pvt9LLVM_Util8ptr_castEPN4llvm5ValueERKN16OpenImageIO_v2_58TypeDescERKNSt7__cxx1112basic_stringIcSt11char_traitsIcESaIcEEE
liboslexec.so.1.13:_ZN9OSL_v1_133pvt9LLVM_Util8type_ptrEPN4llvm4TypeE
liboslexec.so.1.13:_ZN9OSL_v1_133pvt9LLVM_Util8void_ptrEPN4llvm5ValueERKNSt7__cxx1112basic_stringIcSt11char_traitsIcESaIcEEE
liboslexec.so.1.13:_ZN9OSL_v1_133pvt9LLVM_Util9SetupLLVMEv
liboslexec.so.1.13:_ZN9OSL_v1_133pvt9LLVM_Util9constant8Ea
liboslexec.so.1.13:_ZN9OSL_v1_133pvt9LLVM_Util9constant8Eh
liboslexec.so.1.13:_ZN9OSL_v1_133pvt9LLVM_Util9func_nameB5cxx11EPN4llvm8FunctionE
liboslexec.so.1.13:_ZN9OSL_v1_133pvt9LLVM_Util9llvm_typeERKN16OpenImageIO_v2_58TypeDescE
liboslexec.so.1.13:_ZN9OSL_v1_133pvt9LLVM_Util9op_allocaEPN4llvm4TypeEiRKNSt7__cxx1112basic_stringIcSt11char_traitsIcESaIcEEEi
liboslexec.so.1.13:_ZN9OSL_v1_133pvt9LLVM_Util9op_allocaERKN16OpenImageIO_v2_58TypeDescEiRKNSt7__cxx1112basic_stringIcSt11char_traitsIcESaIcEEEi
liboslexec.so.1.13:_ZN9OSL_v1_133pvt9LLVM_Util9op_branchEPN4llvm10BasicBlockE
liboslexec.so.1.13:_ZN9OSL_v1_133pvt9LLVM_Util9op_branchEPN4llvm5ValueEPNS2_10BasicBlockES6_
liboslexec.so.1.13:_ZN9OSL_v1_133pvt9LLVM_Util9op_gatherEPN4llvm4TypeEPNS2_5ValueES6_
liboslexec.so.1.13:_ZN9OSL_v1_133pvt9LLVM_Util9op_insertEPN4llvm5ValueES4_i
liboslexec.so.1.13:_ZN9OSL_v1_133pvt9LLVM_Util9op_memcpyEPN4llvm5ValueES4_ii
liboslexec.so.1.13:_ZN9OSL_v1_133pvt9LLVM_Util9op_memcpyEPN4llvm5ValueEiS4_ii
liboslexec.so.1.13:_ZN9OSL_v1_133pvt9LLVM_Util9op_memsetEPN4llvm5ValueEiS4_i
liboslexec.so.1.13:_ZN9OSL_v1_133pvt9LLVM_Util9op_memsetEPN4llvm5ValueEiii
liboslexec.so.1.13:_ZN9OSL_v1_133pvt9LLVM_Util9op_returnEPN4llvm5ValueE
liboslexec.so.1.13:_ZN9OSL_v1_133pvt9LLVM_Util9op_selectEPN4llvm5ValueES4_S4_
liboslexec.so.1.13:_ZN9OSL_v1_133pvt9LLVM_Util9push_loopEPN4llvm10BasicBlockES4_
liboslexec.so.1.13:_ZN9OSL_v1_133pvt9LLVM_Util9push_maskEPN4llvm5ValueEbb
liboslexec.so.1.13:_ZN9OSL_v1_133pvt9LLVM_Util9type_wideEPN4llvm4TypeE
liboslexec.so.1.13:_ZN9OSL_v1_133pvt9LLVM_UtilC1ERKNS1_13PerThreadInfoEii
liboslexec.so.1.13:_ZN9OSL_v1_133pvt9LLVM_UtilC2ERKNS1_13PerThreadInfoEii
liboslexec.so.1.13:_ZN9OSL_v1_133pvt9LLVM_UtilD1Ev
liboslexec.so.1.13:_ZN9OSL_v1_133pvt9LLVM_UtilD2Ev
liboslexec.so.1.13:_ZN9OSL_v1_136Labels10BACKGROUNDE
liboslexec.so.1.13:_ZN9OSL_v1_136Labels4NONEE
liboslexec.so.1.13:_ZN9OSL_v1_136Labels4STOPE
liboslexec.so.1.13:_ZN9OSL_v1_136Labels5LIGHTE
liboslexec.so.1.13:_ZN9OSL_v1_136Labels6CAMERAE
liboslexec.so.1.13:_ZN9OSL_v1_136Labels6GLOSSYE
liboslexec.so.1.13:_ZN9OSL_v1_136Labels6OBJECTE
liboslexec.so.1.13:_ZN9OSL_v1_136Labels6VOLUMEE
liboslexec.so.1.13:_ZN9OSL_v1_136Labels7DIFFUSEE
liboslexec.so.1.13:_ZN9OSL_v1_136Labels7REFLECTE
liboslexec.so.1.13:_ZN9OSL_v1_136Labels8SINGULARE
liboslexec.so.1.13:_ZN9OSL_v1_136Labels8STRAIGHTE
liboslexec.so.1.13:_ZN9OSL_v1_136Labels8TRANSMITE
liboslexec.so.1.13:_ZN9OSL_v1_137Strings10ACES2065_1E
liboslexec.so.1.13:_ZN9OSL_v1_137Strings10catmullromE
liboslexec.so.1.13:_ZN9OSL_v1_137Strings10gabornoiseE
liboslexec.so.1.13:_ZN9OSL_v1_137Strings10op_dowhileE
liboslexec.so.1.13:_ZN9OSL_v1_137Strings10pcellnoiseE
liboslexec.so.1.13:_ZN9OSL_v1_137Strings10phashnoiseE
liboslexec.so.1.13:_ZN9OSL_v1_137Strings10smartcubicE
liboslexec.so.1.13:_ZN9OSL_v1_137Strings11anisotropicE
liboslexec.so.1.13:_ZN9OSL_v1_137Strings11arraylengthE
liboslexec.so.1.13:_ZN9OSL_v1_137Strings11colorsystemE
liboslexec.so.1.13:_ZN9OSL_v1_137Strings11gaborpnoiseE
liboslexec.so.1.13:_ZN9OSL_v1_137Strings12errormessageE
liboslexec.so.1.13:_ZN9OSL_v1_137Strings12firstchannelE
liboslexec.so.1.13:_ZN9OSL_v1_137Strings12genericnoiseE
liboslexec.so.1.13:_ZN9OSL_v1_137Strings12missingalphaE
liboslexec.so.1.13:_ZN9OSL_v1_137Strings12missingcolorE
liboslexec.so.1.13:_ZN9OSL_v1_137Strings12simplexnoiseE
liboslexec.so.1.13:_ZN9OSL_v1_137Strings12subimagenameE
liboslexec.so.1.13:_ZN9OSL_v1_137Strings13_emptystring_E
liboslexec.so.1.13:_ZN9OSL_v1_137Strings13genericpnoiseE
liboslexec.so.1.13:_ZN9OSL_v1_137Strings13usimplexnoiseE
liboslexec.so.1.13:_ZN9OSL_v1_137Strings19ErrorColorTransformE
liboslexec.so.1.13:_ZN9OSL_v1_137Strings1IE
liboslexec.so.1.13:_ZN9OSL_v1_137Strings1NE
liboslexec.so.1.13:_ZN9OSL_v1_137Strings1PE
liboslexec.so.1.13:_ZN9OSL_v1_137Strings1uE
liboslexec.so.1.13:_ZN9OSL_v1_137Strings1vE
liboslexec.so.1.13:_ZN9OSL_v1_137Strings20uninitialized_stringE
liboslexec.so.1.13:_ZN9OSL_v1_137Strings2CiE
liboslexec.so.1.13:_ZN9OSL_v1_137Strings2NgE
liboslexec.so.1.13:_ZN9OSL_v1_137Strings2PsE
liboslexec.so.1.13:_ZN9OSL_v1_137Strings3CIEE
liboslexec.so.1.13:_ZN9OSL_v1_137Strings3EBUE
liboslexec.so.1.13:_ZN9OSL_v1_137Strings3NDCE
liboslexec.so.1.13:_ZN9OSL_v1_137Strings3PALE
liboslexec.so.1.13:_ZN9OSL_v1_137Strings3RGBE
liboslexec.so.1.13:_ZN9OSL_v1_137Strings3XYZE
liboslexec.so.1.13:_ZN9OSL_v1_137Strings3YIQE
liboslexec.so.1.13:_ZN9OSL_v1_137Strings3endE
liboslexec.so.1.13:_ZN9OSL_v1_137Strings3hslE
liboslexec.so.1.13:_ZN9OSL_v1_137Strings3hsvE
liboslexec.so.1.13:_ZN9OSL_v1_137Strings3rgbE
liboslexec.so.1.13:_ZN9OSL_v1_137Strings3xyYE
liboslexec.so.1.13:_ZN9OSL_v1_137Strings3xyzE
liboslexec.so.1.13:_ZN9OSL_v1_137Strings4HDTVE
liboslexec.so.1.13:_ZN9OSL_v1_137Strings4NTSCE
liboslexec.so.1.13:_ZN9OSL_v1_137Strings4backE
liboslexec.so.1.13:_ZN9OSL_v1_137Strings4blurE
liboslexec.so.1.13:_ZN9OSL_v1_137Strings4bothE
liboslexec.so.1.13:_ZN9OSL_v1_137Strings4cellE
liboslexec.so.1.13:_ZN9OSL_v1_137Strings4dPduE
liboslexec.so.1.13:_ZN9OSL_v1_137Strings4dPdvE
liboslexec.so.1.13:_ZN9OSL_v1_137Strings4fillE
liboslexec.so.1.13:_ZN9OSL_v1_137Strings4hashE
liboslexec.so.1.13:_ZN9OSL_v1_137Strings4nullE
liboslexec.so.1.13:_ZN9OSL_v1_137Strings4sRGBE
liboslexec.so.1.13:_ZN9OSL_v1_137Strings4timeE
liboslexec.so.1.13:_ZN9OSL_v1_137Strings4wrapE
liboslexec.so.1.13:_ZN9OSL_v1_137Strings5SECAME
liboslexec.so.1.13:_ZN9OSL_v1_137Strings5SMPTEE
liboslexec.so.1.13:_ZN9OSL_v1_137Strings5alphaE
liboslexec.so.1.13:_ZN9OSL_v1_137Strings5blackE
liboslexec.so.1.13:_ZN9OSL_v1_137Strings5clampE
liboslexec.so.1.13:_ZN9OSL_v1_137Strings5colorE
liboslexec.so.1.13:_ZN9OSL_v1_137Strings5cubicE
liboslexec.so.1.13:_ZN9OSL_v1_137Strings5dtimeE
liboslexec.so.1.13:_ZN9OSL_v1_137Strings5errorE
liboslexec.so.1.13:_ZN9OSL_v1_137Strings5frontE
liboslexec.so.1.13:_ZN9OSL_v1_137Strings5gaborE
liboslexec.so.1.13:_ZN9OSL_v1_137Strings5labelE
liboslexec.so.1.13:_ZN9OSL_v1_137Strings5noiseE
liboslexec.so.1.13:_ZN9OSL_v1_137Strings5pointE
liboslexec.so.1.13:_ZN9OSL_v1_137Strings5rblurE
liboslexec.so.1.13:_ZN9OSL_v1_137Strings5rwrapE
liboslexec.so.1.13:_ZN9OSL_v1_137Strings5sblurE
liboslexec.so.1.13:_ZN9OSL_v1_137Strings5shadeE
liboslexec.so.1.13:_ZN9OSL_v1_137Strings5swrapE
liboslexec.so.1.13:_ZN9OSL_v1_137Strings5tblurE
liboslexec.so.1.13:_ZN9OSL_v1_137Strings5twrapE
liboslexec.so.1.13:_ZN9OSL_v1_137Strings5unullE
liboslexec.so.1.13:_ZN9OSL_v1_137Strings5widthE
liboslexec.so.1.13:_ZN9OSL_v1_137Strings6ACEScgE
liboslexec.so.1.13:_ZN9OSL_v1_137Strings6Rec709E
liboslexec.so.1.13:_ZN9OSL_v1_137Strings6bezierE
liboslexec.so.1.13:_ZN9OSL_v1_137Strings6cameraE
liboslexec.so.1.13:_ZN9OSL_v1_137Strings6commonE
liboslexec.so.1.13:_ZN9OSL_v1_137Strings6interpE
liboslexec.so.1.13:_ZN9OSL_v1_137Strings6linearE
liboslexec.so.1.13:_ZN9OSL_v1_137Strings6matrixE
liboslexec.so.1.13:_ZN9OSL_v1_137Strings6mirrorE
liboslexec.so.1.13:_ZN9OSL_v1_137Strings6normalE
liboslexec.so.1.13:_ZN9OSL_v1_137Strings6objectE
liboslexec.so.1.13:_ZN9OSL_v1_137Strings6op_forE
liboslexec.so.1.13:_ZN9OSL_v1_137Strings6perlinE
liboslexec.so.1.13:_ZN9OSL_v1_137Strings6pnoiseE
liboslexec.so.1.13:_ZN9OSL_v1_137Strings6rwidthE
liboslexec.so.1.13:_ZN9OSL_v1_137Strings6screenE
liboslexec.so.1.13:_ZN9OSL_v1_137Strings6shaderE
liboslexec.so.1.13:_ZN9OSL_v1_137Strings6snoiseE
liboslexec.so.1.13:_ZN9OSL_v1_137Strings6swidthE
liboslexec.so.1.13:_ZN9OSL_v1_137Strings6twidthE
liboslexec.so.1.13:_ZN9OSL_v1_137Strings6vectorE
liboslexec.so.1.13:_ZN9OSL_v1_137Strings7bsplineE
liboslexec.so.1.13:_ZN9OSL_v1_137Strings7closestE
liboslexec.so.1.13:_ZN9OSL_v1_137Strings7dPdtimeE
liboslexec.so.1.13:_ZN9OSL_v1_137Strings7hermiteE
liboslexec.so.1.13:_ZN9OSL_v1_137Strings7maxdistE
liboslexec.so.1.13:_ZN9OSL_v1_137Strings7mindistE
liboslexec.so.1.13:_ZN9OSL_v1_137Strings7op_exitE
liboslexec.so.1.13:_ZN9OSL_v1_137Strings7psnoiseE
liboslexec.so.1.13:_ZN9OSL_v1_137Strings7raytypeE
liboslexec.so.1.13:_ZN9OSL_v1_137Strings7simplexE
liboslexec.so.1.13:_ZN9OSL_v1_137Strings7unknownE
liboslexec.so.1.13:_ZN9OSL_v1_137Strings7uperlinE
liboslexec.so.1.13:_ZN9OSL_v1_137Strings8AdobeRGBE
liboslexec.so.1.13:_ZN9OSL_v1_137Strings8constantE
liboslexec.so.1.13:_ZN9OSL_v1_137Strings8default_E
liboslexec.so.1.13:_ZN9OSL_v1_137Strings8impulsesE
liboslexec.so.1.13:_ZN9OSL_v1_137Strings8op_whileE
liboslexec.so.1.13:_ZN9OSL_v1_137Strings8periodicE
liboslexec.so.1.13:_ZN9OSL_v1_137Strings8subimageE
liboslexec.so.1.13:_ZN9OSL_v1_137Strings8tracesetE
liboslexec.so.1.13:_ZN9OSL_v1_137Strings8useparamE
liboslexec.so.1.13:_ZN9OSL_v1_137Strings8usimplexE
liboslexec.so.1.13:_ZN9OSL_v1_137Strings9bandwidthE
liboslexec.so.1.13:_ZN9OSL_v1_137Strings9cellnoiseE
liboslexec.so.1.13:_ZN9OSL_v1_137Strings9directionE
liboslexec.so.1.13:_ZN9OSL_v1_137Strings9do_filterE
liboslexec.so.1.13:_ZN9OSL_v1_137Strings9hashnoiseE
liboslexec.so.1.13:_ZN9OSL_v1_137Strings9sidednessE
liboslexec.so.1.13:_ZN9OSL_v1_137journal17initialize_bufferEPhjji
liboslexec.so.1.13:_ZN9OSL_v1_137journal19Report2ErrorHandler12report_errorEiiRKN16OpenImageIO_v2_517basic_string_viewIcSt11char_traitsIcEEE
liboslexec.so.1.13:_ZN9OSL_v1_137journal19Report2ErrorHandler12report_printEiiRKN16OpenImageIO_v2_517basic_string_viewIcSt11char_traitsIcEEE
liboslexec.so.1.13:_ZN9OSL_v1_137journal19Report2ErrorHandler14report_warningEiiRKN16OpenImageIO_v2_517basic_string_viewIcSt11char_traitsIcEEE
liboslexec.so.1.13:_ZN9OSL_v1_137journal19Report2ErrorHandler17report_file_printEiiRKN16OpenImageIO_v2_517basic_string_viewIcSt11char_traitsIcEEES8_
liboslexec.so.1.13:_ZN9OSL_v1_137journal19Report2ErrorHandlerC1EPN16OpenImageIO_v2_512ErrorHandlerERNS0_21TrackRecentlyReportedE
liboslexec.so.1.13:_ZN9OSL_v1_137journal19Report2ErrorHandlerC2EPN16OpenImageIO_v2_512ErrorHandlerERNS0_21TrackRecentlyReportedE
liboslexec.so.1.13:_ZN9OSL_v1_137journal21TrackRecentlyReported17shouldReportErrorERKN16OpenImageIO_v2_517basic_string_viewIcSt11char_traitsIcEEE
liboslexec.so.1.13:_ZN9OSL_v1_137journal21TrackRecentlyReported19shouldReportWarningERKN16OpenImageIO_v2_517basic_string_viewIcSt11char_traitsIcEEE
liboslexec.so.1.13:_ZN9OSL_v1_137journal21TrackRecentlyReportedC1Ebibi
liboslexec.so.1.13:_ZN9OSL_v1_137journal21TrackRecentlyReportedC2Ebibi
liboslexec.so.1.13:_ZN9OSL_v1_137journal6Reader26process_entries_for_threadEi
liboslexec.so.1.13:_ZN9OSL_v1_137journal6Reader7processEv
liboslexec.so.1.13:_ZN9OSL_v1_137journal6ReaderC1EPKhRNS0_8ReporterE
liboslexec.so.1.13:_ZN9OSL_v1_137journal6ReaderC2EPKhRNS0_8ReporterE
liboslexec.so.1.13:_ZN9OSL_v1_138OSLQuery4initEPKNS_11ShaderGroupEi
liboslexec.so.1.13:_ZN9OSL_v1_138OSLQueryC1EPKNS_11ShaderGroupEi
liboslexec.so.1.13:_ZN9OSL_v1_138OSLQueryC2EPKNS_11ShaderGroupEi
liboslexec.so.1.13:_ZNK9OSL_v1_1311OSLCompiler15output_filenameEv
liboslexec.so.1.13:_ZNK9OSL_v1_1313AccumAutomata5accumEiRKN9Imath_3_16Color3IfEERSt6vectorINS_9AovOutputESaIS7_EE
liboslexec.so.1.13:_ZNK9OSL_v1_1313ShadingSystem10find_layerERKNS_11ShaderGroupEN16OpenImageIO_v2_57ustringE
liboslexec.so.1.13:_ZNK9OSL_v1_1313ShadingSystem10get_symbolERKNS_14ShadingContextEN16OpenImageIO_v2_57ustringERNS4_8TypeDescE
liboslexec.so.1.13:_ZNK9OSL_v1_1313ShadingSystem10get_symbolERKNS_14ShadingContextEN16OpenImageIO_v2_57ustringES5_RNS4_8TypeDescE
liboslexec.so.1.13:_ZNK9OSL_v1_1313ShadingSystem10texturesysEv
liboslexec.so.1.13:_ZNK9OSL_v1_1313ShadingSystem11find_symbolERKNS_11ShaderGroupEN16OpenImageIO_v2_57ustringE
liboslexec.so.1.13:_ZNK9OSL_v1_1313ShadingSystem11find_symbolERKNS_11ShaderGroupEN16OpenImageIO_v2_57ustringES5_
liboslexec.so.1.13:_ZNK9OSL_v1_1313ShadingSystem11find_symlocEN16OpenImageIO_v2_57ustringE
liboslexec.so.1.13:_ZNK9OSL_v1_1313ShadingSystem11find_symlocEN16OpenImageIO_v2_57ustringENS_8SymArenaE
liboslexec.so.1.13:_ZNK9OSL_v1_1313ShadingSystem11find_symlocEPKNS_11ShaderGroupEN16OpenImageIO_v2_57ustringE
liboslexec.so.1.13:_ZNK9OSL_v1_1313ShadingSystem11find_symlocEPKNS_11ShaderGroupEN16OpenImageIO_v2_57ustringENS_8SymArenaE
liboslexec.so.1.13:_ZNK9OSL_v1_1313ShadingSystem14symbol_addressERKNS_14ShadingContextEPKNS_12ShaderSymbolE
liboslexec.so.1.13:_ZNK9OSL_v1_1313ShadingSystem15symbol_typedescEPKNS_12ShaderSymbolE
liboslexec.so.1.13:_ZNK9OSL_v1_1313ShadingSystem8getstatsB5cxx11Ei
liboslexec.so.1.13:_ZNK9OSL_v1_1313ShadingSystem8rendererEv
liboslexec.so.1.13:_ZNK9OSL_v1_1314ShadingContext11symbol_dataERKNS_3pvt6SymbolE
liboslexec.so.1.13:_ZNK9OSL_v1_1314ShadingContext12record_errorEN16OpenImageIO_v2_512ErrorHandler7ErrCodeERKNSt7__cxx1112basic_stringIcSt11char_traitsIcESaIcEEE
liboslexec.so.1.13:_ZNK9OSL_v1_1314ShadingContext14process_errorsEv
liboslexec.so.1.13:_ZNK9OSL_v1_1314ShadingContext6symbolEN16OpenImageIO_v2_57ustringES2_
liboslexec.so.1.13:_ZNK9OSL_v1_1316RendererServices10texturesysEv
liboslexec.so.1.13:_ZNK9OSL_v1_133pvt11ColorSystem10transformcEN16OpenImageIO_v2_57ustringES3_RKN9Imath_3_16Color3IfEEPNS_14ShadingContextEPNS_13ShaderGlobalsE
liboslexec.so.1.13:_ZNK9OSL_v1_133pvt11ColorSystem10transformcEN16OpenImageIO_v2_57ustringES3_RKNS_4DualIN9Imath_3_16Color3IfEELi2EEEPNS_14ShadingContextEPNS_13ShaderGlobalsE
liboslexec.so.1.13:_ZNK9OSL_v1_133pvt11ColorSystem14ocio_transformEN16OpenImageIO_v2_57ustringES3_RKN9Imath_3_16Color3IfEEPNS_14ShadingContextEPNS_13ShaderGlobalsE
liboslexec.so.1.13:_ZNK9OSL_v1_133pvt11ColorSystem14ocio_transformEN16OpenImageIO_v2_57ustringES3_RKNS_4DualIN9Imath_3_16Color3IfEELi2EEEPNS_14ShadingContextEPNS_13ShaderGlobalsE
liboslexec.so.1.13:_ZNK9OSL_v1_133pvt11ColorSystem6to_rgbEN16OpenImageIO_v2_57ustringERKN9Imath_3_16Color3IfEEPNS_14ShadingContextEPNS_13ShaderGlobalsE
liboslexec.so.1.13:_ZNK9OSL_v1_133pvt11ColorSystem8from_rgbEN16OpenImageIO_v2_57ustringERKN9Imath_3_16Color3IfEEPNS_14ShadingContextEPNS_13ShaderGlobalsE
liboslexec.so.1.13:_ZNK9OSL_v1_133pvt9LLVM_Util11llvm_sizeofEPN4llvm4TypeE
liboslexec.so.1.13:_ZNK9OSL_v1_133pvt9LLVM_Util11llvm_typeofEPN4llvm5ValueE
liboslexec.so.1.13:_ZNK9OSL_v1_133pvt9LLVM_Util12return_blockEv
liboslexec.so.1.13:_ZNK9OSL_v1_133pvt9LLVM_Util13PerThreadInfo3getEv
liboslexec.so.1.13:_ZNK9OSL_v1_133pvt9LLVM_Util13llvm_typenameB5cxx11EPN4llvm4TypeE
liboslexec.so.1.13:_ZNK9OSL_v1_133pvt9LLVM_Util15inside_functionEv
liboslexec.so.1.13:_ZNK9OSL_v1_133pvt9LLVM_Util15llvm_typenameofB5cxx11EPN4llvm5ValueE
liboslexec.so.1.13:_ZNK9OSL_v1_133pvt9LLVM_Util15loop_step_blockEv
liboslexec.so.1.13:_ZNK9OSL_v1_133pvt9LLVM_Util16debug_is_enabledEv
liboslexec.so.1.13:_ZNK9OSL_v1_133pvt9LLVM_Util16llvm_alignmentofEPN4llvm4TypeE
liboslexec.so.1.13:_ZNK9OSL_v1_133pvt9LLVM_Util16loop_after_blockEv
liboslexec.so.1.13:_ZNK9OSL_v1_133pvt9LLVM_Util17masked_exit_countEv
liboslexec.so.1.13:_ZNK9OSL_v1_133pvt9LLVM_Util18masked_break_countEv
liboslexec.so.1.13:_ZNK9OSL_v1_133pvt9LLVM_Util19masked_return_blockEv
liboslexec.so.1.13:_ZNK9OSL_v1_133pvt9LLVM_Util19masked_return_countEv
liboslexec.so.1.13:_ZNK9OSL_v1_133pvt9LLVM_Util20getCurrentDebugScopeEv
liboslexec.so.1.13:_ZNK9OSL_v1_133pvt9LLVM_Util21masked_continue_countEv
liboslexec.so.1.13:_ZNK9OSL_v1_133pvt9LLVM_Util22getCurrentInliningSiteEv
liboslexec.so.1.13:_ZNK9OSL_v1_133pvt9LLVM_Util23has_masked_return_blockEv
liboslexec.so.1.13:_ZNK9OSL_v1_133pvt9LLVM_Util24is_innermost_loop_maskedEv
liboslexec.so.1.13:_ZNK9OSL_v1_139AccumRule5accumERKN9Imath_3_16Color3IfEERSt6vectorINS_9AovOutputESaIS7_EE
liboslexec.so.1.13:_ZTIN9OSL_v1_1316RendererServicesE
liboslexec.so.1.13:_ZTIN9OSL_v1_137journal19Report2ErrorHandlerE
liboslexec.so.1.13:_ZTSN9OSL_v1_1316RendererServicesE
liboslexec.so.1.13:_ZTSN9OSL_v1_137journal19Report2ErrorHandlerE
liboslexec.so.1.13:_ZTVN9OSL_v1_1316RendererServicesE
liboslexec.so.1.13:_ZTVN9OSL_v1_137journal19Report2ErrorHandlerE
liboslnoise.so.1.13:_ZN9OSL_v1_133pvt13simplexnoise1EfiPf
liboslnoise.so.1.13:_ZN9OSL_v1_133pvt13simplexnoise2EffiPfS1_
liboslnoise.so.1.13:_ZN9OSL_v1_133pvt13simplexnoise3EfffiPfS1_S1_
liboslnoise.so.1.13:_ZN9OSL_v1_133pvt13simplexnoise4EffffiPfS1_S1_S1_
liboslnoise.so.1.13:_ZN9OSL_v1_133pvt5gaborERKNS_4DualIN9Imath_3_14Vec3IfEELi2EEEPKNS_11NoiseParamsE
liboslnoise.so.1.13:_ZN9OSL_v1_133pvt5gaborERKNS_4DualIfLi2EEEPKNS_11NoiseParamsE
liboslnoise.so.1.13:_ZN9OSL_v1_133pvt5gaborERKNS_4DualIfLi2EEES4_PKNS_11NoiseParamsE
liboslnoise.so.1.13:_ZN9OSL_v1_133pvt6gabor3ERKNS_4DualIN9Imath_3_14Vec3IfEELi2EEEPKNS_11NoiseParamsE
liboslnoise.so.1.13:_ZN9OSL_v1_133pvt6gabor3ERKNS_4DualIfLi2EEEPKNS_11NoiseParamsE
liboslnoise.so.1.13:_ZN9OSL_v1_133pvt6gabor3ERKNS_4DualIfLi2EEES4_PKNS_11NoiseParamsE
liboslnoise.so.1.13:_ZN9OSL_v1_133pvt6pgaborERKNS_4DualIN9Imath_3_14Vec3IfEELi2EEERKS4_PKNS_11NoiseParamsE
liboslnoise.so.1.13:_ZN9OSL_v1_133pvt6pgaborERKNS_4DualIfLi2EEES4_ffPKNS_11NoiseParamsE
liboslnoise.so.1.13:_ZN9OSL_v1_133pvt6pgaborERKNS_4DualIfLi2EEEfPKNS_11NoiseParamsE
liboslnoise.so.1.13:_ZN9OSL_v1_133pvt7pgabor3ERKNS_4DualIN9Imath_3_14Vec3IfEELi2EEERKS4_PKNS_11NoiseParamsE
liboslnoise.so.1.13:_ZN9OSL_v1_133pvt7pgabor3ERKNS_4DualIfLi2EEES4_ffPKNS_11NoiseParamsE
liboslnoise.so.1.13:_ZN9OSL_v1_133pvt7pgabor3ERKNS_4DualIfLi2EEEfPKNS_11NoiseParamsE
liboslquery.so.1.13:_ZN9OSL_v1_138OSLQuery13open_bytecodeEN16OpenImageIO_v2_517basic_string_viewIcSt11char_traitsIcEEE
liboslquery.so.1.13:_ZN9OSL_v1_138OSLQuery4openEN16OpenImageIO_v2_517basic_string_viewIcSt11char_traitsIcEEES5_
liboslquery.so.1.13:_ZN9OSL_v1_138OSLQuery9ParameterC1EOS1_
liboslquery.so.1.13:_ZN9OSL_v1_138OSLQuery9ParameterC1ERKS1_
liboslquery.so.1.13:_ZN9OSL_v1_138OSLQuery9ParameterC2EOS1_
liboslquery.so.1.13:_ZN9OSL_v1_138OSLQuery9ParameterC2ERKS1_
liboslquery.so.1.13:_ZN9OSL_v1_138OSLQuery9ParameteraSEOS1_
liboslquery.so.1.13:_ZN9OSL_v1_138OSLQuery9ParameteraSERKS1_
liboslquery.so.1.13:_ZN9OSL_v1_138OSLQueryC1Ev
liboslquery.so.1.13:_ZN9OSL_v1_138OSLQueryC2Ev
liboslquery.so.1.13:_ZN9OSL_v1_138OSLQueryD1Ev
liboslquery.so.1.13:_ZN9OSL_v1_138OSLQueryD2Ev
libtestshade.so.1.13:test_shade
osl.imageio.so:osl_imageio_version
osl.imageio.so:osl_input_extensions
osl.imageio.so:osl_input_imageio_create
osl.imageio.so:osl_input_imageio_delete
oslquery.so:PyInit_oslquery
