libKF6CoreAddons.so.6:_ZN5KUserC1ENS_7UIDModeE
libKF6CoreAddons.so.6:_ZN5KUserD1Ev
libKF6CoreAddons.so.6:_ZN8KProcess11qt_metacallEN11QMetaObject4CallEiPPv
libKF6CoreAddons.so.6:_ZN8KProcess11qt_metacastEPKc
libKF6CoreAddons.so.6:_ZN8KProcess16staticMetaObjectE
libKF6CoreAddons.so.6:_ZN8KProcessC2EP7QObject
libKF6CoreAddons.so.6:_ZN8KProcessD2Ev
libKF6CoreAddons.so.6:_ZNK5KUser9loginNameEv
libKF6CoreAddons.so.6:_ZTI8KProcess
libKF6I18n.so.6:_Z6ki18ndPKcS0_
libKF6I18n.so.6:_ZN16KLocalizedStringD1Ev
libKF6I18n.so.6:_ZNK16KLocalizedString8toStringEv
libQt6Core.so.6:_Z7qgetenvPKc
libQt6Core.so.6:_ZN10QArrayData19reallocateUnalignedEPS_PvxxNS_16AllocationOptionE
libQt6Core.so.6:_ZN10QArrayData8allocateEPPS_xxxNS_16AllocationOptionE
libQt6Core.so.6:_ZN10QByteArray11reallocDataExN10QArrayData16AllocationOptionE
libQt6Core.so.6:_ZN10QByteArray6_emptyE
libQt6Core.so.6:_ZN10QByteArray6resizeEx
libQt6Core.so.6:_ZN10QByteArrayaSEPKc
libQt6Core.so.6:_ZN11QMetaObject10ConnectionD1Ev
libQt6Core.so.6:_ZN11QMetaObject8activateEP7QObjectPKS_iPPv
libQt6Core.so.6:_ZN11QTextStreamlsERK7QString
libQt6Core.so.6:_ZN11QTextStreamlsEc
libQt6Core.so.6:_ZN11QTextStreamlsEi
libQt6Core.so.6:_ZN15QSocketNotifier10setEnabledEb
libQt6Core.so.6:_ZN15QSocketNotifierC1ExNS_4TypeEP7QObject
libQt6Core.so.6:_ZN16QLoggingCategoryC1EPKc9QtMsgType
libQt6Core.so.6:_ZN16QLoggingCategoryD1Ev
libQt6Core.so.6:_ZN6QDebugD1Ev
libQt6Core.so.6:_ZN7QObject10childEventEP11QChildEvent
libQt6Core.so.6:_ZN7QObject10timerEventEP11QTimerEvent
libQt6Core.so.6:_ZN7QObject11connectImplEPKS_PPvS1_S3_PN9QtPrivate15QSlotObjectBaseEN2Qt14ConnectionTypeEPKiPK11QMetaObject
libQt6Core.so.6:_ZN7QObject11customEventEP6QEvent
libQt6Core.so.6:_ZN7QObject11eventFilterEPS_P6QEvent
libQt6Core.so.6:_ZN7QObject13connectNotifyERK11QMetaMethod
libQt6Core.so.6:_ZN7QObject14disconnectImplEPKS_PPvS1_S3_PK11QMetaObject
libQt6Core.so.6:_ZN7QObject16disconnectNotifyERK11QMetaMethod
libQt6Core.so.6:_ZN7QObject5eventEP6QEvent
libQt6Core.so.6:_ZN7QObject7connectEPKS_PKcS1_S3_N2Qt14ConnectionTypeE
libQt6Core.so.6:_ZN7QString18toLocal8Bit_helperEPK5QCharx
libQt6Core.so.6:_ZN7QString8fromUtf8E14QByteArrayView
libQt6Core.so.6:_ZN8QProcess12stateChangedENS_12ProcessStateENS_14QPrivateSignalE
libQt6Core.so.6:_ZN8QProcess16staticMetaObjectE
libQt6Core.so.6:_ZN8QProcess16waitForReadyReadEi
libQt6Core.so.6:_ZN8QProcess17setupChildProcessEv
libQt6Core.so.6:_ZN8QProcess19waitForBytesWrittenEi
libQt6Core.so.6:_ZN8QProcess23setChildProcessModifierERKSt8functionIFvvEE
libQt6Core.so.6:_ZN8QProcess4openE6QFlagsIN13QIODeviceBase12OpenModeFlagEE
libQt6Core.so.6:_ZN8QProcess5closeEv
libQt6Core.so.6:_ZN8QProcess8readDataEPcx
libQt6Core.so.6:_ZN8QProcess9writeDataEPKcx
libQt6Core.so.6:_ZN9QIODevice11qt_metacallEN11QMetaObject4CallEiPPv
libQt6Core.so.6:_ZN9QIODevice11qt_metacastEPKc
libQt6Core.so.6:_ZN9QIODevice12bytesWrittenEx
libQt6Core.so.6:_ZN9QIODevice12readLineDataEPcx
libQt6Core.so.6:_ZN9QIODevice14setErrorStringERK7QString
libQt6Core.so.6:_ZN9QIODevice16staticMetaObjectE
libQt6Core.so.6:_ZN9QIODevice4openE6QFlagsIN13QIODeviceBase12OpenModeFlagEE
libQt6Core.so.6:_ZN9QIODevice4seekEx
libQt6Core.so.6:_ZN9QIODevice5closeEv
libQt6Core.so.6:_ZN9QIODevice5resetEv
libQt6Core.so.6:_ZN9QIODevice8skipDataEx
libQt6Core.so.6:_ZN9QIODevice9readyReadEv
libQt6Core.so.6:_ZN9QIODeviceC2EP7QObject
libQt6Core.so.6:_ZN9QIODeviceD2Ev
libQt6Core.so.6:_ZN9QtPrivate25QMetaTypeInterfaceWrapperIbE8metaTypeE
libQt6Core.so.6:_ZNK11QObjectData17dynamicMetaObjectEv
libQt6Core.so.6:_ZNK14QMessageLogger7warningEv
libQt6Core.so.6:_ZNK15QSocketNotifier9isEnabledEv
libQt6Core.so.6:_ZNK8QProcess12bytesToWriteEv
libQt6Core.so.6:_ZNK8QProcess12isSequentialEv
libQt6Core.so.6:_ZNK8QProcess20childProcessModifierEv
libQt6Core.so.6:_ZNK8QProcess5stateEv
libQt6Core.so.6:_ZNK9QIODevice11canReadLineEv
libQt6Core.so.6:_ZNK9QIODevice14bytesAvailableEv
libQt6Core.so.6:_ZNK9QIODevice3posEv
libQt6Core.so.6:_ZNK9QIODevice4sizeEv
libQt6Core.so.6:_ZNK9QIODevice5atEndEv
libQt6Core.so.6:_ZTI9QIODevice
libQt6Core.so.6:qt_version_tag
libc.so.6:__cxa_atexit
libc.so.6:__errno_location
libc.so.6:__fdelt_chk
libc.so.6:__stack_chk_fail
libc.so.6:close
libc.so.6:dup2
libc.so.6:fcntl
libc.so.6:free
libc.so.6:getpid
libc.so.6:ioctl
libc.so.6:login
libc.so.6:logout
libc.so.6:memchr
libc.so.6:memcpy
libc.so.6:memmove
libc.so.6:memset
libc.so.6:open64
libc.so.6:openpty
libc.so.6:ptsname
libc.so.6:read
libc.so.6:select
libc.so.6:setsid
libc.so.6:sigaction
libc.so.6:strcmp
libc.so.6:strncpy
libc.so.6:strrchr
libc.so.6:tcgetattr
libc.so.6:tcsetattr
libc.so.6:tcsetpgrp
libc.so.6:time
libc.so.6:write
libstdc++.so.6:_ZTVN10__cxxabiv117__class_type_infoE
libstdc++.so.6:_ZTVN10__cxxabiv120__si_class_type_infoE
libstdc++.so.6:_ZTVN10__cxxabiv121__vmi_class_type_infoE
libstdc++.so.6:_ZdlPv
libstdc++.so.6:_Znwm
libstdc++.so.6:__cxa_guard_acquire
libstdc++.so.6:__cxa_guard_release
