indi_Excalibur:MAIN_CONTROL_TAB
indi_aaf2_focus:MAIN_CONTROL_TAB
indi_aagsolo_weather:INFO_TAB
indi_aagsolo_weather:OPTIONS_TAB
indi_activefocuser_focus:MAIN_CONTROL_TAB
indi_activefocuser_focus:__libc_single_threaded
indi_alluna_tcs2:MAIN_CONTROL_TAB
indi_alpaca_ccd:MAIN_CONTROL_TAB
indi_alpaca_ccd:_ZNSt5ctypeIcE2idE
indi_alpaca_ccd:_ZNSt7__cxx117collateIcE2idE
indi_alpaca_ccd:_ZNSt7__cxx118time_getIcSt19istreambuf_iteratorIcSt11char_traitsIcEEE2idE
indi_alpaca_ccd:__libc_single_threaded
indi_alpaca_dome:MAIN_CONTROL_TAB
indi_alpaca_dome:SITE_TAB
indi_alpaca_dome:_ZNSt5ctypeIcE2idE
indi_alpaca_dome:_ZNSt7__cxx117collateIcE2idE
indi_alpaca_dome:_ZNSt7__cxx118time_getIcSt19istreambuf_iteratorIcSt11char_traitsIcEEE2idE
indi_alpaca_dome:__libc_single_threaded
indi_alpaca_filterwheel:CONNECTION_TAB
indi_alpaca_filterwheel:FILTER_TAB
indi_alpaca_filterwheel:INFO_TAB
indi_alpaca_filterwheel:_ZNSt5ctypeIcE2idE
indi_alpaca_filterwheel:_ZNSt7__cxx117collateIcE2idE
indi_alpaca_filterwheel:_ZNSt7__cxx118time_getIcSt19istreambuf_iteratorIcSt11char_traitsIcEEE2idE
indi_alpaca_filterwheel:__libc_single_threaded
indi_alpaca_focuser:MAIN_CONTROL_TAB
indi_alpaca_focuser:OPTIONS_TAB
indi_alpaca_focuser:_ZNSt5ctypeIcE2idE
indi_alpaca_focuser:_ZNSt7__cxx117collateIcE2idE
indi_alpaca_focuser:_ZNSt7__cxx118time_getIcSt19istreambuf_iteratorIcSt11char_traitsIcEEE2idE
indi_alpaca_focuser:__libc_single_threaded
indi_alpaca_server:CONNECTION_TAB
indi_alpaca_server:MAIN_CONTROL_TAB
indi_alpaca_server:OPTIONS_TAB
indi_alpaca_server:_ZNSt5ctypeIcE2idE
indi_alpaca_server:_ZNSt7__cxx117collateIcE2idE
indi_alpaca_server:_ZNSt7__cxx118time_getIcSt19istreambuf_iteratorIcSt11char_traitsIcEEE2idE
indi_alpaca_server:__libc_single_threaded
indi_alpaca_telescope:ISGetProperties
indi_alpaca_telescope:ISNewBLOB
indi_alpaca_telescope:ISNewNumber
indi_alpaca_telescope:ISNewSwitch
indi_alpaca_telescope:ISNewText
indi_alpaca_telescope:ISSnoopDevice
indi_alpaca_telescope:OPTIONS_TAB
indi_alpaca_telescope:_ZNSt5ctypeIcE2idE
indi_alpaca_telescope:_ZNSt7__cxx117collateIcE2idE
indi_alpaca_telescope:_ZNSt7__cxx118time_getIcSt19istreambuf_iteratorIcSt11char_traitsIcEEE2idE
indi_alpaca_telescope:__libc_single_threaded
indi_alto:MAIN_CONTROL_TAB
indi_alto:_ZNSt5ctypeIcE2idE
indi_alto:_ZNSt7__cxx117collateIcE2idE
indi_alto:__libc_single_threaded
indi_arduinost4:MOTION_TAB
indi_astrolink4:MAIN_CONTROL_TAB
indi_astrolink4mini2:FOCUS_TAB
indi_astrolink4mini2:_ZNSt5ctypeIcE2idE
indi_astrolink4mini2:_ZNSt7__cxx117collateIcE2idE
indi_astrolink4mini2:__libc_single_threaded
indi_astromech_lpm:MAIN_CONTROL_TAB
indi_astromechfoc:ISSnoopDevice
indi_astromechfoc:MAIN_CONTROL_TAB
indi_astromechfoc:_ZNSt5ctypeIcE2idE
indi_astromechfoc:_ZNSt7__cxx117collateIcE2idE
indi_astromechfoc:__libc_single_threaded
indi_astrometry:MAIN_CONTROL_TAB
indi_astrometry:OPTIONS_TAB
indi_astrotrac_telescope:MAIN_CONTROL_TAB
indi_astrotrac_telescope:MOTION_TAB
indi_astrotrac_telescope:_ZNSt5ctypeIcE2idE
indi_astrotrac_telescope:_ZNSt7__cxx117collateIcE2idE
indi_astrotrac_telescope:__libc_single_threaded
indi_avalon_upas:INFO_TAB
indi_avalon_upas:MAIN_CONTROL_TAB
indi_baader_dome:MAIN_CONTROL_TAB
indi_camelot_rotator:MAIN_CONTROL_TAB
indi_celestron_dewpower:MAIN_CONTROL_TAB
indi_celestron_gps:FOCUS_TAB
indi_celestron_gps:GUIDE_TAB
indi_celestron_gps:MAIN_CONTROL_TAB
indi_celestron_gps:MOTION_TAB
indi_celestron_gps:OPTIONS_TAB
indi_celestron_gps:SITE_TAB
indi_celestron_gps:__libc_single_threaded
indi_celestron_sct_focus:MAIN_CONTROL_TAB
indi_cheapodc:CONNECTION_TAB
indi_cheapodc:MAIN_CONTROL_TAB
indi_cheapodc:OPTIONS_TAB
indi_cheapodc:SITE_TAB
indi_crux_mount:GUIDE_TAB
indi_crux_mount:MAIN_CONTROL_TAB
indi_crux_mount:MOTION_TAB
indi_ddw_dome:INFO_TAB
indi_deepskydad_af1_focus:MAIN_CONTROL_TAB
indi_deepskydad_af1_focus:OPTIONS_TAB
indi_deepskydad_af2_focus:MAIN_CONTROL_TAB
indi_deepskydad_af2_focus:OPTIONS_TAB
indi_deepskydad_af3_focus:MAIN_CONTROL_TAB
indi_deepskydad_af3_focus:OPTIONS_TAB
indi_deepskydad_fp:MAIN_CONTROL_TAB
indi_deepskydad_fr1:MAIN_CONTROL_TAB
indi_dmfc_focus:MAIN_CONTROL_TAB
indi_domepro2_dome:MAIN_CONTROL_TAB
indi_domepro2_dome:_ZNSt5ctypeIcE2idE
indi_domepro2_dome:_ZNSt7__cxx117collateIcE2idE
indi_domepro2_dome:__libc_single_threaded
indi_dragon_light:INFO_TAB
indi_dragon_light:MAIN_CONTROL_TAB
indi_dragon_light:_ZNSt5ctypeIcE2idE
indi_dragon_light:_ZNSt7__cxx117collateIcE2idE
indi_dragon_light:_ZNSt7__cxx118time_getIcSt19istreambuf_iteratorIcSt11char_traitsIcEEE2idE
indi_dragon_light:__libc_single_threaded
indi_dragonlair_dome:INFO_TAB
indi_dragonlair_dome:MAIN_CONTROL_TAB
indi_dragonlair_dome:_ZNSt5ctypeIcE2idE
indi_dragonlair_dome:_ZNSt7__cxx117collateIcE2idE
indi_dragonlair_dome:_ZNSt7__cxx118time_getIcSt19istreambuf_iteratorIcSt11char_traitsIcEEE2idE
indi_dragonlair_dome:__libc_single_threaded
indi_dreamfocuser_focus:MAIN_CONTROL_TAB
indi_dsc_telescope:MAIN_CONTROL_TAB
indi_dsc_telescope:MOTION_TAB
indi_dsc_telescope:_ZN4INDI18AlignmentSubsystem13DBG_ALIGNMENTE
indi_dsc_telescope:_ZNSt5ctypeIcE2idE
indi_dsc_telescope:_ZNSt7__cxx117collateIcE2idE
indi_dsc_telescope:__libc_single_threaded
indi_efa_focus:MAIN_CONTROL_TAB
indi_efa_focus:_ZNSt5ctypeIcE2idE
indi_efa_focus:_ZNSt7__cxx117collateIcE2idE
indi_efa_focus:__libc_single_threaded
indi_esatto_focus:CONNECTION_TAB
indi_esatto_focus:MAIN_CONTROL_TAB
indi_esatto_focus:_ZNSt5ctypeIcE2idE
indi_esatto_focus:_ZNSt7__cxx117collateIcE2idE
indi_esatto_focus:__libc_single_threaded
indi_esattoarco_focus:CONNECTION_TAB
indi_esattoarco_focus:MAIN_CONTROL_TAB
indi_esattoarco_focus:_ZNSt5ctypeIcE2idE
indi_esattoarco_focus:_ZNSt7__cxx117collateIcE2idE
indi_esattoarco_focus:__libc_single_threaded
indi_eval:stderr
indi_eval:stdin
indi_falcon_rotator:MAIN_CONTROL_TAB
indi_falcon_rotator:_ZNSt5ctypeIcE2idE
indi_falcon_rotator:_ZNSt7__cxx117collateIcE2idE
indi_falcon_rotator:__libc_single_threaded
indi_falconv2_rotator:MAIN_CONTROL_TAB
indi_falconv2_rotator:_ZNSt5ctypeIcE2idE
indi_falconv2_rotator:_ZNSt7__cxx117collateIcE2idE
indi_falconv2_rotator:__libc_single_threaded
indi_fcusb_focus:OPTIONS_TAB
indi_flipflat:MAIN_CONTROL_TAB
indi_gemini_flatpanel:CONNECTION_TAB
indi_gemini_flatpanel:MAIN_CONTROL_TAB
indi_gemini_flatpanel:MOTION_TAB
indi_gemini_flatpanel:__libc_single_threaded
indi_gemini_focus:MAIN_CONTROL_TAB
indi_getdevice:stderr
indi_getprop:stderr
indi_giotto:MAIN_CONTROL_TAB
indi_giotto:_ZNSt5ctypeIcE2idE
indi_giotto:_ZNSt7__cxx117collateIcE2idE
indi_giotto:__libc_single_threaded
indi_gpusb:MAIN_CONTROL_TAB
indi_hakos_roof:MAIN_CONTROL_TAB
indi_hakos_roof:OPTIONS_TAB
indi_hitecastrodc_focus:MAIN_CONTROL_TAB
indi_iafscaa_focus:MAIN_CONTROL_TAB
indi_ieaf_focus:MAIN_CONTROL_TAB
indi_ieaf_focus:OPTIONS_TAB
indi_ieq_telescope:MOTION_TAB
indi_ieqlegacy_telescope:MAIN_CONTROL_TAB
indi_ieqlegacy_telescope:MOTION_TAB
indi_imager_agent:MAIN_CONTROL_TAB
indi_imager_agent:OPTIONS_TAB
indi_imager_agent:_ZN4INDI2SP10CONNECTIONE
indi_imager_agent:__libc_single_threaded
indi_integra_focus:MAIN_CONTROL_TAB
indi_ioptron_wheel:FILTER_TAB
indi_ioptronv3_telescope:MOTION_TAB
indi_ioptronv3_telescope:SITE_TAB
indi_ipx800v4:MAIN_CONTROL_TAB
indi_ipx800v4:_ZNSt5ctypeIcE2idE
indi_ipx800v4:_ZNSt7__cxx117collateIcE2idE
indi_ipx800v4:_ZNSt7__cxx118time_getIcSt19istreambuf_iteratorIcSt11char_traitsIcEEE2idE
indi_ipx800v4:__libc_single_threaded
indi_joystick:MAIN_CONTROL_TAB
indi_joystick:OPTIONS_TAB
indi_joystick:_ZN4INDI2SP11DEVICE_PORTE
indi_lacerta_mfoc_fmc_focus:FOCUS_TAB
indi_lacerta_mfoc_fmc_focus:MAIN_CONTROL_TAB
indi_lacerta_mfoc_focus:MAIN_CONTROL_TAB
indi_lakeside_focus:MAIN_CONTROL_TAB
indi_lx200_TeenAstro:GUIDE_TAB
indi_lx200_TeenAstro:MAIN_CONTROL_TAB
indi_lx200_TeenAstro:MOTION_TAB
indi_lx200_TeenAstro:OPTIONS_TAB
indi_lx200_TeenAstro:SITE_TAB
indi_lx200basic:OPTIONS_TAB
indi_lx200generic:CONNECTION_TAB
indi_lx200generic:FOCUS_TAB
indi_lx200generic:GUIDE_TAB
indi_lx200generic:MAIN_CONTROL_TAB
indi_lx200generic:MOTION_TAB
indi_lx200generic:OPTIONS_TAB
indi_lx200generic:SATELLITE_TAB
indi_lx200generic:SITE_TAB
indi_lx200generic:_ZNSt5ctypeIcE2idE
indi_lx200generic:_ZNSt7__cxx117collateIcE2idE
indi_lx200generic:__libc_single_threaded
indi_lx200generic:__progname
indi_lynx_focus:MAIN_CONTROL_TAB
indi_manual_wheel:MAIN_CONTROL_TAB
indi_mbox_weather:MAIN_CONTROL_TAB
indi_mbox_weather:_ZNSt5ctypeIcE2idE
indi_mbox_weather:_ZNSt7__cxx117collateIcE2idE
indi_mbox_weather:__libc_single_threaded
indi_meta_weather:MAIN_CONTROL_TAB
indi_meta_weather:OPTIONS_TAB
indi_microtouch_focus:MAIN_CONTROL_TAB
indi_microtouch_focus:OPTIONS_TAB
indi_mlastro_rpa:MAIN_CONTROL_TAB
indi_mlastro_rpa:OPTIONS_TAB
indi_moonlite_focus:MAIN_CONTROL_TAB
indi_moonlite_focus:OPTIONS_TAB
indi_moonlitedro_focus:MAIN_CONTROL_TAB
indi_myDewControllerPro:MAIN_CONTROL_TAB
indi_myDewControllerPro:OPTIONS_TAB
indi_mydcp4esp32:CONNECTION_TAB
indi_mydcp4esp32:MAIN_CONTROL_TAB
indi_mydcp4esp32:OPTIONS_TAB
indi_myfocuserpro2_focus:MAIN_CONTROL_TAB
indi_nexdome_beaver:CONNECTION_TAB
indi_nexdome_beaver:MAIN_CONTROL_TAB
indi_nexdome_beaver:SITE_TAB
indi_nexdome_beaver:_ZNSt5ctypeIcE2idE
indi_nexdome_beaver:_ZNSt7__cxx117collateIcE2idE
indi_nexdome_beaver:__libc_single_threaded
indi_nfocus:MAIN_CONTROL_TAB
indi_nframe_rotator:MAIN_CONTROL_TAB
indi_nframe_rotator:OPTIONS_TAB
indi_nightcrawler_focus:MAIN_CONTROL_TAB
indi_nstep_focus:MAIN_CONTROL_TAB
indi_nstep_focus:OPTIONS_TAB
indi_onfocus_focus:OPTIONS_TAB
indi_openweathermap_weather:OPTIONS_TAB
indi_optec_wheel:FILTER_TAB
indi_optec_wheel:MAIN_CONTROL_TAB
indi_optec_wheel:_ZNSt5ctypeIcE2idE
indi_optec_wheel:_ZNSt7__cxx117collateIcE2idE
indi_optec_wheel:__libc_single_threaded
indi_paramount_telescope:MOTION_TAB
indi_pegasus_flatmaster:MAIN_CONTROL_TAB
indi_pegasus_focuscube:MAIN_CONTROL_TAB
indi_pegasus_focuscube3:MAIN_CONTROL_TAB
indi_pegasus_focuscube3:_ZNSt5ctypeIcE2idE
indi_pegasus_focuscube3:_ZNSt7__cxx117collateIcE2idE
indi_pegasus_focuscube3:__libc_single_threaded
indi_pegasus_ppb:MAIN_CONTROL_TAB
indi_pegasus_ppb:_ZNSt5ctypeIcE2idE
indi_pegasus_ppb:_ZNSt7__cxx117collateIcE2idE
indi_pegasus_ppb:__libc_single_threaded
indi_pegasus_ppba:FOCUS_TAB
indi_pegasus_ppba:MAIN_CONTROL_TAB
indi_pegasus_ppba:_ZNSt5ctypeIcE2idE
indi_pegasus_ppba:_ZNSt7__cxx117collateIcE2idE
indi_pegasus_ppba:__libc_single_threaded
indi_pegasus_prodigyMF:MAIN_CONTROL_TAB
indi_pegasus_scopsoag:MAIN_CONTROL_TAB
indi_pegasus_spb:_ZNSt5ctypeIcE2idE
indi_pegasus_spb:_ZNSt7__cxx117collateIcE2idE
indi_pegasus_spb:__libc_single_threaded
indi_pegasus_upb:FOCUS_TAB
indi_pegasus_upb:MAIN_CONTROL_TAB
indi_pegasus_upb:_ZNSt5ctypeIcE2idE
indi_pegasus_upb:_ZNSt7__cxx117collateIcE2idE
indi_pegasus_upb:__libc_single_threaded
indi_pegasus_upb3:FOCUS_TAB
indi_pegasus_upb3:MAIN_CONTROL_TAB
indi_pegasus_upb3:_ZNSt5ctypeIcE2idE
indi_pegasus_upb3:_ZNSt7__cxx117collateIcE2idE
indi_pegasus_upb3:__libc_single_threaded
indi_pegasusindigo_wheel:MAIN_CONTROL_TAB
indi_pegasusindigo_wheel:_ZNSt5ctypeIcE2idE
indi_pegasusindigo_wheel:_ZNSt7__cxx117collateIcE2idE
indi_pegasusindigo_wheel:__libc_single_threaded
indi_pinefeat_cef_focus:MAIN_CONTROL_TAB
indi_planewave_deltat:MAIN_CONTROL_TAB
indi_planewave_deltat:_ZNSt5ctypeIcE2idE
indi_planewave_deltat:_ZNSt7__cxx117collateIcE2idE
indi_planewave_deltat:__libc_single_threaded
indi_planewave_telescope:_ZNSt5ctypeIcE2idE
indi_planewave_telescope:_ZNSt7__cxx117collateIcE2idE
indi_planewave_telescope:_ZNSt7__cxx118time_getIcSt19istreambuf_iteratorIcSt11char_traitsIcEEE2idE
indi_planewave_telescope:__libc_single_threaded
indi_pmc8_telescope:CONNECTION_TAB
indi_pmc8_telescope:GUIDE_TAB
indi_pmc8_telescope:MAIN_CONTROL_TAB
indi_pmc8_telescope:MOTION_TAB
indi_pyxis_rotator:INFO_TAB
indi_qhycfw1_wheel:MAIN_CONTROL_TAB
indi_qhycfw2_wheel:MAIN_CONTROL_TAB
indi_rainbow_telescope:MAIN_CONTROL_TAB
indi_rainbow_telescope:MOTION_TAB
indi_rainbow_telescope:_ZNSt5ctypeIcE2idE
indi_rainbow_telescope:_ZNSt7__cxx117collateIcE2idE
indi_rainbow_telescope:__libc_single_threaded
indi_rainbowrsf_focus:MAIN_CONTROL_TAB
indi_rbfocus_focus:MAIN_CONTROL_TAB
indi_rbfocus_focus:OPTIONS_TAB
indi_rigel_dome:MAIN_CONTROL_TAB
indi_rigel_dome:SITE_TAB
indi_rigel_dome:_ZNSt5ctypeIcE2idE
indi_rigel_dome:_ZNSt7__cxx117collateIcE2idE
indi_rigel_dome:__libc_single_threaded
indi_robo_focus:MAIN_CONTROL_TAB
indi_safetymonitor:MAIN_CONTROL_TAB
indi_safetymonitor:OPTIONS_TAB
indi_safetymonitor:__libc_single_threaded
indi_scopedome_dome:CONNECTION_TAB
indi_scopedome_dome:INFO_TAB
indi_scopedome_dome:MAIN_CONTROL_TAB
indi_scopedome_dome:SITE_TAB
indi_script_dome:OPTIONS_TAB
indi_script_telescope:OPTIONS_TAB
indi_seestar_ccd:MAIN_CONTROL_TAB
indi_seestar_ccd:_ZNSt5ctypeIcE2idE
indi_seestar_ccd:_ZNSt7__cxx117collateIcE2idE
indi_seestar_ccd:_ZNSt7__cxx118time_getIcSt19istreambuf_iteratorIcSt11char_traitsIcEEE2idE
indi_seestar_ccd:__libc_single_threaded
indi_sestosenso2_focus:CONNECTION_TAB
indi_sestosenso2_focus:MAIN_CONTROL_TAB
indi_sestosenso2_focus:_ZNSt5ctypeIcE2idE
indi_sestosenso2_focus:_ZNSt7__cxx117collateIcE2idE
indi_sestosenso2_focus:__libc_single_threaded
indi_sestosenso3_focus:CONNECTION_TAB
indi_sestosenso3_focus:MAIN_CONTROL_TAB
indi_sestosenso3_focus:_ZNSt5ctypeIcE2idE
indi_sestosenso3_focus:_ZNSt7__cxx117collateIcE2idE
indi_sestosenso3_focus:__libc_single_threaded
indi_sestosenso_focus:MAIN_CONTROL_TAB
indi_setprop:stderr
indi_simulator_ccd:FILTER_TAB
indi_simulator_ccd:MAIN_CONTROL_TAB
indi_simulator_ccd:OPTIONS_TAB
indi_simulator_dome:MAIN_CONTROL_TAB
indi_simulator_dustcover:MAIN_CONTROL_TAB
indi_simulator_focus:MAIN_CONTROL_TAB
indi_simulator_focus:OPTIONS_TAB
indi_simulator_gps:MAIN_CONTROL_TAB
indi_simulator_guide:MAIN_CONTROL_TAB
indi_simulator_lightpanel:MAIN_CONTROL_TAB
indi_simulator_pac:MAIN_CONTROL_TAB
indi_simulator_sqm:MAIN_CONTROL_TAB
indi_simulator_telescope:MAIN_CONTROL_TAB
indi_simulator_telescope:MOTION_TAB
indi_simulator_weather:MAIN_CONTROL_TAB
indi_simulator_wheel:FILTER_TAB
indi_skysafari:MAIN_CONTROL_TAB
indi_skysafari:OPTIONS_TAB
indi_skywatcherAltAzMount:GUIDE_TAB
indi_skywatcherAltAzMount:MAIN_CONTROL_TAB
indi_skywatcherAltAzMount:MOTION_TAB
indi_skywatcherAltAzMount:_ZN4INDI18AlignmentSubsystem13DBG_ALIGNMENTE
indi_smartfocus_focus:MAIN_CONTROL_TAB
indi_smartfocus_focus:OPTIONS_TAB
indi_snapcap:MAIN_CONTROL_TAB
indi_spectracyber:__libc_single_threaded
indi_sqm_weather:MAIN_CONTROL_TAB
indi_sqm_weather:_ZNSt5ctypeIcE2idE
indi_sqm_weather:_ZNSt7__cxx117collateIcE2idE
indi_sqm_weather:__libc_single_threaded
indi_star2000:MAIN_CONTROL_TAB
indi_star2000:OPTIONS_TAB
indi_star2000:_ZN4INDI2SP11DEVICE_PORTE
indi_star2000:stderr
indi_startech_hub:ISGetProperties
indi_startech_hub:ISNewSwitch
indi_startech_hub:ISNewText
indi_startech_hub:ISSnoopDevice
indi_startech_hub:MAIN_CONTROL_TAB
indi_startech_hub:OPTIONS_TAB
indi_steeldrive2_focus:MAIN_CONTROL_TAB
indi_steeldrive2_focus:OPTIONS_TAB
indi_steeldrive2_focus:_ZNSt5ctypeIcE2idE
indi_steeldrive2_focus:_ZNSt7__cxx117collateIcE2idE
indi_steeldrive2_focus:__libc_single_threaded
indi_steeldrive_focus:MAIN_CONTROL_TAB
indi_synscan_telescope:GUIDE_TAB
indi_synscan_telescope:MAIN_CONTROL_TAB
indi_synscan_telescope:MOTION_TAB
indi_tcfs_focus:me
indi_teenastro_focus:FOCUS_TAB
indi_teenastro_focus:MAIN_CONTROL_TAB
indi_temma_telescope:MOTION_TAB
indi_terrans_powerboxgo_v2:MAIN_CONTROL_TAB
indi_terrans_powerboxpro_v2:MAIN_CONTROL_TAB
indi_trutech_wheel:MAIN_CONTROL_TAB
indi_universalror_dome:MAIN_CONTROL_TAB
indi_universalror_dome:OPTIONS_TAB
indi_universalror_dome:_ZNSt5ctypeIcE2idE
indi_universalror_dome:_ZNSt7__cxx117collateIcE2idE
indi_universalror_dome:__libc_single_threaded
indi_ups_safety:CONNECTION_TAB
indi_ups_safety:MAIN_CONTROL_TAB
indi_ups_safety:OPTIONS_TAB
indi_uranus_weather:MAIN_CONTROL_TAB
indi_uranus_weather:_ZNSt5ctypeIcE2idE
indi_uranus_weather:_ZNSt7__cxx117collateIcE2idE
indi_uranus_weather:__libc_single_threaded
indi_usbdewpoint:MAIN_CONTROL_TAB
indi_usbdewpoint:OPTIONS_TAB
indi_usbfocusv3_focus:MAIN_CONTROL_TAB
indi_usbfocusv3_focus:OPTIONS_TAB
indi_v4l2_ccd:IMAGE_INFO_TAB
indi_v4l2_ccd:IMAGE_SETTINGS_TAB
indi_v4l2_ccd:MAIN_CONTROL_TAB
indi_v4l2_ccd:OPTIONS_TAB
indi_v4l2_ccd:_ZN4INDI2SP11DEVICE_PORTE
indi_v4l2_ccd:__libc_single_threaded
indi_wake_on_lan:MAIN_CONTROL_TAB
indi_wake_on_lan:OPTIONS_TAB
indi_wanderer_cover:MAIN_CONTROL_TAB
indi_wanderer_dew_terminator:MAIN_CONTROL_TAB
indi_wanderer_eclipse:MAIN_CONTROL_TAB
indi_wanderer_lite_rotator:MAIN_CONTROL_TAB
indi_wanderer_rotator_lite_v2:MAIN_CONTROL_TAB
indi_wanderer_rotator_mini:MAIN_CONTROL_TAB
indi_wanderer_snowflake_wheel:MAIN_CONTROL_TAB
indi_wandererbox_plus_v3:MAIN_CONTROL_TAB
indi_wandererbox_pro_v3:MAIN_CONTROL_TAB
indi_wanderercover_v4_ec:MAIN_CONTROL_TAB
indi_wanderercover_v4_pro_ec:MAIN_CONTROL_TAB
indi_watchdog:MAIN_CONTROL_TAB
indi_watchdog:OPTIONS_TAB
indi_watcher_weather:OPTIONS_TAB
indi_wavesharemodbus_relay:MAIN_CONTROL_TAB
indi_weather_safety_alpaca:MAIN_CONTROL_TAB
indi_weather_safety_alpaca:SITE_TAB
indi_weather_safety_alpaca:_ZNSt5ctypeIcE2idE
indi_weather_safety_alpaca:_ZNSt7__cxx117collateIcE2idE
indi_weather_safety_alpaca:_ZNSt7__cxx118time_getIcSt19istreambuf_iteratorIcSt11char_traitsIcEEE2idE
indi_weather_safety_alpaca:__libc_single_threaded
indi_weather_safety_proxy:MAIN_CONTROL_TAB
indi_weather_safety_proxy:OPTIONS_TAB
indi_weatherflow_weather:OPTIONS_TAB
indi_weatherflow_weather:_ZNSt5ctypeIcE2idE
indi_weatherflow_weather:_ZNSt7__cxx117collateIcE2idE
indi_weatherflow_weather:_ZNSt7__cxx118time_getIcSt19istreambuf_iteratorIcSt11char_traitsIcEEE2idE
indi_weatherflow_weather:__libc_single_threaded
indi_xagyl_wheel:FILTER_TAB
indi_xagyl_wheel:MAIN_CONTROL_TAB
indiserver:stderr
libindiAlignmentDriver.so.2:Create
libindiAlignmentDriver.so.2:Destroy
libindiAlignmentDriver.so.2:GetDisplayName
libindiAlignmentDriver.so.2:WeakIDDefBLOBVA
libindiAlignmentDriver.so.2:WeakIDDefLightVA
libindiAlignmentDriver.so.2:WeakIDDefNumberVA
libindiAlignmentDriver.so.2:WeakIDDefSwitchVA
libindiAlignmentDriver.so.2:WeakIDDefTextVA
libindiAlignmentDriver.so.2:WeakIDSetBLOBVA
libindiAlignmentDriver.so.2:WeakIDSetLightVA
libindiAlignmentDriver.so.2:WeakIDSetNumberVA
libindiAlignmentDriver.so.2:WeakIDSetSwitchVA
libindiAlignmentDriver.so.2:WeakIDSetTextVA
libindiAlignmentDriver.so.2:WeakIUUpdateBLOB
libindiAlignmentDriver.so.2:WeakIUUpdateMinMax
libindiAlignmentDriver.so.2:WeakIUUpdateNumber
libindiAlignmentDriver.so.2:WeakIUUpdateSwitch
libindiAlignmentDriver.so.2:WeakIUUpdateText
libindiAlignmentDriver.so.2:_ZN4INDI10BaseDevice10addMessageERKNSt7__cxx1112basic_stringIcSt11char_traitsIcESaIcEEE
libindiAlignmentDriver.so.2:_ZN4INDI10BaseDevice11setMediatorEPNS_12BaseMediatorE
libindiAlignmentDriver.so.2:_ZN4INDI10BaseDevice12checkMessageEP8xml_ele_
libindiAlignmentDriver.so.2:_ZN4INDI10BaseDevice13buildSkeletonEPKc
libindiAlignmentDriver.so.2:_ZN4INDI10BaseDevice13getPropertiesEv
libindiAlignmentDriver.so.2:_ZN4INDI10BaseDevice13setDeviceNameEPKc
libindiAlignmentDriver.so.2:_ZN4INDI10BaseDevice13watchPropertyEPKcRKSt8functionIFvNS_8PropertyEEENS0_5WATCHE
libindiAlignmentDriver.so.2:_ZN4INDI10BaseDevice14removePropertyEPKcPc
libindiAlignmentDriver.so.2:_ZN4INDI10BaseDevice16registerPropertyERKNS_8PropertyE
libindiAlignmentDriver.so.2:_ZN4INDI10BaseDevice16registerPropertyERKNS_8PropertyE18INDI_PROPERTY_TYPE
libindiAlignmentDriver.so.2:_ZN4INDI10BaseDevice17getSharedFilePathENSt7__cxx1112basic_stringIcSt11char_traitsIcESaIcEEE
libindiAlignmentDriver.so.2:_ZN4INDI10BaseDevice6attachEv
libindiAlignmentDriver.so.2:_ZN4INDI10BaseDevice6detachEv
libindiAlignmentDriver.so.2:_ZN4INDI10BaseDevice8setValueERKNS_13LilXmlElementEPc
libindiAlignmentDriver.so.2:_ZN4INDI10BaseDevice9buildPropERKNS_13LilXmlElementEPcb
libindiAlignmentDriver.so.2:_ZN4INDI10BaseDevice9doMessageEP8xml_ele_
libindiAlignmentDriver.so.2:_ZN4INDI10BaseDeviceC1ERKSt10shared_ptrINS_17BaseDevicePrivateEE
libindiAlignmentDriver.so.2:_ZN4INDI10BaseDeviceC1ERNS_17BaseDevicePrivateE
libindiAlignmentDriver.so.2:_ZN4INDI10BaseDeviceC1Ev
libindiAlignmentDriver.so.2:_ZN4INDI10BaseDeviceC2ERKSt10shared_ptrINS_17BaseDevicePrivateEE
libindiAlignmentDriver.so.2:_ZN4INDI10BaseDeviceC2ERNS_17BaseDevicePrivateE
libindiAlignmentDriver.so.2:_ZN4INDI10BaseDeviceC2Ev
libindiAlignmentDriver.so.2:_ZN4INDI10BaseDeviceD0Ev
libindiAlignmentDriver.so.2:_ZN4INDI10BaseDeviceD1Ev
libindiAlignmentDriver.so.2:_ZN4INDI10BaseDeviceD2Ev
libindiAlignmentDriver.so.2:_ZN4INDI10BaseDevicecvPS0_Ev
libindiAlignmentDriver.so.2:_ZN4INDI10BaseDeviceptEv
libindiAlignmentDriver.so.2:_ZN4INDI10Properties2atEm
libindiAlignmentDriver.so.2:_ZN4INDI10Properties3endEv
libindiAlignmentDriver.so.2:_ZN4INDI10Properties4backEv
libindiAlignmentDriver.so.2:_ZN4INDI10Properties5beginEv
libindiAlignmentDriver.so.2:_ZN4INDI10Properties5clearEv
libindiAlignmentDriver.so.2:_ZN4INDI10Properties5eraseESt15_Deque_iteratorINS_8PropertyERKS2_PS3_E
libindiAlignmentDriver.so.2:_ZN4INDI10Properties5eraseESt15_Deque_iteratorINS_8PropertyERKS2_PS3_ES6_
libindiAlignmentDriver.so.2:_ZN4INDI10Properties5eraseESt15_Deque_iteratorINS_8PropertyERS2_PS2_E
libindiAlignmentDriver.so.2:_ZN4INDI10Properties5eraseESt15_Deque_iteratorINS_8PropertyERS2_PS2_ES5_
libindiAlignmentDriver.so.2:_ZN4INDI10Properties5frontEv
libindiAlignmentDriver.so.2:_ZN4INDI10Properties9push_backEONS_8PropertyE
libindiAlignmentDriver.so.2:_ZN4INDI10Properties9push_backERKNS_8PropertyE
libindiAlignmentDriver.so.2:_ZN4INDI10PropertiesC1ESt10shared_ptrINS_17PropertiesPrivateEE
libindiAlignmentDriver.so.2:_ZN4INDI10PropertiesC1Ev
libindiAlignmentDriver.so.2:_ZN4INDI10PropertiesC2ESt10shared_ptrINS_17PropertiesPrivateEE
libindiAlignmentDriver.so.2:_ZN4INDI10PropertiesC2Ev
libindiAlignmentDriver.so.2:_ZN4INDI10PropertiesD1Ev
libindiAlignmentDriver.so.2:_ZN4INDI10PropertiesD2Ev
libindiAlignmentDriver.so.2:_ZN4INDI10PropertiescvPS0_Ev
libindiAlignmentDriver.so.2:_ZN4INDI10PropertiescvPSt6vectorIPNS_8PropertyESaIS3_EEEv
libindiAlignmentDriver.so.2:_ZN4INDI10PropertiesdeEv
libindiAlignmentDriver.so.2:_ZN4INDI10PropertiesixEm
libindiAlignmentDriver.so.2:_ZN4INDI10PropertiesptEv
libindiAlignmentDriver.so.2:_ZN4INDI10WidgetViewI6_IBLOBE4fillEPKcS4_S4_
libindiAlignmentDriver.so.2:_ZN4INDI10WidgetViewI6_ITextE4fillEPKcS4_S4_
libindiAlignmentDriver.so.2:_ZN4INDI10WidgetViewI7_ILightE4fillEPKcS4_7IPState
libindiAlignmentDriver.so.2:_ZN4INDI10WidgetViewI8_INumberE4fillEPKcS4_S4_dddd
libindiAlignmentDriver.so.2:_ZN4INDI10WidgetViewI8_ISwitchE4fillEPKcS4_7ISState
libindiAlignmentDriver.so.2:_ZN4INDI12BaseMediator10newMessageENS_10BaseDeviceEi
libindiAlignmentDriver.so.2:_ZN4INDI12BaseMediator11newPropertyENS_8PropertyE
libindiAlignmentDriver.so.2:_ZN4INDI12BaseMediator12removeDeviceENS_10BaseDeviceE
libindiAlignmentDriver.so.2:_ZN4INDI12BaseMediator14removePropertyENS_8PropertyE
libindiAlignmentDriver.so.2:_ZN4INDI12BaseMediator14updatePropertyENS_8PropertyE
libindiAlignmentDriver.so.2:_ZN4INDI12BaseMediator15serverConnectedEv
libindiAlignmentDriver.so.2:_ZN4INDI12BaseMediator18serverDisconnectedEi
libindiAlignmentDriver.so.2:_ZN4INDI12BaseMediator9newDeviceENS_10BaseDeviceE
libindiAlignmentDriver.so.2:_ZN4INDI12ParentDeviceC1ENS0_4TypeE
libindiAlignmentDriver.so.2:_ZN4INDI12ParentDeviceC1ERKSt10shared_ptrINS_19ParentDevicePrivateEE
libindiAlignmentDriver.so.2:_ZN4INDI12ParentDeviceC2ENS0_4TypeE
libindiAlignmentDriver.so.2:_ZN4INDI12ParentDeviceC2ERKSt10shared_ptrINS_19ParentDevicePrivateEE
libindiAlignmentDriver.so.2:_ZN4INDI12ParentDeviceD0Ev
libindiAlignmentDriver.so.2:_ZN4INDI12ParentDeviceD1Ev
libindiAlignmentDriver.so.2:_ZN4INDI12ParentDeviceD2Ev
libindiAlignmentDriver.so.2:_ZN4INDI12PropertyBlob14setBlobDeleterERKSt8functionIFvRPvEE
libindiAlignmentDriver.so.2:_ZN4INDI12PropertyBlob4fillEPKcS2_S2_S2_5IPermd7IPState
libindiAlignmentDriver.so.2:_ZN4INDI12PropertyBlob6updateEPKiS2_PKPKcS6_S6_i
libindiAlignmentDriver.so.2:_ZN4INDI12PropertyBlobC1ENS_8PropertyE
libindiAlignmentDriver.so.2:_ZN4INDI12PropertyBlobC1Em
libindiAlignmentDriver.so.2:_ZN4INDI12PropertyBlobC2ENS_8PropertyE
libindiAlignmentDriver.so.2:_ZN4INDI12PropertyBlobC2Em
libindiAlignmentDriver.so.2:_ZN4INDI12PropertyBlobD1Ev
libindiAlignmentDriver.so.2:_ZN4INDI12PropertyBlobD2Ev
libindiAlignmentDriver.so.2:_ZN4INDI12PropertyText4fillEPKcS2_S2_S2_5IPermd7IPState
libindiAlignmentDriver.so.2:_ZN4INDI12PropertyText6updateEPKPKcS4_i
libindiAlignmentDriver.so.2:_ZN4INDI12PropertyTextC1ENS_8PropertyE
libindiAlignmentDriver.so.2:_ZN4INDI12PropertyTextC1Em
libindiAlignmentDriver.so.2:_ZN4INDI12PropertyTextC2ENS_8PropertyE
libindiAlignmentDriver.so.2:_ZN4INDI12PropertyTextC2Em
libindiAlignmentDriver.so.2:_ZN4INDI12PropertyTextD1Ev
libindiAlignmentDriver.so.2:_ZN4INDI12PropertyTextD2Ev
libindiAlignmentDriver.so.2:_ZN4INDI12PropertyViewI6_IBLOBE4fillIS1_Lb1EEEvPKcS5_S5_S5_5IPermd7IPState
libindiAlignmentDriver.so.2:_ZN4INDI12PropertyViewI6_IBLOBE6updateIS1_Lb1EEEbPKiS5_PKPKcS9_S9_i
libindiAlignmentDriver.so.2:_ZN4INDI12PropertyViewI6_ITextE4fillIS1_Lb1EEEvPKcS5_S5_S5_5IPermd7IPState
libindiAlignmentDriver.so.2:_ZN4INDI12PropertyViewI6_ITextE6updateIS1_Lb1EEEbPKPKcS7_i
libindiAlignmentDriver.so.2:_ZN4INDI12PropertyViewI7_ILightE4fillIS1_Lb1EEEvPKcS5_S5_S5_7IPState
libindiAlignmentDriver.so.2:_ZN4INDI12PropertyViewI8_INumberE12updateMinMaxIS1_Lb1EEEvv
libindiAlignmentDriver.so.2:_ZN4INDI12PropertyViewI8_INumberE4fillIS1_Lb1EEEvPKcS5_S5_S5_5IPermd7IPState
libindiAlignmentDriver.so.2:_ZN4INDI12PropertyViewI8_INumberE6updateIS1_Lb1EEEbPKdPKPKci
libindiAlignmentDriver.so.2:_ZN4INDI12PropertyViewI8_ISwitchE4fillIS1_Lb1EEEvPKcS5_S5_S5_5IPerm6ISRuled7IPState
libindiAlignmentDriver.so.2:_ZN4INDI12PropertyViewI8_ISwitchE6updateIS1_Lb1EEEbPK7ISStatePKPKci
libindiAlignmentDriver.so.2:_ZN4INDI13PropertyLight4fillEPKcS2_S2_S2_7IPState
libindiAlignmentDriver.so.2:_ZN4INDI13PropertyLightC1ENS_8PropertyE
libindiAlignmentDriver.so.2:_ZN4INDI13PropertyLightC1Em
libindiAlignmentDriver.so.2:_ZN4INDI13PropertyLightC2ENS_8PropertyE
libindiAlignmentDriver.so.2:_ZN4INDI13PropertyLightC2Em
libindiAlignmentDriver.so.2:_ZN4INDI13PropertyLightD1Ev
libindiAlignmentDriver.so.2:_ZN4INDI13PropertyLightD2Ev
libindiAlignmentDriver.so.2:_ZN4INDI14PropertyNumber12updateMinMaxEv
libindiAlignmentDriver.so.2:_ZN4INDI14PropertyNumber4fillEPKcS2_S2_S2_5IPermd7IPState
libindiAlignmentDriver.so.2:_ZN4INDI14PropertyNumber6updateEPKdPKPKci
libindiAlignmentDriver.so.2:_ZN4INDI14PropertyNumberC1ENS_8PropertyE
libindiAlignmentDriver.so.2:_ZN4INDI14PropertyNumberC1Em
libindiAlignmentDriver.so.2:_ZN4INDI14PropertyNumberC2ENS_8PropertyE
libindiAlignmentDriver.so.2:_ZN4INDI14PropertyNumberC2Em
libindiAlignmentDriver.so.2:_ZN4INDI14PropertyNumberD1Ev
libindiAlignmentDriver.so.2:_ZN4INDI14PropertyNumberD2Ev
libindiAlignmentDriver.so.2:_ZN4INDI14PropertySwitch11onNewValuesERKSt8functionIFvRKNS0_9NewValuesEEE
libindiAlignmentDriver.so.2:_ZN4INDI14PropertySwitch4fillEPKcS2_S2_S2_5IPerm6ISRuled7IPState
libindiAlignmentDriver.so.2:_ZN4INDI14PropertySwitch5resetEv
libindiAlignmentDriver.so.2:_ZN4INDI14PropertySwitch6updateEPK7ISStatePKPKci
libindiAlignmentDriver.so.2:_ZN4INDI14PropertySwitch7setRuleE6ISRule
libindiAlignmentDriver.so.2:_ZN4INDI14PropertySwitchC1ENS_8PropertyE
libindiAlignmentDriver.so.2:_ZN4INDI14PropertySwitchC1Em
libindiAlignmentDriver.so.2:_ZN4INDI14PropertySwitchC2ENS_8PropertyE
libindiAlignmentDriver.so.2:_ZN4INDI14PropertySwitchC2Em
libindiAlignmentDriver.so.2:_ZN4INDI14PropertySwitchD1Ev
libindiAlignmentDriver.so.2:_ZN4INDI14PropertySwitchD2Ev
libindiAlignmentDriver.so.2:_ZN4INDI15PropertyPrivateC1EPNS_12PropertyViewI6_IBLOBEE
libindiAlignmentDriver.so.2:_ZN4INDI15PropertyPrivateC1EPNS_12PropertyViewI6_ITextEE
libindiAlignmentDriver.so.2:_ZN4INDI15PropertyPrivateC1EPNS_12PropertyViewI7_ILightEE
libindiAlignmentDriver.so.2:_ZN4INDI15PropertyPrivateC1EPNS_12PropertyViewI8_INumberEE
libindiAlignmentDriver.so.2:_ZN4INDI15PropertyPrivateC1EPNS_12PropertyViewI8_ISwitchEE
libindiAlignmentDriver.so.2:_ZN4INDI15PropertyPrivateC1EPv18INDI_PROPERTY_TYPE
libindiAlignmentDriver.so.2:_ZN4INDI15PropertyPrivateC2EPNS_12PropertyViewI6_IBLOBEE
libindiAlignmentDriver.so.2:_ZN4INDI15PropertyPrivateC2EPNS_12PropertyViewI6_ITextEE
libindiAlignmentDriver.so.2:_ZN4INDI15PropertyPrivateC2EPNS_12PropertyViewI7_ILightEE
libindiAlignmentDriver.so.2:_ZN4INDI15PropertyPrivateC2EPNS_12PropertyViewI8_INumberEE
libindiAlignmentDriver.so.2:_ZN4INDI15PropertyPrivateC2EPNS_12PropertyViewI8_ISwitchEE
libindiAlignmentDriver.so.2:_ZN4INDI15PropertyPrivateC2EPv18INDI_PROPERTY_TYPE
libindiAlignmentDriver.so.2:_ZN4INDI15PropertyPrivateD0Ev
libindiAlignmentDriver.so.2:_ZN4INDI15PropertyPrivateD1Ev
libindiAlignmentDriver.so.2:_ZN4INDI15PropertyPrivateD2Ev
libindiAlignmentDriver.so.2:_ZN4INDI17BaseDevicePrivate7setBLOBENS_12PropertyBlobERKNS_13LilXmlElementEPc
libindiAlignmentDriver.so.2:_ZN4INDI17BaseDevicePrivateC1Ev
libindiAlignmentDriver.so.2:_ZN4INDI17BaseDevicePrivateC2Ev
libindiAlignmentDriver.so.2:_ZN4INDI17BaseDevicePrivateD0Ev
libindiAlignmentDriver.so.2:_ZN4INDI17BaseDevicePrivateD1Ev
libindiAlignmentDriver.so.2:_ZN4INDI17BaseDevicePrivateD2Ev
libindiAlignmentDriver.so.2:_ZN4INDI17PropertiesPrivateC1Ev
libindiAlignmentDriver.so.2:_ZN4INDI17PropertiesPrivateC2Ev
libindiAlignmentDriver.so.2:_ZN4INDI17PropertiesPrivateD0Ev
libindiAlignmentDriver.so.2:_ZN4INDI17PropertiesPrivateD1Ev
libindiAlignmentDriver.so.2:_ZN4INDI17PropertiesPrivateD2Ev
libindiAlignmentDriver.so.2:_ZN4INDI18AlignmentSubsystem10ConvexHull10CheckEulerEiii
libindiAlignmentDriver.so.2:_ZN4INDI18AlignmentSubsystem10ConvexHull10CleanEdgesEv
libindiAlignmentDriver.so.2:_ZN4INDI18AlignmentSubsystem10ConvexHull10CleanFacesEv
libindiAlignmentDriver.so.2:_ZN4INDI18AlignmentSubsystem10ConvexHull10PrintEdgesERSt14basic_ofstreamIcSt11char_traitsIcEE
libindiAlignmentDriver.so.2:_ZN4INDI18AlignmentSubsystem10ConvexHull10PrintFacesERSt14basic_ofstreamIcSt11char_traitsIcEE
libindiAlignmentDriver.so.2:_ZN4INDI18AlignmentSubsystem10ConvexHull10PrintPointEPNS1_16tVertexStructureE
libindiAlignmentDriver.so.2:_ZN4INDI18AlignmentSubsystem10ConvexHull10VolumeSignEPNS1_14tFaceStructureEPNS1_16tVertexStructureE
libindiAlignmentDriver.so.2:_ZN4INDI18AlignmentSubsystem10ConvexHull11CheckEndptsEv
libindiAlignmentDriver.so.2:_ZN4INDI18AlignmentSubsystem10ConvexHull11ConsistencyEv
libindiAlignmentDriver.so.2:_ZN4INDI18AlignmentSubsystem10ConvexHull12MakeConeFaceEPNS1_14tEdgeStructureEPNS1_16tVertexStructureE
libindiAlignmentDriver.so.2:_ZN4INDI18AlignmentSubsystem10ConvexHull12MakeNullEdgeEv
libindiAlignmentDriver.so.2:_ZN4INDI18AlignmentSubsystem10ConvexHull12MakeNullFaceEv
libindiAlignmentDriver.so.2:_ZN4INDI18AlignmentSubsystem10ConvexHull12ReadVerticesEv
libindiAlignmentDriver.so.2:_ZN4INDI18AlignmentSubsystem10ConvexHull13CleanVerticesEPPNS1_16tVertexStructureE
libindiAlignmentDriver.so.2:_ZN4INDI18AlignmentSubsystem10ConvexHull13ConstructHullEv
libindiAlignmentDriver.so.2:_ZN4INDI18AlignmentSubsystem10ConvexHull13MakeNewVertexEdddi
libindiAlignmentDriver.so.2:_ZN4INDI18AlignmentSubsystem10ConvexHull13PrintVerticesERSt14basic_ofstreamIcSt11char_traitsIcEE
libindiAlignmentDriver.so.2:_ZN4INDI18AlignmentSubsystem10ConvexHull14DoubleTriangleEv
libindiAlignmentDriver.so.2:_ZN4INDI18AlignmentSubsystem10ConvexHull14MakeNullVertexEv
libindiAlignmentDriver.so.2:_ZN4INDI18AlignmentSubsystem10ConvexHull16EdgeOrderOnFacesEv
libindiAlignmentDriver.so.2:_ZN4INDI18AlignmentSubsystem10ConvexHull5PrintEv
libindiAlignmentDriver.so.2:_ZN4INDI18AlignmentSubsystem10ConvexHull5ResetEv
libindiAlignmentDriver.so.2:_ZN4INDI18AlignmentSubsystem10ConvexHull6AddOneEPNS1_16tVertexStructureE
libindiAlignmentDriver.so.2:_ZN4INDI18AlignmentSubsystem10ConvexHull6ChecksEv
libindiAlignmentDriver.so.2:_ZN4INDI18AlignmentSubsystem10ConvexHull6SubVecEPiS2_S2_
libindiAlignmentDriver.so.2:_ZN4INDI18AlignmentSubsystem10ConvexHull7CleanUpEPPNS1_16tVertexStructureE
libindiAlignmentDriver.so.2:_ZN4INDI18AlignmentSubsystem10ConvexHull7MakeCcwEPNS1_14tFaceStructureEPNS1_14tEdgeStructureEPNS1_16tVertexStructureE
libindiAlignmentDriver.so.2:_ZN4INDI18AlignmentSubsystem10ConvexHull7VolumeiEPNS1_14tFaceStructureEPNS1_16tVertexStructureE
libindiAlignmentDriver.so.2:_ZN4INDI18AlignmentSubsystem10ConvexHull8MakeFaceEPNS1_16tVertexStructureES3_S3_PNS1_14tFaceStructureE
libindiAlignmentDriver.so.2:_ZN4INDI18AlignmentSubsystem10ConvexHull8PrintObjEPKc
libindiAlignmentDriver.so.2:_ZN4INDI18AlignmentSubsystem10ConvexHull8PrintOutEPKcPNS1_16tVertexStructureE
libindiAlignmentDriver.so.2:_ZN4INDI18AlignmentSubsystem10ConvexHull9CollinearEPNS1_16tVertexStructureES3_S3_
libindiAlignmentDriver.so.2:_ZN4INDI18AlignmentSubsystem10ConvexHull9ConvexityEv
libindiAlignmentDriver.so.2:_ZN4INDI18AlignmentSubsystem10ConvexHullC1Ev
libindiAlignmentDriver.so.2:_ZN4INDI18AlignmentSubsystem10ConvexHullC2Ev
libindiAlignmentDriver.so.2:_ZN4INDI18AlignmentSubsystem10MathPlugin10InitialiseEPNS0_16InMemoryDatabaseE
libindiAlignmentDriver.so.2:_ZN4INDI18AlignmentSubsystem10MathPlugin20SanitizePolarEntriesEPNS0_16InMemoryDatabaseENS0_14MountAlignmentE
libindiAlignmentDriver.so.2:_ZN4INDI18AlignmentSubsystem13DBG_ALIGNMENTE
libindiAlignmentDriver.so.2:_ZN4INDI18AlignmentSubsystem15BasicMathPlugin10InitialiseEPNS0_16InMemoryDatabaseE
libindiAlignmentDriver.so.2:_ZN4INDI18AlignmentSubsystem15BasicMathPlugin15MatrixInvert3x3EP10gsl_matrixS3_
libindiAlignmentDriver.so.2:_ZN4INDI18AlignmentSubsystem15BasicMathPlugin20Matrix3x3DeterminantEP10gsl_matrix
libindiAlignmentDriver.so.2:_ZN4INDI18AlignmentSubsystem15BasicMathPlugin20MatrixMatrixMultiplyEP10gsl_matrixS3_S3_
libindiAlignmentDriver.so.2:_ZN4INDI18AlignmentSubsystem15BasicMathPlugin20MatrixVectorMultiplyEP10gsl_matrixP10gsl_vectorS5_
libindiAlignmentDriver.so.2:_ZN4INDI18AlignmentSubsystem15BasicMathPlugin23RayTriangleIntersectionERNS0_24TelescopeDirectionVectorES3_S3_S3_
libindiAlignmentDriver.so.2:_ZN4INDI18AlignmentSubsystem15BasicMathPlugin29TransformCelestialToTelescopeEdddRNS0_24TelescopeDirectionVectorE
libindiAlignmentDriver.so.2:_ZN4INDI18AlignmentSubsystem15BasicMathPlugin29TransformTelescopeToCelestialERKNS0_24TelescopeDirectionVectorERdS5_d
libindiAlignmentDriver.so.2:_ZN4INDI18AlignmentSubsystem15BasicMathPlugin5Dump3EPKcP10gsl_vector
libindiAlignmentDriver.so.2:_ZN4INDI18AlignmentSubsystem15BasicMathPlugin7Dump3x3EPKcP10gsl_matrix
libindiAlignmentDriver.so.2:_ZN4INDI18AlignmentSubsystem15BasicMathPluginC1Ev
libindiAlignmentDriver.so.2:_ZN4INDI18AlignmentSubsystem15BasicMathPluginC2Ev
libindiAlignmentDriver.so.2:_ZN4INDI18AlignmentSubsystem15BasicMathPluginD0Ev
libindiAlignmentDriver.so.2:_ZN4INDI18AlignmentSubsystem15BasicMathPluginD1Ev
libindiAlignmentDriver.so.2:_ZN4INDI18AlignmentSubsystem15BasicMathPluginD2Ev
libindiAlignmentDriver.so.2:_ZN4INDI18AlignmentSubsystem16InMemoryDatabase12LoadDatabaseEPKc
libindiAlignmentDriver.so.2:_ZN4INDI18AlignmentSubsystem16InMemoryDatabase12SaveDatabaseEPKc
libindiAlignmentDriver.so.2:_ZN4INDI18AlignmentSubsystem16InMemoryDatabase15RemoveSyncPointERKNS0_22AlignmentDatabaseEntryEd
libindiAlignmentDriver.so.2:_ZN4INDI18AlignmentSubsystem16InMemoryDatabase23SetLoadDatabaseCallbackEPFvPvES2_
libindiAlignmentDriver.so.2:_ZN4INDI18AlignmentSubsystem16InMemoryDatabase28GetDatabaseReferencePositionERNS_22IGeographicCoordinatesE
libindiAlignmentDriver.so.2:_ZN4INDI18AlignmentSubsystem16InMemoryDatabase28SetDatabaseReferencePositionERKNS_22IGeographicCoordinatesE
libindiAlignmentDriver.so.2:_ZN4INDI18AlignmentSubsystem16InMemoryDatabase28SetDatabaseReferencePositionEdd
libindiAlignmentDriver.so.2:_ZN4INDI18AlignmentSubsystem16InMemoryDatabaseC1Ev
libindiAlignmentDriver.so.2:_ZN4INDI18AlignmentSubsystem16InMemoryDatabaseC2Ev
libindiAlignmentDriver.so.2:_ZN4INDI18AlignmentSubsystem17BuiltInMathPlugin26CalculateTransformMatricesERKNS0_24TelescopeDirectionVectorES4_S4_S4_S4_S4_P10gsl_matrixS6_
libindiAlignmentDriver.so.2:_ZN4INDI18AlignmentSubsystem20MathPluginManagement10InitialiseEPNS0_16InMemoryDatabaseE
libindiAlignmentDriver.so.2:_ZN4INDI18AlignmentSubsystem20MathPluginManagement14InitPropertiesEPNS_9TelescopeE
libindiAlignmentDriver.so.2:_ZN4INDI18AlignmentSubsystem20MathPluginManagement16EnumeratePluginsEv
libindiAlignmentDriver.so.2:_ZN4INDI18AlignmentSubsystem20MathPluginManagement19HandlePluginLoadingEPNS_9TelescopeEii
libindiAlignmentDriver.so.2:_ZN4INDI18AlignmentSubsystem20MathPluginManagement20SaveConfigPropertiesEP8_IO_FILE
libindiAlignmentDriver.so.2:_ZN4INDI18AlignmentSubsystem20MathPluginManagement21ProcessTextPropertiesEPNS_9TelescopeEPKcPPcS7_i
libindiAlignmentDriver.so.2:_ZN4INDI18AlignmentSubsystem20MathPluginManagement23ProcessSwitchPropertiesEPNS_9TelescopeEPKcP7ISStatePPci
libindiAlignmentDriver.so.2:_ZN4INDI18AlignmentSubsystem20MathPluginManagement27SetAlignmentSubsystemActiveEb
libindiAlignmentDriver.so.2:_ZN4INDI18AlignmentSubsystem20MathPluginManagement28GetApproximateMountAlignmentEv
libindiAlignmentDriver.so.2:_ZN4INDI18AlignmentSubsystem20MathPluginManagement28SetApproximateMountAlignmentENS0_14MountAlignmentE
libindiAlignmentDriver.so.2:_ZN4INDI18AlignmentSubsystem20MathPluginManagement29TransformCelestialToTelescopeEdddRNS0_24TelescopeDirectionVectorE
libindiAlignmentDriver.so.2:_ZN4INDI18AlignmentSubsystem20MathPluginManagement29TransformTelescopeToCelestialERKNS0_24TelescopeDirectionVectorERdS5_d
libindiAlignmentDriver.so.2:_ZN4INDI18AlignmentSubsystem20MathPluginManagement41SetApproximateMountAlignmentFromMountTypeENS1_9MountTypeE
libindiAlignmentDriver.so.2:_ZN4INDI18AlignmentSubsystem20MathPluginManagementC1Ev
libindiAlignmentDriver.so.2:_ZN4INDI18AlignmentSubsystem20MathPluginManagementC2Ev
libindiAlignmentDriver.so.2:_ZN4INDI18AlignmentSubsystem24TelescopeDirectionVector13RotateAroundYEd
libindiAlignmentDriver.so.2:_ZN4INDI18AlignmentSubsystem28AlignmentSubsystemForDrivers19SkyToTelescopeAltAzEddRdS2_
libindiAlignmentDriver.so.2:_ZN4INDI18AlignmentSubsystem28AlignmentSubsystemForDrivers19TelescopeAltAzToSkyEddRdS2_
libindiAlignmentDriver.so.2:_ZN4INDI18AlignmentSubsystem28AlignmentSubsystemForDrivers22AddAlignmentEntryAltAzEdddd
libindiAlignmentDriver.so.2:_ZN4INDI18AlignmentSubsystem28AlignmentSubsystemForDrivers22MyDatabaseLoadCallbackEPv
libindiAlignmentDriver.so.2:_ZN4INDI18AlignmentSubsystem28AlignmentSubsystemForDrivers23InitAlignmentPropertiesEPNS_9TelescopeE
libindiAlignmentDriver.so.2:_ZN4INDI18AlignmentSubsystem28AlignmentSubsystemForDrivers24SkyToTelescopeEquatorialEddRdS2_
libindiAlignmentDriver.so.2:_ZN4INDI18AlignmentSubsystem28AlignmentSubsystemForDrivers24TelescopeEquatorialToSkyEddRdS2_
libindiAlignmentDriver.so.2:_ZN4INDI18AlignmentSubsystem28AlignmentSubsystemForDrivers27AddAlignmentEntryEquatorialEdddd
libindiAlignmentDriver.so.2:_ZN4INDI18AlignmentSubsystem28AlignmentSubsystemForDrivers29SaveAlignmentConfigPropertiesEP8_IO_FILE
libindiAlignmentDriver.so.2:_ZN4INDI18AlignmentSubsystem28AlignmentSubsystemForDrivers30ProcessAlignmentBLOBPropertiesEPNS_9TelescopeEPKcPiS6_PPcS8_S8_i
libindiAlignmentDriver.so.2:_ZN4INDI18AlignmentSubsystem28AlignmentSubsystemForDrivers30ProcessAlignmentTextPropertiesEPNS_9TelescopeEPKcPPcS7_i
libindiAlignmentDriver.so.2:_ZN4INDI18AlignmentSubsystem28AlignmentSubsystemForDrivers32ProcessAlignmentNumberPropertiesEPNS_9TelescopeEPKcPdPPci
libindiAlignmentDriver.so.2:_ZN4INDI18AlignmentSubsystem28AlignmentSubsystemForDrivers32ProcessAlignmentSwitchPropertiesEPNS_9TelescopeEPKcP7ISStatePPci
libindiAlignmentDriver.so.2:_ZN4INDI18AlignmentSubsystem28AlignmentSubsystemForDriversC1Ev
libindiAlignmentDriver.so.2:_ZN4INDI18AlignmentSubsystem28AlignmentSubsystemForDriversC2Ev
libindiAlignmentDriver.so.2:_ZN4INDI18AlignmentSubsystem31MapPropertiesToInMemoryDatabase10UpdateSizeEv
libindiAlignmentDriver.so.2:_ZN4INDI18AlignmentSubsystem31MapPropertiesToInMemoryDatabase14InitPropertiesEPNS_9TelescopeE
libindiAlignmentDriver.so.2:_ZN4INDI18AlignmentSubsystem31MapPropertiesToInMemoryDatabase14UpdateLocationEddd
libindiAlignmentDriver.so.2:_ZN4INDI18AlignmentSubsystem31MapPropertiesToInMemoryDatabase21ProcessBlobPropertiesEPNS_9TelescopeEPKcPiS6_PPcS8_S8_i
libindiAlignmentDriver.so.2:_ZN4INDI18AlignmentSubsystem31MapPropertiesToInMemoryDatabase23ProcessNumberPropertiesEPNS_9TelescopeEPKcPdPPci
libindiAlignmentDriver.so.2:_ZN4INDI18AlignmentSubsystem31MapPropertiesToInMemoryDatabase23ProcessSwitchPropertiesEPNS_9TelescopeEPKcP7ISStatePPci
libindiAlignmentDriver.so.2:_ZN4INDI18AlignmentSubsystem40TelescopeDirectionVectorSupportFunctions47SphericalCoordinateFromTelescopeDirectionVectorENS0_24TelescopeDirectionVectorERdNS1_21AzimuthAngleDirectionES3_NS1_19PolarAngleDirectionE
libindiAlignmentDriver.so.2:_ZN4INDI18AlignmentSubsystem40TelescopeDirectionVectorSupportFunctions47TelescopeDirectionVectorFromSphericalCoordinateEdNS1_21AzimuthAngleDirectionEdNS1_19PolarAngleDirectionE
libindiAlignmentDriver.so.2:_ZN4INDI19PropertyBlobPrivateC1Em
libindiAlignmentDriver.so.2:_ZN4INDI19PropertyBlobPrivateC2Em
libindiAlignmentDriver.so.2:_ZN4INDI19PropertyBlobPrivateD0Ev
libindiAlignmentDriver.so.2:_ZN4INDI19PropertyBlobPrivateD1Ev
libindiAlignmentDriver.so.2:_ZN4INDI19PropertyBlobPrivateD2Ev
libindiAlignmentDriver.so.2:_ZN4INDI19PropertyTextPrivateC1Em
libindiAlignmentDriver.so.2:_ZN4INDI19PropertyTextPrivateC2Em
libindiAlignmentDriver.so.2:_ZN4INDI19PropertyTextPrivateD0Ev
libindiAlignmentDriver.so.2:_ZN4INDI19PropertyTextPrivateD1Ev
libindiAlignmentDriver.so.2:_ZN4INDI19PropertyTextPrivateD2Ev
libindiAlignmentDriver.so.2:_ZN4INDI19WatchDeviceProperty10processXmlERKNS_13LilXmlElementEPcRKSt8functionIFNS_12ParentDeviceEvEE
libindiAlignmentDriver.so.2:_ZN4INDI19WatchDeviceProperty11watchDeviceERKNSt7__cxx1112basic_stringIcSt11char_traitsIcESaIcEEE
libindiAlignmentDriver.so.2:_ZN4INDI19WatchDeviceProperty11watchDeviceERKNSt7__cxx1112basic_stringIcSt11char_traitsIcESaIcEEERKSt8functionIFvNS_10BaseDeviceEEE
libindiAlignmentDriver.so.2:_ZN4INDI19WatchDeviceProperty12clearDevicesEv
libindiAlignmentDriver.so.2:_ZN4INDI19WatchDeviceProperty12deleteDeviceERKNS_10BaseDeviceE
libindiAlignmentDriver.so.2:_ZN4INDI19WatchDeviceProperty13watchPropertyERKNSt7__cxx1112basic_stringIcSt11char_traitsIcESaIcEEES8_
libindiAlignmentDriver.so.2:_ZN4INDI19WatchDeviceProperty14unwatchDevicesEv
libindiAlignmentDriver.so.2:_ZN4INDI19WatchDeviceProperty15getDeviceByNameEPKc
libindiAlignmentDriver.so.2:_ZN4INDI19WatchDeviceProperty18ensureDeviceByNameEPKcRKSt8functionIFNS_12ParentDeviceEvEE
libindiAlignmentDriver.so.2:_ZN4INDI19WatchDeviceProperty5clearEv
libindiAlignmentDriver.so.2:_ZN4INDI20PropertyLightPrivateC1Em
libindiAlignmentDriver.so.2:_ZN4INDI20PropertyLightPrivateC2Em
libindiAlignmentDriver.so.2:_ZN4INDI20PropertyLightPrivateD0Ev
libindiAlignmentDriver.so.2:_ZN4INDI20PropertyLightPrivateD1Ev
libindiAlignmentDriver.so.2:_ZN4INDI20PropertyLightPrivateD2Ev
libindiAlignmentDriver.so.2:_ZN4INDI21PropertyNumberPrivateC1Em
libindiAlignmentDriver.so.2:_ZN4INDI21PropertyNumberPrivateC2Em
libindiAlignmentDriver.so.2:_ZN4INDI21PropertyNumberPrivateD0Ev
libindiAlignmentDriver.so.2:_ZN4INDI21PropertyNumberPrivateD1Ev
libindiAlignmentDriver.so.2:_ZN4INDI21PropertyNumberPrivateD2Ev
libindiAlignmentDriver.so.2:_ZN4INDI21PropertySwitchPrivateC1Em
libindiAlignmentDriver.so.2:_ZN4INDI21PropertySwitchPrivateC2Em
libindiAlignmentDriver.so.2:_ZN4INDI21PropertySwitchPrivateD0Ev
libindiAlignmentDriver.so.2:_ZN4INDI21PropertySwitchPrivateD1Ev
libindiAlignmentDriver.so.2:_ZN4INDI21PropertySwitchPrivateD2Ev
libindiAlignmentDriver.so.2:_ZN4INDI2SP10CONNECTIONE
libindiAlignmentDriver.so.2:_ZN4INDI2SP11DEVICE_PORTE
libindiAlignmentDriver.so.2:_ZN4INDI2SP14DEVICE_ADDRESSE
libindiAlignmentDriver.so.2:_ZN4INDI2SP16DEVICE_BAUD_RATEE
libindiAlignmentDriver.so.2:_ZN4INDI2SP17DEVICE_LAN_SEARCHE
libindiAlignmentDriver.so.2:_ZN4INDI2SP18DEVICE_AUTO_SEARCHE
libindiAlignmentDriver.so.2:_ZN4INDI8Property10emitUpdateEv
libindiAlignmentDriver.so.2:_ZN4INDI8Property10setDynamicEb
libindiAlignmentDriver.so.2:_ZN4INDI8Property10setTimeoutEd
libindiAlignmentDriver.so.2:_ZN4INDI8Property11setPropertyEPv
libindiAlignmentDriver.so.2:_ZN4INDI8Property12setGroupNameEPKc
libindiAlignmentDriver.so.2:_ZN4INDI8Property12setTimestampEPKc
libindiAlignmentDriver.so.2:_ZN4INDI8Property13setBaseDeviceENS_10BaseDeviceE
libindiAlignmentDriver.so.2:_ZN4INDI8Property13setBaseDeviceEPNS_10BaseDeviceE
libindiAlignmentDriver.so.2:_ZN4INDI8Property13setDeviceNameEPKc
libindiAlignmentDriver.so.2:_ZN4INDI8Property13setPermissionE5IPerm
libindiAlignmentDriver.so.2:_ZN4INDI8Property13setRegisteredEb
libindiAlignmentDriver.so.2:_ZN4INDI8Property4loadEv
libindiAlignmentDriver.so.2:_ZN4INDI8Property4selfEv
libindiAlignmentDriver.so.2:_ZN4INDI8Property7setNameEPKc
libindiAlignmentDriver.so.2:_ZN4INDI8Property7setTypeE18INDI_PROPERTY_TYPE
libindiAlignmentDriver.so.2:_ZN4INDI8Property8onUpdateERKSt8functionIFvvEE
libindiAlignmentDriver.so.2:_ZN4INDI8Property8setLabelEPKc
libindiAlignmentDriver.so.2:_ZN4INDI8Property8setStateE7IPState
libindiAlignmentDriver.so.2:_ZN4INDI8PropertyC1ENS_12PropertyBlobE
libindiAlignmentDriver.so.2:_ZN4INDI8PropertyC1ENS_12PropertyTextE
libindiAlignmentDriver.so.2:_ZN4INDI8PropertyC1ENS_13PropertyLightE
libindiAlignmentDriver.so.2:_ZN4INDI8PropertyC1ENS_14PropertyNumberE
libindiAlignmentDriver.so.2:_ZN4INDI8PropertyC1ENS_14PropertySwitchE
libindiAlignmentDriver.so.2:_ZN4INDI8PropertyC1EP20_IBLOBVectorProperty
libindiAlignmentDriver.so.2:_ZN4INDI8PropertyC1EP20_ITextVectorProperty
libindiAlignmentDriver.so.2:_ZN4INDI8PropertyC1EP21_ILightVectorProperty
libindiAlignmentDriver.so.2:_ZN4INDI8PropertyC1EP22_INumberVectorProperty
libindiAlignmentDriver.so.2:_ZN4INDI8PropertyC1EP22_ISwitchVectorProperty
libindiAlignmentDriver.so.2:_ZN4INDI8PropertyC1EPNS_12PropertyViewI6_IBLOBEE
libindiAlignmentDriver.so.2:_ZN4INDI8PropertyC1EPNS_12PropertyViewI6_ITextEE
libindiAlignmentDriver.so.2:_ZN4INDI8PropertyC1EPNS_12PropertyViewI7_ILightEE
libindiAlignmentDriver.so.2:_ZN4INDI8PropertyC1EPNS_12PropertyViewI8_INumberEE
libindiAlignmentDriver.so.2:_ZN4INDI8PropertyC1EPNS_12PropertyViewI8_ISwitchEE
libindiAlignmentDriver.so.2:_ZN4INDI8PropertyC1ERKSt10shared_ptrINS_15PropertyPrivateEE
libindiAlignmentDriver.so.2:_ZN4INDI8PropertyC1ERNS_15PropertyPrivateE
libindiAlignmentDriver.so.2:_ZN4INDI8PropertyC1Ev
libindiAlignmentDriver.so.2:_ZN4INDI8PropertyC2ENS_12PropertyBlobE
libindiAlignmentDriver.so.2:_ZN4INDI8PropertyC2ENS_12PropertyTextE
libindiAlignmentDriver.so.2:_ZN4INDI8PropertyC2ENS_13PropertyLightE
libindiAlignmentDriver.so.2:_ZN4INDI8PropertyC2ENS_14PropertyNumberE
libindiAlignmentDriver.so.2:_ZN4INDI8PropertyC2ENS_14PropertySwitchE
libindiAlignmentDriver.so.2:_ZN4INDI8PropertyC2EP20_IBLOBVectorProperty
libindiAlignmentDriver.so.2:_ZN4INDI8PropertyC2EP20_ITextVectorProperty
libindiAlignmentDriver.so.2:_ZN4INDI8PropertyC2EP21_ILightVectorProperty
libindiAlignmentDriver.so.2:_ZN4INDI8PropertyC2EP22_INumberVectorProperty
libindiAlignmentDriver.so.2:_ZN4INDI8PropertyC2EP22_ISwitchVectorProperty
libindiAlignmentDriver.so.2:_ZN4INDI8PropertyC2EPNS_12PropertyViewI6_IBLOBEE
libindiAlignmentDriver.so.2:_ZN4INDI8PropertyC2EPNS_12PropertyViewI6_ITextEE
libindiAlignmentDriver.so.2:_ZN4INDI8PropertyC2EPNS_12PropertyViewI7_ILightEE
libindiAlignmentDriver.so.2:_ZN4INDI8PropertyC2EPNS_12PropertyViewI8_INumberEE
libindiAlignmentDriver.so.2:_ZN4INDI8PropertyC2EPNS_12PropertyViewI8_ISwitchEE
libindiAlignmentDriver.so.2:_ZN4INDI8PropertyC2ERKSt10shared_ptrINS_15PropertyPrivateEE
libindiAlignmentDriver.so.2:_ZN4INDI8PropertyC2ERNS_15PropertyPrivateE
libindiAlignmentDriver.so.2:_ZN4INDI8PropertyC2Ev
libindiAlignmentDriver.so.2:_ZN4INDI8PropertyD1Ev
libindiAlignmentDriver.so.2:_ZN4INDI8PropertyD2Ev
libindiAlignmentDriver.so.2:_ZN4INDI8PropertycvPS0_Ev
libindiAlignmentDriver.so.2:_ZN4INDI8PropertyptEv
libindiAlignmentDriver.so.2:_ZNK4INDI10BaseDevice11getMediatorEv
libindiAlignmentDriver.so.2:_ZNK4INDI10BaseDevice11getPropertyEPKc18INDI_PROPERTY_TYPE
libindiAlignmentDriver.so.2:_ZNK4INDI10BaseDevice11isConnectedEv
libindiAlignmentDriver.so.2:_ZNK4INDI10BaseDevice11lastMessageB5cxx11Ev
libindiAlignmentDriver.so.2:_ZNK4INDI10BaseDevice12messageQueueB5cxx11Em
libindiAlignmentDriver.so.2:_ZNK4INDI10BaseDevice13getDeviceNameEv
libindiAlignmentDriver.so.2:_ZNK4INDI10BaseDevice13getDriverExecEv
libindiAlignmentDriver.so.2:_ZNK4INDI10BaseDevice13getDriverNameEv
libindiAlignmentDriver.so.2:_ZNK4INDI10BaseDevice13getPropertiesEv
libindiAlignmentDriver.so.2:_ZNK4INDI10BaseDevice14getRawPropertyEPKc18INDI_PROPERTY_TYPE
libindiAlignmentDriver.so.2:_ZNK4INDI10BaseDevice16getDriverVersionEv
libindiAlignmentDriver.so.2:_ZNK4INDI10BaseDevice16getPropertyStateEPKc
libindiAlignmentDriver.so.2:_ZNK4INDI10BaseDevice17isDeviceNameMatchEPKc
libindiAlignmentDriver.so.2:_ZNK4INDI10BaseDevice17isDeviceNameMatchERKNSt7__cxx1112basic_stringIcSt11char_traitsIcESaIcEEE
libindiAlignmentDriver.so.2:_ZNK4INDI10BaseDevice18getDriverInterfaceEv
libindiAlignmentDriver.so.2:_ZNK4INDI10BaseDevice21getPropertyPermissionEPKc
libindiAlignmentDriver.so.2:_ZNK4INDI10BaseDevice7getBLOBEPKc
libindiAlignmentDriver.so.2:_ZNK4INDI10BaseDevice7getTextEPKc
libindiAlignmentDriver.so.2:_ZNK4INDI10BaseDevice7isValidEv
libindiAlignmentDriver.so.2:_ZNK4INDI10BaseDevice8getLightEPKc
libindiAlignmentDriver.so.2:_ZNK4INDI10BaseDevice9getNumberEPKc
libindiAlignmentDriver.so.2:_ZNK4INDI10BaseDevice9getSwitchEPKc
libindiAlignmentDriver.so.2:_ZNK4INDI10Properties2atEm
libindiAlignmentDriver.so.2:_ZNK4INDI10Properties3endEv
libindiAlignmentDriver.so.2:_ZNK4INDI10Properties4backEv
libindiAlignmentDriver.so.2:_ZNK4INDI10Properties4sizeEv
libindiAlignmentDriver.so.2:_ZNK4INDI10Properties5beginEv
libindiAlignmentDriver.so.2:_ZNK4INDI10Properties5frontEv
libindiAlignmentDriver.so.2:_ZNK4INDI10PropertiescvPKS0_Ev
libindiAlignmentDriver.so.2:_ZNK4INDI10PropertiescvPKSt6vectorIPNS_8PropertyESaIS3_EEEv
libindiAlignmentDriver.so.2:_ZNK4INDI10PropertiesdeEv
libindiAlignmentDriver.so.2:_ZNK4INDI10PropertiesixEm
libindiAlignmentDriver.so.2:_ZNK4INDI10PropertiesptEv
libindiAlignmentDriver.so.2:_ZNK4INDI12PropertyText9isUpdatedEPKPKcS4_i
libindiAlignmentDriver.so.2:_ZNK4INDI12PropertyViewI6_IBLOBE6vapplyEPKcP13__va_list_tag
libindiAlignmentDriver.so.2:_ZNK4INDI12PropertyViewI6_IBLOBE7vdefineEPKcP13__va_list_tag
libindiAlignmentDriver.so.2:_ZNK4INDI12PropertyViewI6_ITextE6vapplyEPKcP13__va_list_tag
libindiAlignmentDriver.so.2:_ZNK4INDI12PropertyViewI6_ITextE7vdefineEPKcP13__va_list_tag
libindiAlignmentDriver.so.2:_ZNK4INDI12PropertyViewI6_ITextE9isUpdatedIS1_Lb1EEEbPKPKcS7_i
libindiAlignmentDriver.so.2:_ZNK4INDI12PropertyViewI7_ILightE6vapplyEPKcP13__va_list_tag
libindiAlignmentDriver.so.2:_ZNK4INDI12PropertyViewI7_ILightE7vdefineEPKcP13__va_list_tag
libindiAlignmentDriver.so.2:_ZNK4INDI12PropertyViewI8_INumberE6vapplyEPKcP13__va_list_tag
libindiAlignmentDriver.so.2:_ZNK4INDI12PropertyViewI8_INumberE7vdefineEPKcP13__va_list_tag
libindiAlignmentDriver.so.2:_ZNK4INDI12PropertyViewI8_INumberE9isUpdatedIS1_Lb1EEEbPKdPKPKci
libindiAlignmentDriver.so.2:_ZNK4INDI12PropertyViewI8_ISwitchE6vapplyEPKcP13__va_list_tag
libindiAlignmentDriver.so.2:_ZNK4INDI12PropertyViewI8_ISwitchE7vdefineEPKcP13__va_list_tag
libindiAlignmentDriver.so.2:_ZNK4INDI12PropertyViewI8_ISwitchE9isUpdatedIS1_Lb1EEEbPK7ISStatePKPKci
libindiAlignmentDriver.so.2:_ZNK4INDI14PropertyNumber9isUpdatedEPKdPKPKci
libindiAlignmentDriver.so.2:_ZNK4INDI14PropertySwitch10isSwitchOnERKNSt7__cxx1112basic_stringIcSt11char_traitsIcESaIcEEE
libindiAlignmentDriver.so.2:_ZNK4INDI14PropertySwitch12findOnSwitchEv
libindiAlignmentDriver.so.2:_ZNK4INDI14PropertySwitch15getRuleAsStringEv
libindiAlignmentDriver.so.2:_ZNK4INDI14PropertySwitch16findOnSwitchNameB5cxx11Ev
libindiAlignmentDriver.so.2:_ZNK4INDI14PropertySwitch17findOnSwitchIndexEv
libindiAlignmentDriver.so.2:_ZNK4INDI14PropertySwitch17hasUpdateCallbackEv
libindiAlignmentDriver.so.2:_ZNK4INDI14PropertySwitch7getRuleEv
libindiAlignmentDriver.so.2:_ZNK4INDI14PropertySwitch9isUpdatedEPK7ISStatePKPKci
libindiAlignmentDriver.so.2:_ZNK4INDI18AlignmentSubsystem16InMemoryDatabase26CheckForDuplicateSyncPointERKNS0_22AlignmentDatabaseEntryEd
libindiAlignmentDriver.so.2:_ZNK4INDI19WatchDeviceProperty10getDevicesEv
libindiAlignmentDriver.so.2:_ZNK4INDI19WatchDeviceProperty15isDeviceWatchedEPKc
libindiAlignmentDriver.so.2:_ZNK4INDI19WatchDeviceProperty7isEmptyEv
libindiAlignmentDriver.so.2:_ZNK4INDI8Property11getPropertyEv
libindiAlignmentDriver.so.2:_ZNK4INDI8Property11isNameMatchEPKc
libindiAlignmentDriver.so.2:_ZNK4INDI8Property11isNameMatchERKNSt7__cxx1112basic_stringIcSt11char_traitsIcESaIcEEE
libindiAlignmentDriver.so.2:_ZNK4INDI8Property11isTypeMatchE18INDI_PROPERTY_TYPE
libindiAlignmentDriver.so.2:_ZNK4INDI8Property12getGroupNameEv
libindiAlignmentDriver.so.2:_ZNK4INDI8Property12getTimestampEv
libindiAlignmentDriver.so.2:_ZNK4INDI8Property12isLabelMatchEPKc
libindiAlignmentDriver.so.2:_ZNK4INDI8Property12isLabelMatchERKNSt7__cxx1112basic_stringIcSt11char_traitsIcESaIcEEE
libindiAlignmentDriver.so.2:_ZNK4INDI8Property13getBaseDeviceEv
libindiAlignmentDriver.so.2:_ZNK4INDI8Property13getDeviceNameEv
libindiAlignmentDriver.so.2:_ZNK4INDI8Property13getPermissionEv
libindiAlignmentDriver.so.2:_ZNK4INDI8Property13getRegisteredEv
libindiAlignmentDriver.so.2:_ZNK4INDI8Property15getTypeAsStringEv
libindiAlignmentDriver.so.2:_ZNK4INDI8Property16getStateAsStringEv
libindiAlignmentDriver.so.2:_ZNK4INDI8Property17hasUpdateCallbackEv
libindiAlignmentDriver.so.2:_ZNK4INDI8Property17isDeviceNameMatchEPKc
libindiAlignmentDriver.so.2:_ZNK4INDI8Property17isDeviceNameMatchERKNSt7__cxx1112basic_stringIcSt11char_traitsIcESaIcEEE
libindiAlignmentDriver.so.2:_ZNK4INDI8Property4saveEP8_IO_FILE
libindiAlignmentDriver.so.2:_ZNK4INDI8Property5applyEPKcz
libindiAlignmentDriver.so.2:_ZNK4INDI8Property6defineEPKcz
libindiAlignmentDriver.so.2:_ZNK4INDI8Property7getBLOBEv
libindiAlignmentDriver.so.2:_ZNK4INDI8Property7getNameEv
libindiAlignmentDriver.so.2:_ZNK4INDI8Property7getTextEv
libindiAlignmentDriver.so.2:_ZNK4INDI8Property7getTypeEv
libindiAlignmentDriver.so.2:_ZNK4INDI8Property7isEmptyEv
libindiAlignmentDriver.so.2:_ZNK4INDI8Property7isValidEv
libindiAlignmentDriver.so.2:_ZNK4INDI8Property8getLabelEv
libindiAlignmentDriver.so.2:_ZNK4INDI8Property8getLightEv
libindiAlignmentDriver.so.2:_ZNK4INDI8Property8getStateEv
libindiAlignmentDriver.so.2:_ZNK4INDI8Property9getNumberEv
libindiAlignmentDriver.so.2:_ZNK4INDI8Property9getSwitchEv
libindiAlignmentDriver.so.2:_ZNK4INDI8Property9isDynamicEv
libindiAlignmentDriver.so.2:_ZNK4INDI8PropertycvPKS0_Ev
libindiAlignmentDriver.so.2:_ZNK4INDI8PropertyptEv
libindiAlignmentDriver.so.2:_ZThn24_N4INDI18AlignmentSubsystem15BasicMathPluginD0Ev
libindiAlignmentDriver.so.2:_ZThn24_N4INDI18AlignmentSubsystem15BasicMathPluginD1Ev
libindi_Nearest_MathPlugin.so:Create
libindi_Nearest_MathPlugin.so:Destroy
libindi_Nearest_MathPlugin.so:GetDisplayName
libindi_Nearest_MathPlugin.so:_ZN4INDI18AlignmentSubsystem17NearestMathPlugin10InitialiseEPNS0_16InMemoryDatabaseE
libindi_Nearest_MathPlugin.so:_ZN4INDI18AlignmentSubsystem17NearestMathPlugin15GetNearestPointEddb
libindi_Nearest_MathPlugin.so:_ZN4INDI18AlignmentSubsystem17NearestMathPlugin18SphereUnitDistanceEdddd
libindi_Nearest_MathPlugin.so:_ZN4INDI18AlignmentSubsystem17NearestMathPlugin29TransformCelestialToTelescopeEdddRNS0_24TelescopeDirectionVectorE
libindi_Nearest_MathPlugin.so:_ZN4INDI18AlignmentSubsystem17NearestMathPlugin29TransformTelescopeToCelestialERKNS0_24TelescopeDirectionVectorERdS5_d
libindi_Nearest_MathPlugin.so:_ZN4INDI18AlignmentSubsystem17NearestMathPluginC1Ev
libindi_Nearest_MathPlugin.so:_ZN4INDI18AlignmentSubsystem17NearestMathPluginC2Ev
libindi_Nearest_MathPlugin.so:_ZN4INDI18AlignmentSubsystem17NearestMathPluginD0Ev
libindi_Nearest_MathPlugin.so:_ZN4INDI18AlignmentSubsystem17NearestMathPluginD1Ev
libindi_Nearest_MathPlugin.so:_ZN4INDI18AlignmentSubsystem17NearestMathPluginD2Ev
libindi_Nearest_MathPlugin.so:_ZThn24_N4INDI18AlignmentSubsystem17NearestMathPluginD0Ev
libindi_Nearest_MathPlugin.so:_ZThn24_N4INDI18AlignmentSubsystem17NearestMathPluginD1Ev
libindi_SVD_MathPlugin.so:Create
libindi_SVD_MathPlugin.so:Destroy
libindi_SVD_MathPlugin.so:GetDisplayName
libindi_SVD_MathPlugin.so:_ZN4INDI18AlignmentSubsystem13SVDMathPlugin26CalculateTransformMatricesERKNS0_24TelescopeDirectionVectorES4_S4_S4_S4_S4_P10gsl_matrixS6_
libindiclient.so.2:IDLog
libindiclient.so.2:IDSharedBlobAlloc
libindiclient.so.2:IDSharedBlobAttach
libindiclient.so.2:IDSharedBlobDettach
libindiclient.so.2:IDSharedBlobFree
libindiclient.so.2:IDSharedBlobGetFd
libindiclient.so.2:IDSharedBlobRealloc
libindiclient.so.2:IDSharedBlobSeal
libindiclient.so.2:IDUserIOMessage
libindiclient.so.2:IDUserIOMessageVA
libindiclient.so.2:IUFillBLOB
libindiclient.so.2:IUFillBLOBVector
libindiclient.so.2:IUFillLight
libindiclient.so.2:IUFillLightVector
libindiclient.so.2:IUFillNumber
libindiclient.so.2:IUFillNumberVector
libindiclient.so.2:IUFillSwitch
libindiclient.so.2:IUFillSwitchVector
libindiclient.so.2:IUFillText
libindiclient.so.2:IUFillTextVector
libindiclient.so.2:IUFindBLOB
libindiclient.so.2:IUFindIndex
libindiclient.so.2:IUFindLight
libindiclient.so.2:IUFindNumber
libindiclient.so.2:IUFindOnStateIndex
libindiclient.so.2:IUFindOnSwitch
libindiclient.so.2:IUFindOnSwitchIndex
libindiclient.so.2:IUFindOnSwitchName
libindiclient.so.2:IUFindSwitch
libindiclient.so.2:IUFindText
libindiclient.so.2:IULoadConfigNumber
libindiclient.so.2:IULoadConfigSwitch
libindiclient.so.2:IULoadConfigText
libindiclient.so.2:IUResetSwitch
libindiclient.so.2:IUSaveBLOB
libindiclient.so.2:IUSaveConfigBLOB
libindiclient.so.2:IUSaveConfigNumber
libindiclient.so.2:IUSaveConfigSwitch
libindiclient.so.2:IUSaveConfigText
libindiclient.so.2:IUSaveText
libindiclient.so.2:IUSnoopBLOB
libindiclient.so.2:IUSnoopLight
libindiclient.so.2:IUSnoopNumber
libindiclient.so.2:IUSnoopSwitch
libindiclient.so.2:IUSnoopText
libindiclient.so.2:IUUserIOBLOBContext
libindiclient.so.2:IUUserIOBLOBContextOne
libindiclient.so.2:IUUserIOConfigTag
libindiclient.so.2:IUUserIODefBLOBVA
libindiclient.so.2:IUUserIODefLightVA
libindiclient.so.2:IUUserIODefNumberVA
libindiclient.so.2:IUUserIODefSwitchVA
libindiclient.so.2:IUUserIODefTextVA
libindiclient.so.2:IUUserIODeleteVA
libindiclient.so.2:IUUserIOEnableBLOB
libindiclient.so.2:IUUserIOGetProperties
libindiclient.so.2:IUUserIOLightContext
libindiclient.so.2:IUUserIONewBLOB
libindiclient.so.2:IUUserIONewBLOBFinish
libindiclient.so.2:IUUserIONewBLOBStart
libindiclient.so.2:IUUserIONewNumber
libindiclient.so.2:IUUserIONewSwitch
libindiclient.so.2:IUUserIONewSwitchFull
libindiclient.so.2:IUUserIONewText
libindiclient.so.2:IUUserIONumberContext
libindiclient.so.2:IUUserIOPingReply
libindiclient.so.2:IUUserIOPingRequest
libindiclient.so.2:IUUserIOSetBLOBVA
libindiclient.so.2:IUUserIOSetLightVA
libindiclient.so.2:IUUserIOSetNumberVA
libindiclient.so.2:IUUserIOSetSwitchVA
libindiclient.so.2:IUUserIOSetTextVA
libindiclient.so.2:IUUserIOSwitchContext
libindiclient.so.2:IUUserIOSwitchContextFull
libindiclient.so.2:IUUserIOSwitchContextOne
libindiclient.so.2:IUUserIOTextContext
libindiclient.so.2:IUUserIOUpdateMinMax
libindiclient.so.2:WeakIDDefBLOBVA
libindiclient.so.2:WeakIDDefLightVA
libindiclient.so.2:WeakIDDefNumberVA
libindiclient.so.2:WeakIDDefSwitchVA
libindiclient.so.2:WeakIDDefTextVA
libindiclient.so.2:WeakIDSetBLOBVA
libindiclient.so.2:WeakIDSetLightVA
libindiclient.so.2:WeakIDSetNumberVA
libindiclient.so.2:WeakIDSetSwitchVA
libindiclient.so.2:WeakIDSetTextVA
libindiclient.so.2:WeakIUUpdateBLOB
libindiclient.so.2:WeakIUUpdateMinMax
libindiclient.so.2:WeakIUUpdateNumber
libindiclient.so.2:WeakIUUpdateSwitch
libindiclient.so.2:WeakIUUpdateText
libindiclient.so.2:_Z11cloneXMLEleP8xml_ele_
libindiclient.so.2:_Z12lilxmlMallocPFPvmEPFS_S_mEPFvS_E
libindiclient.so.2:_Z8parseXMLPcS_
libindiclient.so.2:_ZN13SocketAddress16unixDomainPrefixE
libindiclient.so.2:_ZN13SocketAddress6afInetERKNSt7__cxx1112basic_stringIcSt11char_traitsIcESaIcEEEt
libindiclient.so.2:_ZN13SocketAddress6afUnixERKNSt7__cxx1112basic_stringIcSt11char_traitsIcESaIcEEE
libindiclient.so.2:_ZN13SocketAddress6isUnixERKNSt7__cxx1112basic_stringIcSt11char_traitsIcESaIcEEE
libindiclient.so.2:_ZN13SocketAddressC1ERKNSt7__cxx1112basic_stringIcSt11char_traitsIcESaIcEEEt
libindiclient.so.2:_ZN13SocketAddressC2ERKNSt7__cxx1112basic_stringIcSt11char_traitsIcESaIcEEEt
libindiclient.so.2:_ZN16TcpSocketPrivate10joinThreadERSt6thread
libindiclient.so.2:_ZN16TcpSocketPrivate10recvSocketEPvm
libindiclient.so.2:_ZN16TcpSocketPrivate10sendSocketEPKvm
libindiclient.so.2:_ZN16TcpSocketPrivate11closeSocketEv
libindiclient.so.2:_ZN16TcpSocketPrivate12aboutToCloseEv
libindiclient.so.2:_ZN16TcpSocketPrivate12createSocketEi
libindiclient.so.2:_ZN16TcpSocketPrivate13connectSocketERKNSt7__cxx1112basic_stringIcSt11char_traitsIcESaIcEEEt
libindiclient.so.2:_ZN16TcpSocketPrivate13connectToHostERKNSt7__cxx1112basic_stringIcSt11char_traitsIcESaIcEEEt
libindiclient.so.2:_ZN16TcpSocketPrivate13processSocketEv
libindiclient.so.2:_ZN16TcpSocketPrivate14setSocketErrorEN9TcpSocket11SocketErrorENS_9ErrorTypeERKNSt7__cxx1112basic_stringIcSt11char_traitsIcESaIcEEE
libindiclient.so.2:_ZN16TcpSocketPrivate14setSocketStateEN9TcpSocket11SocketStateE
libindiclient.so.2:_ZN16TcpSocketPrivate17setNonblockSocketEv
libindiclient.so.2:_ZN16TcpSocketPrivate23waitForConnectedSocketsEv
libindiclient.so.2:_ZN16TcpSocketPrivate5writeEPKvm
libindiclient.so.2:_ZN16TcpSocketPrivateC1EP9TcpSocket
libindiclient.so.2:_ZN16TcpSocketPrivateC2EP9TcpSocket
libindiclient.so.2:_ZN16TcpSocketPrivateD0Ev
libindiclient.so.2:_ZN16TcpSocketPrivateD1Ev
libindiclient.so.2:_ZN16TcpSocketPrivateD2Ev
libindiclient.so.2:_ZN4INDI10BaseClient13connectServerEv
libindiclient.so.2:_ZN4INDI10BaseClient16disconnectServerEi
libindiclient.so.2:_ZN4INDI10BaseClient22enableDirectBlobAccessEPKcS2_
libindiclient.so.2:_ZN4INDI10BaseClientC1Ev
libindiclient.so.2:_ZN4INDI10BaseClientC2Ev
libindiclient.so.2:_ZN4INDI10BaseClientD0Ev
libindiclient.so.2:_ZN4INDI10BaseClientD1Ev
libindiclient.so.2:_ZN4INDI10BaseClientD2Ev
libindiclient.so.2:_ZN4INDI10BaseDevice10addMessageERKNSt7__cxx1112basic_stringIcSt11char_traitsIcESaIcEEE
libindiclient.so.2:_ZN4INDI10BaseDevice11setMediatorEPNS_12BaseMediatorE
libindiclient.so.2:_ZN4INDI10BaseDevice12checkMessageEP8xml_ele_
libindiclient.so.2:_ZN4INDI10BaseDevice13buildSkeletonEPKc
libindiclient.so.2:_ZN4INDI10BaseDevice13getPropertiesEv
libindiclient.so.2:_ZN4INDI10BaseDevice13setDeviceNameEPKc
libindiclient.so.2:_ZN4INDI10BaseDevice13watchPropertyEPKcRKSt8functionIFvNS_8PropertyEEENS0_5WATCHE
libindiclient.so.2:_ZN4INDI10BaseDevice14removePropertyEPKcPc
libindiclient.so.2:_ZN4INDI10BaseDevice16registerPropertyERKNS_8PropertyE
libindiclient.so.2:_ZN4INDI10BaseDevice16registerPropertyERKNS_8PropertyE18INDI_PROPERTY_TYPE
libindiclient.so.2:_ZN4INDI10BaseDevice17getSharedFilePathENSt7__cxx1112basic_stringIcSt11char_traitsIcESaIcEEE
libindiclient.so.2:_ZN4INDI10BaseDevice6attachEv
libindiclient.so.2:_ZN4INDI10BaseDevice6detachEv
libindiclient.so.2:_ZN4INDI10BaseDevice8setValueERKNS_13LilXmlElementEPc
libindiclient.so.2:_ZN4INDI10BaseDevice9buildPropERKNS_13LilXmlElementEPcb
libindiclient.so.2:_ZN4INDI10BaseDevice9doMessageEP8xml_ele_
libindiclient.so.2:_ZN4INDI10BaseDeviceC1ERKSt10shared_ptrINS_17BaseDevicePrivateEE
libindiclient.so.2:_ZN4INDI10BaseDeviceC1ERNS_17BaseDevicePrivateE
libindiclient.so.2:_ZN4INDI10BaseDeviceC1Ev
libindiclient.so.2:_ZN4INDI10BaseDeviceC2ERKSt10shared_ptrINS_17BaseDevicePrivateEE
libindiclient.so.2:_ZN4INDI10BaseDeviceC2ERNS_17BaseDevicePrivateE
libindiclient.so.2:_ZN4INDI10BaseDeviceC2Ev
libindiclient.so.2:_ZN4INDI10BaseDeviceD0Ev
libindiclient.so.2:_ZN4INDI10BaseDeviceD1Ev
libindiclient.so.2:_ZN4INDI10BaseDeviceD2Ev
libindiclient.so.2:_ZN4INDI10BaseDevicecvPS0_Ev
libindiclient.so.2:_ZN4INDI10BaseDeviceptEv
libindiclient.so.2:_ZN4INDI10Properties2atEm
libindiclient.so.2:_ZN4INDI10Properties3endEv
libindiclient.so.2:_ZN4INDI10Properties4backEv
libindiclient.so.2:_ZN4INDI10Properties5beginEv
libindiclient.so.2:_ZN4INDI10Properties5clearEv
libindiclient.so.2:_ZN4INDI10Properties5eraseESt15_Deque_iteratorINS_8PropertyERKS2_PS3_E
libindiclient.so.2:_ZN4INDI10Properties5eraseESt15_Deque_iteratorINS_8PropertyERKS2_PS3_ES6_
libindiclient.so.2:_ZN4INDI10Properties5eraseESt15_Deque_iteratorINS_8PropertyERS2_PS2_E
libindiclient.so.2:_ZN4INDI10Properties5eraseESt15_Deque_iteratorINS_8PropertyERS2_PS2_ES5_
libindiclient.so.2:_ZN4INDI10Properties5frontEv
libindiclient.so.2:_ZN4INDI10Properties9push_backEONS_8PropertyE
libindiclient.so.2:_ZN4INDI10Properties9push_backERKNS_8PropertyE
libindiclient.so.2:_ZN4INDI10PropertiesC1ESt10shared_ptrINS_17PropertiesPrivateEE
libindiclient.so.2:_ZN4INDI10PropertiesC1Ev
libindiclient.so.2:_ZN4INDI10PropertiesC2ESt10shared_ptrINS_17PropertiesPrivateEE
libindiclient.so.2:_ZN4INDI10PropertiesC2Ev
libindiclient.so.2:_ZN4INDI10PropertiesD1Ev
libindiclient.so.2:_ZN4INDI10PropertiesD2Ev
libindiclient.so.2:_ZN4INDI10PropertiescvPS0_Ev
libindiclient.so.2:_ZN4INDI10PropertiescvPSt6vectorIPNS_8PropertyESaIS3_EEEv
libindiclient.so.2:_ZN4INDI10PropertiesdeEv
libindiclient.so.2:_ZN4INDI10PropertiesixEm
libindiclient.so.2:_ZN4INDI10PropertiesptEv
libindiclient.so.2:_ZN4INDI10WidgetViewI6_IBLOBE4fillEPKcS4_S4_
libindiclient.so.2:_ZN4INDI10WidgetViewI6_ITextE4fillEPKcS4_S4_
libindiclient.so.2:_ZN4INDI10WidgetViewI7_ILightE4fillEPKcS4_7IPState
libindiclient.so.2:_ZN4INDI10WidgetViewI8_INumberE4fillEPKcS4_S4_dddd
libindiclient.so.2:_ZN4INDI10WidgetViewI8_ISwitchE4fillEPKcS4_7ISState
libindiclient.so.2:_ZN4INDI11format_timeB5cxx11ERK2tmPKc
libindiclient.so.2:_ZN4INDI11replace_allERNSt7__cxx1112basic_stringIcSt11char_traitsIcESaIcEEERKS5_S8_
libindiclient.so.2:_ZN4INDI12BaseMediator10newMessageENS_10BaseDeviceEi
libindiclient.so.2:_ZN4INDI12BaseMediator11newPropertyENS_8PropertyE
libindiclient.so.2:_ZN4INDI12BaseMediator12removeDeviceENS_10BaseDeviceE
libindiclient.so.2:_ZN4INDI12BaseMediator14removePropertyENS_8PropertyE
libindiclient.so.2:_ZN4INDI12BaseMediator14updatePropertyENS_8PropertyE
libindiclient.so.2:_ZN4INDI12BaseMediator15serverConnectedEv
libindiclient.so.2:_ZN4INDI12BaseMediator18serverDisconnectedEi
libindiclient.so.2:_ZN4INDI12BaseMediator9newDeviceENS_10BaseDeviceE
libindiclient.so.2:_ZN4INDI12ParentDeviceC1ENS0_4TypeE
libindiclient.so.2:_ZN4INDI12ParentDeviceC1ERKSt10shared_ptrINS_19ParentDevicePrivateEE
libindiclient.so.2:_ZN4INDI12ParentDeviceC2ENS0_4TypeE
libindiclient.so.2:_ZN4INDI12ParentDeviceC2ERKSt10shared_ptrINS_19ParentDevicePrivateEE
libindiclient.so.2:_ZN4INDI12ParentDeviceD0Ev
libindiclient.so.2:_ZN4INDI12ParentDeviceD1Ev
libindiclient.so.2:_ZN4INDI12ParentDeviceD2Ev
libindiclient.so.2:_ZN4INDI12PropertyBlob14setBlobDeleterERKSt8functionIFvRPvEE
libindiclient.so.2:_ZN4INDI12PropertyBlob4fillEPKcS2_S2_S2_5IPermd7IPState
libindiclient.so.2:_ZN4INDI12PropertyBlob6updateEPKiS2_PKPKcS6_S6_i
libindiclient.so.2:_ZN4INDI12PropertyBlobC1ENS_8PropertyE
libindiclient.so.2:_ZN4INDI12PropertyBlobC1Em
libindiclient.so.2:_ZN4INDI12PropertyBlobC2ENS_8PropertyE
libindiclient.so.2:_ZN4INDI12PropertyBlobC2Em
libindiclient.so.2:_ZN4INDI12PropertyBlobD1Ev
libindiclient.so.2:_ZN4INDI12PropertyBlobD2Ev
libindiclient.so.2:_ZN4INDI12PropertyText4fillEPKcS2_S2_S2_5IPermd7IPState
libindiclient.so.2:_ZN4INDI12PropertyText6updateEPKPKcS4_i
libindiclient.so.2:_ZN4INDI12PropertyTextC1ENS_8PropertyE
libindiclient.so.2:_ZN4INDI12PropertyTextC1Em
libindiclient.so.2:_ZN4INDI12PropertyTextC2ENS_8PropertyE
libindiclient.so.2:_ZN4INDI12PropertyTextC2Em
libindiclient.so.2:_ZN4INDI12PropertyTextD1Ev
libindiclient.so.2:_ZN4INDI12PropertyTextD2Ev
libindiclient.so.2:_ZN4INDI12PropertyViewI6_IBLOBE4fillIS1_Lb1EEEvPKcS5_S5_S5_5IPermd7IPState
libindiclient.so.2:_ZN4INDI12PropertyViewI6_IBLOBE6updateIS1_Lb1EEEbPKiS5_PKPKcS9_S9_i
libindiclient.so.2:_ZN4INDI12PropertyViewI6_ITextE4fillIS1_Lb1EEEvPKcS5_S5_S5_5IPermd7IPState
libindiclient.so.2:_ZN4INDI12PropertyViewI6_ITextE6updateIS1_Lb1EEEbPKPKcS7_i
libindiclient.so.2:_ZN4INDI12PropertyViewI7_ILightE4fillIS1_Lb1EEEvPKcS5_S5_S5_7IPState
libindiclient.so.2:_ZN4INDI12PropertyViewI8_INumberE12updateMinMaxIS1_Lb1EEEvv
libindiclient.so.2:_ZN4INDI12PropertyViewI8_INumberE4fillIS1_Lb1EEEvPKcS5_S5_S5_5IPermd7IPState
libindiclient.so.2:_ZN4INDI12PropertyViewI8_INumberE6updateIS1_Lb1EEEbPKdPKPKci
libindiclient.so.2:_ZN4INDI12PropertyViewI8_ISwitchE4fillIS1_Lb1EEEvPKcS5_S5_S5_5IPerm6ISRuled7IPState
libindiclient.so.2:_ZN4INDI12PropertyViewI8_ISwitchE6updateIS1_Lb1EEEbPK7ISStatePKPKci
libindiclient.so.2:_ZN4INDI13PropertyLight4fillEPKcS2_S2_S2_7IPState
libindiclient.so.2:_ZN4INDI13PropertyLightC1ENS_8PropertyE
libindiclient.so.2:_ZN4INDI13PropertyLightC1Em
libindiclient.so.2:_ZN4INDI13PropertyLightC2ENS_8PropertyE
libindiclient.so.2:_ZN4INDI13PropertyLightC2Em
libindiclient.so.2:_ZN4INDI13PropertyLightD1Ev
libindiclient.so.2:_ZN4INDI13PropertyLightD2Ev
libindiclient.so.2:_ZN4INDI14PropertyNumber12updateMinMaxEv
libindiclient.so.2:_ZN4INDI14PropertyNumber4fillEPKcS2_S2_S2_5IPermd7IPState
libindiclient.so.2:_ZN4INDI14PropertyNumber6updateEPKdPKPKci
libindiclient.so.2:_ZN4INDI14PropertyNumberC1ENS_8PropertyE
libindiclient.so.2:_ZN4INDI14PropertyNumberC1Em
libindiclient.so.2:_ZN4INDI14PropertyNumberC2ENS_8PropertyE
libindiclient.so.2:_ZN4INDI14PropertyNumberC2Em
libindiclient.so.2:_ZN4INDI14PropertyNumberD1Ev
libindiclient.so.2:_ZN4INDI14PropertyNumberD2Ev
libindiclient.so.2:_ZN4INDI14PropertySwitch11onNewValuesERKSt8functionIFvRKNS0_9NewValuesEEE
libindiclient.so.2:_ZN4INDI14PropertySwitch4fillEPKcS2_S2_S2_5IPerm6ISRuled7IPState
libindiclient.so.2:_ZN4INDI14PropertySwitch5resetEv
libindiclient.so.2:_ZN4INDI14PropertySwitch6updateEPK7ISStatePKPKci
libindiclient.so.2:_ZN4INDI14PropertySwitch7setRuleE6ISRule
libindiclient.so.2:_ZN4INDI14PropertySwitchC1ENS_8PropertyE
libindiclient.so.2:_ZN4INDI14PropertySwitchC1Em
libindiclient.so.2:_ZN4INDI14PropertySwitchC2ENS_8PropertyE
libindiclient.so.2:_ZN4INDI14PropertySwitchC2Em
libindiclient.so.2:_ZN4INDI14PropertySwitchD1Ev
libindiclient.so.2:_ZN4INDI14PropertySwitchD2Ev
libindiclient.so.2:_ZN4INDI14ln_get_equ_nutEP11ln_equ_posndb
libindiclient.so.2:_ZN4INDI15J2000toObservedEPNS_22IEquatorialCoordinatesEdS1_
libindiclient.so.2:_ZN4INDI15ObservedToJ2000EPNS_22IEquatorialCoordinatesEdS1_
libindiclient.so.2:_ZN4INDI15PropertyPrivateC1EPNS_12PropertyViewI6_IBLOBEE
libindiclient.so.2:_ZN4INDI15PropertyPrivateC1EPNS_12PropertyViewI6_ITextEE
libindiclient.so.2:_ZN4INDI15PropertyPrivateC1EPNS_12PropertyViewI7_ILightEE
libindiclient.so.2:_ZN4INDI15PropertyPrivateC1EPNS_12PropertyViewI8_INumberEE
libindiclient.so.2:_ZN4INDI15PropertyPrivateC1EPNS_12PropertyViewI8_ISwitchEE
libindiclient.so.2:_ZN4INDI15PropertyPrivateC1EPv18INDI_PROPERTY_TYPE
libindiclient.so.2:_ZN4INDI15PropertyPrivateC2EPNS_12PropertyViewI6_IBLOBEE
libindiclient.so.2:_ZN4INDI15PropertyPrivateC2EPNS_12PropertyViewI6_ITextEE
libindiclient.so.2:_ZN4INDI15PropertyPrivateC2EPNS_12PropertyViewI7_ILightEE
libindiclient.so.2:_ZN4INDI15PropertyPrivateC2EPNS_12PropertyViewI8_INumberEE
libindiclient.so.2:_ZN4INDI15PropertyPrivateC2EPNS_12PropertyViewI8_ISwitchEE
libindiclient.so.2:_ZN4INDI15PropertyPrivateC2EPv18INDI_PROPERTY_TYPE
libindiclient.so.2:_ZN4INDI15PropertyPrivateD0Ev
libindiclient.so.2:_ZN4INDI15PropertyPrivateD1Ev
libindiclient.so.2:_ZN4INDI15PropertyPrivateD2Ev
libindiclient.so.2:_ZN4INDI15allocateBlobUidB5cxx11Ei
libindiclient.so.2:_ZN4INDI15attachBlobByUidERKNSt7__cxx1112basic_stringIcSt11char_traitsIcESaIcEEEm
libindiclient.so.2:_ZN4INDI15releaseBlobUidsERKSt6vectorINSt7__cxx1112basic_stringIcSt11char_traitsIcESaIcEEESaIS6_EE
libindiclient.so.2:_ZN4INDI17BaseClientPrivate20connectToHostAndWaitENSt7__cxx1112basic_stringIcSt11char_traitsIcESaIcEEEt
libindiclient.so.2:_ZN4INDI17BaseClientPrivate8sendDataEPKvm
libindiclient.so.2:_ZN4INDI17BaseClientPrivateC1EPNS_10BaseClientE
libindiclient.so.2:_ZN4INDI17BaseClientPrivateC2EPNS_10BaseClientE
libindiclient.so.2:_ZN4INDI17BaseClientPrivateD0Ev
libindiclient.so.2:_ZN4INDI17BaseClientPrivateD1Ev
libindiclient.so.2:_ZN4INDI17BaseClientPrivateD2Ev
libindiclient.so.2:_ZN4INDI17BaseDevicePrivate7setBLOBENS_12PropertyBlobERKNS_13LilXmlElementEPc
libindiclient.so.2:_ZN4INDI17BaseDevicePrivateC1Ev
libindiclient.so.2:_ZN4INDI17BaseDevicePrivateC2Ev
libindiclient.so.2:_ZN4INDI17BaseDevicePrivateD0Ev
libindiclient.so.2:_ZN4INDI17BaseDevicePrivateD1Ev
libindiclient.so.2:_ZN4INDI17BaseDevicePrivateD2Ev
libindiclient.so.2:_ZN4INDI17ClientSharedBlobs18parseAttachedBlobsERKNS_13LilXmlElementERNS0_5BlobsE
libindiclient.so.2:_ZN4INDI17ClientSharedBlobs22enableDirectBlobAccessEPKcS2_
libindiclient.so.2:_ZN4INDI17ClientSharedBlobs23addIncomingSharedBufferEi
libindiclient.so.2:_ZN4INDI17ClientSharedBlobs23disableDirectBlobAccessEv
libindiclient.so.2:_ZN4INDI17ClientSharedBlobs24hasDirectBlobAccessEntryERKSt3mapINSt7__cxx1112basic_stringIcSt11char_traitsIcESaIcEEESt3setIS7_St4lessIS7_ESaIS7_EESA_SaISt4pairIKS7_SC_EEERSE_SK_
libindiclient.so.2:_ZN4INDI17ClientSharedBlobs5BlobsD1Ev
libindiclient.so.2:_ZN4INDI17ClientSharedBlobs5BlobsD2Ev
libindiclient.so.2:_ZN4INDI17ClientSharedBlobs5clearEv
libindiclient.so.2:_ZN4INDI17PropertiesPrivateC1Ev
libindiclient.so.2:_ZN4INDI17PropertiesPrivateC2Ev
libindiclient.so.2:_ZN4INDI17PropertiesPrivateD0Ev
libindiclient.so.2:_ZN4INDI17PropertiesPrivateD1Ev
libindiclient.so.2:_ZN4INDI17PropertiesPrivateD2Ev
libindiclient.so.2:_ZN4INDI18AbstractBaseClient10finishBlobEv
libindiclient.so.2:_ZN4INDI18AbstractBaseClient10getDevicesERSt6vectorINS_10BaseDeviceESaIS2_EEt
libindiclient.so.2:_ZN4INDI18AbstractBaseClient10setVerboseEb
libindiclient.so.2:_ZN4INDI18AbstractBaseClient11getBLOBModeEPKcS2_
libindiclient.so.2:_ZN4INDI18AbstractBaseClient11sendNewTextENS_8PropertyE
libindiclient.so.2:_ZN4INDI18AbstractBaseClient11sendNewTextEPKcS2_S2_S2_
libindiclient.so.2:_ZN4INDI18AbstractBaseClient11sendOneBlobEP6_IBLOB
libindiclient.so.2:_ZN4INDI18AbstractBaseClient11sendOneBlobEPKcjS2_Pv
libindiclient.so.2:_ZN4INDI18AbstractBaseClient11sendOneBlobEPNS_10WidgetViewI6_IBLOBEE
libindiclient.so.2:_ZN4INDI18AbstractBaseClient11setBLOBModeE12BLOBHandlingPKcS3_
libindiclient.so.2:_ZN4INDI18AbstractBaseClient11watchDeviceEPKc
libindiclient.so.2:_ZN4INDI18AbstractBaseClient11watchDeviceEPKcRKSt8functionIFvNS_10BaseDeviceEEE
libindiclient.so.2:_ZN4INDI18AbstractBaseClient12newPingReplyENSt7__cxx1112basic_stringIcSt11char_traitsIcESaIcEEE
libindiclient.so.2:_ZN4INDI18AbstractBaseClient13connectDeviceEPKc
libindiclient.so.2:_ZN4INDI18AbstractBaseClient13sendNewNumberENS_8PropertyE
libindiclient.so.2:_ZN4INDI18AbstractBaseClient13sendNewNumberEPKcS2_S2_d
libindiclient.so.2:_ZN4INDI18AbstractBaseClient13sendNewSwitchENS_8PropertyE
libindiclient.so.2:_ZN4INDI18AbstractBaseClient13sendNewSwitchEPKcS2_S2_
libindiclient.so.2:_ZN4INDI18AbstractBaseClient13sendPingReplyEPKc
libindiclient.so.2:_ZN4INDI18AbstractBaseClient13watchPropertyEPKcS2_
libindiclient.so.2:_ZN4INDI18AbstractBaseClient15sendNewPropertyENS_8PropertyE
libindiclient.so.2:_ZN4INDI18AbstractBaseClient15sendPingRequestEPKc
libindiclient.so.2:_ZN4INDI18AbstractBaseClient16disconnectDeviceEPKc
libindiclient.so.2:_ZN4INDI18AbstractBaseClient19newUniversalMessageENSt7__cxx1112basic_stringIcSt11char_traitsIcESaIcEEE
libindiclient.so.2:_ZN4INDI18AbstractBaseClient20setConnectionTimeoutEjj
libindiclient.so.2:_ZN4INDI18AbstractBaseClient9getDeviceEPKc
libindiclient.so.2:_ZN4INDI18AbstractBaseClient9setServerEPKcj
libindiclient.so.2:_ZN4INDI18AbstractBaseClient9startBlobEPKcS2_S2_
libindiclient.so.2:_ZN4INDI18AbstractBaseClientC1EOSt10unique_ptrINS_25AbstractBaseClientPrivateESt14default_deleteIS2_EE
libindiclient.so.2:_ZN4INDI18AbstractBaseClientC2EOSt10unique_ptrINS_25AbstractBaseClientPrivateESt14default_deleteIS2_EE
libindiclient.so.2:_ZN4INDI18AbstractBaseClientD0Ev
libindiclient.so.2:_ZN4INDI18AbstractBaseClientD1Ev
libindiclient.so.2:_ZN4INDI18AbstractBaseClientD2Ev
libindiclient.so.2:_ZN4INDI19PropertyBlobPrivateC1Em
libindiclient.so.2:_ZN4INDI19PropertyBlobPrivateC2Em
libindiclient.so.2:_ZN4INDI19PropertyBlobPrivateD0Ev
libindiclient.so.2:_ZN4INDI19PropertyBlobPrivateD1Ev
libindiclient.so.2:_ZN4INDI19PropertyBlobPrivateD2Ev
libindiclient.so.2:_ZN4INDI19PropertyTextPrivateC1Em
libindiclient.so.2:_ZN4INDI19PropertyTextPrivateC2Em
libindiclient.so.2:_ZN4INDI19PropertyTextPrivateD0Ev
libindiclient.so.2:_ZN4INDI19PropertyTextPrivateD1Ev
libindiclient.so.2:_ZN4INDI19PropertyTextPrivateD2Ev
libindiclient.so.2:_ZN4INDI19WatchDeviceProperty10processXmlERKNS_13LilXmlElementEPcRKSt8functionIFNS_12ParentDeviceEvEE
libindiclient.so.2:_ZN4INDI19WatchDeviceProperty11watchDeviceERKNSt7__cxx1112basic_stringIcSt11char_traitsIcESaIcEEE
libindiclient.so.2:_ZN4INDI19WatchDeviceProperty11watchDeviceERKNSt7__cxx1112basic_stringIcSt11char_traitsIcESaIcEEERKSt8functionIFvNS_10BaseDeviceEEE
libindiclient.so.2:_ZN4INDI19WatchDeviceProperty12clearDevicesEv
libindiclient.so.2:_ZN4INDI19WatchDeviceProperty12deleteDeviceERKNS_10BaseDeviceE
libindiclient.so.2:_ZN4INDI19WatchDeviceProperty13watchPropertyERKNSt7__cxx1112basic_stringIcSt11char_traitsIcESaIcEEES8_
libindiclient.so.2:_ZN4INDI19WatchDeviceProperty14unwatchDevicesEv
libindiclient.so.2:_ZN4INDI19WatchDeviceProperty15getDeviceByNameEPKc
libindiclient.so.2:_ZN4INDI19WatchDeviceProperty18ensureDeviceByNameEPKcRKSt8functionIFNS_12ParentDeviceEvEE
libindiclient.so.2:_ZN4INDI19WatchDeviceProperty5clearEv
libindiclient.so.2:_ZN4INDI20PropertyLightPrivateC1Em
libindiclient.so.2:_ZN4INDI20PropertyLightPrivateC2Em
libindiclient.so.2:_ZN4INDI20PropertyLightPrivateD0Ev
libindiclient.so.2:_ZN4INDI20PropertyLightPrivateD1Ev
libindiclient.so.2:_ZN4INDI20PropertyLightPrivateD2Ev
libindiclient.so.2:_ZN4INDI20TcpSocketSharedBlobs9readyReadEv
libindiclient.so.2:_ZN4INDI21PropertyNumberPrivateC1Em
libindiclient.so.2:_ZN4INDI21PropertyNumberPrivateC2Em
libindiclient.so.2:_ZN4INDI21PropertyNumberPrivateD0Ev
libindiclient.so.2:_ZN4INDI21PropertyNumberPrivateD1Ev
libindiclient.so.2:_ZN4INDI21PropertyNumberPrivateD2Ev
libindiclient.so.2:_ZN4INDI21PropertySwitchPrivateC1Em
libindiclient.so.2:_ZN4INDI21PropertySwitchPrivateC2Em
libindiclient.so.2:_ZN4INDI21PropertySwitchPrivateD0Ev
libindiclient.so.2:_ZN4INDI21PropertySwitchPrivateD1Ev
libindiclient.so.2:_ZN4INDI21PropertySwitchPrivateD2Ev
libindiclient.so.2:_ZN4INDI22EquatorialToHorizontalEPNS_22IEquatorialCoordinatesEPNS_22IGeographicCoordinatesEdPNS_22IHorizontalCoordinatesE
libindiclient.so.2:_ZN4INDI22HorizontalToEquatorialEPNS_22IHorizontalCoordinatesEPNS_22IGeographicCoordinatesEdPNS_22IEquatorialCoordinatesE
libindiclient.so.2:_ZN4INDI25AbstractBaseClientPrivate10messageCmdERKNS_13LilXmlElementEPc
libindiclient.so.2:_ZN4INDI25AbstractBaseClientPrivate12deleteDeviceEPKcPc
libindiclient.so.2:_ZN4INDI25AbstractBaseClientPrivate12findBLOBModeERKNSt7__cxx1112basic_stringIcSt11char_traitsIcESaIcEEES8_
libindiclient.so.2:_ZN4INDI25AbstractBaseClientPrivate14delPropertyCmdERKNS_13LilXmlElementEPc
libindiclient.so.2:_ZN4INDI25AbstractBaseClientPrivate15dispatchCommandERKNS_13LilXmlElementEPc
libindiclient.so.2:_ZN4INDI25AbstractBaseClientPrivate19setDriverConnectionEbPKc
libindiclient.so.2:_ZN4INDI25AbstractBaseClientPrivate19userIoGetPropertiesEv
libindiclient.so.2:_ZN4INDI25AbstractBaseClientPrivate2ioE
libindiclient.so.2:_ZN4INDI25AbstractBaseClientPrivate5clearEv
libindiclient.so.2:_ZN4INDI25AbstractBaseClientPrivateC1EPNS_18AbstractBaseClientE
libindiclient.so.2:_ZN4INDI25AbstractBaseClientPrivateC2EPNS_18AbstractBaseClientE
libindiclient.so.2:_ZN4INDI2SP10CONNECTIONE
libindiclient.so.2:_ZN4INDI2SP11DEVICE_PORTE
libindiclient.so.2:_ZN4INDI2SP14DEVICE_ADDRESSE
libindiclient.so.2:_ZN4INDI2SP16DEVICE_BAUD_RATEE
libindiclient.so.2:_ZN4INDI2SP17DEVICE_LAN_SEARCHE
libindiclient.so.2:_ZN4INDI2SP18DEVICE_AUTO_SEARCHE
libindiclient.so.2:_ZN4INDI5mkdirEPKcj
libindiclient.so.2:_ZN4INDI6mkpathENSt7__cxx1112basic_stringIcSt11char_traitsIcESaIcEEEj
libindiclient.so.2:_ZN4INDI8Property10emitUpdateEv
libindiclient.so.2:_ZN4INDI8Property10setDynamicEb
libindiclient.so.2:_ZN4INDI8Property10setTimeoutEd
libindiclient.so.2:_ZN4INDI8Property11setPropertyEPv
libindiclient.so.2:_ZN4INDI8Property12setGroupNameEPKc
libindiclient.so.2:_ZN4INDI8Property12setTimestampEPKc
libindiclient.so.2:_ZN4INDI8Property13setBaseDeviceENS_10BaseDeviceE
libindiclient.so.2:_ZN4INDI8Property13setBaseDeviceEPNS_10BaseDeviceE
libindiclient.so.2:_ZN4INDI8Property13setDeviceNameEPKc
libindiclient.so.2:_ZN4INDI8Property13setPermissionE5IPerm
libindiclient.so.2:_ZN4INDI8Property13setRegisteredEb
libindiclient.so.2:_ZN4INDI8Property4loadEv
libindiclient.so.2:_ZN4INDI8Property4selfEv
libindiclient.so.2:_ZN4INDI8Property7setNameEPKc
libindiclient.so.2:_ZN4INDI8Property7setTypeE18INDI_PROPERTY_TYPE
libindiclient.so.2:_ZN4INDI8Property8onUpdateERKSt8functionIFvvEE
libindiclient.so.2:_ZN4INDI8Property8setLabelEPKc
libindiclient.so.2:_ZN4INDI8Property8setStateE7IPState
libindiclient.so.2:_ZN4INDI8PropertyC1ENS_12PropertyBlobE
libindiclient.so.2:_ZN4INDI8PropertyC1ENS_12PropertyTextE
libindiclient.so.2:_ZN4INDI8PropertyC1ENS_13PropertyLightE
libindiclient.so.2:_ZN4INDI8PropertyC1ENS_14PropertyNumberE
libindiclient.so.2:_ZN4INDI8PropertyC1ENS_14PropertySwitchE
libindiclient.so.2:_ZN4INDI8PropertyC1EP20_IBLOBVectorProperty
libindiclient.so.2:_ZN4INDI8PropertyC1EP20_ITextVectorProperty
libindiclient.so.2:_ZN4INDI8PropertyC1EP21_ILightVectorProperty
libindiclient.so.2:_ZN4INDI8PropertyC1EP22_INumberVectorProperty
libindiclient.so.2:_ZN4INDI8PropertyC1EP22_ISwitchVectorProperty
libindiclient.so.2:_ZN4INDI8PropertyC1EPNS_12PropertyViewI6_IBLOBEE
libindiclient.so.2:_ZN4INDI8PropertyC1EPNS_12PropertyViewI6_ITextEE
libindiclient.so.2:_ZN4INDI8PropertyC1EPNS_12PropertyViewI7_ILightEE
libindiclient.so.2:_ZN4INDI8PropertyC1EPNS_12PropertyViewI8_INumberEE
libindiclient.so.2:_ZN4INDI8PropertyC1EPNS_12PropertyViewI8_ISwitchEE
libindiclient.so.2:_ZN4INDI8PropertyC1ERKSt10shared_ptrINS_15PropertyPrivateEE
libindiclient.so.2:_ZN4INDI8PropertyC1ERNS_15PropertyPrivateE
libindiclient.so.2:_ZN4INDI8PropertyC1Ev
libindiclient.so.2:_ZN4INDI8PropertyC2ENS_12PropertyBlobE
libindiclient.so.2:_ZN4INDI8PropertyC2ENS_12PropertyTextE
libindiclient.so.2:_ZN4INDI8PropertyC2ENS_13PropertyLightE
libindiclient.so.2:_ZN4INDI8PropertyC2ENS_14PropertyNumberE
libindiclient.so.2:_ZN4INDI8PropertyC2ENS_14PropertySwitchE
libindiclient.so.2:_ZN4INDI8PropertyC2EP20_IBLOBVectorProperty
libindiclient.so.2:_ZN4INDI8PropertyC2EP20_ITextVectorProperty
libindiclient.so.2:_ZN4INDI8PropertyC2EP21_ILightVectorProperty
libindiclient.so.2:_ZN4INDI8PropertyC2EP22_INumberVectorProperty
libindiclient.so.2:_ZN4INDI8PropertyC2EP22_ISwitchVectorProperty
libindiclient.so.2:_ZN4INDI8PropertyC2EPNS_12PropertyViewI6_IBLOBEE
libindiclient.so.2:_ZN4INDI8PropertyC2EPNS_12PropertyViewI6_ITextEE
libindiclient.so.2:_ZN4INDI8PropertyC2EPNS_12PropertyViewI7_ILightEE
libindiclient.so.2:_ZN4INDI8PropertyC2EPNS_12PropertyViewI8_INumberEE
libindiclient.so.2:_ZN4INDI8PropertyC2EPNS_12PropertyViewI8_ISwitchEE
libindiclient.so.2:_ZN4INDI8PropertyC2ERKSt10shared_ptrINS_15PropertyPrivateEE
libindiclient.so.2:_ZN4INDI8PropertyC2ERNS_15PropertyPrivateE
libindiclient.so.2:_ZN4INDI8PropertyC2Ev
libindiclient.so.2:_ZN4INDI8PropertyD1Ev
libindiclient.so.2:_ZN4INDI8PropertyD2Ev
libindiclient.so.2:_ZN4INDI8PropertycvPS0_Ev
libindiclient.so.2:_ZN4INDI8PropertyptEv
libindiclient.so.2:_ZN9TcpSocket11onConnectedERKSt8functionIFvvEE
libindiclient.so.2:_ZN9TcpSocket12disconnectedEv
libindiclient.so.2:_ZN9TcpSocket13connectToHostERKNSt7__cxx1112basic_stringIcSt11char_traitsIcESaIcEEEt
libindiclient.so.2:_ZN9TcpSocket13errorOccurredENS_11SocketErrorE
libindiclient.so.2:_ZN9TcpSocket14onDisconnectedERKSt8functionIFvvEE
libindiclient.so.2:_ZN9TcpSocket14setSocketErrorENS_11SocketErrorE
libindiclient.so.2:_ZN9TcpSocket15onErrorOccurredERKSt8functionIFvNS_11SocketErrorEEE
libindiclient.so.2:_ZN9TcpSocket18disconnectFromHostEv
libindiclient.so.2:_ZN9TcpSocket20setConnectionTimeoutEi
libindiclient.so.2:_ZN9TcpSocket5writeEPKcm
libindiclient.so.2:_ZN9TcpSocket5writeERKNSt7__cxx1112basic_stringIcSt11char_traitsIcESaIcEEE
libindiclient.so.2:_ZN9TcpSocket6onDataERKSt8functionIFvPKcmEE
libindiclient.so.2:_ZN9TcpSocket9connectedEv
libindiclient.so.2:_ZN9TcpSocket9readyReadEv
libindiclient.so.2:_ZN9TcpSocketC1EOSt10unique_ptrI16TcpSocketPrivateSt14default_deleteIS1_EE
libindiclient.so.2:_ZN9TcpSocketC1Ev
libindiclient.so.2:_ZN9TcpSocketC2EOSt10unique_ptrI16TcpSocketPrivateSt14default_deleteIS1_EE
libindiclient.so.2:_ZN9TcpSocketC2Ev
libindiclient.so.2:_ZN9TcpSocketD0Ev
libindiclient.so.2:_ZN9TcpSocketD1Ev
libindiclient.so.2:_ZN9TcpSocketD2Ev
libindiclient.so.2:_ZN9XMLOutput12putEntityXMLEPKc
libindiclient.so.2:_ZN9XMLOutput6putXMLEP8xml_ele_i
libindiclient.so.2:_ZNK4INDI10BaseDevice11getMediatorEv
libindiclient.so.2:_ZNK4INDI10BaseDevice11getPropertyEPKc18INDI_PROPERTY_TYPE
libindiclient.so.2:_ZNK4INDI10BaseDevice11isConnectedEv
libindiclient.so.2:_ZNK4INDI10BaseDevice11lastMessageB5cxx11Ev
libindiclient.so.2:_ZNK4INDI10BaseDevice12messageQueueB5cxx11Em
libindiclient.so.2:_ZNK4INDI10BaseDevice13getDeviceNameEv
libindiclient.so.2:_ZNK4INDI10BaseDevice13getDriverExecEv
libindiclient.so.2:_ZNK4INDI10BaseDevice13getDriverNameEv
libindiclient.so.2:_ZNK4INDI10BaseDevice13getPropertiesEv
libindiclient.so.2:_ZNK4INDI10BaseDevice14getRawPropertyEPKc18INDI_PROPERTY_TYPE
libindiclient.so.2:_ZNK4INDI10BaseDevice16getDriverVersionEv
libindiclient.so.2:_ZNK4INDI10BaseDevice16getPropertyStateEPKc
libindiclient.so.2:_ZNK4INDI10BaseDevice17isDeviceNameMatchEPKc
libindiclient.so.2:_ZNK4INDI10BaseDevice17isDeviceNameMatchERKNSt7__cxx1112basic_stringIcSt11char_traitsIcESaIcEEE
libindiclient.so.2:_ZNK4INDI10BaseDevice18getDriverInterfaceEv
libindiclient.so.2:_ZNK4INDI10BaseDevice21getPropertyPermissionEPKc
libindiclient.so.2:_ZNK4INDI10BaseDevice7getBLOBEPKc
libindiclient.so.2:_ZNK4INDI10BaseDevice7getTextEPKc
libindiclient.so.2:_ZNK4INDI10BaseDevice7isValidEv
libindiclient.so.2:_ZNK4INDI10BaseDevice8getLightEPKc
libindiclient.so.2:_ZNK4INDI10BaseDevice9getNumberEPKc
libindiclient.so.2:_ZNK4INDI10BaseDevice9getSwitchEPKc
libindiclient.so.2:_ZNK4INDI10Properties2atEm
libindiclient.so.2:_ZNK4INDI10Properties3endEv
libindiclient.so.2:_ZNK4INDI10Properties4backEv
libindiclient.so.2:_ZNK4INDI10Properties4sizeEv
libindiclient.so.2:_ZNK4INDI10Properties5beginEv
libindiclient.so.2:_ZNK4INDI10Properties5frontEv
libindiclient.so.2:_ZNK4INDI10PropertiescvPKS0_Ev
libindiclient.so.2:_ZNK4INDI10PropertiescvPKSt6vectorIPNS_8PropertyESaIS3_EEEv
libindiclient.so.2:_ZNK4INDI10PropertiesdeEv
libindiclient.so.2:_ZNK4INDI10PropertiesixEm
libindiclient.so.2:_ZNK4INDI10PropertiesptEv
libindiclient.so.2:_ZNK4INDI12PropertyText9isUpdatedEPKPKcS4_i
libindiclient.so.2:_ZNK4INDI12PropertyViewI6_IBLOBE6vapplyEPKcP13__va_list_tag
libindiclient.so.2:_ZNK4INDI12PropertyViewI6_IBLOBE7vdefineEPKcP13__va_list_tag
libindiclient.so.2:_ZNK4INDI12PropertyViewI6_ITextE6vapplyEPKcP13__va_list_tag
libindiclient.so.2:_ZNK4INDI12PropertyViewI6_ITextE7vdefineEPKcP13__va_list_tag
libindiclient.so.2:_ZNK4INDI12PropertyViewI6_ITextE9isUpdatedIS1_Lb1EEEbPKPKcS7_i
libindiclient.so.2:_ZNK4INDI12PropertyViewI7_ILightE6vapplyEPKcP13__va_list_tag
libindiclient.so.2:_ZNK4INDI12PropertyViewI7_ILightE7vdefineEPKcP13__va_list_tag
libindiclient.so.2:_ZNK4INDI12PropertyViewI8_INumberE6vapplyEPKcP13__va_list_tag
libindiclient.so.2:_ZNK4INDI12PropertyViewI8_INumberE7vdefineEPKcP13__va_list_tag
libindiclient.so.2:_ZNK4INDI12PropertyViewI8_INumberE9isUpdatedIS1_Lb1EEEbPKdPKPKci
libindiclient.so.2:_ZNK4INDI12PropertyViewI8_ISwitchE6vapplyEPKcP13__va_list_tag
libindiclient.so.2:_ZNK4INDI12PropertyViewI8_ISwitchE7vdefineEPKcP13__va_list_tag
libindiclient.so.2:_ZNK4INDI12PropertyViewI8_ISwitchE9isUpdatedIS1_Lb1EEEbPK7ISStatePKPKci
libindiclient.so.2:_ZNK4INDI14PropertyNumber9isUpdatedEPKdPKPKci
libindiclient.so.2:_ZNK4INDI14PropertySwitch10isSwitchOnERKNSt7__cxx1112basic_stringIcSt11char_traitsIcESaIcEEE
libindiclient.so.2:_ZNK4INDI14PropertySwitch12findOnSwitchEv
libindiclient.so.2:_ZNK4INDI14PropertySwitch15getRuleAsStringEv
libindiclient.so.2:_ZNK4INDI14PropertySwitch16findOnSwitchNameB5cxx11Ev
libindiclient.so.2:_ZNK4INDI14PropertySwitch17findOnSwitchIndexEv
libindiclient.so.2:_ZNK4INDI14PropertySwitch17hasUpdateCallbackEv
libindiclient.so.2:_ZNK4INDI14PropertySwitch7getRuleEv
libindiclient.so.2:_ZNK4INDI14PropertySwitch9isUpdatedEPK7ISStatePKPKci
libindiclient.so.2:_ZNK4INDI17ClientSharedBlobs18isDirectBlobAccessERKNSt7__cxx1112basic_stringIcSt11char_traitsIcESaIcEEES8_
libindiclient.so.2:_ZNK4INDI18AbstractBaseClient10getDevicesEv
libindiclient.so.2:_ZNK4INDI18AbstractBaseClient17isServerConnectedEv
libindiclient.so.2:_ZNK4INDI18AbstractBaseClient7getHostEv
libindiclient.so.2:_ZNK4INDI18AbstractBaseClient7getPortEv
libindiclient.so.2:_ZNK4INDI18AbstractBaseClient9isVerboseEv
libindiclient.so.2:_ZNK4INDI19WatchDeviceProperty10getDevicesEv
libindiclient.so.2:_ZNK4INDI19WatchDeviceProperty15isDeviceWatchedEPKc
libindiclient.so.2:_ZNK4INDI19WatchDeviceProperty7isEmptyEv
libindiclient.so.2:_ZNK4INDI8Property11getPropertyEv
libindiclient.so.2:_ZNK4INDI8Property11isNameMatchEPKc
libindiclient.so.2:_ZNK4INDI8Property11isNameMatchERKNSt7__cxx1112basic_stringIcSt11char_traitsIcESaIcEEE
libindiclient.so.2:_ZNK4INDI8Property11isTypeMatchE18INDI_PROPERTY_TYPE
libindiclient.so.2:_ZNK4INDI8Property12getGroupNameEv
libindiclient.so.2:_ZNK4INDI8Property12getTimestampEv
libindiclient.so.2:_ZNK4INDI8Property12isLabelMatchEPKc
libindiclient.so.2:_ZNK4INDI8Property12isLabelMatchERKNSt7__cxx1112basic_stringIcSt11char_traitsIcESaIcEEE
libindiclient.so.2:_ZNK4INDI8Property13getBaseDeviceEv
libindiclient.so.2:_ZNK4INDI8Property13getDeviceNameEv
libindiclient.so.2:_ZNK4INDI8Property13getPermissionEv
libindiclient.so.2:_ZNK4INDI8Property13getRegisteredEv
libindiclient.so.2:_ZNK4INDI8Property15getTypeAsStringEv
libindiclient.so.2:_ZNK4INDI8Property16getStateAsStringEv
libindiclient.so.2:_ZNK4INDI8Property17hasUpdateCallbackEv
libindiclient.so.2:_ZNK4INDI8Property17isDeviceNameMatchEPKc
libindiclient.so.2:_ZNK4INDI8Property17isDeviceNameMatchERKNSt7__cxx1112basic_stringIcSt11char_traitsIcESaIcEEE
libindiclient.so.2:_ZNK4INDI8Property4saveEP8_IO_FILE
libindiclient.so.2:_ZNK4INDI8Property5applyEPKcz
libindiclient.so.2:_ZNK4INDI8Property6defineEPKcz
libindiclient.so.2:_ZNK4INDI8Property7getBLOBEv
libindiclient.so.2:_ZNK4INDI8Property7getNameEv
libindiclient.so.2:_ZNK4INDI8Property7getTextEv
libindiclient.so.2:_ZNK4INDI8Property7getTypeEv
libindiclient.so.2:_ZNK4INDI8Property7isEmptyEv
libindiclient.so.2:_ZNK4INDI8Property7isValidEv
libindiclient.so.2:_ZNK4INDI8Property8getLabelEv
libindiclient.so.2:_ZNK4INDI8Property8getLightEv
libindiclient.so.2:_ZNK4INDI8Property8getStateEv
libindiclient.so.2:_ZNK4INDI8Property9getNumberEv
libindiclient.so.2:_ZNK4INDI8Property9getSwitchEv
libindiclient.so.2:_ZNK4INDI8Property9isDynamicEv
libindiclient.so.2:_ZNK4INDI8PropertycvPKS0_Ev
libindiclient.so.2:_ZNK4INDI8PropertyptEv
libindiclient.so.2:_ZNK9TcpSocket11errorStringB5cxx11Ev
libindiclient.so.2:_ZNK9TcpSocket13emitConnectedEv
libindiclient.so.2:_ZNK9TcpSocket16emitDisconnectedEv
libindiclient.so.2:_ZNK9TcpSocket16socketDescriptorEv
libindiclient.so.2:_ZNK9TcpSocket16waitForConnectedEi
libindiclient.so.2:_ZNK9TcpSocket17emitErrorOccurredENS_11SocketErrorE
libindiclient.so.2:_ZNK9TcpSocket19waitForDisconnectedEi
libindiclient.so.2:_ZNK9TcpSocket5errorEv
libindiclient.so.2:_ZNK9TcpSocket8emitDataEPKcm
libindiclient.so.2:addXMLAtt
libindiclient.so.2:addXMLEle
libindiclient.so.2:as2rad
libindiclient.so.2:baseline_2d_projection
libindiclient.so.2:baseline_delay
libindiclient.so.2:calc_delta_magnitude
libindiclient.so.2:calc_photon_flux
libindiclient.so.2:calc_rel_magnitude
libindiclient.so.2:calc_star_mass
libindiclient.so.2:cloneXMLEle
libindiclient.so.2:configRootFP
libindiclient.so.2:crackDN
libindiclient.so.2:crackIPState
libindiclient.so.2:crackIPerm
libindiclient.so.2:crackISRule
libindiclient.so.2:crackISState
libindiclient.so.2:delLilXML
libindiclient.so.2:delXMLEle
libindiclient.so.2:editXMLAtt
libindiclient.so.2:editXMLEle
libindiclient.so.2:entityXML
libindiclient.so.2:estimate_absolute_magnitude
libindiclient.so.2:estimate_distance
libindiclient.so.2:estimate_field_rotation
libindiclient.so.2:estimate_field_rotation_rate
libindiclient.so.2:estimate_geocentric_elevation
libindiclient.so.2:estimate_orbit_radius
libindiclient.so.2:estimate_secondary_mass
libindiclient.so.2:estimate_secondary_size
libindiclient.so.2:extractISOTime
libindiclient.so.2:f_scansexa
libindiclient.so.2:findXMLAtt
libindiclient.so.2:findXMLAttValu
libindiclient.so.2:findXMLEle
libindiclient.so.2:from64tobits
libindiclient.so.2:from64tobits_fast
libindiclient.so.2:from64tobits_fast_with_bug
libindiclient.so.2:fs_sexa
libindiclient.so.2:getSexComponents
libindiclient.so.2:getSexComponentsIID
libindiclient.so.2:get_alt_az_coordinates
libindiclient.so.2:get_equ_from_hrz
libindiclient.so.2:get_hrz_from_equ
libindiclient.so.2:get_local_hour_angle
libindiclient.so.2:get_local_sidereal_time
libindiclient.so.2:indi_timestamp
libindiclient.so.2:m2au
libindiclient.so.2:nXMLAtt
libindiclient.so.2:nXMLEle
libindiclient.so.2:nameXMLAtt
libindiclient.so.2:newLilXML
libindiclient.so.2:nextXMLAtt
libindiclient.so.2:nextXMLEle
libindiclient.so.2:numberFormat
libindiclient.so.2:parentXMLAtt
libindiclient.so.2:parentXMLEle
libindiclient.so.2:parseXMLChunk
libindiclient.so.2:pcdataXMLEle
libindiclient.so.2:pcdatalenXMLEle
libindiclient.so.2:permStr
libindiclient.so.2:prXMLEle
libindiclient.so.2:pstateStr
libindiclient.so.2:rad2as
libindiclient.so.2:range180
libindiclient.so.2:range24
libindiclient.so.2:range360
libindiclient.so.2:rangeDec
libindiclient.so.2:rangeHA
libindiclient.so.2:readXMLEle
libindiclient.so.2:readXMLFile
libindiclient.so.2:rmXMLAtt
libindiclient.so.2:ruleStr
libindiclient.so.2:setXMLEleTag
libindiclient.so.2:shallowCloneXMLEle
libindiclient.so.2:shm_open_anon
libindiclient.so.2:sprXMLCDataOffset
libindiclient.so.2:sprXMLEle
libindiclient.so.2:sprlXMLEle
libindiclient.so.2:sstateStr
libindiclient.so.2:tagXMLEle
libindiclient.so.2:time_ns
libindiclient.so.2:to64frombits
libindiclient.so.2:to64frombits_s
libindiclient.so.2:tty_clr_trailing_read_lf
libindiclient.so.2:tty_connect
libindiclient.so.2:tty_disconnect
libindiclient.so.2:tty_error_msg
libindiclient.so.2:tty_nread_section
libindiclient.so.2:tty_nread_section_expanded
libindiclient.so.2:tty_read
libindiclient.so.2:tty_read_expanded
libindiclient.so.2:tty_read_section
libindiclient.so.2:tty_read_section_expanded
libindiclient.so.2:tty_reset_udp_session
libindiclient.so.2:tty_set_auto_reset_udp_session
libindiclient.so.2:tty_set_debug
libindiclient.so.2:tty_set_gemini_udp_format
libindiclient.so.2:tty_set_generic_udp_format
libindiclient.so.2:tty_timeout
libindiclient.so.2:tty_timeout_microseconds
libindiclient.so.2:tty_write
libindiclient.so.2:tty_write_string
libindiclient.so.2:userio_file
libindiclient.so.2:userio_printf
libindiclient.so.2:userio_prints
libindiclient.so.2:userio_putc
libindiclient.so.2:userio_vprintf
libindiclient.so.2:userio_write
libindiclient.so.2:userio_xml_escape
libindiclient.so.2:userio_xmlv1
libindiclient.so.2:valuXMLAtt
libindiclient.so.2:xmlv1
libindidriver.so.2:ALIGNMENT_TAB
libindidriver.so.2:BGR2YUV
libindidriver.so.2:COMMUNICATION_TAB
libindidriver.so.2:CONNECTION_TAB
libindidriver.so.2:DATETIME_TAB
libindidriver.so.2:FILTER_TAB
libindidriver.so.2:FOCUS_TAB
libindidriver.so.2:GUIDE_HEAD_TAB
libindidriver.so.2:GUIDE_TAB
libindidriver.so.2:IDDefBLOB
libindidriver.so.2:IDDefBLOBVA
libindidriver.so.2:IDDefLight
libindidriver.so.2:IDDefLightVA
libindidriver.so.2:IDDefNumber
libindidriver.so.2:IDDefNumberVA
libindidriver.so.2:IDDefSwitch
libindidriver.so.2:IDDefSwitchVA
libindidriver.so.2:IDDefText
libindidriver.so.2:IDDefTextVA
libindidriver.so.2:IDDelete
libindidriver.so.2:IDDeleteVA
libindidriver.so.2:IDLog
libindidriver.so.2:IDMessage
libindidriver.so.2:IDMessageVA
libindidriver.so.2:IDSetBLOB
libindidriver.so.2:IDSetBLOBVA
libindidriver.so.2:IDSetLight
libindidriver.so.2:IDSetLightVA
libindidriver.so.2:IDSetNumber
libindidriver.so.2:IDSetNumberVA
libindidriver.so.2:IDSetSwitch
libindidriver.so.2:IDSetSwitchVA
libindidriver.so.2:IDSetText
libindidriver.so.2:IDSetTextVA
libindidriver.so.2:IDSharedBlobAlloc
libindidriver.so.2:IDSharedBlobAttach
libindidriver.so.2:IDSharedBlobDettach
libindidriver.so.2:IDSharedBlobFree
libindidriver.so.2:IDSharedBlobGetFd
libindidriver.so.2:IDSharedBlobRealloc
libindidriver.so.2:IDSharedBlobSeal
libindidriver.so.2:IDSnoopBLOBs
libindidriver.so.2:IDSnoopDevice
libindidriver.so.2:IDUserIOMessage
libindidriver.so.2:IDUserIOMessageVA
libindidriver.so.2:IEAddCallback
libindidriver.so.2:IEAddPeriodicTimer
libindidriver.so.2:IEAddTimer
libindidriver.so.2:IEAddWorkProc
libindidriver.so.2:IEDeferLoop
libindidriver.so.2:IEDeferLoop0
libindidriver.so.2:IENSecsRemainingTimer
libindidriver.so.2:IERemainingTimer
libindidriver.so.2:IERmCallback
libindidriver.so.2:IERmTimer
libindidriver.so.2:IERmWorkProc
libindidriver.so.2:IMAGE_INFO_TAB
libindidriver.so.2:IMAGE_SETTINGS_TAB
libindidriver.so.2:INFO_TAB
libindidriver.so.2:ISGetProperties
libindidriver.so.2:ISNewBLOB
libindidriver.so.2:ISNewNumber
libindidriver.so.2:ISNewSwitch
libindidriver.so.2:ISNewText
libindidriver.so.2:ISSnoopDevice
libindidriver.so.2:IUFillBLOB
libindidriver.so.2:IUFillBLOBVector
libindidriver.so.2:IUFillLight
libindidriver.so.2:IUFillLightVector
libindidriver.so.2:IUFillNumber
libindidriver.so.2:IUFillNumberVector
libindidriver.so.2:IUFillSwitch
libindidriver.so.2:IUFillSwitchVector
libindidriver.so.2:IUFillText
libindidriver.so.2:IUFillTextVector
libindidriver.so.2:IUFindBLOB
libindidriver.so.2:IUFindIndex
libindidriver.so.2:IUFindLight
libindidriver.so.2:IUFindNumber
libindidriver.so.2:IUFindOnStateIndex
libindidriver.so.2:IUFindOnSwitch
libindidriver.so.2:IUFindOnSwitchIndex
libindidriver.so.2:IUFindOnSwitchName
libindidriver.so.2:IUFindSwitch
libindidriver.so.2:IUFindText
libindidriver.so.2:IUGetConfigFP
libindidriver.so.2:IUGetConfigNumber
libindidriver.so.2:IUGetConfigOnSwitch
libindidriver.so.2:IUGetConfigOnSwitchIndex
libindidriver.so.2:IUGetConfigOnSwitchName
libindidriver.so.2:IUGetConfigSwitch
libindidriver.so.2:IUGetConfigText
libindidriver.so.2:IULoadConfigNumber
libindidriver.so.2:IULoadConfigSwitch
libindidriver.so.2:IULoadConfigText
libindidriver.so.2:IUPurgeConfig
libindidriver.so.2:IUReadConfig
libindidriver.so.2:IUResetSwitch
libindidriver.so.2:IUSaveBLOB
libindidriver.so.2:IUSaveConfigBLOB
libindidriver.so.2:IUSaveConfigNumber
libindidriver.so.2:IUSaveConfigSwitch
libindidriver.so.2:IUSaveConfigTag
libindidriver.so.2:IUSaveConfigText
libindidriver.so.2:IUSaveDefaultConfig
libindidriver.so.2:IUSaveText
libindidriver.so.2:IUSnoopBLOB
libindidriver.so.2:IUSnoopLight
libindidriver.so.2:IUSnoopNumber
libindidriver.so.2:IUSnoopSwitch
libindidriver.so.2:IUSnoopText
libindidriver.so.2:IUUpdateBLOB
libindidriver.so.2:IUUpdateMinMax
libindidriver.so.2:IUUpdateNumber
libindidriver.so.2:IUUpdateSwitch
libindidriver.so.2:IUUpdateText
libindidriver.so.2:IUUserIOBLOBContext
libindidriver.so.2:IUUserIOBLOBContextOne
libindidriver.so.2:IUUserIOConfigTag
libindidriver.so.2:IUUserIODefBLOBVA
libindidriver.so.2:IUUserIODefLightVA
libindidriver.so.2:IUUserIODefNumberVA
libindidriver.so.2:IUUserIODefSwitchVA
libindidriver.so.2:IUUserIODefTextVA
libindidriver.so.2:IUUserIODeleteVA
libindidriver.so.2:IUUserIOEnableBLOB
libindidriver.so.2:IUUserIOGetProperties
libindidriver.so.2:IUUserIOLightContext
libindidriver.so.2:IUUserIONewBLOB
libindidriver.so.2:IUUserIONewBLOBFinish
libindidriver.so.2:IUUserIONewBLOBStart
libindidriver.so.2:IUUserIONewNumber
libindidriver.so.2:IUUserIONewSwitch
libindidriver.so.2:IUUserIONewSwitchFull
libindidriver.so.2:IUUserIONewText
libindidriver.so.2:IUUserIONumberContext
libindidriver.so.2:IUUserIOPingReply
libindidriver.so.2:IUUserIOPingRequest
libindidriver.so.2:IUUserIOSetBLOBVA
libindidriver.so.2:IUUserIOSetLightVA
libindidriver.so.2:IUUserIOSetNumberVA
libindidriver.so.2:IUUserIOSetSwitchVA
libindidriver.so.2:IUUserIOSetTextVA
libindidriver.so.2:IUUserIOSwitchContext
libindidriver.so.2:IUUserIOSwitchContextFull
libindidriver.so.2:IUUserIOSwitchContextOne
libindidriver.so.2:IUUserIOTextContext
libindidriver.so.2:IUUserIOUpdateMinMax
libindidriver.so.2:InitLookupTable
libindidriver.so.2:MAIN_CONTROL_TAB
libindidriver.so.2:MOTION_TAB
libindidriver.so.2:OPTIONS_TAB
libindidriver.so.2:RGB2YUV
libindidriver.so.2:SATELLITE_TAB
libindidriver.so.2:SITE_TAB
libindidriver.so.2:WeakIDDefBLOBVA
libindidriver.so.2:WeakIDDefLightVA
libindidriver.so.2:WeakIDDefNumberVA
libindidriver.so.2:WeakIDDefSwitchVA
libindidriver.so.2:WeakIDDefTextVA
libindidriver.so.2:WeakIDSetBLOBVA
libindidriver.so.2:WeakIDSetLightVA
libindidriver.so.2:WeakIDSetNumberVA
libindidriver.so.2:WeakIDSetSwitchVA
libindidriver.so.2:WeakIDSetTextVA
libindidriver.so.2:WeakIUUpdateBLOB
libindidriver.so.2:WeakIUUpdateMinMax
libindidriver.so.2:WeakIUUpdateNumber
libindidriver.so.2:WeakIUUpdateSwitch
libindidriver.so.2:WeakIUUpdateText
libindidriver.so.2:XSAMPLE
libindidriver.so.2:YSAMPLE
libindidriver.so.2:_Z11cloneXMLEleP8xml_ele_
libindidriver.so.2:_Z12lilxmlMallocPFPvmEPFS_S_mEPFvS_E
libindidriver.so.2:_Z4joinRKSt6vectorINSt7__cxx1112basic_stringIcSt11char_traitsIcESaIcEEESaIS5_EES5_
libindidriver.so.2:_Z8parseXMLPcS_
libindidriver.so.2:_Z9timerfuncPv
libindidriver.so.2:_ZN10Connection14CONNECTION_TABE
libindidriver.so.2:_ZN10Connection19usb_dev_file_selectEPK6dirent
libindidriver.so.2:_ZN10Connection22serial_dev_file_selectEPK6dirent
libindidriver.so.2:_ZN10Connection25bluetooth_dev_file_selectEPK6dirent
libindidriver.so.2:_ZN10Connection3I2C10DisconnectEv
libindidriver.so.2:_ZN10Connection3I2C11DeactivatedEv
libindidriver.so.2:_ZN10Connection3I2C15saveConfigItemsEP8_IO_FILE
libindidriver.so.2:_ZN10Connection3I2C16processHandshakeEv
libindidriver.so.2:_ZN10Connection3I2C17setDefaultAddressEh
libindidriver.so.2:_ZN10Connection3I2C17setDefaultBusPathEPKc
libindidriver.so.2:_ZN10Connection3I2C7ConnectEPKch
libindidriver.so.2:_ZN10Connection3I2C7ConnectEv
libindidriver.so.2:_ZN10Connection3I2C7addressEv
libindidriver.so.2:_ZN10Connection3I2C7busPathEv
libindidriver.so.2:_ZN10Connection3I2C9ActivatedEv
libindidriver.so.2:_ZN10Connection3I2C9ISNewTextEPKcS2_PPcS4_i
libindidriver.so.2:_ZN10Connection3I2CC1EPN4INDI13DefaultDeviceE5IPerm
libindidriver.so.2:_ZN10Connection3I2CC2EPN4INDI13DefaultDeviceE5IPerm
libindidriver.so.2:_ZN10Connection3I2CD0Ev
libindidriver.so.2:_ZN10Connection3I2CD1Ev
libindidriver.so.2:_ZN10Connection3I2CD2Ev
libindidriver.so.2:_ZN10Connection3TCP10DisconnectEv
libindidriver.so.2:_ZN10Connection3TCP11DeactivatedEv
libindidriver.so.2:_ZN10Connection3TCP11ISNewSwitchEPKcS2_P7ISStatePPci
libindidriver.so.2:_ZN10Connection3TCP14setDefaultHostEPKc
libindidriver.so.2:_ZN10Connection3TCP14setDefaultPortEj
libindidriver.so.2:_ZN10Connection3TCP15saveConfigItemsEP8_IO_FILE
libindidriver.so.2:_ZN10Connection3TCP17setConnectionTypeEi
libindidriver.so.2:_ZN10Connection3TCP19establishConnectionERKNSt7__cxx1112basic_stringIcSt11char_traitsIcESaIcEEES8_i
libindidriver.so.2:_ZN10Connection3TCP19setLANSearchEnabledEb
libindidriver.so.2:_ZN10Connection3TCP7ConnectEv
libindidriver.so.2:_ZN10Connection3TCP9ActivatedEv
libindidriver.so.2:_ZN10Connection3TCP9ISNewTextEPKcS2_PPcS4_i
libindidriver.so.2:_ZN10Connection3TCPC1EPN4INDI13DefaultDeviceE5IPerm
libindidriver.so.2:_ZN10Connection3TCPC2EPN4INDI13DefaultDeviceE5IPerm
libindidriver.so.2:_ZN10Connection6Serial10DisconnectEv
libindidriver.so.2:_ZN10Connection6Serial11DeactivatedEv
libindidriver.so.2:_ZN10Connection6Serial11ISNewSwitchEPKcS2_P7ISStatePPci
libindidriver.so.2:_ZN10Connection6Serial14setDefaultPortEPKc
libindidriver.so.2:_ZN10Connection6Serial15saveConfigItemsEP8_IO_FILE
libindidriver.so.2:_ZN10Connection6Serial16processHandshakeEv
libindidriver.so.2:_ZN10Connection6Serial18setDefaultBaudRateENS0_8BaudRateE
libindidriver.so.2:_ZN10Connection6Serial4baudEv
libindidriver.so.2:_ZN10Connection6Serial7ConnectEPKcj
libindidriver.so.2:_ZN10Connection6Serial7ConnectEv
libindidriver.so.2:_ZN10Connection6Serial7RefreshEb
libindidriver.so.2:_ZN10Connection6Serial9ActivatedEv
libindidriver.so.2:_ZN10Connection6Serial9ISNewTextEPKcS2_PPcS4_i
libindidriver.so.2:_ZN10Connection6SerialC1EPN4INDI13DefaultDeviceE5IPerm
libindidriver.so.2:_ZN10Connection6SerialC2EPN4INDI13DefaultDeviceE5IPerm
libindidriver.so.2:_ZN10Connection6SerialD0Ev
libindidriver.so.2:_ZN10Connection6SerialD1Ev
libindidriver.so.2:_ZN10Connection6SerialD2Ev
libindidriver.so.2:_ZN10Connection9Interface11ISNewNumberEPKcS2_PdPPci
libindidriver.so.2:_ZN10Connection9Interface11ISNewSwitchEPKcS2_P7ISStatePPci
libindidriver.so.2:_ZN10Connection9Interface13getDeviceNameEv
libindidriver.so.2:_ZN10Connection9Interface15saveConfigItemsEP8_IO_FILE
libindidriver.so.2:_ZN10Connection9Interface17registerHandshakeESt8functionIFbvEE
libindidriver.so.2:_ZN10Connection9Interface9ISNewBLOBEPKcS2_PiS3_PPcS5_S5_i
libindidriver.so.2:_ZN10Connection9Interface9ISNewTextEPKcS2_PPcS4_i
libindidriver.so.2:_ZN10Connection9InterfaceC1EPN4INDI13DefaultDeviceENS0_4TypeE
libindidriver.so.2:_ZN10Connection9InterfaceC2EPN4INDI13DefaultDeviceENS0_4TypeE
libindidriver.so.2:_ZN10Connection9InterfaceD0Ev
libindidriver.so.2:_ZN10Connection9InterfaceD1Ev
libindidriver.so.2:_ZN10Connection9InterfaceD2Ev
libindidriver.so.2:_ZN10GammaLut16C1Edddd
libindidriver.so.2:_ZN10GammaLut16C2Edddd
libindidriver.so.2:_ZN11V4L2_Decode10getDecoderEv
libindidriver.so.2:_ZN11V4L2_Decode10setDecoderEP12V4L2_Decoder
libindidriver.so.2:_ZN11V4L2_Decode14getDecoderListEv
libindidriver.so.2:_ZN11V4L2_Decode17getDefaultDecoderEv
libindidriver.so.2:_ZN11V4L2_DecodeC1Ev
libindidriver.so.2:_ZN11V4L2_DecodeC2Ev
libindidriver.so.2:_ZN11V4L2_DecodeD1Ev
libindidriver.so.2:_ZN11V4L2_DecodeD2Ev
libindidriver.so.2:_ZN12V4L2_Decoder7getNameEv
libindidriver.so.2:_ZN12V4L2_DecoderC1Ev
libindidriver.so.2:_ZN12V4L2_DecoderC2Ev
libindidriver.so.2:_ZN12V4L2_DecoderD0Ev
libindidriver.so.2:_ZN12V4L2_DecoderD1Ev
libindidriver.so.2:_ZN12V4L2_DecoderD2Ev
libindidriver.so.2:_ZN20V4L2_Builtin_Decoder10getLinearYEv
libindidriver.so.2:_ZN20V4L2_Builtin_Decoder11makeLinearYEv
libindidriver.so.2:_ZN20V4L2_Builtin_Decoder11usesoftcropEb
libindidriver.so.2:_ZN20V4L2_Builtin_Decoder12allocBuffersEv
libindidriver.so.2:_ZN20V4L2_Builtin_Decoder12getRGBBufferEv
libindidriver.so.2:_ZN20V4L2_Builtin_Decoder14getMJPEGBufferERi
libindidriver.so.2:_ZN20V4L2_Builtin_Decoder15setQuantizationEb
libindidriver.so.2:_ZN20V4L2_Builtin_Decoder16setLinearizationEb
libindidriver.so.2:_ZN20V4L2_Builtin_Decoder17issupportedformatEj
libindidriver.so.2:_ZN20V4L2_Builtin_Decoder19getsupportedformatsEv
libindidriver.so.2:_ZN20V4L2_Builtin_Decoder22init_supported_formatsEv
libindidriver.so.2:_ZN20V4L2_Builtin_Decoder4getUEv
libindidriver.so.2:_ZN20V4L2_Builtin_Decoder4getVEv
libindidriver.so.2:_ZN20V4L2_Builtin_Decoder4getYEv
libindidriver.so.2:_ZN20V4L2_Builtin_Decoder4initEv
libindidriver.so.2:_ZN20V4L2_Builtin_Decoder5makeYEv
libindidriver.so.2:_ZN20V4L2_Builtin_Decoder6decodeEPhP11v4l2_bufferb
libindidriver.so.2:_ZN20V4L2_Builtin_Decoder6getBppEv
libindidriver.so.2:_ZN20V4L2_Builtin_Decoder7setcropE9v4l2_crop
libindidriver.so.2:_ZN20V4L2_Builtin_Decoder9getFormatEv
libindidriver.so.2:_ZN20V4L2_Builtin_Decoder9resetcropEv
libindidriver.so.2:_ZN20V4L2_Builtin_Decoder9setformatE11v4l2_formatb
libindidriver.so.2:_ZN20V4L2_Builtin_DecoderC1Ev
libindidriver.so.2:_ZN20V4L2_Builtin_DecoderC2Ev
libindidriver.so.2:_ZN20V4L2_Builtin_DecoderD0Ev
libindidriver.so.2:_ZN20V4L2_Builtin_DecoderD1Ev
libindidriver.so.2:_ZN20V4L2_Builtin_DecoderD2Ev
libindidriver.so.2:_ZN3DSP11Convolution11DeactivatedEv
libindidriver.so.2:_ZN3DSP11Convolution11processBLOBEPhjPii
libindidriver.so.2:_ZN3DSP11Convolution9ActivatedEv
libindidriver.so.2:_ZN3DSP11Convolution9ISNewBLOBEPKcS2_PiS3_PPcS5_S5_i
libindidriver.so.2:_ZN3DSP11ConvolutionC1EPN4INDI13DefaultDeviceE
libindidriver.so.2:_ZN3DSP11ConvolutionC2EPN4INDI13DefaultDeviceE
libindidriver.so.2:_ZN3DSP11ConvolutionD0Ev
libindidriver.so.2:_ZN3DSP11ConvolutionD1Ev
libindidriver.so.2:_ZN3DSP11ConvolutionD2Ev
libindidriver.so.2:_ZN3DSP16FourierTransform11processBLOBEPhjPii
libindidriver.so.2:_ZN3DSP16FourierTransformC1EPN4INDI13DefaultDeviceE
libindidriver.so.2:_ZN3DSP16FourierTransformC2EPN4INDI13DefaultDeviceE
libindidriver.so.2:_ZN3DSP16FourierTransformD0Ev
libindidriver.so.2:_ZN3DSP16FourierTransformD1Ev
libindidriver.so.2:_ZN3DSP16FourierTransformD2Ev
libindidriver.so.2:_ZN3DSP23InverseFourierTransform11DeactivatedEv
libindidriver.so.2:_ZN3DSP23InverseFourierTransform11processBLOBEPhjPii
libindidriver.so.2:_ZN3DSP23InverseFourierTransform9ActivatedEv
libindidriver.so.2:_ZN3DSP23InverseFourierTransform9ISNewBLOBEPKcS2_PiS3_PPcS5_S5_i
libindidriver.so.2:_ZN3DSP23InverseFourierTransformC1EPN4INDI13DefaultDeviceE
libindidriver.so.2:_ZN3DSP23InverseFourierTransformC2EPN4INDI13DefaultDeviceE
libindidriver.so.2:_ZN3DSP23InverseFourierTransformD0Ev
libindidriver.so.2:_ZN3DSP23InverseFourierTransformD1Ev
libindidriver.so.2:_ZN3DSP23InverseFourierTransformD2Ev
libindidriver.so.2:_ZN3DSP7DSP_TABE
libindidriver.so.2:_ZN3DSP7Manager11ISNewNumberEPKcS2_PdPPci
libindidriver.so.2:_ZN3DSP7Manager11ISNewSwitchEPKcS2_P7ISStatePPci
libindidriver.so.2:_ZN3DSP7Manager11processBLOBEPhjPii
libindidriver.so.2:_ZN3DSP7Manager15ISGetPropertiesEPKc
libindidriver.so.2:_ZN3DSP7Manager15saveConfigItemsEP8_IO_FILE
libindidriver.so.2:_ZN3DSP7Manager16updatePropertiesEv
libindidriver.so.2:_ZN3DSP7Manager23setCaptureFileExtensionEPKc
libindidriver.so.2:_ZN3DSP7Manager9ISNewBLOBEPKcS2_PiS3_PPcS5_S5_i
libindidriver.so.2:_ZN3DSP7Manager9ISNewTextEPKcS2_PPcS4_i
libindidriver.so.2:_ZN3DSP7ManagerC1EPN4INDI13DefaultDeviceE
libindidriver.so.2:_ZN3DSP7ManagerC2EPN4INDI13DefaultDeviceE
libindidriver.so.2:_ZN3DSP7ManagerD0Ev
libindidriver.so.2:_ZN3DSP7ManagerD1Ev
libindidriver.so.2:_ZN3DSP7ManagerD2Ev
libindidriver.so.2:_ZN3DSP8Spectrum11processBLOBEPhjPii
libindidriver.so.2:_ZN3DSP8SpectrumC1EPN4INDI13DefaultDeviceE
libindidriver.so.2:_ZN3DSP8SpectrumC2EPN4INDI13DefaultDeviceE
libindidriver.so.2:_ZN3DSP8SpectrumD0Ev
libindidriver.so.2:_ZN3DSP8SpectrumD1Ev
libindidriver.so.2:_ZN3DSP8SpectrumD2Ev
libindidriver.so.2:_ZN3DSP8Wavelets11DeactivatedEv
libindidriver.so.2:_ZN3DSP8Wavelets11ISNewNumberEPKcS2_PdPPci
libindidriver.so.2:_ZN3DSP8Wavelets11processBLOBEPhjPii
libindidriver.so.2:_ZN3DSP8Wavelets9ActivatedEv
libindidriver.so.2:_ZN3DSP8WaveletsC1EPN4INDI13DefaultDeviceE
libindidriver.so.2:_ZN3DSP8WaveletsC2EPN4INDI13DefaultDeviceE
libindidriver.so.2:_ZN3DSP8WaveletsD0Ev
libindidriver.so.2:_ZN3DSP8WaveletsD1Ev
libindidriver.so.2:_ZN3DSP8WaveletsD2Ev
libindidriver.so.2:_ZN3DSP9Histogram11processBLOBEPhjPii
libindidriver.so.2:_ZN3DSP9HistogramC1EPN4INDI13DefaultDeviceE
libindidriver.so.2:_ZN3DSP9HistogramC2EPN4INDI13DefaultDeviceE
libindidriver.so.2:_ZN3DSP9HistogramD0Ev
libindidriver.so.2:_ZN3DSP9HistogramD1Ev
libindidriver.so.2:_ZN3DSP9HistogramD2Ev
libindidriver.so.2:_ZN3DSP9Interface10uploadFileEPKvmbbPKc
libindidriver.so.2:_ZN3DSP9Interface11DeactivatedEv
libindidriver.so.2:_ZN3DSP9Interface11ISNewNumberEPKcS2_PdPPci
libindidriver.so.2:_ZN3DSP9Interface11ISNewSwitchEPKcS2_P7ISStatePPci
libindidriver.so.2:_ZN3DSP9Interface11processBLOBEPhjPii
libindidriver.so.2:_ZN3DSP9Interface12getFileIndexEPKcS2_S2_
libindidriver.so.2:_ZN3DSP9Interface12getMagnitudeEv
libindidriver.so.2:_ZN3DSP9Interface12setImaginaryEPvjPii
libindidriver.so.2:_ZN3DSP9Interface12setMagnitudeEPvjPii
libindidriver.so.2:_ZN3DSP9Interface13getDeviceNameEv
libindidriver.so.2:_ZN3DSP9Interface15ISGetPropertiesEPKc
libindidriver.so.2:_ZN3DSP9Interface15addFITSKeywordsEP8fitsfile
libindidriver.so.2:_ZN3DSP9Interface15saveConfigItemsEP8_IO_FILE
libindidriver.so.2:_ZN3DSP9Interface16updatePropertiesEv
libindidriver.so.2:_ZN3DSP9Interface17fits_update_key_sEP8fitsfileiNSt7__cxx1112basic_stringIcSt11char_traitsIcESaIcEEEPvS8_Pi
libindidriver.so.2:_ZN3DSP9Interface23setCaptureFileExtensionEPKc
libindidriver.so.2:_ZN3DSP9Interface7setRealEPvjPii
libindidriver.so.2:_ZN3DSP9Interface8CallbackEPhjPii
libindidriver.so.2:_ZN3DSP9Interface8loadFITSEPci
libindidriver.so.2:_ZN3DSP9Interface8sendFITSEPhbb
libindidriver.so.2:_ZN3DSP9Interface8setPhaseEPvjPii
libindidriver.so.2:_ZN3DSP9Interface9ActivatedEv
libindidriver.so.2:_ZN3DSP9Interface9ISNewBLOBEPKcS2_PiS3_PPcS5_S5_i
libindidriver.so.2:_ZN3DSP9Interface9ISNewTextEPKcS2_PPcS4_i
libindidriver.so.2:_ZN3DSP9Interface9getBufferEP12dsp_stream_tPjPPi
libindidriver.so.2:_ZN3DSP9Interface9getStreamEv
libindidriver.so.2:_ZN3DSP9Interface9setStreamEPvjPii
libindidriver.so.2:_ZN3DSP9InterfaceC1EPN4INDI13DefaultDeviceENS0_4TypeEPKcS6_
libindidriver.so.2:_ZN3DSP9InterfaceC2EPN4INDI13DefaultDeviceENS0_4TypeEPKcS6_
libindidriver.so.2:_ZN3DSP9InterfaceD0Ev
libindidriver.so.2:_ZN3DSP9InterfaceD1Ev
libindidriver.so.2:_ZN3DSP9InterfaceD2Ev
libindidriver.so.2:_ZN3PID19setIntegratorLimitsEdd
libindidriver.so.2:_ZN3PID5resetEv
libindidriver.so.2:_ZN3PID5setKdEd
libindidriver.so.2:_ZN3PID5setKiEd
libindidriver.so.2:_ZN3PID5setKpEd
libindidriver.so.2:_ZN3PID6setTauEd
libindidriver.so.2:_ZN3PID9calculateEdd
libindidriver.so.2:_ZN3PIDC1Edddddd
libindidriver.so.2:_ZN3PIDC2Edddddd
libindidriver.so.2:_ZN3PIDD1Ev
libindidriver.so.2:_ZN3PIDD2Ev
libindidriver.so.2:_ZN4INDI10BaseDevice10addMessageERKNSt7__cxx1112basic_stringIcSt11char_traitsIcESaIcEEE
libindidriver.so.2:_ZN4INDI10BaseDevice11setMediatorEPNS_12BaseMediatorE
libindidriver.so.2:_ZN4INDI10BaseDevice12checkMessageEP8xml_ele_
libindidriver.so.2:_ZN4INDI10BaseDevice13buildSkeletonEPKc
libindidriver.so.2:_ZN4INDI10BaseDevice13getPropertiesEv
libindidriver.so.2:_ZN4INDI10BaseDevice13setDeviceNameEPKc
libindidriver.so.2:_ZN4INDI10BaseDevice13watchPropertyEPKcRKSt8functionIFvNS_8PropertyEEENS0_5WATCHE
libindidriver.so.2:_ZN4INDI10BaseDevice14removePropertyEPKcPc
libindidriver.so.2:_ZN4INDI10BaseDevice16registerPropertyERKNS_8PropertyE
libindidriver.so.2:_ZN4INDI10BaseDevice16registerPropertyERKNS_8PropertyE18INDI_PROPERTY_TYPE
libindidriver.so.2:_ZN4INDI10BaseDevice17getSharedFilePathENSt7__cxx1112basic_stringIcSt11char_traitsIcESaIcEEE
libindidriver.so.2:_ZN4INDI10BaseDevice6attachEv
libindidriver.so.2:_ZN4INDI10BaseDevice6detachEv
libindidriver.so.2:_ZN4INDI10BaseDevice8setValueERKNS_13LilXmlElementEPc
libindidriver.so.2:_ZN4INDI10BaseDevice9buildPropERKNS_13LilXmlElementEPcb
libindidriver.so.2:_ZN4INDI10BaseDevice9doMessageEP8xml_ele_
libindidriver.so.2:_ZN4INDI10BaseDeviceC1ERKSt10shared_ptrINS_17BaseDevicePrivateEE
libindidriver.so.2:_ZN4INDI10BaseDeviceC1ERNS_17BaseDevicePrivateE
libindidriver.so.2:_ZN4INDI10BaseDeviceC1Ev
libindidriver.so.2:_ZN4INDI10BaseDeviceC2ERKSt10shared_ptrINS_17BaseDevicePrivateEE
libindidriver.so.2:_ZN4INDI10BaseDeviceC2ERNS_17BaseDevicePrivateE
libindidriver.so.2:_ZN4INDI10BaseDeviceC2Ev
libindidriver.so.2:_ZN4INDI10BaseDeviceD0Ev
libindidriver.so.2:_ZN4INDI10BaseDeviceD1Ev
libindidriver.so.2:_ZN4INDI10BaseDeviceD2Ev
libindidriver.so.2:_ZN4INDI10BaseDevicecvPS0_Ev
libindidriver.so.2:_ZN4INDI10BaseDeviceptEv
libindidriver.so.2:_ZN4INDI10Controller11ISNewSwitchEPKcS2_P7ISStatePPci
libindidriver.so.2:_ZN4INDI10Controller11buttonEventEPKciPv
libindidriver.so.2:_ZN4INDI10Controller13ISSnoopDeviceEP8xml_ele_
libindidriver.so.2:_ZN4INDI10Controller13joystickEventEPKcddPv
libindidriver.so.2:_ZN4INDI10Controller13mapControllerEPKcS2_NS0_14ControllerTypeES2_
libindidriver.so.2:_ZN4INDI10Controller14enableJoystickEv
libindidriver.so.2:_ZN4INDI10Controller14initPropertiesEv
libindidriver.so.2:_ZN4INDI10Controller15ISGetPropertiesEPKc
libindidriver.so.2:_ZN4INDI10Controller15disableJoystickEv
libindidriver.so.2:_ZN4INDI10Controller15saveConfigItemsEP8_IO_FILE
libindidriver.so.2:_ZN4INDI10Controller15setAxisCallbackESt8functionIFvPKcdPvEE
libindidriver.so.2:_ZN4INDI10Controller16updatePropertiesEv
libindidriver.so.2:_ZN4INDI10Controller17getControllerTypeEPKc
libindidriver.so.2:_ZN4INDI10Controller17setButtonCallbackESt8functionIFvPKc7ISStatePvEE
libindidriver.so.2:_ZN4INDI10Controller19setJoystickCallbackESt8functionIFvPKcddPvEE
libindidriver.so.2:_ZN4INDI10Controller20getControllerSettingEPKc
libindidriver.so.2:_ZN4INDI10Controller8clearMapEv
libindidriver.so.2:_ZN4INDI10Controller9ISNewTextEPKcS2_PPcS4_i
libindidriver.so.2:_ZN4INDI10Controller9axisEventEPKciPv
libindidriver.so.2:_ZN4INDI10ControllerC1EPNS_13DefaultDeviceE
libindidriver.so.2:_ZN4INDI10ControllerC2EPNS_13DefaultDeviceE
libindidriver.so.2:_ZN4INDI10ControllerD0Ev
libindidriver.so.2:_ZN4INDI10ControllerD1Ev
libindidriver.so.2:_ZN4INDI10ControllerD2Ev
libindidriver.so.2:_ZN4INDI10Correlator11ISNewNumberEPKcS2_PdPPci
libindidriver.so.2:_ZN4INDI10Correlator11ISNewSwitchEPKcS2_P7ISStatePPci
libindidriver.so.2:_ZN4INDI10Correlator11setBaselineENS0_8BaselineE
libindidriver.so.2:_ZN4INDI10Correlator12setBandwidthEd
libindidriver.so.2:_ZN4INDI10Correlator13ISSnoopDeviceEP8xml_ele_
libindidriver.so.2:_ZN4INDI10Correlator13setMinMaxStepEPKcS2_dddb
libindidriver.so.2:_ZN4INDI10Correlator13setWavelengthEd
libindidriver.so.2:_ZN4INDI10Correlator14initPropertiesEv
libindidriver.so.2:_ZN4INDI10Correlator15ISGetPropertiesEPKc
libindidriver.so.2:_ZN4INDI10Correlator16StartIntegrationEd
libindidriver.so.2:_ZN4INDI10Correlator16getUVCoordinatesEd
libindidriver.so.2:_ZN4INDI10Correlator16getUVCoordinatesEdd
libindidriver.so.2:_ZN4INDI10Correlator16getUVCoordinatesEv
libindidriver.so.2:_ZN4INDI10Correlator16updatePropertiesEv
libindidriver.so.2:_ZN4INDI10Correlator23SetCorrelatorCapabilityEj
libindidriver.so.2:_ZN4INDI10Correlator8getDelayEd
libindidriver.so.2:_ZN4INDI10Correlator8getDelayEdd
libindidriver.so.2:_ZN4INDI10Correlator8getDelayEv
libindidriver.so.2:_ZN4INDI10Correlator9ISNewBLOBEPKcS2_PiS3_PPcS5_S5_i
libindidriver.so.2:_ZN4INDI10Correlator9ISNewTextEPKcS2_PPcS4_i
libindidriver.so.2:_ZN4INDI10CorrelatorC1Ev
libindidriver.so.2:_ZN4INDI10CorrelatorC2Ev
libindidriver.so.2:_ZN4INDI10CorrelatorD0Ev
libindidriver.so.2:_ZN4INDI10CorrelatorD1Ev
libindidriver.so.2:_ZN4INDI10CorrelatorD2Ev
libindidriver.so.2:_ZN4INDI10FITSRecordC1EPKc
libindidriver.so.2:_ZN4INDI10FITSRecordC1EPKcS2_S2_
libindidriver.so.2:_ZN4INDI10FITSRecordC1EPKcdiS2_
libindidriver.so.2:_ZN4INDI10FITSRecordC1EPKclS2_
libindidriver.so.2:_ZN4INDI10FITSRecordC1Ev
libindidriver.so.2:_ZN4INDI10FITSRecordC2EPKc
libindidriver.so.2:_ZN4INDI10FITSRecordC2EPKcS2_S2_
libindidriver.so.2:_ZN4INDI10FITSRecordC2EPKcdiS2_
libindidriver.so.2:_ZN4INDI10FITSRecordC2EPKclS2_
libindidriver.so.2:_ZN4INDI10FITSRecordC2Ev
libindidriver.so.2:_ZN4INDI10Properties2atEm
libindidriver.so.2:_ZN4INDI10Properties3endEv
libindidriver.so.2:_ZN4INDI10Properties4backEv
libindidriver.so.2:_ZN4INDI10Properties5beginEv
libindidriver.so.2:_ZN4INDI10Properties5clearEv
libindidriver.so.2:_ZN4INDI10Properties5eraseESt15_Deque_iteratorINS_8PropertyERKS2_PS3_E
libindidriver.so.2:_ZN4INDI10Properties5eraseESt15_Deque_iteratorINS_8PropertyERKS2_PS3_ES6_
libindidriver.so.2:_ZN4INDI10Properties5eraseESt15_Deque_iteratorINS_8PropertyERS2_PS2_E
libindidriver.so.2:_ZN4INDI10Properties5eraseESt15_Deque_iteratorINS_8PropertyERS2_PS2_ES5_
libindidriver.so.2:_ZN4INDI10Properties5frontEv
libindidriver.so.2:_ZN4INDI10Properties9push_backEONS_8PropertyE
libindidriver.so.2:_ZN4INDI10Properties9push_backERKNS_8PropertyE
libindidriver.so.2:_ZN4INDI10PropertiesC1ESt10shared_ptrINS_17PropertiesPrivateEE
libindidriver.so.2:_ZN4INDI10PropertiesC1Ev
libindidriver.so.2:_ZN4INDI10PropertiesC2ESt10shared_ptrINS_17PropertiesPrivateEE
libindidriver.so.2:_ZN4INDI10PropertiesC2Ev
libindidriver.so.2:_ZN4INDI10PropertiesD1Ev
libindidriver.so.2:_ZN4INDI10PropertiesD2Ev
libindidriver.so.2:_ZN4INDI10PropertiescvPS0_Ev
libindidriver.so.2:_ZN4INDI10PropertiescvPSt6vectorIPNS_8PropertyESaIS3_EEEv
libindidriver.so.2:_ZN4INDI10PropertiesdeEv
libindidriver.so.2:_ZN4INDI10PropertiesixEm
libindidriver.so.2:_ZN4INDI10PropertiesptEv
libindidriver.so.2:_ZN4INDI10RawEncoder13getDeviceNameEv
libindidriver.so.2:_ZN4INDI10RawEncoder6uploadEPNS_10WidgetViewI6_IBLOBEEPKhjb
libindidriver.so.2:_ZN4INDI10RawEncoderC1Ev
libindidriver.so.2:_ZN4INDI10RawEncoderC2Ev
libindidriver.so.2:_ZN4INDI10RawEncoderD0Ev
libindidriver.so.2:_ZN4INDI10RawEncoderD1Ev
libindidriver.so.2:_ZN4INDI10RawEncoderD2Ev
libindidriver.so.2:_ZN4INDI10WidgetViewI6_IBLOBE4fillEPKcS4_S4_
libindidriver.so.2:_ZN4INDI10WidgetViewI6_ITextE4fillEPKcS4_S4_
libindidriver.so.2:_ZN4INDI10WidgetViewI7_ILightE4fillEPKcS4_7IPState
libindidriver.so.2:_ZN4INDI10WidgetViewI8_INumberE4fillEPKcS4_S4_dddd
libindidriver.so.2:_ZN4INDI10WidgetViewI8_ISwitchE4fillEPKcS4_7ISState
libindidriver.so.2:_ZN4INDI11FilterWheel11ISNewNumberEPKcS2_PdPPci
libindidriver.so.2:_ZN4INDI11FilterWheel11ISNewSwitchEPKcS2_P7ISStatePPci
libindidriver.so.2:_ZN4INDI11FilterWheel11QueryFilterEv
libindidriver.so.2:_ZN4INDI11FilterWheel12SelectFilterEi
libindidriver.so.2:_ZN4INDI11FilterWheel12buttonHelperEPKc7ISStatePv
libindidriver.so.2:_ZN4INDI11FilterWheel13ISSnoopDeviceEP8xml_ele_
libindidriver.so.2:_ZN4INDI11FilterWheel13callHandshakeEv
libindidriver.so.2:_ZN4INDI11FilterWheel13processButtonEPKc7ISState
libindidriver.so.2:_ZN4INDI11FilterWheel14initPropertiesEv
libindidriver.so.2:_ZN4INDI11FilterWheel14joystickHelperEPKcddPv
libindidriver.so.2:_ZN4INDI11FilterWheel15ISGetPropertiesEPKc
libindidriver.so.2:_ZN4INDI11FilterWheel15processJoystickEPKcdd
libindidriver.so.2:_ZN4INDI11FilterWheel15saveConfigItemsEP8_IO_FILE
libindidriver.so.2:_ZN4INDI11FilterWheel16updatePropertiesEv
libindidriver.so.2:_ZN4INDI11FilterWheel19setFilterConnectionERKh
libindidriver.so.2:_ZN4INDI11FilterWheel9HandshakeEv
libindidriver.so.2:_ZN4INDI11FilterWheel9ISNewTextEPKcS2_PPcS4_i
libindidriver.so.2:_ZN4INDI11FilterWheelC1Ev
libindidriver.so.2:_ZN4INDI11FilterWheelC2Ev
libindidriver.so.2:_ZN4INDI11format_timeB5cxx11ERK2tmPKc
libindidriver.so.2:_ZN4INDI11replace_allERNSt7__cxx1112basic_stringIcSt11char_traitsIcESaIcEEERKS5_S8_
libindidriver.so.2:_ZN4INDI12BaseMediator10newMessageENS_10BaseDeviceEi
libindidriver.so.2:_ZN4INDI12BaseMediator11newPropertyENS_8PropertyE
libindidriver.so.2:_ZN4INDI12BaseMediator12removeDeviceENS_10BaseDeviceE
libindidriver.so.2:_ZN4INDI12BaseMediator14removePropertyENS_8PropertyE
libindidriver.so.2:_ZN4INDI12BaseMediator14updatePropertyENS_8PropertyE
libindidriver.so.2:_ZN4INDI12BaseMediator15serverConnectedEv
libindidriver.so.2:_ZN4INDI12BaseMediator18serverDisconnectedEi
libindidriver.so.2:_ZN4INDI12BaseMediator9newDeviceENS_10BaseDeviceE
libindidriver.so.2:_ZN4INDI12ElapsedTimer11nsecsRewindEl
libindidriver.so.2:_ZN4INDI12ElapsedTimer5startEv
libindidriver.so.2:_ZN4INDI12ElapsedTimer7restartEv
libindidriver.so.2:_ZN4INDI12ElapsedTimerC1ERNS_19ElapsedTimerPrivateE
libindidriver.so.2:_ZN4INDI12ElapsedTimerC1Ev
libindidriver.so.2:_ZN4INDI12ElapsedTimerC2ERNS_19ElapsedTimerPrivateE
libindidriver.so.2:_ZN4INDI12ElapsedTimerC2Ev
libindidriver.so.2:_ZN4INDI12ElapsedTimerD0Ev
libindidriver.so.2:_ZN4INDI12ElapsedTimerD1Ev
libindidriver.so.2:_ZN4INDI12ElapsedTimerD2Ev
libindidriver.so.2:_ZN4INDI12GPSInterface13checkGPSStateEv
libindidriver.so.2:_ZN4INDI12GPSInterface13processNumberEPKcS2_PdPPci
libindidriver.so.2:_ZN4INDI12GPSInterface13processSwitchEPKcS2_P7ISStatePPci
libindidriver.so.2:_ZN4INDI12GPSInterface13setSystemTimeERl
libindidriver.so.2:_ZN4INDI12GPSInterface14initPropertiesEPKc
libindidriver.so.2:_ZN4INDI12GPSInterface15saveConfigItemsEP8_IO_FILE
libindidriver.so.2:_ZN4INDI12GPSInterface16updatePropertiesEv
libindidriver.so.2:_ZN4INDI12GPSInterface9updateGPSEv
libindidriver.so.2:_ZN4INDI12GPSInterfaceC1EPNS_13DefaultDeviceE
libindidriver.so.2:_ZN4INDI12GPSInterfaceC2EPNS_13DefaultDeviceE
libindidriver.so.2:_ZN4INDI12IMUInterface11processTextERKNSt7__cxx1112basic_stringIcSt11char_traitsIcESaIcEEES8_PPcSA_i
libindidriver.so.2:_ZN4INDI12IMUInterface12SetPowerModeERKNSt7__cxx1112basic_stringIcSt11char_traitsIcESaIcEEE
libindidriver.so.2:_ZN4INDI12IMUInterface13SetDeviceInfoERKNSt7__cxx1112basic_stringIcSt11char_traitsIcESaIcEEES8_S8_
libindidriver.so.2:_ZN4INDI12IMUInterface13SetUpdateRateEd
libindidriver.so.2:_ZN4INDI12IMUInterface13processNumberERKNSt7__cxx1112basic_stringIcSt11char_traitsIcESaIcEEES8_PdPPci
libindidriver.so.2:_ZN4INDI12IMUInterface13processSwitchERKNSt7__cxx1112basic_stringIcSt11char_traitsIcESaIcEEES8_P7ISStatePPci
libindidriver.so.2:_ZN4INDI12IMUInterface14SetTemperatureEd
libindidriver.so.2:_ZN4INDI12IMUInterface14initPropertiesERKNSt7__cxx1112basic_stringIcSt11char_traitsIcESaIcEEE
libindidriver.so.2:_ZN4INDI12IMUInterface15SetAngularUnitsEb
libindidriver.so.2:_ZN4INDI12IMUInterface15saveConfigItemsEP8_IO_FILE
libindidriver.so.2:_ZN4INDI12IMUInterface16ResetCalibrationEv
libindidriver.so.2:_ZN4INDI12IMUInterface16SetDistanceUnitsEb
libindidriver.so.2:_ZN4INDI12IMUInterface16SetGyroscopeDataEddd
libindidriver.so.2:_ZN4INDI12IMUInterface16SetOperationModeERKNSt7__cxx1112basic_stringIcSt11char_traitsIcESaIcEEE
libindidriver.so.2:_ZN4INDI12IMUInterface16StartCalibrationEv
libindidriver.so.2:_ZN4INDI12IMUInterface16updatePropertiesEv
libindidriver.so.2:_ZN4INDI12IMUInterface18SetOrientationDataEdddd
libindidriver.so.2:_ZN4INDI12IMUInterface19LoadCalibrationDataEv
libindidriver.so.2:_ZN4INDI12IMUInterface19SaveCalibrationDataEv
libindidriver.so.2:_ZN4INDI12IMUInterface19SetAccelerationDataEddd
libindidriver.so.2:_ZN4INDI12IMUInterface19SetMagnetometerDataEddd
libindidriver.so.2:_ZN4INDI12IMUInterface20SetCalibrationStatusEiiii
libindidriver.so.2:_ZN4INDI12IMUInterface22SetStabilityMonitoringEdd
libindidriver.so.2:_ZN4INDI12IMUInterfaceC1EPNS_13DefaultDeviceE
libindidriver.so.2:_ZN4INDI12IMUInterfaceC2EPNS_13DefaultDeviceE
libindidriver.so.2:_ZN4INDI12MJPEGEncoder13getDeviceNameEv
libindidriver.so.2:_ZN4INDI12MJPEGEncoder20jpeg_compress_8u_rgbEPKhttiiPhPii
libindidriver.so.2:_ZN4INDI12MJPEGEncoder21jpeg_compress_8u_grayEPKhttiiPhPii
libindidriver.so.2:_ZN4INDI12MJPEGEncoder6uploadEPNS_10WidgetViewI6_IBLOBEEPKhjb
libindidriver.so.2:_ZN4INDI12MJPEGEncoderC1Ev
libindidriver.so.2:_ZN4INDI12MJPEGEncoderC2Ev
libindidriver.so.2:_ZN4INDI12MJPEGEncoderD0Ev
libindidriver.so.2:_ZN4INDI12MJPEGEncoderD1Ev
libindidriver.so.2:_ZN4INDI12MJPEGEncoderD2Ev
libindidriver.so.2:_ZN4INDI12MahonyFilter5resetEv
libindidriver.so.2:_ZN4INDI12MahonyFilter6updateEddddddddddb
libindidriver.so.2:_ZN4INDI12MahonyFilterC1Edd
libindidriver.so.2:_ZN4INDI12MahonyFilterC2Edd
libindidriver.so.2:_ZN4INDI12PACInterface10ReverseALTEb
libindidriver.so.2:_ZN4INDI12PACInterface11AbortMotionEv
libindidriver.so.2:_ZN4INDI12PACInterface11SetPACSpeedEt
libindidriver.so.2:_ZN4INDI12PACInterface13SetBacklashAZEi
libindidriver.so.2:_ZN4INDI12PACInterface13processNumberEPKcS2_PdPPci
libindidriver.so.2:_ZN4INDI12PACInterface13processSwitchEPKcS2_P7ISStatePPci
libindidriver.so.2:_ZN4INDI12PACInterface14SetBacklashALTEi
libindidriver.so.2:_ZN4INDI12PACInterface14initPropertiesEPKc
libindidriver.so.2:_ZN4INDI12PACInterface15saveConfigItemsEP8_IO_FILE
libindidriver.so.2:_ZN4INDI12PACInterface16updatePropertiesEv
libindidriver.so.2:_ZN4INDI12PACInterface18SetBacklashEnabledEb
libindidriver.so.2:_ZN4INDI12PACInterface6GoHomeEv
libindidriver.so.2:_ZN4INDI12PACInterface6MoveAZEd
libindidriver.so.2:_ZN4INDI12PACInterface6SyncAZEd
libindidriver.so.2:_ZN4INDI12PACInterface7MoveALTEd
libindidriver.so.2:_ZN4INDI12PACInterface7SetHomeEv
libindidriver.so.2:_ZN4INDI12PACInterface7SyncALTEd
libindidriver.so.2:_ZN4INDI12PACInterface8MoveBothEdd
libindidriver.so.2:_ZN4INDI12PACInterface9ResetHomeEv
libindidriver.so.2:_ZN4INDI12PACInterface9ReverseAZEb
libindidriver.so.2:_ZN4INDI12PACInterfaceC1EPNS_13DefaultDeviceE
libindidriver.so.2:_ZN4INDI12PACInterfaceC2EPNS_13DefaultDeviceE
libindidriver.so.2:_ZN4INDI12ParentDeviceC1ENS0_4TypeE
libindidriver.so.2:_ZN4INDI12ParentDeviceC1ERKSt10shared_ptrINS_19ParentDevicePrivateEE
libindidriver.so.2:_ZN4INDI12ParentDeviceC2ENS0_4TypeE
libindidriver.so.2:_ZN4INDI12ParentDeviceC2ERKSt10shared_ptrINS_19ParentDevicePrivateEE
libindidriver.so.2:_ZN4INDI12ParentDeviceD0Ev
libindidriver.so.2:_ZN4INDI12ParentDeviceD1Ev
libindidriver.so.2:_ZN4INDI12ParentDeviceD2Ev
libindidriver.so.2:_ZN4INDI12PropertyBlob14setBlobDeleterERKSt8functionIFvRPvEE
libindidriver.so.2:_ZN4INDI12PropertyBlob4fillEPKcS2_S2_S2_5IPermd7IPState
libindidriver.so.2:_ZN4INDI12PropertyBlob6updateEPKiS2_PKPKcS6_S6_i
libindidriver.so.2:_ZN4INDI12PropertyBlobC1ENS_8PropertyE
libindidriver.so.2:_ZN4INDI12PropertyBlobC1Em
libindidriver.so.2:_ZN4INDI12PropertyBlobC2ENS_8PropertyE
libindidriver.so.2:_ZN4INDI12PropertyBlobC2Em
libindidriver.so.2:_ZN4INDI12PropertyBlobD1Ev
libindidriver.so.2:_ZN4INDI12PropertyBlobD2Ev
libindidriver.so.2:_ZN4INDI12PropertyText4fillEPKcS2_S2_S2_5IPermd7IPState
libindidriver.so.2:_ZN4INDI12PropertyText6updateEPKPKcS4_i
libindidriver.so.2:_ZN4INDI12PropertyTextC1ENS_8PropertyE
libindidriver.so.2:_ZN4INDI12PropertyTextC1Em
libindidriver.so.2:_ZN4INDI12PropertyTextC2ENS_8PropertyE
libindidriver.so.2:_ZN4INDI12PropertyTextC2Em
libindidriver.so.2:_ZN4INDI12PropertyTextD1Ev
libindidriver.so.2:_ZN4INDI12PropertyTextD2Ev
libindidriver.so.2:_ZN4INDI12PropertyViewI6_IBLOBE4fillIS1_Lb1EEEvPKcS5_S5_S5_5IPermd7IPState
libindidriver.so.2:_ZN4INDI12PropertyViewI6_IBLOBE6updateIS1_Lb1EEEbPKiS5_PKPKcS9_S9_i
libindidriver.so.2:_ZN4INDI12PropertyViewI6_ITextE4fillIS1_Lb1EEEvPKcS5_S5_S5_5IPermd7IPState
libindidriver.so.2:_ZN4INDI12PropertyViewI6_ITextE6updateIS1_Lb1EEEbPKPKcS7_i
libindidriver.so.2:_ZN4INDI12PropertyViewI7_ILightE4fillIS1_Lb1EEEvPKcS5_S5_S5_7IPState
libindidriver.so.2:_ZN4INDI12PropertyViewI8_INumberE12updateMinMaxIS1_Lb1EEEvv
libindidriver.so.2:_ZN4INDI12PropertyViewI8_INumberE4fillIS1_Lb1EEEvPKcS5_S5_S5_5IPermd7IPState
libindidriver.so.2:_ZN4INDI12PropertyViewI8_INumberE6updateIS1_Lb1EEEbPKdPKPKci
libindidriver.so.2:_ZN4INDI12PropertyViewI8_ISwitchE4fillIS1_Lb1EEEvPKcS5_S5_S5_5IPerm6ISRuled7IPState
libindidriver.so.2:_ZN4INDI12PropertyViewI8_ISwitchE6updateIS1_Lb1EEEbPK7ISStatePKPKci
libindidriver.so.2:_ZN4INDI12SER_Recorder10writeFrameEPKhjm
libindidriver.so.2:_ZN4INDI12SER_Recorder12is_leap_yearEj
libindidriver.so.2:_ZN4INDI12SER_Recorder12write_headerEP10ser_header
libindidriver.so.2:_ZN4INDI12SER_Recorder12write_int_leEPj
libindidriver.so.2:_ZN4INDI12SER_Recorder13dateTo64BitTSEiiiiiiiPm
libindidriver.so.2:_ZN4INDI12SER_Recorder14setPixelFormatE17INDI_PIXEL_FORMATh
libindidriver.so.2:_ZN4INDI12SER_Recorder15getUTCTimeStampEv
libindidriver.so.2:_ZN4INDI12SER_Recorder16is_little_endianEv
libindidriver.so.2:_ZN4INDI12SER_Recorder17getLocalTimeStampEv
libindidriver.so.2:_ZN4INDI12SER_Recorder17write_long_int_leEPm
libindidriver.so.2:_ZN4INDI12SER_Recorder4openEPKcPc
libindidriver.so.2:_ZN4INDI12SER_Recorder5closeEv
libindidriver.so.2:_ZN4INDI12SER_Recorder7setSizeEtt
libindidriver.so.2:_ZN4INDI12SER_RecorderC1Ev
libindidriver.so.2:_ZN4INDI12SER_RecorderC2Ev
libindidriver.so.2:_ZN4INDI12SER_RecorderD0Ev
libindidriver.so.2:_ZN4INDI12SER_RecorderD1Ev
libindidriver.so.2:_ZN4INDI12SER_RecorderD2Ev
libindidriver.so.2:_ZN4INDI12Spectrograph11ISNewNumberEPKcS2_PdPPci
libindidriver.so.2:_ZN4INDI12Spectrograph11ISNewSwitchEPKcS2_P7ISStatePPci
libindidriver.so.2:_ZN4INDI12Spectrograph13ISSnoopDeviceEP8xml_ele_
libindidriver.so.2:_ZN4INDI12Spectrograph13setMinMaxStepEPKcS2_dddb
libindidriver.so.2:_ZN4INDI12Spectrograph14initPropertiesEv
libindidriver.so.2:_ZN4INDI12Spectrograph15ISGetPropertiesEPKc
libindidriver.so.2:_ZN4INDI12Spectrograph15addFITSKeywordsEP8fitsfilePhi
libindidriver.so.2:_ZN4INDI12Spectrograph16StartIntegrationEd
libindidriver.so.2:_ZN4INDI12Spectrograph16updatePropertiesEv
libindidriver.so.2:_ZN4INDI12Spectrograph18setLowCutFrequencyEd
libindidriver.so.2:_ZN4INDI12Spectrograph19setHighCutFrequencyEd
libindidriver.so.2:_ZN4INDI12Spectrograph25SetSpectrographCapabilityEj
libindidriver.so.2:_ZN4INDI12Spectrograph7setGainEd
libindidriver.so.2:_ZN4INDI12Spectrograph9ISNewBLOBEPKcS2_PiS3_PPcS5_S5_i
libindidriver.so.2:_ZN4INDI12Spectrograph9ISNewTextEPKcS2_PPcS4_i
libindidriver.so.2:_ZN4INDI12SpectrographC1Ev
libindidriver.so.2:_ZN4INDI12SpectrographC2Ev
libindidriver.so.2:_ZN4INDI12SpectrographD0Ev
libindidriver.so.2:_ZN4INDI12SpectrographD1Ev
libindidriver.so.2:_ZN4INDI12SpectrographD2Ev
libindidriver.so.2:_ZN4INDI12TimerPrivate4stopEv
libindidriver.so.2:_ZN4INDI12TimerPrivate5startEv
libindidriver.so.2:_ZN4INDI12TimerPrivateC1EPNS_5TimerE
libindidriver.so.2:_ZN4INDI12TimerPrivateC2EPNS_5TimerE
libindidriver.so.2:_ZN4INDI12TimerPrivateD0Ev
libindidriver.so.2:_ZN4INDI12TimerPrivateD1Ev
libindidriver.so.2:_ZN4INDI12TimerPrivateD2Ev
libindidriver.so.2:_ZN4INDI13DefaultDevice10DisconnectEv
libindidriver.so.2:_ZN4INDI13DefaultDevice10defineBLOBEP20_IBLOBVectorProperty
libindidriver.so.2:_ZN4INDI13DefaultDevice10defineTextEP20_ITextVectorProperty
libindidriver.so.2:_ZN4INDI13DefaultDevice10loadConfigERNS_8PropertyE
libindidriver.so.2:_ZN4INDI13DefaultDevice10loadConfigEbPKc
libindidriver.so.2:_ZN4INDI13DefaultDevice10saveConfigERNS_8PropertyE
libindidriver.so.2:_ZN4INDI13DefaultDevice10saveConfigEbPKc
libindidriver.so.2:_ZN4INDI13DefaultDevice10setVersionEtt
libindidriver.so.2:_ZN4INDI13DefaultDevice11ISNewNumberEPKcS2_PdPPci
libindidriver.so.2:_ZN4INDI13DefaultDevice11ISNewSwitchEPKcS2_P7ISStatePPci
libindidriver.so.2:_ZN4INDI13DefaultDevice11RemoveTimerEi
libindidriver.so.2:_ZN4INDI13DefaultDevice11defineLightEP21_ILightVectorProperty
libindidriver.so.2:_ZN4INDI13DefaultDevice11nicknameSetEPKc
libindidriver.so.2:_ZN4INDI13DefaultDevice11purgeConfigEv
libindidriver.so.2:_ZN4INDI13DefaultDevice11watchDeviceEPKcRKSt8functionIFvNS_10BaseDeviceEEE
libindidriver.so.2:_ZN4INDI13DefaultDevice12defineNumberEP22_INumberVectorProperty
libindidriver.so.2:_ZN4INDI13DefaultDevice12defineSwitchEP22_ISwitchVectorProperty
libindidriver.so.2:_ZN4INDI13DefaultDevice12setConnectedEb7IPStatePKc
libindidriver.so.2:_ZN4INDI13DefaultDevice13ISNewPropertyERNS_8PropertyERKNSt7__cxx1112basic_stringIcSt11char_traitsIcESaIcEEERKSt3any
libindidriver.so.2:_ZN4INDI13DefaultDevice13ISSnoopDeviceEP8xml_ele_
libindidriver.so.2:_ZN4INDI13DefaultDevice13getDriverExecEv
libindidriver.so.2:_ZN4INDI13DefaultDevice13getDriverNameEv
libindidriver.so.2:_ZN4INDI13DefaultDevice13setSimulationEb
libindidriver.so.2:_ZN4INDI13DefaultDevice14addAuxControlsEv
libindidriver.so.2:_ZN4INDI13DefaultDevice14debugTriggeredEb
libindidriver.so.2:_ZN4INDI13DefaultDevice14definePropertyEP20_IBLOBVectorProperty
libindidriver.so.2:_ZN4INDI13DefaultDevice14definePropertyEP20_ITextVectorProperty
libindidriver.so.2:_ZN4INDI13DefaultDevice14definePropertyEP21_ILightVectorProperty
libindidriver.so.2:_ZN4INDI13DefaultDevice14definePropertyEP22_INumberVectorProperty
libindidriver.so.2:_ZN4INDI13DefaultDevice14definePropertyEP22_ISwitchVectorProperty
libindidriver.so.2:_ZN4INDI13DefaultDevice14definePropertyERNS_8PropertyE
libindidriver.so.2:_ZN4INDI13DefaultDevice14deletePropertyEPKc
libindidriver.so.2:_ZN4INDI13DefaultDevice14deletePropertyERNS_8PropertyE
libindidriver.so.2:_ZN4INDI13DefaultDevice14initPropertiesEv
libindidriver.so.2:_ZN4INDI13DefaultDevice14saveNicknameIdEPKcS2_
libindidriver.so.2:_ZN4INDI13DefaultDevice14syncDriverInfoEv
libindidriver.so.2:_ZN4INDI13DefaultDevice15ISGetPropertiesEPKc
libindidriver.so.2:_ZN4INDI13DefaultDevice15addDebugControlEv
libindidriver.so.2:_ZN4INDI13DefaultDevice15resetPropertiesEv
libindidriver.so.2:_ZN4INDI13DefaultDevice15saveConfigItemsEP8_IO_FILE
libindidriver.so.2:_ZN4INDI13DefaultDevice16updatePropertiesEv
libindidriver.so.2:_ZN4INDI13DefaultDevice17getDeviceNicknameEv
libindidriver.so.2:_ZN4INDI13DefaultDevice17loadDefaultConfigEv
libindidriver.so.2:_ZN4INDI13DefaultDevice17setDeviceNicknameEPKc
libindidriver.so.2:_ZN4INDI13DefaultDevice18addNicknameControlEv
libindidriver.so.2:_ZN4INDI13DefaultDevice18registerConnectionEPN10Connection9InterfaceE
libindidriver.so.2:_ZN4INDI13DefaultDevice18saveAllConfigItemsEP8_IO_FILE
libindidriver.so.2:_ZN4INDI13DefaultDevice18setDriverInterfaceEj
libindidriver.so.2:_ZN4INDI13DefaultDevice19getActiveConnectionEv
libindidriver.so.2:_ZN4INDI13DefaultDevice19setActiveConnectionEPN10Connection9InterfaceE
libindidriver.so.2:_ZN4INDI13DefaultDevice19simulationTriggeredEb
libindidriver.so.2:_ZN4INDI13DefaultDevice20addPollPeriodControlEv
libindidriver.so.2:_ZN4INDI13DefaultDevice20addSimulationControlEv
libindidriver.so.2:_ZN4INDI13DefaultDevice20unRegisterConnectionEPN10Connection9InterfaceE
libindidriver.so.2:_ZN4INDI13DefaultDevice21setPollingPeriodRangeEjj
libindidriver.so.2:_ZN4INDI13DefaultDevice23addConfigurationControlEv
libindidriver.so.2:_ZN4INDI13DefaultDevice23refCurrentPollingPeriodEv
libindidriver.so.2:_ZN4INDI13DefaultDevice23setCurrentPollingPeriodEj
libindidriver.so.2:_ZN4INDI13DefaultDevice23setDefaultPollingPeriodEj
libindidriver.so.2:_ZN4INDI13DefaultDevice23setDeviceNicknameFromIdEPKc
libindidriver.so.2:_ZN4INDI13DefaultDevice26lookupDeviceNicknameFromIdEPKcS2_
libindidriver.so.2:_ZN4INDI13DefaultDevice28setDynamicPropertiesBehaviorEbb
libindidriver.so.2:_ZN4INDI13DefaultDevice7ConnectEv
libindidriver.so.2:_ZN4INDI13DefaultDevice8SetTimerEj
libindidriver.so.2:_ZN4INDI13DefaultDevice8TimerHitEv
libindidriver.so.2:_ZN4INDI13DefaultDevice8setDebugEb
libindidriver.so.2:_ZN4INDI13DefaultDevice9ISNewBLOBEPKcS2_PiS3_PPcS5_S5_i
libindidriver.so.2:_ZN4INDI13DefaultDevice9ISNewTextEPKcS2_PPcS4_i
libindidriver.so.2:_ZN4INDI13DefaultDeviceC1Ev
libindidriver.so.2:_ZN4INDI13DefaultDeviceC2Ev
libindidriver.so.2:_ZN4INDI13PropertyLight4fillEPKcS2_S2_S2_7IPState
libindidriver.so.2:_ZN4INDI13PropertyLightC1ENS_8PropertyE
libindidriver.so.2:_ZN4INDI13PropertyLightC1Em
libindidriver.so.2:_ZN4INDI13PropertyLightC2ENS_8PropertyE
libindidriver.so.2:_ZN4INDI13PropertyLightC2Em
libindidriver.so.2:_ZN4INDI13PropertyLightD1Ev
libindidriver.so.2:_ZN4INDI13PropertyLightD2Ev
libindidriver.so.2:_ZN4INDI13StreamManager11ISNewNumberEPKcS2_PdPPci
libindidriver.so.2:_ZN4INDI13StreamManager11ISNewSwitchEPKcS2_P7ISStatePPci
libindidriver.so.2:_ZN4INDI13StreamManager14initPropertiesEv
libindidriver.so.2:_ZN4INDI13StreamManager14setPixelFormatE17INDI_PIXEL_FORMATh
libindidriver.so.2:_ZN4INDI13StreamManager15ISGetPropertiesEPKc
libindidriver.so.2:_ZN4INDI13StreamManager15saveConfigItemsEP8_IO_FILE
libindidriver.so.2:_ZN4INDI13StreamManager16updatePropertiesEv
libindidriver.so.2:_ZN4INDI13StreamManager27setStreamingExposureEnabledEb
libindidriver.so.2:_ZN4INDI13StreamManager5closeEv
libindidriver.so.2:_ZN4INDI13StreamManager7setSizeEtt
libindidriver.so.2:_ZN4INDI13StreamManager8newFrameEPKhjm
libindidriver.so.2:_ZN4INDI13StreamManager9ISNewTextEPKcS2_PPcS4_i
libindidriver.so.2:_ZN4INDI13StreamManager9setStreamEb
libindidriver.so.2:_ZN4INDI13StreamManagerC1EPNS_13DefaultDeviceE
libindidriver.so.2:_ZN4INDI13StreamManagerC2EPNS_13DefaultDeviceE
libindidriver.so.2:_ZN4INDI13StreamManagerD0Ev
libindidriver.so.2:_ZN4INDI13StreamManagerD1Ev
libindidriver.so.2:_ZN4INDI13StreamManagerD2Ev
libindidriver.so.2:_ZN4INDI14EncoderManager10getEncoderEv
libindidriver.so.2:_ZN4INDI14EncoderManager10setEncoderEPNS_16EncoderInterfaceE
libindidriver.so.2:_ZN4INDI14EncoderManager14getEncoderListEv
libindidriver.so.2:_ZN4INDI14EncoderManager17getDefaultEncoderEv
libindidriver.so.2:_ZN4INDI14EncoderManagerC1Ev
libindidriver.so.2:_ZN4INDI14EncoderManagerC2Ev
libindidriver.so.2:_ZN4INDI14EncoderManagerD1Ev
libindidriver.so.2:_ZN4INDI14EncoderManagerD2Ev
libindidriver.so.2:_ZN4INDI14HotPlugManager10deinitUdevEv
libindidriver.so.2:_ZN4INDI14HotPlugManager11getInstanceEv
libindidriver.so.2:_ZN4INDI14HotPlugManager15handleUdevEventEi
libindidriver.so.2:_ZN4INDI14HotPlugManager15registerHandlerESt10shared_ptrINS_20HotPlugCapableDeviceEE
libindidriver.so.2:_ZN4INDI14HotPlugManager17unregisterHandlerESt10shared_ptrINS_20HotPlugCapableDeviceEE
libindidriver.so.2:_ZN4INDI14HotPlugManager18checkHotPlugEventsEv
libindidriver.so.2:_ZN4INDI14HotPlugManager19udevCallbackWrapperEiPv
libindidriver.so.2:_ZN4INDI14HotPlugManager25setInitialPollingDurationEi
libindidriver.so.2:_ZN4INDI14HotPlugManager25setNonUdevPollingDurationEi
libindidriver.so.2:_ZN4INDI14HotPlugManager4stopEv
libindidriver.so.2:_ZN4INDI14HotPlugManager5startEjb
libindidriver.so.2:_ZN4INDI14HotPlugManager8initUdevEv
libindidriver.so.2:_ZN4INDI14HotPlugManagerC1Ev
libindidriver.so.2:_ZN4INDI14HotPlugManagerC2Ev
libindidriver.so.2:_ZN4INDI14HotPlugManagerD1Ev
libindidriver.so.2:_ZN4INDI14HotPlugManagerD2Ev
libindidriver.so.2:_ZN4INDI14InputInterface11processTextEPKcS2_PPcS4_i
libindidriver.so.2:_ZN4INDI14InputInterface14initPropertiesEPKchhRKNSt7__cxx1112basic_stringIcSt11char_traitsIcESaIcEEESA_
libindidriver.so.2:_ZN4INDI14InputInterface15saveConfigItemsEP8_IO_FILE
libindidriver.so.2:_ZN4INDI14InputInterface16updatePropertiesEv
libindidriver.so.2:_ZN4INDI14InputInterfaceC1EPNS_13DefaultDeviceE
libindidriver.so.2:_ZN4INDI14InputInterfaceC2EPNS_13DefaultDeviceE
libindidriver.so.2:_ZN4INDI14InputInterfaceD1Ev
libindidriver.so.2:_ZN4INDI14InputInterfaceD2Ev
libindidriver.so.2:_ZN4INDI14MadgwickFilter10update6DOFEddddddd
libindidriver.so.2:_ZN4INDI14MadgwickFilter10update9DOFEdddddddddd
libindidriver.so.2:_ZN4INDI14MadgwickFilter5resetEv
libindidriver.so.2:_ZN4INDI14MadgwickFilter6updateEddddddddddb
libindidriver.so.2:_ZN4INDI14MadgwickFilterC1Ed
libindidriver.so.2:_ZN4INDI14MadgwickFilterC2Ed
libindidriver.so.2:_ZN4INDI14PowerInterface10CyclePowerEv
libindidriver.so.2:_ZN4INDI14PowerInterface10SetDewPortEmbd
libindidriver.so.2:_ZN4INDI14PowerInterface10SetUSBPortEmb
libindidriver.so.2:_ZN4INDI14PowerInterface11processTextEPKcS2_PPcS4_i
libindidriver.so.2:_ZN4INDI14PowerInterface12SetPowerPortEmb
libindidriver.so.2:_ZN4INDI14PowerInterface13SetLEDEnabledEb
libindidriver.so.2:_ZN4INDI14PowerInterface13processNumberEPKcS2_PdPPci
libindidriver.so.2:_ZN4INDI14PowerInterface13processSwitchEPKcS2_P7ISStatePPci
libindidriver.so.2:_ZN4INDI14PowerInterface14initPropertiesEPKcmmmmm
libindidriver.so.2:_ZN4INDI14PowerInterface15SetVariablePortEmbd
libindidriver.so.2:_ZN4INDI14PowerInterface15saveConfigItemsEP8_IO_FILE
libindidriver.so.2:_ZN4INDI14PowerInterface16updatePropertiesEv
libindidriver.so.2:_ZN4INDI14PowerInterface17SetAutoDewEnabledEmb
libindidriver.so.2:_ZN4INDI14PowerInterfaceC1EPNS_13DefaultDeviceE
libindidriver.so.2:_ZN4INDI14PowerInterfaceC2EPNS_13DefaultDeviceE
libindidriver.so.2:_ZN4INDI14PropertyNumber12updateMinMaxEv
libindidriver.so.2:_ZN4INDI14PropertyNumber4fillEPKcS2_S2_S2_5IPermd7IPState
libindidriver.so.2:_ZN4INDI14PropertyNumber6updateEPKdPKPKci
libindidriver.so.2:_ZN4INDI14PropertyNumberC1ENS_8PropertyE
libindidriver.so.2:_ZN4INDI14PropertyNumberC1Em
libindidriver.so.2:_ZN4INDI14PropertyNumberC2ENS_8PropertyE
libindidriver.so.2:_ZN4INDI14PropertyNumberC2Em
libindidriver.so.2:_ZN4INDI14PropertyNumberD1Ev
libindidriver.so.2:_ZN4INDI14PropertyNumberD2Ev
libindidriver.so.2:_ZN4INDI14PropertySwitch11onNewValuesERKSt8functionIFvRKNS0_9NewValuesEEE
libindidriver.so.2:_ZN4INDI14PropertySwitch4fillEPKcS2_S2_S2_5IPerm6ISRuled7IPState
libindidriver.so.2:_ZN4INDI14PropertySwitch5resetEv
libindidriver.so.2:_ZN4INDI14PropertySwitch6updateEPK7ISStatePKPKci
libindidriver.so.2:_ZN4INDI14PropertySwitch7setRuleE6ISRule
libindidriver.so.2:_ZN4INDI14PropertySwitchC1ENS_8PropertyE
libindidriver.so.2:_ZN4INDI14PropertySwitchC1Em
libindidriver.so.2:_ZN4INDI14PropertySwitchC2ENS_8PropertyE
libindidriver.so.2:_ZN4INDI14PropertySwitchC2Em
libindidriver.so.2:_ZN4INDI14PropertySwitchD1Ev
libindidriver.so.2:_ZN4INDI14PropertySwitchD2Ev
libindidriver.so.2:_ZN4INDI14TheoraRecorder10writeFrameEPKhjm
libindidriver.so.2:_ZN4INDI14TheoraRecorder14setPixelFormatE17INDI_PIXEL_FORMATh
libindidriver.so.2:_ZN4INDI14TheoraRecorder15allocateBuffersEv
libindidriver.so.2:_ZN4INDI14TheoraRecorder18theora_write_frameEi
libindidriver.so.2:_ZN4INDI14TheoraRecorder4fracEdRjS1_
libindidriver.so.2:_ZN4INDI14TheoraRecorder4openEPKcPc
libindidriver.so.2:_ZN4INDI14TheoraRecorder5closeEv
libindidriver.so.2:_ZN4INDI14TheoraRecorder7setSizeEtt
libindidriver.so.2:_ZN4INDI14TheoraRecorderC1Ev
libindidriver.so.2:_ZN4INDI14TheoraRecorderC2Ev
libindidriver.so.2:_ZN4INDI14TheoraRecorderD0Ev
libindidriver.so.2:_ZN4INDI14TheoraRecorderD1Ev
libindidriver.so.2:_ZN4INDI14TheoraRecorderD2Ev
libindidriver.so.2:_ZN4INDI14ln_get_equ_nutEP11ln_equ_posndb
libindidriver.so.2:_ZN4INDI15FilterInterface11processTextEPKcS2_PPcS4_i
libindidriver.so.2:_ZN4INDI15FilterInterface13processNumberEPKcS2_PdPPci
libindidriver.so.2:_ZN4INDI15FilterInterface14GetFilterNamesEv
libindidriver.so.2:_ZN4INDI15FilterInterface14SetFilterNamesEv
libindidriver.so.2:_ZN4INDI15FilterInterface14initPropertiesEPKc
libindidriver.so.2:_ZN4INDI15FilterInterface15loadFilterNamesEv
libindidriver.so.2:_ZN4INDI15FilterInterface15saveConfigItemsEP8_IO_FILE
libindidriver.so.2:_ZN4INDI15FilterInterface16SelectFilterDoneEi
libindidriver.so.2:_ZN4INDI15FilterInterface16updatePropertiesEv
libindidriver.so.2:_ZN4INDI15FilterInterface21generateSampleFiltersEv
libindidriver.so.2:_ZN4INDI15FilterInterfaceC1EPNS_13DefaultDeviceE
libindidriver.so.2:_ZN4INDI15FilterInterfaceC2EPNS_13DefaultDeviceE
libindidriver.so.2:_ZN4INDI15FilterInterfaceD1Ev
libindidriver.so.2:_ZN4INDI15FilterInterfaceD2Ev
libindidriver.so.2:_ZN4INDI15GuiderInterface13GuideCompleteE12INDI_EQ_AXIS
libindidriver.so.2:_ZN4INDI15GuiderInterface13processNumberEPKcS2_PdPPci
libindidriver.so.2:_ZN4INDI15GuiderInterface14initPropertiesEPKc
libindidriver.so.2:_ZN4INDI15GuiderInterface16updatePropertiesEv
libindidriver.so.2:_ZN4INDI15GuiderInterfaceC1EPNS_13DefaultDeviceE
libindidriver.so.2:_ZN4INDI15GuiderInterfaceC2EPNS_13DefaultDeviceE
libindidriver.so.2:_ZN4INDI15GuiderInterfaceD1Ev
libindidriver.so.2:_ZN4INDI15GuiderInterfaceD2Ev
libindidriver.so.2:_ZN4INDI15J2000toObservedEPNS_22IEquatorialCoordinatesEdS1_
libindidriver.so.2:_ZN4INDI15ObservedToJ2000EPNS_22IEquatorialCoordinatesEdS1_
libindidriver.so.2:_ZN4INDI15OutputInterface11processTextEPKcS2_PPcS4_i
libindidriver.so.2:_ZN4INDI15OutputInterface13processNumberEPKcS2_PdPPci
libindidriver.so.2:_ZN4INDI15OutputInterface13processSwitchEPKcS2_P7ISStatePPci
libindidriver.so.2:_ZN4INDI15OutputInterface14initPropertiesEPKchRKNSt7__cxx1112basic_stringIcSt11char_traitsIcESaIcEEE
libindidriver.so.2:_ZN4INDI15OutputInterface15saveConfigItemsEP8_IO_FILE
libindidriver.so.2:_ZN4INDI15OutputInterface16updatePropertiesEv
libindidriver.so.2:_ZN4INDI15OutputInterfaceC1EPNS_13DefaultDeviceE
libindidriver.so.2:_ZN4INDI15OutputInterfaceC2EPNS_13DefaultDeviceE
libindidriver.so.2:_ZN4INDI15OutputInterfaceD1Ev
libindidriver.so.2:_ZN4INDI15OutputInterfaceD2Ev
libindidriver.so.2:_ZN4INDI15PropertyPrivateC1EPNS_12PropertyViewI6_IBLOBEE
libindidriver.so.2:_ZN4INDI15PropertyPrivateC1EPNS_12PropertyViewI6_ITextEE
libindidriver.so.2:_ZN4INDI15PropertyPrivateC1EPNS_12PropertyViewI7_ILightEE
libindidriver.so.2:_ZN4INDI15PropertyPrivateC1EPNS_12PropertyViewI8_INumberEE
libindidriver.so.2:_ZN4INDI15PropertyPrivateC1EPNS_12PropertyViewI8_ISwitchEE
libindidriver.so.2:_ZN4INDI15PropertyPrivateC1EPv18INDI_PROPERTY_TYPE
libindidriver.so.2:_ZN4INDI15PropertyPrivateC2EPNS_12PropertyViewI6_IBLOBEE
libindidriver.so.2:_ZN4INDI15PropertyPrivateC2EPNS_12PropertyViewI6_ITextEE
libindidriver.so.2:_ZN4INDI15PropertyPrivateC2EPNS_12PropertyViewI7_ILightEE
libindidriver.so.2:_ZN4INDI15PropertyPrivateC2EPNS_12PropertyViewI8_INumberEE
libindidriver.so.2:_ZN4INDI15PropertyPrivateC2EPNS_12PropertyViewI8_ISwitchEE
libindidriver.so.2:_ZN4INDI15PropertyPrivateC2EPv18INDI_PROPERTY_TYPE
libindidriver.so.2:_ZN4INDI15PropertyPrivateD0Ev
libindidriver.so.2:_ZN4INDI15PropertyPrivateD1Ev
libindidriver.so.2:_ZN4INDI15PropertyPrivateD2Ev
libindidriver.so.2:_ZN4INDI15RecorderManager11getRecorderEv
libindidriver.so.2:_ZN4INDI15RecorderManager11setRecorderEPNS_17RecorderInterfaceE
libindidriver.so.2:_ZN4INDI15RecorderManager15getRecorderListEv
libindidriver.so.2:_ZN4INDI15RecorderManager18getDefaultRecorderEv
libindidriver.so.2:_ZN4INDI15RecorderManagerC1Ev
libindidriver.so.2:_ZN4INDI15RecorderManagerC2Ev
libindidriver.so.2:_ZN4INDI15RecorderManagerD1Ev
libindidriver.so.2:_ZN4INDI15RecorderManagerD2Ev
libindidriver.so.2:_ZN4INDI15SensorInterface10uploadFileEPKvm6_IBLOBbb
libindidriver.so.2:_ZN4INDI15SensorInterface11processBLOBEPKcS2_PiS3_PPcS5_S5_i
libindidriver.so.2:_ZN4INDI15SensorInterface11processTextEPKcS2_PPcS4_i
libindidriver.so.2:_ZN4INDI15SensorInterface12getFileIndexEPKcS2_S2_
libindidriver.so.2:_ZN4INDI15SensorInterface13SetCapabilityEj
libindidriver.so.2:_ZN4INDI15SensorInterface13StopStreamingEv
libindidriver.so.2:_ZN4INDI15SensorInterface13callHandshakeEv
libindidriver.so.2:_ZN4INDI15SensorInterface13processNumberEPKcS2_PdPPci
libindidriver.so.2:_ZN4INDI15SensorInterface13processSwitchEPKcS2_P7ISStatePPci
libindidriver.so.2:_ZN4INDI15SensorInterface13setBufferSizeEib
libindidriver.so.2:_ZN4INDI15SensorInterface13setMinMaxStepEPKcS2_dddb
libindidriver.so.2:_ZN4INDI15SensorInterface14SetTemperatureEd
libindidriver.so.2:_ZN4INDI15SensorInterface14StartStreamingEv
libindidriver.so.2:_ZN4INDI15SensorInterface14initPropertiesEv
libindidriver.so.2:_ZN4INDI15SensorInterface15addFITSKeywordsEP8fitsfilePhi
libindidriver.so.2:_ZN4INDI15SensorInterface15saveConfigItemsEP8_IO_FILE
libindidriver.so.2:_ZN4INDI15SensorInterface16AbortIntegrationEv
libindidriver.so.2:_ZN4INDI15SensorInterface16StartIntegrationEd
libindidriver.so.2:_ZN4INDI15SensorInterface16updatePropertiesEv
libindidriver.so.2:_ZN4INDI15SensorInterface17fits_update_key_sEP8fitsfileiNSt7__cxx1112basic_stringIcSt11char_traitsIcESaIcEEEPvS8_Pi
libindidriver.so.2:_ZN4INDI15SensorInterface17processPropertiesEPKc
libindidriver.so.2:_ZN4INDI15SensorInterface18processSnoopDeviceEP8xml_ele_
libindidriver.so.2:_ZN4INDI15SensorInterface18setIntegrationLeftEd
libindidriver.so.2:_ZN4INDI15SensorInterface18setIntegrationTimeEd
libindidriver.so.2:_ZN4INDI15SensorInterface19IntegrationCompleteEv
libindidriver.so.2:_ZN4INDI15SensorInterface19setSensorConnectionERKh
libindidriver.so.2:_ZN4INDI15SensorInterface20setIntegrationFailedEv
libindidriver.so.2:_ZN4INDI15SensorInterface23getIntegrationStartTimeEv
libindidriver.so.2:_ZN4INDI15SensorInterface26IntegrationCompletePrivateEv
libindidriver.so.2:_ZN4INDI15SensorInterface27setIntegrationFileExtensionEPKc
libindidriver.so.2:_ZN4INDI15SensorInterface6setBPSEi
libindidriver.so.2:_ZN4INDI15SensorInterface8sendFITSEPhi6_IBLOB
libindidriver.so.2:_ZN4INDI15SensorInterface8setNAxisEi
libindidriver.so.2:_ZN4INDI15SensorInterface9HandshakeEv
libindidriver.so.2:_ZN4INDI15SensorInterface9getMinMaxEPdS1_Phii
libindidriver.so.2:_ZN4INDI15SensorInterfaceC1Ev
libindidriver.so.2:_ZN4INDI15SensorInterfaceC2Ev
libindidriver.so.2:_ZN4INDI15SensorInterfaceD0Ev
libindidriver.so.2:_ZN4INDI15SensorInterfaceD1Ev
libindidriver.so.2:_ZN4INDI15SensorInterfaceD2Ev
libindidriver.so.2:_ZN4INDI15allocateBlobUidB5cxx11Ei
libindidriver.so.2:_ZN4INDI15attachBlobByUidERKNSt7__cxx1112basic_stringIcSt11char_traitsIcESaIcEEEm
libindidriver.so.2:_ZN4INDI15releaseBlobUidsERKSt6vectorINSt7__cxx1112basic_stringIcSt11char_traitsIcESaIcEEESaIS6_EE
libindidriver.so.2:_ZN4INDI16DustCapInterface13processSwitchEPKcS2_P7ISStatePPci
libindidriver.so.2:_ZN4INDI16DustCapInterface14initPropertiesEPKcj
libindidriver.so.2:_ZN4INDI16DustCapInterface16updatePropertiesEv
libindidriver.so.2:_ZN4INDI16DustCapInterface7ParkCapEv
libindidriver.so.2:_ZN4INDI16DustCapInterface8AbortCapEv
libindidriver.so.2:_ZN4INDI16DustCapInterface9UnParkCapEv
libindidriver.so.2:_ZN4INDI16DustCapInterfaceC1EPNS_13DefaultDeviceE
libindidriver.so.2:_ZN4INDI16DustCapInterfaceC2EPNS_13DefaultDeviceE
libindidriver.so.2:_ZN4INDI16EncoderInterface14setPixelFormatE17INDI_PIXEL_FORMATh
libindidriver.so.2:_ZN4INDI16EncoderInterface4initEPNS_13DefaultDeviceE
libindidriver.so.2:_ZN4INDI16EncoderInterface7getNameEv
libindidriver.so.2:_ZN4INDI16EncoderInterface7setSizeEtt
libindidriver.so.2:_ZN4INDI16FocuserInterface11MoveFocuserENS0_14FocusDirectionEit
libindidriver.so.2:_ZN4INDI16FocuserInterface11SyncFocuserEj
libindidriver.so.2:_ZN4INDI16FocuserInterface12AbortFocuserEv
libindidriver.so.2:_ZN4INDI16FocuserInterface13processNumberEPKcS2_PdPPci
libindidriver.so.2:_ZN4INDI16FocuserInterface13processSwitchEPKcS2_P7ISStatePPci
libindidriver.so.2:_ZN4INDI16FocuserInterface14MoveAbsFocuserEj
libindidriver.so.2:_ZN4INDI16FocuserInterface14MoveRelFocuserENS0_14FocusDirectionEj
libindidriver.so.2:_ZN4INDI16FocuserInterface14ReverseFocuserEb
libindidriver.so.2:_ZN4INDI16FocuserInterface14initPropertiesEPKc
libindidriver.so.2:_ZN4INDI16FocuserInterface15SetFocuserSpeedEi
libindidriver.so.2:_ZN4INDI16FocuserInterface15saveConfigItemsEP8_IO_FILE
libindidriver.so.2:_ZN4INDI16FocuserInterface16updatePropertiesEv
libindidriver.so.2:_ZN4INDI16FocuserInterface18SetFocuserBacklashEi
libindidriver.so.2:_ZN4INDI16FocuserInterface21SetFocuserMaxPositionEj
libindidriver.so.2:_ZN4INDI16FocuserInterface25SetFocuserBacklashEnabledEb
libindidriver.so.2:_ZN4INDI16FocuserInterfaceC1EPNS_13DefaultDeviceE
libindidriver.so.2:_ZN4INDI16FocuserInterfaceC2EPNS_13DefaultDeviceE
libindidriver.so.2:_ZN4INDI16RotatorInterface11HomeRotatorEv
libindidriver.so.2:_ZN4INDI16RotatorInterface11SyncRotatorEd
libindidriver.so.2:_ZN4INDI16RotatorInterface12AbortRotatorEv
libindidriver.so.2:_ZN4INDI16RotatorInterface13processNumberEPKcS2_PdPPci
libindidriver.so.2:_ZN4INDI16RotatorInterface13processSwitchEPKcS2_P7ISStatePPci
libindidriver.so.2:_ZN4INDI16RotatorInterface14ReverseRotatorEb
libindidriver.so.2:_ZN4INDI16RotatorInterface14initPropertiesEPKc
libindidriver.so.2:_ZN4INDI16RotatorInterface15saveConfigItemsEP8_IO_FILE
libindidriver.so.2:_ZN4INDI16RotatorInterface16updatePropertiesEv
libindidriver.so.2:_ZN4INDI16RotatorInterface18SetRotatorBacklashEi
libindidriver.so.2:_ZN4INDI16RotatorInterface25SetRotatorBacklashEnabledEb
libindidriver.so.2:_ZN4INDI16RotatorInterfaceC1EPNS_13DefaultDeviceE
libindidriver.so.2:_ZN4INDI16RotatorInterfaceC2EPNS_13DefaultDeviceE
libindidriver.so.2:_ZN4INDI16SingleThreadPool4quitEv
libindidriver.so.2:_ZN4INDI16SingleThreadPool5startERKSt8functionIFvRKSt6atomicIbEEE
libindidriver.so.2:_ZN4INDI16SingleThreadPool8tryStartERKSt8functionIFvRKSt6atomicIbEEE
libindidriver.so.2:_ZN4INDI16SingleThreadPoolC1Ev
libindidriver.so.2:_ZN4INDI16SingleThreadPoolC2Ev
libindidriver.so.2:_ZN4INDI16SingleThreadPoolD1Ev
libindidriver.so.2:_ZN4INDI16SingleThreadPoolD2Ev
libindidriver.so.2:_ZN4INDI16WeatherInterface12addParameterENSt7__cxx1112basic_stringIcSt11char_traitsIcESaIcEEES6_dddb
libindidriver.so.2:_ZN4INDI16WeatherInterface13processNumberEPKcS2_PdPPci
libindidriver.so.2:_ZN4INDI16WeatherInterface13processSwitchEPKcS2_P7ISStatePPci
libindidriver.so.2:_ZN4INDI16WeatherInterface13updateWeatherEv
libindidriver.so.2:_ZN4INDI16WeatherInterface14initPropertiesEPKcS2_
libindidriver.so.2:_ZN4INDI16WeatherInterface15saveConfigItemsEP8_IO_FILE
libindidriver.so.2:_ZN4INDI16WeatherInterface16updatePropertiesEv
libindidriver.so.2:_ZN4INDI16WeatherInterface17setParameterValueENSt7__cxx1112basic_stringIcSt11char_traitsIcESaIcEEEd
libindidriver.so.2:_ZN4INDI16WeatherInterface18checkWeatherUpdateEv
libindidriver.so.2:_ZN4INDI16WeatherInterface20createParameterRangeENSt7__cxx1112basic_stringIcSt11char_traitsIcESaIcEEES6_dddb
libindidriver.so.2:_ZN4INDI16WeatherInterface20setCriticalParameterENSt7__cxx1112basic_stringIcSt11char_traitsIcESaIcEEE
libindidriver.so.2:_ZN4INDI16WeatherInterface22syncCriticalParametersEv
libindidriver.so.2:_ZN4INDI16WeatherInterfaceC1EPNS_13DefaultDeviceE
libindidriver.so.2:_ZN4INDI16WeatherInterfaceC2EPNS_13DefaultDeviceE
libindidriver.so.2:_ZN4INDI16WeatherInterfaceD0Ev
libindidriver.so.2:_ZN4INDI16WeatherInterfaceD1Ev
libindidriver.so.2:_ZN4INDI16WeatherInterfaceD2Ev
libindidriver.so.2:_ZN4INDI17BaseDevicePrivate7setBLOBENS_12PropertyBlobERKNS_13LilXmlElementEPc
libindidriver.so.2:_ZN4INDI17BaseDevicePrivateC1Ev
libindidriver.so.2:_ZN4INDI17BaseDevicePrivateC2Ev
libindidriver.so.2:_ZN4INDI17BaseDevicePrivateD0Ev
libindidriver.so.2:_ZN4INDI17BaseDevicePrivateD1Ev
libindidriver.so.2:_ZN4INDI17BaseDevicePrivateD2Ev
libindidriver.so.2:_ZN4INDI17LightBoxInterface11processTextEPKcS2_PPcS4_i
libindidriver.so.2:_ZN4INDI17LightBoxInterface13processNumberEPKcS2_PdPPci
libindidriver.so.2:_ZN4INDI17LightBoxInterface13processSwitchEPKcS2_P7ISStatePPci
libindidriver.so.2:_ZN4INDI17LightBoxInterface14EnableLightBoxEb
libindidriver.so.2:_ZN4INDI17LightBoxInterface14initPropertiesEPKcj
libindidriver.so.2:_ZN4INDI17LightBoxInterface15ISGetPropertiesEPKc
libindidriver.so.2:_ZN4INDI17LightBoxInterface15saveConfigItemsEP8_IO_FILE
libindidriver.so.2:_ZN4INDI17LightBoxInterface16updatePropertiesEv
libindidriver.so.2:_ZN4INDI17LightBoxInterface17addFilterDurationEPKct
libindidriver.so.2:_ZN4INDI17LightBoxInterface21SetLightBoxBrightnessEt
libindidriver.so.2:_ZN4INDI17LightBoxInterface5snoopEP8xml_ele_
libindidriver.so.2:_ZN4INDI17LightBoxInterfaceC1EPNS_13DefaultDeviceE
libindidriver.so.2:_ZN4INDI17LightBoxInterfaceC2EPNS_13DefaultDeviceE
libindidriver.so.2:_ZN4INDI17LightBoxInterfaceD0Ev
libindidriver.so.2:_ZN4INDI17LightBoxInterfaceD1Ev
libindidriver.so.2:_ZN4INDI17LightBoxInterfaceD2Ev
libindidriver.so.2:_ZN4INDI17PropertiesPrivateC1Ev
libindidriver.so.2:_ZN4INDI17PropertiesPrivateC2Ev
libindidriver.so.2:_ZN4INDI17PropertiesPrivateD0Ev
libindidriver.so.2:_ZN4INDI17PropertiesPrivateD1Ev
libindidriver.so.2:_ZN4INDI17PropertiesPrivateD2Ev
libindidriver.so.2:_ZN4INDI17RecorderInterface7getNameEv
libindidriver.so.2:_ZN4INDI19PropertyBlobPrivateC1Em
libindidriver.so.2:_ZN4INDI19PropertyBlobPrivateC2Em
libindidriver.so.2:_ZN4INDI19PropertyBlobPrivateD0Ev
libindidriver.so.2:_ZN4INDI19PropertyBlobPrivateD1Ev
libindidriver.so.2:_ZN4INDI19PropertyBlobPrivateD2Ev
libindidriver.so.2:_ZN4INDI19PropertyTextPrivateC1Em
libindidriver.so.2:_ZN4INDI19PropertyTextPrivateC2Em
libindidriver.so.2:_ZN4INDI19PropertyTextPrivateD0Ev
libindidriver.so.2:_ZN4INDI19PropertyTextPrivateD1Ev
libindidriver.so.2:_ZN4INDI19PropertyTextPrivateD2Ev
libindidriver.so.2:_ZN4INDI19WatchDeviceProperty10processXmlERKNS_13LilXmlElementEPcRKSt8functionIFNS_12ParentDeviceEvEE
libindidriver.so.2:_ZN4INDI19WatchDeviceProperty11watchDeviceERKNSt7__cxx1112basic_stringIcSt11char_traitsIcESaIcEEE
libindidriver.so.2:_ZN4INDI19WatchDeviceProperty11watchDeviceERKNSt7__cxx1112basic_stringIcSt11char_traitsIcESaIcEEERKSt8functionIFvNS_10BaseDeviceEEE
libindidriver.so.2:_ZN4INDI19WatchDeviceProperty12clearDevicesEv
libindidriver.so.2:_ZN4INDI19WatchDeviceProperty12deleteDeviceERKNS_10BaseDeviceE
libindidriver.so.2:_ZN4INDI19WatchDeviceProperty13watchPropertyERKNSt7__cxx1112basic_stringIcSt11char_traitsIcESaIcEEES8_
libindidriver.so.2:_ZN4INDI19WatchDeviceProperty14unwatchDevicesEv
libindidriver.so.2:_ZN4INDI19WatchDeviceProperty15getDeviceByNameEPKc
libindidriver.so.2:_ZN4INDI19WatchDeviceProperty18ensureDeviceByNameEPKcRKSt8functionIFNS_12ParentDeviceEvEE
libindidriver.so.2:_ZN4INDI19WatchDeviceProperty5clearEv
libindidriver.so.2:_ZN4INDI20DefaultDevicePrivate11devicesLockE
libindidriver.so.2:_ZN4INDI20DefaultDevicePrivate20loadINDINicknamesXMLEPKc
libindidriver.so.2:_ZN4INDI20DefaultDevicePrivate20saveINDINicknamesXMLEPKc
libindidriver.so.2:_ZN4INDI20DefaultDevicePrivate7devicesB5cxx11E
libindidriver.so.2:_ZN4INDI20DefaultDevicePrivateC1EPNS_13DefaultDeviceE
libindidriver.so.2:_ZN4INDI20DefaultDevicePrivateC2EPNS_13DefaultDeviceE
libindidriver.so.2:_ZN4INDI20DefaultDevicePrivateD0Ev
libindidriver.so.2:_ZN4INDI20DefaultDevicePrivateD1Ev
libindidriver.so.2:_ZN4INDI20DefaultDevicePrivateD2Ev
libindidriver.so.2:_ZN4INDI20PropertyLightPrivateC1Em
libindidriver.so.2:_ZN4INDI20PropertyLightPrivateC2Em
libindidriver.so.2:_ZN4INDI20PropertyLightPrivateD0Ev
libindidriver.so.2:_ZN4INDI20PropertyLightPrivateD1Ev
libindidriver.so.2:_ZN4INDI20PropertyLightPrivateD2Ev
libindidriver.so.2:_ZN4INDI20StreamManagerPrivate11ISNewNumberEPKcS2_PdPPci
libindidriver.so.2:_ZN4INDI20StreamManagerPrivate11ISNewSwitchEPKcS2_P7ISStatePPci
libindidriver.so.2:_ZN4INDI20StreamManagerPrivate12recordStreamEPKhjdm
libindidriver.so.2:_ZN4INDI20StreamManagerPrivate12uploadStreamEPKhj
libindidriver.so.2:_ZN4INDI20StreamManagerPrivate13stopRecordingEb
libindidriver.so.2:_ZN4INDI20StreamManagerPrivate14initPropertiesEv
libindidriver.so.2:_ZN4INDI20StreamManagerPrivate14setPixelFormatE17INDI_PIXEL_FORMATh
libindidriver.so.2:_ZN4INDI20StreamManagerPrivate14setStreamFrameERKNS0_9FrameInfoE
libindidriver.so.2:_ZN4INDI20StreamManagerPrivate14setStreamFrameEtttt
libindidriver.so.2:_ZN4INDI20StreamManagerPrivate14startRecordingEv
libindidriver.so.2:_ZN4INDI20StreamManagerPrivate15ISGetPropertiesEPKc
libindidriver.so.2:_ZN4INDI20StreamManagerPrivate16updatePropertiesEv
libindidriver.so.2:_ZN4INDI20StreamManagerPrivate17asyncStreamThreadEv
libindidriver.so.2:_ZN4INDI20StreamManagerPrivate21updateSourceFrameInfoEv
libindidriver.so.2:_ZN4INDI20StreamManagerPrivate6expandERKNSt7__cxx1112basic_stringIcSt11char_traitsIcESaIcEEERKSt3mapIS6_S6_St4lessIS6_ESaISt4pairIS7_S6_EEE
libindidriver.so.2:_ZN4INDI20StreamManagerPrivate7setSizeEtt
libindidriver.so.2:_ZN4INDI20StreamManagerPrivate8newFrameEPKhjm
libindidriver.so.2:_ZN4INDI20StreamManagerPrivate8subframeEPKhRKNS0_9FrameInfoEPhS5_
libindidriver.so.2:_ZN4INDI20StreamManagerPrivate9ISNewTextEPKcS2_PPcS4_i
libindidriver.so.2:_ZN4INDI20StreamManagerPrivate9setStreamEb
libindidriver.so.2:_ZN4INDI20StreamManagerPrivateC1EPNS_13DefaultDeviceE
libindidriver.so.2:_ZN4INDI20StreamManagerPrivateC2EPNS_13DefaultDeviceE
libindidriver.so.2:_ZN4INDI20StreamManagerPrivateD0Ev
libindidriver.so.2:_ZN4INDI20StreamManagerPrivateD1Ev
libindidriver.so.2:_ZN4INDI20StreamManagerPrivateD2Ev
libindidriver.so.2:_ZN4INDI20regex_replace_compatERKNSt7__cxx1112basic_stringIcSt11char_traitsIcESaIcEEES7_S7_
libindidriver.so.2:_ZN4INDI21PropertyNumberPrivateC1Em
libindidriver.so.2:_ZN4INDI21PropertyNumberPrivateC2Em
libindidriver.so.2:_ZN4INDI21PropertyNumberPrivateD0Ev
libindidriver.so.2:_ZN4INDI21PropertyNumberPrivateD1Ev
libindidriver.so.2:_ZN4INDI21PropertyNumberPrivateD2Ev
libindidriver.so.2:_ZN4INDI21PropertySwitchPrivateC1Em
libindidriver.so.2:_ZN4INDI21PropertySwitchPrivateC2Em
libindidriver.so.2:_ZN4INDI21PropertySwitchPrivateD0Ev
libindidriver.so.2:_ZN4INDI21PropertySwitchPrivateD1Ev
libindidriver.so.2:_ZN4INDI21PropertySwitchPrivateD2Ev
libindidriver.so.2:_ZN4INDI21regex_replace_compat2ERKNSt7__cxx1112basic_stringIcSt11char_traitsIcESaIcEEES7_S7_
libindidriver.so.2:_ZN4INDI22EquatorialToHorizontalEPNS_22IEquatorialCoordinatesEPNS_22IGeographicCoordinatesEdPNS_22IHorizontalCoordinatesE
libindidriver.so.2:_ZN4INDI22HorizontalToEquatorialEPNS_22IHorizontalCoordinatesEPNS_22IGeographicCoordinatesEdPNS_22IEquatorialCoordinatesE
libindidriver.so.2:_ZN4INDI23SingleThreadPoolPrivateC1Ev
libindidriver.so.2:_ZN4INDI23SingleThreadPoolPrivateC2Ev
libindidriver.so.2:_ZN4INDI23SingleThreadPoolPrivateD0Ev
libindidriver.so.2:_ZN4INDI23SingleThreadPoolPrivateD1Ev
libindidriver.so.2:_ZN4INDI23SingleThreadPoolPrivateD2Ev
libindidriver.so.2:_ZN4INDI2SP10CONNECTIONE
libindidriver.so.2:_ZN4INDI2SP11DEVICE_PORTE
libindidriver.so.2:_ZN4INDI2SP14DEVICE_ADDRESSE
libindidriver.so.2:_ZN4INDI2SP16DEVICE_BAUD_RATEE
libindidriver.so.2:_ZN4INDI2SP17DEVICE_LAN_SEARCHE
libindidriver.so.2:_ZN4INDI2SP18DEVICE_AUTO_SEARCHE
libindidriver.so.2:_ZN4INDI3CCD10GuideNorthEj
libindidriver.so.2:_ZN4INDI3CCD10GuideSouthEj
libindidriver.so.2:_ZN4INDI3CCD10uploadFileEPNS_7CCDChipEPKvmbb
libindidriver.so.2:_ZN4INDI3CCD11ISNewNumberEPKcS2_PdPPci
libindidriver.so.2:_ZN4INDI3CCD11ISNewSwitchEPKcS2_P7ISStatePPci
libindidriver.so.2:_ZN4INDI3CCD12SetCCDParamsEiiiff
libindidriver.so.2:_ZN4INDI3CCD12UpdateCCDBinEii
libindidriver.so.2:_ZN4INDI3CCD12getFileIndexERKNSt7__cxx1112basic_stringIcSt11char_traitsIcESaIcEEES8_S8_
libindidriver.so.2:_ZN4INDI3CCD13AbortExposureEv
libindidriver.so.2:_ZN4INDI3CCD13GuideCompleteE12INDI_EQ_AXIS
libindidriver.so.2:_ZN4INDI3CCD13ISSnoopDeviceEP8xml_ele_
libindidriver.so.2:_ZN4INDI3CCD13StartExposureEf
libindidriver.so.2:_ZN4INDI3CCD13StopStreamingEv
libindidriver.so.2:_ZN4INDI3CCD14SetTemperatureEd
libindidriver.so.2:_ZN4INDI3CCD14StartStreamingEv
libindidriver.so.2:_ZN4INDI3CCD14UpdateCCDFrameEiiii
libindidriver.so.2:_ZN4INDI3CCD14initPropertiesEv
libindidriver.so.2:_ZN4INDI3CCD15ISGetPropertiesEPKc
libindidriver.so.2:_ZN4INDI3CCD15SetGuiderParamsEiiiff
libindidriver.so.2:_ZN4INDI3CCD15UpdateGuiderBinEii
libindidriver.so.2:_ZN4INDI3CCD15addFITSKeywordsEPNS_7CCDChipERSt6vectorINS_10FITSRecordESaIS4_EE
libindidriver.so.2:_ZN4INDI3CCD15saveConfigItemsEP8_IO_FILE
libindidriver.so.2:_ZN4INDI3CCD16ExposureCompleteEPNS_7CCDChipE
libindidriver.so.2:_ZN4INDI3CCD16SetCCDCapabilityEj
libindidriver.so.2:_ZN4INDI3CCD16SetCaptureFormatEh
libindidriver.so.2:_ZN4INDI3CCD16addCaptureFormatERKNS0_13CaptureFormatE
libindidriver.so.2:_ZN4INDI3CCD16updatePropertiesEv
libindidriver.so.2:_ZN4INDI3CCD17UpdateGuiderFrameEiiii
libindidriver.so.2:_ZN4INDI3CCD17fits_update_key_sEP8fitsfileiNSt7__cxx1112basic_stringIcSt11char_traitsIcESaIcEEEPvS8_Pi
libindidriver.so.2:_ZN4INDI3CCD18AbortGuideExposureEv
libindidriver.so.2:_ZN4INDI3CCD18StartGuideExposureEf
libindidriver.so.2:_ZN4INDI3CCD18UpdateCCDFrameTypeENS_7CCDChip9CCD_FRAMEE
libindidriver.so.2:_ZN4INDI3CCD19processFastExposureEPNS_7CCDChipE
libindidriver.so.2:_ZN4INDI3CCD21UpdateGuiderFrameTypeENS_7CCDChip9CCD_FRAMEE
libindidriver.so.2:_ZN4INDI3CCD22checkTemperatureTargetEv
libindidriver.so.2:_ZN4INDI3CCD23ExposureCompletePrivateEPNS_7CCDChipE
libindidriver.so.2:_ZN4INDI3CCD9GuideEastEj
libindidriver.so.2:_ZN4INDI3CCD9GuideWestEj
libindidriver.so.2:_ZN4INDI3CCD9ISNewBLOBEPKcS2_PiS3_PPcS5_S5_i
libindidriver.so.2:_ZN4INDI3CCD9ISNewTextEPKcS2_PPcS4_i
libindidriver.so.2:_ZN4INDI3CCD9getMinMaxEPdS1_PNS_7CCDChipE
libindidriver.so.2:_ZN4INDI3CCDC1Ev
libindidriver.so.2:_ZN4INDI3CCDC2Ev
libindidriver.so.2:_ZN4INDI3CCDD0Ev
libindidriver.so.2:_ZN4INDI3CCDD1Ev
libindidriver.so.2:_ZN4INDI3CCDD2Ev
libindidriver.so.2:_ZN4INDI3GPS11ISNewNumberEPKcS2_PdPPci
libindidriver.so.2:_ZN4INDI3GPS11ISNewSwitchEPKcS2_P7ISStatePPci
libindidriver.so.2:_ZN4INDI3GPS14initPropertiesEv
libindidriver.so.2:_ZN4INDI3GPS15saveConfigItemsEP8_IO_FILE
libindidriver.so.2:_ZN4INDI3GPS16updatePropertiesEv
libindidriver.so.2:_ZN4INDI3GPSC1Ev
libindidriver.so.2:_ZN4INDI3GPSC2Ev
libindidriver.so.2:_ZN4INDI3IMU11ISNewNumberEPKcS2_PdPPci
libindidriver.so.2:_ZN4INDI3IMU11ISNewSwitchEPKcS2_P7ISStatePPci
libindidriver.so.2:_ZN4INDI3IMU12SetPowerModeERKNSt7__cxx1112basic_stringIcSt11char_traitsIcESaIcEEE
libindidriver.so.2:_ZN4INDI3IMU13SetDeviceInfoERKNSt7__cxx1112basic_stringIcSt11char_traitsIcESaIcEEES8_S8_
libindidriver.so.2:_ZN4INDI3IMU13SetUpdateRateEd
libindidriver.so.2:_ZN4INDI3IMU13callHandshakeEv
libindidriver.so.2:_ZN4INDI3IMU14SetTemperatureEd
libindidriver.so.2:_ZN4INDI3IMU14initPropertiesEv
libindidriver.so.2:_ZN4INDI3IMU15SetAngularUnitsEb
libindidriver.so.2:_ZN4INDI3IMU15saveConfigItemsEP8_IO_FILE
libindidriver.so.2:_ZN4INDI3IMU16ResetCalibrationEv
libindidriver.so.2:_ZN4INDI3IMU16SetDistanceUnitsEb
libindidriver.so.2:_ZN4INDI3IMU16SetGyroscopeDataEddd
libindidriver.so.2:_ZN4INDI3IMU16SetOperationModeERKNSt7__cxx1112basic_stringIcSt11char_traitsIcESaIcEEE
libindidriver.so.2:_ZN4INDI3IMU16StartCalibrationEv
libindidriver.so.2:_ZN4INDI3IMU16updatePropertiesEv
libindidriver.so.2:_ZN4INDI3IMU17EulerToQuaternionEdddRdS1_S1_S1_
libindidriver.so.2:_ZN4INDI3IMU17QuaternionToEulerEddddRdS1_S1_
libindidriver.so.2:_ZN4INDI3IMU18SetOrientationDataEdddd
libindidriver.so.2:_ZN4INDI3IMU19LoadCalibrationDataEv
libindidriver.so.2:_ZN4INDI3IMU19SaveCalibrationDataEv
libindidriver.so.2:_ZN4INDI3IMU19SetAccelerationDataEddd
libindidriver.so.2:_ZN4INDI3IMU19SetMagnetometerDataEddd
libindidriver.so.2:_ZN4INDI3IMU20SetCalibrationStatusEiiii
libindidriver.so.2:_ZN4INDI3IMU20recreateFusionFilterEv
libindidriver.so.2:_ZN4INDI3IMU22SetStabilityMonitoringEdd
libindidriver.so.2:_ZN4INDI3IMU23setSupportedConnectionsERKh
libindidriver.so.2:_ZN4INDI3IMU27RecalculateAstroCoordinatesEv
libindidriver.so.2:_ZN4INDI3IMU9HandshakeEv
libindidriver.so.2:_ZN4INDI3IMU9ISNewTextEPKcS2_PPcS4_i
libindidriver.so.2:_ZN4INDI3IMUC1Ev
libindidriver.so.2:_ZN4INDI3IMUC2Ev
libindidriver.so.2:_ZN4INDI3IMUD0Ev
libindidriver.so.2:_ZN4INDI3IMUD1Ev
libindidriver.so.2:_ZN4INDI3IMUD2Ev
libindidriver.so.2:_ZN4INDI4Dome11GetTargetAzERdS1_S1_S1_
libindidriver.so.2:_ZN4INDI4Dome11ISNewNumberEPKcS2_PdPPci
libindidriver.so.2:_ZN4INDI4Dome11ISNewSwitchEPKcS2_P7ISStatePPci
libindidriver.so.2:_ZN4INDI4Dome11LoadParkXMLEv
libindidriver.so.2:_ZN4INDI4Dome11SetBacklashEi
libindidriver.so.2:_ZN4INDI4Dome12CheckHorizonEddd
libindidriver.so.2:_ZN4INDI4Dome12GetAxis1ParkEv
libindidriver.so.2:_ZN4INDI4Dome12IntersectionE7point3DS1_dRdS2_
libindidriver.so.2:_ZN4INDI4Dome12LoadParkDataEv
libindidriver.so.2:_ZN4INDI4Dome12SetAxis1ParkEd
libindidriver.so.2:_ZN4INDI4Dome12buttonHelperEPKc7ISStatePv
libindidriver.so.2:_ZN4INDI4Dome12setDomeStateERKNS0_9DomeStateE
libindidriver.so.2:_ZN4INDI4Dome12triggerSnoopEPKcS2_
libindidriver.so.2:_ZN4INDI4Dome13ISSnoopDeviceEP8xml_ele_
libindidriver.so.2:_ZN4INDI4Dome13OpticalCenterE7point3DdddRS1_
libindidriver.so.2:_ZN4INDI4Dome13OpticalVectorEddR7point3D
libindidriver.so.2:_ZN4INDI4Dome13WriteParkDataEv
libindidriver.so.2:_ZN4INDI4Dome13callHandshakeEv
libindidriver.so.2:_ZN4INDI4Dome13processButtonEPKc7ISState
libindidriver.so.2:_ZN4INDI4Dome14ControlShutterENS0_16ShutterOperationE
libindidriver.so.2:_ZN4INDI4Dome14SetCurrentParkEv
libindidriver.so.2:_ZN4INDI4Dome14SetDefaultParkEv
libindidriver.so.2:_ZN4INDI4Dome14SyncParkStatusEb
libindidriver.so.2:_ZN4INDI4Dome14UpdateAutoSyncEv
libindidriver.so.2:_ZN4INDI4Dome14initPropertiesEv
libindidriver.so.2:_ZN4INDI4Dome15ISGetPropertiesEPKc
libindidriver.so.2:_ZN4INDI4Dome15SetParkDataTypeENS0_12DomeParkDataE
libindidriver.so.2:_ZN4INDI4Dome15saveConfigItemsEP8_IO_FILE
libindidriver.so.2:_ZN4INDI4Dome15setShutterStateERKNS0_12ShutterStateE
libindidriver.so.2:_ZN4INDI4Dome16updatePropertiesEv
libindidriver.so.2:_ZN4INDI4Dome17SetDomeCapabilityEj
libindidriver.so.2:_ZN4INDI4Dome17UpdateMountCoordsEv
libindidriver.so.2:_ZN4INDI4Dome17setDomeConnectionERKh
libindidriver.so.2:_ZN4INDI4Dome18SetBacklashEnabledEb
libindidriver.so.2:_ZN4INDI4Dome19GetAxis1ParkDefaultEv
libindidriver.so.2:_ZN4INDI4Dome19SetAxis1ParkDefaultEd
libindidriver.so.2:_ZN4INDI4Dome22GetShutterStatusStringENS0_12ShutterStateE
libindidriver.so.2:_ZN4INDI4Dome3CscEd
libindidriver.so.2:_ZN4INDI4Dome3SecEd
libindidriver.so.2:_ZN4INDI4Dome4MoveENS0_13DomeDirectionENS0_17DomeMotionCommandE
libindidriver.so.2:_ZN4INDI4Dome4ParkEv
libindidriver.so.2:_ZN4INDI4Dome4SyncEd
libindidriver.so.2:_ZN4INDI4Dome5AbortEv
libindidriver.so.2:_ZN4INDI4Dome6UnParkEv
libindidriver.so.2:_ZN4INDI4Dome7MoveAbsEd
libindidriver.so.2:_ZN4INDI4Dome7MoveRelEd
libindidriver.so.2:_ZN4INDI4Dome8InitParkEv
libindidriver.so.2:_ZN4INDI4Dome8SetSpeedEd
libindidriver.so.2:_ZN4INDI4Dome8isLockedEv
libindidriver.so.2:_ZN4INDI4Dome8isParkedEv
libindidriver.so.2:_ZN4INDI4Dome9HandshakeEv
libindidriver.so.2:_ZN4INDI4Dome9ISNewTextEPKcS2_PPcS4_i
libindidriver.so.2:_ZN4INDI4Dome9SetParkedEb
libindidriver.so.2:_ZN4INDI4DomeC1Ev
libindidriver.so.2:_ZN4INDI4DomeC2Ev
libindidriver.so.2:_ZN4INDI4DomeD0Ev
libindidriver.so.2:_ZN4INDI4DomeD1Ev
libindidriver.so.2:_ZN4INDI4DomeD2Ev
libindidriver.so.2:_ZN4INDI5Timer10singleShotEiRKSt8functionIFvvEE
libindidriver.so.2:_ZN4INDI5Timer11setIntervalEi
libindidriver.so.2:_ZN4INDI5Timer13callOnTimeoutERKSt8functionIFvvEE
libindidriver.so.2:_ZN4INDI5Timer13setSingleShotEb
libindidriver.so.2:_ZN4INDI5Timer4stopEv
libindidriver.so.2:_ZN4INDI5Timer5startEi
libindidriver.so.2:_ZN4INDI5Timer5startEv
libindidriver.so.2:_ZN4INDI5Timer7timeoutEv
libindidriver.so.2:_ZN4INDI5TimerC1ERNS_12TimerPrivateE
libindidriver.so.2:_ZN4INDI5TimerC1Ev
libindidriver.so.2:_ZN4INDI5TimerC2ERNS_12TimerPrivateE
libindidriver.so.2:_ZN4INDI5TimerC2Ev
libindidriver.so.2:_ZN4INDI5TimerD0Ev
libindidriver.so.2:_ZN4INDI5TimerD1Ev
libindidriver.so.2:_ZN4INDI5TimerD2Ev
libindidriver.so.2:_ZN4INDI5mkdirEPKcj
libindidriver.so.2:_ZN4INDI6Logger11DebugLevelSE
libindidriver.so.2:_ZN4INDI6Logger11ISNewSwitchEPKcS2_P7ISStatePPci
libindidriver.so.2:_ZN4INDI6Logger11customLevelE
libindidriver.so.2:_ZN4INDI6Logger11getInstanceEv
libindidriver.so.2:_ZN4INDI6Logger12DebugLevelSPE
libindidriver.so.2:_ZN4INDI6Logger12parentDeviceE
libindidriver.so.2:_ZN4INDI6Logger13LoggingLevelSE
libindidriver.so.2:_ZN4INDI6Logger13addDebugLevelEPKcS2_
libindidriver.so.2:_ZN4INDI6Logger14ConfigurationSE
libindidriver.so.2:_ZN4INDI6Logger14LoggingLevelSPE
libindidriver.so.2:_ZN4INDI6Logger14configuration_E
libindidriver.so.2:_ZN4INDI6Logger14initPropertiesEPNS_13DefaultDeviceE
libindidriver.so.2:_ZN4INDI6Logger15ConfigurationSPE
libindidriver.so.2:_ZN4INDI6Logger15DebugLevelSInitE
libindidriver.so.2:_ZN4INDI6Logger15saveConfigItemsEP8_IO_FILE
libindidriver.so.2:_ZN4INDI6Logger16updatePropertiesEb
libindidriver.so.2:_ZN4INDI6Logger17LoggingLevelSInitE
libindidriver.so.2:_ZN4INDI6Logger19fileVerbosityLevel_E
libindidriver.so.2:_ZN4INDI6Logger20rememberscreenlevel_E
libindidriver.so.2:_ZN4INDI6Logger21screenVerbosityLevel_E
libindidriver.so.2:_ZN4INDI6Logger2m_E
libindidriver.so.2:_ZN4INDI6Logger4TagsE
libindidriver.so.2:_ZN4INDI6Logger4rankEj
libindidriver.so.2:_ZN4INDI6Logger5printEPKcjRKNSt7__cxx1112basic_stringIcSt11char_traitsIcESaIcEEEiS2_z
libindidriver.so.2:_ZN4INDI6Logger7logDir_B5cxx11E
libindidriver.so.2:_ZN4INDI6Logger8logFile_B5cxx11E
libindidriver.so.2:_ZN4INDI6Logger8nDevicesE
libindidriver.so.2:_ZN4INDI6Logger9configureERKNSt7__cxx1112basic_stringIcSt11char_traitsIcESaIcEEENS0_11loggerConf_Eii
libindidriver.so.2:_ZN4INDI6LoggerC1Ev
libindidriver.so.2:_ZN4INDI6LoggerC2Ev
libindidriver.so.2:_ZN4INDI6LoggerD1Ev
libindidriver.so.2:_ZN4INDI6LoggerD2Ev
libindidriver.so.2:_ZN4INDI6mkpathENSt7__cxx1112basic_stringIcSt11char_traitsIcESaIcEEEj
libindidriver.so.2:_ZN4INDI7CCDChip12openFITSFileEjRi
libindidriver.so.2:_ZN4INDI7CCDChip12setFrameTypeENS0_9CCD_FRAMEE
libindidriver.so.2:_ZN4INDI7CCDChip12setPixelSizeEdd
libindidriver.so.2:_ZN4INDI7CCDChip13binBayerFrameEv
libindidriver.so.2:_ZN4INDI7CCDChip13closeFITSFileEv
libindidriver.so.2:_ZN4INDI7CCDChip13setMinMaxStepEPKcS2_dddb
libindidriver.so.2:_ZN4INDI7CCDChip13setResolutionEjj
libindidriver.so.2:_ZN4INDI7CCDChip14finishFITSFileERi
libindidriver.so.2:_ZN4INDI7CCDChip15setExposureLeftEd
libindidriver.so.2:_ZN4INDI7CCDChip16getFrameTypeNameENS0_9CCD_FRAMEE
libindidriver.so.2:_ZN4INDI7CCDChip17setExposureFailedEv
libindidriver.so.2:_ZN4INDI7CCDChip17setImageExtensionEPKc
libindidriver.so.2:_ZN4INDI7CCDChip18setFrameBufferSizeEjb
libindidriver.so.2:_ZN4INDI7CCDChip19setExposureCompleteEv
libindidriver.so.2:_ZN4INDI7CCDChip19setExposureDurationEd
libindidriver.so.2:_ZN4INDI7CCDChip20getExposureStartTimeEv
libindidriver.so.2:_ZN4INDI7CCDChip6setBPPEh
libindidriver.so.2:_ZN4INDI7CCDChip6setBinEhh
libindidriver.so.2:_ZN4INDI7CCDChip8binFrameEv
libindidriver.so.2:_ZN4INDI7CCDChip8setFrameEjjjj
libindidriver.so.2:_ZN4INDI7CCDChip8setNAxisEi
libindidriver.so.2:_ZN4INDI7CCDChipC1Ev
libindidriver.so.2:_ZN4INDI7CCDChipC2Ev
libindidriver.so.2:_ZN4INDI7CCDChipD1Ev
libindidriver.so.2:_ZN4INDI7CCDChipD2Ev
libindidriver.so.2:_ZN4INDI7Focuser11ISNewNumberEPKcS2_PdPPci
libindidriver.so.2:_ZN4INDI7Focuser11ISNewSwitchEPKcS2_P7ISStatePPci
libindidriver.so.2:_ZN4INDI7Focuser11SyncPresetsEj
libindidriver.so.2:_ZN4INDI7Focuser12buttonHelperEPKc7ISStatePv
libindidriver.so.2:_ZN4INDI7Focuser13ISSnoopDeviceEP8xml_ele_
libindidriver.so.2:_ZN4INDI7Focuser13callHandshakeEv
libindidriver.so.2:_ZN4INDI7Focuser13processButtonEPKc7ISState
libindidriver.so.2:_ZN4INDI7Focuser14initPropertiesEv
libindidriver.so.2:_ZN4INDI7Focuser15ISGetPropertiesEPKc
libindidriver.so.2:_ZN4INDI7Focuser15saveConfigItemsEP8_IO_FILE
libindidriver.so.2:_ZN4INDI7Focuser16updatePropertiesEv
libindidriver.so.2:_ZN4INDI7Focuser21SetFocuserMaxPositionEj
libindidriver.so.2:_ZN4INDI7Focuser23setSupportedConnectionsERKh
libindidriver.so.2:_ZN4INDI7Focuser9HandshakeEv
libindidriver.so.2:_ZN4INDI7Focuser9ISNewTextEPKcS2_PPcS4_i
libindidriver.so.2:_ZN4INDI7FocuserC1Ev
libindidriver.so.2:_ZN4INDI7FocuserC2Ev
libindidriver.so.2:_ZN4INDI7FocuserD0Ev
libindidriver.so.2:_ZN4INDI7FocuserD1Ev
libindidriver.so.2:_ZN4INDI7FocuserD2Ev
libindidriver.so.2:_ZN4INDI7Rotator11ISNewNumberEPKcS2_PdPPci
libindidriver.so.2:_ZN4INDI7Rotator11ISNewSwitchEPKcS2_P7ISStatePPci
libindidriver.so.2:_ZN4INDI7Rotator13callHandshakeEv
libindidriver.so.2:_ZN4INDI7Rotator14initPropertiesEv
libindidriver.so.2:_ZN4INDI7Rotator15ISGetPropertiesEPKc
libindidriver.so.2:_ZN4INDI7Rotator15saveConfigItemsEP8_IO_FILE
libindidriver.so.2:_ZN4INDI7Rotator16updatePropertiesEv
libindidriver.so.2:_ZN4INDI7Rotator20setRotatorConnectionERKh
libindidriver.so.2:_ZN4INDI7Rotator9HandshakeEv
libindidriver.so.2:_ZN4INDI7RotatorC1Ev
libindidriver.so.2:_ZN4INDI7RotatorC2Ev
libindidriver.so.2:_ZN4INDI7RotatorD0Ev
libindidriver.so.2:_ZN4INDI7RotatorD1Ev
libindidriver.so.2:_ZN4INDI7RotatorD2Ev
libindidriver.so.2:_ZN4INDI7Weather11ISNewNumberEPKcS2_PdPPci
libindidriver.so.2:_ZN4INDI7Weather11ISNewSwitchEPKcS2_P7ISStatePPci
libindidriver.so.2:_ZN4INDI7Weather13ISSnoopDeviceEP8xml_ele_
libindidriver.so.2:_ZN4INDI7Weather13callHandshakeEv
libindidriver.so.2:_ZN4INDI7Weather14initPropertiesEv
libindidriver.so.2:_ZN4INDI7Weather14updateLocationEddd
libindidriver.so.2:_ZN4INDI7Weather15ISGetPropertiesEPKc
libindidriver.so.2:_ZN4INDI7Weather15saveConfigItemsEP8_IO_FILE
libindidriver.so.2:_ZN4INDI7Weather16updatePropertiesEv
libindidriver.so.2:_ZN4INDI7Weather19processLocationInfoEddd
libindidriver.so.2:_ZN4INDI7Weather20setWeatherConnectionERKh
libindidriver.so.2:_ZN4INDI7Weather9HandshakeEv
libindidriver.so.2:_ZN4INDI7Weather9ISNewTextEPKcS2_PPcS4_i
libindidriver.so.2:_ZN4INDI7WeatherC1Ev
libindidriver.so.2:_ZN4INDI7WeatherC2Ev
libindidriver.so.2:_ZN4INDI8Detector11ISNewNumberEPKcS2_PdPPci
libindidriver.so.2:_ZN4INDI8Detector11ISNewSwitchEPKcS2_P7ISStatePPci
libindidriver.so.2:_ZN4INDI8Detector13ISSnoopDeviceEP8xml_ele_
libindidriver.so.2:_ZN4INDI8Detector13setMinMaxStepEPKcS2_dddb
libindidriver.so.2:_ZN4INDI8Detector13setResolutionEd
libindidriver.so.2:_ZN4INDI8Detector14initPropertiesEv
libindidriver.so.2:_ZN4INDI8Detector15ISGetPropertiesEPKc
libindidriver.so.2:_ZN4INDI8Detector15addFITSKeywordsEP8fitsfilePhi
libindidriver.so.2:_ZN4INDI8Detector15setTriggerLevelEd
libindidriver.so.2:_ZN4INDI8Detector16StartIntegrationEd
libindidriver.so.2:_ZN4INDI8Detector16updatePropertiesEv
libindidriver.so.2:_ZN4INDI8Detector21SetDetectorCapabilityEj
libindidriver.so.2:_ZN4INDI8Detector9ISNewBLOBEPKcS2_PiS3_PPcS5_S5_i
libindidriver.so.2:_ZN4INDI8Detector9ISNewTextEPKcS2_PPcS4_i
libindidriver.so.2:_ZN4INDI8DetectorC1Ev
libindidriver.so.2:_ZN4INDI8DetectorC2Ev
libindidriver.so.2:_ZN4INDI8DetectorD0Ev
libindidriver.so.2:_ZN4INDI8DetectorD1Ev
libindidriver.so.2:_ZN4INDI8DetectorD2Ev
libindidriver.so.2:_ZN4INDI8FPSMeter13setTimeWindowEd
libindidriver.so.2:_ZN4INDI8FPSMeter5resetEv
libindidriver.so.2:_ZN4INDI8FPSMeter8newFrameEv
libindidriver.so.2:_ZN4INDI8FPSMeterC1Ed
libindidriver.so.2:_ZN4INDI8FPSMeterC2Ed
libindidriver.so.2:_ZN4INDI8Property10emitUpdateEv
libindidriver.so.2:_ZN4INDI8Property10setDynamicEb
libindidriver.so.2:_ZN4INDI8Property10setTimeoutEd
libindidriver.so.2:_ZN4INDI8Property11setPropertyEPv
libindidriver.so.2:_ZN4INDI8Property12setGroupNameEPKc
libindidriver.so.2:_ZN4INDI8Property12setTimestampEPKc
libindidriver.so.2:_ZN4INDI8Property13setBaseDeviceENS_10BaseDeviceE
libindidriver.so.2:_ZN4INDI8Property13setBaseDeviceEPNS_10BaseDeviceE
libindidriver.so.2:_ZN4INDI8Property13setDeviceNameEPKc
libindidriver.so.2:_ZN4INDI8Property13setPermissionE5IPerm
libindidriver.so.2:_ZN4INDI8Property13setRegisteredEb
libindidriver.so.2:_ZN4INDI8Property4loadEv
libindidriver.so.2:_ZN4INDI8Property4selfEv
libindidriver.so.2:_ZN4INDI8Property7setNameEPKc
libindidriver.so.2:_ZN4INDI8Property7setTypeE18INDI_PROPERTY_TYPE
libindidriver.so.2:_ZN4INDI8Property8onUpdateERKSt8functionIFvvEE
libindidriver.so.2:_ZN4INDI8Property8setLabelEPKc
libindidriver.so.2:_ZN4INDI8Property8setStateE7IPState
libindidriver.so.2:_ZN4INDI8PropertyC1ENS_12PropertyBlobE
libindidriver.so.2:_ZN4INDI8PropertyC1ENS_12PropertyTextE
libindidriver.so.2:_ZN4INDI8PropertyC1ENS_13PropertyLightE
libindidriver.so.2:_ZN4INDI8PropertyC1ENS_14PropertyNumberE
libindidriver.so.2:_ZN4INDI8PropertyC1ENS_14PropertySwitchE
libindidriver.so.2:_ZN4INDI8PropertyC1EP20_IBLOBVectorProperty
libindidriver.so.2:_ZN4INDI8PropertyC1EP20_ITextVectorProperty
libindidriver.so.2:_ZN4INDI8PropertyC1EP21_ILightVectorProperty
libindidriver.so.2:_ZN4INDI8PropertyC1EP22_INumberVectorProperty
libindidriver.so.2:_ZN4INDI8PropertyC1EP22_ISwitchVectorProperty
libindidriver.so.2:_ZN4INDI8PropertyC1EPNS_12PropertyViewI6_IBLOBEE
libindidriver.so.2:_ZN4INDI8PropertyC1EPNS_12PropertyViewI6_ITextEE
libindidriver.so.2:_ZN4INDI8PropertyC1EPNS_12PropertyViewI7_ILightEE
libindidriver.so.2:_ZN4INDI8PropertyC1EPNS_12PropertyViewI8_INumberEE
libindidriver.so.2:_ZN4INDI8PropertyC1EPNS_12PropertyViewI8_ISwitchEE
libindidriver.so.2:_ZN4INDI8PropertyC1ERKSt10shared_ptrINS_15PropertyPrivateEE
libindidriver.so.2:_ZN4INDI8PropertyC1ERNS_15PropertyPrivateE
libindidriver.so.2:_ZN4INDI8PropertyC1Ev
libindidriver.so.2:_ZN4INDI8PropertyC2ENS_12PropertyBlobE
libindidriver.so.2:_ZN4INDI8PropertyC2ENS_12PropertyTextE
libindidriver.so.2:_ZN4INDI8PropertyC2ENS_13PropertyLightE
libindidriver.so.2:_ZN4INDI8PropertyC2ENS_14PropertyNumberE
libindidriver.so.2:_ZN4INDI8PropertyC2ENS_14PropertySwitchE
libindidriver.so.2:_ZN4INDI8PropertyC2EP20_IBLOBVectorProperty
libindidriver.so.2:_ZN4INDI8PropertyC2EP20_ITextVectorProperty
libindidriver.so.2:_ZN4INDI8PropertyC2EP21_ILightVectorProperty
libindidriver.so.2:_ZN4INDI8PropertyC2EP22_INumberVectorProperty
libindidriver.so.2:_ZN4INDI8PropertyC2EP22_ISwitchVectorProperty
libindidriver.so.2:_ZN4INDI8PropertyC2EPNS_12PropertyViewI6_IBLOBEE
libindidriver.so.2:_ZN4INDI8PropertyC2EPNS_12PropertyViewI6_ITextEE
libindidriver.so.2:_ZN4INDI8PropertyC2EPNS_12PropertyViewI7_ILightEE
libindidriver.so.2:_ZN4INDI8PropertyC2EPNS_12PropertyViewI8_INumberEE
libindidriver.so.2:_ZN4INDI8PropertyC2EPNS_12PropertyViewI8_ISwitchEE
libindidriver.so.2:_ZN4INDI8PropertyC2ERKSt10shared_ptrINS_15PropertyPrivateEE
libindidriver.so.2:_ZN4INDI8PropertyC2ERNS_15PropertyPrivateE
libindidriver.so.2:_ZN4INDI8PropertyC2Ev
libindidriver.so.2:_ZN4INDI8PropertyD1Ev
libindidriver.so.2:_ZN4INDI8PropertyD2Ev
libindidriver.so.2:_ZN4INDI8PropertycvPS0_Ev
libindidriver.so.2:_ZN4INDI8PropertyptEv
libindidriver.so.2:_ZN4INDI8Receiver11ISNewNumberEPKcS2_PdPPci
libindidriver.so.2:_ZN4INDI8Receiver11ISNewSwitchEPKcS2_P7ISStatePPci
libindidriver.so.2:_ZN4INDI8Receiver12setBandwidthEd
libindidriver.so.2:_ZN4INDI8Receiver12setFrequencyEd
libindidriver.so.2:_ZN4INDI8Receiver13ISSnoopDeviceEP8xml_ele_
libindidriver.so.2:_ZN4INDI8Receiver13setMinMaxStepEPKcS2_dddb
libindidriver.so.2:_ZN4INDI8Receiver13setSampleRateEd
libindidriver.so.2:_ZN4INDI8Receiver14initPropertiesEv
libindidriver.so.2:_ZN4INDI8Receiver15ISGetPropertiesEPKc
libindidriver.so.2:_ZN4INDI8Receiver15addFITSKeywordsEP8fitsfilePhi
libindidriver.so.2:_ZN4INDI8Receiver16StartIntegrationEd
libindidriver.so.2:_ZN4INDI8Receiver16updatePropertiesEv
libindidriver.so.2:_ZN4INDI8Receiver21SetReceiverCapabilityEj
libindidriver.so.2:_ZN4INDI8Receiver6setBPSEi
libindidriver.so.2:_ZN4INDI8Receiver7setGainEd
libindidriver.so.2:_ZN4INDI8Receiver9ISNewBLOBEPKcS2_PiS3_PPcS5_S5_i
libindidriver.so.2:_ZN4INDI8Receiver9ISNewTextEPKcS2_PPcS4_i
libindidriver.so.2:_ZN4INDI8ReceiverC1Ev
libindidriver.so.2:_ZN4INDI8ReceiverC2Ev
libindidriver.so.2:_ZN4INDI8ReceiverD0Ev
libindidriver.so.2:_ZN4INDI8ReceiverD1Ev
libindidriver.so.2:_ZN4INDI8ReceiverD2Ev
libindidriver.so.2:_ZN4INDI9Telescope10axisHelperEPKcdPv
libindidriver.so.2:_ZN4INDI9Telescope10updateTimeEP7ln_dated
libindidriver.so.2:_ZN4INDI9Telescope11ISNewNumberEPKcS2_PdPPci
libindidriver.so.2:_ZN4INDI9Telescope11ISNewSwitchEPKcS2_P7ISStatePPci
libindidriver.so.2:_ZN4INDI9Telescope11LoadParkXMLEv
libindidriver.so.2:_ZN4INDI9Telescope11SetSlewRateEi
libindidriver.so.2:_ZN4INDI9Telescope11processAxisEPKcd
libindidriver.so.2:_ZN4INDI9Telescope11processNSWEEdd
libindidriver.so.2:_ZN4INDI9Telescope11setPECStateENS0_17TelescopePECStateE
libindidriver.so.2:_ZN4INDI9Telescope11setPierSideENS0_17TelescopePierSideE
libindidriver.so.2:_ZN4INDI9Telescope12AddTrackModeEPKcS2_b
libindidriver.so.2:_ZN4INDI9Telescope12LoadParkDataEv
libindidriver.so.2:_ZN4INDI9Telescope12SetAxis1ParkEd
libindidriver.so.2:_ZN4INDI9Telescope12SetAxis2ParkEd
libindidriver.so.2:_ZN4INDI9Telescope12SetTrackModeEh
libindidriver.so.2:_ZN4INDI9Telescope12SetTrackRateEdd
libindidriver.so.2:_ZN4INDI9Telescope12buttonHelperEPKc7ISStatePv
libindidriver.so.2:_ZN4INDI9Telescope12triggerSnoopEPKcS2_
libindidriver.so.2:_ZN4INDI9Telescope13ISSnoopDeviceEP8xml_ele_
libindidriver.so.2:_ZN4INDI9Telescope13PurgeParkDataEv
libindidriver.so.2:_ZN4INDI9Telescope13WriteParkDataEv
libindidriver.so.2:_ZN4INDI9Telescope13callHandshakeEv
libindidriver.so.2:_ZN4INDI9Telescope13processButtonEPKc7ISState
libindidriver.so.2:_ZN4INDI9Telescope14SetCurrentParkEv
libindidriver.so.2:_ZN4INDI9Telescope14SetDefaultParkEv
libindidriver.so.2:_ZN4INDI9Telescope14SyncParkStatusEb
libindidriver.so.2:_ZN4INDI9Telescope14getPierSideStrENS0_17TelescopePierSideE
libindidriver.so.2:_ZN4INDI9Telescope14initPropertiesEv
libindidriver.so.2:_ZN4INDI9Telescope14joystickHelperEPKcddPv
libindidriver.so.2:_ZN4INDI9Telescope14updateLocationEddd
libindidriver.so.2:_ZN4INDI9Telescope15ISGetPropertiesEPKc
libindidriver.so.2:_ZN4INDI9Telescope15SetParkDataTypeENS0_17TelescopeParkDataE
libindidriver.so.2:_ZN4INDI9Telescope15SetParkPositionEdd
libindidriver.so.2:_ZN4INDI9Telescope15SetTrackEnabledEb
libindidriver.so.2:_ZN4INDI9Telescope15processJoystickEPKcdd
libindidriver.so.2:_ZN4INDI9Telescope15processTimeInfoEPKcS2_
libindidriver.so.2:_ZN4INDI9Telescope15saveConfigItemsEP8_IO_FILE
libindidriver.so.2:_ZN4INDI9Telescope16expectedPierSideEd
libindidriver.so.2:_ZN4INDI9Telescope16generateCoordSetEv
libindidriver.so.2:_ZN4INDI9Telescope16updatePropertiesEv
libindidriver.so.2:_ZN4INDI9Telescope17ExecuteHomeActionENS0_19TelescopeHomeActionE
libindidriver.so.2:_ZN4INDI9Telescope18processSlewPresetsEdd
libindidriver.so.2:_ZN4INDI9Telescope18sendTimeFromSystemEv
libindidriver.so.2:_ZN4INDI9Telescope19SetAxis1ParkDefaultEd
libindidriver.so.2:_ZN4INDI9Telescope19SetAxis2ParkDefaultEd
libindidriver.so.2:_ZN4INDI9Telescope19processLocationInfoEddd
libindidriver.so.2:_ZN4INDI9Telescope19setSimulatePierSideEb
libindidriver.so.2:_ZN4INDI9Telescope22SetTelescopeCapabilityEjh
libindidriver.so.2:_ZN4INDI9Telescope22setTelescopeConnectionERKh
libindidriver.so.2:_ZN4INDI9Telescope22updateObserverLocationEddd
libindidriver.so.2:_ZN4INDI9Telescope4FlipEdd
libindidriver.so.2:_ZN4INDI9Telescope4GotoEdd
libindidriver.so.2:_ZN4INDI9Telescope4ParkEv
libindidriver.so.2:_ZN4INDI9Telescope4SyncEdd
libindidriver.so.2:_ZN4INDI9Telescope5AbortEv
libindidriver.so.2:_ZN4INDI9Telescope6MoveNSE11INDI_DIR_NSNS0_22TelescopeMotionCommandE
libindidriver.so.2:_ZN4INDI9Telescope6MoveWEE11INDI_DIR_WENS0_22TelescopeMotionCommandE
libindidriver.so.2:_ZN4INDI9Telescope6UnParkEv
libindidriver.so.2:_ZN4INDI9Telescope8InitParkEv
libindidriver.so.2:_ZN4INDI9Telescope8NewRaDecEdd
libindidriver.so.2:_ZN4INDI9Telescope8TimerHitEv
libindidriver.so.2:_ZN4INDI9Telescope8isParkedEv
libindidriver.so.2:_ZN4INDI9Telescope9HandshakeEv
libindidriver.so.2:_ZN4INDI9Telescope9ISNewTextEPKcS2_PPcS4_i
libindidriver.so.2:_ZN4INDI9Telescope9SetParkedEb
libindidriver.so.2:_ZN4INDI9TelescopeC1Ev
libindidriver.so.2:_ZN4INDI9TelescopeC2Ev
libindidriver.so.2:_ZN4INDI9TelescopeD0Ev
libindidriver.so.2:_ZN4INDI9TelescopeD1Ev
libindidriver.so.2:_ZN4INDI9TelescopeD2Ev
libindidriver.so.2:_ZN4INDI9USBDevice10FindDeviceEiii
libindidriver.so.2:_ZN4INDI9USBDevice13FindEndpointsEv
libindidriver.so.2:_ZN4INDI9USBDevice13ReadInterruptEPhii
libindidriver.so.2:_ZN4INDI9USBDevice14ControlMessageEhhjjPhh
libindidriver.so.2:_ZN4INDI9USBDevice14WriteInterruptEPhii
libindidriver.so.2:_ZN4INDI9USBDevice4OpenEv
libindidriver.so.2:_ZN4INDI9USBDevice5CloseEv
libindidriver.so.2:_ZN4INDI9USBDevice8ReadBulkEPhii
libindidriver.so.2:_ZN4INDI9USBDevice9WriteBulkEPhii
libindidriver.so.2:_ZN4INDI9USBDeviceC1Ev
libindidriver.so.2:_ZN4INDI9USBDeviceC2Ev
libindidriver.so.2:_ZN4INDI9USBDeviceD0Ev
libindidriver.so.2:_ZN4INDI9USBDeviceD1Ev
libindidriver.so.2:_ZN4INDI9USBDeviceD2Ev
libindidriver.so.2:_ZN4INDI9V4L2_Base10connectCamEPKcPciii
libindidriver.so.2:_ZN4INDI9V4L2_Base10errno_exitEPKcPc
libindidriver.so.2:_ZN4INDI9V4L2_Base10findMinMaxEv
libindidriver.so.2:_ZN4INDI9V4L2_Base10getControlEjPdPc
libindidriver.so.2:_ZN4INDI9V4L2_Base10getLinearYEv
libindidriver.so.2:_ZN4INDI9V4L2_Base10init_userpEj
libindidriver.so.2:_ZN4INDI9V4L2_Base10query_ctrlEjRdS1_S1_S1_Pc
libindidriver.so.2:_ZN4INDI9V4L2_Base10read_frameEPc
libindidriver.so.2:_ZN4INDI9V4L2_Base11getcroprectEv
libindidriver.so.2:_ZN4INDI9V4L2_Base11init_deviceEPc
libindidriver.so.2:_ZN4INDI9V4L2_Base11open_deviceEPKcPc
libindidriver.so.2:_ZN4INDI9V4L2_Base11setcroprectEiiiiPc
libindidriver.so.2:_ZN4INDI9V4L2_Base12check_deviceEPc
libindidriver.so.2:_ZN4INDI9V4L2_Base12close_deviceEv
libindidriver.so.2:_ZN4INDI9V4L2_Base12getRGBBufferEv
libindidriver.so.2:_ZN4INDI9V4L2_Base13disconnectCamEb
libindidriver.so.2:_ZN4INDI9V4L2_Base13getDeviceNameEv
libindidriver.so.2:_ZN4INDI9V4L2_Base13getMaxMinSizeERiS1_S1_S1_
libindidriver.so.2:_ZN4INDI9V4L2_Base13getframeratesEP22_ISwitchVectorPropertyP22_INumberVectorProperty
libindidriver.so.2:_ZN4INDI9V4L2_Base13queryControlsEP22_INumberVectorPropertyPjPP22_ISwitchVectorPropertyS3_PKcS8_
libindidriver.so.2:_ZN4INDI9V4L2_Base13setDeviceNameEPKc
libindidriver.so.2:_ZN4INDI9V4L2_Base13setINTControlEjdPc
libindidriver.so.2:_ZN4INDI9V4L2_Base13setOPTControlEjjPc
libindidriver.so.2:_ZN4INDI9V4L2_Base13uninit_deviceEPc
libindidriver.so.2:_ZN4INDI9V4L2_Base14enumerate_ctrlEv
libindidriver.so.2:_ZN4INDI9V4L2_Base14enumerate_menuEv
libindidriver.so.2:_ZN4INDI9V4L2_Base14getMJPEGBufferERi
libindidriver.so.2:_ZN4INDI9V4L2_Base14isLXmodCapableEv
libindidriver.so.2:_ZN4INDI9V4L2_Base14setcapturesizeEjjPc
libindidriver.so.2:_ZN4INDI9V4L2_Base14stop_capturingEPc
libindidriver.so.2:_ZN4INDI9V4L2_Base15getcapturesizesEP22_ISwitchVectorPropertyP22_INumberVectorProperty
libindidriver.so.2:_ZN4INDI9V4L2_Base15pwcsetframerateE10v4l2_fractPc
libindidriver.so.2:_ZN4INDI9V4L2_Base15start_capturingEPc
libindidriver.so.2:_ZN4INDI9V4L2_Base15stdgetframerateEv
libindidriver.so.2:_ZN4INDI9V4L2_Base15stdsetframerateE10v4l2_fractPc
libindidriver.so.2:_ZN4INDI9V4L2_Base16ioctl_set_formatE11v4l2_formatPc
libindidriver.so.2:_ZN4INDI9V4L2_Base16queryExtControlsEP22_INumberVectorPropertyPjPP22_ISwitchVectorPropertyS3_PKcS8_
libindidriver.so.2:_ZN4INDI9V4L2_Base16queryINTControlsEP22_INumberVectorProperty
libindidriver.so.2:_ZN4INDI9V4L2_Base16registerCallbackEPFvPvES1_
libindidriver.so.2:_ZN4INDI9V4L2_Base16setcaptureformatEjPc
libindidriver.so.2:_ZN4INDI9V4L2_Base17getcaptureformatsEP22_ISwitchVectorProperty
libindidriver.so.2:_ZN4INDI9V4L2_Base18enumerate_ext_ctrlEv
libindidriver.so.2:_ZN4INDI9V4L2_Base18setColorProcessingEbbb
libindidriver.so.2:_ZN4INDI9V4L2_Base21video_dev_file_selectEPK6dirent
libindidriver.so.2:_ZN4INDI9V4L2_Base4getUEv
libindidriver.so.2:_ZN4INDI9V4L2_Base4getVEv
libindidriver.so.2:_ZN4INDI9V4L2_Base4getYEv
libindidriver.so.2:_ZN4INDI9V4L2_Base6getBppEv
libindidriver.so.2:_ZN4INDI9V4L2_Base6xioctlEiiPvPKc
libindidriver.so.2:_ZN4INDI9V4L2_Base7setSizeEii
libindidriver.so.2:_ZN4INDI9V4L2_Base8doDecodeEb
libindidriver.so.2:_ZN4INDI9V4L2_Base8getWidthEv
libindidriver.so.2:_ZN4INDI9V4L2_Base8newFrameEiPv
libindidriver.so.2:_ZN4INDI9V4L2_Base8setinputEjPc
libindidriver.so.2:_ZN4INDI9V4L2_Base9enumerateB5cxx11Ev
libindidriver.so.2:_ZN4INDI9V4L2_Base9getFormatEv
libindidriver.so.2:_ZN4INDI9V4L2_Base9getHeightEv
libindidriver.so.2:_ZN4INDI9V4L2_Base9getinputsEP22_ISwitchVectorProperty
libindidriver.so.2:_ZN4INDI9V4L2_Base9init_mmapEPc
libindidriver.so.2:_ZN4INDI9V4L2_Base9init_readEj
libindidriver.so.2:_ZN4INDI9V4L2_BaseC1Ev
libindidriver.so.2:_ZN4INDI9V4L2_BaseC2Ev
libindidriver.so.2:_ZN4INDI9V4L2_BaseD0Ev
libindidriver.so.2:_ZN4INDI9V4L2_BaseD1Ev
libindidriver.so.2:_ZN4INDI9V4L2_BaseD2Ev
libindidriver.so.2:_ZN4gmlc5netif21getInterfaceAddressesB5cxx11Ei
libindidriver.so.2:_ZN4gmlc5netif23getInterfaceAddressesV4B5cxx11Ev
libindidriver.so.2:_ZN4gmlc5netif23getInterfaceAddressesV6B5cxx11Ev
libindidriver.so.2:_ZN4gmlc5netif24getInterfaceAddressesAllB5cxx11Ev
libindidriver.so.2:_ZN7PIDImpl5resetEv
libindidriver.so.2:_ZN7PIDImpl9calculateEdd
libindidriver.so.2:_ZN7PIDImplC1Edddddd
libindidriver.so.2:_ZN7PIDImplC2Edddddd
libindidriver.so.2:_ZN7PIDImplD1Ev
libindidriver.so.2:_ZN7PIDImplD2Ev
libindidriver.so.2:_ZN9XMLOutput12putEntityXMLEPKc
libindidriver.so.2:_ZN9XMLOutput6putXMLEP8xml_ele_i
libindidriver.so.2:_ZNK10GammaLut165applyEPKtS1_Ph
libindidriver.so.2:_ZNK10GammaLut165applyEPKtmPh
libindidriver.so.2:_ZNK3PID12integralTermEv
libindidriver.so.2:_ZNK3PID14derivativeTermEv
libindidriver.so.2:_ZNK3PID16proportionalTermEv
libindidriver.so.2:_ZNK3PID8getGainsERdS0_S0_
libindidriver.so.2:_ZNK4INDI10BaseDevice11getMediatorEv
libindidriver.so.2:_ZNK4INDI10BaseDevice11getPropertyEPKc18INDI_PROPERTY_TYPE
libindidriver.so.2:_ZNK4INDI10BaseDevice11isConnectedEv
libindidriver.so.2:_ZNK4INDI10BaseDevice11lastMessageB5cxx11Ev
libindidriver.so.2:_ZNK4INDI10BaseDevice12messageQueueB5cxx11Em
libindidriver.so.2:_ZNK4INDI10BaseDevice13getDeviceNameEv
libindidriver.so.2:_ZNK4INDI10BaseDevice13getDriverExecEv
libindidriver.so.2:_ZNK4INDI10BaseDevice13getDriverNameEv
libindidriver.so.2:_ZNK4INDI10BaseDevice13getPropertiesEv
libindidriver.so.2:_ZNK4INDI10BaseDevice14getRawPropertyEPKc18INDI_PROPERTY_TYPE
libindidriver.so.2:_ZNK4INDI10BaseDevice16getDriverVersionEv
libindidriver.so.2:_ZNK4INDI10BaseDevice16getPropertyStateEPKc
libindidriver.so.2:_ZNK4INDI10BaseDevice17isDeviceNameMatchEPKc
libindidriver.so.2:_ZNK4INDI10BaseDevice17isDeviceNameMatchERKNSt7__cxx1112basic_stringIcSt11char_traitsIcESaIcEEE
libindidriver.so.2:_ZNK4INDI10BaseDevice18getDriverInterfaceEv
libindidriver.so.2:_ZNK4INDI10BaseDevice21getPropertyPermissionEPKc
libindidriver.so.2:_ZNK4INDI10BaseDevice7getBLOBEPKc
libindidriver.so.2:_ZNK4INDI10BaseDevice7getTextEPKc
libindidriver.so.2:_ZNK4INDI10BaseDevice7isValidEv
libindidriver.so.2:_ZNK4INDI10BaseDevice8getLightEPKc
libindidriver.so.2:_ZNK4INDI10BaseDevice9getNumberEPKc
libindidriver.so.2:_ZNK4INDI10BaseDevice9getSwitchEPKc
libindidriver.so.2:_ZNK4INDI10FITSRecord11valueDoubleEv
libindidriver.so.2:_ZNK4INDI10FITSRecord11valueStringB5cxx11Ev
libindidriver.so.2:_ZNK4INDI10FITSRecord3keyB5cxx11Ev
libindidriver.so.2:_ZNK4INDI10FITSRecord4typeEv
libindidriver.so.2:_ZNK4INDI10FITSRecord7commentB5cxx11Ev
libindidriver.so.2:_ZNK4INDI10FITSRecord7decimalEv
libindidriver.so.2:_ZNK4INDI10FITSRecord8valueIntEv
libindidriver.so.2:_ZNK4INDI10Properties2atEm
libindidriver.so.2:_ZNK4INDI10Properties3endEv
libindidriver.so.2:_ZNK4INDI10Properties4backEv
libindidriver.so.2:_ZNK4INDI10Properties4sizeEv
libindidriver.so.2:_ZNK4INDI10Properties5beginEv
libindidriver.so.2:_ZNK4INDI10Properties5frontEv
libindidriver.so.2:_ZNK4INDI10PropertiescvPKS0_Ev
libindidriver.so.2:_ZNK4INDI10PropertiescvPKSt6vectorIPNS_8PropertyESaIS3_EEEv
libindidriver.so.2:_ZNK4INDI10PropertiesdeEv
libindidriver.so.2:_ZNK4INDI10PropertiesixEm
libindidriver.so.2:_ZNK4INDI10PropertiesptEv
libindidriver.so.2:_ZNK4INDI12ElapsedTimer10hasExpiredEl
libindidriver.so.2:_ZNK4INDI12ElapsedTimer12nsecsElapsedEv
libindidriver.so.2:_ZNK4INDI12ElapsedTimer7elapsedEv
libindidriver.so.2:_ZNK4INDI12MahonyFilter13getQuaternionERdS1_S1_S1_
libindidriver.so.2:_ZNK4INDI12PropertyText9isUpdatedEPKPKcS4_i
libindidriver.so.2:_ZNK4INDI12PropertyViewI6_IBLOBE6vapplyEPKcP13__va_list_tag
libindidriver.so.2:_ZNK4INDI12PropertyViewI6_IBLOBE7vdefineEPKcP13__va_list_tag
libindidriver.so.2:_ZNK4INDI12PropertyViewI6_ITextE6vapplyEPKcP13__va_list_tag
libindidriver.so.2:_ZNK4INDI12PropertyViewI6_ITextE7vdefineEPKcP13__va_list_tag
libindidriver.so.2:_ZNK4INDI12PropertyViewI6_ITextE9isUpdatedIS1_Lb1EEEbPKPKcS7_i
libindidriver.so.2:_ZNK4INDI12PropertyViewI7_ILightE6vapplyEPKcP13__va_list_tag
libindidriver.so.2:_ZNK4INDI12PropertyViewI7_ILightE7vdefineEPKcP13__va_list_tag
libindidriver.so.2:_ZNK4INDI12PropertyViewI8_INumberE6vapplyEPKcP13__va_list_tag
libindidriver.so.2:_ZNK4INDI12PropertyViewI8_INumberE7vdefineEPKcP13__va_list_tag
libindidriver.so.2:_ZNK4INDI12PropertyViewI8_INumberE9isUpdatedIS1_Lb1EEEbPKdPKPKci
libindidriver.so.2:_ZNK4INDI12PropertyViewI8_ISwitchE6vapplyEPKcP13__va_list_tag
libindidriver.so.2:_ZNK4INDI12PropertyViewI8_ISwitchE7vdefineEPKcP13__va_list_tag
libindidriver.so.2:_ZNK4INDI12PropertyViewI8_ISwitchE9isUpdatedIS1_Lb1EEEbPK7ISStatePKPKci
libindidriver.so.2:_ZNK4INDI13DefaultDevice12isSimulationEv
libindidriver.so.2:_ZNK4INDI13DefaultDevice15getMajorVersionEv
libindidriver.so.2:_ZNK4INDI13DefaultDevice15getMinorVersionEv
libindidriver.so.2:_ZNK4INDI13DefaultDevice15isConfigLoadingEv
libindidriver.so.2:_ZNK4INDI13DefaultDevice16getPollingPeriodEv
libindidriver.so.2:_ZNK4INDI13DefaultDevice18getDriverInterfaceEv
libindidriver.so.2:_ZNK4INDI13DefaultDevice23getCurrentPollingPeriodEv
libindidriver.so.2:_ZNK4INDI13DefaultDevice23refCurrentPollingPeriodEv
libindidriver.so.2:_ZNK4INDI13DefaultDevice24isInitializationCompleteEv
libindidriver.so.2:_ZNK4INDI13DefaultDevice7isDebugEv
libindidriver.so.2:_ZNK4INDI13StreamManager11getRecorderEv
libindidriver.so.2:_ZNK4INDI13StreamManager11isRecordingEv
libindidriver.so.2:_ZNK4INDI13StreamManager11isStreamingEv
libindidriver.so.2:_ZNK4INDI13StreamManager12getTargetFPSEv
libindidriver.so.2:_ZNK4INDI13StreamManager13getDeviceNameEv
libindidriver.so.2:_ZNK4INDI13StreamManager14getStreamFrameEPtS1_S1_S1_
libindidriver.so.2:_ZNK4INDI13StreamManager17getTargetExposureEv
libindidriver.so.2:_ZNK4INDI13StreamManager17isDirectRecordingEv
libindidriver.so.2:_ZNK4INDI13StreamManager6isBusyEv
libindidriver.so.2:_ZNK4INDI14MadgwickFilter13getQuaternionERdS1_S1_S1_
libindidriver.so.2:_ZNK4INDI14PropertyNumber9isUpdatedEPKdPKPKci
libindidriver.so.2:_ZNK4INDI14PropertySwitch10isSwitchOnERKNSt7__cxx1112basic_stringIcSt11char_traitsIcESaIcEEE
libindidriver.so.2:_ZNK4INDI14PropertySwitch12findOnSwitchEv
libindidriver.so.2:_ZNK4INDI14PropertySwitch15getRuleAsStringEv
libindidriver.so.2:_ZNK4INDI14PropertySwitch16findOnSwitchNameB5cxx11Ev
libindidriver.so.2:_ZNK4INDI14PropertySwitch17findOnSwitchIndexEv
libindidriver.so.2:_ZNK4INDI14PropertySwitch17hasUpdateCallbackEv
libindidriver.so.2:_ZNK4INDI14PropertySwitch7getRuleEv
libindidriver.so.2:_ZNK4INDI14PropertySwitch9isUpdatedEPK7ISStatePKPKci
libindidriver.so.2:_ZNK4INDI15SensorInterface8getNAxisEv
libindidriver.so.2:_ZNK4INDI16WeatherInterface19checkParameterStateERKNSt7__cxx1112basic_stringIcSt11char_traitsIcESaIcEEE
libindidriver.so.2:_ZNK4INDI19WatchDeviceProperty10getDevicesEv
libindidriver.so.2:_ZNK4INDI19WatchDeviceProperty15isDeviceWatchedEPKc
libindidriver.so.2:_ZNK4INDI19WatchDeviceProperty7isEmptyEv
libindidriver.so.2:_ZNK4INDI20StreamManagerPrivate13getDeviceNameEv
libindidriver.so.2:_ZNK4INDI20StreamManagerPrivate14getStreamFrameEPtS1_S1_S1_
libindidriver.so.2:_ZNK4INDI3IMU15isFusionEnabledEv
libindidriver.so.2:_ZNK4INDI4Dome13getMountStateEv
libindidriver.so.2:_ZNK4INDI4Dome16GetHomeDirectoryB5cxx11Ev
libindidriver.so.2:_ZNK4INDI4Dome17getDomeConnectionEv
libindidriver.so.2:_ZNK4INDI5Timer12isSingleShotEv
libindidriver.so.2:_ZNK4INDI5Timer13remainingTimeEv
libindidriver.so.2:_ZNK4INDI5Timer8intervalEv
libindidriver.so.2:_ZNK4INDI5Timer8isActiveEv
libindidriver.so.2:_ZNK4INDI7CCDChip8getNAxisEv
libindidriver.so.2:_ZNK4INDI7Rotator20getRotatorConnectionEv
libindidriver.so.2:_ZNK4INDI7Weather20getWeatherConnectionEv
libindidriver.so.2:_ZNK4INDI8FPSMeter11totalFramesEv
libindidriver.so.2:_ZNK4INDI8FPSMeter15framesPerSecondEv
libindidriver.so.2:_ZNK4INDI8FPSMeter9deltaTimeEv
libindidriver.so.2:_ZNK4INDI8FPSMeter9totalTimeEv
libindidriver.so.2:_ZNK4INDI8Property11getPropertyEv
libindidriver.so.2:_ZNK4INDI8Property11isNameMatchEPKc
libindidriver.so.2:_ZNK4INDI8Property11isNameMatchERKNSt7__cxx1112basic_stringIcSt11char_traitsIcESaIcEEE
libindidriver.so.2:_ZNK4INDI8Property11isTypeMatchE18INDI_PROPERTY_TYPE
libindidriver.so.2:_ZNK4INDI8Property12getGroupNameEv
libindidriver.so.2:_ZNK4INDI8Property12getTimestampEv
libindidriver.so.2:_ZNK4INDI8Property12isLabelMatchEPKc
libindidriver.so.2:_ZNK4INDI8Property12isLabelMatchERKNSt7__cxx1112basic_stringIcSt11char_traitsIcESaIcEEE
libindidriver.so.2:_ZNK4INDI8Property13getBaseDeviceEv
libindidriver.so.2:_ZNK4INDI8Property13getDeviceNameEv
libindidriver.so.2:_ZNK4INDI8Property13getPermissionEv
libindidriver.so.2:_ZNK4INDI8Property13getRegisteredEv
libindidriver.so.2:_ZNK4INDI8Property15getTypeAsStringEv
libindidriver.so.2:_ZNK4INDI8Property16getStateAsStringEv
libindidriver.so.2:_ZNK4INDI8Property17hasUpdateCallbackEv
libindidriver.so.2:_ZNK4INDI8Property17isDeviceNameMatchEPKc
libindidriver.so.2:_ZNK4INDI8Property17isDeviceNameMatchERKNSt7__cxx1112basic_stringIcSt11char_traitsIcESaIcEEE
libindidriver.so.2:_ZNK4INDI8Property4saveEP8_IO_FILE
libindidriver.so.2:_ZNK4INDI8Property5applyEPKcz
libindidriver.so.2:_ZNK4INDI8Property6defineEPKcz
libindidriver.so.2:_ZNK4INDI8Property7getBLOBEv
libindidriver.so.2:_ZNK4INDI8Property7getNameEv
libindidriver.so.2:_ZNK4INDI8Property7getTextEv
libindidriver.so.2:_ZNK4INDI8Property7getTypeEv
libindidriver.so.2:_ZNK4INDI8Property7isEmptyEv
libindidriver.so.2:_ZNK4INDI8Property7isValidEv
libindidriver.so.2:_ZNK4INDI8Property8getLabelEv
libindidriver.so.2:_ZNK4INDI8Property8getLightEv
libindidriver.so.2:_ZNK4INDI8Property8getStateEv
libindidriver.so.2:_ZNK4INDI8Property9getNumberEv
libindidriver.so.2:_ZNK4INDI8Property9getSwitchEv
libindidriver.so.2:_ZNK4INDI8Property9isDynamicEv
libindidriver.so.2:_ZNK4INDI8PropertycvPKS0_Ev
libindidriver.so.2:_ZNK4INDI8PropertyptEv
libindidriver.so.2:_ZNK4INDI9Telescope12GetAxis1ParkEv
libindidriver.so.2:_ZNK4INDI9Telescope12GetAxis2ParkEv
libindidriver.so.2:_ZNK4INDI9Telescope16GetHomeDirectoryB5cxx11Ev
libindidriver.so.2:_ZNK4INDI9Telescope19GetAxis1ParkDefaultEv
libindidriver.so.2:_ZNK4INDI9Telescope19GetAxis2ParkDefaultEv
libindidriver.so.2:_ZNK4INDI9Telescope19getSimulatePierSideEv
libindidriver.so.2:_ZNK4INDI9Telescope22getTelescopeConnectionEv
libindidriver.so.2:_ZNK4INDI9Telescope8isLockedEv
libindidriver.so.2:_ZNK4INDI9Telescope9CheckFileERKNSt7__cxx1112basic_stringIcSt11char_traitsIcESaIcEEEb
libindidriver.so.2:_ZNK4INDI9V4L2_Base13is_compressedEv
libindidriver.so.2:_ZThn24_N4INDI11FilterWheel11QueryFilterEv
libindidriver.so.2:_ZThn24_N4INDI11FilterWheel12SelectFilterEi
libindidriver.so.2:_ZThn24_N4INDI3CCD10GuideNorthEj
libindidriver.so.2:_ZThn24_N4INDI3CCD10GuideSouthEj
libindidriver.so.2:_ZThn24_N4INDI3CCD13GuideCompleteE12INDI_EQ_AXIS
libindidriver.so.2:_ZThn24_N4INDI3CCD9GuideEastEj
libindidriver.so.2:_ZThn24_N4INDI3CCD9GuideWestEj
libindidriver.so.2:_ZThn24_N4INDI3GPS15saveConfigItemsEP8_IO_FILE
libindidriver.so.2:_ZThn24_N4INDI3IMU12SetPowerModeERKNSt7__cxx1112basic_stringIcSt11char_traitsIcESaIcEEE
libindidriver.so.2:_ZThn24_N4INDI3IMU13SetDeviceInfoERKNSt7__cxx1112basic_stringIcSt11char_traitsIcESaIcEEES8_S8_
libindidriver.so.2:_ZThn24_N4INDI3IMU13SetUpdateRateEd
libindidriver.so.2:_ZThn24_N4INDI3IMU14SetTemperatureEd
libindidriver.so.2:_ZThn24_N4INDI3IMU15SetAngularUnitsEb
libindidriver.so.2:_ZThn24_N4INDI3IMU16ResetCalibrationEv
libindidriver.so.2:_ZThn24_N4INDI3IMU16SetDistanceUnitsEb
libindidriver.so.2:_ZThn24_N4INDI3IMU16SetGyroscopeDataEddd
libindidriver.so.2:_ZThn24_N4INDI3IMU16SetOperationModeERKNSt7__cxx1112basic_stringIcSt11char_traitsIcESaIcEEE
libindidriver.so.2:_ZThn24_N4INDI3IMU16StartCalibrationEv
libindidriver.so.2:_ZThn24_N4INDI3IMU18SetOrientationDataEdddd
libindidriver.so.2:_ZThn24_N4INDI3IMU19LoadCalibrationDataEv
libindidriver.so.2:_ZThn24_N4INDI3IMU19SaveCalibrationDataEv
libindidriver.so.2:_ZThn24_N4INDI3IMU19SetAccelerationDataEddd
libindidriver.so.2:_ZThn24_N4INDI3IMU19SetMagnetometerDataEddd
libindidriver.so.2:_ZThn24_N4INDI3IMU20SetCalibrationStatusEiiii
libindidriver.so.2:_ZThn24_N4INDI3IMU22SetStabilityMonitoringEdd
libindidriver.so.2:_ZThn24_N4INDI3IMUD0Ev
libindidriver.so.2:_ZThn24_N4INDI3IMUD1Ev
libindidriver.so.2:_ZThn24_N4INDI7Focuser21SetFocuserMaxPositionEj
libindidriver.so.2:_ZThn24_N4INDI7FocuserD0Ev
libindidriver.so.2:_ZThn24_N4INDI7FocuserD1Ev
libindidriver.so.2:_ZThn24_N4INDI7Weather15saveConfigItemsEP8_IO_FILE
libindidriver.so.2:_ZTv0_n104_N4INDI12Spectrograph9ISNewBLOBEPKcS2_PiS3_PPcS5_S5_i
libindidriver.so.2:_ZTv0_n104_N4INDI8Receiver9ISNewBLOBEPKcS2_PiS3_PPcS5_S5_i
libindidriver.so.2:_ZTv0_n112_N4INDI12Spectrograph13ISSnoopDeviceEP8xml_ele_
libindidriver.so.2:_ZTv0_n112_N4INDI8Receiver13ISSnoopDeviceEP8xml_ele_
libindidriver.so.2:_ZTv0_n184_N4INDI12Spectrograph14initPropertiesEv
libindidriver.so.2:_ZTv0_n184_N4INDI8Receiver14initPropertiesEv
libindidriver.so.2:_ZTv0_n192_N4INDI12Spectrograph16updatePropertiesEv
libindidriver.so.2:_ZTv0_n192_N4INDI8Receiver16updatePropertiesEv
libindidriver.so.2:_ZTv0_n232_N4INDI12Spectrograph13setMinMaxStepEPKcS2_dddb
libindidriver.so.2:_ZTv0_n232_N4INDI8Receiver13setMinMaxStepEPKcS2_dddb
libindidriver.so.2:_ZTv0_n24_N4INDI12SpectrographD0Ev
libindidriver.so.2:_ZTv0_n24_N4INDI12SpectrographD1Ev
libindidriver.so.2:_ZTv0_n24_N4INDI8ReceiverD0Ev
libindidriver.so.2:_ZTv0_n24_N4INDI8ReceiverD1Ev
libindidriver.so.2:_ZTv0_n264_N4INDI12Spectrograph16StartIntegrationEd
libindidriver.so.2:_ZTv0_n264_N4INDI8Receiver16StartIntegrationEd
libindidriver.so.2:_ZTv0_n288_N4INDI12Spectrograph15addFITSKeywordsEP8fitsfilePhi
libindidriver.so.2:_ZTv0_n288_N4INDI8Receiver15addFITSKeywordsEP8fitsfilePhi
libindidriver.so.2:_ZTv0_n72_N4INDI12Spectrograph15ISGetPropertiesEPKc
libindidriver.so.2:_ZTv0_n72_N4INDI8Receiver15ISGetPropertiesEPKc
libindidriver.so.2:_ZTv0_n80_N4INDI12Spectrograph11ISNewSwitchEPKcS2_P7ISStatePPci
libindidriver.so.2:_ZTv0_n80_N4INDI8Receiver11ISNewSwitchEPKcS2_P7ISStatePPci
libindidriver.so.2:_ZTv0_n88_N4INDI12Spectrograph11ISNewNumberEPKcS2_PdPPci
libindidriver.so.2:_ZTv0_n88_N4INDI8Receiver11ISNewNumberEPKcS2_PdPPci
libindidriver.so.2:_ZTv0_n96_N4INDI12Spectrograph9ISNewTextEPKcS2_PPcS4_i
libindidriver.so.2:_ZTv0_n96_N4INDI8Receiver9ISNewTextEPKcS2_PPcS4_i
libindidriver.so.2:_fp_msg
libindidriver.so.2:_fp_tmpnam
libindidriver.so.2:abort_fpack
libindidriver.so.2:addCallback
libindidriver.so.2:addImmediateWork
libindidriver.so.2:addPeriodicTimer
libindidriver.so.2:addTimer
libindidriver.so.2:addWorkProc
libindidriver.so.2:addXMLAtt
libindidriver.so.2:addXMLEle
libindidriver.so.2:as2rad
libindidriver.so.2:baseline_2d_projection
libindidriver.so.2:baseline_delay
libindidriver.so.2:bayer16_2_rgb24
libindidriver.so.2:bayer2rgb24
libindidriver.so.2:bayer_grbg_to_rgb24
libindidriver.so.2:bayer_rggb_2rgb24
libindidriver.so.2:calc_delta_magnitude
libindidriver.so.2:calc_photon_flux
libindidriver.so.2:calc_rel_magnitude
libindidriver.so.2:calc_star_mass
libindidriver.so.2:ccvt_420p_bgr24
libindidriver.so.2:ccvt_420p_bgr32
libindidriver.so.2:ccvt_420p_rgb24
libindidriver.so.2:ccvt_420p_rgb32
libindidriver.so.2:ccvt_bgr24_bgr32
libindidriver.so.2:ccvt_bgr24_rgb32
libindidriver.so.2:ccvt_bgr32_bgr24
libindidriver.so.2:ccvt_bgr32_rgb24
libindidriver.so.2:ccvt_rgb24_bgr32
libindidriver.so.2:ccvt_rgb24_rgb32
libindidriver.so.2:ccvt_rgb32_bgr24
libindidriver.so.2:ccvt_rgb32_rgb24
libindidriver.so.2:ccvt_yuyv_420p
libindidriver.so.2:ccvt_yuyv_bgr24
libindidriver.so.2:ccvt_yuyv_bgr32
libindidriver.so.2:ccvt_yuyv_rgb24
libindidriver.so.2:cloneXMLEle
libindidriver.so.2:configRootFP
libindidriver.so.2:crackDN
libindidriver.so.2:crackIPState
libindidriver.so.2:crackIPerm
libindidriver.so.2:crackISRule
libindidriver.so.2:crackISState
libindidriver.so.2:decode_jpeg_gray_raw
libindidriver.so.2:decode_jpeg_raw
libindidriver.so.2:decode_jpeg_rgb
libindidriver.so.2:deferLoop
libindidriver.so.2:deferLoop0
libindidriver.so.2:delLilXML
libindidriver.so.2:delXMLEle
libindidriver.so.2:dispatch
libindidriver.so.2:driverio_finish
libindidriver.so.2:driverio_init
libindidriver.so.2:dsp_buffer_1div
libindidriver.so.2:dsp_buffer_1sub
libindidriver.so.2:dsp_buffer_components_to_rgb
libindidriver.so.2:dsp_buffer_deviate
libindidriver.so.2:dsp_buffer_div
libindidriver.so.2:dsp_buffer_div1
libindidriver.so.2:dsp_buffer_log
libindidriver.so.2:dsp_buffer_log1
libindidriver.so.2:dsp_buffer_max
libindidriver.so.2:dsp_buffer_median
libindidriver.so.2:dsp_buffer_min
libindidriver.so.2:dsp_buffer_mul
libindidriver.so.2:dsp_buffer_mul1
libindidriver.so.2:dsp_buffer_pow
libindidriver.so.2:dsp_buffer_pow1
libindidriver.so.2:dsp_buffer_removemean
libindidriver.so.2:dsp_buffer_rgb_to_components
libindidriver.so.2:dsp_buffer_shift
libindidriver.so.2:dsp_buffer_sigma
libindidriver.so.2:dsp_buffer_sub
libindidriver.so.2:dsp_buffer_sub1
libindidriver.so.2:dsp_buffer_sum
libindidriver.so.2:dsp_buffer_sum1
libindidriver.so.2:dsp_convolution_convolution
libindidriver.so.2:dsp_convolution_correlation
libindidriver.so.2:dsp_file_bayer_2_composite
libindidriver.so.2:dsp_file_bayer_2_gray
libindidriver.so.2:dsp_file_bayer_2_rgb
libindidriver.so.2:dsp_file_composite_2_bayer
libindidriver.so.2:dsp_file_read_fits
libindidriver.so.2:dsp_file_read_jpeg
libindidriver.so.2:dsp_file_write_fits
libindidriver.so.2:dsp_file_write_fits_bayer
libindidriver.so.2:dsp_file_write_fits_composite
libindidriver.so.2:dsp_file_write_jpeg
libindidriver.so.2:dsp_file_write_jpeg_composite
libindidriver.so.2:dsp_filter_bandpass
libindidriver.so.2:dsp_filter_bandreject
libindidriver.so.2:dsp_filter_highpass
libindidriver.so.2:dsp_filter_lowpass
libindidriver.so.2:dsp_filter_squarelaw
libindidriver.so.2:dsp_fits_alloc_fits_rows
libindidriver.so.2:dsp_fits_append_fits_col
libindidriver.so.2:dsp_fits_append_table
libindidriver.so.2:dsp_fits_check_column
libindidriver.so.2:dsp_fits_check_key
libindidriver.so.2:dsp_fits_close_fits
libindidriver.so.2:dsp_fits_create_fits
libindidriver.so.2:dsp_fits_delete_fits_col
libindidriver.so.2:dsp_fits_fill_fits_col
libindidriver.so.2:dsp_fits_get_element_size
libindidriver.so.2:dsp_fits_get_value
libindidriver.so.2:dsp_fits_read_sdfits
libindidriver.so.2:dsp_fits_read_typecode
libindidriver.so.2:dsp_fits_update_fits_key
libindidriver.so.2:dsp_fourier_2complex_t
libindidriver.so.2:dsp_fourier_2dsp
libindidriver.so.2:dsp_fourier_complex_array_get_magnitude
libindidriver.so.2:dsp_fourier_complex_array_get_phase
libindidriver.so.2:dsp_fourier_dft
libindidriver.so.2:dsp_fourier_idft
libindidriver.so.2:dsp_fourier_phase_mag_array_get_complex
libindidriver.so.2:dsp_get_app_name
libindidriver.so.2:dsp_get_debug_level
libindidriver.so.2:dsp_max_threads
libindidriver.so.2:dsp_modulation_amplitude
libindidriver.so.2:dsp_modulation_frequency
libindidriver.so.2:dsp_print
libindidriver.so.2:dsp_set_app_name
libindidriver.so.2:dsp_set_debug_level
libindidriver.so.2:dsp_set_stderr
libindidriver.so.2:dsp_set_stdout
libindidriver.so.2:dsp_signals_sawtoothwave
libindidriver.so.2:dsp_signals_sinewave
libindidriver.so.2:dsp_signals_triwave
libindidriver.so.2:dsp_signals_whitenoise
libindidriver.so.2:dsp_stats_histogram
libindidriver.so.2:dsp_stream_add_child
libindidriver.so.2:dsp_stream_add_dim
libindidriver.so.2:dsp_stream_add_star
libindidriver.so.2:dsp_stream_add_triangle
libindidriver.so.2:dsp_stream_align
libindidriver.so.2:dsp_stream_alloc_buffer
libindidriver.so.2:dsp_stream_copy
libindidriver.so.2:dsp_stream_crop
libindidriver.so.2:dsp_stream_del_child
libindidriver.so.2:dsp_stream_del_dim
libindidriver.so.2:dsp_stream_del_star
libindidriver.so.2:dsp_stream_del_triangle
libindidriver.so.2:dsp_stream_free
libindidriver.so.2:dsp_stream_free_buffer
libindidriver.so.2:dsp_stream_from_components
libindidriver.so.2:dsp_stream_get_buffer
libindidriver.so.2:dsp_stream_get_position
libindidriver.so.2:dsp_stream_multiply
libindidriver.so.2:dsp_stream_new
libindidriver.so.2:dsp_stream_rotate
libindidriver.so.2:dsp_stream_scale
libindidriver.so.2:dsp_stream_set_buffer
libindidriver.so.2:dsp_stream_set_dim
libindidriver.so.2:dsp_stream_set_position
libindidriver.so.2:dsp_stream_subtract
libindidriver.so.2:dsp_stream_sum
libindidriver.so.2:dsp_stream_translate
libindidriver.so.2:ecpu
libindidriver.so.2:editXMLAtt
libindidriver.so.2:editXMLEle
libindidriver.so.2:encode_jpeg_raw
libindidriver.so.2:entityXML
libindidriver.so.2:estimate_absolute_magnitude
libindidriver.so.2:estimate_distance
libindidriver.so.2:estimate_field_rotation
libindidriver.so.2:estimate_field_rotation_rate
libindidriver.so.2:estimate_geocentric_elevation
libindidriver.so.2:estimate_orbit_radius
libindidriver.so.2:estimate_secondary_mass
libindidriver.so.2:estimate_secondary_size
libindidriver.so.2:eventLoop
libindidriver.so.2:extractISOTime
libindidriver.so.2:f_scansexa
libindidriver.so.2:findXMLAtt
libindidriver.so.2:findXMLAttValu
libindidriver.so.2:findXMLEle
libindidriver.so.2:fits_read_image_speed
libindidriver.so.2:fp_abort_output
libindidriver.so.2:fp_access
libindidriver.so.2:fp_get_param
libindidriver.so.2:fp_help
libindidriver.so.2:fp_hint
libindidriver.so.2:fp_i2rescale
libindidriver.so.2:fp_i2stat
libindidriver.so.2:fp_i4rescale
libindidriver.so.2:fp_i4stat
libindidriver.so.2:fp_info_hdu
libindidriver.so.2:fp_init
libindidriver.so.2:fp_list
libindidriver.so.2:fp_loop
libindidriver.so.2:fp_noop
libindidriver.so.2:fp_pack
libindidriver.so.2:fp_pack_data_to_data
libindidriver.so.2:fp_pack_data_to_fits
libindidriver.so.2:fp_pack_fits_to_fits
libindidriver.so.2:fp_pack_hdu
libindidriver.so.2:fp_preflight
libindidriver.so.2:fp_r4stat
libindidriver.so.2:fp_test
libindidriver.so.2:fp_test_hdu
libindidriver.so.2:fp_test_table
libindidriver.so.2:fp_unpack
libindidriver.so.2:fp_unpack_data_to_fits
libindidriver.so.2:fp_unpack_file_to_fits
libindidriver.so.2:fp_unpack_hdu
libindidriver.so.2:fp_usage
libindidriver.so.2:fp_version
libindidriver.so.2:from64tobits
libindidriver.so.2:from64tobits_fast
libindidriver.so.2:from64tobits_fast_with_bug
libindidriver.so.2:fs_sexa
libindidriver.so.2:getColorSpaceName
libindidriver.so.2:getQuantization
libindidriver.so.2:getQuantizationName
libindidriver.so.2:getSexComponents
libindidriver.so.2:getSexComponentsIID
libindidriver.so.2:getYCbCrEncoding
libindidriver.so.2:getYCbCrEncodingName
libindidriver.so.2:get_alt_az_coordinates
libindidriver.so.2:get_equ_from_hrz
libindidriver.so.2:get_hrz_from_equ
libindidriver.so.2:get_local_hour_angle
libindidriver.so.2:get_local_sidereal_time
libindidriver.so.2:get_usb_code_for_current_locale
libindidriver.so.2:gettime
libindidriver.so.2:hid_close
libindidriver.so.2:hid_enumerate
libindidriver.so.2:hid_error
libindidriver.so.2:hid_exit
libindidriver.so.2:hid_free_enumeration
libindidriver.so.2:hid_get_feature_report
libindidriver.so.2:hid_get_indexed_string
libindidriver.so.2:hid_get_manufacturer_string
libindidriver.so.2:hid_get_product_string
libindidriver.so.2:hid_get_serial_number_string
libindidriver.so.2:hid_init
libindidriver.so.2:hid_open
libindidriver.so.2:hid_open_path
libindidriver.so.2:hid_read
libindidriver.so.2:hid_read_timeout
libindidriver.so.2:hid_send_feature_report
libindidriver.so.2:hid_set_nonblocking
libindidriver.so.2:hid_write
libindidriver.so.2:indi_timestamp
libindidriver.so.2:initColorSpace
libindidriver.so.2:linearize
libindidriver.so.2:lutrangecbcr10
libindidriver.so.2:lutrangecbcr12
libindidriver.so.2:lutrangecbcr16
libindidriver.so.2:lutrangecbcr8
libindidriver.so.2:lutrangey10
libindidriver.so.2:lutrangey12
libindidriver.so.2:lutrangey16
libindidriver.so.2:lutrangey8
libindidriver.so.2:m2au
libindidriver.so.2:main
libindidriver.so.2:marktime
libindidriver.so.2:me
libindidriver.so.2:mjpegtoyuv420p
libindidriver.so.2:nXMLAtt
libindidriver.so.2:nXMLEle
libindidriver.so.2:nameXMLAtt
libindidriver.so.2:newLilXML
libindidriver.so.2:nextXMLAtt
libindidriver.so.2:nextXMLEle
libindidriver.so.2:nsecsRemainingTimer
libindidriver.so.2:numberFormat
libindidriver.so.2:outreport
libindidriver.so.2:parentXMLAtt
libindidriver.so.2:parentXMLEle
libindidriver.so.2:parseXMLChunk
libindidriver.so.2:pcdataXMLEle
libindidriver.so.2:pcdatalenXMLEle
libindidriver.so.2:permStr
libindidriver.so.2:prXMLEle
libindidriver.so.2:pstateStr
libindidriver.so.2:rad2as
libindidriver.so.2:range180
libindidriver.so.2:range24
libindidriver.so.2:range360
libindidriver.so.2:rangeDec
libindidriver.so.2:rangeHA
libindidriver.so.2:rangeY8
libindidriver.so.2:readXMLEle
libindidriver.so.2:readXMLFile
libindidriver.so.2:remainingTimer
libindidriver.so.2:rmCallback
libindidriver.so.2:rmTimer
libindidriver.so.2:rmWorkProc
libindidriver.so.2:rmXMLAtt
libindidriver.so.2:ruleStr
libindidriver.so.2:scpu
libindidriver.so.2:setXMLEleTag
libindidriver.so.2:shallowCloneXMLEle
libindidriver.so.2:shm_open_anon
libindidriver.so.2:sprXMLCDataOffset
libindidriver.so.2:sprXMLEle
libindidriver.so.2:sprlXMLEle
libindidriver.so.2:sstateStr
libindidriver.so.2:startmilli
libindidriver.so.2:startsec
libindidriver.so.2:tagXMLEle
libindidriver.so.2:tempfilename
libindidriver.so.2:tempfilename2
libindidriver.so.2:tempfilename3
libindidriver.so.2:time_ns
libindidriver.so.2:to64frombits
libindidriver.so.2:to64frombits_s
libindidriver.so.2:tty_clr_trailing_read_lf
libindidriver.so.2:tty_connect
libindidriver.so.2:tty_disconnect
libindidriver.so.2:tty_error_msg
libindidriver.so.2:tty_nread_section
libindidriver.so.2:tty_nread_section_expanded
libindidriver.so.2:tty_read
libindidriver.so.2:tty_read_expanded
libindidriver.so.2:tty_read_section
libindidriver.so.2:tty_read_section_expanded
libindidriver.so.2:tty_reset_udp_session
libindidriver.so.2:tty_set_auto_reset_udp_session
libindidriver.so.2:tty_set_debug
libindidriver.so.2:tty_set_gemini_udp_format
libindidriver.so.2:tty_set_generic_udp_format
libindidriver.so.2:tty_timeout
libindidriver.so.2:tty_timeout_microseconds
libindidriver.so.2:tty_write
libindidriver.so.2:tty_write_string
libindidriver.so.2:userio_file
libindidriver.so.2:userio_printf
libindidriver.so.2:userio_prints
libindidriver.so.2:userio_putc
libindidriver.so.2:userio_vprintf
libindidriver.so.2:userio_write
libindidriver.so.2:userio_xml_escape
libindidriver.so.2:userio_xmlv1
libindidriver.so.2:valuXMLAtt
libindidriver.so.2:verbose
libindidriver.so.2:waitPingReply
libindidriver.so.2:xmlv1
libindilx200.so.2:DBG_SCOPE
libindilx200.so.2:WeakIDDefBLOBVA
libindilx200.so.2:WeakIDDefLightVA
libindilx200.so.2:WeakIDDefNumberVA
libindilx200.so.2:WeakIDDefSwitchVA
libindilx200.so.2:WeakIDDefTextVA
libindilx200.so.2:WeakIDSetBLOBVA
libindilx200.so.2:WeakIDSetLightVA
libindilx200.so.2:WeakIDSetNumberVA
libindilx200.so.2:WeakIDSetSwitchVA
libindilx200.so.2:WeakIDSetTextVA
libindilx200.so.2:WeakIUUpdateBLOB
libindilx200.so.2:WeakIUUpdateMinMax
libindilx200.so.2:WeakIUUpdateNumber
libindilx200.so.2:WeakIUUpdateSwitch
libindilx200.so.2:WeakIUUpdateText
libindilx200.so.2:_Z10getOTATempiPd
libindilx200.so.2:_Z10selectSiteii
libindilx200.so.2:_Z11getSiteNameiPci
libindilx200.so.2:_Z11setObjectRAidb
libindilx200.so.2:_Z11setSiteNameiPci
libindilx200.so.2:_Z11setSlewModeii
libindilx200.so.2:_Z12HaltMovementii
libindilx200.so.2:_Z12SendPulseCmdiiibi
libindilx200.so.2:_Z12getTrackFreqiPd
libindilx200.so.2:_Z12setLocalTimeiiiib
libindilx200.so.2:_Z12setObjectDECidb
libindilx200.so.2:_Z12setTrackFreqid
libindilx200.so.2:_Z12setUTCOffsetid
libindilx200.so.2:_Z13getCommandIntiPiPKc
libindilx200.so.2:_Z13getTimeFormatiPi
libindilx200.so.2:_Z13setCommandIntiiPKc
libindilx200.so.2:_Z13setCommandXYZiiiiPKcb
libindilx200.so.2:_Z13setLX200DebugPKcj
libindilx200.so.2:_Z14getCommandSexaiPdPKc
libindilx200.so.2:_Z14isSlewCompletei
libindilx200.so.2:_Z14setMaxSlewRateii
libindilx200.so.2:_Z15getCalendarDateiPc
libindilx200.so.2:_Z15getSiteLatitudeiPiS_Pd
libindilx200.so.2:_Z15setCalenderDateiiiib
libindilx200.so.2:_Z15setSiteLatitudeidb
libindilx200.so.2:_Z16getCommandStringiPcPKc
libindilx200.so.2:_Z16getSiteLongitudeiPiS_Pd
libindilx200.so.2:_Z16selectSubCatalogiii
libindilx200.so.2:_Z16setAlignmentModeij
libindilx200.so.2:_Z16setFocuserMotionii
libindilx200.so.2:_Z16setSiteLongitudeidb
libindilx200.so.2:_Z18getSiteLatitudeAltiPiS_PdPKc
libindilx200.so.2:_Z18selectTrackingModeii
libindilx200.so.2:_Z18setGPSFocuserSpeedii
libindilx200.so.2:_Z19getHomeSearchStatusiPi
libindilx200.so.2:_Z19getSiteLongitudeAltiPiS_PdPKc
libindilx200.so.2:_Z19selectCatalogObjectiii
libindilx200.so.2:_Z19setFocuserSpeedModeii
libindilx200.so.2:_Z19setPreciseTrackFreqid
libindilx200.so.2:_Z20setMaxElevationLimitii
libindilx200.so.2:_Z20setMinElevationLimitii
libindilx200.so.2:_Z20setStandardProcedureiPKc
libindilx200.so.2:_Z22check_lx200_connectioni
libindilx200.so.2:_Z24getLX200EquatorialFormatv
libindilx200.so.2:_Z24getLX200GeographicFormatv
libindilx200.so.2:_Z26checkLX200EquatorialFormati
libindilx200.so.2:_Z3ACKi
libindilx200.so.2:_Z4Slewi
libindilx200.so.2:_Z4SynciPc
libindilx200.so.2:_Z6MoveToii
libindilx200.so.2:_Z8setObjAzid
libindilx200.so.2:_Z9abortSlewi
libindilx200.so.2:_Z9setObjAltid
libindilx200.so.2:_Z9setSDTimeiiiib
libindilx200.so.2:_ZN14LX200Telescope10GuideNorthEj
libindilx200.so.2:_ZN14LX200Telescope10GuideSouthEj
libindilx200.so.2:_ZN14LX200Telescope10updateTimeEP7ln_dated
libindilx200.so.2:_ZN14LX200Telescope11ISNewNumberEPKcS1_PdPPci
libindilx200.so.2:_ZN14LX200Telescope11ISNewSwitchEPKcS1_P7ISStatePPci
libindilx200.so.2:_ZN14LX200Telescope11MoveFocuserEN4INDI16FocuserInterface14FocusDirectionEit
libindilx200.so.2:_ZN14LX200Telescope11SetSlewRateEi
libindilx200.so.2:_ZN14LX200Telescope12AbortFocuserEv
libindilx200.so.2:_ZN14LX200Telescope12SendPulseCmdEaj
libindilx200.so.2:_ZN14LX200Telescope12SetTrackModeEh
libindilx200.so.2:_ZN14LX200Telescope12getAlignmentEv
libindilx200.so.2:_ZN14LX200Telescope12getBasicDataEv
libindilx200.so.2:_ZN14LX200Telescope12getLocalDateEPc
libindilx200.so.2:_ZN14LX200Telescope12getLocalTimeEPc
libindilx200.so.2:_ZN14LX200Telescope12getUTFOffsetEPd
libindilx200.so.2:_ZN14LX200Telescope12setLocalDateEhht
libindilx200.so.2:_ZN14LX200Telescope12setUTCOffsetEd
libindilx200.so.2:_ZN14LX200Telescope13getDriverNameEv
libindilx200.so.2:_ZN14LX200Telescope13sendScopeTimeEv
libindilx200.so.2:_ZN14LX200Telescope14ReverseFocuserEb
libindilx200.so.2:_ZN14LX200Telescope14debugTriggeredEb
libindilx200.so.2:_ZN14LX200Telescope14getDefaultNameEv
libindilx200.so.2:_ZN14LX200Telescope14guideTimeoutNSEv
libindilx200.so.2:_ZN14LX200Telescope14guideTimeoutWEEv
libindilx200.so.2:_ZN14LX200Telescope14initPropertiesEv
libindilx200.so.2:_ZN14LX200Telescope14isSlewCompleteEv
libindilx200.so.2:_ZN14LX200Telescope14setLocalTime24Ehhh
libindilx200.so.2:_ZN14LX200Telescope14updateLocationEddd
libindilx200.so.2:_ZN14LX200Telescope14updateSlewRateEi
libindilx200.so.2:_ZN14LX200Telescope15ISGetPropertiesEPKc
libindilx200.so.2:_ZN14LX200Telescope15ReadScopeStatusEv
libindilx200.so.2:_ZN14LX200Telescope15SetFocuserSpeedEi
libindilx200.so.2:_ZN14LX200Telescope15checkConnectionEv
libindilx200.so.2:_ZN14LX200Telescope15saveConfigItemsEP8_IO_FILE
libindilx200.so.2:_ZN14LX200Telescope16updateFocusTimerEv
libindilx200.so.2:_ZN14LX200Telescope16updatePropertiesEv
libindilx200.so.2:_ZN14LX200Telescope17sendScopeLocationEv
libindilx200.so.2:_ZN14LX200Telescope17updateFocusHelperEPv
libindilx200.so.2:_ZN14LX200Telescope20guideTimeoutHelperNSEPv
libindilx200.so.2:_ZN14LX200Telescope20guideTimeoutHelperWEEPv
libindilx200.so.2:_ZN14LX200Telescope4GotoEdd
libindilx200.so.2:_ZN14LX200Telescope4ParkEv
libindilx200.so.2:_ZN14LX200Telescope4SyncEdd
libindilx200.so.2:_ZN14LX200Telescope5AbortEv
libindilx200.so.2:_ZN14LX200Telescope6MoveNSE11INDI_DIR_NSN4INDI9Telescope22TelescopeMotionCommandE
libindilx200.so.2:_ZN14LX200Telescope6MoveWEE11INDI_DIR_WEN4INDI9Telescope22TelescopeMotionCommandE
libindilx200.so.2:_ZN14LX200Telescope8mountSimEv
libindilx200.so.2:_ZN14LX200Telescope9GuideEastEj
libindilx200.so.2:_ZN14LX200Telescope9GuideWestEj
libindilx200.so.2:_ZN14LX200Telescope9HandshakeEv
libindilx200.so.2:_ZN14LX200Telescope9ISNewTextEPKcS1_PPcS3_i
libindilx200.so.2:_ZN14LX200Telescope9slewErrorEi
libindilx200.so.2:_ZN14LX200TelescopeC1Ev
libindilx200.so.2:_ZN14LX200TelescopeC2Ev
libindilx200.so.2:_ZN4INDI10BaseDevice10addMessageERKNSt7__cxx1112basic_stringIcSt11char_traitsIcESaIcEEE
libindilx200.so.2:_ZN4INDI10BaseDevice11setMediatorEPNS_12BaseMediatorE
libindilx200.so.2:_ZN4INDI10BaseDevice12checkMessageEP8xml_ele_
libindilx200.so.2:_ZN4INDI10BaseDevice13buildSkeletonEPKc
libindilx200.so.2:_ZN4INDI10BaseDevice13getPropertiesEv
libindilx200.so.2:_ZN4INDI10BaseDevice13setDeviceNameEPKc
libindilx200.so.2:_ZN4INDI10BaseDevice13watchPropertyEPKcRKSt8functionIFvNS_8PropertyEEENS0_5WATCHE
libindilx200.so.2:_ZN4INDI10BaseDevice14removePropertyEPKcPc
libindilx200.so.2:_ZN4INDI10BaseDevice16registerPropertyERKNS_8PropertyE
libindilx200.so.2:_ZN4INDI10BaseDevice16registerPropertyERKNS_8PropertyE18INDI_PROPERTY_TYPE
libindilx200.so.2:_ZN4INDI10BaseDevice17getSharedFilePathENSt7__cxx1112basic_stringIcSt11char_traitsIcESaIcEEE
libindilx200.so.2:_ZN4INDI10BaseDevice6attachEv
libindilx200.so.2:_ZN4INDI10BaseDevice6detachEv
libindilx200.so.2:_ZN4INDI10BaseDevice8setValueERKNS_13LilXmlElementEPc
libindilx200.so.2:_ZN4INDI10BaseDevice9buildPropERKNS_13LilXmlElementEPcb
libindilx200.so.2:_ZN4INDI10BaseDevice9doMessageEP8xml_ele_
libindilx200.so.2:_ZN4INDI10BaseDeviceC1ERKSt10shared_ptrINS_17BaseDevicePrivateEE
libindilx200.so.2:_ZN4INDI10BaseDeviceC1ERNS_17BaseDevicePrivateE
libindilx200.so.2:_ZN4INDI10BaseDeviceC1Ev
libindilx200.so.2:_ZN4INDI10BaseDeviceC2ERKSt10shared_ptrINS_17BaseDevicePrivateEE
libindilx200.so.2:_ZN4INDI10BaseDeviceC2ERNS_17BaseDevicePrivateE
libindilx200.so.2:_ZN4INDI10BaseDeviceC2Ev
libindilx200.so.2:_ZN4INDI10BaseDeviceD0Ev
libindilx200.so.2:_ZN4INDI10BaseDeviceD1Ev
libindilx200.so.2:_ZN4INDI10BaseDeviceD2Ev
libindilx200.so.2:_ZN4INDI10BaseDevicecvPS0_Ev
libindilx200.so.2:_ZN4INDI10BaseDeviceptEv
libindilx200.so.2:_ZN4INDI10Properties2atEm
libindilx200.so.2:_ZN4INDI10Properties3endEv
libindilx200.so.2:_ZN4INDI10Properties4backEv
libindilx200.so.2:_ZN4INDI10Properties5beginEv
libindilx200.so.2:_ZN4INDI10Properties5clearEv
libindilx200.so.2:_ZN4INDI10Properties5eraseESt15_Deque_iteratorINS_8PropertyERKS2_PS3_E
libindilx200.so.2:_ZN4INDI10Properties5eraseESt15_Deque_iteratorINS_8PropertyERKS2_PS3_ES6_
libindilx200.so.2:_ZN4INDI10Properties5eraseESt15_Deque_iteratorINS_8PropertyERS2_PS2_E
libindilx200.so.2:_ZN4INDI10Properties5eraseESt15_Deque_iteratorINS_8PropertyERS2_PS2_ES5_
libindilx200.so.2:_ZN4INDI10Properties5frontEv
libindilx200.so.2:_ZN4INDI10Properties9push_backEONS_8PropertyE
libindilx200.so.2:_ZN4INDI10Properties9push_backERKNS_8PropertyE
libindilx200.so.2:_ZN4INDI10PropertiesC1ESt10shared_ptrINS_17PropertiesPrivateEE
libindilx200.so.2:_ZN4INDI10PropertiesC1Ev
libindilx200.so.2:_ZN4INDI10PropertiesC2ESt10shared_ptrINS_17PropertiesPrivateEE
libindilx200.so.2:_ZN4INDI10PropertiesC2Ev
libindilx200.so.2:_ZN4INDI10PropertiesD1Ev
libindilx200.so.2:_ZN4INDI10PropertiesD2Ev
libindilx200.so.2:_ZN4INDI10PropertiescvPS0_Ev
libindilx200.so.2:_ZN4INDI10PropertiescvPSt6vectorIPNS_8PropertyESaIS3_EEEv
libindilx200.so.2:_ZN4INDI10PropertiesdeEv
libindilx200.so.2:_ZN4INDI10PropertiesixEm
libindilx200.so.2:_ZN4INDI10PropertiesptEv
libindilx200.so.2:_ZN4INDI10WidgetViewI6_IBLOBE4fillEPKcS4_S4_
libindilx200.so.2:_ZN4INDI10WidgetViewI6_ITextE4fillEPKcS4_S4_
libindilx200.so.2:_ZN4INDI10WidgetViewI7_ILightE4fillEPKcS4_7IPState
libindilx200.so.2:_ZN4INDI10WidgetViewI8_INumberE4fillEPKcS4_S4_dddd
libindilx200.so.2:_ZN4INDI10WidgetViewI8_ISwitchE4fillEPKcS4_7ISState
libindilx200.so.2:_ZN4INDI12BaseMediator10newMessageENS_10BaseDeviceEi
libindilx200.so.2:_ZN4INDI12BaseMediator11newPropertyENS_8PropertyE
libindilx200.so.2:_ZN4INDI12BaseMediator12removeDeviceENS_10BaseDeviceE
libindilx200.so.2:_ZN4INDI12BaseMediator14removePropertyENS_8PropertyE
libindilx200.so.2:_ZN4INDI12BaseMediator14updatePropertyENS_8PropertyE
libindilx200.so.2:_ZN4INDI12BaseMediator15serverConnectedEv
libindilx200.so.2:_ZN4INDI12BaseMediator18serverDisconnectedEi
libindilx200.so.2:_ZN4INDI12BaseMediator9newDeviceENS_10BaseDeviceE
libindilx200.so.2:_ZN4INDI12ParentDeviceC1ENS0_4TypeE
libindilx200.so.2:_ZN4INDI12ParentDeviceC1ERKSt10shared_ptrINS_19ParentDevicePrivateEE
libindilx200.so.2:_ZN4INDI12ParentDeviceC2ENS0_4TypeE
libindilx200.so.2:_ZN4INDI12ParentDeviceC2ERKSt10shared_ptrINS_19ParentDevicePrivateEE
libindilx200.so.2:_ZN4INDI12ParentDeviceD0Ev
libindilx200.so.2:_ZN4INDI12ParentDeviceD1Ev
libindilx200.so.2:_ZN4INDI12ParentDeviceD2Ev
libindilx200.so.2:_ZN4INDI12PropertyBlob14setBlobDeleterERKSt8functionIFvRPvEE
libindilx200.so.2:_ZN4INDI12PropertyBlob4fillEPKcS2_S2_S2_5IPermd7IPState
libindilx200.so.2:_ZN4INDI12PropertyBlob6updateEPKiS2_PKPKcS6_S6_i
libindilx200.so.2:_ZN4INDI12PropertyBlobC1ENS_8PropertyE
libindilx200.so.2:_ZN4INDI12PropertyBlobC1Em
libindilx200.so.2:_ZN4INDI12PropertyBlobC2ENS_8PropertyE
libindilx200.so.2:_ZN4INDI12PropertyBlobC2Em
libindilx200.so.2:_ZN4INDI12PropertyBlobD1Ev
libindilx200.so.2:_ZN4INDI12PropertyBlobD2Ev
libindilx200.so.2:_ZN4INDI12PropertyText4fillEPKcS2_S2_S2_5IPermd7IPState
libindilx200.so.2:_ZN4INDI12PropertyText6updateEPKPKcS4_i
libindilx200.so.2:_ZN4INDI12PropertyTextC1ENS_8PropertyE
libindilx200.so.2:_ZN4INDI12PropertyTextC1Em
libindilx200.so.2:_ZN4INDI12PropertyTextC2ENS_8PropertyE
libindilx200.so.2:_ZN4INDI12PropertyTextC2Em
libindilx200.so.2:_ZN4INDI12PropertyTextD1Ev
libindilx200.so.2:_ZN4INDI12PropertyTextD2Ev
libindilx200.so.2:_ZN4INDI12PropertyViewI6_IBLOBE4fillIS1_Lb1EEEvPKcS5_S5_S5_5IPermd7IPState
libindilx200.so.2:_ZN4INDI12PropertyViewI6_IBLOBE6updateIS1_Lb1EEEbPKiS5_PKPKcS9_S9_i
libindilx200.so.2:_ZN4INDI12PropertyViewI6_ITextE4fillIS1_Lb1EEEvPKcS5_S5_S5_5IPermd7IPState
libindilx200.so.2:_ZN4INDI12PropertyViewI6_ITextE6updateIS1_Lb1EEEbPKPKcS7_i
libindilx200.so.2:_ZN4INDI12PropertyViewI7_ILightE4fillIS1_Lb1EEEvPKcS5_S5_S5_7IPState
libindilx200.so.2:_ZN4INDI12PropertyViewI8_INumberE12updateMinMaxIS1_Lb1EEEvv
libindilx200.so.2:_ZN4INDI12PropertyViewI8_INumberE4fillIS1_Lb1EEEvPKcS5_S5_S5_5IPermd7IPState
libindilx200.so.2:_ZN4INDI12PropertyViewI8_INumberE6updateIS1_Lb1EEEbPKdPKPKci
libindilx200.so.2:_ZN4INDI12PropertyViewI8_ISwitchE4fillIS1_Lb1EEEvPKcS5_S5_S5_5IPerm6ISRuled7IPState
libindilx200.so.2:_ZN4INDI12PropertyViewI8_ISwitchE6updateIS1_Lb1EEEbPK7ISStatePKPKci
libindilx200.so.2:_ZN4INDI13PropertyLight4fillEPKcS2_S2_S2_7IPState
libindilx200.so.2:_ZN4INDI13PropertyLightC1ENS_8PropertyE
libindilx200.so.2:_ZN4INDI13PropertyLightC1Em
libindilx200.so.2:_ZN4INDI13PropertyLightC2ENS_8PropertyE
libindilx200.so.2:_ZN4INDI13PropertyLightC2Em
libindilx200.so.2:_ZN4INDI13PropertyLightD1Ev
libindilx200.so.2:_ZN4INDI13PropertyLightD2Ev
libindilx200.so.2:_ZN4INDI14PropertyNumber12updateMinMaxEv
libindilx200.so.2:_ZN4INDI14PropertyNumber4fillEPKcS2_S2_S2_5IPermd7IPState
libindilx200.so.2:_ZN4INDI14PropertyNumber6updateEPKdPKPKci
libindilx200.so.2:_ZN4INDI14PropertyNumberC1ENS_8PropertyE
libindilx200.so.2:_ZN4INDI14PropertyNumberC1Em
libindilx200.so.2:_ZN4INDI14PropertyNumberC2ENS_8PropertyE
libindilx200.so.2:_ZN4INDI14PropertyNumberC2Em
libindilx200.so.2:_ZN4INDI14PropertyNumberD1Ev
libindilx200.so.2:_ZN4INDI14PropertyNumberD2Ev
libindilx200.so.2:_ZN4INDI14PropertySwitch11onNewValuesERKSt8functionIFvRKNS0_9NewValuesEEE
libindilx200.so.2:_ZN4INDI14PropertySwitch4fillEPKcS2_S2_S2_5IPerm6ISRuled7IPState
libindilx200.so.2:_ZN4INDI14PropertySwitch5resetEv
libindilx200.so.2:_ZN4INDI14PropertySwitch6updateEPK7ISStatePKPKci
libindilx200.so.2:_ZN4INDI14PropertySwitch7setRuleE6ISRule
libindilx200.so.2:_ZN4INDI14PropertySwitchC1ENS_8PropertyE
libindilx200.so.2:_ZN4INDI14PropertySwitchC1Em
libindilx200.so.2:_ZN4INDI14PropertySwitchC2ENS_8PropertyE
libindilx200.so.2:_ZN4INDI14PropertySwitchC2Em
libindilx200.so.2:_ZN4INDI14PropertySwitchD1Ev
libindilx200.so.2:_ZN4INDI14PropertySwitchD2Ev
libindilx200.so.2:_ZN4INDI15PropertyPrivateC1EPNS_12PropertyViewI6_IBLOBEE
libindilx200.so.2:_ZN4INDI15PropertyPrivateC1EPNS_12PropertyViewI6_ITextEE
libindilx200.so.2:_ZN4INDI15PropertyPrivateC1EPNS_12PropertyViewI7_ILightEE
libindilx200.so.2:_ZN4INDI15PropertyPrivateC1EPNS_12PropertyViewI8_INumberEE
libindilx200.so.2:_ZN4INDI15PropertyPrivateC1EPNS_12PropertyViewI8_ISwitchEE
libindilx200.so.2:_ZN4INDI15PropertyPrivateC1EPv18INDI_PROPERTY_TYPE
libindilx200.so.2:_ZN4INDI15PropertyPrivateC2EPNS_12PropertyViewI6_IBLOBEE
libindilx200.so.2:_ZN4INDI15PropertyPrivateC2EPNS_12PropertyViewI6_ITextEE
libindilx200.so.2:_ZN4INDI15PropertyPrivateC2EPNS_12PropertyViewI7_ILightEE
libindilx200.so.2:_ZN4INDI15PropertyPrivateC2EPNS_12PropertyViewI8_INumberEE
libindilx200.so.2:_ZN4INDI15PropertyPrivateC2EPNS_12PropertyViewI8_ISwitchEE
libindilx200.so.2:_ZN4INDI15PropertyPrivateC2EPv18INDI_PROPERTY_TYPE
libindilx200.so.2:_ZN4INDI15PropertyPrivateD0Ev
libindilx200.so.2:_ZN4INDI15PropertyPrivateD1Ev
libindilx200.so.2:_ZN4INDI15PropertyPrivateD2Ev
libindilx200.so.2:_ZN4INDI17BaseDevicePrivate7setBLOBENS_12PropertyBlobERKNS_13LilXmlElementEPc
libindilx200.so.2:_ZN4INDI17BaseDevicePrivateC1Ev
libindilx200.so.2:_ZN4INDI17BaseDevicePrivateC2Ev
libindilx200.so.2:_ZN4INDI17BaseDevicePrivateD0Ev
libindilx200.so.2:_ZN4INDI17BaseDevicePrivateD1Ev
libindilx200.so.2:_ZN4INDI17BaseDevicePrivateD2Ev
libindilx200.so.2:_ZN4INDI17PropertiesPrivateC1Ev
libindilx200.so.2:_ZN4INDI17PropertiesPrivateC2Ev
libindilx200.so.2:_ZN4INDI17PropertiesPrivateD0Ev
libindilx200.so.2:_ZN4INDI17PropertiesPrivateD1Ev
libindilx200.so.2:_ZN4INDI17PropertiesPrivateD2Ev
libindilx200.so.2:_ZN4INDI19PropertyBlobPrivateC1Em
libindilx200.so.2:_ZN4INDI19PropertyBlobPrivateC2Em
libindilx200.so.2:_ZN4INDI19PropertyBlobPrivateD0Ev
libindilx200.so.2:_ZN4INDI19PropertyBlobPrivateD1Ev
libindilx200.so.2:_ZN4INDI19PropertyBlobPrivateD2Ev
libindilx200.so.2:_ZN4INDI19PropertyTextPrivateC1Em
libindilx200.so.2:_ZN4INDI19PropertyTextPrivateC2Em
libindilx200.so.2:_ZN4INDI19PropertyTextPrivateD0Ev
libindilx200.so.2:_ZN4INDI19PropertyTextPrivateD1Ev
libindilx200.so.2:_ZN4INDI19PropertyTextPrivateD2Ev
libindilx200.so.2:_ZN4INDI19WatchDeviceProperty10processXmlERKNS_13LilXmlElementEPcRKSt8functionIFNS_12ParentDeviceEvEE
libindilx200.so.2:_ZN4INDI19WatchDeviceProperty11watchDeviceERKNSt7__cxx1112basic_stringIcSt11char_traitsIcESaIcEEE
libindilx200.so.2:_ZN4INDI19WatchDeviceProperty11watchDeviceERKNSt7__cxx1112basic_stringIcSt11char_traitsIcESaIcEEERKSt8functionIFvNS_10BaseDeviceEEE
libindilx200.so.2:_ZN4INDI19WatchDeviceProperty12clearDevicesEv
libindilx200.so.2:_ZN4INDI19WatchDeviceProperty12deleteDeviceERKNS_10BaseDeviceE
libindilx200.so.2:_ZN4INDI19WatchDeviceProperty13watchPropertyERKNSt7__cxx1112basic_stringIcSt11char_traitsIcESaIcEEES8_
libindilx200.so.2:_ZN4INDI19WatchDeviceProperty14unwatchDevicesEv
libindilx200.so.2:_ZN4INDI19WatchDeviceProperty15getDeviceByNameEPKc
libindilx200.so.2:_ZN4INDI19WatchDeviceProperty18ensureDeviceByNameEPKcRKSt8functionIFNS_12ParentDeviceEvEE
libindilx200.so.2:_ZN4INDI19WatchDeviceProperty5clearEv
libindilx200.so.2:_ZN4INDI20PropertyLightPrivateC1Em
libindilx200.so.2:_ZN4INDI20PropertyLightPrivateC2Em
libindilx200.so.2:_ZN4INDI20PropertyLightPrivateD0Ev
libindilx200.so.2:_ZN4INDI20PropertyLightPrivateD1Ev
libindilx200.so.2:_ZN4INDI20PropertyLightPrivateD2Ev
libindilx200.so.2:_ZN4INDI21PropertyNumberPrivateC1Em
libindilx200.so.2:_ZN4INDI21PropertyNumberPrivateC2Em
libindilx200.so.2:_ZN4INDI21PropertyNumberPrivateD0Ev
libindilx200.so.2:_ZN4INDI21PropertyNumberPrivateD1Ev
libindilx200.so.2:_ZN4INDI21PropertyNumberPrivateD2Ev
libindilx200.so.2:_ZN4INDI21PropertySwitchPrivateC1Em
libindilx200.so.2:_ZN4INDI21PropertySwitchPrivateC2Em
libindilx200.so.2:_ZN4INDI21PropertySwitchPrivateD0Ev
libindilx200.so.2:_ZN4INDI21PropertySwitchPrivateD1Ev
libindilx200.so.2:_ZN4INDI21PropertySwitchPrivateD2Ev
libindilx200.so.2:_ZN4INDI2SP10CONNECTIONE
libindilx200.so.2:_ZN4INDI2SP11DEVICE_PORTE
libindilx200.so.2:_ZN4INDI2SP14DEVICE_ADDRESSE
libindilx200.so.2:_ZN4INDI2SP16DEVICE_BAUD_RATEE
libindilx200.so.2:_ZN4INDI2SP17DEVICE_LAN_SEARCHE
libindilx200.so.2:_ZN4INDI2SP18DEVICE_AUTO_SEARCHE
libindilx200.so.2:_ZN4INDI8Property10emitUpdateEv
libindilx200.so.2:_ZN4INDI8Property10setDynamicEb
libindilx200.so.2:_ZN4INDI8Property10setTimeoutEd
libindilx200.so.2:_ZN4INDI8Property11setPropertyEPv
libindilx200.so.2:_ZN4INDI8Property12setGroupNameEPKc
libindilx200.so.2:_ZN4INDI8Property12setTimestampEPKc
libindilx200.so.2:_ZN4INDI8Property13setBaseDeviceENS_10BaseDeviceE
libindilx200.so.2:_ZN4INDI8Property13setBaseDeviceEPNS_10BaseDeviceE
libindilx200.so.2:_ZN4INDI8Property13setDeviceNameEPKc
libindilx200.so.2:_ZN4INDI8Property13setPermissionE5IPerm
libindilx200.so.2:_ZN4INDI8Property13setRegisteredEb
libindilx200.so.2:_ZN4INDI8Property4loadEv
libindilx200.so.2:_ZN4INDI8Property4selfEv
libindilx200.so.2:_ZN4INDI8Property7setNameEPKc
libindilx200.so.2:_ZN4INDI8Property7setTypeE18INDI_PROPERTY_TYPE
libindilx200.so.2:_ZN4INDI8Property8onUpdateERKSt8functionIFvvEE
libindilx200.so.2:_ZN4INDI8Property8setLabelEPKc
libindilx200.so.2:_ZN4INDI8Property8setStateE7IPState
libindilx200.so.2:_ZN4INDI8PropertyC1ENS_12PropertyBlobE
libindilx200.so.2:_ZN4INDI8PropertyC1ENS_12PropertyTextE
libindilx200.so.2:_ZN4INDI8PropertyC1ENS_13PropertyLightE
libindilx200.so.2:_ZN4INDI8PropertyC1ENS_14PropertyNumberE
libindilx200.so.2:_ZN4INDI8PropertyC1ENS_14PropertySwitchE
libindilx200.so.2:_ZN4INDI8PropertyC1EP20_IBLOBVectorProperty
libindilx200.so.2:_ZN4INDI8PropertyC1EP20_ITextVectorProperty
libindilx200.so.2:_ZN4INDI8PropertyC1EP21_ILightVectorProperty
libindilx200.so.2:_ZN4INDI8PropertyC1EP22_INumberVectorProperty
libindilx200.so.2:_ZN4INDI8PropertyC1EP22_ISwitchVectorProperty
libindilx200.so.2:_ZN4INDI8PropertyC1EPNS_12PropertyViewI6_IBLOBEE
libindilx200.so.2:_ZN4INDI8PropertyC1EPNS_12PropertyViewI6_ITextEE
libindilx200.so.2:_ZN4INDI8PropertyC1EPNS_12PropertyViewI7_ILightEE
libindilx200.so.2:_ZN4INDI8PropertyC1EPNS_12PropertyViewI8_INumberEE
libindilx200.so.2:_ZN4INDI8PropertyC1EPNS_12PropertyViewI8_ISwitchEE
libindilx200.so.2:_ZN4INDI8PropertyC1ERKSt10shared_ptrINS_15PropertyPrivateEE
libindilx200.so.2:_ZN4INDI8PropertyC1ERNS_15PropertyPrivateE
libindilx200.so.2:_ZN4INDI8PropertyC1Ev
libindilx200.so.2:_ZN4INDI8PropertyC2ENS_12PropertyBlobE
libindilx200.so.2:_ZN4INDI8PropertyC2ENS_12PropertyTextE
libindilx200.so.2:_ZN4INDI8PropertyC2ENS_13PropertyLightE
libindilx200.so.2:_ZN4INDI8PropertyC2ENS_14PropertyNumberE
libindilx200.so.2:_ZN4INDI8PropertyC2ENS_14PropertySwitchE
libindilx200.so.2:_ZN4INDI8PropertyC2EP20_IBLOBVectorProperty
libindilx200.so.2:_ZN4INDI8PropertyC2EP20_ITextVectorProperty
libindilx200.so.2:_ZN4INDI8PropertyC2EP21_ILightVectorProperty
libindilx200.so.2:_ZN4INDI8PropertyC2EP22_INumberVectorProperty
libindilx200.so.2:_ZN4INDI8PropertyC2EP22_ISwitchVectorProperty
libindilx200.so.2:_ZN4INDI8PropertyC2EPNS_12PropertyViewI6_IBLOBEE
libindilx200.so.2:_ZN4INDI8PropertyC2EPNS_12PropertyViewI6_ITextEE
libindilx200.so.2:_ZN4INDI8PropertyC2EPNS_12PropertyViewI7_ILightEE
libindilx200.so.2:_ZN4INDI8PropertyC2EPNS_12PropertyViewI8_INumberEE
libindilx200.so.2:_ZN4INDI8PropertyC2EPNS_12PropertyViewI8_ISwitchEE
libindilx200.so.2:_ZN4INDI8PropertyC2ERKSt10shared_ptrINS_15PropertyPrivateEE
libindilx200.so.2:_ZN4INDI8PropertyC2ERNS_15PropertyPrivateE
libindilx200.so.2:_ZN4INDI8PropertyC2Ev
libindilx200.so.2:_ZN4INDI8PropertyD1Ev
libindilx200.so.2:_ZN4INDI8PropertyD2Ev
libindilx200.so.2:_ZN4INDI8PropertycvPS0_Ev
libindilx200.so.2:_ZN4INDI8PropertyptEv
libindilx200.so.2:_ZNK4INDI10BaseDevice11getMediatorEv
libindilx200.so.2:_ZNK4INDI10BaseDevice11getPropertyEPKc18INDI_PROPERTY_TYPE
libindilx200.so.2:_ZNK4INDI10BaseDevice11isConnectedEv
libindilx200.so.2:_ZNK4INDI10BaseDevice11lastMessageB5cxx11Ev
libindilx200.so.2:_ZNK4INDI10BaseDevice12messageQueueB5cxx11Em
libindilx200.so.2:_ZNK4INDI10BaseDevice13getDeviceNameEv
libindilx200.so.2:_ZNK4INDI10BaseDevice13getDriverExecEv
libindilx200.so.2:_ZNK4INDI10BaseDevice13getDriverNameEv
libindilx200.so.2:_ZNK4INDI10BaseDevice13getPropertiesEv
libindilx200.so.2:_ZNK4INDI10BaseDevice14getRawPropertyEPKc18INDI_PROPERTY_TYPE
libindilx200.so.2:_ZNK4INDI10BaseDevice16getDriverVersionEv
libindilx200.so.2:_ZNK4INDI10BaseDevice16getPropertyStateEPKc
libindilx200.so.2:_ZNK4INDI10BaseDevice17isDeviceNameMatchEPKc
libindilx200.so.2:_ZNK4INDI10BaseDevice17isDeviceNameMatchERKNSt7__cxx1112basic_stringIcSt11char_traitsIcESaIcEEE
libindilx200.so.2:_ZNK4INDI10BaseDevice18getDriverInterfaceEv
libindilx200.so.2:_ZNK4INDI10BaseDevice21getPropertyPermissionEPKc
libindilx200.so.2:_ZNK4INDI10BaseDevice7getBLOBEPKc
libindilx200.so.2:_ZNK4INDI10BaseDevice7getTextEPKc
libindilx200.so.2:_ZNK4INDI10BaseDevice7isValidEv
libindilx200.so.2:_ZNK4INDI10BaseDevice8getLightEPKc
libindilx200.so.2:_ZNK4INDI10BaseDevice9getNumberEPKc
libindilx200.so.2:_ZNK4INDI10BaseDevice9getSwitchEPKc
libindilx200.so.2:_ZNK4INDI10Properties2atEm
libindilx200.so.2:_ZNK4INDI10Properties3endEv
libindilx200.so.2:_ZNK4INDI10Properties4backEv
libindilx200.so.2:_ZNK4INDI10Properties4sizeEv
libindilx200.so.2:_ZNK4INDI10Properties5beginEv
libindilx200.so.2:_ZNK4INDI10Properties5frontEv
libindilx200.so.2:_ZNK4INDI10PropertiescvPKS0_Ev
libindilx200.so.2:_ZNK4INDI10PropertiescvPKSt6vectorIPNS_8PropertyESaIS3_EEEv
libindilx200.so.2:_ZNK4INDI10PropertiesdeEv
libindilx200.so.2:_ZNK4INDI10PropertiesixEm
libindilx200.so.2:_ZNK4INDI10PropertiesptEv
libindilx200.so.2:_ZNK4INDI12PropertyText9isUpdatedEPKPKcS4_i
libindilx200.so.2:_ZNK4INDI12PropertyViewI6_IBLOBE6vapplyEPKcP13__va_list_tag
libindilx200.so.2:_ZNK4INDI12PropertyViewI6_IBLOBE7vdefineEPKcP13__va_list_tag
libindilx200.so.2:_ZNK4INDI12PropertyViewI6_ITextE6vapplyEPKcP13__va_list_tag
libindilx200.so.2:_ZNK4INDI12PropertyViewI6_ITextE7vdefineEPKcP13__va_list_tag
libindilx200.so.2:_ZNK4INDI12PropertyViewI6_ITextE9isUpdatedIS1_Lb1EEEbPKPKcS7_i
libindilx200.so.2:_ZNK4INDI12PropertyViewI7_ILightE6vapplyEPKcP13__va_list_tag
libindilx200.so.2:_ZNK4INDI12PropertyViewI7_ILightE7vdefineEPKcP13__va_list_tag
libindilx200.so.2:_ZNK4INDI12PropertyViewI8_INumberE6vapplyEPKcP13__va_list_tag
libindilx200.so.2:_ZNK4INDI12PropertyViewI8_INumberE7vdefineEPKcP13__va_list_tag
libindilx200.so.2:_ZNK4INDI12PropertyViewI8_INumberE9isUpdatedIS1_Lb1EEEbPKdPKPKci
libindilx200.so.2:_ZNK4INDI12PropertyViewI8_ISwitchE6vapplyEPKcP13__va_list_tag
libindilx200.so.2:_ZNK4INDI12PropertyViewI8_ISwitchE7vdefineEPKcP13__va_list_tag
libindilx200.so.2:_ZNK4INDI12PropertyViewI8_ISwitchE9isUpdatedIS1_Lb1EEEbPK7ISStatePKPKci
libindilx200.so.2:_ZNK4INDI14PropertyNumber9isUpdatedEPKdPKPKci
libindilx200.so.2:_ZNK4INDI14PropertySwitch10isSwitchOnERKNSt7__cxx1112basic_stringIcSt11char_traitsIcESaIcEEE
libindilx200.so.2:_ZNK4INDI14PropertySwitch12findOnSwitchEv
libindilx200.so.2:_ZNK4INDI14PropertySwitch15getRuleAsStringEv
libindilx200.so.2:_ZNK4INDI14PropertySwitch16findOnSwitchNameB5cxx11Ev
libindilx200.so.2:_ZNK4INDI14PropertySwitch17findOnSwitchIndexEv
libindilx200.so.2:_ZNK4INDI14PropertySwitch17hasUpdateCallbackEv
libindilx200.so.2:_ZNK4INDI14PropertySwitch7getRuleEv
libindilx200.so.2:_ZNK4INDI14PropertySwitch9isUpdatedEPK7ISStatePKPKci
libindilx200.so.2:_ZNK4INDI19WatchDeviceProperty10getDevicesEv
libindilx200.so.2:_ZNK4INDI19WatchDeviceProperty15isDeviceWatchedEPKc
libindilx200.so.2:_ZNK4INDI19WatchDeviceProperty7isEmptyEv
libindilx200.so.2:_ZNK4INDI8Property11getPropertyEv
libindilx200.so.2:_ZNK4INDI8Property11isNameMatchEPKc
libindilx200.so.2:_ZNK4INDI8Property11isNameMatchERKNSt7__cxx1112basic_stringIcSt11char_traitsIcESaIcEEE
libindilx200.so.2:_ZNK4INDI8Property11isTypeMatchE18INDI_PROPERTY_TYPE
libindilx200.so.2:_ZNK4INDI8Property12getGroupNameEv
libindilx200.so.2:_ZNK4INDI8Property12getTimestampEv
libindilx200.so.2:_ZNK4INDI8Property12isLabelMatchEPKc
libindilx200.so.2:_ZNK4INDI8Property12isLabelMatchERKNSt7__cxx1112basic_stringIcSt11char_traitsIcESaIcEEE
libindilx200.so.2:_ZNK4INDI8Property13getBaseDeviceEv
libindilx200.so.2:_ZNK4INDI8Property13getDeviceNameEv
libindilx200.so.2:_ZNK4INDI8Property13getPermissionEv
libindilx200.so.2:_ZNK4INDI8Property13getRegisteredEv
libindilx200.so.2:_ZNK4INDI8Property15getTypeAsStringEv
libindilx200.so.2:_ZNK4INDI8Property16getStateAsStringEv
libindilx200.so.2:_ZNK4INDI8Property17hasUpdateCallbackEv
libindilx200.so.2:_ZNK4INDI8Property17isDeviceNameMatchEPKc
libindilx200.so.2:_ZNK4INDI8Property17isDeviceNameMatchERKNSt7__cxx1112basic_stringIcSt11char_traitsIcESaIcEEE
libindilx200.so.2:_ZNK4INDI8Property4saveEP8_IO_FILE
libindilx200.so.2:_ZNK4INDI8Property5applyEPKcz
libindilx200.so.2:_ZNK4INDI8Property6defineEPKcz
libindilx200.so.2:_ZNK4INDI8Property7getBLOBEv
libindilx200.so.2:_ZNK4INDI8Property7getNameEv
libindilx200.so.2:_ZNK4INDI8Property7getTextEv
libindilx200.so.2:_ZNK4INDI8Property7getTypeEv
libindilx200.so.2:_ZNK4INDI8Property7isEmptyEv
libindilx200.so.2:_ZNK4INDI8Property7isValidEv
libindilx200.so.2:_ZNK4INDI8Property8getLabelEv
libindilx200.so.2:_ZNK4INDI8Property8getLightEv
libindilx200.so.2:_ZNK4INDI8Property8getStateEv
libindilx200.so.2:_ZNK4INDI8Property9getNumberEv
libindilx200.so.2:_ZNK4INDI8Property9getSwitchEv
libindilx200.so.2:_ZNK4INDI8Property9isDynamicEv
libindilx200.so.2:_ZNK4INDI8PropertycvPKS0_Ev
libindilx200.so.2:_ZNK4INDI8PropertyptEv
libindilx200.so.2:_ZThn752_N14LX200Telescope10GuideNorthEj
libindilx200.so.2:_ZThn752_N14LX200Telescope10GuideSouthEj
libindilx200.so.2:_ZThn752_N14LX200Telescope9GuideEastEj
libindilx200.so.2:_ZThn752_N14LX200Telescope9GuideWestEj
libindilx200.so.2:_ZThn800_N14LX200Telescope11MoveFocuserEN4INDI16FocuserInterface14FocusDirectionEit
libindilx200.so.2:_ZThn800_N14LX200Telescope12AbortFocuserEv
libindilx200.so.2:_ZThn800_N14LX200Telescope14ReverseFocuserEb
libindilx200.so.2:_ZThn800_N14LX200Telescope15SetFocuserSpeedEi
libindilx200.so.2:eq_format
libindilx200.so.2:geo_format
libindilx200.so.2:lx200CommsLock
libindilx200.so.2:lx200Name
shelyak_usis:stderr
