libKF6AuthCore.so.6:_ZN5KAuth11ActionReply12SuccessReplyEv
libKF6AuthCore.so.6:_ZN5KAuth11ActionReply16HelperErrorReplyEv
libKF6AuthCore.so.6:_ZN5KAuth11ActionReplyC1ERKS0_
libKF6AuthCore.so.6:_ZN5KAuth11ActionReplyC1Ev
libKF6AuthCore.so.6:_ZN5KAuth11ActionReplyD1Ev
libKF6AuthCore.so.6:_ZN5KAuth11ActionReplyaSERKS0_
libKF6AuthCore.so.6:_ZN5KAuth13HelperSupport10helperMainEiPPcPKcP7QObject
libKF6AuthCore.so.6:_ZN5KAuth6Action11setHelperIdERK7QString
libKF6AuthCore.so.6:_ZN5KAuth6Action7executeENS0_13ExecutionModeE
libKF6AuthCore.so.6:_ZN5KAuth6ActionC1ERK7QString
libKF6AuthCore.so.6:_ZN5KAuth6ActionD1Ev
libKF6AuthCore.so.6:_ZNK5KAuth11ActionReplyeqERKS0_
libKF6CoreAddons.so.6:_ZN14KPluginFactory11qt_metacallEN11QMetaObject4CallEiPPv
libKF6CoreAddons.so.6:_ZN14KPluginFactory11qt_metacastEPKc
libKF6CoreAddons.so.6:_ZN14KPluginFactory14registerPluginEPK11QMetaObjectPFP7QObjectP7QWidgetS4_RK15KPluginMetaDataRK5QListI8QVariantEE
libKF6CoreAddons.so.6:_ZN14KPluginFactory16staticMetaObjectE
libKF6CoreAddons.so.6:_ZN14KPluginFactory6createEPKcP7QWidgetP7QObjectRK5QListI8QVariantE
libKF6CoreAddons.so.6:_ZN14KPluginFactoryC2Ev
libKF6CoreAddons.so.6:_ZN14KPluginFactoryD2Ev
libKF6CoreAddons.so.6:_ZN4KJob16staticMetaObjectE
libKF6CoreAddons.so.6:_ZN4KJob6resultEPS_NS_14QPrivateSignalE
libKF6CoreAddons.so.6:_ZTI14KPluginFactory
libKF6DBusAddons.so.6:_ZN10KDEDModule11qt_metacallEN11QMetaObject4CallEiPPv
libKF6DBusAddons.so.6:_ZN10KDEDModule11qt_metacastEPKc
libKF6DBusAddons.so.6:_ZN10KDEDModule16staticMetaObjectE
libKF6DBusAddons.so.6:_ZN10KDEDModuleC2EP7QObject
libKF6DBusAddons.so.6:_ZN10KDEDModuleD2Ev
libKF6DBusAddons.so.6:_ZTI10KDEDModule
libKF6I18n.so.6:_Z7ki18ndcPKcS0_S0_
libKF6I18n.so.6:_ZN16KLocalizedStringD1Ev
libKF6I18n.so.6:_ZNK16KLocalizedString4subsERK7QStringi5QChar
libKF6I18n.so.6:_ZNK16KLocalizedString8toStringEv
libKF6Notifications.so.6:_ZN13KNotification16setComponentNameERK7QString
libKF6Notifications.so.6:_ZN13KNotification5closeEv
libKF6Notifications.so.6:_ZN13KNotification7setTextERK7QString
libKF6Notifications.so.6:_ZN13KNotification8setFlagsERK6QFlagsINS_16NotificationFlagEE
libKF6Notifications.so.6:_ZN13KNotification8setTitleERK7QString
libKF6Notifications.so.6:_ZN13KNotification9addActionERK7QString
libKF6Notifications.so.6:_ZN13KNotification9sendEventEv
libKF6Notifications.so.6:_ZN13KNotificationC1ERK7QString6QFlagsINS_16NotificationFlagEEP7QObject
libKF6Notifications.so.6:_ZN19KNotificationAction16staticMetaObjectE
libKF6Notifications.so.6:_ZN19KNotificationAction9activatedEv
libQt6Core.so.6:_ZN10QArrayData10deallocateEPS_xx
libQt6Core.so.6:_ZN10QArrayData8allocateEPPS_xxxNS_16AllocationOptionE
libQt6Core.so.6:_ZN10QByteArray17simplified_helperERS_
libQt6Core.so.6:_ZN10QByteArrayC1EPKcx
libQt6Core.so.6:_ZN10QJsonArray6appendERK10QJsonValue
libQt6Core.so.6:_ZN10QJsonArrayC1Ev
libQt6Core.so.6:_ZN10QJsonArrayD1Ev
libQt6Core.so.6:_ZN10QJsonValue11fromVariantERK8QVariant
libQt6Core.so.6:_ZN10QJsonValueC1EO10QJsonArray
libQt6Core.so.6:_ZN10QJsonValueC1EO11QJsonObject
libQt6Core.so.6:_ZN10QJsonValueC1EOS_
libQt6Core.so.6:_ZN10QJsonValueC1ERK11QJsonObject
libQt6Core.so.6:_ZN10QJsonValueD1Ev
libQt6Core.so.6:_ZN11QJsonObjectC1ESt16initializer_listISt4pairI7QString10QJsonValueEE
libQt6Core.so.6:_ZN11QJsonObjectD1Ev
libQt6Core.so.6:_ZN11QMetaObject10ConnectionD1Ev
libQt6Core.so.6:_ZN11QMetaObject14normalizedTypeEPKc
libQt6Core.so.6:_ZN11QMetaObject8activateEP7QObjectPKS_iPPv
libQt6Core.so.6:_ZN11QTextStreamC1EP8_IO_FILE6QFlagsIN13QIODeviceBase12OpenModeFlagEE
libQt6Core.so.6:_ZN11QTextStreamD1Ev
libQt6Core.so.6:_ZN11QTextStreamlsERK10QByteArray
libQt6Core.so.6:_ZN11QTextStreamlsERK7QString
libQt6Core.so.6:_ZN11QTextStreamlsEc
libQt6Core.so.6:_ZN13QJsonDocumentC1ERK11QJsonObject
libQt6Core.so.6:_ZN13QJsonDocumentD1Ev
libQt6Core.so.6:_ZN15QtSharedPointer20ExternalRefCountData9getAndRefEPK7QObject
libQt6Core.so.6:_ZN5QFile4openE6QFlagsIN13QIODeviceBase12OpenModeFlagEE
libQt6Core.so.6:_ZN5QFileC1ERK7QString
libQt6Core.so.6:_ZN5QFileD1Ev
libQt6Core.so.6:_ZN6QDebug9putStringEPK5QCharm
libQt6Core.so.6:_ZN6QDebugD1Ev
libQt6Core.so.6:_ZN6QTimer11setIntervalENSt6chrono8durationIlSt5ratioILl1ELl1000EEEE
libQt6Core.so.6:_ZN6QTimer16staticMetaObjectE
libQt6Core.so.6:_ZN6QTimer5startEv
libQt6Core.so.6:_ZN6QTimer7timeoutENS_14QPrivateSignalE
libQt6Core.so.6:_ZN6QTimerC1EP7QObject
libQt6Core.so.6:_ZN6QTimerD1Ev
libQt6Core.so.6:_ZN7QObject10childEventEP11QChildEvent
libQt6Core.so.6:_ZN7QObject10disconnectEPKS_PKcS1_S3_
libQt6Core.so.6:_ZN7QObject10timerEventEP11QTimerEvent
libQt6Core.so.6:_ZN7QObject11connectImplEPKS_PPvS1_S3_PN9QtPrivate15QSlotObjectBaseEN2Qt14ConnectionTypeEPKiPK11QMetaObject
libQt6Core.so.6:_ZN7QObject11customEventEP6QEvent
libQt6Core.so.6:_ZN7QObject11deleteLaterEv
libQt6Core.so.6:_ZN7QObject11eventFilterEPS_P6QEvent
libQt6Core.so.6:_ZN7QObject11qt_metacallEN11QMetaObject4CallEiPPv
libQt6Core.so.6:_ZN7QObject11qt_metacastEPKc
libQt6Core.so.6:_ZN7QObject13connectNotifyERK11QMetaMethod
libQt6Core.so.6:_ZN7QObject16disconnectNotifyERK11QMetaMethod
libQt6Core.so.6:_ZN7QObject16staticMetaObjectE
libQt6Core.so.6:_ZN7QObject5eventEP6QEvent
libQt6Core.so.6:_ZN7QObjectC2EPS_
libQt6Core.so.6:_ZN7QObjectD2Ev
libQt6Core.so.6:_ZN7QString10fromLatin1E14QByteArrayView
libQt6Core.so.6:_ZN7QString13toUtf8_helperERKS_
libQt6Core.so.6:_ZN7QString17toIntegral_helperE11QStringViewPbi
libQt6Core.so.6:_ZN7QString6_emptyE
libQt6Core.so.6:_ZN7QString6appendERKS_
libQt6Core.so.6:_ZN7QString6assignE14QAnyStringView
libQt6Core.so.6:_ZN7QString6numberEyi
libQt6Core.so.6:_ZN7QString8fromUtf8E14QByteArrayView
libQt6Core.so.6:_ZN7QString9fromUtf16EPKDsx
libQt6Core.so.6:_ZN7QStringC1EPK5QCharx
libQt6Core.so.6:_ZN8QProcess7executeERK7QStringRK5QListIS0_E
libQt6Core.so.6:_ZN8QVariantC1ERK7QString
libQt6Core.so.6:_ZN8QVariantC1Ei
libQt6Core.so.6:_ZN8QVariantC1Ej
libQt6Core.so.6:_ZN8QVariantC1Ey
libQt6Core.so.6:_ZN8QVariantD1Ev
libQt6Core.so.6:_ZN9QIODevice5writeERK10QByteArray
libQt6Core.so.6:_ZN9QIODevice7readAllEv
libQt6Core.so.6:_ZN9QMetaType14registerHelperEPKN9QtPrivate18QMetaTypeInterfaceE
libQt6Core.so.6:_ZN9QMetaType25registerNormalizedTypedefERK10QByteArrayS_
libQt6Core.so.6:_ZN9QtPrivate10startsWithE14QByteArrayViewS0_
libQt6Core.so.6:_ZN9QtPrivate25QMetaTypeInterfaceWrapperI4QMapI7QString8QVariantEE8metaTypeE
libQt6Core.so.6:_ZNK10QByteArray11toULongLongEPbi
libQt6Core.so.6:_ZNK10QByteArray5splitEc
libQt6Core.so.6:_ZNK11QMetaObject4castEPK7QObject
libQt6Core.so.6:_ZNK11QObjectData17dynamicMetaObjectEv
libQt6Core.so.6:_ZNK13QJsonDocument6toJsonENS_10JsonFormatE
libQt6Core.so.6:_ZNK14QMessageLogger7warningEv
libQt6Core.so.6:_ZNK7QString8arg_implE14QAnyStringViewi5QChar
libQt6Core.so.6:_ZNK9QIODevice11errorStringEv
libQt6Core.so.6:_ZTI7QObject
libQt6Core.so.6:qt_version_tag
libc.so.6:__cxa_atexit
libc.so.6:__errno_location
libc.so.6:__libc_single_threaded
libc.so.6:__libc_start_main
libc.so.6:__stack_chk_fail
libc.so.6:abort
libc.so.6:getuid
libc.so.6:lstat
libc.so.6:memcmp
libc.so.6:memcpy
libc.so.6:memset
libc.so.6:stdout
libc.so.6:strcmp
libc.so.6:strerror
libstdc++.so.6:_ZNKSt10filesystem7__cxx1118directory_iteratordeEv
libstdc++.so.6:_ZNKSt10filesystem7__cxx114path5_List13_Impl_deleterclEPNS2_5_ImplE
libstdc++.so.6:_ZNKSt10filesystem7__cxx114path5_List3endEv
libstdc++.so.6:_ZNKSt10filesystem7__cxx114path7compareERKS1_
libstdc++.so.6:_ZNKSt7codecvtIDsc11__mbstate_tE10do_unshiftERS0_PcS3_RS3_
libstdc++.so.6:_ZNKSt7codecvtIDsc11__mbstate_tE11do_encodingEv
libstdc++.so.6:_ZNKSt7codecvtIDsc11__mbstate_tE13do_max_lengthEv
libstdc++.so.6:_ZNKSt7codecvtIDsc11__mbstate_tE16do_always_noconvEv
libstdc++.so.6:_ZNKSt7codecvtIDsc11__mbstate_tE5do_inERS0_PKcS4_RS4_PDsS6_RS6_
libstdc++.so.6:_ZNKSt7codecvtIDsc11__mbstate_tE6do_outERS0_PKDsS4_RS4_PcS6_RS6_
libstdc++.so.6:_ZNKSt7codecvtIDsc11__mbstate_tE9do_lengthERS0_PKcS4_m
libstdc++.so.6:_ZNSt10filesystem12read_symlinkERKNS_7__cxx114pathERSt10error_code
libstdc++.so.6:_ZNSt10filesystem14symlink_statusERKNS_7__cxx114pathE
libstdc++.so.6:_ZNSt10filesystem6statusERKNS_7__cxx114pathE
libstdc++.so.6:_ZNSt10filesystem7__cxx1118directory_iteratorC2ERKNS0_4pathENS_17directory_optionsEPSt10error_code
libstdc++.so.6:_ZNSt10filesystem7__cxx1118directory_iteratorppEv
libstdc++.so.6:_ZNSt10filesystem7__cxx114path14_M_split_cmptsEv
libstdc++.so.6:_ZNSt10filesystem7__cxx114path5_ListC1ERKS2_
libstdc++.so.6:_ZNSt10filesystem7__cxx114path5_ListC1Ev
libstdc++.so.6:_ZNSt10filesystem7__cxx114pathdVERKS1_
libstdc++.so.6:_ZNSt3_V215system_categoryEv
libstdc++.so.6:_ZNSt7codecvtIDsc11__mbstate_tED2Ev
libstdc++.so.6:_ZSt19__throw_logic_errorPKc
libstdc++.so.6:_ZSt20__throw_length_errorPKc
libstdc++.so.6:_ZTISt7codecvtIDsc11__mbstate_tE
libstdc++.so.6:_ZTVN10__cxxabiv120__si_class_type_infoE
libstdc++.so.6:_ZdlPv
libstdc++.so.6:_ZdlPvm
libstdc++.so.6:_Znwm
libstdc++.so.6:__cxa_guard_acquire
libstdc++.so.6:__cxa_guard_release
