UNKNOWN:_ZNK6icu_706number23NumberFormatterSettingsINS0_24LocalizedNumberFormatterEE10toSkeletonER10UErrorCode
UNKNOWN:_ZNKR6icu_706number23NumberFormatterSettingsINS0_24LocalizedNumberFormatterEE12adoptSymbolsEPNS_15NumberingSystemE
UNKNOWN:_ZNKR6icu_706number23NumberFormatterSettingsINS0_24LocalizedNumberFormatterEE12integerWidthERKNS0_12IntegerWidthE
UNKNOWN:_ZNKR6icu_706number23NumberFormatterSettingsINS0_24LocalizedNumberFormatterEE4signE18UNumberSignDisplay
UNKNOWN:_ZNKR6icu_706number23NumberFormatterSettingsINS0_24LocalizedNumberFormatterEE4unitERKNS_11MeasureUnitE
UNKNOWN:_ZNKR6icu_706number23NumberFormatterSettingsINS0_24LocalizedNumberFormatterEE7perUnitERKNS_11MeasureUnitE
UNKNOWN:_ZNKR6icu_706number23NumberFormatterSettingsINS0_24LocalizedNumberFormatterEE8groupingE23UNumberGroupingStrategy
UNKNOWN:_ZNKR6icu_706number23NumberFormatterSettingsINS0_24LocalizedNumberFormatterEE8notationERKNS0_8NotationE
UNKNOWN:_ZNKR6icu_706number23NumberFormatterSettingsINS0_24LocalizedNumberFormatterEE9precisionERKNS0_9PrecisionE
UNKNOWN:_ZNKR6icu_706number23NumberFormatterSettingsINS0_24LocalizedNumberFormatterEE9unitWidthE16UNumberUnitWidth
UNKNOWN:_ZNO6icu_706number23NumberFormatterSettingsINS0_24LocalizedNumberFormatterEE12roundingModeE25UNumberFormatRoundingMode
UNKNOWN:_ZNO6icu_706number23NumberFormatterSettingsINS0_24LocalizedNumberFormatterEE5scaleERKNS0_5ScaleE
UNKNOWN:_ZTVN6icu_7013FieldPositionE
UNKNOWN:_ZTVN6icu_7013UnicodeStringE
UNKNOWN:_ZTVN6icu_706number15FormattedNumberE
ld-linux-x86-64.so.2:__libc_stack_end
ld-linux-x86-64.so.2:__tls_get_addr
libbrotlidec.so.1:BrotliDecoderCreateInstance
libbrotlidec.so.1:BrotliDecoderDecompressStream
libbrotlidec.so.1:BrotliDecoderDestroyInstance
libbrotlidec.so.1:BrotliDecoderErrorString
libbrotlidec.so.1:BrotliDecoderGetErrorCode
libbrotlidec.so.1:BrotliDecoderSetParameter
libbrotlienc.so.1:BrotliEncoderCompressStream
libbrotlienc.so.1:BrotliEncoderCreateInstance
libbrotlienc.so.1:BrotliEncoderDestroyInstance
libbrotlienc.so.1:BrotliEncoderSetParameter
libbrotlienc.so.1:BrotliEncoderVersion
libc.so.6:__assert_fail
libc.so.6:__cxa_atexit
libc.so.6:__errno_location
libc.so.6:__fprintf_chk
libc.so.6:__getgroups_chk
libc.so.6:__isoc99_fscanf
libc.so.6:__libc_single_threaded
libc.so.6:__libc_start_main
libc.so.6:__memcpy_chk
libc.so.6:__printf_chk
libc.so.6:__snprintf_chk
libc.so.6:__stack_chk_fail
libc.so.6:__sysconf
libc.so.6:__vfprintf_chk
libc.so.6:__vsnprintf_chk
libc.so.6:_exit
libc.so.6:abort
libc.so.6:backtrace
libc.so.6:backtrace_symbols
libc.so.6:calloc
libc.so.6:clock_getres
libc.so.6:clock_gettime
libc.so.6:dl_iterate_phdr
libc.so.6:dladdr
libc.so.6:dlclose
libc.so.6:dlerror
libc.so.6:dlopen
libc.so.6:dlsym
libc.so.6:exit
libc.so.6:fclose
libc.so.6:fcntl
libc.so.6:fdopen
libc.so.6:feof
libc.so.6:ferror
libc.so.6:fflush
libc.so.6:fgets
libc.so.6:fileno
libc.so.6:fopen
libc.so.6:fputc
libc.so.6:fputs
libc.so.6:fread
libc.so.6:free
libc.so.6:fseek
libc.so.6:fstat
libc.so.6:ftell
libc.so.6:fwrite
libc.so.6:getauxval
libc.so.6:getc
libc.so.6:getegid
libc.so.6:geteuid
libc.so.6:getgid
libc.so.6:getgrnam_r
libc.so.6:getpagesize
libc.so.6:getpid
libc.so.6:getpwnam_r
libc.so.6:getpwuid_r
libc.so.6:getrlimit
libc.so.6:getrusage
libc.so.6:gettimeofday
libc.so.6:getuid
libc.so.6:initgroups
libc.so.6:isprint
libc.so.6:isspace
libc.so.6:iswspace
libc.so.6:kill
libc.so.6:localtime_r
libc.so.6:lseek
libc.so.6:madvise
libc.so.6:malloc
libc.so.6:memchr
libc.so.6:memcmp
libc.so.6:memcpy
libc.so.6:memmove
libc.so.6:memrchr
libc.so.6:memset
libc.so.6:mmap
libc.so.6:mprotect
libc.so.6:mremap
libc.so.6:msync
libc.so.6:munmap
libc.so.6:open
libc.so.6:posix_fadvise
libc.so.6:posix_memalign
libc.so.6:prctl
libc.so.6:printf
libc.so.6:pthread_attr_destroy
libc.so.6:pthread_attr_getstack
libc.so.6:pthread_attr_init
libc.so.6:pthread_attr_setdetachstate
libc.so.6:pthread_attr_setstacksize
libc.so.6:pthread_cond_broadcast
libc.so.6:pthread_cond_destroy
libc.so.6:pthread_cond_init
libc.so.6:pthread_cond_signal
libc.so.6:pthread_cond_timedwait
libc.so.6:pthread_cond_wait
libc.so.6:pthread_condattr_destroy
libc.so.6:pthread_condattr_init
libc.so.6:pthread_condattr_setclock
libc.so.6:pthread_create
libc.so.6:pthread_getattr_np
libc.so.6:pthread_getspecific
libc.so.6:pthread_join
libc.so.6:pthread_key_create
libc.so.6:pthread_key_delete
libc.so.6:pthread_kill
libc.so.6:pthread_mutex_destroy
libc.so.6:pthread_mutex_init
libc.so.6:pthread_mutex_lock
libc.so.6:pthread_mutex_trylock
libc.so.6:pthread_mutex_unlock
libc.so.6:pthread_mutexattr_destroy
libc.so.6:pthread_mutexattr_init
libc.so.6:pthread_mutexattr_settype
libc.so.6:pthread_rwlock_destroy
libc.so.6:pthread_rwlock_init
libc.so.6:pthread_rwlock_rdlock
libc.so.6:pthread_rwlock_tryrdlock
libc.so.6:pthread_rwlock_trywrlock
libc.so.6:pthread_rwlock_unlock
libc.so.6:pthread_rwlock_wrlock
libc.so.6:pthread_self
libc.so.6:pthread_setspecific
libc.so.6:pthread_sigmask
libc.so.6:puts
libc.so.6:raise
libc.so.6:realloc
libc.so.6:remove
libc.so.6:rewind
libc.so.6:sched_yield
libc.so.6:seekdir
libc.so.6:sem_destroy
libc.so.6:sem_init
libc.so.6:sem_post
libc.so.6:sem_timedwait
libc.so.6:sem_wait
libc.so.6:setegid
libc.so.6:seteuid
libc.so.6:setgid
libc.so.6:setgroups
libc.so.6:setrlimit
libc.so.6:setuid
libc.so.6:setvbuf
libc.so.6:sigaction
libc.so.6:sigaddset
libc.so.6:sigemptyset
libc.so.6:sigfillset
libc.so.6:signal
libc.so.6:snprintf
libc.so.6:stderr
libc.so.6:stdin
libc.so.6:stdout
libc.so.6:strchr
libc.so.6:strcmp
libc.so.6:strdup
libc.so.6:strerror
libc.so.6:strlen
libc.so.6:strncmp
libc.so.6:strncpy
libc.so.6:strnlen
libc.so.6:strstr
libc.so.6:strtod
libc.so.6:strtol
libc.so.6:strtoll
libc.so.6:strtoul
libc.so.6:strtoull
libc.so.6:syscall
libc.so.6:sysconf
libc.so.6:tcgetattr
libc.so.6:tcsetattr
libc.so.6:telldir
libc.so.6:time
libc.so.6:tmpfile
libc.so.6:toupper
libc.so.6:tzset
libc.so.6:umask
libc.so.6:ungetc
libc.so.6:unlink
libc.so.6:usleep
libc.so.6:write
libcares.so.2:ares_cancel
libcares.so.2:ares_destroy
libcares.so.2:ares_expand_name
libcares.so.2:ares_free_data
libcares.so.2:ares_free_hostent
libcares.so.2:ares_free_string
libcares.so.2:ares_get_servers_ports
libcares.so.2:ares_gethostbyaddr
libcares.so.2:ares_init_options
libcares.so.2:ares_library_cleanup
libcares.so.2:ares_library_init
libcares.so.2:ares_parse_a_reply
libcares.so.2:ares_parse_aaaa_reply
libcares.so.2:ares_parse_caa_reply
libcares.so.2:ares_parse_mx_reply
libcares.so.2:ares_parse_naptr_reply
libcares.so.2:ares_parse_ns_reply
libcares.so.2:ares_parse_ptr_reply
libcares.so.2:ares_parse_soa_reply
libcares.so.2:ares_parse_srv_reply
libcares.so.2:ares_parse_txt_reply_ext
libcares.so.2:ares_process_fd
libcares.so.2:ares_query
libcares.so.2:ares_set_local_ip4
libcares.so.2:ares_set_local_ip6
libcares.so.2:ares_set_servers
libcares.so.2:ares_set_servers_ports
libcares.so.2:ares_strerror
libcrypto.so.1.1:ACCESS_DESCRIPTION_free
libcrypto.so.1.1:ASN1_INTEGER_get_int64
libcrypto.so.1.1:ASN1_INTEGER_to_BN
libcrypto.so.1.1:ASN1_OBJECT_free
libcrypto.so.1.1:ASN1_STRING_to_UTF8
libcrypto.so.1.1:ASN1_TIME_print
libcrypto.so.1.1:BIO_clear_flags
libcrypto.so.1.1:BIO_ctrl
libcrypto.so.1.1:BIO_free_all
libcrypto.so.1.1:BIO_get_data
libcrypto.so.1.1:BIO_get_init
libcrypto.so.1.1:BIO_get_shutdown
libcrypto.so.1.1:BIO_meth_new
libcrypto.so.1.1:BIO_meth_set_create
libcrypto.so.1.1:BIO_meth_set_ctrl
libcrypto.so.1.1:BIO_meth_set_destroy
libcrypto.so.1.1:BIO_meth_set_gets
libcrypto.so.1.1:BIO_meth_set_puts
libcrypto.so.1.1:BIO_meth_set_read
libcrypto.so.1.1:BIO_meth_set_write
libcrypto.so.1.1:BIO_new
libcrypto.so.1.1:BIO_new_file
libcrypto.so.1.1:BIO_new_mem_buf
libcrypto.so.1.1:BIO_printf
libcrypto.so.1.1:BIO_s_mem
libcrypto.so.1.1:BIO_set_data
libcrypto.so.1.1:BIO_set_flags
libcrypto.so.1.1:BIO_set_init
libcrypto.so.1.1:BIO_set_shutdown
libcrypto.so.1.1:BIO_write
libcrypto.so.1.1:BN_CTX_free
libcrypto.so.1.1:BN_CTX_new
libcrypto.so.1.1:BN_bin2bn
libcrypto.so.1.1:BN_bn2binpad
libcrypto.so.1.1:BN_bn2hex
libcrypto.so.1.1:BN_cmp
libcrypto.so.1.1:BN_free
libcrypto.so.1.1:BN_generate_prime_ex
libcrypto.so.1.1:BN_get_word
libcrypto.so.1.1:BN_is_one
libcrypto.so.1.1:BN_is_prime_ex
libcrypto.so.1.1:BN_is_zero
libcrypto.so.1.1:BN_lshift
libcrypto.so.1.1:BN_new
libcrypto.so.1.1:BN_num_bits
libcrypto.so.1.1:BN_print
libcrypto.so.1.1:BN_secure_new
libcrypto.so.1.1:BN_set_word
libcrypto.so.1.1:BN_sub
libcrypto.so.1.1:BN_value_one
libcrypto.so.1.1:CRYPTO_clear_free
libcrypto.so.1.1:CRYPTO_free
libcrypto.so.1.1:CRYPTO_malloc
libcrypto.so.1.1:CRYPTO_memcmp
libcrypto.so.1.1:CRYPTO_memdup
libcrypto.so.1.1:CRYPTO_realloc
libcrypto.so.1.1:CRYPTO_secure_clear_free
libcrypto.so.1.1:CRYPTO_secure_malloc
libcrypto.so.1.1:CRYPTO_secure_malloc_init
libcrypto.so.1.1:CRYPTO_secure_malloc_initialized
libcrypto.so.1.1:CRYPTO_secure_used
libcrypto.so.1.1:DH_check
libcrypto.so.1.1:DH_check_pub_key
libcrypto.so.1.1:DH_compute_key
libcrypto.so.1.1:DH_free
libcrypto.so.1.1:DH_generate_key
libcrypto.so.1.1:DH_generate_parameters_ex
libcrypto.so.1.1:DH_get0_key
libcrypto.so.1.1:DH_get0_pqg
libcrypto.so.1.1:DH_new
libcrypto.so.1.1:DH_set0_key
libcrypto.so.1.1:DH_set0_pqg
libcrypto.so.1.1:DH_size
libcrypto.so.1.1:DSA_get0_pqg
libcrypto.so.1.1:DSA_get0_q
libcrypto.so.1.1:ECDH_compute_key
libcrypto.so.1.1:ECDSA_SIG_free
libcrypto.so.1.1:ECDSA_SIG_get0_r
libcrypto.so.1.1:ECDSA_SIG_get0_s
libcrypto.so.1.1:ECDSA_SIG_new
libcrypto.so.1.1:ECDSA_SIG_set0
libcrypto.so.1.1:EC_GROUP_free
libcrypto.so.1.1:EC_GROUP_get_curve_name
libcrypto.so.1.1:EC_GROUP_get_degree
libcrypto.so.1.1:EC_GROUP_get_order
libcrypto.so.1.1:EC_GROUP_new_by_curve_name
libcrypto.so.1.1:EC_GROUP_order_bits
libcrypto.so.1.1:EC_KEY_check_key
libcrypto.so.1.1:EC_KEY_dup
libcrypto.so.1.1:EC_KEY_free
libcrypto.so.1.1:EC_KEY_generate_key
libcrypto.so.1.1:EC_KEY_get0_group
libcrypto.so.1.1:EC_KEY_get0_private_key
libcrypto.so.1.1:EC_KEY_get0_public_key
libcrypto.so.1.1:EC_KEY_get_conv_form
libcrypto.so.1.1:EC_KEY_new_by_curve_name
libcrypto.so.1.1:EC_KEY_set_private_key
libcrypto.so.1.1:EC_KEY_set_public_key
libcrypto.so.1.1:EC_KEY_set_public_key_affine_coordinates
libcrypto.so.1.1:EC_POINT_free
libcrypto.so.1.1:EC_POINT_get_affine_coordinates
libcrypto.so.1.1:EC_POINT_mul
libcrypto.so.1.1:EC_POINT_new
libcrypto.so.1.1:EC_POINT_oct2point
libcrypto.so.1.1:EC_POINT_point2oct
libcrypto.so.1.1:EC_curve_nid2nist
libcrypto.so.1.1:EC_curve_nist2nid
libcrypto.so.1.1:EC_get_builtin_curves
libcrypto.so.1.1:ENGINE_by_id
libcrypto.so.1.1:ENGINE_ctrl_cmd_string
libcrypto.so.1.1:ENGINE_finish
libcrypto.so.1.1:ENGINE_free
libcrypto.so.1.1:ENGINE_init
libcrypto.so.1.1:ENGINE_load_builtin_engines
libcrypto.so.1.1:ENGINE_load_private_key
libcrypto.so.1.1:ENGINE_set_default
libcrypto.so.1.1:ERR_clear_error
libcrypto.so.1.1:ERR_error_string
libcrypto.so.1.1:ERR_error_string_n
libcrypto.so.1.1:ERR_func_error_string
libcrypto.so.1.1:ERR_get_error
libcrypto.so.1.1:ERR_lib_error_string
libcrypto.so.1.1:ERR_load_ENGINE_strings
libcrypto.so.1.1:ERR_peek_error
libcrypto.so.1.1:ERR_peek_last_error
libcrypto.so.1.1:ERR_pop_to_mark
libcrypto.so.1.1:ERR_print_errors
libcrypto.so.1.1:ERR_print_errors_cb
libcrypto.so.1.1:ERR_print_errors_fp
libcrypto.so.1.1:ERR_put_error
libcrypto.so.1.1:ERR_reason_error_string
libcrypto.so.1.1:ERR_set_mark
libcrypto.so.1.1:EVP_BytesToKey
libcrypto.so.1.1:EVP_CIPHER_CTX_block_size
libcrypto.so.1.1:EVP_CIPHER_CTX_cipher
libcrypto.so.1.1:EVP_CIPHER_CTX_ctrl
libcrypto.so.1.1:EVP_CIPHER_CTX_free
libcrypto.so.1.1:EVP_CIPHER_CTX_new
libcrypto.so.1.1:EVP_CIPHER_CTX_reset
libcrypto.so.1.1:EVP_CIPHER_CTX_set_flags
libcrypto.so.1.1:EVP_CIPHER_CTX_set_key_length
libcrypto.so.1.1:EVP_CIPHER_CTX_set_padding
libcrypto.so.1.1:EVP_CIPHER_block_size
libcrypto.so.1.1:EVP_CIPHER_do_all_sorted
libcrypto.so.1.1:EVP_CIPHER_flags
libcrypto.so.1.1:EVP_CIPHER_iv_length
libcrypto.so.1.1:EVP_CIPHER_key_length
libcrypto.so.1.1:EVP_CIPHER_nid
libcrypto.so.1.1:EVP_CipherFinal_ex
libcrypto.so.1.1:EVP_CipherInit_ex
libcrypto.so.1.1:EVP_CipherUpdate
libcrypto.so.1.1:EVP_DecryptInit_ex
libcrypto.so.1.1:EVP_DigestFinalXOF
libcrypto.so.1.1:EVP_DigestFinal_ex
libcrypto.so.1.1:EVP_DigestInit_ex
libcrypto.so.1.1:EVP_DigestSign
libcrypto.so.1.1:EVP_DigestSignFinal
libcrypto.so.1.1:EVP_DigestSignInit
libcrypto.so.1.1:EVP_DigestUpdate
libcrypto.so.1.1:EVP_DigestVerify
libcrypto.so.1.1:EVP_DigestVerifyInit
libcrypto.so.1.1:EVP_EncryptInit_ex
libcrypto.so.1.1:EVP_MD_CTX_copy
libcrypto.so.1.1:EVP_MD_CTX_free
libcrypto.so.1.1:EVP_MD_CTX_md
libcrypto.so.1.1:EVP_MD_CTX_new
libcrypto.so.1.1:EVP_MD_do_all_sorted
libcrypto.so.1.1:EVP_MD_flags
libcrypto.so.1.1:EVP_MD_size
libcrypto.so.1.1:EVP_PBE_scrypt
libcrypto.so.1.1:EVP_PKCS82PKEY
libcrypto.so.1.1:EVP_PKEY2PKCS8
libcrypto.so.1.1:EVP_PKEY_CTX_ctrl
libcrypto.so.1.1:EVP_PKEY_CTX_free
libcrypto.so.1.1:EVP_PKEY_CTX_new
libcrypto.so.1.1:EVP_PKEY_CTX_new_id
libcrypto.so.1.1:EVP_PKEY_assign
libcrypto.so.1.1:EVP_PKEY_base_id
libcrypto.so.1.1:EVP_PKEY_bits
libcrypto.so.1.1:EVP_PKEY_decrypt
libcrypto.so.1.1:EVP_PKEY_decrypt_init
libcrypto.so.1.1:EVP_PKEY_derive
libcrypto.so.1.1:EVP_PKEY_derive_init
libcrypto.so.1.1:EVP_PKEY_derive_set_peer
libcrypto.so.1.1:EVP_PKEY_encrypt
libcrypto.so.1.1:EVP_PKEY_encrypt_init
libcrypto.so.1.1:EVP_PKEY_free
libcrypto.so.1.1:EVP_PKEY_get0
libcrypto.so.1.1:EVP_PKEY_get0_DSA
libcrypto.so.1.1:EVP_PKEY_get0_EC_KEY
libcrypto.so.1.1:EVP_PKEY_get0_RSA
libcrypto.so.1.1:EVP_PKEY_get1_EC_KEY
libcrypto.so.1.1:EVP_PKEY_get1_RSA
libcrypto.so.1.1:EVP_PKEY_get_raw_private_key
libcrypto.so.1.1:EVP_PKEY_get_raw_public_key
libcrypto.so.1.1:EVP_PKEY_id
libcrypto.so.1.1:EVP_PKEY_keygen
libcrypto.so.1.1:EVP_PKEY_keygen_init
libcrypto.so.1.1:EVP_PKEY_new
libcrypto.so.1.1:EVP_PKEY_new_raw_private_key
libcrypto.so.1.1:EVP_PKEY_new_raw_public_key
libcrypto.so.1.1:EVP_PKEY_paramgen
libcrypto.so.1.1:EVP_PKEY_paramgen_init
libcrypto.so.1.1:EVP_PKEY_set1_EC_KEY
libcrypto.so.1.1:EVP_PKEY_set1_RSA
libcrypto.so.1.1:EVP_PKEY_sign
libcrypto.so.1.1:EVP_PKEY_sign_init
libcrypto.so.1.1:EVP_PKEY_size
libcrypto.so.1.1:EVP_PKEY_up_ref
libcrypto.so.1.1:EVP_PKEY_verify
libcrypto.so.1.1:EVP_PKEY_verify_init
libcrypto.so.1.1:EVP_PKEY_verify_recover
libcrypto.so.1.1:EVP_PKEY_verify_recover_init
libcrypto.so.1.1:EVP_aes_128_cbc
libcrypto.so.1.1:EVP_get_cipherbyname
libcrypto.so.1.1:EVP_get_digestbyname
libcrypto.so.1.1:EVP_md5
libcrypto.so.1.1:EVP_sha1
libcrypto.so.1.1:EVP_sha256
libcrypto.so.1.1:EVP_sha512
libcrypto.so.1.1:FIPS_mode
libcrypto.so.1.1:FIPS_mode_set
libcrypto.so.1.1:GENERAL_NAME_free
libcrypto.so.1.1:HMAC_CTX_free
libcrypto.so.1.1:HMAC_CTX_new
libcrypto.so.1.1:HMAC_Final
libcrypto.so.1.1:HMAC_Init_ex
libcrypto.so.1.1:HMAC_Update
libcrypto.so.1.1:NETSCAPE_SPKI_b64_decode
libcrypto.so.1.1:NETSCAPE_SPKI_free
libcrypto.so.1.1:NETSCAPE_SPKI_get_pubkey
libcrypto.so.1.1:NETSCAPE_SPKI_verify
libcrypto.so.1.1:OBJ_nid2ln
libcrypto.so.1.1:OBJ_nid2sn
libcrypto.so.1.1:OBJ_obj2nid
libcrypto.so.1.1:OBJ_obj2txt
libcrypto.so.1.1:OBJ_sn2nid
libcrypto.so.1.1:OBJ_txt2nid
libcrypto.so.1.1:OPENSSL_INIT_free
libcrypto.so.1.1:OPENSSL_INIT_new
libcrypto.so.1.1:OPENSSL_INIT_set_config_filename
libcrypto.so.1.1:OPENSSL_init
libcrypto.so.1.1:OPENSSL_sk_delete
libcrypto.so.1.1:OPENSSL_sk_new
libcrypto.so.1.1:OPENSSL_sk_new_null
libcrypto.so.1.1:OPENSSL_sk_num
libcrypto.so.1.1:OPENSSL_sk_pop_free
libcrypto.so.1.1:OPENSSL_sk_push
libcrypto.so.1.1:OPENSSL_sk_value
libcrypto.so.1.1:OPENSSL_sk_zero
libcrypto.so.1.1:OpenSSL_version_num
libcrypto.so.1.1:PEM_bytes_read_bio
libcrypto.so.1.1:PEM_read_bio_DHparams
libcrypto.so.1.1:PEM_read_bio_PrivateKey
libcrypto.so.1.1:PEM_read_bio_X509
libcrypto.so.1.1:PEM_read_bio_X509_AUX
libcrypto.so.1.1:PEM_read_bio_X509_CRL
libcrypto.so.1.1:PEM_write_bio_ECPrivateKey
libcrypto.so.1.1:PEM_write_bio_PKCS8PrivateKey
libcrypto.so.1.1:PEM_write_bio_PUBKEY
libcrypto.so.1.1:PEM_write_bio_RSAPrivateKey
libcrypto.so.1.1:PEM_write_bio_RSAPublicKey
libcrypto.so.1.1:PEM_write_bio_X509
libcrypto.so.1.1:PKCS12_free
libcrypto.so.1.1:PKCS12_parse
libcrypto.so.1.1:PKCS5_PBKDF2_HMAC
libcrypto.so.1.1:PKCS8_PRIV_KEY_INFO_free
libcrypto.so.1.1:RAND_bytes
libcrypto.so.1.1:RAND_poll
libcrypto.so.1.1:RAND_status
libcrypto.so.1.1:RSA_free
libcrypto.so.1.1:RSA_get0_crt_params
libcrypto.so.1.1:RSA_get0_factors
libcrypto.so.1.1:RSA_get0_key
libcrypto.so.1.1:RSA_get0_pss_params
libcrypto.so.1.1:RSA_new
libcrypto.so.1.1:RSA_pkey_ctx_ctrl
libcrypto.so.1.1:RSA_set0_crt_params
libcrypto.so.1.1:RSA_set0_factors
libcrypto.so.1.1:RSA_set0_key
libcrypto.so.1.1:SHA1
libcrypto.so.1.1:X509V3_EXT_d2i
libcrypto.so.1.1:X509V3_EXT_get
libcrypto.so.1.1:X509V3_EXT_get_nid
libcrypto.so.1.1:X509V3_EXT_print
libcrypto.so.1.1:X509V3_EXT_val_prn
libcrypto.so.1.1:X509V3_conf_free
libcrypto.so.1.1:X509_CRL_free
libcrypto.so.1.1:X509_NAME_ENTRY_get_data
libcrypto.so.1.1:X509_NAME_ENTRY_get_object
libcrypto.so.1.1:X509_NAME_entry_count
libcrypto.so.1.1:X509_NAME_get_entry
libcrypto.so.1.1:X509_NAME_oneline
libcrypto.so.1.1:X509_NAME_print_ex
libcrypto.so.1.1:X509_PUBKEY_get
libcrypto.so.1.1:X509_STORE_CTX_free
libcrypto.so.1.1:X509_STORE_CTX_get1_issuer
libcrypto.so.1.1:X509_STORE_CTX_init
libcrypto.so.1.1:X509_STORE_CTX_new
libcrypto.so.1.1:X509_STORE_add_cert
libcrypto.so.1.1:X509_STORE_add_crl
libcrypto.so.1.1:X509_STORE_new
libcrypto.so.1.1:X509_STORE_set_default_paths
libcrypto.so.1.1:X509_STORE_set_flags
libcrypto.so.1.1:X509_STORE_up_ref
libcrypto.so.1.1:X509_check_ca
libcrypto.so.1.1:X509_check_email
libcrypto.so.1.1:X509_check_host
libcrypto.so.1.1:X509_check_ip_asc
libcrypto.so.1.1:X509_check_issued
libcrypto.so.1.1:X509_check_private_key
libcrypto.so.1.1:X509_digest
libcrypto.so.1.1:X509_dup
libcrypto.so.1.1:X509_free
libcrypto.so.1.1:X509_get0_notAfter
libcrypto.so.1.1:X509_get0_notBefore
libcrypto.so.1.1:X509_get_ext
libcrypto.so.1.1:X509_get_ext_by_NID
libcrypto.so.1.1:X509_get_ext_d2i
libcrypto.so.1.1:X509_get_issuer_name
libcrypto.so.1.1:X509_get_pubkey
libcrypto.so.1.1:X509_get_serialNumber
libcrypto.so.1.1:X509_get_subject_name
libcrypto.so.1.1:X509_up_ref
libcrypto.so.1.1:X509_verify
libcrypto.so.1.1:X509_verify_cert_error_string
libcrypto.so.1.1:d2i_ECDSA_SIG
libcrypto.so.1.1:d2i_PKCS12_bio
libcrypto.so.1.1:d2i_PKCS8PrivateKey_bio
libcrypto.so.1.1:d2i_PKCS8_PRIV_KEY_INFO_bio
libcrypto.so.1.1:d2i_PUBKEY
libcrypto.so.1.1:d2i_PrivateKey
libcrypto.so.1.1:d2i_PublicKey
libcrypto.so.1.1:d2i_X509
libcrypto.so.1.1:i2d_ECDSA_SIG
libcrypto.so.1.1:i2d_ECPrivateKey_bio
libcrypto.so.1.1:i2d_PKCS8PrivateKey_bio
libcrypto.so.1.1:i2d_PKCS8_PRIV_KEY_INFO_bio
libcrypto.so.1.1:i2d_PUBKEY_bio
libcrypto.so.1.1:i2d_RSAPrivateKey_bio
libcrypto.so.1.1:i2d_RSAPublicKey_bio
libcrypto.so.1.1:i2d_RSA_PUBKEY
libcrypto.so.1.1:i2d_X509
libcrypto.so.1.1:i2t_ASN1_OBJECT
libcrypto.so.1.1:i2v_GENERAL_NAME
libgcc_s.so.1:__popcountdi2
libicui18n.so.70:_ZN6icu_7010DateFormat18createDateInstanceENS0_6EStyleERKNS_6LocaleE
libicui18n.so.70:_ZN6icu_7010DateFormat18createTimeInstanceENS0_6EStyleERKNS_6LocaleE
libicui18n.so.70:_ZN6icu_7010DateFormat22createDateTimeInstanceENS0_6EStyleES1_RKNS_6LocaleE
libicui18n.so.70:_ZN6icu_7011MeasureUnit10getPercentEv
libicui18n.so.70:_ZN6icu_7011MeasureUnit12getAvailableEPS0_iR10UErrorCode
libicui18n.so.70:_ZN6icu_7011MeasureUnitC1ERKS0_
libicui18n.so.70:_ZN6icu_7011MeasureUnitC1Ev
libicui18n.so.70:_ZN6icu_7011MeasureUnitD1Ev
libicui18n.so.70:_ZN6icu_7011MeasureUnitaSEOS0_
libicui18n.so.70:_ZN6icu_7011MeasureUnitaSERKS0_
libicui18n.so.70:_ZN6icu_7011PluralRules19getAvailableLocalesER10UErrorCode
libicui18n.so.70:_ZN6icu_7011PluralRules9forLocaleERKNS_6LocaleE11UPluralTypeR10UErrorCode
libicui18n.so.70:_ZN6icu_7012CurrencyUnitC1ENS_14ConstChar16PtrER10UErrorCode
libicui18n.so.70:_ZN6icu_7012CurrencyUnitD1Ev
libicui18n.so.70:_ZN6icu_7012NumberFormat14createInstanceERKNS_6LocaleE18UNumberFormatStyleR10UErrorCode
libicui18n.so.70:_ZN6icu_7013DecimalFormat16getStaticClassIDEv
libicui18n.so.70:_ZN6icu_7013DecimalFormat24setMinimumGroupingDigitsEi
libicui18n.so.70:_ZN6icu_7013FieldPositionD1Ev
libicui18n.so.70:_ZN6icu_7013FormattedListD1Ev
libicui18n.so.70:_ZN6icu_7013ListFormatter14createInstanceERKNS_6LocaleE18UListFormatterType19UListFormatterWidthR10UErrorCode
libicui18n.so.70:_ZN6icu_7015NumberingSystem14createInstanceERKNS_6LocaleER10UErrorCode
libicui18n.so.70:_ZN6icu_7015NumberingSystem20createInstanceByNameEPKcR10UErrorCode
libicui18n.so.70:_ZN6icu_7016SimpleDateFormatC1ERKNS_13UnicodeStringERKNS_6LocaleER10UErrorCode
libicui18n.so.70:_ZN6icu_7016SimpleDateFormatD0Ev
libicui18n.so.70:_ZN6icu_7017GregorianCalendar16getStaticClassIDEv
libicui18n.so.70:_ZN6icu_7017GregorianCalendar18setGregorianChangeEdR10UErrorCode
libicui18n.so.70:_ZN6icu_7018DateIntervalFormat14createInstanceERKNS_13UnicodeStringERKNS_6LocaleER10UErrorCode
libicui18n.so.70:_ZN6icu_7021FieldPositionIterator4nextERNS_13FieldPositionE
libicui18n.so.70:_ZN6icu_7021FieldPositionIteratorC1Ev
libicui18n.so.70:_ZN6icu_7021FieldPositionIteratorD1Ev
libicui18n.so.70:_ZN6icu_7021FormattedDateIntervalD1Ev
libicui18n.so.70:_ZN6icu_7024ConstrainedFieldPosition17constrainCategoryEi
libicui18n.so.70:_ZN6icu_7024ConstrainedFieldPositionC1Ev
libicui18n.so.70:_ZN6icu_7024ConstrainedFieldPositionD1Ev
libicui18n.so.70:_ZN6icu_7024DateTimePatternGenerator14createInstanceERKNS_6LocaleER10UErrorCode
libicui18n.so.70:_ZN6icu_7024DateTimePatternGenerator14getBestPatternERKNS_13UnicodeStringE28UDateTimePatternMatchOptionsR10UErrorCode
libicui18n.so.70:_ZN6icu_7024DateTimePatternGenerator17staticGetSkeletonERKNS_13UnicodeStringER10UErrorCode
libicui18n.so.70:_ZN6icu_7025FormattedRelativeDateTimeD1Ev
libicui18n.so.70:_ZN6icu_7025RelativeDateTimeFormatterC1ERKNS_6LocaleEPNS_12NumberFormatE35UDateRelativeDateTimeFormatterStyle15UDisplayContextR10UErrorCode
libicui18n.so.70:_ZN6icu_7025RelativeDateTimeFormatterD0Ev
libicui18n.so.70:_ZN6icu_706number12IntegerWidth10zeroFillToEi
libicui18n.so.70:_ZN6icu_706number15FormattedNumberD1Ev
libicui18n.so.70:_ZN6icu_706number15FormattedNumberaSEOS1_
libicui18n.so.70:_ZN6icu_706number15NumberFormatter10withLocaleERKNS_6LocaleE
libicui18n.so.70:_ZN6icu_706number24LocalizedNumberFormatterC1EOS1_
libicui18n.so.70:_ZN6icu_706number24LocalizedNumberFormatterC1ERKS1_
libicui18n.so.70:_ZN6icu_706number24LocalizedNumberFormatterD1Ev
libicui18n.so.70:_ZN6icu_706number24LocalizedNumberFormatteraSEOS1_
libicui18n.so.70:_ZN6icu_706number5Scale10powerOfTenEi
libicui18n.so.70:_ZN6icu_706number5ScaleD1Ev
libicui18n.so.70:_ZN6icu_706number8Notation10scientificEv
libicui18n.so.70:_ZN6icu_706number8Notation11compactLongEv
libicui18n.so.70:_ZN6icu_706number8Notation11engineeringEv
libicui18n.so.70:_ZN6icu_706number8Notation12compactShortEv
libicui18n.so.70:_ZN6icu_706number9Precision14minMaxFractionEii
libicui18n.so.70:_ZN6icu_706number9Precision23minMaxSignificantDigitsEii
libicui18n.so.70:_ZN6icu_708Calendar14createInstanceEPNS_8TimeZoneERKNS_6LocaleER10UErrorCode
libicui18n.so.70:_ZN6icu_708Calendar14createInstanceERKNS_6LocaleER10UErrorCode
libicui18n.so.70:_ZN6icu_708Calendar15setTimeInMillisEdR10UErrorCode
libicui18n.so.70:_ZN6icu_708Calendar25getKeywordValuesForLocaleEPKcRKNS_6LocaleEaR10UErrorCode
libicui18n.so.70:_ZN6icu_708Collator14createInstanceERKNS_6LocaleER10UErrorCode
libicui18n.so.70:_ZN6icu_708Collator19getAvailableLocalesERi
libicui18n.so.70:_ZN6icu_708Collator25getKeywordValuesForLocaleEPKcRKNS_6LocaleEaR10UErrorCode
libicui18n.so.70:_ZN6icu_708TimeZone12adoptDefaultEPS0_
libicui18n.so.70:_ZN6icu_708TimeZone13createDefaultEv
libicui18n.so.70:_ZN6icu_708TimeZone14createTimeZoneERKNS_13UnicodeStringE
libicui18n.so.70:_ZN6icu_708TimeZone14getCanonicalIDERKNS_13UnicodeStringERS1_R10UErrorCode
libicui18n.so.70:_ZN6icu_708TimeZone16getTZDataVersionER10UErrorCode
libicui18n.so.70:_ZN6icu_708TimeZone18detectHostTimeZoneEv
libicui18n.so.70:_ZN6icu_708TimeZone27createTimeZoneIDEnumerationE19USystemTimeZoneTypePKcPKiR10UErrorCode
libicui18n.so.70:_ZNK6icu_7010DateFormat6formatEdRNS_13UnicodeStringE
libicui18n.so.70:_ZNK6icu_7010DateFormat6formatEdRNS_13UnicodeStringEPNS_21FieldPositionIteratorER10UErrorCode
libicui18n.so.70:_ZNK6icu_7011MeasureUnit10getSubtypeEv
libicui18n.so.70:_ZNK6icu_7011MeasureUnit7getTypeEv
libicui18n.so.70:_ZNK6icu_7011MeasureUniteqERKNS_7UObjectE
libicui18n.so.70:_ZNK6icu_7011PluralRules11getKeywordsER10UErrorCode
libicui18n.so.70:_ZNK6icu_7011PluralRules6selectERKNS_6number15FormattedNumberER10UErrorCode
libicui18n.so.70:_ZNK6icu_7013FormattedList12nextPositionERNS_24ConstrainedFieldPositionER10UErrorCode
libicui18n.so.70:_ZNK6icu_7013FormattedList8toStringER10UErrorCode
libicui18n.so.70:_ZNK6icu_7013ListFormatter20formatStringsToValueEPKNS_13UnicodeStringEiR10UErrorCode
libicui18n.so.70:_ZNK6icu_7015NumberingSystem7getNameEv
libicui18n.so.70:_ZNK6icu_7018DateIntervalFormat13formatToValueERNS_8CalendarES2_R10UErrorCode
libicui18n.so.70:_ZNK6icu_7021FormattedDateInterval12nextPositionERNS_24ConstrainedFieldPositionER10UErrorCode
libicui18n.so.70:_ZNK6icu_7021FormattedDateInterval8toStringER10UErrorCode
libicui18n.so.70:_ZNK6icu_7024DateTimePatternGenerator19getDefaultHourCycleER10UErrorCode
libicui18n.so.70:_ZNK6icu_7024DateTimePatternGenerator19getFieldDisplayNameE21UDateTimePatternField23UDateTimePGDisplayWidth
libicui18n.so.70:_ZNK6icu_7024DateTimePatternGenerator5cloneEv
libicui18n.so.70:_ZNK6icu_7025FormattedRelativeDateTime12nextPositionERNS_24ConstrainedFieldPositionER10UErrorCode
libicui18n.so.70:_ZNK6icu_7025FormattedRelativeDateTime8toStringER10UErrorCode
libicui18n.so.70:_ZNK6icu_7025RelativeDateTimeFormatter13formatToValueEd21URelativeDateTimeUnitR10UErrorCode
libicui18n.so.70:_ZNK6icu_7025RelativeDateTimeFormatter14getFormatStyleEv
libicui18n.so.70:_ZNK6icu_7025RelativeDateTimeFormatter20formatNumericToValueEd21URelativeDateTimeUnitR10UErrorCode
libicui18n.so.70:_ZNK6icu_706number15FormattedNumber12nextPositionERNS_24ConstrainedFieldPositionER10UErrorCode
libicui18n.so.70:_ZNK6icu_706number15FormattedNumber8toStringER10UErrorCode
libicui18n.so.70:_ZNK6icu_706number24LocalizedNumberFormatter12formatDoubleEdR10UErrorCode
libicui18n.so.70:_ZNK6icu_706number24LocalizedNumberFormatter13formatDecimalENS_11StringPieceER10UErrorCode
libicui18n.so.70:_ZNK6icu_708Calendar11getTimeZoneEv
libicui18n.so.70:_ZNK6icu_708Calendar17getFirstDayOfWeekEv
libicui18n.so.70:_ZNK6icu_708Calendar25getMinimalDaysInFirstWeekEv
libicui18n.so.70:_ZNK6icu_708TimeZone14getDisplayNameEaNS0_12EDisplayTypeERNS_13UnicodeStringE
libicui18n.so.70:ucal_setDefaultTimeZone_70
libicui18n.so.70:ulocdata_getCLDRVersion_70
libicuuc.so.70:UCNV_TO_U_CALLBACK_STOP_70
libicuuc.so.70:_ZN6icu_7010UnicodeSet10complementEv
libicuuc.so.70:_ZN6icu_7010UnicodeSet16removeAllStringsEv
libicuuc.so.70:_ZN6icu_7010UnicodeSet21applyIntPropertyValueE9UPropertyiR10UErrorCode
libicuuc.so.70:_ZN6icu_7010UnicodeSet3addEi
libicuuc.so.70:_ZN6icu_7010UnicodeSet3addEii
libicuuc.so.70:_ZN6icu_7010UnicodeSet6freezeEv
libicuuc.so.70:_ZN6icu_7010UnicodeSet9closeOverEi
libicuuc.so.70:_ZN6icu_7010UnicodeSet9removeAllERKS0_
libicuuc.so.70:_ZN6icu_7010UnicodeSetC1ERKS0_
libicuuc.so.70:_ZN6icu_7010UnicodeSetC1Eii
libicuuc.so.70:_ZN6icu_7010UnicodeSetC1Ev
libicuuc.so.70:_ZN6icu_7010UnicodeSetD1Ev
libicuuc.so.70:_ZN6icu_7010UnicodeSetaSERKS0_
libicuuc.so.70:_ZN6icu_7011Normalizer211getInstanceEPKcS2_19UNormalization2ModeR10UErrorCode
libicuuc.so.70:_ZN6icu_7011StringPieceC1EPKc
libicuuc.so.70:_ZN6icu_7013BreakIterator18createLineInstanceERKNS_6LocaleER10UErrorCode
libicuuc.so.70:_ZN6icu_7013BreakIterator18createWordInstanceERKNS_6LocaleER10UErrorCode
libicuuc.so.70:_ZN6icu_7013BreakIterator22createSentenceInstanceERKNS_6LocaleER10UErrorCode
libicuuc.so.70:_ZN6icu_7013BreakIterator23createCharacterInstanceERKNS_6LocaleER10UErrorCode
libicuuc.so.70:_ZN6icu_7013LocaleBuilder10setVariantENS_11StringPieceE
libicuuc.so.70:_ZN6icu_7013LocaleBuilder11setLanguageENS_11StringPieceE
libicuuc.so.70:_ZN6icu_7013LocaleBuilder14setLanguageTagENS_11StringPieceE
libicuuc.so.70:_ZN6icu_7013LocaleBuilder15clearExtensionsEv
libicuuc.so.70:_ZN6icu_7013LocaleBuilder23setUnicodeLocaleKeywordENS_11StringPieceES1_
libicuuc.so.70:_ZN6icu_7013LocaleBuilder5buildER10UErrorCode
libicuuc.so.70:_ZN6icu_7013LocaleBuilder9setLocaleERKNS_6LocaleE
libicuuc.so.70:_ZN6icu_7013LocaleBuilder9setRegionENS_11StringPieceE
libicuuc.so.70:_ZN6icu_7013LocaleBuilder9setScriptENS_11StringPieceE
libicuuc.so.70:_ZN6icu_7013LocaleBuilderC1Ev
libicuuc.so.70:_ZN6icu_7013LocaleBuilderD1Ev
libicuuc.so.70:_ZN6icu_7013LocaleMatcher6ResultD1Ev
libicuuc.so.70:_ZN6icu_7013LocaleMatcher7Builder16setDefaultLocaleEPKNS_6LocaleE
libicuuc.so.70:_ZN6icu_7013LocaleMatcher7Builder18addSupportedLocaleERKNS_6LocaleE
libicuuc.so.70:_ZN6icu_7013LocaleMatcher7BuilderD1Ev
libicuuc.so.70:_ZN6icu_7013LocaleMatcherD1Ev
libicuuc.so.70:_ZN6icu_7013UnicodeString5setToEaNS_14ConstChar16PtrEi
libicuuc.so.70:_ZN6icu_7013UnicodeString6appendEi
libicuuc.so.70:_ZN6icu_7013UnicodeString7toUpperEv
libicuuc.so.70:_ZN6icu_7013UnicodeString8doAppendEPKDsii
libicuuc.so.70:_ZN6icu_7013UnicodeString8fromUTF8ENS_11StringPieceE
libicuuc.so.70:_ZN6icu_7013UnicodeStringC1EOS0_
libicuuc.so.70:_ZN6icu_7013UnicodeStringC1EPKDsi
libicuuc.so.70:_ZN6icu_7013UnicodeStringC1EPKc
libicuuc.so.70:_ZN6icu_7013UnicodeStringC1EPKciNS0_10EInvariantE
libicuuc.so.70:_ZN6icu_7013UnicodeStringC1ERKS0_
libicuuc.so.70:_ZN6icu_7013UnicodeStringC1EaNS_14ConstChar16PtrEi
libicuuc.so.70:_ZN6icu_7013UnicodeStringC1Ei
libicuuc.so.70:_ZN6icu_7013UnicodeStringD1Ev
libicuuc.so.70:_ZN6icu_7013UnicodeStringaSEOS0_
libicuuc.so.70:_ZN6icu_7013UnicodeStringaSERKS0_
libicuuc.so.70:_ZN6icu_7018LocaleDisplayNames14createInstanceERKNS_6LocaleEP15UDisplayContexti
libicuuc.so.70:_ZN6icu_7020CheckedArrayByteSinkC1EPci
libicuuc.so.70:_ZN6icu_7020CheckedArrayByteSinkD1Ev
libicuuc.so.70:_ZN6icu_706Locale12canonicalizeER10UErrorCode
libicuuc.so.70:_ZN6icu_706Locale14createFromNameEPKc
libicuuc.so.70:_ZN6icu_706Locale14forLanguageTagENS_11StringPieceER10UErrorCode
libicuuc.so.70:_ZN6icu_706Locale15createCanonicalEPKc
libicuuc.so.70:_ZN6icu_706Locale15minimizeSubtagsER10UErrorCode
libicuuc.so.70:_ZN6icu_706Locale16addLikelySubtagsER10UErrorCode
libicuuc.so.70:_ZN6icu_706Locale22setUnicodeKeywordValueENS_11StringPieceES1_R10UErrorCode
libicuuc.so.70:_ZN6icu_706Locale8IteratorD2Ev
libicuuc.so.70:_ZN6icu_706LocaleC1EPKcS2_S2_S2_
libicuuc.so.70:_ZN6icu_706LocaleC1ERKS0_
libicuuc.so.70:_ZN6icu_706LocaleC1Ev
libicuuc.so.70:_ZN6icu_706LocaleD1Ev
libicuuc.so.70:_ZN6icu_706LocaleaSEOS0_
libicuuc.so.70:_ZN6icu_706LocaleaSERKS0_
libicuuc.so.70:_ZN6icu_707UMemorydlEPv
libicuuc.so.70:_ZN6icu_707UMemorynwEm
libicuuc.so.70:_ZN6icu_708ByteSink15GetAppendBufferEiiPciPi
libicuuc.so.70:_ZN6icu_708ByteSink5FlushEv
libicuuc.so.70:_ZN6icu_708ByteSinkD2Ev
libicuuc.so.70:_ZNK6icu_7010UnicodeSet11getRangeEndEi
libicuuc.so.70:_ZNK6icu_7010UnicodeSet13getRangeCountEv
libicuuc.so.70:_ZNK6icu_7010UnicodeSet13getRangeStartEi
libicuuc.so.70:_ZNK6icu_7010UnicodeSet4sizeEv
libicuuc.so.70:_ZNK6icu_7010UnicodeSet7isEmptyEv
libicuuc.so.70:_ZNK6icu_7010UnicodeSet8containsEi
libicuuc.so.70:_ZNK6icu_7013LocaleMatcher18getBestMatchResultERKNS_6LocaleER10UErrorCode
libicuuc.so.70:_ZNK6icu_7013LocaleMatcher18getBestMatchResultERNS_6Locale8IteratorER10UErrorCode
libicuuc.so.70:_ZNK6icu_7013LocaleMatcher6Result18makeResolvedLocaleER10UErrorCode
libicuuc.so.70:_ZNK6icu_7013LocaleMatcher7Builder5buildER10UErrorCode
libicuuc.so.70:_ZNK6icu_7013UnicodeString11countChar32Eii
libicuuc.so.70:_ZNK6icu_7013UnicodeString13doCaseCompareEiiPKDsiij
libicuuc.so.70:_ZNK6icu_7013UnicodeString13tempSubStringEii
libicuuc.so.70:_ZNK6icu_7013UnicodeString14getChar32StartEi
libicuuc.so.70:_ZNK6icu_7013UnicodeString5cloneEv
libicuuc.so.70:_ZNK6icu_7013UnicodeString6toUTF8ERNS_8ByteSinkE
libicuuc.so.70:_ZNK6icu_7013UnicodeString7indexOfEPKDsiiii
libicuuc.so.70:_ZNK6icu_7013UnicodeString8char32AtEi
libicuuc.so.70:_ZNK6icu_7013UnicodeString8doEqualsERKS0_i
libicuuc.so.70:_ZNK6icu_706Locale11getBaseNameEv
libicuuc.so.70:_ZNK6icu_706Locale13toLanguageTagERNS_8ByteSinkER10UErrorCode
libicuuc.so.70:_ZNK6icu_706Locale14createKeywordsER10UErrorCode
libicuuc.so.70:_ZNK6icu_706Locale15getKeywordValueEPKcPciR10UErrorCode
libicuuc.so.70:_ZNK6icu_706Locale22getUnicodeKeywordValueENS_11StringPieceERNS_8ByteSinkER10UErrorCode
libicuuc.so.70:_ZNK6icu_706Locale5cloneEv
libicuuc.so.70:_ZNK6icu_706LocaleeqERKS0_
libicuuc.so.70:u_charType_70
libicuuc.so.70:u_charsToUChars_70
libicuuc.so.70:u_errorName_70
libicuuc.so.70:u_getIntPropertyValue_70
libicuuc.so.70:u_getPropertyEnum_70
libicuuc.so.70:u_getPropertyName_70
libicuuc.so.70:u_getPropertyValueEnum_70
libicuuc.so.70:u_getPropertyValueName_70
libicuuc.so.70:u_hasBinaryProperty_70
libicuuc.so.70:u_init_70
libicuuc.so.70:u_isalpha_70
libicuuc.so.70:u_isupper_70
libicuuc.so.70:u_setDataDirectory_70
libicuuc.so.70:u_strFromUTF8_70
libicuuc.so.70:u_strToLower_70
libicuuc.so.70:u_strToUTF8_70
libicuuc.so.70:u_strToUpper_70
libicuuc.so.70:u_versionToString_70
libicuuc.so.70:ucnv_close_70
libicuuc.so.70:ucnv_convertEx_70
libicuuc.so.70:ucnv_fromUChars_70
libicuuc.so.70:ucnv_getMaxCharSize_70
libicuuc.so.70:ucnv_getMinCharSize_70
libicuuc.so.70:ucnv_getType_70
libicuuc.so.70:ucnv_open_70
libicuuc.so.70:ucnv_reset_70
libicuuc.so.70:ucnv_setSubstChars_70
libicuuc.so.70:ucnv_setToUCallBack_70
libicuuc.so.70:ucnv_toUChars_70
libicuuc.so.70:ucnv_toUCountPending_70
libicuuc.so.70:ucnv_toUnicode_70
libicuuc.so.70:ucurr_getDefaultFractionDigits_70
libicuuc.so.70:uenum_close_70
libicuuc.so.70:uenum_next_70
libicuuc.so.70:uidna_close_70
libicuuc.so.70:uidna_nameToASCII_UTF8_70
libicuuc.so.70:uidna_nameToUnicodeUTF8_70
libicuuc.so.70:uidna_openUTS46_70
libicuuc.so.70:uloc_getCharacterOrientation_70
libicuuc.so.70:uloc_openAvailableByType_70
libicuuc.so.70:uloc_toLegacyKey_70
libicuuc.so.70:uloc_toLegacyType_70
libicuuc.so.70:uloc_toUnicodeLocaleKey_70
libicuuc.so.70:uloc_toUnicodeLocaleType_70
libicuuc.so.70:ures_close_70
libicuuc.so.70:ures_getByKey_70
libicuuc.so.70:ures_open_70
libm.so.6:exp
libm.so.6:floor
libm.so.6:fmod
libm.so.6:ldexp
libm.so.6:llround
libm.so.6:log
libm.so.6:lrint
libm.so.6:nearbyint
libm.so.6:nearbyintf
libm.so.6:pow
libm.so.6:scalbn
libm.so.6:sqrt
libnghttp2.so.14:nghttp2_is_fatal
libnghttp2.so.14:nghttp2_option_del
libnghttp2.so.14:nghttp2_option_new
libnghttp2.so.14:nghttp2_option_set_builtin_recv_extension_type
libnghttp2.so.14:nghttp2_option_set_max_deflate_dynamic_table_size
libnghttp2.so.14:nghttp2_option_set_max_reserved_remote_streams
libnghttp2.so.14:nghttp2_option_set_max_send_header_block_length
libnghttp2.so.14:nghttp2_option_set_max_settings
libnghttp2.so.14:nghttp2_option_set_no_auto_window_update
libnghttp2.so.14:nghttp2_option_set_no_closed_streams
libnghttp2.so.14:nghttp2_option_set_peer_max_concurrent_streams
libnghttp2.so.14:nghttp2_pack_settings_payload
libnghttp2.so.14:nghttp2_priority_spec_init
libnghttp2.so.14:nghttp2_rcbuf_decref
libnghttp2.so.14:nghttp2_rcbuf_get_buf
libnghttp2.so.14:nghttp2_rcbuf_incref
libnghttp2.so.14:nghttp2_rcbuf_is_static
libnghttp2.so.14:nghttp2_session_callbacks_del
libnghttp2.so.14:nghttp2_session_callbacks_new
libnghttp2.so.14:nghttp2_session_callbacks_set_error_callback
libnghttp2.so.14:nghttp2_session_callbacks_set_on_begin_headers_callback
libnghttp2.so.14:nghttp2_session_callbacks_set_on_data_chunk_recv_callback
libnghttp2.so.14:nghttp2_session_callbacks_set_on_frame_not_send_callback
libnghttp2.so.14:nghttp2_session_callbacks_set_on_frame_recv_callback
libnghttp2.so.14:nghttp2_session_callbacks_set_on_frame_send_callback
libnghttp2.so.14:nghttp2_session_callbacks_set_on_header_callback2
libnghttp2.so.14:nghttp2_session_callbacks_set_on_invalid_frame_recv_callback
libnghttp2.so.14:nghttp2_session_callbacks_set_on_invalid_header_callback2
libnghttp2.so.14:nghttp2_session_callbacks_set_on_stream_close_callback
libnghttp2.so.14:nghttp2_session_callbacks_set_select_padding_callback
libnghttp2.so.14:nghttp2_session_callbacks_set_send_data_callback
libnghttp2.so.14:nghttp2_session_change_stream_priority
libnghttp2.so.14:nghttp2_session_client_new3
libnghttp2.so.14:nghttp2_session_consume_connection
libnghttp2.so.14:nghttp2_session_consume_stream
libnghttp2.so.14:nghttp2_session_del
libnghttp2.so.14:nghttp2_session_find_stream
libnghttp2.so.14:nghttp2_session_get_effective_local_window_size
libnghttp2.so.14:nghttp2_session_get_effective_recv_data_length
libnghttp2.so.14:nghttp2_session_get_hd_deflate_dynamic_table_size
libnghttp2.so.14:nghttp2_session_get_hd_inflate_dynamic_table_size
libnghttp2.so.14:nghttp2_session_get_last_proc_stream_id
libnghttp2.so.14:nghttp2_session_get_local_settings
libnghttp2.so.14:nghttp2_session_get_local_window_size
libnghttp2.so.14:nghttp2_session_get_next_stream_id
libnghttp2.so.14:nghttp2_session_get_outbound_queue_size
libnghttp2.so.14:nghttp2_session_get_remote_settings
libnghttp2.so.14:nghttp2_session_get_remote_window_size
libnghttp2.so.14:nghttp2_session_get_stream_local_close
libnghttp2.so.14:nghttp2_session_get_stream_local_window_size
libnghttp2.so.14:nghttp2_session_get_stream_remote_close
libnghttp2.so.14:nghttp2_session_mem_recv
libnghttp2.so.14:nghttp2_session_mem_send
libnghttp2.so.14:nghttp2_session_resume_data
libnghttp2.so.14:nghttp2_session_server_new3
libnghttp2.so.14:nghttp2_session_set_local_window_size
libnghttp2.so.14:nghttp2_session_set_next_stream_id
libnghttp2.so.14:nghttp2_session_terminate_session
libnghttp2.so.14:nghttp2_session_want_read
libnghttp2.so.14:nghttp2_session_want_write
libnghttp2.so.14:nghttp2_stream_get_state
libnghttp2.so.14:nghttp2_stream_get_sum_dependency_weight
libnghttp2.so.14:nghttp2_stream_get_weight
libnghttp2.so.14:nghttp2_strerror
libnghttp2.so.14:nghttp2_submit_altsvc
libnghttp2.so.14:nghttp2_submit_data
libnghttp2.so.14:nghttp2_submit_goaway
libnghttp2.so.14:nghttp2_submit_headers
libnghttp2.so.14:nghttp2_submit_origin
libnghttp2.so.14:nghttp2_submit_ping
libnghttp2.so.14:nghttp2_submit_priority
libnghttp2.so.14:nghttp2_submit_push_promise
libnghttp2.so.14:nghttp2_submit_request
libnghttp2.so.14:nghttp2_submit_response
libnghttp2.so.14:nghttp2_submit_rst_stream
libnghttp2.so.14:nghttp2_submit_settings
libnghttp2.so.14:nghttp2_submit_trailer
libssl.so.1.1:OPENSSL_init_ssl
libssl.so.1.1:SSL_CIPHER_find
libssl.so.1.1:SSL_CIPHER_get_auth_nid
libssl.so.1.1:SSL_CIPHER_get_name
libssl.so.1.1:SSL_CIPHER_get_version
libssl.so.1.1:SSL_CIPHER_standard_name
libssl.so.1.1:SSL_COMP_get_compression_methods
libssl.so.1.1:SSL_CTX_add_client_CA
libssl.so.1.1:SSL_CTX_callback_ctrl
libssl.so.1.1:SSL_CTX_ctrl
libssl.so.1.1:SSL_CTX_free
libssl.so.1.1:SSL_CTX_get0_certificate
libssl.so.1.1:SSL_CTX_get0_privatekey
libssl.so.1.1:SSL_CTX_get_cert_store
libssl.so.1.1:SSL_CTX_get_client_CA_list
libssl.so.1.1:SSL_CTX_get_ex_data
libssl.so.1.1:SSL_CTX_get_keylog_callback
libssl.so.1.1:SSL_CTX_new
libssl.so.1.1:SSL_CTX_sess_set_get_cb
libssl.so.1.1:SSL_CTX_sess_set_new_cb
libssl.so.1.1:SSL_CTX_set_alpn_select_cb
libssl.so.1.1:SSL_CTX_set_cert_store
libssl.so.1.1:SSL_CTX_set_cipher_list
libssl.so.1.1:SSL_CTX_set_ciphersuites
libssl.so.1.1:SSL_CTX_set_client_cert_engine
libssl.so.1.1:SSL_CTX_set_ex_data
libssl.so.1.1:SSL_CTX_set_keylog_callback
libssl.so.1.1:SSL_CTX_set_options
libssl.so.1.1:SSL_CTX_set_session_id_context
libssl.so.1.1:SSL_CTX_set_timeout
libssl.so.1.1:SSL_CTX_use_PrivateKey
libssl.so.1.1:SSL_CTX_use_certificate
libssl.so.1.1:SSL_SESSION_free
libssl.so.1.1:SSL_SESSION_get0_ticket
libssl.so.1.1:SSL_SESSION_get_id
libssl.so.1.1:SSL_SESSION_get_protocol_version
libssl.so.1.1:SSL_client_hello_get0_ciphers
libssl.so.1.1:SSL_client_hello_get0_ext
libssl.so.1.1:SSL_ctrl
libssl.so.1.1:SSL_dup_CA_list
libssl.so.1.1:SSL_export_keying_material
libssl.so.1.1:SSL_free
libssl.so.1.1:SSL_get0_alpn_selected
libssl.so.1.1:SSL_get_SSL_CTX
libssl.so.1.1:SSL_get_certificate
libssl.so.1.1:SSL_get_ciphers
libssl.so.1.1:SSL_get_client_random
libssl.so.1.1:SSL_get_current_cipher
libssl.so.1.1:SSL_get_error
libssl.so.1.1:SSL_get_ex_data
libssl.so.1.1:SSL_get_finished
libssl.so.1.1:SSL_get_peer_cert_chain
libssl.so.1.1:SSL_get_peer_certificate
libssl.so.1.1:SSL_get_peer_finished
libssl.so.1.1:SSL_get_servername
libssl.so.1.1:SSL_get_session
libssl.so.1.1:SSL_get_shared_sigalgs
libssl.so.1.1:SSL_get_shutdown
libssl.so.1.1:SSL_get_verify_result
libssl.so.1.1:SSL_get_version
libssl.so.1.1:SSL_is_server
libssl.so.1.1:SSL_new
libssl.so.1.1:SSL_read
libssl.so.1.1:SSL_renegotiate
libssl.so.1.1:SSL_renegotiate_pending
libssl.so.1.1:SSL_select_next_proto
libssl.so.1.1:SSL_session_reused
libssl.so.1.1:SSL_set_SSL_CTX
libssl.so.1.1:SSL_set_accept_state
libssl.so.1.1:SSL_set_alpn_protos
libssl.so.1.1:SSL_set_bio
libssl.so.1.1:SSL_set_cert_cb
libssl.so.1.1:SSL_set_client_CA_list
libssl.so.1.1:SSL_set_connect_state
libssl.so.1.1:SSL_set_ex_data
libssl.so.1.1:SSL_set_info_callback
libssl.so.1.1:SSL_set_psk_client_callback
libssl.so.1.1:SSL_set_psk_server_callback
libssl.so.1.1:SSL_set_session
libssl.so.1.1:SSL_set_verify
libssl.so.1.1:SSL_shutdown
libssl.so.1.1:SSL_use_PrivateKey
libssl.so.1.1:SSL_use_certificate
libssl.so.1.1:SSL_use_psk_identity_hint
libssl.so.1.1:SSL_write
libssl.so.1.1:TLS_client_method
libssl.so.1.1:TLS_method
libssl.so.1.1:TLS_server_method
libssl.so.1.1:d2i_SSL_SESSION
libssl.so.1.1:i2d_SSL_SESSION
libstdc++.so.6:_ZNKSt12__basic_fileIcE7is_openEv
libstdc++.so.6:_ZNKSt5ctypeIcE13_M_widen_initEv
libstdc++.so.6:_ZNKSt7__cxx1112basic_stringIcSt11char_traitsIcESaIcEE13find_first_ofEPKcmm
libstdc++.so.6:_ZNKSt7__cxx1112basic_stringIcSt11char_traitsIcESaIcEE17find_first_not_ofEPKcmm
libstdc++.so.6:_ZNKSt7__cxx1112basic_stringIcSt11char_traitsIcESaIcEE4copyEPcmm
libstdc++.so.6:_ZNKSt7__cxx1112basic_stringIcSt11char_traitsIcESaIcEE4findEPKcmm
libstdc++.so.6:_ZNKSt7__cxx1112basic_stringIcSt11char_traitsIcESaIcEE4findEcm
libstdc++.so.6:_ZNKSt7__cxx1112basic_stringIcSt11char_traitsIcESaIcEE5rfindEPKcmm
libstdc++.so.6:_ZNKSt7__cxx1112basic_stringIcSt11char_traitsIcESaIcEE5rfindEcm
libstdc++.so.6:_ZNKSt7__cxx1112basic_stringIcSt11char_traitsIcESaIcEE6substrEmm
libstdc++.so.6:_ZNKSt7__cxx1112basic_stringIcSt11char_traitsIcESaIcEE7compareEPKc
libstdc++.so.6:_ZNKSt7__cxx1112basic_stringIcSt11char_traitsIcESaIcEE7compareEmmRKS4_
libstdc++.so.6:_ZNKSt7__cxx1115basic_stringbufIcSt11char_traitsIcESaIcEE3strEv
libstdc++.so.6:_ZNKSt8__detail20_Prime_rehash_policy11_M_next_bktEm
libstdc++.so.6:_ZNKSt8__detail20_Prime_rehash_policy14_M_need_rehashEmmm
libstdc++.so.6:_ZNSi10_M_extractIdEERSiRT_
libstdc++.so.6:_ZNSo3putEc
libstdc++.so.6:_ZNSo5flushEv
libstdc++.so.6:_ZNSo5seekpElSt12_Ios_Seekdir
libstdc++.so.6:_ZNSo5tellpEv
libstdc++.so.6:_ZNSo5writeEPKcl
libstdc++.so.6:_ZNSo9_M_insertIPKvEERSoT_
libstdc++.so.6:_ZNSo9_M_insertIbEERSoT_
libstdc++.so.6:_ZNSo9_M_insertIdEERSoT_
libstdc++.so.6:_ZNSo9_M_insertIlEERSoT_
libstdc++.so.6:_ZNSo9_M_insertImEERSoT_
libstdc++.so.6:_ZNSo9_M_insertIxEERSoT_
libstdc++.so.6:_ZNSo9_M_insertIyEERSoT_
libstdc++.so.6:_ZNSolsEi
libstdc++.so.6:_ZNSolsEs
libstdc++.so.6:_ZNSt10_Sp_lockerC1EPKv
libstdc++.so.6:_ZNSt10_Sp_lockerD1Ev
libstdc++.so.6:_ZNSt12__basic_fileIcED1Ev
libstdc++.so.6:_ZNSt13basic_filebufIcSt11char_traitsIcEE4openEPKcSt13_Ios_Openmode
libstdc++.so.6:_ZNSt13basic_filebufIcSt11char_traitsIcEE5closeEv
libstdc++.so.6:_ZNSt13basic_filebufIcSt11char_traitsIcEEC1Ev
libstdc++.so.6:_ZNSt15basic_streambufIcSt11char_traitsIcEE5imbueERKSt6locale
libstdc++.so.6:_ZNSt15basic_streambufIcSt11char_traitsIcEE5uflowEv
libstdc++.so.6:_ZNSt15basic_streambufIcSt11char_traitsIcEE6setbufEPcl
libstdc++.so.6:_ZNSt15basic_streambufIcSt11char_traitsIcEE6xsgetnEPcl
libstdc++.so.6:_ZNSt15basic_streambufIcSt11char_traitsIcEE6xsputnEPKcl
libstdc++.so.6:_ZNSt15basic_streambufIcSt11char_traitsIcEE7seekoffElSt12_Ios_SeekdirSt13_Ios_Openmode
libstdc++.so.6:_ZNSt15basic_streambufIcSt11char_traitsIcEE7seekposESt4fposI11__mbstate_tESt13_Ios_Openmode
libstdc++.so.6:_ZNSt15basic_streambufIcSt11char_traitsIcEE9pbackfailEi
libstdc++.so.6:_ZNSt15basic_streambufIcSt11char_traitsIcEE9showmanycEv
libstdc++.so.6:_ZNSt15basic_streambufIcSt11char_traitsIcEE9underflowEv
libstdc++.so.6:_ZNSt19_Sp_make_shared_tag5_S_eqERKSt9type_info
libstdc++.so.6:_ZNSt6locale7classicEv
libstdc++.so.6:_ZNSt6localeC1Ev
libstdc++.so.6:_ZNSt6localeD1Ev
libstdc++.so.6:_ZNSt7__cxx1112basic_stringIcSt11char_traitsIcESaIcEE10_M_replaceEmmPKcm
libstdc++.so.6:_ZNSt7__cxx1112basic_stringIcSt11char_traitsIcESaIcEE12_M_constructEmc
libstdc++.so.6:_ZNSt7__cxx1112basic_stringIcSt11char_traitsIcESaIcEE14_M_replace_auxEmmmc
libstdc++.so.6:_ZNSt7__cxx1112basic_stringIcSt11char_traitsIcESaIcEE4swapERS4_
libstdc++.so.6:_ZNSt7__cxx1112basic_stringIcSt11char_traitsIcESaIcEE6appendEPKc
libstdc++.so.6:_ZNSt7__cxx1112basic_stringIcSt11char_traitsIcESaIcEE6assignEPKc
libstdc++.so.6:_ZNSt7__cxx1112basic_stringIcSt11char_traitsIcESaIcEE6resizeEmc
libstdc++.so.6:_ZNSt7__cxx1112basic_stringIcSt11char_traitsIcESaIcEE7replaceEmmPKcm
libstdc++.so.6:_ZNSt7__cxx1112basic_stringIcSt11char_traitsIcESaIcEE7reserveEm
libstdc++.so.6:_ZNSt7__cxx1112basic_stringIcSt11char_traitsIcESaIcEE8_M_eraseEmm
libstdc++.so.6:_ZNSt7__cxx1112basic_stringIcSt11char_traitsIcESaIcEE9_M_appendEPKcm
libstdc++.so.6:_ZNSt7__cxx1112basic_stringIcSt11char_traitsIcESaIcEE9_M_assignERKS4_
libstdc++.so.6:_ZNSt7__cxx1112basic_stringIcSt11char_traitsIcESaIcEE9_M_createERmm
libstdc++.so.6:_ZNSt7__cxx1112basic_stringIcSt11char_traitsIcESaIcEE9_M_mutateEmmPKcm
libstdc++.so.6:_ZNSt7__cxx1112basic_stringIcSt11char_traitsIcESaIcEE9push_backEc
libstdc++.so.6:_ZNSt7__cxx1112basic_stringIcSt11char_traitsIcESaIcEEC1EPKcRKS3_
libstdc++.so.6:_ZNSt7__cxx1112basic_stringIcSt11char_traitsIcESaIcEEC1ERKS4_mm
libstdc++.so.6:_ZNSt7__cxx1112basic_stringIcSt11char_traitsIcESaIcEED1Ev
libstdc++.so.6:_ZNSt7__cxx1112basic_stringIcSt11char_traitsIcESaIcEEaSEOS4_
libstdc++.so.6:_ZNSt7__cxx1115basic_stringbufIcSt11char_traitsIcESaIcEE7_M_syncEPcmm
libstdc++.so.6:_ZNSt7__cxx1118basic_stringstreamIcSt11char_traitsIcESaIcEEC1Ev
libstdc++.so.6:_ZNSt7__cxx1118basic_stringstreamIcSt11char_traitsIcESaIcEED1Ev
libstdc++.so.6:_ZNSt7__cxx1119basic_ostringstreamIcSt11char_traitsIcESaIcEEC1Ev
libstdc++.so.6:_ZNSt8__detail15_List_node_base11_M_transferEPS0_S1_
libstdc++.so.6:_ZNSt8__detail15_List_node_base7_M_hookEPS0_
libstdc++.so.6:_ZNSt8__detail15_List_node_base9_M_unhookEv
libstdc++.so.6:_ZNSt8ios_base4InitC1Ev
libstdc++.so.6:_ZNSt8ios_base4InitD1Ev
libstdc++.so.6:_ZNSt8ios_baseC2Ev
libstdc++.so.6:_ZNSt8ios_baseD2Ev
libstdc++.so.6:_ZNSt9basic_iosIcSt11char_traitsIcEE4initEPSt15basic_streambufIcS1_E
libstdc++.so.6:_ZNSt9basic_iosIcSt11char_traitsIcEE5clearESt12_Ios_Iostate
libstdc++.so.6:_ZNSt9basic_iosIcSt11char_traitsIcEE5imbueERKSt6locale
libstdc++.so.6:_ZNSt9basic_iosIcSt11char_traitsIcEE5rdbufEPSt15basic_streambufIcS1_E
libstdc++.so.6:_ZNSt9basic_iosIcSt11char_traitsIcEE7copyfmtERKS2_
libstdc++.so.6:_ZSt11_Hash_bytesPKvmm
libstdc++.so.6:_ZSt16__ostream_insertIcSt11char_traitsIcEERSt13basic_ostreamIT_T0_ES6_PKS3_l
libstdc++.so.6:_ZSt16__throw_bad_castv
libstdc++.so.6:_ZSt17__throw_bad_allocv
libstdc++.so.6:_ZSt18_Rb_tree_decrementPKSt18_Rb_tree_node_base
libstdc++.so.6:_ZSt18_Rb_tree_decrementPSt18_Rb_tree_node_base
libstdc++.so.6:_ZSt18_Rb_tree_incrementPKSt18_Rb_tree_node_base
libstdc++.so.6:_ZSt18_Rb_tree_incrementPSt18_Rb_tree_node_base
libstdc++.so.6:_ZSt19__throw_logic_errorPKc
libstdc++.so.6:_ZSt20__throw_length_errorPKc
libstdc++.so.6:_ZSt20__throw_out_of_rangePKc
libstdc++.so.6:_ZSt24__throw_invalid_argumentPKc
libstdc++.so.6:_ZSt24__throw_out_of_range_fmtPKcz
libstdc++.so.6:_ZSt25__throw_bad_function_callv
libstdc++.so.6:_ZSt28_Rb_tree_rebalance_for_erasePSt18_Rb_tree_node_baseRS_
libstdc++.so.6:_ZSt28__throw_bad_array_new_lengthv
libstdc++.so.6:_ZSt29_Rb_tree_insert_and_rebalancebPSt18_Rb_tree_node_baseS0_RS_
libstdc++.so.6:_ZSt4cerr
libstdc++.so.6:_ZSt4cout
libstdc++.so.6:_ZSt4endlIcSt11char_traitsIcEERSt13basic_ostreamIT_T0_ES6_
libstdc++.so.6:_ZSt7getlineIcSt11char_traitsIcESaIcEERSt13basic_istreamIT_T0_ES7_RNSt7__cxx1112basic_stringIS4_S5_T1_EES4_
libstdc++.so.6:_ZSt7nothrow
libstdc++.so.6:_ZSt9use_facetISt5ctypeIcEERKT_RKSt6locale
libstdc++.so.6:_ZStlsISt11char_traitsIcEERSt13basic_ostreamIcT_ES5_PKc
libstdc++.so.6:_ZStrsIcSt11char_traitsIcESaIcEERSt13basic_istreamIT_T0_ES7_RNSt7__cxx1112basic_stringIS4_S5_T1_EE
libstdc++.so.6:_ZTTNSt7__cxx1118basic_stringstreamIcSt11char_traitsIcESaIcEEE
libstdc++.so.6:_ZTTNSt7__cxx1119basic_istringstreamIcSt11char_traitsIcESaIcEEE
libstdc++.so.6:_ZTTNSt7__cxx1119basic_ostringstreamIcSt11char_traitsIcESaIcEEE
libstdc++.so.6:_ZTTSt14basic_ifstreamIcSt11char_traitsIcEE
libstdc++.so.6:_ZTTSt14basic_ofstreamIcSt11char_traitsIcEE
libstdc++.so.6:_ZTVNSt7__cxx1115basic_stringbufIcSt11char_traitsIcESaIcEEE
libstdc++.so.6:_ZTVNSt7__cxx1118basic_stringstreamIcSt11char_traitsIcESaIcEEE
libstdc++.so.6:_ZTVNSt7__cxx1119basic_istringstreamIcSt11char_traitsIcESaIcEEE
libstdc++.so.6:_ZTVNSt7__cxx1119basic_ostringstreamIcSt11char_traitsIcESaIcEEE
libstdc++.so.6:_ZTVSt13basic_filebufIcSt11char_traitsIcEE
libstdc++.so.6:_ZTVSt14basic_ifstreamIcSt11char_traitsIcEE
libstdc++.so.6:_ZTVSt14basic_ofstreamIcSt11char_traitsIcEE
libstdc++.so.6:_ZTVSt15basic_streambufIcSt11char_traitsIcEE
libstdc++.so.6:_ZTVSt9basic_iosIcSt11char_traitsIcEE
libstdc++.so.6:_ZdaPv
libstdc++.so.6:_ZdlPv
libstdc++.so.6:_ZdlPvm
libstdc++.so.6:_Znam
libstdc++.so.6:_ZnamRKSt9nothrow_t
libstdc++.so.6:_Znwm
libstdc++.so.6:_ZnwmRKSt9nothrow_t
libstdc++.so.6:__cxa_demangle
libstdc++.so.6:__cxa_guard_acquire
libstdc++.so.6:__cxa_guard_release
libuv.so.1:uv_accept
libuv.so.1:uv_async_init
libuv.so.1:uv_async_send
libuv.so.1:uv_buf_init
libuv.so.1:uv_cancel
libuv.so.1:uv_chdir
libuv.so.1:uv_check_init
libuv.so.1:uv_check_start
libuv.so.1:uv_close
libuv.so.1:uv_cond_broadcast
libuv.so.1:uv_cond_destroy
libuv.so.1:uv_cond_init
libuv.so.1:uv_cond_signal
libuv.so.1:uv_cond_wait
libuv.so.1:uv_cpu_info
libuv.so.1:uv_cwd
libuv.so.1:uv_default_loop
libuv.so.1:uv_disable_stdio_inheritance
libuv.so.1:uv_err_name
libuv.so.1:uv_err_name_r
libuv.so.1:uv_exepath
libuv.so.1:uv_fileno
libuv.so.1:uv_free_cpu_info
libuv.so.1:uv_free_interface_addresses
libuv.so.1:uv_freeaddrinfo
libuv.so.1:uv_fs_access
libuv.so.1:uv_fs_chmod
libuv.so.1:uv_fs_chown
libuv.so.1:uv_fs_close
libuv.so.1:uv_fs_closedir
libuv.so.1:uv_fs_copyfile
libuv.so.1:uv_fs_event_getpath
libuv.so.1:uv_fs_event_init
libuv.so.1:uv_fs_event_start
libuv.so.1:uv_fs_fchmod
libuv.so.1:uv_fs_fchown
libuv.so.1:uv_fs_fdatasync
libuv.so.1:uv_fs_fstat
libuv.so.1:uv_fs_fsync
libuv.so.1:uv_fs_ftruncate
libuv.so.1:uv_fs_futime
libuv.so.1:uv_fs_lchown
libuv.so.1:uv_fs_link
libuv.so.1:uv_fs_lstat
libuv.so.1:uv_fs_lutime
libuv.so.1:uv_fs_mkdir
libuv.so.1:uv_fs_mkdtemp
libuv.so.1:uv_fs_open
libuv.so.1:uv_fs_opendir
libuv.so.1:uv_fs_poll_getpath
libuv.so.1:uv_fs_poll_init
libuv.so.1:uv_fs_poll_start
libuv.so.1:uv_fs_read
libuv.so.1:uv_fs_readdir
libuv.so.1:uv_fs_readlink
libuv.so.1:uv_fs_realpath
libuv.so.1:uv_fs_rename
libuv.so.1:uv_fs_req_cleanup
libuv.so.1:uv_fs_rmdir
libuv.so.1:uv_fs_scandir
libuv.so.1:uv_fs_scandir_next
libuv.so.1:uv_fs_stat
libuv.so.1:uv_fs_symlink
libuv.so.1:uv_fs_unlink
libuv.so.1:uv_fs_utime
libuv.so.1:uv_fs_write
libuv.so.1:uv_get_constrained_memory
libuv.so.1:uv_get_free_memory
libuv.so.1:uv_get_process_title
libuv.so.1:uv_get_total_memory
libuv.so.1:uv_getaddrinfo
libuv.so.1:uv_getnameinfo
libuv.so.1:uv_getrusage
libuv.so.1:uv_gettimeofday
libuv.so.1:uv_guess_handle
libuv.so.1:uv_handle_get_data
libuv.so.1:uv_handle_set_data
libuv.so.1:uv_handle_type_name
libuv.so.1:uv_has_ref
libuv.so.1:uv_hrtime
libuv.so.1:uv_idle_init
libuv.so.1:uv_idle_start
libuv.so.1:uv_idle_stop
libuv.so.1:uv_if_indextoiid
libuv.so.1:uv_inet_ntop
libuv.so.1:uv_inet_pton
libuv.so.1:uv_interface_addresses
libuv.so.1:uv_ip4_addr
libuv.so.1:uv_ip4_name
libuv.so.1:uv_ip6_addr
libuv.so.1:uv_ip6_name
libuv.so.1:uv_is_active
libuv.so.1:uv_is_closing
libuv.so.1:uv_is_readable
libuv.so.1:uv_is_writable
libuv.so.1:uv_kill
libuv.so.1:uv_library_shutdown
libuv.so.1:uv_listen
libuv.so.1:uv_loadavg
libuv.so.1:uv_loop_alive
libuv.so.1:uv_loop_close
libuv.so.1:uv_loop_configure
libuv.so.1:uv_loop_get_data
libuv.so.1:uv_loop_init
libuv.so.1:uv_loop_set_data
libuv.so.1:uv_metrics_idle_time
libuv.so.1:uv_mutex_destroy
libuv.so.1:uv_mutex_init
libuv.so.1:uv_mutex_lock
libuv.so.1:uv_mutex_unlock
libuv.so.1:uv_now
libuv.so.1:uv_once
libuv.so.1:uv_os_environ
libuv.so.1:uv_os_free_environ
libuv.so.1:uv_os_free_passwd
libuv.so.1:uv_os_get_passwd
libuv.so.1:uv_os_getenv
libuv.so.1:uv_os_gethostname
libuv.so.1:uv_os_getpid
libuv.so.1:uv_os_getppid
libuv.so.1:uv_os_getpriority
libuv.so.1:uv_os_homedir
libuv.so.1:uv_os_setenv
libuv.so.1:uv_os_setpriority
libuv.so.1:uv_os_uname
libuv.so.1:uv_os_unsetenv
libuv.so.1:uv_pipe_bind
libuv.so.1:uv_pipe_chmod
libuv.so.1:uv_pipe_connect
libuv.so.1:uv_pipe_getpeername
libuv.so.1:uv_pipe_getsockname
libuv.so.1:uv_pipe_init
libuv.so.1:uv_pipe_open
libuv.so.1:uv_pipe_pending_count
libuv.so.1:uv_pipe_pending_type
libuv.so.1:uv_poll_init
libuv.so.1:uv_poll_init_socket
libuv.so.1:uv_poll_start
libuv.so.1:uv_poll_stop
libuv.so.1:uv_prepare_init
libuv.so.1:uv_prepare_start
libuv.so.1:uv_process_kill
libuv.so.1:uv_queue_work
libuv.so.1:uv_random
libuv.so.1:uv_read_start
libuv.so.1:uv_read_stop
libuv.so.1:uv_recv_buffer_size
libuv.so.1:uv_ref
libuv.so.1:uv_resident_set_memory
libuv.so.1:uv_run
libuv.so.1:uv_rwlock_destroy
libuv.so.1:uv_rwlock_init
libuv.so.1:uv_rwlock_rdlock
libuv.so.1:uv_rwlock_rdunlock
libuv.so.1:uv_rwlock_wrlock
libuv.so.1:uv_rwlock_wrunlock
libuv.so.1:uv_sem_destroy
libuv.so.1:uv_sem_init
libuv.so.1:uv_sem_post
libuv.so.1:uv_sem_wait
libuv.so.1:uv_send_buffer_size
libuv.so.1:uv_set_process_title
libuv.so.1:uv_setup_args
libuv.so.1:uv_shutdown
libuv.so.1:uv_signal_init
libuv.so.1:uv_signal_start
libuv.so.1:uv_signal_stop
libuv.so.1:uv_sleep
libuv.so.1:uv_spawn
libuv.so.1:uv_stop
libuv.so.1:uv_stream_set_blocking
libuv.so.1:uv_strerror
libuv.so.1:uv_tcp_bind
libuv.so.1:uv_tcp_connect
libuv.so.1:uv_tcp_getpeername
libuv.so.1:uv_tcp_getsockname
libuv.so.1:uv_tcp_init
libuv.so.1:uv_tcp_keepalive
libuv.so.1:uv_tcp_nodelay
libuv.so.1:uv_tcp_open
libuv.so.1:uv_thread_create
libuv.so.1:uv_thread_create_ex
libuv.so.1:uv_thread_join
libuv.so.1:uv_timer_again
libuv.so.1:uv_timer_get_repeat
libuv.so.1:uv_timer_init
libuv.so.1:uv_timer_start
libuv.so.1:uv_timer_stop
libuv.so.1:uv_translate_sys_error
libuv.so.1:uv_try_write
libuv.so.1:uv_tty_get_winsize
libuv.so.1:uv_tty_init
libuv.so.1:uv_tty_reset_mode
libuv.so.1:uv_tty_set_mode
libuv.so.1:uv_udp_bind
libuv.so.1:uv_udp_connect
libuv.so.1:uv_udp_getpeername
libuv.so.1:uv_udp_getsockname
libuv.so.1:uv_udp_init
libuv.so.1:uv_udp_open
libuv.so.1:uv_udp_recv_start
libuv.so.1:uv_udp_recv_stop
libuv.so.1:uv_udp_send
libuv.so.1:uv_udp_set_broadcast
libuv.so.1:uv_udp_set_membership
libuv.so.1:uv_udp_set_multicast_interface
libuv.so.1:uv_udp_set_multicast_loop
libuv.so.1:uv_udp_set_multicast_ttl
libuv.so.1:uv_udp_set_source_membership
libuv.so.1:uv_udp_set_ttl
libuv.so.1:uv_udp_try_send
libuv.so.1:uv_unref
libuv.so.1:uv_update_time
libuv.so.1:uv_uptime
libuv.so.1:uv_version_string
libuv.so.1:uv_walk
libuv.so.1:uv_write
libuv.so.1:uv_write2
libz.so.1:deflate
libz.so.1:deflateEnd
libz.so.1:deflateInit2_
libz.so.1:deflateParams
libz.so.1:deflateReset
libz.so.1:deflateSetDictionary
libz.so.1:inflate
libz.so.1:inflateEnd
libz.so.1:inflateInit2_
libz.so.1:inflateInit_
libz.so.1:inflateReset
libz.so.1:inflateSetDictionary
