node:Cr_z__dist_code
node:Cr_z__length_code
node:Cr_z__tr_align
node:Cr_z__tr_flush_bits
node:Cr_z__tr_flush_block
node:Cr_z__tr_init
node:Cr_z__tr_stored_block
node:Cr_z__tr_tally
node:Cr_z_adler32
node:Cr_z_adler32_combine
node:Cr_z_adler32_combine64
node:Cr_z_adler32_z
node:Cr_z_compress
node:Cr_z_compress2
node:Cr_z_compressBound
node:Cr_z_copy_with_crc
node:Cr_z_crc32
node:Cr_z_crc32_combine
node:Cr_z_crc32_combine64
node:Cr_z_crc32_combine_gen
node:Cr_z_crc32_combine_gen64
node:Cr_z_crc32_combine_op
node:Cr_z_crc32_z
node:Cr_z_crc_finalize
node:Cr_z_crc_reset
node:Cr_z_deflate
node:Cr_z_deflateBound
node:Cr_z_deflateCopy
node:Cr_z_deflateEnd
node:Cr_z_deflateGetDictionary
node:Cr_z_deflateInit2_
node:Cr_z_deflateInit_
node:Cr_z_deflateParams
node:Cr_z_deflatePending
node:Cr_z_deflatePrime
node:Cr_z_deflateReset
node:Cr_z_deflateResetKeep
node:Cr_z_deflateSetDictionary
node:Cr_z_deflateSetHeader
node:Cr_z_deflateTune
node:Cr_z_deflate_copyright
node:Cr_z_get_crc_table
node:Cr_z_inflate
node:Cr_z_inflateCodesUsed
node:Cr_z_inflateCopy
node:Cr_z_inflateEnd
node:Cr_z_inflateGetDictionary
node:Cr_z_inflateGetHeader
node:Cr_z_inflateInit2_
node:Cr_z_inflateInit_
node:Cr_z_inflateMark
node:Cr_z_inflatePrime
node:Cr_z_inflateReset
node:Cr_z_inflateReset2
node:Cr_z_inflateResetKeep
node:Cr_z_inflateSetDictionary
node:Cr_z_inflateSync
node:Cr_z_inflateSyncPoint
node:Cr_z_inflateUndermine
node:Cr_z_inflateValidate
node:Cr_z_inflate_copyright
node:Cr_z_inflate_fast
node:Cr_z_inflate_table
node:Cr_z_zError
node:Cr_z_z_errmsg
node:Cr_z_zcalloc
node:Cr_z_zcfree
node:Cr_z_zlibCompileFlags
node:Cr_z_zlibVersion
node:_IO_stdin_used
node:_Z11halfsiphashjm
node:_Z12_register_fsv
node:_Z12_register_osv
node:_Z12_register_uvv
node:_Z12_register_v8v
node:_Z12get_instancePv
node:_Z13_register_icuv
node:_Z13_register_seav
node:_Z13_register_urlv
node:_Z14_register_blobv
node:_Z14_register_utilv
node:_Z14_register_wasiv
node:_Z14_register_zlibv
node:_Z15_register_http2v
node:_Z15_register_typesv
node:_Z16_register_bufferv
node:_Z16_register_configv
node:_Z16_register_cryptov
node:_Z16_register_errorsv
node:_Z16_register_fs_dirv
node:_Z16_register_reportv
node:_Z16_register_serdesv
node:_Z16_register_timersv
node:_Z16_register_workerv
node:_Z17_register_optionsv
node:_Z17_register_symbolsv
node:_Z18_register_builtinsv
node:_Z18_register_profilerv
node:_Z18_register_tcp_wrapv
node:_Z18_register_tls_wrapv
node:_Z18_register_tty_wrapv
node:_Z18_register_udp_wrapv
node:_Z18_register_watchdogv
node:_Z19_register_constantsv
node:_Z19_register_inspectorv
node:_Z19_register_js_streamv
node:_Z19_register_messagingv
node:_Z19_register_pipe_wrapv
node:_Z20_register_async_wrapv
node:_Z20_register_block_listv
node:_Z20_register_cares_wrapv
node:_Z20_register_contextifyv
node:_Z20_register_heap_utilsv
node:_Z20_register_isolate_fsPN4node11IsolateDataEN2v85LocalINS2_14ObjectTemplateEEE
node:_Z20_register_mksnapshotv
node:_Z20_register_permissionv
node:_Z20_register_spawn_syncv
node:_Z20_register_task_queuev
node:_Z21_register_credentialsv
node:_Z21_register_http_parserv
node:_Z21_register_isolate_icuPN4node11IsolateDataEN2v85LocalINS2_14ObjectTemplateEEE
node:_Z21_register_isolate_urlPN4node11IsolateDataEN2v85LocalINS2_14ObjectTemplateEEE
node:_Z21_register_js_udp_wrapv
node:_Z21_register_module_wrapv
node:_Z21_register_performancev
node:_Z21_register_signal_wrapv
node:_Z21_register_stream_pipev
node:_Z21_register_stream_wrapv
node:_Z22_register_isolate_blobPN4node11IsolateDataEN2v85LocalINS2_14ObjectTemplateEEE
node:_Z22_register_process_wrapv
node:_Z22_register_trace_eventsv
node:_Z22_register_wasm_web_apiv
node:_Z23_register_fs_event_wrapv
node:_Z23_v8_internal_Get_ObjectPv
node:_Z23_v8_internal_Node_PrintPv
node:_Z23_v8_internal_Print_CodePv
node:_Z24_register_isolate_timersPN4node11IsolateDataEN2v85LocalINS2_14ObjectTemplateEEE
node:_Z24_register_isolate_workerPN4node11IsolateDataEN2v85LocalINS2_14ObjectTemplateEEE
node:_Z24_register_string_decoderv
node:_Z25_register_process_methodsv
node:_Z25_v8_internal_Print_ObjectPv
node:_Z26_register_encoding_bindingv
node:_Z26_register_isolate_builtinsPN4node11IsolateDataEN2v85LocalINS2_14ObjectTemplateEEE
node:_Z28_register_isolate_async_wrapPN4node11IsolateDataEN2v85LocalINS2_14ObjectTemplateEEE
node:_Z28_register_isolate_contextifyPN4node11IsolateDataEN2v85LocalINS2_14ObjectTemplateEEE
node:_Z28_register_isolate_mksnapshotPN4node11IsolateDataEN2v85LocalINS2_14ObjectTemplateEEE
node:_Z29_register_isolate_performancePN4node11IsolateDataEN2v85LocalINS2_14ObjectTemplateEEE
node:_Z29_v8_internal_Print_StackTracev
node:_Z30_v8_internal_Print_LoadHandlerPv
node:_Z30napi_module_register_by_symbolN2v85LocalINS_6ObjectEEENS0_INS_5ValueEEENS0_INS_7ContextEEEPFP12napi_value__P10napi_env__S8_Ei
node:_Z31_register_external_reference_fsPN4node25ExternalReferenceRegistryE
node:_Z31_register_external_reference_osPN4node25ExternalReferenceRegistryE
node:_Z31_register_external_reference_uvPN4node25ExternalReferenceRegistryE
node:_Z31_register_external_reference_v8PN4node25ExternalReferenceRegistryE
node:_Z31_v8_internal_Print_StoreHandlerPv
node:_Z32_register_external_reference_icuPN4node25ExternalReferenceRegistryE
node:_Z32_register_external_reference_seaPN4node25ExternalReferenceRegistryE
node:_Z32_register_external_reference_urlPN4node25ExternalReferenceRegistryE
node:_Z33_register_external_reference_blobPN4node25ExternalReferenceRegistryE
node:_Z33_register_external_reference_utilPN4node25ExternalReferenceRegistryE
node:_Z33_register_external_reference_zlibPN4node25ExternalReferenceRegistryE
node:_Z33_register_isolate_process_methodsPN4node11IsolateDataEN2v85LocalINS2_14ObjectTemplateEEE
node:_Z33_v8_internal_Print_TransitionTreePv
node:_Z34_register_external_reference_typesPN4node25ExternalReferenceRegistryE
node:_Z34_register_isolate_encoding_bindingPN4node11IsolateDataEN2v85LocalINS2_14ObjectTemplateEEE
node:_Z34get_node_api_context_register_funcPN4node11EnvironmentEPKci
node:_Z35_register_external_reference_bufferPN4node25ExternalReferenceRegistryE
node:_Z35_register_external_reference_cryptoPN4node25ExternalReferenceRegistryE
node:_Z35_register_external_reference_errorsPN4node25ExternalReferenceRegistryE
node:_Z35_register_external_reference_fs_dirPN4node25ExternalReferenceRegistryE
node:_Z35_register_external_reference_reportPN4node25ExternalReferenceRegistryE
node:_Z35_register_external_reference_serdesPN4node25ExternalReferenceRegistryE
node:_Z35_register_external_reference_timersPN4node25ExternalReferenceRegistryE
node:_Z35_register_external_reference_workerPN4node25ExternalReferenceRegistryE
node:_Z36_register_external_reference_bindingPN4node25ExternalReferenceRegistryE
node:_Z36_register_external_reference_env_varPN4node25ExternalReferenceRegistryE
node:_Z36_register_external_reference_optionsPN4node25ExternalReferenceRegistryE
node:_Z37_register_external_reference_builtinsPN4node25ExternalReferenceRegistryE
node:_Z37_register_external_reference_profilerPN4node25ExternalReferenceRegistryE
node:_Z37_register_external_reference_tcp_wrapPN4node25ExternalReferenceRegistryE
node:_Z37_register_external_reference_tls_wrapPN4node25ExternalReferenceRegistryE
node:_Z37_register_external_reference_tty_wrapPN4node25ExternalReferenceRegistryE
node:_Z38_register_external_reference_inspectorPN4node25ExternalReferenceRegistryE
node:_Z38_register_external_reference_messagingPN4node25ExternalReferenceRegistryE
node:_Z38_register_external_reference_pipe_wrapPN4node25ExternalReferenceRegistryE
node:_Z39_register_external_reference_async_wrapPN4node25ExternalReferenceRegistryE
node:_Z39_register_external_reference_cares_wrapPN4node25ExternalReferenceRegistryE
node:_Z39_register_external_reference_contextifyPN4node25ExternalReferenceRegistryE
node:_Z39_register_external_reference_heap_utilsPN4node25ExternalReferenceRegistryE
node:_Z39_register_external_reference_mksnapshotPN4node25ExternalReferenceRegistryE
node:_Z39_register_external_reference_permissionPN4node25ExternalReferenceRegistryE
node:_Z39_register_external_reference_task_queuePN4node25ExternalReferenceRegistryE
node:_Z40_register_external_reference_credentialsPN4node25ExternalReferenceRegistryE
node:_Z40_register_external_reference_handle_wrapPN4node25ExternalReferenceRegistryE
node:_Z40_register_external_reference_module_wrapPN4node25ExternalReferenceRegistryE
node:_Z40_register_external_reference_performancePN4node25ExternalReferenceRegistryE
node:_Z40_register_external_reference_signal_wrapPN4node25ExternalReferenceRegistryE
node:_Z40_register_external_reference_stream_wrapPN4node25ExternalReferenceRegistryE
node:_Z41_register_external_reference_trace_eventsPN4node25ExternalReferenceRegistryE
node:_Z41_register_external_reference_wasm_web_apiPN4node25ExternalReferenceRegistryE
node:_Z42_register_external_reference_fs_event_wrapPN4node25ExternalReferenceRegistryE
node:_Z43_register_external_reference_process_objectPN4node25ExternalReferenceRegistryE
node:_Z43_register_external_reference_string_decoderPN4node25ExternalReferenceRegistryE
node:_Z44_register_external_reference_process_methodsPN4node25ExternalReferenceRegistryE
node:_Z45_register_external_reference_encoding_bindingPN4node25ExternalReferenceRegistryE
node:_Z8V8_FatalPKcz
node:_Z9V8_DcheckPKciS0_
node:_ZN12v8_inspector10StackFrameC1EONS_8String16EiS2_iib
node:_ZN12v8_inspector10StackFrameC2EONS_8String16EiS2_iib
node:_ZN12v8_inspector10V8Debugger12breakProgramEi
node:_ZN12v8_inspector10V8Debugger12queryObjectsEN2v85LocalINS1_7ContextEEENS2_INS1_6ObjectEEE
node:_ZN12v8_inspector10V8Debugger12restartFrameEii
node:_ZN12v8_inspector10V8Debugger13debuggerIdForEi
node:_ZN12v8_inspector10V8Debugger13stackTraceForEiRKNS_14V8StackTraceIdE
node:_ZN12v8_inspector10V8Debugger14ScriptCompiledEN2v85LocalINS1_5debug6ScriptEEEbb
node:_ZN12v8_inspector10V8Debugger14functionScopesEN2v85LocalINS1_7ContextEEENS2_INS1_8FunctionEEE
node:_ZN12v8_inspector10V8Debugger14privateMethodsEN2v85LocalINS1_7ContextEEENS2_INS1_5ValueEEE
node:_ZN12v8_inspector10V8Debugger15ExceptionThrownEN2v85LocalINS1_7ContextEEENS2_INS1_5ValueEEES6_bNS1_5debug13ExceptionTypeE
node:_ZN12v8_inspector10V8Debugger15ShouldBeSkippedEN2v85LocalINS1_5debug6ScriptEEEii
node:_ZN12v8_inspector10V8Debugger15canBreakProgramEv
node:_ZN12v8_inspector10V8Debugger15continueProgramEib
node:_ZN12v8_inspector10V8Debugger15generatorScopesEN2v85LocalINS1_7ContextEEENS2_INS1_5ValueEEE
node:_ZN12v8_inspector10V8Debugger15getTargetScopesEN2v85LocalINS1_7ContextEEENS2_INS1_5ValueEEENS0_15ScopeTargetKindE
node:_ZN12v8_inspector10V8Debugger15storeStackTraceESt10shared_ptrINS_15AsyncStackTraceEE
node:_ZN12v8_inspector10V8Debugger16asyncTaskStartedEPv
node:_ZN12v8_inspector10V8Debugger16createStackTraceEN2v85LocalINS1_10StackTraceEEE
node:_ZN12v8_inspector10V8Debugger16removeBreakpointEi
node:_ZN12v8_inspector10V8Debugger17addInternalObjectEN2v85LocalINS1_7ContextEEENS2_INS1_6ObjectEEENS_19V8InternalValueTypeE
node:_ZN12v8_inspector10V8Debugger17asyncTaskCanceledEPv
node:_ZN12v8_inspector10V8Debugger17asyncTaskFinishedEPv
node:_ZN12v8_inspector10V8Debugger17captureStackTraceEb
node:_ZN12v8_inspector10V8Debugger17interruptAndBreakEi
node:_ZN12v8_inspector10V8Debugger17reportTerminationEv
node:_ZN12v8_inspector10V8Debugger17stepIntoStatementEib
node:_ZN12v8_inspector10V8Debugger17stepOutOfFunctionEi
node:_ZN12v8_inspector10V8Debugger17stepOverStatementEi
node:_ZN12v8_inspector10V8Debugger18AsyncEventOccurredEN2v85debug20DebugAsyncActionTypeEib
node:_ZN12v8_inspector10V8Debugger18asyncTaskScheduledERKNS_10StringViewEPvb
node:_ZN12v8_inspector10V8Debugger18collectionsEntriesEN2v85LocalINS1_7ContextEEENS2_INS1_5ValueEEE
node:_ZN12v8_inspector10V8Debugger18continueToLocationEiPNS_16V8DebuggerScriptESt10unique_ptrINS_8protocol8Debugger8LocationESt14default_deleteIS6_EERKNS_8String16E
node:_ZN12v8_inspector10V8Debugger18currentAsyncParentEv
node:_ZN12v8_inspector10V8Debugger18getCompiledScriptsEiPNS_19V8DebuggerAgentImplE
node:_ZN12v8_inspector10V8Debugger18handleProgramBreakEN2v85LocalINS1_7ContextEEENS2_INS1_5ValueEEERKSt6vectorIiSaIiEENS1_4base7EnumSetINS1_5debug11BreakReasonEiEENSE_13ExceptionTypeEb
node:_ZN12v8_inspector10V8Debugger18internalPropertiesEN2v85LocalINS1_7ContextEEENS2_INS1_5ValueEEE
node:_ZN12v8_inspector10V8Debugger18setPauseOnNextCallEbi
node:_ZN12v8_inspector10V8Debugger18terminateExecutionEN2v85LocalINS1_7ContextEEESt10unique_ptrINS_8protocol7Runtime7Backend26TerminateExecutionCallbackESt14default_deleteIS9_EE
node:_ZN12v8_inspector10V8Debugger20IsFunctionBlackboxedEN2v85LocalINS1_5debug6ScriptEEERKNS3_8LocationES8_
node:_ZN12v8_inspector10V8Debugger20breakProgramOnAssertEi
node:_ZN12v8_inspector10V8Debugger20setBreakpointsActiveEb
node:_ZN12v8_inspector10V8Debugger21BreakProgramRequestedEN2v85LocalINS1_7ContextEEERKSt6vectorIiSaIiEENS1_4base7EnumSetINS1_5debug11BreakReasonEiEE
node:_ZN12v8_inspector10V8Debugger21allAsyncTasksCanceledEv
node:_ZN12v8_inspector10V8Debugger21currentContextGroupIdEv
node:_ZN12v8_inspector10V8Debugger21currentExternalParentEv
node:_ZN12v8_inspector10V8Debugger21nearHeapLimitCallbackEPvmm
node:_ZN12v8_inspector10V8Debugger22BreakOnInstrumentationEN2v85LocalINS1_7ContextEEEi
node:_ZN12v8_inspector10V8Debugger22muteScriptParsedEventsEv
node:_ZN12v8_inspector10V8Debugger22setAsyncCallStackDepthEPNS_19V8DebuggerAgentImplEi
node:_ZN12v8_inspector10V8Debugger22storeCurrentStackTraceERKNS_10StringViewE
node:_ZN12v8_inspector10V8Debugger23clearContinueToLocationEv
node:_ZN12v8_inspector10V8Debugger24asyncTaskStartedForStackEPv
node:_ZN12v8_inspector10V8Debugger24externalAsyncTaskStartedERKNS_14V8StackTraceIdE
node:_ZN12v8_inspector10V8Debugger24unmuteScriptParsedEventsEv
node:_ZN12v8_inspector10V8Debugger25asyncTaskCanceledForStackEPv
node:_ZN12v8_inspector10V8Debugger25asyncTaskFinishedForStackEPv
node:_ZN12v8_inspector10V8Debugger25externalAsyncTaskFinishedERKNS_14V8StackTraceIdE
node:_ZN12v8_inspector10V8Debugger25getPauseOnExceptionsStateEv
node:_ZN12v8_inspector10V8Debugger25setPauseOnExceptionsStateEN2v85debug19ExceptionBreakStateE
node:_ZN12v8_inspector10V8Debugger26asyncTaskScheduledForStackERKNS_10StringViewEPvbb
node:_ZN12v8_inspector10V8Debugger27asyncTaskStartedForSteppingEPv
node:_ZN12v8_inspector10V8Debugger28BreakpointConditionEvaluatedEN2v85LocalINS1_7ContextEEEibNS2_INS1_5ValueEEE
node:_ZN12v8_inspector10V8Debugger28asyncTaskCanceledForSteppingEPv
node:_ZN12v8_inspector10V8Debugger28asyncTaskFinishedForSteppingEPv
node:_ZN12v8_inspector10V8Debugger28setMaxAsyncTaskStacksForTestEi
node:_ZN12v8_inspector10V8Debugger28setMaxCallStackSizeToCaptureEPNS_18V8RuntimeAgentImplEi
node:_ZN12v8_inspector10V8Debugger29asyncTaskCandidateForSteppingEPv
node:_ZN12v8_inspector10V8Debugger29collectOldAsyncStacksIfNeededEv
node:_ZN12v8_inspector10V8Debugger31dumpAsyncTaskStacksStateForTestEv
node:_ZN12v8_inspector10V8Debugger31shouldContinueToCurrentLocationEv
node:_ZN12v8_inspector10V8Debugger32requestPauseAfterInstrumentationEv
node:_ZN12v8_inspector10V8Debugger34installTerminateExecutionCallbacksEN2v85LocalINS1_7ContextEEE
node:_ZN12v8_inspector10V8Debugger35terminateExecutionCompletedCallbackEPN2v87IsolateE
node:_ZN12v8_inspector10V8Debugger46quitMessageLoopIfAgentsFinishedInstrumentationEv
node:_ZN12v8_inspector10V8Debugger47terminateExecutionCompletedCallbackIgnoringDataEPN2v87IsolateEPv
node:_ZN12v8_inspector10V8Debugger6enableEv
node:_ZN12v8_inspector10V8Debugger7disableEv
node:_ZN12v8_inspector10V8Debugger9symbolizeEN2v85LocalINS1_10StackFrameEEE
node:_ZN12v8_inspector10V8DebuggerC1EPN2v87IsolateEPNS_15V8InspectorImplE
node:_ZN12v8_inspector10V8DebuggerC2EPN2v87IsolateEPNS_15V8InspectorImplE
node:_ZN12v8_inspector10V8DebuggerD0Ev
node:_ZN12v8_inspector10V8DebuggerD1Ev
node:_ZN12v8_inspector10V8DebuggerD2Ev
node:_ZN12v8_inspector10toString16ERKNS_10StringViewE
node:_ZN12v8_inspector10toV8StringEPN2v87IsolateERKNS_10StringViewE
node:_ZN12v8_inspector10toV8StringEPN2v87IsolateERKNS_8String16E
node:_ZN12v8_inspector11UTF16ToUTF8B5cxx11EPKtm
node:_ZN12v8_inspector11UTF8ToUTF16B5cxx11EPKcm
node:_ZN12v8_inspector11V8Inspector6createEPN2v87IsolateEPNS_17V8InspectorClientE
node:_ZN12v8_inspector11ValueMirror13getPropertiesEN2v85LocalINS1_7ContextEEENS2_INS1_6ObjectEEEbbbPNS0_19PropertyAccumulatorE
node:_ZN12v8_inspector11ValueMirror20getPrivatePropertiesEN2v85LocalINS1_7ContextEEENS2_INS1_6ObjectEEEb
node:_ZN12v8_inspector11ValueMirror21getInternalPropertiesEN2v85LocalINS1_7ContextEEENS2_INS1_6ObjectEEEPSt6vectorINS_22InternalPropertyMirrorESaIS8_EE
node:_ZN12v8_inspector11ValueMirror6createEN2v85LocalINS1_7ContextEEENS2_INS1_5ValueEEE
node:_ZN12v8_inspector11ValueMirrorD0Ev
node:_ZN12v8_inspector11ValueMirrorD1Ev
node:_ZN12v8_inspector11ValueMirrorD2Ev
node:_ZN12v8_inspector12StringBuffer6createENS_10StringViewE
node:_ZN12v8_inspector12V8DebuggerIdC1ESt4pairIllE
node:_ZN12v8_inspector12V8DebuggerIdC2ESt4pairIllE
node:_ZN12v8_inspector12clientMirrorEN2v85LocalINS0_7ContextEEENS1_INS0_5ValueEEERKNS_8String16E
node:_ZN12v8_inspector12computeCrc32ERKNS_8String16E
node:_ZN12v8_inspector12toStringViewERKNS_8String16E
node:_ZN12v8_inspector13V8ContextInfo18executionContextIdEN2v85LocalINS1_7ContextEEE
node:_ZN12v8_inspector13findSourceURLERKNS_8String16Eb
node:_ZN12v8_inspector14InjectedScript10bindObjectEN2v85LocalINS1_5ValueEEERKNS_8String16E
node:_ZN12v8_inspector14InjectedScript10wrapObjectEN2v85LocalINS1_5ValueEEERKNS_8String16ENS_8WrapModeENS1_10MaybeLocalIS3_EEiPSt10unique_ptrINS_8protocol7Runtime12RemoteObjectESt14default_deleteISE_EE
node:_ZN12v8_inspector14InjectedScript10wrapObjectEN2v85LocalINS1_5ValueEEERKNS_8String16ENS_8WrapModeEPSt10unique_ptrINS_8protocol7Runtime12RemoteObjectESt14default_deleteISC_EE
node:_ZN12v8_inspector14InjectedScript11ObjectScope18findInjectedScriptEPNS_22V8InspectorSessionImplE
node:_ZN12v8_inspector14InjectedScript11ObjectScopeC1EPNS_22V8InspectorSessionImplERKNS_8String16E
node:_ZN12v8_inspector14InjectedScript11ObjectScopeC2EPNS_22V8InspectorSessionImplERKNS_8String16E
node:_ZN12v8_inspector14InjectedScript11ObjectScopeD0Ev
node:_ZN12v8_inspector14InjectedScript11ObjectScopeD1Ev
node:_ZN12v8_inspector14InjectedScript11ObjectScopeD2Ev
node:_ZN12v8_inspector14InjectedScript12ContextScope18findInjectedScriptEPNS_22V8InspectorSessionImplE
node:_ZN12v8_inspector14InjectedScript12ContextScopeC1EPNS_22V8InspectorSessionImplEi
node:_ZN12v8_inspector14InjectedScript12ContextScopeC2EPNS_22V8InspectorSessionImplEi
node:_ZN12v8_inspector14InjectedScript12ContextScopeD0Ev
node:_ZN12v8_inspector14InjectedScript12ContextScopeD1Ev
node:_ZN12v8_inspector14InjectedScript12ContextScopeD2Ev
node:_ZN12v8_inspector14InjectedScript12unbindObjectEi
node:_ZN12v8_inspector14InjectedScript13getPropertiesEN2v85LocalINS1_6ObjectEEERKNS_8String16EbbbNS_8WrapModeEPSt10unique_ptrISt6vectorIS9_INS_8protocol7Runtime18PropertyDescriptorESt14default_deleteISD_EESaISG_EESE_ISI_EEPN8v8_crdtp6detail8PtrMaybeINSC_16ExceptionDetailsEEE
node:_ZN12v8_inspector14InjectedScript13releaseObjectERKNS_8String16E
node:_ZN12v8_inspector14InjectedScript14CallFrameScope18findInjectedScriptEPNS_22V8InspectorSessionImplE
node:_ZN12v8_inspector14InjectedScript14CallFrameScopeC1EPNS_22V8InspectorSessionImplERKNS_8String16E
node:_ZN12v8_inspector14InjectedScript14CallFrameScopeC2EPNS_22V8InspectorSessionImplERKNS_8String16E
node:_ZN12v8_inspector14InjectedScript14CallFrameScopeD0Ev
node:_ZN12v8_inspector14InjectedScript14CallFrameScopeD1Ev
node:_ZN12v8_inspector14InjectedScript14CallFrameScopeD2Ev
node:_ZN12v8_inspector14InjectedScript14commandLineAPIEv
node:_ZN12v8_inspector14InjectedScript16wrapObjectMirrorERKNS_11ValueMirrorERKNS_8String16ENS_8WrapModeEN2v810MaybeLocalINS8_5ValueEEEiPSt10unique_ptrINS_8protocol7Runtime12RemoteObjectESt14default_deleteISF_EE
node:_ZN12v8_inspector14InjectedScript18addPromiseCallbackEPNS_22V8InspectorSessionImplEN2v810MaybeLocalINS3_5ValueEEERKNS_8String16ENS_8WrapModeEbbSt10shared_ptrINS_16EvaluateCallbackEE
node:_ZN12v8_inspector14InjectedScript18releaseObjectGroupERKNS_8String16E
node:_ZN12v8_inspector14InjectedScript18wrapEvaluateResultEN2v810MaybeLocalINS1_5ValueEEERKNS1_8TryCatchERKNS_8String16ENS_8WrapModeEbPSt10unique_ptrINS_8protocol7Runtime12RemoteObjectESt14default_deleteISF_EEPN8v8_crdtp6detail8PtrMaybeINSE_16ExceptionDetailsEEE
node:_ZN12v8_inspector14InjectedScript19resolveCallArgumentEPNS_8protocol7Runtime12CallArgumentEPN2v85LocalINS5_5ValueEEE
node:_ZN12v8_inspector14InjectedScript21addExceptionToDetailsEN2v85LocalINS1_5ValueEEEPNS_8protocol7Runtime16ExceptionDetailsERKNS_8String16E
node:_ZN12v8_inspector14InjectedScript22createExceptionDetailsEN2v85LocalINS1_7MessageEEENS2_INS1_5ValueEEERKNS_8String16EPN8v8_crdtp6detail8PtrMaybeINS_8protocol7Runtime16ExceptionDetailsEEE
node:_ZN12v8_inspector14InjectedScript22createExceptionDetailsERKN2v88TryCatchERKNS_8String16EPN8v8_crdtp6detail8PtrMaybeINS_8protocol7Runtime16ExceptionDetailsEEE
node:_ZN12v8_inspector14InjectedScript22deleteEvaluateCallbackESt10shared_ptrINS_16EvaluateCallbackEE
node:_ZN12v8_inspector14InjectedScript23setLastEvaluationResultEN2v85LocalINS1_5ValueEEE
node:_ZN12v8_inspector14InjectedScript24bindRemoteObjectIfNeededEiN2v85LocalINS1_7ContextEEENS2_INS1_5ValueEEERKNS_8String16EPNS_8protocol7Runtime12RemoteObjectE
node:_ZN12v8_inspector14InjectedScript24discardEvaluateCallbacksEv
node:_ZN12v8_inspector14InjectedScript31getInternalAndPrivatePropertiesEN2v85LocalINS1_5ValueEEERKNS_8String16EbPSt10unique_ptrISt6vectorIS8_INS_8protocol7Runtime26InternalPropertyDescriptorESt14default_deleteISC_EESaISF_EESD_ISH_EEPS8_IS9_IS8_INSB_25PrivatePropertyDescriptorESD_ISL_EESaISN_EESD_ISP_EE
node:_ZN12v8_inspector14InjectedScript31setCustomObjectFormatterEnabledEb
node:_ZN12v8_inspector14InjectedScript5Scope10initializeEv
node:_ZN12v8_inspector14InjectedScript5Scope18pretendUserGestureEv
node:_ZN12v8_inspector14InjectedScript5Scope21installCommandLineAPIEv
node:_ZN12v8_inspector14InjectedScript5Scope25setPauseOnExceptionsStateEN2v85debug19ExceptionBreakStateE
node:_ZN12v8_inspector14InjectedScript5Scope30allowCodeGenerationFromStringsEv
node:_ZN12v8_inspector14InjectedScript5Scope30ignoreExceptionsAndMuteConsoleEv
node:_ZN12v8_inspector14InjectedScript5Scope7cleanupEv
node:_ZN12v8_inspector14InjectedScript5ScopeC1EPNS_22V8InspectorSessionImplE
node:_ZN12v8_inspector14InjectedScript5ScopeC2EPNS_22V8InspectorSessionImplE
node:_ZN12v8_inspector14InjectedScript5ScopeD0Ev
node:_ZN12v8_inspector14InjectedScript5ScopeD1Ev
node:_ZN12v8_inspector14InjectedScript5ScopeD2Ev
node:_ZN12v8_inspector14InjectedScript9wrapTableEN2v85LocalINS1_6ObjectEEENS1_10MaybeLocalINS1_5ArrayEEE
node:_ZN12v8_inspector14InjectedScriptC1EPNS_16InspectedContextEi
node:_ZN12v8_inspector14InjectedScriptC2EPNS_16InspectedContextEi
node:_ZN12v8_inspector14InjectedScriptD1Ev
node:_ZN12v8_inspector14InjectedScriptD2Ev
node:_ZN12v8_inspector14RemoteObjectId5parseERKNS_8String16EPSt10unique_ptrIS0_St14default_deleteIS0_EE
node:_ZN12v8_inspector14RemoteObjectId9serializeEmii
node:_ZN12v8_inspector14V8StackTraceId8ToStringEv
node:_ZN12v8_inspector14V8StackTraceIdC1ENS_10StringViewE
node:_ZN12v8_inspector14V8StackTraceIdC1EmSt4pairIllE
node:_ZN12v8_inspector14V8StackTraceIdC1EmSt4pairIllEb
node:_ZN12v8_inspector14V8StackTraceIdC1Ev
node:_ZN12v8_inspector14V8StackTraceIdC2ENS_10StringViewE
node:_ZN12v8_inspector14V8StackTraceIdC2EmSt4pairIllE
node:_ZN12v8_inspector14V8StackTraceIdC2EmSt4pairIllEb
node:_ZN12v8_inspector14V8StackTraceIdC2Ev
node:_ZN12v8_inspector15AsyncStackTrace5storeEPNS_10V8DebuggerESt10shared_ptrIS0_E
node:_ZN12v8_inspector15AsyncStackTrace7captureEPNS_10V8DebuggerERKNS_8String16Eb
node:_ZN12v8_inspector15AsyncStackTraceC1ERKNS_8String16ESt6vectorISt10shared_ptrINS_10StackFrameEESaIS7_EES5_IS0_ERKNS_14V8StackTraceIdE
node:_ZN12v8_inspector15AsyncStackTraceC2ERKNS_8String16ESt6vectorISt10shared_ptrINS_10StackFrameEESaIS7_EES5_IS0_ERKNS_14V8StackTraceIdE
node:_ZN12v8_inspector15String16Builder12appendNumberEi
node:_ZN12v8_inspector15String16Builder12appendNumberEm
node:_ZN12v8_inspector15String16Builder15reserveCapacityEm
node:_ZN12v8_inspector15String16Builder19appendUnsignedAsHexEh
node:_ZN12v8_inspector15String16Builder19appendUnsignedAsHexEj
node:_ZN12v8_inspector15String16Builder19appendUnsignedAsHexEm
node:_ZN12v8_inspector15String16Builder6appendEPKcm
node:_ZN12v8_inspector15String16Builder6appendEPKtm
node:_ZN12v8_inspector15String16Builder6appendERKNS_8String16E
node:_ZN12v8_inspector15String16Builder6appendEc
node:_ZN12v8_inspector15String16Builder6appendEt
node:_ZN12v8_inspector15String16Builder8toStringEv
node:_ZN12v8_inspector15String16BuilderC1Ev
node:_ZN12v8_inspector15String16BuilderC2Ev
node:_ZN12v8_inspector15V8InspectorImpl10disconnectEPNS_22V8InspectorSessionImplE
node:_ZN12v8_inspector15V8InspectorImpl11contextByIdEi
node:_ZN12v8_inspector15V8InspectorImpl11idleStartedEv
node:_ZN12v8_inspector15V8InspectorImpl11sessionByIdEii
node:_ZN12v8_inspector15V8InspectorImpl12idleFinishedEv
node:_ZN12v8_inspector15V8InspectorImpl12regexContextEv
node:_ZN12v8_inspector15V8InspectorImpl13EvaluateScope10setTimeoutEd
node:_ZN12v8_inspector15V8InspectorImpl13EvaluateScopeC1ERKNS_14InjectedScript5ScopeE
node:_ZN12v8_inspector15V8InspectorImpl13EvaluateScopeC2ERKNS_14InjectedScript5ScopeE
node:_ZN12v8_inspector15V8InspectorImpl13EvaluateScopeD1Ev
node:_ZN12v8_inspector15V8InspectorImpl13EvaluateScopeD2Ev
node:_ZN12v8_inspector15V8InspectorImpl13compileScriptEN2v85LocalINS1_7ContextEEERKNS_8String16ES7_
node:_ZN12v8_inspector15V8InspectorImpl14contextCreatedERKNS_13V8ContextInfoE
node:_ZN12v8_inspector15V8InspectorImpl14forEachContextEiRKSt8functionIFvPNS_16InspectedContextEEE
node:_ZN12v8_inspector15V8InspectorImpl14forEachSessionEiRKSt8functionIFvPNS_22V8InspectorSessionImplEEE
node:_ZN12v8_inspector15V8InspectorImpl14muteExceptionsEi
node:_ZN12v8_inspector15V8InspectorImpl15exceptionThrownEN2v85LocalINS1_7ContextEEENS_10StringViewENS2_INS1_5ValueEEES5_S5_jjSt10unique_ptrINS_12V8StackTraceESt14default_deleteIS9_EEi
node:_ZN12v8_inspector15V8InspectorImpl16asyncTaskStartedEPv
node:_ZN12v8_inspector15V8InspectorImpl16contextCollectedEii
node:_ZN12v8_inspector15V8InspectorImpl16contextDestroyedEN2v85LocalINS1_7ContextEEE
node:_ZN12v8_inspector15V8InspectorImpl16createStackTraceEN2v85LocalINS1_10StackTraceEEE
node:_ZN12v8_inspector15V8InspectorImpl16exceptionRevokedEN2v85LocalINS1_7ContextEEEjNS_10StringViewE
node:_ZN12v8_inspector15V8InspectorImpl16generateUniqueIdEv
node:_ZN12v8_inspector15V8InspectorImpl16uniqueDebuggerIdEi
node:_ZN12v8_inspector15V8InspectorImpl16unmuteExceptionsEi
node:_ZN12v8_inspector15V8InspectorImpl17asyncTaskCanceledEPv
node:_ZN12v8_inspector15V8InspectorImpl17asyncTaskFinishedEPv
node:_ZN12v8_inspector15V8InspectorImpl17captureStackTraceEb
node:_ZN12v8_inspector15V8InspectorImpl17resetContextGroupEi
node:_ZN12v8_inspector15V8InspectorImpl18asyncTaskScheduledENS_10StringViewEPvb
node:_ZN12v8_inspector15V8InspectorImpl21allAsyncTasksCanceledEv
node:_ZN12v8_inspector15V8InspectorImpl22associateExceptionDataEN2v85LocalINS1_7ContextEEENS2_INS1_5ValueEEENS2_INS1_4NameEEES6_
node:_ZN12v8_inspector15V8InspectorImpl22storeCurrentStackTraceENS_10StringViewE
node:_ZN12v8_inspector15V8InspectorImpl23discardInspectedContextEii
node:_ZN12v8_inspector15V8InspectorImpl24exceptionMetaDataContextEv
node:_ZN12v8_inspector15V8InspectorImpl24externalAsyncTaskStartedERKNS_14V8StackTraceIdE
node:_ZN12v8_inspector15V8InspectorImpl24hasConsoleMessageStorageEi
node:_ZN12v8_inspector15V8InspectorImpl25externalAsyncTaskFinishedERKNS_14V8StackTraceIdE
node:_ZN12v8_inspector15V8InspectorImpl26getAssociatedExceptionDataEN2v85LocalINS1_5ValueEEE
node:_ZN12v8_inspector15V8InspectorImpl27compileAndRunInternalScriptEN2v85LocalINS1_7ContextEEENS2_INS1_6StringEEE
node:_ZN12v8_inspector15V8InspectorImpl27ensureConsoleMessageStorageEi
node:_ZN12v8_inspector15V8InspectorImpl37getAssociatedExceptionDataForProtocolEN2v85LocalINS1_5ValueEEE
node:_ZN12v8_inspector15V8InspectorImpl7connectEiPNS_11V8Inspector7ChannelENS_10StringViewENS1_16ClientTrustLevelENS1_17SessionPauseStateE
node:_ZN12v8_inspector15V8InspectorImpl7consoleEv
node:_ZN12v8_inspector15V8InspectorImplC1EPN2v87IsolateEPNS_17V8InspectorClientE
node:_ZN12v8_inspector15V8InspectorImplC2EPN2v87IsolateEPNS_17V8InspectorClientE
node:_ZN12v8_inspector15V8InspectorImplD0Ev
node:_ZN12v8_inspector15V8InspectorImplD1Ev
node:_ZN12v8_inspector15V8InspectorImplD2Ev
node:_ZN12v8_inspector15toProtocolValueEN2v85LocalINS0_7ContextEEENS1_INS0_5ValueEEEPSt10unique_ptrINS_8protocol5ValueESt14default_deleteIS8_EE
node:_ZN12v8_inspector15toProtocolValueEN2v85LocalINS0_7ContextEEENS1_INS0_5ValueEEEiPSt10unique_ptrINS_8protocol5ValueESt14default_deleteIS8_EE
node:_ZN12v8_inspector15toProtocolValueEd
node:_ZN12v8_inspector16EvaluateCallback11sendFailureESt8weak_ptrIS0_EPNS_14InjectedScriptERKN8v8_crdtp16DispatchResponseE
node:_ZN12v8_inspector16EvaluateCallback11sendSuccessESt8weak_ptrIS0_EPNS_14InjectedScriptESt10unique_ptrINS_8protocol7Runtime12RemoteObjectESt14default_deleteIS8_EEN8v8_crdtp6detail8PtrMaybeINS7_16ExceptionDetailsEEE
node:_ZN12v8_inspector16InspectedContext11setReportedEib
node:_ZN12v8_inspector16InspectedContext15getInternalTypeEN2v85LocalINS1_6ObjectEEE
node:_ZN12v8_inspector16InspectedContext17addInternalObjectEN2v85LocalINS1_6ObjectEEENS_19V8InternalValueTypeE
node:_ZN12v8_inspector16InspectedContext17getInjectedScriptEi
node:_ZN12v8_inspector16InspectedContext20createInjectedScriptEi
node:_ZN12v8_inspector16InspectedContext21discardInjectedScriptEi
node:_ZN12v8_inspector16InspectedContext9contextIdEN2v85LocalINS1_7ContextEEE
node:_ZN12v8_inspector16InspectedContextC1EPNS_15V8InspectorImplERKNS_13V8ContextInfoEi
node:_ZN12v8_inspector16InspectedContextC2EPNS_15V8InspectorImplERKNS_13V8ContextInfoEi
node:_ZN12v8_inspector16InspectedContextD1Ev
node:_ZN12v8_inspector16InspectedContextD2Ev
node:_ZN12v8_inspector16StringBufferFromENS_8String16E
node:_ZN12v8_inspector16StringBufferFromESt6vectorIhSaIhEE
node:_ZN12v8_inspector16V8ConsoleMessage11setLocationERKNS_8String16EjjSt10unique_ptrINS_16V8StackTraceImplESt14default_deleteIS5_EEi
node:_ZN12v8_inspector16V8ConsoleMessage16contextDestroyedEi
node:_ZN12v8_inspector16V8ConsoleMessage18createForExceptionEdRKNS_8String16ES3_jjSt10unique_ptrINS_16V8StackTraceImplESt14default_deleteIS5_EEiPN2v87IsolateES3_iNS9_5LocalINS9_5ValueEEEj
node:_ZN12v8_inspector16V8ConsoleMessage19createForConsoleAPIEN2v85LocalINS1_7ContextEEEiiPNS_15V8InspectorImplEdNS_14ConsoleAPITypeERKSt6vectorINS2_INS1_5ValueEEESaISA_EERKNS_8String16ESt10unique_ptrINS_16V8StackTraceImplESt14default_deleteISJ_EE
node:_ZN12v8_inspector16V8ConsoleMessage25createForRevokedExceptionEdRKNS_8String16Ej
node:_ZN12v8_inspector16V8ConsoleMessageC1ENS_15V8MessageOriginEdRKNS_8String16E
node:_ZN12v8_inspector16V8ConsoleMessageC2ENS_15V8MessageOriginEdRKNS_8String16E
node:_ZN12v8_inspector16V8ConsoleMessageD1Ev
node:_ZN12v8_inspector16V8ConsoleMessageD2Ev
node:_ZN12v8_inspector16V8DebuggerScript12setSourceURLERKNS_8String16E
node:_ZN12v8_inspector16V8DebuggerScript20removeWasmBreakpointEi
node:_ZN12v8_inspector16V8DebuggerScript6CreateEPN2v87IsolateENS1_5LocalINS1_5debug6ScriptEEEbPNS_19V8DebuggerAgentImplEPNS_17V8InspectorClientE
node:_ZN12v8_inspector16V8DebuggerScriptC1EPN2v87IsolateENS_8String16ES4_S4_
node:_ZN12v8_inspector16V8DebuggerScriptC2EPN2v87IsolateENS_8String16ES4_S4_
node:_ZN12v8_inspector16V8DebuggerScriptD0Ev
node:_ZN12v8_inspector16V8DebuggerScriptD1Ev
node:_ZN12v8_inspector16V8DebuggerScriptD2Ev
node:_ZN12v8_inspector16V8StackTraceImpl18StackFrameIterator4doneEv
node:_ZN12v8_inspector16V8StackTraceImpl18StackFrameIterator4nextEv
node:_ZN12v8_inspector16V8StackTraceImpl18StackFrameIterator5frameEv
node:_ZN12v8_inspector16V8StackTraceImpl18StackFrameIteratorC1EPKS0_
node:_ZN12v8_inspector16V8StackTraceImpl18StackFrameIteratorC2EPKS0_
node:_ZN12v8_inspector16V8StackTraceImpl5cloneEv
node:_ZN12v8_inspector16V8StackTraceImpl6createEPNS_10V8DebuggerEN2v85LocalINS3_10StackTraceEEEi
node:_ZN12v8_inspector16V8StackTraceImpl7captureEPNS_10V8DebuggerEi
node:_ZN12v8_inspector16V8StackTraceImplC1ESt6vectorISt10shared_ptrINS_10StackFrameEESaIS4_EEiS2_INS_15AsyncStackTraceEERKNS_14V8StackTraceIdE
node:_ZN12v8_inspector16V8StackTraceImplC2ESt6vectorISt10shared_ptrINS_10StackFrameEESaIS4_EEiS2_INS_15AsyncStackTraceEERKNS_14V8StackTraceIdE
node:_ZN12v8_inspector16V8StackTraceImplD0Ev
node:_ZN12v8_inspector16V8StackTraceImplD1Ev
node:_ZN12v8_inspector16V8StackTraceImplD2Ev
node:_ZN12v8_inspector16findSourceMapURLERKNS_8String16Eb
node:_ZN12v8_inspector16toProtocolStringEPN2v87IsolateENS0_5LocalINS0_6StringEEE
node:_ZN12v8_inspector17RemoteCallFrameId5parseERKNS_8String16EPSt10unique_ptrIS0_St14default_deleteIS0_EE
node:_ZN12v8_inspector17RemoteCallFrameId9serializeEmii
node:_ZN12v8_inspector17V8DebuggerBarrierC1EPNS_17V8InspectorClientEi
node:_ZN12v8_inspector17V8DebuggerBarrierC2EPNS_17V8InspectorClientEi
node:_ZN12v8_inspector17V8DebuggerBarrierD1Ev
node:_ZN12v8_inspector17V8DebuggerBarrierD2Ev
node:_ZN12v8_inspector17V8SchemaAgentImpl10getDomainsEPSt10unique_ptrISt6vectorIS1_INS_8protocol6Schema6DomainESt14default_deleteIS5_EESaIS8_EES6_ISA_EE
node:_ZN12v8_inspector17V8SchemaAgentImplC1EPNS_22V8InspectorSessionImplEPN8v8_crdtp15FrontendChannelEPNS_8protocol15DictionaryValueE
node:_ZN12v8_inspector17V8SchemaAgentImplC2EPNS_22V8InspectorSessionImplEPN8v8_crdtp15FrontendChannelEPNS_8protocol15DictionaryValueE
node:_ZN12v8_inspector17V8SchemaAgentImplD0Ev
node:_ZN12v8_inspector17V8SchemaAgentImplD1Ev
node:_ZN12v8_inspector17V8SchemaAgentImplD2Ev
node:_ZN12v8_inspector18RemoteObjectIdBase7parseIdERKNS_8String16E
node:_ZN12v8_inspector18RemoteObjectIdBaseC1Ev
node:_ZN12v8_inspector18RemoteObjectIdBaseC2Ev
node:_ZN12v8_inspector18V8ConsoleAgentImpl12messageAddedEPNS_16V8ConsoleMessageE
node:_ZN12v8_inspector18V8ConsoleAgentImpl13clearMessagesEv
node:_ZN12v8_inspector18V8ConsoleAgentImpl13reportMessageEPNS_16V8ConsoleMessageEb
node:_ZN12v8_inspector18V8ConsoleAgentImpl17reportAllMessagesEv
node:_ZN12v8_inspector18V8ConsoleAgentImpl6enableEv
node:_ZN12v8_inspector18V8ConsoleAgentImpl7disableEv
node:_ZN12v8_inspector18V8ConsoleAgentImpl7enabledEv
node:_ZN12v8_inspector18V8ConsoleAgentImpl7restoreEv
node:_ZN12v8_inspector18V8ConsoleAgentImplC1EPNS_22V8InspectorSessionImplEPN8v8_crdtp15FrontendChannelEPNS_8protocol15DictionaryValueE
node:_ZN12v8_inspector18V8ConsoleAgentImplC2EPNS_22V8InspectorSessionImplEPN8v8_crdtp15FrontendChannelEPNS_8protocol15DictionaryValueE
node:_ZN12v8_inspector18V8ConsoleAgentImplD0Ev
node:_ZN12v8_inspector18V8ConsoleAgentImplD1Ev
node:_ZN12v8_inspector18V8ConsoleAgentImplD2Ev
node:_ZN12v8_inspector18V8InspectorSession17canDispatchMethodENS_10StringViewE
node:_ZN12v8_inspector18V8RuntimeAgentImpl10addBindingEPNS_16InspectedContextERKNS_8String16E
node:_ZN12v8_inspector18V8RuntimeAgentImpl10addBindingERKNS_8String16EN8v8_crdtp6detail10ValueMaybeIiEENS6_IS1_EE
node:_ZN12v8_inspector18V8RuntimeAgentImpl11addBindingsEPNS_16InspectedContextE
node:_ZN12v8_inspector18V8RuntimeAgentImpl12awaitPromiseERKNS_8String16EN8v8_crdtp6detail10ValueMaybeIbEES7_St10unique_ptrINS_8protocol7Runtime7Backend20AwaitPromiseCallbackESt14default_deleteISC_EE
node:_ZN12v8_inspector18V8RuntimeAgentImpl12getHeapUsageEPdS1_
node:_ZN12v8_inspector18V8RuntimeAgentImpl12getIsolateIdEPNS_8String16E
node:_ZN12v8_inspector18V8RuntimeAgentImpl12messageAddedEPNS_16V8ConsoleMessageE
node:_ZN12v8_inspector18V8RuntimeAgentImpl12queryObjectsERKNS_8String16EN8v8_crdtp6detail10ValueMaybeIS1_EEPSt10unique_ptrINS_8protocol7Runtime12RemoteObjectESt14default_deleteISB_EE
node:_ZN12v8_inspector18V8RuntimeAgentImpl13bindingCalledERKNS_8String16ES3_i
node:_ZN12v8_inspector18V8RuntimeAgentImpl13compileScriptERKNS_8String16ES3_bN8v8_crdtp6detail10ValueMaybeIiEEPNS6_IS1_EEPNS5_8PtrMaybeINS_8protocol7Runtime16ExceptionDetailsEEE
node:_ZN12v8_inspector18V8RuntimeAgentImpl13getPropertiesERKNS_8String16EN8v8_crdtp6detail10ValueMaybeIbEES7_S7_S7_PSt10unique_ptrISt6vectorIS8_INS_8protocol7Runtime18PropertyDescriptorESt14default_deleteISC_EESaISF_EESD_ISH_EEPNS5_8PtrMaybeIS9_IS8_INSB_26InternalPropertyDescriptorESD_ISM_EESaISO_EEEEPNSL_IS9_IS8_INSB_25PrivatePropertyDescriptorESD_IST_EESaISV_EEEEPNSL_INSB_16ExceptionDetailsEEE
node:_ZN12v8_inspector18V8RuntimeAgentImpl13releaseObjectERKNS_8String16E
node:_ZN12v8_inspector18V8RuntimeAgentImpl13removeBindingERKNS_8String16E
node:_ZN12v8_inspector18V8RuntimeAgentImpl13reportMessageEPNS_16V8ConsoleMessageEb
node:_ZN12v8_inspector18V8RuntimeAgentImpl14callFunctionOnERKNS_8String16EN8v8_crdtp6detail10ValueMaybeIS1_EENS5_8PtrMaybeISt6vectorISt10unique_ptrINS_8protocol7Runtime12CallArgumentESt14default_deleteISD_EESaISG_EEEENS6_IbEESK_SK_SK_SK_NS6_IiEES7_SK_S7_SK_SA_INSC_7Backend22CallFunctionOnCallbackESE_ISN_EE
node:_ZN12v8_inspector18V8RuntimeAgentImpl15bindingCallbackERKN2v820FunctionCallbackInfoINS1_5ValueEEE
node:_ZN12v8_inspector18V8RuntimeAgentImpl18releaseObjectGroupERKNS_8String16E
node:_ZN12v8_inspector18V8RuntimeAgentImpl18terminateExecutionESt10unique_ptrINS_8protocol7Runtime7Backend26TerminateExecutionCallbackESt14default_deleteIS5_EE
node:_ZN12v8_inspector18V8RuntimeAgentImpl19getExceptionDetailsERKNS_8String16EPN8v8_crdtp6detail8PtrMaybeINS_8protocol7Runtime16ExceptionDetailsEEE
node:_ZN12v8_inspector18V8RuntimeAgentImpl21discardConsoleEntriesEv
node:_ZN12v8_inspector18V8RuntimeAgentImpl23globalLexicalScopeNamesEN8v8_crdtp6detail10ValueMaybeIiEEPSt10unique_ptrISt6vectorINS_8String16ESaIS7_EESt14default_deleteIS9_EE
node:_ZN12v8_inspector18V8RuntimeAgentImpl23runIfWaitingForDebuggerEv
node:_ZN12v8_inspector18V8RuntimeAgentImpl28setMaxCallStackSizeToCaptureEi
node:_ZN12v8_inspector18V8RuntimeAgentImpl29reportExecutionContextCreatedEPNS_16InspectedContextE
node:_ZN12v8_inspector18V8RuntimeAgentImpl31reportExecutionContextDestroyedEPNS_16InspectedContextE
node:_ZN12v8_inspector18V8RuntimeAgentImpl31setCustomObjectFormatterEnabledEb
node:_ZN12v8_inspector18V8RuntimeAgentImpl5resetEv
node:_ZN12v8_inspector18V8RuntimeAgentImpl6enableEv
node:_ZN12v8_inspector18V8RuntimeAgentImpl7disableEv
node:_ZN12v8_inspector18V8RuntimeAgentImpl7inspectESt10unique_ptrINS_8protocol7Runtime12RemoteObjectESt14default_deleteIS4_EES1_INS2_15DictionaryValueES5_IS8_EEi
node:_ZN12v8_inspector18V8RuntimeAgentImpl7restoreEv
node:_ZN12v8_inspector18V8RuntimeAgentImpl8evaluateERKNS_8String16EN8v8_crdtp6detail10ValueMaybeIS1_EENS6_IbEES8_NS6_IiEES8_S8_S8_S8_S8_NS6_IdEES8_S8_S8_S7_S8_St10unique_ptrINS_8protocol7Runtime7Backend16EvaluateCallbackESt14default_deleteISF_EE
node:_ZN12v8_inspector18V8RuntimeAgentImpl9runScriptERKNS_8String16EN8v8_crdtp6detail10ValueMaybeIiEENS6_IS1_EENS6_IbEES9_S9_S9_S9_St10unique_ptrINS_8protocol7Runtime7Backend17RunScriptCallbackESt14default_deleteISE_EE
node:_ZN12v8_inspector18V8RuntimeAgentImplC1EPNS_22V8InspectorSessionImplEPN8v8_crdtp15FrontendChannelEPNS_8protocol15DictionaryValueESt10shared_ptrINS_17V8DebuggerBarrierEE
node:_ZN12v8_inspector18V8RuntimeAgentImplC2EPNS_22V8InspectorSessionImplEPN8v8_crdtp15FrontendChannelEPNS_8protocol15DictionaryValueESt10shared_ptrINS_17V8DebuggerBarrierEE
node:_ZN12v8_inspector18V8RuntimeAgentImplD0Ev
node:_ZN12v8_inspector18V8RuntimeAgentImplD1Ev
node:_ZN12v8_inspector18V8RuntimeAgentImplD2Ev
node:_ZN12v8_inspector18createDataPropertyEN2v85LocalINS0_7ContextEEENS1_INS0_5ArrayEEEiNS1_INS0_5ValueEEE
node:_ZN12v8_inspector18createDataPropertyEN2v85LocalINS0_7ContextEEENS1_INS0_6ObjectEEENS1_INS0_4NameEEENS1_INS0_5ValueEEE
node:_ZN12v8_inspector19V8DebuggerAgentImpl10enableImplEv
node:_ZN12v8_inspector19V8DebuggerAgentImpl11didContinueEv
node:_ZN12v8_inspector19V8DebuggerAgentImpl12breakProgramERKNS_8String16ESt10unique_ptrINS_8protocol15DictionaryValueESt14default_deleteIS6_EE
node:_ZN12v8_inspector19V8DebuggerAgentImpl12restartFrameERKNS_8String16EN8v8_crdtp6detail10ValueMaybeIS1_EEPSt10unique_ptrISt6vectorIS8_INS_8protocol8Debugger9CallFrameESt14default_deleteISC_EESaISF_EESD_ISH_EEPNS5_8PtrMaybeINSA_7Runtime10StackTraceEEEPNSL_INSM_12StackTraceIdEEE
node:_ZN12v8_inspector19V8DebuggerAgentImpl13getStackTraceESt10unique_ptrINS_8protocol7Runtime12StackTraceIdESt14default_deleteIS4_EEPS1_INS3_10StackTraceES5_IS8_EE
node:_ZN12v8_inspector19V8DebuggerAgentImpl13setBreakpointESt10unique_ptrINS_8protocol8Debugger8LocationESt14default_deleteIS4_EEN8v8_crdtp6detail10ValueMaybeINS_8String16EEEPSB_PS7_
node:_ZN12v8_inspector19V8DebuggerAgentImpl14didParseSourceESt10unique_ptrINS_16V8DebuggerScriptESt14default_deleteIS2_EEb
node:_ZN12v8_inspector19V8DebuggerAgentImpl14setReturnValueESt10unique_ptrINS_8protocol7Runtime12CallArgumentESt14default_deleteIS4_EE
node:_ZN12v8_inspector19V8DebuggerAgentImpl15ScriptCollectedEPKNS_16V8DebuggerScriptE
node:_ZN12v8_inspector19V8DebuggerAgentImpl15getScriptSourceERKNS_8String16EPS1_PN8v8_crdtp6detail10ValueMaybeINS_8protocol6BinaryEEE
node:_ZN12v8_inspector19V8DebuggerAgentImpl15getWasmBytecodeERKNS_8String16EPNS_8protocol6BinaryE
node:_ZN12v8_inspector19V8DebuggerAgentImpl15popBreakDetailsEv
node:_ZN12v8_inspector19V8DebuggerAgentImpl15processSkipListEPSt6vectorISt10unique_ptrINS_8protocol8Debugger13LocationRangeESt14default_deleteIS5_EESaIS8_EE
node:_ZN12v8_inspector19V8DebuggerAgentImpl15searchInContentERKNS_8String16ES3_N8v8_crdtp6detail10ValueMaybeIbEES7_PSt10unique_ptrISt6vectorIS8_INS_8protocol8Debugger11SearchMatchESt14default_deleteISC_EESaISF_EESD_ISH_EE
node:_ZN12v8_inspector19V8DebuggerAgentImpl15setScriptSourceERKNS_8String16ES3_N8v8_crdtp6detail10ValueMaybeIbEES7_PNS5_8PtrMaybeISt6vectorISt10unique_ptrINS_8protocol8Debugger9CallFrameESt14default_deleteISD_EESaISG_EEEEPS7_PNS8_INSB_7Runtime10StackTraceEEEPNS8_INSM_12StackTraceIdEEEPS1_PNS8_INSM_16ExceptionDetailsEEE
node:_ZN12v8_inspector19V8DebuggerAgentImpl15shouldBeSkippedERKNS_8String16Eii
node:_ZN12v8_inspector19V8DebuggerAgentImpl16pauseOnAsyncCallESt10unique_ptrINS_8protocol7Runtime12StackTraceIdESt14default_deleteIS4_EE
node:_ZN12v8_inspector19V8DebuggerAgentImpl16pushBreakDetailsERKNS_8String16ESt10unique_ptrINS_8protocol15DictionaryValueESt14default_deleteIS6_EE
node:_ZN12v8_inspector19V8DebuggerAgentImpl16removeBreakpointERKNS_8String16E
node:_ZN12v8_inspector19V8DebuggerAgentImpl16setBreakpointForEN2v85LocalINS1_8FunctionEEENS2_INS1_6StringEEENS0_16BreakpointSourceE
node:_ZN12v8_inspector19V8DebuggerAgentImpl16setSkipAllPausesEb
node:_ZN12v8_inspector19V8DebuggerAgentImpl16setVariableValueEiRKNS_8String16ESt10unique_ptrINS_8protocol7Runtime12CallArgumentESt14default_deleteIS7_EES3_
node:_ZN12v8_inspector19V8DebuggerAgentImpl17clearBreakDetailsEv
node:_ZN12v8_inspector19V8DebuggerAgentImpl17currentCallFramesEPSt10unique_ptrISt6vectorIS1_INS_8protocol8Debugger9CallFrameESt14default_deleteIS5_EESaIS8_EES6_ISA_EE
node:_ZN12v8_inspector19V8DebuggerAgentImpl17setBreakpointImplERKNS_8String16EN2v85LocalINS4_8FunctionEEENS5_INS4_6StringEEE
node:_ZN12v8_inspector19V8DebuggerAgentImpl17setBreakpointImplERKNS_8String16ES3_S3_ii
node:_ZN12v8_inspector19V8DebuggerAgentImpl18continueToLocationESt10unique_ptrINS_8protocol8Debugger8LocationESt14default_deleteIS4_EEN8v8_crdtp6detail10ValueMaybeINS_8String16EEE
node:_ZN12v8_inspector19V8DebuggerAgentImpl18setBlackboxPatternERKNS_8String16E
node:_ZN12v8_inspector19V8DebuggerAgentImpl18setBreakpointByUrlEiN8v8_crdtp6detail10ValueMaybeINS_8String16EEES5_S5_NS3_IiEES5_PS4_PSt10unique_ptrISt6vectorIS8_INS_8protocol8Debugger8LocationESt14default_deleteISC_EESaISF_EESD_ISH_EE
node:_ZN12v8_inspector19V8DebuggerAgentImpl19evaluateOnCallFrameERKNS_8String16ES3_N8v8_crdtp6detail10ValueMaybeIS1_EENS6_IbEES8_S8_S8_S8_NS6_IdEEPSt10unique_ptrINS_8protocol7Runtime12RemoteObjectESt14default_deleteISD_EEPNS5_8PtrMaybeINSC_16ExceptionDetailsEEE
node:_ZN12v8_inspector19V8DebuggerAgentImpl19removeBreakpointForEN2v85LocalINS1_8FunctionEEENS0_16BreakpointSourceE
node:_ZN12v8_inspector19V8DebuggerAgentImpl19setBlackboxPatternsESt10unique_ptrISt6vectorINS_8String16ESaIS3_EESt14default_deleteIS5_EE
node:_ZN12v8_inspector19V8DebuggerAgentImpl19setBlackboxedRangesERKNS_8String16ESt10unique_ptrISt6vectorIS4_INS_8protocol8Debugger14ScriptPositionESt14default_deleteIS8_EESaISB_EES9_ISD_EE
node:_ZN12v8_inspector19V8DebuggerAgentImpl20isFunctionBlackboxedERKNS_8String16ERKN2v85debug8LocationES8_
node:_ZN12v8_inspector19V8DebuggerAgentImpl20removeBreakpointImplERKNS_8String16ERKSt6vectorIPNS_16V8DebuggerScriptESaIS6_EE
node:_ZN12v8_inspector19V8DebuggerAgentImpl20setBreakpointsActiveEb
node:_ZN12v8_inspector19V8DebuggerAgentImpl20setPauseOnExceptionsERKNS_8String16E
node:_ZN12v8_inspector19V8DebuggerAgentImpl21disassembleWasmModuleERKNS_8String16EPN8v8_crdtp6detail10ValueMaybeIS1_EEPiPSt10unique_ptrISt6vectorIiSaIiEESt14default_deleteISD_EEPSA_INS_8protocol8Debugger20WasmDisassemblyChunkESE_ISK_EE
node:_ZN12v8_inspector19V8DebuggerAgentImpl22currentAsyncStackTraceEv
node:_ZN12v8_inspector19V8DebuggerAgentImpl22getPossibleBreakpointsESt10unique_ptrINS_8protocol8Debugger8LocationESt14default_deleteIS4_EEN8v8_crdtp6detail8PtrMaybeIS4_EENS9_10ValueMaybeIbEEPS1_ISt6vectorIS1_INS3_13BreakLocationES5_ISF_EESaISH_EES5_ISJ_EE
node:_ZN12v8_inspector19V8DebuggerAgentImpl22setAsyncCallStackDepthEi
node:_ZN12v8_inspector19V8DebuggerAgentImpl24nextWasmDisassemblyChunkERKNS_8String16EPSt10unique_ptrINS_8protocol8Debugger20WasmDisassemblyChunkESt14default_deleteIS7_EE
node:_ZN12v8_inspector19V8DebuggerAgentImpl24setPauseOnExceptionsImplEi
node:_ZN12v8_inspector19V8DebuggerAgentImpl25currentExternalStackTraceEv
node:_ZN12v8_inspector19V8DebuggerAgentImpl25didPauseOnInstrumentationEi
node:_ZN12v8_inspector19V8DebuggerAgentImpl25resetBlackboxedStateCacheEv
node:_ZN12v8_inspector19V8DebuggerAgentImpl26cancelPauseOnNextStatementEv
node:_ZN12v8_inspector19V8DebuggerAgentImpl27setBreakpointOnFunctionCallERKNS_8String16EN8v8_crdtp6detail10ValueMaybeIS1_EEPS1_
node:_ZN12v8_inspector19V8DebuggerAgentImpl28schedulePauseOnNextStatementERKNS_8String16ESt10unique_ptrINS_8protocol15DictionaryValueESt14default_deleteIS6_EE
node:_ZN12v8_inspector19V8DebuggerAgentImpl28setInstrumentationBreakpointERKNS_8String16EPS1_
node:_ZN12v8_inspector19V8DebuggerAgentImpl42setScriptInstrumentationBreakpointIfNeededEPNS_16V8DebuggerScriptE
node:_ZN12v8_inspector19V8DebuggerAgentImpl4stopEv
node:_ZN12v8_inspector19V8DebuggerAgentImpl5pauseEv
node:_ZN12v8_inspector19V8DebuggerAgentImpl5resetEv
node:_ZN12v8_inspector19V8DebuggerAgentImpl6enableEN8v8_crdtp6detail10ValueMaybeIdEEPNS_8String16E
node:_ZN12v8_inspector19V8DebuggerAgentImpl6resumeEN8v8_crdtp6detail10ValueMaybeIbEE
node:_ZN12v8_inspector19V8DebuggerAgentImpl7disableEv
node:_ZN12v8_inspector19V8DebuggerAgentImpl7restoreEv
node:_ZN12v8_inspector19V8DebuggerAgentImpl7stepOutEv
node:_ZN12v8_inspector19V8DebuggerAgentImpl8didPauseEiN2v85LocalINS1_5ValueEEERKSt6vectorIiSaIiEENS1_5debug13ExceptionTypeEbNS1_4base7EnumSetINSA_11BreakReasonEiEE
node:_ZN12v8_inspector19V8DebuggerAgentImpl8stepIntoEN8v8_crdtp6detail10ValueMaybeIbEENS2_8PtrMaybeISt6vectorISt10unique_ptrINS_8protocol8Debugger13LocationRangeESt14default_deleteISA_EESaISD_EEEE
node:_ZN12v8_inspector19V8DebuggerAgentImpl8stepOverEN8v8_crdtp6detail8PtrMaybeISt6vectorISt10unique_ptrINS_8protocol8Debugger13LocationRangeESt14default_deleteIS8_EESaISB_EEEE
node:_ZN12v8_inspector19V8DebuggerAgentImplC1EPNS_22V8InspectorSessionImplEPN8v8_crdtp15FrontendChannelEPNS_8protocol15DictionaryValueE
node:_ZN12v8_inspector19V8DebuggerAgentImplC2EPNS_22V8InspectorSessionImplEPN8v8_crdtp15FrontendChannelEPNS_8protocol15DictionaryValueE
node:_ZN12v8_inspector19V8DebuggerAgentImplD0Ev
node:_ZN12v8_inspector19V8DebuggerAgentImplD1Ev
node:_ZN12v8_inspector19V8DebuggerAgentImplD2Ev
node:_ZN12v8_inspector19V8ProfilerAgentImpl13nextProfileIdEv
node:_ZN12v8_inspector19V8ProfilerAgentImpl13stopProfilingERKNS_8String16Eb
node:_ZN12v8_inspector19V8ProfilerAgentImpl14consoleProfileERKNS_8String16E
node:_ZN12v8_inspector19V8ProfilerAgentImpl14startProfilingERKNS_8String16E
node:_ZN12v8_inspector19V8ProfilerAgentImpl17consoleProfileEndERKNS_8String16E
node:_ZN12v8_inspector19V8ProfilerAgentImpl19setSamplingIntervalEi
node:_ZN12v8_inspector19V8ProfilerAgentImpl19stopPreciseCoverageEv
node:_ZN12v8_inspector19V8ProfilerAgentImpl19takePreciseCoverageEPSt10unique_ptrISt6vectorIS1_INS_8protocol8Profiler14ScriptCoverageESt14default_deleteIS5_EESaIS8_EES6_ISA_EEPd
node:_ZN12v8_inspector19V8ProfilerAgentImpl20startPreciseCoverageEN8v8_crdtp6detail10ValueMaybeIbEES4_S4_Pd
node:_ZN12v8_inspector19V8ProfilerAgentImpl21getBestEffortCoverageEPSt10unique_ptrISt6vectorIS1_INS_8protocol8Profiler14ScriptCoverageESt14default_deleteIS5_EESaIS8_EES6_ISA_EE
node:_ZN12v8_inspector19V8ProfilerAgentImpl33triggerPreciseCoverageDeltaUpdateERKNS_8String16E
node:_ZN12v8_inspector19V8ProfilerAgentImpl4stopEPSt10unique_ptrINS_8protocol8Profiler7ProfileESt14default_deleteIS4_EE
node:_ZN12v8_inspector19V8ProfilerAgentImpl5startEv
node:_ZN12v8_inspector19V8ProfilerAgentImpl6enableEv
node:_ZN12v8_inspector19V8ProfilerAgentImpl7disableEv
node:_ZN12v8_inspector19V8ProfilerAgentImpl7restoreEv
node:_ZN12v8_inspector19V8ProfilerAgentImplC1EPNS_22V8InspectorSessionImplEPN8v8_crdtp15FrontendChannelEPNS_8protocol15DictionaryValueE
node:_ZN12v8_inspector19V8ProfilerAgentImplC2EPNS_22V8InspectorSessionImplEPN8v8_crdtp15FrontendChannelEPNS_8protocol15DictionaryValueE
node:_ZN12v8_inspector19V8ProfilerAgentImplD0Ev
node:_ZN12v8_inspector19V8ProfilerAgentImplD1Ev
node:_ZN12v8_inspector19V8ProfilerAgentImplD2Ev
node:_ZN12v8_inspector20arrayToProtocolValueEN2v85LocalINS0_7ContextEEENS1_INS0_5ArrayEEEiPSt10unique_ptrINS_8protocol9ListValueESt14default_deleteIS8_EE
node:_ZN12v8_inspector20stackTraceIdToStringEm
node:_ZN12v8_inspector20stringViewStartsWithERKNS_10StringViewEPKc
node:_ZN12v8_inspector21V8WebDriverSerializer16serializeV8ValueEN2v85LocalINS1_6ObjectEEENS2_INS1_7ContextEEEi
node:_ZN12v8_inspector21generateCustomPreviewEiRKNS_8String16EN2v85LocalINS3_6ObjectEEENS3_10MaybeLocalINS3_5ValueEEEiPSt10unique_ptrINS_8protocol7Runtime13CustomPreviewESt14default_deleteISD_EE
node:_ZN12v8_inspector21objectToProtocolValueEN2v85LocalINS0_7ContextEEENS1_INS0_6ObjectEEEiPSt10unique_ptrINS_8protocol15DictionaryValueESt14default_deleteIS8_EE
node:_ZN12v8_inspector22V8InspectorSessionImpl10agentStateERKNS_8String16E
node:_ZN12v8_inspector22V8InspectorSessionImpl10wrapObjectEN2v85LocalINS1_7ContextEEENS2_INS1_5ValueEEENS_10StringViewEb
node:_ZN12v8_inspector22V8InspectorSessionImpl10wrapObjectEN2v85LocalINS1_7ContextEEENS2_INS1_5ValueEEERKNS_8String16Eb
node:_ZN12v8_inspector22V8InspectorSessionImpl11FallThroughEiN8v8_crdtp4spanIhEES3_
node:_ZN12v8_inspector22V8InspectorSessionImpl12breakProgramENS_10StringViewES1_
node:_ZN12v8_inspector22V8InspectorSessionImpl12unwrapObjectEPSt10unique_ptrINS_12StringBufferESt14default_deleteIS2_EENS_10StringViewEPN2v85LocalINS8_5ValueEEEPNS9_INS8_7ContextEEES6_
node:_ZN12v8_inspector22V8InspectorSessionImpl12unwrapObjectERKNS_8String16EPN2v85LocalINS4_5ValueEEEPNS5_INS4_7ContextEEEPS1_
node:_ZN12v8_inspector22V8InspectorSessionImpl15inspectedObjectEj
node:_ZN12v8_inspector22V8InspectorSessionImpl16setSkipAllPausesEb
node:_ZN12v8_inspector22V8InspectorSessionImpl16supportedDomainsEv
node:_ZN12v8_inspector22V8InspectorSessionImpl17reportAllContextsEPNS_18V8RuntimeAgentImplE
node:_ZN12v8_inspector22V8InspectorSessionImpl18addInspectedObjectESt10unique_ptrINS_18V8InspectorSession11InspectableESt14default_deleteIS3_EE
node:_ZN12v8_inspector22V8InspectorSessionImpl18findInjectedScriptEPNS_18RemoteObjectIdBaseERPNS_14InjectedScriptE
node:_ZN12v8_inspector22V8InspectorSessionImpl18findInjectedScriptEiRPNS_14InjectedScriptE
node:_ZN12v8_inspector22V8InspectorSessionImpl18releaseObjectGroupENS_10StringViewE
node:_ZN12v8_inspector22V8InspectorSessionImpl18releaseObjectGroupERKNS_8String16E
node:_ZN12v8_inspector22V8InspectorSessionImpl19searchInTextByLinesENS_10StringViewES1_bb
node:_ZN12v8_inspector22V8InspectorSessionImpl20SendProtocolResponseEiSt10unique_ptrIN8v8_crdtp12SerializableESt14default_deleteIS3_EE
node:_ZN12v8_inspector22V8InspectorSessionImpl20serializeForFrontendESt10unique_ptrIN8v8_crdtp12SerializableESt14default_deleteIS3_EE
node:_ZN12v8_inspector22V8InspectorSessionImpl20supportedDomainsImplEv
node:_ZN12v8_inspector22V8InspectorSessionImpl22discardInjectedScriptsEv
node:_ZN12v8_inspector22V8InspectorSessionImpl23dispatchProtocolMessageENS_10StringViewE
node:_ZN12v8_inspector22V8InspectorSessionImpl24SendProtocolNotificationESt10unique_ptrIN8v8_crdtp12SerializableESt14default_deleteIS3_EE
node:_ZN12v8_inspector22V8InspectorSessionImpl26FlushProtocolNotificationsEv
node:_ZN12v8_inspector22V8InspectorSessionImpl26cancelPauseOnNextStatementEv
node:_ZN12v8_inspector22V8InspectorSessionImpl28schedulePauseOnNextStatementENS_10StringViewES1_
node:_ZN12v8_inspector22V8InspectorSessionImpl29initializeCommandLineAPIScopeEi
node:_ZN12v8_inspector22V8InspectorSessionImpl31setCustomObjectFormatterEnabledEb
node:_ZN12v8_inspector22V8InspectorSessionImpl33triggerPreciseCoverageDeltaUpdateENS_10StringViewE
node:_ZN12v8_inspector22V8InspectorSessionImpl4stopEv
node:_ZN12v8_inspector22V8InspectorSessionImpl5resetEv
node:_ZN12v8_inspector22V8InspectorSessionImpl5stateEv
node:_ZN12v8_inspector22V8InspectorSessionImpl6createEPNS_15V8InspectorImplEiiPNS_11V8Inspector7ChannelENS_10StringViewENS3_16ClientTrustLevelESt10shared_ptrINS_17V8DebuggerBarrierEE
node:_ZN12v8_inspector22V8InspectorSessionImpl6resumeEb
node:_ZN12v8_inspector22V8InspectorSessionImpl8stepOverEv
node:_ZN12v8_inspector22V8InspectorSessionImpl9wrapTableEN2v85LocalINS1_7ContextEEENS2_INS1_6ObjectEEENS1_10MaybeLocalINS1_5ArrayEEE
node:_ZN12v8_inspector22V8InspectorSessionImplC1EPNS_15V8InspectorImplEiiPNS_11V8Inspector7ChannelENS_10StringViewENS3_16ClientTrustLevelESt10shared_ptrINS_17V8DebuggerBarrierEE
node:_ZN12v8_inspector22V8InspectorSessionImplC2EPNS_15V8InspectorImplEiiPNS_11V8Inspector7ChannelENS_10StringViewENS3_16ClientTrustLevelESt10shared_ptrINS_17V8DebuggerBarrierEE
node:_ZN12v8_inspector22V8InspectorSessionImplD0Ev
node:_ZN12v8_inspector22V8InspectorSessionImplD1Ev
node:_ZN12v8_inspector22V8InspectorSessionImplD2Ev
node:_ZN12v8_inspector22toV8StringInternalizedEPN2v87IsolateEPKc
node:_ZN12v8_inspector22toV8StringInternalizedEPN2v87IsolateERKNS_8String16E
node:_ZN12v8_inspector23V8ConsoleMessageStorage10addMessageESt10unique_ptrINS_16V8ConsoleMessageESt14default_deleteIS2_EE
node:_ZN12v8_inspector23V8ConsoleMessageStorage10countResetEiRKNS_8String16E
node:_ZN12v8_inspector23V8ConsoleMessageStorage16contextDestroyedEi
node:_ZN12v8_inspector23V8ConsoleMessageStorage30shouldReportDeprecationMessageEiRKNS_8String16E
node:_ZN12v8_inspector23V8ConsoleMessageStorage4timeEiRKNS_8String16E
node:_ZN12v8_inspector23V8ConsoleMessageStorage5clearEv
node:_ZN12v8_inspector23V8ConsoleMessageStorage5countEiRKNS_8String16E
node:_ZN12v8_inspector23V8ConsoleMessageStorage7timeEndEiRKNS_8String16E
node:_ZN12v8_inspector23V8ConsoleMessageStorage7timeLogEiRKNS_8String16E
node:_ZN12v8_inspector23V8ConsoleMessageStorage8hasTimerEiRKNS_8String16E
node:_ZN12v8_inspector23V8ConsoleMessageStorageC1EPNS_15V8InspectorImplEi
node:_ZN12v8_inspector23V8ConsoleMessageStorageC2EPNS_15V8InspectorImplEi
node:_ZN12v8_inspector23V8ConsoleMessageStorageD1Ev
node:_ZN12v8_inspector23V8ConsoleMessageStorageD2Ev
node:_ZN12v8_inspector23V8HeapProfilerAgentImpl12stopSamplingEPSt10unique_ptrINS_8protocol12HeapProfiler19SamplingHeapProfileESt14default_deleteIS4_EE
node:_ZN12v8_inspector23V8HeapProfilerAgentImpl13startSamplingEN8v8_crdtp6detail10ValueMaybeIdEENS3_IbEES5_
node:_ZN12v8_inspector23V8HeapProfilerAgentImpl14collectGarbageESt10unique_ptrINS_8protocol12HeapProfiler7Backend22CollectGarbageCallbackESt14default_deleteIS5_EE
node:_ZN12v8_inspector23V8HeapProfilerAgentImpl15getHeapObjectIdERKNS_8String16EPS1_
node:_ZN12v8_inspector23V8HeapProfilerAgentImpl16takeHeapSnapshotEN8v8_crdtp6detail10ValueMaybeIbEES4_S4_S4_
node:_ZN12v8_inspector23V8HeapProfilerAgentImpl18getSamplingProfileEPSt10unique_ptrINS_8protocol12HeapProfiler19SamplingHeapProfileESt14default_deleteIS4_EE
node:_ZN12v8_inspector23V8HeapProfilerAgentImpl22addInspectedHeapObjectERKNS_8String16E
node:_ZN12v8_inspector23V8HeapProfilerAgentImpl22requestHeapStatsUpdateEv
node:_ZN12v8_inspector23V8HeapProfilerAgentImpl23getObjectByHeapObjectIdERKNS_8String16EN8v8_crdtp6detail10ValueMaybeIS1_EEPSt10unique_ptrINS_8protocol7Runtime12RemoteObjectESt14default_deleteISB_EE
node:_ZN12v8_inspector23V8HeapProfilerAgentImpl23stopTrackingHeapObjectsEN8v8_crdtp6detail10ValueMaybeIbEES4_S4_S4_
node:_ZN12v8_inspector23V8HeapProfilerAgentImpl24startTrackingHeapObjectsEN8v8_crdtp6detail10ValueMaybeIbEE
node:_ZN12v8_inspector23V8HeapProfilerAgentImpl31stopTrackingHeapObjectsInternalEv
node:_ZN12v8_inspector23V8HeapProfilerAgentImpl32startTrackingHeapObjectsInternalEb
node:_ZN12v8_inspector23V8HeapProfilerAgentImpl6enableEv
node:_ZN12v8_inspector23V8HeapProfilerAgentImpl7disableEv
node:_ZN12v8_inspector23V8HeapProfilerAgentImpl7onTimerEPv
node:_ZN12v8_inspector23V8HeapProfilerAgentImpl7restoreEv
node:_ZN12v8_inspector23V8HeapProfilerAgentImplC1EPNS_22V8InspectorSessionImplEPN8v8_crdtp15FrontendChannelEPNS_8protocol15DictionaryValueE
node:_ZN12v8_inspector23V8HeapProfilerAgentImplC2EPNS_22V8InspectorSessionImplEPN8v8_crdtp15FrontendChannelEPNS_8protocol15DictionaryValueE
node:_ZN12v8_inspector23V8HeapProfilerAgentImplD0Ev
node:_ZN12v8_inspector23V8HeapProfilerAgentImplD1Ev
node:_ZN12v8_inspector23V8HeapProfilerAgentImplD2Ev
node:_ZN12v8_inspector23searchInTextByLinesImplEPNS_18V8InspectorSessionERKNS_8String16ES4_bb
node:_ZN12v8_inspector28SetMaxAsyncTaskStacksForTestEPNS_11V8InspectorEi
node:_ZN12v8_inspector29toProtocolStringWithTypeCheckEPN2v87IsolateENS0_5LocalINS0_5ValueEEE
node:_ZN12v8_inspector31DumpAsyncTaskStacksStateForTestEPNS_11V8InspectorE
node:_ZN12v8_inspector7V8RegexC1EPNS_15V8InspectorImplERKNS_8String16Ebb
node:_ZN12v8_inspector7V8RegexC2EPNS_15V8InspectorImplERKNS_8String16Ebb
node:_ZN12v8_inspector8String1610fromDoubleEd
node:_ZN12v8_inspector8String1610fromDoubleEdi
node:_ZN12v8_inspector8String1611fromIntegerEi
node:_ZN12v8_inspector8String1611fromIntegerEm
node:_ZN12v8_inspector8String1611fromUTF16LEEPKtm
node:_ZN12v8_inspector8String1613fromInteger64El
node:_ZN12v8_inspector8String168fromUTF8EPKcm
node:_ZN12v8_inspector8String16C1EONSt7__cxx1112basic_stringItSt11char_traitsItESaItEEE
node:_ZN12v8_inspector8String16C1EPKc
node:_ZN12v8_inspector8String16C1EPKcm
node:_ZN12v8_inspector8String16C1EPKt
node:_ZN12v8_inspector8String16C1EPKtm
node:_ZN12v8_inspector8String16C1ERKNSt7__cxx1112basic_stringItSt11char_traitsItESaItEEE
node:_ZN12v8_inspector8String16C2EONSt7__cxx1112basic_stringItSt11char_traitsItESaItEEE
node:_ZN12v8_inspector8String16C2EPKc
node:_ZN12v8_inspector8String16C2EPKcm
node:_ZN12v8_inspector8String16C2EPKt
node:_ZN12v8_inspector8String16C2EPKtm
node:_ZN12v8_inspector8String16C2ERKNSt7__cxx1112basic_stringItSt11char_traitsItESaItEEE
node:_ZN12v8_inspector8TaskInfoC1EPN2v87IsolateEPNS_9V8ConsoleENS1_5LocalINS1_6ObjectEEE
node:_ZN12v8_inspector8TaskInfoC2EPN2v87IsolateEPNS_9V8ConsoleENS1_5LocalINS1_6ObjectEEE
node:_ZN12v8_inspector8internal12V8DebuggerId8generateEPNS_15V8InspectorImplE
node:_ZN12v8_inspector8internal12V8DebuggerIdC1ERKNS_8String16E
node:_ZN12v8_inspector8internal12V8DebuggerIdC1ESt4pairIllE
node:_ZN12v8_inspector8internal12V8DebuggerIdC2ERKNS_8String16E
node:_ZN12v8_inspector8internal12V8DebuggerIdC2ESt4pairIllE
node:_ZN12v8_inspector8protocol12HeapProfiler10Dispatcher4wireEPN8v8_crdtp14UberDispatcherEPNS1_7BackendE
node:_ZN12v8_inspector8protocol12HeapProfiler19SamplingHeapProfile23deserializer_descriptorEv
node:_ZN12v8_inspector8protocol12HeapProfiler20DomainDispatcherImpl12stopSamplingERKN8v8_crdtp12DispatchableE
node:_ZN12v8_inspector8protocol12HeapProfiler20DomainDispatcherImpl13startSamplingERKN8v8_crdtp12DispatchableE
node:_ZN12v8_inspector8protocol12HeapProfiler20DomainDispatcherImpl14collectGarbageERKN8v8_crdtp12DispatchableE
node:_ZN12v8_inspector8protocol12HeapProfiler20DomainDispatcherImpl15getHeapObjectIdERKN8v8_crdtp12DispatchableE
node:_ZN12v8_inspector8protocol12HeapProfiler20DomainDispatcherImpl16takeHeapSnapshotERKN8v8_crdtp12DispatchableE
node:_ZN12v8_inspector8protocol12HeapProfiler20DomainDispatcherImpl18getSamplingProfileERKN8v8_crdtp12DispatchableE
node:_ZN12v8_inspector8protocol12HeapProfiler20DomainDispatcherImpl22addInspectedHeapObjectERKN8v8_crdtp12DispatchableE
node:_ZN12v8_inspector8protocol12HeapProfiler20DomainDispatcherImpl23getObjectByHeapObjectIdERKN8v8_crdtp12DispatchableE
node:_ZN12v8_inspector8protocol12HeapProfiler20DomainDispatcherImpl23stopTrackingHeapObjectsERKN8v8_crdtp12DispatchableE
node:_ZN12v8_inspector8protocol12HeapProfiler20DomainDispatcherImpl24startTrackingHeapObjectsERKN8v8_crdtp12DispatchableE
node:_ZN12v8_inspector8protocol12HeapProfiler20DomainDispatcherImpl6enableERKN8v8_crdtp12DispatchableE
node:_ZN12v8_inspector8protocol12HeapProfiler20DomainDispatcherImpl7disableERKN8v8_crdtp12DispatchableE
node:_ZN12v8_inspector8protocol12HeapProfiler20DomainDispatcherImpl8DispatchEN8v8_crdtp4spanIhEE
node:_ZN12v8_inspector8protocol12HeapProfiler23SamplingHeapProfileNode23deserializer_descriptorEv
node:_ZN12v8_inspector8protocol12HeapProfiler25SamplingHeapProfileSample23deserializer_descriptorEv
node:_ZN12v8_inspector8protocol12HeapProfiler8Frontend13resetProfilesEv
node:_ZN12v8_inspector8protocol12HeapProfiler8Frontend15heapStatsUpdateESt10unique_ptrISt6vectorIiSaIiEESt14default_deleteIS6_EE
node:_ZN12v8_inspector8protocol12HeapProfiler8Frontend16lastSeenObjectIdEid
node:_ZN12v8_inspector8protocol12HeapProfiler8Frontend19sendRawNotificationESt10unique_ptrIN8v8_crdtp12SerializableESt14default_deleteIS5_EE
node:_ZN12v8_inspector8protocol12HeapProfiler8Frontend20addHeapSnapshotChunkERKNS_8String16E
node:_ZN12v8_inspector8protocol12HeapProfiler8Frontend26reportHeapSnapshotProgressEiiN8v8_crdtp6detail10ValueMaybeIbEE
node:_ZN12v8_inspector8protocol12HeapProfiler8Frontend5flushEv
node:_ZN12v8_inspector8protocol12HeapProfiler8Metainfo10domainNameE
node:_ZN12v8_inspector8protocol12HeapProfiler8Metainfo13commandPrefixE
node:_ZN12v8_inspector8protocol12HeapProfiler8Metainfo7versionE
node:_ZN12v8_inspector8protocol15DictionaryValue10setBooleanERKNS_8String16Eb
node:_ZN12v8_inspector8protocol15DictionaryValue10setIntegerERKNS_8String16Ei
node:_ZN12v8_inspector8protocol15DictionaryValue6removeERKNS_8String16E
node:_ZN12v8_inspector8protocol15DictionaryValue8setArrayERKNS_8String16ESt10unique_ptrINS0_9ListValueESt14default_deleteIS6_EE
node:_ZN12v8_inspector8protocol15DictionaryValue8setValueERKNS_8String16ESt10unique_ptrINS0_5ValueESt14default_deleteIS6_EE
node:_ZN12v8_inspector8protocol15DictionaryValue9setDoubleERKNS_8String16Ed
node:_ZN12v8_inspector8protocol15DictionaryValue9setObjectERKNS_8String16ESt10unique_ptrIS1_St14default_deleteIS1_EE
node:_ZN12v8_inspector8protocol15DictionaryValue9setStringERKNS_8String16ES4_
node:_ZN12v8_inspector8protocol15DictionaryValueC1Ev
node:_ZN12v8_inspector8protocol15DictionaryValueC2Ev
node:_ZN12v8_inspector8protocol15DictionaryValueD0Ev
node:_ZN12v8_inspector8protocol15DictionaryValueD1Ev
node:_ZN12v8_inspector8protocol15DictionaryValueD2Ev
node:_ZN12v8_inspector8protocol5Value11parseBinaryEPKhm
node:_ZN12v8_inspector8protocol6Binary10fromBase64ERKNS_8String16EPb
node:_ZN12v8_inspector8protocol6Object9fromValueEPNS0_5ValueEPN8v8_crdtp12ErrorSupportE
node:_ZN12v8_inspector8protocol6ObjectC1ESt10unique_ptrINS0_15DictionaryValueESt14default_deleteIS3_EE
node:_ZN12v8_inspector8protocol6ObjectC2ESt10unique_ptrINS0_15DictionaryValueESt14default_deleteIS3_EE
node:_ZN12v8_inspector8protocol6ObjectD0Ev
node:_ZN12v8_inspector8protocol6ObjectD1Ev
node:_ZN12v8_inspector8protocol6ObjectD2Ev
node:_ZN12v8_inspector8protocol6Schema10Dispatcher4wireEPN8v8_crdtp14UberDispatcherEPNS1_7BackendE
node:_ZN12v8_inspector8protocol6Schema20DomainDispatcherImpl10getDomainsERKN8v8_crdtp12DispatchableE
node:_ZN12v8_inspector8protocol6Schema20DomainDispatcherImpl8DispatchEN8v8_crdtp4spanIhEE
node:_ZN12v8_inspector8protocol6Schema3API6Domain10fromBinaryEPKhm
node:_ZN12v8_inspector8protocol6Schema6Domain23deserializer_descriptorEv
node:_ZN12v8_inspector8protocol6Schema8Frontend19sendRawNotificationESt10unique_ptrIN8v8_crdtp12SerializableESt14default_deleteIS5_EE
node:_ZN12v8_inspector8protocol6Schema8Frontend5flushEv
node:_ZN12v8_inspector8protocol6Schema8Metainfo10domainNameE
node:_ZN12v8_inspector8protocol6Schema8Metainfo13commandPrefixE
node:_ZN12v8_inspector8protocol6Schema8Metainfo7versionE
node:_ZN12v8_inspector8protocol7Console10Dispatcher4wireEPN8v8_crdtp14UberDispatcherEPNS1_7BackendE
node:_ZN12v8_inspector8protocol7Console14ConsoleMessage10SourceEnum10ConsoleApiE
node:_ZN12v8_inspector8protocol7Console14ConsoleMessage10SourceEnum10JavascriptE
node:_ZN12v8_inspector8protocol7Console14ConsoleMessage10SourceEnum11DeprecationE
node:_ZN12v8_inspector8protocol7Console14ConsoleMessage10SourceEnum3XmlE
node:_ZN12v8_inspector8protocol7Console14ConsoleMessage10SourceEnum5OtherE
node:_ZN12v8_inspector8protocol7Console14ConsoleMessage10SourceEnum6WorkerE
node:_ZN12v8_inspector8protocol7Console14ConsoleMessage10SourceEnum7NetworkE
node:_ZN12v8_inspector8protocol7Console14ConsoleMessage10SourceEnum7StorageE
node:_ZN12v8_inspector8protocol7Console14ConsoleMessage10SourceEnum8AppcacheE
node:_ZN12v8_inspector8protocol7Console14ConsoleMessage10SourceEnum8SecurityE
node:_ZN12v8_inspector8protocol7Console14ConsoleMessage10SourceEnum9RenderingE
node:_ZN12v8_inspector8protocol7Console14ConsoleMessage23deserializer_descriptorEv
node:_ZN12v8_inspector8protocol7Console14ConsoleMessage9LevelEnum3LogE
node:_ZN12v8_inspector8protocol7Console14ConsoleMessage9LevelEnum4InfoE
node:_ZN12v8_inspector8protocol7Console14ConsoleMessage9LevelEnum5DebugE
node:_ZN12v8_inspector8protocol7Console14ConsoleMessage9LevelEnum5ErrorE
node:_ZN12v8_inspector8protocol7Console14ConsoleMessage9LevelEnum7WarningE
node:_ZN12v8_inspector8protocol7Console20DomainDispatcherImpl13clearMessagesERKN8v8_crdtp12DispatchableE
node:_ZN12v8_inspector8protocol7Console20DomainDispatcherImpl6enableERKN8v8_crdtp12DispatchableE
node:_ZN12v8_inspector8protocol7Console20DomainDispatcherImpl7disableERKN8v8_crdtp12DispatchableE
node:_ZN12v8_inspector8protocol7Console20DomainDispatcherImpl8DispatchEN8v8_crdtp4spanIhEE
node:_ZN12v8_inspector8protocol7Console8Frontend12messageAddedESt10unique_ptrINS1_14ConsoleMessageESt14default_deleteIS4_EE
node:_ZN12v8_inspector8protocol7Console8Frontend19sendRawNotificationESt10unique_ptrIN8v8_crdtp12SerializableESt14default_deleteIS5_EE
node:_ZN12v8_inspector8protocol7Console8Frontend5flushEv
node:_ZN12v8_inspector8protocol7Console8Metainfo10domainNameE
node:_ZN12v8_inspector8protocol7Console8Metainfo13commandPrefixE
node:_ZN12v8_inspector8protocol7Console8Metainfo7versionE
node:_ZN12v8_inspector8protocol7Runtime10Dispatcher4wireEPN8v8_crdtp14UberDispatcherEPNS1_7BackendE
node:_ZN12v8_inspector8protocol7Runtime10StackTrace23deserializer_descriptorEv
node:_ZN12v8_inspector8protocol7Runtime12CallArgument23deserializer_descriptorEv
node:_ZN12v8_inspector8protocol7Runtime12EntryPreview23deserializer_descriptorEv
node:_ZN12v8_inspector8protocol7Runtime12RemoteObject11SubtypeEnum10TypedarrayE
node:_ZN12v8_inspector8protocol7Runtime12RemoteObject11SubtypeEnum11ArraybufferE
node:_ZN12v8_inspector8protocol7Runtime12RemoteObject11SubtypeEnum17WebassemblymemoryE
node:_ZN12v8_inspector8protocol7Runtime12RemoteObject11SubtypeEnum3MapE
node:_ZN12v8_inspector8protocol7Runtime12RemoteObject11SubtypeEnum3SetE
node:_ZN12v8_inspector8protocol7Runtime12RemoteObject11SubtypeEnum4DateE
node:_ZN12v8_inspector8protocol7Runtime12RemoteObject11SubtypeEnum4NodeE
node:_ZN12v8_inspector8protocol7Runtime12RemoteObject11SubtypeEnum4NullE
node:_ZN12v8_inspector8protocol7Runtime12RemoteObject11SubtypeEnum5ArrayE
node:_ZN12v8_inspector8protocol7Runtime12RemoteObject11SubtypeEnum5ErrorE
node:_ZN12v8_inspector8protocol7Runtime12RemoteObject11SubtypeEnum5ProxyE
node:_ZN12v8_inspector8protocol7Runtime12RemoteObject11SubtypeEnum6RegexpE
node:_ZN12v8_inspector8protocol7Runtime12RemoteObject11SubtypeEnum7PromiseE
node:_ZN12v8_inspector8protocol7Runtime12RemoteObject11SubtypeEnum7WeakmapE
node:_ZN12v8_inspector8protocol7Runtime12RemoteObject11SubtypeEnum7WeaksetE
node:_ZN12v8_inspector8protocol7Runtime12RemoteObject11SubtypeEnum8DataviewE
node:_ZN12v8_inspector8protocol7Runtime12RemoteObject11SubtypeEnum8IteratorE
node:_ZN12v8_inspector8protocol7Runtime12RemoteObject11SubtypeEnum9GeneratorE
node:_ZN12v8_inspector8protocol7Runtime12RemoteObject11SubtypeEnum9WasmvalueE
node:_ZN12v8_inspector8protocol7Runtime12RemoteObject23deserializer_descriptorEv
node:_ZN12v8_inspector8protocol7Runtime12RemoteObject8TypeEnum6BigintE
node:_ZN12v8_inspector8protocol7Runtime12RemoteObject8TypeEnum6NumberE
node:_ZN12v8_inspector8protocol7Runtime12RemoteObject8TypeEnum6ObjectE
node:_ZN12v8_inspector8protocol7Runtime12RemoteObject8TypeEnum6StringE
node:_ZN12v8_inspector8protocol7Runtime12RemoteObject8TypeEnum6SymbolE
node:_ZN12v8_inspector8protocol7Runtime12RemoteObject8TypeEnum7BooleanE
node:_ZN12v8_inspector8protocol7Runtime12RemoteObject8TypeEnum8FunctionE
node:_ZN12v8_inspector8protocol7Runtime12RemoteObject8TypeEnum9UndefinedE
node:_ZN12v8_inspector8protocol7Runtime12StackTraceId23deserializer_descriptorEv
node:_ZN12v8_inspector8protocol7Runtime13CustomPreview23deserializer_descriptorEv
node:_ZN12v8_inspector8protocol7Runtime13ObjectPreview11SubtypeEnum10TypedarrayE
node:_ZN12v8_inspector8protocol7Runtime13ObjectPreview11SubtypeEnum11ArraybufferE
node:_ZN12v8_inspector8protocol7Runtime13ObjectPreview11SubtypeEnum17WebassemblymemoryE
node:_ZN12v8_inspector8protocol7Runtime13ObjectPreview11SubtypeEnum3MapE
node:_ZN12v8_inspector8protocol7Runtime13ObjectPreview11SubtypeEnum3SetE
node:_ZN12v8_inspector8protocol7Runtime13ObjectPreview11SubtypeEnum4DateE
node:_ZN12v8_inspector8protocol7Runtime13ObjectPreview11SubtypeEnum4NodeE
node:_ZN12v8_inspector8protocol7Runtime13ObjectPreview11SubtypeEnum4NullE
node:_ZN12v8_inspector8protocol7Runtime13ObjectPreview11SubtypeEnum5ArrayE
node:_ZN12v8_inspector8protocol7Runtime13ObjectPreview11SubtypeEnum5ErrorE
node:_ZN12v8_inspector8protocol7Runtime13ObjectPreview11SubtypeEnum5ProxyE
node:_ZN12v8_inspector8protocol7Runtime13ObjectPreview11SubtypeEnum6RegexpE
node:_ZN12v8_inspector8protocol7Runtime13ObjectPreview11SubtypeEnum7PromiseE
node:_ZN12v8_inspector8protocol7Runtime13ObjectPreview11SubtypeEnum7WeakmapE
node:_ZN12v8_inspector8protocol7Runtime13ObjectPreview11SubtypeEnum7WeaksetE
node:_ZN12v8_inspector8protocol7Runtime13ObjectPreview11SubtypeEnum8DataviewE
node:_ZN12v8_inspector8protocol7Runtime13ObjectPreview11SubtypeEnum8IteratorE
node:_ZN12v8_inspector8protocol7Runtime13ObjectPreview11SubtypeEnum9GeneratorE
node:_ZN12v8_inspector8protocol7Runtime13ObjectPreview11SubtypeEnum9WasmvalueE
node:_ZN12v8_inspector8protocol7Runtime13ObjectPreview23deserializer_descriptorEv
node:_ZN12v8_inspector8protocol7Runtime13ObjectPreview8TypeEnum6BigintE
node:_ZN12v8_inspector8protocol7Runtime13ObjectPreview8TypeEnum6NumberE
node:_ZN12v8_inspector8protocol7Runtime13ObjectPreview8TypeEnum6ObjectE
node:_ZN12v8_inspector8protocol7Runtime13ObjectPreview8TypeEnum6StringE
node:_ZN12v8_inspector8protocol7Runtime13ObjectPreview8TypeEnum6SymbolE
node:_ZN12v8_inspector8protocol7Runtime13ObjectPreview8TypeEnum7BooleanE
node:_ZN12v8_inspector8protocol7Runtime13ObjectPreview8TypeEnum8FunctionE
node:_ZN12v8_inspector8protocol7Runtime13ObjectPreview8TypeEnum9UndefinedE
node:_ZN12v8_inspector8protocol7Runtime14WebDriverValue23deserializer_descriptorEv
node:_ZN12v8_inspector8protocol7Runtime14WebDriverValue8TypeEnum10TypedarrayE
node:_ZN12v8_inspector8protocol7Runtime14WebDriverValue8TypeEnum11ArraybufferE
node:_ZN12v8_inspector8protocol7Runtime14WebDriverValue8TypeEnum3MapE
node:_ZN12v8_inspector8protocol7Runtime14WebDriverValue8TypeEnum3SetE
node:_ZN12v8_inspector8protocol7Runtime14WebDriverValue8TypeEnum4DateE
node:_ZN12v8_inspector8protocol7Runtime14WebDriverValue8TypeEnum4NodeE
node:_ZN12v8_inspector8protocol7Runtime14WebDriverValue8TypeEnum4NullE
node:_ZN12v8_inspector8protocol7Runtime14WebDriverValue8TypeEnum5ArrayE
node:_ZN12v8_inspector8protocol7Runtime14WebDriverValue8TypeEnum5ErrorE
node:_ZN12v8_inspector8protocol7Runtime14WebDriverValue8TypeEnum5ProxyE
node:_ZN12v8_inspector8protocol7Runtime14WebDriverValue8TypeEnum6BigintE
node:_ZN12v8_inspector8protocol7Runtime14WebDriverValue8TypeEnum6NumberE
node:_ZN12v8_inspector8protocol7Runtime14WebDriverValue8TypeEnum6ObjectE
node:_ZN12v8_inspector8protocol7Runtime14WebDriverValue8TypeEnum6RegexpE
node:_ZN12v8_inspector8protocol7Runtime14WebDriverValue8TypeEnum6StringE
node:_ZN12v8_inspector8protocol7Runtime14WebDriverValue8TypeEnum6SymbolE
node:_ZN12v8_inspector8protocol7Runtime14WebDriverValue8TypeEnum6WindowE
node:_ZN12v8_inspector8protocol7Runtime14WebDriverValue8TypeEnum7BooleanE
node:_ZN12v8_inspector8protocol7Runtime14WebDriverValue8TypeEnum7PromiseE
node:_ZN12v8_inspector8protocol7Runtime14WebDriverValue8TypeEnum7WeakmapE
node:_ZN12v8_inspector8protocol7Runtime14WebDriverValue8TypeEnum7WeaksetE
node:_ZN12v8_inspector8protocol7Runtime14WebDriverValue8TypeEnum8FunctionE
node:_ZN12v8_inspector8protocol7Runtime14WebDriverValue8TypeEnum9UndefinedE
node:_ZN12v8_inspector8protocol7Runtime15PropertyPreview11SubtypeEnum10TypedarrayE
node:_ZN12v8_inspector8protocol7Runtime15PropertyPreview11SubtypeEnum11ArraybufferE
node:_ZN12v8_inspector8protocol7Runtime15PropertyPreview11SubtypeEnum17WebassemblymemoryE
node:_ZN12v8_inspector8protocol7Runtime15PropertyPreview11SubtypeEnum3MapE
node:_ZN12v8_inspector8protocol7Runtime15PropertyPreview11SubtypeEnum3SetE
node:_ZN12v8_inspector8protocol7Runtime15PropertyPreview11SubtypeEnum4DateE
node:_ZN12v8_inspector8protocol7Runtime15PropertyPreview11SubtypeEnum4NodeE
node:_ZN12v8_inspector8protocol7Runtime15PropertyPreview11SubtypeEnum4NullE
node:_ZN12v8_inspector8protocol7Runtime15PropertyPreview11SubtypeEnum5ArrayE
node:_ZN12v8_inspector8protocol7Runtime15PropertyPreview11SubtypeEnum5ErrorE
node:_ZN12v8_inspector8protocol7Runtime15PropertyPreview11SubtypeEnum5ProxyE
node:_ZN12v8_inspector8protocol7Runtime15PropertyPreview11SubtypeEnum6RegexpE
node:_ZN12v8_inspector8protocol7Runtime15PropertyPreview11SubtypeEnum7PromiseE
node:_ZN12v8_inspector8protocol7Runtime15PropertyPreview11SubtypeEnum7WeakmapE
node:_ZN12v8_inspector8protocol7Runtime15PropertyPreview11SubtypeEnum7WeaksetE
node:_ZN12v8_inspector8protocol7Runtime15PropertyPreview11SubtypeEnum8DataviewE
node:_ZN12v8_inspector8protocol7Runtime15PropertyPreview11SubtypeEnum8IteratorE
node:_ZN12v8_inspector8protocol7Runtime15PropertyPreview11SubtypeEnum9GeneratorE
node:_ZN12v8_inspector8protocol7Runtime15PropertyPreview11SubtypeEnum9WasmvalueE
node:_ZN12v8_inspector8protocol7Runtime15PropertyPreview23deserializer_descriptorEv
node:_ZN12v8_inspector8protocol7Runtime15PropertyPreview8TypeEnum6BigintE
node:_ZN12v8_inspector8protocol7Runtime15PropertyPreview8TypeEnum6NumberE
node:_ZN12v8_inspector8protocol7Runtime15PropertyPreview8TypeEnum6ObjectE
node:_ZN12v8_inspector8protocol7Runtime15PropertyPreview8TypeEnum6StringE
node:_ZN12v8_inspector8protocol7Runtime15PropertyPreview8TypeEnum6SymbolE
node:_ZN12v8_inspector8protocol7Runtime15PropertyPreview8TypeEnum7BooleanE
node:_ZN12v8_inspector8protocol7Runtime15PropertyPreview8TypeEnum8AccessorE
node:_ZN12v8_inspector8protocol7Runtime15PropertyPreview8TypeEnum8FunctionE
node:_ZN12v8_inspector8protocol7Runtime15PropertyPreview8TypeEnum9UndefinedE
node:_ZN12v8_inspector8protocol7Runtime16ConsoleAPICalled8TypeEnum10ProfileEndE
node:_ZN12v8_inspector8protocol7Runtime16ConsoleAPICalled8TypeEnum10StartGroupE
node:_ZN12v8_inspector8protocol7Runtime16ConsoleAPICalled8TypeEnum19StartGroupCollapsedE
node:_ZN12v8_inspector8protocol7Runtime16ConsoleAPICalled8TypeEnum3DirE
node:_ZN12v8_inspector8protocol7Runtime16ConsoleAPICalled8TypeEnum3LogE
node:_ZN12v8_inspector8protocol7Runtime16ConsoleAPICalled8TypeEnum4InfoE
node:_ZN12v8_inspector8protocol7Runtime16ConsoleAPICalled8TypeEnum5ClearE
node:_ZN12v8_inspector8protocol7Runtime16ConsoleAPICalled8TypeEnum5CountE
node:_ZN12v8_inspector8protocol7Runtime16ConsoleAPICalled8TypeEnum5DebugE
node:_ZN12v8_inspector8protocol7Runtime16ConsoleAPICalled8TypeEnum5ErrorE
node:_ZN12v8_inspector8protocol7Runtime16ConsoleAPICalled8TypeEnum5TableE
node:_ZN12v8_inspector8protocol7Runtime16ConsoleAPICalled8TypeEnum5TraceE
node:_ZN12v8_inspector8protocol7Runtime16ConsoleAPICalled8TypeEnum6AssertE
node:_ZN12v8_inspector8protocol7Runtime16ConsoleAPICalled8TypeEnum6DirxmlE
node:_ZN12v8_inspector8protocol7Runtime16ConsoleAPICalled8TypeEnum7ProfileE
node:_ZN12v8_inspector8protocol7Runtime16ConsoleAPICalled8TypeEnum7TimeEndE
node:_ZN12v8_inspector8protocol7Runtime16ConsoleAPICalled8TypeEnum7WarningE
node:_ZN12v8_inspector8protocol7Runtime16ConsoleAPICalled8TypeEnum8EndGroupE
node:_ZN12v8_inspector8protocol7Runtime16ExceptionDetails23deserializer_descriptorEv
node:_ZN12v8_inspector8protocol7Runtime18PropertyDescriptor23deserializer_descriptorEv
node:_ZN12v8_inspector8protocol7Runtime20DomainDispatcherImpl10addBindingERKN8v8_crdtp12DispatchableE
node:_ZN12v8_inspector8protocol7Runtime20DomainDispatcherImpl12awaitPromiseERKN8v8_crdtp12DispatchableE
node:_ZN12v8_inspector8protocol7Runtime20DomainDispatcherImpl12getHeapUsageERKN8v8_crdtp12DispatchableE
node:_ZN12v8_inspector8protocol7Runtime20DomainDispatcherImpl12getIsolateIdERKN8v8_crdtp12DispatchableE
node:_ZN12v8_inspector8protocol7Runtime20DomainDispatcherImpl12queryObjectsERKN8v8_crdtp12DispatchableE
node:_ZN12v8_inspector8protocol7Runtime20DomainDispatcherImpl13compileScriptERKN8v8_crdtp12DispatchableE
node:_ZN12v8_inspector8protocol7Runtime20DomainDispatcherImpl13getPropertiesERKN8v8_crdtp12DispatchableE
node:_ZN12v8_inspector8protocol7Runtime20DomainDispatcherImpl13releaseObjectERKN8v8_crdtp12DispatchableE
node:_ZN12v8_inspector8protocol7Runtime20DomainDispatcherImpl13removeBindingERKN8v8_crdtp12DispatchableE
node:_ZN12v8_inspector8protocol7Runtime20DomainDispatcherImpl14callFunctionOnERKN8v8_crdtp12DispatchableE
node:_ZN12v8_inspector8protocol7Runtime20DomainDispatcherImpl18releaseObjectGroupERKN8v8_crdtp12DispatchableE
node:_ZN12v8_inspector8protocol7Runtime20DomainDispatcherImpl18terminateExecutionERKN8v8_crdtp12DispatchableE
node:_ZN12v8_inspector8protocol7Runtime20DomainDispatcherImpl19getExceptionDetailsERKN8v8_crdtp12DispatchableE
node:_ZN12v8_inspector8protocol7Runtime20DomainDispatcherImpl21discardConsoleEntriesERKN8v8_crdtp12DispatchableE
node:_ZN12v8_inspector8protocol7Runtime20DomainDispatcherImpl23globalLexicalScopeNamesERKN8v8_crdtp12DispatchableE
node:_ZN12v8_inspector8protocol7Runtime20DomainDispatcherImpl23runIfWaitingForDebuggerERKN8v8_crdtp12DispatchableE
node:_ZN12v8_inspector8protocol7Runtime20DomainDispatcherImpl28setMaxCallStackSizeToCaptureERKN8v8_crdtp12DispatchableE
node:_ZN12v8_inspector8protocol7Runtime20DomainDispatcherImpl31setCustomObjectFormatterEnabledERKN8v8_crdtp12DispatchableE
node:_ZN12v8_inspector8protocol7Runtime20DomainDispatcherImpl6enableERKN8v8_crdtp12DispatchableE
node:_ZN12v8_inspector8protocol7Runtime20DomainDispatcherImpl7disableERKN8v8_crdtp12DispatchableE
node:_ZN12v8_inspector8protocol7Runtime20DomainDispatcherImpl8DispatchEN8v8_crdtp4spanIhEE
node:_ZN12v8_inspector8protocol7Runtime20DomainDispatcherImpl8evaluateERKN8v8_crdtp12DispatchableE
node:_ZN12v8_inspector8protocol7Runtime20DomainDispatcherImpl9runScriptERKN8v8_crdtp12DispatchableE
node:_ZN12v8_inspector8protocol7Runtime25PrivatePropertyDescriptor23deserializer_descriptorEv
node:_ZN12v8_inspector8protocol7Runtime26InternalPropertyDescriptor23deserializer_descriptorEv
node:_ZN12v8_inspector8protocol7Runtime27ExecutionContextDescription23deserializer_descriptorEv
node:_ZN12v8_inspector8protocol7Runtime3API10StackTrace10fromBinaryEPKhm
node:_ZN12v8_inspector8protocol7Runtime3API12RemoteObject10fromBinaryEPKhm
node:_ZN12v8_inspector8protocol7Runtime3API12StackTraceId10fromBinaryEPKhm
node:_ZN12v8_inspector8protocol7Runtime8Frontend13bindingCalledERKNS_8String16ES5_i
node:_ZN12v8_inspector8protocol7Runtime8Frontend15exceptionThrownEdSt10unique_ptrINS1_16ExceptionDetailsESt14default_deleteIS4_EE
node:_ZN12v8_inspector8protocol7Runtime8Frontend16consoleAPICalledERKNS_8String16ESt10unique_ptrISt6vectorIS6_INS1_12RemoteObjectESt14default_deleteIS8_EESaISB_EES9_ISD_EEidN8v8_crdtp6detail8PtrMaybeINS1_10StackTraceEEENSH_10ValueMaybeIS3_EE
node:_ZN12v8_inspector8protocol7Runtime8Frontend16exceptionRevokedERKNS_8String16Ei
node:_ZN12v8_inspector8protocol7Runtime8Frontend16inspectRequestedESt10unique_ptrINS1_12RemoteObjectESt14default_deleteIS4_EES3_INS0_15DictionaryValueES5_IS8_EEN8v8_crdtp6detail10ValueMaybeIiEE
node:_ZN12v8_inspector8protocol7Runtime8Frontend19sendRawNotificationESt10unique_ptrIN8v8_crdtp12SerializableESt14default_deleteIS5_EE
node:_ZN12v8_inspector8protocol7Runtime8Frontend23executionContextCreatedESt10unique_ptrINS1_27ExecutionContextDescriptionESt14default_deleteIS4_EE
node:_ZN12v8_inspector8protocol7Runtime8Frontend24executionContextsClearedEv
node:_ZN12v8_inspector8protocol7Runtime8Frontend25executionContextDestroyedEiRKNS_8String16E
node:_ZN12v8_inspector8protocol7Runtime8Frontend5flushEv
node:_ZN12v8_inspector8protocol7Runtime8Metainfo10domainNameE
node:_ZN12v8_inspector8protocol7Runtime8Metainfo13commandPrefixE
node:_ZN12v8_inspector8protocol7Runtime8Metainfo7versionE
node:_ZN12v8_inspector8protocol7Runtime9CallFrame23deserializer_descriptorEv
node:_ZN12v8_inspector8protocol8Debugger10Dispatcher4wireEPN8v8_crdtp14UberDispatcherEPNS1_7BackendE
node:_ZN12v8_inspector8protocol8Debugger11SearchMatch23deserializer_descriptorEv
node:_ZN12v8_inspector8protocol8Debugger12DebugSymbols23deserializer_descriptorEv
node:_ZN12v8_inspector8protocol8Debugger12DebugSymbols8TypeEnum13EmbeddedDWARFE
node:_ZN12v8_inspector8protocol8Debugger12DebugSymbols8TypeEnum13ExternalDWARFE
node:_ZN12v8_inspector8protocol8Debugger12DebugSymbols8TypeEnum4NoneE
node:_ZN12v8_inspector8protocol8Debugger12DebugSymbols8TypeEnum9SourceMapE
node:_ZN12v8_inspector8protocol8Debugger12RestartFrame8ModeEnum8StepIntoE
node:_ZN12v8_inspector8protocol8Debugger13BreakLocation23deserializer_descriptorEv
node:_ZN12v8_inspector8protocol8Debugger13BreakLocation8TypeEnum17DebuggerStatementE
node:_ZN12v8_inspector8protocol8Debugger13BreakLocation8TypeEnum4CallE
node:_ZN12v8_inspector8protocol8Debugger13BreakLocation8TypeEnum6ReturnE
node:_ZN12v8_inspector8protocol8Debugger13LocationRange23deserializer_descriptorEv
node:_ZN12v8_inspector8protocol8Debugger14ScriptPosition23deserializer_descriptorEv
node:_ZN12v8_inspector8protocol8Debugger15SetScriptSource10StatusEnum12CompileErrorE
node:_ZN12v8_inspector8protocol8Debugger15SetScriptSource10StatusEnum23BlockedByActiveFunctionE
node:_ZN12v8_inspector8protocol8Debugger15SetScriptSource10StatusEnum24BlockedByActiveGeneratorE
node:_ZN12v8_inspector8protocol8Debugger15SetScriptSource10StatusEnum2OkE
node:_ZN12v8_inspector8protocol8Debugger15SetScriptSource10StatusEnum31BlockedByTopLevelEsModuleChangeE
node:_ZN12v8_inspector8protocol8Debugger18ContinueToLocation20TargetCallFramesEnum3AnyE
node:_ZN12v8_inspector8protocol8Debugger18ContinueToLocation20TargetCallFramesEnum7CurrentE
node:_ZN12v8_inspector8protocol8Debugger18ScriptLanguageEnum10JavaScriptE
node:_ZN12v8_inspector8protocol8Debugger18ScriptLanguageEnum11WebAssemblyE
node:_ZN12v8_inspector8protocol8Debugger20DomainDispatcherImpl12restartFrameERKN8v8_crdtp12DispatchableE
node:_ZN12v8_inspector8protocol8Debugger20DomainDispatcherImpl13getStackTraceERKN8v8_crdtp12DispatchableE
node:_ZN12v8_inspector8protocol8Debugger20DomainDispatcherImpl13setBreakpointERKN8v8_crdtp12DispatchableE
node:_ZN12v8_inspector8protocol8Debugger20DomainDispatcherImpl14setReturnValueERKN8v8_crdtp12DispatchableE
node:_ZN12v8_inspector8protocol8Debugger20DomainDispatcherImpl15getScriptSourceERKN8v8_crdtp12DispatchableE
node:_ZN12v8_inspector8protocol8Debugger20DomainDispatcherImpl15getWasmBytecodeERKN8v8_crdtp12DispatchableE
node:_ZN12v8_inspector8protocol8Debugger20DomainDispatcherImpl15searchInContentERKN8v8_crdtp12DispatchableE
node:_ZN12v8_inspector8protocol8Debugger20DomainDispatcherImpl15setScriptSourceERKN8v8_crdtp12DispatchableE
node:_ZN12v8_inspector8protocol8Debugger20DomainDispatcherImpl16pauseOnAsyncCallERKN8v8_crdtp12DispatchableE
node:_ZN12v8_inspector8protocol8Debugger20DomainDispatcherImpl16removeBreakpointERKN8v8_crdtp12DispatchableE
node:_ZN12v8_inspector8protocol8Debugger20DomainDispatcherImpl16setSkipAllPausesERKN8v8_crdtp12DispatchableE
node:_ZN12v8_inspector8protocol8Debugger20DomainDispatcherImpl16setVariableValueERKN8v8_crdtp12DispatchableE
node:_ZN12v8_inspector8protocol8Debugger20DomainDispatcherImpl18continueToLocationERKN8v8_crdtp12DispatchableE
node:_ZN12v8_inspector8protocol8Debugger20DomainDispatcherImpl18setBreakpointByUrlERKN8v8_crdtp12DispatchableE
node:_ZN12v8_inspector8protocol8Debugger20DomainDispatcherImpl19evaluateOnCallFrameERKN8v8_crdtp12DispatchableE
node:_ZN12v8_inspector8protocol8Debugger20DomainDispatcherImpl19setBlackboxPatternsERKN8v8_crdtp12DispatchableE
node:_ZN12v8_inspector8protocol8Debugger20DomainDispatcherImpl19setBlackboxedRangesERKN8v8_crdtp12DispatchableE
node:_ZN12v8_inspector8protocol8Debugger20DomainDispatcherImpl20setBreakpointsActiveERKN8v8_crdtp12DispatchableE
node:_ZN12v8_inspector8protocol8Debugger20DomainDispatcherImpl20setPauseOnExceptionsERKN8v8_crdtp12DispatchableE
node:_ZN12v8_inspector8protocol8Debugger20DomainDispatcherImpl21disassembleWasmModuleERKN8v8_crdtp12DispatchableE
node:_ZN12v8_inspector8protocol8Debugger20DomainDispatcherImpl22getPossibleBreakpointsERKN8v8_crdtp12DispatchableE
node:_ZN12v8_inspector8protocol8Debugger20DomainDispatcherImpl22setAsyncCallStackDepthERKN8v8_crdtp12DispatchableE
node:_ZN12v8_inspector8protocol8Debugger20DomainDispatcherImpl24nextWasmDisassemblyChunkERKN8v8_crdtp12DispatchableE
node:_ZN12v8_inspector8protocol8Debugger20DomainDispatcherImpl27setBreakpointOnFunctionCallERKN8v8_crdtp12DispatchableE
node:_ZN12v8_inspector8protocol8Debugger20DomainDispatcherImpl28setInstrumentationBreakpointERKN8v8_crdtp12DispatchableE
node:_ZN12v8_inspector8protocol8Debugger20DomainDispatcherImpl5pauseERKN8v8_crdtp12DispatchableE
node:_ZN12v8_inspector8protocol8Debugger20DomainDispatcherImpl6enableERKN8v8_crdtp12DispatchableE
node:_ZN12v8_inspector8protocol8Debugger20DomainDispatcherImpl6resumeERKN8v8_crdtp12DispatchableE
node:_ZN12v8_inspector8protocol8Debugger20DomainDispatcherImpl7disableERKN8v8_crdtp12DispatchableE
node:_ZN12v8_inspector8protocol8Debugger20DomainDispatcherImpl7stepOutERKN8v8_crdtp12DispatchableE
node:_ZN12v8_inspector8protocol8Debugger20DomainDispatcherImpl8DispatchEN8v8_crdtp4spanIhEE
node:_ZN12v8_inspector8protocol8Debugger20DomainDispatcherImpl8stepIntoERKN8v8_crdtp12DispatchableE
node:_ZN12v8_inspector8protocol8Debugger20DomainDispatcherImpl8stepOverERKN8v8_crdtp12DispatchableE
node:_ZN12v8_inspector8protocol8Debugger20SetPauseOnExceptions9StateEnum3AllE
node:_ZN12v8_inspector8protocol8Debugger20SetPauseOnExceptions9StateEnum4NoneE
node:_ZN12v8_inspector8protocol8Debugger20SetPauseOnExceptions9StateEnum6CaughtE
node:_ZN12v8_inspector8protocol8Debugger20SetPauseOnExceptions9StateEnum8UncaughtE
node:_ZN12v8_inspector8protocol8Debugger20WasmDisassemblyChunk23deserializer_descriptorEv
node:_ZN12v8_inspector8protocol8Debugger28SetInstrumentationBreakpoint19InstrumentationEnum21BeforeScriptExecutionE
node:_ZN12v8_inspector8protocol8Debugger28SetInstrumentationBreakpoint19InstrumentationEnum34BeforeScriptWithSourceMapExecutionE
node:_ZN12v8_inspector8protocol8Debugger3API11SearchMatch10fromBinaryEPKhm
node:_ZN12v8_inspector8protocol8Debugger3API6Paused10ReasonEnum12CSPViolationE
node:_ZN12v8_inspector8protocol8Debugger3API6Paused10ReasonEnum12DebugCommandE
node:_ZN12v8_inspector8protocol8Debugger3API6Paused10ReasonEnum13EventListenerE
node:_ZN12v8_inspector8protocol8Debugger3API6Paused10ReasonEnum15InstrumentationE
node:_ZN12v8_inspector8protocol8Debugger3API6Paused10ReasonEnum16PromiseRejectionE
node:_ZN12v8_inspector8protocol8Debugger3API6Paused10ReasonEnum3DOME
node:_ZN12v8_inspector8protocol8Debugger3API6Paused10ReasonEnum3OOME
node:_ZN12v8_inspector8protocol8Debugger3API6Paused10ReasonEnum3XHRE
node:_ZN12v8_inspector8protocol8Debugger3API6Paused10ReasonEnum5OtherE
node:_ZN12v8_inspector8protocol8Debugger3API6Paused10ReasonEnum6AssertE
node:_ZN12v8_inspector8protocol8Debugger3API6Paused10ReasonEnum9AmbiguousE
node:_ZN12v8_inspector8protocol8Debugger3API6Paused10ReasonEnum9ExceptionE
node:_ZN12v8_inspector8protocol8Debugger5Scope23deserializer_descriptorEv
node:_ZN12v8_inspector8protocol8Debugger5Scope8TypeEnum19WasmExpressionStackE
node:_ZN12v8_inspector8protocol8Debugger5Scope8TypeEnum4EvalE
node:_ZN12v8_inspector8protocol8Debugger5Scope8TypeEnum4WithE
node:_ZN12v8_inspector8protocol8Debugger5Scope8TypeEnum5BlockE
node:_ZN12v8_inspector8protocol8Debugger5Scope8TypeEnum5CatchE
node:_ZN12v8_inspector8protocol8Debugger5Scope8TypeEnum5LocalE
node:_ZN12v8_inspector8protocol8Debugger5Scope8TypeEnum6GlobalE
node:_ZN12v8_inspector8protocol8Debugger5Scope8TypeEnum6ModuleE
node:_ZN12v8_inspector8protocol8Debugger5Scope8TypeEnum6ScriptE
node:_ZN12v8_inspector8protocol8Debugger5Scope8TypeEnum7ClosureE
node:_ZN12v8_inspector8protocol8Debugger6Paused10ReasonEnum12CSPViolationE
node:_ZN12v8_inspector8protocol8Debugger6Paused10ReasonEnum12DebugCommandE
node:_ZN12v8_inspector8protocol8Debugger6Paused10ReasonEnum13EventListenerE
node:_ZN12v8_inspector8protocol8Debugger6Paused10ReasonEnum15InstrumentationE
node:_ZN12v8_inspector8protocol8Debugger6Paused10ReasonEnum16PromiseRejectionE
node:_ZN12v8_inspector8protocol8Debugger6Paused10ReasonEnum3DOME
node:_ZN12v8_inspector8protocol8Debugger6Paused10ReasonEnum3OOME
node:_ZN12v8_inspector8protocol8Debugger6Paused10ReasonEnum3XHRE
node:_ZN12v8_inspector8protocol8Debugger6Paused10ReasonEnum5OtherE
node:_ZN12v8_inspector8protocol8Debugger6Paused10ReasonEnum6AssertE
node:_ZN12v8_inspector8protocol8Debugger6Paused10ReasonEnum9AmbiguousE
node:_ZN12v8_inspector8protocol8Debugger6Paused10ReasonEnum9ExceptionE
node:_ZN12v8_inspector8protocol8Debugger8Frontend12scriptParsedERKNS_8String16ES5_iiiiiS5_N8v8_crdtp6detail8PtrMaybeINS0_15DictionaryValueEEENS7_10ValueMaybeIbEENSB_IS3_EESC_SC_NSB_IiEENS8_INS0_7Runtime10StackTraceEEESE_SD_NS8_INS1_12DebugSymbolsEEESD_
node:_ZN12v8_inspector8protocol8Debugger8Frontend18breakpointResolvedERKNS_8String16ESt10unique_ptrINS1_8LocationESt14default_deleteIS7_EE
node:_ZN12v8_inspector8protocol8Debugger8Frontend19scriptFailedToParseERKNS_8String16ES5_iiiiiS5_N8v8_crdtp6detail8PtrMaybeINS0_15DictionaryValueEEENS7_10ValueMaybeIS3_EENSB_IbEESD_NSB_IiEENS8_INS0_7Runtime10StackTraceEEESE_SC_SC_
node:_ZN12v8_inspector8protocol8Debugger8Frontend19sendRawNotificationESt10unique_ptrIN8v8_crdtp12SerializableESt14default_deleteIS5_EE
node:_ZN12v8_inspector8protocol8Debugger8Frontend5flushEv
node:_ZN12v8_inspector8protocol8Debugger8Frontend6pausedESt10unique_ptrISt6vectorIS3_INS1_9CallFrameESt14default_deleteIS5_EESaIS8_EES6_ISA_EERKNS_8String16EN8v8_crdtp6detail8PtrMaybeINS0_15DictionaryValueEEENSI_IS4_ISD_SaISD_EEEENSI_INS0_7Runtime10StackTraceEEENSI_INSO_12StackTraceIdEEESS_
node:_ZN12v8_inspector8protocol8Debugger8Frontend7resumedEv
node:_ZN12v8_inspector8protocol8Debugger8Location23deserializer_descriptorEv
node:_ZN12v8_inspector8protocol8Debugger8Metainfo10domainNameE
node:_ZN12v8_inspector8protocol8Debugger8Metainfo13commandPrefixE
node:_ZN12v8_inspector8protocol8Debugger8Metainfo7versionE
node:_ZN12v8_inspector8protocol8Debugger9CallFrame23deserializer_descriptorEv
node:_ZN12v8_inspector8protocol8Profiler10Dispatcher4wireEPN8v8_crdtp14UberDispatcherEPNS1_7BackendE
node:_ZN12v8_inspector8protocol8Profiler11ProfileNode23deserializer_descriptorEv
node:_ZN12v8_inspector8protocol8Profiler13CoverageRange23deserializer_descriptorEv
node:_ZN12v8_inspector8protocol8Profiler14ScriptCoverage23deserializer_descriptorEv
node:_ZN12v8_inspector8protocol8Profiler16FunctionCoverage23deserializer_descriptorEv
node:_ZN12v8_inspector8protocol8Profiler16PositionTickInfo23deserializer_descriptorEv
node:_ZN12v8_inspector8protocol8Profiler20DomainDispatcherImpl19setSamplingIntervalERKN8v8_crdtp12DispatchableE
node:_ZN12v8_inspector8protocol8Profiler20DomainDispatcherImpl19stopPreciseCoverageERKN8v8_crdtp12DispatchableE
node:_ZN12v8_inspector8protocol8Profiler20DomainDispatcherImpl19takePreciseCoverageERKN8v8_crdtp12DispatchableE
node:_ZN12v8_inspector8protocol8Profiler20DomainDispatcherImpl20startPreciseCoverageERKN8v8_crdtp12DispatchableE
node:_ZN12v8_inspector8protocol8Profiler20DomainDispatcherImpl21getBestEffortCoverageERKN8v8_crdtp12DispatchableE
node:_ZN12v8_inspector8protocol8Profiler20DomainDispatcherImpl4stopERKN8v8_crdtp12DispatchableE
node:_ZN12v8_inspector8protocol8Profiler20DomainDispatcherImpl5startERKN8v8_crdtp12DispatchableE
node:_ZN12v8_inspector8protocol8Profiler20DomainDispatcherImpl6enableERKN8v8_crdtp12DispatchableE
node:_ZN12v8_inspector8protocol8Profiler20DomainDispatcherImpl7disableERKN8v8_crdtp12DispatchableE
node:_ZN12v8_inspector8protocol8Profiler20DomainDispatcherImpl8DispatchEN8v8_crdtp4spanIhEE
node:_ZN12v8_inspector8protocol8Profiler7Profile23deserializer_descriptorEv
node:_ZN12v8_inspector8protocol8Profiler8Frontend19sendRawNotificationESt10unique_ptrIN8v8_crdtp12SerializableESt14default_deleteIS5_EE
node:_ZN12v8_inspector8protocol8Profiler8Frontend21consoleProfileStartedERKNS_8String16ESt10unique_ptrINS0_8Debugger8LocationESt14default_deleteIS8_EEN8v8_crdtp6detail10ValueMaybeIS3_EE
node:_ZN12v8_inspector8protocol8Profiler8Frontend22consoleProfileFinishedERKNS_8String16ESt10unique_ptrINS0_8Debugger8LocationESt14default_deleteIS8_EES6_INS1_7ProfileES9_ISC_EEN8v8_crdtp6detail10ValueMaybeIS3_EE
node:_ZN12v8_inspector8protocol8Profiler8Frontend26preciseCoverageDeltaUpdateEdRKNS_8String16ESt10unique_ptrISt6vectorIS6_INS1_14ScriptCoverageESt14default_deleteIS8_EESaISB_EES9_ISD_EE
node:_ZN12v8_inspector8protocol8Profiler8Frontend5flushEv
node:_ZN12v8_inspector8protocol8Profiler8Metainfo10domainNameE
node:_ZN12v8_inspector8protocol8Profiler8Metainfo13commandPrefixE
node:_ZN12v8_inspector8protocol8Profiler8Metainfo7versionE
node:_ZN12v8_inspector8protocol9ListValue2atEm
node:_ZN12v8_inspector8protocol9ListValue9pushValueESt10unique_ptrINS0_5ValueESt14default_deleteIS3_EE
node:_ZN12v8_inspector8protocol9ListValueC1Ev
node:_ZN12v8_inspector8protocol9ListValueC2Ev
node:_ZN12v8_inspector8protocol9ListValueD0Ev
node:_ZN12v8_inspector8protocol9ListValueD1Ev
node:_ZN12v8_inspector8protocol9ListValueD2Ev
node:_ZN12v8_inspector9V8Console10CountResetERKN2v85debug20ConsoleCallArgumentsERKNS2_14ConsoleContextE
node:_ZN12v8_inspector9V8Console10ProfileEndERKN2v85debug20ConsoleCallArgumentsERKNS2_14ConsoleContextE
node:_ZN12v8_inspector9V8Console10createTaskERKN2v820FunctionCallbackInfoINS1_5ValueEEE
node:_ZN12v8_inspector9V8Console11taskInfoKeyEv
node:_ZN12v8_inspector9V8Console12copyCallbackERKN2v820FunctionCallbackInfoINS1_5ValueEEEi
node:_ZN12v8_inspector9V8Console12keysCallbackERKN2v820FunctionCallbackInfoINS1_5ValueEEEi
node:_ZN12v8_inspector9V8Console12taskTemplateEv
node:_ZN12v8_inspector9V8Console14GroupCollapsedERKN2v85debug20ConsoleCallArgumentsERKNS2_14ConsoleContextE
node:_ZN12v8_inspector9V8Console14valuesCallbackERKN2v820FunctionCallbackInfoINS1_5ValueEEEi
node:_ZN12v8_inspector9V8Console15inspectCallbackERKN2v820FunctionCallbackInfoINS1_5ValueEEEi
node:_ZN12v8_inspector9V8Console15inspectedObjectERKN2v820FunctionCallbackInfoINS1_5ValueEEEij
node:_ZN12v8_inspector9V8Console17cancelConsoleTaskEPNS_8TaskInfoE
node:_ZN12v8_inspector9V8Console19CommandLineAPIScope22accessorGetterCallbackEN2v85LocalINS2_4NameEEERKNS2_20PropertyCallbackInfoINS2_5ValueEEE
node:_ZN12v8_inspector9V8Console19CommandLineAPIScope22accessorSetterCallbackEN2v85LocalINS2_4NameEEENS3_INS2_5ValueEEERKNS2_20PropertyCallbackInfoIvEE
node:_ZN12v8_inspector9V8Console19CommandLineAPIScopeC1EN2v85LocalINS2_7ContextEEENS3_INS2_6ObjectEEES7_
node:_ZN12v8_inspector9V8Console19CommandLineAPIScopeC2EN2v85LocalINS2_7ContextEEENS3_INS2_6ObjectEEES7_
node:_ZN12v8_inspector9V8Console19CommandLineAPIScopeD1Ev
node:_ZN12v8_inspector9V8Console19CommandLineAPIScopeD2Ev
node:_ZN12v8_inspector9V8Console19installMemoryGetterEN2v85LocalINS1_7ContextEEENS2_INS1_6ObjectEEE
node:_ZN12v8_inspector9V8Console20createCommandLineAPIEN2v85LocalINS1_7ContextEEEi
node:_ZN12v8_inspector9V8Console20memoryGetterCallbackERKN2v820FunctionCallbackInfoINS1_5ValueEEE
node:_ZN12v8_inspector9V8Console20memorySetterCallbackERKN2v820FunctionCallbackInfoINS1_5ValueEEE
node:_ZN12v8_inspector9V8Console20queryObjectsCallbackERKN2v820FunctionCallbackInfoINS1_5ValueEEEi
node:_ZN12v8_inspector9V8Console21debugFunctionCallbackERKN2v820FunctionCallbackInfoINS1_5ValueEEEi
node:_ZN12v8_inspector9V8Console23monitorFunctionCallbackERKN2v820FunctionCallbackInfoINS1_5ValueEEEi
node:_ZN12v8_inspector9V8Console23undebugFunctionCallbackERKN2v820FunctionCallbackInfoINS1_5ValueEEEi
node:_ZN12v8_inspector9V8Console25unmonitorFunctionCallbackERKN2v820FunctionCallbackInfoINS1_5ValueEEEi
node:_ZN12v8_inspector9V8Console27installAsyncStackTaggingAPIEN2v85LocalINS1_7ContextEEENS2_INS1_6ObjectEEE
node:_ZN12v8_inspector9V8Console28lastEvaluationResultCallbackERKN2v820FunctionCallbackInfoINS1_5ValueEEEi
node:_ZN12v8_inspector9V8Console3DirERKN2v85debug20ConsoleCallArgumentsERKNS2_14ConsoleContextE
node:_ZN12v8_inspector9V8Console3LogERKN2v85debug20ConsoleCallArgumentsERKNS2_14ConsoleContextE
node:_ZN12v8_inspector9V8Console4InfoERKN2v85debug20ConsoleCallArgumentsERKNS2_14ConsoleContextE
node:_ZN12v8_inspector9V8Console4TimeERKN2v85debug20ConsoleCallArgumentsERKNS2_14ConsoleContextE
node:_ZN12v8_inspector9V8Console4WarnERKN2v85debug20ConsoleCallArgumentsERKNS2_14ConsoleContextE
node:_ZN12v8_inspector9V8Console5ClearERKN2v85debug20ConsoleCallArgumentsERKNS2_14ConsoleContextE
node:_ZN12v8_inspector9V8Console5CountERKN2v85debug20ConsoleCallArgumentsERKNS2_14ConsoleContextE
node:_ZN12v8_inspector9V8Console5DebugERKN2v85debug20ConsoleCallArgumentsERKNS2_14ConsoleContextE
node:_ZN12v8_inspector9V8Console5ErrorERKN2v85debug20ConsoleCallArgumentsERKNS2_14ConsoleContextE
node:_ZN12v8_inspector9V8Console5GroupERKN2v85debug20ConsoleCallArgumentsERKNS2_14ConsoleContextE
node:_ZN12v8_inspector9V8Console5TableERKN2v85debug20ConsoleCallArgumentsERKNS2_14ConsoleContextE
node:_ZN12v8_inspector9V8Console5TraceERKN2v85debug20ConsoleCallArgumentsERKNS2_14ConsoleContextE
node:_ZN12v8_inspector9V8Console6AssertERKN2v85debug20ConsoleCallArgumentsERKNS2_14ConsoleContextE
node:_ZN12v8_inspector9V8Console6DirXmlERKN2v85debug20ConsoleCallArgumentsERKNS2_14ConsoleContextE
node:_ZN12v8_inspector9V8Console7ProfileERKN2v85debug20ConsoleCallArgumentsERKNS2_14ConsoleContextE
node:_ZN12v8_inspector9V8Console7TimeEndERKN2v85debug20ConsoleCallArgumentsERKNS2_14ConsoleContextE
node:_ZN12v8_inspector9V8Console7TimeLogERKN2v85debug20ConsoleCallArgumentsERKNS2_14ConsoleContextE
node:_ZN12v8_inspector9V8Console7runTaskERKN2v820FunctionCallbackInfoINS1_5ValueEEE
node:_ZN12v8_inspector9V8Console8GroupEndERKN2v85debug20ConsoleCallArgumentsERKNS2_14ConsoleContextE
node:_ZN12v8_inspector9V8Console9TimeStampERKN2v85debug20ConsoleCallArgumentsERKNS2_14ConsoleContextE
node:_ZN12v8_inspector9V8ConsoleC1EPNS_15V8InspectorImplE
node:_ZN12v8_inspector9V8ConsoleC2EPNS_15V8InspectorImplE
node:_ZN13zlib_internal14CompressHelperENS_11WrapperTypeEPhPmPKhmiPFPvmEPFvS5_E
node:_ZN13zlib_internal16UncompressHelperENS_11WrapperTypeEPhPmPKhm
node:_ZN13zlib_internal18GzipCompressHelperEPhPmPKhmPFPvmEPFvS4_E
node:_ZN13zlib_internal20GzipUncompressHelperEPhPmPKhm
node:_ZN13zlib_internal23GetGzipUncompressedSizeEPKhm
node:_ZN13zlib_internal26GzipExpectedCompressedSizeEm
node:_ZN15node_napi_env__13CallFinalizerEPFvP10napi_env__PvS2_ES2_S2_
node:_ZN15node_napi_env__16EnqueueFinalizerEPN6v8impl10RefTrackerE
node:_ZN15node_napi_env__19DrainFinalizerQueueEv
node:_ZN15node_napi_env__23trigger_fatal_exceptionEN2v85LocalINS0_5ValueEEE
node:_ZN15node_napi_env__8DeleteMeEv
node:_ZN15node_napi_env__C1EN2v85LocalINS0_7ContextEEERKNSt7__cxx1112basic_stringIcSt11char_traitsIcESaIcEEEi
node:_ZN15node_napi_env__C2EN2v85LocalINS0_7ContextEEERKNSt7__cxx1112basic_stringIcSt11char_traitsIcESaIcEEEi
node:_ZN2v810CpuProfile6DeleteEv
node:_ZN2v810FixedArray9CheckCastEPNS_4DataE
node:_ZN2v810Int16Array3NewENS_5LocalINS_11ArrayBufferEEEmm
node:_ZN2v810Int16Array3NewENS_5LocalINS_17SharedArrayBufferEEEmm
node:_ZN2v810Int16Array9CheckCastEPNS_5ValueE
node:_ZN2v810Int32Array3NewENS_5LocalINS_11ArrayBufferEEEmm
node:_ZN2v810Int32Array3NewENS_5LocalINS_17SharedArrayBufferEEEmm
node:_ZN2v810Int32Array9CheckCastEPNS_5ValueE
node:_ZN2v810NewContextEPNS_7IsolateEPNS_22ExtensionConfigurationENS_10MaybeLocalINS_14ObjectTemplateEEENS4_INS_5ValueEEEmNS_33DeserializeInternalFieldsCallbackEPNS_14MicrotaskQueueE
node:_ZN2v810StackTrace17CurrentStackTraceEPNS_7IsolateEiNS0_17StackTraceOptionsE
node:_ZN2v810StackTrace28CurrentScriptNameOrSourceURLEPNS_7IsolateE
node:_ZN2v810TypedArray6LengthEv
node:_ZN2v810TypedArray9CheckCastEPNS_5ValueE
node:_ZN2v810Uint8Array3NewENS_5LocalINS_11ArrayBufferEEEmm
node:_ZN2v810Uint8Array3NewENS_5LocalINS_17SharedArrayBufferEEEmm
node:_ZN2v810Uint8Array9CheckCastEPNS_5ValueE
node:_ZN2v811ArrayBuffer12SetDetachKeyENS_5LocalINS_5ValueEEE
node:_ZN2v811ArrayBuffer15GetBackingStoreEv
node:_ZN2v811ArrayBuffer15NewBackingStoreEPNS_7IsolateEm
node:_ZN2v811ArrayBuffer15NewBackingStoreEPvmPFvS1_mS1_ES1_
node:_ZN2v811ArrayBuffer24NewResizableBackingStoreEmm
node:_ZN2v811ArrayBuffer3NewEPNS_7IsolateESt10shared_ptrINS_12BackingStoreEE
node:_ZN2v811ArrayBuffer3NewEPNS_7IsolateEm
node:_ZN2v811ArrayBuffer6DetachENS_5LocalINS_5ValueEEE
node:_ZN2v811ArrayBuffer6DetachEv
node:_ZN2v811ArrayBuffer9Allocator10ReallocateEPvmm
node:_ZN2v811ArrayBuffer9Allocator19NewDefaultAllocatorEv
node:_ZN2v811ArrayBuffer9CheckCastEPNS_5ValueE
node:_ZN2v811CpuProfiler13CollectSampleEPNS_7IsolateE
node:_ZN2v811CpuProfiler13StopProfilingENS_5LocalINS_6StringEEE
node:_ZN2v811CpuProfiler14StartProfilingENS_5LocalINS_6StringEEENS_16CpuProfilingModeEbj
node:_ZN2v811CpuProfiler14StartProfilingENS_5LocalINS_6StringEEENS_19CpuProfilingOptionsESt10unique_ptrINS_24DiscardedSamplesDelegateESt14default_deleteIS6_EE
node:_ZN2v811CpuProfiler14StartProfilingENS_5LocalINS_6StringEEEb
node:_ZN2v811CpuProfiler19SetSamplingIntervalEi
node:_ZN2v811CpuProfiler21SetUsePreciseSamplingEb
node:_ZN2v811CpuProfiler38UseDetailedSourcePositionsForProfilingEPNS_7IsolateE
node:_ZN2v811CpuProfiler3NewEPNS_7IsolateENS_22CpuProfilingNamingModeENS_23CpuProfilingLoggingModeE
node:_ZN2v811CpuProfiler4StopEj
node:_ZN2v811CpuProfiler5StartENS_19CpuProfilingOptionsESt10unique_ptrINS_24DiscardedSamplesDelegateESt14default_deleteIS3_EE
node:_ZN2v811CpuProfiler5StartENS_5LocalINS_6StringEEENS_16CpuProfilingModeEbj
node:_ZN2v811CpuProfiler5StartENS_5LocalINS_6StringEEENS_19CpuProfilingOptionsESt10unique_ptrINS_24DiscardedSamplesDelegateESt14default_deleteIS6_EE
node:_ZN2v811CpuProfiler5StartENS_5LocalINS_6StringEEEb
node:_ZN2v811CpuProfiler7DisposeEv
node:_ZN2v811HandleScope10InitializeEPNS_7IsolateE
node:_ZN2v811HandleScope12CreateHandleEPNS_8internal7IsolateEm
node:_ZN2v811HandleScope15NumberOfHandlesEPNS_7IsolateE
node:_ZN2v811HandleScopeC1EPNS_7IsolateE
node:_ZN2v811HandleScopeC2EPNS_7IsolateE
node:_ZN2v811HandleScopeD1Ev
node:_ZN2v811HandleScopeD2Ev
node:_ZN2v811HandleScopedaEPvm
node:_ZN2v811HandleScopedlEPvm
node:_ZN2v811HandleScopenaEm
node:_ZN2v811HandleScopenwEm
node:_ZN2v811Uint16Array3NewENS_5LocalINS_11ArrayBufferEEEmm
node:_ZN2v811Uint16Array3NewENS_5LocalINS_17SharedArrayBufferEEEmm
node:_ZN2v811Uint16Array9CheckCastEPNS_5ValueE
node:_ZN2v811Uint32Array3NewENS_5LocalINS_11ArrayBufferEEEmm
node:_ZN2v811Uint32Array3NewENS_5LocalINS_17SharedArrayBufferEEEmm
node:_ZN2v811Uint32Array9CheckCastEPNS_5ValueE
node:_ZN2v812BackingStore10ReallocateEPNS_7IsolateESt10unique_ptrIS0_St14default_deleteIS0_EEm
node:_ZN2v812BackingStore12EmptyDeleterEPvmS1_
node:_ZN2v812BackingStoreD1Ev
node:_ZN2v812BackingStoreD2Ev
node:_ZN2v812BigIntObject3NewEPNS_7IsolateEl
node:_ZN2v812BigIntObject9CheckCastEPNS_5ValueE
node:_ZN2v812Float32Array3NewENS_5LocalINS_11ArrayBufferEEEmm
node:_ZN2v812Float32Array3NewENS_5LocalINS_17SharedArrayBufferEEEmm
node:_ZN2v812Float32Array9CheckCastEPNS_5ValueE
node:_ZN2v812Float64Array3NewENS_5LocalINS_11ArrayBufferEEEmm
node:_ZN2v812Float64Array3NewENS_5LocalINS_17SharedArrayBufferEEEmm
node:_ZN2v812Float64Array9CheckCastEPNS_5ValueE
node:_ZN2v812HeapProfiler11GetObjectIdENS_5LocalINS_5ValueEEE
node:_ZN2v812HeapProfiler11GetObjectIdEPv
node:_ZN2v812HeapProfiler12GetHeapStatsEPNS_12OutputStreamEPl
node:_ZN2v812HeapProfiler14ClearObjectIdsEv
node:_ZN2v812HeapProfiler14FindObjectByIdEj
node:_ZN2v812HeapProfiler15GetHeapSnapshotEi
node:_ZN2v812HeapProfiler16GetSnapshotCountEv
node:_ZN2v812HeapProfiler16TakeHeapSnapshotEPNS_15ActivityControlEPNS0_18ObjectNameResolverEbb
node:_ZN2v812HeapProfiler16TakeHeapSnapshotERKNS0_19HeapSnapshotOptionsE
node:_ZN2v812HeapProfiler16kUnknownObjectIdE
node:_ZN2v812HeapProfiler20GetAllocationProfileEv
node:_ZN2v812HeapProfiler22DeleteAllHeapSnapshotsEv
node:_ZN2v812HeapProfiler23StopTrackingHeapObjectsEv
node:_ZN2v812HeapProfiler24StartTrackingHeapObjectsEb
node:_ZN2v812HeapProfiler24StopSamplingHeapProfilerEv
node:_ZN2v812HeapProfiler25StartSamplingHeapProfilerEmiNS0_13SamplingFlagsE
node:_ZN2v812HeapProfiler26SetGetDetachednessCallbackEPFNS_13EmbedderGraph4Node12DetachednessEPNS_7IsolateERKNS_5LocalINS_5ValueEEEtPvESB_
node:_ZN2v812HeapProfiler29AddBuildEmbedderGraphCallbackEPFvPNS_7IsolateEPNS_13EmbedderGraphEPvES5_
node:_ZN2v812HeapProfiler32RemoveBuildEmbedderGraphCallbackEPFvPNS_7IsolateEPNS_13EmbedderGraphEPvES5_
node:_ZN2v812HeapSnapshot6DeleteEv
node:_ZN2v812NumberObject3NewEPNS_7IsolateEd
node:_ZN2v812NumberObject9CheckCastEPNS_5ValueE
node:_ZN2v812StringObject3NewEPNS_7IsolateENS_5LocalINS_6StringEEE
node:_ZN2v812StringObject9CheckCastEPNS_5ValueE
node:_ZN2v812SymbolObject3NewEPNS_7IsolateENS_5LocalINS_6SymbolEEE
node:_ZN2v812SymbolObject9CheckCastEPNS_5ValueE
node:_ZN2v812api_internal10EternalizeEPNS_7IsolateEPNS_5ValueE
node:_ZN2v812api_internal12ToLocalEmptyEv
node:_ZN2v812api_internal13DisposeGlobalEPm
node:_ZN2v812api_internal17FromJustIsNothingEv
node:_ZN2v812api_internal18GlobalizeReferenceEPNS_8internal7IsolateEPm
node:_ZN2v812api_internal19CopyGlobalReferenceEPm
node:_ZN2v812api_internal19MoveGlobalReferenceEPPmS2_
node:_ZN2v812api_internal22AnnotateStrongRetainerEPmPKc
node:_ZN2v812api_internal24InternalFieldOutOfBoundsEi
node:_ZN2v812api_internal8MakeWeakEPPm
node:_ZN2v812api_internal8MakeWeakEPmPvPFvRKNS_16WeakCallbackInfoIvEEENS_16WeakCallbackTypeE
node:_ZN2v812api_internal9ClearWeakEPm
node:_ZN2v813BigInt64Array3NewENS_5LocalINS_11ArrayBufferEEEmm
node:_ZN2v813BigInt64Array3NewENS_5LocalINS_17SharedArrayBufferEEEmm
node:_ZN2v813BigInt64Array9CheckCastEPNS_5ValueE
node:_ZN2v813BooleanObject3NewEPNS_7IsolateEb
node:_ZN2v813BooleanObject9CheckCastEPNS_5ValueE
node:_ZN2v813CFunctionInfoC1ERKNS_9CTypeInfoEjPS2_
node:_ZN2v813CFunctionInfoC2ERKNS_9CTypeInfoEjPS2_
node:_ZN2v813ModuleRequest9CheckCastEPNS_4DataE
node:_ZN2v813RegisterStateC1ERKS0_
node:_ZN2v813RegisterStateC1Ev
node:_ZN2v813RegisterStateC2ERKS0_
node:_ZN2v813RegisterStateC2Ev
node:_ZN2v813RegisterStateD1Ev
node:_ZN2v813RegisterStateD2Ev
node:_ZN2v813RegisterStateaSERKS0_
node:_ZN2v813UnboundScript12GetSourceURLEv
node:_ZN2v813UnboundScript13GetLineNumberEi
node:_ZN2v813UnboundScript13GetScriptNameEv
node:_ZN2v813UnboundScript15GetColumnNumberEi
node:_ZN2v813UnboundScript19GetSourceMappingURLEv
node:_ZN2v813UnboundScript20BindToCurrentContextEv
node:_ZN2v813WasmStreaming15OnBytesReceivedEPKhm
node:_ZN2v813WasmStreaming22SetCompiledModuleBytesEPKhm
node:_ZN2v813WasmStreaming39SetMoreFunctionsCanBeSerializedCallbackESt8functionIFvNS_18CompiledWasmModuleEEE
node:_ZN2v813WasmStreaming5AbortENS_10MaybeLocalINS_5ValueEEE
node:_ZN2v813WasmStreaming6FinishEb
node:_ZN2v813WasmStreaming6SetUrlEPKcm
node:_ZN2v813WasmStreaming6UnpackEPNS_7IsolateENS_5LocalINS_5ValueEEE
node:_ZN2v813WasmStreamingC1ESt10unique_ptrINS0_17WasmStreamingImplESt14default_deleteIS2_EE
node:_ZN2v813WasmStreamingC2ESt10unique_ptrINS0_17WasmStreamingImplESt14default_deleteIS2_EE
node:_ZN2v813WasmStreamingD1Ev
node:_ZN2v813WasmStreamingD2Ev
node:_ZN2v814BigUint64Array3NewENS_5LocalINS_11ArrayBufferEEEmm
node:_ZN2v814BigUint64Array3NewENS_5LocalINS_17SharedArrayBufferEEEmm
node:_ZN2v814BigUint64Array9CheckCastEPNS_5ValueE
node:_ZN2v814CpuProfileNode17kNoLineNumberInfoE
node:_ZN2v814CpuProfileNode19kNoColumnNumberInfoE
node:_ZN2v814HeapStatisticsC1Ev
node:_ZN2v814HeapStatisticsC2Ev
node:_ZN2v814MicrotaskQueue3NewEPNS_7IsolateENS_16MicrotasksPolicyE
node:_ZN2v814ObjectTemplate10SetHandlerERKNS_33NamedPropertyHandlerConfigurationE
node:_ZN2v814ObjectTemplate10SetHandlerERKNS_35IndexedPropertyHandlerConfigurationE
node:_ZN2v814ObjectTemplate11NewInstanceENS_5LocalINS_7ContextEEE
node:_ZN2v814ObjectTemplate11SetAccessorENS_5LocalINS_4NameEEEPFvS3_RKNS_20PropertyCallbackInfoINS_5ValueEEEEPFvS3_NS1_IS5_EERKNS4_IvEEESB_NS_13AccessControlENS_17PropertyAttributeENS_14SideEffectTypeESJ_
node:_ZN2v814ObjectTemplate11SetAccessorENS_5LocalINS_6StringEEEPFvS3_RKNS_20PropertyCallbackInfoINS_5ValueEEEEPFvS3_NS1_IS5_EERKNS4_IvEEESB_NS_13AccessControlENS_17PropertyAttributeENS_14SideEffectTypeESJ_
node:_ZN2v814ObjectTemplate11SetCodeLikeEv
node:_ZN2v814ObjectTemplate17SetImmutableProtoEv
node:_ZN2v814ObjectTemplate18MarkAsUndetectableEv
node:_ZN2v814ObjectTemplate21SetInternalFieldCountEi
node:_ZN2v814ObjectTemplate22SetAccessCheckCallbackEPFbNS_5LocalINS_7ContextEEENS1_INS_6ObjectEEENS1_INS_5ValueEEEES7_
node:_ZN2v814ObjectTemplate24SetCallAsFunctionHandlerEPFvRKNS_20FunctionCallbackInfoINS_5ValueEEEENS_5LocalIS2_EE
node:_ZN2v814ObjectTemplate32SetAccessCheckCallbackAndHandlerEPFbNS_5LocalINS_7ContextEEENS1_INS_6ObjectEEENS1_INS_5ValueEEEERKNS_33NamedPropertyHandlerConfigurationERKNS_35IndexedPropertyHandlerConfigurationES7_
node:_ZN2v814ObjectTemplate3NewEPNS_7IsolateENS_5LocalINS_16FunctionTemplateEEE
node:_ZN2v814ObjectTemplate3NewEPNS_8internal7IsolateENS_5LocalINS_16FunctionTemplateEEE
node:_ZN2v814ObjectTemplate9CheckCastEPNS_4DataE
node:_ZN2v814PrimitiveArray3GetEPNS_7IsolateEi
node:_ZN2v814PrimitiveArray3NewEPNS_7IsolateEi
node:_ZN2v814PrimitiveArray3SetEPNS_7IsolateEiNS_5LocalINS_9PrimitiveEEE
node:_ZN2v814PrimitiveArray9CheckCastEPNS_4DataE
node:_ZN2v814ScriptCompiler10CachedDataC1EPKhiNS1_12BufferPolicyE
node:_ZN2v814ScriptCompiler10CachedDataC2EPKhiNS1_12BufferPolicyE
node:_ZN2v814ScriptCompiler10CachedDataD1Ev
node:_ZN2v814ScriptCompiler10CachedDataD2Ev
node:_ZN2v814ScriptCompiler13CompileModuleENS_5LocalINS_7ContextEEEPNS0_14StreamedSourceENS1_INS_6StringEEERKNS_12ScriptOriginE
node:_ZN2v814ScriptCompiler13CompileModuleEPNS_7IsolateEPNS0_6SourceENS0_14CompileOptionsENS0_13NoCacheReasonE
node:_ZN2v814ScriptCompiler14StartStreamingEPNS_7IsolateEPNS0_14StreamedSourceENS_10ScriptTypeENS0_14CompileOptionsE
node:_ZN2v814ScriptCompiler14StreamedSourceC1ESt10unique_ptrINS0_20ExternalSourceStreamESt14default_deleteIS3_EENS1_8EncodingE
node:_ZN2v814ScriptCompiler14StreamedSourceC2ESt10unique_ptrINS0_20ExternalSourceStreamESt14default_deleteIS3_EENS1_8EncodingE
node:_ZN2v814ScriptCompiler14StreamedSourceD1Ev
node:_ZN2v814ScriptCompiler14StreamedSourceD2Ev
node:_ZN2v814ScriptCompiler15CompileFunctionENS_5LocalINS_7ContextEEEPNS0_6SourceEmPNS1_INS_6StringEEEmPNS1_INS_6ObjectEEENS0_14CompileOptionsENS0_13NoCacheReasonE
node:_ZN2v814ScriptCompiler15CreateCodeCacheENS_5LocalINS_13UnboundScriptEEE
node:_ZN2v814ScriptCompiler15CreateCodeCacheENS_5LocalINS_19UnboundModuleScriptEEE
node:_ZN2v814ScriptCompiler19ScriptStreamingTask3RunEv
node:_ZN2v814ScriptCompiler20CachedDataVersionTagEv
node:_ZN2v814ScriptCompiler20CompileUnboundScriptEPNS_7IsolateEPNS0_6SourceENS0_14CompileOptionsENS0_13NoCacheReasonE
node:_ZN2v814ScriptCompiler20ConsumeCodeCacheTask19SourceTextAvailableEPNS_7IsolateENS_5LocalINS_6StringEEERKNS_12ScriptOriginE
node:_ZN2v814ScriptCompiler20ConsumeCodeCacheTask23MergeWithExistingScriptEv
node:_ZN2v814ScriptCompiler20ConsumeCodeCacheTask3RunEv
node:_ZN2v814ScriptCompiler20ConsumeCodeCacheTaskC1ESt10unique_ptrINS_8internal25BackgroundDeserializeTaskESt14default_deleteIS4_EE
node:_ZN2v814ScriptCompiler20ConsumeCodeCacheTaskC2ESt10unique_ptrINS_8internal25BackgroundDeserializeTaskESt14default_deleteIS4_EE
node:_ZN2v814ScriptCompiler20ConsumeCodeCacheTaskD1Ev
node:_ZN2v814ScriptCompiler20ConsumeCodeCacheTaskD2Ev
node:_ZN2v814ScriptCompiler22CompileUnboundInternalEPNS_7IsolateEPNS0_6SourceENS0_14CompileOptionsENS0_13NoCacheReasonE
node:_ZN2v814ScriptCompiler23CompileFunctionInternalENS_5LocalINS_7ContextEEEPNS0_6SourceEmPNS1_INS_6StringEEEmPNS1_INS_6ObjectEEENS0_14CompileOptionsENS0_13NoCacheReasonEPNS1_INS_14ScriptOrModuleEEE
node:_ZN2v814ScriptCompiler23StartConsumingCodeCacheEPNS_7IsolateESt10unique_ptrINS0_10CachedDataESt14default_deleteIS4_EE
node:_ZN2v814ScriptCompiler24CompileFunctionInContextENS_5LocalINS_7ContextEEEPNS0_6SourceEmPNS1_INS_6StringEEEmPNS1_INS_6ObjectEEENS0_14CompileOptionsENS0_13NoCacheReasonEPNS1_INS_14ScriptOrModuleEEE
node:_ZN2v814ScriptCompiler26CreateCodeCacheForFunctionENS_5LocalINS_8FunctionEEE
node:_ZN2v814ScriptCompiler7CompileENS_5LocalINS_7ContextEEEPNS0_14StreamedSourceENS1_INS_6StringEEERKNS_12ScriptOriginE
node:_ZN2v814ScriptCompiler7CompileENS_5LocalINS_7ContextEEEPNS0_6SourceENS0_14CompileOptionsENS0_13NoCacheReasonE
node:_ZN2v814ScriptOrModule15GetResourceNameEv
node:_ZN2v814ScriptOrModule18HostDefinedOptionsEv
node:_ZN2v815ArrayBufferView10ByteLengthEv
node:_ZN2v815ArrayBufferView10ByteOffsetEv
node:_ZN2v815ArrayBufferView12CopyContentsEPvm
node:_ZN2v815ArrayBufferView6BufferEv
node:_ZN2v815ArrayBufferView9CheckCastEPNS_5ValueE
node:_ZN2v815MicrotasksScope15GetCurrentDepthEPNS_7IsolateE
node:_ZN2v815MicrotasksScope17PerformCheckpointEPNS_7IsolateE
node:_ZN2v815MicrotasksScope19IsRunningMicrotasksEPNS_7IsolateE
node:_ZN2v815MicrotasksScopeC1ENS_5LocalINS_7ContextEEENS0_4TypeE
node:_ZN2v815MicrotasksScopeC1EPNS_7IsolateENS0_4TypeE
node:_ZN2v815MicrotasksScopeC1EPNS_7IsolateEPNS_14MicrotaskQueueENS0_4TypeE
node:_ZN2v815MicrotasksScopeC2ENS_5LocalINS_7ContextEEENS0_4TypeE
node:_ZN2v815MicrotasksScopeC2EPNS_7IsolateENS0_4TypeE
node:_ZN2v815MicrotasksScopeC2EPNS_7IsolateEPNS_14MicrotaskQueueENS0_4TypeE
node:_ZN2v815MicrotasksScopeD1Ev
node:_ZN2v815MicrotasksScopeD2Ev
node:_ZN2v815SealHandleScopeC1EPNS_7IsolateE
node:_ZN2v815SealHandleScopeC2EPNS_7IsolateE
node:_ZN2v815SealHandleScopeD1Ev
node:_ZN2v815SealHandleScopeD2Ev
node:_ZN2v815SealHandleScopedaEPvm
node:_ZN2v815SealHandleScopedlEPvm
node:_ZN2v815SealHandleScopenaEm
node:_ZN2v815SealHandleScopenwEm
node:_ZN2v815SnapshotCreator10AddContextENS_5LocalINS_7ContextEEENS_31SerializeInternalFieldsCallbackE
node:_ZN2v815SnapshotCreator10CreateBlobENS0_20FunctionCodeHandlingE
node:_ZN2v815SnapshotCreator10GetIsolateEv
node:_ZN2v815SnapshotCreator17SetDefaultContextENS_5LocalINS_7ContextEEENS_31SerializeInternalFieldsCallbackE
node:_ZN2v815SnapshotCreator7AddDataENS_5LocalINS_7ContextEEEm
node:_ZN2v815SnapshotCreator7AddDataEm
node:_ZN2v815SnapshotCreatorC1EPKlPKNS_11StartupDataE
node:_ZN2v815SnapshotCreatorC1EPNS_7IsolateEPKlPKNS_11StartupDataE
node:_ZN2v815SnapshotCreatorC2EPKlPKNS_11StartupDataE
node:_ZN2v815SnapshotCreatorC2EPNS_7IsolateEPKlPKNS_11StartupDataE
node:_ZN2v815SnapshotCreatorD1Ev
node:_ZN2v815SnapshotCreatorD2Ev
node:_ZN2v815ValueSerializer10WriteValueENS_5LocalINS_7ContextEEENS1_INS_5ValueEEE
node:_ZN2v815ValueSerializer11WriteDoubleEd
node:_ZN2v815ValueSerializer11WriteHeaderEv
node:_ZN2v815ValueSerializer11WriteUint32Ej
node:_ZN2v815ValueSerializer11WriteUint64Em
node:_ZN2v815ValueSerializer13WriteRawBytesEPKvm
node:_ZN2v815ValueSerializer19TransferArrayBufferEjNS_5LocalINS_11ArrayBufferEEE
node:_ZN2v815ValueSerializer37SetTreatArrayBufferViewsAsHostObjectsEb
node:_ZN2v815ValueSerializer7ReleaseEv
node:_ZN2v815ValueSerializer8Delegate15WriteHostObjectEPNS_7IsolateENS_5LocalINS_6ObjectEEE
node:_ZN2v815ValueSerializer8Delegate16FreeBufferMemoryEPv
node:_ZN2v815ValueSerializer8Delegate22GetSharedArrayBufferIdEPNS_7IsolateENS_5LocalINS_17SharedArrayBufferEEE
node:_ZN2v815ValueSerializer8Delegate22ReallocateBufferMemoryEPvmPm
node:_ZN2v815ValueSerializer8Delegate23GetWasmModuleTransferIdEPNS_7IsolateENS_5LocalINS_16WasmModuleObjectEEE
node:_ZN2v815ValueSerializer8Delegate24AdoptSharedValueConveyorEPNS_7IsolateEONS_19SharedValueConveyorE
node:_ZN2v815ValueSerializerC1EPNS_7IsolateE
node:_ZN2v815ValueSerializerC1EPNS_7IsolateEPNS0_8DelegateE
node:_ZN2v815ValueSerializerC2EPNS_7IsolateE
node:_ZN2v815ValueSerializerC2EPNS_7IsolateEPNS0_8DelegateE
node:_ZN2v815ValueSerializerD1Ev
node:_ZN2v815ValueSerializerD2Ev
node:_ZN2v816CodeEventHandler6EnableEv
node:_ZN2v816CodeEventHandler7DisableEv
node:_ZN2v816CodeEventHandlerC1EPNS_7IsolateE
node:_ZN2v816CodeEventHandlerC2EPNS_7IsolateE
node:_ZN2v816CodeEventHandlerD0Ev
node:_ZN2v816CodeEventHandlerD1Ev
node:_ZN2v816CodeEventHandlerD2Ev
node:_ZN2v816FunctionTemplate11GetFunctionENS_5LocalINS_7ContextEEE
node:_ZN2v816FunctionTemplate11HasInstanceENS_5LocalINS_5ValueEEE
node:_ZN2v816FunctionTemplate12NewWithCacheEPNS_7IsolateEPFvRKNS_20FunctionCallbackInfoINS_5ValueEEEENS_5LocalINS_7PrivateEEENSA_IS4_EENSA_INS_9SignatureEEEiNS_14SideEffectTypeE
node:_ZN2v816FunctionTemplate12SetClassNameENS_5LocalINS_6StringEEE
node:_ZN2v816FunctionTemplate14SetCallHandlerEPFvRKNS_20FunctionCallbackInfoINS_5ValueEEEENS_5LocalIS2_EENS_14SideEffectTypeERKNS_10MemorySpanIKNS_9CFunctionEEE
node:_ZN2v816FunctionTemplate15RemovePrototypeEv
node:_ZN2v816FunctionTemplate16InstanceTemplateEv
node:_ZN2v816FunctionTemplate17NewRemoteInstanceEv
node:_ZN2v816FunctionTemplate17PrototypeTemplateEv
node:_ZN2v816FunctionTemplate17ReadOnlyPrototypeEv
node:_ZN2v816FunctionTemplate20SetAcceptAnyReceiverEb
node:_ZN2v816FunctionTemplate25NewWithCFunctionOverloadsEPNS_7IsolateEPFvRKNS_20FunctionCallbackInfoINS_5ValueEEEENS_5LocalIS4_EENSA_INS_9SignatureEEEiNS_19ConstructorBehaviorENS_14SideEffectTypeERKNS_10MemorySpanIKNS_9CFunctionEEE
node:_ZN2v816FunctionTemplate28SetPrototypeProviderTemplateENS_5LocalIS0_EE
node:_ZN2v816FunctionTemplate3NewEPNS_7IsolateEPFvRKNS_20FunctionCallbackInfoINS_5ValueEEEENS_5LocalIS4_EENSA_INS_9SignatureEEEiNS_19ConstructorBehaviorENS_14SideEffectTypeEPKNS_9CFunctionEttt
node:_ZN2v816FunctionTemplate7InheritENS_5LocalIS0_EE
node:_ZN2v816FunctionTemplate9CheckCastEPNS_4DataE
node:_ZN2v816FunctionTemplate9SetLengthEi
node:_ZN2v816WasmMemoryObject6BufferEv
node:_ZN2v816WasmMemoryObject9CheckCastEPNS_5ValueE
node:_ZN2v816WasmModuleObject17GetCompiledModuleEv
node:_ZN2v816WasmModuleObject18FromCompiledModuleEPNS_7IsolateERKNS_18CompiledWasmModuleE
node:_ZN2v816WasmModuleObject7CompileEPNS_7IsolateENS_10MemorySpanIKhEE
node:_ZN2v816WasmModuleObject9CheckCastEPNS_5ValueE
node:_ZN2v817RegisterExtensionESt10unique_ptrINS_9ExtensionESt14default_deleteIS1_EE
node:_ZN2v817SharedArrayBuffer15GetBackingStoreEv
node:_ZN2v817SharedArrayBuffer15NewBackingStoreEPNS_7IsolateEm
node:_ZN2v817SharedArrayBuffer15NewBackingStoreEPvmPFvS1_mS1_ES1_
node:_ZN2v817SharedArrayBuffer3NewEPNS_7IsolateESt10shared_ptrINS_12BackingStoreEE
node:_ZN2v817SharedArrayBuffer3NewEPNS_7IsolateEm
node:_ZN2v817SharedArrayBuffer9CheckCastEPNS_5ValueE
node:_ZN2v817Uint8ClampedArray3NewENS_5LocalINS_11ArrayBufferEEEmm
node:_ZN2v817Uint8ClampedArray3NewENS_5LocalINS_17SharedArrayBufferEEEmm
node:_ZN2v817Uint8ClampedArray9CheckCastEPNS_5ValueE
node:_ZN2v817ValueDeserializer10ReadDoubleEPd
node:_ZN2v817ValueDeserializer10ReadHeaderENS_5LocalINS_7ContextEEE
node:_ZN2v817ValueDeserializer10ReadUint32EPj
node:_ZN2v817ValueDeserializer10ReadUint64EPm
node:_ZN2v817ValueDeserializer12ReadRawBytesEmPPKv
node:_ZN2v817ValueDeserializer19TransferArrayBufferEjNS_5LocalINS_11ArrayBufferEEE
node:_ZN2v817ValueDeserializer25TransferSharedArrayBufferEjNS_5LocalINS_17SharedArrayBufferEEE
node:_ZN2v817ValueDeserializer27SetSupportsLegacyWireFormatEb
node:_ZN2v817ValueDeserializer8Delegate14ReadHostObjectEPNS_7IsolateE
node:_ZN2v817ValueDeserializer8Delegate19GetWasmModuleFromIdEPNS_7IsolateEj
node:_ZN2v817ValueDeserializer8Delegate22GetSharedValueConveyorEPNS_7IsolateE
node:_ZN2v817ValueDeserializer8Delegate26GetSharedArrayBufferFromIdEPNS_7IsolateEj
node:_ZN2v817ValueDeserializer9ReadValueENS_5LocalINS_7ContextEEE
node:_ZN2v817ValueDeserializerC1EPNS_7IsolateEPKhm
node:_ZN2v817ValueDeserializerC1EPNS_7IsolateEPKhmPNS0_8DelegateE
node:_ZN2v817ValueDeserializerC2EPNS_7IsolateEPKhm
node:_ZN2v817ValueDeserializerC2EPNS_7IsolateEPKhmPNS0_8DelegateE
node:_ZN2v817ValueDeserializerD1Ev
node:_ZN2v817ValueDeserializerD2Ev
node:_ZN2v818CompiledWasmModule15GetWireBytesRefEv
node:_ZN2v818CompiledWasmModule9SerializeEv
node:_ZN2v818CompiledWasmModuleC1ESt10shared_ptrINS_8internal4wasm12NativeModuleEEPKcm
node:_ZN2v818CompiledWasmModuleC2ESt10shared_ptrINS_8internal4wasm12NativeModuleEEPKcm
node:_ZN2v818EmbedderStateScopeC1EPNS_7IsolateENS_5LocalINS_7ContextEEENS_16EmbedderStateTagE
node:_ZN2v818EmbedderStateScopeC2EPNS_7IsolateENS_5LocalINS_7ContextEEENS_16EmbedderStateTagE
node:_ZN2v818EmbedderStateScopeD1Ev
node:_ZN2v818EmbedderStateScopeD2Ev
node:_ZN2v818HeapCodeStatisticsC1Ev
node:_ZN2v818HeapCodeStatisticsC2Ev
node:_ZN2v818PropertyDescriptor14set_enumerableEb
node:_ZN2v818PropertyDescriptor16set_configurableEb
node:_ZN2v818PropertyDescriptorC1ENS_5LocalINS_5ValueEEE
node:_ZN2v818PropertyDescriptorC1ENS_5LocalINS_5ValueEEES3_
node:_ZN2v818PropertyDescriptorC1ENS_5LocalINS_5ValueEEEb
node:_ZN2v818PropertyDescriptorC1Ev
node:_ZN2v818PropertyDescriptorC2ENS_5LocalINS_5ValueEEE
node:_ZN2v818PropertyDescriptorC2ENS_5LocalINS_5ValueEEES3_
node:_ZN2v818PropertyDescriptorC2ENS_5LocalINS_5ValueEEEb
node:_ZN2v818PropertyDescriptorC2Ev
node:_ZN2v818PropertyDescriptorD1Ev
node:_ZN2v818PropertyDescriptorD2Ev
node:_ZN2v819CpuProfilingOptionsC1ENS_16CpuProfilingModeEjiNS_10MaybeLocalINS_7ContextEEE
node:_ZN2v819CpuProfilingOptionsC2ENS_16CpuProfilingModeEjiNS_10MaybeLocalINS_7ContextEEE
node:_ZN2v819HeapSpaceStatisticsC1Ev
node:_ZN2v819HeapSpaceStatisticsC2Ev
node:_ZN2v819RegisteredExtension13UnregisterAllEv
node:_ZN2v819RegisteredExtension16first_extension_E
node:_ZN2v819RegisteredExtension8RegisterESt10unique_ptrINS_9ExtensionESt14default_deleteIS2_EE
node:_ZN2v819RegisteredExtensionC1ESt10unique_ptrINS_9ExtensionESt14default_deleteIS2_EE
node:_ZN2v819RegisteredExtensionC2ESt10unique_ptrINS_9ExtensionESt14default_deleteIS2_EE
node:_ZN2v819ResourceConstraints17ConfigureDefaultsEmm
node:_ZN2v819ResourceConstraints29ConfigureDefaultsFromHeapSizeEmm
node:_ZN2v819SharedValueConveyorC1EOS0_
node:_ZN2v819SharedValueConveyorC1EPNS_7IsolateE
node:_ZN2v819SharedValueConveyorC2EOS0_
node:_ZN2v819SharedValueConveyorC2EPNS_7IsolateE
node:_ZN2v819SharedValueConveyorD1Ev
node:_ZN2v819SharedValueConveyorD2Ev
node:_ZN2v819SharedValueConveyoraSEOS0_
node:_ZN2v819UnboundModuleScript12GetSourceURLEv
node:_ZN2v819UnboundModuleScript19GetSourceMappingURLEv
node:_ZN2v820EscapableHandleScope6EscapeEPm
node:_ZN2v820EscapableHandleScopeC1EPNS_7IsolateE
node:_ZN2v820EscapableHandleScopeC2EPNS_7IsolateE
node:_ZN2v820EscapableHandleScopedaEPvm
node:_ZN2v820EscapableHandleScopedlEPvm
node:_ZN2v820EscapableHandleScopenaEm
node:_ZN2v820EscapableHandleScopenwEm
node:_ZN2v820HeapObjectStatisticsC1Ev
node:_ZN2v820HeapObjectStatisticsC2Ev
node:_ZN2v821MeasureMemoryDelegate7DefaultEPNS_7IsolateENS_5LocalINS_7ContextEEENS3_INS_7Promise8ResolverEEENS_17MeasureMemoryModeE
node:_ZN2v822SharedMemoryStatisticsC1Ev
node:_ZN2v822SharedMemoryStatisticsC2Ev
node:_ZN2v829TryHandleWebAssemblyTrapPosixEiP9siginfo_tPv
node:_ZN2v82V810GetVersionEv
node:_ZN2v82V810InitializeEi
node:_ZN2v82V813InitializeICUEPKc
node:_ZN2v82V815DisposePlatformEv
node:_ZN2v82V816SetEntropySourceEPFbPhmE
node:_ZN2v82V818InitializePlatformEPNS_8PlatformE
node:_ZN2v82V818SetFlagsFromStringEPKc
node:_ZN2v82V818SetFlagsFromStringEPKcm
node:_ZN2v82V819SetSnapshotDataBlobEPNS_11StartupDataE
node:_ZN2v82V821SetDcheckErrorHandlerEPFvPKciS2_E
node:_ZN2v82V823SetFlagsFromCommandLineEPiPPcb
node:_ZN2v82V825GetSharedMemoryStatisticsEPNS_22SharedMemoryStatisticsE
node:_ZN2v82V827SetFatalMemoryErrorCallbackEPFvPKcRKNS_10OOMDetailsEE
node:_ZN2v82V828EnableWebAssemblyTrapHandlerEb
node:_ZN2v82V828InitializeICUDefaultLocationEPKcS2_
node:_ZN2v82V829InitializeExternalStartupDataEPKc
node:_ZN2v82V832SetReturnAddressLocationResolverEPFmmE
node:_ZN2v82V837InitializeExternalStartupDataFromFileEPKc
node:_ZN2v82V87DisposeEv
node:_ZN2v835TryToCopyAndConvertArrayToCppBufferILj196608EiEEbNS_5LocalINS_5ArrayEEEPT0_j
node:_ZN2v835TryToCopyAndConvertArrayToCppBufferILj262144EjEEbNS_5LocalINS_5ArrayEEEPT0_j
node:_ZN2v835TryToCopyAndConvertArrayToCppBufferILj458752EfEEbNS_5LocalINS_5ArrayEEEPT0_j
node:_ZN2v835TryToCopyAndConvertArrayToCppBufferILj524288EdEEbNS_5LocalINS_5ArrayEEEPT0_j
node:_ZN2v837GetCalleeSavedRegistersFromEntryFrameEPvPNS_13RegisterStateE
node:_ZN2v83Map3GetENS_5LocalINS_7ContextEEENS1_INS_5ValueEEE
node:_ZN2v83Map3HasENS_5LocalINS_7ContextEEENS1_INS_5ValueEEE
node:_ZN2v83Map3NewEPNS_7IsolateE
node:_ZN2v83Map3SetENS_5LocalINS_7ContextEEENS1_INS_5ValueEEES5_
node:_ZN2v83Map5ClearEv
node:_ZN2v83Map6DeleteENS_5LocalINS_7ContextEEENS1_INS_5ValueEEE
node:_ZN2v83Map9CheckCastEPNS_5ValueE
node:_ZN2v83Set3AddENS_5LocalINS_7ContextEEENS1_INS_5ValueEEE
node:_ZN2v83Set3HasENS_5LocalINS_7ContextEEENS1_INS_5ValueEEE
node:_ZN2v83Set3NewEPNS_7IsolateE
node:_ZN2v83Set5ClearEv
node:_ZN2v83Set6DeleteENS_5LocalINS_7ContextEEENS1_INS_5ValueEEE
node:_ZN2v83Set9CheckCastEPNS_5ValueE
node:_ZN2v84Date3NewENS_5LocalINS_7ContextEEEd
node:_ZN2v84Date9CheckCastEPNS_5ValueE
node:_ZN2v84JSON5ParseENS_5LocalINS_7ContextEEENS1_INS_6StringEEE
node:_ZN2v84JSON9StringifyENS_5LocalINS_7ContextEEENS1_INS_5ValueEEENS1_INS_6StringEEE
node:_ZN2v84LoadEm
node:_ZN2v84Name15GetIdentityHashEv
node:_ZN2v84Name9CheckCastEPNS_4DataE
node:_ZN2v84base10BignumDtoaEdNS0_14BignumDtoaModeEiNS0_6VectorIcEEPiS4_
node:_ZN2v84base11SharedMutex10LockSharedEv
node:_ZN2v84base11SharedMutex12UnlockSharedEv
node:_ZN2v84base11SharedMutex13LockExclusiveEv
node:_ZN2v84base11SharedMutex13TryLockSharedEv
node:_ZN2v84base11SharedMutex15UnlockExclusiveEv
node:_ZN2v84base11SharedMutex16TryLockExclusiveEv
node:_ZN2v84base11SharedMutexC1Ev
node:_ZN2v84base11SharedMutexC2Ev
node:_ZN2v84base11SharedMutexD1Ev
node:_ZN2v84base11SharedMutexD2Ev
node:_ZN2v84base11ThreadTicks11IsSupportedEv
node:_ZN2v84base11ThreadTicks3NowEv
node:_ZN2v84base12CallOnceImplEPSt6atomicIhESt8functionIFvvEE
node:_ZN2v84base12MemoryRegion12FromMapsLineEPKc
node:_ZN2v84base13DoubleToAsciiEdNS0_8DtoaModeEiNS0_6VectorIcEEPiS4_S4_
node:_ZN2v84base13FastFixedDtoaEdiNS0_6VectorIcEEPiS3_
node:_ZN2v84base13PageAllocator11RemapSharedEPvS2_m
node:_ZN2v84base13PageAllocator12ReleasePagesEPvmm
node:_ZN2v84base13PageAllocator13AllocatePagesEPvmmNS_13PageAllocator10PermissionE
node:_ZN2v84base13PageAllocator13DecommitPagesEPvm
node:_ZN2v84base13PageAllocator13RecommitPagesEPvmNS_13PageAllocator10PermissionE
node:_ZN2v84base13PageAllocator14SetPermissionsEPvmNS_13PageAllocator10PermissionE
node:_ZN2v84base13PageAllocator17GetRandomMmapAddrEv
node:_ZN2v84base13PageAllocator17SetRandomMmapSeedEl
node:_ZN2v84base13PageAllocator18DiscardSystemPagesEPvm
node:_ZN2v84base13PageAllocator19AllocateSharedPagesEmPKv
node:_ZN2v84base13PageAllocator22CanAllocateSharedPagesEv
node:_ZN2v84base13PageAllocator9FreePagesEPvm
node:_ZN2v84base13PageAllocatorC1Ev
node:_ZN2v84base13PageAllocatorC2Ev
node:_ZN2v84base14RecursiveMutex4LockEv
node:_ZN2v84base14RecursiveMutex6UnlockEv
node:_ZN2v84base14RecursiveMutex7TryLockEv
node:_ZN2v84base14RecursiveMutexC1Ev
node:_ZN2v84base14RecursiveMutexC2Ev
node:_ZN2v84base14RecursiveMutexD1Ev
node:_ZN2v84base14RecursiveMutexD2Ev
node:_ZN2v84base15RegionAllocator10FindRegionEm
node:_ZN2v84base15RegionAllocator10TrimRegionEmm
node:_ZN2v84base15RegionAllocator11CheckRegionEm
node:_ZN2v84base15RegionAllocator14AllocateRegionEPNS0_21RandomNumberGeneratorEm
node:_ZN2v84base15RegionAllocator14AllocateRegionEm
node:_ZN2v84base15RegionAllocator14AllocateRegionEmmm
node:_ZN2v84base15RegionAllocator16AllocateRegionAtEmmNS1_11RegionStateE
node:_ZN2v84base15RegionAllocator17FreeListAddRegionEPNS1_6RegionE
node:_ZN2v84base15RegionAllocator18FreeListFindRegionEm
node:_ZN2v84base15RegionAllocator20FreeListRemoveRegionEPNS1_6RegionE
node:_ZN2v84base15RegionAllocator21AllocateAlignedRegionEmm
node:_ZN2v84base15RegionAllocator5MergeESt23_Rb_tree_const_iteratorIPNS1_6RegionEES5_
node:_ZN2v84base15RegionAllocator5SplitEPNS1_6RegionEm
node:_ZN2v84base15RegionAllocator6IsFreeEmm
node:_ZN2v84base15RegionAllocatorC1Emmm
node:_ZN2v84base15RegionAllocatorC2Emmm
node:_ZN2v84base15RegionAllocatorD1Ev
node:_ZN2v84base15RegionAllocatorD2Ev
node:_ZN2v84base15VLQBase64DecodeEPKcmPm
node:_ZN2v84base16PowersOfTenCache19kMaxDecimalExponentE
node:_ZN2v84base16PowersOfTenCache19kMinDecimalExponentE
node:_ZN2v84base16PowersOfTenCache24kDecimalExponentDistanceE
node:_ZN2v84base16PowersOfTenCache32GetCachedPowerForDecimalExponentEiPNS0_5DiyFpEPi
node:_ZN2v84base16PowersOfTenCache36GetCachedPowerForBinaryExponentRangeEiiPNS0_5DiyFpEPi
node:_ZN2v84base17ConditionVariable4WaitEPNS0_5MutexE
node:_ZN2v84base17ConditionVariable7WaitForEPNS0_5MutexERKNS0_9TimeDeltaE
node:_ZN2v84base17ConditionVariable9NotifyAllEv
node:_ZN2v84base17ConditionVariable9NotifyOneEv
node:_ZN2v84base17ConditionVariableC1Ev
node:_ZN2v84base17ConditionVariableC2Ev
node:_ZN2v84base17ConditionVariableD1Ev
node:_ZN2v84base17ConditionVariableD2Ev
node:_ZN2v84base17PrintCheckOperandIPKaEENSt9enable_ifIXaaaantsrSt11is_functionINSt14remove_pointerIT_E4typeEE5valuentsrSt7is_enumIS7_E5valuesrNS0_19has_output_operatorIS7_NS0_18CheckMessageStreamEvEE5valueENSt7__cxx1112basic_stringIcSt11char_traitsIcESaIcEEEE4typeES7_
node:_ZN2v84base17PrintCheckOperandIPKcEENSt9enable_ifIXaaaantsrSt11is_functionINSt14remove_pointerIT_E4typeEE5valuentsrSt7is_enumIS7_E5valuesrNS0_19has_output_operatorIS7_NS0_18CheckMessageStreamEvEE5valueENSt7__cxx1112basic_stringIcSt11char_traitsIcESaIcEEEE4typeES7_
node:_ZN2v84base17PrintCheckOperandIPKhEENSt9enable_ifIXaaaantsrSt11is_functionINSt14remove_pointerIT_E4typeEE5valuentsrSt7is_enumIS7_E5valuesrNS0_19has_output_operatorIS7_NS0_18CheckMessageStreamEvEE5valueENSt7__cxx1112basic_stringIcSt11char_traitsIcESaIcEEEE4typeES7_
node:_ZN2v84base17PrintCheckOperandIPaEENSt9enable_ifIXaaaantsrSt11is_functionINSt14remove_pointerIT_E4typeEE5valuentsrSt7is_enumIS6_E5valuesrNS0_19has_output_operatorIS6_NS0_18CheckMessageStreamEvEE5valueENSt7__cxx1112basic_stringIcSt11char_traitsIcESaIcEEEE4typeES6_
node:_ZN2v84base17PrintCheckOperandIPcEENSt9enable_ifIXaaaantsrSt11is_functionINSt14remove_pointerIT_E4typeEE5valuentsrSt7is_enumIS6_E5valuesrNS0_19has_output_operatorIS6_NS0_18CheckMessageStreamEvEE5valueENSt7__cxx1112basic_stringIcSt11char_traitsIcESaIcEEEE4typeES6_
node:_ZN2v84base17PrintCheckOperandIPhEENSt9enable_ifIXaaaantsrSt11is_functionINSt14remove_pointerIT_E4typeEE5valuentsrSt7is_enumIS6_E5valuesrNS0_19has_output_operatorIS6_NS0_18CheckMessageStreamEvEE5valueENSt7__cxx1112basic_stringIcSt11char_traitsIcESaIcEEEE4typeES6_
node:_ZN2v84base17PrintCheckOperandIaEENSt9enable_ifIXaaaantsrSt11is_functionINSt14remove_pointerIT_E4typeEE5valuentsrSt7is_enumIS5_E5valuesrNS0_19has_output_operatorIS5_NS0_18CheckMessageStreamEvEE5valueENSt7__cxx1112basic_stringIcSt11char_traitsIcESaIcEEEE4typeES5_
node:_ZN2v84base17PrintCheckOperandIcEENSt9enable_ifIXaaaantsrSt11is_functionINSt14remove_pointerIT_E4typeEE5valuentsrSt7is_enumIS5_E5valuesrNS0_19has_output_operatorIS5_NS0_18CheckMessageStreamEvEE5valueENSt7__cxx1112basic_stringIcSt11char_traitsIcESaIcEEEE4typeES5_
node:_ZN2v84base17PrintCheckOperandIhEENSt9enable_ifIXaaaantsrSt11is_functionINSt14remove_pointerIT_E4typeEE5valuentsrSt7is_enumIS5_E5valuesrNS0_19has_output_operatorIS5_NS0_18CheckMessageStreamEvEE5valueENSt7__cxx1112basic_stringIcSt11char_traitsIcESaIcEEEE4typeES5_
node:_ZN2v84base17SetDcheckFunctionEPFvPKciS2_E
node:_ZN2v84base18PosixTimezoneCache21DaylightSavingsOffsetEd
node:_ZN2v84base18SetPrintStackTraceEPFvvE
node:_ZN2v84base19MemoryProtectionKey11AllocateKeyEv
node:_ZN2v84base19MemoryProtectionKey16GetKeyPermissionEi
node:_ZN2v84base19MemoryProtectionKey20SetPermissionsAndKeyEPNS_13PageAllocatorENS0_13AddressRegionENS2_10PermissionEi
node:_ZN2v84base19MemoryProtectionKey20SetPermissionsForKeyEiNS1_10PermissionE
node:_ZN2v84base19MemoryProtectionKey36InitializeMemoryProtectionKeySupportEv
node:_ZN2v84base19MemoryProtectionKey7FreeKeyEi
node:_ZN2v84base19VirtualAddressSpace12FreeSubspaceEPNS0_22VirtualAddressSubspaceE
node:_ZN2v84base19VirtualAddressSpace13AllocatePagesEmmmNS_15PagePermissionsE
node:_ZN2v84base19VirtualAddressSpace13DecommitPagesEmm
node:_ZN2v84base19VirtualAddressSpace13RecommitPagesEmmNS_15PagePermissionsE
node:_ZN2v84base19VirtualAddressSpace13SetRandomSeedEl
node:_ZN2v84base19VirtualAddressSpace15FreeGuardRegionEmm
node:_ZN2v84base19VirtualAddressSpace15FreeSharedPagesEmm
node:_ZN2v84base19VirtualAddressSpace16AllocateSubspaceEmmmNS_15PagePermissionsE
node:_ZN2v84base19VirtualAddressSpace17RandomPageAddressEv
node:_ZN2v84base19VirtualAddressSpace18DiscardSystemPagesEmm
node:_ZN2v84base19VirtualAddressSpace18SetPagePermissionsEmmNS_15PagePermissionsE
node:_ZN2v84base19VirtualAddressSpace19AllocateGuardRegionEmm
node:_ZN2v84base19VirtualAddressSpace19AllocateSharedPagesEmmNS_15PagePermissionsElm
node:_ZN2v84base19VirtualAddressSpace20CanAllocateSubspacesEv
node:_ZN2v84base19VirtualAddressSpace9FreePagesEmm
node:_ZN2v84base19VirtualAddressSpaceC1Ev
node:_ZN2v84base19VirtualAddressSpaceC2Ev
node:_ZN2v84base20BoundedPageAllocator12ReleasePagesEPvmm
node:_ZN2v84base20BoundedPageAllocator13AllocatePagesEPvmmNS_13PageAllocator10PermissionE
node:_ZN2v84base20BoundedPageAllocator13DecommitPagesEPvm
node:_ZN2v84base20BoundedPageAllocator13RecommitPagesEPvmNS_13PageAllocator10PermissionE
node:_ZN2v84base20BoundedPageAllocator14SetPermissionsEPvmNS_13PageAllocator10PermissionE
node:_ZN2v84base20BoundedPageAllocator15AllocatePagesAtEmmNS_13PageAllocator10PermissionE
node:_ZN2v84base20BoundedPageAllocator18DiscardSystemPagesEPvm
node:_ZN2v84base20BoundedPageAllocator29ReserveForSharedMemoryMappingEPvm
node:_ZN2v84base20BoundedPageAllocator9FreePagesEPvm
node:_ZN2v84base20BoundedPageAllocatorC1EPNS_13PageAllocatorEmmmNS0_22PageInitializationModeENS0_15PageFreeingModeE
node:_ZN2v84base20BoundedPageAllocatorC2EPNS_13PageAllocatorEmmmNS0_22PageInitializationModeENS0_15PageFreeingModeE
node:_ZN2v84base21PosixInitializeCommonEbPKc
node:_ZN2v84base21PosixMemoryMappedFileD0Ev
node:_ZN2v84base21PosixMemoryMappedFileD1Ev
node:_ZN2v84base21PosixMemoryMappedFileD2Ev
node:_ZN2v84base21RandomNumberGenerator10NextDoubleEv
node:_ZN2v84base21RandomNumberGenerator10NextSampleEmm
node:_ZN2v84base21RandomNumberGenerator11MurmurHash3Em
node:_ZN2v84base21RandomNumberGenerator14NextSampleSlowEmmRKSt13unordered_setImSt4hashImESt8equal_toImESaImEE
node:_ZN2v84base21RandomNumberGenerator16SetEntropySourceEPFbPhmE
node:_ZN2v84base21RandomNumberGenerator4NextEi
node:_ZN2v84base21RandomNumberGenerator7NextIntEi
node:_ZN2v84base21RandomNumberGenerator7SetSeedEl
node:_ZN2v84base21RandomNumberGenerator9NextBytesEPvm
node:_ZN2v84base21RandomNumberGenerator9NextInt64Ev
node:_ZN2v84base21RandomNumberGeneratorC1Ev
node:_ZN2v84base21RandomNumberGeneratorC2Ev
node:_ZN2v84base22VirtualAddressSubspace12FreeSubspaceEPS1_
node:_ZN2v84base22VirtualAddressSubspace13AllocatePagesEmmmNS_15PagePermissionsE
node:_ZN2v84base22VirtualAddressSubspace13DecommitPagesEmm
node:_ZN2v84base22VirtualAddressSubspace13RecommitPagesEmmNS_15PagePermissionsE
node:_ZN2v84base22VirtualAddressSubspace13SetRandomSeedEl
node:_ZN2v84base22VirtualAddressSubspace15FreeGuardRegionEmm
node:_ZN2v84base22VirtualAddressSubspace15FreeSharedPagesEmm
node:_ZN2v84base22VirtualAddressSubspace16AllocateSubspaceEmmmNS_15PagePermissionsE
node:_ZN2v84base22VirtualAddressSubspace17RandomPageAddressEv
node:_ZN2v84base22VirtualAddressSubspace18DiscardSystemPagesEmm
node:_ZN2v84base22VirtualAddressSubspace18SetPagePermissionsEmmNS_15PagePermissionsE
node:_ZN2v84base22VirtualAddressSubspace19AllocateGuardRegionEmm
node:_ZN2v84base22VirtualAddressSubspace19AllocateSharedPagesEmmNS_15PagePermissionsElm
node:_ZN2v84base22VirtualAddressSubspace9FreePagesEmm
node:_ZN2v84base22VirtualAddressSubspaceC1ENS0_23AddressSpaceReservationEPNS0_23VirtualAddressSpaceBaseENS_15PagePermissionsE
node:_ZN2v84base22VirtualAddressSubspaceC2ENS0_23AddressSpaceReservationEPNS0_23VirtualAddressSpaceBaseENS_15PagePermissionsE
node:_ZN2v84base22VirtualAddressSubspaceD0Ev
node:_ZN2v84base22VirtualAddressSubspaceD1Ev
node:_ZN2v84base22VirtualAddressSubspaceD2Ev
node:_ZN2v84base23AddressSpaceReservation10FreeSharedEPvm
node:_ZN2v84base23AddressSpaceReservation13DecommitPagesEPvm
node:_ZN2v84base23AddressSpaceReservation13RecommitPagesEPvmNS0_2OS16MemoryPermissionE
node:_ZN2v84base23AddressSpaceReservation14AllocateSharedEPvmNS0_2OS16MemoryPermissionElm
node:_ZN2v84base23AddressSpaceReservation14SetPermissionsEPvmNS0_2OS16MemoryPermissionE
node:_ZN2v84base23AddressSpaceReservation18DiscardSystemPagesEPvm
node:_ZN2v84base23AddressSpaceReservation18FreeSubReservationES1_
node:_ZN2v84base23AddressSpaceReservation20CreateSubReservationEPvmNS0_2OS16MemoryPermissionE
node:_ZN2v84base23AddressSpaceReservation4FreeEPvm
node:_ZN2v84base23AddressSpaceReservation8AllocateEPvmNS0_2OS16MemoryPermissionE
node:_ZN2v84base25GetSharedLibraryAddressesEP8_IO_FILE
node:_ZN2v84base25PosixDefaultTimezoneCache13LocalTimezoneEd
node:_ZN2v84base25PosixDefaultTimezoneCache15LocalTimeOffsetEdb
node:_ZN2v84base27charToDigitDecodeForTestingEh
node:_ZN2v84base2OS10DebugBreakEv
node:_ZN2v84base2OS10FreeSharedEPvm
node:_ZN2v84base2OS10InitializeEbPKc
node:_ZN2v84base2OS10PrintErrorEPKcz
node:_ZN2v84base2OS10RemapPagesEPKvmPvNS1_16MemoryPermissionE
node:_ZN2v84base2OS11ExitProcessEi
node:_ZN2v84base2OS11GetUserTimeEPjS2_
node:_ZN2v84base2OS11RemapSharedEPvS2_m
node:_ZN2v84base2OS11VPrintErrorEPKcP13__va_list_tag
node:_ZN2v84base2OS12GetLastErrorEv
node:_ZN2v84base2OS13DecommitPagesEPvm
node:_ZN2v84base2OS13RecommitPagesEPvmNS1_16MemoryPermissionE
node:_ZN2v84base2OS14AllocateSharedEPvmNS1_16MemoryPermissionElm
node:_ZN2v84base2OS14AllocateSharedEmNS1_16MemoryPermissionE
node:_ZN2v84base2OS14CommitPageSizeEv
node:_ZN2v84base2OS14HasLazyCommitsEv
node:_ZN2v84base2OS14SetPermissionsEPvmNS1_16MemoryPermissionE
node:_ZN2v84base2OS15LogFileOpenModeE
node:_ZN2v84base2OS15SetDataReadOnlyEPvm
node:_ZN2v84base2OS16AllocatePageSizeEv
node:_ZN2v84base2OS16MemoryMappedFile4openEPKcNS2_8FileModeE
node:_ZN2v84base2OS16MemoryMappedFile6createEPKcmPv
node:_ZN2v84base2OS17GetGCFakeMMapFileEv
node:_ZN2v84base2OS17GetRandomMmapAddrEv
node:_ZN2v84base2OS17OpenTemporaryFileEv
node:_ZN2v84base2OS17SetRandomMmapSeedEl
node:_ZN2v84base2OS17TimeCurrentMillisEv
node:_ZN2v84base2OS18DirectorySeparatorEv
node:_ZN2v84base2OS18DiscardSystemPagesEPvm
node:_ZN2v84base2OS18GetCurrentThreadIdEv
node:_ZN2v84base2OS18SignalCodeMovingGCEv
node:_ZN2v84base2OS19CreateTimezoneCacheEv
node:_ZN2v84base2OS19GetCurrentProcessIdEv
node:_ZN2v84base2OS20isDirectorySeparatorEc
node:_ZN2v84base2OS22AdjustSchedulingParamsEv
node:_ZN2v84base2OS22CanReserveAddressSpaceEv
node:_ZN2v84base2OS24ActivationFrameAlignmentEv
node:_ZN2v84base2OS25DestroySharedMemoryHandleEl
node:_ZN2v84base2OS25GetFreeMemoryRangesWithinEmmmm
node:_ZN2v84base2OS25GetSharedLibraryAddressesEv
node:_ZN2v84base2OS27FreeAddressSpaceReservationENS0_23AddressSpaceReservationE
node:_ZN2v84base2OS29CreateAddressSpaceReservationEPvmmNS1_16MemoryPermissionE
node:_ZN2v84base2OS34CreateSharedMemoryHandleForTestingEm
node:_ZN2v84base2OS4FreeEPvm
node:_ZN2v84base2OS5AbortEv
node:_ZN2v84base2OS5FOpenEPKcS3_
node:_ZN2v84base2OS5PrintEPKcz
node:_ZN2v84base2OS5SleepENS0_9TimeDeltaE
node:_ZN2v84base2OS6FPrintEP8_IO_FILEPKcz
node:_ZN2v84base2OS6RemoveEPKc
node:_ZN2v84base2OS6VPrintEPKcP13__va_list_tag
node:_ZN2v84base2OS7ReleaseEPvm
node:_ZN2v84base2OS7StrNCpyEPciPKcm
node:_ZN2v84base2OS7VFPrintEP8_IO_FILEPKcP13__va_list_tag
node:_ZN2v84base2OS8AllocateEPvmmNS1_16MemoryPermissionE
node:_ZN2v84base2OS8SNPrintFEPciPKcz
node:_ZN2v84base2OS9VSNPrintFEPciPKcP13__va_list_tag
node:_ZN2v84base33GetProtectionFromMemoryPermissionENS0_2OS16MemoryPermissionE
node:_ZN2v84base3CPUC1Ev
node:_ZN2v84base3CPUC2Ev
node:_ZN2v84base4Time10FromJsTimeEd
node:_ZN2v84base4Time11FromTimevalE7timeval
node:_ZN2v84base4Time12FromTimespecE8timespec
node:_ZN2v84base4Time17NowFromSystemTimeEv
node:_ZN2v84base4Time3NowEv
node:_ZN2v84base4bits11SignedDiv32Eii
node:_ZN2v84base4bits11SignedDiv64Ell
node:_ZN2v84base4bits11SignedMod32Eii
node:_ZN2v84base4bits11SignedMod64Ell
node:_ZN2v84base4bits15SignedMulHigh32Eii
node:_ZN2v84base4bits15SignedMulHigh64Ell
node:_ZN2v84base4bits17UnsignedMulHigh32Ejj
node:_ZN2v84base4bits17UnsignedMulHigh64Emm
node:_ZN2v84base4bits20SignedSaturatedAdd64Ell
node:_ZN2v84base4bits20SignedSaturatedSub64Ell
node:_ZN2v84base4bits21RoundUpToPowerOfTwo32Ej
node:_ZN2v84base4bits21RoundUpToPowerOfTwo64Em
node:_ZN2v84base4bits21SignedMulHighAndAdd32Eiii
node:_ZN2v84base5DiyFp8MultiplyERKS1_
node:_ZN2v84base5Mutex4LockEv
node:_ZN2v84base5Mutex6UnlockEv
node:_ZN2v84base5Mutex7TryLockEv
node:_ZN2v84base5MutexC1Ev
node:_ZN2v84base5MutexC2Ev
node:_ZN2v84base5MutexD1Ev
node:_ZN2v84base5MutexD2Ev
node:_ZN2v84base5Stack13GetStackStartEv
node:_ZN2v84base5Stack23GetCurrentStackPositionEv
node:_ZN2v84base5Stack29ObtainCurrentThreadStackStartEv
node:_ZN2v84base5debug10StackTraceC1EPKPKvm
node:_ZN2v84base5debug10StackTraceC1Ev
node:_ZN2v84base5debug10StackTraceC2EPKPKvm
node:_ZN2v84base5debug10StackTraceC2Ev
node:_ZN2v84base5debug10StackTraceD1Ev
node:_ZN2v84base5debug10StackTraceD2Ev
node:_ZN2v84base5debug22DisableSignalStackDumpEv
node:_ZN2v84base5debug27EnableInProcessStackDumpingEv
node:_ZN2v84base5debug8internal6itoa_rElPcmim
node:_ZN2v84base6Bignum11PlusCompareERKS1_S3_S3_
node:_ZN2v84base6Bignum12AssignBignumERKS1_
node:_ZN2v84base6Bignum12AssignUInt16Et
node:_ZN2v84base6Bignum12AssignUInt64Em
node:_ZN2v84base6Bignum13SubtractTimesERKS1_i
node:_ZN2v84base6Bignum14SubtractBignumERKS1_
node:_ZN2v84base6Bignum15AssignHexStringENS0_6VectorIKcEE
node:_ZN2v84base6Bignum15BigitsShiftLeftEi
node:_ZN2v84base6Bignum16MultiplyByUInt32Ej
node:_ZN2v84base6Bignum16MultiplyByUInt64Em
node:_ZN2v84base6Bignum17AssignPowerUInt16Eti
node:_ZN2v84base6Bignum19AssignDecimalStringENS0_6VectorIKcEE
node:_ZN2v84base6Bignum20MultiplyByPowerOfTenEi
node:_ZN2v84base6Bignum21DivideModuloIntBignumERKS1_
node:_ZN2v84base6Bignum4ZeroEv
node:_ZN2v84base6Bignum5AlignERKS1_
node:_ZN2v84base6Bignum5ClampEv
node:_ZN2v84base6Bignum6SquareEv
node:_ZN2v84base6Bignum7CompareERKS1_S3_
node:_ZN2v84base6Bignum9AddBignumERKS1_
node:_ZN2v84base6Bignum9AddUInt64Em
node:_ZN2v84base6Bignum9ShiftLeftEi
node:_ZN2v84base6BignumC1Ev
node:_ZN2v84base6BignumC2Ev
node:_ZN2v84base6StrtodENS0_6VectorIKcEEi
node:_ZN2v84base6Thread14GetThreadLocalEi
node:_ZN2v84base6Thread14SetThreadLocalEiPv
node:_ZN2v84base6Thread20CreateThreadLocalKeyEv
node:_ZN2v84base6Thread20DeleteThreadLocalKeyEi
node:_ZN2v84base6Thread4JoinEv
node:_ZN2v84base6Thread5StartEv
node:_ZN2v84base6Thread8set_nameEPKc
node:_ZN2v84base6ThreadC1ERKNS1_7OptionsE
node:_ZN2v84base6ThreadC2ERKNS1_7OptionsE
node:_ZN2v84base6ThreadD0Ev
node:_ZN2v84base6ThreadD1Ev
node:_ZN2v84base6ThreadD2Ev
node:_ZN2v84base7StrNCpyENS0_6VectorIcEEPKcm
node:_ZN2v84base7SysInfo15AddressSpaceEndEv
node:_ZN2v84base7SysInfo18NumberOfProcessorsEv
node:_ZN2v84base7SysInfo21AmountOfVirtualMemoryEv
node:_ZN2v84base7SysInfo22AmountOfPhysicalMemoryEv
node:_ZN2v84base7ieee7543cosEd
node:_ZN2v84base7ieee7543expEd
node:_ZN2v84base7ieee7543logEd
node:_ZN2v84base7ieee7543powEdd
node:_ZN2v84base7ieee7543sinEd
node:_ZN2v84base7ieee7543tanEd
node:_ZN2v84base7ieee7544acosEd
node:_ZN2v84base7ieee7544asinEd
node:_ZN2v84base7ieee7544atanEd
node:_ZN2v84base7ieee7544cbrtEd
node:_ZN2v84base7ieee7544coshEd
node:_ZN2v84base7ieee7544log2Ed
node:_ZN2v84base7ieee7544sinhEd
node:_ZN2v84base7ieee7544tanhEd
node:_ZN2v84base7ieee7545acoshEd
node:_ZN2v84base7ieee7545asinhEd
node:_ZN2v84base7ieee7545atan2Edd
node:_ZN2v84base7ieee7545atanhEd
node:_ZN2v84base7ieee7545expm1Ed
node:_ZN2v84base7ieee7545log10Ed
node:_ZN2v84base7ieee7545log1pEd
node:_ZN2v84base8FastDtoaEdNS0_12FastDtoaModeEiNS0_6VectorIcEEPiS4_
node:_ZN2v84base8IsSubsetENS_15PagePermissionsES1_
node:_ZN2v84base8SNPrintFENS0_6VectorIcEEPKcz
node:_ZN2v84base9Semaphore4WaitEv
node:_ZN2v84base9Semaphore6SignalEv
node:_ZN2v84base9Semaphore7WaitForERKNS0_9TimeDeltaE
node:_ZN2v84base9SemaphoreC1Ei
node:_ZN2v84base9SemaphoreC2Ei
node:_ZN2v84base9SemaphoreD1Ev
node:_ZN2v84base9SemaphoreD2Ev
node:_ZN2v84base9TimeDelta12FromTimespecE8timespec
node:_ZN2v84base9TimeTicks16IsHighResolutionEv
node:_ZN2v84base9TimeTicks3NowEv
node:_ZN2v84base9VSNPrintFENS0_6VectorIcEEPKcP13__va_list_tag
node:_ZN2v84baselsERSoRKNS0_4TimeE
node:_ZN2v85Array3NewEPNS_7IsolateEPNS_5LocalINS_5ValueEEEm
node:_ZN2v85Array3NewEPNS_7IsolateEi
node:_ZN2v85Array9CheckCastEPNS_5ValueE
node:_ZN2v85Int329CheckCastEPNS_4DataE
node:_ZN2v85Proxy10GetHandlerEv
node:_ZN2v85Proxy3NewENS_5LocalINS_7ContextEEENS1_INS_6ObjectEEES5_
node:_ZN2v85Proxy6RevokeEv
node:_ZN2v85Proxy9CheckCastEPNS_5ValueE
node:_ZN2v85Proxy9GetTargetEv
node:_ZN2v85Utils16ReportApiFailureEPKcS2_
node:_ZN2v85Utils16ReportOOMFailureEPNS_8internal7IsolateEPKcRKNS_10OOMDetailsE
node:_ZN2v85Value10InstanceOfENS_5LocalINS_7ContextEEENS1_INS_6ObjectEEE
node:_ZN2v85Value6TypeOfEPNS_7IsolateE
node:_ZN2v85Value9CheckCastEPNS_4DataE
node:_ZN2v85debug10GetBuiltinEPNS_7IsolateENS0_7BuiltinE
node:_ZN2v85debug10WasmScript11DisassembleEPNS0_20DisassemblyCollectorEPSt6vectorIiSaIiEE
node:_ZN2v85debug10WasmScript15GetFunctionHashEi
node:_ZN2v85debug10WasmScript4CastEPNS0_6ScriptE
node:_ZN2v85debug11PrepareStepEPNS_7IsolateENS0_10StepActionE
node:_ZN2v85debug12AccessorPair14IsAccessorPairENS_5LocalINS_5ValueEEE
node:_ZN2v85debug12AccessorPair6getterEv
node:_ZN2v85debug12AccessorPair6setterEv
node:_ZN2v85debug12AccessorPair9CheckCastEPNS_5ValueE
node:_ZN2v85debug12GetContextIdENS_5LocalINS_7ContextEEE
node:_ZN2v85debug12GetInspectorEPNS_7IsolateE
node:_ZN2v85debug12QueryObjectsENS_5LocalINS_7ContextEEEPNS0_20QueryObjectPredicateEPSt6vectorINS_6GlobalINS_6ObjectEEESaIS9_EE
node:_ZN2v85debug12SetContextIdENS_5LocalINS_7ContextEEEi
node:_ZN2v85debug12SetInspectorEPNS_7IsolateEPN12v8_inspector11V8InspectorE
node:_ZN2v85debug13BreakRightNowEPNS_7IsolateENS_4base7EnumSetINS0_11BreakReasonEiEE
node:_ZN2v85debug13ClearSteppingEPNS_7IsolateE
node:_ZN2v85debug13ScopeIterator17CreateForFunctionEPNS_7IsolateENS_5LocalINS_8FunctionEEE
node:_ZN2v85debug13ScopeIterator24CreateForGeneratorObjectEPNS_7IsolateENS_5LocalINS_6ObjectEEE
node:_ZN2v85debug14CallFunctionOnENS_5LocalINS_7ContextEEENS1_INS_8FunctionEEENS1_INS_5ValueEEEiPS7_b
node:_ZN2v85debug14EphemeronTable3GetEPNS_7IsolateENS_5LocalINS_5ValueEEE
node:_ZN2v85debug14EphemeronTable3NewEPNS_7IsolateE
node:_ZN2v85debug14EphemeronTable3SetEPNS_7IsolateENS_5LocalINS_5ValueEEES6_
node:_ZN2v85debug14EvaluateGlobalEPNS_7IsolateENS_5LocalINS_6StringEEENS0_18EvaluateGlobalModeEb
node:_ZN2v85debug14GetDebuggingIdENS_5LocalINS_8FunctionEEE
node:_ZN2v85debug14SetReturnValueEPNS_7IsolateENS_5LocalINS_5ValueEEE
node:_ZN2v85debug15CanBreakProgramEPNS_7IsolateE
node:_ZN2v85debug15GeneratorObject11IsSuspendedEv
node:_ZN2v85debug15GeneratorObject17SuspendedLocationEv
node:_ZN2v85debug15GeneratorObject4CastENS_5LocalINS_5ValueEEE
node:_ZN2v85debug15GeneratorObject6ScriptEv
node:_ZN2v85debug15GeneratorObject8FunctionEv
node:_ZN2v85debug15WasmValueObject17IsWasmValueObjectENS_5LocalINS_5ValueEEE
node:_ZN2v85debug15WasmValueObject9CheckCastEPNS_5ValueE
node:_ZN2v85debug16GetLoadedScriptsEPNS_7IsolateERSt6vectorINS_6GlobalINS0_6ScriptEEESaIS6_EE
node:_ZN2v85debug16PropertyIterator6CreateENS_5LocalINS_7ContextEEENS2_INS_6ObjectEEEb
node:_ZN2v85debug16RemoveBreakpointEPNS_7IsolateEi
node:_ZN2v85debug16SetDebugDelegateEPNS_7IsolateEPNS0_13DebugDelegateE
node:_ZN2v85debug17DisableBreakScopeC1EPNS_7IsolateE
node:_ZN2v85debug17DisableBreakScopeC2EPNS_7IsolateE
node:_ZN2v85debug17DisableBreakScopeD1Ev
node:_ZN2v85debug17DisableBreakScopeD2Ev
node:_ZN2v85debug17GetPrivateMembersENS_5LocalINS_7ContextEEENS1_INS_6ObjectEEEiPSt6vectorINS1_INS_5ValueEEESaIS8_EESB_
node:_ZN2v85debug18EstimatedValueSizeEPNS_7IsolateENS_5LocalINS_5ValueEEE
node:_ZN2v85debug18GetCreationContextENS_5LocalINS_6ObjectEEE
node:_ZN2v85debug18GetCurrentPlatformEv
node:_ZN2v85debug18GetDateDescriptionENS_5LocalINS_4DateEEE
node:_ZN2v85debug18GetNextRandomInt64EPNS_7IsolateE
node:_ZN2v85debug18SetConsoleDelegateEPNS_7IsolateEPNS0_15ConsoleDelegateE
node:_ZN2v85debug18StackTraceIterator6CreateEPNS_7IsolateEi
node:_ZN2v85debug19PrepareRestartFrameEPNS_7IsolateEi
node:_ZN2v85debug20ConsoleCallArgumentsC1EPNS_8internal7IsolateERKNS2_16BuiltinArgumentsE
node:_ZN2v85debug20ConsoleCallArgumentsC1ERKNS_20FunctionCallbackInfoINS_5ValueEEE
node:_ZN2v85debug20ConsoleCallArgumentsC2EPNS_8internal7IsolateERKNS2_16BuiltinArgumentsE
node:_ZN2v85debug20ConsoleCallArgumentsC2ERKNS_20FunctionCallbackInfoINS_5ValueEEE
node:_ZN2v85debug20GetBigIntDescriptionEPNS_7IsolateENS_5LocalINS_6BigIntEEE
node:_ZN2v85debug20GetBigIntStringValueEPNS_7IsolateENS_5LocalINS_6BigIntEEE
node:_ZN2v85debug20SetBreakPointsActiveEPNS_7IsolateEb
node:_ZN2v85debug20SetTerminateOnResumeEPNS_7IsolateE
node:_ZN2v85debug21GetInternalPropertiesEPNS_7IsolateENS_5LocalINS_5ValueEEE
node:_ZN2v85debug21GetMessageFromPromiseENS_5LocalINS_7PromiseEEE
node:_ZN2v85debug21SetAsyncEventDelegateEPNS_7IsolateEPNS0_18AsyncEventDelegateE
node:_ZN2v85debug21SetFunctionBreakpointENS_5LocalINS_8FunctionEEENS1_INS_6StringEEEPi
node:_ZN2v85debug22ChangeBreakOnExceptionEPNS_7IsolateENS0_19ExceptionBreakStateE
node:_ZN2v85debug22CompileInspectorScriptEPNS_7IsolateENS_5LocalINS_6StringEEE
node:_ZN2v85debug22ForceGarbageCollectionEPNS_7IsolateEN5cppgc18EmbedderStackStateE
node:_ZN2v85debug22GetFunctionDescriptionENS_5LocalINS_8FunctionEEE
node:_ZN2v85debug23GlobalLexicalScopeNamesENS_5LocalINS_7ContextEEEPSt6vectorINS_6GlobalINS_6StringEEESaIS7_EE
node:_ZN2v85debug23PostponeInterruptsScopeC1EPNS_7IsolateE
node:_ZN2v85debug23PostponeInterruptsScopeC2EPNS_7IsolateE
node:_ZN2v85debug23PostponeInterruptsScopeD1Ev
node:_ZN2v85debug23PostponeInterruptsScopeD2Ev
node:_ZN2v85debug24EnterDebuggingForIsolateEPNS_7IsolateE
node:_ZN2v85debug24EvaluateGlobalForTestingEPNS_7IsolateENS_5LocalINS_6ScriptEEENS0_18EvaluateGlobalModeEb
node:_ZN2v85debug24LeaveDebuggingForIsolateEPNS_7IsolateE
node:_ZN2v85debug25ResetBlackboxedStateCacheEPNS_7IsolateENS_5LocalINS0_6ScriptEEE
node:_ZN2v85debug26CreateMessageFromExceptionEPNS_7IsolateENS_5LocalINS_5ValueEEE
node:_ZN2v85debug26SetBreakOnNextFunctionCallEPNS_7IsolateE
node:_ZN2v85debug28ClearBreakOnNextFunctionCallEPNS_7IsolateE
node:_ZN2v85debug29NotifyDebuggerPausedEventSentEPNS_7IsolateE
node:_ZN2v85debug37RecordAsyncStackTaggingCreateTaskCallEPNS_7IsolateE
node:_ZN2v85debug6Script20RemoveWasmBreakpointEi
node:_ZN2v85debug8Coverage10ScriptDataC1EmSt10shared_ptrINS_8internal8CoverageEE
node:_ZN2v85debug8Coverage10ScriptDataC2EmSt10shared_ptrINS_8internal8CoverageEE
node:_ZN2v85debug8Coverage10SelectModeEPNS_7IsolateENS0_12CoverageModeE
node:_ZN2v85debug8Coverage14CollectPreciseEPNS_7IsolateE
node:_ZN2v85debug8Coverage17CollectBestEffortEPNS_7IsolateE
node:_ZN2v85debug8LocationC1Eii
node:_ZN2v85debug8LocationC1Ev
node:_ZN2v85debug8LocationC2Eii
node:_ZN2v85debug8LocationC2Ev
node:_ZN2v86BigInt12NewFromWordsENS_5LocalINS_7ContextEEEiiPKm
node:_ZN2v86BigInt15NewFromUnsignedEPNS_7IsolateEm
node:_ZN2v86BigInt3NewEPNS_7IsolateEl
node:_ZN2v86BigInt9CheckCastEPNS_4DataE
node:_ZN2v86Locker10InitializeEPNS_7IsolateE
node:_ZN2v86Locker8IsLockedEPNS_7IsolateE
node:_ZN2v86LockerD1Ev
node:_ZN2v86LockerD2Ev
node:_ZN2v86Module17InstantiateModuleENS_5LocalINS_7ContextEEEPFNS_10MaybeLocalIS0_EES3_NS1_INS_6StringEEENS1_INS_10FixedArrayEEENS1_IS0_EEE
node:_ZN2v86Module18GetModuleNamespaceEv
node:_ZN2v86Module21CreateSyntheticModuleEPNS_7IsolateENS_5LocalINS_6StringEEERKSt6vectorIS5_SaIS5_EEPFNS_10MaybeLocalINS_5ValueEEENS3_INS_7ContextEEENS3_IS0_EEE
node:_ZN2v86Module22GetUnboundModuleScriptEv
node:_ZN2v86Module24SetSyntheticModuleExportEPNS_7IsolateENS_5LocalINS_6StringEEENS3_INS_5ValueEEE
node:_ZN2v86Module30GetStalledTopLevelAwaitMessageEPNS_7IsolateE
node:_ZN2v86Module8EvaluateENS_5LocalINS_7ContextEEE
node:_ZN2v86Module9CheckCastEPNS_4DataE
node:_ZN2v86Number3NewEPNS_7IsolateEd
node:_ZN2v86Number9CheckCastEPNS_4DataE
node:_ZN2v86Object10GetIsolateEv
node:_ZN2v86Object10GetPrivateENS_5LocalINS_7ContextEEENS1_INS_7PrivateEEE
node:_ZN2v86Object10HasPrivateENS_5LocalINS_7ContextEEENS1_INS_7PrivateEEE
node:_ZN2v86Object10SetPrivateENS_5LocalINS_7ContextEEENS1_INS_7PrivateEEENS1_INS_5ValueEEE
node:_ZN2v86Object11SetAccessorENS_5LocalINS_7ContextEEENS1_INS_4NameEEEPFvS5_RKNS_20PropertyCallbackInfoINS_5ValueEEEEPFvS5_NS1_IS7_EERKNS6_IvEEENS_10MaybeLocalIS7_EENS_13AccessControlENS_17PropertyAttributeENS_14SideEffectTypeESN_
node:_ZN2v86Object12GetPrototypeEv
node:_ZN2v86Object12SetPrototypeENS_5LocalINS_7ContextEEENS1_INS_5ValueEEE
node:_ZN2v86Object13DeletePrivateENS_5LocalINS_7ContextEEENS1_INS_7PrivateEEE
node:_ZN2v86Object14CallAsFunctionENS_5LocalINS_7ContextEEENS1_INS_5ValueEEEiPS5_
node:_ZN2v86Object14DefinePropertyENS_5LocalINS_7ContextEEENS1_INS_4NameEEERNS_18PropertyDescriptorE
node:_ZN2v86Object14HasOwnPropertyENS_5LocalINS_7ContextEEENS1_INS_4NameEEE
node:_ZN2v86Object14HasOwnPropertyENS_5LocalINS_7ContextEEEj
node:_ZN2v86Object14PreviewEntriesEPb
node:_ZN2v86Object15GetIdentityHashEv
node:_ZN2v86Object16GetPropertyNamesENS_5LocalINS_7ContextEEE
node:_ZN2v86Object16GetPropertyNamesENS_5LocalINS_7ContextEEENS_17KeyCollectionModeENS_14PropertyFilterENS_11IndexFilterENS_17KeyConversionModeE
node:_ZN2v86Object16SetInternalFieldEiNS_5LocalINS_5ValueEEE
node:_ZN2v86Object17CallAsConstructorENS_5LocalINS_7ContextEEEiPNS1_INS_5ValueEEE
node:_ZN2v86Object17DefineOwnPropertyENS_5LocalINS_7ContextEEENS1_INS_4NameEEENS1_INS_5ValueEEENS_17PropertyAttributeE
node:_ZN2v86Object17SetIntegrityLevelENS_5LocalINS_7ContextEEENS_14IntegrityLevelE
node:_ZN2v86Object18CreateDataPropertyENS_5LocalINS_7ContextEEENS1_INS_4NameEEENS1_INS_5ValueEEE
node:_ZN2v86Object18CreateDataPropertyENS_5LocalINS_7ContextEEEjNS1_INS_5ValueEEE
node:_ZN2v86Object18GetConstructorNameEv
node:_ZN2v86Object18GetCreationContextEv
node:_ZN2v86Object19GetOwnPropertyNamesENS_5LocalINS_7ContextEEE
node:_ZN2v86Object19GetOwnPropertyNamesENS_5LocalINS_7ContextEEENS_14PropertyFilterENS_17KeyConversionModeE
node:_ZN2v86Object19ObjectProtoToStringENS_5LocalINS_7ContextEEE
node:_ZN2v86Object19SetAccessorPropertyENS_5LocalINS_4NameEEENS1_INS_8FunctionEEES5_NS_17PropertyAttributeENS_13AccessControlE
node:_ZN2v86Object19SetLazyDataPropertyENS_5LocalINS_7ContextEEENS1_INS_4NameEEEPFvS5_RKNS_20PropertyCallbackInfoINS_5ValueEEEENS1_IS7_EENS_17PropertyAttributeENS_14SideEffectTypeESF_
node:_ZN2v86Object20GetRealNamedPropertyENS_5LocalINS_7ContextEEENS1_INS_4NameEEE
node:_ZN2v86Object20HasRealNamedPropertyENS_5LocalINS_7ContextEEENS1_INS_4NameEEE
node:_ZN2v86Object20SlowGetInternalFieldEi
node:_ZN2v86Object21GetPropertyAttributesENS_5LocalINS_7ContextEEENS1_INS_5ValueEEE
node:_ZN2v86Object21SetNativeDataPropertyENS_5LocalINS_7ContextEEENS1_INS_4NameEEEPFvS5_RKNS_20PropertyCallbackInfoINS_5ValueEEEEPFvS5_NS1_IS7_EERKNS6_IvEEESD_NS_17PropertyAttributeENS_14SideEffectTypeESK_
node:_ZN2v86Object22HasRealIndexedPropertyENS_5LocalINS_7ContextEEEj
node:_ZN2v86Object24GetOwnPropertyDescriptorENS_5LocalINS_7ContextEEENS1_INS_4NameEEE
node:_ZN2v86Object25GetCreationContextCheckedEv
node:_ZN2v86Object27SetInternalFieldForNodeCoreEiNS_5LocalINS_13UnboundScriptEEE
node:_ZN2v86Object27SetInternalFieldForNodeCoreEiNS_5LocalINS_6ModuleEEE
node:_ZN2v86Object28FindInstanceInPrototypeChainENS_5LocalINS_16FunctionTemplateEEE
node:_ZN2v86Object28HasRealNamedCallbackPropertyENS_5LocalINS_7ContextEEENS1_INS_4NameEEE
node:_ZN2v86Object30GetRealNamedPropertyAttributesENS_5LocalINS_7ContextEEENS1_INS_4NameEEE
node:_ZN2v86Object32SetAlignedPointerInInternalFieldEiPv
node:_ZN2v86Object33SetAlignedPointerInInternalFieldsEiPiPPv
node:_ZN2v86Object36GetRealNamedPropertyInPrototypeChainENS_5LocalINS_7ContextEEENS1_INS_4NameEEE
node:_ZN2v86Object38SlowGetAlignedPointerFromInternalFieldEi
node:_ZN2v86Object3GetENS_5LocalINS_7ContextEEENS1_INS_5ValueEEE
node:_ZN2v86Object3GetENS_5LocalINS_7ContextEEEj
node:_ZN2v86Object3HasENS_5LocalINS_7ContextEEENS1_INS_5ValueEEE
node:_ZN2v86Object3HasENS_5LocalINS_7ContextEEEj
node:_ZN2v86Object3NewEPNS_7IsolateE
node:_ZN2v86Object3NewEPNS_7IsolateENS_5LocalINS_5ValueEEEPNS3_INS_4NameEEEPS5_m
node:_ZN2v86Object3SetENS_5LocalINS_7ContextEEENS1_INS_5ValueEEES5_
node:_ZN2v86Object3SetENS_5LocalINS_7ContextEEEjNS1_INS_5ValueEEE
node:_ZN2v86Object46GetRealNamedPropertyAttributesInPrototypeChainENS_5LocalINS_7ContextEEENS1_INS_4NameEEE
node:_ZN2v86Object50GetAlignedPointerFromEmbedderDataInCreationContextEi
node:_ZN2v86Object5CloneEv
node:_ZN2v86Object6DeleteENS_5LocalINS_7ContextEEENS1_INS_5ValueEEE
node:_ZN2v86Object6DeleteENS_5LocalINS_7ContextEEEj
node:_ZN2v86Object9CheckCastEPNS_5ValueE
node:_ZN2v86RegExp21NewWithBacktrackLimitENS_5LocalINS_7ContextEEENS1_INS_6StringEEENS0_5FlagsEj
node:_ZN2v86RegExp3NewENS_5LocalINS_7ContextEEENS1_INS_6StringEEENS0_5FlagsE
node:_ZN2v86RegExp4ExecENS_5LocalINS_7ContextEEENS1_INS_6StringEEE
node:_ZN2v86RegExp9CheckCastEPNS_5ValueE
node:_ZN2v86Script15GetResourceNameEv
node:_ZN2v86Script16GetUnboundScriptEv
node:_ZN2v86Script3RunENS_5LocalINS_7ContextEEE
node:_ZN2v86Script3RunENS_5LocalINS_7ContextEEENS1_INS_4DataEEE
node:_ZN2v86Script7CompileENS_5LocalINS_7ContextEEENS1_INS_6StringEEEPNS_12ScriptOriginE
node:_ZN2v86String11NewFromUtf8EPNS_7IsolateEPKcNS_13NewStringTypeEi
node:_ZN2v86String12MakeExternalEPNS0_22ExternalStringResourceE
node:_ZN2v86String12MakeExternalEPNS0_29ExternalOneByteStringResourceE
node:_ZN2v86String14NewFromOneByteEPNS_7IsolateEPKhNS_13NewStringTypeEi
node:_ZN2v86String14NewFromTwoByteEPNS_7IsolateEPKtNS_13NewStringTypeEi
node:_ZN2v86String18NewExternalOneByteEPNS_7IsolateEPNS0_29ExternalOneByteStringResourceE
node:_ZN2v86String18NewExternalTwoByteEPNS_7IsolateEPNS0_22ExternalStringResourceE
node:_ZN2v86String18NewFromUtf8LiteralEPNS_7IsolateEPKcNS_13NewStringTypeEi
node:_ZN2v86String22ExternalStringResource15UpdateDataCacheEv
node:_ZN2v86String29ExternalOneByteStringResource15UpdateDataCacheEv
node:_ZN2v86String5ValueC1EPNS_7IsolateENS_5LocalINS_5ValueEEE
node:_ZN2v86String5ValueC2EPNS_7IsolateENS_5LocalINS_5ValueEEE
node:_ZN2v86String5ValueD1Ev
node:_ZN2v86String5ValueD2Ev
node:_ZN2v86String6ConcatEPNS_7IsolateENS_5LocalIS0_EES4_
node:_ZN2v86String9CheckCastEPNS_4DataE
node:_ZN2v86String9Utf8ValueC1EPNS_7IsolateENS_5LocalINS_5ValueEEE
node:_ZN2v86String9Utf8ValueC2EPNS_7IsolateENS_5LocalINS_5ValueEEE
node:_ZN2v86String9Utf8ValueD1Ev
node:_ZN2v86String9Utf8ValueD2Ev
node:_ZN2v86Symbol10GetReplaceEPNS_7IsolateE
node:_ZN2v86Symbol11GetIteratorEPNS_7IsolateE
node:_ZN2v86Symbol14GetHasInstanceEPNS_7IsolateE
node:_ZN2v86Symbol14GetToPrimitiveEPNS_7IsolateE
node:_ZN2v86Symbol14GetToStringTagEPNS_7IsolateE
node:_ZN2v86Symbol14GetUnscopablesEPNS_7IsolateE
node:_ZN2v86Symbol16GetAsyncIteratorEPNS_7IsolateE
node:_ZN2v86Symbol21GetIsConcatSpreadableEPNS_7IsolateE
node:_ZN2v86Symbol3ForEPNS_7IsolateENS_5LocalINS_6StringEEE
node:_ZN2v86Symbol3NewEPNS_7IsolateENS_5LocalINS_6StringEEE
node:_ZN2v86Symbol6ForApiEPNS_7IsolateENS_5LocalINS_6StringEEE
node:_ZN2v86Symbol8GetMatchEPNS_7IsolateE
node:_ZN2v86Symbol8GetSplitEPNS_7IsolateE
node:_ZN2v86Symbol9CheckCastEPNS_4DataE
node:_ZN2v86Symbol9GetSearchEPNS_7IsolateE
node:_ZN2v86Uint329CheckCastEPNS_4DataE
node:_ZN2v86bigint10RightShiftENS0_8RWDigitsENS0_6DigitsEi
node:_ZN2v86bigint10RightShiftENS0_8RWDigitsENS0_6DigitsEmRKNS0_15RightShiftStateE
node:_ZN2v86bigint11AsUintN_NegENS0_8RWDigitsENS0_6DigitsEi
node:_ZN2v86bigint11AsUintN_PosENS0_8RWDigitsENS0_6DigitsEi
node:_ZN2v86bigint11SubtractOneENS0_8RWDigitsENS0_6DigitsE
node:_ZN2v86bigint13ProcessorImpl10FromStringENS0_8RWDigitsEPNS0_21FromStringAccumulatorE
node:_ZN2v86bigint13ProcessorImpl11MultiplyFFTENS0_8RWDigitsENS0_6DigitsES3_
node:_ZN2v86bigint13ProcessorImpl12DivideSingleENS0_8RWDigitsEPmNS0_6DigitsEm
node:_ZN2v86bigint13ProcessorImpl12InvertNewtonENS0_8RWDigitsENS0_6DigitsES2_
node:_ZN2v86bigint13ProcessorImpl12ToStringImplEPcPiNS0_6DigitsEibb
node:_ZN2v86bigint13ProcessorImpl13DivideBarrettENS0_8RWDigitsES2_NS0_6DigitsES3_
node:_ZN2v86bigint13ProcessorImpl13DivideBarrettENS0_8RWDigitsES2_NS0_6DigitsES3_S3_S2_
node:_ZN2v86bigint13ProcessorImpl13KaratsubaMainENS0_8RWDigitsENS0_6DigitsES3_S2_i
node:_ZN2v86bigint13ProcessorImpl14InvertBasecaseENS0_8RWDigitsENS0_6DigitsES2_
node:_ZN2v86bigint13ProcessorImpl14KaratsubaChunkENS0_8RWDigitsENS0_6DigitsES3_S2_
node:_ZN2v86bigint13ProcessorImpl14KaratsubaStartENS0_8RWDigitsENS0_6DigitsES3_S2_i
node:_ZN2v86bigint13ProcessorImpl14MultiplySingleENS0_8RWDigitsENS0_6DigitsEm
node:_ZN2v86bigint13ProcessorImpl15FromStringLargeENS0_8RWDigitsEPNS0_21FromStringAccumulatorE
node:_ZN2v86bigint13ProcessorImpl16DivideSchoolbookENS0_8RWDigitsES2_NS0_6DigitsES3_
node:_ZN2v86bigint13ProcessorImpl16MultiplyToomCookENS0_8RWDigitsENS0_6DigitsES3_
node:_ZN2v86bigint13ProcessorImpl17FromStringClassicENS0_8RWDigitsEPNS0_21FromStringAccumulatorE
node:_ZN2v86bigint13ProcessorImpl17MultiplyKaratsubaENS0_8RWDigitsENS0_6DigitsES3_
node:_ZN2v86bigint13ProcessorImpl18MultiplySchoolbookENS0_8RWDigitsENS0_6DigitsES3_
node:_ZN2v86bigint13ProcessorImpl20get_and_clear_statusEv
node:_ZN2v86bigint13ProcessorImpl21DivideBurnikelZieglerENS0_8RWDigitsES2_NS0_6DigitsES3_
node:_ZN2v86bigint13ProcessorImpl24FromStringBasePowerOfTwoENS0_8RWDigitsEPNS0_21FromStringAccumulatorE
node:_ZN2v86bigint13ProcessorImpl6DivideENS0_8RWDigitsENS0_6DigitsES3_
node:_ZN2v86bigint13ProcessorImpl6InvertENS0_8RWDigitsENS0_6DigitsES2_
node:_ZN2v86bigint13ProcessorImpl6ModuloENS0_8RWDigitsENS0_6DigitsES3_
node:_ZN2v86bigint13ProcessorImpl8MultiplyENS0_8RWDigitsENS0_6DigitsES3_
node:_ZN2v86bigint13ProcessorImpl8ToStringEPcPiNS0_6DigitsEib
node:_ZN2v86bigint13ProcessorImpl9Toom3MainENS0_8RWDigitsENS0_6DigitsES3_
node:_ZN2v86bigint13ProcessorImplC1EPNS0_8PlatformE
node:_ZN2v86bigint13ProcessorImplC2EPNS0_8PlatformE
node:_ZN2v86bigint13ProcessorImplD1Ev
node:_ZN2v86bigint13ProcessorImplD2Ev
node:_ZN2v86bigint14SubtractSignedENS0_8RWDigitsENS0_6DigitsEbS2_b
node:_ZN2v86bigint16BitwiseOr_NegNegENS0_8RWDigitsENS0_6DigitsES2_
node:_ZN2v86bigint16BitwiseOr_PosNegENS0_8RWDigitsENS0_6DigitsES2_
node:_ZN2v86bigint16BitwiseOr_PosPosENS0_8RWDigitsENS0_6DigitsES2_
node:_ZN2v86bigint17AddAndReturnCarryENS0_8RWDigitsENS0_6DigitsES2_
node:_ZN2v86bigint17BitwiseAnd_NegNegENS0_8RWDigitsENS0_6DigitsES2_
node:_ZN2v86bigint17BitwiseAnd_PosNegENS0_8RWDigitsENS0_6DigitsES2_
node:_ZN2v86bigint17BitwiseAnd_PosPosENS0_8RWDigitsENS0_6DigitsES2_
node:_ZN2v86bigint17BitwiseXor_NegNegENS0_8RWDigitsENS0_6DigitsES2_
node:_ZN2v86bigint17BitwiseXor_PosNegENS0_8RWDigitsENS0_6DigitsES2_
node:_ZN2v86bigint17BitwiseXor_PosPosENS0_8RWDigitsENS0_6DigitsES2_
node:_ZN2v86bigint18AsIntNResultLengthENS0_6DigitsEbi
node:_ZN2v86bigint18ProductGreaterThanEmmmm
node:_ZN2v86bigint18SubAndReturnBorrowENS0_8RWDigitsENS0_6DigitsE
node:_ZN2v86bigint20AddAndReturnOverflowENS0_8RWDigitsENS0_6DigitsE
node:_ZN2v86bigint20ToStringResultLengthENS0_6DigitsEib
node:_ZN2v86bigint23RightShift_ResultLengthENS0_6DigitsEbmPNS0_15RightShiftStateE
node:_ZN2v86bigint23SubtractAndReturnBorrowENS0_8RWDigitsENS0_6DigitsES2_
node:_ZN2v86bigint24AsUintN_Pos_ResultLengthENS0_6DigitsEi
node:_ZN2v86bigint3AddENS0_8RWDigitsENS0_6DigitsES2_
node:_ZN2v86bigint6AddOneENS0_8RWDigitsENS0_6DigitsE
node:_ZN2v86bigint6AsIntNENS0_8RWDigitsENS0_6DigitsEbi
node:_ZN2v86bigint8SubtractENS0_8RWDigitsENS0_6DigitsES2_
node:_ZN2v86bigint9AddSignedENS0_8RWDigitsENS0_6DigitsEbS2_b
node:_ZN2v86bigint9LeftShiftENS0_8RWDigitsENS0_6DigitsEi
node:_ZN2v86bigint9LeftShiftENS0_8RWDigitsENS0_6DigitsEm
node:_ZN2v86bigint9Processor10FromStringENS0_8RWDigitsEPNS0_21FromStringAccumulatorE
node:_ZN2v86bigint9Processor3NewEPNS0_8PlatformE
node:_ZN2v86bigint9Processor6DivideENS0_8RWDigitsENS0_6DigitsES3_
node:_ZN2v86bigint9Processor6ModuloENS0_8RWDigitsENS0_6DigitsES3_
node:_ZN2v86bigint9Processor7DestroyEv
node:_ZN2v86bigint9Processor8MultiplyENS0_8RWDigitsENS0_6DigitsES3_
node:_ZN2v86bigint9Processor8ToStringEPcPiNS0_6DigitsEib
node:_ZN2v87Boolean9CheckCastEPNS_4DataE
node:_ZN2v87Context10DeepFreezeEPNS0_18DeepFreezeDelegateE
node:_ZN2v87Context10GetIsolateEv
node:_ZN2v87Context12DetachGlobalEv
node:_ZN2v87Context12FromSnapshotEPNS_7IsolateEmNS_33DeserializeInternalFieldsCallbackEPNS_22ExtensionConfigurationENS_10MaybeLocalINS_5ValueEEEPNS_14MicrotaskQueueE
node:_ZN2v87Context15SetEmbedderDataEiNS_5LocalINS_5ValueEEE
node:_ZN2v87Context15SetPromiseHooksENS_5LocalINS_8FunctionEEES3_S3_S3_
node:_ZN2v87Context16GetSecurityTokenEv
node:_ZN2v87Context16NewRemoteContextEPNS_7IsolateENS_5LocalINS_14ObjectTemplateEEENS_10MaybeLocalINS_5ValueEEE
node:_ZN2v87Context16SetSecurityTokenENS_5LocalINS_5ValueEEE
node:_ZN2v87Context17GetMicrotaskQueueEv
node:_ZN2v87Context17SetMicrotaskQueueEPNS_14MicrotaskQueueE
node:_ZN2v87Context19SlowGetEmbedderDataEi
node:_ZN2v87Context20BackupIncumbentScopeC1ENS_5LocalIS0_EE
node:_ZN2v87Context20BackupIncumbentScopeC2ENS_5LocalIS0_EE
node:_ZN2v87Context20BackupIncumbentScopeD1Ev
node:_ZN2v87Context20BackupIncumbentScopeD2Ev
node:_ZN2v87Context22GetExtrasBindingObjectEv
node:_ZN2v87Context23GetDataFromSnapshotOnceEm
node:_ZN2v87Context23SetAbortScriptExecutionEPFvPNS_7IsolateENS_5LocalIS0_EEE
node:_ZN2v87Context23UseDefaultSecurityTokenEv
node:_ZN2v87Context24HasTemplateLiteralObjectENS_5LocalINS_5ValueEEE
node:_ZN2v87Context29GetNumberOfEmbedderDataFieldsEv
node:_ZN2v87Context30AllowCodeGenerationFromStringsEb
node:_ZN2v87Context31SetAlignedPointerInEmbedderDataEiPv
node:_ZN2v87Context36SetContinuationPreservedEmbedderDataENS_5LocalINS_5ValueEEE
node:_ZN2v87Context36SetErrorMessageForWasmCodeGenerationENS_5LocalINS_6StringEEE
node:_ZN2v87Context37SlowGetAlignedPointerFromEmbedderDataEi
node:_ZN2v87Context3NewEPNS_7IsolateEPNS_22ExtensionConfigurationENS_10MaybeLocalINS_14ObjectTemplateEEENS5_INS_5ValueEEENS_33DeserializeInternalFieldsCallbackEPNS_14MicrotaskQueueE
node:_ZN2v87Context43SetErrorMessageForCodeGenerationFromStringsENS_5LocalINS_6StringEEE
node:_ZN2v87Context4ExitEv
node:_ZN2v87Context5EnterEv
node:_ZN2v87Context6GlobalEv
node:_ZN2v87Context9CheckCastEPNS_4DataE
node:_ZN2v87CppHeap13GetHeapHandleEv
node:_ZN2v87CppHeap17CollectStatisticsEN5cppgc14HeapStatistics11DetailLevelE
node:_ZN2v87CppHeap19GetAllocationHandleEv
node:_ZN2v87CppHeap24CollectGarbageForTestingEN5cppgc18EmbedderStackStateE
node:_ZN2v87CppHeap36CollectCustomSpaceStatisticsAtLastGCESt6vectorIN5cppgc16CustomSpaceIndexESaIS3_EESt10unique_ptrINS_29CustomSpaceStatisticsReceiverESt14default_deleteIS7_EE
node:_ZN2v87CppHeap41CollectGarbageInYoungGenerationForTestingEN5cppgc18EmbedderStackStateE
node:_ZN2v87CppHeap42EnableDetachedGarbageCollectionsForTestingEv
node:_ZN2v87CppHeap6CreateEPNS_8PlatformERKNS_19CppHeapCreateParamsE
node:_ZN2v87CppHeap9TerminateEv
node:_ZN2v87Integer15NewFromUnsignedEPNS_7IsolateEj
node:_ZN2v87Integer3NewEPNS_7IsolateEi
node:_ZN2v87Integer9CheckCastEPNS_4DataE
node:_ZN2v87Isolate10GetCurrentEv
node:_ZN2v87Isolate10InitializeEPS0_RKNS0_12CreateParamsE
node:_ZN2v87Isolate10ThrowErrorENS_5LocalINS_6StringEEE
node:_ZN2v87Isolate11SetRAILModeENS_8RAILModeE
node:_ZN2v87Isolate12CreateParamsC1Ev
node:_ZN2v87Isolate12CreateParamsC2Ev
node:_ZN2v87Isolate12CreateParamsD1Ev
node:_ZN2v87Isolate12CreateParamsD2Ev
node:_ZN2v87Isolate12GetCodeRangeEPPvPm
node:_ZN2v87Isolate13AttachCppHeapEPNS_7CppHeapE
node:_ZN2v87Isolate13CopyCodePagesEmPNS_11MemoryRangeE
node:_ZN2v87Isolate13DetachCppHeapEv
node:_ZN2v87Isolate13MeasureMemoryESt10unique_ptrINS_21MeasureMemoryDelegateESt14default_deleteIS2_EENS_22MeasureMemoryExecutionE
node:_ZN2v87Isolate13SetStackLimitEm
node:_ZN2v87Isolate13TryGetCurrentEv
node:_ZN2v87Isolate14GetStackSampleERKNS_13RegisterStateEPPvmPNS_10SampleInfoE
node:_ZN2v87Isolate14SetEventLoggerEPFvPKciE
node:_ZN2v87Isolate14SetPromiseHookEPFvNS_15PromiseHookTypeENS_5LocalINS_7PromiseEEENS2_INS_5ValueEEEE
node:_ZN2v87Isolate14ThrowExceptionENS_5LocalINS_5ValueEEE
node:_ZN2v87Isolate15GetHeapProfilerEv
node:_ZN2v87Isolate15GetJSEntryStubsEv
node:_ZN2v87Isolate16ClearKeptObjectsEv
node:_ZN2v87Isolate16EnqueueMicrotaskENS_5LocalINS_8FunctionEEE
node:_ZN2v87Isolate16EnqueueMicrotaskEPFvPvES1_
node:_ZN2v87Isolate16RequestInterruptEPFvPS0_PvES2_
node:_ZN2v87Isolate17DumpAndResetStatsEv
node:_ZN2v87Isolate17GetCurrentContextEv
node:_ZN2v87Isolate17GetHeapStatisticsEPNS_14HeapStatisticsE
node:_ZN2v87Isolate18AddMessageListenerEPFvNS_5LocalINS_7MessageEEENS1_INS_5ValueEEEES5_
node:_ZN2v87Isolate18NumberOfHeapSpacesEv
node:_ZN2v87Isolate18SetCounterFunctionEPFPiPKcE
node:_ZN2v87Isolate18SetMetricsRecorderERKSt10shared_ptrINS_7metrics8RecorderEE
node:_ZN2v87Isolate18SetOOMErrorHandlerEPFvPKcRKNS_10OOMDetailsEE
node:_ZN2v87Isolate18TerminateExecutionEv
node:_ZN2v87Isolate19GetIncumbentContextEv
node:_ZN2v87Isolate19SetAllowAtomicsWaitEb
node:_ZN2v87Isolate19SetMicrotasksPolicyENS_16MicrotasksPolicyE
node:_ZN2v87Isolate19UpdateLoadStartTimeEv
node:_ZN2v87Isolate20GetEmbeddedCodeRangeEPPKvPm
node:_ZN2v87Isolate20SetFatalErrorHandlerEPFvPKcS2_E
node:_ZN2v87Isolate21AddGCEpilogueCallbackEPFvPS0_NS_6GCTypeENS_15GCCallbackFlagsEES2_
node:_ZN2v87Isolate21AddGCEpilogueCallbackEPFvPS0_NS_6GCTypeENS_15GCCallbackFlagsEPvES4_S2_
node:_ZN2v87Isolate21AddGCPrologueCallbackEPFvPS0_NS_6GCTypeENS_15GCCallbackFlagsEES2_
node:_ZN2v87Isolate21AddGCPrologueCallbackEPFvPS0_NS_6GCTypeENS_15GCCallbackFlagsEPvES4_S2_
node:_ZN2v87Isolate21AtomicsWaitWakeHandle4WakeEv
node:_ZN2v87Isolate21ClearCachesForTestingEv
node:_ZN2v87Isolate21LowMemoryNotificationEv
node:_ZN2v87Isolate21SetUseCounterCallbackEPFvPS0_NS0_17UseCounterFeatureEE
node:_ZN2v87Isolate21SetWasmModuleCallbackEPFbRKNS_20FunctionCallbackInfoINS_5ValueEEEE
node:_ZN2v87Isolate22GetHeapSpaceStatisticsEPNS_19HeapSpaceStatisticsEm
node:_ZN2v87Isolate22IsExecutionTerminatingEv
node:_ZN2v87Isolate22RemoveMessageListenersEPFvNS_5LocalINS_7MessageEEENS1_INS_5ValueEEEE
node:_ZN2v87Isolate22SetAddCrashKeyCallbackEPFvNS_10CrashKeyIdERKNSt7__cxx1112basic_stringIcSt11char_traitsIcESaIcEEEE
node:_ZN2v87Isolate22SetAtomicsWaitCallbackEPFvNS0_16AtomicsWaitEventENS_5LocalINS_17SharedArrayBufferEEEmldPNS0_21AtomicsWaitWakeHandleEPvES7_
node:_ZN2v87Isolate22SetJitCodeEventHandlerENS_19JitCodeEventOptionsEPFvPKNS_12JitCodeEventEE
node:_ZN2v87Isolate22VisitExternalResourcesEPNS_23ExternalResourceVisitorE
node:_ZN2v87Isolate23EnableMemorySavingsModeEv
node:_ZN2v87Isolate23GetArrayBufferAllocatorEv
node:_ZN2v87Isolate23GetDataFromSnapshotOnceEm
node:_ZN2v87Isolate23SafeForTerminationScopeC1EPS0_
node:_ZN2v87Isolate23SafeForTerminationScopeC2EPS0_
node:_ZN2v87Isolate23SafeForTerminationScopeD1Ev
node:_ZN2v87Isolate23SafeForTerminationScopeD2Ev
node:_ZN2v87Isolate23SetEmbedderRootsHandlerEPNS_20EmbedderRootsHandlerE
node:_ZN2v87Isolate23SetWasmInstanceCallbackEPFbRKNS_20FunctionCallbackInfoINS_5ValueEEEE
node:_ZN2v87Isolate24AddCallCompletedCallbackEPFvPS0_E
node:_ZN2v87Isolate24AddNearHeapLimitCallbackEPFmPvmmES1_
node:_ZN2v87Isolate24CancelTerminateExecutionEv
node:_ZN2v87Isolate24DisableMemorySavingsModeEv
node:_ZN2v87Isolate24IdleNotificationDeadlineEd
node:_ZN2v87Isolate24RemoveGCEpilogueCallbackEPFvPS0_NS_6GCTypeENS_15GCCallbackFlagsEE
node:_ZN2v87Isolate24RemoveGCEpilogueCallbackEPFvPS0_NS_6GCTypeENS_15GCCallbackFlagsEPvES4_
node:_ZN2v87Isolate24RemoveGCPrologueCallbackEPFvPS0_NS_6GCTypeENS_15GCCallbackFlagsEE
node:_ZN2v87Isolate24RemoveGCPrologueCallbackEPFvPS0_NS_6GCTypeENS_15GCCallbackFlagsEPvES4_
node:_ZN2v87Isolate24RestoreOriginalHeapLimitEv
node:_ZN2v87Isolate24SetPromiseRejectCallbackEPFvNS_20PromiseRejectMessageEE
node:_ZN2v87Isolate24SetWasmGCEnabledCallbackEPFbNS_5LocalINS_7ContextEEEE
node:_ZN2v87Isolate24SetWasmStreamingCallbackEPFvRKNS_20FunctionCallbackInfoINS_5ValueEEEE
node:_ZN2v87Isolate25HasPendingBackgroundTasksEv
node:_ZN2v87Isolate26InstallConditionalFeaturesENS_5LocalINS_7ContextEEE
node:_ZN2v87Isolate26MemoryPressureNotificationENS_19MemoryPressureLevelE
node:_ZN2v87Isolate26PerformMicrotaskCheckpointEv
node:_ZN2v87Isolate26SetCreateHistogramFunctionEPFPvPKciimE
node:_ZN2v87Isolate26SetWasmSimdEnabledCallbackEPFbNS_5LocalINS_7ContextEEEE
node:_ZN2v87Isolate27ContextDisposedNotificationEb
node:_ZN2v87Isolate27RemoveCallCompletedCallbackEPFvPS0_E
node:_ZN2v87Isolate27RemoveNearHeapLimitCallbackEPFmPvmmEm
node:_ZN2v87Isolate28AddBeforeCallEnteredCallbackEPFvPS0_E
node:_ZN2v87Isolate28GetEnteredOrMicrotaskContextEv
node:_ZN2v87Isolate28SetPrepareStackTraceCallbackEPFNS_10MaybeLocalINS_5ValueEEENS_5LocalINS_7ContextEEENS4_IS2_EENS4_INS_5ArrayEEEE
node:_ZN2v87Isolate28SetWasmLoadSourceMapCallbackEPFNS_5LocalINS_6StringEEEPS0_PKcE
node:_ZN2v87Isolate29AllowJavascriptExecutionScopeC1EPS0_
node:_ZN2v87Isolate29AllowJavascriptExecutionScopeC2EPS0_
node:_ZN2v87Isolate29AllowJavascriptExecutionScopeD1Ev
node:_ZN2v87Isolate29AllowJavascriptExecutionScopeD2Ev
node:_ZN2v87Isolate29DiscardThreadSpecificMetadataEv
node:_ZN2v87Isolate29IncreaseHeapLimitForDebuggingEv
node:_ZN2v87Isolate29SetAddHistogramSampleFunctionEPFvPviE
node:_ZN2v87Isolate30AddMicrotasksCompletedCallbackEPFvPS0_PvES2_
node:_ZN2v87Isolate30NumberOfTrackedHeapObjectTypesEv
node:_ZN2v87Isolate31GetHeapObjectStatisticsAtLastGCEPNS_20HeapObjectStatisticsEm
node:_ZN2v87Isolate31IsolateInBackgroundNotificationEv
node:_ZN2v87Isolate31IsolateInForegroundNotificationEv
node:_ZN2v87Isolate31RemoveBeforeCallEnteredCallbackEPFvPS0_E
node:_ZN2v87Isolate31SuppressMicrotaskExecutionScopeC1EPS0_PNS_14MicrotaskQueueE
node:_ZN2v87Isolate31SuppressMicrotaskExecutionScopeC2EPS0_PNS_14MicrotaskQueueE
node:_ZN2v87Isolate31SuppressMicrotaskExecutionScopeD1Ev
node:_ZN2v87Isolate31SuppressMicrotaskExecutionScopeD2Ev
node:_ZN2v87Isolate32AddMessageListenerWithErrorLevelEPFvNS_5LocalINS_7MessageEEENS1_INS_5ValueEEEEiS5_
node:_ZN2v87Isolate32DisallowJavascriptExecutionScopeC1EPS0_NS1_9OnFailureE
node:_ZN2v87Isolate32DisallowJavascriptExecutionScopeC2EPS0_NS1_9OnFailureE
node:_ZN2v87Isolate32DisallowJavascriptExecutionScopeD1Ev
node:_ZN2v87Isolate32DisallowJavascriptExecutionScopeD2Ev
node:_ZN2v87Isolate32GetHeapCodeAndMetadataStatisticsEPNS_18HeapCodeStatisticsE
node:_ZN2v87Isolate32IsHeapLimitIncreasedForDebuggingEv
node:_ZN2v87Isolate32SetWasmExceptionsEnabledCallbackEPFbNS_5LocalINS_7ContextEEEE
node:_ZN2v87Isolate33RemoveMicrotasksCompletedCallbackEPFvPS0_PvES2_
node:_ZN2v87Isolate34RequestGarbageCollectionForTestingENS0_21GarbageCollectionTypeE
node:_ZN2v87Isolate34RequestGarbageCollectionForTestingENS0_21GarbageCollectionTypeEN5cppgc18EmbedderStackStateE
node:_ZN2v87Isolate34SetAllowWasmCodeGenerationCallbackEPFbNS_5LocalINS_7ContextEEENS1_INS_6StringEEEE
node:_ZN2v87Isolate34SetWasmAsyncResolvePromiseCallbackEPFvPS0_NS_5LocalINS_7ContextEEENS2_INS_7Promise8ResolverEEENS2_INS_5ValueEEENS_16WasmAsyncSuccessEE
node:_ZN2v87Isolate35SetAbortOnUncaughtExceptionCallbackEPFbPS0_E
node:_ZN2v87Isolate36AutomaticallyRestoreInitialHeapLimitEd
node:_ZN2v87Isolate36ReportExternalAllocationLimitReachedEv
node:_ZN2v87Isolate36SetFailedAccessCheckCallbackFunctionEPFvNS_5LocalINS_6ObjectEEENS_10AccessTypeENS1_INS_5ValueEEEE
node:_ZN2v87Isolate37AdjustAmountOfExternalAllocatedMemoryEl
node:_ZN2v87Isolate37LocaleConfigurationChangeNotificationEv
node:_ZN2v87Isolate38SetHostImportModuleDynamicallyCallbackEPFNS_10MaybeLocalINS_7PromiseEEENS_5LocalINS_7ContextEEENS4_INS_4DataEEENS4_INS_5ValueEEENS4_INS_6StringEEENS4_INS_10FixedArrayEEEE
node:_ZN2v87Isolate39DateTimeConfigurationChangeNotificationENS0_17TimeZoneDetectionE
node:_ZN2v87Isolate39SetHostCreateShadowRealmContextCallbackEPFNS_10MaybeLocalINS_7ContextEEENS_5LocalIS2_EEE
node:_ZN2v87Isolate3NewERKNS0_12CreateParamsE
node:_ZN2v87Isolate41SetCaptureStackTraceForUncaughtExceptionsEbiNS_10StackTrace17StackTraceOptionsE
node:_ZN2v87Isolate41SetHostInitializeImportMetaObjectCallbackEPFvNS_5LocalINS_7ContextEEENS1_INS_6ModuleEEENS1_INS_6ObjectEEEE
node:_ZN2v87Isolate42SetModifyCodeGenerationFromStringsCallbackEPFNS_37ModifyCodeGenerationFromStringsResultENS_5LocalINS_7ContextEEENS2_INS_5ValueEEEbE
node:_ZN2v87Isolate46SetGetExternallyAllocatedMemoryInBytesCallbackEPFmvE
node:_ZN2v87Isolate46SetSharedArrayBufferConstructorEnabledCallbackEPFbNS_5LocalINS_7ContextEEEE
node:_ZN2v87Isolate4ExitEv
node:_ZN2v87Isolate5EnterEv
node:_ZN2v87Isolate6IsDeadEv
node:_ZN2v87Isolate7DisposeEv
node:_ZN2v87Isolate7IsInUseEv
node:_ZN2v87Isolate7SetIdleEb
node:_ZN2v87Isolate8AllocateEv
node:_ZN2v87Isolate9InContextEv
node:_ZN2v87Message22PrintCurrentStackTraceEPNS_7IsolateERSo
node:_ZN2v87Private3NewEPNS_7IsolateENS_5LocalINS_6StringEEE
node:_ZN2v87Private6ForApiEPNS_7IsolateENS_5LocalINS_6StringEEE
node:_ZN2v87Private9CheckCastEPNS_4DataE
node:_ZN2v87Promise12MarkAsSilentEv
node:_ZN2v87Promise13MarkAsHandledEv
node:_ZN2v87Promise4ThenENS_5LocalINS_7ContextEEENS1_INS_8FunctionEEE
node:_ZN2v87Promise4ThenENS_5LocalINS_7ContextEEENS1_INS_8FunctionEEES5_
node:_ZN2v87Promise5CatchENS_5LocalINS_7ContextEEENS1_INS_8FunctionEEE
node:_ZN2v87Promise5StateEv
node:_ZN2v87Promise6ResultEv
node:_ZN2v87Promise8Resolver10GetPromiseEv
node:_ZN2v87Promise8Resolver3NewENS_5LocalINS_7ContextEEE
node:_ZN2v87Promise8Resolver6RejectENS_5LocalINS_7ContextEEENS2_INS_5ValueEEE
node:_ZN2v87Promise8Resolver7ResolveENS_5LocalINS_7ContextEEENS2_INS_5ValueEEE
node:_ZN2v87Promise8Resolver9CheckCastEPNS_5ValueE
node:_ZN2v87Promise9CheckCastEPNS_5ValueE
node:_ZN2v87metrics13LongTaskStats3GetEPNS_7IsolateE
node:_ZN2v87metrics8Recorder10GetContextEPNS_7IsolateENS1_9ContextIdE
node:_ZN2v87metrics8Recorder12GetContextIdENS_5LocalINS_7ContextEEE
node:_ZN2v87sampler11AtomicGuardC1EPSt6atomicIbEb
node:_ZN2v87sampler11AtomicGuardC2EPSt6atomicIbEb
node:_ZN2v87sampler11AtomicGuardD1Ev
node:_ZN2v87sampler11AtomicGuardD2Ev
node:_ZN2v87sampler13SignalHandler13client_count_E
node:_ZN2v87sampler13SignalHandler17FillRegisterStateEPvPNS_13RegisterStateE
node:_ZN2v87sampler13SignalHandler19old_signal_handler_E
node:_ZN2v87sampler13SignalHandler20HandleProfilerSignalEiP9siginfo_tPv
node:_ZN2v87sampler13SignalHandler25signal_handler_installed_E
node:_ZN2v87sampler13SignalHandler6mutex_E
node:_ZN2v87sampler14SamplerManager10AddSamplerEPNS0_7SamplerE
node:_ZN2v87sampler14SamplerManager13RemoveSamplerEPNS0_7SamplerE
node:_ZN2v87sampler14SamplerManager8DoSampleERKNS_13RegisterStateE
node:_ZN2v87sampler14SamplerManager8instanceEv
node:_ZN2v87sampler7Sampler4StopEv
node:_ZN2v87sampler7Sampler5StartEv
node:_ZN2v87sampler7Sampler8DoSampleEv
node:_ZN2v87sampler7SamplerC1EPNS_7IsolateE
node:_ZN2v87sampler7SamplerC2EPNS_7IsolateE
node:_ZN2v87sampler7SamplerD0Ev
node:_ZN2v87sampler7SamplerD1Ev
node:_ZN2v87sampler7SamplerD2Ev
node:_ZN2v87tracing11TracedValue10BeginArrayEPKc
node:_ZN2v87tracing11TracedValue10BeginArrayEv
node:_ZN2v87tracing11TracedValue10SetBooleanEPKcb
node:_ZN2v87tracing11TracedValue10SetIntegerEPKci
node:_ZN2v87tracing11TracedValue10WriteCommaEv
node:_ZN2v87tracing11TracedValue12AppendDoubleEd
node:_ZN2v87tracing11TracedValue12AppendStringEPKc
node:_ZN2v87tracing11TracedValue13AppendBooleanEb
node:_ZN2v87tracing11TracedValue13AppendIntegerEi
node:_ZN2v87tracing11TracedValue13EndDictionaryEv
node:_ZN2v87tracing11TracedValue15BeginDictionaryEPKc
node:_ZN2v87tracing11TracedValue15BeginDictionaryEv
node:_ZN2v87tracing11TracedValue6CreateEv
node:_ZN2v87tracing11TracedValue8EndArrayEv
node:_ZN2v87tracing11TracedValue8SetValueEPKcPS1_
node:_ZN2v87tracing11TracedValue9SetDoubleEPKcd
node:_ZN2v87tracing11TracedValue9SetStringEPKcS3_
node:_ZN2v87tracing11TracedValue9WriteNameEPKc
node:_ZN2v87tracing11TracedValueC1Ev
node:_ZN2v87tracing11TracedValueC2Ev
node:_ZN2v87tracing11TracedValueD0Ev
node:_ZN2v87tracing11TracedValueD1Ev
node:_ZN2v87tracing11TracedValueD2Ev
node:_ZN2v87tracing23TracingCategoryObserver14OnTraceEnabledEv
node:_ZN2v87tracing23TracingCategoryObserver15OnTraceDisabledEv
node:_ZN2v87tracing23TracingCategoryObserver5SetUpEv
node:_ZN2v87tracing23TracingCategoryObserver8TearDownEv
node:_ZN2v87tracing23TracingCategoryObserver9instance_E
node:_ZN2v88DataView3NewENS_5LocalINS_11ArrayBufferEEEmm
node:_ZN2v88DataView3NewENS_5LocalINS_17SharedArrayBufferEEEmm
node:_ZN2v88DataView9CheckCastEPNS_5ValueE
node:_ZN2v88External3NewEPNS_7IsolateEPv
node:_ZN2v88External9CheckCastEPNS_5ValueE
node:_ZN2v88Function19kLineOffsetNotFoundE
node:_ZN2v88Function21FunctionProtoToStringENS_5LocalINS_7ContextEEE
node:_ZN2v88Function3NewENS_5LocalINS_7ContextEEEPFvRKNS_20FunctionCallbackInfoINS_5ValueEEEENS1_IS5_EEiNS_19ConstructorBehaviorENS_14SideEffectTypeE
node:_ZN2v88Function4CallENS_5LocalINS_7ContextEEENS1_INS_5ValueEEEiPS5_
node:_ZN2v88Function7SetNameENS_5LocalINS_6StringEEE
node:_ZN2v88Function9CheckCastEPNS_5ValueE
node:_ZN2v88Platform21SystemClockTimeMillisEv
node:_ZN2v88Template10SetPrivateENS_5LocalINS_7PrivateEEENS1_INS_4DataEEENS_17PropertyAttributeE
node:_ZN2v88Template19SetAccessorPropertyENS_5LocalINS_4NameEEENS1_INS_16FunctionTemplateEEES5_NS_17PropertyAttributeENS_13AccessControlE
node:_ZN2v88Template19SetLazyDataPropertyENS_5LocalINS_4NameEEEPFvS3_RKNS_20PropertyCallbackInfoINS_5ValueEEEENS1_IS5_EENS_17PropertyAttributeENS_14SideEffectTypeESD_
node:_ZN2v88Template21SetNativeDataPropertyENS_5LocalINS_4NameEEEPFvS3_RKNS_20PropertyCallbackInfoINS_5ValueEEEEPFvS3_NS1_IS5_EERKNS4_IvEEESB_NS_17PropertyAttributeENS_13AccessControlENS_14SideEffectTypeESJ_
node:_ZN2v88Template21SetNativeDataPropertyENS_5LocalINS_6StringEEEPFvS3_RKNS_20PropertyCallbackInfoINS_5ValueEEEEPFvS3_NS1_IS5_EERKNS4_IvEEESB_NS_17PropertyAttributeENS_13AccessControlENS_14SideEffectTypeESJ_
node:_ZN2v88Template24SetIntrinsicDataPropertyENS_5LocalINS_4NameEEENS_9IntrinsicENS_17PropertyAttributeE
node:_ZN2v88Template3SetENS_5LocalINS_4NameEEENS1_INS_4DataEEENS_17PropertyAttributeE
node:_ZN2v88TryCatch10SetVerboseEb
node:_ZN2v88TryCatch10StackTraceENS_5LocalINS_7ContextEEENS1_INS_5ValueEEE
node:_ZN2v88TryCatch13ResetInternalEv
node:_ZN2v88TryCatch17SetCaptureMessageEb
node:_ZN2v88TryCatch5ResetEv
node:_ZN2v88TryCatch7ReThrowEv
node:_ZN2v88TryCatchC1EPNS_7IsolateE
node:_ZN2v88TryCatchC2EPNS_7IsolateE
node:_ZN2v88TryCatchD1Ev
node:_ZN2v88TryCatchD2Ev
node:_ZN2v88TryCatchdaEPvm
node:_ZN2v88TryCatchdlEPvm
node:_ZN2v88TryCatchnaEm
node:_ZN2v88TryCatchnwEm
node:_ZN2v88Unlocker10InitializeEPNS_7IsolateE
node:_ZN2v88UnlockerD1Ev
node:_ZN2v88UnlockerD2Ev
node:_ZN2v88Unwinder17TryUnwindV8FramesERKNS_12JSEntryStubsEmPKNS_11MemoryRangeEPNS_13RegisterStateEPKv
node:_ZN2v88Unwinder8PCIsInV8EmPKNS_11MemoryRangeEPv
node:_ZN2v88internal10ActionNode12FillInBMInfoEPNS0_7IsolateEiiPNS0_19BoyerMooreLookaheadEb
node:_ZN2v88internal10ActionNode13ClearCapturesENS0_8IntervalEPNS0_10RegExpNodeE
node:_ZN2v88internal10ActionNode13StorePositionEibPNS0_10RegExpNodeE
node:_ZN2v88internal10ActionNode15EmptyMatchCheckEiiiPNS0_10RegExpNodeE
node:_ZN2v88internal10ActionNode17IncrementRegisterEiPNS0_10RegExpNodeE
node:_ZN2v88internal10ActionNode18SetRegisterForLoopEiiPNS0_10RegExpNodeE
node:_ZN2v88internal10ActionNode20GetQuickCheckDetailsEPNS0_17QuickCheckDetailsEPNS0_14RegExpCompilerEib
node:_ZN2v88internal10ActionNode21BeginNegativeSubmatchEiiPNS0_10RegExpNodeE
node:_ZN2v88internal10ActionNode21BeginPositiveSubmatchEiiPNS0_10RegExpNodeE
node:_ZN2v88internal10ActionNode23PositiveSubmatchSuccessEiiiiPNS0_10RegExpNodeE
node:_ZN2v88internal10ActionNode4EmitEPNS0_14RegExpCompilerEPNS0_5TraceE
node:_ZN2v88internal10ActionNode6AcceptEPNS0_11NodeVisitorE
node:_ZN2v88internal10ApiNatives15AddDataPropertyEPNS0_7IsolateENS0_6HandleINS0_12TemplateInfoEEENS4_INS0_4NameEEENS4_INS0_6ObjectEEENS0_18PropertyAttributesE
node:_ZN2v88internal10ApiNatives15AddDataPropertyEPNS0_7IsolateENS0_6HandleINS0_12TemplateInfoEEENS4_INS0_4NameEEENS_9IntrinsicENS0_18PropertyAttributesE
node:_ZN2v88internal10ApiNatives17CreateApiFunctionEPNS0_7IsolateENS0_6HandleINS0_13NativeContextEEENS4_INS0_20FunctionTemplateInfoEEENS4_INS0_6ObjectEEENS0_12InstanceTypeENS0_11MaybeHandleINS0_4NameEEE
node:_ZN2v88internal10ApiNatives17InstantiateObjectEPNS0_7IsolateENS0_6HandleINS0_18ObjectTemplateInfoEEENS4_INS0_10JSReceiverEEE
node:_ZN2v88internal10ApiNatives19AddAccessorPropertyEPNS0_7IsolateENS0_6HandleINS0_12TemplateInfoEEENS4_INS0_4NameEEENS4_INS0_20FunctionTemplateInfoEEESA_NS0_18PropertyAttributesE
node:_ZN2v88internal10ApiNatives19InstantiateFunctionENS0_6HandleINS0_20FunctionTemplateInfoEEENS0_11MaybeHandleINS0_4NameEEE
node:_ZN2v88internal10ApiNatives19InstantiateFunctionEPNS0_7IsolateENS0_6HandleINS0_13NativeContextEEENS4_INS0_20FunctionTemplateInfoEEENS0_11MaybeHandleINS0_4NameEEE
node:_ZN2v88internal10ApiNatives21AddNativeDataPropertyEPNS0_7IsolateENS0_6HandleINS0_12TemplateInfoEEENS4_INS0_12AccessorInfoEEE
node:_ZN2v88internal10ApiNatives23InstantiateRemoteObjectENS0_6HandleINS0_18ObjectTemplateInfoEEE
node:_ZN2v88internal10AssignmentC1ENS0_7AstNode8NodeTypeENS0_5Token5ValueEPNS0_10ExpressionES7_i
node:_ZN2v88internal10AssignmentC2ENS0_7AstNode8NodeTypeENS0_5Token5ValueEPNS0_10ExpressionES7_i
node:_ZN2v88internal10BigIntBase15BigIntBasePrintERSo
node:_ZN2v88internal10CancelableD0Ev
node:_ZN2v88internal10CancelableD1Ev
node:_ZN2v88internal10CancelableD2Ev
node:_ZN2v88internal10CaseClauseC1EPNS0_4ZoneEPNS0_10ExpressionERKNS0_10ScopedListIPNS0_9StatementEPvEE
node:_ZN2v88internal10CaseClauseC2EPNS0_4ZoneEPNS0_10ExpressionERKNS0_10ScopedListIPNS0_9StatementEPvEE
node:_ZN2v88internal10ChoiceNode11EmitChoicesEPNS0_14RegExpCompilerEPNS0_25AlternativeGenerationListEiPNS0_5TraceEPNS0_12PreloadStateE
node:_ZN2v88internal10ChoiceNode12FillInBMInfoEPNS0_7IsolateEiiPNS0_19BoyerMooreLookaheadEb
node:_ZN2v88internal10ChoiceNode12SetUpPreLoadEPNS0_14RegExpCompilerEPNS0_5TraceEPNS0_12PreloadStateE
node:_ZN2v88internal10ChoiceNode13FilterOneByteEiNS_4base5FlagsINS0_10RegExpFlagEiEE
node:_ZN2v88internal10ChoiceNode13GenerateGuardEPNS0_20RegExpMacroAssemblerEPNS0_5GuardEPNS0_5TraceE
node:_ZN2v88internal10ChoiceNode14EmitGreedyLoopEPNS0_14RegExpCompilerEPNS0_5TraceEPNS0_25AlternativeGenerationListEPNS0_12PreloadStateEPNS0_15GreedyLoopStateEi
node:_ZN2v88internal10ChoiceNode20GetQuickCheckDetailsEPNS0_17QuickCheckDetailsEPNS0_14RegExpCompilerEib
node:_ZN2v88internal10ChoiceNode25EmitOutOfLineContinuationEPNS0_14RegExpCompilerEPNS0_5TraceENS0_18GuardedAlternativeEPNS0_21AlternativeGenerationEib
node:_ZN2v88internal10ChoiceNode26CalculatePreloadCharactersEPNS0_14RegExpCompilerEi
node:_ZN2v88internal10ChoiceNode28AssertGuardsMentionRegistersEPNS0_5TraceE
node:_ZN2v88internal10ChoiceNode29EmitOptimizedUnanchoredSearchEPNS0_14RegExpCompilerEPNS0_5TraceE
node:_ZN2v88internal10ChoiceNode34GreedyLoopTextLengthForAlternativeEPNS0_18GuardedAlternativeE
node:_ZN2v88internal10ChoiceNode4EmitEPNS0_14RegExpCompilerEPNS0_5TraceE
node:_ZN2v88internal10ChoiceNode6AcceptEPNS0_11NodeVisitorE
node:_ZN2v88internal10ClassScope17LookupPrivateNameEPNS0_13VariableProxyE
node:_ZN2v88internal10ClassScope18DeclarePrivateNameEPKNS0_12AstRawStringENS0_12VariableModeENS0_12IsStaticFlagEPb
node:_ZN2v88internal10ClassScope19ResolvePrivateNamesEPNS0_9ParseInfoE
node:_ZN2v88internal10ClassScope20DeclareBrandVariableEPNS0_15AstValueFactoryENS0_12IsStaticFlagEi
node:_ZN2v88internal10ClassScope20DeclareClassVariableEPNS0_15AstValueFactoryEPKNS0_12AstRawStringEi
node:_ZN2v88internal10ClassScope22LookupLocalPrivateNameEPKNS0_12AstRawStringE
node:_ZN2v88internal10ClassScope26FinalizeReparsedClassScopeEPNS0_7IsolateENS0_11MaybeHandleINS0_9ScopeInfoEEEPNS0_15AstValueFactoryEb
node:_ZN2v88internal10ClassScope28GetUnresolvedPrivateNameTailEv
node:_ZN2v88internal10ClassScope28LookupPrivateNameInScopeInfoEPKNS0_12AstRawStringE
node:_ZN2v88internal10ClassScope28ResolvePrivateNamesPartiallyEv
node:_ZN2v88internal10ClassScope30ResetUnresolvedPrivateNameTailENS_4base16ThreadedListBaseINS0_13VariableProxyENS2_9EmptyBaseENS4_14UnresolvedNextELb0EE8IteratorE
node:_ZN2v88internal10ClassScope32MigrateUnresolvedPrivateNameTailEPNS0_14AstNodeFactoryENS_4base16ThreadedListBaseINS0_13VariableProxyENS4_9EmptyBaseENS6_14UnresolvedNextELb0EE8IteratorE
node:_ZN2v88internal10ClassScopeC1EPNS0_4ZoneEPNS0_5ScopeEb
node:_ZN2v88internal10ClassScopeC2EPNS0_4ZoneEPNS0_5ScopeEb
node:_ZN2v88internal10Comparator19CalculateDifferenceEPNS1_5InputEPNS1_6OutputE
node:_ZN2v88internal10CpuProfile13FinishProfileEv
node:_ZN2v88internal10CpuProfile14CheckSubsampleENS_4base9TimeDeltaE
node:_ZN2v88internal10CpuProfile24StreamPendingTraceEventsEv
node:_ZN2v88internal10CpuProfile7AddPathENS_4base9TimeTicksERKSt6vectorINS0_22CodeEntryAndLineNumberESaIS5_EEibNS2_9TimeDeltaENS_8StateTagENS_16EmbedderStateTagE
node:_ZN2v88internal10CpuProfileC1EPNS0_11CpuProfilerEjPKcNS_19CpuProfilingOptionsESt10unique_ptrINS_24DiscardedSamplesDelegateESt14default_deleteIS8_EE
node:_ZN2v88internal10CpuProfileC2EPNS0_11CpuProfilerEjPKcNS_19CpuProfilingOptionsESt10unique_ptrINS_24DiscardedSamplesDelegateESt14default_deleteIS8_EE
node:_ZN2v88internal10CreateFuncEPNS0_7IsolateENS0_6HandleINS0_6StringEEEPFvRKNS_20FunctionCallbackInfoINS_5ValueEEEEbNS_14SideEffectTypeE
node:_ZN2v88internal10DateParser11DayComposer5WriteEPd
node:_ZN2v88internal10DateParser12KeywordTable5arrayE
node:_ZN2v88internal10DateParser12KeywordTable6LookupEPKji
node:_ZN2v88internal10DateParser12TimeComposer5WriteEPd
node:_ZN2v88internal10DateParser16ReadMillisecondsENS1_9DateTokenE
node:_ZN2v88internal10DateParser16TimeZoneComposer5WriteEPd
node:_ZN2v88internal10DebugScope23set_terminate_on_resumeEv
node:_ZN2v88internal10DebugScope24ElapsedTimeSinceCreationEv
node:_ZN2v88internal10DebugScopeC1EPNS0_5DebugE
node:_ZN2v88internal10DebugScopeC2EPNS0_5DebugE
node:_ZN2v88internal10DebugScopeD1Ev
node:_ZN2v88internal10DebugScopeD2Ev
node:_ZN2v88internal10Descriptor12DataConstantENS0_6HandleINS0_4NameEEENS2_INS0_6ObjectEEENS0_18PropertyAttributesE
node:_ZN2v88internal10Descriptor12DataConstantEPNS0_7IsolateENS0_6HandleINS0_4NameEEEiNS4_INS0_6ObjectEEENS0_18PropertyAttributesE
node:_ZN2v88internal10Descriptor16AccessorConstantENS0_6HandleINS0_4NameEEENS2_INS0_6ObjectEEENS0_18PropertyAttributesE
node:_ZN2v88internal10Descriptor9DataFieldENS0_6HandleINS0_4NameEEEiNS0_18PropertyAttributesENS0_17PropertyConstnessENS0_14RepresentationERKNS0_17MaybeObjectHandleE
node:_ZN2v88internal10Descriptor9DataFieldEPNS0_7IsolateENS0_6HandleINS0_4NameEEEiNS0_18PropertyAttributesENS0_14RepresentationE
node:_ZN2v88internal10DescriptorC1ENS0_6HandleINS0_4NameEEERKNS0_17MaybeObjectHandleENS0_12PropertyKindENS0_18PropertyAttributesENS0_16PropertyLocationENS0_17PropertyConstnessENS0_14RepresentationEi
node:_ZN2v88internal10DescriptorC1ENS0_6HandleINS0_4NameEEERKNS0_17MaybeObjectHandleENS0_15PropertyDetailsE
node:_ZN2v88internal10DescriptorC1Ev
node:_ZN2v88internal10DescriptorC2ENS0_6HandleINS0_4NameEEERKNS0_17MaybeObjectHandleENS0_12PropertyKindENS0_18PropertyAttributesENS0_16PropertyLocationENS0_17PropertyConstnessENS0_14RepresentationEi
node:_ZN2v88internal10DescriptorC2ENS0_6HandleINS0_4NameEEERKNS0_17MaybeObjectHandleENS0_15PropertyDetailsE
node:_ZN2v88internal10DescriptorC2Ev
node:_ZN2v88internal10DotPrinter8DotPrintEPKcPNS0_10RegExpNodeE
node:_ZN2v88internal10ErrorUtils16FormatStackTraceEPNS0_7IsolateENS0_6HandleINS0_8JSObjectEEENS4_INS0_6ObjectEEE
node:_ZN2v88internal10ErrorUtils16MakeGenericErrorEPNS0_7IsolateENS0_6HandleINS0_10JSFunctionEEENS0_15MessageTemplateENS4_INS0_6ObjectEEES9_S9_NS0_13FrameSkipModeE
node:_ZN2v88internal10ErrorUtils16NewIteratorErrorEPNS0_7IsolateENS0_6HandleINS0_6ObjectEEE
node:_ZN2v88internal10ErrorUtils17GetFormattedStackEPNS0_7IsolateENS0_6HandleINS0_8JSObjectEEE
node:_ZN2v88internal10ErrorUtils17SetFormattedStackEPNS0_7IsolateENS0_6HandleINS0_8JSObjectEEENS4_INS0_6ObjectEEE
node:_ZN2v88internal10ErrorUtils19ThrowSpreadArgErrorEPNS0_7IsolateENS0_15MessageTemplateENS0_6HandleINS0_6ObjectEEE
node:_ZN2v88internal10ErrorUtils25NewCalledNonCallableErrorEPNS0_7IsolateENS0_6HandleINS0_6ObjectEEE
node:_ZN2v88internal10ErrorUtils28ThrowLoadFromNullOrUndefinedEPNS0_7IsolateENS0_6HandleINS0_6ObjectEEENS0_11MaybeHandleIS5_EE
node:_ZN2v88internal10ErrorUtils30NewConstructedNonConstructableEPNS0_7IsolateENS0_6HandleINS0_6ObjectEEE
node:_ZN2v88internal10ErrorUtils8ToStringEPNS0_7IsolateENS0_6HandleINS0_6ObjectEEE
node:_ZN2v88internal10ErrorUtils9ConstructEPNS0_7IsolateENS0_6HandleINS0_10JSFunctionEEENS4_INS0_6ObjectEEES8_S8_
node:_ZN2v88internal10ErrorUtils9ConstructEPNS0_7IsolateENS0_6HandleINS0_10JSFunctionEEENS4_INS0_6ObjectEEES8_S8_NS0_13FrameSkipModeES8_NS1_20StackTraceCollectionE
node:_ZN2v88internal10Expression18IsCompileTimeValueEv
node:_ZN2v88internal10FindCallerEPNS0_7IsolateENS0_6HandleINS0_10JSFunctionEEE
node:_ZN2v88internal10FixedArray10SetAndGrowEPNS0_7IsolateENS0_6HandleIS1_EEiNS4_INS0_6ObjectEEE
node:_ZN2v88internal10FixedArray13ShrinkOrEmptyEPNS0_7IsolateENS0_6HandleIS1_EEi
node:_ZN2v88internal10FixedArray15FixedArrayPrintERSo
node:_ZN2v88internal10FixedArray6ShrinkEPNS0_7IsolateEi
node:_ZN2v88internal10GetterNameEPNS0_7IsolateENS0_6HandleINS0_6StringEEE
node:_ZN2v88internal10HeapNumber15HeapNumberPrintERSo
node:_ZN2v88internal10HeapNumber20HeapNumberShortPrintERSo
node:_ZN2v88internal10HeapObject11IsValidSlotENS0_3MapEi
node:_ZN2v88internal10HeapObject11IterateBodyENS0_16PtrComprCageBaseEPNS0_13ObjectVisitorE
node:_ZN2v88internal10HeapObject11IterateBodyENS0_3MapEiPNS0_13ObjectVisitorE
node:_ZN2v88internal10HeapObject11PrintHeaderERSoPKc
node:_ZN2v88internal10HeapObject15HeapObjectPrintERSo
node:_ZN2v88internal10HeapObject20HeapObjectShortPrintERSo
node:_ZN2v88internal10HeapObject7IterateENS0_16PtrComprCageBaseEPNS0_13ObjectVisitorE
node:_ZN2v88internal10JSCollator15JSCollatorPrintERSo
node:_ZN2v88internal10JSCollator15ResolvedOptionsEPNS0_7IsolateENS0_6HandleIS1_EE
node:_ZN2v88internal10JSCollator19GetAvailableLocalesB5cxx11Ev
node:_ZN2v88internal10JSCollator3NewEPNS0_7IsolateENS0_6HandleINS0_3MapEEENS4_INS0_6ObjectEEES8_PKc
node:_ZN2v88internal10JSDataView15JSDataViewPrintERSo
node:_ZN2v88internal10JSFunction12GetDebugNameENS0_6HandleIS1_EE
node:_ZN2v88internal10JSFunction12SetPrototypeENS0_6HandleIS1_EENS2_INS0_6ObjectEEE
node:_ZN2v88internal10JSFunction13DebugNameCStrEv
node:_ZN2v88internal10JSFunction13GetDerivedMapEPNS0_7IsolateENS0_6HandleIS1_EENS4_INS0_10JSReceiverEEE
node:_ZN2v88internal10JSFunction13SetInitialMapEPNS0_7IsolateENS0_6HandleIS1_EENS4_INS0_3MapEEENS4_INS0_10HeapObjectEEE
node:_ZN2v88internal10JSFunction13SetInitialMapEPNS0_7IsolateENS0_6HandleIS1_EENS4_INS0_3MapEEENS4_INS0_10HeapObjectEEES9_
node:_ZN2v88internal10JSFunction15JSFunctionPrintERSo
node:_ZN2v88internal10JSFunction18SetInterruptBudgetEPNS0_7IsolateE
node:_ZN2v88internal10JSFunction19EnsureHasInitialMapENS0_6HandleIS1_EE
node:_ZN2v88internal10JSFunction19MarkForOptimizationEPNS0_7IsolateENS0_8CodeKindENS0_15ConcurrencyModeE
node:_ZN2v88internal10JSFunction20EnsureFeedbackVectorEPNS0_7IsolateENS0_6HandleIS1_EEPNS0_15IsCompiledScopeE
node:_ZN2v88internal10JSFunction22InitializeFeedbackCellENS0_6HandleIS1_EEPNS0_15IsCompiledScopeEb
node:_ZN2v88internal10JSFunction27CalculateInstanceSizeHelperENS0_12InstanceTypeEbiiPiS3_
node:_ZN2v88internal10JSFunction28GetDerivedRabGsabDataViewMapEPNS0_7IsolateENS0_6HandleINS0_10JSReceiverEEE
node:_ZN2v88internal10JSFunction29CreateAndAttachFeedbackVectorEPNS0_7IsolateENS0_6HandleIS1_EEPNS0_15IsCompiledScopeE
node:_ZN2v88internal10JSFunction30CalculateExpectedNofPropertiesEPNS0_7IsolateENS0_6HandleIS1_EE
node:_ZN2v88internal10JSFunction30EnsureClosureFeedbackCellArrayENS0_6HandleIS1_EEb
node:_ZN2v88internal10JSFunction30GetDerivedRabGsabTypedArrayMapEPNS0_7IsolateENS0_6HandleIS1_EENS4_INS0_10JSReceiverEEE
node:_ZN2v88internal10JSFunction31ComputeInstanceSizeWithMinSlackEPNS0_7IsolateE
node:_ZN2v88internal10JSFunction34ClearAllTypeFeedbackInfoForTestingEv
node:_ZN2v88internal10JSFunction7GetNameEPNS0_7IsolateENS0_6HandleIS1_EE
node:_ZN2v88internal10JSFunction7SetNameENS0_6HandleIS1_EENS2_INS0_4NameEEENS2_INS0_6StringEEE
node:_ZN2v88internal10JSFunction8ToStringENS0_6HandleIS1_EE
node:_ZN2v88internal10JSFunction9PrintNameEP8_IO_FILE
node:_ZN2v88internal10JSReceiver10class_nameEv
node:_ZN2v88internal10JSReceiver11HasPropertyEPNS0_14LookupIteratorE
node:_ZN2v88internal10JSReceiver11ToPrimitiveEPNS0_7IsolateENS0_6HandleIS1_EENS0_15ToPrimitiveHintE
node:_ZN2v88internal10JSReceiver12GetOwnValuesEPNS0_7IsolateENS0_6HandleIS1_EENS0_14PropertyFilterEb
node:_ZN2v88internal10JSReceiver12IsExtensibleEPNS0_7IsolateENS0_6HandleIS1_EE
node:_ZN2v88internal10JSReceiver12SetPrototypeEPNS0_7IsolateENS0_6HandleIS1_EENS4_INS0_6ObjectEEEbNS0_11ShouldThrowE
node:_ZN2v88internal10JSReceiver13DeleteElementENS0_6HandleIS1_EEjNS0_12LanguageModeE
node:_ZN2v88internal10JSReceiver13GetOwnEntriesEPNS0_7IsolateENS0_6HandleIS1_EENS0_14PropertyFilterEb
node:_ZN2v88internal10JSReceiver13SetPropertiesENS0_10HeapObjectE
node:_ZN2v88internal10JSReceiver14DefinePropertyEPNS0_7IsolateENS0_6HandleINS0_6ObjectEEES6_S6_
node:_ZN2v88internal10JSReceiver14DeletePropertyENS0_6HandleIS1_EENS2_INS0_4NameEEENS0_12LanguageModeE
node:_ZN2v88internal10JSReceiver14DeletePropertyEPNS0_14LookupIteratorENS0_12LanguageModeE
node:_ZN2v88internal10JSReceiver14GetConstructorEPNS0_7IsolateENS0_6HandleIS1_EE
node:_ZN2v88internal10JSReceiver14HasOwnPropertyEPNS0_7IsolateENS0_6HandleIS1_EENS4_INS0_4NameEEE
node:_ZN2v88internal10JSReceiver15AddPrivateFieldEPNS0_14LookupIteratorENS0_6HandleINS0_6ObjectEEENS_5MaybeINS0_11ShouldThrowEEE
node:_ZN2v88internal10JSReceiver15GetDataPropertyEPNS0_14LookupIteratorENS0_16AllocationPolicyE
node:_ZN2v88internal10JSReceiver15GetIdentityHashEv
node:_ZN2v88internal10JSReceiver15SetIdentityHashEi
node:_ZN2v88internal10JSReceiver16CheckIfCanDefineEPNS0_7IsolateEPNS0_14LookupIteratorENS0_6HandleINS0_6ObjectEEENS_5MaybeINS0_11ShouldThrowEEE
node:_ZN2v88internal10JSReceiver16DefinePropertiesEPNS0_7IsolateENS0_6HandleINS0_6ObjectEEES6_
node:_ZN2v88internal10JSReceiver16GetFunctionRealmENS0_6HandleIS1_EE
node:_ZN2v88internal10JSReceiver17DefineOwnPropertyEPNS0_7IsolateENS0_6HandleIS1_EENS4_INS0_6ObjectEEEPNS0_18PropertyDescriptorENS_5MaybeINS0_11ShouldThrowEEE
node:_ZN2v88internal10JSReceiver17PreventExtensionsEPNS0_7IsolateENS0_6HandleIS1_EENS0_11ShouldThrowE
node:_ZN2v88internal10JSReceiver17SetIntegrityLevelEPNS0_7IsolateENS0_6HandleIS1_EENS0_18PropertyAttributesENS0_11ShouldThrowE
node:_ZN2v88internal10JSReceiver18CreateDataPropertyEPNS0_14LookupIteratorENS0_6HandleINS0_6ObjectEEENS_5MaybeINS0_11ShouldThrowEEE
node:_ZN2v88internal10JSReceiver18CreateDataPropertyEPNS0_7IsolateENS0_6HandleIS1_EENS4_INS0_4NameEEENS4_INS0_6ObjectEEENS_5MaybeINS0_11ShouldThrowEEE
node:_ZN2v88internal10JSReceiver18CreateIdentityHashEPNS0_7IsolateES1_
node:_ZN2v88internal10JSReceiver18GetConstructorNameEPNS0_7IsolateENS0_6HandleIS1_EE
node:_ZN2v88internal10JSReceiver18GetCreationContextEv
node:_ZN2v88internal10JSReceiver18TestIntegrityLevelEPNS0_7IsolateENS0_6HandleIS1_EENS0_18PropertyAttributesE
node:_ZN2v88internal10JSReceiver19HasInPrototypeChainEPNS0_7IsolateENS0_6HandleIS1_EENS4_INS0_6ObjectEEE
node:_ZN2v88internal10JSReceiver19HasProxyInPrototypeEPNS0_7IsolateE
node:_ZN2v88internal10JSReceiver19OrdinaryToPrimitiveEPNS0_7IsolateENS0_6HandleIS1_EENS0_23OrdinaryToPrimitiveHintE
node:_ZN2v88internal10JSReceiver21CheckPrivateNameStoreEPNS0_14LookupIteratorEb
node:_ZN2v88internal10JSReceiver21GetCreationContextRawEv
node:_ZN2v88internal10JSReceiver21GetPropertyAttributesEPNS0_14LookupIteratorE
node:_ZN2v88internal10JSReceiver22GetContextForMicrotaskENS0_6HandleIS1_EE
node:_ZN2v88internal10JSReceiver23DeletePropertyOrElementENS0_6HandleIS1_EENS2_INS0_4NameEEENS0_12LanguageModeE
node:_ZN2v88internal10JSReceiver23GetOrCreateIdentityHashEPNS0_7IsolateE
node:_ZN2v88internal10JSReceiver23SetOrCopyDataPropertiesEPNS0_7IsolateENS0_6HandleIS1_EENS4_INS0_6ObjectEEENS0_25PropertiesEnumerationModeEPKNS_4base12ScopedVectorIS7_EEb
node:_ZN2v88internal10JSReceiver24DeleteNormalizedPropertyENS0_6HandleIS1_EENS0_13InternalIndexE
node:_ZN2v88internal10JSReceiver24GetOwnPropertyDescriptorEPNS0_14LookupIteratorEPNS0_18PropertyDescriptorE
node:_ZN2v88internal10JSReceiver24GetOwnPropertyDescriptorEPNS0_7IsolateENS0_6HandleIS1_EENS4_INS0_6ObjectEEEPNS0_18PropertyDescriptorE
node:_ZN2v88internal10JSReceiver25OrdinaryDefineOwnPropertyEPNS0_14LookupIteratorEPNS0_18PropertyDescriptorENS_5MaybeINS0_11ShouldThrowEEE
node:_ZN2v88internal10JSReceiver25OrdinaryDefineOwnPropertyEPNS0_7IsolateENS0_6HandleINS0_8JSObjectEEENS4_INS0_6ObjectEEEPNS0_18PropertyDescriptorENS_5MaybeINS0_11ShouldThrowEEE
node:_ZN2v88internal10JSReceiver25OrdinaryDefineOwnPropertyEPNS0_7IsolateENS0_6HandleINS0_8JSObjectEEERKNS0_11PropertyKeyEPNS0_18PropertyDescriptorENS_5MaybeINS0_11ShouldThrowEEE
node:_ZN2v88internal10JSReceiver30IsCompatiblePropertyDescriptorEPNS0_7IsolateEbPNS0_18PropertyDescriptorES5_NS0_6HandleINS0_4NameEEENS_5MaybeINS0_11ShouldThrowEEE
node:_ZN2v88internal10JSReceiver34ValidateAndApplyPropertyDescriptorEPNS0_7IsolateEPNS0_14LookupIteratorEbPNS0_18PropertyDescriptorES7_NS_5MaybeINS0_11ShouldThrowEEENS0_6HandleINS0_4NameEEE
node:_ZN2v88internal10JSSegments10ContainingEPNS0_7IsolateENS0_6HandleIS1_EEd
node:_ZN2v88internal10JSSegments15JSSegmentsPrintERSo
node:_ZN2v88internal10JSSegments23CreateSegmentDataObjectEPNS0_7IsolateENS0_11JSSegmenter11GranularityEPN6icu_7313BreakIteratorERKNS6_13UnicodeStringEii
node:_ZN2v88internal10JSSegments6CreateEPNS0_7IsolateENS0_6HandleINS0_11JSSegmenterEEENS4_INS0_6StringEEE
node:_ZN2v88internal10MapUpdater10UpdateImplEv
node:_ZN2v88internal10MapUpdater11FindRootMapEv
node:_ZN2v88internal10MapUpdater12FindSplitMapENS0_6HandleINS0_15DescriptorArrayEEE
node:_ZN2v88internal10MapUpdater13FindTargetMapEv
node:_ZN2v88internal10MapUpdater15ConstructNewMapEv
node:_ZN2v88internal10MapUpdater15GeneralizeFieldENS0_6HandleINS0_3MapEEENS0_13InternalIndexENS0_17PropertyConstnessENS0_14RepresentationENS2_INS0_9FieldTypeEEE
node:_ZN2v88internal10MapUpdater15GeneralizeFieldEPNS0_7IsolateENS0_6HandleINS0_3MapEEENS0_13InternalIndexENS0_17PropertyConstnessENS0_14RepresentationENS4_INS0_9FieldTypeEEE
node:_ZN2v88internal10MapUpdater15TryUpdateNoLockEPNS0_7IsolateENS0_3MapENS0_15ConcurrencyModeE
node:_ZN2v88internal10MapUpdater15UpdateFieldTypeEPNS0_7IsolateENS0_6HandleINS0_3MapEEENS0_13InternalIndexENS4_INS0_4NameEEENS0_17PropertyConstnessENS0_14RepresentationERKNS0_17MaybeObjectHandleE
node:_ZN2v88internal10MapUpdater20BuildDescriptorArrayEv
node:_ZN2v88internal10MapUpdater22ReconfigureToDataFieldENS0_13InternalIndexENS0_18PropertyAttributesENS0_17PropertyConstnessENS0_14RepresentationENS0_6HandleINS0_9FieldTypeEEE
node:_ZN2v88internal10MapUpdater23ReconfigureElementsKindENS0_12ElementsKindE
node:_ZN2v88internal10MapUpdater27ReconfigureExistingPropertyEPNS0_7IsolateENS0_6HandleINS0_3MapEEENS0_13InternalIndexENS0_12PropertyKindENS0_18PropertyAttributesENS0_17PropertyConstnessE
node:_ZN2v88internal10MapUpdater29CompleteInobjectSlackTrackingEPNS0_7IsolateENS0_3MapE
node:_ZN2v88internal10MapUpdater32TryReconfigureToDataFieldInplaceEv
node:_ZN2v88internal10MapUpdater32TrySaveIntegrityLevelTransitionsEv
node:_ZN2v88internal10MapUpdater43ConstructNewMapWithIntegrityLevelTransitionEv
node:_ZN2v88internal10MapUpdater6UpdateEv
node:_ZN2v88internal10MapUpdater9NormalizeEPKc
node:_ZN2v88internal10MapUpdaterC1EPNS0_7IsolateENS0_6HandleINS0_3MapEEE
node:_ZN2v88internal10MapUpdaterC2EPNS0_7IsolateENS0_6HandleINS0_3MapEEE
node:_ZN2v88internal10MathRandom11RefillCacheEPNS0_7IsolateEm
node:_ZN2v88internal10MathRandom12ResetContextENS0_7ContextE
node:_ZN2v88internal10MathRandom17InitializeContextEPNS0_7IsolateENS0_6HandleINS0_7ContextEEE
node:_ZN2v88internal10MinorGCJob20ScheduleTaskIfNeededEPNS0_4HeapE
node:_ZN2v88internal10MinorGCJob30YoungGenerationTaskTriggerSizeEPNS0_4HeapE
node:_ZN2v88internal10MinorGCJob37YoungGenerationSizeTaskTriggerReachedEPNS0_4HeapE
node:_ZN2v88internal10MinorGCJob4Task11RunInternalEv
node:_ZN2v88internal10PagedSpace14RefillFreeListEv
node:_ZN2v88internal10Protectors17InvalidateMegaDOMEPNS0_7IsolateE
node:_ZN2v88internal10Protectors20InvalidateNoElementsEPNS0_7IsolateE
node:_ZN2v88internal10Protectors21InvalidatePromiseHookEPNS0_7IsolateE
node:_ZN2v88internal10Protectors26InvalidateArrayConstructorEPNS0_7IsolateE
node:_ZN2v88internal10Protectors30InvalidateArrayBufferDetachingEPNS0_7IsolateE
node:_ZN2v88internal10Protectors32InvalidateMapIteratorLookupChainEPNS0_7IsolateE
node:_ZN2v88internal10Protectors32InvalidatePromiseThenLookupChainEPNS0_7IsolateE
node:_ZN2v88internal10Protectors32InvalidateSetIteratorLookupChainEPNS0_7IsolateE
node:_ZN2v88internal10Protectors33InvalidateArraySpeciesLookupChainEPNS0_7IsolateE
node:_ZN2v88internal10Protectors34InvalidateArrayIteratorLookupChainEPNS0_7IsolateE
node:_ZN2v88internal10Protectors34InvalidateRegExpSpeciesLookupChainEPNS0_7IsolateE
node:_ZN2v88internal10Protectors35InvalidatePromiseResolveLookupChainEPNS0_7IsolateE
node:_ZN2v88internal10Protectors35InvalidatePromiseSpeciesLookupChainEPNS0_7IsolateE
node:_ZN2v88internal10Protectors35InvalidateStringIteratorLookupChainEPNS0_7IsolateE
node:_ZN2v88internal10Protectors38InvalidateTypedArraySpeciesLookupChainEPNS0_7IsolateE
node:_ZN2v88internal10Protectors39InvalidateIsConcatSpreadableLookupChainEPNS0_7IsolateE
node:_ZN2v88internal10Protectors40InvalidateNumberStringPrototypeNoReplaceEPNS0_7IsolateE
node:_ZN2v88internal10Protectors41InvalidateStringLengthOverflowLookupChainEPNS0_7IsolateE
node:_ZN2v88internal10RegExpAtom12AppendToTextEPNS0_10RegExpTextEPNS0_4ZoneE
node:_ZN2v88internal10RegExpAtom6AcceptEPNS0_13RegExpVisitorEPv
node:_ZN2v88internal10RegExpAtom6AsAtomEv
node:_ZN2v88internal10RegExpAtom6IsAtomEv
node:_ZN2v88internal10RegExpAtom6ToNodeEPNS0_14RegExpCompilerEPNS0_10RegExpNodeE
node:_ZN2v88internal10RegExpImpl11AtomCompileEPNS0_7IsolateENS0_6HandleINS0_8JSRegExpEEENS4_INS0_6StringEEENS_4base5FlagsINS0_10RegExpFlagEiEES8_
node:_ZN2v88internal10RegExpImpl11AtomExecRawEPNS0_7IsolateENS0_6HandleINS0_8JSRegExpEEENS4_INS0_6StringEEEiPii
node:_ZN2v88internal10RegExpImpl12IrregexpExecEPNS0_7IsolateENS0_6HandleINS0_8JSRegExpEEENS4_INS0_6StringEEEiNS4_INS0_15RegExpMatchInfoEEENS0_6RegExp10ExecQuirksE
node:_ZN2v88internal10RegExpImpl15CompileIrregexpEPNS0_7IsolateENS0_6HandleINS0_8JSRegExpEEENS4_INS0_6StringEEEb
node:_ZN2v88internal10RegExpImpl15IrregexpExecRawEPNS0_7IsolateENS0_6HandleINS0_8JSRegExpEEENS4_INS0_6StringEEEiPii
node:_ZN2v88internal10RegExpImpl15IrregexpPrepareEPNS0_7IsolateENS0_6HandleINS0_8JSRegExpEEENS4_INS0_6StringEEE
node:_ZN2v88internal10RegExpImpl16IrregexpByteCodeENS0_10FixedArrayEb
node:_ZN2v88internal10RegExpImpl18IrregexpInitializeEPNS0_7IsolateENS0_6HandleINS0_8JSRegExpEEENS4_INS0_6StringEEENS_4base5FlagsINS0_10RegExpFlagEiEEij
node:_ZN2v88internal10RegExpImpl18IrregexpNativeCodeENS0_10FixedArrayEb
node:_ZN2v88internal10RegExpImpl24IrregexpMaxRegisterCountENS0_10FixedArrayE
node:_ZN2v88internal10RegExpImpl24IrregexpNumberOfCapturesENS0_10FixedArrayE
node:_ZN2v88internal10RegExpImpl27SetIrregexpMaxRegisterCountENS0_10FixedArrayEi
node:_ZN2v88internal10RegExpImpl7CompileEPNS0_7IsolateEPNS0_4ZoneEPNS0_17RegExpCompileDataENS_4base5FlagsINS0_10RegExpFlagEiEENS0_6HandleINS0_6StringEEESE_bRj
node:_ZN2v88internal10RegExpImpl8AtomExecEPNS0_7IsolateENS0_6HandleINS0_8JSRegExpEEENS4_INS0_6StringEEEiNS4_INS0_15RegExpMatchInfoEEE
node:_ZN2v88internal10RegExpNode11EatsAtLeastEb
node:_ZN2v88internal10RegExpNode13KeepRecursingEPNS0_14RegExpCompilerE
node:_ZN2v88internal10RegExpNode13LimitVersionsEPNS0_14RegExpCompilerEPNS0_5TraceE
node:_ZN2v88internal10RegExpNode14EmitQuickCheckEPNS0_14RegExpCompilerEPNS0_5TraceES5_bPNS0_5LabelEPNS0_17QuickCheckDetailsEbPNS0_10ChoiceNodeE
node:_ZN2v88internal10RegExpNode24EatsAtLeastFromLoopEntryEv
node:_ZN2v88internal10RegExpNode33GetQuickCheckDetailsFromLoopEntryEPNS0_17QuickCheckDetailsEPNS0_14RegExpCompilerEib
node:_ZN2v88internal10RegExpNodeD0Ev
node:_ZN2v88internal10RegExpNodeD1Ev
node:_ZN2v88internal10RegExpNodeD2Ev
node:_ZN2v88internal10RegExpText12AppendToTextEPS1_PNS0_4ZoneE
node:_ZN2v88internal10RegExpText6AcceptEPNS0_13RegExpVisitorEPv
node:_ZN2v88internal10RegExpText6AsTextEv
node:_ZN2v88internal10RegExpText6IsTextEv
node:_ZN2v88internal10RegExpText6ToNodeEPNS0_14RegExpCompilerEPNS0_10RegExpNodeE
node:_ZN2v88internal10RegExpTree11AsAssertionEv
node:_ZN2v88internal10RegExpTree11IsAssertionEv
node:_ZN2v88internal10RegExpTree12AppendToTextEPNS0_10RegExpTextEPNS0_4ZoneE
node:_ZN2v88internal10RegExpTree12AsLookaroundEv
node:_ZN2v88internal10RegExpTree12AsQuantifierEv
node:_ZN2v88internal10RegExpTree12IsLookaroundEv
node:_ZN2v88internal10RegExpTree12IsQuantifierEv
node:_ZN2v88internal10RegExpTree13AsAlternativeEv
node:_ZN2v88internal10RegExpTree13AsClassRangesEv
node:_ZN2v88internal10RegExpTree13AsDisjunctionEv
node:_ZN2v88internal10RegExpTree13IsAlternativeEv
node:_ZN2v88internal10RegExpTree13IsClassRangesEv
node:_ZN2v88internal10RegExpTree13IsDisjunctionEv
node:_ZN2v88internal10RegExpTree15AsBackReferenceEv
node:_ZN2v88internal10RegExpTree15IsBackReferenceEv
node:_ZN2v88internal10RegExpTree17AsClassSetOperandEv
node:_ZN2v88internal10RegExpTree17IsClassSetOperandEv
node:_ZN2v88internal10RegExpTree20AsClassSetExpressionEv
node:_ZN2v88internal10RegExpTree20IsClassSetExpressionEv
node:_ZN2v88internal10RegExpTree5PrintERSoPNS0_4ZoneE
node:_ZN2v88internal10RegExpTree6AsAtomEv
node:_ZN2v88internal10RegExpTree6AsTextEv
node:_ZN2v88internal10RegExpTree6IsAtomEv
node:_ZN2v88internal10RegExpTree6IsTextEv
node:_ZN2v88internal10RegExpTree7AsEmptyEv
node:_ZN2v88internal10RegExpTree7AsGroupEv
node:_ZN2v88internal10RegExpTree7IsEmptyEv
node:_ZN2v88internal10RegExpTree7IsGroupEv
node:_ZN2v88internal10RegExpTree9AsCaptureEv
node:_ZN2v88internal10RegExpTree9IsCaptureEv
node:_ZN2v88internal10RootsTable11root_names_E
node:_ZN2v88internal10Serializer10PutSmiRootENS0_14FullObjectSlotE
node:_ZN2v88internal10Serializer13SerializeRootENS0_10HeapObjectE
node:_ZN2v88internal10Serializer14HotObjectsListC1EPNS0_4HeapE
node:_ZN2v88internal10Serializer14HotObjectsListC2EPNS0_4HeapE
node:_ZN2v88internal10Serializer14HotObjectsListD1Ev
node:_ZN2v88internal10Serializer14HotObjectsListD2Ev
node:_ZN2v88internal10Serializer14MustBeDeferredENS0_10HeapObjectE
node:_ZN2v88internal10Serializer15CountAllocationENS0_3MapEiNS0_13SnapshotSpaceE
node:_ZN2v88internal10Serializer15SerializeObjectENS0_6HandleINS0_10HeapObjectEEE
node:_ZN2v88internal10Serializer16ObjectSerializer13OutputRawDataEm
node:_ZN2v88internal10Serializer16ObjectSerializer13VisitPointersENS0_10HeapObjectENS0_14FullObjectSlotES4_
node:_ZN2v88internal10Serializer16ObjectSerializer13VisitPointersENS0_10HeapObjectENS0_19FullMaybeObjectSlotES4_
node:_ZN2v88internal10Serializer16ObjectSerializer15SerializeObjectEv
node:_ZN2v88internal10Serializer16ObjectSerializer15VisitCodeTargetEPNS0_9RelocInfoE
node:_ZN2v88internal10Serializer16ObjectSerializer16SerializeContentENS0_3MapEi
node:_ZN2v88internal10Serializer16ObjectSerializer16VisitCodePointerENS0_4CodeENS0_21OffHeapFullObjectSlotE
node:_ZN2v88internal10Serializer16ObjectSerializer17SerializeDeferredEv
node:_ZN2v88internal10Serializer16ObjectSerializer17SerializePrologueENS0_13SnapshotSpaceEiNS0_3MapE
node:_ZN2v88internal10Serializer16ObjectSerializer18VisitOffHeapTargetEPNS0_9RelocInfoE
node:_ZN2v88internal10Serializer16ObjectSerializer20VisitEmbeddedPointerEPNS0_9RelocInfoE
node:_ZN2v88internal10Serializer16ObjectSerializer20VisitExternalPointerENS0_10HeapObjectENS0_19ExternalPointerSlotENS0_18ExternalPointerTagE
node:_ZN2v88internal10Serializer16ObjectSerializer21SerializeBackingStoreEPviNS_5MaybeIiEE
node:_ZN2v88internal10Serializer16ObjectSerializer21SerializeJSTypedArrayEv
node:_ZN2v88internal10Serializer16ObjectSerializer22SerializeJSArrayBufferEv
node:_ZN2v88internal10Serializer16ObjectSerializer22VisitExternalReferenceEPNS0_9RelocInfoE
node:_ZN2v88internal10Serializer16ObjectSerializer22VisitInternalReferenceEPNS0_9RelocInfoE
node:_ZN2v88internal10Serializer16ObjectSerializer23OutputExternalReferenceEmibNS0_18ExternalPointerTagE
node:_ZN2v88internal10Serializer16ObjectSerializer23SerializeExternalStringEv
node:_ZN2v88internal10Serializer16ObjectSerializer26SerializeInstructionStreamENS0_3MapEi
node:_ZN2v88internal10Serializer16ObjectSerializer41SerializeExternalStringAsSequentialStringEv
node:_ZN2v88internal10Serializer16ObjectSerializer9SerializeEv
node:_ZN2v88internal10Serializer16OutputStatisticsEPKc
node:_ZN2v88internal10Serializer16PutBackReferenceENS0_10HeapObjectENS0_19SerializerReferenceE
node:_ZN2v88internal10Serializer17VisitRootPointersENS0_4RootEPKcNS0_14FullObjectSlotES5_
node:_ZN2v88internal10Serializer18SerializeHotObjectENS0_10HeapObjectE
node:_ZN2v88internal10Serializer19SerializeRootObjectENS0_14FullObjectSlotE
node:_ZN2v88internal10Serializer20PutAttachedReferenceENS0_19SerializerReferenceE
node:_ZN2v88internal10Serializer20ResolvePendingObjectENS0_10HeapObjectE
node:_ZN2v88internal10Serializer22SerializeBackReferenceENS0_10HeapObjectE
node:_ZN2v88internal10Serializer22SerializePendingObjectENS0_10HeapObjectE
node:_ZN2v88internal10Serializer23EncodeExternalReferenceEm
node:_ZN2v88internal10Serializer23RegisterObjectIsPendingENS0_10HeapObjectE
node:_ZN2v88internal10Serializer24InitializeCodeAddressMapEv
node:_ZN2v88internal10Serializer24SerializeDeferredObjectsEv
node:_ZN2v88internal10Serializer26PutPendingForwardReferenceERPSt6vectorIiSaIiEE
node:_ZN2v88internal10Serializer30ResolvePendingForwardReferenceEi
node:_ZN2v88internal10Serializer32SerializeReadOnlyObjectReferenceENS0_10HeapObjectEPNS0_16SnapshotByteSinkE
node:_ZN2v88internal10Serializer3PadEi
node:_ZN2v88internal10Serializer7PutRootENS0_9RootIndexE
node:_ZN2v88internal10Serializer8CopyCodeENS0_17InstructionStreamE
node:_ZN2v88internal10Serializer9PutRepeatEi
node:_ZN2v88internal10SerializerC1EPNS0_7IsolateENS_4base5FlagsINS0_8Snapshot14SerializerFlagEiEE
node:_ZN2v88internal10SerializerC2EPNS0_7IsolateENS_4base5FlagsINS0_8Snapshot14SerializerFlagEiEE
node:_ZN2v88internal10SetterNameEPNS0_7IsolateENS0_6HandleINS0_6StringEEE
node:_ZN2v88internal10StackFrame32SetReturnAddressLocationResolverEPFmmE
node:_ZN2v88internal10StackFrame33return_address_location_resolver_E
node:_ZN2v88internal10StackGuard10InitThreadERKNS0_15ExecutionAccessE
node:_ZN2v88internal10StackGuard11ThreadLocal10InitializeEPNS0_7IsolateERKNS0_15ExecutionAccessE
node:_ZN2v88internal10StackGuard13SetStackLimitEm
node:_ZN2v88internal10StackGuard14CheckInterruptENS1_13InterruptFlagE
node:_ZN2v88internal10StackGuard14ClearInterruptENS1_13InterruptFlagE
node:_ZN2v88internal10StackGuard16EnableInterruptsEv
node:_ZN2v88internal10StackGuard16HandleInterruptsEv
node:_ZN2v88internal10StackGuard16RequestInterruptENS1_13InterruptFlagE
node:_ZN2v88internal10StackGuard17ArchiveStackGuardEPc
node:_ZN2v88internal10StackGuard17DisableInterruptsEv
node:_ZN2v88internal10StackGuard17RestoreStackGuardEPc
node:_ZN2v88internal10StackGuard18PopInterruptsScopeEv
node:_ZN2v88internal10StackGuard19FreeThreadResourcesEv
node:_ZN2v88internal10StackGuard19PushInterruptsScopeEPNS0_15InterruptsScopeE
node:_ZN2v88internal10StackGuard21HasTerminationRequestEv
node:_ZN2v88internal10StackGuard23FetchAndClearInterruptsEv
node:_ZN2v88internal10StackGuard28AdjustStackLimitForSimulatorEv
node:_ZN2v88internal10StatsTable18SetCounterFunctionEPFPiPKcE
node:_ZN2v88internal10StatsTableC1EPNS0_8CountersE
node:_ZN2v88internal10StatsTableC2EPNS0_8CountersE
node:_ZN2v88internal10Symbolizer19SymbolizeTickSampleERKNS0_10TickSampleE
node:_ZN2v88internal10Symbolizer9FindEntryEmPm
node:_ZN2v88internal10SymbolizerC1EPNS0_20InstructionStreamMapE
node:_ZN2v88internal10SymbolizerC2EPNS0_20InstructionStreamMapE
node:_ZN2v88internal10TickSample14GetStackSampleEPNS0_7IsolateEPNS_13RegisterStateENS1_17RecordCEntryFrameEPPvmPNS_10SampleInfoEPNS_8StateTagEb
node:_ZN2v88internal10TickSample4InitEPNS0_7IsolateERKNS_13RegisterStateENS1_17RecordCEntryFrameEbbNS_4base9TimeDeltaE
node:_ZN2v88internal10TypedSlots11EnsureChunkEv
node:_ZN2v88internal10TypedSlots5MergeEPS1_
node:_ZN2v88internal10TypedSlots6InsertENS0_8SlotTypeEj
node:_ZN2v88internal10TypedSlots8NewChunkEPNS1_5ChunkEm
node:_ZN2v88internal10TypedSlotsD0Ev
node:_ZN2v88internal10TypedSlotsD1Ev
node:_ZN2v88internal10TypedSlotsD2Ev
node:_ZN2v88internal10WasmScript13SetBreakPointENS0_6HandleINS0_6ScriptEEEPiNS2_INS0_10BreakPointEEE
node:_ZN2v88internal10WasmScript15ClearBreakPointENS0_6HandleINS0_6ScriptEEEiNS2_INS0_10BreakPointEEE
node:_ZN2v88internal10WasmScript16CheckBreakPointsEPNS0_7IsolateENS0_6HandleINS0_6ScriptEEEiNS0_12StackFrameIdE
node:_ZN2v88internal10WasmScript19AddBreakpointToInfoENS0_6HandleINS0_6ScriptEEEiNS2_INS0_10BreakPointEEE
node:_ZN2v88internal10WasmScript19ClearAllBreakpointsENS0_6ScriptE
node:_ZN2v88internal10WasmScript19ClearBreakPointByIdENS0_6HandleINS0_6ScriptEEEi
node:_ZN2v88internal10WasmScript22GetPossibleBreakpointsEPNS0_4wasm12NativeModuleERKNS_5debug8LocationES8_PSt6vectorINS5_13BreakLocationESaISA_EE
node:_ZN2v88internal10WasmScript24SetBreakPointForFunctionENS0_6HandleINS0_6ScriptEEEiiNS2_INS0_10BreakPointEEE
node:_ZN2v88internal10WasmScript28SetInstrumentationBreakpointENS0_6HandleINS0_6ScriptEEENS2_INS0_10BreakPointEEE
node:_ZN2v88internal10WasmScript40SetBreakPointOnFirstBreakableForFunctionENS0_6HandleINS0_6ScriptEEEiNS2_INS0_10BreakPointEEE
node:_ZN2v88internal10WasmStruct13GetFieldValueEj
node:_ZN2v88internal10WasmStruct15WasmStructPrintERSo
node:_ZN2v88internal10WriteBytesEPKcPKhib
node:_ZN2v88internal10WriteCharsEPKcS2_ib
node:_ZN2v88internal10hash_valueENS0_14BytecodeOffsetE
node:_ZN2v88internal10hash_valueENS0_16DeoptimizeReasonE
node:_ZN2v88internal10hash_valueENS0_17ExternalReferenceE
node:_ZN2v88internal11AlignedFreeEPv
node:_ZN2v88internal11AsmWasmData16AsmWasmDataPrintERSo
node:_ZN2v88internal11AsmWasmData3NewEPNS0_7IsolateESt10shared_ptrINS0_4wasm12NativeModuleEENS0_6HandleINS0_10HeapNumberEEE
node:_ZN2v88internal11CallPrinter10VisitAwaitEPNS0_5AwaitE
node:_ZN2v88internal11CallPrinter10VisitBlockEPNS0_5BlockE
node:_ZN2v88internal11CallPrinter10VisitThrowEPNS0_5ThrowE
node:_ZN2v88internal11CallPrinter10VisitYieldEPNS0_5YieldE
node:_ZN2v88internal11CallPrinter11VisitSpreadEPNS0_6SpreadE
node:_ZN2v88internal11CallPrinter12PrintLiteralENS0_6HandleINS0_6ObjectEEEb
node:_ZN2v88internal11CallPrinter12PrintLiteralEPKNS0_12AstRawStringEb
node:_ZN2v88internal11CallPrinter12VisitCallNewEPNS0_7CallNewE
node:_ZN2v88internal11CallPrinter12VisitLiteralEPNS0_7LiteralE
node:_ZN2v88internal11CallPrinter13FindArgumentsEPKNS0_8ZoneListIPNS0_10ExpressionEEE
node:_ZN2v88internal11CallPrinter13VisitPropertyEPNS0_8PropertyE
node:_ZN2v88internal11CallPrinter14FindStatementsEPKNS0_8ZoneListIPNS0_9StatementEEE
node:_ZN2v88internal11CallPrinter14VisitYieldStarEPNS0_9YieldStarE
node:_ZN2v88internal11CallPrinter15VisitAssignmentEPNS0_10AssignmentE
node:_ZN2v88internal11CallPrinter16VisitCallRuntimeEPNS0_11CallRuntimeE
node:_ZN2v88internal11CallPrinter16VisitConditionalEPNS0_11ConditionalE
node:_ZN2v88internal11CallPrinter16VisitIfStatementEPNS0_11IfStatementE
node:_ZN2v88internal11CallPrinter17VisitArrayLiteralEPNS0_12ArrayLiteralE
node:_ZN2v88internal11CallPrinter17VisitClassLiteralEPNS0_12ClassLiteralE
node:_ZN2v88internal11CallPrinter17VisitForStatementEPNS0_12ForStatementE
node:_ZN2v88internal11CallPrinter18VisitNaryOperationEPNS0_13NaryOperationE
node:_ZN2v88internal11CallPrinter18VisitObjectLiteralEPNS0_13ObjectLiteralE
node:_ZN2v88internal11CallPrinter18VisitOptionalChainEPNS0_13OptionalChainE
node:_ZN2v88internal11CallPrinter18VisitRegExpLiteralEPNS0_13RegExpLiteralE
node:_ZN2v88internal11CallPrinter18VisitVariableProxyEPNS0_13VariableProxyE
node:_ZN2v88internal11CallPrinter18VisitWithStatementEPNS0_13WithStatementE
node:_ZN2v88internal11CallPrinter19VisitBreakStatementEPNS0_14BreakStatementE
node:_ZN2v88internal11CallPrinter19VisitCountOperationEPNS0_14CountOperationE
node:_ZN2v88internal11CallPrinter19VisitEmptyStatementEPNS0_14EmptyStatementE
node:_ZN2v88internal11CallPrinter19VisitForInStatementEPNS0_14ForInStatementE
node:_ZN2v88internal11CallPrinter19VisitForOfStatementEPNS0_14ForOfStatementE
node:_ZN2v88internal11CallPrinter19VisitThisExpressionEPNS0_14ThisExpressionE
node:_ZN2v88internal11CallPrinter19VisitUnaryOperationEPNS0_14UnaryOperationE
node:_ZN2v88internal11CallPrinter19VisitWhileStatementEPNS0_14WhileStatementE
node:_ZN2v88internal11CallPrinter20VisitBinaryOperationEPNS0_15BinaryOperationE
node:_ZN2v88internal11CallPrinter20VisitFunctionLiteralEPNS0_15FunctionLiteralE
node:_ZN2v88internal11CallPrinter20VisitReturnStatementEPNS0_15ReturnStatementE
node:_ZN2v88internal11CallPrinter20VisitSwitchStatementEPNS0_15SwitchStatementE
node:_ZN2v88internal11CallPrinter20VisitTemplateLiteralEPNS0_15TemplateLiteralE
node:_ZN2v88internal11CallPrinter21VisitCompareOperationEPNS0_16CompareOperationE
node:_ZN2v88internal11CallPrinter21VisitDoWhileStatementEPNS0_16DoWhileStatementE
node:_ZN2v88internal11CallPrinter21VisitEmptyParenthesesEPNS0_16EmptyParenthesesE
node:_ZN2v88internal11CallPrinter22VisitContinueStatementEPNS0_17ContinueStatementE
node:_ZN2v88internal11CallPrinter22VisitDebuggerStatementEPNS0_17DebuggerStatementE
node:_ZN2v88internal11CallPrinter22VisitGetTemplateObjectEPNS0_17GetTemplateObjectE
node:_ZN2v88internal11CallPrinter22VisitTryCatchStatementEPNS0_17TryCatchStatementE
node:_ZN2v88internal11CallPrinter23VisitCompoundAssignmentEPNS0_18CompoundAssignmentE
node:_ZN2v88internal11CallPrinter23VisitSuperCallReferenceEPNS0_18SuperCallReferenceE
node:_ZN2v88internal11CallPrinter24VisitExpressionStatementEPNS0_19ExpressionStatementE
node:_ZN2v88internal11CallPrinter24VisitFunctionDeclarationEPNS0_19FunctionDeclarationE
node:_ZN2v88internal11CallPrinter24VisitTryFinallyStatementEPNS0_19TryFinallyStatementE
node:_ZN2v88internal11CallPrinter24VisitVariableDeclarationEPNS0_19VariableDeclarationE
node:_ZN2v88internal11CallPrinter25VisitImportCallExpressionEPNS0_20ImportCallExpressionE
node:_ZN2v88internal11CallPrinter26VisitNativeFunctionLiteralEPNS0_21NativeFunctionLiteralE
node:_ZN2v88internal11CallPrinter27VisitSuperPropertyReferenceEPNS0_22SuperPropertyReferenceE
node:_ZN2v88internal11CallPrinter33VisitSloppyBlockFunctionStatementEPNS0_28SloppyBlockFunctionStatementE
node:_ZN2v88internal11CallPrinter36VisitInitializeClassMembersStatementEPNS0_31InitializeClassMembersStatementE
node:_ZN2v88internal11CallPrinter43VisitInitializeClassStaticElementsStatementEPNS0_38InitializeClassStaticElementsStatementE
node:_ZN2v88internal11CallPrinter4FindEPNS0_7AstNodeEb
node:_ZN2v88internal11CallPrinter5PrintENS0_6HandleINS0_6StringEEE
node:_ZN2v88internal11CallPrinter5PrintEPKc
node:_ZN2v88internal11CallPrinter5PrintEPNS0_15FunctionLiteralEi
node:_ZN2v88internal11CallPrinter5PrintEc
node:_ZN2v88internal11CallPrinter9VisitCallEPNS0_4CallE
node:_ZN2v88internal11CallPrinterC1EPNS0_7IsolateEbNS1_21SpreadErrorInArgsHintE
node:_ZN2v88internal11CallPrinterC2EPNS0_7IsolateEbNS1_21SpreadErrorInArgsHintE
node:_ZN2v88internal11CallPrinterD1Ev
node:_ZN2v88internal11CallPrinterD2Ev
node:_ZN2v88internal11CallRuntime10debug_nameEv
node:_ZN2v88internal11CodeFactory11CallVarargsEPNS0_7IsolateE
node:_ZN2v88internal11CodeFactory12CallFunctionEPNS0_7IsolateENS0_19ConvertReceiverModeE
node:_ZN2v88internal11CodeFactory12LoadGlobalICEPNS0_7IsolateENS0_10TypeofModeE
node:_ZN2v88internal11CodeFactory13RuntimeCEntryEPNS0_7IsolateEi
node:_ZN2v88internal11CodeFactory14CallWithSpreadEPNS0_7IsolateE
node:_ZN2v88internal11CodeFactory15CallApiCallbackEPNS0_7IsolateE
node:_ZN2v88internal11CodeFactory15ResumeGeneratorEPNS0_7IsolateE
node:_ZN2v88internal11CodeFactory16ConstructVarargsEPNS0_7IsolateE
node:_ZN2v88internal11CodeFactory16DefineNamedOwnICEPNS0_7IsolateE
node:_ZN2v88internal11CodeFactory17CallWithArrayLikeEPNS0_7IsolateE
node:_ZN2v88internal11CodeFactory17Call_WithFeedbackEPNS0_7IsolateENS0_19ConvertReceiverModeE
node:_ZN2v88internal11CodeFactory17ConstructFunctionEPNS0_7IsolateE
node:_ZN2v88internal11CodeFactory17InterpreterCEntryEPNS0_7IsolateEi
node:_ZN2v88internal11CodeFactory18CallForwardVarargsEPNS0_7IsolateE
node:_ZN2v88internal11CodeFactory19ConstructWithSpreadEPNS0_7IsolateE
node:_ZN2v88internal11CodeFactory19OrdinaryToPrimitiveEPNS0_7IsolateENS0_23OrdinaryToPrimitiveHintE
node:_ZN2v88internal11CodeFactory22FastNewFunctionContextEPNS0_7IsolateENS0_9ScopeTypeE
node:_ZN2v88internal11CodeFactory23ConstructForwardVarargsEPNS0_7IsolateE
node:_ZN2v88internal11CodeFactory23NonPrimitiveToPrimitiveEPNS0_7IsolateENS0_15ToPrimitiveHintE
node:_ZN2v88internal11CodeFactory26ArrayNoArgumentConstructorEPNS0_7IsolateENS0_12ElementsKindENS0_26AllocationSiteOverrideModeE
node:_ZN2v88internal11CodeFactory26CallFunctionForwardVarargsEPNS0_7IsolateE
node:_ZN2v88internal11CodeFactory27InterpreterPushArgsThenCallEPNS0_7IsolateENS0_19ConvertReceiverModeENS0_23InterpreterPushArgsModeE
node:_ZN2v88internal11CodeFactory27LoadGlobalICInOptimizedCodeEPNS0_7IsolateENS0_10TypeofModeE
node:_ZN2v88internal11CodeFactory29InterpreterOnStackReplacementEPNS0_7IsolateE
node:_ZN2v88internal11CodeFactory30ArraySingleArgumentConstructorEPNS0_7IsolateENS0_12ElementsKindENS0_26AllocationSiteOverrideModeE
node:_ZN2v88internal11CodeFactory31ConstructFunctionForwardVarargsEPNS0_7IsolateE
node:_ZN2v88internal11CodeFactory31DefineNamedOwnICInOptimizedCodeEPNS0_7IsolateE
node:_ZN2v88internal11CodeFactory32InterpreterPushArgsThenConstructEPNS0_7IsolateENS0_23InterpreterPushArgsModeE
node:_ZN2v88internal11CodeFactory40InterpreterOnStackReplacement_ToBaselineEPNS0_7IsolateE
node:_ZN2v88internal11CodeFactory4CallEPNS0_7IsolateENS0_19ConvertReceiverModeE
node:_ZN2v88internal11CodeFactory6CEntryEPNS0_7IsolateEiNS0_8ArgvModeEb
node:_ZN2v88internal11CodeFactory9ApiGetterEPNS0_7IsolateE
node:_ZN2v88internal11CodeFactory9ConstructEPNS0_7IsolateE
node:_ZN2v88internal11CodeFactory9StringAddEPNS0_7IsolateENS0_14StringAddFlagsE
node:_ZN2v88internal11CpuFeatures10supported_E
node:_ZN2v88internal11CpuFeatures11FlushICacheEPvm
node:_ZN2v88internal11CpuFeatures11PrintTargetEv
node:_ZN2v88internal11CpuFeatures12initialized_E
node:_ZN2v88internal11CpuFeatures13PrintFeaturesEv
node:_ZN2v88internal11CpuFeatures15supports_cetss_E
node:_ZN2v88internal11CpuFeatures17dcache_line_size_E
node:_ZN2v88internal11CpuFeatures17icache_line_size_E
node:_ZN2v88internal11CpuFeatures19SupportsWasmSimd128Ev
node:_ZN2v88internal11CpuFeatures23supports_wasm_simd_128_E
node:_ZN2v88internal11CpuFeatures9ProbeImplEb
node:_ZN2v88internal11CpuProfiler10GetProfileEi
node:_ZN2v88internal11CpuProfiler13CollectSampleEPNS0_7IsolateE
node:_ZN2v88internal11CpuProfiler13CollectSampleEv
node:_ZN2v88internal11CpuProfiler13DeleteProfileEPNS0_10CpuProfileE
node:_ZN2v88internal11CpuProfiler13EnableLoggingEv
node:_ZN2v88internal11CpuProfiler13ResetProfilesEv
node:_ZN2v88internal11CpuProfiler13StopProcessorEv
node:_ZN2v88internal11CpuProfiler13StopProfilingENS0_6StringE
node:_ZN2v88internal11CpuProfiler13StopProfilingEPKc
node:_ZN2v88internal11CpuProfiler13StopProfilingEj
node:_ZN2v88internal11CpuProfiler14DisableLoggingEv
node:_ZN2v88internal11CpuProfiler14StartProfilingENS0_6StringENS_19CpuProfilingOptionsESt10unique_ptrINS_24DiscardedSamplesDelegateESt14default_deleteIS5_EE
node:_ZN2v88internal11CpuProfiler14StartProfilingENS_19CpuProfilingOptionsESt10unique_ptrINS_24DiscardedSamplesDelegateESt14default_deleteIS4_EE
node:_ZN2v88internal11CpuProfiler14StartProfilingEPKcNS_19CpuProfilingOptionsESt10unique_ptrINS_24DiscardedSamplesDelegateESt14default_deleteIS6_EE
node:_ZN2v88internal11CpuProfiler16GetProfilesCountEv
node:_ZN2v88internal11CpuProfiler17DeleteAllProfilesEv
node:_ZN2v88internal11CpuProfiler21set_sampling_intervalENS_4base9TimeDeltaE
node:_ZN2v88internal11CpuProfiler22AdjustSamplingIntervalEv
node:_ZN2v88internal11CpuProfiler23ComputeSamplingIntervalEv
node:_ZN2v88internal11CpuProfiler24set_use_precise_samplingEb
node:_ZN2v88internal11CpuProfiler25GetAllProfilersMemorySizeEPNS0_7IsolateE
node:_ZN2v88internal11CpuProfiler26StartProcessorIfNotStartedEv
node:_ZN2v88internal11CpuProfilerC1EPNS0_7IsolateENS_22CpuProfilingNamingModeENS_23CpuProfilingLoggingModeE
node:_ZN2v88internal11CpuProfilerC1EPNS0_7IsolateENS_22CpuProfilingNamingModeENS_23CpuProfilingLoggingModeEPNS0_21CpuProfilesCollectionEPNS0_10SymbolizerEPNS0_23ProfilerEventsProcessorEPNS0_20ProfilerCodeObserverE
node:_ZN2v88internal11CpuProfilerC2EPNS0_7IsolateENS_22CpuProfilingNamingModeENS_23CpuProfilingLoggingModeE
node:_ZN2v88internal11CpuProfilerC2EPNS0_7IsolateENS_22CpuProfilingNamingModeENS_23CpuProfilingLoggingModeEPNS0_21CpuProfilesCollectionEPNS0_10SymbolizerEPNS0_23ProfilerEventsProcessorEPNS0_20ProfilerCodeObserverE
node:_ZN2v88internal11CpuProfilerD1Ev
node:_ZN2v88internal11CpuProfilerD2Ev
node:_ZN2v88internal11Deoptimizer10MessageForENS0_14DeoptimizeKindE
node:_ZN2v88internal11Deoptimizer12GetDeoptInfoENS0_4CodeEm
node:_ZN2v88internal11Deoptimizer13DeoptimizeAllEPNS0_7IsolateE
node:_ZN2v88internal11Deoptimizer13TraceDeoptAllEPNS0_7IsolateE
node:_ZN2v88internal11Deoptimizer13TraceDeoptEndEd
node:_ZN2v88internal11Deoptimizer15TraceDeoptBeginEiNS0_14BytecodeOffsetE
node:_ZN2v88internal11Deoptimizer18DeoptimizeFunctionENS0_10JSFunctionENS0_4CodeE
node:_ZN2v88internal11Deoptimizer18kLazyDeoptExitSizeE
node:_ZN2v88internal11Deoptimizer19ComputeOutputFramesEPS1_
node:_ZN2v88internal11Deoptimizer19kEagerDeoptExitSizeE
node:_ZN2v88internal11Deoptimizer20DeoptimizeMarkedCodeEPNS0_7IsolateE
node:_ZN2v88internal11Deoptimizer21DoComputeOutputFramesEv
node:_ZN2v88internal11Deoptimizer22GetDeoptimizationEntryENS0_14DeoptimizeKindE
node:_ZN2v88internal11Deoptimizer22MaterializeHeapObjectsEv
node:_ZN2v88internal11Deoptimizer23DeleteFrameDescriptionsEv
node:_ZN2v88internal11Deoptimizer24DebuggerInspectableFrameEPNS0_15JavaScriptFrameEiPNS0_7IsolateE
node:_ZN2v88internal11Deoptimizer25DoComputeUnoptimizedFrameEPNS0_15TranslatedFrameEib
node:_ZN2v88internal11Deoptimizer26TraceMarkForDeoptimizationEPNS0_7IsolateENS0_4CodeEPKc
node:_ZN2v88internal11Deoptimizer27ComputeIncomingArgumentSizeENS0_18SharedFunctionInfoE
node:_ZN2v88internal11Deoptimizer27DoComputeConstructStubFrameEPNS0_15TranslatedFrameEi
node:_ZN2v88internal11Deoptimizer28DoComputeBuiltinContinuationEPNS0_15TranslatedFrameEiNS0_23BuiltinContinuationModeE
node:_ZN2v88internal11Deoptimizer28QueueValueForMaterializationEmNS0_6ObjectERKNS0_15TranslatedFrame8iteratorE
node:_ZN2v88internal11Deoptimizer30DoComputeInlinedExtraArgumentsEPNS0_15TranslatedFrameEi
node:_ZN2v88internal11Deoptimizer32TraceEvictFromOptimizedCodeCacheEPNS0_7IsolateENS0_18SharedFunctionInfoEPKc
node:_ZN2v88internal11Deoptimizer32TrampolineForBuiltinContinuationENS0_23BuiltinContinuationModeEb
node:_ZN2v88internal11Deoptimizer32TranslatedValueForWasmReturnKindENS_4base8OptionalINS0_4wasm9ValueKindEEE
node:_ZN2v88internal11Deoptimizer38DeoptimizeAllOptimizedCodeWithFunctionEPNS0_7IsolateENS0_6HandleINS0_18SharedFunctionInfoEEE
node:_ZN2v88internal11Deoptimizer3NewEmNS0_14DeoptimizeKindEmiPNS0_7IsolateE
node:_ZN2v88internal11Deoptimizer4GrabEPNS0_7IsolateE
node:_ZN2v88internal11DeoptimizerC1EPNS0_7IsolateENS0_10JSFunctionENS0_14DeoptimizeKindEmi
node:_ZN2v88internal11DeoptimizerC2EPNS0_7IsolateENS0_10JSFunctionENS0_14DeoptimizeKindEmi
node:_ZN2v88internal11DeoptimizerD1Ev
node:_ZN2v88internal11DeoptimizerD2Ev
node:_ZN2v88internal11GCExtension25GetNativeFunctionTemplateEPNS_7IsolateENS_5LocalINS_6StringEEE
node:_ZN2v88internal11GCExtension2GCERKNS_20FunctionCallbackInfoINS_5ValueEEE
node:_ZN2v88internal11GetRWDigitsENS0_13MutableBigIntE
node:_ZN2v88internal11GetRWDigitsENS0_6HandleINS0_13MutableBigIntEEE
node:_ZN2v88internal11HandleScope15NumberOfHandlesEPNS0_7IsolateE
node:_ZN2v88internal11HandleScope16DeleteExtensionsEPNS0_7IsolateE
node:_ZN2v88internal11HandleScope20current_next_addressEPNS0_7IsolateE
node:_ZN2v88internal11HandleScope21current_level_addressEPNS0_7IsolateE
node:_ZN2v88internal11HandleScope21current_limit_addressEPNS0_7IsolateE
node:_ZN2v88internal11HandleScope6ExtendEPNS0_7IsolateE
node:_ZN2v88internal11InstallFuncEPNS0_7IsolateENS0_6HandleINS0_8JSObjectEEEPKcPFvRKNS_20FunctionCallbackInfoINS_5ValueEEEEibNS0_18PropertyAttributesENS_14SideEffectTypeE
node:_ZN2v88internal11JSSegmenter15ResolvedOptionsEPNS0_7IsolateENS0_6HandleIS1_EE
node:_ZN2v88internal11JSSegmenter16JSSegmenterPrintERSo
node:_ZN2v88internal11JSSegmenter19GetAvailableLocalesB5cxx11Ev
node:_ZN2v88internal11JSSegmenter20GetGranularityStringEPNS0_7IsolateENS1_11GranularityE
node:_ZN2v88internal11JSSegmenter3NewEPNS0_7IsolateENS0_6HandleINS0_3MapEEENS4_INS0_6ObjectEEES8_
node:_ZN2v88internal11KeyedLoadIC11RuntimeLoadENS0_6HandleINS0_6ObjectEEES4_
node:_ZN2v88internal11KeyedLoadIC17UpdateLoadElementENS0_6HandleINS0_10HeapObjectEEENS0_19KeyedAccessLoadModeE
node:_ZN2v88internal11KeyedLoadIC18LoadElementHandlerENS0_6HandleINS0_3MapEEENS0_19KeyedAccessLoadModeE
node:_ZN2v88internal11KeyedLoadIC27CanChangeToAllowOutOfBoundsENS0_6HandleINS0_3MapEEE
node:_ZN2v88internal11KeyedLoadIC30LoadElementPolymorphicHandlersEPSt6vectorINS0_6HandleINS0_3MapEEESaIS5_EEPS2_INS0_17MaybeObjectHandleESaIS9_EENS0_19KeyedAccessLoadModeE
node:_ZN2v88internal11KeyedLoadIC4LoadENS0_6HandleINS0_6ObjectEEES4_
node:_ZN2v88internal11LoadHandler12PrintHandlerENS0_6ObjectERSo
node:_ZN2v88internal11LoadHandler13LoadFullChainEPNS0_7IsolateENS0_6HandleINS0_3MapEEERKNS0_17MaybeObjectHandleENS4_INS0_3SmiEEE
node:_ZN2v88internal11LoadHandler16LoadHandlerPrintERSo
node:_ZN2v88internal11LoadHandler17LoadFromPrototypeEPNS0_7IsolateENS0_6HandleINS0_3MapEEENS4_INS0_10JSReceiverEEENS4_INS0_3SmiEEENS0_17MaybeObjectHandleESB_
node:_ZN2v88internal11LoadHandler22GetKeyedAccessLoadModeENS0_11MaybeObjectE
node:_ZN2v88internal11LoadHandler29CanHandleHolderNotLookupStartENS0_6ObjectE
node:_ZN2v88internal11LocalLogger10MapDetailsENS0_3MapE
node:_ZN2v88internal11LocalLogger11ScriptEventENS0_15ScriptEventTypeEi
node:_ZN2v88internal11LocalLogger13ScriptDetailsENS0_6ScriptE
node:_ZN2v88internal11LocalLogger26CodeLinePosInfoRecordEventEmNS0_9ByteArrayENS_12JitCodeEvent8CodeTypeE
node:_ZN2v88internal11LocalLogger9MapCreateENS0_3MapE
node:_ZN2v88internal11LocalLoggerC1EPNS0_7IsolateE
node:_ZN2v88internal11LocalLoggerC2EPNS0_7IsolateE
node:_ZN2v88internal11MaglevFrame19StackGuardFrameSizeEi
node:_ZN2v88internal11MemoryChunk11SetReadableEv
node:_ZN2v88internal11MemoryChunk14ReleaseSlotSetEPPNS0_7SlotSetE
node:_ZN2v88internal11MemoryChunk15AllocateSlotSetEPPNS0_7SlotSetE
node:_ZN2v88internal11MemoryChunk15FreeListsLengthEv
node:_ZN2v88internal11MemoryChunk19DiscardUnusedMemoryEmm
node:_ZN2v88internal11MemoryChunk20SetReadAndExecutableEv
node:_ZN2v88internal11MemoryChunk25InitializationMemoryFenceEv
node:_ZN2v88internal11MemoryChunk25ReleaseAllAllocatedMemoryEv
node:_ZN2v88internal11MemoryChunk25SetDefaultCodePermissionsEv
node:_ZN2v88internal11MemoryChunk25SetOldGenerationPageFlagsEb
node:_ZN2v88internal11MemoryChunk27SetYoungGenerationPageFlagsEb
node:_ZN2v88internal11MemoryChunk30SetCodeModificationPermissionsEv
node:_ZN2v88internal11MemoryChunk44ReleaseAllocatedMemoryNeededForWritableChunkEv
node:_ZN2v88internal11MemoryChunk52DecrementWriteUnprotectCounterAndMaybeSetPermissionsENS_13PageAllocator10PermissionE
node:_ZN2v88internal11MemoryChunkC1EPNS0_4HeapEPNS0_9BaseSpaceEmmmNS0_13VirtualMemoryENS0_13ExecutabilityENS0_8PageSizeE
node:_ZN2v88internal11MemoryChunkC2EPNS0_4HeapEPNS0_9BaseSpaceEmmmNS0_13VirtualMemoryENS0_13ExecutabilityENS0_8PageSizeE
node:_ZN2v88internal11ModuleScope23AllocateModuleVariablesEv
node:_ZN2v88internal11ModuleScopeC1ENS0_6HandleINS0_9ScopeInfoEEEPNS0_15AstValueFactoryE
node:_ZN2v88internal11ModuleScopeC1EPNS0_16DeclarationScopeEPNS0_15AstValueFactoryE
node:_ZN2v88internal11ModuleScopeC2ENS0_6HandleINS0_9ScopeInfoEEEPNS0_15AstValueFactoryE
node:_ZN2v88internal11ModuleScopeC2EPNS0_16DeclarationScopeEPNS0_15AstValueFactoryE
node:_ZN2v88internal11NoExtensionERKNS_20FunctionCallbackInfoINS_5ValueEEE
node:_ZN2v88internal11ObjectStats13PrintKeyAndIdEPKci
node:_ZN2v88internal11ObjectStats16ClearObjectStatsEb
node:_ZN2v88internal11ObjectStats17RecordObjectStatsENS0_12InstanceTypeEmm
node:_ZN2v88internal11ObjectStats20DumpInstanceTypeDataERNSt7__cxx1118basic_stringstreamIcSt11char_traitsIcESaIcEEEPKci
node:_ZN2v88internal11ObjectStats21CheckpointObjectStatsEv
node:_ZN2v88internal11ObjectStats21PrintInstanceTypeJSONEPKciS3_i
node:_ZN2v88internal11ObjectStats22HistogramIndexFromSizeEm
node:_ZN2v88internal11ObjectStats24RecordVirtualObjectStatsENS1_19VirtualInstanceTypeEmm
node:_ZN2v88internal11ObjectStats4DumpERNSt7__cxx1118basic_stringstreamIcSt11char_traitsIcESaIcEEE
node:_ZN2v88internal11ObjectStats7isolateEv
node:_ZN2v88internal11ObjectStats9PrintJSONEPKc
node:_ZN2v88internal11ProfileNode14FindOrAddChildEPNS0_9CodeEntryEi
node:_ZN2v88internal11ProfileNode16CollectDeoptInfoEPNS0_9CodeEntryE
node:_ZN2v88internal11ProfileNode18IncrementLineTicksEi
node:_ZN2v88internal11ProfileNode9FindChildEPNS0_9CodeEntryEi
node:_ZN2v88internal11ProfileNodeD1Ev
node:_ZN2v88internal11ProfileNodeD2Ev
node:_ZN2v88internal11ProfileTree14AddPathFromEndERKSt6vectorINS0_22CodeEntryAndLineNumberESaIS3_EEibNS_16CpuProfilingModeE
node:_ZN2v88internal11ProfileTree14AddPathFromEndERKSt6vectorIPNS0_9CodeEntryESaIS4_EEib
node:_ZN2v88internal11ProfileTreeC1EPNS0_7IsolateEPNS0_16CodeEntryStorageE
node:_ZN2v88internal11ProfileTreeC2EPNS0_7IsolateEPNS0_16CodeEntryStorageE
node:_ZN2v88internal11ProfileTreeD1Ev
node:_ZN2v88internal11ProfileTreeD2Ev
node:_ZN2v88internal11PropertyKeyC1EPNS0_7IsolateENS0_6HandleINS0_6ObjectEEEPb
node:_ZN2v88internal11PropertyKeyC2EPNS0_7IsolateENS0_6HandleINS0_6ObjectEEEPb
node:_ZN2v88internal11RegExpEmpty6AcceptEPNS0_13RegExpVisitorEPv
node:_ZN2v88internal11RegExpEmpty6ToNodeEPNS0_14RegExpCompilerEPNS0_10RegExpNodeE
node:_ZN2v88internal11RegExpEmpty7AsEmptyEv
node:_ZN2v88internal11RegExpEmpty7IsEmptyEv
node:_ZN2v88internal11RegExpGroup6AcceptEPNS0_13RegExpVisitorEPv
node:_ZN2v88internal11RegExpGroup6ToNodeEPNS0_14RegExpCompilerEPNS0_10RegExpNodeE
node:_ZN2v88internal11RegExpGroup7AsGroupEv
node:_ZN2v88internal11RegExpGroup7IsGroupEv
node:_ZN2v88internal11RegExpStack11ThreadLocal17FreeAndInvalidateEv
node:_ZN2v88internal11RegExpStack11ThreadLocal18ResetToStaticStackEPS1_
node:_ZN2v88internal11RegExpStack12ArchiveStackEPc
node:_ZN2v88internal11RegExpStack12RestoreStackEPc
node:_ZN2v88internal11RegExpStack14EnsureCapacityEm
node:_ZN2v88internal11RegExpStackC1Ev
node:_ZN2v88internal11RegExpStackC2Ev
node:_ZN2v88internal11RegExpStackD1Ev
node:_ZN2v88internal11RegExpStackD2Ev
node:_ZN2v88internal11RegExpUtils10RegExpExecEPNS0_7IsolateENS0_6HandleINS0_10JSReceiverEEENS4_INS0_6StringEEENS4_INS0_6ObjectEEE
node:_ZN2v88internal11RegExpUtils12GetLastIndexEPNS0_7IsolateENS0_6HandleINS0_10JSReceiverEEE
node:_ZN2v88internal11RegExpUtils12SetLastIndexEPNS0_7IsolateENS0_6HandleINS0_10JSReceiverEEEm
node:_ZN2v88internal11RegExpUtils18AdvanceStringIndexENS0_6HandleINS0_6StringEEEmb
node:_ZN2v88internal11RegExpUtils18IsUnmodifiedRegExpEPNS0_7IsolateENS0_6HandleINS0_6ObjectEEE
node:_ZN2v88internal11RegExpUtils20GenericCaptureGetterEPNS0_7IsolateENS0_6HandleINS0_15RegExpMatchInfoEEEiPb
node:_ZN2v88internal11RegExpUtils22SetAdvancedStringIndexEPNS0_7IsolateENS0_6HandleINS0_10JSReceiverEEENS4_INS0_6StringEEEb
node:_ZN2v88internal11Relocatable12ArchiveStateEPNS0_7IsolateEPc
node:_ZN2v88internal11Relocatable12RestoreStateEPNS0_7IsolateEPc
node:_ZN2v88internal11Relocatable21ArchiveSpacePerThreadEv
node:_ZN2v88internal11Relocatable31PostGarbageCollectionProcessingEPNS0_7IsolateE
node:_ZN2v88internal11Relocatable7IterateEPNS0_11RootVisitorEPS1_
node:_ZN2v88internal11Relocatable7IterateEPNS0_11RootVisitorEPc
node:_ZN2v88internal11Relocatable7IterateEPNS0_7IsolateEPNS0_11RootVisitorE
node:_ZN2v88internal11RootVisitor8RootNameENS0_4RootE
node:_ZN2v88internal11Runtime_AddEiPmPNS0_7IsolateE
node:_ZN2v88internal11SHA256_hashEPKvmPh
node:_ZN2v88internal11SHA256_initEPNS0_8HASH_CTXE
node:_ZN2v88internal11SaveContextC1EPNS0_7IsolateE
node:_ZN2v88internal11SaveContextC2EPNS0_7IsolateE
node:_ZN2v88internal11SaveContextD1Ev
node:_ZN2v88internal11SaveContextD2Ev
node:_ZN2v88internal11StringTable11DropOldDataEv
node:_ZN2v88internal11StringTable12LookupStringEPNS0_7IsolateENS0_6HandleINS0_6StringEEE
node:_ZN2v88internal11StringTable14EnsureCapacityENS0_16PtrComprCageBaseEi
node:_ZN2v88internal11StringTable15IterateElementsEPNS0_11RootVisitorE
node:_ZN2v88internal11StringTable21NotifyElementsRemovedEi
node:_ZN2v88internal11StringTable32TryStringToIndexOrLookupExistingEPNS0_7IsolateEm
node:_ZN2v88internal11StringTable4Data15IterateElementsEPNS0_11RootVisitorE
node:_ZN2v88internal11StringTable4Data3NewEi
node:_ZN2v88internal11StringTable4Data6ResizeENS0_16PtrComprCageBaseESt10unique_ptrIS2_St14default_deleteIS2_EEi
node:_ZN2v88internal11StringTable4DataC1Ei
node:_ZN2v88internal11StringTable4DataC2Ei
node:_ZN2v88internal11StringTable4DatadlEPv
node:_ZN2v88internal11StringTable4DatanwEmi
node:_ZN2v88internal11StringTableC1EPNS0_7IsolateE
node:_ZN2v88internal11StringTableC2EPNS0_7IsolateE
node:_ZN2v88internal11StringTableD1Ev
node:_ZN2v88internal11StringTableD2Ev
node:_ZN2v88internal11StringToIntEPNS0_7IsolateENS0_6HandleINS0_6StringEEEi
node:_ZN2v88internal11TextElement11ClassRangesEPNS0_17RegExpClassRangesE
node:_ZN2v88internal11TextElement4AtomEPNS0_10RegExpAtomE
node:_ZN2v88internal11ThreadState13AllocateSpaceEv
node:_ZN2v88internal11ThreadState4NextEv
node:_ZN2v88internal11ThreadState6UnlinkEv
node:_ZN2v88internal11ThreadState8LinkIntoENS1_4ListE
node:_ZN2v88internal11ThreadStateC1EPNS0_13ThreadManagerE
node:_ZN2v88internal11ThreadStateC2EPNS0_13ThreadManagerE
node:_ZN2v88internal11ThreadStateD1Ev
node:_ZN2v88internal11ThreadStateD2Ev
node:_ZN2v88internal11TickCounter15AttachLocalHeapEPNS0_9LocalHeapE
node:_ZN2v88internal11TickCounter15DetachLocalHeapEv
node:_ZN2v88internal11V8HeapTrait5kNameE
node:_ZN2v88internal11VariableMap3AddEPNS0_8VariableE
node:_ZN2v88internal11VariableMap6LookupEPKNS0_12AstRawStringE
node:_ZN2v88internal11VariableMap6RemoveEPNS0_8VariableE
node:_ZN2v88internal11VariableMap7DeclareEPNS0_4ZoneEPNS0_5ScopeEPKNS0_12AstRawStringENS0_12VariableModeENS0_12VariableKindENS0_18InitializationFlagENS0_17MaybeAssignedFlagENS0_12IsStaticFlagEPb
node:_ZN2v88internal11VariableMapC1EPNS0_4ZoneE
node:_ZN2v88internal11VariableMapC1ERKS1_PNS0_4ZoneE
node:_ZN2v88internal11VariableMapC2EPNS0_4ZoneE
node:_ZN2v88internal11VariableMapC2ERKS1_PNS0_4ZoneE
node:_ZN2v88internal11WeakObjects15UpdateWeakCellsERN4heap4base8WorklistINS0_8WeakCellELt64EEE
node:_ZN2v88internal11WeakObjects16UpdateJSWeakRefsERN4heap4base8WorklistINS0_9JSWeakRefELt64EEE
node:_ZN2v88internal11WeakObjects19UpdateAfterScavengeEv
node:_ZN2v88internal11WeakObjects20UpdateNextEphemeronsERN4heap4base8WorklistINS0_9EphemeronELt64EEE
node:_ZN2v88internal11WeakObjects20UpdateWeakReferencesERN4heap4base8WorklistISt4pairINS0_10HeapObjectENS0_18FullHeapObjectSlotEELt64EEE
node:_ZN2v88internal11WeakObjects22UpdateTransitionArraysERN4heap4base8WorklistINS0_15TransitionArrayELt64EEE
node:_ZN2v88internal11WeakObjects23UpdateCurrentEphemeronsERN4heap4base8WorklistINS0_9EphemeronELt64EEE
node:_ZN2v88internal11WeakObjects23UpdateWeakObjectsInCodeERN4heap4base8WorklistISt4pairINS0_10HeapObjectENS0_4CodeEELt64EEE
node:_ZN2v88internal11WeakObjects24UpdateFlushedJSFunctionsERN4heap4base8WorklistINS0_10JSFunctionELt64EEE
node:_ZN2v88internal11WeakObjects25UpdateEphemeronHashTablesERN4heap4base8WorklistINS0_18EphemeronHashTableELt64EEE
node:_ZN2v88internal11WeakObjects26UpdateDiscoveredEphemeronsERN4heap4base8WorklistINS0_9EphemeronELt64EEE
node:_ZN2v88internal11WeakObjects28UpdateCodeFlushingCandidatesERN4heap4base8WorklistINS0_18SharedFunctionInfoELt64EEE
node:_ZN2v88internal11WeakObjects32UpdateBaselineFlushingCandidatesERN4heap4base8WorklistINS0_10JSFunctionELt64EEE
node:_ZN2v88internal11WeakObjects5ClearEv
node:_ZN2v88internal11WeakObjects5Local7PublishEv
node:_ZN2v88internal11WeakObjects5LocalC1EPS1_
node:_ZN2v88internal11WeakObjects5LocalC2EPS1_
node:_ZN2v88internal11interpreter11Interpreter10InitializeEv
node:_ZN2v88internal11interpreter11Interpreter15ForEachBytecodeERKSt8functionIFvNS1_8BytecodeENS1_12OperandScaleEEE
node:_ZN2v88internal11interpreter11Interpreter17NewCompilationJobEPNS0_9ParseInfoEPNS0_15FunctionLiteralENS0_6HandleINS0_6ScriptEEEPNS0_19AccountingAllocatorEPSt6vectorIS6_SaIS6_EEPNS0_12LocalIsolateE
node:_ZN2v88internal11interpreter11Interpreter18GetBytecodeHandlerENS1_8BytecodeENS1_12OperandScaleE
node:_ZN2v88internal11interpreter11Interpreter18SetBytecodeHandlerENS1_8BytecodeENS1_12OperandScaleENS0_4CodeE
node:_ZN2v88internal11interpreter11Interpreter20InitDispatchCountersEv
node:_ZN2v88internal11interpreter11Interpreter21GetDispatchTableIndexENS1_8BytecodeENS1_12OperandScaleE
node:_ZN2v88internal11interpreter11Interpreter25GetDispatchCountersObjectEv
node:_ZN2v88internal11interpreter11Interpreter30NewSourcePositionCollectionJobEPNS0_9ParseInfoEPNS0_15FunctionLiteralENS0_6HandleINS0_13BytecodeArrayEEEPNS0_19AccountingAllocatorEPNS0_12LocalIsolateE
node:_ZN2v88internal11interpreter11InterpreterC1EPNS0_7IsolateE
node:_ZN2v88internal11interpreter11InterpreterC2EPNS0_7IsolateE
node:_ZN2v88internal11interpreter11LoopBuilder10LoopHeaderEv
node:_ZN2v88internal11interpreter11LoopBuilder11BindLoopEndEv
node:_ZN2v88internal11interpreter11LoopBuilder12JumpToHeaderEiPS2_
node:_ZN2v88internal11interpreter11LoopBuilder18BindContinueTargetEv
node:_ZN2v88internal11interpreter11LoopBuilder8LoopBodyEv
node:_ZN2v88internal11interpreter11LoopBuilderD0Ev
node:_ZN2v88internal11interpreter11LoopBuilderD1Ev
node:_ZN2v88internal11interpreter11LoopBuilderD2Ev
node:_ZN2v88internal11interpreter13SwitchBuilder11BindDefaultEPNS0_10CaseClauseE
node:_ZN2v88internal11interpreter13SwitchBuilder13JumpToDefaultEv
node:_ZN2v88internal11interpreter13SwitchBuilder16JumpToCaseIfTrueENS1_20BytecodeArrayBuilder13ToBooleanModeEi
node:_ZN2v88internal11interpreter13SwitchBuilder21EmitJumpTableIfExistsEiiRSt3mapIiPNS0_10CaseClauseESt4lessIiESaISt4pairIKiS5_EEE
node:_ZN2v88internal11interpreter13SwitchBuilder24JumpToFallThroughIfFalseEv
node:_ZN2v88internal11interpreter13SwitchBuilder26BindCaseTargetForJumpTableEiPNS0_10CaseClauseE
node:_ZN2v88internal11interpreter13SwitchBuilder28BindCaseTargetForCompareJumpEiPNS0_10CaseClauseE
node:_ZN2v88internal11interpreter13SwitchBuilderD0Ev
node:_ZN2v88internal11interpreter13SwitchBuilderD1Ev
node:_ZN2v88internal11interpreter13SwitchBuilderD2Ev
node:_ZN2v88internal11interpreter14BytecodeLabels3NewEv
node:_ZN2v88internal11interpreter14BytecodeLabels4BindEPNS1_20BytecodeArrayBuilderE
node:_ZN2v88internal11interpreter15BytecodeDecoder19DecodeSignedOperandEmNS1_11OperandTypeENS1_12OperandScaleE
node:_ZN2v88internal11interpreter15BytecodeDecoder21DecodeRegisterOperandEmNS1_11OperandTypeENS1_12OperandScaleE
node:_ZN2v88internal11interpreter15BytecodeDecoder21DecodeUnsignedOperandEmNS1_11OperandTypeENS1_12OperandScaleE
node:_ZN2v88internal11interpreter15BytecodeDecoder25DecodeRegisterListOperandEmjNS1_11OperandTypeENS1_12OperandScaleE
node:_ZN2v88internal11interpreter15BytecodeDecoder6DecodeERSoPKhb
node:_ZN2v88internal11interpreter15TestTypeOfFlags17GetFlagForLiteralEPKNS0_18AstStringConstantsEPNS0_7LiteralE
node:_ZN2v88internal11interpreter15TestTypeOfFlags6DecodeEh
node:_ZN2v88internal11interpreter15TestTypeOfFlags6EncodeENS2_11LiteralFlagE
node:_ZN2v88internal11interpreter15TestTypeOfFlags8ToStringENS2_11LiteralFlagE
node:_ZN2v88internal11interpreter15TryCatchBuilder6EndTryEv
node:_ZN2v88internal11interpreter15TryCatchBuilder8BeginTryENS1_8RegisterE
node:_ZN2v88internal11interpreter15TryCatchBuilder8EndCatchEv
node:_ZN2v88internal11interpreter15TryCatchBuilderD0Ev
node:_ZN2v88internal11interpreter15TryCatchBuilderD1Ev
node:_ZN2v88internal11interpreter15TryCatchBuilderD2Ev
node:_ZN2v88internal11interpreter16IntrinsicsHelper11IsSupportedENS0_7Runtime10FunctionIdE
node:_ZN2v88internal11interpreter16IntrinsicsHelper11ToRuntimeIdENS2_11IntrinsicIdE
node:_ZN2v88internal11interpreter16IntrinsicsHelper13FromRuntimeIdENS0_7Runtime10FunctionIdE
node:_ZN2v88internal11interpreter17BytecodeGenerator10BuildAwaitEi
node:_ZN2v88internal11interpreter17BytecodeGenerator10VisitAwaitEPNS0_5AwaitE
node:_ZN2v88internal11interpreter17BytecodeGenerator10VisitBlockEPNS0_5BlockE
node:_ZN2v88internal11interpreter17BytecodeGenerator10VisitThrowEPNS0_5ThrowE
node:_ZN2v88internal11interpreter17BytecodeGenerator10VisitYieldEPNS0_5YieldE
node:_ZN2v88internal11interpreter17BytecodeGenerator11BuildReturnEi
node:_ZN2v88internal11interpreter17BytecodeGenerator11VisitDeleteEPNS0_14UnaryOperationE
node:_ZN2v88internal11interpreter17BytecodeGenerator11VisitSpreadEPNS0_6SpreadE
node:_ZN2v88internal11interpreter17BytecodeGenerator11VisitTypeOfEPNS0_14UnaryOperationE
node:_ZN2v88internal11interpreter17BytecodeGenerator12BuildReThrowEv
node:_ZN2v88internal11interpreter17BytecodeGenerator12ControlScope14PerformCommandENS3_7CommandEPNS0_9StatementEi
node:_ZN2v88internal11interpreter17BytecodeGenerator12ControlScope25PopContextToExpectedDepthEv
node:_ZN2v88internal11interpreter17BytecodeGenerator12VisitCallNewEPNS0_7CallNewE
node:_ZN2v88internal11interpreter17BytecodeGenerator12VisitForTestEPNS0_10ExpressionEPNS1_14BytecodeLabelsES6_NS2_15TestFallthroughE
node:_ZN2v88internal11interpreter17BytecodeGenerator12VisitInScopeEPNS0_9StatementEPNS0_5ScopeE
node:_ZN2v88internal11interpreter17BytecodeGenerator12VisitLiteralEPNS0_7LiteralE
node:_ZN2v88internal11interpreter17BytecodeGenerator13VisitPropertyEPNS0_8PropertyE
node:_ZN2v88internal11interpreter17BytecodeGenerator14VisitArgumentsEPKNS0_8ZoneListIPNS0_10ExpressionEEEPNS1_12RegisterListE
node:_ZN2v88internal11interpreter17BytecodeGenerator14VisitCallSuperEPNS0_4CallE
node:_ZN2v88internal11interpreter17BytecodeGenerator14VisitForEffectEPNS0_10ExpressionE
node:_ZN2v88internal11interpreter17BytecodeGenerator14VisitYieldStarEPNS0_9YieldStarE
node:_ZN2v88internal11interpreter17BytecodeGenerator15BuildAssignmentERKNS2_17AssignmentLhsDataENS0_5Token5ValueENS0_18LookupHoistingModeE
node:_ZN2v88internal11interpreter17BytecodeGenerator15VisitAssignmentEPNS0_10AssignmentE
node:_ZN2v88internal11interpreter17BytecodeGenerator15VisitStatementsEPKNS0_8ZoneListIPNS0_9StatementEEE
node:_ZN2v88internal11interpreter17BytecodeGenerator16BuildAsyncReturnEi
node:_ZN2v88internal11interpreter17BytecodeGenerator16BuildDeclareCallENS0_7Runtime10FunctionIdE
node:_ZN2v88internal11interpreter17BytecodeGenerator16BuildGetIteratorENS0_12IteratorTypeE
node:_ZN2v88internal11interpreter17BytecodeGenerator16BuildStoreGlobalEPNS0_8VariableE
node:_ZN2v88internal11interpreter17BytecodeGenerator16BuildThrowIfHoleEPNS0_8VariableE
node:_ZN2v88internal11interpreter17BytecodeGenerator16GenerateBytecodeEm
node:_ZN2v88internal11interpreter17BytecodeGenerator16VisitCallRuntimeEPNS0_11CallRuntimeE
node:_ZN2v88internal11interpreter17BytecodeGenerator16VisitConditionalEPNS0_11ConditionalE
node:_ZN2v88internal11interpreter17BytecodeGenerator16VisitIfStatementEPNS0_11IfStatementE
node:_ZN2v88internal11interpreter17BytecodeGenerator16VisitLogicalTestENS0_5Token5ValueEPNS0_10ExpressionES6_i
node:_ZN2v88internal11interpreter17BytecodeGenerator17AssignmentLhsData11NonPropertyEPNS0_10ExpressionE
node:_ZN2v88internal11interpreter17BytecodeGenerator17AssignmentLhsData13KeyedPropertyENS1_8RegisterES4_
node:_ZN2v88internal11interpreter17BytecodeGenerator17AssignmentLhsData13NamedPropertyEPNS0_10ExpressionENS1_8RegisterEPKNS0_12AstRawStringE
node:_ZN2v88internal11interpreter17BytecodeGenerator17AssignmentLhsData18KeyedSuperPropertyENS1_12RegisterListE
node:_ZN2v88internal11interpreter17BytecodeGenerator17AssignmentLhsData18NamedSuperPropertyENS1_12RegisterListE
node:_ZN2v88internal11interpreter17BytecodeGenerator17AssignmentLhsData20PrivateDebugEvaluateENS0_10AssignTypeEPNS0_8PropertyENS1_8RegisterE
node:_ZN2v88internal11interpreter17BytecodeGenerator17AssignmentLhsData23PrivateMethodOrAccessorENS0_10AssignTypeEPNS0_8PropertyENS1_8RegisterES7_
node:_ZN2v88internal11interpreter17BytecodeGenerator17BuildClassLiteralEPNS0_12ClassLiteralENS1_8RegisterE
node:_ZN2v88internal11interpreter17BytecodeGenerator17BuildIteratorNextERKNS2_14IteratorRecordENS1_8RegisterE
node:_ZN2v88internal11interpreter17BytecodeGenerator17BuildSuspendPointEi
node:_ZN2v88internal11interpreter17BytecodeGenerator17BuildVariableLoadEPNS0_8VariableENS0_13HoleCheckModeENS0_10TypeofModeE
node:_ZN2v88internal11interpreter17BytecodeGenerator17VisitArrayLiteralEPNS0_12ArrayLiteralE
node:_ZN2v88internal11interpreter17BytecodeGenerator17VisitClassLiteralEPNS0_12ClassLiteralE
node:_ZN2v88internal11interpreter17BytecodeGenerator17VisitClassLiteralEPNS0_12ClassLiteralENS1_8RegisterE
node:_ZN2v88internal11interpreter17BytecodeGenerator17VisitDeclarationsEPNS_4base16ThreadedListBaseINS0_11DeclarationENS3_9EmptyBaseENS3_18ThreadedListTraitsIS5_EELb0EEE
node:_ZN2v88internal11interpreter17BytecodeGenerator17VisitForStatementEPNS0_12ForStatementE
node:_ZN2v88internal11interpreter17BytecodeGenerator17VisitPropertyLoadENS1_8RegisterEPNS0_8PropertyE
node:_ZN2v88internal11interpreter17BytecodeGenerator18BuildClassPropertyEPNS0_20ClassLiteralPropertyE
node:_ZN2v88internal11interpreter17BytecodeGenerator18BuildIteratorCloseERKNS2_14IteratorRecordEPNS0_10ExpressionE
node:_ZN2v88internal11interpreter17BytecodeGenerator18VisitIterationBodyEPNS0_18IterationStatementEPNS1_11LoopBuilderE
node:_ZN2v88internal11interpreter17BytecodeGenerator18VisitNaryOperationEPNS0_13NaryOperationE
node:_ZN2v88internal11interpreter17BytecodeGenerator18VisitObjectLiteralEPNS0_13ObjectLiteralE
node:_ZN2v88internal11interpreter17BytecodeGenerator18VisitOptionalChainEPNS0_13OptionalChainE
node:_ZN2v88internal11interpreter17BytecodeGenerator18VisitRegExpLiteralEPNS0_13RegExpLiteralE
node:_ZN2v88internal11interpreter17BytecodeGenerator18VisitVariableProxyEPNS0_13VariableProxyE
node:_ZN2v88internal11interpreter17BytecodeGenerator18VisitWithStatementEPNS0_13WithStatementE
node:_ZN2v88internal11interpreter17BytecodeGenerator19GetCachedLoadICSlotEPKNS0_10ExpressionEPKNS0_12AstRawStringE
node:_ZN2v88internal11interpreter17BytecodeGenerator19VisitBreakStatementEPNS0_14BreakStatementE
node:_ZN2v88internal11interpreter17BytecodeGenerator19VisitCountOperationEPNS0_14CountOperationE
node:_ZN2v88internal11interpreter17BytecodeGenerator19VisitEmptyStatementEPNS0_14EmptyStatementE
node:_ZN2v88internal11interpreter17BytecodeGenerator19VisitForInStatementEPNS0_14ForInStatementE
node:_ZN2v88internal11interpreter17BytecodeGenerator19VisitForNullishTestEPNS0_10ExpressionEPNS1_14BytecodeLabelsES6_S6_
node:_ZN2v88internal11interpreter17BytecodeGenerator19VisitForOfStatementEPNS0_14ForOfStatementE
node:_ZN2v88internal11interpreter17BytecodeGenerator19VisitForTypeOfValueEPNS0_10ExpressionE
node:_ZN2v88internal11interpreter17BytecodeGenerator19VisitThisExpressionEPNS0_14ThisExpressionE
node:_ZN2v88internal11interpreter17BytecodeGenerator19VisitUnaryOperationEPNS0_14UnaryOperationE
node:_ZN2v88internal11interpreter17BytecodeGenerator19VisitWhileStatementEPNS0_14WhileStatementE
node:_ZN2v88internal11interpreter17BytecodeGenerator20BuildLoadPropertyKeyEPNS0_15LiteralPropertyENS1_8RegisterE
node:_ZN2v88internal11interpreter17BytecodeGenerator20BuildPrivateMethodInEPNS0_8VariableEPNS0_10ExpressionE
node:_ZN2v88internal11interpreter17BytecodeGenerator20GenerateBytecodeBodyEv
node:_ZN2v88internal11interpreter17BytecodeGenerator20GetCachedStoreICSlotEPKNS0_10ExpressionEPKNS0_12AstRawStringE
node:_ZN2v88internal11interpreter17BytecodeGenerator20IsVariableInRegisterEPNS0_8VariableENS1_8RegisterE
node:_ZN2v88internal11interpreter17BytecodeGenerator20PrepareAssignmentLhsEPNS0_10ExpressionENS2_25AccumulatorPreservingModeE
node:_ZN2v88internal11interpreter17BytecodeGenerator20VisitArgumentsObjectEPNS0_8VariableE
node:_ZN2v88internal11interpreter17BytecodeGenerator20VisitBinaryOperationEPNS0_15BinaryOperationE
node:_ZN2v88internal11interpreter17BytecodeGenerator20VisitCommaExpressionEPNS0_15BinaryOperationE
node:_ZN2v88internal11interpreter17BytecodeGenerator20VisitFunctionLiteralEPNS0_15FunctionLiteralE
node:_ZN2v88internal11interpreter17BytecodeGenerator20VisitLiteralAccessorEPNS0_15LiteralPropertyENS1_8RegisterE
node:_ZN2v88internal11interpreter17BytecodeGenerator20VisitNaryLogicalTestENS0_5Token5ValueEPNS0_13NaryOperationEPKNS2_21NaryCodeCoverageSlotsE
node:_ZN2v88internal11interpreter17BytecodeGenerator20VisitReturnStatementEPNS0_15ReturnStatementE
node:_ZN2v88internal11interpreter17BytecodeGenerator20VisitSwitchStatementEPNS0_15SwitchStatementE
node:_ZN2v88internal11interpreter17BytecodeGenerator20VisitTemplateLiteralEPNS0_15TemplateLiteralE
node:_ZN2v88internal11interpreter17BytecodeGenerator21BuildSetNamedPropertyEPKNS0_10ExpressionENS1_8RegisterEPKNS0_12AstRawStringE
node:_ZN2v88internal11interpreter17BytecodeGenerator21BuildThisVariableLoadEv
node:_ZN2v88internal11interpreter17BytecodeGenerator21GetDummyCompareICSlotEv
node:_ZN2v88internal11interpreter17BytecodeGenerator21SetVariableInRegisterEPNS0_8VariableENS1_8RegisterE
node:_ZN2v88internal11interpreter17BytecodeGenerator21VisitCompareOperationEPNS0_16CompareOperationE
node:_ZN2v88internal11interpreter17BytecodeGenerator21VisitDoWhileStatementEPNS0_16DoWhileStatementE
node:_ZN2v88internal11interpreter17BytecodeGenerator21VisitEmptyParenthesesEPNS0_16EmptyParenthesesE
node:_ZN2v88internal11interpreter17BytecodeGenerator21VisitForRegisterValueEPNS0_10ExpressionE
node:_ZN2v88internal11interpreter17BytecodeGenerator22BuildFinalizeIterationENS2_14IteratorRecordENS1_8RegisterES4_
node:_ZN2v88internal11interpreter17BytecodeGenerator22BuildGeneratorPrologueEv
node:_ZN2v88internal11interpreter17BytecodeGenerator22BuildGetIteratorRecordENS0_12IteratorTypeE
node:_ZN2v88internal11interpreter17BytecodeGenerator22BuildGetIteratorRecordENS1_8RegisterES3_NS0_12IteratorTypeE
node:_ZN2v88internal11interpreter17BytecodeGenerator22BuildLiteralCompareNilENS0_5Token5ValueENS1_20BytecodeArrayBuilder8NilValueE
node:_ZN2v88internal11interpreter17BytecodeGenerator22BuildLoadNamedPropertyEPKNS0_10ExpressionENS1_8RegisterEPKNS0_12AstRawStringE
node:_ZN2v88internal11interpreter17BytecodeGenerator22BuildPrivateBrandCheckEPNS0_8PropertyENS1_8RegisterE
node:_ZN2v88internal11interpreter17BytecodeGenerator22VisitContinueStatementEPNS0_17ContinueStatementE
node:_ZN2v88internal11interpreter17BytecodeGenerator22VisitDebuggerStatementEPNS0_17DebuggerStatementE
node:_ZN2v88internal11interpreter17BytecodeGenerator22VisitGetTemplateObjectEPNS0_17GetTemplateObjectE
node:_ZN2v88internal11interpreter17BytecodeGenerator22VisitNewTargetVariableEPNS0_8VariableE
node:_ZN2v88internal11interpreter17BytecodeGenerator22VisitNullishExpressionEPNS0_15BinaryOperationE
node:_ZN2v88internal11interpreter17BytecodeGenerator22VisitTryCatchStatementEPNS0_17TryCatchStatementE
node:_ZN2v88internal11interpreter17BytecodeGenerator23BuildCallIteratorMethodENS1_8RegisterEPKNS0_12AstRawStringENS1_12RegisterListEPNS1_13BytecodeLabelEPNS1_14BytecodeLabelsE
node:_ZN2v88internal11interpreter17BytecodeGenerator23BuildCreateArrayLiteralEPKNS0_8ZoneListIPNS0_10ExpressionEEEPNS0_12ArrayLiteralE
node:_ZN2v88internal11interpreter17BytecodeGenerator23BuildVariableAssignmentEPNS0_8VariableENS0_5Token5ValueENS0_13HoleCheckModeENS0_18LookupHoistingModeE
node:_ZN2v88internal11interpreter17BytecodeGenerator23VisitCompoundAssignmentEPNS0_18CompoundAssignmentE
node:_ZN2v88internal11interpreter17BytecodeGenerator23VisitGlobalDeclarationsEPNS_4base16ThreadedListBaseINS0_11DeclarationENS3_9EmptyBaseENS3_18ThreadedListTraitsIS5_EELb0EEE
node:_ZN2v88internal11interpreter17BytecodeGenerator23VisitModuleDeclarationsEPNS_4base16ThreadedListBaseINS0_11DeclarationENS3_9EmptyBaseENS3_18ThreadedListTraitsIS5_EELb0EEE
node:_ZN2v88internal11interpreter17BytecodeGenerator23VisitRestArgumentsArrayEPNS0_8VariableE
node:_ZN2v88internal11interpreter17BytecodeGenerator23VisitSuperCallReferenceEPNS0_18SuperCallReferenceE
node:_ZN2v88internal11interpreter17BytecodeGenerator24BuildCreateObjectLiteralENS1_8RegisterEhm
node:_ZN2v88internal11interpreter17BytecodeGenerator24BuildNewLocalWithContextEPNS0_5ScopeE
node:_ZN2v88internal11interpreter17BytecodeGenerator24BuildPrivateGetterAccessENS1_8RegisterES3_
node:_ZN2v88internal11interpreter17BytecodeGenerator24BuildPrivateSetterAccessENS1_8RegisterES3_S3_
node:_ZN2v88internal11interpreter17BytecodeGenerator24GetCachedLoadSuperICSlotEPKNS0_12AstRawStringE
node:_ZN2v88internal11interpreter17BytecodeGenerator24VisitExpressionStatementEPNS0_19ExpressionStatementE
node:_ZN2v88internal11interpreter17BytecodeGenerator24VisitForAccumulatorValueEPNS0_10ExpressionE
node:_ZN2v88internal11interpreter17BytecodeGenerator24VisitFunctionDeclarationEPNS0_19FunctionDeclarationE
node:_ZN2v88internal11interpreter17BytecodeGenerator24VisitLogicalOrExpressionEPNS0_15BinaryOperationE
node:_ZN2v88internal11interpreter17BytecodeGenerator24VisitNaryCommaExpressionEPNS0_13NaryOperationE
node:_ZN2v88internal11interpreter17BytecodeGenerator24VisitTryFinallyStatementEPNS0_19TryFinallyStatementE
node:_ZN2v88internal11interpreter17BytecodeGenerator24VisitVariableDeclarationEPNS0_19VariableDeclarationE
node:_ZN2v88internal11interpreter17BytecodeGenerator25AddToEagerLiteralsIfEagerEPNS0_15FunctionLiteralE
node:_ZN2v88internal11interpreter17BytecodeGenerator25AllocateTopLevelRegistersEv
node:_ZN2v88internal11interpreter17BytecodeGenerator25BuildNewLocalBlockContextEPNS0_5ScopeE
node:_ZN2v88internal11interpreter17BytecodeGenerator25BuildNewLocalCatchContextEPNS0_5ScopeE
node:_ZN2v88internal11interpreter17BytecodeGenerator25GetCachedLoadGlobalICSlotENS0_10TypeofModeEPNS0_8VariableE
node:_ZN2v88internal11interpreter17BytecodeGenerator25VisitArithmeticExpressionEPNS0_15BinaryOperationE
node:_ZN2v88internal11interpreter17BytecodeGenerator25VisitImportCallExpressionEPNS0_20ImportCallExpressionE
node:_ZN2v88internal11interpreter17BytecodeGenerator25VisitLogicalAndExpressionEPNS0_15BinaryOperationE
node:_ZN2v88internal11interpreter17BytecodeGenerator25VisitNullishSubExpressionEPNS0_10ExpressionEPNS1_14BytecodeLabelsEi
node:_ZN2v88internal11interpreter17BytecodeGenerator25VisitThisFunctionVariableEPNS0_8VariableE
node:_ZN2v88internal11interpreter17BytecodeGenerator26BuildFillArrayWithIteratorENS2_14IteratorRecordENS1_8RegisterES4_S4_NS0_12FeedbackSlotES5_S5_S5_
node:_ZN2v88internal11interpreter17BytecodeGenerator26BuildInvalidPropertyAccessENS0_15MessageTemplateEPNS0_8PropertyE
node:_ZN2v88internal11interpreter17BytecodeGenerator26BuildSuperCallOptimizationENS1_8RegisterES3_S3_PNS1_13BytecodeLabelE
node:_ZN2v88internal11interpreter17BytecodeGenerator26GetCachedCreateClosureSlotEPNS0_15FunctionLiteralE
node:_ZN2v88internal11interpreter17BytecodeGenerator26GetCachedStoreGlobalICSlotENS0_12LanguageModeEPNS0_8VariableE
node:_ZN2v88internal11interpreter17BytecodeGenerator26VisitNaryNullishExpressionEPNS0_13NaryOperationE
node:_ZN2v88internal11interpreter17BytecodeGenerator26VisitNativeFunctionLiteralEPNS0_21NativeFunctionLiteralE
node:_ZN2v88internal11interpreter17BytecodeGenerator27BuildPrivateDebugDynamicGetEPNS0_8PropertyENS1_8RegisterE
node:_ZN2v88internal11interpreter17BytecodeGenerator27BuildPrivateDebugDynamicSetEPNS0_8PropertyENS1_8RegisterES5_
node:_ZN2v88internal11interpreter17BytecodeGenerator27GetRegisterForLocalVariableEPNS0_8VariableE
node:_ZN2v88internal11interpreter17BytecodeGenerator27VisitKeyedSuperPropertyLoadEPNS0_8PropertyENS1_8RegisterE
node:_ZN2v88internal11interpreter17BytecodeGenerator27VisitLogicalOrSubExpressionEPNS0_10ExpressionEPNS1_14BytecodeLabelsEi
node:_ZN2v88internal11interpreter17BytecodeGenerator27VisitModuleNamespaceImportsEv
node:_ZN2v88internal11interpreter17BytecodeGenerator27VisitNamedSuperPropertyLoadEPNS0_8PropertyENS1_8RegisterE
node:_ZN2v88internal11interpreter17BytecodeGenerator27VisitSuperPropertyReferenceEPNS0_22SuperPropertyReferenceE
node:_ZN2v88internal11interpreter17BytecodeGenerator28GetDestructuringDefaultValueEPPNS0_10ExpressionE
node:_ZN2v88internal11interpreter17BytecodeGenerator28VisitAndPushIntoRegisterListEPNS0_10ExpressionEPNS1_12RegisterListE
node:_ZN2v88internal11interpreter17BytecodeGenerator28VisitLogicalAndSubExpressionEPNS0_10ExpressionEPNS1_14BytecodeLabelsEi
node:_ZN2v88internal11interpreter17BytecodeGenerator28VisitNaryLogicalOrExpressionEPNS0_13NaryOperationE
node:_ZN2v88internal11interpreter17BytecodeGenerator28VisitPropertyLoadForRegisterENS1_8RegisterEPNS0_8PropertyES3_
node:_ZN2v88internal11interpreter17BytecodeGenerator29VisitInSameTestExecutionScopeEPNS0_10ExpressionE
node:_ZN2v88internal11interpreter17BytecodeGenerator29VisitLogicalTestSubExpressionENS0_5Token5ValueEPNS0_10ExpressionEPNS1_14BytecodeLabelsES8_i
node:_ZN2v88internal11interpreter17BytecodeGenerator29VisitNaryArithmeticExpressionEPNS0_13NaryOperationE
node:_ZN2v88internal11interpreter17BytecodeGenerator29VisitNaryLogicalAndExpressionEPNS0_13NaryOperationE
node:_ZN2v88internal11interpreter17BytecodeGenerator30BuildNewLocalActivationContextEv
node:_ZN2v88internal11interpreter17BytecodeGenerator31BuildPrivateBrandInitializationENS1_8RegisterEPNS0_8VariableE
node:_ZN2v88internal11interpreter17BytecodeGenerator32BuildLiteralStrictCompareBooleanEPNS0_7LiteralE
node:_ZN2v88internal11interpreter17BytecodeGenerator33BuildDestructuringArrayAssignmentEPNS0_12ArrayLiteralENS0_5Token5ValueENS0_18LookupHoistingModeE
node:_ZN2v88internal11interpreter17BytecodeGenerator33BuildInstanceMemberInitializationENS1_8RegisterES3_
node:_ZN2v88internal11interpreter17BytecodeGenerator33VisitForAccumulatorValueOrTheHoleEPNS0_10ExpressionE
node:_ZN2v88internal11interpreter17BytecodeGenerator33VisitSloppyBlockFunctionStatementEPNS0_28SloppyBlockFunctionStatementE
node:_ZN2v88internal11interpreter17BytecodeGenerator34AllocateBlockCoverageSlotIfEnabledEPNS0_7AstNodeENS0_15SourceRangeKindE
node:_ZN2v88internal11interpreter17BytecodeGenerator34BuildDestructuringObjectAssignmentEPNS0_13ObjectLiteralENS0_5Token5ValueENS0_18LookupHoistingModeE
node:_ZN2v88internal11interpreter17BytecodeGenerator34BuildPushUndefinedIntoRegisterListEPNS1_12RegisterListE
node:_ZN2v88internal11interpreter17BytecodeGenerator35BuildHoleCheckForVariableAssignmentEPNS0_8VariableENS0_5Token5ValueE
node:_ZN2v88internal11interpreter17BytecodeGenerator35VisitBlockDeclarationsAndStatementsEPNS0_5BlockE
node:_ZN2v88internal11interpreter17BytecodeGenerator36BuildVariableLoadForAccumulatorValueEPNS0_8VariableENS0_13HoleCheckModeENS0_10TypeofModeE
node:_ZN2v88internal11interpreter17BytecodeGenerator36VisitInitializeClassMembersStatementEPNS0_31InitializeClassMembersStatementE
node:_ZN2v88internal11interpreter17BytecodeGenerator38AllocateNaryBlockCoverageSlotIfEnabledEPNS0_13NaryOperationEm
node:_ZN2v88internal11interpreter17BytecodeGenerator41BuildLocalActivationContextInitializationEv
node:_ZN2v88internal11interpreter17BytecodeGenerator42BuildGeneratorObjectVariableInitializationEv
node:_ZN2v88internal11interpreter17BytecodeGenerator43BuildIncrementBlockCoverageCounterIfEnabledEPNS0_7AstNodeENS0_15SourceRangeKindE
node:_ZN2v88internal11interpreter17BytecodeGenerator43BuildIncrementBlockCoverageCounterIfEnabledEi
node:_ZN2v88internal11interpreter17BytecodeGenerator43VisitInitializeClassStaticElementsStatementEPNS0_38InitializeClassStaticElementsStatementE
node:_ZN2v88internal11interpreter17BytecodeGenerator8VisitNotEPNS0_14UnaryOperationE
node:_ZN2v88internal11interpreter17BytecodeGenerator9BuildTestENS1_20BytecodeArrayBuilder13ToBooleanModeEPNS1_14BytecodeLabelsES6_NS2_15TestFallthroughE
node:_ZN2v88internal11interpreter17BytecodeGenerator9VisitCallEPNS0_4CallE
node:_ZN2v88internal11interpreter17BytecodeGenerator9VisitVoidEPNS0_14UnaryOperationE
node:_ZN2v88internal11interpreter17BytecodeGeneratorC1EPNS0_12LocalIsolateEPNS0_4ZoneEPNS0_26UnoptimizedCompilationInfoEPKNS0_18AstStringConstantsEPSt6vectorIPNS0_15FunctionLiteralESaISE_EENS0_6HandleINS0_6ScriptEEE
node:_ZN2v88internal11interpreter17BytecodeGeneratorC2EPNS0_12LocalIsolateEPNS0_4ZoneEPNS0_26UnoptimizedCompilationInfoEPKNS0_18AstStringConstantsEPSt6vectorIPNS0_15FunctionLiteralESaISE_EENS0_6HandleINS0_6ScriptEEE
node:_ZN2v88internal11interpreter17TryFinallyBuilder10EndFinallyEv
node:_ZN2v88internal11interpreter17TryFinallyBuilder12BeginFinallyEv
node:_ZN2v88internal11interpreter17TryFinallyBuilder12BeginHandlerEv
node:_ZN2v88internal11interpreter17TryFinallyBuilder6EndTryEv
node:_ZN2v88internal11interpreter17TryFinallyBuilder8BeginTryENS1_8RegisterE
node:_ZN2v88internal11interpreter17TryFinallyBuilder8LeaveTryEv
node:_ZN2v88internal11interpreter17TryFinallyBuilderD0Ev
node:_ZN2v88internal11interpreter17TryFinallyBuilderD1Ev
node:_ZN2v88internal11interpreter17TryFinallyBuilderD2Ev
node:_ZN2v88internal11interpreter18CreateClosureFlags6EncodeEbbb
node:_ZN2v88internal11interpreter19BytecodeArrayWriter10EmitSwitchEPNS1_12BytecodeNodeEPNS1_17BytecodeJumpTableE
node:_ZN2v88internal11interpreter19BytecodeArrayWriter11WriteSwitchEPNS1_12BytecodeNodeEPNS1_17BytecodeJumpTableE
node:_ZN2v88internal11interpreter19BytecodeArrayWriter12EmitBytecodeEPKNS1_12BytecodeNodeE
node:_ZN2v88internal11interpreter19BytecodeArrayWriter12EmitJumpLoopEPNS1_12BytecodeNodeEPNS1_18BytecodeLoopHeaderE
node:_ZN2v88internal11interpreter19BytecodeArrayWriter13WriteJumpLoopEPNS1_12BytecodeNodeEPNS1_18BytecodeLoopHeaderE
node:_ZN2v88internal11interpreter19BytecodeArrayWriter14BindLoopHeaderEPNS1_18BytecodeLoopHeaderE
node:_ZN2v88internal11interpreter19BytecodeArrayWriter15StartBasicBlockEv
node:_ZN2v88internal11interpreter19BytecodeArrayWriter16BindTryRegionEndEPNS1_19HandlerTableBuilderEi
node:_ZN2v88internal11interpreter19BytecodeArrayWriter17BindHandlerTargetEPNS1_19HandlerTableBuilderEi
node:_ZN2v88internal11interpreter19BytecodeArrayWriter18BindJumpTableEntryEPNS1_17BytecodeJumpTableEi
node:_ZN2v88internal11interpreter19BytecodeArrayWriter18BindTryRegionStartEPNS1_19HandlerTableBuilderEi
node:_ZN2v88internal11interpreter19BytecodeArrayWriter21UpdateExitSeenInBlockENS1_8BytecodeE
node:_ZN2v88internal11interpreter19BytecodeArrayWriter22InvalidateLastBytecodeEv
node:_ZN2v88internal11interpreter19BytecodeArrayWriter22MaybeElideLastBytecodeENS1_8BytecodeEb
node:_ZN2v88internal11interpreter19BytecodeArrayWriter24PatchJumpWith8BitOperandEmi
node:_ZN2v88internal11interpreter19BytecodeArrayWriter24kMaxSizeOfPackedBytecodeE
node:_ZN2v88internal11interpreter19BytecodeArrayWriter25PatchJumpWith16BitOperandEmi
node:_ZN2v88internal11interpreter19BytecodeArrayWriter25PatchJumpWith32BitOperandEmi
node:_ZN2v88internal11interpreter19BytecodeArrayWriter25UpdateSourcePositionTableEPKNS1_12BytecodeNodeE
node:_ZN2v88internal11interpreter19BytecodeArrayWriter30SetFunctionEntrySourcePositionEi
node:_ZN2v88internal11interpreter19BytecodeArrayWriter5WriteEPNS1_12BytecodeNodeE
node:_ZN2v88internal11interpreter19BytecodeArrayWriter8EmitJumpEPNS1_12BytecodeNodeEPNS1_13BytecodeLabelE
node:_ZN2v88internal11interpreter19BytecodeArrayWriter9BindLabelEPNS1_13BytecodeLabelE
node:_ZN2v88internal11interpreter19BytecodeArrayWriter9PatchJumpEmm
node:_ZN2v88internal11interpreter19BytecodeArrayWriter9WriteJumpEPNS1_12BytecodeNodeEPNS1_13BytecodeLabelE
node:_ZN2v88internal11interpreter19BytecodeArrayWriterC1EPNS0_4ZoneEPNS1_20ConstantArrayBuilderENS0_26SourcePositionTableBuilder13RecordingModeE
node:_ZN2v88internal11interpreter19BytecodeArrayWriterC2EPNS0_4ZoneEPNS1_20ConstantArrayBuilderENS0_26SourcePositionTableBuilder13RecordingModeE
node:_ZN2v88internal11interpreter19HandlerTableBuilder13SetPredictionEiNS0_12HandlerTable15CatchPredictionE
node:_ZN2v88internal11interpreter19HandlerTableBuilder15NewHandlerEntryEv
node:_ZN2v88internal11interpreter19HandlerTableBuilder15SetTryRegionEndEim
node:_ZN2v88internal11interpreter19HandlerTableBuilder16SetHandlerTargetEim
node:_ZN2v88internal11interpreter19HandlerTableBuilder17SetTryRegionStartEim
node:_ZN2v88internal11interpreter19HandlerTableBuilder18SetContextRegisterEiNS1_8RegisterE
node:_ZN2v88internal11interpreter19HandlerTableBuilderC1EPNS0_4ZoneE
node:_ZN2v88internal11interpreter19HandlerTableBuilderC2EPNS0_4ZoneE
node:_ZN2v88internal11interpreter20BytecodeArrayBuilder10CompareNilENS0_5Token5ValueENS2_8NilValueE
node:_ZN2v88internal11interpreter20BytecodeArrayBuilder10JumpIfNullEPNS1_13BytecodeLabelE
node:_ZN2v88internal11interpreter20BytecodeArrayBuilder10JumpIfTrueENS2_13ToBooleanModeEPNS1_13BytecodeLabelE
node:_ZN2v88internal11interpreter20BytecodeArrayBuilder10LoadGlobalEPKNS0_12AstRawStringEiNS0_10TypeofModeE
node:_ZN2v88internal11interpreter20BytecodeArrayBuilder10LogicalNotENS2_13ToBooleanModeE
node:_ZN2v88internal11interpreter20BytecodeArrayBuilder10MarkTryEndEi
node:_ZN2v88internal11interpreter20BytecodeArrayBuilder10PopContextENS1_8RegisterE
node:_ZN2v88internal11interpreter20BytecodeArrayBuilder11CallRuntimeENS0_7Runtime10FunctionIdE
node:_ZN2v88internal11interpreter20BytecodeArrayBuilder11CallRuntimeENS0_7Runtime10FunctionIdENS1_12RegisterListE
node:_ZN2v88internal11interpreter20BytecodeArrayBuilder11CallRuntimeENS0_7Runtime10FunctionIdENS1_8RegisterE
node:_ZN2v88internal11interpreter20BytecodeArrayBuilder11CloneObjectENS1_8RegisterEii
node:_ZN2v88internal11interpreter20BytecodeArrayBuilder11CompareNullEv
node:_ZN2v88internal11interpreter20BytecodeArrayBuilder11GetIteratorENS1_8RegisterEii
node:_ZN2v88internal11interpreter20BytecodeArrayBuilder11JumpIfFalseENS2_13ToBooleanModeEPNS1_13BytecodeLabelE
node:_ZN2v88internal11interpreter20BytecodeArrayBuilder11LoadBooleanEb
node:_ZN2v88internal11interpreter20BytecodeArrayBuilder11LoadLiteralENS0_3SmiE
node:_ZN2v88internal11interpreter20BytecodeArrayBuilder11LoadLiteralENS0_9AstBigIntE
node:_ZN2v88internal11interpreter20BytecodeArrayBuilder11LoadLiteralEPKNS0_12AstRawStringE
node:_ZN2v88internal11interpreter20BytecodeArrayBuilder11LoadLiteralEPKNS0_5ScopeE
node:_ZN2v88internal11interpreter20BytecodeArrayBuilder11LoadLiteralEd
node:_ZN2v88internal11interpreter20BytecodeArrayBuilder11LoadTheHoleEv
node:_ZN2v88internal11interpreter20BytecodeArrayBuilder11MarkHandlerEiNS0_12HandlerTable15CatchPredictionE
node:_ZN2v88internal11interpreter20BytecodeArrayBuilder11PushContextENS1_8RegisterE
node:_ZN2v88internal11interpreter20BytecodeArrayBuilder11StoreGlobalEPKNS0_12AstRawStringEi
node:_ZN2v88internal11interpreter20BytecodeArrayBuilder11WriteSwitchEPNS1_12BytecodeNodeEPNS1_17BytecodeJumpTableE
node:_ZN2v88internal11interpreter20BytecodeArrayBuilder12CallPropertyENS1_8RegisterENS1_12RegisterListEi
node:_ZN2v88internal11interpreter20BytecodeArrayBuilder12ForInPrepareENS1_12RegisterListEi
node:_ZN2v88internal11interpreter20BytecodeArrayBuilder12JumpIfNotNilEPNS1_13BytecodeLabelENS0_5Token5ValueENS2_8NilValueE
node:_ZN2v88internal11interpreter20BytecodeArrayBuilder12MarkTryBeginEiNS1_8RegisterE
node:_ZN2v88internal11interpreter20BytecodeArrayBuilder12MoveRegisterENS1_8RegisterES3_
node:_ZN2v88internal11interpreter20BytecodeArrayBuilder12OutputMovRawENS1_8RegisterES3_
node:_ZN2v88internal11interpreter20BytecodeArrayBuilder13CallJSRuntimeEiNS1_12RegisterListE
node:_ZN2v88internal11interpreter20BytecodeArrayBuilder13CompareTypeOfENS1_15TestTypeOfFlags11LiteralFlagE
node:_ZN2v88internal11interpreter20BytecodeArrayBuilder13CreateClosureEmii
node:_ZN2v88internal11interpreter20BytecodeArrayBuilder13ForInContinueENS1_8RegisterES3_
node:_ZN2v88internal11interpreter20BytecodeArrayBuilder13JumpIfNotNullEPNS1_13BytecodeLabelE
node:_ZN2v88internal11interpreter20BytecodeArrayBuilder13LoadUndefinedEv
node:_ZN2v88internal11interpreter20BytecodeArrayBuilder13OutputLdarRawENS1_8RegisterE
node:_ZN2v88internal11interpreter20BytecodeArrayBuilder13OutputStarRawENS1_8RegisterE
node:_ZN2v88internal11interpreter20BytecodeArrayBuilder13WriteJumpLoopEPNS1_12BytecodeNodeEPNS1_18BytecodeLoopHeaderE
node:_ZN2v88internal11interpreter20BytecodeArrayBuilder14CallWithSpreadENS1_8RegisterENS1_12RegisterListEi
node:_ZN2v88internal11interpreter20BytecodeArrayBuilder14ForInEnumerateENS1_8RegisterE
node:_ZN2v88internal11interpreter20BytecodeArrayBuilder14LoadLookupSlotEPKNS0_12AstRawStringENS0_10TypeofModeE
node:_ZN2v88internal11interpreter20BytecodeArrayBuilder14UnaryOperationENS0_5Token5ValueEi
node:_ZN2v88internal11interpreter20BytecodeArrayBuilder15BinaryOperationENS0_5Token5ValueENS1_8RegisterEi
node:_ZN2v88internal11interpreter20BytecodeArrayBuilder15CallAnyReceiverENS1_8RegisterENS1_12RegisterListEi
node:_ZN2v88internal11interpreter20BytecodeArrayBuilder15CreateArgumentsENS0_19CreateArgumentsTypeE
node:_ZN2v88internal11interpreter20BytecodeArrayBuilder15IncBlockCounterEi
node:_ZN2v88internal11interpreter20BytecodeArrayBuilder15JumpIfUndefinedEPNS1_13BytecodeLabelE
node:_ZN2v88internal11interpreter20BytecodeArrayBuilder15LoadContextSlotENS1_8RegisterEiiNS2_21ContextSlotMutabilityE
node:_ZN2v88internal11interpreter20BytecodeArrayBuilder15ResumeGeneratorENS1_8RegisterENS1_12RegisterListE
node:_ZN2v88internal11interpreter20BytecodeArrayBuilder15StoreLookupSlotEPKNS0_12AstRawStringENS0_12LanguageModeENS0_18LookupHoistingModeE
node:_ZN2v88internal11interpreter20BytecodeArrayBuilder16CompareOperationENS0_5Token5ValueENS1_8RegisterEi
node:_ZN2v88internal11interpreter20BytecodeArrayBuilder16CompareReferenceENS1_8RegisterE
node:_ZN2v88internal11interpreter20BytecodeArrayBuilder16CompareUndefinedEv
node:_ZN2v88internal11interpreter20BytecodeArrayBuilder16JumpIfJSReceiverEPNS1_13BytecodeLabelE
node:_ZN2v88internal11interpreter20BytecodeArrayBuilder16SetKeyedPropertyENS1_8RegisterES3_iNS0_12LanguageModeE
node:_ZN2v88internal11interpreter20BytecodeArrayBuilder16SetNamedPropertyENS1_8RegisterEPKNS0_12AstRawStringEiNS0_12LanguageModeE
node:_ZN2v88internal11interpreter20BytecodeArrayBuilder16SetNamedPropertyENS1_8RegisterEmiNS0_12LanguageModeE
node:_ZN2v88internal11interpreter20BytecodeArrayBuilder16StoreContextSlotENS1_8RegisterEii
node:_ZN2v88internal11interpreter20BytecodeArrayBuilder16SuspendGeneratorENS1_8RegisterENS1_12RegisterListEi
node:_ZN2v88internal11interpreter20BytecodeArrayBuilder17AllocateJumpTableEii
node:_ZN2v88internal11interpreter20BytecodeArrayBuilder17CreateEvalContextEPKNS0_5ScopeEi
node:_ZN2v88internal11interpreter20BytecodeArrayBuilder17CreateWithContextENS1_8RegisterEPKNS0_5ScopeE
node:_ZN2v88internal11interpreter20BytecodeArrayBuilder17GetTemplateObjectEmi
node:_ZN2v88internal11interpreter20BytecodeArrayBuilder17LoadKeyedPropertyENS1_8RegisterEi
node:_ZN2v88internal11interpreter20BytecodeArrayBuilder17LoadNamedPropertyENS1_8RegisterEPKNS0_12AstRawStringEi
node:_ZN2v88internal11interpreter20BytecodeArrayBuilder17SetPendingMessageEv
node:_ZN2v88internal11interpreter20BytecodeArrayBuilder18CallRuntimeForPairENS0_7Runtime10FunctionIdENS1_12RegisterListES5_
node:_ZN2v88internal11interpreter20BytecodeArrayBuilder18CallRuntimeForPairENS0_7Runtime10FunctionIdENS1_8RegisterENS1_12RegisterListE
node:_ZN2v88internal11interpreter20BytecodeArrayBuilder18CreateArrayLiteralEmii
node:_ZN2v88internal11interpreter20BytecodeArrayBuilder18CreateBlockContextEPKNS0_5ScopeE
node:_ZN2v88internal11interpreter20BytecodeArrayBuilder18CreateCatchContextENS1_8RegisterEPKNS0_5ScopeE
node:_ZN2v88internal11interpreter20BytecodeArrayBuilder18JumpIfNotUndefinedEPNS1_13BytecodeLabelE
node:_ZN2v88internal11interpreter20BytecodeArrayBuilder18LoadModuleVariableEii
node:_ZN2v88internal11interpreter20BytecodeArrayBuilder19CompareUndetectableEv
node:_ZN2v88internal11interpreter20BytecodeArrayBuilder19ConstructWithSpreadENS1_8RegisterENS1_12RegisterListEi
node:_ZN2v88internal11interpreter20BytecodeArrayBuilder19CreateObjectLiteralEmii
node:_ZN2v88internal11interpreter20BytecodeArrayBuilder19CreateRegExpLiteralEPKNS0_12AstRawStringEii
node:_ZN2v88internal11interpreter20BytecodeArrayBuilder19GetSuperConstructorENS1_8RegisterE
node:_ZN2v88internal11interpreter20BytecodeArrayBuilder19StoreInArrayLiteralENS1_8RegisterES3_i
node:_ZN2v88internal11interpreter20BytecodeArrayBuilder19StoreModuleVariableEii
node:_ZN2v88internal11interpreter20BytecodeArrayBuilder20GetConstantPoolEntryENS0_9AstBigIntE
node:_ZN2v88internal11interpreter20BytecodeArrayBuilder20GetConstantPoolEntryEPKNS0_12AstRawStringE
node:_ZN2v88internal11interpreter20BytecodeArrayBuilder20GetConstantPoolEntryEPKNS0_5ScopeE
node:_ZN2v88internal11interpreter20BytecodeArrayBuilder20GetConstantPoolEntryEd
node:_ZN2v88internal11interpreter20BytecodeArrayBuilder20LoadIteratorPropertyENS1_8RegisterEi
node:_ZN2v88internal11interpreter20BytecodeArrayBuilder20LoadLookupGlobalSlotEPKNS0_12AstRawStringENS0_10TypeofModeEii
node:_ZN2v88internal11interpreter20BytecodeArrayBuilder20NaNConstantPoolEntryEv
node:_ZN2v88internal11interpreter20BytecodeArrayBuilder21CallUndefinedReceiverENS1_8RegisterENS1_12RegisterListEi
node:_ZN2v88internal11interpreter20BytecodeArrayBuilder21CreateFunctionContextEPKNS0_5ScopeEi
node:_ZN2v88internal11interpreter20BytecodeArrayBuilder21JumpIfUndefinedOrNullEPNS1_13BytecodeLabelE
node:_ZN2v88internal11interpreter20BytecodeArrayBuilder21LoadConstantPoolEntryEm
node:_ZN2v88internal11interpreter20BytecodeArrayBuilder21LoadLookupContextSlotEPKNS0_12AstRawStringENS0_10TypeofModeEii
node:_ZN2v88internal11interpreter20BytecodeArrayBuilder21SetDeferredSourceInfoENS1_18BytecodeSourceInfoE
node:_ZN2v88internal11interpreter20BytecodeArrayBuilder21SwitchOnSmiNoFeedbackEPNS1_17BytecodeJumpTableE
node:_ZN2v88internal11interpreter20BytecodeArrayBuilder22DefineKeyedOwnPropertyENS1_8RegisterES3_NS_4base5FlagsINS0_26DefineKeyedOwnPropertyFlagEiEEi
node:_ZN2v88internal11interpreter20BytecodeArrayBuilder22DefineNamedOwnPropertyENS1_8RegisterEPKNS0_12AstRawStringEi
node:_ZN2v88internal11interpreter20BytecodeArrayBuilder22SwitchOnGeneratorStateENS1_8RegisterEPNS1_17BytecodeJumpTableE
node:_ZN2v88internal11interpreter20BytecodeArrayBuilder23CreateArrayFromIterableEv
node:_ZN2v88internal11interpreter20BytecodeArrayBuilder23CreateEmptyArrayLiteralEi
node:_ZN2v88internal11interpreter20BytecodeArrayBuilder23GetInputRegisterOperandENS1_8RegisterE
node:_ZN2v88internal11interpreter20BytecodeArrayBuilder24CreateEmptyObjectLiteralEv
node:_ZN2v88internal11interpreter20BytecodeArrayBuilder24GetOutputRegisterOperandENS1_8RegisterE
node:_ZN2v88internal11interpreter20BytecodeArrayBuilder25BinaryOperationSmiLiteralENS0_5Token5ValueENS0_3SmiEi
node:_ZN2v88internal11interpreter20BytecodeArrayBuilder25LoadAsyncIteratorPropertyENS1_8RegisterEi
node:_ZN2v88internal11interpreter20BytecodeArrayBuilder25ThrowReferenceErrorIfHoleEPKNS0_12AstRawStringE
node:_ZN2v88internal11interpreter20BytecodeArrayBuilder25ThrowSuperNotCalledIfHoleEv
node:_ZN2v88internal11interpreter20BytecodeArrayBuilder26LoadClassFieldsInitializerENS1_8RegisterEi
node:_ZN2v88internal11interpreter20BytecodeArrayBuilder26LoadNamedPropertyFromSuperENS1_8RegisterEPKNS0_12AstRawStringEi
node:_ZN2v88internal11interpreter20BytecodeArrayBuilder26StoreAccumulatorInRegisterENS1_8RegisterE
node:_ZN2v88internal11interpreter20BytecodeArrayBuilder26ThrowIfNotSuperConstructorENS1_8RegisterE
node:_ZN2v88internal11interpreter20BytecodeArrayBuilder27GetInputRegisterListOperandENS1_12RegisterListE
node:_ZN2v88internal11interpreter20BytecodeArrayBuilder27LoadAccumulatorWithRegisterENS1_8RegisterE
node:_ZN2v88internal11interpreter20BytecodeArrayBuilder27StoreClassFieldsInitializerENS1_8RegisterEi
node:_ZN2v88internal11interpreter20BytecodeArrayBuilder28GetOutputRegisterListOperandENS1_12RegisterListE
node:_ZN2v88internal11interpreter20BytecodeArrayBuilder28SetDeferredConstantPoolEntryEmNS0_6HandleINS0_6ObjectEEE
node:_ZN2v88internal11interpreter20BytecodeArrayBuilder30AttachOrEmitDeferredSourceInfoEPNS1_12BytecodeNodeE
node:_ZN2v88internal11interpreter20BytecodeArrayBuilder31DefineKeyedOwnPropertyInLiteralENS1_8RegisterES3_NS_4base5FlagsINS0_35DefineKeyedOwnPropertyInLiteralFlagEiEEi
node:_ZN2v88internal11interpreter20BytecodeArrayBuilder31EmitFunctionStartSourcePositionEi
node:_ZN2v88internal11interpreter20BytecodeArrayBuilder31IteratorSymbolConstantPoolEntryEv
node:_ZN2v88internal11interpreter20BytecodeArrayBuilder32EmptyFixedArrayConstantPoolEntryEv
node:_ZN2v88internal11interpreter20BytecodeArrayBuilder32ThrowSuperAlreadyCalledIfNotHoleEv
node:_ZN2v88internal11interpreter20BytecodeArrayBuilder33AllocateDeferredConstantPoolEntryEv
node:_ZN2v88internal11interpreter20BytecodeArrayBuilder34ClassFieldsSymbolConstantPoolEntryEv
node:_ZN2v88internal11interpreter20BytecodeArrayBuilder36AsyncIteratorSymbolConstantPoolEntryEv
node:_ZN2v88internal11interpreter20BytecodeArrayBuilder36FindNonDefaultConstructorOrConstructENS1_8RegisterES3_NS1_12RegisterListE
node:_ZN2v88internal11interpreter20BytecodeArrayBuilder44InterpreterTrampolineSymbolConstantPoolEntryEv
node:_ZN2v88internal11interpreter20BytecodeArrayBuilder49EmptyArrayBoilerplateDescriptionConstantPoolEntryEv
node:_ZN2v88internal11interpreter20BytecodeArrayBuilder4BindEPNS1_13BytecodeLabelE
node:_ZN2v88internal11interpreter20BytecodeArrayBuilder4BindEPNS1_17BytecodeJumpTableEi
node:_ZN2v88internal11interpreter20BytecodeArrayBuilder4BindEPNS1_18BytecodeLoopHeaderE
node:_ZN2v88internal11interpreter20BytecodeArrayBuilder4JumpEPNS1_13BytecodeLabelE
node:_ZN2v88internal11interpreter20BytecodeArrayBuilder50EmptyObjectBoilerplateDescriptionConstantPoolEntryEv
node:_ZN2v88internal11interpreter20BytecodeArrayBuilder5AbortENS0_11AbortReasonE
node:_ZN2v88internal11interpreter20BytecodeArrayBuilder5ThrowEv
node:_ZN2v88internal11interpreter20BytecodeArrayBuilder5WriteEPNS1_12BytecodeNodeE
node:_ZN2v88internal11interpreter20BytecodeArrayBuilder6DeleteENS1_8RegisterENS0_12LanguageModeE
node:_ZN2v88internal11interpreter20BytecodeArrayBuilder6ReturnEv
node:_ZN2v88internal11interpreter20BytecodeArrayBuilder6ToNameENS1_8RegisterE
node:_ZN2v88internal11interpreter20BytecodeArrayBuilder6TypeOfEv
node:_ZN2v88internal11interpreter20BytecodeArrayBuilder7ReThrowEv
node:_ZN2v88internal11interpreter20BytecodeArrayBuilder8DebuggerEv
node:_ZN2v88internal11interpreter20BytecodeArrayBuilder8JumpLoopEPNS1_18BytecodeLoopHeaderEiii
node:_ZN2v88internal11interpreter20BytecodeArrayBuilder8LoadNullEv
node:_ZN2v88internal11interpreter20BytecodeArrayBuilder8LoadTrueEv
node:_ZN2v88internal11interpreter20BytecodeArrayBuilder8ToNumberEi
node:_ZN2v88internal11interpreter20BytecodeArrayBuilder8ToObjectENS1_8RegisterE
node:_ZN2v88internal11interpreter20BytecodeArrayBuilder8ToStringEv
node:_ZN2v88internal11interpreter20BytecodeArrayBuilder9ConstructENS1_8RegisterENS1_12RegisterListEi
node:_ZN2v88internal11interpreter20BytecodeArrayBuilder9ForInNextENS1_8RegisterES3_NS1_12RegisterListEi
node:_ZN2v88internal11interpreter20BytecodeArrayBuilder9ForInStepENS1_8RegisterE
node:_ZN2v88internal11interpreter20BytecodeArrayBuilder9JumpIfNilEPNS1_13BytecodeLabelENS0_5Token5ValueENS2_8NilValueE
node:_ZN2v88internal11interpreter20BytecodeArrayBuilder9LoadFalseEv
node:_ZN2v88internal11interpreter20BytecodeArrayBuilder9ToNumericEi
node:_ZN2v88internal11interpreter20BytecodeArrayBuilder9WriteJumpEPNS1_12BytecodeNodeEPNS1_13BytecodeLabelE
node:_ZN2v88internal11interpreter20BytecodeArrayBuilderC1EPNS0_4ZoneEiiPNS0_18FeedbackVectorSpecENS0_26SourcePositionTableBuilder13RecordingModeE
node:_ZN2v88internal11interpreter20BytecodeArrayBuilderC2EPNS0_4ZoneEiiPNS0_18FeedbackVectorSpecENS0_26SourcePositionTableBuilder13RecordingModeE
node:_ZN2v88internal11interpreter20ConstantArrayBuilder13AllocateIndexENS2_5EntryE
node:_ZN2v88internal11interpreter20ConstantArrayBuilder13SetDeferredAtEmNS0_6HandleINS0_6ObjectEEE
node:_ZN2v88internal11interpreter20ConstantArrayBuilder13k8BitCapacityE
node:_ZN2v88internal11interpreter20ConstantArrayBuilder14InsertDeferredEv
node:_ZN2v88internal11interpreter20ConstantArrayBuilder14k16BitCapacityE
node:_ZN2v88internal11interpreter20ConstantArrayBuilder14k32BitCapacityE
node:_ZN2v88internal11interpreter20ConstantArrayBuilder15InsertJumpTableEm
node:_ZN2v88internal11interpreter20ConstantArrayBuilder15SetJumpTableSmiEmNS0_3SmiE
node:_ZN2v88internal11interpreter20ConstantArrayBuilder18AllocateIndexArrayENS2_5EntryEm
node:_ZN2v88internal11interpreter20ConstantArrayBuilder18ConstantArraySlice2AtEm
node:_ZN2v88internal11interpreter20ConstantArrayBuilder18ConstantArraySlice7ReserveEv
node:_ZN2v88internal11interpreter20ConstantArrayBuilder18ConstantArraySlice8AllocateENS2_5EntryEm
node:_ZN2v88internal11interpreter20ConstantArrayBuilder18ConstantArraySlice9UnreserveEv
node:_ZN2v88internal11interpreter20ConstantArrayBuilder18ConstantArraySliceC1EPNS0_4ZoneEmmNS1_11OperandSizeE
node:_ZN2v88internal11interpreter20ConstantArrayBuilder18ConstantArraySliceC2EPNS0_4ZoneEmmNS1_11OperandSizeE
node:_ZN2v88internal11interpreter20ConstantArrayBuilder19CommitReservedEntryENS1_11OperandSizeENS0_3SmiE
node:_ZN2v88internal11interpreter20ConstantArrayBuilder19CreateReservedEntryEv
node:_ZN2v88internal11interpreter20ConstantArrayBuilder20DiscardReservedEntryENS1_11OperandSizeE
node:_ZN2v88internal11interpreter20ConstantArrayBuilder20InsertIteratorSymbolEv
node:_ZN2v88internal11interpreter20ConstantArrayBuilder21AllocateReservedEntryENS0_3SmiE
node:_ZN2v88internal11interpreter20ConstantArrayBuilder21InsertEmptyFixedArrayEv
node:_ZN2v88internal11interpreter20ConstantArrayBuilder23InsertClassFieldsSymbolEv
node:_ZN2v88internal11interpreter20ConstantArrayBuilder25InsertAsyncIteratorSymbolEv
node:_ZN2v88internal11interpreter20ConstantArrayBuilder33InsertInterpreterTrampolineSymbolEv
node:_ZN2v88internal11interpreter20ConstantArrayBuilder38InsertEmptyArrayBoilerplateDescriptionEv
node:_ZN2v88internal11interpreter20ConstantArrayBuilder39InsertEmptyObjectBoilerplateDescriptionEv
node:_ZN2v88internal11interpreter20ConstantArrayBuilder6InsertENS0_3SmiE
node:_ZN2v88internal11interpreter20ConstantArrayBuilder6InsertENS0_9AstBigIntE
node:_ZN2v88internal11interpreter20ConstantArrayBuilder6InsertEPKNS0_12AstRawStringE
node:_ZN2v88internal11interpreter20ConstantArrayBuilder6InsertEPKNS0_5ScopeE
node:_ZN2v88internal11interpreter20ConstantArrayBuilder6InsertEd
node:_ZN2v88internal11interpreter20ConstantArrayBuilder9InsertNaNEv
node:_ZN2v88internal11interpreter20ConstantArrayBuilderC1EPNS0_4ZoneE
node:_ZN2v88internal11interpreter20ConstantArrayBuilderC2EPNS0_4ZoneE
node:_ZN2v88internal11interpreter20StoreLookupSlotFlags15GetLanguageModeEh
node:_ZN2v88internal11interpreter20StoreLookupSlotFlags20IsLookupHoistingModeEh
node:_ZN2v88internal11interpreter20StoreLookupSlotFlags6EncodeENS0_12LanguageModeENS0_18LookupHoistingModeE
node:_ZN2v88internal11interpreter21BytecodeArrayIterator13IsValidOffsetENS0_6HandleINS0_13BytecodeArrayEEEi
node:_ZN2v88internal11interpreter21BytecodeArrayIterator14UpdatePointersEv
node:_ZN2v88internal11interpreter21BytecodeArrayIterator15ApplyDebugBreakEv
node:_ZN2v88internal11interpreter21BytecodeArrayIterator9SetOffsetEi
node:_ZN2v88internal11interpreter21BytecodeArrayIteratorC1ENS0_6HandleINS0_13BytecodeArrayEEEi
node:_ZN2v88internal11interpreter21BytecodeArrayIteratorC2ENS0_6HandleINS0_13BytecodeArrayEEEi
node:_ZN2v88internal11interpreter21BytecodeArrayIteratorD1Ev
node:_ZN2v88internal11interpreter21BytecodeArrayIteratorD2Ev
node:_ZN2v88internal11interpreter22JumpTableTargetOffsets8iterator23UpdateAndAdvanceToValidEv
node:_ZN2v88internal11interpreter22JumpTableTargetOffsets8iteratorC1EiiiPKNS1_21BytecodeArrayIteratorE
node:_ZN2v88internal11interpreter22JumpTableTargetOffsets8iteratorC2EiiiPKNS1_21BytecodeArrayIteratorE
node:_ZN2v88internal11interpreter22JumpTableTargetOffsets8iteratordeEv
node:_ZN2v88internal11interpreter22JumpTableTargetOffsets8iteratorneERKS3_
node:_ZN2v88internal11interpreter22JumpTableTargetOffsets8iteratorppEv
node:_ZN2v88internal11interpreter22JumpTableTargetOffsetsC1EPKNS1_21BytecodeArrayIteratorEiii
node:_ZN2v88internal11interpreter22JumpTableTargetOffsetsC2EPKNS1_21BytecodeArrayIteratorEiii
node:_ZN2v88internal11interpreter23CreateArrayLiteralFlags6EncodeEbi
node:_ZN2v88internal11interpreter24CreateObjectLiteralFlags6EncodeEib
node:_ZN2v88internal11interpreter25BytecodeRegisterOptimizer11MaterializeEPNS2_12RegisterInfoE
node:_ZN2v88internal11interpreter25BytecodeRegisterOptimizer12RegisterInfo13GetEquivalentEv
node:_ZN2v88internal11interpreter25BytecodeRegisterOptimizer12RegisterInfo21AddToEquivalenceSetOfEPS3_
node:_ZN2v88internal11interpreter25BytecodeRegisterOptimizer12RegisterInfo22GetAllocatedEquivalentEv
node:_ZN2v88internal11interpreter25BytecodeRegisterOptimizer12RegisterInfo23MoveToNewEquivalenceSetEjbPNS0_8VariableE
node:_ZN2v88internal11interpreter25BytecodeRegisterOptimizer12RegisterInfo25GetMaterializedEquivalentEv
node:_ZN2v88internal11interpreter25BytecodeRegisterOptimizer12RegisterInfo26GetEquivalentToMaterializeEv
node:_ZN2v88internal11interpreter25BytecodeRegisterOptimizer12RegisterInfo31MarkTemporariesAsUnmaterializedENS1_8RegisterE
node:_ZN2v88internal11interpreter25BytecodeRegisterOptimizer12RegisterInfo34GetMaterializedEquivalentOtherThanENS1_8RegisterE
node:_ZN2v88internal11interpreter25BytecodeRegisterOptimizer15GrowRegisterMapENS1_8RegisterE
node:_ZN2v88internal11interpreter25BytecodeRegisterOptimizer16AllocateRegisterEPNS2_12RegisterInfoE
node:_ZN2v88internal11interpreter25BytecodeRegisterOptimizer16GetInputRegisterENS1_8RegisterE
node:_ZN2v88internal11interpreter25BytecodeRegisterOptimizer16RegisterTransferEPNS2_12RegisterInfoES4_
node:_ZN2v88internal11interpreter25BytecodeRegisterOptimizer17RegisterFreeEventENS1_8RegisterE
node:_ZN2v88internal11interpreter25BytecodeRegisterOptimizer19AddToEquivalenceSetEPNS2_12RegisterInfoES4_
node:_ZN2v88internal11interpreter25BytecodeRegisterOptimizer20GetInputRegisterListENS1_12RegisterListE
node:_ZN2v88internal11interpreter25BytecodeRegisterOptimizer20IsVariableInRegisterEPNS0_8VariableENS1_8RegisterE
node:_ZN2v88internal11interpreter25BytecodeRegisterOptimizer21GetVariableInRegisterENS1_8RegisterE
node:_ZN2v88internal11interpreter25BytecodeRegisterOptimizer21PrepareOutputRegisterENS1_8RegisterE
node:_ZN2v88internal11interpreter25BytecodeRegisterOptimizer21RegisterAllocateEventENS1_8RegisterE
node:_ZN2v88internal11interpreter25BytecodeRegisterOptimizer21RegisterListFreeEventENS1_12RegisterListE
node:_ZN2v88internal11interpreter25BytecodeRegisterOptimizer21SetVariableInRegisterEPNS0_8VariableENS1_8RegisterE
node:_ZN2v88internal11interpreter25BytecodeRegisterOptimizer21kInvalidEquivalenceIdE
node:_ZN2v88internal11interpreter25BytecodeRegisterOptimizer22OutputRegisterTransferEPNS2_12RegisterInfoES4_
node:_ZN2v88internal11interpreter25BytecodeRegisterOptimizer25GetMaterializedEquivalentEPNS2_12RegisterInfoE
node:_ZN2v88internal11interpreter25BytecodeRegisterOptimizer25PrepareOutputRegisterListENS1_12RegisterListE
node:_ZN2v88internal11interpreter25BytecodeRegisterOptimizer25RegisterListAllocateEventENS1_12RegisterListE
node:_ZN2v88internal11interpreter25BytecodeRegisterOptimizer27PushToRegistersNeedingFlushEPNS2_12RegisterInfoE
node:_ZN2v88internal11interpreter25BytecodeRegisterOptimizer28CreateMaterializedEquivalentEPNS2_12RegisterInfoE
node:_ZN2v88internal11interpreter25BytecodeRegisterOptimizer39GetMaterializedEquivalentNotAccumulatorEPNS2_12RegisterInfoE
node:_ZN2v88internal11interpreter25BytecodeRegisterOptimizer5FlushEv
node:_ZN2v88internal11interpreter25BytecodeRegisterOptimizerC1EPNS0_4ZoneEPNS1_25BytecodeRegisterAllocatorEiiPNS2_14BytecodeWriterE
node:_ZN2v88internal11interpreter25BytecodeRegisterOptimizerC2EPNS0_4ZoneEPNS1_25BytecodeRegisterAllocatorEiiPNS2_14BytecodeWriterE
node:_ZN2v88internal11interpreter25InterpreterCompilationJob14ExecuteJobImplEv
node:_ZN2v88internal11interpreter25InterpreterCompilationJob15FinalizeJobImplENS0_6HandleINS0_18SharedFunctionInfoEEEPNS0_12LocalIsolateE
node:_ZN2v88internal11interpreter25InterpreterCompilationJob15FinalizeJobImplENS0_6HandleINS0_18SharedFunctionInfoEEEPNS0_7IsolateE
node:_ZN2v88internal11interpreter25InterpreterCompilationJobC1EPNS0_9ParseInfoEPNS0_15FunctionLiteralENS0_6HandleINS0_6ScriptEEEPNS0_19AccountingAllocatorEPSt6vectorIS6_SaIS6_EEPNS0_12LocalIsolateE
node:_ZN2v88internal11interpreter25InterpreterCompilationJobC2EPNS0_9ParseInfoEPNS0_15FunctionLiteralENS0_6HandleINS0_6ScriptEEEPNS0_19AccountingAllocatorEPSt6vectorIS6_SaIS6_EEPNS0_12LocalIsolateE
node:_ZN2v88internal11interpreter26GetJumpWithConstantOperandENS1_8BytecodeE
node:_ZN2v88internal11interpreter27BreakableControlFlowBuilder14EmitJumpIfNullEPNS1_14BytecodeLabelsE
node:_ZN2v88internal11interpreter27BreakableControlFlowBuilder14EmitJumpIfTrueENS1_20BytecodeArrayBuilder13ToBooleanModeEPNS1_14BytecodeLabelsE
node:_ZN2v88internal11interpreter27BreakableControlFlowBuilder15BindBreakTargetEv
node:_ZN2v88internal11interpreter27BreakableControlFlowBuilder15EmitJumpIfFalseENS1_20BytecodeArrayBuilder13ToBooleanModeEPNS1_14BytecodeLabelsE
node:_ZN2v88internal11interpreter27BreakableControlFlowBuilder19EmitJumpIfUndefinedEPNS1_14BytecodeLabelsE
node:_ZN2v88internal11interpreter27BreakableControlFlowBuilder8EmitJumpEPNS1_14BytecodeLabelsE
node:_ZN2v88internal11interpreter27BreakableControlFlowBuilderD0Ev
node:_ZN2v88internal11interpreter27BreakableControlFlowBuilderD1Ev
node:_ZN2v88internal11interpreter27BreakableControlFlowBuilderD2Ev
node:_ZN2v88internal11interpreter27BytecodeArrayRandomIterator10InitializeEv
node:_ZN2v88internal11interpreter27BytecodeArrayRandomIterator21UpdateOffsetFromIndexEv
node:_ZN2v88internal11interpreter27BytecodeArrayRandomIteratorC1ENS0_6HandleINS0_13BytecodeArrayEEEPNS0_4ZoneE
node:_ZN2v88internal11interpreter27BytecodeArrayRandomIteratorC2ENS0_6HandleINS0_13BytecodeArrayEEEPNS0_4ZoneE
node:_ZN2v88internal11interpreter29ConditionalControlFlowBuilder4ElseEv
node:_ZN2v88internal11interpreter29ConditionalControlFlowBuilder4ThenEv
node:_ZN2v88internal11interpreter29ConditionalControlFlowBuilder9JumpToEndEv
node:_ZN2v88internal11interpreter29ConditionalControlFlowBuilderD0Ev
node:_ZN2v88internal11interpreter29ConditionalControlFlowBuilderD1Ev
node:_ZN2v88internal11interpreter29ConditionalControlFlowBuilderD2Ev
node:_ZN2v88internal11interpreter8Register13AreContiguousES2_S2_S2_S2_S2_
node:_ZN2v88internal11interpreter8Register14argument_countEv
node:_ZN2v88internal11interpreter8Register14bytecode_arrayEv
node:_ZN2v88internal11interpreter8Register15bytecode_offsetEv
node:_ZN2v88internal11interpreter8Register15current_contextEv
node:_ZN2v88internal11interpreter8Register16function_closureEv
node:_ZN2v88internal11interpreter8Register18FromParameterIndexEi
node:_ZN2v88internal11interpreter8Register19virtual_accumulatorEv
node:_ZN2v88internal11interpreter9Bytecodes12IsDebugBreakENS1_8BytecodeE
node:_ZN2v88internal11interpreter9Bytecodes13GetDebugBreakENS1_8BytecodeE
node:_ZN2v88internal11interpreter9Bytecodes13kOperandCountE
node:_ZN2v88internal11interpreter9Bytecodes13kOperandSizesE
node:_ZN2v88internal11interpreter9Bytecodes13kOperandTypesE
node:_ZN2v88internal11interpreter9Bytecodes14kBytecodeSizesE
node:_ZN2v88internal11interpreter9Bytecodes15IsStarLookaheadENS1_8BytecodeENS1_12OperandScaleE
node:_ZN2v88internal11interpreter9Bytecodes16GetOperandOffsetENS1_8BytecodeEiNS1_12OperandScaleE
node:_ZN2v88internal11interpreter9Bytecodes17kOperandKindSizesE
node:_ZN2v88internal11interpreter9Bytecodes17kOperandTypeInfosE
node:_ZN2v88internal11interpreter9Bytecodes18BytecodeHasHandlerENS1_8BytecodeENS1_12OperandScaleE
node:_ZN2v88internal11interpreter9Bytecodes20kImplicitRegisterUseE
node:_ZN2v88internal11interpreter9Bytecodes21IsRegisterOperandTypeENS1_11OperandTypeE
node:_ZN2v88internal11interpreter9Bytecodes21IsUnsignedOperandTypeENS1_11OperandTypeE
node:_ZN2v88internal11interpreter9Bytecodes23GetJumpWithoutToBooleanENS1_8BytecodeE
node:_ZN2v88internal11interpreter9Bytecodes25IsRegisterListOperandTypeENS1_11OperandTypeE
node:_ZN2v88internal11interpreter9Bytecodes26IsRegisterInputOperandTypeENS1_11OperandTypeE
node:_ZN2v88internal11interpreter9Bytecodes26MakesCallAlongCriticalPathENS1_8BytecodeE
node:_ZN2v88internal11interpreter9Bytecodes27IsRegisterOutputOperandTypeENS1_11OperandTypeE
node:_ZN2v88internal11interpreter9Bytecodes30IsBytecodeWithScalableOperandsENS1_8BytecodeE
node:_ZN2v88internal11interpreter9Bytecodes8ToStringB5cxx11ENS1_8BytecodeENS1_12OperandScaleEPKc
node:_ZN2v88internal11interpreter9Bytecodes8ToStringENS1_8BytecodeE
node:_ZN2v88internal11interpreterlsERSoRKNS1_11OperandSizeE
node:_ZN2v88internal11interpreterlsERSoRKNS1_11OperandTypeE
node:_ZN2v88internal11interpreterlsERSoRKNS1_12BytecodeNodeE
node:_ZN2v88internal11interpreterlsERSoRKNS1_12OperandScaleE
node:_ZN2v88internal11interpreterlsERSoRKNS1_18BytecodeSourceInfoE
node:_ZN2v88internal11interpreterlsERSoRKNS1_19ImplicitRegisterUseE
node:_ZN2v88internal11interpreterlsERSoRKNS1_20BytecodeArrayBuilder13ToBooleanModeE
node:_ZN2v88internal11interpreterlsERSoRKNS1_8BytecodeE
node:_ZN2v88internal11libc_memchrEPvim
node:_ZN2v88internal11libc_memcpyEPvPKvm
node:_ZN2v88internal11libc_memsetEPvim
node:_ZN2v88internal12AbstractCode14SourcePositionENS0_16PtrComprCageBaseEi
node:_ZN2v88internal12AbstractCode23SourceStatementPositionENS0_16PtrComprCageBaseEi
node:_ZN2v88internal12AccessorInfo12AppendUniqueEPNS0_7IsolateENS0_6HandleINS0_6ObjectEEENS4_INS0_10FixedArrayEEEi
node:_ZN2v88internal12AccessorInfo17AccessorInfoPrintERSo
node:_ZN2v88internal12AccessorPair12GetComponentEPNS0_7IsolateENS0_6HandleINS0_13NativeContextEEENS4_IS1_EENS0_17AccessorComponentE
node:_ZN2v88internal12AccessorPair4CopyEPNS0_7IsolateENS0_6HandleIS1_EE
node:_ZN2v88internal12AsmJsScanner11ResetLocalsEv
node:_ZN2v88internal12AsmJsScanner13ConsumeNumberEj
node:_ZN2v88internal12AsmJsScanner13ConsumeStringEj
node:_ZN2v88internal12AsmJsScanner13IsNumberStartEj
node:_ZN2v88internal12AsmJsScanner15ConsumeCCommentEv
node:_ZN2v88internal12AsmJsScanner16IsIdentifierPartEj
node:_ZN2v88internal12AsmJsScanner17ConsumeCPPCommentEv
node:_ZN2v88internal12AsmJsScanner17ConsumeIdentifierEj
node:_ZN2v88internal12AsmJsScanner17IsIdentifierStartEj
node:_ZN2v88internal12AsmJsScanner21ConsumeCompareOrShiftEj
node:_ZN2v88internal12AsmJsScanner4NextEv
node:_ZN2v88internal12AsmJsScanner4SeekEm
node:_ZN2v88internal12AsmJsScanner6RewindEv
node:_ZN2v88internal12AsmJsScannerC1EPNS0_20Utf16CharacterStreamE
node:_ZN2v88internal12AsmJsScannerC2EPNS0_20Utf16CharacterStreamE
node:_ZN2v88internal12AstRawString5EqualEPKS1_S3_
node:_ZN2v88internal12AstRawString7CompareEPKS1_S3_
node:_ZN2v88internal12BackingStore10ReallocateEPNS0_7IsolateEm
node:_ZN2v88internal12BackingStore11GrowInPlaceEPNS0_7IsolateEm
node:_ZN2v88internal12BackingStore13ResizeInPlaceEPNS0_7IsolateEm
node:_ZN2v88internal12BackingStore14CopyWasmMemoryEPNS0_7IsolateEmmNS0_14WasmMemoryFlagE
node:_ZN2v88internal12BackingStore14WrapAllocationEPNS0_7IsolateEPvmNS0_10SharedFlagEb
node:_ZN2v88internal12BackingStore14WrapAllocationEPvmPFvS2_mS2_ES2_NS0_10SharedFlagE
node:_ZN2v88internal12BackingStore17EmptyBackingStoreENS0_10SharedFlagE
node:_ZN2v88internal12BackingStore18AllocateWasmMemoryEPNS0_7IsolateEmmNS0_14WasmMemoryFlagENS0_10SharedFlagE
node:_ZN2v88internal12BackingStore19FreeResizableMemoryEv
node:_ZN2v88internal12BackingStore21GrowWasmMemoryInPlaceEPNS0_7IsolateEmm
node:_ZN2v88internal12BackingStore23SetAllocatorFromIsolateEPNS0_7IsolateE
node:_ZN2v88internal12BackingStore27get_shared_wasm_memory_dataEv
node:_ZN2v88internal12BackingStore28AttachSharedWasmMemoryObjectEPNS0_7IsolateENS0_6HandleINS0_16WasmMemoryObjectEEE
node:_ZN2v88internal12BackingStore29BroadcastSharedWasmMemoryGrowEPNS0_7IsolateESt10shared_ptrIS1_E
node:_ZN2v88internal12BackingStore29RemoveSharedWasmMemoryObjectsEPNS0_7IsolateE
node:_ZN2v88internal12BackingStore29UpdateSharedWasmMemoryObjectsEPNS0_7IsolateE
node:_ZN2v88internal12BackingStore33get_v8_api_array_buffer_allocatorEv
node:_ZN2v88internal12BackingStore35TryAllocateAndPartiallyCommitMemoryEPNS0_7IsolateEmmmmmNS0_14WasmMemoryFlagENS0_10SharedFlagE
node:_ZN2v88internal12BackingStore5ClearEv
node:_ZN2v88internal12BackingStore8AllocateEPNS0_7IsolateEmNS0_10SharedFlagENS0_15InitializedFlagE
node:_ZN2v88internal12BackingStoreC1EPvmmmNS0_10SharedFlagENS0_13ResizableFlagEbbbbb
node:_ZN2v88internal12BackingStoreC2EPvmmmNS0_10SharedFlagENS0_13ResizableFlagEbbbbb
node:_ZN2v88internal12BackingStoreD1Ev
node:_ZN2v88internal12BackingStoreD2Ev
node:_ZN2v88internal12Bootstrapper10InitializeEb
node:_ZN2v88internal12Bootstrapper10LogAllMapsEv
node:_ZN2v88internal12Bootstrapper12ArchiveStateEPc
node:_ZN2v88internal12Bootstrapper12RestoreStateEPc
node:_ZN2v88internal12Bootstrapper16NewRemoteContextENS0_11MaybeHandleINS0_13JSGlobalProxyEEENS_5LocalINS_14ObjectTemplateEEE
node:_ZN2v88internal12Bootstrapper17CreateEnvironmentENS0_11MaybeHandleINS0_13JSGlobalProxyEEENS_5LocalINS_14ObjectTemplateEEEPNS_22ExtensionConfigurationEmNS_33DeserializeInternalFieldsCallbackEPNS_14MicrotaskQueueE
node:_ZN2v88internal12Bootstrapper17InstallExtensionsENS0_6HandleINS0_7ContextEEEPNS_22ExtensionConfigurationE
node:_ZN2v88internal12Bootstrapper19FreeThreadResourcesEv
node:_ZN2v88internal12Bootstrapper21ArchiveSpacePerThreadEv
node:_ZN2v88internal12Bootstrapper24InitializeOncePerProcessEv
node:_ZN2v88internal12Bootstrapper7IterateEPNS0_11RootVisitorE
node:_ZN2v88internal12Bootstrapper8TearDownEv
node:_ZN2v88internal12BootstrapperC1EPNS0_7IsolateE
node:_ZN2v88internal12BootstrapperC2EPNS0_7IsolateE
node:_ZN2v88internal12CallSiteInfo11GetTypeNameENS0_6HandleIS1_EE
node:_ZN2v88internal12CallSiteInfo13GetEvalOriginENS0_6HandleIS1_EE
node:_ZN2v88internal12CallSiteInfo13GetLineNumberENS0_6HandleIS1_EE
node:_ZN2v88internal12CallSiteInfo13GetMethodNameENS0_6HandleIS1_EE
node:_ZN2v88internal12CallSiteInfo13GetScriptHashENS0_6HandleIS1_EE
node:_ZN2v88internal12CallSiteInfo15ComputeLocationENS0_6HandleIS1_EEPNS0_15MessageLocationE
node:_ZN2v88internal12CallSiteInfo15GetColumnNumberENS0_6HandleIS1_EE
node:_ZN2v88internal12CallSiteInfo15GetFunctionNameENS0_6HandleIS1_EE
node:_ZN2v88internal12CallSiteInfo17GetSourcePositionENS0_6HandleIS1_EE
node:_ZN2v88internal12CallSiteInfo17GetWasmModuleNameENS0_6HandleIS1_EE
node:_ZN2v88internal12CallSiteInfo20GetFunctionDebugNameENS0_6HandleIS1_EE
node:_ZN2v88internal12CallSiteInfo21ComputeSourcePositionENS0_6HandleIS1_EEi
node:_ZN2v88internal12CallSiteInfo22GetEnclosingLineNumberENS0_6HandleIS1_EE
node:_ZN2v88internal12CallSiteInfo24GetEnclosingColumnNumberENS0_6HandleIS1_EE
node:_ZN2v88internal12CallSiteInfo9GetScriptEPNS0_7IsolateENS0_6HandleIS1_EE
node:_ZN2v88internal12CallableTask17BriefPrintDetailsERSo
node:_ZN2v88internal12CharacterSet12CanonicalizeEv
node:_ZN2v88internal12CharacterSet6rangesEPNS0_4ZoneE
node:_ZN2v88internal12CoverageInfo14InitializeSlotEiii
node:_ZN2v88internal12CoverageInfo15ResetBlockCountEi
node:_ZN2v88internal12CoverageInfo17CoverageInfoPrintERSoSt10unique_ptrIA_cSt14default_deleteIS4_EE
node:_ZN2v88internal12DbgStreamBuf4syncEv
node:_ZN2v88internal12DbgStreamBuf8overflowEi
node:_ZN2v88internal12DbgStreamBufC1Ev
node:_ZN2v88internal12DbgStreamBufC2Ev
node:_ZN2v88internal12DbgStreamBufD0Ev
node:_ZN2v88internal12DbgStreamBufD1Ev
node:_ZN2v88internal12DbgStreamBufD2Ev
node:_ZN2v88internal12DeserializerINS0_12LocalIsolateEE24PostProcessNewJSReceiverENS0_3MapENS0_6HandleINS0_10JSReceiverEEENS0_12InstanceTypeENS0_13SnapshotSpaceE
node:_ZN2v88internal12DeserializerINS0_7IsolateEE24PostProcessNewJSReceiverENS0_3MapENS0_6HandleINS0_10JSReceiverEEENS0_12InstanceTypeENS0_13SnapshotSpaceE
node:_ZN2v88internal12Disassembler6DecodeEPNS0_7IsolateERSoPhS5_NS0_13CodeReferenceEm
node:_ZN2v88internal12EmbeddedData11FromIsolateEPNS0_7IsolateE
node:_ZN2v88internal12FeedbackCell17FeedbackCellPrintERSo
node:_ZN2v88internal12FrameSummary16WasmFrameSummaryC1EPNS0_7IsolateENS0_6HandleINS0_18WasmInstanceObjectEEEPNS0_4wasm8WasmCodeEiib
node:_ZN2v88internal12FrameSummary16WasmFrameSummaryC2EPNS0_7IsolateENS0_6HandleINS0_18WasmInstanceObjectEEEPNS0_4wasm8WasmCodeEiib
node:_ZN2v88internal12FrameSummary22JavaScriptFrameSummary30EnsureSourcePositionsAvailableEv
node:_ZN2v88internal12FrameSummary22JavaScriptFrameSummaryC1EPNS0_7IsolateENS0_6ObjectENS0_10JSFunctionENS0_12AbstractCodeEibNS0_10FixedArrayE
node:_ZN2v88internal12FrameSummary22JavaScriptFrameSummaryC2EPNS0_7IsolateENS0_6ObjectENS0_10JSFunctionENS0_12AbstractCodeEibNS0_10FixedArrayE
node:_ZN2v88internal12FrameSummary30EnsureSourcePositionsAvailableEv
node:_ZN2v88internal12FrameSummary3GetEPKNS0_11CommonFrameEi
node:_ZN2v88internal12FrameSummary6GetTopEPKNS0_11CommonFrameE
node:_ZN2v88internal12FrameSummary9GetBottomEPKNS0_11CommonFrameE
node:_ZN2v88internal12FrameSummary9GetSingleEPKNS0_11CommonFrameE
node:_ZN2v88internal12FrameSummaryD1Ev
node:_ZN2v88internal12FrameSummaryD2Ev
node:_ZN2v88internal12FreeListMany14GetPageForSizeEm
node:_ZN2v88internal12FreeListMany21GuaranteedAllocatableEm
node:_ZN2v88internal12FreeListMany8AllocateEmPmNS0_16AllocationOriginE
node:_ZN2v88internal12FreeListManyC1Ev
node:_ZN2v88internal12FreeListManyC2Ev
node:_ZN2v88internal12FreeListManyD0Ev
node:_ZN2v88internal12FreeListManyD1Ev
node:_ZN2v88internal12FreeListManyD2Ev
node:_ZN2v88internal12GetFileMutexEv
node:_ZN2v88internal12HandlerTable11LookupRangeEiPiPNS1_15CatchPredictionE
node:_ZN2v88internal12HandlerTable11SetRangeEndEii
node:_ZN2v88internal12HandlerTable12LookupReturnEi
node:_ZN2v88internal12HandlerTable12SetRangeDataEii
node:_ZN2v88internal12HandlerTable13SetRangeStartEii
node:_ZN2v88internal12HandlerTable14LengthForRangeEi
node:_ZN2v88internal12HandlerTable15EmitReturnEntryEPNS0_9AssemblerEii
node:_ZN2v88internal12HandlerTable15SetRangeHandlerEiiNS1_15CatchPredictionE
node:_ZN2v88internal12HandlerTable17EntrySizeFromModeENS1_12EncodingModeE
node:_ZN2v88internal12HandlerTable20EmitReturnTableStartEPNS0_9AssemblerE
node:_ZN2v88internal12HandlerTable22HandlerTableRangePrintERSo
node:_ZN2v88internal12HandlerTable23HandlerTableReturnPrintERSo
node:_ZN2v88internal12HandlerTableC1ENS0_13BytecodeArrayE
node:_ZN2v88internal12HandlerTableC1ENS0_4CodeE
node:_ZN2v88internal12HandlerTableC1ENS0_9ByteArrayE
node:_ZN2v88internal12HandlerTableC1EPKNS0_4wasm8WasmCodeE
node:_ZN2v88internal12HandlerTableC1EmiNS1_12EncodingModeE
node:_ZN2v88internal12HandlerTableC2ENS0_13BytecodeArrayE
node:_ZN2v88internal12HandlerTableC2ENS0_4CodeE
node:_ZN2v88internal12HandlerTableC2ENS0_9ByteArrayE
node:_ZN2v88internal12HandlerTableC2EPKNS0_4wasm8WasmCodeE
node:_ZN2v88internal12HandlerTableC2EmiNS1_12EncodingModeE
node:_ZN2v88internal12HeapProfiler11GetSnapshotEi
node:_ZN2v88internal12HeapProfiler12QueryObjectsENS0_6HandleINS0_7ContextEEEPNS_5debug20QueryObjectPredicateEPSt6vectorINS_6GlobalINS_6ObjectEEESaISB_EE
node:_ZN2v88internal12HeapProfiler12TakeSnapshotENS_12HeapProfiler19HeapSnapshotOptionsE
node:_ZN2v88internal12HeapProfiler14RemoveSnapshotEPNS0_12HeapSnapshotE
node:_ZN2v88internal12HeapProfiler15AllocationEventEmi
node:_ZN2v88internal12HeapProfiler15GetDetachednessENS_5LocalINS_5ValueEEEt
node:_ZN2v88internal12HeapProfiler15ObjectMoveEventEmmi
node:_ZN2v88internal12HeapProfiler18BuildEmbedderGraphEPNS0_7IsolateEPNS_13EmbedderGraphE
node:_ZN2v88internal12HeapProfiler18ClearHeapObjectMapEv
node:_ZN2v88internal12HeapProfiler18DeleteAllSnapshotsEv
node:_ZN2v88internal12HeapProfiler18FindHeapObjectByIdEj
node:_ZN2v88internal12HeapProfiler19GetSnapshotObjectIdENS0_6HandleINS0_6ObjectEEE
node:_ZN2v88internal12HeapProfiler19GetSnapshotObjectIdEPv
node:_ZN2v88internal12HeapProfiler20GetAllocationProfileEv
node:_ZN2v88internal12HeapProfiler20PushHeapObjectsStatsEPNS_12OutputStreamEPl
node:_ZN2v88internal12HeapProfiler21UpdateObjectSizeEventEmi
node:_ZN2v88internal12HeapProfiler23StopHeapObjectsTrackingEv
node:_ZN2v88internal12HeapProfiler24MaybeClearStringsStorageEv
node:_ZN2v88internal12HeapProfiler24StartHeapObjectsTrackingEb
node:_ZN2v88internal12HeapProfiler24StopSamplingHeapProfilerEv
node:_ZN2v88internal12HeapProfiler25StartSamplingHeapProfilerEmiNS_12HeapProfiler13SamplingFlagsE
node:_ZN2v88internal12HeapProfiler26SetGetDetachednessCallbackEPFNS_13EmbedderGraph4Node12DetachednessEPNS_7IsolateERKNS_5LocalINS_5ValueEEEtPvESC_
node:_ZN2v88internal12HeapProfiler29AddBuildEmbedderGraphCallbackEPFvPNS_7IsolateEPNS_13EmbedderGraphEPvES6_
node:_ZN2v88internal12HeapProfiler32RemoveBuildEmbedderGraphCallbackEPFvPNS_7IsolateEPNS_13EmbedderGraphEPvES6_
node:_ZN2v88internal12HeapProfilerC1EPNS0_4HeapE
node:_ZN2v88internal12HeapProfilerC2EPNS0_4HeapE
node:_ZN2v88internal12HeapProfilerD0Ev
node:_ZN2v88internal12HeapProfilerD1Ev
node:_ZN2v88internal12HeapProfilerD2Ev
node:_ZN2v88internal12HeapSnapshot11AddLocationEPNS0_9HeapEntryEiii
node:_ZN2v88internal12HeapSnapshot12AddRootEntryEv
node:_ZN2v88internal12HeapSnapshot12FillChildrenEv
node:_ZN2v88internal12HeapSnapshot12GetEntryByIdEj
node:_ZN2v88internal12HeapSnapshot15AddGcRootsEntryEv
node:_ZN2v88internal12HeapSnapshot17AddGcSubrootEntryENS0_4RootEj
node:_ZN2v88internal12HeapSnapshot22RememberLastJSObjectIdEv
node:_ZN2v88internal12HeapSnapshot23AddSyntheticRootEntriesEv
node:_ZN2v88internal12HeapSnapshot5PrintEi
node:_ZN2v88internal12HeapSnapshot6DeleteEv
node:_ZN2v88internal12HeapSnapshot8AddEntryENS0_9HeapEntry4TypeEPKcjmj
node:_ZN2v88internal12HeapSnapshotC1EPNS0_12HeapProfilerENS_12HeapProfiler16HeapSnapshotModeENS4_12NumericsModeE
node:_ZN2v88internal12HeapSnapshotC2EPNS0_12HeapProfilerENS_12HeapProfiler16HeapSnapshotModeENS4_12NumericsModeE
node:_ZN2v88internal12IntToCStringEiNS_4base6VectorIcEE
node:_ZN2v88internal12IsFastLocaleENS0_6ObjectE
node:_ZN2v88internal12JSListFormat10FormatListEPNS0_7IsolateENS0_6HandleIS1_EENS4_INS0_10FixedArrayEEE
node:_ZN2v88internal12JSListFormat15ResolvedOptionsEPNS0_7IsolateENS0_6HandleIS1_EE
node:_ZN2v88internal12JSListFormat17FormatListToPartsEPNS0_7IsolateENS0_6HandleIS1_EENS4_INS0_10FixedArrayEEE
node:_ZN2v88internal12JSListFormat17JSListFormatPrintERSo
node:_ZN2v88internal12JSListFormat19GetAvailableLocalesB5cxx11Ev
node:_ZN2v88internal12JSListFormat3NewEPNS0_7IsolateENS0_6HandleINS0_3MapEEENS4_INS0_6ObjectEEES8_
node:_ZN2v88internal12JSTypedArray17DefineOwnPropertyEPNS0_7IsolateENS0_6HandleIS1_EENS4_INS0_6ObjectEEEPNS0_18PropertyDescriptorENS_5MaybeINS0_11ShouldThrowEEE
node:_ZN2v88internal12JSTypedArray17JSTypedArrayPrintERSo
node:_ZN2v88internal12JSTypedArray40LengthTrackingGsabBackedTypedArrayLengthEPNS0_7IsolateEm
node:_ZN2v88internal12JSTypedArray4typeEv
node:_ZN2v88internal12JSTypedArray9GetBufferEv
node:_ZN2v88internal12KeyedStoreIC18UpdateStoreElementENS0_6HandleINS0_3MapEEENS0_20KeyedAccessStoreModeES4_
node:_ZN2v88internal12KeyedStoreIC19StoreElementHandlerENS0_6HandleINS0_3MapEEENS0_20KeyedAccessStoreModeENS0_11MaybeHandleINS0_6ObjectEEE
node:_ZN2v88internal12KeyedStoreIC31StoreElementPolymorphicHandlersEPSt6vectorISt4pairINS0_6HandleINS0_3MapEEENS0_17MaybeObjectHandleEESaIS8_EENS0_20KeyedAccessStoreModeE
node:_ZN2v88internal12KeyedStoreIC5StoreENS0_6HandleINS0_6ObjectEEES4_S4_
node:_ZN2v88internal12LoadGlobalIC4LoadENS0_6HandleINS0_4NameEEEb
node:_ZN2v88internal12LocalFactory11AllocateRawEiNS0_14AllocationTypeENS0_19AllocationAlignmentE
node:_ZN2v88internal12LocalFactory15AddToScriptListENS0_6HandleINS0_6ScriptEEE
node:_ZN2v88internal12LocalFactory22NumberToStringCacheGetENS0_6ObjectEi
node:_ZN2v88internal12LocalFactory22NumberToStringCacheSetENS0_6HandleINS0_6ObjectEEEiNS2_INS0_6StringEEE
node:_ZN2v88internal12LocalFactory23NumberToStringCacheHashENS0_3SmiE
node:_ZN2v88internal12LocalFactory23NumberToStringCacheHashEd
node:_ZN2v88internal12LocalFactoryC1EPNS0_7IsolateE
node:_ZN2v88internal12LocalFactoryC2EPNS0_7IsolateE
node:_ZN2v88internal12LocalHandles18RemoveUnusedBlocksEv
node:_ZN2v88internal12LocalHandles7IterateEPNS0_11RootVisitorE
node:_ZN2v88internal12LocalHandles8AddBlockEv
node:_ZN2v88internal12LocalHandlesC1Ev
node:_ZN2v88internal12LocalHandlesC2Ev
node:_ZN2v88internal12LocalHandlesD1Ev
node:_ZN2v88internal12LocalHandlesD2Ev
node:_ZN2v88internal12LocalIsolate13DefaultLocaleB5cxx11Ev
node:_ZN2v88internal12LocalIsolate15GetNextScriptIdEv
node:_ZN2v88internal12LocalIsolate25InitializeBigIntProcessorEv
node:_ZN2v88internal12LocalIsolate27RegisterDeserializerStartedEv
node:_ZN2v88internal12LocalIsolate28RegisterDeserializerFinishedEv
node:_ZN2v88internal12LocalIsolateC1EPNS0_7IsolateENS0_10ThreadKindE
node:_ZN2v88internal12LocalIsolateC2EPNS0_7IsolateENS0_10ThreadKindE
node:_ZN2v88internal12LocalIsolateD1Ev
node:_ZN2v88internal12LocalIsolateD2Ev
node:_ZN2v88internal12OFStreamBase4syncEv
node:_ZN2v88internal12OFStreamBase6xsputnEPKcl
node:_ZN2v88internal12OFStreamBase8overflowEi
node:_ZN2v88internal12OFStreamBaseC1EP8_IO_FILE
node:_ZN2v88internal12OFStreamBaseC2EP8_IO_FILE
node:_ZN2v88internal12PassesFilterENS_4base6VectorIKcEES4_
node:_ZN2v88internal12PreparseData17PreparseDataPrintERSo
node:_ZN2v88internal12PrintIsolateEPvPKcz
node:_ZN2v88internal12PropertyCell11InitialTypeEPNS0_7IsolateENS0_6ObjectE
node:_ZN2v88internal12PropertyCell11UpdatedTypeEPNS0_7IsolateES1_NS0_6ObjectENS0_15PropertyDetailsE
node:_ZN2v88internal12PropertyCell17PropertyCellPrintERSo
node:_ZN2v88internal12PropertyCell18ClearAndInvalidateENS0_13ReadOnlyRootsE
node:_ZN2v88internal12PropertyCell19InvalidateProtectorEv
node:_ZN2v88internal12PropertyCell21CheckDataIsCompatibleENS0_15PropertyDetailsENS0_6ObjectE
node:_ZN2v88internal12PropertyCell21PrepareForAndSetValueEPNS0_7IsolateENS0_6HandleINS0_16GlobalDictionaryEEENS0_13InternalIndexENS4_INS0_6ObjectEEENS0_15PropertyDetailsE
node:_ZN2v88internal12PropertyCell25InvalidateAndReplaceEntryEPNS0_7IsolateENS0_6HandleINS0_16GlobalDictionaryEEENS0_13InternalIndexENS0_15PropertyDetailsENS4_INS0_6ObjectEEE
node:_ZN2v88internal12ReadOnlyHeap14OnHeapTearDownEPNS0_4HeapE
node:_ZN2v88internal12ReadOnlyHeap15InitFromIsolateEPNS0_7IsolateE
node:_ZN2v88internal12ReadOnlyHeap21OnCreateRootsCompleteEPNS0_7IsolateE
node:_ZN2v88internal12ReadOnlyHeap22DeserializeIntoIsolateEPNS0_7IsolateEPNS0_12SnapshotDataEb
node:_ZN2v88internal12ReadOnlyHeap23IsSharedMemoryAvailableEv
node:_ZN2v88internal12ReadOnlyHeap25ExtendReadOnlyObjectCacheEv
node:_ZN2v88internal12ReadOnlyHeap27OnCreateHeapObjectsCompleteEPNS0_7IsolateE
node:_ZN2v88internal12ReadOnlyHeap31PopulateReadOnlySpaceStatisticsEPNS_22SharedMemoryStatisticsE
node:_ZN2v88internal12ReadOnlyHeap32CreateInitalHeapForBootstrappingEPNS0_7IsolateESt10shared_ptrINS0_17ReadOnlyArtifactsEE
node:_ZN2v88internal12ReadOnlyHeap5SetUpEPNS0_7IsolateEPNS0_12SnapshotDataEb
node:_ZN2v88internal12ReadOnlyHeap8ContainsENS0_10HeapObjectE
node:_ZN2v88internal12ReadOnlyHeap8ContainsEm
node:_ZN2v88internal12ReadOnlyHeapC1EPS1_PNS0_13ReadOnlySpaceE
node:_ZN2v88internal12ReadOnlyHeapC2EPS1_PNS0_13ReadOnlySpaceE
node:_ZN2v88internal12ReadOnlyPage21MakeHeaderRelocatableEv
node:_ZN2v88internal12ReadOnlyPage21ShrinkToHighWaterMarkEv
node:_ZN2v88internal12ReadOnlyPageC1EPNS0_4HeapEPNS0_9BaseSpaceEmmmNS0_13VirtualMemoryE
node:_ZN2v88internal12ReadOnlyPageC2EPNS0_4HeapEPNS0_9BaseSpaceEmmmNS0_13VirtualMemoryE
node:_ZN2v88internal12RegExpParser25ParseRegExpFromHeapStringEPNS0_7IsolateEPNS0_4ZoneENS0_6HandleINS0_6StringEEENS_4base5FlagsINS0_10RegExpFlagEiEEPNS0_17RegExpCompileDataE
node:_ZN2v88internal12ReleasePagesEPNS_13PageAllocatorEPvmm
node:_ZN2v88internal12RootIndexMapC1EPNS0_7IsolateE
node:_ZN2v88internal12RootIndexMapC2EPNS0_7IsolateE
node:_ZN2v88internal12Runtime_CallEiPmPNS0_7IsolateE
node:_ZN2v88internal12SHA256_finalEPNS0_8HASH_CTXE
node:_ZN2v88internal12SnapshotDataC1EPKNS0_10SerializerE
node:_ZN2v88internal12SnapshotDataC2EPKNS0_10SerializerE
node:_ZN2v88internal12StatsCounter22SetupPtrFromStatsTableEv
node:_ZN2v88internal12StatsCounter7EnabledEv
node:_ZN2v88internal12StdoutStream14GetStdoutMutexEv
node:_ZN2v88internal12StoreHandler10StoreProxyEPNS0_7IsolateENS0_6HandleINS0_3MapEEENS4_INS0_7JSProxyEEENS4_INS0_10JSReceiverEEE
node:_ZN2v88internal12StoreHandler11StoreGlobalENS0_6HandleINS0_12PropertyCellEEE
node:_ZN2v88internal12StoreHandler12PrintHandlerENS0_6ObjectERSo
node:_ZN2v88internal12StoreHandler15StoreTransitionEPNS0_7IsolateENS0_6HandleINS0_3MapEEE
node:_ZN2v88internal12StoreHandler17StoreHandlerPrintERSo
node:_ZN2v88internal12StoreHandler18StoreOwnTransitionEPNS0_7IsolateENS0_6HandleINS0_3MapEEE
node:_ZN2v88internal12StoreHandler21StoreThroughPrototypeEPNS0_7IsolateENS0_6HandleINS0_3MapEEENS4_INS0_10JSReceiverEEENS4_INS0_3SmiEEENS0_17MaybeObjectHandleESB_
node:_ZN2v88internal12StoreHandler22StoreElementTransitionEPNS0_7IsolateENS0_6HandleINS0_3MapEEES6_NS0_20KeyedAccessStoreModeENS0_11MaybeHandleINS0_6ObjectEEE
node:_ZN2v88internal12StoreHandler23GetKeyedAccessStoreModeENS0_11MaybeObjectE
node:_ZN2v88internal12StringHasher18MakeArrayIndexHashEji
node:_ZN2v88internal12StringStream11PrintObjectENS0_6ObjectE
node:_ZN2v88internal12StringStream12OutputToFileEP8_IO_FILE
node:_ZN2v88internal12StringStream13PrintFunctionENS0_10JSFunctionENS0_6ObjectE
node:_ZN2v88internal12StringStream13PrintUsingMapENS0_8JSObjectE
node:_ZN2v88internal12StringStream14PrintByteArrayENS0_9ByteArrayE
node:_ZN2v88internal12StringStream14PrintPrototypeENS0_10JSFunctionENS0_6ObjectE
node:_ZN2v88internal12StringStream15PrintFixedArrayENS0_10FixedArrayEj
node:_ZN2v88internal12StringStream25ClearMentionedObjectCacheEPNS0_7IsolateE
node:_ZN2v88internal12StringStream25PrintMentionedObjectCacheEPNS0_7IsolateE
node:_ZN2v88internal12StringStream27PrintSecurityTokenIfChangedENS0_10JSFunctionE
node:_ZN2v88internal12StringStream3AddENS_4base6VectorIKcEENS3_INS1_6FmtElmEEE
node:_ZN2v88internal12StringStream3LogEPNS0_7IsolateE
node:_ZN2v88internal12StringStream3PutENS0_6StringE
node:_ZN2v88internal12StringStream3PutENS0_6StringEii
node:_ZN2v88internal12StringStream3PutEc
node:_ZN2v88internal12StringStream8ToStringEPNS0_7IsolateE
node:_ZN2v88internal12StringStream9PrintNameENS0_6ObjectE
node:_ZN2v88internal12TemplateList3AddEPNS0_7IsolateENS0_6HandleIS1_EENS4_INS0_6ObjectEEE
node:_ZN2v88internal12TemplateList3NewEPNS0_7IsolateEi
node:_ZN2v88internal12ToDateStringEdPNS0_9DateCacheENS0_16ToDateStringModeE
node:_ZN2v88internal12TracingFlags10zone_statsE
node:_ZN2v88internal12TracingFlags13runtime_statsE
node:_ZN2v88internal12TracingFlags2gcE
node:_ZN2v88internal12TracingFlags8gc_statsE
node:_ZN2v88internal12TracingFlags8ic_statsE
node:_ZN2v88internal12TypedSlotSet17ClearInvalidSlotsERKSt3mapIjjSt4lessIjESaISt4pairIKjjEEE
node:_ZN2v88internal12TypedSlotSet20AssertNoInvalidSlotsERKSt3mapIjjSt4lessIjESaISt4pairIKjjEEE
node:_ZN2v88internal12V8FileLogger10LogAllMapsEv
node:_ZN2v88internal12V8FileLogger10MapDetailsENS0_3MapE
node:_ZN2v88internal12V8FileLogger10TimerEventENS_14LogEventStatusEPKc
node:_ZN2v88internal12V8FileLogger10is_loggingEv
node:_ZN2v88internal12V8FileLogger11DeleteEventEPKcPv
node:_ZN2v88internal12V8FileLogger11LogBuiltinsEv
node:_ZN2v88internal12V8FileLogger11ScriptEventENS0_15ScriptEventTypeEi
node:_ZN2v88internal12V8FileLogger11StringEventEPKcS3_
node:_ZN2v88internal12V8FileLogger12IntPtrTEventEPKcl
node:_ZN2v88internal12V8FileLogger13CallbackEventENS0_6HandleINS0_4NameEEEm
node:_ZN2v88internal12V8FileLogger13CodeMoveEventENS0_17InstructionStreamES2_
node:_ZN2v88internal12V8FileLogger13CodeNameEventEmiPKc
node:_ZN2v88internal12V8FileLogger13FunctionEventEPKcidiiNS0_6StringE
node:_ZN2v88internal12V8FileLogger13FunctionEventEPKcidiiS3_mb
node:_ZN2v88internal12V8FileLogger13ScriptDetailsENS0_6ScriptE
node:_ZN2v88internal12V8FileLogger14CodeDeoptEventENS0_6HandleINS0_4CodeEEENS0_14DeoptimizeKindEmi
node:_ZN2v88internal12V8FileLogger14LogCodeObjectsEv
node:_ZN2v88internal12V8FileLogger15CodeCreateEventENS0_16LogEventListener7CodeTagENS0_6HandleINS0_12AbstractCodeEEENS4_INS0_18SharedFunctionInfoEEENS4_INS0_4NameEEE
node:_ZN2v88internal12V8FileLogger15CodeCreateEventENS0_16LogEventListener7CodeTagENS0_6HandleINS0_12AbstractCodeEEENS4_INS0_18SharedFunctionInfoEEENS4_INS0_4NameEEEii
node:_ZN2v88internal12V8FileLogger15CodeCreateEventENS0_16LogEventListener7CodeTagENS0_6HandleINS0_12AbstractCodeEEENS4_INS0_4NameEEE
node:_ZN2v88internal12V8FileLogger15CodeCreateEventENS0_16LogEventListener7CodeTagENS0_6HandleINS0_12AbstractCodeEEEPKc
node:_ZN2v88internal12V8FileLogger15CodeCreateEventENS0_16LogEventListener7CodeTagEPKNS0_4wasm8WasmCodeENS_4base6VectorIKcEEPSA_ii
node:_ZN2v88internal12V8FileLogger15UpdateIsLoggingEb
node:_ZN2v88internal12V8FileLogger16CurrentTimeEventEv
node:_ZN2v88internal12V8FileLogger16SharedLibraryEndEv
node:_ZN2v88internal12V8FileLogger17BytecodeMoveEventENS0_13BytecodeArrayES2_
node:_ZN2v88internal12V8FileLogger17CodeMovingGCEventEv
node:_ZN2v88internal12V8FileLogger17MoveEventInternalENS0_16LogEventListener5EventEmm
node:_ZN2v88internal12V8FileLogger17ProcessDeoptEventENS0_6HandleINS0_4CodeEEENS0_14SourcePositionEPKcS7_
node:_ZN2v88internal12V8FileLogger18LogCodeDisassembleENS0_6HandleINS0_12AbstractCodeEEE
node:_ZN2v88internal12V8FileLogger18ProfilerBeginEventEv
node:_ZN2v88internal12V8FileLogger18SharedLibraryEventERKNSt7__cxx1112basic_stringIcSt11char_traitsIcESaIcEEEmml
node:_ZN2v88internal12V8FileLogger18StopProfilerThreadEv
node:_ZN2v88internal12V8FileLogger19AddLogEventListenerEPNS0_16LogEventListenerE
node:_ZN2v88internal12V8FileLogger19CodeDisableOptEventENS0_6HandleINS0_12AbstractCodeEEENS2_INS0_18SharedFunctionInfoEEE
node:_ZN2v88internal12V8FileLogger19FeedbackVectorEventENS0_14FeedbackVectorENS0_12AbstractCodeE
node:_ZN2v88internal12V8FileLogger19GetterCallbackEventENS0_6HandleINS0_4NameEEEm
node:_ZN2v88internal12V8FileLogger19LogExistingFunctionENS0_6HandleINS0_18SharedFunctionInfoEEENS2_INS0_12AbstractCodeEEE
node:_ZN2v88internal12V8FileLogger19SetCodeEventHandlerEjPFvPKNS_12JitCodeEventEE
node:_ZN2v88internal12V8FileLogger19SetterCallbackEventENS0_6HandleINS0_4NameEEEm
node:_ZN2v88internal12V8FileLogger20LogAccessorCallbacksEv
node:_ZN2v88internal12V8FileLogger20LogCompiledFunctionsEb
node:_ZN2v88internal12V8FileLogger20UncheckedStringEventEPKcS3_
node:_ZN2v88internal12V8FileLogger21CallbackEventInternalEPKcNS0_6HandleINS0_4NameEEEm
node:_ZN2v88internal12V8FileLogger21CompilationCacheEventEPKcS3_NS0_18SharedFunctionInfoE
node:_ZN2v88internal12V8FileLogger21EnsureLogScriptSourceENS0_6ScriptE
node:_ZN2v88internal12V8FileLogger21RegExpCodeCreateEventENS0_6HandleINS0_12AbstractCodeEEENS2_INS0_6StringEEE
node:_ZN2v88internal12V8FileLogger21RuntimeCallTimerEventEv
node:_ZN2v88internal12V8FileLogger21TearDownAndGetLogFileEv
node:_ZN2v88internal12V8FileLogger22RemoveLogEventListenerEPNS0_16LogEventListenerE
node:_ZN2v88internal12V8FileLogger24LogSourceCodeInformationENS0_6HandleINS0_12AbstractCodeEEENS2_INS0_18SharedFunctionInfoEEE
node:_ZN2v88internal12V8FileLogger25CodeDependencyChangeEventENS0_6HandleINS0_4CodeEEENS2_INS0_18SharedFunctionInfoEEEPKc
node:_ZN2v88internal12V8FileLogger26CodeLinePosInfoRecordEventEmNS0_9ByteArrayENS_12JitCodeEvent8CodeTypeE
node:_ZN2v88internal12V8FileLogger27SharedFunctionInfoMoveEventEmm
node:_ZN2v88internal12V8FileLogger30WasmCodeLinePosInfoRecordEventEmNS_4base6VectorIKhEE
node:_ZN2v88internal12V8FileLogger4TimeEv
node:_ZN2v88internal12V8FileLogger5SetUpEPNS0_7IsolateE
node:_ZN2v88internal12V8FileLogger5kNextE
node:_ZN2v88internal12V8FileLogger7ICEventEPKcbNS0_6HandleINS0_3MapEEENS4_INS0_6ObjectEEEccS3_S3_
node:_ZN2v88internal12V8FileLogger7samplerEv
node:_ZN2v88internal12V8FileLogger8MapEventEPKcNS0_6HandleINS0_3MapEEES6_S3_NS4_INS0_10HeapObjectEEE
node:_ZN2v88internal12V8FileLogger8NewEventEPKcPvm
node:_ZN2v88internal12V8FileLogger9LateSetupEPNS0_7IsolateE
node:_ZN2v88internal12V8FileLogger9MapCreateENS0_3MapE
node:_ZN2v88internal12V8FileLogger9TickEventEPNS0_10TickSampleEb
node:_ZN2v88internal12V8FileLoggerC1EPNS0_7IsolateE
node:_ZN2v88internal12V8FileLoggerC2EPNS0_7IsolateE
node:_ZN2v88internal12V8FileLoggerD0Ev
node:_ZN2v88internal12V8FileLoggerD1Ev
node:_ZN2v88internal12V8FileLoggerD2Ev
node:_ZN2v88internal12WasmTypeInfo17WasmTypeInfoPrintERSo
node:_ZN2v88internal12WriteBarrier10SharedSlowEPNS0_9RelocInfoENS0_10HeapObjectE
node:_ZN2v88internal12WriteBarrier11MarkingSlowENS0_10HeapObjectENS0_18FullHeapObjectSlotES2_
node:_ZN2v88internal12WriteBarrier11MarkingSlowENS0_13JSArrayBufferEPNS0_20ArrayBufferExtensionE
node:_ZN2v88internal12WriteBarrier11MarkingSlowENS0_15DescriptorArrayEi
node:_ZN2v88internal12WriteBarrier11MarkingSlowENS0_17InstructionStreamEPNS0_9RelocInfoENS0_10HeapObjectE
node:_ZN2v88internal12WriteBarrier12SetForThreadEPNS0_14MarkingBarrierE
node:_ZN2v88internal12WriteBarrier14SharedFromCodeEmm
node:_ZN2v88internal12WriteBarrier15MarkingFromCodeEmm
node:_ZN2v88internal12WriteBarrier21CurrentMarkingBarrierENS0_10HeapObjectE
node:_ZN2v88internal12WriteBarrier21SharedMarkingFromCodeEmm
node:_ZN2v88internal12WriteBarrier27MarkingSlowFromGlobalHandleENS0_10HeapObjectE
node:_ZN2v88internal12WriteBarrier29MarkingSlowFromInternalFieldsEPNS0_4HeapENS0_8JSObjectE
node:_ZN2v88internal12libc_memmoveEPvPKvm
node:_ZN2v88internal12trap_handler12HandleSignalEiP9siginfo_tPv
node:_ZN2v88internal12trap_handler12MetadataLock9spinlock_E
node:_ZN2v88internal12trap_handler12MetadataLockC1Ev
node:_ZN2v88internal12trap_handler12MetadataLockC2Ev
node:_ZN2v88internal12trap_handler12MetadataLockD1Ev
node:_ZN2v88internal12trap_handler12MetadataLockD2Ev
node:_ZN2v88internal12trap_handler12gCodeObjectsE
node:_ZN2v88internal12trap_handler15TryHandleSignalEiP9siginfo_tPv
node:_ZN2v88internal12trap_handler15gNumCodeObjectsE
node:_ZN2v88internal12trap_handler17CreateHandlerDataEmmmPKNS1_24ProtectedInstructionDataE
node:_ZN2v88internal12trap_handler17EnableTrapHandlerEb
node:_ZN2v88internal12trap_handler17RemoveTrapHandlerEv
node:_ZN2v88internal12trap_handler17TryFindLandingPadEmPm
node:_ZN2v88internal12trap_handler18ReleaseHandlerDataEi
node:_ZN2v88internal12trap_handler19RegisterHandlerDataEmmmPKNS1_24ProtectedInstructionDataE
node:_ZN2v88internal12trap_handler19gRecoveredTrapCountE
node:_ZN2v88internal12trap_handler21GetRecoveredTrapCountEv
node:_ZN2v88internal12trap_handler21g_thread_in_wasm_codeE
node:_ZN2v88internal12trap_handler23IsKernelGeneratedSignalEP9siginfo_t
node:_ZN2v88internal12trap_handler25g_can_enable_trap_handlerE
node:_ZN2v88internal12trap_handler25g_is_trap_handler_enabledE
node:_ZN2v88internal12trap_handler26RegisterDefaultTrapHandlerEv
node:_ZN2v88internal12trap_handler33GetThreadInWasmThreadLocalAddressEv
node:_ZN2v88internal13AllocatePagesEPNS_13PageAllocatorEPvmmNS1_10PermissionE
node:_ZN2v88internal13AnalyzeRegExpEPNS0_7IsolateEbNS_4base5FlagsINS0_10RegExpFlagEiEEPNS0_10RegExpNodeE
node:_ZN2v88internal13AssemblerBase13AddCodeTargetENS0_6HandleINS0_4CodeEEE
node:_ZN2v88internal13AssemblerBase17AddEmbeddedObjectENS0_6HandleINS0_10HeapObjectEEE
node:_ZN2v88internal13AssemblerBase17RequestHeapNumberENS0_17HeapNumberRequestE
node:_ZN2v88internal13AssemblerBase5PrintEPNS0_7IsolateE
node:_ZN2v88internal13AssemblerBaseC1ERKNS0_16AssemblerOptionsESt10unique_ptrINS0_15AssemblerBufferESt14default_deleteIS6_EE
node:_ZN2v88internal13AssemblerBaseC2ERKNS0_16AssemblerOptionsESt10unique_ptrINS0_15AssemblerBufferESt14default_deleteIS6_EE
node:_ZN2v88internal13AssemblerBaseD0Ev
node:_ZN2v88internal13AssemblerBaseD1Ev
node:_ZN2v88internal13AssemblerBaseD2Ev
node:_ZN2v88internal13AssertionNode12FillInBMInfoEPNS0_7IsolateEiiPNS0_19BoyerMooreLookaheadEb
node:_ZN2v88internal13AssertionNode17EmitBoundaryCheckEPNS0_14RegExpCompilerEPNS0_5TraceE
node:_ZN2v88internal13AssertionNode19BacktrackIfPreviousEPNS0_14RegExpCompilerEPNS0_5TraceENS1_10IfPreviousE
node:_ZN2v88internal13AssertionNode20GetQuickCheckDetailsEPNS0_17QuickCheckDetailsEPNS0_14RegExpCompilerEib
node:_ZN2v88internal13AssertionNode4EmitEPNS0_14RegExpCompilerEPNS0_5TraceE
node:_ZN2v88internal13AssertionNode6AcceptEPNS0_11NodeVisitorE
node:_ZN2v88internal13BaselineFrame12PatchContextENS0_7ContextE
node:_ZN2v88internal13BreakIterator13SetDebugBreakEv
node:_ZN2v88internal13BreakIterator14SkipToPositionEi
node:_ZN2v88internal13BreakIterator15ClearDebugBreakEv
node:_ZN2v88internal13BreakIterator16GetBreakLocationEv
node:_ZN2v88internal13BreakIterator17GetDebugBreakTypeEv
node:_ZN2v88internal13BreakIterator22BreakIndexFromPositionEi
node:_ZN2v88internal13BreakIterator4NextEv
node:_ZN2v88internal13BreakIterator7isolateEv
node:_ZN2v88internal13BreakIteratorC1ENS0_6HandleINS0_9DebugInfoEEE
node:_ZN2v88internal13BreakIteratorC2ENS0_6HandleINS0_9DebugInfoEEE
node:_ZN2v88internal13BreakLocation21AllAtCurrentStatementENS0_6HandleINS0_9DebugInfoEEEPNS0_15JavaScriptFrameEPSt6vectorIS1_SaIS1_EE
node:_ZN2v88internal13BreakLocation24BreakIndexFromCodeOffsetENS0_6HandleINS0_9DebugInfoEEENS2_INS0_12AbstractCodeEEEi
node:_ZN2v88internal13BreakLocation25IsPausedInJsFunctionEntryEPNS0_15JavaScriptFrameE
node:_ZN2v88internal13BreakLocation9FromFrameENS0_6HandleINS0_9DebugInfoEEEPNS0_15JavaScriptFrameE
node:_ZN2v88internal13Builtin_TraceEiPmPNS0_7IsolateE
node:_ZN2v88internal13BytecodeArray11DisassembleENS0_6HandleIS1_EERSo
node:_ZN2v88internal13BytecodeArray11DisassembleERSo
node:_ZN2v88internal13BytecodeArray15CopyBytecodesToES1_
node:_ZN2v88internal13BytecodeArray18BytecodeArrayPrintERSo
node:_ZN2v88internal13BytecodeArray9MakeOlderEv
node:_ZN2v88internal13BytecodeArray9PrintJsonERSo
node:_ZN2v88internal13CollectorBase15StartSweepSpaceEPNS0_10PagedSpaceE
node:_ZN2v88internal13CollectorBase9IsMajorMCEv
node:_ZN2v88internal13CollectorBaseC1EPNS0_4HeapENS0_16GarbageCollectorE
node:_ZN2v88internal13CollectorBaseC2EPNS0_4HeapENS0_16GarbageCollectorE
node:_ZN2v88internal13ContextFilter11OnMoveEventEmm
node:_ZN2v88internal13ConvertDoubleIbEET_d
node:_ZN2v88internal13ConvertDoubleIdEET_d
node:_ZN2v88internal13ConvertDoubleIfEET_d
node:_ZN2v88internal13ConvertDoubleIiEET_d
node:_ZN2v88internal13ConvertDoubleIjEET_d
node:_ZN2v88internal13ConvertDoubleIlEET_d
node:_ZN2v88internal13ConvertDoubleImEET_d
node:_ZN2v88internal13DebugEvaluate14ContextBuilder12UpdateValuesEv
node:_ZN2v88internal13DebugEvaluate14ContextBuilderC1EPNS0_7IsolateEPNS0_15JavaScriptFrameEi
node:_ZN2v88internal13DebugEvaluate14ContextBuilderC2EPNS0_7IsolateEPNS0_15JavaScriptFrameEi
node:_ZN2v88internal13DebugEvaluate20WithTopmostArgumentsEPNS0_7IsolateENS0_6HandleINS0_6StringEEE
node:_ZN2v88internal13DebugEvaluate21ApplySideEffectChecksENS0_6HandleINS0_13BytecodeArrayEEE
node:_ZN2v88internal13DebugEvaluate25IsSideEffectFreeIntrinsicENS0_7Runtime10FunctionIdE
node:_ZN2v88internal13DebugEvaluate26FunctionGetSideEffectStateEPNS0_7IsolateENS0_6HandleINS0_18SharedFunctionInfoEEE
node:_ZN2v88internal13DebugEvaluate5LocalEPNS0_7IsolateENS0_12StackFrameIdEiNS0_6HandleINS0_6StringEEEb
node:_ZN2v88internal13DebugEvaluate6GlobalEPNS0_7IsolateENS0_6HandleINS0_10JSFunctionEEENS_5debug18EvaluateGlobalModeENS0_8REPLModeE
node:_ZN2v88internal13DebugEvaluate6GlobalEPNS0_7IsolateENS0_6HandleINS0_6StringEEENS_5debug18EvaluateGlobalModeENS0_8REPLModeE
node:_ZN2v88internal13DebugEvaluate8EvaluateEPNS0_7IsolateENS0_6HandleINS0_18SharedFunctionInfoEEENS4_INS0_7ContextEEENS4_INS0_6ObjectEEENS4_INS0_6StringEEEb
node:_ZN2v88internal13DependentCode14InsertWeakCodeEPNS0_7IsolateENS0_6HandleIS1_EENS_4base5FlagsINS1_15DependencyGroupEjEENS4_INS0_4CodeEEE
node:_ZN2v88internal13DependentCode16GetDependentCodeENS0_10HeapObjectE
node:_ZN2v88internal13DependentCode16SetDependentCodeENS0_6HandleINS0_10HeapObjectEEENS2_IS1_EE
node:_ZN2v88internal13DependentCode17FillEntryFromBackEii
node:_ZN2v88internal13DependentCode17InstallDependencyEPNS0_7IsolateENS0_6HandleINS0_4CodeEEENS4_INS0_10HeapObjectEEENS_4base5FlagsINS1_15DependencyGroupEjEE
node:_ZN2v88internal13DependentCode17IterateAndCompactERKSt8functionIFbNS0_4CodeENS_4base5FlagsINS1_15DependencyGroupEjEEEE
node:_ZN2v88internal13DependentCode19DependencyGroupNameENS1_15DependencyGroupE
node:_ZN2v88internal13DependentCode20empty_dependent_codeERKNS0_13ReadOnlyRootsE
node:_ZN2v88internal13DependentCode25MarkCodeForDeoptimizationEPNS0_7IsolateENS_4base5FlagsINS1_15DependencyGroupEjEE
node:_ZN2v88internal13DependentCode26DeoptimizeDependencyGroupsEPNS0_7IsolateENS_4base5FlagsINS1_15DependencyGroupEjEE
node:_ZN2v88internal13EhFrameWriter10GetEhFrameEPNS0_8CodeDescE
node:_ZN2v88internal13EhFrameWriter10InitializeEv
node:_ZN2v88internal13EhFrameWriter12WriteSLeb128Ei
node:_ZN2v88internal13EhFrameWriter12WriteULeb128Ej
node:_ZN2v88internal13EhFrameWriter14WriteFdeHeaderEv
node:_ZN2v88internal13EhFrameWriter15AdvanceLocationEi
node:_ZN2v88internal13EhFrameWriter15WriteEhFrameHdrEi
node:_ZN2v88internal13EhFrameWriter17WriteEmptyEhFrameERSo
node:_ZN2v88internal13EhFrameWriter17kInt32PlaceholderE
node:_ZN2v88internal13EhFrameWriter19RegisterToDwarfCodeENS0_8RegisterE
node:_ZN2v88internal13EhFrameWriter20SetBaseAddressOffsetEi
node:_ZN2v88internal13EhFrameWriter22SetBaseAddressRegisterENS0_8RegisterE
node:_ZN2v88internal13EhFrameWriter22WriteInitialStateInCieEv
node:_ZN2v88internal13EhFrameWriter25RecordRegisterNotModifiedENS0_8RegisterE
node:_ZN2v88internal13EhFrameWriter25RecordRegisterNotModifiedEi
node:_ZN2v88internal13EhFrameWriter25WritePaddingToAlignedSizeEi
node:_ZN2v88internal13EhFrameWriter26RecordRegisterSavedToStackEii
node:_ZN2v88internal13EhFrameWriter30WriteReturnAddressRegisterCodeEv
node:_ZN2v88internal13EhFrameWriter31SetBaseAddressRegisterAndOffsetENS0_8RegisterEi
node:_ZN2v88internal13EhFrameWriter32RecordRegisterFollowsInitialRuleENS0_8RegisterE
node:_ZN2v88internal13EhFrameWriter32RecordRegisterFollowsInitialRuleEi
node:_ZN2v88internal13EhFrameWriter6FinishEi
node:_ZN2v88internal13EhFrameWriter8WriteCieEv
node:_ZN2v88internal13EhFrameWriterC1EPNS0_4ZoneE
node:_ZN2v88internal13EhFrameWriterC2EPNS0_4ZoneE
node:_ZN2v88internal13EmbedderState11OnMoveEventEmm
node:_ZN2v88internal13EmbedderStateC1EPNS_7IsolateENS_5LocalINS_7ContextEEENS_16EmbedderStateTagE
node:_ZN2v88internal13EmbedderStateC2EPNS_7IsolateENS_5LocalINS_7ContextEEENS_16EmbedderStateTagE
node:_ZN2v88internal13EmbedderStateD1Ev
node:_ZN2v88internal13EmbedderStateD2Ev
node:_ZN2v88internal13FeedbackNexus12GetCallCountEv
node:_ZN2v88internal13FeedbackNexus16ConfigureMegaDOMERKNS0_17MaybeObjectHandleE
node:_ZN2v88internal13FeedbackNexus17CreateArrayOfSizeEi
node:_ZN2v88internal13FeedbackNexus18GetSpeculationModeEv
node:_ZN2v88internal13FeedbackNexus18SetSpeculationModeENS0_15SpeculationModeE
node:_ZN2v88internal13FeedbackNexus20ComputeCallFrequencyEv
node:_ZN2v88internal13FeedbackNexus20ConfigureCloneObjectENS0_6HandleINS0_3MapEEES4_
node:_ZN2v88internal13FeedbackNexus20ConfigureHandlerModeERKNS0_17MaybeObjectHandleE
node:_ZN2v88internal13FeedbackNexus20ConfigureMegamorphicENS0_11IcCheckTypeE
node:_ZN2v88internal13FeedbackNexus20ConfigureMegamorphicEv
node:_ZN2v88internal13FeedbackNexus20ConfigureMonomorphicENS0_6HandleINS0_4NameEEENS2_INS0_3MapEEERKNS0_17MaybeObjectHandleE
node:_ZN2v88internal13FeedbackNexus20ConfigurePolymorphicENS0_6HandleINS0_4NameEEERKSt6vectorISt4pairINS2_INS0_3MapEEENS0_17MaybeObjectHandleEESaISA_EE
node:_ZN2v88internal13FeedbackNexus21ExtractMegaDOMHandlerEv
node:_ZN2v88internal13FeedbackNexus22ConfigureUninitializedEv
node:_ZN2v88internal13FeedbackNexus22GetCallFeedbackContentEv
node:_ZN2v88internal13FeedbackNexus23ConfigureLexicalVarModeEiib
node:_ZN2v88internal13FeedbackNexus25ConfigurePropertyCellModeENS0_6HandleINS0_12PropertyCellEEE
node:_ZN2v88internal13FeedbackNexus5ClearENS0_13ClearBehaviorE
node:_ZN2v88internal13FeedbackNexus5PrintERSo
node:_ZN2v88internal13FeedbackNexusC1ENS0_14FeedbackVectorENS0_12FeedbackSlotE
node:_ZN2v88internal13FeedbackNexusC1ENS0_6HandleINS0_14FeedbackVectorEEENS0_12FeedbackSlotE
node:_ZN2v88internal13FeedbackNexusC1ENS0_6HandleINS0_14FeedbackVectorEEENS0_12FeedbackSlotERKNS0_11NexusConfigE
node:_ZN2v88internal13FeedbackNexusC2ENS0_14FeedbackVectorENS0_12FeedbackSlotE
node:_ZN2v88internal13FeedbackNexusC2ENS0_6HandleINS0_14FeedbackVectorEEENS0_12FeedbackSlotE
node:_ZN2v88internal13FeedbackNexusC2ENS0_6HandleINS0_14FeedbackVectorEEENS0_12FeedbackSlotERKNS0_11NexusConfigE
node:_ZN2v88internal13FutexWaitList10RemoveNodeEPNS0_17FutexWaitListNodeE
node:_ZN2v88internal13FutexWaitList10VerifyNodeEPNS0_17FutexWaitListNodeES3_S3_
node:_ZN2v88internal13FutexWaitList12NodeIsOnListEPNS0_17FutexWaitListNodeES3_
node:_ZN2v88internal13FutexWaitList6VerifyEv
node:_ZN2v88internal13FutexWaitList7AddNodeEPNS0_17FutexWaitListNodeE
node:_ZN2v88internal13GetBoolOptionEPNS0_7IsolateENS0_6HandleINS0_10JSReceiverEEEPKcS7_Pb
node:_ZN2v88internal13GlobalHandles10CopyGlobalEPm
node:_ZN2v88internal13GlobalHandles10MoveGlobalEPPmS3_
node:_ZN2v88internal13GlobalHandles11RecordStatsEPNS0_9HeapStatsE
node:_ZN2v88internal13GlobalHandles13ClearWeaknessEPm
node:_ZN2v88internal13GlobalHandles15IterateAllRootsEPNS0_11RootVisitorE
node:_ZN2v88internal13GlobalHandles16IterateWeakRootsEPNS0_11RootVisitorE
node:_ZN2v88internal13GlobalHandles18IterateStrongRootsEPNS0_11RootVisitorE
node:_ZN2v88internal13GlobalHandles20IterateAllYoungRootsEPNS0_11RootVisitorE
node:_ZN2v88internal13GlobalHandles21ClearListOfYoungNodesEv
node:_ZN2v88internal13GlobalHandles22AnnotateStrongRetainerEPmPKc
node:_ZN2v88internal13GlobalHandles22PendingPhantomCallback6InvokeEPNS0_7IsolateENS2_14InvocationTypeE
node:_ZN2v88internal13GlobalHandles22UpdateListOfYoungNodesEv
node:_ZN2v88internal13GlobalHandles23ProcessWeakYoungObjectsEPNS0_11RootVisitorEPFbPNS0_4HeapENS0_14FullObjectSlotEE
node:_ZN2v88internal13GlobalHandles25IterateAllRootsForTestingEPNS_23PersistentHandleVisitorE
node:_ZN2v88internal13GlobalHandles28ApplyPersistentHandleVisitorEPNS_23PersistentHandleVisitorEPNS1_4NodeE
node:_ZN2v88internal13GlobalHandles28InvokeFirstPassWeakCallbacksEv
node:_ZN2v88internal13GlobalHandles31PostGarbageCollectionProcessingENS_15GCCallbackFlagsE
node:_ZN2v88internal13GlobalHandles32InvokeSecondPassPhantomCallbacksEv
node:_ZN2v88internal13GlobalHandles33IterateWeakRootsForPhantomHandlesEPFbPNS0_4HeapENS0_14FullObjectSlotEE
node:_ZN2v88internal13GlobalHandles35IterateYoungStrongAndDependentRootsEPNS0_11RootVisitorE
node:_ZN2v88internal13GlobalHandles6CreateENS0_6ObjectE
node:_ZN2v88internal13GlobalHandles6CreateEm
node:_ZN2v88internal13GlobalHandles6IsWeakEPm
node:_ZN2v88internal13GlobalHandles7DestroyEPm
node:_ZN2v88internal13GlobalHandles8MakeWeakEPPm
node:_ZN2v88internal13GlobalHandles8MakeWeakEPmPvPFvRKNS_16WeakCallbackInfoIvEEENS_16WeakCallbackTypeE
node:_ZN2v88internal13GlobalHandlesC1EPNS0_7IsolateE
node:_ZN2v88internal13GlobalHandlesC2EPNS0_7IsolateE
node:_ZN2v88internal13GlobalHandlesD1Ev
node:_ZN2v88internal13GlobalHandlesD2Ev
node:_ZN2v88internal13HeapAllocator16SetReadOnlySpaceEPNS0_13ReadOnlySpaceE
node:_ZN2v88internal13HeapAllocator24AllocateRawLargeInternalEiNS0_14AllocationTypeENS0_16AllocationOriginENS0_19AllocationAlignmentE
node:_ZN2v88internal13HeapAllocator33AllocateRawWithLightRetrySlowPathEiNS0_14AllocationTypeENS0_16AllocationOriginENS0_19AllocationAlignmentE
node:_ZN2v88internal13HeapAllocator34AllocateRawWithRetryOrFailSlowPathEiNS0_14AllocationTypeENS0_16AllocationOriginENS0_19AllocationAlignmentE
node:_ZN2v88internal13HeapAllocator5SetupEv
node:_ZN2v88internal13HeapAllocatorC1EPNS0_4HeapE
node:_ZN2v88internal13HeapAllocatorC2EPNS0_4HeapE
node:_ZN2v88internal13HeapGraphEdgeC1ENS1_4TypeEPKcPNS0_9HeapEntryES6_
node:_ZN2v88internal13HeapGraphEdgeC1ENS1_4TypeEiPNS0_9HeapEntryES4_
node:_ZN2v88internal13HeapGraphEdgeC2ENS1_4TypeEPKcPNS0_9HeapEntryES6_
node:_ZN2v88internal13HeapGraphEdgeC2ENS1_4TypeEiPNS0_9HeapEntryES4_
node:_ZN2v88internal13InitializeICUEPKc
node:_ZN2v88internal13InstallGetterEPNS0_7IsolateENS0_6HandleINS0_8JSObjectEEEPKcPFvRKNS_20FunctionCallbackInfoINS_5ValueEEEE
node:_ZN2v88internal13JSArrayBuffer13MarkExtensionEv
node:_ZN2v88internal13JSArrayBuffer14DetachInternalEbPNS0_7IsolateE
node:_ZN2v88internal13JSArrayBuffer14GsabByteLengthEPNS0_7IsolateEm
node:_ZN2v88internal13JSArrayBuffer15EnsureExtensionEv
node:_ZN2v88internal13JSArrayBuffer15RemoveExtensionEv
node:_ZN2v88internal13JSArrayBuffer18JSArrayBufferPrintERSo
node:_ZN2v88internal13JSArrayBuffer18YoungMarkExtensionEv
node:_ZN2v88internal13JSArrayBuffer26YoungMarkExtensionPromotedEv
node:_ZN2v88internal13JSArrayBuffer41GetResizableBackingStorePageConfigurationEPNS0_7IsolateEmmNS0_11ShouldThrowEPmS5_S5_
node:_ZN2v88internal13JSArrayBuffer5SetupENS0_10SharedFlagENS0_13ResizableFlagESt10shared_ptrINS0_12BackingStoreEEPNS0_7IsolateE
node:_ZN2v88internal13JSArrayBuffer6AttachESt10shared_ptrINS0_12BackingStoreEE
node:_ZN2v88internal13JSArrayBuffer6DetachENS0_6HandleIS1_EEbNS2_INS0_6ObjectEEE
node:_ZN2v88internal13JSGlobalProxy18JSGlobalProxyPrintERSo
node:_ZN2v88internal13JSMapIterator18JSMapIteratorPrintERSo
node:_ZN2v88internal13JSPluralRules13ResolvePluralEPNS0_7IsolateENS0_6HandleIS1_EEd
node:_ZN2v88internal13JSPluralRules15ResolvedOptionsEPNS0_7IsolateENS0_6HandleIS1_EE
node:_ZN2v88internal13JSPluralRules18JSPluralRulesPrintERSo
node:_ZN2v88internal13JSPluralRules18ResolvePluralRangeEPNS0_7IsolateENS0_6HandleIS1_EEdd
node:_ZN2v88internal13JSPluralRules19GetAvailableLocalesB5cxx11Ev
node:_ZN2v88internal13JSPluralRules3NewEPNS0_7IsolateENS0_6HandleINS0_3MapEEENS4_INS0_6ObjectEEES8_
node:_ZN2v88internal13JSSetIterator18JSSetIteratorPrintERSo
node:_ZN2v88internal13JSShadowRealm18JSShadowRealmPrintERSo
node:_ZN2v88internal13JSSharedArray18JSSharedArrayPrintERSo
node:_ZN2v88internal13JsonStringifyEPNS0_7IsolateENS0_6HandleINS0_6ObjectEEES5_S5_
node:_ZN2v88internal13LiteralBuffer11NewCapacityEi
node:_ZN2v88internal13LiteralBuffer12ExpandBufferEv
node:_ZN2v88internal13LiteralBuffer14AddTwoByteCharEj
node:_ZN2v88internal13LiteralBuffer16ConvertToTwoByteEv
node:_ZN2v88internal13MemoryReducer10WatchdogGCERKNS1_5StateERKNS1_5EventE
node:_ZN2v88internal13MemoryReducer11NotifyTimerERKNS1_5EventE
node:_ZN2v88internal13MemoryReducer12kLongDelayMsE
node:_ZN2v88internal13MemoryReducer13ScheduleTimerEd
node:_ZN2v88internal13MemoryReducer13kShortDelayMsE
node:_ZN2v88internal13MemoryReducer15kMaxNumberOfGCsE
node:_ZN2v88internal13MemoryReducer16kWatchdogDelayMsE
node:_ZN2v88internal13MemoryReducer17NotifyMarkCompactEm
node:_ZN2v88internal13MemoryReducer21NotifyPossibleGarbageEv
node:_ZN2v88internal13MemoryReducer21kCommittedMemoryDeltaE
node:_ZN2v88internal13MemoryReducer22kCommittedMemoryFactorE
node:_ZN2v88internal13MemoryReducer4StepERKNS1_5StateERKNS1_5EventE
node:_ZN2v88internal13MemoryReducer8TearDownEv
node:_ZN2v88internal13MemoryReducer9TimerTask11RunInternalEv
node:_ZN2v88internal13MemoryReducer9TimerTaskC1EPS1_
node:_ZN2v88internal13MemoryReducer9TimerTaskC2EPS1_
node:_ZN2v88internal13MemoryReducerC1EPNS0_4HeapE
node:_ZN2v88internal13MemoryReducerC2EPNS0_4HeapE
node:_ZN2v88internal13MutableBigInt10GetRawBitsENS0_10BigIntBaseEPb
node:_ZN2v88internal13MutableBigInt10NewFromIntEPNS0_7IsolateEi
node:_ZN2v88internal13MutableBigInt11set_64_bitsEm
node:_ZN2v88internal13MutableBigInt12CanonicalizeES1_
node:_ZN2v88internal13MutableBigInt13MakeImmutableENS0_11MaybeHandleIS1_EE
node:_ZN2v88internal13MutableBigInt13NewFromDoubleEPNS0_7IsolateEd
node:_ZN2v88internal13MutableBigInt13ToShiftAmountENS0_6HandleINS0_10BigIntBaseEEE
node:_ZN2v88internal13MutableBigInt14AbsoluteAddOneEPNS0_7IsolateENS0_6HandleINS0_10BigIntBaseEEEbS1_
node:_ZN2v88internal13MutableBigInt14AbsoluteSubOneEPNS0_7IsolateENS0_6HandleINS0_10BigIntBaseEEE
node:_ZN2v88internal13MutableBigInt14DecideRoundingENS0_6HandleINS0_10BigIntBaseEEEiim
node:_ZN2v88internal13MutableBigInt16InitializeDigitsEih
node:_ZN2v88internal13MutableBigInt19LeftShiftByAbsoluteEPNS0_7IsolateENS0_6HandleINS0_10BigIntBaseEEES6_
node:_ZN2v88internal13MutableBigInt19RightShiftByMaximumEPNS0_7IsolateEb
node:_ZN2v88internal13MutableBigInt20RightShiftByAbsoluteEPNS0_7IsolateENS0_6HandleINS0_10BigIntBaseEEES6_
node:_ZN2v88internal13MutableBigInt4CopyEPNS0_7IsolateENS0_6HandleINS0_10BigIntBaseEEE
node:_ZN2v88internal13MutableBigInt8ToDoubleENS0_6HandleINS0_10BigIntBaseEEE
node:_ZN2v88internal13NativeContext14RunPromiseHookENS_15PromiseHookTypeENS0_6HandleINS0_9JSPromiseEEENS3_INS0_6ObjectEEE
node:_ZN2v88internal13NativeContext15GetErrorsThrownEv
node:_ZN2v88internal13NativeContext17ResetErrorsThrownEv
node:_ZN2v88internal13NativeContext18NativeContextPrintERSo
node:_ZN2v88internal13NativeContext21IncrementErrorsThrownEv
node:_ZN2v88internal13NativeContext24HasTemplateLiteralObjectENS0_7JSArrayE
node:_ZN2v88internal13ObjectHashSet3AddEPNS0_7IsolateENS0_6HandleIS1_EENS4_INS0_6ObjectEEE
node:_ZN2v88internal13ObjectLiteral18CalculateEmitStoreEPNS0_4ZoneE
node:_ZN2v88internal13ObjectVisitor14VisitRelocInfoEPNS0_13RelocIteratorE
node:_ZN2v88internal13PagedNewSpaceC1EPNS0_4HeapEmmRNS0_20LinearAllocationAreaE
node:_ZN2v88internal13PagedNewSpaceC2EPNS0_4HeapEmmRNS0_20LinearAllocationAreaE
node:_ZN2v88internal13PagedNewSpaceD0Ev
node:_ZN2v88internal13PagedNewSpaceD1Ev
node:_ZN2v88internal13PagedNewSpaceD2Ev
node:_ZN2v88internal13ProfilerStats14ReasonToStringENS1_6ReasonE
node:_ZN2v88internal13ProfilerStats5ClearEv
node:_ZN2v88internal13ProfilerStats9AddReasonENS1_6ReasonE
node:_ZN2v88internal13PropertyArray18PropertyArrayPrintERSo
node:_ZN2v88internal13PrototypeInfo18PrototypeInfoPrintERSo
node:_ZN2v88internal13ReadOnlyRoots14FindHeapNumberEd
node:_ZN2v88internal13ReadOnlyRoots24InitFromStaticRootsTableEm
node:_ZN2v88internal13ReadOnlyRoots27one_pointer_filler_map_wordEv
node:_ZN2v88internal13ReadOnlyRoots7IterateEPNS0_11RootVisitorE
node:_ZN2v88internal13ReadOnlySpace10EnsurePageEv
node:_ZN2v88internal13ReadOnlySpace11AllocateRawEiNS0_19AllocationAlignmentE
node:_ZN2v88internal13ReadOnlySpace11ShrinkPagesEv
node:_ZN2v88internal13ReadOnlySpace18AllocateRawAlignedEiNS0_19AllocationAlignmentE
node:_ZN2v88internal13ReadOnlySpace18InitFromMemoryDumpEPNS0_7IsolateEPNS0_18SnapshotByteSourceE
node:_ZN2v88internal13ReadOnlySpace20AllocateRawUnalignedEi
node:_ZN2v88internal13ReadOnlySpace22SetPermissionsForPagesEPNS0_15MemoryAllocatorENS_13PageAllocator10PermissionE
node:_ZN2v88internal13ReadOnlySpace24EnsureSpaceForAllocationEi
node:_ZN2v88internal13ReadOnlySpace24FreeLinearAllocationAreaEv
node:_ZN2v88internal13ReadOnlySpace26TryAllocateLinearlyAlignedEiNS0_19AllocationAlignmentE
node:_ZN2v88internal13ReadOnlySpace28DetachPagesAndAddToArtifactsESt10shared_ptrINS0_17ReadOnlyArtifactsEE
node:_ZN2v88internal13ReadOnlySpace36RepairFreeSpacesAfterDeserializationEv
node:_ZN2v88internal13ReadOnlySpace4SealENS1_8SealModeE
node:_ZN2v88internal13ReadOnlySpace6UnsealEv
node:_ZN2v88internal13ReadOnlySpace8TearDownEPNS0_15MemoryAllocatorE
node:_ZN2v88internal13ReadOnlySpaceC1EPNS0_4HeapE
node:_ZN2v88internal13ReadOnlySpaceC2EPNS0_4HeapE
node:_ZN2v88internal13ReadOnlySpaceD0Ev
node:_ZN2v88internal13ReadOnlySpaceD1Ev
node:_ZN2v88internal13ReadOnlySpaceD2Ev
node:_ZN2v88internal13RegExpCapture15IsAnchoredAtEndEv
node:_ZN2v88internal13RegExpCapture16CaptureRegistersEv
node:_ZN2v88internal13RegExpCapture17IsAnchoredAtStartEv
node:_ZN2v88internal13RegExpCapture6AcceptEPNS0_13RegExpVisitorEPv
node:_ZN2v88internal13RegExpCapture6ToNodeEPNS0_10RegExpTreeEiPNS0_14RegExpCompilerEPNS0_10RegExpNodeE
node:_ZN2v88internal13RegExpCapture6ToNodeEPNS0_14RegExpCompilerEPNS0_10RegExpNodeE
node:_ZN2v88internal13RegExpCapture9AsCaptureEv
node:_ZN2v88internal13RegExpCapture9IsCaptureEv
node:_ZN2v88internal13RelocIterator14AdvanceReadIntEv
node:_ZN2v88internal13RelocIterator15AdvanceReadDataEv
node:_ZN2v88internal13RelocIterator21AdvanceReadLongPCJumpEv
node:_ZN2v88internal13RelocIterator4nextEv
node:_ZN2v88internal13RelocIteratorC1ENS0_13CodeReferenceEi
node:_ZN2v88internal13RelocIteratorC1ENS0_4CodeENS0_17InstructionStreamENS0_9ByteArrayEmi
node:_ZN2v88internal13RelocIteratorC1ENS0_4CodeENS0_17InstructionStreamEmmPKhS5_i
node:_ZN2v88internal13RelocIteratorC1ENS0_4CodeENS0_9ByteArrayEi
node:_ZN2v88internal13RelocIteratorC1ENS0_4CodeEi
node:_ZN2v88internal13RelocIteratorC1ENS_4base6VectorIhEENS3_IKhEEmi
node:_ZN2v88internal13RelocIteratorC1EPNS0_12EmbeddedDataENS0_4CodeEi
node:_ZN2v88internal13RelocIteratorC1ERKNS0_8CodeDescEi
node:_ZN2v88internal13RelocIteratorC2ENS0_13CodeReferenceEi
node:_ZN2v88internal13RelocIteratorC2ENS0_4CodeENS0_17InstructionStreamENS0_9ByteArrayEmi
node:_ZN2v88internal13RelocIteratorC2ENS0_4CodeENS0_17InstructionStreamEmmPKhS5_i
node:_ZN2v88internal13RelocIteratorC2ENS0_4CodeENS0_9ByteArrayEi
node:_ZN2v88internal13RelocIteratorC2ENS0_4CodeEi
node:_ZN2v88internal13RelocIteratorC2ENS_4base6VectorIhEENS3_IKhEEmi
node:_ZN2v88internal13RelocIteratorC2EPNS0_12EmbeddedDataENS0_4CodeEi
node:_ZN2v88internal13RelocIteratorC2ERKNS0_8CodeDescEi
node:_ZN2v88internal13Runtime_AbortEiPmPNS0_7IsolateE
node:_ZN2v88internal13Runtime_EqualEiPmPNS0_7IsolateE
node:_ZN2v88internal13Runtime_IsSmiEiPmPNS0_7IsolateE
node:_ZN2v88internal13Runtime_ThrowEiPmPNS0_7IsolateE
node:_ZN2v88internal13SHA256_updateEPNS0_8HASH_CTXEPKvm
node:_ZN2v88internal13ScannerStream10ForTestingEPKc
node:_ZN2v88internal13ScannerStream10ForTestingEPKcm
node:_ZN2v88internal13ScannerStream10ForTestingEPKtm
node:_ZN2v88internal13ScannerStream3ForEPNS0_7IsolateENS0_6HandleINS0_6StringEEE
node:_ZN2v88internal13ScannerStream3ForEPNS0_7IsolateENS0_6HandleINS0_6StringEEEii
node:_ZN2v88internal13ScannerStream3ForEPNS_14ScriptCompiler20ExternalSourceStreamENS2_14StreamedSource8EncodingE
node:_ZN2v88internal13ScopeIterator11ScopeObjectENS1_4ModeE
node:_ZN2v88internal13ScopeIterator12AdvanceScopeEv
node:_ZN2v88internal13ScopeIterator12end_positionEv
node:_ZN2v88internal13ScopeIterator14AdvanceContextEv
node:_ZN2v88internal13ScopeIterator14start_positionEv
node:_ZN2v88internal13ScopeIterator15AdvanceOneScopeEv
node:_ZN2v88internal13ScopeIterator15HasPositionInfoEv
node:_ZN2v88internal13ScopeIterator16SetVariableValueENS0_6HandleINS0_6StringEEENS2_INS0_6ObjectEEE
node:_ZN2v88internal13ScopeIterator17AdvanceOneContextEv
node:_ZN2v88internal13ScopeIterator20WithContextExtensionEv
node:_ZN2v88internal13ScopeIterator21SetLocalVariableValueENS0_6HandleINS0_6StringEEENS2_INS0_6ObjectEEE
node:_ZN2v88internal13ScopeIterator22SetModuleVariableValueENS0_6HandleINS0_6StringEEENS2_INS0_6ObjectEEE
node:_ZN2v88internal13ScopeIterator22SetScriptVariableValueENS0_6HandleINS0_6StringEEENS2_INS0_6ObjectEEE
node:_ZN2v88internal13ScopeIterator23MaterializeScopeDetailsEv
node:_ZN2v88internal13ScopeIterator23SetContextVariableValueENS0_6HandleINS0_6StringEEENS2_INS0_6ObjectEEE
node:_ZN2v88internal13ScopeIterator23UnwrapEvaluationContextEv
node:_ZN2v88internal13ScopeIterator24SetContextExtensionValueENS0_6HandleINS0_6StringEEENS2_INS0_6ObjectEEE
node:_ZN2v88internal13ScopeIterator25TryParseAndRetrieveScopesENS1_15ReparseStrategyE
node:_ZN2v88internal13ScopeIterator29CollectLocalsFromCurrentScopeEv
node:_ZN2v88internal13ScopeIterator4NextEv
node:_ZN2v88internal13ScopeIterator7RestartEv
node:_ZN2v88internal13ScopeIteratorC1EPNS0_7IsolateENS0_6HandleINS0_10JSFunctionEEE
node:_ZN2v88internal13ScopeIteratorC1EPNS0_7IsolateENS0_6HandleINS0_17JSGeneratorObjectEEE
node:_ZN2v88internal13ScopeIteratorC1EPNS0_7IsolateEPNS0_14FrameInspectorENS1_15ReparseStrategyE
node:_ZN2v88internal13ScopeIteratorC2EPNS0_7IsolateENS0_6HandleINS0_10JSFunctionEEE
node:_ZN2v88internal13ScopeIteratorC2EPNS0_7IsolateENS0_6HandleINS0_17JSGeneratorObjectEEE
node:_ZN2v88internal13ScopeIteratorC2EPNS0_7IsolateEPNS0_14FrameInspectorENS1_15ReparseStrategyE
node:_ZN2v88internal13ScopeIteratorD1Ev
node:_ZN2v88internal13ScopeIteratorD2Ev
node:_ZN2v88internal13SeqRegExpNode13FilterOneByteEiNS_4base5FlagsINS0_10RegExpFlagEiEE
node:_ZN2v88internal13SeqRegExpNode15FilterSuccessorEiNS_4base5FlagsINS0_10RegExpFlagEiEE
node:_ZN2v88internal13SpaceIterator4NextEv
node:_ZN2v88internal13SpaceIterator7HasNextEv
node:_ZN2v88internal13SpaceIteratorC1EPNS0_4HeapE
node:_ZN2v88internal13SpaceIteratorC2EPNS0_4HeapE
node:_ZN2v88internal13SpaceIteratorD0Ev
node:_ZN2v88internal13SpaceIteratorD1Ev
node:_ZN2v88internal13SpaceIteratorD2Ev
node:_ZN2v88internal13StoreGlobalIC5StoreENS0_6HandleINS0_4NameEEENS2_INS0_6ObjectEEE
node:_ZN2v88internal13ThreadManager10InitThreadERKNS0_15ExecutionAccessE
node:_ZN2v88internal13ThreadManager10IsArchivedEv
node:_ZN2v88internal13ThreadManager13ArchiveThreadEv
node:_ZN2v88internal13ThreadManager13RestoreThreadEv
node:_ZN2v88internal13ThreadManager18GetFreeThreadStateEv
node:_ZN2v88internal13ThreadManager19FreeThreadResourcesEv
node:_ZN2v88internal13ThreadManager20EagerlyArchiveThreadEv
node:_ZN2v88internal13ThreadManager21DeleteThreadStateListEPNS0_11ThreadStateE
node:_ZN2v88internal13ThreadManager21FirstThreadStateInUseEv
node:_ZN2v88internal13ThreadManager22IterateArchivedThreadsEPNS0_13ThreadVisitorE
node:_ZN2v88internal13ThreadManager4LockEv
node:_ZN2v88internal13ThreadManager6UnlockEv
node:_ZN2v88internal13ThreadManager7IterateEPNS0_11RootVisitorE
node:_ZN2v88internal13ThreadManager9CurrentIdEv
node:_ZN2v88internal13ThreadManagerC1EPNS0_7IsolateE
node:_ZN2v88internal13ThreadManagerC2EPNS0_7IsolateE
node:_ZN2v88internal13ThreadManagerD1Ev
node:_ZN2v88internal13ThreadManagerD2Ev
node:_ZN2v88internal13TracedHandles12IterateYoungEPNS0_11RootVisitorE
node:_ZN2v88internal13TracedHandles12SetIsMarkingEb
node:_ZN2v88internal13TracedHandles14ResetDeadNodesEPFbPNS0_4HeapENS0_14FullObjectSlotEE
node:_ZN2v88internal13TracedHandles17DeleteEmptyBlocksEv
node:_ZN2v88internal13TracedHandles17IterateYoungRootsEPNS0_11RootVisitorE
node:_ZN2v88internal13TracedHandles18MarkConservativelyEPmS2_NS1_8MarkModeE
node:_ZN2v88internal13TracedHandles19ProcessYoungObjectsEPNS0_11RootVisitorEPFbPNS0_4HeapENS0_14FullObjectSlotEE
node:_ZN2v88internal13TracedHandles19ResetYoungDeadNodesEPFbPNS0_4HeapENS0_14FullObjectSlotEE
node:_ZN2v88internal13TracedHandles21ClearListOfYoungNodesEv
node:_ZN2v88internal13TracedHandles22UpdateListOfYoungNodesEv
node:_ZN2v88internal13TracedHandles28SetIsSweepingOnMutatorThreadEb
node:_ZN2v88internal13TracedHandles30ComputeWeaknessForYoungObjectsEPFbNS0_14FullObjectSlotEE
node:_ZN2v88internal13TracedHandles36IterateAndMarkYoungRootsWithOldHostsEPNS0_11RootVisitorE
node:_ZN2v88internal13TracedHandles39IterateYoungRootsWithOldHostsForTestingEPNS0_11RootVisitorE
node:_ZN2v88internal13TracedHandles4CopyEPKPKmPPm
node:_ZN2v88internal13TracedHandles4MarkEPmNS1_8MarkModeE
node:_ZN2v88internal13TracedHandles4MoveEPPmS3_
node:_ZN2v88internal13TracedHandles6CreateEmPmNS0_21GlobalHandleStoreModeE
node:_ZN2v88internal13TracedHandles7DestroyEPm
node:_ZN2v88internal13TracedHandles7IterateEPNS0_11RootVisitorE
node:_ZN2v88internal13TracedHandlesC1EPNS0_7IsolateE
node:_ZN2v88internal13TracedHandlesC2EPNS0_7IsolateE
node:_ZN2v88internal13TracedHandlesD1Ev
node:_ZN2v88internal13TracedHandlesD2Ev
node:_ZN2v88internal13VariableProxy6BindToEPNS0_8VariableE
node:_ZN2v88internal13VariableProxyC1EPKS1_
node:_ZN2v88internal13VariableProxyC1EPNS0_8VariableEi
node:_ZN2v88internal13VariableProxyC2EPKS1_
node:_ZN2v88internal13VariableProxyC2EPNS0_8VariableEi
node:_ZN2v88internal13VirtualMemory12FreeReadOnlyEv
node:_ZN2v88internal13VirtualMemory13RecommitPagesEmmNS_13PageAllocator10PermissionE
node:_ZN2v88internal13VirtualMemory14SetPermissionsEmmNS_13PageAllocator10PermissionE
node:_ZN2v88internal13VirtualMemory18DiscardSystemPagesEmm
node:_ZN2v88internal13VirtualMemory4FreeEv
node:_ZN2v88internal13VirtualMemory5ResetEv
node:_ZN2v88internal13VirtualMemory7ReleaseEm
node:_ZN2v88internal13VirtualMemoryC1EPNS_13PageAllocatorEmPvmNS0_13JitPermissionE
node:_ZN2v88internal13VirtualMemoryC1Ev
node:_ZN2v88internal13VirtualMemoryC2EPNS_13PageAllocatorEmPvmNS0_13JitPermissionE
node:_ZN2v88internal13VirtualMemoryC2Ev
node:_ZN2v88internal13VirtualMemoryD1Ev
node:_ZN2v88internal13VirtualMemoryD2Ev
node:_ZN2v88internal13WasmExitFrame19ComputeStackPointerEm
node:_ZN2v88internal13WasmTagObject16MatchesSignatureEj
node:_ZN2v88internal13WasmTagObject3NewEPNS0_7IsolateEPKNS0_9SignatureINS0_4wasm9ValueTypeEEEjNS0_6HandleINS0_10HeapObjectEEE
node:_ZN2v88internal13WeakArrayList11EnsureSpaceEPNS0_7IsolateENS0_6HandleIS1_EEiNS0_14AllocationTypeE
node:_ZN2v88internal13WeakArrayList18WeakArrayListPrintERSo
node:_ZN2v88internal13WeakArrayList6AppendEPNS0_7IsolateENS0_6HandleIS1_EERKNS0_17MaybeObjectHandleENS0_14AllocationTypeE
node:_ZN2v88internal13WeakArrayList7CompactEPNS0_7IsolateE
node:_ZN2v88internal13WeakArrayList8AddToEndEPNS0_7IsolateENS0_6HandleIS1_EERKNS0_17MaybeObjectHandleE
node:_ZN2v88internal13WeakArrayList8AddToEndEPNS0_7IsolateENS0_6HandleIS1_EERKNS0_17MaybeObjectHandleES8_
node:_ZN2v88internal13WeakArrayList8ContainsENS0_11MaybeObjectE
node:_ZN2v88internal13WeakArrayList9RemoveOneERKNS0_17MaybeObjectHandleE
node:_ZN2v88internal14AllocWithRetryEmPFPvmE
node:_ZN2v88internal14AllocationSite11ShouldTrackENS0_12ElementsKindES2_
node:_ZN2v88internal14AllocationSite15kPretenureRatioE
node:_ZN2v88internal14AllocationSite19AllocationSitePrintERSo
node:_ZN2v88internal14AllocationSite21PretenureDecisionNameENS1_17PretenureDecisionE
node:_ZN2v88internal14AllocationSite22ResetPretenureDecisionEv
node:_ZN2v88internal14AllocationSite8IsNestedEv
node:_ZN2v88internal14AstNodeFactory16NewNumberLiteralEdi
node:_ZN2v88internal14BreakPointInfo13HasBreakPointEPNS0_7IsolateENS0_6HandleIS1_EENS4_INS0_10BreakPointEEE
node:_ZN2v88internal14BreakPointInfo13SetBreakPointEPNS0_7IsolateENS0_6HandleIS1_EENS4_INS0_10BreakPointEEE
node:_ZN2v88internal14BreakPointInfo15ClearBreakPointEPNS0_7IsolateENS0_6HandleIS1_EENS4_INS0_10BreakPointEEE
node:_ZN2v88internal14BreakPointInfo17GetBreakPointByIdEPNS0_7IsolateENS0_6HandleIS1_EEi
node:_ZN2v88internal14BreakPointInfo18GetBreakPointCountEPNS0_7IsolateE
node:_ZN2v88internal14BuildIgnoreSetEv
node:_ZN2v88internal14CancelableTaskC1EPNS0_21CancelableTaskManagerE
node:_ZN2v88internal14CancelableTaskC1EPNS0_7IsolateE
node:_ZN2v88internal14CancelableTaskC2EPNS0_21CancelableTaskManagerE
node:_ZN2v88internal14CancelableTaskC2EPNS0_7IsolateE
node:_ZN2v88internal14CharacterRange11IsCanonicalEPKNS0_8ZoneListIS1_EE
node:_ZN2v88internal14CharacterRange12CanonicalizeEPNS0_8ZoneListIS1_EE
node:_ZN2v88internal14CharacterRange14AddClassEscapeENS0_20StandardCharacterSetEPNS0_8ZoneListIS1_EEbPNS0_4ZoneE
node:_ZN2v88internal14CharacterRange14ClampToOneByteEPNS0_8ZoneListIS1_EE
node:_ZN2v88internal14CharacterRange18AddCaseEquivalentsEPNS0_7IsolateEPNS0_4ZoneEPNS0_8ZoneListIS1_EEb
node:_ZN2v88internal14CharacterRange22UnicodeSimpleCloseOverERN6icu_7310UnicodeSetE
node:_ZN2v88internal14CharacterRange25AddUnicodeCaseEquivalentsEPNS0_8ZoneListIS1_EEPNS0_4ZoneE
node:_ZN2v88internal14CharacterRange6EqualsEPKNS0_8ZoneListIS1_EES5_
node:_ZN2v88internal14CharacterRange6NegateEPKNS0_8ZoneListIS1_EEPS3_PNS0_4ZoneE
node:_ZN2v88internal14CharacterRange8SubtractEPKNS0_8ZoneListIS1_EES5_PS3_PNS0_4ZoneE
node:_ZN2v88internal14CharacterRange9IntersectEPKNS0_8ZoneListIS1_EES5_PS3_PNS0_4ZoneE
node:_ZN2v88internal14ClassPositions17BriefPrintDetailsERSo
node:_ZN2v88internal14CodeSerializer11DeserializeEPNS0_7IsolateEPNS0_17AlignedCachedDataENS0_6HandleINS0_6StringEEENS_19ScriptOriginOptionsENS0_11MaybeHandleINS0_6ScriptEEE
node:_ZN2v88internal14CodeSerializer16SerializeGenericENS0_6HandleINS0_10HeapObjectEEE
node:_ZN2v88internal14CodeSerializer19SerializeObjectImplENS0_6HandleINS0_10HeapObjectEEE
node:_ZN2v88internal14CodeSerializer24OffThreadDeserializeData13GetOnlyScriptEPNS0_9LocalHeapE
node:_ZN2v88internal14CodeSerializer25StartDeserializeOffThreadEPNS0_12LocalIsolateEPNS0_17AlignedCachedDataE
node:_ZN2v88internal14CodeSerializer26FinishOffThreadDeserializeEPNS0_7IsolateEONS1_24OffThreadDeserializeDataEPNS0_17AlignedCachedDataENS0_6HandleINS0_6StringEEENS_19ScriptOriginOptionsEPNS0_19BackgroundMergeTaskE
node:_ZN2v88internal14CodeSerializer27SerializeSharedFunctionInfoENS0_6HandleINS0_18SharedFunctionInfoEEE
node:_ZN2v88internal14CodeSerializer9SerializeEPNS0_7IsolateENS0_6HandleINS0_18SharedFunctionInfoEEE
node:_ZN2v88internal14CodeSerializerC1EPNS0_7IsolateEj
node:_ZN2v88internal14CodeSerializerC2EPNS0_7IsolateEj
node:_ZN2v88internal14CodeStatistics21CollectCodeStatisticsEPNS0_10PagedSpaceEPNS0_7IsolateE
node:_ZN2v88internal14CodeStatistics21CollectCodeStatisticsEPNS0_19OldLargeObjectSpaceEPNS0_7IsolateE
node:_ZN2v88internal14CodeStatistics30ResetCodeAndMetadataStatisticsEPNS0_7IsolateE
node:_ZN2v88internal14CodeStatistics31RecordCodeAndMetadataStatisticsENS0_10HeapObjectEPNS0_7IsolateE
node:_ZN2v88internal14CommitPageSizeEv
node:_ZN2v88internal14DotPrinterImpl11VisitActionEPNS0_10ActionNodeE
node:_ZN2v88internal14DotPrinterImpl11VisitChoiceEPNS0_10ChoiceNodeE
node:_ZN2v88internal14DotPrinterImpl14PrintOnFailureEPNS0_10RegExpNodeES3_
node:_ZN2v88internal14DotPrinterImpl14VisitAssertionEPNS0_13AssertionNodeE
node:_ZN2v88internal14DotPrinterImpl15PrintAttributesEPNS0_10RegExpNodeE
node:_ZN2v88internal14DotPrinterImpl15VisitLoopChoiceEPNS0_14LoopChoiceNodeE
node:_ZN2v88internal14DotPrinterImpl18VisitBackReferenceEPNS0_17BackReferenceNodeE
node:_ZN2v88internal14DotPrinterImpl29VisitNegativeLookaroundChoiceEPNS0_28NegativeLookaroundChoiceNodeE
node:_ZN2v88internal14DotPrinterImpl5VisitEPNS0_10RegExpNodeE
node:_ZN2v88internal14DotPrinterImpl8VisitEndEPNS0_7EndNodeE
node:_ZN2v88internal14DotPrinterImpl9PrintNodeEPKcPNS0_10RegExpNodeE
node:_ZN2v88internal14DotPrinterImpl9VisitTextEPNS0_8TextNodeE
node:_ZN2v88internal14ErrorStackData21EnsureStackFrameInfosEPNS0_7IsolateENS0_6HandleIS1_EE
node:_ZN2v88internal14EternalHandles15IterateAllRootsEPNS0_11RootVisitorE
node:_ZN2v88internal14EternalHandles17IterateYoungRootsEPNS0_11RootVisitorE
node:_ZN2v88internal14EternalHandles31PostGarbageCollectionProcessingEv
node:_ZN2v88internal14EternalHandles6CreateEPNS0_7IsolateENS0_6ObjectEPi
node:_ZN2v88internal14EternalHandlesD1Ev
node:_ZN2v88internal14EternalHandlesD2Ev
node:_ZN2v88internal14FeedbackVector10ClearSlotsEPNS0_7IsolateENS0_13ClearBehaviorE
node:_ZN2v88internal14FeedbackVector11reset_flagsEv
node:_ZN2v88internal14FeedbackVector13NewForTestingEPNS0_7IsolateEPKNS0_18FeedbackVectorSpecE
node:_ZN2v88internal14FeedbackVector16SetOptimizedCodeENS0_4CodeE
node:_ZN2v88internal14FeedbackVector17FeedbackSlotPrintERSoNS0_12FeedbackSlotE
node:_ZN2v88internal14FeedbackVector17osr_tiering_stateEv
node:_ZN2v88internal14FeedbackVector17set_tiering_stateENS0_12TieringStateE
node:_ZN2v88internal14FeedbackVector18ClearOptimizedCodeEv
node:_ZN2v88internal14FeedbackVector19FeedbackVectorPrintERSo
node:_ZN2v88internal14FeedbackVector19SetOptimizedOsrCodeENS0_12FeedbackSlotENS0_4CodeE
node:_ZN2v88internal14FeedbackVector19reset_tiering_stateEv
node:_ZN2v88internal14FeedbackVector21set_osr_tiering_stateENS0_12TieringStateE
node:_ZN2v88internal14FeedbackVector29AddToVectorsForProfilingToolsEPNS0_7IsolateENS0_6HandleIS1_EE
node:_ZN2v88internal14FeedbackVector30NewWithOneBinarySlotForTestingEPNS0_4ZoneEPNS0_7IsolateE
node:_ZN2v88internal14FeedbackVector31NewWithOneCompareSlotForTestingEPNS0_4ZoneEPNS0_7IsolateE
node:_ZN2v88internal14FeedbackVector32SaturatingIncrementProfilerTicksEv
node:_ZN2v88internal14FeedbackVector3NewEPNS0_7IsolateENS0_6HandleINS0_18SharedFunctionInfoEEENS4_INS0_24ClosureFeedbackCellArrayEEENS4_INS0_12FeedbackCellEEEPNS0_15IsCompiledScopeE
node:_ZN2v88internal14FeedbackVector41EvictOptimizedCodeMarkedForDeoptimizationEPNS0_7IsolateENS0_18SharedFunctionInfoEPKc
node:_ZN2v88internal14FixedArrayBase33GetMaxLengthForNewSpaceAllocationENS0_12ElementsKindE
node:_ZN2v88internal14FrameInspector10GetContextEv
node:_ZN2v88internal14FrameInspector12GetParameterEi
node:_ZN2v88internal14FrameInspector12IsJavaScriptEv
node:_ZN2v88internal14FrameInspector13GetExpressionEi
node:_ZN2v88internal14FrameInspector15GetFunctionNameEv
node:_ZN2v88internal14FrameInspector16javascript_frameEv
node:_ZN2v88internal14FrameInspector33ParameterIsShadowedByContextLocalENS0_6HandleINS0_9ScopeInfoEEENS2_INS0_6StringEEE
node:_ZN2v88internal14FrameInspector6IsWasmEv
node:_ZN2v88internal14FrameInspectorC1EPNS0_11CommonFrameEiPNS0_7IsolateE
node:_ZN2v88internal14FrameInspectorC2EPNS0_11CommonFrameEiPNS0_7IsolateE
node:_ZN2v88internal14FrameInspectorD1Ev
node:_ZN2v88internal14FrameInspectorD2Ev
node:_ZN2v88internal14FutexEmulation10WaitWasm32EPNS0_7IsolateENS0_6HandleINS0_13JSArrayBufferEEEmil
node:_ZN2v88internal14FutexEmulation10WaitWasm64EPNS0_7IsolateENS0_6HandleINS0_13JSArrayBufferEEEmll
node:_ZN2v88internal14FutexEmulation13IsolateDeinitEPNS0_7IsolateE
node:_ZN2v88internal14FutexEmulation17NotifyAsyncWaiterEPNS0_17FutexWaitListNodeE
node:_ZN2v88internal14FutexEmulation20NumWaitersForTestingENS0_6HandleINS0_13JSArrayBufferEEEm
node:_ZN2v88internal14FutexEmulation24HandleAsyncWaiterTimeoutEPNS0_17FutexWaitListNodeE
node:_ZN2v88internal14FutexEmulation25CleanupAsyncWaiterPromiseEPNS0_17FutexWaitListNodeE
node:_ZN2v88internal14FutexEmulation25NumAsyncWaitersForTestingEPNS0_7IsolateE
node:_ZN2v88internal14FutexEmulation25ResolveAsyncWaiterPromiseEPNS0_17FutexWaitListNodeE
node:_ZN2v88internal14FutexEmulation26ResolveAsyncWaiterPromisesEPNS0_7IsolateE
node:_ZN2v88internal14FutexEmulation36NumUnresolvedAsyncPromisesForTestingENS0_6HandleINS0_13JSArrayBufferEEEm
node:_ZN2v88internal14FutexEmulation4WakeENS0_6HandleINS0_13JSArrayBufferEEEmj
node:_ZN2v88internal14FutexEmulation8WaitJs32EPNS0_7IsolateENS1_8WaitModeENS0_6HandleINS0_13JSArrayBufferEEEmid
node:_ZN2v88internal14FutexEmulation8WaitJs64EPNS0_7IsolateENS1_8WaitModeENS0_6HandleINS0_13JSArrayBufferEEEmld
node:_ZN2v88internal14GetAbortReasonENS0_11AbortReasonE
node:_ZN2v88internal14GetShouldThrowEPNS0_7IsolateENS_5MaybeINS0_11ShouldThrowEEE
node:_ZN2v88internal14HeapObjectsMap10MoveObjectEmmi
node:_ZN2v88internal14HeapObjectsMap14FindOrAddEntryEmjb
node:_ZN2v88internal14HeapObjectsMap16UpdateObjectSizeEmi
node:_ZN2v88internal14HeapObjectsMap16kGcRootsObjectIdE
node:_ZN2v88internal14HeapObjectsMap17RemoveDeadEntriesEv
node:_ZN2v88internal14HeapObjectsMap20AddMergedNativeEntryEPvm
node:_ZN2v88internal14HeapObjectsMap20PushHeapObjectsStatsEPNS_12OutputStreamEPl
node:_ZN2v88internal14HeapObjectsMap20UpdateHeapObjectsMapEv
node:_ZN2v88internal14HeapObjectsMap21FindMergedNativeEntryEPv
node:_ZN2v88internal14HeapObjectsMap21kInternalRootObjectIdE
node:_ZN2v88internal14HeapObjectsMap22kGcRootsFirstSubrootIdE
node:_ZN2v88internal14HeapObjectsMap23StopHeapObjectsTrackingEv
node:_ZN2v88internal14HeapObjectsMap23kFirstAvailableObjectIdE
node:_ZN2v88internal14HeapObjectsMap9FindEntryEm
node:_ZN2v88internal14HeapObjectsMapC1EPNS0_4HeapE
node:_ZN2v88internal14HeapObjectsMapC2EPNS0_4HeapE
node:_ZN2v88internal14IndexGenerator7GetNextEv
node:_ZN2v88internal14IndexGenerator8GiveBackEm
node:_ZN2v88internal14IndexGeneratorC1Em
node:_ZN2v88internal14IndexGeneratorC2Em
node:_ZN2v88internal14IsSpecialIndexENS0_6StringE
node:_ZN2v88internal14JSAtomicsMutex12LockSlowPathEPNS0_7IsolateENS0_6HandleIS1_EEPSt6atomicImE
node:_ZN2v88internal14JSAtomicsMutex14UnlockSlowPathEPNS0_7IsolateEPSt6atomicImE
node:_ZN2v88internal14JSAtomicsMutex15TryLockExplicitEPSt6atomicImERm
node:_ZN2v88internal14JSAtomicsMutex19JSAtomicsMutexPrintERSo
node:_ZN2v88internal14JSAtomicsMutex26TryLockWaiterQueueExplicitEPSt6atomicImERm
node:_ZN2v88internal14JSDisplayNames15ResolvedOptionsEPNS0_7IsolateENS0_6HandleIS1_EE
node:_ZN2v88internal14JSDisplayNames19GetAvailableLocalesB5cxx11Ev
node:_ZN2v88internal14JSDisplayNames19JSDisplayNamesPrintERSo
node:_ZN2v88internal14JSDisplayNames2OfEPNS0_7IsolateENS0_6HandleIS1_EENS4_INS0_6ObjectEEE
node:_ZN2v88internal14JSDisplayNames3NewEPNS0_7IsolateENS0_6HandleINS0_3MapEEENS4_INS0_6ObjectEEES8_
node:_ZN2v88internal14JSGlobalObject19JSGlobalObjectPrintERSo
node:_ZN2v88internal14JSGlobalObject22InvalidatePropertyCellENS0_6HandleIS1_EENS2_INS0_4NameEEE
node:_ZN2v88internal14JSNumberFormat13FormatNumericEPNS0_7IsolateERKN6icu_736number24LocalizedNumberFormatterENS0_6HandleINS0_6ObjectEEE
node:_ZN2v88internal14JSNumberFormat13FormatToPartsEPNS0_7IsolateENS0_6HandleIS1_EENS4_INS0_6ObjectEEE
node:_ZN2v88internal14JSNumberFormat15ResolvedOptionsEPNS0_7IsolateENS0_6HandleIS1_EE
node:_ZN2v88internal14JSNumberFormat17GetRangeFormatterEPNS0_7IsolateENS0_6StringERKN6icu_736number24LocalizedNumberFormatterE
node:_ZN2v88internal14JSNumberFormat18FormatNumericRangeEPNS0_7IsolateENS0_6HandleIS1_EENS4_INS0_6ObjectEEES7_
node:_ZN2v88internal14JSNumberFormat18UnwrapNumberFormatEPNS0_7IsolateENS0_6HandleINS0_10JSReceiverEEE
node:_ZN2v88internal14JSNumberFormat19GetAvailableLocalesB5cxx11Ev
node:_ZN2v88internal14JSNumberFormat19JSNumberFormatPrintERSo
node:_ZN2v88internal14JSNumberFormat20NumberFormatFunctionEPNS0_7IsolateENS0_6HandleIS1_EENS4_INS0_6ObjectEEE
node:_ZN2v88internal14JSNumberFormat25FormatNumericRangeToPartsEPNS0_7IsolateENS0_6HandleIS1_EENS4_INS0_6ObjectEEES7_
node:_ZN2v88internal14JSNumberFormat26FractionDigitsFromSkeletonERKN6icu_7313UnicodeStringEPiS6_
node:_ZN2v88internal14JSNumberFormat26SetDigitOptionsToFormatterERKN6icu_736number26UnlocalizedNumberFormatterERKNS0_4Intl24NumberFormatDigitOptionsEiNS1_17ShowTrailingZerosE
node:_ZN2v88internal14JSNumberFormat27NumberingSystemFromSkeletonERKN6icu_7313UnicodeStringE
node:_ZN2v88internal14JSNumberFormat29SignificantDigitsFromSkeletonERKN6icu_7313UnicodeStringEPiS6_
node:_ZN2v88internal14JSNumberFormat32MinimumIntegerDigitsFromSkeletonERKN6icu_7313UnicodeStringE
node:_ZN2v88internal14JSNumberFormat3NewEPNS0_7IsolateENS0_6HandleINS0_3MapEEENS4_INS0_6ObjectEEES8_PKc
node:_ZN2v88internal14JSSharedStruct19JSSharedStructPrintERSo
node:_ZN2v88internal14KeyAccumulator10IsShadowedENS0_6HandleINS0_6ObjectEEE
node:_ZN2v88internal14KeyAccumulator11CollectKeysENS0_6HandleINS0_10JSReceiverEEES4_
node:_ZN2v88internal14KeyAccumulator14CollectOwnKeysENS0_6HandleINS0_10JSReceiverEEENS2_INS0_8JSObjectEEE
node:_ZN2v88internal14KeyAccumulator15AddShadowingKeyENS0_6HandleINS0_6ObjectEEE
node:_ZN2v88internal14KeyAccumulator15AddShadowingKeyENS0_6ObjectEPNS0_22CombinationAssertScopeIJNS0_29PerThreadAssertScopeDebugOnlyILNS0_19PerThreadAssertTypeE0ELb1EEENS4_ILS5_1ELb1EEEEEE
node:_ZN2v88internal14KeyAccumulator16HasShadowingKeysEv
node:_ZN2v88internal14KeyAccumulator18AddKeysFromJSProxyENS0_6HandleINS0_7JSProxyEEENS2_INS0_10FixedArrayEEE
node:_ZN2v88internal14KeyAccumulator19CollectPrivateNamesENS0_6HandleINS0_10JSReceiverEEENS2_INS0_8JSObjectEEE
node:_ZN2v88internal14KeyAccumulator21CollectOwnJSProxyKeysENS0_6HandleINS0_10JSReceiverEEENS2_INS0_7JSProxyEEE
node:_ZN2v88internal14KeyAccumulator22CollectInterceptorKeysENS0_6HandleINS0_10JSReceiverEEENS2_INS0_8JSObjectEEENS1_14IndexedOrNamedE
node:_ZN2v88internal14KeyAccumulator22GetOwnEnumPropertyKeysEPNS0_7IsolateENS0_6HandleINS0_8JSObjectEEE
node:_ZN2v88internal14KeyAccumulator23CollectOwnPropertyNamesENS0_6HandleINS0_10JSReceiverEEENS2_INS0_8JSObjectEEE
node:_ZN2v88internal14KeyAccumulator24CollectOwnElementIndicesENS0_6HandleINS0_10JSReceiverEEENS2_INS0_8JSObjectEEE
node:_ZN2v88internal14KeyAccumulator27CollectOwnJSProxyTargetKeysENS0_6HandleINS0_7JSProxyEEENS2_INS0_10JSReceiverEEE
node:_ZN2v88internal14KeyAccumulator29FilterForEnumerablePropertiesENS0_6HandleINS0_10JSReceiverEEENS2_INS0_8JSObjectEEENS2_INS0_15InterceptorInfoEEES6_NS1_14IndexedOrNamedE
node:_ZN2v88internal14KeyAccumulator30CollectInterceptorKeysInternalENS0_6HandleINS0_10JSReceiverEEENS2_INS0_8JSObjectEEENS2_INS0_15InterceptorInfoEEENS1_14IndexedOrNamedE
node:_ZN2v88internal14KeyAccumulator33CollectAccessCheckInterceptorKeysENS0_6HandleINS0_15AccessCheckInfoEEENS2_INS0_10JSReceiverEEENS2_INS0_8JSObjectEEE
node:_ZN2v88internal14KeyAccumulator4keysEv
node:_ZN2v88internal14KeyAccumulator6AddKeyENS0_6HandleINS0_6ObjectEEENS0_16AddKeyConversionE
node:_ZN2v88internal14KeyAccumulator6AddKeyENS0_6ObjectENS0_16AddKeyConversionE
node:_ZN2v88internal14KeyAccumulator7AddKeysENS0_6HandleINS0_10FixedArrayEEENS0_16AddKeyConversionE
node:_ZN2v88internal14KeyAccumulator7AddKeysENS0_6HandleINS0_8JSObjectEEENS0_16AddKeyConversionE
node:_ZN2v88internal14KeyAccumulator7GetKeysENS0_17GetKeysConversionE
node:_ZN2v88internal14KeyAccumulator7GetKeysEPNS0_7IsolateENS0_6HandleINS0_10JSReceiverEEENS0_17KeyCollectionModeENS0_14PropertyFilterENS0_17GetKeysConversionEbb
node:_ZN2v88internal14LookupIterator13SwapDataValueENS0_6HandleINS0_6ObjectEEENS_15SeqCstAccessTagE
node:_ZN2v88internal14LookupIterator14WriteDataValueENS0_6HandleINS0_6ObjectEEENS_15SeqCstAccessTagE
node:_ZN2v88internal14LookupIterator14WriteDataValueENS0_6HandleINS0_6ObjectEEEb
node:_ZN2v88internal14LookupIterator20LookupCachedPropertyENS0_6HandleINS0_12AccessorPairEEE
node:_ZN2v88internal14LookupIterator22PrepareForDataPropertyENS0_6HandleINS0_6ObjectEEE
node:_ZN2v88internal14LookupIterator23GetRootForNonJSReceiverEPNS0_7IsolateENS0_6HandleINS0_6ObjectEEEm
node:_ZN2v88internal14LookupIterator23InternalUpdateProtectorEPNS0_7IsolateENS0_6HandleINS0_6ObjectEEENS4_INS0_4NameEEE
node:_ZN2v88internal14LookupIterator23ReconfigureDataPropertyENS0_6HandleINS0_6ObjectEEENS0_18PropertyAttributesE
node:_ZN2v88internal14LookupIterator23TryLookupCachedPropertyENS0_6HandleINS0_12AccessorPairEEE
node:_ZN2v88internal14LookupIterator23TryLookupCachedPropertyEv
node:_ZN2v88internal14LookupIterator24TransitionToAccessorPairENS0_6HandleINS0_6ObjectEEENS0_18PropertyAttributesE
node:_ZN2v88internal14LookupIterator28TransitionToAccessorPropertyENS0_6HandleINS0_6ObjectEEES4_NS0_18PropertyAttributesE
node:_ZN2v88internal14LookupIterator29ApplyTransitionToDataPropertyENS0_6HandleINS0_10JSReceiverEEE
node:_ZN2v88internal14LookupIterator31PrepareTransitionToDataPropertyENS0_6HandleINS0_10JSReceiverEEENS2_INS0_6ObjectEEENS0_18PropertyAttributesENS0_11StoreOriginE
node:_ZN2v88internal14LookupIterator4NextEv
node:_ZN2v88internal14LookupIterator6DeleteEv
node:_ZN2v88internal14LookupIteratorC1EPNS0_7IsolateENS0_6HandleINS0_6ObjectEEENS4_INS0_4NameEEENS4_INS0_3MapEEENS0_15PropertyDetailsEb
node:_ZN2v88internal14LookupIteratorC2EPNS0_7IsolateENS0_6HandleINS0_6ObjectEEENS4_INS0_4NameEEENS4_INS0_3MapEEENS0_15PropertyDetailsEb
node:_ZN2v88internal14LoopChoiceNode12FillInBMInfoEPNS0_7IsolateEiiPNS0_19BoyerMooreLookaheadEb
node:_ZN2v88internal14LoopChoiceNode13FilterOneByteEiNS_4base5FlagsINS0_10RegExpFlagEiEE
node:_ZN2v88internal14LoopChoiceNode18AddLoopAlternativeENS0_18GuardedAlternativeE
node:_ZN2v88internal14LoopChoiceNode20GetQuickCheckDetailsEPNS0_17QuickCheckDetailsEPNS0_14RegExpCompilerEib
node:_ZN2v88internal14LoopChoiceNode22AddContinueAlternativeENS0_18GuardedAlternativeE
node:_ZN2v88internal14LoopChoiceNode24EatsAtLeastFromLoopEntryEv
node:_ZN2v88internal14LoopChoiceNode33GetQuickCheckDetailsFromLoopEntryEPNS0_17QuickCheckDetailsEPNS0_14RegExpCompilerEib
node:_ZN2v88internal14LoopChoiceNode4EmitEPNS0_14RegExpCompilerEPNS0_5TraceE
node:_ZN2v88internal14LoopChoiceNode6AcceptEPNS0_11NodeVisitorE
node:_ZN2v88internal14LowLevelLogger11LogCodeInfoEv
node:_ZN2v88internal14LowLevelLogger13CodeMoveEventENS0_17InstructionStreamES2_
node:_ZN2v88internal14LowLevelLogger13LogWriteBytesEPKci
node:_ZN2v88internal14LowLevelLogger17BytecodeMoveEventENS0_13BytecodeArrayES2_
node:_ZN2v88internal14LowLevelLogger17CodeMovingGCEventEv
node:_ZN2v88internal14LowLevelLogger17LogRecordedBufferENS0_12AbstractCodeENS0_11MaybeHandleINS0_18SharedFunctionInfoEEEPKci
node:_ZN2v88internal14LowLevelLogger17LogRecordedBufferEPKNS0_4wasm8WasmCodeEPKci
node:_ZN2v88internal14LowLevelLogger7kLogExtE
node:_ZN2v88internal14LowLevelLoggerC1EPNS0_7IsolateEPKc
node:_ZN2v88internal14LowLevelLoggerC2EPNS0_7IsolateEPKc
node:_ZN2v88internal14LowLevelLoggerD0Ev
node:_ZN2v88internal14LowLevelLoggerD1Ev
node:_ZN2v88internal14LowLevelLoggerD2Ev
node:_ZN2v88internal14MacroAssembler10Cvttsd2siqENS0_8RegisterENS0_11XMMRegisterE
node:_ZN2v88internal14MacroAssembler10Cvttsd2siqENS0_8RegisterENS0_7OperandE
node:_ZN2v88internal14MacroAssembler10Cvttsd2uiqENS0_8RegisterENS0_11XMMRegisterEPNS0_5LabelE
node:_ZN2v88internal14MacroAssembler10Cvttsd2uiqENS0_8RegisterENS0_7OperandEPNS0_5LabelE
node:_ZN2v88internal14MacroAssembler10Cvttss2siqENS0_8RegisterENS0_11XMMRegisterE
node:_ZN2v88internal14MacroAssembler10Cvttss2siqENS0_8RegisterENS0_7OperandE
node:_ZN2v88internal14MacroAssembler10Cvttss2uiqENS0_8RegisterENS0_11XMMRegisterEPNS0_5LabelE
node:_ZN2v88internal14MacroAssembler10Cvttss2uiqENS0_8RegisterENS0_7OperandEPNS0_5LabelE
node:_ZN2v88internal14MacroAssembler10DebugBreakEv
node:_ZN2v88internal14MacroAssembler10EnterFrameENS0_10StackFrame4TypeE
node:_ZN2v88internal14MacroAssembler10LeaveFrameENS0_10StackFrame4TypeE
node:_ZN2v88internal14MacroAssembler10MoveNumberENS0_8RegisterEd
node:_ZN2v88internal14MacroAssembler10SmiCompareENS0_7OperandENS0_3SmiE
node:_ZN2v88internal14MacroAssembler10SmiCompareENS0_7OperandENS0_8RegisterE
node:_ZN2v88internal14MacroAssembler10SmiCompareENS0_8RegisterENS0_3SmiE
node:_ZN2v88internal14MacroAssembler10SmiCompareENS0_8RegisterENS0_7OperandE
node:_ZN2v88internal14MacroAssembler10SmiCompareENS0_8RegisterES2_
node:_ZN2v88internal14MacroAssembler10SmiToIndexENS0_8RegisterES2_i
node:_ZN2v88internal14MacroAssembler10SmiToInt32ENS0_8RegisterE
node:_ZN2v88internal14MacroAssembler10SmiToInt32ENS0_8RegisterES2_
node:_ZN2v88internal14MacroAssembler11CallBuiltinENS0_7BuiltinE
node:_ZN2v88internal14MacroAssembler11CallRuntimeEPKNS0_7Runtime8FunctionEi
node:_ZN2v88internal14MacroAssembler11CompareRootENS0_7OperandENS0_9RootIndexE
node:_ZN2v88internal14MacroAssembler11CompareRootENS0_8RegisterENS0_9RootIndexE
node:_ZN2v88internal14MacroAssembler11LoadAddressENS0_8RegisterENS0_17ExternalReferenceE
node:_ZN2v88internal14MacroAssembler11PushAddressENS0_17ExternalReferenceE
node:_ZN2v88internal14MacroAssembler11RecordWriteENS0_8RegisterES2_S2_NS0_14SaveFPRegsModeE8SmiCheck
node:_ZN2v88internal14MacroAssembler12CompareRangeENS0_8RegisterEjj
node:_ZN2v88internal14MacroAssembler12IsObjectTypeENS0_8RegisterENS0_12InstanceTypeES2_
node:_ZN2v88internal14MacroAssembler12JumpIfNotSmiENS0_7OperandEPNS0_5LabelENS3_8DistanceE
node:_ZN2v88internal14MacroAssembler12JumpIfNotSmiENS0_8RegisterEPNS0_5LabelENS3_8DistanceE
node:_ZN2v88internal14MacroAssembler12StubPrologueENS0_10StackFrame4TypeE
node:_ZN2v88internal14MacroAssembler13CallCFunctionENS0_17ExternalReferenceEiNS1_19SetIsolateDataSlotsE
node:_ZN2v88internal14MacroAssembler13CallCFunctionENS0_8RegisterEiNS1_19SetIsolateDataSlotsE
node:_ZN2v88internal14MacroAssembler13CheckPageFlagENS0_8RegisterES2_iNS0_9ConditionEPNS0_5LabelENS4_8DistanceE
node:_ZN2v88internal14MacroAssembler13CmpObjectTypeENS0_8RegisterENS0_12InstanceTypeES2_
node:_ZN2v88internal14MacroAssembler13DropArgumentsENS0_8RegisterENS1_18ArgumentsCountTypeENS1_18ArgumentsCountModeE
node:_ZN2v88internal14MacroAssembler13DropArgumentsENS0_8RegisterES2_NS1_18ArgumentsCountTypeENS1_18ArgumentsCountModeE
node:_ZN2v88internal14MacroAssembler13LoadCodeEntryENS0_8RegisterES2_
node:_ZN2v88internal14MacroAssembler13LoadWeakValueENS0_8RegisterEPNS0_5LabelE
node:_ZN2v88internal14MacroAssembler13RootAsOperandENS0_9RootIndexE
node:_ZN2v88internal14MacroAssembler13SmiUntagFieldENS0_8RegisterENS0_7OperandE
node:_ZN2v88internal14MacroAssembler14CallCodeObjectENS0_8RegisterE
node:_ZN2v88internal14MacroAssembler14EnterExitFrameEiNS0_10StackFrame4TypeE
node:_ZN2v88internal14MacroAssembler14GetSmiConstantENS0_3SmiE
node:_ZN2v88internal14MacroAssembler14InvokeFunctionENS0_8RegisterES2_S2_10InvokeType
node:_ZN2v88internal14MacroAssembler14InvokeFunctionENS0_8RegisterES2_S2_S2_10InvokeType
node:_ZN2v88internal14MacroAssembler14InvokePrologueENS0_8RegisterES2_10InvokeType
node:_ZN2v88internal14MacroAssembler14JumpCodeObjectENS0_8RegisterE8JumpMode
node:_ZN2v88internal14MacroAssembler14LeaveExitFrameEv
node:_ZN2v88internal14MacroAssembler14LoadTaggedRootENS0_8RegisterENS0_9RootIndexE
node:_ZN2v88internal14MacroAssembler14PextrdPreSse41ENS0_8RegisterENS0_11XMMRegisterEh
node:_ZN2v88internal14MacroAssembler14PinsrdPreSse41ENS0_11XMMRegisterENS0_7OperandEhPj
node:_ZN2v88internal14MacroAssembler14PinsrdPreSse41ENS0_11XMMRegisterENS0_8RegisterEhPj
node:_ZN2v88internal14MacroAssembler14PopCallerSavedENS0_14SaveFPRegsModeENS0_8RegisterE
node:_ZN2v88internal14MacroAssembler14SmiAddConstantENS0_7OperandENS0_3SmiE
node:_ZN2v88internal14MacroAssembler15CmpInstanceTypeENS0_8RegisterENS0_12InstanceTypeE
node:_ZN2v88internal14MacroAssembler15JumpIfIsInRangeENS0_8RegisterEjjPNS0_5LabelENS3_8DistanceE
node:_ZN2v88internal14MacroAssembler15LoadTaggedFieldENS0_14TaggedRegisterENS0_7OperandE
node:_ZN2v88internal14MacroAssembler15LoadTaggedFieldENS0_8RegisterENS0_7OperandE
node:_ZN2v88internal14MacroAssembler15PopStackHandlerEv
node:_ZN2v88internal14MacroAssembler15PushCallerSavedENS0_14SaveFPRegsModeENS0_8RegisterE
node:_ZN2v88internal14MacroAssembler15PushTaggedFieldENS0_7OperandENS0_8RegisterE
node:_ZN2v88internal14MacroAssembler15TailCallBuiltinENS0_7BuiltinE
node:_ZN2v88internal14MacroAssembler15TailCallBuiltinENS0_7BuiltinENS0_9ConditionE
node:_ZN2v88internal14MacroAssembler15TailCallRuntimeENS0_7Runtime10FunctionIdE
node:_ZN2v88internal14MacroAssembler16DecompressTaggedENS0_8RegisterENS0_7OperandE
node:_ZN2v88internal14MacroAssembler16DecompressTaggedENS0_8RegisterES2_
node:_ZN2v88internal14MacroAssembler16DecompressTaggedENS0_8RegisterEm
node:_ZN2v88internal14MacroAssembler16LoadRootRelativeENS0_8RegisterEi
node:_ZN2v88internal14MacroAssembler16PushStackHandlerEv
node:_ZN2v88internal14MacroAssembler16RecordWriteFieldENS0_8RegisterEiS2_S2_NS0_14SaveFPRegsModeE8SmiCheck
node:_ZN2v88internal14MacroAssembler16SmiUntagUnsignedENS0_8RegisterE
node:_ZN2v88internal14MacroAssembler16SmiUntagUnsignedENS0_8RegisterENS0_7OperandE
node:_ZN2v88internal14MacroAssembler16StoreTaggedFieldENS0_7OperandENS0_8RegisterE
node:_ZN2v88internal14MacroAssembler16StoreTaggedFieldENS0_7OperandENS0_9ImmediateE
node:_ZN2v88internal14MacroAssembler17LoadCompressedMapENS0_8RegisterES2_
node:_ZN2v88internal14MacroAssembler18CallBuiltinByIndexENS0_8RegisterE
node:_ZN2v88internal14MacroAssembler18IncsspqIfSupportedENS0_8RegisterES2_
node:_ZN2v88internal14MacroAssembler18InvokeFunctionCodeENS0_8RegisterES2_S2_S2_10InvokeType
node:_ZN2v88internal14MacroAssembler18StackOverflowCheckENS0_8RegisterEPNS0_5LabelENS3_8DistanceE
node:_ZN2v88internal14MacroAssembler19CallRecordWriteStubENS0_8RegisterES2_NS0_14SaveFPRegsModeENS0_12StubCallModeE
node:_ZN2v88internal14MacroAssembler19CheckStackAlignmentEv
node:_ZN2v88internal14MacroAssembler19StackLimitAsOperandENS0_14StackLimitKindE
node:_ZN2v88internal14MacroAssembler20BailoutIfDeoptimizedENS0_8RegisterE
node:_ZN2v88internal14MacroAssembler20CmpInstanceTypeRangeENS0_8RegisterES2_NS0_12InstanceTypeES3_
node:_ZN2v88internal14MacroAssembler20EmitDecrementCounterEPNS0_12StatsCounterEi
node:_ZN2v88internal14MacroAssembler20EmitIncrementCounterEPNS0_12StatsCounterEi
node:_ZN2v88internal14MacroAssembler20PrepareCallCFunctionEi
node:_ZN2v88internal14MacroAssembler21CallForDeoptimizationENS0_7BuiltinEiPNS0_5LabelENS0_14DeoptimizeKindES4_S4_
node:_ZN2v88internal14MacroAssembler21LoadNativeContextSlotENS0_8RegisterEi
node:_ZN2v88internal14MacroAssembler21LoadTaggedSignedFieldENS0_8RegisterENS0_7OperandE
node:_ZN2v88internal14MacroAssembler21SmiUntagFieldUnsignedENS0_8RegisterENS0_7OperandE
node:_ZN2v88internal14MacroAssembler22AtomicStoreTaggedFieldENS0_7OperandENS0_8RegisterE
node:_ZN2v88internal14MacroAssembler22DecodeSandboxedPointerENS0_8RegisterE
node:_ZN2v88internal14MacroAssembler22DecompressTaggedSignedENS0_8RegisterENS0_7OperandE
node:_ZN2v88internal14MacroAssembler22DropUnderReturnAddressEiNS0_8RegisterE
node:_ZN2v88internal14MacroAssembler22EncodeSandboxedPointerENS0_8RegisterE
node:_ZN2v88internal14MacroAssembler22LoadFromConstantsTableENS0_8RegisterEi
node:_ZN2v88internal14MacroAssembler22LoadRootRegisterOffsetENS0_8RegisterEl
node:_ZN2v88internal14MacroAssembler22StoreTaggedSignedFieldENS0_7OperandENS0_3SmiE
node:_ZN2v88internal14MacroAssembler23CallDebugOnFunctionCallENS0_8RegisterES2_S2_S2_
node:_ZN2v88internal14MacroAssembler23CallEphemeronKeyBarrierENS0_8RegisterES2_NS0_14SaveFPRegsModeE
node:_ZN2v88internal14MacroAssembler23ComputeCodeStartAddressENS0_8RegisterE
node:_ZN2v88internal14MacroAssembler23JumpToExternalReferenceERKNS0_17ExternalReferenceEb
node:_ZN2v88internal14MacroAssembler23TryLoadOptimizedOsrCodeENS0_8RegisterES2_NS0_12FeedbackSlotEPNS0_5LabelENS4_8DistanceE
node:_ZN2v88internal14MacroAssembler24LoadExternalPointerFieldENS0_8RegisterENS0_7OperandENS0_18ExternalPointerTagES2_NS1_19IsolateRootLocationE
node:_ZN2v88internal14MacroAssembler25EntryFromBuiltinAsOperandENS0_7BuiltinE
node:_ZN2v88internal14MacroAssembler25JumpIfJSAnyIsNotPrimitiveENS0_8RegisterES2_PNS0_5LabelENS3_8DistanceENS0_9ConditionE
node:_ZN2v88internal14MacroAssembler25LoadSandboxedPointerFieldENS0_8RegisterENS0_7OperandE
node:_ZN2v88internal14MacroAssembler26ExternalReferenceAsOperandENS0_17ExternalReferenceENS0_8RegisterE
node:_ZN2v88internal14MacroAssembler26StoreSandboxedPointerFieldENS0_7OperandENS0_8RegisterE
node:_ZN2v88internal14MacroAssembler30EntryFromBuiltinIndexAsOperandENS0_8RegisterE
node:_ZN2v88internal14MacroAssembler30GenerateTailCallToReturnedCodeENS0_7Runtime10FunctionIdE8JumpMode
node:_ZN2v88internal14MacroAssembler31DropArgumentsAndPushNewReceiverENS0_8RegisterENS0_7OperandES2_NS1_18ArgumentsCountTypeENS1_18ArgumentsCountModeE
node:_ZN2v88internal14MacroAssembler31DropArgumentsAndPushNewReceiverENS0_8RegisterES2_S2_NS1_18ArgumentsCountTypeENS1_18ArgumentsCountModeE
node:_ZN2v88internal14MacroAssembler32CallRecordWriteStubSaveRegistersENS0_8RegisterES2_NS0_14SaveFPRegsModeENS0_12StubCallModeE
node:_ZN2v88internal14MacroAssembler33TestCodeIsMarkedForDeoptimizationENS0_8RegisterE
node:_ZN2v88internal14MacroAssembler34ArgumentStackSlotsForCFunctionCallEi
node:_ZN2v88internal14MacroAssembler35LoadTaggedFieldWithoutDecompressingENS0_8RegisterENS0_7OperandE
node:_ZN2v88internal14MacroAssembler35ReplaceClosureCodeWithOptimizedCodeENS0_8RegisterES2_S2_S2_
node:_ZN2v88internal14MacroAssembler39OptimizeCodeOrTailCallOptimizedCodeSlotENS0_8RegisterES2_S2_8JumpMode
node:_ZN2v88internal14MacroAssembler3CmpENS0_7OperandENS0_3SmiE
node:_ZN2v88internal14MacroAssembler3CmpENS0_7OperandENS0_6HandleINS0_6ObjectEEE
node:_ZN2v88internal14MacroAssembler3CmpENS0_8RegisterENS0_3SmiE
node:_ZN2v88internal14MacroAssembler3CmpENS0_8RegisterENS0_6HandleINS0_6ObjectEEE
node:_ZN2v88internal14MacroAssembler3CmpENS0_8RegisterEi
node:_ZN2v88internal14MacroAssembler3PopENS0_7OperandE
node:_ZN2v88internal14MacroAssembler3PopENS0_8RegisterE
node:_ZN2v88internal14MacroAssembler3RetEiNS0_8RegisterE
node:_ZN2v88internal14MacroAssembler3RetEv
node:_ZN2v88internal14MacroAssembler47LoadFeedbackVectorFlagsAndJumpIfNeedsProcessingENS0_8RegisterES2_NS0_8CodeKindEPNS0_5LabelE
node:_ZN2v88internal14MacroAssembler4CallENS0_17ExternalReferenceE
node:_ZN2v88internal14MacroAssembler4CallENS0_6HandleINS0_4CodeEEENS0_9RelocInfo4ModeE
node:_ZN2v88internal14MacroAssembler4CallENS0_7OperandE
node:_ZN2v88internal14MacroAssembler4CallEmNS0_9RelocInfo4ModeE
node:_ZN2v88internal14MacroAssembler4DropEi
node:_ZN2v88internal14MacroAssembler4JumpENS0_6HandleINS0_4CodeEEENS0_9RelocInfo4ModeE
node:_ZN2v88internal14MacroAssembler4JumpENS0_6HandleINS0_4CodeEEENS0_9RelocInfo4ModeENS0_9ConditionE
node:_ZN2v88internal14MacroAssembler4JumpENS0_7OperandE
node:_ZN2v88internal14MacroAssembler4JumpENS0_7OperandENS0_9ConditionE
node:_ZN2v88internal14MacroAssembler4JumpERKNS0_17ExternalReferenceE
node:_ZN2v88internal14MacroAssembler4JumpEmNS0_9RelocInfo4ModeE
node:_ZN2v88internal14MacroAssembler4JumpEmNS0_9RelocInfo4ModeENS0_9ConditionE
node:_ZN2v88internal14MacroAssembler4LoadENS0_8RegisterENS0_17ExternalReferenceE
node:_ZN2v88internal14MacroAssembler4MoveENS0_11XMMRegisterES2_
node:_ZN2v88internal14MacroAssembler4MoveENS0_11XMMRegisterEj
node:_ZN2v88internal14MacroAssembler4MoveENS0_11XMMRegisterEm
node:_ZN2v88internal14MacroAssembler4MoveENS0_11XMMRegisterEmm
node:_ZN2v88internal14MacroAssembler4MoveENS0_7OperandENS0_6HandleINS0_10HeapObjectEEENS0_9RelocInfo4ModeE
node:_ZN2v88internal14MacroAssembler4MoveENS0_7OperandEl
node:_ZN2v88internal14MacroAssembler4MoveENS0_8RegisterENS0_17ExternalReferenceE
node:_ZN2v88internal14MacroAssembler4MoveENS0_8RegisterENS0_3SmiE
node:_ZN2v88internal14MacroAssembler4MoveENS0_8RegisterENS0_6HandleINS0_10HeapObjectEEENS0_9RelocInfo4ModeE
node:_ZN2v88internal14MacroAssembler4MoveENS0_8RegisterENS0_7OperandE
node:_ZN2v88internal14MacroAssembler4MoveENS0_8RegisterENS0_9ImmediateE
node:_ZN2v88internal14MacroAssembler4MoveENS0_8RegisterES2_
node:_ZN2v88internal14MacroAssembler4MovqENS0_11XMMRegisterENS0_8RegisterE
node:_ZN2v88internal14MacroAssembler4MovqENS0_8RegisterENS0_11XMMRegisterE
node:_ZN2v88internal14MacroAssembler4PushENS0_3SmiE
node:_ZN2v88internal14MacroAssembler4PushENS0_6HandleINS0_10HeapObjectEEE
node:_ZN2v88internal14MacroAssembler4PushENS0_7OperandE
node:_ZN2v88internal14MacroAssembler4PushENS0_8RegisterE
node:_ZN2v88internal14MacroAssembler4PushENS0_9ImmediateE
node:_ZN2v88internal14MacroAssembler4TrapEv
node:_ZN2v88internal14MacroAssembler5AbortENS0_11AbortReasonE
node:_ZN2v88internal14MacroAssembler5CheckENS0_9ConditionENS0_11AbortReasonE
node:_ZN2v88internal14MacroAssembler5StoreENS0_17ExternalReferenceENS0_8RegisterE
node:_ZN2v88internal14MacroAssembler6LzcntlENS0_8RegisterENS0_7OperandE
node:_ZN2v88internal14MacroAssembler6LzcntlENS0_8RegisterES2_
node:_ZN2v88internal14MacroAssembler6LzcntqENS0_8RegisterENS0_7OperandE
node:_ZN2v88internal14MacroAssembler6LzcntqENS0_8RegisterES2_
node:_ZN2v88internal14MacroAssembler6PextrqENS0_8RegisterENS0_11XMMRegisterEa
node:_ZN2v88internal14MacroAssembler6PinsrqENS0_11XMMRegisterES2_NS0_7OperandEhPj
node:_ZN2v88internal14MacroAssembler6PinsrqENS0_11XMMRegisterES2_NS0_8RegisterEhPj
node:_ZN2v88internal14MacroAssembler6PopAllENS0_11RegListBaseINS0_11XMMRegisterEEEi
node:_ZN2v88internal14MacroAssembler6PopAllENS0_11RegListBaseINS0_8RegisterEEE
node:_ZN2v88internal14MacroAssembler6SmiTagENS0_8RegisterE
node:_ZN2v88internal14MacroAssembler6SmiTagENS0_8RegisterES2_
node:_ZN2v88internal14MacroAssembler6SwitchENS0_8RegisterES2_iPPNS0_5LabelEi
node:_ZN2v88internal14MacroAssembler6TzcntlENS0_8RegisterENS0_7OperandE
node:_ZN2v88internal14MacroAssembler6TzcntlENS0_8RegisterES2_
node:_ZN2v88internal14MacroAssembler6TzcntqENS0_8RegisterENS0_7OperandE
node:_ZN2v88internal14MacroAssembler6TzcntqENS0_8RegisterES2_
node:_ZN2v88internal14MacroAssembler7CmpeqsdENS0_11XMMRegisterES2_
node:_ZN2v88internal14MacroAssembler7CmpeqssENS0_11XMMRegisterES2_
node:_ZN2v88internal14MacroAssembler7LoadMapENS0_8RegisterES2_
node:_ZN2v88internal14MacroAssembler7PopQuadENS0_7OperandE
node:_ZN2v88internal14MacroAssembler7PopcntlENS0_8RegisterENS0_7OperandE
node:_ZN2v88internal14MacroAssembler7PopcntlENS0_8RegisterES2_
node:_ZN2v88internal14MacroAssembler7PopcntqENS0_8RegisterENS0_7OperandE
node:_ZN2v88internal14MacroAssembler7PopcntqENS0_8RegisterES2_
node:_ZN2v88internal14MacroAssembler7PushAllENS0_11RegListBaseINS0_11XMMRegisterEEEi
node:_ZN2v88internal14MacroAssembler7PushAllENS0_11RegListBaseINS0_8RegisterEEE
node:_ZN2v88internal14MacroAssembler8CheckSmiENS0_7OperandE
node:_ZN2v88internal14MacroAssembler8CheckSmiENS0_8RegisterE
node:_ZN2v88internal14MacroAssembler8Cvtsd2ssENS0_11XMMRegisterENS0_7OperandE
node:_ZN2v88internal14MacroAssembler8Cvtsd2ssENS0_11XMMRegisterES2_
node:_ZN2v88internal14MacroAssembler8Cvtss2sdENS0_11XMMRegisterENS0_7OperandE
node:_ZN2v88internal14MacroAssembler8Cvtss2sdENS0_11XMMRegisterES2_
node:_ZN2v88internal14MacroAssembler8LoadRootENS0_8RegisterENS0_9RootIndexE
node:_ZN2v88internal14MacroAssembler8MovePairENS0_8RegisterES2_S2_S2_
node:_ZN2v88internal14MacroAssembler8PrologueEv
node:_ZN2v88internal14MacroAssembler8PushQuadENS0_7OperandE
node:_ZN2v88internal14MacroAssembler8PushRootENS0_9RootIndexE
node:_ZN2v88internal14MacroAssembler8SmiUntagENS0_8RegisterE
node:_ZN2v88internal14MacroAssembler8SmiUntagENS0_8RegisterENS0_7OperandE
node:_ZN2v88internal14MacroAssembler8SmiUntagENS0_8RegisterES2_
node:_ZN2v88internal14MacroAssembler9Cvtlsi2sdENS0_11XMMRegisterENS0_7OperandE
node:_ZN2v88internal14MacroAssembler9Cvtlsi2sdENS0_11XMMRegisterENS0_8RegisterE
node:_ZN2v88internal14MacroAssembler9Cvtlsi2ssENS0_11XMMRegisterENS0_7OperandE
node:_ZN2v88internal14MacroAssembler9Cvtlsi2ssENS0_11XMMRegisterENS0_8RegisterE
node:_ZN2v88internal14MacroAssembler9Cvtlui2sdENS0_11XMMRegisterENS0_7OperandE
node:_ZN2v88internal14MacroAssembler9Cvtlui2sdENS0_11XMMRegisterENS0_8RegisterE
node:_ZN2v88internal14MacroAssembler9Cvtlui2ssENS0_11XMMRegisterENS0_7OperandE
node:_ZN2v88internal14MacroAssembler9Cvtlui2ssENS0_11XMMRegisterENS0_8RegisterE
node:_ZN2v88internal14MacroAssembler9Cvtqsi2sdENS0_11XMMRegisterENS0_7OperandE
node:_ZN2v88internal14MacroAssembler9Cvtqsi2sdENS0_11XMMRegisterENS0_8RegisterE
node:_ZN2v88internal14MacroAssembler9Cvtqsi2ssENS0_11XMMRegisterENS0_7OperandE
node:_ZN2v88internal14MacroAssembler9Cvtqsi2ssENS0_11XMMRegisterENS0_8RegisterE
node:_ZN2v88internal14MacroAssembler9Cvtqui2sdENS0_11XMMRegisterENS0_7OperandE
node:_ZN2v88internal14MacroAssembler9Cvtqui2sdENS0_11XMMRegisterENS0_8RegisterE
node:_ZN2v88internal14MacroAssembler9Cvtqui2ssENS0_11XMMRegisterENS0_7OperandE
node:_ZN2v88internal14MacroAssembler9Cvtqui2ssENS0_11XMMRegisterENS0_8RegisterE
node:_ZN2v88internal14MacroAssembler9Cvttsd2siENS0_8RegisterENS0_11XMMRegisterE
node:_ZN2v88internal14MacroAssembler9Cvttsd2siENS0_8RegisterENS0_7OperandE
node:_ZN2v88internal14MacroAssembler9Cvttsd2uiENS0_8RegisterENS0_11XMMRegisterEPNS0_5LabelE
node:_ZN2v88internal14MacroAssembler9Cvttsd2uiENS0_8RegisterENS0_7OperandEPNS0_5LabelE
node:_ZN2v88internal14MacroAssembler9Cvttss2siENS0_8RegisterENS0_11XMMRegisterE
node:_ZN2v88internal14MacroAssembler9Cvttss2siENS0_8RegisterENS0_7OperandE
node:_ZN2v88internal14MacroAssembler9Cvttss2uiENS0_8RegisterENS0_11XMMRegisterEPNS0_5LabelE
node:_ZN2v88internal14MacroAssembler9Cvttss2uiENS0_8RegisterENS0_7OperandEPNS0_5LabelE
node:_ZN2v88internal14MacroAssembler9JumpIfSmiENS0_8RegisterEPNS0_5LabelENS3_8DistanceE
node:_ZN2v88internal14MacroAssembler9PushArrayENS0_8RegisterES2_S2_NS1_14PushArrayOrderE
node:_ZN2v88internal14MacroAssembler9PushImm32Ei
node:_ZN2v88internal14MarkingBarrier10DeactivateEv
node:_ZN2v88internal14MarkingBarrier10PublishAllEPNS0_4HeapE
node:_ZN2v88internal14MarkingBarrier11ActivateAllEPNS0_4HeapEbNS0_18MarkingBarrierTypeE
node:_ZN2v88internal14MarkingBarrier13DeactivateAllEPNS0_4HeapE
node:_ZN2v88internal14MarkingBarrier14ActivateSharedEv
node:_ZN2v88internal14MarkingBarrier15PublishIfNeededEv
node:_ZN2v88internal14MarkingBarrier15RecordRelocSlotEPNS0_9RelocInfoENS0_10HeapObjectE
node:_ZN2v88internal14MarkingBarrier16DeactivateSharedEv
node:_ZN2v88internal14MarkingBarrier16WriteWithoutHostENS0_10HeapObjectE
node:_ZN2v88internal14MarkingBarrier21PublishSharedIfNeededEv
node:_ZN2v88internal14MarkingBarrier23IsCurrentMarkingBarrierENS0_10HeapObjectE
node:_ZN2v88internal14MarkingBarrier5WriteENS0_10HeapObjectENS0_18FullHeapObjectSlotES2_
node:_ZN2v88internal14MarkingBarrier5WriteENS0_13JSArrayBufferEPNS0_20ArrayBufferExtensionE
node:_ZN2v88internal14MarkingBarrier5WriteENS0_15DescriptorArrayEi
node:_ZN2v88internal14MarkingBarrier5WriteENS0_17InstructionStreamEPNS0_9RelocInfoENS0_10HeapObjectE
node:_ZN2v88internal14MarkingBarrier8ActivateEbNS0_18MarkingBarrierTypeE
node:_ZN2v88internal14MarkingBarrierC1EPNS0_9LocalHeapE
node:_ZN2v88internal14MarkingBarrierC2EPNS0_9LocalHeapE
node:_ZN2v88internal14MarkingBarrierD1Ev
node:_ZN2v88internal14MarkingBarrierD2Ev
node:_ZN2v88internal14MegaDomHandler17BriefPrintDetailsERSo
node:_ZN2v88internal14MessageHandler10GetMessageEPNS0_7IsolateENS0_6HandleINS0_6ObjectEEE
node:_ZN2v88internal14MessageHandler13ReportMessageEPNS0_7IsolateEPKNS0_15MessageLocationENS0_6HandleINS0_15JSMessageObjectEEE
node:_ZN2v88internal14MessageHandler17MakeMessageObjectEPNS0_7IsolateENS0_15MessageTemplateEPKNS0_15MessageLocationENS0_6HandleINS0_6ObjectEEENS8_INS0_10FixedArrayEEE
node:_ZN2v88internal14MessageHandler19GetLocalizedMessageEPNS0_7IsolateENS0_6HandleINS0_6ObjectEEE
node:_ZN2v88internal14MessageHandler20DefaultMessageReportEPNS0_7IsolateEPKNS0_15MessageLocationENS0_6HandleINS0_6ObjectEEE
node:_ZN2v88internal14MessageHandler25ReportMessageNoExceptionsEPNS0_7IsolateEPKNS0_15MessageLocationENS0_6HandleINS0_6ObjectEEENS_5LocalINS_5ValueEEE
node:_ZN2v88internal14MicrotaskQueue11kSizeOffsetE
node:_ZN2v88internal14MicrotaskQueue12ResizeBufferEl
node:_ZN2v88internal14MicrotaskQueue12kStartOffsetE
node:_ZN2v88internal14MicrotaskQueue13RunMicrotasksEPNS0_7IsolateE
node:_ZN2v88internal14MicrotaskQueue15kCapacityOffsetE
node:_ZN2v88internal14MicrotaskQueue16EnqueueMicrotaskENS0_9MicrotaskE
node:_ZN2v88internal14MicrotaskQueue16EnqueueMicrotaskEPNS_7IsolateENS_5LocalINS_8FunctionEEE
node:_ZN2v88internal14MicrotaskQueue16EnqueueMicrotaskEPNS_7IsolateEPFvPvES4_
node:_ZN2v88internal14MicrotaskQueue16kMinimumCapacityE
node:_ZN2v88internal14MicrotaskQueue17IterateMicrotasksEPNS0_11RootVisitorE
node:_ZN2v88internal14MicrotaskQueue17kRingBufferOffsetE
node:_ZN2v88internal14MicrotaskQueue20CallEnqueueMicrotaskEPNS0_7IsolateElm
node:_ZN2v88internal14MicrotaskQueue25PerformCheckpointInternalEPNS_7IsolateE
node:_ZN2v88internal14MicrotaskQueue26SetUpDefaultMicrotaskQueueEPNS0_7IsolateE
node:_ZN2v88internal14MicrotaskQueue29kFinishedMicrotaskCountOffsetE
node:_ZN2v88internal14MicrotaskQueue30AddMicrotasksCompletedCallbackEPFvPNS_7IsolateEPvES4_
node:_ZN2v88internal14MicrotaskQueue33RemoveMicrotasksCompletedCallbackEPFvPNS_7IsolateEPvES4_
node:_ZN2v88internal14MicrotaskQueue3NewEPNS0_7IsolateE
node:_ZN2v88internal14MicrotaskQueueC1Ev
node:_ZN2v88internal14MicrotaskQueueC2Ev
node:_ZN2v88internal14MicrotaskQueueD0Ev
node:_ZN2v88internal14MicrotaskQueueD1Ev
node:_ZN2v88internal14MicrotaskQueueD2Ev
node:_ZN2v88internal14NameDictionary19NameDictionaryPrintERSo
node:_ZN2v88internal14OptimizedFrame27StackSlotOffsetRelativeToFpEi
node:_ZN2v88internal14OptimizedFrame29LookupExceptionHandlerInTableEPiPNS0_12HandlerTable15CatchPredictionE
node:_ZN2v88internal14OrderedHashMap13AllocateEmptyEPNS0_7IsolateENS0_14AllocationTypeE
node:_ZN2v88internal14OrderedHashMap19OrderedHashMapPrintERSo
node:_ZN2v88internal14OrderedHashMap3AddEPNS0_7IsolateENS0_6HandleIS1_EENS4_INS0_6ObjectEEES7_
node:_ZN2v88internal14OrderedHashMap6RehashEPNS0_7IsolateENS0_6HandleIS1_EE
node:_ZN2v88internal14OrderedHashMap6RehashEPNS0_7IsolateENS0_6HandleIS1_EEi
node:_ZN2v88internal14OrderedHashMap7GetHashEPNS0_7IsolateEm
node:_ZN2v88internal14OrderedHashMap8GetEmptyENS0_13ReadOnlyRootsE
node:_ZN2v88internal14OrderedHashMap8SetEntryENS0_13InternalIndexENS0_6ObjectES3_
node:_ZN2v88internal14OrderedHashSet13AllocateEmptyEPNS0_7IsolateENS0_14AllocationTypeE
node:_ZN2v88internal14OrderedHashSet18ConvertToKeysArrayEPNS0_7IsolateENS0_6HandleIS1_EENS0_17GetKeysConversionE
node:_ZN2v88internal14OrderedHashSet19OrderedHashSetPrintERSo
node:_ZN2v88internal14OrderedHashSet3AddEPNS0_7IsolateENS0_6HandleIS1_EENS4_INS0_6ObjectEEE
node:_ZN2v88internal14OrderedHashSet6RehashEPNS0_7IsolateENS0_6HandleIS1_EE
node:_ZN2v88internal14OrderedHashSet6RehashEPNS0_7IsolateENS0_6HandleIS1_EEi
node:_ZN2v88internal14OrderedHashSet8GetEmptyENS0_13ReadOnlyRootsE
node:_ZN2v88internal14PagedSpaceBase10RemovePageEPNS0_4PageE
node:_ZN2v88internal14PagedSpaceBase11ReleasePageEPNS0_4PageE
node:_ZN2v88internal14PagedSpaceBase11SetReadableEv
node:_ZN2v88internal14PagedSpaceBase12TryExtendLABEi
node:_ZN2v88internal14PagedSpaceBase13DecreaseLimitEm
node:_ZN2v88internal14PagedSpaceBase13RefillLabMainEiNS0_16AllocationOriginE
node:_ZN2v88internal14PagedSpaceBase13ResetFreeListEv
node:_ZN2v88internal14PagedSpaceBase13TryExpandImplEv
node:_ZN2v88internal14PagedSpaceBase14InitializePageEPNS0_11MemoryChunkE
node:_ZN2v88internal14PagedSpaceBase14RemovePageSafeEi
node:_ZN2v88internal14PagedSpaceBase14SetTopAndLimitEmmm
node:_ZN2v88internal14PagedSpaceBase16RawRefillLabMainEiNS0_16AllocationOriginE
node:_ZN2v88internal14PagedSpaceBase17GetObjectIteratorEPNS0_4HeapE
node:_ZN2v88internal14PagedSpaceBase19TryExpandBackgroundEm
node:_ZN2v88internal14PagedSpaceBase20MergeCompactionSpaceEPNS0_15CompactionSpaceE
node:_ZN2v88internal14PagedSpaceBase20SetReadAndExecutableEv
node:_ZN2v88internal14PagedSpaceBase23ReduceActiveSystemPagesEPNS0_4PageEN4heap4base17ActiveSystemPagesE
node:_ZN2v88internal14PagedSpaceBase23SetLinearAllocationAreaEmmm
node:_ZN2v88internal14PagedSpaceBase24ContributeToSweepingMainEiiiNS0_16AllocationOriginENS0_8GCTracer5Scope7ScopeIdENS0_10ThreadKindE
node:_ZN2v88internal14PagedSpaceBase24FreeLinearAllocationAreaEv
node:_ZN2v88internal14PagedSpaceBase24RelinkFreeListCategoriesEPNS0_4PageE
node:_ZN2v88internal14PagedSpaceBase24UnlinkFreeListCategoriesEPNS0_4PageE
node:_ZN2v88internal14PagedSpaceBase25ShrinkPageToHighWaterMarkEPNS0_4PageE
node:_ZN2v88internal14PagedSpaceBase26UnmarkLinearAllocationAreaEv
node:_ZN2v88internal14PagedSpaceBase27AddRangeToActiveSystemPagesEPNS0_4PageEmm
node:_ZN2v88internal14PagedSpaceBase27UpdateInlineAllocationLimitEv
node:_ZN2v88internal14PagedSpaceBase28ShrinkImmortalImmovablePagesEv
node:_ZN2v88internal14PagedSpaceBase29MarkLinearAllocationAreaBlackEv
node:_ZN2v88internal14PagedSpaceBase29TryAllocationFromFreeListMainEmNS0_16AllocationOriginE
node:_ZN2v88internal14PagedSpaceBase30SetCodeModificationPermissionsEv
node:_ZN2v88internal14PagedSpaceBase32DecrementCommittedPhysicalMemoryEm
node:_ZN2v88internal14PagedSpaceBase32IncrementCommittedPhysicalMemoryEm
node:_ZN2v88internal14PagedSpaceBase32MakeLinearAllocationAreaIterableEv
node:_ZN2v88internal14PagedSpaceBase33RefineAllocatedBytesAfterSweepingEPNS0_4PageE
node:_ZN2v88internal14PagedSpaceBase35TryAllocationFromFreeListBackgroundEmmNS0_16AllocationOriginE
node:_ZN2v88internal14PagedSpaceBase7AddPageEPNS0_4PageE
node:_ZN2v88internal14PagedSpaceBase8SetLimitEm
node:_ZN2v88internal14PagedSpaceBase8TearDownEv
node:_ZN2v88internal14PagedSpaceBase9TryExpandEiNS0_16AllocationOriginE
node:_ZN2v88internal14PagedSpaceBaseC1EPNS0_4HeapENS0_15AllocationSpaceENS0_13ExecutabilityEPNS0_8FreeListERNS0_17AllocationCounterERNS0_20LinearAllocationAreaERNS0_22LinearAreaOriginalDataENS0_19CompactionSpaceKindE
node:_ZN2v88internal14PagedSpaceBaseC2EPNS0_4HeapENS0_15AllocationSpaceENS0_13ExecutabilityEPNS0_8FreeListERNS0_17AllocationCounterERNS0_20LinearAllocationAreaERNS0_22LinearAreaOriginalDataENS0_19CompactionSpaceKindE
node:_ZN2v88internal14ProfilingScopeC1EPNS0_7IsolateEPNS0_16ProfilerListenerE
node:_ZN2v88internal14ProfilingScopeC2EPNS0_7IsolateEPNS0_16ProfilerListenerE
node:_ZN2v88internal14ProfilingScopeD1Ev
node:_ZN2v88internal14ProfilingScopeD2Ev
node:_ZN2v88internal14PromiseOnStack10GetPromiseENS0_6HandleIS1_EE
node:_ZN2v88internal14PrototypeUsers17ScanForEmptySlotsENS0_13WeakArrayListE
node:_ZN2v88internal14PrototypeUsers3AddEPNS0_7IsolateENS0_6HandleINS0_13WeakArrayListEEENS4_INS0_3MapEEEPi
node:_ZN2v88internal14PrototypeUsers7CompactENS0_6HandleINS0_13WeakArrayListEEEPNS0_4HeapEPFvNS0_10HeapObjectEiiENS0_14AllocationTypeE
node:_ZN2v88internal14RegExpCompiler16PreprocessRegExpEPNS0_17RegExpCompileDataENS_4base5FlagsINS0_10RegExpFlagEiEEb
node:_ZN2v88internal14RegExpCompiler27ToNodeCheckForStackOverflowEv
node:_ZN2v88internal14RegExpCompiler33OptionallyStepBackToLeadSurrogateEPNS0_10RegExpNodeE
node:_ZN2v88internal14RegExpCompiler8AssembleEPNS0_7IsolateEPNS0_20RegExpMacroAssemblerEPNS0_10RegExpNodeEiNS0_6HandleINS0_6StringEEE
node:_ZN2v88internal14RegExpCompilerC1EPNS0_7IsolateEPNS0_4ZoneEiNS_4base5FlagsINS0_10RegExpFlagEiEEb
node:_ZN2v88internal14RegExpCompilerC2EPNS0_7IsolateEPNS0_4ZoneEiNS_4base5FlagsINS0_10RegExpFlagEiEEb
node:_ZN2v88internal14Runtime_MaxSmiEiPmPNS0_7IsolateE
node:_ZN2v88internal14Runtime_ToNameEiPmPNS0_7IsolateE
node:_ZN2v88internal14Runtime_TypeofEiPmPNS0_7IsolateE
node:_ZN2v88internal14SafepointScopeC1EPNS0_7IsolateENS0_13SafepointKindE
node:_ZN2v88internal14SafepointScopeC2EPNS0_7IsolateENS0_13SafepointKindE
node:_ZN2v88internal14SafepointTable14find_return_pcEi
node:_ZN2v88internal14SafepointTable9FindEntryEPNS0_7IsolateENS0_10GcSafeCodeEm
node:_ZN2v88internal14SafepointTableC1EPKNS0_4wasm8WasmCodeE
node:_ZN2v88internal14SafepointTableC1EPNS0_7IsolateEmNS0_10GcSafeCodeE
node:_ZN2v88internal14SafepointTableC1EPNS0_7IsolateEmNS0_4CodeE
node:_ZN2v88internal14SafepointTableC1Emm
node:_ZN2v88internal14SafepointTableC2EPKNS0_4wasm8WasmCodeE
node:_ZN2v88internal14SafepointTableC2EPNS0_7IsolateEmNS0_10GcSafeCodeE
node:_ZN2v88internal14SafepointTableC2EPNS0_7IsolateEmNS0_4CodeE
node:_ZN2v88internal14SafepointTableC2Emm
node:_ZN2v88internal14ScriptCacheKey13MatchesOriginENS0_6ScriptE
node:_ZN2v88internal14ScriptCacheKey7IsMatchENS0_6ObjectE
node:_ZN2v88internal14ScriptCacheKey8AsHandleEPNS0_7IsolateENS0_6HandleINS0_18SharedFunctionInfoEEE
node:_ZN2v88internal14ScriptCacheKeyC1ENS0_6HandleINS0_6StringEEENS0_11MaybeHandleINS0_6ObjectEEEiiNS_19ScriptOriginOptionsES7_PNS0_7IsolateE
node:_ZN2v88internal14ScriptCacheKeyC1ENS0_6HandleINS0_6StringEEEPKNS0_13ScriptDetailsEPNS0_7IsolateE
node:_ZN2v88internal14ScriptCacheKeyC2ENS0_6HandleINS0_6StringEEENS0_11MaybeHandleINS0_6ObjectEEEiiNS_19ScriptOriginOptionsES7_PNS0_7IsolateE
node:_ZN2v88internal14ScriptCacheKeyC2ENS0_6HandleINS0_6StringEEEPKNS0_13ScriptDetailsEPNS0_7IsolateE
node:_ZN2v88internal14ScriptOrModule19ScriptOrModulePrintERSo
node:_ZN2v88internal14SerializedData12AllocateDataEj
node:_ZN2v88internal14SetPermissionsEPNS_13PageAllocatorEPvmNS1_10PermissionE
node:_ZN2v88internal14StackFrameInfo17GetSourcePositionENS0_6HandleIS1_EE
node:_ZN2v88internal14StringToBigIntEPNS0_7IsolateENS0_6HandleINS0_6StringEEE
node:_ZN2v88internal14StringToDoubleENS_4base6VectorIKhEEid
node:_ZN2v88internal14StringToDoubleENS_4base6VectorIKtEEid
node:_ZN2v88internal14StringToDoubleEPKcid
node:_ZN2v88internal14StringToDoubleEPNS0_7IsolateENS0_6HandleINS0_6StringEEEid
node:_ZN2v88internal14StringsStorage11GetConsNameEPKcNS0_4NameE
node:_ZN2v88internal14StringsStorage12GetFormattedEPKcz
node:_ZN2v88internal14StringsStorage12StringsMatchEPvS2_
node:_ZN2v88internal14StringsStorage13GetStringSizeEv
node:_ZN2v88internal14StringsStorage13GetVFormattedEPKcP13__va_list_tag
node:_ZN2v88internal14StringsStorage18AddOrDisposeStringEPci
node:_ZN2v88internal14StringsStorage7GetCopyEPKc
node:_ZN2v88internal14StringsStorage7GetNameENS0_4NameE
node:_ZN2v88internal14StringsStorage7GetNameEi
node:_ZN2v88internal14StringsStorage7ReleaseEPKc
node:_ZN2v88internal14StringsStorage8GetEntryEPKci
node:_ZN2v88internal14StringsStorage9GetSymbolENS0_6SymbolE
node:_ZN2v88internal14StringsStorageC1Ev
node:_ZN2v88internal14StringsStorageC2Ev
node:_ZN2v88internal14StringsStorageD1Ev
node:_ZN2v88internal14StringsStorageD2Ev
node:_ZN2v88internal14TemporalParser17ParseCalendarNameEPNS0_7IsolateENS0_6HandleINS0_6StringEEE
node:_ZN2v88internal14TemporalParser23ParseTemporalTimeStringEPNS0_7IsolateENS0_6HandleINS0_6StringEEE
node:_ZN2v88internal14TemporalParser23ParseTimeZoneIdentifierEPNS0_7IsolateENS0_6HandleINS0_6StringEEE
node:_ZN2v88internal14TemporalParser26ParseTemporalInstantStringEPNS0_7IsolateENS0_6HandleINS0_6StringEEE
node:_ZN2v88internal14TemporalParser27ParseTemporalDateTimeStringEPNS0_7IsolateENS0_6HandleINS0_6StringEEE
node:_ZN2v88internal14TemporalParser27ParseTemporalDurationStringEPNS0_7IsolateENS0_6HandleINS0_6StringEEE
node:_ZN2v88internal14TemporalParser27ParseTemporalMonthDayStringEPNS0_7IsolateENS0_6HandleINS0_6StringEEE
node:_ZN2v88internal14TemporalParser28ParseTemporalYearMonthStringEPNS0_7IsolateENS0_6HandleINS0_6StringEEE
node:_ZN2v88internal14TemporalParser29ParseTimeZoneNumericUTCOffsetEPNS0_7IsolateENS0_6HandleINS0_6StringEEE
node:_ZN2v88internal14TemporalParser32ParseTemporalZonedDateTimeStringEPNS0_7IsolateENS0_6HandleINS0_6StringEEE
node:_ZN2v88internal14ThreadLocalTop10InitializeEPNS0_7IsolateE
node:_ZN2v88internal14ThreadLocalTop4FreeEv
node:_ZN2v88internal14ThreadLocalTop5ClearEv
node:_ZN2v88internal14TieringManager14ShouldOptimizeENS0_14FeedbackVectorENS0_8CodeKindEb
node:_ZN2v88internal14TieringManager15NotifyICChangedENS0_14FeedbackVectorE
node:_ZN2v88internal14TieringManager15OnInterruptTickENS0_6HandleINS0_10JSFunctionEEENS0_8CodeKindE
node:_ZN2v88internal14TieringManager18InterruptBudgetForEPNS0_7IsolateENS0_10JSFunctionE
node:_ZN2v88internal14TieringManager18MaybeOptimizeFrameENS0_10JSFunctionENS0_8CodeKindE
node:_ZN2v88internal14TieringManager20OnInterruptTickScopeC1EPS1_
node:_ZN2v88internal14TieringManager20OnInterruptTickScopeC2EPS1_
node:_ZN2v88internal14TieringManager20OnInterruptTickScopeD1Ev
node:_ZN2v88internal14TieringManager20OnInterruptTickScopeD2Ev
node:_ZN2v88internal14TieringManager22InitialInterruptBudgetEv
node:_ZN2v88internal14TieringManager27RequestOsrAtNextOpportunityENS0_10JSFunctionE
node:_ZN2v88internal14TieringManager8OptimizeENS0_10JSFunctionENS0_20OptimizationDecisionE
node:_ZN2v88internal14TimedHistogram13RecordAbandonEPNS_4base12ElapsedTimerEPNS0_7IsolateE
node:_ZN2v88internal14TimedHistogram14AddTimedSampleENS_4base9TimeDeltaE
node:_ZN2v88internal14TimedHistogram4StopEPNS_4base12ElapsedTimerE
node:_ZN2v88internal14TryStringToIntEPNS0_12LocalIsolateENS0_6HandleINS0_6StringEEEi
node:_ZN2v88internal14V8HeapExplorer13AllocateEntryENS0_3SmiE
node:_ZN2v88internal14V8HeapExplorer13AllocateEntryEPv
node:_ZN2v88internal14V8HeapExplorer14GetConstructorEPNS0_7IsolateENS0_10JSReceiverE
node:_ZN2v88internal14V8HeapExplorer15ExtractLocationEPNS0_9HeapEntryENS0_10HeapObjectE
node:_ZN2v88internal14V8HeapExplorer16MarkVisitedFieldEi
node:_ZN2v88internal14V8HeapExplorer16SetWeakReferenceEPNS0_9HeapEntryEPKcNS0_6ObjectEiNS2_21ReferenceVerificationE
node:_ZN2v88internal14V8HeapExplorer16SetWeakReferenceEPNS0_9HeapEntryEiNS0_6ObjectENS_4base8OptionalIiEE
node:_ZN2v88internal14V8HeapExplorer17ExtractReferencesEPNS0_9HeapEntryENS0_10HeapObjectE
node:_ZN2v88internal14V8HeapExplorer17IsEssentialObjectENS0_6ObjectE
node:_ZN2v88internal14V8HeapExplorer18GetConstructorNameEPNS0_7IsolateENS0_8JSObjectE
node:_ZN2v88internal14V8HeapExplorer18GetSystemEntryNameENS0_10HeapObjectE
node:_ZN2v88internal14V8HeapExplorer18GetSystemEntryTypeENS0_10HeapObjectE
node:_ZN2v88internal14V8HeapExplorer18SetHiddenReferenceENS0_10HeapObjectEPNS0_9HeapEntryEiNS0_6ObjectEi
node:_ZN2v88internal14V8HeapExplorer19SetContextReferenceEPNS0_9HeapEntryENS0_6StringENS0_6ObjectEi
node:_ZN2v88internal14V8HeapExplorer19SetElementReferenceEPNS0_9HeapEntryEiNS0_6ObjectE
node:_ZN2v88internal14V8HeapExplorer19SetGcRootsReferenceENS0_4RootE
node:_ZN2v88internal14V8HeapExplorer20EstimateObjectsCountEv
node:_ZN2v88internal14V8HeapExplorer20ExtractMapReferencesEPNS0_9HeapEntryENS0_3MapE
node:_ZN2v88internal14V8HeapExplorer20SetInternalReferenceEPNS0_9HeapEntryEPKcNS0_6ObjectEi
node:_ZN2v88internal14V8HeapExplorer20SetInternalReferenceEPNS0_9HeapEntryEiNS0_6ObjectEi
node:_ZN2v88internal14V8HeapExplorer20SetPropertyReferenceEPNS0_9HeapEntryENS0_4NameENS0_6ObjectEPKci
node:_ZN2v88internal14V8HeapExplorer20TagBuiltinCodeObjectENS0_4CodeEPKc
node:_ZN2v88internal14V8HeapExplorer21ExtractCellReferencesEPNS0_9HeapEntryENS0_4CellE
node:_ZN2v88internal14V8HeapExplorer21ExtractCodeReferencesEPNS0_9HeapEntryENS0_4CodeE
node:_ZN2v88internal14V8HeapExplorer21SetGcSubrootReferenceENS0_4RootEPKcbNS0_6ObjectE
node:_ZN2v88internal14V8HeapExplorer22ExtractNumberReferenceEPNS0_9HeapEntryENS0_6ObjectE
node:_ZN2v88internal14V8HeapExplorer22GetStrongGcSubrootNameENS0_10HeapObjectE
node:_ZN2v88internal14V8HeapExplorer22MakeGlobalObjectTagMapERKNS0_21IsolateSafepointScopeE
node:_ZN2v88internal14V8HeapExplorer22SetNativeBindReferenceEPNS0_9HeapEntryEPKcNS0_6ObjectE
node:_ZN2v88internal14V8HeapExplorer22SetUserGlobalReferenceENS0_6ObjectE
node:_ZN2v88internal14V8HeapExplorer23ExtractScriptReferencesEPNS0_9HeapEntryENS0_6ScriptE
node:_ZN2v88internal14V8HeapExplorer23ExtractStringReferencesEPNS0_9HeapEntryENS0_6StringE
node:_ZN2v88internal14V8HeapExplorer23ExtractSymbolReferencesEPNS0_9HeapEntryENS0_6SymbolE
node:_ZN2v88internal14V8HeapExplorer23SetRootGcRootsReferenceEv
node:_ZN2v88internal14V8HeapExplorer24CollectGlobalObjectsTagsEv
node:_ZN2v88internal14V8HeapExplorer24ExtractContextReferencesEPNS0_9HeapEntryENS0_7ContextE
node:_ZN2v88internal14V8HeapExplorer24ExtractElementReferencesENS0_8JSObjectEPNS0_9HeapEntryE
node:_ZN2v88internal14V8HeapExplorer25ExtractInternalReferencesENS0_8JSObjectEPNS0_9HeapEntryE
node:_ZN2v88internal14V8HeapExplorer25ExtractJSObjectReferencesEPNS0_9HeapEntryENS0_8JSObjectE
node:_ZN2v88internal14V8HeapExplorer25ExtractPropertyReferencesENS0_8JSObjectEPNS0_9HeapEntryE
node:_ZN2v88internal14V8HeapExplorer25ExtractWeakCellReferencesEPNS0_9HeapEntryENS0_8WeakCellE
node:_ZN2v88internal14V8HeapExplorer26ExtractEnumCacheReferencesEPNS0_9HeapEntryENS0_9EnumCacheE
node:_ZN2v88internal14V8HeapExplorer26ExtractJSPromiseReferencesEPNS0_9HeapEntryENS0_9JSPromiseE
node:_ZN2v88internal14V8HeapExplorer26ExtractJSWeakRefReferencesEPNS0_9HeapEntryENS0_9JSWeakRefE
node:_ZN2v88internal14V8HeapExplorer26ExtractScopeInfoReferencesEPNS0_9HeapEntryENS0_9ScopeInfoE
node:_ZN2v88internal14V8HeapExplorer26ExtractWasmArrayReferencesENS0_9WasmArrayEPNS0_9HeapEntryE
node:_ZN2v88internal14V8HeapExplorer26IsEssentialHiddenReferenceENS0_6ObjectEi
node:_ZN2v88internal14V8HeapExplorer26RecursivelyTagConstantPoolENS0_6ObjectEPKcNS0_9HeapEntry4TypeEi
node:_ZN2v88internal14V8HeapExplorer27ExtractAccessorPairPropertyEPNS0_9HeapEntryENS0_4NameENS0_6ObjectEi
node:_ZN2v88internal14V8HeapExplorer27ExtractFixedArrayReferencesEPNS0_9HeapEntryENS0_10FixedArrayE
node:_ZN2v88internal14V8HeapExplorer27ExtractWasmStructReferencesENS0_10WasmStructEPNS0_9HeapEntryE
node:_ZN2v88internal14V8HeapExplorer27IterateAndExtractReferencesEPNS0_21HeapSnapshotGeneratorE
node:_ZN2v88internal14V8HeapExplorer28ExtractLocationForJSFunctionEPNS0_9HeapEntryENS0_10JSFunctionE
node:_ZN2v88internal14V8HeapExplorer29ExtractAccessorInfoReferencesEPNS0_9HeapEntryENS0_12AccessorInfoE
node:_ZN2v88internal14V8HeapExplorer29ExtractAccessorPairReferencesEPNS0_9HeapEntryENS0_12AccessorPairE
node:_ZN2v88internal14V8HeapExplorer29ExtractFeedbackCellReferencesEPNS0_9HeapEntryENS0_12FeedbackCellE
node:_ZN2v88internal14V8HeapExplorer29ExtractJSCollectionReferencesEPNS0_9HeapEntryENS0_12JSCollectionE
node:_ZN2v88internal14V8HeapExplorer29ExtractPropertyCellReferencesEPNS0_9HeapEntryENS0_12PropertyCellE
node:_ZN2v88internal14V8HeapExplorer30ExtractBytecodeArrayReferencesEPNS0_9HeapEntryENS0_13BytecodeArrayE
node:_ZN2v88internal14V8HeapExplorer30ExtractJSArrayBufferReferencesEPNS0_9HeapEntryENS0_13JSArrayBufferE
node:_ZN2v88internal14V8HeapExplorer30ExtractJSGlobalProxyReferencesEPNS0_9HeapEntryENS0_13JSGlobalProxyE
node:_ZN2v88internal14V8HeapExplorer30ExtractPrototypeInfoReferencesEPNS0_9HeapEntryENS0_13PrototypeInfoE
node:_ZN2v88internal14V8HeapExplorer31ExtractAllocationSiteReferencesEPNS0_9HeapEntryENS0_14AllocationSiteE
node:_ZN2v88internal14V8HeapExplorer31ExtractFeedbackVectorReferencesEPNS0_9HeapEntryENS0_14FeedbackVectorE
node:_ZN2v88internal14V8HeapExplorer32ExtractDescriptorArrayReferencesEPNS0_9HeapEntryENS0_15DescriptorArrayE
node:_ZN2v88internal14V8HeapExplorer32ExtractTransitionArrayReferencesEPNS0_9HeapEntryENS0_15TransitionArrayE
node:_ZN2v88internal14V8HeapExplorer33ExtractJSWeakCollectionReferencesEPNS0_9HeapEntryENS0_16JSWeakCollectionE
node:_ZN2v88internal14V8HeapExplorer34ExtractJSGeneratorObjectReferencesEPNS0_9HeapEntryENS0_17JSGeneratorObjectE
node:_ZN2v88internal14V8HeapExplorer34SetDataOrAccessorPropertyReferenceENS0_12PropertyKindEPNS0_9HeapEntryENS0_4NameENS0_6ObjectEPKci
node:_ZN2v88internal14V8HeapExplorer35ExtractEphemeronHashTableReferencesEPNS0_9HeapEntryENS0_18EphemeronHashTableE
node:_ZN2v88internal14V8HeapExplorer35ExtractSharedFunctionInfoReferencesEPNS0_9HeapEntryENS0_18SharedFunctionInfoE
node:_ZN2v88internal14V8HeapExplorer44ExtractArrayBoilerplateDescriptionReferencesEPNS0_9HeapEntryENS0_27ArrayBoilerplateDescriptionE
node:_ZN2v88internal14V8HeapExplorer45ExtractRegExpBoilerplateDescriptionReferencesEPNS0_9HeapEntryENS0_28RegExpBoilerplateDescriptionE
node:_ZN2v88internal14V8HeapExplorer8AddEntryENS0_10HeapObjectE
node:_ZN2v88internal14V8HeapExplorer8AddEntryENS0_10HeapObjectENS0_9HeapEntry4TypeEPKc
node:_ZN2v88internal14V8HeapExplorer8AddEntryEmNS0_9HeapEntry4TypeEPKcm
node:_ZN2v88internal14V8HeapExplorer8GetEntryENS0_6ObjectE
node:_ZN2v88internal14V8HeapExplorer9TagObjectENS0_6ObjectEPKcNS_4base8OptionalINS0_9HeapEntry4TypeEEE
node:_ZN2v88internal14V8HeapExplorerC1EPNS0_12HeapSnapshotEPNS0_38SnapshottingProgressReportingInterfaceEPNS_12HeapProfiler18ObjectNameResolverE
node:_ZN2v88internal14V8HeapExplorerC2EPNS0_12HeapSnapshotEPNS0_38SnapshottingProgressReportingInterfaceEPNS_12HeapProfiler18ObjectNameResolverE
node:_ZN2v88internal14WasmJSFunction16IsWasmJSFunctionENS0_6ObjectE
node:_ZN2v88internal14WasmJSFunction3NewEPNS0_7IsolateEPKNS0_9SignatureINS0_4wasm9ValueTypeEEENS0_6HandleINS0_10JSReceiverEEENS5_7SuspendE
node:_ZN2v88internal14WasmResumeData19WasmResumeDataPrintERSo
node:_ZN2v88internal14WeakFixedArray19WeakFixedArrayPrintERSo
node:_ZN2v88internal14print_hex_byteERSoi
node:_ZN2v88internal14relaxed_memcpyEPVcPVKcm
node:_ZN2v88internal15AccessCheckInfo3GetEPNS0_7IsolateENS0_6HandleINS0_8JSObjectEEE
node:_ZN2v88internal15AllowExceptions4OpenEPNS0_7IsolateEPb
node:_ZN2v88internal15AllowExceptions5CloseEPNS0_7IsolateEb
node:_ZN2v88internal15AllowExceptions9IsAllowedEPNS0_7IsolateE
node:_ZN2v88internal15AllowExceptionsC1EPNS0_7IsolateE
node:_ZN2v88internal15AllowExceptionsC2EPNS0_7IsolateE
node:_ZN2v88internal15AllowExceptionsD1Ev
node:_ZN2v88internal15AllowExceptionsD2Ev
node:_ZN2v88internal15ArrayBufferList6AppendEPNS0_20ArrayBufferExtensionE
node:_ZN2v88internal15ArrayBufferList6AppendEPS1_
node:_ZN2v88internal15AstValueFactory13NewConsStringEPKNS0_12AstRawStringE
node:_ZN2v88internal15AstValueFactory13NewConsStringEPKNS0_12AstRawStringES4_
node:_ZN2v88internal15AstValueFactory13NewConsStringEv
node:_ZN2v88internal15AstValueFactory24GetOneByteStringInternalENS_4base6VectorIKhEE
node:_ZN2v88internal15AstValueFactory24GetTwoByteStringInternalENS_4base6VectorIKtEE
node:_ZN2v88internal15AstValueFactory9GetStringENS0_6StringERKNS0_31SharedStringAccessGuardIfNeededE
node:_ZN2v88internal15AstValueFactory9GetStringEjbNS_4base6VectorIKhEE
node:_ZN2v88internal15BinaryOperation21IsSmiLiteralOperationEPPNS0_10ExpressionEPNS0_3SmiE
node:_ZN2v88internal15Builtin_DateNowEiPmPNS0_7IsolateE
node:_ZN2v88internal15Builtin_DateUTCEiPmPNS0_7IsolateE
node:_ZN2v88internal15Builtin_IllegalEiPmPNS0_7IsolateE
node:_ZN2v88internal15CallDescriptors21call_descriptor_data_E
node:_ZN2v88internal15CallDescriptors24InitializeOncePerProcessEv
node:_ZN2v88internal15CallDescriptors8TearDownEv
node:_ZN2v88internal15CallHandlerInfo20CallHandlerInfoPrintERSo
node:_ZN2v88internal15CheckObjectTypeEmmm
node:_ZN2v88internal15CodeEventLogger15CodeCreateEventENS0_16LogEventListener7CodeTagENS0_6HandleINS0_12AbstractCodeEEENS4_INS0_18SharedFunctionInfoEEENS4_INS0_4NameEEE
node:_ZN2v88internal15CodeEventLogger15CodeCreateEventENS0_16LogEventListener7CodeTagENS0_6HandleINS0_12AbstractCodeEEENS4_INS0_18SharedFunctionInfoEEENS4_INS0_4NameEEEii
node:_ZN2v88internal15CodeEventLogger15CodeCreateEventENS0_16LogEventListener7CodeTagENS0_6HandleINS0_12AbstractCodeEEENS4_INS0_4NameEEE
node:_ZN2v88internal15CodeEventLogger15CodeCreateEventENS0_16LogEventListener7CodeTagENS0_6HandleINS0_12AbstractCodeEEEPKc
node:_ZN2v88internal15CodeEventLogger15CodeCreateEventENS0_16LogEventListener7CodeTagEPKNS0_4wasm8WasmCodeENS_4base6VectorIKcEEPSA_ii
node:_ZN2v88internal15CodeEventLogger21RegExpCodeCreateEventENS0_6HandleINS0_12AbstractCodeEEENS2_INS0_6StringEEE
node:_ZN2v88internal15CodeEventLoggerC1EPNS0_7IsolateE
node:_ZN2v88internal15CodeEventLoggerC2EPNS0_7IsolateE
node:_ZN2v88internal15CodeEventLoggerD0Ev
node:_ZN2v88internal15CodeEventLoggerD1Ev
node:_ZN2v88internal15CodeEventLoggerD2Ev
node:_ZN2v88internal15CompactionSpace13RefillLabMainEiNS0_16AllocationOriginE
node:_ZN2v88internal15CompactionSpace13TryExpandImplEv
node:_ZN2v88internal15CppGraphBuilder3RunEPNS_7IsolateEPNS_13EmbedderGraphEPv
node:_ZN2v88internal15DbgStdoutStreamC1Ev
node:_ZN2v88internal15DbgStdoutStreamC2Ev
node:_ZN2v88internal15DescriptorArray10InitializeENS0_9EnumCacheENS0_10HeapObjectEiij
node:_ZN2v88internal15DescriptorArray11IsEqualUpToES1_i
node:_ZN2v88internal15DescriptorArray14ClearEnumCacheEv
node:_ZN2v88internal15DescriptorArray16PrintDescriptorsERSo
node:_ZN2v88internal15DescriptorArray19GeneralizeAllFieldsEv
node:_ZN2v88internal15DescriptorArray20DescriptorArrayPrintERSo
node:_ZN2v88internal15DescriptorArray21CopyUpToAddAttributesEPNS0_7IsolateENS0_6HandleIS1_EEiNS0_18PropertyAttributesEi
node:_ZN2v88internal15DescriptorArray22CopyForFastObjectCloneEPNS0_7IsolateENS0_6HandleIS1_EEii
node:_ZN2v88internal15DescriptorArray22PrintDescriptorDetailsERSoNS0_13InternalIndexENS0_15PropertyDetails9PrintModeE
node:_ZN2v88internal15DescriptorArray27InitializeOrChangeEnumCacheENS0_6HandleIS1_EEPNS0_7IsolateENS2_INS0_10FixedArrayEEES7_NS0_14AllocationTypeE
node:_ZN2v88internal15DescriptorArray33CheckNameCollisionDuringInsertionEPNS0_10DescriptorEji
node:_ZN2v88internal15DescriptorArray4SortEv
node:_ZN2v88internal15DescriptorArray7ReplaceENS0_13InternalIndexEPNS0_10DescriptorE
node:_ZN2v88internal15DescriptorArray8CopyFromENS0_13InternalIndexES1_
node:_ZN2v88internal15DescriptorArray8CopyUpToEPNS0_7IsolateENS0_6HandleIS1_EEii
node:_ZN2v88internal15DoubleToBooleanEd
node:_ZN2v88internal15DoubleToCStringEdNS_4base6VectorIcEE
node:_ZN2v88internal15EhFrameIterator13DecodeSLeb128EPKhPi
node:_ZN2v88internal15EhFrameIterator13DecodeULeb128EPKhPi
node:_ZN2v88internal15EhFrameIterator14GetNextSLeb128Ev
node:_ZN2v88internal15EhFrameIterator14GetNextULeb128Ev
node:_ZN2v88internal15FilterProxyKeysEPNS0_14KeyAccumulatorENS0_6HandleINS0_7JSProxyEEENS3_INS0_10FixedArrayEEENS0_14PropertyFilterEb
node:_ZN2v88internal15FunctionLiteral17set_inferred_nameENS0_6HandleINS0_6StringEEE
node:_ZN2v88internal15FunctionLiteral21AllowsLazyCompilationEv
node:_ZN2v88internal15FunctionLiteral21SetShouldEagerCompileEv
node:_ZN2v88internal15FunctionLiteral21set_raw_inferred_nameEPNS0_13AstConsStringE
node:_ZN2v88internal15FunctionLiteral33set_class_scope_has_private_brandEb
node:_ZN2v88internal15GetNumberOptionEPNS0_7IsolateENS0_6HandleINS0_10JSReceiverEEENS3_INS0_6StringEEEiii
node:_ZN2v88internal15GetOrCreateHashEPNS0_7IsolateEm
node:_ZN2v88internal15GetStringOptionEPNS0_7IsolateENS0_6HandleINS0_10JSReceiverEEEPKcRKSt6vectorIS7_SaIS7_EES7_PSt10unique_ptrIA_cSt14default_deleteISE_EE
node:_ZN2v88internal15GlobalSafepoint12AppendClientEPNS0_7IsolateE
node:_ZN2v88internal15GlobalSafepoint12RemoveClientEPNS0_7IsolateE
node:_ZN2v88internal15GlobalSafepoint21IsRequestedForTestingEv
node:_ZN2v88internal15GlobalSafepoint25AssertNoClientsOnTearDownEv
node:_ZN2v88internal15GlobalSafepoint25EnterGlobalSafepointScopeEPNS0_7IsolateE
node:_ZN2v88internal15GlobalSafepoint25LeaveGlobalSafepointScopeEPNS0_7IsolateE
node:_ZN2v88internal15GlobalSafepointC1EPNS0_7IsolateE
node:_ZN2v88internal15GlobalSafepointC2EPNS0_7IsolateE
node:_ZN2v88internal15GreedyLoopStateC1Eb
node:_ZN2v88internal15GreedyLoopStateC2Eb
node:_ZN2v88internal15IdentityMapBase11DeleteEntryEmPm
node:_ZN2v88internal15IdentityMapBase11DeleteIndexEiPm
node:_ZN2v88internal15IdentityMapBase11InsertEntryEm
node:_ZN2v88internal15IdentityMapBase14LookupOrInsertEm
node:_ZN2v88internal15IdentityMapBase15EnableIterationEv
node:_ZN2v88internal15IdentityMapBase16DisableIterationEv
node:_ZN2v88internal15IdentityMapBase17FindOrInsertEntryEm
node:_ZN2v88internal15IdentityMapBase5ClearEv
node:_ZN2v88internal15IdentityMapBase6RehashEv
node:_ZN2v88internal15IdentityMapBase6ResizeEi
node:_ZN2v88internal15IdentityMapBase9InsertKeyEmj
node:_ZN2v88internal15IdentityMapBaseD0Ev
node:_ZN2v88internal15IdentityMapBaseD1Ev
node:_ZN2v88internal15IdentityMapBaseD2Ev
node:_ZN2v88internal15InterruptsScope9InterceptENS0_10StackGuard13InterruptFlagE
node:_ZN2v88internal15IsMap_NonInlineENS0_10HeapObjectE
node:_ZN2v88internal15JSArrayIterator20JSArrayIteratorPrintERSo
node:_ZN2v88internal15JSBoundFunction20JSBoundFunctionPrintERSo
node:_ZN2v88internal15JSBoundFunction7GetNameEPNS0_7IsolateENS0_6HandleIS1_EE
node:_ZN2v88internal15JSBoundFunction8ToStringENS0_6HandleIS1_EE
node:_ZN2v88internal15JSBoundFunction9GetLengthEPNS0_7IsolateENS0_6HandleIS1_EE
node:_ZN2v88internal15JSMessageObject20JSMessageObjectPrintERSo
node:_ZN2v88internal15JSMessageObject30EnsureSourcePositionsAvailableEPNS0_7IsolateENS0_6HandleIS1_EE
node:_ZN2v88internal15JavaScriptFrame11fp_registerEv
node:_ZN2v88internal15JavaScriptFrame16context_registerEv
node:_ZN2v88internal15JavaScriptFrame22PrintFunctionAndOffsetENS0_10JSFunctionENS0_12AbstractCodeEiP8_IO_FILEb
node:_ZN2v88internal15JavaScriptFrame30constant_pool_pointer_registerEv
node:_ZN2v88internal15JavaScriptFrame34CollectFunctionAndOffsetForICStatsENS0_10JSFunctionENS0_12AbstractCodeEi
node:_ZN2v88internal15JavaScriptFrame8PrintTopEPNS0_7IsolateEP8_IO_FILEbb
node:_ZN2v88internal15JsonStringifier11DoNotEscapeIhEEbT_
node:_ZN2v88internal15JsonStringifier11DoNotEscapeItEEbT_
node:_ZN2v88internal15JsonStringifier12SerializeSmiENS0_3SmiE
node:_ZN2v88internal15JsonStringifier13CurrentHolderENS0_6HandleINS0_6ObjectEEES4_
node:_ZN2v88internal15JsonStringifier13InitializeGapENS0_6HandleINS0_6ObjectEEE
node:_ZN2v88internal15JsonStringifier14NewLineOutlineEv
node:_ZN2v88internal15JsonStringifier15JsonEscapeTableE
node:_ZN2v88internal15JsonStringifier15SerializeDoubleEd
node:_ZN2v88internal15JsonStringifier15SerializeStringENS0_6HandleINS0_6StringEEE
node:_ZN2v88internal15JsonStringifier16SerializeJSProxyENS0_6HandleINS0_7JSProxyEEENS2_INS0_6ObjectEEE
node:_ZN2v88internal15JsonStringifier18InitializeReplacerENS0_6HandleINS0_6ObjectEEE
node:_ZN2v88internal15JsonStringifier19ApplyToJsonFunctionENS0_6HandleINS0_6ObjectEEES4_
node:_ZN2v88internal15JsonStringifier21ApplyReplacerFunctionENS0_6HandleINS0_6ObjectEEES4_S4_
node:_ZN2v88internal15JsonStringifier22SerializeArrayLikeSlowENS0_6HandleINS0_10JSReceiverEEEjj
node:_ZN2v88internal15JsonStringifier23SerializeJSReceiverSlowENS0_6HandleINS0_10JSReceiverEEE
node:_ZN2v88internal15JsonStringifier27SerializeJSPrimitiveWrapperENS0_6HandleINS0_18JSPrimitiveWrapperEEENS2_INS0_6ObjectEEE
node:_ZN2v88internal15JsonStringifier38ConstructCircularStructureErrorMessageENS0_6HandleINS0_6ObjectEEEm
node:_ZN2v88internal15JsonStringifier8StackPopEv
node:_ZN2v88internal15JsonStringifier9StackPushENS0_6HandleINS0_6ObjectEEES4_
node:_ZN2v88internal15JsonStringifier9StringifyENS0_6HandleINS0_6ObjectEEES4_S4_
node:_ZN2v88internal15JsonStringifierC1EPNS0_7IsolateE
node:_ZN2v88internal15JsonStringifierC2EPNS0_7IsolateE
node:_ZN2v88internal15MaybeDecompressEPNS0_7IsolateERKNS_4base6VectorIKhEE
node:_ZN2v88internal15MemoryAllocator12AllocatePageENS1_14AllocationModeEPNS0_5SpaceENS0_13ExecutabilityE
node:_ZN2v88internal15MemoryAllocator12CommitMemoryEPNS0_13VirtualMemoryE
node:_ZN2v88internal15MemoryAllocator13PreFreeMemoryEPNS0_11MemoryChunkE
node:_ZN2v88internal15MemoryAllocator14UncommitMemoryEPNS0_13VirtualMemoryE
node:_ZN2v88internal15MemoryAllocator15FreePooledChunkEPNS0_11MemoryChunkE
node:_ZN2v88internal15MemoryAllocator15RemapSharedPageEPNS_13PageAllocator12SharedMemoryEm
node:_ZN2v88internal15MemoryAllocator16ComputeChunkSizeEmNS0_15AllocationSpaceENS0_13ExecutabilityE
node:_ZN2v88internal15MemoryAllocator16FreeMemoryRegionEPNS_13PageAllocatorEmm
node:_ZN2v88internal15MemoryAllocator16FreeReadOnlyPageEPNS0_12ReadOnlyPageE
node:_ZN2v88internal15MemoryAllocator17AllocateLargePageEPNS0_16LargeObjectSpaceEmNS0_13ExecutabilityE
node:_ZN2v88internal15MemoryAllocator17PartialFreeMemoryEPNS0_16BasicMemoryChunkEmmm
node:_ZN2v88internal15MemoryAllocator17PerformFreeMemoryEPNS0_11MemoryChunkE
node:_ZN2v88internal15MemoryAllocator17commit_page_size_E
node:_ZN2v88internal15MemoryAllocator20AllocateReadOnlyPageEPNS0_13ReadOnlySpaceEm
node:_ZN2v88internal15MemoryAllocator21AllocateAlignedMemoryEmmmNS0_15AllocationSpaceENS0_13ExecutabilityEPvPNS0_13VirtualMemoryE
node:_ZN2v88internal15MemoryAllocator21UnregisterMemoryChunkEPNS0_11MemoryChunkE
node:_ZN2v88internal15MemoryAllocator22RecordLargePageCreatedERKNS0_9LargePageE
node:_ZN2v88internal15MemoryAllocator22UnregisterReadOnlyPageEPNS0_12ReadOnlyPageE
node:_ZN2v88internal15MemoryAllocator22commit_page_size_bits_E
node:_ZN2v88internal15MemoryAllocator23HandleAllocationFailureENS0_13ExecutabilityE
node:_ZN2v88internal15MemoryAllocator23RecordNormalPageCreatedERKNS0_4PageE
node:_ZN2v88internal15MemoryAllocator24ComputeDiscardMemoryAreaEmm
node:_ZN2v88internal15MemoryAllocator24InitializeOncePerProcessEv
node:_ZN2v88internal15MemoryAllocator24RecordLargePageDestroyedERKNS0_9LargePageE
node:_ZN2v88internal15MemoryAllocator25RecordNormalPageDestroyedERKNS0_4PageE
node:_ZN2v88internal15MemoryAllocator26UnregisterBasicMemoryChunkEPNS0_16BasicMemoryChunkENS0_13ExecutabilityE
node:_ZN2v88internal15MemoryAllocator28AllocateUninitializedChunkAtEPNS0_9BaseSpaceEmNS0_13ExecutabilityEmNS0_8PageSizeE
node:_ZN2v88internal15MemoryAllocator28LookupChunkContainingAddressERKSt13unordered_setIPKNS0_4PageESt4hashIS5_ESt8equal_toIS5_ESaIS5_EERKSt3setIPKNS0_9LargePageESt4lessISH_ESaISH_EEm
node:_ZN2v88internal15MemoryAllocator32UnregisterSharedBasicMemoryChunkEPNS0_16BasicMemoryChunkE
node:_ZN2v88internal15MemoryAllocator33AllocateUninitializedPageFromPoolEPNS0_5SpaceE
node:_ZN2v88internal15MemoryAllocator37SetPermissionsOnExecutableMemoryChunkEPNS0_13VirtualMemoryEmmm
node:_ZN2v88internal15MemoryAllocator4FreeENS1_8FreeModeEPNS0_11MemoryChunkE
node:_ZN2v88internal15MemoryAllocator8TearDownEv
node:_ZN2v88internal15MemoryAllocator8Unmapper12PrepareForGCEv
node:_ZN2v88internal15MemoryAllocator8Unmapper14NumberOfChunksEv
node:_ZN2v88internal15MemoryAllocator8Unmapper16FreeQueuedChunksEv
node:_ZN2v88internal15MemoryAllocator8Unmapper23CommittedBufferedMemoryEv
node:_ZN2v88internal15MemoryAllocator8Unmapper23NumberOfCommittedChunksEv
node:_ZN2v88internal15MemoryAllocator8Unmapper24EnsureUnmappingCompletedEv
node:_ZN2v88internal15MemoryAllocator8Unmapper28CancelAndWaitForPendingTasksEv
node:_ZN2v88internal15MemoryAllocator8Unmapper31PerformFreeMemoryOnQueuedChunksENS2_8FreeModeEPNS_11JobDelegateE
node:_ZN2v88internal15MemoryAllocator8Unmapper41PerformFreeMemoryOnQueuedNonRegularChunksEPNS_11JobDelegateE
node:_ZN2v88internal15MemoryAllocator8Unmapper8TearDownEv
node:_ZN2v88internal15MemoryAllocator8ZapBlockEmmm
node:_ZN2v88internal15MemoryAllocatorC1EPNS0_7IsolateEPNS_13PageAllocatorEm
node:_ZN2v88internal15MemoryAllocatorC2EPNS0_7IsolateEPNS_13PageAllocatorEm
node:_ZN2v88internal15MessageLocationC1ENS0_6HandleINS0_6ScriptEEENS2_INS0_18SharedFunctionInfoEEEi
node:_ZN2v88internal15MessageLocationC1ENS0_6HandleINS0_6ScriptEEEii
node:_ZN2v88internal15MessageLocationC1ENS0_6HandleINS0_6ScriptEEEiiNS2_INS0_18SharedFunctionInfoEEE
node:_ZN2v88internal15MessageLocationC1Ev
node:_ZN2v88internal15MessageLocationC2ENS0_6HandleINS0_6ScriptEEENS2_INS0_18SharedFunctionInfoEEEi
node:_ZN2v88internal15MessageLocationC2ENS0_6HandleINS0_6ScriptEEEii
node:_ZN2v88internal15MessageLocationC2ENS0_6HandleINS0_6ScriptEEEiiNS2_INS0_18SharedFunctionInfoEEE
node:_ZN2v88internal15MessageLocationC2Ev
node:_ZN2v88internal15ObjectHashTable20ObjectHashTablePrintERSo
node:_ZN2v88internal15PageMarkingItem17MarkTypedPointersEPNS0_26YoungGenerationMarkingTaskE
node:_ZN2v88internal15PageMarkingItem19MarkUntypedPointersEPNS0_26YoungGenerationMarkingTaskE
node:_ZN2v88internal15PageMarkingItem7ProcessEPNS0_26YoungGenerationMarkingTaskE
node:_ZN2v88internal15PropertyDetails13PrintAsFastToERSoNS1_9PrintModeE
node:_ZN2v88internal15PropertyDetails13PrintAsSlowToERSob
node:_ZN2v88internal15PropertyDetails5PrintEb
node:_ZN2v88internal15RegExpAssertion11AsAssertionEv
node:_ZN2v88internal15RegExpAssertion11IsAssertionEv
node:_ZN2v88internal15RegExpAssertion15IsAnchoredAtEndEv
node:_ZN2v88internal15RegExpAssertion17IsAnchoredAtStartEv
node:_ZN2v88internal15RegExpAssertion6AcceptEPNS0_13RegExpVisitorEPv
node:_ZN2v88internal15RegExpAssertion6ToNodeEPNS0_14RegExpCompilerEPNS0_10RegExpNodeE
node:_ZN2v88internal15RegExpMatchInfo15ReserveCapturesEPNS0_7IsolateENS0_6HandleIS1_EEi
node:_ZN2v88internal15RegExpMatchInfo3NewEPNS0_7IsolateEi
node:_ZN2v88internal15RelocInfoWriter5WriteEPKNS0_9RelocInfoE
node:_ZN2v88internal15RootsSerializer11SynchronizeENS0_22VisitorSynchronization7SyncTagE
node:_ZN2v88internal15RootsSerializer17VisitRootPointersENS0_4RootEPKcNS0_14FullObjectSlotES5_
node:_ZN2v88internal15RootsSerializer18CheckRehashabilityENS0_10HeapObjectE
node:_ZN2v88internal15RootsSerializer22SerializeInObjectCacheENS0_6HandleINS0_10HeapObjectEEE
node:_ZN2v88internal15RootsSerializerC1EPNS0_7IsolateENS_4base5FlagsINS0_8Snapshot14SerializerFlagEiEENS0_9RootIndexE
node:_ZN2v88internal15RootsSerializerC2EPNS0_7IsolateENS_4base5FlagsINS0_8Snapshot14SerializerFlagEiEENS0_9RootIndexE
node:_ZN2v88internal15Runtime_AbortJSEiPmPNS0_7IsolateE
node:_ZN2v88internal15Runtime_Is64BitEiPmPNS0_7IsolateE
node:_ZN2v88internal15Runtime_IsArrayEiPmPNS0_7IsolateE
node:_ZN2v88internal15Runtime_MapGrowEiPmPNS0_7IsolateE
node:_ZN2v88internal15Runtime_ReThrowEiPmPNS0_7IsolateE
node:_ZN2v88internal15Runtime_SetGrowEiPmPNS0_7IsolateE
node:_ZN2v88internal15Runtime_TheHoleEiPmPNS0_7IsolateE
node:_ZN2v88internal15ScavengeVisitorC1EPNS0_9ScavengerE
node:_ZN2v88internal15ScavengeVisitorC2EPNS0_9ScavengerE
node:_ZN2v88internal15SourceCodeCache10InitializeEPNS0_7IsolateEb
node:_ZN2v88internal15SourceCodeCache3AddEPNS0_7IsolateENS_4base6VectorIKcEENS0_6HandleINS0_18SharedFunctionInfoEEE
node:_ZN2v88internal15SourceCodeCache6LookupEPNS0_7IsolateENS_4base6VectorIKcEEPNS0_6HandleINS0_18SharedFunctionInfoEEE
node:_ZN2v88internal15SourceCodeCache7IterateEPNS0_11RootVisitorE
node:_ZN2v88internal15StackLimitCheck13HasOverflowedEPNS0_12LocalIsolateE
node:_ZN2v88internal15StackLimitCheck40HandleStackOverflowAndTerminationRequestEv
node:_ZN2v88internal15SyntheticModule13ResolveExportEPNS0_7IsolateENS0_6HandleIS1_EENS4_INS0_6StringEEES7_NS0_15MessageLocationEb
node:_ZN2v88internal15SyntheticModule15SetExportStrictEPNS0_7IsolateENS0_6HandleIS1_EENS4_INS0_6StringEEENS4_INS0_6ObjectEEE
node:_ZN2v88internal15SyntheticModule17FinishInstantiateEPNS0_7IsolateENS0_6HandleIS1_EE
node:_ZN2v88internal15SyntheticModule18PrepareInstantiateEPNS0_7IsolateENS0_6HandleIS1_EENS_5LocalINS_7ContextEEE
node:_ZN2v88internal15SyntheticModule8EvaluateEPNS0_7IsolateENS0_6HandleIS1_EE
node:_ZN2v88internal15SyntheticModule9SetExportEPNS0_7IsolateENS0_6HandleIS1_EENS4_INS0_6StringEEENS4_INS0_6ObjectEEE
node:_ZN2v88internal15TransitionArray13PrintInternalERSo
node:_ZN2v88internal15TransitionArray13SearchDetailsEiNS0_12PropertyKindENS0_18PropertyAttributesEPi
node:_ZN2v88internal15TransitionArray18SearchAndGetTargetENS0_12PropertyKindENS0_4NameENS0_18PropertyAttributesE
node:_ZN2v88internal15TransitionArray19ForEachTransitionToENS0_4NameERKSt8functionIFvNS0_3MapEEE
node:_ZN2v88internal15TransitionArray20TransitionArrayPrintERSo
node:_ZN2v88internal15TransitionArray25SearchDetailsAndGetTargetEiNS0_12PropertyKindENS0_18PropertyAttributesE
node:_ZN2v88internal15TransitionArray28GrowPrototypeTransitionArrayENS0_6HandleINS0_14WeakFixedArrayEEEiPNS0_7IsolateE
node:_ZN2v88internal15TransitionArray31CompactPrototypeTransitionArrayEPNS0_7IsolateENS0_14WeakFixedArrayE
node:_ZN2v88internal15TransitionArray31SetNumberOfPrototypeTransitionsENS0_14WeakFixedArrayEi
node:_ZN2v88internal15TransitionArray4SortEv
node:_ZN2v88internal15TransitionArray6SearchENS0_12PropertyKindENS0_4NameENS0_18PropertyAttributesEPi
node:_ZN2v88internal15TranslatedFrame13GetValueCountEv
node:_ZN2v88internal15TranslatedFrame15AdvanceIteratorEPSt15_Deque_iteratorINS0_15TranslatedValueERS3_PS3_E
node:_ZN2v88internal15TranslatedFrame16UnoptimizedFrameENS0_14BytecodeOffsetENS0_18SharedFunctionInfoEiii
node:_ZN2v88internal15TranslatedFrame18ConstructStubFrameENS0_14BytecodeOffsetENS0_18SharedFunctionInfoEi
node:_ZN2v88internal15TranslatedFrame21InlinedExtraArgumentsENS0_18SharedFunctionInfoEi
node:_ZN2v88internal15TranslatedFrame24BuiltinContinuationFrameENS0_14BytecodeOffsetENS0_18SharedFunctionInfoEi
node:_ZN2v88internal15TranslatedFrame32JSToWasmBuiltinContinuationFrameENS0_14BytecodeOffsetENS0_18SharedFunctionInfoEiNS_4base8OptionalINS0_4wasm9ValueKindEEE
node:_ZN2v88internal15TranslatedFrame34JavaScriptBuiltinContinuationFrameENS0_14BytecodeOffsetENS0_18SharedFunctionInfoEi
node:_ZN2v88internal15TranslatedFrame43JavaScriptBuiltinContinuationWithCatchFrameENS0_14BytecodeOffsetENS0_18SharedFunctionInfoEi
node:_ZN2v88internal15TranslatedFrame8HandlifyEPNS0_7IsolateE
node:_ZN2v88internal15TranslatedState12GetFloatSlotEmi
node:_ZN2v88internal15TranslatedState13GetDoubleSlotEmi
node:_ZN2v88internal15TranslatedState13GetUInt32SlotEmi
node:_ZN2v88internal15TranslatedState13GetUInt64SlotEmi
node:_ZN2v88internal15TranslatedState15GetResolvedSlotEPNS0_15TranslatedFrameEi
node:_ZN2v88internal15TranslatedState16DoUpdateFeedbackEv
node:_ZN2v88internal15TranslatedState18AllocateStorageForEPNS0_15TranslatedValueE
node:_ZN2v88internal15TranslatedState18DecompressIfNeededEl
node:_ZN2v88internal15TranslatedState18GetValueAndAdvanceEPNS0_15TranslatedFrameEPi
node:_ZN2v88internal15TranslatedState18InitializeObjectAtEPNS0_15TranslatedValueE
node:_ZN2v88internal15TranslatedState18ReadUpdateFeedbackEPNS0_24TranslationArrayIteratorENS0_26DeoptimizationLiteralArrayEP8_IO_FILE
node:_ZN2v88internal15TranslatedState20InitializeJSObjectAtEPNS0_15TranslatedFrameEPiPNS0_15TranslatedValueENS0_6HandleINS0_3MapEEERKNS0_22CombinationAssertScopeIJNS0_29PerThreadAssertScopeDebugOnlyILNS0_19PerThreadAssertTypeE0ELb0EEENSB_ILSC_1ELb0EEEEEE
node:_ZN2v88internal15TranslatedState21GetValueByObjectIndexEi
node:_ZN2v88internal15TranslatedState21MaterializeHeapNumberEPNS0_15TranslatedFrameEPiPNS0_15TranslatedValueE
node:_ZN2v88internal15TranslatedState21ResolveCapturedObjectEPNS0_15TranslatedValueE
node:_ZN2v88internal15TranslatedState23EnsureChildrenAllocatedEiPNS0_15TranslatedFrameEPiPSt5stackIiSt5dequeIiSaIiEEE
node:_ZN2v88internal15TranslatedState23EnsureJSObjectAllocatedEPNS0_15TranslatedValueENS0_6HandleINS0_3MapEEE
node:_ZN2v88internal15TranslatedState23EnsureObjectAllocatedAtEPNS0_15TranslatedValueE
node:_ZN2v88internal15TranslatedState24GetFrameFromJSFrameIndexEi
node:_ZN2v88internal15TranslatedState25CreateNextTranslatedFrameEPNS0_24TranslationArrayIteratorENS0_26DeoptimizationLiteralArrayEmP8_IO_FILE
node:_ZN2v88internal15TranslatedState25CreateNextTranslatedValueEiPNS0_24TranslationArrayIteratorENS0_26DeoptimizationLiteralArrayEmPNS0_14RegisterValuesEP8_IO_FILE
node:_ZN2v88internal15TranslatedState25GetResolvedSlotAndAdvanceEPNS0_15TranslatedFrameEPi
node:_ZN2v88internal15TranslatedState25VerifyMaterializedObjectsEv
node:_ZN2v88internal15TranslatedState26InitializeCapturedObjectAtEiPSt5stackIiSt5dequeIiSaIiEEERKNS0_22CombinationAssertScopeIJNS0_29PerThreadAssertScopeDebugOnlyILNS0_19PerThreadAssertTypeE0ELb0EEENS9_ILSA_1ELb0EEEEEE
node:_ZN2v88internal15TranslatedState27MaterializeFixedDoubleArrayEPNS0_15TranslatedFrameEPiPNS0_15TranslatedValueENS0_6HandleINS0_3MapEEE
node:_ZN2v88internal15TranslatedState31EnsureCapturedObjectAllocatedAtEiPSt5stackIiSt5dequeIiSaIiEEE
node:_ZN2v88internal15TranslatedState31StoreMaterializedValuesAndDeoptEPNS0_15JavaScriptFrameE
node:_ZN2v88internal15TranslatedState32GetArgumentsInfoFromJSFrameIndexEiPi
node:_ZN2v88internal15TranslatedState34EnsurePropertiesAllocatedAndMarkedEPNS0_15TranslatedValueENS0_6HandleINS0_3MapEEE
node:_ZN2v88internal15TranslatedState34InitializeObjectWithTaggedFieldsAtEPNS0_15TranslatedFrameEPiPNS0_15TranslatedValueENS0_6HandleINS0_3MapEEERKNS0_22CombinationAssertScopeIJNS0_29PerThreadAssertScopeDebugOnlyILNS0_19PerThreadAssertTypeE0ELb0EEENSB_ILSC_1ELb0EEEEEE
node:_ZN2v88internal15TranslatedState39CreateArgumentsElementsTranslatedValuesEimNS0_19CreateArgumentsTypeEP8_IO_FILE
node:_ZN2v88internal15TranslatedState39UpdateFromPreviouslyMaterializedObjectsEv
node:_ZN2v88internal15TranslatedState4InitEPNS0_7IsolateEmmPNS0_24TranslationArrayIteratorENS0_26DeoptimizationLiteralArrayEPNS0_14RegisterValuesEP8_IO_FILEii
node:_ZN2v88internal15TranslatedState7PrepareEm
node:_ZN2v88internal15TranslatedState9SkipSlotsEiPNS0_15TranslatedFrameEPi
node:_ZN2v88internal15TranslatedStateC1EPKNS0_15JavaScriptFrameE
node:_ZN2v88internal15TranslatedStateC2EPKNS0_15JavaScriptFrameE
node:_ZN2v88internal15TranslatedValue10NewInvalidEPNS0_15TranslatedStateE
node:_ZN2v88internal15TranslatedValue16NewInt64ToBigIntEPNS0_15TranslatedStateEl
node:_ZN2v88internal15TranslatedValue17NewDeferredObjectEPNS0_15TranslatedStateEii
node:_ZN2v88internal15TranslatedValue17NewUint64ToBigIntEPNS0_15TranslatedStateEm
node:_ZN2v88internal15TranslatedValue18NewDuplicateObjectEPNS0_15TranslatedStateEi
node:_ZN2v88internal15TranslatedValue23set_initialized_storageENS0_6HandleINS0_10HeapObjectEEE
node:_ZN2v88internal15TranslatedValue28ReplaceElementsArrayWithCopyEv
node:_ZN2v88internal15TranslatedValue7NewBoolEPNS0_15TranslatedStateEj
node:_ZN2v88internal15TranslatedValue8GetValueEv
node:_ZN2v88internal15TranslatedValue8HandlifyEv
node:_ZN2v88internal15TranslatedValue8NewFloatEPNS0_15TranslatedStateENS0_7Float32E
node:_ZN2v88internal15TranslatedValue8NewInt32EPNS0_15TranslatedStateEi
node:_ZN2v88internal15TranslatedValue8NewInt64EPNS0_15TranslatedStateEl
node:_ZN2v88internal15TranslatedValue9NewDoubleEPNS0_15TranslatedStateENS0_7Float64E
node:_ZN2v88internal15TranslatedValue9NewTaggedEPNS0_15TranslatedStateENS0_6ObjectE
node:_ZN2v88internal15TranslatedValue9NewUInt32EPNS0_15TranslatedStateEj
node:_ZN2v88internal15ValueSerializer10WriteJSMapENS0_6HandleINS0_5JSMapEEE
node:_ZN2v88internal15ValueSerializer10WriteJSSetENS0_6HandleINS0_5JSSetEEE
node:_ZN2v88internal15ValueSerializer11WriteBigIntENS0_6BigIntE
node:_ZN2v88internal15ValueSerializer11WriteDoubleEd
node:_ZN2v88internal15ValueSerializer11WriteHeaderEv
node:_ZN2v88internal15ValueSerializer11WriteJSDateENS0_6JSDateE
node:_ZN2v88internal15ValueSerializer11WriteObjectENS0_6HandleINS0_6ObjectEEE
node:_ZN2v88internal15ValueSerializer11WriteStringENS0_6HandleINS0_6StringEEE
node:_ZN2v88internal15ValueSerializer11WriteUint32Ej
node:_ZN2v88internal15ValueSerializer11WriteUint64Em
node:_ZN2v88internal15ValueSerializer12ExpandBufferEm
node:_ZN2v88internal15ValueSerializer12WriteJSArrayENS0_6HandleINS0_7JSArrayEEE
node:_ZN2v88internal15ValueSerializer12WriteJSErrorENS0_6HandleINS0_8JSObjectEEE
node:_ZN2v88internal15ValueSerializer12WriteOddballENS0_7OddballE
node:_ZN2v88internal15ValueSerializer13WriteJSObjectENS0_6HandleINS0_8JSObjectEEE
node:_ZN2v88internal15ValueSerializer13WriteJSRegExpENS0_6HandleINS0_8JSRegExpEEE
node:_ZN2v88internal15ValueSerializer13WriteRawBytesEPKvm
node:_ZN2v88internal15ValueSerializer15ReserveRawBytesEm
node:_ZN2v88internal15ValueSerializer15WriteHeapNumberENS0_10HeapNumberE
node:_ZN2v88internal15ValueSerializer15WriteHostObjectENS0_6HandleINS0_8JSObjectEEE
node:_ZN2v88internal15ValueSerializer15WriteJSReceiverENS0_6HandleINS0_10JSReceiverEEE
node:_ZN2v88internal15ValueSerializer15WriteWasmMemoryENS0_6HandleINS0_16WasmMemoryObjectEEE
node:_ZN2v88internal15ValueSerializer15WriteWasmModuleENS0_6HandleINS0_16WasmModuleObjectEEE
node:_ZN2v88internal15ValueSerializer17WriteJSObjectSlowENS0_6HandleINS0_8JSObjectEEE
node:_ZN2v88internal15ValueSerializer17WriteSharedObjectENS0_6HandleINS0_10HeapObjectEEE
node:_ZN2v88internal15ValueSerializer18ThrowIfOutOfMemoryEv
node:_ZN2v88internal15ValueSerializer18WriteJSArrayBufferENS0_6HandleINS0_13JSArrayBufferEEE
node:_ZN2v88internal15ValueSerializer18WriteJSSharedArrayENS0_6HandleINS0_13JSSharedArrayEEE
node:_ZN2v88internal15ValueSerializer18WriteOneByteStringENS_4base6VectorIKhEE
node:_ZN2v88internal15ValueSerializer18WriteTwoByteStringENS_4base6VectorIKtEE
node:_ZN2v88internal15ValueSerializer19ThrowDataCloneErrorENS0_15MessageTemplateE
node:_ZN2v88internal15ValueSerializer19ThrowDataCloneErrorENS0_15MessageTemplateENS0_6HandleINS0_6ObjectEEE
node:_ZN2v88internal15ValueSerializer19TransferArrayBufferEjNS0_6HandleINS0_13JSArrayBufferEEE
node:_ZN2v88internal15ValueSerializer19WriteBigIntContentsENS0_6BigIntE
node:_ZN2v88internal15ValueSerializer19WriteJSSharedStructENS0_6HandleINS0_14JSSharedStructEEE
node:_ZN2v88internal15ValueSerializer22WriteJSArrayBufferViewENS0_17JSArrayBufferViewE
node:_ZN2v88internal15ValueSerializer23WriteJSPrimitiveWrapperENS0_6HandleINS0_18JSPrimitiveWrapperEEE
node:_ZN2v88internal15ValueSerializer27WriteJSObjectPropertiesSlowENS0_6HandleINS0_8JSObjectEEENS2_INS0_10FixedArrayEEE
node:_ZN2v88internal15ValueSerializer37SetTreatArrayBufferViewsAsHostObjectsEb
node:_ZN2v88internal15ValueSerializer7ReleaseEv
node:_ZN2v88internal15ValueSerializer8WriteSmiENS0_3SmiE
node:_ZN2v88internal15ValueSerializer8WriteTagENS0_16SerializationTagE
node:_ZN2v88internal15ValueSerializer9WriteByteEh
node:_ZN2v88internal15ValueSerializerC1EPNS0_7IsolateEPNS_15ValueSerializer8DelegateE
node:_ZN2v88internal15ValueSerializerC2EPNS0_7IsolateEPNS_15ValueSerializer8DelegateE
node:_ZN2v88internal15ValueSerializerD1Ev
node:_ZN2v88internal15ValueSerializerD2Ev
node:_ZN2v88internal15WasmTableObject10IsInBoundsEPNS0_7IsolateENS0_6HandleIS1_EEj
node:_ZN2v88internal15WasmTableObject15JSToWasmElementEPNS0_7IsolateENS0_6HandleIS1_EENS4_INS0_6ObjectEEEPPKc
node:_ZN2v88internal15WasmTableObject16AddDispatchTableEPNS0_7IsolateENS0_6HandleIS1_EENS4_INS0_18WasmInstanceObjectEEEi
node:_ZN2v88internal15WasmTableObject19ClearDispatchTablesEPNS0_7IsolateENS0_6HandleIS1_EEi
node:_ZN2v88internal15WasmTableObject20UpdateDispatchTablesEPNS0_7IsolateENS0_6HandleIS1_EEiNS4_INS0_14WasmJSFunctionEEE
node:_ZN2v88internal15WasmTableObject20UpdateDispatchTablesEPNS0_7IsolateENS0_6HandleIS1_EEiNS4_INS0_16WasmCapiFunctionEEE
node:_ZN2v88internal15WasmTableObject20UpdateDispatchTablesEPNS0_7IsolateES1_iPKNS0_4wasm12WasmFunctionENS0_18WasmInstanceObjectE
node:_ZN2v88internal15WasmTableObject21GetFunctionTableEntryEPNS0_7IsolateEPKNS0_4wasm10WasmModuleENS0_6HandleIS1_EEiPbSA_PNS0_11MaybeHandleINS0_18WasmInstanceObjectEEEPiPNSB_INS0_14WasmJSFunctionEEE
node:_ZN2v88internal15WasmTableObject21SetFunctionTableEntryEPNS0_7IsolateENS0_6HandleIS1_EENS4_INS0_10FixedArrayEEEiNS4_INS0_6ObjectEEE
node:_ZN2v88internal15WasmTableObject27SetFunctionTablePlaceholderEPNS0_7IsolateENS0_6HandleIS1_EEiNS4_INS0_18WasmInstanceObjectEEEi
node:_ZN2v88internal15WasmTableObject3GetEPNS0_7IsolateENS0_6HandleIS1_EEj
node:_ZN2v88internal15WasmTableObject3NewEPNS0_7IsolateENS0_6HandleINS0_18WasmInstanceObjectEEENS0_4wasm9ValueTypeEjbjPNS4_INS0_10FixedArrayEEENS4_INS0_6ObjectEEE
node:_ZN2v88internal15WasmTableObject3SetEPNS0_7IsolateENS0_6HandleIS1_EEjNS4_INS0_6ObjectEEE
node:_ZN2v88internal15WasmTableObject4FillEPNS0_7IsolateENS0_6HandleIS1_EEjNS4_INS0_6ObjectEEEj
node:_ZN2v88internal15WasmTableObject4GrowEPNS0_7IsolateENS0_6HandleIS1_EEjNS4_INS0_6ObjectEEE
node:_ZN2v88internal15WasmValueObject20WasmValueObjectPrintERSo
node:_ZN2v88internal15WasmValueObject3NewEPNS0_7IsolateENS0_6HandleINS0_6StringEEENS4_INS0_6ObjectEEE
node:_ZN2v88internal15WasmValueObject3NewEPNS0_7IsolateERKNS0_4wasm9WasmValueENS0_6HandleINS0_16WasmModuleObjectEEE
node:_ZN2v88internal15ZoneCompression16kReservationSizeE
node:_ZN2v88internal15ZoneCompression21kReservationAlignmentE
node:_ZN2v88internal15relaxed_memmoveEPVcPVKcm
node:_ZN2v88internal16AllocatePageSizeEv
node:_ZN2v88internal16AllowCompilation4OpenEPNS0_7IsolateEPb
node:_ZN2v88internal16AllowCompilation5CloseEPNS0_7IsolateEb
node:_ZN2v88internal16AllowCompilation9IsAllowedEPNS0_7IsolateE
node:_ZN2v88internal16AllowCompilationC1EPNS0_7IsolateE
node:_ZN2v88internal16AllowCompilationC2EPNS0_7IsolateE
node:_ZN2v88internal16AllowCompilationD1Ev
node:_ZN2v88internal16AllowCompilationD2Ev
node:_ZN2v88internal16AssemblerOptions7DefaultEPNS0_7IsolateE
node:_ZN2v88internal16BasicMemoryChunk14ComputeMarkBitENS0_10HeapObjectE
node:_ZN2v88internal16BasicMemoryChunk14ComputeMarkBitEm
node:_ZN2v88internal16BasicMemoryChunkC1EPNS0_4HeapEPNS0_9BaseSpaceEmmmNS0_13VirtualMemoryE
node:_ZN2v88internal16BasicMemoryChunkC2EPNS0_4HeapEPNS0_9BaseSpaceEmmmNS0_13VirtualMemoryE
node:_ZN2v88internal16Builtin_ArrayPopEiPmPNS0_7IsolateE
node:_ZN2v88internal16CodeEntryStorage6AddRefEPNS0_9CodeEntryE
node:_ZN2v88internal16CodeEntryStorage6DecRefEPNS0_9CodeEntryE
node:_ZN2v88internal16CodeKindToMarkerENS0_8CodeKindE
node:_ZN2v88internal16CodeKindToStringENS0_8CodeKindE
node:_ZN2v88internal16CompareOperation20IsLiteralCompareNullEPPNS0_10ExpressionE
node:_ZN2v88internal16CompareOperation22IsLiteralCompareTypeofEPPNS0_10ExpressionEPPNS0_7LiteralE
node:_ZN2v88internal16CompareOperation25IsLiteralCompareUndefinedEPPNS0_10ExpressionE
node:_ZN2v88internal16CompareOperation29IsLiteralStrictCompareBooleanEPPNS0_10ExpressionEPPNS0_7LiteralE
node:_ZN2v88internal16CompilationCache10LookupEvalENS0_6HandleINS0_6StringEEENS2_INS0_18SharedFunctionInfoEEENS2_INS0_7ContextEEENS0_12LanguageModeEi
node:_ZN2v88internal16CompilationCache12LookupRegExpENS0_6HandleINS0_6StringEEENS_4base5FlagsINS0_8JSRegExp4FlagEiEE
node:_ZN2v88internal16CompilationCache12LookupScriptENS0_6HandleINS0_6StringEEERKNS0_13ScriptDetailsENS0_12LanguageModeE
node:_ZN2v88internal16CompilationCache19EnableScriptAndEvalEv
node:_ZN2v88internal16CompilationCache19MarkCompactPrologueEv
node:_ZN2v88internal16CompilationCache20DisableScriptAndEvalEv
node:_ZN2v88internal16CompilationCache5ClearEv
node:_ZN2v88internal16CompilationCache6RemoveENS0_6HandleINS0_18SharedFunctionInfoEEE
node:_ZN2v88internal16CompilationCache7IterateEPNS0_11RootVisitorE
node:_ZN2v88internal16CompilationCache7PutEvalENS0_6HandleINS0_6StringEEENS2_INS0_18SharedFunctionInfoEEENS2_INS0_7ContextEEES6_NS2_INS0_12FeedbackCellEEEi
node:_ZN2v88internal16CompilationCache9PutRegExpENS0_6HandleINS0_6StringEEENS_4base5FlagsINS0_8JSRegExp4FlagEiEENS2_INS0_10FixedArrayEEE
node:_ZN2v88internal16CompilationCache9PutScriptENS0_6HandleINS0_6StringEEENS0_12LanguageModeENS2_INS0_18SharedFunctionInfoEEE
node:_ZN2v88internal16CompilationCacheC1EPNS0_7IsolateE
node:_ZN2v88internal16CompilationCacheC2EPNS0_7IsolateE
node:_ZN2v88internal16ConcurrentBitmapILNS0_10AccessModeE1EE17AllBitsSetInRangeEjj
node:_ZN2v88internal16ConcurrentBitmapILNS0_10AccessModeE1EE19AllBitsClearInRangeEjj
node:_ZN2v88internal16ConcurrentBitmapILNS0_10AccessModeE1EE5PrintEv
node:_ZN2v88internal16ConcurrentBitmapILNS0_10AccessModeE1EE7IsCleanEv
node:_ZN2v88internal16DeclarationScope11DeclareThisEPNS0_15AstValueFactoryE
node:_ZN2v88internal16DeclarationScope11SetDefaultsEv
node:_ZN2v88internal16DeclarationScope15RecordParameterEb
node:_ZN2v88internal16DeclarationScope16AnalyzePartiallyEPNS0_6ParserEPNS0_14AstNodeFactoryEb
node:_ZN2v88internal16DeclarationScope16CollectNonLocalsEPNS0_7IsolateENS0_6HandleINS0_9StringSetEEE
node:_ZN2v88internal16DeclarationScope16DeclareArgumentsEPNS0_15AstValueFactoryE
node:_ZN2v88internal16DeclarationScope16DeclareParameterEPKNS0_12AstRawStringENS0_12VariableModeEbbPNS0_15AstValueFactoryEi
node:_ZN2v88internal16DeclarationScope17AllocateVariablesEPNS0_9ParseInfoE
node:_ZN2v88internal16DeclarationScope17set_is_asm_moduleEv
node:_ZN2v88internal16DeclarationScope18DeclareFunctionVarEPKNS0_12AstRawStringEPNS0_5ScopeE
node:_ZN2v88internal16DeclarationScope19DeserializeReceiverEPNS0_15AstValueFactoryE
node:_ZN2v88internal16DeclarationScope20DeclareDynamicGlobalEPKNS0_12AstRawStringENS0_12VariableKindEPNS0_5ScopeE
node:_ZN2v88internal16DeclarationScope20ResetAfterPreparsingEPNS0_15AstValueFactoryEb
node:_ZN2v88internal16DeclarationScope24set_should_eager_compileEv
node:_ZN2v88internal16DeclarationScope25DeclareGeneratorObjectVarEPKNS0_12AstRawStringE
node:_ZN2v88internal16DeclarationScope25HoistSloppyBlockFunctionsEPNS0_14AstNodeFactoryE
node:_ZN2v88internal16DeclarationScope26DeclareSloppyBlockFunctionEPNS0_28SloppyBlockFunctionStatementE
node:_ZN2v88internal16DeclarationScope26RewriteReplGlobalVariablesEv
node:_ZN2v88internal16DeclarationScope29RecalcPrivateNameContextChainEv
node:_ZN2v88internal16DeclarationScope31CheckConflictingVarDeclarationsEPb
node:_ZN2v88internal16DeclarationScope31DeclareDefaultFunctionVariablesEPNS0_15AstValueFactoryE
node:_ZN2v88internal16DeclarationScope35SavePreparseDataForDeclarationScopeEPNS0_6ParserE
node:_ZN2v88internal16DeclarationScope40RecordNeedsPrivateNameContextChainRecalcEv
node:_ZN2v88internal16DeclarationScope7AnalyzeEPNS0_9ParseInfoE
node:_ZN2v88internal16DeclarationScope8AddLocalEPNS0_8VariableE
node:_ZN2v88internal16DeclarationScopeC1EPNS0_4ZoneENS0_9ScopeTypeEPNS0_15AstValueFactoryENS0_6HandleINS0_9ScopeInfoEEE
node:_ZN2v88internal16DeclarationScopeC1EPNS0_4ZoneEPNS0_15AstValueFactoryENS0_8REPLModeE
node:_ZN2v88internal16DeclarationScopeC1EPNS0_4ZoneEPNS0_5ScopeENS0_9ScopeTypeENS0_12FunctionKindE
node:_ZN2v88internal16DeclarationScopeC2EPNS0_4ZoneENS0_9ScopeTypeEPNS0_15AstValueFactoryENS0_6HandleINS0_9ScopeInfoEEE
node:_ZN2v88internal16DeclarationScopeC2EPNS0_4ZoneEPNS0_15AstValueFactoryENS0_8REPLModeE
node:_ZN2v88internal16DeclarationScopeC2EPNS0_4ZoneEPNS0_5ScopeENS0_9ScopeTypeENS0_12FunctionKindE
node:_ZN2v88internal16EhFrameConstants15kEhFrameHdrSizeE
node:_ZN2v88internal16EhFrameConstants18kEhFrameHdrVersionE
node:_ZN2v88internal16EhFrameConstants20kCodeAlignmentFactorE
node:_ZN2v88internal16EhFrameConstants20kDataAlignmentFactorE
node:_ZN2v88internal16EhFrameConstants22kEhFrameTerminatorSizeE
node:_ZN2v88internal16ElementsAccessor19elements_accessors_E
node:_ZN2v88internal16ElementsAccessor24InitializeOncePerProcessEv
node:_ZN2v88internal16ElementsAccessor6ConcatEPNS0_7IsolateEPNS0_16BuiltinArgumentsEjj
node:_ZN2v88internal16ElementsAccessor8TearDownEv
node:_ZN2v88internal16FeedbackIterator18AdvancePolymorphicEv
node:_ZN2v88internal16FeedbackIterator7AdvanceEv
node:_ZN2v88internal16FeedbackIteratorC1EPKNS0_13FeedbackNexusE
node:_ZN2v88internal16FeedbackIteratorC2EPKNS0_13FeedbackNexusE
node:_ZN2v88internal16FeedbackMetadata11Kind2StringENS0_16FeedbackSlotKindE
node:_ZN2v88internal16FeedbackMetadata21FeedbackMetadataPrintERSo
node:_ZN2v88internal16FeedbackMetadata7SetKindENS0_12FeedbackSlotENS0_16FeedbackSlotKindE
node:_ZN2v88internal16FixedDoubleArray21FixedDoubleArrayPrintERSo
node:_ZN2v88internal16FlatStringReader21PostGarbageCollectionEv
node:_ZN2v88internal16FlatStringReaderC1EPNS0_7IsolateENS0_6HandleINS0_6StringEEE
node:_ZN2v88internal16FlatStringReaderC2EPNS0_7IsolateENS0_6HandleINS0_6StringEEE
node:_ZN2v88internal16FormatBytesToHexEPcmPKhm
node:_ZN2v88internal16FrameDescription11SetCallerFpEjl
node:_ZN2v88internal16FrameDescription11SetCallerPcEjl
node:_ZN2v88internal16FrameDescription21SetCallerConstantPoolEjl
node:_ZN2v88internal16FrameDescription5SetPcEl
node:_ZN2v88internal16FreeListCategory11SumFreeListEv
node:_ZN2v88internal16FreeListCategory14FreeListLengthEv
node:_ZN2v88internal16FreeListCategory14RepairFreeListEPNS0_4HeapE
node:_ZN2v88internal16FreeListCategory16PickNodeFromListEmPm
node:_ZN2v88internal16FreeListCategory19SearchForNodeInListEmPm
node:_ZN2v88internal16FreeListCategory4FreeEmmNS0_8FreeModeEPNS0_8FreeListE
node:_ZN2v88internal16FreeListCategory5ResetEPNS0_8FreeListE
node:_ZN2v88internal16FreeListCategory6RelinkEPNS0_8FreeListE
node:_ZN2v88internal16FuncNameInferrer15PushLiteralNameEPKNS0_12AstRawStringE
node:_ZN2v88internal16FuncNameInferrer16PushVariableNameEPKNS0_12AstRawStringE
node:_ZN2v88internal16FuncNameInferrer17MakeNameFromStackEv
node:_ZN2v88internal16FuncNameInferrer17PushEnclosingNameEPKNS0_12AstRawStringE
node:_ZN2v88internal16FuncNameInferrer19InferFunctionsNamesEv
node:_ZN2v88internal16FuncNameInferrer25RemoveAsyncKeywordFromEndEv
node:_ZN2v88internal16FuncNameInferrerC1EPNS0_15AstValueFactoryE
node:_ZN2v88internal16FuncNameInferrerC2EPNS0_15AstValueFactoryE
node:_ZN2v88internal16GCCallbacksScopeC1EPNS0_4HeapE
node:_ZN2v88internal16GCCallbacksScopeC2EPNS0_4HeapE
node:_ZN2v88internal16GCCallbacksScopeD1Ev
node:_ZN2v88internal16GCCallbacksScopeD2Ev
node:_ZN2v88internal16GetBailoutReasonENS0_13BailoutReasonE
node:_ZN2v88internal16GetOptionsObjectEPNS0_7IsolateENS0_6HandleINS0_6ObjectEEEPKc
node:_ZN2v88internal16GlobalDictionary21GlobalDictionaryPrintERSo
node:_ZN2v88internal16GlobalDictionary46TryFindPropertyCellForConcurrentLookupIteratorEPNS0_7IsolateENS0_6HandleINS0_4NameEEENS_14RelaxedLoadTagE
node:_ZN2v88internal16HeapLayoutTracer15PrintHeapLayoutERSoPNS0_4HeapE
node:_ZN2v88internal16HeapLayoutTracer21PrintBasicMemoryChunkERSoRKNS0_16BasicMemoryChunkEPKc
node:_ZN2v88internal16HeapLayoutTracer25GCEpiloguePrintHeapLayoutEPNS_7IsolateENS_6GCTypeENS_15GCCallbackFlagsEPv
node:_ZN2v88internal16HeapLayoutTracer25GCProloguePrintHeapLayoutEPNS_7IsolateENS_6GCTypeENS_15GCCallbackFlagsEPv
node:_ZN2v88internal16ICUTimezoneCache10GetOffsetsEdbPiS2_
node:_ZN2v88internal16ICUTimezoneCache11GetTimeZoneEv
node:_ZN2v88internal16ICUTimezoneCache13LocalTimezoneEd
node:_ZN2v88internal16ICUTimezoneCache15LocalTimeOffsetEdb
node:_ZN2v88internal16ICUTimezoneCache21DaylightSavingsOffsetEd
node:_ZN2v88internal16ICUTimezoneCache5ClearENS_4base13TimezoneCache17TimeZoneDetectionE
node:_ZN2v88internal16InterpretedFrame17GetBytecodeOffsetEm
node:_ZN2v88internal16InterpretedFrame18PatchBytecodeArrayENS0_13BytecodeArrayE
node:_ZN2v88internal16InterpretedFrame19PatchBytecodeOffsetEi
node:_ZN2v88internal16IsCell_NonInlineENS0_10HeapObjectE
node:_ZN2v88internal16IsName_NonInlineENS0_10HeapObjectE
node:_ZN2v88internal16IsWhiteSpaceSlowEj
node:_ZN2v88internal16IsolateAllocator15GetPtrComprCageEv
node:_ZN2v88internal16IsolateAllocator24InitializeOncePerProcessEv
node:_ZN2v88internal16IsolateAllocatorC1Ev
node:_ZN2v88internal16IsolateAllocatorC2Ev
node:_ZN2v88internal16IsolateAllocatorD1Ev
node:_ZN2v88internal16IsolateAllocatorD2Ev
node:_ZN2v88internal16IsolateSafepoint10NotifyParkEv
node:_ZN2v88internal16IsolateSafepoint12WaitInUnparkEv
node:_ZN2v88internal16IsolateSafepoint15WaitInSafepointEv
node:_ZN2v88internal16IsolateSafepoint23ShouldIncludeMainThreadEPNS0_7IsolateE
node:_ZN2v88internal16IsolateSafepoint24EnterLocalSafepointScopeEv
node:_ZN2v88internal16IsolateSafepoint24LeaveLocalSafepointScopeEv
node:_ZN2v88internal16IsolateSafepoint25LeaveGlobalSafepointScopeEPNS0_7IsolateE
node:_ZN2v88internal16IsolateSafepoint26SetSafepointRequestedFlagsENS1_17IncludeMainThreadE
node:_ZN2v88internal16IsolateSafepoint28AssertMainThreadIsOnlyThreadEv
node:_ZN2v88internal16IsolateSafepoint28ClearSafepointRequestedFlagsENS1_17IncludeMainThreadE
node:_ZN2v88internal16IsolateSafepoint28InitiateGlobalSafepointScopeEPNS0_7IsolateEPNS0_22PerClientSafepointDataE
node:_ZN2v88internal16IsolateSafepoint31InitiateGlobalSafepointScopeRawEPNS0_7IsolateEPNS0_22PerClientSafepointDataE
node:_ZN2v88internal16IsolateSafepoint31TryInitiateGlobalSafepointScopeEPNS0_7IsolateEPNS0_22PerClientSafepointDataE
node:_ZN2v88internal16IsolateSafepoint34WaitUntilRunningThreadsInSafepointEPKNS0_22PerClientSafepointDataE
node:_ZN2v88internal16IsolateSafepoint7Barrier10NotifyParkEv
node:_ZN2v88internal16IsolateSafepoint7Barrier12WaitInUnparkEv
node:_ZN2v88internal16IsolateSafepoint7Barrier15WaitInSafepointEv
node:_ZN2v88internal16IsolateSafepoint7Barrier34WaitUntilRunningThreadsInSafepointEm
node:_ZN2v88internal16IsolateSafepoint7Barrier3ArmEv
node:_ZN2v88internal16IsolateSafepoint7Barrier6DisarmEv
node:_ZN2v88internal16IsolateSafepoint7IterateEPNS0_11RootVisitorE
node:_ZN2v88internal16IsolateSafepoint9LockMutexEPNS0_9LocalHeapE
node:_ZN2v88internal16IsolateSafepointC1EPNS0_4HeapE
node:_ZN2v88internal16IsolateSafepointC2EPNS0_4HeapE
node:_ZN2v88internal16JSDateTimeFormat10TimeZoneIdEPNS0_7IsolateERKN6icu_738TimeZoneE
node:_ZN2v88internal16JSDateTimeFormat11FormatRangeEPNS0_7IsolateENS0_6HandleIS1_EENS4_INS0_6ObjectEEES7_PKc
node:_ZN2v88internal16JSDateTimeFormat13FormatToPartsEPNS0_7IsolateENS0_6HandleIS1_EENS4_INS0_6ObjectEEEbPKc
node:_ZN2v88internal16JSDateTimeFormat14CreateTimeZoneEPKc
node:_ZN2v88internal16JSDateTimeFormat14DateTimeFormatEPNS0_7IsolateENS0_6HandleIS1_EENS4_INS0_6ObjectEEEPKc
node:_ZN2v88internal16JSDateTimeFormat15ResolvedOptionsEPNS0_7IsolateENS0_6HandleIS1_EE
node:_ZN2v88internal16JSDateTimeFormat16ToLocaleDateTimeEPNS0_7IsolateENS0_6HandleINS0_6ObjectEEES6_S6_NS1_14RequiredOptionENS1_14DefaultsOptionEPKc
node:_ZN2v88internal16JSDateTimeFormat17ToDateTimeOptionsEPNS0_7IsolateENS0_6HandleINS0_6ObjectEEENS1_14RequiredOptionENS1_14DefaultsOptionE
node:_ZN2v88internal16JSDateTimeFormat18FormatRangeToPartsEPNS0_7IsolateENS0_6HandleIS1_EENS4_INS0_6ObjectEEES7_PKc
node:_ZN2v88internal16JSDateTimeFormat18TimeZoneIdToStringEPNS0_7IsolateERKN6icu_7313UnicodeStringE
node:_ZN2v88internal16JSDateTimeFormat19GetAvailableLocalesB5cxx11Ev
node:_ZN2v88internal16JSDateTimeFormat20UnwrapDateTimeFormatEPNS0_7IsolateENS0_6HandleINS0_10JSReceiverEEE
node:_ZN2v88internal16JSDateTimeFormat21JSDateTimeFormatPrintERSo
node:_ZN2v88internal16JSDateTimeFormat22CanonicalizeTimeZoneIDERKNSt7__cxx1112basic_stringIcSt11char_traitsIcESaIcEEE
node:_ZN2v88internal16JSDateTimeFormat22TemporalToLocaleStringEPNS0_7IsolateENS0_6HandleINS0_10JSReceiverEEENS4_INS0_6ObjectEEES8_PKc
node:_ZN2v88internal16JSDateTimeFormat3NewEPNS0_7IsolateENS0_6HandleINS0_3MapEEENS4_INS0_6ObjectEEES8_PKc
node:_ZN2v88internal16JSDateTimeFormat8CalendarEPNS0_7IsolateENS0_6HandleIS1_EE
node:_ZN2v88internal16JSDateTimeFormat8TimeZoneEPNS0_7IsolateENS0_6HandleIS1_EE
node:_ZN2v88internal16JSDurationFormat13FormatToPartsEPNS0_7IsolateENS0_6HandleIS1_EENS4_INS0_6ObjectEEE
node:_ZN2v88internal16JSDurationFormat15ResolvedOptionsEPNS0_7IsolateENS0_6HandleIS1_EE
node:_ZN2v88internal16JSDurationFormat19GetAvailableLocalesB5cxx11Ev
node:_ZN2v88internal16JSDurationFormat21JSDurationFormatPrintERSo
node:_ZN2v88internal16JSDurationFormat3NewEPNS0_7IsolateENS0_6HandleINS0_3MapEEENS4_INS0_6ObjectEEES8_
node:_ZN2v88internal16JSDurationFormat6FormatEPNS0_7IsolateENS0_6HandleIS1_EENS4_INS0_6ObjectEEE
node:_ZN2v88internal16JSExternalObject21JSExternalObjectPrintERSo
node:_ZN2v88internal16JSIteratorHelper27JSIteratorHelperPrintHeaderERSoPKc
node:_ZN2v88internal16JSStringIterator21JSStringIteratorPrintERSo
node:_ZN2v88internal16JSWeakCollection10GetEntriesENS0_6HandleIS1_EEi
node:_ZN2v88internal16JSWeakCollection10InitializeENS0_6HandleIS1_EEPNS0_7IsolateE
node:_ZN2v88internal16JSWeakCollection3SetENS0_6HandleIS1_EENS2_INS0_6ObjectEEES5_i
node:_ZN2v88internal16JSWeakCollection6DeleteENS0_6HandleIS1_EENS2_INS0_6ObjectEEEi
node:_ZN2v88internal16LargeObjectSpace10RemovePageEPNS0_9LargePageE
node:_ZN2v88internal16LargeObjectSpace17AllocateLargePageEiNS0_13ExecutabilityE
node:_ZN2v88internal16LargeObjectSpace17GetObjectIteratorEPNS0_4HeapE
node:_ZN2v88internal16LargeObjectSpace19UpdatePendingObjectENS0_10HeapObjectE
node:_ZN2v88internal16LargeObjectSpace22ShrinkPageToObjectSizeEPNS0_9LargePageENS0_10HeapObjectEm
node:_ZN2v88internal16LargeObjectSpace35AdvanceAndInvokeAllocationObserversEmm
node:_ZN2v88internal16LargeObjectSpace7AddPageEPNS0_9LargePageEm
node:_ZN2v88internal16LargeObjectSpace8TearDownEv
node:_ZN2v88internal16LargeObjectSpaceC1EPNS0_4HeapENS0_15AllocationSpaceE
node:_ZN2v88internal16LargeObjectSpaceC2EPNS0_4HeapENS0_15AllocationSpaceE
node:_ZN2v88internal16LocalHandleScope19GetMainThreadHandleEPNS0_9LocalHeapEm
node:_ZN2v88internal16LocalHandleScope19OpenMainThreadScopeEPNS0_9LocalHeapE
node:_ZN2v88internal16LocalHandleScope20CloseMainThreadScopeEPNS0_9LocalHeapEPmS4_
node:_ZN2v88internal16MarkingWorklists13PrintWorklistEPKcPN4heap4base8WorklistINS0_10HeapObjectELt64EEE
node:_ZN2v88internal16MarkingWorklists22CreateContextWorklistsERKSt6vectorImSaImEE
node:_ZN2v88internal16MarkingWorklists23ReleaseContextWorklistsEv
node:_ZN2v88internal16MarkingWorklists5ClearEv
node:_ZN2v88internal16MarkingWorklists5Local10PopContextEPNS0_10HeapObjectE
node:_ZN2v88internal16MarkingWorklists5Local11MergeOnHoldEv
node:_ZN2v88internal16MarkingWorklists5Local19SwitchToContextSlowEm
node:_ZN2v88internal16MarkingWorklists5Local24SwitchToSharedForTestingEv
node:_ZN2v88internal16MarkingWorklists5Local7IsEmptyEv
node:_ZN2v88internal16MarkingWorklists5Local7PublishEv
node:_ZN2v88internal16MarkingWorklists5Local9ShareWorkEv
node:_ZN2v88internal16MarkingWorklists5LocalC1EPS1_St10unique_ptrINS0_15CppMarkingStateESt14default_deleteIS5_EE
node:_ZN2v88internal16MarkingWorklists5LocalC2EPS1_St10unique_ptrINS0_15CppMarkingStateESt14default_deleteIS5_EE
node:_ZN2v88internal16MarkingWorklists5PrintEv
node:_ZN2v88internal16MessageFormatter14TemplateStringENS0_15MessageTemplateE
node:_ZN2v88internal16MessageFormatter6FormatEPNS0_7IsolateENS0_15MessageTemplateENS0_6HandleINS0_6ObjectEEES7_S7_
node:_ZN2v88internal16MessageFormatter9TryFormatEPNS0_7IsolateENS0_15MessageTemplateENS0_6HandleINS0_6StringEEES7_S7_
node:_ZN2v88internal16NumberDictionary12CopyValuesToENS0_10FixedArrayE
node:_ZN2v88internal16NumberDictionary12UncheckedSetEPNS0_7IsolateENS0_6HandleIS1_EEjNS4_INS0_6ObjectEEE
node:_ZN2v88internal16NumberDictionary18UpdateMaxNumberKeyEjNS0_6HandleINS0_8JSObjectEEE
node:_ZN2v88internal16NumberDictionary21NumberDictionaryPrintERSo
node:_ZN2v88internal16NumberDictionary3SetEPNS0_7IsolateENS0_6HandleIS1_EEjNS4_INS0_6ObjectEEENS4_INS0_8JSObjectEEENS0_15PropertyDetailsE
node:_ZN2v88internal16ProfilerListener13CallbackEventENS0_6HandleINS0_4NameEEEm
node:_ZN2v88internal16ProfilerListener13CodeMoveEventENS0_17InstructionStreamES2_
node:_ZN2v88internal16ProfilerListener14CodeDeoptEventENS0_6HandleINS0_4CodeEEENS0_14DeoptimizeKindEmi
node:_ZN2v88internal16ProfilerListener14CodeSweepEventEv
node:_ZN2v88internal16ProfilerListener15CodeCreateEventENS0_16LogEventListener7CodeTagENS0_6HandleINS0_12AbstractCodeEEENS4_INS0_18SharedFunctionInfoEEENS4_INS0_4NameEEE
node:_ZN2v88internal16ProfilerListener15CodeCreateEventENS0_16LogEventListener7CodeTagENS0_6HandleINS0_12AbstractCodeEEENS4_INS0_18SharedFunctionInfoEEENS4_INS0_4NameEEEii
node:_ZN2v88internal16ProfilerListener15CodeCreateEventENS0_16LogEventListener7CodeTagENS0_6HandleINS0_12AbstractCodeEEENS4_INS0_4NameEEE
node:_ZN2v88internal16ProfilerListener15CodeCreateEventENS0_16LogEventListener7CodeTagENS0_6HandleINS0_12AbstractCodeEEEPKc
node:_ZN2v88internal16ProfilerListener15CodeCreateEventENS0_16LogEventListener7CodeTagEPKNS0_4wasm8WasmCodeENS_4base6VectorIKcEEPSA_ii
node:_ZN2v88internal16ProfilerListener15GetFunctionNameENS0_18SharedFunctionInfoE
node:_ZN2v88internal16ProfilerListener15InferScriptNameENS0_4NameENS0_18SharedFunctionInfoE
node:_ZN2v88internal16ProfilerListener17BytecodeMoveEventENS0_13BytecodeArrayES2_
node:_ZN2v88internal16ProfilerListener18WeakCodeClearEventEv
node:_ZN2v88internal16ProfilerListener19CodeDisableOptEventENS0_6HandleINS0_12AbstractCodeEEENS2_INS0_18SharedFunctionInfoEEE
node:_ZN2v88internal16ProfilerListener19GetterCallbackEventENS0_6HandleINS0_4NameEEEm
node:_ZN2v88internal16ProfilerListener19SetterCallbackEventENS0_6HandleINS0_4NameEEEm
node:_ZN2v88internal16ProfilerListener20OnHeapObjectDeletionEPNS0_9CodeEntryE
node:_ZN2v88internal16ProfilerListener21RegExpCodeCreateEventENS0_6HandleINS0_12AbstractCodeEEENS2_INS0_6StringEEE
node:_ZN2v88internal16ProfilerListener22NativeContextMoveEventEmm
node:_ZN2v88internal16ProfilerListener24AttachDeoptInlinedFramesENS0_6HandleINS0_4CodeEEEPNS0_20CodeDeoptEventRecordE
node:_ZN2v88internal16ProfilerListener7GetNameENS_4base6VectorIKcEE
node:_ZN2v88internal16ProfilerListenerC1EPNS0_7IsolateEPNS0_17CodeEventObserverERNS0_16CodeEntryStorageERNS0_16WeakCodeRegistryENS_22CpuProfilingNamingModeE
node:_ZN2v88internal16ProfilerListenerC2EPNS0_7IsolateEPNS0_17CodeEventObserverERNS0_16CodeEntryStorageERNS0_16WeakCodeRegistryENS_22CpuProfilingNamingModeE
node:_ZN2v88internal16ProfilerListenerD0Ev
node:_ZN2v88internal16ProfilerListenerD1Ev
node:_ZN2v88internal16ProfilerListenerD2Ev
node:_ZN2v88internal16RegExpLookaround12AsLookaroundEv
node:_ZN2v88internal16RegExpLookaround12IsLookaroundEv
node:_ZN2v88internal16RegExpLookaround16CaptureRegistersEv
node:_ZN2v88internal16RegExpLookaround17IsAnchoredAtStartEv
node:_ZN2v88internal16RegExpLookaround6AcceptEPNS0_13RegExpVisitorEPv
node:_ZN2v88internal16RegExpLookaround6ToNodeEPNS0_14RegExpCompilerEPNS0_10RegExpNodeE
node:_ZN2v88internal16RegExpLookaround7Builder8ForMatchEPNS0_10RegExpNodeE
node:_ZN2v88internal16RegExpLookaround7BuilderC1EbPNS0_10RegExpNodeEiiii
node:_ZN2v88internal16RegExpLookaround7BuilderC2EbPNS0_10RegExpNodeEiiii
node:_ZN2v88internal16RegExpQuantifier12AsQuantifierEv
node:_ZN2v88internal16RegExpQuantifier12IsQuantifierEv
node:_ZN2v88internal16RegExpQuantifier16CaptureRegistersEv
node:_ZN2v88internal16RegExpQuantifier6AcceptEPNS0_13RegExpVisitorEPv
node:_ZN2v88internal16RegExpQuantifier6ToNodeEPNS0_14RegExpCompilerEPNS0_10RegExpNodeE
node:_ZN2v88internal16RegExpQuantifier6ToNodeEiibPNS0_10RegExpTreeEPNS0_14RegExpCompilerEPNS0_10RegExpNodeEb
node:_ZN2v88internal16RegExpStackScopeC1EPNS0_7IsolateE
node:_ZN2v88internal16RegExpStackScopeC2EPNS0_7IsolateE
node:_ZN2v88internal16RegExpStackScopeD1Ev
node:_ZN2v88internal16RegExpStackScopeD2Ev
node:_ZN2v88internal16ReturnValueScopeC1EPNS0_5DebugE
node:_ZN2v88internal16ReturnValueScopeC2EPNS0_5DebugE
node:_ZN2v88internal16ReturnValueScopeD1Ev
node:_ZN2v88internal16ReturnValueScopeD2Ev
node:_ZN2v88internal16Runtime_IsRegExpEiPmPNS0_7IsolateE
node:_ZN2v88internal16Runtime_LessThanEiPmPNS0_7IsolateE
node:_ZN2v88internal16Runtime_NewArrayEiPmPNS0_7IsolateE
node:_ZN2v88internal16Runtime_NewErrorEiPmPNS0_7IsolateE
node:_ZN2v88internal16Runtime_NotEqualEiPmPNS0_7IsolateE
node:_ZN2v88internal16Runtime_SharedGCEiPmPNS0_7IsolateE
node:_ZN2v88internal16Runtime_ToBigIntEiPmPNS0_7IsolateE
node:_ZN2v88internal16Runtime_ToLengthEiPmPNS0_7IsolateE
node:_ZN2v88internal16Runtime_ToNumberEiPmPNS0_7IsolateE
node:_ZN2v88internal16Runtime_ToObjectEiPmPNS0_7IsolateE
node:_ZN2v88internal16Runtime_ToStringEiPmPNS0_7IsolateE
node:_ZN2v88internal16SetupConstructorEPNS0_7IsolateENS0_6HandleINS0_10JSFunctionEEENS0_12InstanceTypeEiPKc
node:_ZN2v88internal16SnapshotByteSink4PutNEihPKc
node:_ZN2v88internal16SnapshotByteSink6AppendERKS1_
node:_ZN2v88internal16SnapshotByteSink6PutIntEmPKc
node:_ZN2v88internal16SnapshotByteSink6PutRawEPKhiPKc
node:_ZN2v88internal16SoleReadOnlyHeap14OnHeapTearDownEPNS0_4HeapE
node:_ZN2v88internal16SoleReadOnlyHeap15shared_ro_heap_E
node:_ZN2v88internal16SoleReadOnlyHeap22InitializeIsolateRootsEPNS0_7IsolateE
node:_ZN2v88internal16SoleReadOnlyHeap26InitializeFromIsolateRootsEPNS0_7IsolateE
node:_ZN2v88internal16SourceTextModule11ExportIndexEi
node:_ZN2v88internal16SourceTextModule11ImportIndexEi
node:_ZN2v88internal16SourceTextModule12CreateExportEPNS0_7IsolateENS0_6HandleIS1_EEiNS4_INS0_10FixedArrayEEE
node:_ZN2v88internal16SourceTextModule12LoadVariableEPNS0_7IsolateENS0_6HandleIS1_EEi
node:_ZN2v88internal16SourceTextModule13ExecuteModuleEPNS0_7IsolateENS0_6HandleIS1_EE
node:_ZN2v88internal16SourceTextModule13GetImportMetaEPNS0_7IsolateENS0_6HandleIS1_EE
node:_ZN2v88internal16SourceTextModule13ResolveExportEPNS0_7IsolateENS0_6HandleIS1_EENS4_INS0_6StringEEES7_NS0_15MessageLocationEbPNS0_6Module10ResolveSetE
node:_ZN2v88internal16SourceTextModule13ResolveImportEPNS0_7IsolateENS0_6HandleIS1_EENS4_INS0_6StringEEEiNS0_15MessageLocationEbPNS0_6Module10ResolveSetE
node:_ZN2v88internal16SourceTextModule13StoreVariableENS0_6HandleIS1_EEiNS2_INS0_6ObjectEEE
node:_ZN2v88internal16SourceTextModule16FetchStarExportsEPNS0_7IsolateENS0_6HandleIS1_EEPNS0_4ZoneEPNS0_18UnorderedModuleSetE
node:_ZN2v88internal16SourceTextModule17FinishInstantiateEPNS0_7IsolateENS0_6HandleIS1_EEPNS0_15ZoneForwardListIS5_EEPjPNS0_4ZoneE
node:_ZN2v88internal16SourceTextModule18ExecuteAsyncModuleEPNS0_7IsolateENS0_6HandleIS1_EE
node:_ZN2v88internal16SourceTextModule18GetModuleNamespaceEPNS0_7IsolateENS0_6HandleIS1_EEi
node:_ZN2v88internal16SourceTextModule18PrepareInstantiateEPNS0_7IsolateENS0_6HandleIS1_EENS_5LocalINS_7ContextEEEPFNS_10MaybeLocalINS_6ModuleEEES8_NS6_INS_6StringEEENS6_INS_10FixedArrayEEENS6_ISA_EEEPFSB_S8_SD_SG_E
node:_ZN2v88internal16SourceTextModule20CreateIndirectExportEPNS0_7IsolateENS0_6HandleIS1_EENS4_INS0_6StringEEENS4_INS0_25SourceTextModuleInfoEntryEEE
node:_ZN2v88internal16SourceTextModule21InnerModuleEvaluationEPNS0_7IsolateENS0_6HandleIS1_EEPNS0_15ZoneForwardListIS5_EEPj
node:_ZN2v88internal16SourceTextModule21RunInitializationCodeEPNS0_7IsolateENS0_6HandleIS1_EE
node:_ZN2v88internal16SourceTextModule21SourceTextModulePrintERSo
node:_ZN2v88internal16SourceTextModule23InnerExecuteAsyncModuleEPNS0_7IsolateENS0_6HandleIS1_EENS4_INS0_9JSPromiseEEE
node:_ZN2v88internal16SourceTextModule24MaybeTransitionComponentEPNS0_7IsolateENS0_6HandleIS1_EEPNS0_15ZoneForwardListIS5_EENS0_6Module6StatusE
node:_ZN2v88internal16SourceTextModule28AsyncModuleExecutionRejectedEPNS0_7IsolateENS0_6HandleIS1_EENS4_INS0_6ObjectEEE
node:_ZN2v88internal16SourceTextModule28GatherAsyncParentCompletionsEPNS0_7IsolateEPNS0_4ZoneENS0_6HandleIS1_EEPNS0_7ZoneSetIS7_NS1_29AsyncEvaluatingOrdinalCompareEEE
node:_ZN2v88internal16SourceTextModule29AsyncModuleExecutionFulfilledEPNS0_7IsolateENS0_6HandleIS1_EE
node:_ZN2v88internal16SourceTextModule29ResolveExportUsingStarExportsEPNS0_7IsolateENS0_6HandleIS1_EENS4_INS0_6StringEEES7_NS0_15MessageLocationEbPNS0_6Module10ResolveSetE
node:_ZN2v88internal16SourceTextModule30GetStalledTopLevelAwaitMessageEPNS0_7IsolateE
node:_ZN2v88internal16SourceTextModule30MaybeHandleEvaluationExceptionEPNS0_7IsolateEPNS0_15ZoneForwardListINS0_6HandleIS1_EEEE
node:_ZN2v88internal16SourceTextModule34InnerGetStalledTopLevelAwaitModuleEPNS0_7IsolateEPNS0_18UnorderedModuleSetEPSt6vectorINS0_6HandleIS1_EESaIS8_EE
node:_ZN2v88internal16SourceTextModule5ResetEPNS0_7IsolateENS0_6HandleIS1_EE
node:_ZN2v88internal16SourceTextModule7GetCellEi
node:_ZN2v88internal16SourceTextModule8EvaluateEPNS0_7IsolateENS0_6HandleIS1_EE
node:_ZN2v88internal16StackSwitchFrame21GetStateForJumpBufferEPNS0_4wasm10JumpBufferEPNS0_10StackFrame5StateE
node:_ZN2v88internal16StringComparator5State4InitENS0_6StringERKNS0_31SharedStringAccessGuardIfNeededE
node:_ZN2v88internal16StringComparator5State7AdvanceEiRKNS0_31SharedStringAccessGuardIfNeededE
node:_ZN2v88internal16StringComparator6EqualsENS0_6StringES2_RKNS0_31SharedStringAccessGuardIfNeededE
node:_ZN2v88internal16UnoptimizedFrame29LookupExceptionHandlerInTableEPiPNS0_12HandlerTable15CatchPredictionE
node:_ZN2v88internal16WasmCapiFunction18IsWasmCapiFunctionENS0_6ObjectE
node:_ZN2v88internal16WasmCapiFunction3NewEPNS0_7IsolateEmNS0_6HandleINS0_7ForeignEEENS4_INS0_8PodArrayINS0_4wasm9ValueTypeEEEEE
node:_ZN2v88internal16WasmExceptionTag3NewEPNS0_7IsolateEi
node:_ZN2v88internal16WasmFunctionData21WasmFunctionDataPrintERSo
node:_ZN2v88internal16WasmGlobalObject21WasmGlobalObjectPrintERSo
node:_ZN2v88internal16WasmGlobalObject3NewEPNS0_7IsolateENS0_6HandleINS0_18WasmInstanceObjectEEENS0_11MaybeHandleINS0_13JSArrayBufferEEENS7_INS0_10FixedArrayEEENS0_4wasm9ValueTypeEib
node:_ZN2v88internal16WasmMemoryObject11AddInstanceEPNS0_7IsolateENS0_6HandleIS1_EENS4_INS0_18WasmInstanceObjectEEE
node:_ZN2v88internal16WasmMemoryObject16update_instancesEPNS0_7IsolateENS0_6HandleINS0_13JSArrayBufferEEE
node:_ZN2v88internal16WasmMemoryObject3NewEPNS0_7IsolateENS0_6HandleINS0_13JSArrayBufferEEEiNS0_14WasmMemoryFlagE
node:_ZN2v88internal16WasmMemoryObject3NewEPNS0_7IsolateEiiNS0_10SharedFlagENS0_14WasmMemoryFlagE
node:_ZN2v88internal16WasmMemoryObject4GrowEPNS0_7IsolateENS0_6HandleIS1_EEj
node:_ZN2v88internal16WasmModuleObject18GetRawFunctionNameEi
node:_ZN2v88internal16WasmModuleObject19GetModuleNameOrNullEPNS0_7IsolateENS0_6HandleIS1_EE
node:_ZN2v88internal16WasmModuleObject21GetFunctionNameOrNullEPNS0_7IsolateENS0_6HandleIS1_EEj
node:_ZN2v88internal16WasmModuleObject21WasmModuleObjectPrintERSo
node:_ZN2v88internal16WasmModuleObject32ExtractUtf8StringFromModuleBytesEPNS0_7IsolateENS0_6HandleIS1_EENS0_4wasm12WireBytesRefENS0_17InternalizeStringE
node:_ZN2v88internal16WasmModuleObject32ExtractUtf8StringFromModuleBytesEPNS0_7IsolateENS_4base6VectorIKhEENS0_4wasm12WireBytesRefENS0_17InternalizeStringE
node:_ZN2v88internal16WasmModuleObject3NewEPNS0_7IsolateESt10shared_ptrINS0_4wasm12NativeModuleEENS0_6HandleINS0_6ScriptEEE
node:_ZN2v88internal16WeakCodeRegistry5ClearEv
node:_ZN2v88internal16WeakCodeRegistry5SweepEPNS1_8ListenerE
node:_ZN2v88internal16WeakCodeRegistry5TrackEPNS0_9CodeEntryENS0_6HandleINS0_12AbstractCodeEEE
node:_ZN2v88internal16ZonePreparseData9SerializeEPNS0_12LocalIsolateE
node:_ZN2v88internal16ZonePreparseData9SerializeEPNS0_7IsolateE
node:_ZN2v88internal16ZonePreparseDataC1EPNS0_4ZoneEPNS_4base6VectorIhEEi
node:_ZN2v88internal16ZonePreparseDataC2EPNS0_4ZoneEPNS_4base6VectorIhEEi
node:_ZN2v88internal16third_party_heap4Heap10GetIsolateEm
node:_ZN2v88internal16third_party_heap4Heap10InOldSpaceEm
node:_ZN2v88internal16third_party_heap4Heap10NextObjectEv
node:_ZN2v88internal16third_party_heap4Heap11IsImmovableENS0_10HeapObjectE
node:_ZN2v88internal16third_party_heap4Heap12GetCodeRangeEv
node:_ZN2v88internal16third_party_heap4Heap13ResetIteratorEv
node:_ZN2v88internal16third_party_heap4Heap14CollectGarbageEv
node:_ZN2v88internal16third_party_heap4Heap15InReadOnlySpaceEm
node:_ZN2v88internal16third_party_heap4Heap17IsValidCodeObjectENS0_10HeapObjectE
node:_ZN2v88internal16third_party_heap4Heap17IsValidHeapObjectENS0_10HeapObjectE
node:_ZN2v88internal16third_party_heap4Heap18InLargeObjectSpaceEm
node:_ZN2v88internal16third_party_heap4Heap19IsPendingAllocationENS0_10HeapObjectE
node:_ZN2v88internal16third_party_heap4Heap25GetObjectFromInnerPointerEm
node:_ZN2v88internal16third_party_heap4Heap3NewEPNS0_7IsolateE
node:_ZN2v88internal16third_party_heap4Heap7InSpaceEmNS0_15AllocationSpaceE
node:_ZN2v88internal16third_party_heap4Heap8AllocateEmNS0_14AllocationTypeENS0_19AllocationAlignmentE
node:_ZN2v88internal16third_party_heap4Heap8CapacityEv
node:_ZN2v88internal17AddressToTraceMap10MoveObjectEmmi
node:_ZN2v88internal17AddressToTraceMap11RemoveRangeEmm
node:_ZN2v88internal17AddressToTraceMap14GetTraceNodeIdEm
node:_ZN2v88internal17AddressToTraceMap5ClearEv
node:_ZN2v88internal17AddressToTraceMap5PrintEv
node:_ZN2v88internal17AddressToTraceMap8AddRangeEmij
node:_ZN2v88internal17AlignedCachedDataC1EPKhi
node:_ZN2v88internal17AlignedCachedDataC2EPKhi
node:_ZN2v88internal17AllocationCounter21AddAllocationObserverEPNS0_18AllocationObserverE
node:_ZN2v88internal17AllocationCounter24RemoveAllocationObserverEPNS0_18AllocationObserverE
node:_ZN2v88internal17AllocationCounter25InvokeAllocationObserversEmmm
node:_ZN2v88internal17AllocationCounter26AdvanceAllocationObserversEm
node:_ZN2v88internal17AllocationMemento22AllocationMementoPrintERSo
node:_ZN2v88internal17AllocationTracker12FunctionInfoC1Ev
node:_ZN2v88internal17AllocationTracker12FunctionInfoC2Ev
node:_ZN2v88internal17AllocationTracker15AddFunctionInfoENS0_18SharedFunctionInfoEj
node:_ZN2v88internal17AllocationTracker15AllocationEventEmi
node:_ZN2v88internal17AllocationTracker18UnresolvedLocation16HandleWeakScriptERKNS_16WeakCallbackInfoIvEE
node:_ZN2v88internal17AllocationTracker18UnresolvedLocation7ResolveEv
node:_ZN2v88internal17AllocationTracker18UnresolvedLocationC1ENS0_6ScriptEiPNS1_12FunctionInfoE
node:_ZN2v88internal17AllocationTracker18UnresolvedLocationC2ENS0_6ScriptEiPNS1_12FunctionInfoE
node:_ZN2v88internal17AllocationTracker18UnresolvedLocationD1Ev
node:_ZN2v88internal17AllocationTracker18UnresolvedLocationD2Ev
node:_ZN2v88internal17AllocationTracker23PrepareForSerializationEv
node:_ZN2v88internal17AllocationTracker27functionInfoIndexForVMStateENS_8StateTagE
node:_ZN2v88internal17AllocationTrackerC1EPNS0_14HeapObjectsMapEPNS0_14StringsStorageE
node:_ZN2v88internal17AllocationTrackerC2EPNS0_14HeapObjectsMapEPNS0_14StringsStorageE
node:_ZN2v88internal17AllocationTrackerD1Ev
node:_ZN2v88internal17AllocationTrackerD2Ev
node:_ZN2v88internal17BackReferenceNode12FillInBMInfoEPNS0_7IsolateEiiPNS0_19BoyerMooreLookaheadEb
node:_ZN2v88internal17BackReferenceNode4EmitEPNS0_14RegExpCompilerEPNS0_5TraceE
node:_ZN2v88internal17BackReferenceNode6AcceptEPNS0_11NodeVisitorE
node:_ZN2v88internal17Builtin_ArrayPushEiPmPNS0_7IsolateE
node:_ZN2v88internal17Builtin_DateParseEiPmPNS0_7IsolateE
node:_ZN2v88internal17Builtin_JsonParseEiPmPNS0_7IsolateE
node:_ZN2v88internal17Builtin_StringRawEiPmPNS0_7IsolateE
node:_ZN2v88internal17Builtin_SymbolForEiPmPNS0_7IsolateE
node:_ZN2v88internal17CollectionBarrier12TryRequestGCEv
node:_ZN2v88internal17CollectionBarrier14WasGCRequestedEv
node:_ZN2v88internal17CollectionBarrier23NotifyShutdownRequestedEv
node:_ZN2v88internal17CollectionBarrier25AwaitCollectionBackgroundEPNS0_9LocalHeapE
node:_ZN2v88internal17CollectionBarrier25StopTimeToCollectionTimerEv
node:_ZN2v88internal17CollectionBarrier29ActivateStackGuardAndPostTaskEv
node:_ZN2v88internal17CollectionBarrier31ResumeThreadsAwaitingCollectionEv
node:_ZN2v88internal17CollectionBarrier32CancelCollectionAndResumeThreadsEv
node:_ZN2v88internal17ConcurrentMarking10IsWorkLeftEv
node:_ZN2v88internal17ConcurrentMarking10PauseScopeC1EPS1_
node:_ZN2v88internal17ConcurrentMarking10PauseScopeC2EPS1_
node:_ZN2v88internal17ConcurrentMarking10PauseScopeD1Ev
node:_ZN2v88internal17ConcurrentMarking10PauseScopeD2Ev
node:_ZN2v88internal17ConcurrentMarking11ScheduleJobENS0_16GarbageCollectorENS_12TaskPriorityE
node:_ZN2v88internal17ConcurrentMarking16TotalMarkedBytesEv
node:_ZN2v88internal17ConcurrentMarking17GetMaxConcurrencyEm
node:_ZN2v88internal17ConcurrentMarking19FlushNativeContextsEPNS0_18NativeContextStatsE
node:_ZN2v88internal17ConcurrentMarking20ClearMemoryChunkDataEPNS0_11MemoryChunkE
node:_ZN2v88internal17ConcurrentMarking20FlushMemoryChunkDataEPNS0_21NonAtomicMarkingStateE
node:_ZN2v88internal17ConcurrentMarking21RescheduleJobIfNeededENS0_16GarbageCollectorENS_12TaskPriorityE
node:_ZN2v88internal17ConcurrentMarking4JoinEv
node:_ZN2v88internal17ConcurrentMarking5PauseEv
node:_ZN2v88internal17ConcurrentMarking6CancelEv
node:_ZN2v88internal17ConcurrentMarking6ResumeEv
node:_ZN2v88internal17ConcurrentMarking8RunMajorEPNS_11JobDelegateENS_4base7EnumSetINS0_13CodeFlushModeEiEEjb
node:_ZN2v88internal17ConcurrentMarking8RunMinorEPNS_11JobDelegateE
node:_ZN2v88internal17ConcurrentMarking9IsStoppedEv
node:_ZN2v88internal17ConcurrentMarkingC1EPNS0_4HeapEPNS0_11WeakObjectsE
node:_ZN2v88internal17ConcurrentMarkingC2EPNS0_4HeapEPNS0_11WeakObjectsE
node:_ZN2v88internal17ContextSerializer18CheckRehashabilityENS0_10HeapObjectE
node:_ZN2v88internal17ContextSerializer19SerializeObjectImplENS0_6HandleINS0_10HeapObjectEEE
node:_ZN2v88internal17ContextSerializer30ShouldBeInTheSharedObjectCacheENS0_10HeapObjectE
node:_ZN2v88internal17ContextSerializer31ShouldBeInTheStartupObjectCacheENS0_10HeapObjectE
node:_ZN2v88internal17ContextSerializer35SerializeJSObjectWithEmbedderFieldsENS0_6HandleINS0_8JSObjectEEE
node:_ZN2v88internal17ContextSerializer9SerializeEPNS0_7ContextERKNS0_22CombinationAssertScopeIJNS0_29PerThreadAssertScopeDebugOnlyILNS0_19PerThreadAssertTypeE0ELb0EEENS5_ILS6_1ELb0EEEEEE
node:_ZN2v88internal17ContextSerializerC1EPNS0_7IsolateENS_4base5FlagsINS0_8Snapshot14SerializerFlagEiEEPNS0_17StartupSerializerENS_31SerializeInternalFieldsCallbackE
node:_ZN2v88internal17ContextSerializerC2EPNS0_7IsolateENS_4base5FlagsINS0_8Snapshot14SerializerFlagEiEEPNS0_17StartupSerializerENS_31SerializeInternalFieldsCallbackE
node:_ZN2v88internal17ContextSerializerD0Ev
node:_ZN2v88internal17ContextSerializerD1Ev
node:_ZN2v88internal17ContextSerializerD2Ev
node:_ZN2v88internal17DebugInfoListNodeC1EPNS0_7IsolateENS0_9DebugInfoE
node:_ZN2v88internal17DebugInfoListNodeC2EPNS0_7IsolateENS0_9DebugInfoE
node:_ZN2v88internal17DebugInfoListNodeD1Ev
node:_ZN2v88internal17DebugInfoListNodeD2Ev
node:_ZN2v88internal17EmbedderDataArray14EnsureCapacityEPNS0_7IsolateENS0_6HandleIS1_EEi
node:_ZN2v88internal17EmbedderDataArray22EmbedderDataArrayPrintERSo
node:_ZN2v88internal17EncodedCSignatureC1EPKNS_13CFunctionInfoE
node:_ZN2v88internal17EncodedCSignatureC2EPKNS_13CFunctionInfoE
node:_ZN2v88internal17ExternalReference12cpu_featuresEv
node:_ZN2v88internal17ExternalReference12isolate_rootEPNS0_7IsolateE
node:_ZN2v88internal17ExternalReference13re_grow_stackEv
node:_ZN2v88internal17ExternalReference13wasm_f32_ceilEv
node:_ZN2v88internal17ExternalReference13wasm_f64_ceilEv
node:_ZN2v88internal17ExternalReference14FromRawAddressEm
node:_ZN2v88internal17ExternalReference14builtins_tableEPNS0_7IsolateE
node:_ZN2v88internal17ExternalReference14wasm_f32_floorEv
node:_ZN2v88internal17ExternalReference14wasm_f32_truncEv
node:_ZN2v88internal17ExternalReference14wasm_f64_floorEv
node:_ZN2v88internal17ExternalReference14wasm_f64_truncEv
node:_ZN2v88internal17ExternalReference14wasm_int64_divEv
node:_ZN2v88internal17ExternalReference14wasm_int64_modEv
node:_ZN2v88internal17ExternalReference15force_slow_pathEPNS0_7IsolateE
node:_ZN2v88internal17ExternalReference15isolate_addressEPNS0_7IsolateE
node:_ZN2v88internal17ExternalReference15printf_functionEv
node:_ZN2v88internal17ExternalReference15wasm_array_copyEv
node:_ZN2v88internal17ExternalReference15wasm_array_fillEv
node:_ZN2v88internal17ExternalReference15wasm_f32x4_ceilEv
node:_ZN2v88internal17ExternalReference15wasm_f64x2_ceilEv
node:_ZN2v88internal17ExternalReference15wasm_uint64_divEv
node:_ZN2v88internal17ExternalReference15wasm_uint64_modEv
node:_ZN2v88internal17ExternalReference15wasm_word32_ctzEv
node:_ZN2v88internal17ExternalReference15wasm_word32_rolEv
node:_ZN2v88internal17ExternalReference15wasm_word32_rorEv
node:_ZN2v88internal17ExternalReference15wasm_word64_ctzEv
node:_ZN2v88internal17ExternalReference15wasm_word64_rolEv
node:_ZN2v88internal17ExternalReference15wasm_word64_rorEv
node:_ZN2v88internal17ExternalReference16date_cache_stampEPNS0_7IsolateE
node:_ZN2v88internal17ExternalReference16gsab_byte_lengthEv
node:_ZN2v88internal17ExternalReference16wasm_f32x4_floorEv
node:_ZN2v88internal17ExternalReference16wasm_f32x4_truncEv
node:_ZN2v88internal17ExternalReference16wasm_f64x2_floorEv
node:_ZN2v88internal17ExternalReference16wasm_f64x2_truncEv
node:_ZN2v88internal17ExternalReference16wasm_float64_powEv
node:_ZN2v88internal17ExternalReference16wasm_memory_copyEv
node:_ZN2v88internal17ExternalReference16wasm_memory_fillEv
node:_ZN2v88internal17ExternalReference16wasm_memory_initEv
node:_ZN2v88internal17ExternalReference17UnwrapRedirectionEm
node:_ZN2v88internal17ExternalReference17abort_with_reasonEv
node:_ZN2v88internal17ExternalReference17check_object_typeEv
node:_ZN2v88internal17ExternalReference18address_of_jslimitEPNS0_7IsolateE
node:_ZN2v88internal17ExternalReference18address_of_min_intEv
node:_ZN2v88internal17ExternalReference18refill_math_randomEv
node:_ZN2v88internal17ExternalReference18stress_deopt_countEPNS0_7IsolateE
node:_ZN2v88internal17ExternalReference18wasm_word32_popcntEv
node:_ZN2v88internal17ExternalReference18wasm_word64_popcntEv
node:_ZN2v88internal17ExternalReference19address_of_one_halfEv
node:_ZN2v88internal17ExternalReference20compute_integer_hashEv
node:_ZN2v88internal17ExternalReference20ieee754_cos_functionEv
node:_ZN2v88internal17ExternalReference20ieee754_exp_functionEv
node:_ZN2v88internal17ExternalReference20ieee754_log_functionEv
node:_ZN2v88internal17ExternalReference20ieee754_pow_functionEv
node:_ZN2v88internal17ExternalReference20ieee754_sin_functionEv
node:_ZN2v88internal17ExternalReference20ieee754_tan_functionEv
node:_ZN2v88internal17ExternalReference20is_profiling_addressEPNS0_7IsolateE
node:_ZN2v88internal17ExternalReference20libc_memchr_functionEv
node:_ZN2v88internal17ExternalReference20libc_memcpy_functionEv
node:_ZN2v88internal17ExternalReference20libc_memset_functionEv
node:_ZN2v88internal17ExternalReference20promise_hook_addressEPNS0_7IsolateE
node:_ZN2v88internal17ExternalReference20wasm_f32_nearest_intEv
node:_ZN2v88internal17ExternalReference20wasm_f64_nearest_intEv
node:_ZN2v88internal17ExternalReference21ieee754_acos_functionEv
node:_ZN2v88internal17ExternalReference21ieee754_asin_functionEv
node:_ZN2v88internal17ExternalReference21ieee754_atan_functionEv
node:_ZN2v88internal17ExternalReference21ieee754_cbrt_functionEv
node:_ZN2v88internal17ExternalReference21ieee754_cosh_functionEv
node:_ZN2v88internal17ExternalReference21ieee754_log2_functionEv
node:_ZN2v88internal17ExternalReference21ieee754_sinh_functionEv
node:_ZN2v88internal17ExternalReference21ieee754_tanh_functionEv
node:_ZN2v88internal17ExternalReference21libc_memmove_functionEv
node:_ZN2v88internal17ExternalReference21re_word_character_mapEv
node:_ZN2v88internal17ExternalReference21wasm_float32_to_int64Ev
node:_ZN2v88internal17ExternalReference21wasm_float64_to_int64Ev
node:_ZN2v88internal17ExternalReference21wasm_int64_to_float32Ev
node:_ZN2v88internal17ExternalReference21wasm_int64_to_float64Ev
node:_ZN2v88internal17ExternalReference22address_of_uint32_biasEv
node:_ZN2v88internal17ExternalReference22get_or_create_hash_rawEv
node:_ZN2v88internal17ExternalReference22has_unpaired_surrogateEv
node:_ZN2v88internal17ExternalReference22ieee754_acosh_functionEv
node:_ZN2v88internal17ExternalReference22ieee754_asinh_functionEv
node:_ZN2v88internal17ExternalReference22ieee754_atan2_functionEv
node:_ZN2v88internal17ExternalReference22ieee754_atanh_functionEv
node:_ZN2v88internal17ExternalReference22ieee754_expm1_functionEv
node:_ZN2v88internal17ExternalReference22ieee754_log10_functionEv
node:_ZN2v88internal17ExternalReference22ieee754_log1p_functionEv
node:_ZN2v88internal17ExternalReference22supports_cetss_addressEv
node:_ZN2v88internal17ExternalReference22wasm_f32x4_nearest_intEv
node:_ZN2v88internal17ExternalReference22wasm_f64x2_nearest_intEv
node:_ZN2v88internal17ExternalReference22wasm_float32_to_uint64Ev
node:_ZN2v88internal17ExternalReference22wasm_float64_to_uint64Ev
node:_ZN2v88internal17ExternalReference22wasm_uint64_to_float32Ev
node:_ZN2v88internal17ExternalReference22wasm_uint64_to_float64Ev
node:_ZN2v88internal17ExternalReference23address_of_real_jslimitEPNS0_7IsolateE
node:_ZN2v88internal17ExternalReference23address_of_the_hole_nanEv
node:_ZN2v88internal17ExternalReference23atomic_pair_or_functionEv
node:_ZN2v88internal17ExternalReference23debug_is_active_addressEPNS0_7IsolateE
node:_ZN2v88internal17ExternalReference23get_date_field_functionEv
node:_ZN2v88internal17ExternalReference23int64_mul_high_functionEv
node:_ZN2v88internal17ExternalReference23relaxed_memcpy_functionEv
node:_ZN2v88internal17ExternalReference24atomic_pair_add_functionEv
node:_ZN2v88internal17ExternalReference24atomic_pair_and_functionEv
node:_ZN2v88internal17ExternalReference24atomic_pair_sub_functionEv
node:_ZN2v88internal17ExternalReference24atomic_pair_xor_functionEv
node:_ZN2v88internal17ExternalReference24f64_mod_wrapper_functionEv
node:_ZN2v88internal17ExternalReference24invoke_function_callbackEv
node:_ZN2v88internal17ExternalReference24new_deoptimizer_functionEv
node:_ZN2v88internal17ExternalReference24relaxed_memmove_functionEv
node:_ZN2v88internal17ExternalReference25atomic_pair_load_functionEv
node:_ZN2v88internal17ExternalReference25f64_acos_wrapper_functionEv
node:_ZN2v88internal17ExternalReference25f64_asin_wrapper_functionEv
node:_ZN2v88internal17ExternalReference25handle_scope_next_addressEPNS0_7IsolateE
node:_ZN2v88internal17ExternalReference25mod_two_doubles_operationEv
node:_ZN2v88internal17ExternalReference25re_match_for_call_from_jsEv
node:_ZN2v88internal17ExternalReference25search_string_raw_one_oneEv
node:_ZN2v88internal17ExternalReference25search_string_raw_one_twoEv
node:_ZN2v88internal17ExternalReference25search_string_raw_two_oneEv
node:_ZN2v88internal17ExternalReference25search_string_raw_two_twoEv
node:_ZN2v88internal17ExternalReference25stack_is_iterable_addressEPNS0_7IsolateE
node:_ZN2v88internal17ExternalReference25string_from_forward_tableEv
node:_ZN2v88internal17ExternalReference25wasm_float32_to_int64_satEv
node:_ZN2v88internal17ExternalReference25wasm_float64_to_int64_satEv
node:_ZN2v88internal17ExternalReference26address_of_pending_messageEPNS0_12LocalIsolateE
node:_ZN2v88internal17ExternalReference26address_of_pending_messageEPNS0_7IsolateE
node:_ZN2v88internal17ExternalReference26atomic_pair_store_functionEv
node:_ZN2v88internal17ExternalReference26handle_scope_level_addressEPNS0_7IsolateE
node:_ZN2v88internal17ExternalReference26handle_scope_limit_addressEPNS0_7IsolateE
node:_ZN2v88internal17ExternalReference26intl_to_latin1_lower_tableEv
node:_ZN2v88internal17ExternalReference26orderedhashmap_gethash_rawEv
node:_ZN2v88internal17ExternalReference26promise_hook_flags_addressEPNS0_7IsolateE
node:_ZN2v88internal17ExternalReference26re_check_stack_guard_stateEv
node:_ZN2v88internal17ExternalReference26wasm_float32_to_uint64_satEv
node:_ZN2v88internal17ExternalReference26wasm_float64_to_uint64_satEv
node:_ZN2v88internal17ExternalReference27address_of_log_or_trace_osrEv
node:_ZN2v88internal17ExternalReference27bytecode_size_table_addressEv
node:_ZN2v88internal17ExternalReference27call_enter_context_functionEv
node:_ZN2v88internal17ExternalReference27javascript_execution_assertEPNS0_7IsolateE
node:_ZN2v88internal17ExternalReference27raw_hash_from_forward_tableEv
node:_ZN2v88internal17ExternalReference27replace_unpaired_surrogatesEv
node:_ZN2v88internal17ExternalReference27scheduled_exception_addressEPNS0_7IsolateE
node:_ZN2v88internal17ExternalReference28async_event_delegate_addressEPNS0_7IsolateE
node:_ZN2v88internal17ExternalReference28debug_execution_mode_addressEPNS0_7IsolateE
node:_ZN2v88internal17ExternalReference28fast_api_call_target_addressEPNS0_7IsolateE
node:_ZN2v88internal17ExternalReference28heap_is_marking_flag_addressEPNS0_7IsolateE
node:_ZN2v88internal17ExternalReference29address_of_float_abs_constantEv
node:_ZN2v88internal17ExternalReference29address_of_float_neg_constantEv
node:_ZN2v88internal17ExternalReference29address_of_log10_offset_tableEv
node:_ZN2v88internal17ExternalReference29address_of_runtime_stats_flagEv
node:_ZN2v88internal17ExternalReference29allocation_sites_list_addressEPNS0_7IsolateE
node:_ZN2v88internal17ExternalReference29array_indexof_includes_doubleEv
node:_ZN2v88internal17ExternalReference29atomic_pair_exchange_functionEv
node:_ZN2v88internal17ExternalReference29fast_c_call_caller_fp_addressEPNS0_7IsolateE
node:_ZN2v88internal17ExternalReference29fast_c_call_caller_pc_addressEPNS0_7IsolateE
node:_ZN2v88internal17ExternalReference29interpreter_dispatch_countersEPNS0_7IsolateE
node:_ZN2v88internal17ExternalReference29string_write_to_flat_one_byteEv
node:_ZN2v88internal17ExternalReference29string_write_to_flat_two_byteEv
node:_ZN2v88internal17ExternalReference29uses_shared_heap_flag_addressEPNS0_7IsolateE
node:_ZN2v88internal17ExternalReference30address_of_double_abs_constantEv
node:_ZN2v88internal17ExternalReference30address_of_double_neg_constantEv
node:_ZN2v88internal17ExternalReference30compute_output_frames_functionEv
node:_ZN2v88internal17ExternalReference30delete_handle_scope_extensionsEv
node:_ZN2v88internal17ExternalReference30insert_remembered_set_functionEv
node:_ZN2v88internal17ExternalReference30intl_convert_one_byte_to_lowerEv
node:_ZN2v88internal17ExternalReference30re_is_character_in_range_arrayEv
node:_ZN2v88internal17ExternalReference30runtime_function_table_addressEPNS0_7IsolateE
node:_ZN2v88internal17ExternalReference30string_to_array_index_functionEv
node:_ZN2v88internal17ExternalReference30supports_wasm_simd_128_addressEv
node:_ZN2v88internal17ExternalReference31address_of_store_to_stack_countEPKc
