chiaki:_IO_stdin_used
chiaki:_Z13GetLogBaseDirv
chiaki:_Z17CreateLogFilenamev
chiaki:_Z24qInitResources_resourcesv
chiaki:_Z27qCleanupResources_resourcesv
chiaki:_Z7RunMainR12QApplicationP8Settings
chiaki:_Z9RunStreamR12QApplicationRK24StreamSessionConnectInfo
chiaki:_Z9real_mainiPPc
chiaki:_ZN10Controller11GetDeviceIDEv
chiaki:_ZN10Controller11IsConnectedEv
chiaki:_ZN10Controller11IsDualSenseEv
chiaki:_ZN10Controller11UpdateStateE9SDL_Event
chiaki:_ZN10Controller11qt_metacallEN11QMetaObject4CallEiPPv
chiaki:_ZN10Controller11qt_metacastEPKc
chiaki:_ZN10Controller12StateChangedEv
chiaki:_ZN10Controller16staticMetaObjectE
chiaki:_ZN10Controller17SetTriggerEffectsEhPKhhS1_
chiaki:_ZN10Controller7GetNameEv
chiaki:_ZN10Controller8GetStateEv
chiaki:_ZN10Controller9SetRumbleEhh
chiaki:_ZN10ControllerC1EiP17ControllerManager
chiaki:_ZN10ControllerC2EiP17ControllerManager
chiaki:_ZN10ControllerD0Ev
chiaki:_ZN10ControllerD1Ev
chiaki:_ZN10ControllerD2Ev
chiaki:_ZN10MainWindow10SendWakeupEPK13DisplayServer
chiaki:_ZN10MainWindow11qt_metacallEN11QMetaObject4CallEiPPv
chiaki:_ZN10MainWindow11qt_metacastEPKc
chiaki:_ZN10MainWindow12ShowSettingsEv
chiaki:_ZN10MainWindow16staticMetaObjectE
chiaki:_ZN10MainWindow19UpdateServerWidgetsEv
chiaki:_ZN10MainWindow20UpdateDisplayServersEv
chiaki:_ZN10MainWindow22UpdateDiscoveryEnabledEv
chiaki:_ZN10MainWindow23DisplayServerFromSenderEv
chiaki:_ZN10MainWindow24ServerItemWidgetSelectedEv
chiaki:_ZN10MainWindow25ServerItemWidgetTriggeredEv
chiaki:_ZN10MainWindow29ServerItemWidgetWakeTriggeredEv
chiaki:_ZN10MainWindow31ServerItemWidgetDeleteTriggeredEv
chiaki:_ZN10MainWindow4QuitEv
chiaki:_ZN10MainWindowC1EP8SettingsP7QWidget
chiaki:_ZN10MainWindowC2EP8SettingsP7QWidget
chiaki:_ZN10MainWindowD0Ev
chiaki:_ZN10MainWindowD1Ev
chiaki:_ZN10MainWindowD2Ev
chiaki:_ZN10ManualHost16LoadFromSettingsEP9QSettings
chiaki:_ZN10ManualHostC1EiRK7QStringbRK7HostMAC
chiaki:_ZN10ManualHostC1EiRKS_
chiaki:_ZN10ManualHostC1Ev
chiaki:_ZN10ManualHostC2EiRK7QStringbRK7HostMAC
chiaki:_ZN10ManualHostC2EiRKS_
chiaki:_ZN10ManualHostC2Ev
chiaki:_ZN10SessionLog3LogE14ChiakiLogLevelPKc
chiaki:_ZN10SessionLogC1EP13StreamSessionjRK7QString
chiaki:_ZN10SessionLogC2EP13StreamSessionjRK7QString
chiaki:_ZN10SessionLogD1Ev
chiaki:_ZN10SessionLogD2Ev
chiaki:_ZN12RegistDialog11qt_metacallEN11QMetaObject4CallEiPPv
chiaki:_ZN12RegistDialog11qt_metacastEPKc
chiaki:_ZN12RegistDialog13NeedAccountIdEv
chiaki:_ZN12RegistDialog13ValidateInputEv
chiaki:_ZN12RegistDialog16staticMetaObjectE
chiaki:_ZN12RegistDialog6acceptEv
chiaki:_ZN12RegistDialogC1EP8SettingsRK7QStringP7QWidget
chiaki:_ZN12RegistDialogC2EP8SettingsRK7QStringP7QWidget
chiaki:_ZN12RegistDialogD0Ev
chiaki:_ZN12RegistDialogD1Ev
chiaki:_ZN12RegistDialogD2Ev
chiaki:_ZN12StreamWindow10ToggleZoomEv
chiaki:_ZN12StreamWindow10closeEventEP11QCloseEvent
chiaki:_ZN12StreamWindow11SessionQuitE16ChiakiQuitReasonRK7QString
chiaki:_ZN12StreamWindow11changeEventEP6QEvent
chiaki:_ZN12StreamWindow11qt_metacallEN11QMetaObject4CallEiPPv
chiaki:_ZN12StreamWindow11qt_metacastEPKc
chiaki:_ZN12StreamWindow11resizeEventEP12QResizeEvent
chiaki:_ZN12StreamWindow13ToggleStretchEv
chiaki:_ZN12StreamWindow13keyPressEventEP9QKeyEvent
chiaki:_ZN12StreamWindow15keyReleaseEventEP9QKeyEvent
chiaki:_ZN12StreamWindow15mousePressEventEP11QMouseEvent
chiaki:_ZN12StreamWindow16ToggleFullscreenEv
chiaki:_ZN12StreamWindow16staticMetaObjectE
chiaki:_ZN12StreamWindow17LoginPINRequestedEb
chiaki:_ZN12StreamWindow17mouseReleaseEventEP11QMouseEvent
chiaki:_ZN12StreamWindow20UpdateVideoTransformEv
chiaki:_ZN12StreamWindow21mouseDoubleClickEventEP11QMouseEvent
chiaki:_ZN12StreamWindow26UpdateTransformModeActionsEv
chiaki:_ZN12StreamWindow4InitEv
chiaki:_ZN12StreamWindow4QuitEv
chiaki:_ZN12StreamWindow9moveEventEP10QMoveEvent
chiaki:_ZN12StreamWindowC1ERK24StreamSessionConnectInfoP7QWidget
chiaki:_ZN12StreamWindowC2ERK24StreamSessionConnectInfoP7QWidget
chiaki:_ZN12StreamWindowD0Ev
chiaki:_ZN12StreamWindowD1Ev
chiaki:_ZN12StreamWindowD2Ev
chiaki:_ZN13AVOpenGLFrame6UpdateEP7AVFrameP12chiaki_log_t
chiaki:_ZN13StreamSession11InitHapticsEv
chiaki:_ZN13StreamSession11SessionQuitE16ChiakiQuitReasonRK7QString
chiaki:_ZN13StreamSession11SetLoginPINERK7QString
chiaki:_ZN13StreamSession11qt_metacallEN11QMetaObject4CallEiPPv
chiaki:_ZN13StreamSession11qt_metacastEPKc
chiaki:_ZN13StreamSession14ConnectHapticsEv
chiaki:_ZN13StreamSession14PushAudioFrameEPsm
chiaki:_ZN13StreamSession14UpdateGamepadsEv
chiaki:_ZN13StreamSession16HandleMouseEventEP11QMouseEvent
chiaki:_ZN13StreamSession16PushHapticsFrameEPhm
chiaki:_ZN13StreamSession16staticMetaObjectE
chiaki:_ZN13StreamSession17DisconnectHapticsEv
chiaki:_ZN13StreamSession17LoginPINRequestedEb
chiaki:_ZN13StreamSession17SendFeedbackStateEv
chiaki:_ZN13StreamSession19HandleKeyboardEventEP9QKeyEvent
chiaki:_ZN13StreamSession20FfmpegFrameAvailableEv
chiaki:_ZN13StreamSession27TriggerFfmpegFrameAvailableEv
chiaki:_ZN13StreamSession4StopEv
chiaki:_ZN13StreamSession5EventEP14chiaki_event_t
chiaki:_ZN13StreamSession5StartEv
chiaki:_ZN13StreamSession7GoToBedEv
chiaki:_ZN13StreamSession9InitAudioEjj
chiaki:_ZN13StreamSessionC1ERK24StreamSessionConnectInfoP7QObject
chiaki:_ZN13StreamSessionC2ERK24StreamSessionConnectInfoP7QObject
chiaki:_ZN13StreamSessionD0Ev
chiaki:_ZN13StreamSessionD1Ev
chiaki:_ZN13StreamSessionD2Ev
chiaki:_ZN14AVOpenGLWidget10SwapFramesEv
chiaki:_ZN14AVOpenGLWidget11qt_metacallEN11QMetaObject4CallEiPPv
chiaki:_ZN14AVOpenGLWidget11qt_metacastEPKc
chiaki:_ZN14AVOpenGLWidget12initializeGLEv
chiaki:_ZN14AVOpenGLWidget14mouseMoveEventEP11QMouseEvent
chiaki:_ZN14AVOpenGLWidget16staticMetaObjectE
chiaki:_ZN14AVOpenGLWidget17ResetMouseTimeoutEv
chiaki:_ZN14AVOpenGLWidget19CreateSurfaceFormatEv
chiaki:_ZN14AVOpenGLWidget7paintGLEv
chiaki:_ZN14AVOpenGLWidget9HideMouseEv
chiaki:_ZN14AVOpenGLWidgetC1EP13StreamSessionP7QWidget13TransformMode
chiaki:_ZN14AVOpenGLWidgetC2EP13StreamSessionP7QWidget13TransformMode
chiaki:_ZN14AVOpenGLWidgetD0Ev
chiaki:_ZN14AVOpenGLWidgetD1Ev
chiaki:_ZN14AVOpenGLWidgetD2Ev
chiaki:_ZN14LoginPINDialog11qt_metacallEN11QMetaObject4CallEiPPv
chiaki:_ZN14LoginPINDialog11qt_metacastEPKc
chiaki:_ZN14LoginPINDialog13UpdateButtonsEv
chiaki:_ZN14LoginPINDialog16staticMetaObjectE
chiaki:_ZN14LoginPINDialogC1EbP7QWidget
chiaki:_ZN14LoginPINDialogC2EbP7QWidget
chiaki:_ZN14RegisteredHost16LoadFromSettingsEP9QSettings
chiaki:_ZN14RegisteredHostC1ERK24chiaki_registered_host_t
chiaki:_ZN14RegisteredHostC1ERKS_
chiaki:_ZN14RegisteredHostC1Ev
chiaki:_ZN14RegisteredHostC2ERK24chiaki_registered_host_t
chiaki:_ZN14RegisteredHostC2ERKS_
chiaki:_ZN14RegisteredHostC2Ev
chiaki:_ZN14SettingsDialog11FPSSelectedEv
chiaki:_ZN14SettingsDialog11qt_metacallEN11QMetaObject4CallEiPPv
chiaki:_ZN14SettingsDialog11qt_metacastEPKc
chiaki:_ZN14SettingsDialog13BitrateEditedEv
chiaki:_ZN14SettingsDialog13CodecSelectedEv
chiaki:_ZN14SettingsDialog15RegisterNewHostEv
chiaki:_ZN14SettingsDialog16DualSenseChangedEv
chiaki:_ZN14SettingsDialog16staticMetaObjectE
chiaki:_ZN14SettingsDialog17LogVerboseChangedEv
chiaki:_ZN14SettingsDialog18ResolutionSelectedEv
chiaki:_ZN14SettingsDialog19AudioOutputSelectedEv
chiaki:_ZN14SettingsDialog20DeleteRegisteredHostEv
chiaki:_ZN14SettingsDialog21AudioBufferSizeEditedEv
chiaki:_ZN14SettingsDialog21UpdateRegisteredHostsEv
chiaki:_ZN14SettingsDialog24DisconnectActionSelectedEv
chiaki:_ZN14SettingsDialog24UpdateBitratePlaceholderEv
chiaki:_ZN14SettingsDialog28HardwareDecodeEngineSelectedEv
chiaki:_ZN14SettingsDialog28UpdateRegisteredHostsButtonsEv
chiaki:_ZN14SettingsDialog34UpdateHardwareDecodeEngineComboBoxEv
chiaki:_ZN14SettingsDialogC1EP8SettingsP7QWidget
chiaki:_ZN14SettingsDialogC2EP8SettingsP7QWidget
chiaki:_ZN16DiscoveryManager10SendWakeupERK7QStringRK10QByteArrayb
chiaki:_ZN16DiscoveryManager11qt_metacallEN11QMetaObject4CallEiPPv
chiaki:_ZN16DiscoveryManager11qt_metacastEPKc
chiaki:_ZN16DiscoveryManager12HostsUpdatedEv
chiaki:_ZN16DiscoveryManager16staticMetaObjectE
chiaki:_ZN16DiscoveryManager21DiscoveryServiceHostsE5QListI13DiscoveryHostE
chiaki:_ZN16DiscoveryManager9SetActiveEb
chiaki:_ZN16DiscoveryManagerC1EP7QObject
chiaki:_ZN16DiscoveryManagerC2EP7QObject
chiaki:_ZN16DiscoveryManagerD0Ev
chiaki:_ZN16DiscoveryManagerD1Ev
chiaki:_ZN16DiscoveryManagerD2Ev
chiaki:_ZN16ManualHostDialog11qt_metacallEN11QMetaObject4CallEiPPv
chiaki:_ZN16ManualHostDialog11qt_metacastEPKc
chiaki:_ZN16ManualHostDialog13ButtonClickedEP15QAbstractButton
chiaki:_ZN16ManualHostDialog13ValidateInputEv
chiaki:_ZN16ManualHostDialog16staticMetaObjectE
chiaki:_ZN16ManualHostDialog6acceptEv
chiaki:_ZN16ManualHostDialogC1EP8SettingsiP7QWidget
chiaki:_ZN16ManualHostDialogC2EP8SettingsiP7QWidget
chiaki:_ZN16ServerIconWidget10paintEventEP11QPaintEvent
chiaki:_ZN16ServerIconWidget11qt_metacallEN11QMetaObject4CallEiPPv
chiaki:_ZN16ServerIconWidget11qt_metacastEPKc
chiaki:_ZN16ServerIconWidget16staticMetaObjectE
chiaki:_ZN16ServerIconWidget7LoadSvgEv
chiaki:_ZN16ServerIconWidget8SetStateEb29chiaki_discovery_host_state_t
chiaki:_ZN16ServerIconWidgetC1EP7QWidget
chiaki:_ZN16ServerIconWidgetC2EP7QWidget
chiaki:_ZN16ServerItemWidget11SetSelectedEb
chiaki:_ZN16ServerItemWidget11qt_metacallEN11QMetaObject4CallEiPPv
chiaki:_ZN16ServerItemWidget11qt_metacastEPKc
chiaki:_ZN16ServerItemWidget13WakeTriggeredEv
chiaki:_ZN16ServerItemWidget15DeleteTriggeredEv
chiaki:_ZN16ServerItemWidget15mousePressEventEP11QMouseEvent
chiaki:_ZN16ServerItemWidget16staticMetaObjectE
chiaki:_ZN16ServerItemWidget21mouseDoubleClickEventEP11QMouseEvent
chiaki:_ZN16ServerItemWidget6UpdateERK13DisplayServer
chiaki:_ZN16ServerItemWidget8SelectedEv
chiaki:_ZN16ServerItemWidget9TriggeredEv
chiaki:_ZN16ServerItemWidgetC1EP7QWidget
chiaki:_ZN16ServerItemWidgetC2EP7QWidget
chiaki:_ZN17ControllerManager11GetInstanceEv
chiaki:_ZN17ControllerManager11qt_metacallEN11QMetaObject4CallEiPPv
chiaki:_ZN17ControllerManager11qt_metacastEPKc
chiaki:_ZN17ControllerManager12HandleEventsEv
chiaki:_ZN17ControllerManager14OpenControllerEi
chiaki:_ZN17ControllerManager15ControllerEventE9SDL_Event
chiaki:_ZN17ControllerManager16ControllerClosedEP10Controller
chiaki:_ZN17ControllerManager16staticMetaObjectE
chiaki:_ZN17ControllerManager23GetAvailableControllersEv
chiaki:_ZN17ControllerManager26UpdateAvailableControllersEv
chiaki:_ZN17ControllerManager27AvailableControllersUpdatedEv
chiaki:_ZN17ControllerManagerC1EP7QObject
chiaki:_ZN17ControllerManagerC2EP7QObject
chiaki:_ZN17ControllerManagerD0Ev
chiaki:_ZN17ControllerManagerD1Ev
chiaki:_ZN17ControllerManagerD2Ev
chiaki:_ZN17DynamicGridWidget10AddWidgetsERK5QListIP7QWidgetE
chiaki:_ZN17DynamicGridWidget11qt_metacallEN11QMetaObject4CallEiPPv
chiaki:_ZN17DynamicGridWidget11qt_metacastEPKc
chiaki:_ZN17DynamicGridWidget12ClearWidgetsEv
chiaki:_ZN17DynamicGridWidget12RemoveWidgetEP7QWidget
chiaki:_ZN17DynamicGridWidget12UpdateLayoutEv
chiaki:_ZN17DynamicGridWidget16CalculateColumnsEv
chiaki:_ZN17DynamicGridWidget16staticMetaObjectE
chiaki:_ZN17DynamicGridWidget23UpdateLayoutIfNecessaryEv
chiaki:_ZN17DynamicGridWidget9AddWidgetEP7QWidget
chiaki:_ZN17DynamicGridWidgetC1EjP7QWidget
chiaki:_ZN17DynamicGridWidgetC2EjP7QWidget
chiaki:_ZN19RegistExecuteDialog11qt_metacallEN11QMetaObject4CallEiPPv
chiaki:_ZN19RegistExecuteDialog11qt_metacastEPKc
chiaki:_ZN19RegistExecuteDialog16staticMetaObjectE
chiaki:_ZN19RegistExecuteDialog3LogE14ChiakiLogLevel7QString
chiaki:_ZN19RegistExecuteDialog6FailedEv
chiaki:_ZN19RegistExecuteDialog7SuccessE14RegisteredHost
chiaki:_ZN19RegistExecuteDialog8FinishedEv
chiaki:_ZN19RegistExecuteDialogC1EP8SettingsRK20chiaki_regist_info_tP7QWidget
chiaki:_ZN19RegistExecuteDialogC2EP8SettingsRK20chiaki_regist_info_tP7QWidget
chiaki:_ZN19RegistExecuteDialogD0Ev
chiaki:_ZN19RegistExecuteDialogD1Ev
chiaki:_ZN19RegistExecuteDialogD2Ev
chiaki:_ZN21AVOpenGLFrameUploader11qt_metacallEN11QMetaObject4CallEiPPv
chiaki:_ZN21AVOpenGLFrameUploader11qt_metacastEPKc
chiaki:_ZN21AVOpenGLFrameUploader16staticMetaObjectE
chiaki:_ZN21AVOpenGLFrameUploader22UpdateFrameFromDecoderEv
chiaki:_ZN21AVOpenGLFrameUploaderC1EP13StreamSessionP14AVOpenGLWidgetP14QOpenGLContextP8QSurface
chiaki:_ZN21AVOpenGLFrameUploaderC2EP13StreamSessionP14AVOpenGLWidgetP14QOpenGLContextP8QSurface
chiaki:_ZN24SettingsKeyCaptureDialog11KeyCapturedEN2Qt3KeyE
chiaki:_ZN24SettingsKeyCaptureDialog11qt_metacallEN11QMetaObject4CallEiPPv
chiaki:_ZN24SettingsKeyCaptureDialog11qt_metacastEPKc
chiaki:_ZN24SettingsKeyCaptureDialog15keyReleaseEventEP9QKeyEvent
chiaki:_ZN24SettingsKeyCaptureDialog16staticMetaObjectE
chiaki:_ZN24SettingsKeyCaptureDialogC1EP7QWidget
chiaki:_ZN24SettingsKeyCaptureDialogC2EP7QWidget
chiaki:_ZN24StreamSessionConnectInfoC1EP8Settings12ChiakiTarget7QString10QByteArrayS4_b13TransformMode
chiaki:_ZN24StreamSessionConnectInfoC2EP8Settings12ChiakiTarget7QString10QByteArrayS4_b13TransformMode
chiaki:_ZN8Settings10SetBitrateEj
chiaki:_ZN8Settings10SetDecoderE7Decoder
chiaki:_ZN8Settings11qt_metacallEN11QMetaObject4CallEiPPv
chiaki:_ZN8Settings11qt_metacastEPKc
chiaki:_ZN8Settings13SetManualHostERK10ManualHost
chiaki:_ZN8Settings13SetResolutionE27ChiakiVideoResolutionPreset
chiaki:_ZN8Settings15GetLogLevelMaskEv
chiaki:_ZN8Settings15GetVideoProfileEv
chiaki:_ZN8Settings15LoadManualHostsEv
chiaki:_ZN8Settings15SaveManualHostsEv
chiaki:_ZN8Settings16RemoveManualHostEi
chiaki:_ZN8Settings16staticMetaObjectE
chiaki:_ZN8Settings17AddRegisteredHostERK14RegisteredHost
chiaki:_ZN8Settings17SetAudioOutDeviceE7QString
chiaki:_ZN8Settings18ManualHostsUpdatedEv
chiaki:_ZN8Settings18SetAudioBufferSizeEj
chiaki:_ZN8Settings18SetHardwareDecoderERK7QString
chiaki:_ZN8Settings19GetDisconnectActionEv
chiaki:_ZN8Settings19LoadRegisteredHostsEv
chiaki:_ZN8Settings19SaveRegisteredHostsEv
chiaki:_ZN8Settings19SetDisconnectActionE16DisconnectAction
chiaki:_ZN8Settings20GetControllerMappingEv
chiaki:_ZN8Settings20RemoveRegisteredHostERK7HostMAC
chiaki:_ZN8Settings22RegisteredHostsUpdatedEv
chiaki:_ZN8Settings26SetControllerButtonMappingEiN2Qt3KeyE
chiaki:_ZN8Settings29GetChiakiControllerButtonNameEi
chiaki:_ZN8Settings31GetControllerMappingForDecodingEv
chiaki:_ZN8Settings6SetFPSE20ChiakiVideoFPSPreset
chiaki:_ZN8Settings8SetCodecE11ChiakiCodec
chiaki:_ZN8SettingsC1EP7QObject
chiaki:_ZN8SettingsC2EP7QObject
chiaki:_ZNK10Controller10metaObjectEv
chiaki:_ZNK10MainWindow10metaObjectEv
chiaki:_ZNK10ManualHost14SaveToSettingsEP9QSettings
chiaki:_ZNK12RegistDialog10metaObjectEv
chiaki:_ZNK12StreamWindow10metaObjectEv
chiaki:_ZNK13DiscoveryHost10GetHostMACEv
chiaki:_ZNK13StreamSession10metaObjectEv
chiaki:_ZNK14AVOpenGLWidget10metaObjectEv
chiaki:_ZNK14LoginPINDialog10metaObjectEv
chiaki:_ZNK14RegisteredHost14SaveToSettingsEP9QSettings
chiaki:_ZNK14SettingsDialog10metaObjectEv
chiaki:_ZNK16DiscoveryManager10metaObjectEv
chiaki:_ZNK16ManualHostDialog10metaObjectEv
chiaki:_ZNK16ServerIconWidget10metaObjectEv
chiaki:_ZNK16ServerItemWidget10metaObjectEv
chiaki:_ZNK17ControllerManager10metaObjectEv
chiaki:_ZNK17DynamicGridWidget10metaObjectEv
chiaki:_ZNK19RegistExecuteDialog10metaObjectEv
chiaki:_ZNK21AVOpenGLFrameUploader10metaObjectEv
chiaki:_ZNK24SettingsKeyCaptureDialog10metaObjectEv
chiaki:_ZNK8Settings10GetBitrateEv
chiaki:_ZNK8Settings10GetDecoderEv
chiaki:_ZNK8Settings10metaObjectEv
chiaki:_ZNK8Settings13GetResolutionEv
chiaki:_ZNK8Settings17GetAudioOutDeviceEv
chiaki:_ZNK8Settings18GetAudioBufferSizeEv
chiaki:_ZNK8Settings18GetHardwareDecoderEv
chiaki:_ZNK8Settings21GetAudioBufferSizeRawEv
chiaki:_ZNK8Settings25GetAudioBufferSizeDefaultEv
chiaki:_ZNK8Settings6GetFPSEv
chiaki:_ZNK8Settings8GetCodecEv
chiaki:_ZThn16_N10MainWindowD0Ev
chiaki:_ZThn16_N10MainWindowD1Ev
chiaki:_ZThn16_N12RegistDialogD0Ev
chiaki:_ZThn16_N12RegistDialogD1Ev
chiaki:_ZThn16_N12StreamWindowD0Ev
chiaki:_ZThn16_N12StreamWindowD1Ev
chiaki:_ZThn16_N14AVOpenGLWidgetD0Ev
chiaki:_ZThn16_N14AVOpenGLWidgetD1Ev
chiaki:_ZThn16_N19RegistExecuteDialogD0Ev
chiaki:_ZThn16_N19RegistExecuteDialogD1Ev
chiaki:__bss_start
chiaki:__data_start
chiaki:_edata
chiaki:_end
chiaki:_gf_errno
chiaki:_start
chiaki:bits
chiaki:bits_56
chiaki:bool_pred_cond_check_pred
chiaki:cauchy_good_general_coding_matrix
chiaki:cauchy_improve_coding_matrix
chiaki:cauchy_n_ones
chiaki:cauchy_original_coding_matrix
chiaki:cauchy_xy_coding_matrix
chiaki:chiaki_aligned_alloc
chiaki:chiaki_aligned_free
chiaki:chiaki_audio_header_load
chiaki:chiaki_audio_header_save
chiaki:chiaki_audio_receiver_av_packet
chiaki:chiaki_audio_receiver_fini
chiaki:chiaki_audio_receiver_init
chiaki:chiaki_audio_receiver_stream_info
chiaki:chiaki_base64_decode
chiaki:chiaki_base64_encode
chiaki:chiaki_bool_pred_cond_broadcast
chiaki:chiaki_bool_pred_cond_fini
chiaki:chiaki_bool_pred_cond_init
chiaki:chiaki_bool_pred_cond_lock
chiaki:chiaki_bool_pred_cond_signal
chiaki:chiaki_bool_pred_cond_timedwait
chiaki:chiaki_bool_pred_cond_unlock
chiaki:chiaki_bool_pred_cond_wait
chiaki:chiaki_codec_name
chiaki:chiaki_cond_broadcast
chiaki:chiaki_cond_fini
chiaki:chiaki_cond_init
chiaki:chiaki_cond_signal
chiaki:chiaki_cond_timedwait
chiaki:chiaki_cond_timedwait_pred
chiaki:chiaki_cond_wait
chiaki:chiaki_cond_wait_pred
chiaki:chiaki_congestion_control_start
chiaki:chiaki_congestion_control_stop
chiaki:chiaki_connect_video_profile_preset
chiaki:chiaki_controller_state_equals
chiaki:chiaki_controller_state_or
chiaki:chiaki_controller_state_set_idle
chiaki:chiaki_controller_state_set_touch_pos
chiaki:chiaki_controller_state_start_touch
chiaki:chiaki_controller_state_stop_touch
chiaki:chiaki_ctrl_fini
chiaki:chiaki_ctrl_goto_bed
chiaki:chiaki_ctrl_init
chiaki:chiaki_ctrl_join
chiaki:chiaki_ctrl_keyboard_accept
chiaki:chiaki_ctrl_keyboard_reject
chiaki:chiaki_ctrl_keyboard_set_text
chiaki:chiaki_ctrl_send_message
chiaki:chiaki_ctrl_set_login_pin
chiaki:chiaki_ctrl_start
chiaki:chiaki_ctrl_stop
chiaki:chiaki_discovery_fini
chiaki:chiaki_discovery_host_is_ps5
chiaki:chiaki_discovery_host_state_string
chiaki:chiaki_discovery_host_system_version_target
chiaki:chiaki_discovery_init
chiaki:chiaki_discovery_packet_fmt
chiaki:chiaki_discovery_send
chiaki:chiaki_discovery_service_fini
chiaki:chiaki_discovery_service_init
chiaki:chiaki_discovery_srch_response_parse
chiaki:chiaki_discovery_thread_start
chiaki:chiaki_discovery_thread_stop
chiaki:chiaki_discovery_wakeup
chiaki:chiaki_ecdh_derive_secret
chiaki:chiaki_ecdh_fini
chiaki:chiaki_ecdh_get_local_pub_key
chiaki:chiaki_ecdh_init
chiaki:chiaki_ecdh_set_local_key
chiaki:chiaki_error_string
chiaki:chiaki_fec_decode
chiaki:chiaki_feedback_history_buffer_fini
chiaki:chiaki_feedback_history_buffer_format
chiaki:chiaki_feedback_history_buffer_init
chiaki:chiaki_feedback_history_buffer_push
chiaki:chiaki_feedback_history_event_set_button
chiaki:chiaki_feedback_history_event_set_touchpad
chiaki:chiaki_feedback_sender_fini
chiaki:chiaki_feedback_sender_init
chiaki:chiaki_feedback_sender_set_controller_state
chiaki:chiaki_feedback_state_format_v12
chiaki:chiaki_feedback_state_format_v9
chiaki:chiaki_ffmpeg_decoder_fini
chiaki:chiaki_ffmpeg_decoder_get_pixel_format
chiaki:chiaki_ffmpeg_decoder_init
chiaki:chiaki_ffmpeg_decoder_pull_frame
chiaki:chiaki_ffmpeg_decoder_video_sample_cb
chiaki:chiaki_frame_processor_alloc_frame
chiaki:chiaki_frame_processor_fini
chiaki:chiaki_frame_processor_flush
chiaki:chiaki_frame_processor_init
chiaki:chiaki_frame_processor_put_unit
chiaki:chiaki_frame_processor_report_packet_stats
chiaki:chiaki_gkcrypt_decrypt
chiaki:chiaki_gkcrypt_fini
chiaki:chiaki_gkcrypt_gen_gmac_key
chiaki:chiaki_gkcrypt_gen_key_stream
chiaki:chiaki_gkcrypt_gen_new_gmac_key
chiaki:chiaki_gkcrypt_gen_tmp_gmac_key
chiaki:chiaki_gkcrypt_get_key_stream
chiaki:chiaki_gkcrypt_gmac
chiaki:chiaki_gkcrypt_init
chiaki:chiaki_http_header_free
chiaki:chiaki_http_header_parse
chiaki:chiaki_http_response_fini
chiaki:chiaki_http_response_parse
chiaki:chiaki_key_state_commit
chiaki:chiaki_key_state_init
chiaki:chiaki_key_state_request_pos
chiaki:chiaki_launchspec_format
chiaki:chiaki_lib_init
chiaki:chiaki_log
chiaki:chiaki_log_cb_print
chiaki:chiaki_log_hexdump
chiaki:chiaki_log_hexdump_raw
chiaki:chiaki_log_init
chiaki:chiaki_log_level_char
chiaki:chiaki_log_sniffer_fini
chiaki:chiaki_log_sniffer_init
chiaki:chiaki_mutex_fini
chiaki:chiaki_mutex_init
chiaki:chiaki_mutex_lock
chiaki:chiaki_mutex_trylock
chiaki:chiaki_mutex_unlock
chiaki:chiaki_opus_decoder_fini
chiaki:chiaki_opus_decoder_get_sink
chiaki:chiaki_opus_decoder_init
chiaki:chiaki_orientation_init
chiaki:chiaki_orientation_tracker_apply_to_controller_state
chiaki:chiaki_orientation_tracker_init
chiaki:chiaki_orientation_tracker_update
chiaki:chiaki_orientation_update
chiaki:chiaki_packet_stats_fini
chiaki:chiaki_packet_stats_get
chiaki:chiaki_packet_stats_init
chiaki:chiaki_packet_stats_push_generation
chiaki:chiaki_packet_stats_push_seq
chiaki:chiaki_packet_stats_reset
chiaki:chiaki_quit_reason_string
chiaki:chiaki_random_32
chiaki:chiaki_random_bytes_crypt
chiaki:chiaki_recv_http_header
chiaki:chiaki_regist_fini
chiaki:chiaki_regist_request_payload_format
chiaki:chiaki_regist_start
chiaki:chiaki_regist_stop
chiaki:chiaki_reorder_queue_drop
chiaki:chiaki_reorder_queue_fini
chiaki:chiaki_reorder_queue_init
chiaki:chiaki_reorder_queue_init_16
chiaki:chiaki_reorder_queue_init_32
chiaki:chiaki_reorder_queue_peek
chiaki:chiaki_reorder_queue_pull
chiaki:chiaki_reorder_queue_push
chiaki:chiaki_rp_application_reason_string
chiaki:chiaki_rp_version_parse
chiaki:chiaki_rp_version_string
chiaki:chiaki_rpcrypt_aeropause
chiaki:chiaki_rpcrypt_aeropause_ps4_pre10
chiaki:chiaki_rpcrypt_bright_ambassador
chiaki:chiaki_rpcrypt_decrypt
chiaki:chiaki_rpcrypt_encrypt
chiaki:chiaki_rpcrypt_generate_iv
chiaki:chiaki_rpcrypt_init_auth
chiaki:chiaki_rpcrypt_init_regist
chiaki:chiaki_rpcrypt_init_regist_ps4_pre10
chiaki:chiaki_senkusha_fini
chiaki:chiaki_senkusha_init
chiaki:chiaki_senkusha_run
chiaki:chiaki_session_fini
chiaki:chiaki_session_goto_bed
chiaki:chiaki_session_init
chiaki:chiaki_session_join
chiaki:chiaki_session_keyboard_accept
chiaki:chiaki_session_keyboard_reject
chiaki:chiaki_session_keyboard_set_text
chiaki:chiaki_session_send_event
chiaki:chiaki_session_set_controller_state
chiaki:chiaki_session_set_login_pin
chiaki:chiaki_session_start
chiaki:chiaki_session_stop
chiaki:chiaki_socket_set_nonblock
chiaki:chiaki_stop_pipe_connect
chiaki:chiaki_stop_pipe_fini
chiaki:chiaki_stop_pipe_init
chiaki:chiaki_stop_pipe_reset
chiaki:chiaki_stop_pipe_select_single
chiaki:chiaki_stop_pipe_stop
chiaki:chiaki_stream_connection_fini
chiaki:chiaki_stream_connection_init
chiaki:chiaki_stream_connection_run
chiaki:chiaki_stream_connection_stop
chiaki:chiaki_stream_stats_bitrate
chiaki:chiaki_stream_stats_frame
chiaki:chiaki_stream_stats_reset
chiaki:chiaki_takion_close
chiaki:chiaki_takion_connect
chiaki:chiaki_takion_crypt_advance_key_pos
chiaki:chiaki_takion_format_congestion
chiaki:chiaki_takion_packet_mac
chiaki:chiaki_takion_send
chiaki:chiaki_takion_send_buffer_ack
chiaki:chiaki_takion_send_buffer_fini
chiaki:chiaki_takion_send_buffer_init
chiaki:chiaki_takion_send_buffer_push
chiaki:chiaki_takion_send_congestion
chiaki:chiaki_takion_send_feedback_history
chiaki:chiaki_takion_send_feedback_state
chiaki:chiaki_takion_send_message_data
chiaki:chiaki_takion_send_raw
chiaki:chiaki_takion_v12_av_packet_parse
chiaki:chiaki_takion_v7_av_packet_format_header
chiaki:chiaki_takion_v7_av_packet_parse
chiaki:chiaki_takion_v9_av_packet_parse
chiaki:chiaki_thread_create
chiaki:chiaki_thread_join
chiaki:chiaki_thread_set_name
chiaki:chiaki_time_now_monotonic_us
chiaki:chiaki_video_receiver_av_packet
chiaki:chiaki_video_receiver_fini
chiaki:chiaki_video_receiver_init
chiaki:chiaki_video_receiver_stream_info
chiaki:client_type
chiaki:client_type_ps4_pre10
chiaki:conversion_configs
chiaki:cpuid
chiaki:create_matrix
chiaki:galois_change_technique
chiaki:galois_get_field_ptr
chiaki:galois_init_composite_field
chiaki:galois_init_default_field
chiaki:galois_init_field
chiaki:galois_inverse
chiaki:galois_region_xor
chiaki:galois_single_divide
chiaki:galois_single_multiply
chiaki:galois_uninit_field
chiaki:galois_w08_region_multiply
chiaki:galois_w16_region_multiply
chiaki:galois_w16_region_xor
chiaki:galois_w32_region_multiply
chiaki:galois_w32_region_xor
chiaki:galois_w8_region_xor
chiaki:gf_alignment_error
chiaki:gf_bitmatrix_inverse
chiaki:gf_composite_get_default_poly
chiaki:gf_cpu_identified
chiaki:gf_cpu_identify
chiaki:gf_cpu_supports_arm_neon
chiaki:gf_cpu_supports_intel_pclmul
chiaki:gf_cpu_supports_intel_sse2
chiaki:gf_cpu_supports_intel_sse3
chiaki:gf_cpu_supports_intel_sse4
chiaki:gf_cpu_supports_intel_ssse3
chiaki:gf_do_final_region_alignment
chiaki:gf_do_initial_region_alignment
chiaki:gf_error
chiaki:gf_error_check
chiaki:gf_free
chiaki:gf_init_easy
chiaki:gf_init_hard
chiaki:gf_multby_one
chiaki:gf_multby_zero
chiaki:gf_scratch_size
chiaki:gf_set_region_data
chiaki:gf_size
chiaki:gf_two_byte_region_table_multiply
chiaki:gf_w128_bytwo_b_multiply
chiaki:gf_w128_bytwo_b_multiply_region
chiaki:gf_w128_bytwo_p_multiply
chiaki:gf_w128_divide_from_inverse
chiaki:gf_w128_euclid
chiaki:gf_w128_extract_word
chiaki:gf_w128_group_multiply
chiaki:gf_w128_init
chiaki:gf_w128_inverse_from_divide
chiaki:gf_w128_scratch_size
chiaki:gf_w128_shift_multiply
chiaki:gf_w16_get_div_alog_table
chiaki:gf_w16_get_log_table
chiaki:gf_w16_get_mult_alog_table
chiaki:gf_w16_init
chiaki:gf_w16_scratch_size
chiaki:gf_w16_split_8_8_multiply
chiaki:gf_w32_init
chiaki:gf_w32_scratch_size
chiaki:gf_w4_get_div_table
chiaki:gf_w4_get_mult_table
chiaki:gf_w4_init
chiaki:gf_w4_scratch_size
chiaki:gf_w64_init
chiaki:gf_w64_scratch_size
chiaki:gf_w64_split_16_64_lazy_multiply_region
chiaki:gf_w64_split_4_64_lazy_multiply_region
chiaki:gf_w64_split_8_64_lazy_multiply_region
chiaki:gf_w8_get_div_table
chiaki:gf_w8_get_mult_table
chiaki:gf_w8_init
chiaki:gf_w8_scratch_size
chiaki:gf_wgen_cauchy_region
chiaki:gf_wgen_extract_word
chiaki:gf_wgen_init
chiaki:gf_wgen_scratch_size
chiaki:gfp_array
chiaki:gfp_is_composite
chiaki:jerasure_autoconf_test
chiaki:jerasure_bitmatrix_decode
chiaki:jerasure_bitmatrix_dotprod
chiaki:jerasure_bitmatrix_encode
chiaki:jerasure_do_parity
chiaki:jerasure_do_scheduled_operations
chiaki:jerasure_dumb_bitmatrix_to_schedule
chiaki:jerasure_erasures_to_erased
chiaki:jerasure_free_schedule
chiaki:jerasure_free_schedule_cache
chiaki:jerasure_generate_schedule_cache
chiaki:jerasure_get_stats
chiaki:jerasure_invert_bitmatrix
chiaki:jerasure_invert_matrix
chiaki:jerasure_invertible_bitmatrix
chiaki:jerasure_invertible_matrix
chiaki:jerasure_make_decoding_bitmatrix
chiaki:jerasure_make_decoding_matrix
chiaki:jerasure_matrix_decode
chiaki:jerasure_matrix_dotprod
chiaki:jerasure_matrix_encode
chiaki:jerasure_matrix_multiply
chiaki:jerasure_matrix_to_bitmatrix
chiaki:jerasure_print_bitmatrix
chiaki:jerasure_print_matrix
chiaki:jerasure_schedule_decode_cache
chiaki:jerasure_schedule_decode_lazy
chiaki:jerasure_schedule_encode
chiaki:jerasure_smart_bitmatrix_to_schedule
chiaki:main
chiaki:pb_close_string_substream
chiaki:pb_decode
chiaki:pb_decode_bool
chiaki:pb_decode_ex
chiaki:pb_decode_fixed32
chiaki:pb_decode_fixed64
chiaki:pb_decode_svarint
chiaki:pb_decode_tag
chiaki:pb_decode_varint
chiaki:pb_decode_varint32
chiaki:pb_default_field_callback
chiaki:pb_encode
chiaki:pb_encode_ex
chiaki:pb_encode_fixed32
chiaki:pb_encode_fixed64
chiaki:pb_encode_string
chiaki:pb_encode_submessage
chiaki:pb_encode_svarint
chiaki:pb_encode_tag
chiaki:pb_encode_tag_for_field
chiaki:pb_encode_varint
chiaki:pb_field_iter_begin
chiaki:pb_field_iter_begin_const
chiaki:pb_field_iter_begin_extension
chiaki:pb_field_iter_begin_extension_const
chiaki:pb_field_iter_find
chiaki:pb_field_iter_find_extension
chiaki:pb_field_iter_next
chiaki:pb_get_encoded_size
chiaki:pb_istream_from_buffer
chiaki:pb_make_string_substream
chiaki:pb_ostream_from_buffer
chiaki:pb_read
chiaki:pb_skip_field
chiaki:pb_write
chiaki:stream_connection_send_corrupt_frame
chiaki:takion_packet_type_key_pos_offset
chiaki:takion_packet_type_mac_offset
chiaki:tkproto_AudioCapturePayload_field_info
chiaki:tkproto_AudioCapturePayload_msg
chiaki:tkproto_AudioCapturePayload_submsg_info
chiaki:tkproto_AudioChannelPayload_field_info
chiaki:tkproto_AudioChannelPayload_msg
chiaki:tkproto_AudioChannelPayload_submsg_info
chiaki:tkproto_BangPayload_field_info
chiaki:tkproto_BangPayload_msg
chiaki:tkproto_BangPayload_submsg_info
chiaki:tkproto_BigPayload_field_info
chiaki:tkproto_BigPayload_msg
chiaki:tkproto_BigPayload_submsg_info
chiaki:tkproto_BitratePayload_field_info
chiaki:tkproto_BitratePayload_msg
chiaki:tkproto_BitratePayload_submsg_info
chiaki:tkproto_ClientInfoPayload_field_info
chiaki:tkproto_ClientInfoPayload_msg
chiaki:tkproto_ClientInfoPayload_submsg_info
chiaki:tkproto_ClientMetricPayload_field_info
chiaki:tkproto_ClientMetricPayload_msg
chiaki:tkproto_ClientMetricPayload_submsg_info
chiaki:tkproto_ClientMetric_field_info
chiaki:tkproto_ClientMetric_msg
chiaki:tkproto_ClientMetric_submsg_info
chiaki:tkproto_ConnectionQualityPayload_field_info
chiaki:tkproto_ConnectionQualityPayload_msg
chiaki:tkproto_ConnectionQualityPayload_submsg_info
chiaki:tkproto_ControllerConnectionPayload_field_info
chiaki:tkproto_ControllerConnectionPayload_msg
chiaki:tkproto_ControllerConnectionPayload_submsg_info
chiaki:tkproto_CorruptFramePayload_field_info
chiaki:tkproto_CorruptFramePayload_msg
chiaki:tkproto_CorruptFramePayload_submsg_info
chiaki:tkproto_CursorPayload_field_info
chiaki:tkproto_CursorPayload_msg
chiaki:tkproto_CursorPayload_submsg_info
chiaki:tkproto_DebugOption_field_info
chiaki:tkproto_DebugOption_msg
chiaki:tkproto_DebugOption_submsg_info
chiaki:tkproto_DeepLinkPayload_field_info
chiaki:tkproto_DeepLinkPayload_msg
chiaki:tkproto_DeepLinkPayload_submsg_info
chiaki:tkproto_DirectMessagePayload_field_info
chiaki:tkproto_DirectMessagePayload_msg
chiaki:tkproto_DirectMessagePayload_submsg_info
chiaki:tkproto_DisconnectPayload_field_info
chiaki:tkproto_DisconnectPayload_msg
chiaki:tkproto_DisconnectPayload_submsg_info
chiaki:tkproto_EventCode_field_info
chiaki:tkproto_EventCode_msg
chiaki:tkproto_EventCode_submsg_info
chiaki:tkproto_FpsChangePayload_field_info
chiaki:tkproto_FpsChangePayload_msg
chiaki:tkproto_FpsChangePayload_submsg_info
chiaki:tkproto_GkTracePayload_field_info
chiaki:tkproto_GkTracePayload_msg
chiaki:tkproto_GkTracePayload_submsg_info
chiaki:tkproto_HeaderRequestPayload_field_info
chiaki:tkproto_HeaderRequestPayload_msg
chiaki:tkproto_HeaderRequestPayload_submsg_info
chiaki:tkproto_InfoPayload_field_info
chiaki:tkproto_InfoPayload_msg
chiaki:tkproto_InfoPayload_submsg_info
chiaki:tkproto_LogMessage_field_info
chiaki:tkproto_LogMessage_msg
chiaki:tkproto_LogMessage_submsg_info
chiaki:tkproto_LogPayload_field_info
chiaki:tkproto_LogPayload_msg
chiaki:tkproto_LogPayload_submsg_info
chiaki:tkproto_MicConnectionPayload_field_info
chiaki:tkproto_MicConnectionPayload_msg
chiaki:tkproto_MicConnectionPayload_submsg_info
chiaki:tkproto_MicInfoPayload_field_info
chiaki:tkproto_MicInfoPayload_msg
chiaki:tkproto_MicInfoPayload_submsg_info
chiaki:tkproto_OverlayPayload_field_info
chiaki:tkproto_OverlayPayload_msg
chiaki:tkproto_OverlayPayload_submsg_info
chiaki:tkproto_PacketLossPayload_field_info
chiaki:tkproto_PacketLossPayload_msg
chiaki:tkproto_PacketLossPayload_submsg_info
chiaki:tkproto_PeriodicTimestampPayload_field_info
chiaki:tkproto_PeriodicTimestampPayload_msg
chiaki:tkproto_PeriodicTimestampPayload_submsg_info
chiaki:tkproto_PlayTimeLeftPayload_field_info
chiaki:tkproto_PlayTimeLeftPayload_msg
chiaki:tkproto_PlayTimeLeftPayload_submsg_info
chiaki:tkproto_ResolutionPayload_field_info
chiaki:tkproto_ResolutionPayload_msg
chiaki:tkproto_ResolutionPayload_submsg_info
chiaki:tkproto_SenkushaBandwidthCommand_field_info
chiaki:tkproto_SenkushaBandwidthCommand_msg
chiaki:tkproto_SenkushaBandwidthCommand_submsg_info
chiaki:tkproto_SenkushaClientMtuCommand_field_info
chiaki:tkproto_SenkushaClientMtuCommand_msg
chiaki:tkproto_SenkushaClientMtuCommand_submsg_info
chiaki:tkproto_SenkushaEchoCommand_field_info
chiaki:tkproto_SenkushaEchoCommand_msg
chiaki:tkproto_SenkushaEchoCommand_submsg_info
chiaki:tkproto_SenkushaMtuCommand_field_info
chiaki:tkproto_SenkushaMtuCommand_msg
chiaki:tkproto_SenkushaMtuCommand_submsg_info
chiaki:tkproto_SenkushaPayload_field_info
chiaki:tkproto_SenkushaPayload_msg
chiaki:tkproto_SenkushaPayload_submsg_info
chiaki:tkproto_ServerMessagePayload_field_info
chiaki:tkproto_ServerMessagePayload_msg
chiaki:tkproto_ServerMessagePayload_submsg_info
chiaki:tkproto_ServerSettingsPayload_field_info
chiaki:tkproto_ServerSettingsPayload_msg
chiaki:tkproto_ServerSettingsPayload_submsg_info
chiaki:tkproto_StreamInfoPayload_field_info
chiaki:tkproto_StreamInfoPayload_msg
chiaki:tkproto_StreamInfoPayload_submsg_info
chiaki:tkproto_TakionMessage_field_info
chiaki:tkproto_TakionMessage_msg
chiaki:tkproto_TakionMessage_submsg_info
chiaki:tkproto_TakionProtocolRequestAckPayload_field_info
chiaki:tkproto_TakionProtocolRequestAckPayload_msg
chiaki:tkproto_TakionProtocolRequestAckPayload_submsg_info
chiaki:tkproto_TakionProtocolRequestPayload_field_info
chiaki:tkproto_TakionProtocolRequestPayload_msg
chiaki:tkproto_TakionProtocolRequestPayload_submsg_info
chiaki:tkproto_TimerPayload_field_info
chiaki:tkproto_TimerPayload_msg
chiaki:tkproto_TimerPayload_submsg_info
chiaki:tkproto_VideoCapturePayload_field_info
chiaki:tkproto_VideoCapturePayload_msg
chiaki:tkproto_VideoCapturePayload_submsg_info
chiaki:tkproto_XmbCommandPayload_field_info
chiaki:tkproto_XmbCommandPayload_msg
chiaki:tkproto_XmbCommandPayload_submsg_info
