libQt6Core.so.6:_Z26qt_QMetaEnum_debugOperatorR6QDebugxPK11QMetaObjectPKc
libQt6Core.so.6:_Z30qt_QMetaEnum_flagDebugOperatorR6QDebugmj
libQt6Core.so.6:_Z7qgetenvPKc
libQt6Core.so.6:_Z7qstrcmpPKcS0_
libQt6Core.so.6:_ZN10QArrayData10deallocateEPS_xx
libQt6Core.so.6:_ZN10QArrayData19reallocateUnalignedEPS_PvxxNS_16AllocationOptionE
libQt6Core.so.6:_ZN10QArrayData8allocateEPPS_xxxNS_16AllocationOptionE
libQt6Core.so.6:_ZN10QByteArray11reallocDataExN10QArrayData16AllocationOptionE
libQt6Core.so.6:_ZN10QByteArray6_emptyE
libQt6Core.so.6:_ZN10QByteArray6appendEc
libQt6Core.so.6:_ZN10QByteArray6insertEx14QByteArrayView
libQt6Core.so.6:_ZN10QByteArrayC1EPKcx
libQt6Core.so.6:_ZN10QByteArrayaSERKS_
libQt6Core.so.6:_ZN11QBasicMutex12lockInternalEv
libQt6Core.so.6:_ZN11QBasicMutex19unlockInternalFutexEPv
libQt6Core.so.6:_ZN11QDataStreamC1ERK10QByteArray
libQt6Core.so.6:_ZN11QDataStreamD1Ev
libQt6Core.so.6:_ZN11QDataStreamlsEi
libQt6Core.so.6:_ZN11QDataStreamrsERi
libQt6Core.so.6:_ZN11QMetaObject10ConnectionC1Ev
libQt6Core.so.6:_ZN11QMetaObject10ConnectionD1Ev
libQt6Core.so.6:_ZN11QMetaObject14normalizedTypeEPKc
libQt6Core.so.6:_ZN11QMetaObject16invokeMethodImplEP7QObjectPN9QtPrivate15QSlotObjectBaseEN2Qt14ConnectionTypeExPKPKvPKPKcPKPKNS2_18QMetaTypeInterfaceE
libQt6Core.so.6:_ZN11QMetaObject8activateEP7QObjectPKS_iPPv
libQt6Core.so.6:_ZN11QTextStreamlsEPKv
libQt6Core.so.6:_ZN11QTextStreamlsERK7QString
libQt6Core.so.6:_ZN11QTextStreamlsEc
libQt6Core.so.6:_ZN11QTextStreamlsEi
libQt6Core.so.6:_ZN11QTextStreamlsEj
libQt6Core.so.6:_ZN11QThreadPool14globalInstanceEv
libQt6Core.so.6:_ZN11QThreadPool5startEP9QRunnablei
libQt6Core.so.6:_ZN13QMimeDatabaseC1Ev
libQt6Core.so.6:_ZN13QMimeDatabaseD1Ev
libQt6Core.so.6:_ZN15QRecursiveMutex6unlockEv
libQt6Core.so.6:_ZN15QRecursiveMutex7tryLockE14QDeadlineTimer
libQt6Core.so.6:_ZN15QRecursiveMutexD1Ev
libQt6Core.so.6:_ZN15QSocketNotifier16staticMetaObjectE
libQt6Core.so.6:_ZN15QSocketNotifier9activatedE17QSocketDescriptorNS_4TypeENS_14QPrivateSignalE
libQt6Core.so.6:_ZN15QSocketNotifierC1ExNS_4TypeEP7QObject
libQt6Core.so.6:_ZN15QtSharedPointer20ExternalRefCountData9getAndRefEPK7QObject
libQt6Core.so.6:_ZN16QCoreApplication15eventDispatcherEv
libQt6Core.so.6:_ZN16QLoggingCategoryC1EPKc9QtMsgType
libQt6Core.so.6:_ZN16QLoggingCategoryD1Ev
libQt6Core.so.6:_ZN18QAbstractItemModel10insertRowsEiiRK11QModelIndex
libQt6Core.so.6:_ZN18QAbstractItemModel10removeRowsEiiRK11QModelIndex
libQt6Core.so.6:_ZN18QAbstractItemModel11dataChangedERK11QModelIndexS2_RK5QListIiE
libQt6Core.so.6:_ZN18QAbstractItemModel11moveColumnsERK11QModelIndexiiS2_i
libQt6Core.so.6:_ZN18QAbstractItemModel11setItemDataERK11QModelIndexRK4QMapIi8QVariantE
libQt6Core.so.6:_ZN18QAbstractItemModel13clearItemDataERK11QModelIndex
libQt6Core.so.6:_ZN18QAbstractItemModel13endInsertRowsEv
libQt6Core.so.6:_ZN18QAbstractItemModel13endRemoveRowsEv
libQt6Core.so.6:_ZN18QAbstractItemModel13endResetModelEv
libQt6Core.so.6:_ZN18QAbstractItemModel13insertColumnsEiiRK11QModelIndex
libQt6Core.so.6:_ZN18QAbstractItemModel13removeColumnsEiiRK11QModelIndex
libQt6Core.so.6:_ZN18QAbstractItemModel13setHeaderDataEiN2Qt11OrientationERK8QVarianti
libQt6Core.so.6:_ZN18QAbstractItemModel15beginInsertRowsERK11QModelIndexii
libQt6Core.so.6:_ZN18QAbstractItemModel15beginRemoveRowsERK11QModelIndexii
libQt6Core.so.6:_ZN18QAbstractItemModel15beginResetModelEv
libQt6Core.so.6:_ZN18QAbstractItemModel17resetInternalDataEv
libQt6Core.so.6:_ZN18QAbstractItemModel4sortEiN2Qt9SortOrderE
libQt6Core.so.6:_ZN18QAbstractItemModel6revertEv
libQt6Core.so.6:_ZN18QAbstractItemModel6submitEv
libQt6Core.so.6:_ZN18QAbstractItemModel7setDataERK11QModelIndexRK8QVarianti
libQt6Core.so.6:_ZN18QAbstractItemModel8moveRowsERK11QModelIndexiiS2_i
libQt6Core.so.6:_ZN18QAbstractItemModel9fetchMoreERK11QModelIndex
libQt6Core.so.6:_ZN18QAbstractListModel11qt_metacallEN11QMetaObject4CallEiPPv
libQt6Core.so.6:_ZN18QAbstractListModel11qt_metacastEPKc
libQt6Core.so.6:_ZN18QAbstractListModel12dropMimeDataEPK9QMimeDataN2Qt10DropActionEiiRK11QModelIndex
libQt6Core.so.6:_ZN18QAbstractListModel16staticMetaObjectE
libQt6Core.so.6:_ZN18QAbstractListModelC2EP7QObject
libQt6Core.so.6:_ZN18QAbstractListModelD2Ev
libQt6Core.so.6:_ZN18QFileSystemWatcher11fileChangedERK7QStringNS_14QPrivateSignalE
libQt6Core.so.6:_ZN18QFileSystemWatcher16directoryChangedERK7QStringNS_14QPrivateSignalE
libQt6Core.so.6:_ZN18QFileSystemWatcher16staticMetaObjectE
libQt6Core.so.6:_ZN18QFileSystemWatcher7addPathERK7QString
libQt6Core.so.6:_ZN18QFileSystemWatcherC1EP7QObject
libQt6Core.so.6:_ZN18QFutureWatcherBase11qt_metacallEN11QMetaObject4CallEiPPv
libQt6Core.so.6:_ZN18QFutureWatcherBase11qt_metacastEPKc
libQt6Core.so.6:_ZN18QFutureWatcherBase13connectNotifyERK11QMetaMethod
libQt6Core.so.6:_ZN18QFutureWatcherBase16disconnectNotifyERK11QMetaMethod
libQt6Core.so.6:_ZN18QFutureWatcherBase16staticMetaObjectE
libQt6Core.so.6:_ZN18QFutureWatcherBase22connectOutputInterfaceEv
libQt6Core.so.6:_ZN18QFutureWatcherBase25disconnectOutputInterfaceEb
libQt6Core.so.6:_ZN18QFutureWatcherBase5eventEP6QEvent
libQt6Core.so.6:_ZN18QFutureWatcherBase8finishedEv
libQt6Core.so.6:_ZN18QFutureWatcherBaseC2EP7QObject
libQt6Core.so.6:_ZN20QFutureInterfaceBase11setRunnableEP9QRunnable
libQt6Core.so.6:_ZN20QFutureInterfaceBase13reportStartedEv
libQt6Core.so.6:_ZN20QFutureInterfaceBase13setThreadPoolEP11QThreadPool
libQt6Core.so.6:_ZN20QFutureInterfaceBase13waitForResultEi
libQt6Core.so.6:_ZN20QFutureInterfaceBase14reportCanceledEv
libQt6Core.so.6:_ZN20QFutureInterfaceBase14reportFinishedEv
libQt6Core.so.6:_ZN20QFutureInterfaceBase15resultStoreBaseEv
libQt6Core.so.6:_ZN20QFutureInterfaceBase18reportResultsReadyEii
libQt6Core.so.6:_ZN20QFutureInterfaceBase4swapERS_
libQt6Core.so.6:_ZN20QFutureInterfaceBaseC2ENS_5StateE
libQt6Core.so.6:_ZN20QFutureInterfaceBaseC2ERKS_
libQt6Core.so.6:_ZN20QFutureInterfaceBaseD2Ev
libQt6Core.so.6:_ZN24QAbstractEventDispatcher12aboutToBlockEv
libQt6Core.so.6:_ZN24QAbstractEventDispatcher16staticMetaObjectE
libQt6Core.so.6:_ZN24QAbstractEventDispatcher5awakeEv
libQt6Core.so.6:_ZN2Qt16staticMetaObjectE
libQt6Core.so.6:_ZN4QDirC1ERK7QString
libQt6Core.so.6:_ZN4QDirD1Ev
libQt6Core.so.6:_ZN5QFile6existsERK7QString
libQt6Core.so.6:_ZN6QDebug9putStringEPK5QCharm
libQt6Core.so.6:_ZN6QDebugD1Ev
libQt6Core.so.6:_ZN6QTimer11setIntervalEi
libQt6Core.so.6:_ZN6QTimer13setSingleShotEb
libQt6Core.so.6:_ZN6QTimer16staticMetaObjectE
libQt6Core.so.6:_ZN6QTimer5startEv
libQt6Core.so.6:_ZN6QTimer7timeoutENS_14QPrivateSignalE
libQt6Core.so.6:_ZN6QTimerC1EP7QObject
libQt6Core.so.6:_ZN7QObject10childEventEP11QChildEvent
libQt6Core.so.6:_ZN7QObject10disconnectERKN11QMetaObject10ConnectionE
libQt6Core.so.6:_ZN7QObject10timerEventEP11QTimerEvent
libQt6Core.so.6:_ZN7QObject11connectImplEPKS_PPvS1_S3_PN9QtPrivate15QSlotObjectBaseEN2Qt14ConnectionTypeEPKiPK11QMetaObject
libQt6Core.so.6:_ZN7QObject11customEventEP6QEvent
libQt6Core.so.6:_ZN7QObject11deleteLaterEv
libQt6Core.so.6:_ZN7QObject11eventFilterEPS_P6QEvent
libQt6Core.so.6:_ZN7QObject11qt_metacallEN11QMetaObject4CallEiPPv
libQt6Core.so.6:_ZN7QObject11qt_metacastEPKc
libQt6Core.so.6:_ZN7QObject13connectNotifyERK11QMetaMethod
libQt6Core.so.6:_ZN7QObject16disconnectNotifyERK11QMetaMethod
libQt6Core.so.6:_ZN7QObject16staticMetaObjectE
libQt6Core.so.6:_ZN7QObject5eventEP6QEvent
libQt6Core.so.6:_ZN7QObject9destroyedEPS_
libQt6Core.so.6:_ZN7QObject9setParentEPS_
libQt6Core.so.6:_ZN7QObjectC2EPS_
libQt6Core.so.6:_ZN7QObjectD2Ev
libQt6Core.so.6:_ZN7QString13toUtf8_helperERKS_
libQt6Core.so.6:_ZN7QString15toLatin1_helperERKS_
libQt6Core.so.6:_ZN7QString6_emptyE
libQt6Core.so.6:_ZN7QString6assignE14QAnyStringView
libQt6Core.so.6:_ZN7QString8fromUtf8E14QByteArrayView
libQt6Core.so.6:_ZN7QStringaSERKS_
libQt6Core.so.6:_ZN8QVariantC1E5QRect
libQt6Core.so.6:_ZN8QVariantC1ERK10QByteArray
libQt6Core.so.6:_ZN8QVariantC1ERK5QListI7QStringE
libQt6Core.so.6:_ZN8QVariantC1ERK7QString
libQt6Core.so.6:_ZN8QVariantC1ERKS_
libQt6Core.so.6:_ZN8QVariantC1Eb
libQt6Core.so.6:_ZN8QVariantC1Ej
libQt6Core.so.6:_ZN8QVariantD1Ev
libQt6Core.so.6:_ZN8QVariantaSERKS_
libQt6Core.so.6:_ZN9QHashSeed10globalSeedEv
libQt6Core.so.6:_ZN9QMetaType14registerHelperEPKN9QtPrivate18QMetaTypeInterfaceE
libQt6Core.so.6:_ZN9QMetaType25registerNormalizedTypedefERK10QByteArrayS_
libQt6Core.so.6:_ZN9QMimeTypeC1ERKS_
libQt6Core.so.6:_ZN9QMimeTypeD1Ev
libQt6Core.so.6:_ZN9QRunnableD2Ev
libQt6Core.so.6:_ZN9QtPrivate12equalStringsE11QStringViewS0_
libQt6Core.so.6:_ZN9QtPrivate13convertToUtf8E11QStringView
libQt6Core.so.6:_ZN9QtPrivate15ResultStoreBase9addResultEiPKv
libQt6Core.so.6:_ZN9QtPrivate25QMetaTypeInterfaceWrapperI10QByteArrayE8metaTypeE
libQt6Core.so.6:_ZN9QtPrivate25QMetaTypeInterfaceWrapperI5QRectE8metaTypeE
libQt6Core.so.6:_ZN9QtPrivate25QMetaTypeInterfaceWrapperI5QSizeE8metaTypeE
libQt6Core.so.6:_ZN9QtPrivate25QMetaTypeInterfaceWrapperI6QSizeFE8metaTypeE
libQt6Core.so.6:_ZN9QtPrivate25QMetaTypeInterfaceWrapperI7QPointFE8metaTypeE
libQt6Core.so.6:_ZN9QtPrivate25QMetaTypeInterfaceWrapperI7QStringE8metaTypeE
libQt6Core.so.6:_ZN9QtPrivate25QMetaTypeInterfaceWrapperIbE8metaTypeE
libQt6Core.so.6:_ZN9QtPrivate25QMetaTypeInterfaceWrapperIdE8metaTypeE
libQt6Core.so.6:_ZN9QtPrivate25QMetaTypeInterfaceWrapperIiE8metaTypeE
libQt6Core.so.6:_ZN9QtPrivate25QMetaTypeInterfaceWrapperIjE8metaTypeE
libQt6Core.so.6:_ZN9QtPrivate25QMetaTypeInterfaceWrapperIyE8metaTypeE
libQt6Core.so.6:_ZNK10QByteArray5splitEc
libQt6Core.so.6:_ZNK11QMetaObject10enumeratorEi
libQt6Core.so.6:_ZNK11QMetaObject17indexOfEnumeratorEPKc
libQt6Core.so.6:_ZNK11QMetaObject9classNameEv
libQt6Core.so.6:_ZNK11QObjectData17dynamicMetaObjectEv
libQt6Core.so.6:_ZNK13QMimeDatabase15mimeTypeForNameERK7QString
libQt6Core.so.6:_ZNK14QMessageLogger5debugEv
libQt6Core.so.6:_ZNK14QMessageLogger7warningEv
libQt6Core.so.6:_ZNK18QAbstractItemModel10headerDataEiN2Qt11OrientationEi
libQt6Core.so.6:_ZNK18QAbstractItemModel12canFetchMoreERK11QModelIndex
libQt6Core.so.6:_ZNK18QAbstractItemModel15canDropMimeDataEPK9QMimeDataN2Qt10DropActionEiiRK11QModelIndex
libQt6Core.so.6:_ZNK18QAbstractItemModel20supportedDragActionsEv
libQt6Core.so.6:_ZNK18QAbstractItemModel20supportedDropActionsEv
libQt6Core.so.6:_ZNK18QAbstractItemModel4spanERK11QModelIndex
libQt6Core.so.6:_ZNK18QAbstractItemModel5buddyERK11QModelIndex
libQt6Core.so.6:_ZNK18QAbstractItemModel5matchERK11QModelIndexiRK8QVarianti6QFlagsIN2Qt9MatchFlagEE
libQt6Core.so.6:_ZNK18QAbstractItemModel8hasIndexEiiRK11QModelIndex
libQt6Core.so.6:_ZNK18QAbstractItemModel8itemDataERK11QModelIndex
libQt6Core.so.6:_ZNK18QAbstractItemModel8mimeDataERK5QListI11QModelIndexE
libQt6Core.so.6:_ZNK18QAbstractItemModel9mimeTypesEv
libQt6Core.so.6:_ZNK18QAbstractItemModel9multiDataERK11QModelIndex18QModelRoleDataSpan
libQt6Core.so.6:_ZNK18QAbstractListModel11columnCountERK11QModelIndex
libQt6Core.so.6:_ZNK18QAbstractListModel11hasChildrenERK11QModelIndex
libQt6Core.so.6:_ZNK18QAbstractListModel5flagsERK11QModelIndex
libQt6Core.so.6:_ZNK18QAbstractListModel6parentERK11QModelIndex
libQt6Core.so.6:_ZNK18QAbstractListModel7siblingEiiRK11QModelIndex
libQt6Core.so.6:_ZNK18QFutureWatcherBase10metaObjectEv
libQt6Core.so.6:_ZNK20QFutureInterfaceBase10isCanceledEv
libQt6Core.so.6:_ZNK20QFutureInterfaceBase10queryStateENS_5StateE
libQt6Core.so.6:_ZNK20QFutureInterfaceBase12hasExceptionEv
libQt6Core.so.6:_ZNK20QFutureInterfaceBase15resultStoreBaseEv
libQt6Core.so.6:_ZNK20QFutureInterfaceBase15runContinuationEv
libQt6Core.so.6:_ZNK20QFutureInterfaceBase4refTEv
libQt6Core.so.6:_ZNK20QFutureInterfaceBase5mutexEv
libQt6Core.so.6:_ZNK20QFutureInterfaceBase6derefTEv
libQt6Core.so.6:_ZNK4QDir12absolutePathEv
libQt6Core.so.6:_ZNK4QDir16absoluteFilePathERK7QString
libQt6Core.so.6:_ZNK4QDir6existsERK7QString
libQt6Core.so.6:_ZNK4QDir6existsEv
libQt6Core.so.6:_ZNK9QMetaEnum3keyEi
libQt6Core.so.6:_ZNK9QMetaEnum5valueEi
libQt6Core.so.6:_ZNK9QMetaEnum8keyCountEv
libQt6Core.so.6:_ZNK9QMimeType4nameEv
libQt6Core.so.6:_ZNK9QMimeType7isValidEv
libQt6Core.so.6:_ZNK9QtPrivate15ResultStoreBase10filterModeEv
libQt6Core.so.6:_ZNK9QtPrivate15ResultStoreBase23containsValidResultItemEi
libQt6Core.so.6:_ZNK9QtPrivate15ResultStoreBase5countEv
libQt6Core.so.6:_ZNK9QtPrivate15ResultStoreBase8resultAtEi
libQt6Core.so.6:_ZTI18QAbstractListModel
libQt6Core.so.6:_ZTI18QFutureWatcherBase
libQt6Core.so.6:_ZTI20QFutureInterfaceBase
libQt6Core.so.6:_ZTI7QObject
libQt6Core.so.6:_ZTI9QRunnable
libQt6Core.so.6:qt_version_tag
libQt6Gui.so.6:_ZN15QGuiApplication10allWindowsEv
libQt6Gui.so.6:_ZN15QGuiApplication23platformNativeInterfaceEv
libQt6Gui.so.6:_ZN5QIcon9fromThemeERK7QString
libQt6Gui.so.6:_ZN5QIconC1ERKS_
libQt6Gui.so.6:_ZN5QIconC1Ev
libQt6Gui.so.6:_ZN5QIconD1Ev
libQt6Gui.so.6:_ZN5QIconaSERKS_
libQt6Gui.so.6:_ZN6QImage16staticMetaObjectE
libQt6Gui.so.6:_ZN6QImage4bitsEv
libQt6Gui.so.6:_ZN6QImageD1Ev
libQt6Gui.so.6:_ZN7QRegionC1ERK5QRectNS_10RegionTypeE
libQt6Gui.so.6:_ZN7QRegionC1ERKS_
libQt6Gui.so.6:_ZN7QRegionC1Ev
libQt6Gui.so.6:_ZN7QRegionD1Ev
libQt6Gui.so.6:_ZN7QWindow6createEv
libQt6Gui.so.6:_ZNK5QIcon6isNullEv
libQt6Gui.so.6:_ZNK5QIconcv8QVariantEv
libQt6Gui.so.6:_ZNK6QColor3redEv
libQt6Gui.so.6:_ZNK6QColor4blueEv
libQt6Gui.so.6:_ZNK6QColor5alphaEv
libQt6Gui.so.6:_ZNK6QColor5greenEv
libQt6Gui.so.6:_ZNK6QImage12bytesPerLineEv
libQt6Gui.so.6:_ZNK6QImage22convertToFormat_helperENS_6FormatE6QFlagsIN2Qt19ImageConversionFlagEE
libQt6Gui.so.6:_ZNK6QImage4bitsEv
libQt6Gui.so.6:_ZNK6QImage4sizeEv
libQt6Gui.so.6:_ZNK6QImage6formatEv
libQt6Gui.so.6:_ZNK6QImage6isNullEv
libQt6Gui.so.6:_ZNK7QRegion10subtractedERKS_
libQt6Gui.so.6:_ZNK7QRegion3endEv
libQt6Gui.so.6:_ZNK7QRegion5beginEv
libQt6Gui.so.6:_ZNK7QRegion6unitedERK5QRect
libQt6Gui.so.6:_ZNK7QRegion6unitedERKS_
libQt6Gui.so.6:_ZNK7QWindow5winIdEv
libQt6Gui.so.6:_ZNK7QWindow6handleEv
libQt6Gui.so.6:_ZTI15QPlatformWindow
libQt6Gui.so.6:_ZrsR11QDataStreamR5QIcon
libQt6WaylandClient.so.6:_ZN15QtWaylandClient14QWaylandWindow16staticMetaObjectE
libQt6WaylandClient.so.6:_ZN15QtWaylandClient14QWaylandWindow18wlSurfaceDestroyedEv
libQt6WaylandClient.so.6:_ZTIN15QtWaylandClient14QWaylandWindowE
libc.so.6:__cxa_atexit
libc.so.6:__errno_location
libc.so.6:__poll_chk
libc.so.6:__read_chk
libc.so.6:__stack_chk_fail
libc.so.6:abort
libc.so.6:close
libc.so.6:fcntl
libc.so.6:free
libc.so.6:ftruncate
libc.so.6:memcmp
libc.so.6:memcpy
libc.so.6:memfd_create
libc.so.6:memmove
libc.so.6:mkstemp
libc.so.6:mmap
libc.so.6:munmap
libc.so.6:pipe2
libc.so.6:strcmp
libc.so.6:strlen
libc.so.6:unlink
libc.so.6:usleep
libm.so.6:round
libstdc++.so.6:_ZSt18_Rb_tree_decrementPSt18_Rb_tree_node_base
libstdc++.so.6:_ZSt18_Rb_tree_incrementPSt18_Rb_tree_node_base
libstdc++.so.6:_ZSt29_Rb_tree_insert_and_rebalancebPSt18_Rb_tree_node_baseS0_RS_
libstdc++.so.6:_ZTVN10__cxxabiv117__class_type_infoE
libstdc++.so.6:_ZTVN10__cxxabiv120__si_class_type_infoE
libstdc++.so.6:_ZdaPv
libstdc++.so.6:_ZdaPvm
libstdc++.so.6:_ZdlPv
libstdc++.so.6:_ZdlPvm
libstdc++.so.6:_Znam
libstdc++.so.6:_Znwm
libstdc++.so.6:__cxa_guard_acquire
libstdc++.so.6:__cxa_guard_release
libstdc++.so.6:__cxa_pure_virtual
libstdc++.so.6:__dynamic_cast
libwayland-client.so.0:wl_buffer_interface
libwayland-client.so.0:wl_callback_interface
libwayland-client.so.0:wl_compositor_interface
libwayland-client.so.0:wl_data_device_interface
libwayland-client.so.0:wl_data_device_manager_interface
libwayland-client.so.0:wl_data_source_interface
libwayland-client.so.0:wl_display_cancel_read
libwayland-client.so.0:wl_display_connect
libwayland-client.so.0:wl_display_connect_to_fd
libwayland-client.so.0:wl_display_create_queue
libwayland-client.so.0:wl_display_disconnect
libwayland-client.so.0:wl_display_dispatch_pending
libwayland-client.so.0:wl_display_dispatch_queue_pending
libwayland-client.so.0:wl_display_flush
libwayland-client.so.0:wl_display_get_error
libwayland-client.so.0:wl_display_get_fd
libwayland-client.so.0:wl_display_prepare_read
libwayland-client.so.0:wl_display_read_events
libwayland-client.so.0:wl_display_roundtrip
libwayland-client.so.0:wl_event_queue_destroy
libwayland-client.so.0:wl_keyboard_interface
libwayland-client.so.0:wl_output_interface
libwayland-client.so.0:wl_pointer_interface
libwayland-client.so.0:wl_proxy_add_listener
libwayland-client.so.0:wl_proxy_destroy
libwayland-client.so.0:wl_proxy_get_id
libwayland-client.so.0:wl_proxy_get_user_data
libwayland-client.so.0:wl_proxy_get_version
libwayland-client.so.0:wl_proxy_marshal
libwayland-client.so.0:wl_proxy_marshal_constructor
libwayland-client.so.0:wl_proxy_marshal_flags
libwayland-client.so.0:wl_proxy_set_queue
libwayland-client.so.0:wl_proxy_set_user_data
libwayland-client.so.0:wl_region_interface
libwayland-client.so.0:wl_registry_interface
libwayland-client.so.0:wl_seat_interface
libwayland-client.so.0:wl_shell_interface
libwayland-client.so.0:wl_shell_surface_interface
libwayland-client.so.0:wl_shm_interface
libwayland-client.so.0:wl_shm_pool_interface
libwayland-client.so.0:wl_subcompositor_interface
libwayland-client.so.0:wl_subsurface_interface
libwayland-client.so.0:wl_surface_interface
libwayland-client.so.0:wl_touch_interface
