UNKNOWN:_ZTI10FileSystem
UNKNOWN:_ZTI13PartitionNode
UNKNOWN:_ZTI14PartitionTable
UNKNOWN:_ZTI22CalamaresPluginFactory
UNKNOWN:_ZTI6Device
UNKNOWN:_ZTI9LvmDevice
UNKNOWN:_ZTI9Partition
UNKNOWN:_ZTIN2FS4luksE
UNKNOWN:_ZTIN4YAML11InvalidNodeE
UNKNOWN:_ZTIN4YAML11KeyNotFoundE
UNKNOWN:_ZTIN4YAML12BadSubscriptE
UNKNOWN:_ZTIN4YAML13BadConversionE
UNKNOWN:_ZTIN4YAML9ExceptionE
UNKNOWN:_ZTIN5boost6python15instance_holderE
UNKNOWN:_ZTIN5boost6python17error_already_setE
UNKNOWN:_ZTIN5boost6python7objects21py_function_impl_baseE
UNKNOWN:_ZTIN9Calamares11QmlViewStepE
UNKNOWN:_ZTIN9Calamares12ModuleSystem6ConfigE
UNKNOWN:_ZTIN9Calamares3JobE
UNKNOWN:_ZTIN9Calamares6CppJobE
UNKNOWN:_ZTIN9Calamares6ModuleE
UNKNOWN:_ZTIN9Calamares8ViewStepE
UNKNOWN:_ZTV15ResizeOperation
UNKNOWN:_ZTV21SetPartFlagsOperation
UNKNOWN:_ZTV26CreateVolumeGroupOperation
UNKNOWN:_ZTV26RemoveVolumeGroupOperation
UNKNOWN:_ZTV26ResizeVolumeGroupOperation
UNKNOWN:_ZTV27SetFileSystemLabelOperation
UNKNOWN:_ZTV30DeactivateVolumeGroupOperation
UNKNOWN:_ZTVN14CalamaresUtils6Locale11TranslationE
UNKNOWN:_ZTVN4YAML11InvalidNodeE
UNKNOWN:_ZTVN4YAML11KeyNotFoundE
UNKNOWN:_ZTVN4YAML12BadSubscriptE
UNKNOWN:_ZTVN4YAML13BadConversionE
UNKNOWN:_ZTVN4YAML23RepresentationExceptionE
UNKNOWN:_ZTVN4YAML9ExceptionE
UNKNOWN:_ZTVN9Calamares17RequirementsModelE
UNKNOWN:_ZTVN9Calamares9JobResultE
libKF5ConfigCore.so.5:_ZN12KConfigGroup10writeEntryEPKcRK7QString6QFlagsIN11KConfigBase15WriteConfigFlagEE
libKF5ConfigCore.so.5:_ZN12KConfigGroupC1ERK28QExplicitlySharedDataPointerI13KSharedConfigEPKc
libKF5ConfigCore.so.5:_ZN12KConfigGroupD1Ev
libKF5ConfigCore.so.5:_ZN13KSharedConfig10openConfigERK7QString6QFlagsIN7KConfig8OpenFlagEEN14QStandardPaths16StandardLocationE
libKF5ConfigCore.so.5:_ZNK12KConfigGroup9readEntryEPKcRK7QString
libKF5CoreAddons.so.5:_ZN10KAboutData18setApplicationDataERKS_
libKF5CoreAddons.so.5:_ZN10KAboutDataC1ERK7QStringS2_S2_S2_N13KAboutLicense10LicenseKeyES2_S2_S2_S2_
libKF5CoreAddons.so.5:_ZN10KAboutDataD1Ev
libKF5CoreAddons.so.5:_ZN10KOSReleaseC1ERK7QString
libKF5CoreAddons.so.5:_ZN10KOSReleaseD1Ev
libKF5CoreAddons.so.5:_ZN14KMacroExpander12expandMacrosERK7QStringRK5QHashIS0_S0_E5QChar
libKF5CoreAddons.so.5:_ZN14KPluginFactory11loadFactoryERK15KPluginMetaData
libKF5CoreAddons.so.5:_ZN14KPluginFactory11qt_metacallEN11QMetaObject4CallEiPPv
libKF5CoreAddons.so.5:_ZN14KPluginFactory11qt_metacastEPKc
libKF5CoreAddons.so.5:_ZN14KPluginFactory12createObjectEP7QObjectPKcRK11QStringList
libKF5CoreAddons.so.5:_ZN14KPluginFactory14registerPluginERK7QStringPK11QMetaObjectPFP7QObjectP7QWidgetS7_RK5QListI8QVariantEE
libKF5CoreAddons.so.5:_ZN14KPluginFactory16createPartObjectEP7QWidgetP7QObjectPKcRK11QStringList
libKF5CoreAddons.so.5:_ZN14KPluginFactory16staticMetaObjectE
libKF5CoreAddons.so.5:_ZN14KPluginFactory29logFailedInstantiationMessageEPKc15KPluginMetaData
libKF5CoreAddons.so.5:_ZN14KPluginFactory6createEPKcP7QWidgetP7QObjectRK5QListI8QVariantERK7QString
libKF5CoreAddons.so.5:_ZN14KPluginFactoryC2Ev
libKF5CoreAddons.so.5:_ZN14KPluginFactoryD2Ev
libKF5CoreAddons.so.5:_ZN15KPluginMetaData14findPluginByIdERK7QStringS2_
libKF5CoreAddons.so.5:_ZN15KPluginMetaDataC1ERKS_
libKF5CoreAddons.so.5:_ZN15KPluginMetaDataD1Ev
libKF5CoreAddons.so.5:_ZNK10KOSRelease10prettyNameEv
libKF5CoreAddons.so.5:_ZNK10KOSRelease10supportUrlEv
libKF5CoreAddons.so.5:_ZNK10KOSRelease12bugReportUrlEv
libKF5CoreAddons.so.5:_ZNK10KOSRelease15versionCodenameEv
libKF5CoreAddons.so.5:_ZNK10KOSRelease16documentationUrlEv
libKF5CoreAddons.so.5:_ZNK10KOSRelease16privacyPolicyUrlEv
libKF5CoreAddons.so.5:_ZNK10KOSRelease2idEv
libKF5CoreAddons.so.5:_ZNK10KOSRelease4logoEv
libKF5CoreAddons.so.5:_ZNK10KOSRelease4nameEv
libKF5CoreAddons.so.5:_ZNK10KOSRelease6idLikeEv
libKF5CoreAddons.so.5:_ZNK10KOSRelease7buildIdEv
libKF5CoreAddons.so.5:_ZNK10KOSRelease7homeUrlEv
libKF5CoreAddons.so.5:_ZNK10KOSRelease7variantEv
libKF5CoreAddons.so.5:_ZNK10KOSRelease7versionEv
libKF5CoreAddons.so.5:_ZNK10KOSRelease9variantIdEv
libKF5CoreAddons.so.5:_ZNK10KOSRelease9versionIdEv
libKF5CoreAddons.so.5:_ZNK15KPluginMetaData11descriptionEv
libKF5CoreAddons.so.5:_ZNK15KPluginMetaData4nameEv
libKF5CoreAddons.so.5:_ZNK15KPluginMetaData7isValidEv
libKF5CoreAddons.so.5:_ZNK15KPluginMetaData8fileNameEv
libKF5CoreAddons.so.5:_ZNK15KPluginMetaData8pluginIdEv
libKF5CoreAddons.so.5:_ZTI14KPluginFactory
libKF5Crash.so.5:_ZN6KCrash10initializeEv
libKF5Crash.so.5:_ZN6KCrash17setDrKonqiEnabledEb
libKF5Crash.so.5:_ZN6KCrash8setFlagsE6QFlagsINS_9CrashFlagEE
libKF5Package.so.5:_ZN8KPackage13PackageLoader12listPackagesERK7QStringS3_
libKF5Package.so.5:_ZN8KPackage13PackageLoader4selfEv
libKF5Parts.so.5:_ZN6KParts12ReadOnlyPart16staticMetaObjectE
libKF5Parts.so.5:_ZN6KParts4Part17setAutoDeletePartEb
libKF5Parts.so.5:_ZN6KParts4Part19setAutoDeleteWidgetEb
libQt5Core.so.5:_Z21qRegisterResourceDataiPKhS0_S0_
libQt5Core.so.5:_Z22qInstallMessageHandlerPFv9QtMsgTypeRK18QMessageLogContextRK7QStringE
libQt5Core.so.5:_Z23qUnregisterResourceDataiPKhS0_S0_
libQt5Core.so.5:_Z23qt_qFindChildren_helperPK7QObjectRK7QStringRK11QMetaObjectP5QListIPvE6QFlagsIN2Qt15FindChildOptionEE
libQt5Core.so.5:_Z26qt_QMetaEnum_debugOperatorR6QDebugiPK11QMetaObjectPKc
libQt5Core.so.5:_Z5qHashRK7QStringj
libQt5Core.so.5:_Z7qgetenvPKc
libQt5Core.so.5:_Z7qstrcmpRK10QByteArrayPKc
libQt5Core.so.5:_Z9qBadAllocv
libQt5Core.so.5:_ZN10QArrayData10deallocateEPS_mm
libQt5Core.so.5:_ZN10QArrayData11shared_nullE
libQt5Core.so.5:_ZN10QArrayData8allocateEmmm6QFlagsINS_16AllocationOptionEE
libQt5Core.so.5:_ZN10QByteArray11reallocDataEj6QFlagsIN10QArrayData16AllocationOptionEE
libQt5Core.so.5:_ZN10QByteArray17simplified_helperERKS_
libQt5Core.so.5:_ZN10QByteArray17simplified_helperERS_
libQt5Core.so.5:_ZN10QByteArray4chopEi
libQt5Core.so.5:_ZN10QByteArray4fillEci
libQt5Core.so.5:_ZN10QByteArray5clearEv
libQt5Core.so.5:_ZN10QByteArray6appendEPKc
libQt5Core.so.5:_ZN10QByteArray6appendEPKci
libQt5Core.so.5:_ZN10QByteArray6appendERKS_
libQt5Core.so.5:_ZN10QByteArray6appendEc
libQt5Core.so.5:_ZN10QByteArrayC1EPKci
libQt5Core.so.5:_ZN10QByteArrayaSEPKc
libQt5Core.so.5:_ZN10QByteArrayaSERKS_
libQt5Core.so.5:_ZN10QEventLoop4execE6QFlagsINS_17ProcessEventsFlagEE
libQt5Core.so.5:_ZN10QEventLoop4quitEv
libQt5Core.so.5:_ZN10QEventLoopC1EP7QObject
libQt5Core.so.5:_ZN10QEventLoopD1Ev
libQt5Core.so.5:_ZN11QBasicTimer4stopEv
libQt5Core.so.5:_ZN11QBasicTimer5startEiP7QObject
libQt5Core.so.5:_ZN11QFileDevice4seekEx
libQt5Core.so.5:_ZN11QFileDevice5closeEv
libQt5Core.so.5:_ZN11QMetaObject10ConnectionD1Ev
libQt5Core.so.5:_ZN11QMetaObject12invokeMethodEP7QObjectPKcN2Qt14ConnectionTypeE22QGenericReturnArgument16QGenericArgumentS7_S7_S7_S7_S7_S7_S7_S7_S7_
libQt5Core.so.5:_ZN11QMetaObject14normalizedTypeEPKc
libQt5Core.so.5:_ZN11QMetaObject18connectSlotsByNameEP7QObject
libQt5Core.so.5:_ZN11QMetaObject8activateEP7QObjectPKS_iPPv
libQt5Core.so.5:_ZN11QTextStream12readLineIntoEP7QStringx
libQt5Core.so.5:_ZN11QTextStream5flushEv
libQt5Core.so.5:_ZN11QTextStream7readAllEv
libQt5Core.so.5:_ZN11QTextStream8readLineEx
libQt5Core.so.5:_ZN11QTextStreamC1EP7QString6QFlagsIN9QIODevice12OpenModeFlagEE
libQt5Core.so.5:_ZN11QTextStreamC1EP9QIODevice
libQt5Core.so.5:_ZN11QTextStreamC1ERK10QByteArray6QFlagsIN9QIODevice12OpenModeFlagEE
libQt5Core.so.5:_ZN11QTextStreamD1Ev
libQt5Core.so.5:_ZN11QTextStreamlsEPKc
libQt5Core.so.5:_ZN11QTextStreamlsEPKv
libQt5Core.so.5:_ZN11QTextStreamlsERK10QByteArray
libQt5Core.so.5:_ZN11QTextStreamlsERK7QString
libQt5Core.so.5:_ZN11QTextStreamlsEc
libQt5Core.so.5:_ZN11QTextStreamlsEd
libQt5Core.so.5:_ZN11QTextStreamlsEi
libQt5Core.so.5:_ZN11QTextStreamlsEj
libQt5Core.so.5:_ZN11QTextStreamlsEl
libQt5Core.so.5:_ZN11QTextStreamlsEm
libQt5Core.so.5:_ZN11QTextStreamlsEx
libQt5Core.so.5:_ZN11QThreadPool14globalInstanceEv
libQt5Core.so.5:_ZN11QThreadPool5startEP9QRunnablei
libQt5Core.so.5:_ZN11QTranslator4loadERK7QStringS2_S2_S2_
libQt5Core.so.5:_ZN11QTranslatorC1EP7QObject
libQt5Core.so.5:_ZN12QMapDataBase10createDataEv
libQt5Core.so.5:_ZN12QMapDataBase10createNodeEiiP12QMapNodeBaseb
libQt5Core.so.5:_ZN12QMapDataBase11shared_nullE
libQt5Core.so.5:_ZN12QMapDataBase18recalcMostLeftNodeEv
libQt5Core.so.5:_ZN12QMapDataBase20freeNodeAndRebalanceEP12QMapNodeBase
libQt5Core.so.5:_ZN12QMapDataBase8freeDataEPS_
libQt5Core.so.5:_ZN12QMapDataBase8freeTreeEP12QMapNodeBasei
libQt5Core.so.5:_ZN13QElapsedTimer5startEv
libQt5Core.so.5:_ZN13QJsonDocument11fromVariantERK8QVariant
libQt5Core.so.5:_ZN13QJsonDocument8fromJsonERK10QByteArrayP15QJsonParseError
libQt5Core.so.5:_ZN13QJsonDocumentD1Ev
libQt5Core.so.5:_ZN13QPluginLoader8instanceEv
libQt5Core.so.5:_ZN13QPluginLoaderC1ERK7QStringP7QObject
libQt5Core.so.5:_ZN13QSharedMemory4dataEv
libQt5Core.so.5:_ZN13QSharedMemory4lockEv
libQt5Core.so.5:_ZN13QSharedMemory6attachENS_10AccessModeE
libQt5Core.so.5:_ZN13QSharedMemory6createEiNS_10AccessModeE
libQt5Core.so.5:_ZN13QSharedMemory6detachEv
libQt5Core.so.5:_ZN13QSharedMemory6setKeyERK7QString
libQt5Core.so.5:_ZN13QSharedMemory6unlockEv
libQt5Core.so.5:_ZN13QSharedMemoryC1EP7QObject
libQt5Core.so.5:_ZN13QSharedMemoryD1Ev
libQt5Core.so.5:_ZN13QTemporaryDir13setAutoRemoveEb
libQt5Core.so.5:_ZN13QTemporaryDirC1Ev
libQt5Core.so.5:_ZN13QTemporaryDirD1Ev
libQt5Core.so.5:_ZN14QStandardPaths16writableLocationENS_16StandardLocationE
libQt5Core.so.5:_ZN14QStandardPaths9locateAllENS_16StandardLocationERK7QString6QFlagsINS_12LocateOptionEE
libQt5Core.so.5:_ZN15QtSharedPointer20ExternalRefCountData16setQObjectSharedEPK7QObjectb
libQt5Core.so.5:_ZN15QtSharedPointer20ExternalRefCountData9getAndRefEPK7QObject
libQt5Core.so.5:_ZN15QtSharedPointer22internalSafetyCheckAddEPKvPVKv
libQt5Core.so.5:_ZN15QtSharedPointer25internalSafetyCheckRemoveEPKv
libQt5Core.so.5:_ZN16QCoreApplication11aboutToQuitENS_14QPrivateSignalE
libQt5Core.so.5:_ZN16QCoreApplication14applicationPidEv
libQt5Core.so.5:_ZN16QCoreApplication15applicationNameEv
libQt5Core.so.5:_ZN16QCoreApplication16staticMetaObjectE
libQt5Core.so.5:_ZN16QCoreApplication17installTranslatorEP11QTranslator
libQt5Core.so.5:_ZN16QCoreApplication18applicationDirPathEv
libQt5Core.so.5:_ZN16QCoreApplication18applicationVersionEv
libQt5Core.so.5:_ZN16QCoreApplication18setApplicationNameERK7QString
libQt5Core.so.5:_ZN16QCoreApplication21setApplicationVersionERK7QString
libQt5Core.so.5:_ZN16QCoreApplication21setOrganizationDomainERK7QString
libQt5Core.so.5:_ZN16QCoreApplication4quitEv
libQt5Core.so.5:_ZN16QCoreApplication4selfE
libQt5Core.so.5:_ZN16QCoreApplication9argumentsEv
libQt5Core.so.5:_ZN16QCoreApplication9translateEPKcS1_S1_i
libQt5Core.so.5:_ZN16QRandomGenerator10_fillRangeEPvS0_
libQt5Core.so.5:_ZN16QStringListModelC1ERK11QStringListP7QObject
libQt5Core.so.5:_ZN18QAbstractItemModel10insertRowsEiiRK11QModelIndex
libQt5Core.so.5:_ZN18QAbstractItemModel10modelResetENS_14QPrivateSignalE
libQt5Core.so.5:_ZN18QAbstractItemModel10removeRowsEiiRK11QModelIndex
libQt5Core.so.5:_ZN18QAbstractItemModel11dataChangedERK11QModelIndexS2_RK7QVectorIiE
libQt5Core.so.5:_ZN18QAbstractItemModel11moveColumnsERK11QModelIndexiiS2_i
libQt5Core.so.5:_ZN18QAbstractItemModel11qt_metacallEN11QMetaObject4CallEiPPv
libQt5Core.so.5:_ZN18QAbstractItemModel11qt_metacastEPKc
libQt5Core.so.5:_ZN18QAbstractItemModel11setItemDataERK11QModelIndexRK4QMapIi8QVariantE
libQt5Core.so.5:_ZN18QAbstractItemModel12dropMimeDataEPK9QMimeDataN2Qt10DropActionEiiRK11QModelIndex
libQt5Core.so.5:_ZN18QAbstractItemModel13endInsertRowsEv
libQt5Core.so.5:_ZN18QAbstractItemModel13endResetModelEv
libQt5Core.so.5:_ZN18QAbstractItemModel13insertColumnsEiiRK11QModelIndex
libQt5Core.so.5:_ZN18QAbstractItemModel13removeColumnsEiiRK11QModelIndex
libQt5Core.so.5:_ZN18QAbstractItemModel13setHeaderDataEiN2Qt11OrientationERK8QVarianti
libQt5Core.so.5:_ZN18QAbstractItemModel15beginInsertRowsERK11QModelIndexii
libQt5Core.so.5:_ZN18QAbstractItemModel15beginResetModelEv
libQt5Core.so.5:_ZN18QAbstractItemModel16staticMetaObjectE
libQt5Core.so.5:_ZN18QAbstractItemModel4sortEiN2Qt9SortOrderE
libQt5Core.so.5:_ZN18QAbstractItemModel6revertEv
libQt5Core.so.5:_ZN18QAbstractItemModel6submitEv
libQt5Core.so.5:_ZN18QAbstractItemModel7setDataERK11QModelIndexRK8QVarianti
libQt5Core.so.5:_ZN18QAbstractItemModel8moveRowsERK11QModelIndexiiS2_i
libQt5Core.so.5:_ZN18QAbstractItemModel9fetchMoreERK11QModelIndex
libQt5Core.so.5:_ZN18QAbstractItemModelC2EP7QObject
libQt5Core.so.5:_ZN18QAbstractItemModelD2Ev
libQt5Core.so.5:_ZN18QAbstractListModel11qt_metacallEN11QMetaObject4CallEiPPv
libQt5Core.so.5:_ZN18QAbstractListModel11qt_metacastEPKc
libQt5Core.so.5:_ZN18QAbstractListModel12dropMimeDataEPK9QMimeDataN2Qt10DropActionEiiRK11QModelIndex
libQt5Core.so.5:_ZN18QAbstractListModel16staticMetaObjectE
libQt5Core.so.5:_ZN18QAbstractListModelC2EP7QObject
libQt5Core.so.5:_ZN18QAbstractListModelD2Ev
libQt5Core.so.5:_ZN18QCommandLineOptionC1ERK11QStringListRK7QStringS5_S5_
libQt5Core.so.5:_ZN18QCommandLineOptionC1ERK7QStringS2_S2_S2_
libQt5Core.so.5:_ZN18QCommandLineOptionD1Ev
libQt5Core.so.5:_ZN18QCommandLineParser13addHelpOptionEv
libQt5Core.so.5:_ZN18QCommandLineParser16addVersionOptionEv
libQt5Core.so.5:_ZN18QCommandLineParser25setApplicationDescriptionERK7QString
libQt5Core.so.5:_ZN18QCommandLineParser7processERK16QCoreApplication
libQt5Core.so.5:_ZN18QCommandLineParser9addOptionERK18QCommandLineOption
libQt5Core.so.5:_ZN18QCommandLineParserC1Ev
libQt5Core.so.5:_ZN18QCommandLineParserD1Ev
libQt5Core.so.5:_ZN18QFutureWatcherBase11qt_metacallEN11QMetaObject4CallEiPPv
libQt5Core.so.5:_ZN18QFutureWatcherBase11qt_metacastEPKc
libQt5Core.so.5:_ZN18QFutureWatcherBase13connectNotifyERK11QMetaMethod
libQt5Core.so.5:_ZN18QFutureWatcherBase15waitForFinishedEv
libQt5Core.so.5:_ZN18QFutureWatcherBase16disconnectNotifyERK11QMetaMethod
libQt5Core.so.5:_ZN18QFutureWatcherBase16staticMetaObjectE
libQt5Core.so.5:_ZN18QFutureWatcherBase22connectOutputInterfaceEv
libQt5Core.so.5:_ZN18QFutureWatcherBase25disconnectOutputInterfaceEb
libQt5Core.so.5:_ZN18QFutureWatcherBase5eventEP6QEvent
libQt5Core.so.5:_ZN18QFutureWatcherBase8finishedEv
libQt5Core.so.5:_ZN18QFutureWatcherBaseC2EP7QObject
libQt5Core.so.5:_ZN18QRandomGenerator646globalEv
libQt5Core.so.5:_ZN18QRegularExpressionC1ERK7QString6QFlagsINS_13PatternOptionEE
libQt5Core.so.5:_ZN18QRegularExpressionD1Ev
libQt5Core.so.5:_ZN19QAbstractProxyModel11setItemDataERK11QModelIndexRK4QMapIi8QVariantE
libQt5Core.so.5:_ZN19QAbstractProxyModel6revertEv
libQt5Core.so.5:_ZN19QAbstractProxyModel6submitEv
libQt5Core.so.5:_ZN19QItemSelectionModel14clearSelectionEv
libQt5Core.so.5:_ZN19QItemSelectionModel14currentChangedERK11QModelIndexS2_
libQt5Core.so.5:_ZN19QItemSelectionModel16selectionChangedERK14QItemSelectionS2_
libQt5Core.so.5:_ZN19QItemSelectionModel16staticMetaObjectE
libQt5Core.so.5:_ZN19QItemSelectionModel17currentRowChangedERK11QModelIndexS2_
libQt5Core.so.5:_ZN19QProcessEnvironment17systemEnvironmentEv
libQt5Core.so.5:_ZN19QProcessEnvironment6insertERK7QStringS2_
libQt5Core.so.5:_ZN19QProcessEnvironmentD1Ev
libQt5Core.so.5:_ZN19QUnhandledExceptionD1Ev
libQt5Core.so.5:_ZN20QFutureInterfaceBase11setRunnableEP9QRunnable
libQt5Core.so.5:_ZN20QFutureInterfaceBase13reportStartedEv
libQt5Core.so.5:_ZN20QFutureInterfaceBase13setThreadPoolEP11QThreadPool
libQt5Core.so.5:_ZN20QFutureInterfaceBase13waitForResultEi
libQt5Core.so.5:_ZN20QFutureInterfaceBase14reportCanceledEv
libQt5Core.so.5:_ZN20QFutureInterfaceBase14reportFinishedEv
libQt5Core.so.5:_ZN20QFutureInterfaceBase15reportExceptionERK10QException
libQt5Core.so.5:_ZN20QFutureInterfaceBase15resultStoreBaseEv
libQt5Core.so.5:_ZN20QFutureInterfaceBase18reportResultsReadyEii
libQt5Core.so.5:_ZN20QFutureInterfaceBaseC1ERKS_
libQt5Core.so.5:_ZN20QFutureInterfaceBaseC2ENS_5StateE
libQt5Core.so.5:_ZN20QFutureInterfaceBaseC2ERKS_
libQt5Core.so.5:_ZN20QFutureInterfaceBaseD1Ev
libQt5Core.so.5:_ZN20QFutureInterfaceBaseD2Ev
libQt5Core.so.5:_ZN20QFutureInterfaceBaseaSERKS_
libQt5Core.so.5:_ZN21QPersistentModelIndexC1ERK11QModelIndex
libQt5Core.so.5:_ZN21QPersistentModelIndexC1ERKS_
libQt5Core.so.5:_ZN21QPersistentModelIndexC1Ev
libQt5Core.so.5:_ZN21QPersistentModelIndexD1Ev
libQt5Core.so.5:_ZN21QPersistentModelIndexaSERK11QModelIndex
libQt5Core.so.5:_ZN21QSortFilterProxyModel10insertRowsEiiRK11QModelIndex
libQt5Core.so.5:_ZN21QSortFilterProxyModel10removeRowsEiiRK11QModelIndex
libQt5Core.so.5:_ZN21QSortFilterProxyModel11qt_metacallEN11QMetaObject4CallEiPPv
libQt5Core.so.5:_ZN21QSortFilterProxyModel11qt_metacastEPKc
libQt5Core.so.5:_ZN21QSortFilterProxyModel11setSortRoleEi
libQt5Core.so.5:_ZN21QSortFilterProxyModel12dropMimeDataEPK9QMimeDataN2Qt10DropActionEiiRK11QModelIndex
libQt5Core.so.5:_ZN21QSortFilterProxyModel13insertColumnsEiiRK11QModelIndex
libQt5Core.so.5:_ZN21QSortFilterProxyModel13removeColumnsEiiRK11QModelIndex
libQt5Core.so.5:_ZN21QSortFilterProxyModel13setFilterRoleEi
libQt5Core.so.5:_ZN21QSortFilterProxyModel13setHeaderDataEiN2Qt11OrientationERK8QVarianti
libQt5Core.so.5:_ZN21QSortFilterProxyModel14setSourceModelEP18QAbstractItemModel
libQt5Core.so.5:_ZN21QSortFilterProxyModel16invalidateFilterEv
libQt5Core.so.5:_ZN21QSortFilterProxyModel16staticMetaObjectE
libQt5Core.so.5:_ZN21QSortFilterProxyModel20setFilterFixedStringERK7QString
libQt5Core.so.5:_ZN21QSortFilterProxyModel4sortEiN2Qt9SortOrderE
libQt5Core.so.5:_ZN21QSortFilterProxyModel7setDataERK11QModelIndexRK8QVarianti
libQt5Core.so.5:_ZN21QSortFilterProxyModel9fetchMoreERK11QModelIndex
libQt5Core.so.5:_ZN21QSortFilterProxyModelC1EP7QObject
libQt5Core.so.5:_ZN21QSortFilterProxyModelC2EP7QObject
libQt5Core.so.5:_ZN21QSortFilterProxyModelD2Ev
libQt5Core.so.5:_ZN23QRegularExpressionMatchC1Ev
libQt5Core.so.5:_ZN23QRegularExpressionMatchD1Ev
libQt5Core.so.5:_ZN4QDir11currentPathEv
libQt5Core.so.5:_ZN4QDir14isRelativePathERK7QString
libQt5Core.so.5:_ZN4QDir2cdERK7QString
libQt5Core.so.5:_ZN4QDir7setPathERK7QString
libQt5Core.so.5:_ZN4QDir8homePathEv
libQt5Core.so.5:_ZN4QDir8rootPathEv
libQt5Core.so.5:_ZN4QDir8tempPathEv
libQt5Core.so.5:_ZN4QDir9cleanPathERK7QString
libQt5Core.so.5:_ZN4QDir9separatorEv
libQt5Core.so.5:_ZN4QDirC1ERK7QString
libQt5Core.so.5:_ZN4QDirC1ERKS_
libQt5Core.so.5:_ZN4QDirD1Ev
libQt5Core.so.5:_ZN4QDiraSERKS_
libQt5Core.so.5:_ZN4QUrl13fromLocalFileERK7QString
libQt5Core.so.5:_ZN4QUrlC1ERK7QStringNS_11ParsingModeE
libQt5Core.so.5:_ZN4QUrlC1ERKS_
libQt5Core.so.5:_ZN4QUrlC1Ev
libQt5Core.so.5:_ZN4QUrlD1Ev
libQt5Core.so.5:_ZN5QChar7toUpperEj
libQt5Core.so.5:_ZN5QChar8categoryEj
libQt5Core.so.5:_ZN5QDate11currentDateEv
libQt5Core.so.5:_ZN5QFile14setPermissionsE6QFlagsIN11QFileDevice10PermissionEE
libQt5Core.so.5:_ZN5QFile4copyERK7QString
libQt5Core.so.5:_ZN5QFile4openE6QFlagsIN9QIODevice12OpenModeFlagEE
libQt5Core.so.5:_ZN5QFile6existsERK7QString
libQt5Core.so.5:_ZN5QFile6removeERK7QString
libQt5Core.so.5:_ZN5QFile6removeEv
libQt5Core.so.5:_ZN5QFileC1ERK7QString
libQt5Core.so.5:_ZN5QFileD1Ev
libQt5Core.so.5:_ZN5QTime11currentTimeEv
libQt5Core.so.5:_ZN6QDebug12putByteArrayEPKcmNS_13Latin1ContentE
libQt5Core.so.5:_ZN6QDebug9putStringEPK5QCharm
libQt5Core.so.5:_ZN6QDebugD1Ev
libQt5Core.so.5:_ZN6QDebugD2Ev
libQt5Core.so.5:_ZN6QMutex4lockEv
libQt5Core.so.5:_ZN6QMutex6unlockEv
libQt5Core.so.5:_ZN6QMutexD1Ev
libQt5Core.so.5:_ZN6QTimer11setIntervalEi
libQt5Core.so.5:_ZN6QTimer14singleShotImplEiN2Qt9TimerTypeEPK7QObjectPN9QtPrivate15QSlotObjectBaseE
libQt5Core.so.5:_ZN6QTimer16staticMetaObjectE
libQt5Core.so.5:_ZN6QTimer4stopEv
libQt5Core.so.5:_ZN6QTimer5startEi
libQt5Core.so.5:_ZN6QTimer5startEv
libQt5Core.so.5:_ZN6QTimer7timeoutENS_14QPrivateSignalE
libQt5Core.so.5:_ZN6QTimerC1EP7QObject
libQt5Core.so.5:_ZN6QTimerD1Ev
libQt5Core.so.5:_ZN7QLocale10setDefaultERKS_
libQt5Core.so.5:_ZN7QLocale15countryToStringENS_7CountryE
libQt5Core.so.5:_ZN7QLocale16languageToStringENS_8LanguageE
libQt5Core.so.5:_ZN7QLocale16staticMetaObjectE
libQt5Core.so.5:_ZN7QLocale20countriesForLanguageENS_8LanguageE
libQt5Core.so.5:_ZN7QLocaleC1ENS_8LanguageENS_6ScriptENS_7CountryE
libQt5Core.so.5:_ZN7QLocaleC1ENS_8LanguageENS_7CountryE
libQt5Core.so.5:_ZN7QLocaleC1ERK7QString
libQt5Core.so.5:_ZN7QLocaleC1ERKS_
libQt5Core.so.5:_ZN7QLocaleC1Ev
libQt5Core.so.5:_ZN7QLocaleD1Ev
libQt5Core.so.5:_ZN7QLocaleaSERKS_
libQt5Core.so.5:_ZN7QObject10childEventEP11QChildEvent
libQt5Core.so.5:_ZN7QObject10disconnectEPKS_PKcS1_S3_
libQt5Core.so.5:_ZN7QObject10timerEventEP11QTimerEvent
libQt5Core.so.5:_ZN7QObject11connectImplEPKS_PPvS1_S3_PN9QtPrivate15QSlotObjectBaseEN2Qt14ConnectionTypeEPKiPK11QMetaObject
libQt5Core.so.5:_ZN7QObject11customEventEP6QEvent
libQt5Core.so.5:_ZN7QObject11deleteLaterEv
libQt5Core.so.5:_ZN7QObject11eventFilterEPS_P6QEvent
libQt5Core.so.5:_ZN7QObject11qt_metacallEN11QMetaObject4CallEiPPv
libQt5Core.so.5:_ZN7QObject11qt_metacastEPKc
libQt5Core.so.5:_ZN7QObject11setPropertyEPKcRK8QVariant
libQt5Core.so.5:_ZN7QObject12blockSignalsEb
libQt5Core.so.5:_ZN7QObject13connectNotifyERK11QMetaMethod
libQt5Core.so.5:_ZN7QObject13setObjectNameERK7QString
libQt5Core.so.5:_ZN7QObject14disconnectImplEPKS_PPvS1_S3_PK11QMetaObject
libQt5Core.so.5:_ZN7QObject16disconnectNotifyERK11QMetaMethod
libQt5Core.so.5:_ZN7QObject16staticMetaObjectE
libQt5Core.so.5:_ZN7QObject18installEventFilterEPS_
libQt5Core.so.5:_ZN7QObject5eventEP6QEvent
libQt5Core.so.5:_ZN7QObject7connectEPKS_PKcS1_S3_N2Qt14ConnectionTypeE
libQt5Core.so.5:_ZN7QObject9setParentEPS_
libQt5Core.so.5:_ZN7QObjectC2EPS_
libQt5Core.so.5:_ZN7QObjectD2Ev
libQt5Core.so.5:_ZN7QRegExp10setPatternERK7QString
libQt5Core.so.5:_ZN7QRegExp3capEi
libQt5Core.so.5:_ZN7QRegExpC1ERK7QStringN2Qt15CaseSensitivityENS_13PatternSyntaxE
libQt5Core.so.5:_ZN7QRegExpC1Ev
libQt5Core.so.5:_ZN7QRegExpD1Ev
libQt5Core.so.5:_ZN7QString11reallocDataEjb
libQt5Core.so.5:_ZN7QString13toUtf8_helperERKS_
libQt5Core.so.5:_ZN7QString14compare_helperEPK5QChariPKciN2Qt15CaseSensitivityE
libQt5Core.so.5:_ZN7QString14toLower_helperERKS_
libQt5Core.so.5:_ZN7QString14toLower_helperERS_
libQt5Core.so.5:_ZN7QString14toUpper_helperERS_
libQt5Core.so.5:_ZN7QString14trimmed_helperERKS_
libQt5Core.so.5:_ZN7QString14trimmed_helperERS_
libQt5Core.so.5:_ZN7QString15fromUtf8_helperEPKci
libQt5Core.so.5:_ZN7QString15toLatin1_helperERKS_
libQt5Core.so.5:_ZN7QString16fromAscii_helperEPKci
libQt5Core.so.5:_ZN7QString17fromLatin1_helperEPKci
libQt5Core.so.5:_ZN7QString17simplified_helperERKS_
libQt5Core.so.5:_ZN7QString17simplified_helperERS_
libQt5Core.so.5:_ZN7QString18toLocal8Bit_helperEPK5QChari
libQt5Core.so.5:_ZN7QString20fromLocal8Bit_helperEPKci
libQt5Core.so.5:_ZN7QString23toLatin1_helper_inplaceERS_
libQt5Core.so.5:_ZN7QString4chopEi
libQt5Core.so.5:_ZN7QString6appendE5QChar
libQt5Core.so.5:_ZN7QString6appendERKS_
libQt5Core.so.5:_ZN7QString6insertEi5QChar
libQt5Core.so.5:_ZN7QString6insertEiPK5QChari
libQt5Core.so.5:_ZN7QString6numberEdci
libQt5Core.so.5:_ZN7QString6numberEii
libQt5Core.so.5:_ZN7QString6numberEji
libQt5Core.so.5:_ZN7QString6numberExi
libQt5Core.so.5:_ZN7QString6numberEyi
libQt5Core.so.5:_ZN7QString6removeE5QCharN2Qt15CaseSensitivityE
libQt5Core.so.5:_ZN7QString6removeERKS_N2Qt15CaseSensitivityE
libQt5Core.so.5:_ZN7QString6removeEii
libQt5Core.so.5:_ZN7QString7replaceE13QLatin1StringRKS_N2Qt15CaseSensitivityE
libQt5Core.so.5:_ZN7QString7replaceE5QCharRKS_N2Qt15CaseSensitivityE
libQt5Core.so.5:_ZN7QString7replaceE5QCharS0_N2Qt15CaseSensitivityE
libQt5Core.so.5:_ZN7QString7replaceERK7QRegExpRKS_
libQt5Core.so.5:_ZN7QString7replaceERKS_S1_N2Qt15CaseSensitivityE
libQt5Core.so.5:_ZN7QString7replaceEii5QChar
libQt5Core.so.5:_ZN7QString8truncateEi
libQt5Core.so.5:_ZN7QString9fromUtf16EPKti
libQt5Core.so.5:_ZN7QStringC1E5QChar
libQt5Core.so.5:_ZN7QStringaSERKS_
libQt5Core.so.5:_ZN7QThread11qt_metacallEN11QMetaObject4CallEiPPv
libQt5Core.so.5:_ZN7QThread11qt_metacastEPKc
libQt5Core.so.5:_ZN7QThread11setPriorityENS_8PriorityE
libQt5Core.so.5:_ZN7QThread13currentThreadEv
libQt5Core.so.5:_ZN7QThread16staticMetaObjectE
libQt5Core.so.5:_ZN7QThread19requestInterruptionEv
libQt5Core.so.5:_ZN7QThread4quitEv
libQt5Core.so.5:_ZN7QThread4waitE14QDeadlineTimer
libQt5Core.so.5:_ZN7QThread4waitEm
libQt5Core.so.5:_ZN7QThread5eventEP6QEvent
libQt5Core.so.5:_ZN7QThread5sleepEm
libQt5Core.so.5:_ZN7QThread5startENS_8PriorityE
libQt5Core.so.5:_ZN7QThread6msleepEm
libQt5Core.so.5:_ZN7QThread8finishedENS_14QPrivateSignalE
libQt5Core.so.5:_ZN7QThread9terminateEv
libQt5Core.so.5:_ZN7QThreadC2EP7QObject
libQt5Core.so.5:_ZN7QThreadD2Ev
libQt5Core.so.5:_ZN8QLibrary9isLibraryERK7QString
libQt5Core.so.5:_ZN8QProcess10setProgramERK7QString
libQt5Core.so.5:_ZN8QProcess12setArgumentsERK11QStringList
libQt5Core.so.5:_ZN8QProcess14setEnvironmentERK11QStringList
libQt5Core.so.5:_ZN8QProcess14waitForStartedEi
libQt5Core.so.5:_ZN8QProcess15waitForFinishedEi
libQt5Core.so.5:_ZN8QProcess16staticMetaObjectE
libQt5Core.so.5:_ZN8QProcess17closeWriteChannelEv
libQt5Core.so.5:_ZN8QProcess19setWorkingDirectoryERK7QString
libQt5Core.so.5:_ZN8QProcess21readAllStandardOutputEv
libQt5Core.so.5:_ZN8QProcess21setProcessChannelModeENS_18ProcessChannelModeE
libQt5Core.so.5:_ZN8QProcess21setProcessEnvironmentERK19QProcessEnvironment
libQt5Core.so.5:_ZN8QProcess23readyReadStandardOutputENS_14QPrivateSignalE
libQt5Core.so.5:_ZN8QProcess5startE6QFlagsIN9QIODevice12OpenModeFlagEE
libQt5Core.so.5:_ZN8QProcess5startERK7QStringRK11QStringList6QFlagsIN9QIODevice12OpenModeFlagEE
libQt5Core.so.5:_ZN8QProcess7executeERK7QStringRK11QStringList
libQt5Core.so.5:_ZN8QProcessC1EP7QObject
libQt5Core.so.5:_ZN8QProcessD1Ev
libQt5Core.so.5:_ZN8QSysInfo15machineHostNameEv
libQt5Core.so.5:_ZN8QSysInfo17prettyProductNameEv
libQt5Core.so.5:_ZN8QSysInfo22currentCpuArchitectureEv
libQt5Core.so.5:_ZN8QVariantC1EPKc
libQt5Core.so.5:_ZN8QVariantC1ERK11QStringList
libQt5Core.so.5:_ZN8QVariantC1ERK4QMapI7QStringS_E
libQt5Core.so.5:_ZN8QVariantC1ERK5QListIS_E
libQt5Core.so.5:_ZN8QVariantC1ERK5QSize
libQt5Core.so.5:_ZN8QVariantC1ERK7QString
libQt5Core.so.5:_ZN8QVariantC1ERKS_
libQt5Core.so.5:_ZN8QVariantC1Eb
libQt5Core.so.5:_ZN8QVariantC1Ed
libQt5Core.so.5:_ZN8QVariantC1Ei
libQt5Core.so.5:_ZN8QVariantC1EiPKv
libQt5Core.so.5:_ZN8QVariantC1EiPKvj
libQt5Core.so.5:_ZN8QVariantC1Ej
libQt5Core.so.5:_ZN8QVariantC1Ex
libQt5Core.so.5:_ZN8QVariantC1Ey
libQt5Core.so.5:_ZN8QVariantD1Ev
libQt5Core.so.5:_ZN8QVariantaSERKS_
libQt5Core.so.5:_ZN9QDateTime15currentDateTimeEv
libQt5Core.so.5:_ZN9QDateTime18currentDateTimeUtcEv
libQt5Core.so.5:_ZN9QDateTimeD1Ev
libQt5Core.so.5:_ZN9QFileInfo6existsERK7QString
libQt5Core.so.5:_ZN9QFileInfo7refreshEv
libQt5Core.so.5:_ZN9QFileInfoC1ERK4QDirRK7QString
libQt5Core.so.5:_ZN9QFileInfoC1ERK5QFile
libQt5Core.so.5:_ZN9QFileInfoC1ERK7QString
libQt5Core.so.5:_ZN9QFileInfoC1Ev
libQt5Core.so.5:_ZN9QFileInfoD1Ev
libQt5Core.so.5:_ZN9QFileInfoaSERKS_
libQt5Core.so.5:_ZN9QHashData11free_helperEPFvPNS_4NodeEE
libQt5Core.so.5:_ZN9QHashData11shared_nullE
libQt5Core.so.5:_ZN9QHashData12allocateNodeEi
libQt5Core.so.5:_ZN9QHashData13detach_helperEPFvPNS_4NodeEPvEPFvS1_Eii
libQt5Core.so.5:_ZN9QHashData6rehashEi
libQt5Core.so.5:_ZN9QHashData8freeNodeEPv
libQt5Core.so.5:_ZN9QHashData8nextNodeEPNS_4NodeE
libQt5Core.so.5:_ZN9QIODevice4readEPcx
libQt5Core.so.5:_ZN9QIODevice4readEx
libQt5Core.so.5:_ZN9QIODevice5resetEv
libQt5Core.so.5:_ZN9QIODevice5writeEPKc
libQt5Core.so.5:_ZN9QIODevice5writeEPKcx
libQt5Core.so.5:_ZN9QIODevice7readAllEv
libQt5Core.so.5:_ZN9QIODevice8readLineEx
libQt5Core.so.5:_ZN9QListData11detach_growEPii
libQt5Core.so.5:_ZN9QListData11shared_nullE
libQt5Core.so.5:_ZN9QListData5eraseEPPv
libQt5Core.so.5:_ZN9QListData6appendERKS_
libQt5Core.so.5:_ZN9QListData6appendEv
libQt5Core.so.5:_ZN9QListData6detachEi
libQt5Core.so.5:_ZN9QListData6insertEi
libQt5Core.so.5:_ZN9QListData6removeEi
libQt5Core.so.5:_ZN9QListData6removeEii
libQt5Core.so.5:_ZN9QListData7disposeEPNS_4DataE
libQt5Core.so.5:_ZN9QListData7prependEv
libQt5Core.so.5:_ZN9QListData7reallocEi
libQt5Core.so.5:_ZN9QMetaType22registerNormalizedTypeERK10QByteArrayPFvPvEPFS3_S3_PKvEi6QFlagsINS_8TypeFlagEEPK11QMetaObject
libQt5Core.so.5:_ZN9QMetaType25registerConverterFunctionEPKN9QtPrivate25AbstractConverterFunctionEii
libQt5Core.so.5:_ZN9QMetaType25registerNormalizedTypedefERK10QByteArrayi
libQt5Core.so.5:_ZN9QMetaType27unregisterConverterFunctionEii
libQt5Core.so.5:_ZN9QMetaType30hasRegisteredConverterFunctionEii
libQt5Core.so.5:_ZN9QMetaType8typeNameEi
libQt5Core.so.5:_ZN9QMetaType9typeFlagsEi
libQt5Core.so.5:_ZN9QRunnableD2Ev
libQt5Core.so.5:_ZN9QTimeZone16systemTimeZoneIdEv
libQt5Core.so.5:_ZN9QtPrivate12argToQStringE11QStringViewmPPKNS_7ArgBaseE
libQt5Core.so.5:_ZN9QtPrivate15ResultStoreBase9addResultEiPKv
libQt5Core.so.5:_ZN9QtPrivate16QStringList_joinEPK11QStringListPK5QChari
libQt5Core.so.5:_ZN9QtPrivate16QStringList_sortEP11QStringListN2Qt15CaseSensitivityE
libQt5Core.so.5:_ZN9QtPrivate18QStringList_filterEPK11QStringListRK7QStringN2Qt15CaseSensitivityE
libQt5Core.so.5:_ZN9QtPrivate20QStringList_containsEPK11QStringListRK7QStringN2Qt15CaseSensitivityE
libQt5Core.so.5:_ZN9QtPrivate28QStringList_removeDuplicatesEP11QStringList
libQt5Core.so.5:_ZNK10QByteArray10startsWithEPKc
libQt5Core.so.5:_ZNK10QByteArray10startsWithEc
libQt5Core.so.5:_ZNK10QByteArray3midEii
libQt5Core.so.5:_ZNK10QByteArray5rightEi
libQt5Core.so.5:_ZNK10QByteArray5splitEc
libQt5Core.so.5:_ZNK10QByteArray5toIntEPbi
libQt5Core.so.5:_ZNK10QByteArray6isNullEv
libQt5Core.so.5:_ZNK10QByteArray7indexOfEci
libQt5Core.so.5:_ZNK10QByteArray8endsWithEc
libQt5Core.so.5:_ZNK11QFileDevice5atEndEv
libQt5Core.so.5:_ZNK11QMetaMethod6invokeEP7QObjectN2Qt14ConnectionTypeE22QGenericReturnArgument16QGenericArgumentS5_S5_S5_S5_S5_S5_S5_S5_S5_
libQt5Core.so.5:_ZNK11QMetaObject13indexOfMethodEPKc
libQt5Core.so.5:_ZNK11QMetaObject15indexOfPropertyEPKc
libQt5Core.so.5:_ZNK11QMetaObject2trEPKcS1_i
libQt5Core.so.5:_ZNK11QMetaObject4castEP7QObject
libQt5Core.so.5:_ZNK11QMetaObject4castEPK7QObject
libQt5Core.so.5:_ZNK11QMetaObject8propertyEi
libQt5Core.so.5:_ZNK11QMetaObject9classNameEv
libQt5Core.so.5:_ZNK11QObjectData17dynamicMetaObjectEv
libQt5Core.so.5:_ZNK11QTextStream3posEv
libQt5Core.so.5:_ZNK11QTextStream5atEndEv
libQt5Core.so.5:_ZNK11QTextStream6statusEv
libQt5Core.so.5:_ZNK12QMapNodeBase12previousNodeEv
libQt5Core.so.5:_ZNK12QMapNodeBase8nextNodeEv
libQt5Core.so.5:_ZNK13QElapsedTimer7elapsedEv
libQt5Core.so.5:_ZNK13QJsonDocument6isNullEv
libQt5Core.so.5:_ZNK13QJsonDocument6toJsonEv
libQt5Core.so.5:_ZNK13QJsonDocument8isObjectEv
libQt5Core.so.5:_ZNK13QJsonDocument9toVariantEv
libQt5Core.so.5:_ZNK13QMetaProperty12notifySignalEv
libQt5Core.so.5:_ZNK13QMetaProperty15hasNotifySignalEv
libQt5Core.so.5:_ZNK13QPluginLoader11errorStringEv
libQt5Core.so.5:_ZNK13QSharedMemory11errorStringEv
libQt5Core.so.5:_ZNK13QSharedMemory4sizeEv
libQt5Core.so.5:_ZNK13QSharedMemory5errorEv
libQt5Core.so.5:_ZNK13QTemporaryDir4pathEv
libQt5Core.so.5:_ZNK14QItemSelection7indexesEv
libQt5Core.so.5:_ZNK14QMessageLogger5debugEv
libQt5Core.so.5:_ZNK14QMessageLogger5fatalEPKcz
libQt5Core.so.5:_ZNK14QMessageLogger7warningEPKcz
libQt5Core.so.5:_ZNK14QMessageLogger8criticalEv
libQt5Core.so.5:_ZNK15QJsonParseError11errorStringEv
libQt5Core.so.5:_ZNK18QAbstractItemModel10headerDataEiN2Qt11OrientationEi
libQt5Core.so.5:_ZNK18QAbstractItemModel11hasChildrenERK11QModelIndex
libQt5Core.so.5:_ZNK18QAbstractItemModel12canFetchMoreERK11QModelIndex
libQt5Core.so.5:_ZNK18QAbstractItemModel15canDropMimeDataEPK9QMimeDataN2Qt10DropActionEiiRK11QModelIndex
libQt5Core.so.5:_ZNK18QAbstractItemModel20supportedDragActionsEv
libQt5Core.so.5:_ZNK18QAbstractItemModel20supportedDropActionsEv
libQt5Core.so.5:_ZNK18QAbstractItemModel4spanERK11QModelIndex
libQt5Core.so.5:_ZNK18QAbstractItemModel5buddyERK11QModelIndex
libQt5Core.so.5:_ZNK18QAbstractItemModel5flagsERK11QModelIndex
libQt5Core.so.5:_ZNK18QAbstractItemModel5matchERK11QModelIndexiRK8QVarianti6QFlagsIN2Qt9MatchFlagEE
libQt5Core.so.5:_ZNK18QAbstractItemModel7siblingEiiRK11QModelIndex
libQt5Core.so.5:_ZNK18QAbstractItemModel8hasIndexEiiRK11QModelIndex
libQt5Core.so.5:_ZNK18QAbstractItemModel8itemDataERK11QModelIndex
libQt5Core.so.5:_ZNK18QAbstractItemModel8mimeDataERK5QListI11QModelIndexE
libQt5Core.so.5:_ZNK18QAbstractItemModel9mimeTypesEv
libQt5Core.so.5:_ZNK18QAbstractItemModel9roleNamesEv
libQt5Core.so.5:_ZNK18QAbstractListModel10metaObjectEv
libQt5Core.so.5:_ZNK18QAbstractListModel11columnCountERK11QModelIndex
libQt5Core.so.5:_ZNK18QAbstractListModel11hasChildrenERK11QModelIndex
libQt5Core.so.5:_ZNK18QAbstractListModel5flagsERK11QModelIndex
libQt5Core.so.5:_ZNK18QAbstractListModel5indexEiiRK11QModelIndex
libQt5Core.so.5:_ZNK18QAbstractListModel6parentERK11QModelIndex
libQt5Core.so.5:_ZNK18QAbstractListModel7siblingEiiRK11QModelIndex
libQt5Core.so.5:_ZNK18QCommandLineParser5isSetERK18QCommandLineOption
libQt5Core.so.5:_ZNK18QCommandLineParser5valueERK18QCommandLineOption
libQt5Core.so.5:_ZNK18QFutureWatcherBase10isFinishedEv
libQt5Core.so.5:_ZNK18QFutureWatcherBase10metaObjectEv
libQt5Core.so.5:_ZNK18QRegularExpression5matchERK7QStringiNS_9MatchTypeE6QFlagsINS_11MatchOptionEE
libQt5Core.so.5:_ZNK19QAbstractProxyModel11sourceModelEv
libQt5Core.so.5:_ZNK19QAbstractProxyModel15canDropMimeDataEPK9QMimeDataN2Qt10DropActionEiiRK11QModelIndex
libQt5Core.so.5:_ZNK19QAbstractProxyModel20supportedDragActionsEv
libQt5Core.so.5:_ZNK19QAbstractProxyModel8itemDataERK11QModelIndex
libQt5Core.so.5:_ZNK19QItemSelectionModel12currentIndexEv
libQt5Core.so.5:_ZNK19QItemSelectionModel12hasSelectionEv
libQt5Core.so.5:_ZNK19QItemSelectionModel15selectedIndexesEv
libQt5Core.so.5:_ZNK20QFutureInterfaceBase10isCanceledEv
libQt5Core.so.5:_ZNK20QFutureInterfaceBase10queryStateENS_5StateE
libQt5Core.so.5:_ZNK20QFutureInterfaceBase15resultStoreBaseEv
libQt5Core.so.5:_ZNK20QFutureInterfaceBase4refTEv
libQt5Core.so.5:_ZNK20QFutureInterfaceBase5mutexEi
libQt5Core.so.5:_ZNK20QFutureInterfaceBase6derefTEv
libQt5Core.so.5:_ZNK21QPersistentModelIndex3rowEv
libQt5Core.so.5:_ZNK21QPersistentModelIndex7isValidEv
libQt5Core.so.5:_ZNK21QPersistentModelIndexcvRK11QModelIndexEv
libQt5Core.so.5:_ZNK21QPersistentModelIndexeqERKS_
libQt5Core.so.5:_ZNK21QSortFilterProxyModel10headerDataEiN2Qt11OrientationEi
libQt5Core.so.5:_ZNK21QSortFilterProxyModel11columnCountERK11QModelIndex
libQt5Core.so.5:_ZNK21QSortFilterProxyModel11hasChildrenERK11QModelIndex
libQt5Core.so.5:_ZNK21QSortFilterProxyModel11mapToSourceERK11QModelIndex
libQt5Core.so.5:_ZNK21QSortFilterProxyModel12canFetchMoreERK11QModelIndex
libQt5Core.so.5:_ZNK21QSortFilterProxyModel13mapFromSourceERK11QModelIndex
libQt5Core.so.5:_ZNK21QSortFilterProxyModel19filterAcceptsColumnEiRK11QModelIndex
libQt5Core.so.5:_ZNK21QSortFilterProxyModel20mapSelectionToSourceERK14QItemSelection
libQt5Core.so.5:_ZNK21QSortFilterProxyModel20supportedDropActionsEv
libQt5Core.so.5:_ZNK21QSortFilterProxyModel22mapSelectionFromSourceERK14QItemSelection
libQt5Core.so.5:_ZNK21QSortFilterProxyModel4dataERK11QModelIndexi
libQt5Core.so.5:_ZNK21QSortFilterProxyModel4spanERK11QModelIndex
libQt5Core.so.5:_ZNK21QSortFilterProxyModel5buddyERK11QModelIndex
libQt5Core.so.5:_ZNK21QSortFilterProxyModel5flagsERK11QModelIndex
libQt5Core.so.5:_ZNK21QSortFilterProxyModel5indexEiiRK11QModelIndex
libQt5Core.so.5:_ZNK21QSortFilterProxyModel5matchERK11QModelIndexiRK8QVarianti6QFlagsIN2Qt9MatchFlagEE
libQt5Core.so.5:_ZNK21QSortFilterProxyModel6parentERK11QModelIndex
libQt5Core.so.5:_ZNK21QSortFilterProxyModel7siblingEiiRK11QModelIndex
libQt5Core.so.5:_ZNK21QSortFilterProxyModel8lessThanERK11QModelIndexS2_
libQt5Core.so.5:_ZNK21QSortFilterProxyModel8mimeDataERK5QListI11QModelIndexE
libQt5Core.so.5:_ZNK21QSortFilterProxyModel8rowCountERK11QModelIndex
libQt5Core.so.5:_ZNK21QSortFilterProxyModel9mimeTypesEv
libQt5Core.so.5:_ZNK23QRegularExpressionMatch8capturedEi
libQt5Core.so.5:_ZNK23QRegularExpressionMatch8hasMatchEv
libQt5Core.so.5:_ZNK4QDir10isReadableEv
libQt5Core.so.5:_ZNK4QDir12absolutePathEv
libQt5Core.so.5:_ZNK4QDir13canonicalPathEv
libQt5Core.so.5:_ZNK4QDir13entryInfoListE6QFlagsINS_6FilterEES0_INS_8SortFlagEE
libQt5Core.so.5:_ZNK4QDir13entryInfoListERK11QStringList6QFlagsINS_6FilterEES3_INS_8SortFlagEE
libQt5Core.so.5:_ZNK4QDir16absoluteFilePathERK7QString
libQt5Core.so.5:_ZNK4QDir4pathEv
libQt5Core.so.5:_ZNK4QDir5mkdirERK7QString
libQt5Core.so.5:_ZNK4QDir6existsERK7QString
libQt5Core.so.5:_ZNK4QDir6existsEv
libQt5Core.so.5:_ZNK4QDir6mkpathERK7QString
libQt5Core.so.5:_ZNK4QDir7dirNameEv
libQt5Core.so.5:_ZNK4QDir8filePathERK7QString
libQt5Core.so.5:_ZNK4QDir9entryListE6QFlagsINS_6FilterEES0_INS_8SortFlagEE
libQt5Core.so.5:_ZNK4QDir9entryListERK11QStringList6QFlagsINS_6FilterEES3_INS_8SortFlagEE
libQt5Core.so.5:_ZNK4QUrl11isLocalFileEv
libQt5Core.so.5:_ZNK4QUrl15toDisplayStringE12QUrlTwoFlagsINS_19UrlFormattingOptionENS_25ComponentFormattingOptionEE
libQt5Core.so.5:_ZNK4QUrl4hostE6QFlagsINS_25ComponentFormattingOptionEE
libQt5Core.so.5:_ZNK4QUrl4pathE6QFlagsINS_25ComponentFormattingOptionEE
libQt5Core.so.5:_ZNK4QUrl4portEi
libQt5Core.so.5:_ZNK4QUrl7isValidEv
libQt5Core.so.5:_ZNK4QUrl8toStringE12QUrlTwoFlagsINS_19UrlFormattingOptionENS_25ComponentFormattingOptionEE
libQt5Core.so.5:_ZNK5QDate8toStringEN2Qt10DateFormatE
libQt5Core.so.5:_ZNK5QFile4sizeEv
libQt5Core.so.5:_ZNK5QFile6existsEv
libQt5Core.so.5:_ZNK5QFile8fileNameEv
libQt5Core.so.5:_ZNK5QRect8containsERK6QPointb
libQt5Core.so.5:_ZNK5QTime8toStringEN2Qt10DateFormatE
libQt5Core.so.5:_ZNK7QLocale17nativeCountryNameEv
libQt5Core.so.5:_ZNK7QLocale18nativeLanguageNameEv
libQt5Core.so.5:_ZNK7QLocale4nameEv
libQt5Core.so.5:_ZNK7QLocale6scriptEv
libQt5Core.so.5:_ZNK7QLocale7countryEv
libQt5Core.so.5:_ZNK7QLocale8languageEv
libQt5Core.so.5:_ZNK7QLocale9bcp47NameEv
libQt5Core.so.5:_ZNK7QLocaleeqERKS_
libQt5Core.so.5:_ZNK7QObject10objectNameEv
libQt5Core.so.5:_ZNK7QObject6senderEv
libQt5Core.so.5:_ZNK7QObject8propertyEPKc
libQt5Core.so.5:_ZNK7QRegExp10exactMatchERK7QString
libQt5Core.so.5:_ZNK7QRegExp7indexInERK7QStringiNS_9CaretModeE
libQt5Core.so.5:_ZNK7QString10startsWithE5QCharN2Qt15CaseSensitivityE
libQt5Core.so.5:_ZNK7QString10startsWithERKS_N2Qt15CaseSensitivityE
libQt5Core.so.5:_ZNK7QString10toLongLongEPbi
libQt5Core.so.5:_ZNK7QString11lastIndexOfE5QChariN2Qt15CaseSensitivityE
libQt5Core.so.5:_ZNK7QString11toULongLongEPbi
libQt5Core.so.5:_ZNK7QString13toHtmlEscapedEv
libQt5Core.so.5:_ZNK7QString3argE13QLatin1Stringi5QChar
libQt5Core.so.5:_ZNK7QString3argE5QChariS0_
libQt5Core.so.5:_ZNK7QString3argERKS_i5QChar
libQt5Core.so.5:_ZNK7QString3argEdici5QChar
libQt5Core.so.5:_ZNK7QString3argExii5QChar
libQt5Core.so.5:_ZNK7QString3argEyii5QChar
libQt5Core.so.5:_ZNK7QString3midEii
libQt5Core.so.5:_ZNK7QString4leftEi
libQt5Core.so.5:_ZNK7QString5countE5QCharN2Qt15CaseSensitivityE
libQt5Core.so.5:_ZNK7QString5countERK18QRegularExpression
libQt5Core.so.5:_ZNK7QString5rightEi
libQt5Core.so.5:_ZNK7QString5splitE5QChar6QFlagsIN2Qt18SplitBehaviorFlagsEENS2_15CaseSensitivityE
libQt5Core.so.5:_ZNK7QString5splitERK7QRegExp6QFlagsIN2Qt18SplitBehaviorFlagsEE
libQt5Core.so.5:_ZNK7QString5splitERKS_6QFlagsIN2Qt18SplitBehaviorFlagsEENS3_15CaseSensitivityE
libQt5Core.so.5:_ZNK7QString5toIntEPbi
libQt5Core.so.5:_ZNK7QString5utf16Ev
libQt5Core.so.5:_ZNK7QString7compareERKS_N2Qt15CaseSensitivityE
libQt5Core.so.5:_ZNK7QString7indexOfE5QChariN2Qt15CaseSensitivityE
libQt5Core.so.5:_ZNK7QString7indexOfERK18QRegularExpressioniP23QRegularExpressionMatch
libQt5Core.so.5:_ZNK7QString7indexOfERK7QRegExpi
libQt5Core.so.5:_ZNK7QString7indexOfERKS_iN2Qt15CaseSensitivityE
libQt5Core.so.5:_ZNK7QString8endsWithE5QCharN2Qt15CaseSensitivityE
libQt5Core.so.5:_ZNK7QString8endsWithERKS_N2Qt15CaseSensitivityE
libQt5Core.so.5:_ZNK7QString8toDoubleEPb
libQt5Core.so.5:_ZNK7QStringeqE13QLatin1String
libQt5Core.so.5:_ZNK7QThread23isInterruptionRequestedEv
libQt5Core.so.5:_ZNK7QThread9isRunningEv
libQt5Core.so.5:_ZNK8QProcess10exitStatusEv
libQt5Core.so.5:_ZNK8QProcess11canReadLineEv
libQt5Core.so.5:_ZNK8QProcess5errorEv
libQt5Core.so.5:_ZNK8QProcess8exitCodeEv
libQt5Core.so.5:_ZNK8QVariant10canConvertEi
libQt5Core.so.5:_ZNK8QVariant10toLongLongEPb
libQt5Core.so.5:_ZNK8QVariant11toULongLongEPb
libQt5Core.so.5:_ZNK8QVariant12toStringListEv
libQt5Core.so.5:_ZNK8QVariant3cmpERKS_
libQt5Core.so.5:_ZNK8QVariant4typeEv
libQt5Core.so.5:_ZNK8QVariant5toIntEPb
libQt5Core.so.5:_ZNK8QVariant5toMapEv
libQt5Core.so.5:_ZNK8QVariant6isNullEv
libQt5Core.so.5:_ZNK8QVariant6toBoolEv
libQt5Core.so.5:_ZNK8QVariant6toHashEv
libQt5Core.so.5:_ZNK8QVariant6toListEv
libQt5Core.so.5:_ZNK8QVariant6toUIntEPb
libQt5Core.so.5:_ZNK8QVariant7convertEiPv
libQt5Core.so.5:_ZNK8QVariant8toDoubleEPb
libQt5Core.so.5:_ZNK8QVariant8toStringEv
libQt5Core.so.5:_ZNK8QVariant8typeNameEv
libQt5Core.so.5:_ZNK8QVariant8userTypeEv
libQt5Core.so.5:_ZNK8QVariant9constDataEv
libQt5Core.so.5:_ZNK9QDateTime8toStringEN2Qt10DateFormatE
libQt5Core.so.5:_ZNK9QDateTime8toStringERK7QString
libQt5Core.so.5:_ZNK9QDateTime8toTime_tEv
libQt5Core.so.5:_ZNK9QFileInfo10isReadableEv
libQt5Core.so.5:_ZNK9QFileInfo10isWritableEv
libQt5Core.so.5:_ZNK9QFileInfo11absoluteDirEv
libQt5Core.so.5:_ZNK9QFileInfo12absolutePathEv
libQt5Core.so.5:_ZNK9QFileInfo16absoluteFilePathEv
libQt5Core.so.5:_ZNK9QFileInfo17canonicalFilePathEv
libQt5Core.so.5:_ZNK9QFileInfo3dirEv
libQt5Core.so.5:_ZNK9QFileInfo4pathEv
libQt5Core.so.5:_ZNK9QFileInfo4sizeEv
libQt5Core.so.5:_ZNK9QFileInfo5isDirEv
libQt5Core.so.5:_ZNK9QFileInfo6existsEv
libQt5Core.so.5:_ZNK9QFileInfo6isFileEv
libQt5Core.so.5:_ZNK9QFileInfo8baseNameEv
libQt5Core.so.5:_ZNK9QFileInfo8fileNameEv
libQt5Core.so.5:_ZNK9QFileInfo8filePathEv
libQt5Core.so.5:_ZNK9QIODevice11canReadLineEv
libQt5Core.so.5:_ZNK9QIODevice11errorStringEv
libQt5Core.so.5:_ZNK9QIODevice6isOpenEv
libQt5Core.so.5:_ZNK9QtPrivate15ResultStoreBase10filterModeEv
libQt5Core.so.5:_ZNK9QtPrivate15ResultStoreBase5countEv
libQt5Core.so.5:_ZNK9QtPrivate15ResultStoreBase8resultAtEi
libQt5Core.so.5:_ZTI10QException
libQt5Core.so.5:_ZTI18QAbstractItemModel
libQt5Core.so.5:_ZTI18QAbstractListModel
libQt5Core.so.5:_ZTI18QFutureWatcherBase
libQt5Core.so.5:_ZTI20QFutureInterfaceBase
libQt5Core.so.5:_ZTI21QSortFilterProxyModel
libQt5Core.so.5:_ZTI7QObject
libQt5Core.so.5:_ZTI7QThread
libQt5Core.so.5:_ZTI9QRunnable
libQt5Core.so.5:_ZTV18QFutureWatcherBase
libQt5Core.so.5:_ZTV19QUnhandledException
libQt5Core.so.5:_ZeqRK7QStringS1_
libQt5Core.so.5:_Zls6QDebugN8QVariant4TypeE
libQt5Core.so.5:_Zls6QDebugRK11QModelIndex
libQt5Core.so.5:_Zls6QDebugRK4QUrl
libQt5Core.so.5:_Zls6QDebugRK5QSize
libQt5Core.so.5:_Zls6QDebugRK7QLocale
libQt5Core.so.5:_Zls6QDebugRK8QVariant
libQt5Core.so.5:_ZltRK7QStringS1_
libQt5Core.so.5:qVersion
libQt5Core.so.5:qt_resourceFeatureZlib
libQt5Core.so.5:qt_version_tag
libQt5DBus.so.5:_Z14qDBusReplyFillRK12QDBusMessageR10QDBusErrorR8QVariant
libQt5DBus.so.5:_ZN10QDBusErrorC1ERK12QDBusMessage
libQt5DBus.so.5:_ZN10QDBusErrorC1Ev
libQt5DBus.so.5:_ZN12QDBusMessage12setArgumentsERK5QListI8QVariantE
libQt5DBus.so.5:_ZN12QDBusMessage16createMethodCallERK7QStringS2_S2_S2_
libQt5DBus.so.5:_ZN12QDBusMessageD1Ev
libQt5DBus.so.5:_ZN14QDBusInterfaceC1ERK7QStringS2_S2_RK15QDBusConnectionP7QObject
libQt5DBus.so.5:_ZN14QDBusInterfaceD1Ev
libQt5DBus.so.5:_ZN15QDBusConnection10sessionBusEv
libQt5DBus.so.5:_ZN15QDBusConnection9systemBusEv
libQt5DBus.so.5:_ZN15QDBusConnectionD1Ev
libQt5DBus.so.5:_ZN22QDBusAbstractInterface6doCallEN5QDBus8CallModeERK7QStringPK8QVariantm
libQt5DBus.so.5:_ZNK10QDBusError7isValidEv
libQt5DBus.so.5:_ZNK12QDBusMessage12errorMessageEv
libQt5DBus.so.5:_ZNK12QDBusMessage4pathEv
libQt5DBus.so.5:_ZNK12QDBusMessage4typeEv
libQt5DBus.so.5:_ZNK12QDBusMessage9argumentsEv
libQt5DBus.so.5:_ZNK15QDBusConnection4callERK12QDBusMessageN5QDBus8CallModeEi
libQt5DBus.so.5:_ZNK22QDBusAbstractInterface7isValidEv
libQt5DBus.so.5:_ZNK22QDBusAbstractInterface9interfaceEv
libQt5DBus.so.5:_ZNK22QDBusAbstractInterface9lastErrorEv
libQt5DBus.so.5:_Zls6QDebugRK10QDBusError
libQt5Gui.so.5:_ZN10QClipboard7setTextERK7QStringNS_4ModeE
libQt5Gui.so.5:_ZN12QFontMetricsC1ERK5QFont
libQt5Gui.so.5:_ZN12QFontMetricsD1Ev
libQt5Gui.so.5:_ZN12QPainterPath12closeSubpathEv
libQt5Gui.so.5:_ZN12QPainterPath5arcToERK6QRectFdd
libQt5Gui.so.5:_ZN12QPainterPath6lineToERK7QPointF
libQt5Gui.so.5:_ZN12QPainterPath6moveToERK7QPointF
libQt5Gui.so.5:_ZN12QPainterPathC1ERK7QPointF
libQt5Gui.so.5:_ZN12QPainterPathC1Ev
libQt5Gui.so.5:_ZN12QPainterPathD1Ev
libQt5Gui.so.5:_ZN13QStandardItem12setCheckableEb
libQt5Gui.so.5:_ZN13QStandardItem4readER11QDataStream
libQt5Gui.so.5:_ZN13QStandardItem7setDataERK8QVarianti
libQt5Gui.so.5:_ZN13QStandardItemC1ERK7QString
libQt5Gui.so.5:_ZN13QStandardItemC2Ev
libQt5Gui.so.5:_ZN13QStandardItemD2Ev
libQt5Gui.so.5:_ZN15QGuiApplication17setOverrideCursorERK7QCursor
libQt5Gui.so.5:_ZN15QGuiApplication21restoreOverrideCursorEv
libQt5Gui.so.5:_ZN15QGuiApplication25setApplicationDisplayNameERK7QString
libQt5Gui.so.5:_ZN15QGuiApplication25setQuitOnLastWindowClosedEb
libQt5Gui.so.5:_ZN15QGuiApplication7screensEv
libQt5Gui.so.5:_ZN15QGuiApplication9clipboardEv
libQt5Gui.so.5:_ZN15QLinearGradientC1Edddd
libQt5Gui.so.5:_ZN15QLinearGradientD1Ev
libQt5Gui.so.5:_ZN16QDesktopServices7openUrlERK4QUrl
libQt5Gui.so.5:_ZN18QStandardItemModel10insertRowsEiiRK11QModelIndex
libQt5Gui.so.5:_ZN18QStandardItemModel10removeRowsEiiRK11QModelIndex
libQt5Gui.so.5:_ZN18QStandardItemModel11qt_metacallEN11QMetaObject4CallEiPPv
libQt5Gui.so.5:_ZN18QStandardItemModel11qt_metacastEPKc
libQt5Gui.so.5:_ZN18QStandardItemModel11setItemDataERK11QModelIndexRK4QMapIi8QVariantE
libQt5Gui.so.5:_ZN18QStandardItemModel12dropMimeDataEPK9QMimeDataN2Qt10DropActionEiiRK11QModelIndex
libQt5Gui.so.5:_ZN18QStandardItemModel13insertColumnsEiiRK11QModelIndex
libQt5Gui.so.5:_ZN18QStandardItemModel13removeColumnsEiiRK11QModelIndex
libQt5Gui.so.5:_ZN18QStandardItemModel13setHeaderDataEiN2Qt11OrientationERK8QVarianti
libQt5Gui.so.5:_ZN18QStandardItemModel16staticMetaObjectE
libQt5Gui.so.5:_ZN18QStandardItemModel4sortEiN2Qt9SortOrderE
libQt5Gui.so.5:_ZN18QStandardItemModel5clearEv
libQt5Gui.so.5:_ZN18QStandardItemModel7setDataERK11QModelIndexRK8QVarianti
libQt5Gui.so.5:_ZN18QStandardItemModel7takeRowEi
libQt5Gui.so.5:_ZN18QStandardItemModel9appendRowERK5QListIP13QStandardItemE
libQt5Gui.so.5:_ZN18QStandardItemModelC2EP7QObject
libQt5Gui.so.5:_ZN18QStandardItemModelD2Ev
libQt5Gui.so.5:_ZN27QRegularExpressionValidatorC1ERK18QRegularExpressionP7QObject
libQt5Gui.so.5:_ZN4QPen12setJoinStyleEN2Qt12PenJoinStyleE
libQt5Gui.so.5:_ZN4QPen8setColorERK6QColor
libQt5Gui.so.5:_ZN4QPen8setWidthEi
libQt5Gui.so.5:_ZN4QPenC1ERK6QBrushdN2Qt8PenStyleENS3_11PenCapStyleENS3_12PenJoinStyleE
libQt5Gui.so.5:_ZN4QPenC1Ev
libQt5Gui.so.5:_ZN4QPenD1Ev
libQt5Gui.so.5:_ZN5QFont12setPixelSizeEi
libQt5Gui.so.5:_ZN5QFont12setPointSizeEi
libQt5Gui.so.5:_ZN5QFont12setStyleHintENS_9StyleHintENS_13StyleStrategyE
libQt5Gui.so.5:_ZN5QFont9setWeightEi
libQt5Gui.so.5:_ZN5QFontC1ERK7QStringiib
libQt5Gui.so.5:_ZN5QFontC1ERKS_
libQt5Gui.so.5:_ZN5QFontC1Ev
libQt5Gui.so.5:_ZN5QFontD1Ev
libQt5Gui.so.5:_ZN5QFontaSERKS_
libQt5Gui.so.5:_ZN5QIcon7addFileERK7QStringRK5QSizeNS_4ModeENS_5StateE
libQt5Gui.so.5:_ZN5QIcon9fromThemeERK7QString
libQt5Gui.so.5:_ZN5QIconC1ERK7QPixmap
libQt5Gui.so.5:_ZN5QIconC1ERK7QString
libQt5Gui.so.5:_ZN5QIconC1Ev
libQt5Gui.so.5:_ZN5QIconD1Ev
libQt5Gui.so.5:_ZN5QIconaSERKS_
libQt5Gui.so.5:_ZN6QBrushC1EN2Qt11GlobalColorENS0_10BrushStyleE
libQt5Gui.so.5:_ZN6QBrushC1ERK6QColorN2Qt10BrushStyleE
libQt5Gui.so.5:_ZN6QBrushC1ERK7QPixmap
libQt5Gui.so.5:_ZN6QBrushC1ERK9QGradient
libQt5Gui.so.5:_ZN6QBrushC1Ev
libQt5Gui.so.5:_ZN6QBrushD1Ev
libQt5Gui.so.5:_ZN6QBrushaSERKS_
libQt5Gui.so.5:_ZN6QColor13setNamedColorE13QLatin1String
libQt5Gui.so.5:_ZN6QColor13setNamedColorERK7QString
libQt5Gui.so.5:_ZN6QColor6setHsvEiiii
libQt5Gui.so.5:_ZN6QColor8fromRgbFEdddd
libQt5Gui.so.5:_ZN6QColor8setAlphaEi
libQt5Gui.so.5:_ZN6QColor9setAlphaFEd
libQt5Gui.so.5:_ZN6QColorC1EN2Qt11GlobalColorE
libQt5Gui.so.5:_ZN6QColorC1Ej
libQt5Gui.so.5:_ZN6QColoraSEN2Qt11GlobalColorE
libQt5Gui.so.5:_ZN6QColoraSERKS_
libQt5Gui.so.5:_ZN6QImage7setTextERK7QStringS2_
libQt5Gui.so.5:_ZN6QImageC1ERK7QStringPKc
libQt5Gui.so.5:_ZN6QImageC1ERKS_
libQt5Gui.so.5:_ZN6QImageC1Ev
libQt5Gui.so.5:_ZN6QImageD1Ev
libQt5Gui.so.5:_ZN7QCursorC1EN2Qt11CursorShapeE
libQt5Gui.so.5:_ZN7QCursorD1Ev
libQt5Gui.so.5:_ZN7QPixmap4fillERK6QColor
libQt5Gui.so.5:_ZN7QPixmapC1ERK5QSize
libQt5Gui.so.5:_ZN7QPixmapC1ERK7QStringPKc6QFlagsIN2Qt19ImageConversionFlagEE
libQt5Gui.so.5:_ZN7QPixmapC1ERKS_
libQt5Gui.so.5:_ZN7QPixmapC1Eii
libQt5Gui.so.5:_ZN7QPixmapC1Ev
libQt5Gui.so.5:_ZN7QPixmapD1Ev
libQt5Gui.so.5:_ZN7QPixmapaSERKS_
libQt5Gui.so.5:_ZN7QRegionC1Ev
libQt5Gui.so.5:_ZN8QPainter11setClipRectERK5QRectN2Qt13ClipOperationE
libQt5Gui.so.5:_ZN8QPainter13setRenderHintENS_10RenderHintEb
libQt5Gui.so.5:_ZN8QPainter15drawRoundedRectERK6QRectFddN2Qt8SizeModeE
libQt5Gui.so.5:_ZN8QPainter17setBackgroundModeEN2Qt6BGModeE
libQt5Gui.so.5:_ZN8QPainter3endEv
libQt5Gui.so.5:_ZN8QPainter4saveEv
libQt5Gui.so.5:_ZN8QPainter6rotateEd
libQt5Gui.so.5:_ZN8QPainter6setPenEN2Qt8PenStyleE
libQt5Gui.so.5:_ZN8QPainter6setPenERK4QPen
libQt5Gui.so.5:_ZN8QPainter6setPenERK6QColor
libQt5Gui.so.5:_ZN8QPainter7restoreEv
libQt5Gui.so.5:_ZN8QPainter7setFontERK5QFont
libQt5Gui.so.5:_ZN8QPainter8drawPathERK12QPainterPath
libQt5Gui.so.5:_ZN8QPainter8drawTextERK6QRectFiRK7QStringPS0_
libQt5Gui.so.5:_ZN8QPainter8drawTextERK7QPointFRK7QString
libQt5Gui.so.5:_ZN8QPainter8fillRectERK5QRectRK6QBrush
libQt5Gui.so.5:_ZN8QPainter8fillRectERK5QRectRK6QColor
libQt5Gui.so.5:_ZN8QPainter8setBrushERK6QBrush
libQt5Gui.so.5:_ZN8QPainter9drawImageERK7QPointFRK6QImage
libQt5Gui.so.5:_ZN8QPainter9drawLinesEPK5QLinei
libQt5Gui.so.5:_ZN8QPainter9drawRectsEPK5QRecti
libQt5Gui.so.5:_ZN8QPainter9eraseRectERK6QRectF
libQt5Gui.so.5:_ZN8QPainter9translateERK7QPointF
libQt5Gui.so.5:_ZN8QPainterC1EP12QPaintDevice
libQt5Gui.so.5:_ZN8QPainterD1Ev
libQt5Gui.so.5:_ZN8QPalette8setBrushENS_10ColorGroupENS_9ColorRoleERK6QBrush
libQt5Gui.so.5:_ZN8QPaletteC1ERKS_
libQt5Gui.so.5:_ZN8QPaletteC1Ev
libQt5Gui.so.5:_ZN8QPaletteD1Ev
libQt5Gui.so.5:_ZN9QGradient10setColorAtEdRK6QColor
libQt5Gui.so.5:_ZNK10QClipboard17supportsSelectionEv
libQt5Gui.so.5:_ZNK12QFontMetrics12boundingRectERK7QString
libQt5Gui.so.5:_ZNK12QFontMetrics17horizontalAdvanceERK7QStringi
libQt5Gui.so.5:_ZNK12QFontMetrics4sizeEiRK7QStringiPi
libQt5Gui.so.5:_ZNK12QFontMetrics6ascentEv
libQt5Gui.so.5:_ZNK12QFontMetrics6heightEv
libQt5Gui.so.5:_ZNK13QStandardItem5cloneEv
libQt5Gui.so.5:_ZNK13QStandardItem5writeER11QDataStream
libQt5Gui.so.5:_ZNK13QStandardItemltERKS_
libQt5Gui.so.5:_ZNK18QStandardItemModel10headerDataEiN2Qt11OrientationEi
libQt5Gui.so.5:_ZNK18QStandardItemModel11columnCountERK11QModelIndex
libQt5Gui.so.5:_ZNK18QStandardItemModel11hasChildrenERK11QModelIndex
libQt5Gui.so.5:_ZNK18QStandardItemModel20supportedDropActionsEv
libQt5Gui.so.5:_ZNK18QStandardItemModel4dataERK11QModelIndexi
libQt5Gui.so.5:_ZNK18QStandardItemModel4itemEii
libQt5Gui.so.5:_ZNK18QStandardItemModel5flagsERK11QModelIndex
libQt5Gui.so.5:_ZNK18QStandardItemModel5indexEiiRK11QModelIndex
libQt5Gui.so.5:_ZNK18QStandardItemModel6parentERK11QModelIndex
libQt5Gui.so.5:_ZNK18QStandardItemModel7siblingEiiRK11QModelIndex
libQt5Gui.so.5:_ZNK18QStandardItemModel8itemDataERK11QModelIndex
libQt5Gui.so.5:_ZNK18QStandardItemModel8mimeDataERK5QListI11QModelIndexE
libQt5Gui.so.5:_ZNK18QStandardItemModel8rowCountERK11QModelIndex
libQt5Gui.so.5:_ZNK18QStandardItemModel9mimeTypesEv
libQt5Gui.so.5:_ZNK5QFont9pointSizeEv
libQt5Gui.so.5:_ZNK5QIcon6isNullEv
libQt5Gui.so.5:_ZNK5QIcon6pixmapERK5QSizeNS_4ModeENS_5StateE
libQt5Gui.so.5:_ZNK6QColor3hueEv
libQt5Gui.so.5:_ZNK6QColor5valueEv
libQt5Gui.so.5:_ZNK6QColor6alphaFEv
libQt5Gui.so.5:_ZNK6QColor6darkerEi
libQt5Gui.so.5:_ZNK6QColor7lighterEi
libQt5Gui.so.5:_ZNK6QColorcv8QVariantEv
libQt5Gui.so.5:_ZNK6QImage4sizeEv
libQt5Gui.so.5:_ZNK6QImage5pixelEii
libQt5Gui.so.5:_ZNK6QImage5widthEv
libQt5Gui.so.5:_ZNK6QImage6heightEv
libQt5Gui.so.5:_ZNK7QCursor5shapeEv
libQt5Gui.so.5:_ZNK7QPixmap13scaledToWidthEiN2Qt18TransformationModeE
libQt5Gui.so.5:_ZNK7QPixmap14scaledToHeightEiN2Qt18TransformationModeE
libQt5Gui.so.5:_ZNK7QPixmap4sizeEv
libQt5Gui.so.5:_ZNK7QPixmap5widthEv
libQt5Gui.so.5:_ZNK7QPixmap6heightEv
libQt5Gui.so.5:_ZNK7QPixmap6isNullEv
libQt5Gui.so.5:_ZNK7QPixmap6scaledERK5QSizeN2Qt15AspectRatioModeENS3_18TransformationModeE
libQt5Gui.so.5:_ZNK7QPixmapcv8QVariantEv
libQt5Gui.so.5:_ZNK7QScreen13availableSizeEv
libQt5Gui.so.5:_ZNK7QScreen17availableGeometryEv
libQt5Gui.so.5:_ZNK8QPainter11fontMetricsEv
libQt5Gui.so.5:_ZNK8QPainter5brushEv
libQt5Gui.so.5:_ZNK8QPalette5brushENS_10ColorGroupENS_9ColorRoleE
libQt5Gui.so.5:_ZTI13QStandardItem
libQt5Gui.so.5:_ZTI18QStandardItemModel
libQt5Network.so.5:_ZN10QTcpSocketC1EP7QObject
libQt5Network.so.5:_ZN13QNetworkReply16staticMetaObjectE
libQt5Network.so.5:_ZN13QNetworkReply8finishedEv
libQt5Network.so.5:_ZN15QAbstractSocket13connectToHostERK7QStringt6QFlagsIN9QIODevice12OpenModeFlagEENS_20NetworkLayerProtocolE
libQt5Network.so.5:_ZN15QNetworkRequest12setAttributeENS_9AttributeERK8QVariant
libQt5Network.so.5:_ZN15QNetworkRequest12setRawHeaderERK10QByteArrayS2_
libQt5Network.so.5:_ZN15QNetworkRequestC1ERK4QUrl
libQt5Network.so.5:_ZN15QNetworkRequestD1Ev
libQt5Network.so.5:_ZN21QNetworkAccessManager3getERK15QNetworkRequest
libQt5Network.so.5:_ZN21QNetworkAccessManagerC1EP7QObject
libQt5Network.so.5:_ZNK13QNetworkReply10isFinishedEv
libQt5Network.so.5:_ZNK13QNetworkReply3urlEv
libQt5Network.so.5:_ZNK13QNetworkReply5errorEv
libQt5Network.so.5:_ZNK13QNetworkReply9isRunningEv
libQt5Qml.so.5:_ZN10QQmlEngine11retranslateEv
libQt5Qml.so.5:_ZN10QQmlEngine13addImportPathERK7QString
libQt5Qml.so.5:_ZN11QQmlContext18setContextPropertyERK7QStringP7QObject
libQt5Qml.so.5:_ZN11QQmlPrivate11qmlregisterENS_16RegistrationTypeEPv
libQt5Qml.so.5:_ZN13QQmlComponent13statusChangedENS_6StatusE
libQt5Qml.so.5:_ZN13QQmlComponent16staticMetaObjectE
libQt5Qml.so.5:_ZN13QQmlComponentC1EP10QQmlEngineRK4QUrlNS_15CompilationModeEP7QObject
libQt5Qml.so.5:_ZN9QQmlErrorD1Ev
libQt5Qml.so.5:_ZNK10QQmlEngine11rootContextEv
libQt5Qml.so.5:_ZNK10QQmlEngine14importPathListEv
libQt5Qml.so.5:_ZNK13QQmlComponent11errorStringEv
libQt5Qml.so.5:_ZNK13QQmlComponent6errorsEv
libQt5Qml.so.5:_ZNK13QQmlComponent6statusEv
libQt5Qml.so.5:_ZNK13QQmlComponent7isReadyEv
libQt5Qml.so.5:_Zls6QDebugRK9QQmlError
libQt5Quick.so.5:_ZN10QQuickItem16staticMetaObjectE
libQt5Quick.so.5:_ZNK10QQuickItem6heightEv
libQt5QuickWidgets.so.5:_ZN12QQuickWidget10setContentERK4QUrlP13QQmlComponentP7QObject
libQt5QuickWidgets.so.5:_ZN12QQuickWidget13setResizeModeENS_10ResizeModeE
libQt5QuickWidgets.so.5:_ZN12QQuickWidget9setSourceERK4QUrl
libQt5QuickWidgets.so.5:_ZN12QQuickWidgetC1EP7QWidget
libQt5QuickWidgets.so.5:_ZNK12QQuickWidget10rootObjectEv
libQt5QuickWidgets.so.5:_ZNK12QQuickWidget6engineEv
libQt5Svg.so.5:_ZN12QSvgRenderer6renderEP8QPainter
libQt5Svg.so.5:_ZN12QSvgRendererC1ERK7QStringP7QObject
libQt5Svg.so.5:_ZN12QSvgRendererD1Ev
libQt5Svg.so.5:_ZNK12QSvgRenderer11defaultSizeEv
libQt5WebEngine.so.5:_ZN11QtWebEngine10initializeEv
libQt5WebEngineWidgets.so.5:_ZN14QWebEngineView4loadERK4QUrl
libQt5WebEngineWidgets.so.5:_ZN14QWebEngineViewC1EP7QWidget
libQt5Widgets.so.5:_ZN10QBoxLayout10addSpacingEi
libQt5Widgets.so.5:_ZN10QBoxLayout10addStretchEi
libQt5Widgets.so.5:_ZN10QBoxLayout10setSpacingEi
libQt5Widgets.so.5:_ZN10QBoxLayout10setStretchEii
libQt5Widgets.so.5:_ZN10QBoxLayout12insertWidgetEiP7QWidgeti6QFlagsIN2Qt13AlignmentFlagEE
libQt5Widgets.so.5:_ZN10QBoxLayout12setDirectionENS_9DirectionE
libQt5Widgets.so.5:_ZN10QBoxLayout13addSpacerItemEP11QSpacerItem
libQt5Widgets.so.5:_ZN10QBoxLayout13insertSpacingEii
libQt5Widgets.so.5:_ZN10QBoxLayout16setStretchFactorEP7QLayouti
libQt5Widgets.so.5:_ZN10QBoxLayout16setStretchFactorEP7QWidgeti
libQt5Widgets.so.5:_ZN10QBoxLayout9addLayoutEP7QLayouti
libQt5Widgets.so.5:_ZN10QBoxLayout9addWidgetEP7QWidgeti6QFlagsIN2Qt13AlignmentFlagEE
libQt5Widgets.so.5:_ZN10QTabWidget10setTabTextEiRK7QString
libQt5Widgets.so.5:_ZN10QTabWidget15setCurrentIndexEi
libQt5Widgets.so.5:_ZN10QTabWidget6addTabEP7QWidgetRK7QString
libQt5Widgets.so.5:_ZN10QTabWidgetC1EP7QWidget
libQt5Widgets.so.5:_ZN11QFormLayout20setFieldGrowthPolicyENS_17FieldGrowthPolicyE
libQt5Widgets.so.5:_ZN11QFormLayout6addRowEP7QWidget
libQt5Widgets.so.5:_ZN11QFormLayout6addRowERK7QStringP7QLayout
libQt5Widgets.so.5:_ZN11QFormLayout7setItemEiNS_8ItemRoleEP11QLayoutItem
libQt5Widgets.so.5:_ZN11QFormLayout9setLayoutEiNS_8ItemRoleEP7QLayout
libQt5Widgets.so.5:_ZN11QFormLayout9setWidgetEiNS_8ItemRoleEP7QWidget
libQt5Widgets.so.5:_ZN11QFormLayoutC1EP7QWidget
libQt5Widgets.so.5:_ZN11QGridLayout16setColumnStretchEii
libQt5Widgets.so.5:_ZN11QGridLayout18setVerticalSpacingEi
libQt5Widgets.so.5:_ZN11QGridLayout21setColumnMinimumWidthEii
libQt5Widgets.so.5:_ZN11QGridLayout7addItemEP11QLayoutItemiiii6QFlagsIN2Qt13AlignmentFlagEE
libQt5Widgets.so.5:_ZN11QGridLayout9addLayoutEP7QLayoutiiii6QFlagsIN2Qt13AlignmentFlagEE
libQt5Widgets.so.5:_ZN11QGridLayout9addWidgetEP7QWidgetii6QFlagsIN2Qt13AlignmentFlagEE
libQt5Widgets.so.5:_ZN11QGridLayout9addWidgetEP7QWidgetiiii6QFlagsIN2Qt13AlignmentFlagEE
libQt5Widgets.so.5:_ZN11QGridLayoutC1EP7QWidget
libQt5Widgets.so.5:_ZN11QGridLayoutC1Ev
libQt5Widgets.so.5:_ZN11QHBoxLayoutC1EP7QWidget
libQt5Widgets.so.5:_ZN11QHBoxLayoutC1Ev
libQt5Widgets.so.5:_ZN11QHeaderView20setSectionResizeModeENS_10ResizeModeE
libQt5Widgets.so.5:_ZN11QHeaderView20setSectionResizeModeEiNS_10ResizeModeE
libQt5Widgets.so.5:_ZN11QHeaderView21setStretchLastSectionEb
libQt5Widgets.so.5:_ZN11QLayoutItem12setAlignmentE6QFlagsIN2Qt13AlignmentFlagEE
libQt5Widgets.so.5:_ZN11QListWidget10insertItemEiP15QListWidgetItem
libQt5Widgets.so.5:_ZN11QListWidget11insertItemsEiRK11QStringList
libQt5Widgets.so.5:_ZN11QListWidget11itemChangedEP15QListWidgetItem
libQt5Widgets.so.5:_ZN11QListWidget13setCurrentRowEi
libQt5Widgets.so.5:_ZN11QListWidget16staticMetaObjectE
libQt5Widgets.so.5:_ZN11QListWidget17itemDoubleClickedEP15QListWidgetItem
libQt5Widgets.so.5:_ZN11QListWidget17setSortingEnabledEb
libQt5Widgets.so.5:_ZN11QListWidget20itemSelectionChangedEv
libQt5Widgets.so.5:_ZN11QListWidgetC1EP7QWidget
libQt5Widgets.so.5:_ZN11QMessageBox13setIconPixmapERK7QPixmap
libQt5Widgets.so.5:_ZN11QMessageBox16setDefaultButtonENS_14StandardButtonE
libQt5Widgets.so.5:_ZN11QMessageBox8questionEP7QWidgetRK7QStringS4_S4_S4_S4_ii
libQt5Widgets.so.5:_ZN11QMessageBoxC1ENS_4IconERK7QStringS3_6QFlagsINS_14StandardButtonEEP7QWidgetS4_IN2Qt10WindowTypeEE
libQt5Widgets.so.5:_ZN11QMessageBoxD1Ev
libQt5Widgets.so.5:_ZN11QPushButton7setFlatEb
libQt5Widgets.so.5:_ZN11QPushButtonC1EP7QWidget
libQt5Widgets.so.5:_ZN11QPushButtonC1ERK5QIconRK7QStringP7QWidget
libQt5Widgets.so.5:_ZN11QScrollArea18setWidgetResizableEb
libQt5Widgets.so.5:_ZN11QScrollArea9setWidgetEP7QWidget
libQt5Widgets.so.5:_ZN11QScrollAreaC1EP7QWidget
libQt5Widgets.so.5:_ZN11QSpacerItem10changeSizeEiiN11QSizePolicy6PolicyES1_
libQt5Widgets.so.5:_ZN11QToolButtonC1EP7QWidget
libQt5Widgets.so.5:_ZN11QVBoxLayoutC1EP7QWidget
libQt5Widgets.so.5:_ZN11QVBoxLayoutC1Ev
libQt5Widgets.so.5:_ZN12QApplication11qt_metacallEN11QMetaObject4CallEiPPv
libQt5Widgets.so.5:_ZN12QApplication11qt_metacastEPKc
libQt5Widgets.so.5:_ZN12QApplication13compressEventEP6QEventP7QObjectP14QPostEventList
libQt5Widgets.so.5:_ZN12QApplication13setWindowIconERK5QIcon
libQt5Widgets.so.5:_ZN12QApplication15topLevelWidgetsEv
libQt5Widgets.so.5:_ZN12QApplication16staticMetaObjectE
libQt5Widgets.so.5:_ZN12QApplication17startDragDistanceEv
libQt5Widgets.so.5:_ZN12QApplication19doubleClickIntervalEv
libQt5Widgets.so.5:_ZN12QApplication21keyboardInputIntervalEv
libQt5Widgets.so.5:_ZN12QApplication4execEv
libQt5Widgets.so.5:_ZN12QApplication4fontEv
libQt5Widgets.so.5:_ZN12QApplication5eventEP6QEvent
libQt5Widgets.so.5:_ZN12QApplication5styleEv
libQt5Widgets.so.5:_ZN12QApplication6notifyEP7QObjectP6QEvent
libQt5Widgets.so.5:_ZN12QApplication7desktopEv
libQt5Widgets.so.5:_ZN12QApplicationC2ERiPPci
libQt5Widgets.so.5:_ZN12QApplicationD2Ev
libQt5Widgets.so.5:_ZN12QButtonGroup12setExclusiveEb
libQt5Widgets.so.5:_ZN12QButtonGroup16staticMetaObjectE
libQt5Widgets.so.5:_ZN12QButtonGroup9addButtonEP15QAbstractButtoni
libQt5Widgets.so.5:_ZN12QButtonGroup9idToggledEib
libQt5Widgets.so.5:_ZN12QButtonGroupC1EP7QObject
libQt5Widgets.so.5:_ZN12QProgressBar10setMaximumEi
libQt5Widgets.so.5:_ZN12QProgressBar8setValueEi
libQt5Widgets.so.5:_ZN12QProgressBarC1EP7QWidget
libQt5Widgets.so.5:_ZN12QRadioButtonC1EP7QWidget
libQt5Widgets.so.5:_ZN12QStyleOption4initEPK7QWidget
libQt5Widgets.so.5:_ZN12QStyleOptionC2Eii
libQt5Widgets.so.5:_ZN12QStyleOptionD2Ev
libQt5Widgets.so.5:_ZN12QStyleOptionaSERKS_
libQt5Widgets.so.5:_ZN12QTextBrowserC1EP7QWidget
libQt5Widgets.so.5:_ZN14QPlainTextEdit11setReadOnlyEb
libQt5Widgets.so.5:_ZN14QPlainTextEdit15appendPlainTextERK7QString
libQt5Widgets.so.5:_ZN14QPlainTextEdit5clearEv
libQt5Widgets.so.5:_ZN14QPlainTextEditC1EP7QWidget
libQt5Widgets.so.5:_ZN14QStackedLayout9addWidgetEP7QWidget
libQt5Widgets.so.5:_ZN14QStackedLayoutC1EP7QWidget
libQt5Widgets.so.5:_ZN14QStackedWidget12insertWidgetEiP7QWidget
libQt5Widgets.so.5:_ZN14QStackedWidget12removeWidgetEP7QWidget
libQt5Widgets.so.5:_ZN14QStackedWidget15setCurrentIndexEi
libQt5Widgets.so.5:_ZN14QStackedWidget16setCurrentWidgetEP7QWidget
libQt5Widgets.so.5:_ZN14QStackedWidget9addWidgetEP7QWidget
libQt5Widgets.so.5:_ZN14QStackedWidgetC1EP7QWidget
libQt5Widgets.so.5:_ZN15QAbstractButton10setCheckedEb
libQt5Widgets.so.5:_ZN15QAbstractButton11setIconSizeERK5QSize
libQt5Widgets.so.5:_ZN15QAbstractButton12setCheckableEb
libQt5Widgets.so.5:_ZN15QAbstractButton16staticMetaObjectE
libQt5Widgets.so.5:_ZN15QAbstractButton5clickEv
libQt5Widgets.so.5:_ZN15QAbstractButton7clickedEb
libQt5Widgets.so.5:_ZN15QAbstractButton7setIconERK5QIcon
libQt5Widgets.so.5:_ZN15QAbstractButton7setTextERK7QString
libQt5Widgets.so.5:_ZN15QAbstractButton7toggledEb
libQt5Widgets.so.5:_ZN15QListWidgetItem4readER11QDataStream
libQt5Widgets.so.5:_ZN15QListWidgetItem7setDataEiRK8QVariant
libQt5Widgets.so.5:_ZN15QListWidgetItem8setFlagsE6QFlagsIN2Qt8ItemFlagEE
libQt5Widgets.so.5:_ZN15QListWidgetItemC1ERK7QStringP11QListWidgeti
libQt5Widgets.so.5:_ZN15QListWidgetItemC2ERK7QStringP11QListWidgeti
libQt5Widgets.so.5:_ZN15QListWidgetItemD2Ev
libQt5Widgets.so.5:_ZN16QDialogButtonBox14setOrientationEN2Qt11OrientationE
libQt5Widgets.so.5:_ZN16QDialogButtonBox16staticMetaObjectE
libQt5Widgets.so.5:_ZN16QDialogButtonBox18setStandardButtonsE6QFlagsINS_14StandardButtonEE
libQt5Widgets.so.5:_ZN16QDialogButtonBox7clickedEP15QAbstractButton
libQt5Widgets.so.5:_ZN16QDialogButtonBoxC1E6QFlagsINS_14StandardButtonEEN2Qt11OrientationEP7QWidget
libQt5Widgets.so.5:_ZN16QDialogButtonBoxC1EP7QWidget
libQt5Widgets.so.5:_ZN17QAbstractItemView10commitDataEP7QWidget
libQt5Widgets.so.5:_ZN17QAbstractItemView10timerEventEP11QTimerEvent
libQt5Widgets.so.5:_ZN17QAbstractItemView11closeEditorEP7QWidgetN21QAbstractItemDelegate11EndEditHintE
libQt5Widgets.so.5:_ZN17QAbstractItemView11dataChangedERK11QModelIndexS2_RK7QVectorIiE
libQt5Widgets.so.5:_ZN17QAbstractItemView11eventFilterEP7QObjectP6QEvent
libQt5Widgets.so.5:_ZN17QAbstractItemView11qt_metacallEN11QMetaObject4CallEiPPv
libQt5Widgets.so.5:_ZN17QAbstractItemView11qt_metacastEPKc
libQt5Widgets.so.5:_ZN17QAbstractItemView11resizeEventEP12QResizeEvent
libQt5Widgets.so.5:_ZN17QAbstractItemView12focusInEventEP11QFocusEvent
libQt5Widgets.so.5:_ZN17QAbstractItemView12rowsInsertedERK11QModelIndexii
libQt5Widgets.so.5:_ZN17QAbstractItemView12setRootIndexERK11QModelIndex
libQt5Widgets.so.5:_ZN17QAbstractItemView13doItemsLayoutEv
libQt5Widgets.so.5:_ZN17QAbstractItemView13doubleClickedERK11QModelIndex
libQt5Widgets.so.5:_ZN17QAbstractItemView13dragMoveEventEP14QDragMoveEvent
libQt5Widgets.so.5:_ZN17QAbstractItemView13focusOutEventEP11QFocusEvent
libQt5Widgets.so.5:_ZN17QAbstractItemView13keyPressEventEP9QKeyEvent
libQt5Widgets.so.5:_ZN17QAbstractItemView13viewportEventEP6QEvent
libQt5Widgets.so.5:_ZN17QAbstractItemView14currentChangedERK11QModelIndexS2_
libQt5Widgets.so.5:_ZN17QAbstractItemView14dragEnterEventEP15QDragEnterEvent
libQt5Widgets.so.5:_ZN17QAbstractItemView14dragLeaveEventEP15QDragLeaveEvent
libQt5Widgets.so.5:_ZN17QAbstractItemView14keyboardSearchERK7QString
libQt5Widgets.so.5:_ZN17QAbstractItemView15editorDestroyedEP7QObject
libQt5Widgets.so.5:_ZN17QAbstractItemView15mousePressEventEP11QMouseEvent
libQt5Widgets.so.5:_ZN17QAbstractItemView15setCurrentIndexERK11QModelIndex
libQt5Widgets.so.5:_ZN17QAbstractItemView15setDragDropModeENS_12DragDropModeE
libQt5Widgets.so.5:_ZN17QAbstractItemView15setEditTriggersE6QFlagsINS_11EditTriggerEE
libQt5Widgets.so.5:_ZN17QAbstractItemView15setItemDelegateEP21QAbstractItemDelegate
libQt5Widgets.so.5:_ZN17QAbstractItemView16inputMethodEventEP17QInputMethodEvent
libQt5Widgets.so.5:_ZN17QAbstractItemView16selectionChangedERK14QItemSelectionS2_
libQt5Widgets.so.5:_ZN17QAbstractItemView16setSelectionModeENS_13SelectionModeE
libQt5Widgets.so.5:_ZN17QAbstractItemView16staticMetaObjectE
libQt5Widgets.so.5:_ZN17QAbstractItemView16updateEditorDataEv
libQt5Widgets.so.5:_ZN17QAbstractItemView17mouseReleaseEventEP11QMouseEvent
libQt5Widgets.so.5:_ZN17QAbstractItemView17setSelectionModelEP19QItemSelectionModel
libQt5Widgets.so.5:_ZN17QAbstractItemView18focusNextPrevChildEb
libQt5Widgets.so.5:_ZN17QAbstractItemView20rowsAboutToBeRemovedERK11QModelIndexii
libQt5Widgets.so.5:_ZN17QAbstractItemView20setSelectionBehaviorENS_17SelectionBehaviorE
libQt5Widgets.so.5:_ZN17QAbstractItemView21mouseDoubleClickEventEP11QMouseEvent
libQt5Widgets.so.5:_ZN17QAbstractItemView22updateEditorGeometriesEv
libQt5Widgets.so.5:_ZN17QAbstractItemView23setAlternatingRowColorsEb
libQt5Widgets.so.5:_ZN17QAbstractItemView23verticalScrollbarActionEi
libQt5Widgets.so.5:_ZN17QAbstractItemView25horizontalScrollbarActionEi
libQt5Widgets.so.5:_ZN17QAbstractItemView29verticalScrollbarValueChangedEi
libQt5Widgets.so.5:_ZN17QAbstractItemView31horizontalScrollbarValueChangedEi
libQt5Widgets.so.5:_ZN17QAbstractItemView4editERK11QModelIndexNS_11EditTriggerEP6QEvent
libQt5Widgets.so.5:_ZN17QAbstractItemView5eventEP6QEvent
libQt5Widgets.so.5:_ZN17QAbstractItemView5resetEv
libQt5Widgets.so.5:_ZN17QAbstractItemView7clickedERK11QModelIndex
libQt5Widgets.so.5:_ZN17QAbstractItemView8setModelEP18QAbstractItemModel
libQt5Widgets.so.5:_ZN17QAbstractItemView9dropEventEP10QDropEvent
libQt5Widgets.so.5:_ZN17QAbstractItemView9selectAllEv
libQt5Widgets.so.5:_ZN17QAbstractItemView9startDragE6QFlagsIN2Qt10DropActionEE
libQt5Widgets.so.5:_ZN17QAbstractItemViewC2EP7QWidget
libQt5Widgets.so.5:_ZN17QAbstractItemViewD2Ev
libQt5Widgets.so.5:_ZN18QStyleOptionButtonC1Ev
libQt5Widgets.so.5:_ZN19QAbstractScrollArea10wheelEventEP11QWheelEvent
libQt5Widgets.so.5:_ZN19QAbstractScrollArea13setupViewportEP7QWidget
libQt5Widgets.so.5:_ZN19QAbstractScrollArea16contextMenuEventEP17QContextMenuEvent
libQt5Widgets.so.5:_ZN19QAbstractScrollArea16scrollContentsByEii
libQt5Widgets.so.5:_ZN19QAbstractScrollArea26setVerticalScrollBarPolicyEN2Qt15ScrollBarPolicyE
libQt5Widgets.so.5:_ZN19QAbstractScrollArea28setHorizontalScrollBarPolicyEN2Qt15ScrollBarPolicyE
libQt5Widgets.so.5:_ZN19QStyledItemDelegate11editorEventEP6QEventP18QAbstractItemModelRK20QStyleOptionViewItemRK11QModelIndex
libQt5Widgets.so.5:_ZN19QStyledItemDelegate11eventFilterEP7QObjectP6QEvent
libQt5Widgets.so.5:_ZN19QStyledItemDelegate11qt_metacallEN11QMetaObject4CallEiPPv
libQt5Widgets.so.5:_ZN19QStyledItemDelegate11qt_metacastEPKc
libQt5Widgets.so.5:_ZN19QStyledItemDelegateC2EP7QObject
libQt5Widgets.so.5:_ZN19QStyledItemDelegateD2Ev
libQt5Widgets.so.5:_ZN20QStyleOptionViewItemC1Ev
libQt5Widgets.so.5:_ZN21QAbstractItemDelegate9helpEventEP10QHelpEventP17QAbstractItemViewRK20QStyleOptionViewItemRK11QModelIndex
libQt5Widgets.so.5:_ZN6QFrame11changeEventEP6QEvent
libQt5Widgets.so.5:_ZN6QFrame12setLineWidthEi
libQt5Widgets.so.5:_ZN6QFrame13setFrameShapeENS_5ShapeE
libQt5Widgets.so.5:_ZN6QFrame13setFrameStyleEi
libQt5Widgets.so.5:_ZN6QFrame14setFrameShadowENS_6ShadowE
libQt5Widgets.so.5:_ZN6QFrameC1EP7QWidget6QFlagsIN2Qt10WindowTypeEE
libQt5Widgets.so.5:_ZN6QLabel10paintEventEP11QPaintEvent
libQt5Widgets.so.5:_ZN6QLabel11changeEventEP6QEvent
libQt5Widgets.so.5:_ZN6QLabel11qt_metacallEN11QMetaObject4CallEiPPv
libQt5Widgets.so.5:_ZN6QLabel11qt_metacastEPKc
libQt5Widgets.so.5:_ZN6QLabel11setWordWrapEb
libQt5Widgets.so.5:_ZN6QLabel12focusInEventEP11QFocusEvent
libQt5Widgets.so.5:_ZN6QLabel12setAlignmentE6QFlagsIN2Qt13AlignmentFlagEE
libQt5Widgets.so.5:_ZN6QLabel13focusOutEventEP11QFocusEvent
libQt5Widgets.so.5:_ZN6QLabel13keyPressEventEP9QKeyEvent
libQt5Widgets.so.5:_ZN6QLabel13linkActivatedERK7QString
libQt5Widgets.so.5:_ZN6QLabel13setTextFormatEN2Qt10TextFormatE
libQt5Widgets.so.5:_ZN6QLabel14mouseMoveEventEP11QMouseEvent
libQt5Widgets.so.5:_ZN6QLabel15mousePressEventEP11QMouseEvent
libQt5Widgets.so.5:_ZN6QLabel16contextMenuEventEP17QContextMenuEvent
libQt5Widgets.so.5:_ZN6QLabel16staticMetaObjectE
libQt5Widgets.so.5:_ZN6QLabel17mouseReleaseEventEP11QMouseEvent
libQt5Widgets.so.5:_ZN6QLabel17setScaledContentsEb
libQt5Widgets.so.5:_ZN6QLabel18focusNextPrevChildEb
libQt5Widgets.so.5:_ZN6QLabel20setOpenExternalLinksEb
libQt5Widgets.so.5:_ZN6QLabel23setTextInteractionFlagsE6QFlagsIN2Qt19TextInteractionFlagEE
libQt5Widgets.so.5:_ZN6QLabel5clearEv
libQt5Widgets.so.5:_ZN6QLabel5eventEP6QEvent
libQt5Widgets.so.5:_ZN6QLabel7setTextERK7QString
libQt5Widgets.so.5:_ZN6QLabel8setBuddyEP7QWidget
libQt5Widgets.so.5:_ZN6QLabel9setMarginEi
libQt5Widgets.so.5:_ZN6QLabel9setPixmapERK7QPixmap
libQt5Widgets.so.5:_ZN6QLabelC1EP7QWidget6QFlagsIN2Qt10WindowTypeEE
libQt5Widgets.so.5:_ZN6QLabelC1ERK7QStringP7QWidget6QFlagsIN2Qt10WindowTypeEE
libQt5Widgets.so.5:_ZN6QLabelC2EP7QWidget6QFlagsIN2Qt10WindowTypeEE
libQt5Widgets.so.5:_ZN6QLabelC2ERK7QStringP7QWidget6QFlagsIN2Qt10WindowTypeEE
libQt5Widgets.so.5:_ZN6QLabelD2Ev
libQt5Widgets.so.5:_ZN7QDialog10closeEventEP11QCloseEvent
libQt5Widgets.so.5:_ZN7QDialog10setVisibleEb
libQt5Widgets.so.5:_ZN7QDialog11eventFilterEP7QObjectP6QEvent
libQt5Widgets.so.5:_ZN7QDialog11qt_metacallEN11QMetaObject4CallEiPPv
libQt5Widgets.so.5:_ZN7QDialog11qt_metacastEPKc
libQt5Widgets.so.5:_ZN7QDialog11resizeEventEP12QResizeEvent
libQt5Widgets.so.5:_ZN7QDialog13keyPressEventEP9QKeyEvent
libQt5Widgets.so.5:_ZN7QDialog16contextMenuEventEP17QContextMenuEvent
libQt5Widgets.so.5:_ZN7QDialog16staticMetaObjectE
libQt5Widgets.so.5:_ZN7QDialog4doneEi
libQt5Widgets.so.5:_ZN7QDialog4execEv
libQt5Widgets.so.5:_ZN7QDialog4openEv
libQt5Widgets.so.5:_ZN7QDialog6acceptEv
libQt5Widgets.so.5:_ZN7QDialog6rejectEv
libQt5Widgets.so.5:_ZN7QDialog8finishedEi
libQt5Widgets.so.5:_ZN7QDialog8setModalEb
libQt5Widgets.so.5:_ZN7QDialog9showEventEP10QShowEvent
libQt5Widgets.so.5:_ZN7QDialogC1EP7QWidget6QFlagsIN2Qt10WindowTypeEE
libQt5Widgets.so.5:_ZN7QDialogC2EP7QWidget6QFlagsIN2Qt10WindowTypeEE
libQt5Widgets.so.5:_ZN7QDialogD2Ev
libQt5Widgets.so.5:_ZN7QLayout10setSpacingEi
libQt5Widgets.so.5:_ZN7QLayout12removeWidgetEP7QWidget
libQt5Widgets.so.5:_ZN7QLayout13replaceWidgetEP7QWidgetS1_6QFlagsIN2Qt15FindChildOptionEE
libQt5Widgets.so.5:_ZN7QLayout17setSizeConstraintENS_14SizeConstraintE
libQt5Widgets.so.5:_ZN7QLayout18setContentsMarginsEiiii
libQt5Widgets.so.5:_ZN7QLayout9addWidgetEP7QWidget
libQt5Widgets.so.5:_ZN7QLayout9setMarginEi
libQt5Widgets.so.5:_ZN7QWidget10closeEventEP11QCloseEvent
libQt5Widgets.so.5:_ZN7QWidget10enterEventEP6QEvent
libQt5Widgets.so.5:_ZN7QWidget10leaveEventEP6QEvent
libQt5Widgets.so.5:_ZN7QWidget10paintEventEP11QPaintEvent
libQt5Widgets.so.5:_ZN7QWidget10setEnabledEb
libQt5Widgets.so.5:_ZN7QWidget10setPaletteERK8QPalette
libQt5Widgets.so.5:_ZN7QWidget10setToolTipERK7QString
libQt5Widgets.so.5:_ZN7QWidget10setVisibleEb
libQt5Widgets.so.5:_ZN7QWidget10wheelEventEP11QWheelEvent
libQt5Widgets.so.5:_ZN7QWidget11actionEventEP12QActionEvent
libQt5Widgets.so.5:_ZN7QWidget11changeEventEP6QEvent
libQt5Widgets.so.5:_ZN7QWidget11nativeEventERK10QByteArrayPvPl
libQt5Widgets.so.5:_ZN7QWidget11qt_metacallEN11QMetaObject4CallEiPPv
libQt5Widgets.so.5:_ZN7QWidget11qt_metacastEPKc
libQt5Widgets.so.5:_ZN7QWidget11resizeEventEP12QResizeEvent
libQt5Widgets.so.5:_ZN7QWidget11setBaseSizeEii
libQt5Widgets.so.5:_ZN7QWidget11setGeometryERK5QRect
libQt5Widgets.so.5:_ZN7QWidget11setTabOrderEPS_S0_
libQt5Widgets.so.5:_ZN7QWidget11tabletEventEP12QTabletEvent
libQt5Widgets.so.5:_ZN7QWidget12focusInEventEP11QFocusEvent
libQt5Widgets.so.5:_ZN7QWidget12setAttributeEN2Qt15WidgetAttributeEb
libQt5Widgets.so.5:_ZN7QWidget12setFixedSizeERK5QSize
libQt5Widgets.so.5:_ZN7QWidget12setFixedSizeEii
libQt5Widgets.so.5:_ZN7QWidget13dragMoveEventEP14QDragMoveEvent
libQt5Widgets.so.5:_ZN7QWidget13focusOutEventEP11QFocusEvent
libQt5Widgets.so.5:_ZN7QWidget13keyPressEventEP9QKeyEvent
libQt5Widgets.so.5:_ZN7QWidget13setFixedWidthEi
libQt5Widgets.so.5:_ZN7QWidget13setSizePolicyE11QSizePolicy
libQt5Widgets.so.5:_ZN7QWidget13setStyleSheetERK7QString
libQt5Widgets.so.5:_ZN7QWidget13setWindowFlagEN2Qt10WindowTypeEb
libQt5Widgets.so.5:_ZN7QWidget13showMaximizedEv
libQt5Widgets.so.5:_ZN7QWidget14dragEnterEventEP15QDragEnterEvent
libQt5Widgets.so.5:_ZN7QWidget14dragLeaveEventEP15QDragLeaveEvent
libQt5Widgets.so.5:_ZN7QWidget14mouseMoveEventEP11QMouseEvent
libQt5Widgets.so.5:_ZN7QWidget14setAcceptDropsEb
libQt5Widgets.so.5:_ZN7QWidget14setFixedHeightEi
libQt5Widgets.so.5:_ZN7QWidget14setFocusPolicyEN2Qt11FocusPolicyE
libQt5Widgets.so.5:_ZN7QWidget14setMaximumSizeEii
libQt5Widgets.so.5:_ZN7QWidget14setMinimumSizeEii
libQt5Widgets.so.5:_ZN7QWidget14setWindowTitleERK7QString
libQt5Widgets.so.5:_ZN7QWidget14updateGeometryEv
libQt5Widgets.so.5:_ZN7QWidget15keyReleaseEventEP9QKeyEvent
libQt5Widgets.so.5:_ZN7QWidget15mousePressEventEP11QMouseEvent
libQt5Widgets.so.5:_ZN7QWidget15setMinimumWidthEi
libQt5Widgets.so.5:_ZN7QWidget16contextMenuEventEP17QContextMenuEvent
libQt5Widgets.so.5:_ZN7QWidget16inputMethodEventEP17QInputMethodEvent
libQt5Widgets.so.5:_ZN7QWidget16setMaximumHeightEi
libQt5Widgets.so.5:_ZN7QWidget16setMinimumHeightEi
libQt5Widgets.so.5:_ZN7QWidget16staticMetaObjectE
libQt5Widgets.so.5:_ZN7QWidget17mouseReleaseEventEP11QMouseEvent
libQt5Widgets.so.5:_ZN7QWidget17setAccessibleNameERK7QString
libQt5Widgets.so.5:_ZN7QWidget17setWindowModalityEN2Qt14WindowModalityE
libQt5Widgets.so.5:_ZN7QWidget18focusNextPrevChildEb
libQt5Widgets.so.5:_ZN7QWidget18setContentsMarginsEiiii
libQt5Widgets.so.5:_ZN7QWidget21mouseDoubleClickEventEP11QMouseEvent
libQt5Widgets.so.5:_ZN7QWidget21setAutoFillBackgroundEb
libQt5Widgets.so.5:_ZN7QWidget4hideEv
libQt5Widgets.so.5:_ZN7QWidget4moveERK6QPoint
libQt5Widgets.so.5:_ZN7QWidget4showEv
libQt5Widgets.so.5:_ZN7QWidget5closeEv
libQt5Widgets.so.5:_ZN7QWidget5eventEP6QEvent
libQt5Widgets.so.5:_ZN7QWidget6resizeERK5QSize
libQt5Widgets.so.5:_ZN7QWidget6updateEv
libQt5Widgets.so.5:_ZN7QWidget7repaintEv
libQt5Widgets.so.5:_ZN7QWidget7setFontERK5QFont
libQt5Widgets.so.5:_ZN7QWidget8setFocusEN2Qt11FocusReasonE
libQt5Widgets.so.5:_ZN7QWidget9dropEventEP10QDropEvent
libQt5Widgets.so.5:_ZN7QWidget9hideEventEP10QHideEvent
libQt5Widgets.so.5:_ZN7QWidget9moveEventEP10QMoveEvent
libQt5Widgets.so.5:_ZN7QWidget9setCursorERK7QCursor
libQt5Widgets.so.5:_ZN7QWidget9setLayoutEP7QLayout
libQt5Widgets.so.5:_ZN7QWidget9showEventEP10QShowEvent
libQt5Widgets.so.5:_ZN7QWidgetC1EPS_6QFlagsIN2Qt10WindowTypeEE
libQt5Widgets.so.5:_ZN7QWidgetC2EPS_6QFlagsIN2Qt10WindowTypeEE
libQt5Widgets.so.5:_ZN7QWidgetD2Ev
libQt5Widgets.so.5:_ZN8QSpinBox10setMaximumEi
libQt5Widgets.so.5:_ZN8QSpinBox10setMinimumEi
libQt5Widgets.so.5:_ZN8QSpinBox12valueChangedEi
libQt5Widgets.so.5:_ZN8QSpinBox16staticMetaObjectE
libQt5Widgets.so.5:_ZN8QSpinBox8setValueEi
libQt5Widgets.so.5:_ZN8QSpinBox9setSuffixERK7QString
libQt5Widgets.so.5:_ZN8QSpinBoxC1EP7QWidget
libQt5Widgets.so.5:_ZN8QToolBar9addActionERK5QIconRK7QString
libQt5Widgets.so.5:_ZN8QToolBarC1EP7QWidget
libQt5Widgets.so.5:_ZN9QCheckBox12stateChangedEi
libQt5Widgets.so.5:_ZN9QCheckBox16staticMetaObjectE
libQt5Widgets.so.5:_ZN9QCheckBoxC1EP7QWidget
libQt5Widgets.so.5:_ZN9QComboBox10insertItemEiRK5QIconRK7QStringRK8QVariant
libQt5Widgets.so.5:_ZN9QComboBox11insertItemsEiRK11QStringList
libQt5Widgets.so.5:_ZN9QComboBox11setEditableEb
libQt5Widgets.so.5:_ZN9QComboBox11setItemTextEiRK7QString
libQt5Widgets.so.5:_ZN9QComboBox14setCurrentTextERK7QString
libQt5Widgets.so.5:_ZN9QComboBox15setCurrentIndexEi
libQt5Widgets.so.5:_ZN9QComboBox15setInsertPolicyENS_12InsertPolicyE
libQt5Widgets.so.5:_ZN9QComboBox15setItemDelegateEP21QAbstractItemDelegate
libQt5Widgets.so.5:_ZN9QComboBox16staticMetaObjectE
libQt5Widgets.so.5:_ZN9QComboBox18currentTextChangedERK7QString
libQt5Widgets.so.5:_ZN9QComboBox19currentIndexChangedEi
libQt5Widgets.so.5:_ZN9QComboBox19setSizeAdjustPolicyENS_16SizeAdjustPolicyE
libQt5Widgets.so.5:_ZN9QComboBox5clearEv
libQt5Widgets.so.5:_ZN9QComboBox8setModelEP18QAbstractItemModel
libQt5Widgets.so.5:_ZN9QComboBox9activatedEi
libQt5Widgets.so.5:_ZN9QComboBoxC1EP7QWidget
libQt5Widgets.so.5:_ZN9QLineEdit10textEditedERK7QString
libQt5Widgets.so.5:_ZN9QLineEdit11setEchoModeENS_8EchoModeE
libQt5Widgets.so.5:_ZN9QLineEdit11textChangedERK7QString
libQt5Widgets.so.5:_ZN9QLineEdit12setInputMaskERK7QString
libQt5Widgets.so.5:_ZN9QLineEdit12setMaxLengthEi
libQt5Widgets.so.5:_ZN9QLineEdit12setValidatorEPK10QValidator
libQt5Widgets.so.5:_ZN9QLineEdit16staticMetaObjectE
libQt5Widgets.so.5:_ZN9QLineEdit18setPlaceholderTextERK7QString
libQt5Widgets.so.5:_ZN9QLineEdit5clearEv
libQt5Widgets.so.5:_ZN9QLineEdit7setTextERK7QString
libQt5Widgets.so.5:_ZN9QLineEditC1EP7QWidget
libQt5Widgets.so.5:_ZN9QListView10moveCursorEN17QAbstractItemView12CursorActionE6QFlagsIN2Qt16KeyboardModifierEE
libQt5Widgets.so.5:_ZN9QListView10paintEventEP11QPaintEvent
libQt5Widgets.so.5:_ZN9QListView10timerEventEP11QTimerEvent
libQt5Widgets.so.5:_ZN9QListView10wheelEventEP11QWheelEvent
libQt5Widgets.so.5:_ZN9QListView11dataChangedERK11QModelIndexS2_RK7QVectorIiE
libQt5Widgets.so.5:_ZN9QListView11qt_metacallEN11QMetaObject4CallEiPPv
libQt5Widgets.so.5:_ZN9QListView11qt_metacastEPKc
libQt5Widgets.so.5:_ZN9QListView11resizeEventEP12QResizeEvent
libQt5Widgets.so.5:_ZN9QListView12rowsInsertedERK11QModelIndexii
libQt5Widgets.so.5:_ZN9QListView12setRootIndexERK11QModelIndex
libQt5Widgets.so.5:_ZN9QListView12setSelectionERK5QRect6QFlagsIN19QItemSelectionModel13SelectionFlagEE
libQt5Widgets.so.5:_ZN9QListView13doItemsLayoutEv
libQt5Widgets.so.5:_ZN9QListView13dragMoveEventEP14QDragMoveEvent
libQt5Widgets.so.5:_ZN9QListView14currentChangedERK11QModelIndexS2_
libQt5Widgets.so.5:_ZN9QListView14dragLeaveEventEP15QDragLeaveEvent
libQt5Widgets.so.5:_ZN9QListView14mouseMoveEventEP11QMouseEvent
libQt5Widgets.so.5:_ZN9QListView16scrollContentsByEii
libQt5Widgets.so.5:_ZN9QListView16selectionChangedERK14QItemSelectionS2_
libQt5Widgets.so.5:_ZN9QListView16staticMetaObjectE
libQt5Widgets.so.5:_ZN9QListView16updateGeometriesEv
libQt5Widgets.so.5:_ZN9QListView17mouseReleaseEventEP11QMouseEvent
libQt5Widgets.so.5:_ZN9QListView19setUniformItemSizesEb
libQt5Widgets.so.5:_ZN9QListView20rowsAboutToBeRemovedERK11QModelIndexii
libQt5Widgets.so.5:_ZN9QListView5eventEP6QEvent
libQt5Widgets.so.5:_ZN9QListView5resetEv
libQt5Widgets.so.5:_ZN9QListView8scrollToERK11QModelIndexN17QAbstractItemView10ScrollHintE
libQt5Widgets.so.5:_ZN9QListView9dropEventEP10QDropEvent
libQt5Widgets.so.5:_ZN9QListView9startDragE6QFlagsIN2Qt10DropActionEE
libQt5Widgets.so.5:_ZN9QListViewC1EP7QWidget
libQt5Widgets.so.5:_ZN9QListViewC2EP7QWidget
libQt5Widgets.so.5:_ZN9QListViewD2Ev
libQt5Widgets.so.5:_ZN9QTextEdit11setReadOnlyEb
libQt5Widgets.so.5:_ZN9QTextEdit12setPlainTextERK7QString
libQt5Widgets.so.5:_ZN9QTextEdit7setTextERK7QString
libQt5Widgets.so.5:_ZN9QTextEditC1EP7QWidget
libQt5Widgets.so.5:_ZN9QTreeView10moveCursorEN17QAbstractItemView12CursorActionE6QFlagsIN2Qt16KeyboardModifierEE
libQt5Widgets.so.5:_ZN9QTreeView10paintEventEP11QPaintEvent
libQt5Widgets.so.5:_ZN9QTreeView10timerEventEP11QTimerEvent
libQt5Widgets.so.5:_ZN9QTreeView11dataChangedERK11QModelIndexS2_RK7QVectorIiE
libQt5Widgets.so.5:_ZN9QTreeView11qt_metacallEN11QMetaObject4CallEiPPv
libQt5Widgets.so.5:_ZN9QTreeView11qt_metacastEPKc
libQt5Widgets.so.5:_ZN9QTreeView11setExpandedERK11QModelIndexb
libQt5Widgets.so.5:_ZN9QTreeView12rowsInsertedERK11QModelIndexii
libQt5Widgets.so.5:_ZN9QTreeView12setRootIndexERK11QModelIndex
libQt5Widgets.so.5:_ZN9QTreeView12setSelectionERK5QRect6QFlagsIN19QItemSelectionModel13SelectionFlagEE
libQt5Widgets.so.5:_ZN9QTreeView13doItemsLayoutEv
libQt5Widgets.so.5:_ZN9QTreeView13dragMoveEventEP14QDragMoveEvent
libQt5Widgets.so.5:_ZN9QTreeView13keyPressEventEP9QKeyEvent
libQt5Widgets.so.5:_ZN9QTreeView13viewportEventEP6QEvent
libQt5Widgets.so.5:_ZN9QTreeView14currentChangedERK11QModelIndexS2_
libQt5Widgets.so.5:_ZN9QTreeView14keyboardSearchERK7QString
libQt5Widgets.so.5:_ZN9QTreeView14mouseMoveEventEP11QMouseEvent
libQt5Widgets.so.5:_ZN9QTreeView15mousePressEventEP11QMouseEvent
libQt5Widgets.so.5:_ZN9QTreeView16scrollContentsByEii
libQt5Widgets.so.5:_ZN9QTreeView16selectionChangedERK14QItemSelectionS2_
libQt5Widgets.so.5:_ZN9QTreeView16updateGeometriesEv
libQt5Widgets.so.5:_ZN9QTreeView17mouseReleaseEventEP11QMouseEvent
libQt5Widgets.so.5:_ZN9QTreeView17setSelectionModelEP19QItemSelectionModel
libQt5Widgets.so.5:_ZN9QTreeView18setRootIsDecoratedEb
libQt5Widgets.so.5:_ZN9QTreeView20rowsAboutToBeRemovedERK11QModelIndexii
libQt5Widgets.so.5:_ZN9QTreeView21mouseDoubleClickEventEP11QMouseEvent
libQt5Widgets.so.5:_ZN9QTreeView22setAllColumnsShowFocusEb
libQt5Widgets.so.5:_ZN9QTreeView23setExpandsOnDoubleClickEb
libQt5Widgets.so.5:_ZN9QTreeView25horizontalScrollbarActionEi
libQt5Widgets.so.5:_ZN9QTreeView29verticalScrollbarValueChangedEi
libQt5Widgets.so.5:_ZN9QTreeView5resetEv
libQt5Widgets.so.5:_ZN9QTreeView8scrollToERK11QModelIndexN17QAbstractItemView10ScrollHintE
libQt5Widgets.so.5:_ZN9QTreeView8setModelEP18QAbstractItemModel
libQt5Widgets.so.5:_ZN9QTreeView9expandAllEv
libQt5Widgets.so.5:_ZN9QTreeView9selectAllEv
libQt5Widgets.so.5:_ZN9QTreeViewC1EP7QWidget
libQt5Widgets.so.5:_ZN9QTreeViewC2EP7QWidget
libQt5Widgets.so.5:_ZN9QTreeViewD2Ev
libQt5Widgets.so.5:_ZNK10QTabWidget12currentIndexEv
libQt5Widgets.so.5:_ZNK10QTabWidget6tabBarEv
libQt5Widgets.so.5:_ZNK10QTabWidget7indexOfEP7QWidget
libQt5Widgets.so.5:_ZNK11QListWidget13selectedItemsEv
libQt5Widgets.so.5:_ZNK11QListWidget4itemEi
libQt5Widgets.so.5:_ZNK11QListWidget5countEv
libQt5Widgets.so.5:_ZNK11QMessageBox6buttonENS_14StandardButtonE
libQt5Widgets.so.5:_ZNK11QScrollArea6widgetEv
libQt5Widgets.so.5:_ZNK12QButtonGroup13checkedButtonEv
libQt5Widgets.so.5:_ZNK12QProgressBar7maximumEv
libQt5Widgets.so.5:_ZNK14QDesktopWidget17availableGeometryEPK7QWidget
libQt5Widgets.so.5:_ZNK14QStackedWidget13currentWidgetEv
libQt5Widgets.so.5:_ZNK15QAbstractButton8iconSizeEv
libQt5Widgets.so.5:_ZNK15QAbstractButton9isCheckedEv
libQt5Widgets.so.5:_ZNK15QListWidgetItem4dataEi
libQt5Widgets.so.5:_ZNK15QListWidgetItem5cloneEv
libQt5Widgets.so.5:_ZNK15QListWidgetItem5writeER11QDataStream
libQt5Widgets.so.5:_ZNK15QListWidgetItemltERKS_
libQt5Widgets.so.5:_ZNK16QDialogButtonBox6buttonENS_14StandardButtonE
libQt5Widgets.so.5:_ZNK17QAbstractItemView11viewOptionsEv
libQt5Widgets.so.5:_ZNK17QAbstractItemView12currentIndexEv
libQt5Widgets.so.5:_ZNK17QAbstractItemView13selectionModeEv
libQt5Widgets.so.5:_ZNK17QAbstractItemView14selectionModelEv
libQt5Widgets.so.5:_ZNK17QAbstractItemView14sizeHintForRowEi
libQt5Widgets.so.5:_ZNK17QAbstractItemView15selectedIndexesEv
libQt5Widgets.so.5:_ZNK17QAbstractItemView16inputMethodQueryEN2Qt16InputMethodQueryE
libQt5Widgets.so.5:_ZNK17QAbstractItemView16selectionCommandERK11QModelIndexPK6QEvent
libQt5Widgets.so.5:_ZNK17QAbstractItemView16viewportSizeHintEv
libQt5Widgets.so.5:_ZNK17QAbstractItemView17sizeHintForColumnEi
libQt5Widgets.so.5:_ZNK17QAbstractItemView5modelEv
libQt5Widgets.so.5:_ZNK19QAbstractScrollArea15minimumSizeHintEv
libQt5Widgets.so.5:_ZNK19QAbstractScrollArea8sizeHintEv
libQt5Widgets.so.5:_ZNK19QAbstractScrollArea8viewportEv
libQt5Widgets.so.5:_ZNK19QStyledItemDelegate10metaObjectEv
libQt5Widgets.so.5:_ZNK19QStyledItemDelegate11displayTextERK8QVariantRK7QLocale
libQt5Widgets.so.5:_ZNK19QStyledItemDelegate12createEditorEP7QWidgetRK20QStyleOptionViewItemRK11QModelIndex
libQt5Widgets.so.5:_ZNK19QStyledItemDelegate12setModelDataEP7QWidgetP18QAbstractItemModelRK11QModelIndex
libQt5Widgets.so.5:_ZNK19QStyledItemDelegate13setEditorDataEP7QWidgetRK11QModelIndex
libQt5Widgets.so.5:_ZNK19QStyledItemDelegate15initStyleOptionEP20QStyleOptionViewItemRK11QModelIndex
libQt5Widgets.so.5:_ZNK19QStyledItemDelegate20updateEditorGeometryEP7QWidgetRK20QStyleOptionViewItemRK11QModelIndex
libQt5Widgets.so.5:_ZNK19QStyledItemDelegate5paintEP8QPainterRK20QStyleOptionViewItemRK11QModelIndex
libQt5Widgets.so.5:_ZNK19QStyledItemDelegate8sizeHintERK20QStyleOptionViewItemRK11QModelIndex
libQt5Widgets.so.5:_ZNK21QAbstractItemDelegate13destroyEditorEP7QWidgetRK11QModelIndex
libQt5Widgets.so.5:_ZNK21QAbstractItemDelegate13paintingRolesEv
libQt5Widgets.so.5:_ZNK6QLabel14heightForWidthEi
libQt5Widgets.so.5:_ZNK6QLabel15minimumSizeHintEv
libQt5Widgets.so.5:_ZNK6QLabel4textEv
libQt5Widgets.so.5:_ZNK6QLabel8sizeHintEv
libQt5Widgets.so.5:_ZNK7QDialog15minimumSizeHintEv
libQt5Widgets.so.5:_ZNK7QDialog6resultEv
libQt5Widgets.so.5:_ZNK7QDialog8sizeHintEv
libQt5Widgets.so.5:_ZNK7QLayout12parentWidgetEv
libQt5Widgets.so.5:_ZNK7QWidget10metaObjectEv
libQt5Widgets.so.5:_ZNK7QWidget10redirectedEP6QPoint
libQt5Widgets.so.5:_ZNK7QWidget10sizePolicyEv
libQt5Widgets.so.5:_ZNK7QWidget11initPainterEP8QPainter
libQt5Widgets.so.5:_ZNK7QWidget11minimumSizeEv
libQt5Widgets.so.5:_ZNK7QWidget11paintEngineEv
libQt5Widgets.so.5:_ZNK7QWidget12contentsRectEv
libQt5Widgets.so.5:_ZNK7QWidget13sharedPainterEv
libQt5Widgets.so.5:_ZNK7QWidget14backgroundRoleEv
libQt5Widgets.so.5:_ZNK7QWidget14foregroundRoleEv
libQt5Widgets.so.5:_ZNK7QWidget14heightForWidthEi
libQt5Widgets.so.5:_ZNK7QWidget15layoutDirectionEv
libQt5Widgets.so.5:_ZNK7QWidget15minimumSizeHintEv
libQt5Widgets.so.5:_ZNK7QWidget16inputMethodQueryEN2Qt16InputMethodQueryE
libQt5Widgets.so.5:_ZNK7QWidget17hasHeightForWidthEv
libQt5Widgets.so.5:_ZNK7QWidget5styleEv
libQt5Widgets.so.5:_ZNK7QWidget6cursorEv
libQt5Widgets.so.5:_ZNK7QWidget6layoutEv
libQt5Widgets.so.5:_ZNK7QWidget6metricEN12QPaintDevice17PaintDeviceMetricE
libQt5Widgets.so.5:_ZNK7QWidget7devTypeEv
libQt5Widgets.so.5:_ZNK7QWidget7paletteEv
libQt5Widgets.so.5:_ZNK7QWidget8hasFocusEv
libQt5Widgets.so.5:_ZNK7QWidget8sizeHintEv
libQt5Widgets.so.5:_ZNK8QSpinBox5valueEv
libQt5Widgets.so.5:_ZNK8QToolBar15widgetForActionEP7QAction
libQt5Widgets.so.5:_ZNK9QComboBox11currentDataEi
libQt5Widgets.so.5:_ZNK9QComboBox11currentTextEv
libQt5Widgets.so.5:_ZNK9QComboBox12currentIndexEv
libQt5Widgets.so.5:_ZNK9QComboBox12itemDelegateEv
libQt5Widgets.so.5:_ZNK9QComboBox5countEv
libQt5Widgets.so.5:_ZNK9QComboBox5modelEv
libQt5Widgets.so.5:_ZNK9QComboBox8findDataERK8QVarianti6QFlagsIN2Qt9MatchFlagEE
libQt5Widgets.so.5:_ZNK9QComboBox8itemDataEii
libQt5Widgets.so.5:_ZNK9QComboBox8itemTextEi
libQt5Widgets.so.5:_ZNK9QComboBox8lineEditEv
libQt5Widgets.so.5:_ZNK9QLineEdit4textEv
libQt5Widgets.so.5:_ZNK9QListView10visualRectERK11QModelIndex
libQt5Widgets.so.5:_ZNK9QListView11viewOptionsEv
libQt5Widgets.so.5:_ZNK9QListView13isIndexHiddenERK11QModelIndex
libQt5Widgets.so.5:_ZNK9QListView14verticalOffsetEv
libQt5Widgets.so.5:_ZNK9QListView15selectedIndexesEv
libQt5Widgets.so.5:_ZNK9QListView16horizontalOffsetEv
libQt5Widgets.so.5:_ZNK9QListView16viewportSizeHintEv
libQt5Widgets.so.5:_ZNK9QListView24visualRegionForSelectionERK14QItemSelection
libQt5Widgets.so.5:_ZNK9QListView7indexAtERK6QPoint
libQt5Widgets.so.5:_ZNK9QTextEdit11toPlainTextEv
libQt5Widgets.so.5:_ZNK9QTreeView10metaObjectEv
libQt5Widgets.so.5:_ZNK9QTreeView10visualRectERK11QModelIndex
libQt5Widgets.so.5:_ZNK9QTreeView11indentationEv
libQt5Widgets.so.5:_ZNK9QTreeView12drawBranchesEP8QPainterRK5QRectRK11QModelIndex
libQt5Widgets.so.5:_ZNK9QTreeView13isIndexHiddenERK11QModelIndex
libQt5Widgets.so.5:_ZNK9QTreeView14verticalOffsetEv
libQt5Widgets.so.5:_ZNK9QTreeView15selectedIndexesEv
libQt5Widgets.so.5:_ZNK9QTreeView16horizontalOffsetEv
libQt5Widgets.so.5:_ZNK9QTreeView16viewportSizeHintEv
libQt5Widgets.so.5:_ZNK9QTreeView17sizeHintForColumnEi
libQt5Widgets.so.5:_ZNK9QTreeView24visualRegionForSelectionERK14QItemSelection
libQt5Widgets.so.5:_ZNK9QTreeView6headerEv
libQt5Widgets.so.5:_ZNK9QTreeView7drawRowEP8QPainterRK20QStyleOptionViewItemRK11QModelIndex
libQt5Widgets.so.5:_ZNK9QTreeView7indexAtERK6QPoint
libQt5Widgets.so.5:_ZTI11QToolButton
libQt5Widgets.so.5:_ZTI12QApplication
libQt5Widgets.so.5:_ZTI15QListWidgetItem
libQt5Widgets.so.5:_ZTI17QAbstractItemView
libQt5Widgets.so.5:_ZTI19QStyledItemDelegate
libQt5Widgets.so.5:_ZTI6QLabel
libQt5Widgets.so.5:_ZTI7QDialog
libQt5Widgets.so.5:_ZTI7QWidget
libQt5Widgets.so.5:_ZTI9QListView
libQt5Widgets.so.5:_ZTI9QTreeView
libQt5Widgets.so.5:_ZTV11QSpacerItem
libQt5Widgets.so.5:_ZThn16_NK7QWidget10redirectedEP6QPoint
libQt5Widgets.so.5:_ZThn16_NK7QWidget11initPainterEP8QPainter
libQt5Widgets.so.5:_ZThn16_NK7QWidget11paintEngineEv
libQt5Widgets.so.5:_ZThn16_NK7QWidget13sharedPainterEv
libQt5Widgets.so.5:_ZThn16_NK7QWidget6metricEN12QPaintDevice17PaintDeviceMetricE
libQt5Widgets.so.5:_ZThn16_NK7QWidget7devTypeEv
libQt5Widgets.so.5:_Zls6QDebugPK7QWidget
libQt5Xml.so.5:_ZN12QDomDocument10setContentEP9QIODeviceP7QStringPiS4_
libQt5Xml.so.5:_ZN12QDomDocument10setContentERK10QByteArraybP7QStringPiS5_
libQt5Xml.so.5:_ZN12QDomDocumentC1ERK7QString
libQt5Xml.so.5:_ZN12QDomDocumentC1ERKS_
libQt5Xml.so.5:_ZN12QDomDocumentC1Ev
libQt5Xml.so.5:_ZN12QDomDocumentD1Ev
libQt5Xml.so.5:_ZN12QDomNodeListD1Ev
libQt5Xml.so.5:_ZN8QDomNodeD1Ev
libQt5Xml.so.5:_ZN8QDomNodeD2Ev
libQt5Xml.so.5:_ZNK11QDomElement12hasAttributeERK7QString
libQt5Xml.so.5:_ZNK11QDomElement4textEv
libQt5Xml.so.5:_ZNK11QDomElement7tagNameEv
libQt5Xml.so.5:_ZNK11QDomElement9attributeERK7QStringS2_
libQt5Xml.so.5:_ZNK12QDomDocument15documentElementEv
libQt5Xml.so.5:_ZNK12QDomDocument17elementsByTagNameERK7QString
libQt5Xml.so.5:_ZNK12QDomNodeList4itemEi
libQt5Xml.so.5:_ZNK12QDomNodeList6lengthEv
libQt5Xml.so.5:_ZNK8QDomNode10childNodesEv
libQt5Xml.so.5:_ZNK8QDomNode17firstChildElementERK7QString
libQt5Xml.so.5:_ZNK8QDomNode6isNullEv
libQt5Xml.so.5:_ZNK8QDomNode9isElementEv
libQt5Xml.so.5:_ZNK8QDomNode9toElementEv
libboost_python310.so.1.83.0:_ZN5boost6python12pytype_checkEP11_typeobjectP7_object
libboost_python310.so.1.83.0:_ZN5boost6python15instance_holder10deallocateEP7_objectPv
libboost_python310.so.1.83.0:_ZN5boost6python15instance_holder7installEP7_object
libboost_python310.so.1.83.0:_ZN5boost6python15instance_holder8allocateEP7_objectmmm
libboost_python310.so.1.83.0:_ZN5boost6python15instance_holderC2Ev
libboost_python310.so.1.83.0:_ZN5boost6python15instance_holderD2Ev
libboost_python310.so.1.83.0:_ZN5boost6python21handle_exception_implENS_9function0IvEE
libboost_python310.so.1.83.0:_ZN5boost6python23throw_error_already_setEv
libboost_python310.so.1.83.0:_ZN5boost6python3api6objectC1ERKNS0_6handleI7_objectEE
libboost_python310.so.1.83.0:_ZN5boost6python3api7getattrERKNS1_6objectEPKc
libboost_python310.so.1.83.0:_ZN5boost6python3api7getitemERKNS1_6objectES4_
libboost_python310.so.1.83.0:_ZN5boost6python3api7setattrERKNS1_6objectEPKcS4_
libboost_python310.so.1.83.0:_ZN5boost6python3api7setitemERKNS1_6objectES4_S4_
libboost_python310.so.1.83.0:_ZN5boost6python4execEPKcNS0_3api6objectES4_
libboost_python310.so.1.83.0:_ZN5boost6python6detail11init_moduleER11PyModuleDefPFvvE
libboost_python310.so.1.83.0:_ZN5boost6python6detail12gcc_demangleEPKc
libboost_python310.so.1.83.0:_ZN5boost6python6detail13current_scopeE
libboost_python310.so.1.83.0:_ZN5boost6python6detail17scope_setattr_docEPKcRKNS0_3api6objectES3_
libboost_python310.so.1.83.0:_ZN5boost6python6detail8str_baseC2EPKc
libboost_python310.so.1.83.0:_ZN5boost6python6detail8str_baseC2ERKNS0_3api6objectE
libboost_python310.so.1.83.0:_ZN5boost6python6detail9dict_baseC2Ev
libboost_python310.so.1.83.0:_ZN5boost6python6detail9list_base6appendERKNS0_3api6objectE
libboost_python310.so.1.83.0:_ZN5boost6python6detail9list_baseC2Ev
libboost_python310.so.1.83.0:_ZN5boost6python6importENS0_3strE
libboost_python310.so.1.83.0:_ZN5boost6python7objects10class_base12add_propertyEPKcRKNS0_3api6objectES4_
libboost_python310.so.1.83.0:_ZN5boost6python7objects10class_base17set_instance_sizeEm
libboost_python310.so.1.83.0:_ZN5boost6python7objects10class_baseC2EPKcmPKNS0_9type_infoES4_
libboost_python310.so.1.83.0:_ZN5boost6python7objects15function_objectERKNS1_11py_functionE
libboost_python310.so.1.83.0:_ZN5boost6python7objects15function_objectERKNS1_11py_functionERKSt4pairIPKNS0_6detail7keywordES9_E
libboost_python310.so.1.83.0:_ZN5boost6python7objects16add_to_namespaceERKNS0_3api6objectEPKcS5_S7_
libboost_python310.so.1.83.0:_ZN5boost6python7objects16find_static_typeEPvNS0_9type_infoES3_
libboost_python310.so.1.83.0:_ZN5boost6python7objects17copy_class_objectERKNS0_9type_infoES4_
libboost_python310.so.1.83.0:_ZN5boost6python7objects21py_function_impl_baseD2Ev
libboost_python310.so.1.83.0:_ZN5boost6python7objects23register_dynamic_id_auxENS0_9type_infoEPFSt4pairIPvS2_ES4_E
libboost_python310.so.1.83.0:_ZN5boost6python9converter18shared_ptr_deleterC1ENS0_6handleI7_objectEE
libboost_python310.so.1.83.0:_ZN5boost6python9converter18shared_ptr_deleterD1Ev
libboost_python310.so.1.83.0:_ZN5boost6python9converter18shared_ptr_deleterclEPKv
libboost_python310.so.1.83.0:_ZN5boost6python9converter19do_return_to_pythonEPKc
libboost_python310.so.1.83.0:_ZN5boost6python9converter22get_lvalue_from_pythonEP7_objectRKNS1_12registrationE
libboost_python310.so.1.83.0:_ZN5boost6python9converter25rvalue_from_python_stage1EP7_objectRKNS1_12registrationE
libboost_python310.so.1.83.0:_ZN5boost6python9converter25rvalue_from_python_stage2EP7_objectRNS1_30rvalue_from_python_stage1_dataERKNS1_12registrationE
libboost_python310.so.1.83.0:_ZN5boost6python9converter6detail18arg_to_python_baseC2EPVKvRKNS1_12registrationE
libboost_python310.so.1.83.0:_ZN5boost6python9converter8registry5queryENS0_9type_infoE
libboost_python310.so.1.83.0:_ZN5boost6python9converter8registry6insertEPFP7_objectPKvENS0_9type_infoEPFPK11_typeobjectvE
libboost_python310.so.1.83.0:_ZN5boost6python9converter8registry6insertEPFPvP7_objectEPFvS5_PNS1_30rvalue_from_python_stage1_dataEENS0_9type_infoEPFPK11_typeobjectvE
libboost_python310.so.1.83.0:_ZN5boost6python9converter8registry6lookupENS0_9type_infoE
libboost_python310.so.1.83.0:_ZN5boost6python9exec_fileEPKcNS0_3api6objectES4_
libboost_python310.so.1.83.0:_ZNK5boost6python6detail8str_base4joinERKNS0_3api6objectE
libboost_python310.so.1.83.0:_ZNK5boost6python6detail9dict_base3getERKNS0_3api6objectES6_
libboost_python310.so.1.83.0:_ZNK5boost6python6detail9dict_base4keysEv
libboost_python310.so.1.83.0:_ZNK5boost6python7objects21py_function_impl_base9max_arityEv
libboost_python310.so.1.83.0:_ZNK5boost6python9converter12registration16get_class_objectEv
libboost_python310.so.1.83.0:_ZNK5boost6python9converter12registration25expected_from_python_typeEv
libc.so.6:__assert_fail
libc.so.6:__cxa_atexit
libc.so.6:__libc_single_threaded
libc.so.6:__libc_start_main
libc.so.6:__stack_chk_fail
libc.so.6:chmod
libc.so.6:close
libc.so.6:exit
libc.so.6:free
libc.so.6:geteuid
libc.so.6:ioctl
libc.so.6:malloc
libc.so.6:memcmp
libc.so.6:memcpy
libc.so.6:memmove
libc.so.6:memset
libc.so.6:open
libc.so.6:signal
libc.so.6:sleep
libc.so.6:strcmp
libc.so.6:strdup
libc.so.6:strlen
libc.so.6:strstr
libc.so.6:sysinfo
libc.so.6:umask
libc.so.6:usleep
libcrypt.so.2:crypt
libcrypt.so.2:crypt_gensalt
libgcc_s.so.1:_Unwind_Resume
libicui18n.so.74:_ZN6icu_7414Transliterator14createInstanceERKNS_13UnicodeStringE15UTransDirectionR10UErrorCode
libicuuc.so.74:_ZN6icu_7413UnicodeString19getTerminatedBufferEv
libicuuc.so.74:_ZN6icu_7413UnicodeStringC1EPKDs
libicuuc.so.74:_ZN6icu_7413UnicodeStringC1EPKc
libicuuc.so.74:_ZN6icu_7413UnicodeStringD1Ev
libkpmcore.so.12:_ZN10FileSystem10addFeatureERK7QStringRK8QVariant
libkpmcore.so.12:_ZN10FileSystem11nameForTypeENS_4TypeERK11QStringList
libkpmcore.so.12:_ZN10FileSystem11typeForNameERK7QStringRK11QStringList
libkpmcore.so.12:_ZN10FileSystem14setSectorsUsedEx
libkpmcore.so.12:_ZN10FileSystem5typesEv
libkpmcore.so.12:_ZN10FileSystem8setLabelERK7QString
libkpmcore.so.12:_ZN11CoreBackend2idEv
libkpmcore.so.12:_ZN11CoreBackend7versionEv
libkpmcore.so.12:_ZN12NewOperationC1ER6DeviceP9Partition
libkpmcore.so.12:_ZN12NewOperationD1Ev
libkpmcore.so.12:_ZN14PartitionTable15nameToTableTypeERK7QString
libkpmcore.so.12:_ZN14PartitionTable15tableTypeToNameENS_9TableTypeE
libkpmcore.so.12:_ZN14PartitionTable17defaultLastUsableERK6DeviceNS_9TableTypeE
libkpmcore.so.12:_ZN14PartitionTable17removeUnallocatedEv
libkpmcore.so.12:_ZN14PartitionTable17updateUnallocatedERK6Device
libkpmcore.so.12:_ZN14PartitionTable18defaultFirstUsableERK6DeviceNS_9TableTypeE
libkpmcore.so.12:_ZN14PartitionTable8flagNameENS_4FlagE
libkpmcore.so.12:_ZN14PartitionTable9flagNamesE6QFlagsINS_4FlagEE
libkpmcore.so.12:_ZN14PartitionTableC1ENS_9TableTypeExx
libkpmcore.so.12:_ZN15DeleteOperationC1ER6DeviceP9PartitionNS_11ShredActionE
libkpmcore.so.12:_ZN15DeleteOperationD1Ev
libkpmcore.so.12:_ZN15ExternalCommand5startEi
libkpmcore.so.12:_ZN15ExternalCommand5writeERK10QByteArray
libkpmcore.so.12:_ZN15ExternalCommandC1ERK7QStringRK11QStringListN8QProcess18ProcessChannelModeE
libkpmcore.so.12:_ZN15ExternalCommandD1Ev
libkpmcore.so.12:_ZN15ResizeOperation7canGrowEPK9Partition
libkpmcore.so.12:_ZN15ResizeOperation7executeER6Report
libkpmcore.so.12:_ZN15ResizeOperationC1ER6DeviceR9Partitionxx
libkpmcore.so.12:_ZN17FileSystemFactory3mapEv
libkpmcore.so.12:_ZN17FileSystemFactory4initEv
libkpmcore.so.12:_ZN17FileSystemFactory6createEN10FileSystem4TypeExxxxRK7QStringRK4QMapIS2_8QVariantES4_
libkpmcore.so.12:_ZN17PartResizerWidget14m_HandleHeightE
libkpmcore.so.12:_ZN17PartResizerWidget16updateLastSectorEx
libkpmcore.so.12:_ZN17PartResizerWidget17updateFirstSectorEx
libkpmcore.so.12:_ZN17PartResizerWidget4initER6DeviceR9Partitionxxbb
libkpmcore.so.12:_ZN17PartResizerWidgetC1EP7QWidget
libkpmcore.so.12:_ZN18CoreBackendManager4loadERK7QString
libkpmcore.so.12:_ZN18CoreBackendManager4selfEv
libkpmcore.so.12:_ZN18CoreBackendManager7backendEv
libkpmcore.so.12:_ZN19VolumeManagerDevice11scanDevicesER5QListIP6DeviceE
libkpmcore.so.12:_ZN21SetPartFlagsOperationC1ER6DeviceR9PartitionRK6QFlagsIN14PartitionTable4FlagEE
libkpmcore.so.12:_ZN25CreateFileSystemOperationC1ER6DeviceR9PartitionN10FileSystem4TypeE
libkpmcore.so.12:_ZN25CreateFileSystemOperationD1Ev
libkpmcore.so.12:_ZN26CreateVolumeGroupOperationC1ERK7QStringRK7QVectorIPK9PartitionEi
libkpmcore.so.12:_ZN26RemoveVolumeGroupOperation11isRemovableEPK19VolumeManagerDevice
libkpmcore.so.12:_ZN26RemoveVolumeGroupOperationC1ER19VolumeManagerDevice
libkpmcore.so.12:_ZN26ResizeVolumeGroupOperationC1ER9LvmDeviceRK7QVectorIPK9PartitionE
libkpmcore.so.12:_ZN27SetFileSystemLabelOperationC1ER9PartitionRK7QString
libkpmcore.so.12:_ZN29CreatePartitionTableOperationC1ER6DeviceP14PartitionTable
libkpmcore.so.12:_ZN29CreatePartitionTableOperationD1Ev
libkpmcore.so.12:_ZN2FS4luks12setCryptOpenEb
libkpmcore.so.12:_ZN2FS4luks13setPassphraseERK7QString
libkpmcore.so.12:_ZN2FS4luks14canEncryptTypeEN10FileSystem4TypeE
libkpmcore.so.12:_ZN2FS4luks19loadInnerFileSystemERK7QString
libkpmcore.so.12:_ZN2FS4luks21createInnerFileSystemEN10FileSystem4TypeE
libkpmcore.so.12:_ZN30DeactivateVolumeGroupOperation15isDeactivatableEPK19VolumeManagerDevice
libkpmcore.so.12:_ZN30DeactivateVolumeGroupOperation7previewEv
libkpmcore.so.12:_ZN30DeactivateVolumeGroupOperationC1ER19VolumeManagerDevice
libkpmcore.so.12:_ZN3LVM6pvList6m_listE
libkpmcore.so.12:_ZN6DeviceC1ERKS_
libkpmcore.so.12:_ZN6ReportC1EPS_RK7QString
libkpmcore.so.12:_ZN6ReportD1Ev
libkpmcore.so.12:_ZN8Capacity10unitFactorENS_4UnitES0_
libkpmcore.so.12:_ZN8Capacity14formatByteSizeEdi
libkpmcore.so.12:_ZN9LvmDevice10s_DirtyPVsE
libkpmcore.so.12:_ZN9LvmDevice15physicalVolumesEv
libkpmcore.so.12:_ZN9LvmDeviceC1ERK7QStringS2_
libkpmcore.so.12:_ZN9Operation16staticMetaObjectE
libkpmcore.so.12:_ZN9Operation7executeER6Report
libkpmcore.so.12:_ZN9Operation8progressEi
libkpmcore.so.12:_ZN9Operation9setStatusENS_15OperationStatusE
libkpmcore.so.12:_ZN9OperationD2Ev
libkpmcore.so.12:_ZN9Partition16setPartitionPathERK7QString
libkpmcore.so.12:_ZN9PartitionC1EP13PartitionNodeRK6DeviceRK13PartitionRoleP10FileSystemxx7QString6QFlagsIN14PartitionTable4FlagEERKSA_bSE_NS_5StateE
libkpmcore.so.12:_ZNK10FileSystem10lastSectorEv
libkpmcore.so.12:_ZNK10FileSystem11firstSectorEv
libkpmcore.so.12:_ZNK10FileSystem11sectorsUsedEv
libkpmcore.so.12:_ZNK10FileSystem4uuidEv
libkpmcore.so.12:_ZNK10FileSystem5labelEv
libkpmcore.so.12:_ZNK10FileSystem8featuresEv
libkpmcore.so.12:_ZNK12SoftwareRAID6statusEv
libkpmcore.so.12:_ZNK14PartitionTable11hasExtendedEv
libkpmcore.so.12:_ZNK14PartitionTable12numPrimariesEv
libkpmcore.so.12:_ZNK14PartitionTable16freeSectorsAfterERK9Partition
libkpmcore.so.12:_ZNK14PartitionTable17freeSectorsBeforeERK9Partition
libkpmcore.so.12:_ZNK15ExternalCommand8exitCodeEv
libkpmcore.so.12:_ZNK17PartResizerWidget17maximumLastSectorEb
libkpmcore.so.12:_ZNK2FS4luks10passphraseEv
libkpmcore.so.12:_ZNK2FS4luks11isCryptOpenEv
libkpmcore.so.12:_ZNK2FS4luks14testPassphraseERK7QStringS3_
libkpmcore.so.12:_ZNK2FS4luks19suggestedMapperNameERK7QString
libkpmcore.so.12:_ZNK2FS4luks9outerUuidEv
libkpmcore.so.12:_ZNK6Report6toTextEv
libkpmcore.so.12:_ZNK9LvmDevice11allocatedPEEv
libkpmcore.so.12:_ZNK9LvmDevice6peSizeEv
libkpmcore.so.12:_ZNK9Partition10deviceNodeEv
libkpmcore.so.12:_ZNK9Partition11hasChildrenEv
libkpmcore.so.12:_ZNK9Partition11sectorsUsedEv
libkpmcore.so.12:_ZNK9Partition20adjustLogicalNumbersEii
libm.so.6:sin
libparted.so.2:ped_device_get_next
libparted.so.2:ped_device_probe_all
libparted.so.2:ped_exception_fetch_all
libpwquality.so.1:pwquality_check
libpwquality.so.1:pwquality_default_settings
libpwquality.so.1:pwquality_free_settings
libpwquality.so.1:pwquality_set_option
libpwquality.so.1:pwquality_strerror
libpython3.10.so.1.0:PyBool_FromLong
libpython3.10.so.1.0:PyBool_Type
libpython3.10.so.1.0:PyDict_Type
libpython3.10.so.1.0:PyErr_Clear
libpython3.10.so.1.0:PyErr_Fetch
libpython3.10.so.1.0:PyErr_Occurred
libpython3.10.so.1.0:PyFloat_FromDouble
libpython3.10.so.1.0:PyImport_AddModule
libpython3.10.so.1.0:PyList_Type
libpython3.10.so.1.0:PyLong_FromLong
libpython3.10.so.1.0:PyLong_FromLongLong
libpython3.10.so.1.0:PyLong_FromUnsignedLong
libpython3.10.so.1.0:PyLong_FromUnsignedLongLong
libpython3.10.so.1.0:PyLong_Type
libpython3.10.so.1.0:PyObject_CallFunction
libpython3.10.so.1.0:PyObject_IsInstance
libpython3.10.so.1.0:PyObject_Size
libpython3.10.so.1.0:PyTuple_Type
libpython3.10.so.1.0:PyUnicode_FromStringAndSize
libpython3.10.so.1.0:PyUnicode_Type
libpython3.10.so.1.0:Py_Initialize
libpython3.10.so.1.0:Py_IsInitialized
libpython3.10.so.1.0:_Py_Dealloc
libpython3.10.so.1.0:_Py_NoneStruct
libstdc++.so.6:_ZNKSt13runtime_error4whatEv
libstdc++.so.6:_ZNKSt5ctypeIcE13_M_widen_initEv
libstdc++.so.6:_ZNKSt7__cxx1115basic_stringbufIcSt11char_traitsIcESaIcEE3strEv
libstdc++.so.6:_ZNSdD2Ev
libstdc++.so.6:_ZNSi10_M_extractImEERSiRT_
libstdc++.so.6:_ZNSi4peekEv
libstdc++.so.6:_ZNSirsERi
libstdc++.so.6:_ZNSo3putEc
libstdc++.so.6:_ZNSo5flushEv
libstdc++.so.6:_ZNSo5tellpEv
libstdc++.so.6:_ZNSo9_M_insertImEERSoT_
libstdc++.so.6:_ZNSolsEi
libstdc++.so.6:_ZNSt13basic_filebufIcSt11char_traitsIcEE4openEPKcSt13_Ios_Openmode
libstdc++.so.6:_ZNSt13random_device7_M_finiEv
libstdc++.so.6:_ZNSt13random_device7_M_initERKNSt7__cxx1112basic_stringIcSt11char_traitsIcESaIcEEE
libstdc++.so.6:_ZNSt13random_device9_M_getvalEv
libstdc++.so.6:_ZNSt13runtime_errorC2ERKNSt7__cxx1112basic_stringIcSt11char_traitsIcESaIcEEE
libstdc++.so.6:_ZNSt13runtime_errorD2Ev
libstdc++.so.6:_ZNSt14basic_ofstreamIcSt11char_traitsIcEEC1Ev
libstdc++.so.6:_ZNSt14basic_ofstreamIcSt11char_traitsIcEED1Ev
libstdc++.so.6:_ZNSt6localeC1Ev
libstdc++.so.6:_ZNSt6localeD1Ev
libstdc++.so.6:_ZNSt7__cxx1112basic_stringIcSt11char_traitsIcESaIcEE10_M_disposeEv
libstdc++.so.6:_ZNSt7__cxx1112basic_stringIcSt11char_traitsIcESaIcEE10_M_replaceEmmPKcm
libstdc++.so.6:_ZNSt7__cxx1112basic_stringIcSt11char_traitsIcESaIcEE6appendEPKcm
libstdc++.so.6:_ZNSt7__cxx1112basic_stringIcSt11char_traitsIcESaIcEE9_M_assignERKS4_
libstdc++.so.6:_ZNSt7__cxx1112basic_stringIcSt11char_traitsIcESaIcEE9_M_createERmm
libstdc++.so.6:_ZNSt7__cxx1112basic_stringIcSt11char_traitsIcESaIcEEC1EOS4_
libstdc++.so.6:_ZNSt7__cxx1115basic_stringbufIcSt11char_traitsIcESaIcEE7_M_syncEPcmm
libstdc++.so.6:_ZNSt7__cxx1118basic_stringstreamIcSt11char_traitsIcESaIcEEC1ERKNS_12basic_stringIcS2_S3_EESt13_Ios_Openmode
libstdc++.so.6:_ZNSt7__cxx1118basic_stringstreamIcSt11char_traitsIcESaIcEEC1Ev
libstdc++.so.6:_ZNSt7__cxx1118basic_stringstreamIcSt11char_traitsIcESaIcEED1Ev
libstdc++.so.6:_ZNSt8ios_baseC2Ev
libstdc++.so.6:_ZNSt8ios_baseD2Ev
libstdc++.so.6:_ZNSt9basic_iosIcSt11char_traitsIcEE4initEPSt15basic_streambufIcS1_E
libstdc++.so.6:_ZNSt9basic_iosIcSt11char_traitsIcEE5clearESt12_Ios_Iostate
libstdc++.so.6:_ZSt16__ostream_insertIcSt11char_traitsIcEERSt13basic_ostreamIT_T0_ES6_PKS3_l
libstdc++.so.6:_ZSt16__throw_bad_castv
libstdc++.so.6:_ZSt18_Rb_tree_decrementPSt18_Rb_tree_node_base
libstdc++.so.6:_ZSt18_Rb_tree_incrementPKSt18_Rb_tree_node_base
libstdc++.so.6:_ZSt19__throw_logic_errorPKc
libstdc++.so.6:_ZSt20__throw_length_errorPKc
libstdc++.so.6:_ZSt21ios_base_library_initv
libstdc++.so.6:_ZSt25__throw_bad_function_callv
libstdc++.so.6:_ZSt29_Rb_tree_insert_and_rebalancebPSt18_Rb_tree_node_baseS0_RS_
libstdc++.so.6:_ZSt2wsIcSt11char_traitsIcEERSt13basic_istreamIT_T0_ES6_
libstdc++.so.6:_ZSt4cerr
libstdc++.so.6:_ZSt4cout
libstdc++.so.6:_ZSt7nothrow
libstdc++.so.6:_ZSt9terminatev
libstdc++.so.6:_ZTIPv
libstdc++.so.6:_ZTISt9bad_alloc
libstdc++.so.6:_ZTIb
libstdc++.so.6:_ZTId
libstdc++.so.6:_ZTIi
libstdc++.so.6:_ZTTNSt7__cxx1118basic_stringstreamIcSt11char_traitsIcESaIcEEE
libstdc++.so.6:_ZTVN10__cxxabiv117__class_type_infoE
libstdc++.so.6:_ZTVN10__cxxabiv119__pointer_type_infoE
libstdc++.so.6:_ZTVN10__cxxabiv120__function_type_infoE
libstdc++.so.6:_ZTVN10__cxxabiv120__si_class_type_infoE
libstdc++.so.6:_ZTVN10__cxxabiv121__vmi_class_type_infoE
libstdc++.so.6:_ZTVNSt7__cxx1115basic_stringbufIcSt11char_traitsIcESaIcEEE
libstdc++.so.6:_ZTVNSt7__cxx1118basic_stringstreamIcSt11char_traitsIcESaIcEEE
libstdc++.so.6:_ZTVSt15basic_streambufIcSt11char_traitsIcEE
libstdc++.so.6:_ZTVSt9basic_iosIcSt11char_traitsIcEE
libstdc++.so.6:_ZdlPv
libstdc++.so.6:_ZdlPvm
libstdc++.so.6:_Znwm
libstdc++.so.6:_ZnwmRKSt9nothrow_t
libstdc++.so.6:__cxa_allocate_exception
libstdc++.so.6:__cxa_bad_cast
libstdc++.so.6:__cxa_begin_catch
libstdc++.so.6:__cxa_end_catch
libstdc++.so.6:__cxa_free_exception
libstdc++.so.6:__cxa_guard_abort
libstdc++.so.6:__cxa_guard_acquire
libstdc++.so.6:__cxa_guard_release
libstdc++.so.6:__cxa_rethrow
libstdc++.so.6:__cxa_throw
libstdc++.so.6:__dynamic_cast
libstdc++.so.6:__gxx_personality_v0
libyaml-cpp.so.0.7:_ZN4YAML11InvalidNodeD1Ev
libyaml-cpp.so.0.7:_ZN4YAML11KeyNotFoundD1Ev
libyaml-cpp.so.0.7:_ZN4YAML12BadSubscriptD1Ev
libyaml-cpp.so.0.7:_ZN4YAML13BadConversionD2Ev
libyaml-cpp.so.0.7:_ZN4YAML4LoadEPKc
libyaml-cpp.so.0.7:_ZN4YAML6detail13memory_holder5mergeERS1_
libyaml-cpp.so.0.7:_ZN4YAML6detail6memory11create_nodeEv
libyaml-cpp.so.0.7:_ZN4YAML6detail9node_data10set_scalarERKNSt7__cxx1112basic_stringIcSt11char_traitsIcESaIcEEE
libyaml-cpp.so.0.7:_ZN4YAML6detail9node_data12empty_scalarB5cxx11Ev
libyaml-cpp.so.0.7:_ZN4YAML6detail9node_data12mark_definedEv
libyaml-cpp.so.0.7:_ZN4YAML6detail9node_data14convert_to_mapERKSt10shared_ptrINS0_13memory_holderEE
libyaml-cpp.so.0.7:_ZN4YAML6detail9node_data15insert_map_pairERNS0_4nodeES3_
libyaml-cpp.so.0.7:_ZN4YAML6detail9node_data3endEv
libyaml-cpp.so.0.7:_ZN4YAML6detail9node_data5beginEv
libyaml-cpp.so.0.7:_ZN4YAML6detail9node_data8set_nullEv
libyaml-cpp.so.0.7:_ZN4YAML7convertIbE6decodeERKNS_4NodeERb
libyaml-cpp.so.0.7:_ZN4YAML9ExceptionD1Ev
libyaml-cpp.so.0.7:_ZNK4YAML6detail9node_data4sizeEv
