megaglest:GAME_ARGS
megaglest:VERBOSE_MODE_ENABLED
megaglest:_IO_stdin_used
megaglest:_Z18hasCommandArgumentiPPcNSt7__cxx1112basic_stringIcSt11char_traitsIcESaIcEEEPiib
megaglest:_Z18printParameterHelpPKcb
megaglest:_Z9mainSetupiPPc
megaglest:_ZN13streflop_libm11__copysignfEff
megaglest:_ZN13streflop_libm13__kernel_cosfEff
megaglest:_ZN13streflop_libm13__kernel_sinfEffi
megaglest:_ZN13streflop_libm15__ieee754_fmodfEff
megaglest:_ZN13streflop_libm15__ieee754_sqrtfEf
megaglest:_ZN13streflop_libm16__ieee754_atan2fEff
megaglest:_ZN13streflop_libm18__kernel_rem_pio2fEPfS0_iiiPKi
megaglest:_ZN13streflop_libm19__ieee754_rem_pio2fEfPf
megaglest:_ZN13streflop_libm6__cosfEf
megaglest:_ZN13streflop_libm6__sinfEf
megaglest:_ZN13streflop_libm7__atanfEf
megaglest:_ZN13streflop_libm7__fabsfEf
megaglest:_ZN13streflop_libm8__floorfEf
megaglest:_ZN13streflop_libm9__scalbnfEfi
megaglest:_ZN4Text10LineHeightEPKci
megaglest:_ZN4Text10LineHeightEPKwi
megaglest:_ZN4Text11GetFaceSizeEv
megaglest:_ZN4Text11SetFaceSizeEi
megaglest:_ZN4Text17DEFAULT_FONT_PATHB5cxx11E
megaglest:_ZN4Text26DEFAULT_FONT_PATH_ABSOLUTEB5cxx11E
megaglest:_ZN4Text4initENSt7__cxx1112basic_stringIcSt11char_traitsIcESaIcEEES5_i
megaglest:_ZN4Text6RenderEPKci
megaglest:_ZN4Text6RenderEPKwi
megaglest:_ZN4Text7AdvanceEPKci
megaglest:_ZN4Text7AdvanceEPKwi
megaglest:_ZN4TextC1E19FontTextHandlerType
megaglest:_ZN4TextC2E19FontTextHandlerType
megaglest:_ZN4TextD0Ev
megaglest:_ZN4TextD1Ev
megaglest:_ZN4TextD2Ev
megaglest:_ZN5Glest4Game10AttackType8saveGameEPN6Shared3Xml7XmlNodeE
megaglest:_ZN5Glest4Game10GameCamera10clampPosXZEffff
megaglest:_ZN5Glest4Game10GameCamera10rotateToVHEff
megaglest:_ZN5Glest4Game10GameCamera11clampPosXYZEffffff
megaglest:_ZN5Glest4Game10GameCamera11shakeCameraEv
megaglest:_ZN5Glest4Game10GameCamera12moveForwardHEff
megaglest:_ZN5Glest4Game10GameCamera12setMaxHeightEf
megaglest:_ZN5Glest4Game10GameCamera12startingHAngE
megaglest:_ZN5Glest4Game10GameCamera12startingVAngE
megaglest:_ZN5Glest4Game10GameCamera12transitionVHEff
megaglest:_ZN5Glest4Game10GameCamera13centerOffsetZE
megaglest:_ZN5Glest4Game10GameCamera13defaultHeightE
megaglest:_ZN5Glest4Game10GameCamera13resetPositionEv
megaglest:_ZN5Glest4Game10GameCamera13transitionXYZEfff
megaglest:_ZN5Glest4Game10GameCamera15hTransitionMultE
megaglest:_ZN5Glest4Game10GameCamera15vTransitionMultE
megaglest:_ZN5Glest4Game10GameCamera18computeVisibleQuadEv
megaglest:_ZN5Glest4Game10GameCamera20setCalculatedDefaultEf
megaglest:_ZN5Glest4Game10GameCamera4initEii
megaglest:_ZN5Glest4Game10GameCamera4loadEPKN6Shared3Xml7XmlNodeE
megaglest:_ZN5Glest4Game10GameCamera4zoomEf
megaglest:_ZN5Glest4Game10GameCamera5shakeEiibN6Shared8Graphics4Vec3IfEE
megaglest:_ZN5Glest4Game10GameCamera6moveUpEf
megaglest:_ZN5Glest4Game10GameCamera6setPosEN6Shared8Graphics4Vec2IfEE
megaglest:_ZN5Glest4Game10GameCamera6setPosEN6Shared8Graphics4Vec3IfEE
megaglest:_ZN5Glest4Game10GameCamera6updateEv
megaglest:_ZN5Glest4Game10GameCamera8centerXZEff
megaglest:_ZN5Glest4Game10GameCamera8clampAngEv
megaglest:_ZN5Glest4Game10GameCamera8loadGameEPKN6Shared3Xml7XmlNodeE
megaglest:_ZN5Glest4Game10GameCamera8rotateHVEff
megaglest:_ZN5Glest4Game10GameCamera8saveGameEPN6Shared3Xml7XmlNodeE
megaglest:_ZN5Glest4Game10GameCamera8setStateENS1_5StateE
megaglest:_ZN5Glest4Game10GameCamera9moveSideHEff
megaglest:_ZN5Glest4Game10GameCamera9shakeDistE
megaglest:_ZN5Glest4Game10GameCameraC1Ev
megaglest:_ZN5Glest4Game10GameCameraC2Ev
megaglest:_ZN5Glest4Game10GameCameraD1Ev
megaglest:_ZN5Glest4Game10GameCameraD2Ev
megaglest:_ZN5Glest4Game10MainWindow10eventCloseEv
megaglest:_ZN5Glest4Game10MainWindow10eventKeyUpE17SDL_KeyboardEvent
megaglest:_ZN5Glest4Game10MainWindow10setProgramEPNS0_7ProgramE
megaglest:_ZN5Glest4Game10MainWindow11eventResizeEN6Shared8Platform9SizeStateE
megaglest:_ZN5Glest4Game10MainWindow12eventKeyDownE17SDL_KeyboardEvent
megaglest:_ZN5Glest4Game10MainWindow12eventMouseUpEiiN6Shared8Platform11MouseButtonE
megaglest:_ZN5Glest4Game10MainWindow13eventActivateEb
megaglest:_ZN5Glest4Game10MainWindow13eventKeyPressE17SDL_KeyboardEvent
megaglest:_ZN5Glest4Game10MainWindow13showLanguagesEv
megaglest:_ZN5Glest4Game10MainWindow14eventMouseDownEiiN6Shared8Platform11MouseButtonE
megaglest:_ZN5Glest4Game10MainWindow14eventMouseMoveEiiPKN6Shared8Platform10MouseStateE
megaglest:_ZN5Glest4Game10MainWindow14eventTextInputENSt7__cxx1112basic_stringIcSt11char_traitsIcESaIcEEE
megaglest:_ZN5Glest4Game10MainWindow14toggleLanguageENSt7__cxx1112basic_stringIcSt11char_traitsIcESaIcEEE
megaglest:_ZN5Glest4Game10MainWindow15eventMouseWheelEiii
megaglest:_ZN5Glest4Game10MainWindow15eventSdlKeyDownE17SDL_KeyboardEvent
megaglest:_ZN5Glest4Game10MainWindow16eventWindowEventE15SDL_WindowEvent
megaglest:_ZN5Glest4Game10MainWindow21eventMouseDoubleClickEiiN6Shared8Platform11MouseButtonE
megaglest:_ZN5Glest4Game10MainWindow21eventToggleFullScreenEb
megaglest:_ZN5Glest4Game10MainWindow21getDesiredScreenWidthEv
megaglest:_ZN5Glest4Game10MainWindow22getDesiredScreenHeightEv
megaglest:_ZN5Glest4Game10MainWindow6renderEv
megaglest:_ZN5Glest4Game10MainWindowC1EPNS0_7ProgramE
megaglest:_ZN5Glest4Game10MainWindowC2EPNS0_7ProgramE
megaglest:_ZN5Glest4Game10MainWindowD0Ev
megaglest:_ZN5Glest4Game10MainWindowD1Ev
megaglest:_ZN5Glest4Game10MainWindowD2Ev
megaglest:_ZN5Glest4Game10MarkedCell26static_system_marker_colorE
megaglest:_ZN5Glest4Game10ObjectType12deletePixelsEv
megaglest:_ZN5Glest4Game10ObjectType4initEiibi
megaglest:_ZN5Glest4Game10ObjectType9loadModelERKNSt7__cxx1112basic_stringIcSt11char_traitsIcESaIcEEEPSt3mapIS7_St6vectorISt4pairIS7_S7_ESaISD_EESt4lessIS7_ESaISC_IS8_SF_EEES7_
megaglest:_ZN5Glest4Game10ObjectTypeD1Ev
megaglest:_ZN5Glest4Game10ObjectTypeD2Ev
megaglest:_ZN5Glest4Game10PathFinder11clearCachesEv
megaglest:_ZN5Glest4Game10PathFinder13findNodeIndexEPNS1_4NodeERSt6vectorIS2_SaIS2_EE
megaglest:_ZN5Glest4Game10PathFinder13findNodeIndexEPNS1_4NodeERSt6vectorIS3_SaIS3_EE
megaglest:_ZN5Glest4Game10PathFinder14unitCannotMoveEPNS0_4UnitE
megaglest:_ZN5Glest4Game10PathFinder16pathFindNodesMaxE
megaglest:_ZN5Glest4Game10PathFinder17clearUnitPrecacheEPNS0_4UnitE
megaglest:_ZN5Glest4Game10PathFinder18removeUnitPrecacheEPNS0_4UnitE
megaglest:_ZN5Glest4Game10PathFinder19maxFreeSearchRadiusE
megaglest:_ZN5Glest4Game10PathFinder21computeNearestFreePosEPKNS0_4UnitERKN6Shared8Graphics4Vec2IiEE
megaglest:_ZN5Glest4Game10PathFinder21pathFindBailoutRadiusE
megaglest:_ZN5Glest4Game10PathFinder21processNearestFreePosERKN6Shared8Graphics4Vec2IiEEiiiNS0_5FieldEiS5_RS5_Rf
megaglest:_ZN5Glest4Game10PathFinder24pathFindNodesAbsoluteMaxE
megaglest:_ZN5Glest4Game10PathFinder33getPathFindExtendRefreshNodeCountERNS1_12FactionStateE
megaglest:_ZN5Glest4Game10PathFinder33pathFindExtendRefreshForNodeCountE
megaglest:_ZN5Glest4Game10PathFinder33pathFindExtendRefreshNodeCountMaxE
megaglest:_ZN5Glest4Game10PathFinder33pathFindExtendRefreshNodeCountMinE
megaglest:_ZN5Glest4Game10PathFinder4initEPKNS0_3MapE
megaglest:_ZN5Glest4Game10PathFinder4initEv
megaglest:_ZN5Glest4Game10PathFinder5aStarEPNS0_4UnitERKN6Shared8Graphics4Vec2IiEEbiiPj
megaglest:_ZN5Glest4Game10PathFinder8findPathEPNS0_4UnitERKN6Shared8Graphics4Vec2IiEEPbi
megaglest:_ZN5Glest4Game10PathFinder8loadGameEPKN6Shared3Xml7XmlNodeE
megaglest:_ZN5Glest4Game10PathFinder8saveGameEPN6Shared3Xml7XmlNodeE
megaglest:_ZN5Glest4Game10PathFinderC1EPKNS0_3MapE
megaglest:_ZN5Glest4Game10PathFinderC1Ev
megaglest:_ZN5Glest4Game10PathFinderC2EPKNS0_3MapE
megaglest:_ZN5Glest4Game10PathFinderC2Ev
megaglest:_ZN5Glest4Game10PathFinderD1Ev
megaglest:_ZN5Glest4Game10PathFinderD2Ev
megaglest:_ZN5Glest4Game10ServerLine15buttonMouseMoveEii
megaglest:_ZN5Glest4Game10ServerLine16buttonMouseClickEii
megaglest:_ZN5Glest4Game10ServerLine4setYEi
megaglest:_ZN5Glest4Game10ServerLine6renderEv
megaglest:_ZN5Glest4Game10ServerLine8reloadUIEv
megaglest:_ZN5Glest4Game10ServerLineC1EPNS0_16MasterServerInfoEiiiPKc
megaglest:_ZN5Glest4Game10ServerLineC2EPNS0_16MasterServerInfoEiiiPKc
megaglest:_ZN5Glest4Game10ServerLineD0Ev
megaglest:_ZN5Glest4Game10ServerLineD1Ev
megaglest:_ZN5Glest4Game10ServerLineD2Ev
megaglest:_ZN5Glest4Game10SkillSoundC1Ev
megaglest:_ZN5Glest4Game10SkillSoundC2Ev
megaglest:_ZN5Glest4Game10SkillSoundD1Ev
megaglest:_ZN5Glest4Game10SkillSoundD2Ev
megaglest:_ZN5Glest4Game10mailStringE
megaglest:_ZN5Glest4Game11AiInterface10checkCostsEPKNS0_14ProducibleTypeEPKNS0_11CommandTypeE
megaglest:_ZN5Glest4Game11AiInterface11getResourceEPKNS0_12ResourceTypeE
megaglest:_ZN5Glest4Game11AiInterface11getTechTreeEv
megaglest:_ZN5Glest4Game11AiInterface11giveCommandB5cxx11EPKNS0_4UnitEPKNS0_11CommandTypeERKN6Shared8Graphics4Vec2IiEEi
megaglest:_ZN5Glest4Game11AiInterface11giveCommandB5cxx11EiNS0_12CommandClassERKN6Shared8Graphics4Vec2IiEE
megaglest:_ZN5Glest4Game11AiInterface11giveCommandB5cxx11EiPKNS0_11CommandTypeEPNS0_4UnitE
megaglest:_ZN5Glest4Game11AiInterface11giveCommandB5cxx11EiPKNS0_11CommandTypeERKN6Shared8Graphics4Vec2IiEEPKNS0_8UnitTypeE
megaglest:_ZN5Glest4Game11AiInterface11giveCommandB5cxx11EiPKNS0_11CommandTypeERKN6Shared8Graphics4Vec2IiEEi
megaglest:_ZN5Glest4Game11AiInterface11isFreeCellsERKN6Shared8Graphics4Vec2IiEEiNS0_5FieldE
megaglest:_ZN5Glest4Game11AiInterface12getMyFactionEv
megaglest:_ZN5Glest4Game11AiInterface12getMyUnitPtrEi
megaglest:_ZN5Glest4Game11AiInterface14getControlTypeEv
megaglest:_ZN5Glest4Game11AiInterface14getOnSightUnitEi
megaglest:_ZN5Glest4Game11AiInterface15getFactionCountEv
megaglest:_ZN5Glest4Game11AiInterface15getHomeLocationEv
megaglest:_ZN5Glest4Game11AiInterface16getMapMaxPlayersEv
megaglest:_ZN5Glest4Game11AiInterface16getMyFactionTypeEv
megaglest:_ZN5Glest4Game11AiInterface16getStartLocationEi
megaglest:_ZN5Glest4Game11AiInterface16onSightUnitCountEv
megaglest:_ZN5Glest4Game11AiInterface17isLogLevelEnabledEi
megaglest:_ZN5Glest4Game11AiInterface18signalWorkerThreadEi
megaglest:_ZN5Glest4Game11AiInterface23factionUsesResourceTypeEPKNS0_11FactionTypeEPKNS0_12ResourceTypeE
megaglest:_ZN5Glest4Game11AiInterface24getFirstOnSightEnemyUnitERN6Shared8Graphics4Vec2IiEERNS0_5FieldEi
megaglest:_ZN5Glest4Game11AiInterface25executeCommandOverNetworkEv
megaglest:_ZN5Glest4Game11AiInterface25getNearestSightedResourceEPKNS0_12ResourceTypeERKN6Shared8Graphics4Vec2IiEERS8_b
megaglest:_ZN5Glest4Game11AiInterface25giveCommandSwitchTeamVoteB5cxx11EPKNS0_7FactionEPNS0_14SwitchTeamVoteE
megaglest:_ZN5Glest4Game11AiInterface29isWorkerThreadSignalCompletedEi
megaglest:_ZN5Glest4Game11AiInterface34removeEnemyWarningPositionFromListERN6Shared8Graphics4Vec2IiEE
megaglest:_ZN5Glest4Game11AiInterface4initEv
megaglest:_ZN5Glest4Game11AiInterface6getMapEv
megaglest:_ZN5Glest4Game11AiInterface6reqsOkEPKNS0_11CommandTypeE
megaglest:_ZN5Glest4Game11AiInterface6reqsOkEPKNS0_14RequirableTypeE
megaglest:_ZN5Glest4Game11AiInterface6updateEv
megaglest:_ZN5Glest4Game11AiInterface8loadGameEPKN6Shared3Xml7XmlNodeEPNS0_7FactionE
megaglest:_ZN5Glest4Game11AiInterface8printLogEiRKNSt7__cxx1112basic_stringIcSt11char_traitsIcESaIcEEE
megaglest:_ZN5Glest4Game11AiInterface9getMyUnitEi
megaglest:_ZN5Glest4Game11AiInterfaceC1ERNS0_4GameEiii
megaglest:_ZN5Glest4Game11AiInterfaceC2ERNS0_4GameEiii
megaglest:_ZN5Glest4Game11AiInterfaceD1Ev
megaglest:_ZN5Glest4Game11AiInterfaceD2Ev
megaglest:_ZN5Glest4Game11AiRuleBuild11isDefensiveEPKNS0_8UnitTypeE
megaglest:_ZN5Glest4Game11AiRuleBuild12buildGenericEPKNS0_9BuildTaskE
megaglest:_ZN5Glest4Game11AiRuleBuild13buildSpecificEPKNS0_9BuildTaskE
megaglest:_ZN5Glest4Game11AiRuleBuild17buildBestBuildingERKSt6vectorIPKNS0_8UnitTypeESaIS5_EE
megaglest:_ZN5Glest4Game11AiRuleBuild17isWarriorProducerEPKNS0_8UnitTypeE
megaglest:_ZN5Glest4Game11AiRuleBuild18isResourceProducerEPKNS0_8UnitTypeE
megaglest:_ZN5Glest4Game11AiRuleBuild4testEv
megaglest:_ZN5Glest4Game11AiRuleBuild7executeEv
megaglest:_ZN5Glest4Game11AiRuleBuildC1EPNS0_2AiE
megaglest:_ZN5Glest4Game11AiRuleBuildC2EPNS0_2AiE
megaglest:_ZN5Glest4Game11AttackBoost8loadGameEPKN6Shared3Xml7XmlNodeEPNS0_7FactionEPKNS0_9SkillTypeE
megaglest:_ZN5Glest4Game11AttackBoostC1Ev
megaglest:_ZN5Glest4Game11AttackBoostC2Ev
megaglest:_ZN5Glest4Game11AttackBoostD0Ev
megaglest:_ZN5Glest4Game11AttackBoostD1Ev
megaglest:_ZN5Glest4Game11AttackBoostD2Ev
megaglest:_ZN5Glest4Game11ChatManager10appendTextENSt7__cxx1112basic_stringIcSt11char_traitsIcESaIcEEEbb
megaglest:_ZN5Glest4Game11ChatManager10deleteTextEib
megaglest:_ZN5Glest4Game11ChatManager12switchOnEditEPNS0_28CustomInputCallbackInterfaceEi
megaglest:_ZN5Glest4Game11ChatManager13updateNetworkEv
megaglest:_ZN5Glest4Game11ChatManager18setDisableTeamModeEb
megaglest:_ZN5Glest4Game11ChatManager22getTextWithLengthCheckENSt7__cxx1112basic_stringIcSt11char_traitsIcESaIcEEEii
megaglest:_ZN5Glest4Game11ChatManager24updateAutoCompleteBufferEv
megaglest:_ZN5Glest4Game11ChatManager4initEPNS0_7ConsoleEibNSt7__cxx1112basic_stringIcSt11char_traitsIcESaIcEEE
megaglest:_ZN5Glest4Game11ChatManager5keyUpE17SDL_KeyboardEvent
megaglest:_ZN5Glest4Game11ChatManager7addTextENSt7__cxx1112basic_stringIcSt11char_traitsIcESaIcEEE
megaglest:_ZN5Glest4Game11ChatManager7keyDownE17SDL_KeyboardEvent
megaglest:_ZN5Glest4Game11ChatManager8keyPressE17SDL_KeyboardEvent
megaglest:_ZN5Glest4Game11ChatManager9textInputENSt7__cxx1112basic_stringIcSt11char_traitsIcESaIcEEE
megaglest:_ZN5Glest4Game11ChatManagerC1Ev
megaglest:_ZN5Glest4Game11ChatManagerC2Ev
megaglest:_ZN5Glest4Game11CommandType4loadEiPKN6Shared3Xml7XmlNodeERKNSt7__cxx1112basic_stringIcSt11char_traitsIcESaIcEEEPKNS0_8TechTreeEPKNS0_11FactionTypeERKNS0_8UnitTypeERSt3mapISC_St6vectorISt4pairISC_SC_ESaISR_EESt4lessISC_ESaISQ_ISD_ST_EEESC_
megaglest:_ZN5Glest4Game11FactionType12deletePixelsEv
megaglest:_ZN5Glest4Game11FactionType19validateFactionTypeB5cxx11Ev
megaglest:_ZN5Glest4Game11FactionType31validateFactionTypeUpgradeTypesB5cxx11Ev
megaglest:_ZN5Glest4Game11FactionType32validateFactionTypeResourceTypesB5cxx11ERSt6vectorINS0_12ResourceTypeESaIS3_EE
megaglest:_ZN5Glest4Game11FactionType4loadERKNSt7__cxx1112basic_stringIcSt11char_traitsIcESaIcEEEPKNS0_8TechTreeEPN6Shared4Util8ChecksumESG_RSt3mapIS7_St6vectorISt4pairIS7_S7_ESaISK_EESt4lessIS7_ESaISJ_IS8_SM_EEEb
megaglest:_ZN5Glest4Game11FactionTypeC1Ev
megaglest:_ZN5Glest4Game11FactionTypeC2Ev
megaglest:_ZN5Glest4Game11FactionTypeD0Ev
megaglest:_ZN5Glest4Game11FactionTypeD1Ev
megaglest:_ZN5Glest4Game11FactionTypeD2Ev
megaglest:_ZN5Glest4Game11GraphicLine4defHE
megaglest:_ZN5Glest4Game11GraphicLine4defWE
megaglest:_ZN5Glest4Game11GraphicLine4initEiiii
megaglest:_ZN5Glest4Game11GraphicLineC1ENSt7__cxx1112basic_stringIcSt11char_traitsIcESaIcEEES7_
megaglest:_ZN5Glest4Game11GraphicLineC2ENSt7__cxx1112basic_stringIcSt11char_traitsIcESaIcEEES7_
megaglest:_ZN5Glest4Game11PlayerStatsC1Ev
megaglest:_ZN5Glest4Game11PlayerStatsC2Ev
megaglest:_ZN5Glest4Game11ProduceTask8loadGameEPKN6Shared3Xml7XmlNodeEPNS0_7FactionE
megaglest:_ZN5Glest4Game11ProduceTaskC1ENS0_9UnitClassE
megaglest:_ZN5Glest4Game11ProduceTaskC1EPKNS0_12ResourceTypeE
megaglest:_ZN5Glest4Game11ProduceTaskC1EPKNS0_8UnitTypeE
megaglest:_ZN5Glest4Game11ProduceTaskC1Ev
megaglest:_ZN5Glest4Game11ProduceTaskC2ENS0_9UnitClassE
megaglest:_ZN5Glest4Game11ProduceTaskC2EPKNS0_12ResourceTypeE
megaglest:_ZN5Glest4Game11ProduceTaskC2EPKNS0_8UnitTypeE
megaglest:_ZN5Glest4Game11ProduceTaskC2Ev
megaglest:_ZN5Glest4Game11SurfaceCell10setVisibleEib
megaglest:_ZN5Glest4Game11SurfaceCell11setExploredEib
megaglest:_ZN5Glest4Game11SurfaceCell14deleteResourceEv
megaglest:_ZN5Glest4Game11SurfaceCell3endEv
megaglest:_ZN5Glest4Game11SurfaceCell8loadGameEPKN6Shared3Xml7XmlNodeEiPNS0_5WorldE
megaglest:_ZN5Glest4Game11SurfaceCell9decAmountEi
megaglest:_ZN5Glest4Game11SurfaceCellC1Ev
megaglest:_ZN5Glest4Game11SurfaceCellC2Ev
megaglest:_ZN5Glest4Game11SurfaceCellD1Ev
megaglest:_ZN5Glest4Game11SurfaceCellD2Ev
megaglest:_ZN5Glest4Game11SurfaceInfoC1EPKN6Shared8Graphics8Pixmap2DE
megaglest:_ZN5Glest4Game11SurfaceInfoC1EPKN6Shared8Graphics8Pixmap2DES6_S6_S6_
megaglest:_ZN5Glest4Game11SurfaceInfoC2EPKN6Shared8Graphics8Pixmap2DE
megaglest:_ZN5Glest4Game11SurfaceInfoC2EPKN6Shared8Graphics8Pixmap2DES6_S6_S6_
megaglest:_ZN5Glest4Game11UnitUpdater10updateMoveEPNS0_4UnitEi
megaglest:_ZN5Glest4Game11UnitUpdater10updateStopEPNS0_4UnitEi
megaglest:_ZN5Glest4Game11UnitUpdater10updateUnitEPNS0_4UnitE
megaglest:_ZN5Glest4Game11UnitUpdater11clearCachesEv
megaglest:_ZN5Glest4Game11UnitUpdater11spawnAttackEPNS0_4UnitENSt7__cxx1112basic_stringIcSt11char_traitsIcESaIcEEEiiiibN6Shared8Graphics4Vec2IiEE
megaglest:_ZN5Glest4Game11UnitUpdater11unitOnRangeEPNS0_4UnitEiPS3_PKNS0_15AttackSkillTypeEb
megaglest:_ZN5Glest4Game11UnitUpdater11updateBuildEPNS0_4UnitEi
megaglest:_ZN5Glest4Game11UnitUpdater11updateMorphEPNS0_4UnitEi
megaglest:_ZN5Glest4Game11UnitUpdater12updateAttackEPNS0_4UnitEi
megaglest:_ZN5Glest4Game11UnitUpdater12updateRepairEPNS0_4UnitEi
megaglest:_ZN5Glest4Game11UnitUpdater13updateHarvestEPNS0_4UnitEi
megaglest:_ZN5Glest4Game11UnitUpdater13updateProduceEPNS0_4UnitEi
megaglest:_ZN5Glest4Game11UnitUpdater13updateUpgradeEPNS0_4UnitEi
megaglest:_ZN5Glest4Game11UnitUpdater15attackerOnSightEPNS0_4UnitEPS3_b
megaglest:_ZN5Glest4Game11UnitUpdater16findUnitsForCellEPNS0_4CellERSt6vectorIPNS0_4UnitESaIS6_EE
megaglest:_ZN5Glest4Game11UnitUpdater16findUnitsInRangeEPKNS0_4UnitEi
megaglest:_ZN5Glest4Game11UnitUpdater16updateSwitchTeamEPNS0_4UnitEi
megaglest:_ZN5Glest4Game11UnitUpdater17SwapActiveCommandEPNS0_4UnitES3_
megaglest:_ZN5Glest4Game11UnitUpdater17attackableOnRangeEPNS0_4UnitEPS3_PKNS0_15AttackSkillTypeEb
megaglest:_ZN5Glest4Game11UnitUpdater17attackableOnSightEPNS0_4UnitEPS3_PKNS0_15AttackSkillTypeEb
megaglest:_ZN5Glest4Game11UnitUpdater17clearUnitPrecacheEPNS0_4UnitE
megaglest:_ZN5Glest4Game11UnitUpdater17enemyUnitsOnRangeEPKNS0_4UnitEPKNS0_15AttackSkillTypeE
megaglest:_ZN5Glest4Game11UnitUpdater17searchForResourceEPNS0_4UnitEPKNS0_18HarvestCommandTypeE
megaglest:_ZN5Glest4Game11UnitUpdater17unitBeingAttackedEPKNS0_4UnitE
megaglest:_ZN5Glest4Game11UnitUpdater17unitBeingAttackedERSt4pairIbPNS0_4UnitEEPKS3_PKNS0_15AttackSkillTypeEPf
megaglest:_ZN5Glest4Game11UnitUpdater17updateUnitCommandEPNS0_4UnitEi
megaglest:_ZN5Glest4Game11UnitUpdater18findEnemiesForCellEPKNS0_15AttackSkillTypeEPNS0_4CellEPKNS0_4UnitES9_RSt6vectorIPS7_SaISB_EE
megaglest:_ZN5Glest4Game11UnitUpdater18removeUnitPrecacheEPNS0_4UnitE
megaglest:_ZN5Glest4Game11UnitUpdater19findPeerUnitBuilderEPNS0_4UnitE
megaglest:_ZN5Glest4Game11UnitUpdater19updateAttackStoppedEPNS0_4UnitEi
megaglest:_ZN5Glest4Game11UnitUpdater22SwapActiveCommandStateEPNS0_4UnitENS0_16CommandStateTypeEPKNS0_11CommandTypeEii
megaglest:_ZN5Glest4Game11UnitUpdater22findCachedCellsEnemiesEN6Shared8Graphics4Vec2IiEEiiRSt6vectorIPNS0_4UnitESaIS8_EEPKNS0_15AttackSkillTypeEPKS7_SG_
megaglest:_ZN5Glest4Game11UnitUpdater25startAttackParticleSystemEPNS0_4UnitEff
megaglest:_ZN5Glest4Game11UnitUpdater28updateHarvestEmergencyReturnEPNS0_4UnitEi
megaglest:_ZN5Glest4Game11UnitUpdater37getUnitRangeCellsLookupItemCacheStatsB5cxx11Ev
megaglest:_ZN5Glest4Game11UnitUpdater3hitEPNS0_4UnitE
megaglest:_ZN5Glest4Game11UnitUpdater3hitEPNS0_4UnitEPKNS0_15AttackSkillTypeERKN6Shared8Graphics4Vec2IiEENS0_5FieldEi
megaglest:_ZN5Glest4Game11UnitUpdater4initEPNS0_4GameE
megaglest:_ZN5Glest4Game11UnitUpdater5spawnEPNS0_4UnitENSt7__cxx1112basic_stringIcSt11char_traitsIcESaIcEEEiiii
megaglest:_ZN5Glest4Game11UnitUpdater6damageEPNS0_4UnitEPKNS0_15AttackSkillTypeES3_fi
megaglest:_ZN5Glest4Game11UnitUpdater8loadGameEPKN6Shared3Xml7XmlNodeE
megaglest:_ZN5Glest4Game11UnitUpdater8saveGameEPN6Shared3Xml7XmlNodeE
megaglest:_ZN5Glest4Game11UnitUpdater9spawnUnitEPNS0_4UnitENSt7__cxx1112basic_stringIcSt11char_traitsIcESaIcEEEN6Shared8Graphics4Vec2IiEE
megaglest:_ZN5Glest4Game11UnitUpdaterC1Ev
megaglest:_ZN5Glest4Game11UnitUpdaterC2Ev
megaglest:_ZN5Glest4Game11UnitUpdaterD1Ev
megaglest:_ZN5Glest4Game11UnitUpdaterD2Ev
megaglest:_ZN5Glest4Game11UpgradeTask8loadGameEPKN6Shared3Xml7XmlNodeEPNS0_7FactionE
megaglest:_ZN5Glest4Game11UpgradeTaskC1EPKNS0_11UpgradeTypeE
megaglest:_ZN5Glest4Game11UpgradeTaskC1Ev
megaglest:_ZN5Glest4Game11UpgradeTaskC2EPKNS0_11UpgradeTypeE
megaglest:_ZN5Glest4Game11UpgradeTaskC2Ev
megaglest:_ZN5Glest4Game11UpgradeType4loadERKNSt7__cxx1112basic_stringIcSt11char_traitsIcESaIcEEEPKNS0_8TechTreeEPKNS0_11FactionTypeEPN6Shared4Util8ChecksumESJ_RSt3mapIS7_St6vectorISt4pairIS7_S7_ESaISN_EESt4lessIS7_ESaISM_IS8_SP_EEEb
megaglest:_ZN5Glest4Game11UpgradeType7preLoadERKNSt7__cxx1112basic_stringIcSt11char_traitsIcESaIcEEE
megaglest:_ZN5Glest4Game11WaterSplash6updateEf
megaglest:_ZN5Glest4Game11WaterSplashC1ERKN6Shared8Graphics4Vec2IfEEi
megaglest:_ZN5Glest4Game11WaterSplashC2ERKN6Shared8Graphics4Vec2IfEEi
megaglest:_ZN5Glest4Game11thisGamePtrE
megaglest:_ZN5Glest4Game12AiRuleExpand4testEv
megaglest:_ZN5Glest4Game12AiRuleExpand7executeEv
megaglest:_ZN5Glest4Game12AiRuleExpandC1EPNS0_2AiE
megaglest:_ZN5Glest4Game12AiRuleExpandC2EPNS0_2AiE
megaglest:_ZN5Glest4Game12AiRuleRepair25getMinUnitsToRepairCastleEv
megaglest:_ZN5Glest4Game12AiRuleRepair4testEv
megaglest:_ZN5Glest4Game12AiRuleRepair7executeEv
megaglest:_ZN5Glest4Game12AiRuleRepairC1EPNS0_2AiE
megaglest:_ZN5Glest4Game12AiRuleRepairC2EPNS0_2AiE
megaglest:_ZN5Glest4Game12DieSkillType4loadEPKN6Shared3Xml7XmlNodeES6_RKNSt7__cxx1112basic_stringIcSt11char_traitsIcESaIcEEEPKNS0_8TechTreeEPKNS0_11FactionTypeERSt3mapISC_St6vectorISt4pairISC_SC_ESaISO_EESt4lessISC_ESaISN_ISD_SQ_EEESC_
megaglest:_ZN5Glest4Game12DieSkillType8saveGameEPN6Shared3Xml7XmlNodeE
megaglest:_ZN5Glest4Game12DieSkillTypeC1Ev
megaglest:_ZN5Glest4Game12DieSkillTypeC2Ev
megaglest:_ZN5Glest4Game12GameSettings22playerDisconnectedTextB5cxx11E
megaglest:_ZN5Glest4Game12GraphicLabel12setCenteredHEb
megaglest:_ZN5Glest4Game12GraphicLabel12setCenteredWEb
megaglest:_ZN5Glest4Game12GraphicLabel4defHE
megaglest:_ZN5Glest4Game12GraphicLabel4defWE
megaglest:_ZN5Glest4Game12GraphicLabel4initEiiiibN6Shared8Graphics4Vec3IfEEb
megaglest:_ZN5Glest4Game12GraphicLabel9mouseMoveEii
megaglest:_ZN5Glest4Game12GraphicLabelC1ENSt7__cxx1112basic_stringIcSt11char_traitsIcESaIcEEES7_b
megaglest:_ZN5Glest4Game12GraphicLabelC2ENSt7__cxx1112basic_stringIcSt11char_traitsIcESaIcEEES7_b
megaglest:_ZN5Glest4Game12ProgramState12incrementFpsEv
megaglest:_ZN5Glest4Game12ProgramState16restoreToStartXYEv
megaglest:_ZN5Glest4Game12ProgramState23MAIN_PROGRAM_RENDER_KEYE
megaglest:_ZN5Glest4Game12ProgramState4tickEv
megaglest:_ZN5Glest4Game12ProgramState6renderEv
megaglest:_ZN5Glest4Game12ProgramState6updateEv
megaglest:_ZN5Glest4Game12ProgramState9canRenderEb
megaglest:_ZN5Glest4Game12ProgramState9mouseMoveEiiPKN6Shared8Platform10MouseStateE
megaglest:_ZN5Glest4Game12ProgramStateC1EPNS0_7ProgramE
megaglest:_ZN5Glest4Game12ProgramStateC2EPNS0_7ProgramE
megaglest:_ZN5Glest4Game12ResourceType12deletePixelsEv
megaglest:_ZN5Glest4Game12ResourceType4loadERKNSt7__cxx1112basic_stringIcSt11char_traitsIcESaIcEEEPN6Shared4Util8ChecksumESD_RSt3mapIS7_St6vectorISt4pairIS7_S7_ESaISH_EESt4lessIS7_ESaISG_IS8_SJ_EEES7_
megaglest:_ZN5Glest4Game12ResourceType7strToRcERKNSt7__cxx1112basic_stringIcSt11char_traitsIcESaIcEEE
megaglest:_ZN5Glest4Game12ResourceType8saveGameEPN6Shared3Xml7XmlNodeE
megaglest:_ZN5Glest4Game12ResourceTypeC1Ev
megaglest:_ZN5Glest4Game12ResourceTypeC2Ev
megaglest:_ZN5Glest4Game12ResourceTypeD0Ev
megaglest:_ZN5Glest4Game12ResourceTypeD1Ev
megaglest:_ZN5Glest4Game12ResourceTypeD2Ev
megaglest:_ZN5Glest4Game12SurfaceAtlas10addSurfaceEPNS0_11SurfaceInfoE
megaglest:_ZN5Glest4Game12SurfaceAtlas15checkDimensionsEPKN6Shared8Graphics8Pixmap2DE
megaglest:_ZN5Glest4Game12SurfaceAtlasC1Ev
megaglest:_ZN5Glest4Game12SurfaceAtlasC2Ev
megaglest:_ZN5Glest4Game12TotalUpgrade3sumEPKNS0_15UpgradeTypeBaseEPKNS0_4UnitEb
megaglest:_ZN5Glest4Game12TotalUpgrade5applyEiPKNS0_15UpgradeTypeBaseEPKNS0_4UnitE
megaglest:_ZN5Glest4Game12TotalUpgrade5resetEv
megaglest:_ZN5Glest4Game12TotalUpgrade7deapplyEiPKNS0_15UpgradeTypeBaseEi
megaglest:_ZN5Glest4Game12TotalUpgrade8incLevelEPKNS0_8UnitTypeE
megaglest:_ZN5Glest4Game12TotalUpgrade8loadGameEPKN6Shared3Xml7XmlNodeE
megaglest:_ZN5Glest4Game12TotalUpgradeC1Ev
megaglest:_ZN5Glest4Game12TotalUpgradeC2Ev
megaglest:_ZN5Glest4Game12WaterEffects14addWaterSplashERKN6Shared8Graphics4Vec2IfEEi
megaglest:_ZN5Glest4Game12WaterEffects6updateEf
megaglest:_ZN5Glest4Game12WaterEffectsC1Ev
megaglest:_ZN5Glest4Game12WaterEffectsC2Ev
megaglest:_ZN5Glest4Game12WaypointPath8condenseEv
megaglest:_ZN5Glest4Game12formatStringENSt7__cxx1112basic_stringIcSt11char_traitsIcESaIcEEE
megaglest:_ZN5Glest4Game12setupLoggingERNS0_6ConfigEb
megaglest:_ZN5Glest4Game13AiRuleProduce14produceGenericEPKNS0_11ProduceTaskE
megaglest:_ZN5Glest4Game13AiRuleProduce15produceSpecificEPKNS0_11ProduceTaskE
megaglest:_ZN5Glest4Game13AiRuleProduce17produceGenericNewEPKNS0_11ProduceTaskE
megaglest:_ZN5Glest4Game13AiRuleProduce23addUnitTypeToCandidatesEPKNS0_8UnitTypeERSt6vectorIS4_SaIS4_EERS5_IbSaIbEEb
megaglest:_ZN5Glest4Game13AiRuleProduce28canUnitTypeOfferResourceTypeEPKNS0_8UnitTypeEPKNS0_12ResourceTypeE
megaglest:_ZN5Glest4Game13AiRuleProduce31setAIProduceTaskForResourceTypeEPKNS0_11ProduceTaskEPNS0_11AiInterfaceE
megaglest:_ZN5Glest4Game13AiRuleProduce4testEv
megaglest:_ZN5Glest4Game13AiRuleProduce7executeEv
megaglest:_ZN5Glest4Game13AiRuleProduceC1EPNS0_2AiE
megaglest:_ZN5Glest4Game13AiRuleProduceC2EPNS0_2AiE
megaglest:_ZN5Glest4Game13AiRuleUnBlock4testEv
megaglest:_ZN5Glest4Game13AiRuleUnBlock7executeEv
megaglest:_ZN5Glest4Game13AiRuleUnBlockC1EPNS0_2AiE
megaglest:_ZN5Glest4Game13AiRuleUnBlockC2EPNS0_2AiE
megaglest:_ZN5Glest4Game13AiRuleUpgrade14upgradeGenericEPKNS0_11UpgradeTaskE
megaglest:_ZN5Glest4Game13AiRuleUpgrade15upgradeSpecificEPKNS0_11UpgradeTaskE
megaglest:_ZN5Glest4Game13AiRuleUpgrade4testEv
megaglest:_ZN5Glest4Game13AiRuleUpgrade7executeEv
megaglest:_ZN5Glest4Game13AiRuleUpgradeC1EPNS0_2AiE
megaglest:_ZN5Glest4Game13AiRuleUpgradeC2EPNS0_2AiE
megaglest:_ZN5Glest4Game13AmbientSounds4loadERKNSt7__cxx1112basic_stringIcSt11char_traitsIcESaIcEEEPKN6Shared3Xml7XmlNodeERSt3mapIS7_St6vectorISt4pairIS7_S7_ESaISI_EESt4lessIS7_ESaISH_IS8_SK_EEES7_
megaglest:_ZN5Glest4Game13FactionThread11canShutdownEb
megaglest:_ZN5Glest4Game13FactionThread13setQuitStatusEb
megaglest:_ZN5Glest4Game13FactionThread16setTaskCompletedEi
megaglest:_ZN5Glest4Game13FactionThread16signalPathfinderEi
megaglest:_ZN5Glest4Game13FactionThread27isSignalPathfinderCompletedEi
megaglest:_ZN5Glest4Game13FactionThread7executeEv
megaglest:_ZN5Glest4Game13FactionThreadC1EPNS0_7FactionE
megaglest:_ZN5Glest4Game13FactionThreadC2EPNS0_7FactionE
megaglest:_ZN5Glest4Game13FactionThreadD0Ev
megaglest:_ZN5Glest4Game13FactionThreadD1Ev
megaglest:_ZN5Glest4Game13FactionThreadD2Ev
megaglest:_ZN5Glest4Game13GameConstants14easyMultiplierE
megaglest:_ZN5Glest4Game13GameConstants14megaMultiplierE
megaglest:_ZN5Glest4Game13GameConstants15HUD_SCREEN_FILEE
megaglest:_ZN5Glest4Game13GameConstants15ultraMultiplierE
megaglest:_ZN5Glest4Game13GameConstants16application_nameE
megaglest:_ZN5Glest4Game13GameConstants16folder_path_mapsE
megaglest:_ZN5Glest4Game13GameConstants16normalMultiplierE
megaglest:_ZN5Glest4Game13GameConstants17OBSERVER_SLOTNAMEE
megaglest:_ZN5Glest4Game13GameConstants17folder_path_techsE
megaglest:_ZN5Glest4Game13GameConstants18networkFramePeriodE
megaglest:_ZN5Glest4Game13GameConstants18pathCacheLookupKeyE
megaglest:_ZN5Glest4Game13GameConstants19LOADING_SCREEN_FILEE
megaglest:_ZN5Glest4Game13GameConstants19PREVIEW_SCREEN_FILEE
megaglest:_ZN5Glest4Game13GameConstants19saveGameFileDefaultE
megaglest:_ZN5Glest4Game13GameConstants19saveGameFilePatternE
megaglest:_ZN5Glest4Game13GameConstants20folder_path_tilesetsE
megaglest:_ZN5Glest4Game13GameConstants21folder_path_scenariosE
megaglest:_ZN5Glest4Game13GameConstants21folder_path_tutorialsE
megaglest:_ZN5Glest4Game13GameConstants22HUD_SCREEN_FILE_FILTERE
megaglest:_ZN5Glest4Game13GameConstants22RANDOMFACTION_SLOTNAMEE
megaglest:_ZN5Glest4Game13GameConstants23folder_path_screenshotsE
megaglest:_ZN5Glest4Game13GameConstants23ircClientCacheLookupKeyE
megaglest:_ZN5Glest4Game13GameConstants23path_ini_CacheLookupKeyE
megaglest:_ZN5Glest4Game13GameConstants24path_data_CacheLookupKeyE
megaglest:_ZN5Glest4Game13GameConstants24path_logs_CacheLookupKeyE
megaglest:_ZN5Glest4Game13GameConstants25saveNetworkGameFileClientE
megaglest:_ZN5Glest4Game13GameConstants25saveNetworkGameFileServerE
megaglest:_ZN5Glest4Game13GameConstants26LOADING_SCREEN_FILE_FILTERE
megaglest:_ZN5Glest4Game13GameConstants26PREVIEW_SCREEN_FILE_FILTERE
megaglest:_ZN5Glest4Game13GameConstants27playerTextureCacheLookupKeyE
megaglest:_ZN5Glest4Game13GameConstants27saveGameFileAutoTestDefaultE
megaglest:_ZN5Glest4Game13GameConstants28NETWORK_SLOT_CLOSED_SLOTNAMEE
megaglest:_ZN5Glest4Game13GameConstants28preCacheThreadCacheLookupKeyE
megaglest:_ZN5Glest4Game13GameConstants33NETWORK_SLOT_UNCONNECTED_SLOTNAMEE
megaglest:_ZN5Glest4Game13GameConstants35factionPreviewTextureCacheLookupKeyE
megaglest:_ZN5Glest4Game13GameConstants35saveNetworkGameFileClientCompressedE
megaglest:_ZN5Glest4Game13GameConstants35saveNetworkGameFileServerCompressedE
megaglest:_ZN5Glest4Game13GameConstants45characterMenuScreenPositionListCacheLookupKeyE
megaglest:_ZN5Glest4Game13GameConstants9cameraFpsE
megaglest:_ZN5Glest4Game13GameConstants9updateFpsE
megaglest:_ZN5Glest4Game13GraphicButton4defHE
megaglest:_ZN5Glest4Game13GraphicButton4defWE
megaglest:_ZN5Glest4Game13GraphicButton4initEiiii
megaglest:_ZN5Glest4Game13GraphicButton9mouseMoveEii
megaglest:_ZN5Glest4Game13GraphicButtonC1ENSt7__cxx1112basic_stringIcSt11char_traitsIcESaIcEEES7_b
megaglest:_ZN5Glest4Game13GraphicButtonC2ENSt7__cxx1112basic_stringIcSt11char_traitsIcESaIcEEES7_b
megaglest:_ZN5Glest4Game13MenuStateMods10mouseClickEiiN6Shared8Platform11MouseButtonE
megaglest:_ZN5Glest4Game13MenuStateMods10simpleTaskEPN6Shared14PlatformCommon10BaseThreadEPv
megaglest:_ZN5Glest4Game13MenuStateMods11loadMapInfoENSt7__cxx1112basic_stringIcSt11char_traitsIcESaIcEEE
megaglest:_ZN5Glest4Game13MenuStateMods11refreshMapsEv
megaglest:_ZN5Glest4Game13MenuStateMods12refreshTechsEv
megaglest:_ZN5Glest4Game13MenuStateMods14loadMapPreviewENSt7__cxx1112basic_stringIcSt11char_traitsIcESaIcEEE
megaglest:_ZN5Glest4Game13MenuStateMods14showMessageBoxERKNSt7__cxx1112basic_stringIcSt11char_traitsIcESaIcEEES9_b
megaglest:_ZN5Glest4Game13MenuStateMods15refreshTilesetsEv
megaglest:_ZN5Glest4Game13MenuStateMods16clearUserButtonsEv
megaglest:_ZN5Glest4Game13MenuStateMods16getMapsLocalListEv
megaglest:_ZN5Glest4Game13MenuStateMods16refreshScenariosEv
megaglest:_ZN5Glest4Game13MenuStateMods17getTechsLocalListEv
megaglest:_ZN5Glest4Game13MenuStateMods17refreshMapModInfoENSt7__cxx1112basic_stringIcSt11char_traitsIcESaIcEEE
megaglest:_ZN5Glest4Game13MenuStateMods18refreshTechModInfoENSt7__cxx1112basic_stringIcSt11char_traitsIcESaIcEEE
megaglest:_ZN5Glest4Game13MenuStateMods20getTilesetsLocalListEv
megaglest:_ZN5Glest4Game13MenuStateMods20showLocalDescriptionENSt7__cxx1112basic_stringIcSt11char_traitsIcESaIcEEE
megaglest:_ZN5Glest4Game13MenuStateMods20showRemoteDesriptionEPNS0_7ModInfoE
megaglest:_ZN5Glest4Game13MenuStateMods21cleanupPreviewTextureEv
megaglest:_ZN5Glest4Game13MenuStateMods21getScenariosLocalListEv
megaglest:_ZN5Glest4Game13MenuStateMods21refreshTilesetModInfoENSt7__cxx1112basic_stringIcSt11char_traitsIcESaIcEEE
megaglest:_ZN5Glest4Game13MenuStateMods22refreshScenarioModInfoENSt7__cxx1112basic_stringIcSt11char_traitsIcESaIcEEE
megaglest:_ZN5Glest4Game13MenuStateMods23FTPClient_CallbackEventENSt7__cxx1112basic_stringIcSt11char_traitsIcESaIcEEEN6Shared14PlatformCommon23FTP_Client_CallbackTypeESt4pairINS9_21FTP_Client_ResultTypeES7_EPv
megaglest:_ZN5Glest4Game13MenuStateMods24cleanupMapPreviewTextureEv
megaglest:_ZN5Glest4Game13MenuStateMods25getPreviewImageFileForModB5cxx11EPKNS0_7ModInfoE
megaglest:_ZN5Glest4Game13MenuStateMods5keyUpE17SDL_KeyboardEvent
megaglest:_ZN5Glest4Game13MenuStateMods6renderEv
megaglest:_ZN5Glest4Game13MenuStateMods6updateEv
megaglest:_ZN5Glest4Game13MenuStateMods7cleanUpEv
megaglest:_ZN5Glest4Game13MenuStateMods7keyDownE17SDL_KeyboardEvent
megaglest:_ZN5Glest4Game13MenuStateMods7mouseUpEiiN6Shared8Platform11MouseButtonE
megaglest:_ZN5Glest4Game13MenuStateMods8keyPressE17SDL_KeyboardEvent
megaglest:_ZN5Glest4Game13MenuStateMods8reloadUIEv
megaglest:_ZN5Glest4Game13MenuStateMods9getMapCRCENSt7__cxx1112basic_stringIcSt11char_traitsIcESaIcEEE
megaglest:_ZN5Glest4Game13MenuStateMods9mouseMoveEiiPKN6Shared8Platform10MouseStateE
megaglest:_ZN5Glest4Game13MenuStateModsC1EPNS0_7ProgramEPNS0_8MainMenuE
megaglest:_ZN5Glest4Game13MenuStateModsC2EPNS0_7ProgramEPNS0_8MainMenuE
megaglest:_ZN5Glest4Game13MenuStateModsD0Ev
megaglest:_ZN5Glest4Game13MenuStateModsD1Ev
megaglest:_ZN5Glest4Game13MenuStateModsD2Ev
megaglest:_ZN5Glest4Game13MenuStateRoot10mouseClickEiiN6Shared8Platform11MouseButtonE
megaglest:_ZN5Glest4Game13MenuStateRoot10simpleTaskEPN6Shared14PlatformCommon10BaseThreadEPv
megaglest:_ZN5Glest4Game13MenuStateRoot14showMessageBoxERKNSt7__cxx1112basic_stringIcSt11char_traitsIcESaIcEEES9_b
megaglest:_ZN5Glest4Game13MenuStateRoot17gameUpdateCheckedE
megaglest:_ZN5Glest4Game13MenuStateRoot17showFTPMessageBoxERKNSt7__cxx1112basic_stringIcSt11char_traitsIcESaIcEEES9_bb
megaglest:_ZN5Glest4Game13MenuStateRoot19showErrorMessageBoxERKNSt7__cxx1112basic_stringIcSt11char_traitsIcESaIcEEES9_b
megaglest:_ZN5Glest4Game13MenuStateRoot23FTPClient_CallbackEventENSt7__cxx1112basic_stringIcSt11char_traitsIcESaIcEEEN6Shared14PlatformCommon23FTP_Client_CallbackTypeESt4pairINS9_21FTP_Client_ResultTypeES7_EPv
megaglest:_ZN5Glest4Game13MenuStateRoot24startFTPClientIfRequiredEv
megaglest:_ZN5Glest4Game13MenuStateRoot6renderEv
megaglest:_ZN5Glest4Game13MenuStateRoot6updateEv
megaglest:_ZN5Glest4Game13MenuStateRoot7keyDownE17SDL_KeyboardEvent
megaglest:_ZN5Glest4Game13MenuStateRoot8reloadUIEv
megaglest:_ZN5Glest4Game13MenuStateRoot9mouseMoveEiiPKN6Shared8Platform10MouseStateE
megaglest:_ZN5Glest4Game13MenuStateRootC1EPNS0_7ProgramEPNS0_8MainMenuE
megaglest:_ZN5Glest4Game13MenuStateRootC2EPNS0_7ProgramEPNS0_8MainMenuE
megaglest:_ZN5Glest4Game13MenuStateRootD0Ev
megaglest:_ZN5Glest4Game13MenuStateRootD1Ev
megaglest:_ZN5Glest4Game13MenuStateRootD2Ev
megaglest:_ZN5Glest4Game13MoveSkillTypeC1Ev
megaglest:_ZN5Glest4Game13MoveSkillTypeC2Ev
megaglest:_ZN5Glest4Game13ScriptManager10createUnitEP9lua_State
megaglest:_ZN5Glest4Game13ScriptManager10createUnitERKNSt7__cxx1112basic_stringIcSt11char_traitsIcESaIcEEEiN6Shared8Graphics4Vec2IiEE
megaglest:_ZN5Glest4Game13ScriptManager10getGameWonEP9lua_State
megaglest:_ZN5Glest4Game13ScriptManager10moveToUnitEP9lua_State
megaglest:_ZN5Glest4Game13ScriptManager10moveToUnitEii
megaglest:_ZN5Glest4Game13ScriptManager10onGameOverEb
megaglest:_ZN5Glest4Game13ScriptManager10onUnitDiedEPKNS0_4UnitE
megaglest:_ZN5Glest4Game13ScriptManager10selectUnitEP9lua_State
megaglest:_ZN5Glest4Game13ScriptManager10selectUnitEi
megaglest:_ZN5Glest4Game13ScriptManager10showMarkerEN6Shared8Graphics4Vec2IiEEiRKNSt7__cxx1112basic_stringIcSt11char_traitsIcESaIcEEESD_i
megaglest:_ZN5Glest4Game13ScriptManager10showMarkerEP9lua_State
megaglest:_ZN5Glest4Game13ScriptManager10wrapStringERKNSt7__cxx1112basic_stringIcSt11char_traitsIcESaIcEEEi
megaglest:_ZN5Glest4Game13ScriptManager11destroyUnitEP9lua_State
megaglest:_ZN5Glest4Game13ScriptManager11destroyUnitEi
megaglest:_ZN5Glest4Game13ScriptManager11getUnitNameB5cxx11Ei
megaglest:_ZN5Glest4Game13ScriptManager11getUnitNameEP9lua_State
megaglest:_ZN5Glest4Game13ScriptManager11isFreeCellsEP9lua_State
megaglest:_ZN5Glest4Game13ScriptManager11isFreeCellsEiiN6Shared8Graphics4Vec2IiEE
megaglest:_ZN5Glest4Game13ScriptManager11morphToUnitEP9lua_State
megaglest:_ZN5Glest4Game13ScriptManager11morphToUnitEiRKNSt7__cxx1112basic_stringIcSt11char_traitsIcESaIcEEEi
megaglest:_ZN5Glest4Game13ScriptManager11scenarioDirEP9lua_State
megaglest:_ZN5Glest4Game13ScriptManager11shakeCameraEP9lua_State
megaglest:_ZN5Glest4Game13ScriptManager11shakeCameraEiibi
megaglest:_ZN5Glest4Game13ScriptManager11showMessageEP9lua_State
megaglest:_ZN5Glest4Game13ScriptManager11showMessageERKNSt7__cxx1112basic_stringIcSt11char_traitsIcESaIcEEES9_
megaglest:_ZN5Glest4Game13ScriptManager12getAiEnabledEP9lua_State
megaglest:_ZN5Glest4Game13ScriptManager12getAiEnabledEi
megaglest:_ZN5Glest4Game13ScriptManager12getIsDayTimeEP9lua_State
megaglest:_ZN5Glest4Game13ScriptManager12getIsDayTimeEv
megaglest:_ZN5Glest4Game13ScriptManager12getRandomGenEP9lua_State
megaglest:_ZN5Glest4Game13ScriptManager12getRandomGenEii
megaglest:_ZN5Glest4Game13ScriptManager12getTimeOfDayEP9lua_State
megaglest:_ZN5Glest4Game13ScriptManager12getTimeOfDayEv
megaglest:_ZN5Glest4Game13ScriptManager12getUnitCountEP9lua_State
megaglest:_ZN5Glest4Game13ScriptManager12getUnitCountEi
megaglest:_ZN5Glest4Game13ScriptManager12giveResourceEP9lua_State
megaglest:_ZN5Glest4Game13ScriptManager12giveResourceERKNSt7__cxx1112basic_stringIcSt11char_traitsIcESaIcEEEii
megaglest:_ZN5Glest4Game13ScriptManager12loadScenarioEP9lua_State
megaglest:_ZN5Glest4Game13ScriptManager12loadScenarioERKNSt7__cxx1112basic_stringIcSt11char_traitsIcESaIcEEEb
megaglest:_ZN5Glest4Game13ScriptManager12stopAllSoundEP9lua_State
megaglest:_ZN5Glest4Game13ScriptManager12stopAllSoundEv
megaglest:_ZN5Glest4Game13ScriptManager12stopAllVideoEP9lua_State
megaglest:_ZN5Glest4Game13ScriptManager12stopAllVideoEv
megaglest:_ZN5Glest4Game13ScriptManager12unselectUnitEP9lua_State
megaglest:_ZN5Glest4Game13ScriptManager12unselectUnitEi
megaglest:_ZN5Glest4Game13ScriptManager13addCellMarkerEN6Shared8Graphics4Vec2IiEEiRKNSt7__cxx1112basic_stringIcSt11char_traitsIcESaIcEEESD_
megaglest:_ZN5Glest4Game13ScriptManager13addCellMarkerEP9lua_State
megaglest:_ZN5Glest4Game13ScriptManager13enableConsumeEP9lua_State
megaglest:_ZN5Glest4Game13ScriptManager13enableConsumeEi
megaglest:_ZN5Glest4Game13ScriptManager13getIsGameOverEP9lua_State
megaglest:_ZN5Glest4Game13ScriptManager13getPlayerNameB5cxx11Ei
megaglest:_ZN5Glest4Game13ScriptManager13getPlayerNameEP9lua_State
megaglest:_ZN5Glest4Game13ScriptManager13highlightUnitEP9lua_State
megaglest:_ZN5Glest4Game13ScriptManager13highlightUnitEiffN6Shared8Graphics4Vec4IfEE
megaglest:_ZN5Glest4Game13ScriptManager13onUnitCreatedEPKNS0_4UnitE
megaglest:_ZN5Glest4Game13ScriptManager14addConsoleTextEP9lua_State
megaglest:_ZN5Glest4Game13ScriptManager14addConsoleTextERKNSt7__cxx1112basic_stringIcSt11char_traitsIcESaIcEEE
megaglest:_ZN5Glest4Game13ScriptManager14disableConsumeEP9lua_State
megaglest:_ZN5Glest4Game13ScriptManager14disableConsumeEi
megaglest:_ZN5Glest4Game13ScriptManager14getIsNightTimeEP9lua_State
megaglest:_ZN5Glest4Game13ScriptManager14getIsNightTimeEv
megaglest:_ZN5Glest4Game13ScriptManager14getIsUnitAliveEP9lua_State
megaglest:_ZN5Glest4Game13ScriptManager14getIsUnitAliveEi
megaglest:_ZN5Glest4Game13ScriptManager14getUnitFactionEP9lua_State
megaglest:_ZN5Glest4Game13ScriptManager14getUnitFactionEi
megaglest:_ZN5Glest4Game13ScriptManager14onMessageBoxOkEb
megaglest:_ZN5Glest4Game13ScriptManager14onUnitAttackedEPKNS0_4UnitE
megaglest:_ZN5Glest4Game13ScriptManager14setDisplayTextEP9lua_State
megaglest:_ZN5Glest4Game13ScriptManager14setDisplayTextERKNSt7__cxx1112basic_stringIcSt11char_traitsIcESaIcEEE
megaglest:_ZN5Glest4Game13ScriptManager14stopTimerEventEP9lua_State
megaglest:_ZN5Glest4Game13ScriptManager14stopTimerEventEi
megaglest:_ZN5Glest4Game13ScriptManager15getUnitPositionEP9lua_State
megaglest:_ZN5Glest4Game13ScriptManager15getUnitPositionEi
megaglest:_ZN5Glest4Game13ScriptManager15getUnitPropertyEP9lua_State
megaglest:_ZN5Glest4Game13ScriptManager15getUnitPropertyEiNS0_20UnitTriggerEventTypeE
megaglest:_ZN5Glest4Game13ScriptManager15giveStopCommandEP9lua_State
megaglest:_ZN5Glest4Game13ScriptManager15giveStopCommandEi
megaglest:_ZN5Glest4Game13ScriptManager15onUnitAttackingEPKNS0_4UnitE
megaglest:_ZN5Glest4Game13ScriptManager15playStaticSoundEP9lua_State
megaglest:_ZN5Glest4Game13ScriptManager15playStaticSoundERKNSt7__cxx1112basic_stringIcSt11char_traitsIcESaIcEEE
megaglest:_ZN5Glest4Game13ScriptManager15playStaticVideoEP9lua_State
megaglest:_ZN5Glest4Game13ScriptManager15playStaticVideoERKNSt7__cxx1112basic_stringIcSt11char_traitsIcESaIcEEE
megaglest:_ZN5Glest4Game13ScriptManager15resetTimerEventEP9lua_State
megaglest:_ZN5Glest4Game13ScriptManager15resetTimerEventEi
megaglest:_ZN5Glest4Game13ScriptManager15setUnitPositionEP9lua_State
megaglest:_ZN5Glest4Game13ScriptManager15setUnitPositionEiN6Shared8Graphics4Vec2IiEE
megaglest:_ZN5Glest4Game13ScriptManager15startTimerEventEP9lua_State
megaglest:_ZN5Glest4Game13ScriptManager15startTimerEventEv
megaglest:_ZN5Glest4Game13ScriptManager15togglePauseGameEP9lua_State
megaglest:_ZN5Glest4Game13ScriptManager15togglePauseGameEi
megaglest:_ZN5Glest4Game13ScriptManager15unhighlightUnitEP9lua_State
megaglest:_ZN5Glest4Game13ScriptManager15unhighlightUnitEi
megaglest:_ZN5Glest4Game13ScriptManager16clearDisplayTextEP9lua_State
megaglest:_ZN5Glest4Game13ScriptManager16clearDisplayTextEv
megaglest:_ZN5Glest4Game13ScriptManager16getStartLocationEP9lua_State
megaglest:_ZN5Glest4Game13ScriptManager16getStartLocationEi
megaglest:_ZN5Glest4Game13ScriptManager16loadSaveGameDataENSt7__cxx1112basic_stringIcSt11char_traitsIcESaIcEEE
megaglest:_ZN5Glest4Game13ScriptManager16loadSaveGameDataEP9lua_State
megaglest:_ZN5Glest4Game13ScriptManager16messageWrapCountE
megaglest:_ZN5Glest4Game13ScriptManager16removeCellMarkerEN6Shared8Graphics4Vec2IiEEi
megaglest:_ZN5Glest4Game13ScriptManager16removeCellMarkerEP9lua_State
megaglest:_ZN5Glest4Game13ScriptManager16setRandomGenInitEP9lua_State
megaglest:_ZN5Glest4Game13ScriptManager16setRandomGenInitEi
megaglest:_ZN5Glest4Game13ScriptManager17addMessageToQueueENS0_20ScriptManagerMessageE
megaglest:_ZN5Glest4Game13ScriptManager17enableSpeedChangeEP9lua_State
megaglest:_ZN5Glest4Game13ScriptManager17enableSpeedChangeEv
megaglest:_ZN5Glest4Game13ScriptManager17getConsumeEnabledEP9lua_State
megaglest:_ZN5Glest4Game13ScriptManager17getConsumeEnabledEi
megaglest:_ZN5Glest4Game13ScriptManager17getHumanFactionIdEP9lua_State
megaglest:_ZN5Glest4Game13ScriptManager17getHumanFactionIdEv
megaglest:_ZN5Glest4Game13ScriptManager17getLastDeadUnitIdEP9lua_State
megaglest:_ZN5Glest4Game13ScriptManager17getLastDeadUnitIdEv
megaglest:_ZN5Glest4Game13ScriptManager17getResourceAmountEP9lua_State
megaglest:_ZN5Glest4Game13ScriptManager17getResourceAmountERKNSt7__cxx1112basic_stringIcSt11char_traitsIcESaIcEEEi
megaglest:_ZN5Glest4Game13ScriptManager17giveAttackCommandEP9lua_State
megaglest:_ZN5Glest4Game13ScriptManager17giveAttackCommandEii
megaglest:_ZN5Glest4Game13ScriptManager17setCameraPositionEP9lua_State
megaglest:_ZN5Glest4Game13ScriptManager17setCameraPositionERKN6Shared8Graphics4Vec2IiEE
megaglest:_ZN5Glest4Game13ScriptManager17setPlayerAsWinnerEP9lua_State
megaglest:_ZN5Glest4Game13ScriptManager17setPlayerAsWinnerEi
megaglest:_ZN5Glest4Game13ScriptManager17shakeCameraOnUnitEP9lua_State
megaglest:_ZN5Glest4Game13ScriptManager17storeSaveGameDataENSt7__cxx1112basic_stringIcSt11char_traitsIcESaIcEEES7_
megaglest:_ZN5Glest4Game13ScriptManager17storeSaveGameDataEP9lua_State
megaglest:_ZN5Glest4Game13ScriptManager17thisScriptManagerE
megaglest:_ZN5Glest4Game13ScriptManager18addConsoleLangTextEP9lua_State
megaglest:_ZN5Glest4Game13ScriptManager18addConsoleLangTextEPKcz
megaglest:_ZN5Glest4Game13ScriptManager18disableSpeedChangeEP9lua_State
megaglest:_ZN5Glest4Game13ScriptManager18disableSpeedChangeEv
megaglest:_ZN5Glest4Game13ScriptManager18getUnitCountOfTypeEP9lua_State
megaglest:_ZN5Glest4Game13ScriptManager18getUnitCountOfTypeEiRKNSt7__cxx1112basic_stringIcSt11char_traitsIcESaIcEEE
megaglest:_ZN5Glest4Game13ScriptManager18getUnitDisplayNameB5cxx11Ei
megaglest:_ZN5Glest4Game13ScriptManager18getUnitDisplayNameEP9lua_State
megaglest:_ZN5Glest4Game13ScriptManager18getUnitsForFactionEP9lua_State
megaglest:_ZN5Glest4Game13ScriptManager18getUnitsForFactionEiRKNSt7__cxx1112basic_stringIcSt11char_traitsIcESaIcEEEi
megaglest:_ZN5Glest4Game13ScriptManager18getWorldFrameCountEP9lua_State
megaglest:_ZN5Glest4Game13ScriptManager18getWorldFrameCountEv
megaglest:_ZN5Glest4Game13ScriptManager18giveUpgradeCommandEP9lua_State
megaglest:_ZN5Glest4Game13ScriptManager18giveUpgradeCommandEiRKNSt7__cxx1112basic_stringIcSt11char_traitsIcESaIcEEE
megaglest:_ZN5Glest4Game13ScriptManager18onCellTriggerEventEPNS0_4UnitE
megaglest:_ZN5Glest4Game13ScriptManager18onUnitTriggerEventEPKNS0_4UnitENS0_20UnitTriggerEventTypeE
megaglest:_ZN5Glest4Game13ScriptManager18playStreamingSoundEP9lua_State
megaglest:_ZN5Glest4Game13ScriptManager18playStreamingSoundERKNSt7__cxx1112basic_stringIcSt11char_traitsIcESaIcEEE
megaglest:_ZN5Glest4Game13ScriptManager18playStreamingVideoEP9lua_State
megaglest:_ZN5Glest4Game13ScriptManager18playStreamingVideoERKNSt7__cxx1112basic_stringIcSt11char_traitsIcESaIcEEE
megaglest:_ZN5Glest4Game13ScriptManager18stopStreamingSoundEP9lua_State
megaglest:_ZN5Glest4Game13ScriptManager18stopStreamingSoundERKNSt7__cxx1112basic_stringIcSt11char_traitsIcESaIcEEE
megaglest:_ZN5Glest4Game13ScriptManager18stopStreamingVideoEP9lua_State
megaglest:_ZN5Glest4Game13ScriptManager18stopStreamingVideoERKNSt7__cxx1112basic_stringIcSt11char_traitsIcESaIcEEE
megaglest:_ZN5Glest4Game13ScriptManager19createUnitNoSpacingEP9lua_State
megaglest:_ZN5Glest4Game13ScriptManager19createUnitNoSpacingERKNSt7__cxx1112basic_stringIcSt11char_traitsIcESaIcEEEiN6Shared8Graphics4Vec2IiEE
megaglest:_ZN5Glest4Game13ScriptManager19endPerformanceTimerEP9lua_State
megaglest:_ZN5Glest4Game13ScriptManager19endPerformanceTimerEv
megaglest:_ZN5Glest4Game13ScriptManager19getLastDeadUnitNameB5cxx11Ev
megaglest:_ZN5Glest4Game13ScriptManager19getLastDeadUnitNameEP9lua_State
megaglest:_ZN5Glest4Game13ScriptManager19getSystemMacroValueEP9lua_State
megaglest:_ZN5Glest4Game13ScriptManager19getSystemMacroValueERKNSt7__cxx1112basic_stringIcSt11char_traitsIcESaIcEEE
megaglest:_ZN5Glest4Game13ScriptManager19getUnitCurrentFieldEP9lua_State
megaglest:_ZN5Glest4Game13ScriptManager19getUnitCurrentFieldEi
megaglest:_ZN5Glest4Game13ScriptManager19getUnitPropertyNameB5cxx11EiNS0_20UnitTriggerEventTypeE
megaglest:_ZN5Glest4Game13ScriptManager19getUnitPropertyNameEP9lua_State
megaglest:_ZN5Glest4Game13ScriptManager19givePositionCommandEP9lua_State
megaglest:_ZN5Glest4Game13ScriptManager19givePositionCommandEiRKNSt7__cxx1112basic_stringIcSt11char_traitsIcESaIcEEERKN6Shared8Graphics4Vec2IiEE
megaglest:_ZN5Glest4Game13ScriptManager19onResourceHarvestedEv
megaglest:_ZN5Glest4Game13ScriptManager19onTimerTriggerEventEv
megaglest:_ZN5Glest4Game13ScriptManager20DisplayFormattedTextEP9lua_State
megaglest:_ZN5Glest4Game13ScriptManager20DisplayFormattedTextEPKcz
megaglest:_ZN5Glest4Game13ScriptManager20displayTextWrapCountE
megaglest:_ZN5Glest4Game13ScriptManager20getFactionPlayerTypeEP9lua_State
megaglest:_ZN5Glest4Game13ScriptManager20getFactionPlayerTypeEi
megaglest:_ZN5Glest4Game13ScriptManager20getLastCreatedUnitIdEP9lua_State
megaglest:_ZN5Glest4Game13ScriptManager20getLastCreatedUnitIdEv
megaglest:_ZN5Glest4Game13ScriptManager20isFreeCellsOrHasUnitEP9lua_State
megaglest:_ZN5Glest4Game13ScriptManager20isFreeCellsOrHasUnitEiiN6Shared8Graphics4Vec2IiEE
megaglest:_ZN5Glest4Game13ScriptManager20recallGroupSelectionEP9lua_State
megaglest:_ZN5Glest4Game13ScriptManager20recallGroupSelectionEi
megaglest:_ZN5Glest4Game13ScriptManager21getLastAttackedUnitIdEP9lua_State
megaglest:_ZN5Glest4Game13ScriptManager21getLastAttackedUnitIdEv
megaglest:_ZN5Glest4Game13ScriptManager21getSpeedChangeEnabledEP9lua_State
megaglest:_ZN5Glest4Game13ScriptManager21getSpeedChangeEnabledEv
megaglest:_ZN5Glest4Game13ScriptManager21giveProductionCommandEP9lua_State
megaglest:_ZN5Glest4Game13ScriptManager21giveProductionCommandEiRKNSt7__cxx1112basic_stringIcSt11char_traitsIcESaIcEEE
megaglest:_ZN5Glest4Game13ScriptManager21registerDayNightEventEP9lua_State
megaglest:_ZN5Glest4Game13ScriptManager21registerDayNightEventEv
megaglest:_ZN5Glest4Game13ScriptManager21startPerformanceTimerEP9lua_State
megaglest:_ZN5Glest4Game13ScriptManager21startPerformanceTimerEv
megaglest:_ZN5Glest4Game13ScriptManager22getLastAttackingUnitIdEP9lua_State
megaglest:_ZN5Glest4Game13ScriptManager22getLastAttackingUnitIdEv
megaglest:_ZN5Glest4Game13ScriptManager22getLastCreatedUnitNameB5cxx11Ev
megaglest:_ZN5Glest4Game13ScriptManager22getLastCreatedUnitNameEP9lua_State
megaglest:_ZN5Glest4Game13ScriptManager22onDayNightTriggerEventEv
megaglest:_ZN5Glest4Game13ScriptManager23addUnitToGroupSelectionEP9lua_State
megaglest:_ZN5Glest4Game13ScriptManager23addUnitToGroupSelectionEii
megaglest:_ZN5Glest4Game13ScriptManager23getCellTriggeredEventIdEP9lua_State
megaglest:_ZN5Glest4Game13ScriptManager23getCellTriggeredEventIdEv
megaglest:_ZN5Glest4Game13ScriptManager23getLastAttackedUnitNameB5cxx11Ev
megaglest:_ZN5Glest4Game13ScriptManager23getLastAttackedUnitNameEP9lua_State
megaglest:_ZN5Glest4Game13ScriptManager23getLastDeadUnitKillerIdEP9lua_State
megaglest:_ZN5Glest4Game13ScriptManager23getLastDeadUnitKillerIdEv
megaglest:_ZN5Glest4Game13ScriptManager23setLockedUnitForFactionEP9lua_State
megaglest:_ZN5Glest4Game13ScriptManager23setLockedUnitForFactionERKNSt7__cxx1112basic_stringIcSt11char_traitsIcESaIcEEEib
megaglest:_ZN5Glest4Game13ScriptManager23unregisterDayNightEventEP9lua_State
megaglest:_ZN5Glest4Game13ScriptManager23unregisterDayNightEventEv
megaglest:_ZN5Glest4Game13ScriptManager24DisplayFormattedLangTextEP9lua_State
megaglest:_ZN5Glest4Game13ScriptManager24DisplayFormattedLangTextEPKcz
megaglest:_ZN5Glest4Game13ScriptManager24getAttackWarningsEnabledEP9lua_State
megaglest:_ZN5Glest4Game13ScriptManager24getAttackWarningsEnabledEv
megaglest:_ZN5Glest4Game13ScriptManager24getCellTriggerEventCountEP9lua_State
megaglest:_ZN5Glest4Game13ScriptManager24getCellTriggerEventCountEi
megaglest:_ZN5Glest4Game13ScriptManager24getLastAttackingUnitNameB5cxx11Ev
megaglest:_ZN5Glest4Game13ScriptManager24getLastAttackingUnitNameEP9lua_State
megaglest:_ZN5Glest4Game13ScriptManager24getTimerTriggeredEventIdEP9lua_State
megaglest:_ZN5Glest4Game13ScriptManager24getTimerTriggeredEventIdEv
megaglest:_ZN5Glest4Game13ScriptManager24giveAttackStoppedCommandEP9lua_State
megaglest:_ZN5Glest4Game13ScriptManager24giveAttackStoppedCommandEiRKNSt7__cxx1112basic_stringIcSt11char_traitsIcESaIcEEEi
megaglest:_ZN5Glest4Game13ScriptManager24registerUnitTriggerEventEP9lua_State
megaglest:_ZN5Glest4Game13ScriptManager24registerUnitTriggerEventEi
megaglest:_ZN5Glest4Game13ScriptManager24setAttackWarningsEnabledEP9lua_State
megaglest:_ZN5Glest4Game13ScriptManager24setAttackWarningsEnabledEb
megaglest:_ZN5Glest4Game13ScriptManager24startEfficientTimerEventEP9lua_State
megaglest:_ZN5Glest4Game13ScriptManager24startEfficientTimerEventEi
megaglest:_ZN5Glest4Game13ScriptManager25getLastDeadUnitKillerNameB5cxx11Ev
megaglest:_ZN5Glest4Game13ScriptManager25getLastDeadUnitKillerNameEP9lua_State
megaglest:_ZN5Glest4Game13ScriptManager25networkShowMessageForTeamEP9lua_State
megaglest:_ZN5Glest4Game13ScriptManager25networkShowMessageForTeamERKNSt7__cxx1112basic_stringIcSt11char_traitsIcESaIcEEES9_i
megaglest:_ZN5Glest4Game13ScriptManager26getPerformanceTimerResultsEP9lua_State
megaglest:_ZN5Glest4Game13ScriptManager26getPerformanceTimerResultsEv
megaglest:_ZN5Glest4Game13ScriptManager26unregisterCellTriggerEventEP9lua_State
megaglest:_ZN5Glest4Game13ScriptManager26unregisterCellTriggerEventEi
megaglest:_ZN5Glest4Game13ScriptManager26unregisterUnitTriggerEventEP9lua_State
megaglest:_ZN5Glest4Game13ScriptManager26unregisterUnitTriggerEventEi
megaglest:_ZN5Glest4Game13ScriptManager27getCellTriggeredEventUnitIdEP9lua_State
megaglest:_ZN5Glest4Game13ScriptManager27getCellTriggeredEventUnitIdEv
megaglest:_ZN5Glest4Game13ScriptManager27getLastDeadUnitCauseOfDeathEP9lua_State
megaglest:_ZN5Glest4Game13ScriptManager27getLastDeadUnitCauseOfDeathEv
megaglest:_ZN5Glest4Game13ScriptManager27getLastUnitTriggerEventTypeEP9lua_State
megaglest:_ZN5Glest4Game13ScriptManager27getLastUnitTriggerEventTypeEv
megaglest:_ZN5Glest4Game13ScriptManager27getTimerEventSecondsElapsedEP9lua_State
megaglest:_ZN5Glest4Game13ScriptManager27getTimerEventSecondsElapsedEi
megaglest:_ZN5Glest4Game13ScriptManager28networkShowMessageForFactionEP9lua_State
megaglest:_ZN5Glest4Game13ScriptManager28networkShowMessageForFactionERKNSt7__cxx1112basic_stringIcSt11char_traitsIcESaIcEEES9_i
megaglest:_ZN5Glest4Game13ScriptManager28registerCellAreaTriggerEventEP9lua_State
megaglest:_ZN5Glest4Game13ScriptManager28registerCellAreaTriggerEventERKN6Shared8Graphics4Vec4IiEE
megaglest:_ZN5Glest4Game13ScriptManager28removeUnitFromGroupSelectionEP9lua_State
megaglest:_ZN5Glest4Game13ScriptManager28removeUnitFromGroupSelectionEii
megaglest:_ZN5Glest4Game13ScriptManager29getLastUnitTriggerEventUnitIdEP9lua_State
megaglest:_ZN5Glest4Game13ScriptManager29getLastUnitTriggerEventUnitIdEv
megaglest:_ZN5Glest4Game13ScriptManager31networkSetCameraPositionForTeamEP9lua_State
megaglest:_ZN5Glest4Game13ScriptManager31networkSetCameraPositionForTeamEiRKN6Shared8Graphics4Vec2IiEE
megaglest:_ZN5Glest4Game13ScriptManager34networkSetCameraPositionForFactionEP9lua_State
megaglest:_ZN5Glest4Game13ScriptManager34networkSetCameraPositionForFactionEiRKN6Shared8Graphics4Vec2IiEE
megaglest:_ZN5Glest4Game13ScriptManager35getCellTriggeredEventAreaExitUnitIdEP9lua_State
megaglest:_ZN5Glest4Game13ScriptManager35getCellTriggeredEventAreaExitUnitIdEv
megaglest:_ZN5Glest4Game13ScriptManager36getCellTriggeredEventAreaEntryUnitIdEP9lua_State
megaglest:_ZN5Glest4Game13ScriptManager36getCellTriggeredEventAreaEntryUnitIdEv
megaglest:_ZN5Glest4Game13ScriptManager37registerCellTriggerEventForUnitToUnitEP9lua_State
megaglest:_ZN5Glest4Game13ScriptManager37registerCellTriggerEventForUnitToUnitEii
megaglest:_ZN5Glest4Game13ScriptManager40registerCellTriggerEventForFactionToUnitEP9lua_State
megaglest:_ZN5Glest4Game13ScriptManager40registerCellTriggerEventForFactionToUnitEii
megaglest:_ZN5Glest4Game13ScriptManager41registerCellTriggerEventForUnitToLocationEP9lua_State
megaglest:_ZN5Glest4Game13ScriptManager41registerCellTriggerEventForUnitToLocationEiRKN6Shared8Graphics4Vec2IiEE
megaglest:_ZN5Glest4Game13ScriptManager44registerCellTriggerEventForFactionToLocationEP9lua_State
megaglest:_ZN5Glest4Game13ScriptManager44registerCellTriggerEventForFactionToLocationEiRKN6Shared8Graphics4Vec2IiEE
megaglest:_ZN5Glest4Game13ScriptManager45registerCellAreaTriggerEventForUnitToLocationEP9lua_State
megaglest:_ZN5Glest4Game13ScriptManager45registerCellAreaTriggerEventForUnitToLocationEiRKN6Shared8Graphics4Vec4IiEE
megaglest:_ZN5Glest4Game13ScriptManager48registerCellAreaTriggerEventForFactionToLocationEP9lua_State
megaglest:_ZN5Glest4Game13ScriptManager48registerCellAreaTriggerEventForFactionToLocationEiRKN6Shared8Graphics4Vec4IiEE
megaglest:_ZN5Glest4Game13ScriptManager4initEPNS0_5WorldEPNS0_10GameCameraEPKN6Shared3Xml7XmlNodeE
megaglest:_ZN5Glest4Game13ScriptManager5errorEP9lua_StatePKN6Shared8Platform23megaglest_runtime_errorEPKcSA_i
megaglest:_ZN5Glest4Game13ScriptManager7endGameEP9lua_State
megaglest:_ZN5Glest4Game13ScriptManager7endGameEv
megaglest:_ZN5Glest4Game13ScriptManager8enableAiEP9lua_State
megaglest:_ZN5Glest4Game13ScriptManager8enableAiEi
megaglest:_ZN5Glest4Game13ScriptManager8loadGameEPKN6Shared3Xml7XmlNodeE
megaglest:_ZN5Glest4Game13ScriptManager8saveGameEPN6Shared3Xml7XmlNodeE
megaglest:_ZN5Glest4Game13ScriptManager9disableAiEP9lua_State
megaglest:_ZN5Glest4Game13ScriptManager9disableAiEi
megaglest:_ZN5Glest4Game13ScriptManager9giveKillsEP9lua_State
megaglest:_ZN5Glest4Game13ScriptManager9giveKillsEii
megaglest:_ZN5Glest4Game13ScriptManagerC1Ev
megaglest:_ZN5Glest4Game13ScriptManagerC2Ev
megaglest:_ZN5Glest4Game13ScriptManagerD1Ev
megaglest:_ZN5Glest4Game13ScriptManagerD2Ev
megaglest:_ZN5Glest4Game13SelectionQuad10setPosDownERKN6Shared8Graphics4Vec2IiEE
megaglest:_ZN5Glest4Game13SelectionQuad7disableEv
megaglest:_ZN5Glest4Game13SelectionQuad8setPosUpERKN6Shared8Graphics4Vec2IiEE
megaglest:_ZN5Glest4Game13SelectionQuadC1Ev
megaglest:_ZN5Glest4Game13SelectionQuadC2Ev
megaglest:_ZN5Glest4Game13SoundRenderer10loadConfigEv
megaglest:_ZN5Glest4Game13SoundRenderer11ambientFadeE
megaglest:_ZN5Glest4Game13SoundRenderer11audibleDistE
megaglest:_ZN5Glest4Game13SoundRenderer11getInstanceEv
megaglest:_ZN5Glest4Game13SoundRenderer11playAmbientEPN6Shared5Sound8StrSoundE
megaglest:_ZN5Glest4Game13SoundRenderer11stopAmbientEPN6Shared5Sound8StrSoundE
megaglest:_ZN5Glest4Game13SoundRenderer13stopAllSoundsEl
megaglest:_ZN5Glest4Game13SoundRenderer14setMusicVolumeEPN6Shared5Sound8StrSoundE
megaglest:_ZN5Glest4Game13SoundRenderer4initEPN6Shared8Platform6WindowE
megaglest:_ZN5Glest4Game13SoundRenderer6playFxEPN6Shared5Sound11StaticSoundENS2_8Graphics4Vec3IfEES8_
megaglest:_ZN5Glest4Game13SoundRenderer6playFxEPN6Shared5Sound11StaticSoundEb
megaglest:_ZN5Glest4Game13SoundRenderer6updateEv
megaglest:_ZN5Glest4Game13SoundRenderer7cleanupEv
megaglest:_ZN5Glest4Game13SoundRenderer9playMusicEPN6Shared5Sound8StrSoundE
megaglest:_ZN5Glest4Game13SoundRenderer9stopMusicEPN6Shared5Sound8StrSoundE
megaglest:_ZN5Glest4Game13SoundRendererC1Ev
megaglest:_ZN5Glest4Game13SoundRendererC2Ev
megaglest:_ZN5Glest4Game13SoundRendererD0Ev
megaglest:_ZN5Glest4Game13SoundRendererD1Ev
megaglest:_ZN5Glest4Game13SoundRendererD2Ev
megaglest:_ZN5Glest4Game13StopSkillTypeC1Ev
megaglest:_ZN5Glest4Game13StopSkillTypeC2Ev
megaglest:_ZN5Glest4Game13UnitPathBasic11clearCachesEv
megaglest:_ZN5Glest4Game13UnitPathBasic13incBlockCountEv
megaglest:_ZN5Glest4Game13UnitPathBasic13maxBlockCountE
megaglest:_ZN5Glest4Game13UnitPathBasic3addERKN6Shared8Graphics4Vec2IiEE
megaglest:_ZN5Glest4Game13UnitPathBasic3popEb
megaglest:_ZN5Glest4Game13UnitPathBasic5clearEv
megaglest:_ZN5Glest4Game13UnitPathBasic6getCRCEv
megaglest:_ZN5Glest4Game13UnitPathBasic8loadGameEPKN6Shared3Xml7XmlNodeE
megaglest:_ZN5Glest4Game13UnitPathBasic8saveGameEPN6Shared3Xml7XmlNodeE
megaglest:_ZN5Glest4Game13UnitPathBasicC1Ev
megaglest:_ZN5Glest4Game13UnitPathBasicC2Ev
megaglest:_ZN5Glest4Game13UnitPathBasicD0Ev
megaglest:_ZN5Glest4Game13UnitPathBasicD1Ev
megaglest:_ZN5Glest4Game13UnitPathBasicD2Ev
megaglest:_ZN5Glest4Game13UnitReference8loadGameEPKN6Shared3Xml7XmlNodeEPNS0_5WorldE
megaglest:_ZN5Glest4Game13UnitReference8saveGameEPN6Shared3Xml7XmlNodeE
megaglest:_ZN5Glest4Game13UnitReferenceC1Ev
megaglest:_ZN5Glest4Game13UnitReferenceC2Ev
megaglest:_ZN5Glest4Game13UnitReferenceaSEPKNS0_4UnitE
megaglest:_ZN5Glest4Game13handleSIGSEGVEi
megaglest:_ZN5Glest4Game14AiRuleAddTasks4testEv
megaglest:_ZN5Glest4Game14AiRuleAddTasks7executeEv
megaglest:_ZN5Glest4Game14AiRuleAddTasksC1EPNS0_2AiE
megaglest:_ZN5Glest4Game14AiRuleAddTasksC2EPNS0_2AiE
megaglest:_ZN5Glest4Game14BuildSkillTypeC1Ev
megaglest:_ZN5Glest4Game14BuildSkillTypeC2Ev
megaglest:_ZN5Glest4Game14ConnectionSlot10updateSlotEPNS0_19ConnectionSlotEventE
megaglest:_ZN5Glest4Game14ConnectionSlot11getSocketIdEv
megaglest:_ZN5Glest4Game14ConnectionSlot11isConnectedEv
megaglest:_ZN5Glest4Game14ConnectionSlot11sendMessageEPNS0_14NetworkMessageE
megaglest:_ZN5Glest4Game14ConnectionSlot12deleteSocketEv
megaglest:_ZN5Glest4Game14ConnectionSlot12getIpAddressB5cxx11Eb
megaglest:_ZN5Glest4Game14ConnectionSlot12signalUpdateEPNS0_19ConnectionSlotEventE
megaglest:_ZN5Glest4Game14ConnectionSlot13getSocketInfoEv
megaglest:_ZN5Glest4Game14ConnectionSlot13hasDataToReadEv
megaglest:_ZN5Glest4Game14ConnectionSlot14getGameStartedEv
megaglest:_ZN5Glest4Game14ConnectionSlot14setGameStartedEb
megaglest:_ZN5Glest4Game14ConnectionSlot14setPlayerIndexEi
megaglest:_ZN5Glest4Game14ConnectionSlot15updateCompletedEPNS0_19ConnectionSlotEventE
megaglest:_ZN5Glest4Game14ConnectionSlot16hasValidSocketIdEv
megaglest:_ZN5Glest4Game14ConnectionSlot18getHumanPlayerNameB5cxx11Ei
megaglest:_ZN5Glest4Game14ConnectionSlot18validateConnectionEv
megaglest:_ZN5Glest4Game14ConnectionSlot22getServerSynchAccessorEv
megaglest:_ZN5Glest4Game14ConnectionSlot26setJoinGameInProgressFlagsEv
megaglest:_ZN5Glest4Game14ConnectionSlot27getAutoPauseGameCountForLagEv
megaglest:_ZN5Glest4Game14ConnectionSlot28getPendingNetworkCommandListEb
megaglest:_ZN5Glest4Game14ConnectionSlot28resetJoinGameInProgressFlagsEv
megaglest:_ZN5Glest4Game14ConnectionSlot30clearPendingNetworkCommandListEv
megaglest:_ZN5Glest4Game14ConnectionSlot33incrementAutoPauseGameCountForLagEv
megaglest:_ZN5Glest4Game14ConnectionSlot5closeEv
megaglest:_ZN5Glest4Game14ConnectionSlot6updateEbi
megaglest:_ZN5Glest4Game14ConnectionSlot8setReadyEv
megaglest:_ZN5Glest4Game14ConnectionSlot9getSocketEb
megaglest:_ZN5Glest4Game14ConnectionSlot9setSocketEPN6Shared8Platform6SocketE
megaglest:_ZN5Glest4Game14ConnectionSlotC1EPNS0_15ServerInterfaceEi
megaglest:_ZN5Glest4Game14ConnectionSlotC2EPNS0_15ServerInterfaceEi
megaglest:_ZN5Glest4Game14ConnectionSlotD0Ev
megaglest:_ZN5Glest4Game14ConnectionSlotD1Ev
megaglest:_ZN5Glest4Game14ConnectionSlotD2Ev
megaglest:_ZN5Glest4Game14GraphicListBox10mouseClickEiiNSt7__cxx1112basic_stringIcSt11char_traitsIcESaIcEEE
megaglest:_ZN5Glest4Game14GraphicListBox11setEditableEb
megaglest:_ZN5Glest4Game14GraphicListBox12pushBackItemENSt7__cxx1112basic_stringIcSt11char_traitsIcESaIcEEES7_
megaglest:_ZN5Glest4Game14GraphicListBox15setSelectedItemENSt7__cxx1112basic_stringIcSt11char_traitsIcESaIcEEEb
megaglest:_ZN5Glest4Game14GraphicListBox17setLeftControlledEb
megaglest:_ZN5Glest4Game14GraphicListBox20setSelectedItemIndexEib
megaglest:_ZN5Glest4Game14GraphicListBox24getTextNativeTranslationB5cxx11Ev
megaglest:_ZN5Glest4Game14GraphicListBox4defHE
megaglest:_ZN5Glest4Game14GraphicListBox4defWE
megaglest:_ZN5Glest4Game14GraphicListBox4initEiiiiN6Shared8Graphics4Vec3IfEE
megaglest:_ZN5Glest4Game14GraphicListBox4setXEi
megaglest:_ZN5Glest4Game14GraphicListBox4setYEi
megaglest:_ZN5Glest4Game14GraphicListBox8setItemsERKSt6vectorINSt7__cxx1112basic_stringIcSt11char_traitsIcESaIcEEESaIS8_EESA_
megaglest:_ZN5Glest4Game14GraphicListBox9mouseMoveEii
megaglest:_ZN5Glest4Game14GraphicListBoxC1ENSt7__cxx1112basic_stringIcSt11char_traitsIcESaIcEEES7_
megaglest:_ZN5Glest4Game14GraphicListBoxC2ENSt7__cxx1112basic_stringIcSt11char_traitsIcESaIcEEES7_
megaglest:_ZN5Glest4Game14MenuBackground15setTargetCameraEPKN6Shared8Graphics6CameraE
megaglest:_ZN5Glest4Game14MenuBackground18computeRaindropPosEv
megaglest:_ZN5Glest4Game14MenuBackground24createRainParticleSystemEv
megaglest:_ZN5Glest4Game14MenuBackground6updateEv
megaglest:_ZN5Glest4Game14MenuBackground7cleanupEv
megaglest:_ZN5Glest4Game14MenuBackgroundC1Ev
megaglest:_ZN5Glest4Game14MenuBackgroundC2Ev
megaglest:_ZN5Glest4Game14MenuBackgroundD1Ev
megaglest:_ZN5Glest4Game14MenuBackgroundD2Ev
megaglest:_ZN5Glest4Game14MenuStateAbout10mouseClickEiiN6Shared8Platform11MouseButtonE
megaglest:_ZN5Glest4Game14MenuStateAbout21loadAdditionalCreditsB5cxx11Ev
megaglest:_ZN5Glest4Game14MenuStateAbout6renderEv
megaglest:_ZN5Glest4Game14MenuStateAbout7keyDownE17SDL_KeyboardEvent
megaglest:_ZN5Glest4Game14MenuStateAbout8reloadUIEv
megaglest:_ZN5Glest4Game14MenuStateAbout9mouseMoveEiiPKN6Shared8Platform10MouseStateE
megaglest:_ZN5Glest4Game14MenuStateAboutC1EPNS0_7ProgramEPNS0_8MainMenuE
megaglest:_ZN5Glest4Game14MenuStateAboutC2EPNS0_7ProgramEPNS0_8MainMenuE
megaglest:_ZN5Glest4Game14MenuStateAboutD0Ev
megaglest:_ZN5Glest4Game14MenuStateAboutD1Ev
megaglest:_ZN5Glest4Game14MenuStateAboutD2Ev
megaglest:_ZN5Glest4Game14MorphSkillType4loadEPKN6Shared3Xml7XmlNodeES6_RKNSt7__cxx1112basic_stringIcSt11char_traitsIcESaIcEEEPKNS0_8TechTreeEPKNS0_11FactionTypeERSt3mapISC_St6vectorISt4pairISC_SC_ESaISO_EESt4lessISC_ESaISN_ISD_SQ_EEESC_
megaglest:_ZN5Glest4Game14MorphSkillType8saveGameEPN6Shared3Xml7XmlNodeE
megaglest:_ZN5Glest4Game14MorphSkillTypeC1Ev
megaglest:_ZN5Glest4Game14MorphSkillTypeC2Ev
megaglest:_ZN5Glest4Game14NetworkCommand10fromEndianEv
megaglest:_ZN5Glest4Game14NetworkCommand24preprocessNetworkCommandEPNS0_5WorldE
megaglest:_ZN5Glest4Game14NetworkCommand8loadGameEPKN6Shared3Xml7XmlNodeE
megaglest:_ZN5Glest4Game14NetworkCommand8saveGameEPN6Shared3Xml7XmlNodeE
megaglest:_ZN5Glest4Game14NetworkCommand8toEndianEv
megaglest:_ZN5Glest4Game14NetworkCommandC1EPNS0_5WorldEiiiRKN6Shared8Graphics4Vec2IiEEiiibNS0_16CommandStateTypeEii
megaglest:_ZN5Glest4Game14NetworkCommandC2EPNS0_5WorldEiiiRKN6Shared8Graphics4Vec2IiEEiiibNS0_16CommandStateTypeEii
megaglest:_ZN5Glest4Game14NetworkManager11getInstanceEv
megaglest:_ZN5Glest4Game14NetworkManager13isNetworkGameEv
megaglest:_ZN5Glest4Game14NetworkManager18getClientInterfaceEb
megaglest:_ZN5Glest4Game14NetworkManager18getServerInterfaceEb
megaglest:_ZN5Glest4Game14NetworkManager20initServerInterfacesEPNS0_26ClientLagCallbackInterfaceE
megaglest:_ZN5Glest4Game14NetworkManager23getGameNetworkInterfaceEb
megaglest:_ZN5Glest4Game14NetworkManager33isNetworkGameWithConnectedClientsEv
megaglest:_ZN5Glest4Game14NetworkManager3endEv
megaglest:_ZN5Glest4Game14NetworkManager4initENS0_11NetworkRoleEb
megaglest:_ZN5Glest4Game14NetworkManager6updateEv
megaglest:_ZN5Glest4Game14NetworkManagerC1Ev
megaglest:_ZN5Glest4Game14NetworkManagerC2Ev
megaglest:_ZN5Glest4Game14NetworkManagerD0Ev
megaglest:_ZN5Glest4Game14NetworkManagerD1Ev
megaglest:_ZN5Glest4Game14NetworkManagerD2Ev
megaglest:_ZN5Glest4Game14NetworkMessage10statsTimerE
megaglest:_ZN5Glest4Game14NetworkMessage11dump_packetENSt7__cxx1112basic_stringIcSt11char_traitsIcESaIcEEEPKvib
megaglest:_ZN5Glest4Game14NetworkMessage14useOldProtocolE
megaglest:_ZN5Glest4Game14NetworkMessage15mapMessageStatsE
megaglest:_ZN5Glest4Game14NetworkMessage17mutexMessageStatsE
megaglest:_ZN5Glest4Game14NetworkMessage21getNetworkPacketStatsB5cxx11Ev
megaglest:_ZN5Glest4Game14NetworkMessage23resetNetworkPacketStatsEv
megaglest:_ZN5Glest4Game14NetworkMessage4sendEPN6Shared8Platform6SocketEPKvi
megaglest:_ZN5Glest4Game14NetworkMessage4sendEPN6Shared8Platform6SocketEPKvic
megaglest:_ZN5Glest4Game14NetworkMessage4sendEPN6Shared8Platform6SocketEPKvicj
megaglest:_ZN5Glest4Game14NetworkMessage7receiveEPN6Shared8Platform6SocketEPvib
megaglest:_ZN5Glest4Game14NetworkMessage8lastRecvE
megaglest:_ZN5Glest4Game14NetworkMessage8lastSendE
megaglest:_ZN5Glest4Game14ProducibleTypeC1Ev
megaglest:_ZN5Glest4Game14ProducibleTypeC2Ev
megaglest:_ZN5Glest4Game14ProducibleTypeD0Ev
megaglest:_ZN5Glest4Game14ProducibleTypeD1Ev
megaglest:_ZN5Glest4Game14ProducibleTypeD2Ev
megaglest:_ZN5Glest4Game14ProjectileType4loadEPKN6Shared3Xml7XmlNodeERKNSt7__cxx1112basic_stringIcSt11char_traitsIcESaIcEEESE_RSt3mapISC_St6vectorISt4pairISC_SC_ESaISI_EESt4lessISC_ESaISH_ISD_SK_EEESC_
megaglest:_ZN5Glest4Game14ProjectileTypeC1Ev
megaglest:_ZN5Glest4Game14ProjectileTypeC2Ev
megaglest:_ZN5Glest4Game14ProjectileTypeD0Ev
megaglest:_ZN5Glest4Game14ProjectileTypeD1Ev
megaglest:_ZN5Glest4Game14ProjectileTypeD2Ev
megaglest:_ZN5Glest4Game14SoundContainerC1Ev
megaglest:_ZN5Glest4Game14SoundContainerC2Ev
megaglest:_ZN5Glest4Game14UpgradeManager12startUpgradeEPKNS0_11UpgradeTypeEi
megaglest:_ZN5Glest4Game14UpgradeManager13cancelUpgradeEPKNS0_11UpgradeTypeE
megaglest:_ZN5Glest4Game14UpgradeManager13finishUpgradeEPKNS0_11UpgradeTypeE
megaglest:_ZN5Glest4Game14UpgradeManager8loadGameEPKN6Shared3Xml7XmlNodeEPNS0_7FactionE
megaglest:_ZN5Glest4Game14UpgradeManager8saveGameEPN6Shared3Xml7XmlNodeE
megaglest:_ZN5Glest4Game14UpgradeManagerD1Ev
megaglest:_ZN5Glest4Game14UpgradeManagerD2Ev
megaglest:_ZN5Glest4Game15AttackSkillType4loadEPKN6Shared3Xml7XmlNodeES6_RKNSt7__cxx1112basic_stringIcSt11char_traitsIcESaIcEEEPKNS0_8TechTreeEPKNS0_11FactionTypeERSt3mapISC_St6vectorISt4pairISC_SC_ESaISO_EESt4lessISC_ESaISN_ISD_SQ_EEESC_
megaglest:_ZN5Glest4Game15AttackSkillType8saveGameEPN6Shared3Xml7XmlNodeE
megaglest:_ZN5Glest4Game15AttackSkillTypeC1Ev
megaglest:_ZN5Glest4Game15AttackSkillTypeC2Ev
megaglest:_ZN5Glest4Game15AttackSkillTypeD0Ev
megaglest:_ZN5Glest4Game15AttackSkillTypeD1Ev
megaglest:_ZN5Glest4Game15AttackSkillTypeD2Ev
megaglest:_ZN5Glest4Game15ClientInterface11updateFrameEPi
megaglest:_ZN5Glest4Game15ClientInterface11updateLobbyEv
megaglest:_ZN5Glest4Game15ClientInterface12getIpAddressB5cxx11Eb
megaglest:_ZN5Glest4Game15ClientInterface13getQuitThreadEv
megaglest:_ZN5Glest4Game15ClientInterface13setQuitThreadEb
megaglest:_ZN5Glest4Game15ClientInterface13waitSleepTimeE
megaglest:_ZN5Glest4Game15ClientInterface14updateKeyframeEi
megaglest:_ZN5Glest4Game15ClientInterface14waitForMessageEi
megaglest:_ZN5Glest4Game15ClientInterface14waitUntilReadyEPN6Shared4Util8ChecksumE
megaglest:_ZN5Glest4Game15ClientInterface15discoverServersEPN6Shared8Platform26DiscoveredServersInterfaceE
megaglest:_ZN5Glest4Game15ClientInterface15sendPingMessageEil
megaglest:_ZN5Glest4Game15ClientInterface15sendTextMessageERKNSt7__cxx1112basic_stringIcSt11char_traitsIcESaIcEEEibS7_
megaglest:_ZN5Glest4Game15ClientInterface15setGameSettingsEPNS0_12GameSettingsE
megaglest:_ZN5Glest4Game15ClientInterface16getNetworkStatusB5cxx11Ev
megaglest:_ZN5Glest4Game15ClientInterface17getNetworkCommandEii
megaglest:_ZN5Glest4Game15ClientInterface18broadcastGameSetupEPKNS0_12GameSettingsE
megaglest:_ZN5Glest4Game15ClientInterface18broadcastGameStartEPKNS0_12GameSettingsE
megaglest:_ZN5Glest4Game15ClientInterface18getHumanPlayerNameB5cxx11Ei
megaglest:_ZN5Glest4Game15ClientInterface18getServerIpAddressB5cxx11Ev
megaglest:_ZN5Glest4Game15ClientInterface18messageWaitTimeoutE
megaglest:_ZN5Glest4Game15ClientInterface18updateNetworkFrameEv
megaglest:_ZN5Glest4Game15ClientInterface19getResumeInGameJoinEv
megaglest:_ZN5Glest4Game15ClientInterface19sendMarkCellMessageEN6Shared8Graphics4Vec2IiEEiNSt7__cxx1112basic_stringIcSt11char_traitsIcESaIcEEEi
megaglest:_ZN5Glest4Game15ClientInterface19stopServerDiscoveryEv
megaglest:_ZN5Glest4Game15ClientInterface21getJoinGameInProgressEv
megaglest:_ZN5Glest4Game15ClientInterface21getReadyForInGameJoinEv
megaglest:_ZN5Glest4Game15ClientInterface21sendResumeGameMessageEv
megaglest:_ZN5Glest4Game15ClientInterface21sendUnMarkCellMessageEN6Shared8Graphics4Vec2IiEEi
megaglest:_ZN5Glest4Game15ClientInterface22sendSwitchSetupRequestENSt7__cxx1112basic_stringIcSt11char_traitsIcESaIcEEEcccS7_ccS7_
megaglest:_ZN5Glest4Game15ClientInterface23setGameSettingsReceivedEb
megaglest:_ZN5Glest4Game15ClientInterface24sendHighlightCellMessageEN6Shared8Graphics4Vec2IiEEi
megaglest:_ZN5Glest4Game15ClientInterface27getJoinGameInProgressLaunchEv
megaglest:_ZN5Glest4Game15ClientInterface27isMasterServerAdminOverrideEv
megaglest:_ZN5Glest4Game15ClientInterface27shouldDiscardNetworkMessageENS0_18NetworkMessageTypeE
megaglest:_ZN5Glest4Game15ClientInterface30getCachedLastPendingFrameCountEv
megaglest:_ZN5Glest4Game15ClientInterface32shutdownNetworkCommandListThreadERN6Shared8Platform16MutexSafeWrapperE
megaglest:_ZN5Glest4Game15ClientInterface33getTimeClientWaitedForLastMessageEv
megaglest:_ZN5Glest4Game15ClientInterface33maxNetworkCommandListSendTimeWaitE
megaglest:_ZN5Glest4Game15ClientInterface5closeEb
megaglest:_ZN5Glest4Game15ClientInterface5closeEv
megaglest:_ZN5Glest4Game15ClientInterface5resetEv
megaglest:_ZN5Glest4Game15ClientInterface6updateEv
megaglest:_ZN5Glest4Game15ClientInterface7connectERKN6Shared8Platform2IpEi
megaglest:_ZN5Glest4Game15ClientInterface7getQuitEv
megaglest:_ZN5Glest4Game15ClientInterface7setQuitEb
megaglest:_ZN5Glest4Game15ClientInterface8quitGameEb
megaglest:_ZN5Glest4Game15ClientInterfaceC1Ev
megaglest:_ZN5Glest4Game15ClientInterfaceC2Ev
megaglest:_ZN5Glest4Game15ClientInterfaceD0Ev
megaglest:_ZN5Glest4Game15ClientInterfaceD1Ev
megaglest:_ZN5Glest4Game15ClientInterfaceD2Ev
megaglest:_ZN5Glest4Game15DisplayableTypeC1Ev
megaglest:_ZN5Glest4Game15DisplayableTypeC2Ev
megaglest:_ZN5Glest4Game15GraphicCheckBox10mouseClickEii
megaglest:_ZN5Glest4Game15GraphicCheckBox4defHE
megaglest:_ZN5Glest4Game15GraphicCheckBox4defWE
megaglest:_ZN5Glest4Game15GraphicCheckBox4initEiiii
megaglest:_ZN5Glest4Game15GraphicCheckBox9mouseMoveEii
megaglest:_ZN5Glest4Game15GraphicCheckBoxC1ENSt7__cxx1112basic_stringIcSt11char_traitsIcESaIcEEES7_
megaglest:_ZN5Glest4Game15GraphicCheckBoxC2ENSt7__cxx1112basic_stringIcSt11char_traitsIcESaIcEEES7_
megaglest:_ZN5Glest4Game15MoveCommandType4loadEiPKN6Shared3Xml7XmlNodeERKNSt7__cxx1112basic_stringIcSt11char_traitsIcESaIcEEEPKNS0_8TechTreeEPKNS0_11FactionTypeERKNS0_8UnitTypeERSt3mapISC_St6vectorISt4pairISC_SC_ESaISR_EESt4lessISC_ESaISQ_ISD_ST_EEESC_
megaglest:_ZN5Glest4Game15MoveCommandTypeC1Ev
megaglest:_ZN5Glest4Game15MoveCommandTypeC2Ev
megaglest:_ZN5Glest4Game15ParticleDamager6updateEPN6Shared8Graphics14ParticleSystemE
megaglest:_ZN5Glest4Game15ParticleDamager8loadGameEPKN6Shared3Xml7XmlNodeEPv
megaglest:_ZN5Glest4Game15ParticleDamager8saveGameEPN6Shared3Xml7XmlNodeE
megaglest:_ZN5Glest4Game15ParticleDamagerC1EPNS0_4UnitEPKNS0_14ProjectileTypeEPNS0_11UnitUpdaterEPKNS0_10GameCameraE
megaglest:_ZN5Glest4Game15ParticleDamagerC2EPNS0_4UnitEPKNS0_14ProjectileTypeEPNS0_11UnitUpdaterEPKNS0_10GameCameraE
megaglest:_ZN5Glest4Game15PlayerModifiers8loadGameEPKN6Shared3Xml7XmlNodeE
megaglest:_ZN5Glest4Game15PlayerModifiers8saveGameEPN6Shared3Xml7XmlNodeE
megaglest:_ZN5Glest4Game15PlayerModifiersC1Ev
megaglest:_ZN5Glest4Game15PlayerModifiersC2Ev
megaglest:_ZN5Glest4Game15PosQuadIterator4nextEv
megaglest:_ZN5Glest4Game15PosQuadIterator5skipXEv
megaglest:_ZN5Glest4Game15PosQuadIterator6getPosEv
megaglest:_ZN5Glest4Game15PosQuadIteratorC1EPKNS0_3MapERKN6Shared8Graphics5Quad2IiEEi
megaglest:_ZN5Glest4Game15PosQuadIteratorC2EPKNS0_3MapERKN6Shared8Graphics5Quad2IiEEi
megaglest:_ZN5Glest4Game15RepairSkillTypeC1Ev
megaglest:_ZN5Glest4Game15RepairSkillTypeC2Ev
megaglest:_ZN5Glest4Game15ServerInterface10launchGameEPKNS0_12GameSettingsE
megaglest:_ZN5Glest4Game15ServerInterface10removeSlotEii
megaglest:_ZN5Glest4Game15ServerInterface10simpleTaskEPN6Shared14PlatformCommon10BaseThreadEPv
megaglest:_ZN5Glest4Game15ServerInterface10switchSlotEii
megaglest:_ZN5Glest4Game15ServerInterface12getIpAddressB5cxx11Eb
megaglest:_ZN5Glest4Game15ServerInterface12getSlotCountEv
megaglest:_ZN5Glest4Game15ServerInterface12getSlotMutexEi
megaglest:_ZN5Glest4Game15ServerInterface12setGameStatsEPNS0_5StatsE
megaglest:_ZN5Glest4Game15ServerInterface12updateListenEv
megaglest:_ZN5Glest4Game15ServerInterface14clientLagCheckEPNS0_14ConnectionSlotEb
megaglest:_ZN5Glest4Game15ServerInterface14getNextEventIdEv
megaglest:_ZN5Glest4Game15ServerInterface14updateKeyframeEi
megaglest:_ZN5Glest4Game15ServerInterface14waitUntilReadyEPN6Shared4Util8ChecksumE
megaglest:_ZN5Glest4Game15ServerInterface15findSlotForUUIDENSt7__cxx1112basic_stringIcSt11char_traitsIcESaIcEEEb
megaglest:_ZN5Glest4Game15ServerInterface15sendTextMessageERKNSt7__cxx1112basic_stringIcSt11char_traitsIcESaIcEEEibS7_
megaglest:_ZN5Glest4Game15ServerInterface15sendTextMessageERKNSt7__cxx1112basic_stringIcSt11char_traitsIcESaIcEEEibS7_i
megaglest:_ZN5Glest4Game15ServerInterface15setGameSettingsEPNS0_12GameSettingsEb
megaglest:_ZN5Glest4Game15ServerInterface16broadcastMessageEPNS0_14NetworkMessageEii
megaglest:_ZN5Glest4Game15ServerInterface16getNetworkStatusB5cxx11Ev
megaglest:_ZN5Glest4Game15ServerInterface16getOpenSlotCountEv
megaglest:_ZN5Glest4Game15ServerInterface16queueTextMessageERKNSt7__cxx1112basic_stringIcSt11char_traitsIcESaIcEEEibS7_
megaglest:_ZN5Glest4Game15ServerInterface17isClientConnectedEi
megaglest:_ZN5Glest4Game15ServerInterface17isValidClientTypeEj
megaglest:_ZN5Glest4Game15ServerInterface17setPublishEnabledEb
megaglest:_ZN5Glest4Game15ServerInterface17shutdownFTPServerEv
megaglest:_ZN5Glest4Game15ServerInterface18broadcastGameSetupEPNS0_12GameSettingsEb
megaglest:_ZN5Glest4Game15ServerInterface18checkListenerSlotsEv
megaglest:_ZN5Glest4Game15ServerInterface18getHumanPlayerNameB5cxx11Ei
megaglest:_ZN5Glest4Game15ServerInterface19hasClientConnectionEv
megaglest:_ZN5Glest4Game15ServerInterface19sendMarkCellMessageEN6Shared8Graphics4Vec2IiEEiNSt7__cxx1112basic_stringIcSt11char_traitsIcESaIcEEEi
megaglest:_ZN5Glest4Game15ServerInterface19sendMarkCellMessageEN6Shared8Graphics4Vec2IiEEiNSt7__cxx1112basic_stringIcSt11char_traitsIcESaIcEEEii
megaglest:_ZN5Glest4Game15ServerInterface20validateGameSettingsEPNS0_12GameSettingsE
megaglest:_ZN5Glest4Game15ServerInterface21getConnectedSlotCountEb
megaglest:_ZN5Glest4Game15ServerInterface21publishToMasterserverB5cxx11Ev
megaglest:_ZN5Glest4Game15ServerInterface21queueBroadcastMessageEPNS0_14NetworkMessageEi
megaglest:_ZN5Glest4Game15ServerInterface21sendUnMarkCellMessageEN6Shared8Graphics4Vec2IiEEi
megaglest:_ZN5Glest4Game15ServerInterface21sendUnMarkCellMessageEN6Shared8Graphics4Vec2IiEEii
megaglest:_ZN5Glest4Game15ServerInterface22checkForLaggingClientsERSt3mapIibSt4lessIiESaISt4pairIKibEEERS2_IiNS0_19ConnectionSlotEventES4_SaIS5_IS6_SB_EEESA_RSt6vectorINSt7__cxx1112basic_stringIcSt11char_traitsIcESaIcEEESaISM_EE
megaglest:_ZN5Glest4Game15ServerInterface22getSwitchSetupRequestsEi
megaglest:_ZN5Glest4Game15ServerInterface22getSwitchSetupRequestsEv
megaglest:_ZN5Glest4Game15ServerInterface22setSwitchSetupRequestsEiPNS0_18SwitchSetupRequestE
megaglest:_ZN5Glest4Game15ServerInterface23processTextMessageQueueEv
megaglest:_ZN5Glest4Game15ServerInterface24checkForCompletedClientsERSt3mapIibSt4lessIiESaISt4pairIKibEEERSt6vectorINSt7__cxx1112basic_stringIcSt11char_traitsIcESaIcEEESaISH_EERS2_IiNS0_19ConnectionSlotEventES4_SaIS5_IS6_SL_EEE
megaglest:_ZN5Glest4Game15ServerInterface24isClientAllowedToGetFileEjPKcS3_
megaglest:_ZN5Glest4Game15ServerInterface24sendHighlightCellMessageEN6Shared8Graphics4Vec2IiEEi
megaglest:_ZN5Glest4Game15ServerInterface24sendHighlightCellMessageEN6Shared8Graphics4Vec2IiEEii
megaglest:_ZN5Glest4Game15ServerInterface24validateConnectedClientsEv
megaglest:_ZN5Glest4Game15ServerInterface25updateSocketTriggeredListERSt3mapIibSt4lessIiESaISt4pairIKibEEE
megaglest:_ZN5Glest4Game15ServerInterface26addClientToServerIPAddressEjj
megaglest:_ZN5Glest4Game15ServerInterface26getGameSettingsUpdateCountEv
megaglest:_ZN5Glest4Game15ServerInterface26publishToMasterserverStatsB5cxx11Ev
megaglest:_ZN5Glest4Game15ServerInterface26signalClientsToRecieveDataERSt3mapIibSt4lessIiESaISt4pairIKibEEERS2_IiNS0_19ConnectionSlotEventES4_SaIS5_IS6_SB_EEESA_
megaglest:_ZN5Glest4Game15ServerInterface27dispatchPendingChatMessagesERSt6vectorINSt7__cxx1112basic_stringIcSt11char_traitsIcESaIcEEESaIS8_EE
megaglest:_ZN5Glest4Game15ServerInterface27getPauseForInGameConnectionEv
megaglest:_ZN5Glest4Game15ServerInterface27shouldDiscardNetworkMessageENS0_18NetworkMessageTypeEPNS0_14ConnectionSlotE
megaglest:_ZN5Glest4Game15ServerInterface27signalClientReceiveCommandsEPNS0_14ConnectionSlotEibRNS0_19ConnectionSlotEventE
megaglest:_ZN5Glest4Game15ServerInterface28getClientsAutoPausedDueToLagEv
megaglest:_ZN5Glest4Game15ServerInterface28processBroadCastMessageQueueEv
megaglest:_ZN5Glest4Game15ServerInterface29getUnPauseForInGameConnectionEv
megaglest:_ZN5Glest4Game15ServerInterface29notifyBadClientConnectAttemptENSt7__cxx1112basic_stringIcSt11char_traitsIcESaIcEEE
megaglest:_ZN5Glest4Game15ServerInterface29setClientLagCallbackInterfaceEPNS0_26ClientLagCallbackInterfaceE
megaglest:_ZN5Glest4Game15ServerInterface30getStartInGameConnectionLaunchEv
megaglest:_ZN5Glest4Game15ServerInterface31dispatchPendingMarkCellMessagesERSt6vectorINSt7__cxx1112basic_stringIcSt11char_traitsIcESaIcEEESaIS8_EE
megaglest:_ZN5Glest4Game15ServerInterface33checkForAutoPauseForLaggingClientEiPNS0_14ConnectionSlotE
megaglest:_ZN5Glest4Game15ServerInterface33checkForCompletedClientsUsingLoopERSt3mapIibSt4lessIiESaISt4pairIKibEEERSt6vectorINSt7__cxx1112basic_stringIcSt11char_traitsIcESaIcEEESaISH_EERS2_IiNS0_19ConnectionSlotEventES4_SaIS5_IS6_SL_EEE
megaglest:_ZN5Glest4Game15ServerInterface33dispatchPendingUnMarkCellMessagesERSt6vectorINSt7__cxx1112basic_stringIcSt11char_traitsIcESaIcEEESaIS8_EE
megaglest:_ZN5Glest4Game15ServerInterface33executeNetworkCommandsFromClientsEv
megaglest:_ZN5Glest4Game15ServerInterface33shutdownMasterserverPublishThreadEv
megaglest:_ZN5Glest4Game15ServerInterface34broadcastMessageToConnectedClientsEPNS0_14NetworkMessageEi
megaglest:_ZN5Glest4Game15ServerInterface35checkForAutoResumeForLaggingClientsEv
megaglest:_ZN5Glest4Game15ServerInterface36dispatchPendingHighlightCellMessagesERSt6vectorINSt7__cxx1112basic_stringIcSt11char_traitsIcESaIcEEESaIS8_EE
megaglest:_ZN5Glest4Game15ServerInterface42checkForCompletedClientsUsingThreadManagerERSt3mapIibSt4lessIiESaISt4pairIKibEEERSt6vectorINSt7__cxx1112basic_stringIcSt11char_traitsIcESaIcEEESaISH_EE
megaglest:_ZN5Glest4Game15ServerInterface5closeEv
megaglest:_ZN5Glest4Game15ServerInterface6updateEv
megaglest:_ZN5Glest4Game15ServerInterface7addSlotEi
megaglest:_ZN5Glest4Game15ServerInterface7getSlotEib
megaglest:_ZN5Glest4Game15ServerInterface8quitGameEb
megaglest:_ZN5Glest4Game15ServerInterface8saveGameEPN6Shared3Xml7XmlNodeE
megaglest:_ZN5Glest4Game15ServerInterfaceC1EbPNS0_26ClientLagCallbackInterfaceE
megaglest:_ZN5Glest4Game15ServerInterfaceC2EbPNS0_26ClientLagCallbackInterfaceE
megaglest:_ZN5Glest4Game15ServerInterfaceD0Ev
megaglest:_ZN5Glest4Game15ServerInterfaceD1Ev
megaglest:_ZN5Glest4Game15ServerInterfaceD2Ev
megaglest:_ZN5Glest4Game15ShowINISettingsEiPPcRNS0_6ConfigES4_
megaglest:_ZN5Glest4Game15StopCommandType4loadEiPKN6Shared3Xml7XmlNodeERKNSt7__cxx1112basic_stringIcSt11char_traitsIcESaIcEEEPKNS0_8TechTreeEPKNS0_11FactionTypeERKNS0_8UnitTypeERSt3mapISC_St6vectorISt4pairISC_SC_ESaISR_EESt4lessISC_ESaISQ_ISD_ST_EEESC_
megaglest:_ZN5Glest4Game15StopCommandTypeC1Ev
megaglest:_ZN5Glest4Game15StopCommandTypeC2Ev
megaglest:_ZN5Glest4Game15UpgradeTypeBase12copyDataFromEPS1_
megaglest:_ZN5Glest4Game15UpgradeTypeBase13loadGameBoostEPKN6Shared3Xml7XmlNodeE
megaglest:_ZN5Glest4Game15UpgradeTypeBase4loadEPKN6Shared3Xml7XmlNodeENSt7__cxx1112basic_stringIcSt11char_traitsIcESaIcEEE
megaglest:_ZN5Glest4Game15UpgradeTypeBase8loadGameEPKN6Shared3Xml7XmlNodeEPNS0_7FactionE
megaglest:_ZN5Glest4Game15getAboutString1B5cxx11Ei
megaglest:_ZN5Glest4Game15getAboutString2B5cxx11Ei
megaglest:_ZN5Glest4Game15getTeammateNameB5cxx11Ei
megaglest:_ZN5Glest4Game15getTeammateRoleB5cxx11Ei
megaglest:_ZN5Glest4Game16AiRuleReturnBase4testEv
megaglest:_ZN5Glest4Game16AiRuleReturnBase7executeEv
megaglest:_ZN5Glest4Game16AiRuleReturnBaseC1EPNS0_2AiE
megaglest:_ZN5Glest4Game16AiRuleReturnBaseC2EPNS0_2AiE
megaglest:_ZN5Glest4Game16BeBuiltSkillType4loadEPKN6Shared3Xml7XmlNodeES6_RKNSt7__cxx1112basic_stringIcSt11char_traitsIcESaIcEEEPKNS0_8TechTreeEPKNS0_11FactionTypeERSt3mapISC_St6vectorISt4pairISC_SC_ESaISO_EESt4lessISC_ESaISN_ISD_SQ_EEESC_
megaglest:_ZN5Glest4Game16BeBuiltSkillType8saveGameEPN6Shared3Xml7XmlNodeE
megaglest:_ZN5Glest4Game16BeBuiltSkillTypeC1Ev
megaglest:_ZN5Glest4Game16BeBuiltSkillTypeC2Ev
megaglest:_ZN5Glest4Game16BuildCommandType4loadEiPKN6Shared3Xml7XmlNodeERKNSt7__cxx1112basic_stringIcSt11char_traitsIcESaIcEEEPKNS0_8TechTreeEPKNS0_11FactionTypeERKNS0_8UnitTypeERSt3mapISC_St6vectorISt4pairISC_SC_ESaISR_EESt4lessISC_ESaISQ_ISD_ST_EEESC_
megaglest:_ZN5Glest4Game16BuildCommandTypeC1Ev
megaglest:_ZN5Glest4Game16BuildCommandTypeC2Ev
megaglest:_ZN5Glest4Game16BuildCommandTypeD0Ev
megaglest:_ZN5Glest4Game16BuildCommandTypeD1Ev
megaglest:_ZN5Glest4Game16BuildCommandTypeD2Ev
megaglest:_ZN5Glest4Game16CellTriggerEvent8loadGameEPKN6Shared3Xml7XmlNodeE
megaglest:_ZN5Glest4Game16CellTriggerEvent8saveGameEPN6Shared3Xml7XmlNodeE
megaglest:_ZN5Glest4Game16CellTriggerEventC1Ev
megaglest:_ZN5Glest4Game16CellTriggerEventC2Ev
megaglest:_ZN5Glest4Game16DEFAULT_LANGUAGEE
megaglest:_ZN5Glest4Game16ExceptionHandler14DisplayMessageEPKcb
megaglest:_ZN5Glest4Game16ExceptionHandler18handleRuntimeErrorEPKcb
megaglest:_ZN5Glest4Game16ExceptionHandler18handleRuntimeErrorERKN6Shared8Platform23megaglest_runtime_errorE
megaglest:_ZN5Glest4Game16ExceptionHandler6handleEv
megaglest:_ZN5Glest4Game16ExceptionHandler8logErrorEPKcb
megaglest:_ZN5Glest4Game16GraphicComponent10mouseClickEii
megaglest:_ZN5Glest4Game16GraphicComponent11reloadFontsEv
megaglest:_ZN5Glest4Game16GraphicComponent15customTextColorE
megaglest:_ZN5Glest4Game16GraphicComponent19FontChangedCallbackENSt7__cxx1112basic_stringIcSt11char_traitsIcESaIcEEEPN6Shared8Graphics4FontE
megaglest:_ZN5Glest4Game16GraphicComponent20saveCustomPropertiesENSt7__cxx1112basic_stringIcSt11char_traitsIcESaIcEEE
megaglest:_ZN5Glest4Game16GraphicComponent21applyCustomPropertiesENSt7__cxx1112basic_stringIcSt11char_traitsIcESaIcEEE
megaglest:_ZN5Glest4Game16GraphicComponent23findRegisteredComponentENSt7__cxx1112basic_stringIcSt11char_traitsIcESaIcEEES7_
megaglest:_ZN5Glest4Game16GraphicComponent23saveAllCustomPropertiesENSt7__cxx1112basic_stringIcSt11char_traitsIcESaIcEEE
megaglest:_ZN5Glest4Game16GraphicComponent24applyAllCustomPropertiesENSt7__cxx1112basic_stringIcSt11char_traitsIcESaIcEEE
megaglest:_ZN5Glest4Game16GraphicComponent24registerGraphicComponentENSt7__cxx1112basic_stringIcSt11char_traitsIcESaIcEEES7_
megaglest:_ZN5Glest4Game16GraphicComponent25clearRegisteredComponentsENSt7__cxx1112basic_stringIcSt11char_traitsIcESaIcEEE
megaglest:_ZN5Glest4Game16GraphicComponent29clearRegisterGraphicComponentENSt7__cxx1112basic_stringIcSt11char_traitsIcESaIcEEES7_
megaglest:_ZN5Glest4Game16GraphicComponent29clearRegisterGraphicComponentENSt7__cxx1112basic_stringIcSt11char_traitsIcESaIcEEESt6vectorIS7_SaIS7_EE
megaglest:_ZN5Glest4Game16GraphicComponent30registeredGraphicComponentListB5cxx11E
megaglest:_ZN5Glest4Game16GraphicComponent39reloadFontsForRegisterGraphicComponentsENSt7__cxx1112basic_stringIcSt11char_traitsIcESaIcEEE
megaglest:_ZN5Glest4Game16GraphicComponent41registerGraphicComponentOnlyFontCallbacksENSt7__cxx1112basic_stringIcSt11char_traitsIcESaIcEEES7_
megaglest:_ZN5Glest4Game16GraphicComponent4animE
megaglest:_ZN5Glest4Game16GraphicComponent4fadeE
megaglest:_ZN5Glest4Game16GraphicComponent4initEiiii
megaglest:_ZN5Glest4Game16GraphicComponent6updateEv
megaglest:_ZN5Glest4Game16GraphicComponent7setFontEPN6Shared8Graphics6Font2DE
megaglest:_ZN5Glest4Game16GraphicComponent9animSpeedE
megaglest:_ZN5Glest4Game16GraphicComponent9fadeSpeedE
megaglest:_ZN5Glest4Game16GraphicComponent9getNewUUDB5cxx11Ev
megaglest:_ZN5Glest4Game16GraphicComponent9mouseMoveEii
megaglest:_ZN5Glest4Game16GraphicComponent9resetFadeEv
megaglest:_ZN5Glest4Game16GraphicComponent9setFont3DEPN6Shared8Graphics6Font3DE
megaglest:_ZN5Glest4Game16GraphicComponentC1ENSt7__cxx1112basic_stringIcSt11char_traitsIcESaIcEEES7_b
megaglest:_ZN5Glest4Game16GraphicComponentC2ENSt7__cxx1112basic_stringIcSt11char_traitsIcESaIcEEES7_b
megaglest:_ZN5Glest4Game16GraphicComponentD0Ev
megaglest:_ZN5Glest4Game16GraphicComponentD1Ev
megaglest:_ZN5Glest4Game16GraphicComponentD2Ev
megaglest:_ZN5Glest4Game16GraphicScrollBar10mouseClickEii
megaglest:_ZN5Glest4Game16GraphicScrollBar12defThicknessE
megaglest:_ZN5Glest4Game16GraphicScrollBar14setVisibleSizeEi
megaglest:_ZN5Glest4Game16GraphicScrollBar15setElementCountEi
megaglest:_ZN5Glest4Game16GraphicScrollBar15setVisibleStartEi
megaglest:_ZN5Glest4Game16GraphicScrollBar17arrangeComponentsERSt6vectorIPNS0_16GraphicComponentESaIS4_EE
megaglest:_ZN5Glest4Game16GraphicScrollBar4initEiibii
megaglest:_ZN5Glest4Game16GraphicScrollBar7mouseUpEii
megaglest:_ZN5Glest4Game16GraphicScrollBar9defLengthE
megaglest:_ZN5Glest4Game16GraphicScrollBar9mouseDownEii
megaglest:_ZN5Glest4Game16GraphicScrollBar9mouseMoveEii
megaglest:_ZN5Glest4Game16GraphicScrollBarC1ENSt7__cxx1112basic_stringIcSt11char_traitsIcESaIcEEES7_
megaglest:_ZN5Glest4Game16GraphicScrollBarC2ENSt7__cxx1112basic_stringIcSt11char_traitsIcESaIcEEES7_
megaglest:_ZN5Glest4Game16HarvestSkillTypeC1Ev
megaglest:_ZN5Glest4Game16HarvestSkillTypeC2Ev
megaglest:_ZN5Glest4Game16MenuStateNewGame10mouseClickEiiN6Shared8Platform11MouseButtonE
megaglest:_ZN5Glest4Game16MenuStateNewGame6renderEv
megaglest:_ZN5Glest4Game16MenuStateNewGame6updateEv
megaglest:_ZN5Glest4Game16MenuStateNewGame7keyDownE17SDL_KeyboardEvent
megaglest:_ZN5Glest4Game16MenuStateNewGame8reloadUIEv
megaglest:_ZN5Glest4Game16MenuStateNewGame9mouseMoveEiiPKN6Shared8Platform10MouseStateE
megaglest:_ZN5Glest4Game16MenuStateNewGameC1EPNS0_7ProgramEPNS0_8MainMenuE
megaglest:_ZN5Glest4Game16MenuStateNewGameC2EPNS0_7ProgramEPNS0_8MainMenuE
megaglest:_ZN5Glest4Game16MenuStateOptions10mouseClickEiiN6Shared8Platform11MouseButtonE
megaglest:_ZN5Glest4Game16MenuStateOptions10saveConfigEv
megaglest:_ZN5Glest4Game16MenuStateOptions14showMessageBoxERKNSt7__cxx1112basic_stringIcSt11char_traitsIcESaIcEEES9_b
megaglest:_ZN5Glest4Game16MenuStateOptions16setupTransifexUIEv
megaglest:_ZN5Glest4Game16MenuStateOptions17showLuaMessageBoxERKNSt7__cxx1112basic_stringIcSt11char_traitsIcESaIcEEES9_b
megaglest:_ZN5Glest4Game16MenuStateOptions19setActiveInputLableEPNS0_12GraphicLabelE
megaglest:_ZN5Glest4Game16MenuStateOptions26isInSpecialKeyCaptureEventEv
megaglest:_ZN5Glest4Game16MenuStateOptions6renderEv
megaglest:_ZN5Glest4Game16MenuStateOptions7keyDownE17SDL_KeyboardEvent
megaglest:_ZN5Glest4Game16MenuStateOptions8keyPressE17SDL_KeyboardEvent
megaglest:_ZN5Glest4Game16MenuStateOptions8reloadUIEv
megaglest:_ZN5Glest4Game16MenuStateOptions9mouseMoveEiiPKN6Shared8Platform10MouseStateE
megaglest:_ZN5Glest4Game16MenuStateOptions9textInputENSt7__cxx1112basic_stringIcSt11char_traitsIcESaIcEEE
megaglest:_ZN5Glest4Game16MenuStateOptionsC1EPNS0_7ProgramEPNS0_8MainMenuEPPNS0_12ProgramStateE
megaglest:_ZN5Glest4Game16MenuStateOptionsC2EPNS0_7ProgramEPNS0_8MainMenuEPPNS0_12ProgramStateE
megaglest:_ZN5Glest4Game16MenuStateOptionsD0Ev
megaglest:_ZN5Glest4Game16MenuStateOptionsD1Ev
megaglest:_ZN5Glest4Game16MenuStateOptionsD2Ev
megaglest:_ZN5Glest4Game16MorphCommandType4loadEiPKN6Shared3Xml7XmlNodeERKNSt7__cxx1112basic_stringIcSt11char_traitsIcESaIcEEEPKNS0_8TechTreeEPKNS0_11FactionTypeERKNS0_8UnitTypeERSt3mapISC_St6vectorISt4pairISC_SC_ESaISR_EESt4lessISC_ESaISQ_ISD_ST_EEESC_
megaglest:_ZN5Glest4Game16MorphCommandTypeC1Ev
megaglest:_ZN5Glest4Game16MorphCommandTypeC2Ev
megaglest:_ZN5Glest4Game16NetworkInterface11addChatInfoERKNS0_11ChatMsgInfoE
megaglest:_ZN5Glest4Game16NetworkInterface11isConnectedEv
megaglest:_ZN5Glest4Game16NetworkInterface11sendMessageEPNS0_14NetworkMessageE
megaglest:_ZN5Glest4Game16NetworkInterface13addMarkedCellERKNS0_10MarkedCellE
megaglest:_ZN5Glest4Game16NetworkInterface13clearChatInfoEv
megaglest:_ZN5Glest4Game16NetworkInterface14getLastPingLagEv
megaglest:_ZN5Glest4Game16NetworkInterface14receiveMessageEPNS0_14NetworkMessageE
megaglest:_ZN5Glest4Game16NetworkInterface14receiveMessageEPNS0_14NetworkMessageENS0_18NetworkMessageTypeE
megaglest:_ZN5Glest4Game16NetworkInterface15addUnMarkedCellERKNS0_12UnMarkedCellE
megaglest:_ZN5Glest4Game16NetworkInterface15getChatTextListEb
megaglest:_ZN5Glest4Game16NetworkInterface15getLastPingInfoEv
megaglest:_ZN5Glest4Game16NetworkInterface15setLastPingInfoERKNS0_18NetworkMessagePingE
megaglest:_ZN5Glest4Game16NetworkInterface16readyWaitTimeoutE
megaglest:_ZN5Glest4Game16NetworkInterface17getMarkedCellListEb
megaglest:_ZN5Glest4Game16NetworkInterface17getThreadedPingMSENSt7__cxx1112basic_stringIcSt11char_traitsIcESaIcEEE
megaglest:_ZN5Glest4Game16NetworkInterface18getNextMessageTypeEi
megaglest:_ZN5Glest4Game16NetworkInterface18pCB_DisplayMessageE
megaglest:_ZN5Glest4Game16NetworkInterface18setHighlightedCellERKNS0_10MarkedCellE
megaglest:_ZN5Glest4Game16NetworkInterface19DisplayErrorMessageENSt7__cxx1112basic_stringIcSt11char_traitsIcESaIcEEEb
megaglest:_ZN5Glest4Game16NetworkInterface19clearMarkedCellListEv
megaglest:_ZN5Glest4Game16NetworkInterface19getUnMarkedCellListEb
megaglest:_ZN5Glest4Game16NetworkInterface20setLastPingInfoToNowEv
megaglest:_ZN5Glest4Game16NetworkInterface21clearUnMarkedCellListEv
megaglest:_ZN5Glest4Game16NetworkInterface22allowDownloadDataSynchE
megaglest:_ZN5Glest4Game16NetworkInterface22getHighlightedCellListEb
megaglest:_ZN5Glest4Game16NetworkInterface23allowGameDataSynchCheckE
megaglest:_ZN5Glest4Game16NetworkInterface24clearHighlightedCellListEv
megaglest:_ZN5Glest4Game16NetworkInterface26getNetworkPlayerFactionCRCEi
megaglest:_ZN5Glest4Game16NetworkInterface26setNetworkPlayerFactionCRCEij
megaglest:_ZN5Glest4Game16NetworkInterface4initEv
megaglest:_ZN5Glest4Game16NetworkInterfaceC1Ev
megaglest:_ZN5Glest4Game16NetworkInterfaceC2Ev
megaglest:_ZN5Glest4Game16NetworkInterfaceD0Ev
megaglest:_ZN5Glest4Game16NetworkInterfaceD1Ev
megaglest:_ZN5Glest4Game16NetworkInterfaceD2Ev
megaglest:_ZN5Glest4Game16ProduceSkillType4loadEPKN6Shared3Xml7XmlNodeES6_RKNSt7__cxx1112basic_stringIcSt11char_traitsIcESaIcEEEPKNS0_8TechTreeEPKNS0_11FactionTypeERSt3mapISC_St6vectorISt4pairISC_SC_ESaISO_EESt4lessISC_ESaISN_ISD_SQ_EEESC_
megaglest:_ZN5Glest4Game16ProduceSkillType8saveGameEPN6Shared3Xml7XmlNodeE
megaglest:_ZN5Glest4Game16ProduceSkillTypeC1Ev
megaglest:_ZN5Glest4Game16ProduceSkillTypeC2Ev
megaglest:_ZN5Glest4Game16SkillTypeFactory11getInstanceEv
megaglest:_ZN5Glest4Game16SkillTypeFactoryC1Ev
megaglest:_ZN5Glest4Game16SkillTypeFactoryC2Ev
megaglest:_ZN5Glest4Game16TilesetModelType17addParticleSystemEPNS0_24ObjectParticleSystemTypeE
megaglest:_ZN5Glest4Game16TilesetModelTypeC1Ev
megaglest:_ZN5Glest4Game16TilesetModelTypeC2Ev
megaglest:_ZN5Glest4Game16TilesetModelTypeD1Ev
megaglest:_ZN5Glest4Game16TilesetModelTypeD2Ev
megaglest:_ZN5Glest4Game16UpgradeSkillType4loadEPKN6Shared3Xml7XmlNodeES6_RKNSt7__cxx1112basic_stringIcSt11char_traitsIcESaIcEEEPKNS0_8TechTreeEPKNS0_11FactionTypeERSt3mapISC_St6vectorISt4pairISC_SC_ESaISO_EESt4lessISC_ESaISN_ISD_SQ_EEESC_
megaglest:_ZN5Glest4Game16UpgradeSkillType8saveGameEPN6Shared3Xml7XmlNodeE
megaglest:_ZN5Glest4Game16UpgradeSkillTypeC1Ev
megaglest:_ZN5Glest4Game16UpgradeSkillTypeC2Ev
megaglest:_ZN5Glest4Game16cleanupCRCThreadEv
megaglest:_ZN5Glest4Game16glestMainWrapperEiPPc
megaglest:_ZN5Glest4Game17AiInterfaceThread10signalQuitEv
megaglest:_ZN5Glest4Game17AiInterfaceThread11canShutdownEb
megaglest:_ZN5Glest4Game17AiInterfaceThread13setQuitStatusEb
megaglest:_ZN5Glest4Game17AiInterfaceThread16setTaskCompletedEi
megaglest:_ZN5Glest4Game17AiInterfaceThread17isSignalCompletedEi
megaglest:_ZN5Glest4Game17AiInterfaceThread6signalEi
megaglest:_ZN5Glest4Game17AiInterfaceThread7executeEv
megaglest:_ZN5Glest4Game17AiInterfaceThreadC1EPNS0_11AiInterfaceE
megaglest:_ZN5Glest4Game17AiInterfaceThreadC2EPNS0_11AiInterfaceE
megaglest:_ZN5Glest4Game17AiInterfaceThreadD0Ev
megaglest:_ZN5Glest4Game17AiInterfaceThreadD1Ev
megaglest:_ZN5Glest4Game17AiInterfaceThreadD2Ev
megaglest:_ZN5Glest4Game17AiRuleScoutPatrol4testEv
megaglest:_ZN5Glest4Game17AiRuleScoutPatrol7executeEv
megaglest:_ZN5Glest4Game17AiRuleScoutPatrolC1EPNS0_2AiE
megaglest:_ZN5Glest4Game17AiRuleScoutPatrolC2EPNS0_2AiE
megaglest:_ZN5Glest4Game17AttackCommandType4loadEiPKN6Shared3Xml7XmlNodeERKNSt7__cxx1112basic_stringIcSt11char_traitsIcESaIcEEEPKNS0_8TechTreeEPKNS0_11FactionTypeERKNS0_8UnitTypeERSt3mapISC_St6vectorISt4pairISC_SC_ESaISR_EESt4lessISC_ESaISQ_ISD_ST_EEESC_
megaglest:_ZN5Glest4Game17AttackCommandTypeC1Ev
megaglest:_ZN5Glest4Game17AttackCommandTypeC2Ev
megaglest:_ZN5Glest4Game17FogOfWarSkillType4loadEPKN6Shared3Xml7XmlNodeES6_RKNSt7__cxx1112basic_stringIcSt11char_traitsIcESaIcEEEPKNS0_8TechTreeEPKNS0_11FactionTypeERSt3mapISC_St6vectorISt4pairISC_SC_ESaISO_EESt4lessISC_ESaISN_ISD_SQ_EEESC_
megaglest:_ZN5Glest4Game17FogOfWarSkillType8saveGameEPN6Shared3Xml7XmlNodeE
megaglest:_ZN5Glest4Game17FogOfWarSkillTypeC1Ev
megaglest:_ZN5Glest4Game17FogOfWarSkillTypeC2Ev
megaglest:_ZN5Glest4Game17GraphicMessageBox10mouseClickEii
megaglest:_ZN5Glest4Game17GraphicMessageBox10mouseClickEiiRi
megaglest:_ZN5Glest4Game17GraphicMessageBox12alignButtonsEv
megaglest:_ZN5Glest4Game17GraphicMessageBox13removeButtonsEv
megaglest:_ZN5Glest4Game17GraphicMessageBox4defHE
megaglest:_ZN5Glest4Game17GraphicMessageBox4defWE
megaglest:_ZN5Glest4Game17GraphicMessageBox4initERKNSt7__cxx1112basic_stringIcSt11char_traitsIcESaIcEEES9_ii
megaglest:_ZN5Glest4Game17GraphicMessageBox4initERKNSt7__cxx1112basic_stringIcSt11char_traitsIcESaIcEEEii
megaglest:_ZN5Glest4Game17GraphicMessageBox4initEii
megaglest:_ZN5Glest4Game17GraphicMessageBox4setXEi
megaglest:_ZN5Glest4Game17GraphicMessageBox4setYEi
megaglest:_ZN5Glest4Game17GraphicMessageBox9addButtonERKNSt7__cxx1112basic_stringIcSt11char_traitsIcESaIcEEEii
megaglest:_ZN5Glest4Game17GraphicMessageBox9mouseMoveEii
megaglest:_ZN5Glest4Game17GraphicMessageBoxC1ENSt7__cxx1112basic_stringIcSt11char_traitsIcESaIcEEES7_
megaglest:_ZN5Glest4Game17GraphicMessageBoxC2ENSt7__cxx1112basic_stringIcSt11char_traitsIcESaIcEEES7_
megaglest:_ZN5Glest4Game17GraphicMessageBoxD0Ev
megaglest:_ZN5Glest4Game17GraphicMessageBoxD1Ev
megaglest:_ZN5Glest4Game17GraphicMessageBoxD2Ev
megaglest:_ZN5Glest4Game17MenuStateJoinGame10CommonInitEbN6Shared8Platform2IpEi
megaglest:_ZN5Glest4Game17MenuStateJoinGame10mouseClickEiiN6Shared8Platform11MouseButtonE
megaglest:_ZN5Glest4Game17MenuStateJoinGame14newServerIndexE
megaglest:_ZN5Glest4Game17MenuStateJoinGame14serverFileNameB5cxx11E
megaglest:_ZN5Glest4Game17MenuStateJoinGame15connectToServerEv
megaglest:_ZN5Glest4Game17MenuStateJoinGame17DiscoveredServersESt6vectorINSt7__cxx1112basic_stringIcSt11char_traitsIcESaIcEEESaIS8_EE
megaglest:_ZN5Glest4Game17MenuStateJoinGame17foundServersIndexE
megaglest:_ZN5Glest4Game17MenuStateJoinGame18newPrevServerIndexE
megaglest:_ZN5Glest4Game17MenuStateJoinGame6renderEv
megaglest:_ZN5Glest4Game17MenuStateJoinGame6updateEv
megaglest:_ZN5Glest4Game17MenuStateJoinGame7keyDownE17SDL_KeyboardEvent
megaglest:_ZN5Glest4Game17MenuStateJoinGame8keyPressE17SDL_KeyboardEvent
megaglest:_ZN5Glest4Game17MenuStateJoinGame8reloadUIEv
megaglest:_ZN5Glest4Game17MenuStateJoinGame9mouseMoveEiiPKN6Shared8Platform10MouseStateE
megaglest:_ZN5Glest4Game17MenuStateJoinGame9textInputENSt7__cxx1112basic_stringIcSt11char_traitsIcESaIcEEE
megaglest:_ZN5Glest4Game17MenuStateJoinGameC1EPNS0_7ProgramEPNS0_8MainMenuEPb
megaglest:_ZN5Glest4Game17MenuStateJoinGameC1EPNS0_7ProgramEPNS0_8MainMenuEbN6Shared8Platform2IpEi
megaglest:_ZN5Glest4Game17MenuStateJoinGameC2EPNS0_7ProgramEPNS0_8MainMenuEPb
megaglest:_ZN5Glest4Game17MenuStateJoinGameC2EPNS0_7ProgramEPNS0_8MainMenuEbN6Shared8Platform2IpEi
megaglest:_ZN5Glest4Game17MenuStateJoinGameD0Ev
megaglest:_ZN5Glest4Game17MenuStateJoinGameD1Ev
megaglest:_ZN5Glest4Game17MenuStateJoinGameD2Ev
megaglest:_ZN5Glest4Game17MenuStateKeysetup10mouseClickEiiN6Shared8Platform11MouseButtonE
megaglest:_ZN5Glest4Game17MenuStateKeysetup14showMessageBoxERKNSt7__cxx1112basic_stringIcSt11char_traitsIcESaIcEEES9_b
megaglest:_ZN5Glest4Game17MenuStateKeysetup16clearUserButtonsEv
megaglest:_ZN5Glest4Game17MenuStateKeysetup5keyUpE17SDL_KeyboardEvent
megaglest:_ZN5Glest4Game17MenuStateKeysetup6renderEv
megaglest:_ZN5Glest4Game17MenuStateKeysetup6updateEv
megaglest:_ZN5Glest4Game17MenuStateKeysetup7cleanupEv
megaglest:_ZN5Glest4Game17MenuStateKeysetup7keyDownE17SDL_KeyboardEvent
megaglest:_ZN5Glest4Game17MenuStateKeysetup7mouseUpEiiN6Shared8Platform11MouseButtonE
megaglest:_ZN5Glest4Game17MenuStateKeysetup8keyPressE17SDL_KeyboardEvent
megaglest:_ZN5Glest4Game17MenuStateKeysetup8reloadUIEv
megaglest:_ZN5Glest4Game17MenuStateKeysetup9mouseMoveEiiPKN6Shared8Platform10MouseStateE
megaglest:_ZN5Glest4Game17MenuStateKeysetupC1EPNS0_7ProgramEPNS0_8MainMenuEPPNS0_12ProgramStateE
megaglest:_ZN5Glest4Game17MenuStateKeysetupC2EPNS0_7ProgramEPNS0_8MainMenuEPPNS0_12ProgramStateE
megaglest:_ZN5Glest4Game17MenuStateKeysetupD0Ev
megaglest:_ZN5Glest4Game17MenuStateKeysetupD1Ev
megaglest:_ZN5Glest4Game17MenuStateKeysetupD2Ev
megaglest:_ZN5Glest4Game17MenuStateLoadGame10clearSlotsEv
megaglest:_ZN5Glest4Game17MenuStateLoadGame10mouseClickEiiN6Shared8Platform11MouseButtonE
megaglest:_ZN5Glest4Game17MenuStateLoadGame14cleanupTextureEPPN6Shared8Graphics9Texture2DE
megaglest:_ZN5Glest4Game17MenuStateLoadGame14showMessageBoxERKNSt7__cxx1112basic_stringIcSt11char_traitsIcESaIcEEES9_b
megaglest:_ZN5Glest4Game17MenuStateLoadGame6renderEv
megaglest:_ZN5Glest4Game17MenuStateLoadGame6updateEv
megaglest:_ZN5Glest4Game17MenuStateLoadGame7keyDownE17SDL_KeyboardEvent
megaglest:_ZN5Glest4Game17MenuStateLoadGame7mouseUpEiiN6Shared8Platform11MouseButtonE
megaglest:_ZN5Glest4Game17MenuStateLoadGame8reloadUIEv
megaglest:_ZN5Glest4Game17MenuStateLoadGame9listFilesEv
megaglest:_ZN5Glest4Game17MenuStateLoadGame9mouseMoveEiiPKN6Shared8Platform10MouseStateE
megaglest:_ZN5Glest4Game17MenuStateLoadGameC1EPNS0_7ProgramEPNS0_8MainMenuE
megaglest:_ZN5Glest4Game17MenuStateLoadGameC2EPNS0_7ProgramEPNS0_8MainMenuE
megaglest:_ZN5Glest4Game17MenuStateLoadGameD0Ev
megaglest:_ZN5Glest4Game17MenuStateLoadGameD1Ev
megaglest:_ZN5Glest4Game17MenuStateLoadGameD2Ev
megaglest:_ZN5Glest4Game17MenuStateScenario10launchGameEv
megaglest:_ZN5Glest4Game17MenuStateScenario10mouseClickEiiN6Shared8Platform11MouseButtonE
megaglest:_ZN5Glest4Game17MenuStateScenario11setScenarioEi
megaglest:_ZN5Glest4Game17MenuStateScenario14showMessageBoxERKNSt7__cxx1112basic_stringIcSt11char_traitsIcESaIcEEES9_b
megaglest:_ZN5Glest4Game17MenuStateScenario16loadGameSettingsEPKNS0_12ScenarioInfoEPNS0_12GameSettingsE
megaglest:_ZN5Glest4Game17MenuStateScenario16loadScenarioInfoENSt7__cxx1112basic_stringIcSt11char_traitsIcESaIcEEEPNS0_12ScenarioInfoE
megaglest:_ZN5Glest4Game17MenuStateScenario21cleanupPreviewTextureEv
megaglest:_ZN5Glest4Game17MenuStateScenario26loadScenarioPreviewTextureEv
megaglest:_ZN5Glest4Game17MenuStateScenario6renderEv
megaglest:_ZN5Glest4Game17MenuStateScenario6updateEv
megaglest:_ZN5Glest4Game17MenuStateScenario7keyDownE17SDL_KeyboardEvent
megaglest:_ZN5Glest4Game17MenuStateScenario8reloadUIEv
megaglest:_ZN5Glest4Game17MenuStateScenario9mouseMoveEiiPKN6Shared8Platform10MouseStateE
megaglest:_ZN5Glest4Game17MenuStateScenarioC1EPNS0_7ProgramEPNS0_8MainMenuEbRKSt6vectorINSt7__cxx1112basic_stringIcSt11char_traitsIcESaIcEEESaISC_EESC_
megaglest:_ZN5Glest4Game17MenuStateScenarioC2EPNS0_7ProgramEPNS0_8MainMenuEbRKSt6vectorINSt7__cxx1112basic_stringIcSt11char_traitsIcESaIcEEESaISC_EESC_
megaglest:_ZN5Glest4Game17MenuStateScenarioD0Ev
megaglest:_ZN5Glest4Game17MenuStateScenarioD1Ev
megaglest:_ZN5Glest4Game17MenuStateScenarioD2Ev
megaglest:_ZN5Glest4Game17RepairCommandType4loadEiPKN6Shared3Xml7XmlNodeERKNSt7__cxx1112basic_stringIcSt11char_traitsIcESaIcEEEPKNS0_8TechTreeEPKNS0_11FactionTypeERKNS0_8UnitTypeERSt3mapISC_St6vectorISt4pairISC_SC_ESaISR_EESt4lessISC_ESaISQ_ISD_ST_EEESC_
megaglest:_ZN5Glest4Game17RepairCommandTypeC1Ev
megaglest:_ZN5Glest4Game17RepairCommandTypeC2Ev
megaglest:_ZN5Glest4Game17RepairCommandTypeD0Ev
megaglest:_ZN5Glest4Game17RepairCommandTypeD1Ev
megaglest:_ZN5Glest4Game17RepairCommandTypeD2Ev
megaglest:_ZN5Glest4Game17TimerTriggerEvent8loadGameEPKN6Shared3Xml7XmlNodeE
megaglest:_ZN5Glest4Game17TimerTriggerEvent8saveGameEPN6Shared3Xml7XmlNodeE
megaglest:_ZN5Glest4Game17TimerTriggerEventC1Ev
megaglest:_ZN5Glest4Game17TimerTriggerEventC2Ev
megaglest:_ZN5Glest4Game17print_SDL_versionEPKcP11SDL_version
megaglest:_ZN5Glest4Game18AiRuleBuildOneFarm4testEv
megaglest:_ZN5Glest4Game18AiRuleBuildOneFarm7executeEv
megaglest:_ZN5Glest4Game18AiRuleBuildOneFarmC1EPNS0_2AiE
megaglest:_ZN5Glest4Game18AiRuleBuildOneFarmC2EPNS0_2AiE
megaglest:_ZN5Glest4Game18CommandTypeFactory11getInstanceEv
megaglest:_ZN5Glest4Game18CommandTypeFactoryC1Ev
megaglest:_ZN5Glest4Game18CommandTypeFactoryC2Ev
megaglest:_ZN5Glest4Game18HarvestCommandType4loadEiPKN6Shared3Xml7XmlNodeERKNSt7__cxx1112basic_stringIcSt11char_traitsIcESaIcEEEPKNS0_8TechTreeEPKNS0_11FactionTypeERKNS0_8UnitTypeERSt3mapISC_St6vectorISt4pairISC_SC_ESaISR_EESt4lessISC_ESaISQ_ISD_ST_EEESC_
megaglest:_ZN5Glest4Game18HarvestCommandTypeC1Ev
megaglest:_ZN5Glest4Game18HarvestCommandTypeC2Ev
megaglest:_ZN5Glest4Game18NetworkMessagePing10fromEndianEv
megaglest:_ZN5Glest4Game18NetworkMessagePing11packMessageEv
megaglest:_ZN5Glest4Game18NetworkMessagePing13getPackedSizeEv
megaglest:_ZN5Glest4Game18NetworkMessagePing13unpackMessageEPh
megaglest:_ZN5Glest4Game18NetworkMessagePing4sendEPN6Shared8Platform6SocketE
megaglest:_ZN5Glest4Game18NetworkMessagePing7receiveEPN6Shared8Platform6SocketE
megaglest:_ZN5Glest4Game18NetworkMessagePing8toEndianEv
megaglest:_ZN5Glest4Game18NetworkMessagePingC1Eil
megaglest:_ZN5Glest4Game18NetworkMessagePingC1Ev
megaglest:_ZN5Glest4Game18NetworkMessagePingC2Eil
megaglest:_ZN5Glest4Game18NetworkMessagePingC2Ev
megaglest:_ZN5Glest4Game18NetworkMessageQuit10fromEndianEv
megaglest:_ZN5Glest4Game18NetworkMessageQuit11packMessageEv
megaglest:_ZN5Glest4Game18NetworkMessageQuit13getPackedSizeEv
megaglest:_ZN5Glest4Game18NetworkMessageQuit13unpackMessageEPh
megaglest:_ZN5Glest4Game18NetworkMessageQuit4sendEPN6Shared8Platform6SocketE
megaglest:_ZN5Glest4Game18NetworkMessageQuit7receiveEPN6Shared8Platform6SocketE
megaglest:_ZN5Glest4Game18NetworkMessageQuit8toEndianEv
megaglest:_ZN5Glest4Game18NetworkMessageQuitC1Ev
megaglest:_ZN5Glest4Game18NetworkMessageQuitC2Ev
megaglest:_ZN5Glest4Game18NetworkMessageText10fromEndianEv
megaglest:_ZN5Glest4Game18NetworkMessageText11packMessageEv
megaglest:_ZN5Glest4Game18NetworkMessageText13getPackedSizeEv
megaglest:_ZN5Glest4Game18NetworkMessageText13unpackMessageEPh
megaglest:_ZN5Glest4Game18NetworkMessageText4sendEPN6Shared8Platform6SocketE
megaglest:_ZN5Glest4Game18NetworkMessageText7receiveEPN6Shared8Platform6SocketE
megaglest:_ZN5Glest4Game18NetworkMessageText8toEndianEv
megaglest:_ZN5Glest4Game18NetworkMessageTextC1ERKNSt7__cxx1112basic_stringIcSt11char_traitsIcESaIcEEEiiS7_
megaglest:_ZN5Glest4Game18NetworkMessageTextC1Ev
megaglest:_ZN5Glest4Game18NetworkMessageTextC2ERKNSt7__cxx1112basic_stringIcSt11char_traitsIcESaIcEEEiiS7_
megaglest:_ZN5Glest4Game18NetworkMessageTextC2Ev
megaglest:_ZN5Glest4Game18ParticleSystemType4loadEPKN6Shared3Xml7XmlNodeERKNSt7__cxx1112basic_stringIcSt11char_traitsIcESaIcEEEPNS2_8Graphics17RendererInterfaceERSt3mapISC_St6vectorISt4pairISC_SC_ESaISL_EESt4lessISC_ESaISK_ISD_SN_EEESC_SC_
megaglest:_ZN5Glest4Game18ParticleSystemType7copyAllERKS1_
megaglest:_ZN5Glest4Game18ParticleSystemType8loadGameEPKN6Shared3Xml7XmlNodeE
megaglest:_ZN5Glest4Game18ParticleSystemType8saveGameEPN6Shared3Xml7XmlNodeE
megaglest:_ZN5Glest4Game18ParticleSystemType9setValuesEPN6Shared8Graphics20AttackParticleSystemE
megaglest:_ZN5Glest4Game18ParticleSystemTypeC1ERKS1_
megaglest:_ZN5Glest4Game18ParticleSystemTypeC1Ev
megaglest:_ZN5Glest4Game18ParticleSystemTypeC2ERKS1_
megaglest:_ZN5Glest4Game18ParticleSystemTypeC2Ev
megaglest:_ZN5Glest4Game18ParticleSystemTypeD0Ev
megaglest:_ZN5Glest4Game18ParticleSystemTypeD1Ev
megaglest:_ZN5Glest4Game18ParticleSystemTypeD2Ev
megaglest:_ZN5Glest4Game18ParticleSystemTypeaSERKS1_
megaglest:_ZN5Glest4Game18PlayerIndexMessage10fromEndianEv
megaglest:_ZN5Glest4Game18PlayerIndexMessage11packMessageEv
megaglest:_ZN5Glest4Game18PlayerIndexMessage13getPackedSizeEv
megaglest:_ZN5Glest4Game18PlayerIndexMessage13unpackMessageEPh
megaglest:_ZN5Glest4Game18PlayerIndexMessage4sendEPN6Shared8Platform6SocketE
megaglest:_ZN5Glest4Game18PlayerIndexMessage7receiveEPN6Shared8Platform6SocketE
megaglest:_ZN5Glest4Game18PlayerIndexMessage8toEndianEv
megaglest:_ZN5Glest4Game18PlayerIndexMessageC1Es
megaglest:_ZN5Glest4Game18PlayerIndexMessageC2Es
megaglest:_ZN5Glest4Game18ProduceCommandType4loadEiPKN6Shared3Xml7XmlNodeERKNSt7__cxx1112basic_stringIcSt11char_traitsIcESaIcEEEPKNS0_8TechTreeEPKNS0_11FactionTypeERKNS0_8UnitTypeERSt3mapISC_St6vectorISt4pairISC_SC_ESaISR_EESt4lessISC_ESaISQ_ISD_ST_EEESC_
megaglest:_ZN5Glest4Game18ProduceCommandTypeC1Ev
megaglest:_ZN5Glest4Game18ProduceCommandTypeC2Ev
megaglest:_ZN5Glest4Game18SwitchSetupRequest10fromEndianEv
megaglest:_ZN5Glest4Game18SwitchSetupRequest11packMessageEv
megaglest:_ZN5Glest4Game18SwitchSetupRequest13getPackedSizeEv
megaglest:_ZN5Glest4Game18SwitchSetupRequest13unpackMessageEPh
megaglest:_ZN5Glest4Game18SwitchSetupRequest4sendEPN6Shared8Platform6SocketE
megaglest:_ZN5Glest4Game18SwitchSetupRequest7receiveEPN6Shared8Platform6SocketE
megaglest:_ZN5Glest4Game18SwitchSetupRequest8toEndianEv
megaglest:_ZN5Glest4Game18SwitchSetupRequestC1ENSt7__cxx1112basic_stringIcSt11char_traitsIcESaIcEEEcccS7_ccS7_
megaglest:_ZN5Glest4Game18SwitchSetupRequestC1Ev
megaglest:_ZN5Glest4Game18SwitchSetupRequestC2ENSt7__cxx1112basic_stringIcSt11char_traitsIcESaIcEEEcccS7_ccS7_
megaglest:_ZN5Glest4Game18SwitchSetupRequestC2Ev
megaglest:_ZN5Glest4Game18UpgradeCommandType4loadEiPKN6Shared3Xml7XmlNodeERKNSt7__cxx1112basic_stringIcSt11char_traitsIcESaIcEEEPKNS0_8TechTreeEPKNS0_11FactionTypeERKNS0_8UnitTypeERSt3mapISC_St6vectorISt4pairISC_SC_ESaISR_EESt4lessISC_ESaISQ_ISD_ST_EEESC_
megaglest:_ZN5Glest4Game18UpgradeCommandTypeC1Ev
megaglest:_ZN5Glest4Game18UpgradeCommandTypeC2Ev
megaglest:_ZN5Glest4Game18computeCenteredPosERKNSt7__cxx1112basic_stringIcSt11char_traitsIcESaIcEEEPN6Shared8Graphics6Font2DEii
megaglest:_ZN5Glest4Game18computeCenteredPosERKNSt7__cxx1112basic_stringIcSt11char_traitsIcESaIcEEEPN6Shared8Graphics6Font3DEii
megaglest:_ZN5Glest4Game18getCompileDateTimeB5cxx11Ev
megaglest:_ZN5Glest4Game18glestVersionStringB5cxx11E
megaglest:_ZN5Glest4Game18initSpecialStringsEv
megaglest:_ZN5Glest4Game18setupGameItemPathsEiPPcPNS0_6ConfigE
megaglest:_ZN5Glest4Game18upgradeFilesInTempEv
megaglest:_ZN5Glest4Game19AiRuleMassiveAttack4testEv
megaglest:_ZN5Glest4Game19AiRuleMassiveAttack7executeEv
megaglest:_ZN5Glest4Game19AiRuleMassiveAttackC1EPNS0_2AiE
megaglest:_ZN5Glest4Game19AiRuleMassiveAttackC2EPNS0_2AiE
megaglest:_ZN5Glest4Game19AiRuleWorkerHarvest4testEv
megaglest:_ZN5Glest4Game19AiRuleWorkerHarvest7executeEv
megaglest:_ZN5Glest4Game19AiRuleWorkerHarvestC1EPNS0_2AiE
megaglest:_ZN5Glest4Game19AiRuleWorkerHarvestC2EPNS0_2AiE
megaglest:_ZN5Glest4Game19MenuStateCustomGame10mouseClickEiiN6Shared8Platform11MouseButtonE
megaglest:_ZN5Glest4Game19MenuStateCustomGame10simpleTaskEPN6Shared14PlatformCommon10BaseThreadEPv
megaglest:_ZN5Glest4Game19MenuStateCustomGame11loadMapInfoENSt7__cxx1112basic_stringIcSt11char_traitsIcESaIcEEEPN6Shared3Map7MapInfoEb
megaglest:_ZN5Glest4Game19MenuStateCustomGame12setSlotHumanEi
megaglest:_ZN5Glest4Game19MenuStateCustomGame12setupMapListENSt7__cxx1112basic_stringIcSt11char_traitsIcESaIcEEE
megaglest:_ZN5Glest4Game19MenuStateCustomGame12shutdownTaskEPN6Shared14PlatformCommon10BaseThreadEPv
megaglest:_ZN5Glest4Game19MenuStateCustomGame13cleanupThreadEPPN6Shared14PlatformCommon16SimpleTaskThreadE
megaglest:_ZN5Glest4Game19MenuStateCustomGame13setupTechListENSt7__cxx1112basic_stringIcSt11char_traitsIcESaIcEEEb
megaglest:_ZN5Glest4Game19MenuStateCustomGame14createGameNameENSt7__cxx1112basic_stringIcSt11char_traitsIcESaIcEEE
megaglest:_ZN5Glest4Game19MenuStateCustomGame14isVideoPlayingEv
megaglest:_ZN5Glest4Game19MenuStateCustomGame14reloadFactionsEbNSt7__cxx1112basic_stringIcSt11char_traitsIcESaIcEEE
megaglest:_ZN5Glest4Game19MenuStateCustomGame14showMessageBoxERKNSt7__cxx1112basic_stringIcSt11char_traitsIcESaIcEEES9_b
megaglest:_ZN5Glest4Game19MenuStateCustomGame15processScenarioEv
megaglest:_ZN5Glest4Game19MenuStateCustomGame15setupTaskStaticEPN6Shared14PlatformCommon10BaseThreadE
megaglest:_ZN5Glest4Game19MenuStateCustomGame16closeUnusedSlotsEv
megaglest:_ZN5Glest4Game19MenuStateCustomGame16loadGameSettingsENSt7__cxx1112basic_stringIcSt11char_traitsIcESaIcEEE
megaglest:_ZN5Glest4Game19MenuStateCustomGame16loadGameSettingsEPNS0_12GameSettingsEb
megaglest:_ZN5Glest4Game19MenuStateCustomGame16loadScenarioInfoENSt7__cxx1112basic_stringIcSt11char_traitsIcESaIcEEEPNS0_12ScenarioInfoE
megaglest:_ZN5Glest4Game19MenuStateCustomGame16setupTilesetListENSt7__cxx1112basic_stringIcSt11char_traitsIcESaIcEEE
megaglest:_ZN5Glest4Game19MenuStateCustomGame16updateControlersEv
megaglest:_ZN5Glest4Game19MenuStateCustomGame17getCurrentMapFileB5cxx11Ev
megaglest:_ZN5Glest4Game19MenuStateCustomGame18getHumanPlayerNameB5cxx11Ei
megaglest:_ZN5Glest4Game19MenuStateCustomGame18initFactionPreviewEPKNS0_12GameSettingsE
megaglest:_ZN5Glest4Game19MenuStateCustomGame18loadFactionTextureENSt7__cxx1112basic_stringIcSt11char_traitsIcESaIcEEE
megaglest:_ZN5Glest4Game19MenuStateCustomGame18returnToParentMenuEv
megaglest:_ZN5Glest4Game19MenuStateCustomGame18shutdownTaskStaticEPN6Shared14PlatformCommon10BaseThreadE
megaglest:_ZN5Glest4Game19MenuStateCustomGame18updateNetworkSlotsEv
megaglest:_ZN5Glest4Game19MenuStateCustomGame19SetupUIForScenariosEv
megaglest:_ZN5Glest4Game19MenuStateCustomGame19setActiveInputLabelEPNS0_12GraphicLabelE
megaglest:_ZN5Glest4Game19MenuStateCustomGame19switchSetupForSlotsEPPNS0_18SwitchSetupRequestERPNS0_15ServerInterfaceEiib
megaglest:_ZN5Glest4Game19MenuStateCustomGame20simpleTaskForClientsEPN6Shared14PlatformCommon10BaseThreadE
megaglest:_ZN5Glest4Game19MenuStateCustomGame20switchToNextMapGroupEi
megaglest:_ZN5Glest4Game19MenuStateCustomGame21publishToMasterserverEv
megaglest:_ZN5Glest4Game19MenuStateCustomGame22getNetworkPlayerStatusEv
megaglest:_ZN5Glest4Game19MenuStateCustomGame22hasNetworkGameSettingsEv
megaglest:_ZN5Glest4Game19MenuStateCustomGame22lastPlayerDisconnectedEv
megaglest:_ZN5Glest4Game19MenuStateCustomGame22saveGameSettingsToFileENSt7__cxx1112basic_stringIcSt11char_traitsIcESaIcEEE
megaglest:_ZN5Glest4Game19MenuStateCustomGame23RestoreLastGameSettingsEv
megaglest:_ZN5Glest4Game19MenuStateCustomGame23setupUIFromGameSettingsERKNS0_12GameSettingsE
megaglest:_ZN5Glest4Game19MenuStateCustomGame24cleanupMapPreviewTextureEv
megaglest:_ZN5Glest4Game19MenuStateCustomGame24loadGameSettingsFromFileENSt7__cxx1112basic_stringIcSt11char_traitsIcESaIcEEE
megaglest:_ZN5Glest4Game19MenuStateCustomGame24updateResourceMultiplierEi
megaglest:_ZN5Glest4Game19MenuStateCustomGame25simpleTaskForMasterServerEPN6Shared14PlatformCommon10BaseThreadE
megaglest:_ZN5Glest4Game19MenuStateCustomGame26isInSpecialKeyCaptureEventEv
megaglest:_ZN5Glest4Game19MenuStateCustomGame27KeepCurrentHumanPlayerSlotsERNS0_12GameSettingsE
megaglest:_ZN5Glest4Game19MenuStateCustomGame27checkNetworkPlayerDataSynchEbbb
megaglest:_ZN5Glest4Game19MenuStateCustomGame27updateAllResourceMultiplierEv
megaglest:_ZN5Glest4Game19MenuStateCustomGame5keyUpE17SDL_KeyboardEvent
megaglest:_ZN5Glest4Game19MenuStateCustomGame6renderEv
megaglest:_ZN5Glest4Game19MenuStateCustomGame6updateEv
megaglest:_ZN5Glest4Game19MenuStateCustomGame7PlayNowEb
megaglest:_ZN5Glest4Game19MenuStateCustomGame7cleanupEv
megaglest:_ZN5Glest4Game19MenuStateCustomGame7keyDownE17SDL_KeyboardEvent
megaglest:_ZN5Glest4Game19MenuStateCustomGame8keyPressE17SDL_KeyboardEvent
megaglest:_ZN5Glest4Game19MenuStateCustomGame8reloadUIEv
megaglest:_ZN5Glest4Game19MenuStateCustomGame9mouseMoveEiiPKN6Shared8Platform10MouseStateE
megaglest:_ZN5Glest4Game19MenuStateCustomGame9setupTaskEPN6Shared14PlatformCommon10BaseThreadEPv
megaglest:_ZN5Glest4Game19MenuStateCustomGame9textInputENSt7__cxx1112basic_stringIcSt11char_traitsIcESaIcEEE
megaglest:_ZN5Glest4Game19MenuStateCustomGameC1EPNS0_7ProgramEPNS0_8MainMenuEbNS0_15ParentMenuStateEbPNS0_12GameSettingsEbNSt7__cxx1112basic_stringIcSt11char_traitsIcESaIcEEE
megaglest:_ZN5Glest4Game19MenuStateCustomGameC2EPNS0_7ProgramEPNS0_8MainMenuEbNS0_15ParentMenuStateEbPNS0_12GameSettingsEbNSt7__cxx1112basic_stringIcSt11char_traitsIcESaIcEEE
megaglest:_ZN5Glest4Game19MenuStateCustomGameD0Ev
megaglest:_ZN5Glest4Game19MenuStateCustomGameD1Ev
megaglest:_ZN5Glest4Game19MenuStateCustomGameD2Ev
megaglest:_ZN5Glest4Game19NetworkMessageIntro10fromEndianEv
megaglest:_ZN5Glest4Game19NetworkMessageIntro11packMessageEv
megaglest:_ZN5Glest4Game19NetworkMessageIntro13getPackedSizeEv
megaglest:_ZN5Glest4Game19NetworkMessageIntro13unpackMessageEPh
megaglest:_ZN5Glest4Game19NetworkMessageIntro4sendEPN6Shared8Platform6SocketE
megaglest:_ZN5Glest4Game19NetworkMessageIntro7receiveEPN6Shared8Platform6SocketE
megaglest:_ZN5Glest4Game19NetworkMessageIntro8toEndianEv
megaglest:_ZN5Glest4Game19NetworkMessageIntroC1EiRKNSt7__cxx1112basic_stringIcSt11char_traitsIcESaIcEEES9_iNS0_20NetworkGameStateTypeEjjS9_iS9_S9_
megaglest:_ZN5Glest4Game19NetworkMessageIntroC1Ev
megaglest:_ZN5Glest4Game19NetworkMessageIntroC2EiRKNSt7__cxx1112basic_stringIcSt11char_traitsIcESaIcEEES9_iNS0_20NetworkGameStateTypeEjjS9_iS9_S9_
megaglest:_ZN5Glest4Game19NetworkMessageIntroC2Ev
megaglest:_ZN5Glest4Game19NetworkMessageReady10fromEndianEv
megaglest:_ZN5Glest4Game19NetworkMessageReady11packMessageEv
megaglest:_ZN5Glest4Game19NetworkMessageReady13getPackedSizeEv
megaglest:_ZN5Glest4Game19NetworkMessageReady13unpackMessageEPh
megaglest:_ZN5Glest4Game19NetworkMessageReady4sendEPN6Shared8Platform6SocketE
megaglest:_ZN5Glest4Game19NetworkMessageReady7receiveEPN6Shared8Platform6SocketE
megaglest:_ZN5Glest4Game19NetworkMessageReady8toEndianEv
megaglest:_ZN5Glest4Game19NetworkMessageReadyC1Ej
megaglest:_ZN5Glest4Game19NetworkMessageReadyC1Ev
megaglest:_ZN5Glest4Game19NetworkMessageReadyC2Ej
megaglest:_ZN5Glest4Game19NetworkMessageReadyC2Ev
megaglest:_ZN5Glest4Game19PosCircularIterator4nextEv
megaglest:_ZN5Glest4Game19PosCircularIterator6getPosEv
megaglest:_ZN5Glest4Game19PosCircularIteratorC1EPKNS0_3MapERKN6Shared8Graphics4Vec2IiEEi
megaglest:_ZN5Glest4Game19PosCircularIteratorC2EPKNS0_3MapERKN6Shared8Graphics4Vec2IiEEi
megaglest:_ZN5Glest4Game19glestMainSEHWrapperEiPPc
megaglest:_ZN5Glest4Game20ConnectionSlotThread11canShutdownEb
megaglest:_ZN5Glest4Game20ConnectionSlotThread11signalSlaveEPv
megaglest:_ZN5Glest4Game20ConnectionSlotThread12signalUpdateEPNS0_19ConnectionSlotEventE
megaglest:_ZN5Glest4Game20ConnectionSlotThread13setQuitStatusEb
megaglest:_ZN5Glest4Game20ConnectionSlotThread14getGameStartedEv
megaglest:_ZN5Glest4Game20ConnectionSlotThread14purgeAllEventsEv
megaglest:_ZN5Glest4Game20ConnectionSlotThread14setGameStartedEb
megaglest:_ZN5Glest4Game20ConnectionSlotThread14slotUpdateTaskEPNS0_19ConnectionSlotEventE
megaglest:_ZN5Glest4Game20ConnectionSlotThread16setTaskCompletedEi
megaglest:_ZN5Glest4Game20ConnectionSlotThread17isSignalCompletedEPNS0_19ConnectionSlotEventE
megaglest:_ZN5Glest4Game20ConnectionSlotThread20purgeCompletedEventsEv
megaglest:_ZN5Glest4Game20ConnectionSlotThread21setAllEventsCompletedEv
megaglest:_ZN5Glest4Game20ConnectionSlotThread7executeEv
megaglest:_ZN5Glest4Game20ConnectionSlotThreadC1EPNS0_31ConnectionSlotCallbackInterfaceEi
megaglest:_ZN5Glest4Game20ConnectionSlotThreadC1Ei
megaglest:_ZN5Glest4Game20ConnectionSlotThreadC2EPNS0_31ConnectionSlotCallbackInterfaceEi
megaglest:_ZN5Glest4Game20ConnectionSlotThreadC2Ei
megaglest:_ZN5Glest4Game20ConnectionSlotThreadD0Ev
megaglest:_ZN5Glest4Game20ConnectionSlotThreadD1Ev
megaglest:_ZN5Glest4Game20ConnectionSlotThreadD2Ev
megaglest:_ZN5Glest4Game20GameNetworkInterface14requestCommandEPKNS0_14NetworkCommandEb
megaglest:_ZN5Glest4Game20GameNetworkInterfaceC1Ev
megaglest:_ZN5Glest4Game20GameNetworkInterfaceC2Ev
megaglest:_ZN5Glest4Game20MenuStateGraphicInfo10mouseClickEiiN6Shared8Platform11MouseButtonE
megaglest:_ZN5Glest4Game20MenuStateGraphicInfo6renderEv
megaglest:_ZN5Glest4Game20MenuStateGraphicInfo7keyDownE17SDL_KeyboardEvent
megaglest:_ZN5Glest4Game20MenuStateGraphicInfo8reloadUIEv
megaglest:_ZN5Glest4Game20MenuStateGraphicInfo9mouseMoveEiiPKN6Shared8Platform10MouseStateE
megaglest:_ZN5Glest4Game20MenuStateGraphicInfoC1EPNS0_7ProgramEPNS0_8MainMenuE
megaglest:_ZN5Glest4Game20MenuStateGraphicInfoC2EPNS0_7ProgramEPNS0_8MainMenuE
megaglest:_ZN5Glest4Game20NetworkMessageLaunch10fromEndianEv
megaglest:_ZN5Glest4Game20NetworkMessageLaunch11packMessageEv
megaglest:_ZN5Glest4Game20NetworkMessageLaunch13getPackedSizeEv
megaglest:_ZN5Glest4Game20NetworkMessageLaunch13unpackMessageEPh
megaglest:_ZN5Glest4Game20NetworkMessageLaunch20getCompressedMessageEv
megaglest:_ZN5Glest4Game20NetworkMessageLaunch4sendEPN6Shared8Platform6SocketE
megaglest:_ZN5Glest4Game20NetworkMessageLaunch7getDataEv
megaglest:_ZN5Glest4Game20NetworkMessageLaunch7receiveEPN6Shared8Platform6SocketE
megaglest:_ZN5Glest4Game20NetworkMessageLaunch7receiveEPN6Shared8Platform6SocketENS0_18NetworkMessageTypeE
megaglest:_ZN5Glest4Game20NetworkMessageLaunch8toEndianEv
megaglest:_ZN5Glest4Game20NetworkMessageLaunchC1EPKNS0_12GameSettingsEc
megaglest:_ZN5Glest4Game20NetworkMessageLaunchC1Ev
megaglest:_ZN5Glest4Game20NetworkMessageLaunchC2EPKNS0_12GameSettingsEc
megaglest:_ZN5Glest4Game20NetworkMessageLaunchC2Ev
megaglest:_ZN5Glest4Game20ScriptManagerMessage8loadGameEPKN6Shared3Xml7XmlNodeE
megaglest:_ZN5Glest4Game20ScriptManagerMessage8saveGameEPN6Shared3Xml7XmlNodeE
megaglest:_ZN5Glest4Game20ScriptManagerMessageC1ENSt7__cxx1112basic_stringIcSt11char_traitsIcESaIcEEES7_iib
megaglest:_ZN5Glest4Game20ScriptManagerMessageC1Ev
megaglest:_ZN5Glest4Game20ScriptManagerMessageC2ENSt7__cxx1112basic_stringIcSt11char_traitsIcESaIcEEES7_iib
megaglest:_ZN5Glest4Game20ScriptManagerMessageC2Ev
megaglest:_ZN5Glest4Game20getCrashDumpFileNameB5cxx11Ev
megaglest:_ZN5Glest4Game20getGITRevisionStringB5cxx11Ev
megaglest:_ZN5Glest4Game20getGameReadWritePathENSt7__cxx1112basic_stringIcSt11char_traitsIcESaIcEEE
megaglest:_ZN5Glest4Game21CheckForDuplicateDataEv
megaglest:_ZN5Glest4Game21ClientInterfaceThread11canShutdownEb
megaglest:_ZN5Glest4Game21ClientInterfaceThread13setQuitStatusEb
megaglest:_ZN5Glest4Game21ClientInterfaceThread7executeEv
megaglest:_ZN5Glest4Game21ClientInterfaceThreadC1EPNS0_15ClientInterfaceE
megaglest:_ZN5Glest4Game21ClientInterfaceThreadC2EPNS0_15ClientInterfaceE
megaglest:_ZN5Glest4Game21ClientInterfaceThreadD0Ev
megaglest:_ZN5Glest4Game21ClientInterfaceThreadD1Ev
megaglest:_ZN5Glest4Game21ClientInterfaceThreadD2Ev
megaglest:_ZN5Glest4Game21DamageMultiplierTable19setDamageMultiplierEPKNS0_10AttackTypeEPKNS0_9ArmorTypeEd
megaglest:_ZN5Glest4Game21DamageMultiplierTable4initEii
megaglest:_ZN5Glest4Game21DamageMultiplierTable8saveGameEPN6Shared3Xml7XmlNodeE
megaglest:_ZN5Glest4Game21DamageMultiplierTableC1Ev
megaglest:_ZN5Glest4Game21DamageMultiplierTableC2Ev
megaglest:_ZN5Glest4Game21DamageMultiplierTableD1Ev
megaglest:_ZN5Glest4Game21DamageMultiplierTableD2Ev
megaglest:_ZN5Glest4Game21MenuStateMasterserver10mouseClickEiiN6Shared8Platform11MouseButtonE
megaglest:_ZN5Glest4Game21MenuStateMasterserver10simpleTaskEPN6Shared14PlatformCommon10BaseThreadEPv
megaglest:_ZN5Glest4Game21MenuStateMasterserver13setConsolePosEi
megaglest:_ZN5Glest4Game21MenuStateMasterserver14showMessageBoxERKNSt7__cxx1112basic_stringIcSt11char_traitsIcESaIcEEES9_b
megaglest:_ZN5Glest4Game21MenuStateMasterserver15connectToServerENSt7__cxx1112basic_stringIcSt11char_traitsIcESaIcEEEi
megaglest:_ZN5Glest4Game21MenuStateMasterserver16clearServerLinesEv
megaglest:_ZN5Glest4Game21MenuStateMasterserver16clearUserButtonsEv
megaglest:_ZN5Glest4Game21MenuStateMasterserver17IRC_CallbackEventEN6Shared14PlatformCommon12IRCEventTypeEPKcPS6_j
megaglest:_ZN5Glest4Game21MenuStateMasterserver18pCB_DisplayMessageE
megaglest:_ZN5Glest4Game21MenuStateMasterserver18rebuildServerLinesERKNSt7__cxx1112basic_stringIcSt11char_traitsIcESaIcEEE
megaglest:_ZN5Glest4Game21MenuStateMasterserver21setButtonLinePositionEi
megaglest:_ZN5Glest4Game21MenuStateMasterserver6renderEv
megaglest:_ZN5Glest4Game21MenuStateMasterserver6updateEv
megaglest:_ZN5Glest4Game21MenuStateMasterserver7cleanupEv
megaglest:_ZN5Glest4Game21MenuStateMasterserver7keyDownE17SDL_KeyboardEvent
megaglest:_ZN5Glest4Game21MenuStateMasterserver7mouseUpEiiN6Shared8Platform11MouseButtonE
megaglest:_ZN5Glest4Game21MenuStateMasterserver8reloadUIEv
megaglest:_ZN5Glest4Game21MenuStateMasterserver9mouseMoveEiiPKN6Shared8Platform10MouseStateE
megaglest:_ZN5Glest4Game21MenuStateMasterserver9textInputENSt7__cxx1112basic_stringIcSt11char_traitsIcESaIcEEE
megaglest:_ZN5Glest4Game21MenuStateMasterserverC1EPNS0_7ProgramEPNS0_8MainMenuE
megaglest:_ZN5Glest4Game21MenuStateMasterserverC2EPNS0_7ProgramEPNS0_8MainMenuE
megaglest:_ZN5Glest4Game21MenuStateMasterserverD0Ev
megaglest:_ZN5Glest4Game21MenuStateMasterserverD1Ev
megaglest:_ZN5Glest4Game21MenuStateMasterserverD2Ev
megaglest:_ZN5Glest4Game21MenuStateOptionsSound10mouseClickEiiN6Shared8Platform11MouseButtonE
megaglest:_ZN5Glest4Game21MenuStateOptionsSound10saveConfigEv
megaglest:_ZN5Glest4Game21MenuStateOptionsSound19setActiveInputLableEPNS0_12GraphicLabelE
megaglest:_ZN5Glest4Game21MenuStateOptionsSound6renderEv
megaglest:_ZN5Glest4Game21MenuStateOptionsSound8keyPressE17SDL_KeyboardEvent
megaglest:_ZN5Glest4Game21MenuStateOptionsSound8reloadUIEv
megaglest:_ZN5Glest4Game21MenuStateOptionsSound9mouseMoveEiiPKN6Shared8Platform10MouseStateE
megaglest:_ZN5Glest4Game21MenuStateOptionsSoundC1EPNS0_7ProgramEPNS0_8MainMenuEPPNS0_12ProgramStateE
megaglest:_ZN5Glest4Game21MenuStateOptionsSoundC2EPNS0_7ProgramEPNS0_8MainMenuEPPNS0_12ProgramStateE
megaglest:_ZN5Glest4Game21MeshCallbackTeamColor12noTeamColorsE
megaglest:_ZN5Glest4Game21MeshCallbackTeamColor7executeEPKN6Shared8Graphics4MeshE
megaglest:_ZN5Glest4Game21SwitchTeamCommandType4loadEiPKN6Shared3Xml7XmlNodeERKNSt7__cxx1112basic_stringIcSt11char_traitsIcESaIcEEEPKNS0_8TechTreeEPKNS0_11FactionTypeERKNS0_8UnitTypeERSt3mapISC_St6vectorISt4pairISC_SC_ESaISR_EESt4lessISC_ESaISQ_ISD_ST_EEESC_
megaglest:_ZN5Glest4Game21SwitchTeamCommandTypeC1Ev
megaglest:_ZN5Glest4Game21SwitchTeamCommandTypeC2Ev
megaglest:_ZN5Glest4Game21UnitAttackBoostEffect31applyLoadedAttackBoostParticlesEPNS0_22UnitParticleSystemTypeEPKN6Shared3Xml7XmlNodeEPNS0_4UnitE
megaglest:_ZN5Glest4Game21UnitAttackBoostEffect8loadGameEPKN6Shared3Xml7XmlNodeEPNS0_4UnitEPNS0_5WorldEb
megaglest:_ZN5Glest4Game21UnitAttackBoostEffect8saveGameEPN6Shared3Xml7XmlNodeE
megaglest:_ZN5Glest4Game21UnitAttackBoostEffect9getSourceEv
megaglest:_ZN5Glest4Game21UnitAttackBoostEffect9setSourceEPKNS0_4UnitE
megaglest:_ZN5Glest4Game21UnitAttackBoostEffectC1Ev
megaglest:_ZN5Glest4Game21UnitAttackBoostEffectC2Ev
megaglest:_ZN5Glest4Game21UnitAttackBoostEffectD0Ev
megaglest:_ZN5Glest4Game21UnitAttackBoostEffectD1Ev
megaglest:_ZN5Glest4Game21UnitAttackBoostEffectD2Ev
megaglest:_ZN5Glest4Game21fadeMusicMillisecondsE
megaglest:_ZN5Glest4Game21getCompilerNameStringB5cxx11Ev
megaglest:_ZN5Glest4Game21getPlatformNameStringB5cxx11Ev
megaglest:_ZN5Glest4Game21handleListDataCommandEiPPc
megaglest:_ZN5Glest4Game22AiRuleRefreshHarvester4testEv
megaglest:_ZN5Glest4Game22AiRuleRefreshHarvester7executeEv
megaglest:_ZN5Glest4Game22AiRuleRefreshHarvesterC1EPNS0_2AiE
megaglest:_ZN5Glest4Game22AiRuleRefreshHarvesterC2EPNS0_2AiE
megaglest:_ZN5Glest4Game22CommandGroupUnitSorter7compareEPKNS0_4UnitES4_
megaglest:_ZN5Glest4Game22CommandGroupUnitSorterclEPKNS0_4UnitES4_
megaglest:_ZN5Glest4Game22LAG_CHECK_GRACE_PERIODE
megaglest:_ZN5Glest4Game22MenuStateConnectedGame10mouseClickEiiN6Shared8Platform11MouseButtonE
megaglest:_ZN5Glest4Game22MenuStateConnectedGame10simpleTaskEPN6Shared14PlatformCommon10BaseThreadEPv
megaglest:_ZN5Glest4Game22MenuStateConnectedGame11loadMapInfoENSt7__cxx1112basic_stringIcSt11char_traitsIcESaIcEEEPN6Shared3Map7MapInfoEb
megaglest:_ZN5Glest4Game22MenuStateConnectedGame12loadFactionsEPKNS0_12GameSettingsEb
megaglest:_ZN5Glest4Game22MenuStateConnectedGame12setupMapListENSt7__cxx1112basic_stringIcSt11char_traitsIcESaIcEEE
megaglest:_ZN5Glest4Game22MenuStateConnectedGame13setupTechListENSt7__cxx1112basic_stringIcSt11char_traitsIcESaIcEEEb
megaglest:_ZN5Glest4Game22MenuStateConnectedGame14isVideoPlayingEv
megaglest:_ZN5Glest4Game22MenuStateConnectedGame14reloadFactionsEbNSt7__cxx1112basic_stringIcSt11char_traitsIcESaIcEEE
megaglest:_ZN5Glest4Game22MenuStateConnectedGame14showMessageBoxERKNSt7__cxx1112basic_stringIcSt11char_traitsIcESaIcEEES9_b
megaglest:_ZN5Glest4Game22MenuStateConnectedGame15isHeadlessAdminEv
megaglest:_ZN5Glest4Game22MenuStateConnectedGame15mouseClickAdminEiiN6Shared8Platform11MouseButtonENSt7__cxx1112basic_stringIcSt11char_traitsIcESaIcEEE
megaglest:_ZN5Glest4Game22MenuStateConnectedGame16loadGameSettingsEPNS0_12GameSettingsE
megaglest:_ZN5Glest4Game22MenuStateConnectedGame16loadScenarioInfoENSt7__cxx1112basic_stringIcSt11char_traitsIcESaIcEEEPNS0_12ScenarioInfoE
megaglest:_ZN5Glest4Game22MenuStateConnectedGame16returnToJoinMenuEv
megaglest:_ZN5Glest4Game22MenuStateConnectedGame16setupTilesetListENSt7__cxx1112basic_stringIcSt11char_traitsIcESaIcEEE
megaglest:_ZN5Glest4Game22MenuStateConnectedGame16switchToMapGroupEi
megaglest:_ZN5Glest4Game22MenuStateConnectedGame17getCurrentMapFileB5cxx11Ev
megaglest:_ZN5Glest4Game22MenuStateConnectedGame17refreshMapModInfoENSt7__cxx1112basic_stringIcSt11char_traitsIcESaIcEEE
megaglest:_ZN5Glest4Game22MenuStateConnectedGame17showFTPMessageBoxERKNSt7__cxx1112basic_stringIcSt11char_traitsIcESaIcEEES9_b
megaglest:_ZN5Glest4Game22MenuStateConnectedGame18getHumanPlayerNameB5cxx11Ev
megaglest:_ZN5Glest4Game22MenuStateConnectedGame18initFactionPreviewEPKNS0_12GameSettingsE
megaglest:_ZN5Glest4Game22MenuStateConnectedGame18loadFactionTextureENSt7__cxx1112basic_stringIcSt11char_traitsIcESaIcEEE
megaglest:_ZN5Glest4Game22MenuStateConnectedGame18refreshTechModInfoENSt7__cxx1112basic_stringIcSt11char_traitsIcESaIcEEE
megaglest:_ZN5Glest4Game22MenuStateConnectedGame19setActiveInputLabelEPNS0_12GraphicLabelE
megaglest:_ZN5Glest4Game22MenuStateConnectedGame20disconnectFromServerEv
megaglest:_ZN5Glest4Game22MenuStateConnectedGame20switchToNextMapGroupEi
megaglest:_ZN5Glest4Game22MenuStateConnectedGame21refreshTilesetModInfoENSt7__cxx1112basic_stringIcSt11char_traitsIcESaIcEEE
megaglest:_ZN5Glest4Game22MenuStateConnectedGame22getNetworkPlayerStatusEv
megaglest:_ZN5Glest4Game22MenuStateConnectedGame22hasNetworkGameSettingsEv
megaglest:_ZN5Glest4Game22MenuStateConnectedGame23FTPClient_CallbackEventENSt7__cxx1112basic_stringIcSt11char_traitsIcESaIcEEEN6Shared14PlatformCommon23FTP_Client_CallbackTypeESt4pairINS9_21FTP_Client_ResultTypeES7_EPv
megaglest:_ZN5Glest4Game22MenuStateConnectedGame23RestoreLastGameSettingsEv
megaglest:_ZN5Glest4Game22MenuStateConnectedGame23setupUIFromGameSettingsEPNS0_12GameSettingsEb
megaglest:_ZN5Glest4Game22MenuStateConnectedGame24cleanupMapPreviewTextureEv
megaglest:_ZN5Glest4Game22MenuStateConnectedGame24updateResourceMultiplierEi
megaglest:_ZN5Glest4Game22MenuStateConnectedGame26isInSpecialKeyCaptureEventEv
megaglest:_ZN5Glest4Game22MenuStateConnectedGame37broadCastGameSettingsToHeadlessServerEb
megaglest:_ZN5Glest4Game22MenuStateConnectedGame5keyUpE17SDL_KeyboardEvent
megaglest:_ZN5Glest4Game22MenuStateConnectedGame6renderEv
megaglest:_ZN5Glest4Game22MenuStateConnectedGame6updateEv
megaglest:_ZN5Glest4Game22MenuStateConnectedGame7PlayNowEb
megaglest:_ZN5Glest4Game22MenuStateConnectedGame7keyDownE17SDL_KeyboardEvent
megaglest:_ZN5Glest4Game22MenuStateConnectedGame8keyPressE17SDL_KeyboardEvent
megaglest:_ZN5Glest4Game22MenuStateConnectedGame8reloadUIEv
megaglest:_ZN5Glest4Game22MenuStateConnectedGame9getMapCRCENSt7__cxx1112basic_stringIcSt11char_traitsIcESaIcEEE
megaglest:_ZN5Glest4Game22MenuStateConnectedGame9mouseMoveEiiPKN6Shared8Platform10MouseStateE
megaglest:_ZN5Glest4Game22MenuStateConnectedGame9textInputENSt7__cxx1112basic_stringIcSt11char_traitsIcESaIcEEE
megaglest:_ZN5Glest4Game22MenuStateConnectedGameC1EPNS0_7ProgramEPNS0_8MainMenuENS0_8JoinMenuEb
megaglest:_ZN5Glest4Game22MenuStateConnectedGameC2EPNS0_7ProgramEPNS0_8MainMenuENS0_8JoinMenuEb
megaglest:_ZN5Glest4Game22MenuStateConnectedGameD0Ev
megaglest:_ZN5Glest4Game22MenuStateConnectedGameD1Ev
megaglest:_ZN5Glest4Game22MenuStateConnectedGameD2Ev
megaglest:_ZN5Glest4Game22NetworkMessageMarkCell10fromEndianEv
megaglest:_ZN5Glest4Game22NetworkMessageMarkCell11packMessageEv
megaglest:_ZN5Glest4Game22NetworkMessageMarkCell13getPackedSizeEv
megaglest:_ZN5Glest4Game22NetworkMessageMarkCell13unpackMessageEPh
megaglest:_ZN5Glest4Game22NetworkMessageMarkCell4sendEPN6Shared8Platform6SocketE
megaglest:_ZN5Glest4Game22NetworkMessageMarkCell7receiveEPN6Shared8Platform6SocketE
megaglest:_ZN5Glest4Game22NetworkMessageMarkCell8toEndianEv
megaglest:_ZN5Glest4Game22NetworkMessageMarkCellC1EN6Shared8Graphics4Vec2IiEEiRKNSt7__cxx1112basic_stringIcSt11char_traitsIcESaIcEEEi
megaglest:_ZN5Glest4Game22NetworkMessageMarkCellC1Ev
megaglest:_ZN5Glest4Game22NetworkMessageMarkCellC2EN6Shared8Graphics4Vec2IiEEiRKNSt7__cxx1112basic_stringIcSt11char_traitsIcESaIcEEEi
megaglest:_ZN5Glest4Game22NetworkMessageMarkCellC2Ev
megaglest:_ZN5Glest4Game22UnitParticleSystemType4loadEPKN6Shared3Xml7XmlNodeERKNSt7__cxx1112basic_stringIcSt11char_traitsIcESaIcEEEPNS2_8Graphics17RendererInterfaceERSt3mapISC_St6vectorISt4pairISC_SC_ESaISL_EESt4lessISC_ESaISK_ISD_SN_EEESC_SC_
megaglest:_ZN5Glest4Game22UnitParticleSystemType4loadEPKN6Shared3Xml7XmlNodeERKNSt7__cxx1112basic_stringIcSt11char_traitsIcESaIcEEESE_PNS2_8Graphics17RendererInterfaceERSt3mapISC_St6vectorISt4pairISC_SC_ESaISL_EESt4lessISC_ESaISK_ISD_SN_EEESC_SC_
megaglest:_ZN5Glest4Game22UnitParticleSystemType8loadGameEPKN6Shared3Xml7XmlNodeE
megaglest:_ZN5Glest4Game22UnitParticleSystemType8saveGameEPN6Shared3Xml7XmlNodeE
megaglest:_ZN5Glest4Game22UnitParticleSystemType9setValuesEPN6Shared8Graphics18UnitParticleSystemE
megaglest:_ZN5Glest4Game22UnitParticleSystemTypeC1Ev
megaglest:_ZN5Glest4Game22UnitParticleSystemTypeC2Ev
megaglest:_ZN5Glest4Game23ExploredCellsLookupItem9lastDebugE
megaglest:_ZN5Glest4Game23MenuStateOptionsNetwork10mouseClickEiiN6Shared8Platform11MouseButtonE
megaglest:_ZN5Glest4Game23MenuStateOptionsNetwork10saveConfigEv
megaglest:_ZN5Glest4Game23MenuStateOptionsNetwork19setActiveInputLableEPNS0_12GraphicLabelE
megaglest:_ZN5Glest4Game23MenuStateOptionsNetwork6renderEv
megaglest:_ZN5Glest4Game23MenuStateOptionsNetwork8keyPressE17SDL_KeyboardEvent
megaglest:_ZN5Glest4Game23MenuStateOptionsNetwork8reloadUIEv
megaglest:_ZN5Glest4Game23MenuStateOptionsNetwork9mouseMoveEiiPKN6Shared8Platform10MouseStateE
megaglest:_ZN5Glest4Game23MenuStateOptionsNetworkC1EPNS0_7ProgramEPNS0_8MainMenuEPPNS0_12ProgramStateE
megaglest:_ZN5Glest4Game23MenuStateOptionsNetworkC2EPNS0_7ProgramEPNS0_8MainMenuEPPNS0_12ProgramStateE
megaglest:_ZN5Glest4Game23getNetworkVersionStringB5cxx11Ev
megaglest:_ZN5Glest4Game23getRAWGITRevisionStringB5cxx11Ev
megaglest:_ZN5Glest4Game23maxClientLagTimeAllowedE
megaglest:_ZN5Glest4Game23maxFrameCountLagAllowedE
megaglest:_ZN5Glest4Game23runTechValidationReportEiPPc
megaglest:_ZN5Glest4Game24AttackStoppedCommandType4loadEiPKN6Shared3Xml7XmlNodeERKNSt7__cxx1112basic_stringIcSt11char_traitsIcESaIcEEEPKNS0_8TechTreeEPKNS0_11FactionTypeERKNS0_8UnitTypeERSt3mapISC_St6vectorISt4pairISC_SC_ESaISR_EESt4lessISC_ESaISQ_ISD_ST_EEESC_
megaglest:_ZN5Glest4Game24AttackStoppedCommandTypeC1Ev
megaglest:_ZN5Glest4Game24AttackStoppedCommandTypeC2Ev
megaglest:_ZN5Glest4Game24CommandGroupUnitSorterIdclEii
megaglest:_ZN5Glest4Game24FileTransferSocketThread7executeEv
megaglest:_ZN5Glest4Game24FileTransferSocketThreadC1ENS0_16FileTransferInfoE
megaglest:_ZN5Glest4Game24FileTransferSocketThreadC2ENS0_16FileTransferInfoE
megaglest:_ZN5Glest4Game24GAME_STATS_DUMP_INTERVALE
megaglest:_ZN5Glest4Game24MenuStateOptionsGraphics10mouseClickEiiN6Shared8Platform11MouseButtonE
megaglest:_ZN5Glest4Game24MenuStateOptionsGraphics10saveConfigEv
megaglest:_ZN5Glest4Game24MenuStateOptionsGraphics14showMessageBoxERKNSt7__cxx1112basic_stringIcSt11char_traitsIcESaIcEEES9_b
megaglest:_ZN5Glest4Game24MenuStateOptionsGraphics16revertScreenModeEv
megaglest:_ZN5Glest4Game24MenuStateOptionsGraphics6renderEv
megaglest:_ZN5Glest4Game24MenuStateOptionsGraphics6updateEv
megaglest:_ZN5Glest4Game24MenuStateOptionsGraphics8keyPressE17SDL_KeyboardEvent
megaglest:_ZN5Glest4Game24MenuStateOptionsGraphics8reloadUIEv
megaglest:_ZN5Glest4Game24MenuStateOptionsGraphics9mouseMoveEiiPKN6Shared8Platform10MouseStateE
megaglest:_ZN5Glest4Game24MenuStateOptionsGraphicsC1EPNS0_7ProgramEPNS0_8MainMenuEPPNS0_12ProgramStateE
megaglest:_ZN5Glest4Game24MenuStateOptionsGraphicsC2EPNS0_7ProgramEPNS0_8MainMenuEPPNS0_12ProgramStateE
megaglest:_ZN5Glest4Game24NetworkMessageUnMarkCell10fromEndianEv
megaglest:_ZN5Glest4Game24NetworkMessageUnMarkCell11packMessageEv
megaglest:_ZN5Glest4Game24NetworkMessageUnMarkCell13getPackedSizeEv
megaglest:_ZN5Glest4Game24NetworkMessageUnMarkCell13unpackMessageEPh
megaglest:_ZN5Glest4Game24NetworkMessageUnMarkCell4sendEPN6Shared8Platform6SocketE
megaglest:_ZN5Glest4Game24NetworkMessageUnMarkCell7receiveEPN6Shared8Platform6SocketE
megaglest:_ZN5Glest4Game24NetworkMessageUnMarkCell8toEndianEv
megaglest:_ZN5Glest4Game24NetworkMessageUnMarkCellC1EN6Shared8Graphics4Vec2IiEEi
megaglest:_ZN5Glest4Game24NetworkMessageUnMarkCellC1Ev
megaglest:_ZN5Glest4Game24NetworkMessageUnMarkCellC2EN6Shared8Graphics4Vec2IiEEi
megaglest:_ZN5Glest4Game24NetworkMessageUnMarkCellC2Ev
megaglest:_ZN5Glest4Game24ObjectParticleSystemTypeC1Ev
megaglest:_ZN5Glest4Game24ObjectParticleSystemTypeC2Ev
megaglest:_ZN5Glest4Game24ObjectParticleSystemTypeD0Ev
megaglest:_ZN5Glest4Game24ObjectParticleSystemTypeD1Ev
megaglest:_ZN5Glest4Game24ObjectParticleSystemTypeD2Ev
megaglest:_ZN5Glest4Game24ParticleSystemTypeSplash4loadEPKN6Shared3Xml7XmlNodeERKNSt7__cxx1112basic_stringIcSt11char_traitsIcESaIcEEESE_PNS2_8Graphics17RendererInterfaceERSt3mapISC_St6vectorISt4pairISC_SC_ESaISL_EESt4lessISC_ESaISK_ISD_SN_EEESC_SC_
megaglest:_ZN5Glest4Game24ParticleSystemTypeSplash6createEPN6Shared8Graphics13ParticleOwnerE
megaglest:_ZN5Glest4Game24ParticleSystemTypeSplash8saveGameEPN6Shared3Xml7XmlNodeE
megaglest:_ZN5Glest4Game24ParticleSystemTypeSplashC1Ev
megaglest:_ZN5Glest4Game24ParticleSystemTypeSplashC2Ev
megaglest:_ZN5Glest4Game24runTechValidationForPathENSt7__cxx1112basic_stringIcSt11char_traitsIcESaIcEEES6_RKSt6vectorIS6_SaIS6_EERNS0_5WorldEbbbbRd
megaglest:_ZN5Glest4Game24warnFrameCountLagPercentE
megaglest:_ZN5Glest4Game25LAG_CHECK_INTERVAL_PERIODE
megaglest:_ZN5Glest4Game25NetworkMessageCommandList10addCommandEPKNS0_14NetworkCommandE
megaglest:_ZN5Glest4Game25NetworkMessageCommandList14toEndianDetailEt
megaglest:_ZN5Glest4Game25NetworkMessageCommandList14toEndianHeaderEv
megaglest:_ZN5Glest4Game25NetworkMessageCommandList16fromEndianDetailEv
megaglest:_ZN5Glest4Game25NetworkMessageCommandList16fromEndianHeaderEv
megaglest:_ZN5Glest4Game25NetworkMessageCommandList17packMessageDetailEt
megaglest:_ZN5Glest4Game25NetworkMessageCommandList17packMessageHeaderEv
megaglest:_ZN5Glest4Game25NetworkMessageCommandList19getPackedSizeDetailEi
megaglest:_ZN5Glest4Game25NetworkMessageCommandList19getPackedSizeHeaderEv
megaglest:_ZN5Glest4Game25NetworkMessageCommandList19unpackMessageDetailEPhi
megaglest:_ZN5Glest4Game25NetworkMessageCommandList19unpackMessageHeaderEPh
megaglest:_ZN5Glest4Game25NetworkMessageCommandList4sendEPN6Shared8Platform6SocketE
megaglest:_ZN5Glest4Game25NetworkMessageCommandList7getDataEv
megaglest:_ZN5Glest4Game25NetworkMessageCommandList7receiveEPN6Shared8Platform6SocketE
megaglest:_ZN5Glest4Game25NetworkMessageCommandListC1Ei
megaglest:_ZN5Glest4Game25NetworkMessageCommandListC2Ei
megaglest:_ZN5Glest4Game25VisibleQuadContainerCache18enableFrustumCalcsE
megaglest:_ZN5Glest4Game25getGameCustomCoreDataPathENSt7__cxx1112basic_stringIcSt11char_traitsIcESaIcEEES6_
megaglest:_ZN5Glest4Game25getPlatformTypeNameStringB5cxx11Ev
megaglest:_ZN5Glest4Game26getNetworkVersionGITStringB5cxx11Ev
megaglest:_ZN5Glest4Game26handleShowCRCValuesCommandEiPPc
megaglest:_ZN5Glest4Game26runTilesetValidationReportEiPPc
megaglest:_ZN5Glest4Game27NetworkMessageHighlightCell10fromEndianEv
megaglest:_ZN5Glest4Game27NetworkMessageHighlightCell11packMessageEv
megaglest:_ZN5Glest4Game27NetworkMessageHighlightCell13getPackedSizeEv
megaglest:_ZN5Glest4Game27NetworkMessageHighlightCell13unpackMessageEPh
megaglest:_ZN5Glest4Game27NetworkMessageHighlightCell4sendEPN6Shared8Platform6SocketE
megaglest:_ZN5Glest4Game27NetworkMessageHighlightCell7receiveEPN6Shared8Platform6SocketE
megaglest:_ZN5Glest4Game27NetworkMessageHighlightCell8toEndianEv
megaglest:_ZN5Glest4Game27NetworkMessageHighlightCellC1EN6Shared8Graphics4Vec2IiEEi
megaglest:_ZN5Glest4Game27NetworkMessageHighlightCellC1Ev
megaglest:_ZN5Glest4Game27NetworkMessageHighlightCellC2EN6Shared8Graphics4Vec2IiEEi
megaglest:_ZN5Glest4Game27NetworkMessageHighlightCellC2Ev
megaglest:_ZN5Glest4Game27NetworkMessageLoadingStatus10fromEndianEv
megaglest:_ZN5Glest4Game27NetworkMessageLoadingStatus11packMessageEv
megaglest:_ZN5Glest4Game27NetworkMessageLoadingStatus13getPackedSizeEv
megaglest:_ZN5Glest4Game27NetworkMessageLoadingStatus13unpackMessageEPh
megaglest:_ZN5Glest4Game27NetworkMessageLoadingStatus4sendEPN6Shared8Platform6SocketE
megaglest:_ZN5Glest4Game27NetworkMessageLoadingStatus7receiveEPN6Shared8Platform6SocketE
megaglest:_ZN5Glest4Game27NetworkMessageLoadingStatus8toEndianEv
megaglest:_ZN5Glest4Game27NetworkMessageLoadingStatusC1Ej
megaglest:_ZN5Glest4Game27NetworkMessageLoadingStatusC2Ej
megaglest:_ZN5Glest4Game27maxClientLagTimeAllowedEverE
megaglest:_ZN5Glest4Game27maxFrameCountLagAllowedEverE
megaglest:_ZN5Glest4Game27runTilesetValidationForPathENSt7__cxx1112basic_stringIcSt11char_traitsIcESaIcEEES6_RNS0_5WorldEbbbbRd
megaglest:_ZN5Glest4Game28ParticleSystemTypeProjectile4loadEPKN6Shared3Xml7XmlNodeERKNSt7__cxx1112basic_stringIcSt11char_traitsIcESaIcEEESE_PNS2_8Graphics17RendererInterfaceERSt3mapISC_St6vectorISt4pairISC_SC_ESaISL_EESt4lessISC_ESaISK_ISD_SN_EEESC_SC_
megaglest:_ZN5Glest4Game28ParticleSystemTypeProjectile6createEPN6Shared8Graphics13ParticleOwnerE
megaglest:_ZN5Glest4Game28ParticleSystemTypeProjectile8saveGameEPN6Shared3Xml7XmlNodeE
megaglest:_ZN5Glest4Game28ParticleSystemTypeProjectileC1Ev
megaglest:_ZN5Glest4Game28ParticleSystemTypeProjectileC2Ev
megaglest:_ZN5Glest4Game28runTechTranslationExtractionEiPPc
megaglest:_ZN5Glest4Game29AiRuleProduceResourceProducer4testEv
megaglest:_ZN5Glest4Game29AiRuleProduceResourceProducer7executeEv
megaglest:_ZN5Glest4Game29AiRuleProduceResourceProducerC1EPNS0_2AiE
megaglest:_ZN5Glest4Game29AiRuleProduceResourceProducerC2EPNS0_2AiE
megaglest:_ZN5Glest4Game29getPlatformArchTypeNameStringB5cxx11Ev
megaglest:_ZN5Glest4Game2Ai10removeTaskEPKNS0_4TaskE
megaglest:_ZN5Glest4Game2Ai10returnBaseEi
megaglest:_ZN5Glest4Game2Ai12addExpansionERKN6Shared8Graphics4Vec2IiEE
megaglest:_ZN5Glest4Game2Ai12findAbleUnitEPiNS0_12CommandClassES3_
megaglest:_ZN5Glest4Game2Ai12findAbleUnitEPiNS0_12CommandClassEb
megaglest:_ZN5Glest4Game2Ai12isStableBaseEv
megaglest:_ZN5Glest4Game2Ai12unblockUnitsEv
megaglest:_ZN5Glest4Game2Ai13beingAttackedERN6Shared8Graphics4Vec2IiEERNS0_5FieldEi
megaglest:_ZN5Glest4Game2Ai13massiveAttackERKN6Shared8Graphics4Vec2IiEENS0_5FieldEb
megaglest:_ZN5Glest4Game2Ai14getCountOfTypeEPKNS0_8UnitTypeE
megaglest:_ZN5Glest4Game2Ai15addPriorityTaskEPKNS0_4TaskE
megaglest:_ZN5Glest4Game2Ai15getCountOfClassENS0_9UnitClassEPS2_
megaglest:_ZN5Glest4Game2Ai15getRatioOfClassENS0_9UnitClassEPS2_
megaglest:_ZN5Glest4Game2Ai15sendScoutPatrolEv
megaglest:_ZN5Glest4Game2Ai16getAdjacentUnitsERSt3mapIfS2_IiPKNS0_4UnitESt4lessIiESaISt4pairIKiS5_EEES6_IfESaIS8_IKfSC_EEES5_
megaglest:_ZN5Glest4Game2Ai16haveBlockedUnitsEv
megaglest:_ZN5Glest4Game2Ai17getNeededResourceEi
megaglest:_ZN5Glest4Game2Ai18findPosForBuildingEPKNS0_8UnitTypeERKN6Shared8Graphics4Vec2IiEERS8_
megaglest:_ZN5Glest4Game2Ai21findUnitsDoingCommandENS0_12CommandClassE
megaglest:_ZN5Glest4Game2Ai21getRandomHomePositionEv
megaglest:_ZN5Glest4Game2Ai31findUnitsHarvestingResourceTypeEPKNS0_12ResourceTypeE
megaglest:_ZN5Glest4Game2Ai4initEPNS0_11AiInterfaceEi
megaglest:_ZN5Glest4Game2Ai6updateEv
megaglest:_ZN5Glest4Game2Ai7addTaskEPKNS0_4TaskE
megaglest:_ZN5Glest4Game2Ai7anyTaskEv
megaglest:_ZN5Glest4Game2Ai7harvestEi
megaglest:_ZN5Glest4Game2Ai8loadGameEPKN6Shared3Xml7XmlNodeEPNS0_7FactionE
megaglest:_ZN5Glest4Game2Ai9getRandomEv
megaglest:_ZN5Glest4Game2Ai9retryTaskEPKNS0_4TaskE
megaglest:_ZN5Glest4Game2AiD1Ev
megaglest:_ZN5Glest4Game2AiD2Ev
megaglest:_ZN5Glest4Game31MaxExploredCellsLookupItemCacheE
megaglest:_ZN5Glest4Game31UnitAttackBoostEffectOriginator8loadGameEPKN6Shared3Xml7XmlNodeEPNS0_4UnitEPNS0_5WorldE
megaglest:_ZN5Glest4Game31UnitAttackBoostEffectOriginator8saveGameEPN6Shared3Xml7XmlNodeE
megaglest:_ZN5Glest4Game31UnitAttackBoostEffectOriginatorC1Ev
megaglest:_ZN5Glest4Game31UnitAttackBoostEffectOriginatorC2Ev
megaglest:_ZN5Glest4Game31UnitAttackBoostEffectOriginatorD0Ev
megaglest:_ZN5Glest4Game31UnitAttackBoostEffectOriginatorD1Ev
megaglest:_ZN5Glest4Game31UnitAttackBoostEffectOriginatorD2Ev
megaglest:_ZN5Glest4Game31handleCreateDataArchivesCommandEiPPc
megaglest:_ZN5Glest4Game33HarvestEmergencyReturnCommandType4loadEiPKN6Shared3Xml7XmlNodeERKNSt7__cxx1112basic_stringIcSt11char_traitsIcESaIcEEEPKNS0_8TechTreeEPKNS0_11FactionTypeERKNS0_8UnitTypeERSt3mapISC_St6vectorISt4pairISC_SC_ESaISR_EESt4lessISC_ESaISQ_ISD_ST_EEESC_
megaglest:_ZN5Glest4Game33HarvestEmergencyReturnCommandTypeC1Ev
megaglest:_ZN5Glest4Game33HarvestEmergencyReturnCommandTypeC2Ev
megaglest:_ZN5Glest4Game34NetworkMessageSynchNetworkGameData14toEndianDetailEj
megaglest:_ZN5Glest4Game34NetworkMessageSynchNetworkGameData14toEndianHeaderEv
megaglest:_ZN5Glest4Game34NetworkMessageSynchNetworkGameData16fromEndianDetailEv
megaglest:_ZN5Glest4Game34NetworkMessageSynchNetworkGameData16fromEndianHeaderEv
megaglest:_ZN5Glest4Game34NetworkMessageSynchNetworkGameData17packMessageDetailEv
megaglest:_ZN5Glest4Game34NetworkMessageSynchNetworkGameData17packMessageHeaderEv
megaglest:_ZN5Glest4Game34NetworkMessageSynchNetworkGameData19getPackedSizeDetailEv
megaglest:_ZN5Glest4Game34NetworkMessageSynchNetworkGameData19getPackedSizeHeaderEv
megaglest:_ZN5Glest4Game34NetworkMessageSynchNetworkGameData19unpackMessageDetailEPh
megaglest:_ZN5Glest4Game34NetworkMessageSynchNetworkGameData19unpackMessageHeaderEPh
megaglest:_ZN5Glest4Game34NetworkMessageSynchNetworkGameData28getTechCRCFileMismatchReportERSt6vectorISt4pairINSt7__cxx1112basic_stringIcSt11char_traitsIcESaIcEEEjESaISA_EE
megaglest:_ZN5Glest4Game34NetworkMessageSynchNetworkGameData4sendEPN6Shared8Platform6SocketE
megaglest:_ZN5Glest4Game34NetworkMessageSynchNetworkGameData7receiveEPN6Shared8Platform6SocketE
megaglest:_ZN5Glest4Game34NetworkMessageSynchNetworkGameDataC1EPKNS0_12GameSettingsE
megaglest:_ZN5Glest4Game34NetworkMessageSynchNetworkGameDataC2EPKNS0_12GameSettingsE
megaglest:_ZN5Glest4Game35getNetworkPlatformFreeVersionStringB5cxx11Ev
megaglest:_ZN5Glest4Game35lastCompatibleSaveGameVersionStringB5cxx11E
megaglest:_ZN5Glest4Game35runTechTranslationExtractionForPathENSt7__cxx1112basic_stringIcSt11char_traitsIcESaIcEEES6_RKSt6vectorIS6_SaIS6_EERNS0_5WorldE
megaglest:_ZN5Glest4Game3Gui10mouseValidEii
megaglest:_ZN5Glest4Game3Gui10resetStateEv
megaglest:_ZN5Glest4Game3Gui13computeTargetERKN6Shared8Graphics4Vec2IiEERS5_RPKNS0_4UnitE
megaglest:_ZN5Glest4Game3Gui14computeDisplayEv
megaglest:_ZN5Glest4Game3Gui15computeSelectedEbb
megaglest:_ZN5Glest4Game3Gui16mouseMoveDisplayEii
megaglest:_ZN5Glest4Game3Gui17computeInfoStringEi
megaglest:_ZN5Glest4Game3Gui17computePosDisplayEii
megaglest:_ZN5Glest4Game3Gui17giveDefaultOrdersEii
megaglest:_ZN5Glest4Game3Gui17giveDefaultOrdersEiiPKNS0_4UnitEb
megaglest:_ZN5Glest4Game3Gui17mouseMoveGraphicsEii
megaglest:_ZN5Glest4Game3Gui18clickCommonCommandENS0_12CommandClassE
megaglest:_ZN5Glest4Game3Gui18giveOneClickOrdersEv
megaglest:_ZN5Glest4Game3Gui18giveTwoClickOrdersEiib
megaglest:_ZN5Glest4Game3Gui18onSelectionChangedEv
megaglest:_ZN5Glest4Game3Gui19mouseUpLeftGraphicsEii
megaglest:_ZN5Glest4Game3Gui20isSharedCommandClassENS0_12CommandClassE
megaglest:_ZN5Glest4Game3Gui20mouseDownLeftDisplayEii
megaglest:_ZN5Glest4Game3Gui21invalidatePosObjWorldEv
megaglest:_ZN5Glest4Game3Gui21mouseDownLeftGraphicsEiib
megaglest:_ZN5Glest4Game3Gui21selectInterestingUnitENS0_19InterestingUnitTypeE
megaglest:_ZN5Glest4Game3Gui22mouseDownRightGraphicsEiib
megaglest:_ZN5Glest4Game3Gui23centerCameraOnSelectionEv
megaglest:_ZN5Glest4Game3Gui23mouseMoveOutsideDisplayEv
megaglest:_ZN5Glest4Game3Gui24addOrdersResultToConsoleENS0_12CommandClassESt4pairINS0_13CommandResultENSt7__cxx1112basic_stringIcSt11char_traitsIcESaIcEEEE
megaglest:_ZN5Glest4Game3Gui24computeDefaultInfoStringB5cxx11Ev
megaglest:_ZN5Glest4Game3Gui24switchToNextDisplayColorEv
megaglest:_ZN5Glest4Game3Gui25givePreparedDefaultOrdersEii
megaglest:_ZN5Glest4Game3Gui25mouseDownDisplayUnitBuildEi
megaglest:_ZN5Glest4Game3Gui26mouseDownDisplayUnitSkillsEi
megaglest:_ZN5Glest4Game3Gui28mouseDoubleClickLeftGraphicsEii
megaglest:_ZN5Glest4Game3Gui30getRelevantObjectFromSelectionEPSt6vectorIPNS0_4UnitESaIS4_EE
megaglest:_ZN5Glest4Game3Gui3endEv
megaglest:_ZN5Glest4Game3Gui4initEPNS0_4GameE
megaglest:_ZN5Glest4Game3Gui4tickEv
megaglest:_ZN5Glest4Game3Gui6hotKeyE17SDL_KeyboardEvent
megaglest:_ZN5Glest4Game3Gui6updateEv
megaglest:_ZN5Glest4Game3Gui8groupKeyEi
megaglest:_ZN5Glest4Game3Gui8loadGameEPKN6Shared3Xml7XmlNodeEPNS0_5WorldE
megaglest:_ZN5Glest4Game3GuiC1Ev
megaglest:_ZN5Glest4Game3GuiC2Ev
megaglest:_ZN5Glest4Game3Map12putUnitCellsEPNS0_4UnitERKN6Shared8Graphics4Vec2IiEEbb
megaglest:_ZN5Glest4Game3Map13smoothSurfaceEPNS0_7TilesetE
megaglest:_ZN5Glest4Game3Map14clearUnitCellsEPNS0_4UnitERKN6Shared8Graphics4Vec2IiEEb
megaglest:_ZN5Glest4Game3Map14computeNormalsEv
megaglest:_ZN5Glest4Game3Map14prepareTerrainEPKNS0_4UnitE
megaglest:_ZN5Glest4Game3Map15flatternTerrainEPKNS0_4UnitE
megaglest:_ZN5Glest4Game3Map17computeCellColorsEv
megaglest:_ZN5Glest4Game3Map19putUnitCellsPrivateEPNS0_4UnitERKN6Shared8Graphics4Vec2IiEEPKNS0_8UnitTypeEbb
megaglest:_ZN5Glest4Game3Map20computeNearSubmergedEv
megaglest:_ZN5Glest4Game3Map20getUnitDistanceToPosEPKNS0_4UnitEN6Shared8Graphics4Vec2IiEEPKNS0_8UnitTypeE
megaglest:_ZN5Glest4Game3Map26computeInterpolatedHeightsEv
megaglest:_ZN5Glest4Game3Map3endEv
megaglest:_ZN5Glest4Game3Map4initEPNS0_7TilesetE
megaglest:_ZN5Glest4Game3Map4loadERKNSt7__cxx1112basic_stringIcSt11char_traitsIcESaIcEEEPNS0_8TechTreeEPNS0_7TilesetE
megaglest:_ZN5Glest4Game3Map8loadGameEPKN6Shared3Xml7XmlNodeEPNS0_5WorldE
megaglest:_ZN5Glest4Game3Map8mapScaleE
megaglest:_ZN5Glest4Game3Map9canOccupyERKN6Shared8Graphics4Vec2IiEENS0_5FieldEPKNS0_8UnitTypeENS0_11CardinalDirE
megaglest:_ZN5Glest4Game3Map9cellScaleE
megaglest:_ZN5Glest4Game3MapC1Ev
megaglest:_ZN5Glest4Game3MapC2Ev
megaglest:_ZN5Glest4Game3MapD1Ev
megaglest:_ZN5Glest4Game3MapD2Ev
megaglest:_ZN5Glest4Game40NetworkMessageSynchNetworkGameDataStatus14toEndianDetailEj
megaglest:_ZN5Glest4Game40NetworkMessageSynchNetworkGameDataStatus14toEndianHeaderEv
megaglest:_ZN5Glest4Game40NetworkMessageSynchNetworkGameDataStatus16fromEndianDetailEv
megaglest:_ZN5Glest4Game40NetworkMessageSynchNetworkGameDataStatus16fromEndianHeaderEv
megaglest:_ZN5Glest4Game40NetworkMessageSynchNetworkGameDataStatus28getTechCRCFileMismatchReportENSt7__cxx1112basic_stringIcSt11char_traitsIcESaIcEEERSt6vectorISt4pairIS7_jESaISA_EE
megaglest:_ZN5Glest4Game40NetworkMessageSynchNetworkGameDataStatus4sendEPN6Shared8Platform6SocketE
megaglest:_ZN5Glest4Game40NetworkMessageSynchNetworkGameDataStatus7receiveEPN6Shared8Platform6SocketE
megaglest:_ZN5Glest4Game40NetworkMessageSynchNetworkGameDataStatusC1EjjjRSt6vectorISt4pairINSt7__cxx1112basic_stringIcSt11char_traitsIcESaIcEEEjESaISA_EE
megaglest:_ZN5Glest4Game40NetworkMessageSynchNetworkGameDataStatusC2EjjjRSt6vectorISt4pairINSt7__cxx1112basic_stringIcSt11char_traitsIcESaIcEEEjESaISA_EE
megaglest:_ZN5Glest4Game41NetworkMessageSynchNetworkGameDataFileGet10fromEndianEv
megaglest:_ZN5Glest4Game41NetworkMessageSynchNetworkGameDataFileGet11packMessageEv
megaglest:_ZN5Glest4Game41NetworkMessageSynchNetworkGameDataFileGet13getPackedSizeEv
megaglest:_ZN5Glest4Game41NetworkMessageSynchNetworkGameDataFileGet13unpackMessageEPh
megaglest:_ZN5Glest4Game41NetworkMessageSynchNetworkGameDataFileGet4sendEPN6Shared8Platform6SocketE
megaglest:_ZN5Glest4Game41NetworkMessageSynchNetworkGameDataFileGet7receiveEPN6Shared8Platform6SocketE
megaglest:_ZN5Glest4Game41NetworkMessageSynchNetworkGameDataFileGet8toEndianEv
megaglest:_ZN5Glest4Game41NetworkMessageSynchNetworkGameDataFileGetC1ENSt7__cxx1112basic_stringIcSt11char_traitsIcESaIcEEE
megaglest:_ZN5Glest4Game41NetworkMessageSynchNetworkGameDataFileGetC1Ev
megaglest:_ZN5Glest4Game41NetworkMessageSynchNetworkGameDataFileGetC2ENSt7__cxx1112basic_stringIcSt11char_traitsIcESaIcEEE
megaglest:_ZN5Glest4Game41NetworkMessageSynchNetworkGameDataFileGetC2Ev
megaglest:_ZN5Glest4Game46NetworkMessageSynchNetworkGameDataFileCRCCheck10fromEndianEv
megaglest:_ZN5Glest4Game46NetworkMessageSynchNetworkGameDataFileCRCCheck11packMessageEv
megaglest:_ZN5Glest4Game46NetworkMessageSynchNetworkGameDataFileCRCCheck13getPackedSizeEv
megaglest:_ZN5Glest4Game46NetworkMessageSynchNetworkGameDataFileCRCCheck13unpackMessageEPh
megaglest:_ZN5Glest4Game46NetworkMessageSynchNetworkGameDataFileCRCCheck4sendEPN6Shared8Platform6SocketE
megaglest:_ZN5Glest4Game46NetworkMessageSynchNetworkGameDataFileCRCCheck7receiveEPN6Shared8Platform6SocketE
megaglest:_ZN5Glest4Game46NetworkMessageSynchNetworkGameDataFileCRCCheck8toEndianEv
megaglest:_ZN5Glest4Game46NetworkMessageSynchNetworkGameDataFileCRCCheckC1EjjjNSt7__cxx1112basic_stringIcSt11char_traitsIcESaIcEEE
megaglest:_ZN5Glest4Game46NetworkMessageSynchNetworkGameDataFileCRCCheckC1Ev
megaglest:_ZN5Glest4Game46NetworkMessageSynchNetworkGameDataFileCRCCheckC2EjjjNSt7__cxx1112basic_stringIcSt11char_traitsIcESaIcEEE
megaglest:_ZN5Glest4Game46NetworkMessageSynchNetworkGameDataFileCRCCheckC2Ev
megaglest:_ZN5Glest4Game4Cell8loadGameEPKN6Shared3Xml7XmlNodeEiPNS0_5WorldE
megaglest:_ZN5Glest4Game4CellC1Ev
megaglest:_ZN5Glest4Game4CellC2Ev
megaglest:_ZN5Glest4Game4Game10initCameraEPNS0_3MapE
megaglest:_ZN5Glest4Game4Game10sdlKeyDownE17SDL_KeyboardEvent
megaglest:_ZN5Glest4Game4Game10showMarkerEN6Shared8Graphics4Vec2IiEENS0_10MarkedCellE
megaglest:_ZN5Glest4Game4Game11checkWinnerEv
megaglest:_ZN5Glest4Game4Game11hasBuildingEPKNS0_7FactionE
megaglest:_ZN5Glest4Game4Game11mouseUpLeftEii
megaglest:_ZN5Glest4Game4Game11processTechENSt7__cxx1112basic_stringIcSt11char_traitsIcESaIcEEE
megaglest:_ZN5Glest4Game4Game12renderWorkerEv
megaglest:_ZN5Glest4Game4Game12resetMembersEv
megaglest:_ZN5Glest4Game4Game12stopAllVideoEv
megaglest:_ZN5Glest4Game4Game12updateCameraEv
megaglest:_ZN5Glest4Game4Game13addCellMarkerEN6Shared8Graphics4Vec2IiEENS0_10MarkedCellE
megaglest:_ZN5Glest4Game4Game13exitGameStateEPNS0_7ProgramERNS0_5StatsE
megaglest:_ZN5Glest4Game4Game13getDebugStatsERSt3mapIiNSt7__cxx1112basic_stringIcSt11char_traitsIcESaIcEEESt4lessIiESaISt4pairIKiS8_EEE
megaglest:_ZN5Glest4Game4Game13getTeamsAliveEv
megaglest:_ZN5Glest4Game4Game13highlightTimeE
megaglest:_ZN5Glest4Game4Game13highlightUnitEiffN6Shared8Graphics4Vec4IfEE
megaglest:_ZN5Glest4Game4Game13mouseDownLeftEii
megaglest:_ZN5Glest4Game4Game13mouseUpCenterEii
megaglest:_ZN5Glest4Game4Game13quitTriggeredEv
megaglest:_ZN5Glest4Game4Game13startMarkCellEv
megaglest:_ZN5Glest4Game4Game14consoleAddLineENSt7__cxx1112basic_stringIcSt11char_traitsIcESaIcEEE
megaglest:_ZN5Glest4Game4Game14getUpdateLoopsEv
megaglest:_ZN5Glest4Game4Game14loadHudTextureEPKNS0_12GameSettingsE
megaglest:_ZN5Glest4Game4Game14mouseDownRightEii
megaglest:_ZN5Glest4Game4Game14showMessageBoxERKNSt7__cxx1112basic_stringIcSt11char_traitsIcESaIcEEES9_b
megaglest:_ZN5Glest4Game4Game14tryPauseToggleEb
megaglest:_ZN5Glest4Game4Game15calcCameraMoveXEv
megaglest:_ZN5Glest4Game4Game15calcCameraMoveZEv
megaglest:_ZN5Glest4Game4Game15eventMouseWheelEiii
megaglest:_ZN5Glest4Game4Game15factionLostGameEPKNS0_7FactionE
megaglest:_ZN5Glest4Game4Game15factionLostGameEi
megaglest:_ZN5Glest4Game4Game15getEndGameStatsEv
megaglest:_ZN5Glest4Game4Game15playStaticVideoERKNSt7__cxx1112basic_stringIcSt11char_traitsIcESaIcEEE
megaglest:_ZN5Glest4Game4Game15setupPopupMenusEb
megaglest:_ZN5Glest4Game4Game15unhighlightUnitEi
megaglest:_ZN5Glest4Game4Game16clientLagHandlerEib
megaglest:_ZN5Glest4Game4Game16processInputTextENSt7__cxx1112basic_stringIcSt11char_traitsIcESaIcEEEb
megaglest:_ZN5Glest4Game4Game16removeCellMarkerEN6Shared8Graphics4Vec2IiEEPKNS0_7FactionE
megaglest:_ZN5Glest4Game4Game16updateWorldStatsEv
megaglest:_ZN5Glest4Game4Game17renderVideoPlayerEv
megaglest:_ZN5Glest4Game4Game17showWinMessageBoxEv
megaglest:_ZN5Glest4Game4Game18addUnitToSelectionEPNS0_4UnitE
megaglest:_ZN5Glest4Game4Game18playStreamingVideoERKNSt7__cxx1112basic_stringIcSt11char_traitsIcESaIcEEE
megaglest:_ZN5Glest4Game4Game18quitAndToggleStateEv
megaglest:_ZN5Glest4Game4Game18showLoseMessageBoxEv
megaglest:_ZN5Glest4Game4Game18stopStreamingVideoERKNSt7__cxx1112basic_stringIcSt11char_traitsIcESaIcEEE
megaglest:_ZN5Glest4Game4Game19ErrorDisplayMessageEPKcb
megaglest:_ZN5Glest4Game4Game19addPerformanceCountENSt7__cxx1112basic_stringIcSt11char_traitsIcESaIcEEEl
megaglest:_ZN5Glest4Game4Game19checkWinnerScriptedEv
megaglest:_ZN5Glest4Game4Game19checkWinnerStandardEv
megaglest:_ZN5Glest4Game4Game19endPerformanceTimerEv
megaglest:_ZN5Glest4Game4Game19extractTechLogoFileENSt7__cxx1112basic_stringIcSt11char_traitsIcESaIcEEES7_RbPNS0_6LoggerES7_
megaglest:_ZN5Glest4Game4Game19findFactionLogoFileEPKNS0_12GameSettingsEPNS0_6LoggerENSt7__cxx1112basic_stringIcSt11char_traitsIcESaIcEEE
megaglest:_ZN5Glest4Game4Game19setupRenderForVideoEv
megaglest:_ZN5Glest4Game4Game19showErrorMessageBoxERKNSt7__cxx1112basic_stringIcSt11char_traitsIcESaIcEEES9_b
megaglest:_ZN5Glest4Game4Game19switchSetupForSlotsERPNS0_15ServerInterfaceEiib
megaglest:_ZN5Glest4Game4Game20mouseDoubleClickLeftEii
megaglest:_ZN5Glest4Game4Game20recallGroupSelectionEi
megaglest:_ZN5Glest4Game4Game21startCameraFollowUnitEv
megaglest:_ZN5Glest4Game4Game21startPerformanceTimerEv
megaglest:_ZN5Glest4Game4Game21toggleTeamColorMarkerEv
megaglest:_ZN5Glest4Game4Game22extractFactionLogoFileERbNSt7__cxx1112basic_stringIcSt11char_traitsIcESaIcEEES8_S8_PNS0_6LoggerES8_
megaglest:_ZN5Glest4Game4Game22findFactionLogoTextureEPKNS0_12GameSettingsEPNS0_6LoggerENSt7__cxx1112basic_stringIcSt11char_traitsIcESaIcEEEb
megaglest:_ZN5Glest4Game4Game23addUnitToGroupSelectionEPNS0_4UnitEi
megaglest:_ZN5Glest4Game4Game23extractScenarioLogoFileEPKNS0_12GameSettingsERNSt7__cxx1112basic_stringIcSt11char_traitsIcESaIcEEERbPNS0_6LoggerESA_
megaglest:_ZN5Glest4Game4Game23removeUnitFromSelectionEPKNS0_4UnitE
megaglest:_ZN5Glest4Game4Game24getFirstUnusedTeamNumberEv
megaglest:_ZN5Glest4Game4Game24updateNetworkMarkedCellsEv
megaglest:_ZN5Glest4Game4Game25DumpCRCWorldLogIfRequiredENSt7__cxx1112basic_stringIcSt11char_traitsIcESaIcEEE
megaglest:_ZN5Glest4Game4Game25checkWinnerStandardPlayerEv
megaglest:_ZN5Glest4Game4Game26getPerformanceTimerResultsEv
megaglest:_ZN5Glest4Game4Game26updateNetworkUnMarkedCellsEv
megaglest:_ZN5Glest4Game4Game28removeUnitFromGroupSelectionEii
megaglest:_ZN5Glest4Game4Game28updateNetworkHighligtedCellsEv
megaglest:_ZN5Glest4Game4Game29addNetworkCommandToReplayListEPNS0_14NetworkCommandEi
megaglest:_ZN5Glest4Game4Game30addOrReplaceInHighlightedCellsENS0_10MarkedCellE
megaglest:_ZN5Glest4Game4Game30setEndGameTeamWinnersAndLosersEv
megaglest:_ZN5Glest4Game4Game35processNetworkSynchChecksIfRequiredEv
megaglest:_ZN5Glest4Game4Game37checkWinnerStandardHeadlessOrObserverEv
megaglest:_ZN5Glest4Game4Game39ReplaceDisconnectedNetworkPlayersWithAIEbNS0_11NetworkRoleE
megaglest:_ZN5Glest4Game4Game4initEb
megaglest:_ZN5Glest4Game4Game4initEv
megaglest:_ZN5Glest4Game4Game4loadEi
megaglest:_ZN5Glest4Game4Game4loadEv
megaglest:_ZN5Glest4Game4Game4tickEv
megaglest:_ZN5Glest4Game4Game5keyUpE17SDL_KeyboardEvent
megaglest:_ZN5Glest4Game4Game6renderEv
megaglest:_ZN5Glest4Game4Game6updateEv
megaglest:_ZN5Glest4Game4Game7endGameEv
megaglest:_ZN5Glest4Game4Game7keyDownE17SDL_KeyboardEvent
megaglest:_ZN5Glest4Game4Game8decSpeedEv
megaglest:_ZN5Glest4Game4Game8incSpeedEv
megaglest:_ZN5Glest4Game4Game8keyPressE17SDL_KeyboardEvent
megaglest:_ZN5Glest4Game4Game8loadGameENSt7__cxx1112basic_stringIcSt11char_traitsIcESaIcEEEPNS0_7ProgramEbPKNS0_12GameSettingsE
megaglest:_ZN5Glest4Game4Game8quitGameEv
megaglest:_ZN5Glest4Game4Game8render2dEv
megaglest:_ZN5Glest4Game4Game8render3dEv
megaglest:_ZN5Glest4Game4Game8saveGameENSt7__cxx1112basic_stringIcSt11char_traitsIcESaIcEEES7_
megaglest:_ZN5Glest4Game4Game8saveGameEv
megaglest:_ZN5Glest4Game4Game9getPausedEv
megaglest:_ZN5Glest4Game4Game9mouseMoveEiiPKN6Shared8Platform10MouseStateE
megaglest:_ZN5Glest4Game4Game9reInitGUIEv
megaglest:_ZN5Glest4Game4Game9setPausedEbbbb
megaglest:_ZN5Glest4Game4Game9textInputENSt7__cxx1112basic_stringIcSt11char_traitsIcESaIcEEE
megaglest:_ZN5Glest4Game4GameC1EPNS0_7ProgramEPKNS0_12GameSettingsEb
megaglest:_ZN5Glest4Game4GameC1Ev
megaglest:_ZN5Glest4Game4GameC2EPNS0_7ProgramEPKNS0_12GameSettingsEb
megaglest:_ZN5Glest4Game4GameC2Ev
megaglest:_ZN5Glest4Game4GameD0Ev
megaglest:_ZN5Glest4Game4GameD1Ev
megaglest:_ZN5Glest4Game4GameD2Ev
megaglest:_ZN5Glest4Game4Lang11getInstanceEv
megaglest:_ZN5Glest4Game4Lang11parseResultERKNSt7__cxx1112basic_stringIcSt11char_traitsIcESaIcEEES9_
megaglest:_ZN5Glest4Game4Lang15getLanguageFileENSt7__cxx1112basic_stringIcSt11char_traitsIcESaIcEEE
megaglest:_ZN5Glest4Game4Lang15loadGameStringsENSt7__cxx1112basic_stringIcSt11char_traitsIcESaIcEEEbb
megaglest:_ZN5Glest4Game4Lang16getTilesetStringERKNSt7__cxx1112basic_stringIcSt11char_traitsIcESaIcEEEPKc
megaglest:_ZN5Glest4Game4Lang17getScenarioStringERKNSt7__cxx1112basic_stringIcSt11char_traitsIcESaIcEEE
megaglest:_ZN5Glest4Game4Lang17getTechTreeStringERKNSt7__cxx1112basic_stringIcSt11char_traitsIcESaIcEEEPKc
megaglest:_ZN5Glest4Game4Lang17hasScenarioStringERKNSt7__cxx1112basic_stringIcSt11char_traitsIcESaIcEEE
megaglest:_ZN5Glest4Game4Lang18loadTilesetStringsENSt7__cxx1112basic_stringIcSt11char_traitsIcESaIcEEE
megaglest:_ZN5Glest4Game4Lang19loadScenarioStringsENSt7__cxx1112basic_stringIcSt11char_traitsIcESaIcEEES7_b
megaglest:_ZN5Glest4Game4Lang19loadTechTreeStringsENSt7__cxx1112basic_stringIcSt11char_traitsIcESaIcEEEb
megaglest:_ZN5Glest4Game4Lang21fileMatchesISO630CodeENSt7__cxx1112basic_stringIcSt11char_traitsIcESaIcEEES7_
megaglest:_ZN5Glest4Game4Lang21getNativeLanguageNameENSt7__cxx1112basic_stringIcSt11char_traitsIcESaIcEEES7_
megaglest:_ZN5Glest4Game4Lang24loadGameStringPropertiesENSt7__cxx1112basic_stringIcSt11char_traitsIcESaIcEEERN6Shared4Util10PropertiesEbb
megaglest:_ZN5Glest4Game4Lang25getDiscoveredLanguageListB5cxx11Eb
megaglest:_ZN5Glest4Game4Lang30getNavtiveNameFromLanguageNameENSt7__cxx1112basic_stringIcSt11char_traitsIcESaIcEEE
megaglest:_ZN5Glest4Game4Lang9getStringERKNSt7__cxx1112basic_stringIcSt11char_traitsIcESaIcEEES7_b
megaglest:_ZN5Glest4Game4Lang9hasStringERKNSt7__cxx1112basic_stringIcSt11char_traitsIcESaIcEEES7_b
megaglest:_ZN5Glest4Game4LangC1Ev
megaglest:_ZN5Glest4Game4LangC2Ev
megaglest:_ZN5Glest4Game4TaskC1Ev
megaglest:_ZN5Glest4Game4TaskC2Ev
megaglest:_ZN5Glest4Game4Unit10refreshPosEb
megaglest:_ZN5Glest4Game4Unit10setVisibleEb
megaglest:_ZN5Glest4Game4Unit11addObserverEPNS0_12UnitObserverE
megaglest:_ZN5Glest4Game4Unit11clearCachesEv
megaglest:_ZN5Glest4Game4Unit11giveCommandB5cxx11EPNS0_7CommandEb
megaglest:_ZN5Glest4Game4Unit11undoCommandEPNS0_7CommandE
megaglest:_ZN5Glest4Game4Unit12applyCommandEPNS0_7CommandE
megaglest:_ZN5Glest4Game4Unit12applyUpgradeEPKNS0_11UpgradeTypeE
megaglest:_ZN5Glest4Game4Unit12exploreCellsEb
megaglest:_ZN5Glest4Game4Unit12logSynchDataENSt7__cxx1112basic_stringIcSt11char_traitsIcESaIcEEEiS7_
megaglest:_ZN5Glest4Game4Unit12maxDeadCountE
megaglest:_ZN5Glest4Game4Unit12needToUpdateEv
megaglest:_ZN5Glest4Game4Unit12setCurrFieldENS0_5FieldE
megaglest:_ZN5Glest4Game4Unit12setCurrSkillENS0_10SkillClassE
megaglest:_ZN5Glest4Game4Unit12setCurrSkillEPKNS0_9SkillTypeE
megaglest:_ZN5Glest4Game4Unit12setTargetPosERKN6Shared8Graphics4Vec2IiEEb
megaglest:_ZN5Glest4Game4Unit12speedDividerE
megaglest:_ZN5Glest4Game4Unit12updateTargetEv
megaglest:_ZN5Glest4Game4Unit13cancelCommandEv
megaglest:_ZN5Glest4Game4Unit13clearCommandsEv
megaglest:_ZN5Glest4Game4Unit13finishCommandEv
megaglest:_ZN5Glest4Game4Unit13setMeetingPosERKN6Shared8Graphics4Vec2IiEE
megaglest:_ZN5Glest4Game4Unit14checkUnitLevelEv
megaglest:_ZN5Glest4Game4Unit14removeObserverEPNS0_12UnitObserverE
megaglest:_ZN5Glest4Game4Unit14resetHighlightEv
megaglest:_ZN5Glest4Game4Unit14setModelFacingENS0_11CardinalDirE
megaglest:_ZN5Glest4Game4Unit15AnimCycleStartsEv
megaglest:_ZN5Glest4Game4Unit15getCurrentModelEv
megaglest:_ZN5Glest4Game4Unit15getHeightFactorEl
megaglest:_ZN5Glest4Game4Unit15logParticleInfoENSt7__cxx1112basic_stringIcSt11char_traitsIcESaIcEEE
megaglest:_ZN5Glest4Game4Unit15notifyObserversENS0_12UnitObserver5EventE
megaglest:_ZN5Glest4Game4Unit16addBadHarvestPosERKN6Shared8Graphics4Vec2IiEE
megaglest:_ZN5Glest4Game4Unit16applyAttackBoostEPKNS0_11AttackBoostEPKS1_
megaglest:_ZN5Glest4Game4Unit17clearParticleInfoEv
megaglest:_ZN5Glest4Game4Unit17getDiagonalFactorEv
megaglest:_ZN5Glest4Game4Unit17getUpdateProgressEv
megaglest:_ZN5Glest4Game4Unit17morphAttackBoostsEPS1_
megaglest:_ZN5Glest4Game4Unit18addNetworkCRCDecHpENSt7__cxx1112basic_stringIcSt11char_traitsIcESaIcEEE
megaglest:_ZN5Glest4Game4Unit18deapplyAttackBoostEPKNS0_11AttackBoostEPKS1_
megaglest:_ZN5Glest4Game4Unit18getCurrentModelPtrEv
megaglest:_ZN5Glest4Game4Unit18getUpdatedProgressElllll
megaglest:_ZN5Glest4Game4Unit18logSynchDataCommonENSt7__cxx1112basic_stringIcSt11char_traitsIcESaIcEEEiS7_b
megaglest:_ZN5Glest4Game4Unit18replaceCurrCommandEPNS0_7CommandE
megaglest:_ZN5Glest4Game4Unit18unitHasAttackBoostEPKNS0_11AttackBoostEPKS1_
megaglest:_ZN5Glest4Game4Unit19calculateXZRotationEv
megaglest:_ZN5Glest4Game4Unit19computeTotalUpgradeEv
megaglest:_ZN5Glest4Game4Unit19deleteQueuedCommandEPNS0_7CommandE
megaglest:_ZN5Glest4Game4Unit19getSpeedDenominatorEl
megaglest:_ZN5Glest4Game4Unit19isNetworkCRCEnabledEv
megaglest:_ZN5Glest4Game4Unit19queueTimedParticlesERKNSt7__cxx114listIPNS0_22UnitParticleSystemTypeESaIS5_EEE
megaglest:_ZN5Glest4Game4Unit19removeBadHarvestPosERKN6Shared8Graphics4Vec2IiEE
megaglest:_ZN5Glest4Game4Unit19stopDamageParticlesEb
megaglest:_ZN5Glest4Game4Unit20logSynchDataThreadedENSt7__cxx1112basic_stringIcSt11char_traitsIcESaIcEEEiS7_
megaglest:_ZN5Glest4Game4Unit20startDamageParticlesEv
megaglest:_ZN5Glest4Game4Unit20updateTimedParticlesEv
megaglest:_ZN5Glest4Game4Unit23addAttackParticleSystemEPN6Shared8Graphics14ParticleSystemE
megaglest:_ZN5Glest4Game4Unit23calculateFogOfWarRadiusEb
megaglest:_ZN5Glest4Game4Unit23cleanupOldBadHarvestPosEv
megaglest:_ZN5Glest4Game4Unit24clearNetworkCRCDecHpListEv
megaglest:_ZN5Glest4Game4Unit25PROGRESS_SPEED_MULTIPLIERE
megaglest:_ZN5Glest4Game4Unit25cleanupAllParticlesystemsEv
megaglest:_ZN5Glest4Game4Unit25updateAttackBoostProgressEPKNS0_4GameE
megaglest:_ZN5Glest4Game4Unit26ANIMATION_SPEED_MULTIPLIERE
megaglest:_ZN5Glest4Game4Unit26setMeshPosInParticleSystemEPN6Shared8Graphics18UnitParticleSystemE
megaglest:_ZN5Glest4Game4Unit28getCurrrentCommandThreadSafeEv
megaglest:_ZN5Glest4Game4Unit28setLastHarvestResourceTargetEPKN6Shared8Graphics4Vec2IiEE
megaglest:_ZN5Glest4Game4Unit31checkCustomizedParticleTriggersEb
megaglest:_ZN5Glest4Game4Unit31setLastStuckFrameToCurrentFrameEv
megaglest:_ZN5Glest4Game4Unit32checkModelStateInfoForNewHpValueEv
megaglest:_ZN5Glest4Game4Unit35checkCustomizedUnitParticleTriggersEv
megaglest:_ZN5Glest4Game4Unit39checkCustomizedUnitParticleListTriggersERKNSt7__cxx114listIPNS0_22UnitParticleSystemTypeESaIS5_EEEb
megaglest:_ZN5Glest4Game4Unit3endEPN6Shared8Graphics14ParticleSystemE
megaglest:_ZN5Glest4Game4Unit40setLastPathfindFailedFrameToCurrentFrameEv
megaglest:_ZN5Glest4Game4Unit43isLastStuckFrameWithinCurrentFrameToleranceEb
megaglest:_ZN5Glest4Game4Unit4bornEPKNS0_11CommandTypeE
megaglest:_ZN5Glest4Game4Unit4gameE
megaglest:_ZN5Glest4Game4Unit4killEv
megaglest:_ZN5Glest4Game4Unit4tickEv
megaglest:_ZN5Glest4Game4Unit5decHpEi
megaglest:_ZN5Glest4Game4Unit5morphEPKNS0_16MorphCommandTypeEi
megaglest:_ZN5Glest4Game4Unit6createEb
megaglest:_ZN5Glest4Game4Unit6getCRCEv
megaglest:_ZN5Glest4Game4Unit6getPosEv
megaglest:_ZN5Glest4Game4Unit6repairEv
megaglest:_ZN5Glest4Game4Unit6setPosERKN6Shared8Graphics4Vec2IiEEbb
megaglest:_ZN5Glest4Game4Unit6updateEv
megaglest:_ZN5Glest4Game4Unit7setTypeEPKNS0_8UnitTypeE
megaglest:_ZN5Glest4Game4Unit7update2Ev
megaglest:_ZN5Glest4Game4Unit8incKillsEi
megaglest:_ZN5Glest4Game4Unit8loadGameEPKN6Shared3Xml7XmlNodeEPNS0_12GameSettingsEPNS0_7FactionEPNS0_5WorldE
megaglest:_ZN5Glest4Game4Unit8saveGameEPN6Shared3Xml7XmlNodeE
megaglest:_ZN5Glest4Game4Unit8setAliveEb
megaglest:_ZN5Glest4Game4Unit9computeEpEv
megaglest:_ZN5Glest4Game4Unit9getRandomEb
megaglest:_ZN5Glest4Game4Unit9invalidIdE
megaglest:_ZN5Glest4Game4Unit9setTargetEPKS1_
megaglest:_ZN5Glest4Game4Unit9undertakeEv
megaglest:_ZN5Glest4Game4UnitC1EiPNS0_17UnitPathInterfaceERKN6Shared8Graphics4Vec2IiEEPKNS0_8UnitTypeEPNS0_7FactionEPNS0_3MapENS0_11CardinalDirE
megaglest:_ZN5Glest4Game4UnitC2EiPNS0_17UnitPathInterfaceERKN6Shared8Graphics4Vec2IiEEPKNS0_8UnitTypeEPNS0_7FactionEPNS0_3MapENS0_11CardinalDirE
megaglest:_ZN5Glest4Game4UnitD0Ev
megaglest:_ZN5Glest4Game4UnitD1Ev
megaglest:_ZN5Glest4Game4UnitD2Ev
megaglest:_ZN5Glest4Game4packEPhPKcz
megaglest:_ZN5Glest4Game5Intro10appearTimeE
megaglest:_ZN5Glest4Game5Intro11mouseUpLeftEii
megaglest:_ZN5Glest4Game5Intro12disapearTimeE
megaglest:_ZN5Glest4Game5Intro21renderModelBackgroundEv
megaglest:_ZN5Glest4Game5Intro6renderEv
megaglest:_ZN5Glest4Game5Intro6updateEv
megaglest:_ZN5Glest4Game5Intro7cleanupEv
megaglest:_ZN5Glest4Game5Intro7keyDownE17SDL_KeyboardEvent
megaglest:_ZN5Glest4Game5Intro8showTimeE
megaglest:_ZN5Glest4Game5Intro9introTimeE
megaglest:_ZN5Glest4Game5Intro9mouseMoveEiiPKN6Shared8Platform10MouseStateE
megaglest:_ZN5Glest4Game5IntroC1EPNS0_7ProgramE
megaglest:_ZN5Glest4Game5IntroC2EPNS0_7ProgramE
megaglest:_ZN5Glest4Game5IntroD0Ev
megaglest:_ZN5Glest4Game5IntroD1Ev
megaglest:_ZN5Glest4Game5IntroD2Ev
megaglest:_ZN5Glest4Game5Level4initENSt7__cxx1112basic_stringIcSt11char_traitsIcESaIcEEEi
megaglest:_ZN5Glest4Game5Level8loadGameEPKN6Shared3Xml7XmlNodeEPKNS0_8UnitTypeE
megaglest:_ZN5Glest4Game5Stats13setVictoriousEi
megaglest:_ZN5Glest4Game5Stats3dieEib
megaglest:_ZN5Glest4Game5Stats4initEiiRKNSt7__cxx1112basic_stringIcSt11char_traitsIcESaIcEEES9_
megaglest:_ZN5Glest4Game5Stats4killEiibbb
megaglest:_ZN5Glest4Game5Stats7harvestEii
megaglest:_ZN5Glest4Game5Stats7produceEib
megaglest:_ZN5Glest4Game5Stats8loadGameEPKN6Shared3Xml7XmlNodeE
megaglest:_ZN5Glest4Game5Stats8saveGameEPN6Shared3Xml7XmlNodeE
megaglest:_ZN5Glest4Game5World10computeFowEv
megaglest:_ZN5Glest4Game5World10createUnitERKNSt7__cxx1112basic_stringIcSt11char_traitsIcESaIcEEEiRKN6Shared8Graphics4Vec2IiEEb
megaglest:_ZN5Glest4Game5World10moveToUnitEii
megaglest:_ZN5Glest4Game5World10selectUnitEi
megaglest:_ZN5Glest4Game5World10showMarkerEN6Shared8Graphics4Vec2IiEEiRKNSt7__cxx1112basic_stringIcSt11char_traitsIcESaIcEEESB_i
megaglest:_ZN5Glest4Game5World11clearCachesEv
megaglest:_ZN5Glest4Game5World11endScenarioEv
megaglest:_ZN5Glest4Game5World11getUnitNameB5cxx11Ei
megaglest:_ZN5Glest4Game5World11initMinimapEv
megaglest:_ZN5Glest4Game5World11loadTilesetERKNSt7__cxx1112basic_stringIcSt11char_traitsIcESaIcEEEPN6Shared4Util8ChecksumERSt3mapIS7_St6vectorISt4pairIS7_S7_ESaISH_EESt4lessIS7_ESaISG_IS8_SJ_EEE
megaglest:_ZN5Glest4Game5World11loadTilesetESt6vectorINSt7__cxx1112basic_stringIcSt11char_traitsIcESaIcEEESaIS8_EERKS8_PN6Shared4Util8ChecksumERSt3mapIS8_S2_ISt4pairIS8_S8_ESaISJ_EESt4lessIS8_ESaISI_ISB_SL_EEE
megaglest:_ZN5Glest4Game5World11morphToUnitEiRKNSt7__cxx1112basic_stringIcSt11char_traitsIcESaIcEEEb
megaglest:_ZN5Glest4Game5World11setFogOfWarEb
megaglest:_ZN5Glest4Game5World12clearTilesetEv
megaglest:_ZN5Glest4Game5World12exploreCellsERKN6Shared8Graphics4Vec2IiEEiiPNS0_4UnitE
megaglest:_ZN5Glest4Game5World12exploreCellsEiRNS0_23ExploredCellsLookupItemE
megaglest:_ZN5Glest4Game5World12getUnitCountEi
megaglest:_ZN5Glest4Game5World12giveResourceERKNSt7__cxx1112basic_stringIcSt11char_traitsIcESaIcEEEii
megaglest:_ZN5Glest4Game5World12loadScenarioERKNSt7__cxx1112basic_stringIcSt11char_traitsIcESaIcEEEPN6Shared4Util8ChecksumEbPKNSA_3Xml7XmlNodeE
megaglest:_ZN5Glest4Game5World12nearestStoreERKN6Shared8Graphics4Vec2IiEEiPKNS0_12ResourceTypeE
megaglest:_ZN5Glest4Game5World12stopAllSoundEv
megaglest:_ZN5Glest4Game5World12stopAllVideoEv
megaglest:_ZN5Glest4Game5World12unselectUnitEi
megaglest:_ZN5Glest4Game5World13addCellMarkerEN6Shared8Graphics4Vec2IiEEiRKNSt7__cxx1112basic_stringIcSt11char_traitsIcESaIcEEESB_
megaglest:_ZN5Glest4Game5World13getNextUnitIdEPNS0_7FactionE
megaglest:_ZN5Glest4Game5World13getPlayerNameB5cxx11Ei
megaglest:_ZN5Glest4Game5World13highlightUnitEiffN6Shared8Graphics4Vec4IfEE
megaglest:_ZN5Glest4Game5World13moveUnitCellsEPNS0_4UnitEb
megaglest:_ZN5Glest4Game5World14addConsoleTextERKNSt7__cxx1112basic_stringIcSt11char_traitsIcESaIcEEE
megaglest:_ZN5Glest4Game5World14getIsUnitAliveEi
megaglest:_ZN5Glest4Game5World15factionLostGameEi
megaglest:_ZN5Glest4Game5World15getUnitPositionEi
megaglest:_ZN5Glest4Game5World15giveStopCommandEi
megaglest:_ZN5Glest4Game5World15playStaticSoundERKNSt7__cxx1112basic_stringIcSt11char_traitsIcESaIcEEE
megaglest:_ZN5Glest4Game5World15playStaticVideoERKNSt7__cxx1112basic_stringIcSt11char_traitsIcESaIcEEE
megaglest:_ZN5Glest4Game5World15setUnitPositionEiN6Shared8Graphics4Vec2IiEE
megaglest:_ZN5Glest4Game5World15togglePauseGameEbb
megaglest:_ZN5Glest4Game5World15unhighlightUnitEi
megaglest:_ZN5Glest4Game5World16addAttackEffectsEPKNS0_4UnitE
megaglest:_ZN5Glest4Game5World16findUnitTypeByIdEPKNS0_11FactionTypeEi
megaglest:_ZN5Glest4Game5World16getStartLocationEi
megaglest:_ZN5Glest4Game5World16initFactionTypesEPNS0_12GameSettingsE
megaglest:_ZN5Glest4Game5World16initTeamResourceEPKNS0_12ResourceTypeEii
megaglest:_ZN5Glest4Game5World16removeCellMarkerEN6Shared8Graphics4Vec2IiEEi
megaglest:_ZN5Glest4Game5World17getResourceAmountERKNSt7__cxx1112basic_stringIcSt11char_traitsIcESaIcEEEi
megaglest:_ZN5Glest4Game5World17giveAttackCommandEii
megaglest:_ZN5Glest4Game5World17setQueuedScenarioENSt7__cxx1112basic_stringIcSt11char_traitsIcESaIcEEEb
megaglest:_ZN5Glest4Game5World18findUnitTypeByNameENSt7__cxx1112basic_stringIcSt11char_traitsIcESaIcEEES7_
megaglest:_ZN5Glest4Game5World18getGameSettingsPtrEv
megaglest:_ZN5Glest4Game5World18getResourceForTeamEPKNS0_12ResourceTypeEi
megaglest:_ZN5Glest4Game5World18getUnitCountOfTypeEiRKNSt7__cxx1112basic_stringIcSt11char_traitsIcESaIcEEE
megaglest:_ZN5Glest4Game5World18getUnitsForFactionEiRKNSt7__cxx1112basic_stringIcSt11char_traitsIcESaIcEEEi
megaglest:_ZN5Glest4Game5World18giveUpgradeCommandEiRKNSt7__cxx1112basic_stringIcSt11char_traitsIcESaIcEEE
megaglest:_ZN5Glest4Game5World18playStreamingSoundERKNSt7__cxx1112basic_stringIcSt11char_traitsIcESaIcEEE
megaglest:_ZN5Glest4Game5World18playStreamingVideoERKNSt7__cxx1112basic_stringIcSt11char_traitsIcESaIcEEE
megaglest:_ZN5Glest4Game5World18stopStreamingSoundERKNSt7__cxx1112basic_stringIcSt11char_traitsIcESaIcEEE
megaglest:_ZN5Glest4Game5World18stopStreamingVideoERKNSt7__cxx1112basic_stringIcSt11char_traitsIcESaIcEEE
megaglest:_ZN5Glest4Game5World19getSystemMacroValueENSt7__cxx1112basic_stringIcSt11char_traitsIcESaIcEEE
megaglest:_ZN5Glest4Game5World19getUnitCurrentFieldEi
megaglest:_ZN5Glest4Game5World19getUnitFactionIndexEi
megaglest:_ZN5Glest4Game5World19givePositionCommandEiRKNSt7__cxx1112basic_stringIcSt11char_traitsIcESaIcEEERKN6Shared8Graphics4Vec2IiEE
megaglest:_ZN5Glest4Game5World19placeUnitAtLocationERKN6Shared8Graphics4Vec2IiEEiPNS0_4UnitEb
megaglest:_ZN5Glest4Game5World20addConsoleTextWoLangERKNSt7__cxx1112basic_stringIcSt11char_traitsIcESaIcEEE
megaglest:_ZN5Glest4Game5World20addFogOfWarSkillTypeEPKNS0_4UnitEPKNS0_17FogOfWarSkillTypeE
megaglest:_ZN5Glest4Game5World20initSplattedTexturesEv
megaglest:_ZN5Glest4Game5World20initUnitsForScenarioEv
megaglest:_ZN5Glest4Game5World20recallGroupSelectionEi
megaglest:_ZN5Glest4Game5World20validateFactionTypesB5cxx11Ev
megaglest:_ZN5Glest4Game5World21getNextCommandGroupIdEv
megaglest:_ZN5Glest4Game5World21giveProductionCommandEiRKNSt7__cxx1112basic_stringIcSt11char_traitsIcESaIcEEE
megaglest:_ZN5Glest4Game5World21updateAllFactionUnitsEv
megaglest:_ZN5Glest4Game5World21validateResourceTypesB5cxx11Ev
megaglest:_ZN5Glest4Game5World23addUnitToGroupSelectionEii
megaglest:_ZN5Glest4Game5World23removeFogOfWarSkillTypeEPKNS0_4UnitE
megaglest:_ZN5Glest4Game5World23updateAllTilesetObjectsEv
megaglest:_ZN5Glest4Game5World24getAllFactionsCacheStatsB5cxx11Ev
megaglest:_ZN5Glest4Game5World24getAttackWarningsEnabledEv
megaglest:_ZN5Glest4Game5World24giveAttackStoppedCommandEiRKNSt7__cxx1112basic_stringIcSt11char_traitsIcESaIcEEEb
megaglest:_ZN5Glest4Game5World24setAttackWarningsEnabledEb
megaglest:_ZN5Glest4Game5World25underTakeDeadFactionUnitsEv
megaglest:_ZN5Glest4Game5World26refreshAllUnitExplorationsEv
megaglest:_ZN5Glest4Game5World28removeUnitFromGroupSelectionEii
megaglest:_ZN5Glest4Game5World28restoreExploredFogOfWarCellsEv
megaglest:_ZN5Glest4Game5World29removeResourceTargetFromCacheERKN6Shared8Graphics4Vec2IiEE
megaglest:_ZN5Glest4Game5World31removeFogOfWarSkillTypeFromListEPKNS0_4UnitE
megaglest:_ZN5Glest4Game5World31updateAllFactionConsumableCostsEv
megaglest:_ZN5Glest4Game5World36getExploredCellsLookupItemCacheStatsB5cxx11Ev
megaglest:_ZN5Glest4Game5World36getFowAlphaCellsLookupItemCacheStatsB5cxx11Ev
megaglest:_ZN5Glest4Game5World3endEv
megaglest:_ZN5Glest4Game5World4initEPNS0_4GameEbb
megaglest:_ZN5Glest4Game5World4tickEv
megaglest:_ZN5Glest4Game5World6updateEv
megaglest:_ZN5Glest4Game5World7cleanupEv
megaglest:_ZN5Glest4Game5World7initMapEv
megaglest:_ZN5Glest4Game5World7loadMapERKNSt7__cxx1112basic_stringIcSt11char_traitsIcESaIcEEEPN6Shared4Util8ChecksumE
megaglest:_ZN5Glest4Game5World8loadGameEPKN6Shared3Xml7XmlNodeE
megaglest:_ZN5Glest4Game5World8loadTechESt6vectorINSt7__cxx1112basic_stringIcSt11char_traitsIcESaIcEEESaIS8_EERKS8_RSt3setIS8_St4lessIS8_ES9_EPN6Shared4Util8ChecksumERSt3mapIS8_S2_ISt4pairIS8_S8_ESaISO_EESF_SaISN_ISB_SQ_EEEb
megaglest:_ZN5Glest4Game5World8saveGameEPN6Shared3Xml7XmlNodeE
megaglest:_ZN5Glest4Game5World9initCellsEb
megaglest:_ZN5Glest4Game5World9initUnitsEv
megaglest:_ZN5Glest4Game5World9placeUnitERKN6Shared8Graphics4Vec2IiEEiPNS0_4UnitEbb
megaglest:_ZN5Glest4Game5WorldC1Ev
megaglest:_ZN5Glest4Game5WorldC2Ev
megaglest:_ZN5Glest4Game5WorldD1Ev
megaglest:_ZN5Glest4Game5WorldD2Ev
megaglest:_ZN5Glest4Game6AiRuleC1EPNS0_2AiE
megaglest:_ZN5Glest4Game6AiRuleC2EPNS0_2AiE
megaglest:_ZN5Glest4Game6Config10configListE
megaglest:_ZN5Glest4Game6Config10getMapPathERKNSt7__cxx1112basic_stringIcSt11char_traitsIcESaIcEEES7_b
megaglest:_ZN5Glest4Game6Config11getInstanceESt4pairINS0_10ConfigTypeES3_ES2_INSt7__cxx1112basic_stringIcSt11char_traitsIcESaIcEEESA_ES2_IbbESA_
megaglest:_ZN5Glest4Game6Config12colorPickingE
megaglest:_ZN5Glest4Game6Config13tryCustomPathERSt4pairINS0_10ConfigTypeES3_ERS2_INSt7__cxx1112basic_stringIcSt11char_traitsIcESaIcEEESB_ESB_
megaglest:_ZN5Glest4Game6Config14frustumPickingE
megaglest:_ZN5Glest4Game6Config16selectBufPickingE
megaglest:_ZN5Glest4Game6Config17setUserPropertiesERKSt6vectorISt4pairINSt7__cxx1112basic_stringIcSt11char_traitsIcESaIcEEES9_ESaISA_EE
megaglest:_ZN5Glest4Game6Config18getPathListForTypeENS0_8PathTypeENSt7__cxx1112basic_stringIcSt11char_traitsIcESaIcEEE
megaglest:_ZN5Glest4Game6Config18glest_ini_filenameE
megaglest:_ZN5Glest4Game6Config22glestkeys_ini_filenameE
megaglest:_ZN5Glest4Game6Config22glestuser_ini_filenameE
megaglest:_ZN5Glest4Game6Config23customRuntimePropertiesB5cxx11E
megaglest:_ZN5Glest4Game6Config24ACTIVE_MOD_PROPERTY_NAMEE
megaglest:_ZN5Glest4Game6Config24replaceFileWithLocalFileERKSt6vectorINSt7__cxx1112basic_stringIcSt11char_traitsIcESaIcEEESaIS8_EES8_RS8_
megaglest:_ZN5Glest4Game6Config26findValidLocalFileFromPathENSt7__cxx1112basic_stringIcSt11char_traitsIcESaIcEEE
megaglest:_ZN5Glest4Game6Config26glestuserkeys_ini_filenameE
megaglest:_ZN5Glest4Game6Config4saveERKNSt7__cxx1112basic_stringIcSt11char_traitsIcESaIcEEE
megaglest:_ZN5Glest4Game6Config6reloadEv
megaglest:_ZN5Glest4Game6Config6setIntERKNSt7__cxx1112basic_stringIcSt11char_traitsIcESaIcEEEib
megaglest:_ZN5Glest4Game6Config7CopyAllEPS1_S2_
megaglest:_ZN5Glest4Game6Config7setBoolERKNSt7__cxx1112basic_stringIcSt11char_traitsIcESaIcEEEbb
megaglest:_ZN5Glest4Game6Config8setFloatERKNSt7__cxx1112basic_stringIcSt11char_traitsIcESaIcEEEfb
megaglest:_ZN5Glest4Game6Config8toStringB5cxx11Ev
megaglest:_ZN5Glest4Game6Config9setStringERKNSt7__cxx1112basic_stringIcSt11char_traitsIcESaIcEEES9_b
megaglest:_ZN5Glest4Game6ConfigC1ESt4pairINS0_10ConfigTypeES3_ES2_INSt7__cxx1112basic_stringIcSt11char_traitsIcESaIcEEESA_ES2_IbbESA_
megaglest:_ZN5Glest4Game6ConfigC1Ev
megaglest:_ZN5Glest4Game6ConfigC2ESt4pairINS0_10ConfigTypeES3_ES2_INSt7__cxx1112basic_stringIcSt11char_traitsIcESaIcEEESA_ES2_IbbESA_
megaglest:_ZN5Glest4Game6ConfigC2Ev
megaglest:_ZN5Glest4Game6Logger10clearHintsEv
megaglest:_ZN5Glest4Game6Logger11getInstanceEv
megaglest:_ZN5Glest4Game6Logger12logLineCountE
megaglest:_ZN5Glest4Game6Logger12showNextHintEv
megaglest:_ZN5Glest4Game6Logger13loadGameHintsENSt7__cxx1112basic_stringIcSt11char_traitsIcESaIcEEES7_b
megaglest:_ZN5Glest4Game6Logger16handleMouseClickEii
megaglest:_ZN5Glest4Game6Logger17loadLoadingScreenENSt7__cxx1112basic_stringIcSt11char_traitsIcESaIcEEE
megaglest:_ZN5Glest4Game6Logger19renderLoadingScreenEv
megaglest:_ZN5Glest4Game6Logger23setCancelLoadingEnabledEb
megaglest:_ZN5Glest4Game6Logger3addENSt7__cxx1112basic_stringIcSt11char_traitsIcESaIcEEEbS7_
megaglest:_ZN5Glest4Game6Logger5clearEv
megaglest:_ZN5Glest4Game6LoggerC1Ev
megaglest:_ZN5Glest4Game6LoggerC2Ev
megaglest:_ZN5Glest4Game6LoggerD1Ev
megaglest:_ZN5Glest4Game6LoggerD2Ev
megaglest:_ZN5Glest4Game6Object10setVisibleEb
megaglest:_ZN5Glest4Game6Object11setResourceEPKNS0_12ResourceTypeERKN6Shared8Graphics4Vec2IiEE
megaglest:_ZN5Glest4Game6Object13initParticlesEv
megaglest:_ZN5Glest4Game6Object13stateCallbackE
megaglest:_ZN5Glest4Game6Object14resetHighlightEv
megaglest:_ZN5Glest4Game6Object15updateHighlightEv
megaglest:_ZN5Glest4Game6Object22initParticlesFromTypesEPKSt6vectorIPNS0_24ObjectParticleSystemTypeESaIS4_EE
megaglest:_ZN5Glest4Game6Object3endEPN6Shared8Graphics14ParticleSystemE
megaglest:_ZN5Glest4Game6Object3endEv
megaglest:_ZN5Glest4Game6Object6updateEv
megaglest:_ZN5Glest4Game6Object8loadGameEPKN6Shared3Xml7XmlNodeEPKNS0_8TechTreeE
megaglest:_ZN5Glest4Game6Object8saveGameEPN6Shared3Xml7XmlNodeE
megaglest:_ZN5Glest4Game6Object9setHeightEf
megaglest:_ZN5Glest4Game6ObjectC1EPNS0_10ObjectTypeERKN6Shared8Graphics4Vec3IfEERKNS5_4Vec2IiEE
megaglest:_ZN5Glest4Game6ObjectC2EPNS0_10ObjectTypeERKN6Shared8Graphics4Vec3IfEERKNS5_4Vec2IiEE
megaglest:_ZN5Glest4Game6ObjectD0Ev
megaglest:_ZN5Glest4Game6ObjectD1Ev
megaglest:_ZN5Glest4Game6ObjectD2Ev
megaglest:_ZN5Glest4Game6unpackEPhPKcz
megaglest:_ZN5Glest4Game7Command11getPriorityEv
megaglest:_ZN5Glest4Game7Command14setCommandTypeEPKNS0_11CommandTypeE
megaglest:_ZN5Glest4Game7Command14setOriginalPosERKN6Shared8Graphics4Vec2IiEE
megaglest:_ZN5Glest4Game7Command19setPosToOriginalPosEv
megaglest:_ZN5Glest4Game7Command6getCRCEv
megaglest:_ZN5Glest4Game7Command6setPosERKN6Shared8Graphics4Vec2IiEE
megaglest:_ZN5Glest4Game7Command7setUnitEPNS0_4UnitE
megaglest:_ZN5Glest4Game7Command8loadGameEPKN6Shared3Xml7XmlNodeEPKNS0_8UnitTypeEPNS0_5WorldE
megaglest:_ZN5Glest4Game7Command8saveGameEPN6Shared3Xml7XmlNodeEPNS0_7FactionE
megaglest:_ZN5Glest4Game7CommandC1EPKNS0_11CommandTypeEPNS0_4UnitE
megaglest:_ZN5Glest4Game7CommandC1EPKNS0_11CommandTypeERKN6Shared8Graphics4Vec2IiEE
megaglest:_ZN5Glest4Game7CommandC1EPKNS0_11CommandTypeERKN6Shared8Graphics4Vec2IiEEPKNS0_8UnitTypeENS0_11CardinalDirE
megaglest:_ZN5Glest4Game7CommandC1Ev
megaglest:_ZN5Glest4Game7CommandC2EPKNS0_11CommandTypeEPNS0_4UnitE
megaglest:_ZN5Glest4Game7CommandC2EPKNS0_11CommandTypeERKN6Shared8Graphics4Vec2IiEE
megaglest:_ZN5Glest4Game7CommandC2EPKNS0_11CommandTypeERKN6Shared8Graphics4Vec2IiEEPKNS0_8UnitTypeENS0_11CardinalDirE
megaglest:_ZN5Glest4Game7CommandC2Ev
megaglest:_ZN5Glest4Game7Console10resetFontsEv
megaglest:_ZN5Glest4Game7Console11addLineOnlyENSt7__cxx1112basic_stringIcSt11char_traitsIcESaIcEEE
megaglest:_ZN5Glest4Game7Console13addStdMessageERKNSt7__cxx1112basic_stringIcSt11char_traitsIcESaIcEEES7_b
megaglest:_ZN5Glest4Game7Console13addStdMessageERKNSt7__cxx1112basic_stringIcSt11char_traitsIcESaIcEEEb
megaglest:_ZN5Glest4Game7Console16clearStoredLinesEv
megaglest:_ZN5Glest4Game7Console19FontChangedCallbackENSt7__cxx1112basic_stringIcSt11char_traitsIcESaIcEEEPN6Shared8Graphics4FontE
megaglest:_ZN5Glest4Game7Console21addStdScenarioMessageERKNSt7__cxx1112basic_stringIcSt11char_traitsIcESaIcEEEb
megaglest:_ZN5Glest4Game7Console24registerGraphicComponentENSt7__cxx1112basic_stringIcSt11char_traitsIcESaIcEEES7_
megaglest:_ZN5Glest4Game7Console6updateEv
megaglest:_ZN5Glest4Game7Console7addLineENSt7__cxx1112basic_stringIcSt11char_traitsIcESaIcEEEbS7_N6Shared8Graphics4Vec3IfEEb
megaglest:_ZN5Glest4Game7Console7addLineENSt7__cxx1112basic_stringIcSt11char_traitsIcESaIcEEEbiN6Shared8Graphics4Vec3IfEEbb
megaglest:_ZN5Glest4Game7Console7isEmptyEv
megaglest:_ZN5Glest4Game7Console7setFontEPN6Shared8Graphics6Font2DE
megaglest:_ZN5Glest4Game7Console9getNewUUDB5cxx11Ev
megaglest:_ZN5Glest4Game7Console9setFont3DEPN6Shared8Graphics6Font3DE
megaglest:_ZN5Glest4Game7ConsoleC1Ev
megaglest:_ZN5Glest4Game7ConsoleC2Ev
megaglest:_ZN5Glest4Game7ConsoleD0Ev
megaglest:_ZN5Glest4Game7ConsoleD1Ev
megaglest:_ZN5Glest4Game7ConsoleD2Ev
megaglest:_ZN5Glest4Game7Display10setUpImageEiPKN6Shared8Graphics9Texture2DE
megaglest:_ZN5Glest4Game7Display11switchColorEv
megaglest:_ZN5Glest4Game7Display21calculateUpDimensionsEi
megaglest:_ZN5Glest4Game7Display5clearEv
megaglest:_ZN5Glest4Game7Display8loadGameEPKN6Shared3Xml7XmlNodeE
megaglest:_ZN5Glest4Game7DisplayC1Ev
megaglest:_ZN5Glest4Game7DisplayC2Ev
megaglest:_ZN5Glest4Game7Faction10applyCostsEPKNS0_14ProducibleTypeEPKNS0_11CommandTypeE
megaglest:_ZN5Glest4Game7Faction10checkCostsEPKNS0_14ProducibleTypeEPKNS0_11CommandTypeE
megaglest:_ZN5Glest4Game7Faction10removeUnitEPNS0_4UnitE
megaglest:_ZN5Glest4Game7Faction11clearCachesEv
megaglest:_ZN5Glest4Game7Faction11removeStoreEPKNS0_8UnitTypeE
megaglest:_ZN5Glest4Game7Faction12deApplyCostsEPKNS0_14ProducibleTypeEPKNS0_11CommandTypeE
megaglest:_ZN5Glest4Game7Faction12deletePixelsEv
megaglest:_ZN5Glest4Game7Faction12startUpgradeEPKNS0_11UpgradeTypeE
megaglest:_ZN5Glest4Game7Faction13applyDiscountEPKNS0_14ProducibleTypeEi
megaglest:_ZN5Glest4Game7Faction13cancelUpgradeEPKNS0_11UpgradeTypeE
megaglest:_ZN5Glest4Game7Faction13finishUpgradeEPKNS0_11UpgradeTypeE
megaglest:_ZN5Glest4Game7Faction13getCacheStatsB5cxx11Ev
megaglest:_ZN5Glest4Game7Faction13getFrameCountEv
megaglest:_ZN5Glest4Game7Faction14getCacheKBytesEPmS2_S2_S2_S2_
megaglest:_ZN5Glest4Game7Faction16applyStaticCostsEPKNS0_14ProducibleTypeEPKNS0_11CommandTypeE
megaglest:_ZN5Glest4Game7Faction16canUnitsPathfindEv
megaglest:_ZN5Glest4Game7Faction17getSwitchTeamVoteEi
megaglest:_ZN5Glest4Game7Faction17incResourceAmountEPKNS0_12ResourceTypeEi
megaglest:_ZN5Glest4Game7Faction17setSwitchTeamVoteERNS0_14SwitchTeamVoteE
megaglest:_ZN5Glest4Game7Faction18deApplyStaticCostsEPKNS0_14ProducibleTypeEPKNS0_11CommandTypeE
megaglest:_ZN5Glest4Game7Faction18setResourceBalanceEPKNS0_12ResourceTypeEi
megaglest:_ZN5Glest4Game7Faction18signalWorkerThreadEi
megaglest:_ZN5Glest4Game7Faction19addUnitToMovingListEi
megaglest:_ZN5Glest4Game7Faction19resetResourceAmountEPKNS0_12ResourceTypeE
megaglest:_ZN5Glest4Game7Faction20applyCostsOnIntervalEPKNS0_12ResourceTypeE
megaglest:_ZN5Glest4Game7Faction20notifyUnitTypeChangeEPKNS0_4UnitEPKNS0_8UnitTypeE
megaglest:_ZN5Glest4Game7Faction21applyStaticProductionEPKNS0_14ProducibleTypeEPKNS0_11CommandTypeE
megaglest:_ZN5Glest4Game7Faction21clearUnitsPathfindingEv
megaglest:_ZN5Glest4Game7Faction21limitResourcesToStoreEv
megaglest:_ZN5Glest4Game7Faction22getUnitMovingListCountEv
megaglest:_ZN5Glest4Game7Faction23isResourceTargetInCacheERKN6Shared8Graphics4Vec2IiEEb
megaglest:_ZN5Glest4Game7Faction23setLockedUnitForFactionEPKNS0_8UnitTypeEb
megaglest:_ZN5Glest4Game7Faction24addResourceTargetToCacheERKN6Shared8Graphics4Vec2IiEEb
megaglest:_ZN5Glest4Game7Faction24addUnitToPathfindingListEi
megaglest:_ZN5Glest4Game7Faction24deApplyStaticConsumptionEPKNS0_14ProducibleTypeEPKNS0_11CommandTypeE
megaglest:_ZN5Glest4Game7Faction24removeUnitFromMovingListEi
megaglest:_ZN5Glest4Game7Faction24sortUnitsByCommandGroupsEv
megaglest:_ZN5Glest4Game7Faction25notifyUnitSkillTypeChangeEPKNS0_4UnitEPKNS0_9SkillTypeE
megaglest:_ZN5Glest4Game7Faction26hasUnitTypeWithResouceCostEPKNS0_12ResourceTypeE
megaglest:_ZN5Glest4Game7Faction27addCRC_DetailsForWorldFrameEib
megaglest:_ZN5Glest4Game7Faction27getCRC_DetailsForWorldFrameB5cxx11Ei
megaglest:_ZN5Glest4Game7Faction27getUnitPathfindingListCountEv
megaglest:_ZN5Glest4Game7Faction27notifyUnitAliveStatusChangeEPKNS0_4UnitE
megaglest:_ZN5Glest4Game7Faction29addCloseResourceTargetToCacheERKN6Shared8Graphics4Vec2IiEE
megaglest:_ZN5Glest4Game7Faction29findClosestUnitWithSkillClassERKN6Shared8Graphics4Vec2IiEERKNS0_12CommandClassERKSt6vectorINS0_10SkillClassESaISC_EEPKNS0_8UnitTypeE
megaglest:_ZN5Glest4Game7Faction29isWorkerThreadSignalCompletedEi
megaglest:_ZN5Glest4Game7Faction29removeResourceTargetFromCacheERKN6Shared8Graphics4Vec2IiEE
megaglest:_ZN5Glest4Game7Faction29removeUnitFromPathfindingListEi
megaglest:_ZN5Glest4Game7Faction30cleanupResourceTypeTargetCacheEPSt6vectorIN6Shared8Graphics4Vec2IiEESaIS6_EEi
megaglest:_ZN5Glest4Game7Faction35updateUnitTypeWithResourceCostCacheEPKNS0_12ResourceTypeE
megaglest:_ZN5Glest4Game7Faction37getClosestResourceTypeTargetFromCacheEPNS0_4UnitEPKNS0_12ResourceTypeEi
megaglest:_ZN5Glest4Game7Faction37getClosestResourceTypeTargetFromCacheERKN6Shared8Graphics4Vec2IiEEPKNS0_12ResourceTypeE
megaglest:_ZN5Glest4Game7Faction3endEv
megaglest:_ZN5Glest4Game7Faction4initEPNS0_11FactionTypeENS0_11ControlTypeEPNS0_8TechTreeEPNS0_4GameEiiibbPKN6Shared3Xml7XmlNodeE
megaglest:_ZN5Glest4Game7Faction4initEv
megaglest:_ZN5Glest4Game7Faction6getCRCEv
megaglest:_ZN5Glest4Game7Faction6isAllyEPKS1_
megaglest:_ZN5Glest4Game7Faction7addUnitEPNS0_4UnitE
megaglest:_ZN5Glest4Game7Faction8addStoreEPKNS0_8UnitTypeE
megaglest:_ZN5Glest4Game7Faction8loadGameEPKN6Shared3Xml7XmlNodeEiPNS0_12GameSettingsEPNS0_5WorldE
megaglest:_ZN5Glest4Game7Faction8saveGameEPN6Shared3Xml7XmlNodeE
megaglest:_ZN5Glest4Game7FactionC1Ev
megaglest:_ZN5Glest4Game7FactionC2Ev
megaglest:_ZN5Glest4Game7FactionD1Ev
megaglest:_ZN5Glest4Game7FactionD2Ev
megaglest:_ZN5Glest4Game7Metrics10reloadDataEii
megaglest:_ZN5Glest4Game7Metrics11getInstanceEv
megaglest:_ZN5Glest4Game7Metrics14getInstancePtrEv
megaglest:_ZN5Glest4Game7Metrics6reloadEii
megaglest:_ZN5Glest4Game7MetricsC1Ev
megaglest:_ZN5Glest4Game7MetricsC2Ev
megaglest:_ZN5Glest4Game7Minimap10copyFowTexEv
megaglest:_ZN5Glest4Game7Minimap11resetFowTexEv
megaglest:_ZN5Glest4Game7Minimap11setFogOfWarEb
megaglest:_ZN5Glest4Game7Minimap12updateFowTexEf
megaglest:_ZN5Glest4Game7Minimap13exploredAlphaE
megaglest:_ZN5Glest4Game7Minimap13restoreFowTexEv
megaglest:_ZN5Glest4Game7Minimap14computeTextureEPKNS0_5WorldE
megaglest:_ZN5Glest4Game7Minimap22copyFowTexAlphaSurfaceEv
megaglest:_ZN5Glest4Game7Minimap25incFowTextureAlphaSurfaceEN6Shared8Graphics4Vec2IiEEfb
megaglest:_ZN5Glest4Game7Minimap25restoreFowTexAlphaSurfaceEv
megaglest:_ZN5Glest4Game7Minimap4initEiiPKNS0_5WorldEb
megaglest:_ZN5Glest4Game7Minimap8loadGameEPKN6Shared3Xml7XmlNodeE
megaglest:_ZN5Glest4Game7Minimap8saveGameEPN6Shared3Xml7XmlNodeE
megaglest:_ZN5Glest4Game7MinimapC1Ev
megaglest:_ZN5Glest4Game7MinimapC2Ev
megaglest:_ZN5Glest4Game7MinimapD1Ev
megaglest:_ZN5Glest4Game7MinimapD2Ev
megaglest:_ZN5Glest4Game7ModInfoC1Ev
megaglest:_ZN5Glest4Game7ModInfoC2Ev
megaglest:_ZN5Glest4Game7Mouse3d6enableEv
megaglest:_ZN5Glest4Game7Mouse3d6updateEv
megaglest:_ZN5Glest4Game7Mouse3d9fadeSpeedE
megaglest:_ZN5Glest4Game7Mouse3dC1Ev
megaglest:_ZN5Glest4Game7Mouse3dC2Ev
megaglest:_ZN5Glest4Game7Program10initClientEPN6Shared8Platform8WindowGlERKNS3_2IpEi
megaglest:_ZN5Glest4Game7Program10initNormalEPN6Shared8Platform8WindowGlE
megaglest:_ZN5Glest4Game7Program10initServerEPN6Shared8Platform8WindowGlEPNS0_12GameSettingsE
megaglest:_ZN5Glest4Game7Program10initServerEPN6Shared8Platform8WindowGlEbbb
megaglest:_ZN5Glest4Game7Program10loopWorkerEv
megaglest:_ZN5Glest4Game7Program10sdlKeyDownE17SDL_KeyboardEvent
megaglest:_ZN5Glest4Game7Program10simpleTaskEPN6Shared14PlatformCommon10BaseThreadEPv
megaglest:_ZN5Glest4Game7Program11showMessageEPKc
megaglest:_ZN5Glest4Game7Program12initScenarioEPN6Shared8Platform8WindowGlENSt7__cxx1112basic_stringIcSt11char_traitsIcESaIcEEE
megaglest:_ZN5Glest4Game7Program13initSavedGameEPN6Shared8Platform8WindowGlEbNSt7__cxx1112basic_stringIcSt11char_traitsIcESaIcEEE
megaglest:_ZN5Glest4Game7Program13mouseDownLeftEii
megaglest:_ZN5Glest4Game7Program14consoleAddLineENSt7__cxx1112basic_stringIcSt11char_traitsIcESaIcEEE
megaglest:_ZN5Glest4Game7Program14eventMouseMoveEiiPKN6Shared8Platform10MouseStateE
megaglest:_ZN5Glest4Game7Program14initResolutionEv
megaglest:_ZN5Glest4Game7Program14rendererInitOkE
megaglest:_ZN5Glest4Game7Program15stopSoundSystemEv
megaglest:_ZN5Glest4Game7Program16isMessageShowingEv
megaglest:_ZN5Glest4Game7Program16resetSoundSystemEv
megaglest:_ZN5Glest4Game7Program16startSoundSystemEv
megaglest:_ZN5Glest4Game7Program18setDisplaySettingsEv
megaglest:_ZN5Glest4Game7Program18tryingRendererInitE
megaglest:_ZN5Glest4Game7Program19renderProgramMsgBoxEv
megaglest:_ZN5Glest4Game7Program21getSoundThreadManagerEb
megaglest:_ZN5Glest4Game7Program22initClientAutoFindHostEPN6Shared8Platform8WindowGlE
megaglest:_ZN5Glest4Game7Program22restoreDisplaySettingsEv
megaglest:_ZN5Glest4Game7Program23ShowMessageProgramState13mouseDownLeftEii
megaglest:_ZN5Glest4Game7Program23ShowMessageProgramState6renderEv
megaglest:_ZN5Glest4Game7Program23ShowMessageProgramState6updateEv
megaglest:_ZN5Glest4Game7Program23ShowMessageProgramState8keyPressE17SDL_KeyboardEvent
megaglest:_ZN5Glest4Game7Program23ShowMessageProgramState9mouseMoveEiiRKN6Shared8Platform10MouseStateE
megaglest:_ZN5Glest4Game7Program23ShowMessageProgramStateC1EPS1_PKc
megaglest:_ZN5Glest4Game7Program23ShowMessageProgramStateC2EPS1_PKc
megaglest:_ZN5Glest4Game7Program27restoreStateFromSystemErrorEv
megaglest:_ZN5Glest4Game7Program32wantShutdownApplicationAfterGameE
megaglest:_ZN5Glest4Game7Program4exitEv
megaglest:_ZN5Glest4Game7Program4initEPN6Shared8Platform8WindowGlEbb
megaglest:_ZN5Glest4Game7Program4loopEv
megaglest:_ZN5Glest4Game7Program5keyUpE17SDL_KeyboardEvent
megaglest:_ZN5Glest4Game7Program6resizeEN6Shared8Platform9SizeStateE
megaglest:_ZN5Glest4Game7Program7keyDownE17SDL_KeyboardEvent
megaglest:_ZN5Glest4Game7Program8keyPressE17SDL_KeyboardEvent
megaglest:_ZN5Glest4Game7Program8maxTimesE
megaglest:_ZN5Glest4Game7Program8reInitGlEv
megaglest:_ZN5Glest4Game7Program8reloadUIEv
megaglest:_ZN5Glest4Game7Program8setStateEPNS0_12ProgramStateEb
megaglest:_ZN5Glest4Game7Program9singletonE
megaglest:_ZN5Glest4Game7Program9textInputENSt7__cxx1112basic_stringIcSt11char_traitsIcESaIcEEE
megaglest:_ZN5Glest4Game7ProgramC1Ev
megaglest:_ZN5Glest4Game7ProgramC2Ev
megaglest:_ZN5Glest4Game7ProgramD0Ev
megaglest:_ZN5Glest4Game7ProgramD1Ev
megaglest:_ZN5Glest4Game7ProgramD2Ev
megaglest:_ZN5Glest4Game7Tileset10addSurfTexEiiiiRN6Shared8Graphics4Vec2IfEERPKNS3_9Texture2DEii
megaglest:_ZN5Glest4Game7Tileset11loadTilesetESt6vectorINSt7__cxx1112basic_stringIcSt11char_traitsIcESaIcEEESaIS8_EERKS8_PN6Shared4Util8ChecksumERSt3mapIS8_S2_ISt4pairIS8_S8_ESaISJ_EESt4lessIS8_ESaISI_ISB_SL_EEE
megaglest:_ZN5Glest4Game7Tileset17standardAirHeightE
megaglest:_ZN5Glest4Game7Tileset23standardShadowIntensityE
megaglest:_ZN5Glest4Game7Tileset4loadERKNSt7__cxx1112basic_stringIcSt11char_traitsIcESaIcEEEPN6Shared4Util8ChecksumESD_RSt3mapIS7_St6vectorISt4pairIS7_S7_ESaISH_EESt4lessIS7_ESaISG_IS8_SJ_EEE
megaglest:_ZN5Glest4Game7TilesetD1Ev
megaglest:_ZN5Glest4Game7TilesetD2Ev
megaglest:_ZN5Glest4Game7Upgrade8loadGameEPKN6Shared3Xml7XmlNodeEPNS0_7FactionE
megaglest:_ZN5Glest4Game7Upgrade8saveGameEPN6Shared3Xml7XmlNodeE
megaglest:_ZN5Glest4Game7Upgrade8setStateENS0_12UpgradeStateE
megaglest:_ZN5Glest4Game7UpgradeC1EPKNS0_11UpgradeTypeEi
megaglest:_ZN5Glest4Game7UpgradeC1Ev
megaglest:_ZN5Glest4Game7UpgradeC2EPKNS0_11UpgradeTypeEi
megaglest:_ZN5Glest4Game7UpgradeC2Ev
megaglest:_ZN5Glest4Game7pack754Eejj
megaglest:_ZN5Glest4Game7packi16EPht
megaglest:_ZN5Glest4Game7packi32EPhj
megaglest:_ZN5Glest4Game7packi64EPhm
megaglest:_ZN5Glest4Game8AutoTest10updateGameEPNS0_4GameE
megaglest:_ZN5Glest4Game8AutoTest10updateRootEPNS0_7ProgramEPNS0_8MainMenuE
megaglest:_ZN5Glest4Game8AutoTest11getInstanceEv
megaglest:_ZN5Glest4Game8AutoTest11invalidTimeE
megaglest:_ZN5Glest4Game8AutoTest11updateIntroEPNS0_7ProgramE
megaglest:_ZN5Glest4Game8AutoTest12gameSettingsE
megaglest:_ZN5Glest4Game8AutoTest12wantExitGameE
megaglest:_ZN5Glest4Game8AutoTest13updateNewGameEPNS0_7ProgramEPNS0_8MainMenuE
megaglest:_ZN5Glest4Game8AutoTest14updateScenarioEPNS0_17MenuStateScenarioE
megaglest:_ZN5Glest4Game8AutoTest15updateBattleEndEPNS0_7ProgramE
megaglest:_ZN5Glest4Game8AutoTest20loadGameSettingsFileB5cxx11E
megaglest:_ZN5Glest4Game8AutoTest8gameTimeE
megaglest:_ZN5Glest4Game8AutoTestC1Ev
megaglest:_ZN5Glest4Game8AutoTestC2Ev
megaglest:_ZN5Glest4Game8CoreData10loadSoundsENSt7__cxx1112basic_stringIcSt11char_traitsIcESaIcEEE
megaglest:_ZN5Glest4Game8CoreData11getDataPathB5cxx11Ev
megaglest:_ZN5Glest4Game8CoreData11getInstanceEv
megaglest:_ZN5Glest4Game8CoreData12getMenuMusicEv
megaglest:_ZN5Glest4Game8CoreData12loadTexturesENSt7__cxx1112basic_stringIcSt11char_traitsIcESaIcEEE
megaglest:_ZN5Glest4Game8CoreData13getIntroMusicEv
megaglest:_ZN5Glest4Game8CoreData13getWaterSoundEv
megaglest:_ZN5Glest4Game8CoreData14cleanupTextureEPPN6Shared8Graphics9Texture2DE
megaglest:_ZN5Glest4Game8CoreData14getClickSoundAEv
megaglest:_ZN5Glest4Game8CoreData14getClickSoundBEv
megaglest:_ZN5Glest4Game8CoreData14getClickSoundCEv
megaglest:_ZN5Glest4Game8CoreData14getFireTextureEv
megaglest:_ZN5Glest4Game8CoreData14getLogoTextureEv
megaglest:_ZN5Glest4Game8CoreData14getMarkerSoundEv
megaglest:_ZN5Glest4Game8CoreData14getSnowTextureEv
megaglest:_ZN5Glest4Game8CoreData14loadIntroMediaENSt7__cxx1112basic_stringIcSt11char_traitsIcESaIcEEE
megaglest:_ZN5Glest4Game8CoreData15computeFontSizeEi
megaglest:_ZN5Glest4Game8CoreData16getCustomTextureEv
megaglest:_ZN5Glest4Game8CoreData17getAttentionSoundEv
megaglest:_ZN5Glest4Game8CoreData17getHighlightSoundEv
megaglest:_ZN5Glest4Game8CoreData17loadMainMenuMediaENSt7__cxx1112basic_stringIcSt11char_traitsIcESaIcEEE
megaglest:_ZN5Glest4Game8CoreData18getCheckBoxTextureEv
megaglest:_ZN5Glest4Game8CoreData18getMiscTextureListEv
megaglest:_ZN5Glest4Game8CoreData18getOnServerTextureEv
megaglest:_ZN5Glest4Game8CoreData18loadBattleEndMediaENSt7__cxx1112basic_stringIcSt11char_traitsIcESaIcEEE
megaglest:_ZN5Glest4Game8CoreData19getButtonBigTextureEv
megaglest:_ZN5Glest4Game8CoreData19getHealthbarTextureEv
megaglest:_ZN5Glest4Game8CoreData19getLogoTextureExtraEi
megaglest:_ZN5Glest4Game8CoreData19getStatusBRBTextureEv
megaglest:_ZN5Glest4Game8CoreData19getTeamColorTextureEv
megaglest:_ZN5Glest4Game8CoreData19loadMusicIfRequiredEv
megaglest:_ZN5Glest4Game8CoreData20getBackgroundTextureEv
megaglest:_ZN5Glest4Game8CoreData20getGameWinnerTextureEv
megaglest:_ZN5Glest4Game8CoreData20getTextureBySystemIdENS1_17TextureSystemTypeE
megaglest:_ZN5Glest4Game8CoreData21getButtonSmallTextureEv
megaglest:_ZN5Glest4Game8CoreData21getNotOnServerTextureEv
megaglest:_ZN5Glest4Game8CoreData21getStatusReadyTextureEv
megaglest:_ZN5Glest4Game8CoreData21getWaterSplashTextureEv
megaglest:_ZN5Glest4Game8CoreData21loadTextureIfRequiredEPPN6Shared8Graphics9Texture2DENSt7__cxx1112basic_stringIcSt11char_traitsIcESaIcEEESC_ibbbb
megaglest:_ZN5Glest4Game8CoreData22getVerticalLineTextureEv
megaglest:_ZN5Glest4Game8CoreData22saveGameSettingsToFileENSt7__cxx1112basic_stringIcSt11char_traitsIcESaIcEEEPNS0_12GameSettingsEi
megaglest:_ZN5Glest4Game8CoreData24getHorizontalLineTextureEv
megaglest:_ZN5Glest4Game8CoreData24getLogoTextureExtraCountEv
megaglest:_ZN5Glest4Game8CoreData24getStatusNotReadyTextureEv
megaglest:_ZN5Glest4Game8CoreData24loadGameSettingsFromFileENSt7__cxx1112basic_stringIcSt11char_traitsIcESaIcEEEPNS0_12GameSettingsE
megaglest:_ZN5Glest4Game8CoreData25getCheckedCheckBoxTextureEv
megaglest:_ZN5Glest4Game8CoreData25loadWaterSoundsIfRequiredEv
megaglest:_ZN5Glest4Game8CoreData27getOnServerDifferentTextureEv
megaglest:_ZN5Glest4Game8CoreData27getOnServerInstalledTextureEv
megaglest:_ZN5Glest4Game8CoreData27registerFontChangedCallbackENSt7__cxx1112basic_stringIcSt11char_traitsIcESaIcEEEPN6Shared8Graphics28FontChangedCallbackInterfaceE
megaglest:_ZN5Glest4Game8CoreData27triggerFontChangedCallbacksENSt7__cxx1112basic_stringIcSt11char_traitsIcESaIcEEEPN6Shared8Graphics4FontE
megaglest:_ZN5Glest4Game8CoreData29getHealthbarBackgroundTextureEv
megaglest:_ZN5Glest4Game8CoreData29loadMiscTextureListIfRequiredEv
megaglest:_ZN5Glest4Game8CoreData29unRegisterFontChangedCallbackENSt7__cxx1112basic_stringIcSt11char_traitsIcESaIcEEE
megaglest:_ZN5Glest4Game8CoreData30loadLogoTextureExtraIfRequiredEv
megaglest:_ZN5Glest4Game8CoreData4loadEv
megaglest:_ZN5Glest4Game8CoreData7cleanupEv
megaglest:_ZN5Glest4Game8CoreData9loadFontsEv
megaglest:_ZN5Glest4Game8CoreData9loadMusicENSt7__cxx1112basic_stringIcSt11char_traitsIcESaIcEEE
megaglest:_ZN5Glest4Game8CoreDataC1Ev
megaglest:_ZN5Glest4Game8CoreDataC2Ev
megaglest:_ZN5Glest4Game8CoreDataD1Ev
megaglest:_ZN5Glest4Game8CoreDataD2Ev
megaglest:_ZN5Glest4Game8MainMenu11mouseUpLeftEii
megaglest:_ZN5Glest4Game8MainMenu13mouseDownLeftEii
megaglest:_ZN5Glest4Game8MainMenu14consoleAddLineENSt7__cxx1112basic_stringIcSt11char_traitsIcESaIcEEE
megaglest:_ZN5Glest4Game8MainMenu14mouseDownRightEii
megaglest:_ZN5Glest4Game8MainMenu19initBackgroundVideoEv
megaglest:_ZN5Glest4Game8MainMenu26isInSpecialKeyCaptureEventEv
megaglest:_ZN5Glest4Game8MainMenu4initEv
megaglest:_ZN5Glest4Game8MainMenu5keyUpE17SDL_KeyboardEvent
megaglest:_ZN5Glest4Game8MainMenu6renderEv
megaglest:_ZN5Glest4Game8MainMenu6updateEv
megaglest:_ZN5Glest4Game8MainMenu7keyDownE17SDL_KeyboardEvent
megaglest:_ZN5Glest4Game8MainMenu8keyPressE17SDL_KeyboardEvent
megaglest:_ZN5Glest4Game8MainMenu8oldstateE
megaglest:_ZN5Glest4Game8MainMenu8reloadUIEv
megaglest:_ZN5Glest4Game8MainMenu8setStateEPNS0_9MenuStateE
megaglest:_ZN5Glest4Game8MainMenu9mouseMoveEiiPKN6Shared8Platform10MouseStateE
megaglest:_ZN5Glest4Game8MainMenu9textInputENSt7__cxx1112basic_stringIcSt11char_traitsIcESaIcEEE
megaglest:_ZN5Glest4Game8MainMenuC1EPNS0_7ProgramE
megaglest:_ZN5Glest4Game8MainMenuC2EPNS0_7ProgramE
megaglest:_ZN5Glest4Game8MainMenuD0Ev
megaglest:_ZN5Glest4Game8MainMenuD1Ev
megaglest:_ZN5Glest4Game8MainMenuD2Ev
megaglest:_ZN5Glest4Game8Renderer10autoConfigEv
megaglest:_ZN5Glest4Game8Renderer10endTextureEN6Shared8Graphics13ResourceScopeEPNS3_7TextureEb
megaglest:_ZN5Glest4Game8Renderer10fowTexUnitE
megaglest:_ZN5Glest4Game8Renderer10init2dListEv
megaglest:_ZN5Glest4Game8Renderer10init3dListEv
megaglest:_ZN5Glest4Game8Renderer10loadConfigEv
megaglest:_ZN5Glest4Game8Renderer10renderLineEPKNS0_11GraphicLineE
megaglest:_ZN5Glest4Game8Renderer10renderQuadEiiiiPKN6Shared8Graphics9Texture2DE
megaglest:_ZN5Glest4Game8Renderer10renderTextERKNSt7__cxx1112basic_stringIcSt11char_traitsIcESaIcEEEPN6Shared8Graphics6Font2DERKNSB_4Vec3IfEEiib
megaglest:_ZN5Glest4Game8Renderer10renderTextERKNSt7__cxx1112basic_stringIcSt11char_traitsIcESaIcEEEPN6Shared8Graphics6Font2DERKNSB_4Vec4IfEEiib
megaglest:_ZN5Glest4Game8Renderer10renderTextERKNSt7__cxx1112basic_stringIcSt11char_traitsIcESaIcEEEPN6Shared8Graphics6Font2DEfiib
megaglest:_ZN5Glest4Game8Renderer10renderTileERKN6Shared8Graphics4Vec2IiEE
megaglest:_ZN5Glest4Game8Renderer10saveScreenERKNSt7__cxx1112basic_stringIcSt11char_traitsIcESaIcEEEii
megaglest:_ZN5Glest4Game8Renderer10simpleTaskEPN6Shared14PlatformCommon10BaseThreadEPv
megaglest:_ZN5Glest4Game8Renderer11MapRenderer17loadVisibleLayersEfRNS0_25VisibleQuadContainerCacheE
megaglest:_ZN5Glest4Game8Renderer11MapRenderer19renderVisibleLayersEPKNS0_3MapEfRNS0_25VisibleQuadContainerCacheE
megaglest:_ZN5Glest4Game8Renderer11MapRenderer4loadEf
megaglest:_ZN5Glest4Game8Renderer11MapRenderer5Layer18renderVisibleLayerEv
megaglest:_ZN5Glest4Game8Renderer11MapRenderer5Layer6renderERNS0_25VisibleQuadContainerCacheE
megaglest:_ZN5Glest4Game8Renderer11MapRenderer5Layer9load_vbosEb
megaglest:_ZN5Glest4Game8Renderer11MapRenderer5LayerD1Ev
megaglest:_ZN5Glest4Game8Renderer11MapRenderer5LayerD2Ev
megaglest:_ZN5Glest4Game8Renderer11MapRenderer6renderEPKNS0_3MapEfRNS0_25VisibleQuadContainerCacheE
megaglest:_ZN5Glest4Game8Renderer11MapRenderer7destroyEv
megaglest:_ZN5Glest4Game8Renderer11SurfaceData12nextUniqueIdE
megaglest:_ZN5Glest4Game8Renderer11baseTexUnitE
megaglest:_ZN5Glest4Game8Renderer11checkGlCapsEv
megaglest:_ZN5Glest4Game8Renderer11endScenarioEv
megaglest:_ZN5Glest4Game8Renderer11findTextureENSt7__cxx1112basic_stringIcSt11char_traitsIcESaIcEEE
megaglest:_ZN5Glest4Game8Renderer11getInstanceEv
megaglest:_ZN5Glest4Game8Renderer11initTextureEN6Shared8Graphics13ResourceScopeEPNS3_7TextureE
megaglest:_ZN5Glest4Game8Renderer11renderArrowERKN6Shared8Graphics4Vec3IfEES7_S7_f
megaglest:_ZN5Glest4Game8Renderer11renderClockEv
megaglest:_ZN5Glest4Game8Renderer11renderLabelEPNS0_12GraphicLabelE
megaglest:_ZN5Glest4Game8Renderer11renderLabelEPNS0_12GraphicLabelEPKN6Shared8Graphics4Vec3IfEE
megaglest:_ZN5Glest4Game8Renderer11renderLabelEPNS0_12GraphicLabelEPKN6Shared8Graphics4Vec4IfEE
megaglest:_ZN5Glest4Game8Renderer11renderUnitsEbi
megaglest:_ZN5Glest4Game8Renderer11renderWaterEv
megaglest:_ZN5Glest4Game8Renderer11reset3dMenuEv
megaglest:_ZN5Glest4Game8Renderer11swapBuffersEv
megaglest:_ZN5Glest4Game8Renderer12clearBuffersEv
megaglest:_ZN5Glest4Game8Renderer12clearZBufferEv
megaglest:_ZN5Glest4Game8Renderer12endLastModelEN6Shared8Graphics13ResourceScopeEb
megaglest:_ZN5Glest4Game8Renderer12getQuadCacheEbb
megaglest:_ZN5Glest4Game8Renderer12maxLightDistE
megaglest:_ZN5Glest4Game8Renderer12newTexture2DEN6Shared8Graphics13ResourceScopeE
megaglest:_ZN5Glest4Game8Renderer12newTexture3DEN6Shared8Graphics13ResourceScopeE
megaglest:_ZN5Glest4Game8Renderer12renderButtonEPNS0_13GraphicButtonEPKN6Shared8Graphics4Vec4IfEEPb
megaglest:_ZN5Glest4Game8Renderer12renderText3DERKNSt7__cxx1112basic_stringIcSt11char_traitsIcESaIcEEEPN6Shared8Graphics6Font3DERKNSB_4Vec3IfEEiib
megaglest:_ZN5Glest4Game8Renderer12renderText3DERKNSt7__cxx1112basic_stringIcSt11char_traitsIcESaIcEEEPN6Shared8Graphics6Font3DERKNSB_4Vec4IfEEiib
megaglest:_ZN5Glest4Game8Renderer12renderText3DERKNSt7__cxx1112basic_stringIcSt11char_traitsIcESaIcEEEPN6Shared8Graphics6Font3DEfiib
megaglest:_ZN5Glest4Game8Renderer12shadowsToStrB5cxx11ENS1_7ShadowsE
megaglest:_ZN5Glest4Game8Renderer12strToShadowsERKNSt7__cxx1112basic_stringIcSt11char_traitsIcESaIcEEE
megaglest:_ZN5Glest4Game8Renderer13CubeInFrustumERSt6vectorIS2_IfSaIfEESaIS4_EEffff
megaglest:_ZN5Glest4Game8Renderer13computeSunPosEf
megaglest:_ZN5Glest4Game8Renderer13getGlMoreInfoB5cxx11Ev
megaglest:_ZN5Glest4Game8Renderer13perspFarPlaneE
megaglest:_ZN5Glest4Game8Renderer13render3dSetupEv
megaglest:_ZN5Glest4Game8Renderer13renderConsoleEPKNS0_7ConsoleENS0_11ConsoleModeEi
megaglest:_ZN5Glest4Game8Renderer13renderDisplayEv
megaglest:_ZN5Glest4Game8Renderer13renderListBoxEPNS0_14GraphicListBoxE
megaglest:_ZN5Glest4Game8Renderer13renderMinimapEv
megaglest:_ZN5Glest4Game8Renderer13renderMouse2dEiiif
megaglest:_ZN5Glest4Game8Renderer13renderMouse3dEv
megaglest:_ZN5Glest4Game8Renderer13renderObjectsEi
megaglest:_ZN5Glest4Game8Renderer13renderSurfaceEi
megaglest:_ZN5Glest4Game8Renderer13rendererEndedE
megaglest:_ZN5Glest4Game8Renderer13setupLightingEv
megaglest:_ZN5Glest4Game8Renderer13shadowTexUnitE
megaglest:_ZN5Glest4Game8Renderer14ExtractFrustumERNS0_25VisibleQuadContainerCacheE
megaglest:_ZN5Glest4Game8Renderer14GetSurfaceVBOsEPNS1_11SurfaceDataE
megaglest:_ZN5Glest4Game8Renderer14PointInFrustumERSt6vectorIS2_IfSaIfEESaIS4_EEfff
megaglest:_ZN5Glest4Game8Renderer14checkExtensionERKNSt7__cxx1112basic_stringIcSt11char_traitsIcESaIcEEES9_
megaglest:_ZN5Glest4Game8Renderer14computeMoonPosEf
megaglest:_ZN5Glest4Game8Renderer14endLastTextureEN6Shared8Graphics13ResourceScopeEb
megaglest:_ZN5Glest4Game8Renderer14init3dListMenuEPKNS0_8MainMenuE
megaglest:_ZN5Glest4Game8Renderer14lightAmbFactorE
megaglest:_ZN5Glest4Game8Renderer14maxMouse2dAnimE
megaglest:_ZN5Glest4Game8Renderer14maxProgressBarE
megaglest:_ZN5Glest4Game8Renderer14perspNearPlaneE
megaglest:_ZN5Glest4Game8Renderer14preloadTextureENSt7__cxx1112basic_stringIcSt11char_traitsIcESaIcEEE
megaglest:_ZN5Glest4Game8Renderer14renderCheckBoxEPKNS0_15GraphicCheckBoxE
megaglest:_ZN5Glest4Game8Renderer14renderResourceEPKNS0_7FactionEbbPKNS0_12ResourceTypeEiRi
megaglest:_ZN5Glest4Game8Renderer15SphereInFrustumERSt6vectorIS2_IfSaIfEESaIS4_EEffff
megaglest:_ZN5Glest4Game8Renderer15computeSelectedERSt6vectorIPNS0_4UnitESaIS4_EERPKNS0_6ObjectEbRKN6Shared8Graphics4Vec2IiEESH_
megaglest:_ZN5Glest4Game8Renderer15computeSunAngleEf
megaglest:_ZN5Glest4Game8Renderer15defAmbientColorE
megaglest:_ZN5Glest4Game8Renderer15defDiffuseColorE
megaglest:_ZN5Glest4Game8Renderer15reloadResourcesEv
megaglest:_ZN5Glest4Game8Renderer15renderHealthBarEN6Shared8Graphics4Vec3IfEEPNS0_4UnitEfbPKNS3_9Texture2DESA_
megaglest:_ZN5Glest4Game8Renderer15renderPopupMenuEPNS0_9PopupMenuE
megaglest:_ZN5Glest4Game8Renderer15renderScrollBarEPKNS0_16GraphicScrollBarE
megaglest:_ZN5Glest4Game8Renderer15renderUnitsFastEbb
megaglest:_ZN5Glest4Game8Renderer16ccomputePositionERKN6Shared8Graphics4Vec2IiEERS5_b
megaglest:_ZN5Glest4Game8Renderer16computeMoonAngleEf
megaglest:_ZN5Glest4Game8Renderer16defSpecularColorE
megaglest:_ZN5Glest4Game8Renderer16getCentered3DPosERKNSt7__cxx1112basic_stringIcSt11char_traitsIcESaIcEEEPN6Shared8Graphics6Font3DERNSB_4Vec2IfEEiibb
megaglest:_ZN5Glest4Game8Renderer16internalRenderHpEiifN6Shared8Graphics4Vec3IfEEffS5_S5_
megaglest:_ZN5Glest4Game8Renderer16loadCameraMatrixEPKN6Shared8Graphics6CameraE
megaglest:_ZN5Glest4Game8Renderer16progressBarBack1E
megaglest:_ZN5Glest4Game8Renderer16progressBarBack2E
megaglest:_ZN5Glest4Game8Renderer16renderBackgroundEPKN6Shared8Graphics9Texture2DE
megaglest:_ZN5Glest4Game8Renderer16renderGhostModelEPKNS0_8UnitTypeEN6Shared8Graphics4Vec2IiEENS0_11CardinalDirEPNS6_4Vec4IfEE
megaglest:_ZN5Glest4Game8Renderer16renderHealthBarsEi
megaglest:_ZN5Glest4Game8Renderer16renderMapPreviewEPKN6Shared3Map10MapPreviewEbiiPPNS2_8Graphics9Texture2DE
megaglest:_ZN5Glest4Game8Renderer16renderMessageBoxEPNS0_17GraphicMessageBoxE
megaglest:_ZN5Glest4Game8Renderer16renderTextShadowERKNSt7__cxx1112basic_stringIcSt11char_traitsIcESaIcEEEPN6Shared8Graphics6Font2DERKNSB_4Vec4IfEEiib
megaglest:_ZN5Glest4Game8Renderer16renderUnitTitlesEPN6Shared8Graphics6Font2DENS3_4Vec3IfEE
megaglest:_ZN5Glest4Game8Renderer16resetFontManagerEN6Shared8Graphics13ResourceScopeE
megaglest:_ZN5Glest4Game8Renderer16setLastRenderFpsEi
megaglest:_ZN5Glest4Game8Renderer17magicCircleRadiusE
megaglest:_ZN5Glest4Game8Renderer17progressBarFront1E
megaglest:_ZN5Glest4Game8Renderer17progressBarFront2E
megaglest:_ZN5Glest4Game8Renderer17render2dMenuSetupEv
megaglest:_ZN5Glest4Game8Renderer17render3dMenuSetupEPKNS0_8MainMenuE
megaglest:_ZN5Glest4Game8Renderer17renderChatManagerEPKNS0_11ChatManagerE
megaglest:_ZN5Glest4Game8Renderer17renderConsoleLineEiiiiPN6Shared8Graphics6Font2DENSt7__cxx1112basic_stringIcSt11char_traitsIcESaIcEEEPKNS0_15ConsoleLineInfoE
megaglest:_ZN5Glest4Game8Renderer17renderObjectsFastEbbb
megaglest:_ZN5Glest4Game8Renderer17renderProgressBarEiiiPN6Shared8Graphics6Font2DEiNSt7__cxx1112basic_stringIcSt11char_traitsIcESaIcEEEb
megaglest:_ZN5Glest4Game8Renderer17renderTextureQuadEiiiiPKN6Shared8Graphics9Texture2DEfPKNS3_4Vec3IfEE
megaglest:_ZN5Glest4Game8Renderer18ReleaseSurfaceVBOsEv
megaglest:_ZN5Glest4Game8Renderer18computeVisibleQuadEv
megaglest:_ZN5Glest4Game8Renderer18endRenderToTextureEPPN6Shared8Graphics9Texture2DE
megaglest:_ZN5Glest4Game8Renderer18isHealthBarVisibleEPKNS0_4UnitEi
megaglest:_ZN5Glest4Game8Renderer18posInCellQuadCacheEN6Shared8Graphics4Vec2IiEE
megaglest:_ZN5Glest4Game8Renderer18renderMorphEffectsEv
megaglest:_ZN5Glest4Game8Renderer18renderTextShadow3DERKNSt7__cxx1112basic_stringIcSt11char_traitsIcESaIcEEEPN6Shared8Graphics6Font3DERKNSB_4Vec4IfEEiib
megaglest:_ZN5Glest4Game8Renderer18renderUnitTitles3DEPN6Shared8Graphics6Font3DENS3_4Vec3IfEE
megaglest:_ZN5Glest4Game8Renderer18renderUnitsToBuildEi
megaglest:_ZN5Glest4Game8Renderer18renderVideoLoadingEi
megaglest:_ZN5Glest4Game8Renderer18renderWaterEffectsEv
megaglest:_ZN5Glest4Game8Renderer18strToTextureFilterERKNSt7__cxx1112basic_stringIcSt11char_traitsIcESaIcEEE
megaglest:_ZN5Glest4Game8Renderer19checkGlOptionalCapsEv
megaglest:_ZN5Glest4Game8Renderer19renderConsoleLine3DEiiiiPN6Shared8Graphics6Font3DENSt7__cxx1112basic_stringIcSt11char_traitsIcESaIcEEEPKNS0_15ConsoleLineInfoE
megaglest:_ZN5Glest4Game8Renderer19renderProgressBar3DEiiiPN6Shared8Graphics6Font3DEiNSt7__cxx1112basic_stringIcSt11char_traitsIcESaIcEEEbi
megaglest:_ZN5Glest4Game8Renderer19renderSelectionQuadEv
megaglest:_ZN5Glest4Game8Renderer19renderText3DEnabledE
megaglest:_ZN5Glest4Game8Renderer19saveScreenToTextureEiiii
megaglest:_ZN5Glest4Game8Renderer19setupRenderForVideoEv
megaglest:_ZN5Glest4Game8Renderer20beginRenderToTextureEPPN6Shared8Graphics9Texture2DE
megaglest:_ZN5Glest4Game8Renderer20forceQuadCacheUpdateEv
megaglest:_ZN5Glest4Game8Renderer20loadGameCameraMatrixEv
megaglest:_ZN5Glest4Game8Renderer20loadProjectionMatrixEv
megaglest:_ZN5Glest4Game8Renderer20manageParticleSystemEPN6Shared8Graphics14ParticleSystemENS3_13ResourceScopeE
megaglest:_ZN5Glest4Game8Renderer20renderFPSWhenEnabledEi
megaglest:_ZN5Glest4Game8Renderer20renderMenuBackgroundEPKNS0_14MenuBackgroundE
megaglest:_ZN5Glest4Game8Renderer20renderMenuBackgroundEPN6Shared8Graphics6CameraEfPNS3_5ModelESt6vectorIS7_SaIS7_EENS3_4Vec3IfEEf
megaglest:_ZN5Glest4Game8Renderer20renderResourceStatusEv
megaglest:_ZN5Glest4Game8Renderer20renderTeamColorPlaneEv
megaglest:_ZN5Glest4Game8Renderer21computeScreenPositionERKN6Shared8Graphics4Vec3IfEE
megaglest:_ZN5Glest4Game8Renderer21cycleShowDebugUILevelEv
megaglest:_ZN5Glest4Game8Renderer21renderParticleManagerEN6Shared8Graphics13ResourceScopeE
megaglest:_ZN5Glest4Game8Renderer21renderSelectionCircleEN6Shared8Graphics4Vec3IfEEiff
megaglest:_ZN5Glest4Game8Renderer21renderTeamColorCircleEv
megaglest:_ZN5Glest4Game8Renderer21renderTeamColorEffectERN6Shared8Graphics4Vec3IfEEiiS5_PKNS3_9Texture2DE
megaglest:_ZN5Glest4Game8Renderer21selectionCircleRadiusE
megaglest:_ZN5Glest4Game8Renderer21updateParticleManagerEN6Shared8Graphics13ResourceScopeEi
megaglest:_ZN5Glest4Game8Renderer22cleanupParticleSystemsERSt6vectorIPN6Shared8Graphics14ParticleSystemESaIS6_EENS4_13ResourceScopeE
megaglest:_ZN5Glest4Game8Renderer22getSaveScreenQueueSizeEv
megaglest:_ZN5Glest4Game8Renderer22renderPerformanceStatsEv
megaglest:_ZN5Glest4Game8Renderer22renderSelectionEffectsEi
megaglest:_ZN5Glest4Game8Renderer22renderShadowsToTextureEi
megaglest:_ZN5Glest4Game8Renderer23cleanupScreenshotThreadEv
megaglest:_ZN5Glest4Game8Renderer23removeUnitFromQuadCacheEPKNS0_4UnitE
megaglest:_ZN5Glest4Game8Renderer23renderTextBoundingBox3DERKNSt7__cxx1112basic_stringIcSt11char_traitsIcESaIcEEEPN6Shared8Graphics6Font3DERKNSB_4Vec3IfEEiiiibbbii
megaglest:_ZN5Glest4Game8Renderer23renderTextBoundingBox3DERKNSt7__cxx1112basic_stringIcSt11char_traitsIcESaIcEEEPN6Shared8Graphics6Font3DERKNSB_4Vec4IfEEiiiibbbii
megaglest:_ZN5Glest4Game8Renderer23renderTextBoundingBox3DERKNSt7__cxx1112basic_stringIcSt11char_traitsIcESaIcEEEPN6Shared8Graphics6Font3DEfiiiibbbii
megaglest:_ZN5Glest4Game8Renderer23selectUsingColorPickingERSt6vectorIPNS0_4UnitESaIS4_EERPKNS0_6ObjectEbRKN6Shared8Graphics4Vec2IiEESH_
megaglest:_ZN5Glest4Game8Renderer24renderTextSurroundingBoxEiiiiii
megaglest:_ZN5Glest4Game8Renderer24renderVisibleMarkedCellsEbii
megaglest:_ZN5Glest4Game8Renderer24setAllowRenderUnitTitlesEb
megaglest:_ZN5Glest4Game8Renderer25enableProjectiveTexturingEv
megaglest:_ZN5Glest4Game8Renderer25removeObjectFromQuadCacheEPKNS0_6ObjectE
megaglest:_ZN5Glest4Game8Renderer26cleanupUnitParticleSystemsERSt6vectorIPN6Shared8Graphics18UnitParticleSystemESaIS6_EENS4_13ResourceScopeE
megaglest:_ZN5Glest4Game8Renderer26renderMarkedCellsOnMinimapEv
megaglest:_ZN5Glest4Game8Renderer26selectUsingSelectionBufferERSt6vectorIPNS0_4UnitESaIS4_EERPKNS0_6ObjectEbRKN6Shared8Graphics4Vec2IiEESH_
megaglest:_ZN5Glest4Game8Renderer27renderSpecialHighlightUnitsESt3mapIiNS0_24HighlightSpecialUnitInfoESt4lessIiESaISt4pairIKiS3_EEE
megaglest:_ZN5Glest4Game8Renderer27selectUsingFrustumSelectionERSt6vectorIPNS0_4UnitESaIS4_EERPKNS0_6ObjectEbRKN6Shared8Graphics4Vec2IiEESH_
megaglest:_ZN5Glest4Game8Renderer28setupLightingForRotatedModelEv
megaglest:_ZN5Glest4Game8Renderer29manageDeferredParticleSystemsEv
megaglest:_ZN5Glest4Game8Renderer31addToDeferredParticleSystemListESt4pairIPN6Shared8Graphics14ParticleSystemENS4_13ResourceScopeEE
megaglest:_ZN5Glest4Game8Renderer31getMarkedCellScreenPosQuadCacheEN6Shared8Graphics4Vec2IiEE
megaglest:_ZN5Glest4Game8Renderer31renderHighlightedCellsOnMinimapEv
megaglest:_ZN5Glest4Game8Renderer34updateMarkedCellScreenPosQuadCacheEN6Shared8Graphics4Vec2IiEE
megaglest:_ZN5Glest4Game8Renderer37removeParticleSystemsForParticleOwnerEPN6Shared8Graphics13ParticleOwnerENS3_13ResourceScopeE
megaglest:_ZN5Glest4Game8Renderer3endEv
megaglest:_ZN5Glest4Game8Renderer4initEv
megaglest:_ZN5Glest4Game8Renderer7endFontEPN6Shared8Graphics4FontENS3_13ResourceScopeEb
megaglest:_ZN5Glest4Game8Renderer7endGameEb
megaglest:_ZN5Glest4Game8Renderer7endMenuEv
megaglest:_ZN5Glest4Game8Renderer7isEndedEv
megaglest:_ZN5Glest4Game8Renderer7newFontEN6Shared8Graphics13ResourceScopeE
megaglest:_ZN5Glest4Game8Renderer7reset2dEv
megaglest:_ZN5Glest4Game8Renderer7reset3dEv
megaglest:_ZN5Glest4Game8Renderer7sunDistE
megaglest:_ZN5Glest4Game8Renderer8defColorE
megaglest:_ZN5Glest4Game8Renderer8endModelEN6Shared8Graphics13ResourceScopeEPNS3_5ModelEb
megaglest:_ZN5Glest4Game8Renderer8fowColorE
megaglest:_ZN5Glest4Game8Renderer8initGameEPKNS0_4GameEPNS0_10GameCameraE
megaglest:_ZN5Glest4Game8Renderer8initMenuEPKNS0_8MainMenuE
megaglest:_ZN5Glest4Game8Renderer8moonDistE
megaglest:_ZN5Glest4Game8Renderer8newModelEN6Shared8Graphics13ResourceScopeERKNSt7__cxx1112basic_stringIcSt11char_traitsIcESaIcEEEbPSt3mapISA_St6vectorISt4pairISA_SA_ESaISG_EESt4lessISA_ESaISF_ISB_SI_EEEPSA_
megaglest:_ZN5Glest4Game8Renderer8perspFovE
megaglest:_ZN5Glest4Game8Renderer9ambFactorE
megaglest:_ZN5Glest4Game8Renderer9getGlInfoB5cxx11Ev
megaglest:_ZN5Glest4Game8Renderer9newFont3DEN6Shared8Graphics13ResourceScopeE
megaglest:_ZN5Glest4Game8Renderer9reinitAllEv
megaglest:_ZN5Glest4Game8Renderer9renderHudEv
megaglest:_ZN5Glest4Game8RendererC1Ev
megaglest:_ZN5Glest4Game8RendererC2Ev
megaglest:_ZN5Glest4Game8RendererD0Ev
megaglest:_ZN5Glest4Game8RendererD1Ev
megaglest:_ZN5Glest4Game8RendererD2Ev
megaglest:_ZN5Glest4Game8Resource10setBalanceEi
megaglest:_ZN5Glest4Game8Resource4initEPKNS0_12ResourceTypeERKN6Shared8Graphics4Vec2IiEE
megaglest:_ZN5Glest4Game8Resource4initEPKNS0_12ResourceTypeEi
megaglest:_ZN5Glest4Game8Resource6getCRCEv
megaglest:_ZN5Glest4Game8Resource8loadGameEPKN6Shared3Xml7XmlNodeEiPKNS0_8TechTreeE
megaglest:_ZN5Glest4Game8Resource9decAmountEi
megaglest:_ZN5Glest4Game8Resource9setAmountEi
megaglest:_ZN5Glest4Game8ResourceC1Ev
megaglest:_ZN5Glest4Game8ResourceC2Ev
megaglest:_ZN5Glest4Game8Scenario14getScenarioDirESt6vectorINSt7__cxx1112basic_stringIcSt11char_traitsIcESaIcEEESaIS8_EERKS8_
megaglest:_ZN5Glest4Game8Scenario14isGameTutorialENSt7__cxx1112basic_stringIcSt11char_traitsIcESaIcEEE
megaglest:_ZN5Glest4Game8Scenario15getFunctionNameB5cxx11EPKN6Shared3Xml7XmlNodeE
megaglest:_ZN5Glest4Game8Scenario15getScenarioPathERKNSt7__cxx1112basic_stringIcSt11char_traitsIcESaIcEEES9_
megaglest:_ZN5Glest4Game8Scenario15getScenarioPathESt6vectorINSt7__cxx1112basic_stringIcSt11char_traitsIcESaIcEEESaIS8_EERKS8_b
megaglest:_ZN5Glest4Game8Scenario16loadGameSettingsERKSt6vectorINSt7__cxx1112basic_stringIcSt11char_traitsIcESaIcEEESaIS8_EEPKNS0_12ScenarioInfoEPNS0_12GameSettingsES8_
megaglest:_ZN5Glest4Game8Scenario16loadScenarioInfoENSt7__cxx1112basic_stringIcSt11char_traitsIcESaIcEEEPNS0_12ScenarioInfoEb
megaglest:_ZN5Glest4Game8Scenario19controllerTypeToStrB5cxx11ERKNS0_11ControlTypeE
megaglest:_ZN5Glest4Game8Scenario19strToControllerTypeERKNSt7__cxx1112basic_stringIcSt11char_traitsIcESaIcEEE
megaglest:_ZN5Glest4Game8Scenario20getScenarioPathIndexESt6vectorINSt7__cxx1112basic_stringIcSt11char_traitsIcESaIcEEESaIS8_EERKS8_
megaglest:_ZN5Glest4Game8Scenario4loadERKNSt7__cxx1112basic_stringIcSt11char_traitsIcESaIcEEE
megaglest:_ZN5Glest4Game8ScenarioD1Ev
megaglest:_ZN5Glest4Game8ScenarioD2Ev
megaglest:_ZN5Glest4Game8TechTree13getTypeByNameERKNSt7__cxx1112basic_stringIcSt11char_traitsIcESaIcEEE
megaglest:_ZN5Glest4Game8TechTree17getTranslatedNameENSt7__cxx1112basic_stringIcSt11char_traitsIcESaIcEEEbb
megaglest:_ZN5Glest4Game8TechTree20validateFactionTypesB5cxx11Ev
megaglest:_ZN5Glest4Game8TechTree21validateResourceTypesB5cxx11Ev
megaglest:_ZN5Glest4Game8TechTree24getTranslatedFactionNameENSt7__cxx1112basic_stringIcSt11char_traitsIcESaIcEEES7_
megaglest:_ZN5Glest4Game8TechTree4loadERKNSt7__cxx1112basic_stringIcSt11char_traitsIcESaIcEEERSt3setIS7_St4lessIS7_ESaIS7_EEPN6Shared4Util8ChecksumESJ_RSt3mapIS7_St6vectorISt4pairIS7_S7_ESaISN_EESC_SaISM_IS8_SP_EEEb
megaglest:_ZN5Glest4Game8TechTree6existsERKNSt7__cxx1112basic_stringIcSt11char_traitsIcESaIcEEERKSt6vectorIS7_SaIS7_EE
megaglest:_ZN5Glest4Game8TechTree7getNameB5cxx11Eb
megaglest:_ZN5Glest4Game8TechTree8findPathERKNSt7__cxx1112basic_stringIcSt11char_traitsIcESaIcEEERKSt6vectorIS7_SaIS7_EE
megaglest:_ZN5Glest4Game8TechTree8loadTechERKNSt7__cxx1112basic_stringIcSt11char_traitsIcESaIcEEERSt3setIS7_St4lessIS7_ESaIS7_EEPN6Shared4Util8ChecksumERSt3mapIS7_St6vectorISt4pairIS7_S7_ESaISN_EESC_SaISM_IS8_SP_EEEb
megaglest:_ZN5Glest4Game8TechTree8saveGameEPN6Shared3Xml7XmlNodeE
megaglest:_ZN5Glest4Game8TechTreeC1ESt6vectorINSt7__cxx1112basic_stringIcSt11char_traitsIcESaIcEEESaIS8_EE
megaglest:_ZN5Glest4Game8TechTreeC2ESt6vectorINSt7__cxx1112basic_stringIcSt11char_traitsIcESaIcEEESaIS8_EE
megaglest:_ZN5Glest4Game8TechTreeD1Ev
megaglest:_ZN5Glest4Game8TechTreeD2Ev
megaglest:_ZN5Glest4Game8TimeFlow4dawnE
megaglest:_ZN5Glest4Game8TimeFlow4duskE
megaglest:_ZN5Glest4Game8TimeFlow4initEPNS0_7TilesetE
megaglest:_ZN5Glest4Game8TimeFlow6updateEv
megaglest:_ZN5Glest4Game8TimeFlow8loadGameEPKN6Shared3Xml7XmlNodeE
megaglest:_ZN5Glest4Game8TimeFlow8saveGameEPN6Shared3Xml7XmlNodeE
megaglest:_ZN5Glest4Game8TimeFlowC1Ev
megaglest:_ZN5Glest4Game8TimeFlowC2Ev
megaglest:_ZN5Glest4Game8UnitType13propertyNamesE
megaglest:_ZN5Glest4Game8UnitType21computeFirstCtOfClassEv
megaglest:_ZN5Glest4Game8UnitType21computeFirstStOfClassEv
megaglest:_ZN5Glest4Game8UnitType35ctHarvestEmergencyReturnCommandTypeE
megaglest:_ZN5Glest4Game8UnitType6loadddEiRKNSt7__cxx1112basic_stringIcSt11char_traitsIcESaIcEEEPKNS0_8TechTreeES9_PKNS0_11FactionTypeEPN6Shared4Util8ChecksumESJ_RSt3mapIS7_St6vectorISt4pairIS7_S7_ESaISN_EESt4lessIS7_ESaISM_IS8_SP_EEEb
megaglest:_ZN5Glest4Game8UnitType7preLoadERKNSt7__cxx1112basic_stringIcSt11char_traitsIcESaIcEEE
megaglest:_ZN5Glest4Game8UnitTypeC1Ev
megaglest:_ZN5Glest4Game8UnitTypeC2Ev
megaglest:_ZN5Glest4Game8UnitTypeD0Ev
megaglest:_ZN5Glest4Game8UnitTypeD1Ev
megaglest:_ZN5Glest4Game8UnitTypeD2Ev
megaglest:_ZN5Glest4Game8debuggerE
megaglest:_ZN5Glest4Game9ArmorType8saveGameEPN6Shared3Xml7XmlNodeE
megaglest:_ZN5Glest4Game9BattleEnd13mouseDownLeftEii
megaglest:_ZN5Glest4Game9BattleEnd14showMessageBoxERKNSt7__cxx1112basic_stringIcSt11char_traitsIcESaIcEEES9_b
megaglest:_ZN5Glest4Game9BattleEnd17getBattleEndMusicB5cxx11Eb
megaglest:_ZN5Glest4Game9BattleEnd17getBattleEndVideoB5cxx11Eb
megaglest:_ZN5Glest4Game9BattleEnd19initBackgroundMusicEv
megaglest:_ZN5Glest4Game9BattleEnd19initBackgroundVideoEv
megaglest:_ZN5Glest4Game9BattleEnd6renderEv
megaglest:_ZN5Glest4Game9BattleEnd6updateEv
megaglest:_ZN5Glest4Game9BattleEnd7keyDownE17SDL_KeyboardEvent
megaglest:_ZN5Glest4Game9BattleEnd8reloadUIEv
megaglest:_ZN5Glest4Game9BattleEnd9mouseMoveEiiPKN6Shared8Platform10MouseStateE
megaglest:_ZN5Glest4Game9BattleEndC1EPNS0_7ProgramEPKNS0_5StatsEPNS0_12ProgramStateE
megaglest:_ZN5Glest4Game9BattleEndC2EPNS0_7ProgramEPKNS0_5StatsEPNS0_12ProgramStateE
megaglest:_ZN5Glest4Game9BattleEndD0Ev
megaglest:_ZN5Glest4Game9BattleEndD1Ev
megaglest:_ZN5Glest4Game9BattleEndD2Ev
megaglest:_ZN5Glest4Game9BuildTask8loadGameEPKN6Shared3Xml7XmlNodeEPNS0_7FactionE
megaglest:_ZN5Glest4Game9BuildTaskC1EPKNS0_12ResourceTypeE
megaglest:_ZN5Glest4Game9BuildTaskC1EPKNS0_8UnitTypeE
megaglest:_ZN5Glest4Game9BuildTaskC1EPKNS0_8UnitTypeERKN6Shared8Graphics4Vec2IiEE
megaglest:_ZN5Glest4Game9BuildTaskC1Ev
megaglest:_ZN5Glest4Game9BuildTaskC2EPKNS0_12ResourceTypeE
megaglest:_ZN5Glest4Game9BuildTaskC2EPKNS0_8UnitTypeE
megaglest:_ZN5Glest4Game9BuildTaskC2EPKNS0_8UnitTypeERKN6Shared8Graphics4Vec2IiEE
megaglest:_ZN5Glest4Game9BuildTaskC2Ev
megaglest:_ZN5Glest4Game9Commander13updateNetworkEPNS0_4GameE
megaglest:_ZN5Glest4Game9Commander19signalNetworkUpdateEPNS0_4GameE
megaglest:_ZN5Glest4Game9Commander22addToReplayCommandListERNS0_14NetworkCommandEi
megaglest:_ZN5Glest4Game9Commander28getReplayCommandListForFrameEi
megaglest:_ZN5Glest4Game9Commander4initEPNS0_5WorldE
megaglest:_ZN5Glest4Game9CommanderC1Ev
megaglest:_ZN5Glest4Game9CommanderC2Ev
megaglest:_ZN5Glest4Game9CommanderD0Ev
megaglest:_ZN5Glest4Game9CommanderD1Ev
megaglest:_ZN5Glest4Game9CommanderD2Ev
megaglest:_ZN5Glest4Game9IntroTextC1EPKN6Shared8Graphics9Texture2DERKNS3_4Vec2IiEESA_i
megaglest:_ZN5Glest4Game9IntroTextC1ERKNSt7__cxx1112basic_stringIcSt11char_traitsIcESaIcEEERKN6Shared8Graphics4Vec2IiEEiPNSB_6Font2DEPNSB_6Font3DE
megaglest:_ZN5Glest4Game9IntroTextC2EPKN6Shared8Graphics9Texture2DERKNS3_4Vec2IiEESA_i
megaglest:_ZN5Glest4Game9IntroTextC2ERKNSt7__cxx1112basic_stringIcSt11char_traitsIcESaIcEEERKN6Shared8Graphics4Vec2IiEEiPNSB_6Font2DEPNSB_6Font3DE
megaglest:_ZN5Glest4Game9MenuState14consoleAddLineENSt7__cxx1112basic_stringIcSt11char_traitsIcESaIcEEE
megaglest:_ZN5Glest4Game9MenuState16keyDownEditLabelE17SDL_KeyboardEventPPNS0_12GraphicLabelE
megaglest:_ZN5Glest4Game9MenuState17keyPressEditLabelE17SDL_KeyboardEventPPNS0_12GraphicLabelE
megaglest:_ZN5Glest4Game9MenuState18textInputEditLabelENSt7__cxx1112basic_stringIcSt11char_traitsIcESaIcEEEPPNS0_12GraphicLabelE
megaglest:_ZN5Glest4Game9MenuState19setActiveInputLabelEPNS0_12GraphicLabelEPS3_
megaglest:_ZN5Glest4Game9MenuState8reloadUIEv
megaglest:_ZN5Glest4Game9MenuStateC1EPNS0_7ProgramEPNS0_8MainMenuERKNSt7__cxx1112basic_stringIcSt11char_traitsIcESaIcEEE
megaglest:_ZN5Glest4Game9MenuStateC2EPNS0_7ProgramEPNS0_8MainMenuERKNSt7__cxx1112basic_stringIcSt11char_traitsIcESaIcEEE
megaglest:_ZN5Glest4Game9MenuStateD0Ev
megaglest:_ZN5Glest4Game9MenuStateD1Ev
megaglest:_ZN5Glest4Game9MenuStateD2Ev
megaglest:_ZN5Glest4Game9PopupMenu10mouseClickEii
megaglest:_ZN5Glest4Game9PopupMenu20mouseClickedMenuItemB5cxx11Eii
megaglest:_ZN5Glest4Game9PopupMenu4defHE
megaglest:_ZN5Glest4Game9PopupMenu4defWE
megaglest:_ZN5Glest4Game9PopupMenu4initENSt7__cxx1112basic_stringIcSt11char_traitsIcESaIcEEESt6vectorIS7_SaIS7_EE
megaglest:_ZN5Glest4Game9PopupMenu4setXEi
megaglest:_ZN5Glest4Game9PopupMenu4setYEi
megaglest:_ZN5Glest4Game9PopupMenu9mouseMoveEii
megaglest:_ZN5Glest4Game9PopupMenuC1ENSt7__cxx1112basic_stringIcSt11char_traitsIcESaIcEEES7_
megaglest:_ZN5Glest4Game9PopupMenuC2ENSt7__cxx1112basic_stringIcSt11char_traitsIcESaIcEEES7_
megaglest:_ZN5Glest4Game9PopupMenuD0Ev
megaglest:_ZN5Glest4Game9PopupMenuD1Ev
megaglest:_ZN5Glest4Game9PopupMenuD2Ev
megaglest:_ZN5Glest4Game9Selection11assignGroupEibPKSt6vectorIPNS0_4UnitESaIS4_EE
megaglest:_ZN5Glest4Game9Selection11recallGroupEib
megaglest:_ZN5Glest4Game9Selection14addUnitToGroupEiPNS0_4UnitE
megaglest:_ZN5Glest4Game9Selection16getUnitsForGroupEi
megaglest:_ZN5Glest4Game9Selection19removeUnitFromGroupEii
megaglest:_ZN5Glest4Game9Selection4initEPNS0_3GuiEiib
megaglest:_ZN5Glest4Game9Selection5clearEv
megaglest:_ZN5Glest4Game9Selection6selectEPNS0_4UnitEb
megaglest:_ZN5Glest4Game9Selection6selectERKSt6vectorIPNS0_4UnitESaIS4_EEb
megaglest:_ZN5Glest4Game9Selection8loadGameEPKN6Shared3Xml7XmlNodeEPNS0_5WorldE
megaglest:_ZN5Glest4Game9Selection8unSelectERKSt6vectorIPNS0_4UnitESaIS4_EE
megaglest:_ZN5Glest4Game9Selection8unSelectEi
megaglest:_ZN5Glest4Game9Selection9unitEventENS0_12UnitObserver5EventEPKNS0_4UnitE
megaglest:_ZN5Glest4Game9SelectionD0Ev
megaglest:_ZN5Glest4Game9SelectionD1Ev
megaglest:_ZN5Glest4Game9SelectionD2Ev
megaglest:_ZN5Glest4Game9SkillType10fieldToStrB5cxx11ENS0_5FieldE
megaglest:_ZN5Glest4Game9SkillType15loadAttackBoostEPKN6Shared3Xml7XmlNodeES6_PKNS0_11FactionTypeENSt7__cxx1112basic_stringIcSt11char_traitsIcESaIcEEERKSF_SF_RSt3mapISF_St6vectorISt4pairISF_SF_ESaISL_EESt4lessISF_ESaISK_ISG_SN_EEEPKNS0_8TechTreeE
megaglest:_ZN5Glest4Game9SkillType15skillClassToStrB5cxx11ENS0_10SkillClassE
megaglest:_ZN5Glest4Game9SkillType17nextAttackBoostIdE
megaglest:_ZN5Glest4Game9SkillType22findAttackBoostDetailsENSt7__cxx1112basic_stringIcSt11char_traitsIcESaIcEEEPKN6Shared3Xml7XmlNodeESC_
megaglest:_ZN5Glest4Game9SkillType4loadEPKN6Shared3Xml7XmlNodeES6_RKNSt7__cxx1112basic_stringIcSt11char_traitsIcESaIcEEEPKNS0_8TechTreeEPKNS0_11FactionTypeERSt3mapISC_St6vectorISt4pairISC_SC_ESaISO_EESt4lessISC_ESaISN_ISD_SQ_EEESC_
megaglest:_ZN5Glest4Game9SkillType8saveGameEPN6Shared3Xml7XmlNodeE
megaglest:_ZN5Glest4Game9SkillTypeD0Ev
megaglest:_ZN5Glest4Game9SkillTypeD1Ev
megaglest:_ZN5Glest4Game9SkillTypeD2Ev
megaglest:_ZN5Glest4Game9glestMainEiPPc
megaglest:_ZN5Glest4Game9unpack754Eyjj
megaglest:_ZN5Glest4Game9unpacki16EPh
megaglest:_ZN5Glest4Game9unpacki32EPh
megaglest:_ZN5Glest4Game9unpacki64EPh
megaglest:_ZN5Glest4Game9unpacku16EPh
megaglest:_ZN5Glest4Game9unpacku32EPh
megaglest:_ZN5Glest4Game9unpacku64EPh
megaglest:_ZN6Shared14PlatformCommon10BaseThread10getStartedEv
megaglest:_ZN6Shared14PlatformCommon10BaseThread10setStartedEb
megaglest:_ZN6Shared14PlatformCommon10BaseThread10signalQuitEv
megaglest:_ZN6Shared14PlatformCommon10BaseThread11canShutdownEb
megaglest:_ZN6Shared14PlatformCommon10BaseThread13getQuitStatusEv
megaglest:_ZN6Shared14PlatformCommon10BaseThread13setQuitStatusEb
megaglest:_ZN6Shared14PlatformCommon10BaseThread15isThreadDeletedEPv
megaglest:_ZN6Shared14PlatformCommon10BaseThread15shutdownAndWaitEPS1_
megaglest:_ZN6Shared14PlatformCommon10BaseThread15shutdownAndWaitEv
megaglest:_ZN6Shared14PlatformCommon10BaseThread16getExecutingTaskEv
megaglest:_ZN6Shared14PlatformCommon10BaseThread16getRunningStatusEv
megaglest:_ZN6Shared14PlatformCommon10BaseThread16masterThreadListE
megaglest:_ZN6Shared14PlatformCommon10BaseThread16setExecutingTaskEb
megaglest:_ZN6Shared14PlatformCommon10BaseThread16setRunningStatusEb
megaglest:_ZN6Shared14PlatformCommon10BaseThread19getThreadOwnerValidEv
megaglest:_ZN6Shared14PlatformCommon10BaseThread19setThreadOwnerValidEb
megaglest:_ZN6Shared14PlatformCommon10BaseThread20deleteSelfIfRequiredEv
megaglest:_ZN6Shared14PlatformCommon10BaseThread20getHasBeginExecutionEv
megaglest:_ZN6Shared14PlatformCommon10BaseThread20setHasBeginExecutionEb
megaglest:_ZN6Shared14PlatformCommon10BaseThread21mutexMasterThreadListE
megaglest:_ZN6Shared14PlatformCommon10BaseThread24getMutexThreadOwnerValidEv
megaglest:_ZN6Shared14PlatformCommon10BaseThread28getDeleteSelfOnExecutionDoneEv
megaglest:_ZN6Shared14PlatformCommon10BaseThread28getMutexThreadObjectAccessorEv
megaglest:_ZN6Shared14PlatformCommon10BaseThread28setDeleteSelfOnExecutionDoneEb
megaglest:_ZN6Shared14PlatformCommon10BaseThreadC1Ev
megaglest:_ZN6Shared14PlatformCommon10BaseThreadC2Ev
megaglest:_ZN6Shared14PlatformCommon10BaseThreadD0Ev
megaglest:_ZN6Shared14PlatformCommon10BaseThreadD1Ev
megaglest:_ZN6Shared14PlatformCommon10BaseThreadD2Ev
megaglest:_ZN6Shared14PlatformCommon10StartsWithERKNSt7__cxx1112basic_stringIcSt11char_traitsIcESaIcEEES8_
megaglest:_ZN6Shared14PlatformCommon10copyFileToENSt7__cxx1112basic_stringIcSt11char_traitsIcESaIcEEES6_
megaglest:_ZN6Shared14PlatformCommon10dump_eventEP13irc_session_sPKcS4_PS4_j
megaglest:_ZN6Shared14PlatformCommon10event_joinEP13irc_session_sPKcS4_PS4_j
megaglest:_ZN6Shared14PlatformCommon10fileExistsERKNSt7__cxx1112basic_stringIcSt11char_traitsIcESaIcEEE
megaglest:_ZN6Shared14PlatformCommon10formatPathENSt7__cxx1112basic_stringIcSt11char_traitsIcESaIcEEE
megaglest:_ZN6Shared14PlatformCommon10removeFileENSt7__cxx1112basic_stringIcSt11char_traitsIcESaIcEEE
megaglest:_ZN6Shared14PlatformCommon10renameFileENSt7__cxx1112basic_stringIcSt11char_traitsIcESaIcEEES6_
megaglest:_ZN6Shared14PlatformCommon10replaceAllERNSt7__cxx1112basic_stringIcSt11char_traitsIcESaIcEEERKS6_S9_
megaglest:_ZN6Shared14PlatformCommon10showCursorEb
megaglest:_ZN6Shared14PlatformCommon11event_leaveEP13irc_session_sPKcS4_PS4_j
megaglest:_ZN6Shared14PlatformCommon11getFileSizeENSt7__cxx1112basic_stringIcSt11char_traitsIcESaIcEEE
megaglest:_ZN6Shared14PlatformCommon11getUserHomeB5cxx11Ev
megaglest:_ZN6Shared14PlatformCommon12CacheManager18itemCacheMutexListB5cxx11E
megaglest:_ZN6Shared14PlatformCommon12CacheManager55getFolderTreeContentsCheckSumRecursivelyCacheLookupKey1E
megaglest:_ZN6Shared14PlatformCommon12CacheManager55getFolderTreeContentsCheckSumRecursivelyCacheLookupKey2E
megaglest:_ZN6Shared14PlatformCommon12CacheManager59getFolderTreeContentsCheckSumListRecursivelyCacheLookupKey1E
megaglest:_ZN6Shared14PlatformCommon12CacheManager59getFolderTreeContentsCheckSumListRecursivelyCacheLookupKey2E
megaglest:_ZN6Shared14PlatformCommon12event_noticeEP13irc_session_sPKcS4_PS4_j
megaglest:_ZN6Shared14PlatformCommon12get_nicknameEPKcPcm
megaglest:_ZN6Shared14PlatformCommon12removeFolderERKNSt7__cxx1112basic_stringIcSt11char_traitsIcESaIcEEE
megaglest:_ZN6Shared14PlatformCommon13LogFileThread10saveToDiskEbb
megaglest:_ZN6Shared14PlatformCommon13LogFileThread11addLogEntryENS_4Util11SystemFlags9DebugTypeENSt7__cxx1112basic_stringIcSt11char_traitsIcESaIcEEE
megaglest:_ZN6Shared14PlatformCommon13LogFileThread11canShutdownEb
megaglest:_ZN6Shared14PlatformCommon13LogFileThread22getLogEntryBufferCountEv
megaglest:_ZN6Shared14PlatformCommon13LogFileThread31checkSaveCurrentLogBufferToDiskEv
megaglest:_ZN6Shared14PlatformCommon13LogFileThread7executeEv
megaglest:_ZN6Shared14PlatformCommon13LogFileThreadC1Ev
megaglest:_ZN6Shared14PlatformCommon13LogFileThreadC2Ev
megaglest:_ZN6Shared14PlatformCommon13LogFileThreadD0Ev
megaglest:_ZN6Shared14PlatformCommon13LogFileThreadD1Ev
megaglest:_ZN6Shared14PlatformCommon13LogFileThreadD2Ev
megaglest:_ZN6Shared14PlatformCommon13event_channelEP13irc_session_sPKcS4_PS4_j
megaglest:_ZN6Shared14PlatformCommon13event_connectEP13irc_session_sPKcS4_PS4_j
megaglest:_ZN6Shared14PlatformCommon13event_numericEP13irc_session_sjPKcPS4_j
megaglest:_ZN6Shared14PlatformCommon13event_privmsgEP13irc_session_sPKcS4_PS4_j
megaglest:_ZN6Shared14PlatformCommon13file_progressEPNS0_7FtpFileEdddd
megaglest:_ZN6Shared14PlatformCommon13normalizeNickEPc
megaglest:_ZN6Shared14PlatformCommon14getGameVersionB5cxx11Ev
megaglest:_ZN6Shared14PlatformCommon14saveDataToFileENSt7__cxx1112basic_stringIcSt11char_traitsIcESaIcEEES6_
megaglest:_ZN6Shared14PlatformCommon14setGameVersionENSt7__cxx1112basic_stringIcSt11char_traitsIcESaIcEEE
megaglest:_ZN6Shared14PlatformCommon14systemtime_nowEv
megaglest:_ZN6Shared14PlatformCommon15FTPClientThread10signalQuitEv
megaglest:_ZN6Shared14PlatformCommon15FTPClientThread15shutdownAndWaitEv
megaglest:_ZN6Shared14PlatformCommon15FTPClientThread16addMapToRequestsENSt7__cxx1112basic_stringIcSt11char_traitsIcESaIcEEES7_
megaglest:_ZN6Shared14PlatformCommon15FTPClientThread16getMapFromServerESt4pairINSt7__cxx1112basic_stringIcSt11char_traitsIcESaIcEEES8_E
megaglest:_ZN6Shared14PlatformCommon15FTPClientThread16getMapFromServerESt4pairINSt7__cxx1112basic_stringIcSt11char_traitsIcESaIcEEES8_ES8_S8_
megaglest:_ZN6Shared14PlatformCommon15FTPClientThread17addFileToRequestsENSt7__cxx1112basic_stringIcSt11char_traitsIcESaIcEEES7_
megaglest:_ZN6Shared14PlatformCommon15FTPClientThread17getCallBackObjectEv
megaglest:_ZN6Shared14PlatformCommon15FTPClientThread17getFileFromServerENS0_23FTP_Client_CallbackTypeESt4pairINSt7__cxx1112basic_stringIcSt11char_traitsIcESaIcEEES9_ES9_S9_S9_S9_PSt6vectorIS9_SaIS9_EE
megaglest:_ZN6Shared14PlatformCommon15FTPClientThread17getFileFromServerESt4pairINSt7__cxx1112basic_stringIcSt11char_traitsIcESaIcEEES8_E
megaglest:_ZN6Shared14PlatformCommon15FTPClientThread17setCallBackObjectEPNS0_26FTPClientCallbackInterfaceE
megaglest:_ZN6Shared14PlatformCommon15FTPClientThread20addTilesetToRequestsENSt7__cxx1112basic_stringIcSt11char_traitsIcESaIcEEES7_
megaglest:_ZN6Shared14PlatformCommon15FTPClientThread20getTilesetFromServerESt4pairINSt7__cxx1112basic_stringIcSt11char_traitsIcESaIcEEES8_E
megaglest:_ZN6Shared14PlatformCommon15FTPClientThread20getTilesetFromServerESt4pairINSt7__cxx1112basic_stringIcSt11char_traitsIcESaIcEEES8_ES8_S8_S8_b
megaglest:_ZN6Shared14PlatformCommon15FTPClientThread21addScenarioToRequestsENSt7__cxx1112basic_stringIcSt11char_traitsIcESaIcEEES7_
megaglest:_ZN6Shared14PlatformCommon15FTPClientThread21addTechtreeToRequestsENSt7__cxx1112basic_stringIcSt11char_traitsIcESaIcEEES7_
megaglest:_ZN6Shared14PlatformCommon15FTPClientThread21addTempFileToRequestsENSt7__cxx1112basic_stringIcSt11char_traitsIcESaIcEEES7_
megaglest:_ZN6Shared14PlatformCommon15FTPClientThread21getScenarioFromServerESt4pairINSt7__cxx1112basic_stringIcSt11char_traitsIcESaIcEEES8_E
megaglest:_ZN6Shared14PlatformCommon15FTPClientThread21getTechtreeFromServerESt4pairINSt7__cxx1112basic_stringIcSt11char_traitsIcESaIcEEES8_E
megaglest:_ZN6Shared14PlatformCommon15FTPClientThread21getTechtreeFromServerESt4pairINSt7__cxx1112basic_stringIcSt11char_traitsIcESaIcEEES8_ES8_S8_
megaglest:_ZN6Shared14PlatformCommon15FTPClientThread21getTempFileFromServerESt4pairINSt7__cxx1112basic_stringIcSt11char_traitsIcESaIcEEES8_E
megaglest:_ZN6Shared14PlatformCommon15FTPClientThread25getFileInternalFromServerESt4pairINSt7__cxx1112basic_stringIcSt11char_traitsIcESaIcEEES8_E
megaglest:_ZN6Shared14PlatformCommon15FTPClientThread29getScenarioInternalFromServerESt4pairINSt7__cxx1112basic_stringIcSt11char_traitsIcESaIcEEES8_E
megaglest:_ZN6Shared14PlatformCommon15FTPClientThread29getTempFileInternalFromServerESt4pairINSt7__cxx1112basic_stringIcSt11char_traitsIcESaIcEEES8_E
megaglest:_ZN6Shared14PlatformCommon15FTPClientThread30getShellCommandOutput_UserDataENSt7__cxx1112basic_stringIcSt11char_traitsIcESaIcEEE
megaglest:_ZN6Shared14PlatformCommon15FTPClientThread32ShellCommandOutput_CallbackEventENSt7__cxx1112basic_stringIcSt11char_traitsIcESaIcEEEPcPv
megaglest:_ZN6Shared14PlatformCommon15FTPClientThread7executeEv
megaglest:_ZN6Shared14PlatformCommon15FTPClientThreadC1EiNSt7__cxx1112basic_stringIcSt11char_traitsIcESaIcEEESt4pairIS7_S7_ES9_S9_S9_PNS0_26FTPClientCallbackInterfaceES7_S7_S7_iS7_
megaglest:_ZN6Shared14PlatformCommon15FTPClientThreadC2EiNSt7__cxx1112basic_stringIcSt11char_traitsIcESaIcEEESt4pairIS7_S7_ES9_S9_S9_PNS0_26FTPClientCallbackInterfaceES7_S7_S7_iS7_
megaglest:_ZN6Shared14PlatformCommon15FTPServerThread10signalQuitEv
megaglest:_ZN6Shared14PlatformCommon15FTPServerThread15shutdownAndWaitEv
megaglest:_ZN6Shared14PlatformCommon15FTPServerThread17ftpValidationIntfE
megaglest:_ZN6Shared14PlatformCommon15FTPServerThread18setInternetEnabledEbb
megaglest:_ZN6Shared14PlatformCommon15FTPServerThread26addClientToServerIPAddressEjj
megaglest:_ZN6Shared14PlatformCommon15FTPServerThread7executeEv
megaglest:_ZN6Shared14PlatformCommon15FTPServerThreadC1ESt4pairINSt7__cxx1112basic_stringIcSt11char_traitsIcESaIcEEES8_ES9_S9_bbbiiPNS_8Platform28FTPClientValidationInterfaceES8_
megaglest:_ZN6Shared14PlatformCommon15FTPServerThreadC2ESt4pairINSt7__cxx1112basic_stringIcSt11char_traitsIcESaIcEEES8_ES9_S9_bbbiiPNS_8Platform28FTPClientValidationInterfaceES8_
megaglest:_ZN6Shared14PlatformCommon15FTPServerThreadD0Ev
megaglest:_ZN6Shared14PlatformCommon15FTPServerThreadD1Ev
megaglest:_ZN6Shared14PlatformCommon15FTPServerThreadD2Ev
megaglest:_ZN6Shared14PlatformCommon15executable_pathENSt7__cxx1112basic_stringIcSt11char_traitsIcESaIcEEEb
megaglest:_ZN6Shared14PlatformCommon15isCursorShowingEv
megaglest:_ZN6Shared14PlatformCommon15safeCharPtrCopyB5cxx11EPKci
megaglest:_ZN6Shared14PlatformCommon15valid_utf8_fileEPKc
megaglest:_ZN6Shared14PlatformCommon16PerformanceTimer4initEfi
megaglest:_ZN6Shared14PlatformCommon16PerformanceTimer5resetEv
megaglest:_ZN6Shared14PlatformCommon16PerformanceTimer6isTimeEv
megaglest:_ZN6Shared14PlatformCommon16SimpleTaskThread11canShutdownEb
megaglest:_ZN6Shared14PlatformCommon16SimpleTaskThread16getTaskSignalledEv
megaglest:_ZN6Shared14PlatformCommon16SimpleTaskThread16setTaskSignalledEb
megaglest:_ZN6Shared14PlatformCommon16SimpleTaskThread23setOverrideShutdownTaskEPFvPNS0_10BaseThreadEE
megaglest:_ZN6Shared14PlatformCommon16SimpleTaskThread24isThreadExecutionLaggingEv
megaglest:_ZN6Shared14PlatformCommon16SimpleTaskThread27getSimpleTaskInterfaceValidEv
megaglest:_ZN6Shared14PlatformCommon16SimpleTaskThread27setSimpleTaskInterfaceValidEb
megaglest:_ZN6Shared14PlatformCommon16SimpleTaskThread7cleanupEv
megaglest:_ZN6Shared14PlatformCommon16SimpleTaskThread7executeEv
megaglest:_ZN6Shared14PlatformCommon16SimpleTaskThreadC1EPNS0_27SimpleTaskCallbackInterfaceEjjbPvb
megaglest:_ZN6Shared14PlatformCommon16SimpleTaskThreadC2EPNS0_27SimpleTaskCallbackInterfaceEjjbPvb
megaglest:_ZN6Shared14PlatformCommon16SimpleTaskThreadD0Ev
megaglest:_ZN6Shared14PlatformCommon16SimpleTaskThreadD1Ev
megaglest:_ZN6Shared14PlatformCommon16SimpleTaskThreadD2Ev
megaglest:_ZN6Shared14PlatformCommon16endPathWithSlashERNSt7__cxx1112basic_stringIcSt11char_traitsIcESaIcEEEb
megaglest:_ZN6Shared14PlatformCommon16extractExtensionERKNSt7__cxx1112basic_stringIcSt11char_traitsIcESaIcEEE
megaglest:_ZN6Shared14PlatformCommon16restoreVideoModeEP10SDL_Windowb
megaglest:_ZN6Shared14PlatformCommon17ValueCheckerVault14addItemToVaultEPKvi
megaglest:_ZN6Shared14PlatformCommon17dcc_recv_callbackEP13irc_session_sjiPvPKcj
megaglest:_ZN6Shared14PlatformCommon17getGameGITVersionB5cxx11Ev
megaglest:_ZN6Shared14PlatformCommon17isValidClientTypeEj
megaglest:_ZN6Shared14PlatformCommon17setGameGITVersionENSt7__cxx1112basic_stringIcSt11char_traitsIcESaIcEEE
megaglest:_ZN6Shared14PlatformCommon18irc_event_dcc_chatEP13irc_session_sPKcS4_j
megaglest:_ZN6Shared14PlatformCommon18irc_event_dcc_sendEP13irc_session_sPKcS4_S4_mj
megaglest:_ZN6Shared14PlatformCommon19executeShellCommandENSt7__cxx1112basic_stringIcSt11char_traitsIcESaIcEEEiPNS0_35ShellCommandOutputCallbackInterfaceE
megaglest:_ZN6Shared14PlatformCommon19getCRCCacheFileNameESt4pairINSt7__cxx1112basic_stringIcSt11char_traitsIcESaIcEEES7_E
megaglest:_ZN6Shared14PlatformCommon19getCRCCacheFilePathB5cxx11Ev
megaglest:_ZN6Shared14PlatformCommon19getFileTextContentsENSt7__cxx1112basic_stringIcSt11char_traitsIcESaIcEEE
megaglest:_ZN6Shared14PlatformCommon19setCRCCacheFilePathENSt7__cxx1112basic_stringIcSt11char_traitsIcESaIcEEE
megaglest:_ZN6Shared14PlatformCommon20createDirectoryPathsENSt7__cxx1112basic_stringIcSt11char_traitsIcESaIcEEE
megaglest:_ZN6Shared14PlatformCommon20threadsafe_localtimeERKl
megaglest:_ZN6Shared14PlatformCommon21FileCRCPreCacheThread11canShutdownEb
megaglest:_ZN6Shared14PlatformCommon21FileCRCPreCacheThread15getPauseForGameEv
megaglest:_ZN6Shared14PlatformCommon21FileCRCPreCacheThread15setPauseForGameEb
megaglest:_ZN6Shared14PlatformCommon21FileCRCPreCacheThread28preCacheThreadCacheLookupKeyB5cxx11E
megaglest:_ZN6Shared14PlatformCommon21FileCRCPreCacheThread7executeEv
megaglest:_ZN6Shared14PlatformCommon21FileCRCPreCacheThreadC1ESt6vectorINSt7__cxx1112basic_stringIcSt11char_traitsIcESaIcEEESaIS8_EESA_PNS0_38FileCRCPreCacheThreadCallbackInterfaceE
megaglest:_ZN6Shared14PlatformCommon21FileCRCPreCacheThreadC1Ev
megaglest:_ZN6Shared14PlatformCommon21FileCRCPreCacheThreadC2ESt6vectorINSt7__cxx1112basic_stringIcSt11char_traitsIcESaIcEEESaIS8_EESA_PNS0_38FileCRCPreCacheThreadCallbackInterfaceE
megaglest:_ZN6Shared14PlatformCommon21FileCRCPreCacheThreadC2Ev
megaglest:_ZN6Shared14PlatformCommon21FileCRCPreCacheThreadD0Ev
megaglest:_ZN6Shared14PlatformCommon21FileCRCPreCacheThreadD1Ev
megaglest:_ZN6Shared14PlatformCommon21FileCRCPreCacheThreadD2Ev
megaglest:_ZN6Shared14PlatformCommon21hasCachedFileCRCValueENSt7__cxx1112basic_stringIcSt11char_traitsIcESaIcEEERj
megaglest:_ZN6Shared14PlatformCommon22dcc_file_recv_callbackEP13irc_session_sjiPvPKcj
megaglest:_ZN6Shared14PlatformCommon22getFullscreenVideoInfoERiS1_S1_b
megaglest:_ZN6Shared14PlatformCommon22replaceAllHTMLEntitiesERNSt7__cxx1112basic_stringIcSt11char_traitsIcESaIcEEE
megaglest:_ZN6Shared14PlatformCommon23FindExternalFTPServerIpEj
megaglest:_ZN6Shared14PlatformCommon23getFullscreenVideoModesEPSt6vectorINS0_8ModeInfoESaIS2_EEb
megaglest:_ZN6Shared14PlatformCommon23replaceAllBetweenTokensERNSt7__cxx1112basic_stringIcSt11char_traitsIcESaIcEEERKS6_S9_S9_b
megaglest:_ZN6Shared14PlatformCommon23replaceAllBetweenTokensERSt6vectorIcSaIcEERKNSt7__cxx1112basic_stringIcSt11char_traitsIcES2_EESB_SB_b
megaglest:_ZN6Shared14PlatformCommon23updatePathClimbingPartsERNSt7__cxx1112basic_stringIcSt11char_traitsIcESaIcEEEb
megaglest:_ZN6Shared14PlatformCommon23writeCachedFileCRCValueENSt7__cxx1112basic_stringIcSt11char_traitsIcESaIcEEERjS6_
megaglest:_ZN6Shared14PlatformCommon24isClientAllowedToGetFileEjPKcS2_
megaglest:_ZN6Shared14PlatformCommon25changeVideoModeFullScreenEb
megaglest:_ZN6Shared14PlatformCommon25trimPathWithStartingSlashERNSt7__cxx1112basic_stringIcSt11char_traitsIcESaIcEEE
megaglest:_ZN6Shared14PlatformCommon26searchAndReplaceTextInFileENSt7__cxx1112basic_stringIcSt11char_traitsIcESaIcEEES6_S6_b
megaglest:_ZN6Shared14PlatformCommon28extractDirectoryPathFromFileENSt7__cxx1112basic_stringIcSt11char_traitsIcESaIcEEE
megaglest:_ZN6Shared14PlatformCommon28extractFileFromDirectoryPathENSt7__cxx1112basic_stringIcSt11char_traitsIcESaIcEEE
megaglest:_ZN6Shared14PlatformCommon28extractLastDirectoryFromPathENSt7__cxx1112basic_stringIcSt11char_traitsIcESaIcEEE
megaglest:_ZN6Shared14PlatformCommon28getFormattedCRCCacheFileNameESt4pairINSt7__cxx1112basic_stringIcSt11char_traitsIcESaIcEEES7_E
megaglest:_ZN6Shared14PlatformCommon31clearFolderTreeContentsCheckSumERKNSt7__cxx1112basic_stringIcSt11char_traitsIcESaIcEEES8_
megaglest:_ZN6Shared14PlatformCommon31clearFolderTreeContentsCheckSumESt6vectorINSt7__cxx1112basic_stringIcSt11char_traitsIcESaIcEEESaIS7_EES7_RKS7_
megaglest:_ZN6Shared14PlatformCommon32getFullFileArchiveExtractCommandENSt7__cxx1112basic_stringIcSt11char_traitsIcESaIcEEES6_S6_S6_
megaglest:_ZN6Shared14PlatformCommon33getFullFileArchiveCompressCommandENSt7__cxx1112basic_stringIcSt11char_traitsIcESaIcEEES6_S6_S6_
megaglest:_ZN6Shared14PlatformCommon35clearFolderTreeContentsCheckSumListERKNSt7__cxx1112basic_stringIcSt11char_traitsIcESaIcEEES8_
megaglest:_ZN6Shared14PlatformCommon35clearFolderTreeContentsCheckSumListESt6vectorINSt7__cxx1112basic_stringIcSt11char_traitsIcESaIcEEESaIS7_EES7_RKS7_
megaglest:_ZN6Shared14PlatformCommon36getFolderTreeContentsListRecursivelyERKNSt7__cxx1112basic_stringIcSt11char_traitsIcESaIcEEES8_bPSt6vectorIS6_SaIS6_EE
megaglest:_ZN6Shared14PlatformCommon37getFolderTreeContentsCheckSumCacheKeyERKNSt7__cxx1112basic_stringIcSt11char_traitsIcESaIcEEES8_
megaglest:_ZN6Shared14PlatformCommon37getFolderTreeContentsCheckSumCacheKeyESt6vectorINSt7__cxx1112basic_stringIcSt11char_traitsIcESaIcEEESaIS7_EES7_RKS7_
megaglest:_ZN6Shared14PlatformCommon40getFolderTreeContentsCheckSumRecursivelyERKNSt7__cxx1112basic_stringIcSt11char_traitsIcESaIcEEES8_PNS_4Util8ChecksumEb
megaglest:_ZN6Shared14PlatformCommon40getFolderTreeContentsCheckSumRecursivelyESt6vectorINSt7__cxx1112basic_stringIcSt11char_traitsIcESaIcEEESaIS7_EES7_RKS7_PNS_4Util8ChecksumEb
megaglest:_ZN6Shared14PlatformCommon41getFolderTreeContentsCheckSumListCacheKeyERKNSt7__cxx1112basic_stringIcSt11char_traitsIcESaIcEEES8_
megaglest:_ZN6Shared14PlatformCommon41getFolderTreeContentsCheckSumListCacheKeyESt6vectorINSt7__cxx1112basic_stringIcSt11char_traitsIcESaIcEEESaIS7_EES7_RKS7_
megaglest:_ZN6Shared14PlatformCommon44getFolderTreeContentsCheckSumListRecursivelyERKNSt7__cxx1112basic_stringIcSt11char_traitsIcESaIcEEES8_PSt6vectorISt4pairIS6_jESaISB_EE
megaglest:_ZN6Shared14PlatformCommon44getFolderTreeContentsCheckSumListRecursivelyESt6vectorINSt7__cxx1112basic_stringIcSt11char_traitsIcESaIcEEESaIS7_EES7_RKS7_PS1_ISt4pairIS7_jESaISD_EE
megaglest:_ZN6Shared14PlatformCommon53getFolderTreeContentsCheckSumRecursivelyLastGeneratedESt6vectorINSt7__cxx1112basic_stringIcSt11char_traitsIcESaIcEEESaIS7_EES7_RKS7_
megaglest:_ZN6Shared14PlatformCommon5isdirEPKc
megaglest:_ZN6Shared14PlatformCommon5sleepEi
megaglest:_ZN6Shared14PlatformCommon6Chrono10getSecondsEv
megaglest:_ZN6Shared14PlatformCommon6Chrono11getCurTicksEv
megaglest:_ZN6Shared14PlatformCommon6Chrono12getCurMillisEv
megaglest:_ZN6Shared14PlatformCommon6Chrono12queryCounterEl
megaglest:_ZN6Shared14PlatformCommon6Chrono4stopEv
megaglest:_ZN6Shared14PlatformCommon6Chrono5resetEv
megaglest:_ZN6Shared14PlatformCommon6Chrono5startEv
megaglest:_ZN6Shared14PlatformCommon6Chrono9getMicrosEv
megaglest:_ZN6Shared14PlatformCommon6Chrono9getMillisEv
megaglest:_ZN6Shared14PlatformCommon6ChronoC1Eb
megaglest:_ZN6Shared14PlatformCommon6ChronoC2Eb
megaglest:_ZN6Shared14PlatformCommon6addlogEPKcz
megaglest:_ZN6Shared14PlatformCommon7Private11ScreenWidthE
megaglest:_ZN6Shared14PlatformCommon7Private12ScreenHeightE
megaglest:_ZN6Shared14PlatformCommon7Private18shouldBeFullscreenE
megaglest:_ZN6Shared14PlatformCommon7findAllERKNSt7__cxx1112basic_stringIcSt11char_traitsIcESaIcEEERSt6vectorIS6_SaIS6_EEbb
megaglest:_ZN6Shared14PlatformCommon7findAllERKSt6vectorINSt7__cxx1112basic_stringIcSt11char_traitsIcESaIcEEESaIS7_EERKS7_RS9_bbb
megaglest:_ZN6Shared14PlatformCommon8EndsWithERKNSt7__cxx1112basic_stringIcSt11char_traitsIcESaIcEEES8_
megaglest:_ZN6Shared14PlatformCommon8ModeInfoC1Eiii
megaglest:_ZN6Shared14PlatformCommon8ModeInfoC2Eiii
megaglest:_ZN6Shared14PlatformCommon8TokenizeERKNSt7__cxx1112basic_stringIcSt11char_traitsIcESaIcEEERSt6vectorIS6_SaIS6_EES8_
megaglest:_ZN6Shared14PlatformCommon8findDirsENSt7__cxx1112basic_stringIcSt11char_traitsIcESaIcEEERSt6vectorIS6_SaIS6_EEbb
megaglest:_ZN6Shared14PlatformCommon8findDirsERKSt6vectorINSt7__cxx1112basic_stringIcSt11char_traitsIcESaIcEEESaIS7_EERS9_bb
megaglest:_ZN6Shared14PlatformCommon9IRCThread10disconnectEv
megaglest:_ZN6Shared14PlatformCommon9IRCThread10signalQuitEv
megaglest:_ZN6Shared14PlatformCommon9IRCThread11getNickListB5cxx11Ev
megaglest:_ZN6Shared14PlatformCommon9IRCThread11isConnectedEb
megaglest:_ZN6Shared14PlatformCommon9IRCThread11joinChannelEv
megaglest:_ZN6Shared14PlatformCommon9IRCThread12debugEnabledE
megaglest:_ZN6Shared14PlatformCommon9IRCThread12leaveChannelEv
megaglest:_ZN6Shared14PlatformCommon9IRCThread13connectToHostEv
megaglest:_ZN6Shared14PlatformCommon9IRCThread14getCallbackObjEb
megaglest:_ZN6Shared14PlatformCommon9IRCThread14setCallbackObjEPNS0_20IRCCallbackInterfaceE
megaglest:_ZN6Shared14PlatformCommon9IRCThread15irc_run_sessionEP13irc_session_s
megaglest:_ZN6Shared14PlatformCommon9IRCThread15shutdownAndWaitEv
megaglest:_ZN6Shared14PlatformCommon9IRCThread16getEventDataDoneEv
megaglest:_ZN6Shared14PlatformCommon9IRCThread16setEventDataDoneEb
megaglest:_ZN6Shared14PlatformCommon9IRCThread17SendIRCCmdMessageENSt7__cxx1112basic_stringIcSt11char_traitsIcESaIcEEES7_
megaglest:_ZN6Shared14PlatformCommon9IRCThread23GetIRCConnectedNickListENSt7__cxx1112basic_stringIcSt11char_traitsIcESaIcEEEb
megaglest:_ZN6Shared14PlatformCommon9IRCThread24globalCacheContainerNameE
megaglest:_ZN6Shared14PlatformCommon9IRCThread7executeEv
megaglest:_ZN6Shared14PlatformCommon9IRCThreadC1ERKSt6vectorINSt7__cxx1112basic_stringIcSt11char_traitsIcESaIcEEESaIS8_EEPNS0_20IRCCallbackInterfaceE
megaglest:_ZN6Shared14PlatformCommon9IRCThreadC2ERKSt6vectorINSt7__cxx1112basic_stringIcSt11char_traitsIcESaIcEEESaIS8_EEPNS0_20IRCCallbackInterfaceE
megaglest:_ZN6Shared14PlatformCommon9IRCThreadD0Ev
megaglest:_ZN6Shared14PlatformCommon9IRCThreadD1Ev
megaglest:_ZN6Shared14PlatformCommon9IRCThreadD2Ev
megaglest:_ZN6Shared14PlatformCommon9isKeyDownEi
megaglest:_ZN6Shared15CompressionUtil12zipfile_toolEiPPKc
megaglest:_ZN6Shared15CompressionUtil21compressFileToZIPFileENSt7__cxx1112basic_stringIcSt11char_traitsIcESaIcEEES6_i
megaglest:_ZN6Shared15CompressionUtil21extractMemoryToMemoryEPhmm
megaglest:_ZN6Shared15CompressionUtil22compressMemoryToMemoryEPhmi
megaglest:_ZN6Shared15CompressionUtil22extractFileFromZIPFileENSt7__cxx1112basic_stringIcSt11char_traitsIcESaIcEEES6_
megaglest:_ZN6Shared3Lua12LuaArguments11returnFloatEf
megaglest:_ZN6Shared3Lua12LuaArguments11returnVec2iERKNS_8Graphics4Vec2IiEE
megaglest:_ZN6Shared3Lua12LuaArguments11returnVec4iERKNS_8Graphics4Vec4IiEE
megaglest:_ZN6Shared3Lua12LuaArguments12returnStringERKNSt7__cxx1112basic_stringIcSt11char_traitsIcESaIcEEE
megaglest:_ZN6Shared3Lua12LuaArguments15returnVectorIntERKSt6vectorIiSaIiEE
megaglest:_ZN6Shared3Lua12LuaArguments9returnIntEi
megaglest:_ZN6Shared3Lua12LuaArgumentsC1EP9lua_State
megaglest:_ZN6Shared3Lua12LuaArgumentsC2EP9lua_State
megaglest:_ZN6Shared3Lua9LuaScript11DumpGlobalsEv
megaglest:_ZN6Shared3Lua9LuaScript13errorToStringB5cxx11Ei
megaglest:_ZN6Shared3Lua9LuaScript14disableSandboxE
megaglest:_ZN6Shared3Lua9LuaScript14setSandboxCodeENSt7__cxx1112basic_stringIcSt11char_traitsIcESaIcEEE
megaglest:_ZN6Shared3Lua9LuaScript16debugModeEnabledE
megaglest:_ZN6Shared3Lua9LuaScript16registerFunctionEPFiP9lua_StateENSt7__cxx1112basic_stringIcSt11char_traitsIcESaIcEEE
megaglest:_ZN6Shared3Lua9LuaScript29setSandboxWrapperFunctionNameENSt7__cxx1112basic_stringIcSt11char_traitsIcESaIcEEE
megaglest:_ZN6Shared3Lua9LuaScript7endCallEv
megaglest:_ZN6Shared3Lua9LuaScript7runCodeENSt7__cxx1112basic_stringIcSt11char_traitsIcESaIcEEE
megaglest:_ZN6Shared3Lua9LuaScript8loadCodeENSt7__cxx1112basic_stringIcSt11char_traitsIcESaIcEEES7_
megaglest:_ZN6Shared3Lua9LuaScript8loadGameEPKNS_3Xml7XmlNodeE
megaglest:_ZN6Shared3Lua9LuaScript8saveGameEPNS_3Xml7XmlNodeE
megaglest:_ZN6Shared3Lua9LuaScript9beginCallENSt7__cxx1112basic_stringIcSt11char_traitsIcESaIcEEE
megaglest:_ZN6Shared3Lua9LuaScriptC1Ev
megaglest:_ZN6Shared3Lua9LuaScriptC2Ev
megaglest:_ZN6Shared3Lua9LuaScriptD1Ev
megaglest:_ZN6Shared3Lua9LuaScriptD2Ev
megaglest:_ZN6Shared3Map10MapPreview10getMapPathERKSt6vectorINSt7__cxx1112basic_stringIcSt11char_traitsIcESaIcEEESaIS8_EERKS8_S8_b
megaglest:_ZN6Shared3Map10MapPreview10saveToFileERKNSt7__cxx1112basic_stringIcSt11char_traitsIcESaIcEEE
megaglest:_ZN6Shared3Map10MapPreview10setSurfaceEiiNS0_14MapSurfaceTypeE
megaglest:_ZN6Shared3Map10MapPreview11loadMapInfoENSt7__cxx1112basic_stringIcSt11char_traitsIcESaIcEEEPNS0_7MapInfoES7_S7_b
megaglest:_ZN6Shared3Map10MapPreview11setAdvancedEiiii
megaglest:_ZN6Shared3Map10MapPreview11setResourceEiii
megaglest:_ZN6Shared3Map10MapPreview12changeObjectEiiii
megaglest:_ZN6Shared3Map10MapPreview12loadFromFileERKNSt7__cxx1112basic_stringIcSt11char_traitsIcESaIcEEE
megaglest:_ZN6Shared3Map10MapPreview12resetHeightsEi
megaglest:_ZN6Shared3Map10MapPreview13changeSurfaceEiiNS0_14MapSurfaceTypeEi
megaglest:_ZN6Shared3Map10MapPreview13realRandomizeEiiii
megaglest:_ZN6Shared3Map10MapPreview13resetFactionsEi
megaglest:_ZN6Shared3Map10MapPreview13smoothSurfaceEb
megaglest:_ZN6Shared3Map10MapPreview14applyNewHeightEfiii
megaglest:_ZN6Shared3Map10MapPreview14changeResourceEiiii
megaglest:_ZN6Shared3Map10MapPreview14switchSurfacesENS0_14MapSurfaceTypeES2_
megaglest:_ZN6Shared3Map10MapPreview16findAllValidMapsERKSt6vectorINSt7__cxx1112basic_stringIcSt11char_traitsIcESaIcEEESaIS8_EES8_bbPSA_
megaglest:_ZN6Shared3Map10MapPreview16randomizeHeightsEbiiii
megaglest:_ZN6Shared3Map10MapPreview17glestChangeHeightEiiii
megaglest:_ZN6Shared3Map10MapPreview17randomizeFactionsEv
megaglest:_ZN6Shared3Map10MapPreview18pirateChangeHeightEiiii
megaglest:_ZN6Shared3Map10MapPreview19changeStartLocationEiii
megaglest:_ZN6Shared3Map10MapPreview5flipXEv
megaglest:_ZN6Shared3Map10MapPreview5flipYEv
megaglest:_ZN6Shared3Map10MapPreview5resetEiifNS0_14MapSurfaceTypeE
megaglest:_ZN6Shared3Map10MapPreview6copyXYEiiii
megaglest:_ZN6Shared3Map10MapPreview6insideEii
megaglest:_ZN6Shared3Map10MapPreview6resizeEiifNS0_14MapSurfaceTypeE
megaglest:_ZN6Shared3Map10MapPreview6swapXYEiiii
megaglest:_ZN6Shared3Map10MapPreview7isCliffEii
megaglest:_ZN6Shared3Map10MapPreview7setDescERKNSt7__cxx1112basic_stringIcSt11char_traitsIcESaIcEEE
megaglest:_ZN6Shared3Map10MapPreview8setTitleERKNSt7__cxx1112basic_stringIcSt11char_traitsIcESaIcEEE
megaglest:_ZN6Shared3Map10MapPreview9setAuthorERKNSt7__cxx1112basic_stringIcSt11char_traitsIcESaIcEEE
megaglest:_ZN6Shared3Map10MapPreview9setHeightEiif
megaglest:_ZN6Shared3Map10MapPreview9setObjectEiii
megaglest:_ZN6Shared3Map10MapPreview9setRefAltEii
megaglest:_ZN6Shared3Map10MapPreviewC1Ev
megaglest:_ZN6Shared3Map10MapPreviewC2Ev
megaglest:_ZN6Shared3Map10MapPreviewD1Ev
megaglest:_ZN6Shared3Map10MapPreviewD2Ev
megaglest:_ZN6Shared3Map21toEndianMapFileHeaderERNS0_13MapFileHeaderE
megaglest:_ZN6Shared3Map23fromEndianMapFileHeaderERNS0_13MapFileHeaderE
megaglest:_ZN6Shared3Xml10XmlIoRapid11getInstanceEv
megaglest:_ZN6Shared3Xml10XmlIoRapid11initializedE
megaglest:_ZN6Shared3Xml10XmlIoRapid13isInitializedEv
megaglest:_ZN6Shared3Xml10XmlIoRapid4initEv
megaglest:_ZN6Shared3Xml10XmlIoRapid4loadERKNSt7__cxx1112basic_stringIcSt11char_traitsIcESaIcEEERKSt3mapIS7_S7_St4lessIS7_ESaISt4pairIS8_S7_EEEbbb
megaglest:_ZN6Shared3Xml10XmlIoRapid4saveERKNSt7__cxx1112basic_stringIcSt11char_traitsIcESaIcEEEPKNS0_7XmlNodeE
megaglest:_ZN6Shared3Xml10XmlIoRapid7cleanupEv
megaglest:_ZN6Shared3Xml10XmlIoRapidC1Ev
megaglest:_ZN6Shared3Xml10XmlIoRapidC2Ev
megaglest:_ZN6Shared3Xml10XmlIoRapidD1Ev
megaglest:_ZN6Shared3Xml10XmlIoRapidD2Ev
megaglest:_ZN6Shared3Xml12XmlAttribute8setValueENSt7__cxx1112basic_stringIcSt11char_traitsIcESaIcEEE
megaglest:_ZN6Shared3Xml12XmlAttributeC1EPN8rapidxml13xml_attributeIcEERKSt3mapINSt7__cxx1112basic_stringIcSt11char_traitsIcESaIcEEESC_St4lessISC_ESaISt4pairIKSC_SC_EEE
megaglest:_ZN6Shared3Xml12XmlAttributeC1ERKNSt7__cxx1112basic_stringIcSt11char_traitsIcESaIcEEES9_RKSt3mapIS7_S7_St4lessIS7_ESaISt4pairIS8_S7_EEE
megaglest:_ZN6Shared3Xml12XmlAttributeC2EPN8rapidxml13xml_attributeIcEERKSt3mapINSt7__cxx1112basic_stringIcSt11char_traitsIcESaIcEEESC_St4lessISC_ESaISt4pairIKSC_SC_EEE
megaglest:_ZN6Shared3Xml12XmlAttributeC2ERKNSt7__cxx1112basic_stringIcSt11char_traitsIcESaIcEEES9_RKSt3mapIS7_S7_St4lessIS7_ESaISt4pairIS8_S7_EEE
megaglest:_ZN6Shared3Xml7XmlNode10clearChildERKNSt7__cxx1112basic_stringIcSt11char_traitsIcESaIcEEE
megaglest:_ZN6Shared3Xml7XmlNode12addAttributeERKNSt7__cxx1112basic_stringIcSt11char_traitsIcESaIcEEES9_RKSt3mapIS7_S7_St4lessIS7_ESaISt4pairIS8_S7_EEE
megaglest:_ZN6Shared3Xml7XmlNode8addChildERKNSt7__cxx1112basic_stringIcSt11char_traitsIcESaIcEEES7_
megaglest:_ZN6Shared3Xml7XmlNodeC1EPN8rapidxml8xml_nodeIcEERKSt3mapINSt7__cxx1112basic_stringIcSt11char_traitsIcESaIcEEESC_St4lessISC_ESaISt4pairIKSC_SC_EEEb
megaglest:_ZN6Shared3Xml7XmlNodeC1ERKNSt7__cxx1112basic_stringIcSt11char_traitsIcESaIcEEE
megaglest:_ZN6Shared3Xml7XmlNodeC2EPN8rapidxml8xml_nodeIcEERKSt3mapINSt7__cxx1112basic_stringIcSt11char_traitsIcESaIcEEESC_St4lessISC_ESaISt4pairIKSC_SC_EEEb
megaglest:_ZN6Shared3Xml7XmlNodeC2ERKNSt7__cxx1112basic_stringIcSt11char_traitsIcESaIcEEE
megaglest:_ZN6Shared3Xml7XmlNodeD1Ev
megaglest:_ZN6Shared3Xml7XmlNodeD2Ev
megaglest:_ZN6Shared3Xml7XmlTree13clearRootNodeEv
megaglest:_ZN6Shared3Xml7XmlTree30setSkipUpdatePathClimbingPartsEb
megaglest:_ZN6Shared3Xml7XmlTree4initERKNSt7__cxx1112basic_stringIcSt11char_traitsIcESaIcEEE
megaglest:_ZN6Shared3Xml7XmlTree4loadERKNSt7__cxx1112basic_stringIcSt11char_traitsIcESaIcEEERKSt3mapIS7_S7_St4lessIS7_ESaISt4pairIS8_S7_EEEbbb
megaglest:_ZN6Shared3Xml7XmlTree4saveERKNSt7__cxx1112basic_stringIcSt11char_traitsIcESaIcEEE
megaglest:_ZN6Shared3Xml7XmlTreeC1ENS0_22xml_engine_parser_typeE
megaglest:_ZN6Shared3Xml7XmlTreeC2ENS0_22xml_engine_parser_typeE
megaglest:_ZN6Shared3Xml7XmlTreeD1Ev
megaglest:_ZN6Shared3Xml7XmlTreeD2Ev
megaglest:_ZN6Shared4Util10Properties11gameVersionB5cxx11E
megaglest:_ZN6Shared4Util10Properties12loadFromTextERKNSt7__cxx1112basic_stringIcSt11char_traitsIcESaIcEEE
megaglest:_ZN6Shared4Util10Properties12scenarioPathB5cxx11E
megaglest:_ZN6Shared4Util10Properties12techtreePathB5cxx11E
megaglest:_ZN6Shared4Util10Properties12tutorialPathB5cxx11E
megaglest:_ZN6Shared4Util10Properties15applicationPathB5cxx11E
megaglest:_ZN6Shared4Util10Properties15processTextLineEbPc
megaglest:_ZN6Shared4Util10Properties16applyTagsToValueERNSt7__cxx1112basic_stringIcSt11char_traitsIcESaIcEEEPKSt3mapIS7_S7_St4lessIS7_ESaISt4pairIKS7_S7_EEEb
megaglest:_ZN6Shared4Util10Properties19applicationDataPathB5cxx11E
megaglest:_ZN6Shared4Util10Properties19isValuePathVariableERKNSt7__cxx1112basic_stringIcSt11char_traitsIcESaIcEEE
megaglest:_ZN6Shared4Util10Properties23getTagReplacementValuesEPSt3mapINSt7__cxx1112basic_stringIcSt11char_traitsIcESaIcEEES8_St4lessIS8_ESaISt4pairIKS8_S8_EEE
megaglest:_ZN6Shared4Util10Properties23updateValuePathVariableERNSt7__cxx1112basic_stringIcSt11char_traitsIcESaIcEEEb
megaglest:_ZN6Shared4Util10Properties4loadERKNSt7__cxx1112basic_stringIcSt11char_traitsIcESaIcEEEb
megaglest:_ZN6Shared4Util10Properties4saveERKNSt7__cxx1112basic_stringIcSt11char_traitsIcESaIcEEE
megaglest:_ZN6Shared4Util10Properties5clearEv
megaglest:_ZN6Shared4Util10Properties6setIntERKNSt7__cxx1112basic_stringIcSt11char_traitsIcESaIcEEEi
megaglest:_ZN6Shared4Util10Properties7setBoolERKNSt7__cxx1112basic_stringIcSt11char_traitsIcESaIcEEEb
megaglest:_ZN6Shared4Util10Properties8setFloatERKNSt7__cxx1112basic_stringIcSt11char_traitsIcESaIcEEEf
megaglest:_ZN6Shared4Util10Properties8toStringB5cxx11Ev
megaglest:_ZN6Shared4Util10Properties9setStringERKNSt7__cxx1112basic_stringIcSt11char_traitsIcESaIcEEES9_
megaglest:_ZN6Shared4Util10cutLastExtERKNSt7__cxx1112basic_stringIcSt11char_traitsIcESaIcEEE
megaglest:_ZN6Shared4Util10floatToStrB5cxx11Efi
megaglest:_ZN6Shared4Util10strToFloatERKNSt7__cxx1112basic_stringIcSt11char_traitsIcESaIcEEE
megaglest:_ZN6Shared4Util10strToFloatERKNSt7__cxx1112basic_stringIcSt11char_traitsIcESaIcEEEPf
megaglest:_ZN6Shared4Util11ASCIItoUTF8EhPh
megaglest:_ZN6Shared4Util11SystemFlags11cleanupHTTPEPPvb
megaglest:_ZN6Shared4Util11SystemFlags11curl_handleE
megaglest:_ZN6Shared4Util11SystemFlags11handleDebugENS1_9DebugTypeEPKcz
megaglest:_ZN6Shared4Util11SystemFlags12lockfilenameB5cxx11E
megaglest:_ZN6Shared4Util11SystemFlags13logDebugEntryENS1_9DebugTypeENSt7__cxx1112basic_stringIcSt11char_traitsIcESaIcEEEl
megaglest:_ZN6Shared4Util11SystemFlags16debugLogFileListE
megaglest:_ZN6Shared4Util11SystemFlags17globalCleanupHTTPEv
megaglest:_ZN6Shared4Util11SystemFlags18lockFileCountIndexE
megaglest:_ZN6Shared4Util11SystemFlags20DEFAULT_HTTP_TIMEOUTE
megaglest:_ZN6Shared4Util11SystemFlags20VERBOSE_MODE_ENABLEDE
megaglest:_ZN6Shared4Util11SystemFlags20setupRequiredMembersEv
megaglest:_ZN6Shared4Util11SystemFlags21SHUTDOWN_PROGRAM_MODEE
megaglest:_ZN6Shared4Util11SystemFlags22getLogEntryBufferCountEv
megaglest:_ZN6Shared4Util11SystemFlags23ENABLE_THREADED_LOGGINGE
megaglest:_ZN6Shared4Util11SystemFlags23curl_global_init_calledE
megaglest:_ZN6Shared4Util11SystemFlags23httpWriteMemoryCallbackEPvmmS2_
megaglest:_ZN6Shared4Util11SystemFlags24getThreadedLoggerRunningEv
megaglest:_ZN6Shared4Util11SystemFlags34haveSpecialOutputCommandLineOptionE
megaglest:_ZN6Shared4Util11SystemFlags4initEb
megaglest:_ZN6Shared4Util11SystemFlags5CloseEv
megaglest:_ZN6Shared4Util11SystemFlags7getHTTPENSt7__cxx1112basic_stringIcSt11char_traitsIcESaIcEEEPviP8CURLcode
megaglest:_ZN6Shared4Util11SystemFlags8initHTTPEv
megaglest:_ZN6Shared4Util11SystemFlags8lockFileE
megaglest:_ZN6Shared4Util11SystemFlags9escapeURLENSt7__cxx1112basic_stringIcSt11char_traitsIcESaIcEEEPv
megaglest:_ZN6Shared4Util11SystemFlagsC1Ev
megaglest:_ZN6Shared4Util11SystemFlagsC2Ev
megaglest:_ZN6Shared4Util11SystemFlagsD1Ev
megaglest:_ZN6Shared4Util11SystemFlagsD2Ev
megaglest:_ZN6Shared4Util11cutLastFileERKNSt7__cxx1112basic_stringIcSt11char_traitsIcESaIcEEE
megaglest:_ZN6Shared4Util11doubleToStrB5cxx11Edi
megaglest:_ZN6Shared4Util11strrev_utf8EPc
megaglest:_ZN6Shared4Util11strrev_utf8ERNSt7__cxx1112basic_stringIcSt11char_traitsIcESaIcEEE
megaglest:_ZN6Shared4Util12formatNumberB5cxx11Em
megaglest:_ZN6Shared4Util13ConvertToUTF8EPKc
megaglest:_ZN6Shared4Util13ConvertToUTF8EPKcj
megaglest:_ZN6Shared4Util13ConvertToUTF8EPKcjRj
megaglest:_ZN6Shared4Util13getUTF8_WidthEPKc
megaglest:_ZN6Shared4Util15ConvertFromUTF8EPKc
megaglest:_ZN6Shared4Util17GlobalStaticFlags18isNonGraphicalModeE
megaglest:_ZN6Shared4Util17GlobalStaticFlags5flagsE
megaglest:_ZN6Shared4Util18copyStringToBufferEPciRKNSt7__cxx1112basic_stringIcSt11char_traitsIcESaIcEEE
megaglest:_ZN6Shared4Util19is_string_all_asciiENSt7__cxx1112basic_stringIcSt11char_traitsIcESaIcEEE
megaglest:_ZN6Shared4Util20getTimeDuationStringB5cxx11Eii
megaglest:_ZN6Shared4Util23compareNonCaseSensitiveENSt7__cxx1112basic_stringIcSt11char_traitsIcESaIcEEES6_
megaglest:_ZN6Shared4Util24checkVersionComptabilityENSt7__cxx1112basic_stringIcSt11char_traitsIcESaIcEEES6_
megaglest:_ZN6Shared4Util24compareMajorMinorVersionENSt7__cxx1112basic_stringIcSt11char_traitsIcESaIcEEES6_
megaglest:_ZN6Shared4Util3extERKNSt7__cxx1112basic_stringIcSt11char_traitsIcESaIcEEE
megaglest:_ZN6Shared4Util5clampEfff
megaglest:_ZN6Shared4Util5clampEiii
megaglest:_ZN6Shared4Util5clampElll
megaglest:_ZN6Shared4Util5roundEf
megaglest:_ZN6Shared4Util5splitENSt7__cxx1112basic_stringIcSt11char_traitsIcESaIcEEES6_
megaglest:_ZN6Shared4Util6strrevEPc
megaglest:_ZN6Shared4Util7WString8fromUtf8EPKcm
megaglest:_ZN6Shared4Util7WStringC1EPKc
megaglest:_ZN6Shared4Util7WStringC1ERKNSt7__cxx1112basic_stringIcSt11char_traitsIcESaIcEEE
megaglest:_ZN6Shared4Util7WStringC2EPKc
megaglest:_ZN6Shared4Util7WStringC2ERKNSt7__cxx1112basic_stringIcSt11char_traitsIcESaIcEEE
megaglest:_ZN6Shared4Util7lastDirERKNSt7__cxx1112basic_stringIcSt11char_traitsIcESaIcEEE
megaglest:_ZN6Shared4Util7toLowerERKNSt7__cxx1112basic_stringIcSt11char_traitsIcESaIcEEE
megaglest:_ZN6Shared4Util8Checksum12addFileToSumERKNSt7__cxx1112basic_stringIcSt11char_traitsIcESaIcEEE
megaglest:_ZN6Shared4Util8Checksum12getFileCountEv
megaglest:_ZN6Shared4Util8Checksum13fileListCacheB5cxx11E
megaglest:_ZN6Shared4Util8Checksum14clearFileCacheEv
megaglest:_ZN6Shared4Util8Checksum19getFinalFileListSumEv
megaglest:_ZN6Shared4Util8Checksum19removeFileFromCacheENSt7__cxx1112basic_stringIcSt11char_traitsIcESaIcEEE
megaglest:_ZN6Shared4Util8Checksum26fileListCacheSynchAccessorE
megaglest:_ZN6Shared4Util8Checksum6addIntERKi
megaglest:_ZN6Shared4Util8Checksum6addSumEj
megaglest:_ZN6Shared4Util8Checksum6getSumEv
megaglest:_ZN6Shared4Util8Checksum7addByteEc
megaglest:_ZN6Shared4Util8Checksum7addFileERKNSt7__cxx1112basic_stringIcSt11char_traitsIcESaIcEEE
megaglest:_ZN6Shared4Util8Checksum7addUIntERKj
megaglest:_ZN6Shared4Util8Checksum8addBytesEPKvm
megaglest:_ZN6Shared4Util8Checksum8addInt64ERKl
megaglest:_ZN6Shared4Util8Checksum9addStringERKNSt7__cxx1112basic_stringIcSt11char_traitsIcESaIcEEE
megaglest:_ZN6Shared4Util8ChecksumC1Ev
megaglest:_ZN6Shared4Util8ChecksumC2Ev
megaglest:_ZN6Shared4Util8getMajorENSt7__cxx1112basic_stringIcSt11char_traitsIcESaIcEEE
megaglest:_ZN6Shared4Util8getMinorENSt7__cxx1112basic_stringIcSt11char_traitsIcESaIcEEE
megaglest:_ZN6Shared4Util8intToHexB5cxx11Ei
megaglest:_ZN6Shared4Util8intToStrB5cxx11El
megaglest:_ZN6Shared4Util8lastFileERKNSt7__cxx1112basic_stringIcSt11char_traitsIcESaIcEEE
megaglest:_ZN6Shared4Util8saturateEf
megaglest:_ZN6Shared4Util8strToIntERKNSt7__cxx1112basic_stringIcSt11char_traitsIcESaIcEEE
megaglest:_ZN6Shared4Util8strToIntERKNSt7__cxx1112basic_stringIcSt11char_traitsIcESaIcEEEPi
megaglest:_ZN6Shared4Util9IsNumericEPKcb
megaglest:_ZN6Shared4Util9RandomGen13addLastCallerENSt7__cxx1112basic_stringIcSt11char_traitsIcESaIcEEE
megaglest:_ZN6Shared4Util9RandomGen15clearLastCallerEv
megaglest:_ZN6Shared4Util9RandomGen1aE
megaglest:_ZN6Shared4Util9RandomGen1bE
megaglest:_ZN6Shared4Util9RandomGen1mE
megaglest:_ZN6Shared4Util9RandomGen4initEi
megaglest:_ZN6Shared4Util9RandomGen4randENSt7__cxx1112basic_stringIcSt11char_traitsIcESaIcEEE
megaglest:_ZN6Shared4Util9RandomGen9randRangeEffNSt7__cxx1112basic_stringIcSt11char_traitsIcESaIcEEE
megaglest:_ZN6Shared4Util9RandomGen9randRangeEiiNSt7__cxx1112basic_stringIcSt11char_traitsIcESaIcEEE
megaglest:_ZN6Shared4Util9RandomGenC1Ev
megaglest:_ZN6Shared4Util9RandomGenC2Ev
megaglest:_ZN6Shared4Util9boolToStrB5cxx11Eb
megaglest:_ZN6Shared4Util9crc_tableE
megaglest:_ZN6Shared4Util9replaceByERKNSt7__cxx1112basic_stringIcSt11char_traitsIcESaIcEEEcc
megaglest:_ZN6Shared4Util9strToBoolERKNSt7__cxx1112basic_stringIcSt11char_traitsIcESaIcEEE
megaglest:_ZN6Shared4Util9strToBoolERKNSt7__cxx1112basic_stringIcSt11char_traitsIcESaIcEEEPb
megaglest:_ZN6Shared4Util9strToUIntERKNSt7__cxx1112basic_stringIcSt11char_traitsIcESaIcEEE
megaglest:_ZN6Shared4Util9strToUIntERKNSt7__cxx1112basic_stringIcSt11char_traitsIcESaIcEEEPj
megaglest:_ZN6Shared4Util9uIntToStrB5cxx11Em
megaglest:_ZN6Shared5Sound11StaticSound4loadERKNSt7__cxx1112basic_stringIcSt11char_traitsIcESaIcEEE
megaglest:_ZN6Shared5Sound11StaticSound5closeEv
megaglest:_ZN6Shared5Sound11StaticSoundC1Ev
megaglest:_ZN6Shared5Sound11StaticSoundC2Ev
megaglest:_ZN6Shared5Sound11StaticSoundD0Ev
megaglest:_ZN6Shared5Sound11StaticSoundD1Ev
megaglest:_ZN6Shared5Sound11StaticSoundD2Ev
megaglest:_ZN6Shared5Sound14SoundInterface10setFactoryEPNS0_12SoundFactoryE
megaglest:_ZN6Shared5Sound14SoundInterface11getInstanceEv
megaglest:_ZN6Shared5Sound14SoundInterface14newSoundPlayerEv
megaglest:_ZN6Shared5Sound17SoundPlayerParamsC1Ev
megaglest:_ZN6Shared5Sound17SoundPlayerParamsC2Ev
megaglest:_ZN6Shared5Sound18OggSoundFileLoader4openERKNSt7__cxx1112basic_stringIcSt11char_traitsIcESaIcEEEPNS0_9SoundInfoE
megaglest:_ZN6Shared5Sound18OggSoundFileLoader4readEPcj
megaglest:_ZN6Shared5Sound18OggSoundFileLoader5closeEv
megaglest:_ZN6Shared5Sound18OggSoundFileLoader7restartEv
megaglest:_ZN6Shared5Sound18OggSoundFileLoaderC1Ev
megaglest:_ZN6Shared5Sound18OggSoundFileLoaderC2Ev
megaglest:_ZN6Shared5Sound18WavSoundFileLoader4openERKNSt7__cxx1112basic_stringIcSt11char_traitsIcESaIcEEEPNS0_9SoundInfoE
megaglest:_ZN6Shared5Sound18WavSoundFileLoader4readEPcj
megaglest:_ZN6Shared5Sound18WavSoundFileLoader5closeEv
megaglest:_ZN6Shared5Sound18WavSoundFileLoader7restartEv
megaglest:_ZN6Shared5Sound22SoundFileLoaderFactory11getInstanceEv
megaglest:_ZN6Shared5Sound22SoundFileLoaderFactoryC1Ev
megaglest:_ZN6Shared5Sound22SoundFileLoaderFactoryC2Ev
megaglest:_ZN6Shared5Sound5SoundC1Ev
megaglest:_ZN6Shared5Sound5SoundC2Ev
megaglest:_ZN6Shared5Sound6OpenAL11SoundSource14unQueueBuffersEv
megaglest:_ZN6Shared5Sound6OpenAL11SoundSource4stopEv
megaglest:_ZN6Shared5Sound6OpenAL11SoundSource7playingEv
megaglest:_ZN6Shared5Sound6OpenAL11SoundSource9getFormatEPNS0_5SoundE
megaglest:_ZN6Shared5Sound6OpenAL11SoundSourceC1Ev
megaglest:_ZN6Shared5Sound6OpenAL11SoundSourceC2Ev
megaglest:_ZN6Shared5Sound6OpenAL11SoundSourceD0Ev
megaglest:_ZN6Shared5Sound6OpenAL11SoundSourceD1Ev
megaglest:_ZN6Shared5Sound6OpenAL11SoundSourceD2Ev
megaglest:_ZN6Shared5Sound6OpenAL17SoundPlayerOpenAL12checkAlErrorENSt7__cxx1112basic_stringIcSt11char_traitsIcESaIcEEE
megaglest:_ZN6Shared5Sound6OpenAL17SoundPlayerOpenAL13checkAlcErrorENSt7__cxx1112basic_stringIcSt11char_traitsIcESaIcEEE
megaglest:_ZN6Shared5Sound6OpenAL17SoundPlayerOpenAL13stopAllSoundsEl
megaglest:_ZN6Shared5Sound6OpenAL17SoundPlayerOpenAL13updateStreamsEv
megaglest:_ZN6Shared5Sound6OpenAL17SoundPlayerOpenAL15printOpenALInfoEv
megaglest:_ZN6Shared5Sound6OpenAL17SoundPlayerOpenAL21findStaticSoundSourceEv
megaglest:_ZN6Shared5Sound6OpenAL17SoundPlayerOpenAL21findStreamSoundSourceEv
megaglest:_ZN6Shared5Sound6OpenAL17SoundPlayerOpenAL3endEv
megaglest:_ZN6Shared5Sound6OpenAL17SoundPlayerOpenAL4initEPKNS0_17SoundPlayerParamsE
megaglest:_ZN6Shared5Sound6OpenAL17SoundPlayerOpenAL4playEPNS0_11StaticSoundEb
megaglest:_ZN6Shared5Sound6OpenAL17SoundPlayerOpenAL4playEPNS0_8StrSoundEl
megaglest:_ZN6Shared5Sound6OpenAL17SoundPlayerOpenAL4stopEPNS0_8StrSoundEl
megaglest:_ZN6Shared5Sound6OpenAL17SoundPlayerOpenALC1Ev
megaglest:_ZN6Shared5Sound6OpenAL17SoundPlayerOpenALC2Ev
megaglest:_ZN6Shared5Sound6OpenAL17SoundPlayerOpenALD0Ev
megaglest:_ZN6Shared5Sound6OpenAL17SoundPlayerOpenALD1Ev
megaglest:_ZN6Shared5Sound6OpenAL17SoundPlayerOpenALD2Ev
megaglest:_ZN6Shared5Sound6OpenAL17StaticSoundSource4playEPNS0_11StaticSoundE
megaglest:_ZN6Shared5Sound6OpenAL17StaticSoundSourceC1Ev
megaglest:_ZN6Shared5Sound6OpenAL17StaticSoundSourceC2Ev
megaglest:_ZN6Shared5Sound6OpenAL17StaticSoundSourceD0Ev
megaglest:_ZN6Shared5Sound6OpenAL17StaticSoundSourceD1Ev
megaglest:_ZN6Shared5Sound6OpenAL17StaticSoundSourceD2Ev
megaglest:_ZN6Shared5Sound6OpenAL17StreamSoundSource18fillBufferAndQueueEj
megaglest:_ZN6Shared5Sound6OpenAL17StreamSoundSource4playEPNS0_8StrSoundEl
megaglest:_ZN6Shared5Sound6OpenAL17StreamSoundSource4stopEl
megaglest:_ZN6Shared5Sound6OpenAL17StreamSoundSource4stopEv
megaglest:_ZN6Shared5Sound6OpenAL17StreamSoundSource6updateEv
megaglest:_ZN6Shared5Sound6OpenAL17StreamSoundSourceC1Ev
megaglest:_ZN6Shared5Sound6OpenAL17StreamSoundSourceC2Ev
megaglest:_ZN6Shared5Sound6OpenAL17StreamSoundSourceD0Ev
megaglest:_ZN6Shared5Sound6OpenAL17StreamSoundSourceD1Ev
megaglest:_ZN6Shared5Sound6OpenAL17StreamSoundSourceD2Ev
megaglest:_ZN6Shared5Sound8StrSound4openERKNSt7__cxx1112basic_stringIcSt11char_traitsIcESaIcEEE
megaglest:_ZN6Shared5Sound8StrSound4readEPcj
megaglest:_ZN6Shared5Sound8StrSound5closeEv
megaglest:_ZN6Shared5Sound8StrSound7restartEv
megaglest:_ZN6Shared5Sound8StrSoundC1Ev
megaglest:_ZN6Shared5Sound8StrSoundC2Ev
megaglest:_ZN6Shared5Sound8StrSoundD0Ev
megaglest:_ZN6Shared5Sound8StrSoundD1Ev
megaglest:_ZN6Shared5Sound8StrSoundD2Ev
megaglest:_ZN6Shared5Sound9SoundInfoC1Ev
megaglest:_ZN6Shared5Sound9SoundInfoC2Ev
megaglest:_ZN6Shared8Graphics10PixmapCube12deletePixelsEv
megaglest:_ZN6Shared8Graphics10PixmapCube4initEi
megaglest:_ZN6Shared8Graphics10PixmapCube4initEiii
megaglest:_ZN6Shared8Graphics10PixmapCube8loadFaceERKNSt7__cxx1112basic_stringIcSt11char_traitsIcESaIcEEEi
megaglest:_ZN6Shared8Graphics10PixmapCubeC1Ev
megaglest:_ZN6Shared8Graphics10PixmapCubeC2Ev
megaglest:_ZN6Shared8Graphics10PixmapCubeD1Ev
megaglest:_ZN6Shared8Graphics10PixmapCubeD2Ev
megaglest:_ZN6Shared8Graphics10Quaternion14setAddIdentityEv
megaglest:_ZN6Shared8Graphics10Quaternion15setMultIdentityEv
megaglest:_ZN6Shared8Graphics10Quaternion8setEulerERKNS0_11EulerAnglesE
megaglest:_ZN6Shared8Graphics10Quaternion9conjugateEv
megaglest:_ZN6Shared8Graphics10QuaternionC1ERKNS0_11EulerAnglesE
megaglest:_ZN6Shared8Graphics10QuaternionC1EfRKNS0_4Vec3IfEE
megaglest:_ZN6Shared8Graphics10QuaternionC1Ev
megaglest:_ZN6Shared8Graphics10QuaternionC2ERKNS0_11EulerAnglesE
megaglest:_ZN6Shared8Graphics10QuaternionC2EfRKNS0_4Vec3IfEE
megaglest:_ZN6Shared8Graphics10QuaternionC2Ev
megaglest:_ZN6Shared8Graphics10QuaternionmLERKS1_
megaglest:_ZN6Shared8Graphics10QuaternionpLERKS1_
megaglest:_ZN6Shared8Graphics11EulerAnglesC1Efff
megaglest:_ZN6Shared8Graphics11EulerAnglesC2Efff
megaglest:_ZN6Shared8Graphics11FontManager3endEv
megaglest:_ZN6Shared8Graphics11FontManager4initEv
megaglest:_ZN6Shared8Graphics11FontManager7endFontEPNS0_4FontEb
megaglest:_ZN6Shared8Graphics11FontManager9newFont2DEv
megaglest:_ZN6Shared8Graphics11FontManager9newFont3DEv
megaglest:_ZN6Shared8Graphics11FontManagerC1Ev
megaglest:_ZN6Shared8Graphics11FontManagerC2Ev
megaglest:_ZN6Shared8Graphics11FontManagerD0Ev
megaglest:_ZN6Shared8Graphics11FontManagerD1Ev
megaglest:_ZN6Shared8Graphics11FontManagerD2Ev
megaglest:_ZN6Shared8Graphics11FontMetrics12getTextWidthERKNSt7__cxx1112basic_stringIcSt11char_traitsIcESaIcEEE
megaglest:_ZN6Shared8Graphics11FontMetrics12wordWrapTextENSt7__cxx1112basic_stringIcSt11char_traitsIcESaIcEEEi
megaglest:_ZN6Shared8Graphics11FontMetrics14getTextHandlerEv
megaglest:_ZN6Shared8Graphics11FontMetrics14setTextHandlerEP4Text
megaglest:_ZN6Shared8Graphics11FontMetricsC1EP4Text
megaglest:_ZN6Shared8Graphics11FontMetricsC2EP4Text
megaglest:_ZN6Shared8Graphics11FontMetricsD1Ev
megaglest:_ZN6Shared8Graphics11FontMetricsD2Ev
megaglest:_ZN6Shared8Graphics11PNGReader3DC1Ev
megaglest:_ZN6Shared8Graphics11PNGReader3DC2Ev
megaglest:_ZN6Shared8Graphics11PixmapIoBmp4readEPh
megaglest:_ZN6Shared8Graphics11PixmapIoBmp4readEPhi
megaglest:_ZN6Shared8Graphics11PixmapIoBmp5writeEPh
megaglest:_ZN6Shared8Graphics11PixmapIoBmp8openReadERKNSt7__cxx1112basic_stringIcSt11char_traitsIcESaIcEEE
megaglest:_ZN6Shared8Graphics11PixmapIoBmp9openWriteERKNSt7__cxx1112basic_stringIcSt11char_traitsIcESaIcEEEiii
megaglest:_ZN6Shared8Graphics11PixmapIoBmpC1Ev
megaglest:_ZN6Shared8Graphics11PixmapIoBmpC2Ev
megaglest:_ZN6Shared8Graphics11PixmapIoBmpD0Ev
megaglest:_ZN6Shared8Graphics11PixmapIoBmpD1Ev
megaglest:_ZN6Shared8Graphics11PixmapIoBmpD2Ev
megaglest:_ZN6Shared8Graphics11PixmapIoJpg4readEPh
megaglest:_ZN6Shared8Graphics11PixmapIoJpg4readEPhi
megaglest:_ZN6Shared8Graphics11PixmapIoJpg5writeEPh
megaglest:_ZN6Shared8Graphics11PixmapIoJpg8openReadERKNSt7__cxx1112basic_stringIcSt11char_traitsIcESaIcEEE
megaglest:_ZN6Shared8Graphics11PixmapIoJpg9openWriteERKNSt7__cxx1112basic_stringIcSt11char_traitsIcESaIcEEEiii
megaglest:_ZN6Shared8Graphics11PixmapIoJpgC1Ev
megaglest:_ZN6Shared8Graphics11PixmapIoJpgC2Ev
megaglest:_ZN6Shared8Graphics11PixmapIoJpgD0Ev
megaglest:_ZN6Shared8Graphics11PixmapIoJpgD1Ev
megaglest:_ZN6Shared8Graphics11PixmapIoJpgD2Ev
megaglest:_ZN6Shared8Graphics11PixmapIoPng4readEPh
megaglest:_ZN6Shared8Graphics11PixmapIoPng4readEPhi
megaglest:_ZN6Shared8Graphics11PixmapIoPng5writeEPh
megaglest:_ZN6Shared8Graphics11PixmapIoPng8openReadERKNSt7__cxx1112basic_stringIcSt11char_traitsIcESaIcEEE
megaglest:_ZN6Shared8Graphics11PixmapIoPng9openWriteERKNSt7__cxx1112basic_stringIcSt11char_traitsIcESaIcEEEiii
megaglest:_ZN6Shared8Graphics11PixmapIoPngC1Ev
megaglest:_ZN6Shared8Graphics11PixmapIoPngC2Ev
megaglest:_ZN6Shared8Graphics11PixmapIoPngD0Ev
megaglest:_ZN6Shared8Graphics11PixmapIoPngD1Ev
megaglest:_ZN6Shared8Graphics11PixmapIoPngD2Ev
megaglest:_ZN6Shared8Graphics11PixmapIoTga4readEPh
megaglest:_ZN6Shared8Graphics11PixmapIoTga4readEPhi
megaglest:_ZN6Shared8Graphics11PixmapIoTga5writeEPh
megaglest:_ZN6Shared8Graphics11PixmapIoTga8openReadERKNSt7__cxx1112basic_stringIcSt11char_traitsIcESaIcEEE
megaglest:_ZN6Shared8Graphics11PixmapIoTga9openWriteERKNSt7__cxx1112basic_stringIcSt11char_traitsIcESaIcEEEiii
megaglest:_ZN6Shared8Graphics11PixmapIoTgaC1Ev
megaglest:_ZN6Shared8Graphics11PixmapIoTgaC2Ev
megaglest:_ZN6Shared8Graphics11PixmapIoTgaD0Ev
megaglest:_ZN6Shared8Graphics11PixmapIoTgaD1Ev
megaglest:_ZN6Shared8Graphics11PixmapIoTgaD2Ev
megaglest:_ZN6Shared8Graphics11TGAReader3DC1Ev
megaglest:_ZN6Shared8Graphics11TGAReader3DC2Ev
megaglest:_ZN6Shared8Graphics11TextureCube12deletePixelsEv
megaglest:_ZN6Shared8Graphics11TextureCube8loadFaceERKNSt7__cxx1112basic_stringIcSt11char_traitsIcESaIcEEEi
megaglest:_ZN6Shared8Graphics11VideoPlayer10initPlayerENSt7__cxx1112basic_stringIcSt11char_traitsIcESaIcEEE
megaglest:_ZN6Shared8Graphics11VideoPlayer10initPlayerEv
megaglest:_ZN6Shared8Graphics11VideoPlayer11closePlayerEv
megaglest:_ZN6Shared8Graphics11VideoPlayer12RestartVideoEv
megaglest:_ZN6Shared8Graphics11VideoPlayer13cleanupPlayerEv
megaglest:_ZN6Shared8Graphics11VideoPlayer21hasBackEndVideoPlayerEv
megaglest:_ZN6Shared8Graphics11VideoPlayer4initEv
megaglest:_ZN6Shared8Graphics11VideoPlayer8disabledE
megaglest:_ZN6Shared8Graphics11VideoPlayer9PlayVideoEv
megaglest:_ZN6Shared8Graphics11VideoPlayer9playFrameEb
megaglest:_ZN6Shared8Graphics11VideoPlayerC1EPNS0_29VideoLoadingCallbackInterfaceENSt7__cxx1112basic_stringIcSt11char_traitsIcESaIcEEES9_P10SDL_WindowiiiiibS9_b
megaglest:_ZN6Shared8Graphics11VideoPlayerC2EPNS0_29VideoLoadingCallbackInterfaceENSt7__cxx1112basic_stringIcSt11char_traitsIcESaIcEEES9_P10SDL_WindowiiiiibS9_b
megaglest:_ZN6Shared8Graphics11VideoPlayerD0Ev
megaglest:_ZN6Shared8Graphics11VideoPlayerD1Ev
megaglest:_ZN6Shared8Graphics11VideoPlayerD2Ev
megaglest:_ZN6Shared8Graphics12BaseRenderer14initMapSurfaceEii
megaglest:_ZN6Shared8Graphics12BaseRenderer9renderMapEPNS_3Map10MapPreviewEiiiiibbb
megaglest:_ZN6Shared8Graphics12ModelManager12endLastModelEb
megaglest:_ZN6Shared8Graphics12ModelManager3endEv
megaglest:_ZN6Shared8Graphics12ModelManager4initEv
megaglest:_ZN6Shared8Graphics12ModelManager8endModelEPNS0_5ModelEb
megaglest:_ZN6Shared8Graphics12ModelManager8newModelERKNSt7__cxx1112basic_stringIcSt11char_traitsIcESaIcEEEbPSt3mapIS7_St6vectorISt4pairIS7_S7_ESaISD_EESt4lessIS7_ESaISC_IS8_SF_EEEPS7_
megaglest:_ZN6Shared8Graphics12ModelManagerC1Ev
megaglest:_ZN6Shared8Graphics12ModelManagerC2Ev
megaglest:_ZN6Shared8Graphics12ModelManagerD0Ev
megaglest:_ZN6Shared8Graphics12ModelManagerD1Ev
megaglest:_ZN6Shared8Graphics12ModelManagerD2Ev
megaglest:_ZN6Shared8Graphics12is_non_ASCIIERKi
megaglest:_ZN6Shared8Graphics14ParticleSystem10setTextureEPNS0_7TextureE
megaglest:_ZN6Shared8Graphics14ParticleSystem10setVisibleEb
megaglest:_ZN6Shared8Graphics14ParticleSystem11setObserverEPNS0_16ParticleObserverE
megaglest:_ZN6Shared8Graphics14ParticleSystem12initParticleEPNS0_8ParticleEi
megaglest:_ZN6Shared8Graphics14ParticleSystem12killParticleEPNS0_8ParticleE
megaglest:_ZN6Shared8Graphics14ParticleSystem14createParticleEv
megaglest:_ZN6Shared8Graphics14ParticleSystem14strToBlendModeERKNSt7__cxx1112basic_stringIcSt11char_traitsIcESaIcEEE
megaglest:_ZN6Shared8Graphics14ParticleSystem14updateParticleEPNS0_8ParticleE
megaglest:_ZN6Shared8Graphics14ParticleSystem15setEmissionRateEf
megaglest:_ZN6Shared8Graphics14ParticleSystem15setFactionColorENS0_4Vec3IfEE
megaglest:_ZN6Shared8Graphics14ParticleSystem15setParticleSizeEf
megaglest:_ZN6Shared8Graphics14ParticleSystem16setColorNoEnergyENS0_4Vec4IfEE
megaglest:_ZN6Shared8Graphics14ParticleSystem18setSpeedUpConstantEf
megaglest:_ZN6Shared8Graphics14ParticleSystem18setSpeedUpRelativeEf
megaglest:_ZN6Shared8Graphics14ParticleSystem20callParticleOwnerEndEPS1_
megaglest:_ZN6Shared8Graphics14ParticleSystem20setMaxParticleEnergyEi
megaglest:_ZN6Shared8Graphics14ParticleSystem20setVarParticleEnergyEi
megaglest:_ZN6Shared8Graphics14ParticleSystem26getTextureFileLoadDeferredB5cxx11Ev
megaglest:_ZN6Shared8Graphics14ParticleSystem32getTextureFileLoadDeferredFormatEv
megaglest:_ZN6Shared8Graphics14ParticleSystem34getTextureFileLoadDeferredSystemIdEv
megaglest:_ZN6Shared8Graphics14ParticleSystem36getTextureFileLoadDeferredComponentsEv
megaglest:_ZN6Shared8Graphics14ParticleSystem4fadeEv
megaglest:_ZN6Shared8Graphics14ParticleSystem6getCRCEv
megaglest:_ZN6Shared8Graphics14ParticleSystem6renderEPNS0_16ParticleRendererEPNS0_13ModelRendererE
megaglest:_ZN6Shared8Graphics14ParticleSystem6setPosENS0_4Vec3IfEE
megaglest:_ZN6Shared8Graphics14ParticleSystem6updateEv
megaglest:_ZN6Shared8Graphics14ParticleSystem8getChildEi
megaglest:_ZN6Shared8Graphics14ParticleSystem8loadGameEPKNS_3Xml7XmlNodeE
megaglest:_ZN6Shared8Graphics14ParticleSystem8saveGameEPNS_3Xml7XmlNodeE
megaglest:_ZN6Shared8Graphics14ParticleSystem8setColorENS0_4Vec4IfEE
megaglest:_ZN6Shared8Graphics14ParticleSystem8setSpeedEf
megaglest:_ZN6Shared8Graphics14ParticleSystem8setStateENS1_5StateE
megaglest:_ZN6Shared8Graphics14ParticleSystem9deathTestEPNS0_8ParticleE
megaglest:_ZN6Shared8Graphics14ParticleSystem9setActiveEb
megaglest:_ZN6Shared8Graphics14ParticleSystemC1Ei
megaglest:_ZN6Shared8Graphics14ParticleSystemC2Ei
megaglest:_ZN6Shared8Graphics14ParticleSystemD0Ev
megaglest:_ZN6Shared8Graphics14ParticleSystemD1Ev
megaglest:_ZN6Shared8Graphics14ParticleSystemD2Ev
megaglest:_ZN6Shared8Graphics14TextureManager10endTextureEPNS0_7TextureEb
megaglest:_ZN6Shared8Graphics14TextureManager10getTextureERKNSt7__cxx1112basic_stringIcSt11char_traitsIcESaIcEEE
megaglest:_ZN6Shared8Graphics14TextureManager11initTextureEPNS0_7TextureE
megaglest:_ZN6Shared8Graphics14TextureManager12newTexture1DEv
megaglest:_ZN6Shared8Graphics14TextureManager12newTexture2DEv
megaglest:_ZN6Shared8Graphics14TextureManager12newTexture3DEv
megaglest:_ZN6Shared8Graphics14TextureManager14endLastTextureEb
megaglest:_ZN6Shared8Graphics14TextureManager14newTextureCubeEv
megaglest:_ZN6Shared8Graphics14TextureManager16setMaxAnisotropyEi
megaglest:_ZN6Shared8Graphics14TextureManager3endEv
megaglest:_ZN6Shared8Graphics14TextureManager4initEb
megaglest:_ZN6Shared8Graphics14TextureManager9setFilterENS0_7Texture6FilterE
megaglest:_ZN6Shared8Graphics14TextureManagerC1Ev
megaglest:_ZN6Shared8Graphics14TextureManagerC2Ev
megaglest:_ZN6Shared8Graphics14TextureManagerD1Ev
megaglest:_ZN6Shared8Graphics14TextureManagerD2Ev
megaglest:_ZN6Shared8Graphics14findFontFamilyB5cxx11EPKcS2_
megaglest:_ZN6Shared8Graphics15CHECK_FONT_PATHEPKcS2_PS2_S3_
megaglest:_ZN6Shared8Graphics15ImageRegisterer20registerImageReadersEv
megaglest:_ZN6Shared8Graphics15ParticleManager22cleanupParticleSystemsEPNS0_14ParticleSystemE
megaglest:_ZN6Shared8Graphics15ParticleManager22cleanupParticleSystemsERSt6vectorIPNS0_14ParticleSystemESaIS4_EE
megaglest:_ZN6Shared8Graphics15ParticleManager26cleanupUnitParticleSystemsERSt6vectorIPNS0_18UnitParticleSystemESaIS4_EE
megaglest:_ZN6Shared8Graphics15ParticleManager37removeParticleSystemsForParticleOwnerEPNS0_13ParticleOwnerE
megaglest:_ZN6Shared8Graphics15ParticleManager3endEv
megaglest:_ZN6Shared8Graphics15ParticleManager6manageEPNS0_14ParticleSystemE
megaglest:_ZN6Shared8Graphics15ParticleManager6updateEi
megaglest:_ZN6Shared8Graphics15ParticleManagerC1Ev
megaglest:_ZN6Shared8Graphics15ParticleManagerC2Ev
megaglest:_ZN6Shared8Graphics15ParticleManagerD1Ev
megaglest:_ZN6Shared8Graphics15ParticleManagerD2Ev
megaglest:_ZN6Shared8Graphics17GraphicsInterface10setFactoryEPNS0_15GraphicsFactoryE
megaglest:_ZN6Shared8Graphics17GraphicsInterface11getInstanceEv
megaglest:_ZN6Shared8Graphics17GraphicsInterface17setCurrentContextEPNS0_7ContextE
megaglest:_ZN6Shared8Graphics17GraphicsInterfaceC1Ev
megaglest:_ZN6Shared8Graphics17GraphicsInterfaceC2Ev
megaglest:_ZN6Shared8Graphics17InterpolationData13updateNormalsEfb
megaglest:_ZN6Shared8Graphics17InterpolationData14updateVerticesEfb
megaglest:_ZN6Shared8Graphics17InterpolationData19enableInterpolationE
megaglest:_ZN6Shared8Graphics17InterpolationData6updateEPKNS0_4Vec3IfEERPS3_fb
megaglest:_ZN6Shared8Graphics17InterpolationData6updateEfb
megaglest:_ZN6Shared8Graphics17InterpolationDataC1EPKNS0_4MeshE
megaglest:_ZN6Shared8Graphics17InterpolationDataC2EPKNS0_4MeshE
megaglest:_ZN6Shared8Graphics17InterpolationDataD1Ev
megaglest:_ZN6Shared8Graphics17InterpolationDataD2Ev
megaglest:_ZN6Shared8Graphics18CalculatePixelsCRCEPhmRNS_4Util8ChecksumE
megaglest:_ZN6Shared8Graphics18FireParticleSystem12initParticleEPNS0_8ParticleEi
megaglest:_ZN6Shared8Graphics18FireParticleSystem14updateParticleEPNS0_8ParticleE
megaglest:_ZN6Shared8Graphics18FireParticleSystem6getCRCEv
megaglest:_ZN6Shared8Graphics18FireParticleSystem7setWindEff
megaglest:_ZN6Shared8Graphics18FireParticleSystem8loadGameEPKNS_3Xml7XmlNodeE
megaglest:_ZN6Shared8Graphics18FireParticleSystem8saveGameEPNS_3Xml7XmlNodeE
megaglest:_ZN6Shared8Graphics18FireParticleSystem9setRadiusEf
megaglest:_ZN6Shared8Graphics18FireParticleSystemC1Ei
megaglest:_ZN6Shared8Graphics18FireParticleSystemC2Ei
megaglest:_ZN6Shared8Graphics18GameParticleSystem11removeChildEPNS0_18UnitParticleSystemE
megaglest:_ZN6Shared8Graphics18GameParticleSystem13getChildCountEv
megaglest:_ZN6Shared8Graphics18GameParticleSystem14strToPrimitiveERKNSt7__cxx1112basic_stringIcSt11char_traitsIcESaIcEEE
megaglest:_ZN6Shared8Graphics18GameParticleSystem16positionChildrenEv
megaglest:_ZN6Shared8Graphics18GameParticleSystem24getModelFileLoadDeferredB5cxx11Ev
megaglest:_ZN6Shared8Graphics18GameParticleSystem6getCRCEv
megaglest:_ZN6Shared8Graphics18GameParticleSystem6renderEPNS0_16ParticleRendererEPNS0_13ModelRendererE
megaglest:_ZN6Shared8Graphics18GameParticleSystem6setPosENS0_4Vec3IfEE
megaglest:_ZN6Shared8Graphics18GameParticleSystem8addChildEPNS0_18UnitParticleSystemE
megaglest:_ZN6Shared8Graphics18GameParticleSystem8getChildEi
megaglest:_ZN6Shared8Graphics18GameParticleSystem8loadGameEPKNS_3Xml7XmlNodeE
megaglest:_ZN6Shared8Graphics18GameParticleSystem8saveGameEPNS_3Xml7XmlNodeE
megaglest:_ZN6Shared8Graphics18GameParticleSystem8setTweenEff
megaglest:_ZN6Shared8Graphics18GameParticleSystem9setOffsetENS0_4Vec3IfEE
megaglest:_ZN6Shared8Graphics18GameParticleSystemC1Ei
megaglest:_ZN6Shared8Graphics18GameParticleSystemC2Ei
megaglest:_ZN6Shared8Graphics18GameParticleSystemD0Ev
megaglest:_ZN6Shared8Graphics18GameParticleSystemD1Ev
megaglest:_ZN6Shared8Graphics18GameParticleSystemD2Ev
megaglest:_ZN6Shared8Graphics18PixelBufferWrapper12isPBOEnabledE
megaglest:_ZN6Shared8Graphics18PixelBufferWrapper17getPixelBufferForEiiiii
megaglest:_ZN6Shared8Graphics18PixelBufferWrapper20addBuffersToPixelBufEi
megaglest:_ZN6Shared8Graphics18PixelBufferWrapper3endEv
megaglest:_ZN6Shared8Graphics18PixelBufferWrapper5beginEv
megaglest:_ZN6Shared8Graphics18PixelBufferWrapper5indexE
megaglest:_ZN6Shared8Graphics18PixelBufferWrapper6pboIdsE
megaglest:_ZN6Shared8Graphics18PixelBufferWrapper7cleanupEv
megaglest:_ZN6Shared8Graphics18PixelBufferWrapperC1Eii
megaglest:_ZN6Shared8Graphics18PixelBufferWrapperC2Eii
megaglest:_ZN6Shared8Graphics18PixelBufferWrapperD1Ev
megaglest:_ZN6Shared8Graphics18PixelBufferWrapperD2Ev
megaglest:_ZN6Shared8Graphics18RainParticleSystem12initParticleEPNS0_8ParticleEi
megaglest:_ZN6Shared8Graphics18RainParticleSystem6getCRCEv
megaglest:_ZN6Shared8Graphics18RainParticleSystem6renderEPNS0_16ParticleRendererEPNS0_13ModelRendererE
megaglest:_ZN6Shared8Graphics18RainParticleSystem7setWindEff
megaglest:_ZN6Shared8Graphics18RainParticleSystem9deathTestEPNS0_8ParticleE
megaglest:_ZN6Shared8Graphics18RainParticleSystem9setRadiusEf
megaglest:_ZN6Shared8Graphics18RainParticleSystemC1Ei
megaglest:_ZN6Shared8Graphics18RainParticleSystemC2Ei
megaglest:_ZN6Shared8Graphics18SnowParticleSystem12initParticleEPNS0_8ParticleEi
megaglest:_ZN6Shared8Graphics18SnowParticleSystem6getCRCEv
megaglest:_ZN6Shared8Graphics18SnowParticleSystem7setWindEff
megaglest:_ZN6Shared8Graphics18SnowParticleSystem9deathTestEPNS0_8ParticleE
megaglest:_ZN6Shared8Graphics18SnowParticleSystem9setRadiusEf
megaglest:_ZN6Shared8Graphics18SnowParticleSystemC1Ei
megaglest:_ZN6Shared8Graphics18SnowParticleSystemC2Ei
megaglest:_ZN6Shared8Graphics18UnitParticleSystem10lightColorE
megaglest:_ZN6Shared8Graphics18UnitParticleSystem10strToShapeERKNSt7__cxx1112basic_stringIcSt11char_traitsIcESaIcEEE
megaglest:_ZN6Shared8Graphics18UnitParticleSystem11setRotationEf
megaglest:_ZN6Shared8Graphics18UnitParticleSystem12initParticleEPNS0_8ParticleEi
megaglest:_ZN6Shared8Graphics18UnitParticleSystem14updateParticleEPNS0_8ParticleE
megaglest:_ZN6Shared8Graphics18UnitParticleSystem4fadeEv
megaglest:_ZN6Shared8Graphics18UnitParticleSystem6getCRCEv
megaglest:_ZN6Shared8Graphics18UnitParticleSystem6renderEPNS0_16ParticleRendererEPNS0_13ModelRendererE
megaglest:_ZN6Shared8Graphics18UnitParticleSystem6updateEv
megaglest:_ZN6Shared8Graphics18UnitParticleSystem7isNightE
megaglest:_ZN6Shared8Graphics18UnitParticleSystem7setWindEff
megaglest:_ZN6Shared8Graphics18UnitParticleSystem8loadGameEPKNS_3Xml7XmlNodeE
megaglest:_ZN6Shared8Graphics18UnitParticleSystem8saveGameEPNS_3Xml7XmlNodeE
megaglest:_ZN6Shared8Graphics18UnitParticleSystemC1Ei
megaglest:_ZN6Shared8Graphics18UnitParticleSystemC2Ei
megaglest:_ZN6Shared8Graphics18UnitParticleSystemD0Ev
megaglest:_ZN6Shared8Graphics18UnitParticleSystemD1Ev
megaglest:_ZN6Shared8Graphics18UnitParticleSystemD2Ev
megaglest:_ZN6Shared8Graphics18toEndianFileHeaderERNS0_10FileHeaderE
megaglest:_ZN6Shared8Graphics18toEndianMeshHeaderERNS0_10MeshHeaderE
megaglest:_ZN6Shared8Graphics19BaseColorPickEntity10cleanupPBOEv
megaglest:_ZN6Shared8Graphics19BaseColorPickEntity10endPickingEv
megaglest:_ZN6Shared8Graphics19BaseColorPickEntity11nextColorIDE
megaglest:_ZN6Shared8Graphics19BaseColorPickEntity12assign_colorEv
megaglest:_ZN6Shared8Graphics19BaseColorPickEntity12beginPickingEv
megaglest:_ZN6Shared8Graphics19BaseColorPickEntity12nextColorRGBE
megaglest:_ZN6Shared8Graphics19BaseColorPickEntity13getPickedListEiiiiRKSt6vectorIPS1_SaIS3_EE
megaglest:_ZN6Shared8Graphics19BaseColorPickEntity13trackColorUseE
megaglest:_ZN6Shared8Graphics19BaseColorPickEntity15usedColorIDListB5cxx11E
megaglest:_ZN6Shared8Graphics19BaseColorPickEntity17resetUniqueColorsEv
megaglest:_ZN6Shared8Graphics19BaseColorPickEntity17using_loop_methodE
megaglest:_ZN6Shared8Graphics19BaseColorPickEntity18bufferSizeRequiredE
megaglest:_ZN6Shared8Graphics19BaseColorPickEntity18recycleUniqueColorEv
megaglest:_ZN6Shared8Graphics19BaseColorPickEntity1kE
megaglest:_ZN6Shared8Graphics19BaseColorPickEntity1pE
megaglest:_ZN6Shared8Graphics19BaseColorPickEntity20nextColorIDReuseListE
megaglest:_ZN6Shared8Graphics19BaseColorPickEntity21get_next_assign_colorEPh
megaglest:_ZN6Shared8Graphics19BaseColorPickEntity23assign_color_using_loopEPh
megaglest:_ZN6Shared8Graphics19BaseColorPickEntity24assign_color_using_primeEPh
megaglest:_ZN6Shared8Graphics19BaseColorPickEntity3pboE
megaglest:_ZN6Shared8Graphics19BaseColorPickEntity4initEi
megaglest:_ZN6Shared8Graphics19BaseColorPickEntityC1Ev
megaglest:_ZN6Shared8Graphics19BaseColorPickEntityC2Ev
megaglest:_ZN6Shared8Graphics19toEndianModelHeaderERNS0_11ModelHeaderE
megaglest:_ZN6Shared8Graphics20AttackParticleSystem6getCRCEv
megaglest:_ZN6Shared8Graphics20AttackParticleSystem8loadGameEPKNS_3Xml7XmlNodeE
megaglest:_ZN6Shared8Graphics20AttackParticleSystem8saveGameEPNS_3Xml7XmlNodeE
megaglest:_ZN6Shared8Graphics20AttackParticleSystemC1Ei
megaglest:_ZN6Shared8Graphics20AttackParticleSystemC2Ei
megaglest:_ZN6Shared8Graphics20SplashParticleSystem12initParticleEPNS0_8ParticleEi
megaglest:_ZN6Shared8Graphics20SplashParticleSystem14updateParticleEPNS0_8ParticleE
megaglest:_ZN6Shared8Graphics20SplashParticleSystem18initParticleSystemEv
megaglest:_ZN6Shared8Graphics20SplashParticleSystem6getCRCEv
megaglest:_ZN6Shared8Graphics20SplashParticleSystem6updateEv
megaglest:_ZN6Shared8Graphics20SplashParticleSystem8loadGameEPKNS_3Xml7XmlNodeE
megaglest:_ZN6Shared8Graphics20SplashParticleSystem8saveGameEPNS_3Xml7XmlNodeE
megaglest:_ZN6Shared8Graphics20SplashParticleSystemC1Ei
megaglest:_ZN6Shared8Graphics20SplashParticleSystemC2Ei
megaglest:_ZN6Shared8Graphics20SplashParticleSystemD0Ev
megaglest:_ZN6Shared8Graphics20SplashParticleSystemD1Ev
megaglest:_ZN6Shared8Graphics20SplashParticleSystemD2Ev
megaglest:_ZN6Shared8Graphics20fromEndianFileHeaderERNS0_10FileHeaderE
megaglest:_ZN6Shared8Graphics20fromEndianMeshHeaderERNS0_10MeshHeaderE
megaglest:_ZN6Shared8Graphics20toEndianMeshHeaderV2ERNS0_12MeshHeaderV2E
megaglest:_ZN6Shared8Graphics20toEndianMeshHeaderV3ERNS0_12MeshHeaderV3E
megaglest:_ZN6Shared8Graphics21fromEndianModelHeaderERNS0_11ModelHeaderE
megaglest:_ZN6Shared8Graphics21toEndianModelHeaderV3ERNS0_13ModelHeaderV3E
megaglest:_ZN6Shared8Graphics22fromEndianMeshHeaderV2ERNS0_12MeshHeaderV2E
megaglest:_ZN6Shared8Graphics22fromEndianMeshHeaderV3ERNS0_12MeshHeaderV3E
megaglest:_ZN6Shared8Graphics23fromEndianModelHeaderV3ERNS0_13ModelHeaderV3E
megaglest:_ZN6Shared8Graphics24ProjectileParticleSystem12initParticleEPNS0_8ParticleEi
megaglest:_ZN6Shared8Graphics24ProjectileParticleSystem14rotateChildrenEv
megaglest:_ZN6Shared8Graphics24ProjectileParticleSystem14updateParticleEPNS0_8ParticleE
megaglest:_ZN6Shared8Graphics24ProjectileParticleSystem15strToTrajectoryERKNSt7__cxx1112basic_stringIcSt11char_traitsIcESaIcEEE
megaglest:_ZN6Shared8Graphics24ProjectileParticleSystem4linkEPNS0_20SplashParticleSystemE
megaglest:_ZN6Shared8Graphics24ProjectileParticleSystem6getCRCEv
megaglest:_ZN6Shared8Graphics24ProjectileParticleSystem6updateEv
megaglest:_ZN6Shared8Graphics24ProjectileParticleSystem7setPathENS0_4Vec3IfEES3_
megaglest:_ZN6Shared8Graphics24ProjectileParticleSystem8loadGameEPKNS_3Xml7XmlNodeE
megaglest:_ZN6Shared8Graphics24ProjectileParticleSystem8saveGameEPNS_3Xml7XmlNodeE
megaglest:_ZN6Shared8Graphics24ProjectileParticleSystemC1Ei
megaglest:_ZN6Shared8Graphics24ProjectileParticleSystemC2Ei
megaglest:_ZN6Shared8Graphics24ProjectileParticleSystemD0Ev
megaglest:_ZN6Shared8Graphics24ProjectileParticleSystemD1Ev
megaglest:_ZN6Shared8Graphics24ProjectileParticleSystemD2Ev
megaglest:_ZN6Shared8Graphics2Gl10toFormatGlENS0_7Texture6FormatEi
megaglest:_ZN6Shared8Graphics2Gl11Texture1DGl3endEb
megaglest:_ZN6Shared8Graphics2Gl11Texture1DGl4initENS0_7Texture6FilterEi
megaglest:_ZN6Shared8Graphics2Gl11Texture1DGlC1Ev
megaglest:_ZN6Shared8Graphics2Gl11Texture1DGlC2Ev
megaglest:_ZN6Shared8Graphics2Gl11Texture1DGlD0Ev
megaglest:_ZN6Shared8Graphics2Gl11Texture1DGlD1Ev
megaglest:_ZN6Shared8Graphics2Gl11Texture1DGlD2Ev
megaglest:_ZN6Shared8Graphics2Gl11Texture2DGl3endEb
megaglest:_ZN6Shared8Graphics2Gl11Texture2DGl4initENS0_7Texture6FilterEi
megaglest:_ZN6Shared8Graphics2Gl11Texture2DGlC1Ev
megaglest:_ZN6Shared8Graphics2Gl11Texture2DGlC2Ev
megaglest:_ZN6Shared8Graphics2Gl11Texture2DGlD0Ev
megaglest:_ZN6Shared8Graphics2Gl11Texture2DGlD1Ev
megaglest:_ZN6Shared8Graphics2Gl11Texture2DGlD2Ev
megaglest:_ZN6Shared8Graphics2Gl11Texture3DGl3endEb
megaglest:_ZN6Shared8Graphics2Gl11Texture3DGl4initENS0_7Texture6FilterEi
megaglest:_ZN6Shared8Graphics2Gl11Texture3DGlC1Ev
megaglest:_ZN6Shared8Graphics2Gl11Texture3DGlC2Ev
megaglest:_ZN6Shared8Graphics2Gl11Texture3DGlD0Ev
megaglest:_ZN6Shared8Graphics2Gl11Texture3DGlD1Ev
megaglest:_ZN6Shared8Graphics2Gl11Texture3DGlD2Ev
megaglest:_ZN6Shared8Graphics2Gl11getGlVendorEv
megaglest:_ZN6Shared8Graphics2Gl12getGlVersionEv
megaglest:_ZN6Shared8Graphics2Gl12toWrapModeGlENS0_7Texture8WrapModeE
megaglest:_ZN6Shared8Graphics2Gl13TextureCubeGl3endEb
megaglest:_ZN6Shared8Graphics2Gl13TextureCubeGl4initENS0_7Texture6FilterEi
megaglest:_ZN6Shared8Graphics2Gl13TextureCubeGlC1Ev
megaglest:_ZN6Shared8Graphics2Gl13TextureCubeGlC2Ev
megaglest:_ZN6Shared8Graphics2Gl13TextureCubeGlD0Ev
megaglest:_ZN6Shared8Graphics2Gl13TextureCubeGlD1Ev
megaglest:_ZN6Shared8Graphics2Gl13TextureCubeGlD2Ev
megaglest:_ZN6Shared8Graphics2Gl13getGlRendererEv
megaglest:_ZN6Shared8Graphics2Gl14getGlMaxLightsEv
megaglest:_ZN6Shared8Graphics2Gl15ModelRendererGl10renderMeshEPNS0_4MeshEi
megaglest:_ZN6Shared8Graphics2Gl15ModelRendererGl17renderMeshNormalsEPNS0_4MeshE
megaglest:_ZN6Shared8Graphics2Gl15ModelRendererGl17renderNormalsOnlyEPNS0_5ModelE
megaglest:_ZN6Shared8Graphics2Gl15ModelRendererGl3endEv
megaglest:_ZN6Shared8Graphics2Gl15ModelRendererGl5beginEbbbbPNS0_12MeshCallbackE
megaglest:_ZN6Shared8Graphics2Gl15ModelRendererGl6renderEPNS0_5ModelEi
megaglest:_ZN6Shared8Graphics2Gl15ModelRendererGlC1Ev
megaglest:_ZN6Shared8Graphics2Gl15ModelRendererGlC2Ev
megaglest:_ZN6Shared8Graphics2Gl15getGlExtensionsEv
megaglest:_ZN6Shared8Graphics2Gl15getVBOSupportedEv
megaglest:_ZN6Shared8Graphics2Gl15setVBOSupportedEb
megaglest:_ZN6Shared8Graphics2Gl16TextRenderer2DGl3endEv
megaglest:_ZN6Shared8Graphics2Gl16TextRenderer2DGl5beginEPNS0_6Font2DE
megaglest:_ZN6Shared8Graphics2Gl16TextRenderer2DGl6renderERKNSt7__cxx1112basic_stringIcSt11char_traitsIcESaIcEEEffbPNS0_4Vec3IfEE
megaglest:_ZN6Shared8Graphics2Gl16TextRenderer2DGlC1Ev
megaglest:_ZN6Shared8Graphics2Gl16TextRenderer2DGlC2Ev
megaglest:_ZN6Shared8Graphics2Gl16TextRenderer2DGlD0Ev
megaglest:_ZN6Shared8Graphics2Gl16TextRenderer2DGlD1Ev
megaglest:_ZN6Shared8Graphics2Gl16TextRenderer2DGlD2Ev
megaglest:_ZN6Shared8Graphics2Gl16TextRenderer3DGl14internalRenderERKNSt7__cxx1112basic_stringIcSt11char_traitsIcESaIcEEEffbPNS0_4Vec3IfEE
megaglest:_ZN6Shared8Graphics2Gl16TextRenderer3DGl31specialFTGLErrorCheckWorkaroundENSt7__cxx1112basic_stringIcSt11char_traitsIcESaIcEEE
megaglest:_ZN6Shared8Graphics2Gl16TextRenderer3DGl3endEv
megaglest:_ZN6Shared8Graphics2Gl16TextRenderer3DGl5beginEPNS0_6Font3DE
megaglest:_ZN6Shared8Graphics2Gl16TextRenderer3DGl6renderERKNSt7__cxx1112basic_stringIcSt11char_traitsIcESaIcEEEffbPNS0_4Vec3IfEE
megaglest:_ZN6Shared8Graphics2Gl16TextRenderer3DGlC1Ev
megaglest:_ZN6Shared8Graphics2Gl16TextRenderer3DGlC2Ev
megaglest:_ZN6Shared8Graphics2Gl16TextRenderer3DGlD0Ev
megaglest:_ZN6Shared8Graphics2Gl16TextRenderer3DGlD1Ev
megaglest:_ZN6Shared8Graphics2Gl16TextRenderer3DGlD2Ev
megaglest:_ZN6Shared8Graphics2Gl16checkGlExtensionEPKc
megaglest:_ZN6Shared8Graphics2Gl18ParticleRendererGl11renderModelEPNS0_18GameParticleSystemEPNS0_13ModelRendererE
megaglest:_ZN6Shared8Graphics2Gl18ParticleRendererGl12renderSystemEPNS0_14ParticleSystemE
megaglest:_ZN6Shared8Graphics2Gl18ParticleRendererGl12setBlendModeENS0_14ParticleSystem9BlendModeE
megaglest:_ZN6Shared8Graphics2Gl18ParticleRendererGl13renderManagerEPNS0_15ParticleManagerEPNS0_13ModelRendererE
megaglest:_ZN6Shared8Graphics2Gl18ParticleRendererGl16renderSystemLineEPNS0_14ParticleSystemE
megaglest:_ZN6Shared8Graphics2Gl18ParticleRendererGl17renderBufferLinesEi
megaglest:_ZN6Shared8Graphics2Gl18ParticleRendererGl17renderBufferQuadsEi
megaglest:_ZN6Shared8Graphics2Gl18ParticleRendererGl21renderSystemLineAlphaEPNS0_14ParticleSystemE
megaglest:_ZN6Shared8Graphics2Gl18ParticleRendererGlC1Ev
megaglest:_ZN6Shared8Graphics2Gl18ParticleRendererGlC2Ev
megaglest:_ZN6Shared8Graphics2Gl18toInternalFormatGlENS0_7Texture6FormatEi
megaglest:_ZN6Shared8Graphics2Gl19getGlMaxTextureSizeEv
megaglest:_ZN6Shared8Graphics2Gl20getGlMaxTextureUnitsEv
megaglest:_ZN6Shared8Graphics2Gl21toCompressionFormatGlEi
megaglest:_ZN6Shared8Graphics2Gl22isGlExtensionSupportedEPKc
megaglest:_ZN6Shared8Graphics2Gl23cacheExtensionCheckListB5cxx11E
megaglest:_ZN6Shared8Graphics2Gl23getGlPlatformExtensionsEv
megaglest:_ZN6Shared8Graphics2Gl26overrideGlExtensionSupportEPKcb
megaglest:_ZN6Shared8Graphics2Gl30getGlModelviewMatrixStackDepthEv
megaglest:_ZN6Shared8Graphics2Gl31getGlProjectionMatrixStackDepthEv
megaglest:_ZN6Shared8Graphics2Gl3potEi
megaglest:_ZN6Shared8Graphics2Gl6FontGl16default_fonttypeB5cxx11E
megaglest:_ZN6Shared8Graphics2Gl7ModelGlC1ERKNSt7__cxx1112basic_stringIcSt11char_traitsIcESaIcEEEPNS0_14TextureManagerEbPSt3mapIS8_St6vectorISt4pairIS8_S8_ESaISG_EESt4lessIS8_ESaISF_IS9_SI_EEEPS8_
megaglest:_ZN6Shared8Graphics2Gl7ModelGlC2ERKNSt7__cxx1112basic_stringIcSt11char_traitsIcESaIcEEEPNS0_14TextureManagerEbPSt3mapIS8_St6vectorISt4pairIS8_S8_ESaISG_EESt4lessIS8_ESaISF_IS9_SI_EEEPS8_
megaglest:_ZN6Shared8Graphics2Gl8Font2DGl3endEv
megaglest:_ZN6Shared8Graphics2Gl8Font2DGl4initEv
megaglest:_ZN6Shared8Graphics2Gl8Font3DGl3endEv
megaglest:_ZN6Shared8Graphics2Gl8Font3DGl4initEv
megaglest:_ZN6Shared8Graphics2Gl8TextFTGL10LineHeightEPKci
megaglest:_ZN6Shared8Graphics2Gl8TextFTGL10LineHeightEPKwi
megaglest:_ZN6Shared8Graphics2Gl8TextFTGL11GetFaceSizeEv
megaglest:_ZN6Shared8Graphics2Gl8TextFTGL11SetFaceSizeEi
megaglest:_ZN6Shared8Graphics2Gl8TextFTGL11cleanupFontEv
megaglest:_ZN6Shared8Graphics2Gl8TextFTGL14faceResolutionE
megaglest:_ZN6Shared8Graphics2Gl8TextFTGL14langHeightTextB5cxx11E
megaglest:_ZN6Shared8Graphics2Gl8TextFTGL4initENSt7__cxx1112basic_stringIcSt11char_traitsIcESaIcEEES8_i
megaglest:_ZN6Shared8Graphics2Gl8TextFTGL6RenderEPKci
megaglest:_ZN6Shared8Graphics2Gl8TextFTGL6RenderEPKwi
megaglest:_ZN6Shared8Graphics2Gl8TextFTGL7AdvanceEPKci
megaglest:_ZN6Shared8Graphics2Gl8TextFTGL7AdvanceEPKwi
megaglest:_ZN6Shared8Graphics2Gl8TextFTGLC1E19FontTextHandlerType
megaglest:_ZN6Shared8Graphics2Gl8TextFTGLC2E19FontTextHandlerType
megaglest:_ZN6Shared8Graphics2Gl8TextFTGLD0Ev
megaglest:_ZN6Shared8Graphics2Gl8TextFTGLD1Ev
megaglest:_ZN6Shared8Graphics2Gl8TextFTGLD2Ev
megaglest:_ZN6Shared8Graphics2Gl9ContextGl11makeCurrentEv
megaglest:_ZN6Shared8Graphics2Gl9ContextGl11swapBuffersEv
megaglest:_ZN6Shared8Graphics2Gl9ContextGl3endEv
megaglest:_ZN6Shared8Graphics2Gl9ContextGl4initEv
megaglest:_ZN6Shared8Graphics2Gl9ContextGlC1Ev
megaglest:_ZN6Shared8Graphics2Gl9ContextGlC2Ev
megaglest:_ZN6Shared8Graphics2Gl9ContextGlD0Ev
megaglest:_ZN6Shared8Graphics2Gl9ContextGlD1Ev
megaglest:_ZN6Shared8Graphics2Gl9ContextGlD2Ev
megaglest:_ZN6Shared8Graphics2Gl9TextureGl13setup_FBO_RBOEv
megaglest:_ZN6Shared8Graphics2Gl9TextureGl14enableATIHacksE
megaglest:_ZN6Shared8Graphics2Gl9TextureGl15initFrameBufferEv
megaglest:_ZN6Shared8Graphics2Gl9TextureGl16initRenderBufferEv
megaglest:_ZN6Shared8Graphics2Gl9TextureGl16supports_FBO_RBOEv
megaglest:_ZN6Shared8Graphics2Gl9TextureGl16teardown_FBO_RBOEv
megaglest:_ZN6Shared8Graphics2Gl9TextureGl18attachRenderBufferEv
megaglest:_ZN6Shared8Graphics2Gl9TextureGl22OutputTextureDebugInfoENS0_7Texture6FormatEiNSt7__cxx1112basic_stringIcSt11char_traitsIcESaIcEEEmj
megaglest:_ZN6Shared8Graphics2Gl9TextureGl22checkFrameBufferStatusEv
megaglest:_ZN6Shared8Graphics2Gl9TextureGl26attachFrameBufferToTextureEv
megaglest:_ZN6Shared8Graphics2Gl9TextureGl29dettachFrameBufferFromTextureEv
megaglest:_ZN6Shared8Graphics2Gl9TextureGl30dettachRenderBufferFromTextureEv
megaglest:_ZN6Shared8Graphics2Gl9TextureGlC1Ev
megaglest:_ZN6Shared8Graphics2Gl9TextureGlC2Ev
megaglest:_ZN6Shared8Graphics2Gl9TextureGlD0Ev
megaglest:_ZN6Shared8Graphics2Gl9TextureGlD1Ev
megaglest:_ZN6Shared8Graphics2Gl9TextureGlD2Ev
megaglest:_ZN6Shared8Graphics4Font12fontTypeNameB5cxx11E
megaglest:_ZN6Shared8Graphics4Font14faceResolutionE
megaglest:_ZN6Shared8Graphics4Font14langHeightTextB5cxx11E
megaglest:_ZN6Shared8Graphics4Font14scaleFontValueE
megaglest:_ZN6Shared8Graphics4Font15fontIsMultibyteE
megaglest:_ZN6Shared8Graphics4Font15resetToDefaultsEv
megaglest:_ZN6Shared8Graphics4Font16forceLegacyFontsE
megaglest:_ZN6Shared8Graphics4Font17fontIsRightToLeftE
megaglest:_ZN6Shared8Graphics4Font27fontSupportMixedRightToLeftE
megaglest:_ZN6Shared8Graphics4Font27scaleFontValueCenterHFactorE
megaglest:_ZN6Shared8Graphics4Font7setSizeEi
megaglest:_ZN6Shared8Graphics4Font7setTypeENSt7__cxx1112basic_stringIcSt11char_traitsIcESaIcEEES7_S7_
megaglest:_ZN6Shared8Graphics4Font8baseSizeE
megaglest:_ZN6Shared8Graphics4Font8bidi_cvtERNSt7__cxx1112basic_stringIcSt11char_traitsIcESaIcEEE
megaglest:_ZN6Shared8Graphics4Font8setWidthEi
megaglest:_ZN6Shared8Graphics4Font9charCountE
megaglest:_ZN6Shared8Graphics4FontC1E19FontTextHandlerType
megaglest:_ZN6Shared8Graphics4FontC2E19FontTextHandlerType
megaglest:_ZN6Shared8Graphics4FontD0Ev
megaglest:_ZN6Shared8Graphics4FontD1Ev
megaglest:_ZN6Shared8Graphics4FontD2Ev
megaglest:_ZN6Shared8Graphics4Mesh10setIndicesEPjj
megaglest:_ZN6Shared8Graphics4Mesh10setNormalsEPNS0_4Vec3IfEEj
megaglest:_ZN6Shared8Graphics4Mesh11ReleaseVBOsEv
megaglest:_ZN6Shared8Graphics4Mesh11setVerticesEPNS0_4Vec3IfEEj
megaglest:_ZN6Shared8Graphics4Mesh12deletePixelsEv
megaglest:_ZN6Shared8Graphics4Mesh12setTexCoordsEPNS0_4Vec2IfEEj
megaglest:_ZN6Shared8Graphics4Mesh15computeTangentsEv
megaglest:_ZN6Shared8Graphics4Mesh15loadMeshTextureEiiPNS0_14TextureManagerENSt7__cxx1112basic_stringIcSt11char_traitsIcESaIcEEEiRbbPSt3mapIS9_St6vectorISt4pairIS9_S9_ESaISE_EESt4lessIS9_ESaISD_IKS9_SG_EEES9_S9_
megaglest:_ZN6Shared8Graphics4Mesh20findAlternateTextureESt6vectorINSt7__cxx1112basic_stringIcSt11char_traitsIcESaIcEEESaIS8_EES8_
megaglest:_ZN6Shared8Graphics4Mesh22buildInterpolationDataEv
megaglest:_ZN6Shared8Graphics4Mesh23updateInterpolationDataEfb
megaglest:_ZN6Shared8Graphics4Mesh24cleanupInterpolationDataEv
megaglest:_ZN6Shared8Graphics4Mesh27updateInterpolationVerticesEfb
megaglest:_ZN6Shared8Graphics4Mesh3endEv
megaglest:_ZN6Shared8Graphics4Mesh4initEv
megaglest:_ZN6Shared8Graphics4Mesh4loadEiRKNSt7__cxx1112basic_stringIcSt11char_traitsIcESaIcEEEP8_IO_FILEPNS0_14TextureManagerEbPSt3mapIS7_St6vectorISt4pairIS7_S7_ESaISH_EESt4lessIS7_ESaISG_IS8_SJ_EEES7_S7_
megaglest:_ZN6Shared8Graphics4Mesh4saveEiRKNSt7__cxx1112basic_stringIcSt11char_traitsIcESaIcEEEP8_IO_FILEPNS0_14TextureManagerES7_RSt3mapIS7_iSt4lessIS7_ESaISt4pairIS8_iEEEbS7_
megaglest:_ZN6Shared8Graphics4Mesh6loadV2EiRKNSt7__cxx1112basic_stringIcSt11char_traitsIcESaIcEEEP8_IO_FILEPNS0_14TextureManagerEbPSt3mapIS7_St6vectorISt4pairIS7_S7_ESaISH_EESt4lessIS7_ESaISG_IS8_SJ_EEES7_S7_
megaglest:_ZN6Shared8Graphics4Mesh6loadV3EiRKNSt7__cxx1112basic_stringIcSt11char_traitsIcESaIcEEEP8_IO_FILEPNS0_14TextureManagerEbPSt3mapIS7_St6vectorISt4pairIS7_S7_ESaISH_EESt4lessIS7_ESaISG_IS8_SJ_EEES7_S7_
megaglest:_ZN6Shared8Graphics4Mesh8copyIntoEPS1_bb
megaglest:_ZN6Shared8Graphics4Mesh9BuildVBOsEv
megaglest:_ZN6Shared8Graphics4MeshC1Ev
megaglest:_ZN6Shared8Graphics4MeshC2Ev
megaglest:_ZN6Shared8Graphics4MeshD1Ev
megaglest:_ZN6Shared8Graphics4MeshD2Ev
megaglest:_ZN6Shared8Graphics5Model12deletePixelsEv
megaglest:_ZN6Shared8Graphics5Model18autoJoinMeshFramesEv
megaglest:_ZN6Shared8Graphics5Model23updateInterpolationDataEfb
megaglest:_ZN6Shared8Graphics5Model27updateInterpolationVerticesEfb
megaglest:_ZN6Shared8Graphics5Model4loadERKNSt7__cxx1112basic_stringIcSt11char_traitsIcESaIcEEEbPSt3mapIS7_St6vectorISt4pairIS7_S7_ESaISD_EESt4lessIS7_ESaISC_IS8_SF_EEEPS7_
megaglest:_ZN6Shared8Graphics5Model4saveERKNSt7__cxx1112basic_stringIcSt11char_traitsIcESaIcEEES7_b
megaglest:_ZN6Shared8Graphics5Model7loadG3dERKNSt7__cxx1112basic_stringIcSt11char_traitsIcESaIcEEEbPSt3mapIS7_St6vectorISt4pairIS7_S7_ESaISD_EESt4lessIS7_ESaISC_IS8_SF_EEES7_
megaglest:_ZN6Shared8Graphics5Model7saveG3dERKNSt7__cxx1112basic_stringIcSt11char_traitsIcESaIcEEES7_b
megaglest:_ZN6Shared8Graphics5ModelC1Ev
megaglest:_ZN6Shared8Graphics5ModelC2Ev
megaglest:_ZN6Shared8Graphics5ModelD0Ev
megaglest:_ZN6Shared8Graphics5ModelD1Ev
megaglest:_ZN6Shared8Graphics5ModelD2Ev
megaglest:_ZN6Shared8Graphics6Camera10moveLocalXEf
megaglest:_ZN6Shared8Graphics6Camera10moveLocalYEf
megaglest:_ZN6Shared8Graphics6Camera10moveLocalZEf
megaglest:_ZN6Shared8Graphics6Camera6addYawEf
megaglest:_ZN6Shared8Graphics6Camera7addRollEf
megaglest:_ZN6Shared8Graphics6Camera8addPitchEf
megaglest:_ZN6Shared8Graphics6CameraC1Ev
megaglest:_ZN6Shared8Graphics6CameraC2Ev
megaglest:_ZN6Shared8Graphics6Font2DC1E19FontTextHandlerType
megaglest:_ZN6Shared8Graphics6Font2DC2E19FontTextHandlerType
megaglest:_ZN6Shared8Graphics6Font3DC1E19FontTextHandlerType
megaglest:_ZN6Shared8Graphics6Font3DC2E19FontTextHandlerType
megaglest:_ZN6Shared8Graphics7ContextC1Ev
megaglest:_ZN6Shared8Graphics7ContextC2Ev
megaglest:_ZN6Shared8Graphics7Texture11defaultSizeE
megaglest:_ZN6Shared8Graphics7Texture17defaultComponentsE
megaglest:_ZN6Shared8Graphics7Texture21useTextureCompressionE
megaglest:_ZN6Shared8Graphics7TextureC1Ev
megaglest:_ZN6Shared8Graphics7TextureC2Ev
megaglest:_ZN6Shared8Graphics8Particle8loadGameEPKNS_3Xml7XmlNodeE
megaglest:_ZN6Shared8Graphics8Particle8saveGameEPNS_3Xml7XmlNodeE
megaglest:_ZN6Shared8Graphics8Pixmap1D12deletePixelsEv
megaglest:_ZN6Shared8Graphics8Pixmap1D4initEi
megaglest:_ZN6Shared8Graphics8Pixmap1D4initEii
megaglest:_ZN6Shared8Graphics8Pixmap1D4loadERKNSt7__cxx1112basic_stringIcSt11char_traitsIcESaIcEEE
megaglest:_ZN6Shared8Graphics8Pixmap1D7loadBmpERKNSt7__cxx1112basic_stringIcSt11char_traitsIcESaIcEEE
megaglest:_ZN6Shared8Graphics8Pixmap1D7loadTgaERKNSt7__cxx1112basic_stringIcSt11char_traitsIcESaIcEEE
megaglest:_ZN6Shared8Graphics8Pixmap1DC1Ei
megaglest:_ZN6Shared8Graphics8Pixmap1DC1Eii
megaglest:_ZN6Shared8Graphics8Pixmap1DC1Ev
megaglest:_ZN6Shared8Graphics8Pixmap1DC2Ei
megaglest:_ZN6Shared8Graphics8Pixmap1DC2Eii
megaglest:_ZN6Shared8Graphics8Pixmap1DC2Ev
megaglest:_ZN6Shared8Graphics8Pixmap1DD1Ev
megaglest:_ZN6Shared8Graphics8Pixmap1DD2Ev
megaglest:_ZN6Shared8Graphics8Pixmap2D12deletePixelsEv
megaglest:_ZN6Shared8Graphics8Pixmap2D12setComponentEiiif
megaglest:_ZN6Shared8Graphics8Pixmap2D12setComponentEiiih
megaglest:_ZN6Shared8Graphics8Pixmap2D13copyImagePartEiiPKS1_
megaglest:_ZN6Shared8Graphics8Pixmap2D13setComponentsEif
megaglest:_ZN6Shared8Graphics8Pixmap2D13setComponentsEih
megaglest:_ZN6Shared8Graphics8Pixmap2D17doDimensionsAgreeEPKS1_
megaglest:_ZN6Shared8Graphics8Pixmap2D4copyEPKS1_
megaglest:_ZN6Shared8Graphics8Pixmap2D4initEi
megaglest:_ZN6Shared8Graphics8Pixmap2D4initEiii
megaglest:_ZN6Shared8Graphics8Pixmap2D4lerpEfPKS1_S3_
megaglest:_ZN6Shared8Graphics8Pixmap2D4loadERKNSt7__cxx1112basic_stringIcSt11char_traitsIcESaIcEEE
megaglest:_ZN6Shared8Graphics8Pixmap2D4saveERKNSt7__cxx1112basic_stringIcSt11char_traitsIcESaIcEEE
megaglest:_ZN6Shared8Graphics8Pixmap2D5ScaleEiii
megaglest:_ZN6Shared8Graphics8Pixmap2D5splatEPKS1_S3_S3_S3_
megaglest:_ZN6Shared8Graphics8Pixmap2D7saveBmpERKNSt7__cxx1112basic_stringIcSt11char_traitsIcESaIcEEE
megaglest:_ZN6Shared8Graphics8Pixmap2D7saveJpgERKNSt7__cxx1112basic_stringIcSt11char_traitsIcESaIcEEE
megaglest:_ZN6Shared8Graphics8Pixmap2D7savePngERKNSt7__cxx1112basic_stringIcSt11char_traitsIcESaIcEEE
megaglest:_ZN6Shared8Graphics8Pixmap2D7saveTgaERKNSt7__cxx1112basic_stringIcSt11char_traitsIcESaIcEEE
megaglest:_ZN6Shared8Graphics8Pixmap2D7subCopyEiiPKS1_
megaglest:_ZN6Shared8Graphics8Pixmap2D8loadPathERKNSt7__cxx1112basic_stringIcSt11char_traitsIcESaIcEEE
megaglest:_ZN6Shared8Graphics8Pixmap2D8setPixelEiiPKfi
megaglest:_ZN6Shared8Graphics8Pixmap2D8setPixelEiiPKhi
megaglest:_ZN6Shared8Graphics8Pixmap2D8setPixelEiiRKNS0_4Vec3IfEE
megaglest:_ZN6Shared8Graphics8Pixmap2D8setPixelEiiRKNS0_4Vec4IfEE
megaglest:_ZN6Shared8Graphics8Pixmap2D8setPixelEiif
megaglest:_ZN6Shared8Graphics8Pixmap2D9setPixelsEPKfi
megaglest:_ZN6Shared8Graphics8Pixmap2D9setPixelsEPKhi
megaglest:_ZN6Shared8Graphics8Pixmap2DC1Ei
megaglest:_ZN6Shared8Graphics8Pixmap2DC1Eiii
megaglest:_ZN6Shared8Graphics8Pixmap2DC1Ev
megaglest:_ZN6Shared8Graphics8Pixmap2DC2Ei
megaglest:_ZN6Shared8Graphics8Pixmap2DC2Eiii
megaglest:_ZN6Shared8Graphics8Pixmap2DC2Ev
megaglest:_ZN6Shared8Graphics8Pixmap2DD1Ev
megaglest:_ZN6Shared8Graphics8Pixmap2DD2Ev
megaglest:_ZN6Shared8Graphics8Pixmap3D12deletePixelsEv
megaglest:_ZN6Shared8Graphics8Pixmap3D12loadSliceBmpERKNSt7__cxx1112basic_stringIcSt11char_traitsIcESaIcEEEi
megaglest:_ZN6Shared8Graphics8Pixmap3D12loadSlicePngERKNSt7__cxx1112basic_stringIcSt11char_traitsIcESaIcEEEi
megaglest:_ZN6Shared8Graphics8Pixmap3D12loadSliceTgaERKNSt7__cxx1112basic_stringIcSt11char_traitsIcESaIcEEEi
megaglest:_ZN6Shared8Graphics8Pixmap3D4initEi
megaglest:_ZN6Shared8Graphics8Pixmap3D4initEii
megaglest:_ZN6Shared8Graphics8Pixmap3D4initEiiii
megaglest:_ZN6Shared8Graphics8Pixmap3D9loadSliceERKNSt7__cxx1112basic_stringIcSt11char_traitsIcESaIcEEEi
megaglest:_ZN6Shared8Graphics8Pixmap3DC1Eii
megaglest:_ZN6Shared8Graphics8Pixmap3DC1Eiiii
megaglest:_ZN6Shared8Graphics8Pixmap3DC1Ev
megaglest:_ZN6Shared8Graphics8Pixmap3DC2Eii
megaglest:_ZN6Shared8Graphics8Pixmap3DC2Eiiii
megaglest:_ZN6Shared8Graphics8Pixmap3DC2Ev
megaglest:_ZN6Shared8Graphics8Pixmap3DD1Ev
megaglest:_ZN6Shared8Graphics8Pixmap3DD2Ev
megaglest:_ZN6Shared8Graphics8findFontEPKcS2_
megaglest:_ZN6Shared8Graphics8is_ASCIIERKi
megaglest:_ZN6Shared8Graphics9AxisAngleC1ERKNS0_4Vec3IfEEf
megaglest:_ZN6Shared8Graphics9AxisAngleC2ERKNS0_4Vec3IfEEf
megaglest:_ZN6Shared8Graphics9BMPReaderC1Ev
megaglest:_ZN6Shared8Graphics9BMPReaderC2Ev
megaglest:_ZN6Shared8Graphics9JPGReaderC1Ev
megaglest:_ZN6Shared8Graphics9JPGReaderC2Ev
megaglest:_ZN6Shared8Graphics9PNGReaderC1Ev
megaglest:_ZN6Shared8Graphics9PNGReaderC2Ev
megaglest:_ZN6Shared8Graphics9TGAReaderC1Ev
megaglest:_ZN6Shared8Graphics9TGAReaderC2Ev
megaglest:_ZN6Shared8Graphics9Texture1D12deletePixelsEv
megaglest:_ZN6Shared8Graphics9Texture1D4loadERKNSt7__cxx1112basic_stringIcSt11char_traitsIcESaIcEEE
megaglest:_ZN6Shared8Graphics9Texture2D12deletePixelsEv
megaglest:_ZN6Shared8Graphics9Texture2D4loadERKNSt7__cxx1112basic_stringIcSt11char_traitsIcESaIcEEE
megaglest:_ZN6Shared8Graphics9Texture3D12deletePixelsEv
megaglest:_ZN6Shared8Graphics9Texture3D9loadSliceERKNSt7__cxx1112basic_stringIcSt11char_traitsIcESaIcEEEi
megaglest:_ZN6Shared8Graphics9callbacksEPK14libvlc_event_tPv
megaglest:_ZN6Shared8Graphics9splatDistENS0_4Vec2IiEES2_
megaglest:_ZN6Shared8Platform10UPNP_Tools11enabledUPNPE
megaglest:_ZN6Shared8Platform10UPNP_Tools15NETaddRedirectsESt6vectorIiSaIiEEb
megaglest:_ZN6Shared8Platform10UPNP_Tools15NETremRedirectsEi
megaglest:_ZN6Shared8Platform10UPNP_Tools17upnp_add_redirectEPib
megaglest:_ZN6Shared8Platform10UPNP_Tools17upnp_rem_redirectEi
megaglest:_ZN6Shared8Platform10UPNP_Tools18AddUPNPPortForwardEii
megaglest:_ZN6Shared8Platform10UPNP_Tools21RemoveUPNPPortForwardEii
megaglest:_ZN6Shared8Platform10UPNP_Tools6isUPNPE
megaglest:_ZN6Shared8Platform10UPNP_Tools9mutexUPNPE
megaglest:_ZN6Shared8Platform10UPNP_Tools9upnp_initEPv
megaglest:_ZN6Shared8Platform11showMessageENSt7__cxx1112basic_stringIcSt11char_traitsIcESaIcEEES6_
megaglest:_ZN6Shared8Platform12ClientSocket15discoverServersEPNS0_26DiscoveredServersInterfaceE
megaglest:_ZN6Shared8Platform12ClientSocket21broadCastClientThreadE
megaglest:_ZN6Shared8Platform12ClientSocket25stopBroadCastClientThreadEv
megaglest:_ZN6Shared8Platform12ClientSocket26startBroadCastClientThreadEPNS0_26DiscoveredServersInterfaceE
megaglest:_ZN6Shared8Platform12ClientSocket7connectERKNS0_2IpEi
megaglest:_ZN6Shared8Platform12ClientSocketC1Ev
megaglest:_ZN6Shared8Platform12ClientSocketC2Ev
megaglest:_ZN6Shared8Platform12ClientSocketD0Ev
megaglest:_ZN6Shared8Platform12ClientSocketD1Ev
megaglest:_ZN6Shared8Platform12ClientSocketD2Ev
megaglest:_ZN6Shared8Platform12ServerSocket12externalPortE
megaglest:_ZN6Shared8Platform12ServerSocket13ftpServerPortE
megaglest:_ZN6Shared8Platform12ServerSocket14UPNPInitStatusEb
megaglest:_ZN6Shared8Platform12ServerSocket14maxPlayerCountE
megaglest:_ZN6Shared8Platform12ServerSocket14pauseBroadcastEv
megaglest:_ZN6Shared8Platform12ServerSocket15resumeBroadcastEv
megaglest:_ZN6Shared8Platform12ServerSocket16disconnectSocketEv
megaglest:_ZN6Shared8Platform12ServerSocket18upnpdiscoverThreadE
megaglest:_ZN6Shared8Platform12ServerSocket19stopBroadCastThreadEv
megaglest:_ZN6Shared8Platform12ServerSocket20startBroadCastThreadEv
megaglest:_ZN6Shared8Platform12ServerSocket21clearBlockedIPAddressEv
megaglest:_ZN6Shared8Platform12ServerSocket22NETdiscoverUPnPDevicesEv
megaglest:_ZN6Shared8Platform12ServerSocket22removeBlockedIPAddressENSt7__cxx1112basic_stringIcSt11char_traitsIcESaIcEEE
megaglest:_ZN6Shared8Platform12ServerSocket23mutexUpnpdiscoverThreadE
megaglest:_ZN6Shared8Platform12ServerSocket24cancelUpnpdiscoverThreadE
megaglest:_ZN6Shared8Platform12ServerSocket24isBroadCastThreadRunningEv
megaglest:_ZN6Shared8Platform12ServerSocket25addIPAddressToBlockedListENSt7__cxx1112basic_stringIcSt11char_traitsIcESaIcEEE
megaglest:_ZN6Shared8Platform12ServerSocket4bindEi
megaglest:_ZN6Shared8Platform12ServerSocket6acceptEb
megaglest:_ZN6Shared8Platform12ServerSocket6listenEi
megaglest:_ZN6Shared8Platform12ServerSocketC1Eb
megaglest:_ZN6Shared8Platform12ServerSocketC2Eb
megaglest:_ZN6Shared8Platform12ServerSocketD0Ev
megaglest:_ZN6Shared8Platform12ServerSocketD1Ev
megaglest:_ZN6Shared8Platform12ServerSocketD2Ev
megaglest:_ZN6Shared8Platform12isKeyPressedEi17SDL_KeyboardEventSt6vectorIiSaIiEE
megaglest:_ZN6Shared8Platform12isKeyPressedEi17SDL_KeyboardEventb
megaglest:_ZN6Shared8Platform14ReadWriteMutex10UnLockReadEv
megaglest:_ZN6Shared8Platform14ReadWriteMutex10maxReadersEv
megaglest:_ZN6Shared8Platform14ReadWriteMutex11UnLockWriteEv
megaglest:_ZN6Shared8Platform14ReadWriteMutex8LockReadEv
megaglest:_ZN6Shared8Platform14ReadWriteMutex9LockWriteEv
megaglest:_ZN6Shared8Platform14ReadWriteMutexC1Ei
megaglest:_ZN6Shared8Platform14ReadWriteMutexC2Ei
megaglest:_ZN6Shared8Platform16exceptionMessageERKSt9exception
megaglest:_ZN6Shared8Platform16getDialogCommandEv
megaglest:_ZN6Shared8Platform16getGlProcAddressEPKc
megaglest:_ZN6Shared8Platform17FactoryRepository11getInstanceEv
megaglest:_ZN6Shared8Platform17FactoryRepository15getSoundFactoryERKNSt7__cxx1112basic_stringIcSt11char_traitsIcESaIcEEE
megaglest:_ZN6Shared8Platform17FactoryRepository18getGraphicsFactoryERKNSt7__cxx1112basic_stringIcSt11char_traitsIcESaIcEEE
megaglest:_ZN6Shared8Platform17PlatformContextGl11makeCurrentEv
megaglest:_ZN6Shared8Platform17PlatformContextGl11swapBuffersEv
megaglest:_ZN6Shared8Platform17PlatformContextGl16getScreenSurfaceEv
megaglest:_ZN6Shared8Platform17PlatformContextGl3endEv
megaglest:_ZN6Shared8Platform17PlatformContextGl4initEiiibbf
megaglest:_ZN6Shared8Platform17PlatformContextGl7charSetE
megaglest:_ZN6Shared8Platform17PlatformContextGlC1Ev
megaglest:_ZN6Shared8Platform17PlatformContextGlC2Ev
megaglest:_ZN6Shared8Platform17PlatformContextGlD0Ev
megaglest:_ZN6Shared8Platform17PlatformContextGlD1Ev
megaglest:_ZN6Shared8Platform17PlatformContextGlD2Ev
megaglest:_ZN6Shared8Platform17extractKeyPressedE17SDL_KeyboardEvent
megaglest:_ZN6Shared8Platform19createGlFontBitmapsERjRKNSt7__cxx1112basic_stringIcSt11char_traitsIcESaIcEEEiiiRNS_8Graphics11FontMetricsE
megaglest:_ZN6Shared8Platform20createGlFontOutlinesERjRKNSt7__cxx1112basic_stringIcSt11char_traitsIcESaIcEEEifiRNS_8Graphics11FontMetricsE
megaglest:_ZN6Shared8Platform21BroadCastSocketThread11canShutdownEb
megaglest:_ZN6Shared8Platform21BroadCastSocketThread17getPauseBroadcastEv
megaglest:_ZN6Shared8Platform21BroadCastSocketThread17setPauseBroadcastEb
megaglest:_ZN6Shared8Platform21BroadCastSocketThread7executeEv
megaglest:_ZN6Shared8Platform21BroadCastSocketThreadC1Ei
megaglest:_ZN6Shared8Platform21BroadCastSocketThreadC2Ei
megaglest:_ZN6Shared8Platform21BroadCastSocketThreadD0Ev
megaglest:_ZN6Shared8Platform21BroadCastSocketThreadD1Ev
megaglest:_ZN6Shared8Platform21BroadCastSocketThreadD2Ev
megaglest:_ZN6Shared8Platform21getPlatformExtensionsEPKNS0_17PlatformContextGlE
megaglest:_ZN6Shared8Platform21isAllowedInputTextKeyERw
megaglest:_ZN6Shared8Platform21isAllowedInputTextKeyEi
megaglest:_ZN6Shared8Platform23megaglest_runtime_errorC1ERKNSt7__cxx1112basic_stringIcSt11char_traitsIcESaIcEEEb
megaglest:_ZN6Shared8Platform23megaglest_runtime_errorC2ERKNSt7__cxx1112basic_stringIcSt11char_traitsIcESaIcEEEb
megaglest:_ZN6Shared8Platform24PlatformExceptionHandler13getStackTraceB5cxx11Ev
megaglest:_ZN6Shared8Platform24PlatformExceptionHandler16disableBacktraceE
megaglest:_ZN6Shared8Platform24PlatformExceptionHandler18application_binaryB5cxx11E
megaglest:_ZN6Shared8Platform24extractKeyPressedUnicodeE17SDL_KeyboardEvent
megaglest:_ZN6Shared8Platform27BroadCastClientSocketThread7executeEv
megaglest:_ZN6Shared8Platform27BroadCastClientSocketThreadC1EPNS0_26DiscoveredServersInterfaceE
megaglest:_ZN6Shared8Platform27BroadCastClientSocketThreadC2EPNS0_26DiscoveredServersInterfaceE
megaglest:_ZN6Shared8Platform27MasterSlaveThreadController11clearSlavesEb
megaglest:_ZN6Shared8Platform27MasterSlaveThreadController12signalSlavesEPv
megaglest:_ZN6Shared8Platform27MasterSlaveThreadController13triggerMasterEi
megaglest:_ZN6Shared8Platform27MasterSlaveThreadController21waitTillSlavesTriggerEi
megaglest:_ZN6Shared8Platform27MasterSlaveThreadController4initERSt6vectorIPNS0_30SlaveThreadControllerInterfaceESaIS4_EE
megaglest:_ZN6Shared8Platform27MasterSlaveThreadController9setSlavesERSt6vectorIPNS0_30SlaveThreadControllerInterfaceESaIS4_EE
megaglest:_ZN6Shared8Platform27MasterSlaveThreadControllerC1ERSt6vectorIPNS0_30SlaveThreadControllerInterfaceESaIS4_EE
megaglest:_ZN6Shared8Platform27MasterSlaveThreadControllerC1Ev
megaglest:_ZN6Shared8Platform27MasterSlaveThreadControllerC2ERSt6vectorIPNS0_30SlaveThreadControllerInterfaceESaIS4_EE
megaglest:_ZN6Shared8Platform27MasterSlaveThreadControllerC2Ev
megaglest:_ZN6Shared8Platform27MasterSlaveThreadControllerD1Ev
megaglest:_ZN6Shared8Platform27MasterSlaveThreadControllerD2Ev
megaglest:_ZN6Shared8Platform28SafeSocketBlockToggleWrapper7RestoreEv
megaglest:_ZN6Shared8Platform28SafeSocketBlockToggleWrapperC1EPNS0_6SocketEb
megaglest:_ZN6Shared8Platform28SafeSocketBlockToggleWrapperC2EPNS0_6SocketEb
megaglest:_ZN6Shared8Platform28SafeSocketBlockToggleWrapperD1Ev
megaglest:_ZN6Shared8Platform28SafeSocketBlockToggleWrapperD2Ev
megaglest:_ZN6Shared8Platform2Ip9Inet_NtoAEjPc
megaglest:_ZN6Shared8Platform2IpC1ERKNSt7__cxx1112basic_stringIcSt11char_traitsIcESaIcEEE
megaglest:_ZN6Shared8Platform2IpC1Ehhhh
megaglest:_ZN6Shared8Platform2IpC1Ev
megaglest:_ZN6Shared8Platform2IpC2ERKNSt7__cxx1112basic_stringIcSt11char_traitsIcESaIcEEE
megaglest:_ZN6Shared8Platform2IpC2Ehhhh
megaglest:_ZN6Shared8Platform2IpC2Ev
megaglest:_ZN6Shared8Platform30extractKeyPressedUnicodeLengthENSt7__cxx1112basic_stringIcSt11char_traitsIcESaIcEEE
megaglest:_ZN6Shared8Platform35getNetworkInterfaceBroadcastAddressENSt7__cxx1112basic_stringIcSt11char_traitsIcESaIcEEE
megaglest:_ZN6Shared8Platform5Mutex14mutexMutexListE
megaglest:_ZN6Shared8Platform5Mutex9mutexListE
megaglest:_ZN6Shared8Platform5MutexC1ENSt7__cxx1112basic_stringIcSt11char_traitsIcESaIcEEE
megaglest:_ZN6Shared8Platform5MutexC2ENSt7__cxx1112basic_stringIcSt11char_traitsIcESaIcEEE
megaglest:_ZN6Shared8Platform5MutexD1Ev
megaglest:_ZN6Shared8Platform5MutexD2Ev
megaglest:_ZN6Shared8Platform6Socket11getHostNameB5cxx11Ev
megaglest:_ZN6Shared8Platform6Socket11isConnectedEv
megaglest:_ZN6Shared8Platform6Socket12disableNagleE
megaglest:_ZN6Shared8Platform6Socket12getIpAddressB5cxx11Ev
megaglest:_ZN6Shared8Platform6Socket13getDataToReadEb
megaglest:_ZN6Shared8Platform6Socket13hasDataToReadERSt3mapIibSt4lessIiESaISt4pairIKibEEE
megaglest:_ZN6Shared8Platform6Socket13hasDataToReadEi
megaglest:_ZN6Shared8Platform6Socket13hasDataToReadEv
megaglest:_ZN6Shared8Platform6Socket13isSocketValidEPKi
megaglest:_ZN6Shared8Platform6Socket14throwExceptionENSt7__cxx1112basic_stringIcSt11char_traitsIcESaIcEEE
megaglest:_ZN6Shared8Platform6Socket16broadcast_portnoE
megaglest:_ZN6Shared8Platform6Socket16disconnectSocketEv
megaglest:_ZN6Shared8Platform6Socket16getAveragePingMSENSt7__cxx1112basic_stringIcSt11char_traitsIcESaIcEEEi
megaglest:_ZN6Shared8Platform6Socket17getThreadedPingMSENSt7__cxx1112basic_stringIcSt11char_traitsIcESaIcEEE
megaglest:_ZN6Shared8Platform6Socket18getLastSocketErrorEv
megaglest:_ZN6Shared8Platform6Socket21getConnectedIPAddressENSt7__cxx1112basic_stringIcSt11char_traitsIcESaIcEEE
megaglest:_ZN6Shared8Platform6Socket21getLocalIPAddressListB5cxx11Ev
megaglest:_ZN6Shared8Platform6Socket21hasDataToReadWithWaitEi
megaglest:_ZN6Shared8Platform6Socket21hasDataToReadWithWaitEii
megaglest:_ZN6Shared8Platform6Socket22getLastSocketErrorTextEPi
megaglest:_ZN6Shared8Platform6Socket27DEFAULT_SOCKET_RECVBUF_SIZEE
megaglest:_ZN6Shared8Platform6Socket27DEFAULT_SOCKET_SENDBUF_SIZEE
megaglest:_ZN6Shared8Platform6Socket31getLastSocketErrorFormattedTextB5cxx11EPi
megaglest:_ZN6Shared8Platform6Socket4peekEPvibPi
megaglest:_ZN6Shared8Platform6Socket4sendEPKvi
megaglest:_ZN6Shared8Platform6Socket5getIpB5cxx11Ev
megaglest:_ZN6Shared8Platform6Socket7receiveEPvib
megaglest:_ZN6Shared8Platform6Socket8getBlockEv
megaglest:_ZN6Shared8Platform6Socket8setBlockEb
megaglest:_ZN6Shared8Platform6Socket8setBlockEbi
megaglest:_ZN6Shared8Platform6Socket9host_nameB5cxx11E
megaglest:_ZN6Shared8Platform6Socket9intfTypesB5cxx11E
megaglest:_ZN6Shared8Platform6SocketC1Ei
megaglest:_ZN6Shared8Platform6SocketC1Ev
megaglest:_ZN6Shared8Platform6SocketC2Ei
megaglest:_ZN6Shared8Platform6SocketC2Ev
megaglest:_ZN6Shared8Platform6SocketD0Ev
megaglest:_ZN6Shared8Platform6SocketD1Ev
megaglest:_ZN6Shared8Platform6SocketD2Ev
megaglest:_ZN6Shared8Platform6Thread10threadListE
megaglest:_ZN6Shared8Platform6Thread11setPriorityENS1_8PriorityE
megaglest:_ZN6Shared8Platform6Thread12mainThreadIdE
megaglest:_ZN6Shared8Platform6Thread13getThreadListEv
megaglest:_ZN6Shared8Platform6Thread14beginExecutionEPv
megaglest:_ZN6Shared8Platform6Thread15addThreadToListEv
megaglest:_ZN6Shared8Platform6Thread15mutexthreadListE
megaglest:_ZN6Shared8Platform6Thread15setMainThreadIdEv
megaglest:_ZN6Shared8Platform6Thread15shutdownThreadsEv
megaglest:_ZN6Shared8Platform6Thread17enableVerboseModeE
megaglest:_ZN6Shared8Platform6Thread17threadObjectValidEv
megaglest:_ZN6Shared8Platform6Thread18getCurrentThreadIdEv
megaglest:_ZN6Shared8Platform6Thread20queueAutoCleanThreadEv
megaglest:_ZN6Shared8Platform6Thread20removeThreadFromListEv
megaglest:_ZN6Shared8Platform6Thread25isCurrentThreadMainThreadEv
megaglest:_ZN6Shared8Platform6Thread29isThreadExecuteCompleteStatusEv
megaglest:_ZN6Shared8Platform6Thread4killEv
megaglest:_ZN6Shared8Platform6Thread5startEv
megaglest:_ZN6Shared8Platform6Thread6resumeEv
megaglest:_ZN6Shared8Platform6Thread7suspendEv
megaglest:_ZN6Shared8Platform6ThreadC1Ev
megaglest:_ZN6Shared8Platform6ThreadC2Ev
megaglest:_ZN6Shared8Platform6ThreadD0Ev
megaglest:_ZN6Shared8Platform6ThreadD1Ev
megaglest:_ZN6Shared8Platform6ThreadD2Ev
megaglest:_ZN6Shared8Platform6Window10lastToggleE
megaglest:_ZN6Shared8Platform6Window10mouseStateE
megaglest:_ZN6Shared8Platform6Window10setEnabledEb
megaglest:_ZN6Shared8Platform6Window10setVisibleEb
megaglest:_ZN6Shared8Platform6Window11handleEventEv
megaglest:_ZN6Shared8Platform6Window12getSDLWindowEv
megaglest:_ZN6Shared8Platform6Window12isAllowedKeyEw
megaglest:_ZN6Shared8Platform6Window12isFullScreenE
megaglest:_ZN6Shared8Platform6Window12setSDLWindowEP10SDL_Window
megaglest:_ZN6Shared8Platform6Window14addAllowedKeysENSt7__cxx1112basic_stringIcSt11char_traitsIcESaIcEEE
megaglest:_ZN6Shared8Platform6Window14getMouseButtonEi
megaglest:_ZN6Shared8Platform6Window14getOldMousePosEv
megaglest:_ZN6Shared8Platform6Window14lastMouseEventE
megaglest:_ZN6Shared8Platform6Window14mapAllowedKeysE
megaglest:_ZN6Shared8Platform6Window14revertMousePosEv
megaglest:_ZN6Shared8Platform6Window15handleMouseDownE9SDL_Event
megaglest:_ZN6Shared8Platform6Window16clearAllowedKeysEv
megaglest:_ZN6Shared8Platform6Window16handleMouseWheelE9SDL_Event
megaglest:_ZN6Shared8Platform6Window16isKeyPressedDownE
megaglest:_ZN6Shared8Platform6Window16toggleFullscreenEv
megaglest:_ZN6Shared8Platform6Window18lastShowMouseStateE
megaglest:_ZN6Shared8Platform6Window19setupGraphicsScreenEiibb
megaglest:_ZN6Shared8Platform6Window20isKeyStateModPressedEi
megaglest:_ZN6Shared8Platform6Window21convertStringtoSDLKeyERKNSt7__cxx1112basic_stringIcSt11char_traitsIcESaIcEEE
megaglest:_ZN6Shared8Platform6Window21extractLastKeyPressedEv
megaglest:_ZN6Shared8Platform6Window29allowAltEnterFullscreenToggleE
megaglest:_ZN6Shared8Platform6Window6createEv
megaglest:_ZN6Shared8Platform6Window6setPosEii
megaglest:_ZN6Shared8Platform6Window7destroyEv
megaglest:_ZN6Shared8Platform6Window7getTextB5cxx11Ev
megaglest:_ZN6Shared8Platform6Window7setSizeEii
megaglest:_ZN6Shared8Platform6Window7setTextENSt7__cxx1112basic_stringIcSt11char_traitsIcESaIcEEE
megaglest:_ZN6Shared8Platform6Window8isActiveE
megaglest:_ZN6Shared8Platform6Window8keystateE
megaglest:_ZN6Shared8Platform6Window8minimizeEv
megaglest:_ZN6Shared8Platform6Window8mousePosE
megaglest:_ZN6Shared8Platform6Window8setStyleENS0_11WindowStyleE
megaglest:_ZN6Shared8Platform6Window9getAspectEv
megaglest:_ZN6Shared8Platform6Window9sdlWindowE
megaglest:_ZN6Shared8Platform6Window9tryVSynchE
megaglest:_ZN6Shared8Platform6WindowC1EP10SDL_Window
megaglest:_ZN6Shared8Platform6WindowC1Ev
megaglest:_ZN6Shared8Platform6WindowC2EP10SDL_Window
megaglest:_ZN6Shared8Platform6WindowC2Ev
megaglest:_ZN6Shared8Platform6WindowD0Ev
megaglest:_ZN6Shared8Platform6WindowD1Ev
megaglest:_ZN6Shared8Platform6WindowD2Ev
megaglest:_ZN6Shared8Platform7Trigger17waitTillSignalledEPNS0_5MutexEi
megaglest:_ZN6Shared8Platform7Trigger6signalEb
megaglest:_ZN6Shared8Platform7TriggerC1EPNS0_5MutexE
megaglest:_ZN6Shared8Platform7TriggerC2EPNS0_5MutexE
megaglest:_ZN6Shared8Platform7TriggerD1Ev
megaglest:_ZN6Shared8Platform7TriggerD2Ev
megaglest:_ZN6Shared8Platform7messageENSt7__cxx1112basic_stringIcSt11char_traitsIcESaIcEEEbS6_
megaglest:_ZN6Shared8Platform8WindowGl13makeCurrentGlEv
megaglest:_ZN6Shared8Platform8WindowGl13swapBuffersGlEv
megaglest:_ZN6Shared8Platform8WindowGl14getScreenWidthEv
megaglest:_ZN6Shared8Platform8WindowGl15ChangeVideoModeEbiibiiibbf
megaglest:_ZN6Shared8Platform8WindowGl15getScreenHeightEv
megaglest:_ZN6Shared8Platform8WindowGl15getScreenWindowEv
megaglest:_ZN6Shared8Platform8WindowGl16getScreenSurfaceEv
megaglest:_ZN6Shared8Platform8WindowGl21eventToggleFullScreenEb
megaglest:_ZN6Shared8Platform8WindowGl6initGlEiiibbf
megaglest:_ZN6Shared8Platform8WindowGl8setGammaEP10SDL_Windowf
megaglest:_ZN6Shared8Platform8WindowGl8setGammaEf
megaglest:_ZN6Shared8Platform8WindowGlC1EP10SDL_Window
megaglest:_ZN6Shared8Platform8WindowGlC1Ev
megaglest:_ZN6Shared8Platform8WindowGlC2EP10SDL_Window
megaglest:_ZN6Shared8Platform8WindowGlC2Ev
megaglest:_ZN6Shared8Platform8WindowGlD0Ev
megaglest:_ZN6Shared8Platform8WindowGlD1Ev
megaglest:_ZN6Shared8Platform8WindowGlD2Ev
megaglest:_ZN6Shared8Platform9Semaphore11getSemValueEv
megaglest:_ZN6Shared8Platform9Semaphore12tryDecrementEv
megaglest:_ZN6Shared8Platform9Semaphore13resetSemValueEj
megaglest:_ZN6Shared8Platform9Semaphore17waitTillSignalledEi
megaglest:_ZN6Shared8Platform9Semaphore6signalEv
megaglest:_ZN6Shared8Platform9SemaphoreC1Ej
megaglest:_ZN6Shared8Platform9SemaphoreC2Ej
megaglest:_ZN6Shared8Platform9SemaphoreD1Ev
megaglest:_ZN6Shared8Platform9SemaphoreD2Ev
megaglest:_ZNK5Glest4Game10AttackType7getNameB5cxx11Eb
megaglest:_ZNK5Glest4Game10GameCamera20getCameraMovementKeyB5cxx11Ev
megaglest:_ZNK5Glest4Game10GameCamera4saveEPN6Shared3Xml7XmlNodeE
megaglest:_ZNK5Glest4Game11AiInterface14getMyUnitCountEv
megaglest:_ZNK5Glest4Game11AiInterface14isResourceNearERKN6Shared8Graphics4Vec2IiEEPKNS0_12ResourceTypeERS5_PNS0_7FactionEb
megaglest:_ZNK5Glest4Game11AiInterface17getMyUpgradeCountEv
megaglest:_ZNK5Glest4Game11AiInterface18isResourceInRegionERKN6Shared8Graphics4Vec2IiEEPKNS0_12ResourceTypeERS5_i
megaglest:_ZNK5Glest4Game11AiInterface6isAllyEPKNS0_4UnitE
megaglest:_ZNK5Glest4Game11AiInterface8saveGameEPN6Shared3Xml7XmlNodeE
megaglest:_ZNK5Glest4Game11AttackBoost10getTagNameENSt7__cxx1112basic_stringIcSt11char_traitsIcESaIcEEEb
megaglest:_ZNK5Glest4Game11AttackBoost10isAffectedEPKNS0_4UnitES4_
megaglest:_ZNK5Glest4Game11AttackBoost18isInUnitListOrTagsEPKNS0_8UnitTypeE
megaglest:_ZNK5Glest4Game11AttackBoost7getDescB5cxx11Eb
megaglest:_ZNK5Glest4Game11AttackBoost8saveGameEPN6Shared3Xml7XmlNodeE
megaglest:_ZNK5Glest4Game11CommandType20hasFogOfWarSkillTypeENSt7__cxx1112basic_stringIcSt11char_traitsIcESaIcEEE
megaglest:_ZNK5Glest4Game11CommandType8getClassEv
megaglest:_ZNK5Glest4Game11FactionType11getUnitTypeERKNSt7__cxx1112basic_stringIcSt11char_traitsIcESaIcEEE
megaglest:_ZNK5Glest4Game11FactionType14getUpgradeTypeERKNSt7__cxx1112basic_stringIcSt11char_traitsIcESaIcEEE
megaglest:_ZNK5Glest4Game11FactionType15getUnitTypeByIdEi
megaglest:_ZNK5Glest4Game11FactionType18getAIBehaviorUnitsENS0_22AIBehaviorUnitCategoryE
megaglest:_ZNK5Glest4Game11FactionType23factionUsesResourceTypeEPKNS0_12ResourceTypeE
megaglest:_ZNK5Glest4Game11FactionType25getStartingResourceAmountEPKNS0_12ResourceTypeE
megaglest:_ZNK5Glest4Game11FactionType31getAIBehaviorStaticOverideValueENS0_29AIBehaviorStaticValueCategoryE
megaglest:_ZNK5Glest4Game11FactionType7getNameB5cxx11Eb
megaglest:_ZNK5Glest4Game11FactionType8toStringB5cxx11Ev
megaglest:_ZNK5Glest4Game11PlayerStats8getStatsB5cxx11Ev
megaglest:_ZNK5Glest4Game11ProduceTask8saveGameEPN6Shared3Xml7XmlNodeE
megaglest:_ZNK5Glest4Game11ProduceTask8toStringB5cxx11Ev
megaglest:_ZNK5Glest4Game11SurfaceCell15isVisibleStringB5cxx11Ev
megaglest:_ZNK5Glest4Game11SurfaceCell16isExploredStringB5cxx11Ev
megaglest:_ZNK5Glest4Game11SurfaceCell8saveGameEPN6Shared3Xml7XmlNodeEi
megaglest:_ZNK5Glest4Game11SurfaceInfoeqERKS1_
megaglest:_ZNK5Glest4Game11UnitUpdater18findEnemiesForCellEN6Shared8Graphics4Vec2IiEEiiPKNS0_7FactionERSt6vectorIPNS0_4UnitESaISB_EEb
megaglest:_ZNK5Glest4Game11UpgradeTask8saveGameEPN6Shared3Xml7XmlNodeE
megaglest:_ZNK5Glest4Game11UpgradeTask8toStringB5cxx11Ev
megaglest:_ZNK5Glest4Game11UpgradeType10getReqDescB5cxx11Eb
megaglest:_ZNK5Glest4Game11UpgradeType10getTagNameENSt7__cxx1112basic_stringIcSt11char_traitsIcESaIcEEEb
megaglest:_ZNK5Glest4Game11UpgradeType10isAffectedEPKNS0_8UnitTypeE
megaglest:_ZNK5Glest4Game11UpgradeType7getNameB5cxx11Eb
megaglest:_ZNK5Glest4Game12AiRuleRepair19getMinCastleHpRatioEv
megaglest:_ZNK5Glest4Game12DieSkillType8getSoundEv
megaglest:_ZNK5Glest4Game12DieSkillType8toStringB5cxx11Eb
megaglest:_ZNK5Glest4Game12GraphicLabel12getCenteredHEv
megaglest:_ZNK5Glest4Game12GraphicLabel12getCenteredWEv
megaglest:_ZNK5Glest4Game12ResourceType7getNameB5cxx11Eb
megaglest:_ZNK5Glest4Game12SurfaceAtlas12getCoordStepEv
megaglest:_ZNK5Glest4Game12TotalUpgrade12getMoveSpeedEPKNS0_13MoveSkillTypeE
megaglest:_ZNK5Glest4Game12TotalUpgrade12getProdSpeedEPKNS0_9SkillTypeE
megaglest:_ZNK5Glest4Game12TotalUpgrade14getAttackRangeEPKNS0_15AttackSkillTypeE
megaglest:_ZNK5Glest4Game12TotalUpgrade14getAttackSpeedEPKNS0_15AttackSkillTypeE
megaglest:_ZNK5Glest4Game12TotalUpgrade17getAttackStrengthEPKNS0_15AttackSkillTypeE
megaglest:_ZNK5Glest4Game12TotalUpgrade18getArmorFromBoostsEv
megaglest:_ZNK5Glest4Game12TotalUpgrade18getMaxEpFromBoostsEv
megaglest:_ZNK5Glest4Game12TotalUpgrade18getMaxHpFromBoostsEv
megaglest:_ZNK5Glest4Game12TotalUpgrade18getSightFromBoostsEv
megaglest:_ZNK5Glest4Game12TotalUpgrade20getMaxEpRegenerationEv
megaglest:_ZNK5Glest4Game12TotalUpgrade20getMaxHpRegenerationEv
megaglest:_ZNK5Glest4Game12TotalUpgrade22getMoveSpeedFromBoostsEPKNS0_13MoveSkillTypeE
megaglest:_ZNK5Glest4Game12TotalUpgrade22getProdSpeedFromBoostsEPKNS0_9SkillTypeE
megaglest:_ZNK5Glest4Game12TotalUpgrade24getAttackRangeFromBoostsEPKNS0_15AttackSkillTypeE
megaglest:_ZNK5Glest4Game12TotalUpgrade24getAttackSpeedFromBoostsEPKNS0_15AttackSkillTypeE
megaglest:_ZNK5Glest4Game12TotalUpgrade27getAttackStrengthFromBoostsEPKNS0_15AttackSkillTypeE
megaglest:_ZNK5Glest4Game12TotalUpgrade30getMaxEpRegenerationFromBoostsEv
megaglest:_ZNK5Glest4Game12TotalUpgrade30getMaxHpRegenerationFromBoostsEv
megaglest:_ZNK5Glest4Game12TotalUpgrade8getArmorEv
megaglest:_ZNK5Glest4Game12TotalUpgrade8getMaxEpEv
megaglest:_ZNK5Glest4Game12TotalUpgrade8getMaxHpEv
megaglest:_ZNK5Glest4Game12TotalUpgrade8getSightEv
megaglest:_ZNK5Glest4Game12TotalUpgrade8saveGameEPN6Shared3Xml7XmlNodeE
megaglest:_ZNK5Glest4Game13MenuStateRoot18isMasterserverModeEv
megaglest:_ZNK5Glest4Game13MoveSkillType13getTotalSpeedEPKNS0_12TotalUpgradeE
megaglest:_ZNK5Glest4Game13MoveSkillType8toStringB5cxx11Eb
megaglest:_ZNK5Glest4Game13ScriptManager10getGameWonEv
megaglest:_ZNK5Glest4Game13ScriptManager13getIsGameOverEv
megaglest:_ZNK5Glest4Game13SoundRenderer17isVolumeTurnedOffEv
megaglest:_ZNK5Glest4Game13SoundRenderer9wasInitOkEv
megaglest:_ZNK5Glest4Game13StopSkillType8toStringB5cxx11Eb
megaglest:_ZNK5Glest4Game13UnitPathBasic7isEmptyEv
megaglest:_ZNK5Glest4Game13UnitPathBasic7isStuckEv
megaglest:_ZNK5Glest4Game13UnitPathBasic8toStringB5cxx11Ev
megaglest:_ZNK5Glest4Game13UnitPathBasic9isBlockedEv
megaglest:_ZNK5Glest4Game13UnitReference7getUnitEv
megaglest:_ZNK5Glest4Game14BuildSkillType8toStringB5cxx11Eb
megaglest:_ZNK5Glest4Game14GraphicListBox7hasItemENSt7__cxx1112basic_stringIcSt11char_traitsIcESaIcEEE
megaglest:_ZNK5Glest4Game14MorphSkillType13getTotalSpeedEPKNS0_12TotalUpgradeE
megaglest:_ZNK5Glest4Game14MorphSkillType8toStringB5cxx11Eb
megaglest:_ZNK5Glest4Game14NetworkCommand8toStringB5cxx11Ev
megaglest:_ZNK5Glest4Game14ProducibleType10getReqDescB5cxx11Eb
megaglest:_ZNK5Glest4Game14ProducibleType10getReqDescB5cxx11Ebb
megaglest:_ZNK5Glest4Game14ProducibleType18getResourceReqDescB5cxx11Ebb
megaglest:_ZNK5Glest4Game14ProducibleType24getUnitAndUpgradeReqDescB5cxx11Ebb
megaglest:_ZNK5Glest4Game14ProducibleType7getCostEPKNS0_12ResourceTypeE
megaglest:_ZNK5Glest4Game14RequirableType10getReqDescB5cxx11Eb
megaglest:_ZNK5Glest4Game14SoundContainer12getRandSoundEv
megaglest:_ZNK5Glest4Game14UpgradeManager10isUpgradedEPKNS0_11UpgradeTypeE
megaglest:_ZNK5Glest4Game14UpgradeManager11isUpgradingEPKNS0_11UpgradeTypeE
megaglest:_ZNK5Glest4Game14UpgradeManager19computeTotalUpgradeEPKNS0_4UnitEPNS0_12TotalUpgradeE
megaglest:_ZNK5Glest4Game14UpgradeManager21isUpgradingOrUpgradedEPKNS0_11UpgradeTypeE
megaglest:_ZNK5Glest4Game14UpgradeManager8toStringB5cxx11Ev
megaglest:_ZNK5Glest4Game15AttackSkillType13getTotalSpeedEPKNS0_12TotalUpgradeE
megaglest:_ZNK5Glest4Game15AttackSkillType17getAnimSpeedBoostEPKNS0_12TotalUpgradeE
megaglest:_ZNK5Glest4Game15AttackSkillType19getTotalAttackRangeEPKNS0_12TotalUpgradeE
megaglest:_ZNK5Glest4Game15AttackSkillType22getTotalAttackStrengthEPKNS0_12TotalUpgradeE
megaglest:_ZNK5Glest4Game15AttackSkillType8toStringB5cxx11Eb
megaglest:_ZNK5Glest4Game15DisplayableType7getNameB5cxx11Eb
megaglest:_ZNK5Glest4Game15MoveCommandType6updateEPNS0_11UnitUpdaterEPNS0_4UnitEi
megaglest:_ZNK5Glest4Game15MoveCommandType7getDescB5cxx11EPKNS0_12TotalUpgradeEb
megaglest:_ZNK5Glest4Game15MoveCommandType8toStringB5cxx11Eb
megaglest:_ZNK5Glest4Game15RepairSkillType8toStringB5cxx11Eb
megaglest:_ZNK5Glest4Game15ServerInterface14DumpStatsToLogB5cxx11Eb
megaglest:_ZNK5Glest4Game15ServerInterface19getHumanPlayerIndexEv
megaglest:_ZNK5Glest4Game15StopCommandType6updateEPNS0_11UnitUpdaterEPNS0_4UnitEi
megaglest:_ZNK5Glest4Game15StopCommandType7getDescB5cxx11EPKNS0_12TotalUpgradeEb
megaglest:_ZNK5Glest4Game15StopCommandType8toStringB5cxx11Eb
megaglest:_ZNK5Glest4Game15UpgradeTypeBase12getMoveSpeedEPKNS0_13MoveSkillTypeE
megaglest:_ZNK5Glest4Game15UpgradeTypeBase12getProdSpeedEPKNS0_9SkillTypeE
megaglest:_ZNK5Glest4Game15UpgradeTypeBase13saveGameBoostEPN6Shared3Xml7XmlNodeE
megaglest:_ZNK5Glest4Game15UpgradeTypeBase14getAttackRangeEPKNS0_15AttackSkillTypeE
megaglest:_ZNK5Glest4Game15UpgradeTypeBase14getAttackSpeedEPKNS0_15AttackSkillTypeE
megaglest:_ZNK5Glest4Game15UpgradeTypeBase17getAttackStrengthEPKNS0_15AttackSkillTypeE
megaglest:_ZNK5Glest4Game15UpgradeTypeBase7getDescB5cxx11Eb
megaglest:_ZNK5Glest4Game15UpgradeTypeBase8saveGameEPN6Shared3Xml7XmlNodeE
megaglest:_ZNK5Glest4Game16BeBuiltSkillType8toStringB5cxx11Eb
megaglest:_ZNK5Glest4Game16BuildCommandType6updateEPNS0_11UnitUpdaterEPNS0_4UnitEi
megaglest:_ZNK5Glest4Game16BuildCommandType7getDescB5cxx11EPKNS0_12TotalUpgradeEb
megaglest:_ZNK5Glest4Game16BuildCommandType8toStringB5cxx11Eb
megaglest:_ZNK5Glest4Game16GraphicScrollBar12getThicknessEv
megaglest:_ZNK5Glest4Game16GraphicScrollBar9getLengthEv
megaglest:_ZNK5Glest4Game16HarvestSkillType8toStringB5cxx11Eb
megaglest:_ZNK5Glest4Game16MorphCommandType10getReqDescB5cxx11Eb
megaglest:_ZNK5Glest4Game16MorphCommandType11getProducedEv
megaglest:_ZNK5Glest4Game16MorphCommandType6updateEPNS0_11UnitUpdaterEPNS0_4UnitEi
megaglest:_ZNK5Glest4Game16MorphCommandType7getDescB5cxx11EPKNS0_12TotalUpgradeEb
megaglest:_ZNK5Glest4Game16MorphCommandType8toStringB5cxx11Eb
megaglest:_ZNK5Glest4Game16ProduceSkillType13getTotalSpeedEPKNS0_12TotalUpgradeE
megaglest:_ZNK5Glest4Game16ProduceSkillType8toStringB5cxx11Eb
megaglest:_ZNK5Glest4Game16UpgradeSkillType13getTotalSpeedEPKNS0_12TotalUpgradeE
megaglest:_ZNK5Glest4Game16UpgradeSkillType8toStringB5cxx11Eb
megaglest:_ZNK5Glest4Game17AttackCommandType6updateEPNS0_11UnitUpdaterEPNS0_4UnitEi
megaglest:_ZNK5Glest4Game17AttackCommandType7getDescB5cxx11EPKNS0_12TotalUpgradeEb
megaglest:_ZNK5Glest4Game17AttackCommandType8toStringB5cxx11Eb
megaglest:_ZNK5Glest4Game17FogOfWarSkillType8toStringB5cxx11Eb
megaglest:_ZNK5Glest4Game17RepairCommandType20isRepairableUnitTypeEPKNS0_8UnitTypeE
megaglest:_ZNK5Glest4Game17RepairCommandType6updateEPNS0_11UnitUpdaterEPNS0_4UnitEi
megaglest:_ZNK5Glest4Game17RepairCommandType7getDescB5cxx11EPKNS0_12TotalUpgradeEb
megaglest:_ZNK5Glest4Game17RepairCommandType8toStringB5cxx11Eb
megaglest:_ZNK5Glest4Game18HarvestCommandType10canHarvestEPKNS0_12ResourceTypeE
megaglest:_ZNK5Glest4Game18HarvestCommandType6updateEPNS0_11UnitUpdaterEPNS0_4UnitEi
megaglest:_ZNK5Glest4Game18HarvestCommandType7getDescB5cxx11EPKNS0_12TotalUpgradeEb
megaglest:_ZNK5Glest4Game18HarvestCommandType8toStringB5cxx11Eb
megaglest:_ZNK5Glest4Game18NetworkMessagePing22getPackedMessageFormatEv
megaglest:_ZNK5Glest4Game18NetworkMessageQuit22getPackedMessageFormatEv
megaglest:_ZNK5Glest4Game18NetworkMessageText22getPackedMessageFormatEv
megaglest:_ZNK5Glest4Game18NetworkMessageText7getCopyEv
megaglest:_ZNK5Glest4Game18PlayerIndexMessage22getPackedMessageFormatEv
megaglest:_ZNK5Glest4Game18ProduceCommandType10getReqDescB5cxx11Eb
megaglest:_ZNK5Glest4Game18ProduceCommandType11getProducedEv
megaglest:_ZNK5Glest4Game18ProduceCommandType6updateEPNS0_11UnitUpdaterEPNS0_4UnitEi
megaglest:_ZNK5Glest4Game18ProduceCommandType7getDescB5cxx11EPKNS0_12TotalUpgradeEb
megaglest:_ZNK5Glest4Game18ProduceCommandType8toStringB5cxx11Eb
megaglest:_ZNK5Glest4Game18SwitchSetupRequest22getPackedMessageFormatEv
megaglest:_ZNK5Glest4Game18UpgradeCommandType10getReqDescB5cxx11Eb
megaglest:_ZNK5Glest4Game18UpgradeCommandType11getProducedEv
megaglest:_ZNK5Glest4Game18UpgradeCommandType6updateEPNS0_11UnitUpdaterEPNS0_4UnitEi
megaglest:_ZNK5Glest4Game18UpgradeCommandType7getDescB5cxx11EPKNS0_12TotalUpgradeEb
megaglest:_ZNK5Glest4Game18UpgradeCommandType8toStringB5cxx11Eb
megaglest:_ZNK5Glest4Game19MenuStateCustomGame18isMasterserverModeEv
megaglest:_ZNK5Glest4Game19NetworkMessageIntro22getPackedMessageFormatEv
megaglest:_ZNK5Glest4Game19NetworkMessageIntro8toStringB5cxx11Ev
megaglest:_ZNK5Glest4Game19NetworkMessageReady22getPackedMessageFormatEv
megaglest:_ZNK5Glest4Game20NetworkMessageLaunch17buildGameSettingsEPNS0_12GameSettingsE
megaglest:_ZNK5Glest4Game20NetworkMessageLaunch17getFactionCRCListB5cxx11Ev
megaglest:_ZNK5Glest4Game20NetworkMessageLaunch22getPackedMessageFormatEv
megaglest:_ZNK5Glest4Game21DamageMultiplierTable19getDamageMultiplierEPKNS0_10AttackTypeEPKNS0_9ArmorTypeE
megaglest:_ZNK5Glest4Game21SwitchTeamCommandType6updateEPNS0_11UnitUpdaterEPNS0_4UnitEi
megaglest:_ZNK5Glest4Game21SwitchTeamCommandType7getDescB5cxx11EPKNS0_12TotalUpgradeEb
megaglest:_ZNK5Glest4Game21SwitchTeamCommandType8toStringB5cxx11Eb
megaglest:_ZNK5Glest4Game22NetworkMessageMarkCell22getPackedMessageFormatEv
megaglest:_ZNK5Glest4Game22NetworkMessageMarkCell7getCopyEv
megaglest:_ZNK5Glest4Game24AttackStoppedCommandType6updateEPNS0_11UnitUpdaterEPNS0_4UnitEi
megaglest:_ZNK5Glest4Game24AttackStoppedCommandType7getDescB5cxx11EPKNS0_12TotalUpgradeEb
megaglest:_ZNK5Glest4Game24AttackStoppedCommandType8toStringB5cxx11Eb
megaglest:_ZNK5Glest4Game24NetworkMessageUnMarkCell22getPackedMessageFormatEv
megaglest:_ZNK5Glest4Game24NetworkMessageUnMarkCell7getCopyEv
megaglest:_ZNK5Glest4Game25NetworkMessageCommandList28getPackedMessageFormatDetailEv
megaglest:_ZNK5Glest4Game25NetworkMessageCommandList28getPackedMessageFormatHeaderEv
megaglest:_ZNK5Glest4Game27NetworkMessageHighlightCell22getPackedMessageFormatEv
megaglest:_ZNK5Glest4Game27NetworkMessageLoadingStatus22getPackedMessageFormatEv
megaglest:_ZNK5Glest4Game2Ai26outputAIBehaviourToConsoleEv
megaglest:_ZNK5Glest4Game2Ai7getTaskEv
megaglest:_ZNK5Glest4Game2Ai8saveGameEPN6Shared3Xml7XmlNodeE
megaglest:_ZNK5Glest4Game33HarvestEmergencyReturnCommandType6updateEPNS0_11UnitUpdaterEPNS0_4UnitEi
megaglest:_ZNK5Glest4Game33HarvestEmergencyReturnCommandType7getDescB5cxx11EPKNS0_12TotalUpgradeEb
megaglest:_ZNK5Glest4Game33HarvestEmergencyReturnCommandType8toStringB5cxx11Eb
megaglest:_ZNK5Glest4Game34NetworkMessageSynchNetworkGameData28getPackedMessageFormatHeaderEv
megaglest:_ZNK5Glest4Game3Gui11getBuildingEv
megaglest:_ZNK5Glest4Game3Gui17isPlacingBuildingEv
megaglest:_ZNK5Glest4Game3Gui18getHighlightedUnitEv
megaglest:_ZNK5Glest4Game3Gui25getSelectedResourceObjectEv
megaglest:_ZNK5Glest4Game3Gui28getHighlightedResourceObjectEv
megaglest:_ZNK5Glest4Game3Gui8saveGameEPN6Shared3Xml7XmlNodeE
megaglest:_ZNK5Glest4Game3Map10isFreeCellERKN6Shared8Graphics4Vec2IiEENS0_5FieldE
megaglest:_ZNK5Glest4Game3Map11isFreeCellsERKN6Shared8Graphics4Vec2IiEEiNS0_5FieldE
megaglest:_ZNK5Glest4Game3Map12aproxCanMoveEPKNS0_4UnitERKN6Shared8Graphics4Vec2IiEESA_PSt3mapIS8_SB_IS8_SB_IiSB_IiSB_INS0_5FieldEbSt4lessISC_ESaISt4pairIKSC_bEEESD_IiESaISF_IKiSJ_EEESK_SaISF_ISL_SO_EEESD_IS8_ESaISF_IS9_SR_EEESS_SaISF_IS9_SV_EEE
megaglest:_ZNK5Glest4Game3Map13computeRefPosEPKNS0_9SelectionE
megaglest:_ZNK5Glest4Game3Map14computeDestPosERKN6Shared8Graphics4Vec2IiEES7_S7_
megaglest:_ZNK5Glest4Game3Map14isResourceNearEiRKN6Shared8Graphics4Vec2IiEEPKNS0_12ResourceTypeERS5_iPNS0_4UnitEbPS5_
megaglest:_ZNK5Glest4Game3Map15isAproxFreeCellERKN6Shared8Graphics4Vec2IiEENS0_5FieldEi
megaglest:_ZNK5Glest4Game3Map16getStartLocationEi
megaglest:_ZNK5Glest4Game3Map16isAproxFreeCellsERKN6Shared8Graphics4Vec2IiEEiNS0_5FieldEi
megaglest:_ZNK5Glest4Game3Map17isInUnitTypeCellsEPKNS0_8UnitTypeERKN6Shared8Graphics4Vec2IiEESA_
megaglest:_ZNK5Glest4Game3Map19isFreeCellOrHasUnitERKN6Shared8Graphics4Vec2IiEENS0_5FieldEPKNS0_4UnitE
megaglest:_ZNK5Glest4Game3Map20findClosestUnitToPosEPKNS0_9SelectionEN6Shared8Graphics4Vec2IiEEPKNS0_8UnitTypeE
megaglest:_ZNK5Glest4Game3Map20isFreeCellsOrHasUnitERKN6Shared8Graphics4Vec2IiEEiNS0_5FieldEPKNS0_4UnitE
megaglest:_ZNK5Glest4Game3Map21findBestBuildApproachEPKNS0_4UnitEN6Shared8Graphics4Vec2IiEEPKNS0_8UnitTypeE
megaglest:_ZNK5Glest4Game3Map21isNextToUnitTypeCellsEPKNS0_8UnitTypeERKN6Shared8Graphics4Vec2IiEESA_
megaglest:_ZNK5Glest4Game3Map7canMoveEPKNS0_4UnitERKN6Shared8Graphics4Vec2IiEESA_PSt3mapIS8_SB_IS8_SB_IiSB_INS0_5FieldEbSt4lessISC_ESaISt4pairIKSC_bEEESD_IiESaISF_IKiSJ_EEESD_IS8_ESaISF_IS9_SO_EEESP_SaISF_IS9_SS_EEE
megaglest:_ZNK5Glest4Game3Map8canMorphERKN6Shared8Graphics4Vec2IiEEPKNS0_4UnitEPKNS0_8UnitTypeE
megaglest:_ZNK5Glest4Game3Map8clampPosERN6Shared8Graphics4Vec2IiEE
megaglest:_ZNK5Glest4Game3Map8isNextToEPKNS0_4UnitES4_
megaglest:_ZNK5Glest4Game3Map8isNextToERKN6Shared8Graphics4Vec2IiEEPKNS0_4UnitE
megaglest:_ZNK5Glest4Game3Map8isNextToERKN6Shared8Graphics4Vec2IiEES7_
megaglest:_ZNK5Glest4Game3Map8saveGameEPN6Shared3Xml7XmlNodeE
megaglest:_ZNK5Glest4Game41NetworkMessageSynchNetworkGameDataFileGet22getPackedMessageFormatEv
megaglest:_ZNK5Glest4Game46NetworkMessageSynchNetworkGameDataFileCRCCheck22getPackedMessageFormatEv
megaglest:_ZNK5Glest4Game4Cell8saveGameEPN6Shared3Xml7XmlNodeEi
megaglest:_ZNK5Glest4Game4Game19isValidMouseCellPosEv
megaglest:_ZNK5Glest4Game4Game21isFlagType1BitEnabledENS0_10FlagTypes1E
megaglest:_ZNK5Glest4Game4Game22showTranslatedTechTreeEv
megaglest:_ZNK5Glest4Game4Game24getGamePerformanceCountsB5cxx11Eb
megaglest:_ZNK5Glest4Game4Lang14isUTF8LanguageEv
megaglest:_ZNK5Glest4Game4Lang15isLanguageLocalENSt7__cxx1112basic_stringIcSt11char_traitsIcESaIcEEE
megaglest:_ZNK5Glest4Game4Lang18getDefaultLanguageB5cxx11Ev
megaglest:_ZNK5Glest4Game4Unit10anyCommandEb
megaglest:_ZNK5Glest4Game4Unit10getCellPosEv
megaglest:_ZNK5Glest4Game4Unit10getEpRatioEv
megaglest:_ZNK5Glest4Game4Unit10getHpRatioEv
megaglest:_ZNK5Glest4Game4Unit11getFullNameB5cxx11Eb
megaglest:_ZNK5Glest4Game4Unit11isOperativeEv
megaglest:_ZNK5Glest4Game4Unit12checkCommandB5cxx11EPNS0_7CommandE
megaglest:_ZNK5Glest4Game4Unit12getNextLevelEv
megaglest:_ZNK5Glest4Game4Unit12getRotationXEv
megaglest:_ZNK5Glest4Game4Unit12getRotationZEv
megaglest:_ZNK5Glest4Game4Unit12isBeingBuiltEv
megaglest:_ZNK5Glest4Game4Unit13computeHeightERKN6Shared8Graphics4Vec2IiEE
megaglest:_ZNK5Glest4Game4Unit13getFrameCountEv
megaglest:_ZNK5Glest4Game4Unit13getVectorFlatERKN6Shared8Graphics4Vec2IiEES7_
megaglest:_ZNK5Glest4Game4Unit13isInterestingENS0_19InterestingUnitTypeE
megaglest:_ZNK5Glest4Game4Unit14getCenteredPosEv
megaglest:_ZNK5Glest4Game4Unit14getCommandSizeEv
megaglest:_ZNK5Glest4Game4Unit15getParticleInfoB5cxx11Ev
megaglest:_ZNK5Glest4Game4Unit16getDescExtensionB5cxx11Eb
megaglest:_ZNK5Glest4Game4Unit16getProgressRatioEv
megaglest:_ZNK5Glest4Game4Unit17getCurrBurnVectorEv
megaglest:_ZNK5Glest4Game4Unit17getCurrVectorFlatEv
megaglest:_ZNK5Glest4Game4Unit17getFogOfWarRadiusEb
megaglest:_ZNK5Glest4Game4Unit17getUniquePickNameB5cxx11Ev
megaglest:_ZNK5Glest4Game4Unit18computeCommandTypeERKN6Shared8Graphics4Vec2IiEEPKS1_
megaglest:_ZNK5Glest4Game4Unit18getProgressAsFloatEv
megaglest:_ZNK5Glest4Game4Unit19getFloatCenteredPosEv
megaglest:_ZNK5Glest4Game4Unit19isAnimProgressBoundEv
megaglest:_ZNK5Glest4Game4Unit20getPosWithCellMapSetEv
megaglest:_ZNK5Glest4Game4Unit20getProductionPercentEv
megaglest:_ZNK5Glest4Game4Unit21getCurrVectorAsTargetEv
megaglest:_ZNK5Glest4Game4Unit21isBuildCommandPendingEv
megaglest:_ZNK5Glest4Game4Unit22getCurrMidHeightVectorEv
megaglest:_ZNK5Glest4Game4Unit22getNetworkCRCDecHpListB5cxx11Ev
megaglest:_ZNK5Glest4Game4Unit22isMeetingPointSettableEv
megaglest:_ZNK5Glest4Game4Unit22showTranslatedTechTreeEv
megaglest:_ZNK5Glest4Game4Unit23getCountOfProducedUnitsEPKNS0_8UnitTypeE
megaglest:_ZNK5Glest4Game4Unit26getBuildCommandPendingInfoEv
megaglest:_ZNK5Glest4Game4Unit31getCurrVectorForParticlesystemsEv
megaglest:_ZNK5Glest4Game4Unit52isLastPathfindFailedFrameWithinCurrentFrameToleranceEv
megaglest:_ZNK5Glest4Game4Unit6isAllyEPKS1_
megaglest:_ZNK5Glest4Game4Unit7getDescB5cxx11Eb
megaglest:_ZNK5Glest4Game4Unit7getFireEv
megaglest:_ZNK5Glest4Game4Unit7isBuiltEv
megaglest:_ZNK5Glest4Game4Unit8toStringB5cxx11Eb
megaglest:_ZNK5Glest4Game4Unit9isDamagedEv
megaglest:_ZNK5Glest4Game5Level7getNameB5cxx11Eb
megaglest:_ZNK5Glest4Game5Level8saveGameEPN6Shared3Xml7XmlNodeE
megaglest:_ZNK5Glest4Game5Stats8getStatsB5cxx11Ev
megaglest:_ZNK5Glest4Game5World12canTickWorldEv
megaglest:_ZNK5Glest4Game5World12findUnitByIdEi
megaglest:_ZNK5Glest4Game5World12toRenderUnitEPKNS0_4UnitE
megaglest:_ZNK5Glest4Game5World12toRenderUnitEPKNS0_4UnitERKN6Shared8Graphics5Quad2IiEE
megaglest:_ZNK5Glest4Game5World12toRenderUnitERKNS0_13UnitBuildInfoE
megaglest:_ZNK5Glest4Game5World14DumpWorldToLogB5cxx11Eb
megaglest:_ZNK5Glest4Game5World15getGameSettingsEv
megaglest:_ZNK5Glest4Game5World18showWorldForPlayerEib
megaglest:_ZNK5Glest4Game5World21getStoreAmountForTeamEPKNS0_12ResourceTypeEi
megaglest:_ZNK5Glest4Game5World23showResourceTypeForTeamEPKNS0_12ResourceTypeEi
megaglest:_ZNK5Glest4Game5World26showResourceTypeForFactionEPKNS0_12ResourceTypeEPKNS0_7FactionE
megaglest:_ZNK5Glest4Game6Config11getFileNameB5cxx11Eb
megaglest:_ZNK5Glest4Game6Config17getUserPropertiesB5cxx11Ev
megaglest:_ZNK5Glest4Game6Config19getMasterPropertiesB5cxx11Ev
megaglest:_ZNK5Glest4Game6Config19getMergedPropertiesB5cxx11Ev
megaglest:_ZNK5Glest4Game6Config23translateStringToSDLKeyERKNSt7__cxx1112basic_stringIcSt11char_traitsIcESaIcEEE
megaglest:_ZNK5Glest4Game6Config26getPropertiesFromContainerB5cxx11ERKN6Shared4Util10PropertiesE
megaglest:_ZNK5Glest4Game6Config6getIntEPKcS3_
megaglest:_ZNK5Glest4Game6Config6getIntERKNSt7__cxx1112basic_stringIcSt11char_traitsIcESaIcEEEPKc
megaglest:_ZNK5Glest4Game6Config7getBoolEPKcS3_
megaglest:_ZNK5Glest4Game6Config7getBoolERKNSt7__cxx1112basic_stringIcSt11char_traitsIcESaIcEEEPKc
megaglest:_ZNK5Glest4Game6Config8getFloatEPKcS3_
megaglest:_ZNK5Glest4Game6Config8getFloatERKNSt7__cxx1112basic_stringIcSt11char_traitsIcESaIcEEEPKc
megaglest:_ZNK5Glest4Game6Config9getSDLKeyEPKc
megaglest:_ZNK5Glest4Game6Config9getStringB5cxx11EPKcS3_
megaglest:_ZNK5Glest4Game6Config9getStringERKNSt7__cxx1112basic_stringIcSt11char_traitsIcESaIcEEEPKc
megaglest:_ZNK5Glest4Game6Object11getModelPtrEv
megaglest:_ZNK5Glest4Game6Object11getWalkableEv
megaglest:_ZNK5Glest4Game6Object17getUniquePickNameB5cxx11Ev
megaglest:_ZNK5Glest4Game6Object8getModelEv
megaglest:_ZNK5Glest4Game7Command8toStringB5cxx11Eb
megaglest:_ZNK5Glest4Game7Console11getLineItemEi
megaglest:_ZNK5Glest4Game7Console13getStoredLineB5cxx11Ei
megaglest:_ZNK5Glest4Game7Console17getStoredLineItemEi
megaglest:_ZNK5Glest4Game7Console7getLineB5cxx11Ei
megaglest:_ZNK5Glest4Game7Display10computeUpXEi
megaglest:_ZNK5Glest4Game7Display10computeUpYEi
megaglest:_ZNK5Glest4Game7Display12computeDownXEi
megaglest:_ZNK5Glest4Game7Display12computeDownYEi
megaglest:_ZNK5Glest4Game7Display16computeDownIndexEii
megaglest:_ZNK5Glest4Game7Display8getColorEv
megaglest:_ZNK5Glest4Game7Display8saveGameEPN6Shared3Xml7XmlNodeE
megaglest:_ZNK5Glest4Game7Faction11getResourceEPKNS0_12ResourceTypeEb
megaglest:_ZNK5Glest4Game7Faction13canCreateUnitEPKNS0_8UnitTypeEbbb
megaglest:_ZNK5Glest4Game7Faction13getCpuControlEbbNS0_11NetworkRoleE
megaglest:_ZNK5Glest4Game7Faction13getCpuControlEv
megaglest:_ZNK5Glest4Game7Faction13hasAliveUnitsEbb
megaglest:_ZNK5Glest4Game7Faction14getStoreAmountEPKNS0_12ResourceTypeEb
megaglest:_ZNK5Glest4Game7Faction18getPersonalityTypeEv
megaglest:_ZNK5Glest4Game7Faction22getFirstSwitchTeamVoteEv
megaglest:_ZNK5Glest4Game7Faction23getCountForMaxUnitCountEPKNS0_8UnitTypeE
megaglest:_ZNK5Glest4Game7Faction28getCRC_DetailsForWorldFramesB5cxx11Ev
megaglest:_ZNK5Glest4Game7Faction31getAIBehaviorStaticOverideValueENS0_29AIBehaviorStaticValueCategoryE
megaglest:_ZNK5Glest4Game7Faction32getCRC_DetailsForWorldFrameCountEv
megaglest:_ZNK5Glest4Game7Faction32getCRC_DetailsForWorldFrameIndexB5cxx11Ei
megaglest:_ZNK5Glest4Game7Faction34hasUnitTypeWithResourceCostInCacheEPKNS0_12ResourceTypeE
megaglest:_ZNK5Glest4Game7Faction6reqsOkEPKNS0_11CommandTypeE
megaglest:_ZNK5Glest4Game7Faction6reqsOkEPKNS0_14RequirableTypeE
megaglest:_ZNK5Glest4Game7Faction8findUnitEi
megaglest:_ZNK5Glest4Game7Faction8toStringB5cxx11Eb
megaglest:_ZNK5Glest4Game7Metrics10toVirtualXEi
megaglest:_ZNK5Glest4Game7Metrics10toVirtualYEi
megaglest:_ZNK5Glest4Game7Metrics11isInDisplayEii
megaglest:_ZNK5Glest4Game7Metrics11isInMinimapEii
megaglest:_ZNK5Glest4Game7Metrics14getAspectRatioEv
megaglest:_ZNK5Glest4Game7Tileset13getSurfPixmapEii
megaglest:_ZNK5Glest4Game7Upgrade15getFactionIndexEv
megaglest:_ZNK5Glest4Game7Upgrade7getTypeEv
megaglest:_ZNK5Glest4Game7Upgrade8getStateEv
megaglest:_ZNK5Glest4Game7Upgrade8toStringB5cxx11Ev
megaglest:_ZNK5Glest4Game8CoreData21hasIntroVideoFilenameEv
megaglest:_ZNK5Glest4Game8CoreData24hasMainMenuVideoFilenameEv
megaglest:_ZNK5Glest4Game8CoreData25hasBattleEndVideoFilenameEb
megaglest:_ZNK5Glest4Game8Renderer24getCurrentPixelByteCountEN6Shared8Graphics13ResourceScopeE
megaglest:_ZNK5Glest4Game8Renderer33validateParticleSystemStillExistsEPN6Shared8Graphics14ParticleSystemENS3_13ResourceScopeE
megaglest:_ZNK5Glest4Game8Resource10getBalanceEv
megaglest:_ZNK5Glest4Game8Resource14getDescriptionB5cxx11Eb
megaglest:_ZNK5Glest4Game8Resource8saveGameEPN6Shared3Xml7XmlNodeE
megaglest:_ZNK5Glest4Game8Resource8toStringB5cxx11Ev
megaglest:_ZNK5Glest4Game8Resource9getAmountEv
megaglest:_ZNK5Glest4Game8TechTree12getArmorTypeERKNSt7__cxx1112basic_stringIcSt11char_traitsIcESaIcEEE
megaglest:_ZNK5Glest4Game8TechTree13getAttackTypeERKNSt7__cxx1112basic_stringIcSt11char_traitsIcESaIcEEE
megaglest:_ZNK5Glest4Game8TechTree15getResourceTypeERKNSt7__cxx1112basic_stringIcSt11char_traitsIcESaIcEEE
megaglest:_ZNK5Glest4Game8TechTree19getDamageMultiplierEPKNS0_10AttackTypeEPKNS0_9ArmorTypeE
megaglest:_ZNK5Glest4Game8TechTree19getNameUntranslatedB5cxx11Ev
megaglest:_ZNK5Glest4Game8TechTree19getTechResourceTypeEi
megaglest:_ZNK5Glest4Game8TechTree24getFirstTechResourceTypeEv
megaglest:_ZNK5Glest4Game8TechTree7getTypeERKNSt7__cxx1112basic_stringIcSt11char_traitsIcESaIcEEE
megaglest:_ZNK5Glest4Game8TechTree8findPathERKNSt7__cxx1112basic_stringIcSt11char_traitsIcESaIcEEE
megaglest:_ZNK5Glest4Game8TimeFlow17computeLightColorEv
megaglest:_ZNK5Glest4Game8UnitPath8toStringB5cxx11Ev
megaglest:_ZNK5Glest4Game8UnitType10getReqDescB5cxx11Eb
megaglest:_ZNK5Glest4Game8UnitType12getSkillTypeERKNSt7__cxx1112basic_stringIcSt11char_traitsIcESaIcEEENS0_10SkillClassE
megaglest:_ZNK5Glest4Game8UnitType12hasSkillTypeEPKNS0_9SkillTypeE
megaglest:_ZNK5Glest4Game8UnitType13getTotalArmorEPKNS0_12TotalUpgradeE
megaglest:_ZNK5Glest4Game8UnitType13getTotalMaxEpEPKNS0_12TotalUpgradeE
megaglest:_ZNK5Glest4Game8UnitType13getTotalMaxHpEPKNS0_12TotalUpgradeE
megaglest:_ZNK5Glest4Game8UnitType13getTotalSightEPKNS0_12TotalUpgradeE
megaglest:_ZNK5Glest4Game8UnitType13hasSkillClassENS0_10SkillClassE
megaglest:_ZNK5Glest4Game8UnitType14getCellMapCellEiiNS0_11CardinalDirE
megaglest:_ZNK5Glest4Game8UnitType14getCommandTypeEi
megaglest:_ZNK5Glest4Game8UnitType14hasCommandTypeEPKNS0_11CommandTypeE
megaglest:_ZNK5Glest4Game8UnitType15hasEmptyCellMapEv
megaglest:_ZNK5Glest4Game8UnitType17getFirstCtOfClassENS0_12CommandClassE
megaglest:_ZNK5Glest4Game8UnitType17getFirstStOfClassENS0_10SkillClassE
megaglest:_ZNK5Glest4Game8UnitType19findCommandTypeByIdEi
megaglest:_ZNK5Glest4Game8UnitType21getFirstAttackCommandENS0_5FieldE
megaglest:_ZNK5Glest4Game8UnitType21getFirstRepairCommandEPKS1_
megaglest:_ZNK5Glest4Game8UnitType22getCommandTypeListDescB5cxx11Ev
megaglest:_ZNK5Glest4Game8UnitType22getFirstHarvestCommandEPKNS0_12ResourceTypeEPKNS0_7FactionE
megaglest:_ZNK5Glest4Game8UnitType25getTotalMaxEpRegenerationEPKNS0_12TotalUpgradeE
megaglest:_ZNK5Glest4Game8UnitType25getTotalMaxHpRegenerationEPKNS0_12TotalUpgradeE
megaglest:_ZNK5Glest4Game8UnitType28getFirstAttackStoppedCommandENS0_5FieldE
megaglest:_ZNK5Glest4Game8UnitType29getFirstOccupiedCellInCellMapEN6Shared8Graphics4Vec2IiEE
megaglest:_ZNK5Glest4Game8UnitType37getFirstHarvestEmergencyReturnCommandEv
megaglest:_ZNK5Glest4Game8UnitType7getNameB5cxx11Eb
megaglest:_ZNK5Glest4Game8UnitType8getLevelENSt7__cxx1112basic_stringIcSt11char_traitsIcESaIcEEE
megaglest:_ZNK5Glest4Game8UnitType8getStoreEPKNS0_12ResourceTypeE
megaglest:_ZNK5Glest4Game8UnitType8toStringB5cxx11Ev
megaglest:_ZNK5Glest4Game8UnitType9isOfClassENS0_9UnitClassE
megaglest:_ZNK5Glest4Game9ArmorType7getNameB5cxx11Eb
megaglest:_ZNK5Glest4Game9BuildTask8saveGameEPN6Shared3Xml7XmlNodeE
megaglest:_ZNK5Glest4Game9BuildTask8toStringB5cxx11Ev
megaglest:_ZNK5Glest4Game9Commander12buildCommandEPKNS0_14NetworkCommandE
megaglest:_ZNK5Glest4Game9Commander12tryPauseGameEbb
megaglest:_ZNK5Glest4Game9Commander13computeResultERKSt6vectorISt4pairINS0_13CommandResultENSt7__cxx1112basic_stringIcSt11char_traitsIcESaIcEEEESaISB_EE
megaglest:_ZNK5Glest4Game9Commander13tryResumeGameEbb
megaglest:_ZNK5Glest4Game9Commander13trySwitchTeamEPKNS0_7FactionEi
megaglest:_ZNK5Glest4Game9Commander14tryGiveCommandB5cxx11EPKNS0_4UnitEPKNS0_11CommandTypeERKN6Shared8Graphics4Vec2IiEEPKNS0_8UnitTypeENS0_11CardinalDirEbPS2_i
megaglest:_ZNK5Glest4Game9Commander14tryGiveCommandB5cxx11EPKNS0_9SelectionENS0_12CommandClassERKN6Shared8Graphics4Vec2IiEEPKNS0_4UnitEb
megaglest:_ZNK5Glest4Game9Commander14tryGiveCommandB5cxx11EPKNS0_9SelectionEPKNS0_11CommandTypeERKN6Shared8Graphics4Vec2IiEEPKNS0_4UnitEb
megaglest:_ZNK5Glest4Game9Commander14tryGiveCommandB5cxx11EPKNS0_9SelectionEPKNS0_11CommandTypeERKN6Shared8Graphics4Vec2IiEEPKNS0_8UnitTypeENS0_11CardinalDirEbPNS0_4UnitE
megaglest:_ZNK5Glest4Game9Commander14tryGiveCommandB5cxx11EPKNS0_9SelectionERKN6Shared8Graphics4Vec2IiEEPKNS0_4UnitEbi
megaglest:_ZNK5Glest4Game9Commander16tryCancelCommandEPKNS0_9SelectionE
megaglest:_ZNK5Glest4Game9Commander17trySwitchTeamVoteEPKNS0_7FactionEPNS0_14SwitchTeamVoteE
megaglest:_ZNK5Glest4Game9Commander18giveNetworkCommandEPNS0_14NetworkCommandE
megaglest:_ZNK5Glest4Game9Commander18pushNetworkCommandB5cxx11EPKNS0_14NetworkCommandE
megaglest:_ZNK5Glest4Game9Commander18trySetMeetingPointEPKNS0_4UnitERKN6Shared8Graphics4Vec2IiEE
megaglest:_ZNK5Glest4Game9Commander20canSubmitCommandTypeEPKNS0_4UnitEPKNS0_11CommandTypeE
megaglest:_ZNK5Glest4Game9Commander26tryDisconnectNetworkPlayerEPKNS0_7FactionEi
megaglest:_ZNK5Glest4Game9Commander28hasReplayCommandListForFrameEv
megaglest:_ZNK5Glest4Game9Commander28tryNetworkPlayerDisconnectedEi
megaglest:_ZNK5Glest4Game9Commander33getReplayCommandListForFrameCountEv
megaglest:_ZNK5Glest4Game9Selection10isMeetableEv
megaglest:_ZNK5Glest4Game9Selection10isObserverEv
megaglest:_ZNK5Glest4Game9Selection12isCancelableEv
megaglest:_ZNK5Glest4Game9Selection13isCommandableEv
megaglest:_ZNK5Glest4Game9Selection25canSelectUnitFactionCheckEPKNS0_4UnitE
megaglest:_ZNK5Glest4Game9Selection7hasUnitEPKNS0_4UnitE
megaglest:_ZNK5Glest4Game9Selection7isEnemyEv
megaglest:_ZNK5Glest4Game9Selection8saveGameEPN6Shared3Xml7XmlNodeE
megaglest:_ZNK5Glest4Game9Selection9getRefPosEv
megaglest:_ZNK5Glest4Game9Selection9isUniformEv
megaglest:_ZNK5Glest4Game9SkillType12getAnimationEfPKNS0_4UnitEPiS5_
megaglest:_ZNK5Glest4Game9SkillType21getAnimationAttributeEi
megaglest:_ZNK5Glest4Game9SkillType27CanCycleNextRandomAnimationEPKi
megaglest:_ZNK6Shared14PlatformCommon17ValueCheckerVault16checkItemInVaultEPKvi
megaglest:_ZNK6Shared14PlatformCommon6Chrono9isStartedEv
megaglest:_ZNK6Shared14PlatformCommon8ModeInfo9getStringB5cxx11Ev
megaglest:_ZNK6Shared3Lua12LuaArguments12getStackTextB5cxx11Ev
megaglest:_ZNK6Shared3Lua12LuaArguments13throwLuaErrorERKNSt7__cxx1112basic_stringIcSt11char_traitsIcESaIcEEE
megaglest:_ZNK6Shared3Lua12LuaArguments14getGenericDataEi
megaglest:_ZNK6Shared3Lua12LuaArguments6getIntEi
megaglest:_ZNK6Shared3Lua12LuaArguments8getFloatEi
megaglest:_ZNK6Shared3Lua12LuaArguments8getVec2fEi
megaglest:_ZNK6Shared3Lua12LuaArguments8getVec2iEi
megaglest:_ZNK6Shared3Lua12LuaArguments8getVec3fEi
megaglest:_ZNK6Shared3Lua12LuaArguments8getVec4fEi
megaglest:_ZNK6Shared3Lua12LuaArguments8getVec4iEi
megaglest:_ZNK6Shared3Lua12LuaArguments9getStringB5cxx11Ei
megaglest:_ZNK6Shared3Map10MapPreview10getSurfaceEii
megaglest:_ZNK6Shared3Map10MapPreview11getResourceEii
megaglest:_ZNK6Shared3Map10MapPreview17getStartLocationXEi
megaglest:_ZNK6Shared3Map10MapPreview17getStartLocationYEi
megaglest:_ZNK6Shared3Map10MapPreview9getHeightEii
megaglest:_ZNK6Shared3Map10MapPreview9getObjectEii
megaglest:_ZNK6Shared3Xml12XmlAttribute11getIntValueEii
megaglest:_ZNK6Shared3Xml12XmlAttribute11getIntValueEv
megaglest:_ZNK6Shared3Xml12XmlAttribute12getBoolValueEv
megaglest:_ZNK6Shared3Xml12XmlAttribute12getUIntValueEv
megaglest:_ZNK6Shared3Xml12XmlAttribute13getFloatValueEff
megaglest:_ZNK6Shared3Xml12XmlAttribute13getFloatValueEv
megaglest:_ZNK6Shared3Xml12XmlAttribute18getRestrictedValueENSt7__cxx1112basic_stringIcSt11char_traitsIcESaIcEEEb
megaglest:_ZNK6Shared3Xml12XmlAttribute8getValueENSt7__cxx1112basic_stringIcSt11char_traitsIcESaIcEEEb
megaglest:_ZNK6Shared3Xml7XmlNode12buildElementEPN8rapidxml12xml_documentIcEE
megaglest:_ZNK6Shared3Xml7XmlNode12getAttributeERKNSt7__cxx1112basic_stringIcSt11char_traitsIcESaIcEEEb
megaglest:_ZNK6Shared3Xml7XmlNode12getAttributeEj
megaglest:_ZNK6Shared3Xml7XmlNode12getChildListERKNSt7__cxx1112basic_stringIcSt11char_traitsIcESaIcEEE
megaglest:_ZNK6Shared3Xml7XmlNode12hasAttributeERKNSt7__cxx1112basic_stringIcSt11char_traitsIcESaIcEEE
megaglest:_ZNK6Shared3Xml7XmlNode13getTreeStringB5cxx11Ev
megaglest:_ZNK6Shared3Xml7XmlNode15hasChildAtIndexERKNSt7__cxx1112basic_stringIcSt11char_traitsIcESaIcEEEi
megaglest:_ZNK6Shared3Xml7XmlNode15hasChildNoSuperERKNSt7__cxx1112basic_stringIcSt11char_traitsIcESaIcEEE
megaglest:_ZNK6Shared3Xml7XmlNode19getChildWithAliasesESt6vectorINSt7__cxx1112basic_stringIcSt11char_traitsIcESaIcEEESaIS8_EEj
megaglest:_ZNK6Shared3Xml7XmlNode19hasChildWithAliasesESt6vectorINSt7__cxx1112basic_stringIcSt11char_traitsIcESaIcEEESaIS8_EE
megaglest:_ZNK6Shared3Xml7XmlNode8getChildERKNSt7__cxx1112basic_stringIcSt11char_traitsIcESaIcEEEj
megaglest:_ZNK6Shared3Xml7XmlNode8getChildEj
megaglest:_ZNK6Shared3Xml7XmlNode8hasChildERKNSt7__cxx1112basic_stringIcSt11char_traitsIcESaIcEEE
megaglest:_ZNK6Shared4Util10Properties12getRandomKeyB5cxx11Eb
megaglest:_ZNK6Shared4Util10Properties16getPropertyCountEv
megaglest:_ZNK6Shared4Util10Properties6getIntEPKcS3_
megaglest:_ZNK6Shared4Util10Properties6getIntERKNSt7__cxx1112basic_stringIcSt11char_traitsIcESaIcEEEPKc
megaglest:_ZNK6Shared4Util10Properties6getIntERKNSt7__cxx1112basic_stringIcSt11char_traitsIcESaIcEEEiiPKc
megaglest:_ZNK6Shared4Util10Properties6getKeyB5cxx11Ei
megaglest:_ZNK6Shared4Util10Properties7getBoolEPKcS3_
megaglest:_ZNK6Shared4Util10Properties7getBoolERKNSt7__cxx1112basic_stringIcSt11char_traitsIcESaIcEEEPKc
megaglest:_ZNK6Shared4Util10Properties8getFloatEPKcS3_
megaglest:_ZNK6Shared4Util10Properties8getFloatERKNSt7__cxx1112basic_stringIcSt11char_traitsIcESaIcEEEPKc
megaglest:_ZNK6Shared4Util10Properties8getFloatERKNSt7__cxx1112basic_stringIcSt11char_traitsIcESaIcEEEffPKc
megaglest:_ZNK6Shared4Util10Properties9getStringB5cxx11EPKcS3_
megaglest:_ZNK6Shared4Util10Properties9getStringB5cxx11Ei
megaglest:_ZNK6Shared4Util10Properties9getStringERKNSt7__cxx1112basic_stringIcSt11char_traitsIcESaIcEEEPKc
megaglest:_ZNK6Shared4Util10Properties9hasStringERKNSt7__cxx1112basic_stringIcSt11char_traitsIcESaIcEEE
megaglest:_ZNK6Shared4Util9RandomGen13getLastCallerB5cxx11Ev
megaglest:_ZNK6Shared8Graphics10PixmapCube17getPixelByteCountEv
megaglest:_ZNK6Shared8Graphics10Quaternion13getLocalXAxisEv
megaglest:_ZNK6Shared8Graphics10Quaternion13getLocalYAxisEv
megaglest:_ZNK6Shared8Graphics10Quaternion13getLocalZAxisEv
megaglest:_ZNK6Shared8Graphics10Quaternion4lerpEfRKS1_
megaglest:_ZNK6Shared8Graphics10Quaternion9toMatrix3Ev
megaglest:_ZNK6Shared8Graphics10Quaternion9toMatrix4Ev
megaglest:_ZNK6Shared8Graphics10QuaternionmlERKS1_
megaglest:_ZNK6Shared8Graphics10QuaternionplERKS1_
megaglest:_ZNK6Shared8Graphics11FontMetrics9getHeightERKNSt7__cxx1112basic_stringIcSt11char_traitsIcESaIcEEE
megaglest:_ZNK6Shared8Graphics11PNGReader3D4readERSt14basic_ifstreamIcSt11char_traitsIcEERKNSt7__cxx1112basic_stringIcS4_SaIcEEEPNS0_8Pixmap3DE
megaglest:_ZNK6Shared8Graphics11TGAReader3D4readERSt14basic_ifstreamIcSt11char_traitsIcEERKNSt7__cxx1112basic_stringIcS4_SaIcEEEPNS0_8Pixmap3DE
megaglest:_ZNK6Shared8Graphics11TextureCube7getPathB5cxx11Ev
megaglest:_ZNK6Shared8Graphics11VideoPlayer9isPlayingEv
megaglest:_ZNK6Shared8Graphics14ParticleSystem7isEmptyEv
megaglest:_ZNK6Shared8Graphics14ParticleSystem8toStringB5cxx11Ev
megaglest:_ZNK6Shared8Graphics15ParticleManager19findParticleSystemsEPNS0_14ParticleSystemERKSt6vectorIS3_SaIS3_EE
megaglest:_ZNK6Shared8Graphics15ParticleManager23hasActiveParticleSystemENS0_14ParticleSystem18ParticleSystemTypeE
megaglest:_ZNK6Shared8Graphics15ParticleManager33validateParticleSystemStillExistsEPNS0_14ParticleSystemE
megaglest:_ZNK6Shared8Graphics15ParticleManager6renderEPNS0_16ParticleRendererEPNS0_13ModelRendererE
megaglest:_ZNK6Shared8Graphics18FireParticleSystem8toStringB5cxx11Ev
megaglest:_ZNK6Shared8Graphics18GameParticleSystem8toStringB5cxx11Ev
megaglest:_ZNK6Shared8Graphics18RainParticleSystem8toStringB5cxx11Ev
megaglest:_ZNK6Shared8Graphics18SnowParticleSystem8toStringB5cxx11Ev
megaglest:_ZNK6Shared8Graphics18UnitParticleSystem10getVisibleEv
megaglest:_ZNK6Shared8Graphics18UnitParticleSystem8toStringB5cxx11Ev
megaglest:_ZNK6Shared8Graphics19BaseColorPickEntity19getColorDescriptionB5cxx11Ev
megaglest:_ZNK6Shared8Graphics19BaseColorPickEntity20isUniquePickingColorEPh
megaglest:_ZNK6Shared8Graphics19BaseColorPickEntity21setUniquePickingColorEv
megaglest:_ZNK6Shared8Graphics20AttackParticleSystem8toStringB5cxx11Ev
megaglest:_ZNK6Shared8Graphics20SplashParticleSystem8toStringB5cxx11Ev
megaglest:_ZNK6Shared8Graphics24ProjectileParticleSystem8toStringB5cxx11Ev
megaglest:_ZNK6Shared8Graphics4Font7getSizeEv
megaglest:_ZNK6Shared8Graphics4Font7getTypeB5cxx11Ev
megaglest:_ZNK6Shared8Graphics4Font8getWidthEv
megaglest:_ZNK6Shared8Graphics5Model14getVertexCountEv
megaglest:_ZNK6Shared8Graphics5Model16getTriangleCountEv
megaglest:_ZNK6Shared8Graphics5Model22buildInterpolationDataEv
megaglest:_ZNK6Shared8Graphics8Pixmap1D17getPixelByteCountEv
megaglest:_ZNK6Shared8Graphics8Pixmap2D10getPixel3fEii
megaglest:_ZNK6Shared8Graphics8Pixmap2D10getPixel4fEii
megaglest:_ZNK6Shared8Graphics8Pixmap2D12getComponentEiiiRf
megaglest:_ZNK6Shared8Graphics8Pixmap2D12getComponentEiiiRh
megaglest:_ZNK6Shared8Graphics8Pixmap2D13getComponentfEiii
megaglest:_ZNK6Shared8Graphics8Pixmap2D17getPixelByteCountEv
megaglest:_ZNK6Shared8Graphics8Pixmap2D8getPixelEiiPf
megaglest:_ZNK6Shared8Graphics8Pixmap2D8getPixelEiiPh
megaglest:_ZNK6Shared8Graphics8Pixmap2D9getPixelfEii
megaglest:_ZNK6Shared8Graphics8Pixmap3D17getPixelByteCountEv
megaglest:_ZNK6Shared8Graphics9BMPReader4readERSt14basic_ifstreamIcSt11char_traitsIcEERKNSt7__cxx1112basic_stringIcS4_SaIcEEEPNS0_8Pixmap2DE
megaglest:_ZNK6Shared8Graphics9JPGReader4readERSt14basic_ifstreamIcSt11char_traitsIcEERKNSt7__cxx1112basic_stringIcS4_SaIcEEEPNS0_8Pixmap2DE
megaglest:_ZNK6Shared8Graphics9PNGReader4readERSt14basic_ifstreamIcSt11char_traitsIcEERKNSt7__cxx1112basic_stringIcS4_SaIcEEEPNS0_8Pixmap2DE
megaglest:_ZNK6Shared8Graphics9TGAReader4readERSt14basic_ifstreamIcSt11char_traitsIcEERKNSt7__cxx1112basic_stringIcS4_SaIcEEEPNS0_8Pixmap2DE
megaglest:_ZNK6Shared8Graphics9Texture1D7getPathB5cxx11Ev
megaglest:_ZNK6Shared8Graphics9Texture2D16CreateSDLSurfaceEb
megaglest:_ZNK6Shared8Graphics9Texture2D7getPathB5cxx11Ev
megaglest:_ZNK6Shared8Graphics9Texture3D7getPathB5cxx11Ev
megaglest:_ZNK6Shared8Platform12ServerSocket18isIPAddressBlockedENSt7__cxx1112basic_stringIcSt11char_traitsIcESaIcEEE
megaglest:_ZNK6Shared8Platform12ServerSocket21hasBlockedIPAddressesEv
megaglest:_ZNK6Shared8Platform2Ip9getStringB5cxx11Ev
megaglest:_ZNK6Shared8Platform6Socket13isSocketValidEv
megaglest:_ZThn1040_N6Shared8Graphics2Gl13TextureCubeGlD0Ev
megaglest:_ZThn1040_N6Shared8Graphics2Gl13TextureCubeGlD1Ev
megaglest:_ZThn16_N5Glest4Game6Object3endEPN6Shared8Graphics14ParticleSystemE
megaglest:_ZThn16_N5Glest4Game6ObjectD0Ev
megaglest:_ZThn16_N5Glest4Game6ObjectD1Ev
megaglest:_ZThn16_N5Glest4Game8Renderer10simpleTaskEPN6Shared14PlatformCommon10BaseThreadEPv
megaglest:_ZThn16_N5Glest4Game8RendererD0Ev
megaglest:_ZThn16_N5Glest4Game8RendererD1Ev
megaglest:_ZThn176_N6Shared8Graphics2Gl11Texture1DGlD0Ev
megaglest:_ZThn176_N6Shared8Graphics2Gl11Texture1DGlD1Ev
megaglest:_ZThn184_N5Glest4Game13FactionThreadD0Ev
megaglest:_ZThn184_N5Glest4Game13FactionThreadD1Ev
megaglest:_ZThn184_N5Glest4Game17AiInterfaceThreadD0Ev
megaglest:_ZThn184_N5Glest4Game17AiInterfaceThreadD1Ev
megaglest:_ZThn184_N5Glest4Game20ConnectionSlotThread11signalSlaveEPv
megaglest:_ZThn184_N5Glest4Game20ConnectionSlotThreadD0Ev
megaglest:_ZThn184_N5Glest4Game20ConnectionSlotThreadD1Ev
megaglest:_ZThn184_N5Glest4Game21ClientInterfaceThreadD0Ev
megaglest:_ZThn184_N5Glest4Game21ClientInterfaceThreadD1Ev
megaglest:_ZThn184_N6Shared14PlatformCommon15FTPClientThread30getShellCommandOutput_UserDataENSt7__cxx1112basic_stringIcSt11char_traitsIcESaIcEEE
megaglest:_ZThn184_N6Shared14PlatformCommon15FTPClientThread32ShellCommandOutput_CallbackEventENSt7__cxx1112basic_stringIcSt11char_traitsIcESaIcEEEPcPv
megaglest:_ZThn184_N6Shared8Graphics2Gl11Texture2DGlD0Ev
megaglest:_ZThn184_N6Shared8Graphics2Gl11Texture2DGlD1Ev
megaglest:_ZThn184_N6Shared8Platform12ServerSocket14UPNPInitStatusEb
megaglest:_ZThn184_N6Shared8Platform12ServerSocketD0Ev
megaglest:_ZThn184_N6Shared8Platform12ServerSocketD1Ev
megaglest:_ZThn192_N6Shared8Graphics2Gl11Texture3DGlD0Ev
megaglest:_ZThn192_N6Shared8Graphics2Gl11Texture3DGlD1Ev
megaglest:_ZThn2104_N5Glest4Game15ServerInterface12getSlotMutexEi
megaglest:_ZThn2104_N5Glest4Game15ServerInterface17isClientConnectedEi
megaglest:_ZThn2104_N5Glest4Game15ServerInterface7getSlotEib
megaglest:_ZThn2104_N5Glest4Game15ServerInterfaceD0Ev
megaglest:_ZThn2104_N5Glest4Game15ServerInterfaceD1Ev
megaglest:_ZThn2112_N5Glest4Game15ServerInterface10simpleTaskEPN6Shared14PlatformCommon10BaseThreadEPv
megaglest:_ZThn2112_N5Glest4Game15ServerInterfaceD0Ev
megaglest:_ZThn2112_N5Glest4Game15ServerInterfaceD1Ev
megaglest:_ZThn2120_N5Glest4Game15ServerInterface17isValidClientTypeEj
megaglest:_ZThn2120_N5Glest4Game15ServerInterface24isClientAllowedToGetFileEjPKcS3_
megaglest:_ZThn2120_N5Glest4Game15ServerInterfaceD0Ev
megaglest:_ZThn2120_N5Glest4Game15ServerInterfaceD1Ev
megaglest:_ZThn24_N5Glest4Game8Renderer18renderVideoLoadingEi
megaglest:_ZThn24_N5Glest4Game8RendererD0Ev
megaglest:_ZThn24_N5Glest4Game8RendererD1Ev
megaglest:_ZThn336_N5Glest4Game13MenuStateMods23FTPClient_CallbackEventENSt7__cxx1112basic_stringIcSt11char_traitsIcESaIcEEEN6Shared14PlatformCommon23FTP_Client_CallbackTypeESt4pairINS9_21FTP_Client_ResultTypeES7_EPv
megaglest:_ZThn336_N5Glest4Game13MenuStateModsD0Ev
megaglest:_ZThn336_N5Glest4Game13MenuStateModsD1Ev
megaglest:_ZThn336_N5Glest4Game13MenuStateRoot10simpleTaskEPN6Shared14PlatformCommon10BaseThreadEPv
megaglest:_ZThn336_N5Glest4Game13MenuStateRootD0Ev
megaglest:_ZThn336_N5Glest4Game13MenuStateRootD1Ev
megaglest:_ZThn336_N5Glest4Game17MenuStateJoinGame17DiscoveredServersESt6vectorINSt7__cxx1112basic_stringIcSt11char_traitsIcESaIcEEESaIS8_EE
megaglest:_ZThn336_N5Glest4Game17MenuStateJoinGameD0Ev
megaglest:_ZThn336_N5Glest4Game17MenuStateJoinGameD1Ev
megaglest:_ZThn336_N5Glest4Game19MenuStateCustomGame10simpleTaskEPN6Shared14PlatformCommon10BaseThreadEPv
megaglest:_ZThn336_N5Glest4Game19MenuStateCustomGame12shutdownTaskEPN6Shared14PlatformCommon10BaseThreadEPv
megaglest:_ZThn336_N5Glest4Game19MenuStateCustomGame9setupTaskEPN6Shared14PlatformCommon10BaseThreadEPv
megaglest:_ZThn336_N5Glest4Game19MenuStateCustomGameD0Ev
megaglest:_ZThn336_N5Glest4Game19MenuStateCustomGameD1Ev
megaglest:_ZThn336_N5Glest4Game21MenuStateMasterserver10simpleTaskEPN6Shared14PlatformCommon10BaseThreadEPv
megaglest:_ZThn336_N5Glest4Game21MenuStateMasterserverD0Ev
megaglest:_ZThn336_N5Glest4Game21MenuStateMasterserverD1Ev
megaglest:_ZThn336_N5Glest4Game22MenuStateConnectedGame23FTPClient_CallbackEventENSt7__cxx1112basic_stringIcSt11char_traitsIcESaIcEEEN6Shared14PlatformCommon23FTP_Client_CallbackTypeESt4pairINS9_21FTP_Client_ResultTypeES7_EPv
megaglest:_ZThn336_N5Glest4Game22MenuStateConnectedGameD0Ev
megaglest:_ZThn336_N5Glest4Game22MenuStateConnectedGameD1Ev
megaglest:_ZThn344_N5Glest4Game13MenuStateMods10simpleTaskEPN6Shared14PlatformCommon10BaseThreadEPv
megaglest:_ZThn344_N5Glest4Game13MenuStateModsD0Ev
megaglest:_ZThn344_N5Glest4Game13MenuStateModsD1Ev
megaglest:_ZThn344_N5Glest4Game13MenuStateRoot23FTPClient_CallbackEventENSt7__cxx1112basic_stringIcSt11char_traitsIcESaIcEEEN6Shared14PlatformCommon23FTP_Client_CallbackTypeESt4pairINS9_21FTP_Client_ResultTypeES7_EPv
megaglest:_ZThn344_N5Glest4Game13MenuStateRootD0Ev
megaglest:_ZThn344_N5Glest4Game13MenuStateRootD1Ev
megaglest:_ZThn344_N5Glest4Game21MenuStateMasterserver17IRC_CallbackEventEN6Shared14PlatformCommon12IRCEventTypeEPKcPS6_j
megaglest:_ZThn344_N5Glest4Game21MenuStateMasterserverD0Ev
megaglest:_ZThn344_N5Glest4Game21MenuStateMasterserverD1Ev
megaglest:_ZThn344_N5Glest4Game22MenuStateConnectedGame10simpleTaskEPN6Shared14PlatformCommon10BaseThreadEPv
megaglest:_ZThn344_N5Glest4Game22MenuStateConnectedGameD0Ev
megaglest:_ZThn344_N5Glest4Game22MenuStateConnectedGameD1Ev
megaglest:_ZThn456_NK5Glest4Game11UpgradeType10getReqDescB5cxx11Eb
megaglest:_ZThn456_NK5Glest4Game11UpgradeType7getNameB5cxx11Eb
megaglest:_ZThn48_N5Glest4Game4Game11processTechENSt7__cxx1112basic_stringIcSt11char_traitsIcESaIcEEE
megaglest:_ZThn48_N5Glest4Game4GameD0Ev
megaglest:_ZThn48_N5Glest4Game4GameD1Ev
megaglest:_ZThn56_N5Glest4Game4Game16processInputTextENSt7__cxx1112basic_stringIcSt11char_traitsIcESaIcEEEb
megaglest:_ZThn56_N5Glest4Game4GameD0Ev
megaglest:_ZThn56_N5Glest4Game4GameD1Ev
megaglest:_ZThn64_N5Glest4Game4Game16clientLagHandlerEib
megaglest:_ZThn64_N5Glest4Game4GameD0Ev
megaglest:_ZThn64_N5Glest4Game4GameD1Ev
megaglest:_ZThn64_N5Glest4Game4Unit15logParticleInfoENSt7__cxx1112basic_stringIcSt11char_traitsIcESaIcEEE
megaglest:_ZThn64_N5Glest4Game4Unit3endEPN6Shared8Graphics14ParticleSystemE
megaglest:_ZThn64_N5Glest4Game4UnitD0Ev
megaglest:_ZThn64_N5Glest4Game4UnitD1Ev
megaglest:_ZThn8_N5Glest4Game8RendererD0Ev
megaglest:_ZThn8_N5Glest4Game8RendererD1Ev
megaglest:__bss_start
megaglest:__data_start
megaglest:_edata
megaglest:_end
megaglest:_start
megaglest:execFtpCmd
megaglest:ftpAcceptDataConnection
megaglest:ftpAcceptServerConnection
megaglest:ftpAddUPNPPortForward
megaglest:ftpArchCleanup
megaglest:ftpArchInit
megaglest:ftpAuthSession
megaglest:ftpChangeDir
megaglest:ftpCheckAccRights
megaglest:ftpCheckPassword
megaglest:ftpCloseDir
megaglest:ftpCloseSession
megaglest:ftpCloseSocket
megaglest:ftpCloseTransmission
megaglest:ftpCreateAccount
megaglest:ftpCreateServerSocket
megaglest:ftpDeleteAccount
megaglest:ftpEstablishDataConnection
megaglest:ftpExecTransmission
megaglest:ftpExecute
megaglest:ftpFindAccount
megaglest:ftpFindAccountById
megaglest:ftpFindExternalFTPServerIp
megaglest:ftpGetActiveTransCnt
megaglest:ftpGetListenPort
megaglest:ftpGetLocalTime
megaglest:ftpGetPassivePort
megaglest:ftpGetRealPath
megaglest:ftpGetRoot
megaglest:ftpGetSession
megaglest:ftpGetUnixTime
megaglest:ftpInit
megaglest:ftpIsClientAllowedToGetFile
megaglest:ftpIsValidClient
megaglest:ftpMakeDir
megaglest:ftpMergePaths
megaglest:ftpMsg000
megaglest:ftpMsg001
megaglest:ftpMsg002
megaglest:ftpMsg003
megaglest:ftpMsg004
megaglest:ftpMsg005
megaglest:ftpMsg006
megaglest:ftpMsg007
megaglest:ftpMsg008
megaglest:ftpMsg009
megaglest:ftpMsg010
megaglest:ftpMsg011
megaglest:ftpMsg012
megaglest:ftpMsg013
megaglest:ftpMsg014
megaglest:ftpMsg015
megaglest:ftpMsg016
megaglest:ftpMsg018
megaglest:ftpMsg019
megaglest:ftpMsg020
megaglest:ftpMsg021
megaglest:ftpMsg022
megaglest:ftpMsg023
megaglest:ftpMsg024
megaglest:ftpMsg025
megaglest:ftpMsg026
megaglest:ftpMsg027
megaglest:ftpMsg028
megaglest:ftpMsg029
megaglest:ftpMsg030
megaglest:ftpMsg031
megaglest:ftpMsg032
megaglest:ftpMsg033
megaglest:ftpMsg034
megaglest:ftpMsg035
megaglest:ftpMsg036
megaglest:ftpMsg037
megaglest:ftpMsg038
megaglest:ftpMsg039
megaglest:ftpMsg040
megaglest:ftpOpenDir
megaglest:ftpOpenSession
megaglest:ftpOpenTransmission
megaglest:ftpParseCmd
megaglest:ftpReadDir
megaglest:ftpReceive
megaglest:ftpRemoveDir
megaglest:ftpRemoveDoubleSlash
megaglest:ftpRemoveTrailingSlash
megaglest:ftpRemoveUPNPPortForward
megaglest:ftpSelect
megaglest:ftpSend
megaglest:ftpSendMsg
megaglest:ftpShutdown
megaglest:ftpStart
megaglest:ftpStat
megaglest:ftpState
megaglest:ftpStrcpy
megaglest:ftpTestSocket
megaglest:ftpTrackSocket
megaglest:ftpUntrackSocket
megaglest:getLastSocketError
megaglest:getLastSocketErrorText
megaglest:irc_add_select_descriptors
megaglest:irc_cmd_channel_mode
megaglest:irc_cmd_ctcp_reply
megaglest:irc_cmd_ctcp_request
megaglest:irc_cmd_invite
megaglest:irc_cmd_join
megaglest:irc_cmd_kick
megaglest:irc_cmd_list
megaglest:irc_cmd_me
megaglest:irc_cmd_msg
megaglest:irc_cmd_names
megaglest:irc_cmd_nick
megaglest:irc_cmd_notice
megaglest:irc_cmd_part
megaglest:irc_cmd_quit
megaglest:irc_cmd_topic
megaglest:irc_cmd_user_mode
megaglest:irc_cmd_whois
megaglest:irc_color_convert_from_mirc
megaglest:irc_color_convert_to_mirc
megaglest:irc_color_strip_from_mirc
megaglest:irc_connect
megaglest:irc_connect6
megaglest:irc_create_session
megaglest:irc_dcc_accept
megaglest:irc_dcc_chat
megaglest:irc_dcc_decline
megaglest:irc_dcc_destroy
megaglest:irc_dcc_msg
megaglest:irc_dcc_sendfile
megaglest:irc_destroy_session
megaglest:irc_disconnect
megaglest:irc_errno
megaglest:irc_get_ctx
megaglest:irc_get_version
megaglest:irc_is_connected
megaglest:irc_option_reset
megaglest:irc_option_set
megaglest:irc_process_select_descriptors
megaglest:irc_run
megaglest:irc_send_raw
megaglest:irc_set_ctx
megaglest:irc_strerror
megaglest:irc_target_get_host
megaglest:irc_target_get_nick
megaglest:main
megaglest:mz_adler32
megaglest:mz_compress
megaglest:mz_compress2
megaglest:mz_compressBound
megaglest:mz_crc32
megaglest:mz_deflate
megaglest:mz_deflateBound
megaglest:mz_deflateEnd
megaglest:mz_deflateInit
megaglest:mz_deflateInit2
megaglest:mz_deflateReset
megaglest:mz_error
megaglest:mz_free
megaglest:mz_inflate
megaglest:mz_inflateEnd
megaglest:mz_inflateInit
megaglest:mz_inflateInit2
megaglest:mz_uncompress
megaglest:mz_version
megaglest:mz_zip_add_mem_to_archive_file_in_place
megaglest:mz_zip_extract_archive_file_to_heap
megaglest:mz_zip_reader_end
megaglest:mz_zip_reader_extract_file_to_callback
megaglest:mz_zip_reader_extract_file_to_file
megaglest:mz_zip_reader_extract_file_to_heap
megaglest:mz_zip_reader_extract_file_to_mem
megaglest:mz_zip_reader_extract_file_to_mem_no_alloc
megaglest:mz_zip_reader_extract_to_callback
megaglest:mz_zip_reader_extract_to_file
megaglest:mz_zip_reader_extract_to_heap
megaglest:mz_zip_reader_extract_to_mem
megaglest:mz_zip_reader_extract_to_mem_no_alloc
megaglest:mz_zip_reader_file_stat
megaglest:mz_zip_reader_get_filename
megaglest:mz_zip_reader_get_num_files
megaglest:mz_zip_reader_init
megaglest:mz_zip_reader_init_file
megaglest:mz_zip_reader_init_mem
megaglest:mz_zip_reader_is_file_a_directory
megaglest:mz_zip_reader_is_file_encrypted
megaglest:mz_zip_reader_locate_file
megaglest:mz_zip_writer_add_file
megaglest:mz_zip_writer_add_from_zip_reader
megaglest:mz_zip_writer_add_mem
megaglest:mz_zip_writer_add_mem_ex
megaglest:mz_zip_writer_end
megaglest:mz_zip_writer_finalize_archive
megaglest:mz_zip_writer_finalize_heap_archive
megaglest:mz_zip_writer_init
megaglest:mz_zip_writer_init_file
megaglest:mz_zip_writer_init_from_reader
megaglest:mz_zip_writer_init_heap
megaglest:ownIp
megaglest:tdefl_compress
megaglest:tdefl_compress_buffer
megaglest:tdefl_compress_mem_to_heap
megaglest:tdefl_compress_mem_to_mem
megaglest:tdefl_compress_mem_to_output
megaglest:tdefl_create_comp_flags_from_zip_params
megaglest:tdefl_get_adler32
megaglest:tdefl_get_prev_return_status
megaglest:tdefl_init
megaglest:tdefl_write_image_to_png_file_in_memory
megaglest:tdefl_write_image_to_png_file_in_memory_ex
megaglest:tinfl_decompress
megaglest:tinfl_decompress_mem_to_callback
megaglest:tinfl_decompress_mem_to_heap
megaglest:tinfl_decompress_mem_to_mem
megaglest_editor:_IO_stdin_used
megaglest_editor:_Z11wxCreateAppv
megaglest_editor:_Z8wxGetAppv
megaglest_editor:_ZN13streflop_libm15__ieee754_sqrtfEf
megaglest_editor:_ZN13streflop_libm7__fabsfEf
megaglest_editor:_ZN4Text10LineHeightEPKci
megaglest_editor:_ZN4Text10LineHeightEPKwi
megaglest_editor:_ZN4Text11GetFaceSizeEv
megaglest_editor:_ZN4Text11SetFaceSizeEi
megaglest_editor:_ZN4Text17DEFAULT_FONT_PATHB5cxx11E
megaglest_editor:_ZN4Text26DEFAULT_FONT_PATH_ABSOLUTEB5cxx11E
megaglest_editor:_ZN4Text4initENSt7__cxx1112basic_stringIcSt11char_traitsIcESaIcEEES5_i
megaglest_editor:_ZN4Text6RenderEPKci
megaglest_editor:_ZN4Text6RenderEPKwi
megaglest_editor:_ZN4Text7AdvanceEPKci
megaglest_editor:_ZN4Text7AdvanceEPKwi
megaglest_editor:_ZN4TextC1E19FontTextHandlerType
megaglest_editor:_ZN4TextC2E19FontTextHandlerType
megaglest_editor:_ZN4TextD0Ev
megaglest_editor:_ZN4TextD1Ev
megaglest_editor:_ZN4TextD2Ev
megaglest_editor:_ZN5Glest4Game13GameConstants14easyMultiplierE
megaglest_editor:_ZN5Glest4Game13GameConstants14megaMultiplierE
megaglest_editor:_ZN5Glest4Game13GameConstants15HUD_SCREEN_FILEE
megaglest_editor:_ZN5Glest4Game13GameConstants15ultraMultiplierE
megaglest_editor:_ZN5Glest4Game13GameConstants16application_nameE
megaglest_editor:_ZN5Glest4Game13GameConstants16folder_path_mapsE
megaglest_editor:_ZN5Glest4Game13GameConstants16normalMultiplierE
megaglest_editor:_ZN5Glest4Game13GameConstants17OBSERVER_SLOTNAMEE
megaglest_editor:_ZN5Glest4Game13GameConstants17folder_path_techsE
megaglest_editor:_ZN5Glest4Game13GameConstants18networkFramePeriodE
megaglest_editor:_ZN5Glest4Game13GameConstants18pathCacheLookupKeyE
megaglest_editor:_ZN5Glest4Game13GameConstants19LOADING_SCREEN_FILEE
megaglest_editor:_ZN5Glest4Game13GameConstants19PREVIEW_SCREEN_FILEE
megaglest_editor:_ZN5Glest4Game13GameConstants19saveGameFileDefaultE
megaglest_editor:_ZN5Glest4Game13GameConstants19saveGameFilePatternE
megaglest_editor:_ZN5Glest4Game13GameConstants20folder_path_tilesetsE
megaglest_editor:_ZN5Glest4Game13GameConstants21folder_path_scenariosE
megaglest_editor:_ZN5Glest4Game13GameConstants21folder_path_tutorialsE
megaglest_editor:_ZN5Glest4Game13GameConstants22HUD_SCREEN_FILE_FILTERE
megaglest_editor:_ZN5Glest4Game13GameConstants22RANDOMFACTION_SLOTNAMEE
megaglest_editor:_ZN5Glest4Game13GameConstants23folder_path_screenshotsE
megaglest_editor:_ZN5Glest4Game13GameConstants23ircClientCacheLookupKeyE
megaglest_editor:_ZN5Glest4Game13GameConstants23path_ini_CacheLookupKeyE
megaglest_editor:_ZN5Glest4Game13GameConstants24path_data_CacheLookupKeyE
megaglest_editor:_ZN5Glest4Game13GameConstants24path_logs_CacheLookupKeyE
megaglest_editor:_ZN5Glest4Game13GameConstants25saveNetworkGameFileClientE
megaglest_editor:_ZN5Glest4Game13GameConstants25saveNetworkGameFileServerE
megaglest_editor:_ZN5Glest4Game13GameConstants26LOADING_SCREEN_FILE_FILTERE
megaglest_editor:_ZN5Glest4Game13GameConstants26PREVIEW_SCREEN_FILE_FILTERE
megaglest_editor:_ZN5Glest4Game13GameConstants27playerTextureCacheLookupKeyE
megaglest_editor:_ZN5Glest4Game13GameConstants27saveGameFileAutoTestDefaultE
megaglest_editor:_ZN5Glest4Game13GameConstants28NETWORK_SLOT_CLOSED_SLOTNAMEE
megaglest_editor:_ZN5Glest4Game13GameConstants28preCacheThreadCacheLookupKeyE
megaglest_editor:_ZN5Glest4Game13GameConstants33NETWORK_SLOT_UNCONNECTED_SLOTNAMEE
megaglest_editor:_ZN5Glest4Game13GameConstants35factionPreviewTextureCacheLookupKeyE
megaglest_editor:_ZN5Glest4Game13GameConstants35saveNetworkGameFileClientCompressedE
megaglest_editor:_ZN5Glest4Game13GameConstants35saveNetworkGameFileServerCompressedE
megaglest_editor:_ZN5Glest4Game13GameConstants45characterMenuScreenPositionListCacheLookupKeyE
megaglest_editor:_ZN5Glest4Game13GameConstants9cameraFpsE
megaglest_editor:_ZN5Glest4Game13GameConstants9updateFpsE
megaglest_editor:_ZN5Glest4Game20getGameReadWritePathENSt7__cxx1112basic_stringIcSt11char_traitsIcESaIcEEE
megaglest_editor:_ZN5Glest4Game6Config10configListE
megaglest_editor:_ZN5Glest4Game6Config10getMapPathERKNSt7__cxx1112basic_stringIcSt11char_traitsIcESaIcEEES7_b
megaglest_editor:_ZN5Glest4Game6Config11getInstanceESt4pairINS0_10ConfigTypeES3_ES2_INSt7__cxx1112basic_stringIcSt11char_traitsIcESaIcEEESA_ES2_IbbESA_
megaglest_editor:_ZN5Glest4Game6Config12colorPickingE
megaglest_editor:_ZN5Glest4Game6Config13tryCustomPathERSt4pairINS0_10ConfigTypeES3_ERS2_INSt7__cxx1112basic_stringIcSt11char_traitsIcESaIcEEESB_ESB_
megaglest_editor:_ZN5Glest4Game6Config14frustumPickingE
megaglest_editor:_ZN5Glest4Game6Config16selectBufPickingE
megaglest_editor:_ZN5Glest4Game6Config17setUserPropertiesERKSt6vectorISt4pairINSt7__cxx1112basic_stringIcSt11char_traitsIcESaIcEEES9_ESaISA_EE
megaglest_editor:_ZN5Glest4Game6Config18getPathListForTypeENS0_8PathTypeENSt7__cxx1112basic_stringIcSt11char_traitsIcESaIcEEE
megaglest_editor:_ZN5Glest4Game6Config18glest_ini_filenameE
megaglest_editor:_ZN5Glest4Game6Config22glestkeys_ini_filenameE
megaglest_editor:_ZN5Glest4Game6Config22glestuser_ini_filenameE
megaglest_editor:_ZN5Glest4Game6Config23customRuntimePropertiesB5cxx11E
megaglest_editor:_ZN5Glest4Game6Config24ACTIVE_MOD_PROPERTY_NAMEE
megaglest_editor:_ZN5Glest4Game6Config24replaceFileWithLocalFileERKSt6vectorINSt7__cxx1112basic_stringIcSt11char_traitsIcESaIcEEESaIS8_EES8_RS8_
megaglest_editor:_ZN5Glest4Game6Config26findValidLocalFileFromPathENSt7__cxx1112basic_stringIcSt11char_traitsIcESaIcEEE
megaglest_editor:_ZN5Glest4Game6Config26glestuserkeys_ini_filenameE
megaglest_editor:_ZN5Glest4Game6Config4saveERKNSt7__cxx1112basic_stringIcSt11char_traitsIcESaIcEEE
megaglest_editor:_ZN5Glest4Game6Config6reloadEv
megaglest_editor:_ZN5Glest4Game6Config6setIntERKNSt7__cxx1112basic_stringIcSt11char_traitsIcESaIcEEEib
megaglest_editor:_ZN5Glest4Game6Config7CopyAllEPS1_S2_
megaglest_editor:_ZN5Glest4Game6Config7setBoolERKNSt7__cxx1112basic_stringIcSt11char_traitsIcESaIcEEEbb
megaglest_editor:_ZN5Glest4Game6Config8setFloatERKNSt7__cxx1112basic_stringIcSt11char_traitsIcESaIcEEEfb
megaglest_editor:_ZN5Glest4Game6Config8toStringB5cxx11Ev
megaglest_editor:_ZN5Glest4Game6Config9setStringERKNSt7__cxx1112basic_stringIcSt11char_traitsIcESaIcEEES9_b
megaglest_editor:_ZN5Glest4Game6ConfigC1ESt4pairINS0_10ConfigTypeES3_ES2_INSt7__cxx1112basic_stringIcSt11char_traitsIcESaIcEEESA_ES2_IbbESA_
megaglest_editor:_ZN5Glest4Game6ConfigC1Ev
megaglest_editor:_ZN5Glest4Game6ConfigC2ESt4pairINS0_10ConfigTypeES3_ES2_INSt7__cxx1112basic_stringIcSt11char_traitsIcESaIcEEESA_ES2_IbbESA_
megaglest_editor:_ZN5Glest4Game6ConfigC2Ev
megaglest_editor:_ZN6Shared14PlatformCommon10BaseThread10getStartedEv
megaglest_editor:_ZN6Shared14PlatformCommon10BaseThread10setStartedEb
megaglest_editor:_ZN6Shared14PlatformCommon10BaseThread10signalQuitEv
megaglest_editor:_ZN6Shared14PlatformCommon10BaseThread11canShutdownEb
megaglest_editor:_ZN6Shared14PlatformCommon10BaseThread13getQuitStatusEv
megaglest_editor:_ZN6Shared14PlatformCommon10BaseThread13setQuitStatusEb
megaglest_editor:_ZN6Shared14PlatformCommon10BaseThread15isThreadDeletedEPv
megaglest_editor:_ZN6Shared14PlatformCommon10BaseThread15shutdownAndWaitEPS1_
megaglest_editor:_ZN6Shared14PlatformCommon10BaseThread15shutdownAndWaitEv
megaglest_editor:_ZN6Shared14PlatformCommon10BaseThread16getExecutingTaskEv
megaglest_editor:_ZN6Shared14PlatformCommon10BaseThread16getRunningStatusEv
megaglest_editor:_ZN6Shared14PlatformCommon10BaseThread16masterThreadListE
megaglest_editor:_ZN6Shared14PlatformCommon10BaseThread16setExecutingTaskEb
megaglest_editor:_ZN6Shared14PlatformCommon10BaseThread16setRunningStatusEb
megaglest_editor:_ZN6Shared14PlatformCommon10BaseThread19getThreadOwnerValidEv
megaglest_editor:_ZN6Shared14PlatformCommon10BaseThread19setThreadOwnerValidEb
megaglest_editor:_ZN6Shared14PlatformCommon10BaseThread20deleteSelfIfRequiredEv
megaglest_editor:_ZN6Shared14PlatformCommon10BaseThread20getHasBeginExecutionEv
megaglest_editor:_ZN6Shared14PlatformCommon10BaseThread20setHasBeginExecutionEb
megaglest_editor:_ZN6Shared14PlatformCommon10BaseThread21mutexMasterThreadListE
megaglest_editor:_ZN6Shared14PlatformCommon10BaseThread24getMutexThreadOwnerValidEv
megaglest_editor:_ZN6Shared14PlatformCommon10BaseThread28getDeleteSelfOnExecutionDoneEv
megaglest_editor:_ZN6Shared14PlatformCommon10BaseThread28getMutexThreadObjectAccessorEv
megaglest_editor:_ZN6Shared14PlatformCommon10BaseThread28setDeleteSelfOnExecutionDoneEb
megaglest_editor:_ZN6Shared14PlatformCommon10BaseThreadC1Ev
megaglest_editor:_ZN6Shared14PlatformCommon10BaseThreadC2Ev
megaglest_editor:_ZN6Shared14PlatformCommon10BaseThreadD0Ev
megaglest_editor:_ZN6Shared14PlatformCommon10BaseThreadD1Ev
megaglest_editor:_ZN6Shared14PlatformCommon10BaseThreadD2Ev
megaglest_editor:_ZN6Shared14PlatformCommon10StartsWithERKNSt7__cxx1112basic_stringIcSt11char_traitsIcESaIcEEES8_
megaglest_editor:_ZN6Shared14PlatformCommon10copyFileToENSt7__cxx1112basic_stringIcSt11char_traitsIcESaIcEEES6_
megaglest_editor:_ZN6Shared14PlatformCommon10fileExistsERKNSt7__cxx1112basic_stringIcSt11char_traitsIcESaIcEEE
megaglest_editor:_ZN6Shared14PlatformCommon10formatPathENSt7__cxx1112basic_stringIcSt11char_traitsIcESaIcEEE
megaglest_editor:_ZN6Shared14PlatformCommon10removeFileENSt7__cxx1112basic_stringIcSt11char_traitsIcESaIcEEE
megaglest_editor:_ZN6Shared14PlatformCommon10renameFileENSt7__cxx1112basic_stringIcSt11char_traitsIcESaIcEEES6_
megaglest_editor:_ZN6Shared14PlatformCommon10replaceAllERNSt7__cxx1112basic_stringIcSt11char_traitsIcESaIcEEERKS6_S9_
megaglest_editor:_ZN6Shared14PlatformCommon10showCursorEb
megaglest_editor:_ZN6Shared14PlatformCommon11getFileSizeENSt7__cxx1112basic_stringIcSt11char_traitsIcESaIcEEE
megaglest_editor:_ZN6Shared14PlatformCommon11getUserHomeB5cxx11Ev
megaglest_editor:_ZN6Shared14PlatformCommon12CacheManager18itemCacheMutexListB5cxx11E
megaglest_editor:_ZN6Shared14PlatformCommon12CacheManager55getFolderTreeContentsCheckSumRecursivelyCacheLookupKey1E
megaglest_editor:_ZN6Shared14PlatformCommon12CacheManager55getFolderTreeContentsCheckSumRecursivelyCacheLookupKey2E
megaglest_editor:_ZN6Shared14PlatformCommon12CacheManager59getFolderTreeContentsCheckSumListRecursivelyCacheLookupKey1E
megaglest_editor:_ZN6Shared14PlatformCommon12CacheManager59getFolderTreeContentsCheckSumListRecursivelyCacheLookupKey2E
megaglest_editor:_ZN6Shared14PlatformCommon12removeFolderERKNSt7__cxx1112basic_stringIcSt11char_traitsIcESaIcEEE
megaglest_editor:_ZN6Shared14PlatformCommon13LogFileThread10saveToDiskEbb
megaglest_editor:_ZN6Shared14PlatformCommon13LogFileThread11addLogEntryENS_4Util11SystemFlags9DebugTypeENSt7__cxx1112basic_stringIcSt11char_traitsIcESaIcEEE
megaglest_editor:_ZN6Shared14PlatformCommon13LogFileThread11canShutdownEb
megaglest_editor:_ZN6Shared14PlatformCommon13LogFileThread22getLogEntryBufferCountEv
megaglest_editor:_ZN6Shared14PlatformCommon13LogFileThread31checkSaveCurrentLogBufferToDiskEv
megaglest_editor:_ZN6Shared14PlatformCommon13LogFileThread7executeEv
megaglest_editor:_ZN6Shared14PlatformCommon13LogFileThreadC1Ev
megaglest_editor:_ZN6Shared14PlatformCommon13LogFileThreadC2Ev
megaglest_editor:_ZN6Shared14PlatformCommon13LogFileThreadD0Ev
megaglest_editor:_ZN6Shared14PlatformCommon13LogFileThreadD1Ev
megaglest_editor:_ZN6Shared14PlatformCommon13LogFileThreadD2Ev
megaglest_editor:_ZN6Shared14PlatformCommon14getGameVersionB5cxx11Ev
megaglest_editor:_ZN6Shared14PlatformCommon14saveDataToFileENSt7__cxx1112basic_stringIcSt11char_traitsIcESaIcEEES6_
megaglest_editor:_ZN6Shared14PlatformCommon14setGameVersionENSt7__cxx1112basic_stringIcSt11char_traitsIcESaIcEEE
megaglest_editor:_ZN6Shared14PlatformCommon14systemtime_nowEv
megaglest_editor:_ZN6Shared14PlatformCommon15executable_pathENSt7__cxx1112basic_stringIcSt11char_traitsIcESaIcEEEb
megaglest_editor:_ZN6Shared14PlatformCommon15isCursorShowingEv
megaglest_editor:_ZN6Shared14PlatformCommon15safeCharPtrCopyB5cxx11EPKci
megaglest_editor:_ZN6Shared14PlatformCommon15valid_utf8_fileEPKc
megaglest_editor:_ZN6Shared14PlatformCommon16PerformanceTimer4initEfi
megaglest_editor:_ZN6Shared14PlatformCommon16PerformanceTimer5resetEv
megaglest_editor:_ZN6Shared14PlatformCommon16PerformanceTimer6isTimeEv
megaglest_editor:_ZN6Shared14PlatformCommon16SimpleTaskThread11canShutdownEb
megaglest_editor:_ZN6Shared14PlatformCommon16SimpleTaskThread16getTaskSignalledEv
megaglest_editor:_ZN6Shared14PlatformCommon16SimpleTaskThread16setTaskSignalledEb
megaglest_editor:_ZN6Shared14PlatformCommon16SimpleTaskThread23setOverrideShutdownTaskEPFvPNS0_10BaseThreadEE
megaglest_editor:_ZN6Shared14PlatformCommon16SimpleTaskThread24isThreadExecutionLaggingEv
megaglest_editor:_ZN6Shared14PlatformCommon16SimpleTaskThread27getSimpleTaskInterfaceValidEv
megaglest_editor:_ZN6Shared14PlatformCommon16SimpleTaskThread27setSimpleTaskInterfaceValidEb
megaglest_editor:_ZN6Shared14PlatformCommon16SimpleTaskThread7cleanupEv
megaglest_editor:_ZN6Shared14PlatformCommon16SimpleTaskThread7executeEv
megaglest_editor:_ZN6Shared14PlatformCommon16SimpleTaskThreadC1EPNS0_27SimpleTaskCallbackInterfaceEjjbPvb
megaglest_editor:_ZN6Shared14PlatformCommon16SimpleTaskThreadC2EPNS0_27SimpleTaskCallbackInterfaceEjjbPvb
megaglest_editor:_ZN6Shared14PlatformCommon16SimpleTaskThreadD0Ev
megaglest_editor:_ZN6Shared14PlatformCommon16SimpleTaskThreadD1Ev
megaglest_editor:_ZN6Shared14PlatformCommon16SimpleTaskThreadD2Ev
megaglest_editor:_ZN6Shared14PlatformCommon16endPathWithSlashERNSt7__cxx1112basic_stringIcSt11char_traitsIcESaIcEEEb
megaglest_editor:_ZN6Shared14PlatformCommon16extractExtensionERKNSt7__cxx1112basic_stringIcSt11char_traitsIcESaIcEEE
megaglest_editor:_ZN6Shared14PlatformCommon16restoreVideoModeEP10SDL_Windowb
megaglest_editor:_ZN6Shared14PlatformCommon17ValueCheckerVault14addItemToVaultEPKvi
megaglest_editor:_ZN6Shared14PlatformCommon17getGameGITVersionB5cxx11Ev
megaglest_editor:_ZN6Shared14PlatformCommon17setGameGITVersionENSt7__cxx1112basic_stringIcSt11char_traitsIcESaIcEEE
megaglest_editor:_ZN6Shared14PlatformCommon19executeShellCommandENSt7__cxx1112basic_stringIcSt11char_traitsIcESaIcEEEiPNS0_35ShellCommandOutputCallbackInterfaceE
megaglest_editor:_ZN6Shared14PlatformCommon19getCRCCacheFileNameESt4pairINSt7__cxx1112basic_stringIcSt11char_traitsIcESaIcEEES7_E
megaglest_editor:_ZN6Shared14PlatformCommon19getCRCCacheFilePathB5cxx11Ev
megaglest_editor:_ZN6Shared14PlatformCommon19getFileTextContentsENSt7__cxx1112basic_stringIcSt11char_traitsIcESaIcEEE
megaglest_editor:_ZN6Shared14PlatformCommon19setCRCCacheFilePathENSt7__cxx1112basic_stringIcSt11char_traitsIcESaIcEEE
megaglest_editor:_ZN6Shared14PlatformCommon20createDirectoryPathsENSt7__cxx1112basic_stringIcSt11char_traitsIcESaIcEEE
megaglest_editor:_ZN6Shared14PlatformCommon20threadsafe_localtimeERKl
megaglest_editor:_ZN6Shared14PlatformCommon21FileCRCPreCacheThread11canShutdownEb
megaglest_editor:_ZN6Shared14PlatformCommon21FileCRCPreCacheThread15getPauseForGameEv
megaglest_editor:_ZN6Shared14PlatformCommon21FileCRCPreCacheThread15setPauseForGameEb
megaglest_editor:_ZN6Shared14PlatformCommon21FileCRCPreCacheThread28preCacheThreadCacheLookupKeyB5cxx11E
megaglest_editor:_ZN6Shared14PlatformCommon21FileCRCPreCacheThread7executeEv
megaglest_editor:_ZN6Shared14PlatformCommon21FileCRCPreCacheThreadC1ESt6vectorINSt7__cxx1112basic_stringIcSt11char_traitsIcESaIcEEESaIS8_EESA_PNS0_38FileCRCPreCacheThreadCallbackInterfaceE
megaglest_editor:_ZN6Shared14PlatformCommon21FileCRCPreCacheThreadC1Ev
megaglest_editor:_ZN6Shared14PlatformCommon21FileCRCPreCacheThreadC2ESt6vectorINSt7__cxx1112basic_stringIcSt11char_traitsIcESaIcEEESaIS8_EESA_PNS0_38FileCRCPreCacheThreadCallbackInterfaceE
megaglest_editor:_ZN6Shared14PlatformCommon21FileCRCPreCacheThreadC2Ev
megaglest_editor:_ZN6Shared14PlatformCommon21FileCRCPreCacheThreadD0Ev
megaglest_editor:_ZN6Shared14PlatformCommon21FileCRCPreCacheThreadD1Ev
megaglest_editor:_ZN6Shared14PlatformCommon21FileCRCPreCacheThreadD2Ev
megaglest_editor:_ZN6Shared14PlatformCommon21hasCachedFileCRCValueENSt7__cxx1112basic_stringIcSt11char_traitsIcESaIcEEERj
megaglest_editor:_ZN6Shared14PlatformCommon22getFullscreenVideoInfoERiS1_S1_b
megaglest_editor:_ZN6Shared14PlatformCommon22replaceAllHTMLEntitiesERNSt7__cxx1112basic_stringIcSt11char_traitsIcESaIcEEE
megaglest_editor:_ZN6Shared14PlatformCommon23getFullscreenVideoModesEPSt6vectorINS0_8ModeInfoESaIS2_EEb
megaglest_editor:_ZN6Shared14PlatformCommon23replaceAllBetweenTokensERNSt7__cxx1112basic_stringIcSt11char_traitsIcESaIcEEERKS6_S9_S9_b
megaglest_editor:_ZN6Shared14PlatformCommon23replaceAllBetweenTokensERSt6vectorIcSaIcEERKNSt7__cxx1112basic_stringIcSt11char_traitsIcES2_EESB_SB_b
megaglest_editor:_ZN6Shared14PlatformCommon23updatePathClimbingPartsERNSt7__cxx1112basic_stringIcSt11char_traitsIcESaIcEEEb
megaglest_editor:_ZN6Shared14PlatformCommon23writeCachedFileCRCValueENSt7__cxx1112basic_stringIcSt11char_traitsIcESaIcEEERjS6_
megaglest_editor:_ZN6Shared14PlatformCommon25changeVideoModeFullScreenEb
megaglest_editor:_ZN6Shared14PlatformCommon25trimPathWithStartingSlashERNSt7__cxx1112basic_stringIcSt11char_traitsIcESaIcEEE
megaglest_editor:_ZN6Shared14PlatformCommon26searchAndReplaceTextInFileENSt7__cxx1112basic_stringIcSt11char_traitsIcESaIcEEES6_S6_b
megaglest_editor:_ZN6Shared14PlatformCommon28extractDirectoryPathFromFileENSt7__cxx1112basic_stringIcSt11char_traitsIcESaIcEEE
megaglest_editor:_ZN6Shared14PlatformCommon28extractFileFromDirectoryPathENSt7__cxx1112basic_stringIcSt11char_traitsIcESaIcEEE
megaglest_editor:_ZN6Shared14PlatformCommon28extractLastDirectoryFromPathENSt7__cxx1112basic_stringIcSt11char_traitsIcESaIcEEE
megaglest_editor:_ZN6Shared14PlatformCommon28getFormattedCRCCacheFileNameESt4pairINSt7__cxx1112basic_stringIcSt11char_traitsIcESaIcEEES7_E
megaglest_editor:_ZN6Shared14PlatformCommon31clearFolderTreeContentsCheckSumERKNSt7__cxx1112basic_stringIcSt11char_traitsIcESaIcEEES8_
megaglest_editor:_ZN6Shared14PlatformCommon31clearFolderTreeContentsCheckSumESt6vectorINSt7__cxx1112basic_stringIcSt11char_traitsIcESaIcEEESaIS7_EES7_RKS7_
megaglest_editor:_ZN6Shared14PlatformCommon32getFullFileArchiveExtractCommandENSt7__cxx1112basic_stringIcSt11char_traitsIcESaIcEEES6_S6_S6_
megaglest_editor:_ZN6Shared14PlatformCommon33getFullFileArchiveCompressCommandENSt7__cxx1112basic_stringIcSt11char_traitsIcESaIcEEES6_S6_S6_
megaglest_editor:_ZN6Shared14PlatformCommon35clearFolderTreeContentsCheckSumListERKNSt7__cxx1112basic_stringIcSt11char_traitsIcESaIcEEES8_
megaglest_editor:_ZN6Shared14PlatformCommon35clearFolderTreeContentsCheckSumListESt6vectorINSt7__cxx1112basic_stringIcSt11char_traitsIcESaIcEEESaIS7_EES7_RKS7_
megaglest_editor:_ZN6Shared14PlatformCommon36getFolderTreeContentsListRecursivelyERKNSt7__cxx1112basic_stringIcSt11char_traitsIcESaIcEEES8_bPSt6vectorIS6_SaIS6_EE
megaglest_editor:_ZN6Shared14PlatformCommon37getFolderTreeContentsCheckSumCacheKeyERKNSt7__cxx1112basic_stringIcSt11char_traitsIcESaIcEEES8_
megaglest_editor:_ZN6Shared14PlatformCommon37getFolderTreeContentsCheckSumCacheKeyESt6vectorINSt7__cxx1112basic_stringIcSt11char_traitsIcESaIcEEESaIS7_EES7_RKS7_
megaglest_editor:_ZN6Shared14PlatformCommon40getFolderTreeContentsCheckSumRecursivelyERKNSt7__cxx1112basic_stringIcSt11char_traitsIcESaIcEEES8_PNS_4Util8ChecksumEb
megaglest_editor:_ZN6Shared14PlatformCommon40getFolderTreeContentsCheckSumRecursivelyESt6vectorINSt7__cxx1112basic_stringIcSt11char_traitsIcESaIcEEESaIS7_EES7_RKS7_PNS_4Util8ChecksumEb
megaglest_editor:_ZN6Shared14PlatformCommon41getFolderTreeContentsCheckSumListCacheKeyERKNSt7__cxx1112basic_stringIcSt11char_traitsIcESaIcEEES8_
megaglest_editor:_ZN6Shared14PlatformCommon41getFolderTreeContentsCheckSumListCacheKeyESt6vectorINSt7__cxx1112basic_stringIcSt11char_traitsIcESaIcEEESaIS7_EES7_RKS7_
megaglest_editor:_ZN6Shared14PlatformCommon44getFolderTreeContentsCheckSumListRecursivelyERKNSt7__cxx1112basic_stringIcSt11char_traitsIcESaIcEEES8_PSt6vectorISt4pairIS6_jESaISB_EE
megaglest_editor:_ZN6Shared14PlatformCommon44getFolderTreeContentsCheckSumListRecursivelyESt6vectorINSt7__cxx1112basic_stringIcSt11char_traitsIcESaIcEEESaIS7_EES7_RKS7_PS1_ISt4pairIS7_jESaISD_EE
megaglest_editor:_ZN6Shared14PlatformCommon53getFolderTreeContentsCheckSumRecursivelyLastGeneratedESt6vectorINSt7__cxx1112basic_stringIcSt11char_traitsIcESaIcEEESaIS7_EES7_RKS7_
megaglest_editor:_ZN6Shared14PlatformCommon5isdirEPKc
megaglest_editor:_ZN6Shared14PlatformCommon5sleepEi
megaglest_editor:_ZN6Shared14PlatformCommon6Chrono10getSecondsEv
megaglest_editor:_ZN6Shared14PlatformCommon6Chrono11getCurTicksEv
megaglest_editor:_ZN6Shared14PlatformCommon6Chrono12getCurMillisEv
megaglest_editor:_ZN6Shared14PlatformCommon6Chrono12queryCounterEl
megaglest_editor:_ZN6Shared14PlatformCommon6Chrono4stopEv
megaglest_editor:_ZN6Shared14PlatformCommon6Chrono5resetEv
megaglest_editor:_ZN6Shared14PlatformCommon6Chrono5startEv
megaglest_editor:_ZN6Shared14PlatformCommon6Chrono9getMicrosEv
megaglest_editor:_ZN6Shared14PlatformCommon6Chrono9getMillisEv
megaglest_editor:_ZN6Shared14PlatformCommon6ChronoC1Eb
megaglest_editor:_ZN6Shared14PlatformCommon6ChronoC2Eb
megaglest_editor:_ZN6Shared14PlatformCommon7Private11ScreenWidthE
megaglest_editor:_ZN6Shared14PlatformCommon7Private12ScreenHeightE
megaglest_editor:_ZN6Shared14PlatformCommon7Private18shouldBeFullscreenE
megaglest_editor:_ZN6Shared14PlatformCommon7findAllERKNSt7__cxx1112basic_stringIcSt11char_traitsIcESaIcEEERSt6vectorIS6_SaIS6_EEbb
megaglest_editor:_ZN6Shared14PlatformCommon7findAllERKSt6vectorINSt7__cxx1112basic_stringIcSt11char_traitsIcESaIcEEESaIS7_EERKS7_RS9_bbb
megaglest_editor:_ZN6Shared14PlatformCommon8EndsWithERKNSt7__cxx1112basic_stringIcSt11char_traitsIcESaIcEEES8_
megaglest_editor:_ZN6Shared14PlatformCommon8ModeInfoC1Eiii
megaglest_editor:_ZN6Shared14PlatformCommon8ModeInfoC2Eiii
megaglest_editor:_ZN6Shared14PlatformCommon8TokenizeERKNSt7__cxx1112basic_stringIcSt11char_traitsIcESaIcEEERSt6vectorIS6_SaIS6_EES8_
megaglest_editor:_ZN6Shared14PlatformCommon8findDirsENSt7__cxx1112basic_stringIcSt11char_traitsIcESaIcEEERSt6vectorIS6_SaIS6_EEbb
megaglest_editor:_ZN6Shared14PlatformCommon8findDirsERKSt6vectorINSt7__cxx1112basic_stringIcSt11char_traitsIcESaIcEEESaIS7_EERS9_bb
megaglest_editor:_ZN6Shared14PlatformCommon9isKeyDownEi
megaglest_editor:_ZN6Shared3Map10MapPreview10getMapPathERKSt6vectorINSt7__cxx1112basic_stringIcSt11char_traitsIcESaIcEEESaIS8_EERKS8_S8_b
megaglest_editor:_ZN6Shared3Map10MapPreview10saveToFileERKNSt7__cxx1112basic_stringIcSt11char_traitsIcESaIcEEE
megaglest_editor:_ZN6Shared3Map10MapPreview10setSurfaceEiiNS0_14MapSurfaceTypeE
megaglest_editor:_ZN6Shared3Map10MapPreview11loadMapInfoENSt7__cxx1112basic_stringIcSt11char_traitsIcESaIcEEEPNS0_7MapInfoES7_S7_b
megaglest_editor:_ZN6Shared3Map10MapPreview11setAdvancedEiiii
megaglest_editor:_ZN6Shared3Map10MapPreview11setResourceEiii
megaglest_editor:_ZN6Shared3Map10MapPreview12changeObjectEiiii
megaglest_editor:_ZN6Shared3Map10MapPreview12loadFromFileERKNSt7__cxx1112basic_stringIcSt11char_traitsIcESaIcEEE
megaglest_editor:_ZN6Shared3Map10MapPreview12resetHeightsEi
megaglest_editor:_ZN6Shared3Map10MapPreview13changeSurfaceEiiNS0_14MapSurfaceTypeEi
megaglest_editor:_ZN6Shared3Map10MapPreview13realRandomizeEiiii
megaglest_editor:_ZN6Shared3Map10MapPreview13resetFactionsEi
megaglest_editor:_ZN6Shared3Map10MapPreview13smoothSurfaceEb
megaglest_editor:_ZN6Shared3Map10MapPreview14applyNewHeightEfiii
megaglest_editor:_ZN6Shared3Map10MapPreview14changeResourceEiiii
megaglest_editor:_ZN6Shared3Map10MapPreview14switchSurfacesENS0_14MapSurfaceTypeES2_
megaglest_editor:_ZN6Shared3Map10MapPreview16findAllValidMapsERKSt6vectorINSt7__cxx1112basic_stringIcSt11char_traitsIcESaIcEEESaIS8_EES8_bbPSA_
megaglest_editor:_ZN6Shared3Map10MapPreview16randomizeHeightsEbiiii
megaglest_editor:_ZN6Shared3Map10MapPreview17glestChangeHeightEiiii
megaglest_editor:_ZN6Shared3Map10MapPreview17randomizeFactionsEv
megaglest_editor:_ZN6Shared3Map10MapPreview18pirateChangeHeightEiiii
megaglest_editor:_ZN6Shared3Map10MapPreview19changeStartLocationEiii
megaglest_editor:_ZN6Shared3Map10MapPreview5flipXEv
megaglest_editor:_ZN6Shared3Map10MapPreview5flipYEv
megaglest_editor:_ZN6Shared3Map10MapPreview5resetEiifNS0_14MapSurfaceTypeE
megaglest_editor:_ZN6Shared3Map10MapPreview6copyXYEiiii
megaglest_editor:_ZN6Shared3Map10MapPreview6insideEii
megaglest_editor:_ZN6Shared3Map10MapPreview6resizeEiifNS0_14MapSurfaceTypeE
megaglest_editor:_ZN6Shared3Map10MapPreview6swapXYEiiii
megaglest_editor:_ZN6Shared3Map10MapPreview7isCliffEii
megaglest_editor:_ZN6Shared3Map10MapPreview7setDescERKNSt7__cxx1112basic_stringIcSt11char_traitsIcESaIcEEE
megaglest_editor:_ZN6Shared3Map10MapPreview8setTitleERKNSt7__cxx1112basic_stringIcSt11char_traitsIcESaIcEEE
megaglest_editor:_ZN6Shared3Map10MapPreview9setAuthorERKNSt7__cxx1112basic_stringIcSt11char_traitsIcESaIcEEE
megaglest_editor:_ZN6Shared3Map10MapPreview9setHeightEiif
megaglest_editor:_ZN6Shared3Map10MapPreview9setObjectEiii
megaglest_editor:_ZN6Shared3Map10MapPreview9setRefAltEii
megaglest_editor:_ZN6Shared3Map10MapPreviewC1Ev
megaglest_editor:_ZN6Shared3Map10MapPreviewC2Ev
megaglest_editor:_ZN6Shared3Map10MapPreviewD1Ev
megaglest_editor:_ZN6Shared3Map10MapPreviewD2Ev
megaglest_editor:_ZN6Shared3Map21toEndianMapFileHeaderERNS0_13MapFileHeaderE
megaglest_editor:_ZN6Shared3Map23fromEndianMapFileHeaderERNS0_13MapFileHeaderE
megaglest_editor:_ZN6Shared4Util10Properties11gameVersionB5cxx11E
megaglest_editor:_ZN6Shared4Util10Properties12loadFromTextERKNSt7__cxx1112basic_stringIcSt11char_traitsIcESaIcEEE
megaglest_editor:_ZN6Shared4Util10Properties12scenarioPathB5cxx11E
megaglest_editor:_ZN6Shared4Util10Properties12techtreePathB5cxx11E
megaglest_editor:_ZN6Shared4Util10Properties12tutorialPathB5cxx11E
megaglest_editor:_ZN6Shared4Util10Properties15applicationPathB5cxx11E
megaglest_editor:_ZN6Shared4Util10Properties15processTextLineEbPc
megaglest_editor:_ZN6Shared4Util10Properties16applyTagsToValueERNSt7__cxx1112basic_stringIcSt11char_traitsIcESaIcEEEPKSt3mapIS7_S7_St4lessIS7_ESaISt4pairIKS7_S7_EEEb
megaglest_editor:_ZN6Shared4Util10Properties19applicationDataPathB5cxx11E
megaglest_editor:_ZN6Shared4Util10Properties19isValuePathVariableERKNSt7__cxx1112basic_stringIcSt11char_traitsIcESaIcEEE
megaglest_editor:_ZN6Shared4Util10Properties23getTagReplacementValuesEPSt3mapINSt7__cxx1112basic_stringIcSt11char_traitsIcESaIcEEES8_St4lessIS8_ESaISt4pairIKS8_S8_EEE
megaglest_editor:_ZN6Shared4Util10Properties23updateValuePathVariableERNSt7__cxx1112basic_stringIcSt11char_traitsIcESaIcEEEb
megaglest_editor:_ZN6Shared4Util10Properties4loadERKNSt7__cxx1112basic_stringIcSt11char_traitsIcESaIcEEEb
megaglest_editor:_ZN6Shared4Util10Properties4saveERKNSt7__cxx1112basic_stringIcSt11char_traitsIcESaIcEEE
megaglest_editor:_ZN6Shared4Util10Properties5clearEv
megaglest_editor:_ZN6Shared4Util10Properties6setIntERKNSt7__cxx1112basic_stringIcSt11char_traitsIcESaIcEEEi
megaglest_editor:_ZN6Shared4Util10Properties7setBoolERKNSt7__cxx1112basic_stringIcSt11char_traitsIcESaIcEEEb
megaglest_editor:_ZN6Shared4Util10Properties8setFloatERKNSt7__cxx1112basic_stringIcSt11char_traitsIcESaIcEEEf
megaglest_editor:_ZN6Shared4Util10Properties8toStringB5cxx11Ev
megaglest_editor:_ZN6Shared4Util10Properties9setStringERKNSt7__cxx1112basic_stringIcSt11char_traitsIcESaIcEEES9_
megaglest_editor:_ZN6Shared4Util10cutLastExtERKNSt7__cxx1112basic_stringIcSt11char_traitsIcESaIcEEE
megaglest_editor:_ZN6Shared4Util10floatToStrB5cxx11Efi
megaglest_editor:_ZN6Shared4Util10strToFloatERKNSt7__cxx1112basic_stringIcSt11char_traitsIcESaIcEEE
megaglest_editor:_ZN6Shared4Util10strToFloatERKNSt7__cxx1112basic_stringIcSt11char_traitsIcESaIcEEEPf
megaglest_editor:_ZN6Shared4Util11ASCIItoUTF8EhPh
megaglest_editor:_ZN6Shared4Util11SystemFlags11cleanupHTTPEPPvb
megaglest_editor:_ZN6Shared4Util11SystemFlags11curl_handleE
megaglest_editor:_ZN6Shared4Util11SystemFlags11handleDebugENS1_9DebugTypeEPKcz
megaglest_editor:_ZN6Shared4Util11SystemFlags12lockfilenameB5cxx11E
megaglest_editor:_ZN6Shared4Util11SystemFlags13logDebugEntryENS1_9DebugTypeENSt7__cxx1112basic_stringIcSt11char_traitsIcESaIcEEEl
megaglest_editor:_ZN6Shared4Util11SystemFlags16debugLogFileListE
megaglest_editor:_ZN6Shared4Util11SystemFlags17globalCleanupHTTPEv
megaglest_editor:_ZN6Shared4Util11SystemFlags18lockFileCountIndexE
megaglest_editor:_ZN6Shared4Util11SystemFlags20DEFAULT_HTTP_TIMEOUTE
megaglest_editor:_ZN6Shared4Util11SystemFlags20VERBOSE_MODE_ENABLEDE
megaglest_editor:_ZN6Shared4Util11SystemFlags20setupRequiredMembersEv
megaglest_editor:_ZN6Shared4Util11SystemFlags21SHUTDOWN_PROGRAM_MODEE
megaglest_editor:_ZN6Shared4Util11SystemFlags22getLogEntryBufferCountEv
megaglest_editor:_ZN6Shared4Util11SystemFlags23ENABLE_THREADED_LOGGINGE
megaglest_editor:_ZN6Shared4Util11SystemFlags23curl_global_init_calledE
megaglest_editor:_ZN6Shared4Util11SystemFlags23httpWriteMemoryCallbackEPvmmS2_
megaglest_editor:_ZN6Shared4Util11SystemFlags24getThreadedLoggerRunningEv
megaglest_editor:_ZN6Shared4Util11SystemFlags34haveSpecialOutputCommandLineOptionE
megaglest_editor:_ZN6Shared4Util11SystemFlags4initEb
megaglest_editor:_ZN6Shared4Util11SystemFlags5CloseEv
megaglest_editor:_ZN6Shared4Util11SystemFlags7getHTTPENSt7__cxx1112basic_stringIcSt11char_traitsIcESaIcEEEPviP8CURLcode
megaglest_editor:_ZN6Shared4Util11SystemFlags8initHTTPEv
megaglest_editor:_ZN6Shared4Util11SystemFlags8lockFileE
megaglest_editor:_ZN6Shared4Util11SystemFlags9escapeURLENSt7__cxx1112basic_stringIcSt11char_traitsIcESaIcEEEPv
megaglest_editor:_ZN6Shared4Util11SystemFlagsC1Ev
megaglest_editor:_ZN6Shared4Util11SystemFlagsC2Ev
megaglest_editor:_ZN6Shared4Util11SystemFlagsD1Ev
megaglest_editor:_ZN6Shared4Util11SystemFlagsD2Ev
megaglest_editor:_ZN6Shared4Util11cutLastFileERKNSt7__cxx1112basic_stringIcSt11char_traitsIcESaIcEEE
megaglest_editor:_ZN6Shared4Util11doubleToStrB5cxx11Edi
megaglest_editor:_ZN6Shared4Util11strrev_utf8EPc
megaglest_editor:_ZN6Shared4Util11strrev_utf8ERNSt7__cxx1112basic_stringIcSt11char_traitsIcESaIcEEE
megaglest_editor:_ZN6Shared4Util12formatNumberB5cxx11Em
megaglest_editor:_ZN6Shared4Util13ConvertToUTF8EPKc
megaglest_editor:_ZN6Shared4Util13ConvertToUTF8EPKcj
megaglest_editor:_ZN6Shared4Util13ConvertToUTF8EPKcjRj
megaglest_editor:_ZN6Shared4Util13getUTF8_WidthEPKc
megaglest_editor:_ZN6Shared4Util15ConvertFromUTF8EPKc
megaglest_editor:_ZN6Shared4Util17GlobalStaticFlags18isNonGraphicalModeE
megaglest_editor:_ZN6Shared4Util17GlobalStaticFlags5flagsE
megaglest_editor:_ZN6Shared4Util18copyStringToBufferEPciRKNSt7__cxx1112basic_stringIcSt11char_traitsIcESaIcEEE
megaglest_editor:_ZN6Shared4Util19is_string_all_asciiENSt7__cxx1112basic_stringIcSt11char_traitsIcESaIcEEE
megaglest_editor:_ZN6Shared4Util20getTimeDuationStringB5cxx11Eii
megaglest_editor:_ZN6Shared4Util23compareNonCaseSensitiveENSt7__cxx1112basic_stringIcSt11char_traitsIcESaIcEEES6_
megaglest_editor:_ZN6Shared4Util24checkVersionComptabilityENSt7__cxx1112basic_stringIcSt11char_traitsIcESaIcEEES6_
megaglest_editor:_ZN6Shared4Util24compareMajorMinorVersionENSt7__cxx1112basic_stringIcSt11char_traitsIcESaIcEEES6_
megaglest_editor:_ZN6Shared4Util3extERKNSt7__cxx1112basic_stringIcSt11char_traitsIcESaIcEEE
megaglest_editor:_ZN6Shared4Util5clampEfff
megaglest_editor:_ZN6Shared4Util5clampEiii
megaglest_editor:_ZN6Shared4Util5clampElll
megaglest_editor:_ZN6Shared4Util5roundEf
megaglest_editor:_ZN6Shared4Util5splitENSt7__cxx1112basic_stringIcSt11char_traitsIcESaIcEEES6_
megaglest_editor:_ZN6Shared4Util6strrevEPc
megaglest_editor:_ZN6Shared4Util7WString8fromUtf8EPKcm
megaglest_editor:_ZN6Shared4Util7WStringC1EPKc
megaglest_editor:_ZN6Shared4Util7WStringC1ERKNSt7__cxx1112basic_stringIcSt11char_traitsIcESaIcEEE
megaglest_editor:_ZN6Shared4Util7WStringC2EPKc
megaglest_editor:_ZN6Shared4Util7WStringC2ERKNSt7__cxx1112basic_stringIcSt11char_traitsIcESaIcEEE
megaglest_editor:_ZN6Shared4Util7lastDirERKNSt7__cxx1112basic_stringIcSt11char_traitsIcESaIcEEE
megaglest_editor:_ZN6Shared4Util7toLowerERKNSt7__cxx1112basic_stringIcSt11char_traitsIcESaIcEEE
megaglest_editor:_ZN6Shared4Util8Checksum12addFileToSumERKNSt7__cxx1112basic_stringIcSt11char_traitsIcESaIcEEE
megaglest_editor:_ZN6Shared4Util8Checksum12getFileCountEv
megaglest_editor:_ZN6Shared4Util8Checksum13fileListCacheB5cxx11E
megaglest_editor:_ZN6Shared4Util8Checksum14clearFileCacheEv
megaglest_editor:_ZN6Shared4Util8Checksum19getFinalFileListSumEv
megaglest_editor:_ZN6Shared4Util8Checksum19removeFileFromCacheENSt7__cxx1112basic_stringIcSt11char_traitsIcESaIcEEE
megaglest_editor:_ZN6Shared4Util8Checksum26fileListCacheSynchAccessorE
megaglest_editor:_ZN6Shared4Util8Checksum6addIntERKi
megaglest_editor:_ZN6Shared4Util8Checksum6addSumEj
megaglest_editor:_ZN6Shared4Util8Checksum6getSumEv
megaglest_editor:_ZN6Shared4Util8Checksum7addByteEc
megaglest_editor:_ZN6Shared4Util8Checksum7addFileERKNSt7__cxx1112basic_stringIcSt11char_traitsIcESaIcEEE
megaglest_editor:_ZN6Shared4Util8Checksum7addUIntERKj
megaglest_editor:_ZN6Shared4Util8Checksum8addBytesEPKvm
megaglest_editor:_ZN6Shared4Util8Checksum8addInt64ERKl
megaglest_editor:_ZN6Shared4Util8Checksum9addStringERKNSt7__cxx1112basic_stringIcSt11char_traitsIcESaIcEEE
megaglest_editor:_ZN6Shared4Util8ChecksumC1Ev
megaglest_editor:_ZN6Shared4Util8ChecksumC2Ev
megaglest_editor:_ZN6Shared4Util8getMajorENSt7__cxx1112basic_stringIcSt11char_traitsIcESaIcEEE
megaglest_editor:_ZN6Shared4Util8getMinorENSt7__cxx1112basic_stringIcSt11char_traitsIcESaIcEEE
megaglest_editor:_ZN6Shared4Util8intToHexB5cxx11Ei
megaglest_editor:_ZN6Shared4Util8intToStrB5cxx11El
megaglest_editor:_ZN6Shared4Util8lastFileERKNSt7__cxx1112basic_stringIcSt11char_traitsIcESaIcEEE
megaglest_editor:_ZN6Shared4Util8saturateEf
megaglest_editor:_ZN6Shared4Util8strToIntERKNSt7__cxx1112basic_stringIcSt11char_traitsIcESaIcEEE
megaglest_editor:_ZN6Shared4Util8strToIntERKNSt7__cxx1112basic_stringIcSt11char_traitsIcESaIcEEEPi
megaglest_editor:_ZN6Shared4Util9IsNumericEPKcb
megaglest_editor:_ZN6Shared4Util9RandomGen13addLastCallerENSt7__cxx1112basic_stringIcSt11char_traitsIcESaIcEEE
megaglest_editor:_ZN6Shared4Util9RandomGen15clearLastCallerEv
megaglest_editor:_ZN6Shared4Util9RandomGen1aE
megaglest_editor:_ZN6Shared4Util9RandomGen1bE
megaglest_editor:_ZN6Shared4Util9RandomGen1mE
megaglest_editor:_ZN6Shared4Util9RandomGen4initEi
megaglest_editor:_ZN6Shared4Util9RandomGen4randENSt7__cxx1112basic_stringIcSt11char_traitsIcESaIcEEE
megaglest_editor:_ZN6Shared4Util9RandomGen9randRangeEffNSt7__cxx1112basic_stringIcSt11char_traitsIcESaIcEEE
megaglest_editor:_ZN6Shared4Util9RandomGen9randRangeEiiNSt7__cxx1112basic_stringIcSt11char_traitsIcESaIcEEE
megaglest_editor:_ZN6Shared4Util9RandomGenC1Ev
megaglest_editor:_ZN6Shared4Util9RandomGenC2Ev
megaglest_editor:_ZN6Shared4Util9boolToStrB5cxx11Eb
megaglest_editor:_ZN6Shared4Util9crc_tableE
megaglest_editor:_ZN6Shared4Util9replaceByERKNSt7__cxx1112basic_stringIcSt11char_traitsIcESaIcEEEcc
megaglest_editor:_ZN6Shared4Util9strToBoolERKNSt7__cxx1112basic_stringIcSt11char_traitsIcESaIcEEE
megaglest_editor:_ZN6Shared4Util9strToBoolERKNSt7__cxx1112basic_stringIcSt11char_traitsIcESaIcEEEPb
megaglest_editor:_ZN6Shared4Util9strToUIntERKNSt7__cxx1112basic_stringIcSt11char_traitsIcESaIcEEE
megaglest_editor:_ZN6Shared4Util9strToUIntERKNSt7__cxx1112basic_stringIcSt11char_traitsIcESaIcEEEPj
megaglest_editor:_ZN6Shared4Util9uIntToStrB5cxx11Em
megaglest_editor:_ZN6Shared8Graphics11FontMetrics12getTextWidthERKNSt7__cxx1112basic_stringIcSt11char_traitsIcESaIcEEE
megaglest_editor:_ZN6Shared8Graphics11FontMetrics12wordWrapTextENSt7__cxx1112basic_stringIcSt11char_traitsIcESaIcEEEi
megaglest_editor:_ZN6Shared8Graphics11FontMetrics14getTextHandlerEv
megaglest_editor:_ZN6Shared8Graphics11FontMetrics14setTextHandlerEP4Text
megaglest_editor:_ZN6Shared8Graphics11FontMetricsC1EP4Text
megaglest_editor:_ZN6Shared8Graphics11FontMetricsC2EP4Text
megaglest_editor:_ZN6Shared8Graphics11FontMetricsD1Ev
megaglest_editor:_ZN6Shared8Graphics11FontMetricsD2Ev
megaglest_editor:_ZN6Shared8Graphics12BaseRenderer14initMapSurfaceEii
megaglest_editor:_ZN6Shared8Graphics12BaseRenderer9renderMapEPNS_3Map10MapPreviewEiiiiibbb
megaglest_editor:_ZN6Shared8Graphics12is_non_ASCIIERKi
megaglest_editor:_ZN6Shared8Graphics14findFontFamilyB5cxx11EPKcS2_
megaglest_editor:_ZN6Shared8Graphics15CHECK_FONT_PATHEPKcS2_PS2_S3_
megaglest_editor:_ZN6Shared8Graphics2Gl8TextFTGL10LineHeightEPKci
megaglest_editor:_ZN6Shared8Graphics2Gl8TextFTGL10LineHeightEPKwi
megaglest_editor:_ZN6Shared8Graphics2Gl8TextFTGL11GetFaceSizeEv
megaglest_editor:_ZN6Shared8Graphics2Gl8TextFTGL11SetFaceSizeEi
megaglest_editor:_ZN6Shared8Graphics2Gl8TextFTGL11cleanupFontEv
megaglest_editor:_ZN6Shared8Graphics2Gl8TextFTGL14faceResolutionE
megaglest_editor:_ZN6Shared8Graphics2Gl8TextFTGL14langHeightTextB5cxx11E
megaglest_editor:_ZN6Shared8Graphics2Gl8TextFTGL4initENSt7__cxx1112basic_stringIcSt11char_traitsIcESaIcEEES8_i
megaglest_editor:_ZN6Shared8Graphics2Gl8TextFTGL6RenderEPKci
megaglest_editor:_ZN6Shared8Graphics2Gl8TextFTGL6RenderEPKwi
megaglest_editor:_ZN6Shared8Graphics2Gl8TextFTGL7AdvanceEPKci
megaglest_editor:_ZN6Shared8Graphics2Gl8TextFTGL7AdvanceEPKwi
megaglest_editor:_ZN6Shared8Graphics2Gl8TextFTGLC1E19FontTextHandlerType
megaglest_editor:_ZN6Shared8Graphics2Gl8TextFTGLC2E19FontTextHandlerType
megaglest_editor:_ZN6Shared8Graphics2Gl8TextFTGLD0Ev
megaglest_editor:_ZN6Shared8Graphics2Gl8TextFTGLD1Ev
megaglest_editor:_ZN6Shared8Graphics2Gl8TextFTGLD2Ev
megaglest_editor:_ZN6Shared8Graphics4Font12fontTypeNameB5cxx11E
megaglest_editor:_ZN6Shared8Graphics4Font14faceResolutionE
megaglest_editor:_ZN6Shared8Graphics4Font14langHeightTextB5cxx11E
megaglest_editor:_ZN6Shared8Graphics4Font14scaleFontValueE
megaglest_editor:_ZN6Shared8Graphics4Font15fontIsMultibyteE
megaglest_editor:_ZN6Shared8Graphics4Font15resetToDefaultsEv
megaglest_editor:_ZN6Shared8Graphics4Font16forceLegacyFontsE
megaglest_editor:_ZN6Shared8Graphics4Font17fontIsRightToLeftE
megaglest_editor:_ZN6Shared8Graphics4Font27fontSupportMixedRightToLeftE
megaglest_editor:_ZN6Shared8Graphics4Font27scaleFontValueCenterHFactorE
megaglest_editor:_ZN6Shared8Graphics4Font7setSizeEi
megaglest_editor:_ZN6Shared8Graphics4Font7setTypeENSt7__cxx1112basic_stringIcSt11char_traitsIcESaIcEEES7_S7_
megaglest_editor:_ZN6Shared8Graphics4Font8baseSizeE
megaglest_editor:_ZN6Shared8Graphics4Font8bidi_cvtERNSt7__cxx1112basic_stringIcSt11char_traitsIcESaIcEEE
megaglest_editor:_ZN6Shared8Graphics4Font8setWidthEi
megaglest_editor:_ZN6Shared8Graphics4Font9charCountE
megaglest_editor:_ZN6Shared8Graphics4FontC1E19FontTextHandlerType
megaglest_editor:_ZN6Shared8Graphics4FontC2E19FontTextHandlerType
megaglest_editor:_ZN6Shared8Graphics4FontD0Ev
megaglest_editor:_ZN6Shared8Graphics4FontD1Ev
megaglest_editor:_ZN6Shared8Graphics4FontD2Ev
megaglest_editor:_ZN6Shared8Graphics6Font2DC1E19FontTextHandlerType
megaglest_editor:_ZN6Shared8Graphics6Font2DC2E19FontTextHandlerType
megaglest_editor:_ZN6Shared8Graphics6Font3DC1E19FontTextHandlerType
megaglest_editor:_ZN6Shared8Graphics6Font3DC2E19FontTextHandlerType
megaglest_editor:_ZN6Shared8Graphics8findFontEPKcS2_
megaglest_editor:_ZN6Shared8Graphics8is_ASCIIERKi
megaglest_editor:_ZN6Shared8Platform11showMessageENSt7__cxx1112basic_stringIcSt11char_traitsIcESaIcEEES6_
megaglest_editor:_ZN6Shared8Platform14ReadWriteMutex10UnLockReadEv
megaglest_editor:_ZN6Shared8Platform14ReadWriteMutex10maxReadersEv
megaglest_editor:_ZN6Shared8Platform14ReadWriteMutex11UnLockWriteEv
megaglest_editor:_ZN6Shared8Platform14ReadWriteMutex8LockReadEv
megaglest_editor:_ZN6Shared8Platform14ReadWriteMutex9LockWriteEv
megaglest_editor:_ZN6Shared8Platform14ReadWriteMutexC1Ei
megaglest_editor:_ZN6Shared8Platform14ReadWriteMutexC2Ei
megaglest_editor:_ZN6Shared8Platform16exceptionMessageERKSt9exception
megaglest_editor:_ZN6Shared8Platform16getDialogCommandEv
megaglest_editor:_ZN6Shared8Platform23megaglest_runtime_errorC1ERKNSt7__cxx1112basic_stringIcSt11char_traitsIcESaIcEEEb
megaglest_editor:_ZN6Shared8Platform23megaglest_runtime_errorC2ERKNSt7__cxx1112basic_stringIcSt11char_traitsIcESaIcEEEb
megaglest_editor:_ZN6Shared8Platform24PlatformExceptionHandler13getStackTraceB5cxx11Ev
megaglest_editor:_ZN6Shared8Platform24PlatformExceptionHandler16disableBacktraceE
megaglest_editor:_ZN6Shared8Platform24PlatformExceptionHandler18application_binaryB5cxx11E
megaglest_editor:_ZN6Shared8Platform27MasterSlaveThreadController11clearSlavesEb
megaglest_editor:_ZN6Shared8Platform27MasterSlaveThreadController12signalSlavesEPv
megaglest_editor:_ZN6Shared8Platform27MasterSlaveThreadController13triggerMasterEi
megaglest_editor:_ZN6Shared8Platform27MasterSlaveThreadController21waitTillSlavesTriggerEi
megaglest_editor:_ZN6Shared8Platform27MasterSlaveThreadController4initERSt6vectorIPNS0_30SlaveThreadControllerInterfaceESaIS4_EE
megaglest_editor:_ZN6Shared8Platform27MasterSlaveThreadController9setSlavesERSt6vectorIPNS0_30SlaveThreadControllerInterfaceESaIS4_EE
megaglest_editor:_ZN6Shared8Platform27MasterSlaveThreadControllerC1ERSt6vectorIPNS0_30SlaveThreadControllerInterfaceESaIS4_EE
megaglest_editor:_ZN6Shared8Platform27MasterSlaveThreadControllerC1Ev
megaglest_editor:_ZN6Shared8Platform27MasterSlaveThreadControllerC2ERSt6vectorIPNS0_30SlaveThreadControllerInterfaceESaIS4_EE
megaglest_editor:_ZN6Shared8Platform27MasterSlaveThreadControllerC2Ev
megaglest_editor:_ZN6Shared8Platform27MasterSlaveThreadControllerD1Ev
megaglest_editor:_ZN6Shared8Platform27MasterSlaveThreadControllerD2Ev
megaglest_editor:_ZN6Shared8Platform5Mutex14mutexMutexListE
megaglest_editor:_ZN6Shared8Platform5Mutex9mutexListE
megaglest_editor:_ZN6Shared8Platform5MutexC1ENSt7__cxx1112basic_stringIcSt11char_traitsIcESaIcEEE
megaglest_editor:_ZN6Shared8Platform5MutexC2ENSt7__cxx1112basic_stringIcSt11char_traitsIcESaIcEEE
megaglest_editor:_ZN6Shared8Platform5MutexD1Ev
megaglest_editor:_ZN6Shared8Platform5MutexD2Ev
megaglest_editor:_ZN6Shared8Platform6Thread10threadListE
megaglest_editor:_ZN6Shared8Platform6Thread11setPriorityENS1_8PriorityE
megaglest_editor:_ZN6Shared8Platform6Thread12mainThreadIdE
megaglest_editor:_ZN6Shared8Platform6Thread13getThreadListEv
megaglest_editor:_ZN6Shared8Platform6Thread14beginExecutionEPv
megaglest_editor:_ZN6Shared8Platform6Thread15addThreadToListEv
megaglest_editor:_ZN6Shared8Platform6Thread15mutexthreadListE
megaglest_editor:_ZN6Shared8Platform6Thread15setMainThreadIdEv
megaglest_editor:_ZN6Shared8Platform6Thread15shutdownThreadsEv
megaglest_editor:_ZN6Shared8Platform6Thread17enableVerboseModeE
megaglest_editor:_ZN6Shared8Platform6Thread17threadObjectValidEv
megaglest_editor:_ZN6Shared8Platform6Thread18getCurrentThreadIdEv
megaglest_editor:_ZN6Shared8Platform6Thread20queueAutoCleanThreadEv
megaglest_editor:_ZN6Shared8Platform6Thread20removeThreadFromListEv
megaglest_editor:_ZN6Shared8Platform6Thread25isCurrentThreadMainThreadEv
megaglest_editor:_ZN6Shared8Platform6Thread29isThreadExecuteCompleteStatusEv
megaglest_editor:_ZN6Shared8Platform6Thread4killEv
megaglest_editor:_ZN6Shared8Platform6Thread5startEv
megaglest_editor:_ZN6Shared8Platform6Thread6resumeEv
megaglest_editor:_ZN6Shared8Platform6Thread7suspendEv
megaglest_editor:_ZN6Shared8Platform6ThreadC1Ev
megaglest_editor:_ZN6Shared8Platform6ThreadC2Ev
megaglest_editor:_ZN6Shared8Platform6ThreadD0Ev
megaglest_editor:_ZN6Shared8Platform6ThreadD1Ev
megaglest_editor:_ZN6Shared8Platform6ThreadD2Ev
megaglest_editor:_ZN6Shared8Platform7Trigger17waitTillSignalledEPNS0_5MutexEi
megaglest_editor:_ZN6Shared8Platform7Trigger6signalEb
megaglest_editor:_ZN6Shared8Platform7TriggerC1EPNS0_5MutexE
megaglest_editor:_ZN6Shared8Platform7TriggerC2EPNS0_5MutexE
megaglest_editor:_ZN6Shared8Platform7TriggerD1Ev
megaglest_editor:_ZN6Shared8Platform7TriggerD2Ev
megaglest_editor:_ZN6Shared8Platform7messageENSt7__cxx1112basic_stringIcSt11char_traitsIcESaIcEEEbS6_
megaglest_editor:_ZN6Shared8Platform9Semaphore11getSemValueEv
megaglest_editor:_ZN6Shared8Platform9Semaphore12tryDecrementEv
megaglest_editor:_ZN6Shared8Platform9Semaphore13resetSemValueEj
megaglest_editor:_ZN6Shared8Platform9Semaphore17waitTillSignalledEi
megaglest_editor:_ZN6Shared8Platform9Semaphore6signalEv
megaglest_editor:_ZN6Shared8Platform9SemaphoreC1Ej
megaglest_editor:_ZN6Shared8Platform9SemaphoreC2Ej
megaglest_editor:_ZN6Shared8Platform9SemaphoreD1Ev
megaglest_editor:_ZN6Shared8Platform9SemaphoreD2Ev
megaglest_editor:_ZN9MapEditor10MainWindow11onMouseDownER12wxMouseEventii
megaglest_editor:_ZN9MapEditor10MainWindow11onMouseMoveER12wxMouseEventii
megaglest_editor:_ZN9MapEditor10MainWindow12initGlCanvasEv
megaglest_editor:_ZN9MapEditor10MainWindow12onMenuRadiusER14wxCommandEvent
megaglest_editor:_ZN9MapEditor10MainWindow12onToolPlayerER14wxCommandEvent
megaglest_editor:_ZN9MapEditor10MainWindow12setExtensionEv
megaglest_editor:_ZN9MapEditor10MainWindow12uncheckBrushEv
megaglest_editor:_ZN9MapEditor10MainWindow13sm_eventTableE
megaglest_editor:_ZN9MapEditor10MainWindow13uncheckRadiusEv
megaglest_editor:_ZN9MapEditor10MainWindow14onMenuEditInfoER14wxCommandEvent
megaglest_editor:_ZN9MapEditor10MainWindow14onMenuEditRedoER14wxCommandEvent
megaglest_editor:_ZN9MapEditor10MainWindow14onMenuEditUndoER14wxCommandEvent
megaglest_editor:_ZN9MapEditor10MainWindow14onMenuFileExitER14wxCommandEvent
megaglest_editor:_ZN9MapEditor10MainWindow14onMenuFileLoadER14wxCommandEvent
megaglest_editor:_ZN9MapEditor10MainWindow14onMenuFileSaveER14wxCommandEvent
megaglest_editor:_ZN9MapEditor10MainWindow14onMenuViewGridER14wxCommandEvent
megaglest_editor:_ZN9MapEditor10MainWindow14onMenuViewHelpER14wxCommandEvent
megaglest_editor:_ZN9MapEditor10MainWindow14onMouseWheelUpER12wxMouseEvent
megaglest_editor:_ZN9MapEditor10MainWindow15onMenuEditFlipXER14wxCommandEvent
megaglest_editor:_ZN9MapEditor10MainWindow15onMenuEditFlipYER14wxCommandEvent
megaglest_editor:_ZN9MapEditor10MainWindow15onMenuEditResetER14wxCommandEvent
megaglest_editor:_ZN9MapEditor10MainWindow15onMenuHideWaterER14wxCommandEvent
megaglest_editor:_ZN9MapEditor10MainWindow15onMenuViewAboutER14wxCommandEvent
megaglest_editor:_ZN9MapEditor10MainWindow16onMenuEditResizeER14wxCommandEvent
megaglest_editor:_ZN9MapEditor10MainWindow16onMenuFileSaveAsER14wxCommandEvent
megaglest_editor:_ZN9MapEditor10MainWindow16onMouseWheelDownER12wxMouseEvent
megaglest_editor:_ZN9MapEditor10MainWindow16refreshMapRenderEv
megaglest_editor:_ZN9MapEditor10MainWindow17onMenuBrushHeightER14wxCommandEvent
megaglest_editor:_ZN9MapEditor10MainWindow17onMenuBrushObjectER14wxCommandEvent
megaglest_editor:_ZN9MapEditor10MainWindow17onMenuEditMirrorXER14wxCommandEvent
megaglest_editor:_ZN9MapEditor10MainWindow17onMenuEditMirrorYER14wxCommandEvent
megaglest_editor:_ZN9MapEditor10MainWindow17sm_eventHashTableE
megaglest_editor:_ZN9MapEditor10MainWindow18onMenuBrushSurfaceER14wxCommandEvent
megaglest_editor:_ZN9MapEditor10MainWindow18onMenuEditAdvancedER14wxCommandEvent
megaglest_editor:_ZN9MapEditor10MainWindow18onMenuEditMirrorXYER14wxCommandEvent
megaglest_editor:_ZN9MapEditor10MainWindow19onMenuBrushGradientER14wxCommandEvent
megaglest_editor:_ZN9MapEditor10MainWindow19onMenuBrushResourceER14wxCommandEvent
megaglest_editor:_ZN9MapEditor10MainWindow19onMenuEditRandomizeER14wxCommandEvent
megaglest_editor:_ZN9MapEditor10MainWindow19onMenuViewHeightMapER14wxCommandEvent
megaglest_editor:_ZN9MapEditor10MainWindow20setupStartupSettingsEv
megaglest_editor:_ZN9MapEditor10MainWindow20sm_eventTableEntriesE
megaglest_editor:_ZN9MapEditor10MainWindow21onMenuEditRotatecopyXER14wxCommandEvent
megaglest_editor:_ZN9MapEditor10MainWindow21onMenuEditRotatecopyYER14wxCommandEvent
megaglest_editor:_ZN9MapEditor10MainWindow22onMenuEditFlipDiagonalER14wxCommandEvent
megaglest_editor:_ZN9MapEditor10MainWindow22onMenuEditResetPlayersER14wxCommandEvent
megaglest_editor:_ZN9MapEditor10MainWindow22onMenuEditRotatecopyXYER14wxCommandEvent
megaglest_editor:_ZN9MapEditor10MainWindow24onMenuBrushStartLocationER14wxCommandEvent
megaglest_editor:_ZN9MapEditor10MainWindow24onMenuEditSwitchSurfacesER14wxCommandEvent
megaglest_editor:_ZN9MapEditor10MainWindow25onMenuViewResetZoomAndPosER14wxCommandEvent
megaglest_editor:_ZN9MapEditor10MainWindow26onMenuEditRandomizeHeightsER14wxCommandEvent
megaglest_editor:_ZN9MapEditor10MainWindow26onMenuEditRotatecopyCornerER14wxCommandEvent
megaglest_editor:_ZN9MapEditor10MainWindow4initENSt7__cxx1112basic_stringIcSt11char_traitsIcESaIcEEE
megaglest_editor:_ZN9MapEditor10MainWindow6changeEii
megaglest_editor:_ZN9MapEditor10MainWindow7onCloseER12wxCloseEvent
megaglest_editor:_ZN9MapEditor10MainWindow7onPaintER12wxPaintEvent
megaglest_editor:_ZN9MapEditor10MainWindow8setDirtyEb
megaglest_editor:_ZN9MapEditor10MainWindow9onKeyDownER10wxKeyEvent
megaglest_editor:_ZN9MapEditor10MainWindow9winHeaderB5cxx11E
megaglest_editor:_ZN9MapEditor10MainWindowC1ENSt7__cxx1112basic_stringIcSt11char_traitsIcESaIcEEE
megaglest_editor:_ZN9MapEditor10MainWindowC2ENSt7__cxx1112basic_stringIcSt11char_traitsIcESaIcEEE
megaglest_editor:_ZN9MapEditor10MainWindowD0Ev
megaglest_editor:_ZN9MapEditor10MainWindowD1Ev
megaglest_editor:_ZN9MapEditor10MainWindowD2Ev
megaglest_editor:_ZN9MapEditor11MainToolBar11onMouseMoveER12wxMouseEvent
megaglest_editor:_ZN9MapEditor11MainToolBar13sm_eventTableE
megaglest_editor:_ZN9MapEditor11MainToolBar17sm_eventHashTableE
megaglest_editor:_ZN9MapEditor11MainToolBar20sm_eventTableEntriesE
megaglest_editor:_ZN9MapEditor12SimpleDialog4showERKNSt7__cxx1112basic_stringIcSt11char_traitsIcESaIcEEEb
megaglest_editor:_ZN9MapEditor12SimpleDialog8addValueERKNSt7__cxx1112basic_stringIcSt11char_traitsIcESaIcEEES8_S8_
megaglest_editor:_ZN9MapEditor12SimpleDialog8getValueERKNSt7__cxx1112basic_stringIcSt11char_traitsIcESaIcEEE
megaglest_editor:_ZN9MapEditor12object_descsE
megaglest_editor:_ZN9MapEditor13surface_descsE
megaglest_editor:_ZN9MapEditor14resource_descsE
megaglest_editor:_ZN9MapEditor15translateCoordsEP8wxWindowRiS2_
megaglest_editor:_ZN9MapEditor3App6OnExitEv
megaglest_editor:_ZN9MapEditor3App6OnInitEv
megaglest_editor:_ZN9MapEditor3App8MainLoopEv
megaglest_editor:_ZN9MapEditor7Program10resetOfsetEv
megaglest_editor:_ZN9MapEditor7Program10setMapDescERKNSt7__cxx1112basic_stringIcSt11char_traitsIcESaIcEEE
megaglest_editor:_ZN9MapEditor7Program10shiftRightEv
megaglest_editor:_ZN9MapEditor7Program11getResourceEii
megaglest_editor:_ZN9MapEditor7Program11incCellSizeEi
megaglest_editor:_ZN9MapEditor7Program11rotatecopyXEv
megaglest_editor:_ZN9MapEditor7Program11rotatecopyYEv
megaglest_editor:_ZN9MapEditor7Program11setMapTitleERKNSt7__cxx1112basic_stringIcSt11char_traitsIcESaIcEEE
megaglest_editor:_ZN9MapEditor7Program12flipDiagonalEv
megaglest_editor:_ZN9MapEditor7Program12rotatecopyXYEv
megaglest_editor:_ZN9MapEditor7Program12setGridOnOffEv
megaglest_editor:_ZN9MapEditor7Program12setMapAuthorERKNSt7__cxx1112basic_stringIcSt11char_traitsIcESaIcEEE
megaglest_editor:_ZN9MapEditor7Program12setUndoPointENS_10ChangeTypeE
megaglest_editor:_ZN9MapEditor7Program13resetFactionsEi
megaglest_editor:_ZN9MapEditor7Program14setMapAdvancedEiiii
megaglest_editor:_ZN9MapEditor7Program15changeMapObjectEiiii
megaglest_editor:_ZN9MapEditor7Program16changeMapSurfaceEiiii
megaglest_editor:_ZN9MapEditor7Program16rotatecopyCornerEv
megaglest_editor:_ZN9MapEditor7Program17changeMapResourceEiiii
megaglest_editor:_ZN9MapEditor7Program17randomizeFactionsEv
megaglest_editor:_ZN9MapEditor7Program17setHeightMapOnOffEv
megaglest_editor:_ZN9MapEditor7Program17setHideWaterOnOffEv
megaglest_editor:_ZN9MapEditor7Program17switchMapSurfacesEii
megaglest_editor:_ZN9MapEditor7Program19changeStartLocationEiii
megaglest_editor:_ZN9MapEditor7Program19randomizeMapHeightsEbiiii
megaglest_editor:_ZN9MapEditor7Program20glestChangeMapHeightEiiii
megaglest_editor:_ZN9MapEditor7Program21pirateChangeMapHeightEiiii
megaglest_editor:_ZN9MapEditor7Program3mapE
megaglest_editor:_ZN9MapEditor7Program4initEv
megaglest_editor:_ZN9MapEditor7Program4redoEv
megaglest_editor:_ZN9MapEditor7Program4undoEv
megaglest_editor:_ZN9MapEditor7Program5flipXEv
megaglest_editor:_ZN9MapEditor7Program5flipYEv
megaglest_editor:_ZN9MapEditor7Program5resetEiiii
megaglest_editor:_ZN9MapEditor7Program6resizeEiiii
megaglest_editor:_ZN9MapEditor7Program7loadMapERKNSt7__cxx1112basic_stringIcSt11char_traitsIcESaIcEEE
megaglest_editor:_ZN9MapEditor7Program7mirrorXEv
megaglest_editor:_ZN9MapEditor7Program7mirrorYEv
megaglest_editor:_ZN9MapEditor7Program7saveMapERKNSt7__cxx1112basic_stringIcSt11char_traitsIcESaIcEEE
megaglest_editor:_ZN9MapEditor7Program7shiftUpEv
megaglest_editor:_ZN9MapEditor7Program8getCellXEi
megaglest_editor:_ZN9MapEditor7Program8getCellYEi
megaglest_editor:_ZN9MapEditor7Program8mirrorXYEv
megaglest_editor:_ZN9MapEditor7Program8setOfsetEii
megaglest_editor:_ZN9MapEditor7Program9getObjectEii
megaglest_editor:_ZN9MapEditor7Program9renderMapEii
megaglest_editor:_ZN9MapEditor7Program9setRefAltEii
megaglest_editor:_ZN9MapEditor7Program9shiftDownEv
megaglest_editor:_ZN9MapEditor7Program9shiftLeftEv
megaglest_editor:_ZN9MapEditor7ProgramC1EiiNSt7__cxx1112basic_stringIcSt11char_traitsIcESaIcEEE
megaglest_editor:_ZN9MapEditor7ProgramC2EiiNSt7__cxx1112basic_stringIcSt11char_traitsIcESaIcEEE
megaglest_editor:_ZN9MapEditor7ProgramD1Ev
megaglest_editor:_ZN9MapEditor7ProgramD2Ev
megaglest_editor:_ZN9MapEditor8GlCanvas11onMouseDownER12wxMouseEvent
megaglest_editor:_ZN9MapEditor8GlCanvas11onMouseMoveER12wxMouseEvent
megaglest_editor:_ZN9MapEditor8GlCanvas12onMouseWheelER12wxMouseEvent
megaglest_editor:_ZN9MapEditor8GlCanvas13sm_eventTableE
megaglest_editor:_ZN9MapEditor8GlCanvas17sm_eventHashTableE
megaglest_editor:_ZN9MapEditor8GlCanvas19setCurrentGLContextEv
megaglest_editor:_ZN9MapEditor8GlCanvas20sm_eventTableEntriesE
megaglest_editor:_ZN9MapEditor8GlCanvas7onPaintER12wxPaintEvent
megaglest_editor:_ZN9MapEditor8GlCanvas9onKeyDownER10wxKeyEvent
megaglest_editor:_ZN9MapEditor8GlCanvasC1EPNS_10MainWindowEP8wxWindowPi
megaglest_editor:_ZN9MapEditor8GlCanvasC2EPNS_10MainWindowEP8wxWindowPi
megaglest_editor:_ZN9MapEditor8GlCanvasD0Ev
megaglest_editor:_ZN9MapEditor8GlCanvasD1Ev
megaglest_editor:_ZN9MapEditor8GlCanvasD2Ev
megaglest_editor:_ZN9MapEditor9MsgDialogC1EP8wxWindowRK8wxStringS5_lRK7wxPoint
megaglest_editor:_ZN9MapEditor9MsgDialogC2EP8wxWindowRK8wxStringS5_lRK7wxPoint
megaglest_editor:_ZN9MapEditor9MsgDialogD0Ev
megaglest_editor:_ZN9MapEditor9MsgDialogD1Ev
megaglest_editor:_ZN9MapEditor9MsgDialogD2Ev
megaglest_editor:_ZN9MapEditor9ToUnicodeEPKc
megaglest_editor:_ZN9MapEditor9ToUnicodeERKNSt7__cxx1112basic_stringIcSt11char_traitsIcESaIcEEE
megaglest_editor:_ZN9MapEditor9UndoPoint1hE
megaglest_editor:_ZN9MapEditor9UndoPoint1wE
megaglest_editor:_ZN9MapEditor9UndoPoint4initENS_10ChangeTypeE
megaglest_editor:_ZN9MapEditor9UndoPoint6revertEv
megaglest_editor:_ZN9MapEditor9UndoPointC1Ev
megaglest_editor:_ZN9MapEditor9UndoPointC2Ev
megaglest_editor:_ZN9MapEditor9UndoPointD1Ev
megaglest_editor:_ZN9MapEditor9UndoPointD2Ev
megaglest_editor:_ZNK5Glest4Game6Config11getFileNameB5cxx11Eb
megaglest_editor:_ZNK5Glest4Game6Config17getUserPropertiesB5cxx11Ev
megaglest_editor:_ZNK5Glest4Game6Config19getMasterPropertiesB5cxx11Ev
megaglest_editor:_ZNK5Glest4Game6Config19getMergedPropertiesB5cxx11Ev
megaglest_editor:_ZNK5Glest4Game6Config23translateStringToSDLKeyERKNSt7__cxx1112basic_stringIcSt11char_traitsIcESaIcEEE
megaglest_editor:_ZNK5Glest4Game6Config26getPropertiesFromContainerB5cxx11ERKN6Shared4Util10PropertiesE
megaglest_editor:_ZNK5Glest4Game6Config6getIntEPKcS3_
megaglest_editor:_ZNK5Glest4Game6Config6getIntERKNSt7__cxx1112basic_stringIcSt11char_traitsIcESaIcEEEPKc
megaglest_editor:_ZNK5Glest4Game6Config7getBoolEPKcS3_
megaglest_editor:_ZNK5Glest4Game6Config7getBoolERKNSt7__cxx1112basic_stringIcSt11char_traitsIcESaIcEEEPKc
megaglest_editor:_ZNK5Glest4Game6Config8getFloatEPKcS3_
megaglest_editor:_ZNK5Glest4Game6Config8getFloatERKNSt7__cxx1112basic_stringIcSt11char_traitsIcESaIcEEEPKc
megaglest_editor:_ZNK5Glest4Game6Config9getSDLKeyEPKc
megaglest_editor:_ZNK5Glest4Game6Config9getStringB5cxx11EPKcS3_
megaglest_editor:_ZNK5Glest4Game6Config9getStringERKNSt7__cxx1112basic_stringIcSt11char_traitsIcESaIcEEEPKc
megaglest_editor:_ZNK6Shared14PlatformCommon17ValueCheckerVault16checkItemInVaultEPKvi
megaglest_editor:_ZNK6Shared14PlatformCommon6Chrono9isStartedEv
megaglest_editor:_ZNK6Shared14PlatformCommon8ModeInfo9getStringB5cxx11Ev
megaglest_editor:_ZNK6Shared3Map10MapPreview10getSurfaceEii
megaglest_editor:_ZNK6Shared3Map10MapPreview11getResourceEii
megaglest_editor:_ZNK6Shared3Map10MapPreview17getStartLocationXEi
megaglest_editor:_ZNK6Shared3Map10MapPreview17getStartLocationYEi
megaglest_editor:_ZNK6Shared3Map10MapPreview9getHeightEii
megaglest_editor:_ZNK6Shared3Map10MapPreview9getObjectEii
megaglest_editor:_ZNK6Shared4Util10Properties12getRandomKeyB5cxx11Eb
megaglest_editor:_ZNK6Shared4Util10Properties16getPropertyCountEv
megaglest_editor:_ZNK6Shared4Util10Properties6getIntEPKcS3_
megaglest_editor:_ZNK6Shared4Util10Properties6getIntERKNSt7__cxx1112basic_stringIcSt11char_traitsIcESaIcEEEPKc
megaglest_editor:_ZNK6Shared4Util10Properties6getIntERKNSt7__cxx1112basic_stringIcSt11char_traitsIcESaIcEEEiiPKc
megaglest_editor:_ZNK6Shared4Util10Properties6getKeyB5cxx11Ei
megaglest_editor:_ZNK6Shared4Util10Properties7getBoolEPKcS3_
megaglest_editor:_ZNK6Shared4Util10Properties7getBoolERKNSt7__cxx1112basic_stringIcSt11char_traitsIcESaIcEEEPKc
megaglest_editor:_ZNK6Shared4Util10Properties8getFloatEPKcS3_
megaglest_editor:_ZNK6Shared4Util10Properties8getFloatERKNSt7__cxx1112basic_stringIcSt11char_traitsIcESaIcEEEPKc
megaglest_editor:_ZNK6Shared4Util10Properties8getFloatERKNSt7__cxx1112basic_stringIcSt11char_traitsIcESaIcEEEffPKc
megaglest_editor:_ZNK6Shared4Util10Properties9getStringB5cxx11EPKcS3_
megaglest_editor:_ZNK6Shared4Util10Properties9getStringB5cxx11Ei
megaglest_editor:_ZNK6Shared4Util10Properties9getStringERKNSt7__cxx1112basic_stringIcSt11char_traitsIcESaIcEEEPKc
megaglest_editor:_ZNK6Shared4Util10Properties9hasStringERKNSt7__cxx1112basic_stringIcSt11char_traitsIcESaIcEEE
megaglest_editor:_ZNK6Shared4Util9RandomGen13getLastCallerB5cxx11Ev
megaglest_editor:_ZNK6Shared8Graphics11FontMetrics9getHeightERKNSt7__cxx1112basic_stringIcSt11char_traitsIcESaIcEEE
megaglest_editor:_ZNK6Shared8Graphics4Font7getSizeEv
megaglest_editor:_ZNK6Shared8Graphics4Font7getTypeB5cxx11Ev
megaglest_editor:_ZNK6Shared8Graphics4Font8getWidthEv
megaglest_editor:_ZNK9MapEditor10MainWindow13GetEventTableEv
megaglest_editor:_ZNK9MapEditor10MainWindow17GetEventHashTableEv
megaglest_editor:_ZNK9MapEditor11MainToolBar13GetEventTableEv
megaglest_editor:_ZNK9MapEditor11MainToolBar17GetEventHashTableEv
megaglest_editor:_ZNK9MapEditor8GlCanvas13GetEventTableEv
megaglest_editor:_ZNK9MapEditor8GlCanvas17GetEventHashTableEv
megaglest_editor:__bss_start
megaglest_editor:__data_start
megaglest_editor:_edata
megaglest_editor:_end
megaglest_editor:_start
megaglest_editor:main
megaglest_editor:wxTheAppInitializer
megaglest_g3dviewer:_IO_stdin_used
megaglest_g3dviewer:_Z10fileFormatB5cxx11
megaglest_g3dviewer:_Z11wxCreateAppv
megaglest_g3dviewer:_Z8wxGetAppv
megaglest_g3dviewer:_ZN13streflop_libm11__copysignfEff
megaglest_g3dviewer:_ZN13streflop_libm13__kernel_cosfEff
megaglest_g3dviewer:_ZN13streflop_libm13__kernel_sinfEffi
megaglest_g3dviewer:_ZN13streflop_libm15__ieee754_fmodfEff
megaglest_g3dviewer:_ZN13streflop_libm15__ieee754_sqrtfEf
megaglest_g3dviewer:_ZN13streflop_libm16__ieee754_atan2fEff
megaglest_g3dviewer:_ZN13streflop_libm18__kernel_rem_pio2fEPfS0_iiiPKi
megaglest_g3dviewer:_ZN13streflop_libm19__ieee754_rem_pio2fEfPf
megaglest_g3dviewer:_ZN13streflop_libm6__cosfEf
megaglest_g3dviewer:_ZN13streflop_libm6__sinfEf
megaglest_g3dviewer:_ZN13streflop_libm7__atanfEf
megaglest_g3dviewer:_ZN13streflop_libm7__fabsfEf
megaglest_g3dviewer:_ZN13streflop_libm8__floorfEf
megaglest_g3dviewer:_ZN13streflop_libm9__scalbnfEfi
megaglest_g3dviewer:_ZN4Text10LineHeightEPKci
megaglest_g3dviewer:_ZN4Text10LineHeightEPKwi
megaglest_g3dviewer:_ZN4Text11GetFaceSizeEv
megaglest_g3dviewer:_ZN4Text11SetFaceSizeEi
megaglest_g3dviewer:_ZN4Text17DEFAULT_FONT_PATHB5cxx11E
megaglest_g3dviewer:_ZN4Text26DEFAULT_FONT_PATH_ABSOLUTEB5cxx11E
megaglest_g3dviewer:_ZN4Text4initENSt7__cxx1112basic_stringIcSt11char_traitsIcESaIcEEES5_i
megaglest_g3dviewer:_ZN4Text6RenderEPKci
megaglest_g3dviewer:_ZN4Text6RenderEPKwi
megaglest_g3dviewer:_ZN4Text7AdvanceEPKci
megaglest_g3dviewer:_ZN4Text7AdvanceEPKwi
megaglest_g3dviewer:_ZN4TextC1E19FontTextHandlerType
megaglest_g3dviewer:_ZN4TextC2E19FontTextHandlerType
megaglest_g3dviewer:_ZN4TextD0Ev
megaglest_g3dviewer:_ZN4TextD1Ev
megaglest_g3dviewer:_ZN4TextD2Ev
megaglest_g3dviewer:_ZN5Glest4Game13GameConstants14easyMultiplierE
megaglest_g3dviewer:_ZN5Glest4Game13GameConstants14megaMultiplierE
megaglest_g3dviewer:_ZN5Glest4Game13GameConstants15HUD_SCREEN_FILEE
megaglest_g3dviewer:_ZN5Glest4Game13GameConstants15ultraMultiplierE
megaglest_g3dviewer:_ZN5Glest4Game13GameConstants16application_nameE
megaglest_g3dviewer:_ZN5Glest4Game13GameConstants16folder_path_mapsE
megaglest_g3dviewer:_ZN5Glest4Game13GameConstants16normalMultiplierE
megaglest_g3dviewer:_ZN5Glest4Game13GameConstants17OBSERVER_SLOTNAMEE
megaglest_g3dviewer:_ZN5Glest4Game13GameConstants17folder_path_techsE
megaglest_g3dviewer:_ZN5Glest4Game13GameConstants18networkFramePeriodE
megaglest_g3dviewer:_ZN5Glest4Game13GameConstants18pathCacheLookupKeyE
megaglest_g3dviewer:_ZN5Glest4Game13GameConstants19LOADING_SCREEN_FILEE
megaglest_g3dviewer:_ZN5Glest4Game13GameConstants19PREVIEW_SCREEN_FILEE
megaglest_g3dviewer:_ZN5Glest4Game13GameConstants19saveGameFileDefaultE
megaglest_g3dviewer:_ZN5Glest4Game13GameConstants19saveGameFilePatternE
megaglest_g3dviewer:_ZN5Glest4Game13GameConstants20folder_path_tilesetsE
megaglest_g3dviewer:_ZN5Glest4Game13GameConstants21folder_path_scenariosE
megaglest_g3dviewer:_ZN5Glest4Game13GameConstants21folder_path_tutorialsE
megaglest_g3dviewer:_ZN5Glest4Game13GameConstants22HUD_SCREEN_FILE_FILTERE
megaglest_g3dviewer:_ZN5Glest4Game13GameConstants22RANDOMFACTION_SLOTNAMEE
megaglest_g3dviewer:_ZN5Glest4Game13GameConstants23folder_path_screenshotsE
megaglest_g3dviewer:_ZN5Glest4Game13GameConstants23ircClientCacheLookupKeyE
megaglest_g3dviewer:_ZN5Glest4Game13GameConstants23path_ini_CacheLookupKeyE
megaglest_g3dviewer:_ZN5Glest4Game13GameConstants24path_data_CacheLookupKeyE
megaglest_g3dviewer:_ZN5Glest4Game13GameConstants24path_logs_CacheLookupKeyE
megaglest_g3dviewer:_ZN5Glest4Game13GameConstants25saveNetworkGameFileClientE
megaglest_g3dviewer:_ZN5Glest4Game13GameConstants25saveNetworkGameFileServerE
megaglest_g3dviewer:_ZN5Glest4Game13GameConstants26LOADING_SCREEN_FILE_FILTERE
megaglest_g3dviewer:_ZN5Glest4Game13GameConstants26PREVIEW_SCREEN_FILE_FILTERE
megaglest_g3dviewer:_ZN5Glest4Game13GameConstants27playerTextureCacheLookupKeyE
megaglest_g3dviewer:_ZN5Glest4Game13GameConstants27saveGameFileAutoTestDefaultE
megaglest_g3dviewer:_ZN5Glest4Game13GameConstants28NETWORK_SLOT_CLOSED_SLOTNAMEE
megaglest_g3dviewer:_ZN5Glest4Game13GameConstants28preCacheThreadCacheLookupKeyE
megaglest_g3dviewer:_ZN5Glest4Game13GameConstants33NETWORK_SLOT_UNCONNECTED_SLOTNAMEE
megaglest_g3dviewer:_ZN5Glest4Game13GameConstants35factionPreviewTextureCacheLookupKeyE
megaglest_g3dviewer:_ZN5Glest4Game13GameConstants35saveNetworkGameFileClientCompressedE
megaglest_g3dviewer:_ZN5Glest4Game13GameConstants35saveNetworkGameFileServerCompressedE
megaglest_g3dviewer:_ZN5Glest4Game13GameConstants45characterMenuScreenPositionListCacheLookupKeyE
megaglest_g3dviewer:_ZN5Glest4Game13GameConstants9cameraFpsE
megaglest_g3dviewer:_ZN5Glest4Game13GameConstants9updateFpsE
megaglest_g3dviewer:_ZN5Glest4Game18ParticleSystemType4loadEPKN6Shared3Xml7XmlNodeERKNSt7__cxx1112basic_stringIcSt11char_traitsIcESaIcEEEPNS2_8Graphics17RendererInterfaceERSt3mapISC_St6vectorISt4pairISC_SC_ESaISL_EESt4lessISC_ESaISK_ISD_SN_EEESC_SC_
megaglest_g3dviewer:_ZN5Glest4Game18ParticleSystemType7copyAllERKS1_
megaglest_g3dviewer:_ZN5Glest4Game18ParticleSystemType8loadGameEPKN6Shared3Xml7XmlNodeE
megaglest_g3dviewer:_ZN5Glest4Game18ParticleSystemType8saveGameEPN6Shared3Xml7XmlNodeE
megaglest_g3dviewer:_ZN5Glest4Game18ParticleSystemType9setValuesEPN6Shared8Graphics20AttackParticleSystemE
megaglest_g3dviewer:_ZN5Glest4Game18ParticleSystemTypeC1ERKS1_
megaglest_g3dviewer:_ZN5Glest4Game18ParticleSystemTypeC1Ev
megaglest_g3dviewer:_ZN5Glest4Game18ParticleSystemTypeC2ERKS1_
megaglest_g3dviewer:_ZN5Glest4Game18ParticleSystemTypeC2Ev
megaglest_g3dviewer:_ZN5Glest4Game18ParticleSystemTypeD0Ev
megaglest_g3dviewer:_ZN5Glest4Game18ParticleSystemTypeD1Ev
megaglest_g3dviewer:_ZN5Glest4Game18ParticleSystemTypeD2Ev
megaglest_g3dviewer:_ZN5Glest4Game18ParticleSystemTypeaSERKS1_
megaglest_g3dviewer:_ZN5Glest4Game20getGameReadWritePathENSt7__cxx1112basic_stringIcSt11char_traitsIcESaIcEEE
megaglest_g3dviewer:_ZN5Glest4Game22UnitParticleSystemType4loadEPKN6Shared3Xml7XmlNodeERKNSt7__cxx1112basic_stringIcSt11char_traitsIcESaIcEEEPNS2_8Graphics17RendererInterfaceERSt3mapISC_St6vectorISt4pairISC_SC_ESaISL_EESt4lessISC_ESaISK_ISD_SN_EEESC_SC_
megaglest_g3dviewer:_ZN5Glest4Game22UnitParticleSystemType4loadEPKN6Shared3Xml7XmlNodeERKNSt7__cxx1112basic_stringIcSt11char_traitsIcESaIcEEESE_PNS2_8Graphics17RendererInterfaceERSt3mapISC_St6vectorISt4pairISC_SC_ESaISL_EESt4lessISC_ESaISK_ISD_SN_EEESC_SC_
megaglest_g3dviewer:_ZN5Glest4Game22UnitParticleSystemType8loadGameEPKN6Shared3Xml7XmlNodeE
megaglest_g3dviewer:_ZN5Glest4Game22UnitParticleSystemType8saveGameEPN6Shared3Xml7XmlNodeE
megaglest_g3dviewer:_ZN5Glest4Game22UnitParticleSystemType9setValuesEPN6Shared8Graphics18UnitParticleSystemE
megaglest_g3dviewer:_ZN5Glest4Game22UnitParticleSystemTypeC1Ev
megaglest_g3dviewer:_ZN5Glest4Game22UnitParticleSystemTypeC2Ev
megaglest_g3dviewer:_ZN5Glest4Game24ObjectParticleSystemTypeC1Ev
megaglest_g3dviewer:_ZN5Glest4Game24ObjectParticleSystemTypeC2Ev
megaglest_g3dviewer:_ZN5Glest4Game24ObjectParticleSystemTypeD0Ev
megaglest_g3dviewer:_ZN5Glest4Game24ObjectParticleSystemTypeD1Ev
megaglest_g3dviewer:_ZN5Glest4Game24ObjectParticleSystemTypeD2Ev
megaglest_g3dviewer:_ZN5Glest4Game24ParticleSystemTypeSplash4loadEPKN6Shared3Xml7XmlNodeERKNSt7__cxx1112basic_stringIcSt11char_traitsIcESaIcEEESE_PNS2_8Graphics17RendererInterfaceERSt3mapISC_St6vectorISt4pairISC_SC_ESaISL_EESt4lessISC_ESaISK_ISD_SN_EEESC_SC_
megaglest_g3dviewer:_ZN5Glest4Game24ParticleSystemTypeSplash6createEPN6Shared8Graphics13ParticleOwnerE
megaglest_g3dviewer:_ZN5Glest4Game24ParticleSystemTypeSplash8saveGameEPN6Shared3Xml7XmlNodeE
megaglest_g3dviewer:_ZN5Glest4Game24ParticleSystemTypeSplashC1Ev
megaglest_g3dviewer:_ZN5Glest4Game24ParticleSystemTypeSplashC2Ev
megaglest_g3dviewer:_ZN5Glest4Game28ParticleSystemTypeProjectile4loadEPKN6Shared3Xml7XmlNodeERKNSt7__cxx1112basic_stringIcSt11char_traitsIcESaIcEEESE_PNS2_8Graphics17RendererInterfaceERSt3mapISC_St6vectorISt4pairISC_SC_ESaISL_EESt4lessISC_ESaISK_ISD_SN_EEESC_SC_
megaglest_g3dviewer:_ZN5Glest4Game28ParticleSystemTypeProjectile6createEPN6Shared8Graphics13ParticleOwnerE
megaglest_g3dviewer:_ZN5Glest4Game28ParticleSystemTypeProjectile8saveGameEPN6Shared3Xml7XmlNodeE
megaglest_g3dviewer:_ZN5Glest4Game28ParticleSystemTypeProjectileC1Ev
megaglest_g3dviewer:_ZN5Glest4Game28ParticleSystemTypeProjectileC2Ev
megaglest_g3dviewer:_ZN5Glest4Game6Config10configListE
megaglest_g3dviewer:_ZN5Glest4Game6Config10getMapPathERKNSt7__cxx1112basic_stringIcSt11char_traitsIcESaIcEEES7_b
megaglest_g3dviewer:_ZN5Glest4Game6Config11getInstanceESt4pairINS0_10ConfigTypeES3_ES2_INSt7__cxx1112basic_stringIcSt11char_traitsIcESaIcEEESA_ES2_IbbESA_
megaglest_g3dviewer:_ZN5Glest4Game6Config12colorPickingE
megaglest_g3dviewer:_ZN5Glest4Game6Config13tryCustomPathERSt4pairINS0_10ConfigTypeES3_ERS2_INSt7__cxx1112basic_stringIcSt11char_traitsIcESaIcEEESB_ESB_
megaglest_g3dviewer:_ZN5Glest4Game6Config14frustumPickingE
megaglest_g3dviewer:_ZN5Glest4Game6Config16selectBufPickingE
megaglest_g3dviewer:_ZN5Glest4Game6Config17setUserPropertiesERKSt6vectorISt4pairINSt7__cxx1112basic_stringIcSt11char_traitsIcESaIcEEES9_ESaISA_EE
megaglest_g3dviewer:_ZN5Glest4Game6Config18getPathListForTypeENS0_8PathTypeENSt7__cxx1112basic_stringIcSt11char_traitsIcESaIcEEE
megaglest_g3dviewer:_ZN5Glest4Game6Config18glest_ini_filenameE
megaglest_g3dviewer:_ZN5Glest4Game6Config22glestkeys_ini_filenameE
megaglest_g3dviewer:_ZN5Glest4Game6Config22glestuser_ini_filenameE
megaglest_g3dviewer:_ZN5Glest4Game6Config23customRuntimePropertiesB5cxx11E
megaglest_g3dviewer:_ZN5Glest4Game6Config24ACTIVE_MOD_PROPERTY_NAMEE
megaglest_g3dviewer:_ZN5Glest4Game6Config24replaceFileWithLocalFileERKSt6vectorINSt7__cxx1112basic_stringIcSt11char_traitsIcESaIcEEESaIS8_EES8_RS8_
megaglest_g3dviewer:_ZN5Glest4Game6Config26findValidLocalFileFromPathENSt7__cxx1112basic_stringIcSt11char_traitsIcESaIcEEE
megaglest_g3dviewer:_ZN5Glest4Game6Config26glestuserkeys_ini_filenameE
megaglest_g3dviewer:_ZN5Glest4Game6Config4saveERKNSt7__cxx1112basic_stringIcSt11char_traitsIcESaIcEEE
megaglest_g3dviewer:_ZN5Glest4Game6Config6reloadEv
megaglest_g3dviewer:_ZN5Glest4Game6Config6setIntERKNSt7__cxx1112basic_stringIcSt11char_traitsIcESaIcEEEib
megaglest_g3dviewer:_ZN5Glest4Game6Config7CopyAllEPS1_S2_
megaglest_g3dviewer:_ZN5Glest4Game6Config7setBoolERKNSt7__cxx1112basic_stringIcSt11char_traitsIcESaIcEEEbb
megaglest_g3dviewer:_ZN5Glest4Game6Config8setFloatERKNSt7__cxx1112basic_stringIcSt11char_traitsIcESaIcEEEfb
megaglest_g3dviewer:_ZN5Glest4Game6Config8toStringB5cxx11Ev
megaglest_g3dviewer:_ZN5Glest4Game6Config9setStringERKNSt7__cxx1112basic_stringIcSt11char_traitsIcESaIcEEES9_b
megaglest_g3dviewer:_ZN5Glest4Game6ConfigC1ESt4pairINS0_10ConfigTypeES3_ES2_INSt7__cxx1112basic_stringIcSt11char_traitsIcESaIcEEESA_ES2_IbbESA_
megaglest_g3dviewer:_ZN5Glest4Game6ConfigC1Ev
megaglest_g3dviewer:_ZN5Glest4Game6ConfigC2ESt4pairINS0_10ConfigTypeES3_ES2_INSt7__cxx1112basic_stringIcSt11char_traitsIcESaIcEEESA_ES2_IbbESA_
megaglest_g3dviewer:_ZN5Glest4Game6ConfigC2Ev
megaglest_g3dviewer:_ZN6Shared14PlatformCommon10BaseThread10getStartedEv
megaglest_g3dviewer:_ZN6Shared14PlatformCommon10BaseThread10setStartedEb
megaglest_g3dviewer:_ZN6Shared14PlatformCommon10BaseThread10signalQuitEv
megaglest_g3dviewer:_ZN6Shared14PlatformCommon10BaseThread11canShutdownEb
megaglest_g3dviewer:_ZN6Shared14PlatformCommon10BaseThread13getQuitStatusEv
megaglest_g3dviewer:_ZN6Shared14PlatformCommon10BaseThread13setQuitStatusEb
megaglest_g3dviewer:_ZN6Shared14PlatformCommon10BaseThread15isThreadDeletedEPv
megaglest_g3dviewer:_ZN6Shared14PlatformCommon10BaseThread15shutdownAndWaitEPS1_
megaglest_g3dviewer:_ZN6Shared14PlatformCommon10BaseThread15shutdownAndWaitEv
megaglest_g3dviewer:_ZN6Shared14PlatformCommon10BaseThread16getExecutingTaskEv
megaglest_g3dviewer:_ZN6Shared14PlatformCommon10BaseThread16getRunningStatusEv
megaglest_g3dviewer:_ZN6Shared14PlatformCommon10BaseThread16masterThreadListE
megaglest_g3dviewer:_ZN6Shared14PlatformCommon10BaseThread16setExecutingTaskEb
megaglest_g3dviewer:_ZN6Shared14PlatformCommon10BaseThread16setRunningStatusEb
megaglest_g3dviewer:_ZN6Shared14PlatformCommon10BaseThread19getThreadOwnerValidEv
megaglest_g3dviewer:_ZN6Shared14PlatformCommon10BaseThread19setThreadOwnerValidEb
megaglest_g3dviewer:_ZN6Shared14PlatformCommon10BaseThread20deleteSelfIfRequiredEv
megaglest_g3dviewer:_ZN6Shared14PlatformCommon10BaseThread20getHasBeginExecutionEv
megaglest_g3dviewer:_ZN6Shared14PlatformCommon10BaseThread20setHasBeginExecutionEb
megaglest_g3dviewer:_ZN6Shared14PlatformCommon10BaseThread21mutexMasterThreadListE
megaglest_g3dviewer:_ZN6Shared14PlatformCommon10BaseThread24getMutexThreadOwnerValidEv
megaglest_g3dviewer:_ZN6Shared14PlatformCommon10BaseThread28getDeleteSelfOnExecutionDoneEv
megaglest_g3dviewer:_ZN6Shared14PlatformCommon10BaseThread28getMutexThreadObjectAccessorEv
megaglest_g3dviewer:_ZN6Shared14PlatformCommon10BaseThread28setDeleteSelfOnExecutionDoneEb
megaglest_g3dviewer:_ZN6Shared14PlatformCommon10BaseThreadC1Ev
megaglest_g3dviewer:_ZN6Shared14PlatformCommon10BaseThreadC2Ev
megaglest_g3dviewer:_ZN6Shared14PlatformCommon10BaseThreadD0Ev
megaglest_g3dviewer:_ZN6Shared14PlatformCommon10BaseThreadD1Ev
megaglest_g3dviewer:_ZN6Shared14PlatformCommon10BaseThreadD2Ev
megaglest_g3dviewer:_ZN6Shared14PlatformCommon10StartsWithERKNSt7__cxx1112basic_stringIcSt11char_traitsIcESaIcEEES8_
megaglest_g3dviewer:_ZN6Shared14PlatformCommon10copyFileToENSt7__cxx1112basic_stringIcSt11char_traitsIcESaIcEEES6_
megaglest_g3dviewer:_ZN6Shared14PlatformCommon10fileExistsERKNSt7__cxx1112basic_stringIcSt11char_traitsIcESaIcEEE
megaglest_g3dviewer:_ZN6Shared14PlatformCommon10formatPathENSt7__cxx1112basic_stringIcSt11char_traitsIcESaIcEEE
megaglest_g3dviewer:_ZN6Shared14PlatformCommon10removeFileENSt7__cxx1112basic_stringIcSt11char_traitsIcESaIcEEE
megaglest_g3dviewer:_ZN6Shared14PlatformCommon10renameFileENSt7__cxx1112basic_stringIcSt11char_traitsIcESaIcEEES6_
megaglest_g3dviewer:_ZN6Shared14PlatformCommon10replaceAllERNSt7__cxx1112basic_stringIcSt11char_traitsIcESaIcEEERKS6_S9_
megaglest_g3dviewer:_ZN6Shared14PlatformCommon10showCursorEb
megaglest_g3dviewer:_ZN6Shared14PlatformCommon11getFileSizeENSt7__cxx1112basic_stringIcSt11char_traitsIcESaIcEEE
megaglest_g3dviewer:_ZN6Shared14PlatformCommon11getUserHomeB5cxx11Ev
megaglest_g3dviewer:_ZN6Shared14PlatformCommon12CacheManager18itemCacheMutexListB5cxx11E
megaglest_g3dviewer:_ZN6Shared14PlatformCommon12CacheManager55getFolderTreeContentsCheckSumRecursivelyCacheLookupKey1E
megaglest_g3dviewer:_ZN6Shared14PlatformCommon12CacheManager55getFolderTreeContentsCheckSumRecursivelyCacheLookupKey2E
megaglest_g3dviewer:_ZN6Shared14PlatformCommon12CacheManager59getFolderTreeContentsCheckSumListRecursivelyCacheLookupKey1E
megaglest_g3dviewer:_ZN6Shared14PlatformCommon12CacheManager59getFolderTreeContentsCheckSumListRecursivelyCacheLookupKey2E
megaglest_g3dviewer:_ZN6Shared14PlatformCommon12removeFolderERKNSt7__cxx1112basic_stringIcSt11char_traitsIcESaIcEEE
megaglest_g3dviewer:_ZN6Shared14PlatformCommon13LogFileThread10saveToDiskEbb
megaglest_g3dviewer:_ZN6Shared14PlatformCommon13LogFileThread11addLogEntryENS_4Util11SystemFlags9DebugTypeENSt7__cxx1112basic_stringIcSt11char_traitsIcESaIcEEE
megaglest_g3dviewer:_ZN6Shared14PlatformCommon13LogFileThread11canShutdownEb
megaglest_g3dviewer:_ZN6Shared14PlatformCommon13LogFileThread22getLogEntryBufferCountEv
megaglest_g3dviewer:_ZN6Shared14PlatformCommon13LogFileThread31checkSaveCurrentLogBufferToDiskEv
megaglest_g3dviewer:_ZN6Shared14PlatformCommon13LogFileThread7executeEv
megaglest_g3dviewer:_ZN6Shared14PlatformCommon13LogFileThreadC1Ev
megaglest_g3dviewer:_ZN6Shared14PlatformCommon13LogFileThreadC2Ev
megaglest_g3dviewer:_ZN6Shared14PlatformCommon13LogFileThreadD0Ev
megaglest_g3dviewer:_ZN6Shared14PlatformCommon13LogFileThreadD1Ev
megaglest_g3dviewer:_ZN6Shared14PlatformCommon13LogFileThreadD2Ev
megaglest_g3dviewer:_ZN6Shared14PlatformCommon14getGameVersionB5cxx11Ev
megaglest_g3dviewer:_ZN6Shared14PlatformCommon14saveDataToFileENSt7__cxx1112basic_stringIcSt11char_traitsIcESaIcEEES6_
megaglest_g3dviewer:_ZN6Shared14PlatformCommon14setGameVersionENSt7__cxx1112basic_stringIcSt11char_traitsIcESaIcEEE
megaglest_g3dviewer:_ZN6Shared14PlatformCommon14systemtime_nowEv
megaglest_g3dviewer:_ZN6Shared14PlatformCommon15executable_pathENSt7__cxx1112basic_stringIcSt11char_traitsIcESaIcEEEb
megaglest_g3dviewer:_ZN6Shared14PlatformCommon15isCursorShowingEv
megaglest_g3dviewer:_ZN6Shared14PlatformCommon15safeCharPtrCopyB5cxx11EPKci
megaglest_g3dviewer:_ZN6Shared14PlatformCommon15valid_utf8_fileEPKc
megaglest_g3dviewer:_ZN6Shared14PlatformCommon16PerformanceTimer4initEfi
megaglest_g3dviewer:_ZN6Shared14PlatformCommon16PerformanceTimer5resetEv
megaglest_g3dviewer:_ZN6Shared14PlatformCommon16PerformanceTimer6isTimeEv
megaglest_g3dviewer:_ZN6Shared14PlatformCommon16SimpleTaskThread11canShutdownEb
megaglest_g3dviewer:_ZN6Shared14PlatformCommon16SimpleTaskThread16getTaskSignalledEv
megaglest_g3dviewer:_ZN6Shared14PlatformCommon16SimpleTaskThread16setTaskSignalledEb
megaglest_g3dviewer:_ZN6Shared14PlatformCommon16SimpleTaskThread23setOverrideShutdownTaskEPFvPNS0_10BaseThreadEE
megaglest_g3dviewer:_ZN6Shared14PlatformCommon16SimpleTaskThread24isThreadExecutionLaggingEv
megaglest_g3dviewer:_ZN6Shared14PlatformCommon16SimpleTaskThread27getSimpleTaskInterfaceValidEv
megaglest_g3dviewer:_ZN6Shared14PlatformCommon16SimpleTaskThread27setSimpleTaskInterfaceValidEb
megaglest_g3dviewer:_ZN6Shared14PlatformCommon16SimpleTaskThread7cleanupEv
megaglest_g3dviewer:_ZN6Shared14PlatformCommon16SimpleTaskThread7executeEv
megaglest_g3dviewer:_ZN6Shared14PlatformCommon16SimpleTaskThreadC1EPNS0_27SimpleTaskCallbackInterfaceEjjbPvb
megaglest_g3dviewer:_ZN6Shared14PlatformCommon16SimpleTaskThreadC2EPNS0_27SimpleTaskCallbackInterfaceEjjbPvb
megaglest_g3dviewer:_ZN6Shared14PlatformCommon16SimpleTaskThreadD0Ev
megaglest_g3dviewer:_ZN6Shared14PlatformCommon16SimpleTaskThreadD1Ev
megaglest_g3dviewer:_ZN6Shared14PlatformCommon16SimpleTaskThreadD2Ev
megaglest_g3dviewer:_ZN6Shared14PlatformCommon16endPathWithSlashERNSt7__cxx1112basic_stringIcSt11char_traitsIcESaIcEEEb
megaglest_g3dviewer:_ZN6Shared14PlatformCommon16extractExtensionERKNSt7__cxx1112basic_stringIcSt11char_traitsIcESaIcEEE
megaglest_g3dviewer:_ZN6Shared14PlatformCommon16restoreVideoModeEP10SDL_Windowb
megaglest_g3dviewer:_ZN6Shared14PlatformCommon17ValueCheckerVault14addItemToVaultEPKvi
megaglest_g3dviewer:_ZN6Shared14PlatformCommon17getGameGITVersionB5cxx11Ev
megaglest_g3dviewer:_ZN6Shared14PlatformCommon17setGameGITVersionENSt7__cxx1112basic_stringIcSt11char_traitsIcESaIcEEE
megaglest_g3dviewer:_ZN6Shared14PlatformCommon19executeShellCommandENSt7__cxx1112basic_stringIcSt11char_traitsIcESaIcEEEiPNS0_35ShellCommandOutputCallbackInterfaceE
megaglest_g3dviewer:_ZN6Shared14PlatformCommon19getCRCCacheFileNameESt4pairINSt7__cxx1112basic_stringIcSt11char_traitsIcESaIcEEES7_E
megaglest_g3dviewer:_ZN6Shared14PlatformCommon19getCRCCacheFilePathB5cxx11Ev
megaglest_g3dviewer:_ZN6Shared14PlatformCommon19getFileTextContentsENSt7__cxx1112basic_stringIcSt11char_traitsIcESaIcEEE
megaglest_g3dviewer:_ZN6Shared14PlatformCommon19setCRCCacheFilePathENSt7__cxx1112basic_stringIcSt11char_traitsIcESaIcEEE
megaglest_g3dviewer:_ZN6Shared14PlatformCommon20createDirectoryPathsENSt7__cxx1112basic_stringIcSt11char_traitsIcESaIcEEE
megaglest_g3dviewer:_ZN6Shared14PlatformCommon20threadsafe_localtimeERKl
megaglest_g3dviewer:_ZN6Shared14PlatformCommon21FileCRCPreCacheThread11canShutdownEb
megaglest_g3dviewer:_ZN6Shared14PlatformCommon21FileCRCPreCacheThread15getPauseForGameEv
megaglest_g3dviewer:_ZN6Shared14PlatformCommon21FileCRCPreCacheThread15setPauseForGameEb
megaglest_g3dviewer:_ZN6Shared14PlatformCommon21FileCRCPreCacheThread28preCacheThreadCacheLookupKeyB5cxx11E
megaglest_g3dviewer:_ZN6Shared14PlatformCommon21FileCRCPreCacheThread7executeEv
megaglest_g3dviewer:_ZN6Shared14PlatformCommon21FileCRCPreCacheThreadC1ESt6vectorINSt7__cxx1112basic_stringIcSt11char_traitsIcESaIcEEESaIS8_EESA_PNS0_38FileCRCPreCacheThreadCallbackInterfaceE
megaglest_g3dviewer:_ZN6Shared14PlatformCommon21FileCRCPreCacheThreadC1Ev
megaglest_g3dviewer:_ZN6Shared14PlatformCommon21FileCRCPreCacheThreadC2ESt6vectorINSt7__cxx1112basic_stringIcSt11char_traitsIcESaIcEEESaIS8_EESA_PNS0_38FileCRCPreCacheThreadCallbackInterfaceE
megaglest_g3dviewer:_ZN6Shared14PlatformCommon21FileCRCPreCacheThreadC2Ev
megaglest_g3dviewer:_ZN6Shared14PlatformCommon21FileCRCPreCacheThreadD0Ev
megaglest_g3dviewer:_ZN6Shared14PlatformCommon21FileCRCPreCacheThreadD1Ev
megaglest_g3dviewer:_ZN6Shared14PlatformCommon21FileCRCPreCacheThreadD2Ev
megaglest_g3dviewer:_ZN6Shared14PlatformCommon21hasCachedFileCRCValueENSt7__cxx1112basic_stringIcSt11char_traitsIcESaIcEEERj
megaglest_g3dviewer:_ZN6Shared14PlatformCommon22getFullscreenVideoInfoERiS1_S1_b
megaglest_g3dviewer:_ZN6Shared14PlatformCommon22replaceAllHTMLEntitiesERNSt7__cxx1112basic_stringIcSt11char_traitsIcESaIcEEE
megaglest_g3dviewer:_ZN6Shared14PlatformCommon23getFullscreenVideoModesEPSt6vectorINS0_8ModeInfoESaIS2_EEb
megaglest_g3dviewer:_ZN6Shared14PlatformCommon23replaceAllBetweenTokensERNSt7__cxx1112basic_stringIcSt11char_traitsIcESaIcEEERKS6_S9_S9_b
megaglest_g3dviewer:_ZN6Shared14PlatformCommon23replaceAllBetweenTokensERSt6vectorIcSaIcEERKNSt7__cxx1112basic_stringIcSt11char_traitsIcES2_EESB_SB_b
megaglest_g3dviewer:_ZN6Shared14PlatformCommon23updatePathClimbingPartsERNSt7__cxx1112basic_stringIcSt11char_traitsIcESaIcEEEb
megaglest_g3dviewer:_ZN6Shared14PlatformCommon23writeCachedFileCRCValueENSt7__cxx1112basic_stringIcSt11char_traitsIcESaIcEEERjS6_
megaglest_g3dviewer:_ZN6Shared14PlatformCommon25changeVideoModeFullScreenEb
megaglest_g3dviewer:_ZN6Shared14PlatformCommon25trimPathWithStartingSlashERNSt7__cxx1112basic_stringIcSt11char_traitsIcESaIcEEE
megaglest_g3dviewer:_ZN6Shared14PlatformCommon26searchAndReplaceTextInFileENSt7__cxx1112basic_stringIcSt11char_traitsIcESaIcEEES6_S6_b
megaglest_g3dviewer:_ZN6Shared14PlatformCommon28extractDirectoryPathFromFileENSt7__cxx1112basic_stringIcSt11char_traitsIcESaIcEEE
megaglest_g3dviewer:_ZN6Shared14PlatformCommon28extractFileFromDirectoryPathENSt7__cxx1112basic_stringIcSt11char_traitsIcESaIcEEE
megaglest_g3dviewer:_ZN6Shared14PlatformCommon28extractLastDirectoryFromPathENSt7__cxx1112basic_stringIcSt11char_traitsIcESaIcEEE
megaglest_g3dviewer:_ZN6Shared14PlatformCommon28getFormattedCRCCacheFileNameESt4pairINSt7__cxx1112basic_stringIcSt11char_traitsIcESaIcEEES7_E
megaglest_g3dviewer:_ZN6Shared14PlatformCommon31clearFolderTreeContentsCheckSumERKNSt7__cxx1112basic_stringIcSt11char_traitsIcESaIcEEES8_
megaglest_g3dviewer:_ZN6Shared14PlatformCommon31clearFolderTreeContentsCheckSumESt6vectorINSt7__cxx1112basic_stringIcSt11char_traitsIcESaIcEEESaIS7_EES7_RKS7_
megaglest_g3dviewer:_ZN6Shared14PlatformCommon32getFullFileArchiveExtractCommandENSt7__cxx1112basic_stringIcSt11char_traitsIcESaIcEEES6_S6_S6_
megaglest_g3dviewer:_ZN6Shared14PlatformCommon33getFullFileArchiveCompressCommandENSt7__cxx1112basic_stringIcSt11char_traitsIcESaIcEEES6_S6_S6_
megaglest_g3dviewer:_ZN6Shared14PlatformCommon35clearFolderTreeContentsCheckSumListERKNSt7__cxx1112basic_stringIcSt11char_traitsIcESaIcEEES8_
megaglest_g3dviewer:_ZN6Shared14PlatformCommon35clearFolderTreeContentsCheckSumListESt6vectorINSt7__cxx1112basic_stringIcSt11char_traitsIcESaIcEEESaIS7_EES7_RKS7_
megaglest_g3dviewer:_ZN6Shared14PlatformCommon36getFolderTreeContentsListRecursivelyERKNSt7__cxx1112basic_stringIcSt11char_traitsIcESaIcEEES8_bPSt6vectorIS6_SaIS6_EE
megaglest_g3dviewer:_ZN6Shared14PlatformCommon37getFolderTreeContentsCheckSumCacheKeyERKNSt7__cxx1112basic_stringIcSt11char_traitsIcESaIcEEES8_
megaglest_g3dviewer:_ZN6Shared14PlatformCommon37getFolderTreeContentsCheckSumCacheKeyESt6vectorINSt7__cxx1112basic_stringIcSt11char_traitsIcESaIcEEESaIS7_EES7_RKS7_
megaglest_g3dviewer:_ZN6Shared14PlatformCommon40getFolderTreeContentsCheckSumRecursivelyERKNSt7__cxx1112basic_stringIcSt11char_traitsIcESaIcEEES8_PNS_4Util8ChecksumEb
megaglest_g3dviewer:_ZN6Shared14PlatformCommon40getFolderTreeContentsCheckSumRecursivelyESt6vectorINSt7__cxx1112basic_stringIcSt11char_traitsIcESaIcEEESaIS7_EES7_RKS7_PNS_4Util8ChecksumEb
megaglest_g3dviewer:_ZN6Shared14PlatformCommon41getFolderTreeContentsCheckSumListCacheKeyERKNSt7__cxx1112basic_stringIcSt11char_traitsIcESaIcEEES8_
megaglest_g3dviewer:_ZN6Shared14PlatformCommon41getFolderTreeContentsCheckSumListCacheKeyESt6vectorINSt7__cxx1112basic_stringIcSt11char_traitsIcESaIcEEESaIS7_EES7_RKS7_
megaglest_g3dviewer:_ZN6Shared14PlatformCommon44getFolderTreeContentsCheckSumListRecursivelyERKNSt7__cxx1112basic_stringIcSt11char_traitsIcESaIcEEES8_PSt6vectorISt4pairIS6_jESaISB_EE
megaglest_g3dviewer:_ZN6Shared14PlatformCommon44getFolderTreeContentsCheckSumListRecursivelyESt6vectorINSt7__cxx1112basic_stringIcSt11char_traitsIcESaIcEEESaIS7_EES7_RKS7_PS1_ISt4pairIS7_jESaISD_EE
megaglest_g3dviewer:_ZN6Shared14PlatformCommon53getFolderTreeContentsCheckSumRecursivelyLastGeneratedESt6vectorINSt7__cxx1112basic_stringIcSt11char_traitsIcESaIcEEESaIS7_EES7_RKS7_
megaglest_g3dviewer:_ZN6Shared14PlatformCommon5isdirEPKc
megaglest_g3dviewer:_ZN6Shared14PlatformCommon5sleepEi
megaglest_g3dviewer:_ZN6Shared14PlatformCommon6Chrono10getSecondsEv
megaglest_g3dviewer:_ZN6Shared14PlatformCommon6Chrono11getCurTicksEv
megaglest_g3dviewer:_ZN6Shared14PlatformCommon6Chrono12getCurMillisEv
megaglest_g3dviewer:_ZN6Shared14PlatformCommon6Chrono12queryCounterEl
megaglest_g3dviewer:_ZN6Shared14PlatformCommon6Chrono4stopEv
megaglest_g3dviewer:_ZN6Shared14PlatformCommon6Chrono5resetEv
megaglest_g3dviewer:_ZN6Shared14PlatformCommon6Chrono5startEv
megaglest_g3dviewer:_ZN6Shared14PlatformCommon6Chrono9getMicrosEv
megaglest_g3dviewer:_ZN6Shared14PlatformCommon6Chrono9getMillisEv
megaglest_g3dviewer:_ZN6Shared14PlatformCommon6ChronoC1Eb
megaglest_g3dviewer:_ZN6Shared14PlatformCommon6ChronoC2Eb
megaglest_g3dviewer:_ZN6Shared14PlatformCommon7Private11ScreenWidthE
megaglest_g3dviewer:_ZN6Shared14PlatformCommon7Private12ScreenHeightE
megaglest_g3dviewer:_ZN6Shared14PlatformCommon7Private18shouldBeFullscreenE
megaglest_g3dviewer:_ZN6Shared14PlatformCommon7findAllERKNSt7__cxx1112basic_stringIcSt11char_traitsIcESaIcEEERSt6vectorIS6_SaIS6_EEbb
megaglest_g3dviewer:_ZN6Shared14PlatformCommon7findAllERKSt6vectorINSt7__cxx1112basic_stringIcSt11char_traitsIcESaIcEEESaIS7_EERKS7_RS9_bbb
megaglest_g3dviewer:_ZN6Shared14PlatformCommon8EndsWithERKNSt7__cxx1112basic_stringIcSt11char_traitsIcESaIcEEES8_
megaglest_g3dviewer:_ZN6Shared14PlatformCommon8ModeInfoC1Eiii
megaglest_g3dviewer:_ZN6Shared14PlatformCommon8ModeInfoC2Eiii
megaglest_g3dviewer:_ZN6Shared14PlatformCommon8TokenizeERKNSt7__cxx1112basic_stringIcSt11char_traitsIcESaIcEEERSt6vectorIS6_SaIS6_EES8_
megaglest_g3dviewer:_ZN6Shared14PlatformCommon8findDirsENSt7__cxx1112basic_stringIcSt11char_traitsIcESaIcEEERSt6vectorIS6_SaIS6_EEbb
megaglest_g3dviewer:_ZN6Shared14PlatformCommon8findDirsERKSt6vectorINSt7__cxx1112basic_stringIcSt11char_traitsIcESaIcEEESaIS7_EERS9_bb
megaglest_g3dviewer:_ZN6Shared14PlatformCommon9isKeyDownEi
megaglest_g3dviewer:_ZN6Shared3Xml10XmlIoRapid11getInstanceEv
megaglest_g3dviewer:_ZN6Shared3Xml10XmlIoRapid11initializedE
megaglest_g3dviewer:_ZN6Shared3Xml10XmlIoRapid13isInitializedEv
megaglest_g3dviewer:_ZN6Shared3Xml10XmlIoRapid4initEv
megaglest_g3dviewer:_ZN6Shared3Xml10XmlIoRapid4loadERKNSt7__cxx1112basic_stringIcSt11char_traitsIcESaIcEEERKSt3mapIS7_S7_St4lessIS7_ESaISt4pairIS8_S7_EEEbbb
megaglest_g3dviewer:_ZN6Shared3Xml10XmlIoRapid4saveERKNSt7__cxx1112basic_stringIcSt11char_traitsIcESaIcEEEPKNS0_7XmlNodeE
megaglest_g3dviewer:_ZN6Shared3Xml10XmlIoRapid7cleanupEv
megaglest_g3dviewer:_ZN6Shared3Xml10XmlIoRapidC1Ev
megaglest_g3dviewer:_ZN6Shared3Xml10XmlIoRapidC2Ev
megaglest_g3dviewer:_ZN6Shared3Xml10XmlIoRapidD1Ev
megaglest_g3dviewer:_ZN6Shared3Xml10XmlIoRapidD2Ev
megaglest_g3dviewer:_ZN6Shared3Xml12XmlAttribute8setValueENSt7__cxx1112basic_stringIcSt11char_traitsIcESaIcEEE
megaglest_g3dviewer:_ZN6Shared3Xml12XmlAttributeC1EPN8rapidxml13xml_attributeIcEERKSt3mapINSt7__cxx1112basic_stringIcSt11char_traitsIcESaIcEEESC_St4lessISC_ESaISt4pairIKSC_SC_EEE
megaglest_g3dviewer:_ZN6Shared3Xml12XmlAttributeC1ERKNSt7__cxx1112basic_stringIcSt11char_traitsIcESaIcEEES9_RKSt3mapIS7_S7_St4lessIS7_ESaISt4pairIS8_S7_EEE
megaglest_g3dviewer:_ZN6Shared3Xml12XmlAttributeC2EPN8rapidxml13xml_attributeIcEERKSt3mapINSt7__cxx1112basic_stringIcSt11char_traitsIcESaIcEEESC_St4lessISC_ESaISt4pairIKSC_SC_EEE
megaglest_g3dviewer:_ZN6Shared3Xml12XmlAttributeC2ERKNSt7__cxx1112basic_stringIcSt11char_traitsIcESaIcEEES9_RKSt3mapIS7_S7_St4lessIS7_ESaISt4pairIS8_S7_EEE
megaglest_g3dviewer:_ZN6Shared3Xml7XmlNode10clearChildERKNSt7__cxx1112basic_stringIcSt11char_traitsIcESaIcEEE
megaglest_g3dviewer:_ZN6Shared3Xml7XmlNode12addAttributeERKNSt7__cxx1112basic_stringIcSt11char_traitsIcESaIcEEES9_RKSt3mapIS7_S7_St4lessIS7_ESaISt4pairIS8_S7_EEE
megaglest_g3dviewer:_ZN6Shared3Xml7XmlNode8addChildERKNSt7__cxx1112basic_stringIcSt11char_traitsIcESaIcEEES7_
megaglest_g3dviewer:_ZN6Shared3Xml7XmlNodeC1EPN8rapidxml8xml_nodeIcEERKSt3mapINSt7__cxx1112basic_stringIcSt11char_traitsIcESaIcEEESC_St4lessISC_ESaISt4pairIKSC_SC_EEEb
megaglest_g3dviewer:_ZN6Shared3Xml7XmlNodeC1ERKNSt7__cxx1112basic_stringIcSt11char_traitsIcESaIcEEE
megaglest_g3dviewer:_ZN6Shared3Xml7XmlNodeC2EPN8rapidxml8xml_nodeIcEERKSt3mapINSt7__cxx1112basic_stringIcSt11char_traitsIcESaIcEEESC_St4lessISC_ESaISt4pairIKSC_SC_EEEb
megaglest_g3dviewer:_ZN6Shared3Xml7XmlNodeC2ERKNSt7__cxx1112basic_stringIcSt11char_traitsIcESaIcEEE
megaglest_g3dviewer:_ZN6Shared3Xml7XmlNodeD1Ev
megaglest_g3dviewer:_ZN6Shared3Xml7XmlNodeD2Ev
megaglest_g3dviewer:_ZN6Shared3Xml7XmlTree13clearRootNodeEv
megaglest_g3dviewer:_ZN6Shared3Xml7XmlTree30setSkipUpdatePathClimbingPartsEb
megaglest_g3dviewer:_ZN6Shared3Xml7XmlTree4initERKNSt7__cxx1112basic_stringIcSt11char_traitsIcESaIcEEE
megaglest_g3dviewer:_ZN6Shared3Xml7XmlTree4loadERKNSt7__cxx1112basic_stringIcSt11char_traitsIcESaIcEEERKSt3mapIS7_S7_St4lessIS7_ESaISt4pairIS8_S7_EEEbbb
megaglest_g3dviewer:_ZN6Shared3Xml7XmlTree4saveERKNSt7__cxx1112basic_stringIcSt11char_traitsIcESaIcEEE
megaglest_g3dviewer:_ZN6Shared3Xml7XmlTreeC1ENS0_22xml_engine_parser_typeE
megaglest_g3dviewer:_ZN6Shared3Xml7XmlTreeC2ENS0_22xml_engine_parser_typeE
megaglest_g3dviewer:_ZN6Shared3Xml7XmlTreeD1Ev
megaglest_g3dviewer:_ZN6Shared3Xml7XmlTreeD2Ev
megaglest_g3dviewer:_ZN6Shared4Util10Properties11gameVersionB5cxx11E
megaglest_g3dviewer:_ZN6Shared4Util10Properties12loadFromTextERKNSt7__cxx1112basic_stringIcSt11char_traitsIcESaIcEEE
megaglest_g3dviewer:_ZN6Shared4Util10Properties12scenarioPathB5cxx11E
megaglest_g3dviewer:_ZN6Shared4Util10Properties12techtreePathB5cxx11E
megaglest_g3dviewer:_ZN6Shared4Util10Properties12tutorialPathB5cxx11E
megaglest_g3dviewer:_ZN6Shared4Util10Properties15applicationPathB5cxx11E
megaglest_g3dviewer:_ZN6Shared4Util10Properties15processTextLineEbPc
megaglest_g3dviewer:_ZN6Shared4Util10Properties16applyTagsToValueERNSt7__cxx1112basic_stringIcSt11char_traitsIcESaIcEEEPKSt3mapIS7_S7_St4lessIS7_ESaISt4pairIKS7_S7_EEEb
megaglest_g3dviewer:_ZN6Shared4Util10Properties19applicationDataPathB5cxx11E
megaglest_g3dviewer:_ZN6Shared4Util10Properties19isValuePathVariableERKNSt7__cxx1112basic_stringIcSt11char_traitsIcESaIcEEE
megaglest_g3dviewer:_ZN6Shared4Util10Properties23getTagReplacementValuesEPSt3mapINSt7__cxx1112basic_stringIcSt11char_traitsIcESaIcEEES8_St4lessIS8_ESaISt4pairIKS8_S8_EEE
megaglest_g3dviewer:_ZN6Shared4Util10Properties23updateValuePathVariableERNSt7__cxx1112basic_stringIcSt11char_traitsIcESaIcEEEb
megaglest_g3dviewer:_ZN6Shared4Util10Properties4loadERKNSt7__cxx1112basic_stringIcSt11char_traitsIcESaIcEEEb
megaglest_g3dviewer:_ZN6Shared4Util10Properties4saveERKNSt7__cxx1112basic_stringIcSt11char_traitsIcESaIcEEE
megaglest_g3dviewer:_ZN6Shared4Util10Properties5clearEv
megaglest_g3dviewer:_ZN6Shared4Util10Properties6setIntERKNSt7__cxx1112basic_stringIcSt11char_traitsIcESaIcEEEi
megaglest_g3dviewer:_ZN6Shared4Util10Properties7setBoolERKNSt7__cxx1112basic_stringIcSt11char_traitsIcESaIcEEEb
megaglest_g3dviewer:_ZN6Shared4Util10Properties8setFloatERKNSt7__cxx1112basic_stringIcSt11char_traitsIcESaIcEEEf
megaglest_g3dviewer:_ZN6Shared4Util10Properties8toStringB5cxx11Ev
megaglest_g3dviewer:_ZN6Shared4Util10Properties9setStringERKNSt7__cxx1112basic_stringIcSt11char_traitsIcESaIcEEES9_
megaglest_g3dviewer:_ZN6Shared4Util10cutLastExtERKNSt7__cxx1112basic_stringIcSt11char_traitsIcESaIcEEE
megaglest_g3dviewer:_ZN6Shared4Util10floatToStrB5cxx11Efi
megaglest_g3dviewer:_ZN6Shared4Util10strToFloatERKNSt7__cxx1112basic_stringIcSt11char_traitsIcESaIcEEE
megaglest_g3dviewer:_ZN6Shared4Util10strToFloatERKNSt7__cxx1112basic_stringIcSt11char_traitsIcESaIcEEEPf
megaglest_g3dviewer:_ZN6Shared4Util11ASCIItoUTF8EhPh
megaglest_g3dviewer:_ZN6Shared4Util11SystemFlags11cleanupHTTPEPPvb
megaglest_g3dviewer:_ZN6Shared4Util11SystemFlags11curl_handleE
megaglest_g3dviewer:_ZN6Shared4Util11SystemFlags11handleDebugENS1_9DebugTypeEPKcz
megaglest_g3dviewer:_ZN6Shared4Util11SystemFlags12lockfilenameB5cxx11E
megaglest_g3dviewer:_ZN6Shared4Util11SystemFlags13logDebugEntryENS1_9DebugTypeENSt7__cxx1112basic_stringIcSt11char_traitsIcESaIcEEEl
megaglest_g3dviewer:_ZN6Shared4Util11SystemFlags16debugLogFileListE
megaglest_g3dviewer:_ZN6Shared4Util11SystemFlags17globalCleanupHTTPEv
megaglest_g3dviewer:_ZN6Shared4Util11SystemFlags18lockFileCountIndexE
megaglest_g3dviewer:_ZN6Shared4Util11SystemFlags20DEFAULT_HTTP_TIMEOUTE
megaglest_g3dviewer:_ZN6Shared4Util11SystemFlags20VERBOSE_MODE_ENABLEDE
megaglest_g3dviewer:_ZN6Shared4Util11SystemFlags20setupRequiredMembersEv
megaglest_g3dviewer:_ZN6Shared4Util11SystemFlags21SHUTDOWN_PROGRAM_MODEE
megaglest_g3dviewer:_ZN6Shared4Util11SystemFlags22getLogEntryBufferCountEv
megaglest_g3dviewer:_ZN6Shared4Util11SystemFlags23ENABLE_THREADED_LOGGINGE
megaglest_g3dviewer:_ZN6Shared4Util11SystemFlags23curl_global_init_calledE
megaglest_g3dviewer:_ZN6Shared4Util11SystemFlags23httpWriteMemoryCallbackEPvmmS2_
megaglest_g3dviewer:_ZN6Shared4Util11SystemFlags24getThreadedLoggerRunningEv
megaglest_g3dviewer:_ZN6Shared4Util11SystemFlags34haveSpecialOutputCommandLineOptionE
megaglest_g3dviewer:_ZN6Shared4Util11SystemFlags4initEb
megaglest_g3dviewer:_ZN6Shared4Util11SystemFlags5CloseEv
megaglest_g3dviewer:_ZN6Shared4Util11SystemFlags7getHTTPENSt7__cxx1112basic_stringIcSt11char_traitsIcESaIcEEEPviP8CURLcode
megaglest_g3dviewer:_ZN6Shared4Util11SystemFlags8initHTTPEv
megaglest_g3dviewer:_ZN6Shared4Util11SystemFlags8lockFileE
megaglest_g3dviewer:_ZN6Shared4Util11SystemFlags9escapeURLENSt7__cxx1112basic_stringIcSt11char_traitsIcESaIcEEEPv
megaglest_g3dviewer:_ZN6Shared4Util11SystemFlagsC1Ev
megaglest_g3dviewer:_ZN6Shared4Util11SystemFlagsC2Ev
megaglest_g3dviewer:_ZN6Shared4Util11SystemFlagsD1Ev
megaglest_g3dviewer:_ZN6Shared4Util11SystemFlagsD2Ev
megaglest_g3dviewer:_ZN6Shared4Util11cutLastFileERKNSt7__cxx1112basic_stringIcSt11char_traitsIcESaIcEEE
megaglest_g3dviewer:_ZN6Shared4Util11doubleToStrB5cxx11Edi
megaglest_g3dviewer:_ZN6Shared4Util11strrev_utf8EPc
megaglest_g3dviewer:_ZN6Shared4Util11strrev_utf8ERNSt7__cxx1112basic_stringIcSt11char_traitsIcESaIcEEE
megaglest_g3dviewer:_ZN6Shared4Util12formatNumberB5cxx11Em
megaglest_g3dviewer:_ZN6Shared4Util13ConvertToUTF8EPKc
megaglest_g3dviewer:_ZN6Shared4Util13ConvertToUTF8EPKcj
megaglest_g3dviewer:_ZN6Shared4Util13ConvertToUTF8EPKcjRj
megaglest_g3dviewer:_ZN6Shared4Util13getUTF8_WidthEPKc
megaglest_g3dviewer:_ZN6Shared4Util15ConvertFromUTF8EPKc
megaglest_g3dviewer:_ZN6Shared4Util17GlobalStaticFlags18isNonGraphicalModeE
megaglest_g3dviewer:_ZN6Shared4Util17GlobalStaticFlags5flagsE
megaglest_g3dviewer:_ZN6Shared4Util18copyStringToBufferEPciRKNSt7__cxx1112basic_stringIcSt11char_traitsIcESaIcEEE
megaglest_g3dviewer:_ZN6Shared4Util19is_string_all_asciiENSt7__cxx1112basic_stringIcSt11char_traitsIcESaIcEEE
megaglest_g3dviewer:_ZN6Shared4Util20getTimeDuationStringB5cxx11Eii
megaglest_g3dviewer:_ZN6Shared4Util23compareNonCaseSensitiveENSt7__cxx1112basic_stringIcSt11char_traitsIcESaIcEEES6_
megaglest_g3dviewer:_ZN6Shared4Util24checkVersionComptabilityENSt7__cxx1112basic_stringIcSt11char_traitsIcESaIcEEES6_
megaglest_g3dviewer:_ZN6Shared4Util24compareMajorMinorVersionENSt7__cxx1112basic_stringIcSt11char_traitsIcESaIcEEES6_
megaglest_g3dviewer:_ZN6Shared4Util3extERKNSt7__cxx1112basic_stringIcSt11char_traitsIcESaIcEEE
megaglest_g3dviewer:_ZN6Shared4Util5clampEfff
megaglest_g3dviewer:_ZN6Shared4Util5clampEiii
megaglest_g3dviewer:_ZN6Shared4Util5clampElll
megaglest_g3dviewer:_ZN6Shared4Util5roundEf
megaglest_g3dviewer:_ZN6Shared4Util5splitENSt7__cxx1112basic_stringIcSt11char_traitsIcESaIcEEES6_
megaglest_g3dviewer:_ZN6Shared4Util6strrevEPc
megaglest_g3dviewer:_ZN6Shared4Util7WString8fromUtf8EPKcm
megaglest_g3dviewer:_ZN6Shared4Util7WStringC1EPKc
megaglest_g3dviewer:_ZN6Shared4Util7WStringC1ERKNSt7__cxx1112basic_stringIcSt11char_traitsIcESaIcEEE
megaglest_g3dviewer:_ZN6Shared4Util7WStringC2EPKc
megaglest_g3dviewer:_ZN6Shared4Util7WStringC2ERKNSt7__cxx1112basic_stringIcSt11char_traitsIcESaIcEEE
megaglest_g3dviewer:_ZN6Shared4Util7lastDirERKNSt7__cxx1112basic_stringIcSt11char_traitsIcESaIcEEE
megaglest_g3dviewer:_ZN6Shared4Util7toLowerERKNSt7__cxx1112basic_stringIcSt11char_traitsIcESaIcEEE
megaglest_g3dviewer:_ZN6Shared4Util8Checksum12addFileToSumERKNSt7__cxx1112basic_stringIcSt11char_traitsIcESaIcEEE
megaglest_g3dviewer:_ZN6Shared4Util8Checksum12getFileCountEv
megaglest_g3dviewer:_ZN6Shared4Util8Checksum13fileListCacheB5cxx11E
megaglest_g3dviewer:_ZN6Shared4Util8Checksum14clearFileCacheEv
megaglest_g3dviewer:_ZN6Shared4Util8Checksum19getFinalFileListSumEv
megaglest_g3dviewer:_ZN6Shared4Util8Checksum19removeFileFromCacheENSt7__cxx1112basic_stringIcSt11char_traitsIcESaIcEEE
megaglest_g3dviewer:_ZN6Shared4Util8Checksum26fileListCacheSynchAccessorE
megaglest_g3dviewer:_ZN6Shared4Util8Checksum6addIntERKi
megaglest_g3dviewer:_ZN6Shared4Util8Checksum6addSumEj
megaglest_g3dviewer:_ZN6Shared4Util8Checksum6getSumEv
megaglest_g3dviewer:_ZN6Shared4Util8Checksum7addByteEc
megaglest_g3dviewer:_ZN6Shared4Util8Checksum7addFileERKNSt7__cxx1112basic_stringIcSt11char_traitsIcESaIcEEE
megaglest_g3dviewer:_ZN6Shared4Util8Checksum7addUIntERKj
megaglest_g3dviewer:_ZN6Shared4Util8Checksum8addBytesEPKvm
megaglest_g3dviewer:_ZN6Shared4Util8Checksum8addInt64ERKl
megaglest_g3dviewer:_ZN6Shared4Util8Checksum9addStringERKNSt7__cxx1112basic_stringIcSt11char_traitsIcESaIcEEE
megaglest_g3dviewer:_ZN6Shared4Util8ChecksumC1Ev
megaglest_g3dviewer:_ZN6Shared4Util8ChecksumC2Ev
megaglest_g3dviewer:_ZN6Shared4Util8getMajorENSt7__cxx1112basic_stringIcSt11char_traitsIcESaIcEEE
megaglest_g3dviewer:_ZN6Shared4Util8getMinorENSt7__cxx1112basic_stringIcSt11char_traitsIcESaIcEEE
megaglest_g3dviewer:_ZN6Shared4Util8intToHexB5cxx11Ei
megaglest_g3dviewer:_ZN6Shared4Util8intToStrB5cxx11El
megaglest_g3dviewer:_ZN6Shared4Util8lastFileERKNSt7__cxx1112basic_stringIcSt11char_traitsIcESaIcEEE
megaglest_g3dviewer:_ZN6Shared4Util8saturateEf
megaglest_g3dviewer:_ZN6Shared4Util8strToIntERKNSt7__cxx1112basic_stringIcSt11char_traitsIcESaIcEEE
megaglest_g3dviewer:_ZN6Shared4Util8strToIntERKNSt7__cxx1112basic_stringIcSt11char_traitsIcESaIcEEEPi
megaglest_g3dviewer:_ZN6Shared4Util9IsNumericEPKcb
megaglest_g3dviewer:_ZN6Shared4Util9RandomGen13addLastCallerENSt7__cxx1112basic_stringIcSt11char_traitsIcESaIcEEE
megaglest_g3dviewer:_ZN6Shared4Util9RandomGen15clearLastCallerEv
megaglest_g3dviewer:_ZN6Shared4Util9RandomGen1aE
megaglest_g3dviewer:_ZN6Shared4Util9RandomGen1bE
megaglest_g3dviewer:_ZN6Shared4Util9RandomGen1mE
megaglest_g3dviewer:_ZN6Shared4Util9RandomGen4initEi
megaglest_g3dviewer:_ZN6Shared4Util9RandomGen4randENSt7__cxx1112basic_stringIcSt11char_traitsIcESaIcEEE
megaglest_g3dviewer:_ZN6Shared4Util9RandomGen9randRangeEffNSt7__cxx1112basic_stringIcSt11char_traitsIcESaIcEEE
megaglest_g3dviewer:_ZN6Shared4Util9RandomGen9randRangeEiiNSt7__cxx1112basic_stringIcSt11char_traitsIcESaIcEEE
megaglest_g3dviewer:_ZN6Shared4Util9RandomGenC1Ev
megaglest_g3dviewer:_ZN6Shared4Util9RandomGenC2Ev
megaglest_g3dviewer:_ZN6Shared4Util9boolToStrB5cxx11Eb
megaglest_g3dviewer:_ZN6Shared4Util9crc_tableE
megaglest_g3dviewer:_ZN6Shared4Util9replaceByERKNSt7__cxx1112basic_stringIcSt11char_traitsIcESaIcEEEcc
megaglest_g3dviewer:_ZN6Shared4Util9strToBoolERKNSt7__cxx1112basic_stringIcSt11char_traitsIcESaIcEEE
megaglest_g3dviewer:_ZN6Shared4Util9strToBoolERKNSt7__cxx1112basic_stringIcSt11char_traitsIcESaIcEEEPb
megaglest_g3dviewer:_ZN6Shared4Util9strToUIntERKNSt7__cxx1112basic_stringIcSt11char_traitsIcESaIcEEE
megaglest_g3dviewer:_ZN6Shared4Util9strToUIntERKNSt7__cxx1112basic_stringIcSt11char_traitsIcESaIcEEEPj
megaglest_g3dviewer:_ZN6Shared4Util9uIntToStrB5cxx11Em
megaglest_g3dviewer:_ZN6Shared8Graphics10PixmapCube12deletePixelsEv
megaglest_g3dviewer:_ZN6Shared8Graphics10PixmapCube4initEi
megaglest_g3dviewer:_ZN6Shared8Graphics10PixmapCube4initEiii
megaglest_g3dviewer:_ZN6Shared8Graphics10PixmapCube8loadFaceERKNSt7__cxx1112basic_stringIcSt11char_traitsIcESaIcEEEi
megaglest_g3dviewer:_ZN6Shared8Graphics10PixmapCubeC1Ev
megaglest_g3dviewer:_ZN6Shared8Graphics10PixmapCubeC2Ev
megaglest_g3dviewer:_ZN6Shared8Graphics10PixmapCubeD1Ev
megaglest_g3dviewer:_ZN6Shared8Graphics10PixmapCubeD2Ev
megaglest_g3dviewer:_ZN6Shared8Graphics11FontManager3endEv
megaglest_g3dviewer:_ZN6Shared8Graphics11FontManager4initEv
megaglest_g3dviewer:_ZN6Shared8Graphics11FontManager7endFontEPNS0_4FontEb
megaglest_g3dviewer:_ZN6Shared8Graphics11FontManager9newFont2DEv
megaglest_g3dviewer:_ZN6Shared8Graphics11FontManager9newFont3DEv
megaglest_g3dviewer:_ZN6Shared8Graphics11FontManagerC1Ev
megaglest_g3dviewer:_ZN6Shared8Graphics11FontManagerC2Ev
megaglest_g3dviewer:_ZN6Shared8Graphics11FontManagerD0Ev
megaglest_g3dviewer:_ZN6Shared8Graphics11FontManagerD1Ev
megaglest_g3dviewer:_ZN6Shared8Graphics11FontManagerD2Ev
megaglest_g3dviewer:_ZN6Shared8Graphics11FontMetrics12getTextWidthERKNSt7__cxx1112basic_stringIcSt11char_traitsIcESaIcEEE
megaglest_g3dviewer:_ZN6Shared8Graphics11FontMetrics12wordWrapTextENSt7__cxx1112basic_stringIcSt11char_traitsIcESaIcEEEi
megaglest_g3dviewer:_ZN6Shared8Graphics11FontMetrics14getTextHandlerEv
megaglest_g3dviewer:_ZN6Shared8Graphics11FontMetrics14setTextHandlerEP4Text
megaglest_g3dviewer:_ZN6Shared8Graphics11FontMetricsC1EP4Text
megaglest_g3dviewer:_ZN6Shared8Graphics11FontMetricsC2EP4Text
megaglest_g3dviewer:_ZN6Shared8Graphics11FontMetricsD1Ev
megaglest_g3dviewer:_ZN6Shared8Graphics11FontMetricsD2Ev
megaglest_g3dviewer:_ZN6Shared8Graphics11PNGReader3DC1Ev
megaglest_g3dviewer:_ZN6Shared8Graphics11PNGReader3DC2Ev
megaglest_g3dviewer:_ZN6Shared8Graphics11PixmapIoBmp4readEPh
megaglest_g3dviewer:_ZN6Shared8Graphics11PixmapIoBmp4readEPhi
megaglest_g3dviewer:_ZN6Shared8Graphics11PixmapIoBmp5writeEPh
megaglest_g3dviewer:_ZN6Shared8Graphics11PixmapIoBmp8openReadERKNSt7__cxx1112basic_stringIcSt11char_traitsIcESaIcEEE
megaglest_g3dviewer:_ZN6Shared8Graphics11PixmapIoBmp9openWriteERKNSt7__cxx1112basic_stringIcSt11char_traitsIcESaIcEEEiii
megaglest_g3dviewer:_ZN6Shared8Graphics11PixmapIoBmpC1Ev
megaglest_g3dviewer:_ZN6Shared8Graphics11PixmapIoBmpC2Ev
megaglest_g3dviewer:_ZN6Shared8Graphics11PixmapIoBmpD0Ev
megaglest_g3dviewer:_ZN6Shared8Graphics11PixmapIoBmpD1Ev
megaglest_g3dviewer:_ZN6Shared8Graphics11PixmapIoBmpD2Ev
megaglest_g3dviewer:_ZN6Shared8Graphics11PixmapIoJpg4readEPh
megaglest_g3dviewer:_ZN6Shared8Graphics11PixmapIoJpg4readEPhi
megaglest_g3dviewer:_ZN6Shared8Graphics11PixmapIoJpg5writeEPh
megaglest_g3dviewer:_ZN6Shared8Graphics11PixmapIoJpg8openReadERKNSt7__cxx1112basic_stringIcSt11char_traitsIcESaIcEEE
megaglest_g3dviewer:_ZN6Shared8Graphics11PixmapIoJpg9openWriteERKNSt7__cxx1112basic_stringIcSt11char_traitsIcESaIcEEEiii
megaglest_g3dviewer:_ZN6Shared8Graphics11PixmapIoJpgC1Ev
megaglest_g3dviewer:_ZN6Shared8Graphics11PixmapIoJpgC2Ev
megaglest_g3dviewer:_ZN6Shared8Graphics11PixmapIoJpgD0Ev
megaglest_g3dviewer:_ZN6Shared8Graphics11PixmapIoJpgD1Ev
megaglest_g3dviewer:_ZN6Shared8Graphics11PixmapIoJpgD2Ev
megaglest_g3dviewer:_ZN6Shared8Graphics11PixmapIoPng4readEPh
megaglest_g3dviewer:_ZN6Shared8Graphics11PixmapIoPng4readEPhi
megaglest_g3dviewer:_ZN6Shared8Graphics11PixmapIoPng5writeEPh
megaglest_g3dviewer:_ZN6Shared8Graphics11PixmapIoPng8openReadERKNSt7__cxx1112basic_stringIcSt11char_traitsIcESaIcEEE
megaglest_g3dviewer:_ZN6Shared8Graphics11PixmapIoPng9openWriteERKNSt7__cxx1112basic_stringIcSt11char_traitsIcESaIcEEEiii
megaglest_g3dviewer:_ZN6Shared8Graphics11PixmapIoPngC1Ev
megaglest_g3dviewer:_ZN6Shared8Graphics11PixmapIoPngC2Ev
megaglest_g3dviewer:_ZN6Shared8Graphics11PixmapIoPngD0Ev
megaglest_g3dviewer:_ZN6Shared8Graphics11PixmapIoPngD1Ev
megaglest_g3dviewer:_ZN6Shared8Graphics11PixmapIoPngD2Ev
megaglest_g3dviewer:_ZN6Shared8Graphics11PixmapIoTga4readEPh
megaglest_g3dviewer:_ZN6Shared8Graphics11PixmapIoTga4readEPhi
megaglest_g3dviewer:_ZN6Shared8Graphics11PixmapIoTga5writeEPh
megaglest_g3dviewer:_ZN6Shared8Graphics11PixmapIoTga8openReadERKNSt7__cxx1112basic_stringIcSt11char_traitsIcESaIcEEE
megaglest_g3dviewer:_ZN6Shared8Graphics11PixmapIoTga9openWriteERKNSt7__cxx1112basic_stringIcSt11char_traitsIcESaIcEEEiii
megaglest_g3dviewer:_ZN6Shared8Graphics11PixmapIoTgaC1Ev
megaglest_g3dviewer:_ZN6Shared8Graphics11PixmapIoTgaC2Ev
megaglest_g3dviewer:_ZN6Shared8Graphics11PixmapIoTgaD0Ev
megaglest_g3dviewer:_ZN6Shared8Graphics11PixmapIoTgaD1Ev
megaglest_g3dviewer:_ZN6Shared8Graphics11PixmapIoTgaD2Ev
megaglest_g3dviewer:_ZN6Shared8Graphics11TGAReader3DC1Ev
megaglest_g3dviewer:_ZN6Shared8Graphics11TGAReader3DC2Ev
megaglest_g3dviewer:_ZN6Shared8Graphics11TextureCube12deletePixelsEv
megaglest_g3dviewer:_ZN6Shared8Graphics11TextureCube8loadFaceERKNSt7__cxx1112basic_stringIcSt11char_traitsIcESaIcEEEi
megaglest_g3dviewer:_ZN6Shared8Graphics12ModelManager12endLastModelEb
megaglest_g3dviewer:_ZN6Shared8Graphics12ModelManager3endEv
megaglest_g3dviewer:_ZN6Shared8Graphics12ModelManager4initEv
megaglest_g3dviewer:_ZN6Shared8Graphics12ModelManager8endModelEPNS0_5ModelEb
megaglest_g3dviewer:_ZN6Shared8Graphics12ModelManager8newModelERKNSt7__cxx1112basic_stringIcSt11char_traitsIcESaIcEEEbPSt3mapIS7_St6vectorISt4pairIS7_S7_ESaISD_EESt4lessIS7_ESaISC_IS8_SF_EEEPS7_
megaglest_g3dviewer:_ZN6Shared8Graphics12ModelManagerC1Ev
megaglest_g3dviewer:_ZN6Shared8Graphics12ModelManagerC2Ev
megaglest_g3dviewer:_ZN6Shared8Graphics12ModelManagerD0Ev
megaglest_g3dviewer:_ZN6Shared8Graphics12ModelManagerD1Ev
megaglest_g3dviewer:_ZN6Shared8Graphics12ModelManagerD2Ev
megaglest_g3dviewer:_ZN6Shared8Graphics12is_non_ASCIIERKi
megaglest_g3dviewer:_ZN6Shared8Graphics14ParticleSystem10setTextureEPNS0_7TextureE
megaglest_g3dviewer:_ZN6Shared8Graphics14ParticleSystem10setVisibleEb
megaglest_g3dviewer:_ZN6Shared8Graphics14ParticleSystem11setObserverEPNS0_16ParticleObserverE
megaglest_g3dviewer:_ZN6Shared8Graphics14ParticleSystem12initParticleEPNS0_8ParticleEi
megaglest_g3dviewer:_ZN6Shared8Graphics14ParticleSystem12killParticleEPNS0_8ParticleE
megaglest_g3dviewer:_ZN6Shared8Graphics14ParticleSystem14createParticleEv
megaglest_g3dviewer:_ZN6Shared8Graphics14ParticleSystem14strToBlendModeERKNSt7__cxx1112basic_stringIcSt11char_traitsIcESaIcEEE
megaglest_g3dviewer:_ZN6Shared8Graphics14ParticleSystem14updateParticleEPNS0_8ParticleE
megaglest_g3dviewer:_ZN6Shared8Graphics14ParticleSystem15setEmissionRateEf
megaglest_g3dviewer:_ZN6Shared8Graphics14ParticleSystem15setFactionColorENS0_4Vec3IfEE
megaglest_g3dviewer:_ZN6Shared8Graphics14ParticleSystem15setParticleSizeEf
megaglest_g3dviewer:_ZN6Shared8Graphics14ParticleSystem16setColorNoEnergyENS0_4Vec4IfEE
megaglest_g3dviewer:_ZN6Shared8Graphics14ParticleSystem18setSpeedUpConstantEf
megaglest_g3dviewer:_ZN6Shared8Graphics14ParticleSystem18setSpeedUpRelativeEf
megaglest_g3dviewer:_ZN6Shared8Graphics14ParticleSystem20callParticleOwnerEndEPS1_
megaglest_g3dviewer:_ZN6Shared8Graphics14ParticleSystem20setMaxParticleEnergyEi
megaglest_g3dviewer:_ZN6Shared8Graphics14ParticleSystem20setVarParticleEnergyEi
megaglest_g3dviewer:_ZN6Shared8Graphics14ParticleSystem26getTextureFileLoadDeferredB5cxx11Ev
megaglest_g3dviewer:_ZN6Shared8Graphics14ParticleSystem32getTextureFileLoadDeferredFormatEv
megaglest_g3dviewer:_ZN6Shared8Graphics14ParticleSystem34getTextureFileLoadDeferredSystemIdEv
megaglest_g3dviewer:_ZN6Shared8Graphics14ParticleSystem36getTextureFileLoadDeferredComponentsEv
megaglest_g3dviewer:_ZN6Shared8Graphics14ParticleSystem4fadeEv
megaglest_g3dviewer:_ZN6Shared8Graphics14ParticleSystem6getCRCEv
megaglest_g3dviewer:_ZN6Shared8Graphics14ParticleSystem6renderEPNS0_16ParticleRendererEPNS0_13ModelRendererE
megaglest_g3dviewer:_ZN6Shared8Graphics14ParticleSystem6setPosENS0_4Vec3IfEE
megaglest_g3dviewer:_ZN6Shared8Graphics14ParticleSystem6updateEv
megaglest_g3dviewer:_ZN6Shared8Graphics14ParticleSystem8getChildEi
megaglest_g3dviewer:_ZN6Shared8Graphics14ParticleSystem8loadGameEPKNS_3Xml7XmlNodeE
megaglest_g3dviewer:_ZN6Shared8Graphics14ParticleSystem8saveGameEPNS_3Xml7XmlNodeE
megaglest_g3dviewer:_ZN6Shared8Graphics14ParticleSystem8setColorENS0_4Vec4IfEE
megaglest_g3dviewer:_ZN6Shared8Graphics14ParticleSystem8setSpeedEf
megaglest_g3dviewer:_ZN6Shared8Graphics14ParticleSystem8setStateENS1_5StateE
megaglest_g3dviewer:_ZN6Shared8Graphics14ParticleSystem9deathTestEPNS0_8ParticleE
megaglest_g3dviewer:_ZN6Shared8Graphics14ParticleSystem9setActiveEb
megaglest_g3dviewer:_ZN6Shared8Graphics14ParticleSystemC1Ei
megaglest_g3dviewer:_ZN6Shared8Graphics14ParticleSystemC2Ei
megaglest_g3dviewer:_ZN6Shared8Graphics14ParticleSystemD0Ev
megaglest_g3dviewer:_ZN6Shared8Graphics14ParticleSystemD1Ev
megaglest_g3dviewer:_ZN6Shared8Graphics14ParticleSystemD2Ev
megaglest_g3dviewer:_ZN6Shared8Graphics14TextureManager10endTextureEPNS0_7TextureEb
megaglest_g3dviewer:_ZN6Shared8Graphics14TextureManager10getTextureERKNSt7__cxx1112basic_stringIcSt11char_traitsIcESaIcEEE
megaglest_g3dviewer:_ZN6Shared8Graphics14TextureManager11initTextureEPNS0_7TextureE
megaglest_g3dviewer:_ZN6Shared8Graphics14TextureManager12newTexture1DEv
megaglest_g3dviewer:_ZN6Shared8Graphics14TextureManager12newTexture2DEv
megaglest_g3dviewer:_ZN6Shared8Graphics14TextureManager12newTexture3DEv
megaglest_g3dviewer:_ZN6Shared8Graphics14TextureManager14endLastTextureEb
megaglest_g3dviewer:_ZN6Shared8Graphics14TextureManager14newTextureCubeEv
megaglest_g3dviewer:_ZN6Shared8Graphics14TextureManager16setMaxAnisotropyEi
megaglest_g3dviewer:_ZN6Shared8Graphics14TextureManager3endEv
megaglest_g3dviewer:_ZN6Shared8Graphics14TextureManager4initEb
megaglest_g3dviewer:_ZN6Shared8Graphics14TextureManager9setFilterENS0_7Texture6FilterE
megaglest_g3dviewer:_ZN6Shared8Graphics14TextureManagerC1Ev
megaglest_g3dviewer:_ZN6Shared8Graphics14TextureManagerC2Ev
megaglest_g3dviewer:_ZN6Shared8Graphics14TextureManagerD1Ev
megaglest_g3dviewer:_ZN6Shared8Graphics14TextureManagerD2Ev
megaglest_g3dviewer:_ZN6Shared8Graphics14findFontFamilyB5cxx11EPKcS2_
megaglest_g3dviewer:_ZN6Shared8Graphics15CHECK_FONT_PATHEPKcS2_PS2_S3_
megaglest_g3dviewer:_ZN6Shared8Graphics15ImageRegisterer20registerImageReadersEv
megaglest_g3dviewer:_ZN6Shared8Graphics15ParticleManager22cleanupParticleSystemsEPNS0_14ParticleSystemE
megaglest_g3dviewer:_ZN6Shared8Graphics15ParticleManager22cleanupParticleSystemsERSt6vectorIPNS0_14ParticleSystemESaIS4_EE
megaglest_g3dviewer:_ZN6Shared8Graphics15ParticleManager26cleanupUnitParticleSystemsERSt6vectorIPNS0_18UnitParticleSystemESaIS4_EE
megaglest_g3dviewer:_ZN6Shared8Graphics15ParticleManager37removeParticleSystemsForParticleOwnerEPNS0_13ParticleOwnerE
megaglest_g3dviewer:_ZN6Shared8Graphics15ParticleManager3endEv
megaglest_g3dviewer:_ZN6Shared8Graphics15ParticleManager6manageEPNS0_14ParticleSystemE
megaglest_g3dviewer:_ZN6Shared8Graphics15ParticleManager6updateEi
megaglest_g3dviewer:_ZN6Shared8Graphics15ParticleManagerC1Ev
megaglest_g3dviewer:_ZN6Shared8Graphics15ParticleManagerC2Ev
megaglest_g3dviewer:_ZN6Shared8Graphics15ParticleManagerD1Ev
megaglest_g3dviewer:_ZN6Shared8Graphics15ParticleManagerD2Ev
megaglest_g3dviewer:_ZN6Shared8Graphics17GraphicsInterface10setFactoryEPNS0_15GraphicsFactoryE
megaglest_g3dviewer:_ZN6Shared8Graphics17GraphicsInterface11getInstanceEv
megaglest_g3dviewer:_ZN6Shared8Graphics17GraphicsInterface17setCurrentContextEPNS0_7ContextE
megaglest_g3dviewer:_ZN6Shared8Graphics17GraphicsInterfaceC1Ev
megaglest_g3dviewer:_ZN6Shared8Graphics17GraphicsInterfaceC2Ev
megaglest_g3dviewer:_ZN6Shared8Graphics17InterpolationData13updateNormalsEfb
megaglest_g3dviewer:_ZN6Shared8Graphics17InterpolationData14updateVerticesEfb
megaglest_g3dviewer:_ZN6Shared8Graphics17InterpolationData19enableInterpolationE
megaglest_g3dviewer:_ZN6Shared8Graphics17InterpolationData6updateEPKNS0_4Vec3IfEERPS3_fb
megaglest_g3dviewer:_ZN6Shared8Graphics17InterpolationData6updateEfb
megaglest_g3dviewer:_ZN6Shared8Graphics17InterpolationDataC1EPKNS0_4MeshE
megaglest_g3dviewer:_ZN6Shared8Graphics17InterpolationDataC2EPKNS0_4MeshE
megaglest_g3dviewer:_ZN6Shared8Graphics17InterpolationDataD1Ev
megaglest_g3dviewer:_ZN6Shared8Graphics17InterpolationDataD2Ev
megaglest_g3dviewer:_ZN6Shared8Graphics18CalculatePixelsCRCEPhmRNS_4Util8ChecksumE
megaglest_g3dviewer:_ZN6Shared8Graphics18FireParticleSystem12initParticleEPNS0_8ParticleEi
megaglest_g3dviewer:_ZN6Shared8Graphics18FireParticleSystem14updateParticleEPNS0_8ParticleE
megaglest_g3dviewer:_ZN6Shared8Graphics18FireParticleSystem6getCRCEv
megaglest_g3dviewer:_ZN6Shared8Graphics18FireParticleSystem7setWindEff
megaglest_g3dviewer:_ZN6Shared8Graphics18FireParticleSystem8loadGameEPKNS_3Xml7XmlNodeE
megaglest_g3dviewer:_ZN6Shared8Graphics18FireParticleSystem8saveGameEPNS_3Xml7XmlNodeE
megaglest_g3dviewer:_ZN6Shared8Graphics18FireParticleSystem9setRadiusEf
megaglest_g3dviewer:_ZN6Shared8Graphics18FireParticleSystemC1Ei
megaglest_g3dviewer:_ZN6Shared8Graphics18FireParticleSystemC2Ei
megaglest_g3dviewer:_ZN6Shared8Graphics18GameParticleSystem11removeChildEPNS0_18UnitParticleSystemE
megaglest_g3dviewer:_ZN6Shared8Graphics18GameParticleSystem13getChildCountEv
megaglest_g3dviewer:_ZN6Shared8Graphics18GameParticleSystem14strToPrimitiveERKNSt7__cxx1112basic_stringIcSt11char_traitsIcESaIcEEE
megaglest_g3dviewer:_ZN6Shared8Graphics18GameParticleSystem16positionChildrenEv
megaglest_g3dviewer:_ZN6Shared8Graphics18GameParticleSystem24getModelFileLoadDeferredB5cxx11Ev
megaglest_g3dviewer:_ZN6Shared8Graphics18GameParticleSystem6getCRCEv
megaglest_g3dviewer:_ZN6Shared8Graphics18GameParticleSystem6renderEPNS0_16ParticleRendererEPNS0_13ModelRendererE
megaglest_g3dviewer:_ZN6Shared8Graphics18GameParticleSystem6setPosENS0_4Vec3IfEE
megaglest_g3dviewer:_ZN6Shared8Graphics18GameParticleSystem8addChildEPNS0_18UnitParticleSystemE
megaglest_g3dviewer:_ZN6Shared8Graphics18GameParticleSystem8getChildEi
megaglest_g3dviewer:_ZN6Shared8Graphics18GameParticleSystem8loadGameEPKNS_3Xml7XmlNodeE
megaglest_g3dviewer:_ZN6Shared8Graphics18GameParticleSystem8saveGameEPNS_3Xml7XmlNodeE
megaglest_g3dviewer:_ZN6Shared8Graphics18GameParticleSystem8setTweenEff
megaglest_g3dviewer:_ZN6Shared8Graphics18GameParticleSystem9setOffsetENS0_4Vec3IfEE
megaglest_g3dviewer:_ZN6Shared8Graphics18GameParticleSystemC1Ei
megaglest_g3dviewer:_ZN6Shared8Graphics18GameParticleSystemC2Ei
megaglest_g3dviewer:_ZN6Shared8Graphics18GameParticleSystemD0Ev
megaglest_g3dviewer:_ZN6Shared8Graphics18GameParticleSystemD1Ev
megaglest_g3dviewer:_ZN6Shared8Graphics18GameParticleSystemD2Ev
megaglest_g3dviewer:_ZN6Shared8Graphics18PixelBufferWrapper12isPBOEnabledE
megaglest_g3dviewer:_ZN6Shared8Graphics18PixelBufferWrapper17getPixelBufferForEiiiii
megaglest_g3dviewer:_ZN6Shared8Graphics18PixelBufferWrapper20addBuffersToPixelBufEi
megaglest_g3dviewer:_ZN6Shared8Graphics18PixelBufferWrapper3endEv
megaglest_g3dviewer:_ZN6Shared8Graphics18PixelBufferWrapper5beginEv
megaglest_g3dviewer:_ZN6Shared8Graphics18PixelBufferWrapper5indexE
megaglest_g3dviewer:_ZN6Shared8Graphics18PixelBufferWrapper6pboIdsE
megaglest_g3dviewer:_ZN6Shared8Graphics18PixelBufferWrapper7cleanupEv
megaglest_g3dviewer:_ZN6Shared8Graphics18PixelBufferWrapperC1Eii
megaglest_g3dviewer:_ZN6Shared8Graphics18PixelBufferWrapperC2Eii
megaglest_g3dviewer:_ZN6Shared8Graphics18PixelBufferWrapperD1Ev
megaglest_g3dviewer:_ZN6Shared8Graphics18PixelBufferWrapperD2Ev
megaglest_g3dviewer:_ZN6Shared8Graphics18RainParticleSystem12initParticleEPNS0_8ParticleEi
megaglest_g3dviewer:_ZN6Shared8Graphics18RainParticleSystem6getCRCEv
megaglest_g3dviewer:_ZN6Shared8Graphics18RainParticleSystem6renderEPNS0_16ParticleRendererEPNS0_13ModelRendererE
megaglest_g3dviewer:_ZN6Shared8Graphics18RainParticleSystem7setWindEff
megaglest_g3dviewer:_ZN6Shared8Graphics18RainParticleSystem9deathTestEPNS0_8ParticleE
megaglest_g3dviewer:_ZN6Shared8Graphics18RainParticleSystem9setRadiusEf
megaglest_g3dviewer:_ZN6Shared8Graphics18RainParticleSystemC1Ei
