libceleste.so.0.0:_ZN7celeste10createGridERiRPPiiii
libceleste.so.0.0:_ZN7celeste10gPrecisionE
libceleste.so.0.0:_ZN7celeste10kVerbosityE
libceleste.so.0.0:_ZN7celeste11GaborFilter10InitializeEiffff
libceleste.so.0.0:_ZN7celeste11GaborFilter4SaveEPcii
libceleste.so.0.0:_ZN7celeste11GaborFilterC1Ev
libceleste.so.0.0:_ZN7celeste11GaborFilterC2Ev
libceleste.so.0.0:_ZN7celeste11GaborFilterD1Ev
libceleste.so.0.0:_ZN7celeste11GaborFilterD2Ev
libceleste.so.0.0:_ZN7celeste11ResetMatrixEPPffii
libceleste.so.0.0:_ZN7celeste11ResetMatrixEPPiiii
libceleste.so.0.0:_ZN7celeste11classifySVMEPNS_9svm_modelEiRPPiiiiRPfiRN5vigra10BasicImageINS7_8RGBValueItLj0ELj1ELj2EEESaISA_EEEb
libceleste.so.0.0:_ZN7celeste11kSaveFilterE
libceleste.so.0.0:_ZN7celeste11svm_predictEPKNS_9svm_modelEPKNS_8svm_nodeE
libceleste.so.0.0:_ZN7celeste12AdjustStreamERSoiiib
libceleste.so.0.0:_ZN7celeste12CreateMatrixEfii
libceleste.so.0.0:_ZN7celeste12CreateMatrixEiii
libceleste.so.0.0:_ZN7celeste12SkipCommentsEPSt14basic_ifstreamIcSt11char_traitsIcEE
libceleste.so.0.0:_ZN7celeste12generateMaskERN5vigra10BasicImageIhSaIhEEERiRPPiSt6vectorIdSaIdEEid
libceleste.so.0.0:_ZN7celeste12loadSVMmodelERPNS_9svm_modelERNSt7__cxx1112basic_stringIcSt11char_traitsIcESaIcEEE
libceleste.so.0.0:_ZN7celeste13DisposeMatrixEPPfi
libceleste.so.0.0:_ZN7celeste13DisposeMatrixEPPii
libceleste.so.0.0:_ZN7celeste13FileOpenErrorEPc
libceleste.so.0.0:_ZN7celeste13svm_get_nr_svEPKNS_9svm_modelE
libceleste.so.0.0:_ZN7celeste14ContrastFilter11ApplyFilterEPPfii
libceleste.so.0.0:_ZN7celeste14ContrastFilter4SaveEPc
libceleste.so.0.0:_ZN7celeste14ContrastFilterC1EPPfii
libceleste.so.0.0:_ZN7celeste14ContrastFilterC2EPPfii
libceleste.so.0.0:_ZN7celeste14ContrastFilterD1Ev
libceleste.so.0.0:_ZN7celeste14ContrastFilterD2Ev
libceleste.so.0.0:_ZN7celeste14ProcessChannelEPPfiiiRPPiiS0_S2_
libceleste.so.0.0:_ZN7celeste14ReturnDistanceEPfS0_i
libceleste.so.0.0:_ZN7celeste14getCelesteMaskEPNS_9svm_modelERN5vigra10BasicImageINS2_8RGBValueItLj0ELj1ELj2EEESaIS5_EEEifibb
libceleste.so.0.0:_ZN7celeste14libsvm_versionE
libceleste.so.0.0:_ZN7celeste14svm_get_labelsEPKNS_9svm_modelEPi
libceleste.so.0.0:_ZN7celeste14svm_load_modelEPKc
libceleste.so.0.0:_ZN7celeste14svm_save_modelEPKcPKNS_9svm_modelE
libceleste.so.0.0:_ZN7celeste15FileCreateErrorEPc
libceleste.so.0.0:_ZN7celeste15destroySVMmodelERPNS_9svm_modelE
libceleste.so.0.0:_ZN7celeste16svm_get_nr_classEPKNS_9svm_modelE
libceleste.so.0.0:_ZN7celeste16svm_get_svm_typeEPKNS_9svm_modelE
libceleste.so.0.0:_ZN7celeste17GetStreamDefaultsEv
libceleste.so.0.0:_ZN7celeste17SetStreamDefaultsERSo
libceleste.so.0.0:_ZN7celeste17prepareGaborImageERN5vigra10BasicImageINS0_8RGBValueItLj0ELj1ELj2EEESaIS3_EEERPPf
libceleste.so.0.0:_ZN7celeste17read_model_headerEP8_IO_FILEPNS_9svm_modelE
libceleste.so.0.0:_ZN7celeste17svm_destroy_paramEPNS_13svm_parameterE
libceleste.so.0.0:_ZN7celeste18svm_get_sv_indicesEPKNS_9svm_modelEPi
libceleste.so.0.0:_ZN7celeste18svm_predict_valuesEPKNS_9svm_modelEPKNS_8svm_nodeEPd
libceleste.so.0.0:_ZN7celeste19prepareCelesteImageERN5vigra10BasicImageINS0_8RGBValueItLj0ELj1ELj2EEESaIS3_EEES6_RiRdb
libceleste.so.0.0:_ZN7celeste19svm_check_parameterEPKNS_11svm_problemEPKNS_13svm_parameterE
libceleste.so.0.0:_ZN7celeste20svm_cross_validationEPKNS_11svm_problemEPKNS_13svm_parameterEiPd
libceleste.so.0.0:_ZN7celeste22svm_free_model_contentEPNS_9svm_modelE
libceleste.so.0.0:_ZN7celeste23getCelesteControlPointsEPNS_9svm_modelERN5vigra10BasicImageINS2_8RGBValueItLj0ELj1ELj2EEESaIS5_EEESt6vectorISt4pairImN9HuginBase12ControlPointEESaISD_EEifib
libceleste.so.0.0:_ZN7celeste23svm_get_svr_probabilityEPKNS_9svm_modelE
libceleste.so.0.0:_ZN7celeste23svm_predict_probabilityEPKNS_9svm_modelEPKNS_8svm_nodeEPd
libceleste.so.0.0:_ZN7celeste26svm_free_and_destroy_modelEPPNS_9svm_modelE
libceleste.so.0.0:_ZN7celeste27svm_check_probability_modelEPKNS_9svm_modelE
libceleste.so.0.0:_ZN7celeste29svm_set_print_string_functionEPFvPKcE
libceleste.so.0.0:_ZN7celeste2gAE
libceleste.so.0.0:_ZN7celeste2gFE
libceleste.so.0.0:_ZN7celeste2gLE
libceleste.so.0.0:_ZN7celeste2gSE
libceleste.so.0.0:_ZN7celeste2gUE
libceleste.so.0.0:_ZN7celeste3cmpEPKvS1_
libceleste.so.0.0:_ZN7celeste5Cache10lru_deleteEPNS0_6head_tE
libceleste.so.0.0:_ZN7celeste5Cache10lru_insertEPNS0_6head_tE
libceleste.so.0.0:_ZN7celeste5Cache10swap_indexEii
libceleste.so.0.0:_ZN7celeste5Cache8get_dataEiPPfi
libceleste.so.0.0:_ZN7celeste5CacheC1Eil
libceleste.so.0.0:_ZN7celeste5CacheC2Eil
libceleste.so.0.0:_ZN7celeste5CacheD1Ev
libceleste.so.0.0:_ZN7celeste5CacheD2Ev
libceleste.so.0.0:_ZN7celeste6Kernel10k_functionEPKNS_8svm_nodeES3_RKNS_13svm_parameterE
libceleste.so.0.0:_ZN7celeste6Kernel3dotEPKNS_8svm_nodeES3_
libceleste.so.0.0:_ZN7celeste6KernelC1EiPKPNS_8svm_nodeERKNS_13svm_parameterE
libceleste.so.0.0:_ZN7celeste6KernelC2EiPKPNS_8svm_nodeERKNS_13svm_parameterE
libceleste.so.0.0:_ZN7celeste6KernelD0Ev
libceleste.so.0.0:_ZN7celeste6KernelD1Ev
libceleste.so.0.0:_ZN7celeste6KernelD2Ev
libceleste.so.0.0:_ZN7celeste6Solver10swap_indexEii
libceleste.so.0.0:_ZN7celeste6Solver12do_shrinkingEv
libceleste.so.0.0:_ZN7celeste6Solver13calculate_rhoEv
libceleste.so.0.0:_ZN7celeste6Solver18select_working_setERiS1_
libceleste.so.0.0:_ZN7celeste6Solver20reconstruct_gradientEv
libceleste.so.0.0:_ZN7celeste6Solver5SolveEiRKNS_7QMatrixEPKdPKaPddddPNS0_12SolutionInfoEi
libceleste.so.0.0:_ZN7celeste6Solver9be_shrunkEidd
libceleste.so.0.0:_ZN7celeste6gWidthE
libceleste.so.0.0:_ZN7celeste7PermuteEPim
libceleste.so.0.0:_ZN7celeste7SafeAbsEd
libceleste.so.0.0:_ZN7celeste7SafeAbsEdd
libceleste.so.0.0:_ZN7celeste7SafeAbsEf
libceleste.so.0.0:_ZN7celeste7SafeAbsEff
libceleste.so.0.0:_ZN7celeste7SafeAbsEi
libceleste.so.0.0:_ZN7celeste7SafeAbsEii
libceleste.so.0.0:_ZN7celeste7SigmoidEf
libceleste.so.0.0:_ZN7celeste7SigmoidEff
libceleste.so.0.0:_ZN7celeste7SigmoidEfff
libceleste.so.0.0:_ZN7celeste8CONTRASTE
libceleste.so.0.0:_ZN7celeste8GaborJet10InitializeEiiiiififfiPc
libceleste.so.0.0:_ZN7celeste8GaborJet6FilterEPPfPi
libceleste.so.0.0:_ZN7celeste8GaborJetC1Ev
libceleste.so.0.0:_ZN7celeste8GaborJetC2Ev
libceleste.so.0.0:_ZN7celeste8GaborJetD1Ev
libceleste.so.0.0:_ZN7celeste8GaborJetD2Ev
libceleste.so.0.0:_ZN7celeste8PGMImage11WriteScaledEPcPPfii
libceleste.so.0.0:_ZN7celeste8PGMImage4ReadEPc
libceleste.so.0.0:_ZN7celeste8PGMImage5WriteEPc
libceleste.so.0.0:_ZN7celeste8PGMImage5WriteEPcPPPfii
libceleste.so.0.0:_ZN7celeste8PGMImage5WriteEPcPPfii
libceleste.so.0.0:_ZN7celeste8PGMImage5WriteEPcPPfiii
libceleste.so.0.0:_ZN7celeste9HeavysideEf
libceleste.so.0.0:_ZN7celeste9ImageFile10DeallocateEv
libceleste.so.0.0:_ZN7celeste9ImageFile8AllocateEi
libceleste.so.0.0:_ZN7celeste9ImageFile8GetPixelEii
libceleste.so.0.0:_ZN7celeste9ImageFile9GetPixelsEv
libceleste.so.0.0:_ZN7celeste9ImageFile9SetPixelsEPPf
libceleste.so.0.0:_ZN7celeste9ImageFileC1Ev
libceleste.so.0.0:_ZN7celeste9ImageFileC2Ev
libceleste.so.0.0:_ZN7celeste9ImageFileD0Ev
libceleste.so.0.0:_ZN7celeste9ImageFileD1Ev
libceleste.so.0.0:_ZN7celeste9ImageFileD2Ev
libceleste.so.0.0:_ZN7celeste9Solver_NU12do_shrinkingEv
libceleste.so.0.0:_ZN7celeste9Solver_NU13calculate_rhoEv
libceleste.so.0.0:_ZN7celeste9Solver_NU18select_working_setERiS1_
libceleste.so.0.0:_ZN7celeste9Solver_NU9be_shrunkEidddd
libceleste.so.0.0:_ZN7celeste9svm_trainEPKNS_11svm_problemEPKNS_13svm_parameterE
libhuginbase.so.0.0:_Z5getmsv
libhuginbase.so.0.0:_ZN10HuginGraph10ImageGraph11IsConnectedEv
libhuginbase.so.0.0:_ZN10HuginGraph10ImageGraph13GetComponentsEv
libhuginbase.so.0.0:_ZN10HuginGraph10ImageGraph14VisitAllImagesEmbPNS_25BreadthFirstSearchVisitorE
libhuginbase.so.0.0:_ZN10HuginGraph10ImageGraphC1ERKN9HuginBase12PanoramaDataEb
libhuginbase.so.0.0:_ZN10HuginGraph10ImageGraphC1ERKN9HuginBase21CalculateImageOverlapE
libhuginbase.so.0.0:_ZN10HuginGraph10ImageGraphC2ERKN9HuginBase12PanoramaDataEb
libhuginbase.so.0.0:_ZN10HuginGraph10ImageGraphC2ERKN9HuginBase21CalculateImageOverlapE
libhuginbase.so.0.0:_ZN10HuginGraph23BreadthFirstSearchVisitERKSt6vectorISt3setIjSt4lessIjESaIjEESaIS5_EERSt5queueImSt5dequeImSaImEEERS0_IbSaIbEEPNS_25BreadthFirstSearchVisitorE
libhuginbase.so.0.0:_ZN10HuginLines10ScaleLinesERSt6vectorINS_10SingleLineESaIS1_EEd
libhuginbase.so.0.0:_ZN10HuginLines11FilterLinesESt6vectorINS_10SingleLineESaIS1_EEd
libhuginbase.so.0.0:_ZN10HuginLines11SortByErrorERKN9HuginBase12ControlPointES3_
libhuginbase.so.0.0:_ZN10HuginLines11detectEdgesERKN5vigra10BasicImageINS0_8RGBValueIhLj0ELj1ELj2EEESaIS3_EEEddjRd
libhuginbase.so.0.0:_ZN10HuginLines11detectEdgesERKN5vigra10BasicImageIhSaIhEEEddjRd
libhuginbase.so.0.0:_ZN10HuginLines12GetFootpointERKN5vigra7Point2DES3_S3_
libhuginbase.so.0.0:_ZN10HuginLines12GetFootpointERKN5vigra7Point2DES3_S3_Rd
libhuginbase.so.0.0:_ZN10HuginLines15edgeMap2linePtsERN5vigra10BasicImageIhSaIhEEE
libhuginbase.so.0.0:_ZN10HuginLines16GetControlPointsERKNS_10SingleLineEjjj
libhuginbase.so.0.0:_ZN10HuginLines16GetVerticalLinesERKN9HuginBase8PanoramaEjRN5vigra10BasicImageINS4_8RGBValueIhLj0ELj1ELj2EEESaIS7_EEERNS5_IhSaIhEEEj
libhuginbase.so.0.0:_ZN10HuginLines16GetVerticalLinesERKN9HuginBase8PanoramaEjRN5vigra10BasicImageIhSaIhEEES8_j
libhuginbase.so.0.0:_ZN10HuginLines16linePts2lineListERN5vigra10BasicImageIhSaIhEEEidRSt6vectorINS_10SingleLineESaIS6_EE
libhuginbase.so.0.0:_ZN10HuginLines29calculate_focal_length_pixelsEdddd
libhuginbase.so.0.0:_ZN10HuginLines7FitLineENS_10SingleLineE
libhuginbase.so.0.0:_ZN10HuginLines9findLinesERN5vigra10BasicImageIhSaIhEEEddd
libhuginbase.so.0.0:_ZN11hugin_utils10FileExistsERKNSt7__cxx1112basic_stringIcSt11char_traitsIcESaIcEEE
libhuginbase.so.0.0:_ZN11hugin_utils10GetDataDirB5cxx11Ev
libhuginbase.so.0.0:_ZN11hugin_utils10GetHomeDirB5cxx11Ev
libhuginbase.so.0.0:_ZN11hugin_utils10GetICCDescB5cxx11ERKN5vigra11ArrayVectorIhSaIhEEE
libhuginbase.so.0.0:_ZN11hugin_utils10GetICCDescB5cxx11ERKPv
libhuginbase.so.0.0:_ZN11hugin_utils10ReplaceAllERNSt7__cxx1112basic_stringIcSt11char_traitsIcESaIcEEERKS5_c
libhuginbase.so.0.0:_ZN11hugin_utils10eig_jacobiEiPA3_dS1_PdPiS3_S3_S2_
libhuginbase.so.0.0:_ZN11hugin_utils11SplitStringERKNSt7__cxx1112basic_stringIcSt11char_traitsIcESaIcEEES7_
libhuginbase.so.0.0:_ZN11hugin_utils11stringToIntERKNSt7__cxx1112basic_stringIcSt11char_traitsIcESaIcEEERi
libhuginbase.so.0.0:_ZN11hugin_utils12getExtensionERKNSt7__cxx1112basic_stringIcSt11char_traitsIcESaIcEEE
libhuginbase.so.0.0:_ZN11hugin_utils12stringToUIntERKNSt7__cxx1112basic_stringIcSt11char_traitsIcESaIcEEERj
libhuginbase.so.0.0:_ZN11hugin_utils13CreateContextEPiPPc
libhuginbase.so.0.0:_ZN11hugin_utils13getPathPrefixERKNSt7__cxx1112basic_stringIcSt11char_traitsIcESaIcEEE
libhuginbase.so.0.0:_ZN11hugin_utils14DestroyContextEv
libhuginbase.so.0.0:_ZN11hugin_utils14doubleToStringB5cxx11Edi
libhuginbase.so.0.0:_ZN11hugin_utils14stripExtensionERKNSt7__cxx1112basic_stringIcSt11char_traitsIcESaIcEEE
libhuginbase.so.0.0:_ZN11hugin_utils15GetHuginVersionB5cxx11Ev
libhuginbase.so.0.0:_ZN11hugin_utils16EnforceExtensionERNSt7__cxx1112basic_stringIcSt11char_traitsIcESaIcEEERKS5_
libhuginbase.so.0.0:_ZN11hugin_utils17GetUserAppDataDirB5cxx11Ev
libhuginbase.so.0.0:_ZN11hugin_utils19GetAbsoluteFilenameERKNSt7__cxx1112basic_stringIcSt11char_traitsIcESaIcEEE
libhuginbase.so.0.0:_ZN11hugin_utils19IsFileTypeSupportedERKNSt7__cxx1112basic_stringIcSt11char_traitsIcESaIcEEE
libhuginbase.so.0.0:_ZN11hugin_utils20GetCurrentTimeStringB5cxx11Ev
libhuginbase.so.0.0:_ZN11hugin_utils23ControlPointErrorColourEdRdS0_S0_
libhuginbase.so.0.0:_ZN11hugin_utils3gcdEii
libhuginbase.so.0.0:_ZN11hugin_utils4_gcdEii
libhuginbase.so.0.0:_ZN11hugin_utils5sortdEiPdPi
libhuginbase.so.0.0:_ZN11hugin_utils7StrTrimERKNSt7__cxx1112basic_stringIcSt11char_traitsIcESaIcEEE
libhuginbase.so.0.0:_ZN11hugin_utils7initGPUEPiPPc
libhuginbase.so.0.0:_ZN11hugin_utils9stripPathERKNSt7__cxx1112basic_stringIcSt11char_traitsIcESaIcEEE
libhuginbase.so.0.0:_ZN11hugin_utils9wrapupGPUEv
libhuginbase.so.0.0:_ZN3doj13alphanum_compEPKcS1_
libhuginbase.so.0.0:_ZN3doj13alphanum_compERKNSt7__cxx1112basic_stringIcSt11char_traitsIcESaIcEEES7_
libhuginbase.so.0.0:_ZN3doj13alphanum_implEPKcS1_
libhuginbase.so.0.0:_ZN6Parser12ShuntingYard10ClearQueueERSt5queueIPNS0_9RPNTokens9TokenBaseESt5dequeIS4_SaIS4_EEE
libhuginbase.so.0.0:_ZN6Parser12ShuntingYard10InitParserEv
libhuginbase.so.0.0:_ZN6Parser12ShuntingYard11EvaluateRPNERSt5queueIPNS0_9RPNTokens9TokenBaseESt5dequeIS4_SaIS4_EEERd
libhuginbase.so.0.0:_ZN6Parser12ShuntingYard12ConvertToRPNERKNSt7__cxx1112basic_stringIcSt11char_traitsIcESaIcEEERKSt3mapIS6_dSt4lessIS6_ESaISt4pairIS7_dEEERSt5queueIPNS0_9RPNTokens9TokenBaseESt5dequeISL_SaISL_EEE
libhuginbase.so.0.0:_ZN6Parser12ShuntingYard12FindOperatorERKNSt7__cxx1112basic_stringIcSt11char_traitsIcESaIcEEE
libhuginbase.so.0.0:_ZN6Parser12ShuntingYard13CleanUpParserEv
libhuginbase.so.0.0:_ZN6Parser12ShuntingYard17RemoveWhiteSpacesERKNSt7__cxx1112basic_stringIcSt11char_traitsIcESaIcEEE
libhuginbase.so.0.0:_ZN6Parser14ParseSingleVarERSt6vectorINS_8ParseVarESaIS1_EERKNSt7__cxx1112basic_stringIcSt11char_traitsIcESaIcEEERSo
libhuginbase.so.0.0:_ZN6Parser14ParseVarNumberERKNSt7__cxx1112basic_stringIcSt11char_traitsIcESaIcEEERNS_8ParseVarE
libhuginbase.so.0.0:_ZN6Parser15ParseExpressionERKNSt7__cxx1112basic_stringIcSt11char_traitsIcESaIcEEERdRKSt3mapIS5_dSt4lessIS5_ESaISt4pairIS6_dEEERS5_
libhuginbase.so.0.0:_ZN6Parser15UpdateSingleVarERN9HuginBase8PanoramaERKNS_8ParseVarERKSt3mapINSt7__cxx1112basic_stringIcSt11char_traitsIcESaIcEEEdSt4lessISC_ESaISt4pairIKSC_dEEEmRSoSM_
libhuginbase.so.0.0:_ZN6Parser17CalculateConstantERN9HuginBase8PanoramaERKNS_8ParseVarERSt3mapINSt7__cxx1112basic_stringIcSt11char_traitsIcESaIcEEEdSt4lessISC_ESaISt4pairIKSC_dEEERSoSL_
libhuginbase.so.0.0:_ZN6Parser19PanoParseExpressionERN9HuginBase8PanoramaERKNSt7__cxx1112basic_stringIcSt11char_traitsIcESaIcEEERSoSB_
libhuginbase.so.0.0:_ZN6Parser19ParseVariableStringERSt6vectorINS_8ParseVarESaIS1_EERKNSt7__cxx1112basic_stringIcSt11char_traitsIcESaIcEEERSoPFvS4_SC_SD_E
libhuginbase.so.0.0:_ZN6Parser8ParseVarC1Ev
libhuginbase.so.0.0:_ZN6Parser8ParseVarC2Ev
libhuginbase.so.0.0:_ZN7AppBase15ProgressDisplay10setMaximumEi
libhuginbase.so.0.0:_ZN7AppBase15ProgressDisplay10setMessageERKNSt7__cxx1112basic_stringIcSt11char_traitsIcESaIcEEES8_
libhuginbase.so.0.0:_ZN7AppBase15ProgressDisplay12taskFinishedEv
libhuginbase.so.0.0:_ZN7AppBase15ProgressDisplay12wasCancelledEv
libhuginbase.so.0.0:_ZN7AppBase15ProgressDisplay13updateDisplayERKNSt7__cxx1112basic_stringIcSt11char_traitsIcESaIcEEE
libhuginbase.so.0.0:_ZN7AppBase15ProgressDisplay13updateDisplayEv
libhuginbase.so.0.0:_ZN7AppBase15ProgressDisplay18updateDisplayValueEv
libhuginbase.so.0.0:_ZN7AppBase21StreamProgressDisplay21updateProgressDisplayEv
libhuginbase.so.0.0:_ZN7Matrix311SetIdentityEv
libhuginbase.so.0.0:_ZN7Matrix311SetRotationEddd
libhuginbase.so.0.0:_ZN7Matrix312SetRotationXEd
libhuginbase.so.0.0:_ZN7Matrix312SetRotationYEd
libhuginbase.so.0.0:_ZN7Matrix312SetRotationZEd
libhuginbase.so.0.0:_ZN7Matrix313GetRotationPTERdS0_S0_
libhuginbase.so.0.0:_ZN7Matrix313SetRotationPTEddd
libhuginbase.so.0.0:_ZN7Matrix38IdentityE
libhuginbase.so.0.0:_ZN7Matrix3C1ERKS_
libhuginbase.so.0.0:_ZN7Matrix3C1Ev
libhuginbase.so.0.0:_ZN7Matrix3C2ERKS_
libhuginbase.so.0.0:_ZN7Matrix3C2Ev
libhuginbase.so.0.0:_ZN7Matrix3aSERKS_
libhuginbase.so.0.0:_ZN7Matrix3dVEd
libhuginbase.so.0.0:_ZN7Matrix3mLES_
libhuginbase.so.0.0:_ZN7Matrix3mLEd
libhuginbase.so.0.0:_ZN7Vector33SetEddd
libhuginbase.so.0.0:_ZN7Vector39NormalizeEv
libhuginbase.so.0.0:_ZN7Vector3dVEd
libhuginbase.so.0.0:_ZN9HuginBase10ImageCache10PyramidKey8toStringB5cxx11Ev
libhuginbase.so.0.0:_ZN9HuginBase10ImageCache10loadSafelyESt10shared_ptrINS0_7RequestEES1_INS0_5EntryEE
libhuginbase.so.0.0:_ZN9HuginBase10ImageCache11getInstanceEv
libhuginbase.so.0.0:_ZN9HuginBase10ImageCache11removeImageERKNSt7__cxx1112basic_stringIcSt11char_traitsIcESaIcEEE
libhuginbase.so.0.0:_ZN9HuginBase10ImageCache13getSmallImageERKNSt7__cxx1112basic_stringIcSt11char_traitsIcESaIcEEE
libhuginbase.so.0.0:_ZN9HuginBase10ImageCache13removeRequestESt10shared_ptrINS0_7RequestEE
libhuginbase.so.0.0:_ZN9HuginBase10ImageCache15loadImageSafelyERKNSt7__cxx1112basic_stringIcSt11char_traitsIcESaIcEEE
libhuginbase.so.0.0:_ZN9HuginBase10ImageCache16spawnAsyncThreadEv
libhuginbase.so.0.0:_ZN9HuginBase10ImageCache17requestAsyncImageERKNSt7__cxx1112basic_stringIcSt11char_traitsIcESaIcEEE
libhuginbase.so.0.0:_ZN9HuginBase10ImageCache19getImageIfAvailableERKNSt7__cxx1112basic_stringIcSt11char_traitsIcESaIcEEE
libhuginbase.so.0.0:_ZN9HuginBase10ImageCache20loadSmallImageSafelyESt10shared_ptrINS0_5EntryEE
libhuginbase.so.0.0:_ZN9HuginBase10ImageCache22requestAsyncSmallImageERKNSt7__cxx1112basic_stringIcSt11char_traitsIcESaIcEEE
libhuginbase.so.0.0:_ZN9HuginBase10ImageCache24getSmallImageIfAvailableERKNSt7__cxx1112basic_stringIcSt11char_traitsIcESaIcEEE
libhuginbase.so.0.0:_ZN9HuginBase10ImageCache5Entry12get8BitImageEv
libhuginbase.so.0.0:_ZN9HuginBase10ImageCache5flushEv
libhuginbase.so.0.0:_ZN9HuginBase10ImageCache8getImageERKNSt7__cxx1112basic_stringIcSt11char_traitsIcESaIcEEE
libhuginbase.so.0.0:_ZN9HuginBase10ImageCache8instanceE
libhuginbase.so.0.0:_ZN9HuginBase10ImageCache9postEventESt10shared_ptrINS0_7RequestEES1_INS0_5EntryEE
libhuginbase.so.0.0:_ZN9HuginBase10ImageCache9softFlushEv
libhuginbase.so.0.0:_ZN9HuginBase10ModifyRectERKN5vigra6Rect2DEllll
libhuginbase.so.0.0:_ZN9HuginBase11Exiv2Helper11getLensNameB5cxx11ERN5Exiv28ExifDataE
libhuginbase.so.0.0:_ZN9HuginBase11Exiv2Helper13getCropFactorERN5Exiv28ExifDataEll
libhuginbase.so.0.0:_ZN9HuginBase11Exiv2Helper14_getExiv2ValueERN5Exiv28ExifDataENSt7__cxx1112basic_stringIcSt11char_traitsIcESaIcEEERS9_
libhuginbase.so.0.0:_ZN9HuginBase11Exiv2Helper14_getExiv2ValueERN5Exiv28ExifDataENSt7__cxx1112basic_stringIcSt11char_traitsIcESaIcEEERSt6vectorIfSaIfEE
libhuginbase.so.0.0:_ZN9HuginBase11Exiv2Helper14_getExiv2ValueERN5Exiv28ExifDataENSt7__cxx1112basic_stringIcSt11char_traitsIcESaIcEEERf
libhuginbase.so.0.0:_ZN9HuginBase11Exiv2Helper14_getExiv2ValueERN5Exiv28ExifDataENSt7__cxx1112basic_stringIcSt11char_traitsIcESaIcEEERl
libhuginbase.so.0.0:_ZN9HuginBase11Exiv2Helper14_getExiv2ValueERN5Exiv28ExifDataEtNSt7__cxx1112basic_stringIcSt11char_traitsIcESaIcEEERS9_
libhuginbase.so.0.0:_ZN9HuginBase11Exiv2Helper14_getExiv2ValueERN5Exiv28ExifDataEtNSt7__cxx1112basic_stringIcSt11char_traitsIcESaIcEEERd
libhuginbase.so.0.0:_ZN9HuginBase11Exiv2Helper17getExiv2ValueLongERN5Exiv28ExifDataENSt7__cxx1112basic_stringIcSt11char_traitsIcESaIcEEE
libhuginbase.so.0.0:_ZN9HuginBase11Exiv2Helper17getExiv2ValueLongERN5Exiv28ExifDataESt20_List_const_iteratorINS1_9ExifdatumEE
libhuginbase.so.0.0:_ZN9HuginBase11Exiv2Helper18readRedBlueBalanceERN5Exiv28ExifDataERdS4_
libhuginbase.so.0.0:_ZN9HuginBase11Exiv2Helper19getExiv2ValueDoubleERN5Exiv28ExifDataENSt7__cxx1112basic_stringIcSt11char_traitsIcESaIcEEE
libhuginbase.so.0.0:_ZN9HuginBase11Exiv2Helper19getExiv2ValueDoubleERN5Exiv28ExifDataESt20_List_const_iteratorINS1_9ExifdatumEE
libhuginbase.so.0.0:_ZN9HuginBase11Exiv2Helper19getExiv2ValueStringB5cxx11ERN5Exiv28ExifDataESt20_List_const_iteratorINS1_9ExifdatumEE
libhuginbase.so.0.0:_ZN9HuginBase11Exiv2Helper19getExiv2ValueStringERN5Exiv28ExifDataENSt7__cxx1112basic_stringIcSt11char_traitsIcESaIcEEE
libhuginbase.so.0.0:_ZN9HuginBase11Exiv2Helper8PrintTagESt14_List_iteratorIN5Exiv29ExifdatumEE
libhuginbase.so.0.0:_ZN9HuginBase11FitPanorama12runAlgorithmEv
libhuginbase.so.0.0:_ZN9HuginBase11MaskPolygon11clipPolygonEN11hugin_utils7TDiff2DIdEEd
libhuginbase.so.0.0:_ZN9HuginBase11MaskPolygon11clipPolygonEN5vigra6Rect2DE
libhuginbase.so.0.0:_ZN9HuginBase11MaskPolygon11insertPointEjN11hugin_utils7TDiff2DIdEE
libhuginbase.so.0.0:_ZN9HuginBase11MaskPolygon11movePointByEjN11hugin_utils7TDiff2DIdEE
libhuginbase.so.0.0:_ZN9HuginBase11MaskPolygon11movePointToEjN11hugin_utils7TDiff2DIdEE
libhuginbase.so.0.0:_ZN9HuginBase11MaskPolygon11removePointEj
libhuginbase.so.0.0:_ZN9HuginBase11MaskPolygon14setMaskPolygonERKSt6vectorIN11hugin_utils7TDiff2DIdEESaIS4_EE
libhuginbase.so.0.0:_ZN9HuginBase11MaskPolygon15calcBoundingBoxEv
libhuginbase.so.0.0:_ZN9HuginBase11MaskPolygon16transformPolygonERKNS_6PTools9TransformE
libhuginbase.so.0.0:_ZN9HuginBase11MaskPolygon18parsePolygonStringERKNSt7__cxx1112basic_stringIcSt11char_traitsIcESaIcEEE
libhuginbase.so.0.0:_ZN9HuginBase11MaskPolygon5scaleEdd
libhuginbase.so.0.0:_ZN9HuginBase11MaskPolygon8addPointEN11hugin_utils7TDiff2DIdEE
libhuginbase.so.0.0:_ZN9HuginBase11MaskPolygon8rotate90Ebjj
libhuginbase.so.0.0:_ZN9HuginBase11MaskPolygon9subSampleEd
libhuginbase.so.0.0:_ZN9HuginBase11MaskPolygonaSERKS0_
libhuginbase.so.0.0:_ZN9HuginBase11PTOptimizer12runAlgorithmEv
libhuginbase.so.0.0:_ZN9HuginBase11clip_isSideEN11hugin_utils7TDiff2DIdEEN5vigra6Rect2DENS_8clipSideE
libhuginbase.so.0.0:_ZN9HuginBase11generateArcERSt6vectorIN11hugin_utils7TDiff2DIdEESaIS3_EES3_S3_db
libhuginbase.so.0.0:_ZN9HuginBase12AutoOptimise12autoOptimiseERNS_12PanoramaDataEb
libhuginbase.so.0.0:_ZN9HuginBase12CalculateFOV7calcFOVERKNS_12PanoramaDataE
libhuginbase.so.0.0:_ZN9HuginBase12ControlPoint6mirrorEv
libhuginbase.so.0.0:_ZN9HuginBase12PointSampler12runAlgorithmEv
libhuginbase.so.0.0:_ZN9HuginBase12PointSampler22sampleAndExtractPointsEPN7AppBase15ProgressDisplayE
libhuginbase.so.0.0:_ZN9HuginBase12SrcPanoImage10deleteMaskEj
libhuginbase.so.0.0:_ZN9HuginBase12SrcPanoImage11setCropModeENS_16BaseSrcPanoImage8CropModeE
libhuginbase.so.0.0:_ZN9HuginBase12SrcPanoImage11setExposureERKd
libhuginbase.so.0.0:_ZN9HuginBase12SrcPanoImage13addActiveMaskENS_11MaskPolygonE
libhuginbase.so.0.0:_ZN9HuginBase12SrcPanoImage14calcCropFactorENS_16BaseSrcPanoImage10ProjectionEddN5vigra6Size2DE
libhuginbase.so.0.0:_ZN9HuginBase12SrcPanoImage14changeMaskTypeEjNS_11MaskPolygon8MaskTypeE
libhuginbase.so.0.0:_ZN9HuginBase12SrcPanoImage14deleteAllMasksEv
libhuginbase.so.0.0:_ZN9HuginBase12SrcPanoImage15applyEXIFValuesEb
libhuginbase.so.0.0:_ZN9HuginBase12SrcPanoImage15calcFocalLengthENS_16BaseSrcPanoImage10ProjectionEddN5vigra6Size2DE
libhuginbase.so.0.0:_ZN9HuginBase12SrcPanoImage16clearActiveMasksEv
libhuginbase.so.0.0:_ZN9HuginBase12SrcPanoImage16updateCropFactorEdd
libhuginbase.so.0.0:_ZN9HuginBase12SrcPanoImage17updateFocalLengthEd
libhuginbase.so.0.0:_ZN9HuginBase12SrcPanoImage19checkImageSizeKnownEv
libhuginbase.so.0.0:_ZN9HuginBase12SrcPanoImage20horizontalWarpNeededEv
libhuginbase.so.0.0:_ZN9HuginBase12SrcPanoImage20readCropfactorFromDBEv
libhuginbase.so.0.0:_ZN9HuginBase12SrcPanoImage20readDistortionFromDBEv
libhuginbase.so.0.0:_ZN9HuginBase12SrcPanoImage20readProjectionFromDBEb
libhuginbase.so.0.0:_ZN9HuginBase12SrcPanoImage20readVignettingFromDBEv
libhuginbase.so.0.0:_ZN9HuginBase12SrcPanoImage20trustExivOrientationEv
libhuginbase.so.0.0:_ZN9HuginBase12SrcPanoImage21calcExifExposureValueEv
libhuginbase.so.0.0:_ZN9HuginBase12SrcPanoImage6resizeERKN5vigra6Size2DE
libhuginbase.so.0.0:_ZN9HuginBase12SrcPanoImage6setVarERKNSt7__cxx1112basic_stringIcSt11char_traitsIcESaIcEEEd
libhuginbase.so.0.0:_ZN9HuginBase12SrcPanoImage7addMaskENS_11MaskPolygonE
libhuginbase.so.0.0:_ZN9HuginBase12SrcPanoImage7setSizeEN5vigra6Size2DE
libhuginbase.so.0.0:_ZN9HuginBase12SrcPanoImage8calcHFOVENS_16BaseSrcPanoImage10ProjectionEddN5vigra6Size2DE
libhuginbase.so.0.0:_ZN9HuginBase12SrcPanoImage8readEXIFEv
libhuginbase.so.0.0:_ZN9HuginBase12clip_onPlaneERKSt6vectorIN11hugin_utils7TDiff2DIdEESaIS3_EEN5vigra6Rect2DENS_8clipSideE
libhuginbase.so.0.0:_ZN9HuginBase12getCPinMasksENS_8PanoramaE
libhuginbase.so.0.0:_ZN9HuginBase12getHDRStacksERKNS_12PanoramaDataESt3setIjSt4lessIjESaIjEENS_15PanoramaOptionsE
libhuginbase.so.0.0:_ZN9HuginBase13SmartOptimise13smartOptimizeERNS_12PanoramaDataE
libhuginbase.so.0.0:_ZN9HuginBase13angle_betweenEN11hugin_utils7TDiff2DIdEES2_
libhuginbase.so.0.0:_ZN9HuginBase14CheckStrangeWBERNS_12PanoramaDataE
libhuginbase.so.0.0:_ZN9HuginBase14LimitIntensityC1ENS0_9LimitTypeE
libhuginbase.so.0.0:_ZN9HuginBase14LimitIntensityC1Ev
libhuginbase.so.0.0:_ZN9HuginBase14LimitIntensityC2ENS0_9LimitTypeE
libhuginbase.so.0.0:_ZN9HuginBase14LimitIntensityC2Ev
libhuginbase.so.0.0:_ZN9HuginBase14RotatePanorama10rotatePanoERNS_12PanoramaDataERK7Matrix3
libhuginbase.so.0.0:_ZN9HuginBase14RotatePanoramaC1ERNS_12PanoramaDataEddd
libhuginbase.so.0.0:_ZN9HuginBase14RotatePanoramaC2ERNS_12PanoramaDataEddd
libhuginbase.so.0.0:_ZN9HuginBase14fillLensVarMapERSt3mapINSt7__cxx1112basic_stringIcSt11char_traitsIcESaIcEEENS_12LensVariableESt4lessIS6_ESaISt4pairIKS6_S7_EEE
libhuginbase.so.0.0:_ZN9HuginBase14getImagesinROIERKNS_12PanoramaDataESt3setIjSt4lessIjESaIjEE
libhuginbase.so.0.0:_ZN9HuginBase14getImagesinROIERKNS_12PanoramaDataESt3setIjSt4lessIjESaIjEEN5vigra6Rect2DE
libhuginbase.so.0.0:_ZN9HuginBase15ComputeImageROI11computeROISERKNS_12PanoramaDataERKNS_15PanoramaOptionsERKSt3setIjSt4lessIjESaIjEE
libhuginbase.so.0.0:_ZN9HuginBase15PTScriptParsing10getPTParamERNSt7__cxx1112basic_stringIcSt11char_traitsIcESaIcEEERKS6_S9_
libhuginbase.so.0.0:_ZN9HuginBase15PTScriptParsing14getDoubleParamERdRKNSt7__cxx1112basic_stringIcSt11char_traitsIcESaIcEEES9_
libhuginbase.so.0.0:_ZN9HuginBase15PTScriptParsing16getPTDoubleParamERdRiRKNSt7__cxx1112basic_stringIcSt11char_traitsIcESaIcEEESA_
libhuginbase.so.0.0:_ZN9HuginBase15PTScriptParsing7ImgInfo13defaultValuesE
libhuginbase.so.0.0:_ZN9HuginBase15PTScriptParsing7ImgInfo4initEv
libhuginbase.so.0.0:_ZN9HuginBase15PTScriptParsing7ImgInfo5parseERKNSt7__cxx1112basic_stringIcSt11char_traitsIcESaIcEEE
libhuginbase.so.0.0:_ZN9HuginBase15PTScriptParsing7ImgInfo8varnamesE
libhuginbase.so.0.0:_ZN9HuginBase15PTScriptParsing7readVarERNS_8VariableERiRKNSt7__cxx1112basic_stringIcSt11char_traitsIcESaIcEEE
libhuginbase.so.0.0:_ZN9HuginBase15PanoramaMemento12loadPTScriptERSiRiRKNSt7__cxx1112basic_stringIcSt11char_traitsIcESaIcEEE
libhuginbase.so.0.0:_ZN9HuginBase15PanoramaMemento15deleteAllImagesEv
libhuginbase.so.0.0:_ZN9HuginBase15PanoramaMementoC1ERKS0_
libhuginbase.so.0.0:_ZN9HuginBase15PanoramaMementoC2ERKS0_
libhuginbase.so.0.0:_ZN9HuginBase15PanoramaMementoD0Ev
libhuginbase.so.0.0:_ZN9HuginBase15PanoramaMementoD1Ev
libhuginbase.so.0.0:_ZN9HuginBase15PanoramaMementoD2Ev
libhuginbase.so.0.0:_ZN9HuginBase15PanoramaMementoaSERKS0_
libhuginbase.so.0.0:_ZN9HuginBase15PanoramaOptions13fileformatExtB5cxx11E
libhuginbase.so.0.0:_ZN9HuginBase15PanoramaOptions13getFormatNameB5cxx11ENS0_10FileFormatE
libhuginbase.so.0.0:_ZN9HuginBase15PanoramaOptions13setProjectionENS0_16ProjectionFormatE
libhuginbase.so.0.0:_ZN9HuginBase15PanoramaOptions15fileformatNamesB5cxx11E
libhuginbase.so.0.0:_ZN9HuginBase15PanoramaOptions17getFormatFromNameERKNSt7__cxx1112basic_stringIcSt11char_traitsIcESaIcEEE
libhuginbase.so.0.0:_ZN9HuginBase15PanoramaOptions23setProjectionParametersERKSt6vectorIdSaIdEE
libhuginbase.so.0.0:_ZN9HuginBase15PanoramaOptions25resetProjectionParametersEv
libhuginbase.so.0.0:_ZN9HuginBase15PanoramaOptions7setHFOVEdb
libhuginbase.so.0.0:_ZN9HuginBase15PanoramaOptions7setVFOVEd
libhuginbase.so.0.0:_ZN9HuginBase15PanoramaOptions8setWidthEjb
libhuginbase.so.0.0:_ZN9HuginBase15PanoramaOptions9setHeightEj
libhuginbase.so.0.0:_ZN9HuginBase15RANSACOptimizer11findInliersERNS_12PanoramaDataEiidNS0_4ModeE
libhuginbase.so.0.0:_ZN9HuginBase15RANSACOptimizer12runAlgorithmEv
libhuginbase.so.0.0:_ZN9HuginBase15fillVariableMapERSt3mapINSt7__cxx1112basic_stringIcSt11char_traitsIcESaIcEEENS_8VariableESt4lessIS6_ESaISt4pairIKS6_S7_EEE
libhuginbase.so.0.0:_ZN9HuginBase15getSortedStacksEPKNS_8PanoramaE
libhuginbase.so.0.0:_ZN9HuginBase16IsHighVignettingESt6vectorIdSaIdEE
libhuginbase.so.0.0:_ZN9HuginBase16SaveMaskToStreamERSoN5vigra6Size2DERNS_11MaskPolygonEm
libhuginbase.so.0.0:_ZN9HuginBase16printVariableMapERSoRKSt3mapINSt7__cxx1112basic_stringIcSt11char_traitsIcESaIcEEENS_8VariableESt4lessIS7_ESaISt4pairIKS7_S8_EEE
libhuginbase.so.0.0:_ZN9HuginBase17TranslatePanorama13translatePanoERNS_12PanoramaDataEddd
libhuginbase.so.0.0:_ZN9HuginBase17clip_insideCircleEN11hugin_utils7TDiff2DIdEES2_d
libhuginbase.so.0.0:_ZN9HuginBase17estimateOutputROIERKNS_12PanoramaDataERKNS_15PanoramaOptionsEj
libhuginbase.so.0.0:_ZN9HuginBase17getCPoutsideLimitENS_8PanoramaEdbb
libhuginbase.so.0.0:_ZN9HuginBase17getExposureLayersERKNS_12PanoramaDataESt3setIjSt4lessIjESaIjEENS_15PanoramaOptionsE
libhuginbase.so.0.0:_ZN9HuginBase17getExposureLayersERKNS_12PanoramaDataESt3setIjSt4lessIjESaIjEEd
libhuginbase.so.0.0:_ZN9HuginBase18CenterHorizontally20centerHorizonticallyERNS_12PanoramaDataE
libhuginbase.so.0.0:_ZN9HuginBase18ImageVariableGroup11switchPartsEjj
libhuginbase.so.0.0:_ZN9HuginBase18ImageVariableGroup16linkVariablePartENS_23ConstImageVariableGroup17ImageVariableEnumEj
libhuginbase.so.0.0:_ZN9HuginBase18ImageVariableGroup17linkVariableImageENS_23ConstImageVariableGroup17ImageVariableEnumEj
libhuginbase.so.0.0:_ZN9HuginBase18ImageVariableGroup18unlinkVariablePartENS_23ConstImageVariableGroup17ImageVariableEnumEj
libhuginbase.so.0.0:_ZN9HuginBase18ImageVariableGroup19unlinkVariableImageENS_23ConstImageVariableGroup17ImageVariableEnumEj
libhuginbase.so.0.0:_ZN9HuginBase18LoadMaskFromStreamERSiRN5vigra6Size2DERSt6vectorINS_11MaskPolygonESaIS5_EEm
libhuginbase.so.0.0:_ZN9HuginBase18SmartOptimizerStub13createOptVarsB5cxx11ERKNS_12PanoramaDataEij
libhuginbase.so.0.0:_ZN9HuginBase18StraightenPanorama25calcStraighteningRotationERKNS_12PanoramaDataE
libhuginbase.so.0.0:_ZN9HuginBase18UpdateOptVectorSetERSt3setINSt7__cxx1112basic_stringIcSt11char_traitsIcESaIcEEESt4lessIS6_ESaIS6_EERKS6_b
libhuginbase.so.0.0:_ZN9HuginBase19CalculateOptimalROI10stackPixelEiiRSt3setIjSt4lessIjESaIjEE
libhuginbase.so.0.0:_ZN9HuginBase19CalculateOptimalROI11nonreccheckERKN5vigra6Rect2DEiiRl
libhuginbase.so.0.0:_ZN9HuginBase19CalculateOptimalROI14calcOptimalROIERNS_12PanoramaDataE
libhuginbase.so.0.0:_ZN9HuginBase19CalculateOptimalROI16AddCheckingRectsERNSt7__cxx114listIN5vigra6Rect2DESaIS4_EEERKS4_l
libhuginbase.so.0.0:_ZN9HuginBase19CalculateOptimalROI19CheckRectCoversPanoERKN5vigra6Rect2DE
libhuginbase.so.0.0:_ZN9HuginBase19CalculateOptimalROI7CleanUpEv
libhuginbase.so.0.0:_ZN9HuginBase19CalculateOptimalROI8autocropEv
libhuginbase.so.0.0:_ZN9HuginBase19CalculateOptimalROI8imgPixelEii
libhuginbase.so.0.0:_ZN9HuginBase19CalculateOptimalROI9setStacksESt6vectorISt3setIjSt4lessIjESaIjEESaIS6_EE
libhuginbase.so.0.0:_ZN9HuginBase20CalculateFitPanorama7fitPanoERNS_12PanoramaDataERdS3_
libhuginbase.so.0.0:_ZN9HuginBase20PhotometricOptimizer12runAlgorithmEv
libhuginbase.so.0.0:_ZN9HuginBase20PhotometricOptimizer14photometricVisEPdS1_iiidPv
libhuginbase.so.0.0:_ZN9HuginBase20PhotometricOptimizer16photometricErrorEPdS1_iiPv
libhuginbase.so.0.0:_ZN9HuginBase20PhotometricOptimizer19optimizePhotometricERNS_12PanoramaDataERKSt6vectorISt3setINSt7__cxx1112basic_stringIcSt11char_traitsIcESaIcEEESt4lessISA_ESaISA_EESaISE_EERKS3_IN9vigra_ext10PointPairTIN5vigra8RGBValueIfLj0ELj1ELj2EEEEESaISO_EEfPN7AppBase15ProgressDisplayERd
libhuginbase.so.0.0:_ZN9HuginBase20PhotometricOptimizer9OptimData3ToXEPd
libhuginbase.so.0.0:_ZN9HuginBase20PhotometricOptimizer9OptimData5FromXEPd
libhuginbase.so.0.0:_ZN9HuginBase20PhotometricOptimizer9OptimDataC1ERKNS_12PanoramaDataERKSt6vectorISt3setINSt7__cxx1112basic_stringIcSt11char_traitsIcESaIcEEESt4lessISC_ESaISC_EESaISG_EERKS5_IN9vigra_ext10PointPairTIN5vigra8RGBValueIfLj0ELj1ELj2EEEEESaISQ_EEdbiPN7AppBase15ProgressDisplayE
libhuginbase.so.0.0:_ZN9HuginBase20PhotometricOptimizer9OptimDataC2ERKNS_12PanoramaDataERKSt6vectorISt3setINSt7__cxx1112basic_stringIcSt11char_traitsIcESaIcEEESt4lessISC_ESaISC_EESaISG_EERKS5_IN9vigra_ext10PointPairTIN5vigra8RGBValueIfLj0ELj1ELj2EEEEESaISQ_EEdbiPN7AppBase15ProgressDisplayE
libhuginbase.so.0.0:_ZN9HuginBase20clip_getIntersectionEN11hugin_utils7TDiff2DIdEES2_N5vigra6Rect2DENS_8clipSideE
libhuginbase.so.0.0:_ZN9HuginBase21CalculateImageOverlap13limitToImagesESt3setIjSt4lessIjESaIjEE
libhuginbase.so.0.0:_ZN9HuginBase21CalculateImageOverlap9calculateEj
libhuginbase.so.0.0:_ZN9HuginBase21CalculateImageOverlapC1EPKNS_12PanoramaDataE
libhuginbase.so.0.0:_ZN9HuginBase21CalculateImageOverlapC2EPKNS_12PanoramaDataE
libhuginbase.so.0.0:_ZN9HuginBase21CalculateImageOverlapD0Ev
libhuginbase.so.0.0:_ZN9HuginBase21CalculateImageOverlapD1Ev
libhuginbase.so.0.0:_ZN9HuginBase21CalculateImageOverlapD2Ev
libhuginbase.so.0.0:_ZN9HuginBase21CalculateMeanExposure16calcMeanExposureERKNS_12PanoramaDataE
libhuginbase.so.0.0:_ZN9HuginBase21CalculateOptimalScale16calcOptimalScaleERNS_12PanoramaDataE
libhuginbase.so.0.0:_ZN9HuginBase21CalculateOptimalScale20calcOptimalPanoScaleERKNS_12SrcPanoImageERKNS_15PanoramaOptionsE
libhuginbase.so.0.0:_ZN9HuginBase22NonaFileOutputStitcher11runStitcherEv
libhuginbase.so.0.0:_ZN9HuginBase22getCPoutsideLimit_pairENS_8PanoramaERN7AppBase15ProgressDisplayEd
libhuginbase.so.0.0:_ZN9HuginBase23ConstImageVariableGroup14setPartNumbersEv
libhuginbase.so.0.0:_ZN9HuginBase23ConstImageVariableGroup17updatePartNumbersEv
libhuginbase.so.0.0:_ZN9HuginBase23ConstImageVariableGroupC1ESt3setINS0_17ImageVariableEnumESt4lessIS2_ESaIS2_EERKNS_12PanoramaDataE
libhuginbase.so.0.0:_ZN9HuginBase23ConstImageVariableGroupC2ESt3setINS0_17ImageVariableEnumESt4lessIS2_ESaIS2_EERKNS_12PanoramaDataE
libhuginbase.so.0.0:_ZN9HuginBase23ConstImageVariableGroupD0Ev
libhuginbase.so.0.0:_ZN9HuginBase23ConstImageVariableGroupD1Ev
libhuginbase.so.0.0:_ZN9HuginBase23ConstImageVariableGroupD2Ev
libhuginbase.so.0.0:_ZN9HuginBase23FindStackNumberForImageERKSt6vectorISt3setIjSt4lessIjESaIjEESaIS5_EEj
libhuginbase.so.0.0:_ZN9HuginBase23SmallRemappedImageCache10invalidateEj
libhuginbase.so.0.0:_ZN9HuginBase23SmallRemappedImageCache10invalidateEv
libhuginbase.so.0.0:_ZN9HuginBase23SmallRemappedImageCache11getRemappedERKNS_12PanoramaDataERKNS_15PanoramaOptionsEjN5vigra6Rect2DEPN7AppBase15ProgressDisplayE
libhuginbase.so.0.0:_ZN9HuginBase23SmallRemappedImageCacheD0Ev
libhuginbase.so.0.0:_ZN9HuginBase23SmallRemappedImageCacheD1Ev
libhuginbase.so.0.0:_ZN9HuginBase23SmallRemappedImageCacheD2Ev
libhuginbase.so.0.0:_ZN9HuginBase25SmartPhotometricOptimizer12runAlgorithmEv
libhuginbase.so.0.0:_ZN9HuginBase25SmartPhotometricOptimizer24smartOptimizePhotometricERNS_12PanoramaDataENS0_23PhotometricOptimizeModeERKSt6vectorIN9vigra_ext10PointPairTIN5vigra8RGBValueIfLj0ELj1ELj2EEEEESaISA_EEfPN7AppBase15ProgressDisplayERd
libhuginbase.so.0.0:_ZN9HuginBase25getEstimatedBlendingOrderERKNS_12PanoramaDataERKSt3setIjSt4lessIjESaIjEEj
libhuginbase.so.0.0:_ZN9HuginBase26CalculateCPStatisticsError22calcCtrlPntsErrorStatsERKNS_12PanoramaDataERdS4_S4_S4_RKibb
libhuginbase.so.0.0:_ZN9HuginBase26clip_getIntersectionCircleEN11hugin_utils7TDiff2DIdEES2_S2_d
libhuginbase.so.0.0:_ZN9HuginBase27CalculateCPStatisticsRadial21calcCtrlPntsRadiStatsERKNS_12PanoramaDataERdS4_S4_S4_S4_S4_RKi
libhuginbase.so.0.0:_ZN9HuginBase27StandardImageVariableGroups6updateEv
libhuginbase.so.0.0:_ZN9HuginBase27StandardImageVariableGroupsC1ERNS_12PanoramaDataE
libhuginbase.so.0.0:_ZN9HuginBase27StandardImageVariableGroupsC2ERNS_12PanoramaDataE
libhuginbase.so.0.0:_ZN9HuginBase32ConstStandardImageVariableGroups15getLensForImageEm
libhuginbase.so.0.0:_ZN9HuginBase32ConstStandardImageVariableGroups16getLensVariablesEv
libhuginbase.so.0.0:_ZN9HuginBase32ConstStandardImageVariableGroups17getStackVariablesEv
libhuginbase.so.0.0:_ZN9HuginBase32ConstStandardImageVariableGroups6updateEv
libhuginbase.so.0.0:_ZN9HuginBase32ConstStandardImageVariableGroups7getLensEm
libhuginbase.so.0.0:_ZN9HuginBase32ConstStandardImageVariableGroupsC1ERKNS_12PanoramaDataE
libhuginbase.so.0.0:_ZN9HuginBase32ConstStandardImageVariableGroupsC2ERKNS_12PanoramaDataE
libhuginbase.so.0.0:_ZN9HuginBase4Lens13variableNamesE
libhuginbase.so.0.0:_ZN9HuginBase4Lens6updateERKS0_
libhuginbase.so.0.0:_ZN9HuginBase4Lens7setHFOVEd
libhuginbase.so.0.0:_ZN9HuginBase4LensC1Ev
libhuginbase.so.0.0:_ZN9HuginBase4LensC2Ev
libhuginbase.so.0.0:_ZN9HuginBase4Nona10erect_panoEddPdS1_RKNS0_11_FuncParamsE
libhuginbase.so.0.0:_ZN9HuginBase4Nona10erect_rectEddPdS1_RKNS0_11_FuncParamsE
libhuginbase.so.0.0:_ZN9HuginBase4Nona10inv_radialEddPdS1_RKNS0_11_FuncParamsE
libhuginbase.so.0.0:_ZN9HuginBase4Nona10pano_erectEddPdS1_RKNS0_11_FuncParamsE
libhuginbase.so.0.0:_ZN9HuginBase4Nona10persp_rectEddPdS1_RKNS0_11_FuncParamsE
libhuginbase.so.0.0:_ZN9HuginBase4Nona10rect_erectEddPdS1_RKNS0_11_FuncParamsE
libhuginbase.so.0.0:_ZN9HuginBase4Nona12persp_sphereEddPdS1_RKNS0_11_FuncParamsE
libhuginbase.so.0.0:_ZN9HuginBase4Nona12rotate_erectEddPdS1_RKNS0_11_FuncParamsE
libhuginbase.so.0.0:_ZN9HuginBase4Nona14SpaceTransform12AddTransformEPFvddPdS2_RKNS0_11_FuncParamsEE7Matrix3dddd
libhuginbase.so.0.0:_ZN9HuginBase4Nona14SpaceTransform12AddTransformEPFvddPdS2_RKNS0_11_FuncParamsEEdddddddd
libhuginbase.so.0.0:_ZN9HuginBase4Nona14SpaceTransform15createTransformERKN5vigra6Diff2DERKSt3mapINSt7__cxx1112basic_stringIcSt11char_traitsIcESaIcEEENS_8VariableESt4lessISC_ESaISt4pairIKSC_SD_EEENS_16BaseSrcPanoImage10ProjectionES5_NS_15PanoramaOptions16ProjectionFormatEd
libhuginbase.so.0.0:_ZN9HuginBase4Nona14SpaceTransform15createTransformERKNS_12PanoramaDataEjRKNS_15PanoramaOptionsEN5vigra6Diff2DE
libhuginbase.so.0.0:_ZN9HuginBase4Nona14SpaceTransform15createTransformERKNS_12SrcPanoImageERKNS_15PanoramaOptionsE
libhuginbase.so.0.0:_ZN9HuginBase4Nona14SpaceTransform17InitRadialCorrectERKN5vigra6Size2DERKSt6vectorIdSaIdEERKN11hugin_utils7TDiff2DIdEE
libhuginbase.so.0.0:_ZN9HuginBase4Nona14SpaceTransform17InitRadialCorrectERKNS_12SrcPanoImageEi
libhuginbase.so.0.0:_ZN9HuginBase4Nona14SpaceTransform18createInvTransformERKN5vigra6Diff2DERKSt3mapINSt7__cxx1112basic_stringIcSt11char_traitsIcESaIcEEENS_8VariableESt4lessISC_ESaISt4pairIKSC_SD_EEENS_16BaseSrcPanoImage10ProjectionES5_NS_15PanoramaOptions16ProjectionFormatEd
libhuginbase.so.0.0:_ZN9HuginBase4Nona14SpaceTransform18createInvTransformERKNS_12PanoramaDataEjRKNS_15PanoramaOptionsEN5vigra6Diff2DE
libhuginbase.so.0.0:_ZN9HuginBase4Nona14SpaceTransform18createInvTransformERKNS_12SrcPanoImageERKNS_15PanoramaOptionsE
libhuginbase.so.0.0:_ZN9HuginBase4Nona14SpaceTransform20InitInvRadialCorrectERKNS_12SrcPanoImageEi
libhuginbase.so.0.0:_ZN9HuginBase4Nona14SpaceTransform4InitERKNS_12SrcPanoImageERKN5vigra6Diff2DENS_15PanoramaOptions16ProjectionFormatEd
libhuginbase.so.0.0:_ZN9HuginBase4Nona14SpaceTransform7InitInvERKNS_12SrcPanoImageERKN5vigra6Diff2DENS_15PanoramaOptions16ProjectionFormatEd
libhuginbase.so.0.0:_ZN9HuginBase4Nona14SpaceTransformC1Ev
libhuginbase.so.0.0:_ZN9HuginBase4Nona14SpaceTransformC2Ev
libhuginbase.so.0.0:_ZN9HuginBase4Nona14SpaceTransformD1Ev
libhuginbase.so.0.0:_ZN9HuginBase4Nona14SpaceTransformD2Ev
libhuginbase.so.0.0:_ZN9HuginBase4Nona14erect_mercatorEddPdS1_RKNS0_11_FuncParamsE
libhuginbase.so.0.0:_ZN9HuginBase4Nona14mercator_erectEddPdS1_RKNS0_11_FuncParamsE
libhuginbase.so.0.0:_ZN9HuginBase4Nona14pano_sphere_tpEddPdS1_RKNS0_11_FuncParamsE
libhuginbase.so.0.0:_ZN9HuginBase4Nona14rect_sphere_tpEddPdS1_RKNS0_11_FuncParamsE
libhuginbase.so.0.0:_ZN9HuginBase4Nona14sphere_tp_panoEddPdS1_RKNS0_11_FuncParamsE
libhuginbase.so.0.0:_ZN9HuginBase4Nona14sphere_tp_rectEddPdS1_RKNS0_11_FuncParamsE
libhuginbase.so.0.0:_ZN9HuginBase4Nona14stitchPanoramaERKNS_12PanoramaDataERKNS_15PanoramaOptionsEPN7AppBase15ProgressDisplayERKNSt7__cxx1112basic_stringIcSt11char_traitsIcESaIcEEERKSt3setIjSt4lessIjESaIjEERKSt3mapISF_SF_SJ_ISF_ESaISt4pairISG_SF_EEE
libhuginbase.so.0.0:_ZN9HuginBase4Nona15erect_sphere_tpEddPdS1_RKNS0_11_FuncParamsE
libhuginbase.so.0.0:_ZN9HuginBase4Nona15erect_transpanoEddPdS1_RKNS0_11_FuncParamsE
libhuginbase.so.0.0:_ZN9HuginBase4Nona15sphere_tp_erectEddPdS1_RKNS0_11_FuncParamsE
libhuginbase.so.0.0:_ZN9HuginBase4Nona15transpano_erectEddPdS1_RKNS0_11_FuncParamsE
libhuginbase.so.0.0:_ZN9HuginBase4Nona16erect_sinusoidalEddPdS1_RKNS0_11_FuncParamsE
libhuginbase.so.0.0:_ZN9HuginBase4Nona16sinusoidal_erectEddPdS1_RKNS0_11_FuncParamsE
libhuginbase.so.0.0:_ZN9HuginBase4Nona17GetAdvancedOptionERKSt3mapINSt7__cxx1112basic_stringIcSt11char_traitsIcESaIcEEES7_St4lessIS7_ESaISt4pairIKS7_S7_EEERSB_SH_
libhuginbase.so.0.0:_ZN9HuginBase4Nona17GetAdvancedOptionERKSt3mapINSt7__cxx1112basic_stringIcSt11char_traitsIcESaIcEEES7_St4lessIS7_ESaISt4pairIKS7_S7_EEERSB_b
libhuginbase.so.0.0:_ZN9HuginBase4Nona17GetAdvancedOptionERKSt3mapINSt7__cxx1112basic_stringIcSt11char_traitsIcESaIcEEES7_St4lessIS7_ESaISt4pairIKS7_S7_EEERSB_f
libhuginbase.so.0.0:_ZN9HuginBase4Nona17SetAdvancedOptionERSt3mapINSt7__cxx1112basic_stringIcSt11char_traitsIcESaIcEEES7_St4lessIS7_ESaISt4pairIKS7_S7_EEERSB_SG_
libhuginbase.so.0.0:_ZN9HuginBase4Nona17SetAdvancedOptionERSt3mapINSt7__cxx1112basic_stringIcSt11char_traitsIcESaIcEEES7_St4lessIS7_ESaISt4pairIKS7_S7_EEERSB_b
libhuginbase.so.0.0:_ZN9HuginBase4Nona17SetAdvancedOptionERSt3mapINSt7__cxx1112basic_stringIcSt11char_traitsIcESaIcEEES7_St4lessIS7_ESaISt4pairIKS7_S7_EEERSB_f
libhuginbase.so.0.0:_ZN9HuginBase4Nona18estRadialScaleCropERKSt6vectorIdSaIdEEii
libhuginbase.so.0.0:_ZN9HuginBase4Nona18stitchPanoRGB_8_16ERKNS_12PanoramaDataERKNS_15PanoramaOptionsEPN7AppBase15ProgressDisplayERKNSt7__cxx1112basic_stringIcSt11char_traitsIcESaIcEEERKSt3setIjSt4lessIjESaIjEEPKcRKSt3mapISF_SF_SJ_ISF_ESaISt4pairISG_SF_EEE
libhuginbase.so.0.0:_ZN9HuginBase4Nona19erect_stereographicEddPdS1_RKNS0_11_FuncParamsE
libhuginbase.so.0.0:_ZN9HuginBase4Nona19erect_transmercatorEddPdS1_RKNS0_11_FuncParamsE
libhuginbase.so.0.0:_ZN9HuginBase4Nona19stereographic_erectEddPdS1_RKNS0_11_FuncParamsE
libhuginbase.so.0.0:_ZN9HuginBase4Nona19stitchPanoGray_8_16ERKNS_12PanoramaDataERKNS_15PanoramaOptionsEPN7AppBase15ProgressDisplayERKNSt7__cxx1112basic_stringIcSt11char_traitsIcESaIcEEERKSt3setIjSt4lessIjESaIjEEPKcRKSt3mapISF_SF_SJ_ISF_ESaISt4pairISG_SF_EEE
libhuginbase.so.0.0:_ZN9HuginBase4Nona19transmercator_erectEddPdS1_RKNS0_11_FuncParamsE
libhuginbase.so.0.0:_ZN9HuginBase4Nona22stitchPanoRGB_32_floatERKNS_12PanoramaDataERKNS_15PanoramaOptionsEPN7AppBase15ProgressDisplayERKNSt7__cxx1112basic_stringIcSt11char_traitsIcESaIcEEERKSt3setIjSt4lessIjESaIjEEPKcRKSt3mapISF_SF_SJ_ISF_ESaISt4pairISG_SF_EEE
libhuginbase.so.0.0:_ZN9HuginBase4Nona23stitchPanoGray_32_floatERKNS_12PanoramaDataERKNS_15PanoramaOptionsEPN7AppBase15ProgressDisplayERKNSt7__cxx1112basic_stringIcSt11char_traitsIcESaIcEEERKSt3setIjSt4lessIjESaIjEEPKcRKSt3mapISF_SF_SJ_ISF_ESaISt4pairISG_SF_EEE
libhuginbase.so.0.0:_ZN9HuginBase4Nona26estScaleFactorForFullFrameERKNS_12SrcPanoImageE
libhuginbase.so.0.0:_ZN9HuginBase4Nona4vertEddPdS1_RKNS0_11_FuncParamsE
libhuginbase.so.0.0:_ZN9HuginBase4Nona5horizEddPdS1_RKNS0_11_FuncParamsE
libhuginbase.so.0.0:_ZN9HuginBase4Nona6radialEddPdS1_RKNS0_11_FuncParamsE
libhuginbase.so.0.0:_ZN9HuginBase4Nona6resizeEddPdS1_RKNS0_11_FuncParamsE
libhuginbase.so.0.0:_ZN9HuginBase4Nona9SetMatrixEdddi
libhuginbase.so.0.0:_ZN9HuginBase6LensDB16InterpolateValueEddddd
libhuginbase.so.0.0:_ZN9HuginBase6LensDB20SaveLensDataFromPanoERKNS_8PanoramaE
libhuginbase.so.0.0:_ZN9HuginBase6LensDB22IsFocallengthNearRangeEdddd
libhuginbase.so.0.0:_ZN9HuginBase6LensDB24InterpolateValueTriangleEddddddddddd
libhuginbase.so.0.0:_ZN9HuginBase6LensDB6LensDB10RemoveLensERKNSt7__cxx1112basic_stringIcSt11char_traitsIcESaIcEEE
libhuginbase.so.0.0:_ZN9HuginBase6LensDB6LensDB10m_instanceE
libhuginbase.so.0.0:_ZN9HuginBase6LensDB6LensDB11SaveLensFovERKNSt7__cxx1112basic_stringIcSt11char_traitsIcESaIcEEEddi
libhuginbase.so.0.0:_ZN9HuginBase6LensDB6LensDB12ExportToFileERKNSt7__cxx1112basic_stringIcSt11char_traitsIcESaIcEEE
libhuginbase.so.0.0:_ZN9HuginBase6LensDB6LensDB12GetSingletonEv
libhuginbase.so.0.0:_ZN9HuginBase6LensDB6LensDB12RemoveCameraERKNSt7__cxx1112basic_stringIcSt11char_traitsIcESaIcEEES9_
libhuginbase.so.0.0:_ZN9HuginBase6LensDB6LensDB12SaveLensCropERKNSt7__cxx1112basic_stringIcSt11char_traitsIcESaIcEEEdRKN5vigra6Size2DERKNSA_6Rect2DE
libhuginbase.so.0.0:_ZN9HuginBase6LensDB6LensDB14ImportFromFileERKNSt7__cxx1112basic_stringIcSt11char_traitsIcESaIcEEE
libhuginbase.so.0.0:_ZN9HuginBase6LensDB6LensDB14SaveCameraCropERKNSt7__cxx1112basic_stringIcSt11char_traitsIcESaIcEEES9_d
libhuginbase.so.0.0:_ZN9HuginBase6LensDB6LensDB14SaveDistortionERKNSt7__cxx1112basic_stringIcSt11char_traitsIcESaIcEEEdRKSt6vectorIdSaIdEEi
libhuginbase.so.0.0:_ZN9HuginBase6LensDB6LensDB14SaveVignettingERKNSt7__cxx1112basic_stringIcSt11char_traitsIcESaIcEEEdddRKSt6vectorIdSaIdEEi
libhuginbase.so.0.0:_ZN9HuginBase6LensDB6LensDB15CleanUpDatabaseEv
libhuginbase.so.0.0:_ZN9HuginBase6LensDB6LensDB18SaveLensProjectionERKNSt7__cxx1112basic_stringIcSt11char_traitsIcESaIcEEENS_16BaseSrcPanoImage10ProjectionE
libhuginbase.so.0.0:_ZN9HuginBase6LensDB6LensDB5CleanEv
libhuginbase.so.0.0:_ZN9HuginBase6LensDB6LensDB7SaveTCAERKNSt7__cxx1112basic_stringIcSt11char_traitsIcESaIcEEEdRKSt6vectorIdSaIdEESE_i
libhuginbase.so.0.0:_ZN9HuginBase6LensDB6LensDB8SaveEMoRERKNSt7__cxx1112basic_stringIcSt11char_traitsIcESaIcEEES9_iRKSt6vectorIfSaIfEEi
libhuginbase.so.0.0:_ZN9HuginBase6LensDB6LensDBC1Ev
libhuginbase.so.0.0:_ZN9HuginBase6LensDB6LensDBC2Ev
libhuginbase.so.0.0:_ZN9HuginBase6LensDB6LensDBD0Ev
libhuginbase.so.0.0:_ZN9HuginBase6LensDB6LensDBD1Ev
libhuginbase.so.0.0:_ZN9HuginBase6LensDB6LensDBD2Ev
libhuginbase.so.0.0:_ZN9HuginBase6PTools10initCPrefsER13correct_PrefsRKSt3mapINSt7__cxx1112basic_stringIcSt11char_traitsIcESaIcEEENS_8VariableESt4lessIS9_ESaISt4pairIKS9_SA_EEE
libhuginbase.so.0.0:_ZN9HuginBase6PTools12setDestImageER5ImageN5vigra6Diff2DEPhRKNS_15PanoramaOptions16ProjectionFormatERKSt6vectorIdSaIdEEd
libhuginbase.so.0.0:_ZN9HuginBase6PTools12setFullImageER5ImageN5vigra6Diff2DEPhRKSt3mapINSt7__cxx1112basic_stringIcSt11char_traitsIcESaIcEEENS_8VariableESt4lessISC_ESaISt4pairIKSC_SD_EEENS_16BaseSrcPanoImage10ProjectionEb
libhuginbase.so.0.0:_ZN9HuginBase6PTools18createAdjustTrformER9TrformStr
libhuginbase.so.0.0:_ZN9HuginBase6PTools19calcCtrlPointErrorsERNS_12PanoramaDataE
libhuginbase.so.0.0:_ZN9HuginBase6PTools21GetAlignInfoVariablesB5cxx11ERK9AlignInfo
libhuginbase.so.0.0:_ZN9HuginBase6PTools22GetAlignInfoCtrlPointsERK9AlignInfo
libhuginbase.so.0.0:_ZN9HuginBase6PTools8optimizeERNS_12PanoramaDataEPKc
libhuginbase.so.0.0:_ZN9HuginBase6PTools9Transform12updatePTDataERKN5vigra6Diff2DERKSt3mapINSt7__cxx1112basic_stringIcSt11char_traitsIcESaIcEEENS_8VariableESt4lessISC_ESaISt4pairIKSC_SD_EEERNS_16BaseSrcPanoImage10ProjectionES5_RNS_15PanoramaOptions16ProjectionFormatERKSt6vectorIdSaIdEEd
libhuginbase.so.0.0:_ZN9HuginBase6PTools9Transform15createTransformERKN5vigra6Diff2DESt3mapINSt7__cxx1112basic_stringIcSt11char_traitsIcESaIcEEENS_8VariableESt4lessISC_ESaISt4pairIKSC_SD_EEENS_16BaseSrcPanoImage10ProjectionES5_NS_15PanoramaOptions16ProjectionFormatERKSt6vectorIdSaIdEEdS5_
libhuginbase.so.0.0:_ZN9HuginBase6PTools9Transform15createTransformERKNS_12PanoramaDataEjRKNS_15PanoramaOptionsEN5vigra6Diff2DE
libhuginbase.so.0.0:_ZN9HuginBase6PTools9Transform15createTransformERKNS_12SrcPanoImageERKNS_15PanoramaOptionsE
libhuginbase.so.0.0:_ZN9HuginBase6PTools9Transform18createInvTransformERKN5vigra6Diff2DESt3mapINSt7__cxx1112basic_stringIcSt11char_traitsIcESaIcEEENS_8VariableESt4lessISC_ESaISt4pairIKSC_SD_EEENS_16BaseSrcPanoImage10ProjectionES5_NS_15PanoramaOptions16ProjectionFormatERKSt6vectorIdSaIdEEdS5_
libhuginbase.so.0.0:_ZN9HuginBase6PTools9Transform18createInvTransformERKNS_12PanoramaDataEjRKNS_15PanoramaOptionsEN5vigra6Diff2DE
libhuginbase.so.0.0:_ZN9HuginBase6PTools9Transform18createInvTransformERKNS_12SrcPanoImageERKNS_15PanoramaOptionsE
libhuginbase.so.0.0:_ZN9HuginBase6PTools9TransformD1Ev
libhuginbase.so.0.0:_ZN9HuginBase6PTools9TransformD2Ev
libhuginbase.so.0.0:_ZN9HuginBase6PTools9freeImageER5Image
libhuginbase.so.0.0:_ZN9HuginBase8GetRangeIdE3maxEv
libhuginbase.so.0.0:_ZN9HuginBase8GetRangeIdE3minEv
libhuginbase.so.0.0:_ZN9HuginBase8GetRangeIfE3maxEv
libhuginbase.so.0.0:_ZN9HuginBase8GetRangeIfE3minEv
libhuginbase.so.0.0:_ZN9HuginBase8GetRangeIhE3maxEv
libhuginbase.so.0.0:_ZN9HuginBase8GetRangeIhE3minEv
libhuginbase.so.0.0:_ZN9HuginBase8GetRangeIiE3maxEv
libhuginbase.so.0.0:_ZN9HuginBase8GetRangeIiE3minEv
libhuginbase.so.0.0:_ZN9HuginBase8GetRangeIjE3maxEv
libhuginbase.so.0.0:_ZN9HuginBase8GetRangeIjE3minEv
libhuginbase.so.0.0:_ZN9HuginBase8GetRangeIsE3maxEv
libhuginbase.so.0.0:_ZN9HuginBase8GetRangeIsE3minEv
libhuginbase.so.0.0:_ZN9HuginBase8GetRangeItE3maxEv
libhuginbase.so.0.0:_ZN9HuginBase8GetRangeItE3minEv
libhuginbase.so.0.0:_ZN9HuginBase8Panorama10centerCropEj
libhuginbase.so.0.0:_ZN9HuginBase8Panorama10setMementoERKNS_15PanoramaMementoE
libhuginbase.so.0.0:_ZN9HuginBase8Panorama10setOptionsERKNS_15PanoramaOptionsE
libhuginbase.so.0.0:_ZN9HuginBase8Panorama10swapImagesEjj
libhuginbase.so.0.0:_ZN9HuginBase8Panorama11addObserverEPNS_16PanoramaObserverE
libhuginbase.so.0.0:_ZN9HuginBase8Panorama11removeImageEj
libhuginbase.so.0.0:_ZN9HuginBase8Panorama11setSrcImageEjRKNS_12SrcPanoImageE
libhuginbase.so.0.0:_ZN9HuginBase8Panorama11updateMasksEb
libhuginbase.so.0.0:_ZN9HuginBase8Panorama12addCtrlPointERKNS_12ControlPointE
libhuginbase.so.0.0:_ZN9HuginBase8Panorama12getRefImagesEv
libhuginbase.so.0.0:_ZN9HuginBase8Panorama12imageChangedEj
libhuginbase.so.0.0:_ZN9HuginBase8Panorama12setNrOfBandsEi
libhuginbase.so.0.0:_ZN9HuginBase8Panorama12transferMaskENS_11MaskPolygonEjRKSt3setIjSt4lessIjESaIjEE
libhuginbase.so.0.0:_ZN9HuginBase8Panorama13activateImageEjb
libhuginbase.so.0.0:_ZN9HuginBase8Panorama13mergePanoramaERKS0_
libhuginbase.so.0.0:_ZN9HuginBase8Panorama13setCtrlPointsERKSt6vectorINS_12ControlPointESaIS2_EE
libhuginbase.so.0.0:_ZN9HuginBase8Panorama14changeFinishedEb
libhuginbase.so.0.0:_ZN9HuginBase8Panorama14clearObserversEv
libhuginbase.so.0.0:_ZN9HuginBase8Panorama14removeObserverEPNS_16PanoramaObserverE
libhuginbase.so.0.0:_ZN9HuginBase8Panorama14updateCropModeEj
libhuginbase.so.0.0:_ZN9HuginBase8Panorama14updateVariableEjRKNS_8VariableE
libhuginbase.so.0.0:_ZN9HuginBase8Panorama15centerCropImageEj
libhuginbase.so.0.0:_ZN9HuginBase8Panorama15removeCtrlPointEj
libhuginbase.so.0.0:_ZN9HuginBase8Panorama15updateVariablesERKSt3setIjSt4lessIjESaIjEERKSt6vectorISt3mapINSt7__cxx1112basic_stringIcSt11char_traitsIcESaIcEEENS_8VariableES2_ISF_ESaISt4pairIKSF_SG_EEESaISM_EE
libhuginbase.so.0.0:_ZN9HuginBase8Panorama15updateVariablesERKSt6vectorISt3mapINSt7__cxx1112basic_stringIcSt11char_traitsIcESaIcEEENS_8VariableESt4lessIS8_ESaISt4pairIKS8_S9_EEESaISG_EE
libhuginbase.so.0.0:_ZN9HuginBase8Panorama15updateVariablesEjRKSt3mapINSt7__cxx1112basic_stringIcSt11char_traitsIcESaIcEEENS_8VariableESt4lessIS7_ESaISt4pairIKS7_S8_EEE
libhuginbase.so.0.0:_ZN9HuginBase8Panorama16UpdateCropFactorESt3setIjSt4lessIjESaIjEEd
libhuginbase.so.0.0:_ZN9HuginBase8Panorama16setImageFilenameEjRKNSt7__cxx1112basic_stringIcSt11char_traitsIcESaIcEEE
libhuginbase.so.0.0:_ZN9HuginBase8Panorama17UpdateFocalLengthESt3setIjSt4lessIjESaIjEEd
libhuginbase.so.0.0:_ZN9HuginBase8Panorama17checkRefOptStatusERbS1_S1_
libhuginbase.so.0.0:_ZN9HuginBase8Panorama17setICCProfileDescERKNSt7__cxx1112basic_stringIcSt11char_traitsIcESaIcEEE
libhuginbase.so.0.0:_ZN9HuginBase8Panorama17setOptimizeVectorERKSt6vectorISt3setINSt7__cxx1112basic_stringIcSt11char_traitsIcESaIcEEESt4lessIS8_ESaIS8_EESaISC_EE
libhuginbase.so.0.0:_ZN9HuginBase8Panorama18changeControlPointEjRKNS_12ControlPointE
libhuginbase.so.0.0:_ZN9HuginBase8Panorama18linkImageVariableXEjj
libhuginbase.so.0.0:_ZN9HuginBase8Panorama18linkImageVariableYEjj
libhuginbase.so.0.0:_ZN9HuginBase8Panorama18linkImageVariableZEjj
libhuginbase.so.0.0:_ZN9HuginBase8Panorama18linkPossibleStacksEb
libhuginbase.so.0.0:_ZN9HuginBase8Panorama18setMementoToCopyOfEPKNS_19PanoramaDataMementoE
libhuginbase.so.0.0:_ZN9HuginBase8Panorama18setOptimizerSwitchEi
libhuginbase.so.0.0:_ZN9HuginBase8Panorama18updateWhiteBalanceEdd
libhuginbase.so.0.0:_ZN9HuginBase8Panorama19updateMasksForImageEjSt6vectorINS_11MaskPolygonESaIS2_EE
libhuginbase.so.0.0:_ZN9HuginBase8Panorama20linkImageVariableYawEjj
libhuginbase.so.0.0:_ZN9HuginBase8Panorama20unlinkImageVariableXEj
libhuginbase.so.0.0:_ZN9HuginBase8Panorama20unlinkImageVariableYEj
libhuginbase.so.0.0:_ZN9HuginBase8Panorama20unlinkImageVariableZEj
libhuginbase.so.0.0:_ZN9HuginBase8Panorama20updateLineCtrlPointsEv
libhuginbase.so.0.0:_ZN9HuginBase8Panorama20updateOptimizeVectorEv
libhuginbase.so.0.0:_ZN9HuginBase8Panorama21linkImageVariableHFOVEjj
libhuginbase.so.0.0:_ZN9HuginBase8Panorama21linkImageVariableRollEjj
libhuginbase.so.0.0:_ZN9HuginBase8Panorama21linkImageVariableSizeEjj
libhuginbase.so.0.0:_ZN9HuginBase8Panorama21updateCtrlPointErrorsERKSt3setIjSt4lessIjESaIjEERKSt6vectorINS_12ControlPointESaIS9_EE
libhuginbase.so.0.0:_ZN9HuginBase8Panorama21updateCtrlPointErrorsERKSt6vectorINS_12ControlPointESaIS2_EE
libhuginbase.so.0.0:_ZN9HuginBase8Panorama22linkImageVariableGammaEjj
libhuginbase.so.0.0:_ZN9HuginBase8Panorama22linkImageVariableMasksEjj
libhuginbase.so.0.0:_ZN9HuginBase8Panorama22linkImageVariablePitchEjj
libhuginbase.so.0.0:_ZN9HuginBase8Panorama22linkImageVariableShearEjj
libhuginbase.so.0.0:_ZN9HuginBase8Panorama22linkImageVariableStackEjj
libhuginbase.so.0.0:_ZN9HuginBase8Panorama22unlinkImageVariableYawEj
libhuginbase.so.0.0:_ZN9HuginBase8Panorama23linkImageVariableActiveEjj
libhuginbase.so.0.0:_ZN9HuginBase8Panorama23unlinkImageVariableHFOVEj
libhuginbase.so.0.0:_ZN9HuginBase8Panorama23unlinkImageVariableRollEj
libhuginbase.so.0.0:_ZN9HuginBase8Panorama23unlinkImageVariableSizeEj
libhuginbase.so.0.0:_ZN9HuginBase8Panorama24linkImageVariableExifISOEjj
libhuginbase.so.0.0:_ZN9HuginBase8Panorama24unlinkImageVariableGammaEj
libhuginbase.so.0.0:_ZN9HuginBase8Panorama24unlinkImageVariableMasksEj
libhuginbase.so.0.0:_ZN9HuginBase8Panorama24unlinkImageVariablePitchEj
libhuginbase.so.0.0:_ZN9HuginBase8Panorama24unlinkImageVariableShearEj
libhuginbase.so.0.0:_ZN9HuginBase8Panorama24unlinkImageVariableStackEj
libhuginbase.so.0.0:_ZN9HuginBase8Panorama25linkImageVariableCropModeEjj
libhuginbase.so.0.0:_ZN9HuginBase8Panorama25linkImageVariableCropRectEjj
libhuginbase.so.0.0:_ZN9HuginBase8Panorama25linkImageVariableExifDateEjj
libhuginbase.so.0.0:_ZN9HuginBase8Panorama25linkImageVariableExifLensEjj
libhuginbase.so.0.0:_ZN9HuginBase8Panorama25linkImageVariableExifMakeEjj
libhuginbase.so.0.0:_ZN9HuginBase8Panorama25linkImageVariableFilenameEjj
libhuginbase.so.0.0:_ZN9HuginBase8Panorama25removeDuplicateCtrlPointsEv
libhuginbase.so.0.0:_ZN9HuginBase8Panorama25unlinkImageVariableActiveEj
libhuginbase.so.0.0:_ZN9HuginBase8Panorama26linkImageVariableExifModelEjj
libhuginbase.so.0.0:_ZN9HuginBase8Panorama26unlinkImageVariableExifISOEj
libhuginbase.so.0.0:_ZN9HuginBase8Panorama27linkImageVariableCropFactorEjj
libhuginbase.so.0.0:_ZN9HuginBase8Panorama27linkImageVariableEMoRParamsEjj
libhuginbase.so.0.0:_ZN9HuginBase8Panorama27linkImageVariableProjectionEjj
libhuginbase.so.0.0:_ZN9HuginBase8Panorama27unlinkImageVariableCropModeEj
libhuginbase.so.0.0:_ZN9HuginBase8Panorama27unlinkImageVariableCropRectEj
libhuginbase.so.0.0:_ZN9HuginBase8Panorama27unlinkImageVariableExifDateEj
libhuginbase.so.0.0:_ZN9HuginBase8Panorama27unlinkImageVariableExifLensEj
libhuginbase.so.0.0:_ZN9HuginBase8Panorama27unlinkImageVariableExifMakeEj
libhuginbase.so.0.0:_ZN9HuginBase8Panorama27unlinkImageVariableFilenameEj
libhuginbase.so.0.0:_ZN9HuginBase8Panorama28linkImageVariableActiveMasksEjj
libhuginbase.so.0.0:_ZN9HuginBase8Panorama28linkImageVariableVigCorrModeEjj
libhuginbase.so.0.0:_ZN9HuginBase8Panorama28unlinkImageVariableExifModelEj
libhuginbase.so.0.0:_ZN9HuginBase8Panorama29linkImageVariableExifApertureEjj
libhuginbase.so.0.0:_ZN9HuginBase8Panorama29linkImageVariableExifDistanceEjj
libhuginbase.so.0.0:_ZN9HuginBase8Panorama29linkImageVariableFileMetadataEjj
libhuginbase.so.0.0:_ZN9HuginBase8Panorama29linkImageVariableResponseTypeEjj
libhuginbase.so.0.0:_ZN9HuginBase8Panorama29setPhotometricOptimizerSwitchEi
libhuginbase.so.0.0:_ZN9HuginBase8Panorama29unlinkImageVariableCropFactorEj
libhuginbase.so.0.0:_ZN9HuginBase8Panorama29unlinkImageVariableEMoRParamsEj
libhuginbase.so.0.0:_ZN9HuginBase8Panorama29unlinkImageVariableProjectionEj
libhuginbase.so.0.0:_ZN9HuginBase8Panorama30linkImageVariableExposureValueEjj
libhuginbase.so.0.0:_ZN9HuginBase8Panorama30unlinkImageVariableActiveMasksEj
libhuginbase.so.0.0:_ZN9HuginBase8Panorama30unlinkImageVariableVigCorrModeEj
libhuginbase.so.0.0:_ZN9HuginBase8Panorama31linkImageVariableAutoCenterCropEjj
libhuginbase.so.0.0:_ZN9HuginBase8Panorama31linkImageVariableExifCropFactorEjj
libhuginbase.so.0.0:_ZN9HuginBase8Panorama31linkImageVariableExifRedBalanceEjj
libhuginbase.so.0.0:_ZN9HuginBase8Panorama31unlinkImageVariableExifApertureEj
libhuginbase.so.0.0:_ZN9HuginBase8Panorama31unlinkImageVariableExifDistanceEj
libhuginbase.so.0.0:_ZN9HuginBase8Panorama31unlinkImageVariableFileMetadataEj
libhuginbase.so.0.0:_ZN9HuginBase8Panorama31unlinkImageVariableResponseTypeEj
libhuginbase.so.0.0:_ZN9HuginBase8Panorama32linkImageVariableExifBlueBalanceEjj
libhuginbase.so.0.0:_ZN9HuginBase8Panorama32linkImageVariableExifFocalLengthEjj
libhuginbase.so.0.0:_ZN9HuginBase8Panorama32linkImageVariableExifOrientationEjj
libhuginbase.so.0.0:_ZN9HuginBase8Panorama32linkImageVariableWhiteBalanceRedEjj
libhuginbase.so.0.0:_ZN9HuginBase8Panorama32unlinkImageVariableExposureValueEj
libhuginbase.so.0.0:_ZN9HuginBase8Panorama33linkImageVariableExifExposureModeEjj
libhuginbase.so.0.0:_ZN9HuginBase8Panorama33linkImageVariableExifExposureTimeEjj
libhuginbase.so.0.0:_ZN9HuginBase8Panorama33linkImageVariableRadialDistortionEjj
libhuginbase.so.0.0:_ZN9HuginBase8Panorama33linkImageVariableWhiteBalanceBlueEjj
libhuginbase.so.0.0:_ZN9HuginBase8Panorama33unlinkImageVariableAutoCenterCropEj
libhuginbase.so.0.0:_ZN9HuginBase8Panorama33unlinkImageVariableExifCropFactorEj
libhuginbase.so.0.0:_ZN9HuginBase8Panorama33unlinkImageVariableExifRedBalanceEj
libhuginbase.so.0.0:_ZN9HuginBase8Panorama34linkImageVariableExifFocalLength35Ejj
libhuginbase.so.0.0:_ZN9HuginBase8Panorama34linkImageVariableFlatfieldFilenameEjj
libhuginbase.so.0.0:_ZN9HuginBase8Panorama34unlinkImageVariableExifBlueBalanceEj
libhuginbase.so.0.0:_ZN9HuginBase8Panorama34unlinkImageVariableExifFocalLengthEj
libhuginbase.so.0.0:_ZN9HuginBase8Panorama34unlinkImageVariableExifOrientationEj
libhuginbase.so.0.0:_ZN9HuginBase8Panorama34unlinkImageVariableWhiteBalanceRedEj
libhuginbase.so.0.0:_ZN9HuginBase8Panorama35linkImageVariableRadialVigCorrCoeffEjj
libhuginbase.so.0.0:_ZN9HuginBase8Panorama35unlinkImageVariableExifExposureModeEj
libhuginbase.so.0.0:_ZN9HuginBase8Panorama35unlinkImageVariableExifExposureTimeEj
libhuginbase.so.0.0:_ZN9HuginBase8Panorama35unlinkImageVariableRadialDistortionEj
libhuginbase.so.0.0:_ZN9HuginBase8Panorama35unlinkImageVariableWhiteBalanceBlueEj
libhuginbase.so.0.0:_ZN9HuginBase8Panorama36linkImageVariableRadialDistortionRedEjj
libhuginbase.so.0.0:_ZN9HuginBase8Panorama36linkImageVariableTranslationPlaneYawEjj
libhuginbase.so.0.0:_ZN9HuginBase8Panorama36unlinkImageVariableExifFocalLength35Ej
libhuginbase.so.0.0:_ZN9HuginBase8Panorama36unlinkImageVariableFlatfieldFilenameEj
libhuginbase.so.0.0:_ZN9HuginBase8Panorama37linkImageVariableRadialDistortionBlueEjj
libhuginbase.so.0.0:_ZN9HuginBase8Panorama37unlinkImageVariableRadialVigCorrCoeffEj
libhuginbase.so.0.0:_ZN9HuginBase8Panorama38linkImageVariableTranslationPlanePitchEjj
libhuginbase.so.0.0:_ZN9HuginBase8Panorama38unlinkImageVariableRadialDistortionRedEj
libhuginbase.so.0.0:_ZN9HuginBase8Panorama38unlinkImageVariableTranslationPlaneYawEj
libhuginbase.so.0.0:_ZN9HuginBase8Panorama39unlinkImageVariableRadialDistortionBlueEj
libhuginbase.so.0.0:_ZN9HuginBase8Panorama40unlinkImageVariableTranslationPlanePitchEj
libhuginbase.so.0.0:_ZN9HuginBase8Panorama41linkImageVariableRadialVigCorrCenterShiftEjj
libhuginbase.so.0.0:_ZN9HuginBase8Panorama43unlinkImageVariableRadialVigCorrCenterShiftEj
libhuginbase.so.0.0:_ZN9HuginBase8Panorama44linkImageVariableRadialDistortionCenterShiftEjj
libhuginbase.so.0.0:_ZN9HuginBase8Panorama46unlinkImageVariableRadialDistortionCenterShiftEj
libhuginbase.so.0.0:_ZN9HuginBase8Panorama5resetEv
libhuginbase.so.0.0:_ZN9HuginBase8Panorama8addImageERKNS_12SrcPanoImageE
libhuginbase.so.0.0:_ZN9HuginBase8Panorama8readDataERSiNSt7__cxx1112basic_stringIcSt11char_traitsIcESaIcEEE
libhuginbase.so.0.0:_ZN9HuginBase8Panorama9moveImageEmm
libhuginbase.so.0.0:_ZN9HuginBase8Panorama9writeDataERSoNSt7__cxx1112basic_stringIcSt11char_traitsIcESaIcEEE
libhuginbase.so.0.0:_ZN9HuginBase8PanoramaC1Ev
libhuginbase.so.0.0:_ZN9HuginBase8PanoramaC2Ev
libhuginbase.so.0.0:_ZN9HuginBase8PanoramaD0Ev
libhuginbase.so.0.0:_ZN9HuginBase8PanoramaD1Ev
libhuginbase.so.0.0:_ZN9HuginBase8PanoramaD2Ev
libhuginbase.so.0.0:_ZN9HuginBase9isFisheyeERKNS_16BaseSrcPanoImage10ProjectionE
libhuginbase.so.0.0:_ZN9vigra_ext19SetGPUDebugMessagesEb
libhuginbase.so.0.0:_ZN9vigra_ext23transformImageGPUInternERKNSt7__cxx1112basic_stringIcSt11char_traitsIcESaIcEEES7_iS7_RKSt6vectorIdSaIdEESC_N5vigra6Diff2DEPKviiiiSG_iSE_SE_PviiiiSH_ib
libhuginbase.so.0.0:_ZN9vigra_ext4EMoR1hE
libhuginbase.so.0.0:_ZN9vigra_ext4EMoR2f0E
libhuginbase.so.0.0:_ZNK3doj13alphanum_lessclERKNSt7__cxx1112basic_stringIcSt11char_traitsIcESaIcEEES8_
libhuginbase.so.0.0:_ZNK7Matrix35PrintERSo
libhuginbase.so.0.0:_ZNK7Matrix37InverseEv
libhuginbase.so.0.0:_ZNK7Matrix3mlERKS_
libhuginbase.so.0.0:_ZNK7Vector311NormSquaredEv
libhuginbase.so.0.0:_ZNK7Vector312IsNearlyZeroEv
libhuginbase.so.0.0:_ZNK7Vector313GetNormalizedEv
libhuginbase.so.0.0:_ZNK7Vector313IsNearlyEqualERKS_
libhuginbase.so.0.0:_ZNK7Vector34NormEv
libhuginbase.so.0.0:_ZNK7Vector36IsZeroEv
libhuginbase.so.0.0:_ZNK7Vector3dvEd
libhuginbase.so.0.0:_ZNK9HuginBase11MaskPolygon10isPositiveEv
libhuginbase.so.0.0:_ZNK9HuginBase11MaskPolygon16FindPointNearPosEN11hugin_utils7TDiff2DIdEEd
libhuginbase.so.0.0:_ZNK9HuginBase11MaskPolygon16getWindingNumberEN11hugin_utils7TDiff2DIdEE
libhuginbase.so.0.0:_ZNK9HuginBase11MaskPolygon16printPolygonLineERSoj
libhuginbase.so.0.0:_ZNK9HuginBase11MaskPolygon21getTotalWindingNumberEv
libhuginbase.so.0.0:_ZNK9HuginBase11MaskPolygon8isInsideEN11hugin_utils7TDiff2DIdEE
libhuginbase.so.0.0:_ZNK9HuginBase11MaskPolygoneqERKS0_
libhuginbase.so.0.0:_ZNK9HuginBase12ControlPoint11getCPStringB5cxx11Ev
libhuginbase.so.0.0:_ZNK9HuginBase12ControlPointeqERKS0_
libhuginbase.so.0.0:_ZNK9HuginBase12LensVariable9printLinkERSoj
libhuginbase.so.0.0:_ZNK9HuginBase12SrcPanoImage11getExposureEv
libhuginbase.so.0.0:_ZNK9HuginBase12SrcPanoImage13getCorrectTCAEv
libhuginbase.so.0.0:_ZNK9HuginBase12SrcPanoImage13getDBLensNameB5cxx11Ev
libhuginbase.so.0.0:_ZNK9HuginBase12SrcPanoImage13isInsideMasksEN5vigra7Point2DE
libhuginbase.so.0.0:_ZNK9HuginBase12SrcPanoImage14getVariableMapB5cxx11Ev
libhuginbase.so.0.0:_ZNK9HuginBase12SrcPanoImage14hasActiveMasksEv
libhuginbase.so.0.0:_ZNK9HuginBase12SrcPanoImage14isCircularCropEv
libhuginbase.so.0.0:_ZNK9HuginBase12SrcPanoImage14printMaskLinesERSoj
libhuginbase.so.0.0:_ZNK9HuginBase12SrcPanoImage15getExifDateTimeEP2tm
libhuginbase.so.0.0:_ZNK9HuginBase12SrcPanoImage16hasPositiveMasksEv
libhuginbase.so.0.0:_ZNK9HuginBase12SrcPanoImage22getRadialVigCorrCenterEv
libhuginbase.so.0.0:_ZNK9HuginBase12SrcPanoImage25getRadialDistortionCenterEv
libhuginbase.so.0.0:_ZNK9HuginBase12SrcPanoImage6getVarERKNSt7__cxx1112basic_stringIcSt11char_traitsIcESaIcEEE
libhuginbase.so.0.0:_ZNK9HuginBase12SrcPanoImage8hasMasksEv
libhuginbase.so.0.0:_ZNK9HuginBase12SrcPanoImage8isInsideEN5vigra7Point2DEb
libhuginbase.so.0.0:_ZNK9HuginBase15PanoramaOptions15printScriptLineERSob
libhuginbase.so.0.0:_ZNK9HuginBase15PanoramaOptions16fovCalcSupportedENS0_16ProjectionFormatE
libhuginbase.so.0.0:_ZNK9HuginBase15PanoramaOptions18getOutputExtensionB5cxx11Ev
libhuginbase.so.0.0:_ZNK9HuginBase15PanoramaOptions7getVFOVEv
libhuginbase.so.0.0:_ZNK9HuginBase16BaseSrcPanoImageeqERKS0_
libhuginbase.so.0.0:_ZNK9HuginBase21CalculateImageOverlap10getOverlapEjj
libhuginbase.so.0.0:_ZNK9HuginBase21CalculateImageOverlap18getOverlapForImageEj
libhuginbase.so.0.0:_ZNK9HuginBase23ConstImageVariableGroup11getPartsSetEv
libhuginbase.so.0.0:_ZNK9HuginBase23ConstImageVariableGroup13getPartNumberEj
libhuginbase.so.0.0:_ZNK9HuginBase23ConstImageVariableGroup16getNumberOfPartsEv
libhuginbase.so.0.0:_ZNK9HuginBase23ConstImageVariableGroup18getVarLinkedInPartENS0_17ImageVariableEnumEm
libhuginbase.so.0.0:_ZNK9HuginBase4Lens11isLandscapeEv
libhuginbase.so.0.0:_ZNK9HuginBase4Lens14getAspectRatioEv
libhuginbase.so.0.0:_ZNK9HuginBase4Lens14getFocalLengthEv
libhuginbase.so.0.0:_ZNK9HuginBase4Lens7getHFOVEv
libhuginbase.so.0.0:_ZNK9HuginBase4Nona14SpaceTransform17transformImgCoordERdS2_dd
libhuginbase.so.0.0:_ZNK9HuginBase4Nona14SpaceTransform9transformERN11hugin_utils7TDiff2DIdEERKS4_
libhuginbase.so.0.0:_ZNK9HuginBase6LensDB6LensDB12GetLensNamesEbbbRSt6vectorINSt7__cxx1112basic_stringIcSt11char_traitsIcESaIcEEESaIS8_EE
libhuginbase.so.0.0:_ZNK9HuginBase6LensDB6LensDB13GetCropFactorERKNSt7__cxx1112basic_stringIcSt11char_traitsIcESaIcEEES9_Rd
libhuginbase.so.0.0:_ZNK9HuginBase6LensDB6LensDB13GetDBFilenameB5cxx11Ev
libhuginbase.so.0.0:_ZNK9HuginBase6LensDB6LensDB13GetDistortionERKNSt7__cxx1112basic_stringIcSt11char_traitsIcESaIcEEEdRSt6vectorIdSaIdEE
libhuginbase.so.0.0:_ZNK9HuginBase6LensDB6LensDB13GetProjectionERKNSt7__cxx1112basic_stringIcSt11char_traitsIcESaIcEEERNS_16BaseSrcPanoImage10ProjectionE
libhuginbase.so.0.0:_ZNK9HuginBase6LensDB6LensDB13GetVignettingERKNSt7__cxx1112basic_stringIcSt11char_traitsIcESaIcEEEdddRSt6vectorIdSaIdEE
libhuginbase.so.0.0:_ZNK9HuginBase6LensDB6LensDB6GetFovERKNSt7__cxx1112basic_stringIcSt11char_traitsIcESaIcEEEdRd
libhuginbase.so.0.0:_ZNK9HuginBase6LensDB6LensDB6GetTCAERKNSt7__cxx1112basic_stringIcSt11char_traitsIcESaIcEEEdRSt6vectorIdSaIdEESD_
libhuginbase.so.0.0:_ZNK9HuginBase6LensDB6LensDB7GetCropERKNSt7__cxx1112basic_stringIcSt11char_traitsIcESaIcEEEdRKN5vigra6Size2DERNSA_6Rect2DE
libhuginbase.so.0.0:_ZNK9HuginBase6PTools9Transform17transformImgCoordERdS2_dd
libhuginbase.so.0.0:_ZNK9HuginBase6PTools9Transform24transformImgCoordPartialERdS2_dd
libhuginbase.so.0.0:_ZNK9HuginBase6PTools9Transform8emitGLSLERNSt7__cxx1119basic_ostringstreamIcSt11char_traitsIcESaIcEEE
libhuginbase.so.0.0:_ZNK9HuginBase6PTools9Transform9transformERN11hugin_utils7TDiff2DIdEERKS4_
libhuginbase.so.0.0:_ZNK9HuginBase6PTools9Transform9transformERdS2_dd
libhuginbase.so.0.0:_ZNK9HuginBase8Panorama11getSrcImageEj
libhuginbase.so.0.0:_ZNK9HuginBase8Panorama12getNrOfBandsEv
libhuginbase.so.0.0:_ZNK9HuginBase8Panorama12getVariablesB5cxx11Ev
libhuginbase.so.0.0:_ZNK9HuginBase8Panorama13getNewMementoEv
libhuginbase.so.0.0:_ZNK9HuginBase8Panorama15getActiveImagesEv
libhuginbase.so.0.0:_ZNK9HuginBase8Panorama17getICCProfileDescB5cxx11Ev
libhuginbase.so.0.0:_ZNK9HuginBase8Panorama17getImageVariablesB5cxx11Ej
libhuginbase.so.0.0:_ZNK9HuginBase8Panorama17getUnlinkedSubsetERSt6vectorISt3setIjSt4lessIjESaIjEESaIS6_EE
libhuginbase.so.0.0:_ZNK9HuginBase8Panorama17hasPendingChangesEv
libhuginbase.so.0.0:_ZNK9HuginBase8Panorama17hasPossibleStacksEv
libhuginbase.so.0.0:_ZNK9HuginBase8Panorama19printPanoramaScriptERSoRKSt6vectorISt3setINSt7__cxx1112basic_stringIcSt11char_traitsIcESaIcEEESt4lessIS9_ESaIS9_EESaISD_EERKNS_15PanoramaOptionsERKS3_IjSA_IjESaIjEEbRKS9_
libhuginbase.so.0.0:_ZNK9HuginBase8Panorama19printStitcherScriptERSoRKNS_15PanoramaOptionsERKSt3setIjSt4lessIjESaIjEE
libhuginbase.so.0.0:_ZNK9HuginBase8Panorama20parseOptimizerScriptERSiRKSt3setIjSt4lessIjESaIjEERSt6vectorISt3mapINSt7__cxx1112basic_stringIcSt11char_traitsIcESaIcEEENS_8VariableES3_ISG_ESaISt4pairIKSG_SH_EEESaISN_EERS9_INS_12ControlPointESaISR_EE
libhuginbase.so.0.0:_ZNK9HuginBase8Panorama21getCtrlPointsForImageEj
libhuginbase.so.0.0:_ZNK9HuginBase8Panorama23getNextCPTypeLineNumberEv
libhuginbase.so.0.0:_ZNK9HuginBase8Panorama24getMaxExposureDifferenceEv
libhuginbase.so.0.0:_ZNK9HuginBase8Panorama27getCtrlPointsVectorForImageEj
libhuginbase.so.0.0:_ZNK9HuginBase8Panorama9duplicateEv
libhuginbase.so.0.0:_ZNK9HuginBase8Panorama9getSubsetERKSt3setIjSt4lessIjESaIjEE
libhuginbase.so.0.0:_ZNK9HuginBase8Variable5printERSo
libhuginbase.so.0.0:_ZThn8_N9HuginBase8Panorama8readDataERSiNSt7__cxx1112basic_stringIcSt11char_traitsIcESaIcEEE
libhuginbase.so.0.0:_ZThn8_N9HuginBase8Panorama9writeDataERSoNSt7__cxx1112basic_stringIcSt11char_traitsIcESaIcEEE
libhuginbase.so.0.0:_ZThn8_N9HuginBase8PanoramaD0Ev
libhuginbase.so.0.0:_ZThn8_N9HuginBase8PanoramaD1Ev
libhuginbase.so.0.0:dAx_eq_b_LU_noLapack
libhuginbase.so.0.0:dlevmar_L2nrmxmy
libhuginbase.so.0.0:dlevmar_R2
libhuginbase.so.0.0:dlevmar_box_check
libhuginbase.so.0.0:dlevmar_chkjac
libhuginbase.so.0.0:dlevmar_corcoef
libhuginbase.so.0.0:dlevmar_covar
libhuginbase.so.0.0:dlevmar_der
libhuginbase.so.0.0:dlevmar_dif
libhuginbase.so.0.0:dlevmar_fdif_cent_jac_approx
libhuginbase.so.0.0:dlevmar_fdif_forw_jac_approx
libhuginbase.so.0.0:dlevmar_stddev
libhuginbase.so.0.0:dlevmar_trans_mat_mat_mult
libhuginbasewx.so.0.0:EVT_QUEUE_PROGRESS
libhuginbasewx.so.0.0:_Z10str2doubleP8wxWindow8wxStringRd
libhuginbasewx.so.0.0:_Z14GenerateReportN13wxDebugReport7ContextE
libhuginbasewx.so.0.0:_Z14IsRawExtensionRK8wxString
libhuginbasewx.so.0.0:_Z15CheckLensStacksPN9HuginBase8PanoramaEb
libhuginbasewx.so.0.0:_Z15FillBlenderListP18wxControlWithItems
libhuginbasewx.so.0.0:_Z15FixHelpSettingsv
libhuginbasewx.so.0.0:_Z15SelectListValueP18wxControlWithItemsm
libhuginbasewx.so.0.0:_Z16FillPlaceholdersRSt3mapI8wxStringS0_St4lessIS0_ESaISt4pairIKS0_S0_EEERKN9HuginBase8PanoramaE
libhuginbasewx.so.0.0:_Z16GetRawExtensionsB5cxx11v
libhuginbasewx.so.0.0:_Z16GetSelectedValueP18wxControlWithItems
libhuginbasewx.so.0.0:_Z17getResponseStringRKN9HuginBase12SrcPanoImageE
libhuginbasewx.so.0.0:_Z18SaveLensParameters8wxStringPN9HuginBase8PanoramaEj
libhuginbasewx.so.0.0:_Z18SaveLensParametersP8wxWindowRKN9HuginBase12SrcPanoImageEb
libhuginbasewx.so.0.0:_Z18registerPTWXDlgFcnv
libhuginbasewx.so.0.0:_Z19ApplyLensParametersP8wxWindowPN9HuginBase8PanoramaESt3setIjSt4lessIjESaIjEERPN11PanoCommand11PanoCommandE
libhuginbasewx.so.0.0:_Z19GetFilterExtensionsRK8wxString
libhuginbasewx.so.0.0:_Z19GetVigraImageFilterv
libhuginbasewx.so.0.0:_Z19ShowFilenameWarningP8wxWindow13wxArrayString
libhuginbasewx.so.0.0:_Z19getProjectionStringRKN9HuginBase12SrcPanoImageE
libhuginbasewx.so.0.0:_Z20deregisterPTWXDlgFcnv
libhuginbasewx.so.0.0:_Z20getDefaultOutputName8wxStringRKN9HuginBase8PanoramaES_
libhuginbasewx.so.0.0:_Z20getInvalidCharactersv
libhuginbasewx.so.0.0:_Z21ApplyLensDBParametersP8wxWindowPN9HuginBase8PanoramaESt3setIjSt4lessIjESaIjEERPN11PanoCommand11PanoCommandE
libhuginbasewx.so.0.0:_Z21MyExecuteCommandQueuePSt6vectorIPN10HuginQueue13NormalCommandESaIS2_EEP8wxWindowRK8wxStringSA_
libhuginbasewx.so.0.0:_Z21getDefaultProjectNameRKN9HuginBase8PanoramaE8wxString
libhuginbasewx.so.0.0:_Z22FillLensProjectionListP18wxControlWithItems
libhuginbasewx.so.0.0:_Z23FillDefaultPlaceholdersRSt3mapI8wxStringS0_St4lessIS0_ESaISt4pairIKS0_S0_EEE
libhuginbasewx.so.0.0:_Z23SaveLensParametersToIniP8wxWindowPN9HuginBase8PanoramaESt3setIjSt4lessIjESaIjEE
libhuginbasewx.so.0.0:_Z23imageCacheEntry2wxImageSt10shared_ptrIN9HuginBase10ImageCache5EntryEE
libhuginbasewx.so.0.0:_Z24LoadLensParametersChooseP8wxWindowRN9HuginBase4LensERbS4_RN5vigra6Rect2DE
libhuginbasewx.so.0.0:_Z24MyExecuteCommandOnDialog8wxStringS_P8wxWindowS_b
libhuginbasewx.so.0.0:_Z25GetFileDialogImageFiltersv
libhuginbasewx.so.0.0:_Z25containsInvalidCharacters8wxString
libhuginbasewx.so.0.0:_Z31GetFileDialogImageAndRawFiltersv
libhuginbasewx.so.0.0:_ZN10HFOVDialog11GetSrcImageEv
libhuginbasewx.so.0.0:_ZN10HFOVDialog13GetCropFactorEv
libhuginbasewx.so.0.0:_ZN10HFOVDialog13OnHFOVChangedER14wxCommandEvent
libhuginbasewx.so.0.0:_ZN10HFOVDialog13OnTypeChangedER14wxCommandEvent
libhuginbasewx.so.0.0:_ZN10HFOVDialog13sm_eventTableE
libhuginbasewx.so.0.0:_ZN10HFOVDialog14GetFocalLengthEv
libhuginbasewx.so.0.0:_ZN10HFOVDialog17sm_eventHashTableE
libhuginbasewx.so.0.0:_ZN10HFOVDialog19OnCropFactorChangedER14wxCommandEvent
libhuginbasewx.so.0.0:_ZN10HFOVDialog20OnFocalLengthChangedER14wxCommandEvent
libhuginbasewx.so.0.0:_ZN10HFOVDialog20OnLoadLensParametersER14wxCommandEvent
libhuginbasewx.so.0.0:_ZN10HFOVDialog20sm_eventTableEntriesE
libhuginbasewx.so.0.0:_ZN10HFOVDialog4OnOkER14wxCommandEvent
libhuginbasewx.so.0.0:_ZN10HFOVDialogC1EP8wxWindowRN9HuginBase12SrcPanoImageE
libhuginbasewx.so.0.0:_ZN10HFOVDialogC2EP8wxWindowRN9HuginBase12SrcPanoImageE
libhuginbasewx.so.0.0:_ZN10HuginQueue10CleanQueueEPSt6vectorIPNS_13NormalCommandESaIS2_EE
libhuginbasewx.so.0.0:_ZN10HuginQueue13NormalCommand7ExecuteEb
libhuginbasewx.so.0.0:_ZN10HuginQueue15OptionalCommand7ExecuteEb
libhuginbasewx.so.0.0:_ZN10HuginQueue16GetConfigTempDirEPK12wxConfigBase
libhuginbasewx.so.0.0:_ZN10HuginQueue16GetSettingStringEP12wxConfigBaseRK8wxStringS2_
libhuginbasewx.so.0.0:_ZN10HuginQueue16RunCommandsQueueEPSt6vectorIPNS_13NormalCommandESaIS2_EEmb
libhuginbasewx.so.0.0:_ZN10HuginQueue18GetExternalProgramEP12wxConfigBaseRK8wxStringS4_
libhuginbasewx.so.0.0:_ZN10HuginQueue18GetInternalProgramERK8wxStringS2_
libhuginbasewx.so.0.0:_ZN10HuginQueue19wxStringFromCDoubleEdi
libhuginbasewx.so.0.0:_ZN10HuginQueue24GetAssistantCommandQueueERKN9HuginBase8PanoramaERK8wxStringS6_
libhuginbasewx.so.0.0:_ZN10HuginQueue24GetQuotedFilenamesStringERK13wxArrayString
libhuginbasewx.so.0.0:_ZN10HuginQueue24GetStitchingCommandQueueERKN9HuginBase8PanoramaERK8wxStringS6_S6_RS4_R13wxArrayStringS9_RSo
libhuginbasewx.so.0.0:_ZN10HuginQueue26GetSettingStringTranslatedEP12wxConfigBaseRK8wxStringS2_
libhuginbasewx.so.0.0:_ZN10HuginQueue34GetStitchingCommandQueueUserOutputERKN9HuginBase8PanoramaERK8wxStringS6_S6_S6_RS4_R13wxArrayStringS9_RSo
libhuginbasewx.so.0.0:_ZN10HuginQueue35GetAssistantCommandQueueUserDefinedERKN9HuginBase8PanoramaERK8wxStringS6_S6_R13wxArrayStringRSo
libhuginbasewx.so.0.0:_ZN10HuginQueue6detail10AddToArrayERK13wxArrayStringRS1_
libhuginbasewx.so.0.0:_ZN10HuginQueue6detail15PrintDetailInfoERKN9HuginBase8PanoramaERKNS1_15PanoramaOptionsERKSt3setIjSt4lessIjESaIjEERK8wxStringSH_P12wxConfigBaseRd
libhuginbasewx.so.0.0:_ZN10HuginQueue6detail17AddBlenderCommandEPSt6vectorIPNS_13NormalCommandESaIS3_EERK8wxStringS9_RKiS9_S9_RSo
libhuginbasewx.so.0.0:_ZN10HuginQueue6detail19GetNumberedFilenameERK8wxStringS3_RKSt3setIjSt4lessIjESaIjEE
libhuginbasewx.so.0.0:_ZN10HuginQueue6detail20GenerateFinalArgfileERKN9HuginBase8PanoramaERK8wxStringPK12wxConfigBaseRKSt3setIjSt4lessIjESaIjEEd
libhuginbasewx.so.0.0:_ZN10HuginQueue6detail24ReplacePrefixPlaceholderER8wxStringS1_
libhuginbasewx.so.0.0:_ZN10HuginQueue6detail29ReplaceWidthHeightPlaceHolderER8wxStringS1_i
libhuginbasewx.so.0.0:_ZN10HuginQueue6detail35GetQuotedFilenamesStringForVerdandiERK13wxArrayStringRKN9HuginBase8PanoramaERKSt6vectorISt3setIjSt4lessIjESaIjEESaISD_EEib
libhuginbasewx.so.0.0:_ZN11MyExecPanel11AddToOutputER13wxInputStream
libhuginbasewx.so.0.0:_ZN11MyExecPanel11KillProcessEv
libhuginbasewx.so.0.0:_ZN11MyExecPanel12PauseProcessEb
libhuginbasewx.so.0.0:_ZN11MyExecPanel13ExecNextQueueEv
libhuginbasewx.so.0.0:_ZN11MyExecPanel13sm_eventTableE
libhuginbasewx.so.0.0:_ZN11MyExecPanel15AddAsyncProcessEP14MyPipedProcess
libhuginbasewx.so.0.0:_ZN11MyExecPanel15ContinueProcessEv
libhuginbasewx.so.0.0:_ZN11MyExecPanel16ExecWithRedirectE8wxString
libhuginbasewx.so.0.0:_ZN11MyExecPanel17sm_eventHashTableE
libhuginbasewx.so.0.0:_ZN11MyExecPanel18CopyLogToClipboardEv
libhuginbasewx.so.0.0:_ZN11MyExecPanel18RemoveAsyncProcessEP14MyPipedProcess
libhuginbasewx.so.0.0:_ZN11MyExecPanel19GetLogAsArrayStringEv
libhuginbasewx.so.0.0:_ZN11MyExecPanel19OnProcessTerminatedEP14MyPipedProcessii
libhuginbasewx.so.0.0:_ZN11MyExecPanel20sm_eventTableEntriesE
libhuginbasewx.so.0.0:_ZN11MyExecPanel6GetPidEv
libhuginbasewx.so.0.0:_ZN11MyExecPanel7OnTimerER12wxTimerEvent
libhuginbasewx.so.0.0:_ZN11MyExecPanel7SaveLogERK8wxString
libhuginbasewx.so.0.0:_ZN11MyExecPanel9AddStringERK8wxString
libhuginbasewx.so.0.0:_ZN11MyExecPanel9ExecQueueEPSt6vectorIPN10HuginQueue13NormalCommandESaIS3_EE
libhuginbasewx.so.0.0:_ZN11MyExecPanelC1EP8wxWindow
libhuginbasewx.so.0.0:_ZN11MyExecPanelC2EP8wxWindow
libhuginbasewx.so.0.0:_ZN11MyExecPanelD0Ev
libhuginbasewx.so.0.0:_ZN11MyExecPanelD1Ev
libhuginbasewx.so.0.0:_ZN11MyExecPanelD2Ev
libhuginbasewx.so.0.0:_ZN11PanoCommand10NewPanoCmd15processPanoramaERN9HuginBase8PanoramaE
libhuginbasewx.so.0.0:_ZN11PanoCommand10NewPartCmd15processPanoramaERN9HuginBase8PanoramaE
libhuginbasewx.so.0.0:_ZN11PanoCommand11PanoCommand11saveMementoEv
libhuginbasewx.so.0.0:_ZN11PanoCommand11PanoCommand13setSuccessfulEb
libhuginbasewx.so.0.0:_ZN11PanoCommand11PanoCommand13wasSuccessfulEv
libhuginbasewx.so.0.0:_ZN11PanoCommand11PanoCommand15processPanoramaERN9HuginBase8PanoramaE
libhuginbasewx.so.0.0:_ZN11PanoCommand11PanoCommand15saveRedoMementoEv
libhuginbasewx.so.0.0:_ZN11PanoCommand11PanoCommand4redoEv
libhuginbasewx.so.0.0:_ZN11PanoCommand11PanoCommand4undoEv
libhuginbasewx.so.0.0:_ZN11PanoCommand11PanoCommand7executeEv
libhuginbasewx.so.0.0:_ZN11PanoCommand11PanoCommand7setNameERKNSt7__cxx1112basic_stringIcSt11char_traitsIcESaIcEEE
libhuginbasewx.so.0.0:_ZN11PanoCommand11PanoCommandD0Ev
libhuginbasewx.so.0.0:_ZN11PanoCommand11PanoCommandD1Ev
libhuginbasewx.so.0.0:_ZN11PanoCommand11PanoCommandD2Ev
libhuginbasewx.so.0.0:_ZN11PanoCommand12AddImagesCmd15processPanoramaERN9HuginBase8PanoramaE
libhuginbasewx.so.0.0:_ZN11PanoCommand12MergePanoCmd15processPanoramaERN9HuginBase8PanoramaE
libhuginbasewx.so.0.0:_ZN11PanoCommand12MoveImageCmd15processPanoramaERN9HuginBase8PanoramaE
libhuginbasewx.so.0.0:_ZN11PanoCommand12UpdateCPsCmd15processPanoramaERN9HuginBase8PanoramaE
libhuginbasewx.so.0.0:_ZN11PanoCommand13CenterPanoCmd15processPanoramaERN9HuginBase8PanoramaE
libhuginbasewx.so.0.0:_ZN11PanoCommand13GlobalCmdHist11getInstanceEv
libhuginbasewx.so.0.0:_ZN11PanoCommand13GlobalCmdHist8instanceE
libhuginbasewx.so.0.0:_ZN11PanoCommand13GlobalCmdHistC1Ev
libhuginbasewx.so.0.0:_ZN11PanoCommand13GlobalCmdHistC2Ev
libhuginbasewx.so.0.0:_ZN11PanoCommand13RotatePanoCmd15processPanoramaERN9HuginBase8PanoramaE
libhuginbasewx.so.0.0:_ZN11PanoCommand13SwapImagesCmd15processPanoramaERN9HuginBase8PanoramaE
libhuginbasewx.so.0.0:_ZN11PanoCommand14CommandHistory10addCommandEPNS_11PanoCommandEb
libhuginbasewx.so.0.0:_ZN11PanoCommand14CommandHistory4redoEv
libhuginbasewx.so.0.0:_ZN11PanoCommand14CommandHistory4undoEv
libhuginbasewx.so.0.0:_ZN11PanoCommand14CommandHistory5clearEv
libhuginbasewx.so.0.0:_ZN11PanoCommand14CommandHistoryC1Ev
libhuginbasewx.so.0.0:_ZN11PanoCommand14CommandHistoryC2Ev
libhuginbasewx.so.0.0:_ZN11PanoCommand14CommandHistoryD0Ev
libhuginbasewx.so.0.0:_ZN11PanoCommand14CommandHistoryD1Ev
libhuginbasewx.so.0.0:_ZN11PanoCommand14CommandHistoryD2Ev
libhuginbasewx.so.0.0:_ZN11PanoCommand14RemoveImageCmd15processPanoramaERN9HuginBase8PanoramaE
libhuginbasewx.so.0.0:_ZN11PanoCommand14SetVariableCmd15processPanoramaERN9HuginBase8PanoramaE
libhuginbasewx.so.0.0:_ZN11PanoCommand14wxAddImagesCmd15processPanoramaERN9HuginBase8PanoramaE
libhuginbasewx.so.0.0:_ZN11PanoCommand15AddCtrlPointCmd15processPanoramaERN9HuginBase8PanoramaE
libhuginbasewx.so.0.0:_ZN11PanoCommand15ChangeImageXCmd15processPanoramaERN9HuginBase8PanoramaE
libhuginbasewx.so.0.0:_ZN11PanoCommand15ChangeImageYCmd15processPanoramaERN9HuginBase8PanoramaE
libhuginbasewx.so.0.0:_ZN11PanoCommand15ChangeImageZCmd15processPanoramaERN9HuginBase8PanoramaE
libhuginbasewx.so.0.0:_ZN11PanoCommand15LinkLensVarsCmd15processPanoramaERN9HuginBase8PanoramaE
libhuginbasewx.so.0.0:_ZN11PanoCommand15RemoveImagesCmd15processPanoramaERN9HuginBase8PanoramaE
libhuginbasewx.so.0.0:_ZN11PanoCommand15wxNewProjectCmd15processPanoramaERN9HuginBase8PanoramaE
libhuginbasewx.so.0.0:_ZN11PanoCommand16AddCtrlPointsCmd15processPanoramaERN9HuginBase8PanoramaE
libhuginbasewx.so.0.0:_ZN11PanoCommand16LoadPTProjectCmd15processPanoramaERN9HuginBase8PanoramaE
libhuginbasewx.so.0.0:_ZN11PanoCommand16LoadPTProjectCmdC1ERN9HuginBase8PanoramaERKNSt7__cxx1112basic_stringIcSt11char_traitsIcESaIcEEESB_
libhuginbasewx.so.0.0:_ZN11PanoCommand16LoadPTProjectCmdC2ERN9HuginBase8PanoramaERKNSt7__cxx1112basic_stringIcSt11char_traitsIcESaIcEEESB_
libhuginbasewx.so.0.0:_ZN11PanoCommand16TranslatePanoCmd15processPanoramaERN9HuginBase8PanoramaE
libhuginbasewx.so.0.0:_ZN11PanoCommand17ChangeImageYawCmd15processPanoramaERN9HuginBase8PanoramaE
libhuginbasewx.so.0.0:_ZN11PanoCommand17SetPanoOptionsCmd15processPanoramaERN9HuginBase8PanoramaE
libhuginbasewx.so.0.0:_ZN11PanoCommand17StraightenPanoCmd15processPanoramaERN9HuginBase8PanoramaE
libhuginbasewx.so.0.0:_ZN11PanoCommand17UpdateSrcImageCmd15processPanoramaERN9HuginBase8PanoramaE
libhuginbasewx.so.0.0:_ZN11PanoCommand18ChangeCtrlPointCmd15processPanoramaERN9HuginBase8PanoramaE
libhuginbasewx.so.0.0:_ZN11PanoCommand18ChangeImageHFOVCmd15processPanoramaERN9HuginBase8PanoramaE
libhuginbasewx.so.0.0:_ZN11PanoCommand18ChangeImageRollCmd15processPanoramaERN9HuginBase8PanoramaE
libhuginbasewx.so.0.0:_ZN11PanoCommand18ChangeImageSizeCmd15processPanoramaERN9HuginBase8PanoramaE
libhuginbasewx.so.0.0:_ZN11PanoCommand18RemoveCtrlPointCmd15processPanoramaERN9HuginBase8PanoramaE
libhuginbasewx.so.0.0:_ZN11PanoCommand18SetActiveImagesCmd15processPanoramaERN9HuginBase8PanoramaE
libhuginbasewx.so.0.0:_ZN11PanoCommand18UpdateSrcImagesCmd15processPanoramaERN9HuginBase8PanoramaE
libhuginbasewx.so.0.0:_ZN11PanoCommand18UpdateVariablesCmd15processPanoramaERN9HuginBase8PanoramaE
libhuginbasewx.so.0.0:_ZN11PanoCommand18UpdateWhiteBalance15processPanoramaERN9HuginBase8PanoramaE
libhuginbasewx.so.0.0:_ZN11PanoCommand18wxApplyTemplateCmd15processPanoramaERN9HuginBase8PanoramaE
libhuginbasewx.so.0.0:_ZN11PanoCommand18wxLoadPTProjectCmd15processPanoramaERN9HuginBase8PanoramaE
libhuginbasewx.so.0.0:_ZN11PanoCommand19ChangeImageGammaCmd15processPanoramaERN9HuginBase8PanoramaE
libhuginbasewx.so.0.0:_ZN11PanoCommand19ChangeImageMasksCmd15processPanoramaERN9HuginBase8PanoramaE
libhuginbasewx.so.0.0:_ZN11PanoCommand19ChangeImagePitchCmd15processPanoramaERN9HuginBase8PanoramaE
libhuginbasewx.so.0.0:_ZN11PanoCommand19ChangeImageShearCmd15processPanoramaERN9HuginBase8PanoramaE
libhuginbasewx.so.0.0:_ZN11PanoCommand19ChangeImageStackCmd15processPanoramaERN9HuginBase8PanoramaE
libhuginbasewx.so.0.0:_ZN11PanoCommand19ChangePartNumberCmd15processPanoramaERN9HuginBase8PanoramaE
libhuginbasewx.so.0.0:_ZN11PanoCommand19CombinedPanoCommand15processPanoramaERN9HuginBase8PanoramaE
libhuginbasewx.so.0.0:_ZN11PanoCommand19CombinedPanoCommandD0Ev
libhuginbasewx.so.0.0:_ZN11PanoCommand19CombinedPanoCommandD1Ev
libhuginbasewx.so.0.0:_ZN11PanoCommand19CombinedPanoCommandD2Ev
libhuginbasewx.so.0.0:_ZN11PanoCommand19DistributeImagesCmd15processPanoramaERN9HuginBase8PanoramaE
libhuginbasewx.so.0.0:_ZN11PanoCommand19RemoveCtrlPointsCmd15processPanoramaERN9HuginBase8PanoramaE
libhuginbasewx.so.0.0:_ZN11PanoCommand19ResetToMeanExposure15processPanoramaERN9HuginBase8PanoramaE
libhuginbasewx.so.0.0:_ZN11PanoCommand19UpdateCropFactorCmd15processPanoramaERN9HuginBase8PanoramaE
libhuginbasewx.so.0.0:_ZN11PanoCommand19UpdateMaskForImgCmd15processPanoramaERN9HuginBase8PanoramaE
libhuginbasewx.so.0.0:_ZN11PanoCommand19getLensDataFromUserEP8wxWindowRN9HuginBase12SrcPanoImageE
libhuginbasewx.so.0.0:_ZN11PanoCommand20ChangeImageActiveCmd15processPanoramaERN9HuginBase8PanoramaE
libhuginbasewx.so.0.0:_ZN11PanoCommand20UpdateFocalLengthCmd15processPanoramaERN9HuginBase8PanoramaE
libhuginbasewx.so.0.0:_ZN11PanoCommand20UpdateVariablesCPCmd15processPanoramaERN9HuginBase8PanoramaE
libhuginbasewx.so.0.0:_ZN11PanoCommand21ChangeImageExifISOCmd15processPanoramaERN9HuginBase8PanoramaE
libhuginbasewx.so.0.0:_ZN11PanoCommand21wxAddCtrlPointGridCmd15processPanoramaERN9HuginBase8PanoramaE
libhuginbasewx.so.0.0:_ZN11PanoCommand22ChangeImageCropModeCmd15processPanoramaERN9HuginBase8PanoramaE
libhuginbasewx.so.0.0:_ZN11PanoCommand22ChangeImageCropRectCmd15processPanoramaERN9HuginBase8PanoramaE
libhuginbasewx.so.0.0:_ZN11PanoCommand22ChangeImageExifDateCmd15processPanoramaERN9HuginBase8PanoramaE
libhuginbasewx.so.0.0:_ZN11PanoCommand22ChangeImageExifLensCmd15processPanoramaERN9HuginBase8PanoramaE
libhuginbasewx.so.0.0:_ZN11PanoCommand22ChangeImageExifMakeCmd15processPanoramaERN9HuginBase8PanoramaE
libhuginbasewx.so.0.0:_ZN11PanoCommand22ChangeImageFilenameCmd15processPanoramaERN9HuginBase8PanoramaE
libhuginbasewx.so.0.0:_ZN11PanoCommand22applyColorBalanceValueERN9HuginBase12SrcPanoImageERNS0_8PanoramaE
libhuginbasewx.so.0.0:_ZN11PanoCommand23ChangeImageExifModelCmd15processPanoramaERN9HuginBase8PanoramaE
libhuginbasewx.so.0.0:_ZN11PanoCommand23UpdateImageVariablesCmd15processPanoramaERN9HuginBase8PanoramaE
libhuginbasewx.so.0.0:_ZN11PanoCommand23UpdateOptimizeVectorCmd15processPanoramaERN9HuginBase8PanoramaE
libhuginbasewx.so.0.0:_ZN11PanoCommand23UpdateVariablesCPSetCmd15processPanoramaERN9HuginBase8PanoramaE
libhuginbasewx.so.0.0:_ZN11PanoCommand24ChangeImageCropFactorCmd15processPanoramaERN9HuginBase8PanoramaE
libhuginbasewx.so.0.0:_ZN11PanoCommand24ChangeImageEMoRParamsCmd15processPanoramaERN9HuginBase8PanoramaE
libhuginbasewx.so.0.0:_ZN11PanoCommand24ChangeImageProjectionCmd15processPanoramaERN9HuginBase8PanoramaE
libhuginbasewx.so.0.0:_ZN11PanoCommand24GetICCProfileNameCheckedERKNSt7__cxx1112basic_stringIcSt11char_traitsIcESaIcEEE
libhuginbasewx.so.0.0:_ZN11PanoCommand24UpdateImagesVariablesCmd15processPanoramaERN9HuginBase8PanoramaE
libhuginbasewx.so.0.0:_ZN11PanoCommand24UpdateOptimizerSwitchCmd15processPanoramaERN9HuginBase8PanoramaE
libhuginbasewx.so.0.0:_ZN11PanoCommand25ChangeImageActiveMasksCmd15processPanoramaERN9HuginBase8PanoramaE
libhuginbasewx.so.0.0:_ZN11PanoCommand25ChangeImageVigCorrModeCmd15processPanoramaERN9HuginBase8PanoramaE
libhuginbasewx.so.0.0:_ZN11PanoCommand26ChangeImageExifApertureCmd15processPanoramaERN9HuginBase8PanoramaE
libhuginbasewx.so.0.0:_ZN11PanoCommand26ChangeImageExifDistanceCmd15processPanoramaERN9HuginBase8PanoramaE
libhuginbasewx.so.0.0:_ZN11PanoCommand26ChangeImageFileMetadataCmd15processPanoramaERN9HuginBase8PanoramaE
libhuginbasewx.so.0.0:_ZN11PanoCommand26ChangeImageResponseTypeCmd15processPanoramaERN9HuginBase8PanoramaE
libhuginbasewx.so.0.0:_ZN11PanoCommand26ChangePartImagesLinkingCmd15processPanoramaERN9HuginBase8PanoramaE
libhuginbasewx.so.0.0:_ZN11PanoCommand27ChangeImageExposureValueCmd15processPanoramaERN9HuginBase8PanoramaE
libhuginbasewx.so.0.0:_ZN11PanoCommand28ChangeImageAutoCenterCropCmd15processPanoramaERN9HuginBase8PanoramaE
libhuginbasewx.so.0.0:_ZN11PanoCommand28ChangeImageExifCropFactorCmd15processPanoramaERN9HuginBase8PanoramaE
libhuginbasewx.so.0.0:_ZN11PanoCommand28ChangeImageExifRedBalanceCmd15processPanoramaERN9HuginBase8PanoramaE
libhuginbasewx.so.0.0:_ZN11PanoCommand29ChangeImageExifBlueBalanceCmd15processPanoramaERN9HuginBase8PanoramaE
libhuginbasewx.so.0.0:_ZN11PanoCommand29ChangeImageExifFocalLengthCmd15processPanoramaERN9HuginBase8PanoramaE
libhuginbasewx.so.0.0:_ZN11PanoCommand29ChangeImageExifOrientationCmd15processPanoramaERN9HuginBase8PanoramaE
libhuginbasewx.so.0.0:_ZN11PanoCommand29ChangeImageWhiteBalanceRedCmd15processPanoramaERN9HuginBase8PanoramaE
libhuginbasewx.so.0.0:_ZN11PanoCommand30ChangeImageExifExposureModeCmd15processPanoramaERN9HuginBase8PanoramaE
libhuginbasewx.so.0.0:_ZN11PanoCommand30ChangeImageExifExposureTimeCmd15processPanoramaERN9HuginBase8PanoramaE
libhuginbasewx.so.0.0:_ZN11PanoCommand30ChangeImageRadialDistortionCmd15processPanoramaERN9HuginBase8PanoramaE
libhuginbasewx.so.0.0:_ZN11PanoCommand30ChangeImageWhiteBalanceBlueCmd15processPanoramaERN9HuginBase8PanoramaE
libhuginbasewx.so.0.0:_ZN11PanoCommand31ChangeImageExifFocalLength35Cmd15processPanoramaERN9HuginBase8PanoramaE
libhuginbasewx.so.0.0:_ZN11PanoCommand31ChangeImageFlatfieldFilenameCmd15processPanoramaERN9HuginBase8PanoramaE
libhuginbasewx.so.0.0:_ZN11PanoCommand32ChangeImageRadialVigCorrCoeffCmd15processPanoramaERN9HuginBase8PanoramaE
libhuginbasewx.so.0.0:_ZN11PanoCommand32UpdateVariablesByParseExpression15processPanoramaERN9HuginBase8PanoramaE
libhuginbasewx.so.0.0:_ZN11PanoCommand33ChangeImageRadialDistortionRedCmd15processPanoramaERN9HuginBase8PanoramaE
libhuginbasewx.so.0.0:_ZN11PanoCommand33ChangeImageTranslationPlaneYawCmd15processPanoramaERN9HuginBase8PanoramaE
libhuginbasewx.so.0.0:_ZN11PanoCommand34ChangeImageRadialDistortionBlueCmd15processPanoramaERN9HuginBase8PanoramaE
libhuginbasewx.so.0.0:_ZN11PanoCommand35ChangeImageTranslationPlanePitchCmd15processPanoramaERN9HuginBase8PanoramaE
libhuginbasewx.so.0.0:_ZN11PanoCommand35UpdatePhotometricOptimizerSwitchCmd15processPanoramaERN9HuginBase8PanoramaE
libhuginbasewx.so.0.0:_ZN11PanoCommand38ChangeImageRadialVigCorrCenterShiftCmd15processPanoramaERN9HuginBase8PanoramaE
libhuginbasewx.so.0.0:_ZN11PanoCommand41ChangeImageRadialDistortionCenterShiftCmd15processPanoramaERN9HuginBase8PanoramaE
libhuginbasewx.so.0.0:_ZN11hugin_utils10str2doubleERK8wxStringRd
libhuginbasewx.so.0.0:_ZN11hugin_utils16doubleTowxStringEdi
libhuginbasewx.so.0.0:_ZN12FormatString11GetApertureEPKN9HuginBase12SrcPanoImageE
libhuginbasewx.so.0.0:_ZN12FormatString14GetFocalLengthEPKN9HuginBase12SrcPanoImageE
libhuginbasewx.so.0.0:_ZN12FormatString15GetExifDateTimeEPKN9HuginBase12SrcPanoImageE
libhuginbasewx.so.0.0:_ZN12FormatString15GetExposureTimeEPKN9HuginBase12SrcPanoImageE
libhuginbasewx.so.0.0:_ZN12FormatString6GetIsoEPKN9HuginBase12SrcPanoImageE
libhuginbasewx.so.0.0:_ZN12MyExecDialog13sm_eventTableE
libhuginbasewx.so.0.0:_ZN12MyExecDialog16ExecWithRedirectE8wxString
libhuginbasewx.so.0.0:_ZN12MyExecDialog17sm_eventHashTableE
libhuginbasewx.so.0.0:_ZN12MyExecDialog18OnProcessTerminateER14wxProcessEvent
libhuginbasewx.so.0.0:_ZN12MyExecDialog20sm_eventTableEntriesE
libhuginbasewx.so.0.0:_ZN12MyExecDialog8OnCancelER14wxCommandEvent
libhuginbasewx.so.0.0:_ZN12MyExecDialog9AddStringERK8wxString
libhuginbasewx.so.0.0:_ZN12MyExecDialog9ExecQueueEPSt6vectorIPN10HuginQueue13NormalCommandESaIS3_EE
libhuginbasewx.so.0.0:_ZN12MyExecDialogC1EP8wxWindowRK8wxStringRK7wxPointRK6wxSize
libhuginbasewx.so.0.0:_ZN12MyExecDialogC2EP8wxWindowRK8wxStringRK7wxPointRK6wxSize
libhuginbasewx.so.0.0:_ZN12MyExecDialogD0Ev
libhuginbasewx.so.0.0:_ZN12MyExecDialogD1Ev
libhuginbasewx.so.0.0:_ZN12MyExecDialogD2Ev
libhuginbasewx.so.0.0:_ZN12wxGraphTools16GraphPopupWindow10OnLeftDownER12wxMouseEvent
libhuginbasewx.so.0.0:_ZN12wxGraphTools16GraphPopupWindow11OnRightDownER12wxMouseEvent
libhuginbasewx.so.0.0:_ZN12wxGraphTools16GraphPopupWindow12ms_classInfoE
libhuginbasewx.so.0.0:_ZN12wxGraphTools16GraphPopupWindowC1EP8wxWindow8wxBitmap
libhuginbasewx.so.0.0:_ZN12wxGraphTools16GraphPopupWindowC2EP8wxWindow8wxBitmap
libhuginbasewx.so.0.0:_ZN12wxGraphTools18GetDistortionGraphERKN9HuginBase12SrcPanoImageE
libhuginbasewx.so.0.0:_ZN12wxGraphTools5Graph10TransformXEd
libhuginbasewx.so.0.0:_ZN12wxGraphTools5Graph10TransformYEd
libhuginbasewx.so.0.0:_ZN12wxGraphTools5Graph12SetChartAreaEiiii
libhuginbasewx.so.0.0:_ZN12wxGraphTools5Graph15SetChartDisplayEdddd
libhuginbasewx.so.0.0:_ZN12wxGraphTools5Graph8DrawGridEmm
libhuginbasewx.so.0.0:_ZN12wxGraphTools5Graph8DrawLineESt6vectorIN11hugin_utils7TDiff2DIdEESaIS4_EE8wxColouri
libhuginbasewx.so.0.0:_ZN12wxGraphTools5GraphC1Eii8wxColour
libhuginbasewx.so.0.0:_ZN12wxGraphTools5GraphC2Eii8wxColour
libhuginbasewx.so.0.0:_ZN12wxGraphTools5GraphD1Ev
libhuginbasewx.so.0.0:_ZN12wxGraphTools5GraphD2Ev
libhuginbasewx.so.0.0:_ZN14MyPipedProcess11OnTerminateEii
libhuginbasewx.so.0.0:_ZN14RunStitchPanel11PauseStitchEv
libhuginbasewx.so.0.0:_ZN14RunStitchPanel12CancelStitchEv
libhuginbasewx.so.0.0:_ZN14RunStitchPanel12SetOverwriteEb
libhuginbasewx.so.0.0:_ZN14RunStitchPanel13DetectProjectERK8wxString
libhuginbasewx.so.0.0:_ZN14RunStitchPanel13StitchProjectERK8wxStringS2_S2_
libhuginbasewx.so.0.0:_ZN14RunStitchPanel13sm_eventTableE
libhuginbasewx.so.0.0:_ZN14RunStitchPanel14ContinueStitchEv
libhuginbasewx.so.0.0:_ZN14RunStitchPanel17sm_eventHashTableE
libhuginbasewx.so.0.0:_ZN14RunStitchPanel18OnProcessTerminateER14wxProcessEvent
libhuginbasewx.so.0.0:_ZN14RunStitchPanel20sm_eventTableEntriesE
libhuginbasewx.so.0.0:_ZN14RunStitchPanel6GetPidEv
libhuginbasewx.so.0.0:_ZN14RunStitchPanel7SaveLogERK8wxString
libhuginbasewx.so.0.0:_ZN14RunStitchPanel8IsPausedEv
libhuginbasewx.so.0.0:_ZN14RunStitchPanelC1EP8wxWindow
libhuginbasewx.so.0.0:_ZN14RunStitchPanelC2EP8wxWindow
libhuginbasewx.so.0.0:_ZN16LoadLensDBDialog11SetApertureEd
libhuginbasewx.so.0.0:_ZN16LoadLensDBDialog11SetLensNameENSt7__cxx1112basic_stringIcSt11char_traitsIcESaIcEEE
libhuginbasewx.so.0.0:_ZN16LoadLensDBDialog12FillLensListEv
libhuginbasewx.so.0.0:_ZN16LoadLensDBDialog13sm_eventTableE
libhuginbasewx.so.0.0:_ZN16LoadLensDBDialog14OnCheckChangedER14wxCommandEvent
libhuginbasewx.so.0.0:_ZN16LoadLensDBDialog14SetFocalLengthEd
libhuginbasewx.so.0.0:_ZN16LoadLensDBDialog17sm_eventHashTableE
libhuginbasewx.so.0.0:_ZN16LoadLensDBDialog18SetSubjectDistanceEd
libhuginbasewx.so.0.0:_ZN16LoadLensDBDialog20sm_eventTableEntriesE
libhuginbasewx.so.0.0:_ZN16LoadLensDBDialog4OnOkER14wxCommandEvent
libhuginbasewx.so.0.0:_ZN16LoadLensDBDialogC1EP8wxWindow
libhuginbasewx.so.0.0:_ZN16LoadLensDBDialogC2EP8wxWindow
libhuginbasewx.so.0.0:_ZN16SaveLensDBDialog11SetApertureEd
libhuginbasewx.so.0.0:_ZN16SaveLensDBDialog11SetLensNameENSt7__cxx1112basic_stringIcSt11char_traitsIcESaIcEEE
libhuginbasewx.so.0.0:_ZN16SaveLensDBDialog13sm_eventTableE
libhuginbasewx.so.0.0:_ZN16SaveLensDBDialog14OnCheckChangedER14wxCommandEvent
libhuginbasewx.so.0.0:_ZN16SaveLensDBDialog14SetCameraMakerENSt7__cxx1112basic_stringIcSt11char_traitsIcESaIcEEE
libhuginbasewx.so.0.0:_ZN16SaveLensDBDialog14SetCameraModelENSt7__cxx1112basic_stringIcSt11char_traitsIcESaIcEEE
libhuginbasewx.so.0.0:_ZN16SaveLensDBDialog14SetFocalLengthEd
libhuginbasewx.so.0.0:_ZN16SaveLensDBDialog17sm_eventHashTableE
libhuginbasewx.so.0.0:_ZN16SaveLensDBDialog18SetSubjectDistanceEd
libhuginbasewx.so.0.0:_ZN16SaveLensDBDialog20sm_eventTableEntriesE
libhuginbasewx.so.0.0:_ZN16SaveLensDBDialog24DeactivateSaveVignettingEv
libhuginbasewx.so.0.0:_ZN16SaveLensDBDialog4OnOkER14wxCommandEvent
libhuginbasewx.so.0.0:_ZN16SaveLensDBDialogC1EP8wxWindow
libhuginbasewx.so.0.0:_ZN16SaveLensDBDialogC2EP8wxWindow
libhuginbasewx.so.0.0:_ZN22ProgressReporterDialog10setMessageERK8wxStringS2_
libhuginbasewx.so.0.0:_ZN22ProgressReporterDialog10setMessageERKNSt7__cxx1112basic_stringIcSt11char_traitsIcESaIcEEES7_
libhuginbasewx.so.0.0:_ZN22ProgressReporterDialog13updateDisplayERK8wxString
libhuginbasewx.so.0.0:_ZN22ProgressReporterDialog18updateDisplayValueERK8wxStringS2_
libhuginbasewx.so.0.0:_ZN22ProgressReporterDialog21updateProgressDisplayEv
libhuginbasewx.so.0.0:_ZN9HuginBase5Color12CorrectImageER7wxImageRKN5vigra11ArrayVectorIhSaIhEEERKPv
libhuginbasewx.so.0.0:_ZN9HuginBase5Color17GetMonitorProfileER8wxStringRPv
libhuginbasewx.so.0.0:_ZN9HuginBase5Color6detail17GetMonitorProfileER8wxStringRPv
libhuginbasewx.so.0.0:_ZN9HuginBase5Color6detail18GetProfileFromAtomEP9_XDisplayPKc
libhuginbasewx.so.0.0:_ZNK10HFOVDialog13GetEventTableEv
libhuginbasewx.so.0.0:_ZNK10HFOVDialog17GetEventHashTableEv
libhuginbasewx.so.0.0:_ZNK10HuginQueue13NormalCommand10GetCommandEv
libhuginbasewx.so.0.0:_ZNK10HuginQueue13NormalCommand10GetCommentEv
libhuginbasewx.so.0.0:_ZNK10HuginQueue13NormalCommand15CheckReturnCodeEv
libhuginbasewx.so.0.0:_ZNK10HuginQueue15OptionalCommand15CheckReturnCodeEv
libhuginbasewx.so.0.0:_ZNK11MyExecPanel13GetEventTableEv
libhuginbasewx.so.0.0:_ZNK11MyExecPanel17GetEventHashTableEv
libhuginbasewx.so.0.0:_ZNK11PanoCommand11PanoCommand7getNameB5cxx11Ev
libhuginbasewx.so.0.0:_ZNK11PanoCommand14CommandHistory18getLastCommandNameB5cxx11Ev
libhuginbasewx.so.0.0:_ZNK11PanoCommand14CommandHistory7canRedoEv
libhuginbasewx.so.0.0:_ZNK11PanoCommand14CommandHistory7canUndoEv
libhuginbasewx.so.0.0:_ZNK12MyExecDialog13GetEventTableEv
libhuginbasewx.so.0.0:_ZNK12MyExecDialog17GetEventHashTableEv
libhuginbasewx.so.0.0:_ZNK12wxGraphTools16GraphPopupWindow12GetClassInfoEv
libhuginbasewx.so.0.0:_ZNK12wxGraphTools5Graph8GetGraphEv
libhuginbasewx.so.0.0:_ZNK14RunStitchPanel13GetEventTableEv
libhuginbasewx.so.0.0:_ZNK14RunStitchPanel17GetEventHashTableEv
libhuginbasewx.so.0.0:_ZNK16LoadLensDBDialog11GetApertureEv
libhuginbasewx.so.0.0:_ZNK16LoadLensDBDialog11GetLensNameB5cxx11Ev
libhuginbasewx.so.0.0:_ZNK16LoadLensDBDialog13GetEventTableEv
libhuginbasewx.so.0.0:_ZNK16LoadLensDBDialog14GetFocalLengthEv
libhuginbasewx.so.0.0:_ZNK16LoadLensDBDialog17GetEventHashTableEv
libhuginbasewx.so.0.0:_ZNK16LoadLensDBDialog17GetLoadDistortionEv
libhuginbasewx.so.0.0:_ZNK16LoadLensDBDialog17GetLoadVignettingEv
libhuginbasewx.so.0.0:_ZNK16LoadLensDBDialog18GetSubjectDistanceEv
libhuginbasewx.so.0.0:_ZNK16SaveLensDBDialog11GetApertureEv
libhuginbasewx.so.0.0:_ZNK16SaveLensDBDialog11GetLensNameB5cxx11Ev
libhuginbasewx.so.0.0:_ZNK16SaveLensDBDialog12GetLensMakerB5cxx11Ev
libhuginbasewx.so.0.0:_ZNK16SaveLensDBDialog13GetEventTableEv
libhuginbasewx.so.0.0:_ZNK16SaveLensDBDialog14GetCameraMakerB5cxx11Ev
libhuginbasewx.so.0.0:_ZNK16SaveLensDBDialog14GetCameraModelB5cxx11Ev
libhuginbasewx.so.0.0:_ZNK16SaveLensDBDialog14GetFocalLengthEv
libhuginbasewx.so.0.0:_ZNK16SaveLensDBDialog17GetEventHashTableEv
libhuginbasewx.so.0.0:_ZNK16SaveLensDBDialog17GetSaveDistortionEv
libhuginbasewx.so.0.0:_ZNK16SaveLensDBDialog17GetSaveVignettingEv
libhuginbasewx.so.0.0:_ZNK16SaveLensDBDialog18GetSubjectDistanceEv
libhuginbasewx.so.0.0:_ZThn1104_N22ProgressReporterDialog21updateProgressDisplayEv
libhuginbasewx.so.0.0:_ZThn680_N11MyExecPanel19OnProcessTerminatedEP14MyPipedProcessii
libhuginbasewx.so.0.0:_ZThn680_N11MyExecPanelD0Ev
libhuginbasewx.so.0.0:_ZThn680_N11MyExecPanelD1Ev
libhuginbasewx.so.0.0:__bss_start
libhuginbasewx.so.0.0:_edata
libhuginbasewx.so.0.0:_end
libicpfindlib.so.0.0:_Z11GetProgPath8wxString
libicpfindlib.so.0.0:_Z11sort_img_ev6img_evS_
libicpfindlib.so.0.0:_Z12CanStartProg8wxStringP8wxWindow
libicpfindlib.so.0.0:_Z17GetCheckedTempDirv
libicpfindlib.so.0.0:_Z25AddControlPointsWithCheckRSt6vectorIN9HuginBase12ControlPointESaIS1_EES4_PNS0_8PanoramaE
libicpfindlib.so.0.0:_Z9CPExecute8wxStringS_S_P8wxWindow
libicpfindlib.so.0.0:_Z9CPMessage8wxStringS_P8wxWindow
libicpfindlib.so.0.0:_ZN12AutoPanoSift9automatchER17CPDetectorSettingRN9HuginBase8PanoramaERKSt3setIjSt4lessIjESaIjEEiRSt6vectorI8wxStringSaISD_EERiP8wxWindow
libicpfindlib.so.0.0:_ZN12AutoPanoSift9automatchER17CPDetectorSettingRN9HuginBase8PanoramaERKSt3setIjSt4lessIjESaIjEEiRiP8wxWindow
libicpfindlib.so.0.0:_ZN13ArraySettings3AddERK17CPDetectorSettingm
libicpfindlib.so.0.0:_ZN13ArraySettings6DoCopyERKS_
libicpfindlib.so.0.0:_ZN13ArraySettings6InsertERK17CPDetectorSettingmm
libicpfindlib.so.0.0:_ZN13ArraySettings7DoEmptyEv
libicpfindlib.so.0.0:_ZN13ArraySettings8RemoveAtEmm
libicpfindlib.so.0.0:_ZN13ArraySettingsC1ERKS_
libicpfindlib.so.0.0:_ZN13ArraySettingsC2ERKS_
libicpfindlib.so.0.0:_ZN13ArraySettingsD1Ev
libicpfindlib.so.0.0:_ZN13ArraySettingsD2Ev
libicpfindlib.so.0.0:_ZN13ArraySettingsaSERKS_
libicpfindlib.so.0.0:_ZN13AutoPanoKolor9automatchER17CPDetectorSettingRN9HuginBase8PanoramaERKSt3setIjSt4lessIjESaIjEEiRiP8wxWindow
libicpfindlib.so.0.0:_ZN16CPDetectorConfig10WriteIndexEP12wxConfigBasei
libicpfindlib.so.0.0:_ZN16CPDetectorConfig11FillControlEP18wxControlWithItemsbb
libicpfindlib.so.0.0:_ZN16CPDetectorConfig11WriteToFileE8wxString
libicpfindlib.so.0.0:_ZN16CPDetectorConfig12ReadFromFileE8wxString
libicpfindlib.so.0.0:_ZN16CPDetectorConfig14ResetToDefaultEv
libicpfindlib.so.0.0:_ZN16CPDetectorConfig19SetDefaultGeneratorEj
libicpfindlib.so.0.0:_ZN16CPDetectorConfig4ReadEP12wxConfigBase8wxString
libicpfindlib.so.0.0:_ZN16CPDetectorConfig4SwapEi
libicpfindlib.so.0.0:_ZN16CPDetectorConfig5WriteEP12wxConfigBase
libicpfindlib.so.0.0:_ZN16CPDetectorConfig9ReadIndexEP12wxConfigBasei
libicpfindlib.so.0.0:_ZN17AutoPanoSiftStack9automatchER17CPDetectorSettingRN9HuginBase8PanoramaERKSt3setIjSt4lessIjESaIjEEiRiP8wxWindow
libicpfindlib.so.0.0:_ZN17CPDetectorSetting11CheckValuesEv
libicpfindlib.so.0.0:_ZN17CPDetectorSetting14ContainsStacksE14CPDetectorType
libicpfindlib.so.0.0:_ZN17CPDetectorSetting17IsCleanupPossibleE14CPDetectorType
libicpfindlib.so.0.0:_ZN17CPDetectorSetting4ReadEP12wxConfigBase8wxString
libicpfindlib.so.0.0:_ZN17CPDetectorSetting5WriteEP12wxConfigBase8wxString
libicpfindlib.so.0.0:_ZN17CPDetectorSettingC1Ev
libicpfindlib.so.0.0:_ZN17CPDetectorSettingC2Ev
libicpfindlib.so.0.0:_ZN20AutoCtrlPointCreator24readUpdatedControlPointsERKNSt7__cxx1112basic_stringIcSt11char_traitsIcESaIcEEERN9HuginBase8PanoramaERKSt3setIjSt4lessIjESaIjEEb
libicpfindlib.so.0.0:_ZN20AutoCtrlPointCreator7CleanupER17CPDetectorSettingRN9HuginBase8PanoramaERKSt3setIjSt4lessIjESaIjEERSt6vectorI8wxStringSaISD_EEP8wxWindow
libicpfindlib.so.0.0:_ZN20AutoCtrlPointCreator9automatchER17CPDetectorSettingRN9HuginBase8PanoramaERKSt3setIjSt4lessIjESaIjEEiP8wxWindow
libicpfindlib.so.0.0:_ZN20AutoCtrlPointCreator9automatchER17CPDetectorSettingRN9HuginBase8PanoramaERKSt3setIjSt4lessIjESaIjEEiRiP8wxWindow
libicpfindlib.so.0.0:_ZN20AutoPanoSiftMultiRow9automatchER17CPDetectorSettingRN9HuginBase8PanoramaERKSt3setIjSt4lessIjESaIjEEiRiP8wxWindow
libicpfindlib.so.0.0:_ZN20AutoPanoSiftPreAlign9automatchER17CPDetectorSettingRN9HuginBase8PanoramaERKSt3setIjSt4lessIjESaIjEEiRSt6vectorI8wxStringSaISD_EERiP8wxWindow
libicpfindlib.so.0.0:_ZN20AutoPanoSiftPreAlign9automatchER17CPDetectorSettingRN9HuginBase8PanoramaERKSt3setIjSt4lessIjESaIjEEiRiP8wxWindow
libicpfindlib.so.0.0:_ZN25AutoPanoSiftMultiRowStack9automatchER17CPDetectorSettingRN9HuginBase8PanoramaERKSt3setIjSt4lessIjESaIjEEiRiP8wxWindow
libicpfindlib.so.0.0:_ZNK13ArraySettings5IndexERK17CPDetectorSettingb
libicpfindlib.so.0.0:__bss_start
libicpfindlib.so.0.0:_edata
libicpfindlib.so.0.0:_end
libicpfindlib.so.0.0:default_cpgenerator_args
libicpfindlib.so.0.0:default_cpgenerator_desc
libicpfindlib.so.0.0:default_cpgenerator_prog
liblocalfeatures.so.0.0:_ZN5lfeat10Homography10freeMemoryEv
liblocalfeatures.so.0.0:_ZN5lfeat10Homography11allocMemoryEi
liblocalfeatures.so.0.0:_ZN5lfeat10Homography14transformPointEddRdS1_
liblocalfeatures.so.0.0:_ZN5lfeat10Homography24initMatchesNormalizationERSt6vectorISt10shared_ptrINS_10PointMatchEESaIS4_EE
liblocalfeatures.so.0.0:_ZN5lfeat10Homography6kNColsE
liblocalfeatures.so.0.0:_ZN5lfeat10Homography8addMatchEmRNS_10PointMatchE
liblocalfeatures.so.0.0:_ZN5lfeat10Homography8estimateERSt6vectorISt10shared_ptrINS_10PointMatchEESaIS4_EE
liblocalfeatures.so.0.0:_ZN5lfeat10HomographyC1Ev
liblocalfeatures.so.0.0:_ZN5lfeat10HomographyC2Ev
liblocalfeatures.so.0.0:_ZN5lfeat10HomographyD1Ev
liblocalfeatures.so.0.0:_ZN5lfeat10HomographyD2Ev
liblocalfeatures.so.0.0:_ZN5lfeat13loadKeypointsERKNSt7__cxx1112basic_stringIcSt11char_traitsIcESaIcEEERSt6vectorISt10shared_ptrINS_8KeyPointEESaISB_EE
liblocalfeatures.so.0.0:_ZN5lfeat16KeyPointDetector10kBaseSigmaE
liblocalfeatures.so.0.0:_ZN5lfeat16KeyPointDetector13getBorderSizeEjj
liblocalfeatures.so.0.0:_ZN5lfeat16KeyPointDetector13getFilterSizeEjj
liblocalfeatures.so.0.0:_ZN5lfeat16KeyPointDetector15detectKeypointsERNS_5ImageERNS_16KeyPointInsertorE
liblocalfeatures.so.0.0:_ZN5lfeat16KeyPointDetector15fineTuneExtremaEPPPdjjjRdS4_S4_S4_jjj
liblocalfeatures.so.0.0:_ZN5lfeat16KeyPointDetector9calcTraceERNS_5ImageEdddRi
liblocalfeatures.so.0.0:_ZN5lfeat16KeyPointDetectorC1Ev
liblocalfeatures.so.0.0:_ZN5lfeat16KeyPointDetectorC2Ev
liblocalfeatures.so.0.0:_ZN5lfeat16SIFTFormatWriter11writeFooterEv
liblocalfeatures.so.0.0:_ZN5lfeat16SIFTFormatWriter11writeHeaderERKNS_9ImageInfoEii
liblocalfeatures.so.0.0:_ZN5lfeat16SIFTFormatWriter13writeKeypointEdddddiPd
liblocalfeatures.so.0.0:_ZN5lfeat18AutopanoSIFTWriter11writeFooterEv
liblocalfeatures.so.0.0:_ZN5lfeat18AutopanoSIFTWriter11writeHeaderERKNS_9ImageInfoEii
liblocalfeatures.so.0.0:_ZN5lfeat18AutopanoSIFTWriter13writeKeypointEdddddiPd
liblocalfeatures.so.0.0:_ZN5lfeat20DescPerfFormatWriter11writeFooterEv
liblocalfeatures.so.0.0:_ZN5lfeat20DescPerfFormatWriter11writeHeaderERKNS_9ImageInfoEii
liblocalfeatures.so.0.0:_ZN5lfeat20DescPerfFormatWriter13writeKeypointEdddddiPd
liblocalfeatures.so.0.0:_ZN5lfeat26CircularKeyPointDescriptorC1ERNS_5ImageESt6vectorIiSaIiEES3_IdSaIdEES7_idi
liblocalfeatures.so.0.0:_ZN5lfeat26CircularKeyPointDescriptorC2ERNS_5ImageESt6vectorIiSaIiEES3_IdSaIdEES7_idi
liblocalfeatures.so.0.0:_ZN5lfeat26CircularKeyPointDescriptorD1Ev
liblocalfeatures.so.0.0:_ZN5lfeat26CircularKeyPointDescriptorD2Ev
liblocalfeatures.so.0.0:_ZN5lfeat4Math19SolveLinearSystem33EPdPA3_d
liblocalfeatures.so.0.0:_ZN5lfeat4Math9NormalizeEPdi
liblocalfeatures.so.0.0:_ZN5lfeat5Image13AllocateImageEjj
liblocalfeatures.so.0.0:_ZN5lfeat5Image15DeallocateImageEPPdj
liblocalfeatures.so.0.0:_ZN5lfeat5Image18buildIntegralImageERN5vigra10BasicImageIdSaIdEEE
liblocalfeatures.so.0.0:_ZN5lfeat5Image4initERN5vigra10BasicImageIdSaIdEEE
liblocalfeatures.so.0.0:_ZN5lfeat5Image5cleanEv
liblocalfeatures.so.0.0:_ZN5lfeat5ImageC1ERN5vigra10BasicImageIdSaIdEEE
liblocalfeatures.so.0.0:_ZN5lfeat5ImageC2ERN5vigra10BasicImageIdSaIdEEE
liblocalfeatures.so.0.0:_ZN5lfeat5ImageD1Ev
liblocalfeatures.so.0.0:_ZN5lfeat5ImageD2Ev
liblocalfeatures.so.0.0:_ZN5lfeat6Exp1_2E
liblocalfeatures.so.0.0:_ZN5lfeat6GivensEPPdS0_S0_S0_iii
liblocalfeatures.so.0.0:_ZN5lfeat6Ransac6filterERSt6vectorISt10shared_ptrINS_10PointMatchEESaIS4_EES7_
liblocalfeatures.so.0.0:_ZN5lfeat6Ransac9calcErrorEPNS_10HomographyERNS_10PointMatchE
liblocalfeatures.so.0.0:_ZN5lfeat6Ransac9transformEddRdS1_
liblocalfeatures.so.0.0:_ZN5lfeatlsERSoRKNS_10HomographyE
liblocalfeatures.so.0.0:_ZNK5lfeat26CircularKeyPointDescriptor14makeDescriptorERNS_8KeyPointE
liblocalfeatures.so.0.0:_ZNK5lfeat26CircularKeyPointDescriptor16createDescriptorERNS_8KeyPointE
liblocalfeatures.so.0.0:_ZNK5lfeat26CircularKeyPointDescriptor17assignOrientationERNS_8KeyPointEPd
