libyosys.so:LZ4_attach_dictionary
libyosys.so:LZ4_compress
libyosys.so:LZ4_compressBound
libyosys.so:LZ4_compress_continue
libyosys.so:LZ4_compress_default
libyosys.so:LZ4_compress_destSize
libyosys.so:LZ4_compress_destSize_extState
libyosys.so:LZ4_compress_fast
libyosys.so:LZ4_compress_fast_continue
libyosys.so:LZ4_compress_fast_extState
libyosys.so:LZ4_compress_fast_extState_fastReset
libyosys.so:LZ4_compress_forceExtDict
libyosys.so:LZ4_compress_limitedOutput
libyosys.so:LZ4_compress_limitedOutput_continue
libyosys.so:LZ4_compress_limitedOutput_withState
libyosys.so:LZ4_compress_withState
libyosys.so:LZ4_create
libyosys.so:LZ4_createStream
libyosys.so:LZ4_createStreamDecode
libyosys.so:LZ4_decoderRingBufferSize
libyosys.so:LZ4_decompress_fast
libyosys.so:LZ4_decompress_fast_continue
libyosys.so:LZ4_decompress_fast_usingDict
libyosys.so:LZ4_decompress_fast_withPrefix64k
libyosys.so:LZ4_decompress_safe
libyosys.so:LZ4_decompress_safe_continue
libyosys.so:LZ4_decompress_safe_forceExtDict
libyosys.so:LZ4_decompress_safe_partial
libyosys.so:LZ4_decompress_safe_partial_forceExtDict
libyosys.so:LZ4_decompress_safe_partial_usingDict
libyosys.so:LZ4_decompress_safe_usingDict
libyosys.so:LZ4_decompress_safe_withPrefix64k
libyosys.so:LZ4_freeStream
libyosys.so:LZ4_freeStreamDecode
libyosys.so:LZ4_initStream
libyosys.so:LZ4_loadDict
libyosys.so:LZ4_loadDictSlow
libyosys.so:LZ4_resetStream
libyosys.so:LZ4_resetStreamState
libyosys.so:LZ4_resetStream_fast
libyosys.so:LZ4_saveDict
libyosys.so:LZ4_setStreamDecode
libyosys.so:LZ4_sizeofState
libyosys.so:LZ4_sizeofStreamState
libyosys.so:LZ4_slideInputBuffer
libyosys.so:LZ4_uncompress
libyosys.so:LZ4_uncompress_unknownOutputSize
libyosys.so:LZ4_versionNumber
libyosys.so:LZ4_versionString
libyosys.so:PyInit_libyosys
libyosys.so:PyInit_libyosys_dummy
libyosys.so:PyInit_pyosys
libyosys.so:_Z10JenkinsInsPvPKhjj
libyosys.so:_Z11JenkinsFreePvj
libyosys.so:_Z12log_body_strRKNSt7__cxx1112basic_stringIcSt11char_traitsIcESaIcEEES4_bb
libyosys.so:_Z13fold_abc9_cmdNSt7__cxx1112basic_stringIcSt11char_traitsIcESaIcEEE
libyosys.so:_Z13fstReaderInitP16fstReaderContext
libyosys.so:_Z13max_inp_widthPN5Yosys5RTLIL4CellE
libyosys.so:_Z14port_width_sumPN5Yosys5RTLIL4CellE
libyosys.so:_Z15fstReaderFseekoP16fstReaderContextP8_IO_FILEli
libyosys.so:_Z17escape_cxx_stringRKNSt7__cxx1112basic_stringIcSt11char_traitsIcESaIcEEE
libyosys.so:_Z17extendedEuclidean10BigIntegerS_RS_S0_S0_
libyosys.so:_Z18bigIntegerToStringB5cxx11RK10BigInteger
libyosys.so:_Z18stringToBigIntegerRKNSt7__cxx1112basic_stringIcSt11char_traitsIcESaIcEEE
libyosys.so:_Z19bigUnsignedToStringB5cxx11RK11BigUnsigned
libyosys.so:_Z19stringToBigUnsignedRKNSt7__cxx1112basic_stringIcSt11char_traitsIcESaIcEEE
libyosys.so:_Z22frontend_verilog_yylexPN5Yosys16VERILOG_FRONTEND12VerilogLexerE
libyosys.so:_Z23frontend_verilog_yyfreePv
libyosys.so:_Z24frontend_verilog_yyallocm
libyosys.so:_Z26frontend_verilog_yyreallocPvm
libyosys.so:_Z3gcd11BigUnsignedS_
libyosys.so:_Z4sha1RKNSt7__cxx1112basic_stringIcSt11char_traitsIcESaIcEEE
libyosys.so:_Z4warnNSt7__cxx1112basic_stringIcSt11char_traitsIcESaIcEEE
libyosys.so:_Z6modexpRK10BigIntegerRK11BigUnsignedS4_
libyosys.so:_Z6modinvRK10BigIntegerRK11BigUnsigned
libyosys.so:_Z8char_tokc8Location
libyosys.so:_Z8log_bodyRKN5Yosys14ContentListingEib
libyosys.so:_ZN10BigInteger19divideWithRemainderERKS_RS_
libyosys.so:_ZN10BigInteger3addERKS_S1_
libyosys.so:_ZN10BigInteger6negateERKS_
libyosys.so:_ZN10BigInteger8multiplyERKS_S1_
libyosys.so:_ZN10BigInteger8subtractERKS_S1_
libyosys.so:_ZN10BigIntegerC1EPKmjNS_4SignE
libyosys.so:_ZN10BigIntegerC1ERK11BigUnsignedNS_4SignE
libyosys.so:_ZN10BigIntegerC1Ei
libyosys.so:_ZN10BigIntegerC1Ej
libyosys.so:_ZN10BigIntegerC1El
libyosys.so:_ZN10BigIntegerC1Em
libyosys.so:_ZN10BigIntegerC1Es
libyosys.so:_ZN10BigIntegerC1Et
libyosys.so:_ZN10BigIntegerC2EPKmjNS_4SignE
libyosys.so:_ZN10BigIntegerC2ERK11BigUnsignedNS_4SignE
libyosys.so:_ZN10BigIntegerC2Ei
libyosys.so:_ZN10BigIntegerC2Ej
libyosys.so:_ZN10BigIntegerC2El
libyosys.so:_ZN10BigIntegerC2Em
libyosys.so:_ZN10BigIntegerC2Es
libyosys.so:_ZN10BigIntegerC2Et
libyosys.so:_ZN10BigIntegeraSERKS_
libyosys.so:_ZN10BigIntegermmEi
libyosys.so:_ZN10BigIntegermmEv
libyosys.so:_ZN10BigIntegerppEi
libyosys.so:_ZN10BigIntegerppEv
libyosys.so:_ZN10SubCircuit5Graph10createNodeENSt7__cxx1112basic_stringIcSt11char_traitsIcESaIcEEES6_Pvb
libyosys.so:_ZN10SubCircuit5Graph10createPortENSt7__cxx1112basic_stringIcSt11char_traitsIcESaIcEEES6_ii
libyosys.so:_ZN10SubCircuit5Graph10markExternENSt7__cxx1112basic_stringIcSt11char_traitsIcESaIcEEES6_i
libyosys.so:_ZN10SubCircuit5Graph13markAllExternEv
libyosys.so:_ZN10SubCircuit5Graph14createConstantENSt7__cxx1112basic_stringIcSt11char_traitsIcESaIcEEES6_i
libyosys.so:_ZN10SubCircuit5Graph14createConstantENSt7__cxx1112basic_stringIcSt11char_traitsIcESaIcEEES6_ii
libyosys.so:_ZN10SubCircuit5Graph16createConnectionENSt7__cxx1112basic_stringIcSt11char_traitsIcESaIcEEES6_S6_S6_
libyosys.so:_ZN10SubCircuit5Graph16createConnectionENSt7__cxx1112basic_stringIcSt11char_traitsIcESaIcEEES6_iS6_S6_ii
libyosys.so:_ZN10SubCircuit5Graph5printEv
libyosys.so:_ZN10SubCircuit5GraphC1ERKS0_RKSt6vectorINSt7__cxx1112basic_stringIcSt11char_traitsIcESaIcEEESaIS9_EE
libyosys.so:_ZN10SubCircuit5GraphC2ERKS0_RKSt6vectorINSt7__cxx1112basic_stringIcSt11char_traitsIcESaIcEEESaIS9_EE
libyosys.so:_ZN10SubCircuit6Solver10setVerboseEv
libyosys.so:_ZN10SubCircuit6Solver11clearConfigEv
libyosys.so:_ZN10SubCircuit6Solver15userCompareEdgeERKNSt7__cxx1112basic_stringIcSt11char_traitsIcESaIcEEES8_PvS8_S9_S8_S8_S9_S8_S9_
libyosys.so:_ZN10SubCircuit6Solver16userAnnotateEdgeERKNSt7__cxx1112basic_stringIcSt11char_traitsIcESaIcEEES8_PvS8_S9_
libyosys.so:_ZN10SubCircuit6Solver16userCompareNodesERKNSt7__cxx1112basic_stringIcSt11char_traitsIcESaIcEEES8_PvS8_S8_S9_RKSt3mapIS6_S6_St4lessIS6_ESaISt4pairIS7_S6_EEE
libyosys.so:_ZN10SubCircuit6Solver17addSwappablePortsENSt7__cxx1112basic_stringIcSt11char_traitsIcESaIcEEES6_S6_S6_S6_
libyosys.so:_ZN10SubCircuit6Solver17addSwappablePortsENSt7__cxx1112basic_stringIcSt11char_traitsIcESaIcEEESt3setIS6_St4lessIS6_ESaIS6_EE
libyosys.so:_ZN10SubCircuit6Solver17userCheckSolutionERKNS0_6ResultE
libyosys.so:_ZN10SubCircuit6Solver18addCompatibleTypesENSt7__cxx1112basic_stringIcSt11char_traitsIcESaIcEEES6_
libyosys.so:_ZN10SubCircuit6Solver19clearOverlapHistoryEv
libyosys.so:_ZN10SubCircuit6Solver22addCompatibleConstantsEii
libyosys.so:_ZN10SubCircuit6Solver28addSwappablePortsPermutationENSt7__cxx1112basic_stringIcSt11char_traitsIcESaIcEEESt3mapIS6_S6_St4lessIS6_ESaISt4pairIKS6_S6_EEE
libyosys.so:_ZN10SubCircuit6Solver4mineERSt6vectorINS0_10MineResultESaIS2_EEiiii
libyosys.so:_ZN10SubCircuit6Solver5solveERSt6vectorINS0_6ResultESaIS2_EENSt7__cxx1112basic_stringIcSt11char_traitsIcESaIcEEESB_RKSt3mapISB_St3setISB_St4lessISB_ESaISB_EESF_SaISt4pairIKSB_SH_EEEbi
libyosys.so:_ZN10SubCircuit6Solver5solveERSt6vectorINS0_6ResultESaIS2_EENSt7__cxx1112basic_stringIcSt11char_traitsIcESaIcEEESB_bi
libyosys.so:_ZN10SubCircuit6Solver8addGraphENSt7__cxx1112basic_stringIcSt11char_traitsIcESaIcEEERKNS_5GraphE
libyosys.so:_ZN10SubCircuit6SolverC1Ev
libyosys.so:_ZN10SubCircuit6SolverC2Ev
libyosys.so:_ZN10SubCircuit6SolverD0Ev
libyosys.so:_ZN10SubCircuit6SolverD1Ev
libyosys.so:_ZN10SubCircuit6SolverD2Ev
libyosys.so:_ZN11BigUnsigned12bitShiftLeftERKS_i
libyosys.so:_ZN11BigUnsigned13bitShiftRightERKS_i
libyosys.so:_ZN11BigUnsigned19divideWithRemainderERKS_RS_
libyosys.so:_ZN11BigUnsigned3addERKS_S1_
libyosys.so:_ZN11BigUnsigned5bitOrERKS_S1_
libyosys.so:_ZN11BigUnsigned6bitAndERKS_S1_
libyosys.so:_ZN11BigUnsigned6bitXorERKS_S1_
libyosys.so:_ZN11BigUnsigned6setBitEjb
libyosys.so:_ZN11BigUnsigned8multiplyERKS_S1_
libyosys.so:_ZN11BigUnsigned8setBlockEjm
libyosys.so:_ZN11BigUnsigned8subtractERKS_S1_
libyosys.so:_ZN11BigUnsignedC1Ei
libyosys.so:_ZN11BigUnsignedC1Ej
libyosys.so:_ZN11BigUnsignedC1El
libyosys.so:_ZN11BigUnsignedC1Em
libyosys.so:_ZN11BigUnsignedC1Es
libyosys.so:_ZN11BigUnsignedC1Et
libyosys.so:_ZN11BigUnsignedC2Ei
libyosys.so:_ZN11BigUnsignedC2Ej
libyosys.so:_ZN11BigUnsignedC2El
libyosys.so:_ZN11BigUnsignedC2Em
libyosys.so:_ZN11BigUnsignedC2Es
libyosys.so:_ZN11BigUnsignedC2Et
libyosys.so:_ZN11BigUnsignedmmEi
libyosys.so:_ZN11BigUnsignedmmEv
libyosys.so:_ZN11BigUnsignedppEi
libyosys.so:_ZN11BigUnsignedppEv
libyosys.so:_ZN12ezCmdlineSAT6solverERKSt6vectorIiSaIiEERS0_IbSaIbEES4_
libyosys.so:_ZN12ezCmdlineSATC1ERKNSt7__cxx1112basic_stringIcSt11char_traitsIcESaIcEEE
libyosys.so:_ZN12ezCmdlineSATC2ERKNSt7__cxx1112basic_stringIcSt11char_traitsIcESaIcEEE
libyosys.so:_ZN12ezCmdlineSATD0Ev
libyosys.so:_ZN12ezCmdlineSATD1Ev
libyosys.so:_ZN12ezCmdlineSATD2Ev
libyosys.so:_ZN14slang_frontend10format_srcB5cxx11EN5slang11SourceRangeE
libyosys.so:_ZN14slang_frontend10scope_pathEPKN5slang3ast5ScopeEb
libyosys.so:_ZN14slang_frontend11EvalContext11eval_signedERKN5slang3ast10ExpressionE
libyosys.so:_ZN14slang_frontend11EvalContext13streaming_lhsERKN5slang3ast32StreamingConcatenationExpressionE
libyosys.so:_ZN14slang_frontend11EvalContext14connection_lhsERKN5slang3ast20AssignmentExpressionE
libyosys.so:_ZN14slang_frontend11EvalContext15find_nest_levelEPKN5slang3ast5ScopeE
libyosys.so:_ZN14slang_frontend11EvalContext16apply_conversionERKN5slang3ast20ConversionExpressionEN5Yosys5RTLIL7SigSpecE
libyosys.so:_ZN14slang_frontend11EvalContext23apply_nested_conversionERKN5slang3ast10ExpressionEN5Yosys5RTLIL7SigSpecE
libyosys.so:_ZN14slang_frontend11EvalContext3lhsERKN5slang3ast10ExpressionEb
libyosys.so:_ZN14slang_frontend11EvalContext3svaERKN5slang3ast10ExpressionE
libyosys.so:_ZN14slang_frontend11EvalContext8variableERKN5slang3ast11ValueSymbolE
libyosys.so:_ZN14slang_frontend11EvalContext9streamingERKN5slang3ast32StreamingConcatenationExpressionE
libyosys.so:_ZN14slang_frontend11EvalContextC1ERNS_14NetlistContextE
libyosys.so:_ZN14slang_frontend11EvalContextC1ERNS_17ProceduralContextE
libyosys.so:_ZN14slang_frontend11EvalContextC2ERNS_14NetlistContextE
libyosys.so:_ZN14slang_frontend11EvalContextC2ERNS_17ProceduralContextE
libyosys.so:_ZN14slang_frontend11EvalContextclERKN5slang3ast10ExpressionE
libyosys.so:_ZN14slang_frontend11ThreeValued2OREii
libyosys.so:_ZN14slang_frontend11ThreeValued3ANDEii
libyosys.so:_ZN14slang_frontend11ThreeValued3NOTEi
libyosys.so:_ZN14slang_frontend11ThreeValued3XOREii
libyosys.so:_ZN14slang_frontend11ThreeValued4XNOREii
libyosys.so:_ZN14slang_frontend11ThreeValued5CARRYEiii
libyosys.so:_ZN14slang_frontend11ThreeValued7convertEN5Yosys5RTLIL6SigBitE
libyosys.so:_ZN14slang_frontend11handle_pastERNS_11EvalContextERKN5slang3ast14CallExpressionE
libyosys.so:_ZN14slang_frontend12RTLILBuilder10EqWildcardEN5Yosys5RTLIL7SigSpecES3_
libyosys.so:_ZN14slang_frontend12RTLILBuilder10ReduceBoolEN5Yosys5RTLIL7SigSpecE
libyosys.so:_ZN14slang_frontend12RTLILBuilder10add_aldffeESt17basic_string_viewIcSt11char_traitsIcEERKN5Yosys5RTLIL7SigSpecES9_S9_S9_S9_S9_bbb
libyosys.so:_ZN14slang_frontend12RTLILBuilder10add_y_wireB5cxx11Ei
libyosys.so:_ZN14slang_frontend12RTLILBuilder10bless_cellEPN5Yosys5RTLIL4CellE
libyosys.so:_ZN14slang_frontend12RTLILBuilder15add_memory_initESt17basic_string_viewIcSt11char_traitsIcEEmbN5Yosys5RTLIL5ConstE
libyosys.so:_ZN14slang_frontend12RTLILBuilder17emit_meminit_cellEPN5Yosys5RTLIL6MemoryEmbNS2_5ConstES5_
libyosys.so:_ZN14slang_frontend12RTLILBuilder19add_dual_edge_aldffERKNSt7__cxx1112basic_stringIcSt11char_traitsIcESaIcEEEN5Yosys5RTLIL7SigSpecESB_SB_SB_SB_b
libyosys.so:_ZN14slang_frontend12RTLILBuilder22add_placeholder_signalEmSt17basic_string_viewIcSt11char_traitsIcEEb
libyosys.so:_ZN14slang_frontend12RTLILBuilder2EqEN5Yosys5RTLIL7SigSpecES3_
libyosys.so:_ZN14slang_frontend12RTLILBuilder2GeEN5Yosys5RTLIL7SigSpecES3_b
libyosys.so:_ZN14slang_frontend12RTLILBuilder2LeEN5Yosys5RTLIL7SigSpecES3_b
libyosys.so:_ZN14slang_frontend12RTLILBuilder2LtEN5Yosys5RTLIL7SigSpecES3_b
libyosys.so:_ZN14slang_frontend12RTLILBuilder3MuxEN5Yosys5RTLIL7SigSpecES3_S3_
libyosys.so:_ZN14slang_frontend12RTLILBuilder3NegEN5Yosys5RTLIL7SigSpecEb
libyosys.so:_ZN14slang_frontend12RTLILBuilder3NotEN5Yosys5RTLIL7SigSpecE
libyosys.so:_ZN14slang_frontend12RTLILBuilder4BiopEN5Yosys5RTLIL8IdStringENS2_7SigSpecES4_bbi
libyosys.so:_ZN14slang_frontend12RTLILBuilder4BmuxEN5Yosys5RTLIL7SigSpecES3_
libyosys.so:_ZN14slang_frontend12RTLILBuilder4UnopEN5Yosys5RTLIL8IdStringENS2_7SigSpecEbi
libyosys.so:_ZN14slang_frontend12RTLILBuilder5BwmuxEN5Yosys5RTLIL7SigSpecES3_S3_
libyosys.so:_ZN14slang_frontend12RTLILBuilder5Clog2EN5Yosys5RTLIL7SigSpecEi
libyosys.so:_ZN14slang_frontend12RTLILBuilder5DemuxEN5Yosys5RTLIL7SigSpecES3_
libyosys.so:_ZN14slang_frontend12RTLILBuilder5ShiftEN5Yosys5RTLIL7SigSpecEbS3_bi
libyosys.so:_ZN14slang_frontend12RTLILBuilder6ShiftxEN5Yosys5RTLIL7SigSpecES3_bi
libyosys.so:_ZN14slang_frontend12RTLILBuilder6new_idENSt7__cxx1112basic_stringIcSt11char_traitsIcESaIcEEE
libyosys.so:_ZN14slang_frontend12RTLILBuilder7LogicOrEN5Yosys5RTLIL7SigSpecES3_
libyosys.so:_ZN14slang_frontend12RTLILBuilder7add_dffESt17basic_string_viewIcSt11char_traitsIcEERKN5Yosys5RTLIL7SigSpecES9_S9_b
libyosys.so:_ZN14slang_frontend12RTLILBuilder7connectEN5Yosys5RTLIL7SigSpecES3_
libyosys.so:_ZN14slang_frontend12RTLILBuilder8LogicAndEN5Yosys5RTLIL7SigSpecES3_
libyosys.so:_ZN14slang_frontend12RTLILBuilder8LogicNotEN5Yosys5RTLIL7SigSpecE
libyosys.so:_ZN14slang_frontend12RTLILBuilder8add_dffeESt17basic_string_viewIcSt11char_traitsIcEERKN5Yosys5RTLIL7SigSpecES9_S9_S9_bb
libyosys.so:_ZN14slang_frontend12RTLILBuilder9CountOnesEN5Yosys5RTLIL7SigSpecEi
libyosys.so:_ZN14slang_frontend12RTLILBuilder9add_aldffESt17basic_string_viewIcSt11char_traitsIcEERKN5Yosys5RTLIL7SigSpecES9_S9_S9_S9_bb
libyosys.so:_ZN14slang_frontend12VariableBits16has_special_netsEv
libyosys.so:_ZN14slang_frontend12order_scopesEPKN5slang3ast5ScopeES4_
libyosys.so:_ZN14slang_frontend13ProcessTiming15extract_triggerERNS_14NetlistContextEPN5Yosys5RTLIL4CellENS4_6SigBitE
libyosys.so:_ZN14slang_frontend13ProcessTiming7initialE
libyosys.so:_ZN14slang_frontend13ProcessTiming8implicitE
libyosys.so:_ZN14slang_frontend13ProcessTimingC1ENS0_4KindE
libyosys.so:_ZN14slang_frontend13ProcessTimingC2ENS0_4KindE
libyosys.so:_ZN14slang_frontend13SlangFrontendE
libyosys.so:_ZN14slang_frontend13fixup_optionsERNS_17SynthesisSettingsERN5slang6driver6DriverE
libyosys.so:_ZN14slang_frontend13format_wchunkB5cxx11EN5Yosys5RTLIL8SigChunkE
libyosys.so:_ZN14slang_frontend13wire_missing_ERNS_14NetlistContextERKN5slang3ast6SymbolEPKci
libyosys.so:_ZN14slang_frontend14NetlistContext11is_blackboxERKN5slang3ast16DefinitionSymbolEPNS1_10DiagnosticE
libyosys.so:_ZN14slang_frontend14NetlistContext12unescaped_idB5cxx11ERKN5slang3ast6SymbolE
libyosys.so:_ZN14slang_frontend14NetlistContext13convert_constERKN5slang13ConstantValueENS1_14SourceLocationE
libyosys.so:_ZN14slang_frontend14NetlistContext14check_hier_refERKN5slang3ast11ValueSymbolENS1_11SourceRangeEb
libyosys.so:_ZN14slang_frontend14NetlistContext14convert_staticENS_12VariableBitsE
libyosys.so:_ZN14slang_frontend14NetlistContext15register_drivenERKN5slang3ast6SymbolE
libyosys.so:_ZN14slang_frontend14NetlistContext15register_drivenERKNS_12VariableBitsE
libyosys.so:_ZN14slang_frontend14NetlistContext15should_dissolveERKN5slang3ast14InstanceSymbolEPNS1_10DiagnosticE
libyosys.so:_ZN14slang_frontend14NetlistContext17find_symbol_realmERKN5slang3ast6SymbolE
libyosys.so:_ZN14slang_frontend14NetlistContext18is_inferred_memoryERKN5slang3ast10ExpressionE
libyosys.so:_ZN14slang_frontend14NetlistContext18is_inferred_memoryERKN5slang3ast6SymbolE
libyosys.so:_ZN14slang_frontend14NetlistContext20find_common_ancestorERKN5slang3ast18InstanceBodySymbolES5_
libyosys.so:_ZN14slang_frontend14NetlistContext21add_continuous_driverENS_12VariableBitsEN5Yosys5RTLIL7SigSpecE
libyosys.so:_ZN14slang_frontend14NetlistContext2idB5cxx11ERKN5slang3ast11ValueSymbolE
libyosys.so:_ZN14slang_frontend14NetlistContext2idB5cxx11ERKN5slang3ast6SymbolE
libyosys.so:_ZN14slang_frontend14NetlistContext4wireERKN5slang3ast6SymbolE
libyosys.so:_ZN14slang_frontend14NetlistContext7hdlnameB5cxx11ERKN5slang3ast6SymbolE
libyosys.so:_ZN14slang_frontend14NetlistContext8add_wireERKN5slang3ast11ValueSymbolE
libyosys.so:_ZN14slang_frontend14NetlistContextC1EPN5Yosys5RTLIL6DesignERNS_17SynthesisSettingsERN5slang3ast11CompilationERKNS8_14InstanceSymbolE
libyosys.so:_ZN14slang_frontend14NetlistContextC1ERS0_RKN5slang3ast14InstanceSymbolE
libyosys.so:_ZN14slang_frontend14NetlistContextC2EPN5Yosys5RTLIL6DesignERNS_17SynthesisSettingsERN5slang3ast11CompilationERKNS8_14InstanceSymbolE
libyosys.so:_ZN14slang_frontend14NetlistContextC2ERS0_RKN5slang3ast14InstanceSymbolE
libyosys.so:_ZN14slang_frontend14NetlistContextD1Ev
libyosys.so:_ZN14slang_frontend14NetlistContextD2Ev
libyosys.so:_ZN14slang_frontend14build_hiernameERNS_14NetlistContextERKN5slang3ast6SymbolERKNSt7__cxx1112basic_stringIcSt11char_traitsIcESaIcEEE
libyosys.so:_ZN14slang_frontend14crop_zero_maskERKN5Yosys5RTLIL7SigSpecERNS_12VariableBitsE
libyosys.so:_ZN14slang_frontend14crop_zero_maskERKN5Yosys5RTLIL7SigSpecERS2_
libyosys.so:_ZN14slang_frontend14handle_displayERNS_17ProceduralContextERKN5slang3ast14CallExpressionE
libyosys.so:_ZN14slang_frontend14handle_readmemERNS_17ProceduralContextERKN5slang3ast14CallExpressionE
libyosys.so:_ZN14slang_frontend14is_special_netERKN5slang3ast6SymbolE
libyosys.so:_ZN14slang_frontend14unimplemented_ERKN5slang3ast10ExpressionEPKciS6_
libyosys.so:_ZN14slang_frontend14unimplemented_ERKN5slang3ast13TimingControlEPKciS6_
libyosys.so:_ZN14slang_frontend14unimplemented_ERKN5slang3ast6SymbolEPKciS6_
libyosys.so:_ZN14slang_frontend14unimplemented_ERKN5slang3ast9StatementEPKciS6_
libyosys.so:_ZN14slang_frontend15crop_undef_maskERKN5Yosys5RTLIL7SigSpecERNS_12VariableBitsE
libyosys.so:_ZN14slang_frontend15crop_undef_maskERKN5Yosys5RTLIL7SigSpecERS2_
libyosys.so:_ZN14slang_frontend15source_locationERKN5slang3ast10ExpressionE
libyosys.so:_ZN14slang_frontend15source_locationERKN5slang3ast13TimingControlE
libyosys.so:_ZN14slang_frontend15source_locationERKN5slang3ast6SymbolE
libyosys.so:_ZN14slang_frontend15source_locationERKN5slang3ast9StatementE
libyosys.so:_ZN14slang_frontend16DiagnosticIssuer11report_intoERN5slang16DiagnosticEngineE
libyosys.so:_ZN14slang_frontend16DiagnosticIssuer15add_diagnosticsERKN5slang11DiagnosticsE
libyosys.so:_ZN14slang_frontend16DiagnosticIssuer8add_diagEN5slang10DiagnosticE
libyosys.so:_ZN14slang_frontend16DiagnosticIssuer8add_diagEN5slang8DiagCodeENS1_11SourceRangeE
libyosys.so:_ZN14slang_frontend16DiagnosticIssuer8add_diagEN5slang8DiagCodeENS1_14SourceLocationE
libyosys.so:_ZN14slang_frontend16SlangVersionPassE
libyosys.so:_ZN14slang_frontend16global_sourcemgrE
libyosys.so:_ZN14slang_frontend17ProceduralContext10all_drivenEv
libyosys.so:_ZN14slang_frontend17ProceduralContext11case_enableEv
libyosys.so:_ZN14slang_frontend17ProceduralContext13VariableState3setENS_12VariableBitsEN5Yosys5RTLIL7SigSpecE
libyosys.so:_ZN14slang_frontend17ProceduralContext13VariableState4saveERN5Yosys7hashlib4dictINS_11VariableBitENS2_5RTLIL6SigBitENS3_8hash_opsIS5_EEEE
libyosys.so:_ZN14slang_frontend17ProceduralContext13VariableState7restoreERN5Yosys7hashlib4dictINS_11VariableBitENS2_5RTLIL6SigBitENS3_8hash_opsIS5_EEEE
libyosys.so:_ZN14slang_frontend17ProceduralContext13VariableState8evaluateERNS_14NetlistContextENS_12VariableBitsE
libyosys.so:_ZN14slang_frontend17ProceduralContext13VariableState8evaluateERNS_14NetlistContextENS_13VariableChunkE
libyosys.so:_ZN14slang_frontend17ProceduralContext13assign_rvalueERKN5slang3ast20AssignmentExpressionEN5Yosys5RTLIL7SigSpecE
libyosys.so:_ZN14slang_frontend17ProceduralContext13inherit_stateERS0_
libyosys.so:_ZN14slang_frontend17ProceduralContext13signal_escapeEN5slang14SourceLocationENS0_11EscapeFrame19EscapeConstructKindE
libyosys.so:_ZN14slang_frontend17ProceduralContext16do_simple_assignEN5slang14SourceLocationENS_12VariableBitsEN5Yosys5RTLIL7SigSpecEb
libyosys.so:_ZN14slang_frontend17ProceduralContext16get_disable_flagEv
libyosys.so:_ZN14slang_frontend17ProceduralContext17substitute_rvalueENS_12VariableBitsE
libyosys.so:_ZN14slang_frontend17ProceduralContext19copy_case_tree_intoERN5Yosys5RTLIL8CaseRuleE
libyosys.so:_ZN14slang_frontend17ProceduralContext19set_effects_triggerEPN5Yosys5RTLIL4CellE
libyosys.so:_ZN14slang_frontend17ProceduralContext21update_variable_stateEN5slang14SourceLocationENS_12VariableBitsEN5Yosys5RTLIL7SigSpecES6_b
libyosys.so:_ZN14slang_frontend17ProceduralContext22get_current_subroutineEv
libyosys.so:_ZN14slang_frontend17ProceduralContextC1ERNS_14NetlistContextERNS_13ProcessTimingE
libyosys.so:_ZN14slang_frontend17ProceduralContextC2ERNS_14NetlistContextERNS_13ProcessTimingE
libyosys.so:_ZN14slang_frontend17ProceduralContextD1Ev
libyosys.so:_ZN14slang_frontend17ProceduralContextD2Ev
libyosys.so:_ZN14slang_frontend17SlangDefaultsPassE
libyosys.so:_ZN14slang_frontend17SynthesisSettings10addOptionsERN5slang11CommandLineE
libyosys.so:_ZN14slang_frontend17TestSlangDiagPassE
libyosys.so:_ZN14slang_frontend17TestSlangExprPassE
libyosys.so:_ZN14slang_frontend17get_instance_bodyERNS_17SynthesisSettingsERKN5slang3ast14InstanceSymbolE
libyosys.so:_ZN14slang_frontend17inside_comparisonERNS_11EvalContextEN5Yosys5RTLIL7SigSpecERKN5slang3ast10ExpressionE
libyosys.so:_ZN14slang_frontend17str_to_state_vectERSt6vectorIN5Yosys5RTLIL5StateESaIS3_EEPKcmb
libyosys.so:_ZN14slang_frontend18AddressingResolver10shift_downEN5Yosys5RTLIL7SigSpecEi
libyosys.so:_ZN14slang_frontend18AddressingResolver15interpret_indexEN5Yosys5RTLIL7SigSpecEii
libyosys.so:_ZN14slang_frontend18AddressingResolver16shift_up_bitwiseEN5Yosys5RTLIL7SigSpecEbi
libyosys.so:_ZN14slang_frontend18AddressingResolver18shift_down_bitwiseEN5Yosys5RTLIL7SigSpecEi
libyosys.so:_ZN14slang_frontend18AddressingResolver3muxEN5Yosys5RTLIL7SigSpecEi
libyosys.so:_ZN14slang_frontend18AddressingResolver5demuxEN5Yosys5RTLIL7SigSpecEi
libyosys.so:_ZN14slang_frontend18AddressingResolver5embedEN5Yosys5RTLIL7SigSpecEiiNS2_5StateE
libyosys.so:_ZN14slang_frontend18AddressingResolver7extractIN5Yosys5RTLIL7SigSpecEEET_S5_m
libyosys.so:_ZN14slang_frontend18AddressingResolver7extractINS_12VariableBitsEEET_S3_m
libyosys.so:_ZN14slang_frontend18AddressingResolver7raw_muxEN5Yosys5RTLIL7SigSpecEiii
libyosys.so:_ZN14slang_frontend18AddressingResolver8shift_upEN5Yosys5RTLIL7SigSpecEbi
libyosys.so:_ZN14slang_frontend18AddressingResolver9is_staticEv
libyosys.so:_ZN14slang_frontend18AddressingResolver9raw_demuxEN5Yosys5RTLIL7SigSpecEii
libyosys.so:_ZN14slang_frontend18AddressingResolverC1ERNS_11EvalContextERKN5slang3ast21RangeSelectExpressionE
libyosys.so:_ZN14slang_frontend18AddressingResolverC1ERNS_11EvalContextERKN5slang3ast23ElementSelectExpressionE
libyosys.so:_ZN14slang_frontend18AddressingResolverC2ERNS_11EvalContextERKN5slang3ast21RangeSelectExpressionE
libyosys.so:_ZN14slang_frontend18AddressingResolverC2ERNS_11EvalContextERKN5slang3ast23ElementSelectExpressionE
libyosys.so:_ZN14slang_frontend18convert_attr_valueERNS_14NetlistContextEPKN5slang3ast15AttributeSymbolE
libyosys.so:_ZN14slang_frontend18global_compilationE
libyosys.so:_ZN14slang_frontend19UnrollLimitTracking11unroll_tickEPKN5slang3ast9StatementE
libyosys.so:_ZN14slang_frontend19UnrollLimitTracking14exit_unrollingEv
libyosys.so:_ZN14slang_frontend19UnrollLimitTracking15enter_unrollingEv
libyosys.so:_ZN14slang_frontend19UnrollLimitTrackingC1ERNS_14NetlistContextEi
libyosys.so:_ZN14slang_frontend19UnrollLimitTrackingC2ERNS_14NetlistContextEi
libyosys.so:_ZN14slang_frontend19UnrollLimitTrackingD1Ev
libyosys.so:_ZN14slang_frontend19UnrollLimitTrackingD2Ev
libyosys.so:_ZN14slang_frontend19is_special_net_typeERKN5slang3ast7NetTypeE
libyosys.so:_ZN14slang_frontend20hierpath_relative_toB5cxx11EPKN5slang3ast5ScopeES4_
libyosys.so:_ZN14slang_frontend20is_decl_empty_moduleERKN5slang6syntax10SyntaxNodeE
libyosys.so:_ZN14slang_frontend20process_sva_propertyERKN5slang3ast28ConcurrentAssertionStatementEPKNS1_20StatementBlockSymbolERNS_17ProceduralContextERKNS1_13AssertionExprE
libyosys.so:_ZN14slang_frontend21finalize_special_netsERNS_14NetlistContextE
libyosys.so:_ZN14slang_frontend23bitstream_member_offsetERKN5slang3ast11FieldSymbolE
libyosys.so:_ZN14slang_frontend23catch_forbidden_optionsERN5slang6driver6DriverE
libyosys.so:_ZN14slang_frontend23generate_subfield_namesB5cxx11ENS_13VariableChunkEPKN5slang3ast4TypeE
libyosys.so:_ZN14slang_frontend24EnterAutomaticScopeGuardC1ERNS_11EvalContextEPKN5slang3ast5ScopeE
libyosys.so:_ZN14slang_frontend24EnterAutomaticScopeGuardC2ERNS_11EvalContextEPKN5slang3ast5ScopeE
libyosys.so:_ZN14slang_frontend24EnterAutomaticScopeGuardD1Ev
libyosys.so:_ZN14slang_frontend24EnterAutomaticScopeGuardD2Ev
libyosys.so:_ZN14slang_frontend24TimingPatternInterpretor13handle_alwaysERKN5slang3ast21ProceduralBlockSymbolE
libyosys.so:_ZN14slang_frontend24TimingPatternInterpretor23interpret_async_patternERKN5slang3ast21ProceduralBlockSymbolESt6vectorIPKNS2_18SignalEventControlESaIS9_EERKNS2_9StatementE
libyosys.so:_ZN14slang_frontend24TimingPatternInterpretor9interpretERKN5slang3ast21ProceduralBlockSymbolE
libyosys.so:_ZN14slang_frontend24export_blackbox_to_rtlilERNS_14NetlistContextERKN5slang3ast14InstanceSymbolEPN5Yosys5RTLIL6DesignE
libyosys.so:_ZN14slang_frontend24forbidden_diag_demotionsE
libyosys.so:_ZN14slang_frontend26evaluate_decl_initializersERNS_14NetlistContextE
libyosys.so:_ZN14slang_frontend26order_symbols_within_scopeEPKN5slang3ast6SymbolES4_
libyosys.so:_ZN14slang_frontend28RegisterEscapeConstructGuardC1ERNS_17ProceduralContextENS1_11EscapeFrame19EscapeConstructKindEPKN5slang3ast16SubroutineSymbolE
libyosys.so:_ZN14slang_frontend28RegisterEscapeConstructGuardC1ERNS_17ProceduralContextENS1_11EscapeFrame19EscapeConstructKindEPKN5slang3ast9StatementE
libyosys.so:_ZN14slang_frontend28RegisterEscapeConstructGuardC2ERNS_17ProceduralContextENS1_11EscapeFrame19EscapeConstructKindEPKN5slang3ast16SubroutineSymbolE
libyosys.so:_ZN14slang_frontend28RegisterEscapeConstructGuardC2ERNS_17ProceduralContextENS1_11EscapeFrame19EscapeConstructKindEPKN5slang3ast9StatementE
libyosys.so:_ZN14slang_frontend28RegisterEscapeConstructGuardD1Ev
libyosys.so:_ZN14slang_frontend28RegisterEscapeConstructGuardD2Ev
libyosys.so:_ZN14slang_frontend28import_blackboxes_from_rtlilERN5slang13SourceManagerERNS0_3ast11CompilationEPN5Yosys5RTLIL6DesignE
libyosys.so:_ZN14slang_frontend29assign_to_lvalue_with_maskingERKN5slang3ast20AssignmentExpressionERNS_17ProceduralContextERNS_6LValueEN5Yosys5RTLIL7SigSpecESB_b
libyosys.so:_ZN14slang_frontend2idERKSt17basic_string_viewIcSt11char_traitsIcEE
libyosys.so:_ZN14slang_frontend32finalize_variable_initializationERNS_14NetlistContextE
libyosys.so:_ZN14slang_frontend33process_freestanding_sva_propertyERNS_14NetlistContextERKN5slang3ast28ConcurrentAssertionStatementEPKNS3_20StatementBlockSymbolE
libyosys.so:_ZN14slang_frontend4diag12MissingAloadE
libyosys.so:_ZN14slang_frontend4diag13BadMemoryExprE
libyosys.so:_ZN14slang_frontend4diag14IffUnsupportedE
libyosys.so:_ZN14slang_frontend4diag14NoteUsageBlameE
libyosys.so:_ZN14slang_frontend4diag14RefUnsupportedE
libyosys.so:_ZN14slang_frontend4diag14SVAUnsupportedE
libyosys.so:_ZN14slang_frontend4diag14UdpUnsupportedE
libyosys.so:_ZN14slang_frontend4diag14UnsupportedLhsE
libyosys.so:_ZN14slang_frontend4diag14setup_messagesERN5slang16DiagnosticEngineE
libyosys.so:_ZN14slang_frontend4diag15ModportRequiredE
libyosys.so:_ZN14slang_frontend4diag15NoteSignalEventE
libyosys.so:_ZN14slang_frontend4diag15unsynthesizableE
libyosys.so:_ZN14slang_frontend4diag16DeprecatedOptionE
libyosys.so:_ZN14slang_frontend4diag16LatchNotInferredE
libyosys.so:_ZN14slang_frontend4diag17AlwaysFFBadTimingE
libyosys.so:_ZN14slang_frontend4diag17BboxTypeParameterE
libyosys.so:_ZN14slang_frontend4diag17FixedSizeRequiredE
libyosys.so:_ZN14slang_frontend4diag17ForbiddenDemotionE
libyosys.so:_ZN14slang_frontend4diag17GuessingInputPortE
libyosys.so:_ZN14slang_frontend4diag17MemoryNotInferredE
libyosys.so:_ZN14slang_frontend4diag17NoteIgnoreInitialE
libyosys.so:_ZN14slang_frontend4diag17NoteProcessDriverE
libyosys.so:_ZN14slang_frontend4diag18EdgeImplicitMixingE
libyosys.so:_ZN14slang_frontend4diag18GenericTimingUnsynE
libyosys.so:_ZN14slang_frontend4diag18NetTypeUnsupportedE
libyosys.so:_ZN14slang_frontend4diag18NonconstWildcardEqE
libyosys.so:_ZN14slang_frontend4diag18PortCorrespondenceE
libyosys.so:_ZN14slang_frontend4diag18ProgramUnsupportedE
libyosys.so:_ZN14slang_frontend4diag19IfElseAloadMismatchE
libyosys.so:_ZN14slang_frontend4diag19IfElseAloadPolarityE
libyosys.so:_ZN14slang_frontend4diag19MultiPortConversionE
libyosys.so:_ZN14slang_frontend4diag19NoParamsOnUnkBboxesE
libyosys.so:_ZN14slang_frontend4diag19NoteLoopContributesE
libyosys.so:_ZN14slang_frontend4diag19PrimTypeUnsupportedE
libyosys.so:_ZN14slang_frontend4diag19ReadmemFileNotFoundE
libyosys.so:_ZN14slang_frontend4diag20AssertionUnsupportedE
libyosys.so:_ZN14slang_frontend4diag20BboxExportPortWidthsE
libyosys.so:_ZN14slang_frontend4diag20BothEdgesUnsupportedE
libyosys.so:_ZN14slang_frontend4diag20ExpectingIfElseAloadE
libyosys.so:_ZN14slang_frontend4diag20MissingStopConditionE
libyosys.so:_ZN14slang_frontend4diag20MultiportUnsupportedE
libyosys.so:_ZN14slang_frontend4diag20UnrollLimitExhaustedE
libyosys.so:_ZN14slang_frontend4diag21ReadmemBadBinaryDigitE
libyosys.so:_ZN14slang_frontend4diag21ReadmemInvalidAddressE
libyosys.so:_ZN14slang_frontend4diag21UnsupportedSVAFeatureE
libyosys.so:_ZN14slang_frontend4diag21UnsupportedSystemTaskE
libyosys.so:_ZN14slang_frontend4diag22LangFeatureUnsupportedE
libyosys.so:_ZN14slang_frontend4diag22NoIgnoreUnknownModulesE
libyosys.so:_ZN14slang_frontend4diag22NoteDuplicateEdgeSenseE
libyosys.so:_ZN14slang_frontend4diag22NotePreviousAssignmentE
libyosys.so:_ZN14slang_frontend4diag22RepetitionsUnsupportedE
libyosys.so:_ZN14slang_frontend4diag22UnsynthesizableFeatureE
libyosys.so:_ZN14slang_frontend4diag23ArgumentTypeUnsupportedE
libyosys.so:_ZN14slang_frontend4diag23InlinedInOutUnsupportedE
libyosys.so:_ZN14slang_frontend4diag23SVAClockingRequiresEdgeE
libyosys.so:_ZN14slang_frontend4diag24BadInlinedPortConnectionE
libyosys.so:_ZN14slang_frontend4diag24ErrorNonconstantArgumentE
libyosys.so:_ZN14slang_frontend4diag24UnsupportedBitConversionE
libyosys.so:_ZN14slang_frontend4diag24UnsupportedPortDirectionE
libyosys.so:_ZN14slang_frontend4diag24WaitStatementUnsupportedE
libyosys.so:_ZN14slang_frontend4diag25ReadmemWordsRangeMismatchE
libyosys.so:_ZN14slang_frontend4diag26ExpectStatementUnsupportedE
libyosys.so:_ZN14slang_frontend4diag26SignalSensitivityAmbiguousE
libyosys.so:_ZN14slang_frontend4diag27ErrorNonconstantInitialEvalE
libyosys.so:_ZN14slang_frontend4diag27InputPortCannotBeSpecialNetE
libyosys.so:_ZN14slang_frontend4diag28ReadmemAddressOutsideOfRangeE
libyosys.so:_ZN14slang_frontend4diag29PastGatingClockingUnsupportedE
libyosys.so:_ZN14slang_frontend4diag29UnsupportedBlackboxConnectionE
libyosys.so:_ZN14slang_frontend4diag30NoteModuleBlackboxBecauseEmptyE
libyosys.so:_ZN14slang_frontend4diag31ReferenceAcrossKeptHierBoundaryE
libyosys.so:_ZN14slang_frontend4diag33SystemFunctionRequireClockedBlockE
libyosys.so:_ZN14slang_frontend4diag34BlockingAssignmentAfterNonblockingE
libyosys.so:_ZN14slang_frontend4diag34NonblockingAssignmentAfterBlockingE
libyosys.so:_ZN14slang_frontend4diag34NoteModuleBlackboxBecauseAttributeE
libyosys.so:_ZN14slang_frontend4diag34NoteModuleNotDissolvedBecauseInOutE
libyosys.so:_ZN14slang_frontend4diag37NonblockingAssignInInitialUnsupportedE
libyosys.so:_ZN14slang_frontend4diag37NoteModuleNotDissolvedBecauseBlackboxE
libyosys.so:_ZN14slang_frontend4diag40HierarchicalRefOutsideModulesUnsupportedE
libyosys.so:_ZN14slang_frontend4diag42NoteModuleNotDissolvedBecauseKeepHierarchyE
libyosys.so:_ZN14slang_frontend4diag42ReadingNetStateFromInitialBlockUnsupportedE
libyosys.so:_ZN14slang_frontend4diag6sanityE
libyosys.so:_ZN14slang_frontend4diag8AloadOneE
libyosys.so:_ZN14slang_frontend6LValue11memoryWriteENS_8VariableEN5Yosys5RTLIL7SigSpecEm
libyosys.so:_ZN14slang_frontend6LValue11rangeSelectES0_NS_18AddressingResolverEm
libyosys.so:_ZN14slang_frontend6LValue12memberAccessES0_mm
libyosys.so:_ZN14slang_frontend6LValue13concatenationESt6vectorIS0_SaIS0_EE
libyosys.so:_ZN14slang_frontend6LValue14evaluate_vbitsEv
libyosys.so:_ZN14slang_frontend6LValue7analyzeERNS_11EvalContextERKN5slang3ast10ExpressionEb
libyosys.so:_ZN14slang_frontend6LValue8variableENS_8VariableE
libyosys.so:_ZN14slang_frontend6LValue9is_staticEv
libyosys.so:_ZN14slang_frontend6Switch5lowerERNS_14NetlistContextE
libyosys.so:_ZN14slang_frontend6Switch7trivialEv
libyosys.so:_ZN14slang_frontend6Switch8add_caseESt6vectorIN5Yosys5RTLIL7SigSpecESaIS4_EE
libyosys.so:_ZN14slang_frontend6SwitchD1Ev
libyosys.so:_ZN14slang_frontend6SwitchD2Ev
libyosys.so:_ZN14slang_frontend8Variable11escape_flagEi
libyosys.so:_ZN14slang_frontend8Variable11from_symbolEPKN5slang3ast11ValueSymbolEi
libyosys.so:_ZN14slang_frontend8Variable14is_special_netEv
libyosys.so:_ZN14slang_frontend8Variable5dummyEm
libyosys.so:_ZN14slang_frontend8VariableC1ENS0_4KindEPKN5slang3ast11ValueSymbolEi
libyosys.so:_ZN14slang_frontend8VariableC1Ev
libyosys.so:_ZN14slang_frontend8VariableC2ENS0_4KindEPKN5slang3ast11ValueSymbolEi
libyosys.so:_ZN14slang_frontend8VariableC2Ev
libyosys.so:_ZN18BigUnsignedInABaseC1EPKtjt
libyosys.so:_ZN18BigUnsignedInABaseC1ERK11BigUnsignedt
libyosys.so:_ZN18BigUnsignedInABaseC1ERKNSt7__cxx1112basic_stringIcSt11char_traitsIcESaIcEEEt
libyosys.so:_ZN18BigUnsignedInABaseC2EPKtjt
libyosys.so:_ZN18BigUnsignedInABaseC2ERK11BigUnsignedt
libyosys.so:_ZN18BigUnsignedInABaseC2ERKNSt7__cxx1112basic_stringIcSt11char_traitsIcESaIcEEEt
libyosys.so:_ZN19frontend_verilog_yy6parser10yydefgoto_E
libyosys.so:_ZN19frontend_verilog_yy6parser11symbol_nameENS0_11symbol_kind16symbol_kind_typeE
libyosys.so:_ZN19frontend_verilog_yy6parser12syntax_errorD0Ev
libyosys.so:_ZN19frontend_verilog_yy6parser12syntax_errorD1Ev
libyosys.so:_ZN19frontend_verilog_yy6parser12syntax_errorD2Ev
libyosys.so:_ZN19frontend_verilog_yy6parser12yypact_ninf_E
libyosys.so:_ZN19frontend_verilog_yy6parser13yytable_ninf_E
libyosys.so:_ZN19frontend_verilog_yy6parser15set_debug_levelEi
libyosys.so:_ZN19frontend_verilog_yy6parser15yy_lac_discard_EPKc
libyosys.so:_ZN19frontend_verilog_yy6parser16set_debug_streamERSo
libyosys.so:_ZN19frontend_verilog_yy6parser17stack_symbol_typeC1EOS1_
libyosys.so:_ZN19frontend_verilog_yy6parser17stack_symbol_typeC1EsONS0_11symbol_typeE
libyosys.so:_ZN19frontend_verilog_yy6parser17stack_symbol_typeC1Ev
libyosys.so:_ZN19frontend_verilog_yy6parser17stack_symbol_typeC2EOS1_
libyosys.so:_ZN19frontend_verilog_yy6parser17stack_symbol_typeC2EsONS0_11symbol_typeE
libyosys.so:_ZN19frontend_verilog_yy6parser17stack_symbol_typeC2Ev
libyosys.so:_ZN19frontend_verilog_yy6parser17yy_lac_establish_ENS0_11symbol_kind16symbol_kind_typeE
libyosys.so:_ZN19frontend_verilog_yy6parser17yy_lr_goto_state_Esi
libyosys.so:_ZN19frontend_verilog_yy6parser24yy_table_value_is_error_Ei
libyosys.so:_ZN19frontend_verilog_yy6parser25yy_pact_value_is_default_Ei
libyosys.so:_ZN19frontend_verilog_yy6parser5errorERK8LocationRKNSt7__cxx1112basic_stringIcSt11char_traitsIcESaIcEEE
libyosys.so:_ZN19frontend_verilog_yy6parser5errorERKNS0_12syntax_errorE
libyosys.so:_ZN19frontend_verilog_yy6parser5parseEv
libyosys.so:_ZN19frontend_verilog_yy6parser5yyr1_E
libyosys.so:_ZN19frontend_verilog_yy6parser5yyr2_E
libyosys.so:_ZN19frontend_verilog_yy6parser6yypop_Ei
libyosys.so:_ZN19frontend_verilog_yy6parser7contextC1ERKS0_RKNS0_11symbol_typeE
libyosys.so:_ZN19frontend_verilog_yy6parser7contextC2ERKS0_RKNS0_11symbol_typeE
libyosys.so:_ZN19frontend_verilog_yy6parser7yypact_E
libyosys.so:_ZN19frontend_verilog_yy6parser7yypush_EPKcONS0_17stack_symbol_typeE
libyosys.so:_ZN19frontend_verilog_yy6parser7yypush_EPKcsONS0_11symbol_typeE
libyosys.so:_ZN19frontend_verilog_yy6parser7yystos_E
libyosys.so:_ZN19frontend_verilog_yy6parser8by_state4moveERS1_
libyosys.so:_ZN19frontend_verilog_yy6parser8by_state5clearEv
libyosys.so:_ZN19frontend_verilog_yy6parser8by_stateC1ERKS1_
libyosys.so:_ZN19frontend_verilog_yy6parser8by_stateC1Es
libyosys.so:_ZN19frontend_verilog_yy6parser8by_stateC1Ev
libyosys.so:_ZN19frontend_verilog_yy6parser8by_stateC2ERKS1_
libyosys.so:_ZN19frontend_verilog_yy6parser8by_stateC2Es
libyosys.so:_ZN19frontend_verilog_yy6parser8by_stateC2Ev
libyosys.so:_ZN19frontend_verilog_yy6parser8yycheck_E
libyosys.so:_ZN19frontend_verilog_yy6parser8yypgoto_E
libyosys.so:_ZN19frontend_verilog_yy6parser8yyrline_E
libyosys.so:_ZN19frontend_verilog_yy6parser8yytable_E
libyosys.so:_ZN19frontend_verilog_yy6parser9yydefact_E
libyosys.so:_ZN19frontend_verilog_yy6parserC1EPN5Yosys16VERILOG_FRONTEND12VerilogLexerEPNS2_10ParseStateEPNS2_9ParseModeE
libyosys.so:_ZN19frontend_verilog_yy6parserC2EPN5Yosys16VERILOG_FRONTEND12VerilogLexerEPNS2_10ParseStateEPNS2_9ParseModeE
libyosys.so:_ZN19frontend_verilog_yy6parserD0Ev
libyosys.so:_ZN19frontend_verilog_yy6parserD1Ev
libyosys.so:_ZN19frontend_verilog_yy6parserD2Ev
libyosys.so:_ZN19frontend_verilog_yy6parserclEv
libyosys.so:_ZN28frontend_verilog_yyFlexLexer10LexerErrorEPKc
libyosys.so:_ZN28frontend_verilog_yyFlexLexer10LexerInputEPci
libyosys.so:_ZN28frontend_verilog_yyFlexLexer11LexerOutputEPKci
libyosys.so:_ZN28frontend_verilog_yyFlexLexer11ctor_commonEv
libyosys.so:_ZN28frontend_verilog_yyFlexLexer12yy_pop_stateEv
libyosys.so:_ZN28frontend_verilog_yyFlexLexer12yy_top_stateEv
libyosys.so:_ZN28frontend_verilog_yyFlexLexer13yy_push_stateEi
libyosys.so:_ZN28frontend_verilog_yyFlexLexer14switch_streamsEPSiPSo
libyosys.so:_ZN28frontend_verilog_yyFlexLexer14switch_streamsERSiRSo
libyosys.so:_ZN28frontend_verilog_yyFlexLexer14yy_init_bufferEP15yy_buffer_stateRSi
libyosys.so:_ZN28frontend_verilog_yyFlexLexer15yy_flush_bufferEP15yy_buffer_state
libyosys.so:_ZN28frontend_verilog_yyFlexLexer16yy_create_bufferEPSii
libyosys.so:_ZN28frontend_verilog_yyFlexLexer16yy_create_bufferERSii
libyosys.so:_ZN28frontend_verilog_yyFlexLexer16yy_delete_bufferEP15yy_buffer_state
libyosys.so:_ZN28frontend_verilog_yyFlexLexer16yy_try_NUL_transEi
libyosys.so:_ZN28frontend_verilog_yyFlexLexer18yy_get_next_bufferEv
libyosys.so:_ZN28frontend_verilog_yyFlexLexer18yypop_buffer_stateEv
libyosys.so:_ZN28frontend_verilog_yyFlexLexer19yy_switch_to_bufferEP15yy_buffer_state
libyosys.so:_ZN28frontend_verilog_yyFlexLexer19yypush_buffer_stateEP15yy_buffer_state
libyosys.so:_ZN28frontend_verilog_yyFlexLexer20yy_load_buffer_stateEv
libyosys.so:_ZN28frontend_verilog_yyFlexLexer21yy_get_previous_stateEv
libyosys.so:_ZN28frontend_verilog_yyFlexLexer21yyensure_buffer_stackEv
libyosys.so:_ZN28frontend_verilog_yyFlexLexer5yylexEv
libyosys.so:_ZN28frontend_verilog_yyFlexLexer6yywrapEv
libyosys.so:_ZN28frontend_verilog_yyFlexLexer7yyinputEv
libyosys.so:_ZN28frontend_verilog_yyFlexLexer7yyunputEiPc
libyosys.so:_ZN28frontend_verilog_yyFlexLexer9yyrestartEPSi
libyosys.so:_ZN28frontend_verilog_yyFlexLexer9yyrestartERSi
libyosys.so:_ZN28frontend_verilog_yyFlexLexerC1EPSiPSo
libyosys.so:_ZN28frontend_verilog_yyFlexLexerC1ERSiRSo
libyosys.so:_ZN28frontend_verilog_yyFlexLexerC2EPSiPSo
libyosys.so:_ZN28frontend_verilog_yyFlexLexerC2ERSiRSo
libyosys.so:_ZN28frontend_verilog_yyFlexLexerD0Ev
libyosys.so:_ZN28frontend_verilog_yyFlexLexerD1Ev
libyosys.so:_ZN28frontend_verilog_yyFlexLexerD2Ev
libyosys.so:_ZN3fmt3v1211assert_failEPKciS2_
libyosys.so:_ZN3fmt3v1212report_errorEPKc
libyosys.so:_ZN3fmt3v1213vsystem_errorEiNS0_17basic_string_viewIcEENS0_17basic_format_argsINS0_7contextEEE
libyosys.so:_ZN3fmt3v1215vprint_bufferedEP8_IO_FILENS0_17basic_string_viewIcEENS0_17basic_format_argsINS0_7contextEEE
libyosys.so:_ZN3fmt3v1219format_system_errorERNS0_6detail6bufferIcEEiPKc
libyosys.so:_ZN3fmt3v1219report_system_errorEiPKc
libyosys.so:_ZN3fmt3v126detail10vformat_toERNS1_6bufferIcEENS0_17basic_string_viewIcEENS0_17basic_format_argsINS0_7contextEEENS0_10locale_refE
libyosys.so:_ZN3fmt3v126detail12is_printableEj
libyosys.so:_ZN3fmt3v126detail13utf8_to_utf16C1ENS0_17basic_string_viewIcEE
libyosys.so:_ZN3fmt3v126detail13utf8_to_utf16C2ENS0_17basic_string_viewIcEE
libyosys.so:_ZN3fmt3v126detail13write_consoleEiNS0_17basic_string_viewIcEE
libyosys.so:_ZN3fmt3v126detail15do_report_errorEPFvRNS1_6bufferIcEEiPKcEiS6_
libyosys.so:_ZN3fmt3v126detail17format_error_codeERNS1_6bufferIcEEiNS0_17basic_string_viewIcEE
libyosys.so:_ZN3fmt3v126detail5printEP8_IO_FILENS0_17basic_string_viewIcEE
libyosys.so:_ZN3fmt3v126detail8allocateEm
libyosys.so:_ZN3fmt3v126detail9dragonbox16get_cached_powerEi
libyosys.so:_ZN3fmt3v126detail9write_locENS0_14basic_appenderIcEENS0_9loc_valueERKNS0_12format_specsENS0_10locale_refE
libyosys.so:_ZN3fmt3v126vprintENS0_17basic_string_viewIcEENS0_17basic_format_argsINS0_7contextEEE
libyosys.so:_ZN3fmt3v126vprintEP8_IO_FILENS0_17basic_string_viewIcEENS0_17basic_format_argsINS0_7contextEEE
libyosys.so:_ZN3fmt3v127vformatB5cxx11ENS0_17basic_string_viewIcEENS0_17basic_format_argsINS0_7contextEEE
libyosys.so:_ZN3fmt3v128vprintlnEP8_IO_FILENS0_17basic_string_viewIcEENS0_17basic_format_argsINS0_7contextEEE
libyosys.so:_ZN4SHA115buffer_to_blockERKNSt7__cxx1112basic_stringIcSt11char_traitsIcESaIcEEEPj
libyosys.so:_ZN4SHA14readERSiRNSt7__cxx1112basic_stringIcSt11char_traitsIcESaIcEEEm
libyosys.so:_ZN4SHA15finalB5cxx11Ev
libyosys.so:_ZN4SHA15resetEv
libyosys.so:_ZN4SHA16updateERKNSt7__cxx1112basic_stringIcSt11char_traitsIcESaIcEEE
libyosys.so:_ZN4SHA16updateERSi
libyosys.so:_ZN4SHA19from_fileERKNSt7__cxx1112basic_stringIcSt11char_traitsIcESaIcEEE
libyosys.so:_ZN4SHA19transformEPj
libyosys.so:_ZN4SHA1C1Ev
libyosys.so:_ZN4SHA1C2Ev
libyosys.so:_ZN5Yosys10DesignPassE
libyosys.so:_ZN5Yosys10DriveChunk10try_appendERKNS_8DriveBitE
libyosys.so:_ZN5Yosys10DriveChunk10try_appendERKS0_
libyosys.so:_ZN5Yosys10FfTypeDataC1ENS_5RTLIL8IdStringE
libyosys.so:_ZN5Yosys10FfTypeDataC2ENS_5RTLIL8IdStringE
libyosys.so:_ZN5Yosys10Functional12fn_to_stringENS0_2FnE
libyosys.so:_ZN5Yosys10Functional2IR11forward_bufEv
libyosys.so:_ZN5Yosys10Functional2IR11from_moduleEPNS_5RTLIL6ModuleE
libyosys.so:_ZN5Yosys10Functional2IR16topological_sortEv
libyosys.so:_ZN5Yosys10Functional4Node9to_stringB5cxx11Ev
libyosys.so:_ZN5Yosys10Functional4Node9to_stringESt8functionIFNSt7__cxx1112basic_stringIcSt11char_traitsIcESaIcEEES1_EE
libyosys.so:_ZN5Yosys10Functional6Writer10print_implEPKcRSt6vectorISt8functionIFvvEESaIS7_EE
libyosys.so:_ZN5Yosys10LibertyAstD1Ev
libyosys.so:_ZN5Yosys10LibertyAstD2Ev
libyosys.so:_ZN5Yosys10MemLibrary13parse_libraryERKSt6vectorINSt7__cxx1112basic_stringIcSt11char_traitsIcESaIcEEESaIS7_EERKNS_7hashlib4poolIS7_NSC_8hash_opsIS7_EEEE
libyosys.so:_ZN5Yosys10PluginPassE
libyosys.so:_ZN5Yosys10PrettyHelp11get_currentEv
libyosys.so:_ZN5Yosys10PrettyHelpC1Ev
libyosys.so:_ZN5Yosys10PrettyHelpC2Ev
libyosys.so:_ZN5Yosys10PrettyHelpD1Ev
libyosys.so:_ZN5Yosys10PrettyHelpD2Ev
libyosys.so:_ZN5Yosys10PrettyJson10end_objectEv
libyosys.so:_ZN5Yosys10PrettyJson10entry_jsonEPKcRKN6json114JsonE
libyosys.so:_ZN5Yosys10PrettyJson10value_jsonERKN6json114JsonE
libyosys.so:_ZN5Yosys10PrettyJson11begin_arrayEv
libyosys.so:_ZN5Yosys10PrettyJson11begin_valueEv
libyosys.so:_ZN5Yosys10PrettyJson11emit_to_logEv
libyosys.so:_ZN5Yosys10PrettyJson12begin_objectEv
libyosys.so:_ZN5Yosys10PrettyJson13write_to_fileERKNSt7__cxx1112basic_stringIcSt11char_traitsIcESaIcEEE
libyosys.so:_ZN5Yosys10PrettyJson16append_to_stringERNSt7__cxx1112basic_stringIcSt11char_traitsIcESaIcEEE
libyosys.so:_ZN5Yosys10PrettyJson3rawEPKc
libyosys.so:_ZN5Yosys10PrettyJson4lineEb
libyosys.so:_ZN5Yosys10PrettyJson4nameEPKc
libyosys.so:_ZN5Yosys10PrettyJson5flushEv
libyosys.so:_ZN5Yosys10PrettyJson9end_arrayEv
libyosys.so:_ZN5Yosys10PrettyJson9end_valueEv
libyosys.so:_ZN5Yosys10ScriptPass10run_scriptEPNS_5RTLIL6DesignENSt7__cxx1112basic_stringIcSt11char_traitsIcESaIcEEES9_
libyosys.so:_ZN5Yosys10ScriptPass11check_labelENSt7__cxx1112basic_stringIcSt11char_traitsIcESaIcEEES6_
libyosys.so:_ZN5Yosys10ScriptPass11help_scriptEv
libyosys.so:_ZN5Yosys10ScriptPass11run_nocheckENSt7__cxx1112basic_stringIcSt11char_traitsIcESaIcEEES6_
libyosys.so:_ZN5Yosys10ScriptPass3runENSt7__cxx1112basic_stringIcSt11char_traitsIcESaIcEEES6_
libyosys.so:_ZN5Yosys10ThreadPool14work_pool_sizeEiii
libyosys.so:_ZN5Yosys10ThreadPool9pool_sizeEii
libyosys.so:_ZN5Yosys10ThreadPoolC1EiSt8functionIFviEE
libyosys.so:_ZN5Yosys10ThreadPoolC2EiSt8functionIFviEE
libyosys.so:_ZN5Yosys10ThreadPoolD1Ev
libyosys.so:_ZN5Yosys10ThreadPoolD2Ev
libyosys.so:_ZN5Yosys10log_hasherE
libyosys.so:_ZN5Yosys10log_moduleEPNS_5RTLIL6ModuleENSt7__cxx1112basic_stringIcSt11char_traitsIcESaIcEEE
libyosys.so:_ZN5Yosys10log_signalB5cxx11ERKNS_10DriveChunkE
libyosys.so:_ZN5Yosys10log_signalB5cxx11ERKNS_14DriveChunkPortE
libyosys.so:_ZN5Yosys10log_signalB5cxx11ERKNS_14DriveChunkWireE
libyosys.so:_ZN5Yosys10log_signalB5cxx11ERKNS_16DriveChunkMarkerE
libyosys.so:_ZN5Yosys10log_signalB5cxx11ERKNS_5RTLIL7SigSpecEb
libyosys.so:_ZN5Yosys10log_signalB5cxx11ERKNS_9DriveSpecE
libyosys.so:_ZN5Yosys10log_spacerEv
libyosys.so:_ZN5Yosys10next_tokenERNSt7__cxx1112basic_stringIcSt11char_traitsIcESaIcEEEPKcb
libyosys.so:_ZN5Yosys10parse_blifEPNS_5RTLIL6DesignERSiNS0_8IdStringEbbb
libyosys.so:_ZN5Yosys11AigerReader11parse_aigerEv
libyosys.so:_ZN5Yosys11AigerReader12parse_xaigerEv
libyosys.so:_ZN5Yosys11AigerReader12post_processEv
libyosys.so:_ZN5Yosys11AigerReader17parse_aiger_asciiEv
libyosys.so:_ZN5Yosys11AigerReader18parse_aiger_binaryEv
libyosys.so:_ZN5Yosys11AigerReader21createWireIfNotExistsEPNS_5RTLIL6ModuleEj
libyosys.so:_ZN5Yosys11AigerReaderC1EPNS_5RTLIL6DesignERSiNS1_8IdStringES5_NSt7__cxx1112basic_stringIcSt11char_traitsIcESaIcEEEb
libyosys.so:_ZN5Yosys11AigerReaderC2EPNS_5RTLIL6DesignERSiNS1_8IdStringES5_NSt7__cxx1112basic_stringIcSt11char_traitsIcESaIcEEEb
libyosys.so:_ZN5Yosys11HistoryPassE
libyosys.so:_ZN5Yosys11LicensePassE
libyosys.so:_ZN5Yosys11MemContents11clear_rangeEjj
libyosys.so:_ZN5Yosys11MemContents12_range_writeENS_5RTLIL5Const8iteratorERKS2_
libyosys.so:_ZN5Yosys11MemContents14_reserve_rangeEjj
libyosys.so:_ZN5Yosys11MemContents19insert_concatenatedEjRKNS_5RTLIL5ConstE
libyosys.so:_ZN5Yosys11MemContents5checkEv
libyosys.so:_ZN5Yosys11MemContents8iteratorppEv
libyosys.so:_ZN5Yosys11MemContentsC1EPNS_3MemE
libyosys.so:_ZN5Yosys11MemContentsC2EPNS_3MemE
libyosys.so:_ZN5Yosys11ReadWitnessC1ERKNSt7__cxx1112basic_stringIcSt11char_traitsIcESaIcEEE
libyosys.so:_ZN5Yosys11ReadWitnessC2ERKNSt7__cxx1112basic_stringIcSt11char_traitsIcESaIcEEE
libyosys.so:_ZN5Yosys11RpcFrontendE
libyosys.so:_ZN5Yosys11SExprWriter13nl_if_pendingEv
libyosys.so:_ZN5Yosys11SExprWriter4putsESt17basic_string_viewIcSt11char_traitsIcEE
libyosys.so:_ZN5Yosys11SExprWriter5closeEm
libyosys.so:_ZN5Yosys11SExprWriter5printERKNS_5SExprEbb
libyosys.so:_ZN5Yosys11SExprWriter7commentERKNSt7__cxx1112basic_stringIcSt11char_traitsIcESaIcEEEb
libyosys.so:_ZN5Yosys11SExprWriter9check_fitERKNS_5SExprEi
libyosys.so:_ZN5Yosys11SExprWriterD1Ev
libyosys.so:_ZN5Yosys11SExprWriterD2Ev
libyosys.so:_ZN5Yosys11json_importEPNS_5RTLIL6DesignERNSt7__cxx1112basic_stringIcSt11char_traitsIcESaIcEEEPNS_8JsonNodeE
libyosys.so:_ZN5Yosys11load_pluginENSt7__cxx1112basic_stringIcSt11char_traitsIcESaIcEEESt6vectorIS5_SaIS5_EE
libyosys.so:_ZN5Yosys11log_errfileE
libyosys.so:_ZN5Yosys11log_streamsE
libyosys.so:_ZN5Yosys11permute_lutEmRKSt6vectorIiSaIiEE
libyosys.so:_ZN5Yosys11run_backendENSt7__cxx1112basic_stringIcSt11char_traitsIcESaIcEEES5_PNS_5RTLIL6DesignE
libyosys.so:_ZN5Yosys11run_commandERKNSt7__cxx1112basic_stringIcSt11char_traitsIcESaIcEEESt8functionIFvS7_EE
libyosys.so:_ZN5Yosys11yosys_setupEv
libyosys.so:_ZN5Yosys12AST_INTERNAL10flag_nooptE
libyosys.so:_ZN5Yosys12AST_INTERNAL11current_astE
libyosys.so:_ZN5Yosys12AST_INTERNAL11flag_icellsE
libyosys.so:_ZN5Yosys12AST_INTERNAL11flag_pwiresE
libyosys.so:_ZN5Yosys12AST_INTERNAL12flag_mem2regE
libyosys.so:_ZN5Yosys12AST_INTERNAL13current_blockE
libyosys.so:_ZN5Yosys12AST_INTERNAL13current_scopeB5cxx11E
libyosys.so:_ZN5Yosys12AST_INTERNAL13flag_autowireE
libyosys.so:_ZN5Yosys12AST_INTERNAL14current_alwaysE
libyosys.so:_ZN5Yosys12AST_INTERNAL14current_moduleE
libyosys.so:_ZN5Yosys12AST_INTERNAL14flag_dump_ast1E
libyosys.so:_ZN5Yosys12AST_INTERNAL14flag_dump_ast2E
libyosys.so:_ZN5Yosys12AST_INTERNAL14flag_nodisplayE
libyosys.so:_ZN5Yosys12AST_INTERNAL14flag_nolatchesE
libyosys.so:_ZN5Yosys12AST_INTERNAL14flag_nomem2regE
libyosys.so:_ZN5Yosys12AST_INTERNAL14flag_nomeminitE
libyosys.so:_ZN5Yosys12AST_INTERNAL15current_ast_modE
libyosys.so:_ZN5Yosys12AST_INTERNAL15flag_dump_rtlilE
libyosys.so:_ZN5Yosys12AST_INTERNAL15flag_dump_vlog1E
libyosys.so:_ZN5Yosys12AST_INTERNAL15flag_dump_vlog2E
libyosys.so:_ZN5Yosys12AST_INTERNAL15flag_noblackboxE
libyosys.so:_ZN5Yosys12AST_INTERNAL16flag_no_dump_ptrE
libyosys.so:_ZN5Yosys12AST_INTERNAL17current_top_blockE
libyosys.so:_ZN5Yosys12AST_INTERNAL18genRTLIL_subst_ptrE
libyosys.so:_ZN5Yosys12AST_INTERNAL19current_block_childE
libyosys.so:_ZN5Yosys12AST_INTERNAL19current_memwr_countB5cxx11E
libyosys.so:_ZN5Yosys12AST_INTERNAL21current_memwr_visibleB5cxx11E
libyosys.so:_ZN5Yosys12AST_INTERNAL22current_always_clockedE
libyosys.so:_ZN5Yosys12AST_INTERNAL26ignoreThisSignalsInInitialE
libyosys.so:_ZN5Yosys12AST_INTERNAL26process_and_replace_moduleEPNS_5RTLIL6DesignEPNS1_6ModuleEPNS_3AST7AstNodeESt10unique_ptrIS7_St14default_deleteIS7_EE
libyosys.so:_ZN5Yosys12AST_INTERNAL8flag_libE
libyosys.so:_ZN5Yosys12AST_INTERNAL9flag_nowbE
libyosys.so:_ZN5Yosys12BlifFrontendE
libyosys.so:_ZN5Yosys12DeferredLogs5flushEv
libyosys.so:_ZN5Yosys12JsonFrontendE
libyosys.so:_ZN5Yosys12QuickConeSat12importSigBitENS_5RTLIL6SigBitE
libyosys.so:_ZN5Yosys12QuickConeSat15cell_complexityEPNS_5RTLIL4CellE
libyosys.so:_ZN5Yosys12QuickConeSat7prepareEv
libyosys.so:_ZN5Yosys12QuickConeSat9importSigENS_5RTLIL7SigSpecE
libyosys.so:_ZN5Yosys12check_moduleEPNS_5RTLIL6ModuleERNS_26ParallelDispatchThreadPoolE
libyosys.so:_ZN5Yosys12current_passE
libyosys.so:_ZN5Yosys12define_map_t3addERKNSt7__cxx1112basic_stringIcSt11char_traitsIcESaIcEEERKNS_13define_body_tE
libyosys.so:_ZN5Yosys12define_map_t3addERKNSt7__cxx1112basic_stringIcSt11char_traitsIcESaIcEEES8_PKNS_9arg_map_tE
libyosys.so:_ZN5Yosys12define_map_t5clearEv
libyosys.so:_ZN5Yosys12define_map_t5eraseERKNSt7__cxx1112basic_stringIcSt11char_traitsIcESaIcEEE
libyosys.so:_ZN5Yosys12define_map_t5mergeERKS0_
libyosys.so:_ZN5Yosys12define_map_tC1Ev
libyosys.so:_ZN5Yosys12define_map_tC2Ev
libyosys.so:_ZN5Yosys12define_map_tD1Ev
libyosys.so:_ZN5Yosys12define_map_tD2Ev
libyosys.so:_ZN5Yosys12gzip_istream4ibuf4openERKNSt7__cxx1112basic_stringIcSt11char_traitsIcESaIcEEE
libyosys.so:_ZN5Yosys12gzip_istream4ibuf9underflowEv
libyosys.so:_ZN5Yosys12gzip_istream4ibufD0Ev
libyosys.so:_ZN5Yosys12gzip_istream4ibufD1Ev
libyosys.so:_ZN5Yosys12gzip_istream4ibufD2Ev
libyosys.so:_ZN5Yosys12gzip_ostream4obuf4openERKNSt7__cxx1112basic_stringIcSt11char_traitsIcESaIcEEE
libyosys.so:_ZN5Yosys12gzip_ostream4obuf4syncEv
libyosys.so:_ZN5Yosys12gzip_ostream4obufC1Ev
libyosys.so:_ZN5Yosys12gzip_ostream4obufC2Ev
libyosys.so:_ZN5Yosys12gzip_ostream4obufD0Ev
libyosys.so:_ZN5Yosys12gzip_ostream4obufD1Ev
libyosys.so:_ZN5Yosys12gzip_ostream4obufD2Ev
libyosys.so:_ZN5Yosys12header_countE
libyosys.so:_ZN5Yosys12log_id_cacheE
libyosys.so:_ZN5Yosys12log_warningsB5cxx11E
libyosys.so:_ZN5Yosys12memhasher_doEv
libyosys.so:_ZN5Yosys12memhasher_onEv
libyosys.so:_ZN5Yosys12run_frontendENSt7__cxx1112basic_stringIcSt11char_traitsIcESaIcEEES5_PNS_5RTLIL6DesignEPS5_
libyosys.so:_ZN5Yosys12simplemap_ffEPNS_5RTLIL6ModuleEPNS0_4CellE
libyosys.so:_ZN5Yosys12split_tokensERKNSt7__cxx1112basic_stringIcSt11char_traitsIcESaIcEEEPKc
libyosys.so:_ZN5Yosys12uncompressedENSt7__cxx1112basic_stringIcSt11char_traitsIcESaIcEEESt13_Ios_Openmode
libyosys.so:_ZN5Yosys12yosys_bannerEv
libyosys.so:_ZN5Yosys12yosys_designE
libyosys.so:_ZN5Yosys12yosys_xtraceE
libyosys.so:_ZN5Yosys13AigerFrontendE
libyosys.so:_ZN5Yosys13CellmatchPassE
libyosys.so:_ZN5Yosys13FfMergeHelper13find_input_ffENS_5RTLIL7SigSpecERNS_6FfDataERNS_7hashlib4poolISt4pairIPNS1_4CellEiENS5_8hash_opsISA_EEEE
libyosys.so:_ZN5Yosys13FfMergeHelper13mark_input_ffERKNS_7hashlib4poolISt4pairIPNS_5RTLIL4CellEiENS1_8hash_opsIS7_EEEE
libyosys.so:_ZN5Yosys13FfMergeHelper14find_output_ffENS_5RTLIL7SigSpecERNS_6FfDataERNS_7hashlib4poolISt4pairIPNS1_4CellEiENS5_8hash_opsISA_EEEE
libyosys.so:_ZN5Yosys13FfMergeHelper16is_output_unusedENS_5RTLIL7SigSpecE
libyosys.so:_ZN5Yosys13FfMergeHelper16remove_output_ffERKNS_7hashlib4poolISt4pairIPNS_5RTLIL4CellEiENS1_8hash_opsIS7_EEEE
libyosys.so:_ZN5Yosys13FfMergeHelper3setEPNS_10FfInitValsEPNS_5RTLIL6ModuleE
libyosys.so:_ZN5Yosys13FfMergeHelper5clearEv
libyosys.so:_ZN5Yosys13LibertyParser11lexer_innerERNSt7__cxx1112basic_stringIcSt11char_traitsIcESaIcEEE
libyosys.so:_ZN5Yosys13LibertyParser18parse_vector_rangeEi
libyosys.so:_ZN5Yosys13LibertyParser19consume_wrecked_strEiRNSt7__cxx1112basic_stringIcSt11char_traitsIcESaIcEEE
libyosys.so:_ZN5Yosys13LibertyParser23report_unexpected_tokenEi
libyosys.so:_ZN5Yosys13LibertyParser5lexerERNSt7__cxx1112basic_stringIcSt11char_traitsIcESaIcEEE
libyosys.so:_ZN5Yosys13LibertyParser5parseEb
libyosys.so:_ZN5Yosys13RTLILFrontendE
libyosys.so:_ZN5Yosys13RTLIL_BACKEND10dump_constERSoRKNS_5RTLIL5ConstEiib
libyosys.so:_ZN5Yosys13RTLIL_BACKEND11dump_designERSoPNS_5RTLIL6DesignEbbb
libyosys.so:_ZN5Yosys13RTLIL_BACKEND11dump_memoryERSoNSt7__cxx1112basic_stringIcSt11char_traitsIcESaIcEEEPKNS_5RTLIL6MemoryE
libyosys.so:_ZN5Yosys13RTLIL_BACKEND11dump_moduleERSoNSt7__cxx1112basic_stringIcSt11char_traitsIcESaIcEEEPNS_5RTLIL6ModuleEPNS8_6DesignEbbb
libyosys.so:_ZN5Yosys13RTLIL_BACKEND12dump_sigspecERSoRKNS_5RTLIL7SigSpecEb
libyosys.so:_ZN5Yosys13RTLIL_BACKEND13dump_sigchunkERSoRKNS_5RTLIL8SigChunkEb
libyosys.so:_ZN5Yosys13RTLIL_BACKEND14dump_proc_syncERSoNSt7__cxx1112basic_stringIcSt11char_traitsIcESaIcEEEPKNS_5RTLIL8SyncRuleE
libyosys.so:_ZN5Yosys13RTLIL_BACKEND15dump_attributesERSoNSt7__cxx1112basic_stringIcSt11char_traitsIcESaIcEEEPKNS_5RTLIL10AttrObjectE
libyosys.so:_ZN5Yosys13RTLIL_BACKEND16dump_proc_switchERSoNSt7__cxx1112basic_stringIcSt11char_traitsIcESaIcEEEPKNS_5RTLIL10SwitchRuleE
libyosys.so:_ZN5Yosys13RTLIL_BACKEND19dump_proc_case_bodyERSoNSt7__cxx1112basic_stringIcSt11char_traitsIcESaIcEEEPKNS_5RTLIL8CaseRuleE
libyosys.so:_ZN5Yosys13RTLIL_BACKEND9dump_cellERSoNSt7__cxx1112basic_stringIcSt11char_traitsIcESaIcEEEPKNS_5RTLIL4CellE
libyosys.so:_ZN5Yosys13RTLIL_BACKEND9dump_connERSoNSt7__cxx1112basic_stringIcSt11char_traitsIcESaIcEEERKNS_5RTLIL7SigSpecESB_
libyosys.so:_ZN5Yosys13RTLIL_BACKEND9dump_procERSoNSt7__cxx1112basic_stringIcSt11char_traitsIcESaIcEEEPKNS_5RTLIL7ProcessE
libyosys.so:_ZN5Yosys13RTLIL_BACKEND9dump_wireERSoNSt7__cxx1112basic_stringIcSt11char_traitsIcESaIcEEEPKNS_5RTLIL4WireE
libyosys.so:_ZN5Yosys13ScriptCmdPassE
libyosys.so:_ZN5Yosys13already_setupE
libyosys.so:_ZN5Yosys13create_promptEPNS_5RTLIL6DesignEi
libyosys.so:_ZN5Yosys13glob_filenameERKNSt7__cxx1112basic_stringIcSt11char_traitsIcESaIcEEE
libyosys.so:_ZN5Yosys13log_backtraceEPKci
libyosys.so:_ZN5Yosys13log_hdump_allE
libyosys.so:_ZN5Yosys13make_temp_dirENSt7__cxx1112basic_stringIcSt11char_traitsIcESaIcEEE
libyosys.so:_ZN5Yosys13memhasher_offEv
libyosys.so:_ZN5Yosys13memhasher_rngE
libyosys.so:_ZN5Yosys13module_inputsEPNS_5RTLIL6ModuleE
libyosys.so:_ZN5Yosys13new_id_suffixESt17basic_string_viewIcSt11char_traitsIcEEiS3_S3_
libyosys.so:_ZN5Yosys13pass_registerB5cxx11E
libyosys.so:_ZN5Yosys13saved_designsB5cxx11E
libyosys.so:_ZN5Yosys13simplemap_bufEPNS_5RTLIL6ModuleEPNS0_4CellE
libyosys.so:_ZN5Yosys13simplemap_lutEPNS_5RTLIL6ModuleEPNS0_4CellE
libyosys.so:_ZN5Yosys13simplemap_muxEPNS_5RTLIL6ModuleEPNS0_4CellE
libyosys.so:_ZN5Yosys13simplemap_notEPNS_5RTLIL6ModuleEPNS0_4CellE
libyosys.so:_ZN5Yosys13simplemap_posEPNS_5RTLIL6ModuleEPNS0_4CellE
libyosys.so:_ZN5Yosys13simplemap_sopEPNS_5RTLIL6ModuleEPNS0_4CellE
libyosys.so:_ZN5Yosys14CompressorTree16emit_final_adderEPNS_5RTLIL6ModuleENS1_7SigSpecES4_S4_NS0_10FinalAdderE
libyosys.so:_ZN5Yosys14CompressorTree16emit_kogge_stoneEPNS_5RTLIL6ModuleENS1_7SigSpecES4_S4_
libyosys.so:_ZN5Yosys14CompressorTree16pick_final_adderEiiNS0_9FinalModeE
libyosys.so:_ZN5Yosys14CompressorTree16reduce_scheduledEPNS_5RTLIL6ModuleESt6vectorINS0_8DepthSigESaIS5_EEiNS0_8StrategyEPiS9_
libyosys.so:_ZN5Yosys14CompressorTree18emit_compressor_32EPNS_5RTLIL6ModuleENS1_7SigSpecES4_S4_i
libyosys.so:_ZN5Yosys14CompressorTree18emit_compressor_42EPNS_5RTLIL6ModuleENS1_7SigSpecES4_S4_S4_i
libyosys.so:_ZN5Yosys14CompressorTree25generate_partial_productsEPNS_5RTLIL6ModuleENS1_7SigSpecES4_bbi
libyosys.so:_ZN5Yosys14ContentListing10open_usageERKNSt7__cxx1112basic_stringIcSt11char_traitsIcESaIcEEESt15source_location
libyosys.so:_ZN5Yosys14ContentListing11open_optionERKNSt7__cxx1112basic_stringIcSt11char_traitsIcESaIcEEESt15source_location
libyosys.so:_ZN5Yosys14ContentListing5usageERKNSt7__cxx1112basic_stringIcSt11char_traitsIcESaIcEEESt15source_location
libyosys.so:_ZN5Yosys14ContentListing6optionERKNSt7__cxx1112basic_stringIcSt11char_traitsIcESaIcEEES8_St15source_location
libyosys.so:_ZN5Yosys14ContentListing9codeblockERKNSt7__cxx1112basic_stringIcSt11char_traitsIcESaIcEEES8_St15source_location
libyosys.so:_ZN5Yosys14ContentListing9paragraphERKNSt7__cxx1112basic_stringIcSt11char_traitsIcESaIcEEESt15source_location
libyosys.so:_ZN5Yosys14DriveChunkPort10try_appendERKNS_12DriveBitPortE
libyosys.so:_ZN5Yosys14DriveChunkPort10try_appendERKS0_
libyosys.so:_ZN5Yosys14DriveChunkWire10try_appendERKNS_12DriveBitWireE
libyosys.so:_ZN5Yosys14DriveChunkWire10try_appendERKS0_
libyosys.so:_ZN5Yosys14Multithreading7active_E
libyosys.so:_ZN5Yosys14MultithreadingC1Ev
libyosys.so:_ZN5Yosys14MultithreadingC2Ev
libyosys.so:_ZN5Yosys14MultithreadingD1Ev
libyosys.so:_ZN5Yosys14MultithreadingD2Ev
libyosys.so:_ZN5Yosys14SyntPropertiesE
libyosys.so:_ZN5Yosys14VerilogDefinesE
libyosys.so:_ZN5Yosys14append_globbedERSt6vectorINSt7__cxx1112basic_stringIcSt11char_traitsIcESaIcEEESaIS6_EES6_
libyosys.so:_ZN5Yosys14eval_select_opERSt6vectorINS_5RTLIL9SelectionESaIS2_EERKNSt7__cxx1112basic_stringIcSt11char_traitsIcESaIcEEEPNS1_6DesignE
libyosys.so:_ZN5Yosys14loaded_pluginsB5cxx11E
libyosys.so:_ZN5Yosys14log_expect_logB5cxx11E
libyosys.so:_ZN5Yosys14log_last_errorB5cxx11E
libyosys.so:_ZN5Yosys14log_make_debugE
libyosys.so:_ZN5Yosys14log_suppressedEv
libyosys.so:_ZN5Yosys14make_temp_fileENSt7__cxx1112basic_stringIcSt11char_traitsIcESaIcEEE
libyosys.so:_ZN5Yosys14module_outputsEPNS_5RTLIL6ModuleE
libyosys.so:_ZN5Yosys14parse_type_mapERSt3mapINSt7__cxx1112basic_stringIcSt11char_traitsIcESaIcEEESt5tupleIJiibEESt4lessIS6_ESaISt4pairIKS6_S8_EEEPKNS_10LibertyAstE
libyosys.so:_ZN5Yosys14pushed_designsE
libyosys.so:_ZN5Yosys14simplemap_bmuxEPNS_5RTLIL6ModuleEPNS0_4CellE
libyosys.so:_ZN5Yosys14simplemap_eqneEPNS_5RTLIL6ModuleEPNS0_4CellE
libyosys.so:_ZN5Yosys14simplemap_pmuxEPNS_5RTLIL6ModuleEPNS0_4CellE
libyosys.so:_ZN5Yosys14yosys_shutdownEv
libyosys.so:_ZN5Yosys15DesignEqualPassE
libyosys.so:_ZN5Yosys15LibertyAstCache10cached_astERKNSt7__cxx1112basic_stringIcSt11char_traitsIcESaIcEEE
libyosys.so:_ZN5Yosys15LibertyAstCache10parsed_astERKNSt7__cxx1112basic_stringIcSt11char_traitsIcESaIcEEERKSt10shared_ptrIKNS_10LibertyAstEE
libyosys.so:_ZN5Yosys15LibertyAstCache8instanceE
libyosys.so:_ZN5Yosys15LibertyFrontendE
libyosys.so:_ZN5Yosys15SynthPropWorker3runEv
libyosys.so:_ZN5Yosys15SynthPropWorker7tracingEPNS_5RTLIL6ModuleEiRNS_7hashlib4dictIS3_NS_12TrackingItemENS4_8hash_opsIS3_EEEENSt7__cxx1112basic_stringIcSt11char_traitsIcESaIcEEE
libyosys.so:_ZN5Yosys15VERILOG_BACKEND16verilog_keywordsB5cxx11Ev
libyosys.so:_ZN5Yosys15VERILOG_BACKEND21id_is_verilog_escapedERKNSt7__cxx1112basic_stringIcSt11char_traitsIcESaIcEEE
libyosys.so:_ZN5Yosys15VERILOG_BACKEND23char_is_verilog_escapedEc
libyosys.so:_ZN5Yosys15VerilogDefaultsE
libyosys.so:_ZN5Yosys15VerilogFilelistE
libyosys.so:_ZN5Yosys15VerilogFrontendE
libyosys.so:_ZN5Yosys15const_to_mp_intERKNS_5RTLIL5ConstEP6mp_intbb
libyosys.so:_ZN5Yosys15get_base_tmpdirB5cxx11Ev
libyosys.so:_ZN5Yosys15log_force_debugE
libyosys.so:_ZN5Yosys15log_reset_stackEv
libyosys.so:_ZN5Yosys15log_scratchpadsB5cxx11E
libyosys.so:_ZN5Yosys15memhasher_storeE
libyosys.so:_ZN5Yosys15mp_int_to_constEP6mp_intRNS_5RTLIL5ConstEb
libyosys.so:_ZN5Yosys15proc_clean_caseEPNS_5RTLIL8CaseRuleERbRii
libyosys.so:_ZN5Yosys15simplemap_bitopEPNS_5RTLIL6ModuleEPNS0_4CellE
libyosys.so:_ZN5Yosys15simplemap_bwmuxEPNS_5RTLIL6ModuleEPNS0_4CellE
libyosys.so:_ZN5Yosys15simplemap_sliceEPNS_5RTLIL6ModuleEPNS0_4CellE
libyosys.so:_ZN5Yosys15yosys_celltypesE
libyosys.so:_ZN5Yosys15yosys_satsolverE
libyosys.so:_ZN5Yosys16DriveBitMultiple5mergeEONS_8DriveBitE
libyosys.so:_ZN5Yosys16DriveBitMultiple5mergeERKNS_8DriveBitE
libyosys.so:_ZN5Yosys16DriveChunkMarker10try_appendERKNS_14DriveBitMarkerE
libyosys.so:_ZN5Yosys16DriveChunkMarker10try_appendERKS0_
libyosys.so:_ZN5Yosys16MinisatSatSolverE
libyosys.so:_ZN5Yosys16VERILOG_FRONTEND10ParseState13exitTypeScopeEv
libyosys.so:_ZN5Yosys16VERILOG_FRONTEND10ParseState14addTypedefNodeEPNSt7__cxx1112basic_stringIcSt11char_traitsIcESaIcEEESt10unique_ptrINS_3AST7AstNodeESt14default_deleteISB_EE
libyosys.so:_ZN5Yosys16VERILOG_FRONTEND10ParseState14enterTypeScopeEv
libyosys.so:_ZN5Yosys16VERILOG_FRONTEND10ParseState14isInLocalScopeEPKNSt7__cxx1112basic_stringIcSt11char_traitsIcESaIcEEE
libyosys.so:_ZN5Yosys16VERILOG_FRONTEND10ParseState15addIncOrDecExprESt10unique_ptrINS_3AST7AstNodeESt14default_deleteIS4_EES2_INS_7hashlib4dictINS_5RTLIL8IdStringES7_NS8_8hash_opsISB_EEEES5_ISE_EENS3_11AstNodeTypeE8Locationbb
libyosys.so:_ZN5Yosys16VERILOG_FRONTEND10ParseState15addIncOrDecStmtESt10unique_ptrINS_7hashlib4dictINS_5RTLIL8IdStringES2_INS_3AST7AstNodeESt14default_deleteIS8_EENS3_8hash_opsIS6_EEEES9_ISE_EESB_SG_NS7_11AstNodeTypeE8Location
libyosys.so:_ZN5Yosys16VERILOG_FRONTEND10ParseState15addWiretypeNodeEPNSt7__cxx1112basic_stringIcSt11char_traitsIcESaIcEEEPNS_3AST7AstNodeE
libyosys.so:_ZN5Yosys16VERILOG_FRONTEND10ParseState16addAsgnBinopStmtESt10unique_ptrINS_7hashlib4dictINS_5RTLIL8IdStringES2_INS_3AST7AstNodeESt14default_deleteIS8_EENS3_8hash_opsIS6_EEEES9_ISE_EESB_NS7_11AstNodeTypeESB_
libyosys.so:_ZN5Yosys16VERILOG_FRONTEND10ParseState21ensureAsgnExprAllowedE8Locationb
libyosys.so:_ZN5Yosys16VERILOG_FRONTEND10ParseState21rewriteGenForDeclInitEPNS_3AST7AstNodeE
libyosys.so:_ZN5Yosys16VERILOG_FRONTEND10ParseState9pushChildESt10unique_ptrINS_3AST7AstNodeESt14default_deleteIS4_EE
libyosys.so:_ZN5Yosys16VERILOG_FRONTEND10ParseState9saveChildESt10unique_ptrINS_3AST7AstNodeESt14default_deleteIS4_EE
libyosys.so:_ZN5Yosys16VERILOG_FRONTEND11ConstParser11my_strtobinERSt6vectorINS_5RTLIL5StateESaIS4_EEPKciicb
libyosys.so:_ZN5Yosys16VERILOG_FRONTEND11ConstParser18log_maybe_loc_warnENSt7__cxx1112basic_stringIcSt11char_traitsIcESaIcEEE
libyosys.so:_ZN5Yosys16VERILOG_FRONTEND11ConstParser19log_maybe_loc_errorENSt7__cxx1112basic_stringIcSt11char_traitsIcESaIcEEE
libyosys.so:_ZN5Yosys16VERILOG_FRONTEND11ConstParser21my_decimal_div_by_twoERSt6vectorIhSaIhEE
libyosys.so:_ZN5Yosys16VERILOG_FRONTEND11ConstParser8my_ilog2Ei
libyosys.so:_ZN5Yosys16VERILOG_FRONTEND11ConstParser9const2astENSt7__cxx1112basic_stringIcSt11char_traitsIcESaIcEEEcb
libyosys.so:_ZN5Yosys16VERILOG_FRONTEND12VerilogLexer9nextTokenEv
libyosys.so:_ZN5Yosys16VERILOG_FRONTEND20formatted_err_at_locE8LocationNSt7__cxx1112basic_stringIcSt11char_traitsIcESaIcEEE
libyosys.so:_ZN5Yosys16VERILOG_FRONTEND21formatted_warn_at_locE8LocationNSt7__cxx1112basic_stringIcSt11char_traitsIcESaIcEEE
libyosys.so:_ZN5Yosys16add_wire_for_refE8LocationPKNS_5RTLIL4WireERKNSt7__cxx1112basic_stringIcSt11char_traitsIcESaIcEEE
libyosys.so:_ZN5Yosys16already_shutdownE
libyosys.so:_ZN5Yosys16backend_registerB5cxx11E
libyosys.so:_ZN5Yosys16check_accessibleERKNSt7__cxx1112basic_stringIcSt11char_traitsIcESaIcEEEb
libyosys.so:_ZN5Yosys16create_directoryERKNSt7__cxx1112basic_stringIcSt11char_traitsIcESaIcEEE
libyosys.so:_ZN5Yosys16create_id_prefixB5cxx11ESt17basic_string_viewIcSt11char_traitsIcEEiS3_
libyosys.so:_ZN5Yosys16eval_select_argsERKSt6vectorINSt7__cxx1112basic_stringIcSt11char_traitsIcESaIcEEESaIS6_EEPNS_5RTLIL6DesignE
libyosys.so:_ZN5Yosys16is_absolute_pathENSt7__cxx1112basic_stringIcSt11char_traitsIcESaIcEEE
libyosys.so:_ZN5Yosys16log_error_atexitE
libyosys.so:_ZN5Yosys16log_error_stderrE
libyosys.so:_ZN5Yosys16log_expect_errorB5cxx11E
libyosys.so:_ZN5Yosys16log_experimentalERKNSt7__cxx1112basic_stringIcSt11char_traitsIcESaIcEEE
libyosys.so:_ZN5Yosys16log_warn_regexesB5cxx11E
libyosys.so:_ZN5Yosys16memhasher_activeE
libyosys.so:_ZN5Yosys16remove_directoryENSt7__cxx1112basic_stringIcSt11char_traitsIcESaIcEEE
libyosys.so:_ZN5Yosys16rewrite_filenameERNSt7__cxx1112basic_stringIcSt11char_traitsIcESaIcEEE
libyosys.so:_ZN5Yosys16simplemap_concatEPNS_5RTLIL6ModuleEPNS0_4CellE
libyosys.so:_ZN5Yosys16simplemap_logbinEPNS_5RTLIL6ModuleEPNS0_4CellE
libyosys.so:_ZN5Yosys16simplemap_lognotEPNS_5RTLIL6ModuleEPNS0_4CellE
libyosys.so:_ZN5Yosys16simplemap_reduceEPNS_5RTLIL6ModuleEPNS0_4CellE
libyosys.so:_ZN5Yosys16simplemap_tribufEPNS_5RTLIL6ModuleEPNS0_4CellE
libyosys.so:_ZN5Yosys16yosys_get_designEv
libyosys.so:_ZN5Yosys16yosys_sdc_interpE
libyosys.so:_ZN5Yosys16yosys_tcl_interpE
libyosys.so:_ZN5Yosys17LibertyExpression13get_pin_namesERSt13unordered_setINSt7__cxx1112basic_stringIcSt11char_traitsIcESaIcEEESt4hashIS7_ESt8equal_toIS7_ESaIS7_EE
libyosys.so:_ZN5Yosys17LibertyExpression18char_is_nice_binopEc
libyosys.so:_ZN5Yosys17LibertyExpression4evalERSt13unordered_mapINSt7__cxx1112basic_stringIcSt11char_traitsIcESaIcEEEbSt4hashIS7_ESt8equal_toIS7_ESaISt4pairIKS7_bEEE
libyosys.so:_ZN5Yosys17LibertyExpression5parseERNS0_5LexerEi
libyosys.so:_ZN5Yosys17LibertyExpression8is_binopEv
libyosys.so:_ZN5Yosys17LibertyExpression8vlog_strB5cxx11Ev
libyosys.so:_ZN5Yosys17LibertyExpression9sexpr_strB5cxx11Ei
libyosys.so:_ZN5Yosys17check_file_existsERKNSt7__cxx1112basic_stringIcSt11char_traitsIcESaIcEEEb
libyosys.so:_ZN5Yosys17first_queued_passE
libyosys.so:_ZN5Yosys17fixup_source_pathEPKcRKNSt10filesystem7__cxx114pathEPb
libyosys.so:_ZN5Yosys17frontend_registerB5cxx11E
libyosys.so:_ZN5Yosys17log_experimentalsB5cxx11E
libyosys.so:_ZN5Yosys17log_verbose_levelE
libyosys.so:_ZN5Yosys17proc_self_dirnameB5cxx11Ev
libyosys.so:_ZN5Yosys17yosys_input_filesB5cxx11E
libyosys.so:_ZN5Yosys17yosys_version_strE
libyosys.so:_ZN5Yosys18DriveChunkMultiple10try_appendERKNS_16DriveBitMultipleE
libyosys.so:_ZN5Yosys18DriveChunkMultiple10try_appendERKS0_
libyosys.so:_ZN5Yosys18LibertyInputStream18extend_buffer_onceEv
libyosys.so:_ZN5Yosys18LibertyInputStream22extend_buffer_at_leastEm
libyosys.so:_ZN5Yosys18LibertyInputStream8get_coldEv
libyosys.so:_ZN5Yosys18LibertyInputStream9peek_coldEm
libyosys.so:_ZN5Yosys18ModuleHdlnameIndex11index_cellsEv
libyosys.so:_ZN5Yosys18ModuleHdlnameIndex11index_wiresEv
libyosys.so:_ZN5Yosys18ModuleHdlnameIndex13scope_sourcesB5cxx11ENS_6IdTreeINS_10ModuleItemEE6CursorE
libyosys.so:_ZN5Yosys18ModuleHdlnameIndex21index_scopeinfo_cellsEv
libyosys.so:_ZN5Yosys18ModuleHdlnameIndex5indexEv
libyosys.so:_ZN5Yosys18check_is_directoryERKNSt7__cxx1112basic_stringIcSt11char_traitsIcESaIcEEE
libyosys.so:_ZN5Yosys18derive_module_lutsEPNS_5RTLIL6ModuleERSt6vectorImSaImEE
libyosys.so:_ZN5Yosys18format_emit_doubleERNSt7__cxx1112basic_stringIcSt11char_traitsIcESaIcEEESt17basic_string_viewIcS3_EPiNS_15DynamicIntCountEd
libyosys.so:_ZN5Yosys18format_emit_stringERNSt7__cxx1112basic_stringIcSt11char_traitsIcESaIcEEESt17basic_string_viewIcS3_EPiNS_15DynamicIntCountERKS5_
libyosys.so:_ZN5Yosys18init_share_dirnameEv
libyosys.so:_ZN5Yosys18log_abort_internalEPKci
libyosys.so:_ZN5Yosys18log_assert_failureEPKcS1_i
libyosys.so:_ZN5Yosys18log_check_expectedEv
libyosys.so:_ZN5Yosys18log_expect_warningB5cxx11E
libyosys.so:_ZN5Yosys18log_nowarn_regexesB5cxx11E
libyosys.so:_ZN5Yosys18log_quiet_warningsE
libyosys.so:_ZN5Yosys18log_warnings_countE
libyosys.so:_ZN5Yosys18log_werror_regexesB5cxx11E
libyosys.so:_ZN5Yosys18make_packed_structEPNS_3AST7AstNodeERNSt7__cxx1112basic_stringIcSt11char_traitsIcESaIcEEERSt3mapINS_5RTLIL8IdStringESt10unique_ptrIS1_St14default_deleteIS1_EESt4lessISC_ESaISt4pairIKSC_SG_EEE
libyosys.so:_ZN5Yosys18print_proof_failedEv
libyosys.so:_ZN5Yosys18proc_share_dirnameB5cxx11Ev
libyosys.so:_ZN5Yosys18yosys_git_hash_strE
libyosys.so:_ZN5Yosys18yosys_output_filesB5cxx11E
libyosys.so:_ZN5Yosys19log_cmd_error_throwE
libyosys.so:_ZN5Yosys19log_dump_val_workerENS_5RTLIL5StateE
libyosys.so:_ZN5Yosys19log_dump_val_workerENS_5RTLIL7SigSpecE
libyosys.so:_ZN5Yosys19log_dump_val_workerENS_5RTLIL8IdStringE
libyosys.so:_ZN5Yosys19log_formatted_errorENSt7__cxx1112basic_stringIcSt11char_traitsIcESaIcEEE
libyosys.so:_ZN5Yosys19name_from_file_pathENSt7__cxx1112basic_stringIcSt11char_traitsIcESaIcEEE
libyosys.so:_ZN5Yosys19proc_program_prefixB5cxx11Ev
libyosys.so:_ZN5Yosys19try_collect_garbageEv
libyosys.so:_ZN5Yosys19yosys_already_setupEv
libyosys.so:_ZN5Yosys19yosys_maybe_versionEv
libyosys.so:_ZN5Yosys19yosys_share_dirnameB5cxx11E
libyosys.so:_ZN5Yosys20format_emit_char_ptrERNSt7__cxx1112basic_stringIcSt11char_traitsIcESaIcEEESt17basic_string_viewIcS3_EPiNS_15DynamicIntCountEPKc
libyosys.so:_ZN5Yosys20format_emit_idstringERNSt7__cxx1112basic_stringIcSt11char_traitsIcESaIcEEESt17basic_string_viewIcS3_EPiNS_15DynamicIntCountERKNS_5RTLIL8IdStringE
libyosys.so:_ZN5Yosys20format_emit_void_ptrERNSt7__cxx1112basic_stringIcSt11char_traitsIcESaIcEEESt17basic_string_viewIcS3_EPiNS_15DynamicIntCountEPKv
libyosys.so:_ZN5Yosys20log_debug_suppressedE
libyosys.so:_ZN5Yosys20log_formatted_headerEPNS_5RTLIL6DesignESt17basic_string_viewIcSt11char_traitsIcEENSt7__cxx1112basic_stringIcS5_SaIcEEE
libyosys.so:_ZN5Yosys20log_formatted_stringESt17basic_string_viewIcSt11char_traitsIcEENSt7__cxx1112basic_stringIcS2_SaIcEEE
libyosys.so:_ZN5Yosys20log_verific_callbackE
libyosys.so:_ZN5Yosys20report_missing_modelEbPNS_5RTLIL4CellE
libyosys.so:_ZN5Yosys20rmunused_module_initEPNS_5RTLIL6ModuleERNS_26ParallelDispatchThreadPool7SubpoolEb
libyosys.so:_ZN5Yosys20scopeinfo_attributesEPKNS_5RTLIL4CellENS_14ScopeinfoAttrsE
libyosys.so:_ZN5Yosys20yosys_abc_executableB5cxx11E
libyosys.so:_ZN5Yosys20yosys_get_tcl_interpEv
libyosys.so:_ZN5Yosys20yosys_satsolver_listE
libyosys.so:_ZN5Yosys20yosys_write_versionsE
libyosys.so:_ZN5Yosys21format_emit_long_longERNSt7__cxx1112basic_stringIcSt11char_traitsIcESaIcEEESt17basic_string_viewIcS3_EPiNS_15DynamicIntCountEx
libyosys.so:_ZN5Yosys21format_emit_unescapedERNSt7__cxx1112basic_stringIcSt11char_traitsIcESaIcEEESt17basic_string_viewIcS3_E
libyosys.so:_ZN5Yosys21item_range_for_workerEiii
libyosys.so:_ZN5Yosys21json_parse_attr_paramERNS_7hashlib4dictINS_5RTLIL8IdStringENS2_5ConstENS0_8hash_opsIS3_EEEEPNS_8JsonNodeE
libyosys.so:_ZN5Yosys21loaded_plugin_aliasesB5cxx11E
libyosys.so:_ZN5Yosys21loaded_python_pluginsB5cxx11E
libyosys.so:_ZN5Yosys21log_expect_prefix_logB5cxx11E
libyosys.so:_ZN5Yosys21log_formatted_warningESt17basic_string_viewIcSt11char_traitsIcEENSt7__cxx1112basic_stringIcS2_SaIcEEE
libyosys.so:_ZN5Yosys21parent_from_file_pathENSt7__cxx1112basic_stringIcSt11char_traitsIcESaIcEEE
libyosys.so:_ZN5Yosys21rmunused_module_cellsEPNS_5RTLIL6ModuleERNS_26ParallelDispatchThreadPool7SubpoolERNS_15CleanRunContextE
libyosys.so:_ZN5Yosys21simplemap_get_mappersERNS_7hashlib4dictINS_5RTLIL8IdStringEPFvPNS2_6ModuleEPNS2_4CellEENS0_8hash_opsIS3_EEEE
libyosys.so:_ZN5Yosys21yosys_tcl_interp_initEP10Tcl_Interp
libyosys.so:_ZN5Yosys21yosys_tcl_repl_activeE
libyosys.so:_ZN5Yosys22GarbageCollectionGuard11is_enabled_E
libyosys.so:_ZN5Yosys22check_directory_existsERKNSt7__cxx1112basic_stringIcSt11char_traitsIcESaIcEEEb
libyosys.so:_ZN5Yosys22escape_filename_spacesERKNSt7__cxx1112basic_stringIcSt11char_traitsIcESaIcEEE
libyosys.so:_ZN5Yosys22log_expect_no_warningsE
libyosys.so:_ZN5Yosys22remove_temporary_cellsEPNS_5RTLIL6ModuleERNS_26ParallelDispatchThreadPool7SubpoolEb
libyosys.so:_ZN5Yosys22unescape_format_stringB5cxx11ESt17basic_string_viewIcSt11char_traitsIcEE
libyosys.so:_ZN5Yosys23format_emit_string_viewERNSt7__cxx1112basic_stringIcSt11char_traitsIcESaIcEEESt17basic_string_viewIcS3_EPiNS_15DynamicIntCountES8_
libyosys.so:_ZN5Yosys23log_expect_prefix_errorB5cxx11E
libyosys.so:_ZN5Yosys23log_formatted_cmd_errorENSt7__cxx1112basic_stringIcSt11char_traitsIcESaIcEEE
libyosys.so:_ZN5Yosys23log_formatted_file_infoESt17basic_string_viewIcSt11char_traitsIcEEiNSt7__cxx1112basic_stringIcS2_SaIcEEE
libyosys.so:_ZN5Yosys23log_yosys_abort_messageESt17basic_string_viewIcSt11char_traitsIcEEiS3_S3_
libyosys.so:_ZN5Yosys23rmunused_module_signalsEPNS_5RTLIL6ModuleERNS_26ParallelDispatchThreadPool7SubpoolERNS_15CleanRunContextE
libyosys.so:_ZN5Yosys23scopeinfo_get_attributeEPKNS_5RTLIL4CellENS_14ScopeinfoAttrsENS0_8IdStringE
libyosys.so:_ZN5Yosys23scopeinfo_has_attributeEPKNS_5RTLIL4CellENS_14ScopeinfoAttrsENS0_8IdStringE
libyosys.so:_ZN5Yosys23yosys_tcl_activate_replEv
libyosys.so:_ZN5Yosys24frontend_verilog_preprocERSiNSt7__cxx1112basic_stringIcSt11char_traitsIcESaIcEEERKNS_12define_map_tERS7_RKNS1_4listIS6_SaIS6_EEERNS_16VERILOG_FRONTEND10ParseStateERNSG_9ParseModeE
libyosys.so:_ZN5Yosys24handle_extra_select_argsEPNS_4PassERKSt6vectorINSt7__cxx1112basic_stringIcSt11char_traitsIcESaIcEEESaIS8_EEmmPNS_5RTLIL6DesignE
libyosys.so:_ZN5Yosys24init_abc_executable_nameEv
libyosys.so:_ZN5Yosys24log_formatted_file_errorESt17basic_string_viewIcSt11char_traitsIcEEiNSt7__cxx1112basic_stringIcS2_SaIcEEE
libyosys.so:_ZN5Yosys25AbstractCellEdgesDatabase19add_edges_from_cellEPNS_5RTLIL4CellE
libyosys.so:_ZN5Yosys25log_expect_prefix_warningB5cxx11E
libyosys.so:_ZN5Yosys25log_experimentals_ignoredB5cxx11E
libyosys.so:_ZN5Yosys26ParallelDispatchThreadPool10run_workerEi
libyosys.so:_ZN5Yosys26ParallelDispatchThreadPool3runESt8functionIFvRKNS0_6RunCtxEEEi
libyosys.so:_ZN5Yosys26ParallelDispatchThreadPoolC1Ei
libyosys.so:_ZN5Yosys26ParallelDispatchThreadPoolC2Ei
libyosys.so:_ZN5Yosys26ParallelDispatchThreadPoolD1Ev
libyosys.so:_ZN5Yosys26ParallelDispatchThreadPoolD2Ev
libyosys.so:_ZN5Yosys26log_formatted_file_warningESt17basic_string_viewIcSt11char_traitsIcEEiNSt7__cxx1112basic_stringIcS2_SaIcEEE
libyosys.so:_ZN5Yosys26request_garbage_collectionEv
libyosys.so:_ZN5Yosys27json_parse_attr_param_valueEPNS_8JsonNodeE
libyosys.so:_ZN5Yosys27log_warnings_count_noexpectE
libyosys.so:_ZN5Yosys30format_emit_unsigned_long_longERNSt7__cxx1112basic_stringIcSt11char_traitsIcESaIcEEESt17basic_string_viewIcS3_EPiNS_15DynamicIntCountEy
libyosys.so:_ZN5Yosys3AST12find_modportEPNS0_7AstNodeENSt7__cxx1112basic_stringIcSt11char_traitsIcESaIcEEE
libyosys.so:_ZN5Yosys3AST12set_src_attrEPNS_5RTLIL10AttrObjectEPKNS0_7AstNodeE
libyosys.so:_ZN5Yosys3AST13astnode_countEv
libyosys.so:_ZN5Yosys3AST19derived_module_nameENSt7__cxx1112basic_stringIcSt11char_traitsIcESaIcEEERKSt6vectorISt4pairINS_5RTLIL8IdStringENS9_5ConstEESaISC_EE
libyosys.so:_ZN5Yosys3AST22explode_interface_portEPNS0_7AstNodeEPNS_5RTLIL6ModuleENSt7__cxx1112basic_stringIcSt11char_traitsIcESaIcEEES2_
libyosys.so:_ZN5Yosys3AST23split_modport_from_typeENSt7__cxx1112basic_stringIcSt11char_traitsIcESaIcEEE
libyosys.so:_ZN5Yosys3AST27set_simplify_design_contextEPKNS_5RTLIL6DesignE
libyosys.so:_ZN5Yosys3AST55sv_mode_but_global_and_used_for_literally_one_conditionE
libyosys.so:_ZN5Yosys3AST7AstNode11bitsAsConstEi
libyosys.so:_ZN5Yosys3AST7AstNode11bitsAsConstEib
libyosys.so:_ZN5Yosys3AST7AstNode11mkconst_intE8Locationjbi
libyosys.so:_ZN5Yosys3AST7AstNode11mkconst_strE8LocationRKNSt7__cxx1112basic_stringIcSt11char_traitsIcESaIcEEE
libyosys.so:_ZN5Yosys3AST7AstNode11mkconst_strE8LocationRKSt6vectorINS_5RTLIL5StateESaIS5_EE
libyosys.so:_ZN5Yosys3AST7AstNode11realAsConstEi
libyosys.so:_ZN5Yosys3AST7AstNode12detect_latchERKNSt7__cxx1112basic_stringIcSt11char_traitsIcESaIcEEE
libyosys.so:_ZN5Yosys3AST7AstNode12mkconst_bitsE8LocationRKSt6vectorINS_5RTLIL5StateESaIS5_EEb
libyosys.so:_ZN5Yosys3AST7AstNode12mkconst_bitsE8LocationRKSt6vectorINS_5RTLIL5StateESaIS5_EEbb
libyosys.so:_ZN5Yosys3AST7AstNode12mktemp_logicE8LocationRKNSt7__cxx1112basic_stringIcSt11char_traitsIcESaIcEEEPS1_biib
libyosys.so:_ZN5Yosys3AST7AstNode13clone_at_zeroEv
libyosys.so:_ZN5Yosys3AST7AstNode13genWidthRTLILEibPKNS_7hashlib4dictINS_5RTLIL6SigBitES5_NS2_8hash_opsIS5_EEEE
libyosys.so:_ZN5Yosys3AST7AstNode13label_genblksERSt3setINSt7__cxx1112basic_stringIcSt11char_traitsIcESaIcEEESt4lessIS8_ESaIS8_EERi
libyosys.so:_ZN5Yosys3AST7AstNode13mem2reg_checkERNS_7hashlib4poolIPS1_NS2_8hash_opsIS4_EEEE
libyosys.so:_ZN5Yosys3AST7AstNode13processFormatEibimb
libyosys.so:_ZN5Yosys3AST7AstNode14mem2reg_removeERNS_7hashlib4poolIPS1_NS2_8hash_opsIS4_EEEE
libyosys.so:_ZN5Yosys3AST7AstNode15delete_childrenEv
libyosys.so:_ZN5Yosys3AST7AstNode15detectSignWidthERiRbPb
libyosys.so:_ZN5Yosys3AST7AstNode15expand_genblockERKNSt7__cxx1112basic_stringIcSt11char_traitsIcESaIcEEE
libyosys.so:_ZN5Yosys3AST7AstNode15get_tern_choiceEv
libyosys.so:_ZN5Yosys3AST7AstNode16make_index_rangeEPS1_b
libyosys.so:_ZN5Yosys3AST7AstNode17replace_variablesERSt3mapINSt7__cxx1112basic_stringIcSt11char_traitsIcESaIcEEENS1_9varinfo_tESt4lessIS8_ESaISt4pairIKS8_S9_EEEPS1_b
libyosys.so:_ZN5Yosys3AST7AstNode17set_in_param_flagEbb
libyosys.so:_ZN5Yosys3AST7AstNode18annotateTypedEnumsEPS1_
libyosys.so:_ZN5Yosys3AST7AstNode18bitsAsUnsizedConstEi
libyosys.so:_ZN5Yosys3AST7AstNode18get_bool_attributeENS_5RTLIL8IdStringE
libyosys.so:_ZN5Yosys3AST7AstNode18lookup_cell_moduleEv
libyosys.so:_ZN5Yosys3AST7AstNode18set_in_lvalue_flagEbb
libyosys.so:_ZN5Yosys3AST7AstNode19eval_const_functionEPS1_b
libyosys.so:_ZN5Yosys3AST7AstNode20is_simple_const_exprEv
libyosys.so:_ZN5Yosys3AST7AstNode21detectSignWidthWorkerERiRbPb
libyosys.so:_ZN5Yosys3AST7AstNode21fixup_hierarchy_flagsEb
libyosys.so:_ZN5Yosys3AST7AstNode23mem2reg_as_needed_pass1ERNS_7hashlib4dictIPS1_NS2_4poolINSt7__cxx1112basic_stringIcSt11char_traitsIcESaIcEEENS2_8hash_opsISB_EEEENSC_IS4_EEEERNS3_IS4_jSF_EESJ_Rj
libyosys.so:_ZN5Yosys3AST7AstNode23mem2reg_as_needed_pass2ERNS_7hashlib4poolIPS1_NS2_8hash_opsIS4_EEEES4_S4_S4_
libyosys.so:_ZN5Yosys3AST7AstNode25allocateDefaultEnumValuesEv
libyosys.so:_ZN5Yosys3AST7AstNode25has_const_only_constructsEv
libyosys.so:_ZN5Yosys3AST7AstNode36replace_result_wire_name_in_functionERKNSt7__cxx1112basic_stringIcSt11char_traitsIcESaIcEEES9_
libyosys.so:_ZN5Yosys3AST7AstNode5asIntEb
libyosys.so:_ZN5Yosys3AST7AstNode6asRealEb
libyosys.so:_ZN5Yosys3AST7AstNode7meminfoERiS2_S2_
libyosys.so:_ZN5Yosys3AST7AstNode7readmemEbNSt7__cxx1112basic_stringIcSt11char_traitsIcESaIcEEEPS1_iib
libyosys.so:_ZN5Yosys3AST7AstNode8genRTLILEib
libyosys.so:_ZN5Yosys3AST7AstNode8simplifyEbiib
libyosys.so:_ZN5Yosys3AST7AstNodeC1E8LocationNS0_11AstNodeTypeESt10unique_ptrIS1_St14default_deleteIS1_EES7_S7_S7_
libyosys.so:_ZN5Yosys3AST7AstNodeC2E8LocationNS0_11AstNodeTypeESt10unique_ptrIS1_St14default_deleteIS1_EES7_S7_S7_
libyosys.so:_ZN5Yosys3AST7AstNodeD1Ev
libyosys.so:_ZN5Yosys3AST7AstNodeD2Ev
libyosys.so:_ZN5Yosys3AST7BindingC1ENS_5RTLIL8IdStringES3_RKNS0_7AstNodeE
libyosys.so:_ZN5Yosys3AST7BindingC2ENS_5RTLIL8IdStringES3_RKNS0_7AstNodeE
libyosys.so:_ZN5Yosys3AST7processEPNS_5RTLIL6DesignEPNS0_7AstNodeEbbbbbbbbbbbbbbbbbbbbb
libyosys.so:_ZN5Yosys3AST8astnodesE
libyosys.so:_ZN5Yosys3AST8dpi_callE8LocationRKNSt7__cxx1112basic_stringIcSt11char_traitsIcESaIcEEES9_RKSt6vectorIS7_SaIS7_EERKSA_ISt10unique_ptrINS0_7AstNodeESt14default_deleteISG_EESaISJ_EE
libyosys.so:_ZN5Yosys3AST8type2strB5cxx11ENS0_11AstNodeTypeE
libyosys.so:_ZN5Yosys3AST9AstModule13derive_commonB5cxx11EPNS_5RTLIL6DesignERKNS_7hashlib4dictINS2_8IdStringENS2_5ConstENS5_8hash_opsIS7_EEEEPSt10unique_ptrINS0_7AstNodeESt14default_deleteISF_EEb
libyosys.so:_ZN5Yosys3AST9AstModule17expand_interfacesEPNS_5RTLIL6DesignERKNS_7hashlib4dictINS2_8IdStringEPNS2_6ModuleENS5_8hash_opsIS7_EEEE
libyosys.so:_ZN5Yosys3AST9AstModule22reprocess_if_necessaryEPNS_5RTLIL6DesignE
libyosys.so:_ZN5Yosys3AST9AstModule6deriveEPNS_5RTLIL6DesignERKNS_7hashlib4dictINS2_8IdStringENS2_5ConstENS5_8hash_opsIS7_EEEERKNS6_IS7_PNS2_6ModuleESA_EERKNS6_IS7_S7_SA_EEb
libyosys.so:_ZN5Yosys3AST9AstModule6deriveEPNS_5RTLIL6DesignERKNS_7hashlib4dictINS2_8IdStringENS2_5ConstENS5_8hash_opsIS7_EEEEb
libyosys.so:_ZN5Yosys3AigC1EPNS_5RTLIL4CellE
libyosys.so:_ZN5Yosys3AigC2EPNS_5RTLIL4CellE
libyosys.so:_ZN5Yosys3Fmt11parse_rtlilEPKNS_5RTLIL4CellE
libyosys.so:_ZN5Yosys3Fmt13parse_verilogERKSt6vectorINS_13VerilogFmtArgESaIS2_EEbiNS_5RTLIL8IdStringES8_
libyosys.so:_ZN5Yosys3Fmt14append_literalERKNSt7__cxx1112basic_stringIcSt11char_traitsIcESaIcEEE
libyosys.so:_ZN5Yosys3Fmt38apply_verilog_automatic_sizing_and_addERNS_7FmtPartE
libyosys.so:_ZN5Yosys3Mem10widen_prepEi
libyosys.so:_ZN5Yosys3Mem11clear_initsEv
libyosys.so:_ZN5Yosys3Mem12emulate_rdenEiPNS_10FfInitValsE
libyosys.so:_ZN5Yosys3Mem12extract_rdffEiPNS_10FfInitValsE
libyosys.so:_ZN5Yosys3Mem13emulate_resetEibbbPNS_10FfInitValsE
libyosys.so:_ZN5Yosys3Mem13widen_wr_portEii
libyosys.so:_ZN5Yosys3Mem14coalesce_initsEv
libyosys.so:_ZN5Yosys3Mem16emulate_priorityEiiPNS_10FfInitValsE
libyosys.so:_ZN5Yosys3Mem16get_all_memoriesEPNS_5RTLIL6ModuleE
libyosys.so:_ZN5Yosys3Mem16prepare_rd_mergeEiiPNS_10FfInitValsE
libyosys.so:_ZN5Yosys3Mem16prepare_wr_mergeEiiPNS_10FfInitValsE
libyosys.so:_ZN5Yosys3Mem18emulate_read_firstEPNS_10FfInitValsE
libyosys.so:_ZN5Yosys3Mem20emulate_transparencyEiiPNS_10FfInitValsE
libyosys.so:_ZN5Yosys3Mem21emulate_read_first_okEv
libyosys.so:_ZN5Yosys3Mem21get_selected_memoriesEPNS_5RTLIL6ModuleE
libyosys.so:_ZN5Yosys3Mem23emulate_rd_ce_over_srstEi
libyosys.so:_ZN5Yosys3Mem23emulate_rd_srst_over_ceEi
libyosys.so:_ZN5Yosys3Mem4emitEv
libyosys.so:_ZN5Yosys3Mem5checkEv
libyosys.so:_ZN5Yosys3Mem6narrowEv
libyosys.so:_ZN5Yosys3Mem6removeEv
libyosys.so:_ZN5Yosys4Pass10extra_argsESt6vectorINSt7__cxx1112basic_stringIcSt11char_traitsIcESaIcEEESaIS7_EEmPNS_5RTLIL6DesignEb
libyosys.so:_ZN5Yosys4Pass11clear_flagsEv
libyosys.so:_ZN5Yosys4Pass11on_registerEv
libyosys.so:_ZN5Yosys4Pass11on_shutdownEv
libyosys.so:_ZN5Yosys4Pass11pre_executeEv
libyosys.so:_ZN5Yosys4Pass12cmd_log_argsERKSt6vectorINSt7__cxx1112basic_stringIcSt11char_traitsIcESaIcEEESaIS7_EE
libyosys.so:_ZN5Yosys4Pass12post_executeENS0_21pre_post_exec_state_tE
libyosys.so:_ZN5Yosys4Pass12run_registerEv
libyosys.so:_ZN5Yosys4Pass13done_registerEv
libyosys.so:_ZN5Yosys4Pass13init_registerEv
libyosys.so:_ZN5Yosys4Pass14call_on_moduleEPNS_5RTLIL6DesignEPNS1_6ModuleENSt7__cxx1112basic_stringIcSt11char_traitsIcESaIcEEE
libyosys.so:_ZN5Yosys4Pass14call_on_moduleEPNS_5RTLIL6DesignEPNS1_6ModuleESt6vectorINSt7__cxx1112basic_stringIcSt11char_traitsIcESaIcEEESaISC_EE
libyosys.so:_ZN5Yosys4Pass14formatted_helpEv
libyosys.so:_ZN5Yosys4Pass17call_on_selectionEPNS_5RTLIL6DesignERKNS1_9SelectionENSt7__cxx1112basic_stringIcSt11char_traitsIcESaIcEEE
libyosys.so:_ZN5Yosys4Pass17call_on_selectionEPNS_5RTLIL6DesignERKNS1_9SelectionESt6vectorINSt7__cxx1112basic_stringIcSt11char_traitsIcESaIcEEESaISD_EE
libyosys.so:_ZN5Yosys4Pass32subtract_from_current_runtime_nsEl
libyosys.so:_ZN5Yosys4Pass4callEPNS_5RTLIL6DesignENSt7__cxx1112basic_stringIcSt11char_traitsIcESaIcEEE
libyosys.so:_ZN5Yosys4Pass4callEPNS_5RTLIL6DesignESt6vectorINSt7__cxx1112basic_stringIcSt11char_traitsIcESaIcEEESaISA_EE
libyosys.so:_ZN5Yosys4Pass4helpEv
libyosys.so:_ZN5Yosys4Pass9cmd_errorERKSt6vectorINSt7__cxx1112basic_stringIcSt11char_traitsIcESaIcEEESaIS7_EEmS7_
libyosys.so:_ZN5Yosys4PassC2ENSt7__cxx1112basic_stringIcSt11char_traitsIcESaIcEEES6_St15source_location
libyosys.so:_ZN5Yosys4PassD0Ev
libyosys.so:_ZN5Yosys4PassD1Ev
libyosys.so:_ZN5Yosys4PassD2Ev
libyosys.so:_ZN5Yosys5MemWr11compress_enEv
libyosys.so:_ZN5Yosys5MemWr13decompress_enERKSt6vectorIiSaIiEENS_5RTLIL7SigSpecE
libyosys.so:_ZN5Yosys5RTLIL10AttrObject18set_bool_attributeENS0_8IdStringEb
libyosys.so:_ZN5Yosys5RTLIL10AttrObject20set_intvec_attributeENS0_8IdStringERKSt6vectorIiSaIiEE
libyosys.so:_ZN5Yosys5RTLIL10AttrObject20set_string_attributeENS0_8IdStringENSt7__cxx1112basic_stringIcSt11char_traitsIcESaIcEEE
libyosys.so:_ZN5Yosys5RTLIL10AttrObject21add_strpool_attributeENS0_8IdStringERKNS_7hashlib4poolINSt7__cxx1112basic_stringIcSt11char_traitsIcESaIcEEENS3_8hash_opsISA_EEEE
libyosys.so:_ZN5Yosys5RTLIL10AttrObject21set_hdlname_attributeERKSt6vectorINSt7__cxx1112basic_stringIcSt11char_traitsIcESaIcEEESaIS8_EE
libyosys.so:_ZN5Yosys5RTLIL10AttrObject21set_strpool_attributeENS0_8IdStringERKNS_7hashlib4poolINSt7__cxx1112basic_stringIcSt11char_traitsIcESaIcEEENS3_8hash_opsISA_EEEE
libyosys.so:_ZN5Yosys5RTLIL10SwitchRuleD1Ev
libyosys.so:_ZN5Yosys5RTLIL10SwitchRuleD2Ev
libyosys.so:_ZN5Yosys5RTLIL10const_bmuxERKNS0_5ConstES3_
libyosys.so:_ZN5Yosys5RTLIL10const_pmuxERKNS0_5ConstES3_S3_
libyosys.so:_ZN5Yosys5RTLIL10const_sshlERKNS0_5ConstES3_bbi
libyosys.so:_ZN5Yosys5RTLIL10const_sshrERKNS0_5ConstES3_bbi
libyosys.so:_ZN5Yosys5RTLIL10const_xnorERKNS0_5ConstES3_bbi
libyosys.so:_ZN5Yosys5RTLIL11const_bweqxERKNS0_5ConstES3_
libyosys.so:_ZN5Yosys5RTLIL11const_bwmuxERKNS0_5ConstES3_S3_
libyosys.so:_ZN5Yosys5RTLIL11const_demuxERKNS0_5ConstES3_
libyosys.so:_ZN5Yosys5RTLIL11const_shiftERKNS0_5ConstES3_bbi
libyosys.so:_ZN5Yosys5RTLIL12const_shiftxERKNS0_5ConstES3_bbi
libyosys.so:_ZN5Yosys5RTLIL14OwningIdString15collect_garbageEv
libyosys.so:_ZN5Yosys5RTLIL14OwningIdString5gc_nsE
libyosys.so:_ZN5Yosys5RTLIL14OwningIdString8gc_countE
libyosys.so:_ZN5Yosys5RTLIL14const_divfloorERKNS0_5ConstES3_bbi
libyosys.so:_ZN5Yosys5RTLIL14const_logic_orERKNS0_5ConstES3_bbi
libyosys.so:_ZN5Yosys5RTLIL14const_modfloorERKNS0_5ConstES3_bbi
libyosys.so:_ZN5Yosys5RTLIL15const_logic_andERKNS0_5ConstES3_bbi
libyosys.so:_ZN5Yosys5RTLIL15const_logic_notERKNS0_5ConstES3_bbi
libyosys.so:_ZN5Yosys5RTLIL15const_reduce_orERKNS0_5ConstES3_bbi
libyosys.so:_ZN5Yosys5RTLIL16const_reduce_andERKNS0_5ConstES3_bbi
libyosys.so:_ZN5Yosys5RTLIL16const_reduce_xorERKNS0_5ConstES3_bbi
libyosys.so:_ZN5Yosys5RTLIL17const_reduce_boolERKNS0_5ConstES3_bbi
libyosys.so:_ZN5Yosys5RTLIL17const_reduce_xnorERKNS0_5ConstES3_bbi
libyosys.so:_ZN5Yosys5RTLIL21builtin_ff_cell_typesEv
libyosys.so:_ZN5Yosys5RTLIL4Cell10unsetParamENS0_8IdStringE
libyosys.so:_ZN5Yosys5RTLIL4Cell13get_all_cellsEv
libyosys.so:_ZN5Yosys5RTLIL4Cell16fixup_parametersEbb
libyosys.so:_ZN5Yosys5RTLIL4Cell4sortEv
libyosys.so:_ZN5Yosys5RTLIL4Cell5checkEv
libyosys.so:_ZN5Yosys5RTLIL4Cell7setPortENS0_8IdStringENS0_7SigSpecE
libyosys.so:_ZN5Yosys5RTLIL4Cell8setParamENS0_8IdStringENS0_5ConstE
libyosys.so:_ZN5Yosys5RTLIL4Cell9unsetPortENS0_8IdStringE
libyosys.so:_ZN5Yosys5RTLIL4CellC1Ev
libyosys.so:_ZN5Yosys5RTLIL4CellC2Ev
libyosys.so:_ZN5Yosys5RTLIL4CellD1Ev
libyosys.so:_ZN5Yosys5RTLIL4CellD2Ev
libyosys.so:_ZN5Yosys5RTLIL4Wire13get_all_wiresEv
libyosys.so:_ZN5Yosys5RTLIL4WireC1Ev
libyosys.so:_ZN5Yosys5RTLIL4WireC2Ev
libyosys.so:_ZN5Yosys5RTLIL4WireD1Ev
libyosys.so:_ZN5Yosys5RTLIL4WireD2Ev
libyosys.so:_ZN5Yosys5RTLIL5Const11from_stringERKNSt7__cxx1112basic_stringIcSt11char_traitsIcESaIcEEE
libyosys.so:_ZN5Yosys5RTLIL5Const13bits_internalEv
libyosys.so:_ZN5Yosys5RTLIL5Const21bitvectorize_internalEv
libyosys.so:_ZN5Yosys5RTLIL5Const22tag_bare_integer_constERKNSt7__cxx1112basic_stringIcSt11char_traitsIcESaIcEEE
libyosys.so:_ZN5Yosys5RTLIL5Const6appendERKS1_
libyosys.so:_ZN5Yosys5RTLIL5Const7get_strB5cxx11Ev
libyosys.so:_ZN5Yosys5RTLIL5Const8compressEb
libyosys.so:_ZN5Yosys5RTLIL5Const8get_bitsEv
libyosys.so:_ZN5Yosys5RTLIL5ConstC1ENS0_5StateEi
libyosys.so:_ZN5Yosys5RTLIL5ConstC1ENSt7__cxx1112basic_stringIcSt11char_traitsIcESaIcEEE
libyosys.so:_ZN5Yosys5RTLIL5ConstC1EOS1_
libyosys.so:_ZN5Yosys5RTLIL5ConstC1ERKS1_
libyosys.so:_ZN5Yosys5RTLIL5ConstC1ERKSt6vectorIbSaIbEE
libyosys.so:_ZN5Yosys5RTLIL5ConstC1Ex
libyosys.so:_ZN5Yosys5RTLIL5ConstC1Exi
libyosys.so:_ZN5Yosys5RTLIL5ConstC2ENS0_5StateEi
libyosys.so:_ZN5Yosys5RTLIL5ConstC2ENSt7__cxx1112basic_stringIcSt11char_traitsIcESaIcEEE
libyosys.so:_ZN5Yosys5RTLIL5ConstC2EOS1_
libyosys.so:_ZN5Yosys5RTLIL5ConstC2ERKS1_
libyosys.so:_ZN5Yosys5RTLIL5ConstC2ERKSt6vectorIbSaIbEE
libyosys.so:_ZN5Yosys5RTLIL5ConstC2Ex
libyosys.so:_ZN5Yosys5RTLIL5ConstC2Exi
libyosys.so:_ZN5Yosys5RTLIL5ConstD1Ev
libyosys.so:_ZN5Yosys5RTLIL5ConstD2Ev
libyosys.so:_ZN5Yosys5RTLIL5ConstaSERKS1_
libyosys.so:_ZN5Yosys5RTLIL6Design12bufNormalizeEb
libyosys.so:_ZN5Yosys5RTLIL6Design12sort_modulesEv
libyosys.so:_ZN5Yosys5RTLIL6Design13pop_selectionEv
libyosys.so:_ZN5Yosys5RTLIL6Design14push_selectionENS0_9SelectionE
libyosys.so:_ZN5Yosys5RTLIL6Design15get_all_designsEv
libyosys.so:_ZN5Yosys5RTLIL6Design16scratchpad_unsetERKNSt7__cxx1112basic_stringIcSt11char_traitsIcESaIcEEE
libyosys.so:_ZN5Yosys5RTLIL6Design18scratchpad_set_intERKNSt7__cxx1112basic_stringIcSt11char_traitsIcESaIcEEEi
libyosys.so:_ZN5Yosys5RTLIL6Design19push_full_selectionEv
libyosys.so:_ZN5Yosys5RTLIL6Design19scratchpad_set_boolERKNSt7__cxx1112basic_stringIcSt11char_traitsIcESaIcEEEb
libyosys.so:_ZN5Yosys5RTLIL6Design20push_empty_selectionEv
libyosys.so:_ZN5Yosys5RTLIL6Design21scratchpad_set_stringERKNSt7__cxx1112basic_stringIcSt11char_traitsIcESaIcEEES7_
libyosys.so:_ZN5Yosys5RTLIL6Design23push_complete_selectionEv
libyosys.so:_ZN5Yosys5RTLIL6Design3addEPNS0_6ModuleE
libyosys.so:_ZN5Yosys5RTLIL6Design3addEPNS0_7BindingE
libyosys.so:_ZN5Yosys5RTLIL6Design4sortEv
libyosys.so:_ZN5Yosys5RTLIL6Design5checkEv
libyosys.so:_ZN5Yosys5RTLIL6Design6moduleENS0_8IdStringE
libyosys.so:_ZN5Yosys5RTLIL6Design6removeEPNS0_6ModuleE
libyosys.so:_ZN5Yosys5RTLIL6Design6renameEPNS0_6ModuleENS0_8IdStringE
libyosys.so:_ZN5Yosys5RTLIL6Design7modulesEv
libyosys.so:_ZN5Yosys5RTLIL6Design8optimizeEv
libyosys.so:_ZN5Yosys5RTLIL6Design9addModuleENS0_8IdStringE
libyosys.so:_ZN5Yosys5RTLIL6DesignC1Ev
libyosys.so:_ZN5Yosys5RTLIL6DesignC2Ev
libyosys.so:_ZN5Yosys5RTLIL6DesignD1Ev
libyosys.so:_ZN5Yosys5RTLIL6DesignD2Ev
libyosys.so:_ZN5Yosys5RTLIL6Memory15get_all_memorysEv
libyosys.so:_ZN5Yosys5RTLIL6MemoryC1Ev
libyosys.so:_ZN5Yosys5RTLIL6MemoryC2Ev
libyosys.so:_ZN5Yosys5RTLIL6MemoryD1Ev
libyosys.so:_ZN5Yosys5RTLIL6MemoryD2Ev
libyosys.so:_ZN5Yosys5RTLIL6Module10AndnotGateENS0_8IdStringERKNS0_6SigBitES5_RKNSt7__cxx1112basic_stringIcSt11char_traitsIcESaIcEEE
libyosys.so:_ZN5Yosys5RTLIL6Module10ReduceBoolENS0_8IdStringERKNS0_7SigSpecEbRKNSt7__cxx1112basic_stringIcSt11char_traitsIcESaIcEEE
libyosys.so:_ZN5Yosys5RTLIL6Module10ReduceXnorENS0_8IdStringERKNS0_7SigSpecEbRKNSt7__cxx1112basic_stringIcSt11char_traitsIcESaIcEEE
libyosys.so:_ZN5Yosys5RTLIL6Module10addAdlatchENS0_8IdStringERKNS0_7SigSpecES5_S5_S5_NS0_5ConstEbbRKNSt7__cxx1112basic_stringIcSt11char_traitsIcESaIcEEE
libyosys.so:_ZN5Yosys5RTLIL6Module10addAndGateENS0_8IdStringERKNS0_6SigBitES5_S5_RKNSt7__cxx1112basic_stringIcSt11char_traitsIcESaIcEEE
libyosys.so:_ZN5Yosys5RTLIL6Module10addAnyinitENS0_8IdStringERKNS0_7SigSpecES5_RKNSt7__cxx1112basic_stringIcSt11char_traitsIcESaIcEEE
libyosys.so:_ZN5Yosys5RTLIL6Module10addBufGateENS0_8IdStringERKNS0_6SigBitES5_RKNSt7__cxx1112basic_stringIcSt11char_traitsIcESaIcEEE
libyosys.so:_ZN5Yosys5RTLIL6Module10addDffGateENS0_8IdStringERKNS0_7SigSpecES5_S5_bRKNSt7__cxx1112basic_stringIcSt11char_traitsIcESaIcEEE
libyosys.so:_ZN5Yosys5RTLIL6Module10addLogicOrENS0_8IdStringERKNS0_7SigSpecES5_S5_bRKNSt7__cxx1112basic_stringIcSt11char_traitsIcESaIcEEE
libyosys.so:_ZN5Yosys5RTLIL6Module10addMuxGateENS0_8IdStringERKNS0_6SigBitES5_S5_S5_RKNSt7__cxx1112basic_stringIcSt11char_traitsIcESaIcEEE
libyosys.so:_ZN5Yosys5RTLIL6Module10addNorGateENS0_8IdStringERKNS0_6SigBitES5_S5_RKNSt7__cxx1112basic_stringIcSt11char_traitsIcESaIcEEE
libyosys.so:_ZN5Yosys5RTLIL6Module10addNotGateENS0_8IdStringERKNS0_6SigBitES5_RKNSt7__cxx1112basic_stringIcSt11char_traitsIcESaIcEEE
libyosys.so:_ZN5Yosys5RTLIL6Module10addProcessENS0_8IdStringE
libyosys.so:_ZN5Yosys5RTLIL6Module10addProcessENS0_8IdStringEPKNS0_7ProcessE
libyosys.so:_ZN5Yosys5RTLIL6Module10addXorGateENS0_8IdStringERKNS0_6SigBitES5_S5_RKNSt7__cxx1112basic_stringIcSt11char_traitsIcESaIcEEE
libyosys.so:_ZN5Yosys5RTLIL6Module10swap_namesEPNS0_4CellES3_
libyosys.so:_ZN5Yosys5RTLIL6Module10swap_namesEPNS0_4WireES3_
libyosys.so:_ZN5Yosys5RTLIL6Module11OriginalTagENS0_8IdStringERKNSt7__cxx1112basic_stringIcSt11char_traitsIcESaIcEEERKNS0_7SigSpecESA_
libyosys.so:_ZN5Yosys5RTLIL6Module11addAdffGateENS0_8IdStringERKNS0_7SigSpecES5_S5_S5_bbbRKNSt7__cxx1112basic_stringIcSt11char_traitsIcESaIcEEE
libyosys.so:_ZN5Yosys5RTLIL6Module11addAoi3GateENS0_8IdStringERKNS0_6SigBitES5_S5_S5_RKNSt7__cxx1112basic_stringIcSt11char_traitsIcESaIcEEE
libyosys.so:_ZN5Yosys5RTLIL6Module11addAoi4GateENS0_8IdStringERKNS0_6SigBitES5_S5_S5_S5_RKNSt7__cxx1112basic_stringIcSt11char_traitsIcESaIcEEE
libyosys.so:_ZN5Yosys5RTLIL6Module11addDffeGateENS0_8IdStringERKNS0_7SigSpecES5_S5_S5_bbRKNSt7__cxx1112basic_stringIcSt11char_traitsIcESaIcEEE
libyosys.so:_ZN5Yosys5RTLIL6Module11addDivFloorENS0_8IdStringERKNS0_7SigSpecES5_S5_bRKNSt7__cxx1112basic_stringIcSt11char_traitsIcESaIcEEE
libyosys.so:_ZN5Yosys5RTLIL6Module11addDlatchsrENS0_8IdStringERKNS0_7SigSpecES5_S5_S3_S5_bbbRKNSt7__cxx1112basic_stringIcSt11char_traitsIcESaIcEEE
libyosys.so:_ZN5Yosys5RTLIL6Module11addLogicAndENS0_8IdStringERKNS0_7SigSpecES5_S5_bRKNSt7__cxx1112basic_stringIcSt11char_traitsIcESaIcEEE
libyosys.so:_ZN5Yosys5RTLIL6Module11addLogicNotENS0_8IdStringERKNS0_7SigSpecES5_bRKNSt7__cxx1112basic_stringIcSt11char_traitsIcESaIcEEE
libyosys.so:_ZN5Yosys5RTLIL6Module11addModFloorENS0_8IdStringERKNS0_7SigSpecES5_S5_bRKNSt7__cxx1112basic_stringIcSt11char_traitsIcESaIcEEE
libyosys.so:_ZN5Yosys5RTLIL6Module11addNandGateENS0_8IdStringERKNS0_6SigBitES5_S5_RKNSt7__cxx1112basic_stringIcSt11char_traitsIcESaIcEEE
libyosys.so:_ZN5Yosys5RTLIL6Module11addNmuxGateENS0_8IdStringERKNS0_6SigBitES5_S5_S5_RKNSt7__cxx1112basic_stringIcSt11char_traitsIcESaIcEEE
libyosys.so:_ZN5Yosys5RTLIL6Module11addOai3GateENS0_8IdStringERKNS0_6SigBitES5_S5_S5_RKNSt7__cxx1112basic_stringIcSt11char_traitsIcESaIcEEE
libyosys.so:_ZN5Yosys5RTLIL6Module11addOai4GateENS0_8IdStringERKNS0_6SigBitES5_S5_S5_S5_RKNSt7__cxx1112basic_stringIcSt11char_traitsIcESaIcEEE
libyosys.so:_ZN5Yosys5RTLIL6Module11addReduceOrENS0_8IdStringERKNS0_7SigSpecES5_bRKNSt7__cxx1112basic_stringIcSt11char_traitsIcESaIcEEE
libyosys.so:_ZN5Yosys5RTLIL6Module11addSdffGateENS0_8IdStringERKNS0_7SigSpecES5_S5_S5_bbbRKNSt7__cxx1112basic_stringIcSt11char_traitsIcESaIcEEE
libyosys.so:_ZN5Yosys5RTLIL6Module11addXnorGateENS0_8IdStringERKNS0_6SigBitES5_S5_RKNSt7__cxx1112basic_stringIcSt11char_traitsIcESaIcEEE
libyosys.so:_ZN5Yosys5RTLIL6Module11fixup_portsEv
libyosys.so:_ZN5Yosys5RTLIL6Module12addAdffeGateENS0_8IdStringERKNS0_7SigSpecES5_S5_S5_S5_bbbbRKNSt7__cxx1112basic_stringIcSt11char_traitsIcESaIcEEE
libyosys.so:_ZN5Yosys5RTLIL6Module12addAldffGateENS0_8IdStringERKNS0_7SigSpecES5_S5_S5_S5_bbRKNSt7__cxx1112basic_stringIcSt11char_traitsIcESaIcEEE
libyosys.so:_ZN5Yosys5RTLIL6Module12addDffsrGateENS0_8IdStringERKNS0_7SigSpecES5_S5_S3_S5_bbbRKNSt7__cxx1112basic_stringIcSt11char_traitsIcESaIcEEE
libyosys.so:_ZN5Yosys5RTLIL6Module12addOrnotGateENS0_8IdStringERKNS0_6SigBitES5_S5_RKNSt7__cxx1112basic_stringIcSt11char_traitsIcESaIcEEE
libyosys.so:_ZN5Yosys5RTLIL6Module12addReduceAndENS0_8IdStringERKNS0_7SigSpecES5_bRKNSt7__cxx1112basic_stringIcSt11char_traitsIcESaIcEEE
libyosys.so:_ZN5Yosys5RTLIL6Module12addReduceXorENS0_8IdStringERKNS0_7SigSpecES5_bRKNSt7__cxx1112basic_stringIcSt11char_traitsIcESaIcEEE
libyosys.so:_ZN5Yosys5RTLIL6Module12addSdffeGateENS0_8IdStringERKNS0_7SigSpecES5_S5_S5_S5_bbbbRKNSt7__cxx1112basic_stringIcSt11char_traitsIcESaIcEEE
libyosys.so:_ZN5Yosys5RTLIL6Module12bufNormalizeEv
libyosys.so:_ZN5Yosys5RTLIL6Module12makeblackboxEv
libyosys.so:_ZN5Yosys5RTLIL6Module13addAldffeGateENS0_8IdStringERKNS0_7SigSpecES5_S5_S5_S5_S5_bbbRKNSt7__cxx1112basic_stringIcSt11char_traitsIcESaIcEEE
libyosys.so:_ZN5Yosys5RTLIL6Module13addAndnotGateENS0_8IdStringERKNS0_6SigBitES5_S5_RKNSt7__cxx1112basic_stringIcSt11char_traitsIcESaIcEEE
libyosys.so:_ZN5Yosys5RTLIL6Module13addDffsreGateENS0_8IdStringERKNS0_7SigSpecES5_S5_S5_S3_S5_bbbbRKNSt7__cxx1112basic_stringIcSt11char_traitsIcESaIcEEE
libyosys.so:_ZN5Yosys5RTLIL6Module13addDlatchGateENS0_8IdStringERKNS0_7SigSpecES5_S5_bRKNSt7__cxx1112basic_stringIcSt11char_traitsIcESaIcEEE
libyosys.so:_ZN5Yosys5RTLIL6Module13addReduceBoolENS0_8IdStringERKNS0_7SigSpecES5_bRKNSt7__cxx1112basic_stringIcSt11char_traitsIcESaIcEEE
libyosys.so:_ZN5Yosys5RTLIL6Module13addReduceXnorENS0_8IdStringERKNS0_7SigSpecES5_bRKNSt7__cxx1112basic_stringIcSt11char_traitsIcESaIcEEE
libyosys.so:_ZN5Yosys5RTLIL6Module13addSdffceGateENS0_8IdStringERKNS0_7SigSpecES5_S5_S5_S5_bbbbRKNSt7__cxx1112basic_stringIcSt11char_traitsIcESaIcEEE
libyosys.so:_ZN5Yosys5RTLIL6Module14addAdlatchGateENS0_8IdStringERKNS0_7SigSpecES5_S5_S5_bbbRKNSt7__cxx1112basic_stringIcSt11char_traitsIcESaIcEEE
libyosys.so:_ZN5Yosys5RTLIL6Module15addDlatchsrGateENS0_8IdStringERKNS0_7SigSpecES5_S5_S3_S5_bbbRKNSt7__cxx1112basic_stringIcSt11char_traitsIcESaIcEEE
libyosys.so:_ZN5Yosys5RTLIL6Module15addOverwriteTagENS0_8IdStringERKNSt7__cxx1112basic_stringIcSt11char_traitsIcESaIcEEERKNS0_7SigSpecESD_SD_SA_
libyosys.so:_ZN5Yosys5RTLIL6Module15get_all_modulesEv
libyosys.so:_ZN5Yosys5RTLIL6Module15new_connectionsERKSt6vectorISt4pairINS0_7SigSpecES4_ESaIS5_EE
libyosys.so:_ZN5Yosys5RTLIL6Module17expand_interfacesEPNS0_6DesignERKNS_7hashlib4dictINS0_8IdStringEPS1_NS4_8hash_opsIS6_EEEE
libyosys.so:_ZN5Yosys5RTLIL6Module22reprocess_if_necessaryEPNS0_6DesignE
libyosys.so:_ZN5Yosys5RTLIL6Module2EqENS0_8IdStringERKNS0_7SigSpecES5_bRKNSt7__cxx1112basic_stringIcSt11char_traitsIcESaIcEEE
libyosys.so:_ZN5Yosys5RTLIL6Module2GeENS0_8IdStringERKNS0_7SigSpecES5_bRKNSt7__cxx1112basic_stringIcSt11char_traitsIcESaIcEEE
libyosys.so:_ZN5Yosys5RTLIL6Module2GtENS0_8IdStringERKNS0_7SigSpecES5_bRKNSt7__cxx1112basic_stringIcSt11char_traitsIcESaIcEEE
libyosys.so:_ZN5Yosys5RTLIL6Module2LeENS0_8IdStringERKNS0_7SigSpecES5_bRKNSt7__cxx1112basic_stringIcSt11char_traitsIcESaIcEEE
libyosys.so:_ZN5Yosys5RTLIL6Module2LtENS0_8IdStringERKNS0_7SigSpecES5_bRKNSt7__cxx1112basic_stringIcSt11char_traitsIcESaIcEEE
libyosys.so:_ZN5Yosys5RTLIL6Module2NeENS0_8IdStringERKNS0_7SigSpecES5_bRKNSt7__cxx1112basic_stringIcSt11char_traitsIcESaIcEEE
libyosys.so:_ZN5Yosys5RTLIL6Module2OrENS0_8IdStringERKNS0_7SigSpecES5_bRKNSt7__cxx1112basic_stringIcSt11char_traitsIcESaIcEEE
libyosys.so:_ZN5Yosys5RTLIL6Module3AddENS0_8IdStringERKNS0_7SigSpecES5_bRKNSt7__cxx1112basic_stringIcSt11char_traitsIcESaIcEEE
libyosys.so:_ZN5Yosys5RTLIL6Module3AndENS0_8IdStringERKNS0_7SigSpecES5_bRKNSt7__cxx1112basic_stringIcSt11char_traitsIcESaIcEEE
libyosys.so:_ZN5Yosys5RTLIL6Module3BufENS0_8IdStringERKNS0_7SigSpecEbRKNSt7__cxx1112basic_stringIcSt11char_traitsIcESaIcEEE
libyosys.so:_ZN5Yosys5RTLIL6Module3DivENS0_8IdStringERKNS0_7SigSpecES5_bRKNSt7__cxx1112basic_stringIcSt11char_traitsIcESaIcEEE
libyosys.so:_ZN5Yosys5RTLIL6Module3EqxENS0_8IdStringERKNS0_7SigSpecES5_bRKNSt7__cxx1112basic_stringIcSt11char_traitsIcESaIcEEE
libyosys.so:_ZN5Yosys5RTLIL6Module3ModENS0_8IdStringERKNS0_7SigSpecES5_bRKNSt7__cxx1112basic_stringIcSt11char_traitsIcESaIcEEE
libyosys.so:_ZN5Yosys5RTLIL6Module3MulENS0_8IdStringERKNS0_7SigSpecES5_bRKNSt7__cxx1112basic_stringIcSt11char_traitsIcESaIcEEE
libyosys.so:_ZN5Yosys5RTLIL6Module3MuxENS0_8IdStringERKNS0_7SigSpecES5_S5_RKNSt7__cxx1112basic_stringIcSt11char_traitsIcESaIcEEE
libyosys.so:_ZN5Yosys5RTLIL6Module3NegENS0_8IdStringERKNS0_7SigSpecEbRKNSt7__cxx1112basic_stringIcSt11char_traitsIcESaIcEEE
libyosys.so:_ZN5Yosys5RTLIL6Module3NexENS0_8IdStringERKNS0_7SigSpecES5_bRKNSt7__cxx1112basic_stringIcSt11char_traitsIcESaIcEEE
libyosys.so:_ZN5Yosys5RTLIL6Module3NotENS0_8IdStringERKNS0_7SigSpecEbRKNSt7__cxx1112basic_stringIcSt11char_traitsIcESaIcEEE
libyosys.so:_ZN5Yosys5RTLIL6Module3PosENS0_8IdStringERKNS0_7SigSpecEbRKNSt7__cxx1112basic_stringIcSt11char_traitsIcESaIcEEE
libyosys.so:_ZN5Yosys5RTLIL6Module3ShlENS0_8IdStringERKNS0_7SigSpecES5_bRKNSt7__cxx1112basic_stringIcSt11char_traitsIcESaIcEEE
libyosys.so:_ZN5Yosys5RTLIL6Module3ShrENS0_8IdStringERKNS0_7SigSpecES5_bRKNSt7__cxx1112basic_stringIcSt11char_traitsIcESaIcEEE
libyosys.so:_ZN5Yosys5RTLIL6Module3SubENS0_8IdStringERKNS0_7SigSpecES5_bRKNSt7__cxx1112basic_stringIcSt11char_traitsIcESaIcEEE
libyosys.so:_ZN5Yosys5RTLIL6Module3XorENS0_8IdStringERKNS0_7SigSpecES5_bRKNSt7__cxx1112basic_stringIcSt11char_traitsIcESaIcEEE
libyosys.so:_ZN5Yosys5RTLIL6Module3addEPNS0_4CellE
libyosys.so:_ZN5Yosys5RTLIL6Module3addEPNS0_4WireE
libyosys.so:_ZN5Yosys5RTLIL6Module3addEPNS0_7BindingE
libyosys.so:_ZN5Yosys5RTLIL6Module3addEPNS0_7ProcessE
libyosys.so:_ZN5Yosys5RTLIL6Module4BmuxENS0_8IdStringERKNS0_7SigSpecES5_RKNSt7__cxx1112basic_stringIcSt11char_traitsIcESaIcEEE
libyosys.so:_ZN5Yosys5RTLIL6Module4PmuxENS0_8IdStringERKNS0_7SigSpecES5_S5_RKNSt7__cxx1112basic_stringIcSt11char_traitsIcESaIcEEE
libyosys.so:_ZN5Yosys5RTLIL6Module4SshlENS0_8IdStringERKNS0_7SigSpecES5_bRKNSt7__cxx1112basic_stringIcSt11char_traitsIcESaIcEEE
libyosys.so:_ZN5Yosys5RTLIL6Module4SshrENS0_8IdStringERKNS0_7SigSpecES5_bRKNSt7__cxx1112basic_stringIcSt11char_traitsIcESaIcEEE
libyosys.so:_ZN5Yosys5RTLIL6Module4XnorENS0_8IdStringERKNS0_7SigSpecES5_bRKNSt7__cxx1112basic_stringIcSt11char_traitsIcESaIcEEE
libyosys.so:_ZN5Yosys5RTLIL6Module4sortEv
libyosys.so:_ZN5Yosys5RTLIL6Module5BweqxENS0_8IdStringERKNS0_7SigSpecES5_RKNSt7__cxx1112basic_stringIcSt11char_traitsIcESaIcEEE
libyosys.so:_ZN5Yosys5RTLIL6Module5BwmuxENS0_8IdStringERKNS0_7SigSpecES5_S5_RKNSt7__cxx1112basic_stringIcSt11char_traitsIcESaIcEEE
libyosys.so:_ZN5Yosys5RTLIL6Module5DemuxENS0_8IdStringERKNS0_7SigSpecES5_RKNSt7__cxx1112basic_stringIcSt11char_traitsIcESaIcEEE
libyosys.so:_ZN5Yosys5RTLIL6Module5ShiftENS0_8IdStringERKNS0_7SigSpecES5_bRKNSt7__cxx1112basic_stringIcSt11char_traitsIcESaIcEEE
libyosys.so:_ZN5Yosys5RTLIL6Module5addEqENS0_8IdStringERKNS0_7SigSpecES5_S5_bRKNSt7__cxx1112basic_stringIcSt11char_traitsIcESaIcEEE
libyosys.so:_ZN5Yosys5RTLIL6Module5addFaENS0_8IdStringERKNS0_7SigSpecES5_S5_S5_S5_RKNSt7__cxx1112basic_stringIcSt11char_traitsIcESaIcEEE
libyosys.so:_ZN5Yosys5RTLIL6Module5addFfENS0_8IdStringERKNS0_7SigSpecES5_RKNSt7__cxx1112basic_stringIcSt11char_traitsIcESaIcEEE
libyosys.so:_ZN5Yosys5RTLIL6Module5addGeENS0_8IdStringERKNS0_7SigSpecES5_S5_bRKNSt7__cxx1112basic_stringIcSt11char_traitsIcESaIcEEE
libyosys.so:_ZN5Yosys5RTLIL6Module5addGtENS0_8IdStringERKNS0_7SigSpecES5_S5_bRKNSt7__cxx1112basic_stringIcSt11char_traitsIcESaIcEEE
libyosys.so:_ZN5Yosys5RTLIL6Module5addLeENS0_8IdStringERKNS0_7SigSpecES5_S5_bRKNSt7__cxx1112basic_stringIcSt11char_traitsIcESaIcEEE
libyosys.so:_ZN5Yosys5RTLIL6Module5addLtENS0_8IdStringERKNS0_7SigSpecES5_S5_bRKNSt7__cxx1112basic_stringIcSt11char_traitsIcESaIcEEE
libyosys.so:_ZN5Yosys5RTLIL6Module5addNeENS0_8IdStringERKNS0_7SigSpecES5_S5_bRKNSt7__cxx1112basic_stringIcSt11char_traitsIcESaIcEEE
libyosys.so:_ZN5Yosys5RTLIL6Module5addOrENS0_8IdStringERKNS0_7SigSpecES5_S5_bRKNSt7__cxx1112basic_stringIcSt11char_traitsIcESaIcEEE
libyosys.so:_ZN5Yosys5RTLIL6Module5addSrENS0_8IdStringERKNS0_7SigSpecES5_S5_bbRKNSt7__cxx1112basic_stringIcSt11char_traitsIcESaIcEEE
libyosys.so:_ZN5Yosys5RTLIL6Module5checkEv
libyosys.so:_ZN5Yosys5RTLIL6Module6AllseqENS0_8IdStringEiRKNSt7__cxx1112basic_stringIcSt11char_traitsIcESaIcEEE
libyosys.so:_ZN5Yosys5RTLIL6Module6AnyseqENS0_8IdStringEiRKNSt7__cxx1112basic_stringIcSt11char_traitsIcESaIcEEE
libyosys.so:_ZN5Yosys5RTLIL6Module6GetTagENS0_8IdStringERKNSt7__cxx1112basic_stringIcSt11char_traitsIcESaIcEEERKNS0_7SigSpecESA_
libyosys.so:_ZN5Yosys5RTLIL6Module6OrGateENS0_8IdStringERKNS0_6SigBitES5_RKNSt7__cxx1112basic_stringIcSt11char_traitsIcESaIcEEE
libyosys.so:_ZN5Yosys5RTLIL6Module6SetTagENS0_8IdStringERKNSt7__cxx1112basic_stringIcSt11char_traitsIcESaIcEEERKNS0_7SigSpecESD_SD_SA_
libyosys.so:_ZN5Yosys5RTLIL6Module6ShiftxENS0_8IdStringERKNS0_7SigSpecES5_bRKNSt7__cxx1112basic_stringIcSt11char_traitsIcESaIcEEE
libyosys.so:_ZN5Yosys5RTLIL6Module6addAddENS0_8IdStringERKNS0_7SigSpecES5_S5_bRKNSt7__cxx1112basic_stringIcSt11char_traitsIcESaIcEEE
libyosys.so:_ZN5Yosys5RTLIL6Module6addAndENS0_8IdStringERKNS0_7SigSpecES5_S5_bRKNSt7__cxx1112basic_stringIcSt11char_traitsIcESaIcEEE
libyosys.so:_ZN5Yosys5RTLIL6Module6addBufENS0_8IdStringERKNS0_7SigSpecES5_bRKNSt7__cxx1112basic_stringIcSt11char_traitsIcESaIcEEE
libyosys.so:_ZN5Yosys5RTLIL6Module6addDffENS0_8IdStringERKNS0_7SigSpecES5_S5_bRKNSt7__cxx1112basic_stringIcSt11char_traitsIcESaIcEEE
libyosys.so:_ZN5Yosys5RTLIL6Module6addDivENS0_8IdStringERKNS0_7SigSpecES5_S5_bRKNSt7__cxx1112basic_stringIcSt11char_traitsIcESaIcEEE
libyosys.so:_ZN5Yosys5RTLIL6Module6addEqxENS0_8IdStringERKNS0_7SigSpecES5_S5_bRKNSt7__cxx1112basic_stringIcSt11char_traitsIcESaIcEEE
libyosys.so:_ZN5Yosys5RTLIL6Module6addLutENS0_8IdStringERKNS0_7SigSpecES5_NS0_5ConstERKNSt7__cxx1112basic_stringIcSt11char_traitsIcESaIcEEE
libyosys.so:_ZN5Yosys5RTLIL6Module6addModENS0_8IdStringERKNS0_7SigSpecES5_S5_bRKNSt7__cxx1112basic_stringIcSt11char_traitsIcESaIcEEE
libyosys.so:_ZN5Yosys5RTLIL6Module6addMulENS0_8IdStringERKNS0_7SigSpecES5_S5_bRKNSt7__cxx1112basic_stringIcSt11char_traitsIcESaIcEEE
libyosys.so:_ZN5Yosys5RTLIL6Module6addMuxENS0_8IdStringERKNS0_7SigSpecES5_S5_S5_RKNSt7__cxx1112basic_stringIcSt11char_traitsIcESaIcEEE
libyosys.so:_ZN5Yosys5RTLIL6Module6addNegENS0_8IdStringERKNS0_7SigSpecES5_bRKNSt7__cxx1112basic_stringIcSt11char_traitsIcESaIcEEE
libyosys.so:_ZN5Yosys5RTLIL6Module6addNexENS0_8IdStringERKNS0_7SigSpecES5_S5_bRKNSt7__cxx1112basic_stringIcSt11char_traitsIcESaIcEEE
libyosys.so:_ZN5Yosys5RTLIL6Module6addNotENS0_8IdStringERKNS0_7SigSpecES5_bRKNSt7__cxx1112basic_stringIcSt11char_traitsIcESaIcEEE
libyosys.so:_ZN5Yosys5RTLIL6Module6addPosENS0_8IdStringERKNS0_7SigSpecES5_bRKNSt7__cxx1112basic_stringIcSt11char_traitsIcESaIcEEE
libyosys.so:_ZN5Yosys5RTLIL6Module6addPowENS0_8IdStringERKNS0_7SigSpecES5_S5_bbRKNSt7__cxx1112basic_stringIcSt11char_traitsIcESaIcEEE
libyosys.so:_ZN5Yosys5RTLIL6Module6addShlENS0_8IdStringERKNS0_7SigSpecES5_S5_bRKNSt7__cxx1112basic_stringIcSt11char_traitsIcESaIcEEE
libyosys.so:_ZN5Yosys5RTLIL6Module6addShrENS0_8IdStringERKNS0_7SigSpecES5_S5_bRKNSt7__cxx1112basic_stringIcSt11char_traitsIcESaIcEEE
libyosys.so:_ZN5Yosys5RTLIL6Module6addSubENS0_8IdStringERKNS0_7SigSpecES5_S5_bRKNSt7__cxx1112basic_stringIcSt11char_traitsIcESaIcEEE
libyosys.so:_ZN5Yosys5RTLIL6Module6addXorENS0_8IdStringERKNS0_7SigSpecES5_S5_bRKNSt7__cxx1112basic_stringIcSt11char_traitsIcESaIcEEE
libyosys.so:_ZN5Yosys5RTLIL6Module6deriveEPNS0_6DesignERKNS_7hashlib4dictINS0_8IdStringENS0_5ConstENS4_8hash_opsIS6_EEEERKNS5_IS6_PS1_S9_EERKNS5_IS6_S6_S9_EEb
libyosys.so:_ZN5Yosys5RTLIL6Module6deriveEPNS0_6DesignERKNS_7hashlib4dictINS0_8IdStringENS0_5ConstENS4_8hash_opsIS6_EEEEb
libyosys.so:_ZN5Yosys5RTLIL6Module6removeEPNS0_4CellE
libyosys.so:_ZN5Yosys5RTLIL6Module6removeEPNS0_6MemoryE
libyosys.so:_ZN5Yosys5RTLIL6Module6removeEPNS0_7ProcessE
libyosys.so:_ZN5Yosys5RTLIL6Module6removeERKNS_7hashlib4poolIPNS0_4WireENS2_8hash_opsIS5_EEEE
libyosys.so:_ZN5Yosys5RTLIL6Module6renameENS0_8IdStringES2_
libyosys.so:_ZN5Yosys5RTLIL6Module6renameEPNS0_4CellENS0_8IdStringE
libyosys.so:_ZN5Yosys5RTLIL6Module6renameEPNS0_4WireENS0_8IdStringE
libyosys.so:_ZN5Yosys5RTLIL6Module7AndGateENS0_8IdStringERKNS0_6SigBitES5_RKNSt7__cxx1112basic_stringIcSt11char_traitsIcESaIcEEE
libyosys.so:_ZN5Yosys5RTLIL6Module7BufGateENS0_8IdStringERKNS0_6SigBitERKNSt7__cxx1112basic_stringIcSt11char_traitsIcESaIcEEE
libyosys.so:_ZN5Yosys5RTLIL6Module7LogicOrENS0_8IdStringERKNS0_7SigSpecES5_bRKNSt7__cxx1112basic_stringIcSt11char_traitsIcESaIcEEE
libyosys.so:_ZN5Yosys5RTLIL6Module7MuxGateENS0_8IdStringERKNS0_6SigBitES5_S5_RKNSt7__cxx1112basic_stringIcSt11char_traitsIcESaIcEEE
libyosys.so:_ZN5Yosys5RTLIL6Module7NorGateENS0_8IdStringERKNS0_6SigBitES5_RKNSt7__cxx1112basic_stringIcSt11char_traitsIcESaIcEEE
libyosys.so:_ZN5Yosys5RTLIL6Module7NotGateENS0_8IdStringERKNS0_6SigBitERKNSt7__cxx1112basic_stringIcSt11char_traitsIcESaIcEEE
libyosys.so:_ZN5Yosys5RTLIL6Module7XorGateENS0_8IdStringERKNS0_6SigBitES5_RKNSt7__cxx1112basic_stringIcSt11char_traitsIcESaIcEEE
libyosys.so:_ZN5Yosys5RTLIL6Module7addAdffENS0_8IdStringERKNS0_7SigSpecES5_S5_S5_NS0_5ConstEbbRKNSt7__cxx1112basic_stringIcSt11char_traitsIcESaIcEEE
libyosys.so:_ZN5Yosys5RTLIL6Module7addBmuxENS0_8IdStringERKNS0_7SigSpecES5_S5_RKNSt7__cxx1112basic_stringIcSt11char_traitsIcESaIcEEE
libyosys.so:_ZN5Yosys5RTLIL6Module7addCellENS0_8IdStringEPKNS0_4CellE
libyosys.so:_ZN5Yosys5RTLIL6Module7addCellENS0_8IdStringES2_
libyosys.so:_ZN5Yosys5RTLIL6Module7addDffeENS0_8IdStringERKNS0_7SigSpecES5_S5_S5_bbRKNSt7__cxx1112basic_stringIcSt11char_traitsIcESaIcEEE
libyosys.so:_ZN5Yosys5RTLIL6Module7addFairENS0_8IdStringERKNS0_7SigSpecES5_RKNSt7__cxx1112basic_stringIcSt11char_traitsIcESaIcEEE
libyosys.so:_ZN5Yosys5RTLIL6Module7addLiveENS0_8IdStringERKNS0_7SigSpecES5_RKNSt7__cxx1112basic_stringIcSt11char_traitsIcESaIcEEE
libyosys.so:_ZN5Yosys5RTLIL6Module7addPmuxENS0_8IdStringERKNS0_7SigSpecES5_S5_S5_RKNSt7__cxx1112basic_stringIcSt11char_traitsIcESaIcEEE
libyosys.so:_ZN5Yosys5RTLIL6Module7addSdffENS0_8IdStringERKNS0_7SigSpecES5_S5_S5_NS0_5ConstEbbRKNSt7__cxx1112basic_stringIcSt11char_traitsIcESaIcEEE
libyosys.so:_ZN5Yosys5RTLIL6Module7addSshlENS0_8IdStringERKNS0_7SigSpecES5_S5_bRKNSt7__cxx1112basic_stringIcSt11char_traitsIcESaIcEEE
libyosys.so:_ZN5Yosys5RTLIL6Module7addSshrENS0_8IdStringERKNS0_7SigSpecES5_S5_bRKNSt7__cxx1112basic_stringIcSt11char_traitsIcESaIcEEE
libyosys.so:_ZN5Yosys5RTLIL6Module7addWireENS0_8IdStringEPKNS0_4WireE
libyosys.so:_ZN5Yosys5RTLIL6Module7addWireENS0_8IdStringEi
libyosys.so:_ZN5Yosys5RTLIL6Module7addXnorENS0_8IdStringERKNS0_7SigSpecES5_S5_bRKNSt7__cxx1112basic_stringIcSt11char_traitsIcESaIcEEE
libyosys.so:_ZN5Yosys5RTLIL6Module7connectERKNS0_7SigSpecES4_
libyosys.so:_ZN5Yosys5RTLIL6Module7connectERKSt4pairINS0_7SigSpecES3_E
libyosys.so:_ZN5Yosys5RTLIL6Module8AllconstENS0_8IdStringEiRKNSt7__cxx1112basic_stringIcSt11char_traitsIcESaIcEEE
libyosys.so:_ZN5Yosys5RTLIL6Module8AnyconstENS0_8IdStringEiRKNSt7__cxx1112basic_stringIcSt11char_traitsIcESaIcEEE
libyosys.so:_ZN5Yosys5RTLIL6Module8Aoi3GateENS0_8IdStringERKNS0_6SigBitES5_S5_RKNSt7__cxx1112basic_stringIcSt11char_traitsIcESaIcEEE
libyosys.so:_ZN5Yosys5RTLIL6Module8Aoi4GateENS0_8IdStringERKNS0_6SigBitES5_S5_S5_RKNSt7__cxx1112basic_stringIcSt11char_traitsIcESaIcEEE
libyosys.so:_ZN5Yosys5RTLIL6Module8DivFloorENS0_8IdStringERKNS0_7SigSpecES5_bRKNSt7__cxx1112basic_stringIcSt11char_traitsIcESaIcEEE
libyosys.so:_ZN5Yosys5RTLIL6Module8FutureFFENS0_8IdStringERKNS0_7SigSpecERKNSt7__cxx1112basic_stringIcSt11char_traitsIcESaIcEEE
libyosys.so:_ZN5Yosys5RTLIL6Module8LogicAndENS0_8IdStringERKNS0_7SigSpecES5_bRKNSt7__cxx1112basic_stringIcSt11char_traitsIcESaIcEEE
libyosys.so:_ZN5Yosys5RTLIL6Module8LogicNotENS0_8IdStringERKNS0_7SigSpecEbRKNSt7__cxx1112basic_stringIcSt11char_traitsIcESaIcEEE
libyosys.so:_ZN5Yosys5RTLIL6Module8ModFloorENS0_8IdStringERKNS0_7SigSpecES5_bRKNSt7__cxx1112basic_stringIcSt11char_traitsIcESaIcEEE
libyosys.so:_ZN5Yosys5RTLIL6Module8NandGateENS0_8IdStringERKNS0_6SigBitES5_RKNSt7__cxx1112basic_stringIcSt11char_traitsIcESaIcEEE
libyosys.so:_ZN5Yosys5RTLIL6Module8NmuxGateENS0_8IdStringERKNS0_6SigBitES5_S5_RKNSt7__cxx1112basic_stringIcSt11char_traitsIcESaIcEEE
libyosys.so:_ZN5Yosys5RTLIL6Module8Oai3GateENS0_8IdStringERKNS0_6SigBitES5_S5_RKNSt7__cxx1112basic_stringIcSt11char_traitsIcESaIcEEE
libyosys.so:_ZN5Yosys5RTLIL6Module8Oai4GateENS0_8IdStringERKNS0_6SigBitES5_S5_S5_RKNSt7__cxx1112basic_stringIcSt11char_traitsIcESaIcEEE
libyosys.so:_ZN5Yosys5RTLIL6Module8ReduceOrENS0_8IdStringERKNS0_7SigSpecEbRKNSt7__cxx1112basic_stringIcSt11char_traitsIcESaIcEEE
libyosys.so:_ZN5Yosys5RTLIL6Module8XnorGateENS0_8IdStringERKNS0_6SigBitES5_RKNSt7__cxx1112basic_stringIcSt11char_traitsIcESaIcEEE
libyosys.so:_ZN5Yosys5RTLIL6Module8addAdffeENS0_8IdStringERKNS0_7SigSpecES5_S5_S5_S5_NS0_5ConstEbbbRKNSt7__cxx1112basic_stringIcSt11char_traitsIcESaIcEEE
libyosys.so:_ZN5Yosys5RTLIL6Module8addAldffENS0_8IdStringERKNS0_7SigSpecES5_S5_S5_S5_bbRKNSt7__cxx1112basic_stringIcSt11char_traitsIcESaIcEEE
libyosys.so:_ZN5Yosys5RTLIL6Module8addBweqxENS0_8IdStringERKNS0_7SigSpecES5_S5_RKNSt7__cxx1112basic_stringIcSt11char_traitsIcESaIcEEE
libyosys.so:_ZN5Yosys5RTLIL6Module8addBwmuxENS0_8IdStringERKNS0_7SigSpecES5_S5_S5_RKNSt7__cxx1112basic_stringIcSt11char_traitsIcESaIcEEE
libyosys.so:_ZN5Yosys5RTLIL6Module8addCoverENS0_8IdStringERKNS0_7SigSpecES5_RKNSt7__cxx1112basic_stringIcSt11char_traitsIcESaIcEEE
libyosys.so:_ZN5Yosys5RTLIL6Module8addDemuxENS0_8IdStringERKNS0_7SigSpecES5_S5_RKNSt7__cxx1112basic_stringIcSt11char_traitsIcESaIcEEE
libyosys.so:_ZN5Yosys5RTLIL6Module8addDffsrENS0_8IdStringERKNS0_7SigSpecES5_S5_S3_S5_bbbRKNSt7__cxx1112basic_stringIcSt11char_traitsIcESaIcEEE
libyosys.so:_ZN5Yosys5RTLIL6Module8addEquivENS0_8IdStringERKNS0_7SigSpecES5_S5_RKNSt7__cxx1112basic_stringIcSt11char_traitsIcESaIcEEE
libyosys.so:_ZN5Yosys5RTLIL6Module8addSdffeENS0_8IdStringERKNS0_7SigSpecES5_S5_S5_S5_NS0_5ConstEbbbRKNSt7__cxx1112basic_stringIcSt11char_traitsIcESaIcEEE
libyosys.so:_ZN5Yosys5RTLIL6Module8addShiftENS0_8IdStringERKNS0_7SigSpecES5_S5_bRKNSt7__cxx1112basic_stringIcSt11char_traitsIcESaIcEEE
libyosys.so:_ZN5Yosys5RTLIL6Module8addSliceENS0_8IdStringERKNS0_7SigSpecES5_NS0_5ConstERKNSt7__cxx1112basic_stringIcSt11char_traitsIcESaIcEEE
libyosys.so:_ZN5Yosys5RTLIL6Module8count_idENS0_8IdStringE
libyosys.so:_ZN5Yosys5RTLIL6Module8optimizeEv
libyosys.so:_ZN5Yosys5RTLIL6Module8uniquifyENS0_8IdStringE
libyosys.so:_ZN5Yosys5RTLIL6Module8uniquifyENS0_8IdStringERi
libyosys.so:_ZN5Yosys5RTLIL6Module9InitstateENS0_8IdStringERKNSt7__cxx1112basic_stringIcSt11char_traitsIcESaIcEEE
libyosys.so:_ZN5Yosys5RTLIL6Module9OrnotGateENS0_8IdStringERKNS0_6SigBitES5_RKNSt7__cxx1112basic_stringIcSt11char_traitsIcESaIcEEE
libyosys.so:_ZN5Yosys5RTLIL6Module9ReduceAndENS0_8IdStringERKNS0_7SigSpecEbRKNSt7__cxx1112basic_stringIcSt11char_traitsIcESaIcEEE
libyosys.so:_ZN5Yosys5RTLIL6Module9ReduceXorENS0_8IdStringERKNS0_7SigSpecEbRKNSt7__cxx1112basic_stringIcSt11char_traitsIcESaIcEEE
libyosys.so:_ZN5Yosys5RTLIL6Module9addAldffeENS0_8IdStringERKNS0_7SigSpecES5_S5_S5_S5_S5_bbbRKNSt7__cxx1112basic_stringIcSt11char_traitsIcESaIcEEE
libyosys.so:_ZN5Yosys5RTLIL6Module9addAssertENS0_8IdStringERKNS0_7SigSpecES5_RKNSt7__cxx1112basic_stringIcSt11char_traitsIcESaIcEEE
libyosys.so:_ZN5Yosys5RTLIL6Module9addAssumeENS0_8IdStringERKNS0_7SigSpecES5_RKNSt7__cxx1112basic_stringIcSt11char_traitsIcESaIcEEE
libyosys.so:_ZN5Yosys5RTLIL6Module9addConcatENS0_8IdStringERKNS0_7SigSpecES5_S5_RKNSt7__cxx1112basic_stringIcSt11char_traitsIcESaIcEEE
libyosys.so:_ZN5Yosys5RTLIL6Module9addDffsreENS0_8IdStringERKNS0_7SigSpecES5_S5_S5_S3_S5_bbbbRKNSt7__cxx1112basic_stringIcSt11char_traitsIcESaIcEEE
libyosys.so:_ZN5Yosys5RTLIL6Module9addDlatchENS0_8IdStringERKNS0_7SigSpecES5_S5_bRKNSt7__cxx1112basic_stringIcSt11char_traitsIcESaIcEEE
libyosys.so:_ZN5Yosys5RTLIL6Module9addFfGateENS0_8IdStringERKNS0_7SigSpecES5_RKNSt7__cxx1112basic_stringIcSt11char_traitsIcESaIcEEE
libyosys.so:_ZN5Yosys5RTLIL6Module9addMemoryENS0_8IdStringE
libyosys.so:_ZN5Yosys5RTLIL6Module9addMemoryENS0_8IdStringEPKNS0_6MemoryE
libyosys.so:_ZN5Yosys5RTLIL6Module9addOrGateENS0_8IdStringERKNS0_6SigBitES5_S5_RKNSt7__cxx1112basic_stringIcSt11char_traitsIcESaIcEEE
libyosys.so:_ZN5Yosys5RTLIL6Module9addSdffceENS0_8IdStringERKNS0_7SigSpecES5_S5_S5_S5_NS0_5ConstEbbbRKNSt7__cxx1112basic_stringIcSt11char_traitsIcESaIcEEE
libyosys.so:_ZN5Yosys5RTLIL6Module9addSetTagENS0_8IdStringERKNSt7__cxx1112basic_stringIcSt11char_traitsIcESaIcEEERKNS0_7SigSpecESD_SD_SD_SA_
libyosys.so:_ZN5Yosys5RTLIL6Module9addShiftxENS0_8IdStringERKNS0_7SigSpecES5_S5_bRKNSt7__cxx1112basic_stringIcSt11char_traitsIcESaIcEEE
libyosys.so:_ZN5Yosys5RTLIL6Module9addSrGateENS0_8IdStringERKNS0_7SigSpecES5_S5_bbRKNSt7__cxx1112basic_stringIcSt11char_traitsIcESaIcEEE
libyosys.so:_ZN5Yosys5RTLIL6Module9addTribufENS0_8IdStringERKNS0_7SigSpecES5_S5_RKNSt7__cxx1112basic_stringIcSt11char_traitsIcESaIcEEE
libyosys.so:_ZN5Yosys5RTLIL6ModuleC1Ev
libyosys.so:_ZN5Yosys5RTLIL6ModuleC2Ev
libyosys.so:_ZN5Yosys5RTLIL6ModuleD0Ev
libyosys.so:_ZN5Yosys5RTLIL6ModuleD1Ev
libyosys.so:_ZN5Yosys5RTLIL6ModuleD2Ev
libyosys.so:_ZN5Yosys5RTLIL7BindingC2ENS0_8IdStringES2_
libyosys.so:_ZN5Yosys5RTLIL7ProcessC1Ev
libyosys.so:_ZN5Yosys5RTLIL7ProcessC2Ev
libyosys.so:_ZN5Yosys5RTLIL7ProcessD1Ev
libyosys.so:_ZN5Yosys5RTLIL7ProcessD2Ev
libyosys.so:_ZN5Yosys5RTLIL7SigSpec10try_repackEv
libyosys.so:_ZN5Yosys5RTLIL7SigSpec12remove_constEv
libyosys.so:_ZN5Yosys5RTLIL7SigSpec13rewrite_wiresESt8functionIFvRPNS0_4WireEEE
libyosys.so:_ZN5Yosys5RTLIL7SigSpec14sort_and_unifyEv
libyosys.so:_ZN5Yosys5RTLIL7SigSpec4sortEv
libyosys.so:_ZN5Yosys5RTLIL7SigSpec5parseERS1_PNS0_6ModuleENSt7__cxx1112basic_stringIcSt11char_traitsIcESaIcEEE
libyosys.so:_ZN5Yosys5RTLIL7SigSpec6Chunks14const_iterator15next_chunk_bitsEv
libyosys.so:_ZN5Yosys5RTLIL7SigSpec6appendERKNS0_6SigBitE
libyosys.so:_ZN5Yosys5RTLIL7SigSpec6appendERKS1_
libyosys.so:_ZN5Yosys5RTLIL7SigSpec6removeERKNS_7hashlib4poolINS0_6SigBitENS2_8hash_opsIS4_EEEE
libyosys.so:_ZN5Yosys5RTLIL7SigSpec6removeERKS1_
libyosys.so:_ZN5Yosys5RTLIL7SigSpec6removeEii
libyosys.so:_ZN5Yosys5RTLIL7SigSpec6unpackEv
libyosys.so:_ZN5Yosys5RTLIL7SigSpec7remove2ERKNS_7hashlib4poolINS0_6SigBitENS2_8hash_opsIS4_EEEEPS1_
libyosys.so:_ZN5Yosys5RTLIL7SigSpec7remove2ERKNS_7hashlib4poolIPNS0_4WireENS2_8hash_opsIS5_EEEEPS1_
libyosys.so:_ZN5Yosys5RTLIL7SigSpec7remove2ERKS1_PS1_
libyosys.so:_ZN5Yosys5RTLIL7SigSpec7remove2ERKSt3setINS0_6SigBitESt4lessIS3_ESaIS3_EEPS1_
libyosys.so:_ZN5Yosys5RTLIL7SigSpec7replaceERKNS_7hashlib4dictINS0_6SigBitES4_NS2_8hash_opsIS4_EEEE
libyosys.so:_ZN5Yosys5RTLIL7SigSpec7replaceERKS1_S3_
libyosys.so:_ZN5Yosys5RTLIL7SigSpec7replaceERKSt3mapINS0_6SigBitES3_St4lessIS3_ESaISt4pairIKS3_S3_EEE
libyosys.so:_ZN5Yosys5RTLIL7SigSpec7replaceEiRKS1_
libyosys.so:_ZN5Yosys5RTLIL7SigSpec9extend_u0Eib
libyosys.so:_ZN5Yosys5RTLIL7SigSpec9parse_rhsERKS1_RS1_PNS0_6ModuleENSt7__cxx1112basic_stringIcSt11char_traitsIcESaIcEEE
libyosys.so:_ZN5Yosys5RTLIL7SigSpec9parse_selERS1_PNS0_6DesignEPNS0_6ModuleENSt7__cxx1112basic_stringIcSt11char_traitsIcESaIcEEE
libyosys.so:_ZN5Yosys5RTLIL7SigSpecC1ENS0_5StateEi
libyosys.so:_ZN5Yosys5RTLIL7SigSpecC1EONS0_5ConstE
libyosys.so:_ZN5Yosys5RTLIL7SigSpecC1EONS0_8SigChunkE
libyosys.so:_ZN5Yosys5RTLIL7SigSpecC1EPNS0_4WireE
libyosys.so:_ZN5Yosys5RTLIL7SigSpecC1EPNS0_4WireEii
libyosys.so:_ZN5Yosys5RTLIL7SigSpecC1ERKNS0_5ConstE
libyosys.so:_ZN5Yosys5RTLIL7SigSpecC1ERKNS0_6SigBitEi
libyosys.so:_ZN5Yosys5RTLIL7SigSpecC1ERKNS0_8SigChunkE
libyosys.so:_ZN5Yosys5RTLIL7SigSpecC1ERKNS_7hashlib4poolINS0_6SigBitENS2_8hash_opsIS4_EEEE
libyosys.so:_ZN5Yosys5RTLIL7SigSpecC1ERKNSt7__cxx1112basic_stringIcSt11char_traitsIcESaIcEEE
libyosys.so:_ZN5Yosys5RTLIL7SigSpecC1ERKSt3setINS0_6SigBitESt4lessIS3_ESaIS3_EE
libyosys.so:_ZN5Yosys5RTLIL7SigSpecC1ERKSt6vectorINS0_6SigBitESaIS3_EE
libyosys.so:_ZN5Yosys5RTLIL7SigSpecC1ERKSt6vectorINS0_8SigChunkESaIS3_EE
libyosys.so:_ZN5Yosys5RTLIL7SigSpecC1ESt16initializer_listIS1_E
libyosys.so:_ZN5Yosys5RTLIL7SigSpecC1Eb
libyosys.so:_ZN5Yosys5RTLIL7SigSpecC1Eii
libyosys.so:_ZN5Yosys5RTLIL7SigSpecC2ENS0_5StateEi
libyosys.so:_ZN5Yosys5RTLIL7SigSpecC2EONS0_5ConstE
libyosys.so:_ZN5Yosys5RTLIL7SigSpecC2EONS0_8SigChunkE
libyosys.so:_ZN5Yosys5RTLIL7SigSpecC2EPNS0_4WireE
libyosys.so:_ZN5Yosys5RTLIL7SigSpecC2EPNS0_4WireEii
libyosys.so:_ZN5Yosys5RTLIL7SigSpecC2ERKNS0_5ConstE
libyosys.so:_ZN5Yosys5RTLIL7SigSpecC2ERKNS0_6SigBitEi
libyosys.so:_ZN5Yosys5RTLIL7SigSpecC2ERKNS0_8SigChunkE
libyosys.so:_ZN5Yosys5RTLIL7SigSpecC2ERKNS_7hashlib4poolINS0_6SigBitENS2_8hash_opsIS4_EEEE
libyosys.so:_ZN5Yosys5RTLIL7SigSpecC2ERKNSt7__cxx1112basic_stringIcSt11char_traitsIcESaIcEEE
libyosys.so:_ZN5Yosys5RTLIL7SigSpecC2ERKSt3setINS0_6SigBitESt4lessIS3_ESaIS3_EE
libyosys.so:_ZN5Yosys5RTLIL7SigSpecC2ERKSt6vectorINS0_6SigBitESaIS3_EE
libyosys.so:_ZN5Yosys5RTLIL7SigSpecC2ERKSt6vectorINS0_8SigChunkESaIS3_EE
libyosys.so:_ZN5Yosys5RTLIL7SigSpecC2ESt16initializer_listIS1_E
libyosys.so:_ZN5Yosys5RTLIL7SigSpecC2Eb
libyosys.so:_ZN5Yosys5RTLIL7SigSpecC2Eii
libyosys.so:_ZN5Yosys5RTLIL8CaseRuleD1Ev
libyosys.so:_ZN5Yosys5RTLIL8CaseRuleD2Ev
libyosys.so:_ZN5Yosys5RTLIL8IdString11prepopulateEv
libyosys.so:_ZN5Yosys5RTLIL8IdString13really_insertESt17basic_string_viewIcSt11char_traitsIcEERNSt8__detail14_Node_iteratorISt4pairIKS5_iELb0ELb1EEE
libyosys.so:_ZN5Yosys5RTLIL8IdString14destruct_guardE
libyosys.so:_ZN5Yosys5RTLIL8IdString16global_id_index_E
libyosys.so:_ZN5Yosys5RTLIL8IdString17destruct_guard_okE
libyosys.so:_ZN5Yosys5RTLIL8IdString18global_id_storage_E
libyosys.so:_ZN5Yosys5RTLIL8IdString21global_free_idx_list_E
libyosys.so:_ZN5Yosys5RTLIL8IdString24global_refcount_storage_E
libyosys.so:_ZN5Yosys5RTLIL8IdString26global_autoidx_id_storage_E
libyosys.so:_ZN5Yosys5RTLIL8SigChunkC1ERKNS0_6SigBitE
libyosys.so:_ZN5Yosys5RTLIL8SigChunkC2ERKNS0_6SigBitE
libyosys.so:_ZN5Yosys5RTLIL8const_eqERKNS0_5ConstES3_bbi
libyosys.so:_ZN5Yosys5RTLIL8const_geERKNS0_5ConstES3_bbi
libyosys.so:_ZN5Yosys5RTLIL8const_gtERKNS0_5ConstES3_bbi
libyosys.so:_ZN5Yosys5RTLIL8const_leERKNS0_5ConstES3_bbi
libyosys.so:_ZN5Yosys5RTLIL8const_ltERKNS0_5ConstES3_bbi
libyosys.so:_ZN5Yosys5RTLIL8const_neERKNS0_5ConstES3_bbi
libyosys.so:_ZN5Yosys5RTLIL8const_orERKNS0_5ConstES3_bbi
libyosys.so:_ZN5Yosys5RTLIL8constpadB5cxx11E
libyosys.so:_ZN5Yosys5RTLIL9Selection5clearEv
libyosys.so:_ZN5Yosys5RTLIL9Selection8optimizeEPNS0_6DesignE
libyosys.so:_ZN5Yosys5RTLIL9const_addERKNS0_5ConstES3_bbi
libyosys.so:_ZN5Yosys5RTLIL9const_andERKNS0_5ConstES3_bbi
libyosys.so:_ZN5Yosys5RTLIL9const_bufERKNS0_5ConstES3_bbi
libyosys.so:_ZN5Yosys5RTLIL9const_divERKNS0_5ConstES3_bbi
libyosys.so:_ZN5Yosys5RTLIL9const_eqxERKNS0_5ConstES3_bbi
libyosys.so:_ZN5Yosys5RTLIL9const_modERKNS0_5ConstES3_bbi
libyosys.so:_ZN5Yosys5RTLIL9const_mulERKNS0_5ConstES3_bbi
libyosys.so:_ZN5Yosys5RTLIL9const_muxERKNS0_5ConstES3_S3_
libyosys.so:_ZN5Yosys5RTLIL9const_negERKNS0_5ConstES3_bbi
libyosys.so:_ZN5Yosys5RTLIL9const_nexERKNS0_5ConstES3_bbi
libyosys.so:_ZN5Yosys5RTLIL9const_notERKNS0_5ConstES3_bbi
libyosys.so:_ZN5Yosys5RTLIL9const_posERKNS0_5ConstES3_bbi
libyosys.so:_ZN5Yosys5RTLIL9const_powERKNS0_5ConstES3_bbi
libyosys.so:_ZN5Yosys5RTLIL9const_shlERKNS0_5ConstES3_bbi
libyosys.so:_ZN5Yosys5RTLIL9const_shrERKNS0_5ConstES3_bbi
libyosys.so:_ZN5Yosys5RTLIL9const_subERKNS0_5ConstES3_bbi
libyosys.so:_ZN5Yosys5RTLIL9const_xorERKNS0_5ConstES3_bbi
libyosys.so:_ZN5Yosys5shellEPNS_5RTLIL6DesignE
libyosys.so:_ZN5Yosys6FfData10arst_to_srEv
libyosys.so:_ZN5Yosys6FfData10unmap_srstEv
libyosys.so:_ZN5Yosys6FfData11aload_to_srEv
libyosys.so:_ZN5Yosys6FfData12add_dummy_ceEv
libyosys.so:_ZN5Yosys6FfData12add_dummy_srEv
libyosys.so:_ZN5Yosys6FfData13add_dummy_clkEv
libyosys.so:_ZN5Yosys6FfData13arst_to_aloadEv
libyosys.so:_ZN5Yosys6FfData13flip_rst_bitsERKNS_7hashlib4poolIiNS1_8hash_opsIiEEEE
libyosys.so:_ZN5Yosys6FfData14add_dummy_arstEv
libyosys.so:_ZN5Yosys6FfData14add_dummy_srstEv
libyosys.so:_ZN5Yosys6FfData15add_dummy_aloadEv
libyosys.so:_ZN5Yosys6FfData20convert_ce_over_srstEb
libyosys.so:_ZN5Yosys6FfData4emitEv
libyosys.so:_ZN5Yosys6FfData5sliceERKSt6vectorIiSaIiEE
libyosys.so:_ZN5Yosys6FfData6removeEv
libyosys.so:_ZN5Yosys6FfData8unmap_ceEv
libyosys.so:_ZN5Yosys6FfData9flip_bitsERKNS_7hashlib4poolIiNS1_8hash_opsIiEEEE
libyosys.so:_ZN5Yosys6FfDataC1EPNS_10FfInitValsEPNS_5RTLIL4CellE
libyosys.so:_ZN5Yosys6FfDataC2EPNS_10FfInitValsEPNS_5RTLIL4CellE
libyosys.so:_ZN5Yosys6SatGen10importCellEPNS_5RTLIL4CellEi
libyosys.so:_ZN5Yosys6log_idERKNS_5RTLIL8IdStringE
libyosys.so:_ZN5Yosys7AigNodeC1Ev
libyosys.so:_ZN5Yosys7AigNodeC2Ev
libyosys.so:_ZN5Yosys7Autoidx15ensure_at_leastEi
libyosys.so:_ZN5Yosys7AutoidxppEi
libyosys.so:_ZN5Yosys7Backend10extra_argsERPSoRNSt7__cxx1112basic_stringIcSt11char_traitsIcESaIcEEESt6vectorIS8_SaIS8_EEmb
libyosys.so:_ZN5Yosys7Backend12backend_callEPNS_5RTLIL6DesignEPSoNSt7__cxx1112basic_stringIcSt11char_traitsIcESaIcEEESA_
libyosys.so:_ZN5Yosys7Backend12backend_callEPNS_5RTLIL6DesignEPSoNSt7__cxx1112basic_stringIcSt11char_traitsIcESaIcEEESt6vectorISA_SaISA_EE
libyosys.so:_ZN5Yosys7Backend12run_registerEv
libyosys.so:_ZN5Yosys7Backend7executeESt6vectorINSt7__cxx1112basic_stringIcSt11char_traitsIcESaIcEEESaIS7_EEPNS_5RTLIL6DesignE
libyosys.so:_ZN5Yosys7BackendC2ENSt7__cxx1112basic_stringIcSt11char_traitsIcESaIcEEES6_St15source_location
libyosys.so:_ZN5Yosys7BackendD0Ev
libyosys.so:_ZN5Yosys7BackendD1Ev
libyosys.so:_ZN5Yosys7BackendD2Ev
libyosys.so:_ZN5Yosys7FsmData12optimize_fsmEPNS_5RTLIL4CellEPNS1_6ModuleE
libyosys.so:_ZN5Yosys7FstData10getEndTimeEv
libyosys.so:_ZN5Yosys7FstData12getStartTimeEv
libyosys.so:_ZN5Yosys7FstData15extractVarNamesEv
libyosys.so:_ZN5Yosys7FstData16getMemoryHandlesENSt7__cxx1112basic_stringIcSt11char_traitsIcESaIcEEE
libyosys.so:_ZN5Yosys7FstData21reconstructAllAtTimesERSt6vectorIjSaIjEEmmjSt8functionIFvmEE
libyosys.so:_ZN5Yosys7FstData28reconstruct_callback_attimesEmjPKhj
libyosys.so:_ZN5Yosys7FstData7valueOfB5cxx11Ej
libyosys.so:_ZN5Yosys7FstData9getHandleENSt7__cxx1112basic_stringIcSt11char_traitsIcESaIcEEE
libyosys.so:_ZN5Yosys7FstDataC1ENSt7__cxx1112basic_stringIcSt11char_traitsIcESaIcEEE
libyosys.so:_ZN5Yosys7FstDataC2ENSt7__cxx1112basic_stringIcSt11char_traitsIcESaIcEEE
libyosys.so:_ZN5Yosys7FstDataD1Ev
libyosys.so:_ZN5Yosys7FstDataD2Ev
libyosys.so:_ZN5Yosys7TclPassE
libyosys.so:_ZN5Yosys7autoidxE
libyosys.so:_ZN5Yosys7hashlib11HasherDJB325fudgeE
libyosys.so:_ZN5Yosys7log_popEv
libyosys.so:_ZN5Yosys7maccmapEPNS_5RTLIL6ModuleEPNS0_4CellEb
libyosys.so:_ZN5Yosys7p_classEim
libyosys.so:_ZN5Yosys8DriveBit5mergeERKS0_
libyosys.so:_ZN5Yosys8DriveBitC1ERKNS_5RTLIL6SigBitE
libyosys.so:_ZN5Yosys8DriveBitC2ERKNS_5RTLIL6SigBitE
libyosys.so:_ZN5Yosys8EchoPassE
libyosys.so:_ZN5Yosys8Frontend10extra_argsERPSiRNSt7__cxx1112basic_stringIcSt11char_traitsIcESaIcEEESt6vectorIS8_SaIS8_EEmb
libyosys.so:_ZN5Yosys8Frontend12run_registerEv
libyosys.so:_ZN5Yosys8Frontend13frontend_callEPNS_5RTLIL6DesignEPSiNSt7__cxx1112basic_stringIcSt11char_traitsIcESaIcEEESA_
libyosys.so:_ZN5Yosys8Frontend13frontend_callEPNS_5RTLIL6DesignEPSiNSt7__cxx1112basic_stringIcSt11char_traitsIcESaIcEEESt6vectorISA_SaISA_EE
libyosys.so:_ZN5Yosys8Frontend18last_here_documentB5cxx11E
libyosys.so:_ZN5Yosys8Frontend19current_script_fileE
libyosys.so:_ZN5Yosys8Frontend7executeESt6vectorINSt7__cxx1112basic_stringIcSt11char_traitsIcESaIcEEESaIS7_EEPNS_5RTLIL6DesignE
libyosys.so:_ZN5Yosys8Frontend9next_argsB5cxx11E
libyosys.so:_ZN5Yosys8FrontendC2ENSt7__cxx1112basic_stringIcSt11char_traitsIcESaIcEEES6_St15source_location
libyosys.so:_ZN5Yosys8FrontendD0Ev
libyosys.so:_ZN5Yosys8FrontendD1Ev
libyosys.so:_ZN5Yosys8FrontendD2Ev
libyosys.so:_ZN5Yosys8HelpPassE
libyosys.so:_ZN5Yosys8fgetlineEP8_IO_FILERNSt7__cxx1112basic_stringIcSt11char_traitsIcESaIcEEE
libyosys.so:_ZN5Yosys8log_cellEPNS_5RTLIL4CellENSt7__cxx1112basic_stringIcSt11char_traitsIcESaIcEEE
libyosys.so:_ZN5Yosys8log_pushEv
libyosys.so:_ZN5Yosys8log_timeE
libyosys.so:_ZN5Yosys8log_wireEPNS_5RTLIL4WireENSt7__cxx1112basic_stringIcSt11char_traitsIcESaIcEEE
libyosys.so:_ZN5Yosys8patmatchEPKcS1_
libyosys.so:_ZN5Yosys8readsomeERSiPci
libyosys.so:_ZN5Yosys8run_passENSt7__cxx1112basic_stringIcSt11char_traitsIcESaIcEEEPNS_5RTLIL6DesignE
libyosys.so:_ZN5Yosys9CellCosts3getEPNS_5RTLIL4CellE
libyosys.so:_ZN5Yosys9CellCosts3getEPNS_5RTLIL6ModuleE
libyosys.so:_ZN5Yosys9DriveSpec13compute_widthEv
libyosys.so:_ZN5Yosys9DriveSpec6appendERKNS_10DriveChunkE
libyosys.so:_ZN5Yosys9DriveSpec6appendERKNS_8DriveBitE
libyosys.so:_ZN5Yosys9DriverMap13DriveBitGraph2atENS0_10DriveBitIdEi
libyosys.so:_ZN5Yosys9DriverMap13DriveBitGraph5clearENS0_10DriveBitIdE
libyosys.so:_ZN5Yosys9DriverMap13DriveBitGraph5countENS0_10DriveBitIdE
libyosys.so:_ZN5Yosys9DriverMap13DriveBitGraph8add_edgeENS0_10DriveBitIdES2_
libyosys.so:_ZN5Yosys9DriverMap13DriveBitGraph8containsENS0_10DriveBitIdE
libyosys.so:_ZN5Yosys9DriverMap13DriveBitGraph8pop_edgeENS0_10DriveBitIdE
libyosys.so:_ZN5Yosys9DriverMap17drive_bit_from_idENS0_10DriveBitIdE
libyosys.so:_ZN5Yosys9DriverMap17id_from_drive_bitERKNS_8DriveBitE
libyosys.so:_ZN5Yosys9DriverMap17orient_undirectedENS0_10DriveBitIdE
libyosys.so:_ZN5Yosys9DriverMap18connect_undirectedENS0_10DriveBitIdES1_
libyosys.so:_ZN5Yosys9DriverMap22connect_directed_mergeENS0_10DriveBitIdES1_
libyosys.so:_ZN5Yosys9DriverMap23connect_directed_bufferENS0_10DriveBitIdES1_
libyosys.so:_ZN5Yosys9DriverMap3addEPNS_5RTLIL6ModuleE
libyosys.so:_ZN5Yosys9DriverMap3addERKNS_5RTLIL7SigSpecES4_
libyosys.so:_ZN5Yosys9DriverMap3addERKNS_8DriveBitES3_
libyosys.so:_ZN5Yosys9DriverMap8add_portEPNS_5RTLIL4CellERKNS1_8IdStringERKNS1_7SigSpecE
libyosys.so:_ZN5Yosys9DriverMap8bit_modeERKNS_8DriveBitE
libyosys.so:_ZN5Yosys9DriverMapclENS_9DriveSpecE
libyosys.so:_ZN5Yosys9DriverMapclERKNS_8DriveBitE
libyosys.so:_ZN5Yosys9ShellPassE
libyosys.so:_ZN5Yosys9echo_modeE
libyosys.so:_ZN5Yosys9log_constB5cxx11ERKNS_5RTLIL5ConstEb
libyosys.so:_ZN5Yosys9log_filesE
libyosys.so:_ZN5Yosys9log_flushEv
libyosys.so:_ZN5Yosys9log_hdumpB5cxx11E
libyosys.so:_ZN5Yosys9print_qedEv
libyosys.so:_ZN5Yosys9simplemapEPNS_5RTLIL6ModuleEPNS0_4CellE
libyosys.so:_ZN5YosyslsERSoRKNS_5SExprE
libyosys.so:_ZN5ezSAT10CONST_TRUEE
libyosys.so:_ZN5ezSAT10add_clauseERKSt6vectorIiSaIiEE
libyosys.so:_ZN5ezSAT10add_clauseERKSt6vectorIiSaIiEEbiii
libyosys.so:_ZN5ezSAT10add_clauseEiii
libyosys.so:_ZN5ezSAT10consumeCnfERSt6vectorIS0_IiSaIiEESaIS2_EE
libyosys.so:_ZN5ezSAT10consumeCnfEv
libyosys.so:_ZN5ezSAT10eliminatedEi
libyosys.so:_ZN5ezSAT10expressionENS_4OpIdERKSt6vectorIiSaIiEE
libyosys.so:_ZN5ezSAT10expressionENS_4OpIdEiiiiii
libyosys.so:_ZN5ezSAT11CONST_FALSEE
libyosys.so:_ZN5ezSAT11bind_cnf_orERKSt6vectorIiSaIiEE
libyosys.so:_ZN5ezSAT12bind_cnf_andERKSt6vectorIiSaIiEE
libyosys.so:_ZN5ezSAT12bind_cnf_notERKSt6vectorIiSaIiEE
libyosys.so:_ZN5ezSAT12parse_stringERKNSt7__cxx1112basic_stringIcSt11char_traitsIcESaIcEEE
libyosys.so:_ZN5ezSAT13vec_ge_signedERKSt6vectorIiSaIiEES4_
libyosys.so:_ZN5ezSAT13vec_gt_signedERKSt6vectorIiSaIiEES4_
libyosys.so:_ZN5ezSAT13vec_le_signedERKSt6vectorIiSaIiEES4_
libyosys.so:_ZN5ezSAT13vec_lt_signedERKSt6vectorIiSaIiEES4_
libyosys.so:_ZN5ezSAT13vec_reduce_orERKSt6vectorIiSaIiEE
libyosys.so:_ZN5ezSAT14frozen_literalERKNSt7__cxx1112basic_stringIcSt11char_traitsIcESaIcEEE
libyosys.so:_ZN5ezSAT14frozen_literalEv
libyosys.so:_ZN5ezSAT14vec_reduce_andERKSt6vectorIiSaIiEE
libyosys.so:_ZN5ezSAT14vec_set_signedERKSt6vectorIiSaIiEEl
libyosys.so:_ZN5ezSAT14vec_shift_leftERKSt6vectorIiSaIiEES4_bii
libyosys.so:_ZN5ezSAT15vec_ge_unsignedERKSt6vectorIiSaIiEES4_
libyosys.so:_ZN5ezSAT15vec_gt_unsignedERKSt6vectorIiSaIiEES4_
libyosys.so:_ZN5ezSAT15vec_le_unsignedERKSt6vectorIiSaIiEES4_
libyosys.so:_ZN5ezSAT15vec_lt_unsignedERKSt6vectorIiSaIiEES4_
libyosys.so:_ZN5ezSAT15vec_shift_rightERKSt6vectorIiSaIiEES4_bii
libyosys.so:_ZN5ezSAT16vec_const_signedEli
libyosys.so:_ZN5ezSAT16vec_set_unsignedERKSt6vectorIiSaIiEEm
libyosys.so:_ZN5ezSAT17preSolverCallbackEv
libyosys.so:_ZN5ezSAT17vec_append_signedERSt6vectorIiSaIiEERKS2_l
libyosys.so:_ZN5ezSAT18vec_const_unsignedEmi
libyosys.so:_ZN5ezSAT19vec_append_unsignedERSt6vectorIiSaIiEERKS2_m
libyosys.so:_ZN5ezSAT3bitENS_2_VE
libyosys.so:_ZN5ezSAT3vecERKSt6vectorIiSaIiEE
libyosys.so:_ZN5ezSAT4bindEib
libyosys.so:_ZN5ezSAT5clearEv
libyosys.so:_ZN5ezSAT5valueEb
libyosys.so:_ZN5ezSAT6assumeEi
libyosys.so:_ZN5ezSAT6freezeEi
libyosys.so:_ZN5ezSAT6onehotERKSt6vectorIiSaIiEEb
libyosys.so:_ZN5ezSAT6solverERKSt6vectorIiSaIiEERS0_IbSaIbEES4_
libyosys.so:_ZN5ezSAT6vec_eqERKSt6vectorIiSaIiEES4_
libyosys.so:_ZN5ezSAT6vec_neERKSt6vectorIiSaIiEES4_
libyosys.so:_ZN5ezSAT6vec_orERKSt6vectorIiSaIiEES4_
libyosys.so:_ZN5ezSAT7addhashEj
libyosys.so:_ZN5ezSAT7literalERKNSt7__cxx1112basic_stringIcSt11char_traitsIcESaIcEEE
libyosys.so:_ZN5ezSAT7literalEv
libyosys.so:_ZN5ezSAT7manyhotERKSt6vectorIiSaIiEEii
libyosys.so:_ZN5ezSAT7orderedERKSt6vectorIiSaIiEES4_b
libyosys.so:_ZN5ezSAT7vec_addERKSt6vectorIiSaIiEES4_
libyosys.so:_ZN5ezSAT7vec_andERKSt6vectorIiSaIiEES4_
libyosys.so:_ZN5ezSAT7vec_cmpERKSt6vectorIiSaIiEES4_RiS5_S5_S5_
libyosys.so:_ZN5ezSAT7vec_iffERKSt6vectorIiSaIiEES4_
libyosys.so:_ZN5ezSAT7vec_iteERKSt6vectorIiSaIiEES4_S4_
libyosys.so:_ZN5ezSAT7vec_iteEiRKSt6vectorIiSaIiEES4_
libyosys.so:_ZN5ezSAT7vec_negERKSt6vectorIiSaIiEE
libyosys.so:_ZN5ezSAT7vec_notERKSt6vectorIiSaIiEE
libyosys.so:_ZN5ezSAT7vec_setERKSt6vectorIiSaIiEES4_
libyosys.so:_ZN5ezSAT7vec_shlERKSt6vectorIiSaIiEEib
libyosys.so:_ZN5ezSAT7vec_srlERKSt6vectorIiSaIiEEi
libyosys.so:_ZN5ezSAT7vec_subERKSt6vectorIiSaIiEES4_
libyosys.so:_ZN5ezSAT7vec_varENSt7__cxx1112basic_stringIcSt11char_traitsIcESaIcEEEi
libyosys.so:_ZN5ezSAT7vec_varEi
libyosys.so:_ZN5ezSAT7vec_xorERKSt6vectorIiSaIiEES4_
libyosys.so:_ZN5ezSAT8vec_castERKSt6vectorIiSaIiEEib
libyosys.so:_ZN5ezSAT9vec_constERKSt6vectorIbSaIbEE
libyosys.so:_ZN5ezSAT9vec_countERKSt6vectorIiSaIiEEib
libyosys.so:_ZN5ezSAT9vec_shiftERKSt6vectorIiSaIiEEiii
libyosys.so:_ZN5ezSATC1Ev
libyosys.so:_ZN5ezSATC2Ev
libyosys.so:_ZN5ezSATD0Ev
libyosys.so:_ZN5ezSATD1Ev
libyosys.so:_ZN5ezSATD2Ev
libyosys.so:_ZN6json114Json11parse_multiERKNSt7__cxx1112basic_stringIcSt11char_traitsIcESaIcEEERmRS6_NS_9JsonParseE
libyosys.so:_ZN6json114Json5parseERKNSt7__cxx1112basic_stringIcSt11char_traitsIcESaIcEEERS6_NS_9JsonParseE
libyosys.so:_ZN6json114JsonC1EDn
libyosys.so:_ZN6json114JsonC1EONSt7__cxx1112basic_stringIcSt11char_traitsIcESaIcEEE
libyosys.so:_ZN6json114JsonC1EOSt3mapINSt7__cxx1112basic_stringIcSt11char_traitsIcESaIcEEES0_St4lessIS7_ESaISt4pairIKS7_S0_EEE
libyosys.so:_ZN6json114JsonC1EOSt6vectorIS0_SaIS0_EE
libyosys.so:_ZN6json114JsonC1EPKc
libyosys.so:_ZN6json114JsonC1ERKNSt7__cxx1112basic_stringIcSt11char_traitsIcESaIcEEE
libyosys.so:_ZN6json114JsonC1ERKSt3mapINSt7__cxx1112basic_stringIcSt11char_traitsIcESaIcEEES0_St4lessIS7_ESaISt4pairIKS7_S0_EEE
libyosys.so:_ZN6json114JsonC1ERKSt6vectorIS0_SaIS0_EE
libyosys.so:_ZN6json114JsonC1Eb
libyosys.so:_ZN6json114JsonC1Ed
libyosys.so:_ZN6json114JsonC1Ei
libyosys.so:_ZN6json114JsonC1Ev
libyosys.so:_ZN6json114JsonC2EDn
libyosys.so:_ZN6json114JsonC2EONSt7__cxx1112basic_stringIcSt11char_traitsIcESaIcEEE
libyosys.so:_ZN6json114JsonC2EOSt3mapINSt7__cxx1112basic_stringIcSt11char_traitsIcESaIcEEES0_St4lessIS7_ESaISt4pairIKS7_S0_EEE
libyosys.so:_ZN6json114JsonC2EOSt6vectorIS0_SaIS0_EE
libyosys.so:_ZN6json114JsonC2EPKc
libyosys.so:_ZN6json114JsonC2ERKNSt7__cxx1112basic_stringIcSt11char_traitsIcESaIcEEE
libyosys.so:_ZN6json114JsonC2ERKSt3mapINSt7__cxx1112basic_stringIcSt11char_traitsIcESaIcEEES0_St4lessIS7_ESaISt4pairIKS7_S0_EEE
libyosys.so:_ZN6json114JsonC2ERKSt6vectorIS0_SaIS0_EE
libyosys.so:_ZN6json114JsonC2Eb
libyosys.so:_ZN6json114JsonC2Ed
libyosys.so:_ZN6json114JsonC2Ei
libyosys.so:_ZN6json114JsonC2Ev
libyosys.so:_ZN7Minisat10SimpSolver10addClause_ERNS_3vecINS_3LitEiEE
libyosys.so:_ZN7Minisat10SimpSolver10releaseVarENS_3LitE
libyosys.so:_ZN7Minisat10SimpSolver10substituteEiNS_3LitE
libyosys.so:_ZN7Minisat10SimpSolver11extendModelEv
libyosys.so:_ZN7Minisat10SimpSolver12eliminateVarEi
libyosys.so:_ZN7Minisat10SimpSolver12removeClauseEj
libyosys.so:_ZN7Minisat10SimpSolver14garbageCollectEv
libyosys.so:_ZN7Minisat10SimpSolver16strengthenClauseEjNS_3LitE
libyosys.so:_ZN7Minisat10SimpSolver20gatherTouchedClausesEv
libyosys.so:_ZN7Minisat10SimpSolver24backwardSubsumptionCheckEb
libyosys.so:_ZN7Minisat10SimpSolver5asymmEij
libyosys.so:_ZN7Minisat10SimpSolver5mergeERKNS_6ClauseES3_iRNS_3vecINS_3LitEiEE
libyosys.so:_ZN7Minisat10SimpSolver5mergeERKNS_6ClauseES3_iRi
libyosys.so:_ZN7Minisat10SimpSolver6newVarENS_5lboolEb
libyosys.so:_ZN7Minisat10SimpSolver6solve_Ebb
libyosys.so:_ZN7Minisat10SimpSolver7impliedERKNS_3vecINS_3LitEiEE
libyosys.so:_ZN7Minisat10SimpSolver8asymmVarEi
libyosys.so:_ZN7Minisat10SimpSolver8relocAllERNS_15ClauseAllocatorE
libyosys.so:_ZN7Minisat10SimpSolver9eliminateEb
libyosys.so:_ZN7Minisat10SimpSolverC1Ev
libyosys.so:_ZN7Minisat10SimpSolverC2Ev
libyosys.so:_ZN7Minisat10SimpSolverD0Ev
libyosys.so:_ZN7Minisat10SimpSolverD1Ev
libyosys.so:_ZN7Minisat10SimpSolverD2Ev
libyosys.so:_ZN7Minisat11limitMemoryEm
libyosys.so:_ZN7Minisat11memUsedPeakEb
libyosys.so:_ZN7Minisat12parseOptionsERiPPcb
libyosys.so:_ZN7Minisat12setUsageHelpEPKc
libyosys.so:_ZN7Minisat16setHelpPrefixStrEPKc
libyosys.so:_ZN7Minisat17printUsageAndExitEiPPcb
libyosys.so:_ZN7Minisat6Solver10addClause_ERNS_3vecINS_3LitEiEE
libyosys.so:_ZN7Minisat6Solver10releaseVarENS_3LitE
libyosys.so:_ZN7Minisat6Solver11cancelUntilEi
libyosys.so:_ZN7Minisat6Solver12analyzeFinalENS_3LitERNS_4LSetE
libyosys.so:_ZN7Minisat6Solver12attachClauseEj
libyosys.so:_ZN7Minisat6Solver12detachClauseEjb
libyosys.so:_ZN7Minisat6Solver12litRedundantENS_3LitE
libyosys.so:_ZN7Minisat6Solver12removeClauseEj
libyosys.so:_ZN7Minisat6Solver13pickBranchLitEv
libyosys.so:_ZN7Minisat6Solver14garbageCollectEv
libyosys.so:_ZN7Minisat6Solver15removeSatisfiedERNS_3vecIjiEE
libyosys.so:_ZN7Minisat6Solver16rebuildOrderHeapEv
libyosys.so:_ZN7Minisat6Solver16uncheckedEnqueueENS_3LitEj
libyosys.so:_ZN7Minisat6Solver6newVarENS_5lboolEb
libyosys.so:_ZN7Minisat6Solver6searchEi
libyosys.so:_ZN7Minisat6Solver6solve_Ev
libyosys.so:_ZN7Minisat6Solver7analyzeEjRNS_3vecINS_3LitEiEERi
libyosys.so:_ZN7Minisat6Solver7impliesERKNS_3vecINS_3LitEiEERS3_
libyosys.so:_ZN7Minisat6Solver8reduceDBEv
libyosys.so:_ZN7Minisat6Solver8relocAllERNS_15ClauseAllocatorE
libyosys.so:_ZN7Minisat6Solver8simplifyEv
libyosys.so:_ZN7Minisat6Solver8toDimacsEP8_IO_FILERKNS_3vecINS_3LitEiEE
libyosys.so:_ZN7Minisat6Solver8toDimacsEP8_IO_FILERNS_6ClauseERNS_3vecIiiEERi
libyosys.so:_ZN7Minisat6Solver8toDimacsEPKcRKNS_3vecINS_3LitEiEE
libyosys.so:_ZN7Minisat6Solver9propagateEv
libyosys.so:_ZN7Minisat6SolverC1Ev
libyosys.so:_ZN7Minisat6SolverC2Ev
libyosys.so:_ZN7Minisat6SolverD0Ev
libyosys.so:_ZN7Minisat6SolverD1Ev
libyosys.so:_ZN7Minisat6SolverD2Ev
libyosys.so:_ZN7Minisat7memUsedEv
libyosys.so:_ZN7Minisat7sigTermEPFviE
libyosys.so:_ZN7Minisat9limitTimeEj
libyosys.so:_ZN8pybind117hashlib10is_mappingENS_6objectE
libyosys.so:_ZN8pybind117hashlib9is_subsetERKNS_8iterableES3_b
libyosys.so:_ZN9ezMiniSAT10eliminatedEi
libyosys.so:_ZN9ezMiniSAT12alarmHandlerEi
libyosys.so:_ZN9ezMiniSAT16alarmHandlerThisE
libyosys.so:_ZN9ezMiniSAT19alarmHandlerTimeoutE
libyosys.so:_ZN9ezMiniSAT5clearEv
libyosys.so:_ZN9ezMiniSAT6freezeEi
libyosys.so:_ZN9ezMiniSAT6solverERKSt6vectorIiSaIiEERS0_IbSaIbEES4_
libyosys.so:_ZN9ezMiniSATC1Ev
libyosys.so:_ZN9ezMiniSATC2Ev
libyosys.so:_ZN9ezMiniSATD0Ev
libyosys.so:_ZN9ezMiniSATD1Ev
libyosys.so:_ZN9ezMiniSATD2Ev
libyosys.so:_ZNK10BigInteger13toUnsignedIntEv
libyosys.so:_ZNK10BigInteger14toUnsignedLongEv
libyosys.so:_ZNK10BigInteger15toUnsignedShortEv
libyosys.so:_ZNK10BigInteger5toIntEv
libyosys.so:_ZNK10BigInteger6toLongEv
libyosys.so:_ZNK10BigInteger7toShortEv
libyosys.so:_ZNK10BigInteger9compareToERKS_
libyosys.so:_ZNK10SubCircuit5Graph6BitRefltERKS1_
libyosys.so:_ZNK11BigUnsigned13toUnsignedIntEv
libyosys.so:_ZNK11BigUnsigned14toUnsignedLongEv
libyosys.so:_ZNK11BigUnsigned15toUnsignedShortEv
libyosys.so:_ZNK11BigUnsigned5toIntEv
libyosys.so:_ZNK11BigUnsigned6toLongEv
libyosys.so:_ZNK11BigUnsigned7toShortEv
libyosys.so:_ZNK11BigUnsigned9bitLengthEv
libyosys.so:_ZNK11BigUnsigned9compareToERKS_
libyosys.so:_ZNK14slang_frontend8Variable10get_symbolEv
libyosys.so:_ZNK14slang_frontend8Variable10hash_labelEv
libyosys.so:_ZNK14slang_frontend8Variable4textB5cxx11Ev
libyosys.so:_ZNK14slang_frontend8Variable8bitwidthEv
libyosys.so:_ZNK14slang_frontend8VariablecvbEv
libyosys.so:_ZNK14slang_frontend8VariableltERKS0_
libyosys.so:_ZNK18BigUnsignedInABasecv11BigUnsignedEv
libyosys.so:_ZNK18BigUnsignedInABasecvNSt7__cxx1112basic_stringIcSt11char_traitsIcESaIcEEEEv
libyosys.so:_ZNK19frontend_verilog_yy6parser11debug_levelEv
libyosys.so:_ZNK19frontend_verilog_yy6parser12debug_streamEv
libyosys.so:_ZNK19frontend_verilog_yy6parser13yy_lac_check_ENS0_11symbol_kind16symbol_kind_typeE
libyosys.so:_ZNK19frontend_verilog_yy6parser15yy_stack_print_Ev
libyosys.so:_ZNK19frontend_verilog_yy6parser15yysyntax_error_B5cxx11ERKNS0_7contextE
libyosys.so:_ZNK19frontend_verilog_yy6parser16yy_reduce_print_Ei
libyosys.so:_ZNK19frontend_verilog_yy6parser26yy_syntax_error_arguments_ERKNS0_7contextEPNS0_11symbol_kind16symbol_kind_typeEi
libyosys.so:_ZNK19frontend_verilog_yy6parser7context15expected_tokensEPNS0_11symbol_kind16symbol_kind_typeEi
libyosys.so:_ZNK19frontend_verilog_yy6parser8by_state4kindEv
libyosys.so:_ZNK3fmt3v1212format_facetISt6localeE6do_putENS0_14basic_appenderIcEENS0_9loc_valueERKNS0_12format_specsE
libyosys.so:_ZNK5Yosys10DriveChunk10can_appendERKNS_8DriveBitE
libyosys.so:_ZNK5Yosys10Functional2IR10all_inputsEv
libyosys.so:_ZNK5Yosys10Functional2IR10all_statesEv
libyosys.so:_ZNK5Yosys10Functional2IR11all_outputsEv
libyosys.so:_ZNK5Yosys10Functional2IR6inputsENS_5RTLIL8IdStringE
libyosys.so:_ZNK5Yosys10Functional2IR6statesENS_5RTLIL8IdStringE
libyosys.so:_ZNK5Yosys10Functional2IR7outputsENS_5RTLIL8IdStringE
libyosys.so:_ZNK5Yosys10LibertyAst4dumpEP8_IO_FILERSt3setINSt7__cxx1112basic_stringIcSt11char_traitsIcESaIcEEESt4lessIS9_ESaIS9_EESE_S9_S9_b
libyosys.so:_ZNK5Yosys10LibertyAst4findENSt7__cxx1112basic_stringIcSt11char_traitsIcESaIcEEE
libyosys.so:_ZNK5Yosys10PrettyHelp8log_helpEv
libyosys.so:_ZNK5Yosys11MemContents11count_rangeEjj
libyosys.so:_ZNK5Yosys11MemContents15_range_containsESt17_Rb_tree_iteratorISt4pairIKjNS_5RTLIL5ConstEEEj
libyosys.so:_ZNK5Yosys11MemContents15_range_containsESt17_Rb_tree_iteratorISt4pairIKjNS_5RTLIL5ConstEEEjj
libyosys.so:_ZNK5Yosys11MemContents15_range_overlapsESt17_Rb_tree_iteratorISt4pairIKjNS_5RTLIL5ConstEEEjj
libyosys.so:_ZNK5Yosys11MemContents9_range_atEj
libyosys.so:_ZNK5Yosys11MemContentsixEj
libyosys.so:_ZNK5Yosys11ReadWitness8get_bitsEiii
libyosys.so:_ZNK5Yosys12define_map_t3logEv
libyosys.so:_ZNK5Yosys12define_map_t4findERKNSt7__cxx1112basic_stringIcSt11char_traitsIcESaIcEEE
libyosys.so:_ZNK5Yosys13LibertyParser5errorERKNSt7__cxx1112basic_stringIcSt11char_traitsIcESaIcEEE
libyosys.so:_ZNK5Yosys13LibertyParser5errorEv
libyosys.so:_ZNK5Yosys14ContentListing7to_jsonERKNSt10filesystem7__cxx114pathE
libyosys.so:_ZNK5Yosys14DriveChunkPort10can_appendERKNS_12DriveBitPortE
libyosys.so:_ZNK5Yosys14DriveChunkWire10can_appendERKNS_12DriveBitWireE
libyosys.so:_ZNK5Yosys16DriveChunkMarker10can_appendERKNS_14DriveBitMarkerE
libyosys.so:_ZNK5Yosys18DriveChunkMultiple10can_appendERKNS_16DriveBitMultipleE
libyosys.so:_ZNK5Yosys18DriveChunkMultiple10can_appendERKS0_
libyosys.so:_ZNK5Yosys18DriveChunkMultipleixEi
libyosys.so:_ZNK5Yosys3AST7AstNode10loc_stringB5cxx11Ev
libyosys.so:_ZNK5Yosys3AST7AstNode11asAttrConstEv
libyosys.so:_ZNK5Yosys3AST7AstNode11asParaConstEv
libyosys.so:_ZNK5Yosys3AST7AstNode11genBindingsEv
libyosys.so:_ZNK5Yosys3AST7AstNode12bits_only_01Ev
libyosys.so:_ZNK5Yosys3AST7AstNode17get_struct_memberEv
libyosys.so:_ZNK5Yosys3AST7AstNode21formatted_input_errorENSt7__cxx1112basic_stringIcSt11char_traitsIcESaIcEEE
libyosys.so:_ZNK5Yosys3AST7AstNode21is_recursive_functionEv
libyosys.so:_ZNK5Yosys3AST7AstNode21try_pop_module_prefixB5cxx11Ev
libyosys.so:_ZNK5Yosys3AST7AstNode5cloneEv
libyosys.so:_ZNK5Yosys3AST7AstNode6asBoolEv
libyosys.so:_ZNK5Yosys3AST7AstNode7dumpAstEP8_IO_FILENSt7__cxx1112basic_stringIcSt11char_traitsIcESaIcEEE
libyosys.so:_ZNK5Yosys3AST7AstNode7isConstEv
libyosys.so:_ZNK5Yosys3AST7AstNode8containsEPKS1_
libyosys.so:_ZNK5Yosys3AST7AstNode8dumpVlogEP8_IO_FILENSt7__cxx1112basic_stringIcSt11char_traitsIcESaIcEEE
libyosys.so:_ZNK5Yosys3AST7AstNode9cloneIntoERS1_
libyosys.so:_ZNK5Yosys3AST7AstNodeeqERKS1_
libyosys.so:_ZNK5Yosys3AST7AstNodeneERKS1_
libyosys.so:_ZNK5Yosys3AST7Binding8describeB5cxx11Ev
libyosys.so:_ZNK5Yosys3AST9AstModule10loadconfigEv
libyosys.so:_ZNK5Yosys3AST9AstModule5cloneEv
libyosys.so:_ZNK5Yosys3Aig9hash_intoENS_7hashlib11HasherDJB32E
libyosys.so:_ZNK5Yosys3AigeqERKS0_
libyosys.so:_ZNK5Yosys3Fmt10emit_rtlilEPNS_5RTLIL4CellE
libyosys.so:_ZNK5Yosys3Fmt11emit_cxxrtlERSoNSt7__cxx1112basic_stringIcSt11char_traitsIcESaIcEEESt8functionIFvRKNS_5RTLIL7SigSpecEEERKS7_
libyosys.so:_ZNK5Yosys3Fmt12emit_verilogEv
libyosys.so:_ZNK5Yosys3Fmt6renderB5cxx11Ev
libyosys.so:_ZNK5Yosys3Mem13get_init_dataEv
libyosys.so:_ZNK5Yosys5RTLIL10AttrObject13has_attributeENS0_8IdStringE
libyosys.so:_ZNK5Yosys5RTLIL10AttrObject18get_bool_attributeENS0_8IdStringE
libyosys.so:_ZNK5Yosys5RTLIL10AttrObject20get_intvec_attributeENS0_8IdStringE
libyosys.so:_ZNK5Yosys5RTLIL10AttrObject20get_string_attributeB5cxx11ENS0_8IdStringE
libyosys.so:_ZNK5Yosys5RTLIL10AttrObject21get_hdlname_attributeB5cxx11Ev
libyosys.so:_ZNK5Yosys5RTLIL10AttrObject21get_strpool_attributeB5cxx11ENS0_8IdStringE
libyosys.so:_ZNK5Yosys5RTLIL10SwitchRule5cloneEv
libyosys.so:_ZNK5Yosys5RTLIL10SwitchRule5emptyEv
libyosys.so:_ZNK5Yosys5RTLIL4Cell11connectionsEv
libyosys.so:_ZNK5Yosys5RTLIL4Cell11is_mem_cellEv
libyosys.so:_ZNK5Yosys5RTLIL4Cell12to_rtlil_strB5cxx11Ev
libyosys.so:_ZNK5Yosys5RTLIL4Cell13is_builtin_ffEv
libyosys.so:_ZNK5Yosys5RTLIL4Cell5inputENS0_8IdStringE
libyosys.so:_ZNK5Yosys5RTLIL4Cell5knownEv
libyosys.so:_ZNK5Yosys5RTLIL4Cell6outputENS0_8IdStringE
libyosys.so:_ZNK5Yosys5RTLIL4Cell7getPortENS0_8IdStringE
libyosys.so:_ZNK5Yosys5RTLIL4Cell7hasPortENS0_8IdStringE
libyosys.so:_ZNK5Yosys5RTLIL4Cell8getParamENS0_8IdStringE
libyosys.so:_ZNK5Yosys5RTLIL4Cell8hasParamENS0_8IdStringE
libyosys.so:_ZNK5Yosys5RTLIL4Cell8port_dirENS0_8IdStringE
libyosys.so:_ZNK5Yosys5RTLIL4Cell9has_memidEv
libyosys.so:_ZNK5Yosys5RTLIL4Wire12to_rtlil_strB5cxx11Ev
libyosys.so:_ZNK5Yosys5RTLIL5Const10try_as_intEb
libyosys.so:_ZNK5Yosys5RTLIL5Const12get_min_sizeEb
libyosys.so:_ZNK5Yosys5RTLIL5Const12is_fully_defEv
libyosys.so:_ZNK5Yosys5RTLIL5Const13decode_stringB5cxx11Ev
libyosys.so:_ZNK5Yosys5RTLIL5Const13is_fully_onesEv
libyosys.so:_ZNK5Yosys5RTLIL5Const13is_fully_zeroEv
libyosys.so:_ZNK5Yosys5RTLIL5Const14const_iteratordeEv
libyosys.so:_ZNK5Yosys5RTLIL5Const14is_fully_undefEv
libyosys.so:_ZNK5Yosys5RTLIL5Const15as_int_compressEb
libyosys.so:_ZNK5Yosys5RTLIL5Const17as_int_saturatingEb
libyosys.so:_ZNK5Yosys5RTLIL5Const18convertible_to_intEb
libyosys.so:_ZNK5Yosys5RTLIL5Const21is_fully_undef_x_onlyEv
libyosys.so:_ZNK5Yosys5RTLIL5Const4sizeEv
libyosys.so:_ZNK5Yosys5RTLIL5Const5emptyEv
libyosys.so:_ZNK5Yosys5RTLIL5Const6as_intEb
libyosys.so:_ZNK5Yosys5RTLIL5Const7as_boolEv
libyosys.so:_ZNK5Yosys5RTLIL5Const7extractEiiNS0_5StateE
libyosys.so:_ZNK5Yosys5RTLIL5Const7get_strB5cxx11Ev
libyosys.so:_ZNK5Yosys5RTLIL5Const7to_bitsEv
libyosys.so:_ZNK5Yosys5RTLIL5Const8get_bitsEv
libyosys.so:_ZNK5Yosys5RTLIL5Const9as_stringB5cxx11EPKc
libyosys.so:_ZNK5Yosys5RTLIL5Const9hash_intoENS_7hashlib11HasherDJB32E
libyosys.so:_ZNK5Yosys5RTLIL5Const9is_onehotEPi
libyosys.so:_ZNK5Yosys5RTLIL5ConsteqERKS1_
libyosys.so:_ZNK5Yosys5RTLIL5ConstltERKS1_
libyosys.so:_ZNK5Yosys5RTLIL5ConstneERKS1_
libyosys.so:_ZNK5Yosys5RTLIL6Design10top_moduleEv
libyosys.so:_ZNK5Yosys5RTLIL6Design12to_rtlil_strB5cxx11Eb
libyosys.so:_ZNK5Yosys5RTLIL6Design15selected_memberENS0_8IdStringES2_
libyosys.so:_ZNK5Yosys5RTLIL6Design15selected_moduleENS0_8IdStringE
libyosys.so:_ZNK5Yosys5RTLIL6Design15selected_moduleEPNS0_6ModuleE
libyosys.so:_ZNK5Yosys5RTLIL6Design16selected_modulesENS0_14SelectPartialsENS0_11SelectBoxesE
libyosys.so:_ZNK5Yosys5RTLIL6Design18scratchpad_get_intERKNSt7__cxx1112basic_stringIcSt11char_traitsIcESaIcEEEi
libyosys.so:_ZNK5Yosys5RTLIL6Design19scratchpad_get_boolERKNSt7__cxx1112basic_stringIcSt11char_traitsIcESaIcEEEb
libyosys.so:_ZNK5Yosys5RTLIL6Design21scratchpad_get_stringERKNSt7__cxx1112basic_stringIcSt11char_traitsIcESaIcEEES9_
libyosys.so:_ZNK5Yosys5RTLIL6Design21selected_whole_moduleENS0_8IdStringE
libyosys.so:_ZNK5Yosys5RTLIL6Design21selected_whole_moduleEPNS0_6ModuleE
libyosys.so:_ZNK5Yosys5RTLIL6Design6moduleENS0_8IdStringE
libyosys.so:_ZNK5Yosys5RTLIL6Memory12to_rtlil_strB5cxx11Ev
libyosys.so:_ZNK5Yosys5RTLIL6Module11connectionsEv
libyosys.so:_ZNK5Yosys5RTLIL6Module11is_selectedEv
libyosys.so:_ZNK5Yosys5RTLIL6Module12has_memoriesEv
libyosys.so:_ZNK5Yosys5RTLIL6Module12to_rtlil_strB5cxx11Ev
libyosys.so:_ZNK5Yosys5RTLIL6Module13has_processesEv
libyosys.so:_ZNK5Yosys5RTLIL6Module14selected_cellsEv
libyosys.so:_ZNK5Yosys5RTLIL6Module14selected_wiresEv
libyosys.so:_ZNK5Yosys5RTLIL6Module16selected_membersEv
libyosys.so:_ZNK5Yosys5RTLIL6Module17has_memories_warnEv
libyosys.so:_ZNK5Yosys5RTLIL6Module17is_selected_wholeEv
libyosys.so:_ZNK5Yosys5RTLIL6Module17selected_memoriesEv
libyosys.so:_ZNK5Yosys5RTLIL6Module18has_processes_warnEv
libyosys.so:_ZNK5Yosys5RTLIL6Module18selected_processesEv
libyosys.so:_ZNK5Yosys5RTLIL6Module5cloneEv
libyosys.so:_ZNK5Yosys5RTLIL6Module9cloneIntoEPS1_
libyosys.so:_ZNK5Yosys5RTLIL7Process12to_rtlil_strB5cxx11Ev
libyosys.so:_ZNK5Yosys5RTLIL7Process5cloneEv
libyosys.so:_ZNK5Yosys5RTLIL7SigSpec10try_as_intEb
libyosys.so:_ZNK5Yosys5RTLIL7SigSpec12is_fully_defEv
libyosys.so:_ZNK5Yosys5RTLIL7SigSpec12known_driverEv
libyosys.so:_ZNK5Yosys5RTLIL7SigSpec12try_as_constEv
libyosys.so:_ZNK5Yosys5RTLIL7SigSpec13is_fully_onesEv
libyosys.so:_ZNK5Yosys5RTLIL7SigSpec13is_fully_zeroEv
libyosys.so:_ZNK5Yosys5RTLIL7SigSpec13to_sigbit_mapERKS1_
libyosys.so:_ZNK5Yosys5RTLIL7SigSpec13to_sigbit_setEv
libyosys.so:_ZNK5Yosys5RTLIL7SigSpec14is_fully_constEv
libyosys.so:_ZNK5Yosys5RTLIL7SigSpec14is_fully_undefEv
libyosys.so:_ZNK5Yosys5RTLIL7SigSpec14to_sigbit_dictERKS1_
libyosys.so:_ZNK5Yosys5RTLIL7SigSpec14to_sigbit_poolEv
libyosys.so:_ZNK5Yosys5RTLIL7SigSpec15has_marked_bitsEv
libyosys.so:_ZNK5Yosys5RTLIL7SigSpec16to_sigbit_vectorEv
libyosys.so:_ZNK5Yosys5RTLIL7SigSpec17as_int_saturatingEb
libyosys.so:_ZNK5Yosys5RTLIL7SigSpec18convertible_to_intEb
libyosys.so:_ZNK5Yosys5RTLIL7SigSpec5checkEPKNS0_6ModuleE
libyosys.so:_ZNK5Yosys5RTLIL7SigSpec5matchEPKc
libyosys.so:_ZNK5Yosys5RTLIL7SigSpec6as_bitEv
libyosys.so:_ZNK5Yosys5RTLIL7SigSpec6as_intEb
libyosys.so:_ZNK5Yosys5RTLIL7SigSpec6removeERKNS_7hashlib4poolINS0_6SigBitENS2_8hash_opsIS4_EEEEPS1_
libyosys.so:_ZNK5Yosys5RTLIL7SigSpec6removeERKS1_PS1_
libyosys.so:_ZNK5Yosys5RTLIL7SigSpec6repeatEi
libyosys.so:_ZNK5Yosys5RTLIL7SigSpec7as_boolEv
libyosys.so:_ZNK5Yosys5RTLIL7SigSpec7as_wireEv
libyosys.so:_ZNK5Yosys5RTLIL7SigSpec7extractERKNS_7hashlib4poolINS0_6SigBitENS2_8hash_opsIS4_EEEEPKS1_
libyosys.so:_ZNK5Yosys5RTLIL7SigSpec7extractERKS1_PS2_
libyosys.so:_ZNK5Yosys5RTLIL7SigSpec7extractEii
libyosys.so:_ZNK5Yosys5RTLIL7SigSpec7is_wireEv
libyosys.so:_ZNK5Yosys5RTLIL7SigSpec7replaceERKNS_7hashlib4dictINS0_6SigBitES4_NS2_8hash_opsIS4_EEEEPS1_
libyosys.so:_ZNK5Yosys5RTLIL7SigSpec7replaceERKS1_S3_PS1_
libyosys.so:_ZNK5Yosys5RTLIL7SigSpec7replaceERKSt3mapINS0_6SigBitES3_St4lessIS3_ESaISt4pairIKS3_S3_EEEPS1_
libyosys.so:_ZNK5Yosys5RTLIL7SigSpec7updhashEv
libyosys.so:_ZNK5Yosys5RTLIL7SigSpec8as_chunkEv
libyosys.so:_ZNK5Yosys5RTLIL7SigSpec8as_constEv
libyosys.so:_ZNK5Yosys5RTLIL7SigSpec8is_chunkEv
libyosys.so:_ZNK5Yosys5RTLIL7SigSpec9as_stringB5cxx11Ev
libyosys.so:_ZNK5Yosys5RTLIL7SigSpec9has_constENS0_5StateE
libyosys.so:_ZNK5Yosys5RTLIL7SigSpec9has_constEv
libyosys.so:_ZNK5Yosys5RTLIL7SigSpec9is_onehotEPi
libyosys.so:_ZNK5Yosys5RTLIL7SigSpeccvSt6vectorINS0_8SigChunkESaIS3_EEEv
libyosys.so:_ZNK5Yosys5RTLIL7SigSpeceqERKS1_
libyosys.so:_ZNK5Yosys5RTLIL7SigSpecltERKS1_
libyosys.so:_ZNK5Yosys5RTLIL8CaseRule5cloneEv
libyosys.so:_ZNK5Yosys5RTLIL8CaseRule5emptyEv
libyosys.so:_ZNK5Yosys5RTLIL8SigChunk7extractEii
libyosys.so:_ZNK5Yosys5RTLIL8SigChunkeqERKS1_
libyosys.so:_ZNK5Yosys5RTLIL8SigChunkixEi
libyosys.so:_ZNK5Yosys5RTLIL8SigChunkltERKS1_
libyosys.so:_ZNK5Yosys5RTLIL8SigChunkneERKS1_
libyosys.so:_ZNK5Yosys5RTLIL8SyncRule5cloneEv
libyosys.so:_ZNK5Yosys5RTLIL9Selection12boxed_moduleENS0_8IdStringE
libyosys.so:_ZNK5Yosys5RTLIL9Selection15selected_memberENS0_8IdStringES2_
libyosys.so:_ZNK5Yosys5RTLIL9Selection15selected_moduleENS0_8IdStringE
libyosys.so:_ZNK5Yosys5RTLIL9Selection21selected_whole_moduleENS0_8IdStringE
libyosys.so:_ZNK5Yosys5SExpr9to_stringB5cxx11Ev
libyosys.so:_ZNK5Yosys6IdPath11get_addressERi
libyosys.so:_ZNK5Yosys6IdPath3strB5cxx11Ev
libyosys.so:_ZNK5Yosys7AigNode9hash_intoENS_7hashlib11HasherDJB32E
libyosys.so:_ZNK5Yosys7AigNodeeqERKS0_
libyosys.so:_ZNK5Yosys9DriveSpec4packEv
libyosys.so:_ZNK5Yosys9DriveSpec6unpackEv
libyosys.so:_ZNK5ezSAT10getFullCnfERSt6vectorIS0_IiSaIiEESaIS2_EE
libyosys.so:_ZNK5ezSAT10vec_appendERSt6vectorIiSaIiEERKS2_
libyosys.so:_ZNK5ezSAT11printDIMACSEP8_IO_FILEbRKSt6vectorIS2_IiSaIiEESaIS4_EE
libyosys.so:_ZNK5ezSAT14cnfLiteralInfoB5cxx11Ei
libyosys.so:_ZNK5ezSAT14lookup_literalB5cxx11Ei
libyosys.so:_ZNK5ezSAT14lookup_literalEiRNSt7__cxx1112basic_stringIcSt11char_traitsIcESaIcEEE
libyosys.so:_ZNK5ezSAT17lookup_expressionEiRNS_4OpIdE
libyosys.so:_ZNK5ezSAT17lookup_expressionEiRNS_4OpIdERSt6vectorIiSaIiEE
libyosys.so:_ZNK5ezSAT18printInternalStateEP8_IO_FILE
libyosys.so:_ZNK5ezSAT20vec_model_get_signedERKSt6vectorIiSaIiEERKS0_IbSaIbEES4_
libyosys.so:_ZNK5ezSAT22vec_model_get_unsignedERKSt6vectorIiSaIiEERKS0_IbSaIbEES4_
libyosys.so:_ZNK5ezSAT4evalEiRKSt6vectorIiSaIiEE
libyosys.so:_ZNK5ezSAT5boundEi
libyosys.so:_ZNK5ezSAT9to_stringB5cxx11Ei
libyosys.so:_ZNK6json1110JsonObjectixERKNSt7__cxx1112basic_stringIcSt11char_traitsIcESaIcEEE
libyosys.so:_ZNK6json114Json10bool_valueEv
libyosys.so:_ZNK6json114Json11array_itemsEv
libyosys.so:_ZNK6json114Json12number_valueEv
libyosys.so:_ZNK6json114Json12object_itemsB5cxx11Ev
libyosys.so:_ZNK6json114Json12string_valueB5cxx11Ev
libyosys.so:_ZNK6json114Json4dumpERNSt7__cxx1112basic_stringIcSt11char_traitsIcESaIcEEE
libyosys.so:_ZNK6json114Json4typeEv
libyosys.so:_ZNK6json114Json9has_shapeERKSt16initializer_listISt4pairINSt7__cxx1112basic_stringIcSt11char_traitsIcESaIcEEENS0_4TypeEEERS8_
libyosys.so:_ZNK6json114Json9int_valueEv
libyosys.so:_ZNK6json114JsoneqERKS0_
libyosys.so:_ZNK6json114JsonixERKNSt7__cxx1112basic_stringIcSt11char_traitsIcESaIcEEE
libyosys.so:_ZNK6json114JsonixEm
libyosys.so:_ZNK6json114JsonltERKS0_
libyosys.so:_ZNK6json119JsonArrayixEm
libyosys.so:_ZNK6json119JsonValue10bool_valueEv
libyosys.so:_ZNK6json119JsonValue11array_itemsEv
libyosys.so:_ZNK6json119JsonValue12number_valueEv
libyosys.so:_ZNK6json119JsonValue12object_itemsB5cxx11Ev
libyosys.so:_ZNK6json119JsonValue12string_valueB5cxx11Ev
libyosys.so:_ZNK6json119JsonValue9int_valueEv
libyosys.so:_ZNK6json119JsonValueixERKNSt7__cxx1112basic_stringIcSt11char_traitsIcESaIcEEE
libyosys.so:_ZNK6json119JsonValueixEm
libyosys.so:_ZNK7Minisat6Solver10printStatsEv
libyosys.so:_ZNK7Minisat6Solver16progressEstimateEv
libyosys.so:_ZNK7Minisat6Solver9satisfiedERKNS_6ClauseE
libyosys.so:_ZTI12ezCmdlineSAT
libyosys.so:_ZTI28frontend_verilog_yyFlexLexer
libyosys.so:_ZTI5ezSAT
libyosys.so:_ZTI9ezMiniSAT
libyosys.so:_ZTIN10SubCircuit6SolverE
libyosys.so:_ZTIN19frontend_verilog_yy6parser12syntax_errorE
libyosys.so:_ZTIN19frontend_verilog_yy6parserE
libyosys.so:_ZTIN5Yosys12gzip_istream4ibufE
libyosys.so:_ZTIN5Yosys12gzip_ostream4obufE
libyosys.so:_ZTIN5Yosys3AST7BindingE
libyosys.so:_ZTIN5Yosys3AST9AstModuleE
libyosys.so:_ZTIN5Yosys4PassE
libyosys.so:_ZTIN5Yosys5RTLIL6ModuleE
libyosys.so:_ZTIN5Yosys7BackendE
libyosys.so:_ZTIN5Yosys8FrontendE
libyosys.so:_ZTIN6json1110JsonObjectE
libyosys.so:_ZTIN6json119JsonArrayE
libyosys.so:_ZTIN6json119JsonValueE
libyosys.so:_ZTIN7Minisat10SimpSolverE
libyosys.so:_ZTIN7Minisat6SolverE
libyosys.so:_ZTS12ezCmdlineSAT
libyosys.so:_ZTS28frontend_verilog_yyFlexLexer
libyosys.so:_ZTS5ezSAT
libyosys.so:_ZTS9ezMiniSAT
libyosys.so:_ZTSN10SubCircuit6SolverE
libyosys.so:_ZTSN19frontend_verilog_yy6parser12syntax_errorE
libyosys.so:_ZTSN19frontend_verilog_yy6parserE
libyosys.so:_ZTSN5Yosys12gzip_istream4ibufE
libyosys.so:_ZTSN5Yosys12gzip_ostream4obufE
libyosys.so:_ZTSN5Yosys3AST7BindingE
libyosys.so:_ZTSN5Yosys3AST9AstModuleE
libyosys.so:_ZTSN5Yosys4PassE
libyosys.so:_ZTSN5Yosys5RTLIL6ModuleE
libyosys.so:_ZTSN5Yosys7BackendE
libyosys.so:_ZTSN5Yosys8FrontendE
libyosys.so:_ZTSN6json1110JsonObjectE
libyosys.so:_ZTSN6json119JsonArrayE
libyosys.so:_ZTSN6json119JsonValueE
libyosys.so:_ZTSN7Minisat10SimpSolverE
libyosys.so:_ZTSN7Minisat6SolverE
libyosys.so:_ZTV12ezCmdlineSAT
libyosys.so:_ZTV28frontend_verilog_yyFlexLexer
libyosys.so:_ZTV5ezSAT
libyosys.so:_ZTV9ezMiniSAT
libyosys.so:_ZTVN10SubCircuit6SolverE
libyosys.so:_ZTVN19frontend_verilog_yy6parser12syntax_errorE
libyosys.so:_ZTVN19frontend_verilog_yy6parserE
libyosys.so:_ZTVN5Yosys12gzip_istream4ibufE
libyosys.so:_ZTVN5Yosys12gzip_ostream4obufE
libyosys.so:_ZTVN5Yosys3AST7BindingE
libyosys.so:_ZTVN5Yosys3AST9AstModuleE
libyosys.so:_ZTVN5Yosys4PassE
libyosys.so:_ZTVN5Yosys5RTLIL6ModuleE
libyosys.so:_ZTVN5Yosys7BackendE
libyosys.so:_ZTVN5Yosys8FrontendE
libyosys.so:_ZTVN6json1110JsonObjectE
libyosys.so:_ZTVN6json119JsonArrayE
libyosys.so:_ZTVN6json119JsonValueE
libyosys.so:_ZTVN7Minisat10SimpSolverE
libyosys.so:_ZTVN7Minisat6SolverE
libyosys.so:_ZlsRSoRK10BigInteger
libyosys.so:_ZlsRSoRK11BigUnsigned
libyosys.so:current_help
libyosys.so:fastlz_compress
libyosys.so:fastlz_compress_level
libyosys.so:fastlz_decompress
libyosys.so:fstReaderClose
libyosys.so:fstReaderClrFacProcessMask
libyosys.so:fstReaderClrFacProcessMaskAll
libyosys.so:fstReaderGetAliasCount
libyosys.so:fstReaderGetCurrentFlatScope
libyosys.so:fstReaderGetCurrentScopeLen
libyosys.so:fstReaderGetCurrentScopeUserInfo
libyosys.so:fstReaderGetDateString
libyosys.so:fstReaderGetDoubleEndianMatchState
libyosys.so:fstReaderGetDumpActivityChangeTime
libyosys.so:fstReaderGetDumpActivityChangeValue
libyosys.so:fstReaderGetEndTime
libyosys.so:fstReaderGetFacProcessMask
libyosys.so:fstReaderGetFileType
libyosys.so:fstReaderGetFseekFailed
libyosys.so:fstReaderGetMaxHandle
libyosys.so:fstReaderGetMemoryUsedByWriter
libyosys.so:fstReaderGetNumberDumpActivityChanges
libyosys.so:fstReaderGetScopeCount
libyosys.so:fstReaderGetStartTime
libyosys.so:fstReaderGetTimescale
libyosys.so:fstReaderGetTimezero
libyosys.so:fstReaderGetValueChangeSectionCount
libyosys.so:fstReaderGetValueFromHandleAtTime
libyosys.so:fstReaderGetVarCount
libyosys.so:fstReaderGetVersionString
libyosys.so:fstReaderIterBlocks
libyosys.so:fstReaderIterBlocks2
libyosys.so:fstReaderIterBlocksSetNativeDoublesOnCallback
libyosys.so:fstReaderIterateHier
libyosys.so:fstReaderIterateHierRewind
libyosys.so:fstReaderOpen
libyosys.so:fstReaderOpenForUtilitiesOnly
libyosys.so:fstReaderPopScope
libyosys.so:fstReaderProcessHier
libyosys.so:fstReaderPushScope
libyosys.so:fstReaderResetScope
libyosys.so:fstReaderSetFacProcessMask
libyosys.so:fstReaderSetFacProcessMaskAll
libyosys.so:fstReaderSetLimitTimeRange
libyosys.so:fstReaderSetUnlimitedTimeRange
libyosys.so:fstReaderSetVcdExtensions
libyosys.so:fstUtilityBinToEsc
libyosys.so:fstUtilityBinToEscConvertedLen
libyosys.so:fstUtilityEscToBin
libyosys.so:fstUtilityExtractEnumTableFromString
libyosys.so:fstUtilityFreeEnumTable
libyosys.so:fstWriterClose
libyosys.so:fstWriterCreate
libyosys.so:fstWriterCreateEnumTable
libyosys.so:fstWriterCreateVar
libyosys.so:fstWriterCreateVar2
libyosys.so:fstWriterEmitDumpActive
libyosys.so:fstWriterEmitEnumTableRef
libyosys.so:fstWriterEmitTimeChange
libyosys.so:fstWriterEmitValueChange
libyosys.so:fstWriterEmitValueChange32
libyosys.so:fstWriterEmitValueChange64
libyosys.so:fstWriterEmitValueChangeVec32
libyosys.so:fstWriterEmitValueChangeVec64
libyosys.so:fstWriterEmitVariableLengthValueChange
libyosys.so:fstWriterFlushContext
libyosys.so:fstWriterGetDumpSizeLimitReached
libyosys.so:fstWriterGetFlushContextPending
libyosys.so:fstWriterGetFseekFailed
libyosys.so:fstWriterSetAttrBegin
libyosys.so:fstWriterSetAttrEnd
libyosys.so:fstWriterSetComment
libyosys.so:fstWriterSetDate
libyosys.so:fstWriterSetDumpSizeLimit
libyosys.so:fstWriterSetEnvVar
libyosys.so:fstWriterSetFileType
libyosys.so:fstWriterSetPackType
libyosys.so:fstWriterSetParallelMode
libyosys.so:fstWriterSetRepackOnClose
libyosys.so:fstWriterSetScope
libyosys.so:fstWriterSetSourceInstantiationStem
libyosys.so:fstWriterSetSourceStem
libyosys.so:fstWriterSetTimescale
libyosys.so:fstWriterSetTimescaleFromString
libyosys.so:fstWriterSetTimezero
libyosys.so:fstWriterSetUpscope
libyosys.so:fstWriterSetValueList
libyosys.so:fstWriterSetVersion
yosys:LZ4_attach_dictionary
yosys:LZ4_compress
yosys:LZ4_compressBound
yosys:LZ4_compress_continue
yosys:LZ4_compress_default
yosys:LZ4_compress_destSize
yosys:LZ4_compress_destSize_extState
yosys:LZ4_compress_fast
yosys:LZ4_compress_fast_continue
yosys:LZ4_compress_fast_extState
yosys:LZ4_compress_fast_extState_fastReset
yosys:LZ4_compress_forceExtDict
yosys:LZ4_compress_limitedOutput
yosys:LZ4_compress_limitedOutput_continue
yosys:LZ4_compress_limitedOutput_withState
yosys:LZ4_compress_withState
yosys:LZ4_create
yosys:LZ4_createStream
yosys:LZ4_createStreamDecode
yosys:LZ4_decoderRingBufferSize
yosys:LZ4_decompress_fast
yosys:LZ4_decompress_fast_continue
yosys:LZ4_decompress_fast_usingDict
yosys:LZ4_decompress_fast_withPrefix64k
yosys:LZ4_decompress_safe
yosys:LZ4_decompress_safe_continue
yosys:LZ4_decompress_safe_forceExtDict
yosys:LZ4_decompress_safe_partial
yosys:LZ4_decompress_safe_partial_forceExtDict
yosys:LZ4_decompress_safe_partial_usingDict
yosys:LZ4_decompress_safe_usingDict
yosys:LZ4_decompress_safe_withPrefix64k
yosys:LZ4_freeStream
yosys:LZ4_freeStreamDecode
yosys:LZ4_initStream
yosys:LZ4_loadDict
yosys:LZ4_loadDictSlow
yosys:LZ4_resetStream
yosys:LZ4_resetStreamState
yosys:LZ4_resetStream_fast
yosys:LZ4_saveDict
yosys:LZ4_setStreamDecode
yosys:LZ4_sizeofState
yosys:LZ4_sizeofStreamState
yosys:LZ4_slideInputBuffer
yosys:LZ4_uncompress
yosys:LZ4_uncompress_unknownOutputSize
yosys:LZ4_versionNumber
yosys:LZ4_versionString
yosys:PyInit_libyosys
yosys:PyInit_libyosys_dummy
yosys:PyInit_pyosys
yosys:_IO_stdin_used
yosys:_Z10JenkinsInsPvPKhjj
yosys:_Z11JenkinsFreePvj
yosys:_Z12log_body_strRKNSt7__cxx1112basic_stringIcSt11char_traitsIcESaIcEEES4_bb
yosys:_Z12yosys_atexitv
yosys:_Z13fold_abc9_cmdNSt7__cxx1112basic_stringIcSt11char_traitsIcESaIcEEE
yosys:_Z13fstReaderInitP16fstReaderContext
yosys:_Z13max_inp_widthPN5Yosys5RTLIL4CellE
yosys:_Z14port_width_sumPN5Yosys5RTLIL4CellE
yosys:_Z15fstReaderFseekoP16fstReaderContextP8_IO_FILEli
yosys:_Z17escape_cxx_stringRKNSt7__cxx1112basic_stringIcSt11char_traitsIcESaIcEEE
yosys:_Z17extendedEuclidean10BigIntegerS_RS_S0_S0_
yosys:_Z18bigIntegerToStringB5cxx11RK10BigInteger
yosys:_Z18stringToBigIntegerRKNSt7__cxx1112basic_stringIcSt11char_traitsIcESaIcEEE
yosys:_Z18yosys_history_fileB5cxx11
yosys:_Z19bigUnsignedToStringB5cxx11RK11BigUnsigned
yosys:_Z19stringToBigUnsignedRKNSt7__cxx1112basic_stringIcSt11char_traitsIcESaIcEEE
yosys:_Z22frontend_verilog_yylexPN5Yosys16VERILOG_FRONTEND12VerilogLexerE
yosys:_Z23frontend_verilog_yyfreePv
yosys:_Z24frontend_verilog_yyallocm
yosys:_Z26frontend_verilog_yyreallocPvm
yosys:_Z3gcd11BigUnsignedS_
yosys:_Z4sha1RKNSt7__cxx1112basic_stringIcSt11char_traitsIcESaIcEEE
yosys:_Z4warnNSt7__cxx1112basic_stringIcSt11char_traitsIcESaIcEEE
yosys:_Z6modexpRK10BigIntegerRK11BigUnsignedS4_
yosys:_Z6modinvRK10BigIntegerRK11BigUnsigned
yosys:_Z8char_tokc8Location
yosys:_Z8log_bodyRKN5Yosys14ContentListingEib
yosys:_ZN10BigInteger19divideWithRemainderERKS_RS_
yosys:_ZN10BigInteger3addERKS_S1_
yosys:_ZN10BigInteger6negateERKS_
yosys:_ZN10BigInteger8multiplyERKS_S1_
yosys:_ZN10BigInteger8subtractERKS_S1_
yosys:_ZN10BigIntegerC1EPKmjNS_4SignE
yosys:_ZN10BigIntegerC1ERK11BigUnsignedNS_4SignE
yosys:_ZN10BigIntegerC1Ei
yosys:_ZN10BigIntegerC1Ej
yosys:_ZN10BigIntegerC1El
yosys:_ZN10BigIntegerC1Em
yosys:_ZN10BigIntegerC1Es
yosys:_ZN10BigIntegerC1Et
yosys:_ZN10BigIntegerC2EPKmjNS_4SignE
yosys:_ZN10BigIntegerC2ERK11BigUnsignedNS_4SignE
yosys:_ZN10BigIntegerC2Ei
yosys:_ZN10BigIntegerC2Ej
yosys:_ZN10BigIntegerC2El
yosys:_ZN10BigIntegerC2Em
yosys:_ZN10BigIntegerC2Es
yosys:_ZN10BigIntegerC2Et
yosys:_ZN10BigIntegeraSERKS_
yosys:_ZN10BigIntegermmEi
yosys:_ZN10BigIntegermmEv
yosys:_ZN10BigIntegerppEi
yosys:_ZN10BigIntegerppEv
yosys:_ZN10SubCircuit5Graph10createNodeENSt7__cxx1112basic_stringIcSt11char_traitsIcESaIcEEES6_Pvb
yosys:_ZN10SubCircuit5Graph10createPortENSt7__cxx1112basic_stringIcSt11char_traitsIcESaIcEEES6_ii
yosys:_ZN10SubCircuit5Graph10markExternENSt7__cxx1112basic_stringIcSt11char_traitsIcESaIcEEES6_i
yosys:_ZN10SubCircuit5Graph13markAllExternEv
yosys:_ZN10SubCircuit5Graph14createConstantENSt7__cxx1112basic_stringIcSt11char_traitsIcESaIcEEES6_i
yosys:_ZN10SubCircuit5Graph14createConstantENSt7__cxx1112basic_stringIcSt11char_traitsIcESaIcEEES6_ii
yosys:_ZN10SubCircuit5Graph16createConnectionENSt7__cxx1112basic_stringIcSt11char_traitsIcESaIcEEES6_S6_S6_
yosys:_ZN10SubCircuit5Graph16createConnectionENSt7__cxx1112basic_stringIcSt11char_traitsIcESaIcEEES6_iS6_S6_ii
yosys:_ZN10SubCircuit5Graph5printEv
yosys:_ZN10SubCircuit5GraphC1ERKS0_RKSt6vectorINSt7__cxx1112basic_stringIcSt11char_traitsIcESaIcEEESaIS9_EE
yosys:_ZN10SubCircuit5GraphC2ERKS0_RKSt6vectorINSt7__cxx1112basic_stringIcSt11char_traitsIcESaIcEEESaIS9_EE
yosys:_ZN10SubCircuit6Solver10setVerboseEv
yosys:_ZN10SubCircuit6Solver11clearConfigEv
yosys:_ZN10SubCircuit6Solver15userCompareEdgeERKNSt7__cxx1112basic_stringIcSt11char_traitsIcESaIcEEES8_PvS8_S9_S8_S8_S9_S8_S9_
yosys:_ZN10SubCircuit6Solver16userAnnotateEdgeERKNSt7__cxx1112basic_stringIcSt11char_traitsIcESaIcEEES8_PvS8_S9_
yosys:_ZN10SubCircuit6Solver16userCompareNodesERKNSt7__cxx1112basic_stringIcSt11char_traitsIcESaIcEEES8_PvS8_S8_S9_RKSt3mapIS6_S6_St4lessIS6_ESaISt4pairIS7_S6_EEE
yosys:_ZN10SubCircuit6Solver17addSwappablePortsENSt7__cxx1112basic_stringIcSt11char_traitsIcESaIcEEES6_S6_S6_S6_
yosys:_ZN10SubCircuit6Solver17addSwappablePortsENSt7__cxx1112basic_stringIcSt11char_traitsIcESaIcEEESt3setIS6_St4lessIS6_ESaIS6_EE
yosys:_ZN10SubCircuit6Solver17userCheckSolutionERKNS0_6ResultE
yosys:_ZN10SubCircuit6Solver18addCompatibleTypesENSt7__cxx1112basic_stringIcSt11char_traitsIcESaIcEEES6_
yosys:_ZN10SubCircuit6Solver19clearOverlapHistoryEv
yosys:_ZN10SubCircuit6Solver22addCompatibleConstantsEii
yosys:_ZN10SubCircuit6Solver28addSwappablePortsPermutationENSt7__cxx1112basic_stringIcSt11char_traitsIcESaIcEEESt3mapIS6_S6_St4lessIS6_ESaISt4pairIKS6_S6_EEE
yosys:_ZN10SubCircuit6Solver4mineERSt6vectorINS0_10MineResultESaIS2_EEiiii
yosys:_ZN10SubCircuit6Solver5solveERSt6vectorINS0_6ResultESaIS2_EENSt7__cxx1112basic_stringIcSt11char_traitsIcESaIcEEESB_RKSt3mapISB_St3setISB_St4lessISB_ESaISB_EESF_SaISt4pairIKSB_SH_EEEbi
yosys:_ZN10SubCircuit6Solver5solveERSt6vectorINS0_6ResultESaIS2_EENSt7__cxx1112basic_stringIcSt11char_traitsIcESaIcEEESB_bi
yosys:_ZN10SubCircuit6Solver8addGraphENSt7__cxx1112basic_stringIcSt11char_traitsIcESaIcEEERKNS_5GraphE
yosys:_ZN10SubCircuit6SolverC1Ev
yosys:_ZN10SubCircuit6SolverC2Ev
yosys:_ZN10SubCircuit6SolverD0Ev
yosys:_ZN10SubCircuit6SolverD1Ev
yosys:_ZN10SubCircuit6SolverD2Ev
yosys:_ZN11BigUnsigned12bitShiftLeftERKS_i
yosys:_ZN11BigUnsigned13bitShiftRightERKS_i
yosys:_ZN11BigUnsigned19divideWithRemainderERKS_RS_
yosys:_ZN11BigUnsigned3addERKS_S1_
yosys:_ZN11BigUnsigned5bitOrERKS_S1_
yosys:_ZN11BigUnsigned6bitAndERKS_S1_
yosys:_ZN11BigUnsigned6bitXorERKS_S1_
yosys:_ZN11BigUnsigned6setBitEjb
yosys:_ZN11BigUnsigned8multiplyERKS_S1_
yosys:_ZN11BigUnsigned8setBlockEjm
yosys:_ZN11BigUnsigned8subtractERKS_S1_
yosys:_ZN11BigUnsignedC1Ei
yosys:_ZN11BigUnsignedC1Ej
yosys:_ZN11BigUnsignedC1El
yosys:_ZN11BigUnsignedC1Em
yosys:_ZN11BigUnsignedC1Es
yosys:_ZN11BigUnsignedC1Et
yosys:_ZN11BigUnsignedC2Ei
yosys:_ZN11BigUnsignedC2Ej
yosys:_ZN11BigUnsignedC2El
yosys:_ZN11BigUnsignedC2Em
yosys:_ZN11BigUnsignedC2Es
yosys:_ZN11BigUnsignedC2Et
yosys:_ZN11BigUnsignedmmEi
yosys:_ZN11BigUnsignedmmEv
yosys:_ZN11BigUnsignedppEi
yosys:_ZN11BigUnsignedppEv
yosys:_ZN12ezCmdlineSAT6solverERKSt6vectorIiSaIiEERS0_IbSaIbEES4_
yosys:_ZN12ezCmdlineSATC1ERKNSt7__cxx1112basic_stringIcSt11char_traitsIcESaIcEEE
yosys:_ZN12ezCmdlineSATC2ERKNSt7__cxx1112basic_stringIcSt11char_traitsIcESaIcEEE
yosys:_ZN12ezCmdlineSATD0Ev
yosys:_ZN12ezCmdlineSATD1Ev
yosys:_ZN12ezCmdlineSATD2Ev
yosys:_ZN14slang_frontend10format_srcB5cxx11EN5slang11SourceRangeE
yosys:_ZN14slang_frontend10scope_pathEPKN5slang3ast5ScopeEb
yosys:_ZN14slang_frontend11EvalContext11eval_signedERKN5slang3ast10ExpressionE
yosys:_ZN14slang_frontend11EvalContext13streaming_lhsERKN5slang3ast32StreamingConcatenationExpressionE
yosys:_ZN14slang_frontend11EvalContext14connection_lhsERKN5slang3ast20AssignmentExpressionE
yosys:_ZN14slang_frontend11EvalContext15find_nest_levelEPKN5slang3ast5ScopeE
yosys:_ZN14slang_frontend11EvalContext16apply_conversionERKN5slang3ast20ConversionExpressionEN5Yosys5RTLIL7SigSpecE
yosys:_ZN14slang_frontend11EvalContext23apply_nested_conversionERKN5slang3ast10ExpressionEN5Yosys5RTLIL7SigSpecE
yosys:_ZN14slang_frontend11EvalContext3lhsERKN5slang3ast10ExpressionEb
yosys:_ZN14slang_frontend11EvalContext3svaERKN5slang3ast10ExpressionE
yosys:_ZN14slang_frontend11EvalContext8variableERKN5slang3ast11ValueSymbolE
yosys:_ZN14slang_frontend11EvalContext9streamingERKN5slang3ast32StreamingConcatenationExpressionE
yosys:_ZN14slang_frontend11EvalContextC1ERNS_14NetlistContextE
yosys:_ZN14slang_frontend11EvalContextC1ERNS_17ProceduralContextE
yosys:_ZN14slang_frontend11EvalContextC2ERNS_14NetlistContextE
yosys:_ZN14slang_frontend11EvalContextC2ERNS_17ProceduralContextE
yosys:_ZN14slang_frontend11EvalContextclERKN5slang3ast10ExpressionE
yosys:_ZN14slang_frontend11ThreeValued2OREii
yosys:_ZN14slang_frontend11ThreeValued3ANDEii
yosys:_ZN14slang_frontend11ThreeValued3NOTEi
yosys:_ZN14slang_frontend11ThreeValued3XOREii
yosys:_ZN14slang_frontend11ThreeValued4XNOREii
yosys:_ZN14slang_frontend11ThreeValued5CARRYEiii
yosys:_ZN14slang_frontend11ThreeValued7convertEN5Yosys5RTLIL6SigBitE
yosys:_ZN14slang_frontend11handle_pastERNS_11EvalContextERKN5slang3ast14CallExpressionE
yosys:_ZN14slang_frontend12RTLILBuilder10EqWildcardEN5Yosys5RTLIL7SigSpecES3_
yosys:_ZN14slang_frontend12RTLILBuilder10ReduceBoolEN5Yosys5RTLIL7SigSpecE
yosys:_ZN14slang_frontend12RTLILBuilder10add_aldffeESt17basic_string_viewIcSt11char_traitsIcEERKN5Yosys5RTLIL7SigSpecES9_S9_S9_S9_S9_bbb
yosys:_ZN14slang_frontend12RTLILBuilder10add_y_wireB5cxx11Ei
yosys:_ZN14slang_frontend12RTLILBuilder10bless_cellEPN5Yosys5RTLIL4CellE
yosys:_ZN14slang_frontend12RTLILBuilder15add_memory_initESt17basic_string_viewIcSt11char_traitsIcEEmbN5Yosys5RTLIL5ConstE
yosys:_ZN14slang_frontend12RTLILBuilder17emit_meminit_cellEPN5Yosys5RTLIL6MemoryEmbNS2_5ConstES5_
yosys:_ZN14slang_frontend12RTLILBuilder19add_dual_edge_aldffERKNSt7__cxx1112basic_stringIcSt11char_traitsIcESaIcEEEN5Yosys5RTLIL7SigSpecESB_SB_SB_SB_b
yosys:_ZN14slang_frontend12RTLILBuilder22add_placeholder_signalEmSt17basic_string_viewIcSt11char_traitsIcEEb
yosys:_ZN14slang_frontend12RTLILBuilder2EqEN5Yosys5RTLIL7SigSpecES3_
yosys:_ZN14slang_frontend12RTLILBuilder2GeEN5Yosys5RTLIL7SigSpecES3_b
yosys:_ZN14slang_frontend12RTLILBuilder2LeEN5Yosys5RTLIL7SigSpecES3_b
yosys:_ZN14slang_frontend12RTLILBuilder2LtEN5Yosys5RTLIL7SigSpecES3_b
yosys:_ZN14slang_frontend12RTLILBuilder3MuxEN5Yosys5RTLIL7SigSpecES3_S3_
yosys:_ZN14slang_frontend12RTLILBuilder3NegEN5Yosys5RTLIL7SigSpecEb
yosys:_ZN14slang_frontend12RTLILBuilder3NotEN5Yosys5RTLIL7SigSpecE
yosys:_ZN14slang_frontend12RTLILBuilder4BiopEN5Yosys5RTLIL8IdStringENS2_7SigSpecES4_bbi
yosys:_ZN14slang_frontend12RTLILBuilder4BmuxEN5Yosys5RTLIL7SigSpecES3_
yosys:_ZN14slang_frontend12RTLILBuilder4UnopEN5Yosys5RTLIL8IdStringENS2_7SigSpecEbi
yosys:_ZN14slang_frontend12RTLILBuilder5BwmuxEN5Yosys5RTLIL7SigSpecES3_S3_
yosys:_ZN14slang_frontend12RTLILBuilder5Clog2EN5Yosys5RTLIL7SigSpecEi
yosys:_ZN14slang_frontend12RTLILBuilder5DemuxEN5Yosys5RTLIL7SigSpecES3_
yosys:_ZN14slang_frontend12RTLILBuilder5ShiftEN5Yosys5RTLIL7SigSpecEbS3_bi
yosys:_ZN14slang_frontend12RTLILBuilder6ShiftxEN5Yosys5RTLIL7SigSpecES3_bi
yosys:_ZN14slang_frontend12RTLILBuilder6new_idENSt7__cxx1112basic_stringIcSt11char_traitsIcESaIcEEE
yosys:_ZN14slang_frontend12RTLILBuilder7LogicOrEN5Yosys5RTLIL7SigSpecES3_
yosys:_ZN14slang_frontend12RTLILBuilder7add_dffESt17basic_string_viewIcSt11char_traitsIcEERKN5Yosys5RTLIL7SigSpecES9_S9_b
yosys:_ZN14slang_frontend12RTLILBuilder7connectEN5Yosys5RTLIL7SigSpecES3_
yosys:_ZN14slang_frontend12RTLILBuilder8LogicAndEN5Yosys5RTLIL7SigSpecES3_
yosys:_ZN14slang_frontend12RTLILBuilder8LogicNotEN5Yosys5RTLIL7SigSpecE
yosys:_ZN14slang_frontend12RTLILBuilder8add_dffeESt17basic_string_viewIcSt11char_traitsIcEERKN5Yosys5RTLIL7SigSpecES9_S9_S9_bb
yosys:_ZN14slang_frontend12RTLILBuilder9CountOnesEN5Yosys5RTLIL7SigSpecEi
yosys:_ZN14slang_frontend12RTLILBuilder9add_aldffESt17basic_string_viewIcSt11char_traitsIcEERKN5Yosys5RTLIL7SigSpecES9_S9_S9_S9_bb
yosys:_ZN14slang_frontend12VariableBits16has_special_netsEv
yosys:_ZN14slang_frontend12order_scopesEPKN5slang3ast5ScopeES4_
yosys:_ZN14slang_frontend13ProcessTiming15extract_triggerERNS_14NetlistContextEPN5Yosys5RTLIL4CellENS4_6SigBitE
yosys:_ZN14slang_frontend13ProcessTiming7initialE
yosys:_ZN14slang_frontend13ProcessTiming8implicitE
yosys:_ZN14slang_frontend13ProcessTimingC1ENS0_4KindE
yosys:_ZN14slang_frontend13ProcessTimingC2ENS0_4KindE
yosys:_ZN14slang_frontend13SlangFrontendE
yosys:_ZN14slang_frontend13fixup_optionsERNS_17SynthesisSettingsERN5slang6driver6DriverE
yosys:_ZN14slang_frontend13format_wchunkB5cxx11EN5Yosys5RTLIL8SigChunkE
yosys:_ZN14slang_frontend13wire_missing_ERNS_14NetlistContextERKN5slang3ast6SymbolEPKci
yosys:_ZN14slang_frontend14NetlistContext11is_blackboxERKN5slang3ast16DefinitionSymbolEPNS1_10DiagnosticE
yosys:_ZN14slang_frontend14NetlistContext12unescaped_idB5cxx11ERKN5slang3ast6SymbolE
yosys:_ZN14slang_frontend14NetlistContext13convert_constERKN5slang13ConstantValueENS1_14SourceLocationE
yosys:_ZN14slang_frontend14NetlistContext14check_hier_refERKN5slang3ast11ValueSymbolENS1_11SourceRangeEb
yosys:_ZN14slang_frontend14NetlistContext14convert_staticENS_12VariableBitsE
yosys:_ZN14slang_frontend14NetlistContext15register_drivenERKN5slang3ast6SymbolE
yosys:_ZN14slang_frontend14NetlistContext15register_drivenERKNS_12VariableBitsE
yosys:_ZN14slang_frontend14NetlistContext15should_dissolveERKN5slang3ast14InstanceSymbolEPNS1_10DiagnosticE
yosys:_ZN14slang_frontend14NetlistContext17find_symbol_realmERKN5slang3ast6SymbolE
yosys:_ZN14slang_frontend14NetlistContext18is_inferred_memoryERKN5slang3ast10ExpressionE
yosys:_ZN14slang_frontend14NetlistContext18is_inferred_memoryERKN5slang3ast6SymbolE
yosys:_ZN14slang_frontend14NetlistContext20find_common_ancestorERKN5slang3ast18InstanceBodySymbolES5_
yosys:_ZN14slang_frontend14NetlistContext21add_continuous_driverENS_12VariableBitsEN5Yosys5RTLIL7SigSpecE
yosys:_ZN14slang_frontend14NetlistContext2idB5cxx11ERKN5slang3ast11ValueSymbolE
yosys:_ZN14slang_frontend14NetlistContext2idB5cxx11ERKN5slang3ast6SymbolE
yosys:_ZN14slang_frontend14NetlistContext4wireERKN5slang3ast6SymbolE
yosys:_ZN14slang_frontend14NetlistContext7hdlnameB5cxx11ERKN5slang3ast6SymbolE
yosys:_ZN14slang_frontend14NetlistContext8add_wireERKN5slang3ast11ValueSymbolE
yosys:_ZN14slang_frontend14NetlistContextC1EPN5Yosys5RTLIL6DesignERNS_17SynthesisSettingsERN5slang3ast11CompilationERKNS8_14InstanceSymbolE
yosys:_ZN14slang_frontend14NetlistContextC1ERS0_RKN5slang3ast14InstanceSymbolE
yosys:_ZN14slang_frontend14NetlistContextC2EPN5Yosys5RTLIL6DesignERNS_17SynthesisSettingsERN5slang3ast11CompilationERKNS8_14InstanceSymbolE
yosys:_ZN14slang_frontend14NetlistContextC2ERS0_RKN5slang3ast14InstanceSymbolE
yosys:_ZN14slang_frontend14NetlistContextD1Ev
yosys:_ZN14slang_frontend14NetlistContextD2Ev
yosys:_ZN14slang_frontend14build_hiernameERNS_14NetlistContextERKN5slang3ast6SymbolERKNSt7__cxx1112basic_stringIcSt11char_traitsIcESaIcEEE
yosys:_ZN14slang_frontend14crop_zero_maskERKN5Yosys5RTLIL7SigSpecERNS_12VariableBitsE
yosys:_ZN14slang_frontend14crop_zero_maskERKN5Yosys5RTLIL7SigSpecERS2_
yosys:_ZN14slang_frontend14handle_displayERNS_17ProceduralContextERKN5slang3ast14CallExpressionE
yosys:_ZN14slang_frontend14handle_readmemERNS_17ProceduralContextERKN5slang3ast14CallExpressionE
yosys:_ZN14slang_frontend14is_special_netERKN5slang3ast6SymbolE
yosys:_ZN14slang_frontend14unimplemented_ERKN5slang3ast10ExpressionEPKciS6_
yosys:_ZN14slang_frontend14unimplemented_ERKN5slang3ast13TimingControlEPKciS6_
yosys:_ZN14slang_frontend14unimplemented_ERKN5slang3ast6SymbolEPKciS6_
yosys:_ZN14slang_frontend14unimplemented_ERKN5slang3ast9StatementEPKciS6_
yosys:_ZN14slang_frontend15crop_undef_maskERKN5Yosys5RTLIL7SigSpecERNS_12VariableBitsE
yosys:_ZN14slang_frontend15crop_undef_maskERKN5Yosys5RTLIL7SigSpecERS2_
yosys:_ZN14slang_frontend15source_locationERKN5slang3ast10ExpressionE
yosys:_ZN14slang_frontend15source_locationERKN5slang3ast13TimingControlE
yosys:_ZN14slang_frontend15source_locationERKN5slang3ast6SymbolE
yosys:_ZN14slang_frontend15source_locationERKN5slang3ast9StatementE
yosys:_ZN14slang_frontend16DiagnosticIssuer11report_intoERN5slang16DiagnosticEngineE
yosys:_ZN14slang_frontend16DiagnosticIssuer15add_diagnosticsERKN5slang11DiagnosticsE
yosys:_ZN14slang_frontend16DiagnosticIssuer8add_diagEN5slang10DiagnosticE
yosys:_ZN14slang_frontend16DiagnosticIssuer8add_diagEN5slang8DiagCodeENS1_11SourceRangeE
yosys:_ZN14slang_frontend16DiagnosticIssuer8add_diagEN5slang8DiagCodeENS1_14SourceLocationE
yosys:_ZN14slang_frontend16SlangVersionPassE
yosys:_ZN14slang_frontend16global_sourcemgrE
yosys:_ZN14slang_frontend17ProceduralContext10all_drivenEv
yosys:_ZN14slang_frontend17ProceduralContext11case_enableEv
yosys:_ZN14slang_frontend17ProceduralContext13VariableState3setENS_12VariableBitsEN5Yosys5RTLIL7SigSpecE
yosys:_ZN14slang_frontend17ProceduralContext13VariableState4saveERN5Yosys7hashlib4dictINS_11VariableBitENS2_5RTLIL6SigBitENS3_8hash_opsIS5_EEEE
yosys:_ZN14slang_frontend17ProceduralContext13VariableState7restoreERN5Yosys7hashlib4dictINS_11VariableBitENS2_5RTLIL6SigBitENS3_8hash_opsIS5_EEEE
yosys:_ZN14slang_frontend17ProceduralContext13VariableState8evaluateERNS_14NetlistContextENS_12VariableBitsE
yosys:_ZN14slang_frontend17ProceduralContext13VariableState8evaluateERNS_14NetlistContextENS_13VariableChunkE
yosys:_ZN14slang_frontend17ProceduralContext13assign_rvalueERKN5slang3ast20AssignmentExpressionEN5Yosys5RTLIL7SigSpecE
yosys:_ZN14slang_frontend17ProceduralContext13inherit_stateERS0_
yosys:_ZN14slang_frontend17ProceduralContext13signal_escapeEN5slang14SourceLocationENS0_11EscapeFrame19EscapeConstructKindE
yosys:_ZN14slang_frontend17ProceduralContext16do_simple_assignEN5slang14SourceLocationENS_12VariableBitsEN5Yosys5RTLIL7SigSpecEb
yosys:_ZN14slang_frontend17ProceduralContext16get_disable_flagEv
yosys:_ZN14slang_frontend17ProceduralContext17substitute_rvalueENS_12VariableBitsE
yosys:_ZN14slang_frontend17ProceduralContext19copy_case_tree_intoERN5Yosys5RTLIL8CaseRuleE
yosys:_ZN14slang_frontend17ProceduralContext19set_effects_triggerEPN5Yosys5RTLIL4CellE
yosys:_ZN14slang_frontend17ProceduralContext21update_variable_stateEN5slang14SourceLocationENS_12VariableBitsEN5Yosys5RTLIL7SigSpecES6_b
yosys:_ZN14slang_frontend17ProceduralContext22get_current_subroutineEv
yosys:_ZN14slang_frontend17ProceduralContextC1ERNS_14NetlistContextERNS_13ProcessTimingE
yosys:_ZN14slang_frontend17ProceduralContextC2ERNS_14NetlistContextERNS_13ProcessTimingE
yosys:_ZN14slang_frontend17ProceduralContextD1Ev
yosys:_ZN14slang_frontend17ProceduralContextD2Ev
yosys:_ZN14slang_frontend17SlangDefaultsPassE
yosys:_ZN14slang_frontend17SynthesisSettings10addOptionsERN5slang11CommandLineE
yosys:_ZN14slang_frontend17TestSlangDiagPassE
yosys:_ZN14slang_frontend17TestSlangExprPassE
yosys:_ZN14slang_frontend17get_instance_bodyERNS_17SynthesisSettingsERKN5slang3ast14InstanceSymbolE
yosys:_ZN14slang_frontend17inside_comparisonERNS_11EvalContextEN5Yosys5RTLIL7SigSpecERKN5slang3ast10ExpressionE
yosys:_ZN14slang_frontend17str_to_state_vectERSt6vectorIN5Yosys5RTLIL5StateESaIS3_EEPKcmb
yosys:_ZN14slang_frontend18AddressingResolver10shift_downEN5Yosys5RTLIL7SigSpecEi
yosys:_ZN14slang_frontend18AddressingResolver15interpret_indexEN5Yosys5RTLIL7SigSpecEii
yosys:_ZN14slang_frontend18AddressingResolver16shift_up_bitwiseEN5Yosys5RTLIL7SigSpecEbi
yosys:_ZN14slang_frontend18AddressingResolver18shift_down_bitwiseEN5Yosys5RTLIL7SigSpecEi
yosys:_ZN14slang_frontend18AddressingResolver3muxEN5Yosys5RTLIL7SigSpecEi
yosys:_ZN14slang_frontend18AddressingResolver5demuxEN5Yosys5RTLIL7SigSpecEi
yosys:_ZN14slang_frontend18AddressingResolver5embedEN5Yosys5RTLIL7SigSpecEiiNS2_5StateE
yosys:_ZN14slang_frontend18AddressingResolver7extractIN5Yosys5RTLIL7SigSpecEEET_S5_m
yosys:_ZN14slang_frontend18AddressingResolver7extractINS_12VariableBitsEEET_S3_m
yosys:_ZN14slang_frontend18AddressingResolver7raw_muxEN5Yosys5RTLIL7SigSpecEiii
yosys:_ZN14slang_frontend18AddressingResolver8shift_upEN5Yosys5RTLIL7SigSpecEbi
yosys:_ZN14slang_frontend18AddressingResolver9is_staticEv
yosys:_ZN14slang_frontend18AddressingResolver9raw_demuxEN5Yosys5RTLIL7SigSpecEii
yosys:_ZN14slang_frontend18AddressingResolverC1ERNS_11EvalContextERKN5slang3ast21RangeSelectExpressionE
yosys:_ZN14slang_frontend18AddressingResolverC1ERNS_11EvalContextERKN5slang3ast23ElementSelectExpressionE
yosys:_ZN14slang_frontend18AddressingResolverC2ERNS_11EvalContextERKN5slang3ast21RangeSelectExpressionE
yosys:_ZN14slang_frontend18AddressingResolverC2ERNS_11EvalContextERKN5slang3ast23ElementSelectExpressionE
yosys:_ZN14slang_frontend18convert_attr_valueERNS_14NetlistContextEPKN5slang3ast15AttributeSymbolE
yosys:_ZN14slang_frontend18global_compilationE
yosys:_ZN14slang_frontend19UnrollLimitTracking11unroll_tickEPKN5slang3ast9StatementE
yosys:_ZN14slang_frontend19UnrollLimitTracking14exit_unrollingEv
yosys:_ZN14slang_frontend19UnrollLimitTracking15enter_unrollingEv
yosys:_ZN14slang_frontend19UnrollLimitTrackingC1ERNS_14NetlistContextEi
yosys:_ZN14slang_frontend19UnrollLimitTrackingC2ERNS_14NetlistContextEi
yosys:_ZN14slang_frontend19UnrollLimitTrackingD1Ev
yosys:_ZN14slang_frontend19UnrollLimitTrackingD2Ev
yosys:_ZN14slang_frontend19is_special_net_typeERKN5slang3ast7NetTypeE
yosys:_ZN14slang_frontend20hierpath_relative_toB5cxx11EPKN5slang3ast5ScopeES4_
yosys:_ZN14slang_frontend20is_decl_empty_moduleERKN5slang6syntax10SyntaxNodeE
yosys:_ZN14slang_frontend20process_sva_propertyERKN5slang3ast28ConcurrentAssertionStatementEPKNS1_20StatementBlockSymbolERNS_17ProceduralContextERKNS1_13AssertionExprE
yosys:_ZN14slang_frontend21finalize_special_netsERNS_14NetlistContextE
yosys:_ZN14slang_frontend23bitstream_member_offsetERKN5slang3ast11FieldSymbolE
yosys:_ZN14slang_frontend23catch_forbidden_optionsERN5slang6driver6DriverE
yosys:_ZN14slang_frontend23generate_subfield_namesB5cxx11ENS_13VariableChunkEPKN5slang3ast4TypeE
yosys:_ZN14slang_frontend24EnterAutomaticScopeGuardC1ERNS_11EvalContextEPKN5slang3ast5ScopeE
yosys:_ZN14slang_frontend24EnterAutomaticScopeGuardC2ERNS_11EvalContextEPKN5slang3ast5ScopeE
yosys:_ZN14slang_frontend24EnterAutomaticScopeGuardD1Ev
yosys:_ZN14slang_frontend24EnterAutomaticScopeGuardD2Ev
yosys:_ZN14slang_frontend24TimingPatternInterpretor13handle_alwaysERKN5slang3ast21ProceduralBlockSymbolE
yosys:_ZN14slang_frontend24TimingPatternInterpretor23interpret_async_patternERKN5slang3ast21ProceduralBlockSymbolESt6vectorIPKNS2_18SignalEventControlESaIS9_EERKNS2_9StatementE
yosys:_ZN14slang_frontend24TimingPatternInterpretor9interpretERKN5slang3ast21ProceduralBlockSymbolE
yosys:_ZN14slang_frontend24export_blackbox_to_rtlilERNS_14NetlistContextERKN5slang3ast14InstanceSymbolEPN5Yosys5RTLIL6DesignE
yosys:_ZN14slang_frontend24forbidden_diag_demotionsE
yosys:_ZN14slang_frontend26evaluate_decl_initializersERNS_14NetlistContextE
yosys:_ZN14slang_frontend26order_symbols_within_scopeEPKN5slang3ast6SymbolES4_
yosys:_ZN14slang_frontend28RegisterEscapeConstructGuardC1ERNS_17ProceduralContextENS1_11EscapeFrame19EscapeConstructKindEPKN5slang3ast16SubroutineSymbolE
yosys:_ZN14slang_frontend28RegisterEscapeConstructGuardC1ERNS_17ProceduralContextENS1_11EscapeFrame19EscapeConstructKindEPKN5slang3ast9StatementE
yosys:_ZN14slang_frontend28RegisterEscapeConstructGuardC2ERNS_17ProceduralContextENS1_11EscapeFrame19EscapeConstructKindEPKN5slang3ast16SubroutineSymbolE
yosys:_ZN14slang_frontend28RegisterEscapeConstructGuardC2ERNS_17ProceduralContextENS1_11EscapeFrame19EscapeConstructKindEPKN5slang3ast9StatementE
yosys:_ZN14slang_frontend28RegisterEscapeConstructGuardD1Ev
yosys:_ZN14slang_frontend28RegisterEscapeConstructGuardD2Ev
yosys:_ZN14slang_frontend28import_blackboxes_from_rtlilERN5slang13SourceManagerERNS0_3ast11CompilationEPN5Yosys5RTLIL6DesignE
yosys:_ZN14slang_frontend29assign_to_lvalue_with_maskingERKN5slang3ast20AssignmentExpressionERNS_17ProceduralContextERNS_6LValueEN5Yosys5RTLIL7SigSpecESB_b
yosys:_ZN14slang_frontend2idERKSt17basic_string_viewIcSt11char_traitsIcEE
yosys:_ZN14slang_frontend32finalize_variable_initializationERNS_14NetlistContextE
yosys:_ZN14slang_frontend33process_freestanding_sva_propertyERNS_14NetlistContextERKN5slang3ast28ConcurrentAssertionStatementEPKNS3_20StatementBlockSymbolE
yosys:_ZN14slang_frontend4diag12MissingAloadE
yosys:_ZN14slang_frontend4diag13BadMemoryExprE
yosys:_ZN14slang_frontend4diag14IffUnsupportedE
yosys:_ZN14slang_frontend4diag14NoteUsageBlameE
yosys:_ZN14slang_frontend4diag14RefUnsupportedE
yosys:_ZN14slang_frontend4diag14SVAUnsupportedE
yosys:_ZN14slang_frontend4diag14UdpUnsupportedE
yosys:_ZN14slang_frontend4diag14UnsupportedLhsE
yosys:_ZN14slang_frontend4diag14setup_messagesERN5slang16DiagnosticEngineE
yosys:_ZN14slang_frontend4diag15ModportRequiredE
yosys:_ZN14slang_frontend4diag15NoteSignalEventE
yosys:_ZN14slang_frontend4diag15unsynthesizableE
yosys:_ZN14slang_frontend4diag16DeprecatedOptionE
yosys:_ZN14slang_frontend4diag16LatchNotInferredE
yosys:_ZN14slang_frontend4diag17AlwaysFFBadTimingE
yosys:_ZN14slang_frontend4diag17BboxTypeParameterE
yosys:_ZN14slang_frontend4diag17FixedSizeRequiredE
yosys:_ZN14slang_frontend4diag17ForbiddenDemotionE
yosys:_ZN14slang_frontend4diag17GuessingInputPortE
yosys:_ZN14slang_frontend4diag17MemoryNotInferredE
yosys:_ZN14slang_frontend4diag17NoteIgnoreInitialE
yosys:_ZN14slang_frontend4diag17NoteProcessDriverE
yosys:_ZN14slang_frontend4diag18EdgeImplicitMixingE
yosys:_ZN14slang_frontend4diag18GenericTimingUnsynE
yosys:_ZN14slang_frontend4diag18NetTypeUnsupportedE
yosys:_ZN14slang_frontend4diag18NonconstWildcardEqE
yosys:_ZN14slang_frontend4diag18PortCorrespondenceE
yosys:_ZN14slang_frontend4diag18ProgramUnsupportedE
yosys:_ZN14slang_frontend4diag19IfElseAloadMismatchE
yosys:_ZN14slang_frontend4diag19IfElseAloadPolarityE
yosys:_ZN14slang_frontend4diag19MultiPortConversionE
yosys:_ZN14slang_frontend4diag19NoParamsOnUnkBboxesE
yosys:_ZN14slang_frontend4diag19NoteLoopContributesE
yosys:_ZN14slang_frontend4diag19PrimTypeUnsupportedE
yosys:_ZN14slang_frontend4diag19ReadmemFileNotFoundE
yosys:_ZN14slang_frontend4diag20AssertionUnsupportedE
yosys:_ZN14slang_frontend4diag20BboxExportPortWidthsE
yosys:_ZN14slang_frontend4diag20BothEdgesUnsupportedE
yosys:_ZN14slang_frontend4diag20ExpectingIfElseAloadE
yosys:_ZN14slang_frontend4diag20MissingStopConditionE
yosys:_ZN14slang_frontend4diag20MultiportUnsupportedE
yosys:_ZN14slang_frontend4diag20UnrollLimitExhaustedE
yosys:_ZN14slang_frontend4diag21ReadmemBadBinaryDigitE
yosys:_ZN14slang_frontend4diag21ReadmemInvalidAddressE
yosys:_ZN14slang_frontend4diag21UnsupportedSVAFeatureE
yosys:_ZN14slang_frontend4diag21UnsupportedSystemTaskE
yosys:_ZN14slang_frontend4diag22LangFeatureUnsupportedE
yosys:_ZN14slang_frontend4diag22NoIgnoreUnknownModulesE
yosys:_ZN14slang_frontend4diag22NoteDuplicateEdgeSenseE
yosys:_ZN14slang_frontend4diag22NotePreviousAssignmentE
yosys:_ZN14slang_frontend4diag22RepetitionsUnsupportedE
yosys:_ZN14slang_frontend4diag22UnsynthesizableFeatureE
yosys:_ZN14slang_frontend4diag23ArgumentTypeUnsupportedE
yosys:_ZN14slang_frontend4diag23InlinedInOutUnsupportedE
yosys:_ZN14slang_frontend4diag23SVAClockingRequiresEdgeE
yosys:_ZN14slang_frontend4diag24BadInlinedPortConnectionE
yosys:_ZN14slang_frontend4diag24ErrorNonconstantArgumentE
yosys:_ZN14slang_frontend4diag24UnsupportedBitConversionE
yosys:_ZN14slang_frontend4diag24UnsupportedPortDirectionE
yosys:_ZN14slang_frontend4diag24WaitStatementUnsupportedE
yosys:_ZN14slang_frontend4diag25ReadmemWordsRangeMismatchE
yosys:_ZN14slang_frontend4diag26ExpectStatementUnsupportedE
yosys:_ZN14slang_frontend4diag26SignalSensitivityAmbiguousE
yosys:_ZN14slang_frontend4diag27ErrorNonconstantInitialEvalE
yosys:_ZN14slang_frontend4diag27InputPortCannotBeSpecialNetE
yosys:_ZN14slang_frontend4diag28ReadmemAddressOutsideOfRangeE
yosys:_ZN14slang_frontend4diag29PastGatingClockingUnsupportedE
yosys:_ZN14slang_frontend4diag29UnsupportedBlackboxConnectionE
yosys:_ZN14slang_frontend4diag30NoteModuleBlackboxBecauseEmptyE
yosys:_ZN14slang_frontend4diag31ReferenceAcrossKeptHierBoundaryE
yosys:_ZN14slang_frontend4diag33SystemFunctionRequireClockedBlockE
yosys:_ZN14slang_frontend4diag34BlockingAssignmentAfterNonblockingE
yosys:_ZN14slang_frontend4diag34NonblockingAssignmentAfterBlockingE
yosys:_ZN14slang_frontend4diag34NoteModuleBlackboxBecauseAttributeE
yosys:_ZN14slang_frontend4diag34NoteModuleNotDissolvedBecauseInOutE
yosys:_ZN14slang_frontend4diag37NonblockingAssignInInitialUnsupportedE
yosys:_ZN14slang_frontend4diag37NoteModuleNotDissolvedBecauseBlackboxE
yosys:_ZN14slang_frontend4diag40HierarchicalRefOutsideModulesUnsupportedE
yosys:_ZN14slang_frontend4diag42NoteModuleNotDissolvedBecauseKeepHierarchyE
yosys:_ZN14slang_frontend4diag42ReadingNetStateFromInitialBlockUnsupportedE
yosys:_ZN14slang_frontend4diag6sanityE
yosys:_ZN14slang_frontend4diag8AloadOneE
yosys:_ZN14slang_frontend6LValue11memoryWriteENS_8VariableEN5Yosys5RTLIL7SigSpecEm
yosys:_ZN14slang_frontend6LValue11rangeSelectES0_NS_18AddressingResolverEm
yosys:_ZN14slang_frontend6LValue12memberAccessES0_mm
yosys:_ZN14slang_frontend6LValue13concatenationESt6vectorIS0_SaIS0_EE
yosys:_ZN14slang_frontend6LValue14evaluate_vbitsEv
yosys:_ZN14slang_frontend6LValue7analyzeERNS_11EvalContextERKN5slang3ast10ExpressionEb
yosys:_ZN14slang_frontend6LValue8variableENS_8VariableE
yosys:_ZN14slang_frontend6LValue9is_staticEv
yosys:_ZN14slang_frontend6Switch5lowerERNS_14NetlistContextE
yosys:_ZN14slang_frontend6Switch7trivialEv
yosys:_ZN14slang_frontend6Switch8add_caseESt6vectorIN5Yosys5RTLIL7SigSpecESaIS4_EE
yosys:_ZN14slang_frontend6SwitchD1Ev
yosys:_ZN14slang_frontend6SwitchD2Ev
yosys:_ZN14slang_frontend8Variable11escape_flagEi
yosys:_ZN14slang_frontend8Variable11from_symbolEPKN5slang3ast11ValueSymbolEi
yosys:_ZN14slang_frontend8Variable14is_special_netEv
yosys:_ZN14slang_frontend8Variable5dummyEm
yosys:_ZN14slang_frontend8VariableC1ENS0_4KindEPKN5slang3ast11ValueSymbolEi
yosys:_ZN14slang_frontend8VariableC1Ev
yosys:_ZN14slang_frontend8VariableC2ENS0_4KindEPKN5slang3ast11ValueSymbolEi
yosys:_ZN14slang_frontend8VariableC2Ev
yosys:_ZN18BigUnsignedInABaseC1EPKtjt
yosys:_ZN18BigUnsignedInABaseC1ERK11BigUnsignedt
yosys:_ZN18BigUnsignedInABaseC1ERKNSt7__cxx1112basic_stringIcSt11char_traitsIcESaIcEEEt
yosys:_ZN18BigUnsignedInABaseC2EPKtjt
yosys:_ZN18BigUnsignedInABaseC2ERK11BigUnsignedt
yosys:_ZN18BigUnsignedInABaseC2ERKNSt7__cxx1112basic_stringIcSt11char_traitsIcESaIcEEEt
yosys:_ZN19frontend_verilog_yy6parser10yydefgoto_E
yosys:_ZN19frontend_verilog_yy6parser11symbol_nameENS0_11symbol_kind16symbol_kind_typeE
yosys:_ZN19frontend_verilog_yy6parser12syntax_errorD0Ev
yosys:_ZN19frontend_verilog_yy6parser12syntax_errorD1Ev
yosys:_ZN19frontend_verilog_yy6parser12syntax_errorD2Ev
yosys:_ZN19frontend_verilog_yy6parser12yypact_ninf_E
yosys:_ZN19frontend_verilog_yy6parser13yytable_ninf_E
yosys:_ZN19frontend_verilog_yy6parser15set_debug_levelEi
yosys:_ZN19frontend_verilog_yy6parser15yy_lac_discard_EPKc
yosys:_ZN19frontend_verilog_yy6parser16set_debug_streamERSo
yosys:_ZN19frontend_verilog_yy6parser17stack_symbol_typeC1EOS1_
yosys:_ZN19frontend_verilog_yy6parser17stack_symbol_typeC1EsONS0_11symbol_typeE
yosys:_ZN19frontend_verilog_yy6parser17stack_symbol_typeC1Ev
yosys:_ZN19frontend_verilog_yy6parser17stack_symbol_typeC2EOS1_
yosys:_ZN19frontend_verilog_yy6parser17stack_symbol_typeC2EsONS0_11symbol_typeE
yosys:_ZN19frontend_verilog_yy6parser17stack_symbol_typeC2Ev
yosys:_ZN19frontend_verilog_yy6parser17yy_lac_establish_ENS0_11symbol_kind16symbol_kind_typeE
yosys:_ZN19frontend_verilog_yy6parser17yy_lr_goto_state_Esi
yosys:_ZN19frontend_verilog_yy6parser24yy_table_value_is_error_Ei
yosys:_ZN19frontend_verilog_yy6parser25yy_pact_value_is_default_Ei
yosys:_ZN19frontend_verilog_yy6parser5errorERK8LocationRKNSt7__cxx1112basic_stringIcSt11char_traitsIcESaIcEEE
yosys:_ZN19frontend_verilog_yy6parser5errorERKNS0_12syntax_errorE
yosys:_ZN19frontend_verilog_yy6parser5parseEv
yosys:_ZN19frontend_verilog_yy6parser5yyr1_E
yosys:_ZN19frontend_verilog_yy6parser5yyr2_E
yosys:_ZN19frontend_verilog_yy6parser6yypop_Ei
yosys:_ZN19frontend_verilog_yy6parser7contextC1ERKS0_RKNS0_11symbol_typeE
yosys:_ZN19frontend_verilog_yy6parser7contextC2ERKS0_RKNS0_11symbol_typeE
yosys:_ZN19frontend_verilog_yy6parser7yypact_E
yosys:_ZN19frontend_verilog_yy6parser7yypush_EPKcONS0_17stack_symbol_typeE
yosys:_ZN19frontend_verilog_yy6parser7yypush_EPKcsONS0_11symbol_typeE
yosys:_ZN19frontend_verilog_yy6parser7yystos_E
yosys:_ZN19frontend_verilog_yy6parser8by_state4moveERS1_
yosys:_ZN19frontend_verilog_yy6parser8by_state5clearEv
yosys:_ZN19frontend_verilog_yy6parser8by_stateC1ERKS1_
yosys:_ZN19frontend_verilog_yy6parser8by_stateC1Es
yosys:_ZN19frontend_verilog_yy6parser8by_stateC1Ev
yosys:_ZN19frontend_verilog_yy6parser8by_stateC2ERKS1_
yosys:_ZN19frontend_verilog_yy6parser8by_stateC2Es
yosys:_ZN19frontend_verilog_yy6parser8by_stateC2Ev
yosys:_ZN19frontend_verilog_yy6parser8yycheck_E
yosys:_ZN19frontend_verilog_yy6parser8yypgoto_E
yosys:_ZN19frontend_verilog_yy6parser8yyrline_E
yosys:_ZN19frontend_verilog_yy6parser8yytable_E
yosys:_ZN19frontend_verilog_yy6parser9yydefact_E
yosys:_ZN19frontend_verilog_yy6parserC1EPN5Yosys16VERILOG_FRONTEND12VerilogLexerEPNS2_10ParseStateEPNS2_9ParseModeE
yosys:_ZN19frontend_verilog_yy6parserC2EPN5Yosys16VERILOG_FRONTEND12VerilogLexerEPNS2_10ParseStateEPNS2_9ParseModeE
yosys:_ZN19frontend_verilog_yy6parserD0Ev
yosys:_ZN19frontend_verilog_yy6parserD1Ev
yosys:_ZN19frontend_verilog_yy6parserD2Ev
yosys:_ZN19frontend_verilog_yy6parserclEv
yosys:_ZN28frontend_verilog_yyFlexLexer10LexerErrorEPKc
yosys:_ZN28frontend_verilog_yyFlexLexer10LexerInputEPci
yosys:_ZN28frontend_verilog_yyFlexLexer11LexerOutputEPKci
yosys:_ZN28frontend_verilog_yyFlexLexer11ctor_commonEv
yosys:_ZN28frontend_verilog_yyFlexLexer12yy_pop_stateEv
yosys:_ZN28frontend_verilog_yyFlexLexer12yy_top_stateEv
yosys:_ZN28frontend_verilog_yyFlexLexer13yy_push_stateEi
yosys:_ZN28frontend_verilog_yyFlexLexer14switch_streamsEPSiPSo
yosys:_ZN28frontend_verilog_yyFlexLexer14switch_streamsERSiRSo
yosys:_ZN28frontend_verilog_yyFlexLexer14yy_init_bufferEP15yy_buffer_stateRSi
yosys:_ZN28frontend_verilog_yyFlexLexer15yy_flush_bufferEP15yy_buffer_state
yosys:_ZN28frontend_verilog_yyFlexLexer16yy_create_bufferEPSii
yosys:_ZN28frontend_verilog_yyFlexLexer16yy_create_bufferERSii
yosys:_ZN28frontend_verilog_yyFlexLexer16yy_delete_bufferEP15yy_buffer_state
yosys:_ZN28frontend_verilog_yyFlexLexer16yy_try_NUL_transEi
yosys:_ZN28frontend_verilog_yyFlexLexer18yy_get_next_bufferEv
yosys:_ZN28frontend_verilog_yyFlexLexer18yypop_buffer_stateEv
yosys:_ZN28frontend_verilog_yyFlexLexer19yy_switch_to_bufferEP15yy_buffer_state
yosys:_ZN28frontend_verilog_yyFlexLexer19yypush_buffer_stateEP15yy_buffer_state
yosys:_ZN28frontend_verilog_yyFlexLexer20yy_load_buffer_stateEv
yosys:_ZN28frontend_verilog_yyFlexLexer21yy_get_previous_stateEv
yosys:_ZN28frontend_verilog_yyFlexLexer21yyensure_buffer_stackEv
yosys:_ZN28frontend_verilog_yyFlexLexer5yylexEv
yosys:_ZN28frontend_verilog_yyFlexLexer6yywrapEv
yosys:_ZN28frontend_verilog_yyFlexLexer7yyinputEv
yosys:_ZN28frontend_verilog_yyFlexLexer7yyunputEiPc
yosys:_ZN28frontend_verilog_yyFlexLexer9yyrestartEPSi
yosys:_ZN28frontend_verilog_yyFlexLexer9yyrestartERSi
yosys:_ZN28frontend_verilog_yyFlexLexerC1EPSiPSo
yosys:_ZN28frontend_verilog_yyFlexLexerC1ERSiRSo
yosys:_ZN28frontend_verilog_yyFlexLexerC2EPSiPSo
yosys:_ZN28frontend_verilog_yyFlexLexerC2ERSiRSo
yosys:_ZN28frontend_verilog_yyFlexLexerD0Ev
yosys:_ZN28frontend_verilog_yyFlexLexerD1Ev
yosys:_ZN28frontend_verilog_yyFlexLexerD2Ev
yosys:_ZN3fmt3v1211assert_failEPKciS2_
yosys:_ZN3fmt3v1212report_errorEPKc
yosys:_ZN3fmt3v1213vsystem_errorEiNS0_17basic_string_viewIcEENS0_17basic_format_argsINS0_7contextEEE
yosys:_ZN3fmt3v1215vprint_bufferedEP8_IO_FILENS0_17basic_string_viewIcEENS0_17basic_format_argsINS0_7contextEEE
yosys:_ZN3fmt3v1219format_system_errorERNS0_6detail6bufferIcEEiPKc
yosys:_ZN3fmt3v1219report_system_errorEiPKc
yosys:_ZN3fmt3v126detail10vformat_toERNS1_6bufferIcEENS0_17basic_string_viewIcEENS0_17basic_format_argsINS0_7contextEEENS0_10locale_refE
yosys:_ZN3fmt3v126detail12is_printableEj
yosys:_ZN3fmt3v126detail13utf8_to_utf16C1ENS0_17basic_string_viewIcEE
yosys:_ZN3fmt3v126detail13utf8_to_utf16C2ENS0_17basic_string_viewIcEE
yosys:_ZN3fmt3v126detail13write_consoleEiNS0_17basic_string_viewIcEE
yosys:_ZN3fmt3v126detail15do_report_errorEPFvRNS1_6bufferIcEEiPKcEiS6_
yosys:_ZN3fmt3v126detail17format_error_codeERNS1_6bufferIcEEiNS0_17basic_string_viewIcEE
yosys:_ZN3fmt3v126detail5printEP8_IO_FILENS0_17basic_string_viewIcEE
yosys:_ZN3fmt3v126detail8allocateEm
yosys:_ZN3fmt3v126detail9dragonbox16get_cached_powerEi
yosys:_ZN3fmt3v126detail9write_locENS0_14basic_appenderIcEENS0_9loc_valueERKNS0_12format_specsENS0_10locale_refE
yosys:_ZN3fmt3v126vprintENS0_17basic_string_viewIcEENS0_17basic_format_argsINS0_7contextEEE
yosys:_ZN3fmt3v126vprintEP8_IO_FILENS0_17basic_string_viewIcEENS0_17basic_format_argsINS0_7contextEEE
yosys:_ZN3fmt3v127vformatB5cxx11ENS0_17basic_string_viewIcEENS0_17basic_format_argsINS0_7contextEEE
yosys:_ZN3fmt3v128vprintlnEP8_IO_FILENS0_17basic_string_viewIcEENS0_17basic_format_argsINS0_7contextEEE
yosys:_ZN4SHA115buffer_to_blockERKNSt7__cxx1112basic_stringIcSt11char_traitsIcESaIcEEEPj
yosys:_ZN4SHA14readERSiRNSt7__cxx1112basic_stringIcSt11char_traitsIcESaIcEEEm
yosys:_ZN4SHA15finalB5cxx11Ev
yosys:_ZN4SHA15resetEv
yosys:_ZN4SHA16updateERKNSt7__cxx1112basic_stringIcSt11char_traitsIcESaIcEEE
yosys:_ZN4SHA16updateERSi
yosys:_ZN4SHA19from_fileERKNSt7__cxx1112basic_stringIcSt11char_traitsIcESaIcEEE
yosys:_ZN4SHA19transformEPj
yosys:_ZN4SHA1C1Ev
yosys:_ZN4SHA1C2Ev
yosys:_ZN5Yosys10DesignPassE
yosys:_ZN5Yosys10DriveChunk10try_appendERKNS_8DriveBitE
yosys:_ZN5Yosys10DriveChunk10try_appendERKS0_
yosys:_ZN5Yosys10FfTypeDataC1ENS_5RTLIL8IdStringE
yosys:_ZN5Yosys10FfTypeDataC2ENS_5RTLIL8IdStringE
yosys:_ZN5Yosys10Functional12fn_to_stringENS0_2FnE
yosys:_ZN5Yosys10Functional2IR11forward_bufEv
yosys:_ZN5Yosys10Functional2IR11from_moduleEPNS_5RTLIL6ModuleE
yosys:_ZN5Yosys10Functional2IR16topological_sortEv
yosys:_ZN5Yosys10Functional4Node9to_stringB5cxx11Ev
yosys:_ZN5Yosys10Functional4Node9to_stringESt8functionIFNSt7__cxx1112basic_stringIcSt11char_traitsIcESaIcEEES1_EE
yosys:_ZN5Yosys10Functional6Writer10print_implEPKcRSt6vectorISt8functionIFvvEESaIS7_EE
yosys:_ZN5Yosys10LibertyAstD1Ev
yosys:_ZN5Yosys10LibertyAstD2Ev
yosys:_ZN5Yosys10MemLibrary13parse_libraryERKSt6vectorINSt7__cxx1112basic_stringIcSt11char_traitsIcESaIcEEESaIS7_EERKNS_7hashlib4poolIS7_NSC_8hash_opsIS7_EEEE
yosys:_ZN5Yosys10PluginPassE
yosys:_ZN5Yosys10PrettyHelp11get_currentEv
yosys:_ZN5Yosys10PrettyHelpC1Ev
yosys:_ZN5Yosys10PrettyHelpC2Ev
yosys:_ZN5Yosys10PrettyHelpD1Ev
yosys:_ZN5Yosys10PrettyHelpD2Ev
yosys:_ZN5Yosys10PrettyJson10end_objectEv
yosys:_ZN5Yosys10PrettyJson10entry_jsonEPKcRKN6json114JsonE
yosys:_ZN5Yosys10PrettyJson10value_jsonERKN6json114JsonE
yosys:_ZN5Yosys10PrettyJson11begin_arrayEv
yosys:_ZN5Yosys10PrettyJson11begin_valueEv
yosys:_ZN5Yosys10PrettyJson11emit_to_logEv
yosys:_ZN5Yosys10PrettyJson12begin_objectEv
yosys:_ZN5Yosys10PrettyJson13write_to_fileERKNSt7__cxx1112basic_stringIcSt11char_traitsIcESaIcEEE
yosys:_ZN5Yosys10PrettyJson16append_to_stringERNSt7__cxx1112basic_stringIcSt11char_traitsIcESaIcEEE
yosys:_ZN5Yosys10PrettyJson3rawEPKc
yosys:_ZN5Yosys10PrettyJson4lineEb
yosys:_ZN5Yosys10PrettyJson4nameEPKc
yosys:_ZN5Yosys10PrettyJson5flushEv
yosys:_ZN5Yosys10PrettyJson9end_arrayEv
yosys:_ZN5Yosys10PrettyJson9end_valueEv
yosys:_ZN5Yosys10ScriptPass10run_scriptEPNS_5RTLIL6DesignENSt7__cxx1112basic_stringIcSt11char_traitsIcESaIcEEES9_
yosys:_ZN5Yosys10ScriptPass11check_labelENSt7__cxx1112basic_stringIcSt11char_traitsIcESaIcEEES6_
yosys:_ZN5Yosys10ScriptPass11help_scriptEv
yosys:_ZN5Yosys10ScriptPass11run_nocheckENSt7__cxx1112basic_stringIcSt11char_traitsIcESaIcEEES6_
yosys:_ZN5Yosys10ScriptPass3runENSt7__cxx1112basic_stringIcSt11char_traitsIcESaIcEEES6_
yosys:_ZN5Yosys10ThreadPool14work_pool_sizeEiii
yosys:_ZN5Yosys10ThreadPool9pool_sizeEii
yosys:_ZN5Yosys10ThreadPoolC1EiSt8functionIFviEE
yosys:_ZN5Yosys10ThreadPoolC2EiSt8functionIFviEE
yosys:_ZN5Yosys10ThreadPoolD1Ev
yosys:_ZN5Yosys10ThreadPoolD2Ev
yosys:_ZN5Yosys10log_hasherE
yosys:_ZN5Yosys10log_moduleEPNS_5RTLIL6ModuleENSt7__cxx1112basic_stringIcSt11char_traitsIcESaIcEEE
yosys:_ZN5Yosys10log_signalB5cxx11ERKNS_10DriveChunkE
yosys:_ZN5Yosys10log_signalB5cxx11ERKNS_14DriveChunkPortE
yosys:_ZN5Yosys10log_signalB5cxx11ERKNS_14DriveChunkWireE
yosys:_ZN5Yosys10log_signalB5cxx11ERKNS_16DriveChunkMarkerE
yosys:_ZN5Yosys10log_signalB5cxx11ERKNS_5RTLIL7SigSpecEb
yosys:_ZN5Yosys10log_signalB5cxx11ERKNS_9DriveSpecE
yosys:_ZN5Yosys10log_spacerEv
yosys:_ZN5Yosys10next_tokenERNSt7__cxx1112basic_stringIcSt11char_traitsIcESaIcEEEPKcb
yosys:_ZN5Yosys10parse_blifEPNS_5RTLIL6DesignERSiNS0_8IdStringEbbb
yosys:_ZN5Yosys11AigerReader11parse_aigerEv
yosys:_ZN5Yosys11AigerReader12parse_xaigerEv
yosys:_ZN5Yosys11AigerReader12post_processEv
yosys:_ZN5Yosys11AigerReader17parse_aiger_asciiEv
yosys:_ZN5Yosys11AigerReader18parse_aiger_binaryEv
yosys:_ZN5Yosys11AigerReader21createWireIfNotExistsEPNS_5RTLIL6ModuleEj
yosys:_ZN5Yosys11AigerReaderC1EPNS_5RTLIL6DesignERSiNS1_8IdStringES5_NSt7__cxx1112basic_stringIcSt11char_traitsIcESaIcEEEb
yosys:_ZN5Yosys11AigerReaderC2EPNS_5RTLIL6DesignERSiNS1_8IdStringES5_NSt7__cxx1112basic_stringIcSt11char_traitsIcESaIcEEEb
yosys:_ZN5Yosys11HistoryPassE
yosys:_ZN5Yosys11LicensePassE
yosys:_ZN5Yosys11MemContents11clear_rangeEjj
yosys:_ZN5Yosys11MemContents12_range_writeENS_5RTLIL5Const8iteratorERKS2_
yosys:_ZN5Yosys11MemContents14_reserve_rangeEjj
yosys:_ZN5Yosys11MemContents19insert_concatenatedEjRKNS_5RTLIL5ConstE
yosys:_ZN5Yosys11MemContents5checkEv
yosys:_ZN5Yosys11MemContents8iteratorppEv
yosys:_ZN5Yosys11MemContentsC1EPNS_3MemE
yosys:_ZN5Yosys11MemContentsC2EPNS_3MemE
yosys:_ZN5Yosys11ReadWitnessC1ERKNSt7__cxx1112basic_stringIcSt11char_traitsIcESaIcEEE
yosys:_ZN5Yosys11ReadWitnessC2ERKNSt7__cxx1112basic_stringIcSt11char_traitsIcESaIcEEE
yosys:_ZN5Yosys11RpcFrontendE
yosys:_ZN5Yosys11SExprWriter13nl_if_pendingEv
yosys:_ZN5Yosys11SExprWriter4putsESt17basic_string_viewIcSt11char_traitsIcEE
yosys:_ZN5Yosys11SExprWriter5closeEm
yosys:_ZN5Yosys11SExprWriter5printERKNS_5SExprEbb
yosys:_ZN5Yosys11SExprWriter7commentERKNSt7__cxx1112basic_stringIcSt11char_traitsIcESaIcEEEb
yosys:_ZN5Yosys11SExprWriter9check_fitERKNS_5SExprEi
yosys:_ZN5Yosys11SExprWriterD1Ev
yosys:_ZN5Yosys11SExprWriterD2Ev
yosys:_ZN5Yosys11json_importEPNS_5RTLIL6DesignERNSt7__cxx1112basic_stringIcSt11char_traitsIcESaIcEEEPNS_8JsonNodeE
yosys:_ZN5Yosys11load_pluginENSt7__cxx1112basic_stringIcSt11char_traitsIcESaIcEEESt6vectorIS5_SaIS5_EE
yosys:_ZN5Yosys11log_errfileE
yosys:_ZN5Yosys11log_streamsE
yosys:_ZN5Yosys11permute_lutEmRKSt6vectorIiSaIiEE
yosys:_ZN5Yosys11run_backendENSt7__cxx1112basic_stringIcSt11char_traitsIcESaIcEEES5_PNS_5RTLIL6DesignE
yosys:_ZN5Yosys11run_commandERKNSt7__cxx1112basic_stringIcSt11char_traitsIcESaIcEEESt8functionIFvS7_EE
yosys:_ZN5Yosys11yosys_setupEv
yosys:_ZN5Yosys12AST_INTERNAL10flag_nooptE
yosys:_ZN5Yosys12AST_INTERNAL11current_astE
yosys:_ZN5Yosys12AST_INTERNAL11flag_icellsE
yosys:_ZN5Yosys12AST_INTERNAL11flag_pwiresE
yosys:_ZN5Yosys12AST_INTERNAL12flag_mem2regE
yosys:_ZN5Yosys12AST_INTERNAL13current_blockE
yosys:_ZN5Yosys12AST_INTERNAL13current_scopeB5cxx11E
yosys:_ZN5Yosys12AST_INTERNAL13flag_autowireE
yosys:_ZN5Yosys12AST_INTERNAL14current_alwaysE
yosys:_ZN5Yosys12AST_INTERNAL14current_moduleE
yosys:_ZN5Yosys12AST_INTERNAL14flag_dump_ast1E
yosys:_ZN5Yosys12AST_INTERNAL14flag_dump_ast2E
yosys:_ZN5Yosys12AST_INTERNAL14flag_nodisplayE
yosys:_ZN5Yosys12AST_INTERNAL14flag_nolatchesE
yosys:_ZN5Yosys12AST_INTERNAL14flag_nomem2regE
yosys:_ZN5Yosys12AST_INTERNAL14flag_nomeminitE
yosys:_ZN5Yosys12AST_INTERNAL15current_ast_modE
yosys:_ZN5Yosys12AST_INTERNAL15flag_dump_rtlilE
yosys:_ZN5Yosys12AST_INTERNAL15flag_dump_vlog1E
yosys:_ZN5Yosys12AST_INTERNAL15flag_dump_vlog2E
yosys:_ZN5Yosys12AST_INTERNAL15flag_noblackboxE
yosys:_ZN5Yosys12AST_INTERNAL16flag_no_dump_ptrE
yosys:_ZN5Yosys12AST_INTERNAL17current_top_blockE
yosys:_ZN5Yosys12AST_INTERNAL18genRTLIL_subst_ptrE
yosys:_ZN5Yosys12AST_INTERNAL19current_block_childE
yosys:_ZN5Yosys12AST_INTERNAL19current_memwr_countB5cxx11E
yosys:_ZN5Yosys12AST_INTERNAL21current_memwr_visibleB5cxx11E
yosys:_ZN5Yosys12AST_INTERNAL22current_always_clockedE
yosys:_ZN5Yosys12AST_INTERNAL26ignoreThisSignalsInInitialE
yosys:_ZN5Yosys12AST_INTERNAL26process_and_replace_moduleEPNS_5RTLIL6DesignEPNS1_6ModuleEPNS_3AST7AstNodeESt10unique_ptrIS7_St14default_deleteIS7_EE
yosys:_ZN5Yosys12AST_INTERNAL8flag_libE
yosys:_ZN5Yosys12AST_INTERNAL9flag_nowbE
yosys:_ZN5Yosys12BlifFrontendE
yosys:_ZN5Yosys12DeferredLogs5flushEv
yosys:_ZN5Yosys12JsonFrontendE
yosys:_ZN5Yosys12QuickConeSat12importSigBitENS_5RTLIL6SigBitE
yosys:_ZN5Yosys12QuickConeSat15cell_complexityEPNS_5RTLIL4CellE
yosys:_ZN5Yosys12QuickConeSat7prepareEv
yosys:_ZN5Yosys12QuickConeSat9importSigENS_5RTLIL7SigSpecE
yosys:_ZN5Yosys12check_moduleEPNS_5RTLIL6ModuleERNS_26ParallelDispatchThreadPoolE
yosys:_ZN5Yosys12current_passE
yosys:_ZN5Yosys12define_map_t3addERKNSt7__cxx1112basic_stringIcSt11char_traitsIcESaIcEEERKNS_13define_body_tE
yosys:_ZN5Yosys12define_map_t3addERKNSt7__cxx1112basic_stringIcSt11char_traitsIcESaIcEEES8_PKNS_9arg_map_tE
yosys:_ZN5Yosys12define_map_t5clearEv
yosys:_ZN5Yosys12define_map_t5eraseERKNSt7__cxx1112basic_stringIcSt11char_traitsIcESaIcEEE
yosys:_ZN5Yosys12define_map_t5mergeERKS0_
yosys:_ZN5Yosys12define_map_tC1Ev
yosys:_ZN5Yosys12define_map_tC2Ev
yosys:_ZN5Yosys12define_map_tD1Ev
yosys:_ZN5Yosys12define_map_tD2Ev
yosys:_ZN5Yosys12gzip_istream4ibuf4openERKNSt7__cxx1112basic_stringIcSt11char_traitsIcESaIcEEE
yosys:_ZN5Yosys12gzip_istream4ibuf9underflowEv
yosys:_ZN5Yosys12gzip_istream4ibufD0Ev
yosys:_ZN5Yosys12gzip_istream4ibufD1Ev
yosys:_ZN5Yosys12gzip_istream4ibufD2Ev
yosys:_ZN5Yosys12gzip_ostream4obuf4openERKNSt7__cxx1112basic_stringIcSt11char_traitsIcESaIcEEE
yosys:_ZN5Yosys12gzip_ostream4obuf4syncEv
yosys:_ZN5Yosys12gzip_ostream4obufC1Ev
yosys:_ZN5Yosys12gzip_ostream4obufC2Ev
yosys:_ZN5Yosys12gzip_ostream4obufD0Ev
yosys:_ZN5Yosys12gzip_ostream4obufD1Ev
yosys:_ZN5Yosys12gzip_ostream4obufD2Ev
yosys:_ZN5Yosys12header_countE
yosys:_ZN5Yosys12log_id_cacheE
yosys:_ZN5Yosys12log_warningsB5cxx11E
yosys:_ZN5Yosys12memhasher_doEv
yosys:_ZN5Yosys12memhasher_onEv
yosys:_ZN5Yosys12run_frontendENSt7__cxx1112basic_stringIcSt11char_traitsIcESaIcEEES5_PNS_5RTLIL6DesignEPS5_
yosys:_ZN5Yosys12simplemap_ffEPNS_5RTLIL6ModuleEPNS0_4CellE
yosys:_ZN5Yosys12split_tokensERKNSt7__cxx1112basic_stringIcSt11char_traitsIcESaIcEEEPKc
yosys:_ZN5Yosys12uncompressedENSt7__cxx1112basic_stringIcSt11char_traitsIcESaIcEEESt13_Ios_Openmode
yosys:_ZN5Yosys12yosys_bannerEv
yosys:_ZN5Yosys12yosys_designE
yosys:_ZN5Yosys12yosys_xtraceE
yosys:_ZN5Yosys13AigerFrontendE
yosys:_ZN5Yosys13CellmatchPassE
yosys:_ZN5Yosys13FfMergeHelper13find_input_ffENS_5RTLIL7SigSpecERNS_6FfDataERNS_7hashlib4poolISt4pairIPNS1_4CellEiENS5_8hash_opsISA_EEEE
yosys:_ZN5Yosys13FfMergeHelper13mark_input_ffERKNS_7hashlib4poolISt4pairIPNS_5RTLIL4CellEiENS1_8hash_opsIS7_EEEE
yosys:_ZN5Yosys13FfMergeHelper14find_output_ffENS_5RTLIL7SigSpecERNS_6FfDataERNS_7hashlib4poolISt4pairIPNS1_4CellEiENS5_8hash_opsISA_EEEE
yosys:_ZN5Yosys13FfMergeHelper16is_output_unusedENS_5RTLIL7SigSpecE
yosys:_ZN5Yosys13FfMergeHelper16remove_output_ffERKNS_7hashlib4poolISt4pairIPNS_5RTLIL4CellEiENS1_8hash_opsIS7_EEEE
yosys:_ZN5Yosys13FfMergeHelper3setEPNS_10FfInitValsEPNS_5RTLIL6ModuleE
yosys:_ZN5Yosys13FfMergeHelper5clearEv
yosys:_ZN5Yosys13LibertyParser11lexer_innerERNSt7__cxx1112basic_stringIcSt11char_traitsIcESaIcEEE
yosys:_ZN5Yosys13LibertyParser18parse_vector_rangeEi
yosys:_ZN5Yosys13LibertyParser19consume_wrecked_strEiRNSt7__cxx1112basic_stringIcSt11char_traitsIcESaIcEEE
yosys:_ZN5Yosys13LibertyParser23report_unexpected_tokenEi
yosys:_ZN5Yosys13LibertyParser5lexerERNSt7__cxx1112basic_stringIcSt11char_traitsIcESaIcEEE
yosys:_ZN5Yosys13LibertyParser5parseEb
yosys:_ZN5Yosys13RTLILFrontendE
yosys:_ZN5Yosys13RTLIL_BACKEND10dump_constERSoRKNS_5RTLIL5ConstEiib
yosys:_ZN5Yosys13RTLIL_BACKEND11dump_designERSoPNS_5RTLIL6DesignEbbb
yosys:_ZN5Yosys13RTLIL_BACKEND11dump_memoryERSoNSt7__cxx1112basic_stringIcSt11char_traitsIcESaIcEEEPKNS_5RTLIL6MemoryE
yosys:_ZN5Yosys13RTLIL_BACKEND11dump_moduleERSoNSt7__cxx1112basic_stringIcSt11char_traitsIcESaIcEEEPNS_5RTLIL6ModuleEPNS8_6DesignEbbb
yosys:_ZN5Yosys13RTLIL_BACKEND12dump_sigspecERSoRKNS_5RTLIL7SigSpecEb
yosys:_ZN5Yosys13RTLIL_BACKEND13dump_sigchunkERSoRKNS_5RTLIL8SigChunkEb
yosys:_ZN5Yosys13RTLIL_BACKEND14dump_proc_syncERSoNSt7__cxx1112basic_stringIcSt11char_traitsIcESaIcEEEPKNS_5RTLIL8SyncRuleE
yosys:_ZN5Yosys13RTLIL_BACKEND15dump_attributesERSoNSt7__cxx1112basic_stringIcSt11char_traitsIcESaIcEEEPKNS_5RTLIL10AttrObjectE
yosys:_ZN5Yosys13RTLIL_BACKEND16dump_proc_switchERSoNSt7__cxx1112basic_stringIcSt11char_traitsIcESaIcEEEPKNS_5RTLIL10SwitchRuleE
yosys:_ZN5Yosys13RTLIL_BACKEND19dump_proc_case_bodyERSoNSt7__cxx1112basic_stringIcSt11char_traitsIcESaIcEEEPKNS_5RTLIL8CaseRuleE
yosys:_ZN5Yosys13RTLIL_BACKEND9dump_cellERSoNSt7__cxx1112basic_stringIcSt11char_traitsIcESaIcEEEPKNS_5RTLIL4CellE
yosys:_ZN5Yosys13RTLIL_BACKEND9dump_connERSoNSt7__cxx1112basic_stringIcSt11char_traitsIcESaIcEEERKNS_5RTLIL7SigSpecESB_
yosys:_ZN5Yosys13RTLIL_BACKEND9dump_procERSoNSt7__cxx1112basic_stringIcSt11char_traitsIcESaIcEEEPKNS_5RTLIL7ProcessE
yosys:_ZN5Yosys13RTLIL_BACKEND9dump_wireERSoNSt7__cxx1112basic_stringIcSt11char_traitsIcESaIcEEEPKNS_5RTLIL4WireE
yosys:_ZN5Yosys13ScriptCmdPassE
yosys:_ZN5Yosys13already_setupE
yosys:_ZN5Yosys13create_promptEPNS_5RTLIL6DesignEi
yosys:_ZN5Yosys13glob_filenameERKNSt7__cxx1112basic_stringIcSt11char_traitsIcESaIcEEE
yosys:_ZN5Yosys13log_backtraceEPKci
yosys:_ZN5Yosys13log_hdump_allE
yosys:_ZN5Yosys13make_temp_dirENSt7__cxx1112basic_stringIcSt11char_traitsIcESaIcEEE
yosys:_ZN5Yosys13memhasher_offEv
yosys:_ZN5Yosys13memhasher_rngE
yosys:_ZN5Yosys13module_inputsEPNS_5RTLIL6ModuleE
yosys:_ZN5Yosys13new_id_suffixESt17basic_string_viewIcSt11char_traitsIcEEiS3_S3_
yosys:_ZN5Yosys13pass_registerB5cxx11E
yosys:_ZN5Yosys13saved_designsB5cxx11E
yosys:_ZN5Yosys13simplemap_bufEPNS_5RTLIL6ModuleEPNS0_4CellE
yosys:_ZN5Yosys13simplemap_lutEPNS_5RTLIL6ModuleEPNS0_4CellE
yosys:_ZN5Yosys13simplemap_muxEPNS_5RTLIL6ModuleEPNS0_4CellE
yosys:_ZN5Yosys13simplemap_notEPNS_5RTLIL6ModuleEPNS0_4CellE
yosys:_ZN5Yosys13simplemap_posEPNS_5RTLIL6ModuleEPNS0_4CellE
yosys:_ZN5Yosys13simplemap_sopEPNS_5RTLIL6ModuleEPNS0_4CellE
yosys:_ZN5Yosys14CompressorTree16emit_final_adderEPNS_5RTLIL6ModuleENS1_7SigSpecES4_S4_NS0_10FinalAdderE
yosys:_ZN5Yosys14CompressorTree16emit_kogge_stoneEPNS_5RTLIL6ModuleENS1_7SigSpecES4_S4_
yosys:_ZN5Yosys14CompressorTree16pick_final_adderEiiNS0_9FinalModeE
yosys:_ZN5Yosys14CompressorTree16reduce_scheduledEPNS_5RTLIL6ModuleESt6vectorINS0_8DepthSigESaIS5_EEiNS0_8StrategyEPiS9_
yosys:_ZN5Yosys14CompressorTree18emit_compressor_32EPNS_5RTLIL6ModuleENS1_7SigSpecES4_S4_i
yosys:_ZN5Yosys14CompressorTree18emit_compressor_42EPNS_5RTLIL6ModuleENS1_7SigSpecES4_S4_S4_i
yosys:_ZN5Yosys14CompressorTree25generate_partial_productsEPNS_5RTLIL6ModuleENS1_7SigSpecES4_bbi
yosys:_ZN5Yosys14ContentListing10open_usageERKNSt7__cxx1112basic_stringIcSt11char_traitsIcESaIcEEESt15source_location
yosys:_ZN5Yosys14ContentListing11open_optionERKNSt7__cxx1112basic_stringIcSt11char_traitsIcESaIcEEESt15source_location
yosys:_ZN5Yosys14ContentListing5usageERKNSt7__cxx1112basic_stringIcSt11char_traitsIcESaIcEEESt15source_location
yosys:_ZN5Yosys14ContentListing6optionERKNSt7__cxx1112basic_stringIcSt11char_traitsIcESaIcEEES8_St15source_location
yosys:_ZN5Yosys14ContentListing9codeblockERKNSt7__cxx1112basic_stringIcSt11char_traitsIcESaIcEEES8_St15source_location
yosys:_ZN5Yosys14ContentListing9paragraphERKNSt7__cxx1112basic_stringIcSt11char_traitsIcESaIcEEESt15source_location
yosys:_ZN5Yosys14DriveChunkPort10try_appendERKNS_12DriveBitPortE
yosys:_ZN5Yosys14DriveChunkPort10try_appendERKS0_
yosys:_ZN5Yosys14DriveChunkWire10try_appendERKNS_12DriveBitWireE
yosys:_ZN5Yosys14DriveChunkWire10try_appendERKS0_
yosys:_ZN5Yosys14Multithreading7active_E
yosys:_ZN5Yosys14MultithreadingC1Ev
yosys:_ZN5Yosys14MultithreadingC2Ev
yosys:_ZN5Yosys14MultithreadingD1Ev
yosys:_ZN5Yosys14MultithreadingD2Ev
yosys:_ZN5Yosys14SyntPropertiesE
yosys:_ZN5Yosys14VerilogDefinesE
yosys:_ZN5Yosys14append_globbedERSt6vectorINSt7__cxx1112basic_stringIcSt11char_traitsIcESaIcEEESaIS6_EES6_
yosys:_ZN5Yosys14eval_select_opERSt6vectorINS_5RTLIL9SelectionESaIS2_EERKNSt7__cxx1112basic_stringIcSt11char_traitsIcESaIcEEEPNS1_6DesignE
yosys:_ZN5Yosys14loaded_pluginsB5cxx11E
yosys:_ZN5Yosys14log_expect_logB5cxx11E
yosys:_ZN5Yosys14log_last_errorB5cxx11E
yosys:_ZN5Yosys14log_make_debugE
yosys:_ZN5Yosys14log_suppressedEv
yosys:_ZN5Yosys14make_temp_fileENSt7__cxx1112basic_stringIcSt11char_traitsIcESaIcEEE
yosys:_ZN5Yosys14module_outputsEPNS_5RTLIL6ModuleE
yosys:_ZN5Yosys14parse_type_mapERSt3mapINSt7__cxx1112basic_stringIcSt11char_traitsIcESaIcEEESt5tupleIJiibEESt4lessIS6_ESaISt4pairIKS6_S8_EEEPKNS_10LibertyAstE
yosys:_ZN5Yosys14pushed_designsE
yosys:_ZN5Yosys14simplemap_bmuxEPNS_5RTLIL6ModuleEPNS0_4CellE
yosys:_ZN5Yosys14simplemap_eqneEPNS_5RTLIL6ModuleEPNS0_4CellE
yosys:_ZN5Yosys14simplemap_pmuxEPNS_5RTLIL6ModuleEPNS0_4CellE
yosys:_ZN5Yosys14yosys_shutdownEv
yosys:_ZN5Yosys15DesignEqualPassE
yosys:_ZN5Yosys15LibertyAstCache10cached_astERKNSt7__cxx1112basic_stringIcSt11char_traitsIcESaIcEEE
yosys:_ZN5Yosys15LibertyAstCache10parsed_astERKNSt7__cxx1112basic_stringIcSt11char_traitsIcESaIcEEERKSt10shared_ptrIKNS_10LibertyAstEE
yosys:_ZN5Yosys15LibertyAstCache8instanceE
yosys:_ZN5Yosys15LibertyFrontendE
yosys:_ZN5Yosys15SynthPropWorker3runEv
yosys:_ZN5Yosys15SynthPropWorker7tracingEPNS_5RTLIL6ModuleEiRNS_7hashlib4dictIS3_NS_12TrackingItemENS4_8hash_opsIS3_EEEENSt7__cxx1112basic_stringIcSt11char_traitsIcESaIcEEE
yosys:_ZN5Yosys15VERILOG_BACKEND16verilog_keywordsB5cxx11Ev
yosys:_ZN5Yosys15VERILOG_BACKEND21id_is_verilog_escapedERKNSt7__cxx1112basic_stringIcSt11char_traitsIcESaIcEEE
yosys:_ZN5Yosys15VERILOG_BACKEND23char_is_verilog_escapedEc
yosys:_ZN5Yosys15VerilogDefaultsE
yosys:_ZN5Yosys15VerilogFilelistE
yosys:_ZN5Yosys15VerilogFrontendE
yosys:_ZN5Yosys15const_to_mp_intERKNS_5RTLIL5ConstEP6mp_intbb
yosys:_ZN5Yosys15get_base_tmpdirB5cxx11Ev
yosys:_ZN5Yosys15log_force_debugE
yosys:_ZN5Yosys15log_reset_stackEv
yosys:_ZN5Yosys15log_scratchpadsB5cxx11E
yosys:_ZN5Yosys15memhasher_storeE
yosys:_ZN5Yosys15mp_int_to_constEP6mp_intRNS_5RTLIL5ConstEb
yosys:_ZN5Yosys15proc_clean_caseEPNS_5RTLIL8CaseRuleERbRii
yosys:_ZN5Yosys15simplemap_bitopEPNS_5RTLIL6ModuleEPNS0_4CellE
yosys:_ZN5Yosys15simplemap_bwmuxEPNS_5RTLIL6ModuleEPNS0_4CellE
yosys:_ZN5Yosys15simplemap_sliceEPNS_5RTLIL6ModuleEPNS0_4CellE
yosys:_ZN5Yosys15yosys_celltypesE
yosys:_ZN5Yosys15yosys_satsolverE
yosys:_ZN5Yosys16DriveBitMultiple5mergeEONS_8DriveBitE
yosys:_ZN5Yosys16DriveBitMultiple5mergeERKNS_8DriveBitE
yosys:_ZN5Yosys16DriveChunkMarker10try_appendERKNS_14DriveBitMarkerE
yosys:_ZN5Yosys16DriveChunkMarker10try_appendERKS0_
yosys:_ZN5Yosys16MinisatSatSolverE
yosys:_ZN5Yosys16VERILOG_FRONTEND10ParseState13exitTypeScopeEv
yosys:_ZN5Yosys16VERILOG_FRONTEND10ParseState14addTypedefNodeEPNSt7__cxx1112basic_stringIcSt11char_traitsIcESaIcEEESt10unique_ptrINS_3AST7AstNodeESt14default_deleteISB_EE
yosys:_ZN5Yosys16VERILOG_FRONTEND10ParseState14enterTypeScopeEv
yosys:_ZN5Yosys16VERILOG_FRONTEND10ParseState14isInLocalScopeEPKNSt7__cxx1112basic_stringIcSt11char_traitsIcESaIcEEE
yosys:_ZN5Yosys16VERILOG_FRONTEND10ParseState15addIncOrDecExprESt10unique_ptrINS_3AST7AstNodeESt14default_deleteIS4_EES2_INS_7hashlib4dictINS_5RTLIL8IdStringES7_NS8_8hash_opsISB_EEEES5_ISE_EENS3_11AstNodeTypeE8Locationbb
yosys:_ZN5Yosys16VERILOG_FRONTEND10ParseState15addIncOrDecStmtESt10unique_ptrINS_7hashlib4dictINS_5RTLIL8IdStringES2_INS_3AST7AstNodeESt14default_deleteIS8_EENS3_8hash_opsIS6_EEEES9_ISE_EESB_SG_NS7_11AstNodeTypeE8Location
yosys:_ZN5Yosys16VERILOG_FRONTEND10ParseState15addWiretypeNodeEPNSt7__cxx1112basic_stringIcSt11char_traitsIcESaIcEEEPNS_3AST7AstNodeE
yosys:_ZN5Yosys16VERILOG_FRONTEND10ParseState16addAsgnBinopStmtESt10unique_ptrINS_7hashlib4dictINS_5RTLIL8IdStringES2_INS_3AST7AstNodeESt14default_deleteIS8_EENS3_8hash_opsIS6_EEEES9_ISE_EESB_NS7_11AstNodeTypeESB_
yosys:_ZN5Yosys16VERILOG_FRONTEND10ParseState21ensureAsgnExprAllowedE8Locationb
yosys:_ZN5Yosys16VERILOG_FRONTEND10ParseState21rewriteGenForDeclInitEPNS_3AST7AstNodeE
yosys:_ZN5Yosys16VERILOG_FRONTEND10ParseState9pushChildESt10unique_ptrINS_3AST7AstNodeESt14default_deleteIS4_EE
yosys:_ZN5Yosys16VERILOG_FRONTEND10ParseState9saveChildESt10unique_ptrINS_3AST7AstNodeESt14default_deleteIS4_EE
yosys:_ZN5Yosys16VERILOG_FRONTEND11ConstParser11my_strtobinERSt6vectorINS_5RTLIL5StateESaIS4_EEPKciicb
yosys:_ZN5Yosys16VERILOG_FRONTEND11ConstParser18log_maybe_loc_warnENSt7__cxx1112basic_stringIcSt11char_traitsIcESaIcEEE
yosys:_ZN5Yosys16VERILOG_FRONTEND11ConstParser19log_maybe_loc_errorENSt7__cxx1112basic_stringIcSt11char_traitsIcESaIcEEE
yosys:_ZN5Yosys16VERILOG_FRONTEND11ConstParser21my_decimal_div_by_twoERSt6vectorIhSaIhEE
yosys:_ZN5Yosys16VERILOG_FRONTEND11ConstParser8my_ilog2Ei
yosys:_ZN5Yosys16VERILOG_FRONTEND11ConstParser9const2astENSt7__cxx1112basic_stringIcSt11char_traitsIcESaIcEEEcb
yosys:_ZN5Yosys16VERILOG_FRONTEND12VerilogLexer9nextTokenEv
yosys:_ZN5Yosys16VERILOG_FRONTEND20formatted_err_at_locE8LocationNSt7__cxx1112basic_stringIcSt11char_traitsIcESaIcEEE
yosys:_ZN5Yosys16VERILOG_FRONTEND21formatted_warn_at_locE8LocationNSt7__cxx1112basic_stringIcSt11char_traitsIcESaIcEEE
yosys:_ZN5Yosys16add_wire_for_refE8LocationPKNS_5RTLIL4WireERKNSt7__cxx1112basic_stringIcSt11char_traitsIcESaIcEEE
yosys:_ZN5Yosys16already_shutdownE
yosys:_ZN5Yosys16backend_registerB5cxx11E
yosys:_ZN5Yosys16check_accessibleERKNSt7__cxx1112basic_stringIcSt11char_traitsIcESaIcEEEb
yosys:_ZN5Yosys16create_directoryERKNSt7__cxx1112basic_stringIcSt11char_traitsIcESaIcEEE
yosys:_ZN5Yosys16create_id_prefixB5cxx11ESt17basic_string_viewIcSt11char_traitsIcEEiS3_
yosys:_ZN5Yosys16eval_select_argsERKSt6vectorINSt7__cxx1112basic_stringIcSt11char_traitsIcESaIcEEESaIS6_EEPNS_5RTLIL6DesignE
yosys:_ZN5Yosys16is_absolute_pathENSt7__cxx1112basic_stringIcSt11char_traitsIcESaIcEEE
yosys:_ZN5Yosys16log_error_atexitE
yosys:_ZN5Yosys16log_error_stderrE
yosys:_ZN5Yosys16log_expect_errorB5cxx11E
yosys:_ZN5Yosys16log_experimentalERKNSt7__cxx1112basic_stringIcSt11char_traitsIcESaIcEEE
yosys:_ZN5Yosys16log_warn_regexesB5cxx11E
yosys:_ZN5Yosys16memhasher_activeE
yosys:_ZN5Yosys16remove_directoryENSt7__cxx1112basic_stringIcSt11char_traitsIcESaIcEEE
yosys:_ZN5Yosys16rewrite_filenameERNSt7__cxx1112basic_stringIcSt11char_traitsIcESaIcEEE
yosys:_ZN5Yosys16simplemap_concatEPNS_5RTLIL6ModuleEPNS0_4CellE
yosys:_ZN5Yosys16simplemap_logbinEPNS_5RTLIL6ModuleEPNS0_4CellE
yosys:_ZN5Yosys16simplemap_lognotEPNS_5RTLIL6ModuleEPNS0_4CellE
yosys:_ZN5Yosys16simplemap_reduceEPNS_5RTLIL6ModuleEPNS0_4CellE
yosys:_ZN5Yosys16simplemap_tribufEPNS_5RTLIL6ModuleEPNS0_4CellE
yosys:_ZN5Yosys16yosys_get_designEv
yosys:_ZN5Yosys16yosys_sdc_interpE
yosys:_ZN5Yosys16yosys_tcl_interpE
yosys:_ZN5Yosys17LibertyExpression13get_pin_namesERSt13unordered_setINSt7__cxx1112basic_stringIcSt11char_traitsIcESaIcEEESt4hashIS7_ESt8equal_toIS7_ESaIS7_EE
yosys:_ZN5Yosys17LibertyExpression18char_is_nice_binopEc
yosys:_ZN5Yosys17LibertyExpression4evalERSt13unordered_mapINSt7__cxx1112basic_stringIcSt11char_traitsIcESaIcEEEbSt4hashIS7_ESt8equal_toIS7_ESaISt4pairIKS7_bEEE
yosys:_ZN5Yosys17LibertyExpression5parseERNS0_5LexerEi
yosys:_ZN5Yosys17LibertyExpression8is_binopEv
yosys:_ZN5Yosys17LibertyExpression8vlog_strB5cxx11Ev
yosys:_ZN5Yosys17LibertyExpression9sexpr_strB5cxx11Ei
yosys:_ZN5Yosys17check_file_existsERKNSt7__cxx1112basic_stringIcSt11char_traitsIcESaIcEEEb
yosys:_ZN5Yosys17first_queued_passE
yosys:_ZN5Yosys17fixup_source_pathEPKcRKNSt10filesystem7__cxx114pathEPb
yosys:_ZN5Yosys17frontend_registerB5cxx11E
yosys:_ZN5Yosys17log_experimentalsB5cxx11E
yosys:_ZN5Yosys17log_verbose_levelE
yosys:_ZN5Yosys17proc_self_dirnameB5cxx11Ev
yosys:_ZN5Yosys17yosys_input_filesB5cxx11E
yosys:_ZN5Yosys17yosys_version_strE
yosys:_ZN5Yosys18DriveChunkMultiple10try_appendERKNS_16DriveBitMultipleE
yosys:_ZN5Yosys18DriveChunkMultiple10try_appendERKS0_
yosys:_ZN5Yosys18LibertyInputStream18extend_buffer_onceEv
yosys:_ZN5Yosys18LibertyInputStream22extend_buffer_at_leastEm
yosys:_ZN5Yosys18LibertyInputStream8get_coldEv
yosys:_ZN5Yosys18LibertyInputStream9peek_coldEm
yosys:_ZN5Yosys18ModuleHdlnameIndex11index_cellsEv
yosys:_ZN5Yosys18ModuleHdlnameIndex11index_wiresEv
yosys:_ZN5Yosys18ModuleHdlnameIndex13scope_sourcesB5cxx11ENS_6IdTreeINS_10ModuleItemEE6CursorE
yosys:_ZN5Yosys18ModuleHdlnameIndex21index_scopeinfo_cellsEv
yosys:_ZN5Yosys18ModuleHdlnameIndex5indexEv
yosys:_ZN5Yosys18check_is_directoryERKNSt7__cxx1112basic_stringIcSt11char_traitsIcESaIcEEE
yosys:_ZN5Yosys18derive_module_lutsEPNS_5RTLIL6ModuleERSt6vectorImSaImEE
yosys:_ZN5Yosys18format_emit_doubleERNSt7__cxx1112basic_stringIcSt11char_traitsIcESaIcEEESt17basic_string_viewIcS3_EPiNS_15DynamicIntCountEd
yosys:_ZN5Yosys18format_emit_stringERNSt7__cxx1112basic_stringIcSt11char_traitsIcESaIcEEESt17basic_string_viewIcS3_EPiNS_15DynamicIntCountERKS5_
yosys:_ZN5Yosys18init_share_dirnameEv
yosys:_ZN5Yosys18log_abort_internalEPKci
yosys:_ZN5Yosys18log_assert_failureEPKcS1_i
yosys:_ZN5Yosys18log_check_expectedEv
yosys:_ZN5Yosys18log_expect_warningB5cxx11E
yosys:_ZN5Yosys18log_nowarn_regexesB5cxx11E
yosys:_ZN5Yosys18log_quiet_warningsE
yosys:_ZN5Yosys18log_warnings_countE
yosys:_ZN5Yosys18log_werror_regexesB5cxx11E
yosys:_ZN5Yosys18make_packed_structEPNS_3AST7AstNodeERNSt7__cxx1112basic_stringIcSt11char_traitsIcESaIcEEERSt3mapINS_5RTLIL8IdStringESt10unique_ptrIS1_St14default_deleteIS1_EESt4lessISC_ESaISt4pairIKSC_SG_EEE
yosys:_ZN5Yosys18print_proof_failedEv
yosys:_ZN5Yosys18proc_share_dirnameB5cxx11Ev
yosys:_ZN5Yosys18yosys_git_hash_strE
yosys:_ZN5Yosys18yosys_output_filesB5cxx11E
yosys:_ZN5Yosys19log_cmd_error_throwE
yosys:_ZN5Yosys19log_dump_val_workerENS_5RTLIL5StateE
yosys:_ZN5Yosys19log_dump_val_workerENS_5RTLIL7SigSpecE
yosys:_ZN5Yosys19log_dump_val_workerENS_5RTLIL8IdStringE
yosys:_ZN5Yosys19log_formatted_errorENSt7__cxx1112basic_stringIcSt11char_traitsIcESaIcEEE
yosys:_ZN5Yosys19name_from_file_pathENSt7__cxx1112basic_stringIcSt11char_traitsIcESaIcEEE
yosys:_ZN5Yosys19proc_program_prefixB5cxx11Ev
yosys:_ZN5Yosys19try_collect_garbageEv
yosys:_ZN5Yosys19yosys_already_setupEv
yosys:_ZN5Yosys19yosys_maybe_versionEv
yosys:_ZN5Yosys19yosys_share_dirnameB5cxx11E
yosys:_ZN5Yosys20format_emit_char_ptrERNSt7__cxx1112basic_stringIcSt11char_traitsIcESaIcEEESt17basic_string_viewIcS3_EPiNS_15DynamicIntCountEPKc
yosys:_ZN5Yosys20format_emit_idstringERNSt7__cxx1112basic_stringIcSt11char_traitsIcESaIcEEESt17basic_string_viewIcS3_EPiNS_15DynamicIntCountERKNS_5RTLIL8IdStringE
yosys:_ZN5Yosys20format_emit_void_ptrERNSt7__cxx1112basic_stringIcSt11char_traitsIcESaIcEEESt17basic_string_viewIcS3_EPiNS_15DynamicIntCountEPKv
yosys:_ZN5Yosys20log_debug_suppressedE
yosys:_ZN5Yosys20log_formatted_headerEPNS_5RTLIL6DesignESt17basic_string_viewIcSt11char_traitsIcEENSt7__cxx1112basic_stringIcS5_SaIcEEE
yosys:_ZN5Yosys20log_formatted_stringESt17basic_string_viewIcSt11char_traitsIcEENSt7__cxx1112basic_stringIcS2_SaIcEEE
yosys:_ZN5Yosys20log_verific_callbackE
yosys:_ZN5Yosys20report_missing_modelEbPNS_5RTLIL4CellE
yosys:_ZN5Yosys20rmunused_module_initEPNS_5RTLIL6ModuleERNS_26ParallelDispatchThreadPool7SubpoolEb
yosys:_ZN5Yosys20scopeinfo_attributesEPKNS_5RTLIL4CellENS_14ScopeinfoAttrsE
yosys:_ZN5Yosys20yosys_abc_executableB5cxx11E
yosys:_ZN5Yosys20yosys_get_tcl_interpEv
yosys:_ZN5Yosys20yosys_satsolver_listE
yosys:_ZN5Yosys20yosys_write_versionsE
yosys:_ZN5Yosys21format_emit_long_longERNSt7__cxx1112basic_stringIcSt11char_traitsIcESaIcEEESt17basic_string_viewIcS3_EPiNS_15DynamicIntCountEx
yosys:_ZN5Yosys21format_emit_unescapedERNSt7__cxx1112basic_stringIcSt11char_traitsIcESaIcEEESt17basic_string_viewIcS3_E
yosys:_ZN5Yosys21item_range_for_workerEiii
yosys:_ZN5Yosys21json_parse_attr_paramERNS_7hashlib4dictINS_5RTLIL8IdStringENS2_5ConstENS0_8hash_opsIS3_EEEEPNS_8JsonNodeE
yosys:_ZN5Yosys21loaded_plugin_aliasesB5cxx11E
yosys:_ZN5Yosys21loaded_python_pluginsB5cxx11E
yosys:_ZN5Yosys21log_expect_prefix_logB5cxx11E
yosys:_ZN5Yosys21log_formatted_warningESt17basic_string_viewIcSt11char_traitsIcEENSt7__cxx1112basic_stringIcS2_SaIcEEE
yosys:_ZN5Yosys21parent_from_file_pathENSt7__cxx1112basic_stringIcSt11char_traitsIcESaIcEEE
yosys:_ZN5Yosys21rmunused_module_cellsEPNS_5RTLIL6ModuleERNS_26ParallelDispatchThreadPool7SubpoolERNS_15CleanRunContextE
yosys:_ZN5Yosys21simplemap_get_mappersERNS_7hashlib4dictINS_5RTLIL8IdStringEPFvPNS2_6ModuleEPNS2_4CellEENS0_8hash_opsIS3_EEEE
yosys:_ZN5Yosys21yosys_tcl_interp_initEP10Tcl_Interp
yosys:_ZN5Yosys21yosys_tcl_repl_activeE
yosys:_ZN5Yosys22GarbageCollectionGuard11is_enabled_E
yosys:_ZN5Yosys22check_directory_existsERKNSt7__cxx1112basic_stringIcSt11char_traitsIcESaIcEEEb
yosys:_ZN5Yosys22escape_filename_spacesERKNSt7__cxx1112basic_stringIcSt11char_traitsIcESaIcEEE
yosys:_ZN5Yosys22log_expect_no_warningsE
yosys:_ZN5Yosys22remove_temporary_cellsEPNS_5RTLIL6ModuleERNS_26ParallelDispatchThreadPool7SubpoolEb
yosys:_ZN5Yosys22unescape_format_stringB5cxx11ESt17basic_string_viewIcSt11char_traitsIcEE
yosys:_ZN5Yosys23format_emit_string_viewERNSt7__cxx1112basic_stringIcSt11char_traitsIcESaIcEEESt17basic_string_viewIcS3_EPiNS_15DynamicIntCountES8_
yosys:_ZN5Yosys23log_expect_prefix_errorB5cxx11E
yosys:_ZN5Yosys23log_formatted_cmd_errorENSt7__cxx1112basic_stringIcSt11char_traitsIcESaIcEEE
yosys:_ZN5Yosys23log_formatted_file_infoESt17basic_string_viewIcSt11char_traitsIcEEiNSt7__cxx1112basic_stringIcS2_SaIcEEE
yosys:_ZN5Yosys23log_yosys_abort_messageESt17basic_string_viewIcSt11char_traitsIcEEiS3_S3_
yosys:_ZN5Yosys23rmunused_module_signalsEPNS_5RTLIL6ModuleERNS_26ParallelDispatchThreadPool7SubpoolERNS_15CleanRunContextE
yosys:_ZN5Yosys23scopeinfo_get_attributeEPKNS_5RTLIL4CellENS_14ScopeinfoAttrsENS0_8IdStringE
yosys:_ZN5Yosys23scopeinfo_has_attributeEPKNS_5RTLIL4CellENS_14ScopeinfoAttrsENS0_8IdStringE
yosys:_ZN5Yosys23yosys_tcl_activate_replEv
yosys:_ZN5Yosys24frontend_verilog_preprocERSiNSt7__cxx1112basic_stringIcSt11char_traitsIcESaIcEEERKNS_12define_map_tERS7_RKNS1_4listIS6_SaIS6_EEERNS_16VERILOG_FRONTEND10ParseStateERNSG_9ParseModeE
yosys:_ZN5Yosys24handle_extra_select_argsEPNS_4PassERKSt6vectorINSt7__cxx1112basic_stringIcSt11char_traitsIcESaIcEEESaIS8_EEmmPNS_5RTLIL6DesignE
yosys:_ZN5Yosys24init_abc_executable_nameEv
yosys:_ZN5Yosys24log_formatted_file_errorESt17basic_string_viewIcSt11char_traitsIcEEiNSt7__cxx1112basic_stringIcS2_SaIcEEE
yosys:_ZN5Yosys25AbstractCellEdgesDatabase19add_edges_from_cellEPNS_5RTLIL4CellE
yosys:_ZN5Yosys25log_expect_prefix_warningB5cxx11E
yosys:_ZN5Yosys25log_experimentals_ignoredB5cxx11E
yosys:_ZN5Yosys26ParallelDispatchThreadPool10run_workerEi
yosys:_ZN5Yosys26ParallelDispatchThreadPool3runESt8functionIFvRKNS0_6RunCtxEEEi
yosys:_ZN5Yosys26ParallelDispatchThreadPoolC1Ei
yosys:_ZN5Yosys26ParallelDispatchThreadPoolC2Ei
yosys:_ZN5Yosys26ParallelDispatchThreadPoolD1Ev
yosys:_ZN5Yosys26ParallelDispatchThreadPoolD2Ev
yosys:_ZN5Yosys26log_formatted_file_warningESt17basic_string_viewIcSt11char_traitsIcEEiNSt7__cxx1112basic_stringIcS2_SaIcEEE
yosys:_ZN5Yosys26request_garbage_collectionEv
yosys:_ZN5Yosys27json_parse_attr_param_valueEPNS_8JsonNodeE
yosys:_ZN5Yosys27log_warnings_count_noexpectE
yosys:_ZN5Yosys30format_emit_unsigned_long_longERNSt7__cxx1112basic_stringIcSt11char_traitsIcESaIcEEESt17basic_string_viewIcS3_EPiNS_15DynamicIntCountEy
yosys:_ZN5Yosys3AST12find_modportEPNS0_7AstNodeENSt7__cxx1112basic_stringIcSt11char_traitsIcESaIcEEE
yosys:_ZN5Yosys3AST12set_src_attrEPNS_5RTLIL10AttrObjectEPKNS0_7AstNodeE
yosys:_ZN5Yosys3AST13astnode_countEv
yosys:_ZN5Yosys3AST19derived_module_nameENSt7__cxx1112basic_stringIcSt11char_traitsIcESaIcEEERKSt6vectorISt4pairINS_5RTLIL8IdStringENS9_5ConstEESaISC_EE
yosys:_ZN5Yosys3AST22explode_interface_portEPNS0_7AstNodeEPNS_5RTLIL6ModuleENSt7__cxx1112basic_stringIcSt11char_traitsIcESaIcEEES2_
yosys:_ZN5Yosys3AST23split_modport_from_typeENSt7__cxx1112basic_stringIcSt11char_traitsIcESaIcEEE
yosys:_ZN5Yosys3AST27set_simplify_design_contextEPKNS_5RTLIL6DesignE
yosys:_ZN5Yosys3AST55sv_mode_but_global_and_used_for_literally_one_conditionE
yosys:_ZN5Yosys3AST7AstNode11bitsAsConstEi
yosys:_ZN5Yosys3AST7AstNode11bitsAsConstEib
yosys:_ZN5Yosys3AST7AstNode11mkconst_intE8Locationjbi
yosys:_ZN5Yosys3AST7AstNode11mkconst_strE8LocationRKNSt7__cxx1112basic_stringIcSt11char_traitsIcESaIcEEE
yosys:_ZN5Yosys3AST7AstNode11mkconst_strE8LocationRKSt6vectorINS_5RTLIL5StateESaIS5_EE
yosys:_ZN5Yosys3AST7AstNode11realAsConstEi
yosys:_ZN5Yosys3AST7AstNode12detect_latchERKNSt7__cxx1112basic_stringIcSt11char_traitsIcESaIcEEE
yosys:_ZN5Yosys3AST7AstNode12mkconst_bitsE8LocationRKSt6vectorINS_5RTLIL5StateESaIS5_EEb
yosys:_ZN5Yosys3AST7AstNode12mkconst_bitsE8LocationRKSt6vectorINS_5RTLIL5StateESaIS5_EEbb
yosys:_ZN5Yosys3AST7AstNode12mktemp_logicE8LocationRKNSt7__cxx1112basic_stringIcSt11char_traitsIcESaIcEEEPS1_biib
yosys:_ZN5Yosys3AST7AstNode13clone_at_zeroEv
yosys:_ZN5Yosys3AST7AstNode13genWidthRTLILEibPKNS_7hashlib4dictINS_5RTLIL6SigBitES5_NS2_8hash_opsIS5_EEEE
yosys:_ZN5Yosys3AST7AstNode13label_genblksERSt3setINSt7__cxx1112basic_stringIcSt11char_traitsIcESaIcEEESt4lessIS8_ESaIS8_EERi
yosys:_ZN5Yosys3AST7AstNode13mem2reg_checkERNS_7hashlib4poolIPS1_NS2_8hash_opsIS4_EEEE
yosys:_ZN5Yosys3AST7AstNode13processFormatEibimb
yosys:_ZN5Yosys3AST7AstNode14mem2reg_removeERNS_7hashlib4poolIPS1_NS2_8hash_opsIS4_EEEE
yosys:_ZN5Yosys3AST7AstNode15delete_childrenEv
yosys:_ZN5Yosys3AST7AstNode15detectSignWidthERiRbPb
yosys:_ZN5Yosys3AST7AstNode15expand_genblockERKNSt7__cxx1112basic_stringIcSt11char_traitsIcESaIcEEE
yosys:_ZN5Yosys3AST7AstNode15get_tern_choiceEv
yosys:_ZN5Yosys3AST7AstNode16make_index_rangeEPS1_b
yosys:_ZN5Yosys3AST7AstNode17replace_variablesERSt3mapINSt7__cxx1112basic_stringIcSt11char_traitsIcESaIcEEENS1_9varinfo_tESt4lessIS8_ESaISt4pairIKS8_S9_EEEPS1_b
yosys:_ZN5Yosys3AST7AstNode17set_in_param_flagEbb
yosys:_ZN5Yosys3AST7AstNode18annotateTypedEnumsEPS1_
yosys:_ZN5Yosys3AST7AstNode18bitsAsUnsizedConstEi
yosys:_ZN5Yosys3AST7AstNode18get_bool_attributeENS_5RTLIL8IdStringE
yosys:_ZN5Yosys3AST7AstNode18lookup_cell_moduleEv
yosys:_ZN5Yosys3AST7AstNode18set_in_lvalue_flagEbb
yosys:_ZN5Yosys3AST7AstNode19eval_const_functionEPS1_b
yosys:_ZN5Yosys3AST7AstNode20is_simple_const_exprEv
yosys:_ZN5Yosys3AST7AstNode21detectSignWidthWorkerERiRbPb
yosys:_ZN5Yosys3AST7AstNode21fixup_hierarchy_flagsEb
yosys:_ZN5Yosys3AST7AstNode23mem2reg_as_needed_pass1ERNS_7hashlib4dictIPS1_NS2_4poolINSt7__cxx1112basic_stringIcSt11char_traitsIcESaIcEEENS2_8hash_opsISB_EEEENSC_IS4_EEEERNS3_IS4_jSF_EESJ_Rj
yosys:_ZN5Yosys3AST7AstNode23mem2reg_as_needed_pass2ERNS_7hashlib4poolIPS1_NS2_8hash_opsIS4_EEEES4_S4_S4_
yosys:_ZN5Yosys3AST7AstNode25allocateDefaultEnumValuesEv
yosys:_ZN5Yosys3AST7AstNode25has_const_only_constructsEv
yosys:_ZN5Yosys3AST7AstNode36replace_result_wire_name_in_functionERKNSt7__cxx1112basic_stringIcSt11char_traitsIcESaIcEEES9_
yosys:_ZN5Yosys3AST7AstNode5asIntEb
yosys:_ZN5Yosys3AST7AstNode6asRealEb
yosys:_ZN5Yosys3AST7AstNode7meminfoERiS2_S2_
yosys:_ZN5Yosys3AST7AstNode7readmemEbNSt7__cxx1112basic_stringIcSt11char_traitsIcESaIcEEEPS1_iib
yosys:_ZN5Yosys3AST7AstNode8genRTLILEib
yosys:_ZN5Yosys3AST7AstNode8simplifyEbiib
yosys:_ZN5Yosys3AST7AstNodeC1E8LocationNS0_11AstNodeTypeESt10unique_ptrIS1_St14default_deleteIS1_EES7_S7_S7_
yosys:_ZN5Yosys3AST7AstNodeC2E8LocationNS0_11AstNodeTypeESt10unique_ptrIS1_St14default_deleteIS1_EES7_S7_S7_
yosys:_ZN5Yosys3AST7AstNodeD1Ev
yosys:_ZN5Yosys3AST7AstNodeD2Ev
yosys:_ZN5Yosys3AST7BindingC1ENS_5RTLIL8IdStringES3_RKNS0_7AstNodeE
yosys:_ZN5Yosys3AST7BindingC2ENS_5RTLIL8IdStringES3_RKNS0_7AstNodeE
yosys:_ZN5Yosys3AST7processEPNS_5RTLIL6DesignEPNS0_7AstNodeEbbbbbbbbbbbbbbbbbbbbb
yosys:_ZN5Yosys3AST8astnodesE
yosys:_ZN5Yosys3AST8dpi_callE8LocationRKNSt7__cxx1112basic_stringIcSt11char_traitsIcESaIcEEES9_RKSt6vectorIS7_SaIS7_EERKSA_ISt10unique_ptrINS0_7AstNodeESt14default_deleteISG_EESaISJ_EE
yosys:_ZN5Yosys3AST8type2strB5cxx11ENS0_11AstNodeTypeE
yosys:_ZN5Yosys3AST9AstModule13derive_commonB5cxx11EPNS_5RTLIL6DesignERKNS_7hashlib4dictINS2_8IdStringENS2_5ConstENS5_8hash_opsIS7_EEEEPSt10unique_ptrINS0_7AstNodeESt14default_deleteISF_EEb
yosys:_ZN5Yosys3AST9AstModule17expand_interfacesEPNS_5RTLIL6DesignERKNS_7hashlib4dictINS2_8IdStringEPNS2_6ModuleENS5_8hash_opsIS7_EEEE
yosys:_ZN5Yosys3AST9AstModule22reprocess_if_necessaryEPNS_5RTLIL6DesignE
yosys:_ZN5Yosys3AST9AstModule6deriveEPNS_5RTLIL6DesignERKNS_7hashlib4dictINS2_8IdStringENS2_5ConstENS5_8hash_opsIS7_EEEERKNS6_IS7_PNS2_6ModuleESA_EERKNS6_IS7_S7_SA_EEb
yosys:_ZN5Yosys3AST9AstModule6deriveEPNS_5RTLIL6DesignERKNS_7hashlib4dictINS2_8IdStringENS2_5ConstENS5_8hash_opsIS7_EEEEb
yosys:_ZN5Yosys3AigC1EPNS_5RTLIL4CellE
yosys:_ZN5Yosys3AigC2EPNS_5RTLIL4CellE
yosys:_ZN5Yosys3Fmt11parse_rtlilEPKNS_5RTLIL4CellE
yosys:_ZN5Yosys3Fmt13parse_verilogERKSt6vectorINS_13VerilogFmtArgESaIS2_EEbiNS_5RTLIL8IdStringES8_
yosys:_ZN5Yosys3Fmt14append_literalERKNSt7__cxx1112basic_stringIcSt11char_traitsIcESaIcEEE
yosys:_ZN5Yosys3Fmt38apply_verilog_automatic_sizing_and_addERNS_7FmtPartE
yosys:_ZN5Yosys3Mem10widen_prepEi
yosys:_ZN5Yosys3Mem11clear_initsEv
yosys:_ZN5Yosys3Mem12emulate_rdenEiPNS_10FfInitValsE
yosys:_ZN5Yosys3Mem12extract_rdffEiPNS_10FfInitValsE
yosys:_ZN5Yosys3Mem13emulate_resetEibbbPNS_10FfInitValsE
yosys:_ZN5Yosys3Mem13widen_wr_portEii
yosys:_ZN5Yosys3Mem14coalesce_initsEv
yosys:_ZN5Yosys3Mem16emulate_priorityEiiPNS_10FfInitValsE
yosys:_ZN5Yosys3Mem16get_all_memoriesEPNS_5RTLIL6ModuleE
yosys:_ZN5Yosys3Mem16prepare_rd_mergeEiiPNS_10FfInitValsE
yosys:_ZN5Yosys3Mem16prepare_wr_mergeEiiPNS_10FfInitValsE
yosys:_ZN5Yosys3Mem18emulate_read_firstEPNS_10FfInitValsE
yosys:_ZN5Yosys3Mem20emulate_transparencyEiiPNS_10FfInitValsE
yosys:_ZN5Yosys3Mem21emulate_read_first_okEv
yosys:_ZN5Yosys3Mem21get_selected_memoriesEPNS_5RTLIL6ModuleE
yosys:_ZN5Yosys3Mem23emulate_rd_ce_over_srstEi
yosys:_ZN5Yosys3Mem23emulate_rd_srst_over_ceEi
yosys:_ZN5Yosys3Mem4emitEv
yosys:_ZN5Yosys3Mem5checkEv
yosys:_ZN5Yosys3Mem6narrowEv
yosys:_ZN5Yosys3Mem6removeEv
yosys:_ZN5Yosys4Pass10extra_argsESt6vectorINSt7__cxx1112basic_stringIcSt11char_traitsIcESaIcEEESaIS7_EEmPNS_5RTLIL6DesignEb
yosys:_ZN5Yosys4Pass11clear_flagsEv
yosys:_ZN5Yosys4Pass11on_registerEv
yosys:_ZN5Yosys4Pass11on_shutdownEv
yosys:_ZN5Yosys4Pass11pre_executeEv
yosys:_ZN5Yosys4Pass12cmd_log_argsERKSt6vectorINSt7__cxx1112basic_stringIcSt11char_traitsIcESaIcEEESaIS7_EE
yosys:_ZN5Yosys4Pass12post_executeENS0_21pre_post_exec_state_tE
yosys:_ZN5Yosys4Pass12run_registerEv
yosys:_ZN5Yosys4Pass13done_registerEv
yosys:_ZN5Yosys4Pass13init_registerEv
yosys:_ZN5Yosys4Pass14call_on_moduleEPNS_5RTLIL6DesignEPNS1_6ModuleENSt7__cxx1112basic_stringIcSt11char_traitsIcESaIcEEE
yosys:_ZN5Yosys4Pass14call_on_moduleEPNS_5RTLIL6DesignEPNS1_6ModuleESt6vectorINSt7__cxx1112basic_stringIcSt11char_traitsIcESaIcEEESaISC_EE
yosys:_ZN5Yosys4Pass14formatted_helpEv
yosys:_ZN5Yosys4Pass17call_on_selectionEPNS_5RTLIL6DesignERKNS1_9SelectionENSt7__cxx1112basic_stringIcSt11char_traitsIcESaIcEEE
yosys:_ZN5Yosys4Pass17call_on_selectionEPNS_5RTLIL6DesignERKNS1_9SelectionESt6vectorINSt7__cxx1112basic_stringIcSt11char_traitsIcESaIcEEESaISD_EE
yosys:_ZN5Yosys4Pass32subtract_from_current_runtime_nsEl
yosys:_ZN5Yosys4Pass4callEPNS_5RTLIL6DesignENSt7__cxx1112basic_stringIcSt11char_traitsIcESaIcEEE
yosys:_ZN5Yosys4Pass4callEPNS_5RTLIL6DesignESt6vectorINSt7__cxx1112basic_stringIcSt11char_traitsIcESaIcEEESaISA_EE
yosys:_ZN5Yosys4Pass4helpEv
yosys:_ZN5Yosys4Pass9cmd_errorERKSt6vectorINSt7__cxx1112basic_stringIcSt11char_traitsIcESaIcEEESaIS7_EEmS7_
yosys:_ZN5Yosys4PassC2ENSt7__cxx1112basic_stringIcSt11char_traitsIcESaIcEEES6_St15source_location
yosys:_ZN5Yosys4PassD0Ev
yosys:_ZN5Yosys4PassD1Ev
yosys:_ZN5Yosys4PassD2Ev
yosys:_ZN5Yosys5MemWr11compress_enEv
yosys:_ZN5Yosys5MemWr13decompress_enERKSt6vectorIiSaIiEENS_5RTLIL7SigSpecE
yosys:_ZN5Yosys5RTLIL10AttrObject18set_bool_attributeENS0_8IdStringEb
yosys:_ZN5Yosys5RTLIL10AttrObject20set_intvec_attributeENS0_8IdStringERKSt6vectorIiSaIiEE
yosys:_ZN5Yosys5RTLIL10AttrObject20set_string_attributeENS0_8IdStringENSt7__cxx1112basic_stringIcSt11char_traitsIcESaIcEEE
yosys:_ZN5Yosys5RTLIL10AttrObject21add_strpool_attributeENS0_8IdStringERKNS_7hashlib4poolINSt7__cxx1112basic_stringIcSt11char_traitsIcESaIcEEENS3_8hash_opsISA_EEEE
yosys:_ZN5Yosys5RTLIL10AttrObject21set_hdlname_attributeERKSt6vectorINSt7__cxx1112basic_stringIcSt11char_traitsIcESaIcEEESaIS8_EE
yosys:_ZN5Yosys5RTLIL10AttrObject21set_strpool_attributeENS0_8IdStringERKNS_7hashlib4poolINSt7__cxx1112basic_stringIcSt11char_traitsIcESaIcEEENS3_8hash_opsISA_EEEE
yosys:_ZN5Yosys5RTLIL10SwitchRuleD1Ev
yosys:_ZN5Yosys5RTLIL10SwitchRuleD2Ev
yosys:_ZN5Yosys5RTLIL10const_bmuxERKNS0_5ConstES3_
yosys:_ZN5Yosys5RTLIL10const_pmuxERKNS0_5ConstES3_S3_
yosys:_ZN5Yosys5RTLIL10const_sshlERKNS0_5ConstES3_bbi
yosys:_ZN5Yosys5RTLIL10const_sshrERKNS0_5ConstES3_bbi
yosys:_ZN5Yosys5RTLIL10const_xnorERKNS0_5ConstES3_bbi
yosys:_ZN5Yosys5RTLIL11const_bweqxERKNS0_5ConstES3_
yosys:_ZN5Yosys5RTLIL11const_bwmuxERKNS0_5ConstES3_S3_
yosys:_ZN5Yosys5RTLIL11const_demuxERKNS0_5ConstES3_
yosys:_ZN5Yosys5RTLIL11const_shiftERKNS0_5ConstES3_bbi
yosys:_ZN5Yosys5RTLIL12const_shiftxERKNS0_5ConstES3_bbi
yosys:_ZN5Yosys5RTLIL14OwningIdString15collect_garbageEv
yosys:_ZN5Yosys5RTLIL14OwningIdString5gc_nsE
yosys:_ZN5Yosys5RTLIL14OwningIdString8gc_countE
yosys:_ZN5Yosys5RTLIL14const_divfloorERKNS0_5ConstES3_bbi
yosys:_ZN5Yosys5RTLIL14const_logic_orERKNS0_5ConstES3_bbi
yosys:_ZN5Yosys5RTLIL14const_modfloorERKNS0_5ConstES3_bbi
yosys:_ZN5Yosys5RTLIL15const_logic_andERKNS0_5ConstES3_bbi
yosys:_ZN5Yosys5RTLIL15const_logic_notERKNS0_5ConstES3_bbi
yosys:_ZN5Yosys5RTLIL15const_reduce_orERKNS0_5ConstES3_bbi
yosys:_ZN5Yosys5RTLIL16const_reduce_andERKNS0_5ConstES3_bbi
yosys:_ZN5Yosys5RTLIL16const_reduce_xorERKNS0_5ConstES3_bbi
yosys:_ZN5Yosys5RTLIL17const_reduce_boolERKNS0_5ConstES3_bbi
yosys:_ZN5Yosys5RTLIL17const_reduce_xnorERKNS0_5ConstES3_bbi
yosys:_ZN5Yosys5RTLIL21builtin_ff_cell_typesEv
yosys:_ZN5Yosys5RTLIL4Cell10unsetParamENS0_8IdStringE
yosys:_ZN5Yosys5RTLIL4Cell13get_all_cellsEv
yosys:_ZN5Yosys5RTLIL4Cell16fixup_parametersEbb
yosys:_ZN5Yosys5RTLIL4Cell4sortEv
yosys:_ZN5Yosys5RTLIL4Cell5checkEv
yosys:_ZN5Yosys5RTLIL4Cell7setPortENS0_8IdStringENS0_7SigSpecE
yosys:_ZN5Yosys5RTLIL4Cell8setParamENS0_8IdStringENS0_5ConstE
yosys:_ZN5Yosys5RTLIL4Cell9unsetPortENS0_8IdStringE
yosys:_ZN5Yosys5RTLIL4CellC1Ev
yosys:_ZN5Yosys5RTLIL4CellC2Ev
yosys:_ZN5Yosys5RTLIL4CellD1Ev
yosys:_ZN5Yosys5RTLIL4CellD2Ev
yosys:_ZN5Yosys5RTLIL4Wire13get_all_wiresEv
yosys:_ZN5Yosys5RTLIL4WireC1Ev
yosys:_ZN5Yosys5RTLIL4WireC2Ev
yosys:_ZN5Yosys5RTLIL4WireD1Ev
yosys:_ZN5Yosys5RTLIL4WireD2Ev
yosys:_ZN5Yosys5RTLIL5Const11from_stringERKNSt7__cxx1112basic_stringIcSt11char_traitsIcESaIcEEE
yosys:_ZN5Yosys5RTLIL5Const13bits_internalEv
yosys:_ZN5Yosys5RTLIL5Const21bitvectorize_internalEv
yosys:_ZN5Yosys5RTLIL5Const22tag_bare_integer_constERKNSt7__cxx1112basic_stringIcSt11char_traitsIcESaIcEEE
yosys:_ZN5Yosys5RTLIL5Const6appendERKS1_
yosys:_ZN5Yosys5RTLIL5Const7get_strB5cxx11Ev
yosys:_ZN5Yosys5RTLIL5Const8compressEb
yosys:_ZN5Yosys5RTLIL5Const8get_bitsEv
yosys:_ZN5Yosys5RTLIL5ConstC1ENS0_5StateEi
yosys:_ZN5Yosys5RTLIL5ConstC1ENSt7__cxx1112basic_stringIcSt11char_traitsIcESaIcEEE
yosys:_ZN5Yosys5RTLIL5ConstC1EOS1_
yosys:_ZN5Yosys5RTLIL5ConstC1ERKS1_
yosys:_ZN5Yosys5RTLIL5ConstC1ERKSt6vectorIbSaIbEE
yosys:_ZN5Yosys5RTLIL5ConstC1Ex
yosys:_ZN5Yosys5RTLIL5ConstC1Exi
yosys:_ZN5Yosys5RTLIL5ConstC2ENS0_5StateEi
yosys:_ZN5Yosys5RTLIL5ConstC2ENSt7__cxx1112basic_stringIcSt11char_traitsIcESaIcEEE
yosys:_ZN5Yosys5RTLIL5ConstC2EOS1_
yosys:_ZN5Yosys5RTLIL5ConstC2ERKS1_
yosys:_ZN5Yosys5RTLIL5ConstC2ERKSt6vectorIbSaIbEE
yosys:_ZN5Yosys5RTLIL5ConstC2Ex
yosys:_ZN5Yosys5RTLIL5ConstC2Exi
yosys:_ZN5Yosys5RTLIL5ConstD1Ev
yosys:_ZN5Yosys5RTLIL5ConstD2Ev
yosys:_ZN5Yosys5RTLIL5ConstaSERKS1_
yosys:_ZN5Yosys5RTLIL6Design12bufNormalizeEb
yosys:_ZN5Yosys5RTLIL6Design12sort_modulesEv
yosys:_ZN5Yosys5RTLIL6Design13pop_selectionEv
yosys:_ZN5Yosys5RTLIL6Design14push_selectionENS0_9SelectionE
yosys:_ZN5Yosys5RTLIL6Design15get_all_designsEv
yosys:_ZN5Yosys5RTLIL6Design16scratchpad_unsetERKNSt7__cxx1112basic_stringIcSt11char_traitsIcESaIcEEE
yosys:_ZN5Yosys5RTLIL6Design18scratchpad_set_intERKNSt7__cxx1112basic_stringIcSt11char_traitsIcESaIcEEEi
yosys:_ZN5Yosys5RTLIL6Design19push_full_selectionEv
yosys:_ZN5Yosys5RTLIL6Design19scratchpad_set_boolERKNSt7__cxx1112basic_stringIcSt11char_traitsIcESaIcEEEb
yosys:_ZN5Yosys5RTLIL6Design20push_empty_selectionEv
yosys:_ZN5Yosys5RTLIL6Design21scratchpad_set_stringERKNSt7__cxx1112basic_stringIcSt11char_traitsIcESaIcEEES7_
yosys:_ZN5Yosys5RTLIL6Design23push_complete_selectionEv
yosys:_ZN5Yosys5RTLIL6Design3addEPNS0_6ModuleE
yosys:_ZN5Yosys5RTLIL6Design3addEPNS0_7BindingE
yosys:_ZN5Yosys5RTLIL6Design4sortEv
yosys:_ZN5Yosys5RTLIL6Design5checkEv
yosys:_ZN5Yosys5RTLIL6Design6moduleENS0_8IdStringE
yosys:_ZN5Yosys5RTLIL6Design6removeEPNS0_6ModuleE
yosys:_ZN5Yosys5RTLIL6Design6renameEPNS0_6ModuleENS0_8IdStringE
yosys:_ZN5Yosys5RTLIL6Design7modulesEv
yosys:_ZN5Yosys5RTLIL6Design8optimizeEv
yosys:_ZN5Yosys5RTLIL6Design9addModuleENS0_8IdStringE
yosys:_ZN5Yosys5RTLIL6DesignC1Ev
yosys:_ZN5Yosys5RTLIL6DesignC2Ev
yosys:_ZN5Yosys5RTLIL6DesignD1Ev
yosys:_ZN5Yosys5RTLIL6DesignD2Ev
yosys:_ZN5Yosys5RTLIL6Memory15get_all_memorysEv
yosys:_ZN5Yosys5RTLIL6MemoryC1Ev
yosys:_ZN5Yosys5RTLIL6MemoryC2Ev
yosys:_ZN5Yosys5RTLIL6MemoryD1Ev
yosys:_ZN5Yosys5RTLIL6MemoryD2Ev
yosys:_ZN5Yosys5RTLIL6Module10AndnotGateENS0_8IdStringERKNS0_6SigBitES5_RKNSt7__cxx1112basic_stringIcSt11char_traitsIcESaIcEEE
yosys:_ZN5Yosys5RTLIL6Module10ReduceBoolENS0_8IdStringERKNS0_7SigSpecEbRKNSt7__cxx1112basic_stringIcSt11char_traitsIcESaIcEEE
yosys:_ZN5Yosys5RTLIL6Module10ReduceXnorENS0_8IdStringERKNS0_7SigSpecEbRKNSt7__cxx1112basic_stringIcSt11char_traitsIcESaIcEEE
yosys:_ZN5Yosys5RTLIL6Module10addAdlatchENS0_8IdStringERKNS0_7SigSpecES5_S5_S5_NS0_5ConstEbbRKNSt7__cxx1112basic_stringIcSt11char_traitsIcESaIcEEE
yosys:_ZN5Yosys5RTLIL6Module10addAndGateENS0_8IdStringERKNS0_6SigBitES5_S5_RKNSt7__cxx1112basic_stringIcSt11char_traitsIcESaIcEEE
yosys:_ZN5Yosys5RTLIL6Module10addAnyinitENS0_8IdStringERKNS0_7SigSpecES5_RKNSt7__cxx1112basic_stringIcSt11char_traitsIcESaIcEEE
yosys:_ZN5Yosys5RTLIL6Module10addBufGateENS0_8IdStringERKNS0_6SigBitES5_RKNSt7__cxx1112basic_stringIcSt11char_traitsIcESaIcEEE
yosys:_ZN5Yosys5RTLIL6Module10addDffGateENS0_8IdStringERKNS0_7SigSpecES5_S5_bRKNSt7__cxx1112basic_stringIcSt11char_traitsIcESaIcEEE
yosys:_ZN5Yosys5RTLIL6Module10addLogicOrENS0_8IdStringERKNS0_7SigSpecES5_S5_bRKNSt7__cxx1112basic_stringIcSt11char_traitsIcESaIcEEE
yosys:_ZN5Yosys5RTLIL6Module10addMuxGateENS0_8IdStringERKNS0_6SigBitES5_S5_S5_RKNSt7__cxx1112basic_stringIcSt11char_traitsIcESaIcEEE
yosys:_ZN5Yosys5RTLIL6Module10addNorGateENS0_8IdStringERKNS0_6SigBitES5_S5_RKNSt7__cxx1112basic_stringIcSt11char_traitsIcESaIcEEE
yosys:_ZN5Yosys5RTLIL6Module10addNotGateENS0_8IdStringERKNS0_6SigBitES5_RKNSt7__cxx1112basic_stringIcSt11char_traitsIcESaIcEEE
yosys:_ZN5Yosys5RTLIL6Module10addProcessENS0_8IdStringE
yosys:_ZN5Yosys5RTLIL6Module10addProcessENS0_8IdStringEPKNS0_7ProcessE
yosys:_ZN5Yosys5RTLIL6Module10addXorGateENS0_8IdStringERKNS0_6SigBitES5_S5_RKNSt7__cxx1112basic_stringIcSt11char_traitsIcESaIcEEE
yosys:_ZN5Yosys5RTLIL6Module10swap_namesEPNS0_4CellES3_
yosys:_ZN5Yosys5RTLIL6Module10swap_namesEPNS0_4WireES3_
yosys:_ZN5Yosys5RTLIL6Module11OriginalTagENS0_8IdStringERKNSt7__cxx1112basic_stringIcSt11char_traitsIcESaIcEEERKNS0_7SigSpecESA_
yosys:_ZN5Yosys5RTLIL6Module11addAdffGateENS0_8IdStringERKNS0_7SigSpecES5_S5_S5_bbbRKNSt7__cxx1112basic_stringIcSt11char_traitsIcESaIcEEE
yosys:_ZN5Yosys5RTLIL6Module11addAoi3GateENS0_8IdStringERKNS0_6SigBitES5_S5_S5_RKNSt7__cxx1112basic_stringIcSt11char_traitsIcESaIcEEE
yosys:_ZN5Yosys5RTLIL6Module11addAoi4GateENS0_8IdStringERKNS0_6SigBitES5_S5_S5_S5_RKNSt7__cxx1112basic_stringIcSt11char_traitsIcESaIcEEE
yosys:_ZN5Yosys5RTLIL6Module11addDffeGateENS0_8IdStringERKNS0_7SigSpecES5_S5_S5_bbRKNSt7__cxx1112basic_stringIcSt11char_traitsIcESaIcEEE
yosys:_ZN5Yosys5RTLIL6Module11addDivFloorENS0_8IdStringERKNS0_7SigSpecES5_S5_bRKNSt7__cxx1112basic_stringIcSt11char_traitsIcESaIcEEE
yosys:_ZN5Yosys5RTLIL6Module11addDlatchsrENS0_8IdStringERKNS0_7SigSpecES5_S5_S3_S5_bbbRKNSt7__cxx1112basic_stringIcSt11char_traitsIcESaIcEEE
yosys:_ZN5Yosys5RTLIL6Module11addLogicAndENS0_8IdStringERKNS0_7SigSpecES5_S5_bRKNSt7__cxx1112basic_stringIcSt11char_traitsIcESaIcEEE
yosys:_ZN5Yosys5RTLIL6Module11addLogicNotENS0_8IdStringERKNS0_7SigSpecES5_bRKNSt7__cxx1112basic_stringIcSt11char_traitsIcESaIcEEE
yosys:_ZN5Yosys5RTLIL6Module11addModFloorENS0_8IdStringERKNS0_7SigSpecES5_S5_bRKNSt7__cxx1112basic_stringIcSt11char_traitsIcESaIcEEE
yosys:_ZN5Yosys5RTLIL6Module11addNandGateENS0_8IdStringERKNS0_6SigBitES5_S5_RKNSt7__cxx1112basic_stringIcSt11char_traitsIcESaIcEEE
yosys:_ZN5Yosys5RTLIL6Module11addNmuxGateENS0_8IdStringERKNS0_6SigBitES5_S5_S5_RKNSt7__cxx1112basic_stringIcSt11char_traitsIcESaIcEEE
yosys:_ZN5Yosys5RTLIL6Module11addOai3GateENS0_8IdStringERKNS0_6SigBitES5_S5_S5_RKNSt7__cxx1112basic_stringIcSt11char_traitsIcESaIcEEE
yosys:_ZN5Yosys5RTLIL6Module11addOai4GateENS0_8IdStringERKNS0_6SigBitES5_S5_S5_S5_RKNSt7__cxx1112basic_stringIcSt11char_traitsIcESaIcEEE
yosys:_ZN5Yosys5RTLIL6Module11addReduceOrENS0_8IdStringERKNS0_7SigSpecES5_bRKNSt7__cxx1112basic_stringIcSt11char_traitsIcESaIcEEE
yosys:_ZN5Yosys5RTLIL6Module11addSdffGateENS0_8IdStringERKNS0_7SigSpecES5_S5_S5_bbbRKNSt7__cxx1112basic_stringIcSt11char_traitsIcESaIcEEE
yosys:_ZN5Yosys5RTLIL6Module11addXnorGateENS0_8IdStringERKNS0_6SigBitES5_S5_RKNSt7__cxx1112basic_stringIcSt11char_traitsIcESaIcEEE
yosys:_ZN5Yosys5RTLIL6Module11fixup_portsEv
yosys:_ZN5Yosys5RTLIL6Module12addAdffeGateENS0_8IdStringERKNS0_7SigSpecES5_S5_S5_S5_bbbbRKNSt7__cxx1112basic_stringIcSt11char_traitsIcESaIcEEE
yosys:_ZN5Yosys5RTLIL6Module12addAldffGateENS0_8IdStringERKNS0_7SigSpecES5_S5_S5_S5_bbRKNSt7__cxx1112basic_stringIcSt11char_traitsIcESaIcEEE
yosys:_ZN5Yosys5RTLIL6Module12addDffsrGateENS0_8IdStringERKNS0_7SigSpecES5_S5_S3_S5_bbbRKNSt7__cxx1112basic_stringIcSt11char_traitsIcESaIcEEE
yosys:_ZN5Yosys5RTLIL6Module12addOrnotGateENS0_8IdStringERKNS0_6SigBitES5_S5_RKNSt7__cxx1112basic_stringIcSt11char_traitsIcESaIcEEE
yosys:_ZN5Yosys5RTLIL6Module12addReduceAndENS0_8IdStringERKNS0_7SigSpecES5_bRKNSt7__cxx1112basic_stringIcSt11char_traitsIcESaIcEEE
yosys:_ZN5Yosys5RTLIL6Module12addReduceXorENS0_8IdStringERKNS0_7SigSpecES5_bRKNSt7__cxx1112basic_stringIcSt11char_traitsIcESaIcEEE
yosys:_ZN5Yosys5RTLIL6Module12addSdffeGateENS0_8IdStringERKNS0_7SigSpecES5_S5_S5_S5_bbbbRKNSt7__cxx1112basic_stringIcSt11char_traitsIcESaIcEEE
yosys:_ZN5Yosys5RTLIL6Module12bufNormalizeEv
yosys:_ZN5Yosys5RTLIL6Module12makeblackboxEv
yosys:_ZN5Yosys5RTLIL6Module13addAldffeGateENS0_8IdStringERKNS0_7SigSpecES5_S5_S5_S5_S5_bbbRKNSt7__cxx1112basic_stringIcSt11char_traitsIcESaIcEEE
yosys:_ZN5Yosys5RTLIL6Module13addAndnotGateENS0_8IdStringERKNS0_6SigBitES5_S5_RKNSt7__cxx1112basic_stringIcSt11char_traitsIcESaIcEEE
yosys:_ZN5Yosys5RTLIL6Module13addDffsreGateENS0_8IdStringERKNS0_7SigSpecES5_S5_S5_S3_S5_bbbbRKNSt7__cxx1112basic_stringIcSt11char_traitsIcESaIcEEE
yosys:_ZN5Yosys5RTLIL6Module13addDlatchGateENS0_8IdStringERKNS0_7SigSpecES5_S5_bRKNSt7__cxx1112basic_stringIcSt11char_traitsIcESaIcEEE
yosys:_ZN5Yosys5RTLIL6Module13addReduceBoolENS0_8IdStringERKNS0_7SigSpecES5_bRKNSt7__cxx1112basic_stringIcSt11char_traitsIcESaIcEEE
yosys:_ZN5Yosys5RTLIL6Module13addReduceXnorENS0_8IdStringERKNS0_7SigSpecES5_bRKNSt7__cxx1112basic_stringIcSt11char_traitsIcESaIcEEE
yosys:_ZN5Yosys5RTLIL6Module13addSdffceGateENS0_8IdStringERKNS0_7SigSpecES5_S5_S5_S5_bbbbRKNSt7__cxx1112basic_stringIcSt11char_traitsIcESaIcEEE
yosys:_ZN5Yosys5RTLIL6Module14addAdlatchGateENS0_8IdStringERKNS0_7SigSpecES5_S5_S5_bbbRKNSt7__cxx1112basic_stringIcSt11char_traitsIcESaIcEEE
yosys:_ZN5Yosys5RTLIL6Module15addDlatchsrGateENS0_8IdStringERKNS0_7SigSpecES5_S5_S3_S5_bbbRKNSt7__cxx1112basic_stringIcSt11char_traitsIcESaIcEEE
yosys:_ZN5Yosys5RTLIL6Module15addOverwriteTagENS0_8IdStringERKNSt7__cxx1112basic_stringIcSt11char_traitsIcESaIcEEERKNS0_7SigSpecESD_SD_SA_
yosys:_ZN5Yosys5RTLIL6Module15get_all_modulesEv
yosys:_ZN5Yosys5RTLIL6Module15new_connectionsERKSt6vectorISt4pairINS0_7SigSpecES4_ESaIS5_EE
yosys:_ZN5Yosys5RTLIL6Module17expand_interfacesEPNS0_6DesignERKNS_7hashlib4dictINS0_8IdStringEPS1_NS4_8hash_opsIS6_EEEE
yosys:_ZN5Yosys5RTLIL6Module22reprocess_if_necessaryEPNS0_6DesignE
yosys:_ZN5Yosys5RTLIL6Module2EqENS0_8IdStringERKNS0_7SigSpecES5_bRKNSt7__cxx1112basic_stringIcSt11char_traitsIcESaIcEEE
yosys:_ZN5Yosys5RTLIL6Module2GeENS0_8IdStringERKNS0_7SigSpecES5_bRKNSt7__cxx1112basic_stringIcSt11char_traitsIcESaIcEEE
yosys:_ZN5Yosys5RTLIL6Module2GtENS0_8IdStringERKNS0_7SigSpecES5_bRKNSt7__cxx1112basic_stringIcSt11char_traitsIcESaIcEEE
yosys:_ZN5Yosys5RTLIL6Module2LeENS0_8IdStringERKNS0_7SigSpecES5_bRKNSt7__cxx1112basic_stringIcSt11char_traitsIcESaIcEEE
yosys:_ZN5Yosys5RTLIL6Module2LtENS0_8IdStringERKNS0_7SigSpecES5_bRKNSt7__cxx1112basic_stringIcSt11char_traitsIcESaIcEEE
yosys:_ZN5Yosys5RTLIL6Module2NeENS0_8IdStringERKNS0_7SigSpecES5_bRKNSt7__cxx1112basic_stringIcSt11char_traitsIcESaIcEEE
yosys:_ZN5Yosys5RTLIL6Module2OrENS0_8IdStringERKNS0_7SigSpecES5_bRKNSt7__cxx1112basic_stringIcSt11char_traitsIcESaIcEEE
yosys:_ZN5Yosys5RTLIL6Module3AddENS0_8IdStringERKNS0_7SigSpecES5_bRKNSt7__cxx1112basic_stringIcSt11char_traitsIcESaIcEEE
yosys:_ZN5Yosys5RTLIL6Module3AndENS0_8IdStringERKNS0_7SigSpecES5_bRKNSt7__cxx1112basic_stringIcSt11char_traitsIcESaIcEEE
yosys:_ZN5Yosys5RTLIL6Module3BufENS0_8IdStringERKNS0_7SigSpecEbRKNSt7__cxx1112basic_stringIcSt11char_traitsIcESaIcEEE
yosys:_ZN5Yosys5RTLIL6Module3DivENS0_8IdStringERKNS0_7SigSpecES5_bRKNSt7__cxx1112basic_stringIcSt11char_traitsIcESaIcEEE
yosys:_ZN5Yosys5RTLIL6Module3EqxENS0_8IdStringERKNS0_7SigSpecES5_bRKNSt7__cxx1112basic_stringIcSt11char_traitsIcESaIcEEE
yosys:_ZN5Yosys5RTLIL6Module3ModENS0_8IdStringERKNS0_7SigSpecES5_bRKNSt7__cxx1112basic_stringIcSt11char_traitsIcESaIcEEE
yosys:_ZN5Yosys5RTLIL6Module3MulENS0_8IdStringERKNS0_7SigSpecES5_bRKNSt7__cxx1112basic_stringIcSt11char_traitsIcESaIcEEE
yosys:_ZN5Yosys5RTLIL6Module3MuxENS0_8IdStringERKNS0_7SigSpecES5_S5_RKNSt7__cxx1112basic_stringIcSt11char_traitsIcESaIcEEE
yosys:_ZN5Yosys5RTLIL6Module3NegENS0_8IdStringERKNS0_7SigSpecEbRKNSt7__cxx1112basic_stringIcSt11char_traitsIcESaIcEEE
yosys:_ZN5Yosys5RTLIL6Module3NexENS0_8IdStringERKNS0_7SigSpecES5_bRKNSt7__cxx1112basic_stringIcSt11char_traitsIcESaIcEEE
yosys:_ZN5Yosys5RTLIL6Module3NotENS0_8IdStringERKNS0_7SigSpecEbRKNSt7__cxx1112basic_stringIcSt11char_traitsIcESaIcEEE
yosys:_ZN5Yosys5RTLIL6Module3PosENS0_8IdStringERKNS0_7SigSpecEbRKNSt7__cxx1112basic_stringIcSt11char_traitsIcESaIcEEE
yosys:_ZN5Yosys5RTLIL6Module3ShlENS0_8IdStringERKNS0_7SigSpecES5_bRKNSt7__cxx1112basic_stringIcSt11char_traitsIcESaIcEEE
yosys:_ZN5Yosys5RTLIL6Module3ShrENS0_8IdStringERKNS0_7SigSpecES5_bRKNSt7__cxx1112basic_stringIcSt11char_traitsIcESaIcEEE
yosys:_ZN5Yosys5RTLIL6Module3SubENS0_8IdStringERKNS0_7SigSpecES5_bRKNSt7__cxx1112basic_stringIcSt11char_traitsIcESaIcEEE
yosys:_ZN5Yosys5RTLIL6Module3XorENS0_8IdStringERKNS0_7SigSpecES5_bRKNSt7__cxx1112basic_stringIcSt11char_traitsIcESaIcEEE
yosys:_ZN5Yosys5RTLIL6Module3addEPNS0_4CellE
yosys:_ZN5Yosys5RTLIL6Module3addEPNS0_4WireE
yosys:_ZN5Yosys5RTLIL6Module3addEPNS0_7BindingE
yosys:_ZN5Yosys5RTLIL6Module3addEPNS0_7ProcessE
yosys:_ZN5Yosys5RTLIL6Module4BmuxENS0_8IdStringERKNS0_7SigSpecES5_RKNSt7__cxx1112basic_stringIcSt11char_traitsIcESaIcEEE
yosys:_ZN5Yosys5RTLIL6Module4PmuxENS0_8IdStringERKNS0_7SigSpecES5_S5_RKNSt7__cxx1112basic_stringIcSt11char_traitsIcESaIcEEE
yosys:_ZN5Yosys5RTLIL6Module4SshlENS0_8IdStringERKNS0_7SigSpecES5_bRKNSt7__cxx1112basic_stringIcSt11char_traitsIcESaIcEEE
yosys:_ZN5Yosys5RTLIL6Module4SshrENS0_8IdStringERKNS0_7SigSpecES5_bRKNSt7__cxx1112basic_stringIcSt11char_traitsIcESaIcEEE
yosys:_ZN5Yosys5RTLIL6Module4XnorENS0_8IdStringERKNS0_7SigSpecES5_bRKNSt7__cxx1112basic_stringIcSt11char_traitsIcESaIcEEE
yosys:_ZN5Yosys5RTLIL6Module4sortEv
yosys:_ZN5Yosys5RTLIL6Module5BweqxENS0_8IdStringERKNS0_7SigSpecES5_RKNSt7__cxx1112basic_stringIcSt11char_traitsIcESaIcEEE
yosys:_ZN5Yosys5RTLIL6Module5BwmuxENS0_8IdStringERKNS0_7SigSpecES5_S5_RKNSt7__cxx1112basic_stringIcSt11char_traitsIcESaIcEEE
yosys:_ZN5Yosys5RTLIL6Module5DemuxENS0_8IdStringERKNS0_7SigSpecES5_RKNSt7__cxx1112basic_stringIcSt11char_traitsIcESaIcEEE
yosys:_ZN5Yosys5RTLIL6Module5ShiftENS0_8IdStringERKNS0_7SigSpecES5_bRKNSt7__cxx1112basic_stringIcSt11char_traitsIcESaIcEEE
yosys:_ZN5Yosys5RTLIL6Module5addEqENS0_8IdStringERKNS0_7SigSpecES5_S5_bRKNSt7__cxx1112basic_stringIcSt11char_traitsIcESaIcEEE
yosys:_ZN5Yosys5RTLIL6Module5addFaENS0_8IdStringERKNS0_7SigSpecES5_S5_S5_S5_RKNSt7__cxx1112basic_stringIcSt11char_traitsIcESaIcEEE
yosys:_ZN5Yosys5RTLIL6Module5addFfENS0_8IdStringERKNS0_7SigSpecES5_RKNSt7__cxx1112basic_stringIcSt11char_traitsIcESaIcEEE
yosys:_ZN5Yosys5RTLIL6Module5addGeENS0_8IdStringERKNS0_7SigSpecES5_S5_bRKNSt7__cxx1112basic_stringIcSt11char_traitsIcESaIcEEE
yosys:_ZN5Yosys5RTLIL6Module5addGtENS0_8IdStringERKNS0_7SigSpecES5_S5_bRKNSt7__cxx1112basic_stringIcSt11char_traitsIcESaIcEEE
yosys:_ZN5Yosys5RTLIL6Module5addLeENS0_8IdStringERKNS0_7SigSpecES5_S5_bRKNSt7__cxx1112basic_stringIcSt11char_traitsIcESaIcEEE
yosys:_ZN5Yosys5RTLIL6Module5addLtENS0_8IdStringERKNS0_7SigSpecES5_S5_bRKNSt7__cxx1112basic_stringIcSt11char_traitsIcESaIcEEE
yosys:_ZN5Yosys5RTLIL6Module5addNeENS0_8IdStringERKNS0_7SigSpecES5_S5_bRKNSt7__cxx1112basic_stringIcSt11char_traitsIcESaIcEEE
yosys:_ZN5Yosys5RTLIL6Module5addOrENS0_8IdStringERKNS0_7SigSpecES5_S5_bRKNSt7__cxx1112basic_stringIcSt11char_traitsIcESaIcEEE
yosys:_ZN5Yosys5RTLIL6Module5addSrENS0_8IdStringERKNS0_7SigSpecES5_S5_bbRKNSt7__cxx1112basic_stringIcSt11char_traitsIcESaIcEEE
yosys:_ZN5Yosys5RTLIL6Module5checkEv
yosys:_ZN5Yosys5RTLIL6Module6AllseqENS0_8IdStringEiRKNSt7__cxx1112basic_stringIcSt11char_traitsIcESaIcEEE
yosys:_ZN5Yosys5RTLIL6Module6AnyseqENS0_8IdStringEiRKNSt7__cxx1112basic_stringIcSt11char_traitsIcESaIcEEE
yosys:_ZN5Yosys5RTLIL6Module6GetTagENS0_8IdStringERKNSt7__cxx1112basic_stringIcSt11char_traitsIcESaIcEEERKNS0_7SigSpecESA_
yosys:_ZN5Yosys5RTLIL6Module6OrGateENS0_8IdStringERKNS0_6SigBitES5_RKNSt7__cxx1112basic_stringIcSt11char_traitsIcESaIcEEE
yosys:_ZN5Yosys5RTLIL6Module6SetTagENS0_8IdStringERKNSt7__cxx1112basic_stringIcSt11char_traitsIcESaIcEEERKNS0_7SigSpecESD_SD_SA_
yosys:_ZN5Yosys5RTLIL6Module6ShiftxENS0_8IdStringERKNS0_7SigSpecES5_bRKNSt7__cxx1112basic_stringIcSt11char_traitsIcESaIcEEE
yosys:_ZN5Yosys5RTLIL6Module6addAddENS0_8IdStringERKNS0_7SigSpecES5_S5_bRKNSt7__cxx1112basic_stringIcSt11char_traitsIcESaIcEEE
yosys:_ZN5Yosys5RTLIL6Module6addAndENS0_8IdStringERKNS0_7SigSpecES5_S5_bRKNSt7__cxx1112basic_stringIcSt11char_traitsIcESaIcEEE
yosys:_ZN5Yosys5RTLIL6Module6addBufENS0_8IdStringERKNS0_7SigSpecES5_bRKNSt7__cxx1112basic_stringIcSt11char_traitsIcESaIcEEE
yosys:_ZN5Yosys5RTLIL6Module6addDffENS0_8IdStringERKNS0_7SigSpecES5_S5_bRKNSt7__cxx1112basic_stringIcSt11char_traitsIcESaIcEEE
yosys:_ZN5Yosys5RTLIL6Module6addDivENS0_8IdStringERKNS0_7SigSpecES5_S5_bRKNSt7__cxx1112basic_stringIcSt11char_traitsIcESaIcEEE
yosys:_ZN5Yosys5RTLIL6Module6addEqxENS0_8IdStringERKNS0_7SigSpecES5_S5_bRKNSt7__cxx1112basic_stringIcSt11char_traitsIcESaIcEEE
yosys:_ZN5Yosys5RTLIL6Module6addLutENS0_8IdStringERKNS0_7SigSpecES5_NS0_5ConstERKNSt7__cxx1112basic_stringIcSt11char_traitsIcESaIcEEE
yosys:_ZN5Yosys5RTLIL6Module6addModENS0_8IdStringERKNS0_7SigSpecES5_S5_bRKNSt7__cxx1112basic_stringIcSt11char_traitsIcESaIcEEE
yosys:_ZN5Yosys5RTLIL6Module6addMulENS0_8IdStringERKNS0_7SigSpecES5_S5_bRKNSt7__cxx1112basic_stringIcSt11char_traitsIcESaIcEEE
yosys:_ZN5Yosys5RTLIL6Module6addMuxENS0_8IdStringERKNS0_7SigSpecES5_S5_S5_RKNSt7__cxx1112basic_stringIcSt11char_traitsIcESaIcEEE
yosys:_ZN5Yosys5RTLIL6Module6addNegENS0_8IdStringERKNS0_7SigSpecES5_bRKNSt7__cxx1112basic_stringIcSt11char_traitsIcESaIcEEE
yosys:_ZN5Yosys5RTLIL6Module6addNexENS0_8IdStringERKNS0_7SigSpecES5_S5_bRKNSt7__cxx1112basic_stringIcSt11char_traitsIcESaIcEEE
yosys:_ZN5Yosys5RTLIL6Module6addNotENS0_8IdStringERKNS0_7SigSpecES5_bRKNSt7__cxx1112basic_stringIcSt11char_traitsIcESaIcEEE
yosys:_ZN5Yosys5RTLIL6Module6addPosENS0_8IdStringERKNS0_7SigSpecES5_bRKNSt7__cxx1112basic_stringIcSt11char_traitsIcESaIcEEE
yosys:_ZN5Yosys5RTLIL6Module6addPowENS0_8IdStringERKNS0_7SigSpecES5_S5_bbRKNSt7__cxx1112basic_stringIcSt11char_traitsIcESaIcEEE
yosys:_ZN5Yosys5RTLIL6Module6addShlENS0_8IdStringERKNS0_7SigSpecES5_S5_bRKNSt7__cxx1112basic_stringIcSt11char_traitsIcESaIcEEE
yosys:_ZN5Yosys5RTLIL6Module6addShrENS0_8IdStringERKNS0_7SigSpecES5_S5_bRKNSt7__cxx1112basic_stringIcSt11char_traitsIcESaIcEEE
yosys:_ZN5Yosys5RTLIL6Module6addSubENS0_8IdStringERKNS0_7SigSpecES5_S5_bRKNSt7__cxx1112basic_stringIcSt11char_traitsIcESaIcEEE
yosys:_ZN5Yosys5RTLIL6Module6addXorENS0_8IdStringERKNS0_7SigSpecES5_S5_bRKNSt7__cxx1112basic_stringIcSt11char_traitsIcESaIcEEE
yosys:_ZN5Yosys5RTLIL6Module6deriveEPNS0_6DesignERKNS_7hashlib4dictINS0_8IdStringENS0_5ConstENS4_8hash_opsIS6_EEEERKNS5_IS6_PS1_S9_EERKNS5_IS6_S6_S9_EEb
yosys:_ZN5Yosys5RTLIL6Module6deriveEPNS0_6DesignERKNS_7hashlib4dictINS0_8IdStringENS0_5ConstENS4_8hash_opsIS6_EEEEb
yosys:_ZN5Yosys5RTLIL6Module6removeEPNS0_4CellE
yosys:_ZN5Yosys5RTLIL6Module6removeEPNS0_6MemoryE
yosys:_ZN5Yosys5RTLIL6Module6removeEPNS0_7ProcessE
yosys:_ZN5Yosys5RTLIL6Module6removeERKNS_7hashlib4poolIPNS0_4WireENS2_8hash_opsIS5_EEEE
yosys:_ZN5Yosys5RTLIL6Module6renameENS0_8IdStringES2_
yosys:_ZN5Yosys5RTLIL6Module6renameEPNS0_4CellENS0_8IdStringE
yosys:_ZN5Yosys5RTLIL6Module6renameEPNS0_4WireENS0_8IdStringE
yosys:_ZN5Yosys5RTLIL6Module7AndGateENS0_8IdStringERKNS0_6SigBitES5_RKNSt7__cxx1112basic_stringIcSt11char_traitsIcESaIcEEE
yosys:_ZN5Yosys5RTLIL6Module7BufGateENS0_8IdStringERKNS0_6SigBitERKNSt7__cxx1112basic_stringIcSt11char_traitsIcESaIcEEE
yosys:_ZN5Yosys5RTLIL6Module7LogicOrENS0_8IdStringERKNS0_7SigSpecES5_bRKNSt7__cxx1112basic_stringIcSt11char_traitsIcESaIcEEE
yosys:_ZN5Yosys5RTLIL6Module7MuxGateENS0_8IdStringERKNS0_6SigBitES5_S5_RKNSt7__cxx1112basic_stringIcSt11char_traitsIcESaIcEEE
yosys:_ZN5Yosys5RTLIL6Module7NorGateENS0_8IdStringERKNS0_6SigBitES5_RKNSt7__cxx1112basic_stringIcSt11char_traitsIcESaIcEEE
yosys:_ZN5Yosys5RTLIL6Module7NotGateENS0_8IdStringERKNS0_6SigBitERKNSt7__cxx1112basic_stringIcSt11char_traitsIcESaIcEEE
yosys:_ZN5Yosys5RTLIL6Module7XorGateENS0_8IdStringERKNS0_6SigBitES5_RKNSt7__cxx1112basic_stringIcSt11char_traitsIcESaIcEEE
yosys:_ZN5Yosys5RTLIL6Module7addAdffENS0_8IdStringERKNS0_7SigSpecES5_S5_S5_NS0_5ConstEbbRKNSt7__cxx1112basic_stringIcSt11char_traitsIcESaIcEEE
yosys:_ZN5Yosys5RTLIL6Module7addBmuxENS0_8IdStringERKNS0_7SigSpecES5_S5_RKNSt7__cxx1112basic_stringIcSt11char_traitsIcESaIcEEE
yosys:_ZN5Yosys5RTLIL6Module7addCellENS0_8IdStringEPKNS0_4CellE
yosys:_ZN5Yosys5RTLIL6Module7addCellENS0_8IdStringES2_
yosys:_ZN5Yosys5RTLIL6Module7addDffeENS0_8IdStringERKNS0_7SigSpecES5_S5_S5_bbRKNSt7__cxx1112basic_stringIcSt11char_traitsIcESaIcEEE
yosys:_ZN5Yosys5RTLIL6Module7addFairENS0_8IdStringERKNS0_7SigSpecES5_RKNSt7__cxx1112basic_stringIcSt11char_traitsIcESaIcEEE
yosys:_ZN5Yosys5RTLIL6Module7addLiveENS0_8IdStringERKNS0_7SigSpecES5_RKNSt7__cxx1112basic_stringIcSt11char_traitsIcESaIcEEE
yosys:_ZN5Yosys5RTLIL6Module7addPmuxENS0_8IdStringERKNS0_7SigSpecES5_S5_S5_RKNSt7__cxx1112basic_stringIcSt11char_traitsIcESaIcEEE
yosys:_ZN5Yosys5RTLIL6Module7addSdffENS0_8IdStringERKNS0_7SigSpecES5_S5_S5_NS0_5ConstEbbRKNSt7__cxx1112basic_stringIcSt11char_traitsIcESaIcEEE
yosys:_ZN5Yosys5RTLIL6Module7addSshlENS0_8IdStringERKNS0_7SigSpecES5_S5_bRKNSt7__cxx1112basic_stringIcSt11char_traitsIcESaIcEEE
yosys:_ZN5Yosys5RTLIL6Module7addSshrENS0_8IdStringERKNS0_7SigSpecES5_S5_bRKNSt7__cxx1112basic_stringIcSt11char_traitsIcESaIcEEE
yosys:_ZN5Yosys5RTLIL6Module7addWireENS0_8IdStringEPKNS0_4WireE
yosys:_ZN5Yosys5RTLIL6Module7addWireENS0_8IdStringEi
yosys:_ZN5Yosys5RTLIL6Module7addXnorENS0_8IdStringERKNS0_7SigSpecES5_S5_bRKNSt7__cxx1112basic_stringIcSt11char_traitsIcESaIcEEE
yosys:_ZN5Yosys5RTLIL6Module7connectERKNS0_7SigSpecES4_
yosys:_ZN5Yosys5RTLIL6Module7connectERKSt4pairINS0_7SigSpecES3_E
yosys:_ZN5Yosys5RTLIL6Module8AllconstENS0_8IdStringEiRKNSt7__cxx1112basic_stringIcSt11char_traitsIcESaIcEEE
yosys:_ZN5Yosys5RTLIL6Module8AnyconstENS0_8IdStringEiRKNSt7__cxx1112basic_stringIcSt11char_traitsIcESaIcEEE
yosys:_ZN5Yosys5RTLIL6Module8Aoi3GateENS0_8IdStringERKNS0_6SigBitES5_S5_RKNSt7__cxx1112basic_stringIcSt11char_traitsIcESaIcEEE
yosys:_ZN5Yosys5RTLIL6Module8Aoi4GateENS0_8IdStringERKNS0_6SigBitES5_S5_S5_RKNSt7__cxx1112basic_stringIcSt11char_traitsIcESaIcEEE
yosys:_ZN5Yosys5RTLIL6Module8DivFloorENS0_8IdStringERKNS0_7SigSpecES5_bRKNSt7__cxx1112basic_stringIcSt11char_traitsIcESaIcEEE
yosys:_ZN5Yosys5RTLIL6Module8FutureFFENS0_8IdStringERKNS0_7SigSpecERKNSt7__cxx1112basic_stringIcSt11char_traitsIcESaIcEEE
yosys:_ZN5Yosys5RTLIL6Module8LogicAndENS0_8IdStringERKNS0_7SigSpecES5_bRKNSt7__cxx1112basic_stringIcSt11char_traitsIcESaIcEEE
yosys:_ZN5Yosys5RTLIL6Module8LogicNotENS0_8IdStringERKNS0_7SigSpecEbRKNSt7__cxx1112basic_stringIcSt11char_traitsIcESaIcEEE
yosys:_ZN5Yosys5RTLIL6Module8ModFloorENS0_8IdStringERKNS0_7SigSpecES5_bRKNSt7__cxx1112basic_stringIcSt11char_traitsIcESaIcEEE
yosys:_ZN5Yosys5RTLIL6Module8NandGateENS0_8IdStringERKNS0_6SigBitES5_RKNSt7__cxx1112basic_stringIcSt11char_traitsIcESaIcEEE
yosys:_ZN5Yosys5RTLIL6Module8NmuxGateENS0_8IdStringERKNS0_6SigBitES5_S5_RKNSt7__cxx1112basic_stringIcSt11char_traitsIcESaIcEEE
yosys:_ZN5Yosys5RTLIL6Module8Oai3GateENS0_8IdStringERKNS0_6SigBitES5_S5_RKNSt7__cxx1112basic_stringIcSt11char_traitsIcESaIcEEE
yosys:_ZN5Yosys5RTLIL6Module8Oai4GateENS0_8IdStringERKNS0_6SigBitES5_S5_S5_RKNSt7__cxx1112basic_stringIcSt11char_traitsIcESaIcEEE
yosys:_ZN5Yosys5RTLIL6Module8ReduceOrENS0_8IdStringERKNS0_7SigSpecEbRKNSt7__cxx1112basic_stringIcSt11char_traitsIcESaIcEEE
yosys:_ZN5Yosys5RTLIL6Module8XnorGateENS0_8IdStringERKNS0_6SigBitES5_RKNSt7__cxx1112basic_stringIcSt11char_traitsIcESaIcEEE
yosys:_ZN5Yosys5RTLIL6Module8addAdffeENS0_8IdStringERKNS0_7SigSpecES5_S5_S5_S5_NS0_5ConstEbbbRKNSt7__cxx1112basic_stringIcSt11char_traitsIcESaIcEEE
yosys:_ZN5Yosys5RTLIL6Module8addAldffENS0_8IdStringERKNS0_7SigSpecES5_S5_S5_S5_bbRKNSt7__cxx1112basic_stringIcSt11char_traitsIcESaIcEEE
yosys:_ZN5Yosys5RTLIL6Module8addBweqxENS0_8IdStringERKNS0_7SigSpecES5_S5_RKNSt7__cxx1112basic_stringIcSt11char_traitsIcESaIcEEE
yosys:_ZN5Yosys5RTLIL6Module8addBwmuxENS0_8IdStringERKNS0_7SigSpecES5_S5_S5_RKNSt7__cxx1112basic_stringIcSt11char_traitsIcESaIcEEE
yosys:_ZN5Yosys5RTLIL6Module8addCoverENS0_8IdStringERKNS0_7SigSpecES5_RKNSt7__cxx1112basic_stringIcSt11char_traitsIcESaIcEEE
yosys:_ZN5Yosys5RTLIL6Module8addDemuxENS0_8IdStringERKNS0_7SigSpecES5_S5_RKNSt7__cxx1112basic_stringIcSt11char_traitsIcESaIcEEE
yosys:_ZN5Yosys5RTLIL6Module8addDffsrENS0_8IdStringERKNS0_7SigSpecES5_S5_S3_S5_bbbRKNSt7__cxx1112basic_stringIcSt11char_traitsIcESaIcEEE
yosys:_ZN5Yosys5RTLIL6Module8addEquivENS0_8IdStringERKNS0_7SigSpecES5_S5_RKNSt7__cxx1112basic_stringIcSt11char_traitsIcESaIcEEE
yosys:_ZN5Yosys5RTLIL6Module8addSdffeENS0_8IdStringERKNS0_7SigSpecES5_S5_S5_S5_NS0_5ConstEbbbRKNSt7__cxx1112basic_stringIcSt11char_traitsIcESaIcEEE
yosys:_ZN5Yosys5RTLIL6Module8addShiftENS0_8IdStringERKNS0_7SigSpecES5_S5_bRKNSt7__cxx1112basic_stringIcSt11char_traitsIcESaIcEEE
yosys:_ZN5Yosys5RTLIL6Module8addSliceENS0_8IdStringERKNS0_7SigSpecES5_NS0_5ConstERKNSt7__cxx1112basic_stringIcSt11char_traitsIcESaIcEEE
yosys:_ZN5Yosys5RTLIL6Module8count_idENS0_8IdStringE
yosys:_ZN5Yosys5RTLIL6Module8optimizeEv
yosys:_ZN5Yosys5RTLIL6Module8uniquifyENS0_8IdStringE
yosys:_ZN5Yosys5RTLIL6Module8uniquifyENS0_8IdStringERi
yosys:_ZN5Yosys5RTLIL6Module9InitstateENS0_8IdStringERKNSt7__cxx1112basic_stringIcSt11char_traitsIcESaIcEEE
yosys:_ZN5Yosys5RTLIL6Module9OrnotGateENS0_8IdStringERKNS0_6SigBitES5_RKNSt7__cxx1112basic_stringIcSt11char_traitsIcESaIcEEE
yosys:_ZN5Yosys5RTLIL6Module9ReduceAndENS0_8IdStringERKNS0_7SigSpecEbRKNSt7__cxx1112basic_stringIcSt11char_traitsIcESaIcEEE
yosys:_ZN5Yosys5RTLIL6Module9ReduceXorENS0_8IdStringERKNS0_7SigSpecEbRKNSt7__cxx1112basic_stringIcSt11char_traitsIcESaIcEEE
yosys:_ZN5Yosys5RTLIL6Module9addAldffeENS0_8IdStringERKNS0_7SigSpecES5_S5_S5_S5_S5_bbbRKNSt7__cxx1112basic_stringIcSt11char_traitsIcESaIcEEE
yosys:_ZN5Yosys5RTLIL6Module9addAssertENS0_8IdStringERKNS0_7SigSpecES5_RKNSt7__cxx1112basic_stringIcSt11char_traitsIcESaIcEEE
yosys:_ZN5Yosys5RTLIL6Module9addAssumeENS0_8IdStringERKNS0_7SigSpecES5_RKNSt7__cxx1112basic_stringIcSt11char_traitsIcESaIcEEE
yosys:_ZN5Yosys5RTLIL6Module9addConcatENS0_8IdStringERKNS0_7SigSpecES5_S5_RKNSt7__cxx1112basic_stringIcSt11char_traitsIcESaIcEEE
yosys:_ZN5Yosys5RTLIL6Module9addDffsreENS0_8IdStringERKNS0_7SigSpecES5_S5_S5_S3_S5_bbbbRKNSt7__cxx1112basic_stringIcSt11char_traitsIcESaIcEEE
yosys:_ZN5Yosys5RTLIL6Module9addDlatchENS0_8IdStringERKNS0_7SigSpecES5_S5_bRKNSt7__cxx1112basic_stringIcSt11char_traitsIcESaIcEEE
yosys:_ZN5Yosys5RTLIL6Module9addFfGateENS0_8IdStringERKNS0_7SigSpecES5_RKNSt7__cxx1112basic_stringIcSt11char_traitsIcESaIcEEE
yosys:_ZN5Yosys5RTLIL6Module9addMemoryENS0_8IdStringE
yosys:_ZN5Yosys5RTLIL6Module9addMemoryENS0_8IdStringEPKNS0_6MemoryE
yosys:_ZN5Yosys5RTLIL6Module9addOrGateENS0_8IdStringERKNS0_6SigBitES5_S5_RKNSt7__cxx1112basic_stringIcSt11char_traitsIcESaIcEEE
yosys:_ZN5Yosys5RTLIL6Module9addSdffceENS0_8IdStringERKNS0_7SigSpecES5_S5_S5_S5_NS0_5ConstEbbbRKNSt7__cxx1112basic_stringIcSt11char_traitsIcESaIcEEE
yosys:_ZN5Yosys5RTLIL6Module9addSetTagENS0_8IdStringERKNSt7__cxx1112basic_stringIcSt11char_traitsIcESaIcEEERKNS0_7SigSpecESD_SD_SD_SA_
yosys:_ZN5Yosys5RTLIL6Module9addShiftxENS0_8IdStringERKNS0_7SigSpecES5_S5_bRKNSt7__cxx1112basic_stringIcSt11char_traitsIcESaIcEEE
yosys:_ZN5Yosys5RTLIL6Module9addSrGateENS0_8IdStringERKNS0_7SigSpecES5_S5_bbRKNSt7__cxx1112basic_stringIcSt11char_traitsIcESaIcEEE
yosys:_ZN5Yosys5RTLIL6Module9addTribufENS0_8IdStringERKNS0_7SigSpecES5_S5_RKNSt7__cxx1112basic_stringIcSt11char_traitsIcESaIcEEE
yosys:_ZN5Yosys5RTLIL6ModuleC1Ev
yosys:_ZN5Yosys5RTLIL6ModuleC2Ev
yosys:_ZN5Yosys5RTLIL6ModuleD0Ev
yosys:_ZN5Yosys5RTLIL6ModuleD1Ev
yosys:_ZN5Yosys5RTLIL6ModuleD2Ev
yosys:_ZN5Yosys5RTLIL7BindingC2ENS0_8IdStringES2_
yosys:_ZN5Yosys5RTLIL7ProcessC1Ev
yosys:_ZN5Yosys5RTLIL7ProcessC2Ev
yosys:_ZN5Yosys5RTLIL7ProcessD1Ev
yosys:_ZN5Yosys5RTLIL7ProcessD2Ev
yosys:_ZN5Yosys5RTLIL7SigSpec10try_repackEv
yosys:_ZN5Yosys5RTLIL7SigSpec12remove_constEv
yosys:_ZN5Yosys5RTLIL7SigSpec13rewrite_wiresESt8functionIFvRPNS0_4WireEEE
yosys:_ZN5Yosys5RTLIL7SigSpec14sort_and_unifyEv
yosys:_ZN5Yosys5RTLIL7SigSpec4sortEv
yosys:_ZN5Yosys5RTLIL7SigSpec5parseERS1_PNS0_6ModuleENSt7__cxx1112basic_stringIcSt11char_traitsIcESaIcEEE
yosys:_ZN5Yosys5RTLIL7SigSpec6Chunks14const_iterator15next_chunk_bitsEv
yosys:_ZN5Yosys5RTLIL7SigSpec6appendERKNS0_6SigBitE
yosys:_ZN5Yosys5RTLIL7SigSpec6appendERKS1_
yosys:_ZN5Yosys5RTLIL7SigSpec6removeERKNS_7hashlib4poolINS0_6SigBitENS2_8hash_opsIS4_EEEE
yosys:_ZN5Yosys5RTLIL7SigSpec6removeERKS1_
yosys:_ZN5Yosys5RTLIL7SigSpec6removeEii
yosys:_ZN5Yosys5RTLIL7SigSpec6unpackEv
yosys:_ZN5Yosys5RTLIL7SigSpec7remove2ERKNS_7hashlib4poolINS0_6SigBitENS2_8hash_opsIS4_EEEEPS1_
yosys:_ZN5Yosys5RTLIL7SigSpec7remove2ERKNS_7hashlib4poolIPNS0_4WireENS2_8hash_opsIS5_EEEEPS1_
yosys:_ZN5Yosys5RTLIL7SigSpec7remove2ERKS1_PS1_
yosys:_ZN5Yosys5RTLIL7SigSpec7remove2ERKSt3setINS0_6SigBitESt4lessIS3_ESaIS3_EEPS1_
yosys:_ZN5Yosys5RTLIL7SigSpec7replaceERKNS_7hashlib4dictINS0_6SigBitES4_NS2_8hash_opsIS4_EEEE
yosys:_ZN5Yosys5RTLIL7SigSpec7replaceERKS1_S3_
yosys:_ZN5Yosys5RTLIL7SigSpec7replaceERKSt3mapINS0_6SigBitES3_St4lessIS3_ESaISt4pairIKS3_S3_EEE
yosys:_ZN5Yosys5RTLIL7SigSpec7replaceEiRKS1_
yosys:_ZN5Yosys5RTLIL7SigSpec9extend_u0Eib
yosys:_ZN5Yosys5RTLIL7SigSpec9parse_rhsERKS1_RS1_PNS0_6ModuleENSt7__cxx1112basic_stringIcSt11char_traitsIcESaIcEEE
yosys:_ZN5Yosys5RTLIL7SigSpec9parse_selERS1_PNS0_6DesignEPNS0_6ModuleENSt7__cxx1112basic_stringIcSt11char_traitsIcESaIcEEE
yosys:_ZN5Yosys5RTLIL7SigSpecC1ENS0_5StateEi
yosys:_ZN5Yosys5RTLIL7SigSpecC1EONS0_5ConstE
yosys:_ZN5Yosys5RTLIL7SigSpecC1EONS0_8SigChunkE
yosys:_ZN5Yosys5RTLIL7SigSpecC1EPNS0_4WireE
yosys:_ZN5Yosys5RTLIL7SigSpecC1EPNS0_4WireEii
yosys:_ZN5Yosys5RTLIL7SigSpecC1ERKNS0_5ConstE
yosys:_ZN5Yosys5RTLIL7SigSpecC1ERKNS0_6SigBitEi
yosys:_ZN5Yosys5RTLIL7SigSpecC1ERKNS0_8SigChunkE
yosys:_ZN5Yosys5RTLIL7SigSpecC1ERKNS_7hashlib4poolINS0_6SigBitENS2_8hash_opsIS4_EEEE
yosys:_ZN5Yosys5RTLIL7SigSpecC1ERKNSt7__cxx1112basic_stringIcSt11char_traitsIcESaIcEEE
yosys:_ZN5Yosys5RTLIL7SigSpecC1ERKSt3setINS0_6SigBitESt4lessIS3_ESaIS3_EE
yosys:_ZN5Yosys5RTLIL7SigSpecC1ERKSt6vectorINS0_6SigBitESaIS3_EE
yosys:_ZN5Yosys5RTLIL7SigSpecC1ERKSt6vectorINS0_8SigChunkESaIS3_EE
yosys:_ZN5Yosys5RTLIL7SigSpecC1ESt16initializer_listIS1_E
yosys:_ZN5Yosys5RTLIL7SigSpecC1Eb
yosys:_ZN5Yosys5RTLIL7SigSpecC1Eii
yosys:_ZN5Yosys5RTLIL7SigSpecC2ENS0_5StateEi
yosys:_ZN5Yosys5RTLIL7SigSpecC2EONS0_5ConstE
yosys:_ZN5Yosys5RTLIL7SigSpecC2EONS0_8SigChunkE
yosys:_ZN5Yosys5RTLIL7SigSpecC2EPNS0_4WireE
yosys:_ZN5Yosys5RTLIL7SigSpecC2EPNS0_4WireEii
yosys:_ZN5Yosys5RTLIL7SigSpecC2ERKNS0_5ConstE
yosys:_ZN5Yosys5RTLIL7SigSpecC2ERKNS0_6SigBitEi
yosys:_ZN5Yosys5RTLIL7SigSpecC2ERKNS0_8SigChunkE
yosys:_ZN5Yosys5RTLIL7SigSpecC2ERKNS_7hashlib4poolINS0_6SigBitENS2_8hash_opsIS4_EEEE
yosys:_ZN5Yosys5RTLIL7SigSpecC2ERKNSt7__cxx1112basic_stringIcSt11char_traitsIcESaIcEEE
yosys:_ZN5Yosys5RTLIL7SigSpecC2ERKSt3setINS0_6SigBitESt4lessIS3_ESaIS3_EE
yosys:_ZN5Yosys5RTLIL7SigSpecC2ERKSt6vectorINS0_6SigBitESaIS3_EE
yosys:_ZN5Yosys5RTLIL7SigSpecC2ERKSt6vectorINS0_8SigChunkESaIS3_EE
yosys:_ZN5Yosys5RTLIL7SigSpecC2ESt16initializer_listIS1_E
yosys:_ZN5Yosys5RTLIL7SigSpecC2Eb
yosys:_ZN5Yosys5RTLIL7SigSpecC2Eii
yosys:_ZN5Yosys5RTLIL8CaseRuleD1Ev
yosys:_ZN5Yosys5RTLIL8CaseRuleD2Ev
yosys:_ZN5Yosys5RTLIL8IdString11prepopulateEv
yosys:_ZN5Yosys5RTLIL8IdString13really_insertESt17basic_string_viewIcSt11char_traitsIcEERNSt8__detail14_Node_iteratorISt4pairIKS5_iELb0ELb1EEE
yosys:_ZN5Yosys5RTLIL8IdString14destruct_guardE
yosys:_ZN5Yosys5RTLIL8IdString16global_id_index_E
yosys:_ZN5Yosys5RTLIL8IdString17destruct_guard_okE
yosys:_ZN5Yosys5RTLIL8IdString18global_id_storage_E
yosys:_ZN5Yosys5RTLIL8IdString21global_free_idx_list_E
yosys:_ZN5Yosys5RTLIL8IdString24global_refcount_storage_E
yosys:_ZN5Yosys5RTLIL8IdString26global_autoidx_id_storage_E
yosys:_ZN5Yosys5RTLIL8SigChunkC1ERKNS0_6SigBitE
yosys:_ZN5Yosys5RTLIL8SigChunkC2ERKNS0_6SigBitE
yosys:_ZN5Yosys5RTLIL8const_eqERKNS0_5ConstES3_bbi
yosys:_ZN5Yosys5RTLIL8const_geERKNS0_5ConstES3_bbi
yosys:_ZN5Yosys5RTLIL8const_gtERKNS0_5ConstES3_bbi
yosys:_ZN5Yosys5RTLIL8const_leERKNS0_5ConstES3_bbi
yosys:_ZN5Yosys5RTLIL8const_ltERKNS0_5ConstES3_bbi
yosys:_ZN5Yosys5RTLIL8const_neERKNS0_5ConstES3_bbi
yosys:_ZN5Yosys5RTLIL8const_orERKNS0_5ConstES3_bbi
yosys:_ZN5Yosys5RTLIL8constpadB5cxx11E
yosys:_ZN5Yosys5RTLIL9Selection5clearEv
yosys:_ZN5Yosys5RTLIL9Selection8optimizeEPNS0_6DesignE
yosys:_ZN5Yosys5RTLIL9const_addERKNS0_5ConstES3_bbi
yosys:_ZN5Yosys5RTLIL9const_andERKNS0_5ConstES3_bbi
yosys:_ZN5Yosys5RTLIL9const_bufERKNS0_5ConstES3_bbi
yosys:_ZN5Yosys5RTLIL9const_divERKNS0_5ConstES3_bbi
yosys:_ZN5Yosys5RTLIL9const_eqxERKNS0_5ConstES3_bbi
yosys:_ZN5Yosys5RTLIL9const_modERKNS0_5ConstES3_bbi
yosys:_ZN5Yosys5RTLIL9const_mulERKNS0_5ConstES3_bbi
yosys:_ZN5Yosys5RTLIL9const_muxERKNS0_5ConstES3_S3_
yosys:_ZN5Yosys5RTLIL9const_negERKNS0_5ConstES3_bbi
yosys:_ZN5Yosys5RTLIL9const_nexERKNS0_5ConstES3_bbi
yosys:_ZN5Yosys5RTLIL9const_notERKNS0_5ConstES3_bbi
yosys:_ZN5Yosys5RTLIL9const_posERKNS0_5ConstES3_bbi
yosys:_ZN5Yosys5RTLIL9const_powERKNS0_5ConstES3_bbi
yosys:_ZN5Yosys5RTLIL9const_shlERKNS0_5ConstES3_bbi
yosys:_ZN5Yosys5RTLIL9const_shrERKNS0_5ConstES3_bbi
yosys:_ZN5Yosys5RTLIL9const_subERKNS0_5ConstES3_bbi
yosys:_ZN5Yosys5RTLIL9const_xorERKNS0_5ConstES3_bbi
yosys:_ZN5Yosys5shellEPNS_5RTLIL6DesignE
yosys:_ZN5Yosys6FfData10arst_to_srEv
yosys:_ZN5Yosys6FfData10unmap_srstEv
yosys:_ZN5Yosys6FfData11aload_to_srEv
yosys:_ZN5Yosys6FfData12add_dummy_ceEv
yosys:_ZN5Yosys6FfData12add_dummy_srEv
yosys:_ZN5Yosys6FfData13add_dummy_clkEv
yosys:_ZN5Yosys6FfData13arst_to_aloadEv
yosys:_ZN5Yosys6FfData13flip_rst_bitsERKNS_7hashlib4poolIiNS1_8hash_opsIiEEEE
yosys:_ZN5Yosys6FfData14add_dummy_arstEv
yosys:_ZN5Yosys6FfData14add_dummy_srstEv
yosys:_ZN5Yosys6FfData15add_dummy_aloadEv
yosys:_ZN5Yosys6FfData20convert_ce_over_srstEb
yosys:_ZN5Yosys6FfData4emitEv
yosys:_ZN5Yosys6FfData5sliceERKSt6vectorIiSaIiEE
yosys:_ZN5Yosys6FfData6removeEv
yosys:_ZN5Yosys6FfData8unmap_ceEv
yosys:_ZN5Yosys6FfData9flip_bitsERKNS_7hashlib4poolIiNS1_8hash_opsIiEEEE
yosys:_ZN5Yosys6FfDataC1EPNS_10FfInitValsEPNS_5RTLIL4CellE
yosys:_ZN5Yosys6FfDataC2EPNS_10FfInitValsEPNS_5RTLIL4CellE
yosys:_ZN5Yosys6SatGen10importCellEPNS_5RTLIL4CellEi
yosys:_ZN5Yosys6log_idERKNS_5RTLIL8IdStringE
yosys:_ZN5Yosys7AigNodeC1Ev
yosys:_ZN5Yosys7AigNodeC2Ev
yosys:_ZN5Yosys7Autoidx15ensure_at_leastEi
yosys:_ZN5Yosys7AutoidxppEi
yosys:_ZN5Yosys7Backend10extra_argsERPSoRNSt7__cxx1112basic_stringIcSt11char_traitsIcESaIcEEESt6vectorIS8_SaIS8_EEmb
yosys:_ZN5Yosys7Backend12backend_callEPNS_5RTLIL6DesignEPSoNSt7__cxx1112basic_stringIcSt11char_traitsIcESaIcEEESA_
yosys:_ZN5Yosys7Backend12backend_callEPNS_5RTLIL6DesignEPSoNSt7__cxx1112basic_stringIcSt11char_traitsIcESaIcEEESt6vectorISA_SaISA_EE
yosys:_ZN5Yosys7Backend12run_registerEv
yosys:_ZN5Yosys7Backend7executeESt6vectorINSt7__cxx1112basic_stringIcSt11char_traitsIcESaIcEEESaIS7_EEPNS_5RTLIL6DesignE
yosys:_ZN5Yosys7BackendC2ENSt7__cxx1112basic_stringIcSt11char_traitsIcESaIcEEES6_St15source_location
yosys:_ZN5Yosys7BackendD0Ev
yosys:_ZN5Yosys7BackendD1Ev
yosys:_ZN5Yosys7BackendD2Ev
yosys:_ZN5Yosys7FsmData12optimize_fsmEPNS_5RTLIL4CellEPNS1_6ModuleE
yosys:_ZN5Yosys7FstData10getEndTimeEv
yosys:_ZN5Yosys7FstData12getStartTimeEv
yosys:_ZN5Yosys7FstData15extractVarNamesEv
yosys:_ZN5Yosys7FstData16getMemoryHandlesENSt7__cxx1112basic_stringIcSt11char_traitsIcESaIcEEE
yosys:_ZN5Yosys7FstData21reconstructAllAtTimesERSt6vectorIjSaIjEEmmjSt8functionIFvmEE
yosys:_ZN5Yosys7FstData28reconstruct_callback_attimesEmjPKhj
yosys:_ZN5Yosys7FstData7valueOfB5cxx11Ej
yosys:_ZN5Yosys7FstData9getHandleENSt7__cxx1112basic_stringIcSt11char_traitsIcESaIcEEE
yosys:_ZN5Yosys7FstDataC1ENSt7__cxx1112basic_stringIcSt11char_traitsIcESaIcEEE
yosys:_ZN5Yosys7FstDataC2ENSt7__cxx1112basic_stringIcSt11char_traitsIcESaIcEEE
yosys:_ZN5Yosys7FstDataD1Ev
yosys:_ZN5Yosys7FstDataD2Ev
yosys:_ZN5Yosys7TclPassE
yosys:_ZN5Yosys7autoidxE
yosys:_ZN5Yosys7hashlib11HasherDJB325fudgeE
yosys:_ZN5Yosys7log_popEv
yosys:_ZN5Yosys7maccmapEPNS_5RTLIL6ModuleEPNS0_4CellEb
yosys:_ZN5Yosys7p_classEim
yosys:_ZN5Yosys8DriveBit5mergeERKS0_
yosys:_ZN5Yosys8DriveBitC1ERKNS_5RTLIL6SigBitE
yosys:_ZN5Yosys8DriveBitC2ERKNS_5RTLIL6SigBitE
yosys:_ZN5Yosys8EchoPassE
yosys:_ZN5Yosys8Frontend10extra_argsERPSiRNSt7__cxx1112basic_stringIcSt11char_traitsIcESaIcEEESt6vectorIS8_SaIS8_EEmb
yosys:_ZN5Yosys8Frontend12run_registerEv
yosys:_ZN5Yosys8Frontend13frontend_callEPNS_5RTLIL6DesignEPSiNSt7__cxx1112basic_stringIcSt11char_traitsIcESaIcEEESA_
yosys:_ZN5Yosys8Frontend13frontend_callEPNS_5RTLIL6DesignEPSiNSt7__cxx1112basic_stringIcSt11char_traitsIcESaIcEEESt6vectorISA_SaISA_EE
yosys:_ZN5Yosys8Frontend18last_here_documentB5cxx11E
yosys:_ZN5Yosys8Frontend19current_script_fileE
yosys:_ZN5Yosys8Frontend7executeESt6vectorINSt7__cxx1112basic_stringIcSt11char_traitsIcESaIcEEESaIS7_EEPNS_5RTLIL6DesignE
yosys:_ZN5Yosys8Frontend9next_argsB5cxx11E
yosys:_ZN5Yosys8FrontendC2ENSt7__cxx1112basic_stringIcSt11char_traitsIcESaIcEEES6_St15source_location
yosys:_ZN5Yosys8FrontendD0Ev
yosys:_ZN5Yosys8FrontendD1Ev
yosys:_ZN5Yosys8FrontendD2Ev
yosys:_ZN5Yosys8HelpPassE
yosys:_ZN5Yosys8fgetlineEP8_IO_FILERNSt7__cxx1112basic_stringIcSt11char_traitsIcESaIcEEE
yosys:_ZN5Yosys8log_cellEPNS_5RTLIL4CellENSt7__cxx1112basic_stringIcSt11char_traitsIcESaIcEEE
yosys:_ZN5Yosys8log_pushEv
yosys:_ZN5Yosys8log_timeE
yosys:_ZN5Yosys8log_wireEPNS_5RTLIL4WireENSt7__cxx1112basic_stringIcSt11char_traitsIcESaIcEEE
yosys:_ZN5Yosys8patmatchEPKcS1_
yosys:_ZN5Yosys8readsomeERSiPci
yosys:_ZN5Yosys8run_passENSt7__cxx1112basic_stringIcSt11char_traitsIcESaIcEEEPNS_5RTLIL6DesignE
yosys:_ZN5Yosys9CellCosts3getEPNS_5RTLIL4CellE
yosys:_ZN5Yosys9CellCosts3getEPNS_5RTLIL6ModuleE
yosys:_ZN5Yosys9DriveSpec13compute_widthEv
yosys:_ZN5Yosys9DriveSpec6appendERKNS_10DriveChunkE
yosys:_ZN5Yosys9DriveSpec6appendERKNS_8DriveBitE
yosys:_ZN5Yosys9DriverMap13DriveBitGraph2atENS0_10DriveBitIdEi
yosys:_ZN5Yosys9DriverMap13DriveBitGraph5clearENS0_10DriveBitIdE
yosys:_ZN5Yosys9DriverMap13DriveBitGraph5countENS0_10DriveBitIdE
yosys:_ZN5Yosys9DriverMap13DriveBitGraph8add_edgeENS0_10DriveBitIdES2_
yosys:_ZN5Yosys9DriverMap13DriveBitGraph8containsENS0_10DriveBitIdE
yosys:_ZN5Yosys9DriverMap13DriveBitGraph8pop_edgeENS0_10DriveBitIdE
yosys:_ZN5Yosys9DriverMap17drive_bit_from_idENS0_10DriveBitIdE
yosys:_ZN5Yosys9DriverMap17id_from_drive_bitERKNS_8DriveBitE
yosys:_ZN5Yosys9DriverMap17orient_undirectedENS0_10DriveBitIdE
yosys:_ZN5Yosys9DriverMap18connect_undirectedENS0_10DriveBitIdES1_
yosys:_ZN5Yosys9DriverMap22connect_directed_mergeENS0_10DriveBitIdES1_
yosys:_ZN5Yosys9DriverMap23connect_directed_bufferENS0_10DriveBitIdES1_
yosys:_ZN5Yosys9DriverMap3addEPNS_5RTLIL6ModuleE
yosys:_ZN5Yosys9DriverMap3addERKNS_5RTLIL7SigSpecES4_
yosys:_ZN5Yosys9DriverMap3addERKNS_8DriveBitES3_
yosys:_ZN5Yosys9DriverMap8add_portEPNS_5RTLIL4CellERKNS1_8IdStringERKNS1_7SigSpecE
yosys:_ZN5Yosys9DriverMap8bit_modeERKNS_8DriveBitE
yosys:_ZN5Yosys9DriverMapclENS_9DriveSpecE
yosys:_ZN5Yosys9DriverMapclERKNS_8DriveBitE
yosys:_ZN5Yosys9ShellPassE
yosys:_ZN5Yosys9echo_modeE
yosys:_ZN5Yosys9log_constB5cxx11ERKNS_5RTLIL5ConstEb
yosys:_ZN5Yosys9log_filesE
yosys:_ZN5Yosys9log_flushEv
yosys:_ZN5Yosys9log_hdumpB5cxx11E
yosys:_ZN5Yosys9print_qedEv
yosys:_ZN5Yosys9simplemapEPNS_5RTLIL6ModuleEPNS0_4CellE
yosys:_ZN5YosyslsERSoRKNS_5SExprE
yosys:_ZN5ezSAT10CONST_TRUEE
yosys:_ZN5ezSAT10add_clauseERKSt6vectorIiSaIiEE
yosys:_ZN5ezSAT10add_clauseERKSt6vectorIiSaIiEEbiii
yosys:_ZN5ezSAT10add_clauseEiii
yosys:_ZN5ezSAT10consumeCnfERSt6vectorIS0_IiSaIiEESaIS2_EE
yosys:_ZN5ezSAT10consumeCnfEv
yosys:_ZN5ezSAT10eliminatedEi
yosys:_ZN5ezSAT10expressionENS_4OpIdERKSt6vectorIiSaIiEE
yosys:_ZN5ezSAT10expressionENS_4OpIdEiiiiii
yosys:_ZN5ezSAT11CONST_FALSEE
yosys:_ZN5ezSAT11bind_cnf_orERKSt6vectorIiSaIiEE
yosys:_ZN5ezSAT12bind_cnf_andERKSt6vectorIiSaIiEE
yosys:_ZN5ezSAT12bind_cnf_notERKSt6vectorIiSaIiEE
yosys:_ZN5ezSAT12parse_stringERKNSt7__cxx1112basic_stringIcSt11char_traitsIcESaIcEEE
yosys:_ZN5ezSAT13vec_ge_signedERKSt6vectorIiSaIiEES4_
yosys:_ZN5ezSAT13vec_gt_signedERKSt6vectorIiSaIiEES4_
yosys:_ZN5ezSAT13vec_le_signedERKSt6vectorIiSaIiEES4_
yosys:_ZN5ezSAT13vec_lt_signedERKSt6vectorIiSaIiEES4_
yosys:_ZN5ezSAT13vec_reduce_orERKSt6vectorIiSaIiEE
yosys:_ZN5ezSAT14frozen_literalERKNSt7__cxx1112basic_stringIcSt11char_traitsIcESaIcEEE
yosys:_ZN5ezSAT14frozen_literalEv
yosys:_ZN5ezSAT14vec_reduce_andERKSt6vectorIiSaIiEE
yosys:_ZN5ezSAT14vec_set_signedERKSt6vectorIiSaIiEEl
yosys:_ZN5ezSAT14vec_shift_leftERKSt6vectorIiSaIiEES4_bii
yosys:_ZN5ezSAT15vec_ge_unsignedERKSt6vectorIiSaIiEES4_
yosys:_ZN5ezSAT15vec_gt_unsignedERKSt6vectorIiSaIiEES4_
yosys:_ZN5ezSAT15vec_le_unsignedERKSt6vectorIiSaIiEES4_
yosys:_ZN5ezSAT15vec_lt_unsignedERKSt6vectorIiSaIiEES4_
yosys:_ZN5ezSAT15vec_shift_rightERKSt6vectorIiSaIiEES4_bii
yosys:_ZN5ezSAT16vec_const_signedEli
yosys:_ZN5ezSAT16vec_set_unsignedERKSt6vectorIiSaIiEEm
yosys:_ZN5ezSAT17preSolverCallbackEv
yosys:_ZN5ezSAT17vec_append_signedERSt6vectorIiSaIiEERKS2_l
yosys:_ZN5ezSAT18vec_const_unsignedEmi
yosys:_ZN5ezSAT19vec_append_unsignedERSt6vectorIiSaIiEERKS2_m
yosys:_ZN5ezSAT3bitENS_2_VE
yosys:_ZN5ezSAT3vecERKSt6vectorIiSaIiEE
yosys:_ZN5ezSAT4bindEib
yosys:_ZN5ezSAT5clearEv
yosys:_ZN5ezSAT5valueEb
yosys:_ZN5ezSAT6assumeEi
yosys:_ZN5ezSAT6freezeEi
yosys:_ZN5ezSAT6onehotERKSt6vectorIiSaIiEEb
yosys:_ZN5ezSAT6solverERKSt6vectorIiSaIiEERS0_IbSaIbEES4_
yosys:_ZN5ezSAT6vec_eqERKSt6vectorIiSaIiEES4_
yosys:_ZN5ezSAT6vec_neERKSt6vectorIiSaIiEES4_
yosys:_ZN5ezSAT6vec_orERKSt6vectorIiSaIiEES4_
yosys:_ZN5ezSAT7addhashEj
yosys:_ZN5ezSAT7literalERKNSt7__cxx1112basic_stringIcSt11char_traitsIcESaIcEEE
yosys:_ZN5ezSAT7literalEv
yosys:_ZN5ezSAT7manyhotERKSt6vectorIiSaIiEEii
yosys:_ZN5ezSAT7orderedERKSt6vectorIiSaIiEES4_b
yosys:_ZN5ezSAT7vec_addERKSt6vectorIiSaIiEES4_
yosys:_ZN5ezSAT7vec_andERKSt6vectorIiSaIiEES4_
yosys:_ZN5ezSAT7vec_cmpERKSt6vectorIiSaIiEES4_RiS5_S5_S5_
yosys:_ZN5ezSAT7vec_iffERKSt6vectorIiSaIiEES4_
yosys:_ZN5ezSAT7vec_iteERKSt6vectorIiSaIiEES4_S4_
yosys:_ZN5ezSAT7vec_iteEiRKSt6vectorIiSaIiEES4_
yosys:_ZN5ezSAT7vec_negERKSt6vectorIiSaIiEE
yosys:_ZN5ezSAT7vec_notERKSt6vectorIiSaIiEE
yosys:_ZN5ezSAT7vec_setERKSt6vectorIiSaIiEES4_
yosys:_ZN5ezSAT7vec_shlERKSt6vectorIiSaIiEEib
yosys:_ZN5ezSAT7vec_srlERKSt6vectorIiSaIiEEi
yosys:_ZN5ezSAT7vec_subERKSt6vectorIiSaIiEES4_
yosys:_ZN5ezSAT7vec_varENSt7__cxx1112basic_stringIcSt11char_traitsIcESaIcEEEi
yosys:_ZN5ezSAT7vec_varEi
yosys:_ZN5ezSAT7vec_xorERKSt6vectorIiSaIiEES4_
yosys:_ZN5ezSAT8vec_castERKSt6vectorIiSaIiEEib
yosys:_ZN5ezSAT9vec_constERKSt6vectorIbSaIbEE
yosys:_ZN5ezSAT9vec_countERKSt6vectorIiSaIiEEib
yosys:_ZN5ezSAT9vec_shiftERKSt6vectorIiSaIiEEiii
yosys:_ZN5ezSATC1Ev
yosys:_ZN5ezSATC2Ev
yosys:_ZN5ezSATD0Ev
yosys:_ZN5ezSATD1Ev
yosys:_ZN5ezSATD2Ev
yosys:_ZN6json114Json11parse_multiERKNSt7__cxx1112basic_stringIcSt11char_traitsIcESaIcEEERmRS6_NS_9JsonParseE
yosys:_ZN6json114Json5parseERKNSt7__cxx1112basic_stringIcSt11char_traitsIcESaIcEEERS6_NS_9JsonParseE
yosys:_ZN6json114JsonC1EDn
yosys:_ZN6json114JsonC1EONSt7__cxx1112basic_stringIcSt11char_traitsIcESaIcEEE
yosys:_ZN6json114JsonC1EOSt3mapINSt7__cxx1112basic_stringIcSt11char_traitsIcESaIcEEES0_St4lessIS7_ESaISt4pairIKS7_S0_EEE
yosys:_ZN6json114JsonC1EOSt6vectorIS0_SaIS0_EE
yosys:_ZN6json114JsonC1EPKc
yosys:_ZN6json114JsonC1ERKNSt7__cxx1112basic_stringIcSt11char_traitsIcESaIcEEE
yosys:_ZN6json114JsonC1ERKSt3mapINSt7__cxx1112basic_stringIcSt11char_traitsIcESaIcEEES0_St4lessIS7_ESaISt4pairIKS7_S0_EEE
yosys:_ZN6json114JsonC1ERKSt6vectorIS0_SaIS0_EE
yosys:_ZN6json114JsonC1Eb
yosys:_ZN6json114JsonC1Ed
yosys:_ZN6json114JsonC1Ei
yosys:_ZN6json114JsonC1Ev
yosys:_ZN6json114JsonC2EDn
yosys:_ZN6json114JsonC2EONSt7__cxx1112basic_stringIcSt11char_traitsIcESaIcEEE
yosys:_ZN6json114JsonC2EOSt3mapINSt7__cxx1112basic_stringIcSt11char_traitsIcESaIcEEES0_St4lessIS7_ESaISt4pairIKS7_S0_EEE
yosys:_ZN6json114JsonC2EOSt6vectorIS0_SaIS0_EE
yosys:_ZN6json114JsonC2EPKc
yosys:_ZN6json114JsonC2ERKNSt7__cxx1112basic_stringIcSt11char_traitsIcESaIcEEE
yosys:_ZN6json114JsonC2ERKSt3mapINSt7__cxx1112basic_stringIcSt11char_traitsIcESaIcEEES0_St4lessIS7_ESaISt4pairIKS7_S0_EEE
yosys:_ZN6json114JsonC2ERKSt6vectorIS0_SaIS0_EE
yosys:_ZN6json114JsonC2Eb
yosys:_ZN6json114JsonC2Ed
yosys:_ZN6json114JsonC2Ei
yosys:_ZN6json114JsonC2Ev
yosys:_ZN7Minisat10SimpSolver10addClause_ERNS_3vecINS_3LitEiEE
yosys:_ZN7Minisat10SimpSolver10releaseVarENS_3LitE
yosys:_ZN7Minisat10SimpSolver10substituteEiNS_3LitE
yosys:_ZN7Minisat10SimpSolver11extendModelEv
yosys:_ZN7Minisat10SimpSolver12eliminateVarEi
yosys:_ZN7Minisat10SimpSolver12removeClauseEj
yosys:_ZN7Minisat10SimpSolver14garbageCollectEv
yosys:_ZN7Minisat10SimpSolver16strengthenClauseEjNS_3LitE
yosys:_ZN7Minisat10SimpSolver20gatherTouchedClausesEv
yosys:_ZN7Minisat10SimpSolver24backwardSubsumptionCheckEb
yosys:_ZN7Minisat10SimpSolver5asymmEij
yosys:_ZN7Minisat10SimpSolver5mergeERKNS_6ClauseES3_iRNS_3vecINS_3LitEiEE
yosys:_ZN7Minisat10SimpSolver5mergeERKNS_6ClauseES3_iRi
yosys:_ZN7Minisat10SimpSolver6newVarENS_5lboolEb
yosys:_ZN7Minisat10SimpSolver6solve_Ebb
yosys:_ZN7Minisat10SimpSolver7impliedERKNS_3vecINS_3LitEiEE
yosys:_ZN7Minisat10SimpSolver8asymmVarEi
yosys:_ZN7Minisat10SimpSolver8relocAllERNS_15ClauseAllocatorE
yosys:_ZN7Minisat10SimpSolver9eliminateEb
yosys:_ZN7Minisat10SimpSolverC1Ev
yosys:_ZN7Minisat10SimpSolverC2Ev
yosys:_ZN7Minisat10SimpSolverD0Ev
yosys:_ZN7Minisat10SimpSolverD1Ev
yosys:_ZN7Minisat10SimpSolverD2Ev
yosys:_ZN7Minisat11limitMemoryEm
yosys:_ZN7Minisat11memUsedPeakEb
yosys:_ZN7Minisat12parseOptionsERiPPcb
yosys:_ZN7Minisat12setUsageHelpEPKc
yosys:_ZN7Minisat16setHelpPrefixStrEPKc
yosys:_ZN7Minisat17printUsageAndExitEiPPcb
yosys:_ZN7Minisat6Solver10addClause_ERNS_3vecINS_3LitEiEE
yosys:_ZN7Minisat6Solver10releaseVarENS_3LitE
yosys:_ZN7Minisat6Solver11cancelUntilEi
yosys:_ZN7Minisat6Solver12analyzeFinalENS_3LitERNS_4LSetE
yosys:_ZN7Minisat6Solver12attachClauseEj
yosys:_ZN7Minisat6Solver12detachClauseEjb
yosys:_ZN7Minisat6Solver12litRedundantENS_3LitE
yosys:_ZN7Minisat6Solver12removeClauseEj
yosys:_ZN7Minisat6Solver13pickBranchLitEv
yosys:_ZN7Minisat6Solver14garbageCollectEv
yosys:_ZN7Minisat6Solver15removeSatisfiedERNS_3vecIjiEE
yosys:_ZN7Minisat6Solver16rebuildOrderHeapEv
yosys:_ZN7Minisat6Solver16uncheckedEnqueueENS_3LitEj
yosys:_ZN7Minisat6Solver6newVarENS_5lboolEb
yosys:_ZN7Minisat6Solver6searchEi
yosys:_ZN7Minisat6Solver6solve_Ev
yosys:_ZN7Minisat6Solver7analyzeEjRNS_3vecINS_3LitEiEERi
yosys:_ZN7Minisat6Solver7impliesERKNS_3vecINS_3LitEiEERS3_
yosys:_ZN7Minisat6Solver8reduceDBEv
yosys:_ZN7Minisat6Solver8relocAllERNS_15ClauseAllocatorE
yosys:_ZN7Minisat6Solver8simplifyEv
yosys:_ZN7Minisat6Solver8toDimacsEP8_IO_FILERKNS_3vecINS_3LitEiEE
yosys:_ZN7Minisat6Solver8toDimacsEP8_IO_FILERNS_6ClauseERNS_3vecIiiEERi
yosys:_ZN7Minisat6Solver8toDimacsEPKcRKNS_3vecINS_3LitEiEE
yosys:_ZN7Minisat6Solver9propagateEv
yosys:_ZN7Minisat6SolverC1Ev
yosys:_ZN7Minisat6SolverC2Ev
yosys:_ZN7Minisat6SolverD0Ev
yosys:_ZN7Minisat6SolverD1Ev
yosys:_ZN7Minisat6SolverD2Ev
yosys:_ZN7Minisat7memUsedEv
yosys:_ZN7Minisat7sigTermEPFviE
yosys:_ZN7Minisat9limitTimeEj
yosys:_ZN8pybind117hashlib10is_mappingENS_6objectE
yosys:_ZN8pybind117hashlib9is_subsetERKNS_8iterableES3_b
yosys:_ZN9ezMiniSAT10eliminatedEi
yosys:_ZN9ezMiniSAT12alarmHandlerEi
yosys:_ZN9ezMiniSAT16alarmHandlerThisE
yosys:_ZN9ezMiniSAT19alarmHandlerTimeoutE
yosys:_ZN9ezMiniSAT5clearEv
yosys:_ZN9ezMiniSAT6freezeEi
yosys:_ZN9ezMiniSAT6solverERKSt6vectorIiSaIiEERS0_IbSaIbEES4_
yosys:_ZN9ezMiniSATC1Ev
yosys:_ZN9ezMiniSATC2Ev
yosys:_ZN9ezMiniSATD0Ev
yosys:_ZN9ezMiniSATD1Ev
yosys:_ZN9ezMiniSATD2Ev
yosys:_ZNK10BigInteger13toUnsignedIntEv
yosys:_ZNK10BigInteger14toUnsignedLongEv
yosys:_ZNK10BigInteger15toUnsignedShortEv
yosys:_ZNK10BigInteger5toIntEv
yosys:_ZNK10BigInteger6toLongEv
yosys:_ZNK10BigInteger7toShortEv
yosys:_ZNK10BigInteger9compareToERKS_
yosys:_ZNK10SubCircuit5Graph6BitRefltERKS1_
yosys:_ZNK11BigUnsigned13toUnsignedIntEv
yosys:_ZNK11BigUnsigned14toUnsignedLongEv
yosys:_ZNK11BigUnsigned15toUnsignedShortEv
yosys:_ZNK11BigUnsigned5toIntEv
yosys:_ZNK11BigUnsigned6toLongEv
yosys:_ZNK11BigUnsigned7toShortEv
yosys:_ZNK11BigUnsigned9bitLengthEv
yosys:_ZNK11BigUnsigned9compareToERKS_
yosys:_ZNK14slang_frontend8Variable10get_symbolEv
yosys:_ZNK14slang_frontend8Variable10hash_labelEv
yosys:_ZNK14slang_frontend8Variable4textB5cxx11Ev
yosys:_ZNK14slang_frontend8Variable8bitwidthEv
yosys:_ZNK14slang_frontend8VariablecvbEv
yosys:_ZNK14slang_frontend8VariableltERKS0_
yosys:_ZNK18BigUnsignedInABasecv11BigUnsignedEv
yosys:_ZNK18BigUnsignedInABasecvNSt7__cxx1112basic_stringIcSt11char_traitsIcESaIcEEEEv
yosys:_ZNK19frontend_verilog_yy6parser11debug_levelEv
yosys:_ZNK19frontend_verilog_yy6parser12debug_streamEv
yosys:_ZNK19frontend_verilog_yy6parser13yy_lac_check_ENS0_11symbol_kind16symbol_kind_typeE
yosys:_ZNK19frontend_verilog_yy6parser15yy_stack_print_Ev
yosys:_ZNK19frontend_verilog_yy6parser15yysyntax_error_B5cxx11ERKNS0_7contextE
yosys:_ZNK19frontend_verilog_yy6parser16yy_reduce_print_Ei
yosys:_ZNK19frontend_verilog_yy6parser26yy_syntax_error_arguments_ERKNS0_7contextEPNS0_11symbol_kind16symbol_kind_typeEi
yosys:_ZNK19frontend_verilog_yy6parser7context15expected_tokensEPNS0_11symbol_kind16symbol_kind_typeEi
yosys:_ZNK19frontend_verilog_yy6parser8by_state4kindEv
yosys:_ZNK3fmt3v1212format_facetISt6localeE6do_putENS0_14basic_appenderIcEENS0_9loc_valueERKNS0_12format_specsE
yosys:_ZNK5Yosys10DriveChunk10can_appendERKNS_8DriveBitE
yosys:_ZNK5Yosys10Functional2IR10all_inputsEv
yosys:_ZNK5Yosys10Functional2IR10all_statesEv
yosys:_ZNK5Yosys10Functional2IR11all_outputsEv
yosys:_ZNK5Yosys10Functional2IR6inputsENS_5RTLIL8IdStringE
yosys:_ZNK5Yosys10Functional2IR6statesENS_5RTLIL8IdStringE
yosys:_ZNK5Yosys10Functional2IR7outputsENS_5RTLIL8IdStringE
yosys:_ZNK5Yosys10LibertyAst4dumpEP8_IO_FILERSt3setINSt7__cxx1112basic_stringIcSt11char_traitsIcESaIcEEESt4lessIS9_ESaIS9_EESE_S9_S9_b
yosys:_ZNK5Yosys10LibertyAst4findENSt7__cxx1112basic_stringIcSt11char_traitsIcESaIcEEE
yosys:_ZNK5Yosys10PrettyHelp8log_helpEv
yosys:_ZNK5Yosys11MemContents11count_rangeEjj
yosys:_ZNK5Yosys11MemContents15_range_containsESt17_Rb_tree_iteratorISt4pairIKjNS_5RTLIL5ConstEEEj
yosys:_ZNK5Yosys11MemContents15_range_containsESt17_Rb_tree_iteratorISt4pairIKjNS_5RTLIL5ConstEEEjj
yosys:_ZNK5Yosys11MemContents15_range_overlapsESt17_Rb_tree_iteratorISt4pairIKjNS_5RTLIL5ConstEEEjj
yosys:_ZNK5Yosys11MemContents9_range_atEj
yosys:_ZNK5Yosys11MemContentsixEj
yosys:_ZNK5Yosys11ReadWitness8get_bitsEiii
yosys:_ZNK5Yosys12define_map_t3logEv
yosys:_ZNK5Yosys12define_map_t4findERKNSt7__cxx1112basic_stringIcSt11char_traitsIcESaIcEEE
yosys:_ZNK5Yosys13LibertyParser5errorERKNSt7__cxx1112basic_stringIcSt11char_traitsIcESaIcEEE
yosys:_ZNK5Yosys13LibertyParser5errorEv
yosys:_ZNK5Yosys14ContentListing7to_jsonERKNSt10filesystem7__cxx114pathE
yosys:_ZNK5Yosys14DriveChunkPort10can_appendERKNS_12DriveBitPortE
yosys:_ZNK5Yosys14DriveChunkWire10can_appendERKNS_12DriveBitWireE
yosys:_ZNK5Yosys16DriveChunkMarker10can_appendERKNS_14DriveBitMarkerE
yosys:_ZNK5Yosys18DriveChunkMultiple10can_appendERKNS_16DriveBitMultipleE
yosys:_ZNK5Yosys18DriveChunkMultiple10can_appendERKS0_
yosys:_ZNK5Yosys18DriveChunkMultipleixEi
yosys:_ZNK5Yosys3AST7AstNode10loc_stringB5cxx11Ev
yosys:_ZNK5Yosys3AST7AstNode11asAttrConstEv
yosys:_ZNK5Yosys3AST7AstNode11asParaConstEv
yosys:_ZNK5Yosys3AST7AstNode11genBindingsEv
yosys:_ZNK5Yosys3AST7AstNode12bits_only_01Ev
yosys:_ZNK5Yosys3AST7AstNode17get_struct_memberEv
yosys:_ZNK5Yosys3AST7AstNode21formatted_input_errorENSt7__cxx1112basic_stringIcSt11char_traitsIcESaIcEEE
yosys:_ZNK5Yosys3AST7AstNode21is_recursive_functionEv
yosys:_ZNK5Yosys3AST7AstNode21try_pop_module_prefixB5cxx11Ev
yosys:_ZNK5Yosys3AST7AstNode5cloneEv
yosys:_ZNK5Yosys3AST7AstNode6asBoolEv
yosys:_ZNK5Yosys3AST7AstNode7dumpAstEP8_IO_FILENSt7__cxx1112basic_stringIcSt11char_traitsIcESaIcEEE
yosys:_ZNK5Yosys3AST7AstNode7isConstEv
yosys:_ZNK5Yosys3AST7AstNode8containsEPKS1_
yosys:_ZNK5Yosys3AST7AstNode8dumpVlogEP8_IO_FILENSt7__cxx1112basic_stringIcSt11char_traitsIcESaIcEEE
yosys:_ZNK5Yosys3AST7AstNode9cloneIntoERS1_
yosys:_ZNK5Yosys3AST7AstNodeeqERKS1_
yosys:_ZNK5Yosys3AST7AstNodeneERKS1_
yosys:_ZNK5Yosys3AST7Binding8describeB5cxx11Ev
yosys:_ZNK5Yosys3AST9AstModule10loadconfigEv
yosys:_ZNK5Yosys3AST9AstModule5cloneEv
yosys:_ZNK5Yosys3Aig9hash_intoENS_7hashlib11HasherDJB32E
yosys:_ZNK5Yosys3AigeqERKS0_
yosys:_ZNK5Yosys3Fmt10emit_rtlilEPNS_5RTLIL4CellE
yosys:_ZNK5Yosys3Fmt11emit_cxxrtlERSoNSt7__cxx1112basic_stringIcSt11char_traitsIcESaIcEEESt8functionIFvRKNS_5RTLIL7SigSpecEEERKS7_
yosys:_ZNK5Yosys3Fmt12emit_verilogEv
yosys:_ZNK5Yosys3Fmt6renderB5cxx11Ev
yosys:_ZNK5Yosys3Mem13get_init_dataEv
yosys:_ZNK5Yosys5RTLIL10AttrObject13has_attributeENS0_8IdStringE
yosys:_ZNK5Yosys5RTLIL10AttrObject18get_bool_attributeENS0_8IdStringE
yosys:_ZNK5Yosys5RTLIL10AttrObject20get_intvec_attributeENS0_8IdStringE
yosys:_ZNK5Yosys5RTLIL10AttrObject20get_string_attributeB5cxx11ENS0_8IdStringE
yosys:_ZNK5Yosys5RTLIL10AttrObject21get_hdlname_attributeB5cxx11Ev
yosys:_ZNK5Yosys5RTLIL10AttrObject21get_strpool_attributeB5cxx11ENS0_8IdStringE
yosys:_ZNK5Yosys5RTLIL10SwitchRule5cloneEv
yosys:_ZNK5Yosys5RTLIL10SwitchRule5emptyEv
yosys:_ZNK5Yosys5RTLIL4Cell11connectionsEv
yosys:_ZNK5Yosys5RTLIL4Cell11is_mem_cellEv
yosys:_ZNK5Yosys5RTLIL4Cell12to_rtlil_strB5cxx11Ev
yosys:_ZNK5Yosys5RTLIL4Cell13is_builtin_ffEv
yosys:_ZNK5Yosys5RTLIL4Cell5inputENS0_8IdStringE
yosys:_ZNK5Yosys5RTLIL4Cell5knownEv
yosys:_ZNK5Yosys5RTLIL4Cell6outputENS0_8IdStringE
yosys:_ZNK5Yosys5RTLIL4Cell7getPortENS0_8IdStringE
yosys:_ZNK5Yosys5RTLIL4Cell7hasPortENS0_8IdStringE
yosys:_ZNK5Yosys5RTLIL4Cell8getParamENS0_8IdStringE
yosys:_ZNK5Yosys5RTLIL4Cell8hasParamENS0_8IdStringE
yosys:_ZNK5Yosys5RTLIL4Cell8port_dirENS0_8IdStringE
yosys:_ZNK5Yosys5RTLIL4Cell9has_memidEv
yosys:_ZNK5Yosys5RTLIL4Wire12to_rtlil_strB5cxx11Ev
yosys:_ZNK5Yosys5RTLIL5Const10try_as_intEb
yosys:_ZNK5Yosys5RTLIL5Const12get_min_sizeEb
yosys:_ZNK5Yosys5RTLIL5Const12is_fully_defEv
yosys:_ZNK5Yosys5RTLIL5Const13decode_stringB5cxx11Ev
yosys:_ZNK5Yosys5RTLIL5Const13is_fully_onesEv
yosys:_ZNK5Yosys5RTLIL5Const13is_fully_zeroEv
yosys:_ZNK5Yosys5RTLIL5Const14const_iteratordeEv
yosys:_ZNK5Yosys5RTLIL5Const14is_fully_undefEv
yosys:_ZNK5Yosys5RTLIL5Const15as_int_compressEb
yosys:_ZNK5Yosys5RTLIL5Const17as_int_saturatingEb
yosys:_ZNK5Yosys5RTLIL5Const18convertible_to_intEb
yosys:_ZNK5Yosys5RTLIL5Const21is_fully_undef_x_onlyEv
yosys:_ZNK5Yosys5RTLIL5Const4sizeEv
yosys:_ZNK5Yosys5RTLIL5Const5emptyEv
yosys:_ZNK5Yosys5RTLIL5Const6as_intEb
yosys:_ZNK5Yosys5RTLIL5Const7as_boolEv
yosys:_ZNK5Yosys5RTLIL5Const7extractEiiNS0_5StateE
yosys:_ZNK5Yosys5RTLIL5Const7get_strB5cxx11Ev
yosys:_ZNK5Yosys5RTLIL5Const7to_bitsEv
yosys:_ZNK5Yosys5RTLIL5Const8get_bitsEv
yosys:_ZNK5Yosys5RTLIL5Const9as_stringB5cxx11EPKc
yosys:_ZNK5Yosys5RTLIL5Const9hash_intoENS_7hashlib11HasherDJB32E
yosys:_ZNK5Yosys5RTLIL5Const9is_onehotEPi
yosys:_ZNK5Yosys5RTLIL5ConsteqERKS1_
yosys:_ZNK5Yosys5RTLIL5ConstltERKS1_
yosys:_ZNK5Yosys5RTLIL5ConstneERKS1_
yosys:_ZNK5Yosys5RTLIL6Design10top_moduleEv
yosys:_ZNK5Yosys5RTLIL6Design12to_rtlil_strB5cxx11Eb
yosys:_ZNK5Yosys5RTLIL6Design15selected_memberENS0_8IdStringES2_
yosys:_ZNK5Yosys5RTLIL6Design15selected_moduleENS0_8IdStringE
yosys:_ZNK5Yosys5RTLIL6Design15selected_moduleEPNS0_6ModuleE
yosys:_ZNK5Yosys5RTLIL6Design16selected_modulesENS0_14SelectPartialsENS0_11SelectBoxesE
yosys:_ZNK5Yosys5RTLIL6Design18scratchpad_get_intERKNSt7__cxx1112basic_stringIcSt11char_traitsIcESaIcEEEi
yosys:_ZNK5Yosys5RTLIL6Design19scratchpad_get_boolERKNSt7__cxx1112basic_stringIcSt11char_traitsIcESaIcEEEb
yosys:_ZNK5Yosys5RTLIL6Design21scratchpad_get_stringERKNSt7__cxx1112basic_stringIcSt11char_traitsIcESaIcEEES9_
yosys:_ZNK5Yosys5RTLIL6Design21selected_whole_moduleENS0_8IdStringE
yosys:_ZNK5Yosys5RTLIL6Design21selected_whole_moduleEPNS0_6ModuleE
yosys:_ZNK5Yosys5RTLIL6Design6moduleENS0_8IdStringE
yosys:_ZNK5Yosys5RTLIL6Memory12to_rtlil_strB5cxx11Ev
yosys:_ZNK5Yosys5RTLIL6Module11connectionsEv
yosys:_ZNK5Yosys5RTLIL6Module11is_selectedEv
yosys:_ZNK5Yosys5RTLIL6Module12has_memoriesEv
yosys:_ZNK5Yosys5RTLIL6Module12to_rtlil_strB5cxx11Ev
yosys:_ZNK5Yosys5RTLIL6Module13has_processesEv
yosys:_ZNK5Yosys5RTLIL6Module14selected_cellsEv
yosys:_ZNK5Yosys5RTLIL6Module14selected_wiresEv
yosys:_ZNK5Yosys5RTLIL6Module16selected_membersEv
yosys:_ZNK5Yosys5RTLIL6Module17has_memories_warnEv
yosys:_ZNK5Yosys5RTLIL6Module17is_selected_wholeEv
yosys:_ZNK5Yosys5RTLIL6Module17selected_memoriesEv
yosys:_ZNK5Yosys5RTLIL6Module18has_processes_warnEv
yosys:_ZNK5Yosys5RTLIL6Module18selected_processesEv
yosys:_ZNK5Yosys5RTLIL6Module5cloneEv
yosys:_ZNK5Yosys5RTLIL6Module9cloneIntoEPS1_
yosys:_ZNK5Yosys5RTLIL7Process12to_rtlil_strB5cxx11Ev
yosys:_ZNK5Yosys5RTLIL7Process5cloneEv
yosys:_ZNK5Yosys5RTLIL7SigSpec10try_as_intEb
yosys:_ZNK5Yosys5RTLIL7SigSpec12is_fully_defEv
yosys:_ZNK5Yosys5RTLIL7SigSpec12known_driverEv
yosys:_ZNK5Yosys5RTLIL7SigSpec12try_as_constEv
yosys:_ZNK5Yosys5RTLIL7SigSpec13is_fully_onesEv
yosys:_ZNK5Yosys5RTLIL7SigSpec13is_fully_zeroEv
yosys:_ZNK5Yosys5RTLIL7SigSpec13to_sigbit_mapERKS1_
yosys:_ZNK5Yosys5RTLIL7SigSpec13to_sigbit_setEv
yosys:_ZNK5Yosys5RTLIL7SigSpec14is_fully_constEv
yosys:_ZNK5Yosys5RTLIL7SigSpec14is_fully_undefEv
yosys:_ZNK5Yosys5RTLIL7SigSpec14to_sigbit_dictERKS1_
yosys:_ZNK5Yosys5RTLIL7SigSpec14to_sigbit_poolEv
yosys:_ZNK5Yosys5RTLIL7SigSpec15has_marked_bitsEv
yosys:_ZNK5Yosys5RTLIL7SigSpec16to_sigbit_vectorEv
yosys:_ZNK5Yosys5RTLIL7SigSpec17as_int_saturatingEb
yosys:_ZNK5Yosys5RTLIL7SigSpec18convertible_to_intEb
yosys:_ZNK5Yosys5RTLIL7SigSpec5checkEPKNS0_6ModuleE
yosys:_ZNK5Yosys5RTLIL7SigSpec5matchEPKc
yosys:_ZNK5Yosys5RTLIL7SigSpec6as_bitEv
yosys:_ZNK5Yosys5RTLIL7SigSpec6as_intEb
yosys:_ZNK5Yosys5RTLIL7SigSpec6removeERKNS_7hashlib4poolINS0_6SigBitENS2_8hash_opsIS4_EEEEPS1_
yosys:_ZNK5Yosys5RTLIL7SigSpec6removeERKS1_PS1_
yosys:_ZNK5Yosys5RTLIL7SigSpec6repeatEi
yosys:_ZNK5Yosys5RTLIL7SigSpec7as_boolEv
yosys:_ZNK5Yosys5RTLIL7SigSpec7as_wireEv
yosys:_ZNK5Yosys5RTLIL7SigSpec7extractERKNS_7hashlib4poolINS0_6SigBitENS2_8hash_opsIS4_EEEEPKS1_
yosys:_ZNK5Yosys5RTLIL7SigSpec7extractERKS1_PS2_
yosys:_ZNK5Yosys5RTLIL7SigSpec7extractEii
yosys:_ZNK5Yosys5RTLIL7SigSpec7is_wireEv
yosys:_ZNK5Yosys5RTLIL7SigSpec7replaceERKNS_7hashlib4dictINS0_6SigBitES4_NS2_8hash_opsIS4_EEEEPS1_
yosys:_ZNK5Yosys5RTLIL7SigSpec7replaceERKS1_S3_PS1_
yosys:_ZNK5Yosys5RTLIL7SigSpec7replaceERKSt3mapINS0_6SigBitES3_St4lessIS3_ESaISt4pairIKS3_S3_EEEPS1_
yosys:_ZNK5Yosys5RTLIL7SigSpec7updhashEv
yosys:_ZNK5Yosys5RTLIL7SigSpec8as_chunkEv
yosys:_ZNK5Yosys5RTLIL7SigSpec8as_constEv
yosys:_ZNK5Yosys5RTLIL7SigSpec8is_chunkEv
yosys:_ZNK5Yosys5RTLIL7SigSpec9as_stringB5cxx11Ev
yosys:_ZNK5Yosys5RTLIL7SigSpec9has_constENS0_5StateE
yosys:_ZNK5Yosys5RTLIL7SigSpec9has_constEv
yosys:_ZNK5Yosys5RTLIL7SigSpec9is_onehotEPi
yosys:_ZNK5Yosys5RTLIL7SigSpeccvSt6vectorINS0_8SigChunkESaIS3_EEEv
yosys:_ZNK5Yosys5RTLIL7SigSpeceqERKS1_
yosys:_ZNK5Yosys5RTLIL7SigSpecltERKS1_
yosys:_ZNK5Yosys5RTLIL8CaseRule5cloneEv
yosys:_ZNK5Yosys5RTLIL8CaseRule5emptyEv
yosys:_ZNK5Yosys5RTLIL8SigChunk7extractEii
yosys:_ZNK5Yosys5RTLIL8SigChunkeqERKS1_
yosys:_ZNK5Yosys5RTLIL8SigChunkixEi
yosys:_ZNK5Yosys5RTLIL8SigChunkltERKS1_
yosys:_ZNK5Yosys5RTLIL8SigChunkneERKS1_
yosys:_ZNK5Yosys5RTLIL8SyncRule5cloneEv
yosys:_ZNK5Yosys5RTLIL9Selection12boxed_moduleENS0_8IdStringE
yosys:_ZNK5Yosys5RTLIL9Selection15selected_memberENS0_8IdStringES2_
yosys:_ZNK5Yosys5RTLIL9Selection15selected_moduleENS0_8IdStringE
yosys:_ZNK5Yosys5RTLIL9Selection21selected_whole_moduleENS0_8IdStringE
yosys:_ZNK5Yosys5SExpr9to_stringB5cxx11Ev
yosys:_ZNK5Yosys6IdPath11get_addressERi
yosys:_ZNK5Yosys6IdPath3strB5cxx11Ev
yosys:_ZNK5Yosys7AigNode9hash_intoENS_7hashlib11HasherDJB32E
yosys:_ZNK5Yosys7AigNodeeqERKS0_
yosys:_ZNK5Yosys9DriveSpec4packEv
yosys:_ZNK5Yosys9DriveSpec6unpackEv
yosys:_ZNK5ezSAT10getFullCnfERSt6vectorIS0_IiSaIiEESaIS2_EE
yosys:_ZNK5ezSAT10vec_appendERSt6vectorIiSaIiEERKS2_
yosys:_ZNK5ezSAT11printDIMACSEP8_IO_FILEbRKSt6vectorIS2_IiSaIiEESaIS4_EE
yosys:_ZNK5ezSAT14cnfLiteralInfoB5cxx11Ei
yosys:_ZNK5ezSAT14lookup_literalB5cxx11Ei
yosys:_ZNK5ezSAT14lookup_literalEiRNSt7__cxx1112basic_stringIcSt11char_traitsIcESaIcEEE
yosys:_ZNK5ezSAT17lookup_expressionEiRNS_4OpIdE
yosys:_ZNK5ezSAT17lookup_expressionEiRNS_4OpIdERSt6vectorIiSaIiEE
yosys:_ZNK5ezSAT18printInternalStateEP8_IO_FILE
yosys:_ZNK5ezSAT20vec_model_get_signedERKSt6vectorIiSaIiEERKS0_IbSaIbEES4_
yosys:_ZNK5ezSAT22vec_model_get_unsignedERKSt6vectorIiSaIiEERKS0_IbSaIbEES4_
yosys:_ZNK5ezSAT4evalEiRKSt6vectorIiSaIiEE
yosys:_ZNK5ezSAT5boundEi
yosys:_ZNK5ezSAT9to_stringB5cxx11Ei
yosys:_ZNK6json1110JsonObjectixERKNSt7__cxx1112basic_stringIcSt11char_traitsIcESaIcEEE
yosys:_ZNK6json114Json10bool_valueEv
yosys:_ZNK6json114Json11array_itemsEv
yosys:_ZNK6json114Json12number_valueEv
yosys:_ZNK6json114Json12object_itemsB5cxx11Ev
yosys:_ZNK6json114Json12string_valueB5cxx11Ev
yosys:_ZNK6json114Json4dumpERNSt7__cxx1112basic_stringIcSt11char_traitsIcESaIcEEE
yosys:_ZNK6json114Json4typeEv
yosys:_ZNK6json114Json9has_shapeERKSt16initializer_listISt4pairINSt7__cxx1112basic_stringIcSt11char_traitsIcESaIcEEENS0_4TypeEEERS8_
yosys:_ZNK6json114Json9int_valueEv
yosys:_ZNK6json114JsoneqERKS0_
yosys:_ZNK6json114JsonixERKNSt7__cxx1112basic_stringIcSt11char_traitsIcESaIcEEE
yosys:_ZNK6json114JsonixEm
yosys:_ZNK6json114JsonltERKS0_
yosys:_ZNK6json119JsonArrayixEm
yosys:_ZNK6json119JsonValue10bool_valueEv
yosys:_ZNK6json119JsonValue11array_itemsEv
yosys:_ZNK6json119JsonValue12number_valueEv
yosys:_ZNK6json119JsonValue12object_itemsB5cxx11Ev
yosys:_ZNK6json119JsonValue12string_valueB5cxx11Ev
yosys:_ZNK6json119JsonValue9int_valueEv
yosys:_ZNK6json119JsonValueixERKNSt7__cxx1112basic_stringIcSt11char_traitsIcESaIcEEE
yosys:_ZNK6json119JsonValueixEm
yosys:_ZNK7Minisat6Solver10printStatsEv
yosys:_ZNK7Minisat6Solver16progressEstimateEv
yosys:_ZNK7Minisat6Solver9satisfiedERKNS_6ClauseE
yosys:_ZTI12ezCmdlineSAT
yosys:_ZTI28frontend_verilog_yyFlexLexer
yosys:_ZTI5ezSAT
yosys:_ZTI9ezMiniSAT
yosys:_ZTIN10SubCircuit6SolverE
yosys:_ZTIN19frontend_verilog_yy6parser12syntax_errorE
yosys:_ZTIN19frontend_verilog_yy6parserE
yosys:_ZTIN5Yosys12gzip_istream4ibufE
yosys:_ZTIN5Yosys12gzip_ostream4obufE
yosys:_ZTIN5Yosys3AST7BindingE
yosys:_ZTIN5Yosys3AST9AstModuleE
yosys:_ZTIN5Yosys4PassE
yosys:_ZTIN5Yosys5RTLIL6ModuleE
yosys:_ZTIN5Yosys7BackendE
yosys:_ZTIN5Yosys8FrontendE
yosys:_ZTIN6json1110JsonObjectE
yosys:_ZTIN6json119JsonArrayE
yosys:_ZTIN6json119JsonValueE
yosys:_ZTIN7Minisat10SimpSolverE
yosys:_ZTIN7Minisat6SolverE
yosys:_ZTS12ezCmdlineSAT
yosys:_ZTS28frontend_verilog_yyFlexLexer
yosys:_ZTS5ezSAT
yosys:_ZTS9ezMiniSAT
yosys:_ZTSN10SubCircuit6SolverE
yosys:_ZTSN19frontend_verilog_yy6parser12syntax_errorE
yosys:_ZTSN19frontend_verilog_yy6parserE
yosys:_ZTSN5Yosys12gzip_istream4ibufE
yosys:_ZTSN5Yosys12gzip_ostream4obufE
yosys:_ZTSN5Yosys3AST7BindingE
yosys:_ZTSN5Yosys3AST9AstModuleE
yosys:_ZTSN5Yosys4PassE
yosys:_ZTSN5Yosys5RTLIL6ModuleE
yosys:_ZTSN5Yosys7BackendE
yosys:_ZTSN5Yosys8FrontendE
yosys:_ZTSN6json1110JsonObjectE
yosys:_ZTSN6json119JsonArrayE
yosys:_ZTSN6json119JsonValueE
yosys:_ZTSN7Minisat10SimpSolverE
yosys:_ZTSN7Minisat6SolverE
yosys:_ZTV12ezCmdlineSAT
yosys:_ZTV28frontend_verilog_yyFlexLexer
yosys:_ZTV5ezSAT
yosys:_ZTV9ezMiniSAT
yosys:_ZTVN10SubCircuit6SolverE
yosys:_ZTVN19frontend_verilog_yy6parser12syntax_errorE
yosys:_ZTVN19frontend_verilog_yy6parserE
yosys:_ZTVN5Yosys12gzip_istream4ibufE
yosys:_ZTVN5Yosys12gzip_ostream4obufE
yosys:_ZTVN5Yosys3AST7BindingE
yosys:_ZTVN5Yosys3AST9AstModuleE
yosys:_ZTVN5Yosys4PassE
yosys:_ZTVN5Yosys5RTLIL6ModuleE
yosys:_ZTVN5Yosys7BackendE
yosys:_ZTVN5Yosys8FrontendE
yosys:_ZTVN6json1110JsonObjectE
yosys:_ZTVN6json119JsonArrayE
yosys:_ZTVN6json119JsonValueE
yosys:_ZTVN7Minisat10SimpSolverE
yosys:_ZTVN7Minisat6SolverE
yosys:_ZlsRSoRK10BigInteger
yosys:_ZlsRSoRK11BigUnsigned
yosys:__data_start
yosys:_start
yosys:current_help
yosys:fastlz_compress
yosys:fastlz_compress_level
yosys:fastlz_decompress
yosys:fstReaderClose
yosys:fstReaderClrFacProcessMask
yosys:fstReaderClrFacProcessMaskAll
yosys:fstReaderGetAliasCount
yosys:fstReaderGetCurrentFlatScope
yosys:fstReaderGetCurrentScopeLen
yosys:fstReaderGetCurrentScopeUserInfo
yosys:fstReaderGetDateString
yosys:fstReaderGetDoubleEndianMatchState
yosys:fstReaderGetDumpActivityChangeTime
yosys:fstReaderGetDumpActivityChangeValue
yosys:fstReaderGetEndTime
yosys:fstReaderGetFacProcessMask
yosys:fstReaderGetFileType
yosys:fstReaderGetFseekFailed
yosys:fstReaderGetMaxHandle
yosys:fstReaderGetMemoryUsedByWriter
yosys:fstReaderGetNumberDumpActivityChanges
yosys:fstReaderGetScopeCount
yosys:fstReaderGetStartTime
yosys:fstReaderGetTimescale
yosys:fstReaderGetTimezero
yosys:fstReaderGetValueChangeSectionCount
yosys:fstReaderGetValueFromHandleAtTime
yosys:fstReaderGetVarCount
yosys:fstReaderGetVersionString
yosys:fstReaderIterBlocks
yosys:fstReaderIterBlocks2
yosys:fstReaderIterBlocksSetNativeDoublesOnCallback
yosys:fstReaderIterateHier
yosys:fstReaderIterateHierRewind
yosys:fstReaderOpen
yosys:fstReaderOpenForUtilitiesOnly
yosys:fstReaderPopScope
yosys:fstReaderProcessHier
yosys:fstReaderPushScope
yosys:fstReaderResetScope
yosys:fstReaderSetFacProcessMask
yosys:fstReaderSetFacProcessMaskAll
yosys:fstReaderSetLimitTimeRange
yosys:fstReaderSetUnlimitedTimeRange
yosys:fstReaderSetVcdExtensions
yosys:fstUtilityBinToEsc
yosys:fstUtilityBinToEscConvertedLen
yosys:fstUtilityEscToBin
yosys:fstUtilityExtractEnumTableFromString
yosys:fstUtilityFreeEnumTable
yosys:fstWriterClose
yosys:fstWriterCreate
yosys:fstWriterCreateEnumTable
yosys:fstWriterCreateVar
yosys:fstWriterCreateVar2
yosys:fstWriterEmitDumpActive
yosys:fstWriterEmitEnumTableRef
yosys:fstWriterEmitTimeChange
yosys:fstWriterEmitValueChange
yosys:fstWriterEmitValueChange32
yosys:fstWriterEmitValueChange64
yosys:fstWriterEmitValueChangeVec32
yosys:fstWriterEmitValueChangeVec64
yosys:fstWriterEmitVariableLengthValueChange
yosys:fstWriterFlushContext
yosys:fstWriterGetDumpSizeLimitReached
yosys:fstWriterGetFlushContextPending
yosys:fstWriterGetFseekFailed
yosys:fstWriterSetAttrBegin
yosys:fstWriterSetAttrEnd
yosys:fstWriterSetComment
yosys:fstWriterSetDate
yosys:fstWriterSetDumpSizeLimit
yosys:fstWriterSetEnvVar
yosys:fstWriterSetFileType
yosys:fstWriterSetPackType
yosys:fstWriterSetParallelMode
yosys:fstWriterSetRepackOnClose
yosys:fstWriterSetScope
yosys:fstWriterSetSourceInstantiationStem
yosys:fstWriterSetSourceStem
yosys:fstWriterSetTimescale
yosys:fstWriterSetTimescaleFromString
yosys:fstWriterSetTimezero
yosys:fstWriterSetUpscope
yosys:fstWriterSetValueList
yosys:fstWriterSetVersion
yosys:main
yosys:yosys_history_offset
