libGraphicsMagick++.so.12:MagickPlusPlusDestroyMagick
libGraphicsMagick++.so.12:_ZN6Magick10ErrorCacheC1ERKNSt7__cxx1112basic_stringIcSt11char_traitsIcESaIcEEE
libGraphicsMagick++.so.12:_ZN6Magick10ErrorCacheC2ERKNSt7__cxx1112basic_stringIcSt11char_traitsIcESaIcEEE
libGraphicsMagick++.so.12:_ZN6Magick10ErrorCacheD0Ev
libGraphicsMagick++.so.12:_ZN6Magick10ErrorCacheD1Ev
libGraphicsMagick++.so.12:_ZN6Magick10ErrorCacheD2Ev
libGraphicsMagick++.so.12:_ZN6Magick10ErrorCoderC1ERKNSt7__cxx1112basic_stringIcSt11char_traitsIcESaIcEEE
libGraphicsMagick++.so.12:_ZN6Magick10ErrorCoderC2ERKNSt7__cxx1112basic_stringIcSt11char_traitsIcESaIcEEE
libGraphicsMagick++.so.12:_ZN6Magick10ErrorCoderD0Ev
libGraphicsMagick++.so.12:_ZN6Magick10ErrorCoderD1Ev
libGraphicsMagick++.so.12:_ZN6Magick10ErrorCoderD2Ev
libGraphicsMagick++.so.12:_ZN6Magick10ErrorImageC1ERKNSt7__cxx1112basic_stringIcSt11char_traitsIcESaIcEEE
libGraphicsMagick++.so.12:_ZN6Magick10ErrorImageC2ERKNSt7__cxx1112basic_stringIcSt11char_traitsIcESaIcEEE
libGraphicsMagick++.so.12:_ZN6Magick10ErrorImageD0Ev
libGraphicsMagick++.so.12:_ZN6Magick10ErrorImageD1Ev
libGraphicsMagick++.so.12:_ZN6Magick10ErrorImageD2Ev
libGraphicsMagick++.so.12:_ZN6Magick10PathArcAbsC1ERKNS_11PathArcArgsE
libGraphicsMagick++.so.12:_ZN6Magick10PathArcAbsC1ERKNSt7__cxx114listINS_11PathArcArgsESaIS3_EEE
libGraphicsMagick++.so.12:_ZN6Magick10PathArcAbsC1ERKS0_
libGraphicsMagick++.so.12:_ZN6Magick10PathArcAbsC2ERKNS_11PathArcArgsE
libGraphicsMagick++.so.12:_ZN6Magick10PathArcAbsC2ERKNSt7__cxx114listINS_11PathArcArgsESaIS3_EEE
libGraphicsMagick++.so.12:_ZN6Magick10PathArcAbsC2ERKS0_
libGraphicsMagick++.so.12:_ZN6Magick10PathArcAbsD0Ev
libGraphicsMagick++.so.12:_ZN6Magick10PathArcAbsD1Ev
libGraphicsMagick++.so.12:_ZN6Magick10PathArcAbsD2Ev
libGraphicsMagick++.so.12:_ZN6Magick10PathArcRelC1ERKNS_11PathArcArgsE
libGraphicsMagick++.so.12:_ZN6Magick10PathArcRelC1ERKNSt7__cxx114listINS_11PathArcArgsESaIS3_EEE
libGraphicsMagick++.so.12:_ZN6Magick10PathArcRelC1ERKS0_
libGraphicsMagick++.so.12:_ZN6Magick10PathArcRelC2ERKNS_11PathArcArgsE
libGraphicsMagick++.so.12:_ZN6Magick10PathArcRelC2ERKNSt7__cxx114listINS_11PathArcArgsESaIS3_EEE
libGraphicsMagick++.so.12:_ZN6Magick10PathArcRelC2ERKS0_
libGraphicsMagick++.so.12:_ZN6Magick10PathArcRelD0Ev
libGraphicsMagick++.so.12:_ZN6Magick10PathArcRelD1Ev
libGraphicsMagick++.so.12:_ZN6Magick10PathArcRelD2Ev
libGraphicsMagick++.so.12:_ZN6Magick10TypeMetricC1Ev
libGraphicsMagick++.so.12:_ZN6Magick10TypeMetricC2Ev
libGraphicsMagick++.so.12:_ZN6Magick10TypeMetricD1Ev
libGraphicsMagick++.so.12:_ZN6Magick10TypeMetricD2Ev
libGraphicsMagick++.so.12:_ZN6Magick10depthImageC1Ej
libGraphicsMagick++.so.12:_ZN6Magick10depthImageC2Ej
libGraphicsMagick++.so.12:_ZN6Magick10frameImageC1ERKNS_8GeometryE
libGraphicsMagick++.so.12:_ZN6Magick10frameImageC1Ejjii
libGraphicsMagick++.so.12:_ZN6Magick10frameImageC2ERKNS_8GeometryE
libGraphicsMagick++.so.12:_ZN6Magick10frameImageC2Ejjii
libGraphicsMagick++.so.12:_ZN6Magick10gammaImageC1Ed
libGraphicsMagick++.so.12:_ZN6Magick10gammaImageC1Eddd
libGraphicsMagick++.so.12:_ZN6Magick10gammaImageC2Ed
libGraphicsMagick++.so.12:_ZN6Magick10gammaImageC2Eddd
libGraphicsMagick++.so.12:_ZN6Magick10labelImageC1ERKNSt7__cxx1112basic_stringIcSt11char_traitsIcESaIcEEE
libGraphicsMagick++.so.12:_ZN6Magick10labelImageC2ERKNSt7__cxx1112basic_stringIcSt11char_traitsIcESaIcEEE
libGraphicsMagick++.so.12:_ZN6Magick10levelImageC1Eddd
libGraphicsMagick++.so.12:_ZN6Magick10levelImageC2Eddd
libGraphicsMagick++.so.12:_ZN6Magick10matteImageC1Eb
libGraphicsMagick++.so.12:_ZN6Magick10matteImageC2Eb
libGraphicsMagick++.so.12:_ZN6Magick10raiseImageC1ERKNS_8GeometryEb
libGraphicsMagick++.so.12:_ZN6Magick10raiseImageC2ERKNS_8GeometryEb
libGraphicsMagick++.so.12:_ZN6Magick10scaleImageC1ERKNS_8GeometryE
libGraphicsMagick++.so.12:_ZN6Magick10scaleImageC2ERKNS_8GeometryE
libGraphicsMagick++.so.12:_ZN6Magick10sceneImageC1Ej
libGraphicsMagick++.so.12:_ZN6Magick10sceneImageC2Ej
libGraphicsMagick++.so.12:_ZN6Magick10shadeImageC1Eddb
libGraphicsMagick++.so.12:_ZN6Magick10shadeImageC2Eddb
libGraphicsMagick++.so.12:_ZN6Magick10shaveImageC1ERKNS_8GeometryE
libGraphicsMagick++.so.12:_ZN6Magick10shaveImageC2ERKNS_8GeometryE
libGraphicsMagick++.so.12:_ZN6Magick10shearImageC1Edd
libGraphicsMagick++.so.12:_ZN6Magick10shearImageC2Edd
libGraphicsMagick++.so.12:_ZN6Magick10stripImageC1Ev
libGraphicsMagick++.so.12:_ZN6Magick10stripImageC2Ev
libGraphicsMagick++.so.12:_ZN6Magick10swirlImageC1Ed
libGraphicsMagick++.so.12:_ZN6Magick10swirlImageC2Ed
libGraphicsMagick++.so.12:_ZN6Magick11CloneStringEPPcRKNSt7__cxx1112basic_stringIcSt11char_traitsIcESaIcEEE
libGraphicsMagick++.so.12:_ZN6Magick11DrawableArcD0Ev
libGraphicsMagick++.so.12:_ZN6Magick11DrawableArcD1Ev
libGraphicsMagick++.so.12:_ZN6Magick11DrawableArcD2Ev
libGraphicsMagick++.so.12:_ZN6Magick11ErrorModuleC1ERKNSt7__cxx1112basic_stringIcSt11char_traitsIcESaIcEEE
libGraphicsMagick++.so.12:_ZN6Magick11ErrorModuleC2ERKNSt7__cxx1112basic_stringIcSt11char_traitsIcESaIcEEE
libGraphicsMagick++.so.12:_ZN6Magick11ErrorModuleD0Ev
libGraphicsMagick++.so.12:_ZN6Magick11ErrorModuleD1Ev
libGraphicsMagick++.so.12:_ZN6Magick11ErrorModuleD2Ev
libGraphicsMagick++.so.12:_ZN6Magick11ErrorOptionC1ERKNSt7__cxx1112basic_stringIcSt11char_traitsIcESaIcEEE
libGraphicsMagick++.so.12:_ZN6Magick11ErrorOptionC2ERKNSt7__cxx1112basic_stringIcSt11char_traitsIcESaIcEEE
libGraphicsMagick++.so.12:_ZN6Magick11ErrorOptionD0Ev
libGraphicsMagick++.so.12:_ZN6Magick11ErrorOptionD1Ev
libGraphicsMagick++.so.12:_ZN6Magick11ErrorOptionD2Ev
libGraphicsMagick++.so.12:_ZN6Magick11ErrorStreamC1ERKNSt7__cxx1112basic_stringIcSt11char_traitsIcESaIcEEE
libGraphicsMagick++.so.12:_ZN6Magick11ErrorStreamC2ERKNSt7__cxx1112basic_stringIcSt11char_traitsIcESaIcEEE
libGraphicsMagick++.so.12:_ZN6Magick11ErrorStreamD0Ev
libGraphicsMagick++.so.12:_ZN6Magick11ErrorStreamD1Ev
libGraphicsMagick++.so.12:_ZN6Magick11ErrorStreamD2Ev
libGraphicsMagick++.so.12:_ZN6Magick11PathArcArgsC1ERKS0_
libGraphicsMagick++.so.12:_ZN6Magick11PathArcArgsC1Edddbbdd
libGraphicsMagick++.so.12:_ZN6Magick11PathArcArgsC1Ev
libGraphicsMagick++.so.12:_ZN6Magick11PathArcArgsC2ERKS0_
libGraphicsMagick++.so.12:_ZN6Magick11PathArcArgsC2Edddbbdd
libGraphicsMagick++.so.12:_ZN6Magick11PathArcArgsC2Ev
libGraphicsMagick++.so.12:_ZN6Magick11PathArcArgsD1Ev
libGraphicsMagick++.so.12:_ZN6Magick11PathArcArgsD2Ev
libGraphicsMagick++.so.12:_ZN6Magick11WarningBlobC1ERKNSt7__cxx1112basic_stringIcSt11char_traitsIcESaIcEEE
libGraphicsMagick++.so.12:_ZN6Magick11WarningBlobC2ERKNSt7__cxx1112basic_stringIcSt11char_traitsIcESaIcEEE
libGraphicsMagick++.so.12:_ZN6Magick11WarningBlobD0Ev
libGraphicsMagick++.so.12:_ZN6Magick11WarningBlobD1Ev
libGraphicsMagick++.so.12:_ZN6Magick11WarningBlobD2Ev
libGraphicsMagick++.so.12:_ZN6Magick11WarningDrawC1ERKNSt7__cxx1112basic_stringIcSt11char_traitsIcESaIcEEE
libGraphicsMagick++.so.12:_ZN6Magick11WarningDrawC2ERKNSt7__cxx1112basic_stringIcSt11char_traitsIcESaIcEEE
libGraphicsMagick++.so.12:_ZN6Magick11WarningDrawD0Ev
libGraphicsMagick++.so.12:_ZN6Magick11WarningDrawD1Ev
libGraphicsMagick++.so.12:_ZN6Magick11WarningDrawD2Ev
libGraphicsMagick++.so.12:_ZN6Magick11WarningTypeC1ERKNSt7__cxx1112basic_stringIcSt11char_traitsIcESaIcEEE
libGraphicsMagick++.so.12:_ZN6Magick11WarningTypeC2ERKNSt7__cxx1112basic_stringIcSt11char_traitsIcESaIcEEE
libGraphicsMagick++.so.12:_ZN6Magick11WarningTypeD0Ev
libGraphicsMagick++.so.12:_ZN6Magick11WarningTypeD1Ev
libGraphicsMagick++.so.12:_ZN6Magick11WarningTypeD2Ev
libGraphicsMagick++.so.12:_ZN6Magick11adjoinImageC1Eb
libGraphicsMagick++.so.12:_ZN6Magick11adjoinImageC2Eb
libGraphicsMagick++.so.12:_ZN6Magick11borderImageC1ERKNS_8GeometryE
libGraphicsMagick++.so.12:_ZN6Magick11borderImageC2ERKNS_8GeometryE
libGraphicsMagick++.so.12:_ZN6Magick11embossImageC1Edd
libGraphicsMagick++.so.12:_ZN6Magick11embossImageC1Ev
libGraphicsMagick++.so.12:_ZN6Magick11embossImageC2Edd
libGraphicsMagick++.so.12:_ZN6Magick11embossImageC2Ev
libGraphicsMagick++.so.12:_ZN6Magick11endianImageC1EN9MagickLib10EndianTypeE
libGraphicsMagick++.so.12:_ZN6Magick11endianImageC2EN9MagickLib10EndianTypeE
libGraphicsMagick++.so.12:_ZN6Magick11extentImageC1ERKNS_8GeometryE
libGraphicsMagick++.so.12:_ZN6Magick11extentImageC1ERKNS_8GeometryERKN9MagickLib11GravityTypeE
libGraphicsMagick++.so.12:_ZN6Magick11extentImageC1ERKNS_8GeometryERKNS_5ColorE
libGraphicsMagick++.so.12:_ZN6Magick11extentImageC1ERKNS_8GeometryERKNS_5ColorERKN9MagickLib11GravityTypeE
libGraphicsMagick++.so.12:_ZN6Magick11extentImageC2ERKNS_8GeometryE
libGraphicsMagick++.so.12:_ZN6Magick11extentImageC2ERKNS_8GeometryERKN9MagickLib11GravityTypeE
libGraphicsMagick++.so.12:_ZN6Magick11extentImageC2ERKNS_8GeometryERKNS_5ColorE
libGraphicsMagick++.so.12:_ZN6Magick11extentImageC2ERKNS_8GeometryERKNS_5ColorERKN9MagickLib11GravityTypeE
libGraphicsMagick++.so.12:_ZN6Magick11magickImageC1ERKNSt7__cxx1112basic_stringIcSt11char_traitsIcESaIcEEE
libGraphicsMagick++.so.12:_ZN6Magick11magickImageC2ERKNSt7__cxx1112basic_stringIcSt11char_traitsIcESaIcEEE
libGraphicsMagick++.so.12:_ZN6Magick11minifyImageC1Ev
libGraphicsMagick++.so.12:_ZN6Magick11minifyImageC2Ev
libGraphicsMagick++.so.12:_ZN6Magick11negateImageC1Eb
libGraphicsMagick++.so.12:_ZN6Magick11negateImageC2Eb
libGraphicsMagick++.so.12:_ZN6Magick11opaqueImageC1ERKNS_5ColorES3_
libGraphicsMagick++.so.12:_ZN6Magick11opaqueImageC2ERKNS_5ColorES3_
libGraphicsMagick++.so.12:_ZN6Magick11resizeImageC1ERKNS_8GeometryE
libGraphicsMagick++.so.12:_ZN6Magick11resizeImageC2ERKNS_8GeometryE
libGraphicsMagick++.so.12:_ZN6Magick11rotateImageC1Ed
libGraphicsMagick++.so.12:_ZN6Magick11rotateImageC2Ed
libGraphicsMagick++.so.12:_ZN6Magick11sampleImageC1ERKNS_8GeometryE
libGraphicsMagick++.so.12:_ZN6Magick11sampleImageC2ERKNS_8GeometryE
libGraphicsMagick++.so.12:_ZN6Magick11spreadImageC1Ej
libGraphicsMagick++.so.12:_ZN6Magick11spreadImageC2Ej
libGraphicsMagick++.so.12:_ZN6Magick11stereoImageC1ERKNS_5ImageE
libGraphicsMagick++.so.12:_ZN6Magick11stereoImageC2ERKNS_5ImageE
libGraphicsMagick++.so.12:_ZN6Magick12DrawableBaseD0Ev
libGraphicsMagick++.so.12:_ZN6Magick12DrawableBaseD1Ev
libGraphicsMagick++.so.12:_ZN6Magick12DrawableBaseD2Ev
libGraphicsMagick++.so.12:_ZN6Magick12DrawableFontC1ERKNSt7__cxx1112basic_stringIcSt11char_traitsIcESaIcEEE
libGraphicsMagick++.so.12:_ZN6Magick12DrawableFontC1ERKNSt7__cxx1112basic_stringIcSt11char_traitsIcESaIcEEEN9MagickLib9StyleTypeEmNS9_11StretchTypeE
libGraphicsMagick++.so.12:_ZN6Magick12DrawableFontC1ERKS0_
libGraphicsMagick++.so.12:_ZN6Magick12DrawableFontC2ERKNSt7__cxx1112basic_stringIcSt11char_traitsIcESaIcEEE
libGraphicsMagick++.so.12:_ZN6Magick12DrawableFontC2ERKNSt7__cxx1112basic_stringIcSt11char_traitsIcESaIcEEEN9MagickLib9StyleTypeEmNS9_11StretchTypeE
libGraphicsMagick++.so.12:_ZN6Magick12DrawableFontC2ERKS0_
libGraphicsMagick++.so.12:_ZN6Magick12DrawableFontD0Ev
libGraphicsMagick++.so.12:_ZN6Magick12DrawableFontD1Ev
libGraphicsMagick++.so.12:_ZN6Magick12DrawableFontD2Ev
libGraphicsMagick++.so.12:_ZN6Magick12DrawableLineD0Ev
libGraphicsMagick++.so.12:_ZN6Magick12DrawableLineD1Ev
libGraphicsMagick++.so.12:_ZN6Magick12DrawableLineD2Ev
libGraphicsMagick++.so.12:_ZN6Magick12DrawablePathC1ERKNSt7__cxx114listINS_5VPathESaIS3_EEE
libGraphicsMagick++.so.12:_ZN6Magick12DrawablePathC1ERKS0_
libGraphicsMagick++.so.12:_ZN6Magick12DrawablePathC2ERKNSt7__cxx114listINS_5VPathESaIS3_EEE
libGraphicsMagick++.so.12:_ZN6Magick12DrawablePathC2ERKS0_
libGraphicsMagick++.so.12:_ZN6Magick12DrawablePathD0Ev
libGraphicsMagick++.so.12:_ZN6Magick12DrawablePathD1Ev
libGraphicsMagick++.so.12:_ZN6Magick12DrawablePathD2Ev
libGraphicsMagick++.so.12:_ZN6Magick12DrawableTextC1ERKS0_
libGraphicsMagick++.so.12:_ZN6Magick12DrawableTextC1EddRKNSt7__cxx1112basic_stringIcSt11char_traitsIcESaIcEEE
libGraphicsMagick++.so.12:_ZN6Magick12DrawableTextC1EddRKNSt7__cxx1112basic_stringIcSt11char_traitsIcESaIcEEES8_
libGraphicsMagick++.so.12:_ZN6Magick12DrawableTextC2ERKS0_
libGraphicsMagick++.so.12:_ZN6Magick12DrawableTextC2EddRKNSt7__cxx1112basic_stringIcSt11char_traitsIcESaIcEEE
libGraphicsMagick++.so.12:_ZN6Magick12DrawableTextC2EddRKNSt7__cxx1112basic_stringIcSt11char_traitsIcESaIcEEES8_
libGraphicsMagick++.so.12:_ZN6Magick12DrawableTextD0Ev
libGraphicsMagick++.so.12:_ZN6Magick12DrawableTextD1Ev
libGraphicsMagick++.so.12:_ZN6Magick12DrawableTextD2Ev
libGraphicsMagick++.so.12:_ZN6Magick12ErrorMonitorC1ERKNSt7__cxx1112basic_stringIcSt11char_traitsIcESaIcEEE
libGraphicsMagick++.so.12:_ZN6Magick12ErrorMonitorC2ERKNSt7__cxx1112basic_stringIcSt11char_traitsIcESaIcEEE
libGraphicsMagick++.so.12:_ZN6Magick12ErrorMonitorD0Ev
libGraphicsMagick++.so.12:_ZN6Magick12ErrorMonitorD1Ev
libGraphicsMagick++.so.12:_ZN6Magick12ErrorMonitorD2Ev
libGraphicsMagick++.so.12:_ZN6Magick12ErrorXServerC1ERKNSt7__cxx1112basic_stringIcSt11char_traitsIcESaIcEEE
libGraphicsMagick++.so.12:_ZN6Magick12ErrorXServerC2ERKNSt7__cxx1112basic_stringIcSt11char_traitsIcESaIcEEE
libGraphicsMagick++.so.12:_ZN6Magick12ErrorXServerD0Ev
libGraphicsMagick++.so.12:_ZN6Magick12ErrorXServerD1Ev
libGraphicsMagick++.so.12:_ZN6Magick12ErrorXServerD2Ev
libGraphicsMagick++.so.12:_ZN6Magick12WarningCacheC1ERKNSt7__cxx1112basic_stringIcSt11char_traitsIcESaIcEEE
libGraphicsMagick++.so.12:_ZN6Magick12WarningCacheC2ERKNSt7__cxx1112basic_stringIcSt11char_traitsIcESaIcEEE
libGraphicsMagick++.so.12:_ZN6Magick12WarningCacheD0Ev
libGraphicsMagick++.so.12:_ZN6Magick12WarningCacheD1Ev
libGraphicsMagick++.so.12:_ZN6Magick12WarningCacheD2Ev
libGraphicsMagick++.so.12:_ZN6Magick12WarningCoderC1ERKNSt7__cxx1112basic_stringIcSt11char_traitsIcESaIcEEE
libGraphicsMagick++.so.12:_ZN6Magick12WarningCoderC2ERKNSt7__cxx1112basic_stringIcSt11char_traitsIcESaIcEEE
libGraphicsMagick++.so.12:_ZN6Magick12WarningCoderD0Ev
libGraphicsMagick++.so.12:_ZN6Magick12WarningCoderD1Ev
libGraphicsMagick++.so.12:_ZN6Magick12WarningCoderD2Ev
libGraphicsMagick++.so.12:_ZN6Magick12WarningImageC1ERKNSt7__cxx1112basic_stringIcSt11char_traitsIcESaIcEEE
libGraphicsMagick++.so.12:_ZN6Magick12WarningImageC2ERKNSt7__cxx1112basic_stringIcSt11char_traitsIcESaIcEEE
libGraphicsMagick++.so.12:_ZN6Magick12WarningImageD0Ev
libGraphicsMagick++.so.12:_ZN6Magick12WarningImageD1Ev
libGraphicsMagick++.so.12:_ZN6Magick12WarningImageD2Ev
libGraphicsMagick++.so.12:_ZN6Magick12channelImageC1EN9MagickLib11ChannelTypeE
libGraphicsMagick++.so.12:_ZN6Magick12channelImageC2EN9MagickLib11ChannelTypeE
libGraphicsMagick++.so.12:_ZN6Magick12commentImageC1ERKNSt7__cxx1112basic_stringIcSt11char_traitsIcESaIcEEE
libGraphicsMagick++.so.12:_ZN6Magick12commentImageC2ERKNSt7__cxx1112basic_stringIcSt11char_traitsIcESaIcEEE
libGraphicsMagick++.so.12:_ZN6Magick12composeImageC1EN9MagickLib17CompositeOperatorE
libGraphicsMagick++.so.12:_ZN6Magick12composeImageC2EN9MagickLib17CompositeOperatorE
libGraphicsMagick++.so.12:_ZN6Magick12densityImageC1ERKNS_8GeometryE
libGraphicsMagick++.so.12:_ZN6Magick12densityImageC2ERKNS_8GeometryE
libGraphicsMagick++.so.12:_ZN6Magick12enhanceImageC1Ev
libGraphicsMagick++.so.12:_ZN6Magick12enhanceImageC2Ev
libGraphicsMagick++.so.12:_ZN6Magick12implodeImageC1Ed
libGraphicsMagick++.so.12:_ZN6Magick12implodeImageC2Ed
libGraphicsMagick++.so.12:_ZN6Magick12isValidImageC1Eb
libGraphicsMagick++.so.12:_ZN6Magick12isValidImageC2Eb
libGraphicsMagick++.so.12:_ZN6Magick12magnifyImageC1Ev
libGraphicsMagick++.so.12:_ZN6Magick12magnifyImageC2Ev
libGraphicsMagick++.so.12:_ZN6Magick12opacityImageC1Ej
libGraphicsMagick++.so.12:_ZN6Magick12opacityImageC2Ej
libGraphicsMagick++.so.12:_ZN6Magick12qualityImageC1Ej
libGraphicsMagick++.so.12:_ZN6Magick12qualityImageC2Ej
libGraphicsMagick++.so.12:_ZN6Magick12segmentImageC1Edd
libGraphicsMagick++.so.12:_ZN6Magick12segmentImageC2Edd
libGraphicsMagick++.so.12:_ZN6Magick12sharpenImageC1Edd
libGraphicsMagick++.so.12:_ZN6Magick12sharpenImageC2Edd
libGraphicsMagick++.so.12:_ZN6Magick12steganoImageC1ERKNS_5ImageE
libGraphicsMagick++.so.12:_ZN6Magick12steganoImageC2ERKNS_5ImageE
libGraphicsMagick++.so.12:_ZN6Magick12textureImageC1ERKNS_5ImageE
libGraphicsMagick++.so.12:_ZN6Magick12textureImageC2ERKNS_5ImageE
libGraphicsMagick++.so.12:_ZN6Magick12verboseImageC1Eb
libGraphicsMagick++.so.12:_ZN6Magick12verboseImageC2Eb
libGraphicsMagick++.so.12:_ZN6Magick13DrawableColorD0Ev
libGraphicsMagick++.so.12:_ZN6Magick13DrawableColorD1Ev
libGraphicsMagick++.so.12:_ZN6Magick13DrawableColorD2Ev
libGraphicsMagick++.so.12:_ZN6Magick13DrawableMatteD0Ev
libGraphicsMagick++.so.12:_ZN6Magick13DrawableMatteD1Ev
libGraphicsMagick++.so.12:_ZN6Magick13DrawableMatteD2Ev
libGraphicsMagick++.so.12:_ZN6Magick13DrawablePointD0Ev
libGraphicsMagick++.so.12:_ZN6Magick13DrawablePointD1Ev
libGraphicsMagick++.so.12:_ZN6Magick13DrawablePointD2Ev
libGraphicsMagick++.so.12:_ZN6Magick13DrawableSkewXD0Ev
libGraphicsMagick++.so.12:_ZN6Magick13DrawableSkewXD1Ev
libGraphicsMagick++.so.12:_ZN6Magick13DrawableSkewXD2Ev
libGraphicsMagick++.so.12:_ZN6Magick13DrawableSkewYD0Ev
libGraphicsMagick++.so.12:_ZN6Magick13DrawableSkewYD1Ev
libGraphicsMagick++.so.12:_ZN6Magick13DrawableSkewYD2Ev
libGraphicsMagick++.so.12:_ZN6Magick13ErrorDelegateC1ERKNSt7__cxx1112basic_stringIcSt11char_traitsIcESaIcEEE
libGraphicsMagick++.so.12:_ZN6Magick13ErrorDelegateC2ERKNSt7__cxx1112basic_stringIcSt11char_traitsIcESaIcEEE
libGraphicsMagick++.so.12:_ZN6Magick13ErrorDelegateD0Ev
libGraphicsMagick++.so.12:_ZN6Magick13ErrorDelegateD1Ev
libGraphicsMagick++.so.12:_ZN6Magick13ErrorDelegateD2Ev
libGraphicsMagick++.so.12:_ZN6Magick13ErrorFileOpenC1ERKNSt7__cxx1112basic_stringIcSt11char_traitsIcESaIcEEE
libGraphicsMagick++.so.12:_ZN6Magick13ErrorFileOpenC2ERKNSt7__cxx1112basic_stringIcSt11char_traitsIcESaIcEEE
libGraphicsMagick++.so.12:_ZN6Magick13ErrorFileOpenD0Ev
libGraphicsMagick++.so.12:_ZN6Magick13ErrorFileOpenD1Ev
libGraphicsMagick++.so.12:_ZN6Magick13ErrorFileOpenD2Ev
libGraphicsMagick++.so.12:_ZN6Magick13ErrorRegistryC1ERKNSt7__cxx1112basic_stringIcSt11char_traitsIcESaIcEEE
libGraphicsMagick++.so.12:_ZN6Magick13ErrorRegistryC2ERKNSt7__cxx1112basic_stringIcSt11char_traitsIcESaIcEEE
libGraphicsMagick++.so.12:_ZN6Magick13ErrorRegistryD0Ev
libGraphicsMagick++.so.12:_ZN6Magick13ErrorRegistryD1Ev
libGraphicsMagick++.so.12:_ZN6Magick13ErrorRegistryD2Ev
libGraphicsMagick++.so.12:_ZN6Magick13MagickCleanUpC1Ev
libGraphicsMagick++.so.12:_ZN6Magick13MagickCleanUpC2Ev
libGraphicsMagick++.so.12:_ZN6Magick13MagickCleanUpD1Ev
libGraphicsMagick++.so.12:_ZN6Magick13MagickCleanUpD2Ev
libGraphicsMagick++.so.12:_ZN6Magick13MontageFramedC1Ev
libGraphicsMagick++.so.12:_ZN6Magick13MontageFramedC2Ev
libGraphicsMagick++.so.12:_ZN6Magick13MontageFramedD0Ev
libGraphicsMagick++.so.12:_ZN6Magick13MontageFramedD1Ev
libGraphicsMagick++.so.12:_ZN6Magick13MontageFramedD2Ev
libGraphicsMagick++.so.12:_ZN6Magick13PathClosePathD0Ev
libGraphicsMagick++.so.12:_ZN6Magick13PathClosePathD1Ev
libGraphicsMagick++.so.12:_ZN6Magick13PathClosePathD2Ev
libGraphicsMagick++.so.12:_ZN6Magick13PathLinetoAbsC1ERKNS_10CoordinateE
libGraphicsMagick++.so.12:_ZN6Magick13PathLinetoAbsC1ERKNSt7__cxx114listINS_10CoordinateESaIS3_EEE
libGraphicsMagick++.so.12:_ZN6Magick13PathLinetoAbsC1ERKS0_
libGraphicsMagick++.so.12:_ZN6Magick13PathLinetoAbsC2ERKNS_10CoordinateE
libGraphicsMagick++.so.12:_ZN6Magick13PathLinetoAbsC2ERKNSt7__cxx114listINS_10CoordinateESaIS3_EEE
libGraphicsMagick++.so.12:_ZN6Magick13PathLinetoAbsC2ERKS0_
libGraphicsMagick++.so.12:_ZN6Magick13PathLinetoAbsD0Ev
libGraphicsMagick++.so.12:_ZN6Magick13PathLinetoAbsD1Ev
libGraphicsMagick++.so.12:_ZN6Magick13PathLinetoAbsD2Ev
libGraphicsMagick++.so.12:_ZN6Magick13PathLinetoRelC1ERKNS_10CoordinateE
libGraphicsMagick++.so.12:_ZN6Magick13PathLinetoRelC1ERKNSt7__cxx114listINS_10CoordinateESaIS3_EEE
libGraphicsMagick++.so.12:_ZN6Magick13PathLinetoRelC1ERKS0_
libGraphicsMagick++.so.12:_ZN6Magick13PathLinetoRelC2ERKNS_10CoordinateE
libGraphicsMagick++.so.12:_ZN6Magick13PathLinetoRelC2ERKNSt7__cxx114listINS_10CoordinateESaIS3_EEE
libGraphicsMagick++.so.12:_ZN6Magick13PathLinetoRelC2ERKS0_
libGraphicsMagick++.so.12:_ZN6Magick13PathLinetoRelD0Ev
libGraphicsMagick++.so.12:_ZN6Magick13PathLinetoRelD1Ev
libGraphicsMagick++.so.12:_ZN6Magick13PathLinetoRelD2Ev
libGraphicsMagick++.so.12:_ZN6Magick13PathMovetoAbsC1ERKNS_10CoordinateE
libGraphicsMagick++.so.12:_ZN6Magick13PathMovetoAbsC1ERKNSt7__cxx114listINS_10CoordinateESaIS3_EEE
libGraphicsMagick++.so.12:_ZN6Magick13PathMovetoAbsC1ERKS0_
libGraphicsMagick++.so.12:_ZN6Magick13PathMovetoAbsC2ERKNS_10CoordinateE
libGraphicsMagick++.so.12:_ZN6Magick13PathMovetoAbsC2ERKNSt7__cxx114listINS_10CoordinateESaIS3_EEE
libGraphicsMagick++.so.12:_ZN6Magick13PathMovetoAbsC2ERKS0_
libGraphicsMagick++.so.12:_ZN6Magick13PathMovetoAbsD0Ev
libGraphicsMagick++.so.12:_ZN6Magick13PathMovetoAbsD1Ev
libGraphicsMagick++.so.12:_ZN6Magick13PathMovetoAbsD2Ev
libGraphicsMagick++.so.12:_ZN6Magick13PathMovetoRelC1ERKNS_10CoordinateE
libGraphicsMagick++.so.12:_ZN6Magick13PathMovetoRelC1ERKNSt7__cxx114listINS_10CoordinateESaIS3_EEE
libGraphicsMagick++.so.12:_ZN6Magick13PathMovetoRelC1ERKS0_
libGraphicsMagick++.so.12:_ZN6Magick13PathMovetoRelC2ERKNS_10CoordinateE
libGraphicsMagick++.so.12:_ZN6Magick13PathMovetoRelC2ERKNSt7__cxx114listINS_10CoordinateESaIS3_EEE
libGraphicsMagick++.so.12:_ZN6Magick13PathMovetoRelC2ERKS0_
libGraphicsMagick++.so.12:_ZN6Magick13PathMovetoRelD0Ev
libGraphicsMagick++.so.12:_ZN6Magick13PathMovetoRelD1Ev
libGraphicsMagick++.so.12:_ZN6Magick13PathMovetoRelD2Ev
libGraphicsMagick++.so.12:_ZN6Magick13WarningModuleC1ERKNSt7__cxx1112basic_stringIcSt11char_traitsIcESaIcEEE
libGraphicsMagick++.so.12:_ZN6Magick13WarningModuleC2ERKNSt7__cxx1112basic_stringIcSt11char_traitsIcESaIcEEE
libGraphicsMagick++.so.12:_ZN6Magick13WarningModuleD0Ev
libGraphicsMagick++.so.12:_ZN6Magick13WarningModuleD1Ev
libGraphicsMagick++.so.12:_ZN6Magick13WarningModuleD2Ev
libGraphicsMagick++.so.12:_ZN6Magick13WarningOptionC1ERKNSt7__cxx1112basic_stringIcSt11char_traitsIcESaIcEEE
libGraphicsMagick++.so.12:_ZN6Magick13WarningOptionC2ERKNSt7__cxx1112basic_stringIcSt11char_traitsIcESaIcEEE
libGraphicsMagick++.so.12:_ZN6Magick13WarningOptionD0Ev
libGraphicsMagick++.so.12:_ZN6Magick13WarningOptionD1Ev
libGraphicsMagick++.so.12:_ZN6Magick13WarningOptionD2Ev
libGraphicsMagick++.so.12:_ZN6Magick13WarningStreamC1ERKNSt7__cxx1112basic_stringIcSt11char_traitsIcESaIcEEE
libGraphicsMagick++.so.12:_ZN6Magick13WarningStreamC2ERKNSt7__cxx1112basic_stringIcSt11char_traitsIcESaIcEEE
libGraphicsMagick++.so.12:_ZN6Magick13WarningStreamD0Ev
libGraphicsMagick++.so.12:_ZN6Magick13WarningStreamD1Ev
libGraphicsMagick++.so.12:_ZN6Magick13WarningStreamD2Ev
libGraphicsMagick++.so.12:_ZN6Magick13addNoiseImageC1EN9MagickLib9NoiseTypeE
libGraphicsMagick++.so.12:_ZN6Magick13addNoiseImageC2EN9MagickLib9NoiseTypeE
libGraphicsMagick++.so.12:_ZN6Magick13annotateImageC1ERKNSt7__cxx1112basic_stringIcSt11char_traitsIcESaIcEEEN9MagickLib11GravityTypeE
libGraphicsMagick++.so.12:_ZN6Magick13annotateImageC1ERKNSt7__cxx1112basic_stringIcSt11char_traitsIcESaIcEEERKNS_8GeometryE
libGraphicsMagick++.so.12:_ZN6Magick13annotateImageC1ERKNSt7__cxx1112basic_stringIcSt11char_traitsIcESaIcEEERKNS_8GeometryEN9MagickLib11GravityTypeE
libGraphicsMagick++.so.12:_ZN6Magick13annotateImageC1ERKNSt7__cxx1112basic_stringIcSt11char_traitsIcESaIcEEERKNS_8GeometryEN9MagickLib11GravityTypeEd
libGraphicsMagick++.so.12:_ZN6Magick13annotateImageC2ERKNSt7__cxx1112basic_stringIcSt11char_traitsIcESaIcEEEN9MagickLib11GravityTypeE
libGraphicsMagick++.so.12:_ZN6Magick13annotateImageC2ERKNSt7__cxx1112basic_stringIcSt11char_traitsIcESaIcEEERKNS_8GeometryE
libGraphicsMagick++.so.12:_ZN6Magick13annotateImageC2ERKNSt7__cxx1112basic_stringIcSt11char_traitsIcESaIcEEERKNS_8GeometryEN9MagickLib11GravityTypeE
libGraphicsMagick++.so.12:_ZN6Magick13annotateImageC2ERKNSt7__cxx1112basic_stringIcSt11char_traitsIcESaIcEEERKNS_8GeometryEN9MagickLib11GravityTypeEd
libGraphicsMagick++.so.12:_ZN6Magick13boxColorImageC1ERKNS_5ColorE
libGraphicsMagick++.so.12:_ZN6Magick13boxColorImageC2ERKNS_5ColorE
libGraphicsMagick++.so.12:_ZN6Magick13charcoalImageC1Edd
libGraphicsMagick++.so.12:_ZN6Magick13charcoalImageC2Edd
libGraphicsMagick++.so.12:_ZN6Magick13colorMapImageC1EjRKNS_5ColorE
libGraphicsMagick++.so.12:_ZN6Magick13colorMapImageC2EjRKNS_5ColorE
libGraphicsMagick++.so.12:_ZN6Magick13colorizeImageC1EjRKNS_5ColorE
libGraphicsMagick++.so.12:_ZN6Magick13colorizeImageC1EjjjRKNS_5ColorE
libGraphicsMagick++.so.12:_ZN6Magick13colorizeImageC2EjRKNS_5ColorE
libGraphicsMagick++.so.12:_ZN6Magick13colorizeImageC2EjjjRKNS_5ColorE
libGraphicsMagick++.so.12:_ZN6Magick13contrastImageC1Ej
libGraphicsMagick++.so.12:_ZN6Magick13contrastImageC2Ej
libGraphicsMagick++.so.12:_ZN6Magick13equalizeImageC1Ev
libGraphicsMagick++.so.12:_ZN6Magick13equalizeImageC2Ev
libGraphicsMagick++.so.12:_ZN6Magick13fileNameImageC1ERKNSt7__cxx1112basic_stringIcSt11char_traitsIcESaIcEEE
libGraphicsMagick++.so.12:_ZN6Magick13fileNameImageC2ERKNSt7__cxx1112basic_stringIcSt11char_traitsIcESaIcEEE
libGraphicsMagick++.so.12:_ZN6Magick13haldClutImageC1ERKNS_5ImageE
libGraphicsMagick++.so.12:_ZN6Magick13haldClutImageC2ERKNS_5ImageE
libGraphicsMagick++.so.12:_ZN6Magick13modulateImageC1Eddd
libGraphicsMagick++.so.12:_ZN6Magick13modulateImageC2Eddd
libGraphicsMagick++.so.12:_ZN6Magick13oilPaintImageC1Ed
libGraphicsMagick++.so.12:_ZN6Magick13oilPaintImageC2Ed
libGraphicsMagick++.so.12:_ZN6Magick13penColorImageC1ERKNS_5ColorE
libGraphicsMagick++.so.12:_ZN6Magick13penColorImageC2ERKNS_5ColorE
libGraphicsMagick++.so.12:_ZN6Magick13quantizeImageC1Eb
libGraphicsMagick++.so.12:_ZN6Magick13quantizeImageC2Eb
libGraphicsMagick++.so.12:_ZN6Magick13solarizeImageC1Ed
libGraphicsMagick++.so.12:_ZN6Magick13solarizeImageC2Ed
libGraphicsMagick++.so.12:_ZN6Magick13subImageImageC1Ej
libGraphicsMagick++.so.12:_ZN6Magick13subImageImageC2Ej
libGraphicsMagick++.so.12:_ZN6Magick13subRangeImageC1Ej
libGraphicsMagick++.so.12:_ZN6Magick13subRangeImageC2Ej
libGraphicsMagick++.so.12:_ZN6Magick13tileNameImageC1ERKNSt7__cxx1112basic_stringIcSt11char_traitsIcESaIcEEE
libGraphicsMagick++.so.12:_ZN6Magick13tileNameImageC2ERKNSt7__cxx1112basic_stringIcSt11char_traitsIcESaIcEEE
libGraphicsMagick++.so.12:_ZN6Magick14DrawableAffineC1Edddddd
libGraphicsMagick++.so.12:_ZN6Magick14DrawableAffineC1Ev
libGraphicsMagick++.so.12:_ZN6Magick14DrawableAffineC2Edddddd
libGraphicsMagick++.so.12:_ZN6Magick14DrawableAffineC2Ev
libGraphicsMagick++.so.12:_ZN6Magick14DrawableAffineD0Ev
libGraphicsMagick++.so.12:_ZN6Magick14DrawableAffineD1Ev
libGraphicsMagick++.so.12:_ZN6Magick14DrawableAffineD2Ev
libGraphicsMagick++.so.12:_ZN6Magick14DrawableBezierC1ERKNSt7__cxx114listINS_10CoordinateESaIS3_EEE
libGraphicsMagick++.so.12:_ZN6Magick14DrawableBezierC1ERKS0_
libGraphicsMagick++.so.12:_ZN6Magick14DrawableBezierC2ERKNSt7__cxx114listINS_10CoordinateESaIS3_EEE
libGraphicsMagick++.so.12:_ZN6Magick14DrawableBezierC2ERKS0_
libGraphicsMagick++.so.12:_ZN6Magick14DrawableBezierD0Ev
libGraphicsMagick++.so.12:_ZN6Magick14DrawableBezierD1Ev
libGraphicsMagick++.so.12:_ZN6Magick14DrawableBezierD2Ev
libGraphicsMagick++.so.12:_ZN6Magick14DrawableCircleD0Ev
libGraphicsMagick++.so.12:_ZN6Magick14DrawableCircleD1Ev
libGraphicsMagick++.so.12:_ZN6Magick14DrawableCircleD2Ev
libGraphicsMagick++.so.12:_ZN6Magick14ErrorConfigureC1ERKNSt7__cxx1112basic_stringIcSt11char_traitsIcESaIcEEE
libGraphicsMagick++.so.12:_ZN6Magick14ErrorConfigureC2ERKNSt7__cxx1112basic_stringIcSt11char_traitsIcESaIcEEE
libGraphicsMagick++.so.12:_ZN6Magick14ErrorConfigureD0Ev
libGraphicsMagick++.so.12:_ZN6Magick14ErrorConfigureD1Ev
libGraphicsMagick++.so.12:_ZN6Magick14ErrorConfigureD2Ev
libGraphicsMagick++.so.12:_ZN6Magick14ErrorUndefinedC1ERKNSt7__cxx1112basic_stringIcSt11char_traitsIcESaIcEEE
libGraphicsMagick++.so.12:_ZN6Magick14ErrorUndefinedC2ERKNSt7__cxx1112basic_stringIcSt11char_traitsIcESaIcEEE
libGraphicsMagick++.so.12:_ZN6Magick14ErrorUndefinedD0Ev
libGraphicsMagick++.so.12:_ZN6Magick14ErrorUndefinedD1Ev
libGraphicsMagick++.so.12:_ZN6Magick14ErrorUndefinedD2Ev
libGraphicsMagick++.so.12:_ZN6Magick14PathCurvetoAbsC1ERKNS_15PathCurvetoArgsE
libGraphicsMagick++.so.12:_ZN6Magick14PathCurvetoAbsC1ERKNSt7__cxx114listINS_15PathCurvetoArgsESaIS3_EEE
libGraphicsMagick++.so.12:_ZN6Magick14PathCurvetoAbsC1ERKS0_
libGraphicsMagick++.so.12:_ZN6Magick14PathCurvetoAbsC2ERKNS_15PathCurvetoArgsE
libGraphicsMagick++.so.12:_ZN6Magick14PathCurvetoAbsC2ERKNSt7__cxx114listINS_15PathCurvetoArgsESaIS3_EEE
libGraphicsMagick++.so.12:_ZN6Magick14PathCurvetoAbsC2ERKS0_
libGraphicsMagick++.so.12:_ZN6Magick14PathCurvetoAbsD0Ev
libGraphicsMagick++.so.12:_ZN6Magick14PathCurvetoAbsD1Ev
libGraphicsMagick++.so.12:_ZN6Magick14PathCurvetoAbsD2Ev
libGraphicsMagick++.so.12:_ZN6Magick14PathCurvetoRelC1ERKNS_15PathCurvetoArgsE
libGraphicsMagick++.so.12:_ZN6Magick14PathCurvetoRelC1ERKNSt7__cxx114listINS_15PathCurvetoArgsESaIS3_EEE
libGraphicsMagick++.so.12:_ZN6Magick14PathCurvetoRelC1ERKS0_
libGraphicsMagick++.so.12:_ZN6Magick14PathCurvetoRelC2ERKNS_15PathCurvetoArgsE
libGraphicsMagick++.so.12:_ZN6Magick14PathCurvetoRelC2ERKNSt7__cxx114listINS_15PathCurvetoArgsESaIS3_EEE
libGraphicsMagick++.so.12:_ZN6Magick14PathCurvetoRelC2ERKS0_
libGraphicsMagick++.so.12:_ZN6Magick14PathCurvetoRelD0Ev
libGraphicsMagick++.so.12:_ZN6Magick14PathCurvetoRelD1Ev
libGraphicsMagick++.so.12:_ZN6Magick14PathCurvetoRelD2Ev
libGraphicsMagick++.so.12:_ZN6Magick14WarningMonitorC1ERKNSt7__cxx1112basic_stringIcSt11char_traitsIcESaIcEEE
libGraphicsMagick++.so.12:_ZN6Magick14WarningMonitorC2ERKNSt7__cxx1112basic_stringIcSt11char_traitsIcESaIcEEE
libGraphicsMagick++.so.12:_ZN6Magick14WarningMonitorD0Ev
libGraphicsMagick++.so.12:_ZN6Magick14WarningMonitorD1Ev
libGraphicsMagick++.so.12:_ZN6Magick14WarningMonitorD2Ev
libGraphicsMagick++.so.12:_ZN6Magick14WarningXServerC1ERKNSt7__cxx1112basic_stringIcSt11char_traitsIcESaIcEEE
libGraphicsMagick++.so.12:_ZN6Magick14WarningXServerC2ERKNSt7__cxx1112basic_stringIcSt11char_traitsIcESaIcEEE
libGraphicsMagick++.so.12:_ZN6Magick14WarningXServerD0Ev
libGraphicsMagick++.so.12:_ZN6Magick14WarningXServerD1Ev
libGraphicsMagick++.so.12:_ZN6Magick14WarningXServerD2Ev
libGraphicsMagick++.so.12:_ZN6Magick14antiAliasImageC1Eb
libGraphicsMagick++.so.12:_ZN6Magick14antiAliasImageC2Eb
libGraphicsMagick++.so.12:_ZN6Magick14colorFuzzImageC1Ed
libGraphicsMagick++.so.12:_ZN6Magick14colorFuzzImageC2Ed
libGraphicsMagick++.so.12:_ZN6Magick14compositeImageC1ERKNS_5ImageERKNS_8GeometryEN9MagickLib17CompositeOperatorE
libGraphicsMagick++.so.12:_ZN6Magick14compositeImageC1ERKNS_5ImageEiiN9MagickLib17CompositeOperatorE
libGraphicsMagick++.so.12:_ZN6Magick14compositeImageC2ERKNS_5ImageERKNS_8GeometryEN9MagickLib17CompositeOperatorE
libGraphicsMagick++.so.12:_ZN6Magick14compositeImageC2ERKNS_5ImageEiiN9MagickLib17CompositeOperatorE
libGraphicsMagick++.so.12:_ZN6Magick14despeckleImageC1Ev
libGraphicsMagick++.so.12:_ZN6Magick14despeckleImageC2Ev
libGraphicsMagick++.so.12:_ZN6Magick14fillColorImageC1ERKNS_5ColorE
libGraphicsMagick++.so.12:_ZN6Magick14fillColorImageC2ERKNS_5ColorE
libGraphicsMagick++.so.12:_ZN6Magick14lineWidthImageC1Ed
libGraphicsMagick++.so.12:_ZN6Magick14lineWidthImageC2Ed
libGraphicsMagick++.so.12:_ZN6Magick14normalizeImageC1Ev
libGraphicsMagick++.so.12:_ZN6Magick14normalizeImageC2Ev
libGraphicsMagick++.so.12:_ZN6Magick14thresholdImageC1Ed
libGraphicsMagick++.so.12:_ZN6Magick14thresholdImageC2Ed
libGraphicsMagick++.so.12:_ZN6Magick14throwExceptionERN9MagickLib14_ExceptionInfoEb
libGraphicsMagick++.so.12:_ZN6Magick14transformImageC1ERKNS_8GeometryE
libGraphicsMagick++.so.12:_ZN6Magick14transformImageC1ERKNS_8GeometryES3_
libGraphicsMagick++.so.12:_ZN6Magick14transformImageC2ERKNS_8GeometryE
libGraphicsMagick++.so.12:_ZN6Magick14transformImageC2ERKNS_8GeometryES3_
libGraphicsMagick++.so.12:_ZN6Magick15DrawableEllipseD0Ev
libGraphicsMagick++.so.12:_ZN6Magick15DrawableEllipseD1Ev
libGraphicsMagick++.so.12:_ZN6Magick15DrawableEllipseD2Ev
libGraphicsMagick++.so.12:_ZN6Magick15DrawableGravityD0Ev
libGraphicsMagick++.so.12:_ZN6Magick15DrawableGravityD1Ev
libGraphicsMagick++.so.12:_ZN6Magick15DrawableGravityD2Ev
libGraphicsMagick++.so.12:_ZN6Magick15DrawablePolygonC1ERKNSt7__cxx114listINS_10CoordinateESaIS3_EEE
libGraphicsMagick++.so.12:_ZN6Magick15DrawablePolygonC1ERKS0_
libGraphicsMagick++.so.12:_ZN6Magick15DrawablePolygonC2ERKNSt7__cxx114listINS_10CoordinateESaIS3_EEE
libGraphicsMagick++.so.12:_ZN6Magick15DrawablePolygonC2ERKS0_
libGraphicsMagick++.so.12:_ZN6Magick15DrawablePolygonD0Ev
libGraphicsMagick++.so.12:_ZN6Magick15DrawablePolygonD1Ev
libGraphicsMagick++.so.12:_ZN6Magick15DrawablePolygonD2Ev
libGraphicsMagick++.so.12:_ZN6Magick15DrawableScalingD0Ev
libGraphicsMagick++.so.12:_ZN6Magick15DrawableScalingD1Ev
libGraphicsMagick++.so.12:_ZN6Magick15DrawableScalingD2Ev
libGraphicsMagick++.so.12:_ZN6Magick15DrawableViewboxD0Ev
libGraphicsMagick++.so.12:_ZN6Magick15DrawableViewboxD1Ev
libGraphicsMagick++.so.12:_ZN6Magick15DrawableViewboxD2Ev
libGraphicsMagick++.so.12:_ZN6Magick15PathCurvetoArgsC1ERKS0_
libGraphicsMagick++.so.12:_ZN6Magick15PathCurvetoArgsC1Edddddd
libGraphicsMagick++.so.12:_ZN6Magick15PathCurvetoArgsC1Ev
libGraphicsMagick++.so.12:_ZN6Magick15PathCurvetoArgsC2ERKS0_
libGraphicsMagick++.so.12:_ZN6Magick15PathCurvetoArgsC2Edddddd
libGraphicsMagick++.so.12:_ZN6Magick15PathCurvetoArgsC2Ev
libGraphicsMagick++.so.12:_ZN6Magick15PathCurvetoArgsD1Ev
libGraphicsMagick++.so.12:_ZN6Magick15PathCurvetoArgsD2Ev
libGraphicsMagick++.so.12:_ZN6Magick15WarningDelegateC1ERKNSt7__cxx1112basic_stringIcSt11char_traitsIcESaIcEEE
libGraphicsMagick++.so.12:_ZN6Magick15WarningDelegateC2ERKNSt7__cxx1112basic_stringIcSt11char_traitsIcESaIcEEE
libGraphicsMagick++.so.12:_ZN6Magick15WarningDelegateD0Ev
libGraphicsMagick++.so.12:_ZN6Magick15WarningDelegateD1Ev
libGraphicsMagick++.so.12:_ZN6Magick15WarningDelegateD2Ev
libGraphicsMagick++.so.12:_ZN6Magick15WarningFileOpenC1ERKNSt7__cxx1112basic_stringIcSt11char_traitsIcESaIcEEE
libGraphicsMagick++.so.12:_ZN6Magick15WarningFileOpenC2ERKNSt7__cxx1112basic_stringIcSt11char_traitsIcESaIcEEE
libGraphicsMagick++.so.12:_ZN6Magick15WarningFileOpenD0Ev
libGraphicsMagick++.so.12:_ZN6Magick15WarningFileOpenD1Ev
libGraphicsMagick++.so.12:_ZN6Magick15WarningFileOpenD2Ev
libGraphicsMagick++.so.12:_ZN6Magick15WarningRegistryC1ERKNSt7__cxx1112basic_stringIcSt11char_traitsIcESaIcEEE
libGraphicsMagick++.so.12:_ZN6Magick15WarningRegistryC2ERKNSt7__cxx1112basic_stringIcSt11char_traitsIcESaIcEEE
libGraphicsMagick++.so.12:_ZN6Magick15WarningRegistryD0Ev
libGraphicsMagick++.so.12:_ZN6Magick15WarningRegistryD1Ev
libGraphicsMagick++.so.12:_ZN6Magick15WarningRegistryD2Ev
libGraphicsMagick++.so.12:_ZN6Magick15colorSpaceImageC1EN9MagickLib14ColorspaceTypeE
libGraphicsMagick++.so.12:_ZN6Magick15colorSpaceImageC2EN9MagickLib14ColorspaceTypeE
libGraphicsMagick++.so.12:_ZN6Magick15filterTypeImageC1EN9MagickLib11FilterTypesE
libGraphicsMagick++.so.12:_ZN6Magick15filterTypeImageC2EN9MagickLib11FilterTypesE
libGraphicsMagick++.so.12:_ZN6Magick15matteColorImageC1ERKNS_5ColorE
libGraphicsMagick++.so.12:_ZN6Magick15matteColorImageC2ERKNS_5ColorE
libGraphicsMagick++.so.12:_ZN6Magick15monochromeImageC1Eb
libGraphicsMagick++.so.12:_ZN6Magick15monochromeImageC2Eb
libGraphicsMagick++.so.12:_ZN6Magick15penTextureImageC1ERKNS_5ImageE
libGraphicsMagick++.so.12:_ZN6Magick15penTextureImageC2ERKNS_5ImageE
libGraphicsMagick++.so.12:_ZN6Magick15pixelColorImageC1EjjRKNS_5ColorE
libGraphicsMagick++.so.12:_ZN6Magick15pixelColorImageC2EjjRKNS_5ColorE
libGraphicsMagick++.so.12:_ZN6Magick15x11DisplayImageC1ERKNSt7__cxx1112basic_stringIcSt11char_traitsIcESaIcEEE
libGraphicsMagick++.so.12:_ZN6Magick15x11DisplayImageC2ERKNSt7__cxx1112basic_stringIcSt11char_traitsIcESaIcEEE
libGraphicsMagick++.so.12:_ZN6Magick16DrawableClipPathC1ERKNSt7__cxx1112basic_stringIcSt11char_traitsIcESaIcEEE
libGraphicsMagick++.so.12:_ZN6Magick16DrawableClipPathC1ERKS0_
libGraphicsMagick++.so.12:_ZN6Magick16DrawableClipPathC2ERKNSt7__cxx1112basic_stringIcSt11char_traitsIcESaIcEEE
libGraphicsMagick++.so.12:_ZN6Magick16DrawableClipPathC2ERKS0_
libGraphicsMagick++.so.12:_ZN6Magick16DrawableClipPathD0Ev
libGraphicsMagick++.so.12:_ZN6Magick16DrawableClipPathD1Ev
libGraphicsMagick++.so.12:_ZN6Magick16DrawableClipPathD2Ev
libGraphicsMagick++.so.12:_ZN6Magick16DrawableFillRuleD0Ev
libGraphicsMagick++.so.12:_ZN6Magick16DrawableFillRuleD1Ev
libGraphicsMagick++.so.12:_ZN6Magick16DrawableFillRuleD2Ev
libGraphicsMagick++.so.12:_ZN6Magick16DrawablePolylineC1ERKNSt7__cxx114listINS_10CoordinateESaIS3_EEE
libGraphicsMagick++.so.12:_ZN6Magick16DrawablePolylineC1ERKS0_
libGraphicsMagick++.so.12:_ZN6Magick16DrawablePolylineC2ERKNSt7__cxx114listINS_10CoordinateESaIS3_EEE
libGraphicsMagick++.so.12:_ZN6Magick16DrawablePolylineC2ERKS0_
libGraphicsMagick++.so.12:_ZN6Magick16DrawablePolylineD0Ev
libGraphicsMagick++.so.12:_ZN6Magick16DrawablePolylineD1Ev
libGraphicsMagick++.so.12:_ZN6Magick16DrawablePolylineD2Ev
libGraphicsMagick++.so.12:_ZN6Magick16DrawableRotationD0Ev
libGraphicsMagick++.so.12:_ZN6Magick16DrawableRotationD1Ev
libGraphicsMagick++.so.12:_ZN6Magick16DrawableRotationD2Ev
libGraphicsMagick++.so.12:_ZN6Magick16InitializeMagickEPKc
libGraphicsMagick++.so.12:_ZN6Magick16WarningConfigureC1ERKNSt7__cxx1112basic_stringIcSt11char_traitsIcESaIcEEE
libGraphicsMagick++.so.12:_ZN6Magick16WarningConfigureC2ERKNSt7__cxx1112basic_stringIcSt11char_traitsIcESaIcEEE
libGraphicsMagick++.so.12:_ZN6Magick16WarningConfigureD0Ev
libGraphicsMagick++.so.12:_ZN6Magick16WarningConfigureD1Ev
libGraphicsMagick++.so.12:_ZN6Magick16WarningConfigureD2Ev
libGraphicsMagick++.so.12:_ZN6Magick16WarningUndefinedC1ERKNSt7__cxx1112basic_stringIcSt11char_traitsIcESaIcEEE
libGraphicsMagick++.so.12:_ZN6Magick16WarningUndefinedC2ERKNSt7__cxx1112basic_stringIcSt11char_traitsIcESaIcEEE
libGraphicsMagick++.so.12:_ZN6Magick16WarningUndefinedD0Ev
libGraphicsMagick++.so.12:_ZN6Magick16WarningUndefinedD1Ev
libGraphicsMagick++.so.12:_ZN6Magick16WarningUndefinedD2Ev
libGraphicsMagick++.so.12:_ZN6Magick16borderColorImageC1ERKNS_5ColorE
libGraphicsMagick++.so.12:_ZN6Magick16borderColorImageC2ERKNS_5ColorE
libGraphicsMagick++.so.12:_ZN6Magick16colorMatrixImageC1EjPKd
libGraphicsMagick++.so.12:_ZN6Magick16colorMatrixImageC2EjPKd
libGraphicsMagick++.so.12:_ZN6Magick16reduceNoiseImageC1Ej
libGraphicsMagick++.so.12:_ZN6Magick16reduceNoiseImageC1Ev
libGraphicsMagick++.so.12:_ZN6Magick16reduceNoiseImageC2Ej
libGraphicsMagick++.so.12:_ZN6Magick16reduceNoiseImageC2Ev
libGraphicsMagick++.so.12:_ZN6Magick16strokeColorImageC1ERKNS_5ColorE
libGraphicsMagick++.so.12:_ZN6Magick16strokeColorImageC2ERKNS_5ColorE
libGraphicsMagick++.so.12:_ZN6Magick16transparentImageC1ERKNS_5ColorE
libGraphicsMagick++.so.12:_ZN6Magick16transparentImageC2ERKNS_5ColorE
libGraphicsMagick++.so.12:_ZN6Magick17DrawableDashArray9dasharrayEPKd
libGraphicsMagick++.so.12:_ZN6Magick17DrawableDashArray9dasharrayEPKj
libGraphicsMagick++.so.12:_ZN6Magick17DrawableDashArrayC1EPKd
libGraphicsMagick++.so.12:_ZN6Magick17DrawableDashArrayC1EPKj
libGraphicsMagick++.so.12:_ZN6Magick17DrawableDashArrayC1ERKS0_
libGraphicsMagick++.so.12:_ZN6Magick17DrawableDashArrayC2EPKd
libGraphicsMagick++.so.12:_ZN6Magick17DrawableDashArrayC2EPKj
libGraphicsMagick++.so.12:_ZN6Magick17DrawableDashArrayC2ERKS0_
libGraphicsMagick++.so.12:_ZN6Magick17DrawableDashArrayD0Ev
libGraphicsMagick++.so.12:_ZN6Magick17DrawableDashArrayD1Ev
libGraphicsMagick++.so.12:_ZN6Magick17DrawableDashArrayD2Ev
libGraphicsMagick++.so.12:_ZN6Magick17DrawableDashArrayaSERKS0_
libGraphicsMagick++.so.12:_ZN6Magick17DrawableFillColorC1ERKNS_5ColorE
libGraphicsMagick++.so.12:_ZN6Magick17DrawableFillColorC1ERKS0_
libGraphicsMagick++.so.12:_ZN6Magick17DrawableFillColorC2ERKNS_5ColorE
libGraphicsMagick++.so.12:_ZN6Magick17DrawableFillColorC2ERKS0_
libGraphicsMagick++.so.12:_ZN6Magick17DrawableFillColorD0Ev
libGraphicsMagick++.so.12:_ZN6Magick17DrawableFillColorD1Ev
libGraphicsMagick++.so.12:_ZN6Magick17DrawableFillColorD2Ev
libGraphicsMagick++.so.12:_ZN6Magick17DrawablePointSizeD0Ev
libGraphicsMagick++.so.12:_ZN6Magick17DrawablePointSizeD1Ev
libGraphicsMagick++.so.12:_ZN6Magick17DrawablePointSizeD2Ev
libGraphicsMagick++.so.12:_ZN6Magick17DrawableRectangleD0Ev
libGraphicsMagick++.so.12:_ZN6Magick17DrawableRectangleD1Ev
libGraphicsMagick++.so.12:_ZN6Magick17DrawableRectangleD2Ev
libGraphicsMagick++.so.12:_ZN6Magick17ErrorCorruptImageC1ERKNSt7__cxx1112basic_stringIcSt11char_traitsIcESaIcEEE
libGraphicsMagick++.so.12:_ZN6Magick17ErrorCorruptImageC2ERKNSt7__cxx1112basic_stringIcSt11char_traitsIcESaIcEEE
libGraphicsMagick++.so.12:_ZN6Magick17ErrorCorruptImageD0Ev
libGraphicsMagick++.so.12:_ZN6Magick17ErrorCorruptImageD1Ev
libGraphicsMagick++.so.12:_ZN6Magick17ErrorCorruptImageD2Ev
libGraphicsMagick++.so.12:_ZN6Magick17compressTypeImageC1EN9MagickLib15CompressionTypeE
libGraphicsMagick++.so.12:_ZN6Magick17compressTypeImageC2EN9MagickLib15CompressionTypeE
libGraphicsMagick++.so.12:_ZN6Magick17gaussianBlurImageC1Edd
libGraphicsMagick++.so.12:_ZN6Magick17gaussianBlurImageC2Edd
libGraphicsMagick++.so.12:_ZN6Magick17levelChannelImageC1EN9MagickLib11ChannelTypeEddd
libGraphicsMagick++.so.12:_ZN6Magick17levelChannelImageC2EN9MagickLib11ChannelTypeEddd
libGraphicsMagick++.so.12:_ZN6Magick17medianFilterImageC1Ed
libGraphicsMagick++.so.12:_ZN6Magick17medianFilterImageC2Ed
libGraphicsMagick++.so.12:_ZN6Magick18DrawableDashOffsetD0Ev
libGraphicsMagick++.so.12:_ZN6Magick18DrawableDashOffsetD1Ev
libGraphicsMagick++.so.12:_ZN6Magick18DrawableDashOffsetD2Ev
libGraphicsMagick++.so.12:_ZN6Magick18DrawableMiterLimitD0Ev
libGraphicsMagick++.so.12:_ZN6Magick18DrawableMiterLimitD1Ev
libGraphicsMagick++.so.12:_ZN6Magick18DrawableMiterLimitD2Ev
libGraphicsMagick++.so.12:_ZN6Magick18DrawablePopPatternD0Ev
libGraphicsMagick++.so.12:_ZN6Magick18DrawablePopPatternD1Ev
libGraphicsMagick++.so.12:_ZN6Magick18DrawablePopPatternD2Ev
libGraphicsMagick++.so.12:_ZN6Magick18ErrorResourceLimitC1ERKNSt7__cxx1112basic_stringIcSt11char_traitsIcESaIcEEE
libGraphicsMagick++.so.12:_ZN6Magick18ErrorResourceLimitC2ERKNSt7__cxx1112basic_stringIcSt11char_traitsIcESaIcEEE
libGraphicsMagick++.so.12:_ZN6Magick18ErrorResourceLimitD0Ev
libGraphicsMagick++.so.12:_ZN6Magick18ErrorResourceLimitD1Ev
libGraphicsMagick++.so.12:_ZN6Magick18ErrorResourceLimitD2Ev
libGraphicsMagick++.so.12:_ZN6Magick18cycleColormapImageC1Ei
libGraphicsMagick++.so.12:_ZN6Magick18cycleColormapImageC2Ei
libGraphicsMagick++.so.12:_ZN6Magick18fontPointsizeImageC1Ej
libGraphicsMagick++.so.12:_ZN6Magick18fontPointsizeImageC2Ej
libGraphicsMagick++.so.12:_ZN6Magick18interlaceTypeImageC1EN9MagickLib13InterlaceTypeE
libGraphicsMagick++.so.12:_ZN6Magick18interlaceTypeImageC2EN9MagickLib13InterlaceTypeE
libGraphicsMagick++.so.12:_ZN6Magick19DrawableFillOpacityD0Ev
libGraphicsMagick++.so.12:_ZN6Magick19DrawableFillOpacityD1Ev
libGraphicsMagick++.so.12:_ZN6Magick19DrawableFillOpacityD2Ev
libGraphicsMagick++.so.12:_ZN6Magick19DrawablePopClipPathD0Ev
libGraphicsMagick++.so.12:_ZN6Magick19DrawablePopClipPathD1Ev
libGraphicsMagick++.so.12:_ZN6Magick19DrawablePopClipPathD2Ev
libGraphicsMagick++.so.12:_ZN6Magick19DrawablePushPatternC1ERKNSt7__cxx1112basic_stringIcSt11char_traitsIcESaIcEEEllll
libGraphicsMagick++.so.12:_ZN6Magick19DrawablePushPatternC1ERKS0_
libGraphicsMagick++.so.12:_ZN6Magick19DrawablePushPatternC2ERKNSt7__cxx1112basic_stringIcSt11char_traitsIcESaIcEEEllll
libGraphicsMagick++.so.12:_ZN6Magick19DrawablePushPatternC2ERKS0_
libGraphicsMagick++.so.12:_ZN6Magick19DrawablePushPatternD0Ev
libGraphicsMagick++.so.12:_ZN6Magick19DrawablePushPatternD1Ev
libGraphicsMagick++.so.12:_ZN6Magick19DrawablePushPatternD2Ev
libGraphicsMagick++.so.12:_ZN6Magick19DrawableStrokeColorC1ERKNS_5ColorE
libGraphicsMagick++.so.12:_ZN6Magick19DrawableStrokeColorC1ERKS0_
libGraphicsMagick++.so.12:_ZN6Magick19DrawableStrokeColorC2ERKNS_5ColorE
libGraphicsMagick++.so.12:_ZN6Magick19DrawableStrokeColorC2ERKS0_
libGraphicsMagick++.so.12:_ZN6Magick19DrawableStrokeColorD0Ev
libGraphicsMagick++.so.12:_ZN6Magick19DrawableStrokeColorD1Ev
libGraphicsMagick++.so.12:_ZN6Magick19DrawableStrokeColorD2Ev
libGraphicsMagick++.so.12:_ZN6Magick19DrawableStrokeWidthD0Ev
libGraphicsMagick++.so.12:_ZN6Magick19DrawableStrokeWidthD1Ev
libGraphicsMagick++.so.12:_ZN6Magick19DrawableStrokeWidthD2Ev
libGraphicsMagick++.so.12:_ZN6Magick19DrawableTranslationD0Ev
libGraphicsMagick++.so.12:_ZN6Magick19DrawableTranslationD1Ev
libGraphicsMagick++.so.12:_ZN6Magick19DrawableTranslationD2Ev
libGraphicsMagick++.so.12:_ZN6Magick19WarningCorruptImageC1ERKNSt7__cxx1112basic_stringIcSt11char_traitsIcESaIcEEE
libGraphicsMagick++.so.12:_ZN6Magick19WarningCorruptImageC2ERKNSt7__cxx1112basic_stringIcSt11char_traitsIcESaIcEEE
libGraphicsMagick++.so.12:_ZN6Magick19WarningCorruptImageD0Ev
libGraphicsMagick++.so.12:_ZN6Magick19WarningCorruptImageD1Ev
libGraphicsMagick++.so.12:_ZN6Magick19WarningCorruptImageD2Ev
libGraphicsMagick++.so.12:_ZN6Magick19animationDelayImageC1Ej
libGraphicsMagick++.so.12:_ZN6Magick19animationDelayImageC2Ej
libGraphicsMagick++.so.12:_ZN6Magick19floodFillColorImageC1ERKNS_8GeometryERKNS_5ColorE
libGraphicsMagick++.so.12:_ZN6Magick19floodFillColorImageC1ERKNS_8GeometryERKNS_5ColorES6_
libGraphicsMagick++.so.12:_ZN6Magick19floodFillColorImageC1EjjRKNS_5ColorE
libGraphicsMagick++.so.12:_ZN6Magick19floodFillColorImageC1EjjRKNS_5ColorES3_
libGraphicsMagick++.so.12:_ZN6Magick19floodFillColorImageC2ERKNS_8GeometryERKNS_5ColorE
libGraphicsMagick++.so.12:_ZN6Magick19floodFillColorImageC2ERKNS_8GeometryERKNS_5ColorES6_
libGraphicsMagick++.so.12:_ZN6Magick19floodFillColorImageC2EjjRKNS_5ColorE
libGraphicsMagick++.so.12:_ZN6Magick19floodFillColorImageC2EjjRKNS_5ColorES3_
libGraphicsMagick++.so.12:_ZN6Magick19matteFloodfillImageC1ERKNS_5ColorEjiiN9MagickLib11PaintMethodE
libGraphicsMagick++.so.12:_ZN6Magick19matteFloodfillImageC2ERKNS_5ColorEjiiN9MagickLib11PaintMethodE
libGraphicsMagick++.so.12:_ZN6Magick19quantizeColorsImageC1Ej
libGraphicsMagick++.so.12:_ZN6Magick19quantizeColorsImageC2Ej
libGraphicsMagick++.so.12:_ZN6Magick19quantizeDitherImageC1Eb
libGraphicsMagick++.so.12:_ZN6Magick19quantizeDitherImageC2Eb
libGraphicsMagick++.so.12:_ZN6Magick20DrawablePushClipPathC1ERKNSt7__cxx1112basic_stringIcSt11char_traitsIcESaIcEEE
libGraphicsMagick++.so.12:_ZN6Magick20DrawablePushClipPathC1ERKS0_
libGraphicsMagick++.so.12:_ZN6Magick20DrawablePushClipPathC2ERKNSt7__cxx1112basic_stringIcSt11char_traitsIcESaIcEEE
libGraphicsMagick++.so.12:_ZN6Magick20DrawablePushClipPathC2ERKS0_
libGraphicsMagick++.so.12:_ZN6Magick20DrawablePushClipPathD0Ev
libGraphicsMagick++.so.12:_ZN6Magick20DrawablePushClipPathD1Ev
libGraphicsMagick++.so.12:_ZN6Magick20DrawablePushClipPathD2Ev
libGraphicsMagick++.so.12:_ZN6Magick20ErrorMissingDelegateC1ERKNSt7__cxx1112basic_stringIcSt11char_traitsIcESaIcEEE
libGraphicsMagick++.so.12:_ZN6Magick20ErrorMissingDelegateC2ERKNSt7__cxx1112basic_stringIcSt11char_traitsIcESaIcEEE
libGraphicsMagick++.so.12:_ZN6Magick20ErrorMissingDelegateD0Ev
libGraphicsMagick++.so.12:_ZN6Magick20ErrorMissingDelegateD1Ev
libGraphicsMagick++.so.12:_ZN6Magick20ErrorMissingDelegateD2Ev
libGraphicsMagick++.so.12:_ZN6Magick20PathSmoothCurvetoAbsC1ERKNS_10CoordinateE
libGraphicsMagick++.so.12:_ZN6Magick20PathSmoothCurvetoAbsC1ERKNSt7__cxx114listINS_10CoordinateESaIS3_EEE
libGraphicsMagick++.so.12:_ZN6Magick20PathSmoothCurvetoAbsC1ERKS0_
libGraphicsMagick++.so.12:_ZN6Magick20PathSmoothCurvetoAbsC2ERKNS_10CoordinateE
libGraphicsMagick++.so.12:_ZN6Magick20PathSmoothCurvetoAbsC2ERKNSt7__cxx114listINS_10CoordinateESaIS3_EEE
libGraphicsMagick++.so.12:_ZN6Magick20PathSmoothCurvetoAbsC2ERKS0_
libGraphicsMagick++.so.12:_ZN6Magick20PathSmoothCurvetoAbsD0Ev
libGraphicsMagick++.so.12:_ZN6Magick20PathSmoothCurvetoAbsD1Ev
libGraphicsMagick++.so.12:_ZN6Magick20PathSmoothCurvetoAbsD2Ev
libGraphicsMagick++.so.12:_ZN6Magick20PathSmoothCurvetoRelC1ERKNS_10CoordinateE
libGraphicsMagick++.so.12:_ZN6Magick20PathSmoothCurvetoRelC1ERKNSt7__cxx114listINS_10CoordinateESaIS3_EEE
libGraphicsMagick++.so.12:_ZN6Magick20PathSmoothCurvetoRelC1ERKS0_
libGraphicsMagick++.so.12:_ZN6Magick20PathSmoothCurvetoRelC2ERKNS_10CoordinateE
libGraphicsMagick++.so.12:_ZN6Magick20PathSmoothCurvetoRelC2ERKNSt7__cxx114listINS_10CoordinateESaIS3_EEE
libGraphicsMagick++.so.12:_ZN6Magick20PathSmoothCurvetoRelC2ERKS0_
libGraphicsMagick++.so.12:_ZN6Magick20PathSmoothCurvetoRelD0Ev
libGraphicsMagick++.so.12:_ZN6Magick20PathSmoothCurvetoRelD1Ev
libGraphicsMagick++.so.12:_ZN6Magick20PathSmoothCurvetoRelD2Ev
libGraphicsMagick++.so.12:_ZN6Magick20WarningResourceLimitC1ERKNSt7__cxx1112basic_stringIcSt11char_traitsIcESaIcEEE
libGraphicsMagick++.so.12:_ZN6Magick20WarningResourceLimitC2ERKNSt7__cxx1112basic_stringIcSt11char_traitsIcESaIcEEE
libGraphicsMagick++.so.12:_ZN6Magick20WarningResourceLimitD0Ev
libGraphicsMagick++.so.12:_ZN6Magick20WarningResourceLimitD1Ev
libGraphicsMagick++.so.12:_ZN6Magick20WarningResourceLimitD2Ev
libGraphicsMagick++.so.12:_ZN6Magick20affineTransformImageC1ERKNS_14DrawableAffineE
libGraphicsMagick++.so.12:_ZN6Magick20affineTransformImageC2ERKNS_14DrawableAffineE
libGraphicsMagick++.so.12:_ZN6Magick20backgroundColorImageC1ERKNS_5ColorE
libGraphicsMagick++.so.12:_ZN6Magick20backgroundColorImageC2ERKNS_5ColorE
libGraphicsMagick++.so.12:_ZN6Magick20renderingIntentImageC1EN9MagickLib15RenderingIntentE
libGraphicsMagick++.so.12:_ZN6Magick20renderingIntentImageC2EN9MagickLib15RenderingIntentE
libGraphicsMagick++.so.12:_ZN6Magick20resolutionUnitsImageC1EN9MagickLib14ResolutionTypeE
libGraphicsMagick++.so.12:_ZN6Magick20resolutionUnitsImageC2EN9MagickLib14ResolutionTypeE
libGraphicsMagick++.so.12:_ZN6Magick21DrawableStrokeLineCapD0Ev
libGraphicsMagick++.so.12:_ZN6Magick21DrawableStrokeLineCapD1Ev
libGraphicsMagick++.so.12:_ZN6Magick21DrawableStrokeLineCapD2Ev
libGraphicsMagick++.so.12:_ZN6Magick21DrawableStrokeOpacityD0Ev
libGraphicsMagick++.so.12:_ZN6Magick21DrawableStrokeOpacityD1Ev
libGraphicsMagick++.so.12:_ZN6Magick21DrawableStrokeOpacityD2Ev
libGraphicsMagick++.so.12:_ZN6Magick21DrawableTextAntialiasC1ERKS0_
libGraphicsMagick++.so.12:_ZN6Magick21DrawableTextAntialiasC1Eb
libGraphicsMagick++.so.12:_ZN6Magick21DrawableTextAntialiasC2ERKS0_
libGraphicsMagick++.so.12:_ZN6Magick21DrawableTextAntialiasC2Eb
libGraphicsMagick++.so.12:_ZN6Magick21DrawableTextAntialiasD0Ev
libGraphicsMagick++.so.12:_ZN6Magick21DrawableTextAntialiasD1Ev
libGraphicsMagick++.so.12:_ZN6Magick21DrawableTextAntialiasD2Ev
libGraphicsMagick++.so.12:_ZN6Magick21PathLinetoVerticalAbsD0Ev
libGraphicsMagick++.so.12:_ZN6Magick21PathLinetoVerticalAbsD1Ev
libGraphicsMagick++.so.12:_ZN6Magick21PathLinetoVerticalAbsD2Ev
libGraphicsMagick++.so.12:_ZN6Magick21PathLinetoVerticalRelD0Ev
libGraphicsMagick++.so.12:_ZN6Magick21PathLinetoVerticalRelD1Ev
libGraphicsMagick++.so.12:_ZN6Magick21PathLinetoVerticalRelD2Ev
libGraphicsMagick++.so.12:_ZN6Magick21chromaRedPrimaryImageC1Edd
libGraphicsMagick++.so.12:_ZN6Magick21chromaRedPrimaryImageC2Edd
libGraphicsMagick++.so.12:_ZN6Magick21chromaWhitePointImageC1Edd
libGraphicsMagick++.so.12:_ZN6Magick21chromaWhitePointImageC2Edd
libGraphicsMagick++.so.12:_ZN6Magick21floodFillTextureImageC1ERKNS_8GeometryERKNS_5ImageE
libGraphicsMagick++.so.12:_ZN6Magick21floodFillTextureImageC1ERKNS_8GeometryERKNS_5ImageERKNS_5ColorE
libGraphicsMagick++.so.12:_ZN6Magick21floodFillTextureImageC1EjjRKNS_5ImageE
libGraphicsMagick++.so.12:_ZN6Magick21floodFillTextureImageC1EjjRKNS_5ImageERKNS_5ColorE
libGraphicsMagick++.so.12:_ZN6Magick21floodFillTextureImageC2ERKNS_8GeometryERKNS_5ImageE
libGraphicsMagick++.so.12:_ZN6Magick21floodFillTextureImageC2ERKNS_8GeometryERKNS_5ImageERKNS_5ColorE
libGraphicsMagick++.so.12:_ZN6Magick21floodFillTextureImageC2EjjRKNS_5ImageE
libGraphicsMagick++.so.12:_ZN6Magick21floodFillTextureImageC2EjjRKNS_5ImageERKNS_5ColorE
libGraphicsMagick++.so.12:_ZN6Magick21gifDisposeMethodImageC1Ej
libGraphicsMagick++.so.12:_ZN6Magick21gifDisposeMethodImageC2Ej
libGraphicsMagick++.so.12:_ZN6Magick22DrawableCompositeImage5imageERKNS_5ImageE
libGraphicsMagick++.so.12:_ZN6Magick22DrawableCompositeImage6magickB5cxx11Ev
libGraphicsMagick++.so.12:_ZN6Magick22DrawableCompositeImage6magickENSt7__cxx1112basic_stringIcSt11char_traitsIcESaIcEEE
libGraphicsMagick++.so.12:_ZN6Magick22DrawableCompositeImage8filenameERKNSt7__cxx1112basic_stringIcSt11char_traitsIcESaIcEEE
libGraphicsMagick++.so.12:_ZN6Magick22DrawableCompositeImageC1ERKS0_
libGraphicsMagick++.so.12:_ZN6Magick22DrawableCompositeImageC1EddRKNS_5ImageE
libGraphicsMagick++.so.12:_ZN6Magick22DrawableCompositeImageC1EddRKNSt7__cxx1112basic_stringIcSt11char_traitsIcESaIcEEE
libGraphicsMagick++.so.12:_ZN6Magick22DrawableCompositeImageC1EddddRKNS_5ImageE
libGraphicsMagick++.so.12:_ZN6Magick22DrawableCompositeImageC1EddddRKNS_5ImageEN9MagickLib17CompositeOperatorE
libGraphicsMagick++.so.12:_ZN6Magick22DrawableCompositeImageC1EddddRKNSt7__cxx1112basic_stringIcSt11char_traitsIcESaIcEEE
libGraphicsMagick++.so.12:_ZN6Magick22DrawableCompositeImageC1EddddRKNSt7__cxx1112basic_stringIcSt11char_traitsIcESaIcEEEN9MagickLib17CompositeOperatorE
libGraphicsMagick++.so.12:_ZN6Magick22DrawableCompositeImageC2ERKS0_
libGraphicsMagick++.so.12:_ZN6Magick22DrawableCompositeImageC2EddRKNS_5ImageE
libGraphicsMagick++.so.12:_ZN6Magick22DrawableCompositeImageC2EddRKNSt7__cxx1112basic_stringIcSt11char_traitsIcESaIcEEE
libGraphicsMagick++.so.12:_ZN6Magick22DrawableCompositeImageC2EddddRKNS_5ImageE
libGraphicsMagick++.so.12:_ZN6Magick22DrawableCompositeImageC2EddddRKNS_5ImageEN9MagickLib17CompositeOperatorE
libGraphicsMagick++.so.12:_ZN6Magick22DrawableCompositeImageC2EddddRKNSt7__cxx1112basic_stringIcSt11char_traitsIcESaIcEEE
libGraphicsMagick++.so.12:_ZN6Magick22DrawableCompositeImageC2EddddRKNSt7__cxx1112basic_stringIcSt11char_traitsIcESaIcEEEN9MagickLib17CompositeOperatorE
libGraphicsMagick++.so.12:_ZN6Magick22DrawableCompositeImageD0Ev
libGraphicsMagick++.so.12:_ZN6Magick22DrawableCompositeImageD1Ev
libGraphicsMagick++.so.12:_ZN6Magick22DrawableCompositeImageD2Ev
libGraphicsMagick++.so.12:_ZN6Magick22DrawableCompositeImageaSERKS0_
libGraphicsMagick++.so.12:_ZN6Magick22DrawableRoundRectangleD0Ev
libGraphicsMagick++.so.12:_ZN6Magick22DrawableRoundRectangleD1Ev
libGraphicsMagick++.so.12:_ZN6Magick22DrawableRoundRectangleD2Ev
libGraphicsMagick++.so.12:_ZN6Magick22DrawableStrokeLineJoinD0Ev
libGraphicsMagick++.so.12:_ZN6Magick22DrawableStrokeLineJoinD1Ev
libGraphicsMagick++.so.12:_ZN6Magick22DrawableStrokeLineJoinD2Ev
libGraphicsMagick++.so.12:_ZN6Magick22DrawableTextDecorationC1EN9MagickLib14DecorationTypeE
libGraphicsMagick++.so.12:_ZN6Magick22DrawableTextDecorationC1ERKS0_
libGraphicsMagick++.so.12:_ZN6Magick22DrawableTextDecorationC2EN9MagickLib14DecorationTypeE
libGraphicsMagick++.so.12:_ZN6Magick22DrawableTextDecorationC2ERKS0_
libGraphicsMagick++.so.12:_ZN6Magick22DrawableTextDecorationD0Ev
libGraphicsMagick++.so.12:_ZN6Magick22DrawableTextDecorationD1Ev
libGraphicsMagick++.so.12:_ZN6Magick22DrawableTextDecorationD2Ev
libGraphicsMagick++.so.12:_ZN6Magick22DrawableTextUnderColorC1ERKNS_5ColorE
libGraphicsMagick++.so.12:_ZN6Magick22DrawableTextUnderColorC1ERKS0_
libGraphicsMagick++.so.12:_ZN6Magick22DrawableTextUnderColorC2ERKNS_5ColorE
libGraphicsMagick++.so.12:_ZN6Magick22DrawableTextUnderColorC2ERKS0_
libGraphicsMagick++.so.12:_ZN6Magick22DrawableTextUnderColorD0Ev
libGraphicsMagick++.so.12:_ZN6Magick22DrawableTextUnderColorD1Ev
libGraphicsMagick++.so.12:_ZN6Magick22DrawableTextUnderColorD2Ev
libGraphicsMagick++.so.12:_ZN6Magick22WarningMissingDelegateC1ERKNSt7__cxx1112basic_stringIcSt11char_traitsIcESaIcEEE
libGraphicsMagick++.so.12:_ZN6Magick22WarningMissingDelegateC2ERKNSt7__cxx1112basic_stringIcSt11char_traitsIcESaIcEEE
libGraphicsMagick++.so.12:_ZN6Magick22WarningMissingDelegateD0Ev
libGraphicsMagick++.so.12:_ZN6Magick22WarningMissingDelegateD1Ev
libGraphicsMagick++.so.12:_ZN6Magick22WarningMissingDelegateD2Ev
libGraphicsMagick++.so.12:_ZN6Magick22adaptiveThresholdImageC1Ejjd
libGraphicsMagick++.so.12:_ZN6Magick22adaptiveThresholdImageC2Ejjd
libGraphicsMagick++.so.12:_ZN6Magick22backgroundTextureImageC1ERKNSt7__cxx1112basic_stringIcSt11char_traitsIcESaIcEEE
libGraphicsMagick++.so.12:_ZN6Magick22backgroundTextureImageC2ERKNSt7__cxx1112basic_stringIcSt11char_traitsIcESaIcEEE
libGraphicsMagick++.so.12:_ZN6Magick22chromaBluePrimaryImageC1Edd
libGraphicsMagick++.so.12:_ZN6Magick22chromaBluePrimaryImageC2Edd
libGraphicsMagick++.so.12:_ZN6Magick22quantizeTreeDepthImageC1Ej
libGraphicsMagick++.so.12:_ZN6Magick22quantizeTreeDepthImageC2Ej
libGraphicsMagick++.so.12:_ZN6Magick22throwExceptionExplicitEN9MagickLib13ExceptionTypeEPKcS3_
libGraphicsMagick++.so.12:_ZN6Magick23DrawableStrokeAntialiasD0Ev
libGraphicsMagick++.so.12:_ZN6Magick23DrawableStrokeAntialiasD1Ev
libGraphicsMagick++.so.12:_ZN6Magick23DrawableStrokeAntialiasD2Ev
libGraphicsMagick++.so.12:_ZN6Magick23PathLinetoHorizontalAbsD0Ev
libGraphicsMagick++.so.12:_ZN6Magick23PathLinetoHorizontalAbsD1Ev
libGraphicsMagick++.so.12:_ZN6Magick23PathLinetoHorizontalAbsD2Ev
libGraphicsMagick++.so.12:_ZN6Magick23PathLinetoHorizontalRelD0Ev
libGraphicsMagick++.so.12:_ZN6Magick23PathLinetoHorizontalRelD1Ev
libGraphicsMagick++.so.12:_ZN6Magick23PathLinetoHorizontalRelD2Ev
libGraphicsMagick++.so.12:_ZN6Magick23PathQuadraticCurvetoAbsC1ERKNS_24PathQuadraticCurvetoArgsE
libGraphicsMagick++.so.12:_ZN6Magick23PathQuadraticCurvetoAbsC1ERKNSt7__cxx114listINS_24PathQuadraticCurvetoArgsESaIS3_EEE
libGraphicsMagick++.so.12:_ZN6Magick23PathQuadraticCurvetoAbsC1ERKS0_
libGraphicsMagick++.so.12:_ZN6Magick23PathQuadraticCurvetoAbsC2ERKNS_24PathQuadraticCurvetoArgsE
libGraphicsMagick++.so.12:_ZN6Magick23PathQuadraticCurvetoAbsC2ERKNSt7__cxx114listINS_24PathQuadraticCurvetoArgsESaIS3_EEE
libGraphicsMagick++.so.12:_ZN6Magick23PathQuadraticCurvetoAbsC2ERKS0_
libGraphicsMagick++.so.12:_ZN6Magick23PathQuadraticCurvetoAbsD0Ev
libGraphicsMagick++.so.12:_ZN6Magick23PathQuadraticCurvetoAbsD1Ev
libGraphicsMagick++.so.12:_ZN6Magick23PathQuadraticCurvetoAbsD2Ev
libGraphicsMagick++.so.12:_ZN6Magick23PathQuadraticCurvetoRelC1ERKNS_24PathQuadraticCurvetoArgsE
libGraphicsMagick++.so.12:_ZN6Magick23PathQuadraticCurvetoRelC1ERKNSt7__cxx114listINS_24PathQuadraticCurvetoArgsESaIS3_EEE
libGraphicsMagick++.so.12:_ZN6Magick23PathQuadraticCurvetoRelC1ERKS0_
libGraphicsMagick++.so.12:_ZN6Magick23PathQuadraticCurvetoRelC2ERKNS_24PathQuadraticCurvetoArgsE
libGraphicsMagick++.so.12:_ZN6Magick23PathQuadraticCurvetoRelC2ERKNSt7__cxx114listINS_24PathQuadraticCurvetoArgsESaIS3_EEE
libGraphicsMagick++.so.12:_ZN6Magick23PathQuadraticCurvetoRelC2ERKS0_
libGraphicsMagick++.so.12:_ZN6Magick23PathQuadraticCurvetoRelD0Ev
libGraphicsMagick++.so.12:_ZN6Magick23PathQuadraticCurvetoRelD1Ev
libGraphicsMagick++.so.12:_ZN6Magick23PathQuadraticCurvetoRelD2Ev
libGraphicsMagick++.so.12:_ZN6Magick23chromaGreenPrimaryImageC1Edd
libGraphicsMagick++.so.12:_ZN6Magick23chromaGreenPrimaryImageC2Edd
libGraphicsMagick++.so.12:_ZN6Magick23quantizeColorSpaceImageC1EN9MagickLib14ColorspaceTypeE
libGraphicsMagick++.so.12:_ZN6Magick23quantizeColorSpaceImageC2EN9MagickLib14ColorspaceTypeE
libGraphicsMagick++.so.12:_ZN6Magick24PathQuadraticCurvetoArgsC1ERKS0_
libGraphicsMagick++.so.12:_ZN6Magick24PathQuadraticCurvetoArgsC1Edddd
libGraphicsMagick++.so.12:_ZN6Magick24PathQuadraticCurvetoArgsC1Ev
libGraphicsMagick++.so.12:_ZN6Magick24PathQuadraticCurvetoArgsC2ERKS0_
libGraphicsMagick++.so.12:_ZN6Magick24PathQuadraticCurvetoArgsC2Edddd
libGraphicsMagick++.so.12:_ZN6Magick24PathQuadraticCurvetoArgsC2Ev
libGraphicsMagick++.so.12:_ZN6Magick24PathQuadraticCurvetoArgsD1Ev
libGraphicsMagick++.so.12:_ZN6Magick24PathQuadraticCurvetoArgsD2Ev
libGraphicsMagick++.so.12:_ZN6Magick24animationIterationsImageC1Ej
libGraphicsMagick++.so.12:_ZN6Magick24animationIterationsImageC2Ej
libGraphicsMagick++.so.12:_ZN6Magick25DrawablePopGraphicContextD0Ev
libGraphicsMagick++.so.12:_ZN6Magick25DrawablePopGraphicContextD1Ev
libGraphicsMagick++.so.12:_ZN6Magick25DrawablePopGraphicContextD2Ev
libGraphicsMagick++.so.12:_ZN6Magick26DrawablePushGraphicContextD0Ev
libGraphicsMagick++.so.12:_ZN6Magick26DrawablePushGraphicContextD1Ev
libGraphicsMagick++.so.12:_ZN6Magick26DrawablePushGraphicContextD2Ev
libGraphicsMagick++.so.12:_ZN6Magick29PathSmoothQuadraticCurvetoAbsC1ERKNS_10CoordinateE
libGraphicsMagick++.so.12:_ZN6Magick29PathSmoothQuadraticCurvetoAbsC1ERKNSt7__cxx114listINS_10CoordinateESaIS3_EEE
libGraphicsMagick++.so.12:_ZN6Magick29PathSmoothQuadraticCurvetoAbsC1ERKS0_
libGraphicsMagick++.so.12:_ZN6Magick29PathSmoothQuadraticCurvetoAbsC2ERKNS_10CoordinateE
libGraphicsMagick++.so.12:_ZN6Magick29PathSmoothQuadraticCurvetoAbsC2ERKNSt7__cxx114listINS_10CoordinateESaIS3_EEE
libGraphicsMagick++.so.12:_ZN6Magick29PathSmoothQuadraticCurvetoAbsC2ERKS0_
libGraphicsMagick++.so.12:_ZN6Magick29PathSmoothQuadraticCurvetoAbsD0Ev
libGraphicsMagick++.so.12:_ZN6Magick29PathSmoothQuadraticCurvetoAbsD1Ev
libGraphicsMagick++.so.12:_ZN6Magick29PathSmoothQuadraticCurvetoAbsD2Ev
libGraphicsMagick++.so.12:_ZN6Magick29PathSmoothQuadraticCurvetoRelC1ERKNS_10CoordinateE
libGraphicsMagick++.so.12:_ZN6Magick29PathSmoothQuadraticCurvetoRelC1ERKNSt7__cxx114listINS_10CoordinateESaIS3_EEE
libGraphicsMagick++.so.12:_ZN6Magick29PathSmoothQuadraticCurvetoRelC1ERKS0_
libGraphicsMagick++.so.12:_ZN6Magick29PathSmoothQuadraticCurvetoRelC2ERKNS_10CoordinateE
libGraphicsMagick++.so.12:_ZN6Magick29PathSmoothQuadraticCurvetoRelC2ERKNSt7__cxx114listINS_10CoordinateESaIS3_EEE
libGraphicsMagick++.so.12:_ZN6Magick29PathSmoothQuadraticCurvetoRelC2ERKS0_
libGraphicsMagick++.so.12:_ZN6Magick29PathSmoothQuadraticCurvetoRelD0Ev
libGraphicsMagick++.so.12:_ZN6Magick29PathSmoothQuadraticCurvetoRelD1Ev
libGraphicsMagick++.so.12:_ZN6Magick29PathSmoothQuadraticCurvetoRelD2Ev
libGraphicsMagick++.so.12:_ZN6Magick4Blob12updateNoCopyEPvmNS0_9AllocatorE
libGraphicsMagick++.so.12:_ZN6Magick4Blob6base64B5cxx11Ev
libGraphicsMagick++.so.12:_ZN6Magick4Blob6base64ENSt7__cxx1112basic_stringIcSt11char_traitsIcESaIcEEE
libGraphicsMagick++.so.12:_ZN6Magick4Blob6updateEPKvm
libGraphicsMagick++.so.12:_ZN6Magick4BlobC1EPKvm
libGraphicsMagick++.so.12:_ZN6Magick4BlobC1ERKS0_
libGraphicsMagick++.so.12:_ZN6Magick4BlobC1Ev
libGraphicsMagick++.so.12:_ZN6Magick4BlobC2EPKvm
libGraphicsMagick++.so.12:_ZN6Magick4BlobC2ERKS0_
libGraphicsMagick++.so.12:_ZN6Magick4BlobC2Ev
libGraphicsMagick++.so.12:_ZN6Magick4BlobD0Ev
libGraphicsMagick++.so.12:_ZN6Magick4BlobD1Ev
libGraphicsMagick++.so.12:_ZN6Magick4BlobD2Ev
libGraphicsMagick++.so.12:_ZN6Magick4BlobaSERKS0_
libGraphicsMagick++.so.12:_ZN6Magick5Color5pixelEPN9MagickLib12_PixelPacketENS0_9PixelTypeE
libGraphicsMagick++.so.12:_ZN6Magick5Color7isValidEb
libGraphicsMagick++.so.12:_ZN6Magick5ColorC1EPKc
libGraphicsMagick++.so.12:_ZN6Magick5ColorC1EPN9MagickLib12_PixelPacketENS0_9PixelTypeE
libGraphicsMagick++.so.12:_ZN6Magick5ColorC1ERKN9MagickLib12_PixelPacketE
libGraphicsMagick++.so.12:_ZN6Magick5ColorC1ERKNSt7__cxx1112basic_stringIcSt11char_traitsIcESaIcEEE
libGraphicsMagick++.so.12:_ZN6Magick5ColorC1ERKS0_
libGraphicsMagick++.so.12:_ZN6Magick5ColorC1Ettt
libGraphicsMagick++.so.12:_ZN6Magick5ColorC1Etttt
libGraphicsMagick++.so.12:_ZN6Magick5ColorC1Ev
libGraphicsMagick++.so.12:_ZN6Magick5ColorC2EPKc
libGraphicsMagick++.so.12:_ZN6Magick5ColorC2EPN9MagickLib12_PixelPacketENS0_9PixelTypeE
libGraphicsMagick++.so.12:_ZN6Magick5ColorC2ERKN9MagickLib12_PixelPacketE
libGraphicsMagick++.so.12:_ZN6Magick5ColorC2ERKNSt7__cxx1112basic_stringIcSt11char_traitsIcESaIcEEE
libGraphicsMagick++.so.12:_ZN6Magick5ColorC2ERKS0_
libGraphicsMagick++.so.12:_ZN6Magick5ColorC2Ettt
libGraphicsMagick++.so.12:_ZN6Magick5ColorC2Etttt
libGraphicsMagick++.so.12:_ZN6Magick5ColorC2Ev
libGraphicsMagick++.so.12:_ZN6Magick5ColorD0Ev
libGraphicsMagick++.so.12:_ZN6Magick5ColorD1Ev
libGraphicsMagick++.so.12:_ZN6Magick5ColorD2Ev
libGraphicsMagick++.so.12:_ZN6Magick5ColoraSEPKc
libGraphicsMagick++.so.12:_ZN6Magick5ColoraSERKN9MagickLib12_PixelPacketE
libGraphicsMagick++.so.12:_ZN6Magick5ColoraSERKNSt7__cxx1112basic_stringIcSt11char_traitsIcESaIcEEE
libGraphicsMagick++.so.12:_ZN6Magick5ColoraSERKS0_
libGraphicsMagick++.so.12:_ZN6Magick5ErrorC1ERKNSt7__cxx1112basic_stringIcSt11char_traitsIcESaIcEEE
libGraphicsMagick++.so.12:_ZN6Magick5ErrorC2ERKNSt7__cxx1112basic_stringIcSt11char_traitsIcESaIcEEE
libGraphicsMagick++.so.12:_ZN6Magick5ErrorD0Ev
libGraphicsMagick++.so.12:_ZN6Magick5ErrorD1Ev
libGraphicsMagick++.so.12:_ZN6Magick5ErrorD2Ev
libGraphicsMagick++.so.12:_ZN6Magick5Image10autoOrientEv
libGraphicsMagick++.so.12:_ZN6Magick5Image10colorSpaceEN9MagickLib14ColorspaceTypeE
libGraphicsMagick++.so.12:_ZN6Magick5Image10filterTypeEN9MagickLib11FilterTypesE
libGraphicsMagick++.so.12:_ZN6Magick5Image10getIndexesEv
libGraphicsMagick++.so.12:_ZN6Magick5Image10matteColorERKNS_5ColorE
libGraphicsMagick++.so.12:_ZN6Magick5Image10monochromeEb
libGraphicsMagick++.so.12:_ZN6Magick5Image10motionBlurEddd
libGraphicsMagick++.so.12:_ZN6Magick5Image10penTextureERKS0_
libGraphicsMagick++.so.12:_ZN6Magick5Image10pixelColorEjjRKNS_5ColorE
libGraphicsMagick++.so.12:_ZN6Magick5Image10readPixelsEN9MagickLib11QuantumTypeEPKh
libGraphicsMagick++.so.12:_ZN6Magick5Image10registerIdEv
libGraphicsMagick++.so.12:_ZN6Magick5Image10syncPixelsEv
libGraphicsMagick++.so.12:_ZN6Magick5Image10x11DisplayERKNSt7__cxx1112basic_stringIcSt11char_traitsIcESaIcEEE
libGraphicsMagick++.so.12:_ZN6Magick5Image11blurChannelEN9MagickLib11ChannelTypeEdd
libGraphicsMagick++.so.12:_ZN6Magick5Image11borderColorERKNS_5ColorE
libGraphicsMagick++.so.12:_ZN6Magick5Image11colorMatrixEjPKd
libGraphicsMagick++.so.12:_ZN6Magick5Image11defineValueERKNSt7__cxx1112basic_stringIcSt11char_traitsIcESaIcEEES8_S8_
libGraphicsMagick++.so.12:_ZN6Magick5Image11fillPatternERKS0_
libGraphicsMagick++.so.12:_ZN6Magick5Image11iptcProfileERKNS_4BlobE
libGraphicsMagick++.so.12:_ZN6Magick5Image11modifyImageEv
libGraphicsMagick++.so.12:_ZN6Magick5Image11orientationEN9MagickLib15OrientationTypeE
libGraphicsMagick++.so.12:_ZN6Magick5Image11reduceNoiseEd
libGraphicsMagick++.so.12:_ZN6Magick5Image11strokeColorERKNS_5ColorE
libGraphicsMagick++.so.12:_ZN6Magick5Image11strokeWidthEd
libGraphicsMagick++.so.12:_ZN6Magick5Image11totalColorsEv
libGraphicsMagick++.so.12:_ZN6Magick5Image11transparentERKNS_5ColorE
libGraphicsMagick++.so.12:_ZN6Magick5Image11unsharpmaskEdddd
libGraphicsMagick++.so.12:_ZN6Magick5Image11writePixelsEN9MagickLib11QuantumTypeEPh
libGraphicsMagick++.so.12:_ZN6Magick5Image11xResolutionEd
libGraphicsMagick++.so.12:_ZN6Magick5Image11yResolutionEd
libGraphicsMagick++.so.12:_ZN6Magick5Image12channelDepthEN9MagickLib11ChannelTypeE
libGraphicsMagick++.so.12:_ZN6Magick5Image12channelDepthEN9MagickLib11ChannelTypeEj
libGraphicsMagick++.so.12:_ZN6Magick5Image12colorMapSizeEj
libGraphicsMagick++.so.12:_ZN6Magick5Image12colorMapSizeEv
libGraphicsMagick++.so.12:_ZN6Magick5Image12compressTypeEN9MagickLib15CompressionTypeE
libGraphicsMagick++.so.12:_ZN6Magick5Image12gaussianBlurEdd
libGraphicsMagick++.so.12:_ZN6Magick5Image12levelChannelEN9MagickLib11ChannelTypeEddd
libGraphicsMagick++.so.12:_ZN6Magick5Image12medianFilterEd
libGraphicsMagick++.so.12:_ZN6Magick5Image12modulusDepthEj
libGraphicsMagick++.so.12:_ZN6Magick5Image12quantizeInfoEv
libGraphicsMagick++.so.12:_ZN6Magick5Image12replaceImageEPN9MagickLib6_ImageE
libGraphicsMagick++.so.12:_ZN6Magick5Image12textEncodingERKNSt7__cxx1112basic_stringIcSt11char_traitsIcESaIcEEE
libGraphicsMagick++.so.12:_ZN6Magick5Image12unregisterIdEv
libGraphicsMagick++.so.12:_ZN6Magick5Image13cycleColormapEi
libGraphicsMagick++.so.12:_ZN6Magick5Image13fontPointsizeEd
libGraphicsMagick++.so.12:_ZN6Magick5Image13interlaceTypeEN9MagickLib13InterlaceTypeE
libGraphicsMagick++.so.12:_ZN6Magick5Image13strokeLineCapEN9MagickLib7LineCapE
libGraphicsMagick++.so.12:_ZN6Magick5Image13strokePatternERKS0_
libGraphicsMagick++.so.12:_ZN6Magick5Image14animationDelayEj
libGraphicsMagick++.so.12:_ZN6Magick5Image14cacheThresholdEj
libGraphicsMagick++.so.12:_ZN6Magick5Image14floodFillColorERKNS_8GeometryERKNS_5ColorE
libGraphicsMagick++.so.12:_ZN6Magick5Image14floodFillColorERKNS_8GeometryERKNS_5ColorES6_
libGraphicsMagick++.so.12:_ZN6Magick5Image14floodFillColorEjjRKNS_5ColorE
libGraphicsMagick++.so.12:_ZN6Magick5Image14floodFillColorEjjRKNS_5ColorES3_
libGraphicsMagick++.so.12:_ZN6Magick5Image14matteFloodfillERKNS_5ColorEjiiN9MagickLib11PaintMethodE
libGraphicsMagick++.so.12:_ZN6Magick5Image14quantizeColorsEj
libGraphicsMagick++.so.12:_ZN6Magick5Image14quantizeDitherEb
libGraphicsMagick++.so.12:_ZN6Magick5Image14sharpenChannelEN9MagickLib11ChannelTypeEdd
libGraphicsMagick++.so.12:_ZN6Magick5Image14strokeLineJoinEN9MagickLib8LineJoinE
libGraphicsMagick++.so.12:_ZN6Magick5Image14transformResetEv
libGraphicsMagick++.so.12:_ZN6Magick5Image14transformScaleEdd
libGraphicsMagick++.so.12:_ZN6Magick5Image14transformSkewXEd
libGraphicsMagick++.so.12:_ZN6Magick5Image14transformSkewYEd
libGraphicsMagick++.so.12:_ZN6Magick5Image15addNoiseChannelEN9MagickLib11ChannelTypeENS1_9NoiseTypeE
libGraphicsMagick++.so.12:_ZN6Magick5Image15affineTransformERKNS_14DrawableAffineE
libGraphicsMagick++.so.12:_ZN6Magick5Image15backgroundColorERKNS_5ColorE
libGraphicsMagick++.so.12:_ZN6Magick5Image15fontTypeMetricsERKNSt7__cxx1112basic_stringIcSt11char_traitsIcESaIcEEEPNS_10TypeMetricE
libGraphicsMagick++.so.12:_ZN6Magick5Image15iccColorProfileERKNS_4BlobE
libGraphicsMagick++.so.12:_ZN6Magick5Image15quantumOperatorEN9MagickLib11ChannelTypeENS1_15QuantumOperatorEd
libGraphicsMagick++.so.12:_ZN6Magick5Image15quantumOperatorEN9MagickLib11ChannelTypeENS1_15QuantumOperatorEt
libGraphicsMagick++.so.12:_ZN6Magick5Image15quantumOperatorEiijjN9MagickLib11ChannelTypeENS1_15QuantumOperatorEd
libGraphicsMagick++.so.12:_ZN6Magick5Image15quantumOperatorEiijjN9MagickLib11ChannelTypeENS1_15QuantumOperatorEt
libGraphicsMagick++.so.12:_ZN6Magick5Image15randomThresholdERKNS_8GeometryE
libGraphicsMagick++.so.12:_ZN6Magick5Image15renderingIntentEN9MagickLib15RenderingIntentE
libGraphicsMagick++.so.12:_ZN6Magick5Image15resolutionUnitsEN9MagickLib14ResolutionTypeE
libGraphicsMagick++.so.12:_ZN6Magick5Image15strokeAntiAliasEb
libGraphicsMagick++.so.12:_ZN6Magick5Image15strokeDashArrayEPKd
libGraphicsMagick++.so.12:_ZN6Magick5Image15transformOriginEdd
libGraphicsMagick++.so.12:_ZN6Magick5Image16chromaRedPrimaryEdd
libGraphicsMagick++.so.12:_ZN6Magick5Image16chromaWhitePointEdd
libGraphicsMagick++.so.12:_ZN6Magick5Image16floodFillOpacityEjjjN9MagickLib11PaintMethodE
libGraphicsMagick++.so.12:_ZN6Magick5Image16floodFillTextureERKNS_8GeometryERKS0_
libGraphicsMagick++.so.12:_ZN6Magick5Image16floodFillTextureERKNS_8GeometryERKS0_RKNS_5ColorE
libGraphicsMagick++.so.12:_ZN6Magick5Image16floodFillTextureEjjRKS0_
libGraphicsMagick++.so.12:_ZN6Magick5Image16floodFillTextureEjjRKS0_RKNS_5ColorE
libGraphicsMagick++.so.12:_ZN6Magick5Image16formatExpressionENSt7__cxx1112basic_stringIcSt11char_traitsIcESaIcEEE
libGraphicsMagick++.so.12:_ZN6Magick5Image16gifDisposeMethodEj
libGraphicsMagick++.so.12:_ZN6Magick5Image16strokeDashOffsetEd
libGraphicsMagick++.so.12:_ZN6Magick5Image16strokeMiterLimitEj
libGraphicsMagick++.so.12:_ZN6Magick5Image17adaptiveThresholdEjjd
libGraphicsMagick++.so.12:_ZN6Magick5Image17adaptiveThresholdEjjj
libGraphicsMagick++.so.12:_ZN6Magick5Image17backgroundTextureERKNSt7__cxx1112basic_stringIcSt11char_traitsIcESaIcEEE
libGraphicsMagick++.so.12:_ZN6Magick5Image17chromaBluePrimaryEdd
libGraphicsMagick++.so.12:_ZN6Magick5Image17quantizeTreeDepthEj
libGraphicsMagick++.so.12:_ZN6Magick5Image17transformRotationEd
libGraphicsMagick++.so.12:_ZN6Magick5Image18chromaGreenPrimaryEdd
libGraphicsMagick++.so.12:_ZN6Magick5Image18quantizeColorSpaceEN9MagickLib14ColorspaceTypeE
libGraphicsMagick++.so.12:_ZN6Magick5Image18unsharpmaskChannelEN9MagickLib11ChannelTypeEdddd
libGraphicsMagick++.so.12:_ZN6Magick5Image19animationIterationsEj
libGraphicsMagick++.so.12:_ZN6Magick5Image19gaussianBlurChannelEN9MagickLib11ChannelTypeEdd
libGraphicsMagick++.so.12:_ZN6Magick5Image22randomThresholdChannelERKNS_8GeometryEN9MagickLib11ChannelTypeE
libGraphicsMagick++.so.12:_ZN6Magick5Image3cdlERKNSt7__cxx1112basic_stringIcSt11char_traitsIcESaIcEEE
libGraphicsMagick++.so.12:_ZN6Magick5Image3mapERKS0_b
libGraphicsMagick++.so.12:_ZN6Magick5Image4blurEdd
libGraphicsMagick++.so.12:_ZN6Magick5Image4chopERKNS_8GeometryE
libGraphicsMagick++.so.12:_ZN6Magick5Image4cropERKNS_8GeometryE
libGraphicsMagick++.so.12:_ZN6Magick5Image4drawERKNS_8DrawableE
libGraphicsMagick++.so.12:_ZN6Magick5Image4drawERKNSt7__cxx114listINS_8DrawableESaIS3_EEE
libGraphicsMagick++.so.12:_ZN6Magick5Image4edgeEd
libGraphicsMagick++.so.12:_ZN6Magick5Image4flipEv
libGraphicsMagick++.so.12:_ZN6Magick5Image4flopEv
libGraphicsMagick++.so.12:_ZN6Magick5Image4fontERKNSt7__cxx1112basic_stringIcSt11char_traitsIcESaIcEEE
libGraphicsMagick++.so.12:_ZN6Magick5Image4pageERKNS_8GeometryE
libGraphicsMagick++.so.12:_ZN6Magick5Image4pingERKNS_4BlobE
libGraphicsMagick++.so.12:_ZN6Magick5Image4pingERKNSt7__cxx1112basic_stringIcSt11char_traitsIcESaIcEEE
libGraphicsMagick++.so.12:_ZN6Magick5Image4readERKNS_4BlobE
libGraphicsMagick++.so.12:_ZN6Magick5Image4readERKNS_4BlobERKNS_8GeometryE
libGraphicsMagick++.so.12:_ZN6Magick5Image4readERKNS_4BlobERKNS_8GeometryERKNSt7__cxx1112basic_stringIcSt11char_traitsIcESaIcEEE
libGraphicsMagick++.so.12:_ZN6Magick5Image4readERKNS_4BlobERKNS_8GeometryEj
libGraphicsMagick++.so.12:_ZN6Magick5Image4readERKNS_4BlobERKNS_8GeometryEjRKNSt7__cxx1112basic_stringIcSt11char_traitsIcESaIcEEE
libGraphicsMagick++.so.12:_ZN6Magick5Image4readERKNS_8GeometryERKNSt7__cxx1112basic_stringIcSt11char_traitsIcESaIcEEE
libGraphicsMagick++.so.12:_ZN6Magick5Image4readERKNSt7__cxx1112basic_stringIcSt11char_traitsIcESaIcEEE
libGraphicsMagick++.so.12:_ZN6Magick5Image4readEjjRKNSt7__cxx1112basic_stringIcSt11char_traitsIcESaIcEEEN9MagickLib11StorageTypeEPKv
libGraphicsMagick++.so.12:_ZN6Magick5Image4rollERKNS_8GeometryE
libGraphicsMagick++.so.12:_ZN6Magick5Image4rollEjj
libGraphicsMagick++.so.12:_ZN6Magick5Image4sizeERKNS_8GeometryE
libGraphicsMagick++.so.12:_ZN6Magick5Image4trimEv
libGraphicsMagick++.so.12:_ZN6Magick5Image4typeEN9MagickLib9ImageTypeE
libGraphicsMagick++.so.12:_ZN6Magick5Image4viewERKNSt7__cxx1112basic_stringIcSt11char_traitsIcESaIcEEE
libGraphicsMagick++.so.12:_ZN6Magick5Image4waveEdd
libGraphicsMagick++.so.12:_ZN6Magick5Image4zoomERKNS_8GeometryE
libGraphicsMagick++.so.12:_ZN6Magick5Image5debugEb
libGraphicsMagick++.so.12:_ZN6Magick5Image5depthEj
libGraphicsMagick++.so.12:_ZN6Magick5Image5eraseEv
libGraphicsMagick++.so.12:_ZN6Magick5Image5frameERKNS_8GeometryE
libGraphicsMagick++.so.12:_ZN6Magick5Image5frameEjjii
libGraphicsMagick++.so.12:_ZN6Magick5Image5gammaEd
libGraphicsMagick++.so.12:_ZN6Magick5Image5gammaEddd
libGraphicsMagick++.so.12:_ZN6Magick5Image5imageEv
libGraphicsMagick++.so.12:_ZN6Magick5Image5labelERKNSt7__cxx1112basic_stringIcSt11char_traitsIcESaIcEEE
libGraphicsMagick++.so.12:_ZN6Magick5Image5levelEddd
libGraphicsMagick++.so.12:_ZN6Magick5Image5matteEb
libGraphicsMagick++.so.12:_ZN6Magick5Image5quietEb
libGraphicsMagick++.so.12:_ZN6Magick5Image5raiseERKNS_8GeometryEb
libGraphicsMagick++.so.12:_ZN6Magick5Image5scaleERKNS_8GeometryE
libGraphicsMagick++.so.12:_ZN6Magick5Image5sceneEj
libGraphicsMagick++.so.12:_ZN6Magick5Image5shadeEddb
libGraphicsMagick++.so.12:_ZN6Magick5Image5shaveERKNS_8GeometryE
libGraphicsMagick++.so.12:_ZN6Magick5Image5shearEdd
libGraphicsMagick++.so.12:_ZN6Magick5Image5stripEv
libGraphicsMagick++.so.12:_ZN6Magick5Image5swirlEd
libGraphicsMagick++.so.12:_ZN6Magick5Image5writeEPNS_4BlobE
libGraphicsMagick++.so.12:_ZN6Magick5Image5writeEPNS_4BlobERKNSt7__cxx1112basic_stringIcSt11char_traitsIcESaIcEEE
libGraphicsMagick++.so.12:_ZN6Magick5Image5writeEPNS_4BlobERKNSt7__cxx1112basic_stringIcSt11char_traitsIcESaIcEEEj
libGraphicsMagick++.so.12:_ZN6Magick5Image5writeERKNSt7__cxx1112basic_stringIcSt11char_traitsIcESaIcEEE
libGraphicsMagick++.so.12:_ZN6Magick5Image5writeEiijjRKNSt7__cxx1112basic_stringIcSt11char_traitsIcESaIcEEEN9MagickLib11StorageTypeEPv
libGraphicsMagick++.so.12:_ZN6Magick5Image6adjoinEb
libGraphicsMagick++.so.12:_ZN6Magick5Image6borderERKNS_8GeometryE
libGraphicsMagick++.so.12:_ZN6Magick5Image6embossEdd
libGraphicsMagick++.so.12:_ZN6Magick5Image6endianEN9MagickLib10EndianTypeE
libGraphicsMagick++.so.12:_ZN6Magick5Image6extentERKNS_8GeometryE
libGraphicsMagick++.so.12:_ZN6Magick5Image6extentERKNS_8GeometryERKN9MagickLib11GravityTypeE
libGraphicsMagick++.so.12:_ZN6Magick5Image6extentERKNS_8GeometryERKNS_5ColorE
libGraphicsMagick++.so.12:_ZN6Magick5Image6extentERKNS_8GeometryERKNS_5ColorERKN9MagickLib11GravityTypeE
libGraphicsMagick++.so.12:_ZN6Magick5Image6magickERKNSt7__cxx1112basic_stringIcSt11char_traitsIcESaIcEEE
libGraphicsMagick++.so.12:_ZN6Magick5Image6minifyEv
libGraphicsMagick++.so.12:_ZN6Magick5Image6negateEb
libGraphicsMagick++.so.12:_ZN6Magick5Image6opaqueERKNS_5ColorES3_
libGraphicsMagick++.so.12:_ZN6Magick5Image6repageEv
libGraphicsMagick++.so.12:_ZN6Magick5Image6resizeERKNS_8GeometryE
libGraphicsMagick++.so.12:_ZN6Magick5Image6resizeERKNS_8GeometryEN9MagickLib11FilterTypesE
libGraphicsMagick++.so.12:_ZN6Magick5Image6resizeERKNS_8GeometryEN9MagickLib11FilterTypesEd
libGraphicsMagick++.so.12:_ZN6Magick5Image6rotateEd
libGraphicsMagick++.so.12:_ZN6Magick5Image6sampleERKNS_8GeometryE
libGraphicsMagick++.so.12:_ZN6Magick5Image6spreadEj
libGraphicsMagick++.so.12:_ZN6Magick5Image6stereoERKS0_
libGraphicsMagick++.so.12:_ZN6Magick5Image7channelEN9MagickLib11ChannelTypeE
libGraphicsMagick++.so.12:_ZN6Magick5Image7commentERKNSt7__cxx1112basic_stringIcSt11char_traitsIcESaIcEEE
libGraphicsMagick++.so.12:_ZN6Magick5Image7compareERKS0_
libGraphicsMagick++.so.12:_ZN6Magick5Image7composeEN9MagickLib17CompositeOperatorE
libGraphicsMagick++.so.12:_ZN6Magick5Image7densityERKNS_8GeometryE
libGraphicsMagick++.so.12:_ZN6Magick5Image7displayEv
libGraphicsMagick++.so.12:_ZN6Magick5Image7enhanceEv
libGraphicsMagick++.so.12:_ZN6Magick5Image7implodeEd
libGraphicsMagick++.so.12:_ZN6Magick5Image7isValidEb
libGraphicsMagick++.so.12:_ZN6Magick5Image7magnifyEv
libGraphicsMagick++.so.12:_ZN6Magick5Image7opacityEj
libGraphicsMagick++.so.12:_ZN6Magick5Image7optionsEv
libGraphicsMagick++.so.12:_ZN6Magick5Image7processENSt7__cxx1112basic_stringIcSt11char_traitsIcESaIcEEEiPPc
libGraphicsMagick++.so.12:_ZN6Magick5Image7profileENSt7__cxx1112basic_stringIcSt11char_traitsIcESaIcEEERKNS_4BlobE
libGraphicsMagick++.so.12:_ZN6Magick5Image7qualityEj
libGraphicsMagick++.so.12:_ZN6Magick5Image7segmentEdd
libGraphicsMagick++.so.12:_ZN6Magick5Image7sharpenEdd
libGraphicsMagick++.so.12:_ZN6Magick5Image7steganoERKS0_
libGraphicsMagick++.so.12:_ZN6Magick5Image7textureERKS0_
libGraphicsMagick++.so.12:_ZN6Magick5Image7verboseEb
libGraphicsMagick++.so.12:_ZN6Magick5Image8addNoiseEN9MagickLib9NoiseTypeE
libGraphicsMagick++.so.12:_ZN6Magick5Image8annotateERKNSt7__cxx1112basic_stringIcSt11char_traitsIcESaIcEEEN9MagickLib11GravityTypeE
libGraphicsMagick++.so.12:_ZN6Magick5Image8annotateERKNSt7__cxx1112basic_stringIcSt11char_traitsIcESaIcEEERKNS_8GeometryE
libGraphicsMagick++.so.12:_ZN6Magick5Image8annotateERKNSt7__cxx1112basic_stringIcSt11char_traitsIcESaIcEEERKNS_8GeometryEN9MagickLib11GravityTypeE
libGraphicsMagick++.so.12:_ZN6Magick5Image8annotateERKNSt7__cxx1112basic_stringIcSt11char_traitsIcESaIcEEERKNS_8GeometryEN9MagickLib11GravityTypeEd
libGraphicsMagick++.so.12:_ZN6Magick5Image8boxColorERKNS_5ColorE
libGraphicsMagick++.so.12:_ZN6Magick5Image8charcoalEdd
libGraphicsMagick++.so.12:_ZN6Magick5Image8clipMaskERKS0_
libGraphicsMagick++.so.12:_ZN6Magick5Image8colorMapEjRKNS_5ColorE
libGraphicsMagick++.so.12:_ZN6Magick5Image8colorizeEjRKNS_5ColorE
libGraphicsMagick++.so.12:_ZN6Magick5Image8colorizeEjjjRKNS_5ColorE
libGraphicsMagick++.so.12:_ZN6Magick5Image8contrastEj
libGraphicsMagick++.so.12:_ZN6Magick5Image8convolveEjPKd
libGraphicsMagick++.so.12:_ZN6Magick5Image8equalizeEv
libGraphicsMagick++.so.12:_ZN6Magick5Image8fileNameERKNSt7__cxx1112basic_stringIcSt11char_traitsIcESaIcEEE
libGraphicsMagick++.so.12:_ZN6Magick5Image8fillRuleERKN9MagickLib8FillRuleE
libGraphicsMagick++.so.12:_ZN6Magick5Image8haldClutERKS0_
libGraphicsMagick++.so.12:_ZN6Magick5Image8modulateEddd
libGraphicsMagick++.so.12:_ZN6Magick5Image8oilPaintEd
libGraphicsMagick++.so.12:_ZN6Magick5Image8penColorERKNS_5ColorE
libGraphicsMagick++.so.12:_ZN6Magick5Image8quantizeEb
libGraphicsMagick++.so.12:_ZN6Magick5Image8solarizeEd
libGraphicsMagick++.so.12:_ZN6Magick5Image8subImageEj
libGraphicsMagick++.so.12:_ZN6Magick5Image8subRangeEj
libGraphicsMagick++.so.12:_ZN6Magick5Image8tileNameERKNSt7__cxx1112basic_stringIcSt11char_traitsIcESaIcEEE
libGraphicsMagick++.so.12:_ZN6Magick5Image9antiAliasEb
libGraphicsMagick++.so.12:_ZN6Magick5Image9antiAliasEv
libGraphicsMagick++.so.12:_ZN6Magick5Image9attributeENSt7__cxx1112basic_stringIcSt11char_traitsIcESaIcEEE
libGraphicsMagick++.so.12:_ZN6Magick5Image9attributeENSt7__cxx1112basic_stringIcSt11char_traitsIcESaIcEEEPKc
libGraphicsMagick++.so.12:_ZN6Magick5Image9attributeENSt7__cxx1112basic_stringIcSt11char_traitsIcESaIcEEES6_
libGraphicsMagick++.so.12:_ZN6Magick5Image9classTypeEN9MagickLib9ClassTypeE
libGraphicsMagick++.so.12:_ZN6Magick5Image9colorFuzzEd
libGraphicsMagick++.so.12:_ZN6Magick5Image9compositeERKS0_N9MagickLib11GravityTypeENS3_17CompositeOperatorE
libGraphicsMagick++.so.12:_ZN6Magick5Image9compositeERKS0_RKNS_8GeometryEN9MagickLib17CompositeOperatorE
libGraphicsMagick++.so.12:_ZN6Magick5Image9compositeERKS0_iiN9MagickLib17CompositeOperatorE
libGraphicsMagick++.so.12:_ZN6Magick5Image9defineSetERKNSt7__cxx1112basic_stringIcSt11char_traitsIcESaIcEEES8_b
libGraphicsMagick++.so.12:_ZN6Magick5Image9despeckleEv
libGraphicsMagick++.so.12:_ZN6Magick5Image9fillColorERKNS_5ColorE
libGraphicsMagick++.so.12:_ZN6Magick5Image9getPixelsEiijj
libGraphicsMagick++.so.12:_ZN6Magick5Image9imageInfoEv
libGraphicsMagick++.so.12:_ZN6Magick5Image9normalizeEv
libGraphicsMagick++.so.12:_ZN6Magick5Image9setPixelsEiijj
libGraphicsMagick++.so.12:_ZN6Magick5Image9thresholdEd
libGraphicsMagick++.so.12:_ZN6Magick5Image9thumbnailERKNS_8GeometryE
libGraphicsMagick++.so.12:_ZN6Magick5Image9transformERKNS_8GeometryE
libGraphicsMagick++.so.12:_ZN6Magick5Image9transformERKNS_8GeometryES3_
libGraphicsMagick++.so.12:_ZN6Magick5ImageC1EPN9MagickLib6_ImageE
libGraphicsMagick++.so.12:_ZN6Magick5ImageC1ERKNS_4BlobE
libGraphicsMagick++.so.12:_ZN6Magick5ImageC1ERKNS_4BlobERKNS_8GeometryE
libGraphicsMagick++.so.12:_ZN6Magick5ImageC1ERKNS_4BlobERKNS_8GeometryERKNSt7__cxx1112basic_stringIcSt11char_traitsIcESaIcEEE
libGraphicsMagick++.so.12:_ZN6Magick5ImageC1ERKNS_4BlobERKNS_8GeometryEj
libGraphicsMagick++.so.12:_ZN6Magick5ImageC1ERKNS_4BlobERKNS_8GeometryEjRKNSt7__cxx1112basic_stringIcSt11char_traitsIcESaIcEEE
libGraphicsMagick++.so.12:_ZN6Magick5ImageC1ERKNS_8GeometryERKNS_5ColorE
libGraphicsMagick++.so.12:_ZN6Magick5ImageC1ERKNSt7__cxx1112basic_stringIcSt11char_traitsIcESaIcEEE
libGraphicsMagick++.so.12:_ZN6Magick5ImageC1ERKS0_
libGraphicsMagick++.so.12:_ZN6Magick5ImageC1EjjRKNSt7__cxx1112basic_stringIcSt11char_traitsIcESaIcEEEN9MagickLib11StorageTypeEPKv
libGraphicsMagick++.so.12:_ZN6Magick5ImageC1Ev
libGraphicsMagick++.so.12:_ZN6Magick5ImageC2EPN9MagickLib6_ImageE
libGraphicsMagick++.so.12:_ZN6Magick5ImageC2ERKNS_4BlobE
libGraphicsMagick++.so.12:_ZN6Magick5ImageC2ERKNS_4BlobERKNS_8GeometryE
libGraphicsMagick++.so.12:_ZN6Magick5ImageC2ERKNS_4BlobERKNS_8GeometryERKNSt7__cxx1112basic_stringIcSt11char_traitsIcESaIcEEE
libGraphicsMagick++.so.12:_ZN6Magick5ImageC2ERKNS_4BlobERKNS_8GeometryEj
libGraphicsMagick++.so.12:_ZN6Magick5ImageC2ERKNS_4BlobERKNS_8GeometryEjRKNSt7__cxx1112basic_stringIcSt11char_traitsIcESaIcEEE
libGraphicsMagick++.so.12:_ZN6Magick5ImageC2ERKNS_8GeometryERKNS_5ColorE
libGraphicsMagick++.so.12:_ZN6Magick5ImageC2ERKNSt7__cxx1112basic_stringIcSt11char_traitsIcESaIcEEE
libGraphicsMagick++.so.12:_ZN6Magick5ImageC2ERKS0_
libGraphicsMagick++.so.12:_ZN6Magick5ImageC2EjjRKNSt7__cxx1112basic_stringIcSt11char_traitsIcESaIcEEEN9MagickLib11StorageTypeEPKv
libGraphicsMagick++.so.12:_ZN6Magick5ImageC2Ev
libGraphicsMagick++.so.12:_ZN6Magick5ImageD0Ev
libGraphicsMagick++.so.12:_ZN6Magick5ImageD1Ev
libGraphicsMagick++.so.12:_ZN6Magick5ImageD2Ev
libGraphicsMagick++.so.12:_ZN6Magick5ImageaSERKS0_
libGraphicsMagick++.so.12:_ZN6Magick5VPathC1ERKNS_9VPathBaseE
libGraphicsMagick++.so.12:_ZN6Magick5VPathC1ERKS0_
libGraphicsMagick++.so.12:_ZN6Magick5VPathC1Ev
libGraphicsMagick++.so.12:_ZN6Magick5VPathC2ERKNS_9VPathBaseE
libGraphicsMagick++.so.12:_ZN6Magick5VPathC2ERKS0_
libGraphicsMagick++.so.12:_ZN6Magick5VPathC2Ev
libGraphicsMagick++.so.12:_ZN6Magick5VPathD0Ev
libGraphicsMagick++.so.12:_ZN6Magick5VPathD1Ev
libGraphicsMagick++.so.12:_ZN6Magick5VPathD2Ev
libGraphicsMagick++.so.12:_ZN6Magick5VPathaSERKS0_
libGraphicsMagick++.so.12:_ZN6Magick6Pixels3getEiijj
libGraphicsMagick++.so.12:_ZN6Magick6Pixels3setEiijj
libGraphicsMagick++.so.12:_ZN6Magick6Pixels4syncEv
libGraphicsMagick++.so.12:_ZN6Magick6Pixels7indexesEv
libGraphicsMagick++.so.12:_ZN6Magick6Pixels8getConstEiijj
libGraphicsMagick++.so.12:_ZN6Magick6PixelsC1ERNS_5ImageE
libGraphicsMagick++.so.12:_ZN6Magick6PixelsC2ERNS_5ImageE
libGraphicsMagick++.so.12:_ZN6Magick6PixelsD1Ev
libGraphicsMagick++.so.12:_ZN6Magick6PixelsD2Ev
libGraphicsMagick++.so.12:_ZN6Magick7BlobRefC1EPKvm
libGraphicsMagick++.so.12:_ZN6Magick7BlobRefC2EPKvm
libGraphicsMagick++.so.12:_ZN6Magick7BlobRefD1Ev
libGraphicsMagick++.so.12:_ZN6Magick7BlobRefD2Ev
libGraphicsMagick++.so.12:_ZN6Magick7MontageC1Ev
libGraphicsMagick++.so.12:_ZN6Magick7MontageC2Ev
libGraphicsMagick++.so.12:_ZN6Magick7MontageD0Ev
libGraphicsMagick++.so.12:_ZN6Magick7MontageD1Ev
libGraphicsMagick++.so.12:_ZN6Magick7MontageD2Ev
libGraphicsMagick++.so.12:_ZN6Magick7Options10matteColorERKNS_5ColorE
libGraphicsMagick++.so.12:_ZN6Magick7Options10monochromeEb
libGraphicsMagick++.so.12:_ZN6Magick7Options10x11DisplayERKNSt7__cxx1112basic_stringIcSt11char_traitsIcESaIcEEE
libGraphicsMagick++.so.12:_ZN6Magick7Options11borderColorERKNS_5ColorE
libGraphicsMagick++.so.12:_ZN6Magick7Options11fillPatternEPKN9MagickLib6_ImageE
libGraphicsMagick++.so.12:_ZN6Magick7Options11strokeColorERKNS_5ColorE
libGraphicsMagick++.so.12:_ZN6Magick7Options11strokeWidthEd
libGraphicsMagick++.so.12:_ZN6Magick7Options12compressTypeEN9MagickLib15CompressionTypeE
libGraphicsMagick++.so.12:_ZN6Magick7Options12quantizeInfoEv
libGraphicsMagick++.so.12:_ZN6Magick7Options12textEncodingERKNSt7__cxx1112basic_stringIcSt11char_traitsIcESaIcEEE
libGraphicsMagick++.so.12:_ZN6Magick7Options13fontPointsizeEd
libGraphicsMagick++.so.12:_ZN6Magick7Options13interlaceTypeEN9MagickLib13InterlaceTypeE
libGraphicsMagick++.so.12:_ZN6Magick7Options13strokeLineCapEN9MagickLib7LineCapE
libGraphicsMagick++.so.12:_ZN6Magick7Options13strokePatternEPKN9MagickLib6_ImageE
libGraphicsMagick++.so.12:_ZN6Magick7Options14quantizeColorsEj
libGraphicsMagick++.so.12:_ZN6Magick7Options14quantizeDitherEb
libGraphicsMagick++.so.12:_ZN6Magick7Options14strokeLineJoinEN9MagickLib8LineJoinE
libGraphicsMagick++.so.12:_ZN6Magick7Options14transformResetEv
libGraphicsMagick++.so.12:_ZN6Magick7Options14transformScaleEdd
libGraphicsMagick++.so.12:_ZN6Magick7Options14transformSkewXEd
libGraphicsMagick++.so.12:_ZN6Magick7Options14transformSkewYEd
libGraphicsMagick++.so.12:_ZN6Magick7Options15backgroundColorERKNS_5ColorE
libGraphicsMagick++.so.12:_ZN6Magick7Options15resolutionUnitsEN9MagickLib14ResolutionTypeE
libGraphicsMagick++.so.12:_ZN6Magick7Options15strokeAntiAliasEb
libGraphicsMagick++.so.12:_ZN6Magick7Options15strokeDashArrayEPKd
libGraphicsMagick++.so.12:_ZN6Magick7Options15transformOriginEdd
libGraphicsMagick++.so.12:_ZN6Magick7Options16strokeDashOffsetEd
libGraphicsMagick++.so.12:_ZN6Magick7Options16strokeMiterLimitEj
libGraphicsMagick++.so.12:_ZN6Magick7Options17backgroundTextureERKNSt7__cxx1112basic_stringIcSt11char_traitsIcESaIcEEE
libGraphicsMagick++.so.12:_ZN6Magick7Options17quantizeTreeDepthEj
libGraphicsMagick++.so.12:_ZN6Magick7Options17transformRotationEd
libGraphicsMagick++.so.12:_ZN6Magick7Options18quantizeColorSpaceEN9MagickLib14ColorspaceTypeE
libGraphicsMagick++.so.12:_ZN6Magick7Options4fontERKNSt7__cxx1112basic_stringIcSt11char_traitsIcESaIcEEE
libGraphicsMagick++.so.12:_ZN6Magick7Options4pageERKNS_8GeometryE
libGraphicsMagick++.so.12:_ZN6Magick7Options4sizeERKNS_8GeometryE
libGraphicsMagick++.so.12:_ZN6Magick7Options4typeEN9MagickLib9ImageTypeE
libGraphicsMagick++.so.12:_ZN6Magick7Options4viewERKNSt7__cxx1112basic_stringIcSt11char_traitsIcESaIcEEE
libGraphicsMagick++.so.12:_ZN6Magick7Options5debugEb
libGraphicsMagick++.so.12:_ZN6Magick7Options5depthEj
libGraphicsMagick++.so.12:_ZN6Magick7Options5quietEb
libGraphicsMagick++.so.12:_ZN6Magick7Options6adjoinEb
libGraphicsMagick++.so.12:_ZN6Magick7Options6endianEN9MagickLib10EndianTypeE
libGraphicsMagick++.so.12:_ZN6Magick7Options6magickERKNSt7__cxx1112basic_stringIcSt11char_traitsIcESaIcEEE
libGraphicsMagick++.so.12:_ZN6Magick7Options7densityERKNS_8GeometryE
libGraphicsMagick++.so.12:_ZN6Magick7Options7qualityEj
libGraphicsMagick++.so.12:_ZN6Magick7Options7verboseEb
libGraphicsMagick++.so.12:_ZN6Magick7Options8boxColorERKNS_5ColorE
libGraphicsMagick++.so.12:_ZN6Magick7Options8drawInfoEv
libGraphicsMagick++.so.12:_ZN6Magick7Options8fileNameERKNSt7__cxx1112basic_stringIcSt11char_traitsIcESaIcEEE
libGraphicsMagick++.so.12:_ZN6Magick7Options8fillRuleERKN9MagickLib8FillRuleE
libGraphicsMagick++.so.12:_ZN6Magick7Options8subImageEj
libGraphicsMagick++.so.12:_ZN6Magick7Options8subRangeEj
libGraphicsMagick++.so.12:_ZN6Magick7Options8tileNameERKNSt7__cxx1112basic_stringIcSt11char_traitsIcESaIcEEE
libGraphicsMagick++.so.12:_ZN6Magick7Options9antiAliasEb
libGraphicsMagick++.so.12:_ZN6Magick7Options9colorFuzzEd
libGraphicsMagick++.so.12:_ZN6Magick7Options9fillColorERKNS_5ColorE
libGraphicsMagick++.so.12:_ZN6Magick7Options9imageInfoEv
libGraphicsMagick++.so.12:_ZN6Magick7OptionsC1EPKN9MagickLib10_ImageInfoEPKNS1_13_QuantizeInfoEPKNS1_9_DrawInfoE
libGraphicsMagick++.so.12:_ZN6Magick7OptionsC1ERKS0_
libGraphicsMagick++.so.12:_ZN6Magick7OptionsC1Ev
libGraphicsMagick++.so.12:_ZN6Magick7OptionsC2EPKN9MagickLib10_ImageInfoEPKNS1_13_QuantizeInfoEPKNS1_9_DrawInfoE
libGraphicsMagick++.so.12:_ZN6Magick7OptionsC2ERKS0_
libGraphicsMagick++.so.12:_ZN6Magick7OptionsC2Ev
libGraphicsMagick++.so.12:_ZN6Magick7OptionsD1Ev
libGraphicsMagick++.so.12:_ZN6Magick7OptionsD2Ev
libGraphicsMagick++.so.12:_ZN6Magick7WarningC1ERKNSt7__cxx1112basic_stringIcSt11char_traitsIcESaIcEEE
libGraphicsMagick++.so.12:_ZN6Magick7WarningC2ERKNSt7__cxx1112basic_stringIcSt11char_traitsIcESaIcEEE
libGraphicsMagick++.so.12:_ZN6Magick7WarningD0Ev
libGraphicsMagick++.so.12:_ZN6Magick7WarningD1Ev
libGraphicsMagick++.so.12:_ZN6Magick7WarningD2Ev
libGraphicsMagick++.so.12:_ZN6Magick8ColorHSL10luminosityEd
libGraphicsMagick++.so.12:_ZN6Magick8ColorHSL10saturationEd
libGraphicsMagick++.so.12:_ZN6Magick8ColorHSL3hueEd
libGraphicsMagick++.so.12:_ZN6Magick8ColorHSLC1ERKNS_5ColorE
libGraphicsMagick++.so.12:_ZN6Magick8ColorHSLC1Eddd
libGraphicsMagick++.so.12:_ZN6Magick8ColorHSLC1Ev
libGraphicsMagick++.so.12:_ZN6Magick8ColorHSLC2ERKNS_5ColorE
libGraphicsMagick++.so.12:_ZN6Magick8ColorHSLC2Eddd
libGraphicsMagick++.so.12:_ZN6Magick8ColorHSLC2Ev
libGraphicsMagick++.so.12:_ZN6Magick8ColorHSLD0Ev
libGraphicsMagick++.so.12:_ZN6Magick8ColorHSLD1Ev
libGraphicsMagick++.so.12:_ZN6Magick8ColorHSLD2Ev
libGraphicsMagick++.so.12:_ZN6Magick8ColorHSLaSERKNS_5ColorE
libGraphicsMagick++.so.12:_ZN6Magick8ColorRGBC1ERKNS_5ColorE
libGraphicsMagick++.so.12:_ZN6Magick8ColorRGBC1Eddd
libGraphicsMagick++.so.12:_ZN6Magick8ColorRGBC1Ev
libGraphicsMagick++.so.12:_ZN6Magick8ColorRGBC2ERKNS_5ColorE
libGraphicsMagick++.so.12:_ZN6Magick8ColorRGBC2Eddd
libGraphicsMagick++.so.12:_ZN6Magick8ColorRGBC2Ev
libGraphicsMagick++.so.12:_ZN6Magick8ColorRGBD0Ev
libGraphicsMagick++.so.12:_ZN6Magick8ColorRGBD1Ev
libGraphicsMagick++.so.12:_ZN6Magick8ColorRGBD2Ev
libGraphicsMagick++.so.12:_ZN6Magick8ColorRGBaSERKNS_5ColorE
libGraphicsMagick++.so.12:_ZN6Magick8ColorYUV1uEd
libGraphicsMagick++.so.12:_ZN6Magick8ColorYUV1vEd
libGraphicsMagick++.so.12:_ZN6Magick8ColorYUV1yEd
libGraphicsMagick++.so.12:_ZN6Magick8ColorYUVC1ERKNS_5ColorE
libGraphicsMagick++.so.12:_ZN6Magick8ColorYUVC1Eddd
libGraphicsMagick++.so.12:_ZN6Magick8ColorYUVC1Ev
libGraphicsMagick++.so.12:_ZN6Magick8ColorYUVC2ERKNS_5ColorE
libGraphicsMagick++.so.12:_ZN6Magick8ColorYUVC2Eddd
libGraphicsMagick++.so.12:_ZN6Magick8ColorYUVC2Ev
libGraphicsMagick++.so.12:_ZN6Magick8ColorYUVD0Ev
libGraphicsMagick++.so.12:_ZN6Magick8ColorYUVD1Ev
libGraphicsMagick++.so.12:_ZN6Magick8ColorYUVD2Ev
libGraphicsMagick++.so.12:_ZN6Magick8ColorYUVaSERKNS_5ColorE
libGraphicsMagick++.so.12:_ZN6Magick8DrawableC1ERKNS_12DrawableBaseE
libGraphicsMagick++.so.12:_ZN6Magick8DrawableC1ERKS0_
libGraphicsMagick++.so.12:_ZN6Magick8DrawableC1Ev
libGraphicsMagick++.so.12:_ZN6Magick8DrawableC2ERKNS_12DrawableBaseE
libGraphicsMagick++.so.12:_ZN6Magick8DrawableC2ERKS0_
libGraphicsMagick++.so.12:_ZN6Magick8DrawableC2Ev
libGraphicsMagick++.so.12:_ZN6Magick8DrawableD1Ev
libGraphicsMagick++.so.12:_ZN6Magick8DrawableD2Ev
libGraphicsMagick++.so.12:_ZN6Magick8DrawableaSERKS0_
libGraphicsMagick++.so.12:_ZN6Magick8Geometry11limitPixelsEb
libGraphicsMagick++.so.12:_ZN6Magick8Geometry4lessEb
libGraphicsMagick++.so.12:_ZN6Magick8Geometry4xOffEj
libGraphicsMagick++.so.12:_ZN6Magick8Geometry4yOffEj
libGraphicsMagick++.so.12:_ZN6Magick8Geometry5widthEj
libGraphicsMagick++.so.12:_ZN6Magick8Geometry6aspectEb
libGraphicsMagick++.so.12:_ZN6Magick8Geometry6heightEj
libGraphicsMagick++.so.12:_ZN6Magick8Geometry7greaterEb
libGraphicsMagick++.so.12:_ZN6Magick8Geometry7isValidEb
libGraphicsMagick++.so.12:_ZN6Magick8Geometry7percentEb
libGraphicsMagick++.so.12:_ZN6Magick8Geometry8fillAreaEb
libGraphicsMagick++.so.12:_ZN6Magick8Geometry9xNegativeEb
libGraphicsMagick++.so.12:_ZN6Magick8Geometry9yNegativeEb
libGraphicsMagick++.so.12:_ZN6Magick8GeometryC1EPKc
libGraphicsMagick++.so.12:_ZN6Magick8GeometryC1ERKN9MagickLib14_RectangleInfoE
libGraphicsMagick++.so.12:_ZN6Magick8GeometryC1ERKNSt7__cxx1112basic_stringIcSt11char_traitsIcESaIcEEE
libGraphicsMagick++.so.12:_ZN6Magick8GeometryC1ERKS0_
libGraphicsMagick++.so.12:_ZN6Magick8GeometryC1Ejjjjbb
libGraphicsMagick++.so.12:_ZN6Magick8GeometryC1Ev
libGraphicsMagick++.so.12:_ZN6Magick8GeometryC2EPKc
libGraphicsMagick++.so.12:_ZN6Magick8GeometryC2ERKN9MagickLib14_RectangleInfoE
libGraphicsMagick++.so.12:_ZN6Magick8GeometryC2ERKNSt7__cxx1112basic_stringIcSt11char_traitsIcESaIcEEE
libGraphicsMagick++.so.12:_ZN6Magick8GeometryC2ERKS0_
libGraphicsMagick++.so.12:_ZN6Magick8GeometryC2Ejjjjbb
libGraphicsMagick++.so.12:_ZN6Magick8GeometryC2Ev
libGraphicsMagick++.so.12:_ZN6Magick8GeometryD1Ev
libGraphicsMagick++.so.12:_ZN6Magick8GeometryD2Ev
libGraphicsMagick++.so.12:_ZN6Magick8GeometryaSEPKc
libGraphicsMagick++.so.12:_ZN6Magick8GeometryaSERKNSt7__cxx1112basic_stringIcSt11char_traitsIcESaIcEEE
libGraphicsMagick++.so.12:_ZN6Magick8GeometryaSERKS0_
libGraphicsMagick++.so.12:_ZN6Magick8ImageRef2idEl
libGraphicsMagick++.so.12:_ZN6Magick8ImageRef5imageEPN9MagickLib6_ImageE
libGraphicsMagick++.so.12:_ZN6Magick8ImageRef7optionsEPNS_7OptionsE
libGraphicsMagick++.so.12:_ZN6Magick8ImageRefC1EPN9MagickLib6_ImageE
libGraphicsMagick++.so.12:_ZN6Magick8ImageRefC1EPN9MagickLib6_ImageEPKNS_7OptionsE
libGraphicsMagick++.so.12:_ZN6Magick8ImageRefC1Ev
libGraphicsMagick++.so.12:_ZN6Magick8ImageRefC2EPN9MagickLib6_ImageE
libGraphicsMagick++.so.12:_ZN6Magick8ImageRefC2EPN9MagickLib6_ImageEPKNS_7OptionsE
libGraphicsMagick++.so.12:_ZN6Magick8ImageRefC2Ev
libGraphicsMagick++.so.12:_ZN6Magick8ImageRefD1Ev
libGraphicsMagick++.so.12:_ZN6Magick8ImageRefD2Ev
libGraphicsMagick++.so.12:_ZN6Magick8cdlImageC1ERKNSt7__cxx1112basic_stringIcSt11char_traitsIcESaIcEEE
libGraphicsMagick++.so.12:_ZN6Magick8cdlImageC2ERKNSt7__cxx1112basic_stringIcSt11char_traitsIcESaIcEEE
libGraphicsMagick++.so.12:_ZN6Magick8mapImageC1ERKNS_5ImageEb
libGraphicsMagick++.so.12:_ZN6Magick8mapImageC2ERKNS_5ImageEb
libGraphicsMagick++.so.12:_ZN6Magick9CoderInfoC1EPKN9MagickLib11_MagickInfoE
libGraphicsMagick++.so.12:_ZN6Magick9CoderInfoC1ERKNSt7__cxx1112basic_stringIcSt11char_traitsIcESaIcEEE
libGraphicsMagick++.so.12:_ZN6Magick9CoderInfoC1ERKS0_
libGraphicsMagick++.so.12:_ZN6Magick9CoderInfoC1Ev
libGraphicsMagick++.so.12:_ZN6Magick9CoderInfoC2EPKN9MagickLib11_MagickInfoE
libGraphicsMagick++.so.12:_ZN6Magick9CoderInfoC2ERKNSt7__cxx1112basic_stringIcSt11char_traitsIcESaIcEEE
libGraphicsMagick++.so.12:_ZN6Magick9CoderInfoC2ERKS0_
libGraphicsMagick++.so.12:_ZN6Magick9CoderInfoC2Ev
libGraphicsMagick++.so.12:_ZN6Magick9CoderInfoD1Ev
libGraphicsMagick++.so.12:_ZN6Magick9CoderInfoD2Ev
libGraphicsMagick++.so.12:_ZN6Magick9CoderInfoaSERKS0_
libGraphicsMagick++.so.12:_ZN6Magick9ColorGray5shadeEd
libGraphicsMagick++.so.12:_ZN6Magick9ColorGrayC1ERKNS_5ColorE
libGraphicsMagick++.so.12:_ZN6Magick9ColorGrayC1Ed
libGraphicsMagick++.so.12:_ZN6Magick9ColorGrayC1Ev
libGraphicsMagick++.so.12:_ZN6Magick9ColorGrayC2ERKNS_5ColorE
libGraphicsMagick++.so.12:_ZN6Magick9ColorGrayC2Ed
libGraphicsMagick++.so.12:_ZN6Magick9ColorGrayC2Ev
libGraphicsMagick++.so.12:_ZN6Magick9ColorGrayD0Ev
libGraphicsMagick++.so.12:_ZN6Magick9ColorGrayD1Ev
libGraphicsMagick++.so.12:_ZN6Magick9ColorGrayD2Ev
libGraphicsMagick++.so.12:_ZN6Magick9ColorGrayaSERKNS_5ColorE
libGraphicsMagick++.so.12:_ZN6Magick9ColorMono4monoEb
libGraphicsMagick++.so.12:_ZN6Magick9ColorMonoC1ERKNS_5ColorE
libGraphicsMagick++.so.12:_ZN6Magick9ColorMonoC1Eb
libGraphicsMagick++.so.12:_ZN6Magick9ColorMonoC1Ev
libGraphicsMagick++.so.12:_ZN6Magick9ColorMonoC2ERKNS_5ColorE
libGraphicsMagick++.so.12:_ZN6Magick9ColorMonoC2Eb
libGraphicsMagick++.so.12:_ZN6Magick9ColorMonoC2Ev
libGraphicsMagick++.so.12:_ZN6Magick9ColorMonoD0Ev
libGraphicsMagick++.so.12:_ZN6Magick9ColorMonoD1Ev
libGraphicsMagick++.so.12:_ZN6Magick9ColorMonoD2Ev
libGraphicsMagick++.so.12:_ZN6Magick9ColorMonoaSERKNS_5ColorE
libGraphicsMagick++.so.12:_ZN6Magick9ErrorBlobC1ERKNSt7__cxx1112basic_stringIcSt11char_traitsIcESaIcEEE
libGraphicsMagick++.so.12:_ZN6Magick9ErrorBlobC2ERKNSt7__cxx1112basic_stringIcSt11char_traitsIcESaIcEEE
libGraphicsMagick++.so.12:_ZN6Magick9ErrorBlobD0Ev
libGraphicsMagick++.so.12:_ZN6Magick9ErrorBlobD1Ev
libGraphicsMagick++.so.12:_ZN6Magick9ErrorBlobD2Ev
libGraphicsMagick++.so.12:_ZN6Magick9ErrorDrawC1ERKNSt7__cxx1112basic_stringIcSt11char_traitsIcESaIcEEE
libGraphicsMagick++.so.12:_ZN6Magick9ErrorDrawC2ERKNSt7__cxx1112basic_stringIcSt11char_traitsIcESaIcEEE
libGraphicsMagick++.so.12:_ZN6Magick9ErrorDrawD0Ev
libGraphicsMagick++.so.12:_ZN6Magick9ErrorDrawD1Ev
libGraphicsMagick++.so.12:_ZN6Magick9ErrorDrawD2Ev
libGraphicsMagick++.so.12:_ZN6Magick9ErrorTypeC1ERKNSt7__cxx1112basic_stringIcSt11char_traitsIcESaIcEEE
libGraphicsMagick++.so.12:_ZN6Magick9ErrorTypeC2ERKNSt7__cxx1112basic_stringIcSt11char_traitsIcESaIcEEE
libGraphicsMagick++.so.12:_ZN6Magick9ErrorTypeD0Ev
libGraphicsMagick++.so.12:_ZN6Magick9ErrorTypeD1Ev
libGraphicsMagick++.so.12:_ZN6Magick9ErrorTypeD2Ev
libGraphicsMagick++.so.12:_ZN6Magick9ExceptionC1ERKNSt7__cxx1112basic_stringIcSt11char_traitsIcESaIcEEE
libGraphicsMagick++.so.12:_ZN6Magick9ExceptionC1ERKS0_
libGraphicsMagick++.so.12:_ZN6Magick9ExceptionC2ERKNSt7__cxx1112basic_stringIcSt11char_traitsIcESaIcEEE
libGraphicsMagick++.so.12:_ZN6Magick9ExceptionC2ERKS0_
libGraphicsMagick++.so.12:_ZN6Magick9ExceptionD0Ev
libGraphicsMagick++.so.12:_ZN6Magick9ExceptionD1Ev
libGraphicsMagick++.so.12:_ZN6Magick9ExceptionD2Ev
libGraphicsMagick++.so.12:_ZN6Magick9ExceptionaSERKS0_
libGraphicsMagick++.so.12:_ZN6Magick9MutexLock4lockEv
libGraphicsMagick++.so.12:_ZN6Magick9MutexLock6unlockEv
libGraphicsMagick++.so.12:_ZN6Magick9MutexLockC1Ev
libGraphicsMagick++.so.12:_ZN6Magick9MutexLockC2Ev
libGraphicsMagick++.so.12:_ZN6Magick9MutexLockD1Ev
libGraphicsMagick++.so.12:_ZN6Magick9MutexLockD2Ev
libGraphicsMagick++.so.12:_ZN6Magick9VPathBaseD0Ev
libGraphicsMagick++.so.12:_ZN6Magick9VPathBaseD1Ev
libGraphicsMagick++.so.12:_ZN6Magick9VPathBaseD2Ev
libGraphicsMagick++.so.12:_ZN6Magick9blurImageC1Edd
libGraphicsMagick++.so.12:_ZN6Magick9blurImageC2Edd
libGraphicsMagick++.so.12:_ZN6Magick9chopImageC1ERKNS_8GeometryE
libGraphicsMagick++.so.12:_ZN6Magick9chopImageC2ERKNS_8GeometryE
libGraphicsMagick++.so.12:_ZN6Magick9cropImageC1ERKNS_8GeometryE
libGraphicsMagick++.so.12:_ZN6Magick9cropImageC2ERKNS_8GeometryE
libGraphicsMagick++.so.12:_ZN6Magick9drawImageC1ERKNS_8DrawableE
libGraphicsMagick++.so.12:_ZN6Magick9drawImageC1ERKNSt7__cxx114listINS_8DrawableESaIS3_EEE
libGraphicsMagick++.so.12:_ZN6Magick9drawImageC2ERKNS_8DrawableE
libGraphicsMagick++.so.12:_ZN6Magick9drawImageC2ERKNSt7__cxx114listINS_8DrawableESaIS3_EEE
libGraphicsMagick++.so.12:_ZN6Magick9edgeImageC1Ed
libGraphicsMagick++.so.12:_ZN6Magick9edgeImageC2Ed
libGraphicsMagick++.so.12:_ZN6Magick9flipImageC1Ev
libGraphicsMagick++.so.12:_ZN6Magick9flipImageC2Ev
libGraphicsMagick++.so.12:_ZN6Magick9flopImageC1Ev
libGraphicsMagick++.so.12:_ZN6Magick9flopImageC2Ev
libGraphicsMagick++.so.12:_ZN6Magick9fontImageC1ERKNSt7__cxx1112basic_stringIcSt11char_traitsIcESaIcEEE
libGraphicsMagick++.so.12:_ZN6Magick9fontImageC2ERKNSt7__cxx1112basic_stringIcSt11char_traitsIcESaIcEEE
libGraphicsMagick++.so.12:_ZN6Magick9pageImageC1ERKNS_8GeometryE
libGraphicsMagick++.so.12:_ZN6Magick9pageImageC2ERKNS_8GeometryE
libGraphicsMagick++.so.12:_ZN6Magick9rollImageC1ERKNS_8GeometryE
libGraphicsMagick++.so.12:_ZN6Magick9rollImageC1Eii
libGraphicsMagick++.so.12:_ZN6Magick9rollImageC2ERKNS_8GeometryE
libGraphicsMagick++.so.12:_ZN6Magick9rollImageC2Eii
libGraphicsMagick++.so.12:_ZN6Magick9sizeImageC1ERKNS_8GeometryE
libGraphicsMagick++.so.12:_ZN6Magick9sizeImageC2ERKNS_8GeometryE
libGraphicsMagick++.so.12:_ZN6Magick9trimImageC1Ev
libGraphicsMagick++.so.12:_ZN6Magick9trimImageC2Ev
libGraphicsMagick++.so.12:_ZN6Magick9typeImageC1EN9MagickLib9ImageTypeE
libGraphicsMagick++.so.12:_ZN6Magick9typeImageC2EN9MagickLib9ImageTypeE
libGraphicsMagick++.so.12:_ZN6Magick9viewImageC1ERKNSt7__cxx1112basic_stringIcSt11char_traitsIcESaIcEEE
libGraphicsMagick++.so.12:_ZN6Magick9viewImageC2ERKNSt7__cxx1112basic_stringIcSt11char_traitsIcESaIcEEE
libGraphicsMagick++.so.12:_ZN6Magick9waveImageC1Edd
libGraphicsMagick++.so.12:_ZN6Magick9waveImageC2Edd
libGraphicsMagick++.so.12:_ZN6Magick9zoomImageC1ERKNS_8GeometryE
libGraphicsMagick++.so.12:_ZN6Magick9zoomImageC2ERKNS_8GeometryE
libGraphicsMagick++.so.12:_ZN6MagickeqERKNS_10CoordinateES2_
libGraphicsMagick++.so.12:_ZN6MagickeqERKNS_11PathArcArgsES2_
libGraphicsMagick++.so.12:_ZN6MagickeqERKNS_15PathCurvetoArgsES2_
libGraphicsMagick++.so.12:_ZN6MagickeqERKNS_24PathQuadraticCurvetoArgsES2_
libGraphicsMagick++.so.12:_ZN6MagickeqERKNS_5ColorES2_
libGraphicsMagick++.so.12:_ZN6MagickeqERKNS_5ImageES2_
libGraphicsMagick++.so.12:_ZN6MagickeqERKNS_5VPathES2_
libGraphicsMagick++.so.12:_ZN6MagickeqERKNS_8DrawableES2_
libGraphicsMagick++.so.12:_ZN6MagickeqERKNS_8GeometryES2_
libGraphicsMagick++.so.12:_ZN6MagickgeERKNS_10CoordinateES2_
libGraphicsMagick++.so.12:_ZN6MagickgeERKNS_11PathArcArgsES2_
libGraphicsMagick++.so.12:_ZN6MagickgeERKNS_15PathCurvetoArgsES2_
libGraphicsMagick++.so.12:_ZN6MagickgeERKNS_24PathQuadraticCurvetoArgsES2_
libGraphicsMagick++.so.12:_ZN6MagickgeERKNS_5ColorES2_
libGraphicsMagick++.so.12:_ZN6MagickgeERKNS_5ImageES2_
libGraphicsMagick++.so.12:_ZN6MagickgeERKNS_5VPathES2_
libGraphicsMagick++.so.12:_ZN6MagickgeERKNS_8DrawableES2_
libGraphicsMagick++.so.12:_ZN6MagickgeERKNS_8GeometryES2_
libGraphicsMagick++.so.12:_ZN6MagickgtERKNS_10CoordinateES2_
libGraphicsMagick++.so.12:_ZN6MagickgtERKNS_11PathArcArgsES2_
libGraphicsMagick++.so.12:_ZN6MagickgtERKNS_15PathCurvetoArgsES2_
libGraphicsMagick++.so.12:_ZN6MagickgtERKNS_24PathQuadraticCurvetoArgsES2_
libGraphicsMagick++.so.12:_ZN6MagickgtERKNS_5ColorES2_
libGraphicsMagick++.so.12:_ZN6MagickgtERKNS_5ImageES2_
libGraphicsMagick++.so.12:_ZN6MagickgtERKNS_5VPathES2_
libGraphicsMagick++.so.12:_ZN6MagickgtERKNS_8DrawableES2_
libGraphicsMagick++.so.12:_ZN6MagickgtERKNS_8GeometryES2_
libGraphicsMagick++.so.12:_ZN6MagickleERKNS_10CoordinateES2_
libGraphicsMagick++.so.12:_ZN6MagickleERKNS_11PathArcArgsES2_
libGraphicsMagick++.so.12:_ZN6MagickleERKNS_15PathCurvetoArgsES2_
libGraphicsMagick++.so.12:_ZN6MagickleERKNS_24PathQuadraticCurvetoArgsES2_
libGraphicsMagick++.so.12:_ZN6MagickleERKNS_5ColorES2_
libGraphicsMagick++.so.12:_ZN6MagickleERKNS_5ImageES2_
libGraphicsMagick++.so.12:_ZN6MagickleERKNS_5VPathES2_
libGraphicsMagick++.so.12:_ZN6MagickleERKNS_8DrawableES2_
libGraphicsMagick++.so.12:_ZN6MagickleERKNS_8GeometryES2_
libGraphicsMagick++.so.12:_ZN6MagickltERKNS_10CoordinateES2_
libGraphicsMagick++.so.12:_ZN6MagickltERKNS_11PathArcArgsES2_
libGraphicsMagick++.so.12:_ZN6MagickltERKNS_15PathCurvetoArgsES2_
libGraphicsMagick++.so.12:_ZN6MagickltERKNS_24PathQuadraticCurvetoArgsES2_
libGraphicsMagick++.so.12:_ZN6MagickltERKNS_5ColorES2_
libGraphicsMagick++.so.12:_ZN6MagickltERKNS_5ImageES2_
libGraphicsMagick++.so.12:_ZN6MagickltERKNS_5VPathES2_
libGraphicsMagick++.so.12:_ZN6MagickltERKNS_8DrawableES2_
libGraphicsMagick++.so.12:_ZN6MagickltERKNS_8GeometryES2_
libGraphicsMagick++.so.12:_ZN6MagickneERKNS_10CoordinateES2_
libGraphicsMagick++.so.12:_ZN6MagickneERKNS_11PathArcArgsES2_
libGraphicsMagick++.so.12:_ZN6MagickneERKNS_15PathCurvetoArgsES2_
libGraphicsMagick++.so.12:_ZN6MagickneERKNS_24PathQuadraticCurvetoArgsES2_
libGraphicsMagick++.so.12:_ZN6MagickneERKNS_5ColorES2_
libGraphicsMagick++.so.12:_ZN6MagickneERKNS_5ImageES2_
libGraphicsMagick++.so.12:_ZN6MagickneERKNS_5VPathES2_
libGraphicsMagick++.so.12:_ZN6MagickneERKNS_8DrawableES2_
libGraphicsMagick++.so.12:_ZN6MagickneERKNS_8GeometryES2_
libGraphicsMagick++.so.12:_ZNK6Magick10PathArcAbs4copyEv
libGraphicsMagick++.so.12:_ZNK6Magick10PathArcAbsclEPN9MagickLib12_DrawContextE
libGraphicsMagick++.so.12:_ZNK6Magick10PathArcRel4copyEv
libGraphicsMagick++.so.12:_ZNK6Magick10PathArcRelclEPN9MagickLib12_DrawContextE
libGraphicsMagick++.so.12:_ZNK6Magick10TypeMetric10textHeightEv
libGraphicsMagick++.so.12:_ZNK6Magick10TypeMetric20maxHorizontalAdvanceEv
libGraphicsMagick++.so.12:_ZNK6Magick10TypeMetric6ascentEv
libGraphicsMagick++.so.12:_ZNK6Magick10TypeMetric7descentEv
libGraphicsMagick++.so.12:_ZNK6Magick10TypeMetric9textWidthEv
libGraphicsMagick++.so.12:_ZNK6Magick10depthImageclERNS_5ImageE
libGraphicsMagick++.so.12:_ZNK6Magick10frameImageclERNS_5ImageE
libGraphicsMagick++.so.12:_ZNK6Magick10gammaImageclERNS_5ImageE
libGraphicsMagick++.so.12:_ZNK6Magick10labelImageclERNS_5ImageE
libGraphicsMagick++.so.12:_ZNK6Magick10levelImageclERNS_5ImageE
libGraphicsMagick++.so.12:_ZNK6Magick10matteImageclERNS_5ImageE
libGraphicsMagick++.so.12:_ZNK6Magick10raiseImageclERNS_5ImageE
libGraphicsMagick++.so.12:_ZNK6Magick10scaleImageclERNS_5ImageE
libGraphicsMagick++.so.12:_ZNK6Magick10sceneImageclERNS_5ImageE
libGraphicsMagick++.so.12:_ZNK6Magick10shadeImageclERNS_5ImageE
libGraphicsMagick++.so.12:_ZNK6Magick10shaveImageclERNS_5ImageE
libGraphicsMagick++.so.12:_ZNK6Magick10shearImageclERNS_5ImageE
libGraphicsMagick++.so.12:_ZNK6Magick10stripImageclERNS_5ImageE
libGraphicsMagick++.so.12:_ZNK6Magick10swirlImageclERNS_5ImageE
libGraphicsMagick++.so.12:_ZNK6Magick11DrawableArc4copyEv
libGraphicsMagick++.so.12:_ZNK6Magick11DrawableArcclEPN9MagickLib12_DrawContextE
libGraphicsMagick++.so.12:_ZNK6Magick11adjoinImageclERNS_5ImageE
libGraphicsMagick++.so.12:_ZNK6Magick11borderImageclERNS_5ImageE
libGraphicsMagick++.so.12:_ZNK6Magick11embossImageclERNS_5ImageE
libGraphicsMagick++.so.12:_ZNK6Magick11endianImageclERNS_5ImageE
libGraphicsMagick++.so.12:_ZNK6Magick11extentImageclERNS_5ImageE
libGraphicsMagick++.so.12:_ZNK6Magick11magickImageclERNS_5ImageE
libGraphicsMagick++.so.12:_ZNK6Magick11minifyImageclERNS_5ImageE
libGraphicsMagick++.so.12:_ZNK6Magick11negateImageclERNS_5ImageE
libGraphicsMagick++.so.12:_ZNK6Magick11opaqueImageclERNS_5ImageE
libGraphicsMagick++.so.12:_ZNK6Magick11resizeImageclERNS_5ImageE
libGraphicsMagick++.so.12:_ZNK6Magick11rotateImageclERNS_5ImageE
libGraphicsMagick++.so.12:_ZNK6Magick11sampleImageclERNS_5ImageE
libGraphicsMagick++.so.12:_ZNK6Magick11spreadImageclERNS_5ImageE
libGraphicsMagick++.so.12:_ZNK6Magick11stereoImageclERNS_5ImageE
libGraphicsMagick++.so.12:_ZNK6Magick12DrawableFont4copyEv
libGraphicsMagick++.so.12:_ZNK6Magick12DrawableFontclEPN9MagickLib12_DrawContextE
libGraphicsMagick++.so.12:_ZNK6Magick12DrawableLine4copyEv
libGraphicsMagick++.so.12:_ZNK6Magick12DrawableLineclEPN9MagickLib12_DrawContextE
libGraphicsMagick++.so.12:_ZNK6Magick12DrawablePath4copyEv
libGraphicsMagick++.so.12:_ZNK6Magick12DrawablePathclEPN9MagickLib12_DrawContextE
libGraphicsMagick++.so.12:_ZNK6Magick12DrawableText4copyEv
libGraphicsMagick++.so.12:_ZNK6Magick12DrawableTextclEPN9MagickLib12_DrawContextE
libGraphicsMagick++.so.12:_ZNK6Magick12channelImageclERNS_5ImageE
libGraphicsMagick++.so.12:_ZNK6Magick12commentImageclERNS_5ImageE
libGraphicsMagick++.so.12:_ZNK6Magick12composeImageclERNS_5ImageE
libGraphicsMagick++.so.12:_ZNK6Magick12densityImageclERNS_5ImageE
libGraphicsMagick++.so.12:_ZNK6Magick12enhanceImageclERNS_5ImageE
libGraphicsMagick++.so.12:_ZNK6Magick12implodeImageclERNS_5ImageE
libGraphicsMagick++.so.12:_ZNK6Magick12isValidImageclERNS_5ImageE
libGraphicsMagick++.so.12:_ZNK6Magick12magnifyImageclERNS_5ImageE
libGraphicsMagick++.so.12:_ZNK6Magick12opacityImageclERNS_5ImageE
libGraphicsMagick++.so.12:_ZNK6Magick12qualityImageclERNS_5ImageE
libGraphicsMagick++.so.12:_ZNK6Magick12segmentImageclERNS_5ImageE
libGraphicsMagick++.so.12:_ZNK6Magick12sharpenImageclERNS_5ImageE
libGraphicsMagick++.so.12:_ZNK6Magick12steganoImageclERNS_5ImageE
libGraphicsMagick++.so.12:_ZNK6Magick12textureImageclERNS_5ImageE
libGraphicsMagick++.so.12:_ZNK6Magick12verboseImageclERNS_5ImageE
libGraphicsMagick++.so.12:_ZNK6Magick13DrawableColor4copyEv
libGraphicsMagick++.so.12:_ZNK6Magick13DrawableColorclEPN9MagickLib12_DrawContextE
libGraphicsMagick++.so.12:_ZNK6Magick13DrawableMatte4copyEv
libGraphicsMagick++.so.12:_ZNK6Magick13DrawableMatteclEPN9MagickLib12_DrawContextE
libGraphicsMagick++.so.12:_ZNK6Magick13DrawablePoint4copyEv
libGraphicsMagick++.so.12:_ZNK6Magick13DrawablePointclEPN9MagickLib12_DrawContextE
libGraphicsMagick++.so.12:_ZNK6Magick13DrawableSkewX4copyEv
libGraphicsMagick++.so.12:_ZNK6Magick13DrawableSkewXclEPN9MagickLib12_DrawContextE
libGraphicsMagick++.so.12:_ZNK6Magick13DrawableSkewY4copyEv
libGraphicsMagick++.so.12:_ZNK6Magick13DrawableSkewYclEPN9MagickLib12_DrawContextE
libGraphicsMagick++.so.12:_ZNK6Magick13MontageFramed17updateMontageInfoERN9MagickLib12_MontageInfoE
libGraphicsMagick++.so.12:_ZNK6Magick13PathClosePath4copyEv
libGraphicsMagick++.so.12:_ZNK6Magick13PathClosePathclEPN9MagickLib12_DrawContextE
libGraphicsMagick++.so.12:_ZNK6Magick13PathLinetoAbs4copyEv
libGraphicsMagick++.so.12:_ZNK6Magick13PathLinetoAbsclEPN9MagickLib12_DrawContextE
libGraphicsMagick++.so.12:_ZNK6Magick13PathLinetoRel4copyEv
libGraphicsMagick++.so.12:_ZNK6Magick13PathLinetoRelclEPN9MagickLib12_DrawContextE
libGraphicsMagick++.so.12:_ZNK6Magick13PathMovetoAbs4copyEv
libGraphicsMagick++.so.12:_ZNK6Magick13PathMovetoAbsclEPN9MagickLib12_DrawContextE
libGraphicsMagick++.so.12:_ZNK6Magick13PathMovetoRel4copyEv
libGraphicsMagick++.so.12:_ZNK6Magick13PathMovetoRelclEPN9MagickLib12_DrawContextE
libGraphicsMagick++.so.12:_ZNK6Magick13addNoiseImageclERNS_5ImageE
libGraphicsMagick++.so.12:_ZNK6Magick13annotateImageclERNS_5ImageE
libGraphicsMagick++.so.12:_ZNK6Magick13boxColorImageclERNS_5ImageE
libGraphicsMagick++.so.12:_ZNK6Magick13charcoalImageclERNS_5ImageE
libGraphicsMagick++.so.12:_ZNK6Magick13colorMapImageclERNS_5ImageE
libGraphicsMagick++.so.12:_ZNK6Magick13colorizeImageclERNS_5ImageE
libGraphicsMagick++.so.12:_ZNK6Magick13contrastImageclERNS_5ImageE
libGraphicsMagick++.so.12:_ZNK6Magick13equalizeImageclERNS_5ImageE
libGraphicsMagick++.so.12:_ZNK6Magick13fileNameImageclERNS_5ImageE
libGraphicsMagick++.so.12:_ZNK6Magick13haldClutImageclERNS_5ImageE
libGraphicsMagick++.so.12:_ZNK6Magick13modulateImageclERNS_5ImageE
libGraphicsMagick++.so.12:_ZNK6Magick13oilPaintImageclERNS_5ImageE
libGraphicsMagick++.so.12:_ZNK6Magick13penColorImageclERNS_5ImageE
libGraphicsMagick++.so.12:_ZNK6Magick13quantizeImageclERNS_5ImageE
libGraphicsMagick++.so.12:_ZNK6Magick13solarizeImageclERNS_5ImageE
libGraphicsMagick++.so.12:_ZNK6Magick13subImageImageclERNS_5ImageE
libGraphicsMagick++.so.12:_ZNK6Magick13subRangeImageclERNS_5ImageE
libGraphicsMagick++.so.12:_ZNK6Magick13tileNameImageclERNS_5ImageE
libGraphicsMagick++.so.12:_ZNK6Magick14DrawableAffine4copyEv
libGraphicsMagick++.so.12:_ZNK6Magick14DrawableAffineclEPN9MagickLib12_DrawContextE
libGraphicsMagick++.so.12:_ZNK6Magick14DrawableBezier4copyEv
libGraphicsMagick++.so.12:_ZNK6Magick14DrawableBezierclEPN9MagickLib12_DrawContextE
libGraphicsMagick++.so.12:_ZNK6Magick14DrawableCircle4copyEv
libGraphicsMagick++.so.12:_ZNK6Magick14DrawableCircleclEPN9MagickLib12_DrawContextE
libGraphicsMagick++.so.12:_ZNK6Magick14PathCurvetoAbs4copyEv
libGraphicsMagick++.so.12:_ZNK6Magick14PathCurvetoAbsclEPN9MagickLib12_DrawContextE
libGraphicsMagick++.so.12:_ZNK6Magick14PathCurvetoRel4copyEv
libGraphicsMagick++.so.12:_ZNK6Magick14PathCurvetoRelclEPN9MagickLib12_DrawContextE
libGraphicsMagick++.so.12:_ZNK6Magick14antiAliasImageclERNS_5ImageE
libGraphicsMagick++.so.12:_ZNK6Magick14colorFuzzImageclERNS_5ImageE
libGraphicsMagick++.so.12:_ZNK6Magick14compositeImageclERNS_5ImageE
libGraphicsMagick++.so.12:_ZNK6Magick14despeckleImageclERNS_5ImageE
libGraphicsMagick++.so.12:_ZNK6Magick14fillColorImageclERNS_5ImageE
libGraphicsMagick++.so.12:_ZNK6Magick14lineWidthImageclERNS_5ImageE
libGraphicsMagick++.so.12:_ZNK6Magick14normalizeImageclERNS_5ImageE
libGraphicsMagick++.so.12:_ZNK6Magick14thresholdImageclERNS_5ImageE
libGraphicsMagick++.so.12:_ZNK6Magick14transformImageclERNS_5ImageE
libGraphicsMagick++.so.12:_ZNK6Magick15DrawableEllipse4copyEv
libGraphicsMagick++.so.12:_ZNK6Magick15DrawableEllipseclEPN9MagickLib12_DrawContextE
libGraphicsMagick++.so.12:_ZNK6Magick15DrawableGravity4copyEv
libGraphicsMagick++.so.12:_ZNK6Magick15DrawableGravityclEPN9MagickLib12_DrawContextE
libGraphicsMagick++.so.12:_ZNK6Magick15DrawablePolygon4copyEv
libGraphicsMagick++.so.12:_ZNK6Magick15DrawablePolygonclEPN9MagickLib12_DrawContextE
libGraphicsMagick++.so.12:_ZNK6Magick15DrawableScaling4copyEv
libGraphicsMagick++.so.12:_ZNK6Magick15DrawableScalingclEPN9MagickLib12_DrawContextE
libGraphicsMagick++.so.12:_ZNK6Magick15DrawableViewbox4copyEv
libGraphicsMagick++.so.12:_ZNK6Magick15DrawableViewboxclEPN9MagickLib12_DrawContextE
libGraphicsMagick++.so.12:_ZNK6Magick15colorSpaceImageclERNS_5ImageE
libGraphicsMagick++.so.12:_ZNK6Magick15filterTypeImageclERNS_5ImageE
libGraphicsMagick++.so.12:_ZNK6Magick15matteColorImageclERNS_5ImageE
libGraphicsMagick++.so.12:_ZNK6Magick15monochromeImageclERNS_5ImageE
libGraphicsMagick++.so.12:_ZNK6Magick15penTextureImageclERNS_5ImageE
libGraphicsMagick++.so.12:_ZNK6Magick15pixelColorImageclERNS_5ImageE
libGraphicsMagick++.so.12:_ZNK6Magick15x11DisplayImageclERNS_5ImageE
libGraphicsMagick++.so.12:_ZNK6Magick16DrawableClipPath4copyEv
libGraphicsMagick++.so.12:_ZNK6Magick16DrawableClipPathclEPN9MagickLib12_DrawContextE
libGraphicsMagick++.so.12:_ZNK6Magick16DrawableFillRule4copyEv
libGraphicsMagick++.so.12:_ZNK6Magick16DrawableFillRuleclEPN9MagickLib12_DrawContextE
libGraphicsMagick++.so.12:_ZNK6Magick16DrawablePolyline4copyEv
libGraphicsMagick++.so.12:_ZNK6Magick16DrawablePolylineclEPN9MagickLib12_DrawContextE
libGraphicsMagick++.so.12:_ZNK6Magick16DrawableRotation4copyEv
libGraphicsMagick++.so.12:_ZNK6Magick16DrawableRotationclEPN9MagickLib12_DrawContextE
libGraphicsMagick++.so.12:_ZNK6Magick16borderColorImageclERNS_5ImageE
libGraphicsMagick++.so.12:_ZNK6Magick16colorMatrixImageclERNS_5ImageE
libGraphicsMagick++.so.12:_ZNK6Magick16reduceNoiseImageclERNS_5ImageE
libGraphicsMagick++.so.12:_ZNK6Magick16strokeColorImageclERNS_5ImageE
libGraphicsMagick++.so.12:_ZNK6Magick16transparentImageclERNS_5ImageE
libGraphicsMagick++.so.12:_ZNK6Magick17DrawableDashArray4copyEv
libGraphicsMagick++.so.12:_ZNK6Magick17DrawableDashArrayclEPN9MagickLib12_DrawContextE
libGraphicsMagick++.so.12:_ZNK6Magick17DrawableFillColor4copyEv
libGraphicsMagick++.so.12:_ZNK6Magick17DrawableFillColorclEPN9MagickLib12_DrawContextE
libGraphicsMagick++.so.12:_ZNK6Magick17DrawablePointSize4copyEv
libGraphicsMagick++.so.12:_ZNK6Magick17DrawablePointSizeclEPN9MagickLib12_DrawContextE
libGraphicsMagick++.so.12:_ZNK6Magick17DrawableRectangle4copyEv
libGraphicsMagick++.so.12:_ZNK6Magick17DrawableRectangleclEPN9MagickLib12_DrawContextE
libGraphicsMagick++.so.12:_ZNK6Magick17compressTypeImageclERNS_5ImageE
libGraphicsMagick++.so.12:_ZNK6Magick17gaussianBlurImageclERNS_5ImageE
libGraphicsMagick++.so.12:_ZNK6Magick17levelChannelImageclERNS_5ImageE
libGraphicsMagick++.so.12:_ZNK6Magick17medianFilterImageclERNS_5ImageE
libGraphicsMagick++.so.12:_ZNK6Magick18DrawableDashOffset4copyEv
libGraphicsMagick++.so.12:_ZNK6Magick18DrawableDashOffsetclEPN9MagickLib12_DrawContextE
libGraphicsMagick++.so.12:_ZNK6Magick18DrawableMiterLimit4copyEv
libGraphicsMagick++.so.12:_ZNK6Magick18DrawableMiterLimitclEPN9MagickLib12_DrawContextE
libGraphicsMagick++.so.12:_ZNK6Magick18DrawablePopPattern4copyEv
libGraphicsMagick++.so.12:_ZNK6Magick18DrawablePopPatternclEPN9MagickLib12_DrawContextE
libGraphicsMagick++.so.12:_ZNK6Magick18cycleColormapImageclERNS_5ImageE
libGraphicsMagick++.so.12:_ZNK6Magick18fontPointsizeImageclERNS_5ImageE
libGraphicsMagick++.so.12:_ZNK6Magick18interlaceTypeImageclERNS_5ImageE
libGraphicsMagick++.so.12:_ZNK6Magick19DrawableFillOpacity4copyEv
libGraphicsMagick++.so.12:_ZNK6Magick19DrawableFillOpacityclEPN9MagickLib12_DrawContextE
libGraphicsMagick++.so.12:_ZNK6Magick19DrawablePopClipPath4copyEv
libGraphicsMagick++.so.12:_ZNK6Magick19DrawablePopClipPathclEPN9MagickLib12_DrawContextE
libGraphicsMagick++.so.12:_ZNK6Magick19DrawablePushPattern4copyEv
libGraphicsMagick++.so.12:_ZNK6Magick19DrawablePushPatternclEPN9MagickLib12_DrawContextE
libGraphicsMagick++.so.12:_ZNK6Magick19DrawableStrokeColor4copyEv
libGraphicsMagick++.so.12:_ZNK6Magick19DrawableStrokeColorclEPN9MagickLib12_DrawContextE
libGraphicsMagick++.so.12:_ZNK6Magick19DrawableStrokeWidth4copyEv
libGraphicsMagick++.so.12:_ZNK6Magick19DrawableStrokeWidthclEPN9MagickLib12_DrawContextE
libGraphicsMagick++.so.12:_ZNK6Magick19DrawableTranslation4copyEv
libGraphicsMagick++.so.12:_ZNK6Magick19DrawableTranslationclEPN9MagickLib12_DrawContextE
libGraphicsMagick++.so.12:_ZNK6Magick19animationDelayImageclERNS_5ImageE
libGraphicsMagick++.so.12:_ZNK6Magick19floodFillColorImageclERNS_5ImageE
libGraphicsMagick++.so.12:_ZNK6Magick19matteFloodfillImageclERNS_5ImageE
libGraphicsMagick++.so.12:_ZNK6Magick19quantizeColorsImageclERNS_5ImageE
libGraphicsMagick++.so.12:_ZNK6Magick19quantizeDitherImageclERNS_5ImageE
libGraphicsMagick++.so.12:_ZNK6Magick20DrawablePushClipPath4copyEv
libGraphicsMagick++.so.12:_ZNK6Magick20DrawablePushClipPathclEPN9MagickLib12_DrawContextE
libGraphicsMagick++.so.12:_ZNK6Magick20PathSmoothCurvetoAbs4copyEv
libGraphicsMagick++.so.12:_ZNK6Magick20PathSmoothCurvetoAbsclEPN9MagickLib12_DrawContextE
libGraphicsMagick++.so.12:_ZNK6Magick20PathSmoothCurvetoRel4copyEv
libGraphicsMagick++.so.12:_ZNK6Magick20PathSmoothCurvetoRelclEPN9MagickLib12_DrawContextE
libGraphicsMagick++.so.12:_ZNK6Magick20affineTransformImageclERNS_5ImageE
libGraphicsMagick++.so.12:_ZNK6Magick20backgroundColorImageclERNS_5ImageE
libGraphicsMagick++.so.12:_ZNK6Magick20renderingIntentImageclERNS_5ImageE
libGraphicsMagick++.so.12:_ZNK6Magick20resolutionUnitsImageclERNS_5ImageE
libGraphicsMagick++.so.12:_ZNK6Magick21DrawableStrokeLineCap4copyEv
libGraphicsMagick++.so.12:_ZNK6Magick21DrawableStrokeLineCapclEPN9MagickLib12_DrawContextE
libGraphicsMagick++.so.12:_ZNK6Magick21DrawableStrokeOpacity4copyEv
libGraphicsMagick++.so.12:_ZNK6Magick21DrawableStrokeOpacityclEPN9MagickLib12_DrawContextE
libGraphicsMagick++.so.12:_ZNK6Magick21DrawableTextAntialias4copyEv
libGraphicsMagick++.so.12:_ZNK6Magick21DrawableTextAntialiasclEPN9MagickLib12_DrawContextE
libGraphicsMagick++.so.12:_ZNK6Magick21PathLinetoVerticalAbs4copyEv
libGraphicsMagick++.so.12:_ZNK6Magick21PathLinetoVerticalAbsclEPN9MagickLib12_DrawContextE
libGraphicsMagick++.so.12:_ZNK6Magick21PathLinetoVerticalRel4copyEv
libGraphicsMagick++.so.12:_ZNK6Magick21PathLinetoVerticalRelclEPN9MagickLib12_DrawContextE
libGraphicsMagick++.so.12:_ZNK6Magick21chromaRedPrimaryImageclERNS_5ImageE
libGraphicsMagick++.so.12:_ZNK6Magick21chromaWhitePointImageclERNS_5ImageE
libGraphicsMagick++.so.12:_ZNK6Magick21floodFillTextureImageclERNS_5ImageE
libGraphicsMagick++.so.12:_ZNK6Magick21gifDisposeMethodImageclERNS_5ImageE
libGraphicsMagick++.so.12:_ZNK6Magick22DrawableCompositeImage4copyEv
libGraphicsMagick++.so.12:_ZNK6Magick22DrawableCompositeImage5imageEv
libGraphicsMagick++.so.12:_ZNK6Magick22DrawableCompositeImage8filenameB5cxx11Ev
libGraphicsMagick++.so.12:_ZNK6Magick22DrawableCompositeImageclEPN9MagickLib12_DrawContextE
libGraphicsMagick++.so.12:_ZNK6Magick22DrawableRoundRectangle4copyEv
libGraphicsMagick++.so.12:_ZNK6Magick22DrawableRoundRectangleclEPN9MagickLib12_DrawContextE
libGraphicsMagick++.so.12:_ZNK6Magick22DrawableStrokeLineJoin4copyEv
libGraphicsMagick++.so.12:_ZNK6Magick22DrawableStrokeLineJoinclEPN9MagickLib12_DrawContextE
libGraphicsMagick++.so.12:_ZNK6Magick22DrawableTextDecoration4copyEv
libGraphicsMagick++.so.12:_ZNK6Magick22DrawableTextDecorationclEPN9MagickLib12_DrawContextE
libGraphicsMagick++.so.12:_ZNK6Magick22DrawableTextUnderColor4copyEv
libGraphicsMagick++.so.12:_ZNK6Magick22DrawableTextUnderColorclEPN9MagickLib12_DrawContextE
libGraphicsMagick++.so.12:_ZNK6Magick22adaptiveThresholdImageclERNS_5ImageE
libGraphicsMagick++.so.12:_ZNK6Magick22backgroundTextureImageclERNS_5ImageE
libGraphicsMagick++.so.12:_ZNK6Magick22chromaBluePrimaryImageclERNS_5ImageE
libGraphicsMagick++.so.12:_ZNK6Magick22quantizeTreeDepthImageclERNS_5ImageE
libGraphicsMagick++.so.12:_ZNK6Magick23DrawableStrokeAntialias4copyEv
libGraphicsMagick++.so.12:_ZNK6Magick23DrawableStrokeAntialiasclEPN9MagickLib12_DrawContextE
libGraphicsMagick++.so.12:_ZNK6Magick23PathLinetoHorizontalAbs4copyEv
libGraphicsMagick++.so.12:_ZNK6Magick23PathLinetoHorizontalAbsclEPN9MagickLib12_DrawContextE
libGraphicsMagick++.so.12:_ZNK6Magick23PathLinetoHorizontalRel4copyEv
libGraphicsMagick++.so.12:_ZNK6Magick23PathLinetoHorizontalRelclEPN9MagickLib12_DrawContextE
libGraphicsMagick++.so.12:_ZNK6Magick23PathQuadraticCurvetoAbs4copyEv
libGraphicsMagick++.so.12:_ZNK6Magick23PathQuadraticCurvetoAbsclEPN9MagickLib12_DrawContextE
libGraphicsMagick++.so.12:_ZNK6Magick23PathQuadraticCurvetoRel4copyEv
libGraphicsMagick++.so.12:_ZNK6Magick23PathQuadraticCurvetoRelclEPN9MagickLib12_DrawContextE
libGraphicsMagick++.so.12:_ZNK6Magick23chromaGreenPrimaryImageclERNS_5ImageE
libGraphicsMagick++.so.12:_ZNK6Magick23quantizeColorSpaceImageclERNS_5ImageE
libGraphicsMagick++.so.12:_ZNK6Magick24animationIterationsImageclERNS_5ImageE
libGraphicsMagick++.so.12:_ZNK6Magick25DrawablePopGraphicContext4copyEv
libGraphicsMagick++.so.12:_ZNK6Magick25DrawablePopGraphicContextclEPN9MagickLib12_DrawContextE
libGraphicsMagick++.so.12:_ZNK6Magick26DrawablePushGraphicContext4copyEv
libGraphicsMagick++.so.12:_ZNK6Magick26DrawablePushGraphicContextclEPN9MagickLib12_DrawContextE
libGraphicsMagick++.so.12:_ZNK6Magick29PathSmoothQuadraticCurvetoAbs4copyEv
libGraphicsMagick++.so.12:_ZNK6Magick29PathSmoothQuadraticCurvetoAbsclEPN9MagickLib12_DrawContextE
libGraphicsMagick++.so.12:_ZNK6Magick29PathSmoothQuadraticCurvetoRel4copyEv
libGraphicsMagick++.so.12:_ZNK6Magick29PathSmoothQuadraticCurvetoRelclEPN9MagickLib12_DrawContextE
libGraphicsMagick++.so.12:_ZNK6Magick4Blob4dataEv
libGraphicsMagick++.so.12:_ZNK6Magick4Blob6lengthEv
libGraphicsMagick++.so.12:_ZNK6Magick5Color7isValidEv
libGraphicsMagick++.so.12:_ZNK6Magick5ColorcvNSt7__cxx1112basic_stringIcSt11char_traitsIcESaIcEEEEv
libGraphicsMagick++.so.12:_ZNK6Magick5Image10colorSpaceEv
libGraphicsMagick++.so.12:_ZNK6Magick5Image10constImageEv
libGraphicsMagick++.so.12:_ZNK6Magick5Image10filterTypeEv
libGraphicsMagick++.so.12:_ZNK6Magick5Image10matteColorEv
libGraphicsMagick++.so.12:_ZNK6Magick5Image10monochromeEv
libGraphicsMagick++.so.12:_ZNK6Magick5Image10penTextureEv
libGraphicsMagick++.so.12:_ZNK6Magick5Image10pixelColorEjj
libGraphicsMagick++.so.12:_ZNK6Magick5Image10statisticsEPN9MagickLib16_ImageStatisticsE
libGraphicsMagick++.so.12:_ZNK6Magick5Image10x11DisplayB5cxx11Ev
libGraphicsMagick++.so.12:_ZNK6Magick5Image11baseColumnsEv
libGraphicsMagick++.so.12:_ZNK6Magick5Image11borderColorEv
libGraphicsMagick++.so.12:_ZNK6Magick5Image11boundingBoxEv
libGraphicsMagick++.so.12:_ZNK6Magick5Image11defineValueERKNSt7__cxx1112basic_stringIcSt11char_traitsIcESaIcEEES8_
libGraphicsMagick++.so.12:_ZNK6Magick5Image11fillPatternEv
libGraphicsMagick++.so.12:_ZNK6Magick5Image11iptcProfileEv
libGraphicsMagick++.so.12:_ZNK6Magick5Image11orientationEv
libGraphicsMagick++.so.12:_ZNK6Magick5Image11strokeColorEv
libGraphicsMagick++.so.12:_ZNK6Magick5Image11strokeWidthEv
libGraphicsMagick++.so.12:_ZNK6Magick5Image11xResolutionEv
libGraphicsMagick++.so.12:_ZNK6Magick5Image11yResolutionEv
libGraphicsMagick++.so.12:_ZNK6Magick5Image12baseFilenameB5cxx11Ev
libGraphicsMagick++.so.12:_ZNK6Magick5Image12compressTypeEv
libGraphicsMagick++.so.12:_ZNK6Magick5Image12constOptionsEv
libGraphicsMagick++.so.12:_ZNK6Magick5Image12modulusDepthEv
libGraphicsMagick++.so.12:_ZNK6Magick5Image12textEncodingB5cxx11Ev
libGraphicsMagick++.so.12:_ZNK6Magick5Image13fontPointsizeEv
libGraphicsMagick++.so.12:_ZNK6Magick5Image13interlaceTypeEv
libGraphicsMagick++.so.12:_ZNK6Magick5Image13strokeLineCapEv
libGraphicsMagick++.so.12:_ZNK6Magick5Image13strokePatternEv
libGraphicsMagick++.so.12:_ZNK6Magick5Image14animationDelayEv
libGraphicsMagick++.so.12:_ZNK6Magick5Image14constImageInfoEv
libGraphicsMagick++.so.12:_ZNK6Magick5Image14getConstPixelsEiijj
libGraphicsMagick++.so.12:_ZNK6Magick5Image14quantizeColorsEv
libGraphicsMagick++.so.12:_ZNK6Magick5Image14quantizeDitherEv
libGraphicsMagick++.so.12:_ZNK6Magick5Image14strokeLineJoinEv
libGraphicsMagick++.so.12:_ZNK6Magick5Image15backgroundColorEv
libGraphicsMagick++.so.12:_ZNK6Magick5Image15getConstIndexesEv
libGraphicsMagick++.so.12:_ZNK6Magick5Image15iccColorProfileEv
libGraphicsMagick++.so.12:_ZNK6Magick5Image15montageGeometryEv
libGraphicsMagick++.so.12:_ZNK6Magick5Image15renderingIntentEv
libGraphicsMagick++.so.12:_ZNK6Magick5Image15resolutionUnitsEv
libGraphicsMagick++.so.12:_ZNK6Magick5Image15strokeAntiAliasEv
libGraphicsMagick++.so.12:_ZNK6Magick5Image15strokeDashArrayEv
libGraphicsMagick++.so.12:_ZNK6Magick5Image16chromaRedPrimaryEPdS1_
libGraphicsMagick++.so.12:_ZNK6Magick5Image16chromaWhitePointEPdS1_
libGraphicsMagick++.so.12:_ZNK6Magick5Image16gifDisposeMethodEv
libGraphicsMagick++.so.12:_ZNK6Magick5Image16strokeDashOffsetEv
libGraphicsMagick++.so.12:_ZNK6Magick5Image16strokeMiterLimitEv
libGraphicsMagick++.so.12:_ZNK6Magick5Image17backgroundTextureB5cxx11Ev
libGraphicsMagick++.so.12:_ZNK6Magick5Image17chromaBluePrimaryEPdS1_
libGraphicsMagick++.so.12:_ZNK6Magick5Image17constQuantizeInfoEv
libGraphicsMagick++.so.12:_ZNK6Magick5Image17meanErrorPerPixelEv
libGraphicsMagick++.so.12:_ZNK6Magick5Image17quantizeTreeDepthEv
libGraphicsMagick++.so.12:_ZNK6Magick5Image18chromaGreenPrimaryEPdS1_
libGraphicsMagick++.so.12:_ZNK6Magick5Image18normalizedMaxErrorEv
libGraphicsMagick++.so.12:_ZNK6Magick5Image18quantizeColorSpaceEv
libGraphicsMagick++.so.12:_ZNK6Magick5Image19animationIterationsEv
libGraphicsMagick++.so.12:_ZNK6Magick5Image19normalizedMeanErrorEv
libGraphicsMagick++.so.12:_ZNK6Magick5Image19throwImageExceptionERN9MagickLib14_ExceptionInfoE
libGraphicsMagick++.so.12:_ZNK6Magick5Image19throwImageExceptionEv
libGraphicsMagick++.so.12:_ZNK6Magick5Image4fontB5cxx11Ev
libGraphicsMagick++.so.12:_ZNK6Magick5Image4pageEv
libGraphicsMagick++.so.12:_ZNK6Magick5Image4sizeEv
libGraphicsMagick++.so.12:_ZNK6Magick5Image4typeEv
libGraphicsMagick++.so.12:_ZNK6Magick5Image4viewB5cxx11Ev
libGraphicsMagick++.so.12:_ZNK6Magick5Image5debugEv
libGraphicsMagick++.so.12:_ZNK6Magick5Image5depthEv
libGraphicsMagick++.so.12:_ZNK6Magick5Image5gammaEv
libGraphicsMagick++.so.12:_ZNK6Magick5Image5labelB5cxx11Ev
libGraphicsMagick++.so.12:_ZNK6Magick5Image5matteEv
libGraphicsMagick++.so.12:_ZNK6Magick5Image5quietEv
libGraphicsMagick++.so.12:_ZNK6Magick5Image5sceneEv
libGraphicsMagick++.so.12:_ZNK6Magick5Image6adjoinEv
libGraphicsMagick++.so.12:_ZNK6Magick5Image6endianEv
libGraphicsMagick++.so.12:_ZNK6Magick5Image6formatB5cxx11Ev
libGraphicsMagick++.so.12:_ZNK6Magick5Image6magickB5cxx11Ev
libGraphicsMagick++.so.12:_ZNK6Magick5Image7commentB5cxx11Ev
libGraphicsMagick++.so.12:_ZNK6Magick5Image7composeEv
libGraphicsMagick++.so.12:_ZNK6Magick5Image7densityEv
libGraphicsMagick++.so.12:_ZNK6Magick5Image7isValidEv
libGraphicsMagick++.so.12:_ZNK6Magick5Image7profileENSt7__cxx1112basic_stringIcSt11char_traitsIcESaIcEEE
libGraphicsMagick++.so.12:_ZNK6Magick5Image7qualityEv
libGraphicsMagick++.so.12:_ZNK6Magick5Image7verboseEv
libGraphicsMagick++.so.12:_ZNK6Magick5Image8baseRowsEv
libGraphicsMagick++.so.12:_ZNK6Magick5Image8boxColorEv
libGraphicsMagick++.so.12:_ZNK6Magick5Image8clipMaskEv
libGraphicsMagick++.so.12:_ZNK6Magick5Image8colorMapEj
libGraphicsMagick++.so.12:_ZNK6Magick5Image8fileNameB5cxx11Ev
libGraphicsMagick++.so.12:_ZNK6Magick5Image8fileSizeEv
libGraphicsMagick++.so.12:_ZNK6Magick5Image8fillRuleEv
libGraphicsMagick++.so.12:_ZNK6Magick5Image8geometryEv
libGraphicsMagick++.so.12:_ZNK6Magick5Image8penColorEv
libGraphicsMagick++.so.12:_ZNK6Magick5Image8subImageEv
libGraphicsMagick++.so.12:_ZNK6Magick5Image8subRangeEv
libGraphicsMagick++.so.12:_ZNK6Magick5Image8tileNameB5cxx11Ev
libGraphicsMagick++.so.12:_ZNK6Magick5Image9colorFuzzEv
libGraphicsMagick++.so.12:_ZNK6Magick5Image9defineSetERKNSt7__cxx1112basic_stringIcSt11char_traitsIcESaIcEEES8_
libGraphicsMagick++.so.12:_ZNK6Magick5Image9directoryB5cxx11Ev
libGraphicsMagick++.so.12:_ZNK6Magick5Image9fillColorEv
libGraphicsMagick++.so.12:_ZNK6Magick5Image9signatureB5cxx11Eb
libGraphicsMagick++.so.12:_ZNK6Magick5VPathclEPN9MagickLib12_DrawContextE
libGraphicsMagick++.so.12:_ZNK6Magick7Montage17updateMontageInfoERN9MagickLib12_MontageInfoE
libGraphicsMagick++.so.12:_ZNK6Magick7Options10matteColorEv
libGraphicsMagick++.so.12:_ZNK6Magick7Options10monochromeEv
libGraphicsMagick++.so.12:_ZNK6Magick7Options10x11DisplayB5cxx11Ev
libGraphicsMagick++.so.12:_ZNK6Magick7Options11borderColorEv
libGraphicsMagick++.so.12:_ZNK6Magick7Options11fillPatternEv
libGraphicsMagick++.so.12:_ZNK6Magick7Options11strokeColorEv
libGraphicsMagick++.so.12:_ZNK6Magick7Options11strokeWidthEv
libGraphicsMagick++.so.12:_ZNK6Magick7Options12compressTypeEv
libGraphicsMagick++.so.12:_ZNK6Magick7Options12textEncodingB5cxx11Ev
libGraphicsMagick++.so.12:_ZNK6Magick7Options13fontPointsizeEv
libGraphicsMagick++.so.12:_ZNK6Magick7Options13interlaceTypeEv
libGraphicsMagick++.so.12:_ZNK6Magick7Options13strokeLineCapEv
libGraphicsMagick++.so.12:_ZNK6Magick7Options13strokePatternEv
libGraphicsMagick++.so.12:_ZNK6Magick7Options14quantizeColorsEv
libGraphicsMagick++.so.12:_ZNK6Magick7Options14quantizeDitherEv
libGraphicsMagick++.so.12:_ZNK6Magick7Options14strokeLineJoinEv
libGraphicsMagick++.so.12:_ZNK6Magick7Options15backgroundColorEv
libGraphicsMagick++.so.12:_ZNK6Magick7Options15resolutionUnitsEv
libGraphicsMagick++.so.12:_ZNK6Magick7Options15strokeAntiAliasEv
libGraphicsMagick++.so.12:_ZNK6Magick7Options15strokeDashArrayEv
libGraphicsMagick++.so.12:_ZNK6Magick7Options16strokeDashOffsetEv
libGraphicsMagick++.so.12:_ZNK6Magick7Options16strokeMiterLimitEv
libGraphicsMagick++.so.12:_ZNK6Magick7Options17backgroundTextureB5cxx11Ev
libGraphicsMagick++.so.12:_ZNK6Magick7Options17quantizeTreeDepthEv
libGraphicsMagick++.so.12:_ZNK6Magick7Options18quantizeColorSpaceEv
libGraphicsMagick++.so.12:_ZNK6Magick7Options4fontB5cxx11Ev
libGraphicsMagick++.so.12:_ZNK6Magick7Options4pageEv
libGraphicsMagick++.so.12:_ZNK6Magick7Options4sizeEv
libGraphicsMagick++.so.12:_ZNK6Magick7Options4typeEv
libGraphicsMagick++.so.12:_ZNK6Magick7Options4viewB5cxx11Ev
libGraphicsMagick++.so.12:_ZNK6Magick7Options5debugEv
libGraphicsMagick++.so.12:_ZNK6Magick7Options5depthEv
libGraphicsMagick++.so.12:_ZNK6Magick7Options5quietEv
libGraphicsMagick++.so.12:_ZNK6Magick7Options6adjoinEv
libGraphicsMagick++.so.12:_ZNK6Magick7Options6endianEv
libGraphicsMagick++.so.12:_ZNK6Magick7Options6formatB5cxx11Ev
libGraphicsMagick++.so.12:_ZNK6Magick7Options6magickB5cxx11Ev
libGraphicsMagick++.so.12:_ZNK6Magick7Options7densityEv
libGraphicsMagick++.so.12:_ZNK6Magick7Options7qualityEv
libGraphicsMagick++.so.12:_ZNK6Magick7Options7verboseEv
libGraphicsMagick++.so.12:_ZNK6Magick7Options8boxColorEv
libGraphicsMagick++.so.12:_ZNK6Magick7Options8fileNameB5cxx11Ev
libGraphicsMagick++.so.12:_ZNK6Magick7Options8fillRuleEv
libGraphicsMagick++.so.12:_ZNK6Magick7Options8subImageEv
libGraphicsMagick++.so.12:_ZNK6Magick7Options8subRangeEv
libGraphicsMagick++.so.12:_ZNK6Magick7Options8tileNameB5cxx11Ev
libGraphicsMagick++.so.12:_ZNK6Magick7Options9antiAliasEv
libGraphicsMagick++.so.12:_ZNK6Magick7Options9colorFuzzEv
libGraphicsMagick++.so.12:_ZNK6Magick7Options9fillColorEv
libGraphicsMagick++.so.12:_ZNK6Magick8ColorHSL10luminosityEv
libGraphicsMagick++.so.12:_ZNK6Magick8ColorHSL10saturationEv
libGraphicsMagick++.so.12:_ZNK6Magick8ColorHSL3hueEv
libGraphicsMagick++.so.12:_ZNK6Magick8ColorYUV1uEv
libGraphicsMagick++.so.12:_ZNK6Magick8ColorYUV1vEv
libGraphicsMagick++.so.12:_ZNK6Magick8ColorYUV1yEv
libGraphicsMagick++.so.12:_ZNK6Magick8DrawableclEPN9MagickLib12_DrawContextE
libGraphicsMagick++.so.12:_ZNK6Magick8Geometry11limitPixelsEv
libGraphicsMagick++.so.12:_ZNK6Magick8Geometry4lessEv
libGraphicsMagick++.so.12:_ZNK6Magick8Geometry4xOffEv
libGraphicsMagick++.so.12:_ZNK6Magick8Geometry4yOffEv
libGraphicsMagick++.so.12:_ZNK6Magick8Geometry5widthEv
libGraphicsMagick++.so.12:_ZNK6Magick8Geometry6aspectEv
libGraphicsMagick++.so.12:_ZNK6Magick8Geometry6heightEv
libGraphicsMagick++.so.12:_ZNK6Magick8Geometry7greaterEv
libGraphicsMagick++.so.12:_ZNK6Magick8Geometry7isValidEv
libGraphicsMagick++.so.12:_ZNK6Magick8Geometry7percentEv
libGraphicsMagick++.so.12:_ZNK6Magick8Geometry8fillAreaEv
libGraphicsMagick++.so.12:_ZNK6Magick8Geometry9xNegativeEv
libGraphicsMagick++.so.12:_ZNK6Magick8Geometry9yNegativeEv
libGraphicsMagick++.so.12:_ZNK6Magick8GeometrycvN9MagickLib14_RectangleInfoEEv
libGraphicsMagick++.so.12:_ZNK6Magick8GeometrycvNSt7__cxx1112basic_stringIcSt11char_traitsIcESaIcEEEEv
libGraphicsMagick++.so.12:_ZNK6Magick8cdlImageclERNS_5ImageE
libGraphicsMagick++.so.12:_ZNK6Magick8mapImageclERNS_5ImageE
libGraphicsMagick++.so.12:_ZNK6Magick9CoderInfo10isReadableEv
libGraphicsMagick++.so.12:_ZNK6Magick9CoderInfo10isWritableEv
libGraphicsMagick++.so.12:_ZNK6Magick9CoderInfo11descriptionB5cxx11Ev
libGraphicsMagick++.so.12:_ZNK6Magick9CoderInfo12isMultiFrameEv
libGraphicsMagick++.so.12:_ZNK6Magick9CoderInfo4nameB5cxx11Ev
libGraphicsMagick++.so.12:_ZNK6Magick9ColorGray5shadeEv
libGraphicsMagick++.so.12:_ZNK6Magick9ColorMono4monoEv
libGraphicsMagick++.so.12:_ZNK6Magick9Exception4whatEv
libGraphicsMagick++.so.12:_ZNK6Magick9blurImageclERNS_5ImageE
libGraphicsMagick++.so.12:_ZNK6Magick9chopImageclERNS_5ImageE
libGraphicsMagick++.so.12:_ZNK6Magick9cropImageclERNS_5ImageE
libGraphicsMagick++.so.12:_ZNK6Magick9drawImageclERNS_5ImageE
libGraphicsMagick++.so.12:_ZNK6Magick9edgeImageclERNS_5ImageE
libGraphicsMagick++.so.12:_ZNK6Magick9flipImageclERNS_5ImageE
libGraphicsMagick++.so.12:_ZNK6Magick9flopImageclERNS_5ImageE
libGraphicsMagick++.so.12:_ZNK6Magick9fontImageclERNS_5ImageE
libGraphicsMagick++.so.12:_ZNK6Magick9pageImageclERNS_5ImageE
libGraphicsMagick++.so.12:_ZNK6Magick9rollImageclERNS_5ImageE
libGraphicsMagick++.so.12:_ZNK6Magick9sizeImageclERNS_5ImageE
libGraphicsMagick++.so.12:_ZNK6Magick9trimImageclERNS_5ImageE
libGraphicsMagick++.so.12:_ZNK6Magick9typeImageclERNS_5ImageE
libGraphicsMagick++.so.12:_ZNK6Magick9viewImageclERNS_5ImageE
libGraphicsMagick++.so.12:_ZNK6Magick9waveImageclERNS_5ImageE
libGraphicsMagick++.so.12:_ZNK6Magick9zoomImageclERNS_5ImageE
libGraphicsMagick.so.3:AccessCacheViewPixels
libGraphicsMagick.so.3:AccessDefaultCacheView
libGraphicsMagick.so.3:AccessDefinition
libGraphicsMagick.so.3:AccessImmutableIndexes
libGraphicsMagick.so.3:AccessMutableIndexes
libGraphicsMagick.so.3:AccessMutablePixels
libGraphicsMagick.so.3:AccessThreadViewData
libGraphicsMagick.so.3:AccessThreadViewDataById
libGraphicsMagick.so.3:AcquireCacheView
libGraphicsMagick.so.3:AcquireCacheViewIndexes
libGraphicsMagick.so.3:AcquireCacheViewPixels
libGraphicsMagick.so.3:AcquireImagePixels
libGraphicsMagick.so.3:AcquireMagickRandomKernel
libGraphicsMagick.so.3:AcquireMagickResource
libGraphicsMagick.so.3:AcquireMemory
libGraphicsMagick.so.3:AcquireOneCacheViewPixel
libGraphicsMagick.so.3:AcquireOnePixel
libGraphicsMagick.so.3:AcquireOnePixelByReference
libGraphicsMagick.so.3:AcquireSemaphoreInfo
libGraphicsMagick.so.3:AcquireString
libGraphicsMagick.so.3:AcquireTemporaryFileDescriptor
libGraphicsMagick.so.3:AcquireTemporaryFileName
libGraphicsMagick.so.3:AcquireTemporaryFileStream
libGraphicsMagick.so.3:AdaptiveThresholdImage
libGraphicsMagick.so.3:AddDefinition
libGraphicsMagick.so.3:AddDefinitions
libGraphicsMagick.so.3:AddNoiseImage
libGraphicsMagick.so.3:AddNoiseImageChannel
libGraphicsMagick.so.3:AffineTransformImage
libGraphicsMagick.so.3:AllocateImage
libGraphicsMagick.so.3:AllocateImageColormap
libGraphicsMagick.so.3:AllocateImageProfileIterator
libGraphicsMagick.so.3:AllocateNextImage
libGraphicsMagick.so.3:AllocateSemaphoreInfo
libGraphicsMagick.so.3:AllocateString
libGraphicsMagick.so.3:AllocateThreadViewDataArray
libGraphicsMagick.so.3:AllocateThreadViewDataSet
libGraphicsMagick.so.3:AllocateThreadViewSet
libGraphicsMagick.so.3:AnimateImageCommand
libGraphicsMagick.so.3:AnimateImages
libGraphicsMagick.so.3:AnnotateImage
libGraphicsMagick.so.3:AppendImageFormat
libGraphicsMagick.so.3:AppendImageProfile
libGraphicsMagick.so.3:AppendImageToList
libGraphicsMagick.so.3:AppendImages
libGraphicsMagick.so.3:Ascii85Encode
libGraphicsMagick.so.3:Ascii85Flush
libGraphicsMagick.so.3:Ascii85Initialize
libGraphicsMagick.so.3:Ascii85WriteByteHook
libGraphicsMagick.so.3:AssignThreadViewData
libGraphicsMagick.so.3:AttachBlob
libGraphicsMagick.so.3:AutoOrientImage
libGraphicsMagick.so.3:AverageImages
libGraphicsMagick.so.3:Base64Decode
libGraphicsMagick.so.3:Base64Encode
libGraphicsMagick.so.3:BenchmarkImageCommand
libGraphicsMagick.so.3:BlackThresholdImage
libGraphicsMagick.so.3:BlobIsSeekable
libGraphicsMagick.so.3:BlobModeToString
libGraphicsMagick.so.3:BlobReserveSize
libGraphicsMagick.so.3:BlobToFile
libGraphicsMagick.so.3:BlobToImage
libGraphicsMagick.so.3:BlobWriteByteHook
libGraphicsMagick.so.3:BlurImage
libGraphicsMagick.so.3:BlurImageChannel
libGraphicsMagick.so.3:BorderImage
libGraphicsMagick.so.3:CatchException
libGraphicsMagick.so.3:CatchImageException
libGraphicsMagick.so.3:CdlImage
libGraphicsMagick.so.3:ChannelImage
libGraphicsMagick.so.3:ChannelThresholdImage
libGraphicsMagick.so.3:ChannelTypeToString
libGraphicsMagick.so.3:CharcoalImage
libGraphicsMagick.so.3:CheckImagePixelLimits
libGraphicsMagick.so.3:ChopImage
libGraphicsMagick.so.3:ClassTypeToString
libGraphicsMagick.so.3:ClipImage
libGraphicsMagick.so.3:ClipPathImage
libGraphicsMagick.so.3:CloneBlobInfo
libGraphicsMagick.so.3:CloneDrawInfo
libGraphicsMagick.so.3:CloneImage
libGraphicsMagick.so.3:CloneImageAttributes
libGraphicsMagick.so.3:CloneImageInfo
libGraphicsMagick.so.3:CloneImageList
libGraphicsMagick.so.3:CloneMemory
libGraphicsMagick.so.3:CloneMontageInfo
libGraphicsMagick.so.3:CloneQuantizeInfo
libGraphicsMagick.so.3:CloneString
libGraphicsMagick.so.3:CloseBlob
libGraphicsMagick.so.3:CloseCacheView
libGraphicsMagick.so.3:CoalesceImages
libGraphicsMagick.so.3:ColorFloodfillImage
libGraphicsMagick.so.3:ColorMatrixImage
libGraphicsMagick.so.3:ColorizeImage
libGraphicsMagick.so.3:ColorspaceTypeToString
libGraphicsMagick.so.3:CompareImageCommand
libGraphicsMagick.so.3:CompositeImage
libGraphicsMagick.so.3:CompositeImageCommand
libGraphicsMagick.so.3:CompositeImageRegion
libGraphicsMagick.so.3:CompositeMaskImage
libGraphicsMagick.so.3:CompositeOperatorToString
libGraphicsMagick.so.3:CompositePathImage
libGraphicsMagick.so.3:CompressImageColormap
libGraphicsMagick.so.3:CompressionTypeToString
libGraphicsMagick.so.3:ConcatenateString
libGraphicsMagick.so.3:ConfirmAccessModeToString
libGraphicsMagick.so.3:ConjureImageCommand
libGraphicsMagick.so.3:ConstituteImage
libGraphicsMagick.so.3:ConstituteTextureImage
libGraphicsMagick.so.3:ContinueTimer
libGraphicsMagick.so.3:Contrast
libGraphicsMagick.so.3:ContrastImage
libGraphicsMagick.so.3:ConvertImageCommand
libGraphicsMagick.so.3:ConvolveImage
libGraphicsMagick.so.3:CopyException
libGraphicsMagick.so.3:CropImage
libGraphicsMagick.so.3:CycleColormapImage
libGraphicsMagick.so.3:DeallocateImageProfileIterator
libGraphicsMagick.so.3:DeconstructImages
libGraphicsMagick.so.3:DefineClientName
libGraphicsMagick.so.3:DefineClientPathAndName
libGraphicsMagick.so.3:DeleteImageFromList
libGraphicsMagick.so.3:DeleteImageProfile
libGraphicsMagick.so.3:DeleteMagickRegistry
libGraphicsMagick.so.3:DescribeImage
libGraphicsMagick.so.3:DespeckleImage
libGraphicsMagick.so.3:DestroyBlob
libGraphicsMagick.so.3:DestroyBlobInfo
libGraphicsMagick.so.3:DestroyCacheInfo
libGraphicsMagick.so.3:DestroyColorInfo
libGraphicsMagick.so.3:DestroyConstitute
libGraphicsMagick.so.3:DestroyDelegateInfo
libGraphicsMagick.so.3:DestroyDrawInfo
libGraphicsMagick.so.3:DestroyExceptionInfo
libGraphicsMagick.so.3:DestroyImage
libGraphicsMagick.so.3:DestroyImageAttributes
libGraphicsMagick.so.3:DestroyImageInfo
libGraphicsMagick.so.3:DestroyImageList
libGraphicsMagick.so.3:DestroyImagePixels
libGraphicsMagick.so.3:DestroyLogInfo
libGraphicsMagick.so.3:DestroyMagicInfo
libGraphicsMagick.so.3:DestroyMagick
libGraphicsMagick.so.3:DestroyMagickExceptionHandling
libGraphicsMagick.so.3:DestroyMagickModules
libGraphicsMagick.so.3:DestroyMagickMonitor
libGraphicsMagick.so.3:DestroyMagickRandomGenerator
libGraphicsMagick.so.3:DestroyMagickRegistry
libGraphicsMagick.so.3:DestroyMagickResources
libGraphicsMagick.so.3:DestroyModuleInfo
libGraphicsMagick.so.3:DestroyMontageInfo
libGraphicsMagick.so.3:DestroyQuantizeInfo
libGraphicsMagick.so.3:DestroySemaphore
libGraphicsMagick.so.3:DestroySemaphoreInfo
libGraphicsMagick.so.3:DestroyTemporaryFiles
libGraphicsMagick.so.3:DestroyThreadViewDataSet
libGraphicsMagick.so.3:DestroyThreadViewSet
libGraphicsMagick.so.3:DestroyTypeInfo
libGraphicsMagick.so.3:DetachBlob
libGraphicsMagick.so.3:DifferenceImage
libGraphicsMagick.so.3:DisassociateBlob
libGraphicsMagick.so.3:DispatchImage
libGraphicsMagick.so.3:DisplayImageCommand
libGraphicsMagick.so.3:DisplayImages
libGraphicsMagick.so.3:DrawAffine
libGraphicsMagick.so.3:DrawAffineImage
libGraphicsMagick.so.3:DrawAllocateContext
libGraphicsMagick.so.3:DrawAnnotation
libGraphicsMagick.so.3:DrawArc
libGraphicsMagick.so.3:DrawBezier
libGraphicsMagick.so.3:DrawCircle
libGraphicsMagick.so.3:DrawClipPath
libGraphicsMagick.so.3:DrawColor
libGraphicsMagick.so.3:DrawComment
libGraphicsMagick.so.3:DrawComposite
libGraphicsMagick.so.3:DrawCompositeMask
libGraphicsMagick.so.3:DrawDestroyContext
libGraphicsMagick.so.3:DrawEllipse
libGraphicsMagick.so.3:DrawGetClipPath
libGraphicsMagick.so.3:DrawGetClipRule
libGraphicsMagick.so.3:DrawGetClipUnits
libGraphicsMagick.so.3:DrawGetFillColor
libGraphicsMagick.so.3:DrawGetFillOpacity
libGraphicsMagick.so.3:DrawGetFillRule
libGraphicsMagick.so.3:DrawGetFont
libGraphicsMagick.so.3:DrawGetFontFamily
libGraphicsMagick.so.3:DrawGetFontSize
libGraphicsMagick.so.3:DrawGetFontStretch
libGraphicsMagick.so.3:DrawGetFontStyle
libGraphicsMagick.so.3:DrawGetFontWeight
libGraphicsMagick.so.3:DrawGetGravity
libGraphicsMagick.so.3:DrawGetStrokeAntialias
libGraphicsMagick.so.3:DrawGetStrokeColor
libGraphicsMagick.so.3:DrawGetStrokeDashArray
libGraphicsMagick.so.3:DrawGetStrokeDashOffset
libGraphicsMagick.so.3:DrawGetStrokeLineCap
libGraphicsMagick.so.3:DrawGetStrokeLineJoin
libGraphicsMagick.so.3:DrawGetStrokeMiterLimit
libGraphicsMagick.so.3:DrawGetStrokeOpacity
libGraphicsMagick.so.3:DrawGetStrokeWidth
libGraphicsMagick.so.3:DrawGetTextAntialias
libGraphicsMagick.so.3:DrawGetTextDecoration
libGraphicsMagick.so.3:DrawGetTextEncoding
libGraphicsMagick.so.3:DrawGetTextUnderColor
libGraphicsMagick.so.3:DrawImage
libGraphicsMagick.so.3:DrawInfoGetClipPath
libGraphicsMagick.so.3:DrawInfoGetCompositePath
libGraphicsMagick.so.3:DrawLine
libGraphicsMagick.so.3:DrawMatte
libGraphicsMagick.so.3:DrawPathClose
libGraphicsMagick.so.3:DrawPathCurveToAbsolute
libGraphicsMagick.so.3:DrawPathCurveToQuadraticBezierAbsolute
libGraphicsMagick.so.3:DrawPathCurveToQuadraticBezierRelative
libGraphicsMagick.so.3:DrawPathCurveToQuadraticBezierSmoothAbsolute
libGraphicsMagick.so.3:DrawPathCurveToQuadraticBezierSmoothRelative
libGraphicsMagick.so.3:DrawPathCurveToRelative
libGraphicsMagick.so.3:DrawPathCurveToSmoothAbsolute
libGraphicsMagick.so.3:DrawPathCurveToSmoothRelative
libGraphicsMagick.so.3:DrawPathEllipticArcAbsolute
libGraphicsMagick.so.3:DrawPathEllipticArcRelative
libGraphicsMagick.so.3:DrawPathFinish
libGraphicsMagick.so.3:DrawPathLineToAbsolute
libGraphicsMagick.so.3:DrawPathLineToHorizontalAbsolute
libGraphicsMagick.so.3:DrawPathLineToHorizontalRelative
libGraphicsMagick.so.3:DrawPathLineToRelative
libGraphicsMagick.so.3:DrawPathLineToVerticalAbsolute
libGraphicsMagick.so.3:DrawPathLineToVerticalRelative
libGraphicsMagick.so.3:DrawPathMoveToAbsolute
libGraphicsMagick.so.3:DrawPathMoveToRelative
libGraphicsMagick.so.3:DrawPathStart
libGraphicsMagick.so.3:DrawPatternPath
libGraphicsMagick.so.3:DrawPeekGraphicContext
libGraphicsMagick.so.3:DrawPoint
libGraphicsMagick.so.3:DrawPolygon
libGraphicsMagick.so.3:DrawPolyline
libGraphicsMagick.so.3:DrawPopClipPath
libGraphicsMagick.so.3:DrawPopDefs
libGraphicsMagick.so.3:DrawPopGraphicContext
libGraphicsMagick.so.3:DrawPopPattern
libGraphicsMagick.so.3:DrawPushClipPath
libGraphicsMagick.so.3:DrawPushDefs
libGraphicsMagick.so.3:DrawPushGraphicContext
libGraphicsMagick.so.3:DrawPushPattern
libGraphicsMagick.so.3:DrawRectangle
libGraphicsMagick.so.3:DrawRender
libGraphicsMagick.so.3:DrawRotate
libGraphicsMagick.so.3:DrawRoundRectangle
libGraphicsMagick.so.3:DrawScale
libGraphicsMagick.so.3:DrawSetClipPath
libGraphicsMagick.so.3:DrawSetClipRule
libGraphicsMagick.so.3:DrawSetClipUnits
libGraphicsMagick.so.3:DrawSetFillColor
libGraphicsMagick.so.3:DrawSetFillColorString
libGraphicsMagick.so.3:DrawSetFillOpacity
libGraphicsMagick.so.3:DrawSetFillPatternURL
libGraphicsMagick.so.3:DrawSetFillRule
libGraphicsMagick.so.3:DrawSetFont
libGraphicsMagick.so.3:DrawSetFontFamily
libGraphicsMagick.so.3:DrawSetFontSize
libGraphicsMagick.so.3:DrawSetFontStretch
libGraphicsMagick.so.3:DrawSetFontStyle
libGraphicsMagick.so.3:DrawSetFontWeight
libGraphicsMagick.so.3:DrawSetGravity
libGraphicsMagick.so.3:DrawSetStrokeAntialias
libGraphicsMagick.so.3:DrawSetStrokeColor
libGraphicsMagick.so.3:DrawSetStrokeColorString
libGraphicsMagick.so.3:DrawSetStrokeDashArray
libGraphicsMagick.so.3:DrawSetStrokeDashOffset
libGraphicsMagick.so.3:DrawSetStrokeLineCap
libGraphicsMagick.so.3:DrawSetStrokeLineJoin
libGraphicsMagick.so.3:DrawSetStrokeMiterLimit
libGraphicsMagick.so.3:DrawSetStrokeOpacity
libGraphicsMagick.so.3:DrawSetStrokePatternURL
libGraphicsMagick.so.3:DrawSetStrokeWidth
libGraphicsMagick.so.3:DrawSetTextAntialias
libGraphicsMagick.so.3:DrawSetTextDecoration
libGraphicsMagick.so.3:DrawSetTextEncoding
libGraphicsMagick.so.3:DrawSetTextUnderColor
libGraphicsMagick.so.3:DrawSetTextUnderColorString
libGraphicsMagick.so.3:DrawSetViewbox
libGraphicsMagick.so.3:DrawSkewX
libGraphicsMagick.so.3:DrawSkewY
libGraphicsMagick.so.3:DrawTranslate
libGraphicsMagick.so.3:EOFBlob
libGraphicsMagick.so.3:EdgeImage
libGraphicsMagick.so.3:EmbossImage
libGraphicsMagick.so.3:EndianTypeToString
libGraphicsMagick.so.3:EnhanceImage
libGraphicsMagick.so.3:EqualizeImage
libGraphicsMagick.so.3:EscapeString
libGraphicsMagick.so.3:ExecuteModuleProcess
libGraphicsMagick.so.3:ExecuteStaticModuleProcess
libGraphicsMagick.so.3:ExpandAffine
libGraphicsMagick.so.3:ExpandFilename
libGraphicsMagick.so.3:ExpandFilenames
libGraphicsMagick.so.3:ExportImageChannel
libGraphicsMagick.so.3:ExportImagePixelArea
libGraphicsMagick.so.3:ExportPixelAreaOptionsInit
libGraphicsMagick.so.3:ExportViewPixelArea
libGraphicsMagick.so.3:ExtentImage
libGraphicsMagick.so.3:FileToBlob
libGraphicsMagick.so.3:FinalizeSignature
libGraphicsMagick.so.3:FlattenImages
libGraphicsMagick.so.3:FlipImage
libGraphicsMagick.so.3:FlopImage
libGraphicsMagick.so.3:FormatSize
libGraphicsMagick.so.3:FormatString
libGraphicsMagick.so.3:FormatStringList
libGraphicsMagick.so.3:FrameImage
libGraphicsMagick.so.3:FuzzyColorMatch
libGraphicsMagick.so.3:GMCommand
libGraphicsMagick.so.3:GammaImage
libGraphicsMagick.so.3:GaussianBlurImage
libGraphicsMagick.so.3:GaussianBlurImageChannel
libGraphicsMagick.so.3:GenerateDifferentialNoise
libGraphicsMagick.so.3:GenerateNoise
libGraphicsMagick.so.3:GetBlobFileHandle
libGraphicsMagick.so.3:GetBlobFirstErrno
libGraphicsMagick.so.3:GetBlobInfo
libGraphicsMagick.so.3:GetBlobIsOpen
libGraphicsMagick.so.3:GetBlobSize
libGraphicsMagick.so.3:GetBlobStatus
libGraphicsMagick.so.3:GetBlobStreamData
libGraphicsMagick.so.3:GetBlobTemporary
libGraphicsMagick.so.3:GetCacheInfo
libGraphicsMagick.so.3:GetCacheView
libGraphicsMagick.so.3:GetCacheViewArea
libGraphicsMagick.so.3:GetCacheViewImage
libGraphicsMagick.so.3:GetCacheViewIndexes
libGraphicsMagick.so.3:GetCacheViewPixels
libGraphicsMagick.so.3:GetCacheViewRegion
libGraphicsMagick.so.3:GetClientFilename
libGraphicsMagick.so.3:GetClientName
libGraphicsMagick.so.3:GetClientPath
libGraphicsMagick.so.3:GetColorHistogram
libGraphicsMagick.so.3:GetColorInfo
libGraphicsMagick.so.3:GetColorInfoArray
libGraphicsMagick.so.3:GetColorList
libGraphicsMagick.so.3:GetColorTuple
libGraphicsMagick.so.3:GetConfigureBlob
libGraphicsMagick.so.3:GetDelegateCommand
libGraphicsMagick.so.3:GetDelegateInfo
libGraphicsMagick.so.3:GetDrawInfo
libGraphicsMagick.so.3:GetElapsedTime
libGraphicsMagick.so.3:GetExceptionInfo
libGraphicsMagick.so.3:GetExecutionPath
libGraphicsMagick.so.3:GetExecutionPathUsingName
libGraphicsMagick.so.3:GetFirstImageInList
libGraphicsMagick.so.3:GetGeometry
libGraphicsMagick.so.3:GetImageAttribute
libGraphicsMagick.so.3:GetImageBoundingBox
libGraphicsMagick.so.3:GetImageChannelDepth
libGraphicsMagick.so.3:GetImageChannelDifference
libGraphicsMagick.so.3:GetImageChannelDistortion
libGraphicsMagick.so.3:GetImageCharacteristics
libGraphicsMagick.so.3:GetImageClipMask
libGraphicsMagick.so.3:GetImageClippingPathAttribute
libGraphicsMagick.so.3:GetImageCompositeMask
libGraphicsMagick.so.3:GetImageDepth
libGraphicsMagick.so.3:GetImageDistortion
libGraphicsMagick.so.3:GetImageException
libGraphicsMagick.so.3:GetImageFromList
libGraphicsMagick.so.3:GetImageFromMagickRegistry
libGraphicsMagick.so.3:GetImageGeometry
libGraphicsMagick.so.3:GetImageIndexInList
libGraphicsMagick.so.3:GetImageInfo
libGraphicsMagick.so.3:GetImageInfoAttribute
libGraphicsMagick.so.3:GetImageListLength
libGraphicsMagick.so.3:GetImageMagick
libGraphicsMagick.so.3:GetImagePixels
libGraphicsMagick.so.3:GetImagePixelsEx
libGraphicsMagick.so.3:GetImageProfile
libGraphicsMagick.so.3:GetImageQuantizeError
libGraphicsMagick.so.3:GetImageStatistics
libGraphicsMagick.so.3:GetImageType
libGraphicsMagick.so.3:GetImageVirtualPixelMethod
libGraphicsMagick.so.3:GetIndexes
libGraphicsMagick.so.3:GetLastImageInList
libGraphicsMagick.so.3:GetLocaleExceptionMessage
libGraphicsMagick.so.3:GetLocaleMessage
libGraphicsMagick.so.3:GetLocaleMessageFromID
libGraphicsMagick.so.3:GetMagickCopyright
libGraphicsMagick.so.3:GetMagickDimension
libGraphicsMagick.so.3:GetMagickFileFormat
libGraphicsMagick.so.3:GetMagickGeometry
libGraphicsMagick.so.3:GetMagickInfo
libGraphicsMagick.so.3:GetMagickInfoArray
libGraphicsMagick.so.3:GetMagickRegistry
libGraphicsMagick.so.3:GetMagickResource
libGraphicsMagick.so.3:GetMagickResourceLimit
libGraphicsMagick.so.3:GetMagickVersion
libGraphicsMagick.so.3:GetMagickWebSite
libGraphicsMagick.so.3:GetModuleInfo
libGraphicsMagick.so.3:GetMontageInfo
libGraphicsMagick.so.3:GetNextImageInList
libGraphicsMagick.so.3:GetNumberColors
libGraphicsMagick.so.3:GetOnePixel
libGraphicsMagick.so.3:GetOptimalKernelWidth
libGraphicsMagick.so.3:GetOptimalKernelWidth1D
libGraphicsMagick.so.3:GetOptimalKernelWidth2D
libGraphicsMagick.so.3:GetPageGeometry
libGraphicsMagick.so.3:GetPathComponent
libGraphicsMagick.so.3:GetPixelCacheArea
libGraphicsMagick.so.3:GetPixelCacheInCore
libGraphicsMagick.so.3:GetPixelCachePresent
libGraphicsMagick.so.3:GetPixels
libGraphicsMagick.so.3:GetPostscriptDelegateInfo
libGraphicsMagick.so.3:GetPreviousImageInList
libGraphicsMagick.so.3:GetQuantizeInfo
libGraphicsMagick.so.3:GetSignatureInfo
libGraphicsMagick.so.3:GetThreadViewDataSetAllocatedViews
libGraphicsMagick.so.3:GetTimerInfo
libGraphicsMagick.so.3:GetTimerResolution
libGraphicsMagick.so.3:GetToken
libGraphicsMagick.so.3:GetTypeInfo
libGraphicsMagick.so.3:GetTypeInfoByFamily
libGraphicsMagick.so.3:GetTypeList
libGraphicsMagick.so.3:GetTypeMetrics
libGraphicsMagick.so.3:GetUserTime
libGraphicsMagick.so.3:GlobExpression
libGraphicsMagick.so.3:GradientImage
libGraphicsMagick.so.3:GrayscalePseudoClassImage
libGraphicsMagick.so.3:HSLTransform
libGraphicsMagick.so.3:HWBTransform
libGraphicsMagick.so.3:HaldClutImage
libGraphicsMagick.so.3:HighlightStyleToString
libGraphicsMagick.so.3:HuffmanDecodeImage
libGraphicsMagick.so.3:HuffmanEncode2Image
libGraphicsMagick.so.3:HuffmanEncodeImage
libGraphicsMagick.so.3:Hull
libGraphicsMagick.so.3:IdentifyImageCommand
libGraphicsMagick.so.3:IdentityAffine
libGraphicsMagick.so.3:ImageGetClipMask
libGraphicsMagick.so.3:ImageGetCompositeMask
libGraphicsMagick.so.3:ImageListToArray
libGraphicsMagick.so.3:ImageToBlob
libGraphicsMagick.so.3:ImageToFile
libGraphicsMagick.so.3:ImageToHuffman2DBlob
libGraphicsMagick.so.3:ImageToJPEGBlob
libGraphicsMagick.so.3:ImageTypeToString
libGraphicsMagick.so.3:ImplodeImage
libGraphicsMagick.so.3:ImportImageChannel
libGraphicsMagick.so.3:ImportImageChannelsMasked
libGraphicsMagick.so.3:ImportImageCommand
libGraphicsMagick.so.3:ImportImagePixelArea
libGraphicsMagick.so.3:ImportPixelAreaOptionsInit
libGraphicsMagick.so.3:ImportViewPixelArea
libGraphicsMagick.so.3:InitializeColorInfo
libGraphicsMagick.so.3:InitializeConstitute
libGraphicsMagick.so.3:InitializeDelegateInfo
libGraphicsMagick.so.3:InitializeDifferenceImageOptions
libGraphicsMagick.so.3:InitializeDifferenceStatistics
libGraphicsMagick.so.3:InitializeLogInfo
libGraphicsMagick.so.3:InitializeLogInfoPost
libGraphicsMagick.so.3:InitializeMagicInfo
libGraphicsMagick.so.3:InitializeMagick
libGraphicsMagick.so.3:InitializeMagickClientPathAndName
libGraphicsMagick.so.3:InitializeMagickExceptionHandling
libGraphicsMagick.so.3:InitializeMagickModules
libGraphicsMagick.so.3:InitializeMagickMonitor
libGraphicsMagick.so.3:InitializeMagickRandomGenerator
libGraphicsMagick.so.3:InitializeMagickRandomKernel
libGraphicsMagick.so.3:InitializeMagickRegistry
libGraphicsMagick.so.3:InitializeMagickResources
libGraphicsMagick.so.3:InitializeMagickSignalHandlers
libGraphicsMagick.so.3:InitializePixelIteratorOptions
libGraphicsMagick.so.3:InitializeSemaphore
libGraphicsMagick.so.3:InitializeTemporaryFiles
libGraphicsMagick.so.3:InitializeTypeInfo
libGraphicsMagick.so.3:InsertImageInList
libGraphicsMagick.so.3:InterlaceTypeToString
libGraphicsMagick.so.3:InterpolateColor
libGraphicsMagick.so.3:InterpolateViewColor
libGraphicsMagick.so.3:InvokeDelegate
libGraphicsMagick.so.3:InvokePostscriptDelegate
libGraphicsMagick.so.3:IsAccessible
libGraphicsMagick.so.3:IsAccessibleAndNotEmpty
libGraphicsMagick.so.3:IsAccessibleNoLogging
libGraphicsMagick.so.3:IsEventLogging
libGraphicsMagick.so.3:IsGeometry
libGraphicsMagick.so.3:IsGlob
libGraphicsMagick.so.3:IsGrayImage
libGraphicsMagick.so.3:IsImagesEqual
libGraphicsMagick.so.3:IsMagickConflict
libGraphicsMagick.so.3:IsMonochromeImage
libGraphicsMagick.so.3:IsOpaqueImage
libGraphicsMagick.so.3:IsPaletteImage
libGraphicsMagick.so.3:IsSubimage
libGraphicsMagick.so.3:IsTaintImage
libGraphicsMagick.so.3:IsWriteable
libGraphicsMagick.so.3:LZWEncode2Image
libGraphicsMagick.so.3:LZWEncodeImage
libGraphicsMagick.so.3:LevelImage
libGraphicsMagick.so.3:LevelImageChannel
libGraphicsMagick.so.3:LiberateMagickResource
libGraphicsMagick.so.3:LiberateMemory
libGraphicsMagick.so.3:LiberateSemaphoreInfo
libGraphicsMagick.so.3:LiberateTemporaryFile
libGraphicsMagick.so.3:ListColorInfo
libGraphicsMagick.so.3:ListDelegateInfo
libGraphicsMagick.so.3:ListFiles
libGraphicsMagick.so.3:ListMagicInfo
libGraphicsMagick.so.3:ListMagickInfo
libGraphicsMagick.so.3:ListMagickResourceInfo
libGraphicsMagick.so.3:ListModuleInfo
libGraphicsMagick.so.3:ListModuleMap
libGraphicsMagick.so.3:ListTypeInfo
libGraphicsMagick.so.3:LocaleCompare
libGraphicsMagick.so.3:LocaleLower
libGraphicsMagick.so.3:LocaleNCompare
libGraphicsMagick.so.3:LocaleUpper
libGraphicsMagick.so.3:LockSemaphoreInfo
libGraphicsMagick.so.3:LogMagickEvent
libGraphicsMagick.so.3:LogMagickEventList
libGraphicsMagick.so.3:MSBOrderLong
libGraphicsMagick.so.3:MSBOrderShort
libGraphicsMagick.so.3:MagickAllocFunctions
libGraphicsMagick.so.3:MagickArraySize
libGraphicsMagick.so.3:MagickAtoFChk
libGraphicsMagick.so.3:MagickAtoIChk
libGraphicsMagick.so.3:MagickAtoLChk
libGraphicsMagick.so.3:MagickAtoUIChk
libGraphicsMagick.so.3:MagickAtoULChk
libGraphicsMagick.so.3:MagickBitStreamInitializeRead
libGraphicsMagick.so.3:MagickBitStreamInitializeWrite
libGraphicsMagick.so.3:MagickBitStreamMSBRead
libGraphicsMagick.so.3:MagickBitStreamMSBWrite
libGraphicsMagick.so.3:MagickCloneMemory
libGraphicsMagick.so.3:MagickCommand
libGraphicsMagick.so.3:MagickCompositeImageUnderColor
libGraphicsMagick.so.3:MagickConfirmAccess
libGraphicsMagick.so.3:MagickConstrainColormapIndex
libGraphicsMagick.so.3:MagickCreateDirectoryPath
libGraphicsMagick.so.3:MagickDestroyCommandInfo
libGraphicsMagick.so.3:MagickError
libGraphicsMagick.so.3:MagickFatalError
libGraphicsMagick.so.3:MagickFindRawImageMinMax
libGraphicsMagick.so.3:MagickFmax
libGraphicsMagick.so.3:MagickFmin
libGraphicsMagick.so.3:MagickFormatString
libGraphicsMagick.so.3:MagickFormatStringList
libGraphicsMagick.so.3:MagickFree
libGraphicsMagick.so.3:MagickFreeAligned
libGraphicsMagick.so.3:MagickGetBitRevTable
libGraphicsMagick.so.3:MagickGetFileAttributes
libGraphicsMagick.so.3:MagickGetFileSystemBlockSize
libGraphicsMagick.so.3:MagickGetMMUPageSize
libGraphicsMagick.so.3:MagickGetQuantumSamplesPerPixel
libGraphicsMagick.so.3:MagickGetToken
libGraphicsMagick.so.3:MagickInitializeCommandInfo
libGraphicsMagick.so.3:MagickIsTrue
libGraphicsMagick.so.3:MagickMalloc
libGraphicsMagick.so.3:MagickMallocAligned
libGraphicsMagick.so.3:MagickMallocAlignedArray
libGraphicsMagick.so.3:MagickMallocArray
libGraphicsMagick.so.3:MagickMallocCleared
libGraphicsMagick.so.3:MagickMapAccessEntry
libGraphicsMagick.so.3:MagickMapAddEntry
libGraphicsMagick.so.3:MagickMapAllocateIterator
libGraphicsMagick.so.3:MagickMapAllocateMap
libGraphicsMagick.so.3:MagickMapClearMap
libGraphicsMagick.so.3:MagickMapCloneMap
libGraphicsMagick.so.3:MagickMapCopyBlob
libGraphicsMagick.so.3:MagickMapCopyString
libGraphicsMagick.so.3:MagickMapDeallocateBlob
libGraphicsMagick.so.3:MagickMapDeallocateIterator
libGraphicsMagick.so.3:MagickMapDeallocateMap
libGraphicsMagick.so.3:MagickMapDeallocateString
libGraphicsMagick.so.3:MagickMapDereferenceIterator
libGraphicsMagick.so.3:MagickMapIterateNext
libGraphicsMagick.so.3:MagickMapIteratePrevious
libGraphicsMagick.so.3:MagickMapIterateToBack
libGraphicsMagick.so.3:MagickMapIterateToFront
libGraphicsMagick.so.3:MagickMapRemoveEntry
libGraphicsMagick.so.3:MagickMonitor
libGraphicsMagick.so.3:MagickMonitorActive
libGraphicsMagick.so.3:MagickMonitorFormatted
libGraphicsMagick.so.3:MagickRandNewSeed
libGraphicsMagick.so.3:MagickRandReentrant
libGraphicsMagick.so.3:MagickRandomInteger
libGraphicsMagick.so.3:MagickRandomReal
libGraphicsMagick.so.3:MagickRealloc
libGraphicsMagick.so.3:MagickReverseBits
libGraphicsMagick.so.3:MagickSceneFileName
libGraphicsMagick.so.3:MagickSetConfirmAccessHandler
libGraphicsMagick.so.3:MagickSetFileAttributes
libGraphicsMagick.so.3:MagickSetFileSystemBlockSize
libGraphicsMagick.so.3:MagickSizeStrToInt64
libGraphicsMagick.so.3:MagickSpawnVP
libGraphicsMagick.so.3:MagickStripSpacesFromString
libGraphicsMagick.so.3:MagickStrlCat
libGraphicsMagick.so.3:MagickStrlCpy
libGraphicsMagick.so.3:MagickStrlCpyTrunc
libGraphicsMagick.so.3:MagickSwabArrayOfDouble
libGraphicsMagick.so.3:MagickSwabArrayOfFloat
libGraphicsMagick.so.3:MagickSwabArrayOfUInt16
libGraphicsMagick.so.3:MagickSwabArrayOfUInt32
libGraphicsMagick.so.3:MagickSwabDouble
libGraphicsMagick.so.3:MagickSwabFloat
libGraphicsMagick.so.3:MagickSwabUInt16
libGraphicsMagick.so.3:MagickSwabUInt32
libGraphicsMagick.so.3:MagickToMime
libGraphicsMagick.so.3:MagickTsdGetSpecific
libGraphicsMagick.so.3:MagickTsdKeyCreate
libGraphicsMagick.so.3:MagickTsdKeyCreate2
libGraphicsMagick.so.3:MagickTsdKeyDelete
libGraphicsMagick.so.3:MagickTsdSetSpecific
libGraphicsMagick.so.3:MagickWarning
libGraphicsMagick.so.3:MagickWordStreamInitializeRead
libGraphicsMagick.so.3:MagickWordStreamInitializeWrite
libGraphicsMagick.so.3:MagickWordStreamLSBRead
libGraphicsMagick.so.3:MagickWordStreamLSBWrite
libGraphicsMagick.so.3:MagickWordStreamLSBWriteFlush
libGraphicsMagick.so.3:MagickXAnimateBackgroundImage
libGraphicsMagick.so.3:MagickXAnimateImages
libGraphicsMagick.so.3:MagickXAnnotateImage
libGraphicsMagick.so.3:MagickXBestFont
libGraphicsMagick.so.3:MagickXBestIconSize
libGraphicsMagick.so.3:MagickXBestPixel
libGraphicsMagick.so.3:MagickXBestVisualInfo
libGraphicsMagick.so.3:MagickXCheckRefreshWindows
libGraphicsMagick.so.3:MagickXClientMessage
libGraphicsMagick.so.3:MagickXColorBrowserWidget
libGraphicsMagick.so.3:MagickXCommandWidget
libGraphicsMagick.so.3:MagickXConfigureImageColormap
libGraphicsMagick.so.3:MagickXConfirmWidget
libGraphicsMagick.so.3:MagickXConstrainWindowPosition
libGraphicsMagick.so.3:MagickXDelay
libGraphicsMagick.so.3:MagickXDestroyResourceInfo
libGraphicsMagick.so.3:MagickXDestroyWindowColors
libGraphicsMagick.so.3:MagickXDestroyX11Resources
libGraphicsMagick.so.3:MagickXDestroyXWindowInfo
libGraphicsMagick.so.3:MagickXDestroyXWindows
libGraphicsMagick.so.3:MagickXDialogWidget
libGraphicsMagick.so.3:MagickXDisplayBackgroundImage
libGraphicsMagick.so.3:MagickXDisplayImage
libGraphicsMagick.so.3:MagickXDisplayImageInfo
libGraphicsMagick.so.3:MagickXDrawImage
libGraphicsMagick.so.3:MagickXError
libGraphicsMagick.so.3:MagickXFileBrowserWidget
libGraphicsMagick.so.3:MagickXFontBrowserWidget
libGraphicsMagick.so.3:MagickXFreeResources
libGraphicsMagick.so.3:MagickXFreeStandardColormap
libGraphicsMagick.so.3:MagickXGetAnnotateInfo
libGraphicsMagick.so.3:MagickXGetImportInfo
libGraphicsMagick.so.3:MagickXGetMapInfo
libGraphicsMagick.so.3:MagickXGetPixelPacket
libGraphicsMagick.so.3:MagickXGetResourceClass
libGraphicsMagick.so.3:MagickXGetResourceDatabase
libGraphicsMagick.so.3:MagickXGetResourceInfo
libGraphicsMagick.so.3:MagickXGetResourceInstance
libGraphicsMagick.so.3:MagickXGetScreenDensity
libGraphicsMagick.so.3:MagickXGetWindowColor
libGraphicsMagick.so.3:MagickXGetWindowInfo
libGraphicsMagick.so.3:MagickXHighlightEllipse
libGraphicsMagick.so.3:MagickXHighlightLine
libGraphicsMagick.so.3:MagickXHighlightRectangle
libGraphicsMagick.so.3:MagickXImportImage
libGraphicsMagick.so.3:MagickXInfoWidget
libGraphicsMagick.so.3:MagickXInitializeWindows
libGraphicsMagick.so.3:MagickXListBrowserWidget
libGraphicsMagick.so.3:MagickXMagickMonitor
libGraphicsMagick.so.3:MagickXMakeCursor
libGraphicsMagick.so.3:MagickXMakeImage
libGraphicsMagick.so.3:MagickXMakeMagnifyImage
libGraphicsMagick.so.3:MagickXMakeStandardColormap
libGraphicsMagick.so.3:MagickXMakeWindow
libGraphicsMagick.so.3:MagickXMenuWidget
libGraphicsMagick.so.3:MagickXMonitorWidget
libGraphicsMagick.so.3:MagickXNoticeWidget
libGraphicsMagick.so.3:MagickXPreferencesWidget
libGraphicsMagick.so.3:MagickXQueryColorDatabase
libGraphicsMagick.so.3:MagickXQueryPosition
libGraphicsMagick.so.3:MagickXRefreshWindow
libGraphicsMagick.so.3:MagickXRemoteCommand
libGraphicsMagick.so.3:MagickXRetainWindowColors
libGraphicsMagick.so.3:MagickXSetCursorState
libGraphicsMagick.so.3:MagickXSetWindows
libGraphicsMagick.so.3:MagickXSignalHandler
libGraphicsMagick.so.3:MagickXTextViewWidget
libGraphicsMagick.so.3:MagickXTextViewWidgetNDL
libGraphicsMagick.so.3:MagickXUserPreferences
libGraphicsMagick.so.3:MagickXWarning
libGraphicsMagick.so.3:MagickXWindowByID
libGraphicsMagick.so.3:MagickXWindowByName
libGraphicsMagick.so.3:MagickXWindowByProperty
libGraphicsMagick.so.3:MagnifyImage
libGraphicsMagick.so.3:MapBlob
libGraphicsMagick.so.3:MapImage
libGraphicsMagick.so.3:MapImages
libGraphicsMagick.so.3:MapModeToString
libGraphicsMagick.so.3:MatteFloodfillImage
libGraphicsMagick.so.3:MedianFilterImage
libGraphicsMagick.so.3:MetricTypeToString
libGraphicsMagick.so.3:MinifyImage
libGraphicsMagick.so.3:ModifyCache
libGraphicsMagick.so.3:ModifyImage
libGraphicsMagick.so.3:Modulate
libGraphicsMagick.so.3:ModulateImage
libGraphicsMagick.so.3:MogrifyImage
libGraphicsMagick.so.3:MogrifyImageCommand
libGraphicsMagick.so.3:MogrifyImages
libGraphicsMagick.so.3:MontageImageCommand
libGraphicsMagick.so.3:MontageImages
libGraphicsMagick.so.3:MorphImages
libGraphicsMagick.so.3:MosaicImages
libGraphicsMagick.so.3:MotionBlurImage
libGraphicsMagick.so.3:MultilineCensus
libGraphicsMagick.so.3:NegateImage
libGraphicsMagick.so.3:NewImageList
libGraphicsMagick.so.3:NextImageProfile
libGraphicsMagick.so.3:NoiseTypeToString
libGraphicsMagick.so.3:NormalizeImage
libGraphicsMagick.so.3:OilPaintImage
libGraphicsMagick.so.3:OpaqueImage
libGraphicsMagick.so.3:OpenBlob
libGraphicsMagick.so.3:OpenCacheView
libGraphicsMagick.so.3:OpenModule
libGraphicsMagick.so.3:OpenModules
libGraphicsMagick.so.3:OrderedDitherImage
libGraphicsMagick.so.3:OrientationTypeToString
libGraphicsMagick.so.3:PackbitsEncode2Image
libGraphicsMagick.so.3:PackbitsEncodeImage
libGraphicsMagick.so.3:PanicDestroyMagick
libGraphicsMagick.so.3:PersistCache
libGraphicsMagick.so.3:PingBlob
libGraphicsMagick.so.3:PingImage
libGraphicsMagick.so.3:PixelIterateDualModify
libGraphicsMagick.so.3:PixelIterateDualNew
libGraphicsMagick.so.3:PixelIterateDualRead
libGraphicsMagick.so.3:PixelIterateMonoModify
libGraphicsMagick.so.3:PixelIterateMonoRead
libGraphicsMagick.so.3:PixelIterateMonoSet
libGraphicsMagick.so.3:PixelIterateTripleModify
libGraphicsMagick.so.3:PixelIterateTripleNew
libGraphicsMagick.so.3:PlasmaImage
libGraphicsMagick.so.3:PopImagePixels
libGraphicsMagick.so.3:PrependImageToList
libGraphicsMagick.so.3:ProfileImage
libGraphicsMagick.so.3:PurgeTemporaryFiles
libGraphicsMagick.so.3:PurgeTemporaryFilesAsyncSafe
libGraphicsMagick.so.3:PushImagePixels
libGraphicsMagick.so.3:QuantizeImage
libGraphicsMagick.so.3:QuantizeImages
libGraphicsMagick.so.3:QuantumOperatorImage
libGraphicsMagick.so.3:QuantumOperatorImageMultivalue
libGraphicsMagick.so.3:QuantumOperatorRegionImage
libGraphicsMagick.so.3:QuantumOperatorToString
libGraphicsMagick.so.3:QuantumSampleTypeToString
libGraphicsMagick.so.3:QuantumTypeToString
libGraphicsMagick.so.3:QueryColorDatabase
libGraphicsMagick.so.3:QueryColorname
libGraphicsMagick.so.3:RGBTransformImage
libGraphicsMagick.so.3:RaiseImage
libGraphicsMagick.so.3:RandomChannelThresholdImage
libGraphicsMagick.so.3:ReacquireMemory
libGraphicsMagick.so.3:ReadBlob
libGraphicsMagick.so.3:ReadBlobByte
libGraphicsMagick.so.3:ReadBlobLSBDouble
libGraphicsMagick.so.3:ReadBlobLSBDoubles
libGraphicsMagick.so.3:ReadBlobLSBFloat
libGraphicsMagick.so.3:ReadBlobLSBFloats
libGraphicsMagick.so.3:ReadBlobLSBLong
libGraphicsMagick.so.3:ReadBlobLSBLongs
libGraphicsMagick.so.3:ReadBlobLSBShort
libGraphicsMagick.so.3:ReadBlobLSBShorts
libGraphicsMagick.so.3:ReadBlobLSBSignedLong
libGraphicsMagick.so.3:ReadBlobLSBSignedShort
libGraphicsMagick.so.3:ReadBlobMSBDouble
libGraphicsMagick.so.3:ReadBlobMSBDoubles
libGraphicsMagick.so.3:ReadBlobMSBFloat
libGraphicsMagick.so.3:ReadBlobMSBFloats
libGraphicsMagick.so.3:ReadBlobMSBLong
libGraphicsMagick.so.3:ReadBlobMSBLongs
libGraphicsMagick.so.3:ReadBlobMSBShort
libGraphicsMagick.so.3:ReadBlobMSBShorts
libGraphicsMagick.so.3:ReadBlobMSBSignedLong
libGraphicsMagick.so.3:ReadBlobMSBSignedShort
libGraphicsMagick.so.3:ReadBlobString
libGraphicsMagick.so.3:ReadBlobZC
libGraphicsMagick.so.3:ReadImage
libGraphicsMagick.so.3:ReadInlineImage
libGraphicsMagick.so.3:ReallocateImageColormap
libGraphicsMagick.so.3:ReduceNoiseImage
libGraphicsMagick.so.3:ReferenceBlob
libGraphicsMagick.so.3:ReferenceCache
libGraphicsMagick.so.3:ReferenceImage
libGraphicsMagick.so.3:RegisterMagickInfo
libGraphicsMagick.so.3:RegisterStaticModules
libGraphicsMagick.so.3:RemoveDefinitions
libGraphicsMagick.so.3:RemoveFirstImageFromList
libGraphicsMagick.so.3:RemoveLastImageFromList
libGraphicsMagick.so.3:ReplaceImageColormap
libGraphicsMagick.so.3:ReplaceImageInList
libGraphicsMagick.so.3:ResetImagePage
libGraphicsMagick.so.3:ResetTimer
libGraphicsMagick.so.3:ResizeFilterToString
libGraphicsMagick.so.3:ResizeImage
libGraphicsMagick.so.3:ResolutionTypeToString
libGraphicsMagick.so.3:ReverseImageList
libGraphicsMagick.so.3:RollImage
libGraphicsMagick.so.3:RotateImage
libGraphicsMagick.so.3:SampleImage
libGraphicsMagick.so.3:ScaleImage
libGraphicsMagick.so.3:SeekBlob
libGraphicsMagick.so.3:SegmentImage
libGraphicsMagick.so.3:SetBlobClosable
libGraphicsMagick.so.3:SetBlobTemporary
libGraphicsMagick.so.3:SetCacheView
libGraphicsMagick.so.3:SetCacheViewPixels
libGraphicsMagick.so.3:SetClientFilename
libGraphicsMagick.so.3:SetClientName
libGraphicsMagick.so.3:SetClientPath
libGraphicsMagick.so.3:SetDelegateInfo
libGraphicsMagick.so.3:SetErrorHandler
libGraphicsMagick.so.3:SetExceptionInfo
libGraphicsMagick.so.3:SetFatalErrorHandler
libGraphicsMagick.so.3:SetGeometry
libGraphicsMagick.so.3:SetImage
libGraphicsMagick.so.3:SetImageAttribute
libGraphicsMagick.so.3:SetImageChannelDepth
libGraphicsMagick.so.3:SetImageClipMask
libGraphicsMagick.so.3:SetImageColor
libGraphicsMagick.so.3:SetImageColorRegion
libGraphicsMagick.so.3:SetImageCompositeMask
libGraphicsMagick.so.3:SetImageDepth
libGraphicsMagick.so.3:SetImageEx
libGraphicsMagick.so.3:SetImageInfo
libGraphicsMagick.so.3:SetImageOpacity
libGraphicsMagick.so.3:SetImagePixels
libGraphicsMagick.so.3:SetImagePixelsEx
libGraphicsMagick.so.3:SetImageProfile
libGraphicsMagick.so.3:SetImageType
libGraphicsMagick.so.3:SetImageVirtualPixelMethod
libGraphicsMagick.so.3:SetLogEventMask
libGraphicsMagick.so.3:SetLogFormat
libGraphicsMagick.so.3:SetLogMethod
libGraphicsMagick.so.3:SetMagickInfo
libGraphicsMagick.so.3:SetMagickRegistry
libGraphicsMagick.so.3:SetMagickResourceLimit
libGraphicsMagick.so.3:SetMonitorHandler
libGraphicsMagick.so.3:SetWarningHandler
libGraphicsMagick.so.3:ShadeImage
libGraphicsMagick.so.3:SharpenImage
libGraphicsMagick.so.3:SharpenImageChannel
libGraphicsMagick.so.3:ShaveImage
libGraphicsMagick.so.3:ShearImage
libGraphicsMagick.so.3:SignatureImage
libGraphicsMagick.so.3:SolarizeImage
libGraphicsMagick.so.3:SortColormapByIntensity
libGraphicsMagick.so.3:SpliceImageIntoList
libGraphicsMagick.so.3:SplitImageList
libGraphicsMagick.so.3:SpreadImage
libGraphicsMagick.so.3:SteganoImage
libGraphicsMagick.so.3:StereoImage
libGraphicsMagick.so.3:StorageTypeToString
libGraphicsMagick.so.3:StretchTypeToString
libGraphicsMagick.so.3:StringToArgv
libGraphicsMagick.so.3:StringToChannelType
libGraphicsMagick.so.3:StringToColorspaceType
libGraphicsMagick.so.3:StringToCompositeOperator
libGraphicsMagick.so.3:StringToCompressionType
libGraphicsMagick.so.3:StringToDouble
libGraphicsMagick.so.3:StringToEndianType
libGraphicsMagick.so.3:StringToFilterTypes
libGraphicsMagick.so.3:StringToGravityType
libGraphicsMagick.so.3:StringToHighlightStyle
libGraphicsMagick.so.3:StringToImageType
libGraphicsMagick.so.3:StringToInterlaceType
libGraphicsMagick.so.3:StringToList
libGraphicsMagick.so.3:StringToMetricType
libGraphicsMagick.so.3:StringToNoiseType
libGraphicsMagick.so.3:StringToOrientationType
libGraphicsMagick.so.3:StringToPreviewType
libGraphicsMagick.so.3:StringToQuantumOperator
libGraphicsMagick.so.3:StringToResolutionType
libGraphicsMagick.so.3:StringToResourceType
libGraphicsMagick.so.3:StringToVirtualPixelMethod
libGraphicsMagick.so.3:Strip
libGraphicsMagick.so.3:StripImage
libGraphicsMagick.so.3:StyleTypeToString
libGraphicsMagick.so.3:SubstituteString
libGraphicsMagick.so.3:SwirlImage
libGraphicsMagick.so.3:SyncCacheView
libGraphicsMagick.so.3:SyncCacheViewPixels
libGraphicsMagick.so.3:SyncImage
libGraphicsMagick.so.3:SyncImagePixels
libGraphicsMagick.so.3:SyncImagePixelsEx
libGraphicsMagick.so.3:SyncNextImageInList
libGraphicsMagick.so.3:SystemCommand
libGraphicsMagick.so.3:TellBlob
libGraphicsMagick.so.3:TextureImage
libGraphicsMagick.so.3:ThresholdImage
libGraphicsMagick.so.3:ThrowException
libGraphicsMagick.so.3:ThrowLoggedException
libGraphicsMagick.so.3:ThumbnailImage
libGraphicsMagick.so.3:TimeImageCommand
libGraphicsMagick.so.3:Tokenizer
libGraphicsMagick.so.3:TransformColorspace
libGraphicsMagick.so.3:TransformHSL
libGraphicsMagick.so.3:TransformHWB
libGraphicsMagick.so.3:TransformImage
libGraphicsMagick.so.3:TransformRGBImage
libGraphicsMagick.so.3:TransformSignature
libGraphicsMagick.so.3:TranslateText
libGraphicsMagick.so.3:TranslateTextEx
libGraphicsMagick.so.3:TransparentImage
libGraphicsMagick.so.3:UnlockSemaphoreInfo
libGraphicsMagick.so.3:UnmapBlob
libGraphicsMagick.so.3:UnregisterMagickInfo
libGraphicsMagick.so.3:UnregisterStaticModules
libGraphicsMagick.so.3:UnsharpMaskImage
libGraphicsMagick.so.3:UnsharpMaskImageChannel
libGraphicsMagick.so.3:UpdateSignature
libGraphicsMagick.so.3:WaveImage
libGraphicsMagick.so.3:WhiteThresholdImage
libGraphicsMagick.so.3:WriteBlob
libGraphicsMagick.so.3:WriteBlobByte
libGraphicsMagick.so.3:WriteBlobFile
libGraphicsMagick.so.3:WriteBlobLSBLong
libGraphicsMagick.so.3:WriteBlobLSBShort
libGraphicsMagick.so.3:WriteBlobLSBSignedLong
libGraphicsMagick.so.3:WriteBlobLSBSignedShort
libGraphicsMagick.so.3:WriteBlobMSBLong
libGraphicsMagick.so.3:WriteBlobMSBShort
libGraphicsMagick.so.3:WriteBlobMSBSignedLong
libGraphicsMagick.so.3:WriteBlobMSBSignedShort
libGraphicsMagick.so.3:WriteBlobString
libGraphicsMagick.so.3:WriteImage
libGraphicsMagick.so.3:WriteImages
libGraphicsMagick.so.3:WriteImagesFile
libGraphicsMagick.so.3:ZoomImage
libGraphicsMagick.so.3:_Gm_convert_fp16_to_fp32
libGraphicsMagick.so.3:_Gm_convert_fp24_to_fp32
libGraphicsMagick.so.3:_Gm_convert_fp32_to_fp16
libGraphicsMagick.so.3:_Gm_convert_fp32_to_fp24
libGraphicsMagick.so.3:_MagickError
libGraphicsMagick.so.3:_MagickFatalError
libGraphicsMagick.so.3:_MagickWarning
libGraphicsMagickWand.so.2:CloneMagickWand
libGraphicsMagickWand.so.2:ClonePixelWand
libGraphicsMagickWand.so.2:ClonePixelWands
libGraphicsMagickWand.so.2:CopyMagickString
libGraphicsMagickWand.so.2:DestroyMagickWand
libGraphicsMagickWand.so.2:DestroyPixelWand
libGraphicsMagickWand.so.2:FormatMagickString
libGraphicsMagickWand.so.2:FormatMagickStringList
libGraphicsMagickWand.so.2:GMPrivateConcatenateMagickString
libGraphicsMagickWand.so.2:GMPrivateImportImagePixels
libGraphicsMagickWand.so.2:GMPrivateParseAbsoluteGeometry
libGraphicsMagickWand.so.2:GMPrivateParseGeometry
libGraphicsMagickWand.so.2:GMPrivateRelinquishMagickMemory
libGraphicsMagickWand.so.2:GMPrivateResizeMagickMemory
libGraphicsMagickWand.so.2:MagickAdaptiveThresholdImage
libGraphicsMagickWand.so.2:MagickAddImage
libGraphicsMagickWand.so.2:MagickAddNoiseImage
libGraphicsMagickWand.so.2:MagickAffineTransformImage
libGraphicsMagickWand.so.2:MagickAnimateImages
libGraphicsMagickWand.so.2:MagickAnnotateImage
libGraphicsMagickWand.so.2:MagickAppendImages
libGraphicsMagickWand.so.2:MagickAutoOrientImage
libGraphicsMagickWand.so.2:MagickAverageImages
libGraphicsMagickWand.so.2:MagickBlackThresholdImage
libGraphicsMagickWand.so.2:MagickBlurImage
libGraphicsMagickWand.so.2:MagickBorderImage
libGraphicsMagickWand.so.2:MagickCdlImage
libGraphicsMagickWand.so.2:MagickCharcoalImage
libGraphicsMagickWand.so.2:MagickChopImage
libGraphicsMagickWand.so.2:MagickClearException
libGraphicsMagickWand.so.2:MagickClipImage
libGraphicsMagickWand.so.2:MagickClipPathImage
libGraphicsMagickWand.so.2:MagickCloneDrawingWand
libGraphicsMagickWand.so.2:MagickCoalesceImages
libGraphicsMagickWand.so.2:MagickColorFloodfillImage
libGraphicsMagickWand.so.2:MagickColorizeImage
libGraphicsMagickWand.so.2:MagickCommentImage
libGraphicsMagickWand.so.2:MagickCompareImageChannels
libGraphicsMagickWand.so.2:MagickCompareImages
libGraphicsMagickWand.so.2:MagickCompositeImage
libGraphicsMagickWand.so.2:MagickContrastImage
libGraphicsMagickWand.so.2:MagickConvolveImage
libGraphicsMagickWand.so.2:MagickCropImage
libGraphicsMagickWand.so.2:MagickCycleColormapImage
libGraphicsMagickWand.so.2:MagickDeconstructImages
libGraphicsMagickWand.so.2:MagickDescribeImage
libGraphicsMagickWand.so.2:MagickDespeckleImage
libGraphicsMagickWand.so.2:MagickDestroyDrawingWand
libGraphicsMagickWand.so.2:MagickDisplayImage
libGraphicsMagickWand.so.2:MagickDisplayImages
libGraphicsMagickWand.so.2:MagickDrawAffine
libGraphicsMagickWand.so.2:MagickDrawAllocateWand
libGraphicsMagickWand.so.2:MagickDrawAnnotation
libGraphicsMagickWand.so.2:MagickDrawArc
libGraphicsMagickWand.so.2:MagickDrawBezier
libGraphicsMagickWand.so.2:MagickDrawCircle
libGraphicsMagickWand.so.2:MagickDrawClearException
libGraphicsMagickWand.so.2:MagickDrawColor
libGraphicsMagickWand.so.2:MagickDrawComment
libGraphicsMagickWand.so.2:MagickDrawComposite
libGraphicsMagickWand.so.2:MagickDrawEllipse
libGraphicsMagickWand.so.2:MagickDrawGetClipPath
libGraphicsMagickWand.so.2:MagickDrawGetClipRule
libGraphicsMagickWand.so.2:MagickDrawGetClipUnits
libGraphicsMagickWand.so.2:MagickDrawGetException
libGraphicsMagickWand.so.2:MagickDrawGetFillColor
libGraphicsMagickWand.so.2:MagickDrawGetFillOpacity
libGraphicsMagickWand.so.2:MagickDrawGetFillRule
libGraphicsMagickWand.so.2:MagickDrawGetFont
libGraphicsMagickWand.so.2:MagickDrawGetFontFamily
libGraphicsMagickWand.so.2:MagickDrawGetFontSize
libGraphicsMagickWand.so.2:MagickDrawGetFontStretch
libGraphicsMagickWand.so.2:MagickDrawGetFontStyle
libGraphicsMagickWand.so.2:MagickDrawGetFontWeight
libGraphicsMagickWand.so.2:MagickDrawGetGravity
libGraphicsMagickWand.so.2:MagickDrawGetStrokeAntialias
libGraphicsMagickWand.so.2:MagickDrawGetStrokeColor
libGraphicsMagickWand.so.2:MagickDrawGetStrokeDashArray
libGraphicsMagickWand.so.2:MagickDrawGetStrokeDashOffset
libGraphicsMagickWand.so.2:MagickDrawGetStrokeLineCap
libGraphicsMagickWand.so.2:MagickDrawGetStrokeLineJoin
libGraphicsMagickWand.so.2:MagickDrawGetStrokeMiterLimit
libGraphicsMagickWand.so.2:MagickDrawGetStrokeOpacity
libGraphicsMagickWand.so.2:MagickDrawGetStrokeWidth
libGraphicsMagickWand.so.2:MagickDrawGetTextAntialias
libGraphicsMagickWand.so.2:MagickDrawGetTextDecoration
libGraphicsMagickWand.so.2:MagickDrawGetTextEncoding
libGraphicsMagickWand.so.2:MagickDrawGetTextUnderColor
libGraphicsMagickWand.so.2:MagickDrawImage
libGraphicsMagickWand.so.2:MagickDrawLine
libGraphicsMagickWand.so.2:MagickDrawMatte
libGraphicsMagickWand.so.2:MagickDrawPathClose
libGraphicsMagickWand.so.2:MagickDrawPathCurveToAbsolute
libGraphicsMagickWand.so.2:MagickDrawPathCurveToQuadraticBezierAbsolute
libGraphicsMagickWand.so.2:MagickDrawPathCurveToQuadraticBezierRelative
libGraphicsMagickWand.so.2:MagickDrawPathCurveToQuadraticBezierSmoothAbsolute
libGraphicsMagickWand.so.2:MagickDrawPathCurveToQuadraticBezierSmoothRelative
libGraphicsMagickWand.so.2:MagickDrawPathCurveToRelative
libGraphicsMagickWand.so.2:MagickDrawPathCurveToSmoothAbsolute
libGraphicsMagickWand.so.2:MagickDrawPathCurveToSmoothRelative
libGraphicsMagickWand.so.2:MagickDrawPathEllipticArcAbsolute
libGraphicsMagickWand.so.2:MagickDrawPathEllipticArcRelative
libGraphicsMagickWand.so.2:MagickDrawPathFinish
libGraphicsMagickWand.so.2:MagickDrawPathLineToAbsolute
libGraphicsMagickWand.so.2:MagickDrawPathLineToHorizontalAbsolute
libGraphicsMagickWand.so.2:MagickDrawPathLineToHorizontalRelative
libGraphicsMagickWand.so.2:MagickDrawPathLineToRelative
libGraphicsMagickWand.so.2:MagickDrawPathLineToVerticalAbsolute
libGraphicsMagickWand.so.2:MagickDrawPathLineToVerticalRelative
libGraphicsMagickWand.so.2:MagickDrawPathMoveToAbsolute
libGraphicsMagickWand.so.2:MagickDrawPathMoveToRelative
libGraphicsMagickWand.so.2:MagickDrawPathStart
libGraphicsMagickWand.so.2:MagickDrawPeekGraphicContext
libGraphicsMagickWand.so.2:MagickDrawPoint
libGraphicsMagickWand.so.2:MagickDrawPolygon
libGraphicsMagickWand.so.2:MagickDrawPolyline
libGraphicsMagickWand.so.2:MagickDrawPopClipPath
libGraphicsMagickWand.so.2:MagickDrawPopDefs
libGraphicsMagickWand.so.2:MagickDrawPopGraphicContext
libGraphicsMagickWand.so.2:MagickDrawPopPattern
libGraphicsMagickWand.so.2:MagickDrawPushClipPath
libGraphicsMagickWand.so.2:MagickDrawPushDefs
libGraphicsMagickWand.so.2:MagickDrawPushGraphicContext
libGraphicsMagickWand.so.2:MagickDrawPushPattern
libGraphicsMagickWand.so.2:MagickDrawRectangle
libGraphicsMagickWand.so.2:MagickDrawRender
libGraphicsMagickWand.so.2:MagickDrawRotate
libGraphicsMagickWand.so.2:MagickDrawRoundRectangle
libGraphicsMagickWand.so.2:MagickDrawScale
libGraphicsMagickWand.so.2:MagickDrawSetClipPath
libGraphicsMagickWand.so.2:MagickDrawSetClipRule
libGraphicsMagickWand.so.2:MagickDrawSetClipUnits
libGraphicsMagickWand.so.2:MagickDrawSetFillColor
libGraphicsMagickWand.so.2:MagickDrawSetFillOpacity
libGraphicsMagickWand.so.2:MagickDrawSetFillPatternURL
libGraphicsMagickWand.so.2:MagickDrawSetFillRule
libGraphicsMagickWand.so.2:MagickDrawSetFont
libGraphicsMagickWand.so.2:MagickDrawSetFontFamily
libGraphicsMagickWand.so.2:MagickDrawSetFontSize
libGraphicsMagickWand.so.2:MagickDrawSetFontStretch
libGraphicsMagickWand.so.2:MagickDrawSetFontStyle
libGraphicsMagickWand.so.2:MagickDrawSetFontWeight
libGraphicsMagickWand.so.2:MagickDrawSetGravity
libGraphicsMagickWand.so.2:MagickDrawSetStrokeAntialias
libGraphicsMagickWand.so.2:MagickDrawSetStrokeColor
libGraphicsMagickWand.so.2:MagickDrawSetStrokeDashArray
libGraphicsMagickWand.so.2:MagickDrawSetStrokeDashOffset
libGraphicsMagickWand.so.2:MagickDrawSetStrokeLineCap
libGraphicsMagickWand.so.2:MagickDrawSetStrokeLineJoin
libGraphicsMagickWand.so.2:MagickDrawSetStrokeMiterLimit
libGraphicsMagickWand.so.2:MagickDrawSetStrokeOpacity
libGraphicsMagickWand.so.2:MagickDrawSetStrokePatternURL
libGraphicsMagickWand.so.2:MagickDrawSetStrokeWidth
libGraphicsMagickWand.so.2:MagickDrawSetTextAntialias
libGraphicsMagickWand.so.2:MagickDrawSetTextDecoration
libGraphicsMagickWand.so.2:MagickDrawSetTextEncoding
libGraphicsMagickWand.so.2:MagickDrawSetTextUnderColor
libGraphicsMagickWand.so.2:MagickDrawSetViewbox
libGraphicsMagickWand.so.2:MagickDrawSkewX
libGraphicsMagickWand.so.2:MagickDrawSkewY
libGraphicsMagickWand.so.2:MagickDrawTranslate
libGraphicsMagickWand.so.2:MagickEdgeImage
libGraphicsMagickWand.so.2:MagickEmbossImage
libGraphicsMagickWand.so.2:MagickEnhanceImage
libGraphicsMagickWand.so.2:MagickEqualizeImage
libGraphicsMagickWand.so.2:MagickExtentImage
libGraphicsMagickWand.so.2:MagickFlattenImages
libGraphicsMagickWand.so.2:MagickFlipImage
libGraphicsMagickWand.so.2:MagickFlopImage
libGraphicsMagickWand.so.2:MagickFrameImage
libGraphicsMagickWand.so.2:MagickFxImage
libGraphicsMagickWand.so.2:MagickFxImageChannel
libGraphicsMagickWand.so.2:MagickGammaImage
libGraphicsMagickWand.so.2:MagickGammaImageChannel
libGraphicsMagickWand.so.2:MagickGetConfigureInfo
libGraphicsMagickWand.so.2:MagickGetCopyright
libGraphicsMagickWand.so.2:MagickGetException
libGraphicsMagickWand.so.2:MagickGetFilename
libGraphicsMagickWand.so.2:MagickGetHomeURL
libGraphicsMagickWand.so.2:MagickGetImage
libGraphicsMagickWand.so.2:MagickGetImageAttribute
libGraphicsMagickWand.so.2:MagickGetImageBackgroundColor
libGraphicsMagickWand.so.2:MagickGetImageBluePrimary
libGraphicsMagickWand.so.2:MagickGetImageBorderColor
libGraphicsMagickWand.so.2:MagickGetImageBoundingBox
libGraphicsMagickWand.so.2:MagickGetImageChannelDepth
libGraphicsMagickWand.so.2:MagickGetImageChannelExtrema
libGraphicsMagickWand.so.2:MagickGetImageChannelMean
libGraphicsMagickWand.so.2:MagickGetImageColormapColor
libGraphicsMagickWand.so.2:MagickGetImageColors
libGraphicsMagickWand.so.2:MagickGetImageColorspace
libGraphicsMagickWand.so.2:MagickGetImageCompose
libGraphicsMagickWand.so.2:MagickGetImageCompression
libGraphicsMagickWand.so.2:MagickGetImageDelay
libGraphicsMagickWand.so.2:MagickGetImageDepth
libGraphicsMagickWand.so.2:MagickGetImageDispose
libGraphicsMagickWand.so.2:MagickGetImageExtrema
libGraphicsMagickWand.so.2:MagickGetImageFilename
libGraphicsMagickWand.so.2:MagickGetImageFormat
libGraphicsMagickWand.so.2:MagickGetImageFuzz
libGraphicsMagickWand.so.2:MagickGetImageGamma
libGraphicsMagickWand.so.2:MagickGetImageGeometry
libGraphicsMagickWand.so.2:MagickGetImageGravity
libGraphicsMagickWand.so.2:MagickGetImageGreenPrimary
libGraphicsMagickWand.so.2:MagickGetImageHeight
libGraphicsMagickWand.so.2:MagickGetImageHistogram
libGraphicsMagickWand.so.2:MagickGetImageIndex
libGraphicsMagickWand.so.2:MagickGetImageInterlaceScheme
libGraphicsMagickWand.so.2:MagickGetImageIterations
libGraphicsMagickWand.so.2:MagickGetImageMatte
libGraphicsMagickWand.so.2:MagickGetImageMatteColor
libGraphicsMagickWand.so.2:MagickGetImageOrientation
libGraphicsMagickWand.so.2:MagickGetImagePage
libGraphicsMagickWand.so.2:MagickGetImagePixels
libGraphicsMagickWand.so.2:MagickGetImageProfile
libGraphicsMagickWand.so.2:MagickGetImageRedPrimary
libGraphicsMagickWand.so.2:MagickGetImageRenderingIntent
libGraphicsMagickWand.so.2:MagickGetImageResolution
libGraphicsMagickWand.so.2:MagickGetImageSavedType
libGraphicsMagickWand.so.2:MagickGetImageScene
libGraphicsMagickWand.so.2:MagickGetImageSignature
libGraphicsMagickWand.so.2:MagickGetImageSize
libGraphicsMagickWand.so.2:MagickGetImageType
libGraphicsMagickWand.so.2:MagickGetImageUnits
libGraphicsMagickWand.so.2:MagickGetImageVirtualPixelMethod
libGraphicsMagickWand.so.2:MagickGetImageWhitePoint
libGraphicsMagickWand.so.2:MagickGetImageWidth
libGraphicsMagickWand.so.2:MagickGetNumberImages
libGraphicsMagickWand.so.2:MagickGetPackageName
libGraphicsMagickWand.so.2:MagickGetQuantumDepth
libGraphicsMagickWand.so.2:MagickGetReleaseDate
libGraphicsMagickWand.so.2:MagickGetResourceLimit
libGraphicsMagickWand.so.2:MagickGetSamplingFactors
libGraphicsMagickWand.so.2:MagickGetSize
libGraphicsMagickWand.so.2:MagickGetVersion
libGraphicsMagickWand.so.2:MagickHaldClutImage
libGraphicsMagickWand.so.2:MagickHasColormap
libGraphicsMagickWand.so.2:MagickHasNextImage
libGraphicsMagickWand.so.2:MagickHasPreviousImage
libGraphicsMagickWand.so.2:MagickImplodeImage
libGraphicsMagickWand.so.2:MagickIsGrayImage
libGraphicsMagickWand.so.2:MagickIsMonochromeImage
libGraphicsMagickWand.so.2:MagickIsOpaqueImage
libGraphicsMagickWand.so.2:MagickIsPaletteImage
libGraphicsMagickWand.so.2:MagickLabelImage
libGraphicsMagickWand.so.2:MagickLevelImage
libGraphicsMagickWand.so.2:MagickLevelImageChannel
libGraphicsMagickWand.so.2:MagickMagnifyImage
libGraphicsMagickWand.so.2:MagickMapImage
libGraphicsMagickWand.so.2:MagickMatteFloodfillImage
libGraphicsMagickWand.so.2:MagickMedianFilterImage
libGraphicsMagickWand.so.2:MagickMinifyImage
libGraphicsMagickWand.so.2:MagickModulateImage
libGraphicsMagickWand.so.2:MagickMontageImage
libGraphicsMagickWand.so.2:MagickMorphImages
libGraphicsMagickWand.so.2:MagickMosaicImages
libGraphicsMagickWand.so.2:MagickMotionBlurImage
libGraphicsMagickWand.so.2:MagickNegateImage
libGraphicsMagickWand.so.2:MagickNegateImageChannel
libGraphicsMagickWand.so.2:MagickNewDrawingWand
libGraphicsMagickWand.so.2:MagickNextImage
libGraphicsMagickWand.so.2:MagickNormalizeImage
libGraphicsMagickWand.so.2:MagickOilPaintImage
libGraphicsMagickWand.so.2:MagickOpaqueImage
libGraphicsMagickWand.so.2:MagickOperatorImageChannel
libGraphicsMagickWand.so.2:MagickPingImage
libGraphicsMagickWand.so.2:MagickPreviewImages
libGraphicsMagickWand.so.2:MagickPreviousImage
libGraphicsMagickWand.so.2:MagickProfileImage
libGraphicsMagickWand.so.2:MagickQuantizeImage
libGraphicsMagickWand.so.2:MagickQuantizeImages
libGraphicsMagickWand.so.2:MagickQueryFontMetrics
libGraphicsMagickWand.so.2:MagickQueryFonts
libGraphicsMagickWand.so.2:MagickQueryFormats
libGraphicsMagickWand.so.2:MagickRadialBlurImage
libGraphicsMagickWand.so.2:MagickRaiseImage
libGraphicsMagickWand.so.2:MagickReadImage
libGraphicsMagickWand.so.2:MagickReadImageBlob
libGraphicsMagickWand.so.2:MagickReadImageFile
libGraphicsMagickWand.so.2:MagickReduceNoiseImage
libGraphicsMagickWand.so.2:MagickRelinquishMemory
libGraphicsMagickWand.so.2:MagickRemoveImage
libGraphicsMagickWand.so.2:MagickRemoveImageOption
libGraphicsMagickWand.so.2:MagickRemoveImageProfile
libGraphicsMagickWand.so.2:MagickResampleImage
libGraphicsMagickWand.so.2:MagickResetIterator
libGraphicsMagickWand.so.2:MagickResizeImage
libGraphicsMagickWand.so.2:MagickRollImage
libGraphicsMagickWand.so.2:MagickRotateImage
libGraphicsMagickWand.so.2:MagickSampleImage
libGraphicsMagickWand.so.2:MagickScaleImage
libGraphicsMagickWand.so.2:MagickSeparateImageChannel
libGraphicsMagickWand.so.2:MagickSetCompressionQuality
libGraphicsMagickWand.so.2:MagickSetDepth
libGraphicsMagickWand.so.2:MagickSetFilename
libGraphicsMagickWand.so.2:MagickSetFormat
libGraphicsMagickWand.so.2:MagickSetImage
libGraphicsMagickWand.so.2:MagickSetImageAttribute
libGraphicsMagickWand.so.2:MagickSetImageBackgroundColor
libGraphicsMagickWand.so.2:MagickSetImageBluePrimary
libGraphicsMagickWand.so.2:MagickSetImageBorderColor
libGraphicsMagickWand.so.2:MagickSetImageChannelDepth
libGraphicsMagickWand.so.2:MagickSetImageColormapColor
libGraphicsMagickWand.so.2:MagickSetImageColorspace
libGraphicsMagickWand.so.2:MagickSetImageCompose
libGraphicsMagickWand.so.2:MagickSetImageCompression
libGraphicsMagickWand.so.2:MagickSetImageDelay
libGraphicsMagickWand.so.2:MagickSetImageDepth
libGraphicsMagickWand.so.2:MagickSetImageDispose
libGraphicsMagickWand.so.2:MagickSetImageFilename
libGraphicsMagickWand.so.2:MagickSetImageFormat
libGraphicsMagickWand.so.2:MagickSetImageFuzz
libGraphicsMagickWand.so.2:MagickSetImageGamma
libGraphicsMagickWand.so.2:MagickSetImageGeometry
libGraphicsMagickWand.so.2:MagickSetImageGravity
libGraphicsMagickWand.so.2:MagickSetImageGreenPrimary
libGraphicsMagickWand.so.2:MagickSetImageIndex
libGraphicsMagickWand.so.2:MagickSetImageInterlaceScheme
libGraphicsMagickWand.so.2:MagickSetImageIterations
libGraphicsMagickWand.so.2:MagickSetImageMatte
libGraphicsMagickWand.so.2:MagickSetImageMatteColor
libGraphicsMagickWand.so.2:MagickSetImageOption
libGraphicsMagickWand.so.2:MagickSetImageOrientation
libGraphicsMagickWand.so.2:MagickSetImagePage
libGraphicsMagickWand.so.2:MagickSetImagePixels
libGraphicsMagickWand.so.2:MagickSetImageProfile
libGraphicsMagickWand.so.2:MagickSetImageRedPrimary
libGraphicsMagickWand.so.2:MagickSetImageRenderingIntent
libGraphicsMagickWand.so.2:MagickSetImageResolution
libGraphicsMagickWand.so.2:MagickSetImageSavedType
libGraphicsMagickWand.so.2:MagickSetImageScene
libGraphicsMagickWand.so.2:MagickSetImageType
libGraphicsMagickWand.so.2:MagickSetImageUnits
libGraphicsMagickWand.so.2:MagickSetImageVirtualPixelMethod
libGraphicsMagickWand.so.2:MagickSetImageWhitePoint
libGraphicsMagickWand.so.2:MagickSetInterlaceScheme
libGraphicsMagickWand.so.2:MagickSetPassphrase
libGraphicsMagickWand.so.2:MagickSetResolution
libGraphicsMagickWand.so.2:MagickSetResolutionUnits
libGraphicsMagickWand.so.2:MagickSetResourceLimit
libGraphicsMagickWand.so.2:MagickSetSamplingFactors
libGraphicsMagickWand.so.2:MagickSetSize
libGraphicsMagickWand.so.2:MagickSharpenImage
libGraphicsMagickWand.so.2:MagickShaveImage
libGraphicsMagickWand.so.2:MagickShearImage
libGraphicsMagickWand.so.2:MagickSolarizeImage
libGraphicsMagickWand.so.2:MagickSpreadImage
libGraphicsMagickWand.so.2:MagickSteganoImage
libGraphicsMagickWand.so.2:MagickStereoImage
libGraphicsMagickWand.so.2:MagickStripImage
libGraphicsMagickWand.so.2:MagickSwirlImage
libGraphicsMagickWand.so.2:MagickTextureImage
libGraphicsMagickWand.so.2:MagickThresholdImage
libGraphicsMagickWand.so.2:MagickThresholdImageChannel
libGraphicsMagickWand.so.2:MagickTintImage
libGraphicsMagickWand.so.2:MagickTransformImage
libGraphicsMagickWand.so.2:MagickTransparentImage
libGraphicsMagickWand.so.2:MagickTrimImage
libGraphicsMagickWand.so.2:MagickUnsharpMaskImage
libGraphicsMagickWand.so.2:MagickWaveImage
libGraphicsMagickWand.so.2:MagickWhiteThresholdImage
libGraphicsMagickWand.so.2:MagickWriteImage
libGraphicsMagickWand.so.2:MagickWriteImageBlob
libGraphicsMagickWand.so.2:MagickWriteImageFile
libGraphicsMagickWand.so.2:MagickWriteImages
libGraphicsMagickWand.so.2:MagickWriteImagesFile
libGraphicsMagickWand.so.2:NewMagickWand
libGraphicsMagickWand.so.2:NewPixelWand
libGraphicsMagickWand.so.2:NewPixelWands
libGraphicsMagickWand.so.2:PixelGetBlack
libGraphicsMagickWand.so.2:PixelGetBlackQuantum
libGraphicsMagickWand.so.2:PixelGetBlue
libGraphicsMagickWand.so.2:PixelGetBlueQuantum
libGraphicsMagickWand.so.2:PixelGetColorAsString
libGraphicsMagickWand.so.2:PixelGetColorCount
libGraphicsMagickWand.so.2:PixelGetCyan
libGraphicsMagickWand.so.2:PixelGetCyanQuantum
libGraphicsMagickWand.so.2:PixelGetException
libGraphicsMagickWand.so.2:PixelGetGreen
libGraphicsMagickWand.so.2:PixelGetGreenQuantum
libGraphicsMagickWand.so.2:PixelGetMagenta
libGraphicsMagickWand.so.2:PixelGetMagentaQuantum
libGraphicsMagickWand.so.2:PixelGetOpacity
libGraphicsMagickWand.so.2:PixelGetOpacityQuantum
libGraphicsMagickWand.so.2:PixelGetQuantumColor
libGraphicsMagickWand.so.2:PixelGetRed
libGraphicsMagickWand.so.2:PixelGetRedQuantum
libGraphicsMagickWand.so.2:PixelGetYellow
libGraphicsMagickWand.so.2:PixelGetYellowQuantum
libGraphicsMagickWand.so.2:PixelSetBlack
libGraphicsMagickWand.so.2:PixelSetBlackQuantum
libGraphicsMagickWand.so.2:PixelSetBlue
libGraphicsMagickWand.so.2:PixelSetBlueQuantum
libGraphicsMagickWand.so.2:PixelSetColor
libGraphicsMagickWand.so.2:PixelSetColorCount
libGraphicsMagickWand.so.2:PixelSetCyan
libGraphicsMagickWand.so.2:PixelSetCyanQuantum
libGraphicsMagickWand.so.2:PixelSetGreen
libGraphicsMagickWand.so.2:PixelSetGreenQuantum
libGraphicsMagickWand.so.2:PixelSetMagenta
libGraphicsMagickWand.so.2:PixelSetMagentaQuantum
libGraphicsMagickWand.so.2:PixelSetOpacity
libGraphicsMagickWand.so.2:PixelSetOpacityQuantum
libGraphicsMagickWand.so.2:PixelSetQuantumColor
libGraphicsMagickWand.so.2:PixelSetRed
libGraphicsMagickWand.so.2:PixelSetRedQuantum
libGraphicsMagickWand.so.2:PixelSetYellow
libGraphicsMagickWand.so.2:PixelSetYellowQuantum
libGraphicsMagickWand.so.2:QueryMagickColor
