UNKNOWN:PyArg_ParseTupleAndKeywords
UNKNOWN:PyBytes_AsString
UNKNOWN:PyBytes_AsStringAndSize
UNKNOWN:PyBytes_FromObject
UNKNOWN:PyBytes_Size
UNKNOWN:PyBytes_Type
UNKNOWN:PyDict_New
UNKNOWN:PyDict_SetItem
UNKNOWN:PyDict_SetItemString
UNKNOWN:PyErr_Clear
UNKNOWN:PyErr_SetNone
UNKNOWN:PyErr_SetString
UNKNOWN:PyExc_RuntimeError
UNKNOWN:PyExc_StopIteration
UNKNOWN:PyExc_TypeError
UNKNOWN:PyExc_ValueError
UNKNOWN:PyFloat_FromDouble
UNKNOWN:PyImport_ImportModule
UNKNOWN:PyList_Append
UNKNOWN:PyList_New
UNKNOWN:PyLong_FromLong
UNKNOWN:PyModule_AddObject
UNKNOWN:PyModule_Create2
UNKNOWN:PyModule_GetState
UNKNOWN:PyObject_CallFunction
UNKNOWN:PyObject_GetAttrString
UNKNOWN:PyObject_HasAttrString
UNKNOWN:PyObject_Str
UNKNOWN:PySet_Add
UNKNOWN:PySet_New
UNKNOWN:PyTuple_GetItem
UNKNOWN:PyTuple_New
UNKNOWN:PyTuple_SetItem
UNKNOWN:PyTuple_Size
UNKNOWN:PyType_IsSubtype
UNKNOWN:PyType_Ready
UNKNOWN:PyUnicode_AsUTF8
UNKNOWN:PyUnicode_AsUTF8AndSize
UNKNOWN:PyUnicode_FromObject
UNKNOWN:PyUnicode_FromString
UNKNOWN:PyUnicode_FromStringAndSize
UNKNOWN:PyUnicode_Type
UNKNOWN:_Py_Dealloc
UNKNOWN:_Py_FalseStruct
UNKNOWN:_Py_NoneStruct
UNKNOWN:_Py_TrueStruct
UNKNOWN:_ZTIN5boost15program_options22error_with_option_nameE
UNKNOWN:_ZTIN5boost15program_options29value_semantic_codecvt_helperIcEE
UNKNOWN:_ZTIN5ixion26formula_registration_errorE
UNKNOWN:_ZTIN5ixion5iface13table_handlerE
UNKNOWN:_ZTIN5orcus11spreadsheet5iface12import_sheetE
UNKNOWN:_ZTIN5orcus11spreadsheet5iface12import_tableE
UNKNOWN:_ZTIN5orcus11spreadsheet5iface14import_factoryE
UNKNOWN:_ZTIN5orcus11spreadsheet5iface14import_formulaE
UNKNOWN:_ZTIN5orcus11spreadsheet5iface17import_sheet_viewE
UNKNOWN:_ZTIN5orcus11spreadsheet5iface20import_array_formulaE
UNKNOWN:_ZTIN5orcus11spreadsheet5iface23import_named_expressionE
UNKNOWN:_ZTIN5orcus11spreadsheet5iface25import_reference_resolverE
UNKNOWN:_ZTIN5orcus11spreadsheet5iface26import_pivot_cache_recordsE
UNKNOWN:_ZTIN5orcus11spreadsheet5iface29import_pivot_cache_definitionE
UNKNOWN:_ZTIN5orcus11spreadsheet5iface30import_pivot_cache_field_groupE
UNKNOWN:_ZTIN5orcus11value_errorE
UNKNOWN:_ZTIN5orcus11xpath_errorE
UNKNOWN:_ZTIN5orcus13general_errorE
UNKNOWN:_ZTIN5orcus17invalid_arg_errorE
UNKNOWN:_ZTIN5orcus17invalid_map_errorE
UNKNOWN:_ZTIN5orcus19xml_structure_errorE
UNKNOWN:_ZTIN5orcus20json_structure_errorE
UNKNOWN:_ZTIN5orcus3csv11parse_errorE
UNKNOWN:_ZTIN5orcus3sax19malformed_xml_errorE
UNKNOWN:_ZTIN5orcus5iface15document_dumperE
UNKNOWN:_ZTIN5orcus9zip_errorE
UNKNOWN:_ZTVN5boost15program_options13variables_mapE
UNKNOWN:_ZTVN5boost15program_options22error_with_option_nameE
UNKNOWN:_ZTVN5orcus9orcus_csvE
libboost_filesystem.so.1.72.0:_ZN5boost10filesystem4pathdVERKS1_
libboost_filesystem.so.1.72.0:_ZN5boost10filesystem6detail16create_directoryERKNS0_4pathEPNS_6system10error_codeE
libboost_filesystem.so.1.72.0:_ZN5boost10filesystem6detail6statusERKNS0_4pathEPNS_6system10error_codeE
libboost_filesystem.so.1.72.0:_ZN5boost10filesystem6detail9file_sizeERKNS0_4pathEPNS_6system10error_codeE
libboost_filesystem.so.1.72.0:_ZNK5boost10filesystem4path11parent_pathEv
libboost_iostreams.so.1.72.0:_ZN5boost9iostreams10zlib_error5checkEi
libboost_iostreams.so.1.72.0:_ZN5boost9iostreams4zlib10stream_endE
libboost_iostreams.so.1.72.0:_ZN5boost9iostreams4zlib10sync_flushE
libboost_iostreams.so.1.72.0:_ZN5boost9iostreams4zlib16default_strategyE
libboost_iostreams.so.1.72.0:_ZN5boost9iostreams4zlib19default_compressionE
libboost_iostreams.so.1.72.0:_ZN5boost9iostreams4zlib4okayE
libboost_iostreams.so.1.72.0:_ZN5boost9iostreams4zlib8deflatedE
libboost_iostreams.so.1.72.0:_ZN5boost9iostreams6detail11gzip_footer5resetEv
libboost_iostreams.so.1.72.0:_ZN5boost9iostreams6detail11gzip_footer7processEc
libboost_iostreams.so.1.72.0:_ZN5boost9iostreams6detail11gzip_header5resetEv
libboost_iostreams.so.1.72.0:_ZN5boost9iostreams6detail11gzip_header7processEc
libboost_iostreams.so.1.72.0:_ZN5boost9iostreams6detail9zlib_base5afterERPKcRPcb
libboost_iostreams.so.1.72.0:_ZN5boost9iostreams6detail9zlib_base5resetEbb
libboost_iostreams.so.1.72.0:_ZN5boost9iostreams6detail9zlib_base6beforeERPKcS4_RPcS6_
libboost_iostreams.so.1.72.0:_ZN5boost9iostreams6detail9zlib_base7do_initERKNS0_11zlib_paramsEbPFPvS6_jjEPFvS6_S6_ES6_
libboost_iostreams.so.1.72.0:_ZN5boost9iostreams6detail9zlib_base8xinflateEi
libboost_iostreams.so.1.72.0:_ZN5boost9iostreams6detail9zlib_baseC2Ev
libboost_iostreams.so.1.72.0:_ZN5boost9iostreams6detail9zlib_baseD2Ev
libboost_program_options.so.1.72.0:_ZN5boost15program_options10validators22check_first_occurrenceERKNS_3anyE
libboost_program_options.so.1.72.0:_ZN5boost15program_options11bool_switchEPb
libboost_program_options.so.1.72.0:_ZN5boost15program_options11to_internalERKNSt7__cxx1112basic_stringIcSt11char_traitsIcESaIcEEE
libboost_program_options.so.1.72.0:_ZN5boost15program_options13variables_mapC1Ev
libboost_program_options.so.1.72.0:_ZN5boost15program_options16validation_error12get_templateB5cxx11ENS1_6kind_tE
libboost_program_options.so.1.72.0:_ZN5boost15program_options19options_description11add_optionsEv
libboost_program_options.so.1.72.0:_ZN5boost15program_options19options_description21m_default_line_lengthE
libboost_program_options.so.1.72.0:_ZN5boost15program_options19options_description3addERKS1_
libboost_program_options.so.1.72.0:_ZN5boost15program_options19options_descriptionC1ERKNSt7__cxx1112basic_stringIcSt11char_traitsIcESaIcEEEjj
libboost_program_options.so.1.72.0:_ZN5boost15program_options19options_descriptionC1Ejj
libboost_program_options.so.1.72.0:_ZN5boost15program_options20invalid_option_valueC1ERKNSt7__cxx1112basic_stringIcSt11char_traitsIcESaIcEEE
libboost_program_options.so.1.72.0:_ZN5boost15program_options22error_with_option_nameC2ERKNSt7__cxx1112basic_stringIcSt11char_traitsIcESaIcEEES9_S9_i
libboost_program_options.so.1.72.0:_ZN5boost15program_options29options_description_easy_initclEPKcPKNS0_14value_semanticES3_
libboost_program_options.so.1.72.0:_ZN5boost15program_options29options_description_easy_initclEPKcS3_
libboost_program_options.so.1.72.0:_ZN5boost15program_options30positional_options_description3addEPKci
libboost_program_options.so.1.72.0:_ZN5boost15program_options30positional_options_descriptionC1Ev
libboost_program_options.so.1.72.0:_ZN5boost15program_options3argB5cxx11E
libboost_program_options.so.1.72.0:_ZN5boost15program_options5storeERKNS0_20basic_parsed_optionsIcEERNS0_13variables_mapEb
libboost_program_options.so.1.72.0:_ZN5boost15program_options6detail7cmdline22set_positional_optionsERKNS0_30positional_options_descriptionE
libboost_program_options.so.1.72.0:_ZN5boost15program_options6detail7cmdline23set_options_descriptionERKNS0_19options_descriptionE
libboost_program_options.so.1.72.0:_ZN5boost15program_options6detail7cmdline27get_canonical_option_prefixEv
libboost_program_options.so.1.72.0:_ZN5boost15program_options6detail7cmdline3runEv
libboost_program_options.so.1.72.0:_ZN5boost15program_options6detail7cmdlineC2ERKSt6vectorINSt7__cxx1112basic_stringIcSt11char_traitsIcESaIcEEESaIS9_EE
libboost_program_options.so.1.72.0:_ZN5boost15program_options6notifyERNS0_13variables_mapE
libboost_program_options.so.1.72.0:_ZN5boost15program_options8validateERNS_3anyERKSt6vectorINSt7__cxx1112basic_stringIcSt11char_traitsIcESaIcEEESaIS9_EEPS9_i
libboost_program_options.so.1.72.0:_ZN5boost15program_optionslsERSoRKNS0_19options_descriptionE
libboost_program_options.so.1.72.0:_ZNK5boost15program_options22abstract_variables_mapixERKNSt7__cxx1112basic_stringIcSt11char_traitsIcESaIcEEE
libboost_program_options.so.1.72.0:_ZNK5boost15program_options22error_with_option_name23substitute_placeholdersERKNSt7__cxx1112basic_stringIcSt11char_traitsIcESaIcEEE
libboost_program_options.so.1.72.0:_ZNK5boost15program_options22error_with_option_name4whatEv
libboost_program_options.so.1.72.0:_ZNK5boost15program_options29value_semantic_codecvt_helperIcE5parseERNS_3anyERKSt6vectorINSt7__cxx1112basic_stringIcSt11char_traitsIcESaIcEEESaISB_EEb
libc.so.6:__assert_fail
libc.so.6:__cxa_atexit
libc.so.6:__libc_start_main
libc.so.6:__printf_chk
libc.so.6:__stack_chk_fail
libc.so.6:fclose
libc.so.6:fopen
libc.so.6:fread
libc.so.6:fseeko
libc.so.6:fstat
libc.so.6:ftello
libc.so.6:memcmp
libc.so.6:memcpy
libc.so.6:memmove
libc.so.6:memset
libc.so.6:mmap
libc.so.6:munmap
libc.so.6:shmdt
libc.so.6:strcmp
libc.so.6:strerror
libc.so.6:strerror_r
libc.so.6:strlen
libc.so.6:strncpy
libc.so.6:strnlen
libc.so.6:strtod
libc.so.6:strtol
libc.so.6:strtoul
libc.so.6:sysconf
libc.so.6:tolower
libgcc_s.so.1:_Unwind_Resume
libixion-0.16.so.0:_ZN5ixion10to_addressERKNS_14formula_name_t12address_typeE
libixion-0.16.so.0:_ZN5ixion11abs_range_tC1ENS0_12init_invalidE
libixion-0.16.so.0:_ZN5ixion11abs_range_tC1ERKNS_13abs_address_tE
libixion-0.16.so.0:_ZN5ixion11abs_range_tC1Ev
libixion-0.16.so.0:_ZN5ixion13abs_address_tC1ERKS0_
libixion-0.16.so.0:_ZN5ixion13abs_address_tC1Eiii
libixion-0.16.so.0:_ZN5ixion13abs_address_tC1Ev
libixion-0.16.so.0:_ZN5ixion13invalid_sheetE
libixion-0.16.so.0:_ZN5ixion13model_context10set_configERKNS_6configE
libixion-0.16.so.0:_ZN5ixion13model_context12append_sheetEPKcm
libixion-0.16.so.0:_ZN5ixion13model_context14set_sheet_sizeERKNS_9rc_size_tE
libixion-0.16.so.0:_ZN5ixion13model_context15fill_down_cellsERKNS_13abs_address_tEm
libixion-0.16.so.0:_ZN5ixion13model_context15set_string_cellERKNS_13abs_address_tEPKcm
libixion-0.16.so.0:_ZN5ixion13model_context15set_string_cellERKNS_13abs_address_tEm
libixion-0.16.so.0:_ZN5ixion13model_context16set_boolean_cellERKNS_13abs_address_tEb
libixion-0.16.so.0:_ZN5ixion13model_context16set_formula_cellERKNS_13abs_address_tERKN5boost13intrusive_ptrINS_20formula_tokens_storeEEE
libixion-0.16.so.0:_ZN5ixion13model_context16set_formula_cellERKNS_13abs_address_tERKN5boost13intrusive_ptrINS_20formula_tokens_storeEEENS_14formula_resultE
libixion-0.16.so.0:_ZN5ixion13model_context16set_numeric_cellERKNS_13abs_address_tEd
libixion-0.16.so.0:_ZN5ixion13model_context17set_table_handlerEPNS_5iface13table_handlerE
libixion-0.16.so.0:_ZN5ixion13model_context20set_named_expressionEPKcmRKNS_13abs_address_tESt6vectorISt10unique_ptrINS_13formula_tokenESt14default_deleteIS8_EESaISB_EE
libixion-0.16.so.0:_ZN5ixion13model_context20set_named_expressionEiPKcmRKNS_13abs_address_tESt6vectorISt10unique_ptrINS_13formula_tokenESt14default_deleteIS8_EESaISB_EE
libixion-0.16.so.0:_ZN5ixion13model_context25set_grouped_formula_cellsERKNS_11abs_range_tESt6vectorISt10unique_ptrINS_13formula_tokenESt14default_deleteIS6_EESaIS9_EE
libixion-0.16.so.0:_ZN5ixion13model_context25set_grouped_formula_cellsERKNS_11abs_range_tESt6vectorISt10unique_ptrINS_13formula_tokenESt14default_deleteIS6_EESaIS9_EENS_14formula_resultE
libixion-0.16.so.0:_ZN5ixion13model_contextC1ERKNS_9rc_size_tE
libixion-0.16.so.0:_ZN5ixion13model_contextD1Ev
libixion-0.16.so.0:_ZN5ixion14abs_rc_range_tC1ERKNS_11abs_range_tE
libixion-0.16.so.0:_ZN5ixion14formula_resultC1ENS_15formula_error_tE
libixion-0.16.so.0:_ZN5ixion14formula_resultC1ENS_6matrixE
libixion-0.16.so.0:_ZN5ixion14formula_resultC1EOS0_
libixion-0.16.so.0:_ZN5ixion14formula_resultC1ERKS0_
libixion-0.16.so.0:_ZN5ixion14formula_resultC1Ev
libixion-0.16.so.0:_ZN5ixion14formula_resultD1Ev
libixion-0.16.so.0:_ZN5ixion14formula_resultaSES0_
libixion-0.16.so.0:_ZN5ixion14model_iterator4nextEv
libixion-0.16.so.0:_ZN5ixion14model_iteratorD1Ev
libixion-0.16.so.0:_ZN5ixion15empty_string_idE
libixion-0.16.so.0:_ZN5ixion15formula_group_tD1Ev
libixion-0.16.so.0:_ZN5ixion19print_formula_tokenB5cxx11ERKNS_5iface20formula_model_accessERKNS_13abs_address_tERKNS_21formula_name_resolverERKNS_13formula_tokenE
libixion-0.16.so.0:_ZN5ixion20formula_tokens_store11release_refEv
libixion-0.16.so.0:_ZN5ixion20formula_tokens_store3getEv
libixion-0.16.so.0:_ZN5ixion20formula_tokens_store6createEv
libixion-0.16.so.0:_ZN5ixion20formula_tokens_store7add_refEv
libixion-0.16.so.0:_ZN5ixion20parse_formula_stringERNS_5iface20formula_model_accessERKNS_13abs_address_tERKNS_21formula_name_resolverEPKcm
libixion-0.16.so.0:_ZN5ixion20print_formula_tokensB5cxx11ERKNS_5iface20formula_model_accessERKNS_13abs_address_tERKNS_21formula_name_resolverERKSt6vectorISt10unique_ptrINS_13formula_tokenESt14default_deleteISC_EESaISF_EE
libixion-0.16.so.0:_ZN5ixion21formula_name_resolver3getENS_23formula_name_resolver_tEPKNS_5iface20formula_model_accessE
libixion-0.16.so.0:_ZN5ixion21register_formula_cellERNS_5iface20formula_model_accessERKNS_13abs_address_tEPKNS_12formula_cellE
libixion-0.16.so.0:_ZN5ixion22calculate_sorted_cellsERNS_5iface20formula_model_accessERKSt6vectorINS_11abs_range_tESaIS4_EEm
libixion-0.16.so.0:_ZN5ixion22get_formula_error_nameENS_15formula_error_tE
libixion-0.16.so.0:_ZN5ixion26named_expressions_iterator4nextEv
libixion-0.16.so.0:_ZN5ixion26named_expressions_iteratorC1ERKS0_
libixion-0.16.so.0:_ZN5ixion26named_expressions_iteratorC1Ev
libixion-0.16.so.0:_ZN5ixion26named_expressions_iteratorD1Ev
libixion-0.16.so.0:_ZN5ixion26named_expressions_iteratoraSERKS0_
libixion-0.16.so.0:_ZN5ixion26query_and_sort_dirty_cellsERNS_5iface20formula_model_accessERKSt13unordered_setINS_11abs_range_tENS4_4hashESt8equal_toIS4_ESaIS4_EEPSA_
libixion-0.16.so.0:_ZN5ixion27create_formula_error_tokensERNS_5iface20formula_model_accessEPKcmS4_m
libixion-0.16.so.0:_ZN5ixion4initEv
libixion-0.16.so.0:_ZN5ixion5iface13table_handlerD2Ev
libixion-0.16.so.0:_ZN5ixion6configC1ERKS0_
libixion-0.16.so.0:_ZN5ixion6matrix4swapERS0_
libixion-0.16.so.0:_ZN5ixion6matrixC1EOS0_
libixion-0.16.so.0:_ZN5ixion6matrixC1EmmNS_15formula_error_tE
libixion-0.16.so.0:_ZN5ixion6matrixC1EmmRKNSt7__cxx1112basic_stringIcSt11char_traitsIcESaIcEEE
libixion-0.16.so.0:_ZN5ixion6matrixC1Emmd
libixion-0.16.so.0:_ZN5ixion6matrixC1Ev
libixion-0.16.so.0:_ZN5ixion6matrixD1Ev
libixion-0.16.so.0:_ZN5ixion8to_rangeERKNS_14formula_name_t10range_typeE
libixion-0.16.so.0:_ZN5ixion9address_tC1ERKNS_13abs_address_tE
libixion-0.16.so.0:_ZN5ixion9rc_size_tC1Eii
libixion-0.16.so.0:_ZN5ixion9rc_size_tD1Ev
libixion-0.16.so.0:_ZN5ixioneqERKNS_11abs_range_tES2_
libixion-0.16.so.0:_ZNK5ixion11abs_range_t4hashclERKS0_
libixion-0.16.so.0:_ZNK5ixion11abs_range_t5validEv
libixion-0.16.so.0:_ZNK5ixion11abs_range_t8containsERKNS_13abs_address_tE
libixion-0.16.so.0:_ZNK5ixion12formula_cell10get_tokensEv
libixion-0.16.so.0:_ZNK5ixion12formula_cell16get_result_cacheENS_28formula_result_wait_policy_tE
libixion-0.16.so.0:_ZNK5ixion12formula_cell19get_parent_positionERKNS_13abs_address_tE
libixion-0.16.so.0:_ZNK5ixion12formula_cell20get_group_propertiesEv
libixion-0.16.so.0:_ZNK5ixion13formula_token10get_opcodeEv
libixion-0.16.so.0:_ZNK5ixion13model_context10get_configEv
libixion-0.16.so.0:_ZNK5ixion13model_context11get_columnsEi
libixion-0.16.so.0:_ZNK5ixion13model_context14get_data_rangeEi
libixion-0.16.so.0:_ZNK5ixion13model_context14get_sheet_sizeEv
libixion-0.16.so.0:_ZNK5ixion13model_context16get_string_countEv
libixion-0.16.so.0:_ZNK5ixion13model_context18get_model_iteratorEiNS_14rc_direction_tERKNS_14abs_rc_range_tE
libixion-0.16.so.0:_ZNK5ixion13model_context30get_named_expressions_iteratorEi
libixion-0.16.so.0:_ZNK5ixion13model_context30get_named_expressions_iteratorEv
libixion-0.16.so.0:_ZNK5ixion14formula_result10get_stringB5cxx11Ev
libixion-0.16.so.0:_ZNK5ixion14formula_result3strB5cxx11ERKNS_5iface20formula_model_accessE
libixion-0.16.so.0:_ZNK5ixion14formula_result8get_typeEv
libixion-0.16.so.0:_ZNK5ixion14formula_result9get_errorEv
libixion-0.16.so.0:_ZNK5ixion14formula_result9get_valueEv
libixion-0.16.so.0:_ZNK5ixion14model_iterator3getEv
libixion-0.16.so.0:_ZNK5ixion14model_iterator3hasEv
libixion-0.16.so.0:_ZNK5ixion26named_expressions_iterator3getEv
libixion-0.16.so.0:_ZNK5ixion26named_expressions_iterator3hasEv
libixion-0.16.so.0:_ZNK5ixion26named_expressions_iterator4sizeEv
libixion-0.16.so.0:_ZNK5ixion7range_t6to_absERKNS_13abs_address_tE
libixion-0.16.so.0:_ZNK5ixion9address_t6to_absERKNS_13abs_address_tE
libm.so.6:pow
libpthread.so.0:__errno_location
libpthread.so.0:close
libpthread.so.0:open
libpthread.so.0:pthread_create
libstdc++.so.6:_ZNKSt11logic_error4whatEv
libstdc++.so.6:_ZNKSt13runtime_error4whatEv
libstdc++.so.6:_ZNKSt25__codecvt_utf8_utf16_baseIDsE10do_unshiftER11__mbstate_tPcS3_RS3_
libstdc++.so.6:_ZNKSt25__codecvt_utf8_utf16_baseIDsE11do_encodingEv
libstdc++.so.6:_ZNKSt25__codecvt_utf8_utf16_baseIDsE13do_max_lengthEv
libstdc++.so.6:_ZNKSt25__codecvt_utf8_utf16_baseIDsE16do_always_noconvEv
libstdc++.so.6:_ZNKSt25__codecvt_utf8_utf16_baseIDsE5do_inER11__mbstate_tPKcS4_RS4_PDsS6_RS6_
libstdc++.so.6:_ZNKSt25__codecvt_utf8_utf16_baseIDsE6do_outER11__mbstate_tPKDsS4_RS4_PcS6_RS6_
libstdc++.so.6:_ZNKSt25__codecvt_utf8_utf16_baseIDsE9do_lengthER11__mbstate_tPKcS4_m
libstdc++.so.6:_ZNKSt3_V214error_category10_M_messageB5cxx11Ei
libstdc++.so.6:_ZNKSt5ctypeIcE13_M_widen_initEv
libstdc++.so.6:_ZNKSt6localeeqERKS_
libstdc++.so.6:_ZNKSt7__cxx1112basic_stringIcSt11char_traitsIcESaIcEE13find_first_ofEPKcmm
libstdc++.so.6:_ZNKSt7__cxx1112basic_stringIcSt11char_traitsIcESaIcEE4findEcm
libstdc++.so.6:_ZNKSt7__cxx1112basic_stringIcSt11char_traitsIcESaIcEE7compareEPKc
libstdc++.so.6:_ZNKSt7__cxx1115basic_stringbufIcSt11char_traitsIcESaIcEE3strEv
libstdc++.so.6:_ZNKSt8__detail20_Prime_rehash_policy11_M_next_bktEm
libstdc++.so.6:_ZNKSt8__detail20_Prime_rehash_policy14_M_need_rehashEmmm
libstdc++.so.6:_ZNKSt8ios_base7failureB5cxx114whatEv
libstdc++.so.6:_ZNKSt9exception4whatEv
libstdc++.so.6:_ZNSo3putEc
libstdc++.so.6:_ZNSo5flushEv
libstdc++.so.6:_ZNSo5writeEPKcl
libstdc++.so.6:_ZNSo9_M_insertIbEERSoT_
libstdc++.so.6:_ZNSo9_M_insertIdEERSoT_
libstdc++.so.6:_ZNSo9_M_insertIlEERSoT_
libstdc++.so.6:_ZNSo9_M_insertImEERSoT_
libstdc++.so.6:_ZNSolsEi
libstdc++.so.6:_ZNSolsEs
libstdc++.so.6:_ZNSt11logic_errorC1EPKc
libstdc++.so.6:_ZNSt11logic_errorC2ERKS_
libstdc++.so.6:_ZNSt11logic_errorD1Ev
libstdc++.so.6:_ZNSt11logic_errorD2Ev
libstdc++.so.6:_ZNSt12__basic_fileIcED1Ev
libstdc++.so.6:_ZNSt12out_of_rangeC1EPKc
libstdc++.so.6:_ZNSt12out_of_rangeC1ERKNSt7__cxx1112basic_stringIcSt11char_traitsIcESaIcEEE
libstdc++.so.6:_ZNSt12out_of_rangeC2ERKNSt7__cxx1112basic_stringIcSt11char_traitsIcESaIcEEE
libstdc++.so.6:_ZNSt12out_of_rangeD1Ev
libstdc++.so.6:_ZNSt12out_of_rangeD2Ev
libstdc++.so.6:_ZNSt13basic_filebufIcSt11char_traitsIcEE4openEPKcSt13_Ios_Openmode
libstdc++.so.6:_ZNSt13basic_filebufIcSt11char_traitsIcEE5closeEv
libstdc++.so.6:_ZNSt13basic_filebufIcSt11char_traitsIcEEC1Ev
libstdc++.so.6:_ZNSt13basic_filebufIcSt11char_traitsIcEED1Ev
libstdc++.so.6:_ZNSt13runtime_errorC1EPKc
libstdc++.so.6:_ZNSt13runtime_errorC2ERKS_
libstdc++.so.6:_ZNSt13runtime_errorD1Ev
libstdc++.so.6:_ZNSt13runtime_errorD2Ev
libstdc++.so.6:_ZNSt14basic_ofstreamIcSt11char_traitsIcEEC1EPKcSt13_Ios_Openmode
libstdc++.so.6:_ZNSt14basic_ofstreamIcSt11char_traitsIcEEC1ERKNSt7__cxx1112basic_stringIcS1_SaIcEEESt13_Ios_Openmode
libstdc++.so.6:_ZNSt14basic_ofstreamIcSt11char_traitsIcEED1Ev
libstdc++.so.6:_ZNSt15basic_streambufIcSt11char_traitsIcEE5uflowEv
libstdc++.so.6:_ZNSt15basic_streambufIcSt11char_traitsIcEE6setbufEPcl
libstdc++.so.6:_ZNSt15basic_streambufIcSt11char_traitsIcEE6xsgetnEPcl
libstdc++.so.6:_ZNSt15basic_streambufIcSt11char_traitsIcEE6xsputnEPKcl
libstdc++.so.6:_ZNSt15basic_streambufIcSt11char_traitsIcEE9showmanycEv
libstdc++.so.6:_ZNSt16invalid_argumentC1EPKc
libstdc++.so.6:_ZNSt16invalid_argumentC1ERKNSt7__cxx1112basic_stringIcSt11char_traitsIcESaIcEEE
libstdc++.so.6:_ZNSt16invalid_argumentC2ERKNSt7__cxx1112basic_stringIcSt11char_traitsIcESaIcEEE
libstdc++.so.6:_ZNSt16invalid_argumentD1Ev
libstdc++.so.6:_ZNSt16invalid_argumentD2Ev
libstdc++.so.6:_ZNSt18condition_variable10notify_oneEv
libstdc++.so.6:_ZNSt18condition_variable4waitERSt11unique_lockISt5mutexE
libstdc++.so.6:_ZNSt18condition_variableC1Ev
libstdc++.so.6:_ZNSt18condition_variableD1Ev
libstdc++.so.6:_ZNSt25__codecvt_utf8_utf16_baseIDsED2Ev
libstdc++.so.6:_ZNSt3_V214error_categoryD2Ev
libstdc++.so.6:_ZNSt3_V216generic_categoryEv
libstdc++.so.6:_ZNSt6locale7classicEv
libstdc++.so.6:_ZNSt6localeC1ERKS_
libstdc++.so.6:_ZNSt6localeC1Ev
libstdc++.so.6:_ZNSt6localeD1Ev
libstdc++.so.6:_ZNSt6localeaSERKS_
libstdc++.so.6:_ZNSt6thread15_M_start_threadESt10unique_ptrINS_6_StateESt14default_deleteIS1_EEPFvvE
libstdc++.so.6:_ZNSt6thread4joinEv
libstdc++.so.6:_ZNSt6thread6_StateD2Ev
libstdc++.so.6:_ZNSt7__cxx1112basic_stringIcSt11char_traitsIcESaIcEE10_M_disposeEv
libstdc++.so.6:_ZNSt7__cxx1112basic_stringIcSt11char_traitsIcESaIcEE10_M_replaceEmmPKcm
libstdc++.so.6:_ZNSt7__cxx1112basic_stringIcSt11char_traitsIcESaIcEE12_M_constructEmc
libstdc++.so.6:_ZNSt7__cxx1112basic_stringIcSt11char_traitsIcESaIcEE13_S_copy_charsEPcPKcS7_
libstdc++.so.6:_ZNSt7__cxx1112basic_stringIcSt11char_traitsIcESaIcEE14_M_replace_auxEmmmc
libstdc++.so.6:_ZNSt7__cxx1112basic_stringIcSt11char_traitsIcESaIcEE4swapERS4_
libstdc++.so.6:_ZNSt7__cxx1112basic_stringIcSt11char_traitsIcESaIcEE6resizeEmc
libstdc++.so.6:_ZNSt7__cxx1112basic_stringIcSt11char_traitsIcESaIcEE7reserveEm
libstdc++.so.6:_ZNSt7__cxx1112basic_stringIcSt11char_traitsIcESaIcEE9_M_appendEPKcm
libstdc++.so.6:_ZNSt7__cxx1112basic_stringIcSt11char_traitsIcESaIcEE9_M_assignERKS4_
libstdc++.so.6:_ZNSt7__cxx1112basic_stringIcSt11char_traitsIcESaIcEE9_M_createERmm
libstdc++.so.6:_ZNSt7__cxx1112basic_stringIcSt11char_traitsIcESaIcEE9_M_mutateEmmPKcm
libstdc++.so.6:_ZNSt7__cxx1112basic_stringIcSt11char_traitsIcESaIcEEC1EPKcRKS3_
libstdc++.so.6:_ZNSt7__cxx1112basic_stringIcSt11char_traitsIcESaIcEEC1ERKS4_
libstdc++.so.6:_ZNSt7__cxx1112basic_stringIcSt11char_traitsIcESaIcEED1Ev
libstdc++.so.6:_ZNSt7__cxx1119basic_ostringstreamIcSt11char_traitsIcESaIcEEC1Ev
libstdc++.so.6:_ZNSt7__cxx1119basic_ostringstreamIcSt11char_traitsIcESaIcEED1Ev
libstdc++.so.6:_ZNSt8__detail15_List_node_base7_M_hookEPS0_
libstdc++.so.6:_ZNSt8__detail15_List_node_base9_M_unhookEv
libstdc++.so.6:_ZNSt8bad_castD2Ev
libstdc++.so.6:_ZNSt8ios_base4InitC1Ev
libstdc++.so.6:_ZNSt8ios_base4InitD1Ev
libstdc++.so.6:_ZNSt8ios_base7failureB5cxx11C1EPKcRKSt10error_code
libstdc++.so.6:_ZNSt8ios_base7failureB5cxx11C2EPKcRKSt10error_code
libstdc++.so.6:_ZNSt8ios_base7failureB5cxx11D1Ev
libstdc++.so.6:_ZNSt8ios_base7failureB5cxx11D2Ev
libstdc++.so.6:_ZNSt8ios_baseC2Ev
libstdc++.so.6:_ZNSt8ios_baseD2Ev
libstdc++.so.6:_ZNSt9basic_iosIcSt11char_traitsIcEE4initEPSt15basic_streambufIcS1_E
libstdc++.so.6:_ZNSt9basic_iosIcSt11char_traitsIcEE5clearESt12_Ios_Iostate
libstdc++.so.6:_ZNSt9basic_iosIcSt11char_traitsIcEE5rdbufEPSt15basic_streambufIcS1_E
libstdc++.so.6:_ZNSt9exceptionD2Ev
libstdc++.so.6:_ZSt11_Hash_bytesPKvmm
libstdc++.so.6:_ZSt16__ostream_insertIcSt11char_traitsIcEERSt13basic_ostreamIT_T0_ES6_PKS3_l
libstdc++.so.6:_ZSt16__throw_bad_castv
libstdc++.so.6:_ZSt17__throw_bad_allocv
libstdc++.so.6:_ZSt17iostream_categoryv
libstdc++.so.6:_ZSt18_Rb_tree_decrementPSt18_Rb_tree_node_base
libstdc++.so.6:_ZSt18_Rb_tree_incrementPKSt18_Rb_tree_node_base
libstdc++.so.6:_ZSt18_Rb_tree_incrementPSt18_Rb_tree_node_base
libstdc++.so.6:_ZSt19__throw_logic_errorPKc
libstdc++.so.6:_ZSt19__throw_range_errorPKc
libstdc++.so.6:_ZSt20__throw_length_errorPKc
libstdc++.so.6:_ZSt20__throw_out_of_rangePKc
libstdc++.so.6:_ZSt20__throw_system_errori
libstdc++.so.6:_ZSt24__throw_invalid_argumentPKc
libstdc++.so.6:_ZSt24__throw_out_of_range_fmtPKcz
libstdc++.so.6:_ZSt25__throw_bad_function_callv
libstdc++.so.6:_ZSt29_Rb_tree_insert_and_rebalancebPSt18_Rb_tree_node_baseS0_RS_
libstdc++.so.6:_ZSt4cerr
libstdc++.so.6:_ZSt4cout
libstdc++.so.6:_ZSt4endlIcSt11char_traitsIcEERSt13basic_ostreamIT_T0_ES6_
libstdc++.so.6:_ZSt7nothrow
libstdc++.so.6:_ZSt9terminatev
libstdc++.so.6:_ZSt9use_facetINSt7__cxx118numpunctIcEEERKT_RKSt6locale
libstdc++.so.6:_ZStlsISt11char_traitsIcEERSt13basic_ostreamIcT_ES5_PKc
libstdc++.so.6:_ZTINSt3_V214error_categoryE
libstdc++.so.6:_ZTINSt6thread6_StateE
libstdc++.so.6:_ZTINSt8ios_base7failureB5cxx11E
libstdc++.so.6:_ZTISo
libstdc++.so.6:_ZTISt11logic_error
libstdc++.so.6:_ZTISt12out_of_range
libstdc++.so.6:_ZTISt13runtime_error
libstdc++.so.6:_ZTISt15basic_streambufIcSt11char_traitsIcEE
libstdc++.so.6:_ZTISt16invalid_argument
libstdc++.so.6:_ZTISt25__codecvt_utf8_utf16_baseIDsE
libstdc++.so.6:_ZTISt8bad_cast
libstdc++.so.6:_ZTISt9exception
libstdc++.so.6:_ZTIi
libstdc++.so.6:_ZTIm
libstdc++.so.6:_ZTIv
libstdc++.so.6:_ZTTNSt7__cxx1119basic_ostringstreamIcSt11char_traitsIcESaIcEEE
libstdc++.so.6:_ZTTSt14basic_ofstreamIcSt11char_traitsIcEE
libstdc++.so.6:_ZTVN10__cxxabiv117__class_type_infoE
libstdc++.so.6:_ZTVN10__cxxabiv119__pointer_type_infoE
libstdc++.so.6:_ZTVN10__cxxabiv120__function_type_infoE
libstdc++.so.6:_ZTVN10__cxxabiv120__si_class_type_infoE
libstdc++.so.6:_ZTVN10__cxxabiv121__vmi_class_type_infoE
libstdc++.so.6:_ZTVNSt7__cxx1115basic_stringbufIcSt11char_traitsIcESaIcEEE
libstdc++.so.6:_ZTVNSt7__cxx1119basic_ostringstreamIcSt11char_traitsIcESaIcEEE
libstdc++.so.6:_ZTVNSt8ios_base7failureB5cxx11E
libstdc++.so.6:_ZTVSt13basic_filebufIcSt11char_traitsIcEE
libstdc++.so.6:_ZTVSt14basic_ofstreamIcSt11char_traitsIcEE
libstdc++.so.6:_ZTVSt15basic_streambufIcSt11char_traitsIcEE
libstdc++.so.6:_ZTVSt9basic_iosIcSt11char_traitsIcEE
libstdc++.so.6:_ZdaPv
libstdc++.so.6:_ZdlPvm
libstdc++.so.6:_ZnamRKSt9nothrow_t
libstdc++.so.6:_Znwm
libstdc++.so.6:__cxa_allocate_exception
libstdc++.so.6:__cxa_begin_catch
libstdc++.so.6:__cxa_end_catch
libstdc++.so.6:__cxa_free_exception
libstdc++.so.6:__cxa_guard_abort
libstdc++.so.6:__cxa_guard_acquire
libstdc++.so.6:__cxa_guard_release
libstdc++.so.6:__cxa_pure_virtual
libstdc++.so.6:__cxa_rethrow
libstdc++.so.6:__cxa_throw
libstdc++.so.6:__dynamic_cast
libstdc++.so.6:__gxx_personality_v0
libz.so.1:inflate
libz.so.1:inflateEnd
libz.so.1:inflateInit2_
