libQt6Core.so.6:_Z13comparesEqualRK4QUrlS1_
libQt6Core.so.6:_Z20qt_qFindChild_helperPK7QObject14QAnyStringViewRK11QMetaObject6QFlagsIN2Qt15FindChildOptionEE
libQt6Core.so.6:_Z21qRegisterResourceDataiPKhS0_S0_
libQt6Core.so.6:_Z23qUnregisterResourceDataiPKhS0_S0_
libQt6Core.so.6:_Z26qt_QMetaEnum_debugOperatorR6QDebugxPK11QMetaObjectPKc
libQt6Core.so.6:_Z9qBadAllocv
libQt6Core.so.6:_Z9qstrnicmpPKcxS0_x
libQt6Core.so.6:_ZN10QArrayData10deallocateEPS_xx
libQt6Core.so.6:_ZN10QArrayData19reallocateUnalignedEPS_PvxxNS_16AllocationOptionE
libQt6Core.so.6:_ZN10QArrayData8allocateEPPS_xxxNS_16AllocationOptionE
libQt6Core.so.6:_ZN10QByteArray11reallocDataExN10QArrayData16AllocationOptionE
libQt6Core.so.6:_ZN10QByteArray5clearEv
libQt6Core.so.6:_ZN10QByteArray6_emptyE
libQt6Core.so.6:_ZN10QByteArray6appendERKS_
libQt6Core.so.6:_ZN10QByteArray6appendEc
libQt6Core.so.6:_ZN10QByteArray6insertEx14QByteArrayView
libQt6Core.so.6:_ZN10QByteArray6resizeEx
libQt6Core.so.6:_ZN10QByteArrayC1EPKcx
libQt6Core.so.6:_ZN10QByteArrayC1ExN2Qt14InitializationE
libQt6Core.so.6:_ZN11QDataStreamlsEi
libQt6Core.so.6:_ZN11QDataStreamrsERi
libQt6Core.so.6:_ZN11QFileDevice5closeEv
libQt6Core.so.6:_ZN11QMetaObject10ConnectionD1Ev
libQt6Core.so.6:_ZN11QMetaObject14normalizedTypeEPKc
libQt6Core.so.6:_ZN11QMetaObject16invokeMethodImplEP7QObjectPKcN2Qt14ConnectionTypeExPKPKvPKS3_PKPKN9QtPrivate18QMetaTypeInterfaceE
libQt6Core.so.6:_ZN11QMetaObject16invokeMethodImplEP7QObjectPN9QtPrivate15QSlotObjectBaseEN2Qt14ConnectionTypeExPKPKvPKPKcPKPKNS2_18QMetaTypeInterfaceE
libQt6Core.so.6:_ZN11QMetaObject8activateEP7QObjectPKS_iPPv
libQt6Core.so.6:_ZN11QTextStream5flushEv
libQt6Core.so.6:_ZN11QTextStream9setStatusENS_6StatusE
libQt6Core.so.6:_ZN11QTextStreamC1EP8_IO_FILE6QFlagsIN13QIODeviceBase12OpenModeFlagEE
libQt6Core.so.6:_ZN11QTextStreamC1EP9QIODevice
libQt6Core.so.6:_ZN11QTextStreamD1Ev
libQt6Core.so.6:_ZN11QTextStreamlsEPKc
libQt6Core.so.6:_ZN11QTextStreamlsERK7QString
libQt6Core.so.6:_ZN11QTextStreamlsEc
libQt6Core.so.6:_ZN11QTextStreamlsEi
libQt6Core.so.6:_ZN11QTextStreamlsEt
libQt6Core.so.6:_ZN12QChronoTimer11setIntervalENSt6chrono8durationIlSt5ratioILl1ELl1000000000EEEE
libQt6Core.so.6:_ZN12QChronoTimer13setSingleShotEb
libQt6Core.so.6:_ZN12QChronoTimer16staticMetaObjectE
libQt6Core.so.6:_ZN12QChronoTimer4stopEv
libQt6Core.so.6:_ZN12QChronoTimer5startEv
libQt6Core.so.6:_ZN12QChronoTimer7timeoutENS_14QPrivateSignalE
libQt6Core.so.6:_ZN12QChronoTimerC1EP7QObject
libQt6Core.so.6:_ZN13QElapsedTimer5startEv
libQt6Core.so.6:_ZN14QObjectPrivateC2E16QtPrivate_6_10_1
libQt6Core.so.6:_ZN14QObjectPrivateD2Ev
libQt6Core.so.6:_ZN15QtSharedPointer20ExternalRefCountData9getAndRefEPK7QObject
libQt6Core.so.6:_ZN16QCoreApplication4execEv
libQt6Core.so.6:_ZN16QCoreApplication4quitEv
libQt6Core.so.6:_ZN16QCoreApplication9translateEPKcS1_S1_i
libQt6Core.so.6:_ZN16QCoreApplicationC1ERiPPci
libQt6Core.so.6:_ZN16QCoreApplicationD1Ev
libQt6Core.so.6:_ZN16QDebugStateSaverC1ER6QDebug
libQt6Core.so.6:_ZN16QDebugStateSaverD1Ev
libQt6Core.so.6:_ZN16QRandomGenerator10_fillRangeEPvx
libQt6Core.so.6:_ZN16QStringConverter18encodingInterfacesE
libQt6Core.so.6:_ZN18QCommandLineOptionC1ERK5QListI7QStringERKS1_S6_S6_
libQt6Core.so.6:_ZN18QCommandLineOptionD1Ev
libQt6Core.so.6:_ZN18QCommandLineParser13addHelpOptionEv
libQt6Core.so.6:_ZN18QCommandLineParser25setApplicationDescriptionERK7QString
libQt6Core.so.6:_ZN18QCommandLineParser7processERK16QCoreApplication
libQt6Core.so.6:_ZN18QCommandLineParser9addOptionERK18QCommandLineOption
libQt6Core.so.6:_ZN18QCommandLineParserC1Ev
libQt6Core.so.6:_ZN18QCommandLineParserD1Ev
libQt6Core.so.6:_ZN18QCryptographicHash4hashE14QByteArrayViewNS_9AlgorithmE
libQt6Core.so.6:_ZN18QRandomGenerator646globalEv
libQt6Core.so.6:_ZN20QStringConverterBase5State5clearEv
libQt6Core.so.6:_ZN20QStringConverterBase5State5resetEv
libQt6Core.so.6:_ZN4QUrl11fromEncodedE14QByteArrayViewNS_11ParsingModeE
libQt6Core.so.6:_ZN4QUrl11setPasswordERK7QStringNS_11ParsingModeE
libQt6Core.so.6:_ZN4QUrl11setUserNameERK7QStringNS_11ParsingModeE
libQt6Core.so.6:_ZN4QUrl12setAuthorityERK7QStringNS_11ParsingModeE
libQt6Core.so.6:_ZN4QUrl5clearEv
libQt6Core.so.6:_ZN4QUrl7setHostERK7QStringNS_11ParsingModeE
libQt6Core.so.6:_ZN4QUrl7setPathERK7QStringNS_11ParsingModeE
libQt6Core.so.6:_ZN4QUrl7setPortEi
libQt6Core.so.6:_ZN4QUrl9setSchemeERK7QString
libQt6Core.so.6:_ZN4QUrlC1ERK7QStringNS_11ParsingModeE
libQt6Core.so.6:_ZN4QUrlC1ERKS_
libQt6Core.so.6:_ZN4QUrlC1Ev
libQt6Core.so.6:_ZN4QUrlD1Ev
libQt6Core.so.6:_ZN4QUrlaSERKS_
libQt6Core.so.6:_ZN5QFile4openE6QFlagsIN13QIODeviceBase12OpenModeFlagEE
libQt6Core.so.6:_ZN5QFileC1ERK7QString
libQt6Core.so.6:_ZN5QFileD1Ev
libQt6Core.so.6:_ZN6QDebug12putByteArrayEPKcmNS_13Latin1ContentE
libQt6Core.so.6:_ZN6QDebug9putStringEPK5QCharm
libQt6Core.so.6:_ZN6QDebugD1Ev
libQt6Core.so.6:_ZN6QTimer11setIntervalEi
libQt6Core.so.6:_ZN6QTimer13setSingleShotEb
libQt6Core.so.6:_ZN6QTimer16staticMetaObjectE
libQt6Core.so.6:_ZN6QTimer4stopEv
libQt6Core.so.6:_ZN6QTimer5startEi
libQt6Core.so.6:_ZN6QTimer5startEv
libQt6Core.so.6:_ZN6QTimer7timeoutENS_14QPrivateSignalE
libQt6Core.so.6:_ZN6QTimerC1EP7QObject
libQt6Core.so.6:_ZN7QLocaleC1ENS_8LanguageENS_6ScriptENS_7CountryE
libQt6Core.so.6:_ZN7QLocaleD1Ev
libQt6Core.so.6:_ZN7QObject10childEventEP11QChildEvent
libQt6Core.so.6:_ZN7QObject10disconnectEPKS_PKcS1_S3_
libQt6Core.so.6:_ZN7QObject10timerEventEP11QTimerEvent
libQt6Core.so.6:_ZN7QObject11connectImplEPKS_PPvS1_S3_PN9QtPrivate15QSlotObjectBaseEN2Qt14ConnectionTypeEPKiPK11QMetaObject
libQt6Core.so.6:_ZN7QObject11customEventEP6QEvent
libQt6Core.so.6:_ZN7QObject11deleteLaterEv
libQt6Core.so.6:_ZN7QObject11eventFilterEPS_P6QEvent
libQt6Core.so.6:_ZN7QObject11qt_metacallEN11QMetaObject4CallEiPPv
libQt6Core.so.6:_ZN7QObject11qt_metacastEPKc
libQt6Core.so.6:_ZN7QObject13connectNotifyERK11QMetaMethod
libQt6Core.so.6:_ZN7QObject13setObjectNameE14QAnyStringView
libQt6Core.so.6:_ZN7QObject14disconnectImplEPKS_PPvS1_S3_PK11QMetaObject
libQt6Core.so.6:_ZN7QObject15doSetObjectNameERK7QString
libQt6Core.so.6:_ZN7QObject16disconnectNotifyERK11QMetaMethod
libQt6Core.so.6:_ZN7QObject16staticMetaObjectE
libQt6Core.so.6:_ZN7QObject5eventEP6QEvent
libQt6Core.so.6:_ZN7QObject9destroyedEPS_
libQt6Core.so.6:_ZN7QObject9setParentEPS_
libQt6Core.so.6:_ZN7QObjectC2EPS_
libQt6Core.so.6:_ZN7QObjectC2ER14QObjectPrivatePS_
libQt6Core.so.6:_ZN7QObjectD2Ev
libQt6Core.so.6:_ZN7QString10fromLatin1E14QByteArrayView
libQt6Core.so.6:_ZN7QString11reallocDataExN10QArrayData16AllocationOptionE
libQt6Core.so.6:_ZN7QString13toUtf8_helperERKS_
libQt6Core.so.6:_ZN7QString14trimmed_helperERS_
libQt6Core.so.6:_ZN7QString15toLatin1_helperERKS_
libQt6Core.so.6:_ZN7QString17toIntegral_helperE11QStringViewPbi
libQt6Core.so.6:_ZN7QString17toIntegral_helperE11QStringViewPbj
libQt6Core.so.6:_ZN7QString18toLocal8Bit_helperEPK5QCharx
libQt6Core.so.6:_ZN7QString4chopEx
libQt6Core.so.6:_ZN7QString6_emptyE
libQt6Core.so.6:_ZN7QString6appendE5QChar
libQt6Core.so.6:_ZN7QString6appendERKS_
libQt6Core.so.6:_ZN7QString6numberEii
libQt6Core.so.6:_ZN7QString6numberExi
libQt6Core.so.6:_ZN7QString6resizeEx
libQt6Core.so.6:_ZN7QString8fromUtf8E14QByteArrayView
libQt6Core.so.6:_ZN7QString8truncateEx
libQt6Core.so.6:_ZN7QStringC1EPK5QCharx
libQt6Core.so.6:_ZN7QStringC1ExN2Qt14InitializationE
libQt6Core.so.6:_ZN7QStringaSERKS_
libQt6Core.so.6:_ZN8QVariantC1Ei
libQt6Core.so.6:_ZN8QVariantD1Ev
libQt6Core.so.6:_ZN9QDateTime18currentDateTimeUtcEv
libQt6Core.so.6:_ZN9QDateTimeD1Ev
libQt6Core.so.6:_ZN9QHashSeed10globalSeedEv
libQt6Core.so.6:_ZN9QIODevice12aboutToCloseEv
libQt6Core.so.6:_ZN9QIODevice12bytesWrittenEx
libQt6Core.so.6:_ZN9QIODevice16staticMetaObjectE
libQt6Core.so.6:_ZN9QIODevice19readChannelFinishedEv
libQt6Core.so.6:_ZN9QIODevice4peekEx
libQt6Core.so.6:_ZN9QIODevice4readEPcx
libQt6Core.so.6:_ZN9QIODevice4readEx
libQt6Core.so.6:_ZN9QIODevice4skipEx
libQt6Core.so.6:_ZN9QIODevice5writeEPKcx
libQt6Core.so.6:_ZN9QIODevice5writeERK10QByteArray
libQt6Core.so.6:_ZN9QIODevice9readyReadEv
libQt6Core.so.6:_ZN9QMetaType14registerHelperEPKN9QtPrivate18QMetaTypeInterfaceE
libQt6Core.so.6:_ZN9QMetaType25registerNormalizedTypedefERK10QByteArrayS_
libQt6Core.so.6:_ZN9QtPrivate10findStringE11QStringViewxS0_N2Qt15CaseSensitivityE
libQt6Core.so.6:_ZN9QtPrivate10findStringE13QLatin1Stringx11QStringViewN2Qt15CaseSensitivityE
libQt6Core.so.6:_ZN9QtPrivate10findStringE13QLatin1StringxS0_N2Qt15CaseSensitivityE
libQt6Core.so.6:_ZN9QtPrivate12argToQStringE14QAnyStringViewmPPKNS_7ArgBaseE
libQt6Core.so.6:_ZN9QtPrivate12equalStringsE11QStringViewS0_
libQt6Core.so.6:_ZN9QtPrivate13findByteArrayE14QByteArrayViewxS0_
libQt6Core.so.6:_ZN9QtPrivate14compareStringsE11QStringViewS0_N2Qt15CaseSensitivityE
libQt6Core.so.6:_ZN9QtPrivate14compareStringsE13QLatin1String20QBasicUtf8StringViewILb0EEN2Qt15CaseSensitivityE
libQt6Core.so.6:_ZN9QtPrivate16QStringList_joinEPK5QListI7QStringEPK5QCharx
libQt6Core.so.6:_ZN9QtPrivate16QStringList_joinERK5QListI7QStringE13QLatin1String
libQt6Core.so.6:_ZN9QtPrivate20QStringList_containsEPK5QListI7QStringE11QStringViewN2Qt15CaseSensitivityE
libQt6Core.so.6:_ZN9QtPrivate20QStringList_containsEPK5QListI7QStringE13QLatin1StringN2Qt15CaseSensitivityE
libQt6Core.so.6:_ZN9QtPrivate25QMetaTypeInterfaceWrapperI10QByteArrayE8metaTypeE
libQt6Core.so.6:_ZN9QtPrivate25QMetaTypeInterfaceWrapperI4QUrlE8metaTypeE
libQt6Core.so.6:_ZN9QtPrivate25QMetaTypeInterfaceWrapperI5QListI7QStringEE8metaTypeE
libQt6Core.so.6:_ZN9QtPrivate25QMetaTypeInterfaceWrapperI7QStringE8metaTypeE
libQt6Core.so.6:_ZN9QtPrivate25QMetaTypeInterfaceWrapperIbE8metaTypeE
libQt6Core.so.6:_ZN9QtPrivate25QMetaTypeInterfaceWrapperIiE8metaTypeE
libQt6Core.so.6:_ZN9QtPrivate25QMetaTypeInterfaceWrapperIxE8metaTypeE
libQt6Core.so.6:_ZN9QtPrivate25QMetaTypeInterfaceWrapperIyE8metaTypeE
libQt6Core.so.6:_ZN9QtPrivate7trimmedE11QStringView
libQt6Core.so.6:_ZN9QtPrivate7trimmedE13QLatin1String
libQt6Core.so.6:_ZN9QtPrivate8qustrchrE11QStringViewDs
libQt6Core.so.6:_ZNK10QByteArray5toIntEPbi
libQt6Core.so.6:_ZNK10QByteArray8toBase64E6QFlagsINS_12Base64OptionEE
libQt6Core.so.6:_ZNK11QMetaObject2trEPKcS1_i
libQt6Core.so.6:_ZNK11QMetaObject4castEPK7QObject
libQt6Core.so.6:_ZNK11QMetaObject9classNameEv
libQt6Core.so.6:_ZNK11QObjectData17dynamicMetaObjectEv
libQt6Core.so.6:_ZNK11QStringView7toFloatEPb
libQt6Core.so.6:_ZNK13QElapsedTimer7elapsedEv
libQt6Core.so.6:_ZNK14QMessageLogger5debugEv
libQt6Core.so.6:_ZNK14QMessageLogger7warningEPKcz
libQt6Core.so.6:_ZNK14QMessageLogger7warningEv
libQt6Core.so.6:_ZNK14QObjectPrivate15flagsForDumpingB5cxx11Ev
libQt6Core.so.6:_ZNK14QObjectPrivate18writeToDebugStreamER6QDebug
libQt6Core.so.6:_ZNK18QCommandLineParser5isSetERK18QCommandLineOption
libQt6Core.so.6:_ZNK18QCommandLineParser5valueERK18QCommandLineOption
libQt6Core.so.6:_ZNK18QCommandLineParser8helpTextEv
libQt6Core.so.6:_ZNK4QUrl10isRelativeEv
libQt6Core.so.6:_ZNK4QUrl4hostE6QFlagsINS_25ComponentFormattingOptionEE
libQt6Core.so.6:_ZNK4QUrl4pathE6QFlagsINS_25ComponentFormattingOptionEE
libQt6Core.so.6:_ZNK4QUrl4portEi
libQt6Core.so.6:_ZNK4QUrl5queryE6QFlagsINS_25ComponentFormattingOptionEE
libQt6Core.so.6:_ZNK4QUrl6schemeEv
libQt6Core.so.6:_ZNK4QUrl7isValidEv
libQt6Core.so.6:_ZNK4QUrl8passwordE6QFlagsINS_25ComponentFormattingOptionEE
libQt6Core.so.6:_ZNK4QUrl8toStringE12QUrlTwoFlagsINS_19UrlFormattingOptionENS_25ComponentFormattingOptionEE
libQt6Core.so.6:_ZNK4QUrl8userNameE6QFlagsINS_25ComponentFormattingOptionEE
libQt6Core.so.6:_ZNK4QUrl9toEncodedE12QUrlTwoFlagsINS_19UrlFormattingOptionENS_25ComponentFormattingOptionEE
libQt6Core.so.6:_ZNK7QLocale8toStringERK9QDateTime11QStringView
libQt6Core.so.6:_ZNK7QObject10metaObjectEv
libQt6Core.so.6:_ZNK7QObject6senderEv
libQt6Core.so.6:_ZNK7QString10startsWithE5QCharN2Qt15CaseSensitivityE
libQt6Core.so.6:_ZNK7QString5splitE5QChar6QFlagsIN2Qt18SplitBehaviorFlagsEENS2_15CaseSensitivityE
libQt6Core.so.6:_ZNK7QString5splitERKS_6QFlagsIN2Qt18SplitBehaviorFlagsEENS3_15CaseSensitivityE
libQt6Core.so.6:_ZNK7QString7indexOfERKS_xN2Qt15CaseSensitivityE
libQt6Core.so.6:_ZNK7QString8arg_implE14QAnyStringViewi5QChar
libQt6Core.so.6:_ZNK7QString8arg_implExii5QChar
libQt6Core.so.6:_ZNK7QString8arg_implEyii5QChar
libQt6Core.so.6:_ZNK7QString8endsWithE5QCharN2Qt15CaseSensitivityE
libQt6Core.so.6:_ZNK9QIODevice11errorStringEv
libQt6Core.so.6:_ZNKR7QString3midExx
libQt6Core.so.6:_ZNO7QString3midExx
libQt6Core.so.6:_ZTI14QObjectPrivate
libQt6Core.so.6:_ZTI7QObject
libQt6Core.so.6:_Zls6QDebugPK7QObject
libQt6Core.so.6:_Zls6QDebugRK4QUrl
libQt6Core.so.6:qt_resourceFeatureZstd
libQt6Core.so.6:qt_version_tag
libQt6Gui.so.6:_ZN15QGuiApplication4execEv
libQt6Gui.so.6:_ZN15QGuiApplicationC1ERiPPci
libQt6Gui.so.6:_ZN15QGuiApplicationD1Ev
libQt6Gui.so.6:_ZN7QWindow4showEv
libQt6Network.so.6:_Z41qRegisterNormalizedMetaType_QNetworkProxyRK10QByteArray
libQt6Network.so.6:_Z43qRegisterNormalizedMetaType_QList_QSslErrorRK10QByteArray
libQt6Network.so.6:_Z43qRegisterNormalizedMetaType_QNetworkRequestRK10QByteArray
libQt6Network.so.6:_Z56qRegisterNormalizedMetaType_QAbstractSocket__SocketErrorRK10QByteArray
libQt6Network.so.6:_Z56qRegisterNormalizedMetaType_QAbstractSocket__SocketStateRK10QByteArray
libQt6Network.so.6:_Z61qRegisterNormalizedMetaType_QSslPreSharedKeyAuthenticator_ptrRK10QByteArray
libQt6Network.so.6:_ZN10QSslServer13alertReceivedEP10QSslSocketN4QSsl10AlertLevelENS2_9AlertTypeERK7QString
libQt6Network.so.6:_ZN10QSslServer15peerVerifyErrorEP10QSslSocketRK9QSslError
libQt6Network.so.6:_ZN10QSslServer16staticMetaObjectE
libQt6Network.so.6:_ZN10QSslServer19setHandshakeTimeoutEi
libQt6Network.so.6:_ZN10QSslServer19setSslConfigurationERK17QSslConfiguration
libQt6Network.so.6:_ZN10QSslServer27handshakeInterruptedOnErrorEP10QSslSocketRK9QSslError
libQt6Network.so.6:_ZN10QSslServer34preSharedKeyAuthenticationRequiredEP10QSslSocketP29QSslPreSharedKeyAuthenticator
libQt6Network.so.6:_ZN10QSslServer9alertSentEP10QSslSocketN4QSsl10AlertLevelENS2_9AlertTypeERK7QString
libQt6Network.so.6:_ZN10QSslServer9sslErrorsEP10QSslSocketRK5QListI9QSslErrorE
libQt6Network.so.6:_ZN10QSslServerC1EP7QObject
libQt6Network.so.6:_ZN10QSslSocket11supportsSslEv
libQt6Network.so.6:_ZN10QSslSocket13alertReceivedEN4QSsl10AlertLevelENS0_9AlertTypeERK7QString
libQt6Network.so.6:_ZN10QSslSocket15ignoreSslErrorsERK5QListI9QSslErrorE
libQt6Network.so.6:_ZN10QSslSocket15ignoreSslErrorsEv
libQt6Network.so.6:_ZN10QSslSocket15peerVerifyErrorERK9QSslError
libQt6Network.so.6:_ZN10QSslSocket16staticMetaObjectE
libQt6Network.so.6:_ZN10QSslSocket19setSslConfigurationERK17QSslConfiguration
libQt6Network.so.6:_ZN10QSslSocket21encryptedBytesWrittenEx
libQt6Network.so.6:_ZN10QSslSocket22connectToHostEncryptedERK7QStringt6QFlagsIN13QIODeviceBase12OpenModeFlagEEN15QAbstractSocket20NetworkLayerProtocolE
libQt6Network.so.6:_ZN10QSslSocket27handshakeInterruptedOnErrorERK9QSslError
libQt6Network.so.6:_ZN10QSslSocket28continueInterruptedHandshakeEv
libQt6Network.so.6:_ZN10QSslSocket34preSharedKeyAuthenticationRequiredEP29QSslPreSharedKeyAuthenticator
libQt6Network.so.6:_ZN10QSslSocket9alertSentEN4QSsl10AlertLevelENS0_9AlertTypeERK7QString
libQt6Network.so.6:_ZN10QSslSocket9encryptedEv
libQt6Network.so.6:_ZN10QSslSocket9sslErrorsERK5QListI9QSslErrorE
libQt6Network.so.6:_ZN10QSslSocketC1EP7QObject
libQt6Network.so.6:_ZN10QTcpServer11acceptErrorEN15QAbstractSocket11SocketErrorE
libQt6Network.so.6:_ZN10QTcpServer14pauseAcceptingEv
libQt6Network.so.6:_ZN10QTcpServer15resumeAcceptingEv
libQt6Network.so.6:_ZN10QTcpServer16staticMetaObjectE
libQt6Network.so.6:_ZN10QTcpServer19setSocketDescriptorEx
libQt6Network.so.6:_ZN10QTcpServer24setMaxPendingConnectionsEi
libQt6Network.so.6:_ZN10QTcpServer26pendingConnectionAvailableENS_14QPrivateSignalE
libQt6Network.so.6:_ZN10QTcpServer5closeEv
libQt6Network.so.6:_ZN10QTcpServer6listenERK12QHostAddresst
libQt6Network.so.6:_ZN10QTcpServer8setProxyERK13QNetworkProxy
libQt6Network.so.6:_ZN10QTcpServerC1EP7QObject
libQt6Network.so.6:_ZN10QTcpSocket16staticMetaObjectE
libQt6Network.so.6:_ZN10QTcpSocketC1EP7QObject
libQt6Network.so.6:_ZN12QHostAddressC1ENS_14SpecialAddressE
libQt6Network.so.6:_ZN12QHostAddressC1ERK7QString
libQt6Network.so.6:_ZN12QHostAddressC1Ev
libQt6Network.so.6:_ZN12QHostAddressD1Ev
libQt6Network.so.6:_ZN12QHttpHeadersC1ERKS_
libQt6Network.so.6:_ZN12QHttpHeadersD1Ev
libQt6Network.so.6:_ZN13QNetworkProxy16staticMetaObjectE
libQt6Network.so.6:_ZN13QNetworkProxyC1ENS_9ProxyTypeERK7QStringtS3_S3_
libQt6Network.so.6:_ZN13QNetworkProxyC1ERKS_
libQt6Network.so.6:_ZN13QNetworkProxyC1Ev
libQt6Network.so.6:_ZN13QNetworkProxyD1Ev
libQt6Network.so.6:_ZN13QNetworkProxyaSERKS_
libQt6Network.so.6:_ZN14QAuthenticator11setPasswordERK7QString
libQt6Network.so.6:_ZN14QAuthenticator16staticMetaObjectE
libQt6Network.so.6:_ZN14QAuthenticator6detachEv
libQt6Network.so.6:_ZN14QAuthenticator7setUserERK7QString
libQt6Network.so.6:_ZN14QAuthenticatorC1Ev
libQt6Network.so.6:_ZN14QAuthenticatorD1Ev
libQt6Network.so.6:_ZN15QAbstractSocket12disconnectedEv
libQt6Network.so.6:_ZN15QAbstractSocket12setPauseModeE6QFlagsINS_9PauseModeEE
libQt6Network.so.6:_ZN15QAbstractSocket12stateChangedENS_11SocketStateE
libQt6Network.so.6:_ZN15QAbstractSocket13errorOccurredENS_11SocketErrorE
libQt6Network.so.6:_ZN15QAbstractSocket14setProtocolTagERK7QString
libQt6Network.so.6:_ZN15QAbstractSocket16staticMetaObjectE
libQt6Network.so.6:_ZN15QAbstractSocket27proxyAuthenticationRequiredERK13QNetworkProxyP14QAuthenticator
libQt6Network.so.6:_ZN15QAbstractSocket5abortEv
libQt6Network.so.6:_ZN15QAbstractSocket5flushEv
libQt6Network.so.6:_ZN15QAbstractSocket8setProxyERK13QNetworkProxy
libQt6Network.so.6:_ZN15QAbstractSocket9connectedEv
libQt6Network.so.6:_ZN15QNetworkRequest10setHeadersEO12QHttpHeaders
libQt6Network.so.6:_ZN15QNetworkRequest16staticMetaObjectE
libQt6Network.so.6:_ZN15QNetworkRequest6setUrlERK4QUrl
libQt6Network.so.6:_ZN15QNetworkRequestC1ERK4QUrl
libQt6Network.so.6:_ZN15QNetworkRequestC1ERKS_
libQt6Network.so.6:_ZN15QNetworkRequestC1Ev
libQt6Network.so.6:_ZN15QNetworkRequestD1Ev
libQt6Network.so.6:_ZN15QNetworkRequestaSERKS_
libQt6Network.so.6:_ZN15QSslCertificateC1EP9QIODeviceN4QSsl14EncodingFormatE
libQt6Network.so.6:_ZN15QSslCertificateD1Ev
libQt6Network.so.6:_ZN17QHttpHeaderParser11parseStatusE14QByteArrayView
libQt6Network.so.6:_ZN17QHttpHeaderParser12parseHeadersE14QByteArrayView
libQt6Network.so.6:_ZN17QHttpHeaderParser5clearEv
libQt6Network.so.6:_ZN17QHttpHeaderParserC1Ev
libQt6Network.so.6:_ZN17QSslConfiguration13setPrivateKeyERK7QSslKey
libQt6Network.so.6:_ZN17QSslConfiguration16addCaCertificateERK15QSslCertificate
libQt6Network.so.6:_ZN17QSslConfiguration17setPeerVerifyModeEN10QSslSocket14PeerVerifyModeE
libQt6Network.so.6:_ZN17QSslConfiguration19setLocalCertificateERK15QSslCertificate
libQt6Network.so.6:_ZN17QSslConfiguration20defaultConfigurationEv
libQt6Network.so.6:_ZN17QSslConfigurationC1ERKS_
libQt6Network.so.6:_ZN17QSslConfigurationC1Ev
libQt6Network.so.6:_ZN17QSslConfigurationD1Ev
libQt6Network.so.6:_ZN17QSslConfigurationaSERKS_
libQt6Network.so.6:_ZN21QAuthenticatorPrivate17calculateResponseE14QByteArrayViewS0_11QStringView
libQt6Network.so.6:_ZN21QAuthenticatorPrivate17isMethodSupportedE14QByteArrayView
libQt6Network.so.6:_ZN21QAuthenticatorPrivate17parseHttpResponseERK12QHttpHeadersb11QStringView
libQt6Network.so.6:_ZN29QSslPreSharedKeyAuthenticator16staticMetaObjectE
libQt6Network.so.6:_ZN4QSsl16staticMetaObjectE
libQt6Network.so.6:_ZN7QSslKeyC1EP9QIODeviceN4QSsl12KeyAlgorithmENS2_14EncodingFormatENS2_7KeyTypeERK10QByteArray
libQt6Network.so.6:_ZN7QSslKeyD1Ev
libQt6Network.so.6:_ZN9QSslError16staticMetaObjectE
libQt6Network.so.6:_ZN9QSslErrorC1ERKS_
libQt6Network.so.6:_ZN9QSslErrorC1Ev
libQt6Network.so.6:_ZN9QSslErrorD1Ev
libQt6Network.so.6:_ZNK10QSslServer16sslConfigurationEv
libQt6Network.so.6:_ZNK10QSslSocket16sslConfigurationEv
libQt6Network.so.6:_ZNK10QTcpServer10serverPortEv
libQt6Network.so.6:_ZNK10QTcpServer11errorStringEv
libQt6Network.so.6:_ZNK10QTcpServer11isListeningEv
libQt6Network.so.6:_ZNK10QTcpServer11serverErrorEv
libQt6Network.so.6:_ZNK10QTcpServer13serverAddressEv
libQt6Network.so.6:_ZNK10QTcpServer16socketDescriptorEv
libQt6Network.so.6:_ZNK10QTcpServer21maxPendingConnectionsEv
libQt6Network.so.6:_ZNK10QTcpServer5proxyEv
libQt6Network.so.6:_ZNK12QHostAddress8toStringEv
libQt6Network.so.6:_ZNK12QHostAddresseqERKS_
libQt6Network.so.6:_ZNK12QHttpHeaders4sizeEv
libQt6Network.so.6:_ZNK12QHttpHeaders5valueE14QAnyStringView14QByteArrayView
libQt6Network.so.6:_ZNK12QHttpHeaders6nameAtEx
libQt6Network.so.6:_ZNK12QHttpHeaders7valueAtEx
libQt6Network.so.6:_ZNK13QNetworkProxyeqERKS_
libQt6Network.so.6:_ZNK14QAuthenticator6isNullEv
libQt6Network.so.6:_ZNK15QAbstractSocket11peerAddressEv
libQt6Network.so.6:_ZNK15QAbstractSocket12localAddressEv
libQt6Network.so.6:_ZNK15QAbstractSocket14readBufferSizeEv
libQt6Network.so.6:_ZNK15QAbstractSocket5errorEv
libQt6Network.so.6:_ZNK15QAbstractSocket5stateEv
libQt6Network.so.6:_ZNK15QAbstractSocket7isValidEv
libQt6Network.so.6:_ZNK15QAbstractSocket8peerNameEv
libQt6Network.so.6:_ZNK15QAbstractSocket8peerPortEv
libQt6Network.so.6:_ZNK15QAbstractSocket9localPortEv
libQt6Network.so.6:_ZNK15QAbstractSocket9pauseModeEv
libQt6Network.so.6:_ZNK15QNetworkRequest3urlEv
libQt6Network.so.6:_ZNK15QNetworkRequest7headersEv
libQt6Network.so.6:_ZNK15QNetworkRequesteqERKS_
libQt6Network.so.6:_ZNK17QHttpHeaderParser13getStatusCodeEv
libQt6Network.so.6:_ZNK17QHttpHeaderParser15getMajorVersionEv
libQt6Network.so.6:_ZNK17QHttpHeaderParser15getMinorVersionEv
libQt6Network.so.6:_ZNK17QHttpHeaderParser15getReasonPhraseEv
libQt6Network.so.6:_ZNK17QHttpHeaderParser16firstHeaderFieldE14QByteArrayViewRK10QByteArray
libQt6Network.so.6:_ZNK17QHttpHeaderParser17headerFieldValuesE14QByteArrayView
libQt6Network.so.6:_ZNK17QHttpHeaderParser19combinedHeaderValueE14QByteArrayViewRK10QByteArray
libQt6Network.so.6:_ZNK9QSslErroreqERKS_
libQt6Network.so.6:_ZNKR17QHttpHeaderParser7headersEv
libQt6Network.so.6:_Zls6QDebugN15QAbstractSocket11SocketErrorE
libQt6Network.so.6:_Zls6QDebugN15QAbstractSocket11SocketStateE
libQt6Network.so.6:_Zls6QDebugRK13QNetworkProxy
libQt6Network.so.6:_Zls6QDebugRK9QSslError
libQt6Qml.so.6:_Z17qmlRegisterModulePKcii
libQt6Qml.so.6:_ZN11QQmlPrivate11qmlregisterENS_16RegistrationTypeEPv
libQt6Qml.so.6:_ZN11QQmlPrivate30qdeclarativeelement_destructorEP7QObject
libQt6Qml.so.6:_ZN16QQmlParserStatusC2Ev
libQt6Qml.so.6:_ZN16QQmlParserStatusD2Ev
libQt6Qml.so.6:_ZN22QQmlModuleRegistrationC1EPKcPFvvE
libQt6Qml.so.6:_ZN22QQmlModuleRegistrationD1Ev
libQt6Qml.so.6:_ZN25QQmlEngineExtensionPlugin11qt_metacallEN11QMetaObject4CallEiPPv
libQt6Qml.so.6:_ZN25QQmlEngineExtensionPlugin11qt_metacastEPKc
libQt6Qml.so.6:_ZN25QQmlEngineExtensionPlugin16initializeEngineEP10QQmlEnginePKc
libQt6Qml.so.6:_ZN25QQmlEngineExtensionPlugin16staticMetaObjectE
libQt6Qml.so.6:_ZN25QQmlEngineExtensionPluginC2EP7QObject
libQt6Qml.so.6:_ZN25QQmlEngineExtensionPluginD2Ev
libQt6Qml.so.6:_ZTI16QQmlParserStatus
libQt6Qml.so.6:_ZTI25QQmlEngineExtensionPlugin
libQt6Qml.so.6:_ZThn16_N25QQmlEngineExtensionPlugin16initializeEngineEP10QQmlEnginePKc
libQt6Quick.so.6:_ZN10QQuickView9setSourceERK4QUrl
libQt6Quick.so.6:_ZN10QQuickViewC1EP7QWindow
libQt6Quick.so.6:_ZN10QQuickViewD1Ev
libc.so.6:__cxa_atexit
libc.so.6:__libc_start_main
libc.so.6:__stack_chk_fail
libc.so.6:memchr
libc.so.6:memcmp
libc.so.6:memcpy
libc.so.6:memmove
libc.so.6:stdout
libc.so.6:strcmp
libc.so.6:strlen
libgcc_s.so.1:_Unwind_Resume
libstdc++.so.6:_ZSt9terminatev
libstdc++.so.6:_ZTVN10__cxxabiv117__class_type_infoE
libstdc++.so.6:_ZTVN10__cxxabiv120__si_class_type_infoE
libstdc++.so.6:_ZTVN10__cxxabiv121__vmi_class_type_infoE
libstdc++.so.6:_ZdaPv
libstdc++.so.6:_ZdaPvm
libstdc++.so.6:_ZdlPv
libstdc++.so.6:_ZdlPvm
libstdc++.so.6:_Znam
libstdc++.so.6:_Znwm
libstdc++.so.6:__cxa_begin_catch
libstdc++.so.6:__cxa_guard_acquire
libstdc++.so.6:__cxa_guard_release
libstdc++.so.6:__cxa_pure_virtual
libstdc++.so.6:__gxx_personality_v0
