UNKNOWN:_ZTI10AIS_Circle
UNKNOWN:_ZTI10BRep_TEdge
UNKNOWN:_ZTI10BRep_TFace
UNKNOWN:_ZTI10Geom_Conic
UNKNOWN:_ZTI10Geom_Curve
UNKNOWN:_ZTI10Geom_Plane
UNKNOWN:_ZTI10Geom_Point
UNKNOWN:_ZTI10TObj_Model
UNKNOWN:_ZTI11Aspect_Grid
UNKNOWN:_ZTI11BOPAlgo_BOP
UNKNOWN:_ZTI11BRep_GCurve
UNKNOWN:_ZTI11DDF_Browser
UNKNOWN:_ZTI11Geom2d_Line
UNKNOWN:_ZTI11Geom_Circle
UNKNOWN:_ZTI11Geom_Vector
UNKNOWN:_ZTI11PCDM_Reader
UNKNOWN:_ZTI11PCDM_Writer
UNKNOWN:_ZTI11TObj_Object
UNKNOWN:_ZTI11TObj_TModel
UNKNOWN:_ZTI12AIS_ViewCube
UNKNOWN:_ZTI12BOPAlgo_Algo
UNKNOWN:_ZTI12BRep_Curve3D
UNKNOWN:_ZTI12BRep_TVertex
UNKNOWN:_ZTI12CDM_Document
UNKNOWN:_ZTI12Geom2d_Conic
UNKNOWN:_ZTI12Geom2d_Curve
UNKNOWN:_ZTI12Geom2d_Point
UNKNOWN:_ZTI12Geom_Ellipse
UNKNOWN:_ZTI12Geom_Surface
UNKNOWN:_ZTI12Law_Function
UNKNOWN:_ZTI12Law_Interpol
UNKNOWN:_ZTI12OpenGl_Group
UNKNOWN:_ZTI12StepFEA_Node
UNKNOWN:_ZTI12TObj_TObject
UNKNOWN:_ZTI12XCAFDoc_Area
UNKNOWN:_ZTI12XCAFDoc_Note
UNKNOWN:_ZTI12XCAFDoc_View
UNKNOWN:_ZTI13AIS_Animation
UNKNOWN:_ZTI13AIS_TextLabel
UNKNOWN:_ZTI13AIS_Trihedron
UNKNOWN:_ZTI13Aspect_Window
UNKNOWN:_ZTI13Geom2d_Circle
UNKNOWN:_ZTI13Geom2d_Vector
UNKNOWN:_ZTI13Geom_Geometry
UNKNOWN:_ZTI13Geom_Parabola
UNKNOWN:_ZTI13IntPatch_Line
UNKNOWN:_ZTI13Law_Composite
UNKNOWN:_ZTI13Message_Alert
UNKNOWN:_ZTI13Standard_Type
UNKNOWN:_ZTI13StepGeom_Line
UNKNOWN:_ZTI13StepRepr_Apex
UNKNOWN:_ZTI13TDF_Attribute
UNKNOWN:_ZTI13TDF_Reference
UNKNOWN:_ZTI13TDF_TagSource
UNKNOWN:_ZTI13TDataStd_Name
UNKNOWN:_ZTI13TDataStd_Real
UNKNOWN:_ZTI13TDataStd_Tick
UNKNOWN:_ZTI13TDataXtd_Axis
UNKNOWN:_ZTI13TDocStd_Owner
UNKNOWN:_ZTI13TDocStd_XLink
UNKNOWN:_ZTI13TopoDS_HShape
UNKNOWN:_ZTI13TopoDS_TShape
UNKNOWN:_ZTI13XCAFDoc_Color
UNKNOWN:_ZTI13XCAFDoc_Datum
UNKNOWN:_ZTI13math_Function
UNKNOWN:_ZTI14AIS_ColorScale
UNKNOWN:_ZTI14BRep_Polygon3D
UNKNOWN:_ZTI14BVH_Properties
UNKNOWN:_ZTI14BinMDF_ADriver
UNKNOWN:_ZTI14Geom2d_Ellipse
UNKNOWN:_ZTI14Geom_Direction
UNKNOWN:_ZTI14Geom_Hyperbola
UNKNOWN:_ZTI14IGESSolid_Face
UNKNOWN:_ZTI14IntPatch_ALine
UNKNOWN:_ZTI14IntPatch_GLine
UNKNOWN:_ZTI14Intf_Polygon2d
UNKNOWN:_ZTI14OpenGl_Element
UNKNOWN:_ZTI14Poly_Polygon3D
UNKNOWN:_ZTI14Standard_Mutex
UNKNOWN:_ZTI14StepBasic_Date
UNKNOWN:_ZTI14StepGeom_Conic
UNKNOWN:_ZTI14StepGeom_Curve
UNKNOWN:_ZTI14StepGeom_Plane
UNKNOWN:_ZTI14StepGeom_Point
UNKNOWN:_ZTI14StepShape_Edge
UNKNOWN:_ZTI14StepShape_Face
UNKNOWN:_ZTI14StepShape_Loop
UNKNOWN:_ZTI14StepShape_Path
UNKNOWN:_ZTI14TDataXtd_Plane
UNKNOWN:_ZTI14TDataXtd_Point
UNKNOWN:_ZTI14TNaming_Naming
UNKNOWN:_ZTI14TPrsStd_Driver
UNKNOWN:_ZTI14TopLoc_Datum3D
UNKNOWN:_ZTI14XCAFDoc_DimTol
UNKNOWN:_ZTI14XCAFDoc_Volume
UNKNOWN:_ZTI14XSControl_Vars
UNKNOWN:_ZTI14XmlMDF_ADriver
UNKNOWN:_ZTI15AIS_LightSource
UNKNOWN:_ZTI15AIS_Manipulator
UNKNOWN:_ZTI15Adaptor3d_Curve
UNKNOWN:_ZTI15AppBlend_Approx
UNKNOWN:_ZTI15BOPAlgo_Builder
UNKNOWN:_ZTI15BOPAlgo_Options
UNKNOWN:_ZTI15CDF_Application
UNKNOWN:_ZTI15CDM_Application
UNKNOWN:_ZTI15Draw_Drawable3D
UNKNOWN:_ZTI15Geom2d_Geometry
UNKNOWN:_ZTI15Geom2d_Parabola
UNKNOWN:_ZTI15Graphic3d_CView
UNKNOWN:_ZTI15Graphic3d_Group
UNKNOWN:_ZTI15IFSelect_Editor
UNKNOWN:_ZTI15IGESGraph_Color
UNKNOWN:_ZTI15Message_Printer
UNKNOWN:_ZTI15OpenGl_Resource
UNKNOWN:_ZTI15PrsDim_Relation
UNKNOWN:_ZTI15StepBasic_Group
UNKNOWN:_ZTI15StepFEA_NodeSet
UNKNOWN:_ZTI15StepGeom_Circle
UNKNOWN:_ZTI15StepGeom_Pcurve
UNKNOWN:_ZTI15StepGeom_Vector
UNKNOWN:_ZTI15StepShape_Block
UNKNOWN:_ZTI15StepShape_Torus
UNKNOWN:_ZTI15TFunction_Scope
UNKNOWN:_ZTI15TObj_TReference
UNKNOWN:_ZTI15Transfer_Binder
UNKNOWN:_ZTI15Transfer_Finder
UNKNOWN:_ZTI16AIS_ColoredShape
UNKNOWN:_ZTI16BRepFeat_Builder
UNKNOWN:_ZTI16BRepFeat_RibSlot
UNKNOWN:_ZTI16DrawTrSurf_Curve
UNKNOWN:_ZTI16DrawTrSurf_Point
UNKNOWN:_ZTI16Geom2d_Direction
UNKNOWN:_ZTI16Geom2d_Hyperbola
UNKNOWN:_ZTI16Geom_BezierCurve
UNKNOWN:_ZTI16Geom_OffsetCurve
UNKNOWN:_ZTI16Graphic3d_Buffer
UNKNOWN:_ZTI16Graphic3d_CLight
UNKNOWN:_ZTI16PrsDim_Dimension
UNKNOWN:_ZTI16Standard_Failure
UNKNOWN:_ZTI16StepBasic_Action
UNKNOWN:_ZTI16StepBasic_Person
UNKNOWN:_ZTI16StepBasic_SiUnit
UNKNOWN:_ZTI16StepDimTol_Datum
UNKNOWN:_ZTI16StepFEA_FeaGroup
UNKNOWN:_ZTI16StepFEA_FeaModel
UNKNOWN:_ZTI16StepGeom_Ellipse
UNKNOWN:_ZTI16StepGeom_Surface
UNKNOWN:_ZTI16StepRepr_Tangent
UNKNOWN:_ZTI16StepShape_Sphere
UNKNOWN:_ZTI16StepShape_Vertex
UNKNOWN:_ZTI16TDataStd_Comment
UNKNOWN:_ZTI16TDataStd_Integer
UNKNOWN:_ZTI16TDocStd_Document
UNKNOWN:_ZTI16TDocStd_Modified
UNKNOWN:_ZTI16TFunction_Driver
UNKNOWN:_ZTI16TObj_Persistence
UNKNOWN:_ZTI16XCAFDoc_Centroid
UNKNOWN:_ZTI16XCAFDoc_Location
UNKNOWN:_ZTI16XCAFDoc_Material
UNKNOWN:_ZTI16XSControl_Reader
UNKNOWN:_ZTI16math_FunctionSet
UNKNOWN:_ZTI17AIS_CameraFrustum
UNKNOWN:_ZTI17Adaptor2d_Curve2d
UNKNOWN:_ZTI17Adaptor3d_HVertex
UNKNOWN:_ZTI17Adaptor3d_Surface
UNKNOWN:_ZTI17BRepLib_MakeShape
UNKNOWN:_ZTI17BRepTools_ReShape
UNKNOWN:_ZTI17Bisector_BisecAna
UNKNOWN:_ZTI17GeomAdaptor_Curve
UNKNOWN:_ZTI17GeomFill_Profiler
UNKNOWN:_ZTI17Geom_BSplineCurve
UNKNOWN:_ZTI17Geom_BoundedCurve
UNKNOWN:_ZTI17Geom_SweptSurface
UNKNOWN:_ZTI17Geom_TrimmedCurve
UNKNOWN:_ZTI17Graphic3d_CubeMap
UNKNOWN:_ZTI17IFSelect_Dispatch
UNKNOWN:_ZTI17IFSelect_IntParam
UNKNOWN:_ZTI17IFSelect_Modifier
UNKNOWN:_ZTI17MeshVS_DataSource
UNKNOWN:_ZTI17Message_Algorithm
UNKNOWN:_ZTI17Message_Attribute
UNKNOWN:_ZTI17MoniTool_SignText
UNKNOWN:_ZTI17PLib_HermitJacobi
UNKNOWN:_ZTI17StepBasic_Address
UNKNOWN:_ZTI17StepBasic_Product
UNKNOWN:_ZTI17StepData_Protocol
UNKNOWN:_ZTI17StepFEA_DummyNode
UNKNOWN:_ZTI17StepFEA_NodeGroup
UNKNOWN:_ZTI17StepGeom_Parabola
UNKNOWN:_ZTI17StepGeom_Polyline
UNKNOWN:_ZTI17StepShape_Subedge
UNKNOWN:_ZTI17StepShape_Subface
UNKNOWN:_ZTI17StepVisual_Colour
UNKNOWN:_ZTI17TDataStd_RealList
UNKNOWN:_ZTI17TDataStd_Relation
UNKNOWN:_ZTI17TDataStd_TreeNode
UNKNOWN:_ZTI17TDataStd_Variable
UNKNOWN:_ZTI17TDataXtd_Geometry
UNKNOWN:_ZTI17TDataXtd_Position
UNKNOWN:_ZTI17XCAFDoc_Dimension
UNKNOWN:_ZTI17XCAFDoc_GraphNode
UNKNOWN:_ZTI18AIS_PlaneTrihedron
UNKNOWN:_ZTI18AIS_ViewController
UNKNOWN:_ZTI18DrawTrSurf_Curve2d
UNKNOWN:_ZTI18Geom2d_BezierCurve
UNKNOWN:_ZTI18Geom2d_OffsetCurve
UNKNOWN:_ZTI18Geom_BezierSurface
UNKNOWN:_ZTI18Geom_OffsetSurface
UNKNOWN:_ZTI18IFSelect_Activator
UNKNOWN:_ZTI18IFSelect_Selection
UNKNOWN:_ZTI18IFSelect_Signature
UNKNOWN:_ZTI18IGESControl_Reader
UNKNOWN:_ZTI18IGESData_IGESModel
UNKNOWN:_ZTI18IntPatch_PointLine
UNKNOWN:_ZTI18Interface_Protocol
UNKNOWN:_ZTI18Interface_SignType
UNKNOWN:_ZTI18PCDM_StorageDriver
UNKNOWN:_ZTI18Poly_Triangulation
UNKNOWN:_ZTI18PrsDim_FixRelation
UNKNOWN:_ZTI18Standard_Transient
UNKNOWN:_ZTI18StepBasic_Approval
UNKNOWN:_ZTI18StepBasic_AreaUnit
UNKNOWN:_ZTI18StepBasic_Contract
UNKNOWN:_ZTI18StepBasic_DateRole
UNKNOWN:_ZTI18StepBasic_Document
UNKNOWN:_ZTI18StepBasic_MassUnit
UNKNOWN:_ZTI18StepData_SelectInt
UNKNOWN:_ZTI18StepData_StepModel
UNKNOWN:_ZTI18StepFEA_FeaModel3d
UNKNOWN:_ZTI18StepGeom_Direction
UNKNOWN:_ZTI18StepGeom_Hyperbola
UNKNOWN:_ZTI18StepGeom_Placement
UNKNOWN:_ZTI18StepGeom_SeamCurve
UNKNOWN:_ZTI18StepRepr_Extension
UNKNOWN:_ZTI18StepShape_CsgSolid
UNKNOWN:_ZTI18StepShape_EdgeLoop
UNKNOWN:_ZTI18StepShape_PolyLoop
UNKNOWN:_ZTI18StepShape_SeamEdge
UNKNOWN:_ZTI18TDF_AttributeDelta
UNKNOWN:_ZTI18TDF_DeltaOnRemoval
UNKNOWN:_ZTI18TDataStd_ByteArray
UNKNOWN:_ZTI18TDataStd_NamedData
UNKNOWN:_ZTI18TDataStd_RealArray
UNKNOWN:_ZTI18TFunction_Function
UNKNOWN:_ZTI18XCAFDoc_LengthUnit
UNKNOWN:_ZTI18math_NewtonMinimum
UNKNOWN:_ZTI19AIS_AnimationCamera
UNKNOWN:_ZTI19Adaptor3d_TopolTool
UNKNOWN:_ZTI19Aspect_CircularGrid
UNKNOWN:_ZTI19BRepAdaptor_Curve2d
UNKNOWN:_ZTI19BRepAdaptor_Surface
UNKNOWN:_ZTI19BRep_CurveOnSurface
UNKNOWN:_ZTI19BRep_PointOnSurface
UNKNOWN:_ZTI19BVH_ObjectTransient
UNKNOWN:_ZTI19DBRep_DrawableShape
UNKNOWN:_ZTI19DrawTrSurf_Drawable
UNKNOWN:_ZTI19Geom2dAdaptor_Curve
UNKNOWN:_ZTI19Geom2d_BSplineCurve
UNKNOWN:_ZTI19Geom2d_BoundedCurve
UNKNOWN:_ZTI19Geom2d_TrimmedCurve
UNKNOWN:_ZTI19GeomAdaptor_Surface
UNKNOWN:_ZTI19Geom_Axis2Placement
UNKNOWN:_ZTI19Geom_BSplineSurface
UNKNOWN:_ZTI19Geom_BoundedSurface
UNKNOWN:_ZTI19Geom_CartesianPoint
UNKNOWN:_ZTI19Geom_ConicalSurface
UNKNOWN:_ZTI19Graphic3d_Structure
UNKNOWN:_ZTI19Graphic3d_Texture2D
UNKNOWN:_ZTI19IGESData_IGESEntity
UNKNOWN:_ZTI19Poly_MergeNodesTool
UNKNOWN:_ZTI19Standard_Persistent
UNKNOWN:_ZTI19StdSelect_BRepOwner
UNKNOWN:_ZTI19StepBasic_LocalTime
UNKNOWN:_ZTI19StepBasic_NamedUnit
UNKNOWN:_ZTI19StepData_SelectReal
UNKNOWN:_ZTI19StepData_SelectType
UNKNOWN:_ZTI19StepRepr_MappedItem
UNKNOWN:_ZTI19StepRepr_ValueRange
UNKNOWN:_ZTI19StepSelect_StepType
UNKNOWN:_ZTI19StepShape_BoxDomain
UNKNOWN:_ZTI19StepShape_EdgeCurve
UNKNOWN:_ZTI19StepShape_FaceBound
UNKNOWN:_ZTI19StepShape_OpenShell
UNKNOWN:_ZTI19StepVisual_Template
UNKNOWN:_ZTI19TDataStd_Expression
UNKNOWN:_ZTI19TDataStd_UAttribute
UNKNOWN:_ZTI19TDataXtd_Constraint
UNKNOWN:_ZTI19TDataXtd_PatternStd
UNKNOWN:_ZTI19TDocStd_Application
UNKNOWN:_ZTI19TFunction_GraphNode
UNKNOWN:_ZTI19XCAFDoc_NoteBalloon
UNKNOWN:_ZTI19XCAFDoc_NoteBinData
UNKNOWN:_ZTI19XCAFDoc_NoteComment
UNKNOWN:_ZTI19XCAFDoc_VisMaterial
UNKNOWN:_ZTI19math_FunctionSample
UNKNOWN:_ZTI20AdvApp2Var_Criterion
UNKNOWN:_ZTI20ApproxInt_SvSurfaces
UNKNOWN:_ZTI20Approx_SweepFunction
UNKNOWN:_ZTI20BVH_BuilderTransient
UNKNOWN:_ZTI20Geom2d_AxisPlacement
UNKNOWN:_ZTI20GeomFill_LocationLaw
UNKNOWN:_ZTI20Geom_ToroidalSurface
UNKNOWN:_ZTI20Graphic3d_CStructure
UNKNOWN:_ZTI20Graphic3d_FrameStats
UNKNOWN:_ZTI20Graphic3d_TextureEnv
UNKNOWN:_ZTI20Graphic3d_TextureMap
UNKNOWN:_ZTI20Graphic3d_TextureSet
UNKNOWN:_ZTI20IFSelect_SignCounter
UNKNOWN:_ZTI20IFSelect_Transformer
UNKNOWN:_ZTI20IFSelect_WorkLibrary
UNKNOWN:_ZTI20IGESData_ColorEntity
UNKNOWN:_ZTI20OpenGl_GraphicDriver
UNKNOWN:_ZTI20OpenGl_ShaderProgram
UNKNOWN:_ZTI20PCDM_RetrievalDriver
UNKNOWN:_ZTI20Standard_OutOfMemory
UNKNOWN:_ZTI20StdObjMgt_Persistent
UNKNOWN:_ZTI20StepBasic_LengthUnit
UNKNOWN:_ZTI20StepBasic_ObjectRole
UNKNOWN:_ZTI20StepBasic_VolumeUnit
UNKNOWN:_ZTI20StepData_SelectNamed
UNKNOWN:_ZTI20StepFEA_ElementGroup
UNKNOWN:_ZTI20StepFEA_FreedomsList
UNKNOWN:_ZTI20StepGeom_BezierCurve
UNKNOWN:_ZTI20StepRepr_ShapeAspect
UNKNOWN:_ZTI20StepShape_SolidModel
UNKNOWN:_ZTI20StepShape_VertexLoop
UNKNOWN:_ZTI20StepVisual_AreaInSet
UNKNOWN:_ZTI20StepVisual_ColourRgb
UNKNOWN:_ZTI20StepVisual_PlanarBox
UNKNOWN:_ZTI20StepVisual_TextStyle
UNKNOWN:_ZTI20TDataStd_AsciiString
UNKNOWN:_ZTI20TDataStd_BooleanList
UNKNOWN:_ZTI20TDataStd_IntegerList
UNKNOWN:_ZTI20TObj_TIntSparseArray
UNKNOWN:_ZTI20XSControl_Controller
UNKNOWN:_ZTI21AIS_InteractiveObject
UNKNOWN:_ZTI21BRep_CurveOn2Surfaces
UNKNOWN:_ZTI21BRep_PolygonOnSurface
UNKNOWN:_ZTI21BVH_TreeBaseTransient
UNKNOWN:_ZTI21Geom2d_CartesianPoint
UNKNOWN:_ZTI21Geom_SphericalSurface
UNKNOWN:_ZTI21Graphic3d_TextureRoot
UNKNOWN:_ZTI21IFSelect_SelectDeduct
UNKNOWN:_ZTI21PrsDim_AngleDimension
UNKNOWN:_ZTI21Select3D_SensitiveSet
UNKNOWN:_ZTI21SelectMgr_EntityOwner
UNKNOWN:_ZTI21StepBasic_DateAndTime
UNKNOWN:_ZTI21StepBasic_DerivedUnit
UNKNOWN:_ZTI21StepBasic_Effectivity
UNKNOWN:_ZTI21StepBasic_EulerAngles
UNKNOWN:_ZTI21StepBasic_OrdinalDate
UNKNOWN:_ZTI21StepBasic_ProductType
UNKNOWN:_ZTI21StepData_SelectMember
UNKNOWN:_ZTI21StepFEA_GeometricNode
UNKNOWN:_ZTI21StepGeom_BSplineCurve
UNKNOWN:_ZTI21StepGeom_BoundedCurve
UNKNOWN:_ZTI21StepGeom_CurveReplica
UNKNOWN:_ZTI21StepGeom_PointOnCurve
UNKNOWN:_ZTI21StepGeom_PointReplica
UNKNOWN:_ZTI21StepGeom_SuParameters
UNKNOWN:_ZTI21StepGeom_SurfaceCurve
UNKNOWN:_ZTI21StepGeom_SurfacePatch
UNKNOWN:_ZTI21StepGeom_SweptSurface
UNKNOWN:_ZTI21StepGeom_TrimmedCurve
UNKNOWN:_ZTI21StepGeom_UniformCurve
UNKNOWN:_ZTI21StepShape_AngularSize
UNKNOWN:_ZTI21StepShape_ClosedShell
UNKNOWN:_ZTI21StepShape_FaceSurface
UNKNOWN:_ZTI21StepShape_FacetedBrep
UNKNOWN:_ZTI21StepShape_LoopAndPath
UNKNOWN:_ZTI21StepShape_VertexPoint
UNKNOWN:_ZTI21StepVisual_CurveStyle
UNKNOWN:_ZTI21StepVisual_PointStyle
UNKNOWN:_ZTI21StepVisual_StyledItem
UNKNOWN:_ZTI21StepVisual_ViewVolume
UNKNOWN:_ZTI21TDataStd_BooleanArray
UNKNOWN:_ZTI21TDataStd_GenericEmpty
UNKNOWN:_ZTI21TDataStd_IntPackedMap
UNKNOWN:_ZTI21TDataStd_IntegerArray
UNKNOWN:_ZTI21TDataXtd_Presentation
UNKNOWN:_ZTI21TopoDS_AlertWithShape
UNKNOWN:_ZTI21XCAFDoc_GeomTolerance
UNKNOWN:_ZTI21XSControl_WorkSession
UNKNOWN:_ZTI22Aspect_RectangularGrid
UNKNOWN:_ZTI22BRepTools_Modification
UNKNOWN:_ZTI22BRepTopAdaptor_HVertex
UNKNOWN:_ZTI22DrawTrSurf_BezierCurve
UNKNOWN:_ZTI22GeomFill_LocationGuide
UNKNOWN:_ZTI22Geom_ElementarySurface
UNKNOWN:_ZTI22Graphic3d_AttribBuffer
UNKNOWN:_ZTI22HeaderSection_FileName
UNKNOWN:_ZTI22IFSelect_SelectExplore
UNKNOWN:_ZTI22IFSelect_SelectExtract
UNKNOWN:_ZTI22IFSelect_SessionDumper
UNKNOWN:_ZTI22IFSelect_SignatureList
UNKNOWN:_ZTI22IGESBasic_SubfigureDef
UNKNOWN:_ZTI22IGESControl_Controller
UNKNOWN:_ZTI22Interface_ReaderModule
UNKNOWN:_ZTI22MeshVS_MeshEntityOwner
UNKNOWN:_ZTI22Message_PrinterOStream
UNKNOWN:_ZTI22PrsDim_IdenticRelation
UNKNOWN:_ZTI22PrsDim_LengthDimension
UNKNOWN:_ZTI22PrsDim_OffsetDimension
UNKNOWN:_ZTI22PrsDim_RadiusDimension
UNKNOWN:_ZTI22PrsDim_TangentRelation
UNKNOWN:_ZTI22STEPControl_ActorWrite
UNKNOWN:_ZTI22STEPControl_Controller
UNKNOWN:_ZTI22Select3D_SensitiveFace
UNKNOWN:_ZTI22Select3D_SensitiveWire
UNKNOWN:_ZTI22StepBasic_ActionMethod
UNKNOWN:_ZTI22StepBasic_ApprovalRole
UNKNOWN:_ZTI22StepBasic_CalendarDate
UNKNOWN:_ZTI22StepBasic_ContractType
UNKNOWN:_ZTI22StepBasic_DateTimeRole
UNKNOWN:_ZTI22StepBasic_DocumentFile
UNKNOWN:_ZTI22StepBasic_DocumentType
UNKNOWN:_ZTI22StepBasic_Organization
UNKNOWN:_ZTI22StepData_GeneralModule
UNKNOWN:_ZTI22StepData_SelectArrReal
UNKNOWN:_ZTI22StepDimTol_CommonDatum
UNKNOWN:_ZTI22StepDimTol_DatumSystem
UNKNOWN:_ZTI22StepDimTol_DatumTarget
UNKNOWN:_ZTI22StepFEA_FeaAreaDensity
UNKNOWN:_ZTI22StepFEA_FeaMassDensity
UNKNOWN:_ZTI22StepFEA_NodeDefinition
UNKNOWN:_ZTI22StepFEA_NodeWithVector
UNKNOWN:_ZTI22StepGeom_BezierSurface
UNKNOWN:_ZTI22StepGeom_BoundaryCurve
UNKNOWN:_ZTI22StepGeom_OffsetCurve3d
UNKNOWN:_ZTI22StepGeom_OffsetSurface
UNKNOWN:_ZTI22StepShape_AdvancedFace
UNKNOWN:_ZTI22StepShape_GeometricSet
UNKNOWN:_ZTI22StepShape_OrientedEdge
UNKNOWN:_ZTI22StepShape_OrientedFace
UNKNOWN:_ZTI22StepShape_OrientedPath
UNKNOWN:_ZTI22StepShape_SolidReplica
UNKNOWN:_ZTI22StepVisual_CameraImage
UNKNOWN:_ZTI22StepVisual_CameraModel
UNKNOWN:_ZTI22StepVisual_CameraUsage
UNKNOWN:_ZTI22StepVisual_TextLiteral
UNKNOWN:_ZTI22TDataStd_ExtStringList
UNKNOWN:_ZTI22TDataStd_ReferenceList
UNKNOWN:_ZTI22TDataXtd_Triangulation
UNKNOWN:_ZTI22Transfer_FinderProcess
UNKNOWN:_ZTI23DrawTrSurf_BSplineCurve
UNKNOWN:_ZTI23Geom_CylindricalSurface
UNKNOWN:_ZTI23Graphic3d_ArrayOfPoints
UNKNOWN:_ZTI23Graphic3d_GraphicDriver
UNKNOWN:_ZTI23Graphic3d_ShaderManager
UNKNOWN:_ZTI23Graphic3d_TransformPers
UNKNOWN:_ZTI23Interface_GeneralModule
UNKNOWN:_ZTI23Message_AttributeStream
UNKNOWN:_ZTI23Message_PrinterToReport
UNKNOWN:_ZTI23PrsDim_MidPointRelation
UNKNOWN:_ZTI23PrsDim_ParallelRelation
UNKNOWN:_ZTI23StepBasic_Certification
UNKNOWN:_ZTI23StepDimTol_DatumFeature
UNKNOWN:_ZTI23StepGeom_Axis1Placement
UNKNOWN:_ZTI23StepGeom_BSplineSurface
UNKNOWN:_ZTI23StepGeom_BoundedSurface
UNKNOWN:_ZTI23StepGeom_CartesianPoint
UNKNOWN:_ZTI23StepGeom_CompositeCurve
UNKNOWN:_ZTI23StepGeom_ConicalSurface
UNKNOWN:_ZTI23StepGeom_PointOnSurface
UNKNOWN:_ZTI23StepGeom_SurfaceReplica
UNKNOWN:_ZTI23StepGeom_UniformSurface
UNKNOWN:_ZTI23StepKinematics_GearPair
UNKNOWN:_ZTI23StepRepr_ParallelOffset
UNKNOWN:_ZTI23StepRepr_ProductConcept
UNKNOWN:_ZTI23StepRepr_Representation
UNKNOWN:_ZTI23StepShape_BooleanResult
UNKNOWN:_ZTI23StepShape_BrepWithVoids
UNKNOWN:_ZTI23StepShape_LimitsAndFits
UNKNOWN:_ZTI23StepShape_TypeQualifier
UNKNOWN:_ZTI23StepVisual_Invisibility
UNKNOWN:_ZTI23StepVisual_PlanarExtent
UNKNOWN:_ZTI23TDF_DeltaOnModification
UNKNOWN:_ZTI23TDataStd_ExtStringArray
UNKNOWN:_ZTI23TDataStd_ReferenceArray
UNKNOWN:_ZTI23TPrsStd_AISPresentation
UNKNOWN:_ZTI23XCAFDoc_AssemblyItemRef
UNKNOWN:_ZTI24AIS_ConnectedInteractive
UNKNOWN:_ZTI24Adaptor3d_CurveOnSurface
UNKNOWN:_ZTI24BRepBuilderAPI_MakeShape
UNKNOWN:_ZTI24BRep_CurveRepresentation
UNKNOWN:_ZTI24BRep_PointRepresentation
UNKNOWN:_ZTI24DrawTrSurf_BezierCurve2d
UNKNOWN:_ZTI24DrawTrSurf_Triangulation
UNKNOWN:_ZTI24Geom_SurfaceOfRevolution
UNKNOWN:_ZTI24Geom_VectorWithMagnitude
UNKNOWN:_ZTI24Graphic3d_ValueInterface
UNKNOWN:_ZTI24HeaderSection_FileSchema
UNKNOWN:_ZTI24IFSelect_GeneralModifier
UNKNOWN:_ZTI24Interface_FileReaderData
UNKNOWN:_ZTI24Interface_FileReaderTool
UNKNOWN:_ZTI24Interface_InterfaceModel
UNKNOWN:_ZTI24NCollection_IncAllocator
UNKNOWN:_ZTI24PrsDim_DiameterDimension
UNKNOWN:_ZTI24PrsDim_SymmetricRelation
UNKNOWN:_ZTI24PrsMgr_PresentableObject
UNKNOWN:_ZTI24Select3D_SensitiveEntity
UNKNOWN:_ZTI24SelectMgr_ViewerSelector
UNKNOWN:_ZTI24ShapeUpgrade_ShapeDivide
UNKNOWN:_ZTI24StepBasic_ApprovalStatus
UNKNOWN:_ZTI24StepBasic_DateAssignment
UNKNOWN:_ZTI24StepBasic_ExternalSource
UNKNOWN:_ZTI24StepBasic_NameAssignment
UNKNOWN:_ZTI24StepBasic_PlaneAngleUnit
UNKNOWN:_ZTI24StepBasic_ProductContext
UNKNOWN:_ZTI24StepBasic_SolidAngleUnit
UNKNOWN:_ZTI24StepData_ReadWriteModule
UNKNOWN:_ZTI24StepDimTol_ToleranceZone
UNKNOWN:_ZTI24StepGeom_OrientedSurface
UNKNOWN:_ZTI24StepGeom_ToroidalSurface
UNKNOWN:_ZTI24StepKinematics_ScrewPair
UNKNOWN:_ZTI24StepRepr_DataEnvironment
UNKNOWN:_ZTI24StepRepr_PerpendicularTo
UNKNOWN:_ZTI24StepShape_BoxedHalfSpace
UNKNOWN:_ZTI24StepShape_FaceOuterBound
UNKNOWN:_ZTI24StepShape_HalfSpaceSolid
UNKNOWN:_ZTI24StepShape_SweptAreaSolid
UNKNOWN:_ZTI24StepShape_SweptFaceSolid
UNKNOWN:_ZTI24StepShape_ToleranceValue
UNKNOWN:_ZTI24StepVisual_CameraModelD2
UNKNOWN:_ZTI24StepVisual_CameraModelD3
UNKNOWN:_ZTI24StepVisual_CompositeText
UNKNOWN:_ZTI24StepVisual_FillAreaStyle
UNKNOWN:_ZTI24StepVisual_PresentedItem
UNKNOWN:_ZTI24TCollection_HAsciiString
UNKNOWN:_ZTI24TransferBRep_ShapeBinder
UNKNOWN:_ZTI24TransferBRep_ShapeMapper
UNKNOWN:_ZTI24Transfer_TransientMapper
UNKNOWN:_ZTI24math_MultipleVarFunction
UNKNOWN:_ZTI25BRep_CurveOnClosedSurface
UNKNOWN:_ZTI25DrawTrSurf_BSplineCurve2d
UNKNOWN:_ZTI25GeomPlate_CurveConstraint
UNKNOWN:_ZTI25Graphic3d_ArrayOfSegments
UNKNOWN:_ZTI25Graphic3d_MediaTextureSet
UNKNOWN:_ZTI25Graphic3d_Texture2Dmanual
UNKNOWN:_ZTI25IFSelect_SelectModelRoots
UNKNOWN:_ZTI25Message_ProgressIndicator
UNKNOWN:_ZTI25NCollection_BaseAllocator
UNKNOWN:_ZTI25NCollection_HeapAllocator
UNKNOWN:_ZTI25PrsDim_ConcentricRelation
UNKNOWN:_ZTI25PrsDim_MaxRadiusDimension
UNKNOWN:_ZTI25PrsDim_MinRadiusDimension
UNKNOWN:_ZTI25Select3D_SensitiveSegment
UNKNOWN:_ZTI25ShapeProcess_ShapeContext
UNKNOWN:_ZTI25StepBasic_GeneralProperty
UNKNOWN:_ZTI25StepBasic_GroupAssignment
UNKNOWN:_ZTI25StepBasic_MeasureWithUnit
UNKNOWN:_ZTI25StepBasic_PersonalAddress
UNKNOWN:_ZTI25StepBasic_ProductCategory
UNKNOWN:_ZTI25StepBasic_RoleAssociation
UNKNOWN:_ZTI25StepDimTol_DatumReference
UNKNOWN:_ZTI25StepGeom_Axis2Placement2d
UNKNOWN:_ZTI25StepGeom_Axis2Placement3d
UNKNOWN:_ZTI25StepGeom_DegeneratePcurve
UNKNOWN:_ZTI25StepGeom_SphericalSurface
UNKNOWN:_ZTI25StepKinematics_PlanarPair
UNKNOWN:_ZTI25StepRepr_CentreOfSymmetry
UNKNOWN:_ZTI25StepRepr_MaterialProperty
UNKNOWN:_ZTI25StepShape_AngularLocation
UNKNOWN:_ZTI25StepShape_DimensionalSize
UNKNOWN:_ZTI25StepVisual_CurveStyleFont
UNKNOWN:_ZTI25StepVisual_PreDefinedItem
UNKNOWN:_ZTI25TDataStd_GenericExtString
UNKNOWN:_ZTI25TopOpeBRepDS_Interference
UNKNOWN:_ZTI25Transfer_TransientProcess
UNKNOWN:_ZTI26Aspect_WindowInputListener
UNKNOWN:_ZTI26BRepBuilderAPI_ModifyShape
UNKNOWN:_ZTI26BRepTools_TrsfModification
UNKNOWN:_ZTI26Geom2d_VectorWithMagnitude
UNKNOWN:_ZTI26Graphic3d_ArrayOfTriangles
UNKNOWN:_ZTI26ProjLib_CompProjectedCurve
UNKNOWN:_ZTI26PrsDim_EqualRadiusRelation
UNKNOWN:_ZTI26SelectMgr_SelectableObject
UNKNOWN:_ZTI26StepBasic_ActionAssignment
UNKNOWN:_ZTI26StepBasic_ApprovalDateTime
UNKNOWN:_ZTI26StepBasic_OrganizationRole
UNKNOWN:_ZTI26StepElement_SurfaceSection
UNKNOWN:_ZTI26StepFEA_FeaModelDefinition
UNKNOWN:_ZTI26StepFEA_FeaParametricPoint
UNKNOWN:_ZTI26StepFEA_NodeRepresentation
UNKNOWN:_ZTI26StepGeom_ElementarySurface
UNKNOWN:_ZTI26StepGeom_IntersectionCurve
UNKNOWN:_ZTI26StepGeom_QuasiUniformCurve
UNKNOWN:_ZTI26StepRepr_ConfigurationItem
UNKNOWN:_ZTI26StepRepr_RepresentationMap
UNKNOWN:_ZTI26StepShape_ConnectedEdgeSet
UNKNOWN:_ZTI26StepShape_ConnectedFaceSet
UNKNOWN:_ZTI26StepVisual_AnnotationPlane
UNKNOWN:_ZTI26StepVisual_CoordinatesList
UNKNOWN:_ZTI26StepVisual_DraughtingModel
UNKNOWN:_ZTI26StepVisual_PresentationSet
UNKNOWN:_ZTI26StepVisual_TessellatedItem
UNKNOWN:_ZTI27BRepTools_GTrsfModification
UNKNOWN:_ZTI27BRep_PolygonOnClosedSurface
UNKNOWN:_ZTI27BRep_PolygonOnTriangulation
UNKNOWN:_ZTI27BinMNaming_NamedShapeDriver
UNKNOWN:_ZTI27Graphic3d_ArrayOfPrimitives
UNKNOWN:_ZTI27OpenGl_GraphicDriverFactory
UNKNOWN:_ZTI27Poly_PolygonOnTriangulation
UNKNOWN:_ZTI27StepBasic_CertificationType
UNKNOWN:_ZTI27StepBasic_DocumentReference
UNKNOWN:_ZTI27StepBasic_GroupRelationship
UNKNOWN:_ZTI27StepBasic_MechanicalContext
UNKNOWN:_ZTI27StepBasic_ProductDefinition
UNKNOWN:_ZTI27StepBasic_SiUnitAndAreaUnit
UNKNOWN:_ZTI27StepBasic_SiUnitAndMassUnit
UNKNOWN:_ZTI27StepBasic_SiUnitAndTimeUnit
UNKNOWN:_ZTI27StepElement_ElementMaterial
UNKNOWN:_ZTI27StepFEA_FeaAxis2Placement3d
UNKNOWN:_ZTI27StepFEA_FeaLinearElasticity
UNKNOWN:_ZTI27StepGeom_CylindricalSurface
UNKNOWN:_ZTI27StepGeom_OuterBoundaryCurve
UNKNOWN:_ZTI27StepKinematics_RevolutePair
UNKNOWN:_ZTI27StepRepr_BetweenShapeAspect
UNKNOWN:_ZTI27StepRepr_DerivedShapeAspect
UNKNOWN:_ZTI27StepRepr_GeometricAlignment
UNKNOWN:_ZTI27StepRepr_PropertyDefinition
UNKNOWN:_ZTI27StepRepr_RepresentationItem
UNKNOWN:_ZTI27StepShape_ExtrudedAreaSolid
UNKNOWN:_ZTI27StepShape_ExtrudedFaceSolid
UNKNOWN:_ZTI27StepShape_GeometricCurveSet
UNKNOWN:_ZTI27StepShape_ManifoldSolidBrep
UNKNOWN:_ZTI27StepShape_OrientedOpenShell
UNKNOWN:_ZTI27StepShape_RevolvedAreaSolid
UNKNOWN:_ZTI27StepShape_RevolvedFaceSolid
UNKNOWN:_ZTI27StepShape_RightAngularWedge
UNKNOWN:_ZTI27StepShape_RightCircularCone
UNKNOWN:_ZTI27StepVisual_BackgroundColour
UNKNOWN:_ZTI27StepVisual_PreDefinedColour
UNKNOWN:_ZTI27StepVisual_PresentationArea
UNKNOWN:_ZTI27StepVisual_PresentationSize
UNKNOWN:_ZTI27StepVisual_PresentationView
UNKNOWN:_ZTI27StepVisual_SurfaceSideStyle
UNKNOWN:_ZTI27StepVisual_TemplateInstance
UNKNOWN:_ZTI27TCollection_HExtendedString
UNKNOWN:_ZTI27XSControl_SelectForTransfer
UNKNOWN:_ZTI27XmlMNaming_NamedShapeDriver
UNKNOWN:_ZTI27math_FunctionWithDerivative
UNKNOWN:_ZTI28IFSelect_SelectModelEntities
UNKNOWN:_ZTI28PrsDim_EqualDistanceRelation
UNKNOWN:_ZTI28PrsDim_PerpendicularRelation
UNKNOWN:_ZTI28StepBasic_ApplicationContext
UNKNOWN:_ZTI28StepBasic_ApprovalAssignment
UNKNOWN:_ZTI28StepBasic_ContractAssignment
UNKNOWN:_ZTI28StepBasic_DerivedUnitElement
UNKNOWN:_ZTI28StepBasic_IdentificationRole
UNKNOWN:_ZTI28StepBasic_SiUnitAndRatioUnit
UNKNOWN:_ZTI28StepDimTol_FlatnessTolerance
UNKNOWN:_ZTI28StepDimTol_PositionTolerance
UNKNOWN:_ZTI28StepDimTol_SymmetryTolerance
UNKNOWN:_ZTI28StepDimTol_ToleranceZoneForm
UNKNOWN:_ZTI28StepFEA_CurveElementInterval
UNKNOWN:_ZTI28StepFEA_CurveElementLocation
UNKNOWN:_ZTI28StepGeom_CurveBoundedSurface
UNKNOWN:_ZTI28StepGeom_QuasiUniformSurface
UNKNOWN:_ZTI28StepGeom_SurfaceOfRevolution
UNKNOWN:_ZTI28StepKinematics_GearPairValue
UNKNOWN:_ZTI28StepKinematics_KinematicLink
UNKNOWN:_ZTI28StepKinematics_OrientedJoint
UNKNOWN:_ZTI28StepKinematics_PrismaticPair
UNKNOWN:_ZTI28StepKinematics_SphericalPair
UNKNOWN:_ZTI28StepKinematics_UniversalPair
UNKNOWN:_ZTI28StepRepr_ConfigurationDesign
UNKNOWN:_ZTI28StepRepr_MakeFromUsageOption
UNKNOWN:_ZTI28StepRepr_MaterialDesignation
UNKNOWN:_ZTI28StepShape_PlusMinusTolerance
UNKNOWN:_ZTI28StepShape_PrecisionQualifier
UNKNOWN:_ZTI28StepVisual_DraughtingCallout
UNKNOWN:_ZTI28StepVisual_SurfaceStyleUsage
UNKNOWN:_ZTI28TransferBRep_ShapeListBinder
UNKNOWN:_ZTI28Transfer_TransientListBinder
UNKNOWN:_ZTI29Geom_SurfaceOfLinearExtrusion
UNKNOWN:_ZTI29HeaderSection_FileDescription
UNKNOWN:_ZTI29StepBasic_CharacterizedObject
UNKNOWN:_ZTI29StepBasic_ConversionBasedUnit
UNKNOWN:_ZTI29StepBasic_MassMeasureWithUnit
UNKNOWN:_ZTI29StepBasic_SiUnitAndLengthUnit
UNKNOWN:_ZTI29StepBasic_SiUnitAndVolumeUnit
UNKNOWN:_ZTI29StepDimTol_GeometricTolerance
UNKNOWN:_ZTI29StepDimTol_RoundnessTolerance
UNKNOWN:_ZTI29StepElement_ElementDescriptor
UNKNOWN:_ZTI29StepFEA_CurveElementEndOffset
UNKNOWN:_ZTI29StepFEA_ElementRepresentation
UNKNOWN:_ZTI29StepFEA_FeaMoistureAbsorption
UNKNOWN:_ZTI29StepFEA_FeaRepresentationItem
UNKNOWN:_ZTI29StepFEA_FreedomAndCoefficient
UNKNOWN:_ZTI29StepGeom_RationalBSplineCurve
UNKNOWN:_ZTI29StepKinematics_KinematicJoint
UNKNOWN:_ZTI29StepKinematics_ScrewPairValue
UNKNOWN:_ZTI29StepRepr_AllAroundShapeAspect
UNKNOWN:_ZTI29StepRepr_CompositeShapeAspect
UNKNOWN:_ZTI29StepRepr_ContinuosShapeAspect
UNKNOWN:_ZTI29StepShape_ConnectedFaceSubSet
UNKNOWN:_ZTI29StepShape_DimensionalLocation
UNKNOWN:_ZTI29StepShape_OrientedClosedShell
UNKNOWN:_ZTI29StepShape_PointRepresentation
UNKNOWN:_ZTI29StepShape_ShapeRepresentation
UNKNOWN:_ZTI29StepVisual_AnnotationFillArea
UNKNOWN:_ZTI29Transfer_ActorOfFinderProcess
UNKNOWN:_ZTI29XCAFDimTolObjects_DatumObject
UNKNOWN:_ZTI30Geom_RectangularTrimmedSurface
UNKNOWN:_ZTI30Graphic3d_DataStructureManager
UNKNOWN:_ZTI30Graphic3d_GraphicDriverFactory
UNKNOWN:_ZTI30StepBasic_ApprovalRelationship
UNKNOWN:_ZTI30StepBasic_DimensionalExponents
UNKNOWN:_ZTI30StepBasic_DocumentRelationship
UNKNOWN:_ZTI30StepBasic_RatioMeasureWithUnit
UNKNOWN:_ZTI30StepBasic_WeekOfYearAndDayDate
UNKNOWN:_ZTI30StepDimTol_AngularityTolerance
UNKNOWN:_ZTI30StepDimTol_CoaxialityTolerance
UNKNOWN:_ZTI30StepFEA_Curve3dElementProperty
UNKNOWN:_ZTI30StepFEA_CurveElementEndRelease
UNKNOWN:_ZTI30StepFEA_FeaShellShearStiffness
UNKNOWN:_ZTI30StepGeom_BSplineCurveWithKnots
UNKNOWN:_ZTI30StepGeom_CompositeCurveSegment
UNKNOWN:_ZTI30StepKinematics_CylindricalPair
UNKNOWN:_ZTI30StepKinematics_HomokineticPair
UNKNOWN:_ZTI30StepKinematics_PlanarCurvePair
UNKNOWN:_ZTI30StepKinematics_PlanarPairValue
UNKNOWN:_ZTI30StepRepr_RepresentationContext
UNKNOWN:_ZTI30StepRepr_ShapeAspectTransition
UNKNOWN:_ZTI30StepShape_MeasureQualification
UNKNOWN:_ZTI30StepVisual_ColourSpecification
UNKNOWN:_ZTI30StepVisual_FillAreaStyleColour
UNKNOWN:_ZTI30StepVisual_PreDefinedCurveFont
UNKNOWN:_ZTI30StepVisual_TessellatedCurveSet
UNKNOWN:_ZTI31Select3D_SensitiveTriangulation
UNKNOWN:_ZTI31StepBasic_ActionRequestSolution
UNKNOWN:_ZTI31StepBasic_DateAndTimeAssignment
UNKNOWN:_ZTI31StepBasic_EffectivityAssignment
UNKNOWN:_ZTI31StepBasic_ExternallyDefinedItem
UNKNOWN:_ZTI31StepBasic_LengthMeasureWithUnit
UNKNOWN:_ZTI31StepBasic_OrganizationalAddress
UNKNOWN:_ZTI31StepBasic_PersonAndOrganization
UNKNOWN:_ZTI31StepBasic_ProductConceptContext
UNKNOWN:_ZTI31StepDimTol_LineProfileTolerance
UNKNOWN:_ZTI31StepDimTol_ParallelismTolerance
UNKNOWN:_ZTI31StepDimTol_RunoutZoneDefinition
UNKNOWN:_ZTI31StepDimTol_TotalRunoutTolerance
UNKNOWN:_ZTI31StepElement_SurfaceSectionField
UNKNOWN:_ZTI31StepGeom_RationalBSplineSurface
UNKNOWN:_ZTI31StepKinematics_RollingCurvePair
UNKNOWN:_ZTI31StepKinematics_SlidingCurvePair
UNKNOWN:_ZTI31StepRepr_AssemblyComponentUsage
UNKNOWN:_ZTI31StepRepr_ProductDefinitionShape
UNKNOWN:_ZTI31StepRepr_ProductDefinitionUsage
UNKNOWN:_ZTI31StepShape_FaceBasedSurfaceModel
UNKNOWN:_ZTI31StepShape_RightCircularCylinder
UNKNOWN:_ZTI31StepVisual_AnnotationOccurrence
UNKNOWN:_ZTI31StepVisual_OverRidingStyledItem
UNKNOWN:_ZTI31StepVisual_SurfaceStyleBoundary
UNKNOWN:_ZTI31StepVisual_SurfaceStyleFillArea
UNKNOWN:_ZTI32AIS_MultipleConnectedInteractive
UNKNOWN:_ZTI32BinDrivers_DocumentStorageDriver
UNKNOWN:_ZTI32Graphic3d_PresentationAttributes
UNKNOWN:_ZTI32Select3D_SensitivePrimitiveArray
UNKNOWN:_ZTI32StepBasic_OrganizationAssignment
UNKNOWN:_ZTI32StepBasic_SecurityClassification
UNKNOWN:_ZTI32StepBasic_VersionedActionRequest
UNKNOWN:_ZTI32StepDimTol_CylindricityTolerance
UNKNOWN:_ZTI32StepDimTol_DatumReferenceElement
UNKNOWN:_ZTI32StepDimTol_GeneralDatumReference
UNKNOWN:_ZTI32StepDimTol_GeoTolAndGeoTolWthMod
UNKNOWN:_ZTI32StepDimTol_RunoutZoneOrientation
UNKNOWN:_ZTI32StepDimTol_StraightnessTolerance
UNKNOWN:_ZTI32StepFEA_FeaShellBendingStiffness
UNKNOWN:_ZTI32StepGeom_BSplineSurfaceWithKnots
UNKNOWN:_ZTI32StepGeom_CompositeCurveOnSurface
UNKNOWN:_ZTI32StepKinematics_GearPairWithRange
UNKNOWN:_ZTI32StepKinematics_RackAndPinionPair
UNKNOWN:_ZTI32StepKinematics_RevolutePairValue
UNKNOWN:_ZTI32StepKinematics_UnconstrainedPair
UNKNOWN:_ZTI32StepRepr_RepresentationReference
UNKNOWN:_ZTI32StepRepr_ShapeAspectRelationship
UNKNOWN:_ZTI32StepRepr_ValueRepresentationItem
UNKNOWN:_ZTI32StepShape_CsgShapeRepresentation
UNKNOWN:_ZTI32StepShape_ShellBasedSurfaceModel
UNKNOWN:_ZTI32StepVisual_CurveStyleFontPattern
UNKNOWN:_ZTI32StepVisual_SurfaceStyleRendering
UNKNOWN:_ZTI32Transfer_ActorOfProcessForFinder
UNKNOWN:_ZTI32Transfer_ActorOfTransientProcess
UNKNOWN:_ZTI32Transfer_SimpleBinderOfTransient
UNKNOWN:_ZTI32XmlDrivers_DocumentStorageDriver
UNKNOWN:_ZTI33BRep_PolygonOnClosedTriangulation
UNKNOWN:_ZTI33BinLDrivers_DocumentStorageDriver
UNKNOWN:_ZTI33StepBasic_ActionRequestAssignment
UNKNOWN:_ZTI33StepBasic_CertificationAssignment
UNKNOWN:_ZTI33StepBasic_DocumentUsageConstraint
UNKNOWN:_ZTI33StepBasic_SiUnitAndPlaneAngleUnit
UNKNOWN:_ZTI33StepBasic_SiUnitAndSolidAngleUnit
UNKNOWN:_ZTI33StepDimTol_ConcentricityTolerance
UNKNOWN:_ZTI33StepElement_UniformSurfaceSection
UNKNOWN:_ZTI33StepFEA_FeaShellMembraneStiffness
UNKNOWN:_ZTI33StepGeom_SurfaceOfLinearExtrusion
UNKNOWN:_ZTI33StepKinematics_PointOnSurfacePair
UNKNOWN:_ZTI33StepKinematics_PrismaticPairValue
UNKNOWN:_ZTI33StepKinematics_RollingSurfacePair
UNKNOWN:_ZTI33StepKinematics_ScrewPairWithRange
UNKNOWN:_ZTI33StepKinematics_SlidingSurfacePair
UNKNOWN:_ZTI33StepKinematics_SphericalPairValue
UNKNOWN:_ZTI33StepKinematics_UniversalPairValue
UNKNOWN:_ZTI33StepRepr_ConfigurationEffectivity
UNKNOWN:_ZTI33StepRepr_SuppliedPartRelationship
UNKNOWN:_ZTI33StepShape_DimensionalSizeWithPath
UNKNOWN:_ZTI33StepShape_EdgeBasedWireframeModel
UNKNOWN:_ZTI33StepVisual_PresentationLayerUsage
UNKNOWN:_ZTI33StepVisual_SurfaceStyleSilhouette
UNKNOWN:_ZTI33XCAFDimTolObjects_DimensionObject
UNKNOWN:_ZTI33XmlLDrivers_DocumentStorageDriver
UNKNOWN:_ZTI34BRepTools_NurbsConvertModification
UNKNOWN:_ZTI34BinDrivers_DocumentRetrievalDriver
UNKNOWN:_ZTI34Graphic3d_TransformPersScaledAbove
UNKNOWN:_ZTI34StepBasic_IdentificationAssignment
UNKNOWN:_ZTI34StepBasic_ProductDefinitionContext
UNKNOWN:_ZTI34StepDimTol_CircularRunoutTolerance
UNKNOWN:_ZTI34StepDimTol_ProjectedZoneDefinition
UNKNOWN:_ZTI34StepDimTol_SurfaceProfileTolerance
UNKNOWN:_ZTI34StepDimTol_ToleranceZoneDefinition
UNKNOWN:_ZTI34StepElement_SurfaceElementProperty
UNKNOWN:_ZTI34StepGeom_DegenerateToroidalSurface
UNKNOWN:_ZTI34StepGeom_EvaluatedDegeneratePcurve
UNKNOWN:_ZTI34StepGeom_RectangularTrimmedSurface
UNKNOWN:_ZTI34StepKinematics_PlanarPairWithRange
UNKNOWN:_ZTI34StepRepr_CompositeGroupShapeAspect
UNKNOWN:_ZTI34StepRepr_GlobalUnitAssignedContext
UNKNOWN:_ZTI34StepRepr_IntegerRepresentationItem
UNKNOWN:_ZTI34StepRepr_ItemDefinedTransformation
UNKNOWN:_ZTI34StepRepr_MeasureRepresentationItem
UNKNOWN:_ZTI34StepShape_ValueFormatTypeQualifier
UNKNOWN:_ZTI34StepVisual_CompositeTextWithExtent
UNKNOWN:_ZTI34StepVisual_SurfaceStyleControlGrid
UNKNOWN:_ZTI34StepVisual_SurfaceStyleTransparent
UNKNOWN:_ZTI34StepVisual_TessellatedGeometricSet
UNKNOWN:_ZTI34StepVisual_TextStyleForDefinedFont
UNKNOWN:_ZTI34XmlDrivers_DocumentRetrievalDriver
UNKNOWN:_ZTI35BinLDrivers_DocumentRetrievalDriver
UNKNOWN:_ZTI35StdLDrivers_DocumentRetrievalDriver
UNKNOWN:_ZTI35StepBasic_ApplicationContextElement
UNKNOWN:_ZTI35StepBasic_PersonAndOrganizationRole
UNKNOWN:_ZTI35StepBasic_PlaneAngleMeasureWithUnit
UNKNOWN:_ZTI35StepBasic_SolidAngleMeasureWithUnit
UNKNOWN:_ZTI35StepDimTol_GeoTolAndGeoTolWthDatRef
UNKNOWN:_ZTI35StepDimTol_GeoTolAndGeoTolWthMaxTol
UNKNOWN:_ZTI35StepDimTol_NonUniformZoneDefinition
UNKNOWN:_ZTI35StepDimTol_PlacedDatumTargetFeature
UNKNOWN:_ZTI35StepKinematics_CylindricalPairValue
UNKNOWN:_ZTI35StepKinematics_FullyConstrainedPair
UNKNOWN:_ZTI35StepKinematics_PlanarCurvePairRange
UNKNOWN:_ZTI35StepKinematics_SphericalPairWithPin
UNKNOWN:_ZTI35StepKinematics_SurfacePairWithRange
UNKNOWN:_ZTI35StepRepr_CompoundRepresentationItem
UNKNOWN:_ZTI35StepRepr_DefinitionalRepresentation
UNKNOWN:_ZTI35StepRepr_ReprItemAndMeasureWithUnit
UNKNOWN:_ZTI35StepRepr_RepresentationRelationship
UNKNOWN:_ZTI35StepRepr_StructuralResponseProperty
UNKNOWN:_ZTI35TopOpeBRepDS_CurvePointInterference
UNKNOWN:_ZTI35Transfer_ActorOfProcessForTransient
UNKNOWN:_ZTI35XmlLDrivers_DocumentRetrievalDriver
UNKNOWN:_ZTI36StepAP242_GeometricItemSpecificUsage
UNKNOWN:_ZTI36StepBasic_ApprovalPersonOrganization
UNKNOWN:_ZTI36StepBasic_DocumentProductAssociation
UNKNOWN:_ZTI36StepBasic_DocumentProductEquivalence
UNKNOWN:_ZTI36StepBasic_DocumentRepresentationType
UNKNOWN:_ZTI36StepBasic_ProductDefinitionFormation
UNKNOWN:_ZTI36StepBasic_UncertaintyMeasureWithUnit
UNKNOWN:_ZTI36StepDimTol_DatumReferenceCompartment
UNKNOWN:_ZTI36StepDimTol_PerpendicularityTolerance
UNKNOWN:_ZTI36StepElement_Curve3dElementDescriptor
UNKNOWN:_ZTI36StepFEA_Curve3dElementRepresentation
UNKNOWN:_ZTI36StepFEA_CurveElementIntervalConstant
UNKNOWN:_ZTI36StepFEA_ElementGeometricRelationship
UNKNOWN:_ZTI36StepGeom_GeometricRepresentationItem
UNKNOWN:_ZTI36StepGeom_RectangularCompositeSurface
UNKNOWN:_ZTI36StepGeom_SurfaceCurveAndBoundedCurve
UNKNOWN:_ZTI36StepKinematics_ActuatedKinematicPair
UNKNOWN:_ZTI36StepKinematics_LowOrderKinematicPair
UNKNOWN:_ZTI36StepKinematics_RevolutePairWithRange
UNKNOWN:_ZTI36StepKinematics_RollingCurvePairValue
UNKNOWN:_ZTI36StepKinematics_SlidingCurvePairValue
UNKNOWN:_ZTI36StepRepr_CharacterizedRepresentation
UNKNOWN:_ZTI36StepRepr_NextAssemblyUsageOccurrence
UNKNOWN:_ZTI36StepVisual_AnnotationCurveOccurrence
UNKNOWN:_ZTI36StepVisual_SurfaceStyleParameterLine
UNKNOWN:_ZTI37StepBasic_ProductCategoryRelationship
UNKNOWN:_ZTI37StepBasic_SecurityClassificationLevel
UNKNOWN:_ZTI37StepDimTol_ModifiedGeometricTolerance
UNKNOWN:_ZTI37StepElement_Volume3dElementDescriptor
UNKNOWN:_ZTI37StepFEA_Volume3dElementRepresentation
UNKNOWN:_ZTI37StepKinematics_PointOnPlanarCurvePair
UNKNOWN:_ZTI37StepKinematics_PrismaticPairWithRange
UNKNOWN:_ZTI37StepKinematics_RackAndPinionPairValue
UNKNOWN:_ZTI37StepKinematics_RotationAboutDirection
UNKNOWN:_ZTI37StepKinematics_SphericalPairWithRange
UNKNOWN:_ZTI37StepKinematics_UnconstrainedPairValue
UNKNOWN:_ZTI37StepKinematics_UniversalPairWithRange
UNKNOWN:_ZTI37StepShape_CompoundShapeRepresentation
UNKNOWN:_ZTI37StepShape_DimensionalLocationWithPath
UNKNOWN:_ZTI37StepShape_DirectedDimensionalLocation
UNKNOWN:_ZTI37StepShape_FacetedBrepAndBrepWithVoids
UNKNOWN:_ZTI37StepShape_QualifiedRepresentationItem
UNKNOWN:_ZTI37StepVisual_CameraModelD3MultiClipping
UNKNOWN:_ZTI37StepVisual_DraughtingPreDefinedColour
UNKNOWN:_ZTI37StepVisual_ExternallyDefinedCurveFont
UNKNOWN:_ZTI37StepVisual_PresentationRepresentation
UNKNOWN:_ZTI37StepVisual_PresentationStyleByContext
UNKNOWN:_ZTI37TopOpeBRepDS_SurfaceCurveInterference
UNKNOWN:_ZTI37XCAFDimTolObjects_GeomToleranceObject
UNKNOWN:_ZTI38StepBasic_ProductDefinitionEffectivity
UNKNOWN:_ZTI38StepBasic_ThermodynamicTemperatureUnit
UNKNOWN:_ZTI38StepElement_Surface3dElementDescriptor
UNKNOWN:_ZTI38StepElement_SurfaceSectionFieldVarying
UNKNOWN:_ZTI38StepFEA_Surface3dElementRepresentation
UNKNOWN:_ZTI38StepKinematics_MechanismRepresentation
UNKNOWN:_ZTI38StepKinematics_PointOnSurfacePairValue
UNKNOWN:_ZTI38StepKinematics_RigidLinkRepresentation
UNKNOWN:_ZTI38StepKinematics_RollingSurfacePairValue
UNKNOWN:_ZTI38StepKinematics_SlidingSurfacePairValue
UNKNOWN:_ZTI38StepRepr_CompShAspAndDatumFeatAndShAsp
UNKNOWN:_ZTI38StepRepr_DescriptiveRepresentationItem
UNKNOWN:_ZTI38StepShape_ShapeDimensionRepresentation
UNKNOWN:_ZTI38StepVisual_PresentationLayerAssignment
UNKNOWN:_ZTI38StepVisual_PresentationStyleAssignment
UNKNOWN:_ZTI38StepVisual_PresentedItemRepresentation
UNKNOWN:_ZTI39StepBasic_ApplicationProtocolDefinition
UNKNOWN:_ZTI39StepBasic_ProductDefinitionRelationship
UNKNOWN:_ZTI39StepBasic_ProductRelatedProductCategory
UNKNOWN:_ZTI39StepElement_SurfaceSectionFieldConstant
UNKNOWN:_ZTI39StepGeom_GeometricRepresentationContext
UNKNOWN:_ZTI39StepKinematics_CylindricalPairWithRange
UNKNOWN:_ZTI39StepRepr_MaterialPropertyRepresentation
UNKNOWN:_ZTI39StepRepr_PropertyDefinitionRelationship
UNKNOWN:_ZTI39StepRepr_RepresentationContextReference
UNKNOWN:_ZTI39StepRepr_SpecifiedHigherUsageOccurrence
UNKNOWN:_ZTI39StepShape_ShapeDefinitionRepresentation
UNKNOWN:_ZTI39StepShape_TopologicalRepresentationItem
UNKNOWN:_ZTI39StepVisual_AnnotationFillAreaOccurrence
UNKNOWN:_ZTI39StepVisual_ContextDependentInvisibility
UNKNOWN:_ZTI40StepAP242_DraughtingModelItemAssociation
UNKNOWN:_ZTI40StepBasic_ConversionBasedUnitAndAreaUnit
UNKNOWN:_ZTI40StepBasic_ConversionBasedUnitAndMassUnit
UNKNOWN:_ZTI40StepBasic_ConversionBasedUnitAndTimeUnit
UNKNOWN:_ZTI40StepBasic_CoordinatedUniversalTimeOffset
UNKNOWN:_ZTI40StepElement_CurveElementEndReleasePacket
UNKNOWN:_ZTI40StepFEA_NodeWithSolutionCoordinateSystem
UNKNOWN:_ZTI40StepGeom_CartesianTransformationOperator
UNKNOWN:_ZTI40StepRepr_ExternallyDefinedRepresentation
UNKNOWN:_ZTI40StepRepr_ParametricRepresentationContext
UNKNOWN:_ZTI40StepRepr_ShapeAspectDerivingRelationship
UNKNOWN:_ZTI40StepRepr_ShapeRepresentationRelationship
UNKNOWN:_ZTI40StepShape_FacetedBrepShapeRepresentation
UNKNOWN:_ZTI40StepVisual_DraughtingPreDefinedCurveFont
UNKNOWN:_ZTI40StepVisual_SurfaceStyleSegmentationCurve
UNKNOWN:_ZTI41StepBasic_ConversionBasedUnitAndRatioUnit
UNKNOWN:_ZTI41StepBasic_PersonAndOrganizationAssignment
UNKNOWN:_ZTI41StepDimTol_GeometricToleranceRelationship
UNKNOWN:_ZTI41StepElement_CurveElementSectionDefinition
UNKNOWN:_ZTI41StepFEA_FeaMaterialPropertyRepresentation
UNKNOWN:_ZTI41StepKinematics_KinematicTopologyStructure
UNKNOWN:_ZTI41StepKinematics_LowOrderKinematicPairValue
UNKNOWN:_ZTI41StepKinematics_RackAndPinionPairWithRange
UNKNOWN:_ZTI41StepRepr_AssemblyComponentUsageSubstitute
UNKNOWN:_ZTI41StepRepr_GlobalUncertaintyAssignedContext
UNKNOWN:_ZTI41StepRepr_PropertyDefinitionRepresentation
UNKNOWN:_ZTI41StepRepr_QuantifiedAssemblyComponentUsage
UNKNOWN:_ZTI41StepRepr_ReprItemAndLengthMeasureWithUnit
UNKNOWN:_ZTI41StepRepr_ReprItemAndMeasureWithUnitAndQRI
UNKNOWN:_ZTI41StepShape_AdvancedBrepShapeRepresentation
UNKNOWN:_ZTI41StepShape_TransitionalShapeRepresentation
UNKNOWN:_ZTI41StepVisual_SurfaceStyleReflectanceAmbient
UNKNOWN:_ZTI42StepBasic_ConversionBasedUnitAndLengthUnit
UNKNOWN:_ZTI42StepBasic_ConversionBasedUnitAndVolumeUnit
UNKNOWN:_ZTI42StepBasic_ExternalIdentificationAssignment
UNKNOWN:_ZTI42StepBasic_SecurityClassificationAssignment
UNKNOWN:_ZTI42StepDimTol_DatumReferenceModifierWithValue
UNKNOWN:_ZTI42StepDimTol_GeometricToleranceWithModifiers
UNKNOWN:_ZTI42StepGeom_CartesianTransformationOperator2d
UNKNOWN:_ZTI42StepGeom_CartesianTransformationOperator3d
UNKNOWN:_ZTI42StepKinematics_LinearFlexibleAndPinionPair
UNKNOWN:_ZTI42StepKinematics_PointOnPlanarCurvePairValue
UNKNOWN:_ZTI42StepKinematics_PointOnSurfacePairWithRange
UNKNOWN:_ZTI42StepKinematics_ProductDefinitionKinematics
UNKNOWN:_ZTI42StepRepr_FeatureForDatumTargetRelationship
UNKNOWN:_ZTI42StepRepr_FunctionallyDefinedTransformation
UNKNOWN:_ZTI42StepShape_ConnectedFaceShapeRepresentation
UNKNOWN:_ZTI42StepVisual_CameraModelD3MultiClippingUnion
UNKNOWN:_ZTI42StepVisual_TessellatedAnnotationOccurrence
UNKNOWN:_ZTI42StepVisual_TextStyleWithBoxCharacteristics
UNKNOWN:_ZTI43StepFEA_CurveElementIntervalLinearlyVarying
UNKNOWN:_ZTI43StepGeom_BezierCurveAndRationalBSplineCurve
UNKNOWN:_ZTI43StepKinematics_MechanismStateRepresentation
UNKNOWN:_ZTI43StepKinematics_SphericalPairWithPinAndRange
UNKNOWN:_ZTI43StepRepr_ConstructiveGeometryRepresentation
UNKNOWN:_ZTI43StepShape_ShapeRepresentationWithParameters
UNKNOWN:_ZTI44StepBasic_PhysicallyModeledProductDefinition
UNKNOWN:_ZTI44StepDimTol_GeometricToleranceWithDefinedUnit
UNKNOWN:_ZTI44StepElement_AnalysisItemWithinRepresentation
UNKNOWN:_ZTI44StepFEA_FeaCurveSectionGeometricRelationship
UNKNOWN:_ZTI44StepGeom_ReparametrisedCompositeCurveSegment
UNKNOWN:_ZTI44StepGeom_UniformCurveAndRationalBSplineCurve
UNKNOWN:_ZTI44StepShape_ManifoldSurfaceShapeRepresentation
UNKNOWN:_ZTI45StepFEA_AlignedCurve3dElementCoordinateSystem
UNKNOWN:_ZTI45StepFEA_FeaMaterialPropertyRepresentationItem
UNKNOWN:_ZTI45StepKinematics_ActuatedKinPairAndOrderKinPair
UNKNOWN:_ZTI45StepKinematics_LowOrderKinematicPairWithRange
UNKNOWN:_ZTI45StepKinematics_PairRepresentationRelationship
UNKNOWN:_ZTI45StepRepr_ReprItemAndPlaneAngleMeasureWithUnit
UNKNOWN:_ZTI45StepShape_ContextDependentShapeRepresentation
UNKNOWN:_ZTI46StepBasic_ConversionBasedUnitAndPlaneAngleUnit
UNKNOWN:_ZTI46StepBasic_ConversionBasedUnitAndSolidAngleUnit
UNKNOWN:_ZTI46StepDimTol_UnequallyDisposedGeometricTolerance
UNKNOWN:_ZTI46StepFEA_FeaSurfaceSectionGeometricRelationship
UNKNOWN:_ZTI46StepKinematics_PointOnPlanarCurvePairWithRange
UNKNOWN:_ZTI46StepVisual_SurfaceStyleRenderingWithProperties
UNKNOWN:_ZTI47StepBasic_SiUnitAndThermodynamicTemperatureUnit
UNKNOWN:_ZTI47StepDimTol_GeometricToleranceWithDatumReference
UNKNOWN:_ZTI47StepFEA_AlignedSurface3dElementCoordinateSystem
UNKNOWN:_ZTI47StepGeom_BezierSurfaceAndRationalBSplineSurface
UNKNOWN:_ZTI47StepKinematics_LinearFlexibleAndPlanarCurvePair
UNKNOWN:_ZTI47StepKinematics_LinearFlexibleLinkRepresentation
UNKNOWN:_ZTI47StepRepr_ReprItemAndLengthMeasureWithUnitAndQRI
UNKNOWN:_ZTI47StepShape_EdgeBasedWireframeShapeRepresentation
UNKNOWN:_ZTI47StepShape_NonManifoldSurfaceShapeRepresentation
UNKNOWN:_ZTI47StepVisual_ContextDependentOverRidingStyledItem
UNKNOWN:_ZTI48StepBasic_ProductDefinitionFormationRelationship
UNKNOWN:_ZTI48StepDimTol_GeometricToleranceWithDefinedAreaUnit
UNKNOWN:_ZTI48StepFEA_ArbitraryVolume3dElementCoordinateSystem
UNKNOWN:_ZTI48StepFEA_ConstantSurface3dElementCoordinateSystem
UNKNOWN:_ZTI48StepFEA_FeaShellMembraneBendingCouplingStiffness
UNKNOWN:_ZTI48StepFEA_ParametricCurve3dElementCoordinateSystem
UNKNOWN:_ZTI48StepGeom_UniformSurfaceAndRationalBSplineSurface
UNKNOWN:_ZTI48StepKinematics_KinematicTopologyNetworkStructure
UNKNOWN:_ZTI49StepDimTol_GeometricToleranceWithMaximumTolerance
UNKNOWN:_ZTI49StepElement_CurveElementSectionDerivedDefinitions
UNKNOWN:_ZTI49StepGeom_QuasiUniformCurveAndRationalBSplineCurve
UNKNOWN:_ZTI49StepKinematics_KinematicTopologyDirectedStructure
UNKNOWN:_ZTI49StepShape_DimensionalCharacteristicRepresentation
UNKNOWN:_ZTI49StepVisual_CameraModelD3MultiClippingIntersection
UNKNOWN:_ZTI50StepBasic_ProductDefinitionWithAssociatedDocuments
UNKNOWN:_ZTI50StepDimTol_GeoTolAndGeoTolWthDatRefAndGeoTolWthMod
UNKNOWN:_ZTI50StepFEA_ParametricSurface3dElementCoordinateSystem
UNKNOWN:_ZTI51StepDimTol_GeoTolAndGeoTolWthDatRefAndUneqDisGeoTol
UNKNOWN:_ZTI51StepFEA_ParametricCurve3dElementCoordinateDirection
UNKNOWN:_ZTI51StepRepr_ReprItemAndPlaneAngleMeasureWithUnitAndQRI
UNKNOWN:_ZTI51StepVisual_AnnotationCurveOccurrenceAndGeomReprItem
UNKNOWN:_ZTI52StepFEA_FeaSecantCoefficientOfLinearThermalExpansion
UNKNOWN:_ZTI52StepVisual_MechanicalDesignGeometricPresentationArea
UNKNOWN:_ZTI53StepDimTol_GeoTolAndGeoTolWthDatRefAndGeoTolWthMaxTol
UNKNOWN:_ZTI53StepGeom_BSplineCurveWithKnotsAndRationalBSplineCurve
UNKNOWN:_ZTI53StepGeom_QuasiUniformSurfaceAndRationalBSplineSurface
UNKNOWN:_ZTI53StepKinematics_KinematicLinkRepresentationAssociation
UNKNOWN:_ZTI53StepRepr_RepresentationRelationshipWithTransformation
UNKNOWN:_ZTI54StepKinematics_ProductDefinitionRelationshipKinematics
UNKNOWN:_ZTI55StepBasic_ProductDefinitionFormationWithSpecifiedSource
UNKNOWN:_ZTI55StepKinematics_KinematicPropertyMechanismRepresentation
UNKNOWN:_ZTI55StepRepr_CompGroupShAspAndCompShAspAndDatumFeatAndShAsp
UNKNOWN:_ZTI55StepRepr_ConstructiveGeometryRepresentationRelationship
UNKNOWN:_ZTI56StepDimTol_GeoTolAndGeoTolWthDatRefAndModGeoTolAndPosTol
UNKNOWN:_ZTI56StepFEA_FeaTangentialCoefficientOfLinearThermalExpansion
UNKNOWN:_ZTI56StepShape_GeometricallyBoundedSurfaceShapeRepresentation
UNKNOWN:_ZTI57StepGeom_BSplineSurfaceWithKnotsAndRationalBSplineSurface
UNKNOWN:_ZTI58StepKinematics_ContextDependentKinematicLinkRepresentation
UNKNOWN:_ZTI58StepRepr_ShapeRepresentationRelationshipWithTransformation
UNKNOWN:_ZTI58StepShape_DefinitionalRepresentationAndShapeRepresentation
UNKNOWN:_ZTI58StepShape_GeometricallyBoundedWireframeShapeRepresentation
UNKNOWN:_ZTI59StepRepr_StructuralResponsePropertyDefinitionRepresentation
UNKNOWN:_ZTI62StepVisual_CharacterizedObjAndRepresentationAndDraughtingModel
UNKNOWN:_ZTI62StepVisual_MechanicalDesignGeometricPresentationRepresentation
UNKNOWN:_ZTI64StepGeom_GeomRepContextAndGlobUnitAssCtxAndGlobUncertaintyAssCtx
UNKNOWN:_ZTI65StepShape_MeasureRepresentationItemAndQualifiedRepresentationItem
UNKNOWN:_ZTI67StepGeom_GeometricRepresentationContextAndGlobalUnitAssignedContext
UNKNOWN:_ZTI73StepGeom_GeometricRepresentationContextAndParametricRepresentationContext
UNKNOWN:_ZTI8AIS_Axis
UNKNOWN:_ZTI8AIS_Line
UNKNOWN:_ZTI8V3d_View
UNKNOWN:_ZTI9AIS_Plane
UNKNOWN:_ZTI9AIS_Point
UNKNOWN:_ZTI9AIS_Shape
UNKNOWN:_ZTI9Geom_Line
UNKNOWN:_ZTI9OSD_Timer
UNKNOWN:_ZTI9PLib_Base
UNKNOWN:_ZTI9TObj_TXYZ
UNKNOWN:_ZTI9Xw_Window
UNKNOWN:_ZTI9math_BFGS
UNKNOWN:_ZTIN22ShapePersistent_TopoDS6HShapeE
UNKNOWN:_ZTIN22StdLPersistent_HArray14baseE
UNKNOWN:_ZTIN22StdLPersistent_HArray24baseE
UNKNOWN:_ZTIN22StdLPersistent_HString5AsciiE
UNKNOWN:_ZTV10LDOMParser
UNKNOWN:_ZTV11Law_BSpline
UNKNOWN:_ZTV11Media_Timer
UNKNOWN:_ZTV11TObj_Object
UNKNOWN:_ZTV12Prs3d_Drawer
UNKNOWN:_ZTV12RWObj_Reader
UNKNOWN:_ZTV12TopoDS_TWire
UNKNOWN:_ZTV13BRepFeat_Form
UNKNOWN:_ZTV13BRepPrim_Cone
UNKNOWN:_ZTV13Image_Texture
UNKNOWN:_ZTV13ProjLib_Plane
UNKNOWN:_ZTV13ShapeFix_Edge
UNKNOWN:_ZTV13ShapeFix_Root
UNKNOWN:_ZTV13TDF_Attribute
UNKNOWN:_ZTV13TDF_TagSource
UNKNOWN:_ZTV13TopoDS_HShape
UNKNOWN:_ZTV13TopoDS_TShape
UNKNOWN:_ZTV13TopoDS_TShell
UNKNOWN:_ZTV13TopoDS_TSolid
UNKNOWN:_ZTV14BRepCheck_Edge
UNKNOWN:_ZTV14BRepCheck_Wire
UNKNOWN:_ZTV14BRepFeat_Gluer
UNKNOWN:_ZTV14BRepSweep_Trsf
UNKNOWN:_ZTV14BinMDF_ADriver
UNKNOWN:_ZTV14Graphic3d_Text
UNKNOWN:_ZTV14ShapeFix_Shape
UNKNOWN:_ZTV14StepBasic_Unit
UNKNOWN:_ZTV14StepShape_Edge
UNKNOWN:_ZTV14TNaming_Naming
UNKNOWN:_ZTV14XCAFPrs_Driver
UNKNOWN:_ZTV14XSControl_Vars
UNKNOWN:_ZTV14XmlMDF_ADriver
UNKNOWN:_ZTV15BRepCheck_Shell
UNKNOWN:_ZTV15BRepPrim_Sphere
UNKNOWN:_ZTV15BVH_BuildThread
UNKNOWN:_ZTV15CDF_Application
UNKNOWN:_ZTV15CDM_Application
UNKNOWN:_ZTV15IFSelect_Editor
UNKNOWN:_ZTV15Prs3d_IsoAspect
UNKNOWN:_ZTV15RWObj_CafReader
UNKNOWN:_ZTV15StdPrs_BRepFont
UNKNOWN:_ZTV15StepBasic_Group
UNKNOWN:_ZTV15StepShape_Shell
UNKNOWN:_ZTV16AIS_ColoredShape
UNKNOWN:_ZTV16BRepCheck_Result
UNKNOWN:_ZTV16BRepFeat_RibSlot
UNKNOWN:_ZTV16ChFi3d_ChBuilder
UNKNOWN:_ZTV16Graphic3d_Buffer
UNKNOWN:_ZTV16Graphic3d_CLight
UNKNOWN:_ZTV16RWGltf_CafReader
UNKNOWN:_ZTV16Resource_Manager
UNKNOWN:_ZTV16Storage_RootData
UNKNOWN:_ZTV16Storage_TypeData
UNKNOWN:_ZTV16TopoDS_TCompound
UNKNOWN:_ZTV16XSControl_Reader
UNKNOWN:_ZTV17AIS_ColoredDrawer
UNKNOWN:_ZTV17BRepAdaptor_Curve
UNKNOWN:_ZTV17BRepFeat_MakePipe
UNKNOWN:_ZTV17BRepLib_MakeShape
UNKNOWN:_ZTV17BRepLib_MakeSolid
UNKNOWN:_ZTV17BRepPrim_Cylinder
UNKNOWN:_ZTV17BRepTools_History
UNKNOWN:_ZTV17BRepTools_ReShape
UNKNOWN:_ZTV17ChFi3d_FilBuilder
UNKNOWN:_ZTV17Extrema_FuncExtCS
UNKNOWN:_ZTV17GeomAdaptor_Curve
UNKNOWN:_ZTV17Graphic3d_Aspects
UNKNOWN:_ZTV17IFSelect_Dispatch
UNKNOWN:_ZTV17Message_Algorithm
UNKNOWN:_ZTV17Message_Attribute
UNKNOWN:_ZTV17PCDM_ReaderFilter
UNKNOWN:_ZTV17StepData_Protocol
UNKNOWN:_ZTV17TDocStd_XLinkTool
UNKNOWN:_ZTV17TopoDS_TCompSolid
UNKNOWN:_ZTV18Adaptor3d_IsoCurve
UNKNOWN:_ZTV18AppStd_Application
UNKNOWN:_ZTV18BRepFeat_MakePrism
UNKNOWN:_ZTV18BRepFeat_MakeRevol
UNKNOWN:_ZTV18BRepSweep_Rotation
UNKNOWN:_ZTV18DrawTrSurf_Curve2d
UNKNOWN:_ZTV18Extrema_FuncPSNorm
UNKNOWN:_ZTV18GeomFill_Generator
UNKNOWN:_ZTV18GeomFill_NSections
UNKNOWN:_ZTV18IFSelect_Activator
UNKNOWN:_ZTV18IFSelect_Signature
UNKNOWN:_ZTV18IGESControl_Reader
UNKNOWN:_ZTV18PCDM_StorageDriver
UNKNOWN:_ZTV18STEPControl_Reader
UNKNOWN:_ZTV18ShapeAnalysis_Wire
UNKNOWN:_ZTV18ShapeBuild_ReShape
UNKNOWN:_ZTV18ShapeFix_Wireframe
UNKNOWN:_ZTV18Standard_Transient
UNKNOWN:_ZTV18StepGeom_Placement
UNKNOWN:_ZTV18Storage_HeaderData
UNKNOWN:_ZTV18TDF_AttributeDelta
UNKNOWN:_ZTV19AIS_AnimationCamera
UNKNOWN:_ZTV19Adaptor3d_TopolTool
UNKNOWN:_ZTV19BRepAdaptor_Curve2d
UNKNOWN:_ZTV19BRepAdaptor_Surface
UNKNOWN:_ZTV19BRepFeat_MakeDPrism
UNKNOWN:_ZTV19BRepFeat_SplitShape
UNKNOWN:_ZTV19BRepPrimAPI_MakeBox
UNKNOWN:_ZTV19BRepPrim_Revolution
UNKNOWN:_ZTV19BVH_ObjectTransient
UNKNOWN:_ZTV19DBRep_DrawableShape
UNKNOWN:_ZTV19Geom2dAdaptor_Curve
UNKNOWN:_ZTV19GeomAdaptor_Surface
UNKNOWN:_ZTV19Poly_MergeNodesTool
UNKNOWN:_ZTV19StepData_SelectType
UNKNOWN:_ZTV19StepRepr_MappedItem
UNKNOWN:_ZTV19StepSelect_StepType
UNKNOWN:_ZTV19TDocStd_Application
UNKNOWN:_ZTV20AdvApprox_PrefAndRec
UNKNOWN:_ZTV20BRepAlgoAPI_Splitter
UNKNOWN:_ZTV20BRepPrimAPI_MakeCone
UNKNOWN:_ZTV20CPnts_MyRootFunction
UNKNOWN:_ZTV20Graphic3d_CStructure
UNKNOWN:_ZTV20Graphic3d_HatchStyle
UNKNOWN:_ZTV20Graphic3d_TextureEnv
UNKNOWN:_ZTV20Graphic3d_TextureMap
UNKNOWN:_ZTV20Graphic3d_TextureSet
UNKNOWN:_ZTV20IFSelect_SignCounter
UNKNOWN:_ZTV20IFSelect_WorkLibrary
UNKNOWN:_ZTV20PCDM_RetrievalDriver
UNKNOWN:_ZTV20ShapeFix_EdgeProjAux
UNKNOWN:_ZTV20StepBasic_RoleSelect
UNKNOWN:_ZTV20StepBasic_SizeSelect
UNKNOWN:_ZTV20StepBasic_SourceItem
UNKNOWN:_ZTV20StepData_SelectNamed
UNKNOWN:_ZTV20StepRepr_ShapeAspect
UNKNOWN:_ZTV20XSControl_Controller
UNKNOWN:_ZTV21AIS_InteractiveObject
UNKNOWN:_ZTV21Adaptor2d_OffsetCurve
UNKNOWN:_ZTV21BRepAdaptor_CompCurve
UNKNOWN:_ZTV21BRepBuilderAPI_Sewing
UNKNOWN:_ZTV21BRepPrimAPI_MakePrism
UNKNOWN:_ZTV21BRepPrimAPI_MakeRevol
UNKNOWN:_ZTV21BRepPrimAPI_MakeTorus
UNKNOWN:_ZTV21BRepPrimAPI_MakeWedge
UNKNOWN:_ZTV21BRepSweep_Translation
UNKNOWN:_ZTV21GCPnts_DistFunctionMV
UNKNOWN:_ZTV21Graphic3d_IndexBuffer
UNKNOWN:_ZTV21IFSelect_SelectDeduct
UNKNOWN:_ZTV21STEPControl_ActorRead
UNKNOWN:_ZTV21Select3D_SensitiveSet
UNKNOWN:_ZTV21ShapeFix_ComposeShell
UNKNOWN:_ZTV21ShapeFix_FixSmallFace
UNKNOWN:_ZTV21StepVisual_StyledItem
UNKNOWN:_ZTV21TDataStd_GenericEmpty
UNKNOWN:_ZTV21TopoDS_AlertWithShape
UNKNOWN:_ZTV22AdvApprox_DichoCutting
UNKNOWN:_ZTV22BOPAlgo_RemoveFeatures
UNKNOWN:_ZTV22BRepOffsetAPI_MakePipe
UNKNOWN:_ZTV22BRepPreviewAPI_MakeBox
UNKNOWN:_ZTV22BRepPrimAPI_MakeSphere
UNKNOWN:_ZTV22Graphic3d_ViewAffinity
UNKNOWN:_ZTV22IFSelect_SessionDumper
UNKNOWN:_ZTV22IFSelect_SignatureList
UNKNOWN:_ZTV22ProjLib_ProjectOnPlane
UNKNOWN:_ZTV22ProjLib_ProjectedCurve
UNKNOWN:_ZTV22STEPControl_ActorWrite
UNKNOWN:_ZTV22STEPControl_Controller
UNKNOWN:_ZTV22Select3D_SensitiveFace
UNKNOWN:_ZTV22StepData_SelectArrReal
UNKNOWN:_ZTV22StepShape_GeometricSet
UNKNOWN:_ZTV22StepShape_OrientedEdge
UNKNOWN:_ZTV22StepVisual_LayeredItem
UNKNOWN:_ZTV22XCAFDoc_AssemblyItemId
UNKNOWN:_ZTV23AppParCurves_MultiCurve
UNKNOWN:_ZTV23BRepAlgoAPI_Defeaturing
UNKNOWN:_ZTV23BRepBuilderAPI_MakeEdge
UNKNOWN:_ZTV23BRepBuilderAPI_MakeFace
UNKNOWN:_ZTV23BRepBuilderAPI_MakeWire
UNKNOWN:_ZTV23BRepExtrema_OverlapTool
UNKNOWN:_ZTV23BRepOffsetAPI_MakeDraft
UNKNOWN:_ZTV23BRepPrimAPI_MakeOneAxis
UNKNOWN:_ZTV23Extrema_PCFOfEPCOfExtPC
UNKNOWN:_ZTV23Graphic3d_ArrayOfPoints
UNKNOWN:_ZTV23Graphic3d_GraphicDriver
UNKNOWN:_ZTV23Graphic3d_TransformPers
UNKNOWN:_ZTV23Message_AttributeStream
UNKNOWN:_ZTV23Message_PrinterToReport
UNKNOWN:_ZTV23StepGeom_Axis2Placement
UNKNOWN:_ZTV23StepGeom_TrimmingSelect
UNKNOWN:_ZTV23StepRepr_Representation
UNKNOWN:_ZTV23StepRepr_Transformation
UNKNOWN:_ZTV24Adaptor3d_CurveOnSurface
UNKNOWN:_ZTV24BRepBuilderAPI_MakeShape
UNKNOWN:_ZTV24BRepBuilderAPI_MakeShell
UNKNOWN:_ZTV24BRepBuilderAPI_MakeSolid
UNKNOWN:_ZTV24BRepBuilderAPI_Transform
UNKNOWN:_ZTV24BRepFilletAPI_MakeFillet
UNKNOWN:_ZTV24BRepOffsetAPI_DraftAngle
UNKNOWN:_ZTV24BRepOffsetAPI_MakeOffset
UNKNOWN:_ZTV24BRepOffsetAPI_MiddlePath
UNKNOWN:_ZTV24BRepPrimAPI_MakeCylinder
UNKNOWN:_ZTV24BRepTopAdaptor_TopolTool
UNKNOWN:_ZTV24HatchGen_PointOnHatching
UNKNOWN:_ZTV24IFSelect_GeneralModifier
UNKNOWN:_ZTV24Interface_EntityIterator
UNKNOWN:_ZTV24Interface_FileReaderData
UNKNOWN:_ZTV24Interface_InterfaceModel
UNKNOWN:_ZTV24Select3D_SensitiveEntity
UNKNOWN:_ZTV24SelectMgr_ViewerSelector
UNKNOWN:_ZTV24StepBasic_DateAssignment
UNKNOWN:_ZTV24StepBasic_DateTimeSelect
UNKNOWN:_ZTV24StepGeom_PcurveOrSurface
UNKNOWN:_ZTV24StepShape_ValueQualifier
UNKNOWN:_ZTV24StepVisual_InvisibleItem
UNKNOWN:_ZTV24TCollection_HAsciiString
UNKNOWN:_ZTV25BRepBuilderAPI_FastSewing
UNKNOWN:_ZTV25BRepBuilderAPI_GTransform
UNKNOWN:_ZTV25BRepBuilderAPI_MakeEdge2d
UNKNOWN:_ZTV25BRepFilletAPI_MakeChamfer
UNKNOWN:_ZTV25BRepOffsetAPI_MakeEvolved
UNKNOWN:_ZTV25BRepOffsetAPI_MakeFilling
UNKNOWN:_ZTV25Extrema_PCFOfEPCOfExtPC2d
UNKNOWN:_ZTV25GeomPlate_CurveConstraint
UNKNOWN:_ZTV25Graphic3d_ArrayOfPolygons
UNKNOWN:_ZTV25Graphic3d_ArrayOfSegments
UNKNOWN:_ZTV25RWObj_TriangulationReader
UNKNOWN:_ZTV25StepBasic_GeneralProperty
UNKNOWN:_ZTV25StepBasic_GroupAssignment
UNKNOWN:_ZTV25StepGeom_Axis2Placement3d
UNKNOWN:_ZTV26AppParCurves_MultiBSpCurve
UNKNOWN:_ZTV26BRepBuilderAPI_MakePolygon
UNKNOWN:_ZTV26BRepBuilderAPI_ModifyShape
UNKNOWN:_ZTV26BRepFilletAPI_MakeFillet2d
UNKNOWN:_ZTV26BRepOffsetAPI_ThruSections
UNKNOWN:_ZTV26GeomPlate_PlateG0Criterion
UNKNOWN:_ZTV26GeomPlate_PlateG1Criterion
UNKNOWN:_ZTV26Graphic3d_ArrayOfPolylines
UNKNOWN:_ZTV26Graphic3d_ArrayOfTriangles
UNKNOWN:_ZTV26Graphic3d_AspectFillArea3d
UNKNOWN:_ZTV26StepBasic_ActionAssignment
UNKNOWN:_ZTV26StepRepr_RepresentationMap
UNKNOWN:_ZTV26StepVisual_FillStyleSelect
UNKNOWN:_ZTV27AppDef_MultiPointConstraint
UNKNOWN:_ZTV27BRepBuilderAPI_NurbsConvert
UNKNOWN:_ZTV27BRepOffsetAPI_MakePipeShell
UNKNOWN:_ZTV27Graphic3d_ArrayOfPrimitives
UNKNOWN:_ZTV27StepBasic_DocumentReference
UNKNOWN:_ZTV27StepRepr_PropertyDefinition
UNKNOWN:_ZTV27StepRepr_RepresentationItem
UNKNOWN:_ZTV27StepVisual_StyledItemTarget
UNKNOWN:_ZTV27XSControl_SelectForTransfer
UNKNOWN:_ZTV28BRepExtrema_SelfIntersection
UNKNOWN:_ZTV28Graphic3d_ArrayOfQuadrangles
UNKNOWN:_ZTV28Poly_TriangulationParameters
UNKNOWN:_ZTV28ShapeUpgrade_RemoveLocations
UNKNOWN:_ZTV28ShapeUpgrade_ShapeDivideArea
UNKNOWN:_ZTV28ShapeUpgrade_UnifySameDomain
UNKNOWN:_ZTV28StepBasic_ApprovalAssignment
UNKNOWN:_ZTV28StepBasic_ContractAssignment
UNKNOWN:_ZTV28StepShape_GeometricSetSelect
UNKNOWN:_ZTV29StepDimTol_DatumOrCommonDatum
UNKNOWN:_ZTV29StepVisual_StyleContextSelect
UNKNOWN:_ZTV30BRepOffsetAPI_NormalProjection
UNKNOWN:_ZTV30Graphic3d_GraphicDriverFactory
UNKNOWN:_ZTV30StepDimTol_ToleranceZoneTarget
UNKNOWN:_ZTV30StepRepr_RepresentedDefinition
UNKNOWN:_ZTV31GeomAdaptor_SurfaceOfRevolution
UNKNOWN:_ZTV31Graphic3d_ArrayOfTriangleStrips
UNKNOWN:_ZTV31StepBasic_DateAndTimeAssignment
UNKNOWN:_ZTV31StepBasic_ExternallyDefinedItem
UNKNOWN:_ZTV31StepVisual_CurveStyleFontSelect
UNKNOWN:_ZTV32BinDrivers_DocumentStorageDriver
UNKNOWN:_ZTV32Graphic3d_PresentationAttributes
UNKNOWN:_ZTV32SelectMgr_SelectingVolumeManager
UNKNOWN:_ZTV32StepBasic_OrganizationAssignment
UNKNOWN:_ZTV32StepRepr_CharacterizedDefinition
UNKNOWN:_ZTV32Transfer_ActorOfProcessForFinder
UNKNOWN:_ZTV32XmlDrivers_DocumentStorageDriver
UNKNOWN:_ZTV33BinLDrivers_DocumentStorageDriver
UNKNOWN:_ZTV33ShapeUpgrade_ShapeConvertToBezier
UNKNOWN:_ZTV33StepBasic_ActionRequestAssignment
UNKNOWN:_ZTV33StepBasic_CertificationAssignment
UNKNOWN:_ZTV33StepDimTol_DatumReferenceModifier
UNKNOWN:_ZTV33StepDimTol_DatumSystemOrReference
UNKNOWN:_ZTV33StepVisual_AnnotationPlaneElement
UNKNOWN:_ZTV33XmlLDrivers_DocumentStorageDriver
UNKNOWN:_ZTV34BinDrivers_DocumentRetrievalDriver
UNKNOWN:_ZTV34ShapeUpgrade_ShapeDivideContinuity
UNKNOWN:_ZTV34StepBasic_IdentificationAssignment
UNKNOWN:_ZTV34StepBasic_PersonOrganizationSelect
UNKNOWN:_ZTV34StepVisual_PresentationStyleSelect
UNKNOWN:_ZTV35BinLDrivers_DocumentRetrievalDriver
UNKNOWN:_ZTV35Extrema_PCFOfEPCOfELPCOfLocateExtPC
UNKNOWN:_ZTV35Extrema_PCLocFOfLocEPCOfLocateExtPC
UNKNOWN:_ZTV35StepDimTol_GeometricToleranceTarget
UNKNOWN:_ZTV35StepRepr_RepresentationRelationship
UNKNOWN:_ZTV35StepShape_DimensionalCharacteristic
UNKNOWN:_ZTV35StepShape_ToleranceMethodDefinition
UNKNOWN:_ZTV35StepVisual_DraughtingCalloutElement
UNKNOWN:_ZTV35Transfer_ActorOfProcessForTransient
UNKNOWN:_ZTV35XmlLDrivers_DocumentRetrievalDriver
UNKNOWN:_ZTV36GeomAdaptor_SurfaceOfLinearExtrusion
UNKNOWN:_ZTV36ShapeConstruct_ProjectCurveOnSurface
UNKNOWN:_ZTV36StepVisual_RenderingPropertiesSelect
UNKNOWN:_ZTV36StepVisual_SurfaceStyleElementSelect
UNKNOWN:_ZTV39StepRepr_MaterialPropertyRepresentation
UNKNOWN:_ZTV40StepBasic_ProductOrFormationOrDefinition
UNKNOWN:_ZTV41StepBasic_PersonAndOrganizationAssignment
UNKNOWN:_ZTV41StepRepr_PropertyDefinitionRepresentation
UNKNOWN:_ZTV42StepBasic_ExternalIdentificationAssignment
UNKNOWN:_ZTV42StepBasic_SecurityClassificationAssignment
UNKNOWN:_ZTV48StepRepr_RepresentationOrRepresentationReference
UNKNOWN:_ZTV53StepAP242_ItemIdentifiedRepresentationUsageDefinition
UNKNOWN:_ZTV9AIS_Shape
UNKNOWN:_ZTV9OSD_Timer
libGL.so.1:glAlphaFunc
libGL.so.1:glBindTexture
libGL.so.1:glBitmap
libGL.so.1:glBlendFunc
libGL.so.1:glCallList
libGL.so.1:glClear
libGL.so.1:glClearColor
libGL.so.1:glClearDepth
libGL.so.1:glClipPlane
libGL.so.1:glColor4fv
libGL.so.1:glColorMask
libGL.so.1:glColorMaterial
libGL.so.1:glColorPointer
libGL.so.1:glCopyPixels
libGL.so.1:glCopyTexImage2D
libGL.so.1:glCullFace
libGL.so.1:glDeleteLists
libGL.so.1:glDeleteTextures
libGL.so.1:glDepthFunc
libGL.so.1:glDepthMask
libGL.so.1:glDisable
libGL.so.1:glDisableClientState
libGL.so.1:glDrawArrays
libGL.so.1:glDrawBuffer
libGL.so.1:glDrawElements
libGL.so.1:glDrawPixels
libGL.so.1:glEnable
libGL.so.1:glEnableClientState
libGL.so.1:glEndList
libGL.so.1:glFinish
libGL.so.1:glFlush
libGL.so.1:glFrontFace
libGL.so.1:glGenLists
libGL.so.1:glGenTextures
libGL.so.1:glGetBooleanv
libGL.so.1:glGetError
libGL.so.1:glGetFloatv
libGL.so.1:glGetIntegerv
libGL.so.1:glGetPointerv
libGL.so.1:glGetString
libGL.so.1:glGetTexImage
libGL.so.1:glGetTexLevelParameteriv
libGL.so.1:glHint
libGL.so.1:glIsEnabled
libGL.so.1:glLightModelfv
libGL.so.1:glLightModeli
libGL.so.1:glLightf
libGL.so.1:glLightfv
libGL.so.1:glLineStipple
libGL.so.1:glLineWidth
libGL.so.1:glLoadIdentity
libGL.so.1:glLoadMatrixf
libGL.so.1:glLogicOp
libGL.so.1:glMaterialf
libGL.so.1:glMaterialfv
libGL.so.1:glMatrixMode
libGL.so.1:glNewList
libGL.so.1:glNormalPointer
libGL.so.1:glPixelStorei
libGL.so.1:glPixelTransferi
libGL.so.1:glPointSize
libGL.so.1:glPolygonMode
libGL.so.1:glPolygonOffset
libGL.so.1:glPolygonStipple
libGL.so.1:glRasterPos2i
libGL.so.1:glRasterPos3fv
libGL.so.1:glReadBuffer
libGL.so.1:glReadPixels
libGL.so.1:glScissor
libGL.so.1:glShadeModel
libGL.so.1:glStencilFunc
libGL.so.1:glStencilOp
libGL.so.1:glTexCoordPointer
libGL.so.1:glTexEnvi
libGL.so.1:glTexGenfv
libGL.so.1:glTexGeni
libGL.so.1:glTexImage1D
libGL.so.1:glTexImage2D
libGL.so.1:glTexParameteri
libGL.so.1:glTexSubImage1D
libGL.so.1:glTexSubImage2D
libGL.so.1:glVertexPointer
libGL.so.1:glViewport
libGL.so.1:glXChooseFBConfig
libGL.so.1:glXChooseVisual
libGL.so.1:glXCreateContext
libGL.so.1:glXDestroyContext
libGL.so.1:glXGetClientString
libGL.so.1:glXGetConfig
libGL.so.1:glXGetCurrentContext
libGL.so.1:glXGetCurrentDisplay
libGL.so.1:glXGetCurrentDrawable
libGL.so.1:glXGetProcAddress
libGL.so.1:glXGetVisualFromFBConfig
libGL.so.1:glXIsDirect
libGL.so.1:glXMakeCurrent
libGL.so.1:glXQueryExtension
libGL.so.1:glXQueryExtensionsString
libGL.so.1:glXQueryServerString
libGL.so.1:glXQueryVersion
libGL.so.1:glXSwapBuffers
libGL.so.1:glXWaitGL
libX11.so.6:XAllocColor
libX11.so.6:XChangeWindowAttributes
libX11.so.6:XCheckTypedWindowEvent
libX11.so.6:XCheckWindowEvent
libX11.so.6:XClearArea
libX11.so.6:XCloseDisplay
libX11.so.6:XConnectionNumber
libX11.so.6:XCopyArea
libX11.so.6:XCreateColormap
libX11.so.6:XCreateGC
libX11.so.6:XCreateImage
libX11.so.6:XCreatePixmap
libX11.so.6:XCreateWindow
libX11.so.6:XDestroyWindow
libX11.so.6:XDrawSegments
libX11.so.6:XDrawString
libX11.so.6:XFetchName
libX11.so.6:XFillRectangle
libX11.so.6:XFlush
libX11.so.6:XFree
libX11.so.6:XFreeGC
libX11.so.6:XFreePixmap
libX11.so.6:XGetGCValues
libX11.so.6:XGetSubImage
libX11.so.6:XGetVisualInfo
libX11.so.6:XGetWindowAttributes
libX11.so.6:XIconifyWindow
libX11.so.6:XInternAtom
libX11.so.6:XLookupKeysym
libX11.so.6:XMapRaised
libX11.so.6:XMapWindow
libX11.so.6:XMatchVisualInfo
libX11.so.6:XMoveWindow
libX11.so.6:XNextEvent
libX11.so.6:XOpenDisplay
libX11.so.6:XParseColor
libX11.so.6:XPending
libX11.so.6:XQueryExtension
libX11.so.6:XQueryPointer
libX11.so.6:XResizeWindow
libX11.so.6:XRootWindowOfScreen
libX11.so.6:XSelectInput
libX11.so.6:XSendEvent
libX11.so.6:XSetBackground
libX11.so.6:XSetErrorHandler
libX11.so.6:XSetForeground
libX11.so.6:XSetFunction
libX11.so.6:XSetInputFocus
libX11.so.6:XSetLineAttributes
libX11.so.6:XSetPlaneMask
libX11.so.6:XSetStandardProperties
libX11.so.6:XSetWMHints
libX11.so.6:XSetWMNormalHints
libX11.so.6:XSetWMProtocols
libX11.so.6:XStoreName
libX11.so.6:XSync
libX11.so.6:XSynchronize
libX11.so.6:XTranslateCoordinates
libX11.so.6:XUnmapWindow
libc.so.6:__ctype_get_mb_cur_max
libc.so.6:__cxa_atexit
libc.so.6:__errno_location
libc.so.6:__fprintf_chk
libc.so.6:__isoc23_sscanf
libc.so.6:__isoc23_strtol
libc.so.6:__isoc23_strtoul
libc.so.6:__isoc99_sscanf
libc.so.6:__libc_single_threaded
libc.so.6:__libc_start_main
libc.so.6:__longjmp_chk
libc.so.6:__open_2
libc.so.6:__printf_chk
libc.so.6:__snprintf_chk
libc.so.6:__sprintf_chk
libc.so.6:__stack_chk_fail
libc.so.6:__strcat_chk
libc.so.6:__strcpy_chk
libc.so.6:__strncpy_chk
libc.so.6:__syslog_chk
libc.so.6:__timezone
libc.so.6:__vfprintf_chk
libc.so.6:__vsprintf_chk
libc.so.6:_setjmp
libc.so.6:access
libc.so.6:backtrace
libc.so.6:backtrace_symbols
libc.so.6:calloc
libc.so.6:chdir
libc.so.6:chmod
libc.so.6:clearerr
libc.so.6:clock
libc.so.6:clock_gettime
libc.so.6:close
libc.so.6:closedir
libc.so.6:closelog
libc.so.6:dlclose
libc.so.6:dlerror
libc.so.6:dlopen
libc.so.6:dlsym
libc.so.6:dup
libc.so.6:dup2
libc.so.6:exit
libc.so.6:fclose
libc.so.6:fcntl
libc.so.6:fdopen
libc.so.6:feof
libc.so.6:ferror
libc.so.6:fflush
libc.so.6:fgets
libc.so.6:fileno
libc.so.6:fopen
libc.so.6:fread
libc.so.6:free
libc.so.6:freelocale
libc.so.6:fseek
libc.so.6:fseeko
libc.so.6:fstat
libc.so.6:ftell
libc.so.6:ftello
libc.so.6:ftruncate
libc.so.6:fwrite
libc.so.6:getc
libc.so.6:getcwd
libc.so.6:getenv
libc.so.6:gethostbyname
libc.so.6:gethostname
libc.so.6:getpagesize
libc.so.6:getpid
libc.so.6:getpwnam
libc.so.6:getpwuid
libc.so.6:gettimeofday
libc.so.6:getuid
libc.so.6:isalpha
libc.so.6:isatty
libc.so.6:iscntrl
libc.so.6:isgraph
libc.so.6:isspace
libc.so.6:isxdigit
libc.so.6:localtime
libc.so.6:lseek
libc.so.6:mallinfo2
libc.so.6:malloc
libc.so.6:mblen
libc.so.6:mbstowcs
libc.so.6:memchr
libc.so.6:memcmp
libc.so.6:memcpy
libc.so.6:memmove
libc.so.6:memset
libc.so.6:mkdir
libc.so.6:mkdtemp
libc.so.6:mkstemp
libc.so.6:mmap
libc.so.6:munmap
libc.so.6:newlocale
libc.so.6:open
libc.so.6:opendir
libc.so.6:openlog
libc.so.6:perror
libc.so.6:posix_memalign
libc.so.6:pthread_cond_broadcast
libc.so.6:pthread_cond_destroy
libc.so.6:pthread_cond_init
libc.so.6:pthread_cond_timedwait
libc.so.6:pthread_cond_wait
libc.so.6:pthread_create
libc.so.6:pthread_detach
libc.so.6:pthread_join
libc.so.6:pthread_mutex_destroy
libc.so.6:pthread_mutex_init
libc.so.6:pthread_mutex_lock
libc.so.6:pthread_mutex_trylock
libc.so.6:pthread_mutex_unlock
libc.so.6:pthread_mutexattr_destroy
libc.so.6:pthread_mutexattr_init
libc.so.6:pthread_mutexattr_settype
libc.so.6:pthread_self
libc.so.6:pthread_timedjoin_np
libc.so.6:putenv
libc.so.6:qsort
libc.so.6:rand
libc.so.6:read
libc.so.6:readdir
libc.so.6:readlink
libc.so.6:realloc
libc.so.6:rename
libc.so.6:rewind
libc.so.6:rmdir
libc.so.6:setlocale
libc.so.6:setrlimit
libc.so.6:sigaction
libc.so.6:sigaddset
libc.so.6:sigemptyset
libc.so.6:sigprocmask
libc.so.6:sleep
libc.so.6:srand
libc.so.6:stat
libc.so.6:statvfs
libc.so.6:stderr
libc.so.6:stdin
libc.so.6:stdout
libc.so.6:strcasecmp
libc.so.6:strchr
libc.so.6:strcmp
libc.so.6:strcpy
libc.so.6:strcspn
libc.so.6:strdup
libc.so.6:strerror
libc.so.6:strftime
libc.so.6:strlen
libc.so.6:strncasecmp
libc.so.6:strncmp
libc.so.6:strncpy
libc.so.6:strspn
libc.so.6:strstr
libc.so.6:strtod
libc.so.6:strtok
libc.so.6:strtol
libc.so.6:sysconf
libc.so.6:time
libc.so.6:times
libc.so.6:timezone
libc.so.6:tolower
libc.so.6:toupper
libc.so.6:umask
libc.so.6:uname
libc.so.6:unlink
libc.so.6:uselocale
libc.so.6:usleep
libc.so.6:wcstombs
libc.so.6:write
libfontconfig.so.1:FcConfigDestroy
libfontconfig.so.1:FcConfigGetFontDirs
libfontconfig.so.1:FcInitLoadConfig
libfontconfig.so.1:FcStrListDone
libfontconfig.so.1:FcStrListNext
libfreeimage.so.3:FreeImage_AdjustGamma
libfreeimage.so.3:FreeImage_AllocateT
libfreeimage.so.3:FreeImage_CloseMemory
libfreeimage.so.3:FreeImage_ColorQuantize
libfreeimage.so.3:FreeImage_ConvertTo24Bits
libfreeimage.so.3:FreeImage_ConvertTo8Bits
libfreeimage.so.3:FreeImage_ConvertToType
libfreeimage.so.3:FreeImage_FIFSupportsReading
libfreeimage.so.3:FreeImage_FlipVertical
libfreeimage.so.3:FreeImage_GetBPP
libfreeimage.so.3:FreeImage_GetBits
libfreeimage.so.3:FreeImage_GetColorType
libfreeimage.so.3:FreeImage_GetFIFFromFilename
libfreeimage.so.3:FreeImage_GetFileType
libfreeimage.so.3:FreeImage_GetFileTypeFromHandle
libfreeimage.so.3:FreeImage_GetFileTypeFromMemory
libfreeimage.so.3:FreeImage_GetHeight
libfreeimage.so.3:FreeImage_GetImageType
libfreeimage.so.3:FreeImage_GetPitch
libfreeimage.so.3:FreeImage_GetWidth
libfreeimage.so.3:FreeImage_Load
libfreeimage.so.3:FreeImage_LoadFromHandle
libfreeimage.so.3:FreeImage_LoadFromMemory
libfreeimage.so.3:FreeImage_OpenMemory
libfreeimage.so.3:FreeImage_Save
libfreeimage.so.3:FreeImage_Unload
libfreetype.so.6:FT_Done_Face
libfreetype.so.6:FT_Done_FreeType
libfreetype.so.6:FT_Get_Char_Index
libfreetype.so.6:FT_Get_Kerning
libfreetype.so.6:FT_Init_FreeType
libfreetype.so.6:FT_Load_Char
libfreetype.so.6:FT_MulFix
libfreetype.so.6:FT_New_Face
libfreetype.so.6:FT_New_Memory_Face
libfreetype.so.6:FT_Select_Charmap
libfreetype.so.6:FT_Set_Char_Size
libfreetype.so.6:FT_Set_Transform
libgcc_s.so.1:_Unwind_Resume
libm.so.6:acos
libm.so.6:acosf
libm.so.6:acosh
libm.so.6:asin
libm.so.6:asinh
libm.so.6:atan
libm.so.6:atan2
libm.so.6:atanh
libm.so.6:ceil
libm.so.6:cos
libm.so.6:cosf
libm.so.6:cosh
libm.so.6:exp
libm.so.6:feclearexcept
libm.so.6:fedisableexcept
libm.so.6:feenableexcept
libm.so.6:fegetexcept
libm.so.6:floor
libm.so.6:fmod
libm.so.6:log
libm.so.6:log10
libm.so.6:modf
libm.so.6:pow
libm.so.6:powf
libm.so.6:sin
libm.so.6:sincos
libm.so.6:sincosf
libm.so.6:sinh
libm.so.6:sqrt
libm.so.6:sqrtf
libm.so.6:tan
libm.so.6:tanh
libstdc++.so.6:_ZNKSt12__basic_fileIcE7is_openEv
libstdc++.so.6:_ZNKSt13runtime_error4whatEv
libstdc++.so.6:_ZNKSt5ctypeIcE13_M_widen_initEv
libstdc++.so.6:_ZNKSt7__cxx1115basic_stringbufIcSt11char_traitsIcESaIcEE3strEv
libstdc++.so.6:_ZNSdC2Ev
libstdc++.so.6:_ZNSdD2Ev
libstdc++.so.6:_ZNSi10_M_extractIbEERSiRT_
libstdc++.so.6:_ZNSi10_M_extractIdEERSiRT_
libstdc++.so.6:_ZNSi10_M_extractIjEERSiRT_
libstdc++.so.6:_ZNSi10_M_extractItEERSiRT_
libstdc++.so.6:_ZNSi3getERc
libstdc++.so.6:_ZNSi3getEv
libstdc++.so.6:_ZNSi4peekEv
libstdc++.so.6:_ZNSi4readEPcl
libstdc++.so.6:_ZNSi5seekgESt4fposI11__mbstate_tE
libstdc++.so.6:_ZNSi5seekgElSt12_Ios_Seekdir
libstdc++.so.6:_ZNSi5tellgEv
libstdc++.so.6:_ZNSi5ungetEv
libstdc++.so.6:_ZNSi7getlineEPclc
libstdc++.so.6:_ZNSiC2Ev
libstdc++.so.6:_ZNSirsERi
libstdc++.so.6:_ZNSirsERs
libstdc++.so.6:_ZNSo3putEc
libstdc++.so.6:_ZNSo5flushEv
libstdc++.so.6:_ZNSo5seekpESt4fposI11__mbstate_tE
libstdc++.so.6:_ZNSo5tellpEv
libstdc++.so.6:_ZNSo5writeEPKcl
libstdc++.so.6:_ZNSo9_M_insertIPKvEERSoT_
libstdc++.so.6:_ZNSo9_M_insertIbEERSoT_
libstdc++.so.6:_ZNSo9_M_insertIdEERSoT_
libstdc++.so.6:_ZNSo9_M_insertIlEERSoT_
libstdc++.so.6:_ZNSo9_M_insertImEERSoT_
libstdc++.so.6:_ZNSo9_M_insertIxEERSoT_
libstdc++.so.6:_ZNSoC1EPSt15basic_streambufIcSt11char_traitsIcEE
libstdc++.so.6:_ZNSoD1Ev
libstdc++.so.6:_ZNSolsEPSt15basic_streambufIcSt11char_traitsIcEE
libstdc++.so.6:_ZNSolsEi
libstdc++.so.6:_ZNSolsEs
libstdc++.so.6:_ZNSt12__basic_fileIcED1Ev
libstdc++.so.6:_ZNSt13basic_filebufIcSt11char_traitsIcEE4openEPKcSt13_Ios_Openmode
libstdc++.so.6:_ZNSt13basic_filebufIcSt11char_traitsIcEE5closeEv
libstdc++.so.6:_ZNSt13basic_filebufIcSt11char_traitsIcEEC1Ev
libstdc++.so.6:_ZNSt13basic_filebufIcSt11char_traitsIcEED1Ev
libstdc++.so.6:_ZNSt13runtime_errorD2Ev
libstdc++.so.6:_ZNSt14basic_ifstreamIcSt11char_traitsIcEEC1EPKcSt13_Ios_Openmode
libstdc++.so.6:_ZNSt14basic_ifstreamIcSt11char_traitsIcEED1Ev
libstdc++.so.6:_ZNSt14basic_ofstreamIcSt11char_traitsIcEED1Ev
libstdc++.so.6:_ZNSt15basic_streambufIcSt11char_traitsIcEE4syncEv
libstdc++.so.6:_ZNSt15basic_streambufIcSt11char_traitsIcEE5imbueERKSt6locale
libstdc++.so.6:_ZNSt15basic_streambufIcSt11char_traitsIcEE5uflowEv
libstdc++.so.6:_ZNSt15basic_streambufIcSt11char_traitsIcEE6setbufEPcl
libstdc++.so.6:_ZNSt15basic_streambufIcSt11char_traitsIcEE6xsgetnEPcl
libstdc++.so.6:_ZNSt15basic_streambufIcSt11char_traitsIcEE6xsputnEPKcl
libstdc++.so.6:_ZNSt15basic_streambufIcSt11char_traitsIcEE7seekoffElSt12_Ios_SeekdirSt13_Ios_Openmode
libstdc++.so.6:_ZNSt15basic_streambufIcSt11char_traitsIcEE7seekposESt4fposI11__mbstate_tESt13_Ios_Openmode
libstdc++.so.6:_ZNSt15basic_streambufIcSt11char_traitsIcEE8overflowEi
libstdc++.so.6:_ZNSt15basic_streambufIcSt11char_traitsIcEE9pbackfailEi
libstdc++.so.6:_ZNSt15basic_streambufIcSt11char_traitsIcEE9showmanycEv
libstdc++.so.6:_ZNSt15basic_streambufIcSt11char_traitsIcEEC2Ev
libstdc++.so.6:_ZNSt6locale7classicEv
libstdc++.so.6:_ZNSt6localeC1EPKc
libstdc++.so.6:_ZNSt6localeC1Ev
libstdc++.so.6:_ZNSt6localeD1Ev
libstdc++.so.6:_ZNSt7__cxx1112basic_stringIcSt11char_traitsIcESaIcEE10_M_disposeEv
libstdc++.so.6:_ZNSt7__cxx1112basic_stringIcSt11char_traitsIcESaIcEE10_M_replaceEmmPKcm
libstdc++.so.6:_ZNSt7__cxx1112basic_stringIcSt11char_traitsIcESaIcEE9_M_appendEPKcm
libstdc++.so.6:_ZNSt7__cxx1112basic_stringIcSt11char_traitsIcESaIcEE9_M_assignERKS4_
libstdc++.so.6:_ZNSt7__cxx1112basic_stringIcSt11char_traitsIcESaIcEE9_M_createERmm
libstdc++.so.6:_ZNSt7__cxx1112basic_stringIcSt11char_traitsIcESaIcEE9_M_mutateEmmPKcm
libstdc++.so.6:_ZNSt7__cxx1115basic_stringbufIcSt11char_traitsIcESaIcEE7_M_syncEPcmm
libstdc++.so.6:_ZNSt7__cxx1118basic_stringstreamIcSt11char_traitsIcESaIcEEC1Ev
libstdc++.so.6:_ZNSt7__cxx1118basic_stringstreamIcSt11char_traitsIcESaIcEED1Ev
libstdc++.so.6:_ZNSt7__cxx1119basic_istringstreamIcSt11char_traitsIcESaIcEEC1ERKNS_12basic_stringIcS2_S3_EESt13_Ios_Openmode
libstdc++.so.6:_ZNSt7__cxx1119basic_istringstreamIcSt11char_traitsIcESaIcEED1Ev
libstdc++.so.6:_ZNSt7__cxx1119basic_ostringstreamIcSt11char_traitsIcESaIcEED1Ev
libstdc++.so.6:_ZNSt8__detail15_List_node_base7_M_hookEPS0_
libstdc++.so.6:_ZNSt8ios_base15sync_with_stdioEb
libstdc++.so.6:_ZNSt8ios_baseC2Ev
libstdc++.so.6:_ZNSt8ios_baseD2Ev
libstdc++.so.6:_ZNSt9basic_iosIcSt11char_traitsIcEE4initEPSt15basic_streambufIcS1_E
libstdc++.so.6:_ZNSt9basic_iosIcSt11char_traitsIcEE5clearESt12_Ios_Iostate
libstdc++.so.6:_ZNSt9basic_iosIcSt11char_traitsIcEE5imbueERKSt6locale
libstdc++.so.6:_ZNSt9basic_iosIcSt11char_traitsIcEE5rdbufEPSt15basic_streambufIcS1_E
libstdc++.so.6:_ZSt16__ostream_insertIcSt11char_traitsIcEERSt13basic_ostreamIT_T0_ES6_PKS3_l
libstdc++.so.6:_ZSt16__throw_bad_castv
libstdc++.so.6:_ZSt17__istream_extractRSiPcl
libstdc++.so.6:_ZSt17__throw_bad_allocv
libstdc++.so.6:_ZSt18_Rb_tree_decrementPSt18_Rb_tree_node_base
libstdc++.so.6:_ZSt18_Rb_tree_incrementPKSt18_Rb_tree_node_base
libstdc++.so.6:_ZSt18_Rb_tree_incrementPSt18_Rb_tree_node_base
libstdc++.so.6:_ZSt19__throw_logic_errorPKc
libstdc++.so.6:_ZSt20__throw_length_errorPKc
libstdc++.so.6:_ZSt21ios_base_library_initv
libstdc++.so.6:_ZSt24__throw_out_of_range_fmtPKcz
libstdc++.so.6:_ZSt28_Rb_tree_rebalance_for_erasePSt18_Rb_tree_node_baseRS_
libstdc++.so.6:_ZSt28__throw_bad_array_new_lengthv
libstdc++.so.6:_ZSt29_Rb_tree_insert_and_rebalancebPSt18_Rb_tree_node_baseS0_RS_
libstdc++.so.6:_ZSt2wsIcSt11char_traitsIcEERSt13basic_istreamIT_T0_ES6_
libstdc++.so.6:_ZSt3cin
libstdc++.so.6:_ZSt4cerr
libstdc++.so.6:_ZSt4cout
libstdc++.so.6:_ZSt4endlIcSt11char_traitsIcEERSt13basic_ostreamIT_T0_ES6_
libstdc++.so.6:_ZSt7getlineIcSt11char_traitsIcESaIcEERSt13basic_istreamIT_T0_ES7_RNSt7__cxx1112basic_stringIS4_S5_T1_EES4_
libstdc++.so.6:_ZSt7nothrow
libstdc++.so.6:_ZSt9terminatev
libstdc++.so.6:_ZStlsISt11char_traitsIcEERSt13basic_ostreamIcT_ES5_PKc
libstdc++.so.6:_ZStlsIcSt11char_traitsIcEERSt13basic_ostreamIT_T0_ES6_St8_Setbase
libstdc++.so.6:_ZStrsIcSt11char_traitsIcEERSt13basic_istreamIT_T0_ES6_RS3_
libstdc++.so.6:_ZTISi
libstdc++.so.6:_ZTISo
libstdc++.so.6:_ZTISt13basic_filebufIcSt11char_traitsIcEE
libstdc++.so.6:_ZTISt13runtime_error
libstdc++.so.6:_ZTISt15basic_streambufIcSt11char_traitsIcEE
libstdc++.so.6:_ZTISt9bad_alloc
libstdc++.so.6:_ZTISt9exception
libstdc++.so.6:_ZTTNSt7__cxx1118basic_stringstreamIcSt11char_traitsIcESaIcEEE
libstdc++.so.6:_ZTTNSt7__cxx1119basic_istringstreamIcSt11char_traitsIcESaIcEEE
libstdc++.so.6:_ZTTNSt7__cxx1119basic_ostringstreamIcSt11char_traitsIcESaIcEEE
libstdc++.so.6:_ZTTSt13basic_fstreamIcSt11char_traitsIcEE
libstdc++.so.6:_ZTTSt14basic_ifstreamIcSt11char_traitsIcEE
libstdc++.so.6:_ZTTSt14basic_ofstreamIcSt11char_traitsIcEE
libstdc++.so.6:_ZTVN10__cxxabiv117__class_type_infoE
libstdc++.so.6:_ZTVN10__cxxabiv120__si_class_type_infoE
libstdc++.so.6:_ZTVN10__cxxabiv121__vmi_class_type_infoE
libstdc++.so.6:_ZTVNSt7__cxx1115basic_stringbufIcSt11char_traitsIcESaIcEEE
libstdc++.so.6:_ZTVNSt7__cxx1118basic_stringstreamIcSt11char_traitsIcESaIcEEE
libstdc++.so.6:_ZTVNSt7__cxx1119basic_istringstreamIcSt11char_traitsIcESaIcEEE
libstdc++.so.6:_ZTVNSt7__cxx1119basic_ostringstreamIcSt11char_traitsIcESaIcEEE
libstdc++.so.6:_ZTVSi
libstdc++.so.6:_ZTVSo
libstdc++.so.6:_ZTVSt13basic_filebufIcSt11char_traitsIcEE
libstdc++.so.6:_ZTVSt13basic_fstreamIcSt11char_traitsIcEE
libstdc++.so.6:_ZTVSt14basic_ifstreamIcSt11char_traitsIcEE
libstdc++.so.6:_ZTVSt14basic_ofstreamIcSt11char_traitsIcEE
libstdc++.so.6:_ZTVSt15basic_streambufIcSt11char_traitsIcEE
libstdc++.so.6:_ZTVSt9basic_iosIcSt11char_traitsIcEE
libstdc++.so.6:_ZdaPv
libstdc++.so.6:_ZdlPv
libstdc++.so.6:_Znam
libstdc++.so.6:_Znwm
libstdc++.so.6:_ZnwmRKSt9nothrow_t
libstdc++.so.6:__cxa_allocate_exception
libstdc++.so.6:__cxa_bad_cast
libstdc++.so.6:__cxa_begin_catch
libstdc++.so.6:__cxa_end_catch
libstdc++.so.6:__cxa_free_exception
libstdc++.so.6:__cxa_guard_abort
libstdc++.so.6:__cxa_guard_acquire
libstdc++.so.6:__cxa_guard_release
libstdc++.so.6:__cxa_rethrow
libstdc++.so.6:__cxa_throw
libstdc++.so.6:__cxa_throw_bad_array_new_length
libstdc++.so.6:__dynamic_cast
libstdc++.so.6:__gxx_personality_v0
libtbb.so.12:_ZN3tbb6detail2r110deallocateERNS0_2d117small_object_poolEPvmRKNS2_14execution_dataE
libtbb.so.12:_ZN3tbb6detail2r110initializeERNS0_2d118task_group_contextE
libtbb.so.12:_ZN3tbb6detail2r114execution_slotEPKNS0_2d114execution_dataE
libtbb.so.12:_ZN3tbb6detail2r114notify_waitersEm
libtbb.so.12:_ZN3tbb6detail2r115max_concurrencyEPKNS0_2d115task_arena_baseE
libtbb.so.12:_ZN3tbb6detail2r116execute_and_waitERNS0_2d14taskERNS2_18task_group_contextERNS2_12wait_contextES6_
libtbb.so.12:_ZN3tbb6detail2r117assertion_failureEPKciS3_S3_
libtbb.so.12:_ZN3tbb6detail2r128is_group_execution_cancelledERNS0_2d118task_group_contextE
libtbb.so.12:_ZN3tbb6detail2r15spawnERNS0_2d14taskERNS2_18task_group_contextE
libtbb.so.12:_ZN3tbb6detail2r16createERNS0_2d114global_controlE
libtbb.so.12:_ZN3tbb6detail2r17destroyERNS0_2d114global_controlE
libtbb.so.12:_ZN3tbb6detail2r17destroyERNS0_2d118task_group_contextE
libtbb.so.12:_ZN3tbb6detail2r18allocateERPNS0_2d117small_object_poolEm
libtbb.so.12:_ZN3tbb6detail2r18allocateERPNS0_2d117small_object_poolEmRKNS2_14execution_dataE
libtbbmalloc.so.2:scalable_calloc
libtbbmalloc.so.2:scalable_free
libtbbmalloc.so.2:scalable_malloc
libtbbmalloc.so.2:scalable_realloc
libtcl8.6.so:Tcl_AddErrorInfo
libtcl8.6.so:Tcl_AppendElement
libtcl8.6.so:Tcl_AppendResult
libtcl8.6.so:Tcl_CommandComplete
libtcl8.6.so:Tcl_CreateChannelHandler
libtcl8.6.so:Tcl_CreateCommand
libtcl8.6.so:Tcl_CreateExitHandler
libtcl8.6.so:Tcl_CreateFileHandler
libtcl8.6.so:Tcl_CreateInterp
libtcl8.6.so:Tcl_DStringAppend
libtcl8.6.so:Tcl_DStringFree
libtcl8.6.so:Tcl_DStringInit
libtcl8.6.so:Tcl_DeleteChannelHandler
libtcl8.6.so:Tcl_DeleteCommand
libtcl8.6.so:Tcl_DeleteFileHandler
libtcl8.6.so:Tcl_DeleteInterp
libtcl8.6.so:Tcl_Eval
libtcl8.6.so:Tcl_EvalFile
libtcl8.6.so:Tcl_Exit
libtcl8.6.so:Tcl_ExternalToUtfDString
libtcl8.6.so:Tcl_FindExecutable
libtcl8.6.so:Tcl_Flush
libtcl8.6.so:Tcl_GetStdChannel
libtcl8.6.so:Tcl_GetStringResult
libtcl8.6.so:Tcl_GetVar2
libtcl8.6.so:Tcl_Gets
libtcl8.6.so:Tcl_Init
libtcl8.6.so:Tcl_PutEnv
libtcl8.6.so:Tcl_RecordAndEval
libtcl8.6.so:Tcl_ResetResult
libtcl8.6.so:Tcl_SetResult
libtcl8.6.so:Tcl_SetVar2
libtcl8.6.so:Tcl_StaticPackage
libtcl8.6.so:Tcl_TraceVar2
libtcl8.6.so:Tcl_UniCharLen
libtcl8.6.so:Tcl_UnsetVar2
libtcl8.6.so:Tcl_UntraceVar2
libtcl8.6.so:Tcl_UtfToUniCharDString
libtcl8.6.so:Tcl_VarTraceInfo2
libtcl8.6.so:Tcl_Write
libtk8.6.so:Tk_GeometryRequest
libtk8.6.so:Tk_GetUid
libtk8.6.so:Tk_HandleEvent
libtk8.6.so:Tk_Init
libtk8.6.so:Tk_MainLoop
libtk8.6.so:Tk_MainWindow
libtk8.6.so:Tk_SetAppName
libvtkCommonCore-9.1.so.1:_Z31vtkOutputWindowDisplayErrorTextPKciS0_P9vtkObject
libvtkCommonCore-9.1.so.1:_ZN12vtkDataArray15CreateDataArrayEi
libvtkCommonCore-9.1.so.1:_ZN13vtkCollection7AddItemEP9vtkObject
libvtkCommonCore-9.1.so.1:_ZN13vtkFloatArray3NewEv
libvtkCommonCore-9.1.so.1:_ZN13vtkObjectBase10FastDeleteEv
libvtkCommonCore-9.1.so.1:_ZN13vtkObjectBase10UnRegisterEPS_
libvtkCommonCore-9.1.so.1:_ZN13vtkObjectBase11PrintHeaderERSo9vtkIndent
libvtkCommonCore-9.1.so.1:_ZN13vtkObjectBase12PrintTrailerERSo9vtkIndent
libvtkCommonCore-9.1.so.1:_ZN13vtkObjectBase16ReportReferencesEP19vtkGarbageCollector
libvtkCommonCore-9.1.so.1:_ZN13vtkObjectBase20InitializeObjectBaseEv
libvtkCommonCore-9.1.so.1:_ZN13vtkObjectBase34GetNumberOfGenerationsFromBaseTypeEPKc
libvtkCommonCore-9.1.so.1:_ZN13vtkObjectBase6DeleteEv
libvtkCommonCore-9.1.so.1:_ZN13vtkObjectBase8IsTypeOfEPKc
libvtkCommonCore-9.1.so.1:_ZN13vtkObjectBase8RegisterEPS_
libvtkCommonCore-9.1.so.1:_ZN14vtkIdTypeArray3NewEv
libvtkCommonCore-9.1.so.1:_ZN14vtkInformation3GetEP27vtkInformationDataObjectKey
libvtkCommonCore-9.1.so.1:_ZN14vtkInformation3NewEv
libvtkCommonCore-9.1.so.1:_ZN14vtkLookupTable22SetNumberOfTableValuesEx
libvtkCommonCore-9.1.so.1:_ZN14vtkLookupTable3NewEv
libvtkCommonCore-9.1.so.1:_ZN14vtkLookupTable8AllocateEii
libvtkCommonCore-9.1.so.1:_ZN17vtkOStreamWrapperlsEPKc
libvtkCommonCore-9.1.so.1:_ZN17vtkOStreamWrapperlsEPv
libvtkCommonCore-9.1.so.1:_ZN18vtkWeakPointerBaseD2Ev
libvtkCommonCore-9.1.so.1:_ZN18vtkWeakPointerBaseaSEP13vtkObjectBase
libvtkCommonCore-9.1.so.1:_ZN19vtkSmartPointerBaseC2EP13vtkObjectBase
libvtkCommonCore-9.1.so.1:_ZN19vtkSmartPointerBaseC2EP13vtkObjectBaseRKNS_11NoReferenceE
libvtkCommonCore-9.1.so.1:_ZN19vtkSmartPointerBaseC2ERKS_
libvtkCommonCore-9.1.so.1:_ZN19vtkSmartPointerBaseC2Ev
libvtkCommonCore-9.1.so.1:_ZN19vtkSmartPointerBaseD2Ev
libvtkCommonCore-9.1.so.1:_ZN19vtkSmartPointerBaseaSEP13vtkObjectBase
libvtkCommonCore-9.1.so.1:_ZN20vtkDebugLeaksManagerC1Ev
libvtkCommonCore-9.1.so.1:_ZN20vtkDebugLeaksManagerD1Ev
libvtkCommonCore-9.1.so.1:_ZN20vtkInformationVector20GetInformationObjectEi
libvtkCommonCore-9.1.so.1:_ZN20vtkOStrStreamWrapper3strEv
libvtkCommonCore-9.1.so.1:_ZN20vtkOStrStreamWrapper5rdbufEv
libvtkCommonCore-9.1.so.1:_ZN20vtkOStrStreamWrapper6freezeEi
libvtkCommonCore-9.1.so.1:_ZN20vtkOStrStreamWrapperC1Ev
libvtkCommonCore-9.1.so.1:_ZN20vtkOStrStreamWrapperD1Ev
libvtkCommonCore-9.1.so.1:_ZN27vtkInformationObjectBaseKey3GetEP14vtkInformation
libvtkCommonCore-9.1.so.1:_ZN27vtkInformationObjectBaseKey3SetEP14vtkInformationP13vtkObjectBase
libvtkCommonCore-9.1.so.1:_ZN27vtkInformationObjectBaseKeyC1EPKcS1_S1_
libvtkCommonCore-9.1.so.1:_ZN30vtkCommonInformationKeyManagerC1Ev
libvtkCommonCore-9.1.so.1:_ZN30vtkCommonInformationKeyManagerD1Ev
libvtkCommonCore-9.1.so.1:_ZN31vtkObjectFactoryRegistryCleanupC1Ev
libvtkCommonCore-9.1.so.1:_ZN31vtkObjectFactoryRegistryCleanupD1Ev
libvtkCommonCore-9.1.so.1:_ZN9vtkIdList14SetNumberOfIdsEx
libvtkCommonCore-9.1.so.1:_ZN9vtkIdList3NewEv
libvtkCommonCore-9.1.so.1:_ZN9vtkIdList6ResizeEx
libvtkCommonCore-9.1.so.1:_ZN9vtkIdList8AllocateExi
libvtkCommonCore-9.1.so.1:_ZN9vtkObject11InvokeEventEmPv
libvtkCommonCore-9.1.so.1:_ZN9vtkObject12BreakOnErrorEv
libvtkCommonCore-9.1.so.1:_ZN9vtkObject16RegisterInternalEP13vtkObjectBasei
libvtkCommonCore-9.1.so.1:_ZN9vtkObject18UnRegisterInternalEP13vtkObjectBasei
libvtkCommonCore-9.1.so.1:_ZN9vtkObject23GetGlobalWarningDisplayEv
libvtkCommonCore-9.1.so.1:_ZN9vtkObject7DebugOnEv
libvtkCommonCore-9.1.so.1:_ZN9vtkObject8DebugOffEv
libvtkCommonCore-9.1.so.1:_ZN9vtkObject8GetMTimeEv
libvtkCommonCore-9.1.so.1:_ZN9vtkObject8ModifiedEv
libvtkCommonCore-9.1.so.1:_ZN9vtkPoints3NewEv
libvtkCommonCore-9.1.so.1:_ZNK13vtkObjectBase12GetClassNameEv
libvtkCommonCore-9.1.so.1:_ZlsRSoRK9vtkIndent
libvtkCommonDataModel-9.1.so.1:_ZN11vtkPolyData10BuildCellsEv
libvtkCommonDataModel-9.1.so.1:_ZN11vtkPolyData13AllocateExactExx
libvtkCommonDataModel-9.1.so.1:_ZN11vtkPolyData13AllocateExactExxxxxxxx
libvtkCommonDataModel-9.1.so.1:_ZN11vtkPolyData14InsertNextCellEiP9vtkIdList
libvtkCommonDataModel-9.1.so.1:_ZN11vtkPolyData14InsertNextCellEiiPKx
libvtkCommonDataModel-9.1.so.1:_ZN11vtkPolyData3NewEv
libvtkCommonDataModel-9.1.so.1:_ZN11vtkPolyData7GetDataEP20vtkInformationVectori
libvtkCommonDataModel-9.1.so.1:_ZN11vtkPolyData9CopyCellsEPS_P9vtkIdListP26vtkIncrementalPointLocator
libvtkCommonDataModel-9.1.so.1:_ZN12vtkFieldData14AllocateArraysEi
libvtkCommonDataModel-9.1.so.1:_ZN12vtkFieldData8AddArrayEP16vtkAbstractArray
libvtkCommonDataModel-9.1.so.1:_ZN12vtkFieldData8GetArrayEPKcRi
libvtkCommonDataModel-9.1.so.1:_ZN12vtkFieldData8GetArrayEi
libvtkCommonDataModel-9.1.so.1:_ZN13vtkDataObject10InitializeEv
libvtkCommonDataModel-9.1.so.1:_ZN13vtkDataObject11DATA_OBJECTEv
libvtkCommonDataModel-9.1.so.1:_ZN13vtkDataObject11ShallowCopyEPS_
libvtkCommonDataModel-9.1.so.1:_ZN13vtkDataObject12SetFieldDataEP12vtkFieldData
libvtkCommonDataModel-9.1.so.1:_ZN13vtkDataObject13GetAttributesEi
libvtkCommonDataModel-9.1.so.1:_ZN13vtkDataObject13GetGhostArrayEi
libvtkCommonDataModel-9.1.so.1:_ZN13vtkDataObject14SetInformationEP14vtkInformation
libvtkCommonDataModel-9.1.so.1:_ZN13vtkDataObject19GetActualMemorySizeEv
libvtkCommonDataModel-9.1.so.1:_ZN13vtkDataObject19GetNumberOfElementsEi
libvtkCommonDataModel-9.1.so.1:_ZN13vtkDataObject24GetAttributeTypeForArrayEP16vtkAbstractArray
libvtkCommonDataModel-9.1.so.1:_ZN13vtkDataObject24GetAttributesAsFieldDataEi
libvtkCommonDataModel-9.1.so.1:_ZN13vtkDataObject4CropEPKi
libvtkCommonDataModel-9.1.so.1:_ZN13vtkDataObject8DeepCopyEPS_
libvtkCommonDataModel-9.1.so.1:_ZN13vtkDataObject8GetMTimeEv
libvtkCommonDataModel-9.1.so.1:_ZN13vtkDataObject9PrintSelfERSo9vtkIndent
libvtkCommonDataModel-9.1.so.1:_ZN13vtkDataObjectC2Ev
libvtkCommonDataModel-9.1.so.1:_ZN13vtkDataObjectD2Ev
libvtkCommonDataModel-9.1.so.1:_ZN14vtkGenericCell3NewEv
libvtkCommonDataModel-9.1.so.1:_ZN20vtkDataSetAttributes10GetNormalsEv
libvtkCommonDataModel-9.1.so.1:_ZN20vtkDataSetAttributes10SetNormalsEP12vtkDataArray
libvtkCommonDataModel-9.1.so.1:_ZN20vtkDataSetAttributes14SetPedigreeIdsEP16vtkAbstractArray
libvtkCommonDataModel-9.1.so.1:_ZN20vtkDataSetAttributes8CopyDataEPS_xx
libvtkCommonDataModel-9.1.so.1:_ZTI13vtkDataObject
libvtkCommonExecutionModel-9.1.so.1:_ZN12vtkAlgorithm10UnRegisterEP13vtkObjectBase
libvtkCommonExecutionModel-9.1.so.1:_ZN12vtkAlgorithm11UpdatePieceEiiiPKi
libvtkCommonExecutionModel-9.1.so.1:_ZN12vtkAlgorithm12SetExecutiveEP12vtkExecutive
libvtkCommonExecutionModel-9.1.so.1:_ZN12vtkAlgorithm12UpdateExtentEPKi
libvtkCommonExecutionModel-9.1.so.1:_ZN12vtkAlgorithm13GetOutputPortEi
libvtkCommonExecutionModel-9.1.so.1:_ZN12vtkAlgorithm13ModifyRequestEP14vtkInformationi
libvtkCommonExecutionModel-9.1.so.1:_ZN12vtkAlgorithm14SetInformationEP14vtkInformation
libvtkCommonExecutionModel-9.1.so.1:_ZN12vtkAlgorithm14UpdateTimeStepEdiiiPKi
libvtkCommonExecutionModel-9.1.so.1:_ZN12vtkAlgorithm16ReportReferencesEP19vtkGarbageCollector
libvtkCommonExecutionModel-9.1.so.1:_ZN12vtkAlgorithm16UpdateDataObjectEv
libvtkCommonExecutionModel-9.1.so.1:_ZN12vtkAlgorithm17UpdateInformationEv
libvtkCommonExecutionModel-9.1.so.1:_ZN12vtkAlgorithm17UpdateWholeExtentEv
libvtkCommonExecutionModel-9.1.so.1:_ZN12vtkAlgorithm18AddInputConnectionEP18vtkAlgorithmOutput
libvtkCommonExecutionModel-9.1.so.1:_ZN12vtkAlgorithm18AddInputConnectionEiP18vtkAlgorithmOutput
libvtkCommonExecutionModel-9.1.so.1:_ZN12vtkAlgorithm18AddInputDataObjectEiP13vtkDataObject
libvtkCommonExecutionModel-9.1.so.1:_ZN12vtkAlgorithm18GetReleaseDataFlagEv
libvtkCommonExecutionModel-9.1.so.1:_ZN12vtkAlgorithm18SetInputConnectionEP18vtkAlgorithmOutput
libvtkCommonExecutionModel-9.1.so.1:_ZN12vtkAlgorithm18SetInputConnectionEiP18vtkAlgorithmOutput
libvtkCommonExecutionModel-9.1.so.1:_ZN12vtkAlgorithm18SetInputDataObjectEiP13vtkDataObject
libvtkCommonExecutionModel-9.1.so.1:_ZN12vtkAlgorithm18SetReleaseDataFlagEi
libvtkCommonExecutionModel-9.1.so.1:_ZN12vtkAlgorithm20ComputePipelineMTimeEP14vtkInformationPP20vtkInformationVectorS3_iPm
libvtkCommonExecutionModel-9.1.so.1:_ZN12vtkAlgorithm21PropagateUpdateExtentEv
libvtkCommonExecutionModel-9.1.so.1:_ZN12vtkAlgorithm21RemoveInputConnectionEiP18vtkAlgorithmOutput
libvtkCommonExecutionModel-9.1.so.1:_ZN12vtkAlgorithm21RemoveInputConnectionEii
libvtkCommonExecutionModel-9.1.so.1:_ZN12vtkAlgorithm21SetNthInputConnectionEiiP18vtkAlgorithmOutput
libvtkCommonExecutionModel-9.1.so.1:_ZN12vtkAlgorithm21SetNumberOfInputPortsEi
libvtkCommonExecutionModel-9.1.so.1:_ZN12vtkAlgorithm22CreateDefaultExecutiveEv
libvtkCommonExecutionModel-9.1.so.1:_ZN12vtkAlgorithm22SetInputArrayToProcessEiP14vtkInformation
libvtkCommonExecutionModel-9.1.so.1:_ZN12vtkAlgorithm22SetInputArrayToProcessEiiiPKcS1_
libvtkCommonExecutionModel-9.1.so.1:_ZN12vtkAlgorithm22SetInputArrayToProcessEiiiiPKc
libvtkCommonExecutionModel-9.1.so.1:_ZN12vtkAlgorithm22SetInputArrayToProcessEiiiii
libvtkCommonExecutionModel-9.1.so.1:_ZN12vtkAlgorithm22SetNumberOfOutputPortsEi
libvtkCommonExecutionModel-9.1.so.1:_ZN12vtkAlgorithm25RemoveAllInputConnectionsEi
libvtkCommonExecutionModel-9.1.so.1:_ZN12vtkAlgorithm27SetNumberOfInputConnectionsEii
libvtkCommonExecutionModel-9.1.so.1:_ZN12vtkAlgorithm6UpdateEP14vtkInformation
libvtkCommonExecutionModel-9.1.so.1:_ZN12vtkAlgorithm6UpdateEi
libvtkCommonExecutionModel-9.1.so.1:_ZN12vtkAlgorithm6UpdateEiP20vtkInformationVector
libvtkCommonExecutionModel-9.1.so.1:_ZN12vtkAlgorithm6UpdateEv
libvtkCommonExecutionModel-9.1.so.1:_ZN12vtkAlgorithm8RegisterEP13vtkObjectBase
libvtkCommonExecutionModel-9.1.so.1:_ZN17vtkImageAlgorithm12SetInputDataEP13vtkDataObject
libvtkCommonExecutionModel-9.1.so.1:_ZN20vtkPolyDataAlgorithm12SetInputDataEP13vtkDataObject
libvtkCommonExecutionModel-9.1.so.1:_ZN20vtkPolyDataAlgorithm14ProcessRequestEP14vtkInformationPP20vtkInformationVectorS3_
libvtkCommonExecutionModel-9.1.so.1:_ZN20vtkPolyDataAlgorithm18RequestInformationEP14vtkInformationPP20vtkInformationVectorS3_
libvtkCommonExecutionModel-9.1.so.1:_ZN20vtkPolyDataAlgorithm19RequestUpdateExtentEP14vtkInformationPP20vtkInformationVectorS3_
libvtkCommonExecutionModel-9.1.so.1:_ZN20vtkPolyDataAlgorithm24FillInputPortInformationEiP14vtkInformation
libvtkCommonExecutionModel-9.1.so.1:_ZN20vtkPolyDataAlgorithm25FillOutputPortInformationEiP14vtkInformation
libvtkCommonExecutionModel-9.1.so.1:_ZN20vtkPolyDataAlgorithm8GetInputEv
libvtkCommonExecutionModel-9.1.so.1:_ZN20vtkPolyDataAlgorithm9GetOutputEv
libvtkCommonExecutionModel-9.1.so.1:_ZN20vtkPolyDataAlgorithm9PrintSelfERSo9vtkIndent
libvtkCommonExecutionModel-9.1.so.1:_ZN20vtkPolyDataAlgorithm9SetOutputEP13vtkDataObject
libvtkCommonExecutionModel-9.1.so.1:_ZN20vtkPolyDataAlgorithmC2Ev
libvtkCommonExecutionModel-9.1.so.1:_ZN20vtkPolyDataAlgorithmD2Ev
libvtkCommonExecutionModel-9.1.so.1:_ZTI20vtkPolyDataAlgorithm
libvtkCommonMath-9.1.so.1:_ZN12vtkMatrix4x43NewEv
libvtkCommonTransforms-9.1.so.1:_ZN12vtkTransform3NewEv
libvtkCommonTransforms-9.1.so.1:_ZN12vtkTransform8GetScaleEPd
libvtkCommonTransforms-9.1.so.1:_ZN25vtkTransformConcatenation11ConcatenateEPKd
libvtkCommonTransforms-9.1.so.1:_ZN25vtkTransformConcatenation8IdentityEv
libvtkFiltersGeneral-9.1.so.1:_ZN26vtkTransformPolyDataFilter3NewEv
libvtkIOImage-9.1.so.1:_ZN12vtkBMPWriter3NewEv
libvtkIOImage-9.1.so.1:_ZN12vtkPNGWriter3NewEv
libvtkIOImage-9.1.so.1:_ZN12vtkPNMWriter3NewEv
libvtkIOImage-9.1.so.1:_ZN13vtkJPEGWriter3NewEv
libvtkIOImage-9.1.so.1:_ZN13vtkTIFFWriter3NewEv
libvtkImagingCore-9.1.so.1:_ZN14vtkImageResize3NewEv
libvtkInteractionStyle-9.1.so.1:_Z38vtkInteractionStyle_AutoInit_Constructv
libvtkInteractionStyle-9.1.so.1:_ZN33vtkInteractorStyleTrackballCamera3NewEv
libvtkRenderingCore-9.1.so.1:_ZN11vtkRenderer11RemoveActorEP7vtkProp
libvtkRenderingCore-9.1.so.1:_ZN11vtkRenderer15GetActiveCameraEv
libvtkRenderingCore-9.1.so.1:_ZN11vtkRenderer19GetTiledAspectRatioEv
libvtkRenderingCore-9.1.so.1:_ZN11vtkRenderer3NewEv
libvtkRenderingCore-9.1.so.1:_ZN11vtkRenderer8AddActorEP7vtkProp
libvtkRenderingCore-9.1.so.1:_ZN11vtkRenderer9GetActorsEv
libvtkRenderingCore-9.1.so.1:_ZN15vtkRenderWindow13SetStereoTypeEi
libvtkRenderingCore-9.1.so.1:_ZN15vtkRenderWindow3NewEv
libvtkRenderingCore-9.1.so.1:_ZN17vtkPolyDataMapper3NewEv
libvtkRenderingCore-9.1.so.1:_ZN18vtkActorCollection3NewEv
libvtkRenderingCore-9.1.so.1:_ZN21vtkAbstractPropPicker10GetActor2DEv
libvtkRenderingCore-9.1.so.1:_ZN21vtkAbstractPropPicker10InitializeEv
libvtkRenderingCore-9.1.so.1:_ZN21vtkAbstractPropPicker11GetAssemblyEv
libvtkRenderingCore-9.1.so.1:_ZN21vtkAbstractPropPicker11GetViewPropEv
libvtkRenderingCore-9.1.so.1:_ZN21vtkAbstractPropPicker15GetPropAssemblyEv
libvtkRenderingCore-9.1.so.1:_ZN21vtkAbstractPropPicker7SetPathEP15vtkAssemblyPath
libvtkRenderingCore-9.1.so.1:_ZN21vtkAbstractPropPicker8GetActorEv
libvtkRenderingCore-9.1.so.1:_ZN21vtkAbstractPropPicker9GetProp3DEv
libvtkRenderingCore-9.1.so.1:_ZN21vtkAbstractPropPicker9GetVolumeEv
libvtkRenderingCore-9.1.so.1:_ZN21vtkAbstractPropPicker9PrintSelfERSo9vtkIndent
libvtkRenderingCore-9.1.so.1:_ZN21vtkAbstractPropPickerC2Ev
libvtkRenderingCore-9.1.so.1:_ZN21vtkAbstractPropPickerD2Ev
libvtkRenderingCore-9.1.so.1:_ZN22vtkWindowToImageFilter3NewEv
libvtkRenderingCore-9.1.so.1:_ZN22vtkWindowToImageFilter8SetInputEP9vtkWindow
libvtkRenderingCore-9.1.so.1:_ZN22vtkWindowToImageFilter9GetOutputEv
libvtkRenderingCore-9.1.so.1:_ZN25vtkRenderWindowInteractor10EnterEventEv
libvtkRenderingCore-9.1.so.1:_ZN25vtkRenderWindowInteractor10LeaveEventEv
libvtkRenderingCore-9.1.so.1:_ZN25vtkRenderWindowInteractor10PinchEventEv
libvtkRenderingCore-9.1.so.1:_ZN25vtkRenderWindowInteractor10SwipeEventEv
libvtkRenderingCore-9.1.so.1:_ZN25vtkRenderWindowInteractor10UnRegisterEP13vtkObjectBase
libvtkRenderingCore-9.1.so.1:_ZN25vtkRenderWindowInteractor10UpdateSizeEii
libvtkRenderingCore-9.1.so.1:_ZN25vtkRenderWindowInteractor11CreateTimerEi
libvtkRenderingCore-9.1.so.1:_ZN25vtkRenderWindowInteractor11EndPanEventEv
libvtkRenderingCore-9.1.so.1:_ZN25vtkRenderWindowInteractor11ExposeEventEv
libvtkRenderingCore-9.1.so.1:_ZN25vtkRenderWindowInteractor11RotateEventEv
libvtkRenderingCore-9.1.so.1:_ZN25vtkRenderWindowInteractor12DestroyTimerEv
libvtkRenderingCore-9.1.so.1:_ZN25vtkRenderWindowInteractor12ExitCallbackEv
libvtkRenderingCore-9.1.so.1:_ZN25vtkRenderWindowInteractor12LongTapEventEv
libvtkRenderingCore-9.1.so.1:_ZN25vtkRenderWindowInteractor12UserCallbackEv
libvtkRenderingCore-9.1.so.1:_ZN25vtkRenderWindowInteractor13EndPinchEventEv
libvtkRenderingCore-9.1.so.1:_ZN25vtkRenderWindowInteractor13GetVTKTimerIdEi
libvtkRenderingCore-9.1.so.1:_ZN25vtkRenderWindowInteractor13KeyPressEventEv
libvtkRenderingCore-9.1.so.1:_ZN25vtkRenderWindowInteractor13StartPanEventEv
libvtkRenderingCore-9.1.so.1:_ZN25vtkRenderWindowInteractor14ConfigureEventEv
libvtkRenderingCore-9.1.so.1:_ZN25vtkRenderWindowInteractor14EndRotateEventEv
libvtkRenderingCore-9.1.so.1:_ZN25vtkRenderWindowInteractor14MouseMoveEventEv
libvtkRenderingCore-9.1.so.1:_ZN25vtkRenderWindowInteractor15EndPickCallbackEv
libvtkRenderingCore-9.1.so.1:_ZN25vtkRenderWindowInteractor15KeyReleaseEventEv
libvtkRenderingCore-9.1.so.1:_ZN25vtkRenderWindowInteractor15SetRenderWindowEP15vtkRenderWindow
libvtkRenderingCore-9.1.so.1:_ZN25vtkRenderWindowInteractor15StartPinchEventEv
libvtkRenderingCore-9.1.so.1:_ZN25vtkRenderWindowInteractor16RecognizeGestureEN10vtkCommand8EventIdsE
libvtkRenderingCore-9.1.so.1:_ZN25vtkRenderWindowInteractor16StartRotateEventEv
libvtkRenderingCore-9.1.so.1:_ZN25vtkRenderWindowInteractor17FindPokedRendererEii
libvtkRenderingCore-9.1.so.1:_ZN25vtkRenderWindowInteractor17SetPickingManagerEP17vtkPickingManager
libvtkRenderingCore-9.1.so.1:_ZN25vtkRenderWindowInteractor17StartPickCallbackEv
libvtkRenderingCore-9.1.so.1:_ZN25vtkRenderWindowInteractor18SetInteractorStyleEP21vtkInteractorObserver
libvtkRenderingCore-9.1.so.1:_ZN25vtkRenderWindowInteractor19CreateDefaultPickerEv
libvtkRenderingCore-9.1.so.1:_ZN25vtkRenderWindowInteractor19InternalCreateTimerEiim
libvtkRenderingCore-9.1.so.1:_ZN25vtkRenderWindowInteractor19MouseWheelLeftEventEv
libvtkRenderingCore-9.1.so.1:_ZN25vtkRenderWindowInteractor20InternalDestroyTimerEi
libvtkRenderingCore-9.1.so.1:_ZN25vtkRenderWindowInteractor20LeftButtonPressEventEv
libvtkRenderingCore-9.1.so.1:_ZN25vtkRenderWindowInteractor20MouseWheelRightEventEv
libvtkRenderingCore-9.1.so.1:_ZN25vtkRenderWindowInteractor21FifthButtonPressEventEv
libvtkRenderingCore-9.1.so.1:_ZN25vtkRenderWindowInteractor21RightButtonPressEventEv
libvtkRenderingCore-9.1.so.1:_ZN25vtkRenderWindowInteractor22FourthButtonPressEventEv
libvtkRenderingCore-9.1.so.1:_ZN25vtkRenderWindowInteractor22LeftButtonReleaseEventEv
libvtkRenderingCore-9.1.so.1:_ZN25vtkRenderWindowInteractor22MiddleButtonPressEventEv
libvtkRenderingCore-9.1.so.1:_ZN25vtkRenderWindowInteractor22MouseWheelForwardEventEv
libvtkRenderingCore-9.1.so.1:_ZN25vtkRenderWindowInteractor23FifthButtonReleaseEventEv
libvtkRenderingCore-9.1.so.1:_ZN25vtkRenderWindowInteractor23MouseWheelBackwardEventEv
libvtkRenderingCore-9.1.so.1:_ZN25vtkRenderWindowInteractor23RightButtonReleaseEventEv
libvtkRenderingCore-9.1.so.1:_ZN25vtkRenderWindowInteractor24FourthButtonReleaseEventEv
libvtkRenderingCore-9.1.so.1:_ZN25vtkRenderWindowInteractor24MiddleButtonReleaseEventEv
libvtkRenderingCore-9.1.so.1:_ZN25vtkRenderWindowInteractor27CreateDefaultPickingManagerEv
libvtkRenderingCore-9.1.so.1:_ZN25vtkRenderWindowInteractor6RenderEv
libvtkRenderingCore-9.1.so.1:_ZN25vtkRenderWindowInteractor8PanEventEv
libvtkRenderingCore-9.1.so.1:_ZN25vtkRenderWindowInteractor8TapEventEv
libvtkRenderingCore-9.1.so.1:_ZN25vtkRenderWindowInteractor9CharEventEv
libvtkRenderingCore-9.1.so.1:_ZN25vtkRenderWindowInteractor9ExitEventEv
libvtkRenderingCore-9.1.so.1:_ZN25vtkRenderWindowInteractor9PrintSelfERSo9vtkIndent
libvtkRenderingCore-9.1.so.1:_ZN25vtkRenderWindowInteractor9SetPickerEP17vtkAbstractPicker
libvtkRenderingCore-9.1.so.1:_ZN25vtkRenderWindowInteractorC2Ev
libvtkRenderingCore-9.1.so.1:_ZN25vtkRenderWindowInteractorD2Ev
libvtkRenderingCore-9.1.so.1:_ZN8vtkActor11GetPropertyEv
libvtkRenderingCore-9.1.so.1:_ZN8vtkActor3NewEv
libvtkRenderingCore-9.1.so.1:_ZN9vtkCamera11SetPositionEddd
libvtkRenderingCore-9.1.so.1:_ZN9vtkCamera13SetFocalPointEddd
libvtkRenderingCore-9.1.so.1:_ZN9vtkCamera19OrthogonalizeViewUpEv
libvtkRenderingCore-9.1.so.1:_ZN9vtkCamera21SetParallelProjectionEi
libvtkRenderingCore-9.1.so.1:_ZN9vtkCamera9SetViewUpEddd
libvtkRenderingCore-9.1.so.1:_ZN9vtkMapper14GetLookupTableEv
libvtkRenderingCore-9.1.so.1:_ZN9vtkMapper14SetLookupTableEP18vtkScalarsToColors
libvtkRenderingCore-9.1.so.1:_ZN9vtkMapper16SelectColorArrayEPKc
libvtkRenderingCore-9.1.so.1:_ZTI21vtkAbstractPropPicker
libvtkRenderingCore-9.1.so.1:_ZTI25vtkRenderWindowInteractor
libvtkRenderingOpenGL2-9.1.so.1:_Z38vtkRenderingOpenGL2_AutoInit_Constructv
libvtkRenderingOpenGL2-9.1.so.1:_ZN22vtkXOpenGLRenderWindow11GetWindowIdEv
libvtkRenderingOpenGL2-9.1.so.1:_ZN22vtkXOpenGLRenderWindow12GetDisplayIdEv
