libigdgmm.so.5:GmmDestroy
libigdgmm.so.5:GmmInit
libigdgmm.so.5:OpenGmm
libigdgmm.so.5:_ZN6GmmLib16GmmClientContext10IsUVPackedE24GMM_RESOURCE_FORMAT_ENUM
libigdgmm.so.5:_ZN6GmmLib16GmmClientContext11GetSkuTableEv
libigdgmm.so.5:_ZN6GmmLib16GmmClientContext11IsYUVPackedE24GMM_RESOURCE_FORMAT_ENUM
libigdgmm.so.5:_ZN6GmmLib16GmmClientContext12IsCompressedE24GMM_RESOURCE_FORMAT_ENUM
libigdgmm.so.5:_ZN6GmmLib16GmmClientContext13GetCacheSizesEP19GMM_CACHE_SIZES_REC
libigdgmm.so.5:_ZN6GmmLib16GmmClientContext15GetPlatformInfoEv
libigdgmm.so.5:_ZN6GmmLib16GmmClientContext17CopyResInfoObjectEPNS_18GmmResourceInfoLinE
libigdgmm.so.5:_ZN6GmmLib16GmmClientContext19CreateResInfoObjectEP24GMM_RESCREATE_PARAMS_REC
libigdgmm.so.5:_ZN6GmmLib16GmmClientContext19CreateResInfoObjectEP24GMM_RESCREATE_PARAMS_RECP30_GmmClientAllocationCallbacks_
libigdgmm.so.5:_ZN6GmmLib16GmmClientContext19GetCachePolicyUsageEv
libigdgmm.so.5:_ZN6GmmLib16GmmClientContext20DestroyResInfoObjectEPNS_18GmmResourceInfoLinE
libigdgmm.so.5:_ZN6GmmLib16GmmClientContext20DestroyResInfoObjectEPNS_18GmmResourceInfoLinEP30_GmmClientAllocationCallbacks_
libigdgmm.so.5:_ZN6GmmLib16GmmClientContext21CachePolicyGetPteTypeE28GMM_RESOURCE_USAGE_TYPE_ENUM
libigdgmm.so.5:_ZN6GmmLib16GmmClientContext21GetCachePolicyElementE28GMM_RESOURCE_USAGE_TYPE_ENUM
libigdgmm.so.5:_ZN6GmmLib16GmmClientContext21GetSurfaceStateFormatE24GMM_RESOURCE_FORMAT_ENUM
libigdgmm.so.5:_ZN6GmmLib16GmmClientContext23GetExtendedTextureAlignEjR15__TEX_ALIGNMENT
libigdgmm.so.5:_ZN6GmmLib16GmmClientContext24GetCachePolicyTlbElementEj
libigdgmm.so.5:_ZN6GmmLib16GmmClientContext26CachePolicyGetMaxMocsIndexEv
libigdgmm.so.5:_ZN6GmmLib16GmmClientContext26CachePolicyGetMemoryObjectEPNS_18GmmResourceInfoLinE28GMM_RESOURCE_USAGE_TYPE_ENUM
libigdgmm.so.5:_ZN6GmmLib16GmmClientContext26GetInternalGpuVaRangeLimitEv
libigdgmm.so.5:_ZN6GmmLib16GmmClientContext27CachePolicyIsUsagePTECachedE28GMM_RESOURCE_USAGE_TYPE_ENUM
libigdgmm.so.5:_ZN6GmmLib16GmmClientContext31CachePolicyGetMaxL1HdcMocsIndexEv
libigdgmm.so.5:_ZN6GmmLib16GmmClientContext33CachePolicyGetMaxSpecialMocsIndexEv
libigdgmm.so.5:_ZN6GmmLib16GmmClientContext34CachePolicyGetOriginalMemoryObjectEPNS_18GmmResourceInfoLinE
libigdgmm.so.5:_ZN6GmmLib16GmmClientContext6IsP0xxE24GMM_RESOURCE_FORMAT_ENUM
libigdgmm.so.5:_ZN6GmmLib16GmmClientContext8IsPlanarE24GMM_RESOURCE_FORMAT_ENUM
libigdgmm.so.5:_ZN6GmmLib16GmmClientContext9ResMemcpyEPvS1_
libigdgmm.so.5:_ZN6GmmLib16GmmClientContextC1E15GMM_CLIENT_ENUM
libigdgmm.so.5:_ZN6GmmLib16GmmClientContextC2E15GMM_CLIENT_ENUM
libigdgmm.so.5:_ZN6GmmLib16GmmClientContextD0Ev
libigdgmm.so.5:_ZN6GmmLib16GmmClientContextD1Ev
libigdgmm.so.5:_ZN6GmmLib16GmmClientContextD2Ev
libigdgmm.so.5:_ZN6GmmLib21GmmResourceInfoCommon11GetMipDepthEj
libigdgmm.so.5:_ZN6GmmLib21GmmResourceInfoCommon11GetMipWidthEj
libigdgmm.so.5:_ZN6GmmLib21GmmResourceInfoCommon12GetMipHeightEj
libigdgmm.so.5:_ZN6GmmLib21GmmResourceInfoCommon14GetPaddedPitchEj
libigdgmm.so.5:_ZN6GmmLib21GmmResourceInfoCommon14GetPaddedWidthEj
libigdgmm.so.5:_ZN6GmmLib21GmmResourceInfoCommon14ValidateParamsEv
libigdgmm.so.5:_ZN6GmmLib21GmmResourceInfoCommon15GetPaddedHeightEj
libigdgmm.so.5:_ZN6GmmLib21GmmResourceInfoCommon15GetPlatformInfoEv
libigdgmm.so.5:_ZN6GmmLib21GmmResourceInfoCommon15GetRestrictionsER21__GMM_BUFFER_TYPE_REC
libigdgmm.so.5:_ZN6GmmLib21GmmResourceInfoCommon16CopyClientParamsER24GMM_RESCREATE_PARAMS_REC
libigdgmm.so.5:_ZN6GmmLib21GmmResourceInfoCommon16RedescribePlanesEv
libigdgmm.so.5:_ZN6GmmLib21GmmResourceInfoCommon17GetFastClearWidthEj
libigdgmm.so.5:_ZN6GmmLib21GmmResourceInfoCommon18GetFastClearHeightEj
libigdgmm.so.5:_ZN6GmmLib21GmmResourceInfoCommon18GetMappingSpanDescEP19GMM_GET_MAPPING_REC
libigdgmm.so.5:_ZN6GmmLib21GmmResourceInfoCommon18Is64KBPageSuitableEv
libigdgmm.so.5:_ZN6GmmLib21GmmResourceInfoCommon19GetBestRestrictionsEP21__GMM_BUFFER_TYPE_RECPKS1_
libigdgmm.so.5:_ZN6GmmLib21GmmResourceInfoCommon19IsPresentableformatEv
libigdgmm.so.5:_ZN6GmmLib21GmmResourceInfoCommon22GetGenericRestrictionsEP21__GMM_BUFFER_TYPE_REC
libigdgmm.so.5:_ZN6GmmLib21GmmResourceInfoCommon23IsArraySpacingSingleLodEv
libigdgmm.so.5:_ZN6GmmLib21GmmResourceInfoCommon23ReAdjustPlanePropertiesEb
libigdgmm.so.5:_ZN6GmmLib21GmmResourceInfoCommon24GetCompressionBlockDepthEv
libigdgmm.so.5:_ZN6GmmLib21GmmResourceInfoCommon24GetCompressionBlockWidthEv
libigdgmm.so.5:_ZN6GmmLib21GmmResourceInfoCommon24GetPackedMipTailStartLodEv
libigdgmm.so.5:_ZN6GmmLib21GmmResourceInfoCommon25GetCompressionBlockHeightEv
libigdgmm.so.5:_ZN6GmmLib21GmmResourceInfoCommon26GetDisplayFastClearSupportEv
libigdgmm.so.5:_ZN6GmmLib21GmmResourceInfoCommon26GetTiledResourceMipPackingEPjS1_
libigdgmm.so.5:_ZN6GmmLib21GmmResourceInfoCommon28GetDisplayCompressionSupportEv
libigdgmm.so.5:_ZN6GmmLib21GmmResourceInfoCommon29GetResourceFormatSurfaceStateEv
libigdgmm.so.5:_ZN6GmmLib21GmmResourceInfoCommon31ApplyExistingSysMemRestrictionsEv
libigdgmm.so.5:_ZN6GmmLib21GmmResourceInfoCommon31GetStdTilingModeExtSurfaceStateEv
libigdgmm.so.5:_ZN6GmmLib21GmmResourceInfoCommon6CpuBltEP20GMM_RES_COPY_BLT_REC
libigdgmm.so.5:_ZN6GmmLib21GmmResourceInfoCommon6CreateER24GMM_RESCREATE_PARAMS_REC
libigdgmm.so.5:_ZN6GmmLib21GmmResourceInfoCommon6CreateERNS_7ContextER24GMM_RESCREATE_PARAMS_REC
libigdgmm.so.5:_ZN6GmmLib21GmmResourceInfoCommon6IsASTCEv
libigdgmm.so.5:_ZN6GmmLib21GmmResourceInfoCommon7GetMOCSEv
libigdgmm.so.5:_ZN6GmmLib21GmmResourceInfoCommon9GetOffsetER23GMM_REQ_OFFSET_INFO_REC
libigdgmm.so.5:_ZN6GmmLib21GmmResourceInfoCommon9GetQPitchEv
