librevenge-0.0.so.0:_ZN10librevenge10RVNGString16appendEscapedXMLEPKc
librevenge-0.0.so.0:_ZN10librevenge10RVNGString16appendEscapedXMLERKS0_
librevenge-0.0.so.0:_ZN10librevenge10RVNGString4Iter4lastEv
librevenge-0.0.so.0:_ZN10librevenge10RVNGString4Iter4nextEv
librevenge-0.0.so.0:_ZN10librevenge10RVNGString4Iter6rewindEv
librevenge-0.0.so.0:_ZN10librevenge10RVNGString4IterC1ERKS0_
librevenge-0.0.so.0:_ZN10librevenge10RVNGString4IterC2ERKS0_
librevenge-0.0.so.0:_ZN10librevenge10RVNGString4IterD0Ev
librevenge-0.0.so.0:_ZN10librevenge10RVNGString4IterD1Ev
librevenge-0.0.so.0:_ZN10librevenge10RVNGString4IterD2Ev
librevenge-0.0.so.0:_ZN10librevenge10RVNGString5clearEv
librevenge-0.0.so.0:_ZN10librevenge10RVNGString6appendEPKc
librevenge-0.0.so.0:_ZN10librevenge10RVNGString6appendERKS0_
librevenge-0.0.so.0:_ZN10librevenge10RVNGString6appendEc
librevenge-0.0.so.0:_ZN10librevenge10RVNGString7sprintfEPKcz
librevenge-0.0.so.0:_ZN10librevenge10RVNGString9escapeXMLEPKc
librevenge-0.0.so.0:_ZN10librevenge10RVNGString9escapeXMLERKS0_
librevenge-0.0.so.0:_ZN10librevenge10RVNGStringC1EPKc
librevenge-0.0.so.0:_ZN10librevenge10RVNGStringC1ERKS0_
librevenge-0.0.so.0:_ZN10librevenge10RVNGStringC1Ev
librevenge-0.0.so.0:_ZN10librevenge10RVNGStringC2EPKc
librevenge-0.0.so.0:_ZN10librevenge10RVNGStringC2ERKS0_
librevenge-0.0.so.0:_ZN10librevenge10RVNGStringC2Ev
librevenge-0.0.so.0:_ZN10librevenge10RVNGStringD1Ev
librevenge-0.0.so.0:_ZN10librevenge10RVNGStringD2Ev
librevenge-0.0.so.0:_ZN10librevenge10RVNGStringaSEPKc
librevenge-0.0.so.0:_ZN10librevenge10RVNGStringaSERKS0_
librevenge-0.0.so.0:_ZN10librevenge12RVNGPropertyD0Ev
librevenge-0.0.so.0:_ZN10librevenge12RVNGPropertyD1Ev
librevenge-0.0.so.0:_ZN10librevenge12RVNGPropertyD2Ev
librevenge-0.0.so.0:_ZN10librevenge14RVNGBinaryData16appendBase64DataEPKc
librevenge-0.0.so.0:_ZN10librevenge14RVNGBinaryData16appendBase64DataERKNS_10RVNGStringE
librevenge-0.0.so.0:_ZN10librevenge14RVNGBinaryData5clearEv
librevenge-0.0.so.0:_ZN10librevenge14RVNGBinaryData6appendEPKhm
librevenge-0.0.so.0:_ZN10librevenge14RVNGBinaryData6appendERKS0_
librevenge-0.0.so.0:_ZN10librevenge14RVNGBinaryData6appendEh
librevenge-0.0.so.0:_ZN10librevenge14RVNGBinaryDataC1EPKc
librevenge-0.0.so.0:_ZN10librevenge14RVNGBinaryDataC1EPKhm
librevenge-0.0.so.0:_ZN10librevenge14RVNGBinaryDataC1ERKNS_10RVNGStringE
librevenge-0.0.so.0:_ZN10librevenge14RVNGBinaryDataC1ERKS0_
librevenge-0.0.so.0:_ZN10librevenge14RVNGBinaryDataC1Ev
librevenge-0.0.so.0:_ZN10librevenge14RVNGBinaryDataC2EPKc
librevenge-0.0.so.0:_ZN10librevenge14RVNGBinaryDataC2EPKhm
librevenge-0.0.so.0:_ZN10librevenge14RVNGBinaryDataC2ERKNS_10RVNGStringE
librevenge-0.0.so.0:_ZN10librevenge14RVNGBinaryDataC2ERKS0_
librevenge-0.0.so.0:_ZN10librevenge14RVNGBinaryDataC2Ev
librevenge-0.0.so.0:_ZN10librevenge14RVNGBinaryDataD1Ev
librevenge-0.0.so.0:_ZN10librevenge14RVNGBinaryDataD2Ev
librevenge-0.0.so.0:_ZN10librevenge14RVNGBinaryDataaSERKS0_
librevenge-0.0.so.0:_ZN10librevenge16RVNGPropertyList4Iter4lastEv
librevenge-0.0.so.0:_ZN10librevenge16RVNGPropertyList4Iter4nextEv
librevenge-0.0.so.0:_ZN10librevenge16RVNGPropertyList4Iter6rewindEv
librevenge-0.0.so.0:_ZN10librevenge16RVNGPropertyList4IterC1ERKS0_
librevenge-0.0.so.0:_ZN10librevenge16RVNGPropertyList4IterC2ERKS0_
librevenge-0.0.so.0:_ZN10librevenge16RVNGPropertyList4IterD0Ev
librevenge-0.0.so.0:_ZN10librevenge16RVNGPropertyList4IterD1Ev
librevenge-0.0.so.0:_ZN10librevenge16RVNGPropertyList4IterD2Ev
librevenge-0.0.so.0:_ZN10librevenge16RVNGPropertyList5clearEv
librevenge-0.0.so.0:_ZN10librevenge16RVNGPropertyList6insertEPKcPKhm
librevenge-0.0.so.0:_ZN10librevenge16RVNGPropertyList6insertEPKcPNS_12RVNGPropertyE
librevenge-0.0.so.0:_ZN10librevenge16RVNGPropertyList6insertEPKcRKNS_10RVNGStringE
librevenge-0.0.so.0:_ZN10librevenge16RVNGPropertyList6insertEPKcRKNS_14RVNGBinaryDataE
librevenge-0.0.so.0:_ZN10librevenge16RVNGPropertyList6insertEPKcRKNS_22RVNGPropertyListVectorE
librevenge-0.0.so.0:_ZN10librevenge16RVNGPropertyList6insertEPKcS2_
librevenge-0.0.so.0:_ZN10librevenge16RVNGPropertyList6insertEPKcb
librevenge-0.0.so.0:_ZN10librevenge16RVNGPropertyList6insertEPKcdNS_8RVNGUnitE
librevenge-0.0.so.0:_ZN10librevenge16RVNGPropertyList6insertEPKci
librevenge-0.0.so.0:_ZN10librevenge16RVNGPropertyList6removeEPKc
librevenge-0.0.so.0:_ZN10librevenge16RVNGPropertyListC1ERKS0_
librevenge-0.0.so.0:_ZN10librevenge16RVNGPropertyListC1Ev
librevenge-0.0.so.0:_ZN10librevenge16RVNGPropertyListC2ERKS0_
librevenge-0.0.so.0:_ZN10librevenge16RVNGPropertyListC2Ev
librevenge-0.0.so.0:_ZN10librevenge16RVNGPropertyListD0Ev
librevenge-0.0.so.0:_ZN10librevenge16RVNGPropertyListD1Ev
librevenge-0.0.so.0:_ZN10librevenge16RVNGPropertyListD2Ev
librevenge-0.0.so.0:_ZN10librevenge16RVNGPropertyListaSERKS0_
librevenge-0.0.so.0:_ZN10librevenge16RVNGStringVector5clearEv
librevenge-0.0.so.0:_ZN10librevenge16RVNGStringVector6appendERKNS_10RVNGStringE
librevenge-0.0.so.0:_ZN10librevenge16RVNGStringVectorC1ERKS0_
librevenge-0.0.so.0:_ZN10librevenge16RVNGStringVectorC1Ev
librevenge-0.0.so.0:_ZN10librevenge16RVNGStringVectorC2ERKS0_
librevenge-0.0.so.0:_ZN10librevenge16RVNGStringVectorC2Ev
librevenge-0.0.so.0:_ZN10librevenge16RVNGStringVectorD1Ev
librevenge-0.0.so.0:_ZN10librevenge16RVNGStringVectorD2Ev
librevenge-0.0.so.0:_ZN10librevenge16RVNGStringVectoraSERKS0_
librevenge-0.0.so.0:_ZN10librevenge19RVNGPropertyFactory10newIntPropEi
librevenge-0.0.so.0:_ZN10librevenge19RVNGPropertyFactory11newBoolPropEb
librevenge-0.0.so.0:_ZN10librevenge19RVNGPropertyFactory11newInchPropEd
librevenge-0.0.so.0:_ZN10librevenge19RVNGPropertyFactory11newTwipPropEd
librevenge-0.0.so.0:_ZN10librevenge19RVNGPropertyFactory12newPointPropEd
librevenge-0.0.so.0:_ZN10librevenge19RVNGPropertyFactory13newDoublePropEd
librevenge-0.0.so.0:_ZN10librevenge19RVNGPropertyFactory13newStringPropEPKc
librevenge-0.0.so.0:_ZN10librevenge19RVNGPropertyFactory13newStringPropERKNS_10RVNGStringE
librevenge-0.0.so.0:_ZN10librevenge19RVNGPropertyFactory14newPercentPropEd
librevenge-0.0.so.0:_ZN10librevenge19RVNGPropertyFactory17newBinaryDataPropEPKhm
librevenge-0.0.so.0:_ZN10librevenge19RVNGPropertyFactory17newBinaryDataPropERKNS_14RVNGBinaryDataE
librevenge-0.0.so.0:_ZN10librevenge22RVNGPropertyListVector4Iter4lastEv
librevenge-0.0.so.0:_ZN10librevenge22RVNGPropertyListVector4Iter4nextEv
librevenge-0.0.so.0:_ZN10librevenge22RVNGPropertyListVector4Iter6rewindEv
librevenge-0.0.so.0:_ZN10librevenge22RVNGPropertyListVector4IterC1ERKS0_
librevenge-0.0.so.0:_ZN10librevenge22RVNGPropertyListVector4IterC2ERKS0_
librevenge-0.0.so.0:_ZN10librevenge22RVNGPropertyListVector4IterD0Ev
librevenge-0.0.so.0:_ZN10librevenge22RVNGPropertyListVector4IterD1Ev
librevenge-0.0.so.0:_ZN10librevenge22RVNGPropertyListVector4IterD2Ev
librevenge-0.0.so.0:_ZN10librevenge22RVNGPropertyListVector5clearEv
librevenge-0.0.so.0:_ZN10librevenge22RVNGPropertyListVector6appendERKNS_16RVNGPropertyListE
librevenge-0.0.so.0:_ZN10librevenge22RVNGPropertyListVector6appendERKS0_
librevenge-0.0.so.0:_ZN10librevenge22RVNGPropertyListVectorC1ERKS0_
librevenge-0.0.so.0:_ZN10librevenge22RVNGPropertyListVectorC1Ev
librevenge-0.0.so.0:_ZN10librevenge22RVNGPropertyListVectorC2ERKS0_
librevenge-0.0.so.0:_ZN10librevenge22RVNGPropertyListVectorC2Ev
librevenge-0.0.so.0:_ZN10librevenge22RVNGPropertyListVectorD0Ev
librevenge-0.0.so.0:_ZN10librevenge22RVNGPropertyListVectorD1Ev
librevenge-0.0.so.0:_ZN10librevenge22RVNGPropertyListVectorD2Ev
librevenge-0.0.so.0:_ZN10librevenge22RVNGPropertyListVectoraSERKS0_
librevenge-0.0.so.0:_ZN10librevenge23RVNGSVGDrawingGenerator10closeGroupEv
librevenge-0.0.so.0:_ZN10librevenge23RVNGSVGDrawingGenerator10insertTextERKNS_10RVNGStringE
librevenge-0.0.so.0:_ZN10librevenge23RVNGSVGDrawingGenerator10startLayerERKNS_16RVNGPropertyListE
librevenge-0.0.so.0:_ZN10librevenge23RVNGSVGDrawingGenerator11drawEllipseERKNS_16RVNGPropertyListE
librevenge-0.0.so.0:_ZN10librevenge23RVNGSVGDrawingGenerator11drawPolygonERKNS_16RVNGPropertyListE
librevenge-0.0.so.0:_ZN10librevenge23RVNGSVGDrawingGenerator11endDocumentEv
librevenge-0.0.so.0:_ZN10librevenge23RVNGSVGDrawingGenerator11insertFieldERKNS_16RVNGPropertyListE
librevenge-0.0.so.0:_ZN10librevenge23RVNGSVGDrawingGenerator11insertSpaceEv
librevenge-0.0.so.0:_ZN10librevenge23RVNGSVGDrawingGenerator12drawPolylineERKNS_16RVNGPropertyListE
librevenge-0.0.so.0:_ZN10librevenge23RVNGSVGDrawingGenerator12openTableRowERKNS_16RVNGPropertyListE
librevenge-0.0.so.0:_ZN10librevenge23RVNGSVGDrawingGenerator13closeTableRowEv
librevenge-0.0.so.0:_ZN10librevenge23RVNGSVGDrawingGenerator13drawConnectorERKNS_16RVNGPropertyListE
librevenge-0.0.so.0:_ZN10librevenge23RVNGSVGDrawingGenerator13drawRectangleERKNS_16RVNGPropertyListE
librevenge-0.0.so.0:_ZN10librevenge23RVNGSVGDrawingGenerator13endMasterPageEv
librevenge-0.0.so.0:_ZN10librevenge23RVNGSVGDrawingGenerator13endTextObjectEv
librevenge-0.0.so.0:_ZN10librevenge23RVNGSVGDrawingGenerator13openParagraphERKNS_16RVNGPropertyListE
librevenge-0.0.so.0:_ZN10librevenge23RVNGSVGDrawingGenerator13openTableCellERKNS_16RVNGPropertyListE
librevenge-0.0.so.0:_ZN10librevenge23RVNGSVGDrawingGenerator13startDocumentERKNS_16RVNGPropertyListE
librevenge-0.0.so.0:_ZN10librevenge23RVNGSVGDrawingGenerator14closeParagraphEv
librevenge-0.0.so.0:_ZN10librevenge23RVNGSVGDrawingGenerator14closeTableCellEv
librevenge-0.0.so.0:_ZN10librevenge23RVNGSVGDrawingGenerator14endTableObjectEv
librevenge-0.0.so.0:_ZN10librevenge23RVNGSVGDrawingGenerator15insertLineBreakEv
librevenge-0.0.so.0:_ZN10librevenge23RVNGSVGDrawingGenerator15openListElementERKNS_16RVNGPropertyListE
librevenge-0.0.so.0:_ZN10librevenge23RVNGSVGDrawingGenerator15startMasterPageERKNS_16RVNGPropertyListE
librevenge-0.0.so.0:_ZN10librevenge23RVNGSVGDrawingGenerator15startTextObjectERKNS_16RVNGPropertyListE
librevenge-0.0.so.0:_ZN10librevenge23RVNGSVGDrawingGenerator16closeListElementEv
librevenge-0.0.so.0:_ZN10librevenge23RVNGSVGDrawingGenerator16startTableObjectERKNS_16RVNGPropertyListE
librevenge-0.0.so.0:_ZN10librevenge23RVNGSVGDrawingGenerator17drawGraphicObjectERKNS_16RVNGPropertyListE
librevenge-0.0.so.0:_ZN10librevenge23RVNGSVGDrawingGenerator18defineEmbeddedFontERKNS_16RVNGPropertyListE
librevenge-0.0.so.0:_ZN10librevenge23RVNGSVGDrawingGenerator19endEmbeddedGraphicsEv
librevenge-0.0.so.0:_ZN10librevenge23RVNGSVGDrawingGenerator19setDocumentMetaDataERKNS_16RVNGPropertyListE
librevenge-0.0.so.0:_ZN10librevenge23RVNGSVGDrawingGenerator20defineCharacterStyleERKNS_16RVNGPropertyListE
librevenge-0.0.so.0:_ZN10librevenge23RVNGSVGDrawingGenerator20defineParagraphStyleERKNS_16RVNGPropertyListE
librevenge-0.0.so.0:_ZN10librevenge23RVNGSVGDrawingGenerator20openOrderedListLevelERKNS_16RVNGPropertyListE
librevenge-0.0.so.0:_ZN10librevenge23RVNGSVGDrawingGenerator21closeOrderedListLevelEv
librevenge-0.0.so.0:_ZN10librevenge23RVNGSVGDrawingGenerator21startEmbeddedGraphicsERKNS_16RVNGPropertyListE
librevenge-0.0.so.0:_ZN10librevenge23RVNGSVGDrawingGenerator22insertCoveredTableCellERKNS_16RVNGPropertyListE
librevenge-0.0.so.0:_ZN10librevenge23RVNGSVGDrawingGenerator22openUnorderedListLevelERKNS_16RVNGPropertyListE
librevenge-0.0.so.0:_ZN10librevenge23RVNGSVGDrawingGenerator23closeUnorderedListLevelEv
librevenge-0.0.so.0:_ZN10librevenge23RVNGSVGDrawingGenerator7endPageEv
librevenge-0.0.so.0:_ZN10librevenge23RVNGSVGDrawingGenerator8drawPathERKNS_16RVNGPropertyListE
librevenge-0.0.so.0:_ZN10librevenge23RVNGSVGDrawingGenerator8endLayerEv
librevenge-0.0.so.0:_ZN10librevenge23RVNGSVGDrawingGenerator8openLinkERKNS_16RVNGPropertyListE
librevenge-0.0.so.0:_ZN10librevenge23RVNGSVGDrawingGenerator8openSpanERKNS_16RVNGPropertyListE
librevenge-0.0.so.0:_ZN10librevenge23RVNGSVGDrawingGenerator8setStyleERKNS_16RVNGPropertyListE
librevenge-0.0.so.0:_ZN10librevenge23RVNGSVGDrawingGenerator9closeLinkEv
librevenge-0.0.so.0:_ZN10librevenge23RVNGSVGDrawingGenerator9closeSpanEv
librevenge-0.0.so.0:_ZN10librevenge23RVNGSVGDrawingGenerator9insertTabEv
librevenge-0.0.so.0:_ZN10librevenge23RVNGSVGDrawingGenerator9openGroupERKNS_16RVNGPropertyListE
librevenge-0.0.so.0:_ZN10librevenge23RVNGSVGDrawingGenerator9startPageERKNS_16RVNGPropertyListE
librevenge-0.0.so.0:_ZN10librevenge23RVNGSVGDrawingGeneratorC1ERNS_16RVNGStringVectorERKNS_10RVNGStringE
librevenge-0.0.so.0:_ZN10librevenge23RVNGSVGDrawingGeneratorC2ERNS_16RVNGStringVectorERKNS_10RVNGStringE
librevenge-0.0.so.0:_ZN10librevenge23RVNGSVGDrawingGeneratorD0Ev
librevenge-0.0.so.0:_ZN10librevenge23RVNGSVGDrawingGeneratorD1Ev
librevenge-0.0.so.0:_ZN10librevenge23RVNGSVGDrawingGeneratorD2Ev
librevenge-0.0.so.0:_ZNK10librevenge10RVNGString3lenEv
librevenge-0.0.so.0:_ZNK10librevenge10RVNGString4IterclEv
librevenge-0.0.so.0:_ZNK10librevenge10RVNGString4cstrEv
librevenge-0.0.so.0:_ZNK10librevenge10RVNGString4sizeEv
librevenge-0.0.so.0:_ZNK10librevenge10RVNGString5emptyEv
librevenge-0.0.so.0:_ZNK10librevenge10RVNGStringeqEPKc
librevenge-0.0.so.0:_ZNK10librevenge10RVNGStringeqERKS0_
librevenge-0.0.so.0:_ZNK10librevenge10RVNGStringltEPKc
librevenge-0.0.so.0:_ZNK10librevenge10RVNGStringltERKS0_
librevenge-0.0.so.0:_ZNK10librevenge14RVNGBinaryData13getBase64DataEv
librevenge-0.0.so.0:_ZNK10librevenge14RVNGBinaryData13getDataBufferEv
librevenge-0.0.so.0:_ZNK10librevenge14RVNGBinaryData13getDataStreamEv
librevenge-0.0.so.0:_ZNK10librevenge14RVNGBinaryData4sizeEv
librevenge-0.0.so.0:_ZNK10librevenge14RVNGBinaryData5emptyEv
librevenge-0.0.so.0:_ZNK10librevenge16RVNGPropertyList13getPropStringEv
librevenge-0.0.so.0:_ZNK10librevenge16RVNGPropertyList4Iter3keyEv
librevenge-0.0.so.0:_ZNK10librevenge16RVNGPropertyList4Iter5childEv
librevenge-0.0.so.0:_ZNK10librevenge16RVNGPropertyList4IterclEv
librevenge-0.0.so.0:_ZNK10librevenge16RVNGPropertyList5childEPKc
librevenge-0.0.so.0:_ZNK10librevenge16RVNGPropertyList5emptyEv
librevenge-0.0.so.0:_ZNK10librevenge16RVNGPropertyListixEPKc
librevenge-0.0.so.0:_ZNK10librevenge16RVNGStringVector4sizeEv
librevenge-0.0.so.0:_ZNK10librevenge16RVNGStringVector5emptyEv
librevenge-0.0.so.0:_ZNK10librevenge16RVNGStringVectorixEj
librevenge-0.0.so.0:_ZNK10librevenge22RVNGPropertyListVector13getPropStringEv
librevenge-0.0.so.0:_ZNK10librevenge22RVNGPropertyListVector4IterclEv
librevenge-0.0.so.0:_ZNK10librevenge22RVNGPropertyListVector5cloneEv
librevenge-0.0.so.0:_ZNK10librevenge22RVNGPropertyListVector5countEv
librevenge-0.0.so.0:_ZNK10librevenge22RVNGPropertyListVector5emptyEv
librevenge-0.0.so.0:_ZNK10librevenge22RVNGPropertyListVector6getIntEv
librevenge-0.0.so.0:_ZNK10librevenge22RVNGPropertyListVector6getStrEv
librevenge-0.0.so.0:_ZNK10librevenge22RVNGPropertyListVector7getUnitEv
librevenge-0.0.so.0:_ZNK10librevenge22RVNGPropertyListVector9getDoubleEv
librevenge-0.0.so.0:_ZNK10librevenge22RVNGPropertyListVectorixEm
librevenge-generators-0.0.so.0:_ZN10librevenge20RVNGRawTextGenerator10closeFrameEv
librevenge-generators-0.0.so.0:_ZN10librevenge20RVNGRawTextGenerator10closeGroupEv
librevenge-generators-0.0.so.0:_ZN10librevenge20RVNGRawTextGenerator10closeTableEv
librevenge-generators-0.0.so.0:_ZN10librevenge20RVNGRawTextGenerator10insertTextERKNS_10RVNGStringE
librevenge-generators-0.0.so.0:_ZN10librevenge20RVNGRawTextGenerator10openFooterERKNS_16RVNGPropertyListE
librevenge-generators-0.0.so.0:_ZN10librevenge20RVNGRawTextGenerator10openHeaderERKNS_16RVNGPropertyListE
librevenge-generators-0.0.so.0:_ZN10librevenge20RVNGRawTextGenerator11closeFooterEv
librevenge-generators-0.0.so.0:_ZN10librevenge20RVNGRawTextGenerator11closeHeaderEv
librevenge-generators-0.0.so.0:_ZN10librevenge20RVNGRawTextGenerator11drawEllipseERKNS_16RVNGPropertyListE
librevenge-generators-0.0.so.0:_ZN10librevenge20RVNGRawTextGenerator11drawPolygonERKNS_16RVNGPropertyListE
librevenge-generators-0.0.so.0:_ZN10librevenge20RVNGRawTextGenerator11endDocumentEv
librevenge-generators-0.0.so.0:_ZN10librevenge20RVNGRawTextGenerator11insertFieldERKNS_16RVNGPropertyListE
librevenge-generators-0.0.so.0:_ZN10librevenge20RVNGRawTextGenerator11insertSpaceEv
librevenge-generators-0.0.so.0:_ZN10librevenge20RVNGRawTextGenerator11openCommentERKNS_16RVNGPropertyListE
librevenge-generators-0.0.so.0:_ZN10librevenge20RVNGRawTextGenerator11openEndnoteERKNS_16RVNGPropertyListE
librevenge-generators-0.0.so.0:_ZN10librevenge20RVNGRawTextGenerator11openSectionERKNS_16RVNGPropertyListE
librevenge-generators-0.0.so.0:_ZN10librevenge20RVNGRawTextGenerator11openTextBoxERKNS_16RVNGPropertyListE
librevenge-generators-0.0.so.0:_ZN10librevenge20RVNGRawTextGenerator12closeCommentEv
librevenge-generators-0.0.so.0:_ZN10librevenge20RVNGRawTextGenerator12closeEndnoteEv
librevenge-generators-0.0.so.0:_ZN10librevenge20RVNGRawTextGenerator12closeSectionEv
librevenge-generators-0.0.so.0:_ZN10librevenge20RVNGRawTextGenerator12closeTextBoxEv
librevenge-generators-0.0.so.0:_ZN10librevenge20RVNGRawTextGenerator12drawPolylineERKNS_16RVNGPropertyListE
librevenge-generators-0.0.so.0:_ZN10librevenge20RVNGRawTextGenerator12openFootnoteERKNS_16RVNGPropertyListE
librevenge-generators-0.0.so.0:_ZN10librevenge20RVNGRawTextGenerator12openPageSpanERKNS_16RVNGPropertyListE
librevenge-generators-0.0.so.0:_ZN10librevenge20RVNGRawTextGenerator12openTableRowERKNS_16RVNGPropertyListE
librevenge-generators-0.0.so.0:_ZN10librevenge20RVNGRawTextGenerator13closeFootnoteEv
librevenge-generators-0.0.so.0:_ZN10librevenge20RVNGRawTextGenerator13closePageSpanEv
librevenge-generators-0.0.so.0:_ZN10librevenge20RVNGRawTextGenerator13closeTableRowEv
librevenge-generators-0.0.so.0:_ZN10librevenge20RVNGRawTextGenerator13drawConnectorERKNS_16RVNGPropertyListE
librevenge-generators-0.0.so.0:_ZN10librevenge20RVNGRawTextGenerator13drawRectangleERKNS_16RVNGPropertyListE
librevenge-generators-0.0.so.0:_ZN10librevenge20RVNGRawTextGenerator13openParagraphERKNS_16RVNGPropertyListE
librevenge-generators-0.0.so.0:_ZN10librevenge20RVNGRawTextGenerator13openTableCellERKNS_16RVNGPropertyListE
librevenge-generators-0.0.so.0:_ZN10librevenge20RVNGRawTextGenerator13startDocumentERKNS_16RVNGPropertyListE
librevenge-generators-0.0.so.0:_ZN10librevenge20RVNGRawTextGenerator14closeParagraphEv
librevenge-generators-0.0.so.0:_ZN10librevenge20RVNGRawTextGenerator14closeTableCellEv
librevenge-generators-0.0.so.0:_ZN10librevenge20RVNGRawTextGenerator14insertEquationERKNS_16RVNGPropertyListE
librevenge-generators-0.0.so.0:_ZN10librevenge20RVNGRawTextGenerator15definePageStyleERKNS_16RVNGPropertyListE
librevenge-generators-0.0.so.0:_ZN10librevenge20RVNGRawTextGenerator15insertLineBreakEv
librevenge-generators-0.0.so.0:_ZN10librevenge20RVNGRawTextGenerator15openListElementERKNS_16RVNGPropertyListE
librevenge-generators-0.0.so.0:_ZN10librevenge20RVNGRawTextGenerator16closeListElementEv
librevenge-generators-0.0.so.0:_ZN10librevenge20RVNGRawTextGenerator18defineEmbeddedFontERKNS_16RVNGPropertyListE
librevenge-generators-0.0.so.0:_ZN10librevenge20RVNGRawTextGenerator18defineGraphicStyleERKNS_16RVNGPropertyListE
librevenge-generators-0.0.so.0:_ZN10librevenge20RVNGRawTextGenerator18defineSectionStyleERKNS_16RVNGPropertyListE
librevenge-generators-0.0.so.0:_ZN10librevenge20RVNGRawTextGenerator18insertBinaryObjectERKNS_16RVNGPropertyListE
librevenge-generators-0.0.so.0:_ZN10librevenge20RVNGRawTextGenerator19setDocumentMetaDataERKNS_16RVNGPropertyListE
librevenge-generators-0.0.so.0:_ZN10librevenge20RVNGRawTextGenerator20defineCharacterStyleERKNS_16RVNGPropertyListE
librevenge-generators-0.0.so.0:_ZN10librevenge20RVNGRawTextGenerator20defineParagraphStyleERKNS_16RVNGPropertyListE
librevenge-generators-0.0.so.0:_ZN10librevenge20RVNGRawTextGenerator20openOrderedListLevelERKNS_16RVNGPropertyListE
librevenge-generators-0.0.so.0:_ZN10librevenge20RVNGRawTextGenerator21closeOrderedListLevelEv
librevenge-generators-0.0.so.0:_ZN10librevenge20RVNGRawTextGenerator22insertCoveredTableCellERKNS_16RVNGPropertyListE
librevenge-generators-0.0.so.0:_ZN10librevenge20RVNGRawTextGenerator22openUnorderedListLevelERKNS_16RVNGPropertyListE
librevenge-generators-0.0.so.0:_ZN10librevenge20RVNGRawTextGenerator23closeUnorderedListLevelEv
librevenge-generators-0.0.so.0:_ZN10librevenge20RVNGRawTextGenerator8drawPathERKNS_16RVNGPropertyListE
librevenge-generators-0.0.so.0:_ZN10librevenge20RVNGRawTextGenerator8openLinkERKNS_16RVNGPropertyListE
librevenge-generators-0.0.so.0:_ZN10librevenge20RVNGRawTextGenerator8openSpanERKNS_16RVNGPropertyListE
librevenge-generators-0.0.so.0:_ZN10librevenge20RVNGRawTextGenerator9closeLinkEv
librevenge-generators-0.0.so.0:_ZN10librevenge20RVNGRawTextGenerator9closeSpanEv
librevenge-generators-0.0.so.0:_ZN10librevenge20RVNGRawTextGenerator9insertTabEv
librevenge-generators-0.0.so.0:_ZN10librevenge20RVNGRawTextGenerator9openFrameERKNS_16RVNGPropertyListE
librevenge-generators-0.0.so.0:_ZN10librevenge20RVNGRawTextGenerator9openGroupERKNS_16RVNGPropertyListE
librevenge-generators-0.0.so.0:_ZN10librevenge20RVNGRawTextGenerator9openTableERKNS_16RVNGPropertyListE
librevenge-generators-0.0.so.0:_ZN10librevenge20RVNGRawTextGeneratorC1Eb
librevenge-generators-0.0.so.0:_ZN10librevenge20RVNGRawTextGeneratorC2Eb
librevenge-generators-0.0.so.0:_ZN10librevenge20RVNGRawTextGeneratorD0Ev
librevenge-generators-0.0.so.0:_ZN10librevenge20RVNGRawTextGeneratorD1Ev
librevenge-generators-0.0.so.0:_ZN10librevenge20RVNGRawTextGeneratorD2Ev
librevenge-generators-0.0.so.0:_ZN10librevenge21RVNGHTMLTextGenerator10closeFrameEv
librevenge-generators-0.0.so.0:_ZN10librevenge21RVNGHTMLTextGenerator10closeGroupEv
librevenge-generators-0.0.so.0:_ZN10librevenge21RVNGHTMLTextGenerator10closeTableEv
librevenge-generators-0.0.so.0:_ZN10librevenge21RVNGHTMLTextGenerator10insertTextERKNS_10RVNGStringE
librevenge-generators-0.0.so.0:_ZN10librevenge21RVNGHTMLTextGenerator10openFooterERKNS_16RVNGPropertyListE
librevenge-generators-0.0.so.0:_ZN10librevenge21RVNGHTMLTextGenerator10openHeaderERKNS_16RVNGPropertyListE
librevenge-generators-0.0.so.0:_ZN10librevenge21RVNGHTMLTextGenerator11closeFooterEv
librevenge-generators-0.0.so.0:_ZN10librevenge21RVNGHTMLTextGenerator11closeHeaderEv
librevenge-generators-0.0.so.0:_ZN10librevenge21RVNGHTMLTextGenerator11drawEllipseERKNS_16RVNGPropertyListE
librevenge-generators-0.0.so.0:_ZN10librevenge21RVNGHTMLTextGenerator11drawPolygonERKNS_16RVNGPropertyListE
librevenge-generators-0.0.so.0:_ZN10librevenge21RVNGHTMLTextGenerator11endDocumentEv
librevenge-generators-0.0.so.0:_ZN10librevenge21RVNGHTMLTextGenerator11insertFieldERKNS_16RVNGPropertyListE
librevenge-generators-0.0.so.0:_ZN10librevenge21RVNGHTMLTextGenerator11insertSpaceEv
librevenge-generators-0.0.so.0:_ZN10librevenge21RVNGHTMLTextGenerator11openCommentERKNS_16RVNGPropertyListE
librevenge-generators-0.0.so.0:_ZN10librevenge21RVNGHTMLTextGenerator11openEndnoteERKNS_16RVNGPropertyListE
librevenge-generators-0.0.so.0:_ZN10librevenge21RVNGHTMLTextGenerator11openSectionERKNS_16RVNGPropertyListE
librevenge-generators-0.0.so.0:_ZN10librevenge21RVNGHTMLTextGenerator11openTextBoxERKNS_16RVNGPropertyListE
librevenge-generators-0.0.so.0:_ZN10librevenge21RVNGHTMLTextGenerator12closeCommentEv
librevenge-generators-0.0.so.0:_ZN10librevenge21RVNGHTMLTextGenerator12closeEndnoteEv
librevenge-generators-0.0.so.0:_ZN10librevenge21RVNGHTMLTextGenerator12closeSectionEv
librevenge-generators-0.0.so.0:_ZN10librevenge21RVNGHTMLTextGenerator12closeTextBoxEv
librevenge-generators-0.0.so.0:_ZN10librevenge21RVNGHTMLTextGenerator12drawPolylineERKNS_16RVNGPropertyListE
librevenge-generators-0.0.so.0:_ZN10librevenge21RVNGHTMLTextGenerator12openFootnoteERKNS_16RVNGPropertyListE
librevenge-generators-0.0.so.0:_ZN10librevenge21RVNGHTMLTextGenerator12openPageSpanERKNS_16RVNGPropertyListE
librevenge-generators-0.0.so.0:_ZN10librevenge21RVNGHTMLTextGenerator12openTableRowERKNS_16RVNGPropertyListE
librevenge-generators-0.0.so.0:_ZN10librevenge21RVNGHTMLTextGenerator13closeFootnoteEv
librevenge-generators-0.0.so.0:_ZN10librevenge21RVNGHTMLTextGenerator13closePageSpanEv
librevenge-generators-0.0.so.0:_ZN10librevenge21RVNGHTMLTextGenerator13closeTableRowEv
librevenge-generators-0.0.so.0:_ZN10librevenge21RVNGHTMLTextGenerator13drawConnectorERKNS_16RVNGPropertyListE
librevenge-generators-0.0.so.0:_ZN10librevenge21RVNGHTMLTextGenerator13drawRectangleERKNS_16RVNGPropertyListE
librevenge-generators-0.0.so.0:_ZN10librevenge21RVNGHTMLTextGenerator13openParagraphERKNS_16RVNGPropertyListE
librevenge-generators-0.0.so.0:_ZN10librevenge21RVNGHTMLTextGenerator13openTableCellERKNS_16RVNGPropertyListE
librevenge-generators-0.0.so.0:_ZN10librevenge21RVNGHTMLTextGenerator13startDocumentERKNS_16RVNGPropertyListE
librevenge-generators-0.0.so.0:_ZN10librevenge21RVNGHTMLTextGenerator14closeParagraphEv
librevenge-generators-0.0.so.0:_ZN10librevenge21RVNGHTMLTextGenerator14closeTableCellEv
librevenge-generators-0.0.so.0:_ZN10librevenge21RVNGHTMLTextGenerator14insertEquationERKNS_16RVNGPropertyListE
librevenge-generators-0.0.so.0:_ZN10librevenge21RVNGHTMLTextGenerator15definePageStyleERKNS_16RVNGPropertyListE
librevenge-generators-0.0.so.0:_ZN10librevenge21RVNGHTMLTextGenerator15insertLineBreakEv
librevenge-generators-0.0.so.0:_ZN10librevenge21RVNGHTMLTextGenerator15openListElementERKNS_16RVNGPropertyListE
librevenge-generators-0.0.so.0:_ZN10librevenge21RVNGHTMLTextGenerator16closeListElementEv
librevenge-generators-0.0.so.0:_ZN10librevenge21RVNGHTMLTextGenerator18defineEmbeddedFontERKNS_16RVNGPropertyListE
librevenge-generators-0.0.so.0:_ZN10librevenge21RVNGHTMLTextGenerator18defineGraphicStyleERKNS_16RVNGPropertyListE
librevenge-generators-0.0.so.0:_ZN10librevenge21RVNGHTMLTextGenerator18defineSectionStyleERKNS_16RVNGPropertyListE
librevenge-generators-0.0.so.0:_ZN10librevenge21RVNGHTMLTextGenerator18insertBinaryObjectERKNS_16RVNGPropertyListE
librevenge-generators-0.0.so.0:_ZN10librevenge21RVNGHTMLTextGenerator19setDocumentMetaDataERKNS_16RVNGPropertyListE
librevenge-generators-0.0.so.0:_ZN10librevenge21RVNGHTMLTextGenerator20defineCharacterStyleERKNS_16RVNGPropertyListE
librevenge-generators-0.0.so.0:_ZN10librevenge21RVNGHTMLTextGenerator20defineParagraphStyleERKNS_16RVNGPropertyListE
librevenge-generators-0.0.so.0:_ZN10librevenge21RVNGHTMLTextGenerator20openOrderedListLevelERKNS_16RVNGPropertyListE
librevenge-generators-0.0.so.0:_ZN10librevenge21RVNGHTMLTextGenerator21closeOrderedListLevelEv
librevenge-generators-0.0.so.0:_ZN10librevenge21RVNGHTMLTextGenerator22insertCoveredTableCellERKNS_16RVNGPropertyListE
librevenge-generators-0.0.so.0:_ZN10librevenge21RVNGHTMLTextGenerator22openUnorderedListLevelERKNS_16RVNGPropertyListE
librevenge-generators-0.0.so.0:_ZN10librevenge21RVNGHTMLTextGenerator23closeUnorderedListLevelEv
librevenge-generators-0.0.so.0:_ZN10librevenge21RVNGHTMLTextGenerator8drawPathERKNS_16RVNGPropertyListE
librevenge-generators-0.0.so.0:_ZN10librevenge21RVNGHTMLTextGenerator8openLinkERKNS_16RVNGPropertyListE
librevenge-generators-0.0.so.0:_ZN10librevenge21RVNGHTMLTextGenerator8openSpanERKNS_16RVNGPropertyListE
librevenge-generators-0.0.so.0:_ZN10librevenge21RVNGHTMLTextGenerator9closeLinkEv
librevenge-generators-0.0.so.0:_ZN10librevenge21RVNGHTMLTextGenerator9closeSpanEv
librevenge-generators-0.0.so.0:_ZN10librevenge21RVNGHTMLTextGenerator9insertTabEv
librevenge-generators-0.0.so.0:_ZN10librevenge21RVNGHTMLTextGenerator9openFrameERKNS_16RVNGPropertyListE
librevenge-generators-0.0.so.0:_ZN10librevenge21RVNGHTMLTextGenerator9openGroupERKNS_16RVNGPropertyListE
librevenge-generators-0.0.so.0:_ZN10librevenge21RVNGHTMLTextGenerator9openTableERKNS_16RVNGPropertyListE
librevenge-generators-0.0.so.0:_ZN10librevenge21RVNGHTMLTextGeneratorC1ERNS_10RVNGStringE
librevenge-generators-0.0.so.0:_ZN10librevenge21RVNGHTMLTextGeneratorC2ERNS_10RVNGStringE
librevenge-generators-0.0.so.0:_ZN10librevenge21RVNGHTMLTextGeneratorD0Ev
librevenge-generators-0.0.so.0:_ZN10librevenge21RVNGHTMLTextGeneratorD1Ev
librevenge-generators-0.0.so.0:_ZN10librevenge21RVNGHTMLTextGeneratorD2Ev
librevenge-generators-0.0.so.0:_ZN10librevenge21RVNGTextTextGenerator10closeFrameEv
librevenge-generators-0.0.so.0:_ZN10librevenge21RVNGTextTextGenerator10closeGroupEv
librevenge-generators-0.0.so.0:_ZN10librevenge21RVNGTextTextGenerator10closeTableEv
librevenge-generators-0.0.so.0:_ZN10librevenge21RVNGTextTextGenerator10insertTextERKNS_10RVNGStringE
librevenge-generators-0.0.so.0:_ZN10librevenge21RVNGTextTextGenerator10openFooterERKNS_16RVNGPropertyListE
librevenge-generators-0.0.so.0:_ZN10librevenge21RVNGTextTextGenerator10openHeaderERKNS_16RVNGPropertyListE
librevenge-generators-0.0.so.0:_ZN10librevenge21RVNGTextTextGenerator11closeFooterEv
librevenge-generators-0.0.so.0:_ZN10librevenge21RVNGTextTextGenerator11closeHeaderEv
librevenge-generators-0.0.so.0:_ZN10librevenge21RVNGTextTextGenerator11drawEllipseERKNS_16RVNGPropertyListE
librevenge-generators-0.0.so.0:_ZN10librevenge21RVNGTextTextGenerator11drawPolygonERKNS_16RVNGPropertyListE
librevenge-generators-0.0.so.0:_ZN10librevenge21RVNGTextTextGenerator11endDocumentEv
librevenge-generators-0.0.so.0:_ZN10librevenge21RVNGTextTextGenerator11insertFieldERKNS_16RVNGPropertyListE
librevenge-generators-0.0.so.0:_ZN10librevenge21RVNGTextTextGenerator11insertSpaceEv
librevenge-generators-0.0.so.0:_ZN10librevenge21RVNGTextTextGenerator11openCommentERKNS_16RVNGPropertyListE
librevenge-generators-0.0.so.0:_ZN10librevenge21RVNGTextTextGenerator11openEndnoteERKNS_16RVNGPropertyListE
librevenge-generators-0.0.so.0:_ZN10librevenge21RVNGTextTextGenerator11openSectionERKNS_16RVNGPropertyListE
librevenge-generators-0.0.so.0:_ZN10librevenge21RVNGTextTextGenerator11openTextBoxERKNS_16RVNGPropertyListE
librevenge-generators-0.0.so.0:_ZN10librevenge21RVNGTextTextGenerator12closeCommentEv
librevenge-generators-0.0.so.0:_ZN10librevenge21RVNGTextTextGenerator12closeEndnoteEv
librevenge-generators-0.0.so.0:_ZN10librevenge21RVNGTextTextGenerator12closeSectionEv
librevenge-generators-0.0.so.0:_ZN10librevenge21RVNGTextTextGenerator12closeTextBoxEv
librevenge-generators-0.0.so.0:_ZN10librevenge21RVNGTextTextGenerator12drawPolylineERKNS_16RVNGPropertyListE
librevenge-generators-0.0.so.0:_ZN10librevenge21RVNGTextTextGenerator12openFootnoteERKNS_16RVNGPropertyListE
librevenge-generators-0.0.so.0:_ZN10librevenge21RVNGTextTextGenerator12openPageSpanERKNS_16RVNGPropertyListE
librevenge-generators-0.0.so.0:_ZN10librevenge21RVNGTextTextGenerator12openTableRowERKNS_16RVNGPropertyListE
librevenge-generators-0.0.so.0:_ZN10librevenge21RVNGTextTextGenerator13closeFootnoteEv
librevenge-generators-0.0.so.0:_ZN10librevenge21RVNGTextTextGenerator13closePageSpanEv
librevenge-generators-0.0.so.0:_ZN10librevenge21RVNGTextTextGenerator13closeTableRowEv
librevenge-generators-0.0.so.0:_ZN10librevenge21RVNGTextTextGenerator13drawConnectorERKNS_16RVNGPropertyListE
librevenge-generators-0.0.so.0:_ZN10librevenge21RVNGTextTextGenerator13drawRectangleERKNS_16RVNGPropertyListE
librevenge-generators-0.0.so.0:_ZN10librevenge21RVNGTextTextGenerator13openParagraphERKNS_16RVNGPropertyListE
librevenge-generators-0.0.so.0:_ZN10librevenge21RVNGTextTextGenerator13openTableCellERKNS_16RVNGPropertyListE
librevenge-generators-0.0.so.0:_ZN10librevenge21RVNGTextTextGenerator13startDocumentERKNS_16RVNGPropertyListE
librevenge-generators-0.0.so.0:_ZN10librevenge21RVNGTextTextGenerator14closeParagraphEv
librevenge-generators-0.0.so.0:_ZN10librevenge21RVNGTextTextGenerator14closeTableCellEv
librevenge-generators-0.0.so.0:_ZN10librevenge21RVNGTextTextGenerator14insertEquationERKNS_16RVNGPropertyListE
librevenge-generators-0.0.so.0:_ZN10librevenge21RVNGTextTextGenerator15definePageStyleERKNS_16RVNGPropertyListE
librevenge-generators-0.0.so.0:_ZN10librevenge21RVNGTextTextGenerator15insertLineBreakEv
librevenge-generators-0.0.so.0:_ZN10librevenge21RVNGTextTextGenerator15openListElementERKNS_16RVNGPropertyListE
librevenge-generators-0.0.so.0:_ZN10librevenge21RVNGTextTextGenerator16closeListElementEv
librevenge-generators-0.0.so.0:_ZN10librevenge21RVNGTextTextGenerator18defineEmbeddedFontERKNS_16RVNGPropertyListE
librevenge-generators-0.0.so.0:_ZN10librevenge21RVNGTextTextGenerator18defineGraphicStyleERKNS_16RVNGPropertyListE
librevenge-generators-0.0.so.0:_ZN10librevenge21RVNGTextTextGenerator18defineSectionStyleERKNS_16RVNGPropertyListE
librevenge-generators-0.0.so.0:_ZN10librevenge21RVNGTextTextGenerator18insertBinaryObjectERKNS_16RVNGPropertyListE
librevenge-generators-0.0.so.0:_ZN10librevenge21RVNGTextTextGenerator19setDocumentMetaDataERKNS_16RVNGPropertyListE
librevenge-generators-0.0.so.0:_ZN10librevenge21RVNGTextTextGenerator20defineCharacterStyleERKNS_16RVNGPropertyListE
librevenge-generators-0.0.so.0:_ZN10librevenge21RVNGTextTextGenerator20defineParagraphStyleERKNS_16RVNGPropertyListE
librevenge-generators-0.0.so.0:_ZN10librevenge21RVNGTextTextGenerator20openOrderedListLevelERKNS_16RVNGPropertyListE
librevenge-generators-0.0.so.0:_ZN10librevenge21RVNGTextTextGenerator21closeOrderedListLevelEv
librevenge-generators-0.0.so.0:_ZN10librevenge21RVNGTextTextGenerator22insertCoveredTableCellERKNS_16RVNGPropertyListE
librevenge-generators-0.0.so.0:_ZN10librevenge21RVNGTextTextGenerator22openUnorderedListLevelERKNS_16RVNGPropertyListE
librevenge-generators-0.0.so.0:_ZN10librevenge21RVNGTextTextGenerator23closeUnorderedListLevelEv
librevenge-generators-0.0.so.0:_ZN10librevenge21RVNGTextTextGenerator8drawPathERKNS_16RVNGPropertyListE
librevenge-generators-0.0.so.0:_ZN10librevenge21RVNGTextTextGenerator8openLinkERKNS_16RVNGPropertyListE
librevenge-generators-0.0.so.0:_ZN10librevenge21RVNGTextTextGenerator8openSpanERKNS_16RVNGPropertyListE
librevenge-generators-0.0.so.0:_ZN10librevenge21RVNGTextTextGenerator9closeLinkEv
librevenge-generators-0.0.so.0:_ZN10librevenge21RVNGTextTextGenerator9closeSpanEv
librevenge-generators-0.0.so.0:_ZN10librevenge21RVNGTextTextGenerator9insertTabEv
librevenge-generators-0.0.so.0:_ZN10librevenge21RVNGTextTextGenerator9openFrameERKNS_16RVNGPropertyListE
librevenge-generators-0.0.so.0:_ZN10librevenge21RVNGTextTextGenerator9openGroupERKNS_16RVNGPropertyListE
librevenge-generators-0.0.so.0:_ZN10librevenge21RVNGTextTextGenerator9openTableERKNS_16RVNGPropertyListE
librevenge-generators-0.0.so.0:_ZN10librevenge21RVNGTextTextGeneratorC1ERNS_10RVNGStringEb
librevenge-generators-0.0.so.0:_ZN10librevenge21RVNGTextTextGeneratorC2ERNS_10RVNGStringEb
librevenge-generators-0.0.so.0:_ZN10librevenge21RVNGTextTextGeneratorD0Ev
librevenge-generators-0.0.so.0:_ZN10librevenge21RVNGTextTextGeneratorD1Ev
librevenge-generators-0.0.so.0:_ZN10librevenge21RVNGTextTextGeneratorD2Ev
librevenge-generators-0.0.so.0:_ZN10librevenge23RVNGRawDrawingGenerator10closeGroupEv
librevenge-generators-0.0.so.0:_ZN10librevenge23RVNGRawDrawingGenerator10insertTextERKNS_10RVNGStringE
librevenge-generators-0.0.so.0:_ZN10librevenge23RVNGRawDrawingGenerator10startLayerERKNS_16RVNGPropertyListE
librevenge-generators-0.0.so.0:_ZN10librevenge23RVNGRawDrawingGenerator11drawEllipseERKNS_16RVNGPropertyListE
librevenge-generators-0.0.so.0:_ZN10librevenge23RVNGRawDrawingGenerator11drawPolygonERKNS_16RVNGPropertyListE
librevenge-generators-0.0.so.0:_ZN10librevenge23RVNGRawDrawingGenerator11endDocumentEv
librevenge-generators-0.0.so.0:_ZN10librevenge23RVNGRawDrawingGenerator11insertFieldERKNS_16RVNGPropertyListE
librevenge-generators-0.0.so.0:_ZN10librevenge23RVNGRawDrawingGenerator11insertSpaceEv
librevenge-generators-0.0.so.0:_ZN10librevenge23RVNGRawDrawingGenerator12drawPolylineERKNS_16RVNGPropertyListE
librevenge-generators-0.0.so.0:_ZN10librevenge23RVNGRawDrawingGenerator12openTableRowERKNS_16RVNGPropertyListE
librevenge-generators-0.0.so.0:_ZN10librevenge23RVNGRawDrawingGenerator13closeTableRowEv
librevenge-generators-0.0.so.0:_ZN10librevenge23RVNGRawDrawingGenerator13drawConnectorERKNS_16RVNGPropertyListE
librevenge-generators-0.0.so.0:_ZN10librevenge23RVNGRawDrawingGenerator13drawRectangleERKNS_16RVNGPropertyListE
librevenge-generators-0.0.so.0:_ZN10librevenge23RVNGRawDrawingGenerator13endMasterPageEv
librevenge-generators-0.0.so.0:_ZN10librevenge23RVNGRawDrawingGenerator13endTextObjectEv
librevenge-generators-0.0.so.0:_ZN10librevenge23RVNGRawDrawingGenerator13openParagraphERKNS_16RVNGPropertyListE
librevenge-generators-0.0.so.0:_ZN10librevenge23RVNGRawDrawingGenerator13openTableCellERKNS_16RVNGPropertyListE
librevenge-generators-0.0.so.0:_ZN10librevenge23RVNGRawDrawingGenerator13startDocumentERKNS_16RVNGPropertyListE
librevenge-generators-0.0.so.0:_ZN10librevenge23RVNGRawDrawingGenerator14closeParagraphEv
librevenge-generators-0.0.so.0:_ZN10librevenge23RVNGRawDrawingGenerator14closeTableCellEv
librevenge-generators-0.0.so.0:_ZN10librevenge23RVNGRawDrawingGenerator14endTableObjectEv
librevenge-generators-0.0.so.0:_ZN10librevenge23RVNGRawDrawingGenerator15insertLineBreakEv
librevenge-generators-0.0.so.0:_ZN10librevenge23RVNGRawDrawingGenerator15openListElementERKNS_16RVNGPropertyListE
librevenge-generators-0.0.so.0:_ZN10librevenge23RVNGRawDrawingGenerator15startMasterPageERKNS_16RVNGPropertyListE
librevenge-generators-0.0.so.0:_ZN10librevenge23RVNGRawDrawingGenerator15startTextObjectERKNS_16RVNGPropertyListE
librevenge-generators-0.0.so.0:_ZN10librevenge23RVNGRawDrawingGenerator16closeListElementEv
librevenge-generators-0.0.so.0:_ZN10librevenge23RVNGRawDrawingGenerator16startTableObjectERKNS_16RVNGPropertyListE
librevenge-generators-0.0.so.0:_ZN10librevenge23RVNGRawDrawingGenerator17drawGraphicObjectERKNS_16RVNGPropertyListE
librevenge-generators-0.0.so.0:_ZN10librevenge23RVNGRawDrawingGenerator18defineEmbeddedFontERKNS_16RVNGPropertyListE
librevenge-generators-0.0.so.0:_ZN10librevenge23RVNGRawDrawingGenerator19endEmbeddedGraphicsEv
librevenge-generators-0.0.so.0:_ZN10librevenge23RVNGRawDrawingGenerator19setDocumentMetaDataERKNS_16RVNGPropertyListE
librevenge-generators-0.0.so.0:_ZN10librevenge23RVNGRawDrawingGenerator20defineCharacterStyleERKNS_16RVNGPropertyListE
librevenge-generators-0.0.so.0:_ZN10librevenge23RVNGRawDrawingGenerator20defineParagraphStyleERKNS_16RVNGPropertyListE
librevenge-generators-0.0.so.0:_ZN10librevenge23RVNGRawDrawingGenerator20openOrderedListLevelERKNS_16RVNGPropertyListE
librevenge-generators-0.0.so.0:_ZN10librevenge23RVNGRawDrawingGenerator21closeOrderedListLevelEv
librevenge-generators-0.0.so.0:_ZN10librevenge23RVNGRawDrawingGenerator21startEmbeddedGraphicsERKNS_16RVNGPropertyListE
librevenge-generators-0.0.so.0:_ZN10librevenge23RVNGRawDrawingGenerator22insertCoveredTableCellERKNS_16RVNGPropertyListE
librevenge-generators-0.0.so.0:_ZN10librevenge23RVNGRawDrawingGenerator22openUnorderedListLevelERKNS_16RVNGPropertyListE
librevenge-generators-0.0.so.0:_ZN10librevenge23RVNGRawDrawingGenerator23closeUnorderedListLevelEv
librevenge-generators-0.0.so.0:_ZN10librevenge23RVNGRawDrawingGenerator7endPageEv
librevenge-generators-0.0.so.0:_ZN10librevenge23RVNGRawDrawingGenerator8drawPathERKNS_16RVNGPropertyListE
librevenge-generators-0.0.so.0:_ZN10librevenge23RVNGRawDrawingGenerator8endLayerEv
librevenge-generators-0.0.so.0:_ZN10librevenge23RVNGRawDrawingGenerator8openLinkERKNS_16RVNGPropertyListE
librevenge-generators-0.0.so.0:_ZN10librevenge23RVNGRawDrawingGenerator8openSpanERKNS_16RVNGPropertyListE
librevenge-generators-0.0.so.0:_ZN10librevenge23RVNGRawDrawingGenerator8setStyleERKNS_16RVNGPropertyListE
librevenge-generators-0.0.so.0:_ZN10librevenge23RVNGRawDrawingGenerator9closeLinkEv
librevenge-generators-0.0.so.0:_ZN10librevenge23RVNGRawDrawingGenerator9closeSpanEv
librevenge-generators-0.0.so.0:_ZN10librevenge23RVNGRawDrawingGenerator9insertTabEv
librevenge-generators-0.0.so.0:_ZN10librevenge23RVNGRawDrawingGenerator9openGroupERKNS_16RVNGPropertyListE
librevenge-generators-0.0.so.0:_ZN10librevenge23RVNGRawDrawingGenerator9startPageERKNS_16RVNGPropertyListE
librevenge-generators-0.0.so.0:_ZN10librevenge23RVNGRawDrawingGeneratorC1Eb
librevenge-generators-0.0.so.0:_ZN10librevenge23RVNGRawDrawingGeneratorC2Eb
librevenge-generators-0.0.so.0:_ZN10librevenge23RVNGRawDrawingGeneratorD0Ev
librevenge-generators-0.0.so.0:_ZN10librevenge23RVNGRawDrawingGeneratorD1Ev
librevenge-generators-0.0.so.0:_ZN10librevenge23RVNGRawDrawingGeneratorD2Ev
librevenge-generators-0.0.so.0:_ZN10librevenge24RVNGTextDrawingGenerator10closeGroupEv
librevenge-generators-0.0.so.0:_ZN10librevenge24RVNGTextDrawingGenerator10insertTextERKNS_10RVNGStringE
librevenge-generators-0.0.so.0:_ZN10librevenge24RVNGTextDrawingGenerator10startLayerERKNS_16RVNGPropertyListE
librevenge-generators-0.0.so.0:_ZN10librevenge24RVNGTextDrawingGenerator11drawEllipseERKNS_16RVNGPropertyListE
librevenge-generators-0.0.so.0:_ZN10librevenge24RVNGTextDrawingGenerator11drawPolygonERKNS_16RVNGPropertyListE
librevenge-generators-0.0.so.0:_ZN10librevenge24RVNGTextDrawingGenerator11endDocumentEv
librevenge-generators-0.0.so.0:_ZN10librevenge24RVNGTextDrawingGenerator11insertFieldERKNS_16RVNGPropertyListE
librevenge-generators-0.0.so.0:_ZN10librevenge24RVNGTextDrawingGenerator11insertSpaceEv
librevenge-generators-0.0.so.0:_ZN10librevenge24RVNGTextDrawingGenerator12drawPolylineERKNS_16RVNGPropertyListE
librevenge-generators-0.0.so.0:_ZN10librevenge24RVNGTextDrawingGenerator12openTableRowERKNS_16RVNGPropertyListE
librevenge-generators-0.0.so.0:_ZN10librevenge24RVNGTextDrawingGenerator13closeTableRowEv
librevenge-generators-0.0.so.0:_ZN10librevenge24RVNGTextDrawingGenerator13drawConnectorERKNS_16RVNGPropertyListE
librevenge-generators-0.0.so.0:_ZN10librevenge24RVNGTextDrawingGenerator13drawRectangleERKNS_16RVNGPropertyListE
librevenge-generators-0.0.so.0:_ZN10librevenge24RVNGTextDrawingGenerator13endMasterPageEv
librevenge-generators-0.0.so.0:_ZN10librevenge24RVNGTextDrawingGenerator13endTextObjectEv
librevenge-generators-0.0.so.0:_ZN10librevenge24RVNGTextDrawingGenerator13openParagraphERKNS_16RVNGPropertyListE
librevenge-generators-0.0.so.0:_ZN10librevenge24RVNGTextDrawingGenerator13openTableCellERKNS_16RVNGPropertyListE
librevenge-generators-0.0.so.0:_ZN10librevenge24RVNGTextDrawingGenerator13startDocumentERKNS_16RVNGPropertyListE
librevenge-generators-0.0.so.0:_ZN10librevenge24RVNGTextDrawingGenerator14closeParagraphEv
librevenge-generators-0.0.so.0:_ZN10librevenge24RVNGTextDrawingGenerator14closeTableCellEv
librevenge-generators-0.0.so.0:_ZN10librevenge24RVNGTextDrawingGenerator14endTableObjectEv
librevenge-generators-0.0.so.0:_ZN10librevenge24RVNGTextDrawingGenerator15insertLineBreakEv
librevenge-generators-0.0.so.0:_ZN10librevenge24RVNGTextDrawingGenerator15openListElementERKNS_16RVNGPropertyListE
librevenge-generators-0.0.so.0:_ZN10librevenge24RVNGTextDrawingGenerator15startMasterPageERKNS_16RVNGPropertyListE
librevenge-generators-0.0.so.0:_ZN10librevenge24RVNGTextDrawingGenerator15startTextObjectERKNS_16RVNGPropertyListE
librevenge-generators-0.0.so.0:_ZN10librevenge24RVNGTextDrawingGenerator16closeListElementEv
librevenge-generators-0.0.so.0:_ZN10librevenge24RVNGTextDrawingGenerator16startTableObjectERKNS_16RVNGPropertyListE
librevenge-generators-0.0.so.0:_ZN10librevenge24RVNGTextDrawingGenerator17drawGraphicObjectERKNS_16RVNGPropertyListE
librevenge-generators-0.0.so.0:_ZN10librevenge24RVNGTextDrawingGenerator18defineEmbeddedFontERKNS_16RVNGPropertyListE
librevenge-generators-0.0.so.0:_ZN10librevenge24RVNGTextDrawingGenerator19endEmbeddedGraphicsEv
librevenge-generators-0.0.so.0:_ZN10librevenge24RVNGTextDrawingGenerator19setDocumentMetaDataERKNS_16RVNGPropertyListE
librevenge-generators-0.0.so.0:_ZN10librevenge24RVNGTextDrawingGenerator20defineCharacterStyleERKNS_16RVNGPropertyListE
librevenge-generators-0.0.so.0:_ZN10librevenge24RVNGTextDrawingGenerator20defineParagraphStyleERKNS_16RVNGPropertyListE
librevenge-generators-0.0.so.0:_ZN10librevenge24RVNGTextDrawingGenerator20openOrderedListLevelERKNS_16RVNGPropertyListE
librevenge-generators-0.0.so.0:_ZN10librevenge24RVNGTextDrawingGenerator21closeOrderedListLevelEv
librevenge-generators-0.0.so.0:_ZN10librevenge24RVNGTextDrawingGenerator21startEmbeddedGraphicsERKNS_16RVNGPropertyListE
librevenge-generators-0.0.so.0:_ZN10librevenge24RVNGTextDrawingGenerator22insertCoveredTableCellERKNS_16RVNGPropertyListE
librevenge-generators-0.0.so.0:_ZN10librevenge24RVNGTextDrawingGenerator22openUnorderedListLevelERKNS_16RVNGPropertyListE
librevenge-generators-0.0.so.0:_ZN10librevenge24RVNGTextDrawingGenerator23closeUnorderedListLevelEv
librevenge-generators-0.0.so.0:_ZN10librevenge24RVNGTextDrawingGenerator7endPageEv
librevenge-generators-0.0.so.0:_ZN10librevenge24RVNGTextDrawingGenerator8drawPathERKNS_16RVNGPropertyListE
librevenge-generators-0.0.so.0:_ZN10librevenge24RVNGTextDrawingGenerator8endLayerEv
librevenge-generators-0.0.so.0:_ZN10librevenge24RVNGTextDrawingGenerator8openLinkERKNS_16RVNGPropertyListE
librevenge-generators-0.0.so.0:_ZN10librevenge24RVNGTextDrawingGenerator8openSpanERKNS_16RVNGPropertyListE
librevenge-generators-0.0.so.0:_ZN10librevenge24RVNGTextDrawingGenerator8setStyleERKNS_16RVNGPropertyListE
librevenge-generators-0.0.so.0:_ZN10librevenge24RVNGTextDrawingGenerator9closeLinkEv
librevenge-generators-0.0.so.0:_ZN10librevenge24RVNGTextDrawingGenerator9closeSpanEv
librevenge-generators-0.0.so.0:_ZN10librevenge24RVNGTextDrawingGenerator9insertTabEv
librevenge-generators-0.0.so.0:_ZN10librevenge24RVNGTextDrawingGenerator9openGroupERKNS_16RVNGPropertyListE
librevenge-generators-0.0.so.0:_ZN10librevenge24RVNGTextDrawingGenerator9startPageERKNS_16RVNGPropertyListE
librevenge-generators-0.0.so.0:_ZN10librevenge24RVNGTextDrawingGeneratorC1ERNS_16RVNGStringVectorE
librevenge-generators-0.0.so.0:_ZN10librevenge24RVNGTextDrawingGeneratorC2ERNS_16RVNGStringVectorE
librevenge-generators-0.0.so.0:_ZN10librevenge24RVNGTextDrawingGeneratorD0Ev
librevenge-generators-0.0.so.0:_ZN10librevenge24RVNGTextDrawingGeneratorD1Ev
librevenge-generators-0.0.so.0:_ZN10librevenge24RVNGTextDrawingGeneratorD2Ev
librevenge-generators-0.0.so.0:_ZN10librevenge27RVNGCSVSpreadsheetGenerator10closeChartEv
librevenge-generators-0.0.so.0:_ZN10librevenge27RVNGCSVSpreadsheetGenerator10closeFrameEv
librevenge-generators-0.0.so.0:_ZN10librevenge27RVNGCSVSpreadsheetGenerator10closeGroupEv
librevenge-generators-0.0.so.0:_ZN10librevenge27RVNGCSVSpreadsheetGenerator10closeSheetEv
librevenge-generators-0.0.so.0:_ZN10librevenge27RVNGCSVSpreadsheetGenerator10closeTableEv
librevenge-generators-0.0.so.0:_ZN10librevenge27RVNGCSVSpreadsheetGenerator10insertTextERKNS_10RVNGStringE
librevenge-generators-0.0.so.0:_ZN10librevenge27RVNGCSVSpreadsheetGenerator10openFooterERKNS_16RVNGPropertyListE
librevenge-generators-0.0.so.0:_ZN10librevenge27RVNGCSVSpreadsheetGenerator10openHeaderERKNS_16RVNGPropertyListE
librevenge-generators-0.0.so.0:_ZN10librevenge27RVNGCSVSpreadsheetGenerator11closeFooterEv
librevenge-generators-0.0.so.0:_ZN10librevenge27RVNGCSVSpreadsheetGenerator11closeHeaderEv
librevenge-generators-0.0.so.0:_ZN10librevenge27RVNGCSVSpreadsheetGenerator11drawEllipseERKNS_16RVNGPropertyListE
librevenge-generators-0.0.so.0:_ZN10librevenge27RVNGCSVSpreadsheetGenerator11drawPolygonERKNS_16RVNGPropertyListE
librevenge-generators-0.0.so.0:_ZN10librevenge27RVNGCSVSpreadsheetGenerator11endDocumentEv
librevenge-generators-0.0.so.0:_ZN10librevenge27RVNGCSVSpreadsheetGenerator11insertFieldERKNS_16RVNGPropertyListE
librevenge-generators-0.0.so.0:_ZN10librevenge27RVNGCSVSpreadsheetGenerator11insertSpaceEv
librevenge-generators-0.0.so.0:_ZN10librevenge27RVNGCSVSpreadsheetGenerator11openCommentERKNS_16RVNGPropertyListE
librevenge-generators-0.0.so.0:_ZN10librevenge27RVNGCSVSpreadsheetGenerator11openEndnoteERKNS_16RVNGPropertyListE
librevenge-generators-0.0.so.0:_ZN10librevenge27RVNGCSVSpreadsheetGenerator11openSectionERKNS_16RVNGPropertyListE
librevenge-generators-0.0.so.0:_ZN10librevenge27RVNGCSVSpreadsheetGenerator11openTextBoxERKNS_16RVNGPropertyListE
librevenge-generators-0.0.so.0:_ZN10librevenge27RVNGCSVSpreadsheetGenerator12closeCommentEv
librevenge-generators-0.0.so.0:_ZN10librevenge27RVNGCSVSpreadsheetGenerator12closeEndnoteEv
librevenge-generators-0.0.so.0:_ZN10librevenge27RVNGCSVSpreadsheetGenerator12closeSectionEv
librevenge-generators-0.0.so.0:_ZN10librevenge27RVNGCSVSpreadsheetGenerator12closeTextBoxEv
librevenge-generators-0.0.so.0:_ZN10librevenge27RVNGCSVSpreadsheetGenerator12drawPolylineERKNS_16RVNGPropertyListE
librevenge-generators-0.0.so.0:_ZN10librevenge27RVNGCSVSpreadsheetGenerator12openFootnoteERKNS_16RVNGPropertyListE
librevenge-generators-0.0.so.0:_ZN10librevenge27RVNGCSVSpreadsheetGenerator12openPageSpanERKNS_16RVNGPropertyListE
librevenge-generators-0.0.so.0:_ZN10librevenge27RVNGCSVSpreadsheetGenerator12openSheetRowERKNS_16RVNGPropertyListE
librevenge-generators-0.0.so.0:_ZN10librevenge27RVNGCSVSpreadsheetGenerator12openTableRowERKNS_16RVNGPropertyListE
librevenge-generators-0.0.so.0:_ZN10librevenge27RVNGCSVSpreadsheetGenerator12setDTFormatsERKNS_10RVNGStringES3_
librevenge-generators-0.0.so.0:_ZN10librevenge27RVNGCSVSpreadsheetGenerator13closeFootnoteEv
librevenge-generators-0.0.so.0:_ZN10librevenge27RVNGCSVSpreadsheetGenerator13closePageSpanEv
librevenge-generators-0.0.so.0:_ZN10librevenge27RVNGCSVSpreadsheetGenerator13closeSheetRowEv
librevenge-generators-0.0.so.0:_ZN10librevenge27RVNGCSVSpreadsheetGenerator13closeTableRowEv
librevenge-generators-0.0.so.0:_ZN10librevenge27RVNGCSVSpreadsheetGenerator13drawConnectorERKNS_16RVNGPropertyListE
librevenge-generators-0.0.so.0:_ZN10librevenge27RVNGCSVSpreadsheetGenerator13drawRectangleERKNS_16RVNGPropertyListE
librevenge-generators-0.0.so.0:_ZN10librevenge27RVNGCSVSpreadsheetGenerator13openParagraphERKNS_16RVNGPropertyListE
librevenge-generators-0.0.so.0:_ZN10librevenge27RVNGCSVSpreadsheetGenerator13openSheetCellERKNS_16RVNGPropertyListE
librevenge-generators-0.0.so.0:_ZN10librevenge27RVNGCSVSpreadsheetGenerator13openTableCellERKNS_16RVNGPropertyListE
librevenge-generators-0.0.so.0:_ZN10librevenge27RVNGCSVSpreadsheetGenerator13setSeparatorsEccc
librevenge-generators-0.0.so.0:_ZN10librevenge27RVNGCSVSpreadsheetGenerator13startDocumentERKNS_16RVNGPropertyListE
librevenge-generators-0.0.so.0:_ZN10librevenge27RVNGCSVSpreadsheetGenerator14closeParagraphEv
librevenge-generators-0.0.so.0:_ZN10librevenge27RVNGCSVSpreadsheetGenerator14closeSheetCellEv
librevenge-generators-0.0.so.0:_ZN10librevenge27RVNGCSVSpreadsheetGenerator14closeTableCellEv
librevenge-generators-0.0.so.0:_ZN10librevenge27RVNGCSVSpreadsheetGenerator14insertEquationERKNS_16RVNGPropertyListE
librevenge-generators-0.0.so.0:_ZN10librevenge27RVNGCSVSpreadsheetGenerator14openChartSerieERKNS_16RVNGPropertyListE
librevenge-generators-0.0.so.0:_ZN10librevenge27RVNGCSVSpreadsheetGenerator15closeChartSerieEv
librevenge-generators-0.0.so.0:_ZN10librevenge27RVNGCSVSpreadsheetGenerator15definePageStyleERKNS_16RVNGPropertyListE
librevenge-generators-0.0.so.0:_ZN10librevenge27RVNGCSVSpreadsheetGenerator15insertChartAxisERKNS_16RVNGPropertyListE
librevenge-generators-0.0.so.0:_ZN10librevenge27RVNGCSVSpreadsheetGenerator15insertLineBreakEv
librevenge-generators-0.0.so.0:_ZN10librevenge27RVNGCSVSpreadsheetGenerator15openListElementERKNS_16RVNGPropertyListE
librevenge-generators-0.0.so.0:_ZN10librevenge27RVNGCSVSpreadsheetGenerator16closeListElementEv
librevenge-generators-0.0.so.0:_ZN10librevenge27RVNGCSVSpreadsheetGenerator16defineChartStyleERKNS_16RVNGPropertyListE
librevenge-generators-0.0.so.0:_ZN10librevenge27RVNGCSVSpreadsheetGenerator17openChartPlotAreaERKNS_16RVNGPropertyListE
librevenge-generators-0.0.so.0:_ZN10librevenge27RVNGCSVSpreadsheetGenerator18closeChartPlotAreaEv
librevenge-generators-0.0.so.0:_ZN10librevenge27RVNGCSVSpreadsheetGenerator18defineEmbeddedFontERKNS_16RVNGPropertyListE
librevenge-generators-0.0.so.0:_ZN10librevenge27RVNGCSVSpreadsheetGenerator18defineGraphicStyleERKNS_16RVNGPropertyListE
librevenge-generators-0.0.so.0:_ZN10librevenge27RVNGCSVSpreadsheetGenerator18defineSectionStyleERKNS_16RVNGPropertyListE
librevenge-generators-0.0.so.0:_ZN10librevenge27RVNGCSVSpreadsheetGenerator18insertBinaryObjectERKNS_16RVNGPropertyListE
librevenge-generators-0.0.so.0:_ZN10librevenge27RVNGCSVSpreadsheetGenerator19openChartTextObjectERKNS_16RVNGPropertyListE
librevenge-generators-0.0.so.0:_ZN10librevenge27RVNGCSVSpreadsheetGenerator19setDocumentMetaDataERKNS_16RVNGPropertyListE
librevenge-generators-0.0.so.0:_ZN10librevenge27RVNGCSVSpreadsheetGenerator20closeChartTextObjectEv
librevenge-generators-0.0.so.0:_ZN10librevenge27RVNGCSVSpreadsheetGenerator20defineCharacterStyleERKNS_16RVNGPropertyListE
librevenge-generators-0.0.so.0:_ZN10librevenge27RVNGCSVSpreadsheetGenerator20defineParagraphStyleERKNS_16RVNGPropertyListE
librevenge-generators-0.0.so.0:_ZN10librevenge27RVNGCSVSpreadsheetGenerator20openOrderedListLevelERKNS_16RVNGPropertyListE
librevenge-generators-0.0.so.0:_ZN10librevenge27RVNGCSVSpreadsheetGenerator21closeOrderedListLevelEv
librevenge-generators-0.0.so.0:_ZN10librevenge27RVNGCSVSpreadsheetGenerator22insertCoveredTableCellERKNS_16RVNGPropertyListE
librevenge-generators-0.0.so.0:_ZN10librevenge27RVNGCSVSpreadsheetGenerator22openUnorderedListLevelERKNS_16RVNGPropertyListE
librevenge-generators-0.0.so.0:_ZN10librevenge27RVNGCSVSpreadsheetGenerator23closeUnorderedListLevelEv
librevenge-generators-0.0.so.0:_ZN10librevenge27RVNGCSVSpreadsheetGenerator25defineSheetNumberingStyleERKNS_16RVNGPropertyListE
librevenge-generators-0.0.so.0:_ZN10librevenge27RVNGCSVSpreadsheetGenerator8drawPathERKNS_16RVNGPropertyListE
librevenge-generators-0.0.so.0:_ZN10librevenge27RVNGCSVSpreadsheetGenerator8openLinkERKNS_16RVNGPropertyListE
librevenge-generators-0.0.so.0:_ZN10librevenge27RVNGCSVSpreadsheetGenerator8openSpanERKNS_16RVNGPropertyListE
librevenge-generators-0.0.so.0:_ZN10librevenge27RVNGCSVSpreadsheetGenerator9closeLinkEv
librevenge-generators-0.0.so.0:_ZN10librevenge27RVNGCSVSpreadsheetGenerator9closeSpanEv
librevenge-generators-0.0.so.0:_ZN10librevenge27RVNGCSVSpreadsheetGenerator9insertTabEv
librevenge-generators-0.0.so.0:_ZN10librevenge27RVNGCSVSpreadsheetGenerator9openChartERKNS_16RVNGPropertyListE
librevenge-generators-0.0.so.0:_ZN10librevenge27RVNGCSVSpreadsheetGenerator9openFrameERKNS_16RVNGPropertyListE
librevenge-generators-0.0.so.0:_ZN10librevenge27RVNGCSVSpreadsheetGenerator9openGroupERKNS_16RVNGPropertyListE
librevenge-generators-0.0.so.0:_ZN10librevenge27RVNGCSVSpreadsheetGenerator9openSheetERKNS_16RVNGPropertyListE
librevenge-generators-0.0.so.0:_ZN10librevenge27RVNGCSVSpreadsheetGenerator9openTableERKNS_16RVNGPropertyListE
librevenge-generators-0.0.so.0:_ZN10librevenge27RVNGCSVSpreadsheetGeneratorC1ERNS_16RVNGStringVectorEb
librevenge-generators-0.0.so.0:_ZN10librevenge27RVNGCSVSpreadsheetGeneratorC2ERNS_16RVNGStringVectorEb
librevenge-generators-0.0.so.0:_ZN10librevenge27RVNGCSVSpreadsheetGeneratorD0Ev
librevenge-generators-0.0.so.0:_ZN10librevenge27RVNGCSVSpreadsheetGeneratorD1Ev
librevenge-generators-0.0.so.0:_ZN10librevenge27RVNGCSVSpreadsheetGeneratorD2Ev
librevenge-generators-0.0.so.0:_ZN10librevenge27RVNGRawSpreadsheetGenerator10closeChartEv
librevenge-generators-0.0.so.0:_ZN10librevenge27RVNGRawSpreadsheetGenerator10closeFrameEv
librevenge-generators-0.0.so.0:_ZN10librevenge27RVNGRawSpreadsheetGenerator10closeGroupEv
librevenge-generators-0.0.so.0:_ZN10librevenge27RVNGRawSpreadsheetGenerator10closeSheetEv
librevenge-generators-0.0.so.0:_ZN10librevenge27RVNGRawSpreadsheetGenerator10closeTableEv
librevenge-generators-0.0.so.0:_ZN10librevenge27RVNGRawSpreadsheetGenerator10insertTextERKNS_10RVNGStringE
librevenge-generators-0.0.so.0:_ZN10librevenge27RVNGRawSpreadsheetGenerator10openFooterERKNS_16RVNGPropertyListE
librevenge-generators-0.0.so.0:_ZN10librevenge27RVNGRawSpreadsheetGenerator10openHeaderERKNS_16RVNGPropertyListE
librevenge-generators-0.0.so.0:_ZN10librevenge27RVNGRawSpreadsheetGenerator11closeFooterEv
librevenge-generators-0.0.so.0:_ZN10librevenge27RVNGRawSpreadsheetGenerator11closeHeaderEv
librevenge-generators-0.0.so.0:_ZN10librevenge27RVNGRawSpreadsheetGenerator11drawEllipseERKNS_16RVNGPropertyListE
librevenge-generators-0.0.so.0:_ZN10librevenge27RVNGRawSpreadsheetGenerator11drawPolygonERKNS_16RVNGPropertyListE
librevenge-generators-0.0.so.0:_ZN10librevenge27RVNGRawSpreadsheetGenerator11endDocumentEv
librevenge-generators-0.0.so.0:_ZN10librevenge27RVNGRawSpreadsheetGenerator11insertFieldERKNS_16RVNGPropertyListE
librevenge-generators-0.0.so.0:_ZN10librevenge27RVNGRawSpreadsheetGenerator11insertSpaceEv
librevenge-generators-0.0.so.0:_ZN10librevenge27RVNGRawSpreadsheetGenerator11openCommentERKNS_16RVNGPropertyListE
librevenge-generators-0.0.so.0:_ZN10librevenge27RVNGRawSpreadsheetGenerator11openEndnoteERKNS_16RVNGPropertyListE
librevenge-generators-0.0.so.0:_ZN10librevenge27RVNGRawSpreadsheetGenerator11openSectionERKNS_16RVNGPropertyListE
librevenge-generators-0.0.so.0:_ZN10librevenge27RVNGRawSpreadsheetGenerator11openTextBoxERKNS_16RVNGPropertyListE
librevenge-generators-0.0.so.0:_ZN10librevenge27RVNGRawSpreadsheetGenerator12closeCommentEv
librevenge-generators-0.0.so.0:_ZN10librevenge27RVNGRawSpreadsheetGenerator12closeEndnoteEv
librevenge-generators-0.0.so.0:_ZN10librevenge27RVNGRawSpreadsheetGenerator12closeSectionEv
librevenge-generators-0.0.so.0:_ZN10librevenge27RVNGRawSpreadsheetGenerator12closeTextBoxEv
librevenge-generators-0.0.so.0:_ZN10librevenge27RVNGRawSpreadsheetGenerator12drawPolylineERKNS_16RVNGPropertyListE
librevenge-generators-0.0.so.0:_ZN10librevenge27RVNGRawSpreadsheetGenerator12openFootnoteERKNS_16RVNGPropertyListE
librevenge-generators-0.0.so.0:_ZN10librevenge27RVNGRawSpreadsheetGenerator12openPageSpanERKNS_16RVNGPropertyListE
librevenge-generators-0.0.so.0:_ZN10librevenge27RVNGRawSpreadsheetGenerator12openSheetRowERKNS_16RVNGPropertyListE
librevenge-generators-0.0.so.0:_ZN10librevenge27RVNGRawSpreadsheetGenerator12openTableRowERKNS_16RVNGPropertyListE
librevenge-generators-0.0.so.0:_ZN10librevenge27RVNGRawSpreadsheetGenerator13closeFootnoteEv
librevenge-generators-0.0.so.0:_ZN10librevenge27RVNGRawSpreadsheetGenerator13closePageSpanEv
librevenge-generators-0.0.so.0:_ZN10librevenge27RVNGRawSpreadsheetGenerator13closeSheetRowEv
librevenge-generators-0.0.so.0:_ZN10librevenge27RVNGRawSpreadsheetGenerator13closeTableRowEv
librevenge-generators-0.0.so.0:_ZN10librevenge27RVNGRawSpreadsheetGenerator13drawConnectorERKNS_16RVNGPropertyListE
librevenge-generators-0.0.so.0:_ZN10librevenge27RVNGRawSpreadsheetGenerator13drawRectangleERKNS_16RVNGPropertyListE
librevenge-generators-0.0.so.0:_ZN10librevenge27RVNGRawSpreadsheetGenerator13openParagraphERKNS_16RVNGPropertyListE
librevenge-generators-0.0.so.0:_ZN10librevenge27RVNGRawSpreadsheetGenerator13openSheetCellERKNS_16RVNGPropertyListE
librevenge-generators-0.0.so.0:_ZN10librevenge27RVNGRawSpreadsheetGenerator13openTableCellERKNS_16RVNGPropertyListE
librevenge-generators-0.0.so.0:_ZN10librevenge27RVNGRawSpreadsheetGenerator13startDocumentERKNS_16RVNGPropertyListE
librevenge-generators-0.0.so.0:_ZN10librevenge27RVNGRawSpreadsheetGenerator14closeParagraphEv
librevenge-generators-0.0.so.0:_ZN10librevenge27RVNGRawSpreadsheetGenerator14closeSheetCellEv
librevenge-generators-0.0.so.0:_ZN10librevenge27RVNGRawSpreadsheetGenerator14closeTableCellEv
librevenge-generators-0.0.so.0:_ZN10librevenge27RVNGRawSpreadsheetGenerator14insertEquationERKNS_16RVNGPropertyListE
librevenge-generators-0.0.so.0:_ZN10librevenge27RVNGRawSpreadsheetGenerator14openChartSerieERKNS_16RVNGPropertyListE
librevenge-generators-0.0.so.0:_ZN10librevenge27RVNGRawSpreadsheetGenerator15closeChartSerieEv
librevenge-generators-0.0.so.0:_ZN10librevenge27RVNGRawSpreadsheetGenerator15definePageStyleERKNS_16RVNGPropertyListE
librevenge-generators-0.0.so.0:_ZN10librevenge27RVNGRawSpreadsheetGenerator15insertChartAxisERKNS_16RVNGPropertyListE
librevenge-generators-0.0.so.0:_ZN10librevenge27RVNGRawSpreadsheetGenerator15insertLineBreakEv
librevenge-generators-0.0.so.0:_ZN10librevenge27RVNGRawSpreadsheetGenerator15openListElementERKNS_16RVNGPropertyListE
librevenge-generators-0.0.so.0:_ZN10librevenge27RVNGRawSpreadsheetGenerator16closeListElementEv
librevenge-generators-0.0.so.0:_ZN10librevenge27RVNGRawSpreadsheetGenerator16defineChartStyleERKNS_16RVNGPropertyListE
librevenge-generators-0.0.so.0:_ZN10librevenge27RVNGRawSpreadsheetGenerator17openChartPlotAreaERKNS_16RVNGPropertyListE
librevenge-generators-0.0.so.0:_ZN10librevenge27RVNGRawSpreadsheetGenerator18closeChartPlotAreaEv
librevenge-generators-0.0.so.0:_ZN10librevenge27RVNGRawSpreadsheetGenerator18defineEmbeddedFontERKNS_16RVNGPropertyListE
librevenge-generators-0.0.so.0:_ZN10librevenge27RVNGRawSpreadsheetGenerator18defineGraphicStyleERKNS_16RVNGPropertyListE
librevenge-generators-0.0.so.0:_ZN10librevenge27RVNGRawSpreadsheetGenerator18defineSectionStyleERKNS_16RVNGPropertyListE
librevenge-generators-0.0.so.0:_ZN10librevenge27RVNGRawSpreadsheetGenerator18insertBinaryObjectERKNS_16RVNGPropertyListE
librevenge-generators-0.0.so.0:_ZN10librevenge27RVNGRawSpreadsheetGenerator19openChartTextObjectERKNS_16RVNGPropertyListE
librevenge-generators-0.0.so.0:_ZN10librevenge27RVNGRawSpreadsheetGenerator19setDocumentMetaDataERKNS_16RVNGPropertyListE
librevenge-generators-0.0.so.0:_ZN10librevenge27RVNGRawSpreadsheetGenerator20closeChartTextObjectEv
librevenge-generators-0.0.so.0:_ZN10librevenge27RVNGRawSpreadsheetGenerator20defineCharacterStyleERKNS_16RVNGPropertyListE
librevenge-generators-0.0.so.0:_ZN10librevenge27RVNGRawSpreadsheetGenerator20defineParagraphStyleERKNS_16RVNGPropertyListE
librevenge-generators-0.0.so.0:_ZN10librevenge27RVNGRawSpreadsheetGenerator20openOrderedListLevelERKNS_16RVNGPropertyListE
librevenge-generators-0.0.so.0:_ZN10librevenge27RVNGRawSpreadsheetGenerator21closeOrderedListLevelEv
librevenge-generators-0.0.so.0:_ZN10librevenge27RVNGRawSpreadsheetGenerator22insertCoveredTableCellERKNS_16RVNGPropertyListE
librevenge-generators-0.0.so.0:_ZN10librevenge27RVNGRawSpreadsheetGenerator22openUnorderedListLevelERKNS_16RVNGPropertyListE
librevenge-generators-0.0.so.0:_ZN10librevenge27RVNGRawSpreadsheetGenerator23closeUnorderedListLevelEv
librevenge-generators-0.0.so.0:_ZN10librevenge27RVNGRawSpreadsheetGenerator25defineSheetNumberingStyleERKNS_16RVNGPropertyListE
librevenge-generators-0.0.so.0:_ZN10librevenge27RVNGRawSpreadsheetGenerator8drawPathERKNS_16RVNGPropertyListE
librevenge-generators-0.0.so.0:_ZN10librevenge27RVNGRawSpreadsheetGenerator8openLinkERKNS_16RVNGPropertyListE
librevenge-generators-0.0.so.0:_ZN10librevenge27RVNGRawSpreadsheetGenerator8openSpanERKNS_16RVNGPropertyListE
librevenge-generators-0.0.so.0:_ZN10librevenge27RVNGRawSpreadsheetGenerator9closeLinkEv
librevenge-generators-0.0.so.0:_ZN10librevenge27RVNGRawSpreadsheetGenerator9closeSpanEv
librevenge-generators-0.0.so.0:_ZN10librevenge27RVNGRawSpreadsheetGenerator9insertTabEv
librevenge-generators-0.0.so.0:_ZN10librevenge27RVNGRawSpreadsheetGenerator9openChartERKNS_16RVNGPropertyListE
librevenge-generators-0.0.so.0:_ZN10librevenge27RVNGRawSpreadsheetGenerator9openFrameERKNS_16RVNGPropertyListE
librevenge-generators-0.0.so.0:_ZN10librevenge27RVNGRawSpreadsheetGenerator9openGroupERKNS_16RVNGPropertyListE
librevenge-generators-0.0.so.0:_ZN10librevenge27RVNGRawSpreadsheetGenerator9openSheetERKNS_16RVNGPropertyListE
librevenge-generators-0.0.so.0:_ZN10librevenge27RVNGRawSpreadsheetGenerator9openTableERKNS_16RVNGPropertyListE
librevenge-generators-0.0.so.0:_ZN10librevenge27RVNGRawSpreadsheetGeneratorC1Eb
librevenge-generators-0.0.so.0:_ZN10librevenge27RVNGRawSpreadsheetGeneratorC2Eb
librevenge-generators-0.0.so.0:_ZN10librevenge27RVNGRawSpreadsheetGeneratorD0Ev
librevenge-generators-0.0.so.0:_ZN10librevenge27RVNGRawSpreadsheetGeneratorD1Ev
librevenge-generators-0.0.so.0:_ZN10librevenge27RVNGRawSpreadsheetGeneratorD2Ev
librevenge-generators-0.0.so.0:_ZN10librevenge28RVNGRawPresentationGenerator10closeChartEv
librevenge-generators-0.0.so.0:_ZN10librevenge28RVNGRawPresentationGenerator10closeGroupEv
librevenge-generators-0.0.so.0:_ZN10librevenge28RVNGRawPresentationGenerator10endCommentEv
librevenge-generators-0.0.so.0:_ZN10librevenge28RVNGRawPresentationGenerator10insertTextERKNS_10RVNGStringE
librevenge-generators-0.0.so.0:_ZN10librevenge28RVNGRawPresentationGenerator10startLayerERKNS_16RVNGPropertyListE
librevenge-generators-0.0.so.0:_ZN10librevenge28RVNGRawPresentationGenerator10startNotesERKNS_16RVNGPropertyListE
librevenge-generators-0.0.so.0:_ZN10librevenge28RVNGRawPresentationGenerator10startSlideERKNS_16RVNGPropertyListE
librevenge-generators-0.0.so.0:_ZN10librevenge28RVNGRawPresentationGenerator11drawEllipseERKNS_16RVNGPropertyListE
librevenge-generators-0.0.so.0:_ZN10librevenge28RVNGRawPresentationGenerator11drawPolygonERKNS_16RVNGPropertyListE
librevenge-generators-0.0.so.0:_ZN10librevenge28RVNGRawPresentationGenerator11endDocumentEv
librevenge-generators-0.0.so.0:_ZN10librevenge28RVNGRawPresentationGenerator11insertFieldERKNS_16RVNGPropertyListE
librevenge-generators-0.0.so.0:_ZN10librevenge28RVNGRawPresentationGenerator11insertSpaceEv
librevenge-generators-0.0.so.0:_ZN10librevenge28RVNGRawPresentationGenerator12drawPolylineERKNS_16RVNGPropertyListE
librevenge-generators-0.0.so.0:_ZN10librevenge28RVNGRawPresentationGenerator12insertEffectERKNS_16RVNGPropertyListE
librevenge-generators-0.0.so.0:_ZN10librevenge28RVNGRawPresentationGenerator12openTableRowERKNS_16RVNGPropertyListE
librevenge-generators-0.0.so.0:_ZN10librevenge28RVNGRawPresentationGenerator12startCommentERKNS_16RVNGPropertyListE
librevenge-generators-0.0.so.0:_ZN10librevenge28RVNGRawPresentationGenerator13closeTableRowEv
librevenge-generators-0.0.so.0:_ZN10librevenge28RVNGRawPresentationGenerator13drawConnectorERKNS_16RVNGPropertyListE
librevenge-generators-0.0.so.0:_ZN10librevenge28RVNGRawPresentationGenerator13drawRectangleERKNS_16RVNGPropertyListE
librevenge-generators-0.0.so.0:_ZN10librevenge28RVNGRawPresentationGenerator13endTextObjectEv
librevenge-generators-0.0.so.0:_ZN10librevenge28RVNGRawPresentationGenerator13openParagraphERKNS_16RVNGPropertyListE
librevenge-generators-0.0.so.0:_ZN10librevenge28RVNGRawPresentationGenerator13openTableCellERKNS_16RVNGPropertyListE
librevenge-generators-0.0.so.0:_ZN10librevenge28RVNGRawPresentationGenerator13startDocumentERKNS_16RVNGPropertyListE
librevenge-generators-0.0.so.0:_ZN10librevenge28RVNGRawPresentationGenerator14closeParagraphEv
librevenge-generators-0.0.so.0:_ZN10librevenge28RVNGRawPresentationGenerator14closeTableCellEv
librevenge-generators-0.0.so.0:_ZN10librevenge28RVNGRawPresentationGenerator14endMasterSlideEv
librevenge-generators-0.0.so.0:_ZN10librevenge28RVNGRawPresentationGenerator14endTableObjectEv
librevenge-generators-0.0.so.0:_ZN10librevenge28RVNGRawPresentationGenerator15insertAnimationERKNS_16RVNGPropertyListE
librevenge-generators-0.0.so.0:_ZN10librevenge28RVNGRawPresentationGenerator15insertChartAxisERKNS_16RVNGPropertyListE
librevenge-generators-0.0.so.0:_ZN10librevenge28RVNGRawPresentationGenerator15insertLineBreakEv
librevenge-generators-0.0.so.0:_ZN10librevenge28RVNGRawPresentationGenerator15openChartSeriesERKNS_16RVNGPropertyListE
librevenge-generators-0.0.so.0:_ZN10librevenge28RVNGRawPresentationGenerator15openListElementERKNS_16RVNGPropertyListE
librevenge-generators-0.0.so.0:_ZN10librevenge28RVNGRawPresentationGenerator15startTextObjectERKNS_16RVNGPropertyListE
librevenge-generators-0.0.so.0:_ZN10librevenge28RVNGRawPresentationGenerator16closeChartSeriesEv
librevenge-generators-0.0.so.0:_ZN10librevenge28RVNGRawPresentationGenerator16closeListElementEv
librevenge-generators-0.0.so.0:_ZN10librevenge28RVNGRawPresentationGenerator16defineChartStyleERKNS_16RVNGPropertyListE
librevenge-generators-0.0.so.0:_ZN10librevenge28RVNGRawPresentationGenerator16startMasterSlideERKNS_16RVNGPropertyListE
librevenge-generators-0.0.so.0:_ZN10librevenge28RVNGRawPresentationGenerator16startTableObjectERKNS_16RVNGPropertyListE
librevenge-generators-0.0.so.0:_ZN10librevenge28RVNGRawPresentationGenerator17drawGraphicObjectERKNS_16RVNGPropertyListE
librevenge-generators-0.0.so.0:_ZN10librevenge28RVNGRawPresentationGenerator17openChartPlotAreaERKNS_16RVNGPropertyListE
librevenge-generators-0.0.so.0:_ZN10librevenge28RVNGRawPresentationGenerator18closeChartPlotAreaEv
librevenge-generators-0.0.so.0:_ZN10librevenge28RVNGRawPresentationGenerator18defineEmbeddedFontERKNS_16RVNGPropertyListE
librevenge-generators-0.0.so.0:_ZN10librevenge28RVNGRawPresentationGenerator18openAnimationGroupERKNS_16RVNGPropertyListE
librevenge-generators-0.0.so.0:_ZN10librevenge28RVNGRawPresentationGenerator18setSlideTransitionERKNS_16RVNGPropertyListE
librevenge-generators-0.0.so.0:_ZN10librevenge28RVNGRawPresentationGenerator19closeAnimationGroupEv
librevenge-generators-0.0.so.0:_ZN10librevenge28RVNGRawPresentationGenerator19endEmbeddedGraphicsEv
librevenge-generators-0.0.so.0:_ZN10librevenge28RVNGRawPresentationGenerator19openChartTextObjectERKNS_16RVNGPropertyListE
librevenge-generators-0.0.so.0:_ZN10librevenge28RVNGRawPresentationGenerator19setDocumentMetaDataERKNS_16RVNGPropertyListE
librevenge-generators-0.0.so.0:_ZN10librevenge28RVNGRawPresentationGenerator20closeChartTextObjectEv
librevenge-generators-0.0.so.0:_ZN10librevenge28RVNGRawPresentationGenerator20defineCharacterStyleERKNS_16RVNGPropertyListE
librevenge-generators-0.0.so.0:_ZN10librevenge28RVNGRawPresentationGenerator20defineParagraphStyleERKNS_16RVNGPropertyListE
librevenge-generators-0.0.so.0:_ZN10librevenge28RVNGRawPresentationGenerator20insertColorAnimationERKNS_16RVNGPropertyListE
librevenge-generators-0.0.so.0:_ZN10librevenge28RVNGRawPresentationGenerator20openOrderedListLevelERKNS_16RVNGPropertyListE
librevenge-generators-0.0.so.0:_ZN10librevenge28RVNGRawPresentationGenerator21closeOrderedListLevelEv
librevenge-generators-0.0.so.0:_ZN10librevenge28RVNGRawPresentationGenerator21insertMotionAnimationERKNS_16RVNGPropertyListE
librevenge-generators-0.0.so.0:_ZN10librevenge28RVNGRawPresentationGenerator21openAnimationSequenceERKNS_16RVNGPropertyListE
librevenge-generators-0.0.so.0:_ZN10librevenge28RVNGRawPresentationGenerator21startEmbeddedGraphicsERKNS_16RVNGPropertyListE
librevenge-generators-0.0.so.0:_ZN10librevenge28RVNGRawPresentationGenerator22closeAnimationSequenceEv
librevenge-generators-0.0.so.0:_ZN10librevenge28RVNGRawPresentationGenerator22insertCoveredTableCellERKNS_16RVNGPropertyListE
librevenge-generators-0.0.so.0:_ZN10librevenge28RVNGRawPresentationGenerator22openAnimationIterationERKNS_16RVNGPropertyListE
librevenge-generators-0.0.so.0:_ZN10librevenge28RVNGRawPresentationGenerator22openUnorderedListLevelERKNS_16RVNGPropertyListE
librevenge-generators-0.0.so.0:_ZN10librevenge28RVNGRawPresentationGenerator23closeAnimationIterationEv
librevenge-generators-0.0.so.0:_ZN10librevenge28RVNGRawPresentationGenerator23closeUnorderedListLevelEv
librevenge-generators-0.0.so.0:_ZN10librevenge28RVNGRawPresentationGenerator8drawPathERKNS_16RVNGPropertyListE
librevenge-generators-0.0.so.0:_ZN10librevenge28RVNGRawPresentationGenerator8endLayerEv
librevenge-generators-0.0.so.0:_ZN10librevenge28RVNGRawPresentationGenerator8endNotesEv
librevenge-generators-0.0.so.0:_ZN10librevenge28RVNGRawPresentationGenerator8endSlideEv
librevenge-generators-0.0.so.0:_ZN10librevenge28RVNGRawPresentationGenerator8openLinkERKNS_16RVNGPropertyListE
librevenge-generators-0.0.so.0:_ZN10librevenge28RVNGRawPresentationGenerator8openSpanERKNS_16RVNGPropertyListE
librevenge-generators-0.0.so.0:_ZN10librevenge28RVNGRawPresentationGenerator8setStyleERKNS_16RVNGPropertyListE
librevenge-generators-0.0.so.0:_ZN10librevenge28RVNGRawPresentationGenerator9closeLinkEv
librevenge-generators-0.0.so.0:_ZN10librevenge28RVNGRawPresentationGenerator9closeSpanEv
librevenge-generators-0.0.so.0:_ZN10librevenge28RVNGRawPresentationGenerator9insertTabEv
librevenge-generators-0.0.so.0:_ZN10librevenge28RVNGRawPresentationGenerator9openChartERKNS_16RVNGPropertyListE
librevenge-generators-0.0.so.0:_ZN10librevenge28RVNGRawPresentationGenerator9openGroupERKNS_16RVNGPropertyListE
librevenge-generators-0.0.so.0:_ZN10librevenge28RVNGRawPresentationGeneratorC1Eb
librevenge-generators-0.0.so.0:_ZN10librevenge28RVNGRawPresentationGeneratorC2Eb
librevenge-generators-0.0.so.0:_ZN10librevenge28RVNGRawPresentationGeneratorD0Ev
librevenge-generators-0.0.so.0:_ZN10librevenge28RVNGRawPresentationGeneratorD1Ev
librevenge-generators-0.0.so.0:_ZN10librevenge28RVNGRawPresentationGeneratorD2Ev
librevenge-generators-0.0.so.0:_ZN10librevenge28RVNGSVGPresentationGenerator10closeChartEv
librevenge-generators-0.0.so.0:_ZN10librevenge28RVNGSVGPresentationGenerator10closeGroupEv
librevenge-generators-0.0.so.0:_ZN10librevenge28RVNGSVGPresentationGenerator10endCommentEv
librevenge-generators-0.0.so.0:_ZN10librevenge28RVNGSVGPresentationGenerator10insertTextERKNS_10RVNGStringE
librevenge-generators-0.0.so.0:_ZN10librevenge28RVNGSVGPresentationGenerator10startLayerERKNS_16RVNGPropertyListE
librevenge-generators-0.0.so.0:_ZN10librevenge28RVNGSVGPresentationGenerator10startNotesERKNS_16RVNGPropertyListE
librevenge-generators-0.0.so.0:_ZN10librevenge28RVNGSVGPresentationGenerator10startSlideERKNS_16RVNGPropertyListE
librevenge-generators-0.0.so.0:_ZN10librevenge28RVNGSVGPresentationGenerator11drawEllipseERKNS_16RVNGPropertyListE
librevenge-generators-0.0.so.0:_ZN10librevenge28RVNGSVGPresentationGenerator11drawPolygonERKNS_16RVNGPropertyListE
librevenge-generators-0.0.so.0:_ZN10librevenge28RVNGSVGPresentationGenerator11endDocumentEv
librevenge-generators-0.0.so.0:_ZN10librevenge28RVNGSVGPresentationGenerator11insertFieldERKNS_16RVNGPropertyListE
librevenge-generators-0.0.so.0:_ZN10librevenge28RVNGSVGPresentationGenerator11insertSpaceEv
librevenge-generators-0.0.so.0:_ZN10librevenge28RVNGSVGPresentationGenerator12drawPolylineERKNS_16RVNGPropertyListE
librevenge-generators-0.0.so.0:_ZN10librevenge28RVNGSVGPresentationGenerator12insertEffectERKNS_16RVNGPropertyListE
librevenge-generators-0.0.so.0:_ZN10librevenge28RVNGSVGPresentationGenerator12openTableRowERKNS_16RVNGPropertyListE
librevenge-generators-0.0.so.0:_ZN10librevenge28RVNGSVGPresentationGenerator12startCommentERKNS_16RVNGPropertyListE
librevenge-generators-0.0.so.0:_ZN10librevenge28RVNGSVGPresentationGenerator13closeTableRowEv
librevenge-generators-0.0.so.0:_ZN10librevenge28RVNGSVGPresentationGenerator13drawConnectorERKNS_16RVNGPropertyListE
librevenge-generators-0.0.so.0:_ZN10librevenge28RVNGSVGPresentationGenerator13drawRectangleERKNS_16RVNGPropertyListE
librevenge-generators-0.0.so.0:_ZN10librevenge28RVNGSVGPresentationGenerator13endTextObjectEv
librevenge-generators-0.0.so.0:_ZN10librevenge28RVNGSVGPresentationGenerator13openParagraphERKNS_16RVNGPropertyListE
librevenge-generators-0.0.so.0:_ZN10librevenge28RVNGSVGPresentationGenerator13openTableCellERKNS_16RVNGPropertyListE
librevenge-generators-0.0.so.0:_ZN10librevenge28RVNGSVGPresentationGenerator13startDocumentERKNS_16RVNGPropertyListE
librevenge-generators-0.0.so.0:_ZN10librevenge28RVNGSVGPresentationGenerator14closeParagraphEv
librevenge-generators-0.0.so.0:_ZN10librevenge28RVNGSVGPresentationGenerator14closeTableCellEv
librevenge-generators-0.0.so.0:_ZN10librevenge28RVNGSVGPresentationGenerator14endMasterSlideEv
librevenge-generators-0.0.so.0:_ZN10librevenge28RVNGSVGPresentationGenerator14endTableObjectEv
librevenge-generators-0.0.so.0:_ZN10librevenge28RVNGSVGPresentationGenerator15insertAnimationERKNS_16RVNGPropertyListE
librevenge-generators-0.0.so.0:_ZN10librevenge28RVNGSVGPresentationGenerator15insertChartAxisERKNS_16RVNGPropertyListE
librevenge-generators-0.0.so.0:_ZN10librevenge28RVNGSVGPresentationGenerator15insertLineBreakEv
librevenge-generators-0.0.so.0:_ZN10librevenge28RVNGSVGPresentationGenerator15openChartSeriesERKNS_16RVNGPropertyListE
librevenge-generators-0.0.so.0:_ZN10librevenge28RVNGSVGPresentationGenerator15openListElementERKNS_16RVNGPropertyListE
librevenge-generators-0.0.so.0:_ZN10librevenge28RVNGSVGPresentationGenerator15startTextObjectERKNS_16RVNGPropertyListE
librevenge-generators-0.0.so.0:_ZN10librevenge28RVNGSVGPresentationGenerator16closeChartSeriesEv
librevenge-generators-0.0.so.0:_ZN10librevenge28RVNGSVGPresentationGenerator16closeListElementEv
librevenge-generators-0.0.so.0:_ZN10librevenge28RVNGSVGPresentationGenerator16defineChartStyleERKNS_16RVNGPropertyListE
librevenge-generators-0.0.so.0:_ZN10librevenge28RVNGSVGPresentationGenerator16startMasterSlideERKNS_16RVNGPropertyListE
librevenge-generators-0.0.so.0:_ZN10librevenge28RVNGSVGPresentationGenerator16startTableObjectERKNS_16RVNGPropertyListE
librevenge-generators-0.0.so.0:_ZN10librevenge28RVNGSVGPresentationGenerator17drawGraphicObjectERKNS_16RVNGPropertyListE
librevenge-generators-0.0.so.0:_ZN10librevenge28RVNGSVGPresentationGenerator17openChartPlotAreaERKNS_16RVNGPropertyListE
librevenge-generators-0.0.so.0:_ZN10librevenge28RVNGSVGPresentationGenerator18closeChartPlotAreaEv
librevenge-generators-0.0.so.0:_ZN10librevenge28RVNGSVGPresentationGenerator18defineEmbeddedFontERKNS_16RVNGPropertyListE
librevenge-generators-0.0.so.0:_ZN10librevenge28RVNGSVGPresentationGenerator18openAnimationGroupERKNS_16RVNGPropertyListE
librevenge-generators-0.0.so.0:_ZN10librevenge28RVNGSVGPresentationGenerator18setSlideTransitionERKNS_16RVNGPropertyListE
librevenge-generators-0.0.so.0:_ZN10librevenge28RVNGSVGPresentationGenerator19closeAnimationGroupEv
librevenge-generators-0.0.so.0:_ZN10librevenge28RVNGSVGPresentationGenerator19endEmbeddedGraphicsEv
librevenge-generators-0.0.so.0:_ZN10librevenge28RVNGSVGPresentationGenerator19openChartTextObjectERKNS_16RVNGPropertyListE
librevenge-generators-0.0.so.0:_ZN10librevenge28RVNGSVGPresentationGenerator19setDocumentMetaDataERKNS_16RVNGPropertyListE
librevenge-generators-0.0.so.0:_ZN10librevenge28RVNGSVGPresentationGenerator20closeChartTextObjectEv
librevenge-generators-0.0.so.0:_ZN10librevenge28RVNGSVGPresentationGenerator20defineCharacterStyleERKNS_16RVNGPropertyListE
librevenge-generators-0.0.so.0:_ZN10librevenge28RVNGSVGPresentationGenerator20defineParagraphStyleERKNS_16RVNGPropertyListE
librevenge-generators-0.0.so.0:_ZN10librevenge28RVNGSVGPresentationGenerator20insertColorAnimationERKNS_16RVNGPropertyListE
librevenge-generators-0.0.so.0:_ZN10librevenge28RVNGSVGPresentationGenerator20openOrderedListLevelERKNS_16RVNGPropertyListE
librevenge-generators-0.0.so.0:_ZN10librevenge28RVNGSVGPresentationGenerator21closeOrderedListLevelEv
librevenge-generators-0.0.so.0:_ZN10librevenge28RVNGSVGPresentationGenerator21insertMotionAnimationERKNS_16RVNGPropertyListE
librevenge-generators-0.0.so.0:_ZN10librevenge28RVNGSVGPresentationGenerator21openAnimationSequenceERKNS_16RVNGPropertyListE
librevenge-generators-0.0.so.0:_ZN10librevenge28RVNGSVGPresentationGenerator21startEmbeddedGraphicsERKNS_16RVNGPropertyListE
librevenge-generators-0.0.so.0:_ZN10librevenge28RVNGSVGPresentationGenerator22closeAnimationSequenceEv
librevenge-generators-0.0.so.0:_ZN10librevenge28RVNGSVGPresentationGenerator22insertCoveredTableCellERKNS_16RVNGPropertyListE
librevenge-generators-0.0.so.0:_ZN10librevenge28RVNGSVGPresentationGenerator22openAnimationIterationERKNS_16RVNGPropertyListE
librevenge-generators-0.0.so.0:_ZN10librevenge28RVNGSVGPresentationGenerator22openUnorderedListLevelERKNS_16RVNGPropertyListE
librevenge-generators-0.0.so.0:_ZN10librevenge28RVNGSVGPresentationGenerator23closeAnimationIterationEv
librevenge-generators-0.0.so.0:_ZN10librevenge28RVNGSVGPresentationGenerator23closeUnorderedListLevelEv
librevenge-generators-0.0.so.0:_ZN10librevenge28RVNGSVGPresentationGenerator8drawPathERKNS_16RVNGPropertyListE
librevenge-generators-0.0.so.0:_ZN10librevenge28RVNGSVGPresentationGenerator8endLayerEv
librevenge-generators-0.0.so.0:_ZN10librevenge28RVNGSVGPresentationGenerator8endNotesEv
librevenge-generators-0.0.so.0:_ZN10librevenge28RVNGSVGPresentationGenerator8endSlideEv
librevenge-generators-0.0.so.0:_ZN10librevenge28RVNGSVGPresentationGenerator8openLinkERKNS_16RVNGPropertyListE
librevenge-generators-0.0.so.0:_ZN10librevenge28RVNGSVGPresentationGenerator8openSpanERKNS_16RVNGPropertyListE
librevenge-generators-0.0.so.0:_ZN10librevenge28RVNGSVGPresentationGenerator8setStyleERKNS_16RVNGPropertyListE
librevenge-generators-0.0.so.0:_ZN10librevenge28RVNGSVGPresentationGenerator9closeLinkEv
librevenge-generators-0.0.so.0:_ZN10librevenge28RVNGSVGPresentationGenerator9closeSpanEv
librevenge-generators-0.0.so.0:_ZN10librevenge28RVNGSVGPresentationGenerator9insertTabEv
librevenge-generators-0.0.so.0:_ZN10librevenge28RVNGSVGPresentationGenerator9openChartERKNS_16RVNGPropertyListE
librevenge-generators-0.0.so.0:_ZN10librevenge28RVNGSVGPresentationGenerator9openGroupERKNS_16RVNGPropertyListE
librevenge-generators-0.0.so.0:_ZN10librevenge28RVNGSVGPresentationGeneratorC1ERNS_16RVNGStringVectorE
librevenge-generators-0.0.so.0:_ZN10librevenge28RVNGSVGPresentationGeneratorC2ERNS_16RVNGStringVectorE
librevenge-generators-0.0.so.0:_ZN10librevenge28RVNGSVGPresentationGeneratorD0Ev
librevenge-generators-0.0.so.0:_ZN10librevenge28RVNGSVGPresentationGeneratorD1Ev
librevenge-generators-0.0.so.0:_ZN10librevenge28RVNGSVGPresentationGeneratorD2Ev
librevenge-generators-0.0.so.0:_ZN10librevenge28RVNGTextSpreadsheetGenerator10closeChartEv
librevenge-generators-0.0.so.0:_ZN10librevenge28RVNGTextSpreadsheetGenerator10closeFrameEv
librevenge-generators-0.0.so.0:_ZN10librevenge28RVNGTextSpreadsheetGenerator10closeGroupEv
librevenge-generators-0.0.so.0:_ZN10librevenge28RVNGTextSpreadsheetGenerator10closeSheetEv
librevenge-generators-0.0.so.0:_ZN10librevenge28RVNGTextSpreadsheetGenerator10closeTableEv
librevenge-generators-0.0.so.0:_ZN10librevenge28RVNGTextSpreadsheetGenerator10insertTextERKNS_10RVNGStringE
librevenge-generators-0.0.so.0:_ZN10librevenge28RVNGTextSpreadsheetGenerator10openFooterERKNS_16RVNGPropertyListE
librevenge-generators-0.0.so.0:_ZN10librevenge28RVNGTextSpreadsheetGenerator10openHeaderERKNS_16RVNGPropertyListE
librevenge-generators-0.0.so.0:_ZN10librevenge28RVNGTextSpreadsheetGenerator11closeFooterEv
librevenge-generators-0.0.so.0:_ZN10librevenge28RVNGTextSpreadsheetGenerator11closeHeaderEv
librevenge-generators-0.0.so.0:_ZN10librevenge28RVNGTextSpreadsheetGenerator11drawEllipseERKNS_16RVNGPropertyListE
librevenge-generators-0.0.so.0:_ZN10librevenge28RVNGTextSpreadsheetGenerator11drawPolygonERKNS_16RVNGPropertyListE
librevenge-generators-0.0.so.0:_ZN10librevenge28RVNGTextSpreadsheetGenerator11endDocumentEv
librevenge-generators-0.0.so.0:_ZN10librevenge28RVNGTextSpreadsheetGenerator11insertFieldERKNS_16RVNGPropertyListE
librevenge-generators-0.0.so.0:_ZN10librevenge28RVNGTextSpreadsheetGenerator11insertSpaceEv
librevenge-generators-0.0.so.0:_ZN10librevenge28RVNGTextSpreadsheetGenerator11openCommentERKNS_16RVNGPropertyListE
librevenge-generators-0.0.so.0:_ZN10librevenge28RVNGTextSpreadsheetGenerator11openEndnoteERKNS_16RVNGPropertyListE
librevenge-generators-0.0.so.0:_ZN10librevenge28RVNGTextSpreadsheetGenerator11openSectionERKNS_16RVNGPropertyListE
librevenge-generators-0.0.so.0:_ZN10librevenge28RVNGTextSpreadsheetGenerator11openTextBoxERKNS_16RVNGPropertyListE
librevenge-generators-0.0.so.0:_ZN10librevenge28RVNGTextSpreadsheetGenerator12closeCommentEv
librevenge-generators-0.0.so.0:_ZN10librevenge28RVNGTextSpreadsheetGenerator12closeEndnoteEv
librevenge-generators-0.0.so.0:_ZN10librevenge28RVNGTextSpreadsheetGenerator12closeSectionEv
librevenge-generators-0.0.so.0:_ZN10librevenge28RVNGTextSpreadsheetGenerator12closeTextBoxEv
librevenge-generators-0.0.so.0:_ZN10librevenge28RVNGTextSpreadsheetGenerator12drawPolylineERKNS_16RVNGPropertyListE
librevenge-generators-0.0.so.0:_ZN10librevenge28RVNGTextSpreadsheetGenerator12openFootnoteERKNS_16RVNGPropertyListE
librevenge-generators-0.0.so.0:_ZN10librevenge28RVNGTextSpreadsheetGenerator12openPageSpanERKNS_16RVNGPropertyListE
librevenge-generators-0.0.so.0:_ZN10librevenge28RVNGTextSpreadsheetGenerator12openSheetRowERKNS_16RVNGPropertyListE
librevenge-generators-0.0.so.0:_ZN10librevenge28RVNGTextSpreadsheetGenerator12openTableRowERKNS_16RVNGPropertyListE
librevenge-generators-0.0.so.0:_ZN10librevenge28RVNGTextSpreadsheetGenerator13closeFootnoteEv
librevenge-generators-0.0.so.0:_ZN10librevenge28RVNGTextSpreadsheetGenerator13closePageSpanEv
librevenge-generators-0.0.so.0:_ZN10librevenge28RVNGTextSpreadsheetGenerator13closeSheetRowEv
librevenge-generators-0.0.so.0:_ZN10librevenge28RVNGTextSpreadsheetGenerator13closeTableRowEv
librevenge-generators-0.0.so.0:_ZN10librevenge28RVNGTextSpreadsheetGenerator13drawConnectorERKNS_16RVNGPropertyListE
librevenge-generators-0.0.so.0:_ZN10librevenge28RVNGTextSpreadsheetGenerator13drawRectangleERKNS_16RVNGPropertyListE
librevenge-generators-0.0.so.0:_ZN10librevenge28RVNGTextSpreadsheetGenerator13openParagraphERKNS_16RVNGPropertyListE
librevenge-generators-0.0.so.0:_ZN10librevenge28RVNGTextSpreadsheetGenerator13openSheetCellERKNS_16RVNGPropertyListE
librevenge-generators-0.0.so.0:_ZN10librevenge28RVNGTextSpreadsheetGenerator13openTableCellERKNS_16RVNGPropertyListE
librevenge-generators-0.0.so.0:_ZN10librevenge28RVNGTextSpreadsheetGenerator13startDocumentERKNS_16RVNGPropertyListE
librevenge-generators-0.0.so.0:_ZN10librevenge28RVNGTextSpreadsheetGenerator14closeParagraphEv
librevenge-generators-0.0.so.0:_ZN10librevenge28RVNGTextSpreadsheetGenerator14closeSheetCellEv
librevenge-generators-0.0.so.0:_ZN10librevenge28RVNGTextSpreadsheetGenerator14closeTableCellEv
librevenge-generators-0.0.so.0:_ZN10librevenge28RVNGTextSpreadsheetGenerator14insertEquationERKNS_16RVNGPropertyListE
librevenge-generators-0.0.so.0:_ZN10librevenge28RVNGTextSpreadsheetGenerator14openChartSerieERKNS_16RVNGPropertyListE
librevenge-generators-0.0.so.0:_ZN10librevenge28RVNGTextSpreadsheetGenerator15closeChartSerieEv
librevenge-generators-0.0.so.0:_ZN10librevenge28RVNGTextSpreadsheetGenerator15definePageStyleERKNS_16RVNGPropertyListE
librevenge-generators-0.0.so.0:_ZN10librevenge28RVNGTextSpreadsheetGenerator15insertChartAxisERKNS_16RVNGPropertyListE
librevenge-generators-0.0.so.0:_ZN10librevenge28RVNGTextSpreadsheetGenerator15insertLineBreakEv
librevenge-generators-0.0.so.0:_ZN10librevenge28RVNGTextSpreadsheetGenerator15openListElementERKNS_16RVNGPropertyListE
librevenge-generators-0.0.so.0:_ZN10librevenge28RVNGTextSpreadsheetGenerator16closeListElementEv
librevenge-generators-0.0.so.0:_ZN10librevenge28RVNGTextSpreadsheetGenerator16defineChartStyleERKNS_16RVNGPropertyListE
librevenge-generators-0.0.so.0:_ZN10librevenge28RVNGTextSpreadsheetGenerator17openChartPlotAreaERKNS_16RVNGPropertyListE
librevenge-generators-0.0.so.0:_ZN10librevenge28RVNGTextSpreadsheetGenerator18closeChartPlotAreaEv
librevenge-generators-0.0.so.0:_ZN10librevenge28RVNGTextSpreadsheetGenerator18defineEmbeddedFontERKNS_16RVNGPropertyListE
librevenge-generators-0.0.so.0:_ZN10librevenge28RVNGTextSpreadsheetGenerator18defineGraphicStyleERKNS_16RVNGPropertyListE
librevenge-generators-0.0.so.0:_ZN10librevenge28RVNGTextSpreadsheetGenerator18defineSectionStyleERKNS_16RVNGPropertyListE
librevenge-generators-0.0.so.0:_ZN10librevenge28RVNGTextSpreadsheetGenerator18insertBinaryObjectERKNS_16RVNGPropertyListE
librevenge-generators-0.0.so.0:_ZN10librevenge28RVNGTextSpreadsheetGenerator19openChartTextObjectERKNS_16RVNGPropertyListE
librevenge-generators-0.0.so.0:_ZN10librevenge28RVNGTextSpreadsheetGenerator19setDocumentMetaDataERKNS_16RVNGPropertyListE
librevenge-generators-0.0.so.0:_ZN10librevenge28RVNGTextSpreadsheetGenerator20closeChartTextObjectEv
librevenge-generators-0.0.so.0:_ZN10librevenge28RVNGTextSpreadsheetGenerator20defineCharacterStyleERKNS_16RVNGPropertyListE
librevenge-generators-0.0.so.0:_ZN10librevenge28RVNGTextSpreadsheetGenerator20defineParagraphStyleERKNS_16RVNGPropertyListE
librevenge-generators-0.0.so.0:_ZN10librevenge28RVNGTextSpreadsheetGenerator20openOrderedListLevelERKNS_16RVNGPropertyListE
librevenge-generators-0.0.so.0:_ZN10librevenge28RVNGTextSpreadsheetGenerator21closeOrderedListLevelEv
librevenge-generators-0.0.so.0:_ZN10librevenge28RVNGTextSpreadsheetGenerator22insertCoveredTableCellERKNS_16RVNGPropertyListE
librevenge-generators-0.0.so.0:_ZN10librevenge28RVNGTextSpreadsheetGenerator22openUnorderedListLevelERKNS_16RVNGPropertyListE
librevenge-generators-0.0.so.0:_ZN10librevenge28RVNGTextSpreadsheetGenerator23closeUnorderedListLevelEv
librevenge-generators-0.0.so.0:_ZN10librevenge28RVNGTextSpreadsheetGenerator25defineSheetNumberingStyleERKNS_16RVNGPropertyListE
librevenge-generators-0.0.so.0:_ZN10librevenge28RVNGTextSpreadsheetGenerator8drawPathERKNS_16RVNGPropertyListE
librevenge-generators-0.0.so.0:_ZN10librevenge28RVNGTextSpreadsheetGenerator8openLinkERKNS_16RVNGPropertyListE
librevenge-generators-0.0.so.0:_ZN10librevenge28RVNGTextSpreadsheetGenerator8openSpanERKNS_16RVNGPropertyListE
librevenge-generators-0.0.so.0:_ZN10librevenge28RVNGTextSpreadsheetGenerator9closeLinkEv
librevenge-generators-0.0.so.0:_ZN10librevenge28RVNGTextSpreadsheetGenerator9closeSpanEv
librevenge-generators-0.0.so.0:_ZN10librevenge28RVNGTextSpreadsheetGenerator9insertTabEv
librevenge-generators-0.0.so.0:_ZN10librevenge28RVNGTextSpreadsheetGenerator9openChartERKNS_16RVNGPropertyListE
librevenge-generators-0.0.so.0:_ZN10librevenge28RVNGTextSpreadsheetGenerator9openFrameERKNS_16RVNGPropertyListE
librevenge-generators-0.0.so.0:_ZN10librevenge28RVNGTextSpreadsheetGenerator9openGroupERKNS_16RVNGPropertyListE
librevenge-generators-0.0.so.0:_ZN10librevenge28RVNGTextSpreadsheetGenerator9openSheetERKNS_16RVNGPropertyListE
librevenge-generators-0.0.so.0:_ZN10librevenge28RVNGTextSpreadsheetGenerator9openTableERKNS_16RVNGPropertyListE
librevenge-generators-0.0.so.0:_ZN10librevenge28RVNGTextSpreadsheetGeneratorC1ERNS_16RVNGStringVectorEb
librevenge-generators-0.0.so.0:_ZN10librevenge28RVNGTextSpreadsheetGeneratorC2ERNS_16RVNGStringVectorEb
librevenge-generators-0.0.so.0:_ZN10librevenge28RVNGTextSpreadsheetGeneratorD0Ev
librevenge-generators-0.0.so.0:_ZN10librevenge28RVNGTextSpreadsheetGeneratorD1Ev
librevenge-generators-0.0.so.0:_ZN10librevenge28RVNGTextSpreadsheetGeneratorD2Ev
librevenge-generators-0.0.so.0:_ZN10librevenge29RVNGTextPresentationGenerator10closeChartEv
librevenge-generators-0.0.so.0:_ZN10librevenge29RVNGTextPresentationGenerator10closeGroupEv
librevenge-generators-0.0.so.0:_ZN10librevenge29RVNGTextPresentationGenerator10endCommentEv
librevenge-generators-0.0.so.0:_ZN10librevenge29RVNGTextPresentationGenerator10insertTextERKNS_10RVNGStringE
librevenge-generators-0.0.so.0:_ZN10librevenge29RVNGTextPresentationGenerator10startLayerERKNS_16RVNGPropertyListE
librevenge-generators-0.0.so.0:_ZN10librevenge29RVNGTextPresentationGenerator10startNotesERKNS_16RVNGPropertyListE
librevenge-generators-0.0.so.0:_ZN10librevenge29RVNGTextPresentationGenerator10startSlideERKNS_16RVNGPropertyListE
librevenge-generators-0.0.so.0:_ZN10librevenge29RVNGTextPresentationGenerator11drawEllipseERKNS_16RVNGPropertyListE
librevenge-generators-0.0.so.0:_ZN10librevenge29RVNGTextPresentationGenerator11drawPolygonERKNS_16RVNGPropertyListE
librevenge-generators-0.0.so.0:_ZN10librevenge29RVNGTextPresentationGenerator11endDocumentEv
librevenge-generators-0.0.so.0:_ZN10librevenge29RVNGTextPresentationGenerator11insertFieldERKNS_16RVNGPropertyListE
librevenge-generators-0.0.so.0:_ZN10librevenge29RVNGTextPresentationGenerator11insertSpaceEv
librevenge-generators-0.0.so.0:_ZN10librevenge29RVNGTextPresentationGenerator12drawPolylineERKNS_16RVNGPropertyListE
librevenge-generators-0.0.so.0:_ZN10librevenge29RVNGTextPresentationGenerator12insertEffectERKNS_16RVNGPropertyListE
librevenge-generators-0.0.so.0:_ZN10librevenge29RVNGTextPresentationGenerator12openTableRowERKNS_16RVNGPropertyListE
librevenge-generators-0.0.so.0:_ZN10librevenge29RVNGTextPresentationGenerator12startCommentERKNS_16RVNGPropertyListE
librevenge-generators-0.0.so.0:_ZN10librevenge29RVNGTextPresentationGenerator13closeTableRowEv
librevenge-generators-0.0.so.0:_ZN10librevenge29RVNGTextPresentationGenerator13drawConnectorERKNS_16RVNGPropertyListE
librevenge-generators-0.0.so.0:_ZN10librevenge29RVNGTextPresentationGenerator13drawRectangleERKNS_16RVNGPropertyListE
librevenge-generators-0.0.so.0:_ZN10librevenge29RVNGTextPresentationGenerator13endTextObjectEv
librevenge-generators-0.0.so.0:_ZN10librevenge29RVNGTextPresentationGenerator13openParagraphERKNS_16RVNGPropertyListE
librevenge-generators-0.0.so.0:_ZN10librevenge29RVNGTextPresentationGenerator13openTableCellERKNS_16RVNGPropertyListE
librevenge-generators-0.0.so.0:_ZN10librevenge29RVNGTextPresentationGenerator13startDocumentERKNS_16RVNGPropertyListE
librevenge-generators-0.0.so.0:_ZN10librevenge29RVNGTextPresentationGenerator14closeParagraphEv
librevenge-generators-0.0.so.0:_ZN10librevenge29RVNGTextPresentationGenerator14closeTableCellEv
librevenge-generators-0.0.so.0:_ZN10librevenge29RVNGTextPresentationGenerator14endMasterSlideEv
librevenge-generators-0.0.so.0:_ZN10librevenge29RVNGTextPresentationGenerator14endTableObjectEv
librevenge-generators-0.0.so.0:_ZN10librevenge29RVNGTextPresentationGenerator15insertAnimationERKNS_16RVNGPropertyListE
librevenge-generators-0.0.so.0:_ZN10librevenge29RVNGTextPresentationGenerator15insertChartAxisERKNS_16RVNGPropertyListE
librevenge-generators-0.0.so.0:_ZN10librevenge29RVNGTextPresentationGenerator15insertLineBreakEv
librevenge-generators-0.0.so.0:_ZN10librevenge29RVNGTextPresentationGenerator15openChartSeriesERKNS_16RVNGPropertyListE
librevenge-generators-0.0.so.0:_ZN10librevenge29RVNGTextPresentationGenerator15openListElementERKNS_16RVNGPropertyListE
librevenge-generators-0.0.so.0:_ZN10librevenge29RVNGTextPresentationGenerator15startTextObjectERKNS_16RVNGPropertyListE
librevenge-generators-0.0.so.0:_ZN10librevenge29RVNGTextPresentationGenerator16closeChartSeriesEv
librevenge-generators-0.0.so.0:_ZN10librevenge29RVNGTextPresentationGenerator16closeListElementEv
librevenge-generators-0.0.so.0:_ZN10librevenge29RVNGTextPresentationGenerator16defineChartStyleERKNS_16RVNGPropertyListE
librevenge-generators-0.0.so.0:_ZN10librevenge29RVNGTextPresentationGenerator16startMasterSlideERKNS_16RVNGPropertyListE
librevenge-generators-0.0.so.0:_ZN10librevenge29RVNGTextPresentationGenerator16startTableObjectERKNS_16RVNGPropertyListE
librevenge-generators-0.0.so.0:_ZN10librevenge29RVNGTextPresentationGenerator17drawGraphicObjectERKNS_16RVNGPropertyListE
librevenge-generators-0.0.so.0:_ZN10librevenge29RVNGTextPresentationGenerator17openChartPlotAreaERKNS_16RVNGPropertyListE
librevenge-generators-0.0.so.0:_ZN10librevenge29RVNGTextPresentationGenerator18closeChartPlotAreaEv
librevenge-generators-0.0.so.0:_ZN10librevenge29RVNGTextPresentationGenerator18defineEmbeddedFontERKNS_16RVNGPropertyListE
librevenge-generators-0.0.so.0:_ZN10librevenge29RVNGTextPresentationGenerator18openAnimationGroupERKNS_16RVNGPropertyListE
librevenge-generators-0.0.so.0:_ZN10librevenge29RVNGTextPresentationGenerator18setSlideTransitionERKNS_16RVNGPropertyListE
librevenge-generators-0.0.so.0:_ZN10librevenge29RVNGTextPresentationGenerator19closeAnimationGroupEv
librevenge-generators-0.0.so.0:_ZN10librevenge29RVNGTextPresentationGenerator19endEmbeddedGraphicsEv
librevenge-generators-0.0.so.0:_ZN10librevenge29RVNGTextPresentationGenerator19openChartTextObjectERKNS_16RVNGPropertyListE
librevenge-generators-0.0.so.0:_ZN10librevenge29RVNGTextPresentationGenerator19setDocumentMetaDataERKNS_16RVNGPropertyListE
librevenge-generators-0.0.so.0:_ZN10librevenge29RVNGTextPresentationGenerator20closeChartTextObjectEv
librevenge-generators-0.0.so.0:_ZN10librevenge29RVNGTextPresentationGenerator20defineCharacterStyleERKNS_16RVNGPropertyListE
librevenge-generators-0.0.so.0:_ZN10librevenge29RVNGTextPresentationGenerator20defineParagraphStyleERKNS_16RVNGPropertyListE
librevenge-generators-0.0.so.0:_ZN10librevenge29RVNGTextPresentationGenerator20insertColorAnimationERKNS_16RVNGPropertyListE
librevenge-generators-0.0.so.0:_ZN10librevenge29RVNGTextPresentationGenerator20openOrderedListLevelERKNS_16RVNGPropertyListE
librevenge-generators-0.0.so.0:_ZN10librevenge29RVNGTextPresentationGenerator21closeOrderedListLevelEv
librevenge-generators-0.0.so.0:_ZN10librevenge29RVNGTextPresentationGenerator21insertMotionAnimationERKNS_16RVNGPropertyListE
librevenge-generators-0.0.so.0:_ZN10librevenge29RVNGTextPresentationGenerator21openAnimationSequenceERKNS_16RVNGPropertyListE
librevenge-generators-0.0.so.0:_ZN10librevenge29RVNGTextPresentationGenerator21startEmbeddedGraphicsERKNS_16RVNGPropertyListE
librevenge-generators-0.0.so.0:_ZN10librevenge29RVNGTextPresentationGenerator22closeAnimationSequenceEv
librevenge-generators-0.0.so.0:_ZN10librevenge29RVNGTextPresentationGenerator22insertCoveredTableCellERKNS_16RVNGPropertyListE
librevenge-generators-0.0.so.0:_ZN10librevenge29RVNGTextPresentationGenerator22openAnimationIterationERKNS_16RVNGPropertyListE
librevenge-generators-0.0.so.0:_ZN10librevenge29RVNGTextPresentationGenerator22openUnorderedListLevelERKNS_16RVNGPropertyListE
librevenge-generators-0.0.so.0:_ZN10librevenge29RVNGTextPresentationGenerator23closeAnimationIterationEv
librevenge-generators-0.0.so.0:_ZN10librevenge29RVNGTextPresentationGenerator23closeUnorderedListLevelEv
librevenge-generators-0.0.so.0:_ZN10librevenge29RVNGTextPresentationGenerator8drawPathERKNS_16RVNGPropertyListE
librevenge-generators-0.0.so.0:_ZN10librevenge29RVNGTextPresentationGenerator8endLayerEv
librevenge-generators-0.0.so.0:_ZN10librevenge29RVNGTextPresentationGenerator8endNotesEv
librevenge-generators-0.0.so.0:_ZN10librevenge29RVNGTextPresentationGenerator8endSlideEv
librevenge-generators-0.0.so.0:_ZN10librevenge29RVNGTextPresentationGenerator8openLinkERKNS_16RVNGPropertyListE
librevenge-generators-0.0.so.0:_ZN10librevenge29RVNGTextPresentationGenerator8openSpanERKNS_16RVNGPropertyListE
librevenge-generators-0.0.so.0:_ZN10librevenge29RVNGTextPresentationGenerator8setStyleERKNS_16RVNGPropertyListE
librevenge-generators-0.0.so.0:_ZN10librevenge29RVNGTextPresentationGenerator9closeLinkEv
librevenge-generators-0.0.so.0:_ZN10librevenge29RVNGTextPresentationGenerator9closeSpanEv
librevenge-generators-0.0.so.0:_ZN10librevenge29RVNGTextPresentationGenerator9insertTabEv
librevenge-generators-0.0.so.0:_ZN10librevenge29RVNGTextPresentationGenerator9openChartERKNS_16RVNGPropertyListE
librevenge-generators-0.0.so.0:_ZN10librevenge29RVNGTextPresentationGenerator9openGroupERKNS_16RVNGPropertyListE
librevenge-generators-0.0.so.0:_ZN10librevenge29RVNGTextPresentationGeneratorC1ERNS_16RVNGStringVectorE
librevenge-generators-0.0.so.0:_ZN10librevenge29RVNGTextPresentationGeneratorC2ERNS_16RVNGStringVectorE
librevenge-generators-0.0.so.0:_ZN10librevenge29RVNGTextPresentationGeneratorD0Ev
librevenge-generators-0.0.so.0:_ZN10librevenge29RVNGTextPresentationGeneratorD1Ev
librevenge-generators-0.0.so.0:_ZN10librevenge29RVNGTextPresentationGeneratorD2Ev
librevenge-stream-0.0.so.0:_ZN10librevenge14RVNGFileStream12isStructuredEv
librevenge-stream-0.0.so.0:_ZN10librevenge14RVNGFileStream13subStreamNameEj
librevenge-stream-0.0.so.0:_ZN10librevenge14RVNGFileStream14subStreamCountEv
librevenge-stream-0.0.so.0:_ZN10librevenge14RVNGFileStream15existsSubStreamEPKc
librevenge-stream-0.0.so.0:_ZN10librevenge14RVNGFileStream16getSubStreamByIdEj
librevenge-stream-0.0.so.0:_ZN10librevenge14RVNGFileStream18getSubStreamByNameEPKc
librevenge-stream-0.0.so.0:_ZN10librevenge14RVNGFileStream4readEmRm
librevenge-stream-0.0.so.0:_ZN10librevenge14RVNGFileStream4seekElNS_14RVNG_SEEK_TYPEE
librevenge-stream-0.0.so.0:_ZN10librevenge14RVNGFileStream4tellEv
librevenge-stream-0.0.so.0:_ZN10librevenge14RVNGFileStream5isEndEv
librevenge-stream-0.0.so.0:_ZN10librevenge14RVNGFileStreamC1EPKc
librevenge-stream-0.0.so.0:_ZN10librevenge14RVNGFileStreamC2EPKc
librevenge-stream-0.0.so.0:_ZN10librevenge14RVNGFileStreamD0Ev
librevenge-stream-0.0.so.0:_ZN10librevenge14RVNGFileStreamD1Ev
librevenge-stream-0.0.so.0:_ZN10librevenge14RVNGFileStreamD2Ev
librevenge-stream-0.0.so.0:_ZN10librevenge16RVNGStringStream12isStructuredEv
librevenge-stream-0.0.so.0:_ZN10librevenge16RVNGStringStream13subStreamNameEj
librevenge-stream-0.0.so.0:_ZN10librevenge16RVNGStringStream14subStreamCountEv
librevenge-stream-0.0.so.0:_ZN10librevenge16RVNGStringStream15existsSubStreamEPKc
librevenge-stream-0.0.so.0:_ZN10librevenge16RVNGStringStream16getSubStreamByIdEj
librevenge-stream-0.0.so.0:_ZN10librevenge16RVNGStringStream18getSubStreamByNameEPKc
librevenge-stream-0.0.so.0:_ZN10librevenge16RVNGStringStream4readEmRm
librevenge-stream-0.0.so.0:_ZN10librevenge16RVNGStringStream4seekElNS_14RVNG_SEEK_TYPEE
librevenge-stream-0.0.so.0:_ZN10librevenge16RVNGStringStream4tellEv
librevenge-stream-0.0.so.0:_ZN10librevenge16RVNGStringStream5isEndEv
librevenge-stream-0.0.so.0:_ZN10librevenge16RVNGStringStreamC1EPKhj
librevenge-stream-0.0.so.0:_ZN10librevenge16RVNGStringStreamC2EPKhj
librevenge-stream-0.0.so.0:_ZN10librevenge16RVNGStringStreamD0Ev
librevenge-stream-0.0.so.0:_ZN10librevenge16RVNGStringStreamD1Ev
librevenge-stream-0.0.so.0:_ZN10librevenge16RVNGStringStreamD2Ev
librevenge-stream-0.0.so.0:_ZN10librevenge19RVNGDirectoryStream11isDirectoryEPKc
librevenge-stream-0.0.so.0:_ZN10librevenge19RVNGDirectoryStream12isStructuredEv
librevenge-stream-0.0.so.0:_ZN10librevenge19RVNGDirectoryStream13subStreamNameEj
librevenge-stream-0.0.so.0:_ZN10librevenge19RVNGDirectoryStream14subStreamCountEv
librevenge-stream-0.0.so.0:_ZN10librevenge19RVNGDirectoryStream15createForParentEPKc
librevenge-stream-0.0.so.0:_ZN10librevenge19RVNGDirectoryStream15existsSubStreamEPKc
librevenge-stream-0.0.so.0:_ZN10librevenge19RVNGDirectoryStream16getSubStreamByIdEj
librevenge-stream-0.0.so.0:_ZN10librevenge19RVNGDirectoryStream18getSubStreamByNameEPKc
librevenge-stream-0.0.so.0:_ZN10librevenge19RVNGDirectoryStream4readEmRm
librevenge-stream-0.0.so.0:_ZN10librevenge19RVNGDirectoryStream4seekElNS_14RVNG_SEEK_TYPEE
librevenge-stream-0.0.so.0:_ZN10librevenge19RVNGDirectoryStream4tellEv
librevenge-stream-0.0.so.0:_ZN10librevenge19RVNGDirectoryStream5isEndEv
librevenge-stream-0.0.so.0:_ZN10librevenge19RVNGDirectoryStreamC1EPKc
librevenge-stream-0.0.so.0:_ZN10librevenge19RVNGDirectoryStreamC2EPKc
librevenge-stream-0.0.so.0:_ZN10librevenge19RVNGDirectoryStreamD0Ev
librevenge-stream-0.0.so.0:_ZN10librevenge19RVNGDirectoryStreamD1Ev
librevenge-stream-0.0.so.0:_ZN10librevenge19RVNGDirectoryStreamD2Ev
