iscan:__bss_start
iscan:_edata
iscan:_end
libesmod.so.2:
libesmod.so.2:ESMOD_SYMBOL_154
libesmod.so.2:ESMOD_SYMBOL_155
libesmod.so.2:ESMOD_SYMBOL_156
libesmod.so.2:ESMOD_SYMBOL_157
libesmod.so.2:ESMOD_SYMBOL_158
libesmod.so.2:ESMOD_SYMBOL_159
libesmod.so.2:ESMOD_SYMBOL_160
libesmod.so.2:ESMOD_SYMBOL_161
libesmod.so.2:ESMOD_SYMBOL_162
libesmod.so.2:ESMOD_SYMBOL_163
libesmod.so.2:ESMOD_SYMBOL_164
libesmod.so.2:ESMOD_SYMBOL_165
libesmod.so.2:ESMOD_SYMBOL_166
libesmod.so.2:ESMOD_SYMBOL_167
libesmod.so.2:ESMOD_SYMBOL_168
libesmod.so.2:ESMOD_SYMBOL_169
libesmod.so.2:ESMOD_SYMBOL_170
libesmod.so.2:ESMOD_SYMBOL_171
libesmod.so.2:ESMOD_SYMBOL_172
libesmod.so.2:ESMOD_SYMBOL_173
libesmod.so.2:ESMOD_SYMBOL_174
libesmod.so.2:ESMOD_SYMBOL_175
libesmod.so.2:ESMOD_SYMBOL_176
libesmod.so.2:ESMOD_SYMBOL_177
libesmod.so.2:ESMOD_SYMBOL_178
libesmod.so.2:ESMOD_SYMBOL_179
libesmod.so.2:ESMOD_SYMBOL_180
libesmod.so.2:ESMOD_SYMBOL_181
libesmod.so.2:ESMOD_SYMBOL_182
libesmod.so.2:ESMOD_SYMBOL_183
libesmod.so.2:ESMOD_SYMBOL_184
libesmod.so.2:ESMOD_SYMBOL_185
libesmod.so.2:ESMOD_SYMBOL_186
libesmod.so.2:ESMOD_SYMBOL_187
libesmod.so.2:ESMOD_SYMBOL_188
libesmod.so.2:ESMOD_SYMBOL_189
libesmod.so.2:ESMOD_SYMBOL_190
libesmod.so.2:ESMOD_SYMBOL_191
libesmod.so.2:ESMOD_SYMBOL_192
libesmod.so.2:ESMOD_SYMBOL_193
libesmod.so.2:ESMOD_SYMBOL_194
libesmod.so.2:ESMOD_SYMBOL_195
libesmod.so.2:ESMOD_SYMBOL_196
libesmod.so.2:ESMOD_SYMBOL_197
libesmod.so.2:ESMOD_SYMBOL_198
libesmod.so.2:ESMOD_SYMBOL_199
libesmod.so.2:ESMOD_SYMBOL_200
libesmod.so.2:ESMOD_SYMBOL_201
libesmod.so.2:ESMOD_SYMBOL_202
libesmod.so.2:ESMOD_SYMBOL_203
libesmod.so.2:ESMOD_SYMBOL_204
libesmod.so.2:ESMOD_SYMBOL_205
libesmod.so.2:ESMOD_SYMBOL_206
libesmod.so.2:ESMOD_SYMBOL_207
libesmod.so.2:ESMOD_SYMBOL_208
libesmod.so.2:ESMOD_SYMBOL_209
libesmod.so.2:ESMOD_SYMBOL_210
libesmod.so.2:ESMOD_SYMBOL_211
libesmod.so.2:ESMOD_SYMBOL_212
libesmod.so.2:ESMOD_SYMBOL_213
libesmod.so.2:ESMOD_SYMBOL_214
libesmod.so.2:ESMOD_SYMBOL_215
libesmod.so.2:ESMOD_SYMBOL_216
libesmod.so.2:ESMOD_SYMBOL_217
libesmod.so.2:ESMOD_SYMBOL_218
libesmod.so.2:ESMOD_SYMBOL_219
libesmod.so.2:ESMOD_SYMBOL_220
libesmod.so.2:ESMOD_SYMBOL_221
libesmod.so.2:ESMOD_SYMBOL_222
libesmod.so.2:ESMOD_SYMBOL_223
libesmod.so.2:ESMOD_SYMBOL_224
libesmod.so.2:ESMOD_SYMBOL_225
libesmod.so.2:ESMOD_SYMBOL_226
libesmod.so.2:ESMOD_SYMBOL_227
libesmod.so.2:ESMOD_SYMBOL_228
libesmod.so.2:ESMOD_SYMBOL_229
libesmod.so.2:ESMOD_SYMBOL_230
libesmod.so.2:ESMOD_SYMBOL_231
libesmod.so.2:ESMOD_SYMBOL_232
libesmod.so.2:ESMOD_SYMBOL_233
libesmod.so.2:ESMOD_SYMBOL_234
libesmod.so.2:ESMOD_SYMBOL_235
libesmod.so.2:ESMOD_SYMBOL_236
libesmod.so.2:ESMOD_SYMBOL_237
libesmod.so.2:ESMOD_SYMBOL_238
libesmod.so.2:ESMOD_SYMBOL_239
libesmod.so.2:ESMOD_SYMBOL_240
libesmod.so.2:ESMOD_SYMBOL_241
libesmod.so.2:ESMOD_SYMBOL_242
libesmod.so.2:ESMOD_SYMBOL_243
libesmod.so.2:ESMOD_SYMBOL_244
libesmod.so.2:ESMOD_SYMBOL_245
libesmod.so.2:ESMOD_SYMBOL_246
libesmod.so.2:ESMOD_SYMBOL_247
libesmod.so.2:ESMOD_SYMBOL_248
libesmod.so.2:ESMOD_SYMBOL_249
libesmod.so.2:ESMOD_SYMBOL_250
libesmod.so.2:ESMOD_SYMBOL_251
libesmod.so.2:ESMOD_SYMBOL_252
libesmod.so.2:ESMOD_SYMBOL_253
libesmod.so.2:ESMOD_SYMBOL_254
libesmod.so.2:ESMOD_SYMBOL_255
libesmod.so.2:ESMOD_SYMBOL_256
libesmod.so.2:ESMOD_SYMBOL_257
libesmod.so.2:ESMOD_SYMBOL_258
libesmod.so.2:ESMOD_SYMBOL_259
libesmod.so.2:ESMOD_SYMBOL_260
libesmod.so.2:ESMOD_SYMBOL_29
libesmod.so.2:ESMOD_SYMBOL_306
libesmod.so.2:ESMOD_SYMBOL_31
libesmod.so.2:ESMOD_SYMBOL_310
libesmod.so.2:ESMOD_SYMBOL_32
libesmod.so.2:ESMOD_SYMBOL_33
libesmod.so.2:ESMOD_SYMBOL_34
libesmod.so.2:ESMOD_SYMBOL_35
libesmod.so.2:ESMOD_SYMBOL_44
libesmod.so.2:ESMOD_SYMBOL_45
libesmod.so.2:ESMOD_SYMBOL_53
libesmod.so.2:ESMOD_SYMBOL_58
libesmod.so.2:_Z14ESMOD_SYMBOL_1P9FIT2_PARA
libesmod.so.2:_Z15ESMOD_SYMBOL_11Pd
libesmod.so.2:_Z15ESMOD_SYMBOL_19P4AREAi
libesmod.so.2:_Z15ESMOD_SYMBOL_20dd
libesmod.so.2:_Z15ESMOD_SYMBOL_21PdS_d
libesmod.so.2:_Z15ESMOD_SYMBOL_22d
libesmod.so.2:_Z15ESMOD_SYMBOL_23PdS_d
libesmod.so.2:_Z15ESMOD_SYMBOL_24sssd
libesmod.so.2:_Z15ESMOD_SYMBOL_25sssd
libesmod.so.2:_Z15ESMOD_SYMBOL_30PhsPS_
libesmod.so.2:_Z15ESMOD_SYMBOL_39P10GAMMAPOINTPh
libesmod.so.2:_Z15ESMOD_SYMBOL_41PsS_s
libesmod.so.2:_Z15ESMOD_SYMBOL_43Pd
libesmod.so.2:_Z15ESMOD_SYMBOL_47PsiPi
libesmod.so.2:_Z15ESMOD_SYMBOL_49PsiPi
libesmod.so.2:_Z15ESMOD_SYMBOL_54PKdS0_S0_ld
libesmod.so.2:_Z15ESMOD_SYMBOL_55v
libesmod.so.2:_Z15ESMOD_SYMBOL_56ii
libesmod.so.2:_Z15ESMOD_SYMBOL_57Ps
libesmod.so.2:_Z15ESMOD_SYMBOL_59P11FIT_BmpInfoi
libesmod.so.2:_Z15ESMOD_SYMBOL_60P11FIT_BmpInfoPd
libesmod.so.2:_Z15ESMOD_SYMBOL_61P11FIT_BmpInfoi
libesmod.so.2:_Z15ESMOD_SYMBOL_62P7AE_PARAPh
libesmod.so.2:_Z15ESMOD_SYMBOL_63PKdS0_Pdl
libesmod.so.2:_Z15ESMOD_SYMBOL_64P9FIT2_PARA
libesmod.so.2:_Z16ESMOD_SYMBOL_110Pd
libesmod.so.2:_Z16ESMOD_SYMBOL_111d
libesmod.so.2:_Z16ESMOD_SYMBOL_112P11FIT_BmpInfo
libesmod.so.2:_Z16ESMOD_SYMBOL_127PdPh
libesmod.so.2:_Z16ESMOD_SYMBOL_128P9FIT2_PARAPs
libesmod.so.2:_Z16ESMOD_SYMBOL_129Pss
libesmod.so.2:_Z16ESMOD_SYMBOL_140P10AE_BmpInfoP7AE_PARA
libesmod.so.2:_Z16ESMOD_SYMBOL_147P10COORDINATES0_PdS1_
libesmod.so.2:_Z16ESMOD_SYMBOL_148P4AREA
libesmod.so.2:_Z16ESMOD_SYMBOL_149ii
libesmod.so.2:_Z16ESMOD_SYMBOL_262sPsPdS0_ssdd
libesmod.so.2:_Z16ESMOD_SYMBOL_263PdS_
libesmod.so.2:_Z16ESMOD_SYMBOL_264PsS_S_s
libesmod.so.2:_Z16ESMOD_SYMBOL_265s
libesmod.so.2:_Z16ESMOD_SYMBOL_266PdS_S_S_
libesmod.so.2:_Z16ESMOD_SYMBOL_268Pdi
libesmod.so.2:_Z16ESMOD_SYMBOL_269bm
libesmod.so.2:_Z16ESMOD_SYMBOL_270PddS_s
libesmod.so.2:_Z16ESMOD_SYMBOL_271PddS_s
libesmod.so.2:_Z16ESMOD_SYMBOL_272PdS_S_S_
libesmod.so.2:_Z16ESMOD_SYMBOL_273PsS_
libesmod.so.2:_Z16ESMOD_SYMBOL_274PdS_
libesmod.so.2:_Z16ESMOD_SYMBOL_275Pd
libesmod.so.2:_Z16ESMOD_SYMBOL_276PsdS_s
libesmod.so.2:_Z16ESMOD_SYMBOL_277Psdss
libesmod.so.2:_Z16ESMOD_SYMBOL_278PsS_
libesmod.so.2:_Z16ESMOD_SYMBOL_279PdS_
libesmod.so.2:_Z16ESMOD_SYMBOL_280PdS_S_
libesmod.so.2:_Z16ESMOD_SYMBOL_295P10FIT_Bitmap
libesmod.so.2:_Z16ESMOD_SYMBOL_299PsS_
libesmod.so.2:_Z16ESMOD_SYMBOL_300ddPdS_ddi
libesmod.so.2:_Z16ESMOD_SYMBOL_304i
libesmod.so.2:_Z16ESMOD_SYMBOL_305i
libesmod.so.2:_Z16ESMOD_SYMBOL_307mbPmS_S_S_S_
libesmod.so.2:_Z16ESMOD_SYMBOL_309mbbPmS_S_
libesmod.so.2:_ZN15ESMOD_SYMBOL_12C1EP16tagIMAGE_SETTING
libesmod.so.2:_ZN15ESMOD_SYMBOL_12C2EP16tagIMAGE_SETTING
libesmod.so.2:_ZN15ESMOD_SYMBOL_12dlEPv
libesmod.so.2:_ZN15ESMOD_SYMBOL_12nwEm
libesmod.so.2:_ZN15ESMOD_SYMBOL_1314ESMOD_SYMBOL_2EllPtmllS0_msS0_S0_b
libesmod.so.2:_ZN15ESMOD_SYMBOL_1314ESMOD_SYMBOL_3EllPhmllS0_msS0_S0_b
libesmod.so.2:_ZN15ESMOD_SYMBOL_1314ESMOD_SYMBOL_4EllPhmllS0_msS0_S0_b
libesmod.so.2:_ZN15ESMOD_SYMBOL_1314ESMOD_SYMBOL_5EllPtmllS0_msS0_S0_b
libesmod.so.2:_ZN15ESMOD_SYMBOL_1314ESMOD_SYMBOL_6EllPhmllS0_msS0_S0_b
libesmod.so.2:_ZN15ESMOD_SYMBOL_1314ESMOD_SYMBOL_7EllPhmllS0_msS0_S0_b
libesmod.so.2:_ZN15ESMOD_SYMBOL_13C1Ell
libesmod.so.2:_ZN15ESMOD_SYMBOL_13C2Ell
libesmod.so.2:_ZN15ESMOD_SYMBOL_13dlEPv
libesmod.so.2:_ZN15ESMOD_SYMBOL_13nwEm
libesmod.so.2:_ZN15ESMOD_SYMBOL_1414ESMOD_SYMBOL_8EllPtmllS0_msS0_S0_b
libesmod.so.2:_ZN15ESMOD_SYMBOL_1414ESMOD_SYMBOL_9EllPhmllS0_msS0_S0_b
libesmod.so.2:_ZN15ESMOD_SYMBOL_1415ESMOD_SYMBOL_10EllPhmllS0_mS0_S0_b
libesmod.so.2:_ZN15ESMOD_SYMBOL_14C1Ell
libesmod.so.2:_ZN15ESMOD_SYMBOL_14C2Ell
libesmod.so.2:_ZN15ESMOD_SYMBOL_14dlEPv
libesmod.so.2:_ZN15ESMOD_SYMBOL_14nwEm
libesmod.so.2:_ZN15ESMOD_SYMBOL_1516ESMOD_SYMBOL_143EP13MAKE_FUNC_PRMPt
libesmod.so.2:_ZN15ESMOD_SYMBOL_1516ESMOD_SYMBOL_144EP13MAKE_FUNC_PRMd
libesmod.so.2:_ZN15ESMOD_SYMBOL_1516ESMOD_SYMBOL_145EP13MAKE_FUNC_PRMPt
libesmod.so.2:_ZN15ESMOD_SYMBOL_1516ESMOD_SYMBOL_146EP13MAKE_FUNC_PRMd
libesmod.so.2:_ZN15ESMOD_SYMBOL_1516ESMOD_SYMBOL_287EP13MAKE_FUNC_PRM
libesmod.so.2:_ZN15ESMOD_SYMBOL_1516ESMOD_SYMBOL_288EP13MAKE_FUNC_PRM
libesmod.so.2:_ZN15ESMOD_SYMBOL_1516ESMOD_SYMBOL_289EP9MAKE_FUNC
libesmod.so.2:_ZN15ESMOD_SYMBOL_1516ESMOD_SYMBOL_290EP13MAKE_FUNC_PRM
libesmod.so.2:_ZN15ESMOD_SYMBOL_1516ESMOD_SYMBOL_291EP13MAKE_FUNC_PRM
libesmod.so.2:_ZN15ESMOD_SYMBOL_1516ESMOD_SYMBOL_292EP9MAKE_FUNC
libesmod.so.2:_ZN15ESMOD_SYMBOL_1516ESMOD_SYMBOL_303EP9MAKE_FUNC
libesmod.so.2:_ZN15ESMOD_SYMBOL_15C1Ev
libesmod.so.2:_ZN15ESMOD_SYMBOL_15C2Ev
libesmod.so.2:_ZN15ESMOD_SYMBOL_15D1Ev
libesmod.so.2:_ZN15ESMOD_SYMBOL_15D2Ev
libesmod.so.2:_ZN15ESMOD_SYMBOL_1615ESMOD_SYMBOL_65EllPhmllS0_mS0_S0_b
libesmod.so.2:_ZN15ESMOD_SYMBOL_1615ESMOD_SYMBOL_66EllPtmllS0_mS0_S0_b
libesmod.so.2:_ZN15ESMOD_SYMBOL_1615ESMOD_SYMBOL_67EllPhmllS0_mS0_S0_b
libesmod.so.2:_ZN15ESMOD_SYMBOL_1615ESMOD_SYMBOL_68EllPtmllS0_mS0_S0_b
libesmod.so.2:_ZN15ESMOD_SYMBOL_1615ESMOD_SYMBOL_69EllPhmllS0_mS0_S0_b
libesmod.so.2:_ZN15ESMOD_SYMBOL_16C1Ell
libesmod.so.2:_ZN15ESMOD_SYMBOL_16C2Ell
libesmod.so.2:_ZN15ESMOD_SYMBOL_16dlEPv
libesmod.so.2:_ZN15ESMOD_SYMBOL_16nwEm
libesmod.so.2:_ZN15ESMOD_SYMBOL_1715ESMOD_SYMBOL_86EP13tagIMAGE_INFOS1_
libesmod.so.2:_ZN15ESMOD_SYMBOL_1715ESMOD_SYMBOL_87EP13tagIMAGE_INFOS1_
libesmod.so.2:_ZN15ESMOD_SYMBOL_1715ESMOD_SYMBOL_88EP13tagIMAGE_INFOS1_
libesmod.so.2:_ZN15ESMOD_SYMBOL_1715ESMOD_SYMBOL_89EP13tagIMAGE_INFOS1_
libesmod.so.2:_ZN15ESMOD_SYMBOL_1715ESMOD_SYMBOL_90EP13tagIMAGE_INFOS1_
libesmod.so.2:_ZN15ESMOD_SYMBOL_1715ESMOD_SYMBOL_91EP13tagIMAGE_INFOS1_
libesmod.so.2:_ZN15ESMOD_SYMBOL_1715ESMOD_SYMBOL_92EP13tagIMAGE_INFOS1_
libesmod.so.2:_ZN15ESMOD_SYMBOL_1715ESMOD_SYMBOL_93EP13tagIMAGE_INFOS1_
libesmod.so.2:_ZN15ESMOD_SYMBOL_1715ESMOD_SYMBOL_94EP13tagIMAGE_INFOS1_
libesmod.so.2:_ZN15ESMOD_SYMBOL_1715ESMOD_SYMBOL_95EP13tagIMAGE_INFOS1_
libesmod.so.2:_ZN15ESMOD_SYMBOL_1715ESMOD_SYMBOL_96EP13tagIMAGE_INFOS1_
libesmod.so.2:_ZN15ESMOD_SYMBOL_1715ESMOD_SYMBOL_97EP13tagIMAGE_INFOS1_
libesmod.so.2:_ZN15ESMOD_SYMBOL_1715ESMOD_SYMBOL_98EP13tagIMAGE_INFOS1_
libesmod.so.2:_ZN15ESMOD_SYMBOL_1715ESMOD_SYMBOL_99EP13tagIMAGE_INFOS1_
libesmod.so.2:_ZN15ESMOD_SYMBOL_1716ESMOD_SYMBOL_100EP13tagIMAGE_INFOS1_
libesmod.so.2:_ZN15ESMOD_SYMBOL_1716ESMOD_SYMBOL_101EP13tagIMAGE_INFOS1_
libesmod.so.2:_ZN15ESMOD_SYMBOL_1716ESMOD_SYMBOL_102EP13tagIMAGE_INFOS1_
libesmod.so.2:_ZN15ESMOD_SYMBOL_1716ESMOD_SYMBOL_103EP13tagIMAGE_INFOS1_
libesmod.so.2:_ZN15ESMOD_SYMBOL_1716ESMOD_SYMBOL_104EP13tagIMAGE_INFOS1_
libesmod.so.2:_ZN15ESMOD_SYMBOL_1716ESMOD_SYMBOL_105EP13tagIMAGE_INFOS1_
libesmod.so.2:_ZN15ESMOD_SYMBOL_1716ESMOD_SYMBOL_106EP13tagIMAGE_INFOS1_
libesmod.so.2:_ZN15ESMOD_SYMBOL_1716ESMOD_SYMBOL_107EP13tagIMAGE_INFOS1_
libesmod.so.2:_ZN15ESMOD_SYMBOL_1716ESMOD_SYMBOL_108EP13tagIMAGE_INFOS1_
libesmod.so.2:_ZN15ESMOD_SYMBOL_1716ESMOD_SYMBOL_109EP13tagIMAGE_INFOS1_
libesmod.so.2:_ZN15ESMOD_SYMBOL_1716ESMOD_SYMBOL_130EllPt
libesmod.so.2:_ZN15ESMOD_SYMBOL_1716ESMOD_SYMBOL_283EP13tagIMAGE_INFOS1_PhPtmmb
libesmod.so.2:_ZN15ESMOD_SYMBOL_1716ESMOD_SYMBOL_284EP13tagIMAGE_INFOS1_PhPtmmb
libesmod.so.2:_ZN15ESMOD_SYMBOL_1716ESMOD_SYMBOL_293Ev
libesmod.so.2:_ZN15ESMOD_SYMBOL_1716ESMOD_SYMBOL_294Ev
libesmod.so.2:_ZN15ESMOD_SYMBOL_17C1Em
libesmod.so.2:_ZN15ESMOD_SYMBOL_17C2Em
libesmod.so.2:_ZN15ESMOD_SYMBOL_17D1Ev
libesmod.so.2:_ZN15ESMOD_SYMBOL_17D2Ev
libesmod.so.2:_ZN15ESMOD_SYMBOL_17dlEPv
libesmod.so.2:_ZN15ESMOD_SYMBOL_17nwEm
libesmod.so.2:_ZN15ESMOD_SYMBOL_1815ESMOD_SYMBOL_70EP13tagIMAGE_INFOS1_
libesmod.so.2:_ZN15ESMOD_SYMBOL_1815ESMOD_SYMBOL_71EP13tagIMAGE_INFOS1_
libesmod.so.2:_ZN15ESMOD_SYMBOL_1815ESMOD_SYMBOL_72EP13tagIMAGE_INFOS1_
libesmod.so.2:_ZN15ESMOD_SYMBOL_1815ESMOD_SYMBOL_73EP13tagIMAGE_INFOS1_
libesmod.so.2:_ZN15ESMOD_SYMBOL_1815ESMOD_SYMBOL_74EP13tagIMAGE_INFOS1_
libesmod.so.2:_ZN15ESMOD_SYMBOL_1815ESMOD_SYMBOL_75EP13tagIMAGE_INFOS1_
libesmod.so.2:_ZN15ESMOD_SYMBOL_1815ESMOD_SYMBOL_76EP13tagIMAGE_INFOS1_
libesmod.so.2:_ZN15ESMOD_SYMBOL_1815ESMOD_SYMBOL_77EP13tagIMAGE_INFOS1_
libesmod.so.2:_ZN15ESMOD_SYMBOL_1815ESMOD_SYMBOL_78EP13tagIMAGE_INFOS1_
libesmod.so.2:_ZN15ESMOD_SYMBOL_1815ESMOD_SYMBOL_79EP13tagIMAGE_INFOS1_
libesmod.so.2:_ZN15ESMOD_SYMBOL_1815ESMOD_SYMBOL_80EP13tagIMAGE_INFOS1_
libesmod.so.2:_ZN15ESMOD_SYMBOL_1815ESMOD_SYMBOL_81EP13tagIMAGE_INFOS1_
libesmod.so.2:_ZN15ESMOD_SYMBOL_1815ESMOD_SYMBOL_82EP13tagIMAGE_INFOS1_
libesmod.so.2:_ZN15ESMOD_SYMBOL_1815ESMOD_SYMBOL_83EP13tagIMAGE_INFOS1_
libesmod.so.2:_ZN15ESMOD_SYMBOL_1815ESMOD_SYMBOL_84EP13tagIMAGE_INFOS1_
libesmod.so.2:_ZN15ESMOD_SYMBOL_1815ESMOD_SYMBOL_85EP13tagIMAGE_INFOS1_
libesmod.so.2:_ZN15ESMOD_SYMBOL_1816ESMOD_SYMBOL_130EllPt
libesmod.so.2:_ZN15ESMOD_SYMBOL_1816ESMOD_SYMBOL_285EP13tagIMAGE_INFOS1_Phmb
libesmod.so.2:_ZN15ESMOD_SYMBOL_1816ESMOD_SYMBOL_293Ev
libesmod.so.2:_ZN15ESMOD_SYMBOL_18C1Em
libesmod.so.2:_ZN15ESMOD_SYMBOL_18C2Em
libesmod.so.2:_ZN15ESMOD_SYMBOL_18D1Ev
libesmod.so.2:_ZN15ESMOD_SYMBOL_18D2Ev
libesmod.so.2:_ZN15ESMOD_SYMBOL_18dlEPv
libesmod.so.2:_ZN15ESMOD_SYMBOL_18nwEm
libesmod.so.2:_ZN15ESMOD_SYMBOL_3615ESMOD_SYMBOL_38EP13tagIMAGE_INFOS1_
libesmod.so.2:_ZN15ESMOD_SYMBOL_3615ESMOD_SYMBOL_51El
libesmod.so.2:_ZN15ESMOD_SYMBOL_3615ESMOD_SYMBOL_52Ev
libesmod.so.2:_ZN15ESMOD_SYMBOL_3616ESMOD_SYMBOL_116EP11tagUSM_INFO
libesmod.so.2:_ZN15ESMOD_SYMBOL_3616ESMOD_SYMBOL_117EPhd
libesmod.so.2:_ZN15ESMOD_SYMBOL_3616ESMOD_SYMBOL_118EP15REVISE_USM_RESOS1_l
libesmod.so.2:_ZN15ESMOD_SYMBOL_3616ESMOD_SYMBOL_119EP11tagUSM_INFOPtS2_S2_
libesmod.so.2:_ZN15ESMOD_SYMBOL_3616ESMOD_SYMBOL_120Ess
libesmod.so.2:_ZN15ESMOD_SYMBOL_3616ESMOD_SYMBOL_121EP11tagUSM_INFOPdS2_S2_Pi
libesmod.so.2:_ZN15ESMOD_SYMBOL_3616ESMOD_SYMBOL_122EP15REVISE_USM_RESO
libesmod.so.2:_ZN15ESMOD_SYMBOL_3616ESMOD_SYMBOL_123Es
libesmod.so.2:_ZN15ESMOD_SYMBOL_3616ESMOD_SYMBOL_124Edddii
libesmod.so.2:_ZN15ESMOD_SYMBOL_3616ESMOD_SYMBOL_125Edddii
libesmod.so.2:_ZN15ESMOD_SYMBOL_3616ESMOD_SYMBOL_126EP11tagUSM_INFO
libesmod.so.2:_ZN15ESMOD_SYMBOL_3616ESMOD_SYMBOL_261EPhlS0_
libesmod.so.2:_ZN15ESMOD_SYMBOL_36C1EP16tagIMAGE_SETTINGP17tagFILTER_SETTINGh
libesmod.so.2:_ZN15ESMOD_SYMBOL_36C2EP16tagIMAGE_SETTINGP17tagFILTER_SETTINGh
libesmod.so.2:_ZN15ESMOD_SYMBOL_36D1Ev
libesmod.so.2:_ZN15ESMOD_SYMBOL_36D2Ev
libesmod.so.2:_ZN15ESMOD_SYMBOL_36dlEPv
libesmod.so.2:_ZN15ESMOD_SYMBOL_36nwEm
libesmod.so.2:_ZN16ESMOD_SYMBOL_11415ESMOD_SYMBOL_26EllPhmsllS0_ms
libesmod.so.2:_ZN16ESMOD_SYMBOL_11415ESMOD_SYMBOL_27EllPhmsllS0_ms
libesmod.so.2:_ZN16ESMOD_SYMBOL_11415ESMOD_SYMBOL_28EllPhmsllS0_m
libesmod.so.2:_ZN16ESMOD_SYMBOL_11415ESMOD_SYMBOL_46Em
libesmod.so.2:_ZN16ESMOD_SYMBOL_11415ESMOD_SYMBOL_50Ev
libesmod.so.2:_ZN16ESMOD_SYMBOL_11415ESMOD_SYMBOL_51El
libesmod.so.2:_ZN16ESMOD_SYMBOL_11416ESMOD_SYMBOL_132EP13tagIMAGE_INFOS1_
libesmod.so.2:_ZN16ESMOD_SYMBOL_11416ESMOD_SYMBOL_261EPhlS0_
libesmod.so.2:_ZN16ESMOD_SYMBOL_114C1EP16tagIMAGE_SETTINGh
libesmod.so.2:_ZN16ESMOD_SYMBOL_114C2EP16tagIMAGE_SETTINGh
libesmod.so.2:_ZN16ESMOD_SYMBOL_114D1Ev
libesmod.so.2:_ZN16ESMOD_SYMBOL_114D2Ev
libesmod.so.2:_ZN16ESMOD_SYMBOL_114dlEPv
libesmod.so.2:_ZN16ESMOD_SYMBOL_114nwEm
libesmod.so.2:_ZN16ESMOD_SYMBOL_13115ESMOD_SYMBOL_37E11FFErrorCode
libesmod.so.2:_ZN16ESMOD_SYMBOL_13115ESMOD_SYMBOL_40Ev
libesmod.so.2:_ZN16ESMOD_SYMBOL_13115ESMOD_SYMBOL_42ElP17tagFILTER_SETTINGS1_
libesmod.so.2:_ZN16ESMOD_SYMBOL_13115ESMOD_SYMBOL_46Em
libesmod.so.2:_ZN16ESMOD_SYMBOL_13115ESMOD_SYMBOL_48Em
libesmod.so.2:_ZN16ESMOD_SYMBOL_13115ESMOD_SYMBOL_50Ev
libesmod.so.2:_ZN16ESMOD_SYMBOL_13115ESMOD_SYMBOL_51El
libesmod.so.2:_ZN16ESMOD_SYMBOL_13116ESMOD_SYMBOL_113EP13tagIMAGE_INFOS1_
libesmod.so.2:_ZN16ESMOD_SYMBOL_13116ESMOD_SYMBOL_115E11ZMErrorCode
libesmod.so.2:_ZN16ESMOD_SYMBOL_131C1EP16tagIMAGE_SETTINGl17tagFILTER_SETTINGS2_l
libesmod.so.2:_ZN16ESMOD_SYMBOL_131C2EP16tagIMAGE_SETTINGl17tagFILTER_SETTINGS2_l
libesmod.so.2:_ZN16ESMOD_SYMBOL_131D1Ev
libesmod.so.2:_ZN16ESMOD_SYMBOL_131D2Ev
libesmod.so.2:_ZN16ESMOD_SYMBOL_131dlEPv
libesmod.so.2:_ZN16ESMOD_SYMBOL_131nwEm
libesmod.so.2:_ZN5esmod11auto_exposeEiiPhlllllllPlS1_S1_S1_PdS2_S2_bb
libesmod.so.2:_ZN5esmod5focus14get_line_quoteEm
libesmod.so.2:_ZN5esmod5focus4execEPKhmPhm
libesmod.so.2:_ZN5esmod5focus8getblockEPhm
libesmod.so.2:_ZN5esmod5focus8putblockEPKhm
libesmod.so.2:_ZN5esmod5focus9set_parmsEmbbPmS1_S1_
libesmod.so.2:_ZN5esmod5focusC1Ellllllmmmmi
libesmod.so.2:_ZN5esmod5focusC1Elllm
libesmod.so.2:_ZN5esmod5focusC2Ellllllmmmmi
libesmod.so.2:_ZN5esmod5focusC2Elllm
libesmod.so.2:_ZN5esmod5focusD0Ev
libesmod.so.2:_ZN5esmod5focusD1Ev
libesmod.so.2:_ZN5esmod5focusD2Ev
libesmod.so.2:_ZN5esmod5moire13get_res_quoteEmb
libesmod.so.2:_ZN5esmod5moire14get_line_quoteEm
libesmod.so.2:_ZN5esmod5moire4execEPKhmPhm
libesmod.so.2:_ZN5esmod5moire8getblockEPhm
libesmod.so.2:_ZN5esmod5moire8putblockEPKhm
libesmod.so.2:_ZN5esmod5moireC1Ellllllmmb
libesmod.so.2:_ZN5esmod5moireC2Ellllllmmb
libesmod.so.2:_ZN5esmod5moireD0Ev
libesmod.so.2:_ZN5esmod5moireD1Ev
libesmod.so.2:_ZN5esmod5moireD2Ev
libesmod.so.2:_ZN5esmod5scale14get_line_quoteEm
libesmod.so.2:_ZN5esmod5scale4execEPKhmPhm
libesmod.so.2:_ZN5esmod5scale8getblockEPhm
libesmod.so.2:_ZN5esmod5scale8putblockEPKhm
libesmod.so.2:_ZN5esmod5scaleC1Ellllllmi
libesmod.so.2:_ZN5esmod5scaleC2Ellllllmi
libesmod.so.2:_ZN5esmod5scaleD0Ev
libesmod.so.2:_ZN5esmod5scaleD1Ev
libesmod.so.2:_ZN5esmod5scaleD2Ev
libesmod.so.2:_ZN5esmod9build_LUTEiiiillllPKdS1_S1_PhS2_S2_b
libesmod.so.2:__bss_start
libesmod.so.2:_edata
libesmod.so.2:_end
libesmod.so.2:_fini
libesmod.so.2:_init
libsane.so.1:sane_cancel
libsane.so.1:sane_close
libsane.so.1:sane_control_option
libsane.so.1:sane_epkowa_cancel
libsane.so.1:sane_epkowa_close
libsane.so.1:sane_epkowa_control_option
libsane.so.1:sane_epkowa_exit
libsane.so.1:sane_epkowa_get_devices
libsane.so.1:sane_epkowa_get_option_descriptor
libsane.so.1:sane_epkowa_get_parameters
libsane.so.1:sane_epkowa_get_select_fd
libsane.so.1:sane_epkowa_init
libsane.so.1:sane_epkowa_open
libsane.so.1:sane_epkowa_read
libsane.so.1:sane_epkowa_set_io_mode
libsane.so.1:sane_epkowa_start
libsane.so.1:sane_epkowa_strstatus
libsane.so.1:sane_exit
libsane.so.1:sane_get_devices
libsane.so.1:sane_get_option_descriptor
libsane.so.1:sane_get_parameters
libsane.so.1:sane_get_select_fd
libsane.so.1:sane_init
libsane.so.1:sane_open
libsane.so.1:sane_read
libsane.so.1:sane_set_io_mode
libsane.so.1:sane_start
libsane.so.1:sane_strstatus
