libAtlasUI.so:Atlas_DisplayError
libAtlasUI.so:Atlas_GLSetCurrent
libAtlasUI.so:Atlas_GLSwapBuffers
libAtlasUI.so:Atlas_SetConfigDirectory
libAtlasUI.so:Atlas_SetDataDirectory
libAtlasUI.so:Atlas_SetMessagePasser
libAtlasUI.so:Atlas_StartWindow
libAtlasUI.so:ShareableFree
libAtlasUI.so:ShareableMalloc
libCollada.so:convert_dae_to_pmd
libCollada.so:convert_dae_to_psa
libCollada.so:set_logger
libCollada.so:set_skeleton_definitions
libmozjs128-debug.so:BIG5_ENCODING
libmozjs128-debug.so:EUC_JP_ENCODING
libmozjs128-debug.so:EUC_KR_ENCODING
libmozjs128-debug.so:GB18030_ENCODING
libmozjs128-debug.so:GBK_ENCODING
libmozjs128-debug.so:IBM866_ENCODING
libmozjs128-debug.so:ISO_2022_JP_ENCODING
libmozjs128-debug.so:ISO_8859_10_ENCODING
libmozjs128-debug.so:ISO_8859_13_ENCODING
libmozjs128-debug.so:ISO_8859_14_ENCODING
libmozjs128-debug.so:ISO_8859_15_ENCODING
libmozjs128-debug.so:ISO_8859_16_ENCODING
libmozjs128-debug.so:ISO_8859_2_ENCODING
libmozjs128-debug.so:ISO_8859_3_ENCODING
libmozjs128-debug.so:ISO_8859_4_ENCODING
libmozjs128-debug.so:ISO_8859_5_ENCODING
libmozjs128-debug.so:ISO_8859_6_ENCODING
libmozjs128-debug.so:ISO_8859_7_ENCODING
libmozjs128-debug.so:ISO_8859_8_ENCODING
libmozjs128-debug.so:ISO_8859_8_I_ENCODING
libmozjs128-debug.so:KOI8_R_ENCODING
libmozjs128-debug.so:KOI8_U_ENCODING
libmozjs128-debug.so:LZ4F_compressBegin
libmozjs128-debug.so:LZ4F_compressBound
libmozjs128-debug.so:LZ4F_compressEnd
libmozjs128-debug.so:LZ4F_compressFrame
libmozjs128-debug.so:LZ4F_compressFrameBound
libmozjs128-debug.so:LZ4F_compressUpdate
libmozjs128-debug.so:LZ4F_compressionLevel_max
libmozjs128-debug.so:LZ4F_createCompressionContext
libmozjs128-debug.so:LZ4F_createDecompressionContext
libmozjs128-debug.so:LZ4F_decompress
libmozjs128-debug.so:LZ4F_flush
libmozjs128-debug.so:LZ4F_freeCompressionContext
libmozjs128-debug.so:LZ4F_freeDecompressionContext
libmozjs128-debug.so:LZ4F_getErrorName
libmozjs128-debug.so:LZ4F_getFrameInfo
libmozjs128-debug.so:LZ4F_getVersion
libmozjs128-debug.so:LZ4F_headerSize
libmozjs128-debug.so:LZ4F_isError
libmozjs128-debug.so:LZ4F_resetDecompressionContext
libmozjs128-debug.so:MACINTOSH_ENCODING
libmozjs128-debug.so:MOZ_CrashPrintf
libmozjs128-debug.so:MozDescribeCodeAddress
libmozjs128-debug.so:MozFormatCodeAddress
libmozjs128-debug.so:MozFormatCodeAddressDetails
libmozjs128-debug.so:MozStackWalk
libmozjs128-debug.so:MozTagAnonymousMemory
libmozjs128-debug.so:MozTaggedAnonymousMmap
libmozjs128-debug.so:MozWalkTheStack
libmozjs128-debug.so:MozWalkTheStackWithWriter
libmozjs128-debug.so:REPLACEMENT_ENCODING
libmozjs128-debug.so:SHIFT_JIS_ENCODING
libmozjs128-debug.so:UTF_16BE_ENCODING
libmozjs128-debug.so:UTF_16LE_ENCODING
libmozjs128-debug.so:UTF_8_ENCODING
libmozjs128-debug.so:WINDOWS_1250_ENCODING
libmozjs128-debug.so:WINDOWS_1251_ENCODING
libmozjs128-debug.so:WINDOWS_1252_ENCODING
libmozjs128-debug.so:WINDOWS_1253_ENCODING
libmozjs128-debug.so:WINDOWS_1254_ENCODING
libmozjs128-debug.so:WINDOWS_1255_ENCODING
libmozjs128-debug.so:WINDOWS_1256_ENCODING
libmozjs128-debug.so:WINDOWS_1257_ENCODING
libmozjs128-debug.so:WINDOWS_1258_ENCODING
libmozjs128-debug.so:WINDOWS_874_ENCODING
libmozjs128-debug.so:X_MAC_CYRILLIC_ENCODING
libmozjs128-debug.so:X_USER_DEFINED_ENCODING
libmozjs128-debug.so:_RINvMNtCs9ZIvzb94SJx_4core3stre18trim_start_matchesReECsglvZrah94c3_14rustc_demangle
libmozjs128-debug.so:_RINvMNtCs9ZIvzb94SJx_4core3stre3getINtNtNtB5_3ops5range7RangeTojEECs7XP8T9flioK_14mozglue_static
libmozjs128-debug.so:_RINvMNtCs9ZIvzb94SJx_4core5sliceSh11copy_withinINtNtNtB5_3ops5range14RangeInclusivejEECsdIMhsiQnxUU_11miniz_oxide
libmozjs128-debug.so:_RINvMNtCs9ZIvzb94SJx_4core6optionINtB3_6OptionRINtNtB5_4cell4CellhEE3zipBI_ECsdIMhsiQnxUU_11miniz_oxide
libmozjs128-debug.so:_RINvMNtCs9ZIvzb94SJx_4core6optionINtB3_6OptionTRINtNtB5_4cell4CellhEBJ_EE3zipBJ_ECsdIMhsiQnxUU_11miniz_oxide
libmozjs128-debug.so:_RINvMs0_NtNtNtCs4z76MhC0nbo_5alloc11collections5btree6searchINtNtB8_4node7NodeRefNtNtBZ_6marker3MutyNtNtNtCsd97RIzLnxns_5gimli4read6abbrev12AbbreviationNtB1j_14LeafOrInternalE14find_key_indexyEB1G_
libmozjs128-debug.so:_RINvMs0_NtNtNtCs4z76MhC0nbo_5alloc11collections5btree6searchINtNtB8_4node7NodeRefNtNtBZ_6marker5ImmutyNtNtNtCsd97RIzLnxns_5gimli4read6abbrev12AbbreviationNtB1j_14LeafOrInternalE14find_key_indexyEB1I_
libmozjs128-debug.so:_RINvMs2_NtCs9ZIvzb94SJx_4core3anyDNtB6_3AnyEL_12downcast_refNtNtCs4z76MhC0nbo_5alloc6string6StringECs7XP8T9flioK_14mozglue_static
libmozjs128-debug.so:_RINvMs2_NtCs9ZIvzb94SJx_4core3anyDNtB6_3AnyEL_12downcast_refReECs7XP8T9flioK_14mozglue_static
libmozjs128-debug.so:_RINvMs2_NtCs9ZIvzb94SJx_4core3fmtNtB6_9Arguments3newKj12_Kj1_ECs7XP8T9flioK_14mozglue_static
libmozjs128-debug.so:_RINvMs3_NtCs9ZIvzb94SJx_4core3anyDNtB6_3AnyNtNtB8_6marker4SendEL_12downcast_refNtNtCs4z76MhC0nbo_5alloc6string6StringECs7XP8T9flioK_14mozglue_static
libmozjs128-debug.so:_RINvMs3_NtCs9ZIvzb94SJx_4core3anyDNtB6_3AnyNtNtB8_6marker4SendEL_12downcast_refReECs7XP8T9flioK_14mozglue_static
libmozjs128-debug.so:_RINvMs5_NtNtCs9ZIvzb94SJx_4core3fmt8buildersNtB6_9DebugList7entriesNtNtNtCsd97RIzLnxns_5gimli4read12endian_slice9DebugByteINtNtNtNtBa_4iter8adapters3map3MapINtNtB21_6copied6CopiedINtNtB21_4take4TakeINtNtNtBa_5slice4iter4IterhEEENcB13_0EEB19_
libmozjs128-debug.so:_RINvMs5_NtNtCs9ZIvzb94SJx_4core3fmt8buildersNtB6_9DebugList7entriesRNtNtNtCsd97RIzLnxns_5gimli4read6abbrev22AttributeSpecificationINtNtNtBa_5slice4iter4IterB14_EEB1a_
libmozjs128-debug.so:_RINvMs5_NtNtCs9ZIvzb94SJx_4core3fmt8buildersNtB6_9DebugList7entriesRhINtNtNtBa_5slice4iter4IterhEECsglvZrah94c3_14rustc_demangle
libmozjs128-debug.so:_RINvMs5_NtNtCsk6apSIyUfCg_3std2io5errorNtB6_5Error3newNtNtNtCs9ZIvzb94SJx_4core3num5error15TryFromIntErrorEBa_
libmozjs128-debug.so:_RINvMs5_NtNtCsk6apSIyUfCg_3std2io5errorNtB6_5Error3newReEBa_
libmozjs128-debug.so:_RINvMs8_NtNtNtCs4z76MhC0nbo_5alloc11collections5btree4nodeINtB6_7NodeRefNtNtB6_6marker5OwnedyNtNtNtCsd97RIzLnxns_5gimli4read6abbrev12AbbreviationNtB1a_4LeafE13from_new_leafNtNtBc_5alloc6GlobalEB1z_
libmozjs128-debug.so:_RINvMs8_NtNtNtCs4z76MhC0nbo_5alloc11collections5btree4nodeINtB6_7NodeRefNtNtB6_6marker5OwnedyNtNtNtCsd97RIzLnxns_5gimli4read6abbrev12AbbreviationNtB1a_4LeafE8new_leafNtNtBc_5alloc6GlobalEB1z_
libmozjs128-debug.so:_RINvMs9_NtNtNtCs4z76MhC0nbo_5alloc11collections5btree4nodeINtB6_7NodeRefNtNtB6_6marker5OwnedyNtNtNtCsd97RIzLnxns_5gimli4read6abbrev12AbbreviationNtB1a_8InternalE12new_internalNtNtBc_5alloc6GlobalEB1z_
libmozjs128-debug.so:_RINvMs9_NtNtNtCs4z76MhC0nbo_5alloc11collections5btree4nodeINtB6_7NodeRefNtNtB6_6marker5OwnedyNtNtNtCsd97RIzLnxns_5gimli4read6abbrev12AbbreviationNtB1a_8InternalE17from_new_internalNtNtBc_5alloc6GlobalEB1z_
libmozjs128-debug.so:_RINvMsK_NtNtNtCs4z76MhC0nbo_5alloc11collections5btree4nodeINtB6_6HandleINtB6_7NodeRefNtNtB6_6marker3MutyNtNtNtCsd97RIzLnxns_5gimli4read6abbrev12AbbreviationNtB1n_4LeafENtB1n_4EdgeE6insertNtNtBc_5alloc6GlobalEB1K_
libmozjs128-debug.so:_RINvMsM_NtNtNtCs4z76MhC0nbo_5alloc11collections5btree4nodeINtB6_6HandleINtB6_7NodeRefNtNtB6_6marker3MutyNtNtNtCsd97RIzLnxns_5gimli4read6abbrev12AbbreviationNtB1n_8InternalENtB1n_4EdgeE6insertNtNtBc_5alloc6GlobalEB1K_
libmozjs128-debug.so:_RINvMsN_NtNtNtCs4z76MhC0nbo_5alloc11collections5btree4nodeINtB6_6HandleINtB6_7NodeRefNtNtB6_6marker3MutyNtNtNtCsd97RIzLnxns_5gimli4read6abbrev12AbbreviationNtB1n_4LeafENtB1n_4EdgeE16insert_recursingNtNtBc_5alloc6GlobalNCNvMs6_NtNtB8_3map5entryINtB3C_11VacantEntryyB1E_E12insert_entry0EB1K_
libmozjs128-debug.so:_RINvMsV_NtNtNtCs4z76MhC0nbo_5alloc11collections5btree4nodeINtB6_6HandleINtB6_7NodeRefNtNtB6_6marker3MutyNtNtNtCsd97RIzLnxns_5gimli4read6abbrev12AbbreviationNtB1n_4LeafENtB1n_2KVE5splitNtNtBc_5alloc6GlobalEB1K_
libmozjs128-debug.so:_RINvMsW_NtNtNtCs4z76MhC0nbo_5alloc11collections5btree4nodeINtB6_6HandleINtB6_7NodeRefNtNtB6_6marker3MutyNtNtNtCsd97RIzLnxns_5gimli4read6abbrev12AbbreviationNtB1n_8InternalENtB1n_2KVE5splitNtNtBc_5alloc6GlobalEB1K_
libmozjs128-debug.so:_RINvMs_NtNtNtCs4z76MhC0nbo_5alloc11collections5btree6searchINtNtB7_4node7NodeRefNtNtBY_6marker3MutyNtNtNtCsd97RIzLnxns_5gimli4read6abbrev12AbbreviationNtB1i_14LeafOrInternalE11search_treeyEB1F_
libmozjs128-debug.so:_RINvMs_NtNtNtCs4z76MhC0nbo_5alloc11collections5btree6searchINtNtB7_4node7NodeRefNtNtBY_6marker5ImmutyNtNtNtCsd97RIzLnxns_5gimli4read6abbrev12AbbreviationNtB1i_14LeafOrInternalE11search_treeyEB1H_
libmozjs128-debug.so:_RINvMsi_NtNtNtCs4z76MhC0nbo_5alloc11collections5btree3mapINtB6_8BTreeMapyNtNtNtCsd97RIzLnxns_5gimli4read6abbrev12AbbreviationE3getyEB1f_
libmozjs128-debug.so:_RINvMsp_NtNtNtCs4z76MhC0nbo_5alloc11collections5btree4nodeINtB6_7NodeRefNtNtB6_6marker3MutyNtNtNtCsd97RIzLnxns_5gimli4read6abbrev12AbbreviationNtB1a_8InternalE30correct_childrens_parent_linksINtNtNtCs9ZIvzb94SJx_4core3ops5range14RangeInclusivejEEB1x_
libmozjs128-debug.so:_RINvMsp_NtNtNtCs4z76MhC0nbo_5alloc11collections5btree4nodeINtB6_7NodeRefNtNtB6_6marker3MutyNtNtNtCsd97RIzLnxns_5gimli4read6abbrev12AbbreviationNtB1a_8InternalE30correct_childrens_parent_linksINtNtNtCs9ZIvzb94SJx_4core3ops5range5RangejEEB1x_
libmozjs128-debug.so:_RINvNtCs9ZIvzb94SJx_4core3cmp3minjECs7XP8T9flioK_14mozglue_static
libmozjs128-debug.so:_RINvNtCs9ZIvzb94SJx_4core5slice20copy_from_slice_implhECsdIMhsiQnxUU_11miniz_oxide
libmozjs128-debug.so:_RINvNtCs9ZIvzb94SJx_4core9panicking13assert_failedAhj4_RShECsk6apSIyUfCg_3std
libmozjs128-debug.so:_RINvNtCs9ZIvzb94SJx_4core9panicking13assert_failedINtNtB4_6option6OptionjEBM_EB4_
libmozjs128-debug.so:_RINvNtCs9ZIvzb94SJx_4core9panicking13assert_failedjjEB4_
libmozjs128-debug.so:_RINvNtCs9ZIvzb94SJx_4core9panicking13assert_failedllECsk6apSIyUfCg_3std
libmozjs128-debug.so:_RINvNtCs9ZIvzb94SJx_4core9panicking13assert_failedmmECsk6apSIyUfCg_3std
libmozjs128-debug.so:_RINvNtCs9ZIvzb94SJx_4core9panicking13assert_failedssECsk6apSIyUfCg_3std
libmozjs128-debug.so:_RINvNtCs9ZIvzb94SJx_4core9panicking13assert_failedyyEB4_
libmozjs128-debug.so:_RINvNtCsk6apSIyUfCg_3std9panicking11begin_panicReEB4_
libmozjs128-debug.so:_RINvNtNtCs9ZIvzb94SJx_4core5slice3raw14from_raw_partshECs7XP8T9flioK_14mozglue_static
libmozjs128-debug.so:_RINvNtNtCs9ZIvzb94SJx_4core5slice5index5rangeINtNtNtB6_3ops5range14RangeInclusivejEECsdIMhsiQnxUU_11miniz_oxide
libmozjs128-debug.so:_RINvNtNtCsk6apSIyUfCg_3std3sys9backtrace26___rust_end_short_backtraceNCINvNtB6_9panicking11begin_panicReE0zEB6_
libmozjs128-debug.so:_RINvNtNtCsk6apSIyUfCg_3std3sys9backtrace26___rust_end_short_backtraceNCNvNtB6_5alloc8rust_oom0zEB6_
libmozjs128-debug.so:_RINvNtNtCsk6apSIyUfCg_3std3sys9backtrace26___rust_end_short_backtraceNCNvNtB6_9panicking13panic_handler0zEB6_
libmozjs128-debug.so:_RINvNtNtNtCs4z76MhC0nbo_5alloc11collections5btree4node12slice_insertINtNtNtCs9ZIvzb94SJx_4core3ptr8non_null7NonNullINtB2_8LeafNodeyNtNtNtCsd97RIzLnxns_5gimli4read6abbrev12AbbreviationEEEB2b_
libmozjs128-debug.so:_RINvNtNtNtCs4z76MhC0nbo_5alloc11collections5btree4node12slice_insertNtNtNtCsd97RIzLnxns_5gimli4read6abbrev12AbbreviationEB1a_
libmozjs128-debug.so:_RINvNtNtNtCs4z76MhC0nbo_5alloc11collections5btree4node12slice_insertyECsd97RIzLnxns_5gimli
libmozjs128-debug.so:_RINvNtNtNtCs4z76MhC0nbo_5alloc11collections5btree4node13move_to_sliceINtNtNtCs9ZIvzb94SJx_4core3ptr8non_null7NonNullINtB2_8LeafNodeyNtNtNtCsd97RIzLnxns_5gimli4read6abbrev12AbbreviationEEEB2c_
libmozjs128-debug.so:_RINvNtNtNtCs4z76MhC0nbo_5alloc11collections5btree4node13move_to_sliceNtNtNtCsd97RIzLnxns_5gimli4read6abbrev12AbbreviationEB1b_
libmozjs128-debug.so:_RINvNtNtNtCs4z76MhC0nbo_5alloc11collections5btree4node13move_to_sliceyECsd97RIzLnxns_5gimli
libmozjs128-debug.so:_RINvNtNtNtCs9ZIvzb94SJx_4core5slice4sort6stable14driftsort_mainNtNtCs6TFdUlxcy5y_9addr2line4line12LineSequenceNCINvMNtCs4z76MhC0nbo_5alloc5sliceSBZ_11sort_by_keyyNCINvMs_B11_NtB11_5Lines5parseINtNtNtCsd97RIzLnxns_5gimli4read12endian_slice11EndianSliceNtNtB3b_9endianity12LittleEndianEEs_0E0INtNtB1S_3vec3VecBZ_EECsk6apSIyUfCg_3std
libmozjs128-debug.so:_RINvNtNtNtCs9ZIvzb94SJx_4core5slice4sort6stable14driftsort_mainNtNtCs6TFdUlxcy5y_9addr2line4unit9UnitRangeNCINvMNtCs4z76MhC0nbo_5alloc5sliceSBZ_11sort_by_keyyNCNvMs_B11_INtB11_8ResUnitsINtNtNtCsd97RIzLnxns_5gimli4read12endian_slice11EndianSliceNtNtB34_9endianity12LittleEndianEE5parses2_0E0INtNtB1O_3vec3VecBZ_EECsk6apSIyUfCg_3std
libmozjs128-debug.so:_RINvNtNtNtCs9ZIvzb94SJx_4core5slice4sort6stable14driftsort_mainNtNtCs6TFdUlxcy5y_9addr2line8function15FunctionAddressNCINvMNtCs4z76MhC0nbo_5alloc5sliceSBZ_11sort_by_keyyNCNvMs0_B11_INtB11_9FunctionsINtNtNtCsd97RIzLnxns_5gimli4read12endian_slice11EndianSliceNtNtB3h_9endianity12LittleEndianEE5parses_0E0INtNtB1Z_3vec3VecBZ_EECsk6apSIyUfCg_3std
libmozjs128-debug.so:_RINvNtNtNtCs9ZIvzb94SJx_4core5slice4sort6stable14driftsort_mainNtNtCs6TFdUlxcy5y_9addr2line8function22InlinedFunctionAddressNCINvMNtCs4z76MhC0nbo_5alloc5sliceSBZ_7sort_byNCNvMs1_B11_INtB11_8FunctionINtNtNtCsd97RIzLnxns_5gimli4read12endian_slice11EndianSliceNtNtB3h_9endianity12LittleEndianEE5parse0E0INtNtB26_3vec3VecBZ_EECsk6apSIyUfCg_3std
libmozjs128-debug.so:_RINvNtNtNtCs9ZIvzb94SJx_4core5slice4sort6stable14driftsort_mainTNtNtCsd97RIzLnxns_5gimli6common15DebugInfoOffsetNtB12_18DebugArangesOffsetENCINvMNtCs4z76MhC0nbo_5alloc5sliceSBZ_11sort_by_keyB10_NCNvMs_NtCs6TFdUlxcy5y_9addr2line4unitINtB3d_8ResUnitsINtNtNtB14_4read12endian_slice11EndianSliceNtNtB14_9endianity12LittleEndianEE5parse0E0INtNtB2l_3vec3VecBZ_EECsk6apSIyUfCg_3std
libmozjs128-debug.so:_RINvNtNtNtCs9ZIvzb94SJx_4core5slice4sort8unstable7ipnsortNtNtNtNtNtCsk6apSIyUfCg_3std12backtrace_rs9symbolize5gimli3elf9ParsedSymNCINvMB6_SBT_20sort_unstable_by_keyyNCNvMs_BV_NtBV_6Object5parses1_0E0EB13_
libmozjs128-debug.so:_RINvNtNtNtNtCs9ZIvzb94SJx_4core5slice4sort6stable9quicksort9quicksortNtNtCs6TFdUlxcy5y_9addr2line4line12LineSequenceNCINvMNtCs4z76MhC0nbo_5alloc5sliceSB15_11sort_by_keyyNCINvMs_B17_NtB17_5Lines5parseINtNtNtCsd97RIzLnxns_5gimli4read12endian_slice11EndianSliceNtNtB3i_9endianity12LittleEndianEEs_0E0ECsk6apSIyUfCg_3std
libmozjs128-debug.so:_RINvNtNtNtNtCs9ZIvzb94SJx_4core5slice4sort6stable9quicksort9quicksortNtNtCs6TFdUlxcy5y_9addr2line4unit9UnitRangeNCINvMNtCs4z76MhC0nbo_5alloc5sliceSB15_11sort_by_keyyNCNvMs_B17_INtB17_8ResUnitsINtNtNtCsd97RIzLnxns_5gimli4read12endian_slice11EndianSliceNtNtB3b_9endianity12LittleEndianEE5parses2_0E0ECsk6apSIyUfCg_3std
libmozjs128-debug.so:_RINvNtNtNtNtCs9ZIvzb94SJx_4core5slice4sort6stable9quicksort9quicksortNtNtCs6TFdUlxcy5y_9addr2line8function15FunctionAddressNCINvMNtCs4z76MhC0nbo_5alloc5sliceSB15_11sort_by_keyyNCNvMs0_B17_INtB17_9FunctionsINtNtNtCsd97RIzLnxns_5gimli4read12endian_slice11EndianSliceNtNtB3o_9endianity12LittleEndianEE5parses_0E0ECsk6apSIyUfCg_3std
libmozjs128-debug.so:_RINvNtNtNtNtCs9ZIvzb94SJx_4core5slice4sort6stable9quicksort9quicksortNtNtCs6TFdUlxcy5y_9addr2line8function22InlinedFunctionAddressNCINvMNtCs4z76MhC0nbo_5alloc5sliceSB15_7sort_byNCNvMs1_B17_INtB17_8FunctionINtNtNtCsd97RIzLnxns_5gimli4read12endian_slice11EndianSliceNtNtB3o_9endianity12LittleEndianEE5parse0E0ECsk6apSIyUfCg_3std
libmozjs128-debug.so:_RINvNtNtNtNtCs9ZIvzb94SJx_4core5slice4sort6stable9quicksort9quicksortTNtNtCsd97RIzLnxns_5gimli6common15DebugInfoOffsetNtB18_18DebugArangesOffsetENCINvMNtCs4z76MhC0nbo_5alloc5sliceSB15_11sort_by_keyB16_NCNvMs_NtCs6TFdUlxcy5y_9addr2line4unitINtB3k_8ResUnitsINtNtNtB1a_4read12endian_slice11EndianSliceNtNtB1a_9endianity12LittleEndianEE5parse0E0ECsk6apSIyUfCg_3std
libmozjs128-debug.so:_RINvNtNtNtNtCs9ZIvzb94SJx_4core5slice4sort8unstable8heapsort8heapsortNtNtNtNtNtCsk6apSIyUfCg_3std12backtrace_rs9symbolize5gimli3elf9ParsedSymNCINvMB8_SB15_20sort_unstable_by_keyyNCNvMs_B17_NtB17_6Object5parses1_0E0EB1f_
libmozjs128-debug.so:_RINvNvMs2_NtCs4z76MhC0nbo_5alloc7raw_vecINtB8_11RawVecInnerpE7reserve21do_reserve_and_handleNtNtBa_5alloc6GlobalECs6TFdUlxcy5y_9addr2line
libmozjs128-debug.so:_RINvXs0_NtNtNtCs9ZIvzb94SJx_4core4iter8adapters6copiedINtB6_6CopiedINtNtNtBc_5slice4iter4IterhEENtNtNtBa_6traits12double_ended19DoubleEndedIterator9try_rfoldjNCINvNvNtNtB1A_8iterator8Iterator9rposition5checkhNCNvMs2_NtCsglvZrah94c3_14rustc_demangle2v0NtB3s_6Parser5ident0E0INtNtNtBc_3ops12control_flow11ControlFlowjjEEB3u_
libmozjs128-debug.so:_RNvCs1vgVKqzVi9G_6adler213adler32_slice
libmozjs128-debug.so:_RNvCs7XP8T9flioK_14mozglue_static18str_truncate_valid
libmozjs128-debug.so:_RNvCsdGaayLnMd0D_7___rustc10rust_panic
libmozjs128-debug.so:_RNvCsdGaayLnMd0D_7___rustc11___rdl_alloc
libmozjs128-debug.so:_RNvCsdGaayLnMd0D_7___rustc12___rust_abort
libmozjs128-debug.so:_RNvCsdGaayLnMd0D_7___rustc12___rust_alloc
libmozjs128-debug.so:_RNvCsdGaayLnMd0D_7___rustc13___rdl_dealloc
libmozjs128-debug.so:_RNvCsdGaayLnMd0D_7___rustc13___rdl_realloc
libmozjs128-debug.so:_RNvCsdGaayLnMd0D_7___rustc14___rust_dealloc
libmozjs128-debug.so:_RNvCsdGaayLnMd0D_7___rustc14___rust_realloc
libmozjs128-debug.so:_RNvCsdGaayLnMd0D_7___rustc17___rust_drop_panic
libmozjs128-debug.so:_RNvCsdGaayLnMd0D_7___rustc17rust_begin_unwind
libmozjs128-debug.so:_RNvCsdGaayLnMd0D_7___rustc18___rdl_alloc_zeroed
libmozjs128-debug.so:_RNvCsdGaayLnMd0D_7___rustc18___rust_start_panic
libmozjs128-debug.so:_RNvCsdGaayLnMd0D_7___rustc19___rust_alloc_zeroed
libmozjs128-debug.so:_RNvCsdGaayLnMd0D_7___rustc20___rust_panic_cleanup
libmozjs128-debug.so:_RNvCsdGaayLnMd0D_7___rustc24___rust_foreign_exception
libmozjs128-debug.so:_RNvCsdGaayLnMd0D_7___rustc25___rdl_alloc_error_handler
libmozjs128-debug.so:_RNvCsdGaayLnMd0D_7___rustc26___rust_alloc_error_handler
libmozjs128-debug.so:_RNvCsdGaayLnMd0D_7___rustc35___rust_no_alloc_shim_is_unstable_v2
libmozjs128-debug.so:_RNvCsglvZrah94c3_14rustc_demangle12try_demangle
libmozjs128-debug.so:_RNvCsglvZrah94c3_14rustc_demangle8demangle
libmozjs128-debug.so:_RNvMCs1vgVKqzVi9G_6adler2NtB2_7Adler3211write_slice
libmozjs128-debug.so:_RNvMNtCs4z76MhC0nbo_5alloc6stringNtB2_6String10from_utf16
libmozjs128-debug.so:_RNvMNtCs4z76MhC0nbo_5alloc6stringNtB2_6String11try_reserve
libmozjs128-debug.so:_RNvMNtCs4z76MhC0nbo_5alloc6stringNtB2_6String12from_utf16be
libmozjs128-debug.so:_RNvMNtCs4z76MhC0nbo_5alloc6stringNtB2_6String12from_utf16le
libmozjs128-debug.so:_RNvMNtCs4z76MhC0nbo_5alloc6stringNtB2_6String15from_utf8_lossy
libmozjs128-debug.so:_RNvMNtCs4z76MhC0nbo_5alloc6stringNtB2_6String17try_reserve_exact
libmozjs128-debug.so:_RNvMNtCs4z76MhC0nbo_5alloc6stringNtB2_6String18from_utf16be_lossy
libmozjs128-debug.so:_RNvMNtCs4z76MhC0nbo_5alloc6stringNtB2_6String18from_utf16le_lossy
libmozjs128-debug.so:_RNvMNtCs4z76MhC0nbo_5alloc6stringNtB2_6String21from_utf8_lossy_owned
libmozjs128-debug.so:_RNvMNtCs9WTLM0oGNNa_8arrayvec6errorsINtB2_13CapacityErrorReE3newCs7XP8T9flioK_14mozglue_static
libmozjs128-debug.so:_RNvMNtCs9WTLM0oGNNa_8arrayvec6errorsINtB2_13CapacityErrorcE3newCs7XP8T9flioK_14mozglue_static
libmozjs128-debug.so:_RNvMNtCs9ZIvzb94SJx_4core3stre12escape_debug
libmozjs128-debug.so:_RNvMNtCs9ZIvzb94SJx_4core3stre12substr_range
libmozjs128-debug.so:_RNvMNtCs9ZIvzb94SJx_4core3stre13from_utf8_mut
libmozjs128-debug.so:_RNvMNtCs9ZIvzb94SJx_4core3stre22split_at_mut_unchecked
libmozjs128-debug.so:_RNvMNtCs9ZIvzb94SJx_4core3stre9from_utf8
libmozjs128-debug.so:_RNvMNtCs9ZIvzb94SJx_4core5sliceSh11starts_withCs6TFdUlxcy5y_9addr2line
libmozjs128-debug.so:_RNvMNtCs9ZIvzb94SJx_4core5sliceSh11starts_withCsglvZrah94c3_14rustc_demangle
libmozjs128-debug.so:_RNvMNtCs9ZIvzb94SJx_4core5sliceSh9ends_withCs6TFdUlxcy5y_9addr2line
libmozjs128-debug.so:_RNvMNtCsk6apSIyUfCg_3std4timeNtB2_7Instant11checked_add
libmozjs128-debug.so:_RNvMNtCsk6apSIyUfCg_3std4timeNtB2_7Instant11checked_sub
libmozjs128-debug.so:_RNvMNtCsk6apSIyUfCg_3std4timeNtB2_7Instant14duration_since
libmozjs128-debug.so:_RNvMNtCsk6apSIyUfCg_3std4timeNtB2_7Instant22checked_duration_since
libmozjs128-debug.so:_RNvMNtCsk6apSIyUfCg_3std4timeNtB2_7Instant25saturating_duration_since
libmozjs128-debug.so:_RNvMNtCsk6apSIyUfCg_3std4timeNtB2_7Instant3now
libmozjs128-debug.so:_RNvMNtCsk6apSIyUfCg_3std4timeNtB2_7Instant7elapsed
libmozjs128-debug.so:_RNvMNtNtCs9ZIvzb94SJx_4core3num3fmtNtB2_4Part3len
libmozjs128-debug.so:_RNvMNtNtCs9ZIvzb94SJx_4core3num3fmtNtB2_4Part5write
libmozjs128-debug.so:_RNvMNtNtCs9ZIvzb94SJx_4core3num9diy_floatNtB2_2Fp12normalize_to
libmozjs128-debug.so:_RNvMNtNtCs9ZIvzb94SJx_4core3ptr7mut_ptrOh7is_nullCs7XP8T9flioK_14mozglue_static
libmozjs128-debug.so:_RNvMNtNtCsk6apSIyUfCg_3std3net3tcpNtB2_9TcpStream10local_addr
libmozjs128-debug.so:_RNvMNtNtCsk6apSIyUfCg_3std3net3tcpNtB2_9TcpStream10set_linger
libmozjs128-debug.so:_RNvMNtNtCsk6apSIyUfCg_3std3net3tcpNtB2_9TcpStream10take_error
libmozjs128-debug.so:_RNvMNtNtCsk6apSIyUfCg_3std3net3tcpNtB2_9TcpStream11set_nodelay
libmozjs128-debug.so:_RNvMNtNtCsk6apSIyUfCg_3std3net3tcpNtB2_9TcpStream12read_timeout
libmozjs128-debug.so:_RNvMNtNtCsk6apSIyUfCg_3std3net3tcpNtB2_9TcpStream13write_timeout
libmozjs128-debug.so:_RNvMNtNtCsk6apSIyUfCg_3std3net3tcpNtB2_9TcpStream15connect_timeout
libmozjs128-debug.so:_RNvMNtNtCsk6apSIyUfCg_3std3net3tcpNtB2_9TcpStream15set_nonblocking
libmozjs128-debug.so:_RNvMNtNtCsk6apSIyUfCg_3std3net3tcpNtB2_9TcpStream16set_read_timeout
libmozjs128-debug.so:_RNvMNtNtCsk6apSIyUfCg_3std3net3tcpNtB2_9TcpStream17set_write_timeout
libmozjs128-debug.so:_RNvMNtNtCsk6apSIyUfCg_3std3net3tcpNtB2_9TcpStream3ttl
libmozjs128-debug.so:_RNvMNtNtCsk6apSIyUfCg_3std3net3tcpNtB2_9TcpStream4peek
libmozjs128-debug.so:_RNvMNtNtCsk6apSIyUfCg_3std3net3tcpNtB2_9TcpStream6linger
libmozjs128-debug.so:_RNvMNtNtCsk6apSIyUfCg_3std3net3tcpNtB2_9TcpStream7nodelay
libmozjs128-debug.so:_RNvMNtNtCsk6apSIyUfCg_3std3net3tcpNtB2_9TcpStream7set_ttl
libmozjs128-debug.so:_RNvMNtNtCsk6apSIyUfCg_3std3net3tcpNtB2_9TcpStream8shutdown
libmozjs128-debug.so:_RNvMNtNtCsk6apSIyUfCg_3std3net3tcpNtB2_9TcpStream9peer_addr
libmozjs128-debug.so:_RNvMNtNtCsk6apSIyUfCg_3std3net3tcpNtB2_9TcpStream9try_clone
libmozjs128-debug.so:_RNvMNtNtCsk6apSIyUfCg_3std3net3udpNtB2_9UdpSocket10local_addr
libmozjs128-debug.so:_RNvMNtNtCsk6apSIyUfCg_3std3net3udpNtB2_9UdpSocket10take_error
libmozjs128-debug.so:_RNvMNtNtCsk6apSIyUfCg_3std3net3udpNtB2_9UdpSocket12read_timeout
libmozjs128-debug.so:_RNvMNtNtCsk6apSIyUfCg_3std3net3udpNtB2_9UdpSocket13set_broadcast
libmozjs128-debug.so:_RNvMNtNtCsk6apSIyUfCg_3std3net3udpNtB2_9UdpSocket13write_timeout
libmozjs128-debug.so:_RNvMNtNtCsk6apSIyUfCg_3std3net3udpNtB2_9UdpSocket15set_nonblocking
libmozjs128-debug.so:_RNvMNtNtCsk6apSIyUfCg_3std3net3udpNtB2_9UdpSocket16multicast_ttl_v4
libmozjs128-debug.so:_RNvMNtNtCsk6apSIyUfCg_3std3net3udpNtB2_9UdpSocket16set_read_timeout
libmozjs128-debug.so:_RNvMNtNtCsk6apSIyUfCg_3std3net3udpNtB2_9UdpSocket17join_multicast_v4
libmozjs128-debug.so:_RNvMNtNtCsk6apSIyUfCg_3std3net3udpNtB2_9UdpSocket17join_multicast_v6
libmozjs128-debug.so:_RNvMNtNtCsk6apSIyUfCg_3std3net3udpNtB2_9UdpSocket17multicast_loop_v4
libmozjs128-debug.so:_RNvMNtNtCsk6apSIyUfCg_3std3net3udpNtB2_9UdpSocket17multicast_loop_v6
libmozjs128-debug.so:_RNvMNtNtCsk6apSIyUfCg_3std3net3udpNtB2_9UdpSocket17set_write_timeout
libmozjs128-debug.so:_RNvMNtNtCsk6apSIyUfCg_3std3net3udpNtB2_9UdpSocket18leave_multicast_v4
libmozjs128-debug.so:_RNvMNtNtCsk6apSIyUfCg_3std3net3udpNtB2_9UdpSocket18leave_multicast_v6
libmozjs128-debug.so:_RNvMNtNtCsk6apSIyUfCg_3std3net3udpNtB2_9UdpSocket20set_multicast_ttl_v4
libmozjs128-debug.so:_RNvMNtNtCsk6apSIyUfCg_3std3net3udpNtB2_9UdpSocket21set_multicast_loop_v4
libmozjs128-debug.so:_RNvMNtNtCsk6apSIyUfCg_3std3net3udpNtB2_9UdpSocket21set_multicast_loop_v6
libmozjs128-debug.so:_RNvMNtNtCsk6apSIyUfCg_3std3net3udpNtB2_9UdpSocket3ttl
libmozjs128-debug.so:_RNvMNtNtCsk6apSIyUfCg_3std3net3udpNtB2_9UdpSocket4peek
libmozjs128-debug.so:_RNvMNtNtCsk6apSIyUfCg_3std3net3udpNtB2_9UdpSocket4recv
libmozjs128-debug.so:_RNvMNtNtCsk6apSIyUfCg_3std3net3udpNtB2_9UdpSocket4send
libmozjs128-debug.so:_RNvMNtNtCsk6apSIyUfCg_3std3net3udpNtB2_9UdpSocket7set_ttl
libmozjs128-debug.so:_RNvMNtNtCsk6apSIyUfCg_3std3net3udpNtB2_9UdpSocket9broadcast
libmozjs128-debug.so:_RNvMNtNtCsk6apSIyUfCg_3std3net3udpNtB2_9UdpSocket9peek_from
libmozjs128-debug.so:_RNvMNtNtCsk6apSIyUfCg_3std3net3udpNtB2_9UdpSocket9peer_addr
libmozjs128-debug.so:_RNvMNtNtCsk6apSIyUfCg_3std3net3udpNtB2_9UdpSocket9recv_from
libmozjs128-debug.so:_RNvMNtNtCsk6apSIyUfCg_3std3net3udpNtB2_9UdpSocket9try_clone
libmozjs128-debug.so:_RNvMNtNtCsk6apSIyUfCg_3std6thread2idNtB2_8ThreadId3new
libmozjs128-debug.so:_RNvMNtNtCsk6apSIyUfCg_3std6thread6scopedNtB2_9ScopeData29decrement_num_running_threads
libmozjs128-debug.so:_RNvMNtNtCsk6apSIyUfCg_3std6thread6scopedNtB2_9ScopeData29increment_num_running_threads
libmozjs128-debug.so:_RNvMNtNtCsk6apSIyUfCg_3std6thread7builderNtB2_7Builder4name
libmozjs128-debug.so:_RNvMNtNtNtCs9ZIvzb94SJx_4core3num6bignum5testsNtB2_6Big8x310bit_length
libmozjs128-debug.so:_RNvMNtNtNtCs9ZIvzb94SJx_4core3num6bignum5testsNtB2_6Big8x310mul_digits
libmozjs128-debug.so:_RNvMNtNtNtCs9ZIvzb94SJx_4core3num6bignum5testsNtB2_6Big8x313div_rem_small
libmozjs128-debug.so:_RNvMNtNtNtCs9ZIvzb94SJx_4core3num6bignum5testsNtB2_6Big8x33add
libmozjs128-debug.so:_RNvMNtNtNtCs9ZIvzb94SJx_4core3num6bignum5testsNtB2_6Big8x33sub
libmozjs128-debug.so:_RNvMNtNtNtCs9ZIvzb94SJx_4core3num6bignum5testsNtB2_6Big8x36digits
libmozjs128-debug.so:_RNvMNtNtNtCs9ZIvzb94SJx_4core3num6bignum5testsNtB2_6Big8x37is_zero
libmozjs128-debug.so:_RNvMNtNtNtCs9ZIvzb94SJx_4core3num6bignum5testsNtB2_6Big8x38mul_pow2
libmozjs128-debug.so:_RNvMNtNtNtCs9ZIvzb94SJx_4core3num6bignum5testsNtB2_6Big8x38mul_pow5
libmozjs128-debug.so:_RNvMNtNtNtCs9ZIvzb94SJx_4core3num6bignum5testsNtB2_6Big8x39mul_small
libmozjs128-debug.so:_RNvMNtNtNtCs9ZIvzb94SJx_4core4iter8adapters3zipINtB2_3ZipINtNtNtB8_5slice4iter4ItertEINtBW_7IterMutmEE9super_nthCsdIMhsiQnxUU_11miniz_oxide
libmozjs128-debug.so:_RNvMNtNtNtCshlECYyjYKiK_6object4read2pe10relocationNtB2_23RelocationBlockIterator4next
libmozjs128-debug.so:_RNvMNtNtNtCshlECYyjYKiK_6object4read2pe14data_directoryNtB2_15DataDirectories3get
libmozjs128-debug.so:_RNvMNtNtNtCshlECYyjYKiK_6object4read2pe14data_directoryNtB2_15DataDirectories5parse
libmozjs128-debug.so:_RNvMNtNtNtCshlECYyjYKiK_6object4read2pe6importNtB2_11ImportTable4name
libmozjs128-debug.so:_RNvMNtNtNtCshlECYyjYKiK_6object4read2pe6importNtB2_11ImportTable9hint_name
libmozjs128-debug.so:_RNvMNtNtNtCshlECYyjYKiK_6object4read2pe8resourceNtB2_17ResourceDirectory4root
libmozjs128-debug.so:_RNvMNtNtNtCshlECYyjYKiK_6object4read3elf10relocationNtB2_18RelocationSections3get
libmozjs128-debug.so:_RNvMNtNtNtCsk6apSIyUfCg_3std2os5linux7processNtB2_5PidFd4kill
libmozjs128-debug.so:_RNvMNtNtNtCsk6apSIyUfCg_3std2os5linux7processNtB2_5PidFd4wait
libmozjs128-debug.so:_RNvMNtNtNtCsk6apSIyUfCg_3std2os5linux7processNtB2_5PidFd8try_wait
libmozjs128-debug.so:_RNvMNtNtNtCsk6apSIyUfCg_3std3sys2fd4unixNtB2_8FileDesc11read_buf_at
libmozjs128-debug.so:_RNvMNtNtNtCsk6apSIyUfCg_3std3sys2fd4unixNtB2_8FileDesc11read_to_end
libmozjs128-debug.so:_RNvMNtNtNtCsk6apSIyUfCg_3std3sys2fd4unixNtB2_8FileDesc11set_cloexec
libmozjs128-debug.so:_RNvMNtNtNtCsk6apSIyUfCg_3std3sys2fd4unixNtB2_8FileDesc13read_vectored
libmozjs128-debug.so:_RNvMNtNtNtCsk6apSIyUfCg_3std3sys2fd4unixNtB2_8FileDesc14write_vectored
libmozjs128-debug.so:_RNvMNtNtNtCsk6apSIyUfCg_3std3sys2fd4unixNtB2_8FileDesc15set_nonblocking
libmozjs128-debug.so:_RNvMNtNtNtCsk6apSIyUfCg_3std3sys2fd4unixNtB2_8FileDesc16read_vectored_at
libmozjs128-debug.so:_RNvMNtNtNtCsk6apSIyUfCg_3std3sys2fd4unixNtB2_8FileDesc17write_vectored_at
libmozjs128-debug.so:_RNvMNtNtNtCsk6apSIyUfCg_3std3sys2fd4unixNtB2_8FileDesc4read
libmozjs128-debug.so:_RNvMNtNtNtCsk6apSIyUfCg_3std3sys2fd4unixNtB2_8FileDesc5write
libmozjs128-debug.so:_RNvMNtNtNtCsk6apSIyUfCg_3std3sys2fd4unixNtB2_8FileDesc7read_at
libmozjs128-debug.so:_RNvMNtNtNtCsk6apSIyUfCg_3std3sys2fd4unixNtB2_8FileDesc8read_buf
libmozjs128-debug.so:_RNvMNtNtNtCsk6apSIyUfCg_3std3sys2fd4unixNtB2_8FileDesc8write_at
libmozjs128-debug.so:_RNvMNtNtNtCsk6apSIyUfCg_3std4sync4mpmc7contextNtB2_7Context3new
libmozjs128-debug.so:_RNvMNtNtNtCsk6apSIyUfCg_3std4sync6poison7condvarNtB2_7Condvar10notify_all
libmozjs128-debug.so:_RNvMNtNtNtCsk6apSIyUfCg_3std4sync6poison7condvarNtB2_7Condvar10notify_one
libmozjs128-debug.so:_RNvMNtNtNtCsk6apSIyUfCg_3std4sync9nonpoison7condvarNtB2_7Condvar10notify_all
libmozjs128-debug.so:_RNvMNtNtNtCsk6apSIyUfCg_3std4sync9nonpoison7condvarNtB2_7Condvar10notify_one
libmozjs128-debug.so:_RNvMNtNtNtNtCsk6apSIyUfCg_3std2io8buffered9bufreader6bufferNtB2_6Buffer9backshift
libmozjs128-debug.so:_RNvMNtNtNtNtCsk6apSIyUfCg_3std2os4unix3net4addrNtB2_10SocketAddr10from_parts
libmozjs128-debug.so:_RNvMNtNtNtNtCsk6apSIyUfCg_3std2os4unix3net4addrNtB2_10SocketAddr10is_unnamed
libmozjs128-debug.so:_RNvMNtNtNtNtCsk6apSIyUfCg_3std2os4unix3net4addrNtB2_10SocketAddr11as_pathname
libmozjs128-debug.so:_RNvMNtNtNtNtCsk6apSIyUfCg_3std3sys2fs4unix3dirNtB2_3Dir4open
libmozjs128-debug.so:_RNvMNtNtNtNtCsk6apSIyUfCg_3std3sys2fs4unix3dirNtB2_3Dir9open_file
libmozjs128-debug.so:_RNvMNtNtNtNtCsk6apSIyUfCg_3std3sys4sync5mutex5futexNtB2_5Mutex14lock_contended
libmozjs128-debug.so:_RNvMNtNtNtNtCsk6apSIyUfCg_3std3sys4sync5mutex5futexNtB2_5Mutex4wake
libmozjs128-debug.so:_RNvMNtNtNtNtCsk6apSIyUfCg_3std3sys4sync6rwlock5futexNtB2_6RwLock14read_contended
libmozjs128-debug.so:_RNvMNtNtNtNtCsk6apSIyUfCg_3std3sys4sync6rwlock5futexNtB2_6RwLock15write_contended
libmozjs128-debug.so:_RNvMNtNtNtNtCsk6apSIyUfCg_3std3sys4sync6rwlock5futexNtB2_6RwLock22wake_writer_or_readers
libmozjs128-debug.so:_RNvMNtNtNtNtCsk6apSIyUfCg_3std3sys4sync7condvar5futexNtB2_7Condvar12wait_timeout
libmozjs128-debug.so:_RNvMNtNtNtNtCsk6apSIyUfCg_3std3sys4sync7condvar5futexNtB2_7Condvar4wait
libmozjs128-debug.so:_RNvMNtNtNtNtNtCsk6apSIyUfCg_3std3sys3net10connection6socket4unixNtB2_6Socket3new
libmozjs128-debug.so:_RNvMNvMs_NtNtNtCsk6apSIyUfCg_3std2io8buffered9bufwriterINtB7_9BufWriterpE9flush_bufNtB2_8BufGuard9remaining
libmozjs128-debug.so:_RNvMs0_NtCs9ZIvzb94SJx_4core6escapeINtB5_15EscapeIterInnerKja_NtB5_12MaybeEscapedE4nextCsglvZrah94c3_14rustc_demangle
libmozjs128-debug.so:_RNvMs0_NtNtCs9ZIvzb94SJx_4core3fmt3numo11format_into
libmozjs128-debug.so:_RNvMs0_NtNtCs9ZIvzb94SJx_4core3fmt3numo4__fmt
libmozjs128-debug.so:_RNvMs0_NtNtCsk6apSIyUfCg_3std3ffi6os_strNtB5_8OsString17into_boxed_os_str
libmozjs128-debug.so:_RNvMs0_NtNtCsk6apSIyUfCg_3std4sync4onceNtB5_4Once10wait_force
libmozjs128-debug.so:_RNvMs0_NtNtCsk6apSIyUfCg_3std4sync4onceNtB5_4Once4wait
libmozjs128-debug.so:_RNvMs0_NtNtCsk6apSIyUfCg_3std4sync7barrierNtB5_7Barrier4wait
libmozjs128-debug.so:_RNvMs0_NtNtNtCs4vvGeN3ANz4_6memchr4arch3all6twowayNtB5_5Shift7forward
libmozjs128-debug.so:_RNvMs0_NtNtNtCs4vvGeN3ANz4_6memchr4arch3all6twowayNtB5_5Shift7reverse
libmozjs128-debug.so:_RNvMs0_NtNtNtCs9ZIvzb94SJx_4core3fmt3num3imph4__fmt
libmozjs128-debug.so:_RNvMs0_NtNtNtCshlECYyjYKiK_6object4read2pe8resourceNtNtBb_2pe27ImageResourceDirectoryEntry4data
libmozjs128-debug.so:_RNvMs0_NtNtNtCsk6apSIyUfCg_3std2os2fd5ownedNtB5_10BorrowedFd18try_clone_to_owned
libmozjs128-debug.so:_RNvMs0_NtNtNtCsk6apSIyUfCg_3std3sys6thread4unixNtB5_6Thread3new
libmozjs128-debug.so:_RNvMs0_NtNtNtCsk6apSIyUfCg_3std3sys6thread4unixNtB5_6Thread4join
libmozjs128-debug.so:_RNvMs0_NtNtNtNtCsk6apSIyUfCg_3std2os4unix3net6streamNtB5_10UnixStream10local_addr
libmozjs128-debug.so:_RNvMs0_NtNtNtNtCsk6apSIyUfCg_3std2os4unix3net6streamNtB5_10UnixStream10take_error
libmozjs128-debug.so:_RNvMs0_NtNtNtNtCsk6apSIyUfCg_3std2os4unix3net6streamNtB5_10UnixStream12connect_addr
libmozjs128-debug.so:_RNvMs0_NtNtNtNtCsk6apSIyUfCg_3std2os4unix3net6streamNtB5_10UnixStream12read_timeout
libmozjs128-debug.so:_RNvMs0_NtNtNtNtCsk6apSIyUfCg_3std2os4unix3net6streamNtB5_10UnixStream13write_timeout
libmozjs128-debug.so:_RNvMs0_NtNtNtNtCsk6apSIyUfCg_3std2os4unix3net6streamNtB5_10UnixStream15set_nonblocking
libmozjs128-debug.so:_RNvMs0_NtNtNtNtCsk6apSIyUfCg_3std2os4unix3net6streamNtB5_10UnixStream16set_read_timeout
libmozjs128-debug.so:_RNvMs0_NtNtNtNtCsk6apSIyUfCg_3std2os4unix3net6streamNtB5_10UnixStream17set_write_timeout
libmozjs128-debug.so:_RNvMs0_NtNtNtNtCsk6apSIyUfCg_3std2os4unix3net6streamNtB5_10UnixStream28recv_vectored_with_ancillary
libmozjs128-debug.so:_RNvMs0_NtNtNtNtCsk6apSIyUfCg_3std2os4unix3net6streamNtB5_10UnixStream28send_vectored_with_ancillary
libmozjs128-debug.so:_RNvMs0_NtNtNtNtCsk6apSIyUfCg_3std2os4unix3net6streamNtB5_10UnixStream4pair
libmozjs128-debug.so:_RNvMs0_NtNtNtNtCsk6apSIyUfCg_3std2os4unix3net6streamNtB5_10UnixStream4peek
libmozjs128-debug.so:_RNvMs0_NtNtNtNtCsk6apSIyUfCg_3std2os4unix3net6streamNtB5_10UnixStream8set_mark
libmozjs128-debug.so:_RNvMs0_NtNtNtNtCsk6apSIyUfCg_3std2os4unix3net6streamNtB5_10UnixStream8shutdown
libmozjs128-debug.so:_RNvMs0_NtNtNtNtCsk6apSIyUfCg_3std2os4unix3net6streamNtB5_10UnixStream9peer_addr
libmozjs128-debug.so:_RNvMs0_NtNtNtNtCsk6apSIyUfCg_3std2os4unix3net6streamNtB5_10UnixStream9peer_cred
libmozjs128-debug.so:_RNvMs0_NtNtNtNtCsk6apSIyUfCg_3std2os4unix3net6streamNtB5_10UnixStream9try_clone
libmozjs128-debug.so:_RNvMs0_NtNtNtNtCsk6apSIyUfCg_3std2os4unix3net8datagramNtB5_12UnixDatagram10local_addr
libmozjs128-debug.so:_RNvMs0_NtNtNtNtCsk6apSIyUfCg_3std2os4unix3net8datagramNtB5_12UnixDatagram10take_error
libmozjs128-debug.so:_RNvMs0_NtNtNtNtCsk6apSIyUfCg_3std2os4unix3net8datagramNtB5_12UnixDatagram12connect_addr
libmozjs128-debug.so:_RNvMs0_NtNtNtNtCsk6apSIyUfCg_3std2os4unix3net8datagramNtB5_12UnixDatagram12read_timeout
libmozjs128-debug.so:_RNvMs0_NtNtNtNtCsk6apSIyUfCg_3std2os4unix3net8datagramNtB5_12UnixDatagram12send_to_addr
libmozjs128-debug.so:_RNvMs0_NtNtNtNtCsk6apSIyUfCg_3std2os4unix3net8datagramNtB5_12UnixDatagram13write_timeout
libmozjs128-debug.so:_RNvMs0_NtNtNtNtCsk6apSIyUfCg_3std2os4unix3net8datagramNtB5_12UnixDatagram15set_nonblocking
libmozjs128-debug.so:_RNvMs0_NtNtNtNtCsk6apSIyUfCg_3std2os4unix3net8datagramNtB5_12UnixDatagram16set_read_timeout
libmozjs128-debug.so:_RNvMs0_NtNtNtNtCsk6apSIyUfCg_3std2os4unix3net8datagramNtB5_12UnixDatagram17set_write_timeout
libmozjs128-debug.so:_RNvMs0_NtNtNtNtCsk6apSIyUfCg_3std2os4unix3net8datagramNtB5_12UnixDatagram28recv_vectored_with_ancillary
libmozjs128-debug.so:_RNvMs0_NtNtNtNtCsk6apSIyUfCg_3std2os4unix3net8datagramNtB5_12UnixDatagram28send_vectored_with_ancillary
libmozjs128-debug.so:_RNvMs0_NtNtNtNtCsk6apSIyUfCg_3std2os4unix3net8datagramNtB5_12UnixDatagram33recv_vectored_with_ancillary_from
libmozjs128-debug.so:_RNvMs0_NtNtNtNtCsk6apSIyUfCg_3std2os4unix3net8datagramNtB5_12UnixDatagram4pair
libmozjs128-debug.so:_RNvMs0_NtNtNtNtCsk6apSIyUfCg_3std2os4unix3net8datagramNtB5_12UnixDatagram4peek
libmozjs128-debug.so:_RNvMs0_NtNtNtNtCsk6apSIyUfCg_3std2os4unix3net8datagramNtB5_12UnixDatagram4recv
libmozjs128-debug.so:_RNvMs0_NtNtNtNtCsk6apSIyUfCg_3std2os4unix3net8datagramNtB5_12UnixDatagram4send
libmozjs128-debug.so:_RNvMs0_NtNtNtNtCsk6apSIyUfCg_3std2os4unix3net8datagramNtB5_12UnixDatagram7unbound
libmozjs128-debug.so:_RNvMs0_NtNtNtNtCsk6apSIyUfCg_3std2os4unix3net8datagramNtB5_12UnixDatagram8set_mark
libmozjs128-debug.so:_RNvMs0_NtNtNtNtCsk6apSIyUfCg_3std2os4unix3net8datagramNtB5_12UnixDatagram8shutdown
libmozjs128-debug.so:_RNvMs0_NtNtNtNtCsk6apSIyUfCg_3std2os4unix3net8datagramNtB5_12UnixDatagram9bind_addr
libmozjs128-debug.so:_RNvMs0_NtNtNtNtCsk6apSIyUfCg_3std2os4unix3net8datagramNtB5_12UnixDatagram9peek_from
libmozjs128-debug.so:_RNvMs0_NtNtNtNtCsk6apSIyUfCg_3std2os4unix3net8datagramNtB5_12UnixDatagram9peer_addr
libmozjs128-debug.so:_RNvMs0_NtNtNtNtCsk6apSIyUfCg_3std2os4unix3net8datagramNtB5_12UnixDatagram9recv_from
libmozjs128-debug.so:_RNvMs0_NtNtNtNtCsk6apSIyUfCg_3std2os4unix3net8datagramNtB5_12UnixDatagram9try_clone
libmozjs128-debug.so:_RNvMs0_NtNtNtNtCsk6apSIyUfCg_3std3sys4sync4once5futexNtB5_4Once4call
libmozjs128-debug.so:_RNvMs16_NtCsk6apSIyUfCg_3std4pathNtB6_4Path10__ends_with
libmozjs128-debug.so:_RNvMs16_NtCsk6apSIyUfCg_3std4pathNtB6_4Path10components
libmozjs128-debug.so:_RNvMs16_NtCsk6apSIyUfCg_3std4pathNtB6_4Path10is_symlink
libmozjs128-debug.so:_RNvMs16_NtCsk6apSIyUfCg_3std4pathNtB6_4Path11file_prefix
libmozjs128-debug.so:_RNvMs16_NtCsk6apSIyUfCg_3std4pathNtB6_4Path11is_absolute
libmozjs128-debug.so:_RNvMs16_NtCsk6apSIyUfCg_3std4pathNtB6_4Path11to_path_buf
libmozjs128-debug.so:_RNvMs16_NtCsk6apSIyUfCg_3std4pathNtB6_4Path12__starts_with
libmozjs128-debug.so:_RNvMs16_NtCsk6apSIyUfCg_3std4pathNtB6_4Path13__strip_prefix
libmozjs128-debug.so:_RNvMs16_NtCsk6apSIyUfCg_3std4pathNtB6_4Path13into_path_buf
libmozjs128-debug.so:_RNvMs16_NtCsk6apSIyUfCg_3std4pathNtB6_4Path15__with_extension
libmozjs128-debug.so:_RNvMs16_NtCsk6apSIyUfCg_3std4pathNtB6_4Path15__with_file_name
libmozjs128-debug.so:_RNvMs16_NtCsk6apSIyUfCg_3std4pathNtB6_4Path19normalize_lexically
libmozjs128-debug.so:_RNvMs16_NtCsk6apSIyUfCg_3std4pathNtB6_4Path5__join
libmozjs128-debug.so:_RNvMs16_NtCsk6apSIyUfCg_3std4pathNtB6_4Path6is_dir
libmozjs128-debug.so:_RNvMs16_NtCsk6apSIyUfCg_3std4pathNtB6_4Path6parent
libmozjs128-debug.so:_RNvMs16_NtCsk6apSIyUfCg_3std4pathNtB6_4Path7is_file
libmozjs128-debug.so:_RNvMs16_NtCsk6apSIyUfCg_3std4pathNtB6_4Path9extension
libmozjs128-debug.so:_RNvMs16_NtCsk6apSIyUfCg_3std4pathNtB6_4Path9file_name
libmozjs128-debug.so:_RNvMs16_NtCsk6apSIyUfCg_3std4pathNtB6_4Path9file_stem
libmozjs128-debug.so:_RNvMs19_NtCs4z76MhC0nbo_5alloc6stringNtB6_5Drain6as_str
libmozjs128-debug.so:_RNvMs1_NtNtCs9ZIvzb94SJx_4core3fmt3numn11format_into
libmozjs128-debug.so:_RNvMs1_NtNtCs9ZIvzb94SJx_4core3fmt8buildersNtB5_11DebugStruct21finish_non_exhaustive
libmozjs128-debug.so:_RNvMs1_NtNtCs9ZIvzb94SJx_4core3fmt8buildersNtB5_11DebugStruct5field
libmozjs128-debug.so:_RNvMs1_NtNtCs9ZIvzb94SJx_4core3fmt8buildersNtB5_11DebugStruct6finish
libmozjs128-debug.so:_RNvMs1_NtNtCs9ZIvzb94SJx_4core3net6parserNtNtB7_7ip_addr8Ipv4Addr11parse_ascii
libmozjs128-debug.so:_RNvMs1_NtNtCsk6apSIyUfCg_3std2io5stdioNtB5_5Stdin4lock
libmozjs128-debug.so:_RNvMs1_NtNtCsk6apSIyUfCg_3std2io5stdioNtB5_5Stdin5lines
libmozjs128-debug.so:_RNvMs1_NtNtCsk6apSIyUfCg_3std2io5stdioNtB5_5Stdin9read_line
libmozjs128-debug.so:_RNvMs1_NtNtNtCs9ZIvzb94SJx_4core3fmt3num3impa11format_into
libmozjs128-debug.so:_RNvMs1_NtNtNtCshlECYyjYKiK_6object4read2pe6exportNtB5_11ExportTable14forward_string
libmozjs128-debug.so:_RNvMs1_NtNtNtCshlECYyjYKiK_6object4read2pe6exportNtB5_11ExportTable15parse_directory
libmozjs128-debug.so:_RNvMs1_NtNtNtCshlECYyjYKiK_6object4read2pe6exportNtB5_11ExportTable15target_by_index
libmozjs128-debug.so:_RNvMs1_NtNtNtCshlECYyjYKiK_6object4read2pe6exportNtB5_11ExportTable17name_from_pointer
libmozjs128-debug.so:_RNvMs1_NtNtNtCshlECYyjYKiK_6object4read2pe6exportNtB5_11ExportTable17target_by_ordinal
libmozjs128-debug.so:_RNvMs1_NtNtNtCshlECYyjYKiK_6object4read2pe6exportNtB5_11ExportTable18address_by_ordinal
libmozjs128-debug.so:_RNvMs1_NtNtNtCshlECYyjYKiK_6object4read2pe6exportNtB5_11ExportTable19target_from_address
libmozjs128-debug.so:_RNvMs1_NtNtNtCshlECYyjYKiK_6object4read2pe6exportNtB5_11ExportTable5parse
libmozjs128-debug.so:_RNvMs1_NtNtNtCshlECYyjYKiK_6object4read2pe6exportNtB5_11ExportTable7exports
libmozjs128-debug.so:_RNvMs1_NtNtNtCshlECYyjYKiK_6object4read2pe6exportNtB5_11ExportTable9name_iter
libmozjs128-debug.so:_RNvMs1b_NtCsd97RIzLnxns_5gimli9constantsNtB6_4DwAt13static_string
libmozjs128-debug.so:_RNvMs1n_NtCsd97RIzLnxns_5gimli9constantsNtB6_6DwForm13static_string
libmozjs128-debug.so:_RNvMs2V_NtCsd97RIzLnxns_5gimli9constantsNtB6_6DwLang13static_string
libmozjs128-debug.so:_RNvMs2_NtCs4z76MhC0nbo_5alloc4wtf8NtB5_7Wtf8Buf11into_string
libmozjs128-debug.so:_RNvMs2_NtCs4z76MhC0nbo_5alloc4wtf8NtB5_7Wtf8Buf17into_string_lossy
libmozjs128-debug.so:_RNvMs2_NtCs4z76MhC0nbo_5alloc4wtf8NtB5_7Wtf8Buf25push_code_point_unchecked
libmozjs128-debug.so:_RNvMs2_NtCs4z76MhC0nbo_5alloc4wtf8NtB5_7Wtf8Buf8from_box
libmozjs128-debug.so:_RNvMs2_NtCs4z76MhC0nbo_5alloc4wtf8NtB5_7Wtf8Buf9from_wide
libmozjs128-debug.so:_RNvMs2_NtCs4z76MhC0nbo_5alloc7raw_vecNtB5_11RawVecInner10deallocateCsd97RIzLnxns_5gimli
libmozjs128-debug.so:_RNvMs2_NtCsk6apSIyUfCg_3std2fsNtB5_4File11lock_shared
libmozjs128-debug.so:_RNvMs2_NtCsk6apSIyUfCg_3std2fsNtB5_4File15set_permissions
libmozjs128-debug.so:_RNvMs2_NtCsk6apSIyUfCg_3std2fsNtB5_4File15try_lock_shared
libmozjs128-debug.so:_RNvMs2_NtCsk6apSIyUfCg_3std2fsNtB5_4File4lock
libmozjs128-debug.so:_RNvMs2_NtCsk6apSIyUfCg_3std2fsNtB5_4File6unlock
libmozjs128-debug.so:_RNvMs2_NtCsk6apSIyUfCg_3std2fsNtB5_4File7set_len
libmozjs128-debug.so:_RNvMs2_NtCsk6apSIyUfCg_3std2fsNtB5_4File8metadata
libmozjs128-debug.so:_RNvMs2_NtCsk6apSIyUfCg_3std2fsNtB5_4File8sync_all
libmozjs128-debug.so:_RNvMs2_NtCsk6apSIyUfCg_3std2fsNtB5_4File8try_lock
libmozjs128-debug.so:_RNvMs2_NtCsk6apSIyUfCg_3std2fsNtB5_4File9set_times
libmozjs128-debug.so:_RNvMs2_NtCsk6apSIyUfCg_3std2fsNtB5_4File9sync_data
libmozjs128-debug.so:_RNvMs2_NtCsk6apSIyUfCg_3std2fsNtB5_4File9try_clone
libmozjs128-debug.so:_RNvMs2_NtCsk6apSIyUfCg_3std2ioNtB5_10IoSliceMut10into_slice
libmozjs128-debug.so:_RNvMs2_NtCsk6apSIyUfCg_3std9backtraceNtB5_9Backtrace13force_capture
libmozjs128-debug.so:_RNvMs2_NtCsk6apSIyUfCg_3std9backtraceNtB5_9Backtrace7capture
libmozjs128-debug.so:_RNvMs2_NtNtCs9ZIvzb94SJx_4core3fmt8buildersNtB5_10DebugTuple21finish_non_exhaustive
libmozjs128-debug.so:_RNvMs2_NtNtCs9ZIvzb94SJx_4core3fmt8buildersNtB5_10DebugTuple5field
libmozjs128-debug.so:_RNvMs2_NtNtCs9ZIvzb94SJx_4core3fmt8buildersNtB5_10DebugTuple6finish
libmozjs128-debug.so:_RNvMs2_NtNtCs9ZIvzb94SJx_4core3num6bignumNtB5_8Big32x4010bit_length
libmozjs128-debug.so:_RNvMs2_NtNtCs9ZIvzb94SJx_4core3num6bignumNtB5_8Big32x4010mul_digits
libmozjs128-debug.so:_RNvMs2_NtNtCs9ZIvzb94SJx_4core3num6bignumNtB5_8Big32x4013div_rem_small
libmozjs128-debug.so:_RNvMs2_NtNtCs9ZIvzb94SJx_4core3num6bignumNtB5_8Big32x403add
libmozjs128-debug.so:_RNvMs2_NtNtCs9ZIvzb94SJx_4core3num6bignumNtB5_8Big32x403sub
libmozjs128-debug.so:_RNvMs2_NtNtCs9ZIvzb94SJx_4core3num6bignumNtB5_8Big32x406digits
libmozjs128-debug.so:_RNvMs2_NtNtCs9ZIvzb94SJx_4core3num6bignumNtB5_8Big32x407is_zero
libmozjs128-debug.so:_RNvMs2_NtNtCs9ZIvzb94SJx_4core3num6bignumNtB5_8Big32x408mul_pow2
libmozjs128-debug.so:_RNvMs2_NtNtCs9ZIvzb94SJx_4core3num6bignumNtB5_8Big32x408mul_pow5
libmozjs128-debug.so:_RNvMs2_NtNtCs9ZIvzb94SJx_4core3num6bignumNtB5_8Big32x409mul_small
libmozjs128-debug.so:_RNvMs2_NtNtCsk6apSIyUfCg_3std2io4pipeNtB5_10PipeReader9try_clone
libmozjs128-debug.so:_RNvMs2_NtNtNtCs9ZIvzb94SJx_4core3fmt3num3imph11format_into
libmozjs128-debug.so:_RNvMs2_NtNtNtCshlECYyjYKiK_6object4read2pe8resourceNtB5_12ResourceName15to_string_lossy
libmozjs128-debug.so:_RNvMs2_NtNtNtCshlECYyjYKiK_6object4read2pe8resourceNtB5_12ResourceName4data
libmozjs128-debug.so:_RNvMs2_NtNtNtCshlECYyjYKiK_6object4read2pe8resourceNtB5_12ResourceName8raw_data
libmozjs128-debug.so:_RNvMs3_NtCs4z76MhC0nbo_5alloc3stre12to_lowercase
libmozjs128-debug.so:_RNvMs3_NtCs4z76MhC0nbo_5alloc3stre12to_uppercase
libmozjs128-debug.so:_RNvMs3_NtCs4z76MhC0nbo_5alloc7raw_vecINtB5_6RawVecINtNtB7_3vec3VechEE8grow_oneCsk6apSIyUfCg_3std
libmozjs128-debug.so:_RNvMs3_NtCs4z76MhC0nbo_5alloc7raw_vecINtB5_6RawVecINtNtB7_5boxed3BoxDINtNtNtCs9ZIvzb94SJx_4core3ops8function5FnMutuEp6OutputINtNtB1c_6result6ResultuNtNtNtCsk6apSIyUfCg_3std2io5error5ErrorENtNtB1c_6marker4SyncNtB32_4SendEL_EE8grow_oneB2s_
libmozjs128-debug.so:_RNvMs3_NtCs4z76MhC0nbo_5alloc7raw_vecINtB5_6RawVecINtNtCs6TFdUlxcy5y_9addr2line4unit7ResUnitINtNtNtCsd97RIzLnxns_5gimli4read12endian_slice11EndianSliceNtNtB1z_9endianity12LittleEndianEEE8grow_oneCsk6apSIyUfCg_3std
libmozjs128-debug.so:_RNvMs3_NtCs4z76MhC0nbo_5alloc7raw_vecINtB5_6RawVecINtNtCs6TFdUlxcy5y_9addr2line4unit7SupUnitINtNtNtCsd97RIzLnxns_5gimli4read12endian_slice11EndianSliceNtNtB1z_9endianity12LittleEndianEEE8grow_oneCsk6apSIyUfCg_3std
libmozjs128-debug.so:_RNvMs3_NtCs4z76MhC0nbo_5alloc7raw_vecINtB5_6RawVecINtNtCs6TFdUlxcy5y_9addr2line8function12LazyFunctionINtNtNtCsd97RIzLnxns_5gimli4read12endian_slice11EndianSliceNtNtB1J_9endianity12LittleEndianEEE8grow_oneCsk6apSIyUfCg_3std
libmozjs128-debug.so:_RNvMs3_NtCs4z76MhC0nbo_5alloc7raw_vecINtB5_6RawVecINtNtCs6TFdUlxcy5y_9addr2line8function15InlinedFunctionINtNtNtCsd97RIzLnxns_5gimli4read12endian_slice11EndianSliceNtNtB1M_9endianity12LittleEndianEEE8grow_oneCsk6apSIyUfCg_3std
libmozjs128-debug.so:_RNvMs3_NtCs4z76MhC0nbo_5alloc7raw_vecINtB5_6RawVecINtNtNtCsd97RIzLnxns_5gimli4read4line9FileEntryINtNtBR_12endian_slice11EndianSliceNtNtBT_9endianity12LittleEndianEjEE8grow_oneCsk6apSIyUfCg_3std
libmozjs128-debug.so:_RNvMs3_NtCs4z76MhC0nbo_5alloc7raw_vecINtB5_6RawVecINtNtNtCsd97RIzLnxns_5gimli4read4unit14AttributeValueINtNtBR_12endian_slice11EndianSliceNtNtBT_9endianity12LittleEndianEjEE8grow_oneCsk6apSIyUfCg_3std
libmozjs128-debug.so:_RNvMs3_NtCs4z76MhC0nbo_5alloc7raw_vecINtB5_6RawVecNtNtB7_6string6StringE8grow_oneCsk6apSIyUfCg_3std
libmozjs128-debug.so:_RNvMs3_NtCs4z76MhC0nbo_5alloc7raw_vecINtB5_6RawVecNtNtCs6TFdUlxcy5y_9addr2line4line12LineSequenceE8grow_oneCsk6apSIyUfCg_3std
libmozjs128-debug.so:_RNvMs3_NtCs4z76MhC0nbo_5alloc7raw_vecINtB5_6RawVecNtNtCs6TFdUlxcy5y_9addr2line4line7LineRowE8grow_oneCsk6apSIyUfCg_3std
libmozjs128-debug.so:_RNvMs3_NtCs4z76MhC0nbo_5alloc7raw_vecINtB5_6RawVecNtNtCs6TFdUlxcy5y_9addr2line4unit9UnitRangeE8grow_oneCsk6apSIyUfCg_3std
libmozjs128-debug.so:_RNvMs3_NtCs4z76MhC0nbo_5alloc7raw_vecINtB5_6RawVecNtNtCs6TFdUlxcy5y_9addr2line8function15FunctionAddressE8grow_oneCsk6apSIyUfCg_3std
libmozjs128-debug.so:_RNvMs3_NtCs4z76MhC0nbo_5alloc7raw_vecINtB5_6RawVecNtNtCs6TFdUlxcy5y_9addr2line8function22InlinedFunctionAddressE8grow_oneCsk6apSIyUfCg_3std
libmozjs128-debug.so:_RNvMs3_NtCs4z76MhC0nbo_5alloc7raw_vecINtB5_6RawVecNtNtCsk6apSIyUfCg_3std9backtrace14BacktraceFrameE8grow_oneBQ_
libmozjs128-debug.so:_RNvMs3_NtCs4z76MhC0nbo_5alloc7raw_vecINtB5_6RawVecNtNtCsk6apSIyUfCg_3std9backtrace15BacktraceSymbolE8grow_oneBQ_
libmozjs128-debug.so:_RNvMs3_NtCs4z76MhC0nbo_5alloc7raw_vecINtB5_6RawVecNtNtNtCsd97RIzLnxns_5gimli4read4line15FileEntryFormatE8grow_oneCsk6apSIyUfCg_3std
libmozjs128-debug.so:_RNvMs3_NtCs4z76MhC0nbo_5alloc7raw_vecINtB5_6RawVecNtNtNtCsd97RIzLnxns_5gimli4read6abbrev12AbbreviationE8grow_oneBS_
libmozjs128-debug.so:_RNvMs3_NtCs4z76MhC0nbo_5alloc7raw_vecINtB5_6RawVecNtNtNtCsd97RIzLnxns_5gimli4read6abbrev22AttributeSpecificationE8grow_oneBS_
libmozjs128-debug.so:_RNvMs3_NtCs4z76MhC0nbo_5alloc7raw_vecINtB5_6RawVecNtNtNtCsk6apSIyUfCg_3std3ffi6os_str8OsStringE8grow_oneBS_
libmozjs128-debug.so:_RNvMs3_NtCs4z76MhC0nbo_5alloc7raw_vecINtB5_6RawVecNtNtNtNtCshlECYyjYKiK_6object4read2pe6export6ExportE8grow_oneBU_
libmozjs128-debug.so:_RNvMs3_NtCs4z76MhC0nbo_5alloc7raw_vecINtB5_6RawVecNtNtNtNtCsk6apSIyUfCg_3std12backtrace_rs9symbolize5gimli7LibraryE8grow_oneBU_
libmozjs128-debug.so:_RNvMs3_NtCs4z76MhC0nbo_5alloc7raw_vecINtB5_6RawVecNtNtNtNtNtCsk6apSIyUfCg_3std12backtrace_rs9symbolize5gimli19parse_running_mmaps9MapsEntryE8grow_oneBW_
libmozjs128-debug.so:_RNvMs3_NtCs4z76MhC0nbo_5alloc7raw_vecINtB5_6RawVecNtNtNtNtNtCsk6apSIyUfCg_3std12backtrace_rs9symbolize5gimli4mmap4MmapE8grow_oneBW_
libmozjs128-debug.so:_RNvMs3_NtCs4z76MhC0nbo_5alloc7raw_vecINtB5_6RawVecPaE8grow_oneCsk6apSIyUfCg_3std
libmozjs128-debug.so:_RNvMs3_NtCs4z76MhC0nbo_5alloc7raw_vecINtB5_6RawVecRINtNtCs6TFdUlxcy5y_9addr2line8function15InlinedFunctionINtNtNtCsd97RIzLnxns_5gimli4read12endian_slice11EndianSliceNtNtB1N_9endianity12LittleEndianEEE8grow_oneCsk6apSIyUfCg_3std
libmozjs128-debug.so:_RNvMs3_NtCs4z76MhC0nbo_5alloc7raw_vecINtB5_6RawVecTNtNtCsd97RIzLnxns_5gimli6common15DebugInfoOffsetNtBP_18DebugArangesOffsetEE8grow_oneCsk6apSIyUfCg_3std
libmozjs128-debug.so:_RNvMs3_NtCs4z76MhC0nbo_5alloc7raw_vecINtB5_6RawVecTNtNtNtCsk6apSIyUfCg_3std3ffi6os_str8OsStringBN_EE8grow_oneBT_
libmozjs128-debug.so:_RNvMs3_NtCs4z76MhC0nbo_5alloc7raw_vecINtB5_6RawVecTOhFUKCBN_EuENtNtCsk6apSIyUfCg_3std5alloc6SystemE8grow_oneB13_
libmozjs128-debug.so:_RNvMs3_NtCs4z76MhC0nbo_5alloc7raw_vecINtB5_6RawVechE8grow_oneB7_
libmozjs128-debug.so:_RNvMs3_NtCsd97RIzLnxns_5gimli4archNtB5_3Arm13register_name
libmozjs128-debug.so:_RNvMs3_NtCsd97RIzLnxns_5gimli4archNtB5_3Arm16name_to_register
libmozjs128-debug.so:_RNvMs3_NtCsk6apSIyUfCg_3std9backtraceNtB5_9Backtrace6frames
libmozjs128-debug.so:_RNvMs3_NtNtCs9ZIvzb94SJx_4core3ffi5c_strNtB5_4CStr19from_bytes_with_nul
libmozjs128-debug.so:_RNvMs3_NtNtCs9ZIvzb94SJx_4core3ffi5c_strNtB5_4CStr20from_bytes_until_nul
libmozjs128-debug.so:_RNvMs3_NtNtCs9ZIvzb94SJx_4core3ffi5c_strNtB5_4CStr6to_str
libmozjs128-debug.so:_RNvMs3_NtNtCs9ZIvzb94SJx_4core3net6parserNtNtB7_7ip_addr8Ipv6Addr11parse_ascii
libmozjs128-debug.so:_RNvMs3_NtNtCsk6apSIyUfCg_3std2io4pipeNtB5_10PipeWriter9try_clone
libmozjs128-debug.so:_RNvMs4_NtCs4z76MhC0nbo_5alloc7raw_vecNtB5_11RawVecInner11finish_growCsd97RIzLnxns_5gimli
libmozjs128-debug.so:_RNvMs4_NtCs4z76MhC0nbo_5alloc7raw_vecNtB5_11RawVecInner14grow_amortizedCsd97RIzLnxns_5gimli
libmozjs128-debug.so:_RNvMs4_NtCs4z76MhC0nbo_5alloc7raw_vecNtB5_11RawVecInner15try_allocate_inCsd97RIzLnxns_5gimli
libmozjs128-debug.so:_RNvMs4_NtNtCs9ZIvzb94SJx_4core3fmt8buildersNtB5_8DebugSet21finish_non_exhaustive
libmozjs128-debug.so:_RNvMs4_NtNtCs9ZIvzb94SJx_4core3fmt8buildersNtB5_8DebugSet5entry
libmozjs128-debug.so:_RNvMs4_NtNtCs9ZIvzb94SJx_4core3fmt8buildersNtB5_8DebugSet6finish
libmozjs128-debug.so:_RNvMs4_NtNtCsd97RIzLnxns_5gimli4read6abbrevNtB5_13Abbreviations6insert
libmozjs128-debug.so:_RNvMs4_NtNtNtCshlECYyjYKiK_6object4read2pe6importNtB5_20DelayLoadImportTable4name
libmozjs128-debug.so:_RNvMs4_NtNtNtCshlECYyjYKiK_6object4read2pe6importNtB5_20DelayLoadImportTable9hint_name
libmozjs128-debug.so:_RNvMs5P_NtCsd97RIzLnxns_5gimli9constantsNtB6_4DwOp13static_string
libmozjs128-debug.so:_RNvMs5_NtCs4z76MhC0nbo_5alloc4wtf8NtNtCs9ZIvzb94SJx_4core4wtf84Wtf810clone_into
libmozjs128-debug.so:_RNvMs5_NtCs4z76MhC0nbo_5alloc4wtf8NtNtCs9ZIvzb94SJx_4core4wtf84Wtf815to_string_lossy
libmozjs128-debug.so:_RNvMs5_NtCs4z76MhC0nbo_5alloc4wtf8NtNtCs9ZIvzb94SJx_4core4wtf84Wtf87into_rc
libmozjs128-debug.so:_RNvMs5_NtCs4z76MhC0nbo_5alloc4wtf8NtNtCs9ZIvzb94SJx_4core4wtf84Wtf88into_arc
libmozjs128-debug.so:_RNvMs5_NtCs4z76MhC0nbo_5alloc4wtf8NtNtCs9ZIvzb94SJx_4core4wtf84Wtf88into_box
libmozjs128-debug.so:_RNvMs5_NtCs4z76MhC0nbo_5alloc4wtf8NtNtCs9ZIvzb94SJx_4core4wtf84Wtf88to_owned
libmozjs128-debug.so:_RNvMs5_NtCsk6apSIyUfCg_3std4timeNtB5_10SystemTime11checked_add
libmozjs128-debug.so:_RNvMs5_NtCsk6apSIyUfCg_3std4timeNtB5_10SystemTime11checked_sub
libmozjs128-debug.so:_RNvMs5_NtCsk6apSIyUfCg_3std4timeNtB5_10SystemTime14duration_since
libmozjs128-debug.so:_RNvMs5_NtCsk6apSIyUfCg_3std4timeNtB5_10SystemTime14saturating_add
libmozjs128-debug.so:_RNvMs5_NtCsk6apSIyUfCg_3std4timeNtB5_10SystemTime14saturating_sub
libmozjs128-debug.so:_RNvMs5_NtCsk6apSIyUfCg_3std4timeNtB5_10SystemTime25saturating_duration_since
libmozjs128-debug.so:_RNvMs5_NtCsk6apSIyUfCg_3std4timeNtB5_10SystemTime3now
libmozjs128-debug.so:_RNvMs5_NtCsk6apSIyUfCg_3std4timeNtB5_10SystemTime7elapsed
libmozjs128-debug.so:_RNvMs5_NtNtCs9ZIvzb94SJx_4core3fmt8buildersNtB5_9DebugList21finish_non_exhaustive
libmozjs128-debug.so:_RNvMs5_NtNtCs9ZIvzb94SJx_4core3fmt8buildersNtB5_9DebugList5entry
libmozjs128-debug.so:_RNvMs5_NtNtCs9ZIvzb94SJx_4core3fmt8buildersNtB5_9DebugList6finish
libmozjs128-debug.so:_RNvMs5_NtNtCs9ZIvzb94SJx_4core3net6parserNtNtB7_11socket_addr12SocketAddrV411parse_ascii
libmozjs128-debug.so:_RNvMs5_NtNtCsd97RIzLnxns_5gimli4read6abbrevNtB5_12Abbreviation3new
libmozjs128-debug.so:_RNvMs5_NtNtCsk6apSIyUfCg_3std2io5errorNtB5_5Error4__new
libmozjs128-debug.so:_RNvMs5_NtNtNtCs9ZIvzb94SJx_4core3fmt3num3impt4__fmt
libmozjs128-debug.so:_RNvMs5_NtNtNtCshlECYyjYKiK_6object4read2pe6importNtB5_27DelayLoadDescriptorIterator4next
libmozjs128-debug.so:_RNvMs5_NtNtNtCshlECYyjYKiK_6object4read3elf10attributesNtB5_22AttributeIndexIterator4next
libmozjs128-debug.so:_RNvMs5_NtNtNtNtCsk6apSIyUfCg_3std2os4unix3net9ancillaryNtB5_15SocketAncillary7add_fds
libmozjs128-debug.so:_RNvMs5_NtNtNtNtCsk6apSIyUfCg_3std2os4unix3net9ancillaryNtB5_15SocketAncillary8messages
libmozjs128-debug.so:_RNvMs5_NtNtNtNtCsk6apSIyUfCg_3std2os4unix3net9ancillaryNtB5_15SocketAncillary9add_creds
libmozjs128-debug.so:_RNvMs6_NtNtCs9ZIvzb94SJx_4core3fmt8buildersNtB5_8DebugMap21finish_non_exhaustive
libmozjs128-debug.so:_RNvMs6_NtNtCs9ZIvzb94SJx_4core3fmt8buildersNtB5_8DebugMap3key
libmozjs128-debug.so:_RNvMs6_NtNtCs9ZIvzb94SJx_4core3fmt8buildersNtB5_8DebugMap5entry
libmozjs128-debug.so:_RNvMs6_NtNtCs9ZIvzb94SJx_4core3fmt8buildersNtB5_8DebugMap5value
libmozjs128-debug.so:_RNvMs6_NtNtCs9ZIvzb94SJx_4core3fmt8buildersNtB5_8DebugMap6finish
libmozjs128-debug.so:_RNvMs6_NtNtCsd97RIzLnxns_5gimli4read6abbrevNtB5_10Attributes4push
libmozjs128-debug.so:_RNvMs6_NtNtNtCs9ZIvzb94SJx_4core3fmt3num3imps11format_into
libmozjs128-debug.so:_RNvMs6_NtNtNtCshlECYyjYKiK_6object4read2pe7sectionNtNtNtB9_4coff7section12SectionTable16pe_file_range_at
libmozjs128-debug.so:_RNvMs6_NtNtNtCshlECYyjYKiK_6object4read2pe7sectionNtNtNtB9_4coff7section12SectionTable18section_containing
libmozjs128-debug.so:_RNvMs6_NtNtNtNtCs4z76MhC0nbo_5alloc11collections5btree3map5entryINtB5_11VacantEntryyNtNtNtCsd97RIzLnxns_5gimli4read6abbrev12AbbreviationE12insert_entryB1q_
libmozjs128-debug.so:_RNvMs7_NtNtCs9ZIvzb94SJx_4core3net6parserNtNtB7_11socket_addr12SocketAddrV611parse_ascii
libmozjs128-debug.so:_RNvMs7_NtNtCsk6apSIyUfCg_3std3net3tcpNtB5_11TcpListener10local_addr
libmozjs128-debug.so:_RNvMs7_NtNtCsk6apSIyUfCg_3std3net3tcpNtB5_11TcpListener10take_error
libmozjs128-debug.so:_RNvMs7_NtNtCsk6apSIyUfCg_3std3net3tcpNtB5_11TcpListener11set_only_v6
libmozjs128-debug.so:_RNvMs7_NtNtCsk6apSIyUfCg_3std3net3tcpNtB5_11TcpListener15set_nonblocking
libmozjs128-debug.so:_RNvMs7_NtNtCsk6apSIyUfCg_3std3net3tcpNtB5_11TcpListener3ttl
libmozjs128-debug.so:_RNvMs7_NtNtCsk6apSIyUfCg_3std3net3tcpNtB5_11TcpListener6accept
libmozjs128-debug.so:_RNvMs7_NtNtCsk6apSIyUfCg_3std3net3tcpNtB5_11TcpListener7only_v6
libmozjs128-debug.so:_RNvMs7_NtNtCsk6apSIyUfCg_3std3net3tcpNtB5_11TcpListener7set_ttl
libmozjs128-debug.so:_RNvMs7_NtNtCsk6apSIyUfCg_3std3net3tcpNtB5_11TcpListener9try_clone
libmozjs128-debug.so:_RNvMs7_NtNtNtCs9ZIvzb94SJx_4core3fmt3num3impt11format_into
libmozjs128-debug.so:_RNvMs7_NtNtNtCshlECYyjYKiK_6object4read2pe7sectionNtNtBb_2pe18ImageSectionHeader13pe_file_range
libmozjs128-debug.so:_RNvMs7_NtNtNtCshlECYyjYKiK_6object4read2pe7sectionNtNtBb_2pe18ImageSectionHeader16pe_file_range_at
libmozjs128-debug.so:_RNvMs7_NtNtNtCshlECYyjYKiK_6object4read3elf10attributesNtB5_15AttributeReader11read_string
libmozjs128-debug.so:_RNvMs7_NtNtNtCshlECYyjYKiK_6object4read3elf10attributesNtB5_15AttributeReader12read_integer
libmozjs128-debug.so:_RNvMs7_NtNtNtCshlECYyjYKiK_6object4read3elf10attributesNtB5_15AttributeReader8read_tag
libmozjs128-debug.so:_RNvMs7_NtNtNtNtCs4z76MhC0nbo_5alloc11collections5btree3map5entryINtB5_13OccupiedEntryyNtNtNtCsd97RIzLnxns_5gimli4read6abbrev12AbbreviationE8into_mutB1s_
libmozjs128-debug.so:_RNvMs8_NtCsk6apSIyUfCg_3std2ioNtB5_7IoSlice8as_slice
libmozjs128-debug.so:_RNvMs8_NtCsk6apSIyUfCg_3std4pathNtB5_10Components7as_path
libmozjs128-debug.so:_RNvMs8_NtNtNtCshlECYyjYKiK_6object4read4coff7sectionNtNtBb_2pe18ImageSectionHeader11name_offset
libmozjs128-debug.so:_RNvMs8_NtNtNtCshlECYyjYKiK_6object4read4coff7sectionNtNtBb_2pe18ImageSectionHeader8raw_name
libmozjs128-debug.so:_RNvMs9_NtCsd97RIzLnxns_5gimli4archNtB5_7AArch6413register_name
libmozjs128-debug.so:_RNvMs9_NtCsd97RIzLnxns_5gimli4archNtB5_7AArch6416name_to_register
libmozjs128-debug.so:_RNvMs9_NtNtCs9ZIvzb94SJx_4core3net6parserNtNtB7_11socket_addr10SocketAddr11parse_ascii
libmozjs128-debug.so:_RNvMsC_NtCsk6apSIyUfCg_3std2fsNtB5_8DirEntry4path
libmozjs128-debug.so:_RNvMsC_NtCsk6apSIyUfCg_3std2fsNtB5_8DirEntry8metadata
libmozjs128-debug.so:_RNvMsC_NtCsk6apSIyUfCg_3std2fsNtB5_8DirEntry9file_name
libmozjs128-debug.so:_RNvMsC_NtCsk6apSIyUfCg_3std2fsNtB5_8DirEntry9file_type
libmozjs128-debug.so:_RNvMsD_NtCsd97RIzLnxns_5gimli4archNtB5_6X86_6413register_name
libmozjs128-debug.so:_RNvMsD_NtCsd97RIzLnxns_5gimli4archNtB5_6X86_6416name_to_register
libmozjs128-debug.so:_RNvMsD_NtNtCs4z76MhC0nbo_5alloc3ffi5c_strNtNtNtCs9ZIvzb94SJx_4core3ffi5c_str4CStr13into_c_string
libmozjs128-debug.so:_RNvMsD_NtNtCs4z76MhC0nbo_5alloc3ffi5c_strNtNtNtCs9ZIvzb94SJx_4core3ffi5c_str4CStr15to_string_lossy
libmozjs128-debug.so:_RNvMsF_NtCsk6apSIyUfCg_3std2fsNtB5_10DirBuilder7__create
libmozjs128-debug.so:_RNvMsJ_NtCsd97RIzLnxns_5gimli4archNtB5_9PowerPc6413register_name
libmozjs128-debug.so:_RNvMsJ_NtCsd97RIzLnxns_5gimli4archNtB5_9PowerPc6416name_to_register
libmozjs128-debug.so:_RNvMsJ_NtNtNtCs4z76MhC0nbo_5alloc11collections5btree4nodeINtB5_6HandleINtB5_7NodeRefNtNtB5_6marker3MutyNtNtNtCsd97RIzLnxns_5gimli4read6abbrev12AbbreviationNtB1m_4LeafENtB1m_4EdgeE10insert_fitB1J_
libmozjs128-debug.so:_RNvMsL_NtNtNtCs4z76MhC0nbo_5alloc11collections5btree4nodeINtB5_6HandleINtB5_7NodeRefNtNtB5_6marker3MutyNtNtNtCsd97RIzLnxns_5gimli4read6abbrev12AbbreviationNtB1m_8InternalENtB1m_4EdgeE19correct_parent_linkB1J_
libmozjs128-debug.so:_RNvMsM_NtNtNtCs4z76MhC0nbo_5alloc11collections5btree4nodeINtB5_6HandleINtB5_7NodeRefNtNtB5_6marker3MutyNtNtNtCsd97RIzLnxns_5gimli4read6abbrev12AbbreviationNtB1m_8InternalENtB1m_4EdgeE10insert_fitB1J_
libmozjs128-debug.so:_RNvMsN_NtCsk6apSIyUfCg_3std7processNtB5_15ExitStatusError12code_nonzero
libmozjs128-debug.so:_RNvMsN_NtCsk6apSIyUfCg_3std7processNtB5_15ExitStatusError4code
libmozjs128-debug.so:_RNvMsP_NtNtNtCs4z76MhC0nbo_5alloc11collections5btree4nodeINtB5_6HandleINtB5_7NodeRefNtNtB5_6marker5ImmutyNtNtNtCsd97RIzLnxns_5gimli4read6abbrev12AbbreviationNtB1m_14LeafOrInternalENtB1m_2KVE7into_kvB1L_
libmozjs128-debug.so:_RNvMsQ_NtNtNtCs4z76MhC0nbo_5alloc11collections5btree4nodeINtB5_6HandleINtB5_7NodeRefNtNtB5_6marker3MutyNtNtNtCsd97RIzLnxns_5gimli4read6abbrev12AbbreviationNtB1m_14LeafOrInternalENtB1m_2KVE12into_val_mutB1J_
libmozjs128-debug.so:_RNvMsS_NtCsk6apSIyUfCg_3std7processNtB5_8ExitCode12exit_process
libmozjs128-debug.so:_RNvMsU_NtNtNtCs4z76MhC0nbo_5alloc11collections5btree4nodeINtB5_6HandleINtB5_7NodeRefNtNtB5_6marker3MutyNtNtNtCsd97RIzLnxns_5gimli4read6abbrev12AbbreviationNtB1m_4LeafENtB1m_2KVE15split_leaf_dataB1J_
libmozjs128-debug.so:_RNvMsU_NtNtNtCs4z76MhC0nbo_5alloc11collections5btree4nodeINtB5_6HandleINtB5_7NodeRefNtNtB5_6marker3MutyNtNtNtCsd97RIzLnxns_5gimli4read6abbrev12AbbreviationNtB1m_8InternalENtB1m_2KVE15split_leaf_dataB1J_
libmozjs128-debug.so:_RNvMsY_NtCsk6apSIyUfCg_3std7processNtB5_5Child16wait_with_output
libmozjs128-debug.so:_RNvMsY_NtCsk6apSIyUfCg_3std7processNtB5_5Child4kill
libmozjs128-debug.so:_RNvMsY_NtCsk6apSIyUfCg_3std7processNtB5_5Child4wait
libmozjs128-debug.so:_RNvMsY_NtCsk6apSIyUfCg_3std7processNtB5_5Child8try_wait
libmozjs128-debug.so:_RNvMsZ_NtCsd97RIzLnxns_5gimli9constantsNtB5_5DwTag13static_string
libmozjs128-debug.so:_RNvMs_NtCs4z76MhC0nbo_5alloc3vecINtB4_3VechE7reserveCs6TFdUlxcy5y_9addr2line
libmozjs128-debug.so:_RNvMs_NtCs4z76MhC0nbo_5alloc5boxedINtB4_3BoxINtNtNtNtB6_11collections5btree4node12InternalNodeyNtNtNtCsd97RIzLnxns_5gimli4read6abbrev12AbbreviationEE13new_uninit_inB1B_
libmozjs128-debug.so:_RNvMs_NtCs4z76MhC0nbo_5alloc5boxedINtB4_3BoxINtNtNtNtB6_11collections5btree4node12InternalNodeyNtNtNtCsd97RIzLnxns_5gimli4read6abbrev12AbbreviationEE17try_new_uninit_inB1B_
libmozjs128-debug.so:_RNvMs_NtCs4z76MhC0nbo_5alloc5boxedINtB4_3BoxINtNtNtNtB6_11collections5btree4node8LeafNodeyNtNtNtCsd97RIzLnxns_5gimli4read6abbrev12AbbreviationEE13new_uninit_inB1w_
libmozjs128-debug.so:_RNvMs_NtCs4z76MhC0nbo_5alloc5boxedINtB4_3BoxINtNtNtNtB6_11collections5btree4node8LeafNodeyNtNtNtCsd97RIzLnxns_5gimli4read6abbrev12AbbreviationEE17try_new_uninit_inB1w_
libmozjs128-debug.so:_RNvMs_NtCs4z76MhC0nbo_5alloc6stringNtB4_13FromUtf8Error15into_utf8_lossy
libmozjs128-debug.so:_RNvMs_NtCs6TFdUlxcy5y_9addr2line4lineNtB4_5Lines13find_location
libmozjs128-debug.so:_RNvMs_NtCs6TFdUlxcy5y_9addr2line4lineNtB4_5Lines19find_location_range
libmozjs128-debug.so:_RNvMs_NtCs9WTLM0oGNNa_8arrayvec12array_stringINtB4_11ArrayStringKj200_E10as_mut_ptrCs7XP8T9flioK_14mozglue_static
libmozjs128-debug.so:_RNvMs_NtCs9WTLM0oGNNa_8arrayvec12array_stringINtB4_11ArrayStringKj200_E12try_push_strCs7XP8T9flioK_14mozglue_static
libmozjs128-debug.so:_RNvMs_NtCs9WTLM0oGNNa_8arrayvec12array_stringINtB4_11ArrayStringKj200_E3lenCs7XP8T9flioK_14mozglue_static
libmozjs128-debug.so:_RNvMs_NtCs9WTLM0oGNNa_8arrayvec12array_stringINtB4_11ArrayStringKj200_E3newCs7XP8T9flioK_14mozglue_static
libmozjs128-debug.so:_RNvMs_NtCs9WTLM0oGNNa_8arrayvec12array_stringINtB4_11ArrayStringKj200_E4fromCs7XP8T9flioK_14mozglue_static
libmozjs128-debug.so:_RNvMs_NtCs9WTLM0oGNNa_8arrayvec12array_stringINtB4_11ArrayStringKj200_E4pushCs7XP8T9flioK_14mozglue_static
libmozjs128-debug.so:_RNvMs_NtCs9WTLM0oGNNa_8arrayvec12array_stringINtB4_11ArrayStringKj200_E6as_ptrCs7XP8T9flioK_14mozglue_static
libmozjs128-debug.so:_RNvMs_NtCs9WTLM0oGNNa_8arrayvec12array_stringINtB4_11ArrayStringKj200_E6as_strCs7XP8T9flioK_14mozglue_static
libmozjs128-debug.so:_RNvMs_NtCs9WTLM0oGNNa_8arrayvec12array_stringINtB4_11ArrayStringKj200_E7set_lenCs7XP8T9flioK_14mozglue_static
libmozjs128-debug.so:_RNvMs_NtCs9WTLM0oGNNa_8arrayvec12array_stringINtB4_11ArrayStringKj200_E8try_pushCs7XP8T9flioK_14mozglue_static
libmozjs128-debug.so:_RNvMs_NtCs9ZIvzb94SJx_4core3fmtNtB4_17FormattingOptions8get_fill
libmozjs128-debug.so:_RNvMs_NtCsd97RIzLnxns_5gimli4readNtB4_5Error11description
libmozjs128-debug.so:_RNvMs_NtNtCs4z76MhC0nbo_5alloc3ffi5c_strNtB4_7CString10into_bytes
libmozjs128-debug.so:_RNvMs_NtNtCs4z76MhC0nbo_5alloc3ffi5c_strNtB4_7CString11into_string
libmozjs128-debug.so:_RNvMs_NtNtCs4z76MhC0nbo_5alloc3ffi5c_strNtB4_7CString16into_boxed_c_str
libmozjs128-debug.so:_RNvMs_NtNtCs4z76MhC0nbo_5alloc3ffi5c_strNtB4_7CString17from_vec_with_nul
libmozjs128-debug.so:_RNvMs_NtNtCs4z76MhC0nbo_5alloc3ffi5c_strNtB4_7CString18from_vec_unchecked
libmozjs128-debug.so:_RNvMs_NtNtCs4z76MhC0nbo_5alloc3ffi5c_strNtB4_7CString19__from_vec_unchecked
libmozjs128-debug.so:_RNvMs_NtNtCs4z76MhC0nbo_5alloc3ffi5c_strNtB4_7CString19into_bytes_with_nul
libmozjs128-debug.so:_RNvMs_NtNtCs4z76MhC0nbo_5alloc3ffi5c_strNtB4_7CString27from_vec_with_nul_unchecked
libmozjs128-debug.so:_RNvMs_NtNtCs4z76MhC0nbo_5alloc3ffi5c_strNtB4_7CString8from_raw
libmozjs128-debug.so:_RNvMs_NtNtCs9ZIvzb94SJx_4core3fmt8buildersNtB4_10PadAdapter4wrap
libmozjs128-debug.so:_RNvMs_NtNtCs9ZIvzb94SJx_4core3net6parserNtNtB6_7ip_addr6IpAddr11parse_ascii
libmozjs128-debug.so:_RNvMs_NtNtCs9ZIvzb94SJx_4core3num3fmtNtB4_9Formatted3len
libmozjs128-debug.so:_RNvMs_NtNtCs9ZIvzb94SJx_4core3num3fmtNtB4_9Formatted5write
libmozjs128-debug.so:_RNvMs_NtNtCsd97RIzLnxns_5gimli4read5valueNtB4_5Value11reinterpret
libmozjs128-debug.so:_RNvMs_NtNtCsd97RIzLnxns_5gimli4read5valueNtB4_5Value2or
libmozjs128-debug.so:_RNvMs_NtNtCsd97RIzLnxns_5gimli4read5valueNtB4_5Value3and
libmozjs128-debug.so:_RNvMs_NtNtCsd97RIzLnxns_5gimli4read5valueNtB4_5Value3div
libmozjs128-debug.so:_RNvMs_NtNtCsd97RIzLnxns_5gimli4read5valueNtB4_5Value3not
libmozjs128-debug.so:_RNvMs_NtNtCsd97RIzLnxns_5gimli4read5valueNtB4_5Value3rem
libmozjs128-debug.so:_RNvMs_NtNtCsd97RIzLnxns_5gimli4read5valueNtB4_5Value3shl
libmozjs128-debug.so:_RNvMs_NtNtCsd97RIzLnxns_5gimli4read5valueNtB4_5Value3shr
libmozjs128-debug.so:_RNvMs_NtNtCsd97RIzLnxns_5gimli4read5valueNtB4_5Value3xor
libmozjs128-debug.so:_RNvMs_NtNtCsd97RIzLnxns_5gimli4read5valueNtB4_5Value4shra
libmozjs128-debug.so:_RNvMs_NtNtCsd97RIzLnxns_5gimli4read5valueNtB4_5Value7convert
libmozjs128-debug.so:_RNvMs_NtNtCshlECYyjYKiK_6object4read4utilNtB4_5Bytes12read_sleb128
libmozjs128-debug.so:_RNvMs_NtNtCshlECYyjYKiK_6object4read4utilNtB4_5Bytes12read_uleb128
libmozjs128-debug.so:_RNvMs_NtNtCsk6apSIyUfCg_3std12backtrace_rs9symbolizeNtB4_6Symbol12filename_raw
libmozjs128-debug.so:_RNvMs_NtNtCsk6apSIyUfCg_3std12backtrace_rs9symbolizeNtB4_6Symbol4name
libmozjs128-debug.so:_RNvMs_NtNtCsk6apSIyUfCg_3std6thread6threadNtB4_6Thread12park_timeout
libmozjs128-debug.so:_RNvMs_NtNtCsk6apSIyUfCg_3std6thread6threadNtB4_6Thread3new
libmozjs128-debug.so:_RNvMs_NtNtCsk6apSIyUfCg_3std6thread6threadNtB4_6Thread4name
libmozjs128-debug.so:_RNvMs_NtNtCsk6apSIyUfCg_3std6thread6threadNtB4_6Thread4park
libmozjs128-debug.so:_RNvMs_NtNtCsk6apSIyUfCg_3std6thread6threadNtB4_6Thread8from_raw
libmozjs128-debug.so:_RNvMs_NtNtCsk6apSIyUfCg_3std6thread9spawnhookNtB4_15ChildSpawnHooks3run
libmozjs128-debug.so:_RNvMs_NtNtNtCs9ZIvzb94SJx_4core3num7dec2flt11decimal_seqNtB4_10DecimalSeq10left_shift
libmozjs128-debug.so:_RNvMs_NtNtNtCs9ZIvzb94SJx_4core3num7dec2flt11decimal_seqNtB4_10DecimalSeq11right_shift
libmozjs128-debug.so:_RNvMs_NtNtNtCs9ZIvzb94SJx_4core3num7dec2flt11decimal_seqNtB4_10DecimalSeq5round
libmozjs128-debug.so:_RNvMs_NtNtNtCshlECYyjYKiK_6object4read2pe14data_directoryNtNtBa_2pe18ImageDataDirectory10file_range
libmozjs128-debug.so:_RNvMs_NtNtNtCshlECYyjYKiK_6object4read2pe6importNtB4_24ImportDescriptorIterator4next
libmozjs128-debug.so:_RNvMs_NtNtNtCsk6apSIyUfCg_3std2io8buffered9bufwriterINtB4_9BufWriterNtNtB8_5stdio9StdoutRawE10write_coldBa_
libmozjs128-debug.so:_RNvMs_NtNtNtCsk6apSIyUfCg_3std2io8buffered9bufwriterINtB4_9BufWriterNtNtB8_5stdio9StdoutRawE14write_all_coldBa_
libmozjs128-debug.so:_RNvMs_NtNtNtCsk6apSIyUfCg_3std2os2fd5ownedNtB4_7OwnedFd9try_clone
libmozjs128-debug.so:_RNvMs_NtNtNtCsk6apSIyUfCg_3std3sys7process3envNtB4_10CommandEnv3set
libmozjs128-debug.so:_RNvMs_NtNtNtCsk6apSIyUfCg_3std3sys7process3envNtB4_10CommandEnv6remove
libmozjs128-debug.so:_RNvMs_NtNtNtNtCsk6apSIyUfCg_3std2os4unix3net8listenerNtB4_12UnixListener10local_addr
libmozjs128-debug.so:_RNvMs_NtNtNtNtCsk6apSIyUfCg_3std2os4unix3net8listenerNtB4_12UnixListener10take_error
libmozjs128-debug.so:_RNvMs_NtNtNtNtCsk6apSIyUfCg_3std2os4unix3net8listenerNtB4_12UnixListener15set_nonblocking
libmozjs128-debug.so:_RNvMs_NtNtNtNtCsk6apSIyUfCg_3std2os4unix3net8listenerNtB4_12UnixListener6accept
libmozjs128-debug.so:_RNvMs_NtNtNtNtCsk6apSIyUfCg_3std2os4unix3net8listenerNtB4_12UnixListener9bind_addr
libmozjs128-debug.so:_RNvMs_NtNtNtNtCsk6apSIyUfCg_3std2os4unix3net8listenerNtB4_12UnixListener9try_clone
libmozjs128-debug.so:_RNvMs_NtNtNtNtCsk6apSIyUfCg_3std3sys7process4unix6commonNtB4_7Command3arg
libmozjs128-debug.so:_RNvMs_NtNtNtNtCsk6apSIyUfCg_3std3sys7process4unix6commonNtB4_7Command3cwd
libmozjs128-debug.so:_RNvMs_NtNtNtNtCsk6apSIyUfCg_3std3sys7process4unix6commonNtB4_7Command3new
libmozjs128-debug.so:_RNvMs_NtNtNtNtCsk6apSIyUfCg_3std3sys7process4unix6commonNtB4_7Command5stdin
libmozjs128-debug.so:_RNvMs_NtNtNtNtCsk6apSIyUfCg_3std3sys7process4unix6commonNtB4_7Command6chroot
libmozjs128-debug.so:_RNvMs_NtNtNtNtCsk6apSIyUfCg_3std3sys7process4unix6commonNtB4_7Command6stderr
libmozjs128-debug.so:_RNvMs_NtNtNtNtCsk6apSIyUfCg_3std3sys7process4unix6commonNtB4_7Command6stdout
libmozjs128-debug.so:_RNvMs_NtNtNtNtCsk6apSIyUfCg_3std3sys7process4unix6commonNtB4_7Command8pre_exec
libmozjs128-debug.so:_RNvMs_NtNtNtNtCsk6apSIyUfCg_3std3sys7process4unix6commonNtB4_7Command9set_arg_0
libmozjs128-debug.so:_RNvMsa_NtCs9ZIvzb94SJx_4core3fmtNtB5_9Formatter10debug_list
libmozjs128-debug.so:_RNvMsa_NtCs9ZIvzb94SJx_4core3fmtNtB5_9Formatter11debug_tuple
libmozjs128-debug.so:_RNvMsa_NtCs9ZIvzb94SJx_4core3fmtNtB5_9Formatter12debug_struct
libmozjs128-debug.so:_RNvMsa_NtCs9ZIvzb94SJx_4core3fmtNtB5_9Formatter12pad_integral
libmozjs128-debug.so:_RNvMsa_NtCs9ZIvzb94SJx_4core3fmtNtB5_9Formatter25debug_tuple_field1_finish
libmozjs128-debug.so:_RNvMsa_NtCs9ZIvzb94SJx_4core3fmtNtB5_9Formatter25debug_tuple_field2_finish
libmozjs128-debug.so:_RNvMsa_NtCs9ZIvzb94SJx_4core3fmtNtB5_9Formatter25debug_tuple_field3_finish
libmozjs128-debug.so:_RNvMsa_NtCs9ZIvzb94SJx_4core3fmtNtB5_9Formatter25debug_tuple_field4_finish
libmozjs128-debug.so:_RNvMsa_NtCs9ZIvzb94SJx_4core3fmtNtB5_9Formatter25debug_tuple_field5_finish
libmozjs128-debug.so:_RNvMsa_NtCs9ZIvzb94SJx_4core3fmtNtB5_9Formatter25debug_tuple_fields_finish
libmozjs128-debug.so:_RNvMsa_NtCs9ZIvzb94SJx_4core3fmtNtB5_9Formatter26debug_struct_field1_finish
libmozjs128-debug.so:_RNvMsa_NtCs9ZIvzb94SJx_4core3fmtNtB5_9Formatter26debug_struct_field2_finish
libmozjs128-debug.so:_RNvMsa_NtCs9ZIvzb94SJx_4core3fmtNtB5_9Formatter26debug_struct_field3_finish
libmozjs128-debug.so:_RNvMsa_NtCs9ZIvzb94SJx_4core3fmtNtB5_9Formatter26debug_struct_field4_finish
libmozjs128-debug.so:_RNvMsa_NtCs9ZIvzb94SJx_4core3fmtNtB5_9Formatter26debug_struct_field5_finish
libmozjs128-debug.so:_RNvMsa_NtCs9ZIvzb94SJx_4core3fmtNtB5_9Formatter26debug_struct_fields_finish
libmozjs128-debug.so:_RNvMsa_NtCs9ZIvzb94SJx_4core3fmtNtB5_9Formatter3pad
libmozjs128-debug.so:_RNvMsa_NtCs9ZIvzb94SJx_4core3fmtNtB5_9Formatter4fill
libmozjs128-debug.so:_RNvMsa_NtCs9ZIvzb94SJx_4core3fmtNtB5_9Formatter9debug_map
libmozjs128-debug.so:_RNvMsa_NtCs9ZIvzb94SJx_4core3fmtNtB5_9Formatter9debug_set
libmozjs128-debug.so:_RNvMsa_NtCs9ZIvzb94SJx_4core3fmtNtB5_9Formatter9write_str
libmozjs128-debug.so:_RNvMsa_NtCshlECYyjYKiK_6object4readNtB5_9ObjectMap3get
libmozjs128-debug.so:_RNvMsa_NtNtCsk6apSIyUfCg_3std2io5stdioNtB5_6Stdout4lock
libmozjs128-debug.so:_RNvMsa_NtNtNtCs9ZIvzb94SJx_4core3fmt3num3impm4__fmt
libmozjs128-debug.so:_RNvMsa_NtNtNtNtCsk6apSIyUfCg_3std3sys3net10connection6socketNtB5_9UdpSocket7send_to
libmozjs128-debug.so:_RNvMsb_NtNtNtCs9ZIvzb94SJx_4core3fmt3num3impl11format_into
libmozjs128-debug.so:_RNvMsc_NtNtNtCs9ZIvzb94SJx_4core3fmt3num3impm11format_into
libmozjs128-debug.so:_RNvMse_NtNtNtCshlECYyjYKiK_6object4read3elf10relocationNtB5_12CrelIterator3new
libmozjs128-debug.so:_RNvMsf_NtCsd97RIzLnxns_5gimli4archNtB5_9LoongArch13register_name
libmozjs128-debug.so:_RNvMsf_NtCsd97RIzLnxns_5gimli4archNtB5_9LoongArch16name_to_register
libmozjs128-debug.so:_RNvMsf_NtNtNtCs9ZIvzb94SJx_4core3fmt3num3impy4__fmt
libmozjs128-debug.so:_RNvMsg_NtNtNtCs9ZIvzb94SJx_4core3fmt3num3impx11format_into
libmozjs128-debug.so:_RNvMsh_NtNtNtCs9ZIvzb94SJx_4core3fmt3num3impy11format_into
libmozjs128-debug.so:_RNvMsi_NtCshlECYyjYKiK_6object4readNtB5_13RelocationMap8relocate
libmozjs128-debug.so:_RNvMsi_NtNtNtCs4z76MhC0nbo_5alloc11collections5btree3mapINtB5_8BTreeMapyNtNtNtCsd97RIzLnxns_5gimli4read6abbrev12AbbreviationE5entryB1e_
libmozjs128-debug.so:_RNvMsi_NtNtNtCsk6apSIyUfCg_3std3sys2fs4unixNtB5_4File13read_vectored
libmozjs128-debug.so:_RNvMsi_NtNtNtCsk6apSIyUfCg_3std3sys2fs4unixNtB5_4File4read
libmozjs128-debug.so:_RNvMsi_NtNtNtCsk6apSIyUfCg_3std3sys2fs4unixNtB5_4File8read_buf
libmozjs128-debug.so:_RNvMsk_NtCsk6apSIyUfCg_3std7processNtB5_7Command11get_program
libmozjs128-debug.so:_RNvMsk_NtCsk6apSIyUfCg_3std7processNtB5_7Command15get_current_dir
libmozjs128-debug.so:_RNvMsk_NtCsk6apSIyUfCg_3std7processNtB5_7Command5spawn
libmozjs128-debug.so:_RNvMsk_NtCsk6apSIyUfCg_3std7processNtB5_7Command6output
libmozjs128-debug.so:_RNvMsk_NtCsk6apSIyUfCg_3std7processNtB5_7Command6status
libmozjs128-debug.so:_RNvMsk_NtCsk6apSIyUfCg_3std7processNtB5_7Command8get_args
libmozjs128-debug.so:_RNvMsk_NtCsk6apSIyUfCg_3std7processNtB5_7Command9env_clear
libmozjs128-debug.so:_RNvMsk_NtNtCsk6apSIyUfCg_3std2io5stdioNtB5_6Stderr4lock
libmozjs128-debug.so:_RNvMsk_NtNtNtCs9ZIvzb94SJx_4core3fmt3num3impj4__fmt
libmozjs128-debug.so:_RNvMsl_NtCsd97RIzLnxns_5gimli4archNtB5_4MIPS13register_name
libmozjs128-debug.so:_RNvMsl_NtCsd97RIzLnxns_5gimli4archNtB5_4MIPS16name_to_register
libmozjs128-debug.so:_RNvMsl_NtCsk6apSIyUfCg_3std2fsNtB5_11OpenOptions5__open
libmozjs128-debug.so:_RNvMsl_NtNtCsk6apSIyUfCg_3std3ffi6os_strNtB5_5OsStr14into_os_string
libmozjs128-debug.so:_RNvMsl_NtNtCsk6apSIyUfCg_3std3ffi6os_strNtB5_5OsStr18to_ascii_lowercase
libmozjs128-debug.so:_RNvMsl_NtNtCsk6apSIyUfCg_3std3ffi6os_strNtB5_5OsStr18to_ascii_uppercase
libmozjs128-debug.so:_RNvMsl_NtNtNtCs9ZIvzb94SJx_4core3fmt3num3impi11format_into
libmozjs128-debug.so:_RNvMsm_NtNtNtCs9ZIvzb94SJx_4core3fmt3num3impj11format_into
libmozjs128-debug.so:_RNvMsn_NtCs4z76MhC0nbo_5alloc4syncINtB5_3ArcINtNtNtCsd97RIzLnxns_5gimli4read5dwarf5DwarfINtNtBL_12endian_slice11EndianSliceNtNtBN_9endianity12LittleEndianEEE9drop_slowCsk6apSIyUfCg_3std
libmozjs128-debug.so:_RNvMsn_NtCs4z76MhC0nbo_5alloc4syncINtB5_3ArcINtNtNtNtCsk6apSIyUfCg_3std4sync6poison5mutex5MutexINtNtB7_3vec3VechEEE9drop_slowBP_
libmozjs128-debug.so:_RNvMsn_NtCs4z76MhC0nbo_5alloc4syncINtB5_3ArcNtNtNtCsd97RIzLnxns_5gimli4read6abbrev13AbbreviationsE9drop_slowCsk6apSIyUfCg_3std
libmozjs128-debug.so:_RNvMsn_NtCs4z76MhC0nbo_5alloc4syncINtB5_3ArcNtNtNtCsk6apSIyUfCg_3std6thread6thread5InnerNtNtBM_5alloc6SystemE9drop_slowBM_
libmozjs128-debug.so:_RNvMsn_NtCs4z76MhC0nbo_5alloc4syncINtB5_3ArcNtNtNtCsk6apSIyUfCg_3std6thread9spawnhook9SpawnHookE9drop_slowBM_
libmozjs128-debug.so:_RNvMsn_NtCs4z76MhC0nbo_5alloc4syncINtB5_3ArcNtNtNtNtCsk6apSIyUfCg_3std3sys2fs4unix12InnerReadDirE9drop_slowBO_
libmozjs128-debug.so:_RNvMso_NtCsk6apSIyUfCg_3std2fsNtB5_8Metadata7created
libmozjs128-debug.so:_RNvMso_NtCsk6apSIyUfCg_3std2fsNtB5_8Metadata8accessed
libmozjs128-debug.so:_RNvMso_NtCsk6apSIyUfCg_3std2fsNtB5_8Metadata8modified
libmozjs128-debug.so:_RNvMsr_NtCsd97RIzLnxns_5gimli4archNtB5_5RiscV13register_name
libmozjs128-debug.so:_RNvMsr_NtCsd97RIzLnxns_5gimli4archNtB5_5RiscV16name_to_register
libmozjs128-debug.so:_RNvMsr_NtCsk6apSIyUfCg_3std4pathNtB5_7PathBuf14__add_extension
libmozjs128-debug.so:_RNvMsr_NtCsk6apSIyUfCg_3std4pathNtB5_7PathBuf14__set_extension
libmozjs128-debug.so:_RNvMsr_NtCsk6apSIyUfCg_3std4pathNtB5_7PathBuf14__set_file_name
libmozjs128-debug.so:_RNvMsr_NtCsk6apSIyUfCg_3std4pathNtB5_7PathBuf16pop_trailing_sep
libmozjs128-debug.so:_RNvMsr_NtCsk6apSIyUfCg_3std4pathNtB5_7PathBuf16set_trailing_sep
libmozjs128-debug.so:_RNvMsr_NtCsk6apSIyUfCg_3std4pathNtB5_7PathBuf17push_trailing_sep
libmozjs128-debug.so:_RNvMsr_NtCsk6apSIyUfCg_3std4pathNtB5_7PathBuf3pop
libmozjs128-debug.so:_RNvMsr_NtCsk6apSIyUfCg_3std4pathNtB5_7PathBuf5__push
libmozjs128-debug.so:_RNvMst_NtCsk6apSIyUfCg_3std7processNtB5_6Output7exit_ok
libmozjs128-debug.so:_RNvMsu_NtNtCs9ZIvzb94SJx_4core3str7patternNtB5_11StrSearcher3new
libmozjs128-debug.so:_RNvMsu_NtNtNtCs4z76MhC0nbo_5alloc11collections5btree4nodeINtB5_7NodeRefNtNtB5_6marker3MutyNtNtNtCsd97RIzLnxns_5gimli4read6abbrev12AbbreviationNtB19_4LeafE16push_with_handleB1w_
libmozjs128-debug.so:_RNvMsv_NtNtNtCs4z76MhC0nbo_5alloc11collections5btree4nodeINtB5_7NodeRefNtNtB5_6marker3MutyNtNtNtCsd97RIzLnxns_5gimli4read6abbrev12AbbreviationNtB19_8InternalE4pushB1w_
libmozjs128-debug.so:_RNvMsx_NtCsd97RIzLnxns_5gimli4archNtB5_3X8616name_to_register
libmozjs128-debug.so:_RNvNCNKNvNtNtCsk6apSIyUfCg_3std6thread9spawnhook11SPAWN_HOOKS0023___RUST_STD_INTERNAL_VAL
libmozjs128-debug.so:_RNvNCNKNvNvMNtNtCsk6apSIyUfCg_3std4hash6randomNtBa_11RandomState3new4KEYS0s_023___RUST_STD_INTERNAL_VAL
libmozjs128-debug.so:_RNvNCNKNvNvMNtNtNtCsk6apSIyUfCg_3std4sync4mpmc7contextNtBa_7Context4with7CONTEXT0023___RUST_STD_INTERNAL_VAL
libmozjs128-debug.so:_RNvNCNKNvNvNtNtNtCsk6apSIyUfCg_3std4sync4mpmc5waker17current_thread_id5DUMMY0s_023___RUST_STD_INTERNAL_VAL
libmozjs128-debug.so:_RNvNCNvNtNtCsk6apSIyUfCg_3std6thread9lifecycle15spawn_unchecked03MIN
libmozjs128-debug.so:_RNvNtCs4z76MhC0nbo_5alloc2rc32rc_inner_layout_for_value_layout
libmozjs128-debug.so:_RNvNtCs4z76MhC0nbo_5alloc4sync18STATIC_INNER_SLICE
libmozjs128-debug.so:_RNvNtCs4z76MhC0nbo_5alloc4sync32arcinner_layout_for_value_layout
libmozjs128-debug.so:_RNvNtCs4z76MhC0nbo_5alloc5alloc18handle_alloc_error
libmozjs128-debug.so:_RNvNtCs4z76MhC0nbo_5alloc7raw_vec12handle_error
libmozjs128-debug.so:_RNvNtCs4z76MhC0nbo_5alloc7raw_vec17capacity_overflow
libmozjs128-debug.so:_RNvNtCs6TFdUlxcy5y_9addr2line4line9path_push
libmozjs128-debug.so:_RNvNtCs6TFdUlxcy5y_9addr2line5frame13demangle_auto
libmozjs128-debug.so:_RNvNtCs9ZIvzb94SJx_4core3fmt17pointer_fmt_inner
libmozjs128-debug.so:_RNvNtCs9ZIvzb94SJx_4core3fmt5write
libmozjs128-debug.so:_RNvNtCs9ZIvzb94SJx_4core3num22from_ascii_radix_panic
libmozjs128-debug.so:_RNvNtCs9ZIvzb94SJx_4core3str16slice_error_fail
libmozjs128-debug.so:_RNvNtCs9ZIvzb94SJx_4core3str19slice_error_fail_ct
libmozjs128-debug.so:_RNvNtCs9ZIvzb94SJx_4core3str19slice_error_fail_rt
libmozjs128-debug.so:_RNvNtCs9ZIvzb94SJx_4core4cell22panic_already_borrowed
libmozjs128-debug.so:_RNvNtCs9ZIvzb94SJx_4core4cell30panic_already_mutably_borrowed
libmozjs128-debug.so:_RNvNtCs9ZIvzb94SJx_4core4wtf816slice_error_fail
libmozjs128-debug.so:_RNvNtCs9ZIvzb94SJx_4core5ascii14escape_default
libmozjs128-debug.so:_RNvNtCs9ZIvzb94SJx_4core6option13expect_failed
libmozjs128-debug.so:_RNvNtCs9ZIvzb94SJx_4core6option13unwrap_failed
libmozjs128-debug.so:_RNvNtCs9ZIvzb94SJx_4core6result13unwrap_failed
libmozjs128-debug.so:_RNvNtCs9ZIvzb94SJx_4core9panicking14panic_nounwind
libmozjs128-debug.so:_RNvNtCs9ZIvzb94SJx_4core9panicking15const_panic_fmt
libmozjs128-debug.so:_RNvNtCs9ZIvzb94SJx_4core9panicking16panic_in_cleanup
libmozjs128-debug.so:_RNvNtCs9ZIvzb94SJx_4core9panicking18panic_bounds_check
libmozjs128-debug.so:_RNvNtCs9ZIvzb94SJx_4core9panicking18panic_nounwind_fmt
libmozjs128-debug.so:_RNvNtCs9ZIvzb94SJx_4core9panicking19assert_failed_inner
libmozjs128-debug.so:_RNvNtCs9ZIvzb94SJx_4core9panicking19panic_cannot_unwind
libmozjs128-debug.so:_RNvNtCs9ZIvzb94SJx_4core9panicking26panic_nounwind_nobacktrace
libmozjs128-debug.so:_RNvNtCs9ZIvzb94SJx_4core9panicking30panic_null_pointer_dereference
libmozjs128-debug.so:_RNvNtCs9ZIvzb94SJx_4core9panicking31panic_invalid_enum_construction
libmozjs128-debug.so:_RNvNtCs9ZIvzb94SJx_4core9panicking36panic_misaligned_pointer_dereference
libmozjs128-debug.so:_RNvNtCs9ZIvzb94SJx_4core9panicking5panic
libmozjs128-debug.so:_RNvNtCs9ZIvzb94SJx_4core9panicking9panic_fmt
libmozjs128-debug.so:_RNvNtCsdIMhsiQnxUU_11miniz_oxide6shared14update_adler32
libmozjs128-debug.so:_RNvNtCsk6apSIyUfCg_3std2rt19lang_start_internal
libmozjs128-debug.so:_RNvNtCsk6apSIyUfCg_3std3env11current_dir
libmozjs128-debug.so:_RNvNtCsk6apSIyUfCg_3std3env11current_exe
libmozjs128-debug.so:_RNvNtCsk6apSIyUfCg_3std3env4__var
libmozjs128-debug.so:_RNvNtCsk6apSIyUfCg_3std3env4args
libmozjs128-debug.so:_RNvNtCsk6apSIyUfCg_3std3env4vars
libmozjs128-debug.so:_RNvNtCsk6apSIyUfCg_3std3env7__var_os
libmozjs128-debug.so:_RNvNtCsk6apSIyUfCg_3std3env7args_os
libmozjs128-debug.so:_RNvNtCsk6apSIyUfCg_3std3env7vars_os
libmozjs128-debug.so:_RNvNtCsk6apSIyUfCg_3std3env8home_dir
libmozjs128-debug.so:_RNvNtCsk6apSIyUfCg_3std3env8temp_dir
libmozjs128-debug.so:_RNvNtCsk6apSIyUfCg_3std4path18compare_components
libmozjs128-debug.so:_RNvNtCsk6apSIyUfCg_3std5alloc20set_alloc_error_hook
libmozjs128-debug.so:_RNvNtCsk6apSIyUfCg_3std5alloc24default_alloc_error_hook
libmozjs128-debug.so:_RNvNtCsk6apSIyUfCg_3std5alloc4HOOK
libmozjs128-debug.so:_RNvNtCsk6apSIyUfCg_3std5alloc8rust_oom
libmozjs128-debug.so:_RNvNtCsk6apSIyUfCg_3std5panic13resume_unwind
libmozjs128-debug.so:_RNvNtCsk6apSIyUfCg_3std5panic19get_backtrace_style
libmozjs128-debug.so:_RNvNtCsk6apSIyUfCg_3std5panic19set_backtrace_style
libmozjs128-debug.so:_RNvNtCsk6apSIyUfCg_3std7process2id
libmozjs128-debug.so:_RNvNtCsk6apSIyUfCg_3std7process4exit
libmozjs128-debug.so:_RNvNtCsk6apSIyUfCg_3std7process5abort
libmozjs128-debug.so:_RNvNtCsk6apSIyUfCg_3std9panicking11EMPTY_PANIC
libmozjs128-debug.so:_RNvNtCsk6apSIyUfCg_3std9panicking12default_hook
libmozjs128-debug.so:_RNvNtCsk6apSIyUfCg_3std9panicking14payload_as_str
libmozjs128-debug.so:_RNvNtCsk6apSIyUfCg_3std9panicking15panic_with_hook
libmozjs128-debug.so:_RNvNtCsk6apSIyUfCg_3std9panicking4HOOK
libmozjs128-debug.so:_RNvNtCsk6apSIyUfCg_3std9panicking8set_hook
libmozjs128-debug.so:_RNvNtCsk6apSIyUfCg_3std9panicking9take_hook
libmozjs128-debug.so:_RNvNtNtCs4vvGeN3ANz4_6memchr6memmem8searcher18searcher_kind_avx2
libmozjs128-debug.so:_RNvNtNtCs4vvGeN3ANz4_6memchr6memmem8searcher18searcher_kind_sse2
libmozjs128-debug.so:_RNvNtNtCs4vvGeN3ANz4_6memchr6memmem8searcher19prefilter_kind_avx2
libmozjs128-debug.so:_RNvNtNtCs4vvGeN3ANz4_6memchr6memmem8searcher19prefilter_kind_sse2
libmozjs128-debug.so:_RNvNtNtCs4vvGeN3ANz4_6memchr6memmem8searcher21searcher_kind_two_way
libmozjs128-debug.so:_RNvNtNtCs4vvGeN3ANz4_6memchr6memmem8searcher22searcher_kind_one_byte
libmozjs128-debug.so:_RNvNtNtCs4vvGeN3ANz4_6memchr6memmem8searcher23prefilter_kind_fallback
libmozjs128-debug.so:_RNvNtNtCs4vvGeN3ANz4_6memchr6memmem8searcher36searcher_kind_two_way_with_prefilter
libmozjs128-debug.so:_RNvNtNtCs9ZIvzb94SJx_4core3num14overflow_panic3add
libmozjs128-debug.so:_RNvNtNtCs9ZIvzb94SJx_4core3num14overflow_panic3div
libmozjs128-debug.so:_RNvNtNtCs9ZIvzb94SJx_4core3num14overflow_panic3mul
libmozjs128-debug.so:_RNvNtNtCs9ZIvzb94SJx_4core3num14overflow_panic3neg
libmozjs128-debug.so:_RNvNtNtCs9ZIvzb94SJx_4core3num14overflow_panic3rem
libmozjs128-debug.so:_RNvNtNtCs9ZIvzb94SJx_4core3num14overflow_panic3shl
libmozjs128-debug.so:_RNvNtNtCs9ZIvzb94SJx_4core3num14overflow_panic3shr
libmozjs128-debug.so:_RNvNtNtCs9ZIvzb94SJx_4core3num14overflow_panic3sub
libmozjs128-debug.so:_RNvNtNtCs9ZIvzb94SJx_4core3num7flt2dec17digits_to_dec_str
libmozjs128-debug.so:_RNvNtNtCs9ZIvzb94SJx_4core3num7flt2dec17digits_to_exp_str
libmozjs128-debug.so:_RNvNtNtCs9ZIvzb94SJx_4core3num7flt2dec8round_up
libmozjs128-debug.so:_RNvNtNtCs9ZIvzb94SJx_4core3num8int_sqrt27panic_for_negative_argument
libmozjs128-debug.so:_RNvNtNtCs9ZIvzb94SJx_4core3num9int_log1030panic_for_nonpositive_argument
libmozjs128-debug.so:_RNvNtNtCs9ZIvzb94SJx_4core3str5count14do_count_chars
libmozjs128-debug.so:_RNvNtNtCs9ZIvzb94SJx_4core3str5count23char_count_general_case
libmozjs128-debug.so:_RNvNtNtCs9ZIvzb94SJx_4core3str8converts13from_utf8_mut
libmozjs128-debug.so:_RNvNtNtCs9ZIvzb94SJx_4core3str8converts9from_utf8
libmozjs128-debug.so:_RNvNtNtCs9ZIvzb94SJx_4core4cell4lazy14panic_poisoned
libmozjs128-debug.so:_RNvNtNtCs9ZIvzb94SJx_4core5slice5index16slice_index_fail
libmozjs128-debug.so:_RNvNtNtCs9ZIvzb94SJx_4core5slice6memchr14memchr_aligned
libmozjs128-debug.so:_RNvNtNtCs9ZIvzb94SJx_4core5slice6memchr7memrchr
libmozjs128-debug.so:_RNvNtNtCs9ZIvzb94SJx_4core7unicode9printable12is_printable
libmozjs128-debug.so:_RNvNtNtCs9ZIvzb94SJx_4core9panicking11panic_const23panic_const_div_by_zero
libmozjs128-debug.so:_RNvNtNtCs9ZIvzb94SJx_4core9panicking11panic_const23panic_const_gen_fn_none
libmozjs128-debug.so:_RNvNtNtCs9ZIvzb94SJx_4core9panicking11panic_const23panic_const_rem_by_zero
libmozjs128-debug.so:_RNvNtNtCs9ZIvzb94SJx_4core9panicking11panic_const24panic_const_add_overflow
libmozjs128-debug.so:_RNvNtNtCs9ZIvzb94SJx_4core9panicking11panic_const24panic_const_div_overflow
libmozjs128-debug.so:_RNvNtNtCs9ZIvzb94SJx_4core9panicking11panic_const24panic_const_mul_overflow
libmozjs128-debug.so:_RNvNtNtCs9ZIvzb94SJx_4core9panicking11panic_const24panic_const_neg_overflow
libmozjs128-debug.so:_RNvNtNtCs9ZIvzb94SJx_4core9panicking11panic_const24panic_const_rem_overflow
libmozjs128-debug.so:_RNvNtNtCs9ZIvzb94SJx_4core9panicking11panic_const24panic_const_shl_overflow
libmozjs128-debug.so:_RNvNtNtCs9ZIvzb94SJx_4core9panicking11panic_const24panic_const_shr_overflow
libmozjs128-debug.so:_RNvNtNtCs9ZIvzb94SJx_4core9panicking11panic_const24panic_const_sub_overflow
libmozjs128-debug.so:_RNvNtNtCs9ZIvzb94SJx_4core9panicking11panic_const28panic_const_async_fn_resumed
libmozjs128-debug.so:_RNvNtNtCs9ZIvzb94SJx_4core9panicking11panic_const28panic_const_gen_fn_none_drop
libmozjs128-debug.so:_RNvNtNtCs9ZIvzb94SJx_4core9panicking11panic_const29panic_const_coroutine_resumed
libmozjs128-debug.so:_RNvNtNtCs9ZIvzb94SJx_4core9panicking11panic_const29panic_const_gen_fn_none_panic
libmozjs128-debug.so:_RNvNtNtCs9ZIvzb94SJx_4core9panicking11panic_const32panic_const_async_gen_fn_resumed
libmozjs128-debug.so:_RNvNtNtCs9ZIvzb94SJx_4core9panicking11panic_const33panic_const_async_fn_resumed_drop
libmozjs128-debug.so:_RNvNtNtCs9ZIvzb94SJx_4core9panicking11panic_const34panic_const_async_fn_resumed_panic
libmozjs128-debug.so:_RNvNtNtCs9ZIvzb94SJx_4core9panicking11panic_const34panic_const_coroutine_resumed_drop
libmozjs128-debug.so:_RNvNtNtCs9ZIvzb94SJx_4core9panicking11panic_const35panic_const_coroutine_resumed_panic
libmozjs128-debug.so:_RNvNtNtCs9ZIvzb94SJx_4core9panicking11panic_const37panic_const_async_gen_fn_resumed_drop
libmozjs128-debug.so:_RNvNtNtCs9ZIvzb94SJx_4core9panicking11panic_const38panic_const_async_gen_fn_resumed_panic
libmozjs128-debug.so:_RNvNtNtCsdIMhsiQnxUU_11miniz_oxide7inflate4core10decompress
libmozjs128-debug.so:_RNvNtNtCshlECYyjYKiK_6object4read7archive16parse_u64_digits
libmozjs128-debug.so:_RNvNtNtCshlECYyjYKiK_6object4read7archive24parse_sysv_extended_name
libmozjs128-debug.so:_RNvNtNtCsk6apSIyUfCg_3std2io5stdio18set_output_capture
libmozjs128-debug.so:_RNvNtNtCsk6apSIyUfCg_3std2io5stdio22try_set_output_capture
libmozjs128-debug.so:_RNvNtNtCsk6apSIyUfCg_3std2io5stdio23attempt_print_to_stderr
libmozjs128-debug.so:_RNvNtNtCsk6apSIyUfCg_3std2io5stdio5stdin
libmozjs128-debug.so:_RNvNtNtCsk6apSIyUfCg_3std2io5stdio6__print
libmozjs128-debug.so:_RNvNtNtCsk6apSIyUfCg_3std2io5stdio6stdout
libmozjs128-debug.so:_RNvNtNtCsk6apSIyUfCg_3std2io5stdio7__eprint
libmozjs128-debug.so:_RNvNtNtCsk6apSIyUfCg_3std3net8hostname8hostname
libmozjs128-debug.so:_RNvNtNtCsk6apSIyUfCg_3std3sys2fs10remove_dir
libmozjs128-debug.so:_RNvNtNtCsk6apSIyUfCg_3std3sys2fs11remove_file
libmozjs128-debug.so:_RNvNtNtCsk6apSIyUfCg_3std3sys2fs12canonicalize
libmozjs128-debug.so:_RNvNtNtCsk6apSIyUfCg_3std3sys2fs14remove_dir_all
libmozjs128-debug.so:_RNvNtNtCsk6apSIyUfCg_3std3sys2fs15set_permissions
libmozjs128-debug.so:_RNvNtNtCsk6apSIyUfCg_3std3sys2fs16symlink_metadata
libmozjs128-debug.so:_RNvNtNtCsk6apSIyUfCg_3std3sys2fs18set_times_nofollow
libmozjs128-debug.so:_RNvNtNtCsk6apSIyUfCg_3std3sys2fs24set_permissions_nofollow
libmozjs128-debug.so:_RNvNtNtCsk6apSIyUfCg_3std3sys2fs4copy
libmozjs128-debug.so:_RNvNtNtCsk6apSIyUfCg_3std3sys2fs6exists
libmozjs128-debug.so:_RNvNtNtCsk6apSIyUfCg_3std3sys2fs6rename
libmozjs128-debug.so:_RNvNtNtCsk6apSIyUfCg_3std3sys2fs7symlink
libmozjs128-debug.so:_RNvNtNtCsk6apSIyUfCg_3std3sys2fs8metadata
libmozjs128-debug.so:_RNvNtNtCsk6apSIyUfCg_3std3sys2fs8read_dir
libmozjs128-debug.so:_RNvNtNtCsk6apSIyUfCg_3std3sys2fs9hard_link
libmozjs128-debug.so:_RNvNtNtCsk6apSIyUfCg_3std3sys2fs9read_link
libmozjs128-debug.so:_RNvNtNtCsk6apSIyUfCg_3std3sys2fs9set_times
libmozjs128-debug.so:_RNvNtNtCsk6apSIyUfCg_3std3sys5alloc16realloc_fallback
libmozjs128-debug.so:_RNvNtNtCsk6apSIyUfCg_3std3sys9backtrace4lock
libmozjs128-debug.so:_RNvNtNtCsk6apSIyUfCg_3std4sync9lazy_lock14panic_poisoned
libmozjs128-debug.so:_RNvNtNtCsk6apSIyUfCg_3std6thread5local18panic_access_error
libmozjs128-debug.so:_RNvNtNtCsk6apSIyUfCg_3std6thread7current18current_or_unnamed
libmozjs128-debug.so:_RNvNtNtCsk6apSIyUfCg_3std6thread7current7CURRENT
libmozjs128-debug.so:_RNvNtNtCsk6apSIyUfCg_3std6thread7current7current
libmozjs128-debug.so:_RNvNtNtCsk6apSIyUfCg_3std6thread9functions11sleep_until
libmozjs128-debug.so:_RNvNtNtCsk6apSIyUfCg_3std6thread9functions12park_timeout
libmozjs128-debug.so:_RNvNtNtCsk6apSIyUfCg_3std6thread9functions15park_timeout_ms
libmozjs128-debug.so:_RNvNtNtCsk6apSIyUfCg_3std6thread9functions21available_parallelism
libmozjs128-debug.so:_RNvNtNtCsk6apSIyUfCg_3std6thread9functions4park
libmozjs128-debug.so:_RNvNtNtCsk6apSIyUfCg_3std6thread9functions5sleep
libmozjs128-debug.so:_RNvNtNtCsk6apSIyUfCg_3std6thread9functions8sleep_ms
libmozjs128-debug.so:_RNvNtNtCsk6apSIyUfCg_3std6thread9functions9yield_now
libmozjs128-debug.so:_RNvNtNtCsk6apSIyUfCg_3std6thread9spawnhook15run_spawn_hooks
libmozjs128-debug.so:_RNvNtNtCsk6apSIyUfCg_3std9panicking11panic_count17is_zero_slow_path
libmozjs128-debug.so:_RNvNtNtCsk6apSIyUfCg_3std9panicking11panic_count18GLOBAL_PANIC_COUNT
libmozjs128-debug.so:_RNvNtNtCsk6apSIyUfCg_3std9panicking11panic_count19finished_panic_hook
libmozjs128-debug.so:_RNvNtNtCsk6apSIyUfCg_3std9panicking11panic_count8decrease
libmozjs128-debug.so:_RNvNtNtCsk6apSIyUfCg_3std9panicking11panic_count8increase
libmozjs128-debug.so:_RNvNtNtCsk6apSIyUfCg_3std9panicking11panic_count9get_count
libmozjs128-debug.so:_RNvNtNtNtCs4vvGeN3ANz4_6memchr4arch3all9rabinkarp12is_equal_raw
libmozjs128-debug.so:_RNvNtNtNtCs9ZIvzb94SJx_4core3num7dec2flt11decimal_seq17parse_decimal_seq
libmozjs128-debug.so:_RNvNtNtNtCs9ZIvzb94SJx_4core3num7dec2flt5parse12parse_number
libmozjs128-debug.so:_RNvNtNtNtCs9ZIvzb94SJx_4core3num7dec2flt5table17POWER_OF_FIVE_128
libmozjs128-debug.so:_RNvNtNtNtCs9ZIvzb94SJx_4core7unicode12unicode_data10alphabetic11lookup_slow
libmozjs128-debug.so:_RNvNtNtNtCs9ZIvzb94SJx_4core7unicode12unicode_data11conversions8to_lower
libmozjs128-debug.so:_RNvNtNtNtCs9ZIvzb94SJx_4core7unicode12unicode_data11conversions8to_upper
libmozjs128-debug.so:_RNvNtNtNtCs9ZIvzb94SJx_4core7unicode12unicode_data11white_space14WHITESPACE_MAP
libmozjs128-debug.so:_RNvNtNtNtCs9ZIvzb94SJx_4core7unicode12unicode_data14case_ignorable11lookup_slow
libmozjs128-debug.so:_RNvNtNtNtCs9ZIvzb94SJx_4core7unicode12unicode_data15grapheme_extend11lookup_slow
libmozjs128-debug.so:_RNvNtNtNtCs9ZIvzb94SJx_4core7unicode12unicode_data1n11lookup_slow
libmozjs128-debug.so:_RNvNtNtNtCs9ZIvzb94SJx_4core7unicode12unicode_data5cased11lookup_slow
libmozjs128-debug.so:_RNvNtNtNtCs9ZIvzb94SJx_4core7unicode12unicode_data9lowercase14BITSET_MAPPING
libmozjs128-debug.so:_RNvNtNtNtCs9ZIvzb94SJx_4core7unicode12unicode_data9lowercase16BITSET_CANONICAL
libmozjs128-debug.so:_RNvNtNtNtCs9ZIvzb94SJx_4core7unicode12unicode_data9lowercase17BITSET_CHUNKS_MAP
libmozjs128-debug.so:_RNvNtNtNtCs9ZIvzb94SJx_4core7unicode12unicode_data9lowercase19BITSET_INDEX_CHUNKS
libmozjs128-debug.so:_RNvNtNtNtCs9ZIvzb94SJx_4core7unicode12unicode_data9lowercase6lookup
libmozjs128-debug.so:_RNvNtNtNtCs9ZIvzb94SJx_4core7unicode12unicode_data9uppercase14BITSET_MAPPING
libmozjs128-debug.so:_RNvNtNtNtCs9ZIvzb94SJx_4core7unicode12unicode_data9uppercase16BITSET_CANONICAL
libmozjs128-debug.so:_RNvNtNtNtCs9ZIvzb94SJx_4core7unicode12unicode_data9uppercase17BITSET_CHUNKS_MAP
libmozjs128-debug.so:_RNvNtNtNtCs9ZIvzb94SJx_4core7unicode12unicode_data9uppercase19BITSET_INDEX_CHUNKS
libmozjs128-debug.so:_RNvNtNtNtCs9ZIvzb94SJx_4core7unicode12unicode_data9uppercase6lookup
libmozjs128-debug.so:_RNvNtNtNtCsk6apSIyUfCg_3std12backtrace_rs9symbolize5gimli7resolve
libmozjs128-debug.so:_RNvNtNtNtCsk6apSIyUfCg_3std2os4unix2io16replace_stdio_fd
libmozjs128-debug.so:_RNvNtNtNtCsk6apSIyUfCg_3std2os4unix7process9parent_id
libmozjs128-debug.so:_RNvNtNtNtCsk6apSIyUfCg_3std3sys2fs4unix5chown
libmozjs128-debug.so:_RNvNtNtNtCsk6apSIyUfCg_3std3sys2fs4unix6chroot
libmozjs128-debug.so:_RNvNtNtNtCsk6apSIyUfCg_3std3sys2fs4unix6fchown
libmozjs128-debug.so:_RNvNtNtNtCsk6apSIyUfCg_3std3sys2fs4unix6lchown
libmozjs128-debug.so:_RNvNtNtNtCsk6apSIyUfCg_3std3sys2fs4unix6mkfifo
libmozjs128-debug.so:_RNvNtNtNtCsk6apSIyUfCg_3std3sys3env4unix6setenv
libmozjs128-debug.so:_RNvNtNtNtCsk6apSIyUfCg_3std3sys3env4unix8unsetenv
libmozjs128-debug.so:_RNvNtNtNtCsk6apSIyUfCg_3std3sys4path4unix8absolute
libmozjs128-debug.so:_RNvNtNtNtCsk6apSIyUfCg_3std3sys4pipe4unix4pipe
libmozjs128-debug.so:_RNvNtNtNtCsk6apSIyUfCg_3std3sys6random5linux19hashmap_random_keys
libmozjs128-debug.so:_RNvNtNtNtCsk6apSIyUfCg_3std6thread7current2id2ID
libmozjs128-debug.so:_RNvNtNtNtNtCs9ZIvzb94SJx_4core3num7flt2dec8strategy5grisu12CACHED_POW10
libmozjs128-debug.so:_RNvNtNtNtNtCs9ZIvzb94SJx_4core3num7flt2dec8strategy5grisu12format_exact
libmozjs128-debug.so:_RNvNtNtNtNtCs9ZIvzb94SJx_4core3num7flt2dec8strategy5grisu15format_shortest
libmozjs128-debug.so:_RNvNtNtNtNtCs9ZIvzb94SJx_4core3num7flt2dec8strategy5grisu16format_exact_opt
libmozjs128-debug.so:_RNvNtNtNtNtCs9ZIvzb94SJx_4core3num7flt2dec8strategy5grisu19format_shortest_opt
libmozjs128-debug.so:_RNvNtNtNtNtCs9ZIvzb94SJx_4core3num7flt2dec8strategy6dragon12format_exact
libmozjs128-debug.so:_RNvNtNtNtNtCs9ZIvzb94SJx_4core3num7flt2dec8strategy6dragon15format_shortest
libmozjs128-debug.so:_RNvNtNtNtNtCs9ZIvzb94SJx_4core3num7flt2dec8strategy6dragon9mul_pow10
libmozjs128-debug.so:_RNvNtNtNtNtCs9ZIvzb94SJx_4core5slice4sort6shared9smallsort22panic_on_ord_violation
libmozjs128-debug.so:_RNvNtNtNtNtCs9ZIvzb94SJx_4core5slice4sort6stable5drift11sqrt_approx
libmozjs128-debug.so:_RNvNtNtNtNtCsk6apSIyUfCg_3std2os4unix3net4addr11sockaddr_un
libmozjs128-debug.so:_RNvNtNtNtNtCsk6apSIyUfCg_3std2os4unix3net9ancillary31send_vectored_with_ancillary_to
libmozjs128-debug.so:_RNvNtNtNtNtCsk6apSIyUfCg_3std3sys12thread_local11destructors10linux_like8register
libmozjs128-debug.so:_RNvNtNtNtNtCsk6apSIyUfCg_3std3sys2io11kernel_copy5linux15sendfile_splice
libmozjs128-debug.so:_RNvNtNtNtNtCsk6apSIyUfCg_3std3sys2io11kernel_copy5linux18copy_regular_files
libmozjs128-debug.so:_RNvNtNtNtNtCsk6apSIyUfCg_3std3sys3pal4unix2os5chdir
libmozjs128-debug.so:_RNvNtNtNtNtCsk6apSIyUfCg_3std3sys3pal4unix5futex10futex_wake
libmozjs128-debug.so:_RNvNtNtNtNtCsk6apSIyUfCg_3std3sys3pal4unix5futex14futex_wake_all
libmozjs128-debug.so:_RNvNtNtNtNtCsk6apSIyUfCg_3std3sys4args4unix3imp15ARGV_INIT_ARRAY
libmozjs128-debug.so:_RNvNvMNtCs9ZIvzb94SJx_4core5sliceSp16align_to_offsets3gcd
libmozjs128-debug.so:_RNvNvMNtNtNtCshlECYyjYKiK_6object4read4coff6importNtB4_10ImportFile5parse12strip_prefix
libmozjs128-debug.so:_RNvNvMs3_NtNtNtNtCsk6apSIyUfCg_3std3sys3net10connection6socketNtB7_9TcpStream7connect5inner
libmozjs128-debug.so:_RNvNvMs6_NtNtCs9ZIvzb94SJx_4core4task4wakeNtB7_5Waker11from_fn_ptr6VTABLE
libmozjs128-debug.so:_RNvNvMs7_NtNtNtCsk6apSIyUfCg_3std3sys6os_str5bytesNtB7_5Slice21check_public_boundary9slow_path
libmozjs128-debug.so:_RNvNvMs7_NtNtNtNtCsk6apSIyUfCg_3std3sys3net10connection6socketNtB7_11TcpListener4bind5inner
libmozjs128-debug.so:_RNvNvMs_NtCs4z76MhC0nbo_5alloc3vecINtB6_3VecppE10insert_mut13assert_failed
libmozjs128-debug.so:_RNvNvMs_NtCs4z76MhC0nbo_5alloc3vecINtB6_3VecppE11swap_remove13assert_failed
libmozjs128-debug.so:_RNvNvMs_NtCs4z76MhC0nbo_5alloc3vecINtB6_3VecppE6remove13assert_failed
libmozjs128-debug.so:_RNvNvMs_NtCs4z76MhC0nbo_5alloc3vecINtB6_3VecppE9split_off13assert_failed
libmozjs128-debug.so:_RNvNvMsa_NtNtNtNtCsk6apSIyUfCg_3std3sys3net10connection6socketNtB7_9UdpSocket4bind5inner
libmozjs128-debug.so:_RNvNvMsa_NtNtNtNtCsk6apSIyUfCg_3std3sys3net10connection6socketNtB7_9UdpSocket7connect5inner
libmozjs128-debug.so:_RNvNvMsb_NtNtCs9ZIvzb94SJx_4core4task4wakeNtB7_10LocalWaker11from_fn_ptr6VTABLE
libmozjs128-debug.so:_RNvNvNtCs4z76MhC0nbo_5alloc3fmt6format12format_inner
libmozjs128-debug.so:_RNvNvNtCs4z76MhC0nbo_5alloc5alloc18handle_alloc_error8ct_error
libmozjs128-debug.so:_RNvNvNtCs9ZIvzb94SJx_4core5slice20copy_from_slice_impl17len_mismatch_fail
libmozjs128-debug.so:_RNvNvNtCsk6apSIyUfCg_3std2fs14read_to_string5inner
libmozjs128-debug.so:_RNvNvNtCsk6apSIyUfCg_3std2fs4read5inner
libmozjs128-debug.so:_RNvNvNtCsk6apSIyUfCg_3std2fs5write5inner
libmozjs128-debug.so:_RNvNvNtCsk6apSIyUfCg_3std9panicking12catch_unwind7cleanup
libmozjs128-debug.so:_RNvNvNtNtCsk6apSIyUfCg_3std2io5stdio6stderr8INSTANCE
libmozjs128-debug.so:_RNvNvNtNtNtCs4vvGeN3ANz4_6memchr4arch6x86_646memchr10memchr_raw2FN
libmozjs128-debug.so:_RNvNvNtNtNtCs4vvGeN3ANz4_6memchr4arch6x86_646memchr10memchr_raw6detect
libmozjs128-debug.so:_RNvNvNtNtNtCs4vvGeN3ANz4_6memchr4arch6x86_646memchr11memchr2_raw2FN
libmozjs128-debug.so:_RNvNvNtNtNtCs4vvGeN3ANz4_6memchr4arch6x86_646memchr11memchr2_raw6detect
libmozjs128-debug.so:_RNvNvNtNtNtCs4vvGeN3ANz4_6memchr4arch6x86_646memchr11memchr3_raw2FN
libmozjs128-debug.so:_RNvNvNtNtNtCs4vvGeN3ANz4_6memchr4arch6x86_646memchr11memchr3_raw6detect
libmozjs128-debug.so:_RNvNvNtNtNtCs4vvGeN3ANz4_6memchr4arch6x86_646memchr11memrchr_raw2FN
libmozjs128-debug.so:_RNvNvNtNtNtCs4vvGeN3ANz4_6memchr4arch6x86_646memchr11memrchr_raw6detect
libmozjs128-debug.so:_RNvNvNtNtNtCs4vvGeN3ANz4_6memchr4arch6x86_646memchr12memrchr2_raw2FN
libmozjs128-debug.so:_RNvNvNtNtNtCs4vvGeN3ANz4_6memchr4arch6x86_646memchr12memrchr2_raw6detect
libmozjs128-debug.so:_RNvNvNtNtNtCs4vvGeN3ANz4_6memchr4arch6x86_646memchr12memrchr3_raw2FN
libmozjs128-debug.so:_RNvNvNtNtNtCs4vvGeN3ANz4_6memchr4arch6x86_646memchr12memrchr3_raw6detect
libmozjs128-debug.so:_RNvNvNtNtNtCs4vvGeN3ANz4_6memchr4arch6x86_646memchr9count_raw2FN
libmozjs128-debug.so:_RNvNvNtNtNtCs4vvGeN3ANz4_6memchr4arch6x86_646memchr9count_raw6detect
libmozjs128-debug.so:_RNvNvNtNtNtNtCsk6apSIyUfCg_3std3sys3pal4unix2os11split_paths12into_pathbuf
libmozjs128-debug.so:_RNvNvNtNtNtNtCsk6apSIyUfCg_3std3sys4args4unix3imp15ARGV_INIT_ARRAY12init_wrapper
libmozjs128-debug.so:_RNvXCs7XP8T9flioK_14mozglue_staticINtB2_12ArrayCStringKj200_EINtNtCs9ZIvzb94SJx_4core7convert4FromReE4fromB2_
libmozjs128-debug.so:_RNvXNtCs9ZIvzb94SJx_4core3ffiNtB2_6c_voidNtNtB4_3fmt5Debug3fmt
libmozjs128-debug.so:_RNvXNtCs9ZIvzb94SJx_4core3fmtQNtB2_9FormatterNtB2_5Write9write_strCsglvZrah94c3_14rustc_demangle
libmozjs128-debug.so:_RNvXNtCs9ZIvzb94SJx_4core3patcNtB2_12RangePattern7sub_one
libmozjs128-debug.so:_RNvXNtCs9ZIvzb94SJx_4core7convertReINtB2_5AsRefeE6as_refCs7XP8T9flioK_14mozglue_static
libmozjs128-debug.so:_RNvXNtCsglvZrah94c3_14rustc_demangle2v0NtB2_8DemangleNtNtCs9ZIvzb94SJx_4core3fmt7Display3fmt
libmozjs128-debug.so:_RNvXNtCsglvZrah94c3_14rustc_demangle6legacyNtB2_8DemangleNtNtCs9ZIvzb94SJx_4core3fmt7Display3fmt
libmozjs128-debug.so:_RNvXNtCsk6apSIyUfCg_3std2ioNtB2_5GuardNtNtNtCs9ZIvzb94SJx_4core3ops4drop4Drop4drop
libmozjs128-debug.so:_RNvXNtCsk6apSIyUfCg_3std3envNtB2_4VarsNtNtNtNtCs9ZIvzb94SJx_4core4iter6traits8iterator8Iterator4next
libmozjs128-debug.so:_RNvXNtCsk6apSIyUfCg_3std3envNtB2_4VarsNtNtNtNtCs9ZIvzb94SJx_4core4iter6traits8iterator8Iterator9size_hint
libmozjs128-debug.so:_RNvXNtCsk6apSIyUfCg_3std6randomNtB2_19DefaultRandomSourceNtNtCs9ZIvzb94SJx_4core6random12RandomSource10fill_bytes
libmozjs128-debug.so:_RNvXNtCsk6apSIyUfCg_3std9backtraceNtB2_9BacktraceNtNtCs9ZIvzb94SJx_4core3fmt5Debug3fmt
libmozjs128-debug.so:_RNvXNtNtCs9ZIvzb94SJx_4core2io12borrowed_bufNtB2_11BorrowedBufNtNtB6_3fmt5Debug3fmt
libmozjs128-debug.so:_RNvXNtNtCs9ZIvzb94SJx_4core3ffi5c_strNtB2_21FromBytesWithNulErrorNtNtB6_3fmt7Display3fmt
libmozjs128-debug.so:_RNvXNtNtCs9ZIvzb94SJx_4core3ffi7va_listNtB2_6VaListNtNtB6_3fmt5Debug3fmt
libmozjs128-debug.so:_RNvXNtNtCs9ZIvzb94SJx_4core3fmt3numoNtB4_7Display3fmt
libmozjs128-debug.so:_RNvXNtNtCs9ZIvzb94SJx_4core3num5errorNtB2_15TryFromIntErrorNtNtB6_3fmt7Display3fmt
libmozjs128-debug.so:_RNvXNtNtCs9ZIvzb94SJx_4core3ops5rangeNtB2_9RangeFullNtNtB6_3fmt5Debug3fmt
libmozjs128-debug.so:_RNvXNtNtCshlECYyjYKiK_6object4read4utilNtB2_5BytesNtNtCs9ZIvzb94SJx_4core3fmt5Debug3fmt
libmozjs128-debug.so:_RNvXNtNtCshlECYyjYKiK_6object4read8read_refRShNtB2_7ReadRef19read_bytes_at_until
libmozjs128-debug.so:_RNvXNtNtCsk6apSIyUfCg_3std2io5errorNtB2_5ErrorNtNtCs9ZIvzb94SJx_4core3fmt5Debug3fmt
libmozjs128-debug.so:_RNvXNtNtCsk6apSIyUfCg_3std2io5stdioNtB2_8StdinRawNtB4_4Read10read_exact
libmozjs128-debug.so:_RNvXNtNtCsk6apSIyUfCg_3std2io5stdioNtB2_8StdinRawNtB4_4Read11read_to_end
libmozjs128-debug.so:_RNvXNtNtCsk6apSIyUfCg_3std2io5stdioNtB2_8StdinRawNtB4_4Read13read_vectored
libmozjs128-debug.so:_RNvXNtNtCsk6apSIyUfCg_3std2io5stdioNtB2_8StdinRawNtB4_4Read14read_buf_exact
libmozjs128-debug.so:_RNvXNtNtCsk6apSIyUfCg_3std2io5stdioNtB2_8StdinRawNtB4_4Read14read_to_string
libmozjs128-debug.so:_RNvXNtNtCsk6apSIyUfCg_3std2io5stdioNtB2_8StdinRawNtB4_4Read4read
libmozjs128-debug.so:_RNvXNtNtCsk6apSIyUfCg_3std2io5stdioNtB2_8StdinRawNtB4_4Read8read_buf
libmozjs128-debug.so:_RNvXNtNtCsk6apSIyUfCg_3std4sync9nonpoisonNtB2_10WouldBlockNtNtCs9ZIvzb94SJx_4core3fmt5Debug3fmt
libmozjs128-debug.so:_RNvXNtNtCsk6apSIyUfCg_3std6thread9functionsNtB2_10PanicGuardNtNtNtCs9ZIvzb94SJx_4core3ops4drop4Drop4drop
libmozjs128-debug.so:_RNvXNtNtCsk6apSIyUfCg_3std6thread9spawnhookNtB2_10SpawnHooksNtNtNtCs9ZIvzb94SJx_4core3ops4drop4Drop4drop
libmozjs128-debug.so:_RNvXNtNtNtCs9ZIvzb94SJx_4core3fmt3num3imphNtB6_7Display3fmt
libmozjs128-debug.so:_RNvXNtNtNtCsk6apSIyUfCg_3std2os4unix2fsNtNtB8_2fs4FileNtB2_7FileExt11read_buf_at
libmozjs128-debug.so:_RNvXNtNtNtCsk6apSIyUfCg_3std2os4unix2fsNtNtB8_2fs4FileNtB2_7FileExt16read_vectored_at
libmozjs128-debug.so:_RNvXNtNtNtCsk6apSIyUfCg_3std2os4unix2fsNtNtB8_2fs4FileNtB2_7FileExt17write_vectored_at
libmozjs128-debug.so:_RNvXNtNtNtCsk6apSIyUfCg_3std2os4unix2fsNtNtB8_2fs4FileNtB2_7FileExt7read_at
libmozjs128-debug.so:_RNvXNtNtNtCsk6apSIyUfCg_3std2os4unix2fsNtNtB8_2fs4FileNtB2_7FileExt8write_at
libmozjs128-debug.so:_RNvXNtNtNtCsk6apSIyUfCg_3std2os4unix2ioNtNtNtB8_2io5stdio6StdoutNtB2_8StdioExt7take_fd
libmozjs128-debug.so:_RNvXNtNtNtCsk6apSIyUfCg_3std2os4unix7processNtNtB8_7process7CommandNtB2_10CommandExt4exec
libmozjs128-debug.so:_RNvXNtNtNtCsk6apSIyUfCg_3std2os4unix7processNtNtB8_7process7CommandNtB2_10CommandExt6groups
libmozjs128-debug.so:_RNvXNtNtNtCsk6apSIyUfCg_3std3sys7process3envNtB2_10CommandEnvNtNtCs9ZIvzb94SJx_4core3fmt5Debug3fmt
libmozjs128-debug.so:_RNvXNtNtNtCsk6apSIyUfCg_3std6thread6thread18thread_name_stringNtB2_16ThreadNameStringINtNtCs9ZIvzb94SJx_4core7convert4FromNtNtCs4z76MhC0nbo_5alloc6string6StringE4from
libmozjs128-debug.so:_RNvXNtNtNtNtCsk6apSIyUfCg_3std2os3net9linux_ext6socketNtNtNtNtB8_4unix3net8datagram12UnixDatagramNtB2_13UnixSocketExt12set_passcred
libmozjs128-debug.so:_RNvXNtNtNtNtCsk6apSIyUfCg_3std2os3net9linux_ext6socketNtNtNtNtB8_4unix3net8datagram12UnixDatagramNtB2_13UnixSocketExt8passcred
libmozjs128-debug.so:_RNvXNtNtNtNtCsk6apSIyUfCg_3std2os4unix3net8listenerNtB2_12UnixListenerNtNtCs9ZIvzb94SJx_4core3fmt5Debug3fmt
libmozjs128-debug.so:_RNvXNtNtNtNtCsk6apSIyUfCg_3std3sys2fs4unix3cfmNtB2_18CachedFileMetadataNtNtBa_2io4Read11read_to_end
libmozjs128-debug.so:_RNvXNtNtNtNtCsk6apSIyUfCg_3std3sys2fs4unix3cfmNtB2_18CachedFileMetadataNtNtBa_2io4Read13read_vectored
libmozjs128-debug.so:_RNvXNtNtNtNtCsk6apSIyUfCg_3std3sys2fs4unix3cfmNtB2_18CachedFileMetadataNtNtBa_2io4Read14read_to_string
libmozjs128-debug.so:_RNvXNtNtNtNtCsk6apSIyUfCg_3std3sys2fs4unix3cfmNtB2_18CachedFileMetadataNtNtBa_2io4Read4read
libmozjs128-debug.so:_RNvXNtNtNtNtCsk6apSIyUfCg_3std3sys2fs4unix3cfmNtB2_18CachedFileMetadataNtNtBa_2io4Read8read_buf
libmozjs128-debug.so:_RNvXNtNtNtNtCsk6apSIyUfCg_3std3sys3pal4unix2osNtB2_14JoinPathsErrorNtNtCs9ZIvzb94SJx_4core3fmt7Display3fmt
libmozjs128-debug.so:_RNvXNtNtNtNtNtCsk6apSIyUfCg_3std3sys3pal4unix14stack_overflow11thread_infoNtB2_12UnlockOnDropNtNtNtCs9ZIvzb94SJx_4core3ops4drop4Drop4drop
libmozjs128-debug.so:_RNvXNtNtNtNtNtCsk6apSIyUfCg_3std3sys7process4unix4unix15linux_child_extNtNtBc_7process5ChildNtNtNtNtBc_2os5linux7process8ChildExt10into_pidfd
libmozjs128-debug.so:_RNvXNtNtNtNtNtCsk6apSIyUfCg_3std3sys7process4unix4unix15linux_child_extNtNtBc_7process5ChildNtNtNtNtBc_2os5linux7process8ChildExt5pidfd
libmozjs128-debug.so:_RNvXNvMNtCs4z76MhC0nbo_5alloc6stringNtB5_6String6retainNtB2_12SetLenOnDropNtNtNtCs9ZIvzb94SJx_4core3ops4drop4Drop4drop
libmozjs128-debug.so:_RNvXNvMNtNtCsk6apSIyUfCg_3std3sys9backtraceNtB5_13BacktraceLock5printNtB2_16DisplayBacktraceNtNtCs9ZIvzb94SJx_4core3fmt7Display3fmt
libmozjs128-debug.so:_RNvXNvMNtNtNtNtCsk6apSIyUfCg_3std3sys7process4unix4unixNtNtB7_6common7Command11posix_spawnNtB2_21PosixSpawnFileActionsNtNtNtCs9ZIvzb94SJx_4core3ops4drop4Drop4drop
libmozjs128-debug.so:_RNvXNvNtCs9ZIvzb94SJx_4core4hint20select_unpredictableINtB2_11DropOnPanicjENtNtNtB6_3ops4drop4Drop4dropCs6TFdUlxcy5y_9addr2line
libmozjs128-debug.so:_RNvXNvNtCs9ZIvzb94SJx_4core9panicking21assert_matches_failedNtB2_7PatternNtNtB6_3fmt5Debug3fmt
libmozjs128-debug.so:_RNvXNvNtCsk6apSIyUfCg_3std9panicking13resume_unwindNtB2_9RewrapBoxNtNtCs9ZIvzb94SJx_4core5panic12PanicPayload8take_box
libmozjs128-debug.so:_RNvXNvXs7_NtCsk6apSIyUfCg_3std4pathNtB8_10ComponentsNtNtCs9ZIvzb94SJx_4core3fmt5Debug3fmtNtB2_11DebugHelperBO_3fmt
libmozjs128-debug.so:_RNvXNvXsb_NtCsk6apSIyUfCg_3std4pathNtB8_4IterNtNtCs9ZIvzb94SJx_4core3fmt5Debug3fmtNtB2_11DebugHelperBH_3fmt
libmozjs128-debug.so:_RNvXNvXsd_NtCs9ZIvzb94SJx_4core4wtf8NtB8_10EncodeWideNtNtBa_3fmt5Debug3fmtNtB2_8CodeUnitBP_3fmt
libmozjs128-debug.so:_RNvXs0_Cs1vgVKqzVi9G_6adler2NtB5_7Adler32NtNtCs9ZIvzb94SJx_4core4hash6Hasher5write
libmozjs128-debug.so:_RNvXs0_Cs7XP8T9flioK_14mozglue_staticNtB5_10GeckoAllocNtNtNtCs9ZIvzb94SJx_4core5alloc6global11GlobalAlloc12alloc_zeroed
libmozjs128-debug.so:_RNvXs0_Cs7XP8T9flioK_14mozglue_staticNtB5_10GeckoAllocNtNtNtCs9ZIvzb94SJx_4core5alloc6global11GlobalAlloc5alloc
libmozjs128-debug.so:_RNvXs0_Cs7XP8T9flioK_14mozglue_staticNtB5_10GeckoAllocNtNtNtCs9ZIvzb94SJx_4core5alloc6global11GlobalAlloc7dealloc
libmozjs128-debug.so:_RNvXs0_Cs7XP8T9flioK_14mozglue_staticNtB5_10GeckoAllocNtNtNtCs9ZIvzb94SJx_4core5alloc6global11GlobalAlloc7realloc
libmozjs128-debug.so:_RNvXs0_CsglvZrah94c3_14rustc_demangleINtB5_21SizeLimitedFmtAdapterQNtNtCs9ZIvzb94SJx_4core3fmt9FormatterENtB15_5Write9write_strB5_
libmozjs128-debug.so:_RNvXs0_NtCs4z76MhC0nbo_5alloc6stringNtB5_13FromUtf8ErrorNtNtCs9ZIvzb94SJx_4core3fmt7Display3fmt
libmozjs128-debug.so:_RNvXs0_NtCs6TFdUlxcy5y_9addr2line4lineNtB5_21LineLocationRangeIterNtNtNtNtCs9ZIvzb94SJx_4core4iter6traits8iterator8Iterator4next
libmozjs128-debug.so:_RNvXs0_NtCs9WTLM0oGNNa_8arrayvec12array_stringINtB5_11ArrayStringKj200_ENtNtNtCs9ZIvzb94SJx_4core3ops5deref5Deref5derefCs7XP8T9flioK_14mozglue_static
libmozjs128-debug.so:_RNvXs0_NtCs9ZIvzb94SJx_4core3anyDNtB5_3AnyNtNtB7_6marker4SendEL_NtNtB7_3fmt5Debug3fmt
libmozjs128-debug.so:_RNvXs0_NtCsglvZrah94c3_14rustc_demangle2v0NtB5_5IdentNtNtCs9ZIvzb94SJx_4core3fmt7Display3fmt
libmozjs128-debug.so:_RNvXs0_NtCsk6apSIyUfCg_3std2fsNtB5_12TryLockErrorNtNtCs9ZIvzb94SJx_4core3fmt7Display3fmt
libmozjs128-debug.so:_RNvXs0_NtCsk6apSIyUfCg_3std3envNtB5_6VarsOsNtNtNtNtCs9ZIvzb94SJx_4core4iter6traits8iterator8Iterator4next
libmozjs128-debug.so:_RNvXs0_NtCsk6apSIyUfCg_3std3envNtB5_6VarsOsNtNtNtNtCs9ZIvzb94SJx_4core4iter6traits8iterator8Iterator9size_hint
libmozjs128-debug.so:_RNvXs0_NtCsk6apSIyUfCg_3std4timeNtB5_7InstantINtNtNtCs9ZIvzb94SJx_4core3ops5arith9AddAssignNtNtBO_4time8DurationE10add_assign
libmozjs128-debug.so:_RNvXs0_NtCsk6apSIyUfCg_3std9backtraceNtB5_15BacktraceSymbolNtNtCs9ZIvzb94SJx_4core3fmt5Debug3fmt
libmozjs128-debug.so:_RNvXs0_NtNtCs9ZIvzb94SJx_4core3ffi5c_strNtB5_22FromBytesUntilNulErrorNtNtB9_3fmt7Display3fmt
libmozjs128-debug.so:_RNvXs0_NtNtCs9ZIvzb94SJx_4core3fmt8buildersNtB5_10PadAdapterNtB7_5Write10write_char
libmozjs128-debug.so:_RNvXs0_NtNtCs9ZIvzb94SJx_4core3fmt8buildersNtB5_10PadAdapterNtB7_5Write9write_str
libmozjs128-debug.so:_RNvXs0_NtNtCs9ZIvzb94SJx_4core3net6parserNtNtB7_7ip_addr6IpAddrNtNtNtB9_3str6traits7FromStr8from_str
libmozjs128-debug.so:_RNvXs0_NtNtCs9ZIvzb94SJx_4core3num7dec2fltC3f16NtNtNtB9_3str6traits7FromStr8from_str
libmozjs128-debug.so:_RNvXs0_NtNtCs9ZIvzb94SJx_4core3str5lossyNtB5_5DebugNtNtB9_3fmt5Debug3fmt
libmozjs128-debug.so:_RNvXs0_NtNtCs9ZIvzb94SJx_4core5alloc6layoutNtB5_11LayoutErrorNtNtB9_3fmt7Display3fmt
libmozjs128-debug.so:_RNvXs0_NtNtCs9ZIvzb94SJx_4core5ascii10ascii_charNtB5_9AsciiCharNtNtB9_3fmt7Display3fmt
libmozjs128-debug.so:_RNvXs0_NtNtCs9ZIvzb94SJx_4core5slice5asciiNtB5_11EscapeAsciiNtNtNtNtB9_4iter6traits12double_ended19DoubleEndedIterator9next_back
libmozjs128-debug.so:_RNvXs0_NtNtCshlECYyjYKiK_6object4read4utilNtB5_9DebugByteNtNtCs9ZIvzb94SJx_4core3fmt5Debug3fmt
libmozjs128-debug.so:_RNvXs0_NtNtCsk6apSIyUfCg_3std12backtrace_rs9symbolizeNtB5_6SymbolNtNtCs9ZIvzb94SJx_4core3fmt5Debug3fmt
libmozjs128-debug.so:_RNvXs0_NtNtCsk6apSIyUfCg_3std2io5errorNtB5_5ErrorINtNtCs9ZIvzb94SJx_4core7convert4FromNtNtNtCs4z76MhC0nbo_5alloc3ffi5c_str8NulErrorE4from
libmozjs128-debug.so:_RNvXs0_NtNtCsk6apSIyUfCg_3std2io5stdioNtB5_9StderrRawNtB7_5Write14write_vectored
libmozjs128-debug.so:_RNvXs0_NtNtCsk6apSIyUfCg_3std2io5stdioNtB5_9StderrRawNtB7_5Write18write_all_vectored
libmozjs128-debug.so:_RNvXs0_NtNtCsk6apSIyUfCg_3std2io5stdioNtB5_9StderrRawNtB7_5Write5flush
libmozjs128-debug.so:_RNvXs0_NtNtCsk6apSIyUfCg_3std2io5stdioNtB5_9StderrRawNtB7_5Write5write
libmozjs128-debug.so:_RNvXs0_NtNtCsk6apSIyUfCg_3std2io5stdioNtB5_9StderrRawNtB7_5Write9write_all
libmozjs128-debug.so:_RNvXs0_NtNtCsk6apSIyUfCg_3std2io5stdioNtB5_9StderrRawNtB7_5Write9write_fmt
libmozjs128-debug.so:_RNvXs0_NtNtCsk6apSIyUfCg_3std3net3tcpNtB5_9TcpStreamNtNtB9_2io5Write14write_vectored
libmozjs128-debug.so:_RNvXs0_NtNtCsk6apSIyUfCg_3std3net3tcpNtB5_9TcpStreamNtNtB9_2io5Write5write
libmozjs128-debug.so:_RNvXs0_NtNtCsk6apSIyUfCg_3std6thread5localNtB5_11AccessErrorNtNtCs9ZIvzb94SJx_4core3fmt7Display3fmt
libmozjs128-debug.so:_RNvXs0_NtNtCsk6apSIyUfCg_3std6thread6threadNtB5_6ThreadNtNtCs9ZIvzb94SJx_4core3fmt5Debug3fmt
libmozjs128-debug.so:_RNvXs0_NtNtNtCshlECYyjYKiK_6object4read2pe6exportNtB5_12ExportTargetNtNtCs9ZIvzb94SJx_4core3fmt5Debug3fmt
libmozjs128-debug.so:_RNvXs0_NtNtNtCshlECYyjYKiK_6object4read2pe6importNtB5_24ImportDescriptorIteratorNtNtNtNtCs9ZIvzb94SJx_4core4iter6traits8iterator8Iterator4next
libmozjs128-debug.so:_RNvXs0_NtNtNtCsk6apSIyUfCg_3std2os4unix2ioNtNtNtBb_2io5stdio5StdinNtB5_8StdioExt7take_fd
libmozjs128-debug.so:_RNvXs0_NtNtNtCsk6apSIyUfCg_3std2os4unix7processNtNtBb_7process15ExitStatusErrorNtB5_13ExitStatusExt8from_raw
libmozjs128-debug.so:_RNvXs0_NtNtNtCsk6apSIyUfCg_3std3sys7process3envNtB5_11CommandEnvsNtNtNtNtCs9ZIvzb94SJx_4core4iter6traits8iterator8Iterator4next
libmozjs128-debug.so:_RNvXs0_NtNtNtNtCsk6apSIyUfCg_3std12backtrace_rs9symbolize5gimli4mmapNtB5_4MmapNtNtNtCs9ZIvzb94SJx_4core3ops4drop4Drop4drop
libmozjs128-debug.so:_RNvXs0_NtNtNtNtCsk6apSIyUfCg_3std2os4unix3net4addrNtB5_10SocketAddrNtNtNtNtBb_3net9linux_ext4addr13SocketAddrExt16as_abstract_name
libmozjs128-debug.so:_RNvXs0_NtNtNtNtCsk6apSIyUfCg_3std3sys7process4unix4unixNtB5_10ExitStatusNtNtCs9ZIvzb94SJx_4core3fmt5Debug3fmt
libmozjs128-debug.so:_RNvXs0_NtNtNtNtNtCsk6apSIyUfCg_3std3sys7process4unix6common13cstring_arrayNtB5_12CStringArrayNtNtCs9ZIvzb94SJx_4core3fmt5Debug3fmt
libmozjs128-debug.so:_RNvXs0_NvMs_NtNtCs4z76MhC0nbo_5alloc3ffi5c_strNtBa_7CString3newReNtB5_11SpecNewImpl13spec_new_impl
libmozjs128-debug.so:_RNvXs0_NvNtCsk6apSIyUfCg_3std9panicking13panic_handlerNtB5_19FormatStringPayloadNtNtCs9ZIvzb94SJx_4core3fmt7Display3fmt
libmozjs128-debug.so:_RNvXs0_NvXsf_NtNtCs4z76MhC0nbo_5alloc5boxed7convertINtBd_3BoxDNtNtCs9ZIvzb94SJx_4core5error5ErrorNtNtB12_6marker4SyncNtB1z_4SendEL_EINtNtB12_7convert4FromNtNtBf_6string6StringE4fromNtB5_11StringErrorNtNtB12_3fmt5Debug3fmt
libmozjs128-debug.so:_RNvXs10_NtCs4z76MhC0nbo_5alloc6stringNtB6_9IntoCharsNtNtCs9ZIvzb94SJx_4core3fmt5Debug3fmt
libmozjs128-debug.so:_RNvXs10_NtCsd97RIzLnxns_5gimli9constantsNtB6_5DwTagNtNtCs9ZIvzb94SJx_4core3fmt7Display3fmt
libmozjs128-debug.so:_RNvXs10_NtNtCs9ZIvzb94SJx_4core3fmt3numnNtB8_8LowerExp3fmt
libmozjs128-debug.so:_RNvXs11_NtNtCs9ZIvzb94SJx_4core3fmt3numoNtB8_8LowerExp3fmt
libmozjs128-debug.so:_RNvXs11_NtNtCs9ZIvzb94SJx_4core3num7nonzeroINtB6_7NonZerotENtNtNtBa_3str6traits7FromStr8from_str
libmozjs128-debug.so:_RNvXs12_NtNtCs9ZIvzb94SJx_4core3fmt3numnNtB8_8UpperExp3fmt
libmozjs128-debug.so:_RNvXs12_NtNtCs9ZIvzb94SJx_4core3num11niche_typesNtB6_14NonZeroI8InnerNtNtBa_3fmt5Debug3fmt
libmozjs128-debug.so:_RNvXs13_NtNtCs9ZIvzb94SJx_4core3fmt3numoNtB8_8UpperExp3fmt
libmozjs128-debug.so:_RNvXs14_NtNtCs9ZIvzb94SJx_4core4sync6atomicNtB6_9AtomicI32NtNtBa_3fmt5Debug3fmt
libmozjs128-debug.so:_RNvXs15_NtCs4z76MhC0nbo_5alloc6stringNtB6_5DrainNtNtCs9ZIvzb94SJx_4core3fmt5Debug3fmt
libmozjs128-debug.so:_RNvXs15_NtNtCs9ZIvzb94SJx_4core3net7ip_addrNtB6_8Ipv4AddrINtNtNtBa_3ops3bit12BitAndAssignRBF_E13bitand_assign
libmozjs128-debug.so:_RNvXs18_NtCs4z76MhC0nbo_5alloc6stringNtB6_5DrainNtNtNtCs9ZIvzb94SJx_4core3ops4drop4Drop4drop
libmozjs128-debug.so:_RNvXs18_NtNtCs9ZIvzb94SJx_4core3num7nonzeroINtB6_7NonZeromENtNtNtBa_3str6traits7FromStr8from_str
libmozjs128-debug.so:_RNvXs19_NtCsk6apSIyUfCg_3std4pathNtB6_4PathNtNtCs9ZIvzb94SJx_4core3fmt5Debug3fmt
libmozjs128-debug.so:_RNvXs19_NtNtCs9ZIvzb94SJx_4core4sync6atomicNtB6_9AtomicU32NtNtBa_3fmt5Debug3fmt
libmozjs128-debug.so:_RNvXs1A_NtCsd97RIzLnxns_5gimli9constantsNtB6_5DwAteNtNtCs9ZIvzb94SJx_4core3fmt7Display3fmt
libmozjs128-debug.so:_RNvXs1A_NtNtCs9ZIvzb94SJx_4core3num7nonzeroINtB6_7NonZeroaENtNtNtBa_3str6traits7FromStr8from_str
libmozjs128-debug.so:_RNvXs1E_NtNtCs9ZIvzb94SJx_4core3num7nonzeroINtB6_7NonZerosENtNtNtBa_3str6traits7FromStr8from_str
libmozjs128-debug.so:_RNvXs1G_NtNtCs9ZIvzb94SJx_4core3num11niche_typesNtB6_14UsizeNoHighBitNtNtBa_3fmt5Debug3fmt
libmozjs128-debug.so:_RNvXs1I_NtNtCs9ZIvzb94SJx_4core3num7nonzeroINtB6_7NonZerolENtNtNtBa_3str6traits7FromStr8from_str
libmozjs128-debug.so:_RNvXs1K_NtNtNtCs4z76MhC0nbo_5alloc11collections5btree3mapNtB6_17UnorderedKeyErrorNtNtCs9ZIvzb94SJx_4core3fmt7Display3fmt
libmozjs128-debug.so:_RNvXs1M_NtCsd97RIzLnxns_5gimli9constantsNtB6_5DwLleNtNtCs9ZIvzb94SJx_4core3fmt7Display3fmt
libmozjs128-debug.so:_RNvXs1M_NtNtCs9ZIvzb94SJx_4core3num7nonzeroINtB6_7NonZeroxENtNtNtBa_3str6traits7FromStr8from_str
libmozjs128-debug.so:_RNvXs1O_NtNtCs9ZIvzb94SJx_4core3num11niche_typesNtB6_17NonZeroUsizeInnerNtNtBa_3fmt5Debug3fmt
libmozjs128-debug.so:_RNvXs1Q_NtNtCs9ZIvzb94SJx_4core3num7nonzeroINtB6_7NonZeronENtNtNtBa_3str6traits7FromStr8from_str
libmozjs128-debug.so:_RNvXs1U_NtNtCs9ZIvzb94SJx_4core3num7nonzeroINtB6_7NonZeroiENtNtNtBa_3str6traits7FromStr8from_str
libmozjs128-debug.so:_RNvXs1W_NtNtCs9ZIvzb94SJx_4core3num11niche_typesNtB6_17NonZeroIsizeInnerNtNtBa_3fmt5Debug3fmt
libmozjs128-debug.so:_RNvXs1Y_NtCsd97RIzLnxns_5gimli9constantsNtB6_4DwDsNtNtCs9ZIvzb94SJx_4core3fmt7Display3fmt
libmozjs128-debug.so:_RNvXs1_CsglvZrah94c3_14rustc_demangleNtB5_8DemangleNtNtCs9ZIvzb94SJx_4core3fmt7Display3fmt
libmozjs128-debug.so:_RNvXs1_NtCs4vvGeN3ANz4_6memchr6memmemNtB5_11FindRevIterNtNtNtNtCs9ZIvzb94SJx_4core4iter6traits8iterator8Iterator4next
libmozjs128-debug.so:_RNvXs1_NtCs4z76MhC0nbo_5alloc4wtf8NtB5_7Wtf8BufNtNtCs9ZIvzb94SJx_4core3fmt7Display3fmt
libmozjs128-debug.so:_RNvXs1_NtCs4z76MhC0nbo_5alloc6stringNtB5_14FromUtf16ErrorNtNtCs9ZIvzb94SJx_4core3fmt7Display3fmt
libmozjs128-debug.so:_RNvXs1_NtCs4z76MhC0nbo_5alloc7raw_vecINtB5_6RawVecNtNtNtCsd97RIzLnxns_5gimli4read6abbrev22AttributeSpecificationENtNtNtCs9ZIvzb94SJx_4core3ops4drop4Drop4dropBS_
libmozjs128-debug.so:_RNvXs1_NtCs4z76MhC0nbo_5alloc7raw_vecINtB5_6RawVechENtNtNtCs9ZIvzb94SJx_4core3ops4drop4Drop4dropCsd97RIzLnxns_5gimli
libmozjs128-debug.so:_RNvXs1_NtCs9WTLM0oGNNa_8arrayvec6errorsINtB5_13CapacityErrorReENtNtCs9ZIvzb94SJx_4core3fmt5Debug3fmtCs7XP8T9flioK_14mozglue_static
libmozjs128-debug.so:_RNvXs1_NtCs9WTLM0oGNNa_8arrayvec6errorsINtB5_13CapacityErrorcENtNtCs9ZIvzb94SJx_4core3fmt5Debug3fmtCs7XP8T9flioK_14mozglue_static
libmozjs128-debug.so:_RNvXs1_NtCs9ZIvzb94SJx_4core3anyDNtB5_3AnyNtNtB7_6marker4SyncNtBG_4SendEL_NtNtB7_3fmt5Debug3fmt
libmozjs128-debug.so:_RNvXs1_NtCs9ZIvzb94SJx_4core4wtf8NtB5_4Wtf8NtNtB7_3fmt5Debug3fmt
libmozjs128-debug.so:_RNvXs1_NtCs9ZIvzb94SJx_4core5cloneNtNtNtB7_3ffi5c_str4CStrNtB5_13CloneToUninit15clone_to_uninit
libmozjs128-debug.so:_RNvXs1_NtCsk6apSIyUfCg_3std2ioNtB5_10IoSliceMutNtNtCs9ZIvzb94SJx_4core3fmt5Debug3fmt
libmozjs128-debug.so:_RNvXs1_NtCsk6apSIyUfCg_3std3envNtB5_6VarsOsNtNtCs9ZIvzb94SJx_4core3fmt5Debug3fmt
libmozjs128-debug.so:_RNvXs1_NtCsk6apSIyUfCg_3std4timeNtB5_7InstantINtNtNtCs9ZIvzb94SJx_4core3ops5arith3SubNtNtBO_4time8DurationE3sub
libmozjs128-debug.so:_RNvXs1_NtCsk6apSIyUfCg_3std7processNtB5_5ChildINtNtB7_3sys9IntoInnerNtNtNtNtBL_7process4unix4unix7ProcessE10into_inner
libmozjs128-debug.so:_RNvXs1_NtCsk6apSIyUfCg_3std9backtraceNtB5_11BytesOrWideNtNtCs9ZIvzb94SJx_4core3fmt5Debug3fmt
libmozjs128-debug.so:_RNvXs1_NtNtCs9ZIvzb94SJx_4core3ffi5c_strNtB5_4CStrNtNtB9_3fmt5Debug3fmt
libmozjs128-debug.so:_RNvXs1_NtNtCs9ZIvzb94SJx_4core3mem15transmutabilityNtB5_6AssumeNtNtNtB9_3ops5arith3Sub3sub
libmozjs128-debug.so:_RNvXs1_NtNtCs9ZIvzb94SJx_4core3num7dec2fltfNtNtNtB9_3str6traits7FromStr8from_str
libmozjs128-debug.so:_RNvXs1_NtNtCs9ZIvzb94SJx_4core3str5errorNtB5_14ParseBoolErrorNtNtB9_3fmt7Display3fmt
libmozjs128-debug.so:_RNvXs1_NtNtCs9ZIvzb94SJx_4core4char6decodeNtB5_16DecodeUtf16ErrorNtNtB9_3fmt7Display3fmt
libmozjs128-debug.so:_RNvXs1_NtNtCs9ZIvzb94SJx_4core4task4wakeNtB5_7ContextNtNtB9_3fmt5Debug3fmt
libmozjs128-debug.so:_RNvXs1_NtNtCs9ZIvzb94SJx_4core5ascii10ascii_charNtB5_9AsciiCharNtNtB9_3fmt5Debug3fmt
libmozjs128-debug.so:_RNvXs1_NtNtCs9ZIvzb94SJx_4core5panic8locationNtB5_8LocationNtNtB9_3cmp10PartialOrd11partial_cmp
libmozjs128-debug.so:_RNvXs1_NtNtCs9ZIvzb94SJx_4core6marker8varianceNtB5_24PhantomCovariantLifetimeNtNtB9_3fmt5Debug3fmt
libmozjs128-debug.so:_RNvXs1_NtNtCshlECYyjYKiK_6object4read4utilNtB5_8DebugLenNtNtCs9ZIvzb94SJx_4core3fmt5Debug3fmt
libmozjs128-debug.so:_RNvXs1_NtNtCsk6apSIyUfCg_3std3net3tcpRNtB5_9TcpStreamNtNtB9_2io4Read13read_vectored
libmozjs128-debug.so:_RNvXs1_NtNtCsk6apSIyUfCg_3std3net3tcpRNtB5_9TcpStreamNtNtB9_2io4Read4read
libmozjs128-debug.so:_RNvXs1_NtNtCsk6apSIyUfCg_3std3net3tcpRNtB5_9TcpStreamNtNtB9_2io4Read8read_buf
libmozjs128-debug.so:_RNvXs1_NtNtCsk6apSIyUfCg_3std4sync4onceNtB5_4OnceNtNtCs9ZIvzb94SJx_4core3fmt5Debug3fmt
libmozjs128-debug.so:_RNvXs1_NtNtCsk6apSIyUfCg_3std4sync7barrierNtB5_17BarrierWaitResultNtNtCs9ZIvzb94SJx_4core3fmt5Debug3fmt
libmozjs128-debug.so:_RNvXs1_NtNtNtCs9ZIvzb94SJx_4core3num6bignum5testsNtB5_6Big8x3NtNtBb_3cmp10PartialOrd11partial_cmp
libmozjs128-debug.so:_RNvXs1_NtNtNtCs9ZIvzb94SJx_4core4iter8adapters6copiedINtB5_6CopiedINtNtNtBb_5slice4iter4IterhEENtNtNtB9_6traits10exact_size17ExactSizeIterator3lenCsglvZrah94c3_14rustc_demangle
libmozjs128-debug.so:_RNvXs1_NtNtNtCsk6apSIyUfCg_3std12backtrace_rs9backtrace9libunwindNtB5_5FrameNtNtCs9ZIvzb94SJx_4core5clone5Clone5clone
libmozjs128-debug.so:_RNvXs1_NtNtNtCsk6apSIyUfCg_3std2os4unix2ioNtNtNtBb_2io5stdio9StdinLockNtB5_8StdioExt7take_fd
libmozjs128-debug.so:_RNvXs1_NtNtNtCsk6apSIyUfCg_3std2os4unix7processNtNtBb_7process5ChildNtB5_8ChildExt11send_signal
libmozjs128-debug.so:_RNvXs1_NtNtNtCsk6apSIyUfCg_3std3sys4args6commonNtB5_4ArgsNtNtCs9ZIvzb94SJx_4core3fmt5Debug3fmt
libmozjs128-debug.so:_RNvXs1_NtNtNtCsk6apSIyUfCg_3std3sys5stdio4unixNtB5_6StdoutNtNtBb_2io5Write14write_vectored
libmozjs128-debug.so:_RNvXs1_NtNtNtCsk6apSIyUfCg_3std3sys5stdio4unixNtB5_6StdoutNtNtBb_2io5Write5write
libmozjs128-debug.so:_RNvXs1_NtNtNtCsk6apSIyUfCg_3std3sys6os_str5bytesNtB5_3BufNtNtCs9ZIvzb94SJx_4core3fmt5Debug3fmt
libmozjs128-debug.so:_RNvXs1_NtNtNtCsk6apSIyUfCg_3std3sys6thread4unixNtB5_6ThreadNtNtNtCs9ZIvzb94SJx_4core3ops4drop4Drop4drop
libmozjs128-debug.so:_RNvXs1_NtNtNtNtCsk6apSIyUfCg_3std2os4unix3net4addrNtB5_10SocketAddrNtNtCs9ZIvzb94SJx_4core3fmt5Debug3fmt
libmozjs128-debug.so:_RNvXs1_NtNtNtNtCsk6apSIyUfCg_3std2os4unix3net6streamNtB5_10UnixStreamNtNtBd_2io4Read13read_vectored
libmozjs128-debug.so:_RNvXs1_NtNtNtNtCsk6apSIyUfCg_3std2os4unix3net6streamNtB5_10UnixStreamNtNtBd_2io4Read4read
libmozjs128-debug.so:_RNvXs1_NtNtNtNtCsk6apSIyUfCg_3std2os4unix3net6streamNtB5_10UnixStreamNtNtBd_2io4Read8read_buf
libmozjs128-debug.so:_RNvXs1_NtNtNtNtCsk6apSIyUfCg_3std2os4unix3net9ancillaryNtB5_9ScmRightsNtNtNtNtCs9ZIvzb94SJx_4core4iter6traits8iterator8Iterator4next
libmozjs128-debug.so:_RNvXs1_NvMs_NtNtCs4z76MhC0nbo_5alloc3ffi5c_strNtBa_7CString3newQShNtB5_11SpecNewImpl13spec_new_impl
libmozjs128-debug.so:_RNvXs1_NvNtCsk6apSIyUfCg_3std9panicking13panic_handlerNtB5_16StaticStrPayloadNtNtCs9ZIvzb94SJx_4core5panic12PanicPayload8take_box
libmozjs128-debug.so:_RNvXs1a_NtCs4z76MhC0nbo_5alloc6stringNtB6_5DrainINtNtCs9ZIvzb94SJx_4core7convert5AsRefeE6as_ref
libmozjs128-debug.so:_RNvXs1a_NtCsk6apSIyUfCg_3std4pathNtB6_7DisplayNtNtCs9ZIvzb94SJx_4core3fmt5Debug3fmt
libmozjs128-debug.so:_RNvXs1a_NtNtCs9ZIvzb94SJx_4core3num11niche_typesNtB6_15NonZeroI16InnerNtNtBa_3fmt5Debug3fmt
libmozjs128-debug.so:_RNvXs1b_NtCs4z76MhC0nbo_5alloc6stringNtB6_5DrainINtNtCs9ZIvzb94SJx_4core7convert5AsRefShE6as_ref
libmozjs128-debug.so:_RNvXs1b_NtCsk6apSIyUfCg_3std4pathNtB6_7DisplayNtNtCs9ZIvzb94SJx_4core3fmt7Display3fmt
libmozjs128-debug.so:_RNvXs1b_NtNtCs9ZIvzb94SJx_4core3net7ip_addrNtB6_8Ipv4AddrINtNtNtBa_3ops3bit11BitOrAssignRBF_E12bitor_assign
libmozjs128-debug.so:_RNvXs1c_NtCs4z76MhC0nbo_5alloc6stringNtB6_5DrainNtNtNtNtCs9ZIvzb94SJx_4core4iter6traits8iterator8Iterator9size_hint
libmozjs128-debug.so:_RNvXs1c_NtCsd97RIzLnxns_5gimli9constantsNtB6_4DwAtNtNtCs9ZIvzb94SJx_4core3fmt7Display3fmt
libmozjs128-debug.so:_RNvXs1e_NtNtCs9ZIvzb94SJx_4core4sync6atomicNtB6_9AtomicI64NtNtBa_3fmt5Debug3fmt
libmozjs128-debug.so:_RNvXs1f_NtNtCs9ZIvzb94SJx_4core3num7nonzeroINtB6_7NonZeroyENtNtNtBa_3str6traits7FromStr8from_str
libmozjs128-debug.so:_RNvXs1g_NtCs9ZIvzb94SJx_4core3fmtRNtNtNtB8_3num5error12IntErrorKindNtB6_5Debug3fmtCsglvZrah94c3_14rustc_demangle
libmozjs128-debug.so:_RNvXs1g_NtCs9ZIvzb94SJx_4core3fmtRNtNtNtCsd97RIzLnxns_5gimli4read6abbrev22AttributeSpecificationNtB6_5Debug3fmtBC_
libmozjs128-debug.so:_RNvXs1g_NtCs9ZIvzb94SJx_4core3fmtReNtB6_5Debug3fmtCsglvZrah94c3_14rustc_demangle
libmozjs128-debug.so:_RNvXs1g_NtCs9ZIvzb94SJx_4core3fmtRhNtB6_5Debug3fmtCsglvZrah94c3_14rustc_demangle
libmozjs128-debug.so:_RNvXs1g_NtCs9ZIvzb94SJx_4core3fmtRtNtB6_5Debug3fmtCsd97RIzLnxns_5gimli
libmozjs128-debug.so:_RNvXs1g_NtCs9ZIvzb94SJx_4core3fmtRuNtB6_5Debug3fmtCsglvZrah94c3_14rustc_demangle
libmozjs128-debug.so:_RNvXs1g_NtCs9ZIvzb94SJx_4core3fmtRxNtB6_5Debug3fmtCsd97RIzLnxns_5gimli
libmozjs128-debug.so:_RNvXs1h_NtCs9ZIvzb94SJx_4core3fmtQShNtB6_5Debug3fmtCsglvZrah94c3_14rustc_demangle
libmozjs128-debug.so:_RNvXs1h_NtNtCs9ZIvzb94SJx_4core3net7ip_addrNtB6_8Ipv6AddrINtNtNtBa_3ops3bit12BitAndAssignRBF_E13bitand_assign
libmozjs128-debug.so:_RNvXs1i_NtCs9ZIvzb94SJx_4core3fmtRNtCsglvZrah94c3_14rustc_demangle13DemangleStyleNtB6_7Display3fmtBy_
libmozjs128-debug.so:_RNvXs1i_NtCs9ZIvzb94SJx_4core3fmtReNtB6_7Display3fmtCsglvZrah94c3_14rustc_demangle
libmozjs128-debug.so:_RNvXs1i_NtNtCs9ZIvzb94SJx_4core3num11niche_typesNtB6_15NonZeroI32InnerNtNtBa_3fmt5Debug3fmt
libmozjs128-debug.so:_RNvXs1j_NtNtCs9ZIvzb94SJx_4core4sync6atomicNtB6_9AtomicU64NtNtBa_3fmt5Debug3fmt
libmozjs128-debug.so:_RNvXs1m_NtNtCs9ZIvzb94SJx_4core3num7nonzeroINtB6_7NonZerooENtNtNtBa_3str6traits7FromStr8from_str
libmozjs128-debug.so:_RNvXs1n_NtNtCs9ZIvzb94SJx_4core3net7ip_addrNtB6_8Ipv6AddrINtNtNtBa_3ops3bit11BitOrAssignRBF_E12bitor_assign
libmozjs128-debug.so:_RNvXs1o_NtCsd97RIzLnxns_5gimli9constantsNtB6_6DwFormNtNtCs9ZIvzb94SJx_4core3fmt7Display3fmt
libmozjs128-debug.so:_RNvXs1o_NtNtCs9ZIvzb94SJx_4core4sync6atomicNtB6_11AtomicIsizeNtNtBa_3fmt5Debug3fmt
libmozjs128-debug.so:_RNvXs1q_NtNtCs9ZIvzb94SJx_4core3num11niche_typesNtB6_15NonZeroI64InnerNtNtBa_3fmt5Debug3fmt
libmozjs128-debug.so:_RNvXs1t_NtNtCs9ZIvzb94SJx_4core3num7nonzeroINtB6_7NonZerojENtNtNtBa_3str6traits7FromStr8from_str
libmozjs128-debug.so:_RNvXs1t_NtNtCs9ZIvzb94SJx_4core4sync6atomicNtB6_11AtomicUsizeNtNtBa_3fmt5Debug3fmt
libmozjs128-debug.so:_RNvXs1u_NtCsk6apSIyUfCg_3std4pathNtB6_16StripPrefixErrorNtNtCs9ZIvzb94SJx_4core3fmt7Display3fmt
libmozjs128-debug.so:_RNvXs1w_NtCsk6apSIyUfCg_3std4pathNtB6_14NormalizeErrorNtNtCs9ZIvzb94SJx_4core3fmt7Display3fmt
libmozjs128-debug.so:_RNvXs1y_NtNtCs9ZIvzb94SJx_4core3num11niche_typesNtB6_16NonZeroI128InnerNtNtBa_3fmt5Debug3fmt
libmozjs128-debug.so:_RNvXs20_NtNtCs9ZIvzb94SJx_4core3str4iterNtB6_11EscapeDebugNtNtBa_3fmt7Display3fmt
libmozjs128-debug.so:_RNvXs23_NtNtCs9ZIvzb94SJx_4core3str4iterNtB6_13EscapeDefaultNtNtBa_3fmt7Display3fmt
libmozjs128-debug.so:_RNvXs24_NtNtCs9ZIvzb94SJx_4core3num11niche_typesNtB6_13U32NotAllOnesNtNtBa_3fmt5Debug3fmt
libmozjs128-debug.so:_RNvXs26_NtNtCs9ZIvzb94SJx_4core3str4iterNtB6_13EscapeUnicodeNtNtBa_3fmt7Display3fmt
libmozjs128-debug.so:_RNvXs2A_NtNtCs9ZIvzb94SJx_4core3num11niche_typesNtB6_16NonZeroCharInnerNtNtBa_3fmt5Debug3fmt
libmozjs128-debug.so:_RNvXs2K_NtCsd97RIzLnxns_5gimli9constantsNtB6_12DwVirtualityNtNtCs9ZIvzb94SJx_4core3fmt7Display3fmt
libmozjs128-debug.so:_RNvXs2W_NtCsd97RIzLnxns_5gimli9constantsNtB6_6DwLangNtNtCs9ZIvzb94SJx_4core3fmt7Display3fmt
libmozjs128-debug.so:_RNvXs2_CsglvZrah94c3_14rustc_demangleNtB5_8DemangleNtNtCs9ZIvzb94SJx_4core3fmt5Debug3fmt
libmozjs128-debug.so:_RNvXs2_NtCs4z76MhC0nbo_5alloc11collectionsNtB5_15TryReserveErrorNtNtCs9ZIvzb94SJx_4core3fmt7Display3fmt
libmozjs128-debug.so:_RNvXs2_NtCs9ZIvzb94SJx_4core4bstrNtB5_7ByteStrNtNtB7_3fmt5Debug3fmt
libmozjs128-debug.so:_RNvXs2_NtCs9ZIvzb94SJx_4core4charNtB5_13EscapeUnicodeNtNtB7_3fmt7Display3fmt
libmozjs128-debug.so:_RNvXs2_NtCs9ZIvzb94SJx_4core4wtf8NtB5_4Wtf8NtNtB7_3fmt7Display3fmt
libmozjs128-debug.so:_RNvXs2_NtCsd97RIzLnxns_5gimli9constantsNtB5_6DwSectNtNtCs9ZIvzb94SJx_4core3fmt7Display3fmt
libmozjs128-debug.so:_RNvXs2_NtCsk6apSIyUfCg_3std3envNtB5_8VarErrorNtNtCs9ZIvzb94SJx_4core3fmt7Display3fmt
libmozjs128-debug.so:_RNvXs2_NtCsk6apSIyUfCg_3std4timeNtB5_7InstantINtNtNtCs9ZIvzb94SJx_4core3ops5arith9SubAssignNtNtBO_4time8DurationE10sub_assign
libmozjs128-debug.so:_RNvXs2_NtCsk6apSIyUfCg_3std7processNtB5_5ChildNtNtCs9ZIvzb94SJx_4core3fmt5Debug3fmt
libmozjs128-debug.so:_RNvXs2_NtNtCs4z76MhC0nbo_5alloc3ffi5c_strNtB5_7CStringNtNtCs9ZIvzb94SJx_4core3fmt5Debug3fmt
libmozjs128-debug.so:_RNvXs2_NtNtCs9ZIvzb94SJx_4core3fmt3numjNtB7_6Binary3fmt
libmozjs128-debug.so:_RNvXs2_NtNtCs9ZIvzb94SJx_4core3fmt5floatfNtB7_5Debug3fmt
libmozjs128-debug.so:_RNvXs2_NtNtCs9ZIvzb94SJx_4core3net6parserNtNtB7_7ip_addr8Ipv4AddrNtNtNtB9_3str6traits7FromStr8from_str
libmozjs128-debug.so:_RNvXs2_NtNtCs9ZIvzb94SJx_4core3net7ip_addrNtB5_6IpAddrNtNtB9_3fmt7Display3fmt
libmozjs128-debug.so:_RNvXs2_NtNtCs9ZIvzb94SJx_4core3num7dec2fltdNtNtNtB9_3str6traits7FromStr8from_str
libmozjs128-debug.so:_RNvXs2_NtNtCs9ZIvzb94SJx_4core3str5lossyNtB5_10Utf8ChunksNtNtNtNtB9_4iter6traits8iterator8Iterator4next
libmozjs128-debug.so:_RNvXs2_NtNtCs9ZIvzb94SJx_4core5slice3cmpNtNtNtCsd97RIzLnxns_5gimli4read6abbrev22AttributeSpecificationINtB5_14SlicePartialEqBC_E17equal_same_lengthBI_
libmozjs128-debug.so:_RNvXs2_NtNtCs9ZIvzb94SJx_4core5slice5asciiNtB5_11EscapeAsciiNtNtB9_3fmt7Display3fmt
libmozjs128-debug.so:_RNvXs2_NtNtCsd97RIzLnxns_5gimli4read12endian_sliceNtB5_10DebugBytesNtNtCs9ZIvzb94SJx_4core3fmt5Debug3fmt
libmozjs128-debug.so:_RNvXs2_NtNtCshlECYyjYKiK_6object4read4utilNtB5_10ByteStringNtNtCs9ZIvzb94SJx_4core3fmt5Debug3fmt
libmozjs128-debug.so:_RNvXs2_NtNtCshlECYyjYKiK_6object4read7archiveNtB5_21ArchiveSymbolIteratorNtNtNtNtCs9ZIvzb94SJx_4core4iter6traits8iterator8Iterator4next
libmozjs128-debug.so:_RNvXs2_NtNtCshlECYyjYKiK_6object4read7archiveNtB5_21ArchiveSymbolIteratorNtNtNtNtCs9ZIvzb94SJx_4core4iter6traits8iterator8Iterator9size_hint
libmozjs128-debug.so:_RNvXs2_NtNtCsk6apSIyUfCg_3std12backtrace_rs9symbolizeNtB5_10SymbolNameNtNtCs9ZIvzb94SJx_4core3fmt7Display3fmt
libmozjs128-debug.so:_RNvXs2_NtNtCsk6apSIyUfCg_3std2io5stdioNtB5_5StdinNtNtCs9ZIvzb94SJx_4core3fmt5Debug3fmt
libmozjs128-debug.so:_RNvXs2_NtNtCsk6apSIyUfCg_3std3net3tcpRNtB5_9TcpStreamNtNtB9_2io5Write14write_vectored
libmozjs128-debug.so:_RNvXs2_NtNtCsk6apSIyUfCg_3std3net3tcpRNtB5_9TcpStreamNtNtB9_2io5Write5write
libmozjs128-debug.so:_RNvXs2_NtNtCsk6apSIyUfCg_3std3net3udpNtB5_9UdpSocketNtNtCs9ZIvzb94SJx_4core3fmt5Debug3fmt
libmozjs128-debug.so:_RNvXs2_NtNtCsk6apSIyUfCg_3std6thread6scopedNtB5_5ScopeNtNtCs9ZIvzb94SJx_4core3fmt5Debug3fmt
libmozjs128-debug.so:_RNvXs2_NtNtNtCs9ZIvzb94SJx_4core3num6bignum5testsNtB5_6Big8x3NtNtBb_3cmp3Ord3cmp
libmozjs128-debug.so:_RNvXs2_NtNtNtCsk6apSIyUfCg_3std12backtrace_rs9backtrace9libunwindNtB5_4BombNtNtNtCs9ZIvzb94SJx_4core3ops4drop4Drop4drop
libmozjs128-debug.so:_RNvXs2_NtNtNtCsk6apSIyUfCg_3std2io8buffered9bufwriterNtB5_14WriterPanickedNtNtCs9ZIvzb94SJx_4core3fmt7Display3fmt
libmozjs128-debug.so:_RNvXs2_NtNtNtCsk6apSIyUfCg_3std2os4unix2ioNtNtNtBb_2io5stdio6StderrNtB5_8StdioExt7take_fd
libmozjs128-debug.so:_RNvXs2_NtNtNtCsk6apSIyUfCg_3std3sys3env6commonNtB5_3EnvNtNtNtNtCs9ZIvzb94SJx_4core4iter6traits8iterator8Iterator4next
libmozjs128-debug.so:_RNvXs2_NtNtNtCsk6apSIyUfCg_3std3sys3env6commonNtB5_3EnvNtNtNtNtCs9ZIvzb94SJx_4core4iter6traits8iterator8Iterator9size_hint
libmozjs128-debug.so:_RNvXs2_NtNtNtCsk6apSIyUfCg_3std3sys4time4unixNtB5_7InstantNtNtCs9ZIvzb94SJx_4core3fmt5Debug3fmt
libmozjs128-debug.so:_RNvXs2_NtNtNtCsk6apSIyUfCg_3std3sys6os_str5bytesNtB5_3BufNtNtCs9ZIvzb94SJx_4core3fmt7Display3fmt
libmozjs128-debug.so:_RNvXs2_NtNtNtNtCsk6apSIyUfCg_3std2os4unix3net6streamRNtB5_10UnixStreamNtNtBd_2io4Read13read_vectored
libmozjs128-debug.so:_RNvXs2_NtNtNtNtCsk6apSIyUfCg_3std2os4unix3net6streamRNtB5_10UnixStreamNtNtBd_2io4Read4read
libmozjs128-debug.so:_RNvXs2_NtNtNtNtCsk6apSIyUfCg_3std2os4unix3net6streamRNtB5_10UnixStreamNtNtBd_2io4Read8read_buf
libmozjs128-debug.so:_RNvXs2_NtNtNtNtCsk6apSIyUfCg_3std2os4unix3net9ancillaryNtB5_14ScmCredentialsNtNtNtNtCs9ZIvzb94SJx_4core4iter6traits8iterator8Iterator4next
libmozjs128-debug.so:_RNvXs2_NtNtNtNtCsk6apSIyUfCg_3std3sys2fs4unix3dirNtNtBd_2fs3DirNtNtNtNtBd_2os2fd3raw9FromRawFd11from_raw_fd
libmozjs128-debug.so:_RNvXs2_NtNtNtNtCsk6apSIyUfCg_3std3sys3net10connection6socketNtB5_10LookupHostNtNtNtCs9ZIvzb94SJx_4core3ops4drop4Drop4drop
libmozjs128-debug.so:_RNvXs2_NtNtNtNtNtCsk6apSIyUfCg_3std3sys3net10connection6socket4unixNtB5_6SocketNtNtNtNtBf_2os2fd5owned4AsFd5as_fd
libmozjs128-debug.so:_RNvXs2_NtNtNtNtNtCsk6apSIyUfCg_3std3sys3pal4unix5linux5pidfdNtB5_5PidFdNtNtNtNtBf_2os2fd3raw9FromRawFd11from_raw_fd
libmozjs128-debug.so:_RNvXs2_NvNtCsk6apSIyUfCg_3std9panicking13panic_handlerNtB5_16StaticStrPayloadNtNtCs9ZIvzb94SJx_4core3fmt7Display3fmt
libmozjs128-debug.so:_RNvXs2a_NtCsd97RIzLnxns_5gimli9constantsNtB6_5DwEndNtNtCs9ZIvzb94SJx_4core3fmt7Display3fmt
libmozjs128-debug.so:_RNvXs2c_NtNtCs9ZIvzb94SJx_4core3num11niche_typesNtB6_13I32NotAllOnesNtNtBa_3fmt5Debug3fmt
libmozjs128-debug.so:_RNvXs2k_NtNtCs9ZIvzb94SJx_4core3num11niche_typesNtB6_13U64NotAllOnesNtNtBa_3fmt5Debug3fmt
libmozjs128-debug.so:_RNvXs2m_NtCsd97RIzLnxns_5gimli9constantsNtB6_8DwAccessNtNtCs9ZIvzb94SJx_4core3fmt7Display3fmt
libmozjs128-debug.so:_RNvXs2s_NtNtCs9ZIvzb94SJx_4core3num11niche_typesNtB6_13I64NotAllOnesNtNtBa_3fmt5Debug3fmt
libmozjs128-debug.so:_RNvXs2y_NtCsd97RIzLnxns_5gimli9constantsNtB6_5DwVisNtNtCs9ZIvzb94SJx_4core3fmt7Display3fmt
libmozjs128-debug.so:_RNvXs38_NtCsd97RIzLnxns_5gimli9constantsNtB6_6DwAddrNtNtCs9ZIvzb94SJx_4core3fmt7Display3fmt
libmozjs128-debug.so:_RNvXs3A_NtNtCs9ZIvzb94SJx_4core3num11niche_typesNtB6_14CodePointInnerNtNtBa_3fmt5Debug3fmt
libmozjs128-debug.so:_RNvXs3I_NtCsd97RIzLnxns_5gimli9constantsNtB6_5DwInlNtNtCs9ZIvzb94SJx_4core3fmt7Display3fmt
libmozjs128-debug.so:_RNvXs3U_NtCsd97RIzLnxns_5gimli9constantsNtB6_5DwOrdNtNtCs9ZIvzb94SJx_4core3fmt7Display3fmt
libmozjs128-debug.so:_RNvXs3_NtCs9ZIvzb94SJx_4core4bstrNtB5_7ByteStrNtNtB7_3fmt7Display3fmt
libmozjs128-debug.so:_RNvXs3_NtCs9ZIvzb94SJx_4core5asciiNtB5_13EscapeDefaultNtNtB7_3fmt7Display3fmt
libmozjs128-debug.so:_RNvXs3_NtCsk6apSIyUfCg_3std4timeNtB5_7InstantNtNtNtCs9ZIvzb94SJx_4core3ops5arith3Sub3sub
libmozjs128-debug.so:_RNvXs3_NtCsk6apSIyUfCg_3std7processNtB5_10ChildStdinNtNtB7_2io5Write14write_vectored
libmozjs128-debug.so:_RNvXs3_NtCsk6apSIyUfCg_3std7processNtB5_10ChildStdinNtNtB7_2io5Write5write
libmozjs128-debug.so:_RNvXs3_NtNtCs9ZIvzb94SJx_4core3fmt3numiNtB7_6Binary3fmt
libmozjs128-debug.so:_RNvXs3_NtNtCs9ZIvzb94SJx_4core3fmt5floatfNtB7_7Display3fmt
libmozjs128-debug.so:_RNvXs3_NtNtCs9ZIvzb94SJx_4core3net7ip_addrNtB5_6IpAddrNtNtB9_3fmt5Debug3fmt
libmozjs128-debug.so:_RNvXs3_NtNtCs9ZIvzb94SJx_4core3num5errorNtB5_13ParseIntErrorNtNtB9_3fmt7Display3fmt
libmozjs128-debug.so:_RNvXs3_NtNtCs9ZIvzb94SJx_4core5panic8locationNtB5_8LocationNtNtB9_3fmt5Debug3fmt
libmozjs128-debug.so:_RNvXs3_NtNtCs9ZIvzb94SJx_4core5slice5asciiNtB5_11EscapeAsciiNtNtB9_3fmt5Debug3fmt
libmozjs128-debug.so:_RNvXs3_NtNtCsd97RIzLnxns_5gimli4read12endian_sliceNtB5_9DebugByteNtNtCs9ZIvzb94SJx_4core3fmt5Debug3fmt
libmozjs128-debug.so:_RNvXs3_NtNtCsk6apSIyUfCg_3std12backtrace_rs9symbolizeNtB5_10SymbolNameNtNtCs9ZIvzb94SJx_4core3fmt5Debug3fmt
libmozjs128-debug.so:_RNvXs3_NtNtCsk6apSIyUfCg_3std2io5errorNtB5_9ErrorKindNtNtCs9ZIvzb94SJx_4core3fmt7Display3fmt
libmozjs128-debug.so:_RNvXs3_NtNtCsk6apSIyUfCg_3std2io5stdioNtB5_5StdinNtB7_4Read10read_exact
libmozjs128-debug.so:_RNvXs3_NtNtCsk6apSIyUfCg_3std2io5stdioNtB5_5StdinNtB7_4Read11read_to_end
libmozjs128-debug.so:_RNvXs3_NtNtCsk6apSIyUfCg_3std2io5stdioNtB5_5StdinNtB7_4Read13read_vectored
libmozjs128-debug.so:_RNvXs3_NtNtCsk6apSIyUfCg_3std2io5stdioNtB5_5StdinNtB7_4Read14read_buf_exact
libmozjs128-debug.so:_RNvXs3_NtNtCsk6apSIyUfCg_3std2io5stdioNtB5_5StdinNtB7_4Read14read_to_string
libmozjs128-debug.so:_RNvXs3_NtNtCsk6apSIyUfCg_3std2io5stdioNtB5_5StdinNtB7_4Read4read
libmozjs128-debug.so:_RNvXs3_NtNtCsk6apSIyUfCg_3std2io5stdioNtB5_5StdinNtB7_4Read8read_buf
libmozjs128-debug.so:_RNvXs3_NtNtCsk6apSIyUfCg_3std4sync4onceNtB5_9OnceStateNtNtCs9ZIvzb94SJx_4core3fmt5Debug3fmt
libmozjs128-debug.so:_RNvXs3_NtNtNtCs9ZIvzb94SJx_4core3fmt3num3imptNtB9_7Display3fmt
libmozjs128-debug.so:_RNvXs3_NtNtNtCs9ZIvzb94SJx_4core4iter8adapters3zipINtB5_3ZipINtNtNtBb_5slice4iter4ItertEINtBZ_7IterMutmEEINtB5_7ZipImplBW_B1o_E3newCsdIMhsiQnxUU_11miniz_oxide
libmozjs128-debug.so:_RNvXs3_NtNtNtCsk6apSIyUfCg_3std2io8buffered9bufwriterNtB5_14WriterPanickedNtNtCs9ZIvzb94SJx_4core3fmt5Debug3fmt
libmozjs128-debug.so:_RNvXs3_NtNtNtCsk6apSIyUfCg_3std2os4unix2ioNtNtNtBb_2io5stdio10StderrLockNtB5_8StdioExt7take_fd
libmozjs128-debug.so:_RNvXs3_NtNtNtCsk6apSIyUfCg_3std2os5linux7processNtB5_5PidFdNtNtNtB9_2fd3raw9FromRawFd11from_raw_fd
libmozjs128-debug.so:_RNvXs3_NtNtNtCsk6apSIyUfCg_3std3sys2fd4unixNtB5_8FileDescNtNtNtNtBb_2os2fd5owned4AsFd5as_fd
libmozjs128-debug.so:_RNvXs3_NtNtNtCsk6apSIyUfCg_3std3sys5stdio4unixNtB5_6StderrNtNtBb_2io5Write14write_vectored
libmozjs128-debug.so:_RNvXs3_NtNtNtCsk6apSIyUfCg_3std3sys5stdio4unixNtB5_6StderrNtNtBb_2io5Write5write
libmozjs128-debug.so:_RNvXs3_NtNtNtCsk6apSIyUfCg_3std3sys6os_str5bytesNtB5_5SliceNtNtCs9ZIvzb94SJx_4core3fmt5Debug3fmt
libmozjs128-debug.so:_RNvXs3_NtNtNtNtCsk6apSIyUfCg_3std2os4unix3net6streamNtB5_10UnixStreamNtNtBd_2io5Write14write_vectored
libmozjs128-debug.so:_RNvXs3_NtNtNtNtCsk6apSIyUfCg_3std2os4unix3net6streamNtB5_10UnixStreamNtNtBd_2io5Write5write
libmozjs128-debug.so:_RNvXs3_NtNtNtNtCsk6apSIyUfCg_3std3sys2fs4unix3dirNtNtBd_2fs3DirNtNtNtNtBd_2os2fd5owned4AsFd5as_fd
libmozjs128-debug.so:_RNvXs3_NtNtNtNtCsk6apSIyUfCg_3std3sys2io11kernel_copy5linuxNtNtBd_2fs4FileNtB5_8CopyRead10properties
libmozjs128-debug.so:_RNvXs3_NtNtNtNtCsk6apSIyUfCg_3std3sys7process4unix4unixNtB5_10ExitStatusNtNtCs9ZIvzb94SJx_4core3fmt7Display3fmt
libmozjs128-debug.so:_RNvXs3_NtNtNtNtNtCsk6apSIyUfCg_3std3sys7process4unix6common13cstring_arrayNtB5_12CStringArrayNtNtNtCs9ZIvzb94SJx_4core3ops4drop4Drop4drop
libmozjs128-debug.so:_RNvXs3k_NtCsd97RIzLnxns_5gimli9constantsNtB6_4DwIdNtNtCs9ZIvzb94SJx_4core3fmt7Display3fmt
libmozjs128-debug.so:_RNvXs3w_NtCsd97RIzLnxns_5gimli9constantsNtB6_4DwCcNtNtCs9ZIvzb94SJx_4core3fmt7Display3fmt
libmozjs128-debug.so:_RNvXs46_NtCsd97RIzLnxns_5gimli9constantsNtB6_5DwDscNtNtCs9ZIvzb94SJx_4core3fmt7Display3fmt
libmozjs128-debug.so:_RNvXs4G_NtCsd97RIzLnxns_5gimli9constantsNtB6_5DwLnsNtNtCs9ZIvzb94SJx_4core3fmt7Display3fmt
libmozjs128-debug.so:_RNvXs4S_NtCsd97RIzLnxns_5gimli9constantsNtB6_5DwLneNtNtCs9ZIvzb94SJx_4core3fmt7Display3fmt
libmozjs128-debug.so:_RNvXs4_NtCs4z76MhC0nbo_5alloc6stringNtB5_6StringNtNtCs9ZIvzb94SJx_4core5clone5Clone10clone_from
libmozjs128-debug.so:_RNvXs4_NtCs4z76MhC0nbo_5alloc6stringNtB5_6StringNtNtCs9ZIvzb94SJx_4core5clone5Clone5clone
libmozjs128-debug.so:_RNvXs4_NtCs9ZIvzb94SJx_4core3pataNtB5_12RangePattern7sub_one
libmozjs128-debug.so:_RNvXs4_NtCs9ZIvzb94SJx_4core5asciiNtB5_13EscapeDefaultNtNtB7_3fmt5Debug3fmt
libmozjs128-debug.so:_RNvXs4_NtCs9ZIvzb94SJx_4core5errorNtB5_7RequestNtNtB7_3fmt5Debug3fmt
libmozjs128-debug.so:_RNvXs4_NtCshlECYyjYKiK_6object4readNtB5_12SectionIndexNtNtCs9ZIvzb94SJx_4core3fmt7Display3fmt
libmozjs128-debug.so:_RNvXs4_NtCsk6apSIyUfCg_3std3envNtB5_10SplitPathsNtNtNtNtCs9ZIvzb94SJx_4core4iter6traits8iterator8Iterator4next
libmozjs128-debug.so:_RNvXs4_NtCsk6apSIyUfCg_3std4timeNtB5_7InstantNtNtCs9ZIvzb94SJx_4core3fmt5Debug3fmt
libmozjs128-debug.so:_RNvXs4_NtCsk6apSIyUfCg_3std7processRNtB5_10ChildStdinNtNtB7_2io5Write14write_vectored
libmozjs128-debug.so:_RNvXs4_NtCsk6apSIyUfCg_3std7processRNtB5_10ChildStdinNtNtB7_2io5Write5write
libmozjs128-debug.so:_RNvXs4_NtCsk6apSIyUfCg_3std9backtraceNtB5_9BacktraceNtNtCs9ZIvzb94SJx_4core3fmt7Display3fmt
libmozjs128-debug.so:_RNvXs4_NtNtCs4vvGeN3ANz4_6memchr6memmem8searcherNtB5_9PrefilterNtNtCs9ZIvzb94SJx_4core3fmt5Debug3fmt
libmozjs128-debug.so:_RNvXs4_NtNtCs4z76MhC0nbo_5alloc3ffi5c_strNtB5_7CStringNtNtCs9ZIvzb94SJx_4core7default7Default7default
libmozjs128-debug.so:_RNvXs4_NtNtCs9ZIvzb94SJx_4core3fmt3numjNtB7_5Octal3fmt
libmozjs128-debug.so:_RNvXs4_NtNtCs9ZIvzb94SJx_4core3fmt5floatfNtB7_8LowerExp3fmt
libmozjs128-debug.so:_RNvXs4_NtNtCs9ZIvzb94SJx_4core3net11socket_addrNtB5_10SocketAddrNtNtB9_3fmt7Display3fmt
libmozjs128-debug.so:_RNvXs4_NtNtCs9ZIvzb94SJx_4core3net6parserNtNtB7_7ip_addr8Ipv6AddrNtNtNtB9_3str6traits7FromStr8from_str
libmozjs128-debug.so:_RNvXs4_NtNtCs9ZIvzb94SJx_4core3str5lossyNtB5_10Utf8ChunksNtNtB9_3fmt5Debug3fmt
libmozjs128-debug.so:_RNvXs4_NtNtCsd97RIzLnxns_5gimli4read12endian_sliceNtB5_8DebugLenNtNtCs9ZIvzb94SJx_4core3fmt5Debug3fmt
libmozjs128-debug.so:_RNvXs4_NtNtCsk6apSIyUfCg_3std2io4copyINtNtCs4z76MhC0nbo_5alloc3vec3VechENtB5_18BufferedWriterSpec11buffer_size
libmozjs128-debug.so:_RNvXs4_NtNtCsk6apSIyUfCg_3std2io4pipeRNtB5_10PipeReaderNtB7_4Read11read_to_end
libmozjs128-debug.so:_RNvXs4_NtNtCsk6apSIyUfCg_3std2io4pipeRNtB5_10PipeReaderNtB7_4Read13read_vectored
libmozjs128-debug.so:_RNvXs4_NtNtCsk6apSIyUfCg_3std2io4pipeRNtB5_10PipeReaderNtB7_4Read4read
libmozjs128-debug.so:_RNvXs4_NtNtCsk6apSIyUfCg_3std2io4pipeRNtB5_10PipeReaderNtB7_4Read8read_buf
libmozjs128-debug.so:_RNvXs4_NtNtCsk6apSIyUfCg_3std2io5stdioRNtB5_5StdinNtB7_4Read10read_exact
libmozjs128-debug.so:_RNvXs4_NtNtCsk6apSIyUfCg_3std2io5stdioRNtB5_5StdinNtB7_4Read11read_to_end
libmozjs128-debug.so:_RNvXs4_NtNtCsk6apSIyUfCg_3std2io5stdioRNtB5_5StdinNtB7_4Read13read_vectored
libmozjs128-debug.so:_RNvXs4_NtNtCsk6apSIyUfCg_3std2io5stdioRNtB5_5StdinNtB7_4Read14read_buf_exact
libmozjs128-debug.so:_RNvXs4_NtNtCsk6apSIyUfCg_3std2io5stdioRNtB5_5StdinNtB7_4Read14read_to_string
libmozjs128-debug.so:_RNvXs4_NtNtCsk6apSIyUfCg_3std2io5stdioRNtB5_5StdinNtB7_4Read4read
libmozjs128-debug.so:_RNvXs4_NtNtCsk6apSIyUfCg_3std2io5stdioRNtB5_5StdinNtB7_4Read8read_buf
libmozjs128-debug.so:_RNvXs4_NtNtCsk6apSIyUfCg_3std3net11socket_addrTRetENtB5_13ToSocketAddrs15to_socket_addrs
libmozjs128-debug.so:_RNvXs4_NtNtCsk6apSIyUfCg_3std4hash6randomNtB5_11RandomStateNtNtCs9ZIvzb94SJx_4core3fmt5Debug3fmt
libmozjs128-debug.so:_RNvXs4_NtNtNtCs9ZIvzb94SJx_4core3fmt3num3impsNtB9_7Display3fmt
libmozjs128-debug.so:_RNvXs4_NtNtNtCsk6apSIyUfCg_3std3sys6os_str5bytesNtB5_5SliceNtNtCs9ZIvzb94SJx_4core3fmt7Display3fmt
libmozjs128-debug.so:_RNvXs4_NtNtNtNtCsk6apSIyUfCg_3std2os4unix3net6streamRNtB5_10UnixStreamNtNtBd_2io5Write14write_vectored
libmozjs128-debug.so:_RNvXs4_NtNtNtNtCsk6apSIyUfCg_3std2os4unix3net6streamRNtB5_10UnixStreamNtNtBd_2io5Write5write
libmozjs128-debug.so:_RNvXs4_NtNtNtNtCsk6apSIyUfCg_3std2os4unix3net9ancillaryNtB5_8MessagesNtNtNtNtCs9ZIvzb94SJx_4core4iter6traits8iterator8Iterator4next
libmozjs128-debug.so:_RNvXs4_NtNtNtNtCsk6apSIyUfCg_3std3sys2io11kernel_copy5linuxRNtNtBd_2fs4FileNtB5_8CopyRead10properties
libmozjs128-debug.so:_RNvXs4_NtNtNtNtNtCsk6apSIyUfCg_3std3sys7process4unix6common13cstring_arrayNtB5_11CStringIterNtNtNtNtCs9ZIvzb94SJx_4core4iter6traits8iterator8Iterator4next
libmozjs128-debug.so:_RNvXs4_NtNtNtNtNtCsk6apSIyUfCg_3std3sys7process4unix6common13cstring_arrayNtB5_11CStringIterNtNtNtNtCs9ZIvzb94SJx_4core4iter6traits8iterator8Iterator9size_hint
libmozjs128-debug.so:_RNvXs4i_NtCsd97RIzLnxns_5gimli9constantsNtB6_5DwIdxNtNtCs9ZIvzb94SJx_4core3fmt7Display3fmt
libmozjs128-debug.so:_RNvXs4u_NtCsd97RIzLnxns_5gimli9constantsNtB6_11DwDefaultedNtNtCs9ZIvzb94SJx_4core3fmt7Display3fmt
libmozjs128-debug.so:_RNvXs54_NtCsd97RIzLnxns_5gimli9constantsNtB6_6DwLnctNtNtCs9ZIvzb94SJx_4core3fmt7Display3fmt
libmozjs128-debug.so:_RNvXs5E_NtCsd97RIzLnxns_5gimli9constantsNtB6_5DwRleNtNtCs9ZIvzb94SJx_4core3fmt7Display3fmt
libmozjs128-debug.so:_RNvXs5Q_NtCsd97RIzLnxns_5gimli9constantsNtB6_4DwOpNtNtCs9ZIvzb94SJx_4core3fmt7Display3fmt
libmozjs128-debug.so:_RNvXs5_NtCs9ZIvzb94SJx_4core3patsNtB5_12RangePattern7sub_one
libmozjs128-debug.so:_RNvXs5_NtCshlECYyjYKiK_6object4readNtB5_11SymbolIndexNtNtCs9ZIvzb94SJx_4core3fmt7Display3fmt
libmozjs128-debug.so:_RNvXs5_NtCsk6apSIyUfCg_3std3envNtB5_10SplitPathsNtNtCs9ZIvzb94SJx_4core3fmt5Debug3fmt
libmozjs128-debug.so:_RNvXs5_NtNtCs9ZIvzb94SJx_4core3fmt3numiNtB7_5Octal3fmt
libmozjs128-debug.so:_RNvXs5_NtNtCs9ZIvzb94SJx_4core3fmt5floatfNtB7_8UpperExp3fmt
libmozjs128-debug.so:_RNvXs5_NtNtCs9ZIvzb94SJx_4core3net11socket_addrNtB5_10SocketAddrNtNtB9_3fmt5Debug3fmt
libmozjs128-debug.so:_RNvXs5_NtNtCs9ZIvzb94SJx_4core3num6bignumNtB5_8Big32x40NtNtB9_3cmp10PartialOrd11partial_cmp
libmozjs128-debug.so:_RNvXs5_NtNtCs9ZIvzb94SJx_4core6marker8varianceNtB5_28PhantomContravariantLifetimeNtNtB9_3fmt5Debug3fmt
libmozjs128-debug.so:_RNvXs5_NtNtCsk6apSIyUfCg_3std2io4pipeNtB5_10PipeReaderNtB7_4Read11read_to_end
libmozjs128-debug.so:_RNvXs5_NtNtCsk6apSIyUfCg_3std2io4pipeNtB5_10PipeReaderNtB7_4Read13read_vectored
libmozjs128-debug.so:_RNvXs5_NtNtCsk6apSIyUfCg_3std2io4pipeNtB5_10PipeReaderNtB7_4Read4read
libmozjs128-debug.so:_RNvXs5_NtNtCsk6apSIyUfCg_3std2io4pipeNtB5_10PipeReaderNtB7_4Read8read_buf
libmozjs128-debug.so:_RNvXs5_NtNtCsk6apSIyUfCg_3std3net11socket_addrTNtNtCs4z76MhC0nbo_5alloc6string6StringtENtB5_13ToSocketAddrs15to_socket_addrs
libmozjs128-debug.so:_RNvXs5_NtNtNtCs9ZIvzb94SJx_4core3num6bignum5testsNtB5_6Big8x3NtNtBb_3fmt5Debug3fmt
libmozjs128-debug.so:_RNvXs5_NtNtNtCsk6apSIyUfCg_3std2os4unix2fsNtNtBb_2fs8DirEntryNtB5_12DirEntryExt213file_name_ref
libmozjs128-debug.so:_RNvXs5_NtNtNtCsk6apSIyUfCg_3std2os5linux7processNtB5_5PidFdNtNtNtB9_2fd5owned4AsFd5as_fd
libmozjs128-debug.so:_RNvXs5_NtNtNtNtCsk6apSIyUfCg_3std3sys2io11kernel_copy5linuxNtNtBd_2fs4FileNtB5_9CopyWrite10properties
libmozjs128-debug.so:_RNvXs5_NtNtNtNtCsk6apSIyUfCg_3std3sys7process4unix4unixNtB5_15ExitStatusErrorNtNtCs9ZIvzb94SJx_4core3fmt5Debug3fmt
libmozjs128-debug.so:_RNvXs5_NtNtNtNtNtCsk6apSIyUfCg_3std3sys3net10connection6socket4unixNtB5_6SocketNtNtNtNtBf_2os2fd3raw9FromRawFd11from_raw_fd
libmozjs128-debug.so:_RNvXs5_NtNtNtNtNtCsk6apSIyUfCg_3std3sys7process4unix6common13cstring_arrayNtB5_11CStringIterNtNtNtNtCs9ZIvzb94SJx_4core4iter6traits10exact_size17ExactSizeIterator3len
libmozjs128-debug.so:_RNvXs5g_NtCsd97RIzLnxns_5gimli9constantsNtB6_9DwMacinfoNtNtCs9ZIvzb94SJx_4core3fmt7Display3fmt
libmozjs128-debug.so:_RNvXs5s_NtCsd97RIzLnxns_5gimli9constantsNtB6_7DwMacroNtNtCs9ZIvzb94SJx_4core3fmt7Display3fmt
libmozjs128-debug.so:_RNvXs62_NtCsd97RIzLnxns_5gimli9constantsNtB6_6DwEhPeNtNtCs9ZIvzb94SJx_4core3fmt7Display3fmt
libmozjs128-debug.so:_RNvXs6_NtCs9ZIvzb94SJx_4core3patlNtB5_12RangePattern7sub_one
libmozjs128-debug.so:_RNvXs6_NtCsk6apSIyUfCg_3std2fsNtB5_4FileNtNtCs9ZIvzb94SJx_4core3fmt5Debug3fmt
libmozjs128-debug.so:_RNvXs6_NtCsk6apSIyUfCg_3std3envNtB5_14JoinPathsErrorNtNtCs9ZIvzb94SJx_4core3fmt7Display3fmt
libmozjs128-debug.so:_RNvXs6_NtCsk6apSIyUfCg_3std4timeNtB5_10SystemTimeINtNtNtCs9ZIvzb94SJx_4core3ops5arith3AddNtNtBS_4time8DurationE3add
libmozjs128-debug.so:_RNvXs6_NtNtCs9ZIvzb94SJx_4core3fmt3numjNtB7_8LowerHex3fmt
libmozjs128-debug.so:_RNvXs6_NtNtCs9ZIvzb94SJx_4core3fmt5floatdNtB7_5Debug3fmt
libmozjs128-debug.so:_RNvXs6_NtNtCs9ZIvzb94SJx_4core3net11socket_addrNtB5_12SocketAddrV4NtNtB9_3fmt7Display3fmt
libmozjs128-debug.so:_RNvXs6_NtNtCs9ZIvzb94SJx_4core3net6parserNtNtB7_11socket_addr12SocketAddrV4NtNtNtB9_3str6traits7FromStr8from_str
libmozjs128-debug.so:_RNvXs6_NtNtCs9ZIvzb94SJx_4core3net7ip_addrNtB5_8Ipv4AddrNtNtB9_3fmt7Display3fmt
libmozjs128-debug.so:_RNvXs6_NtNtCs9ZIvzb94SJx_4core3num6bignumNtB5_8Big32x40NtNtB9_3cmp3Ord3cmp
libmozjs128-debug.so:_RNvXs6_NtNtCs9ZIvzb94SJx_4core4char7convertNtB5_14ParseCharErrorNtNtB9_3fmt7Display3fmt
libmozjs128-debug.so:_RNvXs6_NtNtCsk6apSIyUfCg_3std2io4pipeRNtB5_10PipeWriterNtB7_5Write14write_vectored
libmozjs128-debug.so:_RNvXs6_NtNtCsk6apSIyUfCg_3std2io4pipeRNtB5_10PipeWriterNtB7_5Write5write
libmozjs128-debug.so:_RNvXs6_NtNtCsk6apSIyUfCg_3std2io4utilNtB5_6RepeatNtNtCs9ZIvzb94SJx_4core3fmt5Debug3fmt
libmozjs128-debug.so:_RNvXs6_NtNtCsk6apSIyUfCg_3std2io5errorNtNtB5_14repr_bitpacked4ReprNtNtCs9ZIvzb94SJx_4core3fmt5Debug3fmt
libmozjs128-debug.so:_RNvXs6_NtNtCsk6apSIyUfCg_3std2io5stdioNtB5_9StdinLockNtB7_4Read10read_exact
libmozjs128-debug.so:_RNvXs6_NtNtCsk6apSIyUfCg_3std2io5stdioNtB5_9StdinLockNtB7_4Read11read_to_end
libmozjs128-debug.so:_RNvXs6_NtNtCsk6apSIyUfCg_3std2io5stdioNtB5_9StdinLockNtB7_4Read13read_vectored
libmozjs128-debug.so:_RNvXs6_NtNtCsk6apSIyUfCg_3std2io5stdioNtB5_9StdinLockNtB7_4Read14read_buf_exact
libmozjs128-debug.so:_RNvXs6_NtNtCsk6apSIyUfCg_3std2io5stdioNtB5_9StdinLockNtB7_4Read14read_to_string
libmozjs128-debug.so:_RNvXs6_NtNtCsk6apSIyUfCg_3std2io5stdioNtB5_9StdinLockNtB7_4Read4read
libmozjs128-debug.so:_RNvXs6_NtNtCsk6apSIyUfCg_3std2io5stdioNtB5_9StdinLockNtB7_4Read8read_buf
libmozjs128-debug.so:_RNvXs6_NtNtCsk6apSIyUfCg_3std3net11socket_addreNtB5_13ToSocketAddrs15to_socket_addrs
libmozjs128-debug.so:_RNvXs6_NtNtCsk6apSIyUfCg_3std3net3tcpNtB5_9TcpStreamNtNtCs9ZIvzb94SJx_4core3fmt5Debug3fmt
libmozjs128-debug.so:_RNvXs6_NtNtNtCshlECYyjYKiK_6object4read2pe6importNtB5_27DelayLoadDescriptorIteratorNtNtNtNtCs9ZIvzb94SJx_4core4iter6traits8iterator8Iterator4next
libmozjs128-debug.so:_RNvXs6_NtNtNtCshlECYyjYKiK_6object4read3elf10attributesNtB5_22AttributeIndexIteratorNtNtNtNtCs9ZIvzb94SJx_4core4iter6traits8iterator8Iterator4next
libmozjs128-debug.so:_RNvXs6_NtNtNtCsk6apSIyUfCg_3std2os2fd5ownedNtB5_10BorrowedFdNtNtCs9ZIvzb94SJx_4core3fmt5Debug3fmt
libmozjs128-debug.so:_RNvXs6_NtNtNtCsk6apSIyUfCg_3std3sys2fd4unixNtB5_8FileDescNtNtNtNtBb_2os2fd3raw9FromRawFd11from_raw_fd
libmozjs128-debug.so:_RNvXs6_NtNtNtNtCsk6apSIyUfCg_3std3sys2io11kernel_copy5linuxRNtNtBd_2fs4FileNtB5_9CopyWrite10properties
libmozjs128-debug.so:_RNvXs6_NtNtNtNtCsk6apSIyUfCg_3std3sys3net10connection6socketNtB5_9TcpStreamNtNtCs9ZIvzb94SJx_4core3fmt5Debug3fmt
libmozjs128-debug.so:_RNvXs6_NtNtNtNtCsk6apSIyUfCg_3std3sys7process4unix6commonNtB5_7CommandNtNtCs9ZIvzb94SJx_4core3fmt5Debug3fmt
libmozjs128-debug.so:_RNvXs7_NtCs9ZIvzb94SJx_4core3fmtNtB5_9ArgumentsNtB5_5Debug3fmt
libmozjs128-debug.so:_RNvXs7_NtCs9ZIvzb94SJx_4core3patxNtB5_12RangePattern7sub_one
libmozjs128-debug.so:_RNvXs7_NtCsk6apSIyUfCg_3std2fsRNtB5_4FileNtNtB7_2io4Read11read_to_end
libmozjs128-debug.so:_RNvXs7_NtCsk6apSIyUfCg_3std2fsRNtB5_4FileNtNtB7_2io4Read14read_to_string
libmozjs128-debug.so:_RNvXs7_NtCsk6apSIyUfCg_3std2ioNtB5_7IoSliceNtNtCs9ZIvzb94SJx_4core3fmt5Debug3fmt
libmozjs128-debug.so:_RNvXs7_NtCsk6apSIyUfCg_3std4pathNtB5_10ComponentsNtNtCs9ZIvzb94SJx_4core3fmt5Debug3fmt
libmozjs128-debug.so:_RNvXs7_NtCsk6apSIyUfCg_3std4timeNtB5_10SystemTimeINtNtNtCs9ZIvzb94SJx_4core3ops5arith9AddAssignNtNtBS_4time8DurationE10add_assign
libmozjs128-debug.so:_RNvXs7_NtNtCs4z76MhC0nbo_5alloc3ffi5c_strINtNtB9_5boxed3BoxNtNtNtCs9ZIvzb94SJx_4core3ffi5c_str4CStrEINtNtB11_7convert4FromRBV_E4from
libmozjs128-debug.so:_RNvXs7_NtNtCs9ZIvzb94SJx_4core3fmt3numiNtB7_8LowerHex3fmt
libmozjs128-debug.so:_RNvXs7_NtNtCs9ZIvzb94SJx_4core3fmt5floatdNtB7_7Display3fmt
libmozjs128-debug.so:_RNvXs7_NtNtCs9ZIvzb94SJx_4core3net11socket_addrNtB5_12SocketAddrV4NtNtB9_3fmt5Debug3fmt
libmozjs128-debug.so:_RNvXs7_NtNtCs9ZIvzb94SJx_4core3net7ip_addrNtB5_8Ipv4AddrNtNtB9_3fmt5Debug3fmt
libmozjs128-debug.so:_RNvXs7_NtNtCs9ZIvzb94SJx_4core4sync6atomicNtB5_10AtomicBoolNtNtB9_3fmt5Debug3fmt
libmozjs128-debug.so:_RNvXs7_NtNtCsd97RIzLnxns_5gimli4read6abbrevNtB5_10AttributesNtNtCs9ZIvzb94SJx_4core3fmt5Debug3fmt
libmozjs128-debug.so:_RNvXs7_NtNtCsk6apSIyUfCg_3std2io4pipeNtB5_10PipeWriterNtB7_5Write14write_vectored
libmozjs128-debug.so:_RNvXs7_NtNtCsk6apSIyUfCg_3std2io4pipeNtB5_10PipeWriterNtB7_5Write5write
libmozjs128-debug.so:_RNvXs7_NtNtCsk6apSIyUfCg_3std2io5errorNtB5_5ErrorNtNtCs9ZIvzb94SJx_4core3fmt7Display3fmt
libmozjs128-debug.so:_RNvXs7_NtNtNtCsk6apSIyUfCg_3std2os2fd5ownedNtB5_7OwnedFdNtNtCs9ZIvzb94SJx_4core3fmt5Debug3fmt
libmozjs128-debug.so:_RNvXs7_NtNtNtCsk6apSIyUfCg_3std3sys2fs4unixNtB5_8FileTypeNtNtCs9ZIvzb94SJx_4core3fmt5Debug3fmt
libmozjs128-debug.so:_RNvXs7_NtNtNtNtCsk6apSIyUfCg_3std2os4unix3net8listenerNtB5_8IncomingNtNtNtNtCs9ZIvzb94SJx_4core4iter6traits8iterator8Iterator4next
libmozjs128-debug.so:_RNvXs7_NtNtNtNtCsk6apSIyUfCg_3std3sys7process4unix6commonNtB5_8ExitCodeNtNtCs9ZIvzb94SJx_4core3fmt5Debug3fmt
libmozjs128-debug.so:_RNvXs8_NtCs9ZIvzb94SJx_4core3fmtNtB5_9ArgumentsNtB5_7Display3fmt
libmozjs128-debug.so:_RNvXs8_NtCs9ZIvzb94SJx_4core3patnNtB5_12RangePattern7sub_one
libmozjs128-debug.so:_RNvXs8_NtCs9ZIvzb94SJx_4core5errorNtB5_6SourceNtNtNtNtB7_4iter6traits8iterator8Iterator4next
libmozjs128-debug.so:_RNvXs8_NtCsk6apSIyUfCg_3std2fsRNtB5_4FileNtNtB7_2io5Write14write_vectored
libmozjs128-debug.so:_RNvXs8_NtCsk6apSIyUfCg_3std2fsRNtB5_4FileNtNtB7_2io5Write5write
libmozjs128-debug.so:_RNvXs8_NtCsk6apSIyUfCg_3std4timeNtB5_10SystemTimeINtNtNtCs9ZIvzb94SJx_4core3ops5arith3SubNtNtBS_4time8DurationE3sub
libmozjs128-debug.so:_RNvXs8_NtCsk6apSIyUfCg_3std7processNtB5_10ChildStdinNtNtCs9ZIvzb94SJx_4core3fmt5Debug3fmt
libmozjs128-debug.so:_RNvXs8_NtNtCs4z76MhC0nbo_5alloc3ffi5c_strINtNtB9_5boxed3BoxNtNtNtCs9ZIvzb94SJx_4core3ffi5c_str4CStrEINtNtB11_7convert4FromQBV_E4from
libmozjs128-debug.so:_RNvXs8_NtNtCs9ZIvzb94SJx_4core3fmt3numjNtB7_8UpperHex3fmt
libmozjs128-debug.so:_RNvXs8_NtNtCs9ZIvzb94SJx_4core3fmt5floatdNtB7_8LowerExp3fmt
libmozjs128-debug.so:_RNvXs8_NtNtCs9ZIvzb94SJx_4core3net11socket_addrNtB5_12SocketAddrV6NtNtB9_3fmt7Display3fmt
libmozjs128-debug.so:_RNvXs8_NtNtCs9ZIvzb94SJx_4core3net6parserNtNtB7_11socket_addr12SocketAddrV6NtNtNtB9_3str6traits7FromStr8from_str
libmozjs128-debug.so:_RNvXs8_NtNtCsd97RIzLnxns_5gimli4read6abbrevNtB5_10AttributesNtNtCs9ZIvzb94SJx_4core3cmp9PartialEq2eq
libmozjs128-debug.so:_RNvXs8_NtNtCsk6apSIyUfCg_3std2io5errorNtB5_5ErrorNtNtCs9ZIvzb94SJx_4core5error5Error5cause
libmozjs128-debug.so:_RNvXs8_NtNtCsk6apSIyUfCg_3std2io5errorNtB5_5ErrorNtNtCs9ZIvzb94SJx_4core5error5Error6source
libmozjs128-debug.so:_RNvXs8_NtNtCsk6apSIyUfCg_3std2io5stdioNtB5_9StdinLockNtB7_7BufRead10read_until
libmozjs128-debug.so:_RNvXs8_NtNtCsk6apSIyUfCg_3std2io5stdioNtB5_9StdinLockNtB7_7BufRead7consume
libmozjs128-debug.so:_RNvXs8_NtNtCsk6apSIyUfCg_3std2io5stdioNtB5_9StdinLockNtB7_7BufRead8fill_buf
libmozjs128-debug.so:_RNvXs8_NtNtCsk6apSIyUfCg_3std2io5stdioNtB5_9StdinLockNtB7_7BufRead9read_line
libmozjs128-debug.so:_RNvXs8_NtNtCsk6apSIyUfCg_3std3net3tcpNtB5_8IncomingNtNtNtNtCs9ZIvzb94SJx_4core4iter6traits8iterator8Iterator4next
libmozjs128-debug.so:_RNvXs8_NtNtNtCs9ZIvzb94SJx_4core3fmt3num3impmNtB9_7Display3fmt
libmozjs128-debug.so:_RNvXs9_NtCs9ZIvzb94SJx_4core3patiNtB5_12RangePattern7sub_one
libmozjs128-debug.so:_RNvXs9_NtCs9ZIvzb94SJx_4core5sliceNtB5_19GetDisjointMutErrorNtNtB7_3fmt7Display3fmt
libmozjs128-debug.so:_RNvXs9_NtCsk6apSIyUfCg_3std2fsRNtB5_4FileNtNtB7_2io4Seek10stream_len
libmozjs128-debug.so:_RNvXs9_NtCsk6apSIyUfCg_3std2fsRNtB5_4FileNtNtB7_2io4Seek15stream_position
libmozjs128-debug.so:_RNvXs9_NtCsk6apSIyUfCg_3std2fsRNtB5_4FileNtNtB7_2io4Seek4seek
libmozjs128-debug.so:_RNvXs9_NtCsk6apSIyUfCg_3std4timeNtB5_10SystemTimeINtNtNtCs9ZIvzb94SJx_4core3ops5arith9SubAssignNtNtBS_4time8DurationE10sub_assign
libmozjs128-debug.so:_RNvXs9_NtCsk6apSIyUfCg_3std7processNtB5_11ChildStdoutNtNtB7_2io4Read11read_to_end
libmozjs128-debug.so:_RNvXs9_NtCsk6apSIyUfCg_3std7processNtB5_11ChildStdoutNtNtB7_2io4Read13read_vectored
libmozjs128-debug.so:_RNvXs9_NtCsk6apSIyUfCg_3std7processNtB5_11ChildStdoutNtNtB7_2io4Read4read
libmozjs128-debug.so:_RNvXs9_NtCsk6apSIyUfCg_3std7processNtB5_11ChildStdoutNtNtB7_2io4Read8read_buf
libmozjs128-debug.so:_RNvXs9_NtNtCs9ZIvzb94SJx_4core3fmt3numiNtB7_8UpperHex3fmt
libmozjs128-debug.so:_RNvXs9_NtNtCs9ZIvzb94SJx_4core3fmt5floatdNtB7_8UpperExp3fmt
libmozjs128-debug.so:_RNvXs9_NtNtCs9ZIvzb94SJx_4core3net11socket_addrNtB5_12SocketAddrV6NtNtB9_3fmt5Debug3fmt
libmozjs128-debug.so:_RNvXs9_NtNtCs9ZIvzb94SJx_4core3num6bignumNtB5_8Big32x40NtNtB9_3fmt5Debug3fmt
libmozjs128-debug.so:_RNvXs9_NtNtCs9ZIvzb94SJx_4core4char7convertNtB5_16CharTryFromErrorNtNtB9_3fmt7Display3fmt
libmozjs128-debug.so:_RNvXs9_NtNtCs9ZIvzb94SJx_4core4task4wakeNtB5_5WakerNtNtB9_3fmt5Debug3fmt
libmozjs128-debug.so:_RNvXs9_NtNtCs9ZIvzb94SJx_4core6marker8varianceNtB5_24PhantomInvariantLifetimeNtNtB9_3fmt5Debug3fmt
libmozjs128-debug.so:_RNvXs9_NtNtCsk6apSIyUfCg_3std2io5stdioNtB5_9StdinLockNtNtCs9ZIvzb94SJx_4core3fmt5Debug3fmt
libmozjs128-debug.so:_RNvXs9_NtNtCsk6apSIyUfCg_3std3ffi6os_strNtB5_8OsStringNtNtCs9ZIvzb94SJx_4core3fmt5Debug3fmt
libmozjs128-debug.so:_RNvXs9_NtNtCsk6apSIyUfCg_3std3net11socket_addrNtNtCs4z76MhC0nbo_5alloc6string6StringNtB5_13ToSocketAddrs15to_socket_addrs
libmozjs128-debug.so:_RNvXs9_NtNtNtCs9ZIvzb94SJx_4core3fmt3num3implNtB9_7Display3fmt
libmozjs128-debug.so:_RNvXs9_NtNtNtCshlECYyjYKiK_6object4read5macho10dyld_cacheNtB5_14DyldRelocationNtNtCs9ZIvzb94SJx_4core3fmt5Debug3fmt
libmozjs128-debug.so:_RNvXs9_NtNtNtCshlECYyjYKiK_6object4read5xcoff6symbolNtNtBb_5xcoff8Symbol32NtB5_6Symbol11name_offset
libmozjs128-debug.so:_RNvXs9_NtNtNtCsk6apSIyUfCg_3std3sys2fs4unixNtB5_15FilePermissionsNtNtCs9ZIvzb94SJx_4core3fmt5Debug3fmt
libmozjs128-debug.so:_RNvXs9_NtNtNtNtCsk6apSIyUfCg_3std3sys3net10connection6socketNtB5_11TcpListenerNtNtCs9ZIvzb94SJx_4core3fmt5Debug3fmt
libmozjs128-debug.so:_RNvXsA_NtNtCs9ZIvzb94SJx_4core3fmt3numyNtB7_5Octal3fmt
libmozjs128-debug.so:_RNvXsA_NtNtNtCs9ZIvzb94SJx_4core3fmt3num3impyNtB9_8LowerExp3fmt
libmozjs128-debug.so:_RNvXsA_NtNtNtCsk6apSIyUfCg_3std2os2fd5ownedNtNtNtBb_2io4pipe10PipeWriterNtB5_4AsFd5as_fd
libmozjs128-debug.so:_RNvXsB_NtCsk6apSIyUfCg_3std2fsNtB5_7ReadDirNtNtNtNtCs9ZIvzb94SJx_4core4iter6traits8iterator8Iterator4next
libmozjs128-debug.so:_RNvXsB_NtNtCs9ZIvzb94SJx_4core3fmt3numxNtB7_5Octal3fmt
libmozjs128-debug.so:_RNvXsB_NtNtNtCs9ZIvzb94SJx_4core3fmt3num3impxNtB9_8UpperExp3fmt
libmozjs128-debug.so:_RNvXsC_NtCsd97RIzLnxns_5gimli9constantsNtB5_5DwCfaNtNtCs9ZIvzb94SJx_4core3fmt7Display3fmt
libmozjs128-debug.so:_RNvXsC_NtNtCs9ZIvzb94SJx_4core3fmt3numyNtB7_8LowerHex3fmt
libmozjs128-debug.so:_RNvXsC_NtNtNtCs9ZIvzb94SJx_4core3fmt3num3impyNtB9_8UpperExp3fmt
libmozjs128-debug.so:_RNvXsD_NtCs4z76MhC0nbo_5alloc3vecINtB5_3VechEINtNtCs9ZIvzb94SJx_4core7convert4FromReE4from
libmozjs128-debug.so:_RNvXsD_NtCsk6apSIyUfCg_3std2fsNtB5_8DirEntryNtNtCs9ZIvzb94SJx_4core3fmt5Debug3fmt
libmozjs128-debug.so:_RNvXsD_NtNtCs9ZIvzb94SJx_4core3fmt3numxNtB7_8LowerHex3fmt
libmozjs128-debug.so:_RNvXsD_NtNtCsk6apSIyUfCg_3std3ffi6os_strReINtNtCs9ZIvzb94SJx_4core7convert7TryFromRNtB5_5OsStrE8try_from
libmozjs128-debug.so:_RNvXsD_NtNtNtCs9ZIvzb94SJx_4core3fmt3num3impiNtB9_8LowerExp3fmt
libmozjs128-debug.so:_RNvXsE_NtCs9ZIvzb94SJx_4core4charNtB5_11ToUppercaseNtNtNtNtB7_4iter6traits8iterator8Iterator10advance_by
libmozjs128-debug.so:_RNvXsE_NtCs9ZIvzb94SJx_4core4charNtB5_11ToUppercaseNtNtNtNtB7_4iter6traits8iterator8Iterator24___iterator_get_unchecked
libmozjs128-debug.so:_RNvXsE_NtCs9ZIvzb94SJx_4core4charNtB5_11ToUppercaseNtNtNtNtB7_4iter6traits8iterator8Iterator4last
libmozjs128-debug.so:_RNvXsE_NtCs9ZIvzb94SJx_4core4charNtB5_11ToUppercaseNtNtNtNtB7_4iter6traits8iterator8Iterator4next
libmozjs128-debug.so:_RNvXsE_NtCs9ZIvzb94SJx_4core4charNtB5_11ToUppercaseNtNtNtNtB7_4iter6traits8iterator8Iterator5count
libmozjs128-debug.so:_RNvXsE_NtNtCs9ZIvzb94SJx_4core3fmt3numyNtB7_8UpperHex3fmt
libmozjs128-debug.so:_RNvXsE_NtNtCs9ZIvzb94SJx_4core3num11niche_typesNtB5_15NonZeroU32InnerNtNtB9_3fmt5Debug3fmt
libmozjs128-debug.so:_RNvXsE_NtNtNtCs9ZIvzb94SJx_4core3fmt3num3impjNtB9_8LowerExp3fmt
libmozjs128-debug.so:_RNvXsF_NtCs9ZIvzb94SJx_4core4charNtB5_11ToUppercaseNtNtNtNtB7_4iter6traits12double_ended19DoubleEndedIterator15advance_back_by
libmozjs128-debug.so:_RNvXsF_NtCs9ZIvzb94SJx_4core4charNtB5_11ToUppercaseNtNtNtNtB7_4iter6traits12double_ended19DoubleEndedIterator9next_back
libmozjs128-debug.so:_RNvXsF_NtNtCs9ZIvzb94SJx_4core3fmt3numxNtB7_8UpperHex3fmt
libmozjs128-debug.so:_RNvXsF_NtNtNtCs9ZIvzb94SJx_4core3fmt3num3impiNtB9_8UpperExp3fmt
libmozjs128-debug.so:_RNvXsG_NtCsk6apSIyUfCg_3std4pathNtB5_7PathBufNtNtCs9ZIvzb94SJx_4core3fmt5Debug3fmt
libmozjs128-debug.so:_RNvXsG_NtNtCs9ZIvzb94SJx_4core3fmt3numoNtB7_6Binary3fmt
libmozjs128-debug.so:_RNvXsG_NtNtNtCs9ZIvzb94SJx_4core3fmt3num3impjNtB9_8UpperExp3fmt
libmozjs128-debug.so:_RNvXsH_NtNtCs9ZIvzb94SJx_4core3fmt3numnNtB7_6Binary3fmt
libmozjs128-debug.so:_RNvXsI_NtNtCs9ZIvzb94SJx_4core3fmt3numoNtB7_5Octal3fmt
libmozjs128-debug.so:_RNvXsJ_NtNtCs9ZIvzb94SJx_4core3fmt3numnNtB7_5Octal3fmt
libmozjs128-debug.so:_RNvXsK_NtNtCs9ZIvzb94SJx_4core3fmt3numoNtB7_8LowerHex3fmt
libmozjs128-debug.so:_RNvXsK_NtNtCs9ZIvzb94SJx_4core4sync6atomicNtB5_8AtomicI8NtNtB9_3fmt5Debug3fmt
libmozjs128-debug.so:_RNvXsL_NtCsk6apSIyUfCg_3std7processNtB5_10ExitStatusNtNtCs9ZIvzb94SJx_4core3fmt7Display3fmt
libmozjs128-debug.so:_RNvXsL_NtNtCs9ZIvzb94SJx_4core3fmt3numnNtB7_8LowerHex3fmt
libmozjs128-debug.so:_RNvXsM_NtNtCs9ZIvzb94SJx_4core3fmt3numoNtB7_8UpperHex3fmt
libmozjs128-debug.so:_RNvXsM_NtNtCs9ZIvzb94SJx_4core3num11niche_typesNtB5_15NonZeroU64InnerNtNtB9_3fmt5Debug3fmt
libmozjs128-debug.so:_RNvXsN_NtCs4z76MhC0nbo_5alloc6stringNtB5_6StringINtNtCs9ZIvzb94SJx_4core7convert4FromINtNtB7_5boxed3BoxeEE4from
libmozjs128-debug.so:_RNvXsN_NtNtCs9ZIvzb94SJx_4core3fmt3numnNtB7_8UpperHex3fmt
libmozjs128-debug.so:_RNvXsN_NtNtCs9ZIvzb94SJx_4core3str4iterNtB5_11EncodeUtf16NtNtB9_3fmt5Debug3fmt
libmozjs128-debug.so:_RNvXsO_NtCs4z76MhC0nbo_5alloc6stringINtNtB7_5boxed3BoxeEINtNtCs9ZIvzb94SJx_4core7convert4FromNtB5_6StringE4from
libmozjs128-debug.so:_RNvXsO_NtCsd97RIzLnxns_5gimli9constantsNtB5_10DwChildrenNtNtCs9ZIvzb94SJx_4core3fmt7Display3fmt
libmozjs128-debug.so:_RNvXsO_NtNtCsk6apSIyUfCg_3std3ffi6os_strNtB5_5OsStrNtNtCs9ZIvzb94SJx_4core3fmt5Debug3fmt
libmozjs128-debug.so:_RNvXsP_NtCs4z76MhC0nbo_5alloc6stringNtB5_6StringINtNtCs9ZIvzb94SJx_4core7convert4FromINtNtB7_6borrow3CoweEE4from
libmozjs128-debug.so:_RNvXsP_NtCsk6apSIyUfCg_3std7processNtB5_15ExitStatusErrorNtNtCs9ZIvzb94SJx_4core3fmt7Display3fmt
libmozjs128-debug.so:_RNvXsP_NtNtCs9ZIvzb94SJx_4core4sync6atomicNtB5_8AtomicU8NtNtB9_3fmt5Debug3fmt
libmozjs128-debug.so:_RNvXsP_NtNtCsk6apSIyUfCg_3std3ffi6os_strNtB5_7DisplayNtNtCs9ZIvzb94SJx_4core3fmt5Debug3fmt
libmozjs128-debug.so:_RNvXsQ_NtNtCsk6apSIyUfCg_3std3ffi6os_strNtB5_7DisplayNtNtCs9ZIvzb94SJx_4core3fmt7Display3fmt
libmozjs128-debug.so:_RNvXsU_NtNtCs9ZIvzb94SJx_4core3num11niche_typesNtB5_16NonZeroU128InnerNtNtB9_3fmt5Debug3fmt
libmozjs128-debug.so:_RNvXsU_NtNtCs9ZIvzb94SJx_4core3num7nonzeroINtB5_7NonZerohENtNtNtB9_3str6traits7FromStr8from_str
libmozjs128-debug.so:_RNvXsU_NtNtCs9ZIvzb94SJx_4core4sync6atomicNtB5_9AtomicI16NtNtB9_3fmt5Debug3fmt
libmozjs128-debug.so:_RNvXsV_NtCs9ZIvzb94SJx_4core5arrayAhj4_NtNtB7_7default7Default7defaultCsdIMhsiQnxUU_11miniz_oxide
libmozjs128-debug.so:_RNvXsX_NtCs9ZIvzb94SJx_4core5arrayAhj2_NtNtB7_7default7Default7defaultCsdIMhsiQnxUU_11miniz_oxide
libmozjs128-debug.so:_RNvXsY_NtCs4z76MhC0nbo_5alloc6stringNtB5_6StringINtNtCs9ZIvzb94SJx_4core7convert7TryFromINtNtB7_3vec3VechEE8try_from
libmozjs128-debug.so:_RNvXsZ_NtNtCs9ZIvzb94SJx_4core4sync6atomicNtB5_9AtomicU16NtNtB9_3fmt5Debug3fmt
libmozjs128-debug.so:_RNvXs_Cs7XP8T9flioK_14mozglue_staticINtB4_12ArrayCStringKj200_ENtNtNtCs9ZIvzb94SJx_4core3ops5deref5Deref5derefB4_
libmozjs128-debug.so:_RNvXs_CsglvZrah94c3_14rustc_demangleNtB4_13DemangleStyleNtNtCs9ZIvzb94SJx_4core3fmt7Display3fmt
libmozjs128-debug.so:_RNvXs_NtCs4vvGeN3ANz4_6memchr6memmemNtB4_8FindIterNtNtNtNtCs9ZIvzb94SJx_4core4iter6traits8iterator8Iterator4next
libmozjs128-debug.so:_RNvXs_NtCs9ZIvzb94SJx_4core3anyDNtB4_3AnyEL_NtNtB6_3fmt5Debug3fmt
libmozjs128-debug.so:_RNvXs_NtCs9ZIvzb94SJx_4core5allocNtB4_10AllocErrorNtNtB6_3fmt7Display3fmt
libmozjs128-debug.so:_RNvXs_NtCsk6apSIyUfCg_3std2fsNtB4_12TryLockErrorNtNtCs9ZIvzb94SJx_4core3fmt5Debug3fmt
libmozjs128-debug.so:_RNvXs_NtCsk6apSIyUfCg_3std3envNtB4_4VarsNtNtCs9ZIvzb94SJx_4core3fmt5Debug3fmt
libmozjs128-debug.so:_RNvXs_NtCsk6apSIyUfCg_3std4timeNtB4_7InstantINtNtNtCs9ZIvzb94SJx_4core3ops5arith3AddNtNtBN_4time8DurationE3add
libmozjs128-debug.so:_RNvXs_NtCsk6apSIyUfCg_3std5panicNtB4_13PanicHookInfoNtNtCs9ZIvzb94SJx_4core3fmt7Display3fmt
libmozjs128-debug.so:_RNvXs_NtCsk6apSIyUfCg_3std9backtraceNtB4_14BacktraceFrameNtNtCs9ZIvzb94SJx_4core3fmt5Debug3fmt
libmozjs128-debug.so:_RNvXs_NtNtCs4vvGeN3ANz4_6memchr6memmem8searcherNtB4_8SearcherNtNtCs9ZIvzb94SJx_4core3fmt5Debug3fmt
libmozjs128-debug.so:_RNvXs_NtNtCs9ZIvzb94SJx_4core3fmt3numnNtB6_7Display3fmt
libmozjs128-debug.so:_RNvXs_NtNtCs9ZIvzb94SJx_4core3num7dec2fltNtB4_15ParseFloatErrorNtNtB8_3fmt7Display3fmt
libmozjs128-debug.so:_RNvXs_NtNtCs9ZIvzb94SJx_4core3ptr9alignmentNtB4_9AlignmentNtNtB8_3fmt5Debug3fmt
libmozjs128-debug.so:_RNvXs_NtNtCs9ZIvzb94SJx_4core3str4iterNtB4_5CharsNtNtB8_3fmt5Debug3fmt
libmozjs128-debug.so:_RNvXs_NtNtCs9ZIvzb94SJx_4core3str5errorNtB4_9Utf8ErrorNtNtB8_3fmt7Display3fmt
libmozjs128-debug.so:_RNvXs_NtNtCs9ZIvzb94SJx_4core5panic10panic_infoNtB4_9PanicInfoNtNtB8_3fmt7Display3fmt
libmozjs128-debug.so:_RNvXs_NtNtCsk6apSIyUfCg_3std12backtrace_rs9backtraceNtB4_5FrameNtNtCs9ZIvzb94SJx_4core3fmt5Debug3fmt
libmozjs128-debug.so:_RNvXs_NtNtCsk6apSIyUfCg_3std2io5stdioNtB4_9StdoutRawNtB6_5Write14write_vectored
libmozjs128-debug.so:_RNvXs_NtNtCsk6apSIyUfCg_3std2io5stdioNtB4_9StdoutRawNtB6_5Write18write_all_vectored
libmozjs128-debug.so:_RNvXs_NtNtCsk6apSIyUfCg_3std2io5stdioNtB4_9StdoutRawNtB6_5Write5flush
libmozjs128-debug.so:_RNvXs_NtNtCsk6apSIyUfCg_3std2io5stdioNtB4_9StdoutRawNtB6_5Write5write
libmozjs128-debug.so:_RNvXs_NtNtCsk6apSIyUfCg_3std2io5stdioNtB4_9StdoutRawNtB6_5Write9write_all
libmozjs128-debug.so:_RNvXs_NtNtCsk6apSIyUfCg_3std2io5stdioNtB4_9StdoutRawNtB6_5Write9write_fmt
libmozjs128-debug.so:_RNvXs_NtNtCsk6apSIyUfCg_3std3net3tcpNtB4_9TcpStreamNtNtB8_2io4Read13read_vectored
libmozjs128-debug.so:_RNvXs_NtNtCsk6apSIyUfCg_3std3net3tcpNtB4_9TcpStreamNtNtB8_2io4Read4read
libmozjs128-debug.so:_RNvXs_NtNtCsk6apSIyUfCg_3std3net3tcpNtB4_9TcpStreamNtNtB8_2io4Read8read_buf
libmozjs128-debug.so:_RNvXs_NtNtCsk6apSIyUfCg_3std4sync7barrierNtB4_7BarrierNtNtCs9ZIvzb94SJx_4core3fmt5Debug3fmt
libmozjs128-debug.so:_RNvXs_NtNtCsk6apSIyUfCg_3std4sync9nonpoisonNtB4_10WouldBlockNtNtCs9ZIvzb94SJx_4core3fmt7Display3fmt
libmozjs128-debug.so:_RNvXs_NtNtCsk6apSIyUfCg_3std6thread5localNtB4_11AccessErrorNtNtCs9ZIvzb94SJx_4core3fmt5Debug3fmt
libmozjs128-debug.so:_RNvXs_NtNtNtCs9ZIvzb94SJx_4core3fmt3num3impaNtB8_7Display3fmt
libmozjs128-debug.so:_RNvXs_NtNtNtCs9ZIvzb94SJx_4core4iter8adapters6copiedINtB4_6CopiedINtNtB6_4take4TakeINtNtNtBa_5slice4iter4IterhEEENtNtNtB8_6traits8iterator8Iterator4nextCsd97RIzLnxns_5gimli
libmozjs128-debug.so:_RNvXs_NtNtNtCshlECYyjYKiK_6object4read2pe10relocationNtB4_23RelocationBlockIteratorNtNtNtNtCs9ZIvzb94SJx_4core4iter6traits8iterator8Iterator4next
libmozjs128-debug.so:_RNvXs_NtNtNtCshlECYyjYKiK_6object4read2pe6exportNtB4_6ExportNtNtCs9ZIvzb94SJx_4core3fmt5Debug3fmt
libmozjs128-debug.so:_RNvXs_NtNtNtCsk6apSIyUfCg_3std2os4unix2ioNtNtNtBa_2io5stdio10StdoutLockNtB4_8StdioExt7take_fd
libmozjs128-debug.so:_RNvXs_NtNtNtCsk6apSIyUfCg_3std3sys2fd4unixRNtB4_8FileDescNtNtBa_2io4Read13read_vectored
libmozjs128-debug.so:_RNvXs_NtNtNtCsk6apSIyUfCg_3std3sys2fd4unixRNtB4_8FileDescNtNtBa_2io4Read4read
libmozjs128-debug.so:_RNvXs_NtNtNtCsk6apSIyUfCg_3std3sys2fd4unixRNtB4_8FileDescNtNtBa_2io4Read8read_buf
libmozjs128-debug.so:_RNvXs_NtNtNtCsk6apSIyUfCg_3std3sys2fs6commonNtB4_3DirNtNtCs9ZIvzb94SJx_4core3fmt5Debug3fmt
libmozjs128-debug.so:_RNvXs_NtNtNtCsk6apSIyUfCg_3std3sys3env6commonNtB4_3EnvNtNtCs9ZIvzb94SJx_4core3fmt5Debug3fmt
libmozjs128-debug.so:_RNvXs_NtNtNtCsk6apSIyUfCg_3std3sys4time4unixNtB4_10SystemTimeNtNtCs9ZIvzb94SJx_4core3fmt5Debug3fmt
libmozjs128-debug.so:_RNvXs_NtNtNtCsk6apSIyUfCg_3std3sys5stdio4unixNtB4_5StdinNtNtBa_2io4Read13read_vectored
libmozjs128-debug.so:_RNvXs_NtNtNtCsk6apSIyUfCg_3std3sys5stdio4unixNtB4_5StdinNtNtBa_2io4Read4read
libmozjs128-debug.so:_RNvXs_NtNtNtCsk6apSIyUfCg_3std3sys5stdio4unixNtB4_5StdinNtNtBa_2io4Read8read_buf
libmozjs128-debug.so:_RNvXs_NtNtNtCsk6apSIyUfCg_3std3sys7helpers4wstrNtB4_9WStrUnitsNtNtNtNtCs9ZIvzb94SJx_4core4iter6traits8iterator8Iterator4next
libmozjs128-debug.so:_RNvXs_NtNtNtCsk6apSIyUfCg_3std4sync4mpmc4zeroNtB4_9ZeroTokenNtNtCs9ZIvzb94SJx_4core3fmt5Debug3fmt
libmozjs128-debug.so:_RNvXs_NtNtNtCsk6apSIyUfCg_3std4sync6poison7condvarNtB4_7CondvarNtNtCs9ZIvzb94SJx_4core3fmt5Debug3fmt
libmozjs128-debug.so:_RNvXs_NtNtNtCsk6apSIyUfCg_3std4sync9nonpoison7condvarNtB4_7CondvarNtNtCs9ZIvzb94SJx_4core3fmt5Debug3fmt
libmozjs128-debug.so:_RNvXs_NtNtNtNtCsk6apSIyUfCg_3std12backtrace_rs9symbolize5gimli19parse_running_mmapsNtB4_9MapsEntryNtNtNtCs9ZIvzb94SJx_4core3str6traits7FromStr8from_str
libmozjs128-debug.so:_RNvXs_NtNtNtNtCsk6apSIyUfCg_3std12backtrace_rs9symbolize5gimli4mmapNtB4_4MmapNtNtNtCs9ZIvzb94SJx_4core3ops5deref5Deref5deref
libmozjs128-debug.so:_RNvXs_NtNtNtNtCsk6apSIyUfCg_3std2os3net9linux_ext3tcpNtNtNtBc_3net3tcp9TcpStreamNtB4_12TcpStreamExt11deferaccept
libmozjs128-debug.so:_RNvXs_NtNtNtNtCsk6apSIyUfCg_3std2os3net9linux_ext3tcpNtNtNtBc_3net3tcp9TcpStreamNtB4_12TcpStreamExt12set_quickack
libmozjs128-debug.so:_RNvXs_NtNtNtNtCsk6apSIyUfCg_3std2os3net9linux_ext3tcpNtNtNtBc_3net3tcp9TcpStreamNtB4_12TcpStreamExt15set_deferaccept
libmozjs128-debug.so:_RNvXs_NtNtNtNtCsk6apSIyUfCg_3std2os3net9linux_ext3tcpNtNtNtBc_3net3tcp9TcpStreamNtB4_12TcpStreamExt8quickack
libmozjs128-debug.so:_RNvXs_NtNtNtNtCsk6apSIyUfCg_3std2os3net9linux_ext6socketNtNtNtNtBa_4unix3net6stream10UnixStreamNtB4_13UnixSocketExt12set_passcred
libmozjs128-debug.so:_RNvXs_NtNtNtNtCsk6apSIyUfCg_3std2os3net9linux_ext6socketNtNtNtNtBa_4unix3net6stream10UnixStreamNtB4_13UnixSocketExt8passcred
libmozjs128-debug.so:_RNvXs_NtNtNtNtCsk6apSIyUfCg_3std2os4unix3net6streamNtB4_10UnixStreamNtNtCs9ZIvzb94SJx_4core3fmt5Debug3fmt
libmozjs128-debug.so:_RNvXs_NtNtNtNtCsk6apSIyUfCg_3std2os4unix3net8datagramNtB4_12UnixDatagramNtNtCs9ZIvzb94SJx_4core3fmt5Debug3fmt
libmozjs128-debug.so:_RNvXs_NtNtNtNtCsk6apSIyUfCg_3std3sys2fs4unix3cfmNtB4_18CachedFileMetadataNtNtBc_2io5Write14write_vectored
libmozjs128-debug.so:_RNvXs_NtNtNtNtCsk6apSIyUfCg_3std3sys2fs4unix3cfmNtB4_18CachedFileMetadataNtNtBc_2io5Write5write
libmozjs128-debug.so:_RNvXs_NtNtNtNtCsk6apSIyUfCg_3std3sys2fs4unix3dirNtB4_3DirNtNtCs9ZIvzb94SJx_4core3fmt5Debug3fmt
libmozjs128-debug.so:_RNvXs_NtNtNtNtCsk6apSIyUfCg_3std3sys3net10connection6socketNtB4_10LookupHostNtNtNtNtCs9ZIvzb94SJx_4core4iter6traits8iterator8Iterator4next
libmozjs128-debug.so:_RNvXs_NtNtNtNtCsk6apSIyUfCg_3std3sys3pal4unix14stack_overflowNtB4_7HandlerNtNtNtCs9ZIvzb94SJx_4core3ops4drop4Drop4drop
libmozjs128-debug.so:_RNvXs_NtNtNtNtCsk6apSIyUfCg_3std3sys4sync4once5futexNtB4_15CompletionGuardNtNtNtCs9ZIvzb94SJx_4core3ops4drop4Drop4drop
libmozjs128-debug.so:_RNvXs_NtNtNtNtNtCsk6apSIyUfCg_3std3sys7process4unix6common13cstring_arrayNtB4_12CStringArrayINtNtNtCs9ZIvzb94SJx_4core3ops5index5IndexjE5index
libmozjs128-debug.so:_RNvXs_NvMNtNtNtNtCsk6apSIyUfCg_3std3sys7process4unix4unixNtNtB9_6common7Command11posix_spawnNtB4_14PosixSpawnattrNtNtNtCs9ZIvzb94SJx_4core3ops4drop4Drop4drop
libmozjs128-debug.so:_RNvXs_NvMs_NtNtCs4z76MhC0nbo_5alloc3ffi5c_strNtB9_7CString3newRShNtB4_11SpecNewImpl13spec_new_impl
libmozjs128-debug.so:_RNvXs_NvMs_NtNtNtCsk6apSIyUfCg_3std2io8buffered9bufwriterINtB9_9BufWriterpE9flush_bufNtB4_8BufGuardNtNtNtCs9ZIvzb94SJx_4core3ops4drop4Drop4drop
libmozjs128-debug.so:_RNvXs_NvNtCsk6apSIyUfCg_3std9panicking13panic_handlerNtB4_19FormatStringPayloadNtNtCs9ZIvzb94SJx_4core5panic12PanicPayload3get
libmozjs128-debug.so:_RNvXs_NvNtCsk6apSIyUfCg_3std9panicking13panic_handlerNtB4_19FormatStringPayloadNtNtCs9ZIvzb94SJx_4core5panic12PanicPayload8take_box
libmozjs128-debug.so:_RNvXs_NvNtCsk6apSIyUfCg_3std9panicking13resume_unwindNtB4_9RewrapBoxNtNtCs9ZIvzb94SJx_4core3fmt7Display3fmt
libmozjs128-debug.so:_RNvXs_NvXsf_NtNtCs4z76MhC0nbo_5alloc5boxed7convertINtBc_3BoxDNtNtCs9ZIvzb94SJx_4core5error5ErrorNtNtB11_6marker4SyncNtB1y_4SendEL_EINtNtB11_7convert4FromNtNtBe_6string6StringE4fromNtB4_11StringErrorNtNtB11_3fmt7Display3fmt
libmozjs128-debug.so:_RNvXsa_NtCs9ZIvzb94SJx_4core3anyNtB5_6TypeIdNtNtB7_3fmt5Debug3fmt
libmozjs128-debug.so:_RNvXsa_NtCs9ZIvzb94SJx_4core3pathNtB5_12RangePattern7sub_one
libmozjs128-debug.so:_RNvXsa_NtCs9ZIvzb94SJx_4core4timeNtB5_8DurationNtNtB7_3fmt5Debug3fmt
libmozjs128-debug.so:_RNvXsa_NtCs9ZIvzb94SJx_4core4wtf8NtB5_14Wtf8CodePointsNtNtB7_3fmt5Debug3fmt
libmozjs128-debug.so:_RNvXsa_NtCsk6apSIyUfCg_3std2fsNtB5_4FileNtNtB7_2io4Read11read_to_end
libmozjs128-debug.so:_RNvXsa_NtCsk6apSIyUfCg_3std2fsNtB5_4FileNtNtB7_2io4Read13read_vectored
libmozjs128-debug.so:_RNvXsa_NtCsk6apSIyUfCg_3std2fsNtB5_4FileNtNtB7_2io4Read14read_to_string
libmozjs128-debug.so:_RNvXsa_NtCsk6apSIyUfCg_3std2fsNtB5_4FileNtNtB7_2io4Read4read
libmozjs128-debug.so:_RNvXsa_NtCsk6apSIyUfCg_3std2fsNtB5_4FileNtNtB7_2io4Read8read_buf
libmozjs128-debug.so:_RNvXsa_NtCsk6apSIyUfCg_3std3envNtB5_4ArgsNtNtNtNtCs9ZIvzb94SJx_4core4iter6traits8iterator8Iterator4next
libmozjs128-debug.so:_RNvXsa_NtCsk6apSIyUfCg_3std4timeNtB5_10SystemTimeNtNtCs9ZIvzb94SJx_4core3fmt5Debug3fmt
libmozjs128-debug.so:_RNvXsa_NtNtCs9ZIvzb94SJx_4core3fmt3numhNtB7_6Binary3fmt
libmozjs128-debug.so:_RNvXsa_NtNtCs9ZIvzb94SJx_4core3fmt5floatC3f16NtB7_5Debug3fmt
libmozjs128-debug.so:_RNvXsa_NtNtCs9ZIvzb94SJx_4core3net6parserNtNtB7_11socket_addr10SocketAddrNtNtNtB9_3str6traits7FromStr8from_str
libmozjs128-debug.so:_RNvXsa_NtNtCsd97RIzLnxns_5gimli4read6abbrevNtB5_10AttributesNtNtNtCs9ZIvzb94SJx_4core3ops5deref5Deref5deref
libmozjs128-debug.so:_RNvXsa_NtNtCsk6apSIyUfCg_3std3net3tcpNtB5_12IntoIncomingNtNtNtNtCs9ZIvzb94SJx_4core4iter6traits8iterator8Iterator4next
libmozjs128-debug.so:_RNvXsa_NtNtNtCshlECYyjYKiK_6object4read5macho10dyld_cacheNtB5_18DyldRelocationAuthNtNtCs9ZIvzb94SJx_4core3fmt5Debug3fmt
libmozjs128-debug.so:_RNvXsa_NtNtNtCsk6apSIyUfCg_3std3sys2fs4unixNtB5_7ReadDirNtNtCs9ZIvzb94SJx_4core3fmt5Debug3fmt
libmozjs128-debug.so:_RNvXsa_NtNtNtNtCsk6apSIyUfCg_3std3sys7process4unix6commonNtB5_11CommandArgsNtNtNtNtCs9ZIvzb94SJx_4core4iter6traits8iterator8Iterator4next
libmozjs128-debug.so:_RNvXsa_NtNtNtNtCsk6apSIyUfCg_3std3sys7process4unix6commonNtB5_11CommandArgsNtNtNtNtCs9ZIvzb94SJx_4core4iter6traits8iterator8Iterator9size_hint
libmozjs128-debug.so:_RNvXsb_NtCs9ZIvzb94SJx_4core3fmtNtB5_9FormatterNtB5_5Write10write_char
libmozjs128-debug.so:_RNvXsb_NtCs9ZIvzb94SJx_4core3fmtNtB5_9FormatterNtB5_5Write9write_str
libmozjs128-debug.so:_RNvXsb_NtCs9ZIvzb94SJx_4core3pattNtB5_12RangePattern7sub_one
libmozjs128-debug.so:_RNvXsb_NtCs9ZIvzb94SJx_4core4timeNtB5_21TryFromFloatSecsErrorNtNtB7_3fmt7Display3fmt
libmozjs128-debug.so:_RNvXsb_NtCsk6apSIyUfCg_3std2fsNtB5_4FileNtNtB7_2io5Write14write_vectored
libmozjs128-debug.so:_RNvXsb_NtCsk6apSIyUfCg_3std2fsNtB5_4FileNtNtB7_2io5Write5write
libmozjs128-debug.so:_RNvXsb_NtCsk6apSIyUfCg_3std4pathNtB5_4IterNtNtCs9ZIvzb94SJx_4core3fmt5Debug3fmt
libmozjs128-debug.so:_RNvXsb_NtNtCs9ZIvzb94SJx_4core3fmt3numaNtB7_6Binary3fmt
libmozjs128-debug.so:_RNvXsb_NtNtCs9ZIvzb94SJx_4core3fmt5floatC3f16NtB7_7Display3fmt
libmozjs128-debug.so:_RNvXsb_NtNtCs9ZIvzb94SJx_4core3net6parserNtB5_14AddrParseErrorNtNtB9_3fmt7Display3fmt
libmozjs128-debug.so:_RNvXsb_NtNtNtCsk6apSIyUfCg_3std3sys2fs4unixNtB5_7ReadDirNtNtNtNtCs9ZIvzb94SJx_4core4iter6traits8iterator8Iterator4next
libmozjs128-debug.so:_RNvXsb_NtNtNtNtCsk6apSIyUfCg_3std3sys7process4unix6commonNtB5_11CommandArgsNtNtNtNtCs9ZIvzb94SJx_4core4iter6traits10exact_size17ExactSizeIterator3len
libmozjs128-debug.so:_RNvXsc_NtCs9ZIvzb94SJx_4core3fmtNtB5_5ErrorNtB5_7Display3fmt
libmozjs128-debug.so:_RNvXsc_NtCs9ZIvzb94SJx_4core3patmNtB5_12RangePattern7sub_one
libmozjs128-debug.so:_RNvXsc_NtCsk6apSIyUfCg_3std2fsNtB5_4FileNtNtB7_2io4Seek10stream_len
libmozjs128-debug.so:_RNvXsc_NtCsk6apSIyUfCg_3std2fsNtB5_4FileNtNtB7_2io4Seek15stream_position
libmozjs128-debug.so:_RNvXsc_NtCsk6apSIyUfCg_3std2fsNtB5_4FileNtNtB7_2io4Seek4seek
libmozjs128-debug.so:_RNvXsc_NtCsk6apSIyUfCg_3std3envNtB5_4ArgsNtNtNtNtCs9ZIvzb94SJx_4core4iter6traits12double_ended19DoubleEndedIterator9next_back
libmozjs128-debug.so:_RNvXsc_NtNtCs9ZIvzb94SJx_4core3fmt3numhNtB7_5Octal3fmt
libmozjs128-debug.so:_RNvXsc_NtNtCs9ZIvzb94SJx_4core3fmt5floatC3f16NtB7_8LowerExp3fmt
libmozjs128-debug.so:_RNvXsc_NtNtNtCsk6apSIyUfCg_3std3sys2fs4unixNtB5_9DirStreamNtNtNtCs9ZIvzb94SJx_4core3ops4drop4Drop4drop
libmozjs128-debug.so:_RNvXsc_NtNtNtNtCsk6apSIyUfCg_3std3sys3net10connection6socketNtB5_9UdpSocketNtNtCs9ZIvzb94SJx_4core3fmt5Debug3fmt
libmozjs128-debug.so:_RNvXsc_NtNtNtNtCsk6apSIyUfCg_3std3sys7process4unix6commonNtB5_11CommandArgsNtNtCs9ZIvzb94SJx_4core3fmt5Debug3fmt
libmozjs128-debug.so:_RNvXsd_NtCs9ZIvzb94SJx_4core3patyNtB5_12RangePattern7sub_one
libmozjs128-debug.so:_RNvXsd_NtCs9ZIvzb94SJx_4core4wtf8NtB5_10EncodeWideNtNtB7_3fmt5Debug3fmt
libmozjs128-debug.so:_RNvXsd_NtCsk6apSIyUfCg_3std2fsINtNtCs4z76MhC0nbo_5alloc4sync3ArcNtB5_4FileENtNtB7_2io4Read11read_to_end
libmozjs128-debug.so:_RNvXsd_NtCsk6apSIyUfCg_3std2fsINtNtCs4z76MhC0nbo_5alloc4sync3ArcNtB5_4FileENtNtB7_2io4Read13read_vectored
libmozjs128-debug.so:_RNvXsd_NtCsk6apSIyUfCg_3std2fsINtNtCs4z76MhC0nbo_5alloc4sync3ArcNtB5_4FileENtNtB7_2io4Read14read_to_string
libmozjs128-debug.so:_RNvXsd_NtCsk6apSIyUfCg_3std2fsINtNtCs4z76MhC0nbo_5alloc4sync3ArcNtB5_4FileENtNtB7_2io4Read4read
libmozjs128-debug.so:_RNvXsd_NtCsk6apSIyUfCg_3std2fsINtNtCs4z76MhC0nbo_5alloc4sync3ArcNtB5_4FileENtNtB7_2io4Read8read_buf
libmozjs128-debug.so:_RNvXsd_NtCsk6apSIyUfCg_3std3envNtB5_4ArgsNtNtCs9ZIvzb94SJx_4core3fmt5Debug3fmt
libmozjs128-debug.so:_RNvXsd_NtCsk6apSIyUfCg_3std4timeNtB5_15SystemTimeErrorNtNtCs9ZIvzb94SJx_4core3fmt7Display3fmt
libmozjs128-debug.so:_RNvXsd_NtCsk6apSIyUfCg_3std7processNtB5_11ChildStdoutNtNtCs9ZIvzb94SJx_4core3fmt5Debug3fmt
libmozjs128-debug.so:_RNvXsd_NtNtCs9ZIvzb94SJx_4core3fmt3numaNtB7_5Octal3fmt
libmozjs128-debug.so:_RNvXsd_NtNtCs9ZIvzb94SJx_4core3fmt5floatC3f16NtB7_8UpperExp3fmt
libmozjs128-debug.so:_RNvXsd_NtNtCs9ZIvzb94SJx_4core3num11niche_typesNtB5_11NanosecondsNtNtB9_3fmt5Debug3fmt
libmozjs128-debug.so:_RNvXsd_NtNtCsk6apSIyUfCg_3std2io5stdioNtB5_6StdoutNtNtCs9ZIvzb94SJx_4core3fmt5Debug3fmt
libmozjs128-debug.so:_RNvXsd_NtNtNtCs9ZIvzb94SJx_4core3fmt3num3impyNtB9_7Display3fmt
libmozjs128-debug.so:_RNvXse_NtCs9ZIvzb94SJx_4core3patoNtB5_12RangePattern7sub_one
libmozjs128-debug.so:_RNvXse_NtCs9ZIvzb94SJx_4core4charNtB5_15CaseMappingIterNtNtNtNtB7_4iter6traits8iterator8Iterator10advance_by
libmozjs128-debug.so:_RNvXse_NtCs9ZIvzb94SJx_4core4charNtB5_15CaseMappingIterNtNtNtNtB7_4iter6traits8iterator8Iterator24___iterator_get_unchecked
libmozjs128-debug.so:_RNvXse_NtCs9ZIvzb94SJx_4core4charNtB5_15CaseMappingIterNtNtNtNtB7_4iter6traits8iterator8Iterator4last
libmozjs128-debug.so:_RNvXse_NtCs9ZIvzb94SJx_4core4charNtB5_15CaseMappingIterNtNtNtNtB7_4iter6traits8iterator8Iterator4next
libmozjs128-debug.so:_RNvXse_NtCs9ZIvzb94SJx_4core4charNtB5_15CaseMappingIterNtNtNtNtB7_4iter6traits8iterator8Iterator5count
libmozjs128-debug.so:_RNvXse_NtCsd97RIzLnxns_5gimli9constantsNtB5_8DwSectV2NtNtCs9ZIvzb94SJx_4core3fmt7Display3fmt
libmozjs128-debug.so:_RNvXse_NtCsk6apSIyUfCg_3std2fsINtNtCs4z76MhC0nbo_5alloc4sync3ArcNtB5_4FileENtNtB7_2io5Write14write_vectored
libmozjs128-debug.so:_RNvXse_NtCsk6apSIyUfCg_3std2fsINtNtCs4z76MhC0nbo_5alloc4sync3ArcNtB5_4FileENtNtB7_2io5Write5write
libmozjs128-debug.so:_RNvXse_NtCsk6apSIyUfCg_3std7processNtB5_11ChildStderrNtNtB7_2io4Read11read_to_end
libmozjs128-debug.so:_RNvXse_NtCsk6apSIyUfCg_3std7processNtB5_11ChildStderrNtNtB7_2io4Read13read_vectored
libmozjs128-debug.so:_RNvXse_NtCsk6apSIyUfCg_3std7processNtB5_11ChildStderrNtNtB7_2io4Read4read
libmozjs128-debug.so:_RNvXse_NtCsk6apSIyUfCg_3std7processNtB5_11ChildStderrNtNtB7_2io4Read8read_buf
libmozjs128-debug.so:_RNvXse_NtNtCs9ZIvzb94SJx_4core3fmt3numhNtB7_8LowerHex3fmt
libmozjs128-debug.so:_RNvXse_NtNtCsk6apSIyUfCg_3std2io5stdioNtB5_6StdoutNtB7_5Write14write_vectored
libmozjs128-debug.so:_RNvXse_NtNtCsk6apSIyUfCg_3std2io5stdioNtB5_6StdoutNtB7_5Write18write_all_vectored
libmozjs128-debug.so:_RNvXse_NtNtCsk6apSIyUfCg_3std2io5stdioNtB5_6StdoutNtB7_5Write5flush
libmozjs128-debug.so:_RNvXse_NtNtCsk6apSIyUfCg_3std2io5stdioNtB5_6StdoutNtB7_5Write5write
libmozjs128-debug.so:_RNvXse_NtNtCsk6apSIyUfCg_3std2io5stdioNtB5_6StdoutNtB7_5Write9write_all
libmozjs128-debug.so:_RNvXse_NtNtCsk6apSIyUfCg_3std2io5stdioNtB5_6StdoutNtB7_5Write9write_fmt
libmozjs128-debug.so:_RNvXse_NtNtNtCs9ZIvzb94SJx_4core3fmt3num3impxNtB9_7Display3fmt
libmozjs128-debug.so:_RNvXsf_NtCs4z76MhC0nbo_5alloc5boxedINtB5_3BoxeENtNtCs9ZIvzb94SJx_4core5clone5Clone5clone
libmozjs128-debug.so:_RNvXsf_NtCs9ZIvzb94SJx_4core3patjNtB5_12RangePattern7sub_one
libmozjs128-debug.so:_RNvXsf_NtCs9ZIvzb94SJx_4core4charNtB5_15CaseMappingIterNtNtNtNtB7_4iter6traits12double_ended19DoubleEndedIterator15advance_back_by
libmozjs128-debug.so:_RNvXsf_NtCs9ZIvzb94SJx_4core4charNtB5_15CaseMappingIterNtNtNtNtB7_4iter6traits12double_ended19DoubleEndedIterator9next_back
libmozjs128-debug.so:_RNvXsf_NtCsk6apSIyUfCg_3std2fsINtNtCs4z76MhC0nbo_5alloc4sync3ArcNtB5_4FileENtNtB7_2io4Seek10stream_len
libmozjs128-debug.so:_RNvXsf_NtCsk6apSIyUfCg_3std2fsINtNtCs4z76MhC0nbo_5alloc4sync3ArcNtB5_4FileENtNtB7_2io4Seek15stream_position
libmozjs128-debug.so:_RNvXsf_NtCsk6apSIyUfCg_3std2fsINtNtCs4z76MhC0nbo_5alloc4sync3ArcNtB5_4FileENtNtB7_2io4Seek4seek
libmozjs128-debug.so:_RNvXsf_NtNtCs9ZIvzb94SJx_4core3fmt3numaNtB7_8LowerHex3fmt
libmozjs128-debug.so:_RNvXsf_NtNtCs9ZIvzb94SJx_4core4task4wakeNtB5_10LocalWakerNtNtB9_3fmt5Debug3fmt
libmozjs128-debug.so:_RNvXsf_NtNtCsk6apSIyUfCg_3std2io5stdioRNtB5_6StdoutNtB7_5Write14write_vectored
libmozjs128-debug.so:_RNvXsf_NtNtCsk6apSIyUfCg_3std2io5stdioRNtB5_6StdoutNtB7_5Write18write_all_vectored
libmozjs128-debug.so:_RNvXsf_NtNtCsk6apSIyUfCg_3std2io5stdioRNtB5_6StdoutNtB7_5Write5flush
libmozjs128-debug.so:_RNvXsf_NtNtCsk6apSIyUfCg_3std2io5stdioRNtB5_6StdoutNtB7_5Write5write
libmozjs128-debug.so:_RNvXsf_NtNtCsk6apSIyUfCg_3std2io5stdioRNtB5_6StdoutNtB7_5Write9write_all
libmozjs128-debug.so:_RNvXsf_NtNtCsk6apSIyUfCg_3std2io5stdioRNtB5_6StdoutNtB7_5Write9write_fmt
libmozjs128-debug.so:_RNvXsf_NtNtCsk6apSIyUfCg_3std3net3tcpNtB5_11TcpListenerNtNtCs9ZIvzb94SJx_4core3fmt5Debug3fmt
libmozjs128-debug.so:_RNvXsf_NtNtNtCshlECYyjYKiK_6object4read3elf10relocationNtB5_12CrelIteratorNtNtNtNtCs9ZIvzb94SJx_4core4iter6traits8iterator8Iterator4next
libmozjs128-debug.so:_RNvXsf_NtNtNtCsk6apSIyUfCg_3std2os2fd3rawNtNtNtBb_2io4pipe10PipeReaderNtB5_9FromRawFd11from_raw_fd
libmozjs128-debug.so:_RNvXsg_NtCs9ZIvzb94SJx_4core3fmtbNtB5_7Display3fmt
libmozjs128-debug.so:_RNvXsg_NtNtCs4z76MhC0nbo_5alloc5boxed7convertINtB7_3BoxDNtNtCs9ZIvzb94SJx_4core5error5ErrorEL_EINtNtBW_7convert4FromNtNtB9_6string6StringE4from
libmozjs128-debug.so:_RNvXsg_NtNtCs9ZIvzb94SJx_4core3fmt3numhNtB7_8UpperHex3fmt
libmozjs128-debug.so:_RNvXsh_NtCs4z76MhC0nbo_5alloc6borrowINtB5_3CoweEINtNtNtCs9ZIvzb94SJx_4core3ops5arith9AddAssignReE10add_assign
libmozjs128-debug.so:_RNvXsh_NtCs4z76MhC0nbo_5alloc6stringSReNtB5_13SpecExtendStr16spec_extend_into
libmozjs128-debug.so:_RNvXsh_NtCs9ZIvzb94SJx_4core3fmteNtB5_5Debug3fmt
libmozjs128-debug.so:_RNvXsh_NtNtCs9ZIvzb94SJx_4core3fmt3numaNtB7_8UpperHex3fmt
libmozjs128-debug.so:_RNvXsh_NtNtNtCsk6apSIyUfCg_3std3sys2fs4unixNtB5_11OpenOptionsNtNtCs9ZIvzb94SJx_4core3fmt5Debug3fmt
libmozjs128-debug.so:_RNvXsi_NtCs4z76MhC0nbo_5alloc6borrowINtB5_3CoweENtNtNtCs9ZIvzb94SJx_4core3ops5arith9AddAssign10add_assign
libmozjs128-debug.so:_RNvXsi_NtCs9ZIvzb94SJx_4core3fmteNtB5_7Display3fmt
libmozjs128-debug.so:_RNvXsi_NtCsk6apSIyUfCg_3std4pathNtB5_10ComponentsNtNtNtNtCs9ZIvzb94SJx_4core4iter6traits8iterator8Iterator4next
libmozjs128-debug.so:_RNvXsi_NtCsk6apSIyUfCg_3std7processNtB5_11ChildStderrNtNtCs9ZIvzb94SJx_4core3fmt5Debug3fmt
libmozjs128-debug.so:_RNvXsi_NtNtCs4z76MhC0nbo_5alloc5boxed7convertINtB7_3BoxDNtNtCs9ZIvzb94SJx_4core5error5ErrorEL_EINtNtBW_7convert4FromReE4from
libmozjs128-debug.so:_RNvXsi_NtNtCs9ZIvzb94SJx_4core3fmt3numtNtB7_6Binary3fmt
libmozjs128-debug.so:_RNvXsi_NtNtCsk6apSIyUfCg_3std2io5stdioNtB5_10StdoutLockNtB7_5Write14write_vectored
libmozjs128-debug.so:_RNvXsi_NtNtCsk6apSIyUfCg_3std2io5stdioNtB5_10StdoutLockNtB7_5Write18write_all_vectored
libmozjs128-debug.so:_RNvXsi_NtNtCsk6apSIyUfCg_3std2io5stdioNtB5_10StdoutLockNtB7_5Write5flush
libmozjs128-debug.so:_RNvXsi_NtNtCsk6apSIyUfCg_3std2io5stdioNtB5_10StdoutLockNtB7_5Write5write
libmozjs128-debug.so:_RNvXsi_NtNtCsk6apSIyUfCg_3std2io5stdioNtB5_10StdoutLockNtB7_5Write9write_all
libmozjs128-debug.so:_RNvXsi_NtNtNtCs9ZIvzb94SJx_4core3fmt3num3impjNtB9_7Display3fmt
libmozjs128-debug.so:_RNvXsi_NtNtNtCsk6apSIyUfCg_3std2os2fd3rawNtNtNtBb_2io4pipe10PipeWriterNtB5_9FromRawFd11from_raw_fd
libmozjs128-debug.so:_RNvXsj_NtCs9ZIvzb94SJx_4core3fmtcNtB5_5Debug3fmt
libmozjs128-debug.so:_RNvXsj_NtCsk6apSIyUfCg_3std3envNtB5_6ArgsOsNtNtCs9ZIvzb94SJx_4core3fmt5Debug3fmt
libmozjs128-debug.so:_RNvXsj_NtCsk6apSIyUfCg_3std4pathNtB5_10ComponentsNtNtNtNtCs9ZIvzb94SJx_4core4iter6traits12double_ended19DoubleEndedIterator9next_back
libmozjs128-debug.so:_RNvXsj_NtNtCs4z76MhC0nbo_5alloc5boxed7convertINtB7_3BoxDNtNtCs9ZIvzb94SJx_4core5error5ErrorNtNtBW_6marker4SyncNtB1t_4SendEL_EINtNtBW_7convert4FromINtNtB9_6borrow3CoweEE4from
libmozjs128-debug.so:_RNvXsj_NtNtCs9ZIvzb94SJx_4core3fmt3numsNtB7_6Binary3fmt
libmozjs128-debug.so:_RNvXsj_NtNtCs9ZIvzb94SJx_4core3net7ip_addrNtB5_8Ipv6AddrNtNtB9_3fmt7Display3fmt
libmozjs128-debug.so:_RNvXsj_NtNtCsk6apSIyUfCg_3std2io5stdioNtB5_10StdoutLockNtNtCs9ZIvzb94SJx_4core3fmt5Debug3fmt
libmozjs128-debug.so:_RNvXsj_NtNtNtCs9ZIvzb94SJx_4core3fmt3num3impiNtB9_7Display3fmt
libmozjs128-debug.so:_RNvXsk_NtCs9ZIvzb94SJx_4core3fmtcNtB5_7Display3fmt
libmozjs128-debug.so:_RNvXsk_NtCsk6apSIyUfCg_3std2fsNtB5_3DirNtNtCs9ZIvzb94SJx_4core3fmt5Debug3fmt
libmozjs128-debug.so:_RNvXsk_NtNtCs4z76MhC0nbo_5alloc5boxed7convertINtB7_3BoxDNtNtCs9ZIvzb94SJx_4core5error5ErrorEL_EINtNtBW_7convert4FromINtNtB9_6borrow3CoweEE4from
libmozjs128-debug.so:_RNvXsk_NtNtCs9ZIvzb94SJx_4core3fmt3numtNtB7_5Octal3fmt
libmozjs128-debug.so:_RNvXsk_NtNtCs9ZIvzb94SJx_4core3net7ip_addrNtB5_8Ipv6AddrNtNtB9_3fmt5Debug3fmt
libmozjs128-debug.so:_RNvXsk_NtNtCsk6apSIyUfCg_3std3ffi6os_strNtB5_8OsStringNtNtCs9ZIvzb94SJx_4core3fmt5Write9write_str
libmozjs128-debug.so:_RNvXsk_NtNtNtCsk6apSIyUfCg_3std3sys2fs4unixNtB5_10DirBuilderNtNtCs9ZIvzb94SJx_4core3fmt5Debug3fmt
libmozjs128-debug.so:_RNvXsl_NtCsk6apSIyUfCg_3std7processNtB5_7CommandNtNtCs9ZIvzb94SJx_4core3fmt5Debug3fmt
libmozjs128-debug.so:_RNvXsl_NtNtCs9ZIvzb94SJx_4core3fmt3numsNtB7_5Octal3fmt
libmozjs128-debug.so:_RNvXsm_NtCs9ZIvzb94SJx_4core4charNtB5_16TryFromCharErrorNtNtB7_3fmt7Display3fmt
libmozjs128-debug.so:_RNvXsm_NtNtCs9ZIvzb94SJx_4core3fmt3numtNtB7_8LowerHex3fmt
libmozjs128-debug.so:_RNvXsm_NtNtNtNtCsk6apSIyUfCg_3std3sys2io11kernel_copy5linuxNtNtNtBd_2io5stdio9StdinLockNtB5_8CopyRead10properties
libmozjs128-debug.so:_RNvXsn_NtNtCs9ZIvzb94SJx_4core3fmt3numsNtB7_8LowerHex3fmt
libmozjs128-debug.so:_RNvXsn_NtNtCsk6apSIyUfCg_3std2io5stdioNtB5_6StderrNtNtCs9ZIvzb94SJx_4core3fmt5Debug3fmt
libmozjs128-debug.so:_RNvXsn_NtNtCsk6apSIyUfCg_3std4sync4mpscNtB5_9RecvErrorNtNtCs9ZIvzb94SJx_4core3fmt7Display3fmt
libmozjs128-debug.so:_RNvXsn_NtNtNtCs9ZIvzb94SJx_4core3fmt3num3impaNtB9_8LowerExp3fmt
libmozjs128-debug.so:_RNvXsn_NtNtNtNtCsk6apSIyUfCg_3std3sys2io11kernel_copy5linuxNtNtNtBd_2io5stdio10StdoutLockNtB5_9CopyWrite10properties
libmozjs128-debug.so:_RNvXso_NtCs4z76MhC0nbo_5alloc3vecINtB5_3VecNtNtNtCsd97RIzLnxns_5gimli4read6abbrev22AttributeSpecificationENtNtNtCs9ZIvzb94SJx_4core3ops4drop4Drop4dropBL_
libmozjs128-debug.so:_RNvXso_NtCs4z76MhC0nbo_5alloc3vecINtB5_3VechENtNtNtCs9ZIvzb94SJx_4core3ops4drop4Drop4dropCsd97RIzLnxns_5gimli
libmozjs128-debug.so:_RNvXso_NtCs4z76MhC0nbo_5alloc6stringRNtB5_6StringNtNtNtCs9ZIvzb94SJx_4core3str7pattern7Pattern13into_searcher
libmozjs128-debug.so:_RNvXso_NtCsk6apSIyUfCg_3std7processNtB5_11CommandArgsNtNtNtNtCs9ZIvzb94SJx_4core4iter6traits8iterator8Iterator4next
libmozjs128-debug.so:_RNvXso_NtCsk6apSIyUfCg_3std7processNtB5_11CommandArgsNtNtNtNtCs9ZIvzb94SJx_4core4iter6traits8iterator8Iterator9size_hint
libmozjs128-debug.so:_RNvXso_NtNtCs9ZIvzb94SJx_4core3fmt3numtNtB7_8UpperHex3fmt
libmozjs128-debug.so:_RNvXso_NtNtCs9ZIvzb94SJx_4core3num11niche_typesNtB5_14NonZeroU8InnerNtNtB9_3fmt5Debug3fmt
libmozjs128-debug.so:_RNvXso_NtNtCsk6apSIyUfCg_3std2io5stdioNtB5_6StderrNtB7_5Write14write_vectored
libmozjs128-debug.so:_RNvXso_NtNtCsk6apSIyUfCg_3std2io5stdioNtB5_6StderrNtB7_5Write18write_all_vectored
libmozjs128-debug.so:_RNvXso_NtNtCsk6apSIyUfCg_3std2io5stdioNtB5_6StderrNtB7_5Write5flush
libmozjs128-debug.so:_RNvXso_NtNtCsk6apSIyUfCg_3std2io5stdioNtB5_6StderrNtB7_5Write5write
libmozjs128-debug.so:_RNvXso_NtNtCsk6apSIyUfCg_3std2io5stdioNtB5_6StderrNtB7_5Write9write_all
libmozjs128-debug.so:_RNvXso_NtNtCsk6apSIyUfCg_3std2io5stdioNtB5_6StderrNtB7_5Write9write_fmt
libmozjs128-debug.so:_RNvXso_NtNtNtCs9ZIvzb94SJx_4core3fmt3num3imphNtB9_8LowerExp3fmt
libmozjs128-debug.so:_RNvXso_NtNtNtNtCsk6apSIyUfCg_3std3sys2io11kernel_copy5linuxNtNtNtBd_2io5stdio10StderrLockNtB5_9CopyWrite10properties
libmozjs128-debug.so:_RNvXsp_NtCs9ZIvzb94SJx_4core6resultINtB5_6ResultuINtNtCs9WTLM0oGNNa_8arrayvec6errors13CapacityErrorReEENtNtNtB7_3ops9try_trait3Try6branchCs7XP8T9flioK_14mozglue_static
libmozjs128-debug.so:_RNvXsp_NtCsk6apSIyUfCg_3std2fsNtB5_8MetadataNtNtCs9ZIvzb94SJx_4core3fmt5Debug3fmt
libmozjs128-debug.so:_RNvXsp_NtCsk6apSIyUfCg_3std7processNtB5_11CommandArgsNtNtNtNtCs9ZIvzb94SJx_4core4iter6traits10exact_size17ExactSizeIterator3len
libmozjs128-debug.so:_RNvXsp_NtNtCs9ZIvzb94SJx_4core3fmt3numsNtB7_8UpperHex3fmt
libmozjs128-debug.so:_RNvXsp_NtNtCsk6apSIyUfCg_3std2io5stdioRNtB5_6StderrNtB7_5Write14write_vectored
libmozjs128-debug.so:_RNvXsp_NtNtCsk6apSIyUfCg_3std2io5stdioRNtB5_6StderrNtB7_5Write18write_all_vectored
libmozjs128-debug.so:_RNvXsp_NtNtCsk6apSIyUfCg_3std2io5stdioRNtB5_6StderrNtB7_5Write5flush
libmozjs128-debug.so:_RNvXsp_NtNtCsk6apSIyUfCg_3std2io5stdioRNtB5_6StderrNtB7_5Write5write
libmozjs128-debug.so:_RNvXsp_NtNtCsk6apSIyUfCg_3std2io5stdioRNtB5_6StderrNtB7_5Write9write_all
libmozjs128-debug.so:_RNvXsp_NtNtCsk6apSIyUfCg_3std2io5stdioRNtB5_6StderrNtB7_5Write9write_fmt
libmozjs128-debug.so:_RNvXsp_NtNtCsk6apSIyUfCg_3std4sync4mpscNtB5_12TryRecvErrorNtNtCs9ZIvzb94SJx_4core3fmt7Display3fmt
libmozjs128-debug.so:_RNvXsp_NtNtNtCs9ZIvzb94SJx_4core3fmt3num3impaNtB9_8UpperExp3fmt
libmozjs128-debug.so:_RNvXsq_NtCs9ZIvzb94SJx_4core4cellNtB5_11BorrowErrorNtNtB7_3fmt7Display3fmt
libmozjs128-debug.so:_RNvXsq_NtCs9ZIvzb94SJx_4core6resultINtB5_6ResultINtNtCs9WTLM0oGNNa_8arrayvec12array_string11ArrayStringKj200_EINtNtBP_6errors13CapacityErrorReEEINtNtNtB7_3ops9try_trait12FromResidualIBy_NtNtB7_7convert10InfallibleB1K_EE13from_residualCs7XP8T9flioK_14mozglue_static
libmozjs128-debug.so:_RNvXsq_NtCsd97RIzLnxns_5gimli9constantsNtB5_4DwUtNtNtCs9ZIvzb94SJx_4core3fmt7Display3fmt
libmozjs128-debug.so:_RNvXsq_NtCsk6apSIyUfCg_3std7processNtB5_11CommandEnvsNtNtNtNtCs9ZIvzb94SJx_4core4iter6traits8iterator8Iterator4next
libmozjs128-debug.so:_RNvXsq_NtNtCs4z76MhC0nbo_5alloc3ffi5c_strINtNtB9_5boxed3BoxNtNtNtCs9ZIvzb94SJx_4core3ffi5c_str4CStrENtNtB11_7default7Default7default
libmozjs128-debug.so:_RNvXsq_NtNtCs9ZIvzb94SJx_4core3fmt3nummNtB7_6Binary3fmt
libmozjs128-debug.so:_RNvXsq_NtNtNtCs9ZIvzb94SJx_4core3fmt3num3imphNtB9_8UpperExp3fmt
libmozjs128-debug.so:_RNvXsr_NtCs9ZIvzb94SJx_4core3fmtSNtNtNtCsd97RIzLnxns_5gimli4read6abbrev22AttributeSpecificationNtB5_5Debug3fmtBB_
libmozjs128-debug.so:_RNvXsr_NtCs9ZIvzb94SJx_4core3fmtShNtB5_5Debug3fmtCsglvZrah94c3_14rustc_demangle
libmozjs128-debug.so:_RNvXsr_NtCs9ZIvzb94SJx_4core4cellNtB5_14BorrowMutErrorNtNtB7_3fmt7Display3fmt
libmozjs128-debug.so:_RNvXsr_NtNtCs9ZIvzb94SJx_4core3fmt3numlNtB7_6Binary3fmt
libmozjs128-debug.so:_RNvXsr_NtNtNtCs9ZIvzb94SJx_4core3fmt3num3impsNtB9_8LowerExp3fmt
libmozjs128-debug.so:_RNvXss_NtCsk6apSIyUfCg_3std7processNtB5_11CommandEnvsNtNtCs9ZIvzb94SJx_4core3fmt5Debug3fmt
libmozjs128-debug.so:_RNvXss_NtNtCs4z76MhC0nbo_5alloc3ffi5c_strNtB5_8NulErrorNtNtCs9ZIvzb94SJx_4core3fmt7Display3fmt
libmozjs128-debug.so:_RNvXss_NtNtCs9ZIvzb94SJx_4core3fmt3nummNtB7_5Octal3fmt
libmozjs128-debug.so:_RNvXss_NtNtCsk6apSIyUfCg_3std2io5stdioNtB5_10StderrLockNtB7_5Write14write_vectored
libmozjs128-debug.so:_RNvXss_NtNtCsk6apSIyUfCg_3std2io5stdioNtB5_10StderrLockNtB7_5Write18write_all_vectored
libmozjs128-debug.so:_RNvXss_NtNtCsk6apSIyUfCg_3std2io5stdioNtB5_10StderrLockNtB7_5Write5flush
libmozjs128-debug.so:_RNvXss_NtNtCsk6apSIyUfCg_3std2io5stdioNtB5_10StderrLockNtB7_5Write5write
libmozjs128-debug.so:_RNvXss_NtNtCsk6apSIyUfCg_3std2io5stdioNtB5_10StderrLockNtB7_5Write9write_all
libmozjs128-debug.so:_RNvXss_NtNtCsk6apSIyUfCg_3std4sync4mpscNtB5_16RecvTimeoutErrorNtNtCs9ZIvzb94SJx_4core3fmt7Display3fmt
libmozjs128-debug.so:_RNvXss_NtNtNtCs9ZIvzb94SJx_4core3fmt3num3imptNtB9_8LowerExp3fmt
libmozjs128-debug.so:_RNvXss_NtNtNtCsk6apSIyUfCg_3std3sys2fs4unixNtB5_4FileNtNtNtNtBb_2os2fd3raw9FromRawFd11from_raw_fd
libmozjs128-debug.so:_RNvXst_NtCsk6apSIyUfCg_3std4pathINtNtCs4z76MhC0nbo_5alloc5boxed3BoxNtB5_4PathEINtNtCs9ZIvzb94SJx_4core7convert4FromRB13_E4from
libmozjs128-debug.so:_RNvXst_NtNtCs4z76MhC0nbo_5alloc3ffi5c_strNtB5_19FromVecWithNulErrorNtNtCs9ZIvzb94SJx_4core3fmt7Display3fmt
libmozjs128-debug.so:_RNvXst_NtNtCs9ZIvzb94SJx_4core3fmt3numlNtB7_5Octal3fmt
libmozjs128-debug.so:_RNvXst_NtNtCsk6apSIyUfCg_3std2io5stdioNtB5_10StderrLockNtNtCs9ZIvzb94SJx_4core3fmt5Debug3fmt
libmozjs128-debug.so:_RNvXst_NtNtNtCs9ZIvzb94SJx_4core3fmt3num3impsNtB9_8UpperExp3fmt
libmozjs128-debug.so:_RNvXst_NtNtNtCsk6apSIyUfCg_3std3sys2fs4unixNtB5_4FileNtNtCs9ZIvzb94SJx_4core3fmt5Debug3fmt
libmozjs128-debug.so:_RNvXsu_NtCs9ZIvzb94SJx_4core4charNtB5_11ToLowercaseNtNtNtNtB7_4iter6traits8iterator8Iterator10advance_by
libmozjs128-debug.so:_RNvXsu_NtCs9ZIvzb94SJx_4core4charNtB5_11ToLowercaseNtNtNtNtB7_4iter6traits8iterator8Iterator24___iterator_get_unchecked
libmozjs128-debug.so:_RNvXsu_NtCs9ZIvzb94SJx_4core4charNtB5_11ToLowercaseNtNtNtNtB7_4iter6traits8iterator8Iterator4last
libmozjs128-debug.so:_RNvXsu_NtCs9ZIvzb94SJx_4core4charNtB5_11ToLowercaseNtNtNtNtB7_4iter6traits8iterator8Iterator4next
libmozjs128-debug.so:_RNvXsu_NtCs9ZIvzb94SJx_4core4charNtB5_11ToLowercaseNtNtNtNtB7_4iter6traits8iterator8Iterator5count
libmozjs128-debug.so:_RNvXsu_NtCsk6apSIyUfCg_3std4pathINtNtCs4z76MhC0nbo_5alloc5boxed3BoxNtB5_4PathEINtNtCs9ZIvzb94SJx_4core7convert4FromQB13_E4from
libmozjs128-debug.so:_RNvXsu_NtCsk6apSIyUfCg_3std7processNtB5_6OutputNtNtCs9ZIvzb94SJx_4core3fmt5Debug3fmt
libmozjs128-debug.so:_RNvXsu_NtNtCs9ZIvzb94SJx_4core3fmt3nummNtB7_8LowerHex3fmt
libmozjs128-debug.so:_RNvXsu_NtNtNtCs9ZIvzb94SJx_4core3fmt3num3imptNtB9_8UpperExp3fmt
libmozjs128-debug.so:_RNvXsu_NtNtNtCsk6apSIyUfCg_3std3sys2fs4unixNtB5_4ModeNtNtCs9ZIvzb94SJx_4core3fmt5Debug3fmt
libmozjs128-debug.so:_RNvXsv_NtCs9ZIvzb94SJx_4core4charNtB5_11ToLowercaseNtNtNtNtB7_4iter6traits12double_ended19DoubleEndedIterator15advance_back_by
libmozjs128-debug.so:_RNvXsv_NtCs9ZIvzb94SJx_4core4charNtB5_11ToLowercaseNtNtNtNtB7_4iter6traits12double_ended19DoubleEndedIterator9next_back
libmozjs128-debug.so:_RNvXsv_NtNtCs4z76MhC0nbo_5alloc3ffi5c_strNtB5_15IntoStringErrorNtNtCs9ZIvzb94SJx_4core3fmt7Display3fmt
libmozjs128-debug.so:_RNvXsv_NtNtCs9ZIvzb94SJx_4core3fmt3numlNtB7_8LowerHex3fmt
libmozjs128-debug.so:_RNvXsv_NtNtNtCs9ZIvzb94SJx_4core3fmt3num3implNtB9_8LowerExp3fmt
libmozjs128-debug.so:_RNvXsw_NtNtCs4z76MhC0nbo_5alloc3ffi5c_strNtNtNtCs9ZIvzb94SJx_4core3ffi5c_str4CStrNtNtB9_6borrow7ToOwned10clone_into
libmozjs128-debug.so:_RNvXsw_NtNtCs4z76MhC0nbo_5alloc3ffi5c_strNtNtNtCs9ZIvzb94SJx_4core3ffi5c_str4CStrNtNtB9_6borrow7ToOwned8to_owned
libmozjs128-debug.so:_RNvXsw_NtNtCs9ZIvzb94SJx_4core3fmt3nummNtB7_8UpperHex3fmt
libmozjs128-debug.so:_RNvXsw_NtNtCs9ZIvzb94SJx_4core3num11niche_typesNtB5_15NonZeroU16InnerNtNtB9_3fmt5Debug3fmt
libmozjs128-debug.so:_RNvXsw_NtNtNtCs9ZIvzb94SJx_4core3fmt3num3impmNtB9_8LowerExp3fmt
libmozjs128-debug.so:_RNvXsx_NtCsk6apSIyUfCg_3std2fsNtB5_8FileTypeNtNtCs9ZIvzb94SJx_4core3fmt5Debug3fmt
libmozjs128-debug.so:_RNvXsx_NtCsk6apSIyUfCg_3std7processNtB5_5StdioNtNtCs9ZIvzb94SJx_4core3fmt5Debug3fmt
libmozjs128-debug.so:_RNvXsx_NtNtCs4z76MhC0nbo_5alloc3ffi5c_strNtB5_7CStringINtNtCs9ZIvzb94SJx_4core7convert4FromRNtNtNtBV_3ffi5c_str4CStrE4from
libmozjs128-debug.so:_RNvXsx_NtNtCs9ZIvzb94SJx_4core3fmt3numlNtB7_8UpperHex3fmt
libmozjs128-debug.so:_RNvXsx_NtNtNtCs9ZIvzb94SJx_4core3fmt3num3implNtB9_8UpperExp3fmt
libmozjs128-debug.so:_RNvXsy_NtNtCs9ZIvzb94SJx_4core3fmt3numyNtB7_6Binary3fmt
libmozjs128-debug.so:_RNvXsy_NtNtNtCs9ZIvzb94SJx_4core3fmt3num3impmNtB9_8UpperExp3fmt
libmozjs128-debug.so:_RNvXsy_NtNtNtCsk6apSIyUfCg_3std2os2fd5ownedNtNtNtBb_2io4pipe10PipeReaderNtB5_4AsFd5as_fd
libmozjs128-debug.so:_RNvXsz_NtNtCs9ZIvzb94SJx_4core3fmt3numxNtB7_6Binary3fmt
libmozjs128-debug.so:_RNvXsz_NtNtNtCs9ZIvzb94SJx_4core3fmt3num3impxNtB9_8LowerExp3fmt
libmozjs128-debug.so:_RNvYINtCsglvZrah94c3_14rustc_demangle21SizeLimitedFmtAdapterQNtNtCs9ZIvzb94SJx_4core3fmt9FormatterENtBZ_5Write10write_charB5_
libmozjs128-debug.so:_RNvYINtCsglvZrah94c3_14rustc_demangle21SizeLimitedFmtAdapterQNtNtCs9ZIvzb94SJx_4core3fmt9FormatterENtBZ_5Write9write_fmtB5_
libmozjs128-debug.so:_RNvYINtNtNtCs9ZIvzb94SJx_4core5slice4iter4ItertENtNtNtNtB9_4iter8adapters3zip27TrustedRandomAccessNoCoerce4sizeCsdIMhsiQnxUU_11miniz_oxide
libmozjs128-debug.so:_RNvYINtNtNtCs9ZIvzb94SJx_4core5slice4iter7IterMutmENtNtNtNtB9_4iter8adapters3zip27TrustedRandomAccessNoCoerce4sizeCsdIMhsiQnxUU_11miniz_oxide
libmozjs128-debug.so:_Z10JS_MaybeGCP9JSContext
libmozjs128-debug.so:_Z10JS_reallocP9JSContextPvmm
libmozjs128-debug.so:_Z11JS_IsNativeP8JSObject
libmozjs128-debug.so:_Z11JS_ShutDownv
libmozjs128-debug.so:_Z11JS_smprintfPKcz
libmozjs128-debug.so:_Z11js_StopPerfv
libmozjs128-debug.so:_Z12JS_CharsToIdP9JSContextN2JS12TwoByteCharsENS1_13MutableHandleINS1_11PropertyKeyEEE
libmozjs128-debug.so:_Z12JS_EnumerateP9JSContextN2JS6HandleIP8JSObjectEENS1_13MutableHandleINS1_8GCVectorINS1_11PropertyKeyELm0EN2js15TempAllocPolicyEEEEE
libmozjs128-debug.so:_Z12JS_IdToValueP9JSContextN2JS11PropertyKeyENS1_13MutableHandleINS1_5ValueEEE
libmozjs128-debug.so:_Z12JS_IndexToIdP9JSContextjN2JS13MutableHandleINS1_11PropertyKeyEEE
libmozjs128-debug.so:_Z12JS_InitClassP9JSContextN2JS6HandleIP8JSObjectEEPK7JSClassS5_PKcPFbS0_jPNS1_5ValueEEjPK14JSPropertySpecPK14JSFunctionSpecSH_SK_
libmozjs128-debug.so:_Z12JS_NewObjectP9JSContextPK7JSClass
libmozjs128-debug.so:_Z12JS_ParseJSONP9JSContextN2JS6HandleIP8JSStringEENS1_13MutableHandleINS1_5ValueEEE
libmozjs128-debug.so:_Z12JS_ParseJSONP9JSContextPKDsjN2JS13MutableHandleINS3_5ValueEEE
libmozjs128-debug.so:_Z12JS_ParseJSONP9JSContextPKhjN2JS13MutableHandleINS3_5ValueEEE
libmozjs128-debug.so:_Z12JS_ReadBytesP23JSStructuredCloneReaderPvm
libmozjs128-debug.so:_Z12JS_StringifyP9JSContextN2JS13MutableHandleINS1_5ValueEEENS1_6HandleIP8JSObjectEENS5_IS3_EEPFbPKDsjPvESC_
libmozjs128-debug.so:_Z12JS_ValueToIdP9JSContextN2JS6HandleINS1_5ValueEEENS1_13MutableHandleINS1_11PropertyKeyEEE
libmozjs128-debug.so:_Z12JS_WrapValueP9JSContextN2JS13MutableHandleINS1_5ValueEEE
libmozjs128-debug.so:_Z12JS_vsmprintfPKcP13__va_list_tag
libmozjs128-debug.so:_Z12js_StartPerfv
libmozjs128-debug.so:_Z13JS_GetElementP9JSContextN2JS6HandleIP8JSObjectEEjNS1_13MutableHandleINS1_5ValueEEE
libmozjs128-debug.so:_Z13JS_GetRuntimeP9JSContext
libmozjs128-debug.so:_Z13JS_HasElementP9JSContextN2JS6HandleIP8JSObjectEEjPb
libmozjs128-debug.so:_Z13JS_InstanceOfP9JSContextN2JS6HandleIP8JSObjectEEPK7JSClassPNS1_8CallArgsE
libmozjs128-debug.so:_Z13JS_NewContextjP9JSRuntime
libmozjs128-debug.so:_Z13JS_ReadDoubleP23JSStructuredCloneReaderPd
libmozjs128-debug.so:_Z13JS_ReadStringP23JSStructuredCloneReaderN2JS13MutableHandleIP8JSStringEE
libmozjs128-debug.so:_Z13JS_SetElementP9JSContextN2JS6HandleIP8JSObjectEEjNS2_INS1_5ValueEEE
libmozjs128-debug.so:_Z13JS_SetElementP9JSContextN2JS6HandleIP8JSObjectEEjNS2_IP8JSStringEE
libmozjs128-debug.so:_Z13JS_SetElementP9JSContextN2JS6HandleIP8JSObjectEEjS5_
libmozjs128-debug.so:_Z13JS_SetElementP9JSContextN2JS6HandleIP8JSObjectEEjd
libmozjs128-debug.so:_Z13JS_SetElementP9JSContextN2JS6HandleIP8JSObjectEEji
libmozjs128-debug.so:_Z13JS_SetElementP9JSContextN2JS6HandleIP8JSObjectEEjj
libmozjs128-debug.so:_Z13JS_StringToIdP9JSContextN2JS6HandleIP8JSStringEENS1_13MutableHandleINS1_11PropertyKeyEEE
libmozjs128-debug.so:_Z13JS_WrapObjectP9JSContextN2JS13MutableHandleIP8JSObjectEE
libmozjs128-debug.so:_Z13JS_WriteBytesP23JSStructuredCloneWriterPKvm
libmozjs128-debug.so:_Z14JS_CloneObjectP9JSContextN2JS6HandleIP8JSObjectEES5_
libmozjs128-debug.so:_Z14JS_DecodeBytesP9JSContextPKcmPDsPm
libmozjs128-debug.so:_Z14JS_DumpProfilePKcS0_
libmozjs128-debug.so:_Z14JS_GetPropertyP9JSContextN2JS6HandleIP8JSObjectEEPKcNS1_13MutableHandleINS1_5ValueEEE
libmozjs128-debug.so:_Z14JS_HasInstanceP9JSContextN2JS6HandleIP8JSObjectEENS2_INS1_5ValueEEEPb
libmozjs128-debug.so:_Z14JS_HasPropertyP9JSContextN2JS6HandleIP8JSObjectEEPKcPb
libmozjs128-debug.so:_Z14JS_NewDataViewP9JSContextN2JS6HandleIP8JSObjectEEmm
libmozjs128-debug.so:_Z14JS_NewFunctionP9JSContextPFbS0_jPN2JS5ValueEEjjPKc
libmozjs128-debug.so:_Z14JS_NewUCStringP9JSContextN7mozilla9UniquePtrIA_DsN2JS10FreePolicyEEEm
libmozjs128-debug.so:_Z14JS_SetPropertyP9JSContextN2JS6HandleIP8JSObjectEEPKcNS2_INS1_5ValueEEE
libmozjs128-debug.so:_Z14JS_TypeOfValueP9JSContextN2JS6HandleINS1_5ValueEEE
libmozjs128-debug.so:_Z14JS_WriteDoubleP23JSStructuredCloneWriterd
libmozjs128-debug.so:_Z14JS_WriteStringP23JSStructuredCloneWriterN2JS6HandleIP8JSStringEE
libmozjs128-debug.so:_Z14JS_string_freeP9JSContextPv
libmozjs128-debug.so:_Z15JS_AssignObjectP9JSContextN2JS6HandleIP8JSObjectEES5_
libmozjs128-debug.so:_Z15JS_CallFunctionP9JSContextN2JS6HandleIP8JSObjectEENS2_IP10JSFunctionEERKNS1_16HandleValueArrayENS1_13MutableHandleINS1_5ValueEEE
libmozjs128-debug.so:_Z15JS_DefineObjectP9JSContextN2JS6HandleIP8JSObjectEEPKcPK7JSClassj
libmozjs128-debug.so:_Z15JS_FreezeObjectP9JSContextN2JS6HandleIP8JSObjectEE
libmozjs128-debug.so:_Z15JS_GetErrorTypeRKN2JS5ValueE
libmozjs128-debug.so:_Z15JS_GetPrototypeP9JSContextN2JS6HandleIP8JSObjectEENS1_13MutableHandleIS4_EE
libmozjs128-debug.so:_Z15JS_IdToProtoKeyP9JSContextN2JS6HandleINS1_11PropertyKeyEEE
libmozjs128-debug.so:_Z15JS_IsExtensibleP9JSContextN2JS6HandleIP8JSObjectEEPb
libmozjs128-debug.so:_Z15JS_IsIdentifierP9JSContextN2JS6HandleIP8JSStringEEPb
libmozjs128-debug.so:_Z15JS_IsIdentifierPKDsm
libmozjs128-debug.so:_Z15JS_NewInt8ArrayP9JSContextm
libmozjs128-debug.so:_Z15JS_SetPrototypeP9JSContextN2JS6HandleIP8JSObjectEES5_
libmozjs128-debug.so:_Z16JS_AtomizeStringP9JSContextPKc
libmozjs128-debug.so:_Z16JS_ConcatStringsP9JSContextN2JS6HandleIP8JSStringEES5_
libmozjs128-debug.so:_Z16JS_DefineElementP9JSContextN2JS6HandleIP8JSObjectEEjNS2_INS1_5ValueEEEj
libmozjs128-debug.so:_Z16JS_DefineElementP9JSContextN2JS6HandleIP8JSObjectEEjNS2_IP8JSStringEEj
libmozjs128-debug.so:_Z16JS_DefineElementP9JSContextN2JS6HandleIP8JSObjectEEjS5_S5_j
libmozjs128-debug.so:_Z16JS_DefineElementP9JSContextN2JS6HandleIP8JSObjectEEjS5_j
libmozjs128-debug.so:_Z16JS_DefineElementP9JSContextN2JS6HandleIP8JSObjectEEjdj
libmozjs128-debug.so:_Z16JS_DefineElementP9JSContextN2JS6HandleIP8JSObjectEEjij
libmozjs128-debug.so:_Z16JS_DefineElementP9JSContextN2JS6HandleIP8JSObjectEEjjj
libmozjs128-debug.so:_Z16JS_DeleteElementP9JSContextN2JS6HandleIP8JSObjectEEj
libmozjs128-debug.so:_Z16JS_DeleteElementP9JSContextN2JS6HandleIP8JSObjectEEjRNS1_14ObjectOpResultE
libmozjs128-debug.so:_Z16JS_DoubleIsInt32dPi
libmozjs128-debug.so:_Z16JS_ExecuteScriptP9JSContextN2JS6HandleINS1_13StackGCVectorIP8JSObjectN2js15TempAllocPolicyEEEEENS2_IP8JSScriptEE
libmozjs128-debug.so:_Z16JS_ExecuteScriptP9JSContextN2JS6HandleINS1_13StackGCVectorIP8JSObjectN2js15TempAllocPolicyEEEEENS2_IP8JSScriptEENS1_13MutableHandleINS1_5ValueEEE
libmozjs128-debug.so:_Z16JS_ExecuteScriptP9JSContextN2JS6HandleIP8JSScriptEE
libmozjs128-debug.so:_Z16JS_ExecuteScriptP9JSContextN2JS6HandleIP8JSScriptEENS1_13MutableHandleINS1_5ValueEEE
libmozjs128-debug.so:_Z16JS_GetFunctionIdP9JSContextN2JS6HandleIP10JSFunctionEENS1_13MutableHandleIP8JSStringEE
libmozjs128-debug.so:_Z16JS_GetUCPropertyP9JSContextN2JS6HandleIP8JSObjectEEPKDsmNS1_13MutableHandleINS1_5ValueEEE
libmozjs128-debug.so:_Z16JS_HasUCPropertyP9JSContextN2JS6HandleIP8JSObjectEEPKDsmPb
libmozjs128-debug.so:_Z16JS_IsConstructorP10JSFunction
libmozjs128-debug.so:_Z16JS_IsDeadWrapperP8JSObject
libmozjs128-debug.so:_Z16JS_NewInt16ArrayP9JSContextm
libmozjs128-debug.so:_Z16JS_NewInt32ArrayP9JSContextm
libmozjs128-debug.so:_Z16JS_NewUint8ArrayP9JSContextm
libmozjs128-debug.so:_Z16JS_SetGCCallbackP9JSContextPFvS0_10JSGCStatusN2JS8GCReasonEPvES4_
libmozjs128-debug.so:_Z16JS_SetUCPropertyP9JSContextN2JS6HandleIP8JSObjectEEPKDsmNS2_INS1_5ValueEEE
libmozjs128-debug.so:_Z16JS_StopProfilingPKc
libmozjs128-debug.so:_Z16JS_ValueToObjectP9JSContextN2JS6HandleINS1_5ValueEEENS1_13MutableHandleIP8JSObjectEE
libmozjs128-debug.so:_Z16JS_ValueToSourceP9JSContextN2JS6HandleINS1_5ValueEEE
libmozjs128-debug.so:_Z16JS_string_mallocP9JSContextm
libmozjs128-debug.so:_Z17JS_AtomizeStringNP9JSContextPKcm
libmozjs128-debug.so:_Z17JS_CompareStringsP9JSContextP8JSStringS2_Pi
libmozjs128-debug.so:_Z17JS_DefineFunctionP9JSContextN2JS6HandleIP8JSObjectEEPKcPFbS0_jPNS1_5ValueEEjj
libmozjs128-debug.so:_Z17JS_DefinePropertyP9JSContextN2JS6HandleIP8JSObjectEEPKcNS2_INS1_5ValueEEEj
libmozjs128-debug.so:_Z17JS_DefinePropertyP9JSContextN2JS6HandleIP8JSObjectEEPKcNS2_IP8JSStringEEj
libmozjs128-debug.so:_Z17JS_DefinePropertyP9JSContextN2JS6HandleIP8JSObjectEEPKcPFbS0_jPNS1_5ValueEESB_j
libmozjs128-debug.so:_Z17JS_DefinePropertyP9JSContextN2JS6HandleIP8JSObjectEEPKcS5_S5_j
libmozjs128-debug.so:_Z17JS_DefinePropertyP9JSContextN2JS6HandleIP8JSObjectEEPKcS5_j
libmozjs128-debug.so:_Z17JS_DefinePropertyP9JSContextN2JS6HandleIP8JSObjectEEPKcdj
libmozjs128-debug.so:_Z17JS_DefinePropertyP9JSContextN2JS6HandleIP8JSObjectEEPKcij
libmozjs128-debug.so:_Z17JS_DefinePropertyP9JSContextN2JS6HandleIP8JSObjectEEPKcjj
libmozjs128-debug.so:_Z17JS_DeletePropertyP9JSContextN2JS6HandleIP8JSObjectEEPKc
libmozjs128-debug.so:_Z17JS_DeletePropertyP9JSContextN2JS6HandleIP8JSObjectEEPKcRNS1_14ObjectOpResultE
libmozjs128-debug.so:_Z17JS_DestroyContextP9JSContext
libmozjs128-debug.so:_Z17JS_DropPrincipalsP9JSContextP12JSPrincipals
libmozjs128-debug.so:_Z17JS_GetClassObjectP9JSContext10JSProtoKeyN2JS13MutableHandleIP8JSObjectEE
libmozjs128-debug.so:_Z17JS_GetConstructorP9JSContextN2JS6HandleIP8JSObjectEE
libmozjs128-debug.so:_Z17JS_GetEmptyStringP9JSContext
libmozjs128-debug.so:_Z17JS_GetGCParameterP9JSContext12JSGCParamKey
libmozjs128-debug.so:_Z17JS_HasOwnPropertyP9JSContextN2JS6HandleIP8JSObjectEEPKcPb
libmozjs128-debug.so:_Z17JS_HoldPrincipalsP12JSPrincipals
libmozjs128-debug.so:_Z17JS_IsGlobalObjectP8JSObject
libmozjs128-debug.so:_Z17JS_NewDeadWrapperP9JSContextP8JSObject
libmozjs128-debug.so:_Z17JS_NewPlainObjectP9JSContext
libmozjs128-debug.so:_Z17JS_NewStringCopyNP9JSContextPKcm
libmozjs128-debug.so:_Z17JS_NewStringCopyZP9JSContextPKc
libmozjs128-debug.so:_Z17JS_NewUint16ArrayP9JSContextm
libmozjs128-debug.so:_Z17JS_NewUint32ArrayP9JSContextm
libmozjs128-debug.so:_Z17JS_PCToLineNumberP8JSScriptPhPN2JS28LimitedColumnNumberOneOriginE
libmozjs128-debug.so:_Z17JS_PauseProfilersPKc
libmozjs128-debug.so:_Z17JS_ReadTypedArrayP23JSStructuredCloneReaderN2JS13MutableHandleINS1_5ValueEEE
libmozjs128-debug.so:_Z17JS_ReadUint32PairP23JSStructuredCloneReaderPjS1_
libmozjs128-debug.so:_Z17JS_SetGCParameterP9JSContext12JSGCParamKeyj
libmozjs128-debug.so:_Z17JS_StartProfilingPKci
libmozjs128-debug.so:_Z17JS_StringIsLinearP8JSString
libmozjs128-debug.so:_Z17JS_sprintf_appendON7mozilla9UniquePtrIA_cN2JS10FreePolicyEEEPKcz
libmozjs128-debug.so:_Z17JS_string_reallocP9JSContextPvmm
libmozjs128-debug.so:_Z18JS_AtomizeUCStringP9JSContextPKDs
libmozjs128-debug.so:_Z18JS_CopyStringCharsP9JSContextRKN7mozilla5RangeIDsEEP8JSString
libmozjs128-debug.so:_Z18JS_DecompileScriptP9JSContextN2JS6HandleIP8JSScriptEE
libmozjs128-debug.so:_Z18JS_DefineFunctionsP9JSContextN2JS6HandleIP8JSObjectEEPK14JSFunctionSpec
libmozjs128-debug.so:_Z18JS_GetPropertyByIdP9JSContextN2JS6HandleIP8JSObjectEENS2_INS1_11PropertyKeyEEENS1_13MutableHandleINS1_5ValueEEE
libmozjs128-debug.so:_Z18JS_GetStringCharAtP9JSContextP8JSStringmPDs
libmozjs128-debug.so:_Z18JS_GetStringLengthP8JSString
libmozjs128-debug.so:_Z18JS_GetZoneUserDataPN2JS4ZoneE
libmozjs128-debug.so:_Z18JS_HasPropertyByIdP9JSContextN2JS6HandleIP8JSObjectEENS2_INS1_11PropertyKeyEEEPb
libmozjs128-debug.so:_Z18JS_MarkCrossZoneIdP9JSContextN2JS11PropertyKeyE
libmozjs128-debug.so:_Z18JS_NewFloat16ArrayP9JSContextm
libmozjs128-debug.so:_Z18JS_NewFloat32ArrayP9JSContextm
libmozjs128-debug.so:_Z18JS_NewFloat64ArrayP9JSContextm
libmozjs128-debug.so:_Z18JS_NewGlobalObjectP9JSContextPK7JSClassP12JSPrincipalsN2JS21OnNewGlobalHookOptionERKNS6_12RealmOptionsE
libmozjs128-debug.so:_Z18JS_NewLatin1StringP9JSContextN7mozilla9UniquePtrIA_hN2JS10FreePolicyEEEm
libmozjs128-debug.so:_Z18JS_ReportErrorUTF8P9JSContextPKcz
libmozjs128-debug.so:_Z18JS_ResumeProfilersPKc
libmozjs128-debug.so:_Z18JS_SetFutexCanWaitP9JSContext
libmozjs128-debug.so:_Z18JS_SetPropertyByIdP9JSContextN2JS6HandleIP8JSObjectEENS2_INS1_11PropertyKeyEEENS2_INS1_5ValueEEE
libmozjs128-debug.so:_Z18JS_SetReservedSlotP8JSObjectjRKN2JS5ValueE
libmozjs128-debug.so:_Z18JS_SetZoneUserDataPN2JS4ZoneEPv
libmozjs128-debug.so:_Z18JS_StructuredCloneP9JSContextN2JS6HandleINS1_5ValueEEENS1_13MutableHandleIS3_EEPK26JSStructuredCloneCallbacksPv
libmozjs128-debug.so:_Z18JS_ValueToFunctionP9JSContextN2JS6HandleINS1_5ValueEEE
libmozjs128-debug.so:_Z18JS_WriteTypedArrayP23JSStructuredCloneWriterN2JS6HandleINS1_5ValueEEE
libmozjs128-debug.so:_Z18JS_WriteUint32PairP23JSStructuredCloneWriterjj
libmozjs128-debug.so:_Z18JS_vsprintf_appendON7mozilla9UniquePtrIA_cN2JS10FreePolicyEEEPKcP13__va_list_tag
libmozjs128-debug.so:_Z19JS_AtomizeUCStringNP9JSContextPKDsm
libmozjs128-debug.so:_Z19JS_CallFunctionNameP9JSContextN2JS6HandleIP8JSObjectEEPKcRKNS1_16HandleValueArrayENS1_13MutableHandleINS1_5ValueEEE
libmozjs128-debug.so:_Z19JS_CopyStringCharsZP9JSContextP8JSString
libmozjs128-debug.so:_Z19JS_DeepFreezeObjectP9JSContextN2JS6HandleIP8JSObjectEE
libmozjs128-debug.so:_Z19JS_DefinePropertiesP9JSContextN2JS6HandleIP8JSObjectEEPK14JSPropertySpec
libmozjs128-debug.so:_Z19JS_DefineUCFunctionP9JSContextN2JS6HandleIP8JSObjectEEPKDsmPFbS0_jPNS1_5ValueEEjj
libmozjs128-debug.so:_Z19JS_DefineUCPropertyP9JSContextN2JS6HandleIP8JSObjectEEPKDsmNS2_INS1_18PropertyDescriptorEEE
libmozjs128-debug.so:_Z19JS_DefineUCPropertyP9JSContextN2JS6HandleIP8JSObjectEEPKDsmNS2_INS1_18PropertyDescriptorEEERNS1_14ObjectOpResultE
libmozjs128-debug.so:_Z19JS_DefineUCPropertyP9JSContextN2JS6HandleIP8JSObjectEEPKDsmNS2_INS1_5ValueEEEj
libmozjs128-debug.so:_Z19JS_DefineUCPropertyP9JSContextN2JS6HandleIP8JSObjectEEPKDsmNS2_IP8JSStringEEj
libmozjs128-debug.so:_Z19JS_DefineUCPropertyP9JSContextN2JS6HandleIP8JSObjectEEPKDsmS5_S5_j
libmozjs128-debug.so:_Z19JS_DefineUCPropertyP9JSContextN2JS6HandleIP8JSObjectEEPKDsmS5_j
libmozjs128-debug.so:_Z19JS_DefineUCPropertyP9JSContextN2JS6HandleIP8JSObjectEEPKDsmdj
libmozjs128-debug.so:_Z19JS_DefineUCPropertyP9JSContextN2JS6HandleIP8JSObjectEEPKDsmij
libmozjs128-debug.so:_Z19JS_DefineUCPropertyP9JSContextN2JS6HandleIP8JSObjectEEPKDsmjj
libmozjs128-debug.so:_Z19JS_DeleteUCPropertyP9JSContextN2JS6HandleIP8JSObjectEEPKDsmRNS1_14ObjectOpResultE
libmozjs128-debug.so:_Z19JS_GetDefaultLocaleP9JSContext
libmozjs128-debug.so:_Z19JS_GetFunctionArityP10JSFunction
libmozjs128-debug.so:_Z19JS_GetInt8ArrayDataP8JSObjectPbRKN2JS15AutoRequireNoGCE
libmozjs128-debug.so:_Z19JS_GetParentRuntimeP9JSContext
libmozjs128-debug.so:_Z19JS_InitReflectParseP9JSContextN2JS6HandleIP8JSObjectEE
libmozjs128-debug.so:_Z19JS_InitReservedSlotP8JSObjectjPvmN2JS9MemoryUseE
libmozjs128-debug.so:_Z19JS_IsNativeFunctionP8JSObjectPFbP9JSContextjPN2JS5ValueEE
libmozjs128-debug.so:_Z19JS_NewBigInt64ArrayP9JSContextm
libmozjs128-debug.so:_Z19JS_NewUCStringCopyNP9JSContextPKDsm
libmozjs128-debug.so:_Z19JS_NewUCStringCopyZP9JSContextPKDs
libmozjs128-debug.so:_Z19JS_ObjectIsFunctionP8JSObject
libmozjs128-debug.so:_Z19JS_ObjectNotWrittenP23JSStructuredCloneWriterN2JS6HandleIP8JSObjectEE
libmozjs128-debug.so:_Z19JS_PutEscapedStringP9JSContextPcmP8JSStringc
libmozjs128-debug.so:_Z19JS_ReportErrorASCIIP9JSContextPKcz
libmozjs128-debug.so:_Z19JS_ResetGCParameterP9JSContext12JSGCParamKey
libmozjs128-debug.so:_Z19JS_SetDefaultLocaleP9JSRuntimePKc
libmozjs128-debug.so:_Z19JS_TransplantObjectP9JSContextN2JS6HandleIP8JSObjectEES5_
libmozjs128-debug.so:_Z19mozalloc_handle_oomm
libmozjs128-debug.so:_Z20JS_CallFunctionValueP9JSContextN2JS6HandleIP8JSObjectEENS2_INS1_5ValueEEERKNS1_16HandleValueArrayENS1_13MutableHandleIS6_EE
libmozjs128-debug.so:_Z20JS_CheckForInterruptP9JSContext
libmozjs128-debug.so:_Z20JS_DecompileFunctionP9JSContextN2JS6HandleIP10JSFunctionEE
libmozjs128-debug.so:_Z20JS_GetClassPrototypeP9JSContext10JSProtoKeyN2JS13MutableHandleIP8JSObjectEE
libmozjs128-debug.so:_Z20JS_GetContextPrivateP9JSContext
libmozjs128-debug.so:_Z20JS_GetFunctionLengthP9JSContextN2JS6HandleIP10JSFunctionEEPt
libmozjs128-debug.so:_Z20JS_GetFunctionObjectP10JSFunction
libmozjs128-debug.so:_Z20JS_GetFunctionScriptP9JSContextN2JS6HandleIP10JSFunctionEE
libmozjs128-debug.so:_Z20JS_GetInt16ArrayDataP8JSObjectPbRKN2JS15AutoRequireNoGCE
libmozjs128-debug.so:_Z20JS_GetInt32ArrayDataP8JSObjectPbRKN2JS15AutoRequireNoGCE
libmozjs128-debug.so:_Z20JS_GetObjectFunctionP8JSObject
libmozjs128-debug.so:_Z20JS_GetScriptFilenameP8JSScript
libmozjs128-debug.so:_Z20JS_GetUint8ArrayDataP8JSObjectPbRKN2JS15AutoRequireNoGCE
libmozjs128-debug.so:_Z20JS_NewBigUint64ArrayP9JSContextm
libmozjs128-debug.so:_Z20JS_PreventExtensionsP9JSContextN2JS6HandleIP8JSObjectEERNS1_14ObjectOpResultE
libmozjs128-debug.so:_Z20JS_ReportErrorLatin1P9JSContextPKcz
libmozjs128-debug.so:_Z20JS_ReportOutOfMemoryP9JSContext
libmozjs128-debug.so:_Z20JS_SetContextPrivateP9JSContextPv
libmozjs128-debug.so:_Z20JS_StringEqualsAsciiP9JSContextP8JSStringPKcPb
libmozjs128-debug.so:_Z20JS_StringEqualsAsciiP9JSContextP8JSStringPKcmPb
libmozjs128-debug.so:_Z21JS_AbortIfWrongThreadP9JSContext
libmozjs128-debug.so:_Z21JS_DefineFunctionByIdP9JSContextN2JS6HandleIP8JSObjectEENS2_INS1_11PropertyKeyEEEPFbS0_jPNS1_5ValueEEjj
libmozjs128-debug.so:_Z21JS_DefinePropertyByIdP9JSContextN2JS6HandleIP8JSObjectEENS2_INS1_11PropertyKeyEEENS2_INS1_18PropertyDescriptorEEE
libmozjs128-debug.so:_Z21JS_DefinePropertyByIdP9JSContextN2JS6HandleIP8JSObjectEENS2_INS1_11PropertyKeyEEENS2_INS1_18PropertyDescriptorEEERNS1_14ObjectOpResultE
libmozjs128-debug.so:_Z21JS_DefinePropertyByIdP9JSContextN2JS6HandleIP8JSObjectEENS2_INS1_11PropertyKeyEEENS2_INS1_5ValueEEEj
libmozjs128-debug.so:_Z21JS_DefinePropertyByIdP9JSContextN2JS6HandleIP8JSObjectEENS2_INS1_11PropertyKeyEEENS2_IP8JSStringEEj
libmozjs128-debug.so:_Z21JS_DefinePropertyByIdP9JSContextN2JS6HandleIP8JSObjectEENS2_INS1_11PropertyKeyEEEPFbS0_jPNS1_5ValueEESB_j
libmozjs128-debug.so:_Z21JS_DefinePropertyByIdP9JSContextN2JS6HandleIP8JSObjectEENS2_INS1_11PropertyKeyEEES5_S5_j
libmozjs128-debug.so:_Z21JS_DefinePropertyByIdP9JSContextN2JS6HandleIP8JSObjectEENS2_INS1_11PropertyKeyEEES5_j
libmozjs128-debug.so:_Z21JS_DefinePropertyByIdP9JSContextN2JS6HandleIP8JSObjectEENS2_INS1_11PropertyKeyEEEdj
libmozjs128-debug.so:_Z21JS_DefinePropertyByIdP9JSContextN2JS6HandleIP8JSObjectEENS2_INS1_11PropertyKeyEEEij
libmozjs128-debug.so:_Z21JS_DefinePropertyByIdP9JSContextN2JS6HandleIP8JSObjectEENS2_INS1_11PropertyKeyEEEjj
libmozjs128-debug.so:_Z21JS_DeletePropertyByIdP9JSContextN2JS6HandleIP8JSObjectEENS2_INS1_11PropertyKeyEEE
libmozjs128-debug.so:_Z21JS_DeletePropertyByIdP9JSContextN2JS6HandleIP8JSObjectEENS2_INS1_11PropertyKeyEEERNS1_14ObjectOpResultE
libmozjs128-debug.so:_Z21JS_EncodeStringToUTF8P9JSContextN2JS6HandleIP8JSStringEE
libmozjs128-debug.so:_Z21JS_EnsureLinearStringP9JSContextP8JSString
libmozjs128-debug.so:_Z21JS_ErrorFromExceptionP9JSContextN2JS6HandleIP8JSObjectEE
libmozjs128-debug.so:_Z21JS_GetLocaleCallbacksP9JSRuntime
libmozjs128-debug.so:_Z21JS_GetUint16ArrayDataP8JSObjectPbRKN2JS15AutoRequireNoGCE
libmozjs128-debug.so:_Z21JS_GetUint32ArrayDataP8JSObjectPbRKN2JS15AutoRequireNoGCE
libmozjs128-debug.so:_Z21JS_HasOwnPropertyByIdP9JSContextN2JS6HandleIP8JSObjectEENS2_INS1_11PropertyKeyEEEPb
libmozjs128-debug.so:_Z21JS_IsExceptionPendingP9JSContext
libmozjs128-debug.so:_Z21JS_IsTypedArrayObjectP8JSObject
libmozjs128-debug.so:_Z21JS_NewDependentStringP9JSContextN2JS6HandleIP8JSStringEEmm
libmozjs128-debug.so:_Z21JS_NewStringCopyUTF8NP9JSContextRKN2JS9UTF8CharsE
libmozjs128-debug.so:_Z21JS_NewStringCopyUTF8ZP9JSContextN2JS15ConstUTF8CharsZE
libmozjs128-debug.so:_Z21JS_ResetDefaultLocaleP9JSRuntime
libmozjs128-debug.so:_Z21JS_SetLocaleCallbacksP9JSRuntimePK17JSLocaleCallbacks
libmozjs128-debug.so:_Z21JS_ValueToConstructorP9JSContextN2JS6HandleINS1_5ValueEEE
libmozjs128-debug.so:_Z22JS_AddFinalizeCallbackP9JSContextPFvPN2JS9GCContextE16JSFinalizeStatusPvES5_
libmozjs128-debug.so:_Z22JS_AtomizeAndPinStringP9JSContextPKc
libmozjs128-debug.so:_Z22JS_EncodeStringToASCIIP9JSContextP8JSString
libmozjs128-debug.so:_Z22JS_ForwardGetElementToP9JSContextN2JS6HandleIP8JSObjectEEjS5_NS1_13MutableHandleINS1_5ValueEEE
libmozjs128-debug.so:_Z22JS_GetEmptyStringValueP9JSContext
libmozjs128-debug.so:_Z22JS_GetFloat16ArrayDataP8JSObjectPbRKN2JS15AutoRequireNoGCE
libmozjs128-debug.so:_Z22JS_GetFloat32ArrayDataP8JSObjectPbRKN2JS15AutoRequireNoGCE
libmozjs128-debug.so:_Z22JS_GetFloat64ArrayDataP8JSObjectPbRKN2JS15AutoRequireNoGCE
libmozjs128-debug.so:_Z22JS_GetGlobalFromScriptP8JSScript
libmozjs128-debug.so:_Z22JS_GetPendingExceptionP9JSContextN2JS13MutableHandleINS1_5ValueEEE
libmozjs128-debug.so:_Z22JS_GetScriptPrincipalsP8JSScript
libmozjs128-debug.so:_Z22JS_GetTypedArrayLengthP8JSObject
libmozjs128-debug.so:_Z22JS_IterateCompartmentsP9JSContextPvPFN2JS21CompartmentIterResultES0_S1_PNS2_11CompartmentEE
libmozjs128-debug.so:_Z22JS_NewExternalUCStringP9JSContextPKDsmPK25JSExternalStringCallbacks
libmozjs128-debug.so:_Z22JS_ReadStructuredCloneP9JSContextRK21JSStructuredCloneDatajN2JS20StructuredCloneScopeENS4_13MutableHandleINS4_5ValueEEERKNS4_15CloneDataPolicyEPK26JSStructuredCloneCallbacksPv
libmozjs128-debug.so:_Z22JS_ReportErrorNumberUCP9JSContextPFPK19JSErrorFormatStringPvjES4_jz
libmozjs128-debug.so:_Z22JS_SetNativeStackQuotaP9JSContextmmm
libmozjs128-debug.so:_Z22JS_SetPendingExceptionP9JSContextN2JS6HandleINS1_5ValueEEENS1_22ExceptionStackBehaviorE
libmozjs128-debug.so:_Z22JS_StringHasBeenPinnedP9JSContextP8JSString
libmozjs128-debug.so:_Z23JS_AddInterruptCallbackP9JSContextPFbS0_E
libmozjs128-debug.so:_Z23JS_AlreadyHasOwnElementP9JSContextN2JS6HandleIP8JSObjectEEjPb
libmozjs128-debug.so:_Z23JS_AtomizeAndPinStringNP9JSContextPKcm
libmozjs128-debug.so:_Z23JS_DefineDebuggerObjectP9JSContextN2JS6HandleIP8JSObjectEE
libmozjs128-debug.so:_Z23JS_EncodeStringToBufferP9JSContextP8JSStringPcm
libmozjs128-debug.so:_Z23JS_EncodeStringToLatin1P9JSContextP8JSString
libmozjs128-debug.so:_Z23JS_FindCompilationScopeP9JSContextN2JS6HandleIP8JSObjectEE
libmozjs128-debug.so:_Z23JS_ForwardGetPropertyToP9JSContextN2JS6HandleIP8JSObjectEENS2_INS1_11PropertyKeyEEENS2_INS1_5ValueEEENS1_13MutableHandleIS8_EE
libmozjs128-debug.so:_Z23JS_ForwardSetPropertyToP9JSContextN2JS6HandleIP8JSObjectEENS2_INS1_11PropertyKeyEEENS2_INS1_5ValueEEES9_RNS1_14ObjectOpResultE
libmozjs128-debug.so:_Z23JS_FrontendOnlyShutDownv
libmozjs128-debug.so:_Z23JS_GetBigInt64ArrayDataP8JSObjectPbRKN2JS15AutoRequireNoGCE
libmozjs128-debug.so:_Z23JS_GetFunctionDisplayIdP9JSContextN2JS6HandleIP10JSFunctionEENS1_13MutableHandleIP8JSStringEE
libmozjs128-debug.so:_Z23JS_GetObjectAsInt8ArrayP8JSObjectPmPbPPa
libmozjs128-debug.so:_Z23JS_GetSecurityCallbacksP9JSContext
libmozjs128-debug.so:_Z23JS_MarkCrossZoneIdValueP9JSContextRKN2JS5ValueE
libmozjs128-debug.so:_Z23JS_NewUint8ClampedArrayP9JSContextm
libmozjs128-debug.so:_Z23JS_ParseJSONWithReviverP9JSContextN2JS6HandleIP8JSStringEENS2_INS1_5ValueEEENS1_13MutableHandleIS6_EE
libmozjs128-debug.so:_Z23JS_ParseJSONWithReviverP9JSContextPKDsjN2JS6HandleINS3_5ValueEEENS3_13MutableHandleIS5_EE
libmozjs128-debug.so:_Z23JS_ResolveStandardClassP9JSContextN2JS6HandleIP8JSObjectEENS2_INS1_11PropertyKeyEEEPb
libmozjs128-debug.so:_Z23JS_ScriptHasMutedErrorsP8JSScript
libmozjs128-debug.so:_Z23JS_SetGrayGCRootsTracerP9JSContextPFbP8JSTracerRN2js11SliceBudgetEPvES6_
libmozjs128-debug.so:_Z23JS_SetSecurityCallbacksP9JSContextPK19JSSecurityCallbacks
libmozjs128-debug.so:_Z23JS_SetTrustedPrincipalsP9JSContextP12JSPrincipals
libmozjs128-debug.so:_Z23JS_WriteStructuredCloneP9JSContextN2JS6HandleINS1_5ValueEEEP21JSStructuredCloneDataNS1_20StructuredCloneScopeERKNS1_15CloneDataPolicyEPK26JSStructuredCloneCallbacksPvS4_
libmozjs128-debug.so:_Z24JS_AddExtraGCRootsTracerP9JSContextPFvP8JSTracerPvES3_
libmozjs128-debug.so:_Z24JS_AlreadyHasOwnPropertyP9JSContextN2JS6HandleIP8JSObjectEEPKcPb
libmozjs128-debug.so:_Z24JS_ClearPendingExceptionP9JSContext
libmozjs128-debug.so:_Z24JS_FireOnNewGlobalObjectP9JSContextN2JS6HandleIP8JSObjectEE
libmozjs128-debug.so:_Z24JS_GetBigUint64ArrayDataP8JSObjectPbRKN2JS15AutoRequireNoGCE
libmozjs128-debug.so:_Z24JS_GetCompartmentPrivatePN2JS11CompartmentE
libmozjs128-debug.so:_Z24JS_GetObjectAsInt16ArrayP8JSObjectPmPbPPs
libmozjs128-debug.so:_Z24JS_GetObjectAsInt32ArrayP8JSObjectPmPbPPi
libmozjs128-debug.so:_Z24JS_GetObjectAsUint8ArrayP8JSObjectPmPbPPh
libmozjs128-debug.so:_Z24JS_GetPropertyDescriptorP9JSContextN2JS6HandleIP8JSObjectEEPKcNS1_13MutableHandleIN7mozilla5MaybeINS1_18PropertyDescriptorEEEEENS8_IS4_EE
libmozjs128-debug.so:_Z24JS_GlobalObjectTraceHookP8JSTracerP8JSObject
libmozjs128-debug.so:_Z24JS_IsBuiltinEvalFunctionP10JSFunction
libmozjs128-debug.so:_Z24JS_IsThrowingOutOfMemoryP9JSContext
libmozjs128-debug.so:_Z24JS_NewInt8ArrayFromArrayP9JSContextN2JS6HandleIP8JSObjectEE
libmozjs128-debug.so:_Z24JS_ObjectIsBoundFunctionP8JSObject
libmozjs128-debug.so:_Z24JS_ReportErrorNumberUTF8P9JSContextPFPK19JSErrorFormatStringPvjES4_jz
libmozjs128-debug.so:_Z24JS_SetCompartmentPrivatePN2JS11CompartmentEPv
libmozjs128-debug.so:_Z24JS_SetICUMemoryFunctionsPFPvPKvmEPFS_S1_S_mEPFvS1_S_E
libmozjs128-debug.so:_Z24JS_SetImmutablePrototypeP9JSContextN2JS6HandleIP8JSObjectEEPb
libmozjs128-debug.so:_Z25JS_GetArrayBufferViewDataP8JSObjectPbRKN2JS15AutoRequireNoGCE
libmozjs128-debug.so:_Z25JS_GetArrayBufferViewTypeP8JSObject
libmozjs128-debug.so:_Z25JS_GetBoundFunctionTargetP8JSObject
libmozjs128-debug.so:_Z25JS_GetObjectAsUint16ArrayP8JSObjectPmPbPPt
libmozjs128-debug.so:_Z25JS_GetObjectAsUint32ArrayP8JSObjectPmPbPPj
libmozjs128-debug.so:_Z25JS_GetPrototypeIfOrdinaryP9JSContextN2JS6HandleIP8JSObjectEEPbNS1_13MutableHandleIS4_EE
libmozjs128-debug.so:_Z25JS_NewInt16ArrayFromArrayP9JSContextN2JS6HandleIP8JSObjectEE
libmozjs128-debug.so:_Z25JS_NewInt32ArrayFromArrayP9JSContextN2JS6HandleIP8JSObjectEE
libmozjs128-debug.so:_Z25JS_NewInt8ArrayWithBufferP9JSContextN2JS6HandleIP8JSObjectEEml
libmozjs128-debug.so:_Z25JS_NewUCStringDontDeflateP9JSContextN7mozilla9UniquePtrIA_DsN2JS10FreePolicyEEEm
libmozjs128-debug.so:_Z25JS_NewUint8ArrayFromArrayP9JSContextN2JS6HandleIP8JSObjectEE
libmozjs128-debug.so:_Z25JS_PutEscapedLinearStringPcmP14JSLinearStringc
libmozjs128-debug.so:_Z25JS_RemoveFinalizeCallbackP9JSContextPFvPN2JS9GCContextE16JSFinalizeStatusPvE
libmozjs128-debug.so:_Z25JS_ReportErrorNumberASCIIP9JSContextPFPK19JSErrorFormatStringPvjES4_jz
libmozjs128-debug.so:_Z25JS_ResetInterruptCallbackP9JSContextb
libmozjs128-debug.so:_Z25JS_SetDestroyZoneCallbackP9JSContextPFvPN2JS9GCContextEPNS1_4ZoneEE
libmozjs128-debug.so:_Z25JS_SetWrapObjectCallbacksP9JSContextPK21JSWrapObjectCallbacks
libmozjs128-debug.so:_Z25JS_WrapPropertyDescriptorP9JSContextN2JS13MutableHandleIN7mozilla5MaybeINS1_18PropertyDescriptorEEEEE
libmozjs128-debug.so:_Z25JS_WrapPropertyDescriptorP9JSContextN2JS13MutableHandleINS1_18PropertyDescriptorEEE
libmozjs128-debug.so:_Z26JS_AlreadyHasOwnUCPropertyP9JSContextN2JS6HandleIP8JSObjectEEPKDsmPb
libmozjs128-debug.so:_Z26JS_DefineFunctionsWithHelpP9JSContextN2JS6HandleIP8JSObjectEEPK22JSFunctionSpecWithHelp
libmozjs128-debug.so:_Z26JS_GetObjectAsFloat16ArrayP8JSObjectPmPbPPt
libmozjs128-debug.so:_Z26JS_GetObjectAsFloat32ArrayP8JSObjectPmPbPPf
libmozjs128-debug.so:_Z26JS_GetObjectAsFloat64ArrayP8JSObjectPmPbPPd
libmozjs128-debug.so:_Z26JS_GetScriptBaseLineNumberP9JSContextP8JSScript
libmozjs128-debug.so:_Z26JS_GetStringEncodingLengthP9JSContextP8JSString
libmozjs128-debug.so:_Z26JS_GetStructuredCloneScopeP23JSStructuredCloneWriter
libmozjs128-debug.so:_Z26JS_GetTypedArrayByteLengthP8JSObject
libmozjs128-debug.so:_Z26JS_GetTypedArrayByteOffsetP8JSObject
libmozjs128-debug.so:_Z26JS_GetTypedArraySharednessP8JSObject
libmozjs128-debug.so:_Z26JS_GetUCPropertyDescriptorP9JSContextN2JS6HandleIP8JSObjectEEPKDsmNS1_13MutableHandleIN7mozilla5MaybeINS1_18PropertyDescriptorEEEEENS8_IS4_EE
libmozjs128-debug.so:_Z26JS_IsArrayBufferViewObjectP8JSObject
libmozjs128-debug.so:_Z26JS_LinearStringEqualsAsciiP14JSLinearStringPKc
libmozjs128-debug.so:_Z26JS_LinearStringEqualsAsciiP14JSLinearStringPKcm
libmozjs128-debug.so:_Z26JS_MayResolveStandardClassRK11JSAtomStateN2JS11PropertyKeyEP8JSObject
libmozjs128-debug.so:_Z26JS_NewExternalStringLatin1P9JSContextPKhmPK25JSExternalStringCallbacks
libmozjs128-debug.so:_Z26JS_NewInt16ArrayWithBufferP9JSContextN2JS6HandleIP8JSObjectEEml
libmozjs128-debug.so:_Z26JS_NewInt32ArrayWithBufferP9JSContextN2JS6HandleIP8JSObjectEEml
libmozjs128-debug.so:_Z26JS_NewObjectForConstructorP9JSContextPK7JSClassRKN2JS8CallArgsE
libmozjs128-debug.so:_Z26JS_NewObjectWithGivenProtoP9JSContextPK7JSClassN2JS6HandleIP8JSObjectEE
libmozjs128-debug.so:_Z26JS_NewUint16ArrayFromArrayP9JSContextN2JS6HandleIP8JSObjectEE
libmozjs128-debug.so:_Z26JS_NewUint32ArrayFromArrayP9JSContextN2JS6HandleIP8JSObjectEE
libmozjs128-debug.so:_Z26JS_NewUint8ArrayWithBufferP9JSContextN2JS6HandleIP8JSObjectEEml
libmozjs128-debug.so:_Z26JS_ReportErrorNumberLatin1P9JSContextPFPK19JSErrorFormatStringPvjES4_jz
libmozjs128-debug.so:_Z26JS_ReportErrorNumberUTF8VAP9JSContextPFPK19JSErrorFormatStringPvjES4_jP13__va_list_tag
libmozjs128-debug.so:_Z27JS_DefineProfilingFunctionsP9JSContextN2JS6HandleIP8JSObjectEE
libmozjs128-debug.so:_Z27JS_DisableInterruptCallbackP9JSContext
libmozjs128-debug.so:_Z27JS_EnumerateStandardClassesP9JSContextN2JS6HandleIP8JSObjectEE
libmozjs128-debug.so:_Z27JS_GetArrayBufferViewBufferP9JSContextN2JS6HandleIP8JSObjectEEPb
libmozjs128-debug.so:_Z27JS_GetImplementationVersionv
libmozjs128-debug.so:_Z27JS_GetObjectAsBigInt64ArrayP8JSObjectPmPbPPl
libmozjs128-debug.so:_Z27JS_GetOwnPropertyDescriptorP9JSContextN2JS6HandleIP8JSObjectEEPKcNS1_13MutableHandleIN7mozilla5MaybeINS1_18PropertyDescriptorEEEEE
libmozjs128-debug.so:_Z27JS_GetUint8ClampedArrayDataP8JSObjectPbRKN2JS15AutoRequireNoGCE
libmozjs128-debug.so:_Z27JS_GlobalLexicalEnvironmentP8JSObject
libmozjs128-debug.so:_Z27JS_MaxMovableTypedArraySizev
libmozjs128-debug.so:_Z27JS_NewFloat16ArrayFromArrayP9JSContextN2JS6HandleIP8JSObjectEE
libmozjs128-debug.so:_Z27JS_NewFloat32ArrayFromArrayP9JSContextN2JS6HandleIP8JSObjectEE
libmozjs128-debug.so:_Z27JS_NewFloat64ArrayFromArrayP9JSContextN2JS6HandleIP8JSObjectEE
libmozjs128-debug.so:_Z27JS_NewMaybeExternalUCStringP9JSContextPKDsmPK25JSExternalStringCallbacksPb
libmozjs128-debug.so:_Z27JS_NewObjectWithoutMetadataP9JSContextPK7JSClassN2JS6HandleIP8JSObjectEE
libmozjs128-debug.so:_Z27JS_NewUint16ArrayWithBufferP9JSContextN2JS6HandleIP8JSObjectEEml
libmozjs128-debug.so:_Z27JS_NewUint32ArrayWithBufferP9JSContextN2JS6HandleIP8JSObjectEEml
libmozjs128-debug.so:_Z27JS_RemoveExtraGCRootsTracerP9JSContextPFvP8JSTracerPvES3_
libmozjs128-debug.so:_Z27JS_ReportAllocationOverflowP9JSContext
libmozjs128-debug.so:_Z27JS_ReportErrorNumberASCIIVAP9JSContextPFPK19JSErrorFormatStringPvjES4_jP13__va_list_tag
libmozjs128-debug.so:_Z27JS_ReportErrorNumberUCArrayP9JSContextPFPK19JSErrorFormatStringPvjES4_jPPKDs
libmozjs128-debug.so:_Z27JS_RequestInterruptCallbackP9JSContext
libmozjs128-debug.so:_Z27JS_SetSetUseCounterCallbackP9JSContextPFvP8JSObject12JSUseCounterE
libmozjs128-debug.so:_Z27JS_UpdateWeakPointerAfterGCP8JSTracerPN2JS4HeapIP8JSObjectEE
libmozjs128-debug.so:_Z28JS_AlreadyHasOwnPropertyByIdP9JSContextN2JS6HandleIP8JSObjectEENS2_INS1_11PropertyKeyEEEPb
libmozjs128-debug.so:_Z28JS_ExpandErrorArgumentsASCIIP9JSContextPFPK19JSErrorFormatStringPvjEjP13JSErrorReportz
libmozjs128-debug.so:_Z28JS_GetInt8ArrayLengthAndDataP8JSObjectPmPbRKN2JS15AutoRequireNoGCE
libmozjs128-debug.so:_Z28JS_GetMaybePartialFunctionIdP10JSFunction
libmozjs128-debug.so:_Z28JS_GetObjectAsBigUint64ArrayP8JSObjectPmPbPS1_
libmozjs128-debug.so:_Z28JS_GetPropertyDescriptorByIdP9JSContextN2JS6HandleIP8JSObjectEENS2_INS1_11PropertyKeyEEENS1_13MutableHandleIN7mozilla5MaybeINS1_18PropertyDescriptorEEEEENS8_IS4_EE
libmozjs128-debug.so:_Z28JS_IterateCompartmentsInZoneP9JSContextPN2JS4ZoneEPvPFNS1_21CompartmentIterResultES0_S4_PNS1_11CompartmentEE
libmozjs128-debug.so:_Z28JS_NewBigInt64ArrayFromArrayP9JSContextN2JS6HandleIP8JSObjectEE
libmozjs128-debug.so:_Z28JS_NewFloat16ArrayWithBufferP9JSContextN2JS6HandleIP8JSObjectEEml
libmozjs128-debug.so:_Z28JS_NewFloat32ArrayWithBufferP9JSContextN2JS6HandleIP8JSObjectEEml
libmozjs128-debug.so:_Z28JS_NewFloat64ArrayWithBufferP9JSContextN2JS6HandleIP8JSObjectEEml
libmozjs128-debug.so:_Z28JS_ReportErrorNumberLatin1VAP9JSContextPFPK19JSErrorFormatStringPvjES4_jP13__va_list_tag
libmozjs128-debug.so:_Z28JS_SetObjectsTenuredCallbackP9JSContextPFvPN2JS9GCContextEPvES4_
libmozjs128-debug.so:_Z28JS_SetParallelParsingEnabledP9JSContextb
libmozjs128-debug.so:_Z29JS_GetExternalStringCallbacksP8JSString
libmozjs128-debug.so:_Z29JS_GetGlobalJitCompilerOptionP9JSContext19JSJitCompilerOptionPj
libmozjs128-debug.so:_Z29JS_GetInt16ArrayLengthAndDataP8JSObjectPmPbRKN2JS15AutoRequireNoGCE
libmozjs128-debug.so:_Z29JS_GetInt32ArrayLengthAndDataP8JSObjectPmPbRKN2JS15AutoRequireNoGCE
libmozjs128-debug.so:_Z29JS_GetObjectAsArrayBufferViewP8JSObjectPmPbPPh
libmozjs128-debug.so:_Z29JS_GetOwnUCPropertyDescriptorP9JSContextN2JS6HandleIP8JSObjectEEPKDsmNS1_13MutableHandleIN7mozilla5MaybeINS1_18PropertyDescriptorEEEEE
libmozjs128-debug.so:_Z29JS_GetUint8ArrayLengthAndDataP8JSObjectPmPbRKN2JS15AutoRequireNoGCE
libmozjs128-debug.so:_Z29JS_InitReadPrincipalsCallbackP9JSContextPFbS0_P23JSStructuredCloneReaderPP12JSPrincipalsE
libmozjs128-debug.so:_Z29JS_NewBigInt64ArrayWithBufferP9JSContextN2JS6HandleIP8JSObjectEEml
libmozjs128-debug.so:_Z29JS_NewBigUint64ArrayFromArrayP9JSContextN2JS6HandleIP8JSObjectEE
libmozjs128-debug.so:_Z29JS_NewMaybeExternalStringUTF8P9JSContextRKN2JS9UTF8CharsEPK25JSExternalStringCallbacksPb
libmozjs128-debug.so:_Z29JS_ReportErrorNumberUTF8ArrayP9JSContextPFPK19JSErrorFormatStringPvjES4_jPPKc
libmozjs128-debug.so:_Z29JS_SetGlobalJitCompilerOptionP9JSContext19JSJitCompilerOptionj
libmozjs128-debug.so:_Z29JS_Utf8BufferIsCompilableUnitP9JSContextN2JS6HandleIP8JSObjectEEPKcm
libmozjs128-debug.so:_Z30JS_AddWeakPointerZonesCallbackP9JSContextPFvP8JSTracerPvES3_
libmozjs128-debug.so:_Z30JS_GetArrayBufferViewFixedDataP8JSObjectPhm
libmozjs128-debug.so:_Z30JS_GetErrorInterceptorCallbackP9JSRuntime
libmozjs128-debug.so:_Z30JS_GetUint16ArrayLengthAndDataP8JSObjectPmPbRKN2JS15AutoRequireNoGCE
libmozjs128-debug.so:_Z30JS_GetUint32ArrayLengthAndDataP8JSObjectPmPbRKN2JS15AutoRequireNoGCE
libmozjs128-debug.so:_Z30JS_LinkConstructorAndPrototypeP9JSContextN2JS6HandleIP8JSObjectEES5_
libmozjs128-debug.so:_Z30JS_NewBigUint64ArrayWithBufferP9JSContextN2JS6HandleIP8JSObjectEEml
libmozjs128-debug.so:_Z30JS_NewEnumerateStandardClassesP9JSContextN2JS6HandleIP8JSObjectEENS1_13MutableHandleINS1_13StackGCVectorINS1_11PropertyKeyEN2js15TempAllocPolicyEEEEEb
libmozjs128-debug.so:_Z30JS_SetErrorInterceptorCallbackP9JSRuntimeP18JSErrorInterceptor
libmozjs128-debug.so:_Z30JS_UnsafeGetLastProfilingErrorv
libmozjs128-debug.so:_Z31JS_ExtensibleLexicalEnvironmentP8JSObject
libmozjs128-debug.so:_Z31JS_GetArrayBufferViewByteLengthP8JSObject
libmozjs128-debug.so:_Z31JS_GetArrayBufferViewByteOffsetP8JSObject
libmozjs128-debug.so:_Z31JS_GetFloat16ArrayLengthAndDataP8JSObjectPmPbRKN2JS15AutoRequireNoGCE
libmozjs128-debug.so:_Z31JS_GetFloat32ArrayLengthAndDataP8JSObjectPmPbRKN2JS15AutoRequireNoGCE
libmozjs128-debug.so:_Z31JS_GetFloat64ArrayLengthAndDataP8JSObjectPmPbRKN2JS15AutoRequireNoGCE
libmozjs128-debug.so:_Z31JS_GetObjectAsUint8ClampedArrayP8JSObjectPmPbPPh
libmozjs128-debug.so:_Z31JS_GetOwnPropertyDescriptorByIdP9JSContextN2JS6HandleIP8JSObjectEENS2_INS1_11PropertyKeyEEENS1_13MutableHandleIN7mozilla5MaybeINS1_18PropertyDescriptorEEEEE
libmozjs128-debug.so:_Z31JS_IsBuiltinFunctionConstructorP10JSFunction
libmozjs128-debug.so:_Z31JS_NewMaybeExternalStringLatin1P9JSContextPKhmPK25JSExternalStringCallbacksPb
libmozjs128-debug.so:_Z32JS_GetBigInt64ArrayLengthAndDataP8JSObjectPmPbRKN2JS15AutoRequireNoGCE
libmozjs128-debug.so:_Z32JS_GetLatin1StringCharsAndLengthP9JSContextRKN2JS15AutoRequireNoGCEP8JSStringPm
libmozjs128-debug.so:_Z32JS_GetTwoByteExternalStringCharsP8JSString
libmozjs128-debug.so:_Z32JS_InitDestroyPrincipalsCallbackP9JSContextPFvP12JSPrincipalsE
libmozjs128-debug.so:_Z32JS_NewUint8ClampedArrayFromArrayP9JSContextN2JS6HandleIP8JSObjectEE
libmozjs128-debug.so:_Z32JS_SetDestroyCompartmentCallbackP9JSContextPFvPN2JS9GCContextEPNS1_11CompartmentEE
libmozjs128-debug.so:_Z33JS_DeprecatedStringHasLatin1CharsP8JSString
libmozjs128-debug.so:_Z33JS_GetBigUint64ArrayLengthAndDataP8JSObjectPmPbRKN2JS15AutoRequireNoGCE
libmozjs128-debug.so:_Z33JS_GetTwoByteStringCharsAndLengthP9JSContextRKN2JS15AutoRequireNoGCEP8JSStringPm
libmozjs128-debug.so:_Z33JS_NewUint8ClampedArrayWithBufferP9JSContextN2JS6HandleIP8JSObjectEEml
libmozjs128-debug.so:_Z33JS_NondeterministicGetWeakMapKeysP9JSContextN2JS6HandleIP8JSObjectEENS1_13MutableHandleIS4_EE
libmozjs128-debug.so:_Z33JS_NondeterministicGetWeakSetKeysP9JSContextN2JS6HandleIP8JSObjectEENS1_13MutableHandleIS4_EE
libmozjs128-debug.so:_Z33JS_RemoveWeakPointerZonesCallbackP9JSContextPFvP8JSTracerPvE
libmozjs128-debug.so:_Z33JS_SetAccumulateTelemetryCallbackP9JSContextPFv8JSMetricjE
libmozjs128-debug.so:_Z34JS_EncodeStringToUTF8BufferPartialP9JSContextP8JSStringN7mozilla4SpanIcLm18446744073709551615EEE
libmozjs128-debug.so:_Z34JS_HasExtensibleLexicalEnvironmentP8JSObject
libmozjs128-debug.so:_Z34JS_RefreshCrossCompartmentWrappersP9JSContextN2JS6HandleIP8JSObjectEE
libmozjs128-debug.so:_Z34JS_RequestInterruptCallbackCanWaitP9JSContext
libmozjs128-debug.so:_Z34JS_StructuredCloneHasTransferablesR21JSStructuredCloneDataPb
libmozjs128-debug.so:_Z35JS_GetMaybePartialFunctionDisplayIdP10JSFunction
libmozjs128-debug.so:_Z35JS_TraceShapeCycleCollectorChildrenPN2JS14CallbackTracerENS_9GCCellPtrE
libmozjs128-debug.so:_Z36JS_AddWeakPointerCompartmentCallbackP9JSContextPFvP8JSTracerPN2JS11CompartmentEPvES6_
libmozjs128-debug.so:_Z36JS_CopyOwnPropertiesAndPrivateFieldsP9JSContextN2JS6HandleIP8JSObjectEES5_
libmozjs128-debug.so:_Z36JS_GetUint8ClampedArrayLengthAndDataP8JSObjectPmPbRKN2JS15AutoRequireNoGCE
libmozjs128-debug.so:_Z36JS_SetAllNonReservedSlotsToUndefinedN2JS6HandleIP8JSObjectEE
libmozjs128-debug.so:_Z36JS_SetOffthreadIonCompilationEnabledP9JSContextb
libmozjs128-debug.so:_Z38JS_UpdateWeakPointerAfterGCUnbarrieredP8JSTracerPP8JSObject
libmozjs128-debug.so:_Z39JS_RemoveWeakPointerCompartmentCallbackP9JSContextPFvP8JSTracerPN2JS11CompartmentEPvE
libmozjs128-debug.so:_Z40JS_SetGCParametersBasedOnAvailableMemoryP9JSContextj
libmozjs128-debug.so:_Z44JS_SetSizeOfIncludingThisCompartmentCallbackP9JSContextPFmPFmPKvEPN2JS11CompartmentEE
libmozjs128-debug.so:_Z47JS_NewEnumerateStandardClassesIncludingResolvedP9JSContextN2JS6HandleIP8JSObjectEENS1_13MutableHandleINS1_13StackGCVectorINS1_11PropertyKeyEN2js15TempAllocPolicyEEEEEb
libmozjs128-debug.so:_Z49JS_InitializePropertiesFromCompatibleNativeObjectP9JSContextN2JS6HandleIP8JSObjectEES5_
libmozjs128-debug.so:_Z5JS_GCP9JSContextN2JS8GCReasonE
libmozjs128-debug.so:_Z6JS_Nowv
libmozjs128-debug.so:_Z7JS_freeP9JSContextPv
libmozjs128-debug.so:_Z9JS_AssertPKcS0_i
libmozjs128-debug.so:_Z9JS_mallocP9JSContextm
libmozjs128-debug.so:_ZN100_$LT$core..iter..adapters..take..Take$LT$I$GT$$u20$as$u20$core..iter..traits..iterator..Iterator$GT$4next17hd0e3525d271da221E
libmozjs128-debug.so:_ZN102_$LT$core..iter..adapters..zip..Zip$LT$A$C$B$GT$$u20$as$u20$core..iter..traits..iterator..Iterator$GT$4fold17h3c2519f96ebc8ee6E
libmozjs128-debug.so:_ZN106_$LT$core..ops..range..Range$LT$usize$GT$$u20$as$u20$core..slice..index..SliceIndex$LT$$u5b$T$u5d$$GT$$GT$9index_mut17h00a42157004c44ddE
libmozjs128-debug.so:_ZN106_$LT$core..ops..range..Range$LT$usize$GT$$u20$as$u20$core..slice..index..SliceIndex$LT$$u5b$T$u5d$$GT$$GT$9index_mut17h25cfca059d6cc47fE
libmozjs128-debug.so:_ZN106_$LT$core..ops..range..Range$LT$usize$GT$$u20$as$u20$core..slice..index..SliceIndex$LT$$u5b$T$u5d$$GT$$GT$9index_mut17ha2cbab3afa742449E
libmozjs128-debug.so:_ZN106_$LT$core..slice..iter..Iter$LT$T$GT$$u20$as$u20$core..iter..traits..double_ended..DoubleEndedIterator$GT$9next_back17h3af58fae5ce611caE
libmozjs128-debug.so:_ZN108_$LT$core..ops..range..RangeTo$LT$usize$GT$$u20$as$u20$core..slice..index..SliceIndex$LT$$u5b$T$u5d$$GT$$GT$9index_mut17h1e929d7aa6eb8c2aE
libmozjs128-debug.so:_ZN108_$LT$core..ops..range..RangeTo$LT$usize$GT$$u20$as$u20$core..slice..index..SliceIndex$LT$$u5b$T$u5d$$GT$$GT$9index_mut17h815657b5d36384dcE
libmozjs128-debug.so:_ZN10JSFunction13maybeRelazifyEP9JSRuntime
libmozjs128-debug.so:_ZN10JSFunction14getDisplayAtomEP9JSContextN2JS13MutableHandleIP6JSAtomEE
libmozjs128-debug.so:_ZN10JSFunction15getExplicitNameEP9JSContextN2JS13MutableHandleIP6JSAtomEE
libmozjs128-debug.so:_ZN10JSFunction22getAccessorNameForLazyEP9JSContext
libmozjs128-debug.so:_ZN10JSFunction22needsPrototypePropertyEv
libmozjs128-debug.so:_ZN10JSFunction28isBuiltinFunctionConstructorEv
libmozjs128-debug.so:_ZN10JSFunction30delazifySelfHostedLazyFunctionEP9JSContextN2JS6HandleIPS_EE
libmozjs128-debug.so:_ZN10JSFunction33delazifyLazilyInterpretedFunctionEP9JSContextN2JS6HandleIPS_EE
libmozjs128-debug.so:_ZN10JSFunction39hasNonConfigurablePrototypeDataPropertyEv
libmozjs128-debug.so:_ZN110_$LT$core..iter..adapters..enumerate..Enumerate$LT$I$GT$$u20$as$u20$core..iter..traits..iterator..Iterator$GT$4next17h0a0a5e2d9b877822E
libmozjs128-debug.so:_ZN110_$LT$core..iter..adapters..enumerate..Enumerate$LT$I$GT$$u20$as$u20$core..iter..traits..iterator..Iterator$GT$4next17h2b22d0b07ddb10d4E
libmozjs128-debug.so:_ZN110_$LT$core..iter..adapters..enumerate..Enumerate$LT$I$GT$$u20$as$u20$core..iter..traits..iterator..Iterator$GT$4next17h4fa40945b33b0277E
libmozjs128-debug.so:_ZN110_$LT$core..ops..range..RangeFrom$LT$usize$GT$$u20$as$u20$core..slice..index..SliceIndex$LT$$u5b$T$u5d$$GT$$GT$5index17h059484304b584ef3E
libmozjs128-debug.so:_ZN110_$LT$core..ops..range..RangeFrom$LT$usize$GT$$u20$as$u20$core..slice..index..SliceIndex$LT$$u5b$T$u5d$$GT$$GT$5index17hed3d702fa766dfceE
libmozjs128-debug.so:_ZN110_$LT$core..ops..range..RangeFrom$LT$usize$GT$$u20$as$u20$core..slice..index..SliceIndex$LT$$u5b$T$u5d$$GT$$GT$9index_mut17h9934df8b48ce879cE
libmozjs128-debug.so:_ZN110_$LT$core..ops..range..RangeFrom$LT$usize$GT$$u20$as$u20$core..slice..index..SliceIndex$LT$$u5b$T$u5d$$GT$$GT$9index_mut17ha055bc996e7ed9a1E
libmozjs128-debug.so:_ZN111_$LT$core..iter..adapters..zip..Zip$LT$A$C$B$GT$$u20$as$u20$core..iter..adapters..zip..ZipImpl$LT$A$C$B$GT$$GT$13get_unchecked17he5adff1a169a78f2E
libmozjs128-debug.so:_ZN111_$LT$core..iter..adapters..zip..Zip$LT$A$C$B$GT$$u20$as$u20$core..iter..adapters..zip..ZipImpl$LT$A$C$B$GT$$GT$3new17h847b22aa42eb7c4eE
libmozjs128-debug.so:_ZN111_$LT$core..iter..adapters..zip..Zip$LT$A$C$B$GT$$u20$as$u20$core..iter..adapters..zip..ZipImpl$LT$A$C$B$GT$$GT$3new17hdf6065d94014c395E
libmozjs128-debug.so:_ZN111_$LT$core..iter..adapters..zip..Zip$LT$A$C$B$GT$$u20$as$u20$core..iter..adapters..zip..ZipImpl$LT$A$C$B$GT$$GT$4fold17h6cf0487f69470c70E
libmozjs128-debug.so:_ZN111_$LT$core..iter..adapters..zip..Zip$LT$A$C$B$GT$$u20$as$u20$core..iter..adapters..zip..ZipImpl$LT$A$C$B$GT$$GT$4next17h93f0ca69c1e77592E
libmozjs128-debug.so:_ZN111_$LT$core..iter..adapters..zip..Zip$LT$A$C$B$GT$$u20$as$u20$core..iter..adapters..zip..ZipImpl$LT$A$C$B$GT$$GT$9size_hint17h0e8a40224c05876cE
libmozjs128-debug.so:_ZN11JSAutoRealmC1EP9JSContextP8JSObject
libmozjs128-debug.so:_ZN11JSAutoRealmC1EP9JSContextP8JSScript
libmozjs128-debug.so:_ZN11JSAutoRealmC2EP9JSContextP8JSObject
libmozjs128-debug.so:_ZN11JSAutoRealmC2EP9JSContextP8JSScript
libmozjs128-debug.so:_ZN11JSAutoRealmD1Ev
libmozjs128-debug.so:_ZN11JSAutoRealmD2Ev
libmozjs128-debug.so:_ZN11encoding_rs10ISO_8859_217h64e787ab9113e451E
libmozjs128-debug.so:_ZN11encoding_rs10ISO_8859_317h4e550106ccca91a5E
libmozjs128-debug.so:_ZN11encoding_rs10ISO_8859_417hf6ca559443c64f2eE
libmozjs128-debug.so:_ZN11encoding_rs10ISO_8859_517heb2b796226177206E
libmozjs128-debug.so:_ZN11encoding_rs10ISO_8859_617h73af06839ab85a75E
libmozjs128-debug.so:_ZN11encoding_rs10ISO_8859_717ha32e1572414bba75E
libmozjs128-debug.so:_ZN11encoding_rs10ISO_8859_817he283152c6149c9e7E
libmozjs128-debug.so:_ZN11encoding_rs10UTF_8_INIT17hd749d76daea38ec0E
libmozjs128-debug.so:_ZN11encoding_rs11EUC_JP_INIT17h3fed270d3ca11c31E
libmozjs128-debug.so:_ZN11encoding_rs11EUC_KR_INIT17hb2f2485a2f5098c7E
libmozjs128-debug.so:_ZN11encoding_rs11IBM866_INIT17h11f086129b560b9aE
libmozjs128-debug.so:_ZN11encoding_rs11ISO_2022_JP17h84f73e9c44917f52E
libmozjs128-debug.so:_ZN11encoding_rs11ISO_8859_1017h9fdd8d14d18423f7E
libmozjs128-debug.so:_ZN11encoding_rs11ISO_8859_1317haca7f0731433f486E
libmozjs128-debug.so:_ZN11encoding_rs11ISO_8859_1417h17e7a483fb418905E
libmozjs128-debug.so:_ZN11encoding_rs11ISO_8859_1517h34f03088c2679edeE
libmozjs128-debug.so:_ZN11encoding_rs11ISO_8859_1617hd1b940d9ead4b1d8E
libmozjs128-debug.so:_ZN11encoding_rs11KOI8_R_INIT17h48846c4e5bd6e739E
libmozjs128-debug.so:_ZN11encoding_rs11KOI8_U_INIT17hdb9c2924010fbf60E
libmozjs128-debug.so:_ZN11encoding_rs11REPLACEMENT17h9e322ab5c12b480aE
libmozjs128-debug.so:_ZN11encoding_rs11WINDOWS_87417he8e75e8642dbd4dcE
libmozjs128-debug.so:_ZN11encoding_rs12GB18030_INIT17ha237686c8ae566bfE
libmozjs128-debug.so:_ZN11encoding_rs12ISO_8859_8_I17h1af5b299a733c0e4E
libmozjs128-debug.so:_ZN11encoding_rs12WINDOWS_125017h572c7f4e644d7d83E
libmozjs128-debug.so:_ZN11encoding_rs12WINDOWS_125117h52d2cf6f14305cfcE
libmozjs128-debug.so:_ZN11encoding_rs12WINDOWS_125217heeaad200a87c9c37E
libmozjs128-debug.so:_ZN11encoding_rs12WINDOWS_125317h752a351cd73891b6E
libmozjs128-debug.so:_ZN11encoding_rs12WINDOWS_125417hdc15488263856ce2E
libmozjs128-debug.so:_ZN11encoding_rs12WINDOWS_125517h131c0c19d867b939E
libmozjs128-debug.so:_ZN11encoding_rs12WINDOWS_125617hb1ff10520e539756E
libmozjs128-debug.so:_ZN11encoding_rs12WINDOWS_125717hc5a45553433248c8E
libmozjs128-debug.so:_ZN11encoding_rs12WINDOWS_125817h2f0ee87345b3558bE
libmozjs128-debug.so:_ZN11encoding_rs13UTF_16BE_INIT17hb5436599a53270d8E
libmozjs128-debug.so:_ZN11encoding_rs13UTF_16LE_INIT17hdd2959a4db127293E
libmozjs128-debug.so:_ZN11encoding_rs14MACINTOSH_INIT17hdb47d3848938f306E
libmozjs128-debug.so:_ZN11encoding_rs14SHIFT_JIS_INIT17he31de0b773acc6a5E
libmozjs128-debug.so:_ZN11encoding_rs14X_MAC_CYRILLIC17ha99ff91d0d6e26c0E
libmozjs128-debug.so:_ZN11encoding_rs14X_USER_DEFINED17hf9358a80c5bf5d53E
libmozjs128-debug.so:_ZN11encoding_rs15ISO_8859_2_INIT17hac78177cda95b178E
libmozjs128-debug.so:_ZN11encoding_rs15ISO_8859_3_INIT17ha1bd2aabc3dbf5f4E
libmozjs128-debug.so:_ZN11encoding_rs15ISO_8859_4_INIT17h54faf78ceb310c2bE
libmozjs128-debug.so:_ZN11encoding_rs15ISO_8859_5_INIT17h4ccf8e2ba0d8487bE
libmozjs128-debug.so:_ZN11encoding_rs15ISO_8859_6_INIT17ha9f02e984aea12b4E
libmozjs128-debug.so:_ZN11encoding_rs15ISO_8859_7_INIT17h069a3e9e5bb8347fE
libmozjs128-debug.so:_ZN11encoding_rs15ISO_8859_8_INIT17hbcdbaa1008ed80afE
libmozjs128-debug.so:_ZN11encoding_rs16ISO_2022_JP_INIT17hcd82bcab69b9b48eE
libmozjs128-debug.so:_ZN11encoding_rs16ISO_8859_10_INIT17ha22913f5762b0697E
libmozjs128-debug.so:_ZN11encoding_rs16ISO_8859_13_INIT17h2b045e75a786a102E
libmozjs128-debug.so:_ZN11encoding_rs16ISO_8859_14_INIT17h116f62fb94869580E
libmozjs128-debug.so:_ZN11encoding_rs16ISO_8859_15_INIT17hbae6dd22c3915d9cE
libmozjs128-debug.so:_ZN11encoding_rs16ISO_8859_16_INIT17ha4f6ffada16771a6E
libmozjs128-debug.so:_ZN11encoding_rs16REPLACEMENT_INIT17hf6450f6523612647E
libmozjs128-debug.so:_ZN11encoding_rs16WINDOWS_874_INIT17hd053a9d60feb6d0aE
libmozjs128-debug.so:_ZN11encoding_rs17ISO_8859_8_I_INIT17hf845f9086dec7cc2E
libmozjs128-debug.so:_ZN11encoding_rs17WINDOWS_1250_INIT17hb515960f33ebe967E
libmozjs128-debug.so:_ZN11encoding_rs17WINDOWS_1251_INIT17h97e5e6e813285110E
libmozjs128-debug.so:_ZN11encoding_rs17WINDOWS_1252_INIT17h1c0af4ec19ea6218E
libmozjs128-debug.so:_ZN11encoding_rs17WINDOWS_1253_INIT17h9aaade8280697150E
libmozjs128-debug.so:_ZN11encoding_rs17WINDOWS_1254_INIT17h9df7a0900f7f6939E
libmozjs128-debug.so:_ZN11encoding_rs17WINDOWS_1255_INIT17h8d228d7b64a944e7E
libmozjs128-debug.so:_ZN11encoding_rs17WINDOWS_1256_INIT17he16c0de01364680cE
libmozjs128-debug.so:_ZN11encoding_rs17WINDOWS_1257_INIT17h1859bd0bb8d8a143E
libmozjs128-debug.so:_ZN11encoding_rs17WINDOWS_1258_INIT17hd7cb58a0ccd2599eE
libmozjs128-debug.so:_ZN11encoding_rs19X_MAC_CYRILLIC_INIT17h686cdd8de270902dE
libmozjs128-debug.so:_ZN11encoding_rs19X_USER_DEFINED_INIT17h3a252862ec090e93E
libmozjs128-debug.so:_ZN11encoding_rs3GBK17h82aa5368a691c6b6E
libmozjs128-debug.so:_ZN11encoding_rs3mem13decode_latin117h84d32b247be13db6E
libmozjs128-debug.so:_ZN11encoding_rs3mem13is_str_latin117h44adf1d12511fe23E
libmozjs128-debug.so:_ZN11encoding_rs3mem13is_utf16_bidi17h78b5b00488d71abfE
libmozjs128-debug.so:_ZN11encoding_rs3mem14is_basic_latin17h6058cf3b4d77e391E
libmozjs128-debug.so:_ZN11encoding_rs3mem14is_utf8_latin117h71b67eb4cdaeeab4E
libmozjs128-debug.so:_ZN11encoding_rs3mem15is_utf16_latin117he22e0881d795230bE
libmozjs128-debug.so:_ZN11encoding_rs3mem16str_latin1_up_to17h7de26be46e1c7d62E
libmozjs128-debug.so:_ZN11encoding_rs3mem17utf16_valid_up_to17hd908c4f350d3d3cfE
libmozjs128-debug.so:_ZN11encoding_rs3mem17utf8_latin1_up_to17h3d5b37d4b209798fE
libmozjs128-debug.so:_ZN11encoding_rs3mem19copy_ascii_to_ascii17hc91101b9278dfb96E
libmozjs128-debug.so:_ZN11encoding_rs3mem19encode_latin1_lossy17he6c4c989adec5596E
libmozjs128-debug.so:_ZN11encoding_rs3mem20convert_str_to_utf1617hd1f6613e724c28ddE
libmozjs128-debug.so:_ZN11encoding_rs3mem21convert_utf8_to_utf1617he5ee0403bc55d89bE
libmozjs128-debug.so:_ZN11encoding_rs3mem23convert_latin1_to_utf1617h0bc95908a427eb2fE
libmozjs128-debug.so:_ZN11encoding_rs3mem25copy_ascii_to_basic_latin17he8c3adc79f5220f8E
libmozjs128-debug.so:_ZN11encoding_rs3mem25copy_basic_latin_to_ascii17h752dba28d2c7dd65E
libmozjs128-debug.so:_ZN11encoding_rs3mem28convert_utf16_to_str_partial17h8965b2c5e4b54bf1E
libmozjs128-debug.so:_ZN11encoding_rs3mem28convert_utf8_to_latin1_lossy17ha94bba095dc9cf59E
libmozjs128-debug.so:_ZN11encoding_rs3mem29check_str_for_latin1_and_bidi17hbceaedf064a323f7E
libmozjs128-debug.so:_ZN11encoding_rs3mem29convert_utf16_to_latin1_lossy17h826ca9a5ae326669E
libmozjs128-debug.so:_ZN11encoding_rs3mem30check_utf8_for_latin1_and_bidi17hf28370416f9f1b4bE
libmozjs128-debug.so:_ZN11encoding_rs3mem30convert_latin1_to_utf8_partial17h5dc06748d1a9f0f4E
libmozjs128-debug.so:_ZN11encoding_rs3mem31check_utf16_for_latin1_and_bidi17hca42802e7f9e1a5dE
libmozjs128-debug.so:_ZN11encoding_rs3mem41convert_utf8_to_utf16_without_replacement17h4dde07256b12657dE
libmozjs128-debug.so:_ZN11encoding_rs3mem8is_ascii17h5d47b101a7476ba9E
libmozjs128-debug.so:_ZN11encoding_rs4BIG517h78160e2d49cfc716E
libmozjs128-debug.so:_ZN11encoding_rs4data16SINGLE_BYTE_DATA17h25e0f209696aeb84E
libmozjs128-debug.so:_ZN11encoding_rs5UTF_817h8c11a20e3a87a001E
libmozjs128-debug.so:_ZN11encoding_rs5utf_834convert_utf16_to_utf8_partial_tail17h987635d2fbb151b8E
libmozjs128-debug.so:_ZN11encoding_rs5utf_835convert_utf16_to_utf8_partial_inner17hdc28e02a1c0413c5E
libmozjs128-debug.so:_ZN11encoding_rs5utf_89UTF8_DATA17hd4a269df2b41ad7cE
libmozjs128-debug.so:_ZN11encoding_rs6EUC_JP17h7883b63d0ec53c6bE
libmozjs128-debug.so:_ZN11encoding_rs6EUC_KR17h560d805946e4b9ebE
libmozjs128-debug.so:_ZN11encoding_rs6IBM86617h37504e34035b0905E
libmozjs128-debug.so:_ZN11encoding_rs6KOI8_R17h26d21728d0ee64beE
libmozjs128-debug.so:_ZN11encoding_rs6KOI8_U17h63e187690a969f69E
libmozjs128-debug.so:_ZN11encoding_rs7Decoder13decode_to_str17h9455ca41c92e320eE
libmozjs128-debug.so:_ZN11encoding_rs7Decoder14decode_to_utf817h7c0b2a135d44a004E
libmozjs128-debug.so:_ZN11encoding_rs7Decoder15decode_to_utf1617haf311fa45254a5b0E
libmozjs128-debug.so:_ZN11encoding_rs7Decoder16decode_to_string17hf04d6e545f5e2dbdE
libmozjs128-debug.so:_ZN11encoding_rs7Decoder22max_utf8_buffer_length17h1338b7d31301b307E
libmozjs128-debug.so:_ZN11encoding_rs7Decoder23max_utf16_buffer_length17h8fcf2f57797bda90E
libmozjs128-debug.so:_ZN11encoding_rs7Decoder28latin1_byte_compatible_up_to17hf43da828631e5ed0E
libmozjs128-debug.so:_ZN11encoding_rs7Decoder33decode_to_str_without_replacement17h44618363a44f3677E
libmozjs128-debug.so:_ZN11encoding_rs7Decoder34decode_to_utf8_without_replacement17hb0f5a0f39e3e5127E
libmozjs128-debug.so:_ZN11encoding_rs7Decoder35decode_to_utf16_without_replacement17hb5c9eb5212ca0affE
libmozjs128-debug.so:_ZN11encoding_rs7Decoder36decode_to_string_without_replacement17h28f056927cc248fdE
libmozjs128-debug.so:_ZN11encoding_rs7Decoder3new17h8cd11bbdd278115dE
libmozjs128-debug.so:_ZN11encoding_rs7Decoder42max_utf8_buffer_length_without_replacement17h679b74a39202d08fE
libmozjs128-debug.so:_ZN11encoding_rs7Encoder16encode_from_utf817ha5c8853ef8d86f90E
libmozjs128-debug.so:_ZN11encoding_rs7Encoder17encode_from_utf1617h2da042d413b1058dE
libmozjs128-debug.so:_ZN11encoding_rs7Encoder23encode_from_utf8_to_vec17h14bb07df22a60e66E
libmozjs128-debug.so:_ZN11encoding_rs7Encoder36encode_from_utf8_without_replacement17hbcec82196eadc192E
libmozjs128-debug.so:_ZN11encoding_rs7Encoder37encode_from_utf16_without_replacement17he5de680c87be3938E
libmozjs128-debug.so:_ZN11encoding_rs7Encoder43encode_from_utf8_to_vec_without_replacement17h2255f61bed87dd55E
libmozjs128-debug.so:_ZN11encoding_rs7Encoder45max_buffer_length_from_utf8_if_no_unmappables17h4119e41f7ad72cf4E
libmozjs128-debug.so:_ZN11encoding_rs7Encoder46max_buffer_length_from_utf16_if_no_unmappables17hb77164f5946efe00E
libmozjs128-debug.so:_ZN11encoding_rs7Encoder47max_buffer_length_from_utf8_without_replacement17hf04d4c049e301a38E
libmozjs128-debug.so:_ZN11encoding_rs7Encoder48max_buffer_length_from_utf16_without_replacement17hd33977a910fa9948E
libmozjs128-debug.so:_ZN11encoding_rs7GB1803017h43ab810b7847414aE
libmozjs128-debug.so:_ZN11encoding_rs7variant14VariantEncoder17has_pending_state17h73aaeb94b8bf3f92E
libmozjs128-debug.so:_ZN11encoding_rs7variant15VariantEncoding11new_encoder17haf13923fdac92ec9E
libmozjs128-debug.so:_ZN11encoding_rs7variant15VariantEncoding14is_single_byte17h03cb7b40e0d7c724E
libmozjs128-debug.so:_ZN11encoding_rs8Encoding16utf8_valid_up_to17he2d57870fc9f8f41E
libmozjs128-debug.so:_ZN11encoding_rs8Encoding17ascii_valid_up_to17h236cf38833471677E
libmozjs128-debug.so:_ZN11encoding_rs8Encoding19new_variant_decoder17h73d2f74c66bccb17E
libmozjs128-debug.so:_ZN11encoding_rs8Encoding27decode_without_bom_handling17h4fe7bb0f953e09a3E
libmozjs128-debug.so:_ZN11encoding_rs8Encoding29iso_2022_jp_ascii_valid_up_to17ha290a9fd3fbe2fc6E
libmozjs128-debug.so:_ZN11encoding_rs8Encoding51decode_without_bom_handling_and_without_replacement17h249b704c3e07cabdE
libmozjs128-debug.so:_ZN11encoding_rs8Encoding6encode17he29bf816c291e26dE
libmozjs128-debug.so:_ZN11encoding_rs8Encoding9for_label17he2c8fca410823143E
libmozjs128-debug.so:_ZN11encoding_rs8GBK_INIT17haf9bda313234a5f8E
libmozjs128-debug.so:_ZN11encoding_rs8UTF_16BE17h73b8776c548d6e34E
libmozjs128-debug.so:_ZN11encoding_rs8UTF_16LE17h92d9b48f93b35684E
libmozjs128-debug.so:_ZN11encoding_rs9BIG5_INIT17hda99ee82fd700370E
libmozjs128-debug.so:_ZN11encoding_rs9MACINTOSH17h4926d85fe9fa9b92E
libmozjs128-debug.so:_ZN11encoding_rs9SHIFT_JIS17h2b81fdc7bffec2dcE
libmozjs128-debug.so:_ZN128_$LT$$LT$serde..de..WithDecimalPoint$u20$as$u20$core..fmt..Display$GT$..fmt..LookForDecimalPoint$u20$as$u20$core..fmt..Write$GT$10write_char17he292bf6c59803cffE
libmozjs128-debug.so:_ZN128_$LT$$LT$serde..de..WithDecimalPoint$u20$as$u20$core..fmt..Display$GT$..fmt..LookForDecimalPoint$u20$as$u20$core..fmt..Write$GT$9write_str17h98cc838520ff0a72E
libmozjs128-debug.so:_ZN12JSErrorNotes3endEv
libmozjs128-debug.so:_ZN12JSErrorNotes5beginEv
libmozjs128-debug.so:_ZN12JSErrorNotes6lengthEv
libmozjs128-debug.so:_ZN137_$LT$$LT$serde..de..impls..OsStringKind$u20$as$u20$serde..de..Deserialize$GT$..deserialize..KindVisitor$u20$as$u20$serde..de..Visitor$GT$9expecting17h2d2c970eeea7b883E
libmozjs128-debug.so:_ZN138_$LT$$LT$serde..de..impls..range..Field$u20$as$u20$serde..de..Deserialize$GT$..deserialize..FieldVisitor$u20$as$u20$serde..de..Visitor$GT$9expecting17hf814d60cd5dfa79eE
libmozjs128-debug.so:_ZN141_$LT$$LT$serde..de..impls..range_to..Field$u20$as$u20$serde..de..Deserialize$GT$..deserialize..FieldVisitor$u20$as$u20$serde..de..Visitor$GT$9expecting17ha43366db8b644c8cE
libmozjs128-debug.so:_ZN142_$LT$serde..de..impls..$LT$impl$u20$serde..de..Deserialize$u20$for$u20$i8$GT$..deserialize..PrimitiveVisitor$u20$as$u20$serde..de..Visitor$GT$9expecting17h0776c391931fef13E
libmozjs128-debug.so:_ZN142_$LT$serde..de..impls..$LT$impl$u20$serde..de..Deserialize$u20$for$u20$u8$GT$..deserialize..PrimitiveVisitor$u20$as$u20$serde..de..Visitor$GT$9expecting17h90129d631a0a528aE
libmozjs128-debug.so:_ZN143_$LT$$LT$serde..de..impls..range_from..Field$u20$as$u20$serde..de..Deserialize$GT$..deserialize..FieldVisitor$u20$as$u20$serde..de..Visitor$GT$9expecting17h229aad8a1aaf5d6bE
libmozjs128-debug.so:_ZN143_$LT$serde..de..impls..$LT$impl$u20$serde..de..Deserialize$u20$for$u20$f32$GT$..deserialize..PrimitiveVisitor$u20$as$u20$serde..de..Visitor$GT$9expecting17hf3887d872bf57f1bE
libmozjs128-debug.so:_ZN143_$LT$serde..de..impls..$LT$impl$u20$serde..de..Deserialize$u20$for$u20$f64$GT$..deserialize..PrimitiveVisitor$u20$as$u20$serde..de..Visitor$GT$9expecting17h599ac49b45995147E
libmozjs128-debug.so:_ZN143_$LT$serde..de..impls..$LT$impl$u20$serde..de..Deserialize$u20$for$u20$i16$GT$..deserialize..PrimitiveVisitor$u20$as$u20$serde..de..Visitor$GT$9expecting17h068497ba0fb0f3b7E
libmozjs128-debug.so:_ZN143_$LT$serde..de..impls..$LT$impl$u20$serde..de..Deserialize$u20$for$u20$i32$GT$..deserialize..PrimitiveVisitor$u20$as$u20$serde..de..Visitor$GT$9expecting17h81085e5bf80193fdE
libmozjs128-debug.so:_ZN143_$LT$serde..de..impls..$LT$impl$u20$serde..de..Deserialize$u20$for$u20$i64$GT$..deserialize..PrimitiveVisitor$u20$as$u20$serde..de..Visitor$GT$9expecting17h2ba0ab03d9157087E
libmozjs128-debug.so:_ZN143_$LT$serde..de..impls..$LT$impl$u20$serde..de..Deserialize$u20$for$u20$u16$GT$..deserialize..PrimitiveVisitor$u20$as$u20$serde..de..Visitor$GT$9expecting17h7d657724cba6b1fbE
libmozjs128-debug.so:_ZN143_$LT$serde..de..impls..$LT$impl$u20$serde..de..Deserialize$u20$for$u20$u32$GT$..deserialize..PrimitiveVisitor$u20$as$u20$serde..de..Visitor$GT$9expecting17h3447aee41f5e94c6E
libmozjs128-debug.so:_ZN143_$LT$serde..de..impls..$LT$impl$u20$serde..de..Deserialize$u20$for$u20$u64$GT$..deserialize..PrimitiveVisitor$u20$as$u20$serde..de..Visitor$GT$9expecting17hfaf65229dd4478daE
libmozjs128-debug.so:_ZN144_$LT$serde..de..impls..$LT$impl$u20$serde..de..Deserialize$u20$for$u20$i128$GT$..deserialize..PrimitiveVisitor$u20$as$u20$serde..de..Visitor$GT$9expecting17hcaa5b07475c1b204E
libmozjs128-debug.so:_ZN144_$LT$serde..de..impls..$LT$impl$u20$serde..de..Deserialize$u20$for$u20$u128$GT$..deserialize..PrimitiveVisitor$u20$as$u20$serde..de..Visitor$GT$9expecting17h7a1ba184e07bceffE
libmozjs128-debug.so:_ZN145_$LT$serde..de..impls..$LT$impl$u20$serde..de..Deserialize$u20$for$u20$isize$GT$..deserialize..PrimitiveVisitor$u20$as$u20$serde..de..Visitor$GT$9expecting17h88b3e20fa7a2a672E
libmozjs128-debug.so:_ZN145_$LT$serde..de..impls..$LT$impl$u20$serde..de..Deserialize$u20$for$u20$usize$GT$..deserialize..PrimitiveVisitor$u20$as$u20$serde..de..Visitor$GT$9expecting17h6c81f556e11f2aa8E
libmozjs128-debug.so:_ZN14ProfilingStack18ensureCapacitySlowEv
libmozjs128-debug.so:_ZN14ProfilingStackD1Ev
libmozjs128-debug.so:_ZN14ProfilingStackD2Ev
libmozjs128-debug.so:_ZN159_$LT$serde..de..impls..$LT$impl$u20$serde..de..Deserialize$u20$for$u20$core..time..Duration$GT$..deserialize..DurationVisitor$u20$as$u20$serde..de..Visitor$GT$9expecting17hc3780ca9b211a45fE
libmozjs128-debug.so:_ZN15MmapAccessScopeC1EPvjPKc
libmozjs128-debug.so:_ZN15MmapAccessScopeC2EPvjPKc
libmozjs128-debug.so:_ZN15MmapAccessScopeD1Ev
libmozjs128-debug.so:_ZN15MmapAccessScopeD2Ev
libmozjs128-debug.so:_ZN160_$LT$serde..de..impls..$LT$impl$u20$serde..de..Deserialize$u20$for$u20$std..time..SystemTime$GT$..deserialize..DurationVisitor$u20$as$u20$serde..de..Visitor$GT$9expecting17h29e9f9c21b10ef17E
libmozjs128-debug.so:_ZN161_$LT$serde..de..impls..$LT$impl$u20$serde..de..Deserialize$u20$for$u20$core..net..ip_addr..IpAddr$GT$..deserialize..EnumVisitor$u20$as$u20$serde..de..Visitor$GT$9expecting17h4731e1d129910c96E
libmozjs128-debug.so:_ZN169_$LT$serde..de..impls..$LT$impl$u20$serde..de..Deserialize$u20$for$u20$core..net..socket_addr..SocketAddr$GT$..deserialize..EnumVisitor$u20$as$u20$serde..de..Visitor$GT$9expecting17h082f95f26a247eddE
libmozjs128-debug.so:_ZN175_$LT$serde..de..impls..$LT$impl$u20$serde..de..Deserialize$u20$for$u20$core..num..nonzero..NonZero$LT$i8$GT$$GT$..deserialize..NonZeroVisitor$u20$as$u20$serde..de..Visitor$GT$9expecting17h84a89942168068d3E
libmozjs128-debug.so:_ZN175_$LT$serde..de..impls..$LT$impl$u20$serde..de..Deserialize$u20$for$u20$core..num..nonzero..NonZero$LT$u8$GT$$GT$..deserialize..NonZeroVisitor$u20$as$u20$serde..de..Visitor$GT$9expecting17h081e9125c29b8f78E
libmozjs128-debug.so:_ZN176_$LT$serde..de..impls..$LT$impl$u20$serde..de..Deserialize$u20$for$u20$core..num..nonzero..NonZero$LT$i16$GT$$GT$..deserialize..NonZeroVisitor$u20$as$u20$serde..de..Visitor$GT$9expecting17hd71133741a490489E
libmozjs128-debug.so:_ZN176_$LT$serde..de..impls..$LT$impl$u20$serde..de..Deserialize$u20$for$u20$core..num..nonzero..NonZero$LT$i32$GT$$GT$..deserialize..NonZeroVisitor$u20$as$u20$serde..de..Visitor$GT$9expecting17h7327ee9f889dd506E
libmozjs128-debug.so:_ZN176_$LT$serde..de..impls..$LT$impl$u20$serde..de..Deserialize$u20$for$u20$core..num..nonzero..NonZero$LT$i64$GT$$GT$..deserialize..NonZeroVisitor$u20$as$u20$serde..de..Visitor$GT$9expecting17hb97b1ceeed57cb43E
libmozjs128-debug.so:_ZN176_$LT$serde..de..impls..$LT$impl$u20$serde..de..Deserialize$u20$for$u20$core..num..nonzero..NonZero$LT$u16$GT$$GT$..deserialize..NonZeroVisitor$u20$as$u20$serde..de..Visitor$GT$9expecting17h50fbbf1b3f342506E
libmozjs128-debug.so:_ZN176_$LT$serde..de..impls..$LT$impl$u20$serde..de..Deserialize$u20$for$u20$core..num..nonzero..NonZero$LT$u32$GT$$GT$..deserialize..NonZeroVisitor$u20$as$u20$serde..de..Visitor$GT$9expecting17h6bfa21229731431cE
libmozjs128-debug.so:_ZN176_$LT$serde..de..impls..$LT$impl$u20$serde..de..Deserialize$u20$for$u20$core..num..nonzero..NonZero$LT$u64$GT$$GT$..deserialize..NonZeroVisitor$u20$as$u20$serde..de..Visitor$GT$9expecting17h3abfa98a2df6d9f6E
libmozjs128-debug.so:_ZN177_$LT$serde..de..impls..$LT$impl$u20$serde..de..Deserialize$u20$for$u20$core..num..nonzero..NonZero$LT$i128$GT$$GT$..deserialize..NonZeroVisitor$u20$as$u20$serde..de..Visitor$GT$9expecting17hbc4b084cc437a675E
libmozjs128-debug.so:_ZN177_$LT$serde..de..impls..$LT$impl$u20$serde..de..Deserialize$u20$for$u20$core..num..nonzero..NonZero$LT$u128$GT$$GT$..deserialize..NonZeroVisitor$u20$as$u20$serde..de..Visitor$GT$9expecting17hc7ba24c1a5cdb954E
libmozjs128-debug.so:_ZN178_$LT$serde..de..impls..$LT$impl$u20$serde..de..Deserialize$u20$for$u20$core..num..nonzero..NonZero$LT$isize$GT$$GT$..deserialize..NonZeroVisitor$u20$as$u20$serde..de..Visitor$GT$9expecting17hb086ea92672e80d0E
libmozjs128-debug.so:_ZN178_$LT$serde..de..impls..$LT$impl$u20$serde..de..Deserialize$u20$for$u20$core..num..nonzero..NonZero$LT$usize$GT$$GT$..deserialize..NonZeroVisitor$u20$as$u20$serde..de..Visitor$GT$9expecting17hbcb4dd5a03c13482E
libmozjs128-debug.so:_ZN17double_conversion23DoubleToStringConverter13DoubleToAsciiEdNS0_8DtoaModeEiPciPbPiS4_
libmozjs128-debug.so:_ZN17double_conversion23DoubleToStringConverter19EcmaScriptConverterEv
libmozjs128-debug.so:_ZN184_$LT$serde..de..impls..$LT$impl$u20$serde..de..Deserialize$u20$for$u20$core..num..saturating..Saturating$LT$i8$GT$$GT$..deserialize..SaturatingVisitor$u20$as$u20$serde..de..Visitor$GT$9expecting17hd2a9eda2a6ae9f12E
libmozjs128-debug.so:_ZN184_$LT$serde..de..impls..$LT$impl$u20$serde..de..Deserialize$u20$for$u20$core..num..saturating..Saturating$LT$u8$GT$$GT$..deserialize..SaturatingVisitor$u20$as$u20$serde..de..Visitor$GT$9expecting17h52fa603fe31901b2E
libmozjs128-debug.so:_ZN185_$LT$core..ops..control_flow..ControlFlow$LT$B$C$C$GT$$u20$as$u20$core..ops..try_trait..FromResidual$LT$core..ops..control_flow..ControlFlow$LT$B$C$core..convert..Infallible$GT$$GT$$GT$13from_residual17h26a6fd9633394a9aE
libmozjs128-debug.so:_ZN185_$LT$core..ops..control_flow..ControlFlow$LT$B$C$C$GT$$u20$as$u20$core..ops..try_trait..FromResidual$LT$core..ops..control_flow..ControlFlow$LT$B$C$core..convert..Infallible$GT$$GT$$GT$13from_residual17h34e774f6b655449fE
libmozjs128-debug.so:_ZN185_$LT$core..ops..control_flow..ControlFlow$LT$B$C$C$GT$$u20$as$u20$core..ops..try_trait..FromResidual$LT$core..ops..control_flow..ControlFlow$LT$B$C$core..convert..Infallible$GT$$GT$$GT$13from_residual17h8b0ff9bedb91be91E
libmozjs128-debug.so:_ZN185_$LT$serde..de..impls..$LT$impl$u20$serde..de..Deserialize$u20$for$u20$core..num..saturating..Saturating$LT$i16$GT$$GT$..deserialize..SaturatingVisitor$u20$as$u20$serde..de..Visitor$GT$9expecting17h7ff96bc9992864f4E
libmozjs128-debug.so:_ZN185_$LT$serde..de..impls..$LT$impl$u20$serde..de..Deserialize$u20$for$u20$core..num..saturating..Saturating$LT$i32$GT$$GT$..deserialize..SaturatingVisitor$u20$as$u20$serde..de..Visitor$GT$9expecting17heb74cd6a092bd3e0E
libmozjs128-debug.so:_ZN185_$LT$serde..de..impls..$LT$impl$u20$serde..de..Deserialize$u20$for$u20$core..num..saturating..Saturating$LT$i64$GT$$GT$..deserialize..SaturatingVisitor$u20$as$u20$serde..de..Visitor$GT$9expecting17h8666ae8ca03aed68E
libmozjs128-debug.so:_ZN185_$LT$serde..de..impls..$LT$impl$u20$serde..de..Deserialize$u20$for$u20$core..num..saturating..Saturating$LT$u16$GT$$GT$..deserialize..SaturatingVisitor$u20$as$u20$serde..de..Visitor$GT$9expecting17ha4a101704b21c8deE
libmozjs128-debug.so:_ZN185_$LT$serde..de..impls..$LT$impl$u20$serde..de..Deserialize$u20$for$u20$core..num..saturating..Saturating$LT$u32$GT$$GT$..deserialize..SaturatingVisitor$u20$as$u20$serde..de..Visitor$GT$9expecting17hbd50c0bab049215eE
libmozjs128-debug.so:_ZN185_$LT$serde..de..impls..$LT$impl$u20$serde..de..Deserialize$u20$for$u20$core..num..saturating..Saturating$LT$u64$GT$$GT$..deserialize..SaturatingVisitor$u20$as$u20$serde..de..Visitor$GT$9expecting17he5480632f22181afE
libmozjs128-debug.so:_ZN186_$LT$serde..de..impls..$LT$impl$u20$serde..de..Deserialize$u20$for$u20$core..num..saturating..Saturating$LT$i128$GT$$GT$..deserialize..SaturatingVisitor$u20$as$u20$serde..de..Visitor$GT$9expecting17h04d9545f84313328E
libmozjs128-debug.so:_ZN186_$LT$serde..de..impls..$LT$impl$u20$serde..de..Deserialize$u20$for$u20$core..num..saturating..Saturating$LT$u128$GT$$GT$..deserialize..SaturatingVisitor$u20$as$u20$serde..de..Visitor$GT$9expecting17h15c132116ab0936eE
libmozjs128-debug.so:_ZN187_$LT$serde..de..impls..$LT$impl$u20$serde..de..Deserialize$u20$for$u20$core..num..saturating..Saturating$LT$isize$GT$$GT$..deserialize..SaturatingVisitor$u20$as$u20$serde..de..Visitor$GT$9expecting17h3da1b2c0e896e4afE
libmozjs128-debug.so:_ZN187_$LT$serde..de..impls..$LT$impl$u20$serde..de..Deserialize$u20$for$u20$core..num..saturating..Saturating$LT$usize$GT$$GT$..deserialize..SaturatingVisitor$u20$as$u20$serde..de..Visitor$GT$9expecting17haf7e746cbeb105edE
libmozjs128-debug.so:_ZN19JSAutoNullableRealmC1EP9JSContextP8JSObject
libmozjs128-debug.so:_ZN19JSAutoNullableRealmC2EP9JSContextP8JSObject
libmozjs128-debug.so:_ZN19JSAutoNullableRealmD1Ev
libmozjs128-debug.so:_ZN19JSAutoNullableRealmD2Ev
libmozjs128-debug.so:_ZN218_$LT$$LT$serde..de..impls..$LT$impl$u20$serde..de..Deserialize$u20$for$u20$core..time..Duration$GT$..deserialize..Field$u20$as$u20$serde..de..Deserialize$GT$..deserialize..FieldVisitor$u20$as$u20$serde..de..Visitor$GT$9expecting17h297d3d3e46298f59E
libmozjs128-debug.so:_ZN219_$LT$$LT$serde..de..impls..$LT$impl$u20$serde..de..Deserialize$u20$for$u20$std..time..SystemTime$GT$..deserialize..Field$u20$as$u20$serde..de..Deserialize$GT$..deserialize..FieldVisitor$u20$as$u20$serde..de..Visitor$GT$9expecting17h9da517fc741f6f36E
libmozjs128-debug.so:_ZN21JSStructuredCloneData20discardTransferablesEv
libmozjs128-debug.so:_ZN21JSStructuredCloneDataD1Ev
libmozjs128-debug.so:_ZN21JSStructuredCloneDataD2Ev
libmozjs128-debug.so:_ZN228_$LT$$LT$serde..de..impls..$LT$impl$u20$serde..de..Deserialize$u20$for$u20$core..net..ip_addr..IpAddr$GT$..deserialize..IpAddrKind$u20$as$u20$serde..de..Deserialize$GT$..deserialize..KindVisitor$u20$as$u20$serde..de..Visitor$GT$9expecting17h8640cbf2926d95cfE
libmozjs128-debug.so:_ZN230_$LT$$LT$serde..de..impls..$LT$impl$u20$serde..de..Deserialize$u20$for$u20$core..ops..range..Bound$LT$T$GT$$GT$..deserialize..Field$u20$as$u20$serde..de..Deserialize$GT$..deserialize..FieldVisitor$u20$as$u20$serde..de..Visitor$GT$9expecting17hcbc60a492f52da9fE
libmozjs128-debug.so:_ZN231_$LT$$LT$serde..de..impls..$LT$impl$u20$serde..de..Deserialize$u20$for$u20$core..result..Result$LT$T$C$E$GT$$GT$..deserialize..Field$u20$as$u20$serde..de..Deserialize$GT$..deserialize..FieldVisitor$u20$as$u20$serde..de..Visitor$GT$9expecting17hf50d014d63c01cfbE
libmozjs128-debug.so:_ZN240_$LT$$LT$serde..de..impls..$LT$impl$u20$serde..de..Deserialize$u20$for$u20$core..net..socket_addr..SocketAddr$GT$..deserialize..SocketAddrKind$u20$as$u20$serde..de..Deserialize$GT$..deserialize..KindVisitor$u20$as$u20$serde..de..Visitor$GT$9expecting17hddf7ff1a96fcf144E
libmozjs128-debug.so:_ZN27JSAutoStructuredCloneBuffer4readEP9JSContextN2JS13MutableHandleINS2_5ValueEEERKNS2_15CloneDataPolicyEPK26JSStructuredCloneCallbacksPv
libmozjs128-debug.so:_ZN27JSAutoStructuredCloneBuffer5adoptEO21JSStructuredCloneDatajPK26JSStructuredCloneCallbacksPv
libmozjs128-debug.so:_ZN27JSAutoStructuredCloneBuffer5clearEv
libmozjs128-debug.so:_ZN27JSAutoStructuredCloneBuffer5writeEP9JSContextN2JS6HandleINS2_5ValueEEEPK26JSStructuredCloneCallbacksPv
libmozjs128-debug.so:_ZN27JSAutoStructuredCloneBuffer5writeEP9JSContextN2JS6HandleINS2_5ValueEEES5_RKNS2_15CloneDataPolicyEPK26JSStructuredCloneCallbacksPv
libmozjs128-debug.so:_ZN27JSAutoStructuredCloneBuffer6giveToEP21JSStructuredCloneData
libmozjs128-debug.so:_ZN27JSAutoStructuredCloneBufferC1EOS_
libmozjs128-debug.so:_ZN27JSAutoStructuredCloneBufferC2EOS_
libmozjs128-debug.so:_ZN27JSAutoStructuredCloneBufferaSEOS_
libmozjs128-debug.so:_ZN2JS10EnterRealmEP9JSContextP8JSObject
libmozjs128-debug.so:_ZN2JS10IsCallableEP8JSObject
libmozjs128-debug.so:_ZN2JS10LeaveRealmEP9JSContextPNS_5RealmE
libmozjs128-debug.so:_ZN2JS10MapEntriesEP9JSContextNS_6HandleIP8JSObjectEENS_13MutableHandleINS_5ValueEEE
libmozjs128-debug.so:_ZN2JS10MapForEachEP9JSContextNS_6HandleIP8JSObjectEENS2_INS_5ValueEEES7_
libmozjs128-debug.so:_ZN2JS10ModuleLinkEP9JSContextNS_6HandleIP8JSObjectEE
libmozjs128-debug.so:_ZN2JS10PrintErrorEP8_IO_FILEP13JSErrorReportb
libmozjs128-debug.so:_ZN2JS10PrintErrorEP8_IO_FILERKNS_18ErrorReportBuilderEb
libmozjs128-debug.so:_ZN2JS10ScheduleGCEP9JSContextj
libmozjs128-debug.so:_ZN2JS10SetEntriesEP9JSContextNS_6HandleIP8JSObjectEENS_13MutableHandleINS_5ValueEEE
libmozjs128-debug.so:_ZN2JS10SetForEachEP9JSContextNS_6HandleIP8JSObjectEENS2_INS_5ValueEEES7_
libmozjs128-debug.so:_ZN2JS10ToBigInt64EPKNS_6BigIntE
libmozjs128-debug.so:_ZN2JS10ToGetterIdEP9JSContextNS_6HandleINS_11PropertyKeyEEENS_13MutableHandleIS3_EE
libmozjs128-debug.so:_ZN2JS10ToSetterIdEP9JSContextNS_6HandleINS_11PropertyKeyEEENS_13MutableHandleIS3_EE
libmozjs128-debug.so:_ZN2JS10WarnLatin1EP9JSContextPKcz
libmozjs128-debug.so:_ZN2JS11ArrayBuffer19GrowableSharedClassE
libmozjs128-debug.so:_ZN2JS11ArrayBuffer22FixedLengthSharedClassE
libmozjs128-debug.so:_ZN2JS11ArrayBuffer22ResizableUnsharedClassE
libmozjs128-debug.so:_ZN2JS11ArrayBuffer24FixedLengthUnsharedClassE
libmozjs128-debug.so:_ZN2JS11ArrayBuffer6createEP9JSContextm
libmozjs128-debug.so:_ZN2JS11ArrayBuffer6unwrapEP8JSObject
libmozjs128-debug.so:_ZN2JS11ArrayBuffer7getDataEPbRKNS_15AutoRequireNoGCE
libmozjs128-debug.so:_ZN2JS11Compartment10putWrapperEP9JSContextP8JSObjectS4_
libmozjs128-debug.so:_ZN2JS11Compartment10putWrapperEP9JSContextP8JSStringS4_
libmozjs128-debug.so:_ZN2JS11Compartment11sweepRealmsEPNS_9GCContextEbb
libmozjs128-debug.so:_ZN2JS11Compartment13removeWrapperEN2js16ObjectWrapperMap3PtrE
libmozjs128-debug.so:_ZN2JS11Compartment17sweepAfterMinorGCEP8JSTracer
libmozjs128-debug.so:_ZN2JS11Compartment18fixupAfterMovingGCEP8JSTracer
libmozjs128-debug.so:_ZN2JS11Compartment18getOrCreateWrapperEP9JSContextNS_6HandleIP8JSObjectEENS_13MutableHandleIS5_EE
libmozjs128-debug.so:_ZN2JS11Compartment19findSweepGroupEdgesEv
libmozjs128-debug.so:_ZN2JS11Compartment22addSizeOfIncludingThisEPFmPKvEPmS5_S5_
libmozjs128-debug.so:_ZN2JS11Compartment24traceWeakNativeIteratorsEP8JSTracer
libmozjs128-debug.so:_ZN2JS11Compartment32checkObjectWrappersAfterMovingGCEv
libmozjs128-debug.so:_ZN2JS11Compartment35traceWrapperTargetsInCollectedZonesEP8JSTracerNS0_12EdgeSelectorE
libmozjs128-debug.so:_ZN2JS11Compartment39traceCrossCompartmentObjectWrapperEdgesEP8JSTracer
libmozjs128-debug.so:_ZN2JS11Compartment40getNonWrapperObjectForCurrentCompartmentEP9JSContextNS_6HandleIP8JSObjectEENS_13MutableHandleIS5_EE
libmozjs128-debug.so:_ZN2JS11Compartment43traceIncomingCrossCompartmentEdgesForZoneGCEP8JSTracerNS0_12EdgeSelectorE
libmozjs128-debug.so:_ZN2JS11Compartment48fixupCrossCompartmentObjectWrappersAfterMovingGCEP8JSTracer
libmozjs128-debug.so:_ZN2JS11Compartment4wrapEP9JSContextNS_13MutableHandleIN7mozilla5MaybeINS_18PropertyDescriptorEEEEE
libmozjs128-debug.so:_ZN2JS11Compartment4wrapEP9JSContextNS_13MutableHandleINS_18PropertyDescriptorEEE
libmozjs128-debug.so:_ZN2JS11Compartment4wrapEP9JSContextNS_13MutableHandleINS_8GCVectorINS_5ValueELm0EN2js15TempAllocPolicyEEEEE
libmozjs128-debug.so:_ZN2JS11Compartment4wrapEP9JSContextNS_13MutableHandleIP8JSObjectEE
libmozjs128-debug.so:_ZN2JS11Compartment4wrapEP9JSContextNS_13MutableHandleIP8JSStringEE
libmozjs128-debug.so:_ZN2JS11Compartment4wrapEP9JSContextNS_13MutableHandleIPNS_6BigIntEEE
libmozjs128-debug.so:_ZN2JS11Compartment6rewrapEP9JSContextNS_13MutableHandleIP8JSObjectEENS_6HandleIS5_EE
libmozjs128-debug.so:_ZN2JS11Compartment7destroyEPNS_9GCContextE
libmozjs128-debug.so:_ZN2JS11CompartmentC1EPNS_4ZoneEb
libmozjs128-debug.so:_ZN2JS11CompartmentC2EPNS_4ZoneEb
libmozjs128-debug.so:_ZN2JS11CreateErrorEP9JSContext9JSExnTypeNS_6HandleIP8JSObjectEENS3_IP8JSStringEEjNS_21ColumnNumberOneOriginEP13JSErrorReportS9_NS3_IN7mozilla5MaybeINS_5ValueEEEEENS_13MutableHandleISF_EE
libmozjs128-debug.so:_ZN2JS11DayFromTimeEd
libmozjs128-debug.so:_ZN2JS11DayFromYearEd
libmozjs128-debug.so:_ZN2JS11GetJSTimersEP9JSContext
libmozjs128-debug.so:_ZN2JS11IsAtomsZoneEPNS_4ZoneE
libmozjs128-debug.so:_ZN2JS11IsMapObjectEP9JSContextNS_6HandleIP8JSObjectEEPb
libmozjs128-debug.so:_ZN2JS11IsSetObjectEP9JSContextNS_6HandleIP8JSObjectEEPb
libmozjs128-debug.so:_ZN2JS11IsValidJSONEPKDsj
libmozjs128-debug.so:_ZN2JS11IsValidJSONEPKhj
libmozjs128-debug.so:_ZN2JS11PropertyKey12isNonIntAtomEP6JSAtom
libmozjs128-debug.so:_ZN2JS11PropertyKey12isNonIntAtomEP8JSString
libmozjs128-debug.so:_ZN2JS11PropertyKey16fromPinnedStringEP8JSString
libmozjs128-debug.so:_ZN2JS11SetJobQueueEP9JSContextPNS_8JobQueueE
libmozjs128-debug.so:_ZN2JS11ToBigUint64EPKNS_6BigIntE
libmozjs128-debug.so:_ZN2JS11ToPrimitiveEP9JSContextNS_6HandleIP8JSObjectEE6JSTypeNS_13MutableHandleINS_5ValueEEE
libmozjs128-debug.so:_ZN2JS11UnsetGCZealEP9JSContexth
libmozjs128-debug.so:_ZN2JS12AddSizeOfTabEP9JSContextNS_6HandleIP8JSObjectEEPFmPKvEPNS_20ObjectPrivateVisitorEPNS_8TabSizesE
libmozjs128-debug.so:_ZN2JS12AutoFilename10setUnownedEPKc
libmozjs128-debug.so:_ZN2JS12AutoFilename15setScriptSourceEPN2js12ScriptSourceE
libmozjs128-debug.so:_ZN2JS12AutoFilename5resetEv
libmozjs128-debug.so:_ZN2JS12AutoFilename8setOwnedEON7mozilla9UniquePtrIA_cNS_10FreePolicyEEE
libmozjs128-debug.so:_ZN2JS12AutoGCRooter5traceEP8JSTracer
libmozjs128-debug.so:_ZN2JS12GetPromiseIDENS_6HandleIP8JSObjectEE
libmozjs128-debug.so:_ZN2JS12GetSymbolForEP9JSContextNS_6HandleIP8JSStringEE
libmozjs128-debug.so:_ZN2JS12LooselyEqualEP9JSContextNS_6HandleINS_5ValueEEES4_Pb
libmozjs128-debug.so:_ZN2JS12NewMapObjectEP9JSContext
libmozjs128-debug.so:_ZN2JS12NewSetObjectEP9JSContext
libmozjs128-debug.so:_ZN2JS12ObjectIsDateEP9JSContextNS_6HandleIP8JSObjectEEPb
libmozjs128-debug.so:_ZN2JS12ProtoKeyToIdEP9JSContext10JSProtoKeyNS_13MutableHandleINS_11PropertyKeyEEE
libmozjs128-debug.so:_ZN2JS12YearFromTimeEd
libmozjs128-debug.so:_ZN2JS13CompileModuleEP9JSContextRKNS_22ReadOnlyCompileOptionsERNS_10SourceTextIDsEE
libmozjs128-debug.so:_ZN2JS13CompileModuleEP9JSContextRKNS_22ReadOnlyCompileOptionsERNS_10SourceTextIN7mozilla8Utf8UnitEEE
libmozjs128-debug.so:_ZN2JS13DayWithinYearEdd
libmozjs128-debug.so:_ZN2JS13DecodeStencilEP9JSContextRKNS_21ReadOnlyDecodeOptionsERKN7mozilla5RangeIKhEEPPN2js8frontend18CompilationStencilE
libmozjs128-debug.so:_ZN2JS13DecodeStencilEPN2js15FrontendContextERKNS_21ReadOnlyDecodeOptionsERKN7mozilla5RangeIKhEEPPNS0_8frontend18CompilationStencilE
libmozjs128-debug.so:_ZN2JS13EncodeStencilEP9JSContextPN2js8frontend18CompilationStencilERN7mozilla6VectorIhLm0ENS6_17MallocAllocPolicyEEE
libmozjs128-debug.so:_ZN2JS13ExecuteRegExpEP9JSContextNS_6HandleIP8JSObjectEES5_PKDsmPmbNS_13MutableHandleINS_5ValueEEE
libmozjs128-debug.so:_ZN2JS13ForOfIterator10closeThrowEv
libmozjs128-debug.so:_ZN2JS13ForOfIterator4initENS_6HandleINS_5ValueEEENS0_19NonIterableBehaviorE
libmozjs128-debug.so:_ZN2JS13ForOfIterator4nextENS_13MutableHandleINS_5ValueEEEPb
libmozjs128-debug.so:_ZN2JS13GetGCZealBitsEP9JSContextPjS2_S2_
libmozjs128-debug.so:_ZN2JS13GetObjectZoneEP8JSObject
libmozjs128-debug.so:_ZN2JS13GetSymbolCodeENS_6HandleIPNS_6SymbolEEE
libmozjs128-debug.so:_ZN2JS13GetWasmModuleENS_6HandleIP8JSObjectEE
libmozjs128-debug.so:_ZN2JS13IsArrayObjectEP9JSContextNS_6HandleINS_5ValueEEEPb
libmozjs128-debug.so:_ZN2JS13IsArrayObjectEP9JSContextNS_6HandleIP8JSObjectEEPb
libmozjs128-debug.so:_ZN2JS13IsConstructorEP8JSObject
libmozjs128-debug.so:_ZN2JS13IsGCPoisoningEv
libmozjs128-debug.so:_ZN2JS13IsGCScheduledEP9JSContext
libmozjs128-debug.so:_ZN2JS13IterateRealmsEP9JSContextPvPFvS1_S2_PNS_5RealmERKNS_15AutoRequireNoGCEE
libmozjs128-debug.so:_ZN2JS13MinorGcToJSONEP9JSContext
libmozjs128-debug.so:_ZN2JS13MonthFromTimeEd
libmozjs128-debug.so:_ZN2JS13NewDateObjectEP9JSContextNS_11ClippedTimeE
libmozjs128-debug.so:_ZN2JS13NewDateObjectEP9JSContextiiiiii
libmozjs128-debug.so:_ZN2JS13PurgePCCountsEP9JSContext
libmozjs128-debug.so:_ZN2JS13RejectPromiseEP9JSContextNS_6HandleIP8JSObjectEENS2_INS_5ValueEEE
libmozjs128-debug.so:_ZN2JS13ResetTimeZoneEv
libmozjs128-debug.so:_ZN2JS13SizeOfStencilEPN2js8frontend18CompilationStencilEPFmPKvE
libmozjs128-debug.so:_ZN2JS13SkipZoneForGCEP9JSContextPNS_4ZoneE
libmozjs128-debug.so:_ZN2JS13StencilAddRefEPN2js8frontend18CompilationStencilE
libmozjs128-debug.so:_ZN2JS13StrictlyEqualEP9JSContextNS_6HandleINS_5ValueEEES4_Pb
libmozjs128-debug.so:_ZN2JS13StringIsASCIIEN7mozilla4SpanIKcLm18446744073709551615EEE
libmozjs128-debug.so:_ZN2JS13StringIsASCIIEPKc
libmozjs128-debug.so:_ZN2JS13TraceChildrenEP8JSTracerNS_9GCCellPtrE
libmozjs128-debug.so:_ZN2JS14AddServoSizeOfEP9JSContextPFmPKvEPNS_20ObjectPrivateVisitorEPNS_10ServoSizesE
libmozjs128-debug.so:_ZN2JS14AutoAssertNoGC5resetEv
libmozjs128-debug.so:_ZN2JS14AutoAssertNoGCC1EP9JSContext
libmozjs128-debug.so:_ZN2JS14AutoAssertNoGCC2EP9JSContext
libmozjs128-debug.so:_ZN2JS14AutoAssertNoGCD1Ev
libmozjs128-debug.so:_ZN2JS14AutoAssertNoGCD2Ev
libmozjs128-debug.so:_ZN2JS14BigIntToNumberEPKNS_6BigIntE
libmozjs128-debug.so:_ZN2JS14BigIntToStringEP9JSContextNS_6HandleIPNS_6BigIntEEEh
libmozjs128-debug.so:_ZN2JS14CallbackTracerC1EP9JSContextNS_10TracerKindENS_12TraceOptionsE
libmozjs128-debug.so:_ZN2JS14CallbackTracerC2EP9JSContextNS_10TracerKindENS_12TraceOptionsE
libmozjs128-debug.so:_ZN2JS14CompileOptions27setIntroductionInfoToCallerEP9JSContextPKcNS_13MutableHandleIP8JSScriptEE
libmozjs128-debug.so:_ZN2JS14CompileOptionsC1EP9JSContext
libmozjs128-debug.so:_ZN2JS14CompileOptionsC2EP9JSContext
libmozjs128-debug.so:_ZN2JS14ContextOptions10setFuzzingEb
libmozjs128-debug.so:_ZN2JS14CopyAsyncStackEP9JSContextNS_6HandleIP8JSObjectEENS2_IP8JSStringEENS_13MutableHandleIS4_EERKN7mozilla5MaybeImEE
libmozjs128-debug.so:_ZN2JS14GetArrayLengthEP9JSContextNS_6HandleIP8JSObjectEEPj
libmozjs128-debug.so:_ZN2JS14GetRegExpFlagsEP9JSContextNS_6HandleIP8JSObjectEE
libmozjs128-debug.so:_ZN2JS14IsISOStyleDateEP9JSContextRKNS_11Latin1CharsE
libmozjs128-debug.so:_ZN2JS14ModuleEvaluateEP9JSContextNS_6HandleIP8JSObjectEENS_13MutableHandleINS_5ValueEEE
libmozjs128-debug.so:_ZN2JS14ModuleIsLinkedEP8JSObject
libmozjs128-debug.so:_ZN2JS14NewArrayBufferEP9JSContextm
libmozjs128-debug.so:_ZN2JS14NewArrayObjectEP9JSContextRKNS_16HandleValueArrayE
libmozjs128-debug.so:_ZN2JS14NewArrayObjectEP9JSContextm
libmozjs128-debug.so:_ZN2JS14NumberToBigIntEP9JSContextd
libmozjs128-debug.so:_ZN2JS14NumberToStringEdRA32_c
libmozjs128-debug.so:_ZN2JS14ObjectIsRegExpEP9JSContextNS_6HandleIP8JSObjectEEPb
libmozjs128-debug.so:_ZN2JS14ObjectOpResult12failBadIndexEv
libmozjs128-debug.so:_ZN2JS14ObjectOpResult12failReadOnlyEv
libmozjs128-debug.so:_ZN2JS14ObjectOpResult14failCantDeleteEv
libmozjs128-debug.so:_ZN2JS14ObjectOpResult14failGetterOnlyEv
libmozjs128-debug.so:_ZN2JS14ObjectOpResult16failCantSetProtoEv
libmozjs128-debug.so:_ZN2JS14ObjectOpResult17failNoNamedSetterEv
libmozjs128-debug.so:_ZN2JS14ObjectOpResult18failBadArrayLengthEv
libmozjs128-debug.so:_ZN2JS14ObjectOpResult19failNoIndexedSetterEv
libmozjs128-debug.so:_ZN2JS14ObjectOpResult20failCantRedefinePropEv
libmozjs128-debug.so:_ZN2JS14ObjectOpResult21failCantSetInterposedEv
libmozjs128-debug.so:_ZN2JS14ObjectOpResult21failInvalidDescriptorEv
libmozjs128-debug.so:_ZN2JS14ObjectOpResult21failNotDataDescriptorEv
libmozjs128-debug.so:_ZN2JS14ObjectOpResult25failCantPreventExtensionsEv
libmozjs128-debug.so:_ZN2JS14ObjectOpResult27failCantDefineWindowElementEv
libmozjs128-debug.so:_ZN2JS14ObjectOpResult27failCantDeleteWindowElementEv
libmozjs128-debug.so:_ZN2JS14ObjectOpResult33failCantDefineWindowNamedPropertyEv
libmozjs128-debug.so:_ZN2JS14ObjectOpResult33failCantDeleteWindowNamedPropertyEv
libmozjs128-debug.so:_ZN2JS14ObjectOpResult35failCantDefineWindowNonConfigurableEv
libmozjs128-debug.so:_ZN2JS14ResolvePromiseEP9JSContextNS_6HandleIP8JSObjectEENS2_INS_5ValueEEE
libmozjs128-debug.so:_ZN2JS14SetArrayLengthEP9JSContextNS_6HandleIP8JSObjectEEj
libmozjs128-debug.so:_ZN2JS14SetBrittleModeEP9JSContextb
libmozjs128-debug.so:_ZN2JS14SetRegExpInputEP9JSContextNS_6HandleIP8JSObjectEENS2_IP8JSStringEE
libmozjs128-debug.so:_ZN2JS14SetXrayJitInfoEPNS_11XrayJitInfoE
libmozjs128-debug.so:_ZN2JS14StencilReleaseEPN2js8frontend18CompilationStencilE
libmozjs128-debug.so:_ZN2JS14StringToBigIntEP9JSContextRKN7mozilla5RangeIKDsEE
libmozjs128-debug.so:_ZN2JS14StringToBigIntEP9JSContextRKN7mozilla5RangeIKhEE
libmozjs128-debug.so:_ZN2JS14UserRealmCountEP9JSContext
libmozjs128-debug.so:_ZN2JS15ArrayBufferView7getDataEPbRKNS_15AutoRequireNoGCE
libmozjs128-debug.so:_ZN2JS15CompileFunctionEP9JSContextNS_6HandleINS_13StackGCVectorIP8JSObjectN2js15TempAllocPolicyEEEEERKNS_22ReadOnlyCompileOptionsEPKcjPKSE_RNS_10SourceTextIDsEE
libmozjs128-debug.so:_ZN2JS15CompileFunctionEP9JSContextNS_6HandleINS_13StackGCVectorIP8JSObjectN2js15TempAllocPolicyEEEEERKNS_22ReadOnlyCompileOptionsEPKcjPKSE_RNS_10SourceTextIN7mozilla8Utf8UnitEEE
libmozjs128-debug.so:_ZN2JS15CompileUtf8FileEP9JSContextRKNS_22ReadOnlyCompileOptionsEP8_IO_FILE
libmozjs128-debug.so:_ZN2JS15CompileUtf8PathEP9JSContextRKNS_22ReadOnlyCompileOptionsEPKc
libmozjs128-debug.so:_ZN2JS15ConstUTF8CharsZ21validateWithoutLengthEv
libmozjs128-debug.so:_ZN2JS15ConstUTF8CharsZ8validateEm
libmozjs128-debug.so:_ZN2JS15CopyArrayBufferEP9JSContextNS_6HandleIP8JSObjectEE
libmozjs128-debug.so:_ZN2JS15ExplainGCReasonENS_8GCReasonE
libmozjs128-debug.so:_ZN2JS15FormatStackDumpEP9JSContextbbb
libmozjs128-debug.so:_ZN2JS15GCTraceKindSizeENS_9TraceKindE
libmozjs128-debug.so:_ZN2JS15GetBuiltinClassEP9JSContextNS_6HandleIP8JSObjectEEPN2js7ESClassE
libmozjs128-debug.so:_ZN2JS15GetModuleObjectENS_6HandleIP8JSScriptEE
libmozjs128-debug.so:_ZN2JS15GetModuleScriptENS_6HandleIP8JSObjectEE
libmozjs128-debug.so:_ZN2JS15GetPromiseStateENS_6HandleIP8JSObjectEE
libmozjs128-debug.so:_ZN2JS15GetRealmPrivateEPNS_5RealmE
libmozjs128-debug.so:_ZN2JS15GetRegExpSourceEP9JSContextNS_6HandleIP8JSObjectEE
libmozjs128-debug.so:_ZN2JS15GetWeakMapEntryEP9JSContextNS_6HandleIP8JSObjectEENS2_INS_5ValueEEENS_13MutableHandleIS6_EE
libmozjs128-debug.so:_ZN2JS15IsPromiseObjectENS_6HandleIP8JSObjectEE
libmozjs128-debug.so:_ZN2JS15IsWeakMapObjectEP8JSObject
libmozjs128-debug.so:_ZN2JS15JobQueueIsEmptyEP9JSContext
libmozjs128-debug.so:_ZN2JS15NewRegExpObjectEP9JSContextPKcmNS_11RegExpFlagsE
libmozjs128-debug.so:_ZN2JS15NullHandleValueE
libmozjs128-debug.so:_ZN2JS15SetRealmNonLiveEPNS_5RealmE
libmozjs128-debug.so:_ZN2JS15SetRealmPrivateEPNS_5RealmEPv
libmozjs128-debug.so:_ZN2JS15SetWaitCallbackEP9JSRuntimePFPvPhEPFvS2_Em
libmozjs128-debug.so:_ZN2JS15SetWeakMapEntryEP9JSContextNS_6HandleIP8JSObjectEENS2_INS_5ValueEEES7_
libmozjs128-debug.so:_ZN2JS15TrueHandleValueE
libmozjs128-debug.so:_ZN2JS15TypedArray_base10fromObjectEP8JSObject
libmozjs128-debug.so:_ZN2JS15TypedArray_base16resizableClassesE
libmozjs128-debug.so:_ZN2JS15TypedArray_base18fixedLengthClassesE
libmozjs128-debug.so:_ZN2JS16ArrayBufferCloneEP9JSContextNS_6HandleIP8JSObjectEEmm
libmozjs128-debug.so:_ZN2JS16BigIntFitsNumberEPKNS_6BigIntEPd
libmozjs128-debug.so:_ZN2JS16BigIntIsNegativeEPKNS_6BigIntE
libmozjs128-debug.so:_ZN2JS16BuildStackStringEP9JSContextP12JSPrincipalsNS_6HandleIP8JSObjectEENS_13MutableHandleIP8JSStringEEmN2js11StackFormatE
libmozjs128-debug.so:_ZN2JS16ClearKeptObjectsEP9JSContext
libmozjs128-debug.so:_ZN2JS16EncodeUtf8ToWideEP9JSContextPKc
libmozjs128-debug.so:_ZN2JS16EncodeWideToUtf8EP9JSContextPKw
libmozjs128-debug.so:_ZN2JS16EvaluateUtf8PathEP9JSContextRKNS_22ReadOnlyCompileOptionsEPKcNS_13MutableHandleINS_5ValueEEE
libmozjs128-debug.so:_ZN2JS16FalseHandleValueE
libmozjs128-debug.so:_ZN2JS16GCThingTraceKindEPv
libmozjs128-debug.so:_ZN2JS16GetFunctionRealmEP9JSContextNS_6HandleIP8JSObjectEE
libmozjs128-debug.so:_ZN2JS16GetModulePrivateEP8JSObject
libmozjs128-debug.so:_ZN2JS16GetPromiseResultENS_6HandleIP8JSObjectEE
libmozjs128-debug.so:_ZN2JS16GetScriptPrivateEP8JSScript
libmozjs128-debug.so:_ZN2JS16InternalGCReasonENS_8GCReasonE
libmozjs128-debug.so:_ZN2JS16IsJSMEnvironmentEP8JSObject
libmozjs128-debug.so:_ZN2JS16NewPromiseObjectEP9JSContextNS_6HandleIP8JSObjectEE
libmozjs128-debug.so:_ZN2JS16NewWeakMapObjectEP9JSContext
libmozjs128-debug.so:_ZN2JS16NonIncrementalGCEP9JSContextNS_9GCOptionsENS_8GCReasonE
libmozjs128-debug.so:_ZN2JS16PrepareForFullGCEP9JSContext
libmozjs128-debug.so:_ZN2JS16PrepareZoneForGCEP9JSContextPNS_4ZoneE
libmozjs128-debug.so:_ZN2JS16RuntimeHeapStateEv
libmozjs128-debug.so:_ZN2JS16SetModulePrivateEP8JSObjectRKNS_5ValueE
libmozjs128-debug.so:_ZN2JS16SetScriptPrivateEP8JSScriptRKNS_5ValueE
libmozjs128-debug.so:_ZN2JS16SystemRealmCountEP9JSContext
libmozjs128-debug.so:_ZN2JS16WantEagerMajorGCEP9JSRuntime
libmozjs128-debug.so:_ZN2JS16WantEagerMinorGCEP9JSRuntime
libmozjs128-debug.so:_ZN2JS16WasIncrementalGCEP9JSRuntime
libmozjs128-debug.so:_ZN2JS17AddPersistentRootEP9JSRuntimeNS_8RootKindEPN2js20PersistentRootedBaseE
libmozjs128-debug.so:_ZN2JS17AddPersistentRootEPNS_14RootingContextENS_8RootKindEPN2js20PersistentRootedBaseE
libmozjs128-debug.so:_ZN2JS17ArrayBufferOrView6unwrapEP8JSObject
libmozjs128-debug.so:_ZN2JS17CheckRegExpSyntaxEP9JSContextPKDsmNS_11RegExpFlagsENS_13MutableHandleINS_5ValueEEE
libmozjs128-debug.so:_ZN2JS17CompileJsonModuleEP9JSContextRKNS_22ReadOnlyCompileOptionsERNS_10SourceTextIDsEE
libmozjs128-debug.so:_ZN2JS17ContextOptionsRefEP9JSContext
libmozjs128-debug.so:_ZN2JS17DetachArrayBufferEP9JSContextNS_6HandleIP8JSObjectEE
libmozjs128-debug.so:_ZN2JS17DisableJitBackendEv
libmozjs128-debug.so:_ZN2JS17GetExceptionCauseEP8JSObject
libmozjs128-debug.so:_ZN2JS17GetProfiledFramesEP9JSContextPv
libmozjs128-debug.so:_ZN2JS17GetRealmKeyObjectEP9JSContext
libmozjs128-debug.so:_ZN2JS17GetSavedFrameLineEP9JSContextP12JSPrincipalsNS_6HandleIP8JSObjectEEPjNS_20SavedFrameSelfHostedE
libmozjs128-debug.so:_ZN2JS17HadFrontendErrorsEPN2js15FrontendContextE
libmozjs128-debug.so:_ZN2JS17NewJSMEnvironmentEP9JSContext
libmozjs128-debug.so:_ZN2JS17NewUCRegExpObjectEP9JSContextPKDsmNS_11RegExpFlagsE
libmozjs128-debug.so:_ZN2JS17RealmBehaviorsRefEP9JSContext
libmozjs128-debug.so:_ZN2JS17RealmBehaviorsRefEPNS_5RealmE
libmozjs128-debug.so:_ZN2JS17SetLowMemoryStateEP9JSContextb
libmozjs128-debug.so:_ZN2JS17StencilIsBorrowedEPN2js8frontend18CompilationStencilE
libmozjs128-debug.so:_ZN2JS17ToJSONMaybeSafelyEP9JSContextNS_6HandleIP8JSObjectEEPFbPKDsjPvES8_
libmozjs128-debug.so:_ZN2JS17UnwrapArrayBufferEP8JSObject
libmozjs128-debug.so:_ZN2JS17Utf8ToOneUcs4CharEPKhi
libmozjs128-debug.so:_ZN2JS18AbortIncrementalGCEP9JSContext
libmozjs128-debug.so:_ZN2JS18ArrayBufferHasDataEP8JSObject
libmozjs128-debug.so:_ZN2JS18ClearModulePrivateEP8JSObject
libmozjs128-debug.so:_ZN2JS18ClearRegExpStaticsEP9JSContextNS_6HandleIP8JSObjectEE
libmozjs128-debug.so:_ZN2JS18CollectGlobalStatsEPNS_11GlobalStatsE
libmozjs128-debug.so:_ZN2JS18EncodeNarrowToUtf8EP9JSContextPKc
libmozjs128-debug.so:_ZN2JS18EncodeUtf8ToNarrowEP9JSContextPKc
libmozjs128-debug.so:_ZN2JS18ErrorReportBuilder35populateUncaughtExceptionReportUTF8EP9JSContextNS_6HandleIP8JSObjectEEz
libmozjs128-debug.so:_ZN2JS18ErrorReportBuilder37populateUncaughtExceptionReportUTF8VAEP9JSContextNS_6HandleIP8JSObjectEEP13__va_list_tag
libmozjs128-debug.so:_ZN2JS18ErrorReportBuilder4initEP9JSContextRKNS_14ExceptionStackENS0_16SniffingBehaviorE
libmozjs128-debug.so:_ZN2JS18ErrorReportBuilderC1EP9JSContext
libmozjs128-debug.so:_ZN2JS18ErrorReportBuilderC2EP9JSContext
libmozjs128-debug.so:_ZN2JS18ErrorReportBuilderD1Ev
libmozjs128-debug.so:_ZN2JS18ErrorReportBuilderD2Ev
libmozjs128-debug.so:_ZN2JS18FirstSubsumedFrameC1EP9JSContextb
libmozjs128-debug.so:_ZN2JS18FirstSubsumedFrameC2EP9JSContextb
libmozjs128-debug.so:_ZN2JS18GCTraceKindToAsciiENS_9TraceKindE
libmozjs128-debug.so:_ZN2JS18GetArrayBufferDataEP8JSObjectPbRKNS_15AutoRequireNoGCE
libmozjs128-debug.so:_ZN2JS18GetIsSecureContextEPNS_5RealmE
libmozjs128-debug.so:_ZN2JS18GetModuleNamespaceEP9JSContextNS_6HandleIP8JSObjectEE
libmozjs128-debug.so:_ZN2JS18GetNurseryCellZoneEPN2js2gc4CellE
libmozjs128-debug.so:_ZN2JS18GetRealmPrincipalsEPNS_5RealmE
libmozjs128-debug.so:_ZN2JS18GetWarningReporterEP9JSContext
libmozjs128-debug.so:_ZN2JS18GetWellKnownSymbolEP9JSContextNS_10SymbolCodeE
libmozjs128-debug.so:_ZN2JS18HideScriptedCallerEP9JSContext
libmozjs128-debug.so:_ZN2JS18IncrementalGCSliceEP9JSContextNS_8GCReasonERKN2js11SliceBudgetE
libmozjs128-debug.so:_ZN2JS18InitSelfHostedCodeEP9JSContextN7mozilla4SpanIKhLm18446744073709551615EEEPFbS1_S5_E
libmozjs128-debug.so:_ZN2JS18IsWasmModuleObjectENS_6HandleIP8JSObjectEE
libmozjs128-debug.so:_ZN2JS18NewFrontendContextEv
libmozjs128-debug.so:_ZN2JS18NothingHandleValueE
libmozjs128-debug.so:_ZN2JS18PropertyDescriptor5traceEP8JSTracer
libmozjs128-debug.so:_ZN2JS18SetGCSliceCallbackEP9JSContextPFvS1_NS_10GCProgressERKNS_13GCDescriptionEE
libmozjs128-debug.so:_ZN2JS18SetRealmPrincipalsEPNS_5RealmEP12JSPrincipals
libmozjs128-debug.so:_ZN2JS18SetWarningReporterEP9JSContextPFvS1_P13JSErrorReportE
libmozjs128-debug.so:_ZN2JS18ShutdownAsyncTasksEP9JSContext
libmozjs128-debug.so:_ZN2JS18StartIncrementalGCEP9JSContextNS_9GCOptionsENS_8GCReasonERKN2js11SliceBudgetE
libmozjs128-debug.so:_ZN2JS19AddAssociatedMemoryEP8JSObjectmNS_9MemoryUseE
libmozjs128-debug.so:_ZN2JS19AddPromiseReactionsEP9JSContextNS_6HandleIP8JSObjectEES5_S5_
libmozjs128-debug.so:_ZN2JS19ArrayBufferCopyDataEP9JSContextNS_6HandleIP8JSObjectEEmS5_mm
libmozjs128-debug.so:_ZN2JS19CaptureCurrentStackEP9JSContextNS_13MutableHandleIP8JSObjectEEON7mozilla7VariantIJNS_9AllFramesENS_9MaxFramesENS_18FirstSubsumedFrameEEEE
libmozjs128-debug.so:_ZN2JS19ClearFrontendErrorsEPN2js15FrontendContextE
libmozjs128-debug.so:_ZN2JS19CollectRuntimeStatsEP9JSContextPNS_12RuntimeStatsEPNS_20ObjectPrivateVisitorEb
libmozjs128-debug.so:_ZN2JS19CompileFunctionUtf8EP9JSContextNS_6HandleINS_13StackGCVectorIP8JSObjectN2js15TempAllocPolicyEEEEERKNS_22ReadOnlyCompileOptionsEPKcjPKSE_SE_m
libmozjs128-debug.so:_ZN2JS19CreateModuleRequestEP9JSContextNS_6HandleIP8JSStringEE
libmozjs128-debug.so:_ZN2JS19CurrentGlobalOrNullEP9JSContext
libmozjs128-debug.so:_ZN2JS19FinishIncrementalGCEP9JSContextNS_8GCReasonE
libmozjs128-debug.so:_ZN2JS19GetPromiseIsHandledENS_6HandleIP8JSObjectEE
libmozjs128-debug.so:_ZN2JS19GetPromisePrototypeEP9JSContext
libmozjs128-debug.so:_ZN2JS19GetSavedFrameColumnEP9JSContextP12JSPrincipalsNS_6HandleIP8JSObjectEEPNS_27TaggedColumnNumberOneOriginENS_20SavedFrameSelfHostedE
libmozjs128-debug.so:_ZN2JS19GetSavedFrameParentEP9JSContextP12JSPrincipalsNS_6HandleIP8JSObjectEENS_13MutableHandleIS6_EENS_20SavedFrameSelfHostedE
libmozjs128-debug.so:_ZN2JS19GetSavedFrameSourceEP9JSContextP12JSPrincipalsNS_6HandleIP8JSObjectEENS_13MutableHandleIP8JSStringEENS_20SavedFrameSelfHostedE
libmozjs128-debug.so:_ZN2JS19IsArrayBufferObjectEP8JSObject
libmozjs128-debug.so:_ZN2JS19NewFunctionFromSpecEP9JSContextPK14JSFunctionSpec
libmozjs128-debug.so:_ZN2JS19NewFunctionFromSpecEP9JSContextPK14JSFunctionSpecNS_6HandleINS_11PropertyKeyEEE
libmozjs128-debug.so:_ZN2JS19OrdinaryHasInstanceEP9JSContextNS_6HandleIP8JSObjectEENS2_INS_5ValueEEEPb
libmozjs128-debug.so:_ZN2JS19OrdinaryToPrimitiveEP9JSContextNS_6HandleIP8JSObjectEE6JSTypeNS_13MutableHandleINS_5ValueEEE
libmozjs128-debug.so:_ZN2JS19OwningDecodeOptions14infallibleCopyERKNS_21ReadOnlyDecodeOptionsE
libmozjs128-debug.so:_ZN2JS19OwningDecodeOptions4copyEPN2js15FrontendContextERKNS_21ReadOnlyDecodeOptionsE
libmozjs128-debug.so:_ZN2JS19OwningDecodeOptions7releaseEv
libmozjs128-debug.so:_ZN2JS19OwningDecodeOptionsD1Ev
libmozjs128-debug.so:_ZN2JS19OwningDecodeOptionsD2Ev
libmozjs128-debug.so:_ZN2JS19PeakSizeOfTemporaryEPK9JSContext
libmozjs128-debug.so:_ZN2JS19RunHelperThreadTaskEPNS_16HelperThreadTaskE
libmozjs128-debug.so:_ZN2JS19SetNativeStackQuotaEPN2js15FrontendContextEm
libmozjs128-debug.so:_ZN2JS19SetProcessBuildIdOpEPFbPN7mozilla6VectorIcLm0EN2js17SystemAllocPolicyEEEE
libmozjs128-debug.so:_ZN2JS19UpdateDebugMetadataEP9JSContextNS_6HandleIP8JSScriptEERKNS_18InstantiateOptionsENS2_INS_5ValueEEENS2_IP8JSStringEES5_S5_
libmozjs128-debug.so:_ZN2JS20AutoAssertGCCallbackC1Ev
libmozjs128-debug.so:_ZN2JS20AutoAssertGCCallbackC2Ev
libmozjs128-debug.so:_ZN2JS20DisableIncrementalGCEP9JSContext
libmozjs128-debug.so:_ZN2JS20EnableNurseryBigIntsEP9JSContext
libmozjs128-debug.so:_ZN2JS20EnableNurseryStringsEP9JSContext
libmozjs128-debug.so:_ZN2JS20ExceptionStackOrNullENS_6HandleIP8JSObjectEE
libmozjs128-debug.so:_ZN2JS20FindSmallestEncodingERKNS_9UTF8CharsE
libmozjs128-debug.so:_ZN2JS20GetFrontendWarningAtEPN2js15FrontendContextEmRKNS_22ReadOnlyCompileOptionsE
libmozjs128-debug.so:_ZN2JS20GetModuleEnvironmentEP9JSContextNS_6HandleIP8JSObjectEE
libmozjs128-debug.so:_ZN2JS20GetModuleResolveHookEP9JSRuntime
libmozjs128-debug.so:_ZN2JS20GetObjectRealmOrNullEP8JSObject
libmozjs128-debug.so:_ZN2JS20GetRealmGlobalOrNullEPNS_5RealmE
libmozjs128-debug.so:_ZN2JS20GetSymbolDescriptionENS_6HandleIPNS_6SymbolEEE
libmozjs128-debug.so:_ZN2JS20GetWaitForAllPromiseEP9JSContextNS_6HandleINS_13StackGCVectorIP8JSObjectN2js15TempAllocPolicyEEEEE
libmozjs128-debug.so:_ZN2JS20InstantiationStorageD1Ev
libmozjs128-debug.so:_ZN2JS20InstantiationStorageD2Ev
libmozjs128-debug.so:_ZN2JS20NewSharedArrayBufferEP9JSContextm
libmozjs128-debug.so:_ZN2JS20NotifyGCRootsRemovedEP9JSContext
libmozjs128-debug.so:_ZN2JS20OwningCompileOptions4copyEP9JSContextRKNS_22ReadOnlyCompileOptionsE
libmozjs128-debug.so:_ZN2JS20OwningCompileOptions4copyEPN2js15FrontendContextERKNS_22ReadOnlyCompileOptionsE
libmozjs128-debug.so:_ZN2JS20OwningCompileOptions5stealEONS_19OwningDecodeOptionsE
libmozjs128-debug.so:_ZN2JS20OwningCompileOptions5stealEOS0_
libmozjs128-debug.so:_ZN2JS20OwningCompileOptions7releaseEv
libmozjs128-debug.so:_ZN2JS20OwningCompileOptionsC1EP9JSContext
libmozjs128-debug.so:_ZN2JS20OwningCompileOptionsC2EP9JSContext
libmozjs128-debug.so:_ZN2JS20OwningCompileOptionsD1Ev
libmozjs128-debug.so:_ZN2JS20OwningCompileOptionsD2Ev
libmozjs128-debug.so:_ZN2JS20ParseJSONWithHandlerEPKDsjPNS_16JSONParseHandlerE
libmozjs128-debug.so:_ZN2JS20ParseJSONWithHandlerEPKhjPNS_16JSONParseHandlerE
libmozjs128-debug.so:_ZN2JS20RealmCreationOptions14setLocaleCopyZEPKc
libmozjs128-debug.so:_ZN2JS20RealmCreationOptions21setCoopAndCoepEnabledEb
libmozjs128-debug.so:_ZN2JS20RealmCreationOptions22setExistingCompartmentEP8JSObject
libmozjs128-debug.so:_ZN2JS20RealmCreationOptions22setExistingCompartmentEPNS_11CompartmentE
libmozjs128-debug.so:_ZN2JS20RealmCreationOptions24setNewCompartmentAndZoneEv
libmozjs128-debug.so:_ZN2JS20RealmCreationOptions29setNewCompartmentInSystemZoneEv
libmozjs128-debug.so:_ZN2JS20RealmCreationOptions31setNewCompartmentInExistingZoneEP8JSObject
libmozjs128-debug.so:_ZN2JS20RealmCreationOptions32setSharedMemoryAndAtomicsEnabledEb
libmozjs128-debug.so:_ZN2JS20RunNurseryCollectionEP9JSRuntimeNS_8GCReasonEN7mozilla16BaseTimeDurationINS3_27TimeDurationValueCalculatorEEE
libmozjs128-debug.so:_ZN2JS20SetModuleResolveHookEP9JSRuntimePFP8JSObjectP9JSContextNS_6HandleINS_5ValueEEENS6_IS3_EEE
libmozjs128-debug.so:_ZN2JS20SetRealmNameCallbackEP9JSContextPFvS1_PNS_5RealmEPcmRKNS_15AutoRequireNoGCEE
libmozjs128-debug.so:_ZN2JS20SimpleStringToBigIntEP9JSContextN7mozilla4SpanIKcLm18446744073709551615EEEh
libmozjs128-debug.so:_ZN2JS20StopPCCountProfilingEP9JSContext
libmozjs128-debug.so:_ZN2JS20UndefinedHandleValueE
libmozjs128-debug.so:_ZN2JS20UnhideScriptedCallerEP9JSContext
libmozjs128-debug.so:_ZN2JS20UserCompartmentCountEP9JSContext
libmozjs128-debug.so:_ZN2JS21AtomsZoneIsCollectingEP9JSRuntime
libmozjs128-debug.so:_ZN2JS21AutoStableStringChars11initTwoByteEP9JSContextP8JSString
libmozjs128-debug.so:_ZN2JS21AutoStableStringChars15copyLatin1CharsEP9JSContextNS_6HandleIP14JSLinearStringEE
libmozjs128-debug.so:_ZN2JS21AutoStableStringChars15holdStableCharsEP14JSLinearString
libmozjs128-debug.so:_ZN2JS21AutoStableStringChars16copyTwoByteCharsEP9JSContextNS_6HandleIP14JSLinearStringEE
libmozjs128-debug.so:_ZN2JS21AutoStableStringChars25copyAndInflateLatin1CharsEP9JSContextNS_6HandleIP14JSLinearStringEE
libmozjs128-debug.so:_ZN2JS21AutoStableStringChars4initEP9JSContextP8JSString
libmozjs128-debug.so:_ZN2JS21DefaultGlobalClassOpsE
libmozjs128-debug.so:_ZN2JS21DisableNurseryBigIntsEP9JSContext
libmozjs128-debug.so:_ZN2JS21DisableNurseryStringsEP9JSContext
libmozjs128-debug.so:_ZN2JS21DisableWasmHugeMemoryEv
libmozjs128-debug.so:_ZN2JS21GetCurrentRealmOrNullEP9JSContext
libmozjs128-debug.so:_ZN2JS21GetModuleForNamespaceEP9JSContextNS_6HandleIP8JSObjectEE
libmozjs128-debug.so:_ZN2JS21GetModuleMetadataHookEP9JSRuntime
libmozjs128-debug.so:_ZN2JS21GetNonCCWObjectGlobalEP8JSObject
libmozjs128-debug.so:_ZN2JS21GetPCCountScriptCountEP9JSContext
libmozjs128-debug.so:_ZN2JS21GetPromiseConstructorEP9JSContext
libmozjs128-debug.so:_ZN2JS21GetSavedFrameSourceIdEP9JSContextP12JSPrincipalsNS_6HandleIP8JSObjectEEPjNS_20SavedFrameSelfHostedE
libmozjs128-debug.so:_ZN2JS21GetSelfHostedFunctionEP9JSContextPKcNS_6HandleINS_11PropertyKeyEEEj
libmozjs128-debug.so:_ZN2JS21GetTenuredGCThingZoneENS_9GCCellPtrE
libmozjs128-debug.so:_ZN2JS21GetWellKnownSymbolKeyEP9JSContextNS_10SymbolCodeE
libmozjs128-debug.so:_ZN2JS21InformalValueTypeNameERKNS_5ValueE
libmozjs128-debug.so:_ZN2JS21IsUnwrappedSavedFrameEP8JSObject
libmozjs128-debug.so:_ZN2JS21JobQueueMayNotBeEmptyEP9JSContext
libmozjs128-debug.so:_ZN2JS21PrepareForInstantiateEPN2js15FrontendContextERNS0_8frontend18CompilationStencilERNS_20InstantiationStorageE
libmozjs128-debug.so:_ZN2JS21SetModuleMetadataHookEP9JSRuntimePFbP9JSContextNS_6HandleINS_5ValueEEENS4_IP8JSObjectEEE
libmozjs128-debug.so:_ZN2JS21SetTimeResolutionUsecEjb
libmozjs128-debug.so:_ZN2JS21StartPCCountProfilingEP9JSContext
libmozjs128-debug.so:_ZN2JS21VoidHandlePropertyKeyE
libmozjs128-debug.so:_ZN2JS22AutoSaveExceptionState4dropEv
libmozjs128-debug.so:_ZN2JS22AutoSaveExceptionState7restoreEv
libmozjs128-debug.so:_ZN2JS22AutoSaveExceptionStateC1EP9JSContext
libmozjs128-debug.so:_ZN2JS22AutoSaveExceptionStateC2EP9JSContext
libmozjs128-debug.so:_ZN2JS22AutoSaveExceptionStateD1Ev
libmozjs128-debug.so:_ZN2JS22AutoSaveExceptionStateD2Ev
libmozjs128-debug.so:_ZN2JS22ClearModuleEnvironmentEP8JSObject
libmozjs128-debug.so:_ZN2JS22DescribeScriptedCallerEP9JSContextPNS_12AutoFilenameEPjPNS_21ColumnNumberOneOriginE
libmozjs128-debug.so:_ZN2JS22DestroyFrontendContextEPN2js15FrontendContextE
libmozjs128-debug.so:_ZN2JS22ExecuteRegExpNoStaticsEP9JSContextNS_6HandleIP8JSObjectEEPKDsmPmbNS_13MutableHandleINS_5ValueEEE
libmozjs128-debug.so:_ZN2JS22ExposeScriptToDebuggerEP9JSContextNS_6HandleIP8JSScriptEE
libmozjs128-debug.so:_ZN2JS22FromPropertyDescriptorEP9JSContextNS_6HandleIN7mozilla5MaybeINS_18PropertyDescriptorEEEEENS_13MutableHandleINS_5ValueEEE
libmozjs128-debug.so:_ZN2JS22GetFrontendErrorReportEPN2js15FrontendContextERKNS_22ReadOnlyCompileOptionsE
libmozjs128-debug.so:_ZN2JS22GetObjectAsArrayBufferEP8JSObjectPmPPh
libmozjs128-debug.so:_ZN2JS22GetRealmArrayPrototypeEP9JSContext
libmozjs128-debug.so:_ZN2JS22GetRealmErrorPrototypeEP9JSContext
libmozjs128-debug.so:_ZN2JS22HadFrontendOutOfMemoryEPN2js15FrontendContextE
libmozjs128-debug.so:_ZN2JS22HeapValueWriteBarriersEPNS_5ValueERKS0_S3_
libmozjs128-debug.so:_ZN2JS22IsIncrementalGCEnabledEP9JSContext
libmozjs128-debug.so:_ZN2JS22IsLargeArrayBufferViewEP8JSObject
libmozjs128-debug.so:_ZN2JS22NewExternalArrayBufferEP9JSContextmN7mozilla9UniquePtrIvNS_21BufferContentsDeleterEEE
libmozjs128-debug.so:_ZN2JS22ProfilingFrameIterator12iteratorDoneEv
libmozjs128-debug.so:_ZN2JS22ProfilingFrameIterator12settleFramesEv
libmozjs128-debug.so:_ZN2JS22ProfilingFrameIterator15iteratorDestroyEv
libmozjs128-debug.so:_ZN2JS22ProfilingFrameIterator17iteratorConstructERKNS0_13RegisterStateE
libmozjs128-debug.so:_ZN2JS22ProfilingFrameIterator17iteratorConstructEv
libmozjs128-debug.so:_ZN2JS22ProfilingFrameIterator6settleEv
libmozjs128-debug.so:_ZN2JS22ProfilingFrameIteratorC1EP9JSContextRKNS0_13RegisterStateERKN7mozilla5MaybeImEE
libmozjs128-debug.so:_ZN2JS22ProfilingFrameIteratorC2EP9JSContextRKNS0_13RegisterStateERKN7mozilla5MaybeImEE
libmozjs128-debug.so:_ZN2JS22ProfilingFrameIteratorD1Ev
libmozjs128-debug.so:_ZN2JS22ProfilingFrameIteratorD2Ev
libmozjs128-debug.so:_ZN2JS22ProfilingFrameIteratorppEv
libmozjs128-debug.so:_ZN2JS22ReadOnlyCompileOptions27copyPODNonTransitiveOptionsERKS0_
libmozjs128-debug.so:_ZN2JS22RemoveAssociatedMemoryEP8JSObjectmNS_9MemoryUseE
libmozjs128-debug.so:_ZN2JS22SetAnyPromiseIsHandledEP9JSContextNS_6HandleIP8JSObjectEE
libmozjs128-debug.so:_ZN2JS22SetDOMProxyInformationEPKvPFNS_21DOMProxyShadowsResultEP9JSContextNS_6HandleIP8JSObjectEENS5_INS_11PropertyKeyEEEES1_
libmozjs128-debug.so:_ZN2JS22SetOutOfMemoryCallbackEP9JSContextPFvS1_PvES2_
libmozjs128-debug.so:_ZN2JS22SystemCompartmentCountEP9JSContext
libmozjs128-debug.so:_ZN2JS23CallOriginalPromiseThenEP9JSContextNS_6HandleIP8JSObjectEES5_S5_
libmozjs128-debug.so:_ZN2JS23ExecuteInJSMEnvironmentEP9JSContextNS_6HandleIP8JSScriptEENS2_IP8JSObjectEE
libmozjs128-debug.so:_ZN2JS23ExecuteInJSMEnvironmentEP9JSContextNS_6HandleIP8JSScriptEENS2_IP8JSObjectEENS2_INS_13StackGCVectorIS7_N2js15TempAllocPolicyEEEEE
libmozjs128-debug.so:_ZN2JS23GetDebuggerObservesWasmEPNS_5RealmE
libmozjs128-debug.so:_ZN2JS23GetFrontendWarningCountEPN2js15FrontendContextE
libmozjs128-debug.so:_ZN2JS23GetPCCountScriptSummaryEP9JSContextm
libmozjs128-debug.so:_ZN2JS23GetRealmObjectPrototypeEP9JSContext
libmozjs128-debug.so:_ZN2JS23GetSavedFrameAsyncCauseEP9JSContextP12JSPrincipalsNS_6HandleIP8JSObjectEENS_13MutableHandleIP8JSStringEENS_20SavedFrameSelfHostedE
libmozjs128-debug.so:_ZN2JS23GetScriptedCallerGlobalEP9JSContext
libmozjs128-debug.so:_ZN2JS23HadFrontendOverRecursedEPN2js15FrontendContextE
libmozjs128-debug.so:_ZN2JS23HeapBigIntWriteBarriersEPPNS_6BigIntES1_S1_
libmozjs128-debug.so:_ZN2JS23HeapObjectWriteBarriersEPP8JSObjectS1_S1_
libmozjs128-debug.so:_ZN2JS23HeapScriptWriteBarriersEPP8JSScriptS1_S1_
libmozjs128-debug.so:_ZN2JS23HeapStringWriteBarriersEPP8JSStringS1_S1_
libmozjs128-debug.so:_ZN2JS23InitDispatchToEventLoopEP9JSContextPFbPvPNS_12DispatchableEES2_
libmozjs128-debug.so:_ZN2JS23IsArrayBufferViewSharedEP8JSObject
libmozjs128-debug.so:_ZN2JS23IsGenerationalGCEnabledEP9JSRuntime
libmozjs128-debug.so:_ZN2JS23PrepareForIncrementalGCEP9JSContext
libmozjs128-debug.so:_ZN2JS23RealmCreationOptionsRefEP9JSContext
libmozjs128-debug.so:_ZN2JS23RealmCreationOptionsRefEPNS_5RealmE
libmozjs128-debug.so:_ZN2JS23SetDestroyRealmCallbackEP9JSContextPFvPNS_9GCContextEPNS_5RealmEE
libmozjs128-debug.so:_ZN2JS23SetLogCtorDtorFunctionsEPFvPvPKcjES4_
libmozjs128-debug.so:_ZN2JS23ThreadStackQuotaForSizeEm
libmozjs128-debug.so:_ZN2JS23UnwrapSharedArrayBufferEP8JSObject
libmozjs128-debug.so:_ZN2JS24AbortIncrementalEncodingENS_6HandleIP8JSObjectEE
libmozjs128-debug.so:_ZN2JS24AbortIncrementalEncodingENS_6HandleIP8JSScriptEE
libmozjs128-debug.so:_ZN2JS24AutoEnterCycleCollectionC1EP9JSRuntime
libmozjs128-debug.so:_ZN2JS24AutoEnterCycleCollectionC2EP9JSRuntime
libmozjs128-debug.so:_ZN2JS24AutoEnterCycleCollectionD1Ev
libmozjs128-debug.so:_ZN2JS24AutoEnterCycleCollectionD2Ev
libmozjs128-debug.so:_ZN2JS24CheckCompileOptionsMatchERKNS_22ReadOnlyCompileOptionsEP8JSScript
libmozjs128-debug.so:_ZN2JS24GetArrayBufferByteLengthEP8JSObject
libmozjs128-debug.so:_ZN2JS24GetPCCountScriptContentsEP9JSContextm
libmozjs128-debug.so:_ZN2JS24GetPendingExceptionStackEP9JSContextPNS_14ExceptionStackE
libmozjs128-debug.so:_ZN2JS24GetPromiseAllocationSiteENS_6HandleIP8JSObjectEE
libmozjs128-debug.so:_ZN2JS24GetPromiseResolutionSiteENS_6HandleIP8JSObjectEE
libmozjs128-debug.so:_ZN2JS24GetRequestedModulesCountEP9JSContextNS_6HandleIP8JSObjectEE
libmozjs128-debug.so:_ZN2JS24GetSavedFrameAsyncParentEP9JSContextP12JSPrincipalsNS_6HandleIP8JSObjectEENS_13MutableHandleIS6_EENS_20SavedFrameSelfHostedE
libmozjs128-debug.so:_ZN2JS24GetScriptedCallerPrivateEP9JSContext
libmozjs128-debug.so:_ZN2JS24GetSharedArrayBufferDataEP8JSObjectPbRKNS_15AutoRequireNoGCE
libmozjs128-debug.so:_ZN2JS24IdentifyStandardInstanceEP8JSObject
libmozjs128-debug.so:_ZN2JS24InitRealmStandardClassesEP9JSContext
libmozjs128-debug.so:_ZN2JS24InstantiateGlobalStencilEP9JSContextRKNS_18InstantiateOptionsEPN2js8frontend18CompilationStencilEPNS_20InstantiationStorageE
libmozjs128-debug.so:_ZN2JS24InstantiateModuleStencilEP9JSContextRKNS_18InstantiateOptionsEPN2js8frontend18CompilationStencilEPNS_20InstantiationStorageE
libmozjs128-debug.so:_ZN2JS24IsMaybeWrappedSavedFrameEP8JSObject
libmozjs128-debug.so:_ZN2JS24PropertySpecNameEqualsIdEN14JSPropertySpec4NameENS_6HandleINS_11PropertyKeyEEE
libmozjs128-debug.so:_ZN2JS24SetPendingExceptionStackEP9JSContextRKNS_14ExceptionStackE
libmozjs128-debug.so:_ZN2JS24StartIncrementalEncodingEP9JSContextO6RefPtrIN2js8frontend18CompilationStencilEE
libmozjs128-debug.so:_ZN2JS24StealArrayBufferContentsEP9JSContextNS_6HandleIP8JSObjectEE
libmozjs128-debug.so:_ZN2JS24TransitiveCompileOptions24copyPODTransitiveOptionsERKS0_
libmozjs128-debug.so:_ZN2JS25AutoDisableGenerationalGCC1EP9JSContext
libmozjs128-debug.so:_ZN2JS25AutoDisableGenerationalGCC2EP9JSContext
libmozjs128-debug.so:_ZN2JS25AutoDisableGenerationalGCD1Ev
libmozjs128-debug.so:_ZN2JS25AutoDisableGenerationalGCD2Ev
libmozjs128-debug.so:_ZN2JS25CallOriginalPromiseRejectEP9JSContextNS_6HandleINS_5ValueEEE
libmozjs128-debug.so:_ZN2JS25ContainsSharedArrayBufferEP9JSContext
libmozjs128-debug.so:_ZN2JS25DeflateStringToUTF8BufferEP14JSLinearStringN7mozilla4SpanIcLm18446744073709551615EEE
libmozjs128-debug.so:_ZN2JS25DumpPromiseAllocationSiteEP9JSContextNS_6HandleIP8JSObjectEE
libmozjs128-debug.so:_ZN2JS25DumpPromiseResolutionSiteEP9JSContextNS_6HandleIP8JSObjectEE
libmozjs128-debug.so:_ZN2JS25FinishDynamicModuleImportEP9JSContextNS_6HandleIP8JSObjectEENS2_INS_5ValueEEES5_S5_
libmozjs128-debug.so:_ZN2JS25FinishIncrementalEncodingEP9JSContextNS_6HandleIP8JSObjectEERN7mozilla6VectorIhLm0ENS6_17MallocAllocPolicyEEE
libmozjs128-debug.so:_ZN2JS25FinishIncrementalEncodingEP9JSContextNS_6HandleIP8JSScriptEERN7mozilla6VectorIhLm0ENS6_17MallocAllocPolicyEEE
libmozjs128-debug.so:_ZN2JS25GetModuleRequestSpecifierEP9JSContextNS_6HandleIP8JSObjectEE
libmozjs128-debug.so:_ZN2JS25GetRealmFunctionPrototypeEP9JSContext
libmozjs128-debug.so:_ZN2JS25GetRealmIteratorPrototypeEP9JSContext
libmozjs128-debug.so:_ZN2JS25HeapValuePostWriteBarrierEPNS_5ValueERKS0_S3_
libmozjs128-debug.so:_ZN2JS25IdentifyStandardPrototypeEP8JSObject
libmozjs128-debug.so:_ZN2JS25InitConsumeStreamCallbackEP9JSContextPFbS1_NS_6HandleIP8JSObjectEENS_8MimeTypeEPNS_14StreamConsumerEEPFvS1_mE
libmozjs128-debug.so:_ZN2JS25IsIncrementalGCInProgressEP9JSContext
libmozjs128-debug.so:_ZN2JS25IsIncrementalGCInProgressEP9JSRuntime
libmozjs128-debug.so:_ZN2JS25IsMappedArrayBufferObjectEP8JSObject
libmozjs128-debug.so:_ZN2JS25IsSharedArrayBufferObjectEP8JSObject
libmozjs128-debug.so:_ZN2JS25MaybeRunNurseryCollectionEP9JSRuntimeNS_8GCReasonE
libmozjs128-debug.so:_ZN2JS25SetCTypesActivityCallbackEP9JSContextPFvS1_NS_18CTypesActivityTypeEE
libmozjs128-debug.so:_ZN2JS26AssertGCThingMustBeTenuredEP8JSObject
libmozjs128-debug.so:_ZN2JS26AutoCTypesActivityCallbackC1EP9JSContextNS_18CTypesActivityTypeES3_
libmozjs128-debug.so:_ZN2JS26AutoCTypesActivityCallbackC2EP9JSContextNS_18CTypesActivityTypeES3_
libmozjs128-debug.so:_ZN2JS26CallOriginalPromiseResolveEP9JSContextNS_6HandleINS_5ValueEEE
libmozjs128-debug.so:_ZN2JS26EnableRecordingAllocationsEP9JSContextPFvONS_20RecordAllocationInfoEEd
libmozjs128-debug.so:_ZN2JS26ForceLexicalInitializationEP9JSContextNS_6HandleIP8JSObjectEE
libmozjs128-debug.so:_ZN2JS26GetFirstArgumentAsTypeHintEP9JSContextRKNS_8CallArgsEP6JSType
libmozjs128-debug.so:_ZN2JS26GetModuleDynamicImportHookEP9JSRuntime
libmozjs128-debug.so:_ZN2JS26HeapBigIntPostWriteBarrierEPPNS_6BigIntES1_S1_
libmozjs128-debug.so:_ZN2JS26HeapObjectPostWriteBarrierEPP8JSObjectS1_S1_
libmozjs128-debug.so:_ZN2JS26HeapStringPostWriteBarrierEPP8JSStringS1_S1_
libmozjs128-debug.so:_ZN2JS26IncrementalPreWriteBarrierENS_9GCCellPtrE
libmozjs128-debug.so:_ZN2JS26IncrementalPreWriteBarrierEP8JSObject
libmozjs128-debug.so:_ZN2JS26IsIncrementalBarrierNeededEP9JSContext
libmozjs128-debug.so:_ZN2JS26IsResizableArrayBufferViewEP8JSObject
libmozjs128-debug.so:_ZN2JS26IterateRealmsInCompartmentEP9JSContextPNS_11CompartmentEPvPFvS1_S4_PNS_5RealmERKNS_15AutoRequireNoGCEE
libmozjs128-debug.so:_ZN2JS26NewArrayBufferWithContentsEP9JSContextmN7mozilla9UniquePtrIvNS_10FreePolicyEEE
libmozjs128-debug.so:_ZN2JS26NewArrayBufferWithContentsEP9JSContextmPvNS_25NewArrayBufferOutOfMemoryE
libmozjs128-debug.so:_ZN2JS26PinArrayBufferOrViewLengthEP8JSObjectb
libmozjs128-debug.so:_ZN2JS26SetModuleDynamicImportHookEP9JSRuntimePFbP9JSContextNS_6HandleINS_5ValueEEENS4_IP8JSObjectEES9_E
libmozjs128-debug.so:_ZN2JS26SetSettledPromiseIsHandledEP9JSContextNS_6HandleIP8JSObjectEE
libmozjs128-debug.so:_ZN2JS26StealPendingExceptionStackEP9JSContextPNS_14ExceptionStackE
libmozjs128-debug.so:_ZN2JS26UTF8CharsToNewLatin1CharsZEP9JSContextRKNS_9UTF8CharsEPmm
libmozjs128-debug.so:_ZN2JS27DisableRecordingAllocationsEP9JSContext
libmozjs128-debug.so:_ZN2JS27GetArrayBufferLengthAndDataEP8JSObjectPmPbPPh
libmozjs128-debug.so:_ZN2JS27GetDeflatedUTF8StringLengthEP14JSLinearString
libmozjs128-debug.so:_ZN2JS27GetOptimizedEncodingBuildIdEPN7mozilla6VectorIcLm0EN2js17SystemAllocPolicyEEE
libmozjs128-debug.so:_ZN2JS27GetRequestedModuleSourcePosEP9JSContextNS_6HandleIP8JSObjectEEjPjPNS_21ColumnNumberOneOriginE
libmozjs128-debug.so:_ZN2JS27GetRequestedModuleSpecifierEP9JSContextNS_6HandleIP8JSObjectEEj
libmozjs128-debug.so:_ZN2JS27GetScriptTranscodingBuildIdEPN7mozilla6VectorIcLm0EN2js17SystemAllocPolicyEEE
libmozjs128-debug.so:_ZN2JS27IdentifyStandardConstructorEP8JSObject
libmozjs128-debug.so:_ZN2JS27IsDetachedArrayBufferObjectEP8JSObject
libmozjs128-debug.so:_ZN2JS27IterateRealmsWithPrincipalsEP9JSContextP12JSPrincipalsPvPFvS1_S4_PNS_5RealmERKNS_15AutoRequireNoGCEE
libmozjs128-debug.so:_ZN2JS27MaybeFreezeCtorAndPrototypeEP9JSContextNS_6HandleIP8JSObjectEES5_
libmozjs128-debug.so:_ZN2JS27SetHelperThreadTaskCallbackEPFvPNS_16HelperThreadTaskEEmm
libmozjs128-debug.so:_ZN2JS27SetProfilingThreadCallbacksEPFP14ProfilingStackPKcPvEPFvvE
libmozjs128-debug.so:_ZN2JS27UTF8CharsToNewTwoByteCharsZEP9JSContextRKNS_15ConstUTF8CharsZEPmm
libmozjs128-debug.so:_ZN2JS27UTF8CharsToNewTwoByteCharsZEP9JSContextRKNS_9UTF8CharsEPmm
libmozjs128-debug.so:_ZN2JS28AutoSetAsyncStackForNewCallsC1EP9JSContextNS_6HandleIP8JSObjectEEPKcNS0_13AsyncCallKindE
libmozjs128-debug.so:_ZN2JS28AutoSetAsyncStackForNewCallsC2EP9JSContextNS_6HandleIP8JSObjectEEPKcNS0_13AsyncCallKindE
libmozjs128-debug.so:_ZN2JS28AutoSetAsyncStackForNewCallsD1Ev
libmozjs128-debug.so:_ZN2JS28AutoSetAsyncStackForNewCallsD2Ev
libmozjs128-debug.so:_ZN2JS28CompileGlobalScriptToStencilEP9JSContextRKNS_22ReadOnlyCompileOptionsERNS_10SourceTextIDsEE
libmozjs128-debug.so:_ZN2JS28CompileGlobalScriptToStencilEP9JSContextRKNS_22ReadOnlyCompileOptionsERNS_10SourceTextIN7mozilla8Utf8UnitEEE
libmozjs128-debug.so:_ZN2JS28CompileGlobalScriptToStencilEPN2js15FrontendContextERKNS_22ReadOnlyCompileOptionsERNS_10SourceTextIDsEE
libmozjs128-debug.so:_ZN2JS28CompileGlobalScriptToStencilEPN2js15FrontendContextERKNS_22ReadOnlyCompileOptionsERNS_10SourceTextIN7mozilla8Utf8UnitEEE
libmozjs128-debug.so:_ZN2JS28CompileModuleScriptToStencilEP9JSContextRKNS_22ReadOnlyCompileOptionsERNS_10SourceTextIDsEE
libmozjs128-debug.so:_ZN2JS28CompileModuleScriptToStencilEP9JSContextRKNS_22ReadOnlyCompileOptionsERNS_10SourceTextIN7mozilla8Utf8UnitEEE
libmozjs128-debug.so:_ZN2JS28CompileModuleScriptToStencilEPN2js15FrontendContextERKNS_22ReadOnlyCompileOptionsERNS_10SourceTextIDsEE
libmozjs128-debug.so:_ZN2JS28CompileModuleScriptToStencilEPN2js15FrontendContextERKNS_22ReadOnlyCompileOptionsERNS_10SourceTextIN7mozilla8Utf8UnitEEE
libmozjs128-debug.so:_ZN2JS28GetProfilingCategoryPairInfoENS_21ProfilingCategoryPairE
libmozjs128-debug.so:_ZN2JS28IsProfilingEnabledForContextEP9JSContext
libmozjs128-debug.so:_ZN2JS28SetDoCycleCollectionCallbackEP9JSContextPFvS1_E
libmozjs128-debug.so:_ZN2JS28ToCompletePropertyDescriptorEP9JSContextNS_6HandleINS_5ValueEEENS_13MutableHandleINS_18PropertyDescriptorEEE
libmozjs128-debug.so:_ZN2JS28UnmarkGrayGCThingRecursivelyENS_9GCCellPtrE
libmozjs128-debug.so:_ZN2JS28UnwrapArrayBufferMaybeSharedEP8JSObject
libmozjs128-debug.so:_ZN2JS29AddMozDisplayNamesConstructorEP9JSContextNS_6HandleIP8JSObjectEE
libmozjs128-debug.so:_ZN2JS29GetArrayBufferMaybeSharedDataEP8JSObjectPbRKNS_15AutoRequireNoGCE
libmozjs128-debug.so:_ZN2JS29GetRealmObjectPrototypeHandleEP9JSContext
libmozjs128-debug.so:_ZN2JS29HadFrontendAllocationOverflowEPN2js15FrontendContextE
libmozjs128-debug.so:_ZN2JS29IsLargeArrayBufferMaybeSharedEP8JSObject
libmozjs128-debug.so:_ZN2JS29PropertySpecNameToPermanentIdEP9JSContextN14JSPropertySpec4NameEPNS_11PropertyKeyE
libmozjs128-debug.so:_ZN2JS29SetFilenameValidationCallbackEPFbP9JSContextPKcE
libmozjs128-debug.so:_ZN2JS29SetSupportDifferentialTestingEb
libmozjs128-debug.so:_ZN2JS30AddGCNurseryCollectionCallbackEP9JSContextPFvS1_NS_17GCNurseryProgressENS_8GCReasonEPvES4_
libmozjs128-debug.so:_ZN2JS30ConvertSavedFrameToPlainObjectEP9JSContextNS_6HandleIP8JSObjectEENS_20SavedFrameSelfHostedE
libmozjs128-debug.so:_ZN2JS30GetRealmAsyncIteratorPrototypeEP9JSContext
libmozjs128-debug.so:_ZN2JS30GetSharedArrayBufferByteLengthEP8JSObject
libmozjs128-debug.so:_ZN2JS30HasDefinedArrayBufferDetachKeyEP9JSContextNS_6HandleIP8JSObjectEEPb
libmozjs128-debug.so:_ZN2JS30IncrementalGCHasForegroundWorkEP9JSContext
libmozjs128-debug.so:_ZN2JS30IsArrayBufferObjectMaybeSharedEP8JSObject
libmozjs128-debug.so:_ZN2JS30SetCreateGCSliceBudgetCallbackEP9JSContextPFN2js11SliceBudgetENS_8GCReasonElE
libmozjs128-debug.so:_ZN2JS30SetScriptPrivateReferenceHooksEP9JSRuntimePFvRKNS_5ValueEES6_
libmozjs128-debug.so:_ZN2JS30ThrowOnModuleEvaluationFailureEP9JSContextNS_6HandleIP8JSObjectEENS_20ModuleErrorBehaviourE
libmozjs128-debug.so:_ZN2JS31AddMozDateTimeFormatConstructorEP9JSContextNS_6HandleIP8JSObjectEE
libmozjs128-debug.so:_ZN2JS31CreateMappedArrayBufferContentsEimm
libmozjs128-debug.so:_ZN2JS31LossyUTF8CharsToNewLatin1CharsZEP9JSContextRKNS_9UTF8CharsEPmm
libmozjs128-debug.so:_ZN2JS32AutoDebuggerJobQueueInterruption4initEP9JSContext
libmozjs128-debug.so:_ZN2JS32AutoDebuggerJobQueueInterruption7runJobsEv
libmozjs128-debug.so:_ZN2JS32AutoDebuggerJobQueueInterruptionC1Ev
libmozjs128-debug.so:_ZN2JS32AutoDebuggerJobQueueInterruptionC2Ev
libmozjs128-debug.so:_ZN2JS32AutoDebuggerJobQueueInterruptionD1Ev
libmozjs128-debug.so:_ZN2JS32AutoDebuggerJobQueueInterruptionD2Ev
libmozjs128-debug.so:_ZN2JS32EnsureNonInlineArrayBufferOrViewEP9JSContextP8JSObject
libmozjs128-debug.so:_ZN2JS32GetSavedFrameFunctionDisplayNameEP9JSContextP12JSPrincipalsNS_6HandleIP8JSObjectEENS_13MutableHandleIP8JSStringEENS_20SavedFrameSelfHostedE
libmozjs128-debug.so:_ZN2JS32LossyUTF8CharsToNewTwoByteCharsZEP9JSContextRKNS_15ConstUTF8CharsZEPmm
libmozjs128-debug.so:_ZN2JS32LossyUTF8CharsToNewTwoByteCharsZEP9JSContextRKNS_9UTF8CharsEPmm
libmozjs128-debug.so:_ZN2JS32NewMappedArrayBufferWithContentsEP9JSContextmPv
libmozjs128-debug.so:_ZN2JS32ReleaseMappedArrayBufferContentsEPvm
libmozjs128-debug.so:_ZN2JS33GetJSMEnvironmentOfScriptedCallerEP9JSContext
libmozjs128-debug.so:_ZN2JS33GetSharedArrayBufferLengthAndDataEP8JSObjectPmPbPPh
libmozjs128-debug.so:_ZN2JS33IsProfileTimelineRecordingEnabledEv
libmozjs128-debug.so:_ZN2JS33IsResizableArrayBufferMaybeSharedEP8JSObject
libmozjs128-debug.so:_ZN2JS33RemoveGCNurseryCollectionCallbackEP9JSContextPFvS1_NS_17GCNurseryProgressENS_8GCReasonEPvES4_
libmozjs128-debug.so:_ZN2JS34AssertGCThingIsNotNurseryAllocableEPN2js2gc4CellE
libmozjs128-debug.so:_ZN2JS34AssertObjectBelongsToCurrentThreadEP8JSObject
libmozjs128-debug.so:_ZN2JS34DisableSpectreMitigationsAfterInitEv
libmozjs128-debug.so:_ZN2JS34IsAsyncStackCaptureEnabledForRealmEP9JSContext
libmozjs128-debug.so:_ZN2JS34SetProfileTimelineRecordingEnabledEb
libmozjs128-debug.so:_ZN2JS34SetPromiseRejectionTrackerCallbackEP9JSContextPFvS1_bNS_6HandleIP8JSObjectEENS_29PromiseRejectionHandlingStateEPvES7_
libmozjs128-debug.so:_ZN2JS35IdentifyStandardInstanceOrPrototypeEP8JSObject
libmozjs128-debug.so:_ZN2JS35NewArrayBufferWithUserOwnedContentsEP9JSContextmPv
libmozjs128-debug.so:_ZN2JS36ConvertFrontendErrorsToRuntimeErrorsEP9JSContextPN2js15FrontendContextERKNS_22ReadOnlyCompileOptionsE
libmozjs128-debug.so:_ZN2JS36SetShadowRealmGlobalCreationCallbackEP9JSContextPFP8JSObjectS1_RNS_12RealmOptionsEP12JSPrincipalsNS_6HandleIS3_EEE
libmozjs128-debug.so:_ZN2JS37GetPromiseUserInputEventHandlingStateENS_6HandleIP8JSObjectEE
libmozjs128-debug.so:_ZN2JS37SetHostEnsureCanAddPrivateElementHookEP9JSContextPFbS1_NS_6HandleINS_5ValueEEEE
libmozjs128-debug.so:_ZN2JS37SetPromiseUserInputEventHandlingStateENS_6HandleIP8JSObjectEENS_34PromiseUserInputEventHandlingStateE
libmozjs128-debug.so:_ZN2JS38GetArrayBufferMaybeSharedLengthAndDataEP8JSObjectPmPbPPh
libmozjs128-debug.so:_ZN2JS38SetRealmReduceTimerPrecisionCallerTypeEPNS_5RealmENS_18RTPCallerTypeTokenE
libmozjs128-debug.so:_ZN2JS38SetShadowRealmInitializeGlobalCallbackEP9JSContextPFbS1_NS_6HandleIP8JSObjectEEE
libmozjs128-debug.so:_ZN2JS3dbg10IsDebuggerER8JSObject
libmozjs128-debug.so:_ZN2JS3dbg16AutoEntryMonitorC1EP9JSContext
libmozjs128-debug.so:_ZN2JS3dbg16AutoEntryMonitorC2EP9JSContext
libmozjs128-debug.so:_ZN2JS3dbg16AutoEntryMonitorD1Ev
libmozjs128-debug.so:_ZN2JS3dbg16AutoEntryMonitorD2Ev
libmozjs128-debug.so:_ZN2JS3dbg18GetDebuggeeGlobalsEP9JSContextR8JSObjectNS_13MutableHandleINS_13StackGCVectorIPS3_N2js15TempAllocPolicyEEEEE
libmozjs128-debug.so:_ZN2JS3dbg23GetDebuggerMallocSizeOfEP9JSContext
libmozjs128-debug.so:_ZN2JS3dbg23SetDebuggerMallocSizeOfEP9JSContextPFmPKvE
libmozjs128-debug.so:_ZN2JS3dbg27FireOnGarbageCollectionHookEP9JSContextON7mozilla9UniquePtrINS0_22GarbageCollectionEventENS_12DeletePolicyIS5_EEEE
libmozjs128-debug.so:_ZN2JS3dbg35FireOnGarbageCollectionHookRequiredEP9JSContext
libmozjs128-debug.so:_ZN2JS3ubi12CountDeleterclEPNS0_9CountBaseE
libmozjs128-debug.so:_ZN2JS3ubi13CensusHandlerclERNS0_12BreadthFirstIS1_EENS0_4NodeERKNS0_4EdgeEPNS1_8NodeDataEb
libmozjs128-debug.so:_ZN2JS3ubi14ParseBreakdownEP9JSContextNS_6HandleINS_5ValueEEENS_13MutableHandleINS_8GCVectorIP14JSLinearStringLm0EN2js15TempAllocPolicyEEEEE
libmozjs128-debug.so:_ZN2JS3ubi18AtomOrTwoByteChars12copyToBufferEN7mozilla9RangedPtrIDsEEm
libmozjs128-debug.so:_ZN2JS3ubi18AtomOrTwoByteChars6lengthEv
libmozjs128-debug.so:_ZN2JS3ubi18CoarseTypeToStringENS0_10CoarseTypeE
libmozjs128-debug.so:_ZN2JS3ubi18ParseCensusOptionsEP9JSContextRNS0_6CensusENS_6HandleIP8JSObjectEERN7mozilla9UniquePtrINS0_9CountTypeENS_12DeletePolicyISB_EEEE
libmozjs128-debug.so:_ZN2JS3ubi28ConstructSavedFrameStackSlowEP9JSContextRNS0_10StackFrameENS_13MutableHandleIP8JSObjectEE
libmozjs128-debug.so:_ZN2JS3ubi8ConcreteI8JSObjectE16concreteTypeNameE
libmozjs128-debug.so:_ZN2JS3ubi8ConcreteI8JSObjectE9constructEPvPS2_
libmozjs128-debug.so:_ZN2JS3ubi8ConcreteI8JSStringE16concreteTypeNameE
libmozjs128-debug.so:_ZN2JS3ubi8ConcreteIN2js10BaseScriptEE16concreteTypeNameE
libmozjs128-debug.so:_ZN2JS3ubi8ConcreteINS0_8RootListEE16concreteTypeNameE
libmozjs128-debug.so:_ZN2JS3ubi8ConcreteINS_6BigIntEE16concreteTypeNameE
libmozjs128-debug.so:_ZN2JS3ubi8ConcreteINS_6SymbolEE16concreteTypeNameE
libmozjs128-debug.so:_ZN2JS3ubi8RootList4initENS_6HandleIP8JSObjectEE
libmozjs128-debug.so:_ZN2JS3ubi8RootList4initERN7mozilla7HashSetIPNS_11CompartmentENS2_13DefaultHasherIS5_vEEN2js17SystemAllocPolicyEEE
libmozjs128-debug.so:_ZN2JS3ubi8RootList4initEv
libmozjs128-debug.so:_ZN2JS3ubi8RootList7addRootENS0_4NodeEPKDs
libmozjs128-debug.so:_ZN2JS3ubi8RootListC1EP9JSContextb
libmozjs128-debug.so:_ZN2JS3ubi8RootListC2EP9JSContextb
libmozjs128-debug.so:_ZN2JS3ubi9dumpPathsEP9JSContextNS0_4NodeEj
libmozjs128-debug.so:_ZN2JS40SetProcessLargeAllocationFailureCallbackEPFvvE
libmozjs128-debug.so:_ZN2JS41GetReduceMicrosecondTimePrecisionCallbackEv
libmozjs128-debug.so:_ZN2JS41SetReduceMicrosecondTimePrecisionCallbackEPFddNS_18RTPCallerTypeTokenEP9JSContextE
libmozjs128-debug.so:_ZN2JS42SetHostCleanupFinalizationRegistryCallbackEP9JSContextPFvP10JSFunctionP8JSObjectPvES6_
libmozjs128-debug.so:_ZN2JS42SetJSContextProfilerSampleBufferRangeStartEP9JSContextm
libmozjs128-debug.so:_ZN2JS45AddPromiseReactionsIgnoringUnhandledRejectionEP9JSContextNS_6HandleIP8JSObjectEES5_S5_
libmozjs128-debug.so:_ZN2JS4CallEP9JSContextNS_6HandleINS_5ValueEEES4_RKNS_16HandleValueArrayENS_13MutableHandleIS3_EE
libmozjs128-debug.so:_ZN2JS4Zone11finishRootsEv
libmozjs128-debug.so:_ZN2JS4Zone13changeGCStateENS_6shadow4Zone7GCStateES3_
libmozjs128-debug.so:_ZN2JS4Zone13createJitZoneEP9JSContext
libmozjs128-debug.so:_ZN2JS4Zone13sweepWeakMapsEP8JSTracer
libmozjs128-debug.so:_ZN2JS4Zone13traceWeakMapsEP8JSTracer
libmozjs128-debug.so:_ZN2JS4Zone14discardJitCodeEPNS_9GCContextERKNS0_14DiscardOptionsE
libmozjs128-debug.so:_ZN2JS4Zone14purgeAtomCacheEv
libmozjs128-debug.so:_ZN2JS4Zone14sweepUniqueIdsEv
libmozjs128-debug.so:_ZN2JS4Zone15clearScriptLCovEPNS_5RealmE
libmozjs128-debug.so:_ZN2JS4Zone15hasMarkedRealmsEv
libmozjs128-debug.so:_ZN2JS4Zone16addToKeptObjectsENS_6HandleIP8JSObjectEE
libmozjs128-debug.so:_ZN2JS4Zone16clearKeptObjectsEv
libmozjs128-debug.so:_ZN2JS4Zone16traceKeptObjectsEP8JSTracer
libmozjs128-debug.so:_ZN2JS4Zone17clearScriptCountsEPNS_5RealmE
libmozjs128-debug.so:_ZN2JS4Zone17sweepAfterMinorGCEP8JSTracer
libmozjs128-debug.so:_ZN2JS4Zone17sweepCompartmentsEPNS_9GCContextEbb
libmozjs128-debug.so:_ZN2JS4Zone17traceWeakCCWEdgesEP8JSTracer
libmozjs128-debug.so:_ZN2JS4Zone18fixupAfterMovingGCEv
libmozjs128-debug.so:_ZN2JS4Zone19findSweepGroupEdgesEPS0_
libmozjs128-debug.so:_ZN2JS4Zone19forceDiscardJitCodeEPNS_9GCContextERKNS0_14DiscardOptionsE
libmozjs128-debug.so:_ZN2JS4Zone19traceRootsInMajorGCEP8JSTracer
libmozjs128-debug.so:_ZN2JS4Zone19traceWeakJitScriptsEP8JSTracer
libmozjs128-debug.so:_ZN2JS4Zone20enterWeakMarkingModeEPN2js8GCMarkerERNS1_11SliceBudgetE
libmozjs128-debug.so:_ZN2JS4Zone20prepareForCompactingEv
libmozjs128-debug.so:_ZN2JS4Zone20setNurseryAllocFlagsEbbb
libmozjs128-debug.so:_ZN2JS4Zone21traceScriptTableRootsEP8JSTracer
libmozjs128-debug.so:_ZN2JS4Zone22addSizeOfIncludingThisEPFmPKvEPmPNS_9CodeSizesES5_S5_S5_S5_S5_S5_S5_S5_S5_S5_S5_
libmozjs128-debug.so:_ZN2JS4Zone22dropStringWrappersOnGCEv
libmozjs128-debug.so:_ZN2JS4Zone23clearRootsForShutdownGCEv
libmozjs128-debug.so:_ZN2JS4Zone24notifyObservingDebuggersEv
libmozjs128-debug.so:_ZN2JS4Zone26setNeedsIncrementalBarrierEb
libmozjs128-debug.so:_ZN2JS4Zone27beforeClearDelegateInternalEP8JSObjectS2_
libmozjs128-debug.so:_ZN2JS4Zone27ensureFinalizationObserversEv
libmozjs128-debug.so:_ZN2JS4Zone28checkScriptMapsAfterMovingGCEv
libmozjs128-debug.so:_ZN2JS4Zone28fixupScriptMapsAfterMovingGCEP8JSTracer
libmozjs128-debug.so:_ZN2JS4Zone28resetAllocSitesAndInvalidateEbb
libmozjs128-debug.so:_ZN2JS4Zone28sweepObjectsWithWeakPointersEP8JSTracer
libmozjs128-debug.so:_ZN2JS4Zone30registerObjectWithWeakPointersEP8JSObject
libmozjs128-debug.so:_ZN2JS4Zone31checkUniqueIdTableAfterMovingGCEv
libmozjs128-debug.so:_ZN2JS4Zone32checkStringWrappersAfterMovingGCEv
libmozjs128-debug.so:_ZN2JS4Zone32sweepEphemeronTablesAfterMinorGCEv
libmozjs128-debug.so:_ZN2JS4Zone45checkAllCrossCompartmentWrappersAfterMovingGCEv
libmozjs128-debug.so:_ZN2JS4Zone45fixupAllCrossCompartmentWrappersAfterMovingGCEP8JSTracer
libmozjs128-debug.so:_ZN2JS4Zone4initEv
libmozjs128-debug.so:_ZN2JS4Zone7destroyEPNS_9GCContextE
libmozjs128-debug.so:_ZN2JS4Zone9NotOnListE
libmozjs128-debug.so:_ZN2JS4ZoneC1EP9JSRuntimeNS_6shadow4Zone4KindE
libmozjs128-debug.so:_ZN2JS4ZoneC2EP9JSRuntimeNS_6shadow4Zone4KindE
libmozjs128-debug.so:_ZN2JS4ZoneD1Ev
libmozjs128-debug.so:_ZN2JS4ZoneD2Ev
libmozjs128-debug.so:_ZN2JS5Realm10traceRootsEP8JSTracerN2js2gc9GCRuntime18TraceOrMarkRuntimeE
libmozjs128-debug.so:_ZN2JS5Realm11finishRootsEv
libmozjs128-debug.so:_ZN2JS5Realm13setIsDebuggeeEv
libmozjs128-debug.so:_ZN2JS5Realm15clearScriptLCovEv
libmozjs128-debug.so:_ZN2JS5Realm15traceGlobalDataEP8JSTracer
libmozjs128-debug.so:_ZN2JS5Realm15unsetIsDebuggeeEv
libmozjs128-debug.so:_ZN2JS5Realm17clearScriptCountsEv
libmozjs128-debug.so:_ZN2JS5Realm17sweepAfterMinorGCEP8JSTracer
libmozjs128-debug.so:_ZN2JS5Realm18fixupAfterMovingGCEP8JSTracer
libmozjs128-debug.so:_ZN2JS5Realm18purgeForOfPicChainEv
libmozjs128-debug.so:_ZN2JS5Realm19DebuggerVectorEntryC1EPN2js8DebuggerEP8JSObject
libmozjs128-debug.so:_ZN2JS5Realm19DebuggerVectorEntryC2EPN2js8DebuggerEP8JSObject
libmozjs128-debug.so:_ZN2JS5Realm19traceWeakGlobalEdgeEP8JSTracer
libmozjs128-debug.so:_ZN2JS5Realm20setNewObjectMetadataEP9JSContextNS_6HandleIP8JSObjectEE
libmozjs128-debug.so:_ZN2JS5Realm20traceWeakSavedStacksEP8JSTracer
libmozjs128-debug.so:_ZN2JS5Realm22addSizeOfIncludingThisEPFmPKvEPmS5_S5_S5_S5_S5_
libmozjs128-debug.so:_ZN2JS5Realm22isRecordingAllocationsEv
libmozjs128-debug.so:_ZN2JS5Realm23randomHashCodeScramblerEv
libmozjs128-debug.so:_ZN2JS5Realm26shouldCaptureStackForThrowEv
libmozjs128-debug.so:_ZN2JS5Realm26updateDebuggerObservesFlagEj
libmozjs128-debug.so:_ZN2JS5Realm28setAllocationMetadataBuilderEPKN2js25AllocationMetadataBuilderE
libmozjs128-debug.so:_ZN2JS5Realm30traceWeakDebugEnvironmentEdgesEP8JSTracer
libmozjs128-debug.so:_ZN2JS5Realm30updateDebuggerObservesCoverageEv
libmozjs128-debug.so:_ZN2JS5Realm31forgetAllocationMetadataBuilderEv
libmozjs128-debug.so:_ZN2JS5Realm32getOrCreateRandomNumberGeneratorEv
libmozjs128-debug.so:_ZN2JS5Realm4initEP9JSContextP12JSPrincipals
libmozjs128-debug.so:_ZN2JS5Realm5purgeEv
libmozjs128-debug.so:_ZN2JS5Realm7destroyEPNS_9GCContextE
libmozjs128-debug.so:_ZN2JS5Realm9lcovRealmEv
libmozjs128-debug.so:_ZN2JS5RealmC1EPNS_11CompartmentERKNS_12RealmOptionsE
libmozjs128-debug.so:_ZN2JS5RealmC2EPNS_11CompartmentERKNS_12RealmOptionsE
libmozjs128-debug.so:_ZN2JS5RealmD1Ev
libmozjs128-debug.so:_ZN2JS5RealmD2Ev
libmozjs128-debug.so:_ZN2JS6BigInt10absoluteOrEP9JSContextNS_6HandleIPS0_EES5_
libmozjs128-debug.so:_ZN2JS6BigInt10bitOrValueEP9JSContextNS_6HandleINS_5ValueEEES5_NS_13MutableHandleIS4_EE
libmozjs128-debug.so:_ZN2JS6BigInt11absoluteAddEP9JSContextNS_6HandleIPS0_EES5_b
libmozjs128-debug.so:_ZN2JS6BigInt11absoluteAndEP9JSContextNS_6HandleIPS0_EES5_
libmozjs128-debug.so:_ZN2JS6BigInt11absoluteSubEP9JSContextNS_6HandleIPS0_EES5_b
libmozjs128-debug.so:_ZN2JS6BigInt11absoluteXorEP9JSContextNS_6HandleIPS0_EES5_
libmozjs128-debug.so:_ZN2JS6BigInt11bitAndValueEP9JSContextNS_6HandleINS_5ValueEEES5_NS_13MutableHandleIS4_EE
libmozjs128-debug.so:_ZN2JS6BigInt11bitNotValueEP9JSContextNS_6HandleINS_5ValueEEENS_13MutableHandleIS4_EE
libmozjs128-debug.so:_ZN2JS6BigInt11bitXorValueEP9JSContextNS_6HandleINS_5ValueEEES5_NS_13MutableHandleIS4_EE
libmozjs128-debug.so:_ZN2JS6BigInt11negativeOneEP9JSContext
libmozjs128-debug.so:_ZN2JS6BigInt11numberValueEPKS0_
libmozjs128-debug.so:_ZN2JS6BigInt12looselyEqualEP9JSContextNS_6HandleIPS0_EENS3_INS_5ValueEEE
libmozjs128-debug.so:_ZN2JS6BigInt12rshByMaximumEP9JSContextb
libmozjs128-debug.so:_ZN2JS6BigInt13lshByAbsoluteEP9JSContextNS_6HandleIPS0_EES5_
libmozjs128-debug.so:_ZN2JS6BigInt13rshByAbsoluteEP9JSContextNS_6HandleIPS0_EES5_
libmozjs128-debug.so:_ZN2JS6BigInt14absoluteAddOneEP9JSContextNS_6HandleIPS0_EEb
libmozjs128-debug.so:_ZN2JS6BigInt14absoluteAndNotEP9JSContextNS_6HandleIPS0_EES5_
libmozjs128-debug.so:_ZN2JS6BigInt14absoluteSubOneEP9JSContextNS_6HandleIPS0_EEb
libmozjs128-debug.so:_ZN2JS6BigInt15createFromDigitEP9JSContextmb
libmozjs128-debug.so:_ZN2JS6BigInt15createFromInt64EP9JSContextl
libmozjs128-debug.so:_ZN2JS6BigInt15toStringGenericEP9JSContextNS_6HandleIPS0_EEj
libmozjs128-debug.so:_ZN2JS6BigInt16createFromDoubleEP9JSContextd
libmozjs128-debug.so:_ZN2JS6BigInt16createFromUint64EP9JSContextm
libmozjs128-debug.so:_ZN2JS6BigInt18absoluteInplaceAddEPKS0_j
libmozjs128-debug.so:_ZN2JS6BigInt18absoluteInplaceSubEPKS0_j
libmozjs128-debug.so:_ZN2JS6BigInt18inplaceMultiplyAddEmm
libmozjs128-debug.so:_ZN2JS6BigInt18multiplyAccumulateEPKS0_mPS0_j
libmozjs128-debug.so:_ZN2JS6BigInt19createUninitializedEP9JSContextmbN2js2gc4HeapE
libmozjs128-debug.so:_ZN2JS6BigInt19internalMultiplyAddEPKS0_mmjPS0_
libmozjs128-debug.so:_ZN2JS6BigInt22initializeDigitsToZeroEv
libmozjs128-debug.so:_ZN2JS6BigInt26createFromNonZeroRawUint64EP9JSContextmb
libmozjs128-debug.so:_ZN2JS6BigInt27absoluteDivWithDigitDivisorEP9JSContextNS_6HandleIPS0_EEmRKN7mozilla5MaybeINS_13MutableHandleIS4_EEEEPmb
libmozjs128-debug.so:_ZN2JS6BigInt27absoluteLeftShiftAlwaysCopyEP9JSContextNS_6HandleIPS0_EEjNS0_13LeftShiftModeE
libmozjs128-debug.so:_ZN2JS6BigInt28absoluteDivWithBigIntDivisorEP9JSContextNS_6HandleIPS0_EES5_RKN7mozilla5MaybeINS_13MutableHandleIS4_EEEESC_b
libmozjs128-debug.so:_ZN2JS6BigInt28inplaceRightShiftLowZeroBitsEj
libmozjs128-debug.so:_ZN2JS6BigInt28truncateAndSubFromPowerOfTwoEP9JSContextNS_6HandleIPS0_EEmb
libmozjs128-debug.so:_ZN2JS6BigInt30calculateMaximumDigitsRequiredEP9JSContexthmPm
libmozjs128-debug.so:_ZN2JS6BigInt31destructivelyTrimHighZeroDigitsEP9JSContextPS0_
libmozjs128-debug.so:_ZN2JS6BigInt34calculateMaximumCharactersRequiredENS_6HandleIPS0_EEj
libmozjs128-debug.so:_ZN2JS6BigInt3addEP9JSContextNS_6HandleIPS0_EES5_
libmozjs128-debug.so:_ZN2JS6BigInt3decEP9JSContextNS_6HandleIPS0_EE
libmozjs128-debug.so:_ZN2JS6BigInt3divEP9JSContextNS_6HandleIPS0_EES5_
libmozjs128-debug.so:_ZN2JS6BigInt3incEP9JSContextNS_6HandleIPS0_EE
libmozjs128-debug.so:_ZN2JS6BigInt3lshEP9JSContextNS_6HandleIPS0_EES5_
libmozjs128-debug.so:_ZN2JS6BigInt3modEP9JSContextNS_6HandleIPS0_EES5_
libmozjs128-debug.so:_ZN2JS6BigInt3mulEP9JSContextNS_6HandleIPS0_EES5_
libmozjs128-debug.so:_ZN2JS6BigInt3negEP9JSContextNS_6HandleIPS0_EE
libmozjs128-debug.so:_ZN2JS6BigInt3oneEP9JSContext
libmozjs128-debug.so:_ZN2JS6BigInt3powEP9JSContextNS_6HandleIPS0_EES5_
libmozjs128-debug.so:_ZN2JS6BigInt3rshEP9JSContextNS_6HandleIPS0_EES5_
libmozjs128-debug.so:_ZN2JS6BigInt3subEP9JSContextNS_6HandleIPS0_EES5_
libmozjs128-debug.so:_ZN2JS6BigInt4copyEP9JSContextNS_6HandleIPS0_EEN2js2gc4HeapE
libmozjs128-debug.so:_ZN2JS6BigInt4zeroEP9JSContextN2js2gc4HeapE
libmozjs128-debug.so:_ZN2JS6BigInt5bitOrEP9JSContextNS_6HandleIPS0_EES5_
libmozjs128-debug.so:_ZN2JS6BigInt5equalEP9JSContextNS_6HandleIPS0_EENS3_IP8JSStringEE
libmozjs128-debug.so:_ZN2JS6BigInt5equalEPKS0_S2_
libmozjs128-debug.so:_ZN2JS6BigInt5equalEPKS0_d
libmozjs128-debug.so:_ZN2JS6BigInt6asIntNEP9JSContextNS_6HandleIPS0_EEm
libmozjs128-debug.so:_ZN2JS6BigInt6bitAndEP9JSContextNS_6HandleIPS0_EES5_
libmozjs128-debug.so:_ZN2JS6BigInt6bitNotEP9JSContextNS_6HandleIPS0_EE
libmozjs128-debug.so:_ZN2JS6BigInt6bitXorEP9JSContextNS_6HandleIPS0_EES5_
libmozjs128-debug.so:_ZN2JS6BigInt6divmodEP9JSContextNS_6HandleIPS0_EES5_NS_13MutableHandleIS4_EES7_
libmozjs128-debug.so:_ZN2JS6BigInt7asUintNEP9JSContextNS_6HandleIPS0_EEm
libmozjs128-debug.so:_ZN2JS6BigInt7compareEPKS0_S2_
libmozjs128-debug.so:_ZN2JS6BigInt7compareEPKS0_d
libmozjs128-debug.so:_ZN2JS6BigInt7isInt64EPKS0_Pl
libmozjs128-debug.so:_ZN2JS6BigInt7toInt64EPKS0_
libmozjs128-debug.so:_ZN2JS6BigInt8addValueEP9JSContextNS_6HandleINS_5ValueEEES5_NS_13MutableHandleIS4_EE
libmozjs128-debug.so:_ZN2JS6BigInt8decValueEP9JSContextNS_6HandleINS_5ValueEEENS_13MutableHandleIS4_EE
libmozjs128-debug.so:_ZN2JS6BigInt8digitDivEmmmPm
libmozjs128-debug.so:_ZN2JS6BigInt8divValueEP9JSContextNS_6HandleINS_5ValueEEES5_NS_13MutableHandleIS4_EE
libmozjs128-debug.so:_ZN2JS6BigInt8finalizeEPNS_9GCContextE
libmozjs128-debug.so:_ZN2JS6BigInt8incValueEP9JSContextNS_6HandleINS_5ValueEEENS_13MutableHandleIS4_EE
libmozjs128-debug.so:_ZN2JS6BigInt8isNumberEPKS0_Pd
libmozjs128-debug.so:_ZN2JS6BigInt8isUint64EPKS0_Pm
libmozjs128-debug.so:_ZN2JS6BigInt8lessThanEP9JSContextNS_6HandleINS_5ValueEEES5_RN7mozilla5MaybeIbEE
libmozjs128-debug.so:_ZN2JS6BigInt8lessThanEP9JSContextNS_6HandleIP8JSStringEENS3_IPS0_EERN7mozilla5MaybeIbEE
libmozjs128-debug.so:_ZN2JS6BigInt8lessThanEP9JSContextNS_6HandleIPS0_EENS3_IP8JSStringEERN7mozilla5MaybeIbEE
libmozjs128-debug.so:_ZN2JS6BigInt8lessThanEPKS0_S2_
libmozjs128-debug.so:_ZN2JS6BigInt8lessThanEPKS0_d
libmozjs128-debug.so:_ZN2JS6BigInt8lessThanEdPKS0_
libmozjs128-debug.so:_ZN2JS6BigInt8lshValueEP9JSContextNS_6HandleINS_5ValueEEES5_NS_13MutableHandleIS4_EE
libmozjs128-debug.so:_ZN2JS6BigInt8modValueEP9JSContextNS_6HandleINS_5ValueEEES5_NS_13MutableHandleIS4_EE
libmozjs128-debug.so:_ZN2JS6BigInt8mulValueEP9JSContextNS_6HandleINS_5ValueEEES5_NS_13MutableHandleIS4_EE
libmozjs128-debug.so:_ZN2JS6BigInt8negValueEP9JSContextNS_6HandleINS_5ValueEEENS_13MutableHandleIS4_EE
libmozjs128-debug.so:_ZN2JS6BigInt8powValueEP9JSContextNS_6HandleINS_5ValueEEES5_NS_13MutableHandleIS4_EE
libmozjs128-debug.so:_ZN2JS6BigInt8rshValueEP9JSContextNS_6HandleINS_5ValueEEES5_NS_13MutableHandleIS4_EE
libmozjs128-debug.so:_ZN2JS6BigInt8subValueEP9JSContextNS_6HandleINS_5ValueEEES5_NS_13MutableHandleIS4_EE
libmozjs128-debug.so:_ZN2JS6BigInt8toUint64EPKS0_
libmozjs128-debug.so:_ZN2JS6MapGetEP9JSContextNS_6HandleIP8JSObjectEENS2_INS_5ValueEEENS_13MutableHandleIS6_EE
libmozjs128-debug.so:_ZN2JS6MapHasEP9JSContextNS_6HandleIP8JSObjectEENS2_INS_5ValueEEEPb
libmozjs128-debug.so:_ZN2JS6MapSetEP9JSContextNS_6HandleIP8JSObjectEENS2_INS_5ValueEEES7_
libmozjs128-debug.so:_ZN2JS6SetAddEP9JSContextNS_6HandleIP8JSObjectEENS2_INS_5ValueEEE
libmozjs128-debug.so:_ZN2JS6SetHasEP9JSContextNS_6HandleIP8JSObjectEENS2_INS_5ValueEEEPb
libmozjs128-debug.so:_ZN2JS6Symbol11newInternalEP9JSContextNS_10SymbolCodeEjNS_6HandleIP6JSAtomEE
libmozjs128-debug.so:_ZN2JS6Symbol12newWellKnownEP9JSContextNS_10SymbolCodeENS_6HandleIPN2js12PropertyNameEEE
libmozjs128-debug.so:_ZN2JS6Symbol4for_EP9JSContextNS_6HandleIP8JSStringEE
libmozjs128-debug.so:_ZN2JS6Symbol4new_EP9JSContextNS_10SymbolCodeENS_6HandleIP8JSStringEE
libmozjs128-debug.so:_ZN2JS6ToJSONEP9JSContextNS_6HandleINS_5ValueEEENS2_IP8JSObjectEES4_PFbPKDsjPvESA_
libmozjs128-debug.so:_ZN2JS6detail11ComputeThisEP9JSContextPNS_5ValueENS_13MutableHandleIP8JSObjectEE
libmozjs128-debug.so:_ZN2JS6detail13BigIntIsInt64EPKNS_6BigIntEPl
libmozjs128-debug.so:_ZN2JS6detail14BigIntFromBoolEP9JSContextb
libmozjs128-debug.so:_ZN2JS6detail14BigIntIsUint64EPKNS_6BigIntEPm
libmozjs128-debug.so:_ZN2JS6detail15BigIntFromInt64EP9JSContextl
libmozjs128-debug.so:_ZN2JS6detail16BigIntFromUint64EP9JSContextm
libmozjs128-debug.so:_ZN2JS6detail16libraryInitStateE
libmozjs128-debug.so:_ZN2JS6detail19CallMethodIfWrappedEP9JSContextPFbNS_6HandleINS_5ValueEEEEPFbS2_RKNS_8CallArgsEESA_
libmozjs128-debug.so:_ZN2JS6detail19ReportSourceTooLongEP9JSContext
libmozjs128-debug.so:_ZN2JS6detail19ReportSourceTooLongEPN2js15FrontendContextE
libmozjs128-debug.so:_ZN2JS6detail22AssertArgumentsAreSaneEP9JSContextNS_6HandleINS_5ValueEEE
libmozjs128-debug.so:_ZN2JS6detail24StringToLinearStringSlowEP9JSContextP8JSString
libmozjs128-debug.so:_ZN2JS6detail25CheckIsValidConstructibleERKNS_5ValueE
libmozjs128-debug.so:_ZN2JS6detail25InitWithFailureDiagnosticEbNS0_12FrontendOnlyE
libmozjs128-debug.so:_ZN2JS6detail26SetReservedSlotWithBarrierEP8JSObjectmRKNS_5ValueE
libmozjs128-debug.so:_ZN2JS6shadow17RegisterWeakCacheEP9JSRuntimePNS_6detail13WeakCacheBaseE
libmozjs128-debug.so:_ZN2JS6shadow17RegisterWeakCacheEPNS_4ZoneEPNS_6detail13WeakCacheBaseE
libmozjs128-debug.so:_ZN2JS7CompileEP9JSContextRKNS_22ReadOnlyCompileOptionsERNS_10SourceTextIDsEE
libmozjs128-debug.so:_ZN2JS7CompileEP9JSContextRKNS_22ReadOnlyCompileOptionsERNS_10SourceTextIN7mozilla8Utf8UnitEEE
libmozjs128-debug.so:_ZN2JS7IsArrayEP9JSContextNS_6HandleIP8JSObjectEEPNS_13IsArrayAnswerE
libmozjs128-debug.so:_ZN2JS7IsArrayEP9JSContextNS_6HandleIP8JSObjectEEPb
libmozjs128-debug.so:_ZN2JS7LogCtorEPvPKcj
libmozjs128-debug.so:_ZN2JS7LogDtorEPvPKcj
libmozjs128-debug.so:_ZN2JS7MapKeysEP9JSContextNS_6HandleIP8JSObjectEENS_13MutableHandleINS_5ValueEEE
libmozjs128-debug.so:_ZN2JS7MapSizeEP9JSContextNS_6HandleIP8JSObjectEE
libmozjs128-debug.so:_ZN2JS7SetKeysEP9JSContextNS_6HandleIP8JSObjectEENS_13MutableHandleINS_5ValueEEE
libmozjs128-debug.so:_ZN2JS7SetSizeEP9JSContextNS_6HandleIP8JSObjectEE
libmozjs128-debug.so:_ZN2JS8CallArgs20reportMoreArgsNeededEP9JSContextPKcjj
libmozjs128-debug.so:_ZN2JS8DataView17ResizableClassPtrE
libmozjs128-debug.so:_ZN2JS8DataView19FixedLengthClassPtrE
libmozjs128-debug.so:_ZN2JS8EvaluateEP9JSContextNS_6HandleINS_13StackGCVectorIP8JSObjectN2js15TempAllocPolicyEEEEERKNS_22ReadOnlyCompileOptionsERNS_10SourceTextIDsEENS_13MutableHandleINS_5ValueEEE
libmozjs128-debug.so:_ZN2JS8EvaluateEP9JSContextRKNS_22ReadOnlyCompileOptionsERNS_10SourceTextIDsEENS_13MutableHandleINS_5ValueEEE
libmozjs128-debug.so:_ZN2JS8EvaluateEP9JSContextRKNS_22ReadOnlyCompileOptionsERNS_10SourceTextIN7mozilla8Utf8UnitEEENS_13MutableHandleINS_5ValueEEE
libmozjs128-debug.so:_ZN2JS8MakeDateEdjj
libmozjs128-debug.so:_ZN2JS8MakeDateEdjjd
libmozjs128-debug.so:_ZN2JS8MapClearEP9JSContextNS_6HandleIP8JSObjectEE
libmozjs128-debug.so:_ZN2JS8SetClearEP9JSContextNS_6HandleIP8JSObjectEE
libmozjs128-debug.so:_ZN2JS8ToBigIntEP9JSContextNS_6HandleINS_5ValueEEE
libmozjs128-debug.so:_ZN2JS8WarnUTF8EP9JSContextPKcz
libmozjs128-debug.so:_ZN2JS9ConstructEP9JSContextNS_6HandleINS_5ValueEEENS2_IP8JSObjectEERKNS_16HandleValueArrayENS_13MutableHandleIS6_EE
libmozjs128-debug.so:_ZN2JS9ConstructEP9JSContextNS_6HandleINS_5ValueEEERKNS_16HandleValueArrayENS_13MutableHandleIP8JSObjectEE
libmozjs128-debug.so:_ZN2JS9GCCellPtrC1ERKNS_5ValueE
libmozjs128-debug.so:_ZN2JS9GCCellPtrC2ERKNS_5ValueE
libmozjs128-debug.so:_ZN2JS9GCContext13poisonJitCodeEv
libmozjs128-debug.so:_ZN2JS9GCContextC1EP9JSRuntime
libmozjs128-debug.so:_ZN2JS9GCContextC2EP9JSRuntime
libmozjs128-debug.so:_ZN2JS9GCContextD1Ev
libmozjs128-debug.so:_ZN2JS9GCContextD2Ev
libmozjs128-debug.so:_ZN2JS9MapDeleteEP9JSContextNS_6HandleIP8JSObjectEENS2_INS_5ValueEEEPb
libmozjs128-debug.so:_ZN2JS9MapValuesEP9JSContextNS_6HandleIP8JSObjectEENS_13MutableHandleINS_5ValueEEE
libmozjs128-debug.so:_ZN2JS9NewSymbolEP9JSContextNS_6HandleIP8JSStringEE
libmozjs128-debug.so:_ZN2JS9SameValueEP9JSContextNS_6HandleINS_5ValueEEES4_Pb
libmozjs128-debug.so:_ZN2JS9SetDeleteEP9JSContextNS_6HandleIP8JSObjectEENS2_INS_5ValueEEEPb
libmozjs128-debug.so:_ZN2JS9SetGCZealEP9JSContexthj
libmozjs128-debug.so:_ZN2JS9SetValuesEP9JSContextNS_6HandleIP8JSObjectEENS_13MutableHandleINS_5ValueEEE
libmozjs128-debug.so:_ZN2JS9TraceRootEP8JSTracerPN2js4wasm6AnyRefEPKc
libmozjs128-debug.so:_ZN2JS9TraceRootEP8JSTracerPNS_11PropertyKeyEPKc
libmozjs128-debug.so:_ZN2JS9TraceRootEP8JSTracerPNS_5ValueEPKc
libmozjs128-debug.so:_ZN2JS9TraceRootEP8JSTracerPP10JSFunctionPKc
libmozjs128-debug.so:_ZN2JS9TraceRootEP8JSTracerPP14JSLinearStringPKc
libmozjs128-debug.so:_ZN2JS9TraceRootEP8JSTracerPP6JSAtomPKc
libmozjs128-debug.so:_ZN2JS9TraceRootEP8JSTracerPP8JSObjectPKc
libmozjs128-debug.so:_ZN2JS9TraceRootEP8JSTracerPP8JSScriptPKc
libmozjs128-debug.so:_ZN2JS9TraceRootEP8JSTracerPP8JSStringPKc
libmozjs128-debug.so:_ZN2JS9TraceRootEP8JSTracerPPN2js10SavedFrameEPKc
libmozjs128-debug.so:_ZN2JS9TraceRootEP8JSTracerPPN2js23AbstractGeneratorObjectEPKc
libmozjs128-debug.so:_ZN2JS9TraceRootEP8JSTracerPPNS_6BigIntEPKc
libmozjs128-debug.so:_ZN2JS9TraceRootEP8JSTracerPPNS_6SymbolEPKc
libmozjs128-debug.so:_ZN2JS9WarnASCIIEP9JSContextPKcz
libmozjs128-debug.so:_ZN2js10DumpBigIntEPN2JS6BigIntE
libmozjs128-debug.so:_ZN2js10DumpBigIntEPN2JS6BigIntEP8_IO_FILE
libmozjs128-debug.so:_ZN2js10DumpBigIntEPN2JS6BigIntERNS_14GenericPrinterE
libmozjs128-debug.so:_ZN2js10DumpObjectEP8JSObject
libmozjs128-debug.so:_ZN2js10DumpObjectEP8JSObjectP8_IO_FILE
libmozjs128-debug.so:_ZN2js10DumpObjectEP8JSObjectRNS_14GenericPrinterE
libmozjs128-debug.so:_ZN2js10DumpScriptEP9JSContextP8JSScript
libmozjs128-debug.so:_ZN2js10DumpScriptEP9JSContextP8JSScriptP8_IO_FILE
libmozjs128-debug.so:_ZN2js10DumpStringEP8JSString
libmozjs128-debug.so:_ZN2js10DumpStringEP8JSStringP8_IO_FILE
libmozjs128-debug.so:_ZN2js10DumpStringEP8JSStringRNS_14GenericPrinterE
libmozjs128-debug.so:_ZN2js10EnqueueJobEP9JSContextN2JS6HandleIP8JSObjectEE
libmozjs128-debug.so:_ZN2js10JSONEscape10isSafeCharEDs
libmozjs128-debug.so:_ZN2js10JSONEscape11convertIntoERNS_14GenericPrinterEDs
libmozjs128-debug.so:_ZN2js10ProxyClassE
libmozjs128-debug.so:_ZN2js10TimeBudget18setDeadlineFromNowEv
libmozjs128-debug.so:_ZN2js10ToInt8SlowEP9JSContextN2JS6HandleINS2_5ValueEEEPa
libmozjs128-debug.so:_ZN2js11DateIsValidEP9JSContextN2JS6HandleIP8JSObjectEEPb
libmozjs128-debug.so:_ZN2js11GetSCOffsetEP23JSStructuredCloneWriter
libmozjs128-debug.so:_ZN2js11MallocArenaE
libmozjs128-debug.so:_ZN2js11QuoteStringEP9JSContextP8JSStringc
libmozjs128-debug.so:_ZN2js11QuoteStringEPNS_8SprinterEP8JSStringc
libmozjs128-debug.so:_ZN2js11SliceBudget15checkOverBudgetEv
libmozjs128-debug.so:_ZN2js11SliceBudgetC1ENS_10TimeBudgetEPN7mozilla6AtomicIbLNS2_14MemoryOrderingE0EvEE
libmozjs128-debug.so:_ZN2js11SliceBudgetC1ENS_10WorkBudgetE
libmozjs128-debug.so:_ZN2js11SliceBudgetC2ENS_10TimeBudgetEPN7mozilla6AtomicIbLNS2_14MemoryOrderingE0EvEE
libmozjs128-debug.so:_ZN2js11SliceBudgetC2ENS_10WorkBudgetE
libmozjs128-debug.so:_ZN2js11ToInt16SlowEP9JSContextN2JS6HandleINS2_5ValueEEEPs
libmozjs128-debug.so:_ZN2js11ToInt32SlowEP9JSContextN2JS6HandleINS2_5ValueEEEPi
libmozjs128-debug.so:_ZN2js11ToInt64SlowEP9JSContextN2JS6HandleINS2_5ValueEEEPl
libmozjs128-debug.so:_ZN2js11ToUint8SlowEP9JSContextN2JS6HandleINS2_5ValueEEEPh
libmozjs128-debug.so:_ZN2js12AppendUniqueEP9JSContextN2JS13MutableHandleINS2_13StackGCVectorINS2_11PropertyKeyENS_15TempAllocPolicyEEEEENS2_6HandleIS7_EE
libmozjs128-debug.so:_ZN2js12ElementAdder10appendHoleEv
libmozjs128-debug.so:_ZN2js12ElementAdder6appendEP9JSContextN2JS6HandleINS3_5ValueEEE
libmozjs128-debug.so:_ZN2js12GetRealmZoneEPN2JS5RealmE
libmozjs128-debug.so:_ZN2js12IsSavedFrameEP8JSObject
libmozjs128-debug.so:_ZN2js12IsSystemZoneEPN2JS4ZoneE
libmozjs128-debug.so:_ZN2js12StringEscape10isSafeCharEDs
libmozjs128-debug.so:_ZN2js12StringEscape11convertIntoERNS_14GenericPrinterEDs
libmozjs128-debug.so:_ZN2js12ToNumberSlowEP9JSContextN2JS6HandleINS2_5ValueEEEPd
libmozjs128-debug.so:_ZN2js12ToObjectSlowEP9JSContextN2JS6HandleINS2_5ValueEEEb
libmozjs128-debug.so:_ZN2js12ToStringSlowEP9JSContextN2JS6HandleINS2_5ValueEEE
libmozjs128-debug.so:_ZN2js12ToUint16SlowEP9JSContextN2JS6HandleINS2_5ValueEEEPt
libmozjs128-debug.so:_ZN2js12ToUint32SlowEP9JSContextN2JS6HandleINS2_5ValueEEEPj
libmozjs128-debug.so:_ZN2js12ToUint64SlowEP9JSContextN2JS6HandleINS2_5ValueEEEPm
libmozjs128-debug.so:_ZN2js13DumpBacktraceEP9JSContext
libmozjs128-debug.so:_ZN2js13DumpBacktraceEP9JSContextP8_IO_FILE
libmozjs128-debug.so:_ZN2js13DumpBacktraceEP9JSContextRNS_14GenericPrinterE
libmozjs128-debug.so:_ZN2js13IsSystemRealmEPN2JS5RealmE
libmozjs128-debug.so:_ZN2js13IsWindowProxyEP8JSObject
libmozjs128-debug.so:_ZN2js13NewDateObjectEP9JSContextiiiiii
libmozjs128-debug.so:_ZN2js13ProxyClassOpsE
libmozjs128-debug.so:_ZN2js13SetSourceHookEP9JSContextN7mozilla9UniquePtrINS_10SourceHookENS2_13DefaultDeleteIS4_EEEE
libmozjs128-debug.so:_ZN2js13StringPrinter11DefaultSizeE
libmozjs128-debug.so:_ZN2js13StringPrinter12releaseCharsEv
libmozjs128-debug.so:_ZN2js13StringPrinter18forwardOutOfMemoryEv
libmozjs128-debug.so:_ZN2js13StringPrinter3putEPKcm
libmozjs128-debug.so:_ZN2js13StringPrinter4initEv
libmozjs128-debug.so:_ZN2js13StringPrinter7reserveEm
libmozjs128-debug.so:_ZN2js13StringPrinter8realloc_Em
libmozjs128-debug.so:_ZN2js13StringPrinter9putStringEP9JSContextP8JSString
libmozjs128-debug.so:_ZN2js13StringPrinter9releaseJSEP9JSContext
libmozjs128-debug.so:_ZN2js13StringPrinterC1EmP9JSContextb
libmozjs128-debug.so:_ZN2js13StringPrinterC2EmP9JSContextb
libmozjs128-debug.so:_ZN2js13StringPrinterD1Ev
libmozjs128-debug.so:_ZN2js13StringPrinterD2Ev
libmozjs128-debug.so:_ZN2js13ToBooleanSlowEN2JS6HandleINS0_5ValueEEE
libmozjs128-debug.so:_ZN2js13TraceWeakMapsEPNS_13WeakMapTracerE
libmozjs128-debug.so:_ZN2js14GenericPrinter17reportOutOfMemoryEv
libmozjs128-debug.so:_ZN2js14GenericPrinter3putEN7mozilla4SpanIKDsLm18446744073709551615EEE
libmozjs128-debug.so:_ZN2js14GenericPrinter3putEN7mozilla4SpanIKhLm18446744073709551615EEE
libmozjs128-debug.so:_ZN2js14GenericPrinter6printfEPKcz
libmozjs128-debug.so:_ZN2js14GenericPrinter7vprintfEPKcP13__va_list_tag
libmozjs128-debug.so:_ZN2js14GenericPrinter9putStringEP9JSContextP8JSString
libmozjs128-debug.so:_ZN2js14GetGCHeapUsageEP9JSContext
libmozjs128-debug.so:_ZN2js14GetObjectProtoEP9JSContextN2JS6HandleIP8JSObjectEENS2_13MutableHandleIS5_EE
libmozjs128-debug.so:_ZN2js14GetStackFormatEP9JSContext
libmozjs128-debug.so:_ZN2js14NewProxyObjectEP9JSContextPKNS_16BaseProxyHandlerEN2JS6HandleINS5_5ValueEEEP8JSObjectRKNS_12ProxyOptionsE
libmozjs128-debug.so:_ZN2js14ObjectClassPtrE
libmozjs128-debug.so:_ZN2js14ProxyObjectOpsE
libmozjs128-debug.so:_ZN2js14SetStackFormatEP9JSContextNS_11StackFormatE
libmozjs128-debug.so:_ZN2js14SetWindowProxyEP9JSContextN2JS6HandleIP8JSObjectEES6_
libmozjs128-debug.so:_ZN2js15AddRawValueRootEP9JSContextPN2JS5ValueEPKc
libmozjs128-debug.so:_ZN2js15AllowNewWrapperEPN2JS11CompartmentEP8JSObject
libmozjs128-debug.so:_ZN2js15AutoEnterPolicy11recordEnterEP9JSContextN2JS6HandleIP8JSObjectEENS4_INS3_11PropertyKeyEEEj
libmozjs128-debug.so:_ZN2js15AutoEnterPolicy11recordLeaveEv
libmozjs128-debug.so:_ZN2js15AutoEnterPolicy34reportErrorIfExceptionIsNotPendingEP9JSContextN2JS6HandleINS3_11PropertyKeyEEE
libmozjs128-debug.so:_ZN2js15ForwardToNativeEP9JSContextPFbS1_jPN2JS5ValueEERKNS2_8CallArgsE
libmozjs128-debug.so:_ZN2js15GetDOMCallbacksEP9JSContext
libmozjs128-debug.so:_ZN2js15GetErrorMessageEPvj
libmozjs128-debug.so:_ZN2js15GetPropertyKeysEP9JSContextN2JS6HandleIP8JSObjectEEjNS2_13MutableHandleINS2_13StackGCVectorINS2_11PropertyKeyENS_15TempAllocPolicyEEEEE
libmozjs128-debug.so:_ZN2js15IndentedPrinter18putWithMaybeIndentEPKcm
libmozjs128-debug.so:_ZN2js15IndentedPrinter3putEPKcm
libmozjs128-debug.so:_ZN2js15IndentedPrinter9putIndentEv
libmozjs128-debug.so:_ZN2js15JSONQuoteStringEPNS_13StringPrinterEP8JSString
libmozjs128-debug.so:_ZN2js15NukeNonCCWProxyEP9JSContextN2JS6HandleIP8JSObjectEE
libmozjs128-debug.so:_ZN2js15ProtoKeyToClassE10JSProtoKey
libmozjs128-debug.so:_ZN2js15SetDOMCallbacksEP9JSContextPKNS_14JSDOMCallbacksE
libmozjs128-debug.so:_ZN2js15TempAllocPolicy13onOutOfMemoryEmNS_13AllocFunctionEmPv
libmozjs128-debug.so:_ZN2js15TraceValueArrayEP8JSTracermPN2JS5ValueE
libmozjs128-debug.so:_ZN2js15UncheckedUnwrapEP8JSObjectbPj
libmozjs128-debug.so:_ZN2js15UnwrapInt8ArrayEP8JSObject
libmozjs128-debug.so:_ZN2js16ForgetSourceHookEP9JSContext
libmozjs128-debug.so:_ZN2js16FunctionClassPtrE
libmozjs128-debug.so:_ZN2js16GetErrorTypeNameEP9JSContexts
libmozjs128-debug.so:_ZN2js16HasObjectMovedOpEP8JSObject
libmozjs128-debug.so:_ZN2js16IsFunctionObjectEP8JSObject
libmozjs128-debug.so:_ZN2js16NukedObjectRealmEP8JSObject
libmozjs128-debug.so:_ZN2js16UnwrapInt16ArrayEP8JSObject
libmozjs128-debug.so:_ZN2js16UnwrapInt32ArrayEP8JSObject
libmozjs128-debug.so:_ZN2js16UnwrapUint8ArrayEP8JSObject
libmozjs128-debug.so:_ZN2js17GetAnyRealmInZoneEPN2JS4ZoneE
libmozjs128-debug.so:_ZN2js17IsArgumentsObjectEN2JS6HandleIP8JSObjectEE
libmozjs128-debug.so:_ZN2js17RecomputeWrappersEP9JSContextRKNS_17CompartmentFilterES4_
libmozjs128-debug.so:_ZN2js17ReportOutOfMemoryEP9JSContext
libmozjs128-debug.so:_ZN2js17ReportOutOfMemoryEPNS_15FrontendContextE
libmozjs128-debug.so:_ZN2js17StringBufferArenaE
libmozjs128-debug.so:_ZN2js17UnwrapUint16ArrayEP8JSObject
libmozjs128-debug.so:_ZN2js17UnwrapUint32ArrayEP8JSObject
libmozjs128-debug.so:_ZN2js18AreGCGrayBitsValidEP9JSRuntime
libmozjs128-debug.so:_ZN2js18EnableCodeCoverageEv
libmozjs128-debug.so:_ZN2js18GetStaticPrototypeEP8JSObject
libmozjs128-debug.so:_ZN2js18IterateGrayObjectsEPN2JS4ZoneEPFvPvNS0_9GCCellPtrERKNS0_15AutoRequireNoGCEES3_
libmozjs128-debug.so:_ZN2js18RemoveRawValueRootEP9JSContextPN2JS5ValueE
libmozjs128-debug.so:_ZN2js18ReportOverRecursedEP9JSContext
libmozjs128-debug.so:_ZN2js18ReportOverRecursedEPNS_15FrontendContextE
libmozjs128-debug.so:_ZN2js18StringIsArrayIndexEP14JSLinearStringPj
libmozjs128-debug.so:_ZN2js18StringIsArrayIndexEPKDsjPj
libmozjs128-debug.so:_ZN2js18UnwrapFloat16ArrayEP8JSObject
libmozjs128-debug.so:_ZN2js18UnwrapFloat32ArrayEP8JSObject
libmozjs128-debug.so:_ZN2js18UnwrapFloat64ArrayEP8JSObject
libmozjs128-debug.so:_ZN2js19CheckedUnwrapStaticEP8JSObject
libmozjs128-debug.so:_ZN2js19GetScriptLineExtentEP8JSScript
libmozjs128-debug.so:_ZN2js19GetTestingFunctionsEP9JSContext
libmozjs128-debug.so:_ZN2js19IsSystemCompartmentEPN2JS11CompartmentE
libmozjs128-debug.so:_ZN2js19ProxyClassExtensionE
libmozjs128-debug.so:_ZN2js19ReportIsNotFunctionEP9JSContextN2JS6HandleINS2_5ValueEEE
libmozjs128-debug.so:_ZN2js19SetWindowProxyClassEP9JSContextPK7JSClass
libmozjs128-debug.so:_ZN2js19UnwrapBigInt64ArrayEP8JSObject
libmozjs128-debug.so:_ZN2js19assertEnteredPolicyEP9JSContextP8JSObjectN2JS11PropertyKeyEj
libmozjs128-debug.so:_ZN2js20CheckedUnwrapDynamicEP8JSObjectP9JSContextb
libmozjs128-debug.so:_ZN2js20DumpInterpreterFrameEP9JSContextPNS_16InterpreterFrameE
libmozjs128-debug.so:_ZN2js20DumpInterpreterFrameEP9JSContextRNS_14GenericPrinterEPNS_16InterpreterFrameE
libmozjs128-debug.so:_ZN2js20GetElementsWithAdderEP9JSContextN2JS6HandleIP8JSObjectEES6_jjPNS_12ElementAdderE
libmozjs128-debug.so:_ZN2js20GetRealmOriginalEvalEP9JSContextN2JS13MutableHandleIP8JSObjectEE
libmozjs128-debug.so:_ZN2js20NoteIntentionalCrashEv
libmozjs128-debug.so:_ZN2js20StopDrainingJobQueueEP9JSContext
libmozjs128-debug.so:_ZN2js20UnwrapBigUint64ArrayEP8JSObject
libmozjs128-debug.so:_ZN2js20UseInternalJobQueuesEP9JSContext
libmozjs128-debug.so:_ZN2js21AssertSameCompartmentEP8JSObjectS1_
libmozjs128-debug.so:_ZN2js21AssertSameCompartmentEP9JSContextN2JS6HandleINS2_5ValueEEE
libmozjs128-debug.so:_ZN2js21AssertSameCompartmentEP9JSContextP8JSObject
libmozjs128-debug.so:_ZN2js21AutoAssertNoContentJSC1EP9JSContext
libmozjs128-debug.so:_ZN2js21AutoAssertNoContentJSC2EP9JSContext
libmozjs128-debug.so:_ZN2js21AutoAssertNoContentJSD1Ev
libmozjs128-debug.so:_ZN2js21AutoAssertNoContentJSD2Ev
libmozjs128-debug.so:_ZN2js21CheckGrayMarkingStateEP9JSRuntime
libmozjs128-debug.so:_ZN2js21DateGetMsecSinceEpochEP9JSContextN2JS6HandleIP8JSObjectEEPd
libmozjs128-debug.so:_ZN2js21GetAllocationMetadataEP8JSObject
libmozjs128-debug.so:_ZN2js21GetMemoryUsageForZoneEPN2JS4ZoneE
libmozjs128-debug.so:_ZN2js21IsSharableCompartmentEPN2JS11CompartmentE
libmozjs128-debug.so:_ZN2js21MaybeGetScriptPrivateEP8JSObject
libmozjs128-debug.so:_ZN2js21ToWindowIfWindowProxyEP8JSObject
libmozjs128-debug.so:_ZN2js21UnwrapArrayBufferViewEP8JSObject
libmozjs128-debug.so:_ZN2js21ZoneGlobalsAreAllGrayEPN2JS4ZoneE
libmozjs128-debug.so:_ZN2js22GetCodeCoverageSummaryEP9JSContextPm
libmozjs128-debug.so:_ZN2js22ReportLargeOutOfMemoryEP9JSContext
libmozjs128-debug.so:_ZN2js22UnwrapOneCheckedStaticEP8JSObject
libmozjs128-debug.so:_ZN2js23CrossCompartmentWrapper9singletonE
libmozjs128-debug.so:_ZN2js23NewFunctionWithReservedEP9JSContextPFbS1_jPN2JS5ValueEEjjPKc
libmozjs128-debug.so:_ZN2js23NotifyAnimationActivityEP8JSObject
libmozjs128-debug.so:_ZN2js23RestartDrainingJobQueueEP9JSContext
libmozjs128-debug.so:_ZN2js23RuntimeIsBeingDestroyedEv
libmozjs128-debug.so:_ZN2js23TraceGrayWrapperTargetsEP8JSTracerPN2JS4ZoneE
libmozjs128-debug.so:_ZN2js23UnwrapOneCheckedDynamicEN2JS6HandleIP8JSObjectEEP9JSContextb
libmozjs128-debug.so:_ZN2js23UnwrapUint8ClampedArrayEP8JSObject
libmozjs128-debug.so:_ZN2js24ArrayBufferContentsArenaE
libmozjs128-debug.so:_ZN2js24AutoEnterOOMUnsafeRegion10crash_implEPKc
libmozjs128-debug.so:_ZN2js24AutoEnterOOMUnsafeRegion10crash_implEmPKc
libmozjs128-debug.so:_ZN2js24AutoEnterOOMUnsafeRegion23annotateOOMSizeCallbackE
libmozjs128-debug.so:_ZN2js24AutoEnterOOMUnsafeRegion6owner_E
libmozjs128-debug.so:_ZN2js24CompartmentHasLiveGlobalEPN2JS11CompartmentE
libmozjs128-debug.so:_ZN2js24FunctionExtendedClassPtrE
libmozjs128-debug.so:_ZN2js24RemapRemoteWindowProxiesEP9JSContextPNS_29CompartmentTransplantCallbackEN2JS13MutableHandleIP8JSObjectEE
libmozjs128-debug.so:_ZN2js24SetContextProfilingStackEP9JSContextP14ProfilingStack
libmozjs128-debug.so:_ZN2js25CurrentThreadIsMainThreadEv
libmozjs128-debug.so:_ZN2js25FunctionHasNativeReservedEP8JSObject
libmozjs128-debug.so:_ZN2js25GetCodeCoverageSummaryAllEP9JSContextPm
libmozjs128-debug.so:_ZN2js25GetFunctionNativeReservedEP8JSObjectm
libmozjs128-debug.so:_ZN2js25GetJobsInInternalJobQueueEP9JSContext
libmozjs128-debug.so:_ZN2js25RemapAllWrappersForObjectEP9JSContextN2JS6HandleIP8JSObjectEES6_
libmozjs128-debug.so:_ZN2js25SetFunctionNativeReservedEP8JSObjectmRKN2JS5ValueE
libmozjs128-debug.so:_ZN2js26CurrentThreadCanAccessZoneEPN2JS4ZoneE
libmozjs128-debug.so:_ZN2js26DefineFunctionWithReservedEP9JSContextP8JSObjectPKcPFbS1_jPN2JS5ValueEEjj
libmozjs128-debug.so:_ZN2js26GetFirstSubsumedSavedFrameEP9JSContextP12JSPrincipalsN2JS6HandleIP8JSObjectEENS4_20SavedFrameSelfHostedE
libmozjs128-debug.so:_ZN2js26GetObjectZoneFromAnyThreadEPK8JSObject
libmozjs128-debug.so:_ZN2js27EnableContextProfilingStackEP9JSContextb
libmozjs128-debug.so:_ZN2js27GetFirstGlobalInCompartmentEPN2JS11CompartmentE
libmozjs128-debug.so:_ZN2js27GetSharedMemoryUsageForZoneEPN2JS4ZoneE
libmozjs128-debug.so:_ZN2js27NewFunctionByIdWithReservedEP9JSContextPFbS1_jPN2JS5ValueEEjjNS2_11PropertyKeyE
libmozjs128-debug.so:_ZN2js27NukeCrossCompartmentWrapperEP9JSContextP8JSObject
libmozjs128-debug.so:_ZN2js27SetPreserveWrapperCallbacksEP9JSContextPFbS1_N2JS6HandleIP8JSObjectEEEPFbS6_E
libmozjs128-debug.so:_ZN2js28IsObjectInContextCompartmentEP8JSObjectPK9JSContext
libmozjs128-debug.so:_ZN2js28NukeCrossCompartmentWrappersEP9JSContextRKNS_17CompartmentFilterEPN2JS5RealmENS_22NukeReferencesToWindowENS_24NukeReferencesFromTargetE
libmozjs128-debug.so:_ZN2js28SetAllocationMetadataBuilderEP9JSContextPKNS_25AllocationMetadataBuilderE
libmozjs128-debug.so:_ZN2js28SetScriptEnvironmentPreparerEP9JSContextPNS_25ScriptEnvironmentPreparerE
libmozjs128-debug.so:_ZN2js28UncheckedUnwrapWithoutExposeEP8JSObject
libmozjs128-debug.so:_ZN2js29CurrentThreadCanAccessRuntimeEPK9JSRuntime
libmozjs128-debug.so:_ZN2js29OpaqueCrossCompartmentWrapper9singletonE
libmozjs128-debug.so:_ZN2js2gc10TraceRealmEP8JSTracerPN2JS5RealmEPKc
libmozjs128-debug.so:_ZN2js2gc12GetGCContextEP9JSContext
libmozjs128-debug.so:_ZN2js2gc15LockStoreBufferEP9JSRuntime
libmozjs128-debug.so:_ZN2js2gc17TraceExternalEdgeEP8JSTracerPN2JS11PropertyKeyEPKc
libmozjs128-debug.so:_ZN2js2gc17TraceExternalEdgeEP8JSTracerPN2JS5ValueEPKc
libmozjs128-debug.so:_ZN2js2gc17TraceExternalEdgeEP8JSTracerPP10JSFunctionPKc
libmozjs128-debug.so:_ZN2js2gc17TraceExternalEdgeEP8JSTracerPP14JSLinearStringPKc
libmozjs128-debug.so:_ZN2js2gc17TraceExternalEdgeEP8JSTracerPP6JSAtomPKc
libmozjs128-debug.so:_ZN2js2gc17TraceExternalEdgeEP8JSTracerPP8JSObjectPKc
libmozjs128-debug.so:_ZN2js2gc17TraceExternalEdgeEP8JSTracerPP8JSScriptPKc
libmozjs128-debug.so:_ZN2js2gc17TraceExternalEdgeEP8JSTracerPP8JSStringPKc
libmozjs128-debug.so:_ZN2js2gc17TraceExternalEdgeEP8JSTracerPPN2JS6BigIntEPKc
libmozjs128-debug.so:_ZN2js2gc17TraceExternalEdgeEP8JSTracerPPN2JS6SymbolEPKc
libmozjs128-debug.so:_ZN2js2gc17UnlockStoreBufferEP9JSRuntime
libmozjs128-debug.so:_ZN2js2gc18SetPerformanceHintEP9JSContextNS0_15PerformanceHintE
libmozjs128-debug.so:_ZN2js2gc19NewMemoryInfoObjectEP9JSContext
libmozjs128-debug.so:_ZN2js2gc20AssertGCThingHasTypeEPNS0_4CellEN2JS9TraceKindE
libmozjs128-debug.so:_ZN2js2gc29PerformIncrementalReadBarrierEN2JS9GCCellPtrE
libmozjs128-debug.so:_ZN2js2gc5Arena10ThingSizesE
libmozjs128-debug.so:_ZN2js2gc5Arena14ThingsPerArenaE
libmozjs128-debug.so:_ZN2js2gc5Arena17FirstThingOffsetsE
libmozjs128-debug.so:_ZN2js2gc6detail16CanCheckGrayBitsEPKNS0_11TenuredCellE
libmozjs128-debug.so:_ZN2js2gc6detail19AssertCellIsNotGrayEPKNS0_4CellE
libmozjs128-debug.so:_ZN2js2gc6detail19ObjectIsMarkedBlackEPK8JSObject
libmozjs128-debug.so:_ZN2js2gc6detail23CellIsMarkedGrayIfKnownEPKNS0_11TenuredCellE
libmozjs128-debug.so:_ZN2js30SetPropertyIgnoringNamedGetterEP9JSContextN2JS6HandleIP8JSObjectEENS3_INS2_11PropertyKeyEEENS3_INS2_5ValueEEESA_NS3_IN7mozilla5MaybeINS2_18PropertyDescriptorEEEEERNS2_14ObjectOpResultE
libmozjs128-debug.so:_ZN2js30ShouldIgnorePropertyDefinitionEP9JSContext10JSProtoKeyN2JS11PropertyKeyE
libmozjs128-debug.so:_ZN2js31ExecuteInFrameScriptEnvironmentEP9JSContextN2JS6HandleIP8JSObjectEENS3_IP8JSScriptEENS2_13MutableHandleIS5_EE
libmozjs128-debug.so:_ZN2js31GetArrayBufferViewLengthAndDataEP8JSObjectPmPbPPh
libmozjs128-debug.so:_ZN2js32MemoryReportingSundriesThresholdEv
libmozjs128-debug.so:_ZN2js32UnsafeTraceManuallyBarrieredEdgeEP8JSTracerPP8JSObjectPKc
libmozjs128-debug.so:_ZN2js33PrepareScriptEnvironmentAndInvokeEP9JSContextN2JS6HandleIP8JSObjectEERNS_25ScriptEnvironmentPreparer7ClosureE
libmozjs128-debug.so:_ZN2js34NukeRemovedCrossCompartmentWrapperEP9JSContextP8JSObject
libmozjs128-debug.so:_ZN2js34UninlinedIsCrossCompartmentWrapperEPK8JSObject
libmozjs128-debug.so:_ZN2js35NewFunctionByIdWithReservedAndProtoEP9JSContextPFbS1_jPN2JS5ValueEENS2_6HandleIP8JSObjectEEjjNS2_11PropertyKeyE
libmozjs128-debug.so:_ZN2js35NukeCrossCompartmentWrapperIfExistsEP9JSContextPN2JS11CompartmentEP8JSObject
libmozjs128-debug.so:_ZN2js35RegisterContextProfilingEventMarkerEP9JSContextPFvPKcS3_E
libmozjs128-debug.so:_ZN2js37IsCompartmentZoneSweepingOrCompactingEPN2JS11CompartmentE
libmozjs128-debug.so:_ZN2js3oom13GetThreadTypeEv
libmozjs128-debug.so:_ZN2js3oom9simulatorE
libmozjs128-debug.so:_ZN2js6DumpIdEN2JS11PropertyKeyE
libmozjs128-debug.so:_ZN2js6DumpIdEN2JS11PropertyKeyEP8_IO_FILE
libmozjs128-debug.so:_ZN2js6DumpIdEN2JS11PropertyKeyERNS_14GenericPrinterE
libmozjs128-debug.so:_ZN2js6DumpPCEP9JSContext
libmozjs128-debug.so:_ZN2js6DumpPCEP9JSContextP8_IO_FILE
libmozjs128-debug.so:_ZN2js6detail12IsWindowSlowEP8JSObject
libmozjs128-debug.so:_ZN2js6detail15SetValueInProxyEPN2JS5ValueERKS2_
libmozjs128-debug.so:_ZN2js6detail25ToWindowProxyIfWindowSlowEP8JSObject
libmozjs128-debug.so:_ZN2js7DumpFmtEP8_IO_FILEPKcz
libmozjs128-debug.so:_ZN2js7DumpFmtEPKcz
libmozjs128-debug.so:_ZN2js7RunJobsEP9JSContext
libmozjs128-debug.so:_ZN2js7Wrapper12defaultProtoE
libmozjs128-debug.so:_ZN2js7Wrapper13wrappedObjectEP8JSObject
libmozjs128-debug.so:_ZN2js7Wrapper22singletonWithPrototypeE
libmozjs128-debug.so:_ZN2js7Wrapper3NewEP9JSContextP8JSObjectPKS0_RKNS_14WrapperOptionsE
libmozjs128-debug.so:_ZN2js7Wrapper5RenewEP8JSObjectS2_PKS0_
libmozjs128-debug.so:_ZN2js7Wrapper6familyE
libmozjs128-debug.so:_ZN2js7Wrapper9singletonE
libmozjs128-debug.so:_ZN2js8DumpAtomEP6JSAtom
libmozjs128-debug.so:_ZN2js8DumpAtomEP6JSAtomP8_IO_FILE
libmozjs128-debug.so:_ZN2js8DumpAtomEP6JSAtomRNS_14GenericPrinterE
libmozjs128-debug.so:_ZN2js8DumpHeapEP9JSContextP8_IO_FILENS_24DumpHeapNurseryBehaviourEPFmPKvE
libmozjs128-debug.so:_ZN2js8Fprinter3putEPKcm
libmozjs128-debug.so:_ZN2js8Fprinter4initEP8_IO_FILE
libmozjs128-debug.so:_ZN2js8Fprinter4initEPKc
libmozjs128-debug.so:_ZN2js8Fprinter5flushEv
libmozjs128-debug.so:_ZN2js8Fprinter6finishEv
libmozjs128-debug.so:_ZN2js8FprinterC1EP8_IO_FILE
libmozjs128-debug.so:_ZN2js8FprinterC2EP8_IO_FILE
libmozjs128-debug.so:_ZN2js8FprinterD1Ev
libmozjs128-debug.so:_ZN2js8FprinterD2Ev
libmozjs128-debug.so:_ZN2js9DumpCharsEPKDsm
libmozjs128-debug.so:_ZN2js9DumpCharsEPKDsmP8_IO_FILE
libmozjs128-debug.so:_ZN2js9DumpCharsEPKDsmRNS_14GenericPrinterE
libmozjs128-debug.so:_ZN2js9DumpValueERKN2JS5ValueE
libmozjs128-debug.so:_ZN2js9DumpValueERKN2JS5ValueEP8_IO_FILE
libmozjs128-debug.so:_ZN2js9DumpValueERKN2JS5ValueERNS_14GenericPrinterE
libmozjs128-debug.so:_ZN2js9LSprinter3putEPKcm
libmozjs128-debug.so:_ZN2js9LSprinter5clearEv
libmozjs128-debug.so:_ZN2js9LSprinterC1EPNS_9LifoAllocE
libmozjs128-debug.so:_ZN2js9LSprinterC2EPNS_9LifoAllocE
libmozjs128-debug.so:_ZN2js9LSprinterD1Ev
libmozjs128-debug.so:_ZN2js9LSprinterD2Ev
libmozjs128-debug.so:_ZN42_$LT$$RF$T$u20$as$u20$core..fmt..Debug$GT$3fmt17h0c825448392ef4b7E
libmozjs128-debug.so:_ZN42_$LT$$RF$T$u20$as$u20$core..fmt..Debug$GT$3fmt17h3e72931e9197b03dE
libmozjs128-debug.so:_ZN42_$LT$$RF$T$u20$as$u20$core..fmt..Debug$GT$3fmt17h5e4bb703bbf54f5fE
libmozjs128-debug.so:_ZN42_$LT$$RF$T$u20$as$u20$core..fmt..Debug$GT$3fmt17hb381c0860358ab70E
libmozjs128-debug.so:_ZN44_$LT$$RF$T$u20$as$u20$core..fmt..Display$GT$3fmt17h595640e83885d3d9E
libmozjs128-debug.so:_ZN44_$LT$$RF$T$u20$as$u20$core..fmt..Display$GT$3fmt17hf577847dbb03e3fbE
libmozjs128-debug.so:_ZN47_$LT$$RF$str$u20$as$u20$serde..de..Expected$GT$3fmt17h9f2b255f097b00bdE
libmozjs128-debug.so:_ZN4core10intrinsics20select_unpredictable17h817c734a6b939528E
libmozjs128-debug.so:_ZN4core10intrinsics20select_unpredictable17ha48919fb331c9fe6E
libmozjs128-debug.so:_ZN4core10intrinsics23is_val_statically_known17h12b9264442a5e50eE
libmozjs128-debug.so:_ZN4core10intrinsics23is_val_statically_known17h587c61889e392f6dE
libmozjs128-debug.so:_ZN4core3cmp3Ord3max17h4d6dc3aa173c9797E
libmozjs128-debug.so:_ZN4core3cmp3Ord3max17hf29e8cad2c796cc6E
libmozjs128-debug.so:_ZN4core3cmp3Ord3min17h4b9680e52820426fE
libmozjs128-debug.so:_ZN4core3cmp3Ord3min17hb37fe059ffa801daE
libmozjs128-debug.so:_ZN4core3cmp3max17hd38ff962377d911fE
libmozjs128-debug.so:_ZN4core3cmp3min17h08fe097916945cfbE
libmozjs128-debug.so:_ZN4core3cmp5impls50_$LT$impl$u20$core..cmp..Ord$u20$for$u20$$RF$A$GT$3cmp17h04dca7e2b744b383E
libmozjs128-debug.so:_ZN4core3cmp5impls69_$LT$impl$u20$core..cmp..PartialEq$LT$$RF$B$GT$$u20$for$u20$$RF$A$GT$2eq17h95df249e3d93d142E
libmozjs128-debug.so:_ZN4core3cmp5impls69_$LT$impl$u20$core..cmp..PartialEq$LT$$RF$B$GT$$u20$for$u20$$RF$A$GT$2eq17hf7116c5557248b56E
libmozjs128-debug.so:_ZN4core3cmp5impls69_$LT$impl$u20$core..cmp..PartialEq$LT$$RF$B$GT$$u20$for$u20$$RF$A$GT$2ne17ha689139351c53a5fE
libmozjs128-debug.so:_ZN4core3cmp9PartialEq2ne17hb5244757444e75c1E
libmozjs128-debug.so:_ZN4core3cmp9PartialEq2ne17hf272b741853fb05aE
libmozjs128-debug.so:_ZN4core3fmt2rt8Argument11new_display17h3dafbb83b4856d0fE
libmozjs128-debug.so:_ZN4core3fmt2rt8Argument11new_display17h408eae773b349a38E
libmozjs128-debug.so:_ZN4core3fmt2rt8Argument11new_display17h6f19f3bcf7697618E
libmozjs128-debug.so:_ZN4core3fmt2rt8Argument11new_display17h8055f634423b245bE
libmozjs128-debug.so:_ZN4core3fmt2rt8Argument11new_display17h847f5c6aacb4d112E
libmozjs128-debug.so:_ZN4core3fmt2rt8Argument11new_display17ha5be78020f22aeedE
libmozjs128-debug.so:_ZN4core3fmt2rt8Argument11new_display17habaca487798f116dE
libmozjs128-debug.so:_ZN4core3fmt2rt8Argument11new_display17hb67d5126239f0158E
libmozjs128-debug.so:_ZN4core3fmt2rt8Argument11new_display17hba136084a89457d4E
libmozjs128-debug.so:_ZN4core3fmt2rt8Argument11new_display17hd00a44b989683411E
libmozjs128-debug.so:_ZN4core3fmt2rt8Argument9new_debug17hcbb40d2f5c73b277E
libmozjs128-debug.so:_ZN4core3fmt5Write9write_fmt17h58982ce2902a257bE
libmozjs128-debug.so:_ZN4core3fmt9Arguments3new17h0b45aa5c8b8e477dE
libmozjs128-debug.so:_ZN4core3fmt9Arguments3new17h18405235132203a9E
libmozjs128-debug.so:_ZN4core3fmt9Arguments3new17h189bdca1acbec8fcE
libmozjs128-debug.so:_ZN4core3fmt9Arguments3new17h44c08979b0604370E
libmozjs128-debug.so:_ZN4core3fmt9Arguments3new17h4f1c8c75c91535a3E
libmozjs128-debug.so:_ZN4core3fmt9Arguments3new17h93a121d37727b901E
libmozjs128-debug.so:_ZN4core3fmt9Arguments3new17hab2e924c89574186E
libmozjs128-debug.so:_ZN4core3fmt9Arguments3new17hd1528c2f1b40006aE
libmozjs128-debug.so:_ZN4core3fmt9Arguments3new17he92f1e51fcf24a51E
libmozjs128-debug.so:_ZN4core3fmt9Arguments3new17he977fc724f198125E
libmozjs128-debug.so:_ZN4core3fmt9Arguments3new17hebe5b9ee24ca90f2E
libmozjs128-debug.so:_ZN4core3fmt9Arguments3new17hf2d62cf19b93e552E
libmozjs128-debug.so:_ZN4core3fmt9Arguments3new17hfaf0ab0487182b44E
libmozjs128-debug.so:_ZN4core3fmt9Arguments3new17hfd48d5588151976bE
libmozjs128-debug.so:_ZN4core3ptr42drop_in_place$LT$alloc..string..String$GT$17h869d29df53ecbd3fE
libmozjs128-debug.so:_ZN4core3ptr46drop_in_place$LT$alloc..vec..Vec$LT$u8$GT$$GT$17hfa3a151d450baacdE
libmozjs128-debug.so:_ZN4core3ptr49drop_in_place$LT$alloc..boxed..Box$LT$str$GT$$GT$17h1aab980f3460e099E
libmozjs128-debug.so:_ZN4core3ptr53drop_in_place$LT$alloc..raw_vec..RawVec$LT$u8$GT$$GT$17heb52580d7dfc9944E
libmozjs128-debug.so:_ZN4core3ptr66drop_in_place$LT$alloc..boxed..Box$LT$encoding_rs..Decoder$GT$$GT$17h11ce9eb6425f468cE
libmozjs128-debug.so:_ZN4core3ptr66drop_in_place$LT$alloc..boxed..Box$LT$encoding_rs..Encoder$GT$$GT$17hc190533572250099E
libmozjs128-debug.so:_ZN4core3ptr79drop_in_place$LT$core..hint..select_unpredictable..DropOnPanic$LT$usize$GT$$GT$17h21db699b1756e15aE
libmozjs128-debug.so:_ZN4core3ptr9const_ptr33_$LT$impl$u20$$BP$const$u20$T$GT$13is_aligned_to17h285588878d5042eeE
libmozjs128-debug.so:_ZN4core3ptr9const_ptr33_$LT$impl$u20$$BP$const$u20$T$GT$13is_aligned_to17hc7582cb62c84523bE
libmozjs128-debug.so:_ZN4core3str11validations15next_code_point17h49baa894033e6a0fE
libmozjs128-debug.so:_ZN4core3str21_$LT$impl$u20$str$GT$8contains17ha8278bc58de1b406E
libmozjs128-debug.so:_ZN4core3str6traits66_$LT$impl$u20$core..ops..index..Index$LT$I$GT$$u20$for$u20$str$GT$5index17h63caabfd0555e5d9E
libmozjs128-debug.so:_ZN4core3str7pattern13simd_contains28_$u7b$$u7b$closure$u7d$$u7d$17h2930da02491011d0E
libmozjs128-debug.so:_ZN4core3str7pattern13simd_contains28_$u7b$$u7b$closure$u7d$$u7d$17h2a45b9826daf3850E
libmozjs128-debug.so:_ZN4core3str7pattern13simd_contains28_$u7b$$u7b$closure$u7d$$u7d$17hcff30cd75c07c2deE
libmozjs128-debug.so:_ZN4core3str7pattern13simd_contains28_$u7b$$u7b$closure$u7d$$u7d$17hd538624c95ac0afcE
libmozjs128-debug.so:_ZN4core3str7pattern14TwoWaySearcher4next17h78034b2bd758c483E
libmozjs128-debug.so:_ZN4core3str7pattern14TwoWaySearcher4next17h7e6a880f3e3835b1E
libmozjs128-debug.so:_ZN4core4iter5range101_$LT$impl$u20$core..iter..traits..iterator..Iterator$u20$for$u20$core..ops..range..Range$LT$A$GT$$GT$4next17h6092ff9c4734aac5E
libmozjs128-debug.so:_ZN4core4iter5range116_$LT$impl$u20$core..iter..traits..double_ended..DoubleEndedIterator$u20$for$u20$core..ops..range..Range$LT$A$GT$$GT$9next_back17h59ede0d125b31133E
libmozjs128-debug.so:_ZN4core4iter6traits12double_ended19DoubleEndedIterator5rfind5check28_$u7b$$u7b$closure$u7d$$u7d$17h1ead5d1cb48be350E
libmozjs128-debug.so:_ZN4core4iter6traits12double_ended19DoubleEndedIterator9try_rfold17hdcd6525ec92b8e05E
libmozjs128-debug.so:_ZN4core4iter6traits12double_ended19DoubleEndedIterator9try_rfold17hfe97694acf8fea7bE
libmozjs128-debug.so:_ZN4core4iter6traits8iterator12iter_compare17h15973014c0d47205E
libmozjs128-debug.so:_ZN4core4iter6traits8iterator12iter_compare7compare28_$u7b$$u7b$closure$u7d$$u7d$17h572021157e8428e8E
libmozjs128-debug.so:_ZN4core4iter6traits8iterator8Iterator12try_for_each17h9e8609e856fe00beE
libmozjs128-debug.so:_ZN4core4iter6traits8iterator8Iterator12try_for_each4call28_$u7b$$u7b$closure$u7d$$u7d$17h6dddc5203e960d8dE
libmozjs128-debug.so:_ZN4core4iter6traits8iterator8Iterator3any5check28_$u7b$$u7b$closure$u7d$$u7d$17hbca15422c8b3381dE
libmozjs128-debug.so:_ZN4core4iter6traits8iterator8Iterator3cmp17h0210ff27f7286323E
libmozjs128-debug.so:_ZN4core4iter6traits8iterator8Iterator3cmp28_$u7b$$u7b$closure$u7d$$u7d$17hef5c6846dbb6b6cfE
libmozjs128-debug.so:_ZN4core4iter6traits8iterator8Iterator3rev17h31f1c8c391c42a3fE
libmozjs128-debug.so:_ZN4core4iter6traits8iterator8Iterator3zip17h605aa6fb17dfb72cE
libmozjs128-debug.so:_ZN4core4iter6traits8iterator8Iterator3zip17hdc4fd2c939ee4845E
libmozjs128-debug.so:_ZN4core4iter6traits8iterator8Iterator4take17h4f8da2f2e0ac9022E
libmozjs128-debug.so:_ZN4core4iter6traits8iterator8Iterator6cmp_by17h04281b020cc0bd78E
libmozjs128-debug.so:_ZN4core4iter6traits8iterator8Iterator6cmp_by7compare28_$u7b$$u7b$closure$u7d$$u7d$17h85175431245db873E
libmozjs128-debug.so:_ZN4core4iter6traits8iterator8Iterator8for_each17h79ad0bc96448d4beE
libmozjs128-debug.so:_ZN4core4iter6traits8iterator8Iterator8for_each4call28_$u7b$$u7b$closure$u7d$$u7d$17h5f4307218b95b863E
libmozjs128-debug.so:_ZN4core4iter6traits8iterator8Iterator8try_fold17hac02be717591249cE
libmozjs128-debug.so:_ZN4core4iter6traits8iterator8Iterator9enumerate17h25e7cd609a7b7b92E
libmozjs128-debug.so:_ZN4core4iter6traits8iterator8Iterator9enumerate17h2c39c211bb7715b2E
libmozjs128-debug.so:_ZN4core4iter6traits8iterator8Iterator9enumerate17h6d698ee1bc957672E
libmozjs128-debug.so:_ZN4core4iter8adapters3zip27TrustedRandomAccessNoCoerce4size17h65d00e25fc1ff1f3E
libmozjs128-debug.so:_ZN4core4iter8adapters3zip27TrustedRandomAccessNoCoerce4size17hf0c86b751a257188E
libmozjs128-debug.so:_ZN4core4iter8adapters3zip27TrustedRandomAccessNoCoerce4size17hfc5fe1d60053e6aaE
libmozjs128-debug.so:_ZN4core5array85_$LT$impl$u20$core..ops..index..Index$LT$I$GT$$u20$for$u20$$u5b$T$u3b$$u20$N$u5d$$GT$5index17h08d98784af3206ebE
libmozjs128-debug.so:_ZN4core5array85_$LT$impl$u20$core..ops..index..Index$LT$I$GT$$u20$for$u20$$u5b$T$u3b$$u20$N$u5d$$GT$5index17h09646cafa8dfb03dE
libmozjs128-debug.so:_ZN4core5array85_$LT$impl$u20$core..ops..index..Index$LT$I$GT$$u20$for$u20$$u5b$T$u3b$$u20$N$u5d$$GT$5index17h0a4560b9fe706887E
libmozjs128-debug.so:_ZN4core5array85_$LT$impl$u20$core..ops..index..Index$LT$I$GT$$u20$for$u20$$u5b$T$u3b$$u20$N$u5d$$GT$5index17h0ba67d2d833551e8E
libmozjs128-debug.so:_ZN4core5array85_$LT$impl$u20$core..ops..index..Index$LT$I$GT$$u20$for$u20$$u5b$T$u3b$$u20$N$u5d$$GT$5index17h106d439f165f4c60E
libmozjs128-debug.so:_ZN4core5array85_$LT$impl$u20$core..ops..index..Index$LT$I$GT$$u20$for$u20$$u5b$T$u3b$$u20$N$u5d$$GT$5index17h11f1be87731e3e31E
libmozjs128-debug.so:_ZN4core5array85_$LT$impl$u20$core..ops..index..Index$LT$I$GT$$u20$for$u20$$u5b$T$u3b$$u20$N$u5d$$GT$5index17h21cec28b59e4d952E
libmozjs128-debug.so:_ZN4core5array85_$LT$impl$u20$core..ops..index..Index$LT$I$GT$$u20$for$u20$$u5b$T$u3b$$u20$N$u5d$$GT$5index17h286db2ffadbcd531E
libmozjs128-debug.so:_ZN4core5array85_$LT$impl$u20$core..ops..index..Index$LT$I$GT$$u20$for$u20$$u5b$T$u3b$$u20$N$u5d$$GT$5index17h2e12c13f52656861E
libmozjs128-debug.so:_ZN4core5array85_$LT$impl$u20$core..ops..index..Index$LT$I$GT$$u20$for$u20$$u5b$T$u3b$$u20$N$u5d$$GT$5index17h2ec5d1f6a6fb4e12E
libmozjs128-debug.so:_ZN4core5array85_$LT$impl$u20$core..ops..index..Index$LT$I$GT$$u20$for$u20$$u5b$T$u3b$$u20$N$u5d$$GT$5index17h377b5928e6eb3c40E
libmozjs128-debug.so:_ZN4core5array85_$LT$impl$u20$core..ops..index..Index$LT$I$GT$$u20$for$u20$$u5b$T$u3b$$u20$N$u5d$$GT$5index17h3d3377e5bdad91d8E
libmozjs128-debug.so:_ZN4core5array85_$LT$impl$u20$core..ops..index..Index$LT$I$GT$$u20$for$u20$$u5b$T$u3b$$u20$N$u5d$$GT$5index17h3e2c173ff93fa1fdE
libmozjs128-debug.so:_ZN4core5array85_$LT$impl$u20$core..ops..index..Index$LT$I$GT$$u20$for$u20$$u5b$T$u3b$$u20$N$u5d$$GT$5index17h4749f3f8157f0d75E
libmozjs128-debug.so:_ZN4core5array85_$LT$impl$u20$core..ops..index..Index$LT$I$GT$$u20$for$u20$$u5b$T$u3b$$u20$N$u5d$$GT$5index17h4a4ef3abcea4d886E
libmozjs128-debug.so:_ZN4core5array85_$LT$impl$u20$core..ops..index..Index$LT$I$GT$$u20$for$u20$$u5b$T$u3b$$u20$N$u5d$$GT$5index17h4fdef0c0ef66cabbE
libmozjs128-debug.so:_ZN4core5array85_$LT$impl$u20$core..ops..index..Index$LT$I$GT$$u20$for$u20$$u5b$T$u3b$$u20$N$u5d$$GT$5index17h5006f501cae27db2E
libmozjs128-debug.so:_ZN4core5array85_$LT$impl$u20$core..ops..index..Index$LT$I$GT$$u20$for$u20$$u5b$T$u3b$$u20$N$u5d$$GT$5index17h50aa5fcf61d28746E
libmozjs128-debug.so:_ZN4core5array85_$LT$impl$u20$core..ops..index..Index$LT$I$GT$$u20$for$u20$$u5b$T$u3b$$u20$N$u5d$$GT$5index17h50db2e59ccd39564E
libmozjs128-debug.so:_ZN4core5array85_$LT$impl$u20$core..ops..index..Index$LT$I$GT$$u20$for$u20$$u5b$T$u3b$$u20$N$u5d$$GT$5index17h5a3ed174fb73c22fE
libmozjs128-debug.so:_ZN4core5array85_$LT$impl$u20$core..ops..index..Index$LT$I$GT$$u20$for$u20$$u5b$T$u3b$$u20$N$u5d$$GT$5index17h7026b5b3ef7e75e0E
libmozjs128-debug.so:_ZN4core5array85_$LT$impl$u20$core..ops..index..Index$LT$I$GT$$u20$for$u20$$u5b$T$u3b$$u20$N$u5d$$GT$5index17h795656fdbbb45e75E
libmozjs128-debug.so:_ZN4core5array85_$LT$impl$u20$core..ops..index..Index$LT$I$GT$$u20$for$u20$$u5b$T$u3b$$u20$N$u5d$$GT$5index17h955d618d289f3d42E
libmozjs128-debug.so:_ZN4core5array85_$LT$impl$u20$core..ops..index..Index$LT$I$GT$$u20$for$u20$$u5b$T$u3b$$u20$N$u5d$$GT$5index17h9b3c60573471bbe7E
libmozjs128-debug.so:_ZN4core5array85_$LT$impl$u20$core..ops..index..Index$LT$I$GT$$u20$for$u20$$u5b$T$u3b$$u20$N$u5d$$GT$5index17ha35da8809c556686E
libmozjs128-debug.so:_ZN4core5array85_$LT$impl$u20$core..ops..index..Index$LT$I$GT$$u20$for$u20$$u5b$T$u3b$$u20$N$u5d$$GT$5index17ha6f2bcb7ae728e46E
libmozjs128-debug.so:_ZN4core5array85_$LT$impl$u20$core..ops..index..Index$LT$I$GT$$u20$for$u20$$u5b$T$u3b$$u20$N$u5d$$GT$5index17haae5b3cc3d17b484E
libmozjs128-debug.so:_ZN4core5array85_$LT$impl$u20$core..ops..index..Index$LT$I$GT$$u20$for$u20$$u5b$T$u3b$$u20$N$u5d$$GT$5index17hac25b260734a2eb8E
libmozjs128-debug.so:_ZN4core5array85_$LT$impl$u20$core..ops..index..Index$LT$I$GT$$u20$for$u20$$u5b$T$u3b$$u20$N$u5d$$GT$5index17hbc8a26afc7834c53E
libmozjs128-debug.so:_ZN4core5array85_$LT$impl$u20$core..ops..index..Index$LT$I$GT$$u20$for$u20$$u5b$T$u3b$$u20$N$u5d$$GT$5index17hbe7f0c4e10aad608E
libmozjs128-debug.so:_ZN4core5array85_$LT$impl$u20$core..ops..index..Index$LT$I$GT$$u20$for$u20$$u5b$T$u3b$$u20$N$u5d$$GT$5index17hc4bd82442a7dac88E
libmozjs128-debug.so:_ZN4core5array85_$LT$impl$u20$core..ops..index..Index$LT$I$GT$$u20$for$u20$$u5b$T$u3b$$u20$N$u5d$$GT$5index17hcbfc095608a66e52E
libmozjs128-debug.so:_ZN4core5array85_$LT$impl$u20$core..ops..index..Index$LT$I$GT$$u20$for$u20$$u5b$T$u3b$$u20$N$u5d$$GT$5index17hd3e643ef992bcafbE
libmozjs128-debug.so:_ZN4core5array85_$LT$impl$u20$core..ops..index..Index$LT$I$GT$$u20$for$u20$$u5b$T$u3b$$u20$N$u5d$$GT$5index17hd7fd8d355a811060E
libmozjs128-debug.so:_ZN4core5array85_$LT$impl$u20$core..ops..index..Index$LT$I$GT$$u20$for$u20$$u5b$T$u3b$$u20$N$u5d$$GT$5index17hdaf47a71d35f592dE
libmozjs128-debug.so:_ZN4core5array85_$LT$impl$u20$core..ops..index..Index$LT$I$GT$$u20$for$u20$$u5b$T$u3b$$u20$N$u5d$$GT$5index17he172319fb28aab15E
libmozjs128-debug.so:_ZN4core5array85_$LT$impl$u20$core..ops..index..Index$LT$I$GT$$u20$for$u20$$u5b$T$u3b$$u20$N$u5d$$GT$5index17he3b4dc9d75ebea79E
libmozjs128-debug.so:_ZN4core5array85_$LT$impl$u20$core..ops..index..Index$LT$I$GT$$u20$for$u20$$u5b$T$u3b$$u20$N$u5d$$GT$5index17he6902acbf95f7b84E
libmozjs128-debug.so:_ZN4core5array85_$LT$impl$u20$core..ops..index..Index$LT$I$GT$$u20$for$u20$$u5b$T$u3b$$u20$N$u5d$$GT$5index17hf15982d19a3ddb4eE
libmozjs128-debug.so:_ZN4core5slice20copy_from_slice_impl17hccdeac37331ab8daE
libmozjs128-debug.so:_ZN4core5slice29_$LT$impl$u20$$u5b$T$u5d$$GT$13binary_search17heaaad94042f0bed2E
libmozjs128-debug.so:_ZN4core5slice29_$LT$impl$u20$$u5b$T$u5d$$GT$13binary_search28_$u7b$$u7b$closure$u7d$$u7d$17h2973c57399f3a940E
libmozjs128-debug.so:_ZN4core5slice29_$LT$impl$u20$$u5b$T$u5d$$GT$13get_unchecked17h07056473e5f4288aE
libmozjs128-debug.so:_ZN4core5slice29_$LT$impl$u20$$u5b$T$u5d$$GT$13get_unchecked17h39d38a8a1a88166bE
libmozjs128-debug.so:_ZN4core5slice29_$LT$impl$u20$$u5b$T$u5d$$GT$15copy_from_slice17h0c099aef7d99e069E
libmozjs128-debug.so:_ZN4core5slice29_$LT$impl$u20$$u5b$T$u5d$$GT$15copy_from_slice17h14c4315cb6f44cdeE
libmozjs128-debug.so:_ZN4core5slice29_$LT$impl$u20$$u5b$T$u5d$$GT$16binary_search_by17h37383cc563ded29eE
libmozjs128-debug.so:_ZN4core5slice29_$LT$impl$u20$$u5b$T$u5d$$GT$16binary_search_by17hc32b3c5ad6a5caf5E
libmozjs128-debug.so:_ZN4core5slice29_$LT$impl$u20$$u5b$T$u5d$$GT$17get_unchecked_mut17h6d81081a95d2ea61E
libmozjs128-debug.so:_ZN4core5slice29_$LT$impl$u20$$u5b$T$u5d$$GT$17get_unchecked_mut17hee51ddeb456f10c1E
libmozjs128-debug.so:_ZN4core5slice29_$LT$impl$u20$$u5b$T$u5d$$GT$18split_at_unchecked17ha30b2b129383baa5E
libmozjs128-debug.so:_ZN4core5slice29_$LT$impl$u20$$u5b$T$u5d$$GT$4iter17h08b67900393cc707E
libmozjs128-debug.so:_ZN4core5slice29_$LT$impl$u20$$u5b$T$u5d$$GT$4iter17h2e25e54183af8791E
libmozjs128-debug.so:_ZN4core5slice29_$LT$impl$u20$$u5b$T$u5d$$GT$4iter17he7b2effd6f4b23efE
libmozjs128-debug.so:_ZN4core5slice29_$LT$impl$u20$$u5b$T$u5d$$GT$8contains17h224fe902ee2a35ddE
libmozjs128-debug.so:_ZN4core5slice29_$LT$impl$u20$$u5b$T$u5d$$GT$8is_empty17haafee9631d09f08eE
libmozjs128-debug.so:_ZN4core5slice29_$LT$impl$u20$$u5b$T$u5d$$GT$8is_empty17hd9df748dbb37febaE
libmozjs128-debug.so:_ZN4core5slice29_$LT$impl$u20$$u5b$T$u5d$$GT$8iter_mut17hc1db19c7af755ee6E
libmozjs128-debug.so:_ZN4core5slice29_$LT$impl$u20$$u5b$T$u5d$$GT$8split_at17ha32c2df616f3f4dcE
libmozjs128-debug.so:_ZN4core5slice3raw14from_raw_parts17h13aa74d6e2a5d22aE
libmozjs128-debug.so:_ZN4core5slice3raw14from_raw_parts17h7fae632a2c34e155E
libmozjs128-debug.so:_ZN4core5slice3raw14from_raw_parts17h99591386f5270623E
libmozjs128-debug.so:_ZN4core5slice3raw14from_raw_parts17hec9f45315a3e45b8E
libmozjs128-debug.so:_ZN4core5slice3raw18from_raw_parts_mut17h9eec3a2256355a3dE
libmozjs128-debug.so:_ZN4core5slice3raw18from_raw_parts_mut17hcc40f81ec4b004ffE
libmozjs128-debug.so:_ZN4core5slice3raw18from_raw_parts_mut17hebb0e2fce1fd66b3E
libmozjs128-debug.so:_ZN4core5slice3raw18from_raw_parts_mut17hf8e985d1fe4ff869E
libmozjs128-debug.so:_ZN4core5slice4iter13Iter$LT$T$GT$3new17h1f01d69bb8691f92E
libmozjs128-debug.so:_ZN4core5slice4iter13Iter$LT$T$GT$3new17h4d9f6a2d1914e833E
libmozjs128-debug.so:_ZN4core5slice4iter13Iter$LT$T$GT$3new17h61b94e2ee243224eE
libmozjs128-debug.so:_ZN4core5slice4iter16IterMut$LT$T$GT$3new17h64bee86da9562296E
libmozjs128-debug.so:_ZN4core5slice4iter87_$LT$impl$u20$core..iter..traits..collect..IntoIterator$u20$for$u20$$RF$$u5b$T$u5d$$GT$9into_iter17h21a087fea752c1bdE
libmozjs128-debug.so:_ZN4core5slice4iter87_$LT$impl$u20$core..iter..traits..collect..IntoIterator$u20$for$u20$$RF$$u5b$T$u5d$$GT$9into_iter17h58fa175467782d10E
libmozjs128-debug.so:_ZN4core5slice4iter87_$LT$impl$u20$core..iter..traits..collect..IntoIterator$u20$for$u20$$RF$$u5b$T$u5d$$GT$9into_iter17h941e8bab1dc9242cE
libmozjs128-debug.so:_ZN4core6option15Option$LT$T$GT$14unwrap_or_else17he8b2c8368ce77e54E
libmozjs128-debug.so:_ZN4core6option15Option$LT$T$GT$3map17h0a8ca583b7af6363E
libmozjs128-debug.so:_ZN4core6option15Option$LT$T$GT$3map17h19168f7f8aa52e07E
libmozjs128-debug.so:_ZN4core6option15Option$LT$T$GT$3map17h58a3eba4ac10ee8fE
libmozjs128-debug.so:_ZN4core6option15Option$LT$T$GT$3map17h8d488e8f6eb8c8dfE
libmozjs128-debug.so:_ZN4core6option15Option$LT$T$GT$3map17h8e8ee9d07ddb15afE
libmozjs128-debug.so:_ZN4core6option15Option$LT$T$GT$3map17h9ae1016e5ea85e9bE
libmozjs128-debug.so:_ZN4core6option15Option$LT$T$GT$3map17hb4191c7d152c0c56E
libmozjs128-debug.so:_ZN4core6option15Option$LT$T$GT$3map17hb99836beb26ac802E
libmozjs128-debug.so:_ZN4core6option15Option$LT$T$GT$3map17he2009b0fdef78727E
libmozjs128-debug.so:_ZN4core6option15Option$LT$T$GT$4take17ha726f1edcdfa54f1E
libmozjs128-debug.so:_ZN4core6option15Option$LT$T$GT$6map_or17hfaebf93447663605E
libmozjs128-debug.so:_ZN4core6option15Option$LT$T$GT$7is_none17hc8af00eceb6ade64E
libmozjs128-debug.so:_ZN4core6option15Option$LT$T$GT$7is_none17hcbf3bde57c182f42E
libmozjs128-debug.so:_ZN4core6option15Option$LT$T$GT$7is_some17h1316516a10005204E
libmozjs128-debug.so:_ZN4core6option15Option$LT$T$GT$9unwrap_or17h0cdf1cb3e4f78ae7E
libmozjs128-debug.so:_ZN4core6result19Result$LT$T$C$E$GT$2ok17hf3422469cf226b46E
libmozjs128-debug.so:_ZN4core9core_simd5masks17Mask$LT$T$C$_$GT$10to_bitmask17h0549822c66f6900aE
libmozjs128-debug.so:_ZN4core9core_simd5masks71_$LT$impl$u20$core..core_simd..masks..sealed..Sealed$u20$for$u20$i8$GT$5valid17h1346e7175cfe0e12E
libmozjs128-debug.so:_ZN4core9core_simd5masks71_$LT$impl$u20$core..core_simd..masks..sealed..Sealed$u20$for$u20$i8$GT$5valid17h41651362bebfe354E
libmozjs128-debug.so:_ZN4core9core_simd5masks71_$LT$impl$u20$core..core_simd..masks..sealed..Sealed$u20$for$u20$i8$GT$5valid17hc1e6447307daf1d1E
libmozjs128-debug.so:_ZN4core9core_simd5masks71_$LT$impl$u20$core..core_simd..masks..sealed..Sealed$u20$for$u20$i8$GT$5valid17hccc8d12ce0af2d5bE
libmozjs128-debug.so:_ZN4core9panicking13assert_failed17ha4c73df8d002574cE
libmozjs128-debug.so:_ZN4core9panicking13assert_failed17hd7c8308cfe121e01E
libmozjs128-debug.so:_ZN4core9panicking13assert_failed17hf8abc0e2e524a233E
libmozjs128-debug.so:_ZN4core9panicking19unreachable_display17hfd89e7c931424dcdE
libmozjs128-debug.so:_ZN53_$LT$T$u20$as$u20$core..slice..cmp..SliceContains$GT$14slice_contains17hb639c1c7dd87d714E
libmozjs128-debug.so:_ZN53_$LT$T$u20$as$u20$core..slice..cmp..SliceContains$GT$14slice_contains28_$u7b$$u7b$closure$u7d$$u7d$17hb7da9f405dd68108E
libmozjs128-debug.so:_ZN55_$LT$serde..de..OneOf$u20$as$u20$core..fmt..Display$GT$3fmt17hf9ddaa7cefb542d5E
libmozjs128-debug.so:_ZN58_$LT$encoding_rs..CoderResult$u20$as$u20$core..cmp..Eq$GT$20assert_fields_are_eq17hf2227facbd66987aE
libmozjs128-debug.so:_ZN59_$LT$serde..de..format..Buf$u20$as$u20$core..fmt..Write$GT$9write_str17h98c61703ab2ddf8aE
libmozjs128-debug.so:_ZN5alloc3vec12Vec$LT$T$GT$13with_capacity17h4a918b5a691fc0e3E
libmozjs128-debug.so:_ZN5alloc3vec16Vec$LT$T$C$A$GT$10as_mut_ptr17hef6b55bda92c0eddE
libmozjs128-debug.so:_ZN5alloc3vec16Vec$LT$T$C$A$GT$13reserve_exact17h0aab5bbfd146669dE
libmozjs128-debug.so:_ZN5alloc3vec16Vec$LT$T$C$A$GT$3len17h857d068440fc8865E
libmozjs128-debug.so:_ZN5alloc3vec16Vec$LT$T$C$A$GT$7reserve17hf9235256dde6619cE
libmozjs128-debug.so:_ZN5alloc3vec16Vec$LT$T$C$A$GT$7set_len17hd784526577ebb529E
libmozjs128-debug.so:_ZN5alloc3vec16Vec$LT$T$C$A$GT$8capacity17h016962046f2470a0E
libmozjs128-debug.so:_ZN5alloc3vec16Vec$LT$T$C$A$GT$8truncate17h39e81ac71207cbf6E
libmozjs128-debug.so:_ZN5alloc5boxed12Box$LT$T$GT$8from_raw17h0c09ba7e7cf7af58E
libmozjs128-debug.so:_ZN5alloc5boxed12Box$LT$T$GT$8from_raw17hf63e013e18a9479bE
libmozjs128-debug.so:_ZN5alloc5boxed12Box$LT$T$GT$8into_raw17h79edf7774d30348eE
libmozjs128-debug.so:_ZN5alloc5boxed12Box$LT$T$GT$8into_raw17hafd782f1b0f1bd67E
libmozjs128-debug.so:_ZN5alloc7raw_vec20RawVecInner$LT$A$GT$10deallocate17h4f29862f2551cecaE
libmozjs128-debug.so:_ZN5alloc7raw_vec20RawVecInner$LT$A$GT$10grow_exact17h6dedc4ec7981ece5E
libmozjs128-debug.so:_ZN5alloc7raw_vec20RawVecInner$LT$A$GT$11finish_grow17h6718672523a64715E
libmozjs128-debug.so:_ZN5alloc7raw_vec20RawVecInner$LT$A$GT$13reserve_exact17h88f8efd9977d6df7E
libmozjs128-debug.so:_ZN5alloc7raw_vec20RawVecInner$LT$A$GT$14current_memory17h5458ecf52ca4b0f8E
libmozjs128-debug.so:_ZN5alloc7raw_vec20RawVecInner$LT$A$GT$14grow_amortized17h6809166c369ebc6fE
libmozjs128-debug.so:_ZN5alloc7raw_vec20RawVecInner$LT$A$GT$15try_allocate_in17h60d9beb4d5d8293cE
libmozjs128-debug.so:_ZN5alloc7raw_vec20RawVecInner$LT$A$GT$16with_capacity_in17hd9161f59d32fe460E
libmozjs128-debug.so:_ZN5alloc7raw_vec20RawVecInner$LT$A$GT$17try_reserve_exact17h121effa3f6be1c70E
libmozjs128-debug.so:_ZN5alloc7raw_vec20RawVecInner$LT$A$GT$7reserve21do_reserve_and_handle17h33e146cdcc60ae72E
libmozjs128-debug.so:_ZN5blink7Decimal10fromDoubleEd
libmozjs128-debug.so:_ZN5blink7Decimal10fromStringERKNSt7__cxx1112basic_stringIcSt11char_traitsIcESaIcEEE
libmozjs128-debug.so:_ZN5blink7Decimal13alignOperandsERKS0_S2_
libmozjs128-debug.so:_ZN5blink7Decimal4zeroENS0_4SignE
libmozjs128-debug.so:_ZN5blink7Decimal8infinityENS0_4SignE
libmozjs128-debug.so:_ZN5blink7DecimalC1ENS0_4SignEim
libmozjs128-debug.so:_ZN5blink7DecimalC1ERKS0_
libmozjs128-debug.so:_ZN5blink7DecimalC1Ei
libmozjs128-debug.so:_ZN5blink7DecimalC2ENS0_4SignEim
libmozjs128-debug.so:_ZN5blink7DecimalC2ERKS0_
libmozjs128-debug.so:_ZN5blink7DecimalC2Ei
libmozjs128-debug.so:_ZN5blink7DecimalaSERKS0_
libmozjs128-debug.so:_ZN5blink7DecimaldVERKS0_
libmozjs128-debug.so:_ZN5blink7DecimalmIERKS0_
libmozjs128-debug.so:_ZN5blink7DecimalmLERKS0_
libmozjs128-debug.so:_ZN5blink7DecimalpLERKS0_
libmozjs128-debug.so:_ZN5serde2de5impls14OSSTR_VARIANTS17h4ccdec2fb1cdf0e8E
libmozjs128-debug.so:_ZN5serde2de5impls73_$LT$impl$u20$serde..de..Deserialize$u20$for$u20$core..time..Duration$GT$11deserialize14check_overflow13NANOS_PER_SEC17h70083e830f70af8eE
libmozjs128-debug.so:_ZN5serde2de5impls74_$LT$impl$u20$serde..de..Deserialize$u20$for$u20$std..time..SystemTime$GT$11deserialize14check_overflow13NANOS_PER_SEC17h51a39ab52f68153bE
libmozjs128-debug.so:_ZN5serde2de5impls79_$LT$impl$u20$serde..de..Deserialize$u20$for$u20$core..net..ip_addr..IpAddr$GT$11deserialize8VARIANTS17h9fc12849436b8857E
libmozjs128-debug.so:_ZN5serde2de5impls87_$LT$impl$u20$serde..de..Deserialize$u20$for$u20$core..net..socket_addr..SocketAddr$GT$11deserialize8VARIANTS17h99f558bfa61399a2E
libmozjs128-debug.so:_ZN5serde2de6format3Buf3new17h98592b8b38b07c7fE
libmozjs128-debug.so:_ZN5serde2de6format3Buf6as_str17h141e0f9497560fb7E
libmozjs128-debug.so:_ZN5serde2de9size_hint6helper17h5bd175b8268983beE
libmozjs128-debug.so:_ZN5serde3ser3fmt85_$LT$impl$u20$serde..ser..Serializer$u20$for$u20$$RF$mut$u20$core..fmt..Formatter$GT$12serialize_i817h2ffd9ed301b03879E
libmozjs128-debug.so:_ZN5serde3ser3fmt85_$LT$impl$u20$serde..ser..Serializer$u20$for$u20$$RF$mut$u20$core..fmt..Formatter$GT$12serialize_u817hc734f5249eed20baE
libmozjs128-debug.so:_ZN5serde3ser3fmt85_$LT$impl$u20$serde..ser..Serializer$u20$for$u20$$RF$mut$u20$core..fmt..Formatter$GT$13serialize_f3217h9790a8c439085c91E
libmozjs128-debug.so:_ZN5serde3ser3fmt85_$LT$impl$u20$serde..ser..Serializer$u20$for$u20$$RF$mut$u20$core..fmt..Formatter$GT$13serialize_f6417h36def365cc7cc2dbE
libmozjs128-debug.so:_ZN5serde3ser3fmt85_$LT$impl$u20$serde..ser..Serializer$u20$for$u20$$RF$mut$u20$core..fmt..Formatter$GT$13serialize_i1617h068104272facbee0E
libmozjs128-debug.so:_ZN5serde3ser3fmt85_$LT$impl$u20$serde..ser..Serializer$u20$for$u20$$RF$mut$u20$core..fmt..Formatter$GT$13serialize_i3217hcd2fb8861a0acc09E
libmozjs128-debug.so:_ZN5serde3ser3fmt85_$LT$impl$u20$serde..ser..Serializer$u20$for$u20$$RF$mut$u20$core..fmt..Formatter$GT$13serialize_i6417hc68cb31c7ef0c468E
libmozjs128-debug.so:_ZN5serde3ser3fmt85_$LT$impl$u20$serde..ser..Serializer$u20$for$u20$$RF$mut$u20$core..fmt..Formatter$GT$13serialize_map17h852686aa7686f5e4E
libmozjs128-debug.so:_ZN5serde3ser3fmt85_$LT$impl$u20$serde..ser..Serializer$u20$for$u20$$RF$mut$u20$core..fmt..Formatter$GT$13serialize_seq17h7e38015fc615c3aeE
libmozjs128-debug.so:_ZN5serde3ser3fmt85_$LT$impl$u20$serde..ser..Serializer$u20$for$u20$$RF$mut$u20$core..fmt..Formatter$GT$13serialize_str17h00d90f0fdd1e774dE
libmozjs128-debug.so:_ZN5serde3ser3fmt85_$LT$impl$u20$serde..ser..Serializer$u20$for$u20$$RF$mut$u20$core..fmt..Formatter$GT$13serialize_u1617hfc17a0b5e4f08b12E
libmozjs128-debug.so:_ZN5serde3ser3fmt85_$LT$impl$u20$serde..ser..Serializer$u20$for$u20$$RF$mut$u20$core..fmt..Formatter$GT$13serialize_u3217h19f99a8394833386E
libmozjs128-debug.so:_ZN5serde3ser3fmt85_$LT$impl$u20$serde..ser..Serializer$u20$for$u20$$RF$mut$u20$core..fmt..Formatter$GT$13serialize_u6417h17acf5ae29b2d7e7E
libmozjs128-debug.so:_ZN5serde3ser3fmt85_$LT$impl$u20$serde..ser..Serializer$u20$for$u20$$RF$mut$u20$core..fmt..Formatter$GT$14serialize_bool17h85f67267bb403fc4E
libmozjs128-debug.so:_ZN5serde3ser3fmt85_$LT$impl$u20$serde..ser..Serializer$u20$for$u20$$RF$mut$u20$core..fmt..Formatter$GT$14serialize_char17he46511aeff1c23daE
libmozjs128-debug.so:_ZN5serde3ser3fmt85_$LT$impl$u20$serde..ser..Serializer$u20$for$u20$$RF$mut$u20$core..fmt..Formatter$GT$14serialize_i12817h97afa5d08fa147e7E
libmozjs128-debug.so:_ZN5serde3ser3fmt85_$LT$impl$u20$serde..ser..Serializer$u20$for$u20$$RF$mut$u20$core..fmt..Formatter$GT$14serialize_none17hba134df51b189729E
libmozjs128-debug.so:_ZN5serde3ser3fmt85_$LT$impl$u20$serde..ser..Serializer$u20$for$u20$$RF$mut$u20$core..fmt..Formatter$GT$14serialize_u12817h28bcbcfbf6922601E
libmozjs128-debug.so:_ZN5serde3ser3fmt85_$LT$impl$u20$serde..ser..Serializer$u20$for$u20$$RF$mut$u20$core..fmt..Formatter$GT$14serialize_unit17hd9f15faa6a5ea3f8E
libmozjs128-debug.so:_ZN5serde3ser3fmt85_$LT$impl$u20$serde..ser..Serializer$u20$for$u20$$RF$mut$u20$core..fmt..Formatter$GT$15serialize_bytes17h4d2fd4b2cb1e586aE
libmozjs128-debug.so:_ZN5serde3ser3fmt85_$LT$impl$u20$serde..ser..Serializer$u20$for$u20$$RF$mut$u20$core..fmt..Formatter$GT$15serialize_tuple17h87b9f0f8d6d7c5e2E
libmozjs128-debug.so:_ZN5serde3ser3fmt85_$LT$impl$u20$serde..ser..Serializer$u20$for$u20$$RF$mut$u20$core..fmt..Formatter$GT$16serialize_struct17hfdb816b40ce2ce24E
libmozjs128-debug.so:_ZN5serde3ser3fmt85_$LT$impl$u20$serde..ser..Serializer$u20$for$u20$$RF$mut$u20$core..fmt..Formatter$GT$21serialize_unit_struct17h105c90fa2fdf9ed9E
libmozjs128-debug.so:_ZN5serde3ser3fmt85_$LT$impl$u20$serde..ser..Serializer$u20$for$u20$$RF$mut$u20$core..fmt..Formatter$GT$22serialize_tuple_struct17h608f54528aaa6c89E
libmozjs128-debug.so:_ZN5serde3ser3fmt85_$LT$impl$u20$serde..ser..Serializer$u20$for$u20$$RF$mut$u20$core..fmt..Formatter$GT$22serialize_unit_variant17h81b42ca8f4bd5f46E
libmozjs128-debug.so:_ZN5serde3ser3fmt85_$LT$impl$u20$serde..ser..Serializer$u20$for$u20$$RF$mut$u20$core..fmt..Formatter$GT$23serialize_tuple_variant17hd6402cab26b61584E
libmozjs128-debug.so:_ZN5serde3ser3fmt85_$LT$impl$u20$serde..ser..Serializer$u20$for$u20$$RF$mut$u20$core..fmt..Formatter$GT$24serialize_struct_variant17he5cba104e0af6e54E
libmozjs128-debug.so:_ZN5serde9__private2de19flat_map_take_entry17h52821dc449fe4e1fE
libmozjs128-debug.so:_ZN5serde9__private2de7content14ContentVisitor3new17h95e44684af63f8e6E
libmozjs128-debug.so:_ZN5serde9__private2de7content19TagOrContentVisitor3new17hb301c682bd66c08fE
libmozjs128-debug.so:_ZN5serde9__private2de7content19UntaggedUnitVisitor3new17h11b772a728653d88E
libmozjs128-debug.so:_ZN5serde9__private2de7content27InternallyTaggedUnitVisitor3new17hc81acf1974a9ba54E
libmozjs128-debug.so:_ZN5serde9__private2de7content7Content10unexpected17hc0bc441a5e5a0c87E
libmozjs128-debug.so:_ZN5serde9__private2de7content7Content6as_str17h1d0921d67e38f9e6E
libmozjs128-debug.so:_ZN5serde9__private6string15from_utf8_lossy17hb6f781c46bab8527E
libmozjs128-debug.so:_ZN60_$LT$encoding_rs..DecoderResult$u20$as$u20$core..cmp..Eq$GT$20assert_fields_are_eq17heb80c5d834549dd6E
libmozjs128-debug.so:_ZN60_$LT$encoding_rs..EncoderResult$u20$as$u20$core..cmp..Eq$GT$20assert_fields_are_eq17h2c678a10233f9dc2E
libmozjs128-debug.so:_ZN60_$LT$serde..de..Unexpected$u20$as$u20$core..fmt..Display$GT$3fmt17h24a144dd5f0f0d78E
libmozjs128-debug.so:_ZN60_$LT$serde..de..value..Error$u20$as$u20$core..fmt..Debug$GT$3fmt17h9401277bf227d8f7E
libmozjs128-debug.so:_ZN62_$LT$encoding_rs..mem..Latin1Bidi$u20$as$u20$core..cmp..Eq$GT$20assert_fields_are_eq17hf0376fbb7214d8f1E
libmozjs128-debug.so:_ZN62_$LT$serde..de..value..Error$u20$as$u20$core..error..Error$GT$11description17h6a2437e8ca7f8b74E
libmozjs128-debug.so:_ZN62_$LT$serde..de..value..Error$u20$as$u20$core..fmt..Display$GT$3fmt17hac650bdd0e9f1d50E
libmozjs128-debug.so:_ZN63_$LT$I$u20$as$u20$core..iter..traits..collect..IntoIterator$GT$9into_iter17h06d00190e254de76E
libmozjs128-debug.so:_ZN63_$LT$I$u20$as$u20$core..iter..traits..collect..IntoIterator$GT$9into_iter17h192e48c04f7e4e96E
libmozjs128-debug.so:_ZN63_$LT$I$u20$as$u20$core..iter..traits..collect..IntoIterator$GT$9into_iter17h5acbf0336066296bE
libmozjs128-debug.so:_ZN63_$LT$I$u20$as$u20$core..iter..traits..collect..IntoIterator$GT$9into_iter17h60ecc74da018f2f0E
libmozjs128-debug.so:_ZN63_$LT$I$u20$as$u20$core..iter..traits..collect..IntoIterator$GT$9into_iter17h68623d5cf2ef8c1dE
libmozjs128-debug.so:_ZN63_$LT$I$u20$as$u20$core..iter..traits..collect..IntoIterator$GT$9into_iter17hd281c3db97a950d4E
libmozjs128-debug.so:_ZN66_$LT$dyn$u20$serde..de..Expected$u20$as$u20$core..fmt..Display$GT$3fmt17h1f4bab45d34749fcE
libmozjs128-debug.so:_ZN66_$LT$serde..de..WithDecimalPoint$u20$as$u20$core..fmt..Display$GT$3fmt17h330749491da5ae85E
libmozjs128-debug.so:_ZN67_$LT$alloc..boxed..Box$LT$T$C$A$GT$$u20$as$u20$core..fmt..Debug$GT$3fmt17h02e4f2eb66cfa047E
libmozjs128-debug.so:_ZN67_$LT$serde..__private..doc..Error$u20$as$u20$core..error..Error$GT$11description17h38286b2fcf0757aaE
libmozjs128-debug.so:_ZN67_$LT$serde..__private..doc..Error$u20$as$u20$core..fmt..Display$GT$3fmt17hccd7349bcc2941f1E
libmozjs128-debug.so:_ZN67_$LT$serde..de..impls..StrVisitor$u20$as$u20$serde..de..Visitor$GT$9expecting17heb498a237a198ea2E
libmozjs128-debug.so:_ZN68_$LT$serde..de..impls..BoolVisitor$u20$as$u20$serde..de..Visitor$GT$9expecting17h23fdd58888b97f51E
libmozjs128-debug.so:_ZN68_$LT$serde..de..impls..CharVisitor$u20$as$u20$serde..de..Visitor$GT$9expecting17h2c996a9949b20b71E
libmozjs128-debug.so:_ZN68_$LT$serde..de..impls..PathVisitor$u20$as$u20$serde..de..Visitor$GT$9expecting17hf3c98a413c62f624E
libmozjs128-debug.so:_ZN68_$LT$serde..de..impls..UnitVisitor$u20$as$u20$serde..de..Visitor$GT$9expecting17hf22a3ede3799cfc0E
libmozjs128-debug.so:_ZN69_$LT$serde..de..impls..BytesVisitor$u20$as$u20$serde..de..Visitor$GT$9expecting17h7a8c6fd0b209988aE
libmozjs128-debug.so:_ZN6JSAtom4dumpERN2js14GenericPrinterE
libmozjs128-debug.so:_ZN6JSAtom4dumpEv
libmozjs128-debug.so:_ZN70_$LT$alloc..vec..Vec$LT$T$C$A$GT$$u20$as$u20$core..ops..drop..Drop$GT$4drop17hf8d80e7898ea1697E
libmozjs128-debug.so:_ZN70_$LT$serde..de..impls..StringVisitor$u20$as$u20$serde..de..Visitor$GT$9expecting17h6d731efef3bfe502E
libmozjs128-debug.so:_ZN71_$LT$serde..de..impls..CStringVisitor$u20$as$u20$serde..de..Visitor$GT$9expecting17h262f4ce301f9d7deE
libmozjs128-debug.so:_ZN71_$LT$serde..de..impls..PathBufVisitor$u20$as$u20$serde..de..Visitor$GT$9expecting17h5c4f40b7ec671550E
libmozjs128-debug.so:_ZN71_$LT$serde..de..value..ExpectedInMap$u20$as$u20$serde..de..Expected$GT$3fmt17h2ea3af5d3434deefE
libmozjs128-debug.so:_ZN71_$LT$serde..de..value..ExpectedInSeq$u20$as$u20$serde..de..Expected$GT$3fmt17h28b4e7fd8b4519b9E
libmozjs128-debug.so:_ZN72_$LT$alloc..boxed..Box$LT$T$C$A$GT$$u20$as$u20$core..ops..drop..Drop$GT$4drop17h24a515c9421048ccE
libmozjs128-debug.so:_ZN72_$LT$alloc..boxed..Box$LT$T$C$A$GT$$u20$as$u20$core..ops..drop..Drop$GT$4drop17h346fb8b78d1aacceE
libmozjs128-debug.so:_ZN72_$LT$alloc..boxed..Box$LT$T$C$A$GT$$u20$as$u20$core..ops..drop..Drop$GT$4drop17h91d3f9bb101c36a5E
libmozjs128-debug.so:_ZN72_$LT$alloc..vec..Vec$LT$T$C$A$GT$$u20$as$u20$core..ops..deref..Deref$GT$5deref17h841aa177f96d60edE
libmozjs128-debug.so:_ZN72_$LT$serde..de..impls..OsStringVisitor$u20$as$u20$serde..de..Visitor$GT$9expecting17h8df8fb264954c336E
libmozjs128-debug.so:_ZN73_$LT$serde..__private..ser..Unsupported$u20$as$u20$core..fmt..Display$GT$3fmt17h96c39be062334767E
libmozjs128-debug.so:_ZN73_$LT$serde..de..ignored_any..IgnoredAny$u20$as$u20$serde..de..Visitor$GT$9expecting17h2345d1f781664e44E
libmozjs128-debug.so:_ZN75_$LT$$RF$mut$u20$W$u20$as$u20$core..fmt..Write..write_fmt..SpecWriteFmt$GT$14spec_write_fmt17h07016e174e16b142E
libmozjs128-debug.so:_ZN75_$LT$usize$u20$as$u20$core..slice..index..SliceIndex$LT$$u5b$T$u5d$$GT$$GT$13get_unchecked17hb9f3b0e78eebeedfE
libmozjs128-debug.so:_ZN75_$LT$usize$u20$as$u20$core..slice..index..SliceIndex$LT$$u5b$T$u5d$$GT$$GT$13get_unchecked17hbdf602acad701313E
libmozjs128-debug.so:_ZN75_$LT$usize$u20$as$u20$core..slice..index..SliceIndex$LT$$u5b$T$u5d$$GT$$GT$17get_unchecked_mut17h0bb9bb70a831abb0E
libmozjs128-debug.so:_ZN75_$LT$usize$u20$as$u20$core..slice..index..SliceIndex$LT$$u5b$T$u5d$$GT$$GT$17get_unchecked_mut17hdf2eec36ed8c0e4cE
libmozjs128-debug.so:_ZN77_$LT$alloc..raw_vec..RawVec$LT$T$C$A$GT$$u20$as$u20$core..ops..drop..Drop$GT$4drop17h49f0768e43bc1937E
libmozjs128-debug.so:_ZN77_$LT$serde..de..impls..StringInPlaceVisitor$u20$as$u20$serde..de..Visitor$GT$9expecting17hd8543425afa50896E
libmozjs128-debug.so:_ZN7mozilla11Compression26LZ4FrameCompressionContext14EndCompressingEv
libmozjs128-debug.so:_ZN7mozilla11Compression26LZ4FrameCompressionContext16BeginCompressingENS_4SpanIcLm18446744073709551615EEE
libmozjs128-debug.so:_ZN7mozilla11Compression26LZ4FrameCompressionContext19ContinueCompressingENS_4SpanIKcLm18446744073709551615EEE
libmozjs128-debug.so:_ZN7mozilla11Compression26LZ4FrameCompressionContextC1Eimbb
libmozjs128-debug.so:_ZN7mozilla11Compression26LZ4FrameCompressionContextC2Eimbb
libmozjs128-debug.so:_ZN7mozilla11Compression26LZ4FrameCompressionContextD1Ev
libmozjs128-debug.so:_ZN7mozilla11Compression26LZ4FrameCompressionContextD2Ev
libmozjs128-debug.so:_ZN7mozilla11Compression28LZ4FrameDecompressionContext10DecompressENS_4SpanIcLm18446744073709551615EEENS2_IKcLm18446744073709551615EEE
libmozjs128-debug.so:_ZN7mozilla11Compression28LZ4FrameDecompressionContextC1Eb
libmozjs128-debug.so:_ZN7mozilla11Compression28LZ4FrameDecompressionContextC2Eb
libmozjs128-debug.so:_ZN7mozilla11Compression28LZ4FrameDecompressionContextD1Ev
libmozjs128-debug.so:_ZN7mozilla11Compression28LZ4FrameDecompressionContextD2Ev
libmozjs128-debug.so:_ZN7mozilla11Compression3LZ410decompressEPKcmPcmPm
libmozjs128-debug.so:_ZN7mozilla11Compression3LZ417decompressPartialEPKcmPcmPm
libmozjs128-debug.so:_ZN7mozilla11Compression3LZ421compressLimitedOutputEPKcmPcm
libmozjs128-debug.so:_ZN7mozilla11Compression3LZ48compressEPKcmPc
libmozjs128-debug.so:_ZN7mozilla11sse_private11aes_enabledE
libmozjs128-debug.so:_ZN7mozilla11sse_private11avx_enabledE
libmozjs128-debug.so:_ZN7mozilla11sse_private12avx2_enabledE
libmozjs128-debug.so:_ZN7mozilla11sse_private12fma3_enabledE
libmozjs128-debug.so:_ZN7mozilla11sse_private12sse3_enabledE
libmozjs128-debug.so:_ZN7mozilla11sse_private13sse4a_enabledE
libmozjs128-debug.so:_ZN7mozilla11sse_private13ssse3_enabledE
libmozjs128-debug.so:_ZN7mozilla11sse_private14sse4_1_enabledE
libmozjs128-debug.so:_ZN7mozilla11sse_private14sse4_2_enabledE
libmozjs128-debug.so:_ZN7mozilla11sse_private15avxvnni_enabledE
libmozjs128-debug.so:_ZN7mozilla11sse_private16has_constant_tscE
libmozjs128-debug.so:_ZN7mozilla12PrintfTarget12appendIntDecEi
libmozjs128-debug.so:_ZN7mozilla12PrintfTarget12appendIntDecEj
libmozjs128-debug.so:_ZN7mozilla12PrintfTarget12appendIntDecEl
libmozjs128-debug.so:_ZN7mozilla12PrintfTarget12appendIntDecEm
libmozjs128-debug.so:_ZN7mozilla12PrintfTarget12appendIntHexEj
libmozjs128-debug.so:_ZN7mozilla12PrintfTarget12appendIntHexEm
libmozjs128-debug.so:_ZN7mozilla12PrintfTarget12appendIntOctEj
libmozjs128-debug.so:_ZN7mozilla12PrintfTarget12appendIntOctEm
libmozjs128-debug.so:_ZN7mozilla12PrintfTarget5printEPKcz
libmozjs128-debug.so:_ZN7mozilla12PrintfTarget6vprintEPKcP13__va_list_tag
libmozjs128-debug.so:_ZN7mozilla12PrintfTargetC1Ev
libmozjs128-debug.so:_ZN7mozilla12PrintfTargetC2Ev
libmozjs128-debug.so:_ZN7mozilla12RandomUint64Ev
libmozjs128-debug.so:_ZN7mozilla12baseprofiler23profiler_is_main_threadEv
libmozjs128-debug.so:_ZN7mozilla12baseprofiler23profiler_main_thread_idEv
libmozjs128-debug.so:_ZN7mozilla12baseprofiler26profiler_current_thread_idEv
libmozjs128-debug.so:_ZN7mozilla12baseprofiler27profiler_current_process_idEv
libmozjs128-debug.so:_ZN7mozilla12baseprofiler28profiler_init_main_thread_idEv
libmozjs128-debug.so:_ZN7mozilla14AwakeTimeStamp8NowLoResEv
libmozjs128-debug.so:_ZN7mozilla14AwakeTimeStampmIERKNS_17AwakeTimeDurationE
libmozjs128-debug.so:_ZN7mozilla14AwakeTimeStamppLERKNS_17AwakeTimeDurationE
libmozjs128-debug.so:_ZN7mozilla14DemangleSymbolEPKcPci
libmozjs128-debug.so:_ZN7mozilla15ProcessUptimeMsEv
libmozjs128-debug.so:_ZN7mozilla16InitializeUptimeEv
libmozjs128-debug.so:_ZN7mozilla17RandomUint64OrDieEv
libmozjs128-debug.so:_ZN7mozilla21FramePointerStackWalkEPFvjPvS0_S0_EjS0_PS0_S0_
libmozjs128-debug.so:_ZN7mozilla22IsFloat32RepresentableEd
libmozjs128-debug.so:_ZN7mozilla25GenerateRandomBytesFromOSEPvm
libmozjs128-debug.so:_ZN7mozilla29BaseTimeDurationPlatformUtils17ResolutionInTicksEv
libmozjs128-debug.so:_ZN7mozilla29BaseTimeDurationPlatformUtils18ToSecondsSigDigitsEl
libmozjs128-debug.so:_ZN7mozilla29BaseTimeDurationPlatformUtils21TicksFromMillisecondsEd
libmozjs128-debug.so:_ZN7mozilla29BaseTimeDurationPlatformUtils9ToSecondsEl
libmozjs128-debug.so:_ZN7mozilla30RegisterProfilerLabelEnterExitEPFPvPKcS2_S0_EPFvS0_E
libmozjs128-debug.so:_ZN7mozilla31ProcessUptimeExcludingSuspendMsEv
libmozjs128-debug.so:_ZN7mozilla4SIMD10memchr2x16EPKDsDsDsm
libmozjs128-debug.so:_ZN7mozilla4SIMD11memchr8AVX2EPKccm
libmozjs128-debug.so:_ZN7mozilla4SIMD11memchr8SSE2EPKccm
libmozjs128-debug.so:_ZN7mozilla4SIMD12memchr16AVX2EPKDsDsm
libmozjs128-debug.so:_ZN7mozilla4SIMD12memchr16SSE2EPKDsDsm
libmozjs128-debug.so:_ZN7mozilla4SIMD12memchr64AVX2EPKmmm
libmozjs128-debug.so:_ZN7mozilla4SIMD7memchr8EPKccm
libmozjs128-debug.so:_ZN7mozilla4SIMD8memchr16EPKDsDsm
libmozjs128-debug.so:_ZN7mozilla4SIMD8memchr64EPKmmm
libmozjs128-debug.so:_ZN7mozilla4SIMD9memchr2x8EPKcccm
libmozjs128-debug.so:_ZN7mozilla6UnusedE
libmozjs128-debug.so:_ZN7mozilla6detail10RWLockImpl10readUnlockEv
libmozjs128-debug.so:_ZN7mozilla6detail10RWLockImpl11tryReadLockEv
libmozjs128-debug.so:_ZN7mozilla6detail10RWLockImpl11writeUnlockEv
libmozjs128-debug.so:_ZN7mozilla6detail10RWLockImpl12tryWriteLockEv
libmozjs128-debug.so:_ZN7mozilla6detail10RWLockImpl8readLockEv
libmozjs128-debug.so:_ZN7mozilla6detail10RWLockImpl9writeLockEv
libmozjs128-debug.so:_ZN7mozilla6detail10RWLockImplC1Ev
libmozjs128-debug.so:_ZN7mozilla6detail10RWLockImplC2Ev
libmozjs128-debug.so:_ZN7mozilla6detail10RWLockImplD1Ev
libmozjs128-debug.so:_ZN7mozilla6detail10RWLockImplD2Ev
libmozjs128-debug.so:_ZN7mozilla6detail11IsValidUtf8EPKvm
libmozjs128-debug.so:_ZN7mozilla6detail14gChaosFeaturesE
libmozjs128-debug.so:_ZN7mozilla6detail15gTwoCharEscapesE
libmozjs128-debug.so:_ZN7mozilla6detail17FileHandleDeleterclENS0_16FileHandleHelperE
libmozjs128-debug.so:_ZN7mozilla6detail17gChaosModeCounterE
libmozjs128-debug.so:_ZN7mozilla6detail21ConditionVariableImpl10notify_allEv
libmozjs128-debug.so:_ZN7mozilla6detail21ConditionVariableImpl10notify_oneEv
libmozjs128-debug.so:_ZN7mozilla6detail21ConditionVariableImpl4waitERNS0_9MutexImplE
libmozjs128-debug.so:_ZN7mozilla6detail21ConditionVariableImpl8wait_forERNS0_9MutexImplERKNS_16BaseTimeDurationINS_27TimeDurationValueCalculatorEEE
libmozjs128-debug.so:_ZN7mozilla6detail21ConditionVariableImplC1Ev
libmozjs128-debug.so:_ZN7mozilla6detail21ConditionVariableImplC2Ev
libmozjs128-debug.so:_ZN7mozilla6detail21ConditionVariableImplD1Ev
libmozjs128-debug.so:_ZN7mozilla6detail21ConditionVariableImplD2Ev
libmozjs128-debug.so:_ZN7mozilla6detail23InvalidArrayIndex_CRASHEmm
libmozjs128-debug.so:_ZN7mozilla6detail9MutexImpl4lockEv
libmozjs128-debug.so:_ZN7mozilla6detail9MutexImpl6unlockEv
libmozjs128-debug.so:_ZN7mozilla6detail9MutexImpl7tryLockEv
libmozjs128-debug.so:_ZN7mozilla6detail9MutexImplC1Ev
libmozjs128-debug.so:_ZN7mozilla6detail9MutexImplC2Ev
libmozjs128-debug.so:_ZN7mozilla6detail9MutexImplD1Ev
libmozjs128-debug.so:_ZN7mozilla6detail9MutexImplD2Ev
libmozjs128-debug.so:_ZN7mozilla6xgetbvEj
libmozjs128-debug.so:_ZN7mozilla7SHA1Sum6finishERA20_h
libmozjs128-debug.so:_ZN7mozilla7SHA1Sum6updateEPKvj
libmozjs128-debug.so:_ZN7mozilla7SHA1SumC1Ev
libmozjs128-debug.so:_ZN7mozilla7SHA1SumC2Ev
libmozjs128-debug.so:_ZN7mozilla8profiler6detail12FilterHasPidEPKcNS_12baseprofiler21BaseProfilerProcessIdE
libmozjs128-debug.so:_ZN7mozilla8profiler6detail17FiltersExcludePidENS_4SpanIKPKcLm18446744073709551615EEENS_12baseprofiler21BaseProfilerProcessIdE
libmozjs128-debug.so:_ZN7mozilla9HashBytesEPKvm
libmozjs128-debug.so:_ZN7mozilla9TimeStamp14FirstTimeStampEv
libmozjs128-debug.so:_ZN7mozilla9TimeStamp15ProcessCreationEv
libmozjs128-debug.so:_ZN7mozilla9TimeStamp20ComputeProcessUptimeEv
libmozjs128-debug.so:_ZN7mozilla9TimeStamp20RecordProcessRestartEv
libmozjs128-debug.so:_ZN7mozilla9TimeStamp3NowEb
libmozjs128-debug.so:_ZN7mozilla9TimeStamp7StartupEv
libmozjs128-debug.so:_ZN7mozilla9TimeStamp8ShutdownEv
libmozjs128-debug.so:_ZN84_$LT$alloc..vec..Vec$LT$T$C$A$GT$$u20$as$u20$core..ops..index..IndexMut$LT$I$GT$$GT$9index_mut17h5a541c3b985b94b7E
libmozjs128-debug.so:_ZN84_$LT$alloc..vec..Vec$LT$T$C$A$GT$$u20$as$u20$core..ops..index..IndexMut$LT$I$GT$$GT$9index_mut17h80235f4d3ec70cc7E
libmozjs128-debug.so:_ZN84_$LT$serde..__private..de..content..ContentVisitor$u20$as$u20$serde..de..Visitor$GT$9expecting17h1df6e898ea3c8498E
libmozjs128-debug.so:_ZN89_$LT$core..ops..range..Range$LT$T$GT$$u20$as$u20$core..iter..range..RangeIteratorImpl$GT$14spec_next_back17h87f339a68a2f914bE
libmozjs128-debug.so:_ZN89_$LT$core..ops..range..Range$LT$T$GT$$u20$as$u20$core..iter..range..RangeIteratorImpl$GT$9spec_next17hf353a2cf96966a01E
libmozjs128-debug.so:_ZN89_$LT$serde..__private..de..content..TagOrContentVisitor$u20$as$u20$serde..de..Visitor$GT$9expecting17h2e634417877a9c2eE
libmozjs128-debug.so:_ZN89_$LT$serde..__private..de..content..UntaggedUnitVisitor$u20$as$u20$serde..de..Visitor$GT$9expecting17haa02b41dff229ac7E
libmozjs128-debug.so:_ZN8JSObject13traceChildrenEP8JSTracer
libmozjs128-debug.so:_ZN8JSObject17setProtoUncheckedEP9JSContextN2JS6HandleIPS_EENS3_IN2js11TaggedProtoEEE
libmozjs128-debug.so:_ZN8JSObject19debugCheckNewObjectEPN2js5ShapeENS0_2gc9AllocKindENS3_4HeapE
libmozjs128-debug.so:_ZN8JSObject19nonNativeSetElementEP9JSContextN2JS6HandleIPS_EEjNS3_INS2_5ValueEEES7_RNS2_14ObjectOpResultE
libmozjs128-debug.so:_ZN8JSObject20nonNativeSetPropertyEP9JSContextN2JS6HandleIPS_EENS3_INS2_11PropertyKeyEEENS3_INS2_5ValueEEES9_RNS2_14ObjectOpResultE
libmozjs128-debug.so:_ZN8JSObject22addSizeOfExcludingThisEPFmPKvEPN2JS9ClassInfoEPNS4_12RuntimeSizesE
libmozjs128-debug.so:_ZN8JSObject4swapEP9JSContextN2JS6HandleIPS_EES5_RN2js24AutoEnterOOMUnsafeRegionE
libmozjs128-debug.so:_ZN8JSObject7setFlagEP9JSContextN2JS6HandleIPS_EEN2js10ObjectFlagE
libmozjs128-debug.so:_ZN8JSScript10sourceDataEP9JSContextN2JS6HandleIPS_EE
libmozjs128-debug.so:_ZN8JSScript11fromStencilEP9JSContextRN2js8frontend20CompilationAtomCacheERKNS3_18CompilationStencilERNS3_19CompilationGCOutputENS3_10TypedIndexINS3_13ScriptStencilEEE
libmozjs128-debug.so:_ZN8JSScript11getHitCountEPh
libmozjs128-debug.so:_ZN8JSScript12AutoDelazify10dropScriptEv
libmozjs128-debug.so:_ZN8JSScript12AutoDelazify10holdScriptEN2JS6HandleIP10JSFunctionEE
libmozjs128-debug.so:_ZN8JSScript12addIonCountsEPN2js3jit15IonScriptCountsE
libmozjs128-debug.so:_ZN8JSScript12dumpGCThingsEP9JSContextN2JS6HandleIPS_EEPN2js14GenericPrinterE
libmozjs128-debug.so:_ZN8JSScript12dumpSrcNotesEP9JSContextN2JS6HandleIPS_EEPN2js14GenericPrinterE
libmozjs128-debug.so:_ZN8JSScript12dumpTryNotesEP9JSContextN2JS6HandleIPS_EEPN2js14GenericPrinterE
libmozjs128-debug.so:_ZN8JSScript12getIonCountsEv
libmozjs128-debug.so:_ZN8JSScript13dumpRecursiveEP9JSContext
libmozjs128-debug.so:_ZN8JSScript14dumpScopeNotesEP9JSContextN2JS6HandleIPS_EEPN2js14GenericPrinterE
libmozjs128-debug.so:_ZN8JSScript14getThrowCountsEPh
libmozjs128-debug.so:_ZN8JSScript15createJitScriptEP9JSContext
libmozjs128-debug.so:_ZN8JSScript15formalIsAliasedEj
libmozjs128-debug.so:_ZN8JSScript15getScriptCountsEv
libmozjs128-debug.so:_ZN8JSScript16initScriptCountsEP9JSContext
libmozjs128-debug.so:_ZN8JSScript16maybeGetPCCountsEPh
libmozjs128-debug.so:_ZN8JSScript16releaseJitScriptEPN2JS9GCContextE
libmozjs128-debug.so:_ZN8JSScript16updateJitCodeRawEP9JSRuntime
libmozjs128-debug.so:_ZN8JSScript17resetScriptCountsEv
libmozjs128-debug.so:_ZN8JSScript18calculateLiveFixedEPh
libmozjs128-debug.so:_ZN8JSScript19destroyScriptCountsEv
libmozjs128-debug.so:_ZN8JSScript19maybeGetThrowCountsEPh
libmozjs128-debug.so:_ZN8JSScript19releaseScriptCountsEPN2js12ScriptCountsE
libmozjs128-debug.so:_ZN8JSScript20anyFormalIsForwardedEv
libmozjs128-debug.so:_ZN8JSScript20fullyInitFromStencilEP9JSContextRKN2js8frontend20CompilationAtomCacheERKNS3_18CompilationStencilERNS3_19CompilationGCOutputEN2JS6HandleIPS_EENS3_10TypedIndexINS3_13ScriptStencilEEE
libmozjs128-debug.so:_ZN8JSScript21maybeReleaseJitScriptEPN2JS9GCContextE
libmozjs128-debug.so:_ZN8JSScript23createPrivateScriptDataEP9JSContextN2JS6HandleIPS_EEj
libmozjs128-debug.so:_ZN8JSScript24mayReadFrameArgsDirectlyEv
libmozjs128-debug.so:_ZN8JSScript26releaseJitScriptOnFinalizeEPN2JS9GCContextE
libmozjs128-debug.so:_ZN8JSScript28formalLivesInArgumentsObjectEj
libmozjs128-debug.so:_ZN8JSScript39resetWarmUpCounterToDelayIonCompilationEv
libmozjs128-debug.so:_ZN8JSScript4dumpEP9JSContext
libmozjs128-debug.so:_ZN8JSScript4dumpEP9JSContextN2JS6HandleIPS_EERNS_11DumpOptionsEPN2js13StringPrinterE
libmozjs128-debug.so:_ZN8JSScript6CreateEP9JSContextN2JS6HandleIP10JSFunctionEENS3_IPN2js18ScriptSourceObjectEEERKNS7_12SourceExtentENS7_20ImmutableScriptFlagsE
libmozjs128-debug.so:_ZN8JSScript8hasLoopsEv
libmozjs128-debug.so:_ZN8JSScript8relazifyEP9JSRuntime
libmozjs128-debug.so:_ZN8JSString19sizeOfExcludingThisEPFmPKvE
libmozjs128-debug.so:_ZN8JSString21tryReplaceWithAtomRefEP6JSAtom
libmozjs128-debug.so:_ZN8JSString23fillWithRepresentativesEP9JSContextN2JS6HandleIPN2js11ArrayObjectEEE
libmozjs128-debug.so:_ZN8JSString6equalsEPKc
libmozjs128-debug.so:_ZN90_$LT$core..ops..control_flow..ControlFlow$LT$B$C$C$GT$$u20$as$u20$core..cmp..PartialEq$GT$2eq17had97ee8125f3a941E
libmozjs128-debug.so:_ZN90_$LT$serde..__private..de..borrow_cow_str..CowStrVisitor$u20$as$u20$serde..de..Visitor$GT$9expecting17hebe29728e63d9c40E
libmozjs128-debug.so:_ZN91_$LT$core..slice..iter..Iter$LT$T$GT$$u20$as$u20$core..iter..traits..iterator..Iterator$GT$24__iterator_get_unchecked17h76f7b18e4c0a8c9dE
libmozjs128-debug.so:_ZN91_$LT$core..slice..iter..Iter$LT$T$GT$$u20$as$u20$core..iter..traits..iterator..Iterator$GT$24__iterator_get_unchecked17hd29287fc8673d894E
libmozjs128-debug.so:_ZN91_$LT$core..slice..iter..Iter$LT$T$GT$$u20$as$u20$core..iter..traits..iterator..Iterator$GT$3any17h1ef683bca3b97e7fE
libmozjs128-debug.so:_ZN91_$LT$core..slice..iter..Iter$LT$T$GT$$u20$as$u20$core..iter..traits..iterator..Iterator$GT$4next17h65fc494bb7d497b1E
libmozjs128-debug.so:_ZN91_$LT$core..slice..iter..Iter$LT$T$GT$$u20$as$u20$core..iter..traits..iterator..Iterator$GT$4next17h913d68c1ad7bde20E
libmozjs128-debug.so:_ZN91_$LT$core..slice..iter..Iter$LT$T$GT$$u20$as$u20$core..iter..traits..iterator..Iterator$GT$4next17hd29933e6a91b7020E
libmozjs128-debug.so:_ZN91_$LT$core..slice..iter..Iter$LT$T$GT$$u20$as$u20$core..iter..traits..iterator..Iterator$GT$4next17hd80553dea5e8e8edE
libmozjs128-debug.so:_ZN91_$LT$core..slice..iter..Iter$LT$T$GT$$u20$as$u20$core..iter..traits..iterator..Iterator$GT$8position17h3c24abc76bb4dad3E
libmozjs128-debug.so:_ZN91_$LT$core..slice..iter..Iter$LT$T$GT$$u20$as$u20$core..iter..traits..iterator..Iterator$GT$9size_hint17h760ab96cb6eea413E
libmozjs128-debug.so:_ZN91_$LT$core..slice..iter..Iter$LT$T$GT$$u20$as$u20$core..iter..traits..iterator..Iterator$GT$9size_hint17hae757982fd0cb7b6E
libmozjs128-debug.so:_ZN94_$LT$core..slice..iter..IterMut$LT$T$GT$$u20$as$u20$core..iter..traits..iterator..Iterator$GT$24__iterator_get_unchecked17h4f88722cb20beb95E
libmozjs128-debug.so:_ZN94_$LT$core..slice..iter..IterMut$LT$T$GT$$u20$as$u20$core..iter..traits..iterator..Iterator$GT$4next17hd01a9c6a46f04029E
libmozjs128-debug.so:_ZN94_$LT$core..slice..iter..IterMut$LT$T$GT$$u20$as$u20$core..iter..traits..iterator..Iterator$GT$9size_hint17hcbcca64461f8e086E
libmozjs128-debug.so:_ZN94_$LT$core..slice..iter..Windows$LT$T$GT$$u20$as$u20$core..iter..traits..iterator..Iterator$GT$4next17hb0cf52bde3a6aa43E
libmozjs128-debug.so:_ZN94_$LT$serde..__private..de..borrow_cow_bytes..CowBytesVisitor$u20$as$u20$serde..de..Visitor$GT$9expecting17h3c50db278eca4db9E
libmozjs128-debug.so:_ZN94_$LT$serde..__private..de..content..TagOrContentFieldVisitor$u20$as$u20$serde..de..Visitor$GT$9expecting17h5793fe46947b85d7E
libmozjs128-debug.so:_ZN95_$LT$core..ops..control_flow..ControlFlow$LT$B$C$C$GT$$u20$as$u20$core..ops..try_trait..Try$GT$11from_output17h1c35d14c2dfd2fb7E
libmozjs128-debug.so:_ZN95_$LT$core..ops..control_flow..ControlFlow$LT$B$C$C$GT$$u20$as$u20$core..ops..try_trait..Try$GT$11from_output17hba8c922de17f6b7eE
libmozjs128-debug.so:_ZN95_$LT$core..ops..control_flow..ControlFlow$LT$B$C$C$GT$$u20$as$u20$core..ops..try_trait..Try$GT$11from_output17hcd054fd386ba96bbE
libmozjs128-debug.so:_ZN95_$LT$core..ops..control_flow..ControlFlow$LT$B$C$C$GT$$u20$as$u20$core..ops..try_trait..Try$GT$6branch17h4688ec3e79f32144E
libmozjs128-debug.so:_ZN95_$LT$core..ops..control_flow..ControlFlow$LT$B$C$C$GT$$u20$as$u20$core..ops..try_trait..Try$GT$6branch17h8a577b9a57968ffdE
libmozjs128-debug.so:_ZN95_$LT$core..ops..control_flow..ControlFlow$LT$B$C$C$GT$$u20$as$u20$core..ops..try_trait..Try$GT$6branch17hfb8eb3471cd84651E
libmozjs128-debug.so:_ZN96_$LT$core..hint..select_unpredictable..DropOnPanic$LT$T$GT$$u20$as$u20$core..ops..drop..Drop$GT$4drop17hc92ff04a7f1c17e2E
libmozjs128-debug.so:_ZN97_$LT$core..ops..range..RangeFull$u20$as$u20$core..slice..index..SliceIndex$LT$$u5b$T$u5d$$GT$$GT$5index17h1379184a6560c1e8E
libmozjs128-debug.so:_ZN97_$LT$core..ops..range..RangeFull$u20$as$u20$core..slice..index..SliceIndex$LT$$u5b$T$u5d$$GT$$GT$5index17h2eb0a39e892f01c1E
libmozjs128-debug.so:_ZN97_$LT$serde..__private..de..content..InternallyTaggedUnitVisitor$u20$as$u20$serde..de..Visitor$GT$9expecting17h11f015b574d8164eE
libmozjs128-debug.so:_ZN97_$LT$serde..__private..de..content..TagContentOtherFieldVisitor$u20$as$u20$serde..de..Visitor$GT$9expecting17h445077c70e4dea75E
libmozjs128-debug.so:_ZN98_$LT$core..iter..adapters..rev..Rev$LT$I$GT$$u20$as$u20$core..iter..traits..iterator..Iterator$GT$4next17h75789d2f8cf34acaE
libmozjs128-debug.so:_ZN98_$LT$core..iter..adapters..rev..Rev$LT$I$GT$$u20$as$u20$core..iter..traits..iterator..Iterator$GT$8try_fold17h8bf6d203030d50c7E
libmozjs128-debug.so:_ZN9JSContext10setRuntimeEP9JSRuntime
libmozjs128-debug.so:_ZN9JSContext13currentScriptEPPhNS_15AllowCrossRealmE
libmozjs128-debug.so:_ZN9JSContext13onOutOfMemoryEv
libmozjs128-debug.so:_ZN9JSContext14onOverRecursedEv
libmozjs128-debug.so:_ZN9JSContext15handleInterruptEv
libmozjs128-debug.so:_ZN9JSContext16requestInterruptEN2js15InterruptReasonE
libmozjs128-debug.so:_ZN9JSContext17initJitStackLimitEv
libmozjs128-debug.so:_ZN9JSContext18alreadyReportedOOMEv
libmozjs128-debug.so:_ZN9JSContext18isClosingGeneratorEv
libmozjs128-debug.so:_ZN9JSContext18resetJitStackLimitEv
libmozjs128-debug.so:_ZN9JSContext19getPendingExceptionEN2JS13MutableHandleINS0_5ValueEEE
libmozjs128-debug.so:_ZN9JSContext19setPendingExceptionEN2JS6HandleINS0_5ValueEEEN2js18ShouldCaptureStackE
libmozjs128-debug.so:_ZN9JSContext19setPendingExceptionEN2JS6HandleINS0_5ValueEEENS1_IPN2js10SavedFrameEEE
libmozjs128-debug.so:_ZN9JSContext20alreadyReportedErrorEv
libmozjs128-debug.so:_ZN9JSContext20stackLimitForJitCodeEN2JS9StackKindE
libmozjs128-debug.so:_ZN9JSContext21clearPendingInterruptEN2js15InterruptReasonE
libmozjs128-debug.so:_ZN9JSContext22recoverFromOutOfMemoryEv
libmozjs128-debug.so:_ZN9JSContext23isRuntimeCodeGenEnabledEN2JS11RuntimeCodeENS0_6HandleIP8JSStringEE
libmozjs128-debug.so:_ZN9JSContext24getPendingExceptionStackEN2JS13MutableHandleINS0_5ValueEEE
libmozjs128-debug.so:_ZN9JSContext24getPendingExceptionStackEv
libmozjs128-debug.so:_ZN9JSContext24reportAllocationOverflowEv
libmozjs128-debug.so:_ZN9JSContext26isThrowingDebuggeeWouldRunEv
libmozjs128-debug.so:_ZN9JSContext28getPendingExceptionUnwrappedEv
libmozjs128-debug.so:_ZN9JSContext28stackKindForCurrentPrincipalEv
libmozjs128-debug.so:_ZN9JSContext29stackLimitForCurrentPrincipalEv
libmozjs128-debug.so:_ZN9JSContext4initEv
libmozjs128-debug.so:_ZN9JSContext5traceEP8JSTracer
libmozjs128-debug.so:_ZN9JSContextC1EP9JSRuntimeRKN2JS14ContextOptionsE
libmozjs128-debug.so:_ZN9JSContextC2EP9JSRuntimeRKN2JS14ContextOptionsE
libmozjs128-debug.so:_ZN9JSContextD1Ev
libmozjs128-debug.so:_ZN9JSContextD2Ev
libmozjs128-debug.so:_ZN9JSRuntime11finishAtomsEv
libmozjs128-debug.so:_ZN9JSRuntime12addTelemetryE8JSMetricj
libmozjs128-debug.so:_ZN9JSRuntime13onOutOfMemoryEN2js13AllocFunctionEmmPvP9JSContext
libmozjs128-debug.so:_ZN9JSRuntime13setUseCounterEP8JSObject12JSUseCounter
libmozjs128-debug.so:_ZN9JSRuntime14destroyRuntimeEv
libmozjs128-debug.so:_ZN9JSRuntime14randomHashCodeEv
libmozjs128-debug.so:_ZN9JSRuntime15initializeAtomsEP9JSContext
libmozjs128-debug.so:_ZN9JSRuntime16createJitRuntimeEP9JSContext
libmozjs128-debug.so:_ZN9JSRuntime16getDefaultLocaleEv
libmozjs128-debug.so:_ZN9JSRuntime16setDefaultLocaleEPKc
libmozjs128-debug.so:_ZN9JSRuntime17enqueuePromiseJobEP9JSContextN2JS6HandleIP10JSFunctionEENS3_IP8JSObjectEENS3_IPN2js12GlobalObjectEEE
libmozjs128-debug.so:_ZN9JSRuntime17finishSelfHostingEv
libmozjs128-debug.so:_ZN9JSRuntime17liveRuntimesCountE
libmozjs128-debug.so:_ZN9JSRuntime18getIncumbentGlobalEP9JSContext
libmozjs128-debug.so:_ZN9JSRuntime18getSelfHostedValueEP9JSContextN2JS6HandleIPN2js12PropertyNameEEENS2_13MutableHandleINS2_5ValueEEE
libmozjs128-debug.so:_ZN9JSRuntime18onOutOfMemoryCanGCEN2js13AllocFunctionEmmPv
libmozjs128-debug.so:_ZN9JSRuntime18randomKeyGeneratorEv
libmozjs128-debug.so:_ZN9JSRuntime18resetDefaultLocaleEv
libmozjs128-debug.so:_ZN9JSRuntime19activeGCInAtomsZoneEv
libmozjs128-debug.so:_ZN9JSRuntime20setTelemetryCallbackEPS_PFv8JSMetricjE
libmozjs128-debug.so:_ZN9JSRuntime20tracePersistentRootsEP8JSTracer
libmozjs128-debug.so:_ZN9JSRuntime21finishPersistentRootsEv
libmozjs128-debug.so:_ZN9JSRuntime21scriptDataTableHolderEv
libmozjs128-debug.so:_ZN9JSRuntime21setSelfHostingStencilEN2JS13MutableHandleIN7mozilla9UniquePtrIN2js8frontend16CompilationInputENS0_12DeletePolicyIS6_EEEEEEO6RefPtrINS5_18CompilationStencilEE
libmozjs128-debug.so:_ZN9JSRuntime21setUseCounterCallbackEPS_PFvP8JSObject12JSUseCounterE
libmozjs128-debug.so:_ZN9JSRuntime22addSizeOfIncludingThisEPFmPKvEPN2JS12RuntimeSizesE
libmozjs128-debug.so:_ZN9JSRuntime22forkRandomKeyGeneratorEv
libmozjs128-debug.so:_ZN9JSRuntime22initSelfHostingStencilEP9JSContextN7mozilla4SpanIKhLm18446744073709551615EEEPFbS1_S5_E
libmozjs128-debug.so:_ZN9JSRuntime23randomHashCodeScramblerEv
libmozjs128-debug.so:_ZN9JSRuntime23traceSelfHostingStencilEP8JSTracer
libmozjs128-debug.so:_ZN9JSRuntime24stopRecordingAllocationsEv
libmozjs128-debug.so:_ZN9JSRuntime25startRecordingAllocationsEdPFvON2JS20RecordAllocationInfoEE
libmozjs128-debug.so:_ZN9JSRuntime26decrementNumDebuggeeRealmsEv
libmozjs128-debug.so:_ZN9JSRuntime26delazifySelfHostedFunctionEP9JSContextN2JS6HandleIPN2js12PropertyNameEEENS3_IP10JSFunctionEE
libmozjs128-debug.so:_ZN9JSRuntime26incrementNumDebuggeeRealmsEv
libmozjs128-debug.so:_ZN9JSRuntime26initSelfHostingFromStencilEP9JSContext
libmozjs128-debug.so:_ZN9JSRuntime27addUnhandledRejectedPromiseEP9JSContextN2JS6HandleIP8JSObjectEE
libmozjs128-debug.so:_ZN9JSRuntime29getSelfHostedScriptIndexRangeEPN2js12PropertyNameE
libmozjs128-debug.so:_ZN9JSRuntime30removeUnhandledRejectedPromiseEP9JSContextN2JS6HandleIP8JSObjectEE
libmozjs128-debug.so:_ZN9JSRuntime33ensureRealmIsRecordingAllocationsEN2JS6HandleIPN2js12GlobalObjectEEE
libmozjs128-debug.so:_ZN9JSRuntime34getSelfHostedFunctionGeneratorKindEPN2js12PropertyNameE
libmozjs128-debug.so:_ZN9JSRuntime40assertSelfHostedFunctionHasCanonicalNameEN2JS6HandleIPN2js12PropertyNameEEE
libmozjs128-debug.so:_ZN9JSRuntime43decrementNumDebuggeeRealmsObservingCoverageEv
libmozjs128-debug.so:_ZN9JSRuntime43incrementNumDebuggeeRealmsObservingCoverageEv
libmozjs128-debug.so:_ZN9JSRuntime4initEP9JSContextj
libmozjs128-debug.so:_ZN9JSRuntimeC1EPS_
libmozjs128-debug.so:_ZN9JSRuntimeC2EPS_
libmozjs128-debug.so:_ZN9JSRuntimeD1Ev
libmozjs128-debug.so:_ZN9JSRuntimeD2Ev
libmozjs128-debug.so:_ZNK10JSFunction13dumpOwnFieldsERN2js11JSONPrinterE
libmozjs128-debug.so:_ZNK10JSFunction15needsCallObjectEv
libmozjs128-debug.so:_ZNK10JSFunction19isSyntheticFunctionEv
libmozjs128-debug.so:_ZNK10JSFunction20dumpOwnStringContentERN2js14GenericPrinterE
libmozjs128-debug.so:_ZNK10JSFunction25isDerivedClassConstructorEv
libmozjs128-debug.so:_ZNK10JSFunction27needsNamedLambdaEnvironmentEv
libmozjs128-debug.so:_ZNK10JSFunction28needsExtraBodyVarEnvironmentEv
libmozjs128-debug.so:_ZNK10JSFunction29clonedSelfHostedGeneratorKindEv
libmozjs128-debug.so:_ZNK14JSPropertySpec8getValueEP9JSContextN2JS13MutableHandleINS2_5ValueEEE
libmozjs128-debug.so:_ZNK17double_conversion23DoubleToStringConverter11ToPrecisionEdiPNS_13StringBuilderE
libmozjs128-debug.so:_ZNK17double_conversion23DoubleToStringConverter13ToExponentialEdiPNS_13StringBuilderE
libmozjs128-debug.so:_ZNK17double_conversion23DoubleToStringConverter19HandleSpecialValuesEdPNS_13StringBuilderE
libmozjs128-debug.so:_ZNK17double_conversion23DoubleToStringConverter20ToShortestIeeeNumberEdPNS_13StringBuilderENS0_8DtoaModeE
libmozjs128-debug.so:_ZNK17double_conversion23DoubleToStringConverter27CreateDecimalRepresentationEPKciiiPNS_13StringBuilderE
libmozjs128-debug.so:_ZNK17double_conversion23DoubleToStringConverter31CreateExponentialRepresentationEPKciiPNS_13StringBuilderE
libmozjs128-debug.so:_ZNK17double_conversion23DoubleToStringConverter7ToFixedEdiPNS_13StringBuilderE
libmozjs128-debug.so:_ZNK17double_conversion23StringToDoubleConverter13StringToFloatEPKciPi
libmozjs128-debug.so:_ZNK17double_conversion23StringToDoubleConverter13StringToFloatEPKtiPi
libmozjs128-debug.so:_ZNK17double_conversion23StringToDoubleConverter14StringToDoubleEPKciPi
libmozjs128-debug.so:_ZNK17double_conversion23StringToDoubleConverter14StringToDoubleEPKtiPi
libmozjs128-debug.so:_ZNK2JS11Compartment11firstGlobalEv
libmozjs128-debug.so:_ZNK2JS11PropertyKey10dumpFieldsERN2js11JSONPrinterE
libmozjs128-debug.so:_ZNK2JS11PropertyKey13isPrivateNameEv
libmozjs128-debug.so:_ZNK2JS11PropertyKey16dumpPropertyNameERN2js14GenericPrinterE
libmozjs128-debug.so:_ZNK2JS11PropertyKey17dumpStringContentERN2js14GenericPrinterE
libmozjs128-debug.so:_ZNK2JS11PropertyKey17isWellKnownSymbolENS_10SymbolCodeE
libmozjs128-debug.so:_ZNK2JS11PropertyKey4dumpERN2js11JSONPrinterE
libmozjs128-debug.so:_ZNK2JS11PropertyKey4dumpERN2js14GenericPrinterE
libmozjs128-debug.so:_ZNK2JS11PropertyKey4dumpEv
libmozjs128-debug.so:_ZNK2JS12AutoFilename3getEv
libmozjs128-debug.so:_ZNK2JS13GCDescription12lastSliceEndEP9JSContext
libmozjs128-debug.so:_ZNK2JS13GCDescription14lastSliceStartEP9JSContext
libmozjs128-debug.so:_ZNK2JS13GCDescription18formatJSONProfilerEP9JSContext
libmozjs128-debug.so:_ZNK2JS13GCDescription18formatSliceMessageEP9JSContext
libmozjs128-debug.so:_ZNK2JS13GCDescription19sliceToJSONProfilerEP9JSContext
libmozjs128-debug.so:_ZNK2JS13GCDescription20formatSummaryMessageEP9JSContext
libmozjs128-debug.so:_ZNK2JS13GCDescription7endTimeEP9JSContext
libmozjs128-debug.so:_ZNK2JS13GCDescription9startTimeEP9JSContext
libmozjs128-debug.so:_ZNK2JS13GCDescription9toGCEventEP9JSContext
libmozjs128-debug.so:_ZNK2JS15ArrayBufferView10isDetachedEv
libmozjs128-debug.so:_ZNK2JS15ArrayBufferView11isResizableEv
libmozjs128-debug.so:_ZNK2JS17ArrayBufferOrView10isDetachedEv
libmozjs128-debug.so:_ZNK2JS17ArrayBufferOrView11isResizableEv
libmozjs128-debug.so:_ZNK2JS18ProfiledFrameRange4IterdeEv
libmozjs128-debug.so:_ZNK2JS19OwningDecodeOptions19sizeOfExcludingThisEPFmPKvE
libmozjs128-debug.so:_ZNK2JS19ProfiledFrameHandle7realmIDEv
libmozjs128-debug.so:_ZNK2JS19ProfiledFrameHandle9frameKindEv
libmozjs128-debug.so:_ZNK2JS20OwningCompileOptions19sizeOfExcludingThisEPFmPKvE
libmozjs128-debug.so:_ZNK2JS20RealmCreationOptions21getCoopAndCoepEnabledEv
libmozjs128-debug.so:_ZNK2JS20RealmCreationOptions32getSharedMemoryAndAtomicsEnabledEv
libmozjs128-debug.so:_ZNK2JS22ProfilingFrameIterator12extractStackEPNS0_5FrameEjj
libmozjs128-debug.so:_ZNK2JS22ProfilingFrameIterator12stackAddressEv
libmozjs128-debug.so:_ZNK2JS22ProfilingFrameIterator20getCppEntryRegistersEv
libmozjs128-debug.so:_ZNK2JS22ProfilingFrameIterator24getPhysicalFrameAndEntryEPPKN2js3jit18JitcodeGlobalEntryE
libmozjs128-debug.so:_ZNK2JS22ProfilingFrameIterator28getPhysicalFrameWithoutLabelEv
libmozjs128-debug.so:_ZNK2JS22ProfilingFrameIterator6isWasmEv
libmozjs128-debug.so:_ZNK2JS22ProfilingFrameIterator7isJSJitEv
libmozjs128-debug.so:_ZNK2JS3ubi8BackEdge5cloneEv
libmozjs128-debug.so:_ZNK2JS3ubi8ConcreteI8JSObjectE11compartmentEv
libmozjs128-debug.so:_ZNK2JS3ubi8ConcreteI8JSObjectE15allocationStackEv
libmozjs128-debug.so:_ZNK2JS3ubi8ConcreteI8JSObjectE17jsObjectClassNameEv
libmozjs128-debug.so:_ZNK2JS3ubi8ConcreteI8JSObjectE18hasAllocationStackEv
libmozjs128-debug.so:_ZNK2JS3ubi8ConcreteI8JSObjectE4sizeEPFmPKvE
libmozjs128-debug.so:_ZNK2JS3ubi8ConcreteI8JSObjectE5realmEv
libmozjs128-debug.so:_ZNK2JS3ubi8ConcreteI8JSStringE4sizeEPFmPKvE
libmozjs128-debug.so:_ZNK2JS3ubi8ConcreteIN2js10BaseScriptEE14scriptFilenameEv
libmozjs128-debug.so:_ZNK2JS3ubi8ConcreteIN2js10BaseScriptEE4sizeEPFmPKvE
libmozjs128-debug.so:_ZNK2JS3ubi8ConcreteINS0_8RootListEE5edgesEP9JSContextb
libmozjs128-debug.so:_ZNK2JS3ubi8ConcreteINS_6BigIntEE4sizeEPFmPKvE
libmozjs128-debug.so:_ZNK2JS3ubi8ConcreteINS_6SymbolEE4sizeEPFmPKvE
libmozjs128-debug.so:_ZNK2JS3ubi8ConcreteIvE10coarseTypeEv
libmozjs128-debug.so:_ZNK2JS3ubi8ConcreteIvE11compartmentEv
libmozjs128-debug.so:_ZNK2JS3ubi8ConcreteIvE4sizeEPFmPKvE
libmozjs128-debug.so:_ZNK2JS3ubi8ConcreteIvE4zoneEv
libmozjs128-debug.so:_ZNK2JS3ubi8ConcreteIvE5edgesEP9JSContextb
libmozjs128-debug.so:_ZNK2JS3ubi8ConcreteIvE5realmEv
libmozjs128-debug.so:_ZNK2JS3ubi8ConcreteIvE8typeNameEv
libmozjs128-debug.so:_ZNK2JS4Zone19initialMarkingStateEv
libmozjs128-debug.so:_ZNK2JS4Zone8isOnListEv
libmozjs128-debug.so:_ZNK2JS4Zone8nextZoneEv
libmozjs128-debug.so:_ZNK2JS5Realm23collectCoverageForDebugEv
libmozjs128-debug.so:_ZNK2JS5Realm9getLocaleEv
libmozjs128-debug.so:_ZNK2JS5Value10dumpFieldsERN2js11JSONPrinterE
libmozjs128-debug.so:_ZNK2JS5Value17dumpStringContentERN2js14GenericPrinterE
libmozjs128-debug.so:_ZNK2JS5Value22assertTraceKindMatchesEPN2js2gc4CellE
libmozjs128-debug.so:_ZNK2JS5Value4dumpERN2js11JSONPrinterE
libmozjs128-debug.so:_ZNK2JS5Value4dumpERN2js14GenericPrinterE
libmozjs128-debug.so:_ZNK2JS5Value4dumpEv
libmozjs128-debug.so:_ZNK2JS6BigInt10dumpFieldsERN2js11JSONPrinterE
libmozjs128-debug.so:_ZNK2JS6BigInt11dumpLiteralERN2js14GenericPrinterE
libmozjs128-debug.so:_ZNK2JS6BigInt17dumpStringContentERN2js14GenericPrinterE
libmozjs128-debug.so:_ZNK2JS6BigInt19sizeOfExcludingThisEPFmPKvE
libmozjs128-debug.so:_ZNK2JS6BigInt28sizeOfExcludingThisInNurseryEPFmPKvE
libmozjs128-debug.so:_ZNK2JS6BigInt4dumpERN2js11JSONPrinterE
libmozjs128-debug.so:_ZNK2JS6BigInt4dumpERN2js14GenericPrinterE
libmozjs128-debug.so:_ZNK2JS6BigInt4dumpEv
libmozjs128-debug.so:_ZNK2JS6BigInt4hashEv
libmozjs128-debug.so:_ZNK2JS6Symbol10dumpFieldsERN2js11JSONPrinterE
libmozjs128-debug.so:_ZNK2JS6Symbol16dumpPropertyNameERN2js14GenericPrinterE
libmozjs128-debug.so:_ZNK2JS6Symbol17dumpStringContentERN2js14GenericPrinterE
libmozjs128-debug.so:_ZNK2JS6Symbol4dumpERN2js11JSONPrinterE
libmozjs128-debug.so:_ZNK2JS6Symbol4dumpERN2js14GenericPrinterE
libmozjs128-debug.so:_ZNK2JS6Symbol4dumpEv
libmozjs128-debug.so:_ZNK2JS9GCCellPtr13outOfLineKindEv
libmozjs128-debug.so:_ZNK2js11SliceBudget8describeEPcm
libmozjs128-debug.so:_ZNK2js13StringPrinter15checkInvariantsEv
libmozjs128-debug.so:_ZNK2js13StringPrinter6lengthEv
libmozjs128-debug.so:_ZNK2js15TempAllocPolicy19reportAllocOverflowEv
libmozjs128-debug.so:_ZNK2js16BaseProxyHandler10isCallableEP8JSObject
libmozjs128-debug.so:_ZNK2js16BaseProxyHandler10nativeCallEP9JSContextPFbN2JS6HandleINS3_5ValueEEEEPFbS2_RKNS3_8CallArgsEESB_
libmozjs128-debug.so:_ZNK2js16BaseProxyHandler11getElementsEP9JSContextN2JS6HandleIP8JSObjectEEjjPNS_12ElementAdderE
libmozjs128-debug.so:_ZNK2js16BaseProxyHandler11objectMovedEP8JSObjectS2_
libmozjs128-debug.so:_ZNK2js16BaseProxyHandler12fun_toStringEP9JSContextN2JS6HandleIP8JSObjectEEb
libmozjs128-debug.so:_ZNK2js16BaseProxyHandler12getPrototypeEP9JSContextN2JS6HandleIP8JSObjectEENS3_13MutableHandleIS6_EE
libmozjs128-debug.so:_ZNK2js16BaseProxyHandler12setPrototypeEP9JSContextN2JS6HandleIP8JSObjectEES7_RNS3_14ObjectOpResultE
libmozjs128-debug.so:_ZNK2js16BaseProxyHandler13isConstructorEP8JSObject
libmozjs128-debug.so:_ZNK2js16BaseProxyHandler15getBuiltinClassEP9JSContextN2JS6HandleIP8JSObjectEEPNS_7ESClassE
libmozjs128-debug.so:_ZNK2js16BaseProxyHandler15regexp_toSharedEP9JSContextN2JS6HandleIP8JSObjectEE
libmozjs128-debug.so:_ZNK2js16BaseProxyHandler16boxedValue_unboxEP9JSContextN2JS6HandleIP8JSObjectEENS3_13MutableHandleINS3_5ValueEEE
libmozjs128-debug.so:_ZNK2js16BaseProxyHandler21setImmutablePrototypeEP9JSContextN2JS6HandleIP8JSObjectEEPb
libmozjs128-debug.so:_ZNK2js16BaseProxyHandler28getOwnEnumerablePropertyKeysEP9JSContextN2JS6HandleIP8JSObjectEENS3_13MutableHandleINS3_13StackGCVectorINS3_11PropertyKeyENS_15TempAllocPolicyEEEEE
libmozjs128-debug.so:_ZNK2js16BaseProxyHandler3getEP9JSContextN2JS6HandleIP8JSObjectEENS4_INS3_5ValueEEENS4_INS3_11PropertyKeyEEENS3_13MutableHandleIS8_EE
libmozjs128-debug.so:_ZNK2js16BaseProxyHandler3hasEP9JSContextN2JS6HandleIP8JSObjectEENS4_INS3_11PropertyKeyEEEPb
libmozjs128-debug.so:_ZNK2js16BaseProxyHandler3setEP9JSContextN2JS6HandleIP8JSObjectEENS4_INS3_11PropertyKeyEEENS4_INS3_5ValueEEESB_RNS3_14ObjectOpResultE
libmozjs128-debug.so:_ZNK2js16BaseProxyHandler4callEP9JSContextN2JS6HandleIP8JSObjectEERKNS3_8CallArgsE
libmozjs128-debug.so:_ZNK2js16BaseProxyHandler5enterEP9JSContextN2JS6HandleIP8JSObjectEENS4_INS3_11PropertyKeyEEEjbPb
libmozjs128-debug.so:_ZNK2js16BaseProxyHandler5traceEP8JSTracerP8JSObject
libmozjs128-debug.so:_ZNK2js16BaseProxyHandler6hasOwnEP9JSContextN2JS6HandleIP8JSObjectEENS4_INS3_11PropertyKeyEEEPb
libmozjs128-debug.so:_ZNK2js16BaseProxyHandler7isArrayEP9JSContextN2JS6HandleIP8JSObjectEEPNS3_13IsArrayAnswerE
libmozjs128-debug.so:_ZNK2js16BaseProxyHandler8finalizeEPN2JS9GCContextEP8JSObject
libmozjs128-debug.so:_ZNK2js16BaseProxyHandler9classNameEP9JSContextN2JS6HandleIP8JSObjectEE
libmozjs128-debug.so:_ZNK2js16BaseProxyHandler9constructEP9JSContextN2JS6HandleIP8JSObjectEERKNS3_8CallArgsE
libmozjs128-debug.so:_ZNK2js16BaseProxyHandler9enumerateEP9JSContextN2JS6HandleIP8JSObjectEENS3_13MutableHandleINS3_13StackGCVectorINS3_11PropertyKeyENS_15TempAllocPolicyEEEEE
libmozjs128-debug.so:_ZNK2js19ProfilingStackFrame2pcEv
libmozjs128-debug.so:_ZNK2js19ProfilingStackFrame6scriptEv
libmozjs128-debug.so:_ZNK2js19ProfilingStackFrame8functionEv
libmozjs128-debug.so:_ZNK2js22ForwardingProxyHandler10isCallableEP8JSObject
libmozjs128-debug.so:_ZNK2js22ForwardingProxyHandler10nativeCallEP9JSContextPFbN2JS6HandleINS3_5ValueEEEEPFbS2_RKNS3_8CallArgsEESB_
libmozjs128-debug.so:_ZNK2js22ForwardingProxyHandler12fun_toStringEP9JSContextN2JS6HandleIP8JSObjectEEb
libmozjs128-debug.so:_ZNK2js22ForwardingProxyHandler12getPrototypeEP9JSContextN2JS6HandleIP8JSObjectEENS3_13MutableHandleIS6_EE
libmozjs128-debug.so:_ZNK2js22ForwardingProxyHandler12isExtensibleEP9JSContextN2JS6HandleIP8JSObjectEEPb
libmozjs128-debug.so:_ZNK2js22ForwardingProxyHandler12setPrototypeEP9JSContextN2JS6HandleIP8JSObjectEES7_RNS3_14ObjectOpResultE
libmozjs128-debug.so:_ZNK2js22ForwardingProxyHandler13isConstructorEP8JSObject
libmozjs128-debug.so:_ZNK2js22ForwardingProxyHandler14definePropertyEP9JSContextN2JS6HandleIP8JSObjectEENS4_INS3_11PropertyKeyEEENS4_INS3_18PropertyDescriptorEEERNS3_14ObjectOpResultE
libmozjs128-debug.so:_ZNK2js22ForwardingProxyHandler15getBuiltinClassEP9JSContextN2JS6HandleIP8JSObjectEEPNS_7ESClassE
libmozjs128-debug.so:_ZNK2js22ForwardingProxyHandler15ownPropertyKeysEP9JSContextN2JS6HandleIP8JSObjectEENS3_13MutableHandleINS3_13StackGCVectorINS3_11PropertyKeyENS_15TempAllocPolicyEEEEE
libmozjs128-debug.so:_ZNK2js22ForwardingProxyHandler15regexp_toSharedEP9JSContextN2JS6HandleIP8JSObjectEE
libmozjs128-debug.so:_ZNK2js22ForwardingProxyHandler16boxedValue_unboxEP9JSContextN2JS6HandleIP8JSObjectEENS3_13MutableHandleINS3_5ValueEEE
libmozjs128-debug.so:_ZNK2js22ForwardingProxyHandler17preventExtensionsEP9JSContextN2JS6HandleIP8JSObjectEERNS3_14ObjectOpResultE
libmozjs128-debug.so:_ZNK2js22ForwardingProxyHandler21setImmutablePrototypeEP9JSContextN2JS6HandleIP8JSObjectEEPb
libmozjs128-debug.so:_ZNK2js22ForwardingProxyHandler22getPrototypeIfOrdinaryEP9JSContextN2JS6HandleIP8JSObjectEEPbNS3_13MutableHandleIS6_EE
libmozjs128-debug.so:_ZNK2js22ForwardingProxyHandler24getOwnPropertyDescriptorEP9JSContextN2JS6HandleIP8JSObjectEENS4_INS3_11PropertyKeyEEENS3_13MutableHandleIN7mozilla5MaybeINS3_18PropertyDescriptorEEEEE
libmozjs128-debug.so:_ZNK2js22ForwardingProxyHandler28getOwnEnumerablePropertyKeysEP9JSContextN2JS6HandleIP8JSObjectEENS3_13MutableHandleINS3_13StackGCVectorINS3_11PropertyKeyENS_15TempAllocPolicyEEEEE
libmozjs128-debug.so:_ZNK2js22ForwardingProxyHandler3getEP9JSContextN2JS6HandleIP8JSObjectEENS4_INS3_5ValueEEENS4_INS3_11PropertyKeyEEENS3_13MutableHandleIS8_EE
libmozjs128-debug.so:_ZNK2js22ForwardingProxyHandler3hasEP9JSContextN2JS6HandleIP8JSObjectEENS4_INS3_11PropertyKeyEEEPb
libmozjs128-debug.so:_ZNK2js22ForwardingProxyHandler3setEP9JSContextN2JS6HandleIP8JSObjectEENS4_INS3_11PropertyKeyEEENS4_INS3_5ValueEEESB_RNS3_14ObjectOpResultE
libmozjs128-debug.so:_ZNK2js22ForwardingProxyHandler4callEP9JSContextN2JS6HandleIP8JSObjectEERKNS3_8CallArgsE
libmozjs128-debug.so:_ZNK2js22ForwardingProxyHandler6hasOwnEP9JSContextN2JS6HandleIP8JSObjectEENS4_INS3_11PropertyKeyEEEPb
libmozjs128-debug.so:_ZNK2js22ForwardingProxyHandler7delete_EP9JSContextN2JS6HandleIP8JSObjectEENS4_INS3_11PropertyKeyEEERNS3_14ObjectOpResultE
libmozjs128-debug.so:_ZNK2js22ForwardingProxyHandler7isArrayEP9JSContextN2JS6HandleIP8JSObjectEEPNS3_13IsArrayAnswerE
libmozjs128-debug.so:_ZNK2js22ForwardingProxyHandler9classNameEP9JSContextN2JS6HandleIP8JSObjectEE
libmozjs128-debug.so:_ZNK2js22ForwardingProxyHandler9constructEP9JSContextN2JS6HandleIP8JSObjectEERKNS3_8CallArgsE
libmozjs128-debug.so:_ZNK2js22ForwardingProxyHandler9enumerateEP9JSContextN2JS6HandleIP8JSObjectEENS3_13MutableHandleINS3_13StackGCVectorINS3_11PropertyKeyENS_15TempAllocPolicyEEEEE
libmozjs128-debug.so:_ZNK2js23AutoCheckRecursionLimit28stackKindForCurrentPrincipalEP9JSContext
libmozjs128-debug.so:_ZNK2js23CrossCompartmentWrapper10nativeCallEP9JSContextPFbN2JS6HandleINS3_5ValueEEEEPFbS2_RKNS3_8CallArgsEESB_
libmozjs128-debug.so:_ZNK2js23CrossCompartmentWrapper12fun_toStringEP9JSContextN2JS6HandleIP8JSObjectEEb
libmozjs128-debug.so:_ZNK2js23CrossCompartmentWrapper12getPrototypeEP9JSContextN2JS6HandleIP8JSObjectEENS3_13MutableHandleIS6_EE
libmozjs128-debug.so:_ZNK2js23CrossCompartmentWrapper12isExtensibleEP9JSContextN2JS6HandleIP8JSObjectEEPb
libmozjs128-debug.so:_ZNK2js23CrossCompartmentWrapper12setPrototypeEP9JSContextN2JS6HandleIP8JSObjectEES7_RNS3_14ObjectOpResultE
libmozjs128-debug.so:_ZNK2js23CrossCompartmentWrapper14definePropertyEP9JSContextN2JS6HandleIP8JSObjectEENS4_INS3_11PropertyKeyEEENS4_INS3_18PropertyDescriptorEEERNS3_14ObjectOpResultE
libmozjs128-debug.so:_ZNK2js23CrossCompartmentWrapper15ownPropertyKeysEP9JSContextN2JS6HandleIP8JSObjectEENS3_13MutableHandleINS3_13StackGCVectorINS3_11PropertyKeyENS_15TempAllocPolicyEEEEE
libmozjs128-debug.so:_ZNK2js23CrossCompartmentWrapper15regexp_toSharedEP9JSContextN2JS6HandleIP8JSObjectEE
libmozjs128-debug.so:_ZNK2js23CrossCompartmentWrapper16boxedValue_unboxEP9JSContextN2JS6HandleIP8JSObjectEENS3_13MutableHandleINS3_5ValueEEE
libmozjs128-debug.so:_ZNK2js23CrossCompartmentWrapper17preventExtensionsEP9JSContextN2JS6HandleIP8JSObjectEERNS3_14ObjectOpResultE
libmozjs128-debug.so:_ZNK2js23CrossCompartmentWrapper21setImmutablePrototypeEP9JSContextN2JS6HandleIP8JSObjectEEPb
libmozjs128-debug.so:_ZNK2js23CrossCompartmentWrapper22getPrototypeIfOrdinaryEP9JSContextN2JS6HandleIP8JSObjectEEPbNS3_13MutableHandleIS6_EE
libmozjs128-debug.so:_ZNK2js23CrossCompartmentWrapper24getOwnPropertyDescriptorEP9JSContextN2JS6HandleIP8JSObjectEENS4_INS3_11PropertyKeyEEENS3_13MutableHandleIN7mozilla5MaybeINS3_18PropertyDescriptorEEEEE
libmozjs128-debug.so:_ZNK2js23CrossCompartmentWrapper28getOwnEnumerablePropertyKeysEP9JSContextN2JS6HandleIP8JSObjectEENS3_13MutableHandleINS3_13StackGCVectorINS3_11PropertyKeyENS_15TempAllocPolicyEEEEE
libmozjs128-debug.so:_ZNK2js23CrossCompartmentWrapper3getEP9JSContextN2JS6HandleIP8JSObjectEENS4_INS3_5ValueEEENS4_INS3_11PropertyKeyEEENS3_13MutableHandleIS8_EE
libmozjs128-debug.so:_ZNK2js23CrossCompartmentWrapper3hasEP9JSContextN2JS6HandleIP8JSObjectEENS4_INS3_11PropertyKeyEEEPb
libmozjs128-debug.so:_ZNK2js23CrossCompartmentWrapper3setEP9JSContextN2JS6HandleIP8JSObjectEENS4_INS3_11PropertyKeyEEENS4_INS3_5ValueEEESB_RNS3_14ObjectOpResultE
libmozjs128-debug.so:_ZNK2js23CrossCompartmentWrapper4callEP9JSContextN2JS6HandleIP8JSObjectEERKNS3_8CallArgsE
libmozjs128-debug.so:_ZNK2js23CrossCompartmentWrapper6hasOwnEP9JSContextN2JS6HandleIP8JSObjectEENS4_INS3_11PropertyKeyEEEPb
libmozjs128-debug.so:_ZNK2js23CrossCompartmentWrapper7delete_EP9JSContextN2JS6HandleIP8JSObjectEENS4_INS3_11PropertyKeyEEERNS3_14ObjectOpResultE
libmozjs128-debug.so:_ZNK2js23CrossCompartmentWrapper9classNameEP9JSContextN2JS6HandleIP8JSObjectEE
libmozjs128-debug.so:_ZNK2js23CrossCompartmentWrapper9constructEP9JSContextN2JS6HandleIP8JSObjectEERKNS3_8CallArgsE
libmozjs128-debug.so:_ZNK2js23CrossCompartmentWrapper9enumerateEP9JSContextN2JS6HandleIP8JSObjectEENS3_13MutableHandleINS3_13StackGCVectorINS3_11PropertyKeyENS_15TempAllocPolicyEEEEE
libmozjs128-debug.so:_ZNK2js29OpaqueCrossCompartmentWrapper12fun_toStringEP9JSContextN2JS6HandleIP8JSObjectEEb
libmozjs128-debug.so:_ZNK2js29OpaqueCrossCompartmentWrapper12getPrototypeEP9JSContextN2JS6HandleIP8JSObjectEENS3_13MutableHandleIS6_EE
libmozjs128-debug.so:_ZNK2js29OpaqueCrossCompartmentWrapper12isExtensibleEP9JSContextN2JS6HandleIP8JSObjectEEPb
libmozjs128-debug.so:_ZNK2js29OpaqueCrossCompartmentWrapper12setPrototypeEP9JSContextN2JS6HandleIP8JSObjectEES7_RNS3_14ObjectOpResultE
libmozjs128-debug.so:_ZNK2js29OpaqueCrossCompartmentWrapper14definePropertyEP9JSContextN2JS6HandleIP8JSObjectEENS4_INS3_11PropertyKeyEEENS4_INS3_18PropertyDescriptorEEERNS3_14ObjectOpResultE
libmozjs128-debug.so:_ZNK2js29OpaqueCrossCompartmentWrapper15getBuiltinClassEP9JSContextN2JS6HandleIP8JSObjectEEPNS_7ESClassE
libmozjs128-debug.so:_ZNK2js29OpaqueCrossCompartmentWrapper15ownPropertyKeysEP9JSContextN2JS6HandleIP8JSObjectEENS3_13MutableHandleINS3_13StackGCVectorINS3_11PropertyKeyENS_15TempAllocPolicyEEEEE
libmozjs128-debug.so:_ZNK2js29OpaqueCrossCompartmentWrapper17preventExtensionsEP9JSContextN2JS6HandleIP8JSObjectEERNS3_14ObjectOpResultE
libmozjs128-debug.so:_ZNK2js29OpaqueCrossCompartmentWrapper21setImmutablePrototypeEP9JSContextN2JS6HandleIP8JSObjectEEPb
libmozjs128-debug.so:_ZNK2js29OpaqueCrossCompartmentWrapper22getPrototypeIfOrdinaryEP9JSContextN2JS6HandleIP8JSObjectEEPbNS3_13MutableHandleIS6_EE
libmozjs128-debug.so:_ZNK2js29OpaqueCrossCompartmentWrapper24getOwnPropertyDescriptorEP9JSContextN2JS6HandleIP8JSObjectEENS4_INS3_11PropertyKeyEEENS3_13MutableHandleIN7mozilla5MaybeINS3_18PropertyDescriptorEEEEE
libmozjs128-debug.so:_ZNK2js29OpaqueCrossCompartmentWrapper28getOwnEnumerablePropertyKeysEP9JSContextN2JS6HandleIP8JSObjectEENS3_13MutableHandleINS3_13StackGCVectorINS3_11PropertyKeyENS_15TempAllocPolicyEEEEE
libmozjs128-debug.so:_ZNK2js29OpaqueCrossCompartmentWrapper3getEP9JSContextN2JS6HandleIP8JSObjectEENS4_INS3_5ValueEEENS4_INS3_11PropertyKeyEEENS3_13MutableHandleIS8_EE
libmozjs128-debug.so:_ZNK2js29OpaqueCrossCompartmentWrapper3hasEP9JSContextN2JS6HandleIP8JSObjectEENS4_INS3_11PropertyKeyEEEPb
libmozjs128-debug.so:_ZNK2js29OpaqueCrossCompartmentWrapper3setEP9JSContextN2JS6HandleIP8JSObjectEENS4_INS3_11PropertyKeyEEENS4_INS3_5ValueEEESB_RNS3_14ObjectOpResultE
libmozjs128-debug.so:_ZNK2js29OpaqueCrossCompartmentWrapper4callEP9JSContextN2JS6HandleIP8JSObjectEERKNS3_8CallArgsE
libmozjs128-debug.so:_ZNK2js29OpaqueCrossCompartmentWrapper6hasOwnEP9JSContextN2JS6HandleIP8JSObjectEENS4_INS3_11PropertyKeyEEEPb
libmozjs128-debug.so:_ZNK2js29OpaqueCrossCompartmentWrapper7delete_EP9JSContextN2JS6HandleIP8JSObjectEENS4_INS3_11PropertyKeyEEERNS3_14ObjectOpResultE
libmozjs128-debug.so:_ZNK2js29OpaqueCrossCompartmentWrapper7isArrayEP9JSContextN2JS6HandleIP8JSObjectEEPNS3_13IsArrayAnswerE
libmozjs128-debug.so:_ZNK2js29OpaqueCrossCompartmentWrapper9classNameEP9JSContextN2JS6HandleIP8JSObjectEE
libmozjs128-debug.so:_ZNK2js29OpaqueCrossCompartmentWrapper9constructEP9JSContextN2JS6HandleIP8JSObjectEERKNS3_8CallArgsE
libmozjs128-debug.so:_ZNK2js29OpaqueCrossCompartmentWrapper9enumerateEP9JSContextN2JS6HandleIP8JSObjectEENS3_13MutableHandleINS3_13StackGCVectorINS3_11PropertyKeyENS_15TempAllocPolicyEEEEE
libmozjs128-debug.so:_ZNK2js7Wrapper20finalizeInBackgroundERKN2JS5ValueE
libmozjs128-debug.so:_ZNK2js9LSprinter10exportIntoERNS_14GenericPrinterE
libmozjs128-debug.so:_ZNK5blink7Decimal3absEv
libmozjs128-debug.so:_ZNK5blink7Decimal4ceilEv
libmozjs128-debug.so:_ZNK5blink7Decimal5floorEv
libmozjs128-debug.so:_ZNK5blink7Decimal5roundEv
libmozjs128-debug.so:_ZNK5blink7Decimal8toDoubleEv
libmozjs128-debug.so:_ZNK5blink7Decimal8toStringB5cxx11Ev
libmozjs128-debug.so:_ZNK5blink7Decimal8toStringEPcm
libmozjs128-debug.so:_ZNK5blink7Decimal9compareToERKS0_
libmozjs128-debug.so:_ZNK5blink7Decimal9remainderERKS0_
libmozjs128-debug.so:_ZNK5blink7DecimaldvERKS0_
libmozjs128-debug.so:_ZNK5blink7DecimaleqERKS0_
libmozjs128-debug.so:_ZNK5blink7DecimalgeERKS0_
libmozjs128-debug.so:_ZNK5blink7DecimalgtERKS0_
libmozjs128-debug.so:_ZNK5blink7DecimalleERKS0_
libmozjs128-debug.so:_ZNK5blink7DecimalltERKS0_
libmozjs128-debug.so:_ZNK5blink7DecimalmiERKS0_
libmozjs128-debug.so:_ZNK5blink7DecimalmlERKS0_
libmozjs128-debug.so:_ZNK5blink7DecimalneERKS0_
libmozjs128-debug.so:_ZNK5blink7DecimalngEv
libmozjs128-debug.so:_ZNK5blink7DecimalplERKS0_
libmozjs128-debug.so:_ZNK6JSAtom12getIndexSlowEv
libmozjs128-debug.so:_ZNK7mozilla14AwakeTimeStampmiERKS0_
libmozjs128-debug.so:_ZNK7mozilla14AwakeTimeStampplERKNS_17AwakeTimeDurationE
libmozjs128-debug.so:_ZNK7mozilla17AwakeTimeDuration14ToMicrosecondsEv
libmozjs128-debug.so:_ZNK7mozilla17AwakeTimeDuration14ToMillisecondsEv
libmozjs128-debug.so:_ZNK7mozilla17AwakeTimeDuration9ToSecondsEv
libmozjs128-debug.so:_ZNK8JSObject10dumpFieldsERN2js11JSONPrinterE
libmozjs128-debug.so:_ZNK8JSObject14hasSameRealmAsEP9JSContext
libmozjs128-debug.so:_ZNK8JSObject17dumpStringContentERN2js14GenericPrinterE
libmozjs128-debug.so:_ZNK8JSObject18allocKindForTenureERKN2js7NurseryE
libmozjs128-debug.so:_ZNK8JSObject21isBackgroundFinalizedEv
libmozjs128-debug.so:_ZNK8JSObject22uninlinedIsProxyObjectEv
libmozjs128-debug.so:_ZNK8JSObject28sizeOfIncludingThisInNurseryEv
libmozjs128-debug.so:_ZNK8JSObject29uninlinedNonProxyIsExtensibleEv
libmozjs128-debug.so:_ZNK8JSObject2isIN2js21ArrayBufferViewObjectEEEbv
libmozjs128-debug.so:_ZNK8JSObject2isIN2js21DebugEnvironmentProxyEEEbv
libmozjs128-debug.so:_ZNK8JSObject2isIN2js23AbstractGeneratorObjectEEEbv
libmozjs128-debug.so:_ZNK8JSObject2isIN2js28ArrayBufferObjectMaybeSharedEEEbv
libmozjs128-debug.so:_ZNK8JSObject4dumpERN2js11JSONPrinterE
libmozjs128-debug.so:_ZNK8JSObject4dumpERN2js14GenericPrinterE
libmozjs128-debug.so:_ZNK8JSObject4dumpEv
libmozjs128-debug.so:_ZNK8JSScript11lookupScopeEPKh
libmozjs128-debug.so:_ZNK8JSScript12isGlobalCodeEv
libmozjs128-debug.so:_ZNK8JSScript14innermostScopeEPKh
libmozjs128-debug.so:_ZNK8JSScript15uninlinedGlobalEv
libmozjs128-debug.so:_ZNK8JSScript18addSizeOfJitScriptEPFmPKvEPmS4_
libmozjs128-debug.so:_ZNK8JSScript20needsBodyEnvironmentEv
libmozjs128-debug.so:_ZNK8JSScript22assertValidJumpTargetsEv
libmozjs128-debug.so:_ZNK8JSScript22isDirectEvalInFunctionEv
libmozjs128-debug.so:_ZNK8JSScript23numAlwaysLiveFixedSlotsEv
libmozjs128-debug.so:_ZNK8JSScript25functionExtraBodyVarScopeEv
libmozjs128-debug.so:_ZNK8JSScript25functionHasParameterExprsEv
libmozjs128-debug.so:_ZNK8JSScript6moduleEv
libmozjs128-debug.so:_ZNK8JSScript7numArgsEv
libmozjs128-debug.so:_ZNK8JSScript8isModuleEv
libmozjs128-debug.so:_ZNK8JSString10dumpFieldsERN2js11JSONPrinterE
libmozjs128-debug.so:_ZNK8JSString15dumpCharsFieldsERN2js11JSONPrinterE
libmozjs128-debug.so:_ZNK8JSString16dumpCharsNoQuoteERN2js14GenericPrinterE
libmozjs128-debug.so:_ZNK8JSString16dumpCommonFieldsERN2js11JSONPrinterE
libmozjs128-debug.so:_ZNK8JSString16dumpPropertyNameERN2js14GenericPrinterE
libmozjs128-debug.so:_ZNK8JSString17dumpStringContentERN2js14GenericPrinterE
libmozjs128-debug.so:_ZNK8JSString17encodeUTF8PartialERKN2JS15AutoRequireNoGCEN7mozilla4SpanIcLm18446744073709551615EEE
libmozjs128-debug.so:_ZNK8JSString18dumpRepresentationERN2js11JSONPrinterE
libmozjs128-debug.so:_ZNK8JSString18dumpRepresentationERN2js14GenericPrinterE
libmozjs128-debug.so:_ZNK8JSString18dumpRepresentationEv
libmozjs128-debug.so:_ZNK8JSString20dumpCharsSingleQuoteERN2js14GenericPrinterE
libmozjs128-debug.so:_ZNK8JSString24dumpRepresentationFieldsERN2js11JSONPrinterE
libmozjs128-debug.so:_ZNK8JSString4dumpERN2js11JSONPrinterE
libmozjs128-debug.so:_ZNK8JSString4dumpERN2js14GenericPrinterE
libmozjs128-debug.so:_ZNK8JSString4dumpEv
libmozjs128-debug.so:_ZNK8JSString9dumpCharsERN2js14GenericPrinterE
libmozjs128-debug.so:_ZNK9JSContext11inAtomsZoneEv
libmozjs128-debug.so:_ZNK9JSContext19sizeOfExcludingThisEPFmPKvE
libmozjs128-debug.so:_ZNK9JSContext19sizeOfIncludingThisEPFmPKvE
libmozjs128-debug.so:abort
libmozjs128-debug.so:clearenv
libmozjs128-debug.so:decoder_decode_to_utf16
libmozjs128-debug.so:decoder_decode_to_utf16_without_replacement
libmozjs128-debug.so:decoder_decode_to_utf8
libmozjs128-debug.so:decoder_decode_to_utf8_without_replacement
libmozjs128-debug.so:decoder_encoding
libmozjs128-debug.so:decoder_free
libmozjs128-debug.so:decoder_latin1_byte_compatible_up_to
libmozjs128-debug.so:decoder_max_utf16_buffer_length
libmozjs128-debug.so:decoder_max_utf8_buffer_length
libmozjs128-debug.so:decoder_max_utf8_buffer_length_without_replacement
libmozjs128-debug.so:encoder_encode_from_utf16
libmozjs128-debug.so:encoder_encode_from_utf16_without_replacement
libmozjs128-debug.so:encoder_encode_from_utf8
libmozjs128-debug.so:encoder_encode_from_utf8_without_replacement
libmozjs128-debug.so:encoder_encoding
libmozjs128-debug.so:encoder_free
libmozjs128-debug.so:encoder_has_pending_state
libmozjs128-debug.so:encoder_max_buffer_length_from_utf16_if_no_unmappables
libmozjs128-debug.so:encoder_max_buffer_length_from_utf16_without_replacement
libmozjs128-debug.so:encoder_max_buffer_length_from_utf8_if_no_unmappables
libmozjs128-debug.so:encoder_max_buffer_length_from_utf8_without_replacement
libmozjs128-debug.so:encoding_can_encode_everything
libmozjs128-debug.so:encoding_for_bom
libmozjs128-debug.so:encoding_for_label
libmozjs128-debug.so:encoding_for_label_no_replacement
libmozjs128-debug.so:encoding_is_ascii_compatible
libmozjs128-debug.so:encoding_is_single_byte
libmozjs128-debug.so:encoding_iso_2022_jp_ascii_valid_up_to
libmozjs128-debug.so:encoding_mem_check_str_for_latin1_and_bidi
libmozjs128-debug.so:encoding_mem_check_utf16_for_latin1_and_bidi
libmozjs128-debug.so:encoding_mem_check_utf8_for_latin1_and_bidi
libmozjs128-debug.so:encoding_mem_convert_latin1_to_utf8
libmozjs128-debug.so:encoding_mem_convert_str_to_utf16
libmozjs128-debug.so:encoding_mem_convert_utf8_to_latin1_lossy
libmozjs128-debug.so:encoding_mem_convert_utf8_to_utf16
libmozjs128-debug.so:encoding_mem_convert_utf8_to_utf16_without_replacement
libmozjs128-debug.so:encoding_mem_copy_ascii_to_ascii
libmozjs128-debug.so:encoding_mem_copy_ascii_to_basic_latin
libmozjs128-debug.so:encoding_mem_copy_basic_latin_to_ascii
libmozjs128-debug.so:encoding_mem_is_char_bidi
libmozjs128-debug.so:encoding_mem_is_str_bidi
libmozjs128-debug.so:encoding_mem_is_str_latin1
libmozjs128-debug.so:encoding_mem_is_utf16_bidi
libmozjs128-debug.so:encoding_mem_is_utf16_code_unit_bidi
libmozjs128-debug.so:encoding_mem_is_utf8_bidi
libmozjs128-debug.so:encoding_mem_str_latin1_up_to
libmozjs128-debug.so:encoding_mem_utf8_latin1_up_to
libmozjs128-debug.so:encoding_name
libmozjs128-debug.so:encoding_new_decoder
libmozjs128-debug.so:encoding_new_decoder_into
libmozjs128-debug.so:encoding_new_decoder_with_bom_removal
libmozjs128-debug.so:encoding_new_decoder_with_bom_removal_into
libmozjs128-debug.so:encoding_new_decoder_without_bom_handling
libmozjs128-debug.so:encoding_new_decoder_without_bom_handling_into
libmozjs128-debug.so:encoding_new_encoder
libmozjs128-debug.so:encoding_new_encoder_into
libmozjs128-debug.so:encoding_output_encoding
libmozjs128-debug.so:fprint_stderr
libmozjs128-debug.so:fprintf_stderr
libmozjs128-debug.so:gMozCrashReason
libmozjs128-debug.so:gMozillaPoisonBase
libmozjs128-debug.so:gMozillaPoisonSize
libmozjs128-debug.so:gMozillaPoisonValue
libmozjs128-debug.so:gOOMAllocationSize
libmozjs128-debug.so:getenv
libmozjs128-debug.so:moz_arena_calloc
libmozjs128-debug.so:moz_arena_free
libmozjs128-debug.so:moz_arena_malloc
libmozjs128-debug.so:moz_arena_memalign
libmozjs128-debug.so:moz_arena_realloc
libmozjs128-debug.so:moz_create_arena_with_params
libmozjs128-debug.so:moz_dispose_arena
libmozjs128-debug.so:moz_malloc_enclosing_size_of
libmozjs128-debug.so:moz_malloc_size_of
libmozjs128-debug.so:moz_malloc_usable_size
libmozjs128-debug.so:moz_set_max_dirty_page_modifier
libmozjs128-debug.so:moz_xcalloc
libmozjs128-debug.so:moz_xmalloc
libmozjs128-debug.so:moz_xmemalign
libmozjs128-debug.so:moz_xmemdup
libmozjs128-debug.so:moz_xrealloc
libmozjs128-debug.so:moz_xstrdup
libmozjs128-debug.so:moz_xstrndup
libmozjs128-debug.so:mozalloc_abort
libmozjs128-debug.so:mozjs128_debug
libmozjs128-debug.so:print_stderr
libmozjs128-debug.so:printf_stderr
libmozjs128-debug.so:putenv
libmozjs128-debug.so:rust_eh_personality
libmozjs128-debug.so:setenv
libmozjs128-debug.so:unsetenv
libmozjs128-debug.so:vprintf_stderr
libmozjs128-release.so:BIG5_ENCODING
libmozjs128-release.so:EUC_JP_ENCODING
libmozjs128-release.so:EUC_KR_ENCODING
libmozjs128-release.so:GB18030_ENCODING
libmozjs128-release.so:GBK_ENCODING
libmozjs128-release.so:IBM866_ENCODING
libmozjs128-release.so:ICU4XDataProvider_create_compiled
libmozjs128-release.so:ICU4XDataProvider_create_empty
libmozjs128-release.so:ICU4XDataProvider_destroy
libmozjs128-release.so:ICU4XDataProvider_enable_locale_fallback
libmozjs128-release.so:ICU4XDataProvider_fork_by_key
libmozjs128-release.so:ICU4XDataProvider_fork_by_locale
libmozjs128-release.so:ICU4XDataStruct_destroy
libmozjs128-release.so:ICU4XError_destroy
libmozjs128-release.so:ICU4XGraphemeClusterBreakIteratorLatin1_destroy
libmozjs128-release.so:ICU4XGraphemeClusterBreakIteratorLatin1_next
libmozjs128-release.so:ICU4XGraphemeClusterBreakIteratorUtf16_destroy
libmozjs128-release.so:ICU4XGraphemeClusterBreakIteratorUtf16_next
libmozjs128-release.so:ICU4XGraphemeClusterBreakIteratorUtf8_destroy
libmozjs128-release.so:ICU4XGraphemeClusterBreakIteratorUtf8_next
libmozjs128-release.so:ICU4XGraphemeClusterSegmenter_create
libmozjs128-release.so:ICU4XGraphemeClusterSegmenter_destroy
libmozjs128-release.so:ICU4XGraphemeClusterSegmenter_segment_latin1
libmozjs128-release.so:ICU4XGraphemeClusterSegmenter_segment_utf16
libmozjs128-release.so:ICU4XGraphemeClusterSegmenter_segment_utf8
libmozjs128-release.so:ICU4XLineBreakIteratorLatin1_destroy
libmozjs128-release.so:ICU4XLineBreakIteratorLatin1_next
libmozjs128-release.so:ICU4XLineBreakIteratorUtf16_destroy
libmozjs128-release.so:ICU4XLineBreakIteratorUtf16_next
libmozjs128-release.so:ICU4XLineBreakIteratorUtf8_destroy
libmozjs128-release.so:ICU4XLineBreakIteratorUtf8_next
libmozjs128-release.so:ICU4XLineBreakOptionsV1_destroy
libmozjs128-release.so:ICU4XLineBreakStrictness_destroy
libmozjs128-release.so:ICU4XLineBreakWordOption_destroy
libmozjs128-release.so:ICU4XLineSegmenter_create_auto
libmozjs128-release.so:ICU4XLineSegmenter_create_auto_with_options_v1
libmozjs128-release.so:ICU4XLineSegmenter_create_dictionary
libmozjs128-release.so:ICU4XLineSegmenter_create_dictionary_with_options_v1
libmozjs128-release.so:ICU4XLineSegmenter_create_lstm
libmozjs128-release.so:ICU4XLineSegmenter_create_lstm_with_options_v1
libmozjs128-release.so:ICU4XLineSegmenter_destroy
libmozjs128-release.so:ICU4XLineSegmenter_segment_latin1
libmozjs128-release.so:ICU4XLineSegmenter_segment_utf16
libmozjs128-release.so:ICU4XLineSegmenter_segment_utf8
libmozjs128-release.so:ICU4XLocale_basename
libmozjs128-release.so:ICU4XLocale_canonicalize
libmozjs128-release.so:ICU4XLocale_clone
libmozjs128-release.so:ICU4XLocale_create_from_string
libmozjs128-release.so:ICU4XLocale_create_und
libmozjs128-release.so:ICU4XLocale_destroy
libmozjs128-release.so:ICU4XLocale_get_unicode_extension
libmozjs128-release.so:ICU4XLocale_language
libmozjs128-release.so:ICU4XLocale_normalizing_eq
libmozjs128-release.so:ICU4XLocale_region
libmozjs128-release.so:ICU4XLocale_script
libmozjs128-release.so:ICU4XLocale_set_language
libmozjs128-release.so:ICU4XLocale_set_region
libmozjs128-release.so:ICU4XLocale_set_script
libmozjs128-release.so:ICU4XLocale_strict_cmp
libmozjs128-release.so:ICU4XLocale_to_string
libmozjs128-release.so:ICU4XOrdering_destroy
libmozjs128-release.so:ICU4XSegmenterWordType_destroy
libmozjs128-release.so:ICU4XSentenceBreakIteratorLatin1_destroy
libmozjs128-release.so:ICU4XSentenceBreakIteratorLatin1_next
libmozjs128-release.so:ICU4XSentenceBreakIteratorUtf16_destroy
libmozjs128-release.so:ICU4XSentenceBreakIteratorUtf16_next
libmozjs128-release.so:ICU4XSentenceBreakIteratorUtf8_destroy
libmozjs128-release.so:ICU4XSentenceBreakIteratorUtf8_next
libmozjs128-release.so:ICU4XSentenceSegmenter_create
libmozjs128-release.so:ICU4XSentenceSegmenter_destroy
libmozjs128-release.so:ICU4XSentenceSegmenter_segment_latin1
libmozjs128-release.so:ICU4XSentenceSegmenter_segment_utf16
libmozjs128-release.so:ICU4XSentenceSegmenter_segment_utf8
libmozjs128-release.so:ICU4XWordBreakIteratorLatin1_destroy
libmozjs128-release.so:ICU4XWordBreakIteratorLatin1_is_word_like
libmozjs128-release.so:ICU4XWordBreakIteratorLatin1_next
libmozjs128-release.so:ICU4XWordBreakIteratorLatin1_word_type
libmozjs128-release.so:ICU4XWordBreakIteratorUtf16_destroy
libmozjs128-release.so:ICU4XWordBreakIteratorUtf16_is_word_like
libmozjs128-release.so:ICU4XWordBreakIteratorUtf16_next
libmozjs128-release.so:ICU4XWordBreakIteratorUtf16_word_type
libmozjs128-release.so:ICU4XWordBreakIteratorUtf8_destroy
libmozjs128-release.so:ICU4XWordBreakIteratorUtf8_is_word_like
libmozjs128-release.so:ICU4XWordBreakIteratorUtf8_next
libmozjs128-release.so:ICU4XWordBreakIteratorUtf8_word_type
libmozjs128-release.so:ICU4XWordSegmenter_create_auto
libmozjs128-release.so:ICU4XWordSegmenter_create_dictionary
libmozjs128-release.so:ICU4XWordSegmenter_create_lstm
libmozjs128-release.so:ICU4XWordSegmenter_destroy
libmozjs128-release.so:ICU4XWordSegmenter_segment_latin1
libmozjs128-release.so:ICU4XWordSegmenter_segment_utf16
libmozjs128-release.so:ICU4XWordSegmenter_segment_utf8
libmozjs128-release.so:ISO_2022_JP_ENCODING
libmozjs128-release.so:ISO_8859_10_ENCODING
libmozjs128-release.so:ISO_8859_13_ENCODING
libmozjs128-release.so:ISO_8859_14_ENCODING
libmozjs128-release.so:ISO_8859_15_ENCODING
libmozjs128-release.so:ISO_8859_16_ENCODING
libmozjs128-release.so:ISO_8859_2_ENCODING
libmozjs128-release.so:ISO_8859_3_ENCODING
libmozjs128-release.so:ISO_8859_4_ENCODING
libmozjs128-release.so:ISO_8859_5_ENCODING
libmozjs128-release.so:ISO_8859_6_ENCODING
libmozjs128-release.so:ISO_8859_7_ENCODING
libmozjs128-release.so:ISO_8859_8_ENCODING
libmozjs128-release.so:ISO_8859_8_I_ENCODING
libmozjs128-release.so:KOI8_R_ENCODING
libmozjs128-release.so:KOI8_U_ENCODING
libmozjs128-release.so:LZ4F_compressBegin
libmozjs128-release.so:LZ4F_compressBound
libmozjs128-release.so:LZ4F_compressEnd
libmozjs128-release.so:LZ4F_compressFrame
libmozjs128-release.so:LZ4F_compressFrameBound
libmozjs128-release.so:LZ4F_compressUpdate
libmozjs128-release.so:LZ4F_compressionLevel_max
libmozjs128-release.so:LZ4F_createCompressionContext
libmozjs128-release.so:LZ4F_createDecompressionContext
libmozjs128-release.so:LZ4F_decompress
libmozjs128-release.so:LZ4F_flush
libmozjs128-release.so:LZ4F_freeCompressionContext
libmozjs128-release.so:LZ4F_freeDecompressionContext
libmozjs128-release.so:LZ4F_getErrorName
libmozjs128-release.so:LZ4F_getFrameInfo
libmozjs128-release.so:LZ4F_getVersion
libmozjs128-release.so:LZ4F_headerSize
libmozjs128-release.so:LZ4F_isError
libmozjs128-release.so:LZ4F_resetDecompressionContext
libmozjs128-release.so:MACINTOSH_ENCODING
libmozjs128-release.so:MOZ_CrashPrintf
libmozjs128-release.so:MozDescribeCodeAddress
libmozjs128-release.so:MozFormatCodeAddress
libmozjs128-release.so:MozFormatCodeAddressDetails
libmozjs128-release.so:MozStackWalk
libmozjs128-release.so:MozTagAnonymousMemory
libmozjs128-release.so:MozTaggedAnonymousMmap
libmozjs128-release.so:MozWalkTheStack
libmozjs128-release.so:MozWalkTheStackWithWriter
libmozjs128-release.so:REPLACEMENT_ENCODING
libmozjs128-release.so:SHIFT_JIS_ENCODING
libmozjs128-release.so:UTF_16BE_ENCODING
libmozjs128-release.so:UTF_16LE_ENCODING
libmozjs128-release.so:UTF_8_ENCODING
libmozjs128-release.so:WINDOWS_1250_ENCODING
libmozjs128-release.so:WINDOWS_1251_ENCODING
libmozjs128-release.so:WINDOWS_1252_ENCODING
libmozjs128-release.so:WINDOWS_1253_ENCODING
libmozjs128-release.so:WINDOWS_1254_ENCODING
libmozjs128-release.so:WINDOWS_1255_ENCODING
libmozjs128-release.so:WINDOWS_1256_ENCODING
libmozjs128-release.so:WINDOWS_1257_ENCODING
libmozjs128-release.so:WINDOWS_1258_ENCODING
libmozjs128-release.so:WINDOWS_874_ENCODING
libmozjs128-release.so:X_MAC_CYRILLIC_ENCODING
libmozjs128-release.so:X_USER_DEFINED_ENCODING
libmozjs128-release.so:_RNvNtCsk6apSIyUfCg_3std9panicking11EMPTY_PANIC
libmozjs128-release.so:_RNvNtNtNtNtCsk6apSIyUfCg_3std3sys4args4unix3imp15ARGV_INIT_ARRAY
libmozjs128-release.so:_Z10JS_MaybeGCP9JSContext
libmozjs128-release.so:_Z10JS_reallocP9JSContextPvmm
libmozjs128-release.so:_Z11JS_IsNativeP8JSObject
libmozjs128-release.so:_Z11JS_ShutDownv
libmozjs128-release.so:_Z11JS_smprintfPKcz
libmozjs128-release.so:_Z11js_StopPerfv
libmozjs128-release.so:_Z12JS_CharsToIdP9JSContextN2JS12TwoByteCharsENS1_13MutableHandleINS1_11PropertyKeyEEE
libmozjs128-release.so:_Z12JS_EnumerateP9JSContextN2JS6HandleIP8JSObjectEENS1_13MutableHandleINS1_8GCVectorINS1_11PropertyKeyELm0EN2js15TempAllocPolicyEEEEE
libmozjs128-release.so:_Z12JS_IdToValueP9JSContextN2JS11PropertyKeyENS1_13MutableHandleINS1_5ValueEEE
libmozjs128-release.so:_Z12JS_IndexToIdP9JSContextjN2JS13MutableHandleINS1_11PropertyKeyEEE
libmozjs128-release.so:_Z12JS_InitClassP9JSContextN2JS6HandleIP8JSObjectEEPK7JSClassS5_PKcPFbS0_jPNS1_5ValueEEjPK14JSPropertySpecPK14JSFunctionSpecSH_SK_
libmozjs128-release.so:_Z12JS_NewObjectP9JSContextPK7JSClass
libmozjs128-release.so:_Z12JS_ParseJSONP9JSContextN2JS6HandleIP8JSStringEENS1_13MutableHandleINS1_5ValueEEE
libmozjs128-release.so:_Z12JS_ParseJSONP9JSContextPKDsjN2JS13MutableHandleINS3_5ValueEEE
libmozjs128-release.so:_Z12JS_ParseJSONP9JSContextPKhjN2JS13MutableHandleINS3_5ValueEEE
libmozjs128-release.so:_Z12JS_ReadBytesP23JSStructuredCloneReaderPvm
libmozjs128-release.so:_Z12JS_StringifyP9JSContextN2JS13MutableHandleINS1_5ValueEEENS1_6HandleIP8JSObjectEENS5_IS3_EEPFbPKDsjPvESC_
libmozjs128-release.so:_Z12JS_ValueToIdP9JSContextN2JS6HandleINS1_5ValueEEENS1_13MutableHandleINS1_11PropertyKeyEEE
libmozjs128-release.so:_Z12JS_WrapValueP9JSContextN2JS13MutableHandleINS1_5ValueEEE
libmozjs128-release.so:_Z12JS_vsmprintfPKcP13__va_list_tag
libmozjs128-release.so:_Z12js_StartPerfv
libmozjs128-release.so:_Z13JS_GetElementP9JSContextN2JS6HandleIP8JSObjectEEjNS1_13MutableHandleINS1_5ValueEEE
libmozjs128-release.so:_Z13JS_GetRuntimeP9JSContext
libmozjs128-release.so:_Z13JS_HasElementP9JSContextN2JS6HandleIP8JSObjectEEjPb
libmozjs128-release.so:_Z13JS_InstanceOfP9JSContextN2JS6HandleIP8JSObjectEEPK7JSClassPNS1_8CallArgsE
libmozjs128-release.so:_Z13JS_NewContextjP9JSRuntime
libmozjs128-release.so:_Z13JS_ReadDoubleP23JSStructuredCloneReaderPd
libmozjs128-release.so:_Z13JS_ReadStringP23JSStructuredCloneReaderN2JS13MutableHandleIP8JSStringEE
libmozjs128-release.so:_Z13JS_SetElementP9JSContextN2JS6HandleIP8JSObjectEEjNS2_INS1_5ValueEEE
libmozjs128-release.so:_Z13JS_SetElementP9JSContextN2JS6HandleIP8JSObjectEEjNS2_IP8JSStringEE
libmozjs128-release.so:_Z13JS_SetElementP9JSContextN2JS6HandleIP8JSObjectEEjS5_
libmozjs128-release.so:_Z13JS_SetElementP9JSContextN2JS6HandleIP8JSObjectEEjd
libmozjs128-release.so:_Z13JS_SetElementP9JSContextN2JS6HandleIP8JSObjectEEji
libmozjs128-release.so:_Z13JS_SetElementP9JSContextN2JS6HandleIP8JSObjectEEjj
libmozjs128-release.so:_Z13JS_StringToIdP9JSContextN2JS6HandleIP8JSStringEENS1_13MutableHandleINS1_11PropertyKeyEEE
libmozjs128-release.so:_Z13JS_WrapObjectP9JSContextN2JS13MutableHandleIP8JSObjectEE
libmozjs128-release.so:_Z13JS_WriteBytesP23JSStructuredCloneWriterPKvm
libmozjs128-release.so:_Z14JS_CloneObjectP9JSContextN2JS6HandleIP8JSObjectEES5_
libmozjs128-release.so:_Z14JS_DecodeBytesP9JSContextPKcmPDsPm
libmozjs128-release.so:_Z14JS_DumpProfilePKcS0_
libmozjs128-release.so:_Z14JS_GetPropertyP9JSContextN2JS6HandleIP8JSObjectEEPKcNS1_13MutableHandleINS1_5ValueEEE
libmozjs128-release.so:_Z14JS_HasInstanceP9JSContextN2JS6HandleIP8JSObjectEENS2_INS1_5ValueEEEPb
libmozjs128-release.so:_Z14JS_HasPropertyP9JSContextN2JS6HandleIP8JSObjectEEPKcPb
libmozjs128-release.so:_Z14JS_NewDataViewP9JSContextN2JS6HandleIP8JSObjectEEmm
libmozjs128-release.so:_Z14JS_NewFunctionP9JSContextPFbS0_jPN2JS5ValueEEjjPKc
libmozjs128-release.so:_Z14JS_NewUCStringP9JSContextN7mozilla9UniquePtrIA_DsN2JS10FreePolicyEEEm
libmozjs128-release.so:_Z14JS_SetPropertyP9JSContextN2JS6HandleIP8JSObjectEEPKcNS2_INS1_5ValueEEE
libmozjs128-release.so:_Z14JS_TypeOfValueP9JSContextN2JS6HandleINS1_5ValueEEE
libmozjs128-release.so:_Z14JS_WriteDoubleP23JSStructuredCloneWriterd
libmozjs128-release.so:_Z14JS_WriteStringP23JSStructuredCloneWriterN2JS6HandleIP8JSStringEE
libmozjs128-release.so:_Z14JS_string_freeP9JSContextPv
libmozjs128-release.so:_Z15JS_AssignObjectP9JSContextN2JS6HandleIP8JSObjectEES5_
libmozjs128-release.so:_Z15JS_CallFunctionP9JSContextN2JS6HandleIP8JSObjectEENS2_IP10JSFunctionEERKNS1_16HandleValueArrayENS1_13MutableHandleINS1_5ValueEEE
libmozjs128-release.so:_Z15JS_DefineObjectP9JSContextN2JS6HandleIP8JSObjectEEPKcPK7JSClassj
libmozjs128-release.so:_Z15JS_FreezeObjectP9JSContextN2JS6HandleIP8JSObjectEE
libmozjs128-release.so:_Z15JS_GetErrorTypeRKN2JS5ValueE
libmozjs128-release.so:_Z15JS_GetPrototypeP9JSContextN2JS6HandleIP8JSObjectEENS1_13MutableHandleIS4_EE
libmozjs128-release.so:_Z15JS_IdToProtoKeyP9JSContextN2JS6HandleINS1_11PropertyKeyEEE
libmozjs128-release.so:_Z15JS_IsExtensibleP9JSContextN2JS6HandleIP8JSObjectEEPb
libmozjs128-release.so:_Z15JS_IsIdentifierP9JSContextN2JS6HandleIP8JSStringEEPb
libmozjs128-release.so:_Z15JS_IsIdentifierPKDsm
libmozjs128-release.so:_Z15JS_NewInt8ArrayP9JSContextm
libmozjs128-release.so:_Z15JS_SetPrototypeP9JSContextN2JS6HandleIP8JSObjectEES5_
libmozjs128-release.so:_Z16JS_AtomizeStringP9JSContextPKc
libmozjs128-release.so:_Z16JS_ConcatStringsP9JSContextN2JS6HandleIP8JSStringEES5_
libmozjs128-release.so:_Z16JS_DefineElementP9JSContextN2JS6HandleIP8JSObjectEEjNS2_INS1_5ValueEEEj
libmozjs128-release.so:_Z16JS_DefineElementP9JSContextN2JS6HandleIP8JSObjectEEjNS2_IP8JSStringEEj
libmozjs128-release.so:_Z16JS_DefineElementP9JSContextN2JS6HandleIP8JSObjectEEjS5_S5_j
libmozjs128-release.so:_Z16JS_DefineElementP9JSContextN2JS6HandleIP8JSObjectEEjS5_j
libmozjs128-release.so:_Z16JS_DefineElementP9JSContextN2JS6HandleIP8JSObjectEEjdj
libmozjs128-release.so:_Z16JS_DefineElementP9JSContextN2JS6HandleIP8JSObjectEEjij
libmozjs128-release.so:_Z16JS_DefineElementP9JSContextN2JS6HandleIP8JSObjectEEjjj
libmozjs128-release.so:_Z16JS_DeleteElementP9JSContextN2JS6HandleIP8JSObjectEEj
libmozjs128-release.so:_Z16JS_DeleteElementP9JSContextN2JS6HandleIP8JSObjectEEjRNS1_14ObjectOpResultE
libmozjs128-release.so:_Z16JS_DoubleIsInt32dPi
libmozjs128-release.so:_Z16JS_ExecuteScriptP9JSContextN2JS6HandleINS1_13StackGCVectorIP8JSObjectN2js15TempAllocPolicyEEEEENS2_IP8JSScriptEE
libmozjs128-release.so:_Z16JS_ExecuteScriptP9JSContextN2JS6HandleINS1_13StackGCVectorIP8JSObjectN2js15TempAllocPolicyEEEEENS2_IP8JSScriptEENS1_13MutableHandleINS1_5ValueEEE
libmozjs128-release.so:_Z16JS_ExecuteScriptP9JSContextN2JS6HandleIP8JSScriptEE
libmozjs128-release.so:_Z16JS_ExecuteScriptP9JSContextN2JS6HandleIP8JSScriptEENS1_13MutableHandleINS1_5ValueEEE
libmozjs128-release.so:_Z16JS_GetFunctionIdP9JSContextN2JS6HandleIP10JSFunctionEENS1_13MutableHandleIP8JSStringEE
libmozjs128-release.so:_Z16JS_GetUCPropertyP9JSContextN2JS6HandleIP8JSObjectEEPKDsmNS1_13MutableHandleINS1_5ValueEEE
libmozjs128-release.so:_Z16JS_HasUCPropertyP9JSContextN2JS6HandleIP8JSObjectEEPKDsmPb
libmozjs128-release.so:_Z16JS_IsConstructorP10JSFunction
libmozjs128-release.so:_Z16JS_IsDeadWrapperP8JSObject
libmozjs128-release.so:_Z16JS_NewInt16ArrayP9JSContextm
libmozjs128-release.so:_Z16JS_NewInt32ArrayP9JSContextm
libmozjs128-release.so:_Z16JS_NewUint8ArrayP9JSContextm
libmozjs128-release.so:_Z16JS_SetGCCallbackP9JSContextPFvS0_10JSGCStatusN2JS8GCReasonEPvES4_
libmozjs128-release.so:_Z16JS_SetUCPropertyP9JSContextN2JS6HandleIP8JSObjectEEPKDsmNS2_INS1_5ValueEEE
libmozjs128-release.so:_Z16JS_StopProfilingPKc
libmozjs128-release.so:_Z16JS_ValueToObjectP9JSContextN2JS6HandleINS1_5ValueEEENS1_13MutableHandleIP8JSObjectEE
libmozjs128-release.so:_Z16JS_ValueToSourceP9JSContextN2JS6HandleINS1_5ValueEEE
libmozjs128-release.so:_Z16JS_string_mallocP9JSContextm
libmozjs128-release.so:_Z17JS_AtomizeStringNP9JSContextPKcm
libmozjs128-release.so:_Z17JS_CompareStringsP9JSContextP8JSStringS2_Pi
libmozjs128-release.so:_Z17JS_DefineFunctionP9JSContextN2JS6HandleIP8JSObjectEEPKcPFbS0_jPNS1_5ValueEEjj
libmozjs128-release.so:_Z17JS_DefinePropertyP9JSContextN2JS6HandleIP8JSObjectEEPKcNS2_INS1_5ValueEEEj
libmozjs128-release.so:_Z17JS_DefinePropertyP9JSContextN2JS6HandleIP8JSObjectEEPKcNS2_IP8JSStringEEj
libmozjs128-release.so:_Z17JS_DefinePropertyP9JSContextN2JS6HandleIP8JSObjectEEPKcPFbS0_jPNS1_5ValueEESB_j
libmozjs128-release.so:_Z17JS_DefinePropertyP9JSContextN2JS6HandleIP8JSObjectEEPKcS5_S5_j
libmozjs128-release.so:_Z17JS_DefinePropertyP9JSContextN2JS6HandleIP8JSObjectEEPKcS5_j
libmozjs128-release.so:_Z17JS_DefinePropertyP9JSContextN2JS6HandleIP8JSObjectEEPKcdj
libmozjs128-release.so:_Z17JS_DefinePropertyP9JSContextN2JS6HandleIP8JSObjectEEPKcij
libmozjs128-release.so:_Z17JS_DefinePropertyP9JSContextN2JS6HandleIP8JSObjectEEPKcjj
libmozjs128-release.so:_Z17JS_DeletePropertyP9JSContextN2JS6HandleIP8JSObjectEEPKc
libmozjs128-release.so:_Z17JS_DeletePropertyP9JSContextN2JS6HandleIP8JSObjectEEPKcRNS1_14ObjectOpResultE
libmozjs128-release.so:_Z17JS_DestroyContextP9JSContext
libmozjs128-release.so:_Z17JS_DropPrincipalsP9JSContextP12JSPrincipals
libmozjs128-release.so:_Z17JS_GetClassObjectP9JSContext10JSProtoKeyN2JS13MutableHandleIP8JSObjectEE
libmozjs128-release.so:_Z17JS_GetConstructorP9JSContextN2JS6HandleIP8JSObjectEE
libmozjs128-release.so:_Z17JS_GetEmptyStringP9JSContext
libmozjs128-release.so:_Z17JS_GetGCParameterP9JSContext12JSGCParamKey
libmozjs128-release.so:_Z17JS_HasOwnPropertyP9JSContextN2JS6HandleIP8JSObjectEEPKcPb
libmozjs128-release.so:_Z17JS_HoldPrincipalsP12JSPrincipals
libmozjs128-release.so:_Z17JS_IsGlobalObjectP8JSObject
libmozjs128-release.so:_Z17JS_NewDeadWrapperP9JSContextP8JSObject
libmozjs128-release.so:_Z17JS_NewPlainObjectP9JSContext
libmozjs128-release.so:_Z17JS_NewStringCopyNP9JSContextPKcm
libmozjs128-release.so:_Z17JS_NewStringCopyZP9JSContextPKc
libmozjs128-release.so:_Z17JS_NewUint16ArrayP9JSContextm
libmozjs128-release.so:_Z17JS_NewUint32ArrayP9JSContextm
libmozjs128-release.so:_Z17JS_PCToLineNumberP8JSScriptPhPN2JS28LimitedColumnNumberOneOriginE
libmozjs128-release.so:_Z17JS_PauseProfilersPKc
libmozjs128-release.so:_Z17JS_ReadTypedArrayP23JSStructuredCloneReaderN2JS13MutableHandleINS1_5ValueEEE
libmozjs128-release.so:_Z17JS_ReadUint32PairP23JSStructuredCloneReaderPjS1_
libmozjs128-release.so:_Z17JS_SetGCParameterP9JSContext12JSGCParamKeyj
libmozjs128-release.so:_Z17JS_StartProfilingPKci
libmozjs128-release.so:_Z17JS_StringIsLinearP8JSString
libmozjs128-release.so:_Z17JS_sprintf_appendON7mozilla9UniquePtrIA_cN2JS10FreePolicyEEEPKcz
libmozjs128-release.so:_Z17JS_string_reallocP9JSContextPvmm
libmozjs128-release.so:_Z18JS_AtomizeUCStringP9JSContextPKDs
libmozjs128-release.so:_Z18JS_CopyStringCharsP9JSContextRKN7mozilla5RangeIDsEEP8JSString
libmozjs128-release.so:_Z18JS_DecompileScriptP9JSContextN2JS6HandleIP8JSScriptEE
libmozjs128-release.so:_Z18JS_DefineFunctionsP9JSContextN2JS6HandleIP8JSObjectEEPK14JSFunctionSpec
libmozjs128-release.so:_Z18JS_GetPropertyByIdP9JSContextN2JS6HandleIP8JSObjectEENS2_INS1_11PropertyKeyEEENS1_13MutableHandleINS1_5ValueEEE
libmozjs128-release.so:_Z18JS_GetStringCharAtP9JSContextP8JSStringmPDs
libmozjs128-release.so:_Z18JS_GetStringLengthP8JSString
libmozjs128-release.so:_Z18JS_GetZoneUserDataPN2JS4ZoneE
libmozjs128-release.so:_Z18JS_HasPropertyByIdP9JSContextN2JS6HandleIP8JSObjectEENS2_INS1_11PropertyKeyEEEPb
libmozjs128-release.so:_Z18JS_MarkCrossZoneIdP9JSContextN2JS11PropertyKeyE
libmozjs128-release.so:_Z18JS_NewFloat16ArrayP9JSContextm
libmozjs128-release.so:_Z18JS_NewFloat32ArrayP9JSContextm
libmozjs128-release.so:_Z18JS_NewFloat64ArrayP9JSContextm
libmozjs128-release.so:_Z18JS_NewGlobalObjectP9JSContextPK7JSClassP12JSPrincipalsN2JS21OnNewGlobalHookOptionERKNS6_12RealmOptionsE
libmozjs128-release.so:_Z18JS_NewLatin1StringP9JSContextN7mozilla9UniquePtrIA_hN2JS10FreePolicyEEEm
libmozjs128-release.so:_Z18JS_ReportErrorUTF8P9JSContextPKcz
libmozjs128-release.so:_Z18JS_ResumeProfilersPKc
libmozjs128-release.so:_Z18JS_SetFutexCanWaitP9JSContext
libmozjs128-release.so:_Z18JS_SetPropertyByIdP9JSContextN2JS6HandleIP8JSObjectEENS2_INS1_11PropertyKeyEEENS2_INS1_5ValueEEE
libmozjs128-release.so:_Z18JS_SetReservedSlotP8JSObjectjRKN2JS5ValueE
libmozjs128-release.so:_Z18JS_SetZoneUserDataPN2JS4ZoneEPv
libmozjs128-release.so:_Z18JS_StructuredCloneP9JSContextN2JS6HandleINS1_5ValueEEENS1_13MutableHandleIS3_EEPK26JSStructuredCloneCallbacksPv
libmozjs128-release.so:_Z18JS_ValueToFunctionP9JSContextN2JS6HandleINS1_5ValueEEE
libmozjs128-release.so:_Z18JS_WriteTypedArrayP23JSStructuredCloneWriterN2JS6HandleINS1_5ValueEEE
libmozjs128-release.so:_Z18JS_WriteUint32PairP23JSStructuredCloneWriterjj
libmozjs128-release.so:_Z18JS_vsprintf_appendON7mozilla9UniquePtrIA_cN2JS10FreePolicyEEEPKcP13__va_list_tag
libmozjs128-release.so:_Z19JS_AtomizeUCStringNP9JSContextPKDsm
libmozjs128-release.so:_Z19JS_CallFunctionNameP9JSContextN2JS6HandleIP8JSObjectEEPKcRKNS1_16HandleValueArrayENS1_13MutableHandleINS1_5ValueEEE
libmozjs128-release.so:_Z19JS_CopyStringCharsZP9JSContextP8JSString
libmozjs128-release.so:_Z19JS_DeepFreezeObjectP9JSContextN2JS6HandleIP8JSObjectEE
libmozjs128-release.so:_Z19JS_DefinePropertiesP9JSContextN2JS6HandleIP8JSObjectEEPK14JSPropertySpec
libmozjs128-release.so:_Z19JS_DefineUCFunctionP9JSContextN2JS6HandleIP8JSObjectEEPKDsmPFbS0_jPNS1_5ValueEEjj
libmozjs128-release.so:_Z19JS_DefineUCPropertyP9JSContextN2JS6HandleIP8JSObjectEEPKDsmNS2_INS1_18PropertyDescriptorEEE
libmozjs128-release.so:_Z19JS_DefineUCPropertyP9JSContextN2JS6HandleIP8JSObjectEEPKDsmNS2_INS1_18PropertyDescriptorEEERNS1_14ObjectOpResultE
libmozjs128-release.so:_Z19JS_DefineUCPropertyP9JSContextN2JS6HandleIP8JSObjectEEPKDsmNS2_INS1_5ValueEEEj
libmozjs128-release.so:_Z19JS_DefineUCPropertyP9JSContextN2JS6HandleIP8JSObjectEEPKDsmNS2_IP8JSStringEEj
libmozjs128-release.so:_Z19JS_DefineUCPropertyP9JSContextN2JS6HandleIP8JSObjectEEPKDsmS5_S5_j
libmozjs128-release.so:_Z19JS_DefineUCPropertyP9JSContextN2JS6HandleIP8JSObjectEEPKDsmS5_j
libmozjs128-release.so:_Z19JS_DefineUCPropertyP9JSContextN2JS6HandleIP8JSObjectEEPKDsmdj
libmozjs128-release.so:_Z19JS_DefineUCPropertyP9JSContextN2JS6HandleIP8JSObjectEEPKDsmij
libmozjs128-release.so:_Z19JS_DefineUCPropertyP9JSContextN2JS6HandleIP8JSObjectEEPKDsmjj
libmozjs128-release.so:_Z19JS_DeleteUCPropertyP9JSContextN2JS6HandleIP8JSObjectEEPKDsmRNS1_14ObjectOpResultE
libmozjs128-release.so:_Z19JS_GetDefaultLocaleP9JSContext
libmozjs128-release.so:_Z19JS_GetFunctionArityP10JSFunction
libmozjs128-release.so:_Z19JS_GetInt8ArrayDataP8JSObjectPbRKN2JS15AutoRequireNoGCE
libmozjs128-release.so:_Z19JS_GetParentRuntimeP9JSContext
libmozjs128-release.so:_Z19JS_InitReflectParseP9JSContextN2JS6HandleIP8JSObjectEE
libmozjs128-release.so:_Z19JS_InitReservedSlotP8JSObjectjPvmN2JS9MemoryUseE
libmozjs128-release.so:_Z19JS_IsNativeFunctionP8JSObjectPFbP9JSContextjPN2JS5ValueEE
libmozjs128-release.so:_Z19JS_NewBigInt64ArrayP9JSContextm
libmozjs128-release.so:_Z19JS_NewUCStringCopyNP9JSContextPKDsm
libmozjs128-release.so:_Z19JS_NewUCStringCopyZP9JSContextPKDs
libmozjs128-release.so:_Z19JS_ObjectIsFunctionP8JSObject
libmozjs128-release.so:_Z19JS_ObjectNotWrittenP23JSStructuredCloneWriterN2JS6HandleIP8JSObjectEE
libmozjs128-release.so:_Z19JS_PutEscapedStringP9JSContextPcmP8JSStringc
libmozjs128-release.so:_Z19JS_ReportErrorASCIIP9JSContextPKcz
libmozjs128-release.so:_Z19JS_ResetGCParameterP9JSContext12JSGCParamKey
libmozjs128-release.so:_Z19JS_SetDefaultLocaleP9JSRuntimePKc
libmozjs128-release.so:_Z19JS_TransplantObjectP9JSContextN2JS6HandleIP8JSObjectEES5_
libmozjs128-release.so:_Z19mozalloc_handle_oomm
libmozjs128-release.so:_Z20JS_CallFunctionValueP9JSContextN2JS6HandleIP8JSObjectEENS2_INS1_5ValueEEERKNS1_16HandleValueArrayENS1_13MutableHandleIS6_EE
libmozjs128-release.so:_Z20JS_CheckForInterruptP9JSContext
libmozjs128-release.so:_Z20JS_DecompileFunctionP9JSContextN2JS6HandleIP10JSFunctionEE
libmozjs128-release.so:_Z20JS_GetClassPrototypeP9JSContext10JSProtoKeyN2JS13MutableHandleIP8JSObjectEE
libmozjs128-release.so:_Z20JS_GetContextPrivateP9JSContext
libmozjs128-release.so:_Z20JS_GetFunctionLengthP9JSContextN2JS6HandleIP10JSFunctionEEPt
libmozjs128-release.so:_Z20JS_GetFunctionObjectP10JSFunction
libmozjs128-release.so:_Z20JS_GetFunctionScriptP9JSContextN2JS6HandleIP10JSFunctionEE
libmozjs128-release.so:_Z20JS_GetInt16ArrayDataP8JSObjectPbRKN2JS15AutoRequireNoGCE
libmozjs128-release.so:_Z20JS_GetInt32ArrayDataP8JSObjectPbRKN2JS15AutoRequireNoGCE
libmozjs128-release.so:_Z20JS_GetObjectFunctionP8JSObject
libmozjs128-release.so:_Z20JS_GetScriptFilenameP8JSScript
libmozjs128-release.so:_Z20JS_GetUint8ArrayDataP8JSObjectPbRKN2JS15AutoRequireNoGCE
libmozjs128-release.so:_Z20JS_NewBigUint64ArrayP9JSContextm
libmozjs128-release.so:_Z20JS_PreventExtensionsP9JSContextN2JS6HandleIP8JSObjectEERNS1_14ObjectOpResultE
libmozjs128-release.so:_Z20JS_ReportErrorLatin1P9JSContextPKcz
libmozjs128-release.so:_Z20JS_ReportOutOfMemoryP9JSContext
libmozjs128-release.so:_Z20JS_SetContextPrivateP9JSContextPv
libmozjs128-release.so:_Z20JS_StringEqualsAsciiP9JSContextP8JSStringPKcPb
libmozjs128-release.so:_Z20JS_StringEqualsAsciiP9JSContextP8JSStringPKcmPb
libmozjs128-release.so:_Z21JS_AbortIfWrongThreadP9JSContext
libmozjs128-release.so:_Z21JS_DefineFunctionByIdP9JSContextN2JS6HandleIP8JSObjectEENS2_INS1_11PropertyKeyEEEPFbS0_jPNS1_5ValueEEjj
libmozjs128-release.so:_Z21JS_DefinePropertyByIdP9JSContextN2JS6HandleIP8JSObjectEENS2_INS1_11PropertyKeyEEENS2_INS1_18PropertyDescriptorEEE
libmozjs128-release.so:_Z21JS_DefinePropertyByIdP9JSContextN2JS6HandleIP8JSObjectEENS2_INS1_11PropertyKeyEEENS2_INS1_18PropertyDescriptorEEERNS1_14ObjectOpResultE
libmozjs128-release.so:_Z21JS_DefinePropertyByIdP9JSContextN2JS6HandleIP8JSObjectEENS2_INS1_11PropertyKeyEEENS2_INS1_5ValueEEEj
libmozjs128-release.so:_Z21JS_DefinePropertyByIdP9JSContextN2JS6HandleIP8JSObjectEENS2_INS1_11PropertyKeyEEENS2_IP8JSStringEEj
libmozjs128-release.so:_Z21JS_DefinePropertyByIdP9JSContextN2JS6HandleIP8JSObjectEENS2_INS1_11PropertyKeyEEEPFbS0_jPNS1_5ValueEESB_j
libmozjs128-release.so:_Z21JS_DefinePropertyByIdP9JSContextN2JS6HandleIP8JSObjectEENS2_INS1_11PropertyKeyEEES5_S5_j
libmozjs128-release.so:_Z21JS_DefinePropertyByIdP9JSContextN2JS6HandleIP8JSObjectEENS2_INS1_11PropertyKeyEEES5_j
libmozjs128-release.so:_Z21JS_DefinePropertyByIdP9JSContextN2JS6HandleIP8JSObjectEENS2_INS1_11PropertyKeyEEEdj
libmozjs128-release.so:_Z21JS_DefinePropertyByIdP9JSContextN2JS6HandleIP8JSObjectEENS2_INS1_11PropertyKeyEEEij
libmozjs128-release.so:_Z21JS_DefinePropertyByIdP9JSContextN2JS6HandleIP8JSObjectEENS2_INS1_11PropertyKeyEEEjj
libmozjs128-release.so:_Z21JS_DeletePropertyByIdP9JSContextN2JS6HandleIP8JSObjectEENS2_INS1_11PropertyKeyEEE
libmozjs128-release.so:_Z21JS_DeletePropertyByIdP9JSContextN2JS6HandleIP8JSObjectEENS2_INS1_11PropertyKeyEEERNS1_14ObjectOpResultE
libmozjs128-release.so:_Z21JS_EncodeStringToUTF8P9JSContextN2JS6HandleIP8JSStringEE
libmozjs128-release.so:_Z21JS_EnsureLinearStringP9JSContextP8JSString
libmozjs128-release.so:_Z21JS_ErrorFromExceptionP9JSContextN2JS6HandleIP8JSObjectEE
libmozjs128-release.so:_Z21JS_GetLocaleCallbacksP9JSRuntime
libmozjs128-release.so:_Z21JS_GetUint16ArrayDataP8JSObjectPbRKN2JS15AutoRequireNoGCE
libmozjs128-release.so:_Z21JS_GetUint32ArrayDataP8JSObjectPbRKN2JS15AutoRequireNoGCE
libmozjs128-release.so:_Z21JS_HasOwnPropertyByIdP9JSContextN2JS6HandleIP8JSObjectEENS2_INS1_11PropertyKeyEEEPb
libmozjs128-release.so:_Z21JS_IsExceptionPendingP9JSContext
libmozjs128-release.so:_Z21JS_IsTypedArrayObjectP8JSObject
libmozjs128-release.so:_Z21JS_NewDependentStringP9JSContextN2JS6HandleIP8JSStringEEmm
libmozjs128-release.so:_Z21JS_NewStringCopyUTF8NP9JSContextRKN2JS9UTF8CharsE
libmozjs128-release.so:_Z21JS_NewStringCopyUTF8ZP9JSContextN2JS15ConstUTF8CharsZE
libmozjs128-release.so:_Z21JS_ResetDefaultLocaleP9JSRuntime
libmozjs128-release.so:_Z21JS_SetLocaleCallbacksP9JSRuntimePK17JSLocaleCallbacks
libmozjs128-release.so:_Z21JS_ValueToConstructorP9JSContextN2JS6HandleINS1_5ValueEEE
libmozjs128-release.so:_Z22JS_AddFinalizeCallbackP9JSContextPFvPN2JS9GCContextE16JSFinalizeStatusPvES5_
libmozjs128-release.so:_Z22JS_AtomizeAndPinStringP9JSContextPKc
libmozjs128-release.so:_Z22JS_EncodeStringToASCIIP9JSContextP8JSString
libmozjs128-release.so:_Z22JS_ForwardGetElementToP9JSContextN2JS6HandleIP8JSObjectEEjS5_NS1_13MutableHandleINS1_5ValueEEE
libmozjs128-release.so:_Z22JS_GetEmptyStringValueP9JSContext
libmozjs128-release.so:_Z22JS_GetFloat16ArrayDataP8JSObjectPbRKN2JS15AutoRequireNoGCE
libmozjs128-release.so:_Z22JS_GetFloat32ArrayDataP8JSObjectPbRKN2JS15AutoRequireNoGCE
libmozjs128-release.so:_Z22JS_GetFloat64ArrayDataP8JSObjectPbRKN2JS15AutoRequireNoGCE
libmozjs128-release.so:_Z22JS_GetGlobalFromScriptP8JSScript
libmozjs128-release.so:_Z22JS_GetPendingExceptionP9JSContextN2JS13MutableHandleINS1_5ValueEEE
libmozjs128-release.so:_Z22JS_GetScriptPrincipalsP8JSScript
libmozjs128-release.so:_Z22JS_GetTypedArrayLengthP8JSObject
libmozjs128-release.so:_Z22JS_IterateCompartmentsP9JSContextPvPFN2JS21CompartmentIterResultES0_S1_PNS2_11CompartmentEE
libmozjs128-release.so:_Z22JS_NewExternalUCStringP9JSContextPKDsmPK25JSExternalStringCallbacks
libmozjs128-release.so:_Z22JS_ReadStructuredCloneP9JSContextRK21JSStructuredCloneDatajN2JS20StructuredCloneScopeENS4_13MutableHandleINS4_5ValueEEERKNS4_15CloneDataPolicyEPK26JSStructuredCloneCallbacksPv
libmozjs128-release.so:_Z22JS_ReportErrorNumberUCP9JSContextPFPK19JSErrorFormatStringPvjES4_jz
libmozjs128-release.so:_Z22JS_SetNativeStackQuotaP9JSContextmmm
libmozjs128-release.so:_Z22JS_SetPendingExceptionP9JSContextN2JS6HandleINS1_5ValueEEENS1_22ExceptionStackBehaviorE
libmozjs128-release.so:_Z22JS_StringHasBeenPinnedP9JSContextP8JSString
libmozjs128-release.so:_Z23JS_AddInterruptCallbackP9JSContextPFbS0_E
libmozjs128-release.so:_Z23JS_AlreadyHasOwnElementP9JSContextN2JS6HandleIP8JSObjectEEjPb
libmozjs128-release.so:_Z23JS_AtomizeAndPinStringNP9JSContextPKcm
libmozjs128-release.so:_Z23JS_DefineDebuggerObjectP9JSContextN2JS6HandleIP8JSObjectEE
libmozjs128-release.so:_Z23JS_EncodeStringToBufferP9JSContextP8JSStringPcm
libmozjs128-release.so:_Z23JS_EncodeStringToLatin1P9JSContextP8JSString
libmozjs128-release.so:_Z23JS_FindCompilationScopeP9JSContextN2JS6HandleIP8JSObjectEE
libmozjs128-release.so:_Z23JS_ForwardGetPropertyToP9JSContextN2JS6HandleIP8JSObjectEENS2_INS1_11PropertyKeyEEENS2_INS1_5ValueEEENS1_13MutableHandleIS8_EE
libmozjs128-release.so:_Z23JS_ForwardSetPropertyToP9JSContextN2JS6HandleIP8JSObjectEENS2_INS1_11PropertyKeyEEENS2_INS1_5ValueEEES9_RNS1_14ObjectOpResultE
libmozjs128-release.so:_Z23JS_FrontendOnlyShutDownv
libmozjs128-release.so:_Z23JS_GetBigInt64ArrayDataP8JSObjectPbRKN2JS15AutoRequireNoGCE
libmozjs128-release.so:_Z23JS_GetFunctionDisplayIdP9JSContextN2JS6HandleIP10JSFunctionEENS1_13MutableHandleIP8JSStringEE
libmozjs128-release.so:_Z23JS_GetObjectAsInt8ArrayP8JSObjectPmPbPPa
libmozjs128-release.so:_Z23JS_GetSecurityCallbacksP9JSContext
libmozjs128-release.so:_Z23JS_MarkCrossZoneIdValueP9JSContextRKN2JS5ValueE
libmozjs128-release.so:_Z23JS_NewUint8ClampedArrayP9JSContextm
libmozjs128-release.so:_Z23JS_ParseJSONWithReviverP9JSContextN2JS6HandleIP8JSStringEENS2_INS1_5ValueEEENS1_13MutableHandleIS6_EE
libmozjs128-release.so:_Z23JS_ParseJSONWithReviverP9JSContextPKDsjN2JS6HandleINS3_5ValueEEENS3_13MutableHandleIS5_EE
libmozjs128-release.so:_Z23JS_ResolveStandardClassP9JSContextN2JS6HandleIP8JSObjectEENS2_INS1_11PropertyKeyEEEPb
libmozjs128-release.so:_Z23JS_ScriptHasMutedErrorsP8JSScript
libmozjs128-release.so:_Z23JS_SetGrayGCRootsTracerP9JSContextPFbP8JSTracerRN2js11SliceBudgetEPvES6_
libmozjs128-release.so:_Z23JS_SetSecurityCallbacksP9JSContextPK19JSSecurityCallbacks
libmozjs128-release.so:_Z23JS_SetTrustedPrincipalsP9JSContextP12JSPrincipals
libmozjs128-release.so:_Z23JS_WriteStructuredCloneP9JSContextN2JS6HandleINS1_5ValueEEEP21JSStructuredCloneDataNS1_20StructuredCloneScopeERKNS1_15CloneDataPolicyEPK26JSStructuredCloneCallbacksPvS4_
libmozjs128-release.so:_Z24JS_AddExtraGCRootsTracerP9JSContextPFvP8JSTracerPvES3_
libmozjs128-release.so:_Z24JS_AlreadyHasOwnPropertyP9JSContextN2JS6HandleIP8JSObjectEEPKcPb
libmozjs128-release.so:_Z24JS_ClearPendingExceptionP9JSContext
libmozjs128-release.so:_Z24JS_FireOnNewGlobalObjectP9JSContextN2JS6HandleIP8JSObjectEE
libmozjs128-release.so:_Z24JS_GetBigUint64ArrayDataP8JSObjectPbRKN2JS15AutoRequireNoGCE
libmozjs128-release.so:_Z24JS_GetCompartmentPrivatePN2JS11CompartmentE
libmozjs128-release.so:_Z24JS_GetObjectAsInt16ArrayP8JSObjectPmPbPPs
libmozjs128-release.so:_Z24JS_GetObjectAsInt32ArrayP8JSObjectPmPbPPi
libmozjs128-release.so:_Z24JS_GetObjectAsUint8ArrayP8JSObjectPmPbPPh
libmozjs128-release.so:_Z24JS_GetPropertyDescriptorP9JSContextN2JS6HandleIP8JSObjectEEPKcNS1_13MutableHandleIN7mozilla5MaybeINS1_18PropertyDescriptorEEEEENS8_IS4_EE
libmozjs128-release.so:_Z24JS_GlobalObjectTraceHookP8JSTracerP8JSObject
libmozjs128-release.so:_Z24JS_IsBuiltinEvalFunctionP10JSFunction
libmozjs128-release.so:_Z24JS_IsThrowingOutOfMemoryP9JSContext
libmozjs128-release.so:_Z24JS_NewInt8ArrayFromArrayP9JSContextN2JS6HandleIP8JSObjectEE
libmozjs128-release.so:_Z24JS_ObjectIsBoundFunctionP8JSObject
libmozjs128-release.so:_Z24JS_ReportErrorNumberUTF8P9JSContextPFPK19JSErrorFormatStringPvjES4_jz
libmozjs128-release.so:_Z24JS_SetCompartmentPrivatePN2JS11CompartmentEPv
libmozjs128-release.so:_Z24JS_SetICUMemoryFunctionsPFPvPKvmEPFS_S1_S_mEPFvS1_S_E
libmozjs128-release.so:_Z24JS_SetImmutablePrototypeP9JSContextN2JS6HandleIP8JSObjectEEPb
libmozjs128-release.so:_Z25JS_GetArrayBufferViewDataP8JSObjectPbRKN2JS15AutoRequireNoGCE
libmozjs128-release.so:_Z25JS_GetArrayBufferViewTypeP8JSObject
libmozjs128-release.so:_Z25JS_GetBoundFunctionTargetP8JSObject
libmozjs128-release.so:_Z25JS_GetObjectAsUint16ArrayP8JSObjectPmPbPPt
libmozjs128-release.so:_Z25JS_GetObjectAsUint32ArrayP8JSObjectPmPbPPj
libmozjs128-release.so:_Z25JS_GetPrototypeIfOrdinaryP9JSContextN2JS6HandleIP8JSObjectEEPbNS1_13MutableHandleIS4_EE
libmozjs128-release.so:_Z25JS_NewInt16ArrayFromArrayP9JSContextN2JS6HandleIP8JSObjectEE
libmozjs128-release.so:_Z25JS_NewInt32ArrayFromArrayP9JSContextN2JS6HandleIP8JSObjectEE
libmozjs128-release.so:_Z25JS_NewInt8ArrayWithBufferP9JSContextN2JS6HandleIP8JSObjectEEml
libmozjs128-release.so:_Z25JS_NewUCStringDontDeflateP9JSContextN7mozilla9UniquePtrIA_DsN2JS10FreePolicyEEEm
libmozjs128-release.so:_Z25JS_NewUint8ArrayFromArrayP9JSContextN2JS6HandleIP8JSObjectEE
libmozjs128-release.so:_Z25JS_PutEscapedLinearStringPcmP14JSLinearStringc
libmozjs128-release.so:_Z25JS_RemoveFinalizeCallbackP9JSContextPFvPN2JS9GCContextE16JSFinalizeStatusPvE
libmozjs128-release.so:_Z25JS_ReportErrorNumberASCIIP9JSContextPFPK19JSErrorFormatStringPvjES4_jz
libmozjs128-release.so:_Z25JS_ResetInterruptCallbackP9JSContextb
libmozjs128-release.so:_Z25JS_SetDestroyZoneCallbackP9JSContextPFvPN2JS9GCContextEPNS1_4ZoneEE
libmozjs128-release.so:_Z25JS_SetWrapObjectCallbacksP9JSContextPK21JSWrapObjectCallbacks
libmozjs128-release.so:_Z25JS_WrapPropertyDescriptorP9JSContextN2JS13MutableHandleIN7mozilla5MaybeINS1_18PropertyDescriptorEEEEE
libmozjs128-release.so:_Z25JS_WrapPropertyDescriptorP9JSContextN2JS13MutableHandleINS1_18PropertyDescriptorEEE
libmozjs128-release.so:_Z26JS_AlreadyHasOwnUCPropertyP9JSContextN2JS6HandleIP8JSObjectEEPKDsmPb
libmozjs128-release.so:_Z26JS_DefineFunctionsWithHelpP9JSContextN2JS6HandleIP8JSObjectEEPK22JSFunctionSpecWithHelp
libmozjs128-release.so:_Z26JS_GetObjectAsFloat16ArrayP8JSObjectPmPbPPt
libmozjs128-release.so:_Z26JS_GetObjectAsFloat32ArrayP8JSObjectPmPbPPf
libmozjs128-release.so:_Z26JS_GetObjectAsFloat64ArrayP8JSObjectPmPbPPd
libmozjs128-release.so:_Z26JS_GetScriptBaseLineNumberP9JSContextP8JSScript
libmozjs128-release.so:_Z26JS_GetStringEncodingLengthP9JSContextP8JSString
libmozjs128-release.so:_Z26JS_GetStructuredCloneScopeP23JSStructuredCloneWriter
libmozjs128-release.so:_Z26JS_GetTypedArrayByteLengthP8JSObject
libmozjs128-release.so:_Z26JS_GetTypedArrayByteOffsetP8JSObject
libmozjs128-release.so:_Z26JS_GetTypedArraySharednessP8JSObject
libmozjs128-release.so:_Z26JS_GetUCPropertyDescriptorP9JSContextN2JS6HandleIP8JSObjectEEPKDsmNS1_13MutableHandleIN7mozilla5MaybeINS1_18PropertyDescriptorEEEEENS8_IS4_EE
libmozjs128-release.so:_Z26JS_IsArrayBufferViewObjectP8JSObject
libmozjs128-release.so:_Z26JS_LinearStringEqualsAsciiP14JSLinearStringPKc
libmozjs128-release.so:_Z26JS_LinearStringEqualsAsciiP14JSLinearStringPKcm
libmozjs128-release.so:_Z26JS_MayResolveStandardClassRK11JSAtomStateN2JS11PropertyKeyEP8JSObject
libmozjs128-release.so:_Z26JS_NewExternalStringLatin1P9JSContextPKhmPK25JSExternalStringCallbacks
libmozjs128-release.so:_Z26JS_NewInt16ArrayWithBufferP9JSContextN2JS6HandleIP8JSObjectEEml
libmozjs128-release.so:_Z26JS_NewInt32ArrayWithBufferP9JSContextN2JS6HandleIP8JSObjectEEml
libmozjs128-release.so:_Z26JS_NewObjectForConstructorP9JSContextPK7JSClassRKN2JS8CallArgsE
libmozjs128-release.so:_Z26JS_NewObjectWithGivenProtoP9JSContextPK7JSClassN2JS6HandleIP8JSObjectEE
libmozjs128-release.so:_Z26JS_NewUint16ArrayFromArrayP9JSContextN2JS6HandleIP8JSObjectEE
libmozjs128-release.so:_Z26JS_NewUint32ArrayFromArrayP9JSContextN2JS6HandleIP8JSObjectEE
libmozjs128-release.so:_Z26JS_NewUint8ArrayWithBufferP9JSContextN2JS6HandleIP8JSObjectEEml
libmozjs128-release.so:_Z26JS_ReportErrorNumberLatin1P9JSContextPFPK19JSErrorFormatStringPvjES4_jz
libmozjs128-release.so:_Z26JS_ReportErrorNumberUTF8VAP9JSContextPFPK19JSErrorFormatStringPvjES4_jP13__va_list_tag
libmozjs128-release.so:_Z27JS_DefineProfilingFunctionsP9JSContextN2JS6HandleIP8JSObjectEE
libmozjs128-release.so:_Z27JS_DisableInterruptCallbackP9JSContext
libmozjs128-release.so:_Z27JS_EnumerateStandardClassesP9JSContextN2JS6HandleIP8JSObjectEE
libmozjs128-release.so:_Z27JS_GetArrayBufferViewBufferP9JSContextN2JS6HandleIP8JSObjectEEPb
libmozjs128-release.so:_Z27JS_GetImplementationVersionv
libmozjs128-release.so:_Z27JS_GetObjectAsBigInt64ArrayP8JSObjectPmPbPPl
libmozjs128-release.so:_Z27JS_GetOwnPropertyDescriptorP9JSContextN2JS6HandleIP8JSObjectEEPKcNS1_13MutableHandleIN7mozilla5MaybeINS1_18PropertyDescriptorEEEEE
libmozjs128-release.so:_Z27JS_GetUint8ClampedArrayDataP8JSObjectPbRKN2JS15AutoRequireNoGCE
libmozjs128-release.so:_Z27JS_GlobalLexicalEnvironmentP8JSObject
libmozjs128-release.so:_Z27JS_MaxMovableTypedArraySizev
libmozjs128-release.so:_Z27JS_NewFloat16ArrayFromArrayP9JSContextN2JS6HandleIP8JSObjectEE
libmozjs128-release.so:_Z27JS_NewFloat32ArrayFromArrayP9JSContextN2JS6HandleIP8JSObjectEE
libmozjs128-release.so:_Z27JS_NewFloat64ArrayFromArrayP9JSContextN2JS6HandleIP8JSObjectEE
libmozjs128-release.so:_Z27JS_NewMaybeExternalUCStringP9JSContextPKDsmPK25JSExternalStringCallbacksPb
libmozjs128-release.so:_Z27JS_NewObjectWithoutMetadataP9JSContextPK7JSClassN2JS6HandleIP8JSObjectEE
libmozjs128-release.so:_Z27JS_NewUint16ArrayWithBufferP9JSContextN2JS6HandleIP8JSObjectEEml
libmozjs128-release.so:_Z27JS_NewUint32ArrayWithBufferP9JSContextN2JS6HandleIP8JSObjectEEml
libmozjs128-release.so:_Z27JS_RemoveExtraGCRootsTracerP9JSContextPFvP8JSTracerPvES3_
libmozjs128-release.so:_Z27JS_ReportAllocationOverflowP9JSContext
libmozjs128-release.so:_Z27JS_ReportErrorNumberASCIIVAP9JSContextPFPK19JSErrorFormatStringPvjES4_jP13__va_list_tag
libmozjs128-release.so:_Z27JS_ReportErrorNumberUCArrayP9JSContextPFPK19JSErrorFormatStringPvjES4_jPPKDs
libmozjs128-release.so:_Z27JS_RequestInterruptCallbackP9JSContext
libmozjs128-release.so:_Z27JS_SetSetUseCounterCallbackP9JSContextPFvP8JSObject12JSUseCounterE
libmozjs128-release.so:_Z27JS_UpdateWeakPointerAfterGCP8JSTracerPN2JS4HeapIP8JSObjectEE
libmozjs128-release.so:_Z28JS_AlreadyHasOwnPropertyByIdP9JSContextN2JS6HandleIP8JSObjectEENS2_INS1_11PropertyKeyEEEPb
libmozjs128-release.so:_Z28JS_ExpandErrorArgumentsASCIIP9JSContextPFPK19JSErrorFormatStringPvjEjP13JSErrorReportz
libmozjs128-release.so:_Z28JS_GetInt8ArrayLengthAndDataP8JSObjectPmPbRKN2JS15AutoRequireNoGCE
libmozjs128-release.so:_Z28JS_GetMaybePartialFunctionIdP10JSFunction
libmozjs128-release.so:_Z28JS_GetObjectAsBigUint64ArrayP8JSObjectPmPbPS1_
libmozjs128-release.so:_Z28JS_GetPropertyDescriptorByIdP9JSContextN2JS6HandleIP8JSObjectEENS2_INS1_11PropertyKeyEEENS1_13MutableHandleIN7mozilla5MaybeINS1_18PropertyDescriptorEEEEENS8_IS4_EE
libmozjs128-release.so:_Z28JS_IterateCompartmentsInZoneP9JSContextPN2JS4ZoneEPvPFNS1_21CompartmentIterResultES0_S4_PNS1_11CompartmentEE
libmozjs128-release.so:_Z28JS_NewBigInt64ArrayFromArrayP9JSContextN2JS6HandleIP8JSObjectEE
libmozjs128-release.so:_Z28JS_NewFloat16ArrayWithBufferP9JSContextN2JS6HandleIP8JSObjectEEml
libmozjs128-release.so:_Z28JS_NewFloat32ArrayWithBufferP9JSContextN2JS6HandleIP8JSObjectEEml
libmozjs128-release.so:_Z28JS_NewFloat64ArrayWithBufferP9JSContextN2JS6HandleIP8JSObjectEEml
libmozjs128-release.so:_Z28JS_ReportErrorNumberLatin1VAP9JSContextPFPK19JSErrorFormatStringPvjES4_jP13__va_list_tag
libmozjs128-release.so:_Z28JS_SetObjectsTenuredCallbackP9JSContextPFvPN2JS9GCContextEPvES4_
libmozjs128-release.so:_Z28JS_SetParallelParsingEnabledP9JSContextb
libmozjs128-release.so:_Z29JS_GetExternalStringCallbacksP8JSString
libmozjs128-release.so:_Z29JS_GetGlobalJitCompilerOptionP9JSContext19JSJitCompilerOptionPj
libmozjs128-release.so:_Z29JS_GetInt16ArrayLengthAndDataP8JSObjectPmPbRKN2JS15AutoRequireNoGCE
libmozjs128-release.so:_Z29JS_GetInt32ArrayLengthAndDataP8JSObjectPmPbRKN2JS15AutoRequireNoGCE
libmozjs128-release.so:_Z29JS_GetObjectAsArrayBufferViewP8JSObjectPmPbPPh
libmozjs128-release.so:_Z29JS_GetOwnUCPropertyDescriptorP9JSContextN2JS6HandleIP8JSObjectEEPKDsmNS1_13MutableHandleIN7mozilla5MaybeINS1_18PropertyDescriptorEEEEE
libmozjs128-release.so:_Z29JS_GetUint8ArrayLengthAndDataP8JSObjectPmPbRKN2JS15AutoRequireNoGCE
libmozjs128-release.so:_Z29JS_InitReadPrincipalsCallbackP9JSContextPFbS0_P23JSStructuredCloneReaderPP12JSPrincipalsE
libmozjs128-release.so:_Z29JS_NewBigInt64ArrayWithBufferP9JSContextN2JS6HandleIP8JSObjectEEml
libmozjs128-release.so:_Z29JS_NewBigUint64ArrayFromArrayP9JSContextN2JS6HandleIP8JSObjectEE
libmozjs128-release.so:_Z29JS_NewMaybeExternalStringUTF8P9JSContextRKN2JS9UTF8CharsEPK25JSExternalStringCallbacksPb
libmozjs128-release.so:_Z29JS_ReportErrorNumberUTF8ArrayP9JSContextPFPK19JSErrorFormatStringPvjES4_jPPKc
libmozjs128-release.so:_Z29JS_SetGlobalJitCompilerOptionP9JSContext19JSJitCompilerOptionj
libmozjs128-release.so:_Z29JS_Utf8BufferIsCompilableUnitP9JSContextN2JS6HandleIP8JSObjectEEPKcm
libmozjs128-release.so:_Z30JS_AddWeakPointerZonesCallbackP9JSContextPFvP8JSTracerPvES3_
libmozjs128-release.so:_Z30JS_GetArrayBufferViewFixedDataP8JSObjectPhm
libmozjs128-release.so:_Z30JS_GetErrorInterceptorCallbackP9JSRuntime
libmozjs128-release.so:_Z30JS_GetUint16ArrayLengthAndDataP8JSObjectPmPbRKN2JS15AutoRequireNoGCE
libmozjs128-release.so:_Z30JS_GetUint32ArrayLengthAndDataP8JSObjectPmPbRKN2JS15AutoRequireNoGCE
libmozjs128-release.so:_Z30JS_LinkConstructorAndPrototypeP9JSContextN2JS6HandleIP8JSObjectEES5_
libmozjs128-release.so:_Z30JS_NewBigUint64ArrayWithBufferP9JSContextN2JS6HandleIP8JSObjectEEml
libmozjs128-release.so:_Z30JS_NewEnumerateStandardClassesP9JSContextN2JS6HandleIP8JSObjectEENS1_13MutableHandleINS1_13StackGCVectorINS1_11PropertyKeyEN2js15TempAllocPolicyEEEEEb
libmozjs128-release.so:_Z30JS_SetErrorInterceptorCallbackP9JSRuntimeP18JSErrorInterceptor
libmozjs128-release.so:_Z30JS_UnsafeGetLastProfilingErrorv
libmozjs128-release.so:_Z31JS_ExtensibleLexicalEnvironmentP8JSObject
libmozjs128-release.so:_Z31JS_GetArrayBufferViewByteLengthP8JSObject
libmozjs128-release.so:_Z31JS_GetArrayBufferViewByteOffsetP8JSObject
libmozjs128-release.so:_Z31JS_GetFloat16ArrayLengthAndDataP8JSObjectPmPbRKN2JS15AutoRequireNoGCE
libmozjs128-release.so:_Z31JS_GetFloat32ArrayLengthAndDataP8JSObjectPmPbRKN2JS15AutoRequireNoGCE
libmozjs128-release.so:_Z31JS_GetFloat64ArrayLengthAndDataP8JSObjectPmPbRKN2JS15AutoRequireNoGCE
libmozjs128-release.so:_Z31JS_GetObjectAsUint8ClampedArrayP8JSObjectPmPbPPh
libmozjs128-release.so:_Z31JS_GetOwnPropertyDescriptorByIdP9JSContextN2JS6HandleIP8JSObjectEENS2_INS1_11PropertyKeyEEENS1_13MutableHandleIN7mozilla5MaybeINS1_18PropertyDescriptorEEEEE
libmozjs128-release.so:_Z31JS_IsBuiltinFunctionConstructorP10JSFunction
libmozjs128-release.so:_Z31JS_NewMaybeExternalStringLatin1P9JSContextPKhmPK25JSExternalStringCallbacksPb
libmozjs128-release.so:_Z32JS_GetBigInt64ArrayLengthAndDataP8JSObjectPmPbRKN2JS15AutoRequireNoGCE
libmozjs128-release.so:_Z32JS_GetLatin1StringCharsAndLengthP9JSContextRKN2JS15AutoRequireNoGCEP8JSStringPm
libmozjs128-release.so:_Z32JS_GetTwoByteExternalStringCharsP8JSString
libmozjs128-release.so:_Z32JS_InitDestroyPrincipalsCallbackP9JSContextPFvP12JSPrincipalsE
libmozjs128-release.so:_Z32JS_NewUint8ClampedArrayFromArrayP9JSContextN2JS6HandleIP8JSObjectEE
libmozjs128-release.so:_Z32JS_SetDestroyCompartmentCallbackP9JSContextPFvPN2JS9GCContextEPNS1_11CompartmentEE
libmozjs128-release.so:_Z33JS_DeprecatedStringHasLatin1CharsP8JSString
libmozjs128-release.so:_Z33JS_GetBigUint64ArrayLengthAndDataP8JSObjectPmPbRKN2JS15AutoRequireNoGCE
libmozjs128-release.so:_Z33JS_GetTwoByteStringCharsAndLengthP9JSContextRKN2JS15AutoRequireNoGCEP8JSStringPm
libmozjs128-release.so:_Z33JS_NewUint8ClampedArrayWithBufferP9JSContextN2JS6HandleIP8JSObjectEEml
libmozjs128-release.so:_Z33JS_NondeterministicGetWeakMapKeysP9JSContextN2JS6HandleIP8JSObjectEENS1_13MutableHandleIS4_EE
libmozjs128-release.so:_Z33JS_NondeterministicGetWeakSetKeysP9JSContextN2JS6HandleIP8JSObjectEENS1_13MutableHandleIS4_EE
libmozjs128-release.so:_Z33JS_RemoveWeakPointerZonesCallbackP9JSContextPFvP8JSTracerPvE
libmozjs128-release.so:_Z33JS_SetAccumulateTelemetryCallbackP9JSContextPFv8JSMetricjE
libmozjs128-release.so:_Z34JS_EncodeStringToUTF8BufferPartialP9JSContextP8JSStringN7mozilla4SpanIcLm18446744073709551615EEE
libmozjs128-release.so:_Z34JS_HasExtensibleLexicalEnvironmentP8JSObject
libmozjs128-release.so:_Z34JS_RefreshCrossCompartmentWrappersP9JSContextN2JS6HandleIP8JSObjectEE
libmozjs128-release.so:_Z34JS_RequestInterruptCallbackCanWaitP9JSContext
libmozjs128-release.so:_Z34JS_StructuredCloneHasTransferablesR21JSStructuredCloneDataPb
libmozjs128-release.so:_Z35JS_GetMaybePartialFunctionDisplayIdP10JSFunction
libmozjs128-release.so:_Z35JS_TraceShapeCycleCollectorChildrenPN2JS14CallbackTracerENS_9GCCellPtrE
libmozjs128-release.so:_Z36JS_AddWeakPointerCompartmentCallbackP9JSContextPFvP8JSTracerPN2JS11CompartmentEPvES6_
libmozjs128-release.so:_Z36JS_CopyOwnPropertiesAndPrivateFieldsP9JSContextN2JS6HandleIP8JSObjectEES5_
libmozjs128-release.so:_Z36JS_GetUint8ClampedArrayLengthAndDataP8JSObjectPmPbRKN2JS15AutoRequireNoGCE
libmozjs128-release.so:_Z36JS_SetAllNonReservedSlotsToUndefinedN2JS6HandleIP8JSObjectEE
libmozjs128-release.so:_Z36JS_SetOffthreadIonCompilationEnabledP9JSContextb
libmozjs128-release.so:_Z38JS_UpdateWeakPointerAfterGCUnbarrieredP8JSTracerPP8JSObject
libmozjs128-release.so:_Z39JS_RemoveWeakPointerCompartmentCallbackP9JSContextPFvP8JSTracerPN2JS11CompartmentEPvE
libmozjs128-release.so:_Z40JS_SetGCParametersBasedOnAvailableMemoryP9JSContextj
libmozjs128-release.so:_Z44JS_SetSizeOfIncludingThisCompartmentCallbackP9JSContextPFmPFmPKvEPN2JS11CompartmentEE
libmozjs128-release.so:_Z47JS_NewEnumerateStandardClassesIncludingResolvedP9JSContextN2JS6HandleIP8JSObjectEENS1_13MutableHandleINS1_13StackGCVectorINS1_11PropertyKeyEN2js15TempAllocPolicyEEEEEb
libmozjs128-release.so:_Z49JS_InitializePropertiesFromCompatibleNativeObjectP9JSContextN2JS6HandleIP8JSObjectEES5_
libmozjs128-release.so:_Z5JS_GCP9JSContextN2JS8GCReasonE
libmozjs128-release.so:_Z6JS_Nowv
libmozjs128-release.so:_Z7JS_freeP9JSContextPv
libmozjs128-release.so:_Z9JS_AssertPKcS0_i
libmozjs128-release.so:_Z9JS_mallocP9JSContextm
libmozjs128-release.so:_ZN10JSFunction13maybeRelazifyEP9JSRuntime
libmozjs128-release.so:_ZN10JSFunction14getDisplayAtomEP9JSContextN2JS13MutableHandleIP6JSAtomEE
libmozjs128-release.so:_ZN10JSFunction15getExplicitNameEP9JSContextN2JS13MutableHandleIP6JSAtomEE
libmozjs128-release.so:_ZN10JSFunction22getAccessorNameForLazyEP9JSContext
libmozjs128-release.so:_ZN10JSFunction22needsPrototypePropertyEv
libmozjs128-release.so:_ZN10JSFunction28isBuiltinFunctionConstructorEv
libmozjs128-release.so:_ZN10JSFunction30delazifySelfHostedLazyFunctionEP9JSContextN2JS6HandleIPS_EE
libmozjs128-release.so:_ZN10JSFunction33delazifyLazilyInterpretedFunctionEP9JSContextN2JS6HandleIPS_EE
libmozjs128-release.so:_ZN10JSFunction39hasNonConfigurablePrototypeDataPropertyEv
libmozjs128-release.so:_ZN11JSAutoRealmC1EP9JSContextP8JSObject
libmozjs128-release.so:_ZN11JSAutoRealmC1EP9JSContextP8JSScript
libmozjs128-release.so:_ZN11JSAutoRealmC2EP9JSContextP8JSObject
libmozjs128-release.so:_ZN11JSAutoRealmC2EP9JSContextP8JSScript
libmozjs128-release.so:_ZN11JSAutoRealmD1Ev
libmozjs128-release.so:_ZN11JSAutoRealmD2Ev
libmozjs128-release.so:_ZN12JSErrorNotes3endEv
libmozjs128-release.so:_ZN12JSErrorNotes5beginEv
libmozjs128-release.so:_ZN12JSErrorNotes6lengthEv
libmozjs128-release.so:_ZN14ProfilingStack18ensureCapacitySlowEv
libmozjs128-release.so:_ZN14ProfilingStackD1Ev
libmozjs128-release.so:_ZN14ProfilingStackD2Ev
libmozjs128-release.so:_ZN15MmapAccessScopeC1EPvjPKc
libmozjs128-release.so:_ZN15MmapAccessScopeC2EPvjPKc
libmozjs128-release.so:_ZN15MmapAccessScopeD1Ev
libmozjs128-release.so:_ZN15MmapAccessScopeD2Ev
libmozjs128-release.so:_ZN17double_conversion23DoubleToStringConverter13DoubleToAsciiEdNS0_8DtoaModeEiPciPbPiS4_
libmozjs128-release.so:_ZN17double_conversion23DoubleToStringConverter19EcmaScriptConverterEv
libmozjs128-release.so:_ZN19JSAutoNullableRealmC1EP9JSContextP8JSObject
libmozjs128-release.so:_ZN19JSAutoNullableRealmC2EP9JSContextP8JSObject
libmozjs128-release.so:_ZN19JSAutoNullableRealmD1Ev
libmozjs128-release.so:_ZN19JSAutoNullableRealmD2Ev
libmozjs128-release.so:_ZN21JSStructuredCloneData20discardTransferablesEv
libmozjs128-release.so:_ZN21JSStructuredCloneDataD1Ev
libmozjs128-release.so:_ZN21JSStructuredCloneDataD2Ev
libmozjs128-release.so:_ZN27JSAutoStructuredCloneBuffer4readEP9JSContextN2JS13MutableHandleINS2_5ValueEEERKNS2_15CloneDataPolicyEPK26JSStructuredCloneCallbacksPv
libmozjs128-release.so:_ZN27JSAutoStructuredCloneBuffer5adoptEO21JSStructuredCloneDatajPK26JSStructuredCloneCallbacksPv
libmozjs128-release.so:_ZN27JSAutoStructuredCloneBuffer5clearEv
libmozjs128-release.so:_ZN27JSAutoStructuredCloneBuffer5writeEP9JSContextN2JS6HandleINS2_5ValueEEEPK26JSStructuredCloneCallbacksPv
libmozjs128-release.so:_ZN27JSAutoStructuredCloneBuffer5writeEP9JSContextN2JS6HandleINS2_5ValueEEES5_RKNS2_15CloneDataPolicyEPK26JSStructuredCloneCallbacksPv
libmozjs128-release.so:_ZN27JSAutoStructuredCloneBuffer6giveToEP21JSStructuredCloneData
libmozjs128-release.so:_ZN27JSAutoStructuredCloneBufferC1EOS_
libmozjs128-release.so:_ZN27JSAutoStructuredCloneBufferC2EOS_
libmozjs128-release.so:_ZN27JSAutoStructuredCloneBufferaSEOS_
libmozjs128-release.so:_ZN2JS10EnterRealmEP9JSContextP8JSObject
libmozjs128-release.so:_ZN2JS10IsCallableEP8JSObject
libmozjs128-release.so:_ZN2JS10LeaveRealmEP9JSContextPNS_5RealmE
libmozjs128-release.so:_ZN2JS10MapEntriesEP9JSContextNS_6HandleIP8JSObjectEENS_13MutableHandleINS_5ValueEEE
libmozjs128-release.so:_ZN2JS10MapForEachEP9JSContextNS_6HandleIP8JSObjectEENS2_INS_5ValueEEES7_
libmozjs128-release.so:_ZN2JS10ModuleLinkEP9JSContextNS_6HandleIP8JSObjectEE
libmozjs128-release.so:_ZN2JS10PrintErrorEP8_IO_FILEP13JSErrorReportb
libmozjs128-release.so:_ZN2JS10PrintErrorEP8_IO_FILERKNS_18ErrorReportBuilderEb
libmozjs128-release.so:_ZN2JS10SetEntriesEP9JSContextNS_6HandleIP8JSObjectEENS_13MutableHandleINS_5ValueEEE
libmozjs128-release.so:_ZN2JS10SetForEachEP9JSContextNS_6HandleIP8JSObjectEENS2_INS_5ValueEEES7_
libmozjs128-release.so:_ZN2JS10ToBigInt64EPKNS_6BigIntE
libmozjs128-release.so:_ZN2JS10ToGetterIdEP9JSContextNS_6HandleINS_11PropertyKeyEEENS_13MutableHandleIS3_EE
libmozjs128-release.so:_ZN2JS10ToSetterIdEP9JSContextNS_6HandleINS_11PropertyKeyEEENS_13MutableHandleIS3_EE
libmozjs128-release.so:_ZN2JS10WarnLatin1EP9JSContextPKcz
libmozjs128-release.so:_ZN2JS11ArrayBuffer19GrowableSharedClassE
libmozjs128-release.so:_ZN2JS11ArrayBuffer22FixedLengthSharedClassE
libmozjs128-release.so:_ZN2JS11ArrayBuffer22ResizableUnsharedClassE
libmozjs128-release.so:_ZN2JS11ArrayBuffer24FixedLengthUnsharedClassE
libmozjs128-release.so:_ZN2JS11ArrayBuffer6createEP9JSContextm
libmozjs128-release.so:_ZN2JS11ArrayBuffer6unwrapEP8JSObject
libmozjs128-release.so:_ZN2JS11ArrayBuffer7getDataEPbRKNS_15AutoRequireNoGCE
libmozjs128-release.so:_ZN2JS11Compartment10putWrapperEP9JSContextP8JSObjectS4_
libmozjs128-release.so:_ZN2JS11Compartment10putWrapperEP9JSContextP8JSStringS4_
libmozjs128-release.so:_ZN2JS11Compartment11sweepRealmsEPNS_9GCContextEbb
libmozjs128-release.so:_ZN2JS11Compartment13removeWrapperEN2js16ObjectWrapperMap3PtrE
libmozjs128-release.so:_ZN2JS11Compartment17sweepAfterMinorGCEP8JSTracer
libmozjs128-release.so:_ZN2JS11Compartment18fixupAfterMovingGCEP8JSTracer
libmozjs128-release.so:_ZN2JS11Compartment18getOrCreateWrapperEP9JSContextNS_6HandleIP8JSObjectEENS_13MutableHandleIS5_EE
libmozjs128-release.so:_ZN2JS11Compartment19findSweepGroupEdgesEv
libmozjs128-release.so:_ZN2JS11Compartment22addSizeOfIncludingThisEPFmPKvEPmS5_S5_
libmozjs128-release.so:_ZN2JS11Compartment24traceWeakNativeIteratorsEP8JSTracer
libmozjs128-release.so:_ZN2JS11Compartment35traceWrapperTargetsInCollectedZonesEP8JSTracerNS0_12EdgeSelectorE
libmozjs128-release.so:_ZN2JS11Compartment39traceCrossCompartmentObjectWrapperEdgesEP8JSTracer
libmozjs128-release.so:_ZN2JS11Compartment40getNonWrapperObjectForCurrentCompartmentEP9JSContextNS_6HandleIP8JSObjectEENS_13MutableHandleIS5_EE
libmozjs128-release.so:_ZN2JS11Compartment43traceIncomingCrossCompartmentEdgesForZoneGCEP8JSTracerNS0_12EdgeSelectorE
libmozjs128-release.so:_ZN2JS11Compartment48fixupCrossCompartmentObjectWrappersAfterMovingGCEP8JSTracer
libmozjs128-release.so:_ZN2JS11Compartment4wrapEP9JSContextNS_13MutableHandleIN7mozilla5MaybeINS_18PropertyDescriptorEEEEE
libmozjs128-release.so:_ZN2JS11Compartment4wrapEP9JSContextNS_13MutableHandleINS_18PropertyDescriptorEEE
libmozjs128-release.so:_ZN2JS11Compartment4wrapEP9JSContextNS_13MutableHandleINS_8GCVectorINS_5ValueELm0EN2js15TempAllocPolicyEEEEE
libmozjs128-release.so:_ZN2JS11Compartment4wrapEP9JSContextNS_13MutableHandleIP8JSObjectEE
libmozjs128-release.so:_ZN2JS11Compartment4wrapEP9JSContextNS_13MutableHandleIP8JSStringEE
libmozjs128-release.so:_ZN2JS11Compartment4wrapEP9JSContextNS_13MutableHandleIPNS_6BigIntEEE
libmozjs128-release.so:_ZN2JS11Compartment6rewrapEP9JSContextNS_13MutableHandleIP8JSObjectEENS_6HandleIS5_EE
libmozjs128-release.so:_ZN2JS11Compartment7destroyEPNS_9GCContextE
libmozjs128-release.so:_ZN2JS11CompartmentC1EPNS_4ZoneEb
libmozjs128-release.so:_ZN2JS11CompartmentC2EPNS_4ZoneEb
libmozjs128-release.so:_ZN2JS11CreateErrorEP9JSContext9JSExnTypeNS_6HandleIP8JSObjectEENS3_IP8JSStringEEjNS_21ColumnNumberOneOriginEP13JSErrorReportS9_NS3_IN7mozilla5MaybeINS_5ValueEEEEENS_13MutableHandleISF_EE
libmozjs128-release.so:_ZN2JS11DayFromTimeEd
libmozjs128-release.so:_ZN2JS11DayFromYearEd
libmozjs128-release.so:_ZN2JS11GetJSTimersEP9JSContext
libmozjs128-release.so:_ZN2JS11IsAtomsZoneEPNS_4ZoneE
libmozjs128-release.so:_ZN2JS11IsMapObjectEP9JSContextNS_6HandleIP8JSObjectEEPb
libmozjs128-release.so:_ZN2JS11IsSetObjectEP9JSContextNS_6HandleIP8JSObjectEEPb
libmozjs128-release.so:_ZN2JS11IsValidJSONEPKDsj
libmozjs128-release.so:_ZN2JS11IsValidJSONEPKhj
libmozjs128-release.so:_ZN2JS11PropertyKey12isNonIntAtomEP6JSAtom
libmozjs128-release.so:_ZN2JS11PropertyKey12isNonIntAtomEP8JSString
libmozjs128-release.so:_ZN2JS11PropertyKey16fromPinnedStringEP8JSString
libmozjs128-release.so:_ZN2JS11SetJobQueueEP9JSContextPNS_8JobQueueE
libmozjs128-release.so:_ZN2JS11ToBigUint64EPKNS_6BigIntE
libmozjs128-release.so:_ZN2JS11ToPrimitiveEP9JSContextNS_6HandleIP8JSObjectEE6JSTypeNS_13MutableHandleINS_5ValueEEE
libmozjs128-release.so:_ZN2JS12AddSizeOfTabEP9JSContextNS_6HandleIP8JSObjectEEPFmPKvEPNS_20ObjectPrivateVisitorEPNS_8TabSizesE
