kconfigwidgets5widgets.so:qt_plugin_instance
kconfigwidgets5widgets.so:qt_plugin_query_metadata
libKF5ConfigWidgets.so.5:_ZN10KTipDialog11eventFilterEP7QObjectP6QEvent
libKF5ConfigWidgets.so.5:_ZN10KTipDialog11qt_metacallEN11QMetaObject4CallEiPPv
libKF5ConfigWidgets.so.5:_ZN10KTipDialog11qt_metacastEPKc
libKF5ConfigWidgets.so.5:_ZN10KTipDialog12showMultiTipEP7QWidgetRK11QStringListb
libKF5ConfigWidgets.so.5:_ZN10KTipDialog14setShowOnStartEb
libKF5ConfigWidgets.so.5:_ZN10KTipDialog16staticMetaObjectE
libKF5ConfigWidgets.so.5:_ZN10KTipDialog7showTipEP7QWidgetRK7QStringb
libKF5ConfigWidgets.so.5:_ZN10KTipDialog7showTipERK7QStringb
libKF5ConfigWidgets.so.5:_ZN10KTipDialogC1EP12KTipDatabaseP7QWidget
libKF5ConfigWidgets.so.5:_ZN10KTipDialogC2EP12KTipDatabaseP7QWidget
libKF5ConfigWidgets.so.5:_ZN10KTipDialogD0Ev
libKF5ConfigWidgets.so.5:_ZN10KTipDialogD1Ev
libKF5ConfigWidgets.so.5:_ZN10KTipDialogD2Ev
libKF5ConfigWidgets.so.5:_ZN11KCommandBar10setActionsERK7QVectorINS_11ActionGroupEE
libKF5ConfigWidgets.so.5:_ZN11KCommandBar11eventFilterEP7QObjectP6QEvent
libKF5ConfigWidgets.so.5:_ZN11KCommandBar11qt_metacallEN11QMetaObject4CallEiPPv
libKF5ConfigWidgets.so.5:_ZN11KCommandBar11qt_metacastEPKc
libKF5ConfigWidgets.so.5:_ZN11KCommandBar16staticMetaObjectE
libKF5ConfigWidgets.so.5:_ZN11KCommandBarC1EP7QWidget
libKF5ConfigWidgets.so.5:_ZN11KCommandBarC2EP7QWidget
libKF5ConfigWidgets.so.5:_ZN11KCommandBarD0Ev
libKF5ConfigWidgets.so.5:_ZN11KCommandBarD1Ev
libKF5ConfigWidgets.so.5:_ZN11KCommandBarD2Ev
libKF5ConfigWidgets.so.5:_ZN11KHelpClient10invokeHelpERK7QStringS2_
libKF5ConfigWidgets.so.5:_ZN12KCodecAction11qt_metacallEN11QMetaObject4CallEiPPv
libKF5ConfigWidgets.so.5:_ZN12KCodecAction11qt_metacastEPKc
libKF5ConfigWidgets.so.5:_ZN12KCodecAction14codecTriggeredEP10QTextCodec
libKF5ConfigWidgets.so.5:_ZN12KCodecAction15actionTriggeredEP7QAction
libKF5ConfigWidgets.so.5:_ZN12KCodecAction15setCurrentCodecEP10QTextCodec
libKF5ConfigWidgets.so.5:_ZN12KCodecAction15setCurrentCodecERK7QString
libKF5ConfigWidgets.so.5:_ZN12KCodecAction15setCurrentCodecEi
libKF5ConfigWidgets.so.5:_ZN12KCodecAction16staticMetaObjectE
libKF5ConfigWidgets.so.5:_ZN12KCodecAction20defaultItemTriggeredEv
libKF5ConfigWidgets.so.5:_ZN12KCodecAction20setCurrentProberTypeEN15KEncodingProber10ProberTypeE
libKF5ConfigWidgets.so.5:_ZN12KCodecAction23encodingProberTriggeredEN15KEncodingProber10ProberTypeE
libKF5ConfigWidgets.so.5:_ZN12KCodecAction9triggeredEN15KEncodingProber10ProberTypeE
libKF5ConfigWidgets.so.5:_ZN12KCodecAction9triggeredEP10QTextCodec
libKF5ConfigWidgets.so.5:_ZN12KCodecActionC1EP7QObjectb
libKF5ConfigWidgets.so.5:_ZN12KCodecActionC1ERK5QIconRK7QStringP7QObjectb
libKF5ConfigWidgets.so.5:_ZN12KCodecActionC1ERK7QStringP7QObjectb
libKF5ConfigWidgets.so.5:_ZN12KCodecActionC2EP7QObjectb
libKF5ConfigWidgets.so.5:_ZN12KCodecActionC2ERK5QIconRK7QStringP7QObjectb
libKF5ConfigWidgets.so.5:_ZN12KCodecActionC2ERK7QStringP7QObjectb
libKF5ConfigWidgets.so.5:_ZN12KCodecActionD0Ev
libKF5ConfigWidgets.so.5:_ZN12KCodecActionD1Ev
libKF5ConfigWidgets.so.5:_ZN12KCodecActionD2Ev
libKF5ConfigWidgets.so.5:_ZN12KColorScheme16adjustBackgroundER8QPaletteNS_14BackgroundRoleENS0_9ColorRoleENS_8ColorSetE28QExplicitlySharedDataPointerI13KSharedConfigE
libKF5ConfigWidgets.so.5:_ZN12KColorScheme16adjustForegroundER8QPaletteNS_14ForegroundRoleENS0_9ColorRoleENS_8ColorSetE28QExplicitlySharedDataPointerI13KSharedConfigE
libKF5ConfigWidgets.so.5:_ZN12KColorScheme19isColorSetSupportedERK28QExplicitlySharedDataPointerI13KSharedConfigENS_8ColorSetE
libKF5ConfigWidgets.so.5:_ZN12KColorScheme24createApplicationPaletteERK28QExplicitlySharedDataPointerI13KSharedConfigE
libKF5ConfigWidgets.so.5:_ZN12KColorScheme5shadeERK6QColorNS_9ShadeRoleE
libKF5ConfigWidgets.so.5:_ZN12KColorScheme5shadeERK6QColorNS_9ShadeRoleEdd
libKF5ConfigWidgets.so.5:_ZN12KColorScheme8contrastEv
libKF5ConfigWidgets.so.5:_ZN12KColorScheme9contrastFERK28QExplicitlySharedDataPointerI13KSharedConfigE
libKF5ConfigWidgets.so.5:_ZN12KColorSchemeC1EN8QPalette10ColorGroupENS_8ColorSetE28QExplicitlySharedDataPointerI13KSharedConfigE
libKF5ConfigWidgets.so.5:_ZN12KColorSchemeC1ERKS_
libKF5ConfigWidgets.so.5:_ZN12KColorSchemeC2EN8QPalette10ColorGroupENS_8ColorSetE28QExplicitlySharedDataPointerI13KSharedConfigE
libKF5ConfigWidgets.so.5:_ZN12KColorSchemeC2ERKS_
libKF5ConfigWidgets.so.5:_ZN12KColorSchemeD0Ev
libKF5ConfigWidgets.so.5:_ZN12KColorSchemeD1Ev
libKF5ConfigWidgets.so.5:_ZN12KColorSchemeD2Ev
libKF5ConfigWidgets.so.5:_ZN12KColorSchemeaSERKS_
libKF5ConfigWidgets.so.5:_ZN12KTipDatabase7nextTipEv
libKF5ConfigWidgets.so.5:_ZN12KTipDatabase7prevTipEv
libKF5ConfigWidgets.so.5:_ZN12KTipDatabaseC1ERK11QStringList
libKF5ConfigWidgets.so.5:_ZN12KTipDatabaseC1ERK7QString
libKF5ConfigWidgets.so.5:_ZN12KTipDatabaseC2ERK11QStringList
libKF5ConfigWidgets.so.5:_ZN12KTipDatabaseC2ERK7QString
libKF5ConfigWidgets.so.5:_ZN12KTipDatabaseD1Ev
libKF5ConfigWidgets.so.5:_ZN12KTipDatabaseD2Ev
libKF5ConfigWidgets.so.5:_ZN13KConfigDialog10hasChangedEv
libKF5ConfigWidgets.so.5:_ZN13KConfigDialog10showDialogERK7QString
libKF5ConfigWidgets.so.5:_ZN13KConfigDialog11qt_metacallEN11QMetaObject4CallEiPPv
libKF5ConfigWidgets.so.5:_ZN13KConfigDialog11qt_metacastEPKc
libKF5ConfigWidgets.so.5:_ZN13KConfigDialog13onPageRemovedEP15KPageWidgetItem
libKF5ConfigWidgets.so.5:_ZN13KConfigDialog13updateButtonsEv
libKF5ConfigWidgets.so.5:_ZN13KConfigDialog13updateWidgetsEv
libKF5ConfigWidgets.so.5:_ZN13KConfigDialog14updateSettingsEv
libKF5ConfigWidgets.so.5:_ZN13KConfigDialog14widgetModifiedEv
libKF5ConfigWidgets.so.5:_ZN13KConfigDialog15settingsChangedERK7QString
libKF5ConfigWidgets.so.5:_ZN13KConfigDialog16staticMetaObjectE
libKF5ConfigWidgets.so.5:_ZN13KConfigDialog19settingsChangedSlotEv
libKF5ConfigWidgets.so.5:_ZN13KConfigDialog20updateWidgetsDefaultEv
libKF5ConfigWidgets.so.5:_ZN13KConfigDialog6existsERK7QString
libKF5ConfigWidgets.so.5:_ZN13KConfigDialog7addPageEP7QWidgetP19KCoreConfigSkeletonRK7QStringS6_S6_
libKF5ConfigWidgets.so.5:_ZN13KConfigDialog7addPageEP7QWidgetRK7QStringS4_S4_b
libKF5ConfigWidgets.so.5:_ZN13KConfigDialog7setHelpERK7QStringS2_
libKF5ConfigWidgets.so.5:_ZN13KConfigDialog8showHelpEv
libKF5ConfigWidgets.so.5:_ZN13KConfigDialog9isDefaultEv
libKF5ConfigWidgets.so.5:_ZN13KConfigDialog9showEventEP10QShowEvent
libKF5ConfigWidgets.so.5:_ZN13KConfigDialogC1EP7QWidgetRK7QStringP19KCoreConfigSkeleton
libKF5ConfigWidgets.so.5:_ZN13KConfigDialogC2EP7QWidgetRK7QStringP19KCoreConfigSkeleton
libKF5ConfigWidgets.so.5:_ZN13KConfigDialogD0Ev
libKF5ConfigWidgets.so.5:_ZN13KConfigDialogD1Ev
libKF5ConfigWidgets.so.5:_ZN13KConfigDialogD2Ev
libKF5ConfigWidgets.so.5:_ZN13KLanguageName11nameForCodeERK7QString
libKF5ConfigWidgets.so.5:_ZN13KLanguageName16allLanguageCodesEv
libKF5ConfigWidgets.so.5:_ZN13KLanguageName19nameForCodeInLocaleERK7QStringS2_
libKF5ConfigWidgets.so.5:_ZN14KHamburgerMenu10setMenuBarEP8QMenuBar
libKF5ConfigWidgets.so.5:_ZN14KHamburgerMenu11qt_metacallEN11QMetaObject4CallEiPPv
libKF5ConfigWidgets.so.5:_ZN14KHamburgerMenu11qt_metacastEPKc
libKF5ConfigWidgets.so.5:_ZN14KHamburgerMenu12createWidgetEP7QWidget
libKF5ConfigWidgets.so.5:_ZN14KHamburgerMenu13hideActionsOfEP7QWidget
libKF5ConfigWidgets.so.5:_ZN14KHamburgerMenu13showActionsOfEP7QWidget
libKF5ConfigWidgets.so.5:_ZN14KHamburgerMenu15aboutToShowMenuEv
libKF5ConfigWidgets.so.5:_ZN14KHamburgerMenu16staticMetaObjectE
libKF5ConfigWidgets.so.5:_ZN14KHamburgerMenu20setMenuBarAdvertisedEb
libKF5ConfigWidgets.so.5:_ZN14KHamburgerMenu20setShowMenuBarActionEP7QAction
libKF5ConfigWidgets.so.5:_ZN14KHamburgerMenu9addToMenuEP5QMenu
libKF5ConfigWidgets.so.5:_ZN14KHamburgerMenuC1EP7QObject
libKF5ConfigWidgets.so.5:_ZN14KHamburgerMenuC2EP7QObject
libKF5ConfigWidgets.so.5:_ZN14KHamburgerMenuD0Ev
libKF5ConfigWidgets.so.5:_ZN14KHamburgerMenuD1Ev
libKF5ConfigWidgets.so.5:_ZN14KHamburgerMenuD2Ev
libKF5ConfigWidgets.so.5:_ZN14KStatefulBrushC1EN12KColorScheme8ColorSetENS0_14BackgroundRoleE28QExplicitlySharedDataPointerI13KSharedConfigE
libKF5ConfigWidgets.so.5:_ZN14KStatefulBrushC1EN12KColorScheme8ColorSetENS0_14DecorationRoleE28QExplicitlySharedDataPointerI13KSharedConfigE
libKF5ConfigWidgets.so.5:_ZN14KStatefulBrushC1EN12KColorScheme8ColorSetENS0_14ForegroundRoleE28QExplicitlySharedDataPointerI13KSharedConfigE
libKF5ConfigWidgets.so.5:_ZN14KStatefulBrushC1ERK6QBrush28QExplicitlySharedDataPointerI13KSharedConfigE
libKF5ConfigWidgets.so.5:_ZN14KStatefulBrushC1ERK6QBrushS2_28QExplicitlySharedDataPointerI13KSharedConfigE
libKF5ConfigWidgets.so.5:_ZN14KStatefulBrushC1ERKS_
libKF5ConfigWidgets.so.5:_ZN14KStatefulBrushC1Ev
libKF5ConfigWidgets.so.5:_ZN14KStatefulBrushC2EN12KColorScheme8ColorSetENS0_14BackgroundRoleE28QExplicitlySharedDataPointerI13KSharedConfigE
libKF5ConfigWidgets.so.5:_ZN14KStatefulBrushC2EN12KColorScheme8ColorSetENS0_14DecorationRoleE28QExplicitlySharedDataPointerI13KSharedConfigE
libKF5ConfigWidgets.so.5:_ZN14KStatefulBrushC2EN12KColorScheme8ColorSetENS0_14ForegroundRoleE28QExplicitlySharedDataPointerI13KSharedConfigE
libKF5ConfigWidgets.so.5:_ZN14KStatefulBrushC2ERK6QBrush28QExplicitlySharedDataPointerI13KSharedConfigE
libKF5ConfigWidgets.so.5:_ZN14KStatefulBrushC2ERK6QBrushS2_28QExplicitlySharedDataPointerI13KSharedConfigE
libKF5ConfigWidgets.so.5:_ZN14KStatefulBrushC2ERKS_
libKF5ConfigWidgets.so.5:_ZN14KStatefulBrushC2Ev
libKF5ConfigWidgets.so.5:_ZN14KStatefulBrushD1Ev
libKF5ConfigWidgets.so.5:_ZN14KStatefulBrushD2Ev
libKF5ConfigWidgets.so.5:_ZN14KStatefulBrushaSERKS_
libKF5ConfigWidgets.so.5:_ZN15KLanguageButton11highlightedERK7QString
libKF5ConfigWidgets.so.5:_ZN15KLanguageButton11qt_metacallEN11QMetaObject4CallEiPPv
libKF5ConfigWidgets.so.5:_ZN15KLanguageButton11qt_metacastEPKc
libKF5ConfigWidgets.so.5:_ZN15KLanguageButton11slotHoveredEP7QAction
libKF5ConfigWidgets.so.5:_ZN15KLanguageButton13slotTriggeredEP7QAction
libKF5ConfigWidgets.so.5:_ZN15KLanguageButton14insertLanguageERK7QStringS2_i
libKF5ConfigWidgets.so.5:_ZN15KLanguageButton14setCurrentItemERK7QString
libKF5ConfigWidgets.so.5:_ZN15KLanguageButton15insertSeparatorEi
libKF5ConfigWidgets.so.5:_ZN15KLanguageButton16loadAllLanguagesEv
libKF5ConfigWidgets.so.5:_ZN15KLanguageButton16staticMetaObjectE
libKF5ConfigWidgets.so.5:_ZN15KLanguageButton17showLanguageCodesEb
libKF5ConfigWidgets.so.5:_ZN15KLanguageButton5clearEv
libKF5ConfigWidgets.so.5:_ZN15KLanguageButton7setTextERK7QString
libKF5ConfigWidgets.so.5:_ZN15KLanguageButton9activatedERK7QString
libKF5ConfigWidgets.so.5:_ZN15KLanguageButton9setLocaleERK7QString
libKF5ConfigWidgets.so.5:_ZN15KLanguageButtonC1EP7QWidget
libKF5ConfigWidgets.so.5:_ZN15KLanguageButtonC1ERK7QStringP7QWidget
libKF5ConfigWidgets.so.5:_ZN15KLanguageButtonC2EP7QWidget
libKF5ConfigWidgets.so.5:_ZN15KLanguageButtonC2ERK7QStringP7QWidget
libKF5ConfigWidgets.so.5:_ZN15KLanguageButtonD0Ev
libKF5ConfigWidgets.so.5:_ZN15KLanguageButtonD1Ev
libKF5ConfigWidgets.so.5:_ZN15KLanguageButtonD2Ev
libKF5ConfigWidgets.so.5:_ZN15KStandardAction10actualSizeEPK7QObjectPKcPS0_
libKF5ConfigWidgets.so.5:_ZN15KStandardAction10deleteFileEPK7QObjectPKcPS0_
libKF5ConfigWidgets.so.5:_ZN15KStandardAction10fitToWidthEPK7QObjectPKcPS0_
libKF5ConfigWidgets.so.5:_ZN15KStandardAction10fullScreenEPK7QObjectPKcP7QWidgetPS0_
libKF5ConfigWidgets.so.5:_ZN15KStandardAction10openRecentEPK7QObjectPKcPS0_
libKF5ConfigWidgets.so.5:_ZN15KStandardAction10renameFileEPK7QObjectPKcPS0_
libKF5ConfigWidgets.so.5:_ZN15KStandardAction11addBookmarkEPK7QObjectPKcPS0_
libKF5ConfigWidgets.so.5:_ZN15KStandardAction11fitToHeightEPK7QObjectPKcPS0_
libKF5ConfigWidgets.so.5:_ZN15KStandardAction11keyBindingsEPK7QObjectPKcPS0_
libKF5ConfigWidgets.so.5:_ZN15KStandardAction11moveToTrashEPK7QObjectPKcPS0_
libKF5ConfigWidgets.so.5:_ZN15KStandardAction11preferencesEPK7QObjectPKcPS0_
libKF5ConfigWidgets.so.5:_ZN15KStandardAction11saveOptionsEPK7QObjectPKcPS0_
libKF5ConfigWidgets.so.5:_ZN15KStandardAction11showMenubarEPK7QObjectPKcPS0_
libKF5ConfigWidgets.so.5:_ZN15KStandardAction12documentBackEPK7QObjectPKcPS0_
libKF5ConfigWidgets.so.5:_ZN15KStandardAction12helpContentsEPK7QObjectPKcPS0_
libKF5ConfigWidgets.so.5:_ZN15KStandardAction12printPreviewEPK7QObjectPKcPS0_
libKF5ConfigWidgets.so.5:_ZN15KStandardAction13editBookmarksEPK7QObjectPKcPS0_
libKF5ConfigWidgets.so.5:_ZN15KStandardAction13hamburgerMenuEPK7QObjectPKcPS0_
libKF5ConfigWidgets.so.5:_ZN15KStandardAction13showStatusbarEPK7QObjectPKcPS0_
libKF5ConfigWidgets.so.5:_ZN15KStandardAction15documentForwardEPK7QObjectPKcPS0_
libKF5ConfigWidgets.so.5:_ZN15KStandardAction17_k_createInternalENS_14StandardActionEP7QObject
libKF5ConfigWidgets.so.5:_ZN15KStandardAction17configureToolbarsEPK7QObjectPKcPS0_
libKF5ConfigWidgets.so.5:_ZN15KStandardAction19shortcutForActionIdENS_14StandardActionE
libKF5ConfigWidgets.so.5:_ZN15KStandardAction22configureNotificationsEPK7QObjectPKcPS0_
libKF5ConfigWidgets.so.5:_ZN15KStandardAction25switchApplicationLanguageEPK7QObjectPKcPS0_
libKF5ConfigWidgets.so.5:_ZN15KStandardAction2upEPK7QObjectPKcPS0_
libKF5ConfigWidgets.so.5:_ZN15KStandardAction3cutEP7QObject
libKF5ConfigWidgets.so.5:_ZN15KStandardAction3cutEPK7QObjectPKcPS0_
libKF5ConfigWidgets.so.5:_ZN15KStandardAction4backEPK7QObjectPKcPS0_
libKF5ConfigWidgets.so.5:_ZN15KStandardAction4copyEP7QObject
libKF5ConfigWidgets.so.5:_ZN15KStandardAction4copyEPK7QObjectPKcPS0_
libKF5ConfigWidgets.so.5:_ZN15KStandardAction4findEPK7QObjectPKcPS0_
libKF5ConfigWidgets.so.5:_ZN15KStandardAction4goToEPK7QObjectPKcPS0_
libKF5ConfigWidgets.so.5:_ZN15KStandardAction4helpEPK7QObjectPKcPS0_
libKF5ConfigWidgets.so.5:_ZN15KStandardAction4homeEPK7QObjectPKcPS0_
libKF5ConfigWidgets.so.5:_ZN15KStandardAction4mailEPK7QObjectPKcPS0_
libKF5ConfigWidgets.so.5:_ZN15KStandardAction4nameENS_14StandardActionE
libKF5ConfigWidgets.so.5:_ZN15KStandardAction4nextEPK7QObjectPKcPS0_
libKF5ConfigWidgets.so.5:_ZN15KStandardAction4openEPK7QObjectPKcPS0_
libKF5ConfigWidgets.so.5:_ZN15KStandardAction4quitEPK7QObjectPKcPS0_
libKF5ConfigWidgets.so.5:_ZN15KStandardAction4redoEPK7QObjectPKcPS0_
libKF5ConfigWidgets.so.5:_ZN15KStandardAction4saveEPK7QObjectPKcPS0_
libKF5ConfigWidgets.so.5:_ZN15KStandardAction4undoEPK7QObjectPKcPS0_
libKF5ConfigWidgets.so.5:_ZN15KStandardAction4zoomEPK7QObjectPKcPS0_
libKF5ConfigWidgets.so.5:_ZN15KStandardAction5clearEP7QObject
libKF5ConfigWidgets.so.5:_ZN15KStandardAction5clearEPK7QObjectPKcPS0_
libKF5ConfigWidgets.so.5:_ZN15KStandardAction5closeEPK7QObjectPKcPS0_
libKF5ConfigWidgets.so.5:_ZN15KStandardAction5pasteEP7QObject
libKF5ConfigWidgets.so.5:_ZN15KStandardAction5pasteEPK7QObjectPKcPS0_
libKF5ConfigWidgets.so.5:_ZN15KStandardAction5printEPK7QObjectPKcPS0_
libKF5ConfigWidgets.so.5:_ZN15KStandardAction5priorEPK7QObjectPKcPS0_
libKF5ConfigWidgets.so.5:_ZN15KStandardAction6createENS_14StandardActionEPK7QObjectPKcPS1_
libKF5ConfigWidgets.so.5:_ZN15KStandardAction6donateEPK7QObjectPKcPS0_
libKF5ConfigWidgets.so.5:_ZN15KStandardAction6revertEPK7QObjectPKcPS0_
libKF5ConfigWidgets.so.5:_ZN15KStandardAction6saveAsEPK7QObjectPKcPS0_
libKF5ConfigWidgets.so.5:_ZN15KStandardAction6zoomInEPK7QObjectPKcPS0_
libKF5ConfigWidgets.so.5:_ZN15KStandardAction7forwardEPK7QObjectPKcPS0_
libKF5ConfigWidgets.so.5:_ZN15KStandardAction7openNewEPK7QObjectPKcPS0_
libKF5ConfigWidgets.so.5:_ZN15KStandardAction7replaceEPK7QObjectPKcPS0_
libKF5ConfigWidgets.so.5:_ZN15KStandardAction7zoomOutEPK7QObjectPKcPS0_
libKF5ConfigWidgets.so.5:_ZN15KStandardAction8aboutAppEPK7QObjectPKcPS0_
libKF5ConfigWidgets.so.5:_ZN15KStandardAction8aboutKDEEPK7QObjectPKcPS0_
libKF5ConfigWidgets.so.5:_ZN15KStandardAction8deselectEPK7QObjectPKcPS0_
libKF5ConfigWidgets.so.5:_ZN15KStandardAction8findNextEPK7QObjectPKcPS0_
libKF5ConfigWidgets.so.5:_ZN15KStandardAction8findPrevEPK7QObjectPKcPS0_
libKF5ConfigWidgets.so.5:_ZN15KStandardAction8gotoLineEPK7QObjectPKcPS0_
libKF5ConfigWidgets.so.5:_ZN15KStandardAction8gotoPageEPK7QObjectPKcPS0_
libKF5ConfigWidgets.so.5:_ZN15KStandardAction8lastPageEPK7QObjectPKcPS0_
libKF5ConfigWidgets.so.5:_ZN15KStandardAction8spellingEPK7QObjectPKcPS0_
libKF5ConfigWidgets.so.5:_ZN15KStandardAction8stdNamesEv
libKF5ConfigWidgets.so.5:_ZN15KStandardAction8tipOfDayEPK7QObjectPKcPS0_
libKF5ConfigWidgets.so.5:_ZN15KStandardAction9actionIdsEv
libKF5ConfigWidgets.so.5:_ZN15KStandardAction9firstPageEPK7QObjectPKcPS0_
libKF5ConfigWidgets.so.5:_ZN15KStandardAction9fitToPageEPK7QObjectPKcPS0_
libKF5ConfigWidgets.so.5:_ZN15KStandardAction9pasteTextEPK7QObjectPKcPS0_
libKF5ConfigWidgets.so.5:_ZN15KStandardAction9redisplayEPK7QObjectPKcPS0_
libKF5ConfigWidgets.so.5:_ZN15KStandardAction9reportBugEPK7QObjectPKcPS0_
libKF5ConfigWidgets.so.5:_ZN15KStandardAction9selectAllEP7QObject
libKF5ConfigWidgets.so.5:_ZN15KStandardAction9selectAllEPK7QObjectPKcPS0_
libKF5ConfigWidgets.so.5:_ZN15KStandardAction9whatsThisEPK7QObjectPKcPS0_
libKF5ConfigWidgets.so.5:_ZN16KPasteTextAction11qt_metacallEN11QMetaObject4CallEiPPv
libKF5ConfigWidgets.so.5:_ZN16KPasteTextAction11qt_metacastEPKc
libKF5ConfigWidgets.so.5:_ZN16KPasteTextAction12setMixedModeEb
libKF5ConfigWidgets.so.5:_ZN16KPasteTextAction16staticMetaObjectE
libKF5ConfigWidgets.so.5:_ZN16KPasteTextActionC1EP7QObject
libKF5ConfigWidgets.so.5:_ZN16KPasteTextActionC1ERK5QIconRK7QStringP7QObject
libKF5ConfigWidgets.so.5:_ZN16KPasteTextActionC1ERK7QStringP7QObject
libKF5ConfigWidgets.so.5:_ZN16KPasteTextActionC2EP7QObject
libKF5ConfigWidgets.so.5:_ZN16KPasteTextActionC2ERK5QIconRK7QStringP7QObject
libKF5ConfigWidgets.so.5:_ZN16KPasteTextActionC2ERK7QStringP7QObject
libKF5ConfigWidgets.so.5:_ZN16KPasteTextActionD0Ev
libKF5ConfigWidgets.so.5:_ZN16KPasteTextActionD1Ev
libKF5ConfigWidgets.so.5:_ZN16KPasteTextActionD2Ev
libKF5ConfigWidgets.so.5:_ZN18KRecentFilesAction11loadEntriesERK12KConfigGroup
libKF5ConfigWidgets.so.5:_ZN18KRecentFilesAction11qt_metacallEN11QMetaObject4CallEiPPv
libKF5ConfigWidgets.so.5:_ZN18KRecentFilesAction11qt_metacastEPKc
libKF5ConfigWidgets.so.5:_ZN18KRecentFilesAction11saveEntriesERK12KConfigGroup
libKF5ConfigWidgets.so.5:_ZN18KRecentFilesAction11setMaxItemsEi
libKF5ConfigWidgets.so.5:_ZN18KRecentFilesAction11urlSelectedERK4QUrl
libKF5ConfigWidgets.so.5:_ZN18KRecentFilesAction12clearEntriesEv
libKF5ConfigWidgets.so.5:_ZN18KRecentFilesAction12removeActionEP7QAction
libKF5ConfigWidgets.so.5:_ZN18KRecentFilesAction16staticMetaObjectE
libKF5ConfigWidgets.so.5:_ZN18KRecentFilesAction17recentListClearedEv
libKF5ConfigWidgets.so.5:_ZN18KRecentFilesAction5clearEv
libKF5ConfigWidgets.so.5:_ZN18KRecentFilesAction6addUrlERK4QUrlRK7QString
libKF5ConfigWidgets.so.5:_ZN18KRecentFilesAction9addActionEP7QActionRK4QUrlRK7QString
libKF5ConfigWidgets.so.5:_ZN18KRecentFilesAction9removeUrlERK4QUrl
libKF5ConfigWidgets.so.5:_ZN18KRecentFilesActionC1EP7QObject
libKF5ConfigWidgets.so.5:_ZN18KRecentFilesActionC1ERK5QIconRK7QStringP7QObject
libKF5ConfigWidgets.so.5:_ZN18KRecentFilesActionC1ERK7QStringP7QObject
libKF5ConfigWidgets.so.5:_ZN18KRecentFilesActionC2EP7QObject
libKF5ConfigWidgets.so.5:_ZN18KRecentFilesActionC2ERK5QIconRK7QStringP7QObject
libKF5ConfigWidgets.so.5:_ZN18KRecentFilesActionC2ERK7QStringP7QObject
libKF5ConfigWidgets.so.5:_ZN18KRecentFilesActionD0Ev
libKF5ConfigWidgets.so.5:_ZN18KRecentFilesActionD1Ev
libKF5ConfigWidgets.so.5:_ZN18KRecentFilesActionD2Ev
libKF5ConfigWidgets.so.5:_ZN19KColorSchemeManager11qt_metacallEN11QMetaObject4CallEiPPv
libKF5ConfigWidgets.so.5:_ZN19KColorSchemeManager11qt_metacastEPKc
libKF5ConfigWidgets.so.5:_ZN19KColorSchemeManager14activateSchemeERK11QModelIndex
libKF5ConfigWidgets.so.5:_ZN19KColorSchemeManager16staticMetaObjectE
libKF5ConfigWidgets.so.5:_ZN19KColorSchemeManager25createSchemeSelectionMenuEP7QObject
libKF5ConfigWidgets.so.5:_ZN19KColorSchemeManager25createSchemeSelectionMenuERK5QIconRK7QStringS5_P7QObject
libKF5ConfigWidgets.so.5:_ZN19KColorSchemeManager25createSchemeSelectionMenuERK7QStringP7QObject
libKF5ConfigWidgets.so.5:_ZN19KColorSchemeManager25createSchemeSelectionMenuERK7QStringS2_P7QObject
libKF5ConfigWidgets.so.5:_ZN19KColorSchemeManagerC1EP7QObject
libKF5ConfigWidgets.so.5:_ZN19KColorSchemeManagerC2EP7QObject
libKF5ConfigWidgets.so.5:_ZN19KColorSchemeManagerD0Ev
libKF5ConfigWidgets.so.5:_ZN19KColorSchemeManagerD1Ev
libKF5ConfigWidgets.so.5:_ZN19KColorSchemeManagerD2Ev
libKF5ConfigWidgets.so.5:_ZN20KConfigDialogManager10changedMapEv
libKF5ConfigWidgets.so.5:_ZN20KConfigDialogManager11propertyMapEv
libKF5ConfigWidgets.so.5:_ZN20KConfigDialogManager11qt_metacallEN11QMetaObject4CallEiPPv
libKF5ConfigWidgets.so.5:_ZN20KConfigDialogManager11qt_metacastEPKc
libKF5ConfigWidgets.so.5:_ZN20KConfigDialogManager11setPropertyEP7QWidgetRK8QVariant
libKF5ConfigWidgets.so.5:_ZN20KConfigDialogManager11setupWidgetEP7QWidgetP19KConfigSkeletonItem
libKF5ConfigWidgets.so.5:_ZN20KConfigDialogManager13parseChildrenEPK7QWidgetb
libKF5ConfigWidgets.so.5:_ZN20KConfigDialogManager13updateWidgetsEv
libKF5ConfigWidgets.so.5:_ZN20KConfigDialogManager14updateSettingsEv
libKF5ConfigWidgets.so.5:_ZN20KConfigDialogManager14widgetModifiedEv
libKF5ConfigWidgets.so.5:_ZN20KConfigDialogManager15settingsChangedEP7QWidget
libKF5ConfigWidgets.so.5:_ZN20KConfigDialogManager15settingsChangedEv
libKF5ConfigWidgets.so.5:_ZN20KConfigDialogManager16staticMetaObjectE
libKF5ConfigWidgets.so.5:_ZN20KConfigDialogManager20updateWidgetsDefaultEv
libKF5ConfigWidgets.so.5:_ZN20KConfigDialogManager28setDefaultsIndicatorsVisibleEb
libKF5ConfigWidgets.so.5:_ZN20KConfigDialogManager4initEb
libKF5ConfigWidgets.so.5:_ZN20KConfigDialogManager8initMapsEv
libKF5ConfigWidgets.so.5:_ZN20KConfigDialogManager9addWidgetEP7QWidget
libKF5ConfigWidgets.so.5:_ZN20KConfigDialogManagerC1EP7QWidgetP15KConfigSkeleton
libKF5ConfigWidgets.so.5:_ZN20KConfigDialogManagerC1EP7QWidgetP19KCoreConfigSkeleton
libKF5ConfigWidgets.so.5:_ZN20KConfigDialogManagerC2EP7QWidgetP15KConfigSkeleton
libKF5ConfigWidgets.so.5:_ZN20KConfigDialogManagerC2EP7QWidgetP19KCoreConfigSkeleton
libKF5ConfigWidgets.so.5:_ZN20KConfigDialogManagerD0Ev
libKF5ConfigWidgets.so.5:_ZN20KConfigDialogManagerD1Ev
libKF5ConfigWidgets.so.5:_ZN20KConfigDialogManagerD2Ev
libKF5ConfigWidgets.so.5:_ZN21KConfigViewStateSaver11qt_metacallEN11QMetaObject4CallEiPPv
libKF5ConfigWidgets.so.5:_ZN21KConfigViewStateSaver11qt_metacastEPKc
libKF5ConfigWidgets.so.5:_ZN21KConfigViewStateSaver12restoreStateERK12KConfigGroup
libKF5ConfigWidgets.so.5:_ZN21KConfigViewStateSaver16staticMetaObjectE
libKF5ConfigWidgets.so.5:_ZN21KConfigViewStateSaver9saveStateER12KConfigGroup
libKF5ConfigWidgets.so.5:_ZN21KConfigViewStateSaverC1EP7QObject
libKF5ConfigWidgets.so.5:_ZN21KConfigViewStateSaverC2EP7QObject
libKF5ConfigWidgets.so.5:_ZN8KCModule10setButtonsE6QFlagsINS_6ButtonEE
libKF5ConfigWidgets.so.5:_ZN8KCModule11qt_metacallEN11QMetaObject4CallEiPPv
libKF5ConfigWidgets.so.5:_ZN8KCModule11qt_metacastEPKc
libKF5ConfigWidgets.so.5:_ZN8KCModule12setAboutDataEPK10KAboutData
libKF5ConfigWidgets.so.5:_ZN8KCModule12setQuickHelpERK7QString
libKF5ConfigWidgets.so.5:_ZN8KCModule13markAsChangedEv
libKF5ConfigWidgets.so.5:_ZN8KCModule13setAuthActionERKN5KAuth6ActionE
libKF5ConfigWidgets.so.5:_ZN8KCModule13setExportTextERK7QString
libKF5ConfigWidgets.so.5:_ZN8KCModule13widgetChangedEv
libKF5ConfigWidgets.so.5:_ZN8KCModule16quickHelpChangedEv
libKF5ConfigWidgets.so.5:_ZN8KCModule16staticMetaObjectE
libKF5ConfigWidgets.so.5:_ZN8KCModule17authStatusChangedEN5KAuth6Action10AuthStatusE
libKF5ConfigWidgets.so.5:_ZN8KCModule18setRootOnlyMessageERK7QString
libKF5ConfigWidgets.so.5:_ZN8KCModule21setNeedsAuthorizationEb
libKF5ConfigWidgets.so.5:_ZN8KCModule21setUseRootOnlyMessageEb
libKF5ConfigWidgets.so.5:_ZN8KCModule22rootOnlyMessageChangedEb7QString
libKF5ConfigWidgets.so.5:_ZN8KCModule26unmanagedWidgetChangeStateEb
libKF5ConfigWidgets.so.5:_ZN8KCModule27unmanagedWidgetDefaultStateEb
libKF5ConfigWidgets.so.5:_ZN8KCModule28setDefaultsIndicatorsVisibleEb
libKF5ConfigWidgets.so.5:_ZN8KCModule32defaultsIndicatorsVisibleChangedEb
libKF5ConfigWidgets.so.5:_ZN8KCModule4loadEv
libKF5ConfigWidgets.so.5:_ZN8KCModule4saveEv
libKF5ConfigWidgets.so.5:_ZN8KCModule7changedEb
libKF5ConfigWidgets.so.5:_ZN8KCModule7changedEv
libKF5ConfigWidgets.so.5:_ZN8KCModule8defaultsEv
libKF5ConfigWidgets.so.5:_ZN8KCModule9addConfigEP15KConfigSkeletonP7QWidget
libKF5ConfigWidgets.so.5:_ZN8KCModule9addConfigEP19KCoreConfigSkeletonP7QWidget
libKF5ConfigWidgets.so.5:_ZN8KCModule9defaultedEb
libKF5ConfigWidgets.so.5:_ZN8KCModule9showEventEP10QShowEvent
libKF5ConfigWidgets.so.5:_ZN8KCModuleC1EP7QWidgetRK5QListI8QVariantE
libKF5ConfigWidgets.so.5:_ZN8KCModuleC1EPK10KAboutDataP7QWidgetRK5QListI8QVariantE
libKF5ConfigWidgets.so.5:_ZN8KCModuleC2EP7QWidgetRK5QListI8QVariantE
libKF5ConfigWidgets.so.5:_ZN8KCModuleC2EPK10KAboutDataP7QWidgetRK5QListI8QVariantE
libKF5ConfigWidgets.so.5:_ZN8KCModuleD0Ev
libKF5ConfigWidgets.so.5:_ZN8KCModuleD1Ev
libKF5ConfigWidgets.so.5:_ZN8KCModuleD2Ev
libKF5ConfigWidgets.so.5:_ZNK10KTipDialog10metaObjectEv
libKF5ConfigWidgets.so.5:_ZNK11KCommandBar10metaObjectEv
libKF5ConfigWidgets.so.5:_ZNK12KCodecAction10metaObjectEv
libKF5ConfigWidgets.so.5:_ZNK12KCodecAction10mibForNameERK7QStringPb
libKF5ConfigWidgets.so.5:_ZNK12KCodecAction11codecForMibEi
libKF5ConfigWidgets.so.5:_ZNK12KCodecAction12currentCodecEv
libKF5ConfigWidgets.so.5:_ZNK12KCodecAction15currentCodecMibEv
libKF5ConfigWidgets.so.5:_ZNK12KCodecAction16currentCodecNameEv
libKF5ConfigWidgets.so.5:_ZNK12KCodecAction17currentProberTypeEv
libKF5ConfigWidgets.so.5:_ZNK12KColorScheme10backgroundENS_14BackgroundRoleE
libKF5ConfigWidgets.so.5:_ZNK12KColorScheme10decorationENS_14DecorationRoleE
libKF5ConfigWidgets.so.5:_ZNK12KColorScheme10foregroundENS_14ForegroundRoleE
libKF5ConfigWidgets.so.5:_ZNK12KColorScheme5shadeENS_9ShadeRoleE
libKF5ConfigWidgets.so.5:_ZNK12KTipDatabase3tipEv
libKF5ConfigWidgets.so.5:_ZNK13KConfigDialog10metaObjectEv
libKF5ConfigWidgets.so.5:_ZNK14KHamburgerMenu10metaObjectEv
libKF5ConfigWidgets.so.5:_ZNK14KHamburgerMenu17menuBarAdvertisedEv
libKF5ConfigWidgets.so.5:_ZNK14KHamburgerMenu7menuBarEv
libKF5ConfigWidgets.so.5:_ZNK14KStatefulBrush5brushEN8QPalette10ColorGroupE
libKF5ConfigWidgets.so.5:_ZNK14KStatefulBrush5brushEPK7QWidget
libKF5ConfigWidgets.so.5:_ZNK14KStatefulBrush5brushERK8QPalette
libKF5ConfigWidgets.so.5:_ZNK15KLanguageButton10metaObjectEv
libKF5ConfigWidgets.so.5:_ZNK15KLanguageButton5countEv
libKF5ConfigWidgets.so.5:_ZNK15KLanguageButton7currentEv
libKF5ConfigWidgets.so.5:_ZNK15KLanguageButton8containsERK7QString
libKF5ConfigWidgets.so.5:_ZNK16KPasteTextAction10metaObjectEv
libKF5ConfigWidgets.so.5:_ZNK18KRecentFilesAction10metaObjectEv
libKF5ConfigWidgets.so.5:_ZNK18KRecentFilesAction4urlsEv
libKF5ConfigWidgets.so.5:_ZNK18KRecentFilesAction8maxItemsEv
libKF5ConfigWidgets.so.5:_ZNK19KColorSchemeManager10metaObjectEv
libKF5ConfigWidgets.so.5:_ZNK19KColorSchemeManager14indexForSchemeERK7QString
libKF5ConfigWidgets.so.5:_ZNK19KColorSchemeManager5modelEv
libKF5ConfigWidgets.so.5:_ZNK20KConfigDialogManager10hasChangedEv
libKF5ConfigWidgets.so.5:_ZNK20KConfigDialogManager10metaObjectEv
libKF5ConfigWidgets.so.5:_ZNK20KConfigDialogManager15getUserPropertyEPK7QWidget
libKF5ConfigWidgets.so.5:_ZNK20KConfigDialogManager17getCustomPropertyEPK7QWidget
libKF5ConfigWidgets.so.5:_ZNK20KConfigDialogManager28getUserPropertyChangedSignalEPK7QWidget
libKF5ConfigWidgets.so.5:_ZNK20KConfigDialogManager30getCustomPropertyChangedSignalEPK7QWidget
libKF5ConfigWidgets.so.5:_ZNK20KConfigDialogManager8propertyEP7QWidget
libKF5ConfigWidgets.so.5:_ZNK20KConfigDialogManager9isDefaultEv
libKF5ConfigWidgets.so.5:_ZNK21KConfigViewStateSaver10metaObjectEv
libKF5ConfigWidgets.so.5:_ZNK8KCModule10authActionEv
libKF5ConfigWidgets.so.5:_ZNK8KCModule10exportTextEv
libKF5ConfigWidgets.so.5:_ZNK8KCModule10metaObjectEv
libKF5ConfigWidgets.so.5:_ZNK8KCModule13componentDataEv
libKF5ConfigWidgets.so.5:_ZNK8KCModule15rootOnlyMessageEv
libKF5ConfigWidgets.so.5:_ZNK8KCModule18needsAuthorizationEv
libKF5ConfigWidgets.so.5:_ZNK8KCModule18useRootOnlyMessageEv
libKF5ConfigWidgets.so.5:_ZNK8KCModule24managedWidgetChangeStateEv
libKF5ConfigWidgets.so.5:_ZNK8KCModule25defaultsIndicatorsVisibleEv
libKF5ConfigWidgets.so.5:_ZNK8KCModule25managedWidgetDefaultStateEv
libKF5ConfigWidgets.so.5:_ZNK8KCModule7buttonsEv
libKF5ConfigWidgets.so.5:_ZNK8KCModule7configsEv
libKF5ConfigWidgets.so.5:_ZNK8KCModule9aboutDataEv
libKF5ConfigWidgets.so.5:_ZNK8KCModule9quickHelpEv
libKF5ConfigWidgets.so.5:_ZTI10KTipDialog
libKF5ConfigWidgets.so.5:_ZTI11KCommandBar
libKF5ConfigWidgets.so.5:_ZTI12KCodecAction
libKF5ConfigWidgets.so.5:_ZTI12KColorScheme
libKF5ConfigWidgets.so.5:_ZTI13KConfigDialog
libKF5ConfigWidgets.so.5:_ZTI14KHamburgerMenu
libKF5ConfigWidgets.so.5:_ZTI15KLanguageButton
libKF5ConfigWidgets.so.5:_ZTI16KPasteTextAction
libKF5ConfigWidgets.so.5:_ZTI18KRecentFilesAction
libKF5ConfigWidgets.so.5:_ZTI19KColorSchemeManager
libKF5ConfigWidgets.so.5:_ZTI20KConfigDialogManager
libKF5ConfigWidgets.so.5:_ZTI21KConfigViewStateSaver
libKF5ConfigWidgets.so.5:_ZTI8KCModule
libKF5ConfigWidgets.so.5:_ZTS10KTipDialog
libKF5ConfigWidgets.so.5:_ZTS11KCommandBar
libKF5ConfigWidgets.so.5:_ZTS12KCodecAction
libKF5ConfigWidgets.so.5:_ZTS12KColorScheme
libKF5ConfigWidgets.so.5:_ZTS13KConfigDialog
libKF5ConfigWidgets.so.5:_ZTS14KHamburgerMenu
libKF5ConfigWidgets.so.5:_ZTS15KLanguageButton
libKF5ConfigWidgets.so.5:_ZTS16KPasteTextAction
libKF5ConfigWidgets.so.5:_ZTS18KRecentFilesAction
libKF5ConfigWidgets.so.5:_ZTS19KColorSchemeManager
libKF5ConfigWidgets.so.5:_ZTS20KConfigDialogManager
libKF5ConfigWidgets.so.5:_ZTS21KConfigViewStateSaver
libKF5ConfigWidgets.so.5:_ZTS8KCModule
libKF5ConfigWidgets.so.5:_ZTV10KTipDialog
libKF5ConfigWidgets.so.5:_ZTV11KCommandBar
libKF5ConfigWidgets.so.5:_ZTV12KCodecAction
libKF5ConfigWidgets.so.5:_ZTV12KColorScheme
libKF5ConfigWidgets.so.5:_ZTV13KConfigDialog
libKF5ConfigWidgets.so.5:_ZTV14KHamburgerMenu
libKF5ConfigWidgets.so.5:_ZTV15KLanguageButton
libKF5ConfigWidgets.so.5:_ZTV16KPasteTextAction
libKF5ConfigWidgets.so.5:_ZTV18KRecentFilesAction
libKF5ConfigWidgets.so.5:_ZTV19KColorSchemeManager
libKF5ConfigWidgets.so.5:_ZTV20KConfigDialogManager
libKF5ConfigWidgets.so.5:_ZTV21KConfigViewStateSaver
libKF5ConfigWidgets.so.5:_ZTV8KCModule
libKF5ConfigWidgets.so.5:_ZThn16_N10KTipDialogD0Ev
libKF5ConfigWidgets.so.5:_ZThn16_N10KTipDialogD1Ev
libKF5ConfigWidgets.so.5:_ZThn16_N11KCommandBarD0Ev
libKF5ConfigWidgets.so.5:_ZThn16_N11KCommandBarD1Ev
libKF5ConfigWidgets.so.5:_ZThn16_N13KConfigDialogD0Ev
libKF5ConfigWidgets.so.5:_ZThn16_N13KConfigDialogD1Ev
libKF5ConfigWidgets.so.5:_ZThn16_N15KLanguageButtonD0Ev
libKF5ConfigWidgets.so.5:_ZThn16_N15KLanguageButtonD1Ev
libKF5ConfigWidgets.so.5:_ZThn16_N8KCModuleD0Ev
libKF5ConfigWidgets.so.5:_ZThn16_N8KCModuleD1Ev
