libPocoActiveRecord.so.94:_ZN4Poco12ActiveRecord16ActiveRecordBase6attachENS_7AutoPtrINS0_7ContextEEE
libPocoActiveRecord.so.94:_ZN4Poco12ActiveRecord16ActiveRecordBase6createENS_7AutoPtrINS0_7ContextEEE
libPocoActiveRecord.so.94:_ZN4Poco12ActiveRecord16ActiveRecordBase6detachEv
libPocoActiveRecord.so.94:_ZN4Poco12ActiveRecord28StatementPlaceholderProviderD0Ev
libPocoActiveRecord.so.94:_ZN4Poco12ActiveRecord28StatementPlaceholderProviderD1Ev
libPocoActiveRecord.so.94:_ZN4Poco12ActiveRecord28StatementPlaceholderProviderD2Ev
libPocoActiveRecord.so.94:_ZN4Poco12ActiveRecord35DefaultStatementPlaceholderProvider4nextB5cxx11Ev
libPocoActiveRecord.so.94:_ZN4Poco12ActiveRecord35DefaultStatementPlaceholderProvider5resetEv
libPocoActiveRecord.so.94:_ZN4Poco12ActiveRecord36PostgresStatementPlaceholderProvider4nextB5cxx11Ev
libPocoActiveRecord.so.94:_ZN4Poco12ActiveRecord36PostgresStatementPlaceholderProvider5resetEv
libPocoActiveRecord.so.94:_ZN4Poco12ActiveRecord7ContextC1ERKNS_4Data7SessionE
libPocoActiveRecord.so.94:_ZN4Poco12ActiveRecord7ContextC1ERKNSt7__cxx1112basic_stringIcSt11char_traitsIcESaIcEEES9_
libPocoActiveRecord.so.94:_ZN4Poco12ActiveRecord7ContextC2ERKNS_4Data7SessionE
libPocoActiveRecord.so.94:_ZN4Poco12ActiveRecord7ContextC2ERKNSt7__cxx1112basic_stringIcSt11char_traitsIcESaIcEEES9_
libPocoActiveRecord.so.94:_ZN4Poco12ActiveRecord8IDTraitsINS_4UUIDEE10INVALID_IDE
libPocoActiveRecord.so.94:_ZN4Poco12ActiveRecord8IDTraitsINSt7__cxx1112basic_stringIcSt11char_traitsIcESaIcEEEE10INVALID_IDE
libPocoActiveRecord.so.94:_ZNK4Poco12ActiveRecord16ActiveRecordBase7isValidEv
libPocoActiveRecord.so.94:_ZNK4Poco12ActiveRecord19KeylessActiveRecord8toStringB5cxx11Ev
libPocoActiveRecord.so.94:_ZNK4Poco12ActiveRecord7Context28statementPlaceholderProviderEv
libPocoCrypto.so.94:_ZN4Poco6Crypto10CipherImpl15createDecryptorEv
libPocoCrypto.so.94:_ZN4Poco6Crypto10CipherImpl15createEncryptorEv
libPocoCrypto.so.94:_ZN4Poco6Crypto10CipherImplC1ERKNS0_9CipherKeyE
libPocoCrypto.so.94:_ZN4Poco6Crypto10CipherImplC2ERKNS0_9CipherKeyE
libPocoCrypto.so.94:_ZN4Poco6Crypto10CipherImplD0Ev
libPocoCrypto.so.94:_ZN4Poco6Crypto10CipherImplD1Ev
libPocoCrypto.so.94:_ZN4Poco6Crypto10CipherImplD2Ev
libPocoCrypto.so.94:_ZN4Poco6Crypto10RSAKeyImpl16convertToByteVecEPK9bignum_st
libPocoCrypto.so.94:_ZN4Poco6Crypto10RSAKeyImpl7freeRSAEv
libPocoCrypto.so.94:_ZN4Poco6Crypto10RSAKeyImplC1EPSiS2_RKNSt7__cxx1112basic_stringIcSt11char_traitsIcESaIcEEE
libPocoCrypto.so.94:_ZN4Poco6Crypto10RSAKeyImplC1ERKNS0_15PKCS12ContainerE
libPocoCrypto.so.94:_ZN4Poco6Crypto10RSAKeyImplC1ERKNS0_15X509CertificateE
libPocoCrypto.so.94:_ZN4Poco6Crypto10RSAKeyImplC1ERKNS0_7EVPPKeyE
libPocoCrypto.so.94:_ZN4Poco6Crypto10RSAKeyImplC1ERKNSt7__cxx1112basic_stringIcSt11char_traitsIcESaIcEEES9_S9_
libPocoCrypto.so.94:_ZN4Poco6Crypto10RSAKeyImplC1Eim
libPocoCrypto.so.94:_ZN4Poco6Crypto10RSAKeyImplC2EPSiS2_RKNSt7__cxx1112basic_stringIcSt11char_traitsIcESaIcEEE
libPocoCrypto.so.94:_ZN4Poco6Crypto10RSAKeyImplC2ERKNS0_15PKCS12ContainerE
libPocoCrypto.so.94:_ZN4Poco6Crypto10RSAKeyImplC2ERKNS0_15X509CertificateE
libPocoCrypto.so.94:_ZN4Poco6Crypto10RSAKeyImplC2ERKNS0_7EVPPKeyE
libPocoCrypto.so.94:_ZN4Poco6Crypto10RSAKeyImplC2ERKNSt7__cxx1112basic_stringIcSt11char_traitsIcESaIcEEES9_S9_
libPocoCrypto.so.94:_ZN4Poco6Crypto10RSAKeyImplC2Eim
libPocoCrypto.so.94:_ZN4Poco6Crypto10RSAKeyImplD0Ev
libPocoCrypto.so.94:_ZN4Poco6Crypto10RSAKeyImplD1Ev
libPocoCrypto.so.94:_ZN4Poco6Crypto10RSAKeyImplD2Ev
libPocoCrypto.so.94:_ZN4Poco6Crypto11KeyPairImplC1ERKNSt7__cxx1112basic_stringIcSt11char_traitsIcESaIcEEENS1_4TypeE
libPocoCrypto.so.94:_ZN4Poco6Crypto11KeyPairImplC2ERKNSt7__cxx1112basic_stringIcSt11char_traitsIcESaIcEEENS1_4TypeE
libPocoCrypto.so.94:_ZN4Poco6Crypto11KeyPairImplD0Ev
libPocoCrypto.so.94:_ZN4Poco6Crypto11KeyPairImplD1Ev
libPocoCrypto.so.94:_ZN4Poco6Crypto11KeyPairImplD2Ev
libPocoCrypto.so.94:_ZN4Poco6Crypto12DigestEngine10updateImplEPKvm
libPocoCrypto.so.94:_ZN4Poco6Crypto12DigestEngine5resetEv
libPocoCrypto.so.94:_ZN4Poco6Crypto12DigestEngine6digestEv
libPocoCrypto.so.94:_ZN4Poco6Crypto12DigestEngineC1ERKNSt7__cxx1112basic_stringIcSt11char_traitsIcESaIcEEE
libPocoCrypto.so.94:_ZN4Poco6Crypto12DigestEngineC2ERKNSt7__cxx1112basic_stringIcSt11char_traitsIcESaIcEEE
libPocoCrypto.so.94:_ZN4Poco6Crypto12DigestEngineD0Ev
libPocoCrypto.so.94:_ZN4Poco6Crypto12DigestEngineD1Ev
libPocoCrypto.so.94:_ZN4Poco6Crypto12DigestEngineD2Ev
libPocoCrypto.so.94:_ZN4Poco6Crypto13CipherFactory12createCipherERKNS0_6RSAKeyE14RSAPaddingMode
libPocoCrypto.so.94:_ZN4Poco6Crypto13CipherFactory12createCipherERKNS0_7EVPPKeyE
libPocoCrypto.so.94:_ZN4Poco6Crypto13CipherFactory12createCipherERKNS0_9CipherKeyE
libPocoCrypto.so.94:_ZN4Poco6Crypto13CipherFactory14defaultFactoryEv
libPocoCrypto.so.94:_ZN4Poco6Crypto13CipherFactoryC1Ev
libPocoCrypto.so.94:_ZN4Poco6Crypto13CipherFactoryC2Ev
libPocoCrypto.so.94:_ZN4Poco6Crypto13CipherFactoryD0Ev
libPocoCrypto.so.94:_ZN4Poco6Crypto13CipherFactoryD1Ev
libPocoCrypto.so.94:_ZN4Poco6Crypto13CipherFactoryD2Ev
libPocoCrypto.so.94:_ZN4Poco6Crypto13CipherKeyImpl11generateKeyERKNSt7__cxx1112basic_stringIcSt11char_traitsIcESaIcEEES9_i
libPocoCrypto.so.94:_ZN4Poco6Crypto13CipherKeyImpl11generateKeyEv
libPocoCrypto.so.94:_ZN4Poco6Crypto13CipherKeyImpl14getRandomBytesERSt6vectorIhSaIhEEm
libPocoCrypto.so.94:_ZN4Poco6Crypto13CipherKeyImpl5setIVERKSt6vectorIhSaIhEE
libPocoCrypto.so.94:_ZN4Poco6Crypto13CipherKeyImplC1ERKNSt7__cxx1112basic_stringIcSt11char_traitsIcESaIcEEE
libPocoCrypto.so.94:_ZN4Poco6Crypto13CipherKeyImplC1ERKNSt7__cxx1112basic_stringIcSt11char_traitsIcESaIcEEERKSt6vectorIhSaIhEESE_
libPocoCrypto.so.94:_ZN4Poco6Crypto13CipherKeyImplC1ERKNSt7__cxx1112basic_stringIcSt11char_traitsIcESaIcEEES9_S9_iS9_
libPocoCrypto.so.94:_ZN4Poco6Crypto13CipherKeyImplC2ERKNSt7__cxx1112basic_stringIcSt11char_traitsIcESaIcEEE
libPocoCrypto.so.94:_ZN4Poco6Crypto13CipherKeyImplC2ERKNSt7__cxx1112basic_stringIcSt11char_traitsIcESaIcEEERKSt6vectorIhSaIhEESE_
libPocoCrypto.so.94:_ZN4Poco6Crypto13CipherKeyImplC2ERKNSt7__cxx1112basic_stringIcSt11char_traitsIcESaIcEEES9_S9_iS9_
libPocoCrypto.so.94:_ZN4Poco6Crypto13CipherKeyImplD0Ev
libPocoCrypto.so.94:_ZN4Poco6Crypto13CipherKeyImplD1Ev
libPocoCrypto.so.94:_ZN4Poco6Crypto13CipherKeyImplD2Ev
libPocoCrypto.so.94:_ZN4Poco6Crypto13EVPCipherImpl15createDecryptorEv
libPocoCrypto.so.94:_ZN4Poco6Crypto13EVPCipherImpl15createEncryptorEv
libPocoCrypto.so.94:_ZN4Poco6Crypto13EVPCipherImplC1ERKNS0_7EVPPKeyE
libPocoCrypto.so.94:_ZN4Poco6Crypto13EVPCipherImplC2ERKNS0_7EVPPKeyE
libPocoCrypto.so.94:_ZN4Poco6Crypto13EVPCipherImplD0Ev
libPocoCrypto.so.94:_ZN4Poco6Crypto13EVPCipherImplD1Ev
libPocoCrypto.so.94:_ZN4Poco6Crypto13EVPCipherImplD2Ev
libPocoCrypto.so.94:_ZN4Poco6Crypto13RSACipherImpl15createDecryptorEv
libPocoCrypto.so.94:_ZN4Poco6Crypto13RSACipherImpl15createEncryptorEv
libPocoCrypto.so.94:_ZN4Poco6Crypto13RSACipherImplC1ERKNS0_6RSAKeyE14RSAPaddingMode
libPocoCrypto.so.94:_ZN4Poco6Crypto13RSACipherImplC2ERKNS0_6RSAKeyE14RSAPaddingMode
libPocoCrypto.so.94:_ZN4Poco6Crypto13RSACipherImplD0Ev
libPocoCrypto.so.94:_ZN4Poco6Crypto13RSACipherImplD1Ev
libPocoCrypto.so.94:_ZN4Poco6Crypto13RSACipherImplD2Ev
libPocoCrypto.so.94:_ZN4Poco6Crypto14ECDSASignatureC1ERKSt6vectorIhSaIhEE
libPocoCrypto.so.94:_ZN4Poco6Crypto14ECDSASignatureC1ERKSt6vectorIhSaIhEES6_
libPocoCrypto.so.94:_ZN4Poco6Crypto14ECDSASignatureC2ERKSt6vectorIhSaIhEE
libPocoCrypto.so.94:_ZN4Poco6Crypto14ECDSASignatureC2ERKSt6vectorIhSaIhEES6_
libPocoCrypto.so.94:_ZN4Poco6Crypto14ECDSASignatureD1Ev
libPocoCrypto.so.94:_ZN4Poco6Crypto14ECDSASignatureD2Ev
libPocoCrypto.so.94:_ZN4Poco6Crypto15CryptoExceptionC1ERKNSt7__cxx1112basic_stringIcSt11char_traitsIcESaIcEEERKNS_9ExceptionEi
libPocoCrypto.so.94:_ZN4Poco6Crypto15CryptoExceptionC1ERKNSt7__cxx1112basic_stringIcSt11char_traitsIcESaIcEEES9_i
libPocoCrypto.so.94:_ZN4Poco6Crypto15CryptoExceptionC1ERKNSt7__cxx1112basic_stringIcSt11char_traitsIcESaIcEEEi
libPocoCrypto.so.94:_ZN4Poco6Crypto15CryptoExceptionC1ERKS1_
libPocoCrypto.so.94:_ZN4Poco6Crypto15CryptoExceptionC1Ei
libPocoCrypto.so.94:_ZN4Poco6Crypto15CryptoExceptionC2ERKNSt7__cxx1112basic_stringIcSt11char_traitsIcESaIcEEERKNS_9ExceptionEi
libPocoCrypto.so.94:_ZN4Poco6Crypto15CryptoExceptionC2ERKNSt7__cxx1112basic_stringIcSt11char_traitsIcESaIcEEES9_i
libPocoCrypto.so.94:_ZN4Poco6Crypto15CryptoExceptionC2ERKNSt7__cxx1112basic_stringIcSt11char_traitsIcESaIcEEEi
libPocoCrypto.so.94:_ZN4Poco6Crypto15CryptoExceptionC2ERKS1_
libPocoCrypto.so.94:_ZN4Poco6Crypto15CryptoExceptionC2Ei
libPocoCrypto.so.94:_ZN4Poco6Crypto15CryptoExceptionD0Ev
libPocoCrypto.so.94:_ZN4Poco6Crypto15CryptoExceptionD1Ev
libPocoCrypto.so.94:_ZN4Poco6Crypto15CryptoExceptionD2Ev
libPocoCrypto.so.94:_ZN4Poco6Crypto15CryptoExceptionaSERKS1_
libPocoCrypto.so.94:_ZN4Poco6Crypto15CryptoStreamBuf13writeToDeviceEPKcl
libPocoCrypto.so.94:_ZN4Poco6Crypto15CryptoStreamBuf14readFromDeviceEPcl
libPocoCrypto.so.94:_ZN4Poco6Crypto15CryptoStreamBuf5closeEv
libPocoCrypto.so.94:_ZN4Poco6Crypto15CryptoStreamBufC1ERSiNS_9SharedPtrINS0_15CryptoTransformENS_16ReferenceCounterENS_13ReleasePolicyIS4_EEEEl
libPocoCrypto.so.94:_ZN4Poco6Crypto15CryptoStreamBufC1ERSoNS_9SharedPtrINS0_15CryptoTransformENS_16ReferenceCounterENS_13ReleasePolicyIS4_EEEEl
libPocoCrypto.so.94:_ZN4Poco6Crypto15CryptoStreamBufC2ERSiNS_9SharedPtrINS0_15CryptoTransformENS_16ReferenceCounterENS_13ReleasePolicyIS4_EEEEl
libPocoCrypto.so.94:_ZN4Poco6Crypto15CryptoStreamBufC2ERSoNS_9SharedPtrINS0_15CryptoTransformENS_16ReferenceCounterENS_13ReleasePolicyIS4_EEEEl
libPocoCrypto.so.94:_ZN4Poco6Crypto15CryptoStreamBufD0Ev
libPocoCrypto.so.94:_ZN4Poco6Crypto15CryptoStreamBufD1Ev
libPocoCrypto.so.94:_ZN4Poco6Crypto15CryptoStreamBufD2Ev
libPocoCrypto.so.94:_ZN4Poco6Crypto15CryptoTransform10setPaddingEi
libPocoCrypto.so.94:_ZN4Poco6Crypto15CryptoTransformC1Ev
libPocoCrypto.so.94:_ZN4Poco6Crypto15CryptoTransformC2Ev
libPocoCrypto.so.94:_ZN4Poco6Crypto15CryptoTransformD0Ev
libPocoCrypto.so.94:_ZN4Poco6Crypto15CryptoTransformD1Ev
libPocoCrypto.so.94:_ZN4Poco6Crypto15CryptoTransformD2Ev
libPocoCrypto.so.94:_ZN4Poco6Crypto15PKCS12Container19extractFriendlyNameB5cxx11EP7x509_st
libPocoCrypto.so.94:_ZN4Poco6Crypto15PKCS12Container4loadEP9PKCS12_stRKNSt7__cxx1112basic_stringIcSt11char_traitsIcESaIcEEE
libPocoCrypto.so.94:_ZN4Poco6Crypto15PKCS12ContainerC1EOS1_
libPocoCrypto.so.94:_ZN4Poco6Crypto15PKCS12ContainerC1ERKNSt7__cxx1112basic_stringIcSt11char_traitsIcESaIcEEES9_
libPocoCrypto.so.94:_ZN4Poco6Crypto15PKCS12ContainerC1ERKS1_
libPocoCrypto.so.94:_ZN4Poco6Crypto15PKCS12ContainerC1ERSiRKNSt7__cxx1112basic_stringIcSt11char_traitsIcESaIcEEE
libPocoCrypto.so.94:_ZN4Poco6Crypto15PKCS12ContainerC2EOS1_
libPocoCrypto.so.94:_ZN4Poco6Crypto15PKCS12ContainerC2ERKNSt7__cxx1112basic_stringIcSt11char_traitsIcESaIcEEES9_
libPocoCrypto.so.94:_ZN4Poco6Crypto15PKCS12ContainerC2ERKS1_
libPocoCrypto.so.94:_ZN4Poco6Crypto15PKCS12ContainerC2ERSiRKNSt7__cxx1112basic_stringIcSt11char_traitsIcESaIcEEE
libPocoCrypto.so.94:_ZN4Poco6Crypto15PKCS12ContainerD1Ev
libPocoCrypto.so.94:_ZN4Poco6Crypto15PKCS12ContainerD2Ev
libPocoCrypto.so.94:_ZN4Poco6Crypto15PKCS12ContaineraSEOS1_
libPocoCrypto.so.94:_ZN4Poco6Crypto15PKCS12ContaineraSERKS1_
libPocoCrypto.so.94:_ZN4Poco6Crypto15RSADigestEngine10updateImplEPKvm
libPocoCrypto.so.94:_ZN4Poco6Crypto15RSADigestEngine5resetEv
libPocoCrypto.so.94:_ZN4Poco6Crypto15RSADigestEngine6digestEv
libPocoCrypto.so.94:_ZN4Poco6Crypto15RSADigestEngine6verifyERKSt6vectorIhSaIhEE
libPocoCrypto.so.94:_ZN4Poco6Crypto15RSADigestEngine9signatureEv
libPocoCrypto.so.94:_ZN4Poco6Crypto15RSADigestEngineC1ERKNS0_6RSAKeyENS1_10DigestTypeE
libPocoCrypto.so.94:_ZN4Poco6Crypto15RSADigestEngineC1ERKNS0_6RSAKeyERKNSt7__cxx1112basic_stringIcSt11char_traitsIcESaIcEEE
libPocoCrypto.so.94:_ZN4Poco6Crypto15RSADigestEngineC2ERKNS0_6RSAKeyENS1_10DigestTypeE
libPocoCrypto.so.94:_ZN4Poco6Crypto15RSADigestEngineC2ERKNS0_6RSAKeyERKNSt7__cxx1112basic_stringIcSt11char_traitsIcESaIcEEE
libPocoCrypto.so.94:_ZN4Poco6Crypto15RSADigestEngineD0Ev
libPocoCrypto.so.94:_ZN4Poco6Crypto15RSADigestEngineD1Ev
libPocoCrypto.so.94:_ZN4Poco6Crypto15RSADigestEngineD2Ev
libPocoCrypto.so.94:_ZN4Poco6Crypto15X509Certificate4initEv
libPocoCrypto.so.94:_ZN4Poco6Crypto15X509Certificate4loadERKNSt7__cxx1112basic_stringIcSt11char_traitsIcESaIcEEE
libPocoCrypto.so.94:_ZN4Poco6Crypto15X509Certificate4loadERSi
libPocoCrypto.so.94:_ZN4Poco6Crypto15X509Certificate4swapERS1_
libPocoCrypto.so.94:_ZN4Poco6Crypto15X509Certificate7readPEMERKNSt7__cxx1112basic_stringIcSt11char_traitsIcESaIcEEE
libPocoCrypto.so.94:_ZN4Poco6Crypto15X509Certificate8writePEMERKNSt7__cxx1112basic_stringIcSt11char_traitsIcESaIcEEERKSt6vectorIS1_SaIS1_EE
libPocoCrypto.so.94:_ZN4Poco6Crypto15X509CertificateC1EOS1_
libPocoCrypto.so.94:_ZN4Poco6Crypto15X509CertificateC1EP7x509_st
libPocoCrypto.so.94:_ZN4Poco6Crypto15X509CertificateC1EP7x509_stb
libPocoCrypto.so.94:_ZN4Poco6Crypto15X509CertificateC1ERKNSt7__cxx1112basic_stringIcSt11char_traitsIcESaIcEEE
libPocoCrypto.so.94:_ZN4Poco6Crypto15X509CertificateC1ERKS1_
libPocoCrypto.so.94:_ZN4Poco6Crypto15X509CertificateC1ERSi
libPocoCrypto.so.94:_ZN4Poco6Crypto15X509CertificateC2EOS1_
libPocoCrypto.so.94:_ZN4Poco6Crypto15X509CertificateC2EP7x509_st
libPocoCrypto.so.94:_ZN4Poco6Crypto15X509CertificateC2EP7x509_stb
libPocoCrypto.so.94:_ZN4Poco6Crypto15X509CertificateC2ERKNSt7__cxx1112basic_stringIcSt11char_traitsIcESaIcEEE
libPocoCrypto.so.94:_ZN4Poco6Crypto15X509CertificateC2ERKS1_
libPocoCrypto.so.94:_ZN4Poco6Crypto15X509CertificateC2ERSi
libPocoCrypto.so.94:_ZN4Poco6Crypto15X509CertificateD1Ev
libPocoCrypto.so.94:_ZN4Poco6Crypto15X509CertificateD2Ev
libPocoCrypto.so.94:_ZN4Poco6Crypto15X509CertificateaSEOS1_
libPocoCrypto.so.94:_ZN4Poco6Crypto15X509CertificateaSERKS1_
libPocoCrypto.so.94:_ZN4Poco6Crypto16OpenSSLException13setExtMessageEv
libPocoCrypto.so.94:_ZN4Poco6Crypto16OpenSSLExceptionC1ERKNSt7__cxx1112basic_stringIcSt11char_traitsIcESaIcEEERKNS_9ExceptionEi
libPocoCrypto.so.94:_ZN4Poco6Crypto16OpenSSLExceptionC1ERKNSt7__cxx1112basic_stringIcSt11char_traitsIcESaIcEEES9_i
libPocoCrypto.so.94:_ZN4Poco6Crypto16OpenSSLExceptionC1ERKNSt7__cxx1112basic_stringIcSt11char_traitsIcESaIcEEEi
libPocoCrypto.so.94:_ZN4Poco6Crypto16OpenSSLExceptionC1ERKS1_
libPocoCrypto.so.94:_ZN4Poco6Crypto16OpenSSLExceptionC1Ei
libPocoCrypto.so.94:_ZN4Poco6Crypto16OpenSSLExceptionC2ERKNSt7__cxx1112basic_stringIcSt11char_traitsIcESaIcEEERKNS_9ExceptionEi
libPocoCrypto.so.94:_ZN4Poco6Crypto16OpenSSLExceptionC2ERKNSt7__cxx1112basic_stringIcSt11char_traitsIcESaIcEEES9_i
libPocoCrypto.so.94:_ZN4Poco6Crypto16OpenSSLExceptionC2ERKNSt7__cxx1112basic_stringIcSt11char_traitsIcESaIcEEEi
libPocoCrypto.so.94:_ZN4Poco6Crypto16OpenSSLExceptionC2ERKS1_
libPocoCrypto.so.94:_ZN4Poco6Crypto16OpenSSLExceptionC2Ei
libPocoCrypto.so.94:_ZN4Poco6Crypto16OpenSSLExceptionD0Ev
libPocoCrypto.so.94:_ZN4Poco6Crypto16OpenSSLExceptionD1Ev
libPocoCrypto.so.94:_ZN4Poco6Crypto16OpenSSLExceptionD2Ev
libPocoCrypto.so.94:_ZN4Poco6Crypto16OpenSSLExceptionaSERKS1_
libPocoCrypto.so.94:_ZN4Poco6Crypto16initializeCryptoEv
libPocoCrypto.so.94:_ZN4Poco6Crypto17CryptoInputStreamC1ERSiNS_9SharedPtrINS0_15CryptoTransformENS_16ReferenceCounterENS_13ReleasePolicyIS4_EEEEl
libPocoCrypto.so.94:_ZN4Poco6Crypto17CryptoInputStreamC1ERSiRNS0_6CipherEl
libPocoCrypto.so.94:_ZN4Poco6Crypto17CryptoInputStreamC2ERSiNS_9SharedPtrINS0_15CryptoTransformENS_16ReferenceCounterENS_13ReleasePolicyIS4_EEEEl
libPocoCrypto.so.94:_ZN4Poco6Crypto17CryptoInputStreamC2ERSiRNS0_6CipherEl
libPocoCrypto.so.94:_ZN4Poco6Crypto17CryptoInputStreamD0Ev
libPocoCrypto.so.94:_ZN4Poco6Crypto17CryptoInputStreamD1Ev
libPocoCrypto.so.94:_ZN4Poco6Crypto17CryptoInputStreamD2Ev
libPocoCrypto.so.94:_ZN4Poco6Crypto17ECDSADigestEngine10updateImplEPKvm
libPocoCrypto.so.94:_ZN4Poco6Crypto17ECDSADigestEngine5resetEv
libPocoCrypto.so.94:_ZN4Poco6Crypto17ECDSADigestEngine6digestEv
libPocoCrypto.so.94:_ZN4Poco6Crypto17ECDSADigestEngine6verifyERKSt6vectorIhSaIhEE
libPocoCrypto.so.94:_ZN4Poco6Crypto17ECDSADigestEngine9signatureEv
libPocoCrypto.so.94:_ZN4Poco6Crypto17ECDSADigestEngineC1ERKNS0_5ECKeyERKNSt7__cxx1112basic_stringIcSt11char_traitsIcESaIcEEE
libPocoCrypto.so.94:_ZN4Poco6Crypto17ECDSADigestEngineC2ERKNS0_5ECKeyERKNSt7__cxx1112basic_stringIcSt11char_traitsIcESaIcEEE
libPocoCrypto.so.94:_ZN4Poco6Crypto17ECDSADigestEngineD0Ev
libPocoCrypto.so.94:_ZN4Poco6Crypto17ECDSADigestEngineD1Ev
libPocoCrypto.so.94:_ZN4Poco6Crypto17ECDSADigestEngineD2Ev
libPocoCrypto.so.94:_ZN4Poco6Crypto18CryptoOutputStream5closeEv
libPocoCrypto.so.94:_ZN4Poco6Crypto18CryptoOutputStreamC1ERSoNS_9SharedPtrINS0_15CryptoTransformENS_16ReferenceCounterENS_13ReleasePolicyIS4_EEEEl
libPocoCrypto.so.94:_ZN4Poco6Crypto18CryptoOutputStreamC1ERSoRNS0_6CipherEl
libPocoCrypto.so.94:_ZN4Poco6Crypto18CryptoOutputStreamC2ERSoNS_9SharedPtrINS0_15CryptoTransformENS_16ReferenceCounterENS_13ReleasePolicyIS4_EEEEl
libPocoCrypto.so.94:_ZN4Poco6Crypto18CryptoOutputStreamC2ERSoRNS0_6CipherEl
libPocoCrypto.so.94:_ZN4Poco6Crypto18CryptoOutputStreamD0Ev
libPocoCrypto.so.94:_ZN4Poco6Crypto18CryptoOutputStreamD1Ev
libPocoCrypto.so.94:_ZN4Poco6Crypto18CryptoOutputStreamD2Ev
libPocoCrypto.so.94:_ZN4Poco6Crypto18OpenSSLInitializer10initializeEv
libPocoCrypto.so.94:_ZN4Poco6Crypto18OpenSSLInitializer12uninitializeEv
libPocoCrypto.so.94:_ZN4Poco6Crypto18OpenSSLInitializer15_legacyProviderE
libPocoCrypto.so.94:_ZN4Poco6Crypto18OpenSSLInitializer16_defaultProviderE
libPocoCrypto.so.94:_ZN4Poco6Crypto18OpenSSLInitializer3_rcE
libPocoCrypto.so.94:_ZN4Poco6Crypto18OpenSSLInitializerC1Ev
libPocoCrypto.so.94:_ZN4Poco6Crypto18OpenSSLInitializerC2Ev
libPocoCrypto.so.94:_ZN4Poco6Crypto18OpenSSLInitializerD1Ev
libPocoCrypto.so.94:_ZN4Poco6Crypto18OpenSSLInitializerD2Ev
libPocoCrypto.so.94:_ZN4Poco6Crypto18uninitializeCryptoEv
libPocoCrypto.so.94:_ZN4Poco6Crypto21DecryptingInputStreamC1ERSiRNS0_6CipherEl
libPocoCrypto.so.94:_ZN4Poco6Crypto21DecryptingInputStreamC2ERSiRNS0_6CipherEl
libPocoCrypto.so.94:_ZN4Poco6Crypto21DecryptingInputStreamD0Ev
libPocoCrypto.so.94:_ZN4Poco6Crypto21DecryptingInputStreamD1Ev
libPocoCrypto.so.94:_ZN4Poco6Crypto21DecryptingInputStreamD2Ev
libPocoCrypto.so.94:_ZN4Poco6Crypto21EncryptingInputStreamC1ERSiRNS0_6CipherEl
libPocoCrypto.so.94:_ZN4Poco6Crypto21EncryptingInputStreamC2ERSiRNS0_6CipherEl
libPocoCrypto.so.94:_ZN4Poco6Crypto21EncryptingInputStreamD0Ev
libPocoCrypto.so.94:_ZN4Poco6Crypto21EncryptingInputStreamD1Ev
libPocoCrypto.so.94:_ZN4Poco6Crypto21EncryptingInputStreamD2Ev
libPocoCrypto.so.94:_ZN4Poco6Crypto22DecryptingOutputStream5closeEv
libPocoCrypto.so.94:_ZN4Poco6Crypto22DecryptingOutputStreamC1ERSoRNS0_6CipherEl
libPocoCrypto.so.94:_ZN4Poco6Crypto22DecryptingOutputStreamC2ERSoRNS0_6CipherEl
libPocoCrypto.so.94:_ZN4Poco6Crypto22DecryptingOutputStreamD0Ev
libPocoCrypto.so.94:_ZN4Poco6Crypto22DecryptingOutputStreamD1Ev
libPocoCrypto.so.94:_ZN4Poco6Crypto22DecryptingOutputStreamD2Ev
libPocoCrypto.so.94:_ZN4Poco6Crypto22EncryptingOutputStream5closeEv
libPocoCrypto.so.94:_ZN4Poco6Crypto22EncryptingOutputStreamC1ERSoRNS0_6CipherEl
libPocoCrypto.so.94:_ZN4Poco6Crypto22EncryptingOutputStreamC2ERSoRNS0_6CipherEl
libPocoCrypto.so.94:_ZN4Poco6Crypto22EncryptingOutputStreamD0Ev
libPocoCrypto.so.94:_ZN4Poco6Crypto22EncryptingOutputStreamD1Ev
libPocoCrypto.so.94:_ZN4Poco6Crypto22EncryptingOutputStreamD2Ev
libPocoCrypto.so.94:_ZN4Poco6Crypto23_X509_NAME_oneline_utf8B5cxx11EP12X509_name_st
libPocoCrypto.so.94:_ZN4Poco6Crypto5ECKeyC1EOS1_
libPocoCrypto.so.94:_ZN4Poco6Crypto5ECKeyC1EPSiS2_RKNSt7__cxx1112basic_stringIcSt11char_traitsIcESaIcEEE
libPocoCrypto.so.94:_ZN4Poco6Crypto5ECKeyC1ERKNS0_15PKCS12ContainerE
libPocoCrypto.so.94:_ZN4Poco6Crypto5ECKeyC1ERKNS0_15X509CertificateE
libPocoCrypto.so.94:_ZN4Poco6Crypto5ECKeyC1ERKNS0_7EVPPKeyE
libPocoCrypto.so.94:_ZN4Poco6Crypto5ECKeyC1ERKNSt7__cxx1112basic_stringIcSt11char_traitsIcESaIcEEE
libPocoCrypto.so.94:_ZN4Poco6Crypto5ECKeyC1ERKNSt7__cxx1112basic_stringIcSt11char_traitsIcESaIcEEES9_S9_
libPocoCrypto.so.94:_ZN4Poco6Crypto5ECKeyC1ERKS1_
libPocoCrypto.so.94:_ZN4Poco6Crypto5ECKeyC2EOS1_
libPocoCrypto.so.94:_ZN4Poco6Crypto5ECKeyC2EPSiS2_RKNSt7__cxx1112basic_stringIcSt11char_traitsIcESaIcEEE
libPocoCrypto.so.94:_ZN4Poco6Crypto5ECKeyC2ERKNS0_15PKCS12ContainerE
libPocoCrypto.so.94:_ZN4Poco6Crypto5ECKeyC2ERKNS0_15X509CertificateE
libPocoCrypto.so.94:_ZN4Poco6Crypto5ECKeyC2ERKNS0_7EVPPKeyE
libPocoCrypto.so.94:_ZN4Poco6Crypto5ECKeyC2ERKNSt7__cxx1112basic_stringIcSt11char_traitsIcESaIcEEE
libPocoCrypto.so.94:_ZN4Poco6Crypto5ECKeyC2ERKNSt7__cxx1112basic_stringIcSt11char_traitsIcESaIcEEES9_S9_
libPocoCrypto.so.94:_ZN4Poco6Crypto5ECKeyC2ERKS1_
libPocoCrypto.so.94:_ZN4Poco6Crypto5ECKeyD0Ev
libPocoCrypto.so.94:_ZN4Poco6Crypto5ECKeyD1Ev
libPocoCrypto.so.94:_ZN4Poco6Crypto5ECKeyD2Ev
libPocoCrypto.so.94:_ZN4Poco6Crypto5ECKeyaSEOS1_
libPocoCrypto.so.94:_ZN4Poco6Crypto5ECKeyaSERKS1_
libPocoCrypto.so.94:_ZN4Poco6Crypto6Cipher13decryptStringERKNSt7__cxx1112basic_stringIcSt11char_traitsIcESaIcEEENS1_8EncodingEb
libPocoCrypto.so.94:_ZN4Poco6Crypto6Cipher13encryptStringERKNSt7__cxx1112basic_stringIcSt11char_traitsIcESaIcEEENS1_8EncodingEb
libPocoCrypto.so.94:_ZN4Poco6Crypto6Cipher7decryptERSiRSoNS1_8EncodingEb
libPocoCrypto.so.94:_ZN4Poco6Crypto6Cipher7encryptERSiRSoNS1_8EncodingEb
libPocoCrypto.so.94:_ZN4Poco6Crypto6CipherC1Ev
libPocoCrypto.so.94:_ZN4Poco6Crypto6CipherC2Ev
libPocoCrypto.so.94:_ZN4Poco6Crypto6CipherD0Ev
libPocoCrypto.so.94:_ZN4Poco6Crypto6CipherD1Ev
libPocoCrypto.so.94:_ZN4Poco6Crypto6CipherD2Ev
libPocoCrypto.so.94:_ZN4Poco6Crypto6RSAKeyC1ENS1_9KeyLengthENS1_8ExponentE
libPocoCrypto.so.94:_ZN4Poco6Crypto6RSAKeyC1EOS1_
libPocoCrypto.so.94:_ZN4Poco6Crypto6RSAKeyC1EPSiS2_RKNSt7__cxx1112basic_stringIcSt11char_traitsIcESaIcEEE
libPocoCrypto.so.94:_ZN4Poco6Crypto6RSAKeyC1ERKNS0_15PKCS12ContainerE
libPocoCrypto.so.94:_ZN4Poco6Crypto6RSAKeyC1ERKNS0_15X509CertificateE
libPocoCrypto.so.94:_ZN4Poco6Crypto6RSAKeyC1ERKNS0_7EVPPKeyE
libPocoCrypto.so.94:_ZN4Poco6Crypto6RSAKeyC1ERKNSt7__cxx1112basic_stringIcSt11char_traitsIcESaIcEEES9_S9_
libPocoCrypto.so.94:_ZN4Poco6Crypto6RSAKeyC1ERKS1_
libPocoCrypto.so.94:_ZN4Poco6Crypto6RSAKeyC2ENS1_9KeyLengthENS1_8ExponentE
libPocoCrypto.so.94:_ZN4Poco6Crypto6RSAKeyC2EOS1_
libPocoCrypto.so.94:_ZN4Poco6Crypto6RSAKeyC2EPSiS2_RKNSt7__cxx1112basic_stringIcSt11char_traitsIcESaIcEEE
libPocoCrypto.so.94:_ZN4Poco6Crypto6RSAKeyC2ERKNS0_15PKCS12ContainerE
libPocoCrypto.so.94:_ZN4Poco6Crypto6RSAKeyC2ERKNS0_15X509CertificateE
libPocoCrypto.so.94:_ZN4Poco6Crypto6RSAKeyC2ERKNS0_7EVPPKeyE
libPocoCrypto.so.94:_ZN4Poco6Crypto6RSAKeyC2ERKNSt7__cxx1112basic_stringIcSt11char_traitsIcESaIcEEES9_S9_
libPocoCrypto.so.94:_ZN4Poco6Crypto6RSAKeyC2ERKS1_
libPocoCrypto.so.94:_ZN4Poco6Crypto6RSAKeyD0Ev
libPocoCrypto.so.94:_ZN4Poco6Crypto6RSAKeyD1Ev
libPocoCrypto.so.94:_ZN4Poco6Crypto6RSAKeyD2Ev
libPocoCrypto.so.94:_ZN4Poco6Crypto6RSAKeyaSEOS1_
libPocoCrypto.so.94:_ZN4Poco6Crypto6RSAKeyaSERKS1_
libPocoCrypto.so.94:_ZN4Poco6Crypto7EVPPKey11KNOWN_TYPESB5cxx11E
libPocoCrypto.so.94:_ZN4Poco6Crypto7EVPPKey6passCBEPciiPv
libPocoCrypto.so.94:_ZN4Poco6Crypto7EVPPKey6setKeyEP6rsa_st
libPocoCrypto.so.94:_ZN4Poco6Crypto7EVPPKey6setKeyEP9ec_key_st
libPocoCrypto.so.94:_ZN4Poco6Crypto7EVPPKey6setKeyEPNS0_5ECKeyE
libPocoCrypto.so.94:_ZN4Poco6Crypto7EVPPKey6setKeyEPNS0_6RSAKeyE
libPocoCrypto.so.94:_ZN4Poco6Crypto7EVPPKey8newECKeyEPKc
libPocoCrypto.so.94:_ZN4Poco6Crypto7EVPPKey9checkTypeEv
libPocoCrypto.so.94:_ZN4Poco6Crypto7EVPPKey9duplicateEPK11evp_pkey_stPPS2_
libPocoCrypto.so.94:_ZN4Poco6Crypto7EVPPKeyC1EOS1_
libPocoCrypto.so.94:_ZN4Poco6Crypto7EVPPKeyC1EP11evp_pkey_st
libPocoCrypto.so.94:_ZN4Poco6Crypto7EVPPKeyC1EPKc
libPocoCrypto.so.94:_ZN4Poco6Crypto7EVPPKeyC1EPSiS2_RKNSt7__cxx1112basic_stringIcSt11char_traitsIcESaIcEEE
libPocoCrypto.so.94:_ZN4Poco6Crypto7EVPPKeyC1ERKNS0_15PKCS12ContainerE
libPocoCrypto.so.94:_ZN4Poco6Crypto7EVPPKeyC1ERKNS0_15X509CertificateE
libPocoCrypto.so.94:_ZN4Poco6Crypto7EVPPKeyC1ERKNSt7__cxx1112basic_stringIcSt11char_traitsIcESaIcEEE
libPocoCrypto.so.94:_ZN4Poco6Crypto7EVPPKeyC1ERKNSt7__cxx1112basic_stringIcSt11char_traitsIcESaIcEEES9_S9_
libPocoCrypto.so.94:_ZN4Poco6Crypto7EVPPKeyC1ERKS1_
libPocoCrypto.so.94:_ZN4Poco6Crypto7EVPPKeyC1Eii
libPocoCrypto.so.94:_ZN4Poco6Crypto7EVPPKeyC2EOS1_
libPocoCrypto.so.94:_ZN4Poco6Crypto7EVPPKeyC2EP11evp_pkey_st
libPocoCrypto.so.94:_ZN4Poco6Crypto7EVPPKeyC2EPKc
libPocoCrypto.so.94:_ZN4Poco6Crypto7EVPPKeyC2EPSiS2_RKNSt7__cxx1112basic_stringIcSt11char_traitsIcESaIcEEE
libPocoCrypto.so.94:_ZN4Poco6Crypto7EVPPKeyC2ERKNS0_15PKCS12ContainerE
libPocoCrypto.so.94:_ZN4Poco6Crypto7EVPPKeyC2ERKNS0_15X509CertificateE
libPocoCrypto.so.94:_ZN4Poco6Crypto7EVPPKeyC2ERKNSt7__cxx1112basic_stringIcSt11char_traitsIcESaIcEEE
libPocoCrypto.so.94:_ZN4Poco6Crypto7EVPPKeyC2ERKNSt7__cxx1112basic_stringIcSt11char_traitsIcESaIcEEES9_S9_
libPocoCrypto.so.94:_ZN4Poco6Crypto7EVPPKeyC2ERKS1_
libPocoCrypto.so.94:_ZN4Poco6Crypto7EVPPKeyC2Eii
libPocoCrypto.so.94:_ZN4Poco6Crypto7EVPPKeyD1Ev
libPocoCrypto.so.94:_ZN4Poco6Crypto7EVPPKeyD2Ev
libPocoCrypto.so.94:_ZN4Poco6Crypto7EVPPKeyaSEOS1_
libPocoCrypto.so.94:_ZN4Poco6Crypto7EVPPKeyaSERKS1_
libPocoCrypto.so.94:_ZN4Poco6Crypto7KeyPairC1ENS_7AutoPtrINS0_11KeyPairImplEEE
libPocoCrypto.so.94:_ZN4Poco6Crypto7KeyPairC1EOS1_
libPocoCrypto.so.94:_ZN4Poco6Crypto7KeyPairC1ERKS1_
libPocoCrypto.so.94:_ZN4Poco6Crypto7KeyPairC2ENS_7AutoPtrINS0_11KeyPairImplEEE
libPocoCrypto.so.94:_ZN4Poco6Crypto7KeyPairC2EOS1_
libPocoCrypto.so.94:_ZN4Poco6Crypto7KeyPairC2ERKS1_
libPocoCrypto.so.94:_ZN4Poco6Crypto7KeyPairD0Ev
libPocoCrypto.so.94:_ZN4Poco6Crypto7KeyPairD1Ev
libPocoCrypto.so.94:_ZN4Poco6Crypto7KeyPairD2Ev
libPocoCrypto.so.94:_ZN4Poco6Crypto7KeyPairaSEOS1_
libPocoCrypto.so.94:_ZN4Poco6Crypto7KeyPairaSERKS1_
libPocoCrypto.so.94:_ZN4Poco6Crypto8Envelope12handleErrorsEONSt7__cxx1112basic_stringIcSt11char_traitsIcESaIcEEE
libPocoCrypto.so.94:_ZN4Poco6Crypto8Envelope4openERKNS0_7EVPPKeyERKSt6vectorIhSaIhEES9_
libPocoCrypto.so.94:_ZN4Poco6Crypto8Envelope4sealERKNSt7__cxx1112basic_stringIcSt11char_traitsIcESaIcEEE
libPocoCrypto.so.94:_ZN4Poco6Crypto8Envelope4sealERKSt6vectorIhSaIhEE
libPocoCrypto.so.94:_ZN4Poco6Crypto8Envelope6addKeyERKNS0_7EVPPKeyE
libPocoCrypto.so.94:_ZN4Poco6Crypto8EnvelopeC1ERKNS0_7EVPPKeyEi
libPocoCrypto.so.94:_ZN4Poco6Crypto8EnvelopeC1ERKSt6vectorINS0_7EVPPKeyESaIS3_EEi
libPocoCrypto.so.94:_ZN4Poco6Crypto8EnvelopeC1Ei
libPocoCrypto.so.94:_ZN4Poco6Crypto8EnvelopeC2ERKNS0_7EVPPKeyEi
libPocoCrypto.so.94:_ZN4Poco6Crypto8EnvelopeC2ERKSt6vectorINS0_7EVPPKeyESaIS3_EEi
libPocoCrypto.so.94:_ZN4Poco6Crypto8EnvelopeC2Ei
libPocoCrypto.so.94:_ZN4Poco6Crypto8EnvelopeD1Ev
libPocoCrypto.so.94:_ZN4Poco6Crypto8EnvelopeD2Ev
libPocoCrypto.so.94:_ZN4Poco6Crypto9CipherKeyC1EOS1_
libPocoCrypto.so.94:_ZN4Poco6Crypto9CipherKeyC1ERKNSt7__cxx1112basic_stringIcSt11char_traitsIcESaIcEEE
libPocoCrypto.so.94:_ZN4Poco6Crypto9CipherKeyC1ERKNSt7__cxx1112basic_stringIcSt11char_traitsIcESaIcEEERKSt6vectorIhSaIhEESE_
libPocoCrypto.so.94:_ZN4Poco6Crypto9CipherKeyC1ERKNSt7__cxx1112basic_stringIcSt11char_traitsIcESaIcEEES9_S9_iS9_
libPocoCrypto.so.94:_ZN4Poco6Crypto9CipherKeyC1ERKS1_
libPocoCrypto.so.94:_ZN4Poco6Crypto9CipherKeyC2EOS1_
libPocoCrypto.so.94:_ZN4Poco6Crypto9CipherKeyC2ERKNSt7__cxx1112basic_stringIcSt11char_traitsIcESaIcEEE
libPocoCrypto.so.94:_ZN4Poco6Crypto9CipherKeyC2ERKNSt7__cxx1112basic_stringIcSt11char_traitsIcESaIcEEERKSt6vectorIhSaIhEESE_
libPocoCrypto.so.94:_ZN4Poco6Crypto9CipherKeyC2ERKNSt7__cxx1112basic_stringIcSt11char_traitsIcESaIcEEES9_S9_iS9_
libPocoCrypto.so.94:_ZN4Poco6Crypto9CipherKeyC2ERKS1_
libPocoCrypto.so.94:_ZN4Poco6Crypto9CipherKeyD1Ev
libPocoCrypto.so.94:_ZN4Poco6Crypto9CipherKeyD2Ev
libPocoCrypto.so.94:_ZN4Poco6Crypto9CipherKeyaSEOS1_
libPocoCrypto.so.94:_ZN4Poco6Crypto9CipherKeyaSERKS1_
libPocoCrypto.so.94:_ZN4Poco6Crypto9CryptoIOS5rdbufEv
libPocoCrypto.so.94:_ZN4Poco6Crypto9CryptoIOSC1ERSiNS_9SharedPtrINS0_15CryptoTransformENS_16ReferenceCounterENS_13ReleasePolicyIS4_EEEEl
libPocoCrypto.so.94:_ZN4Poco6Crypto9CryptoIOSC1ERSoNS_9SharedPtrINS0_15CryptoTransformENS_16ReferenceCounterENS_13ReleasePolicyIS4_EEEEl
libPocoCrypto.so.94:_ZN4Poco6Crypto9CryptoIOSC2ERSiNS_9SharedPtrINS0_15CryptoTransformENS_16ReferenceCounterENS_13ReleasePolicyIS4_EEEEl
libPocoCrypto.so.94:_ZN4Poco6Crypto9CryptoIOSC2ERSoNS_9SharedPtrINS0_15CryptoTransformENS_16ReferenceCounterENS_13ReleasePolicyIS4_EEEEl
libPocoCrypto.so.94:_ZN4Poco6Crypto9CryptoIOSD0Ev
libPocoCrypto.so.94:_ZN4Poco6Crypto9CryptoIOSD1Ev
libPocoCrypto.so.94:_ZN4Poco6Crypto9CryptoIOSD2Ev
libPocoCrypto.so.94:_ZN4Poco6Crypto9ECKeyImpl11getCurveNIDERNSt7__cxx1112basic_stringIcSt11char_traitsIcESaIcEEE
libPocoCrypto.so.94:_ZN4Poco6Crypto9ECKeyImpl12getCurveNameB5cxx11Ei
libPocoCrypto.so.94:_ZN4Poco6Crypto9ECKeyImpl6freeECEv
libPocoCrypto.so.94:_ZN4Poco6Crypto9ECKeyImpl8hasCurveERKNSt7__cxx1112basic_stringIcSt11char_traitsIcESaIcEEE
libPocoCrypto.so.94:_ZN4Poco6Crypto9ECKeyImplC1EPSiS2_RKNSt7__cxx1112basic_stringIcSt11char_traitsIcESaIcEEE
libPocoCrypto.so.94:_ZN4Poco6Crypto9ECKeyImplC1ERKNS0_15PKCS12ContainerE
libPocoCrypto.so.94:_ZN4Poco6Crypto9ECKeyImplC1ERKNS0_15X509CertificateE
libPocoCrypto.so.94:_ZN4Poco6Crypto9ECKeyImplC1ERKNS0_7EVPPKeyE
libPocoCrypto.so.94:_ZN4Poco6Crypto9ECKeyImplC1ERKNSt7__cxx1112basic_stringIcSt11char_traitsIcESaIcEEES9_S9_
libPocoCrypto.so.94:_ZN4Poco6Crypto9ECKeyImplC1Ei
libPocoCrypto.so.94:_ZN4Poco6Crypto9ECKeyImplC2EPSiS2_RKNSt7__cxx1112basic_stringIcSt11char_traitsIcESaIcEEE
libPocoCrypto.so.94:_ZN4Poco6Crypto9ECKeyImplC2ERKNS0_15PKCS12ContainerE
libPocoCrypto.so.94:_ZN4Poco6Crypto9ECKeyImplC2ERKNS0_15X509CertificateE
libPocoCrypto.so.94:_ZN4Poco6Crypto9ECKeyImplC2ERKNS0_7EVPPKeyE
libPocoCrypto.so.94:_ZN4Poco6Crypto9ECKeyImplC2ERKNSt7__cxx1112basic_stringIcSt11char_traitsIcESaIcEEES9_S9_
libPocoCrypto.so.94:_ZN4Poco6Crypto9ECKeyImplC2Ei
libPocoCrypto.so.94:_ZN4Poco6Crypto9ECKeyImplD0Ev
libPocoCrypto.so.94:_ZN4Poco6Crypto9ECKeyImplD1Ev
libPocoCrypto.so.94:_ZN4Poco6Crypto9ECKeyImplD2Ev
libPocoCrypto.so.94:_ZNK4Poco6Crypto10RSAKeyImpl18decryptionExponentEv
libPocoCrypto.so.94:_ZNK4Poco6Crypto10RSAKeyImpl18encryptionExponentEv
libPocoCrypto.so.94:_ZNK4Poco6Crypto10RSAKeyImpl4saveEPSoS2_RKNSt7__cxx1112basic_stringIcSt11char_traitsIcESaIcEEE
libPocoCrypto.so.94:_ZNK4Poco6Crypto10RSAKeyImpl4saveERKNSt7__cxx1112basic_stringIcSt11char_traitsIcESaIcEEES9_S9_
libPocoCrypto.so.94:_ZNK4Poco6Crypto10RSAKeyImpl4sizeEv
libPocoCrypto.so.94:_ZNK4Poco6Crypto10RSAKeyImpl7modulusEv
libPocoCrypto.so.94:_ZNK4Poco6Crypto12DigestEngine12digestLengthEv
libPocoCrypto.so.94:_ZNK4Poco6Crypto12DigestEngine3nidEv
libPocoCrypto.so.94:_ZNK4Poco6Crypto13CipherKeyImpl4modeEv
libPocoCrypto.so.94:_ZNK4Poco6Crypto13CipherKeyImpl6ivSizeEv
libPocoCrypto.so.94:_ZNK4Poco6Crypto13CipherKeyImpl7keySizeEv
libPocoCrypto.so.94:_ZNK4Poco6Crypto13CipherKeyImpl9blockSizeEv
libPocoCrypto.so.94:_ZNK4Poco6Crypto14ECDSASignature4rawREv
libPocoCrypto.so.94:_ZNK4Poco6Crypto14ECDSASignature4rawSEv
libPocoCrypto.so.94:_ZNK4Poco6Crypto14ECDSASignature5toDEREv
libPocoCrypto.so.94:_ZNK4Poco6Crypto15CryptoException4nameEv
libPocoCrypto.so.94:_ZNK4Poco6Crypto15CryptoException5cloneEv
libPocoCrypto.so.94:_ZNK4Poco6Crypto15CryptoException7rethrowEv
libPocoCrypto.so.94:_ZNK4Poco6Crypto15CryptoException9classNameEv
libPocoCrypto.so.94:_ZNK4Poco6Crypto15RSADigestEngine12digestLengthEv
libPocoCrypto.so.94:_ZNK4Poco6Crypto15X509Certificate10commonNameB5cxx11Ev
libPocoCrypto.so.94:_ZNK4Poco6Crypto15X509Certificate10issuerNameB5cxx11ENS1_3NIDE
libPocoCrypto.so.94:_ZNK4Poco6Crypto15X509Certificate11fingerprintERKNSt7__cxx1112basic_stringIcSt11char_traitsIcESaIcEEE
libPocoCrypto.so.94:_ZNK4Poco6Crypto15X509Certificate11subjectNameB5cxx11ENS1_3NIDE
libPocoCrypto.so.94:_ZNK4Poco6Crypto15X509Certificate12extractNamesERNSt7__cxx1112basic_stringIcSt11char_traitsIcESaIcEEERSt3setIS7_St4lessIS7_ESaIS7_EE
libPocoCrypto.so.94:_ZNK4Poco6Crypto15X509Certificate18signatureAlgorithmB5cxx11Ev
libPocoCrypto.so.94:_ZNK4Poco6Crypto15X509Certificate4saveERKNSt7__cxx1112basic_stringIcSt11char_traitsIcESaIcEEE
libPocoCrypto.so.94:_ZNK4Poco6Crypto15X509Certificate4saveERSo
libPocoCrypto.so.94:_ZNK4Poco6Crypto15X509Certificate5printERSo
libPocoCrypto.so.94:_ZNK4Poco6Crypto15X509Certificate6equalsERKS1_
libPocoCrypto.so.94:_ZNK4Poco6Crypto15X509Certificate8issuedByERKS1_
libPocoCrypto.so.94:_ZNK4Poco6Crypto15X509Certificate9expiresOnEv
libPocoCrypto.so.94:_ZNK4Poco6Crypto15X509Certificate9validFromEv
libPocoCrypto.so.94:_ZNK4Poco6Crypto16OpenSSLException4nameEv
libPocoCrypto.so.94:_ZNK4Poco6Crypto16OpenSSLException5cloneEv
libPocoCrypto.so.94:_ZNK4Poco6Crypto16OpenSSLException7rethrowEv
libPocoCrypto.so.94:_ZNK4Poco6Crypto16OpenSSLException9classNameEv
libPocoCrypto.so.94:_ZNK4Poco6Crypto17ECDSADigestEngine12digestLengthEv
libPocoCrypto.so.94:_ZNK4Poco6Crypto6RSAKey18decryptionExponentEv
libPocoCrypto.so.94:_ZNK4Poco6Crypto6RSAKey18encryptionExponentEv
libPocoCrypto.so.94:_ZNK4Poco6Crypto6RSAKey7modulusEv
libPocoCrypto.so.94:_ZNK4Poco6Crypto7EVPPKey4nameB5cxx11Ev
libPocoCrypto.so.94:_ZNK4Poco6Crypto7EVPPKey4saveEPSoS2_RKNSt7__cxx1112basic_stringIcSt11char_traitsIcESaIcEEE
libPocoCrypto.so.94:_ZNK4Poco6Crypto7EVPPKey4saveERKNSt7__cxx1112basic_stringIcSt11char_traitsIcESaIcEEES9_S9_
libPocoCrypto.so.94:_ZNK4Poco6Crypto9ECKeyImpl4sizeEv
libPocoCrypto.so.94:_ZNK4Poco6Crypto9ECKeyImpl7checkECERKNSt7__cxx1112basic_stringIcSt11char_traitsIcESaIcEEES9_
libPocoCrypto.so.94:_ZNK4Poco6Crypto9ECKeyImpl7groupIdEv
libPocoCrypto.so.94:_ZThn168_N4Poco6Crypto17CryptoInputStreamD0Ev
libPocoCrypto.so.94:_ZThn168_N4Poco6Crypto17CryptoInputStreamD1Ev
libPocoCrypto.so.94:_ZThn168_N4Poco6Crypto18CryptoOutputStreamD0Ev
libPocoCrypto.so.94:_ZThn168_N4Poco6Crypto18CryptoOutputStreamD1Ev
libPocoCrypto.so.94:_ZThn168_N4Poco6Crypto21DecryptingInputStreamD0Ev
libPocoCrypto.so.94:_ZThn168_N4Poco6Crypto21DecryptingInputStreamD1Ev
libPocoCrypto.so.94:_ZThn168_N4Poco6Crypto21EncryptingInputStreamD0Ev
libPocoCrypto.so.94:_ZThn168_N4Poco6Crypto21EncryptingInputStreamD1Ev
libPocoCrypto.so.94:_ZThn168_N4Poco6Crypto22DecryptingOutputStreamD0Ev
libPocoCrypto.so.94:_ZThn168_N4Poco6Crypto22DecryptingOutputStreamD1Ev
libPocoCrypto.so.94:_ZThn168_N4Poco6Crypto22EncryptingOutputStreamD0Ev
libPocoCrypto.so.94:_ZThn168_N4Poco6Crypto22EncryptingOutputStreamD1Ev
libPocoCrypto.so.94:_ZTv0_n24_N4Poco6Crypto17CryptoInputStreamD0Ev
libPocoCrypto.so.94:_ZTv0_n24_N4Poco6Crypto17CryptoInputStreamD1Ev
libPocoCrypto.so.94:_ZTv0_n24_N4Poco6Crypto18CryptoOutputStreamD0Ev
libPocoCrypto.so.94:_ZTv0_n24_N4Poco6Crypto18CryptoOutputStreamD1Ev
libPocoCrypto.so.94:_ZTv0_n24_N4Poco6Crypto21DecryptingInputStreamD0Ev
libPocoCrypto.so.94:_ZTv0_n24_N4Poco6Crypto21DecryptingInputStreamD1Ev
libPocoCrypto.so.94:_ZTv0_n24_N4Poco6Crypto21EncryptingInputStreamD0Ev
libPocoCrypto.so.94:_ZTv0_n24_N4Poco6Crypto21EncryptingInputStreamD1Ev
libPocoCrypto.so.94:_ZTv0_n24_N4Poco6Crypto22DecryptingOutputStreamD0Ev
libPocoCrypto.so.94:_ZTv0_n24_N4Poco6Crypto22DecryptingOutputStreamD1Ev
libPocoCrypto.so.94:_ZTv0_n24_N4Poco6Crypto22EncryptingOutputStreamD0Ev
libPocoCrypto.so.94:_ZTv0_n24_N4Poco6Crypto22EncryptingOutputStreamD1Ev
libPocoCrypto.so.94:_ZTv0_n24_N4Poco6Crypto9CryptoIOSD0Ev
libPocoCrypto.so.94:_ZTv0_n24_N4Poco6Crypto9CryptoIOSD1Ev
libPocoData.so.94:_ZN4Poco4Data10MetaColumn4swapERS1_
libPocoData.so.94:_ZN4Poco4Data10MetaColumnC1EOS1_
libPocoData.so.94:_ZN4Poco4Data10MetaColumnC1ERKS1_
libPocoData.so.94:_ZN4Poco4Data10MetaColumnC1EmRKNSt7__cxx1112basic_stringIcSt11char_traitsIcESaIcEEENS1_14ColumnDataTypeEmmb
libPocoData.so.94:_ZN4Poco4Data10MetaColumnC1Ev
libPocoData.so.94:_ZN4Poco4Data10MetaColumnC2EOS1_
libPocoData.so.94:_ZN4Poco4Data10MetaColumnC2ERKS1_
libPocoData.so.94:_ZN4Poco4Data10MetaColumnC2EmRKNSt7__cxx1112basic_stringIcSt11char_traitsIcESaIcEEENS1_14ColumnDataTypeEmmb
libPocoData.so.94:_ZN4Poco4Data10MetaColumnC2Ev
libPocoData.so.94:_ZN4Poco4Data10MetaColumnD1Ev
libPocoData.so.94:_ZN4Poco4Data10MetaColumnD2Ev
libPocoData.so.94:_ZN4Poco4Data10MetaColumnaSEOS1_
libPocoData.so.94:_ZN4Poco4Data10MetaColumnaSERKS1_
libPocoData.so.94:_ZN4Poco4Data10SQLChannel10PROP_ASYNCB5cxx11E
libPocoData.so.94:_ZN4Poco4Data10SQLChannel10PROP_TABLEB5cxx11E
libPocoData.so.94:_ZN4Poco4Data10SQLChannel10PROP_THROWB5cxx11E
libPocoData.so.94:_ZN4Poco4Data10SQLChannel11setPropertyERKNSt7__cxx1112basic_stringIcSt11char_traitsIcESaIcEEES9_
libPocoData.so.94:_ZN4Poco4Data10SQLChannel12PROP_CONNECTB5cxx11E
libPocoData.so.94:_ZN4Poco4Data10SQLChannel12PROP_MAX_AGEB5cxx11E
libPocoData.so.94:_ZN4Poco4Data10SQLChannel12PROP_TIMEOUTB5cxx11E
libPocoData.so.94:_ZN4Poco4Data10SQLChannel14PROP_CONNECTORB5cxx11E
libPocoData.so.94:_ZN4Poco4Data10SQLChannel15registerChannelEv
libPocoData.so.94:_ZN4Poco4Data10SQLChannel16initLogStatementEv
libPocoData.so.94:_ZN4Poco4Data10SQLChannel18PROP_ARCHIVE_TABLEB5cxx11E
libPocoData.so.94:_ZN4Poco4Data10SQLChannel3logERKNS_7MessageE
libPocoData.so.94:_ZN4Poco4Data10SQLChannel4openEv
libPocoData.so.94:_ZN4Poco4Data10SQLChannel5closeEv
libPocoData.so.94:_ZN4Poco4Data10SQLChannel7logSyncERKNS_7MessageE
libPocoData.so.94:_ZN4Poco4Data10SQLChannel8logAsyncERKNS_7MessageE
libPocoData.so.94:_ZN4Poco4Data10SQLChannel9PROP_NAMEB5cxx11E
libPocoData.so.94:_ZN4Poco4Data10SQLChannelC1ERKNSt7__cxx1112basic_stringIcSt11char_traitsIcESaIcEEES9_S9_
libPocoData.so.94:_ZN4Poco4Data10SQLChannelC1Ev
libPocoData.so.94:_ZN4Poco4Data10SQLChannelC2ERKNSt7__cxx1112basic_stringIcSt11char_traitsIcESaIcEEES9_S9_
libPocoData.so.94:_ZN4Poco4Data10SQLChannelC2Ev
libPocoData.so.94:_ZN4Poco4Data10SQLChannelD0Ev
libPocoData.so.94:_ZN4Poco4Data10SQLChannelD1Ev
libPocoData.so.94:_ZN4Poco4Data10SQLChannelD2Ev
libPocoData.so.94:_ZN4Poco4Data10Transcoder16reverseTranscodeERKNSt7__cxx1112basic_stringIcSt11char_traitsIcESaIcEEERS7_
libPocoData.so.94:_ZN4Poco4Data10Transcoder6createENS_9SharedPtrINS_12TextEncodingENS_16ReferenceCounterENS_13ReleasePolicyIS3_EEEES7_
libPocoData.so.94:_ZN4Poco4Data10Transcoder9transcodeERKNSt7__cxx1112basic_stringIcSt11char_traitsIcESaIcEEERS7_
libPocoData.so.94:_ZN4Poco4Data10TranscoderC1ENS_9SharedPtrINS_12TextEncodingENS_16ReferenceCounterENS_13ReleasePolicyIS3_EEEES7_
libPocoData.so.94:_ZN4Poco4Data10TranscoderC2ENS_9SharedPtrINS_12TextEncodingENS_16ReferenceCounterENS_13ReleasePolicyIS3_EEEES7_
libPocoData.so.94:_ZN4Poco4Data10TranscoderD0Ev
libPocoData.so.94:_ZN4Poco4Data10TranscoderD1Ev
libPocoData.so.94:_ZN4Poco4Data10TranscoderD2Ev
libPocoData.so.94:_ZN4Poco4Data11RowIterator12POSITION_ENDE
libPocoData.so.94:_ZN4Poco4Data11RowIterator4swapERS1_
libPocoData.so.94:_ZN4Poco4Data11RowIteratorC1EOS1_
libPocoData.so.94:_ZN4Poco4Data11RowIteratorC1EPNS0_9RecordSetEb
libPocoData.so.94:_ZN4Poco4Data11RowIteratorC1ERKS1_
libPocoData.so.94:_ZN4Poco4Data11RowIteratorC2EOS1_
libPocoData.so.94:_ZN4Poco4Data11RowIteratorC2EPNS0_9RecordSetEb
libPocoData.so.94:_ZN4Poco4Data11RowIteratorC2ERKS1_
libPocoData.so.94:_ZN4Poco4Data11RowIteratorD1Ev
libPocoData.so.94:_ZN4Poco4Data11RowIteratorD2Ev
libPocoData.so.94:_ZN4Poco4Data11RowIteratoraSEOS1_
libPocoData.so.94:_ZN4Poco4Data11RowIteratoraSERKS1_
libPocoData.so.94:_ZN4Poco4Data11SessionImpl19setConnectionStringERKNSt7__cxx1112basic_stringIcSt11char_traitsIcESaIcEEE
libPocoData.so.94:_ZN4Poco4Data11SessionImpl9reconnectEv
libPocoData.so.94:_ZN4Poco4Data11SessionImplC1ERKNSt7__cxx1112basic_stringIcSt11char_traitsIcESaIcEEEm
libPocoData.so.94:_ZN4Poco4Data11SessionImplC2ERKNSt7__cxx1112basic_stringIcSt11char_traitsIcESaIcEEEm
libPocoData.so.94:_ZN4Poco4Data11SessionImplD0Ev
libPocoData.so.94:_ZN4Poco4Data11SessionImplD1Ev
libPocoData.so.94:_ZN4Poco4Data11SessionImplD2Ev
libPocoData.so.94:_ZN4Poco4Data11SessionPool10getFeatureERKNSt7__cxx1112basic_stringIcSt11char_traitsIcESaIcEEE
libPocoData.so.94:_ZN4Poco4Data11SessionPool10setFeatureERKNSt7__cxx1112basic_stringIcSt11char_traitsIcESaIcEEEb
libPocoData.so.94:_ZN4Poco4Data11SessionPool11getPropertyERKNSt7__cxx1112basic_stringIcSt11char_traitsIcESaIcEEE
libPocoData.so.94:_ZN4Poco4Data11SessionPool11setPropertyERKNSt7__cxx1112basic_stringIcSt11char_traitsIcESaIcEEERKNS_3AnyE
libPocoData.so.94:_ZN4Poco4Data11SessionPool13applySettingsEPNS0_11SessionImplE
libPocoData.so.94:_ZN4Poco4Data11SessionPool14onJanitorTimerERNS_5TimerE
libPocoData.so.94:_ZN4Poco4Data11SessionPool16customizeSessionERNS0_7SessionE
libPocoData.so.94:_ZN4Poco4Data11SessionPool17purgeDeadSessionsEv
libPocoData.so.94:_ZN4Poco4Data11SessionPool3getERKNSt7__cxx1112basic_stringIcSt11char_traitsIcESaIcEEEb
libPocoData.so.94:_ZN4Poco4Data11SessionPool3getEv
libPocoData.so.94:_ZN4Poco4Data11SessionPool4deadEv
libPocoData.so.94:_ZN4Poco4Data11SessionPool7putBackENS_7AutoPtrINS0_19PooledSessionHolderEEE
libPocoData.so.94:_ZN4Poco4Data11SessionPool8closeAllERNSt7__cxx114listINS_7AutoPtrINS0_19PooledSessionHolderEEESaIS6_EEE
libPocoData.so.94:_ZN4Poco4Data11SessionPool8shutdownEv
libPocoData.so.94:_ZN4Poco4Data11SessionPoolC1ERKNSt7__cxx1112basic_stringIcSt11char_traitsIcESaIcEEES9_iiii
libPocoData.so.94:_ZN4Poco4Data11SessionPoolC2ERKNSt7__cxx1112basic_stringIcSt11char_traitsIcESaIcEEES9_iiii
libPocoData.so.94:_ZN4Poco4Data11SessionPoolD0Ev
libPocoData.so.94:_ZN4Poco4Data11SessionPoolD1Ev
libPocoData.so.94:_ZN4Poco4Data11SessionPoolD2Ev
libPocoData.so.94:_ZN4Poco4Data11Transaction5beginEv
libPocoData.so.94:_ZN4Poco4Data11Transaction6commitEv
libPocoData.so.94:_ZN4Poco4Data11Transaction7executeERKNSt7__cxx1112basic_stringIcSt11char_traitsIcESaIcEEEb
libPocoData.so.94:_ZN4Poco4Data11Transaction7executeERKSt6vectorINSt7__cxx1112basic_stringIcSt11char_traitsIcESaIcEEESaIS8_EE
libPocoData.so.94:_ZN4Poco4Data11Transaction8rollbackEv
libPocoData.so.94:_ZN4Poco4Data11TransactionC1ERNS0_7SessionEPNS_6LoggerE
libPocoData.so.94:_ZN4Poco4Data11TransactionC1ERNS0_7SessionEb
libPocoData.so.94:_ZN4Poco4Data11TransactionC2ERNS0_7SessionEPNS_6LoggerE
libPocoData.so.94:_ZN4Poco4Data11TransactionC2ERNS0_7SessionEb
libPocoData.so.94:_ZN4Poco4Data11TransactionD1Ev
libPocoData.so.94:_ZN4Poco4Data11TransactionD2Ev
libPocoData.so.94:_ZN4Poco4Data12RowFormatter11formatNamesENS_9SharedPtrISt6vectorINSt7__cxx1112basic_stringIcSt11char_traitsIcESaIcEEESaIS9_EENS_16ReferenceCounterENS_13ReleasePolicyISB_EEEE
libPocoData.so.94:_ZN4Poco4Data12RowFormatter11formatNamesENS_9SharedPtrISt6vectorINSt7__cxx1112basic_stringIcSt11char_traitsIcESaIcEEESaIS9_EENS_16ReferenceCounterENS_13ReleasePolicyISB_EEEERS9_
libPocoData.so.94:_ZN4Poco4Data12RowFormatter12formatValuesERKSt6vectorINS_7Dynamic3VarESaIS4_EE
libPocoData.so.94:_ZN4Poco4Data12RowFormatter12formatValuesERKSt6vectorINS_7Dynamic3VarESaIS4_EERNSt7__cxx1112basic_stringIcSt11char_traitsIcESaIcEEE
libPocoData.so.94:_ZN4Poco4Data12RowFormatter5resetEv
libPocoData.so.94:_ZN4Poco4Data12RowFormatter8toStringB5cxx11Ev
libPocoData.so.94:_ZN4Poco4Data12RowFormatterC1ERKNSt7__cxx1112basic_stringIcSt11char_traitsIcESaIcEEES9_NS1_4ModeE
libPocoData.so.94:_ZN4Poco4Data12RowFormatterC2ERKNSt7__cxx1112basic_stringIcSt11char_traitsIcESaIcEEES9_NS1_4ModeE
libPocoData.so.94:_ZN4Poco4Data12RowFormatterD0Ev
libPocoData.so.94:_ZN4Poco4Data12RowFormatterD1Ev
libPocoData.so.94:_ZN4Poco4Data12RowFormatterD2Ev
libPocoData.so.94:_ZN4Poco4Data13DataExceptionC1ERKNSt7__cxx1112basic_stringIcSt11char_traitsIcESaIcEEERKNS_9ExceptionEi
libPocoData.so.94:_ZN4Poco4Data13DataExceptionC1ERKNSt7__cxx1112basic_stringIcSt11char_traitsIcESaIcEEES9_i
libPocoData.so.94:_ZN4Poco4Data13DataExceptionC1ERKNSt7__cxx1112basic_stringIcSt11char_traitsIcESaIcEEEi
libPocoData.so.94:_ZN4Poco4Data13DataExceptionC1ERKS1_
libPocoData.so.94:_ZN4Poco4Data13DataExceptionC1Ei
libPocoData.so.94:_ZN4Poco4Data13DataExceptionC2ERKNSt7__cxx1112basic_stringIcSt11char_traitsIcESaIcEEERKNS_9ExceptionEi
libPocoData.so.94:_ZN4Poco4Data13DataExceptionC2ERKNSt7__cxx1112basic_stringIcSt11char_traitsIcESaIcEEES9_i
libPocoData.so.94:_ZN4Poco4Data13DataExceptionC2ERKNSt7__cxx1112basic_stringIcSt11char_traitsIcESaIcEEEi
libPocoData.so.94:_ZN4Poco4Data13DataExceptionC2ERKS1_
libPocoData.so.94:_ZN4Poco4Data13DataExceptionC2Ei
libPocoData.so.94:_ZN4Poco4Data13DataExceptionD0Ev
libPocoData.so.94:_ZN4Poco4Data13DataExceptionD1Ev
libPocoData.so.94:_ZN4Poco4Data13DataExceptionD2Ev
libPocoData.so.94:_ZN4Poco4Data13DataExceptionaSERKS1_
libPocoData.so.94:_ZN4Poco4Data13StatementImpl10addExtractENS_9SharedPtrINS0_18AbstractExtractionENS_16ReferenceCounterENS_13ReleasePolicyIS3_EEEE
libPocoData.so.94:_ZN4Poco4Data13StatementImpl10removeBindERKNSt7__cxx1112basic_stringIcSt11char_traitsIcESaIcEEE
libPocoData.so.94:_ZN4Poco4Data13StatementImpl10setStorageERKNSt7__cxx1112basic_stringIcSt11char_traitsIcESaIcEEE
libPocoData.so.94:_ZN4Poco4Data13StatementImpl12fixupBindingEv
libPocoData.so.94:_ZN4Poco4Data13StatementImpl12resetBindingEv
libPocoData.so.94:_ZN4Poco4Data13StatementImpl14assignSubTotalEb
libPocoData.so.94:_ZN4Poco4Data13StatementImpl14makeExtractorsEm
libPocoData.so.94:_ZN4Poco4Data13StatementImpl15fixupExtractionEv
libPocoData.so.94:_ZN4Poco4Data13StatementImpl15resetExtractionEv
libPocoData.so.94:_ZN4Poco4Data13StatementImpl16executeWithLimitEv
libPocoData.so.94:_ZN4Poco4Data13StatementImpl17setBulkExtractionERKNS0_4BulkE
libPocoData.so.94:_ZN4Poco4Data13StatementImpl18setExtractionLimitERKNS0_5LimitE
libPocoData.so.94:_ZN4Poco4Data13StatementImpl19activateNextDataSetEv
libPocoData.so.94:_ZN4Poco4Data13StatementImpl19executeWithoutLimitEv
libPocoData.so.94:_ZN4Poco4Data13StatementImpl23activatePreviousDataSetEv
libPocoData.so.94:_ZN4Poco4Data13StatementImpl4LISTB5cxx11E
libPocoData.so.94:_ZN4Poco4Data13StatementImpl4bindEv
libPocoData.so.94:_ZN4Poco4Data13StatementImpl5DEQUEB5cxx11E
libPocoData.so.94:_ZN4Poco4Data13StatementImpl5resetEv
libPocoData.so.94:_ZN4Poco4Data13StatementImpl6VECTORB5cxx11E
libPocoData.so.94:_ZN4Poco4Data13StatementImpl7UNKNOWNB5cxx11E
libPocoData.so.94:_ZN4Poco4Data13StatementImpl7compileEv
libPocoData.so.94:_ZN4Poco4Data13StatementImpl7executeERKb
libPocoData.so.94:_ZN4Poco4Data13StatementImpl9formatSQLERSt6vectorINS_3AnyESaIS3_EE
libPocoData.so.94:_ZN4Poco4Data13StatementImplC1ERNS0_11SessionImplE
libPocoData.so.94:_ZN4Poco4Data13StatementImplC2ERNS0_11SessionImplE
libPocoData.so.94:_ZN4Poco4Data13StatementImplD0Ev
libPocoData.so.94:_ZN4Poco4Data13StatementImplD1Ev
libPocoData.so.94:_ZN4Poco4Data13StatementImplD2Ev
libPocoData.so.94:_ZN4Poco4Data14AbstractBinder16reverseTranscodeERKNSt7__cxx1112basic_stringIcSt11char_traitsIcESaIcEEERS7_
libPocoData.so.94:_ZN4Poco4Data14AbstractBinder4bindEmRKNS_3AnyENS1_9DirectionE
libPocoData.so.94:_ZN4Poco4Data14AbstractBinder4bindEmRKNS_7Dynamic3VarENS1_9DirectionE
libPocoData.so.94:_ZN4Poco4Data14AbstractBinder4bindEmRKNSt7__cxx1112basic_stringItNS_15UTF16CharTraitsESaItEEENS1_9DirectionE
libPocoData.so.94:_ZN4Poco4Data14AbstractBinder4bindEmRKNSt7__cxx114listINS0_3LOBIcEESaIS5_EEENS1_9DirectionE
libPocoData.so.94:_ZN4Poco4Data14AbstractBinder4bindEmRKNSt7__cxx114listINS0_3LOBIhEESaIS5_EEENS1_9DirectionE
libPocoData.so.94:_ZN4Poco4Data14AbstractBinder4bindEmRKNSt7__cxx114listINS0_4DateESaIS4_EEENS1_9DirectionE
libPocoData.so.94:_ZN4Poco4Data14AbstractBinder4bindEmRKNSt7__cxx114listINS0_4TimeESaIS4_EEENS1_9DirectionE
libPocoData.so.94:_ZN4Poco4Data14AbstractBinder4bindEmRKNSt7__cxx114listINS2_12basic_stringIcSt11char_traitsIcESaIcEEESaIS8_EEENS1_9DirectionE
libPocoData.so.94:_ZN4Poco4Data14AbstractBinder4bindEmRKNSt7__cxx114listINS2_12basic_stringItNS_15UTF16CharTraitsESaItEEESaIS7_EEENS1_9DirectionE
libPocoData.so.94:_ZN4Poco4Data14AbstractBinder4bindEmRKNSt7__cxx114listINS_4UUIDESaIS4_EEENS1_9DirectionE
libPocoData.so.94:_ZN4Poco4Data14AbstractBinder4bindEmRKNSt7__cxx114listINS_8DateTimeESaIS4_EEENS1_9DirectionE
libPocoData.so.94:_ZN4Poco4Data14AbstractBinder4bindEmRKNSt7__cxx114listINS_8NullTypeESaIS4_EEENS1_9DirectionE
libPocoData.so.94:_ZN4Poco4Data14AbstractBinder4bindEmRKNSt7__cxx114listIaSaIaEEENS1_9DirectionE
libPocoData.so.94:_ZN4Poco4Data14AbstractBinder4bindEmRKNSt7__cxx114listIbSaIbEEENS1_9DirectionE
libPocoData.so.94:_ZN4Poco4Data14AbstractBinder4bindEmRKNSt7__cxx114listIcSaIcEEENS1_9DirectionE
libPocoData.so.94:_ZN4Poco4Data14AbstractBinder4bindEmRKNSt7__cxx114listIdSaIdEEENS1_9DirectionE
libPocoData.so.94:_ZN4Poco4Data14AbstractBinder4bindEmRKNSt7__cxx114listIfSaIfEEENS1_9DirectionE
libPocoData.so.94:_ZN4Poco4Data14AbstractBinder4bindEmRKNSt7__cxx114listIhSaIhEEENS1_9DirectionE
libPocoData.so.94:_ZN4Poco4Data14AbstractBinder4bindEmRKNSt7__cxx114listIiSaIiEEENS1_9DirectionE
libPocoData.so.94:_ZN4Poco4Data14AbstractBinder4bindEmRKNSt7__cxx114listIjSaIjEEENS1_9DirectionE
libPocoData.so.94:_ZN4Poco4Data14AbstractBinder4bindEmRKNSt7__cxx114listIlSaIlEEENS1_9DirectionE
libPocoData.so.94:_ZN4Poco4Data14AbstractBinder4bindEmRKNSt7__cxx114listImSaImEEENS1_9DirectionE
libPocoData.so.94:_ZN4Poco4Data14AbstractBinder4bindEmRKNSt7__cxx114listIsSaIsEEENS1_9DirectionE
libPocoData.so.94:_ZN4Poco4Data14AbstractBinder4bindEmRKNSt7__cxx114listItSaItEEENS1_9DirectionE
libPocoData.so.94:_ZN4Poco4Data14AbstractBinder4bindEmRKSt5dequeINS0_3LOBIcEESaIS4_EENS1_9DirectionE
libPocoData.so.94:_ZN4Poco4Data14AbstractBinder4bindEmRKSt5dequeINS0_3LOBIhEESaIS4_EENS1_9DirectionE
libPocoData.so.94:_ZN4Poco4Data14AbstractBinder4bindEmRKSt5dequeINS0_4DateESaIS3_EENS1_9DirectionE
libPocoData.so.94:_ZN4Poco4Data14AbstractBinder4bindEmRKSt5dequeINS0_4TimeESaIS3_EENS1_9DirectionE
libPocoData.so.94:_ZN4Poco4Data14AbstractBinder4bindEmRKSt5dequeINS_4UUIDESaIS3_EENS1_9DirectionE
libPocoData.so.94:_ZN4Poco4Data14AbstractBinder4bindEmRKSt5dequeINS_8DateTimeESaIS3_EENS1_9DirectionE
libPocoData.so.94:_ZN4Poco4Data14AbstractBinder4bindEmRKSt5dequeINS_8NullTypeESaIS3_EENS1_9DirectionE
libPocoData.so.94:_ZN4Poco4Data14AbstractBinder4bindEmRKSt5dequeINSt7__cxx1112basic_stringIcSt11char_traitsIcESaIcEEESaIS8_EENS1_9DirectionE
libPocoData.so.94:_ZN4Poco4Data14AbstractBinder4bindEmRKSt5dequeINSt7__cxx1112basic_stringItNS_15UTF16CharTraitsESaItEEESaIS7_EENS1_9DirectionE
libPocoData.so.94:_ZN4Poco4Data14AbstractBinder4bindEmRKSt5dequeIaSaIaEENS1_9DirectionE
libPocoData.so.94:_ZN4Poco4Data14AbstractBinder4bindEmRKSt5dequeIbSaIbEENS1_9DirectionE
libPocoData.so.94:_ZN4Poco4Data14AbstractBinder4bindEmRKSt5dequeIcSaIcEENS1_9DirectionE
libPocoData.so.94:_ZN4Poco4Data14AbstractBinder4bindEmRKSt5dequeIdSaIdEENS1_9DirectionE
libPocoData.so.94:_ZN4Poco4Data14AbstractBinder4bindEmRKSt5dequeIfSaIfEENS1_9DirectionE
libPocoData.so.94:_ZN4Poco4Data14AbstractBinder4bindEmRKSt5dequeIhSaIhEENS1_9DirectionE
libPocoData.so.94:_ZN4Poco4Data14AbstractBinder4bindEmRKSt5dequeIiSaIiEENS1_9DirectionE
libPocoData.so.94:_ZN4Poco4Data14AbstractBinder4bindEmRKSt5dequeIjSaIjEENS1_9DirectionE
libPocoData.so.94:_ZN4Poco4Data14AbstractBinder4bindEmRKSt5dequeIlSaIlEENS1_9DirectionE
libPocoData.so.94:_ZN4Poco4Data14AbstractBinder4bindEmRKSt5dequeImSaImEENS1_9DirectionE
libPocoData.so.94:_ZN4Poco4Data14AbstractBinder4bindEmRKSt5dequeIsSaIsEENS1_9DirectionE
libPocoData.so.94:_ZN4Poco4Data14AbstractBinder4bindEmRKSt5dequeItSaItEENS1_9DirectionE
libPocoData.so.94:_ZN4Poco4Data14AbstractBinder4bindEmRKSt6vectorINS0_3LOBIcEESaIS4_EENS1_9DirectionE
libPocoData.so.94:_ZN4Poco4Data14AbstractBinder4bindEmRKSt6vectorINS0_3LOBIhEESaIS4_EENS1_9DirectionE
libPocoData.so.94:_ZN4Poco4Data14AbstractBinder4bindEmRKSt6vectorINS0_4DateESaIS3_EENS1_9DirectionE
libPocoData.so.94:_ZN4Poco4Data14AbstractBinder4bindEmRKSt6vectorINS0_4TimeESaIS3_EENS1_9DirectionE
libPocoData.so.94:_ZN4Poco4Data14AbstractBinder4bindEmRKSt6vectorINS_4UUIDESaIS3_EENS1_9DirectionE
libPocoData.so.94:_ZN4Poco4Data14AbstractBinder4bindEmRKSt6vectorINS_8DateTimeESaIS3_EENS1_9DirectionE
libPocoData.so.94:_ZN4Poco4Data14AbstractBinder4bindEmRKSt6vectorINS_8NullTypeESaIS3_EENS1_9DirectionE
libPocoData.so.94:_ZN4Poco4Data14AbstractBinder4bindEmRKSt6vectorINSt7__cxx1112basic_stringIcSt11char_traitsIcESaIcEEESaIS8_EENS1_9DirectionE
libPocoData.so.94:_ZN4Poco4Data14AbstractBinder4bindEmRKSt6vectorINSt7__cxx1112basic_stringItNS_15UTF16CharTraitsESaItEEESaIS7_EENS1_9DirectionE
libPocoData.so.94:_ZN4Poco4Data14AbstractBinder4bindEmRKSt6vectorIaSaIaEENS1_9DirectionE
libPocoData.so.94:_ZN4Poco4Data14AbstractBinder4bindEmRKSt6vectorIbSaIbEENS1_9DirectionE
libPocoData.so.94:_ZN4Poco4Data14AbstractBinder4bindEmRKSt6vectorIcSaIcEENS1_9DirectionE
libPocoData.so.94:_ZN4Poco4Data14AbstractBinder4bindEmRKSt6vectorIdSaIdEENS1_9DirectionE
libPocoData.so.94:_ZN4Poco4Data14AbstractBinder4bindEmRKSt6vectorIfSaIfEENS1_9DirectionE
libPocoData.so.94:_ZN4Poco4Data14AbstractBinder4bindEmRKSt6vectorIhSaIhEENS1_9DirectionE
libPocoData.so.94:_ZN4Poco4Data14AbstractBinder4bindEmRKSt6vectorIiSaIiEENS1_9DirectionE
libPocoData.so.94:_ZN4Poco4Data14AbstractBinder4bindEmRKSt6vectorIjSaIjEENS1_9DirectionE
libPocoData.so.94:_ZN4Poco4Data14AbstractBinder4bindEmRKSt6vectorIlSaIlEENS1_9DirectionE
libPocoData.so.94:_ZN4Poco4Data14AbstractBinder4bindEmRKSt6vectorImSaImEENS1_9DirectionE
libPocoData.so.94:_ZN4Poco4Data14AbstractBinder4bindEmRKSt6vectorIsSaIsEENS1_9DirectionE
libPocoData.so.94:_ZN4Poco4Data14AbstractBinder4bindEmRKSt6vectorItSaItEENS1_9DirectionE
libPocoData.so.94:_ZN4Poco4Data14AbstractBinder8toStringB5cxx11ERKNS_4UUIDE
libPocoData.so.94:_ZN4Poco4Data14AbstractBinder9transcodeERKNSt7__cxx1112basic_stringIcSt11char_traitsIcESaIcEEERS7_
libPocoData.so.94:_ZN4Poco4Data14AbstractBinderC1ENS_9SharedPtrINS_12TextEncodingENS_16ReferenceCounterENS_13ReleasePolicyIS3_EEEES7_
libPocoData.so.94:_ZN4Poco4Data14AbstractBinderC2ENS_9SharedPtrINS_12TextEncodingENS_16ReferenceCounterENS_13ReleasePolicyIS3_EEEES7_
libPocoData.so.94:_ZN4Poco4Data14AbstractBinderD0Ev
libPocoData.so.94:_ZN4Poco4Data14AbstractBinderD1Ev
libPocoData.so.94:_ZN4Poco4Data14AbstractBinderD2Ev
libPocoData.so.94:_ZN4Poco4Data14LimitExceptionC1ERKNSt7__cxx1112basic_stringIcSt11char_traitsIcESaIcEEERKNS_9ExceptionEi
libPocoData.so.94:_ZN4Poco4Data14LimitExceptionC1ERKNSt7__cxx1112basic_stringIcSt11char_traitsIcESaIcEEES9_i
libPocoData.so.94:_ZN4Poco4Data14LimitExceptionC1ERKNSt7__cxx1112basic_stringIcSt11char_traitsIcESaIcEEEi
libPocoData.so.94:_ZN4Poco4Data14LimitExceptionC1ERKS1_
libPocoData.so.94:_ZN4Poco4Data14LimitExceptionC1Ei
libPocoData.so.94:_ZN4Poco4Data14LimitExceptionC2ERKNSt7__cxx1112basic_stringIcSt11char_traitsIcESaIcEEERKNS_9ExceptionEi
libPocoData.so.94:_ZN4Poco4Data14LimitExceptionC2ERKNSt7__cxx1112basic_stringIcSt11char_traitsIcESaIcEEES9_i
libPocoData.so.94:_ZN4Poco4Data14LimitExceptionC2ERKNSt7__cxx1112basic_stringIcSt11char_traitsIcESaIcEEEi
libPocoData.so.94:_ZN4Poco4Data14LimitExceptionC2ERKS1_
libPocoData.so.94:_ZN4Poco4Data14LimitExceptionC2Ei
libPocoData.so.94:_ZN4Poco4Data14LimitExceptionD0Ev
libPocoData.so.94:_ZN4Poco4Data14LimitExceptionD1Ev
libPocoData.so.94:_ZN4Poco4Data14LimitExceptionD2Ev
libPocoData.so.94:_ZN4Poco4Data14LimitExceptionaSERKS1_
libPocoData.so.94:_ZN4Poco4Data14SessionFactory11SessionInfoC1EPNS0_9ConnectorE
libPocoData.so.94:_ZN4Poco4Data14SessionFactory11SessionInfoC2EPNS0_9ConnectorE
libPocoData.so.94:_ZN4Poco4Data14SessionFactory3addEPNS0_9ConnectorE
libPocoData.so.94:_ZN4Poco4Data14SessionFactory6createERKNSt7__cxx1112basic_stringIcSt11char_traitsIcESaIcEEES9_m
libPocoData.so.94:_ZN4Poco4Data14SessionFactory6createERKNSt7__cxx1112basic_stringIcSt11char_traitsIcESaIcEEEm
libPocoData.so.94:_ZN4Poco4Data14SessionFactory6removeERKNSt7__cxx1112basic_stringIcSt11char_traitsIcESaIcEEE
libPocoData.so.94:_ZN4Poco4Data14SessionFactory8instanceEv
libPocoData.so.94:_ZN4Poco4Data14SessionFactoryC1Ev
libPocoData.so.94:_ZN4Poco4Data14SessionFactoryC2Ev
libPocoData.so.94:_ZN4Poco4Data14SessionFactoryD1Ev
libPocoData.so.94:_ZN4Poco4Data14SessionFactoryD2Ev
libPocoData.so.94:_ZN4Poco4Data15AbstractBinding9setBinderENS_9SharedPtrINS0_14AbstractBinderENS_16ReferenceCounterENS_13ReleasePolicyIS3_EEEE
libPocoData.so.94:_ZN4Poco4Data15AbstractBindingC1ERKNSt7__cxx1112basic_stringIcSt11char_traitsIcESaIcEEENS1_9DirectionEj
libPocoData.so.94:_ZN4Poco4Data15AbstractBindingC2ERKNSt7__cxx1112basic_stringIcSt11char_traitsIcESaIcEEENS1_9DirectionEj
libPocoData.so.94:_ZN4Poco4Data15AbstractBindingD0Ev
libPocoData.so.94:_ZN4Poco4Data15AbstractBindingD1Ev
libPocoData.so.94:_ZN4Poco4Data15AbstractBindingD2Ev
libPocoData.so.94:_ZN4Poco4Data15ArchiveStrategy27DEFAULT_ARCHIVE_DESTINATIONB5cxx11E
libPocoData.so.94:_ZN4Poco4Data15ArchiveStrategy4openEv
libPocoData.so.94:_ZN4Poco4Data15ArchiveStrategyC1ERKNSt7__cxx1112basic_stringIcSt11char_traitsIcESaIcEEES9_S9_S9_
libPocoData.so.94:_ZN4Poco4Data15ArchiveStrategyC2ERKNSt7__cxx1112basic_stringIcSt11char_traitsIcESaIcEEES9_S9_S9_
libPocoData.so.94:_ZN4Poco4Data15ArchiveStrategyD0Ev
libPocoData.so.94:_ZN4Poco4Data15ArchiveStrategyD1Ev
libPocoData.so.94:_ZN4Poco4Data15ArchiveStrategyD2Ev
libPocoData.so.94:_ZN4Poco4Data15NoDataExceptionC1ERKNSt7__cxx1112basic_stringIcSt11char_traitsIcESaIcEEERKNS_9ExceptionEi
libPocoData.so.94:_ZN4Poco4Data15NoDataExceptionC1ERKNSt7__cxx1112basic_stringIcSt11char_traitsIcESaIcEEES9_i
libPocoData.so.94:_ZN4Poco4Data15NoDataExceptionC1ERKNSt7__cxx1112basic_stringIcSt11char_traitsIcESaIcEEEi
libPocoData.so.94:_ZN4Poco4Data15NoDataExceptionC1ERKS1_
libPocoData.so.94:_ZN4Poco4Data15NoDataExceptionC1Ei
libPocoData.so.94:_ZN4Poco4Data15NoDataExceptionC2ERKNSt7__cxx1112basic_stringIcSt11char_traitsIcESaIcEEERKNS_9ExceptionEi
libPocoData.so.94:_ZN4Poco4Data15NoDataExceptionC2ERKNSt7__cxx1112basic_stringIcSt11char_traitsIcESaIcEEES9_i
libPocoData.so.94:_ZN4Poco4Data15NoDataExceptionC2ERKNSt7__cxx1112basic_stringIcSt11char_traitsIcESaIcEEEi
libPocoData.so.94:_ZN4Poco4Data15NoDataExceptionC2ERKS1_
libPocoData.so.94:_ZN4Poco4Data15NoDataExceptionC2Ei
libPocoData.so.94:_ZN4Poco4Data15NoDataExceptionD0Ev
libPocoData.so.94:_ZN4Poco4Data15NoDataExceptionD1Ev
libPocoData.so.94:_ZN4Poco4Data15NoDataExceptionD2Ev
libPocoData.so.94:_ZN4Poco4Data15NoDataExceptionaSERKS1_
libPocoData.so.94:_ZN4Poco4Data16BindingExceptionC1ERKNSt7__cxx1112basic_stringIcSt11char_traitsIcESaIcEEERKNS_9ExceptionEi
libPocoData.so.94:_ZN4Poco4Data16BindingExceptionC1ERKNSt7__cxx1112basic_stringIcSt11char_traitsIcESaIcEEES9_i
libPocoData.so.94:_ZN4Poco4Data16BindingExceptionC1ERKNSt7__cxx1112basic_stringIcSt11char_traitsIcESaIcEEEi
libPocoData.so.94:_ZN4Poco4Data16BindingExceptionC1ERKS1_
libPocoData.so.94:_ZN4Poco4Data16BindingExceptionC1Ei
libPocoData.so.94:_ZN4Poco4Data16BindingExceptionC2ERKNSt7__cxx1112basic_stringIcSt11char_traitsIcESaIcEEERKNS_9ExceptionEi
libPocoData.so.94:_ZN4Poco4Data16BindingExceptionC2ERKNSt7__cxx1112basic_stringIcSt11char_traitsIcESaIcEEES9_i
libPocoData.so.94:_ZN4Poco4Data16BindingExceptionC2ERKNSt7__cxx1112basic_stringIcSt11char_traitsIcESaIcEEEi
libPocoData.so.94:_ZN4Poco4Data16BindingExceptionC2ERKS1_
libPocoData.so.94:_ZN4Poco4Data16BindingExceptionC2Ei
libPocoData.so.94:_ZN4Poco4Data16BindingExceptionD0Ev
libPocoData.so.94:_ZN4Poco4Data16BindingExceptionD1Ev
libPocoData.so.94:_ZN4Poco4Data16BindingExceptionD2Ev
libPocoData.so.94:_ZN4Poco4Data16BindingExceptionaSERKS1_
libPocoData.so.94:_ZN4Poco4Data16ExtractExceptionC1ERKNSt7__cxx1112basic_stringIcSt11char_traitsIcESaIcEEERKNS_9ExceptionEi
libPocoData.so.94:_ZN4Poco4Data16ExtractExceptionC1ERKNSt7__cxx1112basic_stringIcSt11char_traitsIcESaIcEEES9_i
libPocoData.so.94:_ZN4Poco4Data16ExtractExceptionC1ERKNSt7__cxx1112basic_stringIcSt11char_traitsIcESaIcEEEi
libPocoData.so.94:_ZN4Poco4Data16ExtractExceptionC1ERKS1_
libPocoData.so.94:_ZN4Poco4Data16ExtractExceptionC1Ei
libPocoData.so.94:_ZN4Poco4Data16ExtractExceptionC2ERKNSt7__cxx1112basic_stringIcSt11char_traitsIcESaIcEEERKNS_9ExceptionEi
libPocoData.so.94:_ZN4Poco4Data16ExtractExceptionC2ERKNSt7__cxx1112basic_stringIcSt11char_traitsIcESaIcEEES9_i
libPocoData.so.94:_ZN4Poco4Data16ExtractExceptionC2ERKNSt7__cxx1112basic_stringIcSt11char_traitsIcESaIcEEEi
libPocoData.so.94:_ZN4Poco4Data16ExtractExceptionC2ERKS1_
libPocoData.so.94:_ZN4Poco4Data16ExtractExceptionC2Ei
libPocoData.so.94:_ZN4Poco4Data16ExtractExceptionD0Ev
libPocoData.so.94:_ZN4Poco4Data16ExtractExceptionD1Ev
libPocoData.so.94:_ZN4Poco4Data16ExtractExceptionD2Ev
libPocoData.so.94:_ZN4Poco4Data16ExtractExceptionaSERKS1_
libPocoData.so.94:_ZN4Poco4Data16JSONRowFormatter11formatNamesENS_9SharedPtrISt6vectorINSt7__cxx1112basic_stringIcSt11char_traitsIcESaIcEEESaIS9_EENS_16ReferenceCounterENS_13ReleasePolicyISB_EEEERS9_
libPocoData.so.94:_ZN4Poco4Data16JSONRowFormatter11setJSONModeEi
libPocoData.so.94:_ZN4Poco4Data16JSONRowFormatter12formatValuesERKSt6vectorINS_7Dynamic3VarESaIS4_EERNSt7__cxx1112basic_stringIcSt11char_traitsIcESaIcEEE
libPocoData.so.94:_ZN4Poco4Data16JSONRowFormatter18JSON_FMT_MODE_FULLE
libPocoData.so.94:_ZN4Poco4Data16JSONRowFormatter19JSON_FMT_MODE_SMALLE
libPocoData.so.94:_ZN4Poco4Data16JSONRowFormatter23JSON_FMT_MODE_ROW_COUNTE
libPocoData.so.94:_ZN4Poco4Data16JSONRowFormatter26JSON_FMT_MODE_COLUMN_NAMESE
libPocoData.so.94:_ZN4Poco4Data16JSONRowFormatterC1Ei
libPocoData.so.94:_ZN4Poco4Data16JSONRowFormatterC2Ei
libPocoData.so.94:_ZN4Poco4Data16JSONRowFormatterD0Ev
libPocoData.so.94:_ZN4Poco4Data16JSONRowFormatterD1Ev
libPocoData.so.94:_ZN4Poco4Data16JSONRowFormatterD2Ev
libPocoData.so.94:_ZN4Poco4Data16StatementCreator4swapERS1_
libPocoData.so.94:_ZN4Poco4Data16StatementCreatorC1ENS_7AutoPtrINS0_11SessionImplEEE
libPocoData.so.94:_ZN4Poco4Data16StatementCreatorC1EOS1_
libPocoData.so.94:_ZN4Poco4Data16StatementCreatorC1ERKS1_
libPocoData.so.94:_ZN4Poco4Data16StatementCreatorC1Ev
libPocoData.so.94:_ZN4Poco4Data16StatementCreatorC2ENS_7AutoPtrINS0_11SessionImplEEE
libPocoData.so.94:_ZN4Poco4Data16StatementCreatorC2EOS1_
libPocoData.so.94:_ZN4Poco4Data16StatementCreatorC2ERKS1_
libPocoData.so.94:_ZN4Poco4Data16StatementCreatorC2Ev
libPocoData.so.94:_ZN4Poco4Data16StatementCreatorD1Ev
libPocoData.so.94:_ZN4Poco4Data16StatementCreatorD2Ev
libPocoData.so.94:_ZN4Poco4Data16StatementCreatoraSEOS1_
libPocoData.so.94:_ZN4Poco4Data16StatementCreatoraSERKS1_
libPocoData.so.94:_ZN4Poco4Data17AbstractExtractor16reverseTranscodeERKNSt7__cxx1112basic_stringIcSt11char_traitsIcESaIcEEERS7_
libPocoData.so.94:_ZN4Poco4Data17AbstractExtractor7extractEmRNSt7__cxx1112basic_stringItNS_15UTF16CharTraitsESaItEEE
libPocoData.so.94:_ZN4Poco4Data17AbstractExtractor7extractEmRNSt7__cxx114listINS0_3LOBIcEESaIS5_EEE
libPocoData.so.94:_ZN4Poco4Data17AbstractExtractor7extractEmRNSt7__cxx114listINS0_3LOBIhEESaIS5_EEE
libPocoData.so.94:_ZN4Poco4Data17AbstractExtractor7extractEmRNSt7__cxx114listINS0_4DateESaIS4_EEE
libPocoData.so.94:_ZN4Poco4Data17AbstractExtractor7extractEmRNSt7__cxx114listINS0_4TimeESaIS4_EEE
libPocoData.so.94:_ZN4Poco4Data17AbstractExtractor7extractEmRNSt7__cxx114listINS2_12basic_stringIcSt11char_traitsIcESaIcEEESaIS8_EEE
libPocoData.so.94:_ZN4Poco4Data17AbstractExtractor7extractEmRNSt7__cxx114listINS2_12basic_stringItNS_15UTF16CharTraitsESaItEEESaIS7_EEE
libPocoData.so.94:_ZN4Poco4Data17AbstractExtractor7extractEmRNSt7__cxx114listINS_3AnyESaIS4_EEE
libPocoData.so.94:_ZN4Poco4Data17AbstractExtractor7extractEmRNSt7__cxx114listINS_4UUIDESaIS4_EEE
libPocoData.so.94:_ZN4Poco4Data17AbstractExtractor7extractEmRNSt7__cxx114listINS_7Dynamic3VarESaIS5_EEE
libPocoData.so.94:_ZN4Poco4Data17AbstractExtractor7extractEmRNSt7__cxx114listINS_8DateTimeESaIS4_EEE
libPocoData.so.94:_ZN4Poco4Data17AbstractExtractor7extractEmRNSt7__cxx114listIaSaIaEEE
libPocoData.so.94:_ZN4Poco4Data17AbstractExtractor7extractEmRNSt7__cxx114listIbSaIbEEE
libPocoData.so.94:_ZN4Poco4Data17AbstractExtractor7extractEmRNSt7__cxx114listIcSaIcEEE
libPocoData.so.94:_ZN4Poco4Data17AbstractExtractor7extractEmRNSt7__cxx114listIdSaIdEEE
libPocoData.so.94:_ZN4Poco4Data17AbstractExtractor7extractEmRNSt7__cxx114listIfSaIfEEE
libPocoData.so.94:_ZN4Poco4Data17AbstractExtractor7extractEmRNSt7__cxx114listIhSaIhEEE
libPocoData.so.94:_ZN4Poco4Data17AbstractExtractor7extractEmRNSt7__cxx114listIiSaIiEEE
libPocoData.so.94:_ZN4Poco4Data17AbstractExtractor7extractEmRNSt7__cxx114listIjSaIjEEE
libPocoData.so.94:_ZN4Poco4Data17AbstractExtractor7extractEmRNSt7__cxx114listIlSaIlEEE
libPocoData.so.94:_ZN4Poco4Data17AbstractExtractor7extractEmRNSt7__cxx114listImSaImEEE
libPocoData.so.94:_ZN4Poco4Data17AbstractExtractor7extractEmRNSt7__cxx114listIsSaIsEEE
libPocoData.so.94:_ZN4Poco4Data17AbstractExtractor7extractEmRNSt7__cxx114listItSaItEEE
libPocoData.so.94:_ZN4Poco4Data17AbstractExtractor7extractEmRSt5dequeINS0_3LOBIcEESaIS4_EE
libPocoData.so.94:_ZN4Poco4Data17AbstractExtractor7extractEmRSt5dequeINS0_3LOBIhEESaIS4_EE
libPocoData.so.94:_ZN4Poco4Data17AbstractExtractor7extractEmRSt5dequeINS0_4DateESaIS3_EE
libPocoData.so.94:_ZN4Poco4Data17AbstractExtractor7extractEmRSt5dequeINS0_4TimeESaIS3_EE
libPocoData.so.94:_ZN4Poco4Data17AbstractExtractor7extractEmRSt5dequeINS_3AnyESaIS3_EE
libPocoData.so.94:_ZN4Poco4Data17AbstractExtractor7extractEmRSt5dequeINS_4UUIDESaIS3_EE
libPocoData.so.94:_ZN4Poco4Data17AbstractExtractor7extractEmRSt5dequeINS_7Dynamic3VarESaIS4_EE
libPocoData.so.94:_ZN4Poco4Data17AbstractExtractor7extractEmRSt5dequeINS_8DateTimeESaIS3_EE
libPocoData.so.94:_ZN4Poco4Data17AbstractExtractor7extractEmRSt5dequeINSt7__cxx1112basic_stringIcSt11char_traitsIcESaIcEEESaIS8_EE
libPocoData.so.94:_ZN4Poco4Data17AbstractExtractor7extractEmRSt5dequeINSt7__cxx1112basic_stringItNS_15UTF16CharTraitsESaItEEESaIS7_EE
libPocoData.so.94:_ZN4Poco4Data17AbstractExtractor7extractEmRSt5dequeIaSaIaEE
libPocoData.so.94:_ZN4Poco4Data17AbstractExtractor7extractEmRSt5dequeIbSaIbEE
libPocoData.so.94:_ZN4Poco4Data17AbstractExtractor7extractEmRSt5dequeIcSaIcEE
libPocoData.so.94:_ZN4Poco4Data17AbstractExtractor7extractEmRSt5dequeIdSaIdEE
libPocoData.so.94:_ZN4Poco4Data17AbstractExtractor7extractEmRSt5dequeIfSaIfEE
libPocoData.so.94:_ZN4Poco4Data17AbstractExtractor7extractEmRSt5dequeIhSaIhEE
libPocoData.so.94:_ZN4Poco4Data17AbstractExtractor7extractEmRSt5dequeIiSaIiEE
libPocoData.so.94:_ZN4Poco4Data17AbstractExtractor7extractEmRSt5dequeIjSaIjEE
libPocoData.so.94:_ZN4Poco4Data17AbstractExtractor7extractEmRSt5dequeIlSaIlEE
libPocoData.so.94:_ZN4Poco4Data17AbstractExtractor7extractEmRSt5dequeImSaImEE
libPocoData.so.94:_ZN4Poco4Data17AbstractExtractor7extractEmRSt5dequeIsSaIsEE
libPocoData.so.94:_ZN4Poco4Data17AbstractExtractor7extractEmRSt5dequeItSaItEE
libPocoData.so.94:_ZN4Poco4Data17AbstractExtractor7extractEmRSt6vectorINS0_3LOBIcEESaIS4_EE
libPocoData.so.94:_ZN4Poco4Data17AbstractExtractor7extractEmRSt6vectorINS0_3LOBIhEESaIS4_EE
libPocoData.so.94:_ZN4Poco4Data17AbstractExtractor7extractEmRSt6vectorINS0_4DateESaIS3_EE
libPocoData.so.94:_ZN4Poco4Data17AbstractExtractor7extractEmRSt6vectorINS0_4TimeESaIS3_EE
libPocoData.so.94:_ZN4Poco4Data17AbstractExtractor7extractEmRSt6vectorINS_3AnyESaIS3_EE
libPocoData.so.94:_ZN4Poco4Data17AbstractExtractor7extractEmRSt6vectorINS_4UUIDESaIS3_EE
libPocoData.so.94:_ZN4Poco4Data17AbstractExtractor7extractEmRSt6vectorINS_7Dynamic3VarESaIS4_EE
libPocoData.so.94:_ZN4Poco4Data17AbstractExtractor7extractEmRSt6vectorINS_8DateTimeESaIS3_EE
libPocoData.so.94:_ZN4Poco4Data17AbstractExtractor7extractEmRSt6vectorINSt7__cxx1112basic_stringIcSt11char_traitsIcESaIcEEESaIS8_EE
libPocoData.so.94:_ZN4Poco4Data17AbstractExtractor7extractEmRSt6vectorINSt7__cxx1112basic_stringItNS_15UTF16CharTraitsESaItEEESaIS7_EE
libPocoData.so.94:_ZN4Poco4Data17AbstractExtractor7extractEmRSt6vectorIaSaIaEE
libPocoData.so.94:_ZN4Poco4Data17AbstractExtractor7extractEmRSt6vectorIbSaIbEE
libPocoData.so.94:_ZN4Poco4Data17AbstractExtractor7extractEmRSt6vectorIcSaIcEE
libPocoData.so.94:_ZN4Poco4Data17AbstractExtractor7extractEmRSt6vectorIdSaIdEE
libPocoData.so.94:_ZN4Poco4Data17AbstractExtractor7extractEmRSt6vectorIfSaIfEE
libPocoData.so.94:_ZN4Poco4Data17AbstractExtractor7extractEmRSt6vectorIhSaIhEE
libPocoData.so.94:_ZN4Poco4Data17AbstractExtractor7extractEmRSt6vectorIiSaIiEE
libPocoData.so.94:_ZN4Poco4Data17AbstractExtractor7extractEmRSt6vectorIjSaIjEE
libPocoData.so.94:_ZN4Poco4Data17AbstractExtractor7extractEmRSt6vectorIlSaIlEE
libPocoData.so.94:_ZN4Poco4Data17AbstractExtractor7extractEmRSt6vectorImSaImEE
libPocoData.so.94:_ZN4Poco4Data17AbstractExtractor7extractEmRSt6vectorIsSaIsEE
libPocoData.so.94:_ZN4Poco4Data17AbstractExtractor7extractEmRSt6vectorItSaItEE
libPocoData.so.94:_ZN4Poco4Data17AbstractExtractor9transcodeERKNSt7__cxx1112basic_stringIcSt11char_traitsIcESaIcEEERS7_
libPocoData.so.94:_ZN4Poco4Data17AbstractExtractorC1ENS_9SharedPtrINS_12TextEncodingENS_16ReferenceCounterENS_13ReleasePolicyIS3_EEEES7_
libPocoData.so.94:_ZN4Poco4Data17AbstractExtractorC2ENS_9SharedPtrINS_12TextEncodingENS_16ReferenceCounterENS_13ReleasePolicyIS3_EEEES7_
libPocoData.so.94:_ZN4Poco4Data17AbstractExtractorD0Ev
libPocoData.so.94:_ZN4Poco4Data17AbstractExtractorD1Ev
libPocoData.so.94:_ZN4Poco4Data17AbstractExtractorD2Ev
libPocoData.so.94:_ZN4Poco4Data17PooledSessionImpl10getFeatureERKNSt7__cxx1112basic_stringIcSt11char_traitsIcESaIcEEE
libPocoData.so.94:_ZN4Poco4Data17PooledSessionImpl10setFeatureERKNSt7__cxx1112basic_stringIcSt11char_traitsIcESaIcEEEb
libPocoData.so.94:_ZN4Poco4Data17PooledSessionImpl11getPropertyERKNSt7__cxx1112basic_stringIcSt11char_traitsIcESaIcEEE
libPocoData.so.94:_ZN4Poco4Data17PooledSessionImpl11setPropertyERKNSt7__cxx1112basic_stringIcSt11char_traitsIcESaIcEEERKNS_3AnyE
libPocoData.so.94:_ZN4Poco4Data17PooledSessionImpl19createStatementImplEv
libPocoData.so.94:_ZN4Poco4Data17PooledSessionImpl20setConnectionTimeoutEm
libPocoData.so.94:_ZN4Poco4Data17PooledSessionImpl23setTransactionIsolationEj
libPocoData.so.94:_ZN4Poco4Data17PooledSessionImpl4openERKNSt7__cxx1112basic_stringIcSt11char_traitsIcESaIcEEE
libPocoData.so.94:_ZN4Poco4Data17PooledSessionImpl5beginEv
libPocoData.so.94:_ZN4Poco4Data17PooledSessionImpl5closeEv
libPocoData.so.94:_ZN4Poco4Data17PooledSessionImpl5resetEv
libPocoData.so.94:_ZN4Poco4Data17PooledSessionImpl6commitEv
libPocoData.so.94:_ZN4Poco4Data17PooledSessionImpl8rollbackEv
libPocoData.so.94:_ZN4Poco4Data17PooledSessionImplC1EPNS0_19PooledSessionHolderE
libPocoData.so.94:_ZN4Poco4Data17PooledSessionImplC2EPNS0_19PooledSessionHolderE
libPocoData.so.94:_ZN4Poco4Data17PooledSessionImplD0Ev
libPocoData.so.94:_ZN4Poco4Data17PooledSessionImplD1Ev
libPocoData.so.94:_ZN4Poco4Data17PooledSessionImplD2Ev
libPocoData.so.94:_ZN4Poco4Data18AbstractExtractionC1Ejjb
libPocoData.so.94:_ZN4Poco4Data18AbstractExtractionC2Ejjb
libPocoData.so.94:_ZN4Poco4Data18AbstractExtractionD0Ev
libPocoData.so.94:_ZN4Poco4Data18AbstractExtractionD1Ev
libPocoData.so.94:_ZN4Poco4Data18AbstractExtractionD2Ev
libPocoData.so.94:_ZN4Poco4Data18AbstractPreparator7prepareEmRKNSt7__cxx1112basic_stringItNS_15UTF16CharTraitsESaItEEE
libPocoData.so.94:_ZN4Poco4Data18AbstractPreparator7prepareEmRKNSt7__cxx114listINS0_3LOBIcEESaIS5_EEE
libPocoData.so.94:_ZN4Poco4Data18AbstractPreparator7prepareEmRKNSt7__cxx114listINS0_3LOBIhEESaIS5_EEE
libPocoData.so.94:_ZN4Poco4Data18AbstractPreparator7prepareEmRKNSt7__cxx114listINS0_4DateESaIS4_EEE
libPocoData.so.94:_ZN4Poco4Data18AbstractPreparator7prepareEmRKNSt7__cxx114listINS0_4TimeESaIS4_EEE
libPocoData.so.94:_ZN4Poco4Data18AbstractPreparator7prepareEmRKNSt7__cxx114listINS2_12basic_stringIcSt11char_traitsIcESaIcEEESaIS8_EEE
libPocoData.so.94:_ZN4Poco4Data18AbstractPreparator7prepareEmRKNSt7__cxx114listINS2_12basic_stringItNS_15UTF16CharTraitsESaItEEESaIS7_EEE
libPocoData.so.94:_ZN4Poco4Data18AbstractPreparator7prepareEmRKNSt7__cxx114listINS_3AnyESaIS4_EEE
libPocoData.so.94:_ZN4Poco4Data18AbstractPreparator7prepareEmRKNSt7__cxx114listINS_4UUIDESaIS4_EEE
libPocoData.so.94:_ZN4Poco4Data18AbstractPreparator7prepareEmRKNSt7__cxx114listINS_7Dynamic3VarESaIS5_EEE
libPocoData.so.94:_ZN4Poco4Data18AbstractPreparator7prepareEmRKNSt7__cxx114listINS_8DateTimeESaIS4_EEE
libPocoData.so.94:_ZN4Poco4Data18AbstractPreparator7prepareEmRKNSt7__cxx114listIaSaIaEEE
libPocoData.so.94:_ZN4Poco4Data18AbstractPreparator7prepareEmRKNSt7__cxx114listIbSaIbEEE
libPocoData.so.94:_ZN4Poco4Data18AbstractPreparator7prepareEmRKNSt7__cxx114listIcSaIcEEE
libPocoData.so.94:_ZN4Poco4Data18AbstractPreparator7prepareEmRKNSt7__cxx114listIdSaIdEEE
libPocoData.so.94:_ZN4Poco4Data18AbstractPreparator7prepareEmRKNSt7__cxx114listIfSaIfEEE
libPocoData.so.94:_ZN4Poco4Data18AbstractPreparator7prepareEmRKNSt7__cxx114listIhSaIhEEE
libPocoData.so.94:_ZN4Poco4Data18AbstractPreparator7prepareEmRKNSt7__cxx114listIiSaIiEEE
libPocoData.so.94:_ZN4Poco4Data18AbstractPreparator7prepareEmRKNSt7__cxx114listIjSaIjEEE
libPocoData.so.94:_ZN4Poco4Data18AbstractPreparator7prepareEmRKNSt7__cxx114listIlSaIlEEE
libPocoData.so.94:_ZN4Poco4Data18AbstractPreparator7prepareEmRKNSt7__cxx114listImSaImEEE
libPocoData.so.94:_ZN4Poco4Data18AbstractPreparator7prepareEmRKNSt7__cxx114listIsSaIsEEE
libPocoData.so.94:_ZN4Poco4Data18AbstractPreparator7prepareEmRKNSt7__cxx114listItSaItEEE
libPocoData.so.94:_ZN4Poco4Data18AbstractPreparator7prepareEmRKSt5dequeINS0_3LOBIcEESaIS4_EE
libPocoData.so.94:_ZN4Poco4Data18AbstractPreparator7prepareEmRKSt5dequeINS0_3LOBIhEESaIS4_EE
libPocoData.so.94:_ZN4Poco4Data18AbstractPreparator7prepareEmRKSt5dequeINS0_4DateESaIS3_EE
libPocoData.so.94:_ZN4Poco4Data18AbstractPreparator7prepareEmRKSt5dequeINS0_4TimeESaIS3_EE
libPocoData.so.94:_ZN4Poco4Data18AbstractPreparator7prepareEmRKSt5dequeINS_3AnyESaIS3_EE
libPocoData.so.94:_ZN4Poco4Data18AbstractPreparator7prepareEmRKSt5dequeINS_4UUIDESaIS3_EE
libPocoData.so.94:_ZN4Poco4Data18AbstractPreparator7prepareEmRKSt5dequeINS_7Dynamic3VarESaIS4_EE
libPocoData.so.94:_ZN4Poco4Data18AbstractPreparator7prepareEmRKSt5dequeINS_8DateTimeESaIS3_EE
libPocoData.so.94:_ZN4Poco4Data18AbstractPreparator7prepareEmRKSt5dequeINSt7__cxx1112basic_stringIcSt11char_traitsIcESaIcEEESaIS8_EE
libPocoData.so.94:_ZN4Poco4Data18AbstractPreparator7prepareEmRKSt5dequeINSt7__cxx1112basic_stringItNS_15UTF16CharTraitsESaItEEESaIS7_EE
libPocoData.so.94:_ZN4Poco4Data18AbstractPreparator7prepareEmRKSt5dequeIaSaIaEE
libPocoData.so.94:_ZN4Poco4Data18AbstractPreparator7prepareEmRKSt5dequeIbSaIbEE
libPocoData.so.94:_ZN4Poco4Data18AbstractPreparator7prepareEmRKSt5dequeIcSaIcEE
libPocoData.so.94:_ZN4Poco4Data18AbstractPreparator7prepareEmRKSt5dequeIdSaIdEE
libPocoData.so.94:_ZN4Poco4Data18AbstractPreparator7prepareEmRKSt5dequeIfSaIfEE
libPocoData.so.94:_ZN4Poco4Data18AbstractPreparator7prepareEmRKSt5dequeIhSaIhEE
libPocoData.so.94:_ZN4Poco4Data18AbstractPreparator7prepareEmRKSt5dequeIiSaIiEE
libPocoData.so.94:_ZN4Poco4Data18AbstractPreparator7prepareEmRKSt5dequeIjSaIjEE
libPocoData.so.94:_ZN4Poco4Data18AbstractPreparator7prepareEmRKSt5dequeIlSaIlEE
libPocoData.so.94:_ZN4Poco4Data18AbstractPreparator7prepareEmRKSt5dequeImSaImEE
libPocoData.so.94:_ZN4Poco4Data18AbstractPreparator7prepareEmRKSt5dequeIsSaIsEE
libPocoData.so.94:_ZN4Poco4Data18AbstractPreparator7prepareEmRKSt5dequeItSaItEE
libPocoData.so.94:_ZN4Poco4Data18AbstractPreparator7prepareEmRKSt6vectorINS0_3LOBIcEESaIS4_EE
libPocoData.so.94:_ZN4Poco4Data18AbstractPreparator7prepareEmRKSt6vectorINS0_3LOBIhEESaIS4_EE
libPocoData.so.94:_ZN4Poco4Data18AbstractPreparator7prepareEmRKSt6vectorINS0_4DateESaIS3_EE
libPocoData.so.94:_ZN4Poco4Data18AbstractPreparator7prepareEmRKSt6vectorINS0_4TimeESaIS3_EE
libPocoData.so.94:_ZN4Poco4Data18AbstractPreparator7prepareEmRKSt6vectorINS_3AnyESaIS3_EE
libPocoData.so.94:_ZN4Poco4Data18AbstractPreparator7prepareEmRKSt6vectorINS_4UUIDESaIS3_EE
libPocoData.so.94:_ZN4Poco4Data18AbstractPreparator7prepareEmRKSt6vectorINS_7Dynamic3VarESaIS4_EE
libPocoData.so.94:_ZN4Poco4Data18AbstractPreparator7prepareEmRKSt6vectorINS_8DateTimeESaIS3_EE
libPocoData.so.94:_ZN4Poco4Data18AbstractPreparator7prepareEmRKSt6vectorINSt7__cxx1112basic_stringIcSt11char_traitsIcESaIcEEESaIS8_EE
libPocoData.so.94:_ZN4Poco4Data18AbstractPreparator7prepareEmRKSt6vectorINSt7__cxx1112basic_stringItNS_15UTF16CharTraitsESaItEEESaIS7_EE
libPocoData.so.94:_ZN4Poco4Data18AbstractPreparator7prepareEmRKSt6vectorIaSaIaEE
libPocoData.so.94:_ZN4Poco4Data18AbstractPreparator7prepareEmRKSt6vectorIbSaIbEE
libPocoData.so.94:_ZN4Poco4Data18AbstractPreparator7prepareEmRKSt6vectorIcSaIcEE
libPocoData.so.94:_ZN4Poco4Data18AbstractPreparator7prepareEmRKSt6vectorIdSaIdEE
libPocoData.so.94:_ZN4Poco4Data18AbstractPreparator7prepareEmRKSt6vectorIfSaIfEE
libPocoData.so.94:_ZN4Poco4Data18AbstractPreparator7prepareEmRKSt6vectorIhSaIhEE
libPocoData.so.94:_ZN4Poco4Data18AbstractPreparator7prepareEmRKSt6vectorIiSaIiEE
libPocoData.so.94:_ZN4Poco4Data18AbstractPreparator7prepareEmRKSt6vectorIjSaIjEE
libPocoData.so.94:_ZN4Poco4Data18AbstractPreparator7prepareEmRKSt6vectorIlSaIlEE
libPocoData.so.94:_ZN4Poco4Data18AbstractPreparator7prepareEmRKSt6vectorImSaImEE
libPocoData.so.94:_ZN4Poco4Data18AbstractPreparator7prepareEmRKSt6vectorIsSaIsEE
libPocoData.so.94:_ZN4Poco4Data18AbstractPreparator7prepareEmRKSt6vectorItSaItEE
libPocoData.so.94:_ZN4Poco4Data18AbstractPreparatorC1Ej
libPocoData.so.94:_ZN4Poco4Data18AbstractPreparatorC2Ej
libPocoData.so.94:_ZN4Poco4Data18AbstractPreparatorD0Ev
libPocoData.so.94:_ZN4Poco4Data18AbstractPreparatorD1Ev
libPocoData.so.94:_ZN4Poco4Data18AbstractPreparatorD2Ev
libPocoData.so.94:_ZN4Poco4Data18ExecutionExceptionC1ERKNSt7__cxx1112basic_stringIcSt11char_traitsIcESaIcEEERKNS_9ExceptionEi
libPocoData.so.94:_ZN4Poco4Data18ExecutionExceptionC1ERKNSt7__cxx1112basic_stringIcSt11char_traitsIcESaIcEEES9_i
libPocoData.so.94:_ZN4Poco4Data18ExecutionExceptionC1ERKNSt7__cxx1112basic_stringIcSt11char_traitsIcESaIcEEEi
libPocoData.so.94:_ZN4Poco4Data18ExecutionExceptionC1ERKS1_
libPocoData.so.94:_ZN4Poco4Data18ExecutionExceptionC1Ei
libPocoData.so.94:_ZN4Poco4Data18ExecutionExceptionC2ERKNSt7__cxx1112basic_stringIcSt11char_traitsIcESaIcEEERKNS_9ExceptionEi
libPocoData.so.94:_ZN4Poco4Data18ExecutionExceptionC2ERKNSt7__cxx1112basic_stringIcSt11char_traitsIcESaIcEEES9_i
libPocoData.so.94:_ZN4Poco4Data18ExecutionExceptionC2ERKNSt7__cxx1112basic_stringIcSt11char_traitsIcESaIcEEEi
libPocoData.so.94:_ZN4Poco4Data18ExecutionExceptionC2ERKS1_
libPocoData.so.94:_ZN4Poco4Data18ExecutionExceptionC2Ei
libPocoData.so.94:_ZN4Poco4Data18ExecutionExceptionD0Ev
libPocoData.so.94:_ZN4Poco4Data18ExecutionExceptionD1Ev
libPocoData.so.94:_ZN4Poco4Data18ExecutionExceptionD2Ev
libPocoData.so.94:_ZN4Poco4Data18ExecutionExceptionaSERKS1_
libPocoData.so.94:_ZN4Poco4Data18SimpleRowFormatter11formatNamesENS_9SharedPtrISt6vectorINSt7__cxx1112basic_stringIcSt11char_traitsIcESaIcEEESaIS9_EENS_16ReferenceCounterENS_13ReleasePolicyISB_EEEERS9_
libPocoData.so.94:_ZN4Poco4Data18SimpleRowFormatter12formatValuesERKSt6vectorINS_7Dynamic3VarESaIS4_EERNSt7__cxx1112basic_stringIcSt11char_traitsIcESaIcEEE
libPocoData.so.94:_ZN4Poco4Data18SimpleRowFormatter4swapERS1_
libPocoData.so.94:_ZN4Poco4Data18SimpleRowFormatterC1ERKS1_
libPocoData.so.94:_ZN4Poco4Data18SimpleRowFormatterC1Ell
libPocoData.so.94:_ZN4Poco4Data18SimpleRowFormatterC2ERKS1_
libPocoData.so.94:_ZN4Poco4Data18SimpleRowFormatterC2Ell
libPocoData.so.94:_ZN4Poco4Data18SimpleRowFormatterD0Ev
libPocoData.so.94:_ZN4Poco4Data18SimpleRowFormatterD1Ev
libPocoData.so.94:_ZN4Poco4Data18SimpleRowFormatterD2Ev
libPocoData.so.94:_ZN4Poco4Data18SimpleRowFormatteraSERKS1_
libPocoData.so.94:_ZN4Poco4Data19AbstractPreparationC1ENS_9SharedPtrINS0_18AbstractPreparatorENS_16ReferenceCounterENS_13ReleasePolicyIS3_EEEE
libPocoData.so.94:_ZN4Poco4Data19AbstractPreparationC2ENS_9SharedPtrINS0_18AbstractPreparatorENS_16ReferenceCounterENS_13ReleasePolicyIS3_EEEE
libPocoData.so.94:_ZN4Poco4Data19AbstractPreparationD0Ev
libPocoData.so.94:_ZN4Poco4Data19AbstractPreparationD1Ev
libPocoData.so.94:_ZN4Poco4Data19AbstractPreparationD2Ev
libPocoData.so.94:_ZN4Poco4Data19PooledSessionHolderC1ERNS0_11SessionPoolEPNS0_11SessionImplE
libPocoData.so.94:_ZN4Poco4Data19PooledSessionHolderC2ERNS0_11SessionPoolEPNS0_11SessionImplE
libPocoData.so.94:_ZN4Poco4Data19PooledSessionHolderD0Ev
libPocoData.so.94:_ZN4Poco4Data19PooledSessionHolderD1Ev
libPocoData.so.94:_ZN4Poco4Data19PooledSessionHolderD2Ev
libPocoData.so.94:_ZN4Poco4Data20ArchiveByAgeStrategy12setThresholdERKNSt7__cxx1112basic_stringIcSt11char_traitsIcESaIcEEE
libPocoData.so.94:_ZN4Poco4Data20ArchiveByAgeStrategy14initStatementsEv
libPocoData.so.94:_ZN4Poco4Data20ArchiveByAgeStrategy7archiveEv
libPocoData.so.94:_ZN4Poco4Data20ArchiveByAgeStrategyC1ERKNSt7__cxx1112basic_stringIcSt11char_traitsIcESaIcEEES9_S9_S9_
libPocoData.so.94:_ZN4Poco4Data20ArchiveByAgeStrategyC2ERKNSt7__cxx1112basic_stringIcSt11char_traitsIcESaIcEEES9_S9_S9_
libPocoData.so.94:_ZN4Poco4Data20ArchiveByAgeStrategyD0Ev
libPocoData.so.94:_ZN4Poco4Data20ArchiveByAgeStrategyD1Ev
libPocoData.so.94:_ZN4Poco4Data20ArchiveByAgeStrategyD2Ev
libPocoData.so.94:_ZN4Poco4Data20SessionPoolContainer3addEPNS0_11SessionPoolE
libPocoData.so.94:_ZN4Poco4Data20SessionPoolContainer3addERKNSt7__cxx1112basic_stringIcSt11char_traitsIcESaIcEEES9_iii
libPocoData.so.94:_ZN4Poco4Data20SessionPoolContainer3getERKNSt7__cxx1112basic_stringIcSt11char_traitsIcESaIcEEE
libPocoData.so.94:_ZN4Poco4Data20SessionPoolContainer7getPoolERKNSt7__cxx1112basic_stringIcSt11char_traitsIcESaIcEEE
libPocoData.so.94:_ZN4Poco4Data20SessionPoolContainer8shutdownEv
libPocoData.so.94:_ZN4Poco4Data20SessionPoolContainerC1Ev
libPocoData.so.94:_ZN4Poco4Data20SessionPoolContainerC2Ev
libPocoData.so.94:_ZN4Poco4Data20SessionPoolContainerD1Ev
libPocoData.so.94:_ZN4Poco4Data20SessionPoolContainerD2Ev
libPocoData.so.94:_ZN4Poco4Data20UnknownTypeExceptionC1ERKNSt7__cxx1112basic_stringIcSt11char_traitsIcESaIcEEERKNS_9ExceptionEi
libPocoData.so.94:_ZN4Poco4Data20UnknownTypeExceptionC1ERKNSt7__cxx1112basic_stringIcSt11char_traitsIcESaIcEEES9_i
libPocoData.so.94:_ZN4Poco4Data20UnknownTypeExceptionC1ERKNSt7__cxx1112basic_stringIcSt11char_traitsIcESaIcEEEi
libPocoData.so.94:_ZN4Poco4Data20UnknownTypeExceptionC1ERKS1_
libPocoData.so.94:_ZN4Poco4Data20UnknownTypeExceptionC1Ei
libPocoData.so.94:_ZN4Poco4Data20UnknownTypeExceptionC2ERKNSt7__cxx1112basic_stringIcSt11char_traitsIcESaIcEEERKNS_9ExceptionEi
libPocoData.so.94:_ZN4Poco4Data20UnknownTypeExceptionC2ERKNSt7__cxx1112basic_stringIcSt11char_traitsIcESaIcEEES9_i
libPocoData.so.94:_ZN4Poco4Data20UnknownTypeExceptionC2ERKNSt7__cxx1112basic_stringIcSt11char_traitsIcESaIcEEEi
libPocoData.so.94:_ZN4Poco4Data20UnknownTypeExceptionC2ERKS1_
libPocoData.so.94:_ZN4Poco4Data20UnknownTypeExceptionC2Ei
libPocoData.so.94:_ZN4Poco4Data20UnknownTypeExceptionD0Ev
libPocoData.so.94:_ZN4Poco4Data20UnknownTypeExceptionD1Ev
libPocoData.so.94:_ZN4Poco4Data20UnknownTypeExceptionD2Ev
libPocoData.so.94:_ZN4Poco4Data20UnknownTypeExceptionaSERKS1_
libPocoData.so.94:_ZN4Poco4Data21NotConnectedExceptionC1ERKNSt7__cxx1112basic_stringIcSt11char_traitsIcESaIcEEERKNS_9ExceptionEi
libPocoData.so.94:_ZN4Poco4Data21NotConnectedExceptionC1ERKNSt7__cxx1112basic_stringIcSt11char_traitsIcESaIcEEES9_i
libPocoData.so.94:_ZN4Poco4Data21NotConnectedExceptionC1ERKNSt7__cxx1112basic_stringIcSt11char_traitsIcESaIcEEEi
libPocoData.so.94:_ZN4Poco4Data21NotConnectedExceptionC1ERKS1_
libPocoData.so.94:_ZN4Poco4Data21NotConnectedExceptionC1Ei
libPocoData.so.94:_ZN4Poco4Data21NotConnectedExceptionC2ERKNSt7__cxx1112basic_stringIcSt11char_traitsIcESaIcEEERKNS_9ExceptionEi
libPocoData.so.94:_ZN4Poco4Data21NotConnectedExceptionC2ERKNSt7__cxx1112basic_stringIcSt11char_traitsIcESaIcEEES9_i
libPocoData.so.94:_ZN4Poco4Data21NotConnectedExceptionC2ERKNSt7__cxx1112basic_stringIcSt11char_traitsIcESaIcEEEi
libPocoData.so.94:_ZN4Poco4Data21NotConnectedExceptionC2ERKS1_
libPocoData.so.94:_ZN4Poco4Data21NotConnectedExceptionC2Ei
libPocoData.so.94:_ZN4Poco4Data21NotConnectedExceptionD0Ev
libPocoData.so.94:_ZN4Poco4Data21NotConnectedExceptionD1Ev
libPocoData.so.94:_ZN4Poco4Data21NotConnectedExceptionD2Ev
libPocoData.so.94:_ZN4Poco4Data21NotConnectedExceptionaSERKS1_
libPocoData.so.94:_ZN4Poco4Data21NotSupportedExceptionC1ERKNSt7__cxx1112basic_stringIcSt11char_traitsIcESaIcEEERKNS_9ExceptionEi
libPocoData.so.94:_ZN4Poco4Data21NotSupportedExceptionC1ERKNSt7__cxx1112basic_stringIcSt11char_traitsIcESaIcEEES9_i
libPocoData.so.94:_ZN4Poco4Data21NotSupportedExceptionC1ERKNSt7__cxx1112basic_stringIcSt11char_traitsIcESaIcEEEi
libPocoData.so.94:_ZN4Poco4Data21NotSupportedExceptionC1ERKS1_
libPocoData.so.94:_ZN4Poco4Data21NotSupportedExceptionC1Ei
libPocoData.so.94:_ZN4Poco4Data21NotSupportedExceptionC2ERKNSt7__cxx1112basic_stringIcSt11char_traitsIcESaIcEEERKNS_9ExceptionEi
libPocoData.so.94:_ZN4Poco4Data21NotSupportedExceptionC2ERKNSt7__cxx1112basic_stringIcSt11char_traitsIcESaIcEEES9_i
libPocoData.so.94:_ZN4Poco4Data21NotSupportedExceptionC2ERKNSt7__cxx1112basic_stringIcSt11char_traitsIcESaIcEEEi
libPocoData.so.94:_ZN4Poco4Data21NotSupportedExceptionC2ERKS1_
libPocoData.so.94:_ZN4Poco4Data21NotSupportedExceptionC2Ei
libPocoData.so.94:_ZN4Poco4Data21NotSupportedExceptionD0Ev
libPocoData.so.94:_ZN4Poco4Data21NotSupportedExceptionD1Ev
libPocoData.so.94:_ZN4Poco4Data21NotSupportedExceptionD2Ev
libPocoData.so.94:_ZN4Poco4Data21NotSupportedExceptionaSERKS1_
libPocoData.so.94:_ZN4Poco4Data23LengthExceededExceptionC1ERKNSt7__cxx1112basic_stringIcSt11char_traitsIcESaIcEEERKNS_9ExceptionEi
libPocoData.so.94:_ZN4Poco4Data23LengthExceededExceptionC1ERKNSt7__cxx1112basic_stringIcSt11char_traitsIcESaIcEEES9_i
libPocoData.so.94:_ZN4Poco4Data23LengthExceededExceptionC1ERKNSt7__cxx1112basic_stringIcSt11char_traitsIcESaIcEEEi
libPocoData.so.94:_ZN4Poco4Data23LengthExceededExceptionC1ERKS1_
libPocoData.so.94:_ZN4Poco4Data23LengthExceededExceptionC1Ei
libPocoData.so.94:_ZN4Poco4Data23LengthExceededExceptionC2ERKNSt7__cxx1112basic_stringIcSt11char_traitsIcESaIcEEERKNS_9ExceptionEi
libPocoData.so.94:_ZN4Poco4Data23LengthExceededExceptionC2ERKNSt7__cxx1112basic_stringIcSt11char_traitsIcESaIcEEES9_i
libPocoData.so.94:_ZN4Poco4Data23LengthExceededExceptionC2ERKNSt7__cxx1112basic_stringIcSt11char_traitsIcESaIcEEEi
libPocoData.so.94:_ZN4Poco4Data23LengthExceededExceptionC2ERKS1_
libPocoData.so.94:_ZN4Poco4Data23LengthExceededExceptionC2Ei
libPocoData.so.94:_ZN4Poco4Data23LengthExceededExceptionD0Ev
libPocoData.so.94:_ZN4Poco4Data23LengthExceededExceptionD1Ev
libPocoData.so.94:_ZN4Poco4Data23LengthExceededExceptionD2Ev
libPocoData.so.94:_ZN4Poco4Data23LengthExceededExceptionaSERKS1_
libPocoData.so.94:_ZN4Poco4Data23RowDataMissingExceptionC1ERKNSt7__cxx1112basic_stringIcSt11char_traitsIcESaIcEEERKNS_9ExceptionEi
libPocoData.so.94:_ZN4Poco4Data23RowDataMissingExceptionC1ERKNSt7__cxx1112basic_stringIcSt11char_traitsIcESaIcEEES9_i
libPocoData.so.94:_ZN4Poco4Data23RowDataMissingExceptionC1ERKNSt7__cxx1112basic_stringIcSt11char_traitsIcESaIcEEEi
libPocoData.so.94:_ZN4Poco4Data23RowDataMissingExceptionC1ERKS1_
libPocoData.so.94:_ZN4Poco4Data23RowDataMissingExceptionC1Ei
libPocoData.so.94:_ZN4Poco4Data23RowDataMissingExceptionC2ERKNSt7__cxx1112basic_stringIcSt11char_traitsIcESaIcEEERKNS_9ExceptionEi
libPocoData.so.94:_ZN4Poco4Data23RowDataMissingExceptionC2ERKNSt7__cxx1112basic_stringIcSt11char_traitsIcESaIcEEES9_i
libPocoData.so.94:_ZN4Poco4Data23RowDataMissingExceptionC2ERKNSt7__cxx1112basic_stringIcSt11char_traitsIcESaIcEEEi
libPocoData.so.94:_ZN4Poco4Data23RowDataMissingExceptionC2ERKS1_
libPocoData.so.94:_ZN4Poco4Data23RowDataMissingExceptionC2Ei
libPocoData.so.94:_ZN4Poco4Data23RowDataMissingExceptionD0Ev
libPocoData.so.94:_ZN4Poco4Data23RowDataMissingExceptionD1Ev
libPocoData.so.94:_ZN4Poco4Data23RowDataMissingExceptionD2Ev
libPocoData.so.94:_ZN4Poco4Data23RowDataMissingExceptionaSERKS1_
libPocoData.so.94:_ZN4Poco4Data24UnknownDataBaseExceptionC1ERKNSt7__cxx1112basic_stringIcSt11char_traitsIcESaIcEEERKNS_9ExceptionEi
libPocoData.so.94:_ZN4Poco4Data24UnknownDataBaseExceptionC1ERKNSt7__cxx1112basic_stringIcSt11char_traitsIcESaIcEEES9_i
libPocoData.so.94:_ZN4Poco4Data24UnknownDataBaseExceptionC1ERKNSt7__cxx1112basic_stringIcSt11char_traitsIcESaIcEEEi
libPocoData.so.94:_ZN4Poco4Data24UnknownDataBaseExceptionC1ERKS1_
libPocoData.so.94:_ZN4Poco4Data24UnknownDataBaseExceptionC1Ei
libPocoData.so.94:_ZN4Poco4Data24UnknownDataBaseExceptionC2ERKNSt7__cxx1112basic_stringIcSt11char_traitsIcESaIcEEERKNS_9ExceptionEi
libPocoData.so.94:_ZN4Poco4Data24UnknownDataBaseExceptionC2ERKNSt7__cxx1112basic_stringIcSt11char_traitsIcESaIcEEES9_i
libPocoData.so.94:_ZN4Poco4Data24UnknownDataBaseExceptionC2ERKNSt7__cxx1112basic_stringIcSt11char_traitsIcESaIcEEEi
libPocoData.so.94:_ZN4Poco4Data24UnknownDataBaseExceptionC2ERKS1_
libPocoData.so.94:_ZN4Poco4Data24UnknownDataBaseExceptionC2Ei
libPocoData.so.94:_ZN4Poco4Data24UnknownDataBaseExceptionD0Ev
libPocoData.so.94:_ZN4Poco4Data24UnknownDataBaseExceptionD1Ev
libPocoData.so.94:_ZN4Poco4Data24UnknownDataBaseExceptionD2Ev
libPocoData.so.94:_ZN4Poco4Data24UnknownDataBaseExceptionaSERKS1_
libPocoData.so.94:_ZN4Poco4Data25ConnectionFailedExceptionC1ERKNSt7__cxx1112basic_stringIcSt11char_traitsIcESaIcEEERKNS_9ExceptionEi
libPocoData.so.94:_ZN4Poco4Data25ConnectionFailedExceptionC1ERKNSt7__cxx1112basic_stringIcSt11char_traitsIcESaIcEEES9_i
libPocoData.so.94:_ZN4Poco4Data25ConnectionFailedExceptionC1ERKNSt7__cxx1112basic_stringIcSt11char_traitsIcESaIcEEEi
libPocoData.so.94:_ZN4Poco4Data25ConnectionFailedExceptionC1ERKS1_
libPocoData.so.94:_ZN4Poco4Data25ConnectionFailedExceptionC1Ei
libPocoData.so.94:_ZN4Poco4Data25ConnectionFailedExceptionC2ERKNSt7__cxx1112basic_stringIcSt11char_traitsIcESaIcEEERKNS_9ExceptionEi
libPocoData.so.94:_ZN4Poco4Data25ConnectionFailedExceptionC2ERKNSt7__cxx1112basic_stringIcSt11char_traitsIcESaIcEEES9_i
libPocoData.so.94:_ZN4Poco4Data25ConnectionFailedExceptionC2ERKNSt7__cxx1112basic_stringIcSt11char_traitsIcESaIcEEEi
libPocoData.so.94:_ZN4Poco4Data25ConnectionFailedExceptionC2ERKS1_
libPocoData.so.94:_ZN4Poco4Data25ConnectionFailedExceptionC2Ei
libPocoData.so.94:_ZN4Poco4Data25ConnectionFailedExceptionD0Ev
libPocoData.so.94:_ZN4Poco4Data25ConnectionFailedExceptionD1Ev
libPocoData.so.94:_ZN4Poco4Data25ConnectionFailedExceptionD2Ev
libPocoData.so.94:_ZN4Poco4Data25ConnectionFailedExceptionaSERKS1_
libPocoData.so.94:_ZN4Poco4Data26SessionPoolExistsExceptionC1ERKNSt7__cxx1112basic_stringIcSt11char_traitsIcESaIcEEERKNS_9ExceptionEi
libPocoData.so.94:_ZN4Poco4Data26SessionPoolExistsExceptionC1ERKNSt7__cxx1112basic_stringIcSt11char_traitsIcESaIcEEES9_i
libPocoData.so.94:_ZN4Poco4Data26SessionPoolExistsExceptionC1ERKNSt7__cxx1112basic_stringIcSt11char_traitsIcESaIcEEEi
libPocoData.so.94:_ZN4Poco4Data26SessionPoolExistsExceptionC1ERKS1_
libPocoData.so.94:_ZN4Poco4Data26SessionPoolExistsExceptionC1Ei
libPocoData.so.94:_ZN4Poco4Data26SessionPoolExistsExceptionC2ERKNSt7__cxx1112basic_stringIcSt11char_traitsIcESaIcEEERKNS_9ExceptionEi
libPocoData.so.94:_ZN4Poco4Data26SessionPoolExistsExceptionC2ERKNSt7__cxx1112basic_stringIcSt11char_traitsIcESaIcEEES9_i
libPocoData.so.94:_ZN4Poco4Data26SessionPoolExistsExceptionC2ERKNSt7__cxx1112basic_stringIcSt11char_traitsIcESaIcEEEi
libPocoData.so.94:_ZN4Poco4Data26SessionPoolExistsExceptionC2ERKS1_
libPocoData.so.94:_ZN4Poco4Data26SessionPoolExistsExceptionC2Ei
libPocoData.so.94:_ZN4Poco4Data26SessionPoolExistsExceptionD0Ev
libPocoData.so.94:_ZN4Poco4Data26SessionPoolExistsExceptionD1Ev
libPocoData.so.94:_ZN4Poco4Data26SessionPoolExistsExceptionD2Ev
libPocoData.so.94:_ZN4Poco4Data26SessionPoolExistsExceptionaSERKS1_
libPocoData.so.94:_ZN4Poco4Data27SessionUnavailableExceptionC1ERKNSt7__cxx1112basic_stringIcSt11char_traitsIcESaIcEEERKNS_9ExceptionEi
libPocoData.so.94:_ZN4Poco4Data27SessionUnavailableExceptionC1ERKNSt7__cxx1112basic_stringIcSt11char_traitsIcESaIcEEES9_i
libPocoData.so.94:_ZN4Poco4Data27SessionUnavailableExceptionC1ERKNSt7__cxx1112basic_stringIcSt11char_traitsIcESaIcEEEi
libPocoData.so.94:_ZN4Poco4Data27SessionUnavailableExceptionC1ERKS1_
libPocoData.so.94:_ZN4Poco4Data27SessionUnavailableExceptionC1Ei
libPocoData.so.94:_ZN4Poco4Data27SessionUnavailableExceptionC2ERKNSt7__cxx1112basic_stringIcSt11char_traitsIcESaIcEEERKNS_9ExceptionEi
libPocoData.so.94:_ZN4Poco4Data27SessionUnavailableExceptionC2ERKNSt7__cxx1112basic_stringIcSt11char_traitsIcESaIcEEES9_i
libPocoData.so.94:_ZN4Poco4Data27SessionUnavailableExceptionC2ERKNSt7__cxx1112basic_stringIcSt11char_traitsIcESaIcEEEi
libPocoData.so.94:_ZN4Poco4Data27SessionUnavailableExceptionC2ERKS1_
libPocoData.so.94:_ZN4Poco4Data27SessionUnavailableExceptionC2Ei
libPocoData.so.94:_ZN4Poco4Data27SessionUnavailableExceptionD0Ev
libPocoData.so.94:_ZN4Poco4Data27SessionUnavailableExceptionD1Ev
libPocoData.so.94:_ZN4Poco4Data27SessionUnavailableExceptionD2Ev
libPocoData.so.94:_ZN4Poco4Data27SessionUnavailableExceptionaSERKS1_
libPocoData.so.94:_ZN4Poco4Data29SessionPoolExhaustedExceptionC1ERKNSt7__cxx1112basic_stringIcSt11char_traitsIcESaIcEEERKNS_9ExceptionEi
libPocoData.so.94:_ZN4Poco4Data29SessionPoolExhaustedExceptionC1ERKNSt7__cxx1112basic_stringIcSt11char_traitsIcESaIcEEES9_i
libPocoData.so.94:_ZN4Poco4Data29SessionPoolExhaustedExceptionC1ERKNSt7__cxx1112basic_stringIcSt11char_traitsIcESaIcEEEi
libPocoData.so.94:_ZN4Poco4Data29SessionPoolExhaustedExceptionC1ERKS1_
libPocoData.so.94:_ZN4Poco4Data29SessionPoolExhaustedExceptionC1Ei
libPocoData.so.94:_ZN4Poco4Data29SessionPoolExhaustedExceptionC2ERKNSt7__cxx1112basic_stringIcSt11char_traitsIcESaIcEEERKNS_9ExceptionEi
libPocoData.so.94:_ZN4Poco4Data29SessionPoolExhaustedExceptionC2ERKNSt7__cxx1112basic_stringIcSt11char_traitsIcESaIcEEES9_i
libPocoData.so.94:_ZN4Poco4Data29SessionPoolExhaustedExceptionC2ERKNSt7__cxx1112basic_stringIcSt11char_traitsIcESaIcEEEi
libPocoData.so.94:_ZN4Poco4Data29SessionPoolExhaustedExceptionC2ERKS1_
libPocoData.so.94:_ZN4Poco4Data29SessionPoolExhaustedExceptionC2Ei
libPocoData.so.94:_ZN4Poco4Data29SessionPoolExhaustedExceptionD0Ev
libPocoData.so.94:_ZN4Poco4Data29SessionPoolExhaustedExceptionD1Ev
libPocoData.so.94:_ZN4Poco4Data29SessionPoolExhaustedExceptionD2Ev
libPocoData.so.94:_ZN4Poco4Data29SessionPoolExhaustedExceptionaSERKS1_
libPocoData.so.94:_ZN4Poco4Data3Row10setSortMapERKNS_9SharedPtrISt6vectorINS_5TupleImNS1_14ComparisonTypeENS_12NullTypeListES6_S6_S6_S6_S6_S6_S6_S6_S6_S6_S6_S6_S6_S6_S6_S6_S6_S6_S6_S6_S6_S6_S6_S6_S6_S6_S6_S6_S6_S6_S6_S6_S6_S6_S6_S6_S6_EESaIS7_EENS_16ReferenceCounterENS_13ReleasePolicyIS9_EEEE
libPocoData.so.94:_ZN4Poco4Data3Row11getPositionERKNSt7__cxx1112basic_stringIcSt11char_traitsIcESaIcEEE
libPocoData.so.94:_ZN4Poco4Data3Row12addSortFieldERKNSt7__cxx1112basic_stringIcSt11char_traitsIcESaIcEEE
libPocoData.so.94:_ZN4Poco4Data3Row12addSortFieldEm
libPocoData.so.94:_ZN4Poco4Data3Row12setFormatterERKNS_9SharedPtrINS0_12RowFormatterENS_16ReferenceCounterENS_13ReleasePolicyIS3_EEEE
libPocoData.so.94:_ZN4Poco4Data3Row15removeSortFieldERKNSt7__cxx1112basic_stringIcSt11char_traitsIcESaIcEEE
libPocoData.so.94:_ZN4Poco4Data3Row15removeSortFieldEm
libPocoData.so.94:_ZN4Poco4Data3Row16replaceSortFieldERKNSt7__cxx1112basic_stringIcSt11char_traitsIcESaIcEEES9_
libPocoData.so.94:_ZN4Poco4Data3Row16replaceSortFieldEmm
libPocoData.so.94:_ZN4Poco4Data3Row3getEm
libPocoData.so.94:_ZN4Poco4Data3Row4initERKNS_9SharedPtrISt6vectorINS_5TupleImNS1_14ComparisonTypeENS_12NullTypeListES6_S6_S6_S6_S6_S6_S6_S6_S6_S6_S6_S6_S6_S6_S6_S6_S6_S6_S6_S6_S6_S6_S6_S6_S6_S6_S6_S6_S6_S6_S6_S6_S6_S6_S6_S6_S6_EESaIS7_EENS_16ReferenceCounterENS_13ReleasePolicyIS9_EEEERKNS2_INS0_12RowFormatterESA_NSB_ISG_EEEE
libPocoData.so.94:_ZN4Poco4Data3Row9resetSortEv
libPocoData.so.94:_ZN4Poco4Data3RowC1ENS_9SharedPtrISt6vectorINSt7__cxx1112basic_stringIcSt11char_traitsIcESaIcEEESaIS9_EENS_16ReferenceCounterENS_13ReleasePolicyISB_EEEERKNS2_INS0_12RowFormatterESC_NSD_ISG_EEEE
libPocoData.so.94:_ZN4Poco4Data3RowC1ENS_9SharedPtrISt6vectorINSt7__cxx1112basic_stringIcSt11char_traitsIcESaIcEEESaIS9_EENS_16ReferenceCounterENS_13ReleasePolicyISB_EEEERKNS2_IS3_INS_5TupleImNS1_14ComparisonTypeENS_12NullTypeListESI_SI_SI_SI_SI_SI_SI_SI_SI_SI_SI_SI_SI_SI_SI_SI_SI_SI_SI_SI_SI_SI_SI_SI_SI_SI_SI_SI_SI_SI_SI_SI_SI_SI_SI_SI_SI_EESaISJ_EESC_NSD_ISL_EEEERKNS2_INS0_12RowFormatterESC_NSD_ISQ_EEEE
libPocoData.so.94:_ZN4Poco4Data3RowC1Ev
libPocoData.so.94:_ZN4Poco4Data3RowC2ENS_9SharedPtrISt6vectorINSt7__cxx1112basic_stringIcSt11char_traitsIcESaIcEEESaIS9_EENS_16ReferenceCounterENS_13ReleasePolicyISB_EEEERKNS2_INS0_12RowFormatterESC_NSD_ISG_EEEE
libPocoData.so.94:_ZN4Poco4Data3RowC2ENS_9SharedPtrISt6vectorINSt7__cxx1112basic_stringIcSt11char_traitsIcESaIcEEESaIS9_EENS_16ReferenceCounterENS_13ReleasePolicyISB_EEEERKNS2_IS3_INS_5TupleImNS1_14ComparisonTypeENS_12NullTypeListESI_SI_SI_SI_SI_SI_SI_SI_SI_SI_SI_SI_SI_SI_SI_SI_SI_SI_SI_SI_SI_SI_SI_SI_SI_SI_SI_SI_SI_SI_SI_SI_SI_SI_SI_SI_SI_EESaISJ_EESC_NSD_ISL_EEEERKNS2_INS0_12RowFormatterESC_NSD_ISQ_EEEE
libPocoData.so.94:_ZN4Poco4Data3RowC2Ev
libPocoData.so.94:_ZN4Poco4Data3RowD1Ev
libPocoData.so.94:_ZN4Poco4Data3RowD2Ev
libPocoData.so.94:_ZN4Poco4Data4BulkC1ERKNS0_5LimitE
libPocoData.so.94:_ZN4Poco4Data4BulkC1Ej
libPocoData.so.94:_ZN4Poco4Data4BulkC2ERKNS0_5LimitE
libPocoData.so.94:_ZN4Poco4Data4BulkC2Ej
libPocoData.so.94:_ZN4Poco4Data4BulkD1Ev
libPocoData.so.94:_ZN4Poco4Data4BulkD2Ev
libPocoData.so.94:_ZN4Poco4Data4Date6assignEiii
libPocoData.so.94:_ZN4Poco4Data4DateC1ERKNS_8DateTimeE
libPocoData.so.94:_ZN4Poco4Data4DateC1Eiii
libPocoData.so.94:_ZN4Poco4Data4DateC1Ev
libPocoData.so.94:_ZN4Poco4Data4DateC2ERKNS_8DateTimeE
libPocoData.so.94:_ZN4Poco4Data4DateC2Eiii
libPocoData.so.94:_ZN4Poco4Data4DateC2Ev
libPocoData.so.94:_ZN4Poco4Data4DateD1Ev
libPocoData.so.94:_ZN4Poco4Data4DateD2Ev
libPocoData.so.94:_ZN4Poco4Data4DateaSERKNS_7Dynamic3VarE
libPocoData.so.94:_ZN4Poco4Data4Time6assignEiii
libPocoData.so.94:_ZN4Poco4Data4TimeC1ERKNS_8DateTimeE
libPocoData.so.94:_ZN4Poco4Data4TimeC1Eiii
libPocoData.so.94:_ZN4Poco4Data4TimeC1Ev
libPocoData.so.94:_ZN4Poco4Data4TimeC2ERKNS_8DateTimeE
libPocoData.so.94:_ZN4Poco4Data4TimeC2Eiii
libPocoData.so.94:_ZN4Poco4Data4TimeC2Ev
libPocoData.so.94:_ZN4Poco4Data4TimeD1Ev
libPocoData.so.94:_ZN4Poco4Data4TimeD2Ev
libPocoData.so.94:_ZN4Poco4Data4TimeaSERKNS_7Dynamic3VarE
libPocoData.so.94:_ZN4Poco4Data5LimitC1Ejbb
libPocoData.so.94:_ZN4Poco4Data5LimitC2Ejbb
libPocoData.so.94:_ZN4Poco4Data5LimitD1Ev
libPocoData.so.94:_ZN4Poco4Data5LimitD2Ev
libPocoData.so.94:_ZN4Poco4Data5RangeC1Ejjb
libPocoData.so.94:_ZN4Poco4Data5RangeC2Ejjb
libPocoData.so.94:_ZN4Poco4Data5RangeD1Ev
libPocoData.so.94:_ZN4Poco4Data5RangeD2Ev
libPocoData.so.94:_ZN4Poco4Data7Session4swapERS1_
libPocoData.so.94:_ZN4Poco4Data7SessionC1ENS_7AutoPtrINS0_11SessionImplEEE
libPocoData.so.94:_ZN4Poco4Data7SessionC1EOS1_
libPocoData.so.94:_ZN4Poco4Data7SessionC1ERKNSt7__cxx1112basic_stringIcSt11char_traitsIcESaIcEEES9_m
libPocoData.so.94:_ZN4Poco4Data7SessionC1ERKNSt7__cxx1112basic_stringIcSt11char_traitsIcESaIcEEEm
libPocoData.so.94:_ZN4Poco4Data7SessionC1ERKS1_
libPocoData.so.94:_ZN4Poco4Data7SessionC2ENS_7AutoPtrINS0_11SessionImplEEE
libPocoData.so.94:_ZN4Poco4Data7SessionC2EOS1_
libPocoData.so.94:_ZN4Poco4Data7SessionC2ERKNSt7__cxx1112basic_stringIcSt11char_traitsIcESaIcEEES9_m
libPocoData.so.94:_ZN4Poco4Data7SessionC2ERKNSt7__cxx1112basic_stringIcSt11char_traitsIcESaIcEEEm
libPocoData.so.94:_ZN4Poco4Data7SessionC2ERKS1_
libPocoData.so.94:_ZN4Poco4Data7SessionD1Ev
libPocoData.so.94:_ZN4Poco4Data7SessionD2Ev
libPocoData.so.94:_ZN4Poco4Data7SessionaSEOS1_
libPocoData.so.94:_ZN4Poco4Data7SessionaSERKS1_
libPocoData.so.94:_ZN4Poco4Data8PositionC1Ej
libPocoData.so.94:_ZN4Poco4Data8PositionC2Ej
libPocoData.so.94:_ZN4Poco4Data8PositionD1Ev
libPocoData.so.94:_ZN4Poco4Data8PositionD2Ev
libPocoData.so.94:_ZN4Poco4Data9ConnectorC1Ev
libPocoData.so.94:_ZN4Poco4Data9ConnectorC2Ev
libPocoData.so.94:_ZN4Poco4Data9ConnectorD0Ev
libPocoData.so.94:_ZN4Poco4Data9ConnectorD1Ev
libPocoData.so.94:_ZN4Poco4Data9ConnectorD2Ev
libPocoData.so.94:_ZN4Poco4Data9RecordSet12movePreviousEv
libPocoData.so.94:_ZN4Poco4Data9RecordSet15setRowFormatterENS_9SharedPtrINS0_12RowFormatterENS_16ReferenceCounterENS_13ReleasePolicyIS3_EEEE
libPocoData.so.94:_ZN4Poco4Data9RecordSet16setTotalRowCountERKNSt7__cxx1112basic_stringIcSt11char_traitsIcESaIcEEE
libPocoData.so.94:_ZN4Poco4Data9RecordSet23UNKNOWN_TOTAL_ROW_COUNTE
libPocoData.so.94:_ZN4Poco4Data9RecordSet3rowEm
libPocoData.so.94:_ZN4Poco4Data9RecordSet5resetERKNS0_9StatementE
libPocoData.so.94:_ZN4Poco4Data9RecordSet6filterERKNS_7AutoPtrINS0_9RowFilterEEE
libPocoData.so.94:_ZN4Poco4Data9RecordSet8moveLastEv
libPocoData.so.94:_ZN4Poco4Data9RecordSet8moveNextEv
libPocoData.so.94:_ZN4Poco4Data9RecordSet9moveFirstEv
libPocoData.so.94:_ZN4Poco4Data9RecordSetC1EOS1_
libPocoData.so.94:_ZN4Poco4Data9RecordSetC1ERKNS0_9StatementENS_9SharedPtrINS0_12RowFormatterENS_16ReferenceCounterENS_13ReleasePolicyIS6_EEEE
libPocoData.so.94:_ZN4Poco4Data9RecordSetC1ERKS1_
libPocoData.so.94:_ZN4Poco4Data9RecordSetC1ERNS0_7SessionERKNSt7__cxx1112basic_stringIcSt11char_traitsIcESaIcEEENS_9SharedPtrINS0_12RowFormatterENS_16ReferenceCounterENS_13ReleasePolicyISD_EEEE
libPocoData.so.94:_ZN4Poco4Data9RecordSetC2EOS1_
libPocoData.so.94:_ZN4Poco4Data9RecordSetC2ERKNS0_9StatementENS_9SharedPtrINS0_12RowFormatterENS_16ReferenceCounterENS_13ReleasePolicyIS6_EEEE
libPocoData.so.94:_ZN4Poco4Data9RecordSetC2ERKS1_
libPocoData.so.94:_ZN4Poco4Data9RecordSetC2ERNS0_7SessionERKNSt7__cxx1112basic_stringIcSt11char_traitsIcESaIcEEENS_9SharedPtrINS0_12RowFormatterENS_16ReferenceCounterENS_13ReleasePolicyISD_EEEE
libPocoData.so.94:_ZN4Poco4Data9RecordSetD1Ev
libPocoData.so.94:_ZN4Poco4Data9RecordSetD2Ev
libPocoData.so.94:_ZN4Poco4Data9RecordSetaSEOS1_
libPocoData.so.94:_ZN4Poco4Data9RowFilter12removeFilterENS_7AutoPtrIS1_EE
libPocoData.so.94:_ZN4Poco4Data9RowFilter15rewindRecordSetEv
libPocoData.so.94:_ZN4Poco4Data9RowFilter4initEv
libPocoData.so.94:_ZN4Poco4Data9RowFilter6removeERKNSt7__cxx1112basic_stringIcSt11char_traitsIcESaIcEEE
libPocoData.so.94:_ZN4Poco4Data9RowFilter9addFilterENS_7AutoPtrIS1_EENS1_13LogicOperatorE
libPocoData.so.94:_ZN4Poco4Data9RowFilter9doCompareERNS_7Dynamic3VarES4_PFbRKS3_S6_ERKNS_5TupleIS3_NS1_10ComparisonENS1_13LogicOperatorENS_12NullTypeListESC_SC_SC_SC_SC_SC_SC_SC_SC_SC_SC_SC_SC_SC_SC_SC_SC_SC_SC_SC_SC_SC_SC_SC_SC_SC_SC_SC_SC_SC_SC_SC_SC_SC_SC_SC_EE
libPocoData.so.94:_ZN4Poco4Data9RowFilterC1ENS_7AutoPtrIS1_EENS1_13LogicOperatorE
libPocoData.so.94:_ZN4Poco4Data9RowFilterC1EPNS0_9RecordSetE
libPocoData.so.94:_ZN4Poco4Data9RowFilterC2ENS_7AutoPtrIS1_EENS1_13LogicOperatorE
libPocoData.so.94:_ZN4Poco4Data9RowFilterC2EPNS0_9RecordSetE
libPocoData.so.94:_ZN4Poco4Data9RowFilterD0Ev
libPocoData.so.94:_ZN4Poco4Data9RowFilterD1Ev
libPocoData.so.94:_ZN4Poco4Data9RowFilterD2Ev
libPocoData.so.94:_ZN4Poco4Data9Statement10addExtractENS_9SharedPtrINS0_18AbstractExtractionENS_16ReferenceCounterENS_13ReleasePolicyIS3_EEEE
libPocoData.so.94:_ZN4Poco4Data9Statement11doAsyncExecEb
libPocoData.so.94:_ZN4Poco4Data9Statement12executeAsyncEb
libPocoData.so.94:_ZN4Poco4Data9Statement4swapERS1_
libPocoData.so.94:_ZN4Poco4Data9Statement4waitEl
libPocoData.so.94:_ZN4Poco4Data9Statement5resetERNS0_7SessionE
libPocoData.so.94:_ZN4Poco4Data9Statement7addBindENS_9SharedPtrINS0_15AbstractBindingENS_16ReferenceCounterENS_13ReleasePolicyIS3_EEEE
libPocoData.so.94:_ZN4Poco4Data9Statement7executeEb
libPocoData.so.94:_ZN4Poco4Data9Statement7sessionEv
libPocoData.so.94:_ZN4Poco4Data9Statement8setAsyncEb
libPocoData.so.94:_ZN4Poco4Data9StatementC1ENS_9SharedPtrINS0_13StatementImplENS_16ReferenceCounterENS_13ReleasePolicyIS3_EEEE
libPocoData.so.94:_ZN4Poco4Data9StatementC1EOS1_
libPocoData.so.94:_ZN4Poco4Data9StatementC1ERKS1_
libPocoData.so.94:_ZN4Poco4Data9StatementC1ERNS0_7SessionE
libPocoData.so.94:_ZN4Poco4Data9StatementC2ENS_9SharedPtrINS0_13StatementImplENS_16ReferenceCounterENS_13ReleasePolicyIS3_EEEE
libPocoData.so.94:_ZN4Poco4Data9StatementC2EOS1_
libPocoData.so.94:_ZN4Poco4Data9StatementC2ERKS1_
libPocoData.so.94:_ZN4Poco4Data9StatementC2ERNS0_7SessionE
libPocoData.so.94:_ZN4Poco4Data9StatementD1Ev
libPocoData.so.94:_ZN4Poco4Data9StatementD2Ev
libPocoData.so.94:_ZN4Poco4Data9StatementaSEOS1_
libPocoData.so.94:_ZN4Poco4Data9StatementaSERKS1_
libPocoData.so.94:_ZN4Poco4Data9StatementcmEPFvNS_4VoidEE
libPocoData.so.94:_ZN4Poco4Data9StatementcmEPFvRS1_E
libPocoData.so.94:_ZN4Poco4Data9StatementcmERKNS0_4BulkE
libPocoData.so.94:_ZN4Poco4Data9StatementcmERKNS0_5LimitE
libPocoData.so.94:_ZN4Poco4Data9StatementcmERKNS0_5RangeE
libPocoData.so.94:_ZN4Poco4DatalsERSoRKNS0_3RowE
libPocoData.so.94:_ZNK4Poco4Data10SQLChannel11getPropertyERKNSt7__cxx1112basic_stringIcSt11char_traitsIcESaIcEEE
libPocoData.so.94:_ZNK4Poco4Data11RowIterator11setPositionEm
libPocoData.so.94:_ZNK4Poco4Data11RowIterator9decrementEv
libPocoData.so.94:_ZNK4Poco4Data11RowIterator9incrementEv
libPocoData.so.94:_ZNK4Poco4Data11RowIteratordeEv
libPocoData.so.94:_ZNK4Poco4Data11RowIteratormiEm
libPocoData.so.94:_ZNK4Poco4Data11RowIteratormmEi
libPocoData.so.94:_ZNK4Poco4Data11RowIteratormmEv
libPocoData.so.94:_ZNK4Poco4Data11RowIteratorplEm
libPocoData.so.94:_ZNK4Poco4Data11RowIteratorppEi
libPocoData.so.94:_ZNK4Poco4Data11RowIteratorppEv
libPocoData.so.94:_ZNK4Poco4Data11RowIteratorptEv
libPocoData.so.94:_ZNK4Poco4Data11SessionImpl6isGoodEv
libPocoData.so.94:_ZNK4Poco4Data11SessionPool11connTimeoutEv
libPocoData.so.94:_ZNK4Poco4Data11SessionPool4idleEv
libPocoData.so.94:_ZNK4Poco4Data11SessionPool4usedEv
libPocoData.so.94:_ZNK4Poco4Data11SessionPool8capacityEv
libPocoData.so.94:_ZNK4Poco4Data11SessionPool9allocatedEv
libPocoData.so.94:_ZNK4Poco4Data11SessionPool9availableEv
libPocoData.so.94:_ZNK4Poco4Data12RowFormatter12adjustPrefixEv
libPocoData.so.94:_ZNK4Poco4Data13DataException4nameEv
libPocoData.so.94:_ZNK4Poco4Data13DataException5cloneEv
libPocoData.so.94:_ZNK4Poco4Data13DataException7rethrowEv
libPocoData.so.94:_ZNK4Poco4Data13DataException9classNameEv
libPocoData.so.94:_ZNK4Poco4Data13StatementImpl10metaColumnERKNSt7__cxx1112basic_stringIcSt11char_traitsIcESaIcEEE
libPocoData.so.94:_ZNK4Poco4Data13StatementImpl13rowsExtractedEi
libPocoData.so.94:_ZNK4Poco4Data13StatementImpl16columnsExtractedEi
libPocoData.so.94:_ZNK4Poco4Data13StatementImpl16subTotalRowCountEi
libPocoData.so.94:_ZNK4Poco4Data14LimitException4nameEv
libPocoData.so.94:_ZNK4Poco4Data14LimitException5cloneEv
libPocoData.so.94:_ZNK4Poco4Data14LimitException7rethrowEv
libPocoData.so.94:_ZNK4Poco4Data14LimitException9classNameEv
libPocoData.so.94:_ZNK4Poco4Data15NoDataException4nameEv
libPocoData.so.94:_ZNK4Poco4Data15NoDataException5cloneEv
libPocoData.so.94:_ZNK4Poco4Data15NoDataException7rethrowEv
libPocoData.so.94:_ZNK4Poco4Data15NoDataException9classNameEv
libPocoData.so.94:_ZNK4Poco4Data16BindingException4nameEv
libPocoData.so.94:_ZNK4Poco4Data16BindingException5cloneEv
libPocoData.so.94:_ZNK4Poco4Data16BindingException7rethrowEv
libPocoData.so.94:_ZNK4Poco4Data16BindingException9classNameEv
libPocoData.so.94:_ZNK4Poco4Data16ExtractException4nameEv
libPocoData.so.94:_ZNK4Poco4Data16ExtractException5cloneEv
libPocoData.so.94:_ZNK4Poco4Data16ExtractException7rethrowEv
libPocoData.so.94:_ZNK4Poco4Data16ExtractException9classNameEv
libPocoData.so.94:_ZNK4Poco4Data16JSONRowFormatter12adjustPrefixEv
libPocoData.so.94:_ZNK4Poco4Data17PooledSessionImpl11canTransactEv
libPocoData.so.94:_ZNK4Poco4Data17PooledSessionImpl11isConnectedEv
libPocoData.so.94:_ZNK4Poco4Data17PooledSessionImpl13connectorNameB5cxx11Ev
libPocoData.so.94:_ZNK4Poco4Data17PooledSessionImpl13isTransactionEv
libPocoData.so.94:_ZNK4Poco4Data17PooledSessionImpl20getConnectionTimeoutEv
libPocoData.so.94:_ZNK4Poco4Data17PooledSessionImpl22isTransactionIsolationEj
libPocoData.so.94:_ZNK4Poco4Data17PooledSessionImpl23getTransactionIsolationEv
libPocoData.so.94:_ZNK4Poco4Data17PooledSessionImpl23hasTransactionIsolationEj
libPocoData.so.94:_ZNK4Poco4Data17PooledSessionImpl6accessEv
libPocoData.so.94:_ZNK4Poco4Data17PooledSessionImpl6isGoodEv
libPocoData.so.94:_ZNK4Poco4Data18ExecutionException4nameEv
libPocoData.so.94:_ZNK4Poco4Data18ExecutionException5cloneEv
libPocoData.so.94:_ZNK4Poco4Data18ExecutionException7rethrowEv
libPocoData.so.94:_ZNK4Poco4Data18ExecutionException9classNameEv
libPocoData.so.94:_ZNK4Poco4Data20SessionPoolContainer8isActiveERKNSt7__cxx1112basic_stringIcSt11char_traitsIcESaIcEEES9_
libPocoData.so.94:_ZNK4Poco4Data20UnknownTypeException4nameEv
libPocoData.so.94:_ZNK4Poco4Data20UnknownTypeException5cloneEv
libPocoData.so.94:_ZNK4Poco4Data20UnknownTypeException7rethrowEv
libPocoData.so.94:_ZNK4Poco4Data20UnknownTypeException9classNameEv
libPocoData.so.94:_ZNK4Poco4Data21NotConnectedException4nameEv
libPocoData.so.94:_ZNK4Poco4Data21NotConnectedException5cloneEv
libPocoData.so.94:_ZNK4Poco4Data21NotConnectedException7rethrowEv
libPocoData.so.94:_ZNK4Poco4Data21NotConnectedException9classNameEv
libPocoData.so.94:_ZNK4Poco4Data21NotSupportedException4nameEv
libPocoData.so.94:_ZNK4Poco4Data21NotSupportedException5cloneEv
libPocoData.so.94:_ZNK4Poco4Data21NotSupportedException7rethrowEv
libPocoData.so.94:_ZNK4Poco4Data21NotSupportedException9classNameEv
libPocoData.so.94:_ZNK4Poco4Data23LengthExceededException4nameEv
libPocoData.so.94:_ZNK4Poco4Data23LengthExceededException5cloneEv
libPocoData.so.94:_ZNK4Poco4Data23LengthExceededException7rethrowEv
libPocoData.so.94:_ZNK4Poco4Data23LengthExceededException9classNameEv
libPocoData.so.94:_ZNK4Poco4Data23RowDataMissingException4nameEv
libPocoData.so.94:_ZNK4Poco4Data23RowDataMissingException5cloneEv
libPocoData.so.94:_ZNK4Poco4Data23RowDataMissingException7rethrowEv
libPocoData.so.94:_ZNK4Poco4Data23RowDataMissingException9classNameEv
libPocoData.so.94:_ZNK4Poco4Data24UnknownDataBaseException4nameEv
libPocoData.so.94:_ZNK4Poco4Data24UnknownDataBaseException5cloneEv
libPocoData.so.94:_ZNK4Poco4Data24UnknownDataBaseException7rethrowEv
libPocoData.so.94:_ZNK4Poco4Data24UnknownDataBaseException9classNameEv
libPocoData.so.94:_ZNK4Poco4Data25ConnectionFailedException4nameEv
libPocoData.so.94:_ZNK4Poco4Data25ConnectionFailedException5cloneEv
libPocoData.so.94:_ZNK4Poco4Data25ConnectionFailedException7rethrowEv
libPocoData.so.94:_ZNK4Poco4Data25ConnectionFailedException9classNameEv
libPocoData.so.94:_ZNK4Poco4Data26SessionPoolExistsException4nameEv
libPocoData.so.94:_ZNK4Poco4Data26SessionPoolExistsException5cloneEv
libPocoData.so.94:_ZNK4Poco4Data26SessionPoolExistsException7rethrowEv
libPocoData.so.94:_ZNK4Poco4Data26SessionPoolExistsException9classNameEv
libPocoData.so.94:_ZNK4Poco4Data27SessionUnavailableException4nameEv
libPocoData.so.94:_ZNK4Poco4Data27SessionUnavailableException5cloneEv
libPocoData.so.94:_ZNK4Poco4Data27SessionUnavailableException7rethrowEv
libPocoData.so.94:_ZNK4Poco4Data27SessionUnavailableException9classNameEv
libPocoData.so.94:_ZNK4Poco4Data29SessionPoolExhaustedException4nameEv
libPocoData.so.94:_ZNK4Poco4Data29SessionPoolExhaustedException5cloneEv
libPocoData.so.94:_ZNK4Poco4Data29SessionPoolExhaustedException7rethrowEv
libPocoData.so.94:_ZNK4Poco4Data29SessionPoolExhaustedException9classNameEv
libPocoData.so.94:_ZNK4Poco4Data3Row11formatNamesEv
libPocoData.so.94:_ZNK4Poco4Data3Row11isEqualSizeERKS1_
libPocoData.so.94:_ZNK4Poco4Data3Row11isEqualTypeERKS1_
libPocoData.so.94:_ZNK4Poco4Data3Row13namesToStringB5cxx11Ev
libPocoData.so.94:_ZNK4Poco4Data3RoweqERKS1_
libPocoData.so.94:_ZNK4Poco4Data3RowltERKS1_
libPocoData.so.94:_ZNK4Poco4Data3RowneERKS1_
libPocoData.so.94:_ZNK4Poco4Data4DateltERKS1_
libPocoData.so.94:_ZNK4Poco4Data4TimeltERKS1_
libPocoData.so.94:_ZNK4Poco4Data9RecordSet10copyValuesERSomm
libPocoData.so.94:_ZNK4Poco4Data9RecordSet10isFilteredEv
libPocoData.so.94:_ZNK4Poco4Data9RecordSet12formatValuesEmm
libPocoData.so.94:_ZNK4Poco4Data9RecordSet4copyERSomm
libPocoData.so.94:_ZNK4Poco4Data9RecordSet5valueERKNSt7__cxx1112basic_stringIcSt11char_traitsIcESaIcEEEmb
libPocoData.so.94:_ZNK4Poco4Data9RecordSet5valueEmmb
libPocoData.so.94:_ZNK4Poco4Data9RecordSet8rowCountEv
libPocoData.so.94:_ZNK4Poco4Data9RecordSet9copyNamesERSo
libPocoData.so.94:_ZNK4Poco4Data9RecordSet9isAllowedEm
libPocoData.so.94:_ZNK4Poco4Data9RowFilter13getComparisonERKNSt7__cxx1112basic_stringIcSt11char_traitsIcESaIcEEE
libPocoData.so.94:_ZNK4Poco4Data9RowFilter9isAllowedEm
libPocoData.so.94:_ZNK4Poco4Data9RowFilter9recordSetEv
libPocoData.so.94:_ZNK4Poco4Data9Statement10getStorageB5cxx11Ev
libPocoData.so.94:_ZNK4Poco7Dynamic3VarcvT_INS_4Data3LOBIcEEEEv
libPocoData.so.94:_ZNK4Poco7Dynamic3VarcvT_INS_4Data3LOBIhEEEEv
libPocoData.so.94:_ZNK4Poco7Dynamic3VarcvT_INS_4Data4DateEEEv
libPocoData.so.94:_ZNK4Poco7Dynamic3VarcvT_INS_4Data4TimeEEEv
libPocoData.so.94:_ZThn8_N4Poco4Data10SQLChannelD0Ev
libPocoData.so.94:_ZThn8_N4Poco4Data10SQLChannelD1Ev
libPocoDataSQLite.so.94:_ZN4Poco4Data6SQLite11SessionImpl10autoCommitERKNSt7__cxx1112basic_stringIcSt11char_traitsIcESaIcEEEb
libPocoDataSQLite.so.94:_ZN4Poco4Data6SQLite11SessionImpl17ABORT_TRANSACTIONB5cxx11E
libPocoDataSQLite.so.94:_ZN4Poco4Data6SQLite11SessionImpl18COMMIT_TRANSACTIONB5cxx11E
libPocoDataSQLite.so.94:_ZN4Poco4Data6SQLite11SessionImpl18setTransactionTypeENS1_7Utility15TransactionTypeE
libPocoDataSQLite.so.94:_ZN4Poco4Data6SQLite11SessionImpl18setTransactionTypeERKNSt7__cxx1112basic_stringIcSt11char_traitsIcESaIcEEERKNS_3AnyE
libPocoDataSQLite.so.94:_ZN4Poco4Data6SQLite11SessionImpl19createStatementImplEv
libPocoDataSQLite.so.94:_ZN4Poco4Data6SQLite11SessionImpl20setConnectionTimeoutERKNSt7__cxx1112basic_stringIcSt11char_traitsIcESaIcEEERKNS_3AnyE
libPocoDataSQLite.so.94:_ZN4Poco4Data6SQLite11SessionImpl20setConnectionTimeoutEm
libPocoDataSQLite.so.94:_ZN4Poco4Data6SQLite11SessionImpl23setTransactionIsolationEj
libPocoDataSQLite.so.94:_ZN4Poco4Data6SQLite11SessionImpl26DEFERRED_BEGIN_TRANSACTIONB5cxx11E
libPocoDataSQLite.so.94:_ZN4Poco4Data6SQLite11SessionImpl27EXCLUSIVE_BEGIN_TRANSACTIONB5cxx11E
libPocoDataSQLite.so.94:_ZN4Poco4Data6SQLite11SessionImpl27IMMEDIATE_BEGIN_TRANSACTIONB5cxx11E
libPocoDataSQLite.so.94:_ZN4Poco4Data6SQLite11SessionImpl4openERKNSt7__cxx1112basic_stringIcSt11char_traitsIcESaIcEEE
libPocoDataSQLite.so.94:_ZN4Poco4Data6SQLite11SessionImpl5beginEv
libPocoDataSQLite.so.94:_ZN4Poco4Data6SQLite11SessionImpl5closeEv
libPocoDataSQLite.so.94:_ZN4Poco4Data6SQLite11SessionImpl5resetEv
libPocoDataSQLite.so.94:_ZN4Poco4Data6SQLite11SessionImpl6commitEv
libPocoDataSQLite.so.94:_ZN4Poco4Data6SQLite11SessionImpl8rollbackEv
libPocoDataSQLite.so.94:_ZN4Poco4Data6SQLite11SessionImplC1ERKNSt7__cxx1112basic_stringIcSt11char_traitsIcESaIcEEEm
libPocoDataSQLite.so.94:_ZN4Poco4Data6SQLite11SessionImplC2ERKNSt7__cxx1112basic_stringIcSt11char_traitsIcESaIcEEEm
libPocoDataSQLite.so.94:_ZN4Poco4Data6SQLite11SessionImplD0Ev
libPocoDataSQLite.so.94:_ZN4Poco4Data6SQLite11SessionImplD1Ev
libPocoDataSQLite.so.94:_ZN4Poco4Data6SQLite11SessionImplD2Ev
libPocoDataSQLite.so.94:_ZN4Poco4Data6SQLite15SQLiteExceptionC1ERKNSt7__cxx1112basic_stringIcSt11char_traitsIcESaIcEEERKNS_9ExceptionEi
libPocoDataSQLite.so.94:_ZN4Poco4Data6SQLite15SQLiteExceptionC1ERKNSt7__cxx1112basic_stringIcSt11char_traitsIcESaIcEEESA_i
libPocoDataSQLite.so.94:_ZN4Poco4Data6SQLite15SQLiteExceptionC1ERKNSt7__cxx1112basic_stringIcSt11char_traitsIcESaIcEEEi
libPocoDataSQLite.so.94:_ZN4Poco4Data6SQLite15SQLiteExceptionC1ERKS2_
libPocoDataSQLite.so.94:_ZN4Poco4Data6SQLite15SQLiteExceptionC1Ei
libPocoDataSQLite.so.94:_ZN4Poco4Data6SQLite15SQLiteExceptionC2ERKNSt7__cxx1112basic_stringIcSt11char_traitsIcESaIcEEERKNS_9ExceptionEi
libPocoDataSQLite.so.94:_ZN4Poco4Data6SQLite15SQLiteExceptionC2ERKNSt7__cxx1112basic_stringIcSt11char_traitsIcESaIcEEESA_i
libPocoDataSQLite.so.94:_ZN4Poco4Data6SQLite15SQLiteExceptionC2ERKNSt7__cxx1112basic_stringIcSt11char_traitsIcESaIcEEEi
libPocoDataSQLite.so.94:_ZN4Poco4Data6SQLite15SQLiteExceptionC2ERKS2_
libPocoDataSQLite.so.94:_ZN4Poco4Data6SQLite15SQLiteExceptionC2Ei
libPocoDataSQLite.so.94:_ZN4Poco4Data6SQLite15SQLiteExceptionD0Ev
libPocoDataSQLite.so.94:_ZN4Poco4Data6SQLite15SQLiteExceptionD1Ev
libPocoDataSQLite.so.94:_ZN4Poco4Data6SQLite15SQLiteExceptionD2Ev
libPocoDataSQLite.so.94:_ZN4Poco4Data6SQLite15SQLiteExceptionaSERKS2_
libPocoDataSQLite.so.94:_ZN4Poco4Data6SQLite16IOErrorExceptionC1ERKNSt7__cxx1112basic_stringIcSt11char_traitsIcESaIcEEERKNS_9ExceptionEi
libPocoDataSQLite.so.94:_ZN4Poco4Data6SQLite16IOErrorExceptionC1ERKNSt7__cxx1112basic_stringIcSt11char_traitsIcESaIcEEESA_i
libPocoDataSQLite.so.94:_ZN4Poco4Data6SQLite16IOErrorExceptionC1ERKNSt7__cxx1112basic_stringIcSt11char_traitsIcESaIcEEEi
libPocoDataSQLite.so.94:_ZN4Poco4Data6SQLite16IOErrorExceptionC1ERKS2_
libPocoDataSQLite.so.94:_ZN4Poco4Data6SQLite16IOErrorExceptionC1Ei
libPocoDataSQLite.so.94:_ZN4Poco4Data6SQLite16IOErrorExceptionC2ERKNSt7__cxx1112basic_stringIcSt11char_traitsIcESaIcEEERKNS_9ExceptionEi
libPocoDataSQLite.so.94:_ZN4Poco4Data6SQLite16IOErrorExceptionC2ERKNSt7__cxx1112basic_stringIcSt11char_traitsIcESaIcEEESA_i
libPocoDataSQLite.so.94:_ZN4Poco4Data6SQLite16IOErrorExceptionC2ERKNSt7__cxx1112basic_stringIcSt11char_traitsIcESaIcEEEi
libPocoDataSQLite.so.94:_ZN4Poco4Data6SQLite16IOErrorExceptionC2ERKS2_
libPocoDataSQLite.so.94:_ZN4Poco4Data6SQLite16IOErrorExceptionC2Ei
libPocoDataSQLite.so.94:_ZN4Poco4Data6SQLite16IOErrorExceptionD0Ev
libPocoDataSQLite.so.94:_ZN4Poco4Data6SQLite16IOErrorExceptionD1Ev
libPocoDataSQLite.so.94:_ZN4Poco4Data6SQLite16IOErrorExceptionD2Ev
libPocoDataSQLite.so.94:_ZN4Poco4Data6SQLite16IOErrorExceptionaSERKS2_
libPocoDataSQLite.so.94:_ZN4Poco4Data6SQLite17DBLockedExceptionC1ERKNSt7__cxx1112basic_stringIcSt11char_traitsIcESaIcEEERKNS_9ExceptionEi
libPocoDataSQLite.so.94:_ZN4Poco4Data6SQLite17DBLockedExceptionC1ERKNSt7__cxx1112basic_stringIcSt11char_traitsIcESaIcEEESA_i
libPocoDataSQLite.so.94:_ZN4Poco4Data6SQLite17DBLockedExceptionC1ERKNSt7__cxx1112basic_stringIcSt11char_traitsIcESaIcEEEi
libPocoDataSQLite.so.94:_ZN4Poco4Data6SQLite17DBLockedExceptionC1ERKS2_
libPocoDataSQLite.so.94:_ZN4Poco4Data6SQLite17DBLockedExceptionC1Ei
libPocoDataSQLite.so.94:_ZN4Poco4Data6SQLite17DBLockedExceptionC2ERKNSt7__cxx1112basic_stringIcSt11char_traitsIcESaIcEEERKNS_9ExceptionEi
libPocoDataSQLite.so.94:_ZN4Poco4Data6SQLite17DBLockedExceptionC2ERKNSt7__cxx1112basic_stringIcSt11char_traitsIcESaIcEEESA_i
libPocoDataSQLite.so.94:_ZN4Poco4Data6SQLite17DBLockedExceptionC2ERKNSt7__cxx1112basic_stringIcSt11char_traitsIcESaIcEEEi
libPocoDataSQLite.so.94:_ZN4Poco4Data6SQLite17DBLockedExceptionC2ERKS2_
libPocoDataSQLite.so.94:_ZN4Poco4Data6SQLite17DBLockedExceptionC2Ei
libPocoDataSQLite.so.94:_ZN4Poco4Data6SQLite17DBLockedExceptionD0Ev
libPocoDataSQLite.so.94:_ZN4Poco4Data6SQLite17DBLockedExceptionD1Ev
libPocoDataSQLite.so.94:_ZN4Poco4Data6SQLite17DBLockedExceptionD2Ev
libPocoDataSQLite.so.94:_ZN4Poco4Data6SQLite17DBLockedExceptionaSERKS2_
libPocoDataSQLite.so.94:_ZN4Poco4Data6SQLite17NoMemoryExceptionC1ERKNSt7__cxx1112basic_stringIcSt11char_traitsIcESaIcEEERKNS_9ExceptionEi
libPocoDataSQLite.so.94:_ZN4Poco4Data6SQLite17NoMemoryExceptionC1ERKNSt7__cxx1112basic_stringIcSt11char_traitsIcESaIcEEESA_i
libPocoDataSQLite.so.94:_ZN4Poco4Data6SQLite17NoMemoryExceptionC1ERKNSt7__cxx1112basic_stringIcSt11char_traitsIcESaIcEEEi
libPocoDataSQLite.so.94:_ZN4Poco4Data6SQLite17NoMemoryExceptionC1ERKS2_
libPocoDataSQLite.so.94:_ZN4Poco4Data6SQLite17NoMemoryExceptionC1Ei
libPocoDataSQLite.so.94:_ZN4Poco4Data6SQLite17NoMemoryExceptionC2ERKNSt7__cxx1112basic_stringIcSt11char_traitsIcESaIcEEERKNS_9ExceptionEi
libPocoDataSQLite.so.94:_ZN4Poco4Data6SQLite17NoMemoryExceptionC2ERKNSt7__cxx1112basic_stringIcSt11char_traitsIcESaIcEEESA_i
libPocoDataSQLite.so.94:_ZN4Poco4Data6SQLite17NoMemoryExceptionC2ERKNSt7__cxx1112basic_stringIcSt11char_traitsIcESaIcEEEi
libPocoDataSQLite.so.94:_ZN4Poco4Data6SQLite17NoMemoryExceptionC2ERKS2_
libPocoDataSQLite.so.94:_ZN4Poco4Data6SQLite17NoMemoryExceptionC2Ei
libPocoDataSQLite.so.94:_ZN4Poco4Data6SQLite17NoMemoryExceptionD0Ev
libPocoDataSQLite.so.94:_ZN4Poco4Data6SQLite17NoMemoryExceptionD1Ev
libPocoDataSQLite.so.94:_ZN4Poco4Data6SQLite17NoMemoryExceptionD2Ev
libPocoDataSQLite.so.94:_ZN4Poco4Data6SQLite17NoMemoryExceptionaSERKS2_
libPocoDataSQLite.so.94:_ZN4Poco4Data6SQLite17ReadOnlyExceptionC1ERKNSt7__cxx1112basic_stringIcSt11char_traitsIcESaIcEEERKNS_9ExceptionEi
libPocoDataSQLite.so.94:_ZN4Poco4Data6SQLite17ReadOnlyExceptionC1ERKNSt7__cxx1112basic_stringIcSt11char_traitsIcESaIcEEESA_i
libPocoDataSQLite.so.94:_ZN4Poco4Data6SQLite17ReadOnlyExceptionC1ERKNSt7__cxx1112basic_stringIcSt11char_traitsIcESaIcEEEi
libPocoDataSQLite.so.94:_ZN4Poco4Data6SQLite17ReadOnlyExceptionC1ERKS2_
libPocoDataSQLite.so.94:_ZN4Poco4Data6SQLite17ReadOnlyExceptionC1Ei
libPocoDataSQLite.so.94:_ZN4Poco4Data6SQLite17ReadOnlyExceptionC2ERKNSt7__cxx1112basic_stringIcSt11char_traitsIcESaIcEEERKNS_9ExceptionEi
libPocoDataSQLite.so.94:_ZN4Poco4Data6SQLite17ReadOnlyExceptionC2ERKNSt7__cxx1112basic_stringIcSt11char_traitsIcESaIcEEESA_i
libPocoDataSQLite.so.94:_ZN4Poco4Data6SQLite17ReadOnlyExceptionC2ERKNSt7__cxx1112basic_stringIcSt11char_traitsIcESaIcEEEi
libPocoDataSQLite.so.94:_ZN4Poco4Data6SQLite17ReadOnlyExceptionC2ERKS2_
libPocoDataSQLite.so.94:_ZN4Poco4Data6SQLite17ReadOnlyExceptionC2Ei
libPocoDataSQLite.so.94:_ZN4Poco4Data6SQLite17ReadOnlyExceptionD0Ev
libPocoDataSQLite.so.94:_ZN4Poco4Data6SQLite17ReadOnlyExceptionD1Ev
libPocoDataSQLite.so.94:_ZN4Poco4Data6SQLite17ReadOnlyExceptionD2Ev
libPocoDataSQLite.so.94:_ZN4Poco4Data6SQLite17ReadOnlyExceptionaSERKS2_
libPocoDataSQLite.so.94:_ZN4Poco4Data6SQLite18InterruptExceptionC1ERKNSt7__cxx1112basic_stringIcSt11char_traitsIcESaIcEEERKNS_9ExceptionEi
libPocoDataSQLite.so.94:_ZN4Poco4Data6SQLite18InterruptExceptionC1ERKNSt7__cxx1112basic_stringIcSt11char_traitsIcESaIcEEESA_i
libPocoDataSQLite.so.94:_ZN4Poco4Data6SQLite18InterruptExceptionC1ERKNSt7__cxx1112basic_stringIcSt11char_traitsIcESaIcEEEi
libPocoDataSQLite.so.94:_ZN4Poco4Data6SQLite18InterruptExceptionC1ERKS2_
libPocoDataSQLite.so.94:_ZN4Poco4Data6SQLite18InterruptExceptionC1Ei
libPocoDataSQLite.so.94:_ZN4Poco4Data6SQLite18InterruptExceptionC2ERKNSt7__cxx1112basic_stringIcSt11char_traitsIcESaIcEEERKNS_9ExceptionEi
libPocoDataSQLite.so.94:_ZN4Poco4Data6SQLite18InterruptExceptionC2ERKNSt7__cxx1112basic_stringIcSt11char_traitsIcESaIcEEESA_i
libPocoDataSQLite.so.94:_ZN4Poco4Data6SQLite18InterruptExceptionC2ERKNSt7__cxx1112basic_stringIcSt11char_traitsIcESaIcEEEi
libPocoDataSQLite.so.94:_ZN4Poco4Data6SQLite18InterruptExceptionC2ERKS2_
libPocoDataSQLite.so.94:_ZN4Poco4Data6SQLite18InterruptExceptionC2Ei
libPocoDataSQLite.so.94:_ZN4Poco4Data6SQLite18InterruptExceptionD0Ev
libPocoDataSQLite.so.94:_ZN4Poco4Data6SQLite18InterruptExceptionD1Ev
libPocoDataSQLite.so.94:_ZN4Poco4Data6SQLite18InterruptExceptionD2Ev
libPocoDataSQLite.so.94:_ZN4Poco4Data6SQLite18InterruptExceptionaSERKS2_
libPocoDataSQLite.so.94:_ZN4Poco4Data6SQLite18RowTooBigExceptionC1ERKNSt7__cxx1112basic_stringIcSt11char_traitsIcESaIcEEERKNS_9ExceptionEi
libPocoDataSQLite.so.94:_ZN4Poco4Data6SQLite18RowTooBigExceptionC1ERKNSt7__cxx1112basic_stringIcSt11char_traitsIcESaIcEEESA_i
libPocoDataSQLite.so.94:_ZN4Poco4Data6SQLite18RowTooBigExceptionC1ERKNSt7__cxx1112basic_stringIcSt11char_traitsIcESaIcEEEi
libPocoDataSQLite.so.94:_ZN4Poco4Data6SQLite18RowTooBigExceptionC1ERKS2_
libPocoDataSQLite.so.94:_ZN4Poco4Data6SQLite18RowTooBigExceptionC1Ei
libPocoDataSQLite.so.94:_ZN4Poco4Data6SQLite18RowTooBigExceptionC2ERKNSt7__cxx1112basic_stringIcSt11char_traitsIcESaIcEEERKNS_9ExceptionEi
libPocoDataSQLite.so.94:_ZN4Poco4Data6SQLite18RowTooBigExceptionC2ERKNSt7__cxx1112basic_stringIcSt11char_traitsIcESaIcEEESA_i
libPocoDataSQLite.so.94:_ZN4Poco4Data6SQLite18RowTooBigExceptionC2ERKNSt7__cxx1112basic_stringIcSt11char_traitsIcESaIcEEEi
libPocoDataSQLite.so.94:_ZN4Poco4Data6SQLite18RowTooBigExceptionC2ERKS2_
libPocoDataSQLite.so.94:_ZN4Poco4Data6SQLite18RowTooBigExceptionC2Ei
libPocoDataSQLite.so.94:_ZN4Poco4Data6SQLite18RowTooBigExceptionD0Ev
libPocoDataSQLite.so.94:_ZN4Poco4Data6SQLite18RowTooBigExceptionD1Ev
libPocoDataSQLite.so.94:_ZN4Poco4Data6SQLite18RowTooBigExceptionD2Ev
libPocoDataSQLite.so.94:_ZN4Poco4Data6SQLite18RowTooBigExceptionaSERKS2_
libPocoDataSQLite.so.94:_ZN4Poco4Data6SQLite19SQLiteStatementImpl11compileImplEv
libPocoDataSQLite.so.94:_ZN4Poco4Data6SQLite19SQLiteStatementImpl23POCO_SQLITE_INV_ROW_CNTE
libPocoDataSQLite.so.94:_ZN4Poco4Data6SQLite19SQLiteStatementImpl4nextEv
libPocoDataSQLite.so.94:_ZN4Poco4Data6SQLite19SQLiteStatementImpl5clearEv
libPocoDataSQLite.so.94:_ZN4Poco4Data6SQLite19SQLiteStatementImpl7hasNextEv
libPocoDataSQLite.so.94:_ZN4Poco4Data6SQLite19SQLiteStatementImpl8bindImplEv
libPocoDataSQLite.so.94:_ZN4Poco4Data6SQLite19SQLiteStatementImplC1ERNS0_11SessionImplEP7sqlite3
libPocoDataSQLite.so.94:_ZN4Poco4Data6SQLite19SQLiteStatementImplC2ERNS0_11SessionImplEP7sqlite3
libPocoDataSQLite.so.94:_ZN4Poco4Data6SQLite19SQLiteStatementImplD0Ev
libPocoDataSQLite.so.94:_ZN4Poco4Data6SQLite19SQLiteStatementImplD1Ev
libPocoDataSQLite.so.94:_ZN4Poco4Data6SQLite19SQLiteStatementImplD2Ev
libPocoDataSQLite.so.94:_ZN4Poco4Data6SQLite20TableLockedExceptionC1ERKNSt7__cxx1112basic_stringIcSt11char_traitsIcESaIcEEERKNS_9ExceptionEi
libPocoDataSQLite.so.94:_ZN4Poco4Data6SQLite20TableLockedExceptionC1ERKNSt7__cxx1112basic_stringIcSt11char_traitsIcESaIcEEESA_i
libPocoDataSQLite.so.94:_ZN4Poco4Data6SQLite20TableLockedExceptionC1ERKNSt7__cxx1112basic_stringIcSt11char_traitsIcESaIcEEEi
libPocoDataSQLite.so.94:_ZN4Poco4Data6SQLite20TableLockedExceptionC1ERKS2_
libPocoDataSQLite.so.94:_ZN4Poco4Data6SQLite20TableLockedExceptionC1Ei
libPocoDataSQLite.so.94:_ZN4Poco4Data6SQLite20TableLockedExceptionC2ERKNSt7__cxx1112basic_stringIcSt11char_traitsIcESaIcEEERKNS_9ExceptionEi
libPocoDataSQLite.so.94:_ZN4Poco4Data6SQLite20TableLockedExceptionC2ERKNSt7__cxx1112basic_stringIcSt11char_traitsIcESaIcEEESA_i
libPocoDataSQLite.so.94:_ZN4Poco4Data6SQLite20TableLockedExceptionC2ERKNSt7__cxx1112basic_stringIcSt11char_traitsIcESaIcEEEi
libPocoDataSQLite.so.94:_ZN4Poco4Data6SQLite20TableLockedExceptionC2ERKS2_
libPocoDataSQLite.so.94:_ZN4Poco4Data6SQLite20TableLockedExceptionC2Ei
libPocoDataSQLite.so.94:_ZN4Poco4Data6SQLite20TableLockedExceptionD0Ev
libPocoDataSQLite.so.94:_ZN4Poco4Data6SQLite20TableLockedExceptionD1Ev
libPocoDataSQLite.so.94:_ZN4Poco4Data6SQLite20TableLockedExceptionD2Ev
libPocoDataSQLite.so.94:_ZN4Poco4Data6SQLite20TableLockedExceptionaSERKS2_
libPocoDataSQLite.so.94:_ZN4Poco4Data6SQLite20TransactionExceptionC1ERKNSt7__cxx1112basic_stringIcSt11char_traitsIcESaIcEEERKNS_9ExceptionEi
libPocoDataSQLite.so.94:_ZN4Poco4Data6SQLite20TransactionExceptionC1ERKNSt7__cxx1112basic_stringIcSt11char_traitsIcESaIcEEESA_i
libPocoDataSQLite.so.94:_ZN4Poco4Data6SQLite20TransactionExceptionC1ERKNSt7__cxx1112basic_stringIcSt11char_traitsIcESaIcEEEi
libPocoDataSQLite.so.94:_ZN4Poco4Data6SQLite20TransactionExceptionC1ERKS2_
libPocoDataSQLite.so.94:_ZN4Poco4Data6SQLite20TransactionExceptionC1Ei
libPocoDataSQLite.so.94:_ZN4Poco4Data6SQLite20TransactionExceptionC2ERKNSt7__cxx1112basic_stringIcSt11char_traitsIcESaIcEEERKNS_9ExceptionEi
libPocoDataSQLite.so.94:_ZN4Poco4Data6SQLite20TransactionExceptionC2ERKNSt7__cxx1112basic_stringIcSt11char_traitsIcESaIcEEESA_i
libPocoDataSQLite.so.94:_ZN4Poco4Data6SQLite20TransactionExceptionC2ERKNSt7__cxx1112basic_stringIcSt11char_traitsIcESaIcEEEi
libPocoDataSQLite.so.94:_ZN4Poco4Data6SQLite20TransactionExceptionC2ERKS2_
libPocoDataSQLite.so.94:_ZN4Poco4Data6SQLite20TransactionExceptionC2Ei
libPocoDataSQLite.so.94:_ZN4Poco4Data6SQLite20TransactionExceptionD0Ev
libPocoDataSQLite.so.94:_ZN4Poco4Data6SQLite20TransactionExceptionD1Ev
libPocoDataSQLite.so.94:_ZN4Poco4Data6SQLite20TransactionExceptionD2Ev
libPocoDataSQLite.so.94:_ZN4Poco4Data6SQLite20TransactionExceptionaSERKS2_
libPocoDataSQLite.so.94:_ZN4Poco4Data6SQLite21CorruptImageExceptionC1ERKNSt7__cxx1112basic_stringIcSt11char_traitsIcESaIcEEERKNS_9ExceptionEi
libPocoDataSQLite.so.94:_ZN4Poco4Data6SQLite21CorruptImageExceptionC1ERKNSt7__cxx1112basic_stringIcSt11char_traitsIcESaIcEEESA_i
libPocoDataSQLite.so.94:_ZN4Poco4Data6SQLite21CorruptImageExceptionC1ERKNSt7__cxx1112basic_stringIcSt11char_traitsIcESaIcEEEi
libPocoDataSQLite.so.94:_ZN4Poco4Data6SQLite21CorruptImageExceptionC1ERKS2_
libPocoDataSQLite.so.94:_ZN4Poco4Data6SQLite21CorruptImageExceptionC1Ei
libPocoDataSQLite.so.94:_ZN4Poco4Data6SQLite21CorruptImageExceptionC2ERKNSt7__cxx1112basic_stringIcSt11char_traitsIcESaIcEEERKNS_9ExceptionEi
libPocoDataSQLite.so.94:_ZN4Poco4Data6SQLite21CorruptImageExceptionC2ERKNSt7__cxx1112basic_stringIcSt11char_traitsIcESaIcEEESA_i
libPocoDataSQLite.so.94:_ZN4Poco4Data6SQLite21CorruptImageExceptionC2ERKNSt7__cxx1112basic_stringIcSt11char_traitsIcESaIcEEEi
libPocoDataSQLite.so.94:_ZN4Poco4Data6SQLite21CorruptImageExceptionC2ERKS2_
libPocoDataSQLite.so.94:_ZN4Poco4Data6SQLite21CorruptImageExceptionC2Ei
libPocoDataSQLite.so.94:_ZN4Poco4Data6SQLite21CorruptImageExceptionD0Ev
libPocoDataSQLite.so.94:_ZN4Poco4Data6SQLite21CorruptImageExceptionD1Ev
libPocoDataSQLite.so.94:_ZN4Poco4Data6SQLite21CorruptImageExceptionD2Ev
libPocoDataSQLite.so.94:_ZN4Poco4Data6SQLite21CorruptImageExceptionaSERKS2_
libPocoDataSQLite.so.94:_ZN4Poco4Data6SQLite21DatabaseFullExceptionC1ERKNSt7__cxx1112basic_stringIcSt11char_traitsIcESaIcEEERKNS_9ExceptionEi
libPocoDataSQLite.so.94:_ZN4Poco4Data6SQLite21DatabaseFullExceptionC1ERKNSt7__cxx1112basic_stringIcSt11char_traitsIcESaIcEEESA_i
libPocoDataSQLite.so.94:_ZN4Poco4Data6SQLite21DatabaseFullExceptionC1ERKNSt7__cxx1112basic_stringIcSt11char_traitsIcESaIcEEEi
libPocoDataSQLite.so.94:_ZN4Poco4Data6SQLite21DatabaseFullExceptionC1ERKS2_
libPocoDataSQLite.so.94:_ZN4Poco4Data6SQLite21DatabaseFullExceptionC1Ei
libPocoDataSQLite.so.94:_ZN4Poco4Data6SQLite21DatabaseFullExceptionC2ERKNSt7__cxx1112basic_stringIcSt11char_traitsIcESaIcEEERKNS_9ExceptionEi
libPocoDataSQLite.so.94:_ZN4Poco4Data6SQLite21DatabaseFullExceptionC2ERKNSt7__cxx1112basic_stringIcSt11char_traitsIcESaIcEEESA_i
libPocoDataSQLite.so.94:_ZN4Poco4Data6SQLite21DatabaseFullExceptionC2ERKNSt7__cxx1112basic_stringIcSt11char_traitsIcESaIcEEEi
libPocoDataSQLite.so.94:_ZN4Poco4Data6SQLite21DatabaseFullExceptionC2ERKS2_
libPocoDataSQLite.so.94:_ZN4Poco4Data6SQLite21DatabaseFullExceptionC2Ei
libPocoDataSQLite.so.94:_ZN4Poco4Data6SQLite21DatabaseFullExceptionD0Ev
libPocoDataSQLite.so.94:_ZN4Poco4Data6SQLite21DatabaseFullExceptionD1Ev
libPocoDataSQLite.so.94:_ZN4Poco4Data6SQLite21DatabaseFullExceptionD2Ev
libPocoDataSQLite.so.94:_ZN4Poco4Data6SQLite21DatabaseFullExceptionaSERKS2_
libPocoDataSQLite.so.94:_ZN4Poco4Data6SQLite21LockProtocolExceptionC1ERKNSt7__cxx1112basic_stringIcSt11char_traitsIcESaIcEEERKNS_9ExceptionEi
libPocoDataSQLite.so.94:_ZN4Poco4Data6SQLite21LockProtocolExceptionC1ERKNSt7__cxx1112basic_stringIcSt11char_traitsIcESaIcEEESA_i
libPocoDataSQLite.so.94:_ZN4Poco4Data6SQLite21LockProtocolExceptionC1ERKNSt7__cxx1112basic_stringIcSt11char_traitsIcESaIcEEEi
libPocoDataSQLite.so.94:_ZN4Poco4Data6SQLite21LockProtocolExceptionC1ERKS2_
libPocoDataSQLite.so.94:_ZN4Poco4Data6SQLite21LockProtocolExceptionC1Ei
libPocoDataSQLite.so.94:_ZN4Poco4Data6SQLite21LockProtocolExceptionC2ERKNSt7__cxx1112basic_stringIcSt11char_traitsIcESaIcEEERKNS_9ExceptionEi
libPocoDataSQLite.so.94:_ZN4Poco4Data6SQLite21LockProtocolExceptionC2ERKNSt7__cxx1112basic_stringIcSt11char_traitsIcESaIcEEESA_i
libPocoDataSQLite.so.94:_ZN4Poco4Data6SQLite21LockProtocolExceptionC2ERKNSt7__cxx1112basic_stringIcSt11char_traitsIcESaIcEEEi
libPocoDataSQLite.so.94:_ZN4Poco4Data6SQLite21LockProtocolExceptionC2ERKS2_
libPocoDataSQLite.so.94:_ZN4Poco4Data6SQLite21LockProtocolExceptionC2Ei
libPocoDataSQLite.so.94:_ZN4Poco4Data6SQLite21LockProtocolExceptionD0Ev
libPocoDataSQLite.so.94:_ZN4Poco4Data6SQLite21LockProtocolExceptionD1Ev
libPocoDataSQLite.so.94:_ZN4Poco4Data6SQLite21LockProtocolExceptionD2Ev
libPocoDataSQLite.so.94:_ZN4Poco4Data6SQLite21LockProtocolExceptionaSERKS2_
libPocoDataSQLite.so.94:_ZN4Poco4Data6SQLite22SchemaDiffersExceptionC1ERKNSt7__cxx1112basic_stringIcSt11char_traitsIcESaIcEEERKNS_9ExceptionEi
libPocoDataSQLite.so.94:_ZN4Poco4Data6SQLite22SchemaDiffersExceptionC1ERKNSt7__cxx1112basic_stringIcSt11char_traitsIcESaIcEEESA_i
libPocoDataSQLite.so.94:_ZN4Poco4Data6SQLite22SchemaDiffersExceptionC1ERKNSt7__cxx1112basic_stringIcSt11char_traitsIcESaIcEEEi
libPocoDataSQLite.so.94:_ZN4Poco4Data6SQLite22SchemaDiffersExceptionC1ERKS2_
libPocoDataSQLite.so.94:_ZN4Poco4Data6SQLite22SchemaDiffersExceptionC1Ei
libPocoDataSQLite.so.94:_ZN4Poco4Data6SQLite22SchemaDiffersExceptionC2ERKNSt7__cxx1112basic_stringIcSt11char_traitsIcESaIcEEERKNS_9ExceptionEi
libPocoDataSQLite.so.94:_ZN4Poco4Data6SQLite22SchemaDiffersExceptionC2ERKNSt7__cxx1112basic_stringIcSt11char_traitsIcESaIcEEESA_i
libPocoDataSQLite.so.94:_ZN4Poco4Data6SQLite22SchemaDiffersExceptionC2ERKNSt7__cxx1112basic_stringIcSt11char_traitsIcESaIcEEEi
libPocoDataSQLite.so.94:_ZN4Poco4Data6SQLite22SchemaDiffersExceptionC2ERKS2_
libPocoDataSQLite.so.94:_ZN4Poco4Data6SQLite22SchemaDiffersExceptionC2Ei
libPocoDataSQLite.so.94:_ZN4Poco4Data6SQLite22SchemaDiffersExceptionD0Ev
libPocoDataSQLite.so.94:_ZN4Poco4Data6SQLite22SchemaDiffersExceptionD1Ev
libPocoDataSQLite.so.94:_ZN4Poco4Data6SQLite22SchemaDiffersExceptionD2Ev
libPocoDataSQLite.so.94:_ZN4Poco4Data6SQLite22SchemaDiffersExceptionaSERKS2_
libPocoDataSQLite.so.94:_ZN4Poco4Data6SQLite22TableNotFoundExceptionC1ERKNSt7__cxx1112basic_stringIcSt11char_traitsIcESaIcEEERKNS_9ExceptionEi
libPocoDataSQLite.so.94:_ZN4Poco4Data6SQLite22TableNotFoundExceptionC1ERKNSt7__cxx1112basic_stringIcSt11char_traitsIcESaIcEEESA_i
libPocoDataSQLite.so.94:_ZN4Poco4Data6SQLite22TableNotFoundExceptionC1ERKNSt7__cxx1112basic_stringIcSt11char_traitsIcESaIcEEEi
libPocoDataSQLite.so.94:_ZN4Poco4Data6SQLite22TableNotFoundExceptionC1ERKS2_
libPocoDataSQLite.so.94:_ZN4Poco4Data6SQLite22TableNotFoundExceptionC1Ei
libPocoDataSQLite.so.94:_ZN4Poco4Data6SQLite22TableNotFoundExceptionC2ERKNSt7__cxx1112basic_stringIcSt11char_traitsIcESaIcEEERKNS_9ExceptionEi
libPocoDataSQLite.so.94:_ZN4Poco4Data6SQLite22TableNotFoundExceptionC2ERKNSt7__cxx1112basic_stringIcSt11char_traitsIcESaIcEEESA_i
libPocoDataSQLite.so.94:_ZN4Poco4Data6SQLite22TableNotFoundExceptionC2ERKNSt7__cxx1112basic_stringIcSt11char_traitsIcESaIcEEEi
libPocoDataSQLite.so.94:_ZN4Poco4Data6SQLite22TableNotFoundExceptionC2ERKS2_
libPocoDataSQLite.so.94:_ZN4Poco4Data6SQLite22TableNotFoundExceptionC2Ei
libPocoDataSQLite.so.94:_ZN4Poco4Data6SQLite22TableNotFoundExceptionD0Ev
libPocoDataSQLite.so.94:_ZN4Poco4Data6SQLite22TableNotFoundExceptionD1Ev
libPocoDataSQLite.so.94:_ZN4Poco4Data6SQLite22TableNotFoundExceptionD2Ev
libPocoDataSQLite.so.94:_ZN4Poco4Data6SQLite22TableNotFoundExceptionaSERKS2_
libPocoDataSQLite.so.94:_ZN4Poco4Data6SQLite23CantOpenDBFileExceptionC1ERKNSt7__cxx1112basic_stringIcSt11char_traitsIcESaIcEEERKNS_9ExceptionEi
libPocoDataSQLite.so.94:_ZN4Poco4Data6SQLite23CantOpenDBFileExceptionC1ERKNSt7__cxx1112basic_stringIcSt11char_traitsIcESaIcEEESA_i
libPocoDataSQLite.so.94:_ZN4Poco4Data6SQLite23CantOpenDBFileExceptionC1ERKNSt7__cxx1112basic_stringIcSt11char_traitsIcESaIcEEEi
libPocoDataSQLite.so.94:_ZN4Poco4Data6SQLite23CantOpenDBFileExceptionC1ERKS2_
libPocoDataSQLite.so.94:_ZN4Poco4Data6SQLite23CantOpenDBFileExceptionC1Ei
libPocoDataSQLite.so.94:_ZN4Poco4Data6SQLite23CantOpenDBFileExceptionC2ERKNSt7__cxx1112basic_stringIcSt11char_traitsIcESaIcEEERKNS_9ExceptionEi
libPocoDataSQLite.so.94:_ZN4Poco4Data6SQLite23CantOpenDBFileExceptionC2ERKNSt7__cxx1112basic_stringIcSt11char_traitsIcESaIcEEESA_i
libPocoDataSQLite.so.94:_ZN4Poco4Data6SQLite23CantOpenDBFileExceptionC2ERKNSt7__cxx1112basic_stringIcSt11char_traitsIcESaIcEEEi
libPocoDataSQLite.so.94:_ZN4Poco4Data6SQLite23CantOpenDBFileExceptionC2ERKS2_
libPocoDataSQLite.so.94:_ZN4Poco4Data6SQLite23CantOpenDBFileExceptionC2Ei
libPocoDataSQLite.so.94:_ZN4Poco4Data6SQLite23CantOpenDBFileExceptionD0Ev
libPocoDataSQLite.so.94:_ZN4Poco4Data6SQLite23CantOpenDBFileExceptionD1Ev
libPocoDataSQLite.so.94:_ZN4Poco4Data6SQLite23CantOpenDBFileExceptionD2Ev
libPocoDataSQLite.so.94:_ZN4Poco4Data6SQLite23CantOpenDBFileExceptionaSERKS2_
libPocoDataSQLite.so.94:_ZN4Poco4Data6SQLite23DBAccessDeniedExceptionC1ERKNSt7__cxx1112basic_stringIcSt11char_traitsIcESaIcEEERKNS_9ExceptionEi
libPocoDataSQLite.so.94:_ZN4Poco4Data6SQLite23DBAccessDeniedExceptionC1ERKNSt7__cxx1112basic_stringIcSt11char_traitsIcESaIcEEESA_i
libPocoDataSQLite.so.94:_ZN4Poco4Data6SQLite23DBAccessDeniedExceptionC1ERKNSt7__cxx1112basic_stringIcSt11char_traitsIcESaIcEEEi
libPocoDataSQLite.so.94:_ZN4Poco4Data6SQLite23DBAccessDeniedExceptionC1ERKS2_
libPocoDataSQLite.so.94:_ZN4Poco4Data6SQLite23DBAccessDeniedExceptionC1Ei
libPocoDataSQLite.so.94:_ZN4Poco4Data6SQLite23DBAccessDeniedExceptionC2ERKNSt7__cxx1112basic_stringIcSt11char_traitsIcESaIcEEERKNS_9ExceptionEi
libPocoDataSQLite.so.94:_ZN4Poco4Data6SQLite23DBAccessDeniedExceptionC2ERKNSt7__cxx1112basic_stringIcSt11char_traitsIcESaIcEEESA_i
libPocoDataSQLite.so.94:_ZN4Poco4Data6SQLite23DBAccessDeniedExceptionC2ERKNSt7__cxx1112basic_stringIcSt11char_traitsIcESaIcEEEi
libPocoDataSQLite.so.94:_ZN4Poco4Data6SQLite23DBAccessDeniedExceptionC2ERKS2_
libPocoDataSQLite.so.94:_ZN4Poco4Data6SQLite23DBAccessDeniedExceptionC2Ei
libPocoDataSQLite.so.94:_ZN4Poco4Data6SQLite23DBAccessDeniedExceptionD0Ev
libPocoDataSQLite.so.94:_ZN4Poco4Data6SQLite23DBAccessDeniedExceptionD1Ev
libPocoDataSQLite.so.94:_ZN4Poco4Data6SQLite23DBAccessDeniedExceptionD2Ev
libPocoDataSQLite.so.94:_ZN4Poco4Data6SQLite23DBAccessDeniedExceptionaSERKS2_
libPocoDataSQLite.so.94:_ZN4Poco4Data6SQLite24InternalDBErrorExceptionC1ERKNSt7__cxx1112basic_stringIcSt11char_traitsIcESaIcEEERKNS_9ExceptionEi
libPocoDataSQLite.so.94:_ZN4Poco4Data6SQLite24InternalDBErrorExceptionC1ERKNSt7__cxx1112basic_stringIcSt11char_traitsIcESaIcEEESA_i
libPocoDataSQLite.so.94:_ZN4Poco4Data6SQLite24InternalDBErrorExceptionC1ERKNSt7__cxx1112basic_stringIcSt11char_traitsIcESaIcEEEi
libPocoDataSQLite.so.94:_ZN4Poco4Data6SQLite24InternalDBErrorExceptionC1ERKS2_
libPocoDataSQLite.so.94:_ZN4Poco4Data6SQLite24InternalDBErrorExceptionC1Ei
libPocoDataSQLite.so.94:_ZN4Poco4Data6SQLite24InternalDBErrorExceptionC2ERKNSt7__cxx1112basic_stringIcSt11char_traitsIcESaIcEEERKNS_9ExceptionEi
libPocoDataSQLite.so.94:_ZN4Poco4Data6SQLite24InternalDBErrorExceptionC2ERKNSt7__cxx1112basic_stringIcSt11char_traitsIcESaIcEEESA_i
libPocoDataSQLite.so.94:_ZN4Poco4Data6SQLite24InternalDBErrorExceptionC2ERKNSt7__cxx1112basic_stringIcSt11char_traitsIcESaIcEEEi
libPocoDataSQLite.so.94:_ZN4Poco4Data6SQLite24InternalDBErrorExceptionC2ERKS2_
libPocoDataSQLite.so.94:_ZN4Poco4Data6SQLite24InternalDBErrorExceptionC2Ei
libPocoDataSQLite.so.94:_ZN4Poco4Data6SQLite24InternalDBErrorExceptionD0Ev
libPocoDataSQLite.so.94:_ZN4Poco4Data6SQLite24InternalDBErrorExceptionD1Ev
libPocoDataSQLite.so.94:_ZN4Poco4Data6SQLite24InternalDBErrorExceptionD2Ev
libPocoDataSQLite.so.94:_ZN4Poco4Data6SQLite24InternalDBErrorExceptionaSERKS2_
libPocoDataSQLite.so.94:_ZN4Poco4Data6SQLite25DataTypeMismatchExceptionC1ERKNSt7__cxx1112basic_stringIcSt11char_traitsIcESaIcEEERKNS_9ExceptionEi
libPocoDataSQLite.so.94:_ZN4Poco4Data6SQLite25DataTypeMismatchExceptionC1ERKNSt7__cxx1112basic_stringIcSt11char_traitsIcESaIcEEESA_i
libPocoDataSQLite.so.94:_ZN4Poco4Data6SQLite25DataTypeMismatchExceptionC1ERKNSt7__cxx1112basic_stringIcSt11char_traitsIcESaIcEEEi
libPocoDataSQLite.so.94:_ZN4Poco4Data6SQLite25DataTypeMismatchExceptionC1ERKS2_
libPocoDataSQLite.so.94:_ZN4Poco4Data6SQLite25DataTypeMismatchExceptionC1Ei
libPocoDataSQLite.so.94:_ZN4Poco4Data6SQLite25DataTypeMismatchExceptionC2ERKNSt7__cxx1112basic_stringIcSt11char_traitsIcESaIcEEERKNS_9ExceptionEi
libPocoDataSQLite.so.94:_ZN4Poco4Data6SQLite25DataTypeMismatchExceptionC2ERKNSt7__cxx1112basic_stringIcSt11char_traitsIcESaIcEEESA_i
libPocoDataSQLite.so.94:_ZN4Poco4Data6SQLite25DataTypeMismatchExceptionC2ERKNSt7__cxx1112basic_stringIcSt11char_traitsIcESaIcEEEi
libPocoDataSQLite.so.94:_ZN4Poco4Data6SQLite25DataTypeMismatchExceptionC2ERKS2_
libPocoDataSQLite.so.94:_ZN4Poco4Data6SQLite25DataTypeMismatchExceptionC2Ei
libPocoDataSQLite.so.94:_ZN4Poco4Data6SQLite25DataTypeMismatchExceptionD0Ev
libPocoDataSQLite.so.94:_ZN4Poco4Data6SQLite25DataTypeMismatchExceptionD1Ev
libPocoDataSQLite.so.94:_ZN4Poco4Data6SQLite25DataTypeMismatchExceptionD2Ev
libPocoDataSQLite.so.94:_ZN4Poco4Data6SQLite25DataTypeMismatchExceptionaSERKS2_
libPocoDataSQLite.so.94:_ZN4Poco4Data6SQLite25ExecutionAbortedExceptionC1ERKNSt7__cxx1112basic_stringIcSt11char_traitsIcESaIcEEERKNS_9ExceptionEi
libPocoDataSQLite.so.94:_ZN4Poco4Data6SQLite25ExecutionAbortedExceptionC1ERKNSt7__cxx1112basic_stringIcSt11char_traitsIcESaIcEEESA_i
libPocoDataSQLite.so.94:_ZN4Poco4Data6SQLite25ExecutionAbortedExceptionC1ERKNSt7__cxx1112basic_stringIcSt11char_traitsIcESaIcEEEi
libPocoDataSQLite.so.94:_ZN4Poco4Data6SQLite25ExecutionAbortedExceptionC1ERKS2_
libPocoDataSQLite.so.94:_ZN4Poco4Data6SQLite25ExecutionAbortedExceptionC1Ei
libPocoDataSQLite.so.94:_ZN4Poco4Data6SQLite25ExecutionAbortedExceptionC2ERKNSt7__cxx1112basic_stringIcSt11char_traitsIcESaIcEEERKNS_9ExceptionEi
libPocoDataSQLite.so.94:_ZN4Poco4Data6SQLite25ExecutionAbortedExceptionC2ERKNSt7__cxx1112basic_stringIcSt11char_traitsIcESaIcEEESA_i
libPocoDataSQLite.so.94:_ZN4Poco4Data6SQLite25ExecutionAbortedExceptionC2ERKNSt7__cxx1112basic_stringIcSt11char_traitsIcESaIcEEEi
libPocoDataSQLite.so.94:_ZN4Poco4Data6SQLite25ExecutionAbortedExceptionC2ERKS2_
libPocoDataSQLite.so.94:_ZN4Poco4Data6SQLite25ExecutionAbortedExceptionC2Ei
libPocoDataSQLite.so.94:_ZN4Poco4Data6SQLite25ExecutionAbortedExceptionD0Ev
libPocoDataSQLite.so.94:_ZN4Poco4Data6SQLite25ExecutionAbortedExceptionD1Ev
libPocoDataSQLite.so.94:_ZN4Poco4Data6SQLite25ExecutionAbortedExceptionD2Ev
libPocoDataSQLite.so.94:_ZN4Poco4Data6SQLite25ExecutionAbortedExceptionaSERKS2_
libPocoDataSQLite.so.94:_ZN4Poco4Data6SQLite26InvalidLibraryUseExceptionC1ERKNSt7__cxx1112basic_stringIcSt11char_traitsIcESaIcEEERKNS_9ExceptionEi
libPocoDataSQLite.so.94:_ZN4Poco4Data6SQLite26InvalidLibraryUseExceptionC1ERKNSt7__cxx1112basic_stringIcSt11char_traitsIcESaIcEEESA_i
libPocoDataSQLite.so.94:_ZN4Poco4Data6SQLite26InvalidLibraryUseExceptionC1ERKNSt7__cxx1112basic_stringIcSt11char_traitsIcESaIcEEEi
libPocoDataSQLite.so.94:_ZN4Poco4Data6SQLite26InvalidLibraryUseExceptionC1ERKS2_
libPocoDataSQLite.so.94:_ZN4Poco4Data6SQLite26InvalidLibraryUseExceptionC1Ei
libPocoDataSQLite.so.94:_ZN4Poco4Data6SQLite26InvalidLibraryUseExceptionC2ERKNSt7__cxx1112basic_stringIcSt11char_traitsIcESaIcEEERKNS_9ExceptionEi
libPocoDataSQLite.so.94:_ZN4Poco4Data6SQLite26InvalidLibraryUseExceptionC2ERKNSt7__cxx1112basic_stringIcSt11char_traitsIcESaIcEEESA_i
libPocoDataSQLite.so.94:_ZN4Poco4Data6SQLite26InvalidLibraryUseExceptionC2ERKNSt7__cxx1112basic_stringIcSt11char_traitsIcESaIcEEEi
libPocoDataSQLite.so.94:_ZN4Poco4Data6SQLite26InvalidLibraryUseExceptionC2ERKS2_
libPocoDataSQLite.so.94:_ZN4Poco4Data6SQLite26InvalidLibraryUseExceptionC2Ei
libPocoDataSQLite.so.94:_ZN4Poco4Data6SQLite26InvalidLibraryUseExceptionD0Ev
libPocoDataSQLite.so.94:_ZN4Poco4Data6SQLite26InvalidLibraryUseExceptionD1Ev
libPocoDataSQLite.so.94:_ZN4Poco4Data6SQLite26InvalidLibraryUseExceptionD2Ev
libPocoDataSQLite.so.94:_ZN4Poco4Data6SQLite26InvalidLibraryUseExceptionaSERKS2_
libPocoDataSQLite.so.94:_ZN4Poco4Data6SQLite26OSFeaturesMissingExceptionC1ERKNSt7__cxx1112basic_stringIcSt11char_traitsIcESaIcEEERKNS_9ExceptionEi
libPocoDataSQLite.so.94:_ZN4Poco4Data6SQLite26OSFeaturesMissingExceptionC1ERKNSt7__cxx1112basic_stringIcSt11char_traitsIcESaIcEEESA_i
libPocoDataSQLite.so.94:_ZN4Poco4Data6SQLite26OSFeaturesMissingExceptionC1ERKNSt7__cxx1112basic_stringIcSt11char_traitsIcESaIcEEEi
libPocoDataSQLite.so.94:_ZN4Poco4Data6SQLite26OSFeaturesMissingExceptionC1ERKS2_
libPocoDataSQLite.so.94:_ZN4Poco4Data6SQLite26OSFeaturesMissingExceptionC1Ei
libPocoDataSQLite.so.94:_ZN4Poco4Data6SQLite26OSFeaturesMissingExceptionC2ERKNSt7__cxx1112basic_stringIcSt11char_traitsIcESaIcEEERKNS_9ExceptionEi
libPocoDataSQLite.so.94:_ZN4Poco4Data6SQLite26OSFeaturesMissingExceptionC2ERKNSt7__cxx1112basic_stringIcSt11char_traitsIcESaIcEEESA_i
libPocoDataSQLite.so.94:_ZN4Poco4Data6SQLite26OSFeaturesMissingExceptionC2ERKNSt7__cxx1112basic_stringIcSt11char_traitsIcESaIcEEEi
libPocoDataSQLite.so.94:_ZN4Poco4Data6SQLite26OSFeaturesMissingExceptionC2ERKS2_
libPocoDataSQLite.so.94:_ZN4Poco4Data6SQLite26OSFeaturesMissingExceptionC2Ei
libPocoDataSQLite.so.94:_ZN4Poco4Data6SQLite26OSFeaturesMissingExceptionD0Ev
libPocoDataSQLite.so.94:_ZN4Poco4Data6SQLite26OSFeaturesMissingExceptionD1Ev
libPocoDataSQLite.so.94:_ZN4Poco4Data6SQLite26OSFeaturesMissingExceptionD2Ev
libPocoDataSQLite.so.94:_ZN4Poco4Data6SQLite26OSFeaturesMissingExceptionaSERKS2_
libPocoDataSQLite.so.94:_ZN4Poco4Data6SQLite28AuthorizationDeniedExceptionC1ERKNSt7__cxx1112basic_stringIcSt11char_traitsIcESaIcEEERKNS_9ExceptionEi
libPocoDataSQLite.so.94:_ZN4Poco4Data6SQLite28AuthorizationDeniedExceptionC1ERKNSt7__cxx1112basic_stringIcSt11char_traitsIcESaIcEEESA_i
libPocoDataSQLite.so.94:_ZN4Poco4Data6SQLite28AuthorizationDeniedExceptionC1ERKNSt7__cxx1112basic_stringIcSt11char_traitsIcESaIcEEEi
libPocoDataSQLite.so.94:_ZN4Poco4Data6SQLite28AuthorizationDeniedExceptionC1ERKS2_
libPocoDataSQLite.so.94:_ZN4Poco4Data6SQLite28AuthorizationDeniedExceptionC1Ei
libPocoDataSQLite.so.94:_ZN4Poco4Data6SQLite28AuthorizationDeniedExceptionC2ERKNSt7__cxx1112basic_stringIcSt11char_traitsIcESaIcEEERKNS_9ExceptionEi
libPocoDataSQLite.so.94:_ZN4Poco4Data6SQLite28AuthorizationDeniedExceptionC2ERKNSt7__cxx1112basic_stringIcSt11char_traitsIcESaIcEEESA_i
libPocoDataSQLite.so.94:_ZN4Poco4Data6SQLite28AuthorizationDeniedExceptionC2ERKNSt7__cxx1112basic_stringIcSt11char_traitsIcESaIcEEEi
libPocoDataSQLite.so.94:_ZN4Poco4Data6SQLite28AuthorizationDeniedExceptionC2ERKS2_
libPocoDataSQLite.so.94:_ZN4Poco4Data6SQLite28AuthorizationDeniedExceptionC2Ei
libPocoDataSQLite.so.94:_ZN4Poco4Data6SQLite28AuthorizationDeniedExceptionD0Ev
libPocoDataSQLite.so.94:_ZN4Poco4Data6SQLite28AuthorizationDeniedExceptionD1Ev
libPocoDataSQLite.so.94:_ZN4Poco4Data6SQLite28AuthorizationDeniedExceptionD2Ev
libPocoDataSQLite.so.94:_ZN4Poco4Data6SQLite28AuthorizationDeniedExceptionaSERKS2_
libPocoDataSQLite.so.94:_ZN4Poco4Data6SQLite28ConstraintViolationExceptionC1ERKNSt7__cxx1112basic_stringIcSt11char_traitsIcESaIcEEERKNS_9ExceptionEi
libPocoDataSQLite.so.94:_ZN4Poco4Data6SQLite28ConstraintViolationExceptionC1ERKNSt7__cxx1112basic_stringIcSt11char_traitsIcESaIcEEESA_i
libPocoDataSQLite.so.94:_ZN4Poco4Data6SQLite28ConstraintViolationExceptionC1ERKNSt7__cxx1112basic_stringIcSt11char_traitsIcESaIcEEEi
libPocoDataSQLite.so.94:_ZN4Poco4Data6SQLite28ConstraintViolationExceptionC1ERKS2_
libPocoDataSQLite.so.94:_ZN4Poco4Data6SQLite28ConstraintViolationExceptionC1Ei
libPocoDataSQLite.so.94:_ZN4Poco4Data6SQLite28ConstraintViolationExceptionC2ERKNSt7__cxx1112basic_stringIcSt11char_traitsIcESaIcEEERKNS_9ExceptionEi
libPocoDataSQLite.so.94:_ZN4Poco4Data6SQLite28ConstraintViolationExceptionC2ERKNSt7__cxx1112basic_stringIcSt11char_traitsIcESaIcEEESA_i
libPocoDataSQLite.so.94:_ZN4Poco4Data6SQLite28ConstraintViolationExceptionC2ERKNSt7__cxx1112basic_stringIcSt11char_traitsIcESaIcEEEi
libPocoDataSQLite.so.94:_ZN4Poco4Data6SQLite28ConstraintViolationExceptionC2ERKS2_
libPocoDataSQLite.so.94:_ZN4Poco4Data6SQLite28ConstraintViolationExceptionC2Ei
libPocoDataSQLite.so.94:_ZN4Poco4Data6SQLite28ConstraintViolationExceptionD0Ev
libPocoDataSQLite.so.94:_ZN4Poco4Data6SQLite28ConstraintViolationExceptionD1Ev
libPocoDataSQLite.so.94:_ZN4Poco4Data6SQLite28ConstraintViolationExceptionD2Ev
libPocoDataSQLite.so.94:_ZN4Poco4Data6SQLite28ConstraintViolationExceptionaSERKS2_
libPocoDataSQLite.so.94:_ZN4Poco4Data6SQLite28InvalidSQLStatementExceptionC1ERKNSt7__cxx1112basic_stringIcSt11char_traitsIcESaIcEEERKNS_9ExceptionEi
libPocoDataSQLite.so.94:_ZN4Poco4Data6SQLite28InvalidSQLStatementExceptionC1ERKNSt7__cxx1112basic_stringIcSt11char_traitsIcESaIcEEESA_i
libPocoDataSQLite.so.94:_ZN4Poco4Data6SQLite28InvalidSQLStatementExceptionC1ERKNSt7__cxx1112basic_stringIcSt11char_traitsIcESaIcEEEi
libPocoDataSQLite.so.94:_ZN4Poco4Data6SQLite28InvalidSQLStatementExceptionC1ERKS2_
libPocoDataSQLite.so.94:_ZN4Poco4Data6SQLite28InvalidSQLStatementExceptionC1Ei
libPocoDataSQLite.so.94:_ZN4Poco4Data6SQLite28InvalidSQLStatementExceptionC2ERKNSt7__cxx1112basic_stringIcSt11char_traitsIcESaIcEEERKNS_9ExceptionEi
libPocoDataSQLite.so.94:_ZN4Poco4Data6SQLite28InvalidSQLStatementExceptionC2ERKNSt7__cxx1112basic_stringIcSt11char_traitsIcESaIcEEESA_i
libPocoDataSQLite.so.94:_ZN4Poco4Data6SQLite28InvalidSQLStatementExceptionC2ERKNSt7__cxx1112basic_stringIcSt11char_traitsIcESaIcEEEi
libPocoDataSQLite.so.94:_ZN4Poco4Data6SQLite28InvalidSQLStatementExceptionC2ERKS2_
libPocoDataSQLite.so.94:_ZN4Poco4Data6SQLite28InvalidSQLStatementExceptionC2Ei
libPocoDataSQLite.so.94:_ZN4Poco4Data6SQLite28InvalidSQLStatementExceptionD0Ev
libPocoDataSQLite.so.94:_ZN4Poco4Data6SQLite28InvalidSQLStatementExceptionD1Ev
libPocoDataSQLite.so.94:_ZN4Poco4Data6SQLite28InvalidSQLStatementExceptionD2Ev
libPocoDataSQLite.so.94:_ZN4Poco4Data6SQLite28InvalidSQLStatementExceptionaSERKS2_
libPocoDataSQLite.so.94:_ZN4Poco4Data6SQLite31ParameterCountMismatchExceptionC1ERKNSt7__cxx1112basic_stringIcSt11char_traitsIcESaIcEEERKNS_9ExceptionEi
libPocoDataSQLite.so.94:_ZN4Poco4Data6SQLite31ParameterCountMismatchExceptionC1ERKNSt7__cxx1112basic_stringIcSt11char_traitsIcESaIcEEESA_i
libPocoDataSQLite.so.94:_ZN4Poco4Data6SQLite31ParameterCountMismatchExceptionC1ERKNSt7__cxx1112basic_stringIcSt11char_traitsIcESaIcEEEi
libPocoDataSQLite.so.94:_ZN4Poco4Data6SQLite31ParameterCountMismatchExceptionC1ERKS2_
libPocoDataSQLite.so.94:_ZN4Poco4Data6SQLite31ParameterCountMismatchExceptionC1Ei
libPocoDataSQLite.so.94:_ZN4Poco4Data6SQLite31ParameterCountMismatchExceptionC2ERKNSt7__cxx1112basic_stringIcSt11char_traitsIcESaIcEEERKNS_9ExceptionEi
libPocoDataSQLite.so.94:_ZN4Poco4Data6SQLite31ParameterCountMismatchExceptionC2ERKNSt7__cxx1112basic_stringIcSt11char_traitsIcESaIcEEESA_i
libPocoDataSQLite.so.94:_ZN4Poco4Data6SQLite31ParameterCountMismatchExceptionC2ERKNSt7__cxx1112basic_stringIcSt11char_traitsIcESaIcEEEi
libPocoDataSQLite.so.94:_ZN4Poco4Data6SQLite31ParameterCountMismatchExceptionC2ERKS2_
libPocoDataSQLite.so.94:_ZN4Poco4Data6SQLite31ParameterCountMismatchExceptionC2Ei
libPocoDataSQLite.so.94:_ZN4Poco4Data6SQLite31ParameterCountMismatchExceptionD0Ev
libPocoDataSQLite.so.94:_ZN4Poco4Data6SQLite31ParameterCountMismatchExceptionD1Ev
libPocoDataSQLite.so.94:_ZN4Poco4Data6SQLite31ParameterCountMismatchExceptionD2Ev
libPocoDataSQLite.so.94:_ZN4Poco4Data6SQLite31ParameterCountMismatchExceptionaSERKS2_
libPocoDataSQLite.so.94:_ZN4Poco4Data6SQLite6Binder11checkReturnEi
libPocoDataSQLite.so.94:_ZN4Poco4Data6SQLite6Binder4bindEmRKNS0_4DateENS0_14AbstractBinder9DirectionE
libPocoDataSQLite.so.94:_ZN4Poco4Data6SQLite6Binder4bindEmRKNS0_4TimeENS0_14AbstractBinder9DirectionE
libPocoDataSQLite.so.94:_ZN4Poco4Data6SQLite6Binder4bindEmRKNS_4UUIDENS0_14AbstractBinder9DirectionE
libPocoDataSQLite.so.94:_ZN4Poco4Data6SQLite6Binder4bindEmRKNS_8DateTimeENS0_14AbstractBinder9DirectionE
libPocoDataSQLite.so.94:_ZN4Poco4Data6SQLite6Binder4bindEmRKNS_8NullTypeENS0_14AbstractBinder9DirectionE
libPocoDataSQLite.so.94:_ZN4Poco4Data6SQLite6Binder4bindEmRKNSt7__cxx1112basic_stringIcSt11char_traitsIcESaIcEEENS0_14AbstractBinder9DirectionE
libPocoDataSQLite.so.94:_ZN4Poco4Data6SQLite6Binder4bindEmRKdNS0_14AbstractBinder9DirectionE
libPocoDataSQLite.so.94:_ZN4Poco4Data6SQLite6Binder4bindEmRKiNS0_14AbstractBinder9DirectionE
libPocoDataSQLite.so.94:_ZN4Poco4Data6SQLite6Binder4bindEmRKlNS0_14AbstractBinder9DirectionE
libPocoDataSQLite.so.94:_ZN4Poco4Data6SQLite6BinderC1EP12sqlite3_stmt
libPocoDataSQLite.so.94:_ZN4Poco4Data6SQLite6BinderC2EP12sqlite3_stmt
libPocoDataSQLite.so.94:_ZN4Poco4Data6SQLite6BinderD0Ev
libPocoDataSQLite.so.94:_ZN4Poco4Data6SQLite6BinderD1Ev
libPocoDataSQLite.so.94:_ZN4Poco4Data6SQLite6BinderD2Ev
libPocoDataSQLite.so.94:_ZN4Poco4Data6SQLite7Utility11SQLiteMutexC1EP7sqlite3
libPocoDataSQLite.so.94:_ZN4Poco4Data6SQLite7Utility11SQLiteMutexC2EP7sqlite3
libPocoDataSQLite.so.94:_ZN4Poco4Data6SQLite7Utility11SQLiteMutexD1Ev
libPocoDataSQLite.so.94:_ZN4Poco4Data6SQLite7Utility11SQLiteMutexD2Ev
libPocoDataSQLite.so.94:_ZN4Poco4Data6SQLite7Utility11_threadModeE
libPocoDataSQLite.so.94:_ZN4Poco4Data6SQLite7Utility12fileToMemoryEP7sqlite3RKNSt7__cxx1112basic_stringIcSt11char_traitsIcESaIcEEE
libPocoDataSQLite.so.94:_ZN4Poco4Data6SQLite7Utility12isThreadSafeEv
libPocoDataSQLite.so.94:_ZN4Poco4Data6SQLite7Utility12memoryToFileERKNSt7__cxx1112basic_stringIcSt11char_traitsIcESaIcEEEP7sqlite3
libPocoDataSQLite.so.94:_ZN4Poco4Data6SQLite7Utility13getColumnTypeEP12sqlite3_stmtm
libPocoDataSQLite.so.94:_ZN4Poco4Data6SQLite7Utility13getThreadModeEv
libPocoDataSQLite.so.94:_ZN4Poco4Data6SQLite7Utility13setThreadModeEi
libPocoDataSQLite.so.94:_ZN4Poco4Data6SQLite7Utility14throwExceptionEP7sqlite3iRKNSt7__cxx1112basic_stringIcSt11char_traitsIcESaIcEEE
libPocoDataSQLite.so.94:_ZN4Poco4Data6SQLite7Utility16OPERATION_DELETEE
libPocoDataSQLite.so.94:_ZN4Poco4Data6SQLite7Utility16OPERATION_INSERTE
libPocoDataSQLite.so.94:_ZN4Poco4Data6SQLite7Utility16OPERATION_UPDATEE
libPocoDataSQLite.so.94:_ZN4Poco4Data6SQLite7Utility17THREAD_MODE_MULTIE
libPocoDataSQLite.so.94:_ZN4Poco4Data6SQLite7Utility17eventHookRegisterEP7sqlite3PFiPvES5_
libPocoDataSQLite.so.94:_ZN4Poco4Data6SQLite7Utility17eventHookRegisterEP7sqlite3PFvPvES5_
libPocoDataSQLite.so.94:_ZN4Poco4Data6SQLite7Utility17eventHookRegisterEP7sqlite3PFvPviPKcS7_lES5_
libPocoDataSQLite.so.94:_ZN4Poco4Data6SQLite7Utility18SQLITE_DATE_FORMATB5cxx11E
libPocoDataSQLite.so.94:_ZN4Poco4Data6SQLite7Utility18SQLITE_TIME_FORMATB5cxx11E
libPocoDataSQLite.so.94:_ZN4Poco4Data6SQLite7Utility18THREAD_MODE_SERIALE
libPocoDataSQLite.so.94:_ZN4Poco4Data6SQLite7Utility18THREAD_MODE_SINGLEE
libPocoDataSQLite.so.94:_ZN4Poco4Data6SQLite7Utility29TRANSACTION_TYPE_PROPERTY_KEYB5cxx11E
libPocoDataSQLite.so.94:_ZN4Poco4Data6SQLite7Utility6_mutexE
libPocoDataSQLite.so.94:_ZN4Poco4Data6SQLite7Utility6_typesB5cxx11E
libPocoDataSQLite.so.94:_ZN4Poco4Data6SQLite7Utility8dbHandleERKNS0_7SessionE
libPocoDataSQLite.so.94:_ZN4Poco4Data6SQLite7Utility9lastErrorB5cxx11EP7sqlite3
libPocoDataSQLite.so.94:_ZN4Poco4Data6SQLite7UtilityC1Ev
libPocoDataSQLite.so.94:_ZN4Poco4Data6SQLite7UtilityC2Ev
libPocoDataSQLite.so.94:_ZN4Poco4Data6SQLite8Notifier10disableAllEv
libPocoDataSQLite.so.94:_ZN4Poco4Data6SQLite8Notifier12enableCommitEv
libPocoDataSQLite.so.94:_ZN4Poco4Data6SQLite8Notifier12enableUpdateEv
libPocoDataSQLite.so.94:_ZN4Poco4Data6SQLite8Notifier13disableCommitEv
libPocoDataSQLite.so.94:_ZN4Poco4Data6SQLite8Notifier13disableUpdateEv
libPocoDataSQLite.so.94:_ZN4Poco4Data6SQLite8Notifier14enableRollbackEv
libPocoDataSQLite.so.94:_ZN4Poco4Data6SQLite8Notifier15disableRollbackEv
libPocoDataSQLite.so.94:_ZN4Poco4Data6SQLite8Notifier22sqliteCommitCallbackFnEPv
libPocoDataSQLite.so.94:_ZN4Poco4Data6SQLite8Notifier22sqliteUpdateCallbackFnEPviPKcS5_l
libPocoDataSQLite.so.94:_ZN4Poco4Data6SQLite8Notifier24sqliteRollbackCallbackFnEPv
libPocoDataSQLite.so.94:_ZN4Poco4Data6SQLite8Notifier9enableAllEv
libPocoDataSQLite.so.94:_ZN4Poco4Data6SQLite8NotifierC1ERKNS0_7SessionERKNS_3AnyEh
libPocoDataSQLite.so.94:_ZN4Poco4Data6SQLite8NotifierC1ERKNS0_7SessionEh
libPocoDataSQLite.so.94:_ZN4Poco4Data6SQLite8NotifierC2ERKNS0_7SessionERKNS_3AnyEh
libPocoDataSQLite.so.94:_ZN4Poco4Data6SQLite8NotifierC2ERKNS0_7SessionEh
libPocoDataSQLite.so.94:_ZN4Poco4Data6SQLite8NotifierD1Ev
libPocoDataSQLite.so.94:_ZN4Poco4Data6SQLite8NotifierD2Ev
libPocoDataSQLite.so.94:_ZN4Poco4Data6SQLite9Connector13createSessionERKNSt7__cxx1112basic_stringIcSt11char_traitsIcESaIcEEEm
libPocoDataSQLite.so.94:_ZN4Poco4Data6SQLite9Connector17enableSharedCacheEb
libPocoDataSQLite.so.94:_ZN4Poco4Data6SQLite9Connector17registerConnectorEv
libPocoDataSQLite.so.94:_ZN4Poco4Data6SQLite9Connector19enableSoftHeapLimitEi
libPocoDataSQLite.so.94:_ZN4Poco4Data6SQLite9Connector19unregisterConnectorEv
libPocoDataSQLite.so.94:_ZN4Poco4Data6SQLite9Connector3KEYB5cxx11E
libPocoDataSQLite.so.94:_ZN4Poco4Data6SQLite9ConnectorC1Ev
libPocoDataSQLite.so.94:_ZN4Poco4Data6SQLite9ConnectorC2Ev
libPocoDataSQLite.so.94:_ZN4Poco4Data6SQLite9ConnectorD0Ev
libPocoDataSQLite.so.94:_ZN4Poco4Data6SQLite9ConnectorD1Ev
libPocoDataSQLite.so.94:_ZN4Poco4Data6SQLite9ConnectorD2Ev
libPocoDataSQLite.so.94:_ZN4Poco4Data6SQLite9Extractor6isNullEmm
libPocoDataSQLite.so.94:_ZN4Poco4Data6SQLite9Extractor7extractEmRNS0_4DateE
libPocoDataSQLite.so.94:_ZN4Poco4Data6SQLite9Extractor7extractEmRNS0_4TimeE
libPocoDataSQLite.so.94:_ZN4Poco4Data6SQLite9Extractor7extractEmRNS_3AnyE
libPocoDataSQLite.so.94:_ZN4Poco4Data6SQLite9Extractor7extractEmRNS_4UUIDE
libPocoDataSQLite.so.94:_ZN4Poco4Data6SQLite9Extractor7extractEmRNS_7Dynamic3VarE
libPocoDataSQLite.so.94:_ZN4Poco4Data6SQLite9Extractor7extractEmRNS_8DateTimeE
libPocoDataSQLite.so.94:_ZN4Poco4Data6SQLite9Extractor7extractEmRNSt7__cxx1112basic_stringIcSt11char_traitsIcESaIcEEE
libPocoDataSQLite.so.94:_ZN4Poco4Data6SQLite9Extractor7extractEmRa
libPocoDataSQLite.so.94:_ZN4Poco4Data6SQLite9Extractor7extractEmRb
libPocoDataSQLite.so.94:_ZN4Poco4Data6SQLite9Extractor7extractEmRc
libPocoDataSQLite.so.94:_ZN4Poco4Data6SQLite9Extractor7extractEmRd
libPocoDataSQLite.so.94:_ZN4Poco4Data6SQLite9Extractor7extractEmRf
libPocoDataSQLite.so.94:_ZN4Poco4Data6SQLite9Extractor7extractEmRh
libPocoDataSQLite.so.94:_ZN4Poco4Data6SQLite9Extractor7extractEmRi
libPocoDataSQLite.so.94:_ZN4Poco4Data6SQLite9Extractor7extractEmRj
libPocoDataSQLite.so.94:_ZN4Poco4Data6SQLite9Extractor7extractEmRl
libPocoDataSQLite.so.94:_ZN4Poco4Data6SQLite9Extractor7extractEmRm
libPocoDataSQLite.so.94:_ZN4Poco4Data6SQLite9Extractor7extractEmRs
libPocoDataSQLite.so.94:_ZN4Poco4Data6SQLite9Extractor7extractEmRt
libPocoDataSQLite.so.94:_ZN4Poco4Data6SQLite9ExtractorC1EP12sqlite3_stmt
libPocoDataSQLite.so.94:_ZN4Poco4Data6SQLite9ExtractorC2EP12sqlite3_stmt
libPocoDataSQLite.so.94:_ZN4Poco4Data6SQLite9ExtractorD0Ev
libPocoDataSQLite.so.94:_ZN4Poco4Data6SQLite9ExtractorD1Ev
libPocoDataSQLite.so.94:_ZN4Poco4Data6SQLite9ExtractorD2Ev
libPocoDataSQLite.so.94:_ZNK4Poco4Data6SQLite11SessionImpl11isConnectedEv
libPocoDataSQLite.so.94:_ZNK4Poco4Data6SQLite11SessionImpl12isAutoCommitERKNSt7__cxx1112basic_stringIcSt11char_traitsIcESaIcEEE
libPocoDataSQLite.so.94:_ZNK4Poco4Data6SQLite11SessionImpl18getTransactionTypeERKNSt7__cxx1112basic_stringIcSt11char_traitsIcESaIcEEE
libPocoDataSQLite.so.94:_ZNK4Poco4Data6SQLite11SessionImpl20getConnectionTimeoutERKNSt7__cxx1112basic_stringIcSt11char_traitsIcESaIcEEE
libPocoDataSQLite.so.94:_ZNK4Poco4Data6SQLite11SessionImpl22isTransactionIsolationEj
libPocoDataSQLite.so.94:_ZNK4Poco4Data6SQLite11SessionImpl23getTransactionIsolationEv
libPocoDataSQLite.so.94:_ZNK4Poco4Data6SQLite11SessionImpl23hasTransactionIsolationEj
libPocoDataSQLite.so.94:_ZNK4Poco4Data6SQLite15SQLiteException4nameEv
libPocoDataSQLite.so.94:_ZNK4Poco4Data6SQLite15SQLiteException5cloneEv
libPocoDataSQLite.so.94:_ZNK4Poco4Data6SQLite15SQLiteException7rethrowEv
libPocoDataSQLite.so.94:_ZNK4Poco4Data6SQLite15SQLiteException9classNameEv
libPocoDataSQLite.so.94:_ZNK4Poco4Data6SQLite16IOErrorException4nameEv
libPocoDataSQLite.so.94:_ZNK4Poco4Data6SQLite16IOErrorException5cloneEv
libPocoDataSQLite.so.94:_ZNK4Poco4Data6SQLite16IOErrorException7rethrowEv
libPocoDataSQLite.so.94:_ZNK4Poco4Data6SQLite16IOErrorException9classNameEv
libPocoDataSQLite.so.94:_ZNK4Poco4Data6SQLite17DBLockedException4nameEv
libPocoDataSQLite.so.94:_ZNK4Poco4Data6SQLite17DBLockedException5cloneEv
libPocoDataSQLite.so.94:_ZNK4Poco4Data6SQLite17DBLockedException7rethrowEv
libPocoDataSQLite.so.94:_ZNK4Poco4Data6SQLite17DBLockedException9classNameEv
libPocoDataSQLite.so.94:_ZNK4Poco4Data6SQLite17NoMemoryException4nameEv
libPocoDataSQLite.so.94:_ZNK4Poco4Data6SQLite17NoMemoryException5cloneEv
libPocoDataSQLite.so.94:_ZNK4Poco4Data6SQLite17NoMemoryException7rethrowEv
libPocoDataSQLite.so.94:_ZNK4Poco4Data6SQLite17NoMemoryException9classNameEv
libPocoDataSQLite.so.94:_ZNK4Poco4Data6SQLite17ReadOnlyException4nameEv
libPocoDataSQLite.so.94:_ZNK4Poco4Data6SQLite17ReadOnlyException5cloneEv
libPocoDataSQLite.so.94:_ZNK4Poco4Data6SQLite17ReadOnlyException7rethrowEv
libPocoDataSQLite.so.94:_ZNK4Poco4Data6SQLite17ReadOnlyException9classNameEv
libPocoDataSQLite.so.94:_ZNK4Poco4Data6SQLite18InterruptException4nameEv
libPocoDataSQLite.so.94:_ZNK4Poco4Data6SQLite18InterruptException5cloneEv
libPocoDataSQLite.so.94:_ZNK4Poco4Data6SQLite18InterruptException7rethrowEv
libPocoDataSQLite.so.94:_ZNK4Poco4Data6SQLite18InterruptException9classNameEv
libPocoDataSQLite.so.94:_ZNK4Poco4Data6SQLite18RowTooBigException4nameEv
libPocoDataSQLite.so.94:_ZNK4Poco4Data6SQLite18RowTooBigException5cloneEv
libPocoDataSQLite.so.94:_ZNK4Poco4Data6SQLite18RowTooBigException7rethrowEv
libPocoDataSQLite.so.94:_ZNK4Poco4Data6SQLite18RowTooBigException9classNameEv
libPocoDataSQLite.so.94:_ZNK4Poco4Data6SQLite19SQLiteStatementImpl10metaColumnEm
libPocoDataSQLite.so.94:_ZNK4Poco4Data6SQLite19SQLiteStatementImpl15columnsReturnedEv
libPocoDataSQLite.so.94:_ZNK4Poco4Data6SQLite19SQLiteStatementImpl16affectedRowCountEv
libPocoDataSQLite.so.94:_ZNK4Poco4Data6SQLite20TableLockedException4nameEv
libPocoDataSQLite.so.94:_ZNK4Poco4Data6SQLite20TableLockedException5cloneEv
libPocoDataSQLite.so.94:_ZNK4Poco4Data6SQLite20TableLockedException7rethrowEv
libPocoDataSQLite.so.94:_ZNK4Poco4Data6SQLite20TableLockedException9classNameEv
libPocoDataSQLite.so.94:_ZNK4Poco4Data6SQLite20TransactionException4nameEv
libPocoDataSQLite.so.94:_ZNK4Poco4Data6SQLite20TransactionException5cloneEv
libPocoDataSQLite.so.94:_ZNK4Poco4Data6SQLite20TransactionException7rethrowEv
libPocoDataSQLite.so.94:_ZNK4Poco4Data6SQLite20TransactionException9classNameEv
libPocoDataSQLite.so.94:_ZNK4Poco4Data6SQLite21CorruptImageException4nameEv
libPocoDataSQLite.so.94:_ZNK4Poco4Data6SQLite21CorruptImageException5cloneEv
libPocoDataSQLite.so.94:_ZNK4Poco4Data6SQLite21CorruptImageException7rethrowEv
libPocoDataSQLite.so.94:_ZNK4Poco4Data6SQLite21CorruptImageException9classNameEv
libPocoDataSQLite.so.94:_ZNK4Poco4Data6SQLite21DatabaseFullException4nameEv
libPocoDataSQLite.so.94:_ZNK4Poco4Data6SQLite21DatabaseFullException5cloneEv
libPocoDataSQLite.so.94:_ZNK4Poco4Data6SQLite21DatabaseFullException7rethrowEv
libPocoDataSQLite.so.94:_ZNK4Poco4Data6SQLite21DatabaseFullException9classNameEv
libPocoDataSQLite.so.94:_ZNK4Poco4Data6SQLite21LockProtocolException4nameEv
libPocoDataSQLite.so.94:_ZNK4Poco4Data6SQLite21LockProtocolException5cloneEv
libPocoDataSQLite.so.94:_ZNK4Poco4Data6SQLite21LockProtocolException7rethrowEv
libPocoDataSQLite.so.94:_ZNK4Poco4Data6SQLite21LockProtocolException9classNameEv
libPocoDataSQLite.so.94:_ZNK4Poco4Data6SQLite22SchemaDiffersException4nameEv
libPocoDataSQLite.so.94:_ZNK4Poco4Data6SQLite22SchemaDiffersException5cloneEv
libPocoDataSQLite.so.94:_ZNK4Poco4Data6SQLite22SchemaDiffersException7rethrowEv
libPocoDataSQLite.so.94:_ZNK4Poco4Data6SQLite22SchemaDiffersException9classNameEv
libPocoDataSQLite.so.94:_ZNK4Poco4Data6SQLite22TableNotFoundException4nameEv
libPocoDataSQLite.so.94:_ZNK4Poco4Data6SQLite22TableNotFoundException5cloneEv
libPocoDataSQLite.so.94:_ZNK4Poco4Data6SQLite22TableNotFoundException7rethrowEv
libPocoDataSQLite.so.94:_ZNK4Poco4Data6SQLite22TableNotFoundException9classNameEv
libPocoDataSQLite.so.94:_ZNK4Poco4Data6SQLite23CantOpenDBFileException4nameEv
libPocoDataSQLite.so.94:_ZNK4Poco4Data6SQLite23CantOpenDBFileException5cloneEv
libPocoDataSQLite.so.94:_ZNK4Poco4Data6SQLite23CantOpenDBFileException7rethrowEv
libPocoDataSQLite.so.94:_ZNK4Poco4Data6SQLite23CantOpenDBFileException9classNameEv
libPocoDataSQLite.so.94:_ZNK4Poco4Data6SQLite23DBAccessDeniedException4nameEv
libPocoDataSQLite.so.94:_ZNK4Poco4Data6SQLite23DBAccessDeniedException5cloneEv
libPocoDataSQLite.so.94:_ZNK4Poco4Data6SQLite23DBAccessDeniedException7rethrowEv
libPocoDataSQLite.so.94:_ZNK4Poco4Data6SQLite23DBAccessDeniedException9classNameEv
libPocoDataSQLite.so.94:_ZNK4Poco4Data6SQLite24InternalDBErrorException4nameEv
libPocoDataSQLite.so.94:_ZNK4Poco4Data6SQLite24InternalDBErrorException5cloneEv
libPocoDataSQLite.so.94:_ZNK4Poco4Data6SQLite24InternalDBErrorException7rethrowEv
libPocoDataSQLite.so.94:_ZNK4Poco4Data6SQLite24InternalDBErrorException9classNameEv
libPocoDataSQLite.so.94:_ZNK4Poco4Data6SQLite25DataTypeMismatchException4nameEv
libPocoDataSQLite.so.94:_ZNK4Poco4Data6SQLite25DataTypeMismatchException5cloneEv
libPocoDataSQLite.so.94:_ZNK4Poco4Data6SQLite25DataTypeMismatchException7rethrowEv
libPocoDataSQLite.so.94:_ZNK4Poco4Data6SQLite25DataTypeMismatchException9classNameEv
libPocoDataSQLite.so.94:_ZNK4Poco4Data6SQLite25ExecutionAbortedException4nameEv
libPocoDataSQLite.so.94:_ZNK4Poco4Data6SQLite25ExecutionAbortedException5cloneEv
libPocoDataSQLite.so.94:_ZNK4Poco4Data6SQLite25ExecutionAbortedException7rethrowEv
libPocoDataSQLite.so.94:_ZNK4Poco4Data6SQLite25ExecutionAbortedException9classNameEv
libPocoDataSQLite.so.94:_ZNK4Poco4Data6SQLite26InvalidLibraryUseException4nameEv
libPocoDataSQLite.so.94:_ZNK4Poco4Data6SQLite26InvalidLibraryUseException5cloneEv
libPocoDataSQLite.so.94:_ZNK4Poco4Data6SQLite26InvalidLibraryUseException7rethrowEv
libPocoDataSQLite.so.94:_ZNK4Poco4Data6SQLite26InvalidLibraryUseException9classNameEv
libPocoDataSQLite.so.94:_ZNK4Poco4Data6SQLite26OSFeaturesMissingException4nameEv
libPocoDataSQLite.so.94:_ZNK4Poco4Data6SQLite26OSFeaturesMissingException5cloneEv
libPocoDataSQLite.so.94:_ZNK4Poco4Data6SQLite26OSFeaturesMissingException7rethrowEv
libPocoDataSQLite.so.94:_ZNK4Poco4Data6SQLite26OSFeaturesMissingException9classNameEv
libPocoDataSQLite.so.94:_ZNK4Poco4Data6SQLite28AuthorizationDeniedException4nameEv
libPocoDataSQLite.so.94:_ZNK4Poco4Data6SQLite28AuthorizationDeniedException5cloneEv
libPocoDataSQLite.so.94:_ZNK4Poco4Data6SQLite28AuthorizationDeniedException7rethrowEv
libPocoDataSQLite.so.94:_ZNK4Poco4Data6SQLite28AuthorizationDeniedException9classNameEv
libPocoDataSQLite.so.94:_ZNK4Poco4Data6SQLite28ConstraintViolationException4nameEv
libPocoDataSQLite.so.94:_ZNK4Poco4Data6SQLite28ConstraintViolationException5cloneEv
libPocoDataSQLite.so.94:_ZNK4Poco4Data6SQLite28ConstraintViolationException7rethrowEv
libPocoDataSQLite.so.94:_ZNK4Poco4Data6SQLite28ConstraintViolationException9classNameEv
libPocoDataSQLite.so.94:_ZNK4Poco4Data6SQLite28InvalidSQLStatementException4nameEv
libPocoDataSQLite.so.94:_ZNK4Poco4Data6SQLite28InvalidSQLStatementException5cloneEv
libPocoDataSQLite.so.94:_ZNK4Poco4Data6SQLite28InvalidSQLStatementException7rethrowEv
libPocoDataSQLite.so.94:_ZNK4Poco4Data6SQLite28InvalidSQLStatementException9classNameEv
libPocoDataSQLite.so.94:_ZNK4Poco4Data6SQLite31ParameterCountMismatchException4nameEv
libPocoDataSQLite.so.94:_ZNK4Poco4Data6SQLite31ParameterCountMismatchException5cloneEv
libPocoDataSQLite.so.94:_ZNK4Poco4Data6SQLite31ParameterCountMismatchException7rethrowEv
libPocoDataSQLite.so.94:_ZNK4Poco4Data6SQLite31ParameterCountMismatchException9classNameEv
libPocoDataSQLite.so.94:_ZNK4Poco4Data6SQLite8Notifier13commitEnabledEv
libPocoDataSQLite.so.94:_ZNK4Poco4Data6SQLite8Notifier13updateEnabledEv
libPocoDataSQLite.so.94:_ZNK4Poco4Data6SQLite8Notifier15rollbackEnabledEv
libPocoEncodings.so.94:_ZN4Poco16MacRomanEncoding13_mappingTableE
libPocoEncodings.so.94:_ZN4Poco16MacRomanEncoding20_reverseMappingTableE
libPocoEncodings.so.94:_ZN4Poco16MacRomanEncoding6_namesE
libPocoEncodings.so.94:_ZN4Poco16MacRomanEncoding8_charMapE
libPocoEncodings.so.94:_ZN4Poco16MacRomanEncodingC1Ev
libPocoEncodings.so.94:_ZN4Poco16MacRomanEncodingC2Ev
libPocoEncodings.so.94:_ZN4Poco16MacRomanEncodingD0Ev
libPocoEncodings.so.94:_ZN4Poco16MacRomanEncodingD1Ev
libPocoEncodings.so.94:_ZN4Poco16MacRomanEncodingD2Ev
libPocoEncodings.so.94:_ZN4Poco17ISO8859_3Encoding13_mappingTableE
libPocoEncodings.so.94:_ZN4Poco17ISO8859_3Encoding20_reverseMappingTableE
libPocoEncodings.so.94:_ZN4Poco17ISO8859_3Encoding6_namesE
libPocoEncodings.so.94:_ZN4Poco17ISO8859_3Encoding8_charMapE
libPocoEncodings.so.94:_ZN4Poco17ISO8859_3EncodingC1Ev
libPocoEncodings.so.94:_ZN4Poco17ISO8859_3EncodingC2Ev
libPocoEncodings.so.94:_ZN4Poco17ISO8859_3EncodingD0Ev
libPocoEncodings.so.94:_ZN4Poco17ISO8859_3EncodingD1Ev
libPocoEncodings.so.94:_ZN4Poco17ISO8859_3EncodingD2Ev
libPocoEncodings.so.94:_ZN4Poco17ISO8859_4Encoding13_mappingTableE
libPocoEncodings.so.94:_ZN4Poco17ISO8859_4Encoding20_reverseMappingTableE
libPocoEncodings.so.94:_ZN4Poco17ISO8859_4Encoding6_namesE
libPocoEncodings.so.94:_ZN4Poco17ISO8859_4Encoding8_charMapE
libPocoEncodings.so.94:_ZN4Poco17ISO8859_4EncodingC1Ev
libPocoEncodings.so.94:_ZN4Poco17ISO8859_4EncodingC2Ev
libPocoEncodings.so.94:_ZN4Poco17ISO8859_4EncodingD0Ev
libPocoEncodings.so.94:_ZN4Poco17ISO8859_4EncodingD1Ev
libPocoEncodings.so.94:_ZN4Poco17ISO8859_4EncodingD2Ev
libPocoEncodings.so.94:_ZN4Poco17ISO8859_5Encoding13_mappingTableE
libPocoEncodings.so.94:_ZN4Poco17ISO8859_5Encoding20_reverseMappingTableE
libPocoEncodings.so.94:_ZN4Poco17ISO8859_5Encoding6_namesE
libPocoEncodings.so.94:_ZN4Poco17ISO8859_5Encoding8_charMapE
libPocoEncodings.so.94:_ZN4Poco17ISO8859_5EncodingC1Ev
libPocoEncodings.so.94:_ZN4Poco17ISO8859_5EncodingC2Ev
libPocoEncodings.so.94:_ZN4Poco17ISO8859_5EncodingD0Ev
libPocoEncodings.so.94:_ZN4Poco17ISO8859_5EncodingD1Ev
libPocoEncodings.so.94:_ZN4Poco17ISO8859_5EncodingD2Ev
libPocoEncodings.so.94:_ZN4Poco17ISO8859_6Encoding13_mappingTableE
libPocoEncodings.so.94:_ZN4Poco17ISO8859_6Encoding20_reverseMappingTableE
libPocoEncodings.so.94:_ZN4Poco17ISO8859_6Encoding6_namesE
libPocoEncodings.so.94:_ZN4Poco17ISO8859_6Encoding8_charMapE
libPocoEncodings.so.94:_ZN4Poco17ISO8859_6EncodingC1Ev
libPocoEncodings.so.94:_ZN4Poco17ISO8859_6EncodingC2Ev
libPocoEncodings.so.94:_ZN4Poco17ISO8859_6EncodingD0Ev
libPocoEncodings.so.94:_ZN4Poco17ISO8859_6EncodingD1Ev
libPocoEncodings.so.94:_ZN4Poco17ISO8859_6EncodingD2Ev
libPocoEncodings.so.94:_ZN4Poco17ISO8859_7Encoding13_mappingTableE
libPocoEncodings.so.94:_ZN4Poco17ISO8859_7Encoding20_reverseMappingTableE
libPocoEncodings.so.94:_ZN4Poco17ISO8859_7Encoding6_namesE
libPocoEncodings.so.94:_ZN4Poco17ISO8859_7Encoding8_charMapE
libPocoEncodings.so.94:_ZN4Poco17ISO8859_7EncodingC1Ev
libPocoEncodings.so.94:_ZN4Poco17ISO8859_7EncodingC2Ev
libPocoEncodings.so.94:_ZN4Poco17ISO8859_7EncodingD0Ev
libPocoEncodings.so.94:_ZN4Poco17ISO8859_7EncodingD1Ev
libPocoEncodings.so.94:_ZN4Poco17ISO8859_7EncodingD2Ev
libPocoEncodings.so.94:_ZN4Poco17ISO8859_8Encoding13_mappingTableE
libPocoEncodings.so.94:_ZN4Poco17ISO8859_8Encoding20_reverseMappingTableE
libPocoEncodings.so.94:_ZN4Poco17ISO8859_8Encoding6_namesE
libPocoEncodings.so.94:_ZN4Poco17ISO8859_8Encoding8_charMapE
libPocoEncodings.so.94:_ZN4Poco17ISO8859_8EncodingC1Ev
libPocoEncodings.so.94:_ZN4Poco17ISO8859_8EncodingC2Ev
libPocoEncodings.so.94:_ZN4Poco17ISO8859_8EncodingD0Ev
libPocoEncodings.so.94:_ZN4Poco17ISO8859_8EncodingD1Ev
libPocoEncodings.so.94:_ZN4Poco17ISO8859_8EncodingD2Ev
libPocoEncodings.so.94:_ZN4Poco17ISO8859_9Encoding13_mappingTableE
libPocoEncodings.so.94:_ZN4Poco17ISO8859_9Encoding20_reverseMappingTableE
libPocoEncodings.so.94:_ZN4Poco17ISO8859_9Encoding6_namesE
libPocoEncodings.so.94:_ZN4Poco17ISO8859_9Encoding8_charMapE
libPocoEncodings.so.94:_ZN4Poco17ISO8859_9EncodingC1Ev
libPocoEncodings.so.94:_ZN4Poco17ISO8859_9EncodingC2Ev
libPocoEncodings.so.94:_ZN4Poco17ISO8859_9EncodingD0Ev
libPocoEncodings.so.94:_ZN4Poco17ISO8859_9EncodingD1Ev
libPocoEncodings.so.94:_ZN4Poco17ISO8859_9EncodingD2Ev
libPocoEncodings.so.94:_ZN4Poco17MacKoreanEncoding13_mappingTableE
libPocoEncodings.so.94:_ZN4Poco17MacKoreanEncoding20_reverseMappingTableE
libPocoEncodings.so.94:_ZN4Poco17MacKoreanEncoding6_namesE
libPocoEncodings.so.94:_ZN4Poco17MacKoreanEncoding8_charMapE
libPocoEncodings.so.94:_ZN4Poco17MacKoreanEncodingC1Ev
libPocoEncodings.so.94:_ZN4Poco17MacKoreanEncodingC2Ev
libPocoEncodings.so.94:_ZN4Poco17MacKoreanEncodingD0Ev
libPocoEncodings.so.94:_ZN4Poco17MacKoreanEncodingD1Ev
libPocoEncodings.so.94:_ZN4Poco17MacKoreanEncodingD2Ev
libPocoEncodings.so.94:_ZN4Poco18DoubleByteEncodingC1EPPKcRA256_KiPKNS0_7MappingEmS9_m
libPocoEncodings.so.94:_ZN4Poco18DoubleByteEncodingC2EPPKcRA256_KiPKNS0_7MappingEmS9_m
libPocoEncodings.so.94:_ZN4Poco18DoubleByteEncodingD0Ev
libPocoEncodings.so.94:_ZN4Poco18DoubleByteEncodingD1Ev
libPocoEncodings.so.94:_ZN4Poco18DoubleByteEncodingD2Ev
libPocoEncodings.so.94:_ZN4Poco18ISO8859_10Encoding13_mappingTableE
libPocoEncodings.so.94:_ZN4Poco18ISO8859_10Encoding20_reverseMappingTableE
libPocoEncodings.so.94:_ZN4Poco18ISO8859_10Encoding6_namesE
libPocoEncodings.so.94:_ZN4Poco18ISO8859_10Encoding8_charMapE
libPocoEncodings.so.94:_ZN4Poco18ISO8859_10EncodingC1Ev
libPocoEncodings.so.94:_ZN4Poco18ISO8859_10EncodingC2Ev
libPocoEncodings.so.94:_ZN4Poco18ISO8859_10EncodingD0Ev
libPocoEncodings.so.94:_ZN4Poco18ISO8859_10EncodingD1Ev
libPocoEncodings.so.94:_ZN4Poco18ISO8859_10EncodingD2Ev
libPocoEncodings.so.94:_ZN4Poco18ISO8859_11Encoding13_mappingTableE
libPocoEncodings.so.94:_ZN4Poco18ISO8859_11Encoding20_reverseMappingTableE
libPocoEncodings.so.94:_ZN4Poco18ISO8859_11Encoding6_namesE
libPocoEncodings.so.94:_ZN4Poco18ISO8859_11Encoding8_charMapE
libPocoEncodings.so.94:_ZN4Poco18ISO8859_11EncodingC1Ev
libPocoEncodings.so.94:_ZN4Poco18ISO8859_11EncodingC2Ev
libPocoEncodings.so.94:_ZN4Poco18ISO8859_11EncodingD0Ev
libPocoEncodings.so.94:_ZN4Poco18ISO8859_11EncodingD1Ev
libPocoEncodings.so.94:_ZN4Poco18ISO8859_11EncodingD2Ev
libPocoEncodings.so.94:_ZN4Poco18ISO8859_13Encoding13_mappingTableE
libPocoEncodings.so.94:_ZN4Poco18ISO8859_13Encoding20_reverseMappingTableE
libPocoEncodings.so.94:_ZN4Poco18ISO8859_13Encoding6_namesE
libPocoEncodings.so.94:_ZN4Poco18ISO8859_13Encoding8_charMapE
libPocoEncodings.so.94:_ZN4Poco18ISO8859_13EncodingC1Ev
libPocoEncodings.so.94:_ZN4Poco18ISO8859_13EncodingC2Ev
libPocoEncodings.so.94:_ZN4Poco18ISO8859_13EncodingD0Ev
libPocoEncodings.so.94:_ZN4Poco18ISO8859_13EncodingD1Ev
libPocoEncodings.so.94:_ZN4Poco18ISO8859_13EncodingD2Ev
libPocoEncodings.so.94:_ZN4Poco18ISO8859_14Encoding13_mappingTableE
libPocoEncodings.so.94:_ZN4Poco18ISO8859_14Encoding20_reverseMappingTableE
libPocoEncodings.so.94:_ZN4Poco18ISO8859_14Encoding6_namesE
libPocoEncodings.so.94:_ZN4Poco18ISO8859_14Encoding8_charMapE
libPocoEncodings.so.94:_ZN4Poco18ISO8859_14EncodingC1Ev
libPocoEncodings.so.94:_ZN4Poco18ISO8859_14EncodingC2Ev
libPocoEncodings.so.94:_ZN4Poco18ISO8859_14EncodingD0Ev
libPocoEncodings.so.94:_ZN4Poco18ISO8859_14EncodingD1Ev
libPocoEncodings.so.94:_ZN4Poco18ISO8859_14EncodingD2Ev
libPocoEncodings.so.94:_ZN4Poco18ISO8859_16Encoding13_mappingTableE
libPocoEncodings.so.94:_ZN4Poco18ISO8859_16Encoding20_reverseMappingTableE
libPocoEncodings.so.94:_ZN4Poco18ISO8859_16Encoding6_namesE
libPocoEncodings.so.94:_ZN4Poco18ISO8859_16Encoding8_charMapE
libPocoEncodings.so.94:_ZN4Poco18ISO8859_16EncodingC1Ev
libPocoEncodings.so.94:_ZN4Poco18ISO8859_16EncodingC2Ev
libPocoEncodings.so.94:_ZN4Poco18ISO8859_16EncodingD0Ev
libPocoEncodings.so.94:_ZN4Poco18ISO8859_16EncodingD1Ev
libPocoEncodings.so.94:_ZN4Poco18ISO8859_16EncodingD2Ev
libPocoEncodings.so.94:_ZN4Poco18Windows874Encoding13_mappingTableE
libPocoEncodings.so.94:_ZN4Poco18Windows874Encoding20_reverseMappingTableE
libPocoEncodings.so.94:_ZN4Poco18Windows874Encoding6_namesE
libPocoEncodings.so.94:_ZN4Poco18Windows874Encoding8_charMapE
libPocoEncodings.so.94:_ZN4Poco18Windows874EncodingC1Ev
libPocoEncodings.so.94:_ZN4Poco18Windows874EncodingC2Ev
libPocoEncodings.so.94:_ZN4Poco18Windows874EncodingD0Ev
libPocoEncodings.so.94:_ZN4Poco18Windows874EncodingD1Ev
libPocoEncodings.so.94:_ZN4Poco18Windows874EncodingD2Ev
libPocoEncodings.so.94:_ZN4Poco18Windows932Encoding13_mappingTableE
libPocoEncodings.so.94:_ZN4Poco18Windows932Encoding20_reverseMappingTableE
libPocoEncodings.so.94:_ZN4Poco18Windows932Encoding6_namesE
libPocoEncodings.so.94:_ZN4Poco18Windows932Encoding8_charMapE
libPocoEncodings.so.94:_ZN4Poco18Windows932EncodingC1Ev
libPocoEncodings.so.94:_ZN4Poco18Windows932EncodingC2Ev
libPocoEncodings.so.94:_ZN4Poco18Windows932EncodingD0Ev
libPocoEncodings.so.94:_ZN4Poco18Windows932EncodingD1Ev
libPocoEncodings.so.94:_ZN4Poco18Windows932EncodingD2Ev
libPocoEncodings.so.94:_ZN4Poco18Windows936Encoding13_mappingTableE
libPocoEncodings.so.94:_ZN4Poco18Windows936Encoding20_reverseMappingTableE
libPocoEncodings.so.94:_ZN4Poco18Windows936Encoding6_namesE
libPocoEncodings.so.94:_ZN4Poco18Windows936Encoding8_charMapE
libPocoEncodings.so.94:_ZN4Poco18Windows936EncodingC1Ev
libPocoEncodings.so.94:_ZN4Poco18Windows936EncodingC2Ev
libPocoEncodings.so.94:_ZN4Poco18Windows936EncodingD0Ev
libPocoEncodings.so.94:_ZN4Poco18Windows936EncodingD1Ev
libPocoEncodings.so.94:_ZN4Poco18Windows936EncodingD2Ev
libPocoEncodings.so.94:_ZN4Poco18Windows949Encoding13_mappingTableE
libPocoEncodings.so.94:_ZN4Poco18Windows949Encoding20_reverseMappingTableE
libPocoEncodings.so.94:_ZN4Poco18Windows949Encoding6_namesE
libPocoEncodings.so.94:_ZN4Poco18Windows949Encoding8_charMapE
libPocoEncodings.so.94:_ZN4Poco18Windows949EncodingC1Ev
libPocoEncodings.so.94:_ZN4Poco18Windows949EncodingC2Ev
libPocoEncodings.so.94:_ZN4Poco18Windows949EncodingD0Ev
libPocoEncodings.so.94:_ZN4Poco18Windows949EncodingD1Ev
libPocoEncodings.so.94:_ZN4Poco18Windows949EncodingD2Ev
libPocoEncodings.so.94:_ZN4Poco18Windows950Encoding13_mappingTableE
libPocoEncodings.so.94:_ZN4Poco18Windows950Encoding20_reverseMappingTableE
libPocoEncodings.so.94:_ZN4Poco18Windows950Encoding6_namesE
libPocoEncodings.so.94:_ZN4Poco18Windows950Encoding8_charMapE
libPocoEncodings.so.94:_ZN4Poco18Windows950EncodingC1Ev
libPocoEncodings.so.94:_ZN4Poco18Windows950EncodingC2Ev
libPocoEncodings.so.94:_ZN4Poco18Windows950EncodingD0Ev
libPocoEncodings.so.94:_ZN4Poco18Windows950EncodingD1Ev
libPocoEncodings.so.94:_ZN4Poco18Windows950EncodingD2Ev
libPocoEncodings.so.94:_ZN4Poco19MacCyrillicEncoding13_mappingTableE
libPocoEncodings.so.94:_ZN4Poco19MacCyrillicEncoding20_reverseMappingTableE
libPocoEncodings.so.94:_ZN4Poco19MacCyrillicEncoding6_namesE
libPocoEncodings.so.94:_ZN4Poco19MacCyrillicEncoding8_charMapE
libPocoEncodings.so.94:_ZN4Poco19MacCyrillicEncodingC1Ev
libPocoEncodings.so.94:_ZN4Poco19MacCyrillicEncodingC2Ev
libPocoEncodings.so.94:_ZN4Poco19MacCyrillicEncodingD0Ev
libPocoEncodings.so.94:_ZN4Poco19MacCyrillicEncodingD1Ev
libPocoEncodings.so.94:_ZN4Poco19MacCyrillicEncodingD2Ev
libPocoEncodings.so.94:_ZN4Poco19MacJapaneseEncoding13_mappingTableE
libPocoEncodings.so.94:_ZN4Poco19MacJapaneseEncoding20_reverseMappingTableE
libPocoEncodings.so.94:_ZN4Poco19MacJapaneseEncoding6_namesE
libPocoEncodings.so.94:_ZN4Poco19MacJapaneseEncoding8_charMapE
libPocoEncodings.so.94:_ZN4Poco19MacJapaneseEncodingC1Ev
libPocoEncodings.so.94:_ZN4Poco19MacJapaneseEncodingC2Ev
libPocoEncodings.so.94:_ZN4Poco19MacJapaneseEncodingD0Ev
libPocoEncodings.so.94:_ZN4Poco19MacJapaneseEncodingD1Ev
libPocoEncodings.so.94:_ZN4Poco19MacJapaneseEncodingD2Ev
libPocoEncodings.so.94:_ZN4Poco19Windows1253Encoding13_mappingTableE
libPocoEncodings.so.94:_ZN4Poco19Windows1253Encoding20_reverseMappingTableE
libPocoEncodings.so.94:_ZN4Poco19Windows1253Encoding6_namesE
libPocoEncodings.so.94:_ZN4Poco19Windows1253Encoding8_charMapE
libPocoEncodings.so.94:_ZN4Poco19Windows1253EncodingC1Ev
libPocoEncodings.so.94:_ZN4Poco19Windows1253EncodingC2Ev
libPocoEncodings.so.94:_ZN4Poco19Windows1253EncodingD0Ev
libPocoEncodings.so.94:_ZN4Poco19Windows1253EncodingD1Ev
libPocoEncodings.so.94:_ZN4Poco19Windows1253EncodingD2Ev
libPocoEncodings.so.94:_ZN4Poco19Windows1254Encoding13_mappingTableE
libPocoEncodings.so.94:_ZN4Poco19Windows1254Encoding20_reverseMappingTableE
libPocoEncodings.so.94:_ZN4Poco19Windows1254Encoding6_namesE
libPocoEncodings.so.94:_ZN4Poco19Windows1254Encoding8_charMapE
libPocoEncodings.so.94:_ZN4Poco19Windows1254EncodingC1Ev
libPocoEncodings.so.94:_ZN4Poco19Windows1254EncodingC2Ev
libPocoEncodings.so.94:_ZN4Poco19Windows1254EncodingD0Ev
libPocoEncodings.so.94:_ZN4Poco19Windows1254EncodingD1Ev
libPocoEncodings.so.94:_ZN4Poco19Windows1254EncodingD2Ev
libPocoEncodings.so.94:_ZN4Poco19Windows1255Encoding13_mappingTableE
libPocoEncodings.so.94:_ZN4Poco19Windows1255Encoding20_reverseMappingTableE
libPocoEncodings.so.94:_ZN4Poco19Windows1255Encoding6_namesE
libPocoEncodings.so.94:_ZN4Poco19Windows1255Encoding8_charMapE
libPocoEncodings.so.94:_ZN4Poco19Windows1255EncodingC1Ev
libPocoEncodings.so.94:_ZN4Poco19Windows1255EncodingC2Ev
libPocoEncodings.so.94:_ZN4Poco19Windows1255EncodingD0Ev
libPocoEncodings.so.94:_ZN4Poco19Windows1255EncodingD1Ev
libPocoEncodings.so.94:_ZN4Poco19Windows1255EncodingD2Ev
libPocoEncodings.so.94:_ZN4Poco19Windows1256Encoding13_mappingTableE
libPocoEncodings.so.94:_ZN4Poco19Windows1256Encoding20_reverseMappingTableE
libPocoEncodings.so.94:_ZN4Poco19Windows1256Encoding6_namesE
libPocoEncodings.so.94:_ZN4Poco19Windows1256Encoding8_charMapE
libPocoEncodings.so.94:_ZN4Poco19Windows1256EncodingC1Ev
libPocoEncodings.so.94:_ZN4Poco19Windows1256EncodingC2Ev
libPocoEncodings.so.94:_ZN4Poco19Windows1256EncodingD0Ev
libPocoEncodings.so.94:_ZN4Poco19Windows1256EncodingD1Ev
libPocoEncodings.so.94:_ZN4Poco19Windows1256EncodingD2Ev
libPocoEncodings.so.94:_ZN4Poco19Windows1257Encoding13_mappingTableE
libPocoEncodings.so.94:_ZN4Poco19Windows1257Encoding20_reverseMappingTableE
libPocoEncodings.so.94:_ZN4Poco19Windows1257Encoding6_namesE
libPocoEncodings.so.94:_ZN4Poco19Windows1257Encoding8_charMapE
libPocoEncodings.so.94:_ZN4Poco19Windows1257EncodingC1Ev
libPocoEncodings.so.94:_ZN4Poco19Windows1257EncodingC2Ev
libPocoEncodings.so.94:_ZN4Poco19Windows1257EncodingD0Ev
libPocoEncodings.so.94:_ZN4Poco19Windows1257EncodingD1Ev
libPocoEncodings.so.94:_ZN4Poco19Windows1257EncodingD2Ev
libPocoEncodings.so.94:_ZN4Poco19Windows1258Encoding13_mappingTableE
libPocoEncodings.so.94:_ZN4Poco19Windows1258Encoding20_reverseMappingTableE
libPocoEncodings.so.94:_ZN4Poco19Windows1258Encoding6_namesE
libPocoEncodings.so.94:_ZN4Poco19Windows1258Encoding8_charMapE
libPocoEncodings.so.94:_ZN4Poco19Windows1258EncodingC1Ev
libPocoEncodings.so.94:_ZN4Poco19Windows1258EncodingC2Ev
libPocoEncodings.so.94:_ZN4Poco19Windows1258EncodingD0Ev
libPocoEncodings.so.94:_ZN4Poco19Windows1258EncodingD1Ev
libPocoEncodings.so.94:_ZN4Poco19Windows1258EncodingD2Ev
libPocoEncodings.so.94:_ZN4Poco22MacChineseSimpEncoding13_mappingTableE
libPocoEncodings.so.94:_ZN4Poco22MacChineseSimpEncoding20_reverseMappingTableE
libPocoEncodings.so.94:_ZN4Poco22MacChineseSimpEncoding6_namesE
libPocoEncodings.so.94:_ZN4Poco22MacChineseSimpEncoding8_charMapE
libPocoEncodings.so.94:_ZN4Poco22MacChineseSimpEncodingC1Ev
libPocoEncodings.so.94:_ZN4Poco22MacChineseSimpEncodingC2Ev
libPocoEncodings.so.94:_ZN4Poco22MacChineseSimpEncodingD0Ev
libPocoEncodings.so.94:_ZN4Poco22MacChineseSimpEncodingD1Ev
libPocoEncodings.so.94:_ZN4Poco22MacChineseSimpEncodingD2Ev
libPocoEncodings.so.94:_ZN4Poco22MacChineseTradEncoding13_mappingTableE
libPocoEncodings.so.94:_ZN4Poco22MacChineseTradEncoding20_reverseMappingTableE
libPocoEncodings.so.94:_ZN4Poco22MacChineseTradEncoding6_namesE
libPocoEncodings.so.94:_ZN4Poco22MacChineseTradEncoding8_charMapE
libPocoEncodings.so.94:_ZN4Poco22MacChineseTradEncodingC1Ev
libPocoEncodings.so.94:_ZN4Poco22MacChineseTradEncodingC2Ev
libPocoEncodings.so.94:_ZN4Poco22MacChineseTradEncodingD0Ev
libPocoEncodings.so.94:_ZN4Poco22MacChineseTradEncodingD1Ev
libPocoEncodings.so.94:_ZN4Poco22MacChineseTradEncodingD2Ev
libPocoEncodings.so.94:_ZN4Poco22registerExtraEncodingsEv
libPocoEncodings.so.94:_ZN4Poco26MacCentralEurRomanEncoding13_mappingTableE
libPocoEncodings.so.94:_ZN4Poco26MacCentralEurRomanEncoding20_reverseMappingTableE
libPocoEncodings.so.94:_ZN4Poco26MacCentralEurRomanEncoding6_namesE
libPocoEncodings.so.94:_ZN4Poco26MacCentralEurRomanEncoding8_charMapE
libPocoEncodings.so.94:_ZN4Poco26MacCentralEurRomanEncodingC1Ev
libPocoEncodings.so.94:_ZN4Poco26MacCentralEurRomanEncodingC2Ev
libPocoEncodings.so.94:_ZN4Poco26MacCentralEurRomanEncodingD0Ev
libPocoEncodings.so.94:_ZN4Poco26MacCentralEurRomanEncodingD1Ev
libPocoEncodings.so.94:_ZN4Poco26MacCentralEurRomanEncodingD2Ev
libPocoEncodings.so.94:_ZNK4Poco18DoubleByteEncoding10reverseMapEi
libPocoEncodings.so.94:_ZNK4Poco18DoubleByteEncoding12characterMapEv
libPocoEncodings.so.94:_ZNK4Poco18DoubleByteEncoding12queryConvertEPKhi
libPocoEncodings.so.94:_ZNK4Poco18DoubleByteEncoding13canonicalNameEv
libPocoEncodings.so.94:_ZNK4Poco18DoubleByteEncoding14sequenceLengthEPKhi
libPocoEncodings.so.94:_ZNK4Poco18DoubleByteEncoding3isAERKNSt7__cxx1112basic_stringIcSt11char_traitsIcESaIcEEE
libPocoEncodings.so.94:_ZNK4Poco18DoubleByteEncoding3mapEt
libPocoEncodings.so.94:_ZNK4Poco18DoubleByteEncoding7convertEPKh
libPocoEncodings.so.94:_ZNK4Poco18DoubleByteEncoding7convertEiPhi
libPocoFoundation.so.94:_ZN22poco_double_conversion10BignumDtoaEdNS_14BignumDtoaModeEiNS_6VectorIcEEPiS3_
libPocoFoundation.so.94:_ZN22poco_double_conversion13FastFixedDtoaEdiNS_6VectorIcEEPiS2_
libPocoFoundation.so.94:_ZN22poco_double_conversion13StrtodTrimmedENS_6VectorIKcEEi
libPocoFoundation.so.94:_ZN22poco_double_conversion13StrtofTrimmedENS_6VectorIKcEEi
libPocoFoundation.so.94:_ZN22poco_double_conversion16PowersOfTenCache32GetCachedPowerForDecimalExponentEiPNS_5DiyFpEPi
libPocoFoundation.so.94:_ZN22poco_double_conversion16PowersOfTenCache36GetCachedPowerForBinaryExponentRangeEiiPNS_5DiyFpEPi
libPocoFoundation.so.94:_ZN22poco_double_conversion23DoubleToStringConverter13DoubleToAsciiEdNS0_8DtoaModeEiPciPbPiS4_
libPocoFoundation.so.94:_ZN22poco_double_conversion23DoubleToStringConverter19EcmaScriptConverterEv
libPocoFoundation.so.94:_ZN22poco_double_conversion6Bignum11PlusCompareERKS0_S2_S2_
libPocoFoundation.so.94:_ZN22poco_double_conversion6Bignum12AssignBignumERKS0_
libPocoFoundation.so.94:_ZN22poco_double_conversion6Bignum12AssignUInt16Et
libPocoFoundation.so.94:_ZN22poco_double_conversion6Bignum12AssignUInt64Em
libPocoFoundation.so.94:_ZN22poco_double_conversion6Bignum13SubtractTimesERKS0_i
libPocoFoundation.so.94:_ZN22poco_double_conversion6Bignum14SubtractBignumERKS0_
libPocoFoundation.so.94:_ZN22poco_double_conversion6Bignum15AssignHexStringENS_6VectorIKcEE
libPocoFoundation.so.94:_ZN22poco_double_conversion6Bignum15BigitsShiftLeftEi
libPocoFoundation.so.94:_ZN22poco_double_conversion6Bignum16MultiplyByUInt32Ej
libPocoFoundation.so.94:_ZN22poco_double_conversion6Bignum16MultiplyByUInt64Em
libPocoFoundation.so.94:_ZN22poco_double_conversion6Bignum17AssignPowerUInt16Eti
libPocoFoundation.so.94:_ZN22poco_double_conversion6Bignum19AssignDecimalStringENS_6VectorIKcEE
libPocoFoundation.so.94:_ZN22poco_double_conversion6Bignum20MultiplyByPowerOfTenEi
libPocoFoundation.so.94:_ZN22poco_double_conversion6Bignum21DivideModuloIntBignumERKS0_
libPocoFoundation.so.94:_ZN22poco_double_conversion6Bignum5AlignERKS0_
libPocoFoundation.so.94:_ZN22poco_double_conversion6Bignum5ClampEv
libPocoFoundation.so.94:_ZN22poco_double_conversion6Bignum6SquareEv
libPocoFoundation.so.94:_ZN22poco_double_conversion6Bignum7CompareERKS0_S2_
libPocoFoundation.so.94:_ZN22poco_double_conversion6Bignum8RawBigitEi
libPocoFoundation.so.94:_ZN22poco_double_conversion6Bignum9AddBignumERKS0_
libPocoFoundation.so.94:_ZN22poco_double_conversion6Bignum9AddUInt64Em
libPocoFoundation.so.94:_ZN22poco_double_conversion6Bignum9ShiftLeftEi
libPocoFoundation.so.94:_ZN22poco_double_conversion6StrtodENS_6VectorIKcEEi
libPocoFoundation.so.94:_ZN22poco_double_conversion6StrtofENS_6VectorIKcEEi
libPocoFoundation.so.94:_ZN22poco_double_conversion8FastDtoaEdNS_12FastDtoaModeEiNS_6VectorIcEEPiS3_
libPocoFoundation.so.94:_ZN4Poco10FileStreamC1ERKNSt7__cxx1112basic_stringIcSt11char_traitsIcESaIcEEESt13_Ios_Openmode
libPocoFoundation.so.94:_ZN4Poco10FileStreamC1Ev
libPocoFoundation.so.94:_ZN4Poco10FileStreamC2ERKNSt7__cxx1112basic_stringIcSt11char_traitsIcESaIcEEESt13_Ios_Openmode
libPocoFoundation.so.94:_ZN4Poco10FileStreamC2Ev
libPocoFoundation.so.94:_ZN4Poco10FileStreamD0Ev
libPocoFoundation.so.94:_ZN4Poco10FileStreamD1Ev
libPocoFoundation.so.94:_ZN4Poco10FileStreamD2Ev
libPocoFoundation.so.94:_ZN4Poco10LineEnding10NEWLINE_CRB5cxx11E
libPocoFoundation.so.94:_ZN4Poco10LineEnding10NEWLINE_LFB5cxx11E
libPocoFoundation.so.94:_ZN4Poco10LineEnding12NEWLINE_CRLFB5cxx11E
libPocoFoundation.so.94:_ZN4Poco10LineEnding15NEWLINE_DEFAULTB5cxx11E
libPocoFoundation.so.94:_ZN4Poco10MemoryPool3getEv
libPocoFoundation.so.94:_ZN4Poco10MemoryPool5clearEv
libPocoFoundation.so.94:_ZN4Poco10MemoryPool7releaseEPv
libPocoFoundation.so.94:_ZN4Poco10MemoryPoolC1Emii
libPocoFoundation.so.94:_ZN4Poco10MemoryPoolC2Emii
libPocoFoundation.so.94:_ZN4Poco10MemoryPoolD1Ev
libPocoFoundation.so.94:_ZN4Poco10MemoryPoolD2Ev
libPocoFoundation.so.94:_ZN4Poco10NamedEventC1ERKNSt7__cxx1112basic_stringIcSt11char_traitsIcESaIcEEE
libPocoFoundation.so.94:_ZN4Poco10NamedEventC2ERKNSt7__cxx1112basic_stringIcSt11char_traitsIcESaIcEEE
libPocoFoundation.so.94:_ZN4Poco10NamedEventD1Ev
libPocoFoundation.so.94:_ZN4Poco10NamedEventD2Ev
libPocoFoundation.so.94:_ZN4Poco10NamedMutexC1ERKNSt7__cxx1112basic_stringIcSt11char_traitsIcESaIcEEE
libPocoFoundation.so.94:_ZN4Poco10NamedMutexC2ERKNSt7__cxx1112basic_stringIcSt11char_traitsIcESaIcEEE
libPocoFoundation.so.94:_ZN4Poco10NamedMutexD1Ev
libPocoFoundation.so.94:_ZN4Poco10NamedMutexD2Ev
libPocoFoundation.so.94:_ZN4Poco10RWLockImplC1Ev
libPocoFoundation.so.94:_ZN4Poco10RWLockImplC2Ev
libPocoFoundation.so.94:_ZN4Poco10RWLockImplD1Ev
libPocoFoundation.so.94:_ZN4Poco10RWLockImplD2Ev
libPocoFoundation.so.94:_ZN4Poco10SHA1Engine10updateImplEPKvm
libPocoFoundation.so.94:_ZN4Poco10SHA1Engine5resetEv
libPocoFoundation.so.94:_ZN4Poco10SHA1Engine6digestEv
libPocoFoundation.so.94:_ZN4Poco10SHA1Engine9transformEv
libPocoFoundation.so.94:_ZN4Poco10SHA1EngineC1Ev
libPocoFoundation.so.94:_ZN4Poco10SHA1EngineC2Ev
libPocoFoundation.so.94:_ZN4Poco10SHA1EngineD0Ev
libPocoFoundation.so.94:_ZN4Poco10SHA1EngineD1Ev
libPocoFoundation.so.94:_ZN4Poco10SHA1EngineD2Ev
libPocoFoundation.so.94:_ZN4Poco10SHA2Engine10updateImplEPKvm
libPocoFoundation.so.94:_ZN4Poco10SHA2Engine5resetEv
libPocoFoundation.so.94:_ZN4Poco10SHA2Engine6digestEv
libPocoFoundation.so.94:_ZN4Poco10SHA2EngineC1ENS0_9ALGORITHME
libPocoFoundation.so.94:_ZN4Poco10SHA2EngineC2ENS0_9ALGORITHME
libPocoFoundation.so.94:_ZN4Poco10SHA2EngineD0Ev
libPocoFoundation.so.94:_ZN4Poco10SHA2EngineD1Ev
libPocoFoundation.so.94:_ZN4Poco10SHA2EngineD2Ev
libPocoFoundation.so.94:_ZN4Poco10ThreadImpl11currentImplEv
libPocoFoundation.so.94:_ZN4Poco10ThreadImpl13runnableEntryEPv
libPocoFoundation.so.94:_ZN4Poco10ThreadImpl14currentTidImplEv
libPocoFoundation.so.94:_ZN4Poco10ThreadImpl14reverseMapPrioEii
libPocoFoundation.so.94:_ZN4Poco10ThreadImpl15setPriorityImplEi
libPocoFoundation.so.94:_ZN4Poco10ThreadImpl16currentOsTidImplEv
libPocoFoundation.so.94:_ZN4Poco10ThreadImpl16setStackSizeImplEi
libPocoFoundation.so.94:_ZN4Poco10ThreadImpl17setOSPriorityImplEii
libPocoFoundation.so.94:_ZN4Poco10ThreadImpl20_currentThreadHolderE
libPocoFoundation.so.94:_ZN4Poco10ThreadImpl20getMaxOSPriorityImplEi
libPocoFoundation.so.94:_ZN4Poco10ThreadImpl20getMinOSPriorityImplEi
libPocoFoundation.so.94:_ZN4Poco10ThreadImpl7mapPrioEii
libPocoFoundation.so.94:_ZN4Poco10ThreadImpl8joinImplEl
libPocoFoundation.so.94:_ZN4Poco10ThreadImpl8joinImplEv
libPocoFoundation.so.94:_ZN4Poco10ThreadImpl9sleepImplEl
libPocoFoundation.so.94:_ZN4Poco10ThreadImpl9startImplENS_9SharedPtrINS_8RunnableENS_16ReferenceCounterENS_13ReleasePolicyIS2_EEEE
libPocoFoundation.so.94:_ZN4Poco10ThreadImplC1Ev
libPocoFoundation.so.94:_ZN4Poco10ThreadImplC2Ev
libPocoFoundation.so.94:_ZN4Poco10ThreadImplD1Ev
libPocoFoundation.so.94:_ZN4Poco10ThreadImplD2Ev
libPocoFoundation.so.94:_ZN4Poco10ThreadPool11addCapacityEi
libPocoFoundation.so.94:_ZN4Poco10ThreadPool11defaultPoolEv
libPocoFoundation.so.94:_ZN4Poco10ThreadPool12createThreadEv
libPocoFoundation.so.94:_ZN4Poco10ThreadPool17startWithPriorityENS_6Thread8PriorityERNS_8RunnableE
libPocoFoundation.so.94:_ZN4Poco10ThreadPool17startWithPriorityENS_6Thread8PriorityERNS_8RunnableERKNSt7__cxx1112basic_stringIcSt11char_traitsIcESaIcEEE
libPocoFoundation.so.94:_ZN4Poco10ThreadPool5startERNS_8RunnableE
libPocoFoundation.so.94:_ZN4Poco10ThreadPool5startERNS_8RunnableERKNSt7__cxx1112basic_stringIcSt11char_traitsIcESaIcEEE
libPocoFoundation.so.94:_ZN4Poco10ThreadPool7collectEv
libPocoFoundation.so.94:_ZN4Poco10ThreadPool7joinAllEv
libPocoFoundation.so.94:_ZN4Poco10ThreadPool7stopAllEv
libPocoFoundation.so.94:_ZN4Poco10ThreadPool9getThreadEv
libPocoFoundation.so.94:_ZN4Poco10ThreadPool9housekeepEv
libPocoFoundation.so.94:_ZN4Poco10ThreadPoolC1ERKNSt7__cxx1112basic_stringIcSt11char_traitsIcESaIcEEEiiii
libPocoFoundation.so.94:_ZN4Poco10ThreadPoolC1Eiiii
libPocoFoundation.so.94:_ZN4Poco10ThreadPoolC2ERKNSt7__cxx1112basic_stringIcSt11char_traitsIcESaIcEEEiiii
libPocoFoundation.so.94:_ZN4Poco10ThreadPoolC2Eiiii
libPocoFoundation.so.94:_ZN4Poco10ThreadPoolD1Ev
libPocoFoundation.so.94:_ZN4Poco10ThreadPoolD2Ev
libPocoFoundation.so.94:_ZN4Poco10floatToStrEPcifii
libPocoFoundation.so.94:_ZN4Poco10floatToStrERNSt7__cxx1112basic_stringIcSt11char_traitsIcESaIcEEEfiicc
libPocoFoundation.so.94:_ZN4Poco10strToFloatEPKcS1_S1_
libPocoFoundation.so.94:_ZN4Poco10strToFloatERKNSt7__cxx1112basic_stringIcSt11char_traitsIcESaIcEEERfccPKcSA_
libPocoFoundation.so.94:_ZN4Poco11CountingIOS20setCurrentLineNumberEl
libPocoFoundation.so.94:_ZN4Poco11CountingIOS5rdbufEv
libPocoFoundation.so.94:_ZN4Poco11CountingIOS5resetEv
libPocoFoundation.so.94:_ZN4Poco11CountingIOS6addPosEl
libPocoFoundation.so.94:_ZN4Poco11CountingIOS8addCharsEl
libPocoFoundation.so.94:_ZN4Poco11CountingIOS8addLinesEl
libPocoFoundation.so.94:_ZN4Poco11CountingIOSC1ERSi
libPocoFoundation.so.94:_ZN4Poco11CountingIOSC1ERSo
libPocoFoundation.so.94:_ZN4Poco11CountingIOSC1Ev
libPocoFoundation.so.94:_ZN4Poco11CountingIOSC2ERSi
libPocoFoundation.so.94:_ZN4Poco11CountingIOSC2ERSo
libPocoFoundation.so.94:_ZN4Poco11CountingIOSC2Ev
libPocoFoundation.so.94:_ZN4Poco11CountingIOSD0Ev
libPocoFoundation.so.94:_ZN4Poco11CountingIOSD1Ev
libPocoFoundation.so.94:_ZN4Poco11CountingIOSD2Ev
libPocoFoundation.so.94:_ZN4Poco11Environment13osDisplayNameB5cxx11Ev
libPocoFoundation.so.94:_ZN4Poco11Environment14libraryVersionEv
libPocoFoundation.so.94:_ZN4Poco11Environment14osArchitectureB5cxx11Ev
libPocoFoundation.so.94:_ZN4Poco11Environment14processorCountEv
libPocoFoundation.so.94:_ZN4Poco11Environment2osEv
libPocoFoundation.so.94:_ZN4Poco11Environment3getERKNSt7__cxx1112basic_stringIcSt11char_traitsIcESaIcEEE
libPocoFoundation.so.94:_ZN4Poco11Environment3getERKNSt7__cxx1112basic_stringIcSt11char_traitsIcESaIcEEES8_
libPocoFoundation.so.94:_ZN4Poco11Environment3hasERKNSt7__cxx1112basic_stringIcSt11char_traitsIcESaIcEEE
libPocoFoundation.so.94:_ZN4Poco11Environment3setERKNSt7__cxx1112basic_stringIcSt11char_traitsIcESaIcEEES8_
libPocoFoundation.so.94:_ZN4Poco11Environment4archEv
libPocoFoundation.so.94:_ZN4Poco11Environment6isUnixEv
libPocoFoundation.so.94:_ZN4Poco11Environment6nodeIdB5cxx11Ev
libPocoFoundation.so.94:_ZN4Poco11Environment6nodeIdERA6_h
libPocoFoundation.so.94:_ZN4Poco11Environment6osNameB5cxx11Ev
libPocoFoundation.so.94:_ZN4Poco11Environment8nodeNameB5cxx11Ev
libPocoFoundation.so.94:_ZN4Poco11Environment9isWindowsEv
libPocoFoundation.so.94:_ZN4Poco11Environment9osVersionB5cxx11Ev
libPocoFoundation.so.94:_ZN4Poco11FileChannel10PROP_FLUSHB5cxx11E
libPocoFoundation.so.94:_ZN4Poco11FileChannel10PROP_TIMESB5cxx11E
libPocoFoundation.so.94:_ZN4Poco11FileChannel10setArchiveERKNSt7__cxx1112basic_stringIcSt11char_traitsIcESaIcEEE
libPocoFoundation.so.94:_ZN4Poco11FileChannel10setNoPurgeERKNSt7__cxx1112basic_stringIcSt11char_traitsIcESaIcEEE
libPocoFoundation.so.94:_ZN4Poco11FileChannel11setCompressERKNSt7__cxx1112basic_stringIcSt11char_traitsIcESaIcEEE
libPocoFoundation.so.94:_ZN4Poco11FileChannel11setPropertyERKNSt7__cxx1112basic_stringIcSt11char_traitsIcESaIcEEES8_
libPocoFoundation.so.94:_ZN4Poco11FileChannel11setPurgeAgeERKNSt7__cxx1112basic_stringIcSt11char_traitsIcESaIcEEE
libPocoFoundation.so.94:_ZN4Poco11FileChannel11setRotationERKNSt7__cxx1112basic_stringIcSt11char_traitsIcESaIcEEE
libPocoFoundation.so.94:_ZN4Poco11FileChannel12PROP_ARCHIVEB5cxx11E
libPocoFoundation.so.94:_ZN4Poco11FileChannel13PROP_COMPRESSB5cxx11E
libPocoFoundation.so.94:_ZN4Poco11FileChannel13PROP_PURGEAGEB5cxx11E
libPocoFoundation.so.94:_ZN4Poco11FileChannel13PROP_ROTATIONB5cxx11E
libPocoFoundation.so.94:_ZN4Poco11FileChannel13setPurgeCountERKNSt7__cxx1112basic_stringIcSt11char_traitsIcESaIcEEE
libPocoFoundation.so.94:_ZN4Poco11FileChannel15PROP_PURGECOUNTB5cxx11E
libPocoFoundation.so.94:_ZN4Poco11FileChannel15setRotateOnOpenERKNSt7__cxx1112basic_stringIcSt11char_traitsIcESaIcEEE
libPocoFoundation.so.94:_ZN4Poco11FileChannel16setPurgeStrategyEPNS_13PurgeStrategyE
libPocoFoundation.so.94:_ZN4Poco11FileChannel17PROP_ROTATEONOPENB5cxx11E
libPocoFoundation.so.94:_ZN4Poco11FileChannel3logERKNS_7MessageE
libPocoFoundation.so.94:_ZN4Poco11FileChannel4openEv
libPocoFoundation.so.94:_ZN4Poco11FileChannel5closeEv
libPocoFoundation.so.94:_ZN4Poco11FileChannel5purgeEv
libPocoFoundation.so.94:_ZN4Poco11FileChannel8setFlushERKNSt7__cxx1112basic_stringIcSt11char_traitsIcESaIcEEE
libPocoFoundation.so.94:_ZN4Poco11FileChannel9PROP_PATHB5cxx11E
libPocoFoundation.so.94:_ZN4Poco11FileChannelC1ERKNSt7__cxx1112basic_stringIcSt11char_traitsIcESaIcEEE
libPocoFoundation.so.94:_ZN4Poco11FileChannelC1Ev
libPocoFoundation.so.94:_ZN4Poco11FileChannelC2ERKNSt7__cxx1112basic_stringIcSt11char_traitsIcESaIcEEE
libPocoFoundation.so.94:_ZN4Poco11FileChannelC2Ev
libPocoFoundation.so.94:_ZN4Poco11FileChannelD0Ev
libPocoFoundation.so.94:_ZN4Poco11FileChannelD1Ev
libPocoFoundation.so.94:_ZN4Poco11FileChannelD2Ev
libPocoFoundation.so.94:_ZN4Poco11IOExceptionC1ERKNSt7__cxx1112basic_stringIcSt11char_traitsIcESaIcEEERKNS_9ExceptionEi
libPocoFoundation.so.94:_ZN4Poco11IOExceptionC1ERKNSt7__cxx1112basic_stringIcSt11char_traitsIcESaIcEEES8_i
libPocoFoundation.so.94:_ZN4Poco11IOExceptionC1ERKNSt7__cxx1112basic_stringIcSt11char_traitsIcESaIcEEEi
libPocoFoundation.so.94:_ZN4Poco11IOExceptionC1ERKS0_
libPocoFoundation.so.94:_ZN4Poco11IOExceptionC1Ei
libPocoFoundation.so.94:_ZN4Poco11IOExceptionC2ERKNSt7__cxx1112basic_stringIcSt11char_traitsIcESaIcEEERKNS_9ExceptionEi
libPocoFoundation.so.94:_ZN4Poco11IOExceptionC2ERKNSt7__cxx1112basic_stringIcSt11char_traitsIcESaIcEEES8_i
libPocoFoundation.so.94:_ZN4Poco11IOExceptionC2ERKNSt7__cxx1112basic_stringIcSt11char_traitsIcESaIcEEEi
libPocoFoundation.so.94:_ZN4Poco11IOExceptionC2ERKS0_
libPocoFoundation.so.94:_ZN4Poco11IOExceptionC2Ei
libPocoFoundation.so.94:_ZN4Poco11IOExceptionD0Ev
libPocoFoundation.so.94:_ZN4Poco11IOExceptionD1Ev
libPocoFoundation.so.94:_ZN4Poco11IOExceptionD2Ev
libPocoFoundation.so.94:_ZN4Poco11IOExceptionaSERKS0_
libPocoFoundation.so.94:_ZN4Poco11LogFileImpl9writeImplERKNSt7__cxx1112basic_stringIcSt11char_traitsIcESaIcEEEb
libPocoFoundation.so.94:_ZN4Poco11LogFileImplC1ERKNSt7__cxx1112basic_stringIcSt11char_traitsIcESaIcEEE
libPocoFoundation.so.94:_ZN4Poco11LogFileImplC2ERKNSt7__cxx1112basic_stringIcSt11char_traitsIcESaIcEEE
libPocoFoundation.so.94:_ZN4Poco11LogFileImplD1Ev
libPocoFoundation.so.94:_ZN4Poco11LogFileImplD2Ev
libPocoFoundation.so.94:_ZN4Poco11NullChannel11setPropertyERKNSt7__cxx1112basic_stringIcSt11char_traitsIcESaIcEEES8_
libPocoFoundation.so.94:_ZN4Poco11NullChannel3logERKNS_7MessageE
libPocoFoundation.so.94:_ZN4Poco11NullChannelC1Ev
libPocoFoundation.so.94:_ZN4Poco11NullChannelC2Ev
libPocoFoundation.so.94:_ZN4Poco11NullChannelD0Ev
libPocoFoundation.so.94:_ZN4Poco11NullChannelD1Ev
libPocoFoundation.so.94:_ZN4Poco11NullChannelD2Ev
libPocoFoundation.so.94:_ZN4Poco11ProcessImpl10launchImplERKNSt7__cxx1112basic_stringIcSt11char_traitsIcESaIcEEERKSt6vectorIS6_SaIS6_EES8_PNS_4PipeESF_SF_RKSt3mapIS6_S6_St4lessIS6_ESaISt4pairIS7_S6_EEE
libPocoFoundation.so.94:_ZN4Poco11ProcessImpl13isRunningImplERKNS_17ProcessHandleImplE
libPocoFoundation.so.94:_ZN4Poco11ProcessImpl13isRunningImplEi
libPocoFoundation.so.94:_ZN4Poco11ProcessImpl20launchByForkExecImplERKNSt7__cxx1112basic_stringIcSt11char_traitsIcESaIcEEERKSt6vectorIS6_SaIS6_EES8_PNS_4PipeESF_SF_RKSt3mapIS6_S6_St4lessIS6_ESaISt4pairIS7_S6_EEE
libPocoFoundation.so.94:_ZN4Poco11ProcessImpl22requestTerminationImplEi
libPocoFoundation.so.94:_ZN4Poco11ProcessImpl6idImplEv
libPocoFoundation.so.94:_ZN4Poco11ProcessImpl8killImplERNS_17ProcessHandleImplE
libPocoFoundation.so.94:_ZN4Poco11ProcessImpl8killImplEi
libPocoFoundation.so.94:_ZN4Poco11ProcessImpl9timesImplERlS1_
libPocoFoundation.so.94:_ZN4Poco11TaskManager10taskFailedEPNS_4TaskERKNS_9ExceptionE
libPocoFoundation.so.94:_ZN4Poco11TaskManager11addObserverERKNS_16AbstractObserverE
libPocoFoundation.so.94:_ZN4Poco11TaskManager11taskStartedEPNS_4TaskE
libPocoFoundation.so.94:_ZN4Poco11TaskManager12taskFinishedEPNS_4TaskE
libPocoFoundation.so.94:_ZN4Poco11TaskManager12taskProgressEPNS_4TaskEf
libPocoFoundation.so.94:_ZN4Poco11TaskManager13taskCancelledEPNS_4TaskE
libPocoFoundation.so.94:_ZN4Poco11TaskManager14removeObserverERKNS_16AbstractObserverE
libPocoFoundation.so.94:_ZN4Poco11TaskManager16postNotificationERKNS_7AutoPtrINS_12NotificationEEE
libPocoFoundation.so.94:_ZN4Poco11TaskManager34MIN_PROGRESS_NOTIFICATION_INTERVALE
libPocoFoundation.so.94:_ZN4Poco11TaskManager5startEPNS_4TaskE
libPocoFoundation.so.94:_ZN4Poco11TaskManager7joinAllEv
libPocoFoundation.so.94:_ZN4Poco11TaskManager9cancelAllEv
libPocoFoundation.so.94:_ZN4Poco11TaskManagerC1ERNS_10ThreadPoolE
libPocoFoundation.so.94:_ZN4Poco11TaskManagerC1Ev
libPocoFoundation.so.94:_ZN4Poco11TaskManagerC2ERNS_10ThreadPoolE
libPocoFoundation.so.94:_ZN4Poco11TaskManagerC2Ev
libPocoFoundation.so.94:_ZN4Poco11TaskManagerD1Ev
libPocoFoundation.so.94:_ZN4Poco11TaskManagerD2Ev
libPocoFoundation.so.94:_ZN4Poco11doubleToStrEPcidii
libPocoFoundation.so.94:_ZN4Poco11doubleToStrERNSt7__cxx1112basic_stringIcSt11char_traitsIcESaIcEEEdiicc
libPocoFoundation.so.94:_ZN4Poco11strToDoubleEPKcS1_S1_
libPocoFoundation.so.94:_ZN4Poco11strToDoubleERKNSt7__cxx1112basic_stringIcSt11char_traitsIcESaIcEEERdccPKcSA_
libPocoFoundation.so.94:_ZN4Poco12AsyncChannel10setChannelENS_7AutoPtrINS_7ChannelEEE
libPocoFoundation.so.94:_ZN4Poco12AsyncChannel11setPriorityERKNSt7__cxx1112basic_stringIcSt11char_traitsIcESaIcEEE
libPocoFoundation.so.94:_ZN4Poco12AsyncChannel11setPropertyERKNSt7__cxx1112basic_stringIcSt11char_traitsIcESaIcEEES8_
libPocoFoundation.so.94:_ZN4Poco12AsyncChannel3logERKNS_7MessageE
libPocoFoundation.so.94:_ZN4Poco12AsyncChannel3runEv
libPocoFoundation.so.94:_ZN4Poco12AsyncChannel4openEv
libPocoFoundation.so.94:_ZN4Poco12AsyncChannel5closeEv
libPocoFoundation.so.94:_ZN4Poco12AsyncChannelC1ENS_7AutoPtrINS_7ChannelEEENS_6Thread8PriorityE
libPocoFoundation.so.94:_ZN4Poco12AsyncChannelC2ENS_7AutoPtrINS_7ChannelEEENS_6Thread8PriorityE
libPocoFoundation.so.94:_ZN4Poco12AsyncChannelD0Ev
libPocoFoundation.so.94:_ZN4Poco12AsyncChannelD1Ev
libPocoFoundation.so.94:_ZN4Poco12AsyncChannelD2Ev
libPocoFoundation.so.94:_ZN4Poco12BinaryReader15read7BitEncodedERj
libPocoFoundation.so.94:_ZN4Poco12BinaryReader15read7BitEncodedERm
libPocoFoundation.so.94:_ZN4Poco12BinaryReader7readBOMEv
libPocoFoundation.so.94:_ZN4Poco12BinaryReader7readRawEPcl
libPocoFoundation.so.94:_ZN4Poco12BinaryReader7readRawElRNSt7__cxx1112basic_stringIcSt11char_traitsIcESaIcEEE
libPocoFoundation.so.94:_ZN4Poco12BinaryReaderC1ERSiNS0_15StreamByteOrderE
libPocoFoundation.so.94:_ZN4Poco12BinaryReaderC1ERSiRNS_12TextEncodingENS0_15StreamByteOrderE
libPocoFoundation.so.94:_ZN4Poco12BinaryReaderC2ERSiNS0_15StreamByteOrderE
libPocoFoundation.so.94:_ZN4Poco12BinaryReaderC2ERSiRNS_12TextEncodingENS0_15StreamByteOrderE
libPocoFoundation.so.94:_ZN4Poco12BinaryReaderD1Ev
libPocoFoundation.so.94:_ZN4Poco12BinaryReaderD2Ev
libPocoFoundation.so.94:_ZN4Poco12BinaryReaderrsERNSt7__cxx1112basic_stringIcSt11char_traitsIcESaIcEEE
libPocoFoundation.so.94:_ZN4Poco12BinaryReaderrsERa
libPocoFoundation.so.94:_ZN4Poco12BinaryReaderrsERb
libPocoFoundation.so.94:_ZN4Poco12BinaryReaderrsERc
libPocoFoundation.so.94:_ZN4Poco12BinaryReaderrsERd
libPocoFoundation.so.94:_ZN4Poco12BinaryReaderrsERf
libPocoFoundation.so.94:_ZN4Poco12BinaryReaderrsERh
libPocoFoundation.so.94:_ZN4Poco12BinaryReaderrsERi
libPocoFoundation.so.94:_ZN4Poco12BinaryReaderrsERj
libPocoFoundation.so.94:_ZN4Poco12BinaryReaderrsERl
libPocoFoundation.so.94:_ZN4Poco12BinaryReaderrsERm
libPocoFoundation.so.94:_ZN4Poco12BinaryReaderrsERs
libPocoFoundation.so.94:_ZN4Poco12BinaryReaderrsERt
libPocoFoundation.so.94:_ZN4Poco12BinaryReaderrsERx
libPocoFoundation.so.94:_ZN4Poco12BinaryReaderrsERy
libPocoFoundation.so.94:_ZN4Poco12BinaryWriter16write7BitEncodedEj
libPocoFoundation.so.94:_ZN4Poco12BinaryWriter16write7BitEncodedEm
libPocoFoundation.so.94:_ZN4Poco12BinaryWriter5flushEv
libPocoFoundation.so.94:_ZN4Poco12BinaryWriter8writeBOMEv
libPocoFoundation.so.94:_ZN4Poco12BinaryWriter8writeRawEPKcl
libPocoFoundation.so.94:_ZN4Poco12BinaryWriter8writeRawERKNSt7__cxx1112basic_stringIcSt11char_traitsIcESaIcEEE
libPocoFoundation.so.94:_ZN4Poco12BinaryWriterC1ERSoNS0_15StreamByteOrderE
libPocoFoundation.so.94:_ZN4Poco12BinaryWriterC1ERSoRNS_12TextEncodingENS0_15StreamByteOrderE
libPocoFoundation.so.94:_ZN4Poco12BinaryWriterC2ERSoNS0_15StreamByteOrderE
libPocoFoundation.so.94:_ZN4Poco12BinaryWriterC2ERSoRNS_12TextEncodingENS0_15StreamByteOrderE
libPocoFoundation.so.94:_ZN4Poco12BinaryWriterD1Ev
libPocoFoundation.so.94:_ZN4Poco12BinaryWriterD2Ev
libPocoFoundation.so.94:_ZN4Poco12BinaryWriterlsEPKc
libPocoFoundation.so.94:_ZN4Poco12BinaryWriterlsERKNSt7__cxx1112basic_stringIcSt11char_traitsIcESaIcEEE
libPocoFoundation.so.94:_ZN4Poco12BinaryWriterlsEa
libPocoFoundation.so.94:_ZN4Poco12BinaryWriterlsEb
libPocoFoundation.so.94:_ZN4Poco12BinaryWriterlsEc
libPocoFoundation.so.94:_ZN4Poco12BinaryWriterlsEd
libPocoFoundation.so.94:_ZN4Poco12BinaryWriterlsEf
libPocoFoundation.so.94:_ZN4Poco12BinaryWriterlsEh
libPocoFoundation.so.94:_ZN4Poco12BinaryWriterlsEi
libPocoFoundation.so.94:_ZN4Poco12BinaryWriterlsEj
libPocoFoundation.so.94:_ZN4Poco12BinaryWriterlsEl
libPocoFoundation.so.94:_ZN4Poco12BinaryWriterlsEm
libPocoFoundation.so.94:_ZN4Poco12BinaryWriterlsEs
libPocoFoundation.so.94:_ZN4Poco12BinaryWriterlsEt
libPocoFoundation.so.94:_ZN4Poco12BinaryWriterlsEx
libPocoFoundation.so.94:_ZN4Poco12BinaryWriterlsEy
libPocoFoundation.so.94:_ZN4Poco12ConfigurableC1Ev
libPocoFoundation.so.94:_ZN4Poco12ConfigurableC2Ev
libPocoFoundation.so.94:_ZN4Poco12ConfigurableD0Ev
libPocoFoundation.so.94:_ZN4Poco12ConfigurableD1Ev
libPocoFoundation.so.94:_ZN4Poco12ConfigurableD2Ev
libPocoFoundation.so.94:_ZN4Poco12DeflatingIOS5rdbufEv
libPocoFoundation.so.94:_ZN4Poco12DeflatingIOSC1ERSiNS_18DeflatingStreamBuf10StreamTypeEi
libPocoFoundation.so.94:_ZN4Poco12DeflatingIOSC1ERSiii
libPocoFoundation.so.94:_ZN4Poco12DeflatingIOSC1ERSoNS_18DeflatingStreamBuf10StreamTypeEi
libPocoFoundation.so.94:_ZN4Poco12DeflatingIOSC1ERSoii
libPocoFoundation.so.94:_ZN4Poco12DeflatingIOSC2ERSiNS_18DeflatingStreamBuf10StreamTypeEi
libPocoFoundation.so.94:_ZN4Poco12DeflatingIOSC2ERSiii
libPocoFoundation.so.94:_ZN4Poco12DeflatingIOSC2ERSoNS_18DeflatingStreamBuf10StreamTypeEi
libPocoFoundation.so.94:_ZN4Poco12DeflatingIOSC2ERSoii
libPocoFoundation.so.94:_ZN4Poco12DeflatingIOSD0Ev
libPocoFoundation.so.94:_ZN4Poco12DeflatingIOSD1Ev
libPocoFoundation.so.94:_ZN4Poco12DeflatingIOSD2Ev
libPocoFoundation.so.94:_ZN4Poco12DigestEngine11digestToHexB5cxx11ERKSt6vectorIhSaIhEEm
libPocoFoundation.so.94:_ZN4Poco12DigestEngine13digestFromHexERKNSt7__cxx1112basic_stringIcSt11char_traitsIcESaIcEEE
libPocoFoundation.so.94:_ZN4Poco12DigestEngine18constantTimeEqualsERKSt6vectorIhSaIhEES5_
libPocoFoundation.so.94:_ZN4Poco12DigestEngineC1Ev
libPocoFoundation.so.94:_ZN4Poco12DigestEngineC2Ev
libPocoFoundation.so.94:_ZN4Poco12DigestEngineD0Ev
libPocoFoundation.so.94:_ZN4Poco12DigestEngineD1Ev
libPocoFoundation.so.94:_ZN4Poco12DigestEngineD2Ev
libPocoFoundation.so.94:_ZN4Poco12ErrorHandler14defaultHandlerEv
libPocoFoundation.so.94:_ZN4Poco12ErrorHandler3setEPS0_
libPocoFoundation.so.94:_ZN4Poco12ErrorHandler6_mutexE
libPocoFoundation.so.94:_ZN4Poco12ErrorHandler6handleERKNS_9ExceptionE
libPocoFoundation.so.94:_ZN4Poco12ErrorHandler6handleERKSt9exception
libPocoFoundation.so.94:_ZN4Poco12ErrorHandler6handleEv
libPocoFoundation.so.94:_ZN4Poco12ErrorHandler9_pHandlerE
libPocoFoundation.so.94:_ZN4Poco12ErrorHandler9exceptionERKNS_9ExceptionE
libPocoFoundation.so.94:_ZN4Poco12ErrorHandler9exceptionERKSt9exception
libPocoFoundation.so.94:_ZN4Poco12ErrorHandler9exceptionEv
libPocoFoundation.so.94:_ZN4Poco12ErrorHandlerC1Ev
libPocoFoundation.so.94:_ZN4Poco12ErrorHandlerC2Ev
libPocoFoundation.so.94:_ZN4Poco12ErrorHandlerD0Ev
libPocoFoundation.so.94:_ZN4Poco12ErrorHandlerD1Ev
libPocoFoundation.so.94:_ZN4Poco12ErrorHandlerD2Ev
libPocoFoundation.so.94:_ZN4Poco12EventChannel3logERKNS_7MessageE
libPocoFoundation.so.94:_ZN4Poco12EventChannelC1Ev
libPocoFoundation.so.94:_ZN4Poco12EventChannelC2Ev
libPocoFoundation.so.94:_ZN4Poco12EventChannelD0Ev
libPocoFoundation.so.94:_ZN4Poco12EventChannelD1Ev
libPocoFoundation.so.94:_ZN4Poco12EventChannelD2Ev
libPocoFoundation.so.94:_ZN4Poco12InflatingIOS5rdbufEv
libPocoFoundation.so.94:_ZN4Poco12InflatingIOSC1ERSiNS_18InflatingStreamBuf10StreamTypeE
libPocoFoundation.so.94:_ZN4Poco12InflatingIOSC1ERSii
libPocoFoundation.so.94:_ZN4Poco12InflatingIOSC1ERSoNS_18InflatingStreamBuf10StreamTypeE
libPocoFoundation.so.94:_ZN4Poco12InflatingIOSC1ERSoi
libPocoFoundation.so.94:_ZN4Poco12InflatingIOSC2ERSiNS_18InflatingStreamBuf10StreamTypeE
libPocoFoundation.so.94:_ZN4Poco12InflatingIOSC2ERSii
libPocoFoundation.so.94:_ZN4Poco12InflatingIOSC2ERSoNS_18InflatingStreamBuf10StreamTypeE
libPocoFoundation.so.94:_ZN4Poco12InflatingIOSC2ERSoi
libPocoFoundation.so.94:_ZN4Poco12InflatingIOSD0Ev
libPocoFoundation.so.94:_ZN4Poco12InflatingIOSD1Ev
libPocoFoundation.so.94:_ZN4Poco12InflatingIOSD2Ev
libPocoFoundation.so.94:_ZN4Poco12InvalidTokenC1Ev
libPocoFoundation.so.94:_ZN4Poco12InvalidTokenC2Ev
libPocoFoundation.so.94:_ZN4Poco12InvalidTokenD0Ev
libPocoFoundation.so.94:_ZN4Poco12InvalidTokenD1Ev
libPocoFoundation.so.94:_ZN4Poco12InvalidTokenD2Ev
libPocoFoundation.so.94:_ZN4Poco12LogStreamBuf11setPriorityENS_7Message8PriorityE
libPocoFoundation.so.94:_ZN4Poco12LogStreamBuf13writeToDeviceEc
libPocoFoundation.so.94:_ZN4Poco12LogStreamBuf7reserveEm
libPocoFoundation.so.94:_ZN4Poco12LogStreamBufC1ERNS_6LoggerENS_7Message8PriorityEm
libPocoFoundation.so.94:_ZN4Poco12LogStreamBufC2ERNS_6LoggerENS_7Message8PriorityEm
libPocoFoundation.so.94:_ZN4Poco12LogStreamBufD0Ev
libPocoFoundation.so.94:_ZN4Poco12LogStreamBufD1Ev
libPocoFoundation.so.94:_ZN4Poco12LogStreamBufD2Ev
libPocoFoundation.so.94:_ZN4Poco12ManifestBaseC1Ev
libPocoFoundation.so.94:_ZN4Poco12ManifestBaseC2Ev
libPocoFoundation.so.94:_ZN4Poco12ManifestBaseD0Ev
libPocoFoundation.so.94:_ZN4Poco12ManifestBaseD1Ev
libPocoFoundation.so.94:_ZN4Poco12ManifestBaseD2Ev
libPocoFoundation.so.94:_ZN4Poco12NotificationC1Ev
libPocoFoundation.so.94:_ZN4Poco12NotificationC2Ev
libPocoFoundation.so.94:_ZN4Poco12NotificationD0Ev
libPocoFoundation.so.94:_ZN4Poco12NotificationD1Ev
libPocoFoundation.so.94:_ZN4Poco12NotificationD2Ev
libPocoFoundation.so.94:_ZN4Poco12NumberParser10parseFloatERKNSt7__cxx1112basic_stringIcSt11char_traitsIcESaIcEEEcc
libPocoFoundation.so.94:_ZN4Poco12NumberParser10parseHex64ERKNSt7__cxx1112basic_stringIcSt11char_traitsIcESaIcEEE
libPocoFoundation.so.94:_ZN4Poco12NumberParser10parseOct64ERKNSt7__cxx1112basic_stringIcSt11char_traitsIcESaIcEEE
libPocoFoundation.so.94:_ZN4Poco12NumberParser10tryParse64ERKNSt7__cxx1112basic_stringIcSt11char_traitsIcESaIcEEERlc
libPocoFoundation.so.94:_ZN4Poco12NumberParser11tryParseHexERKNSt7__cxx1112basic_stringIcSt11char_traitsIcESaIcEEERj
libPocoFoundation.so.94:_ZN4Poco12NumberParser11tryParseOctERKNSt7__cxx1112basic_stringIcSt11char_traitsIcESaIcEEERj
libPocoFoundation.so.94:_ZN4Poco12NumberParser12tryParseBoolERKNSt7__cxx1112basic_stringIcSt11char_traitsIcESaIcEEERb
libPocoFoundation.so.94:_ZN4Poco12NumberParser13parseUnsignedERKNSt7__cxx1112basic_stringIcSt11char_traitsIcESaIcEEEc
libPocoFoundation.so.94:_ZN4Poco12NumberParser13tryParseFloatERKNSt7__cxx1112basic_stringIcSt11char_traitsIcESaIcEEERdcc
libPocoFoundation.so.94:_ZN4Poco12NumberParser13tryParseHex64ERKNSt7__cxx1112basic_stringIcSt11char_traitsIcESaIcEEERm
libPocoFoundation.so.94:_ZN4Poco12NumberParser13tryParseOct64ERKNSt7__cxx1112basic_stringIcSt11char_traitsIcESaIcEEERm
libPocoFoundation.so.94:_ZN4Poco12NumberParser15parseUnsigned64ERKNSt7__cxx1112basic_stringIcSt11char_traitsIcESaIcEEEc
libPocoFoundation.so.94:_ZN4Poco12NumberParser16tryParseUnsignedERKNSt7__cxx1112basic_stringIcSt11char_traitsIcESaIcEEERjc
libPocoFoundation.so.94:_ZN4Poco12NumberParser18tryParseUnsigned64ERKNSt7__cxx1112basic_stringIcSt11char_traitsIcESaIcEEERmc
libPocoFoundation.so.94:_ZN4Poco12NumberParser5parseERKNSt7__cxx1112basic_stringIcSt11char_traitsIcESaIcEEEc
libPocoFoundation.so.94:_ZN4Poco12NumberParser7parse64ERKNSt7__cxx1112basic_stringIcSt11char_traitsIcESaIcEEEc
libPocoFoundation.so.94:_ZN4Poco12NumberParser8parseHexERKNSt7__cxx1112basic_stringIcSt11char_traitsIcESaIcEEE
libPocoFoundation.so.94:_ZN4Poco12NumberParser8parseOctERKNSt7__cxx1112basic_stringIcSt11char_traitsIcESaIcEEE
libPocoFoundation.so.94:_ZN4Poco12NumberParser8tryParseERKNSt7__cxx1112basic_stringIcSt11char_traitsIcESaIcEEERic
libPocoFoundation.so.94:_ZN4Poco12NumberParser9parseBoolERKNSt7__cxx1112basic_stringIcSt11char_traitsIcESaIcEEE
libPocoFoundation.so.94:_ZN4Poco12PooledThread3runEv
libPocoFoundation.so.94:_ZN4Poco12PooledThread4joinEv
libPocoFoundation.so.94:_ZN4Poco12PooledThread5startENS_6Thread8PriorityERNS_8RunnableE
libPocoFoundation.so.94:_ZN4Poco12PooledThread5startENS_6Thread8PriorityERNS_8RunnableERKNSt7__cxx1112basic_stringIcSt11char_traitsIcESaIcEEE
libPocoFoundation.so.94:_ZN4Poco12PooledThread5startEv
libPocoFoundation.so.94:_ZN4Poco12PooledThread7releaseEv
libPocoFoundation.so.94:_ZN4Poco12PooledThread8activateEv
libPocoFoundation.so.94:_ZN4Poco12PooledThread8idleTimeEv
libPocoFoundation.so.94:_ZN4Poco12PooledThreadC1ERKNSt7__cxx1112basic_stringIcSt11char_traitsIcESaIcEEEi
libPocoFoundation.so.94:_ZN4Poco12PooledThreadC2ERKNSt7__cxx1112basic_stringIcSt11char_traitsIcESaIcEEEi
libPocoFoundation.so.94:_ZN4Poco12PooledThreadD0Ev
libPocoFoundation.so.94:_ZN4Poco12PooledThreadD1Ev
libPocoFoundation.so.94:_ZN4Poco12PooledThreadD2Ev
libPocoFoundation.so.94:_ZN4Poco12SharedMemoryC1ERKNS_4FileENS0_10AccessModeEPKv
libPocoFoundation.so.94:_ZN4Poco12SharedMemoryC1ERKNSt7__cxx1112basic_stringIcSt11char_traitsIcESaIcEEEmNS0_10AccessModeEPKvb
libPocoFoundation.so.94:_ZN4Poco12SharedMemoryC1ERKS0_
libPocoFoundation.so.94:_ZN4Poco12SharedMemoryC1Ev
libPocoFoundation.so.94:_ZN4Poco12SharedMemoryC2ERKNS_4FileENS0_10AccessModeEPKv
libPocoFoundation.so.94:_ZN4Poco12SharedMemoryC2ERKNSt7__cxx1112basic_stringIcSt11char_traitsIcESaIcEEEmNS0_10AccessModeEPKvb
libPocoFoundation.so.94:_ZN4Poco12SharedMemoryC2ERKS0_
libPocoFoundation.so.94:_ZN4Poco12SharedMemoryC2Ev
libPocoFoundation.so.94:_ZN4Poco12SharedMemoryD1Ev
libPocoFoundation.so.94:_ZN4Poco12SharedMemoryD2Ev
libPocoFoundation.so.94:_ZN4Poco12SharedMemoryaSERKS0_
libPocoFoundation.so.94:_ZN4Poco12StreamCopier10copyStreamERSiRSom
libPocoFoundation.so.94:_ZN4Poco12StreamCopier12copyStream64ERSiRSom
libPocoFoundation.so.94:_ZN4Poco12StreamCopier12copyToStringERSiRNSt7__cxx1112basic_stringIcSt11char_traitsIcESaIcEEEm
libPocoFoundation.so.94:_ZN4Poco12StreamCopier14copyToString64ERSiRNSt7__cxx1112basic_stringIcSt11char_traitsIcESaIcEEEm
libPocoFoundation.so.94:_ZN4Poco12StreamCopier20copyStreamUnbufferedERSiRSo
libPocoFoundation.so.94:_ZN4Poco12StreamCopier22copyStreamUnbuffered64ERSiRSo
libPocoFoundation.so.94:_ZN4Poco12TeeStreamBuf13writeToDeviceEc
libPocoFoundation.so.94:_ZN4Poco12TeeStreamBuf14readFromDeviceEv
libPocoFoundation.so.94:_ZN4Poco12TeeStreamBuf9addStreamERSo
libPocoFoundation.so.94:_ZN4Poco12TeeStreamBufC1ERSi
libPocoFoundation.so.94:_ZN4Poco12TeeStreamBufC1ERSo
libPocoFoundation.so.94:_ZN4Poco12TeeStreamBufC1Ev
libPocoFoundation.so.94:_ZN4Poco12TeeStreamBufC2ERSi
libPocoFoundation.so.94:_ZN4Poco12TeeStreamBufC2ERSo
libPocoFoundation.so.94:_ZN4Poco12TeeStreamBufC2Ev
libPocoFoundation.so.94:_ZN4Poco12TeeStreamBufD0Ev
libPocoFoundation.so.94:_ZN4Poco12TeeStreamBufD1Ev
libPocoFoundation.so.94:_ZN4Poco12TeeStreamBufD2Ev
libPocoFoundation.so.94:_ZN4Poco12TextEncoding3addENS_9SharedPtrIS0_NS_16ReferenceCounterENS_13ReleasePolicyIS0_EEEE
libPocoFoundation.so.94:_ZN4Poco12TextEncoding3addENS_9SharedPtrIS0_NS_16ReferenceCounterENS_13ReleasePolicyIS0_EEEERKNSt7__cxx1112basic_stringIcSt11char_traitsIcESaIcEEE
libPocoFoundation.so.94:_ZN4Poco12TextEncoding4findERKNSt7__cxx1112basic_stringIcSt11char_traitsIcESaIcEEE
libPocoFoundation.so.94:_ZN4Poco12TextEncoding6GLOBALB5cxx11E
libPocoFoundation.so.94:_ZN4Poco12TextEncoding6byNameERKNSt7__cxx1112basic_stringIcSt11char_traitsIcESaIcEEE
libPocoFoundation.so.94:_ZN4Poco12TextEncoding6globalENS_9SharedPtrIS0_NS_16ReferenceCounterENS_13ReleasePolicyIS0_EEEE
libPocoFoundation.so.94:_ZN4Poco12TextEncoding6globalEv
libPocoFoundation.so.94:_ZN4Poco12TextEncoding6removeERKNSt7__cxx1112basic_stringIcSt11char_traitsIcESaIcEEE
libPocoFoundation.so.94:_ZN4Poco12TextEncoding7managerEv
libPocoFoundation.so.94:_ZN4Poco12TextEncodingD0Ev
libPocoFoundation.so.94:_ZN4Poco12TextEncodingD1Ev
libPocoFoundation.so.94:_ZN4Poco12TextEncodingD2Ev
libPocoFoundation.so.94:_ZN4Poco12TextIterator4swapERS0_
libPocoFoundation.so.94:_ZN4Poco12TextIteratorC1ERKN9__gnu_cxx17__normal_iteratorIPKcNSt7__cxx1112basic_stringIcSt11char_traitsIcESaIcEEEEE
libPocoFoundation.so.94:_ZN4Poco12TextIteratorC1ERKN9__gnu_cxx17__normal_iteratorIPKcNSt7__cxx1112basic_stringIcSt11char_traitsIcESaIcEEEEESD_RKNS_12TextEncodingE
libPocoFoundation.so.94:_ZN4Poco12TextIteratorC1ERKNSt7__cxx1112basic_stringIcSt11char_traitsIcESaIcEEE
libPocoFoundation.so.94:_ZN4Poco12TextIteratorC1ERKNSt7__cxx1112basic_stringIcSt11char_traitsIcESaIcEEERKNS_12TextEncodingE
libPocoFoundation.so.94:_ZN4Poco12TextIteratorC1ERKS0_
libPocoFoundation.so.94:_ZN4Poco12TextIteratorC1Ev
libPocoFoundation.so.94:_ZN4Poco12TextIteratorC2ERKN9__gnu_cxx17__normal_iteratorIPKcNSt7__cxx1112basic_stringIcSt11char_traitsIcESaIcEEEEE
libPocoFoundation.so.94:_ZN4Poco12TextIteratorC2ERKN9__gnu_cxx17__normal_iteratorIPKcNSt7__cxx1112basic_stringIcSt11char_traitsIcESaIcEEEEESD_RKNS_12TextEncodingE
libPocoFoundation.so.94:_ZN4Poco12TextIteratorC2ERKNSt7__cxx1112basic_stringIcSt11char_traitsIcESaIcEEE
libPocoFoundation.so.94:_ZN4Poco12TextIteratorC2ERKNSt7__cxx1112basic_stringIcSt11char_traitsIcESaIcEEERKNS_12TextEncodingE
libPocoFoundation.so.94:_ZN4Poco12TextIteratorC2ERKS0_
libPocoFoundation.so.94:_ZN4Poco12TextIteratorC2Ev
libPocoFoundation.so.94:_ZN4Poco12TextIteratorD1Ev
libPocoFoundation.so.94:_ZN4Poco12TextIteratorD2Ev
libPocoFoundation.so.94:_ZN4Poco12TextIteratoraSERKS0_
libPocoFoundation.so.94:_ZN4Poco12TextIteratorppEi
libPocoFoundation.so.94:_ZN4Poco12TextIteratorppEv
libPocoFoundation.so.94:_ZN4Poco12ThreadTargetC1EPFvvE
libPocoFoundation.so.94:_ZN4Poco12ThreadTargetC1ERKS0_
libPocoFoundation.so.94:_ZN4Poco12ThreadTargetC2EPFvvE
libPocoFoundation.so.94:_ZN4Poco12ThreadTargetC2ERKS0_
libPocoFoundation.so.94:_ZN4Poco12ThreadTargetD0Ev
libPocoFoundation.so.94:_ZN4Poco12ThreadTargetD1Ev
libPocoFoundation.so.94:_ZN4Poco12ThreadTargetD2Ev
libPocoFoundation.so.94:_ZN4Poco12ThreadTargetaSERKS0_
libPocoFoundation.so.94:_ZN4Poco12TraverseBase11isDirectoryERNS_4FileE
libPocoFoundation.so.94:_ZN4Poco12TraverseBaseC1ESt8functionIFtRKSt5stackINS_17DirectoryIteratorESt5dequeIS3_SaIS3_EEEEEt
libPocoFoundation.so.94:_ZN4Poco12TraverseBaseC2ESt8functionIFtRKSt5stackINS_17DirectoryIteratorESt5dequeIS3_SaIS3_EEEEEt
libPocoFoundation.so.94:_ZN4Poco12UTF8Encoding6_namesE
libPocoFoundation.so.94:_ZN4Poco12UTF8Encoding7isLegalEPKhi
libPocoFoundation.so.94:_ZN4Poco12UTF8Encoding8_charMapE
libPocoFoundation.so.94:_ZN4Poco12UTF8EncodingC1Ev
libPocoFoundation.so.94:_ZN4Poco12UTF8EncodingC2Ev
libPocoFoundation.so.94:_ZN4Poco12UTF8EncodingD0Ev
libPocoFoundation.so.94:_ZN4Poco12UTF8EncodingD1Ev
libPocoFoundation.so.94:_ZN4Poco12UTF8EncodingD2Ev
libPocoFoundation.so.94:_ZN4Poco13ASCIIEncoding6_namesE
libPocoFoundation.so.94:_ZN4Poco13ASCIIEncoding8_charMapE
libPocoFoundation.so.94:_ZN4Poco13ASCIIEncodingC1Ev
libPocoFoundation.so.94:_ZN4Poco13ASCIIEncodingC2Ev
libPocoFoundation.so.94:_ZN4Poco13ASCIIEncodingD0Ev
libPocoFoundation.so.94:_ZN4Poco13ASCIIEncodingD1Ev
libPocoFoundation.so.94:_ZN4Poco13ASCIIEncodingD2Ev
libPocoFoundation.so.94:_ZN4Poco13AtomicCounterC1ERKS0_
libPocoFoundation.so.94:_ZN4Poco13AtomicCounterC1Ei
libPocoFoundation.so.94:_ZN4Poco13AtomicCounterC1Ev
libPocoFoundation.so.94:_ZN4Poco13AtomicCounterC2ERKS0_
libPocoFoundation.so.94:_ZN4Poco13AtomicCounterC2Ei
libPocoFoundation.so.94:_ZN4Poco13AtomicCounterC2Ev
libPocoFoundation.so.94:_ZN4Poco13AtomicCounterD1Ev
libPocoFoundation.so.94:_ZN4Poco13AtomicCounterD2Ev
libPocoFoundation.so.94:_ZN4Poco13AtomicCounteraSERKS0_
libPocoFoundation.so.94:_ZN4Poco13AtomicCounteraSEi
libPocoFoundation.so.94:_ZN4Poco13Base32DecoderC1ERSi
libPocoFoundation.so.94:_ZN4Poco13Base32DecoderC2ERSi
libPocoFoundation.so.94:_ZN4Poco13Base32DecoderD0Ev
libPocoFoundation.so.94:_ZN4Poco13Base32DecoderD1Ev
libPocoFoundation.so.94:_ZN4Poco13Base32DecoderD2Ev
libPocoFoundation.so.94:_ZN4Poco13Base32EncoderC1ERSob
libPocoFoundation.so.94:_ZN4Poco13Base32EncoderC2ERSob
libPocoFoundation.so.94:_ZN4Poco13Base32EncoderD0Ev
libPocoFoundation.so.94:_ZN4Poco13Base32EncoderD1Ev
libPocoFoundation.so.94:_ZN4Poco13Base32EncoderD2Ev
libPocoFoundation.so.94:_ZN4Poco13Base64DecoderC1ERSii
libPocoFoundation.so.94:_ZN4Poco13Base64DecoderC2ERSii
libPocoFoundation.so.94:_ZN4Poco13Base64DecoderD0Ev
libPocoFoundation.so.94:_ZN4Poco13Base64DecoderD1Ev
libPocoFoundation.so.94:_ZN4Poco13Base64DecoderD2Ev
libPocoFoundation.so.94:_ZN4Poco13Base64EncoderC1ERSoi
libPocoFoundation.so.94:_ZN4Poco13Base64EncoderC2ERSoi
libPocoFoundation.so.94:_ZN4Poco13Base64EncoderD0Ev
libPocoFoundation.so.94:_ZN4Poco13Base64EncoderD1Ev
libPocoFoundation.so.94:_ZN4Poco13Base64EncoderD2Ev
libPocoFoundation.so.94:_ZN4Poco13DataExceptionC1ERKNSt7__cxx1112basic_stringIcSt11char_traitsIcESaIcEEERKNS_9ExceptionEi
libPocoFoundation.so.94:_ZN4Poco13DataExceptionC1ERKNSt7__cxx1112basic_stringIcSt11char_traitsIcESaIcEEES8_i
libPocoFoundation.so.94:_ZN4Poco13DataExceptionC1ERKNSt7__cxx1112basic_stringIcSt11char_traitsIcESaIcEEEi
libPocoFoundation.so.94:_ZN4Poco13DataExceptionC1ERKS0_
libPocoFoundation.so.94:_ZN4Poco13DataExceptionC1Ei
libPocoFoundation.so.94:_ZN4Poco13DataExceptionC2ERKNSt7__cxx1112basic_stringIcSt11char_traitsIcESaIcEEERKNS_9ExceptionEi
libPocoFoundation.so.94:_ZN4Poco13DataExceptionC2ERKNSt7__cxx1112basic_stringIcSt11char_traitsIcESaIcEEES8_i
libPocoFoundation.so.94:_ZN4Poco13DataExceptionC2ERKNSt7__cxx1112basic_stringIcSt11char_traitsIcESaIcEEEi
libPocoFoundation.so.94:_ZN4Poco13DataExceptionC2ERKS0_
libPocoFoundation.so.94:_ZN4Poco13DataExceptionC2Ei
libPocoFoundation.so.94:_ZN4Poco13DataExceptionD0Ev
libPocoFoundation.so.94:_ZN4Poco13DataExceptionD1Ev
libPocoFoundation.so.94:_ZN4Poco13DataExceptionD2Ev
libPocoFoundation.so.94:_ZN4Poco13DataExceptionaSERKS0_
libPocoFoundation.so.94:_ZN4Poco13DataURIStreamC1ERKNS_3URIE
libPocoFoundation.so.94:_ZN4Poco13DataURIStreamC2ERKNS_3URIE
libPocoFoundation.so.94:_ZN4Poco13DataURIStreamD0Ev
libPocoFoundation.so.94:_ZN4Poco13DataURIStreamD1Ev
libPocoFoundation.so.94:_ZN4Poco13DataURIStreamD2Ev
libPocoFoundation.so.94:_ZN4Poco13FPEnvironment10clearFlagsEv
libPocoFoundation.so.94:_ZN4Poco13FPEnvironment11keepCurrentEv
libPocoFoundation.so.94:_ZN4Poco13FPEnvironmentC1ENS0_12RoundingModeE
libPocoFoundation.so.94:_ZN4Poco13FPEnvironmentC1ERKS0_
libPocoFoundation.so.94:_ZN4Poco13FPEnvironmentC1Ev
libPocoFoundation.so.94:_ZN4Poco13FPEnvironmentC2ENS0_12RoundingModeE
libPocoFoundation.so.94:_ZN4Poco13FPEnvironmentC2ERKS0_
libPocoFoundation.so.94:_ZN4Poco13FPEnvironmentC2Ev
libPocoFoundation.so.94:_ZN4Poco13FPEnvironmentD1Ev
libPocoFoundation.so.94:_ZN4Poco13FPEnvironmentD2Ev
libPocoFoundation.so.94:_ZN4Poco13FPEnvironmentaSERKS0_
libPocoFoundation.so.94:_ZN4Poco13FastMutexImplC1Ev
libPocoFoundation.so.94:_ZN4Poco13FastMutexImplC2Ev
libPocoFoundation.so.94:_ZN4Poco13FastMutexImplD1Ev
libPocoFoundation.so.94:_ZN4Poco13FastMutexImplD2Ev
libPocoFoundation.so.94:_ZN4Poco13FileExceptionC1ERKNSt7__cxx1112basic_stringIcSt11char_traitsIcESaIcEEERKNS_9ExceptionEi
libPocoFoundation.so.94:_ZN4Poco13FileExceptionC1ERKNSt7__cxx1112basic_stringIcSt11char_traitsIcESaIcEEES8_i
libPocoFoundation.so.94:_ZN4Poco13FileExceptionC1ERKNSt7__cxx1112basic_stringIcSt11char_traitsIcESaIcEEEi
libPocoFoundation.so.94:_ZN4Poco13FileExceptionC1ERKS0_
libPocoFoundation.so.94:_ZN4Poco13FileExceptionC1Ei
libPocoFoundation.so.94:_ZN4Poco13FileExceptionC2ERKNSt7__cxx1112basic_stringIcSt11char_traitsIcESaIcEEERKNS_9ExceptionEi
libPocoFoundation.so.94:_ZN4Poco13FileExceptionC2ERKNSt7__cxx1112basic_stringIcSt11char_traitsIcESaIcEEES8_i
libPocoFoundation.so.94:_ZN4Poco13FileExceptionC2ERKNSt7__cxx1112basic_stringIcSt11char_traitsIcESaIcEEEi
libPocoFoundation.so.94:_ZN4Poco13FileExceptionC2ERKS0_
libPocoFoundation.so.94:_ZN4Poco13FileExceptionC2Ei
libPocoFoundation.so.94:_ZN4Poco13FileExceptionD0Ev
libPocoFoundation.so.94:_ZN4Poco13FileExceptionD1Ev
libPocoFoundation.so.94:_ZN4Poco13FileExceptionD2Ev
libPocoFoundation.so.94:_ZN4Poco13FileExceptionaSERKS0_
libPocoFoundation.so.94:_ZN4Poco13FileStreamBuf13writeToDeviceEPKcl
libPocoFoundation.so.94:_ZN4Poco13FileStreamBuf14readFromDeviceEPcl
libPocoFoundation.so.94:_ZN4Poco13FileStreamBuf4openERKNSt7__cxx1112basic_stringIcSt11char_traitsIcESaIcEEESt13_Ios_Openmode
libPocoFoundation.so.94:_ZN4Poco13FileStreamBuf5closeEv
libPocoFoundation.so.94:_ZN4Poco13FileStreamBuf7seekoffElSt12_Ios_SeekdirSt13_Ios_Openmode
libPocoFoundation.so.94:_ZN4Poco13FileStreamBuf7seekposESt4fposI11__mbstate_tESt13_Ios_Openmode
libPocoFoundation.so.94:_ZN4Poco13FileStreamBufC1Ev
libPocoFoundation.so.94:_ZN4Poco13FileStreamBufC2Ev
libPocoFoundation.so.94:_ZN4Poco13FileStreamBufD0Ev
libPocoFoundation.so.94:_ZN4Poco13FileStreamBufD1Ev
libPocoFoundation.so.94:_ZN4Poco13FileStreamBufD2Ev
libPocoFoundation.so.94:_ZN4Poco13HashStatisticC1EjjjjSt6vectorIjSaIjEE
libPocoFoundation.so.94:_ZN4Poco13HashStatisticC2EjjjjSt6vectorIjSaIjEE
libPocoFoundation.so.94:_ZN4Poco13HashStatisticD0Ev
libPocoFoundation.so.94:_ZN4Poco13HashStatisticD1Ev
libPocoFoundation.so.94:_ZN4Poco13HashStatisticD2Ev
libPocoFoundation.so.94:_ZN4Poco13LocalDateTime12determineTzdEb
libPocoFoundation.so.94:_ZN4Poco13LocalDateTime4swapERS0_
libPocoFoundation.so.94:_ZN4Poco13LocalDateTime6assignEid
libPocoFoundation.so.94:_ZN4Poco13LocalDateTime6assignEiiiiiiii
libPocoFoundation.so.94:_ZN4Poco13LocalDateTime6assignEiiiiiiiii
libPocoFoundation.so.94:_ZN4Poco13LocalDateTimeC1ERKNS_8DateTimeE
libPocoFoundation.so.94:_ZN4Poco13LocalDateTimeC1ERKS0_
libPocoFoundation.so.94:_ZN4Poco13LocalDateTimeC1Ed
libPocoFoundation.so.94:_ZN4Poco13LocalDateTimeC1EiRKNS_8DateTimeE
libPocoFoundation.so.94:_ZN4Poco13LocalDateTimeC1EiRKNS_8DateTimeEb
libPocoFoundation.so.94:_ZN4Poco13LocalDateTimeC1Eid
libPocoFoundation.so.94:_ZN4Poco13LocalDateTimeC1Eiiiiiiii
libPocoFoundation.so.94:_ZN4Poco13LocalDateTimeC1Eiiiiiiiii
libPocoFoundation.so.94:_ZN4Poco13LocalDateTimeC1Elli
libPocoFoundation.so.94:_ZN4Poco13LocalDateTimeC1Ev
libPocoFoundation.so.94:_ZN4Poco13LocalDateTimeC2ERKNS_8DateTimeE
libPocoFoundation.so.94:_ZN4Poco13LocalDateTimeC2ERKS0_
libPocoFoundation.so.94:_ZN4Poco13LocalDateTimeC2Ed
libPocoFoundation.so.94:_ZN4Poco13LocalDateTimeC2EiRKNS_8DateTimeE
libPocoFoundation.so.94:_ZN4Poco13LocalDateTimeC2EiRKNS_8DateTimeEb
libPocoFoundation.so.94:_ZN4Poco13LocalDateTimeC2Eid
libPocoFoundation.so.94:_ZN4Poco13LocalDateTimeC2Eiiiiiiii
libPocoFoundation.so.94:_ZN4Poco13LocalDateTimeC2Eiiiiiiiii
libPocoFoundation.so.94:_ZN4Poco13LocalDateTimeC2Elli
libPocoFoundation.so.94:_ZN4Poco13LocalDateTimeC2Ev
libPocoFoundation.so.94:_ZN4Poco13LocalDateTimeD1Ev
libPocoFoundation.so.94:_ZN4Poco13LocalDateTimeD2Ev
libPocoFoundation.so.94:_ZN4Poco13LocalDateTimeaSERKNS_9TimestampE
libPocoFoundation.so.94:_ZN4Poco13LocalDateTimeaSERKS0_
libPocoFoundation.so.94:_ZN4Poco13LocalDateTimeaSEd
libPocoFoundation.so.94:_ZN4Poco13LocalDateTimemIERKNS_8TimespanE
libPocoFoundation.so.94:_ZN4Poco13LocalDateTimepLERKNS_8TimespanE
libPocoFoundation.so.94:_ZN4Poco13NullStreamBuf13writeToDeviceEc
libPocoFoundation.so.94:_ZN4Poco13NullStreamBuf14readFromDeviceEv
libPocoFoundation.so.94:_ZN4Poco13NullStreamBufC1Ev
libPocoFoundation.so.94:_ZN4Poco13NullStreamBufC2Ev
libPocoFoundation.so.94:_ZN4Poco13NullStreamBufD0Ev
libPocoFoundation.so.94:_ZN4Poco13NullStreamBufD1Ev
libPocoFoundation.so.94:_ZN4Poco13NullStreamBufD2Ev
libPocoFoundation.so.94:_ZN4Poco13PipeStreamBuf13writeToDeviceEPKcl
libPocoFoundation.so.94:_ZN4Poco13PipeStreamBuf14readFromDeviceEPcl
libPocoFoundation.so.94:_ZN4Poco13PipeStreamBuf5closeEv
libPocoFoundation.so.94:_ZN4Poco13PipeStreamBufC1ERKNS_4PipeESt13_Ios_Openmode
libPocoFoundation.so.94:_ZN4Poco13PipeStreamBufC2ERKNS_4PipeESt13_Ios_Openmode
libPocoFoundation.so.94:_ZN4Poco13PipeStreamBufD0Ev
libPocoFoundation.so.94:_ZN4Poco13PipeStreamBufD1Ev
libPocoFoundation.so.94:_ZN4Poco13PipeStreamBufD2Ev
libPocoFoundation.so.94:_ZN4Poco13ProcessHandleC1EPNS_17ProcessHandleImplE
libPocoFoundation.so.94:_ZN4Poco13ProcessHandleC1ERKS0_
libPocoFoundation.so.94:_ZN4Poco13ProcessHandleC2EPNS_17ProcessHandleImplE
libPocoFoundation.so.94:_ZN4Poco13ProcessHandleC2ERKS0_
libPocoFoundation.so.94:_ZN4Poco13ProcessHandleD1Ev
libPocoFoundation.so.94:_ZN4Poco13ProcessHandleD2Ev
libPocoFoundation.so.94:_ZN4Poco13ProcessHandleaSERKS0_
libPocoFoundation.so.94:_ZN4Poco13PurgeStrategy4listERKNSt7__cxx1112basic_stringIcSt11char_traitsIcESaIcEEERSt6vectorINS_4FileESaISA_EE
libPocoFoundation.so.94:_ZN4Poco13PurgeStrategyC1Ev
libPocoFoundation.so.94:_ZN4Poco13PurgeStrategyC2Ev
libPocoFoundation.so.94:_ZN4Poco13PurgeStrategyD0Ev
libPocoFoundation.so.94:_ZN4Poco13PurgeStrategyD1Ev
libPocoFoundation.so.94:_ZN4Poco13PurgeStrategyD2Ev
libPocoFoundation.so.94:_ZN4Poco13SemaphoreImpl8waitImplEl
libPocoFoundation.so.94:_ZN4Poco13SemaphoreImpl8waitImplEv
libPocoFoundation.so.94:_ZN4Poco13SemaphoreImplC1Eii
libPocoFoundation.so.94:_ZN4Poco13SemaphoreImplC2Eii
libPocoFoundation.so.94:_ZN4Poco13SemaphoreImplD1Ev
libPocoFoundation.so.94:_ZN4Poco13SemaphoreImplD2Ev
libPocoFoundation.so.94:_ZN4Poco13SharedLibrary13setSearchPathERKNSt7__cxx1112basic_stringIcSt11char_traitsIcESaIcEEE
libPocoFoundation.so.94:_ZN4Poco13SharedLibrary4loadERKNSt7__cxx1112basic_stringIcSt11char_traitsIcESaIcEEE
libPocoFoundation.so.94:_ZN4Poco13SharedLibrary4loadERKNSt7__cxx1112basic_stringIcSt11char_traitsIcESaIcEEEi
libPocoFoundation.so.94:_ZN4Poco13SharedLibrary6suffixB5cxx11Ev
libPocoFoundation.so.94:_ZN4Poco13SharedLibrary6unloadEv
libPocoFoundation.so.94:_ZN4Poco13SharedLibrary9getSymbolERKNSt7__cxx1112basic_stringIcSt11char_traitsIcESaIcEEE
libPocoFoundation.so.94:_ZN4Poco13SharedLibrary9hasSymbolERKNSt7__cxx1112basic_stringIcSt11char_traitsIcESaIcEEE
libPocoFoundation.so.94:_ZN4Poco13SharedLibraryC1ERKNSt7__cxx1112basic_stringIcSt11char_traitsIcESaIcEEE
libPocoFoundation.so.94:_ZN4Poco13SharedLibraryC1ERKNSt7__cxx1112basic_stringIcSt11char_traitsIcESaIcEEEi
libPocoFoundation.so.94:_ZN4Poco13SharedLibraryC1Ev
libPocoFoundation.so.94:_ZN4Poco13SharedLibraryC2ERKNSt7__cxx1112basic_stringIcSt11char_traitsIcESaIcEEE
libPocoFoundation.so.94:_ZN4Poco13SharedLibraryC2ERKNSt7__cxx1112basic_stringIcSt11char_traitsIcESaIcEEEi
libPocoFoundation.so.94:_ZN4Poco13SharedLibraryC2Ev
libPocoFoundation.so.94:_ZN4Poco13SharedLibraryD0Ev
libPocoFoundation.so.94:_ZN4Poco13SharedLibraryD1Ev
libPocoFoundation.so.94:_ZN4Poco13SharedLibraryD2Ev
libPocoFoundation.so.94:_ZN4Poco13SignalHandler10jumpBufferEv
libPocoFoundation.so.94:_ZN4Poco13SignalHandler12handleSignalEi
libPocoFoundation.so.94:_ZN4Poco13SignalHandler13jumpBufferVecEv
libPocoFoundation.so.94:_ZN4Poco13SignalHandler14_jumpBufferVecE
libPocoFoundation.so.94:_ZN4Poco13SignalHandler20throwSignalExceptionEi
libPocoFoundation.so.94:_ZN4Poco13SignalHandler7installEv
libPocoFoundation.so.94:_ZN4Poco13SignalHandlerC1Ev
libPocoFoundation.so.94:_ZN4Poco13SignalHandlerC2Ev
libPocoFoundation.so.94:_ZN4Poco13SignalHandlerD1Ev
libPocoFoundation.so.94:_ZN4Poco13SignalHandlerD2Ev
libPocoFoundation.so.94:_ZN4Poco13SpinlockMutexC1Ev
libPocoFoundation.so.94:_ZN4Poco13SpinlockMutexC2Ev
libPocoFoundation.so.94:_ZN4Poco13SpinlockMutexD1Ev
libPocoFoundation.so.94:_ZN4Poco13SpinlockMutexD2Ev
libPocoFoundation.so.94:_ZN4Poco13StreamChannel3logERKNS_7MessageE
libPocoFoundation.so.94:_ZN4Poco13StreamChannelC1ERSo
libPocoFoundation.so.94:_ZN4Poco13StreamChannelC2ERSo
libPocoFoundation.so.94:_ZN4Poco13StreamChannelD0Ev
libPocoFoundation.so.94:_ZN4Poco13StreamChannelD1Ev
libPocoFoundation.so.94:_ZN4Poco13StreamChannelD2Ev
libPocoFoundation.so.94:_ZN4Poco13SyslogChannel11setPropertyERKNSt7__cxx1112basic_stringIcSt11char_traitsIcESaIcEEES8_
libPocoFoundation.so.94:_ZN4Poco13SyslogChannel12PROP_OPTIONSB5cxx11E
libPocoFoundation.so.94:_ZN4Poco13SyslogChannel13PROP_FACILITYB5cxx11E
libPocoFoundation.so.94:_ZN4Poco13SyslogChannel3logERKNS_7MessageE
libPocoFoundation.so.94:_ZN4Poco13SyslogChannel4openEv
libPocoFoundation.so.94:_ZN4Poco13SyslogChannel5closeEv
libPocoFoundation.so.94:_ZN4Poco13SyslogChannel7getPrioERKNS_7MessageE
libPocoFoundation.so.94:_ZN4Poco13SyslogChannel9PROP_NAMEB5cxx11E
libPocoFoundation.so.94:_ZN4Poco13SyslogChannelC1ERKNSt7__cxx1112basic_stringIcSt11char_traitsIcESaIcEEEii
libPocoFoundation.so.94:_ZN4Poco13SyslogChannelC1Ev
libPocoFoundation.so.94:_ZN4Poco13SyslogChannelC2ERKNSt7__cxx1112basic_stringIcSt11char_traitsIcESaIcEEEii
libPocoFoundation.so.94:_ZN4Poco13SyslogChannelC2Ev
libPocoFoundation.so.94:_ZN4Poco13SyslogChannelD0Ev
libPocoFoundation.so.94:_ZN4Poco13SyslogChannelD1Ev
libPocoFoundation.so.94:_ZN4Poco13SyslogChannelD2Ev
libPocoFoundation.so.94:_ZN4Poco13TemporaryFile13keepUntilExitEv
libPocoFoundation.so.94:_ZN4Poco13TemporaryFile19registerForDeletionERKNSt7__cxx1112basic_stringIcSt11char_traitsIcESaIcEEE
libPocoFoundation.so.94:_ZN4Poco13TemporaryFile4keepEv
libPocoFoundation.so.94:_ZN4Poco13TemporaryFile8tempNameERKNSt7__cxx1112basic_stringIcSt11char_traitsIcESaIcEEE
libPocoFoundation.so.94:_ZN4Poco13TemporaryFileC1ERKNSt7__cxx1112basic_stringIcSt11char_traitsIcESaIcEEE
libPocoFoundation.so.94:_ZN4Poco13TemporaryFileC1Ev
libPocoFoundation.so.94:_ZN4Poco13TemporaryFileC2ERKNSt7__cxx1112basic_stringIcSt11char_traitsIcESaIcEEE
libPocoFoundation.so.94:_ZN4Poco13TemporaryFileC2Ev
libPocoFoundation.so.94:_ZN4Poco13TemporaryFileD0Ev
libPocoFoundation.so.94:_ZN4Poco13TemporaryFileD1Ev
libPocoFoundation.so.94:_ZN4Poco13TemporaryFileD2Ev
libPocoFoundation.so.94:_ZN4Poco13TextConverter7convertEPKviRNSt7__cxx1112basic_stringIcSt11char_traitsIcESaIcEEE
libPocoFoundation.so.94:_ZN4Poco13TextConverter7convertEPKviRNSt7__cxx1112basic_stringIcSt11char_traitsIcESaIcEEEPFiiE
libPocoFoundation.so.94:_ZN4Poco13TextConverter7convertERKNSt7__cxx1112basic_stringIcSt11char_traitsIcESaIcEEERS6_
libPocoFoundation.so.94:_ZN4Poco13TextConverter7convertERKNSt7__cxx1112basic_stringIcSt11char_traitsIcESaIcEEERS6_PFiiE
libPocoFoundation.so.94:_ZN4Poco13TextConverterC1ERKNS_12TextEncodingES3_i
libPocoFoundation.so.94:_ZN4Poco13TextConverterC2ERKNS_12TextEncodingES3_i
libPocoFoundation.so.94:_ZN4Poco13TextConverterD1Ev
libPocoFoundation.so.94:_ZN4Poco13TextConverterD2Ev
libPocoFoundation.so.94:_ZN4Poco13UTF16Encoding12setByteOrderENS0_13ByteOrderTypeE
libPocoFoundation.so.94:_ZN4Poco13UTF16Encoding12setByteOrderEi
libPocoFoundation.so.94:_ZN4Poco13UTF16Encoding6_namesE
libPocoFoundation.so.94:_ZN4Poco13UTF16Encoding8_charMapE
libPocoFoundation.so.94:_ZN4Poco13UTF16EncodingC1ENS0_13ByteOrderTypeE
libPocoFoundation.so.94:_ZN4Poco13UTF16EncodingC1Ei
libPocoFoundation.so.94:_ZN4Poco13UTF16EncodingC2ENS0_13ByteOrderTypeE
libPocoFoundation.so.94:_ZN4Poco13UTF16EncodingC2Ei
libPocoFoundation.so.94:_ZN4Poco13UTF16EncodingD0Ev
libPocoFoundation.so.94:_ZN4Poco13UTF16EncodingD1Ev
libPocoFoundation.so.94:_ZN4Poco13UTF16EncodingD2Ev
libPocoFoundation.so.94:_ZN4Poco13UTF32Encoding12setByteOrderENS0_13ByteOrderTypeE
libPocoFoundation.so.94:_ZN4Poco13UTF32Encoding12setByteOrderEi
libPocoFoundation.so.94:_ZN4Poco13UTF32Encoding6_namesE
libPocoFoundation.so.94:_ZN4Poco13UTF32Encoding8_charMapE
libPocoFoundation.so.94:_ZN4Poco13UTF32EncodingC1ENS0_13ByteOrderTypeE
libPocoFoundation.so.94:_ZN4Poco13UTF32EncodingC1Ei
libPocoFoundation.so.94:_ZN4Poco13UTF32EncodingC2ENS0_13ByteOrderTypeE
libPocoFoundation.so.94:_ZN4Poco13UTF32EncodingC2Ei
libPocoFoundation.so.94:_ZN4Poco13UTF32EncodingD0Ev
libPocoFoundation.so.94:_ZN4Poco13UTF32EncodingD1Ev
libPocoFoundation.so.94:_ZN4Poco13UTF32EncodingD2Ev
libPocoFoundation.so.94:_ZN4Poco13UUIDGenerator12createRandomEv
libPocoFoundation.so.94:_ZN4Poco13UUIDGenerator14createFromNameERKNS_4UUIDERKNSt7__cxx1112basic_stringIcSt11char_traitsIcESaIcEEE
libPocoFoundation.so.94:_ZN4Poco13UUIDGenerator14createFromNameERKNS_4UUIDERKNSt7__cxx1112basic_stringIcSt11char_traitsIcESaIcEEERNS_12DigestEngineE
libPocoFoundation.so.94:_ZN4Poco13UUIDGenerator14createFromNameERKNS_4UUIDERKNSt7__cxx1112basic_stringIcSt11char_traitsIcESaIcEEERNS_12DigestEngineENS1_7VersionE
libPocoFoundation.so.94:_ZN4Poco13UUIDGenerator16defaultGeneratorEv
libPocoFoundation.so.94:_ZN4Poco13UUIDGenerator4seedEj
libPocoFoundation.so.94:_ZN4Poco13UUIDGenerator4seedEv
libPocoFoundation.so.94:_ZN4Poco13UUIDGenerator6createEv
libPocoFoundation.so.94:_ZN4Poco13UUIDGenerator9createOneEv
libPocoFoundation.so.94:_ZN4Poco13UUIDGenerator9timeStampEv
libPocoFoundation.so.94:_ZN4Poco13UUIDGeneratorC1Ev
libPocoFoundation.so.94:_ZN4Poco13UUIDGeneratorC2Ev
libPocoFoundation.so.94:_ZN4Poco13UUIDGeneratorD1Ev
libPocoFoundation.so.94:_ZN4Poco13UUIDGeneratorD2Ev
libPocoFoundation.so.94:_ZN4Poco14ConsoleChannel3logERKNS_7MessageE
libPocoFoundation.so.94:_ZN4Poco14ConsoleChannel6_mutexE
libPocoFoundation.so.94:_ZN4Poco14ConsoleChannelC1ERSo
libPocoFoundation.so.94:_ZN4Poco14ConsoleChannelC1Ev
libPocoFoundation.so.94:_ZN4Poco14ConsoleChannelC2ERSo
libPocoFoundation.so.94:_ZN4Poco14ConsoleChannelC2Ev
libPocoFoundation.so.94:_ZN4Poco14ConsoleChannelD0Ev
libPocoFoundation.so.94:_ZN4Poco14ConsoleChannelD1Ev
libPocoFoundation.so.94:_ZN4Poco14ConsoleChannelD2Ev
libPocoFoundation.so.94:_ZN4Poco14DateTimeFormat11HTTP_FORMATB5cxx11E
libPocoFoundation.so.94:_ZN4Poco14DateTimeFormat11MONTH_NAMESB5cxx11E
libPocoFoundation.so.94:_ZN4Poco14DateTimeFormat13RFC822_FORMATB5cxx11E
libPocoFoundation.so.94:_ZN4Poco14DateTimeFormat13RFC850_FORMATB5cxx11E
libPocoFoundation.so.94:_ZN4Poco14DateTimeFormat13WEEKDAY_NAMESB5cxx11E
libPocoFoundation.so.94:_ZN4Poco14DateTimeFormat14ASCTIME_FORMATB5cxx11E
libPocoFoundation.so.94:_ZN4Poco14DateTimeFormat14ISO8601_FORMATB5cxx11E
libPocoFoundation.so.94:_ZN4Poco14DateTimeFormat14RFC1036_FORMATB5cxx11E
libPocoFoundation.so.94:_ZN4Poco14DateTimeFormat14RFC1123_FORMATB5cxx11E
libPocoFoundation.so.94:_ZN4Poco14DateTimeFormat15SORTABLE_FORMATB5cxx11E
libPocoFoundation.so.94:_ZN4Poco14DateTimeFormat19ISO8601_FRAC_FORMATB5cxx11E
libPocoFoundation.so.94:_ZN4Poco14DateTimeParser10parseMonthERN9__gnu_cxx17__normal_iteratorIPKcNSt7__cxx1112basic_stringIcSt11char_traitsIcESaIcEEEEERKSB_
libPocoFoundation.so.94:_ZN4Poco14DateTimeParser14parseDayOfWeekERN9__gnu_cxx17__normal_iteratorIPKcNSt7__cxx1112basic_stringIcSt11char_traitsIcESaIcEEEEERKSB_
libPocoFoundation.so.94:_ZN4Poco14DateTimeParser5parseERKNSt7__cxx1112basic_stringIcSt11char_traitsIcESaIcEEERNS_8DateTimeERi
libPocoFoundation.so.94:_ZN4Poco14DateTimeParser5parseERKNSt7__cxx1112basic_stringIcSt11char_traitsIcESaIcEEERi
libPocoFoundation.so.94:_ZN4Poco14DateTimeParser5parseERKNSt7__cxx1112basic_stringIcSt11char_traitsIcESaIcEEES8_RNS_8DateTimeERi
libPocoFoundation.so.94:_ZN4Poco14DateTimeParser5parseERKNSt7__cxx1112basic_stringIcSt11char_traitsIcESaIcEEES8_Ri
libPocoFoundation.so.94:_ZN4Poco14DateTimeParser8parseTZDERN9__gnu_cxx17__normal_iteratorIPKcNSt7__cxx1112basic_stringIcSt11char_traitsIcESaIcEEEEERKSB_
libPocoFoundation.so.94:_ZN4Poco14DateTimeParser8tryParseERKNSt7__cxx1112basic_stringIcSt11char_traitsIcESaIcEEERNS_8DateTimeERi
libPocoFoundation.so.94:_ZN4Poco14DateTimeParser8tryParseERKNSt7__cxx1112basic_stringIcSt11char_traitsIcESaIcEEES8_RNS_8DateTimeERi
libPocoFoundation.so.94:_ZN4Poco14DateTimeParser9parseAMPMERN9__gnu_cxx17__normal_iteratorIPKcNSt7__cxx1112basic_stringIcSt11char_traitsIcESaIcEEEEERKSB_i
libPocoFoundation.so.94:_ZN4Poco14Latin1Encoding6_namesE
libPocoFoundation.so.94:_ZN4Poco14Latin1Encoding8_charMapE
libPocoFoundation.so.94:_ZN4Poco14Latin1EncodingC1Ev
libPocoFoundation.so.94:_ZN4Poco14Latin1EncodingC2Ev
libPocoFoundation.so.94:_ZN4Poco14Latin1EncodingD0Ev
libPocoFoundation.so.94:_ZN4Poco14Latin1EncodingD1Ev
libPocoFoundation.so.94:_ZN4Poco14Latin1EncodingD2Ev
libPocoFoundation.so.94:_ZN4Poco14Latin2Encoding6_namesE
libPocoFoundation.so.94:_ZN4Poco14Latin2Encoding8_charMapE
libPocoFoundation.so.94:_ZN4Poco14Latin2EncodingC1Ev
libPocoFoundation.so.94:_ZN4Poco14Latin2EncodingC2Ev
libPocoFoundation.so.94:_ZN4Poco14Latin2EncodingD0Ev
libPocoFoundation.so.94:_ZN4Poco14Latin2EncodingD1Ev
libPocoFoundation.so.94:_ZN4Poco14Latin2EncodingD2Ev
libPocoFoundation.so.94:_ZN4Poco14Latin9Encoding6_namesE
libPocoFoundation.so.94:_ZN4Poco14Latin9Encoding8_charMapE
libPocoFoundation.so.94:_ZN4Poco14Latin9EncodingC1Ev
libPocoFoundation.so.94:_ZN4Poco14Latin9EncodingC2Ev
libPocoFoundation.so.94:_ZN4Poco14Latin9EncodingD0Ev
libPocoFoundation.so.94:_ZN4Poco14Latin9EncodingD1Ev
libPocoFoundation.so.94:_ZN4Poco14Latin9EncodingD2Ev
libPocoFoundation.so.94:_ZN4Poco14LoggingFactory14defaultFactoryEv
libPocoFoundation.so.94:_ZN4Poco14LoggingFactory16registerBuiltinsEv
libPocoFoundation.so.94:_ZN4Poco14LoggingFactory20registerChannelClassERKNSt7__cxx1112basic_stringIcSt11char_traitsIcESaIcEEEPNS_20AbstractInstantiatorINS_7ChannelEEE
libPocoFoundation.so.94:_ZN4Poco14LoggingFactory22registerFormatterClassERKNSt7__cxx1112basic_stringIcSt11char_traitsIcESaIcEEEPNS_20AbstractInstantiatorINS_9FormatterEEE
libPocoFoundation.so.94:_ZN4Poco14LoggingFactoryC1Ev
libPocoFoundation.so.94:_ZN4Poco14LoggingFactoryC2Ev
libPocoFoundation.so.94:_ZN4Poco14LoggingFactoryD1Ev
libPocoFoundation.so.94:_ZN4Poco14LoggingFactoryD2Ev
libPocoFoundation.so.94:_ZN4Poco14LogicExceptionC1ERKNSt7__cxx1112basic_stringIcSt11char_traitsIcESaIcEEERKNS_9ExceptionEi
libPocoFoundation.so.94:_ZN4Poco14LogicExceptionC1ERKNSt7__cxx1112basic_stringIcSt11char_traitsIcESaIcEEES8_i
libPocoFoundation.so.94:_ZN4Poco14LogicExceptionC1ERKNSt7__cxx1112basic_stringIcSt11char_traitsIcESaIcEEEi
libPocoFoundation.so.94:_ZN4Poco14LogicExceptionC1ERKS0_
libPocoFoundation.so.94:_ZN4Poco14LogicExceptionC1Ei
libPocoFoundation.so.94:_ZN4Poco14LogicExceptionC2ERKNSt7__cxx1112basic_stringIcSt11char_traitsIcESaIcEEERKNS_9ExceptionEi
libPocoFoundation.so.94:_ZN4Poco14LogicExceptionC2ERKNSt7__cxx1112basic_stringIcSt11char_traitsIcESaIcEEES8_i
libPocoFoundation.so.94:_ZN4Poco14LogicExceptionC2ERKNSt7__cxx1112basic_stringIcSt11char_traitsIcESaIcEEEi
libPocoFoundation.so.94:_ZN4Poco14LogicExceptionC2ERKS0_
libPocoFoundation.so.94:_ZN4Poco14LogicExceptionC2Ei
libPocoFoundation.so.94:_ZN4Poco14LogicExceptionD0Ev
libPocoFoundation.so.94:_ZN4Poco14LogicExceptionD1Ev
libPocoFoundation.so.94:_ZN4Poco14LogicExceptionD2Ev
libPocoFoundation.so.94:_ZN4Poco14LogicExceptionaSERKS0_
libPocoFoundation.so.94:_ZN4Poco14NamedEventImpl11getFileNameB5cxx11Ev
libPocoFoundation.so.94:_ZN4Poco14NamedEventImpl7setImplEv
libPocoFoundation.so.94:_ZN4Poco14NamedEventImpl8waitImplEv
libPocoFoundation.so.94:_ZN4Poco14NamedEventImplC1ERKNSt7__cxx1112basic_stringIcSt11char_traitsIcESaIcEEE
libPocoFoundation.so.94:_ZN4Poco14NamedEventImplC2ERKNSt7__cxx1112basic_stringIcSt11char_traitsIcESaIcEEE
libPocoFoundation.so.94:_ZN4Poco14NamedEventImplD1Ev
libPocoFoundation.so.94:_ZN4Poco14NamedEventImplD2Ev
libPocoFoundation.so.94:_ZN4Poco14NamedMutexImpl10unlockImplEv
libPocoFoundation.so.94:_ZN4Poco14NamedMutexImpl11getFileNameB5cxx11Ev
libPocoFoundation.so.94:_ZN4Poco14NamedMutexImpl11tryLockImplEv
libPocoFoundation.so.94:_ZN4Poco14NamedMutexImpl8lockImplEv
libPocoFoundation.so.94:_ZN4Poco14NamedMutexImplC1ERKNSt7__cxx1112basic_stringIcSt11char_traitsIcESaIcEEE
libPocoFoundation.so.94:_ZN4Poco14NamedMutexImplC2ERKNSt7__cxx1112basic_stringIcSt11char_traitsIcESaIcEEE
libPocoFoundation.so.94:_ZN4Poco14NamedMutexImplD1Ev
libPocoFoundation.so.94:_ZN4Poco14NamedMutexImplD2Ev
libPocoFoundation.so.94:_ZN4Poco14RangeExceptionC1ERKNSt7__cxx1112basic_stringIcSt11char_traitsIcESaIcEEERKNS_9ExceptionEi
libPocoFoundation.so.94:_ZN4Poco14RangeExceptionC1ERKNSt7__cxx1112basic_stringIcSt11char_traitsIcESaIcEEES8_i
libPocoFoundation.so.94:_ZN4Poco14RangeExceptionC1ERKNSt7__cxx1112basic_stringIcSt11char_traitsIcESaIcEEEi
libPocoFoundation.so.94:_ZN4Poco14RangeExceptionC1ERKS0_
libPocoFoundation.so.94:_ZN4Poco14RangeExceptionC1Ei
libPocoFoundation.so.94:_ZN4Poco14RangeExceptionC2ERKNSt7__cxx1112basic_stringIcSt11char_traitsIcESaIcEEERKNS_9ExceptionEi
libPocoFoundation.so.94:_ZN4Poco14RangeExceptionC2ERKNSt7__cxx1112basic_stringIcSt11char_traitsIcESaIcEEES8_i
libPocoFoundation.so.94:_ZN4Poco14RangeExceptionC2ERKNSt7__cxx1112basic_stringIcSt11char_traitsIcESaIcEEEi
libPocoFoundation.so.94:_ZN4Poco14RangeExceptionC2ERKS0_
libPocoFoundation.so.94:_ZN4Poco14RangeExceptionC2Ei
libPocoFoundation.so.94:_ZN4Poco14RangeExceptionD0Ev
libPocoFoundation.so.94:_ZN4Poco14RangeExceptionD1Ev
libPocoFoundation.so.94:_ZN4Poco14RangeExceptionD2Ev
libPocoFoundation.so.94:_ZN4Poco14RangeExceptionaSERKS0_
libPocoFoundation.so.94:_ZN4Poco14RotateStrategyC1Ev
libPocoFoundation.so.94:_ZN4Poco14RotateStrategyC2Ev
libPocoFoundation.so.94:_ZN4Poco14RotateStrategyD0Ev
libPocoFoundation.so.94:_ZN4Poco14RotateStrategyD1Ev
libPocoFoundation.so.94:_ZN4Poco14RotateStrategyD2Ev
libPocoFoundation.so.94:_ZN4Poco14TeeInputStreamC1ERSi
libPocoFoundation.so.94:_ZN4Poco14TeeInputStreamC2ERSi
libPocoFoundation.so.94:_ZN4Poco14TeeInputStreamD0Ev
libPocoFoundation.so.94:_ZN4Poco14TeeInputStreamD1Ev
libPocoFoundation.so.94:_ZN4Poco14TeeInputStreamD2Ev
libPocoFoundation.so.94:_ZN4Poco14URIRedirection4swapERS0_
libPocoFoundation.so.94:_ZN4Poco14URIRedirectionC1ERKNSt7__cxx1112basic_stringIcSt11char_traitsIcESaIcEEE
libPocoFoundation.so.94:_ZN4Poco14URIRedirectionC1ERKS0_
libPocoFoundation.so.94:_ZN4Poco14URIRedirectionC2ERKNSt7__cxx1112basic_stringIcSt11char_traitsIcESaIcEEE
libPocoFoundation.so.94:_ZN4Poco14URIRedirectionC2ERKS0_
libPocoFoundation.so.94:_ZN4Poco14URIRedirectionaSERKS0_
libPocoFoundation.so.94:_ZN4Poco15ArchiveStrategy6existsERKNSt7__cxx1112basic_stringIcSt11char_traitsIcESaIcEEE
libPocoFoundation.so.94:_ZN4Poco15ArchiveStrategy8compressEb
libPocoFoundation.so.94:_ZN4Poco15ArchiveStrategy8moveFileERKNSt7__cxx1112basic_stringIcSt11char_traitsIcESaIcEEES8_
libPocoFoundation.so.94:_ZN4Poco15ArchiveStrategyC1Ev
libPocoFoundation.so.94:_ZN4Poco15ArchiveStrategyC2Ev
libPocoFoundation.so.94:_ZN4Poco15ArchiveStrategyD0Ev
libPocoFoundation.so.94:_ZN4Poco15ArchiveStrategyD1Ev
libPocoFoundation.so.94:_ZN4Poco15ArchiveStrategyD2Ev
libPocoFoundation.so.94:_ZN4Poco15EnvironmentImpl10nodeIdImplERA6_h
libPocoFoundation.so.94:_ZN4Poco15EnvironmentImpl10osNameImplB5cxx11Ev
libPocoFoundation.so.94:_ZN4Poco15EnvironmentImpl12nodeNameImplB5cxx11Ev
libPocoFoundation.so.94:_ZN4Poco15EnvironmentImpl13osVersionImplB5cxx11Ev
libPocoFoundation.so.94:_ZN4Poco15EnvironmentImpl17osDisplayNameImplB5cxx11Ev
libPocoFoundation.so.94:_ZN4Poco15EnvironmentImpl18osArchitectureImplB5cxx11Ev
libPocoFoundation.so.94:_ZN4Poco15EnvironmentImpl18processorCountImplEv
libPocoFoundation.so.94:_ZN4Poco15EnvironmentImpl4_mapB5cxx11E
libPocoFoundation.so.94:_ZN4Poco15EnvironmentImpl6_mutexE
libPocoFoundation.so.94:_ZN4Poco15EnvironmentImpl7getImplERKNSt7__cxx1112basic_stringIcSt11char_traitsIcESaIcEEE
libPocoFoundation.so.94:_ZN4Poco15EnvironmentImpl7hasImplERKNSt7__cxx1112basic_stringIcSt11char_traitsIcESaIcEEE
libPocoFoundation.so.94:_ZN4Poco15EnvironmentImpl7setImplERKNSt7__cxx1112basic_stringIcSt11char_traitsIcESaIcEEES8_
libPocoFoundation.so.94:_ZN4Poco15ExistsExceptionC1ERKNSt7__cxx1112basic_stringIcSt11char_traitsIcESaIcEEERKNS_9ExceptionEi
libPocoFoundation.so.94:_ZN4Poco15ExistsExceptionC1ERKNSt7__cxx1112basic_stringIcSt11char_traitsIcESaIcEEES8_i
libPocoFoundation.so.94:_ZN4Poco15ExistsExceptionC1ERKNSt7__cxx1112basic_stringIcSt11char_traitsIcESaIcEEEi
libPocoFoundation.so.94:_ZN4Poco15ExistsExceptionC1ERKS0_
libPocoFoundation.so.94:_ZN4Poco15ExistsExceptionC1Ei
libPocoFoundation.so.94:_ZN4Poco15ExistsExceptionC2ERKNSt7__cxx1112basic_stringIcSt11char_traitsIcESaIcEEERKNS_9ExceptionEi
libPocoFoundation.so.94:_ZN4Poco15ExistsExceptionC2ERKNSt7__cxx1112basic_stringIcSt11char_traitsIcESaIcEEES8_i
libPocoFoundation.so.94:_ZN4Poco15ExistsExceptionC2ERKNSt7__cxx1112basic_stringIcSt11char_traitsIcESaIcEEEi
libPocoFoundation.so.94:_ZN4Poco15ExistsExceptionC2ERKS0_
libPocoFoundation.so.94:_ZN4Poco15ExistsExceptionC2Ei
libPocoFoundation.so.94:_ZN4Poco15ExistsExceptionD0Ev
libPocoFoundation.so.94:_ZN4Poco15ExistsExceptionD1Ev
libPocoFoundation.so.94:_ZN4Poco15ExistsExceptionD2Ev
libPocoFoundation.so.94:_ZN4Poco15ExistsExceptionaSERKS0_
libPocoFoundation.so.94:_ZN4Poco15FileInputStreamC1ERKNSt7__cxx1112basic_stringIcSt11char_traitsIcESaIcEEESt13_Ios_Openmode
libPocoFoundation.so.94:_ZN4Poco15FileInputStreamC1Ev
libPocoFoundation.so.94:_ZN4Poco15FileInputStreamC2ERKNSt7__cxx1112basic_stringIcSt11char_traitsIcESaIcEEESt13_Ios_Openmode
libPocoFoundation.so.94:_ZN4Poco15FileInputStreamC2Ev
libPocoFoundation.so.94:_ZN4Poco15FileInputStreamD0Ev
libPocoFoundation.so.94:_ZN4Poco15FileInputStreamD1Ev
libPocoFoundation.so.94:_ZN4Poco15FileInputStreamD2Ev
libPocoFoundation.so.94:_ZN4Poco15LoggingRegistry15defaultRegistryEv
libPocoFoundation.so.94:_ZN4Poco15LoggingRegistry15registerChannelERKNSt7__cxx1112basic_stringIcSt11char_traitsIcESaIcEEENS_7AutoPtrINS_7ChannelEEE
libPocoFoundation.so.94:_ZN4Poco15LoggingRegistry17registerFormatterERKNSt7__cxx1112basic_stringIcSt11char_traitsIcESaIcEEENS_7AutoPtrINS_9FormatterEEE
libPocoFoundation.so.94:_ZN4Poco15LoggingRegistry17unregisterChannelERKNSt7__cxx1112basic_stringIcSt11char_traitsIcESaIcEEE
libPocoFoundation.so.94:_ZN4Poco15LoggingRegistry19unregisterFormatterERKNSt7__cxx1112basic_stringIcSt11char_traitsIcESaIcEEE
libPocoFoundation.so.94:_ZN4Poco15LoggingRegistry5clearEv
libPocoFoundation.so.94:_ZN4Poco15LoggingRegistryC1Ev
libPocoFoundation.so.94:_ZN4Poco15LoggingRegistryC2Ev
libPocoFoundation.so.94:_ZN4Poco15LoggingRegistryD1Ev
libPocoFoundation.so.94:_ZN4Poco15LoggingRegistryD2Ev
libPocoFoundation.so.94:_ZN4Poco15NullInputStreamC1Ev
libPocoFoundation.so.94:_ZN4Poco15NullInputStreamC2Ev
libPocoFoundation.so.94:_ZN4Poco15NullInputStreamD0Ev
libPocoFoundation.so.94:_ZN4Poco15NullInputStreamD1Ev
libPocoFoundation.so.94:_ZN4Poco15NullInputStreamD2Ev
libPocoFoundation.so.94:_ZN4Poco15NumberFormatter6appendERNSt7__cxx1112basic_stringIcSt11char_traitsIcESaIcEEEPKv
libPocoFoundation.so.94:_ZN4Poco15NumberFormatter6appendERNSt7__cxx1112basic_stringIcSt11char_traitsIcESaIcEEEd
libPocoFoundation.so.94:_ZN4Poco15NumberFormatter6appendERNSt7__cxx1112basic_stringIcSt11char_traitsIcESaIcEEEdi
libPocoFoundation.so.94:_ZN4Poco15NumberFormatter6appendERNSt7__cxx1112basic_stringIcSt11char_traitsIcESaIcEEEdii
libPocoFoundation.so.94:_ZN4Poco15NumberFormatter6appendERNSt7__cxx1112basic_stringIcSt11char_traitsIcESaIcEEEf
libPocoFoundation.so.94:_ZN4Poco15NumberFormatter6appendERNSt7__cxx1112basic_stringIcSt11char_traitsIcESaIcEEEfi
libPocoFoundation.so.94:_ZN4Poco15NumberFormatter6appendERNSt7__cxx1112basic_stringIcSt11char_traitsIcESaIcEEEfii
libPocoFoundation.so.94:_ZN4Poco15NumberFormatter6appendERNSt7__cxx1112basic_stringIcSt11char_traitsIcESaIcEEEi
libPocoFoundation.so.94:_ZN4Poco15NumberFormatter6appendERNSt7__cxx1112basic_stringIcSt11char_traitsIcESaIcEEEii
libPocoFoundation.so.94:_ZN4Poco15NumberFormatter6appendERNSt7__cxx1112basic_stringIcSt11char_traitsIcESaIcEEEj
libPocoFoundation.so.94:_ZN4Poco15NumberFormatter6appendERNSt7__cxx1112basic_stringIcSt11char_traitsIcESaIcEEEji
libPocoFoundation.so.94:_ZN4Poco15NumberFormatter6appendERNSt7__cxx1112basic_stringIcSt11char_traitsIcESaIcEEEl
libPocoFoundation.so.94:_ZN4Poco15NumberFormatter6appendERNSt7__cxx1112basic_stringIcSt11char_traitsIcESaIcEEEli
libPocoFoundation.so.94:_ZN4Poco15NumberFormatter6appendERNSt7__cxx1112basic_stringIcSt11char_traitsIcESaIcEEEm
libPocoFoundation.so.94:_ZN4Poco15NumberFormatter6appendERNSt7__cxx1112basic_stringIcSt11char_traitsIcESaIcEEEmi
libPocoFoundation.so.94:_ZN4Poco15NumberFormatter6appendERNSt7__cxx1112basic_stringIcSt11char_traitsIcESaIcEEEx
libPocoFoundation.so.94:_ZN4Poco15NumberFormatter6appendERNSt7__cxx1112basic_stringIcSt11char_traitsIcESaIcEEExi
libPocoFoundation.so.94:_ZN4Poco15NumberFormatter6appendERNSt7__cxx1112basic_stringIcSt11char_traitsIcESaIcEEEy
libPocoFoundation.so.94:_ZN4Poco15NumberFormatter6appendERNSt7__cxx1112basic_stringIcSt11char_traitsIcESaIcEEEyi
libPocoFoundation.so.94:_ZN4Poco15NumberFormatter6formatB5cxx11EbNS0_10BoolFormatE
libPocoFoundation.so.94:_ZN4Poco15NumberFormatter7append0ERNSt7__cxx1112basic_stringIcSt11char_traitsIcESaIcEEEii
libPocoFoundation.so.94:_ZN4Poco15NumberFormatter7append0ERNSt7__cxx1112basic_stringIcSt11char_traitsIcESaIcEEEji
libPocoFoundation.so.94:_ZN4Poco15NumberFormatter7append0ERNSt7__cxx1112basic_stringIcSt11char_traitsIcESaIcEEEli
libPocoFoundation.so.94:_ZN4Poco15NumberFormatter7append0ERNSt7__cxx1112basic_stringIcSt11char_traitsIcESaIcEEEmi
libPocoFoundation.so.94:_ZN4Poco15NumberFormatter7append0ERNSt7__cxx1112basic_stringIcSt11char_traitsIcESaIcEEExi
libPocoFoundation.so.94:_ZN4Poco15NumberFormatter7append0ERNSt7__cxx1112basic_stringIcSt11char_traitsIcESaIcEEEyi
libPocoFoundation.so.94:_ZN4Poco15NumberFormatter9appendHexERNSt7__cxx1112basic_stringIcSt11char_traitsIcESaIcEEEi
libPocoFoundation.so.94:_ZN4Poco15NumberFormatter9appendHexERNSt7__cxx1112basic_stringIcSt11char_traitsIcESaIcEEEii
libPocoFoundation.so.94:_ZN4Poco15NumberFormatter9appendHexERNSt7__cxx1112basic_stringIcSt11char_traitsIcESaIcEEEj
libPocoFoundation.so.94:_ZN4Poco15NumberFormatter9appendHexERNSt7__cxx1112basic_stringIcSt11char_traitsIcESaIcEEEji
libPocoFoundation.so.94:_ZN4Poco15NumberFormatter9appendHexERNSt7__cxx1112basic_stringIcSt11char_traitsIcESaIcEEEl
libPocoFoundation.so.94:_ZN4Poco15NumberFormatter9appendHexERNSt7__cxx1112basic_stringIcSt11char_traitsIcESaIcEEEli
libPocoFoundation.so.94:_ZN4Poco15NumberFormatter9appendHexERNSt7__cxx1112basic_stringIcSt11char_traitsIcESaIcEEEm
libPocoFoundation.so.94:_ZN4Poco15NumberFormatter9appendHexERNSt7__cxx1112basic_stringIcSt11char_traitsIcESaIcEEEmi
libPocoFoundation.so.94:_ZN4Poco15NumberFormatter9appendHexERNSt7__cxx1112basic_stringIcSt11char_traitsIcESaIcEEEx
libPocoFoundation.so.94:_ZN4Poco15NumberFormatter9appendHexERNSt7__cxx1112basic_stringIcSt11char_traitsIcESaIcEEExi
libPocoFoundation.so.94:_ZN4Poco15NumberFormatter9appendHexERNSt7__cxx1112basic_stringIcSt11char_traitsIcESaIcEEEy
libPocoFoundation.so.94:_ZN4Poco15NumberFormatter9appendHexERNSt7__cxx1112basic_stringIcSt11char_traitsIcESaIcEEEyi
libPocoFoundation.so.94:_ZN4Poco15PipeInputStreamC1ERKNS_4PipeE
libPocoFoundation.so.94:_ZN4Poco15PipeInputStreamC2ERKNS_4PipeE
libPocoFoundation.so.94:_ZN4Poco15PipeInputStreamD0Ev
libPocoFoundation.so.94:_ZN4Poco15PipeInputStreamD1Ev
libPocoFoundation.so.94:_ZN4Poco15PipeInputStreamD2Ev
libPocoFoundation.so.94:_ZN4Poco15SignalExceptionC1ERKNSt7__cxx1112basic_stringIcSt11char_traitsIcESaIcEEERKNS_9ExceptionEi
libPocoFoundation.so.94:_ZN4Poco15SignalExceptionC1ERKNSt7__cxx1112basic_stringIcSt11char_traitsIcESaIcEEES8_i
libPocoFoundation.so.94:_ZN4Poco15SignalExceptionC1ERKNSt7__cxx1112basic_stringIcSt11char_traitsIcESaIcEEEi
libPocoFoundation.so.94:_ZN4Poco15SignalExceptionC1ERKS0_
libPocoFoundation.so.94:_ZN4Poco15SignalExceptionC1Ei
libPocoFoundation.so.94:_ZN4Poco15SignalExceptionC2ERKNSt7__cxx1112basic_stringIcSt11char_traitsIcESaIcEEERKNS_9ExceptionEi
libPocoFoundation.so.94:_ZN4Poco15SignalExceptionC2ERKNSt7__cxx1112basic_stringIcSt11char_traitsIcESaIcEEES8_i
libPocoFoundation.so.94:_ZN4Poco15SignalExceptionC2ERKNSt7__cxx1112basic_stringIcSt11char_traitsIcESaIcEEEi
libPocoFoundation.so.94:_ZN4Poco15SignalExceptionC2ERKS0_
libPocoFoundation.so.94:_ZN4Poco15SignalExceptionC2Ei
libPocoFoundation.so.94:_ZN4Poco15SignalExceptionD0Ev
libPocoFoundation.so.94:_ZN4Poco15SignalExceptionD1Ev
libPocoFoundation.so.94:_ZN4Poco15SignalExceptionD2Ev
libPocoFoundation.so.94:_ZN4Poco15SignalExceptionaSERKS0_
libPocoFoundation.so.94:_ZN4Poco15SplitterChannel10addChannelENS_7AutoPtrINS_7ChannelEEE
libPocoFoundation.so.94:_ZN4Poco15SplitterChannel11setPropertyERKNSt7__cxx1112basic_stringIcSt11char_traitsIcESaIcEEES8_
libPocoFoundation.so.94:_ZN4Poco15SplitterChannel13removeChannelENS_7AutoPtrINS_7ChannelEEE
libPocoFoundation.so.94:_ZN4Poco15SplitterChannel3logERKNS_7MessageE
libPocoFoundation.so.94:_ZN4Poco15SplitterChannel5closeEv
libPocoFoundation.so.94:_ZN4Poco15SplitterChannelC1Ev
libPocoFoundation.so.94:_ZN4Poco15SplitterChannelC2Ev
libPocoFoundation.so.94:_ZN4Poco15SplitterChannelD0Ev
libPocoFoundation.so.94:_ZN4Poco15SplitterChannelD1Ev
libPocoFoundation.so.94:_ZN4Poco15SplitterChannelD2Ev
libPocoFoundation.so.94:_ZN4Poco15StreamTokenizer14attachToStreamERSi
libPocoFoundation.so.94:_ZN4Poco15StreamTokenizer4nextEv
libPocoFoundation.so.94:_ZN4Poco15StreamTokenizer8addTokenEPNS_5TokenE
libPocoFoundation.so.94:_ZN4Poco15StreamTokenizer8addTokenEPNS_5TokenEb
libPocoFoundation.so.94:_ZN4Poco15StreamTokenizerC1ERSi
libPocoFoundation.so.94:_ZN4Poco15StreamTokenizerC1Ev
libPocoFoundation.so.94:_ZN4Poco15StreamTokenizerC2ERSi
libPocoFoundation.so.94:_ZN4Poco15StreamTokenizerC2Ev
libPocoFoundation.so.94:_ZN4Poco15StreamTokenizerD0Ev
libPocoFoundation.so.94:_ZN4Poco15StreamTokenizerD1Ev
libPocoFoundation.so.94:_ZN4Poco15StreamTokenizerD2Ev
libPocoFoundation.so.94:_ZN4Poco15StringTokenizer4trimERNSt7__cxx1112basic_stringIcSt11char_traitsIcESaIcEEE
libPocoFoundation.so.94:_ZN4Poco15StringTokenizer7replaceERKNSt7__cxx1112basic_stringIcSt11char_traitsIcESaIcEEES8_m
libPocoFoundation.so.94:_ZN4Poco15StringTokenizerC1ERKNSt7__cxx1112basic_stringIcSt11char_traitsIcESaIcEEES8_i
libPocoFoundation.so.94:_ZN4Poco15StringTokenizerC2ERKNSt7__cxx1112basic_stringIcSt11char_traitsIcESaIcEEES8_i
libPocoFoundation.so.94:_ZN4Poco15StringTokenizerD1Ev
libPocoFoundation.so.94:_ZN4Poco15StringTokenizerD2Ev
libPocoFoundation.so.94:_ZN4Poco15SyntaxExceptionC1ERKNSt7__cxx1112basic_stringIcSt11char_traitsIcESaIcEEERKNS_9ExceptionEi
libPocoFoundation.so.94:_ZN4Poco15SyntaxExceptionC1ERKNSt7__cxx1112basic_stringIcSt11char_traitsIcESaIcEEES8_i
libPocoFoundation.so.94:_ZN4Poco15SyntaxExceptionC1ERKNSt7__cxx1112basic_stringIcSt11char_traitsIcESaIcEEEi
libPocoFoundation.so.94:_ZN4Poco15SyntaxExceptionC1ERKS0_
libPocoFoundation.so.94:_ZN4Poco15SyntaxExceptionC1Ei
libPocoFoundation.so.94:_ZN4Poco15SyntaxExceptionC2ERKNSt7__cxx1112basic_stringIcSt11char_traitsIcESaIcEEERKNS_9ExceptionEi
libPocoFoundation.so.94:_ZN4Poco15SyntaxExceptionC2ERKNSt7__cxx1112basic_stringIcSt11char_traitsIcESaIcEEES8_i
libPocoFoundation.so.94:_ZN4Poco15SyntaxExceptionC2ERKNSt7__cxx1112basic_stringIcSt11char_traitsIcESaIcEEEi
libPocoFoundation.so.94:_ZN4Poco15SyntaxExceptionC2ERKS0_
libPocoFoundation.so.94:_ZN4Poco15SyntaxExceptionC2Ei
libPocoFoundation.so.94:_ZN4Poco15SyntaxExceptionD0Ev
libPocoFoundation.so.94:_ZN4Poco15SyntaxExceptionD1Ev
libPocoFoundation.so.94:_ZN4Poco15SyntaxExceptionD2Ev
libPocoFoundation.so.94:_ZN4Poco15SyntaxExceptionaSERKS0_
libPocoFoundation.so.94:_ZN4Poco15SystemExceptionC1ERKNSt7__cxx1112basic_stringIcSt11char_traitsIcESaIcEEERKNS_9ExceptionEi
libPocoFoundation.so.94:_ZN4Poco15SystemExceptionC1ERKNSt7__cxx1112basic_stringIcSt11char_traitsIcESaIcEEES8_i
libPocoFoundation.so.94:_ZN4Poco15SystemExceptionC1ERKNSt7__cxx1112basic_stringIcSt11char_traitsIcESaIcEEEi
libPocoFoundation.so.94:_ZN4Poco15SystemExceptionC1ERKS0_
libPocoFoundation.so.94:_ZN4Poco15SystemExceptionC1Ei
libPocoFoundation.so.94:_ZN4Poco15SystemExceptionC2ERKNSt7__cxx1112basic_stringIcSt11char_traitsIcESaIcEEERKNS_9ExceptionEi
libPocoFoundation.so.94:_ZN4Poco15SystemExceptionC2ERKNSt7__cxx1112basic_stringIcSt11char_traitsIcESaIcEEES8_i
libPocoFoundation.so.94:_ZN4Poco15SystemExceptionC2ERKNSt7__cxx1112basic_stringIcSt11char_traitsIcESaIcEEEi
libPocoFoundation.so.94:_ZN4Poco15SystemExceptionC2ERKS0_
libPocoFoundation.so.94:_ZN4Poco15SystemExceptionC2Ei
libPocoFoundation.so.94:_ZN4Poco15SystemExceptionD0Ev
libPocoFoundation.so.94:_ZN4Poco15SystemExceptionD1Ev
libPocoFoundation.so.94:_ZN4Poco15SystemExceptionD2Ev
libPocoFoundation.so.94:_ZN4Poco15SystemExceptionaSERKS0_
libPocoFoundation.so.94:_ZN4Poco15TLSAbstractSlotC1Ev
libPocoFoundation.so.94:_ZN4Poco15TLSAbstractSlotC2Ev
libPocoFoundation.so.94:_ZN4Poco15TLSAbstractSlotD0Ev
libPocoFoundation.so.94:_ZN4Poco15TLSAbstractSlotD1Ev
libPocoFoundation.so.94:_ZN4Poco15TLSAbstractSlotD2Ev
libPocoFoundation.so.94:_ZN4Poco15TeeOutputStreamC1ERSo
libPocoFoundation.so.94:_ZN4Poco15TeeOutputStreamC1Ev
libPocoFoundation.so.94:_ZN4Poco15TeeOutputStreamC2ERSo
libPocoFoundation.so.94:_ZN4Poco15TeeOutputStreamC2Ev
libPocoFoundation.so.94:_ZN4Poco15TeeOutputStreamD0Ev
libPocoFoundation.so.94:_ZN4Poco15TeeOutputStreamD1Ev
libPocoFoundation.so.94:_ZN4Poco15TeeOutputStreamD2Ev
libPocoFoundation.so.94:_ZN4Poco15URIStreamOpener13defaultOpenerEv
libPocoFoundation.so.94:_ZN4Poco15URIStreamOpener14supportsSchemeERKNSt7__cxx1112basic_stringIcSt11char_traitsIcESaIcEEE
libPocoFoundation.so.94:_ZN4Poco15URIStreamOpener21registerStreamFactoryERKNSt7__cxx1112basic_stringIcSt11char_traitsIcESaIcEEEPNS_16URIStreamFactoryE
libPocoFoundation.so.94:_ZN4Poco15URIStreamOpener23unregisterStreamFactoryERKNSt7__cxx1112basic_stringIcSt11char_traitsIcESaIcEEE
libPocoFoundation.so.94:_ZN4Poco15URIStreamOpenerC1Ev
libPocoFoundation.so.94:_ZN4Poco15URIStreamOpenerC2Ev
libPocoFoundation.so.94:_ZN4Poco15URIStreamOpenerD1Ev
libPocoFoundation.so.94:_ZN4Poco15URIStreamOpenerD2Ev
libPocoFoundation.so.94:_ZN4Poco15WhitespaceToken5startEcRSi
libPocoFoundation.so.94:_ZN4Poco15WhitespaceToken6finishERSi
libPocoFoundation.so.94:_ZN4Poco15WhitespaceTokenC1Ev
libPocoFoundation.so.94:_ZN4Poco15WhitespaceTokenC2Ev
libPocoFoundation.so.94:_ZN4Poco15WhitespaceTokenD0Ev
libPocoFoundation.so.94:_ZN4Poco15WhitespaceTokenD1Ev
libPocoFoundation.so.94:_ZN4Poco15WhitespaceTokenD2Ev
libPocoFoundation.so.94:_ZN4Poco15_sha256_processEPNS_11HASHCONTEXTEPKh
libPocoFoundation.so.94:_ZN4Poco15_sha512_processEPNS_11HASHCONTEXTEPKh
libPocoFoundation.so.94:_ZN4Poco15floatToFixedStrEPcifi
libPocoFoundation.so.94:_ZN4Poco15floatToFixedStrERNSt7__cxx1112basic_stringIcSt11char_traitsIcESaIcEEEfiicc
libPocoFoundation.so.94:_ZN4Poco16AbstractObserverC1ERKS0_
libPocoFoundation.so.94:_ZN4Poco16AbstractObserverC1Ev
libPocoFoundation.so.94:_ZN4Poco16AbstractObserverC2ERKS0_
libPocoFoundation.so.94:_ZN4Poco16AbstractObserverC2Ev
libPocoFoundation.so.94:_ZN4Poco16AbstractObserverD0Ev
libPocoFoundation.so.94:_ZN4Poco16AbstractObserverD1Ev
libPocoFoundation.so.94:_ZN4Poco16AbstractObserverD2Ev
libPocoFoundation.so.94:_ZN4Poco16AbstractObserveraSERKS0_
libPocoFoundation.so.94:_ZN4Poco16ActiveDispatcher3runEv
libPocoFoundation.so.94:_ZN4Poco16ActiveDispatcher4stopEv
libPocoFoundation.so.94:_ZN4Poco16ActiveDispatcher5startENS_7AutoPtrINS_18ActiveRunnableBaseEEE
libPocoFoundation.so.94:_ZN4Poco16ActiveDispatcher6cancelEv
libPocoFoundation.so.94:_ZN4Poco16ActiveDispatcherC1ENS_6Thread8PriorityE
libPocoFoundation.so.94:_ZN4Poco16ActiveDispatcherC1Ev
libPocoFoundation.so.94:_ZN4Poco16ActiveDispatcherC2ENS_6Thread8PriorityE
libPocoFoundation.so.94:_ZN4Poco16ActiveDispatcherC2Ev
libPocoFoundation.so.94:_ZN4Poco16ActiveDispatcherD0Ev
libPocoFoundation.so.94:_ZN4Poco16ActiveDispatcherD1Ev
libPocoFoundation.so.94:_ZN4Poco16ActiveDispatcherD2Ev
libPocoFoundation.so.94:_ZN4Poco16BadCastExceptionC1ERKNSt7__cxx1112basic_stringIcSt11char_traitsIcESaIcEEERKNS_9ExceptionEi
libPocoFoundation.so.94:_ZN4Poco16BadCastExceptionC1ERKNSt7__cxx1112basic_stringIcSt11char_traitsIcESaIcEEES8_i
libPocoFoundation.so.94:_ZN4Poco16BadCastExceptionC1ERKNSt7__cxx1112basic_stringIcSt11char_traitsIcESaIcEEEi
libPocoFoundation.so.94:_ZN4Poco16BadCastExceptionC1ERKS0_
libPocoFoundation.so.94:_ZN4Poco16BadCastExceptionC1Ei
libPocoFoundation.so.94:_ZN4Poco16BadCastExceptionC2ERKNSt7__cxx1112basic_stringIcSt11char_traitsIcESaIcEEERKNS_9ExceptionEi
libPocoFoundation.so.94:_ZN4Poco16BadCastExceptionC2ERKNSt7__cxx1112basic_stringIcSt11char_traitsIcESaIcEEES8_i
libPocoFoundation.so.94:_ZN4Poco16BadCastExceptionC2ERKNSt7__cxx1112basic_stringIcSt11char_traitsIcESaIcEEEi
libPocoFoundation.so.94:_ZN4Poco16BadCastExceptionC2ERKS0_
libPocoFoundation.so.94:_ZN4Poco16BadCastExceptionC2Ei
libPocoFoundation.so.94:_ZN4Poco16BadCastExceptionD0Ev
libPocoFoundation.so.94:_ZN4Poco16BadCastExceptionD1Ev
libPocoFoundation.so.94:_ZN4Poco16BadCastExceptionD2Ev
libPocoFoundation.so.94:_ZN4Poco16BadCastExceptionaSERKS0_
libPocoFoundation.so.94:_ZN4Poco16Base32DecoderBuf11IN_ENCODINGE
libPocoFoundation.so.94:_ZN4Poco16Base32DecoderBuf14readFromDeviceEv
libPocoFoundation.so.94:_ZN4Poco16Base32DecoderBuf16IN_ENCODING_INITE
libPocoFoundation.so.94:_ZN4Poco16Base32DecoderBuf7readOneEv
libPocoFoundation.so.94:_ZN4Poco16Base32DecoderBufC1ERSi
libPocoFoundation.so.94:_ZN4Poco16Base32DecoderBufC2ERSi
libPocoFoundation.so.94:_ZN4Poco16Base32DecoderBufD0Ev
libPocoFoundation.so.94:_ZN4Poco16Base32DecoderBufD1Ev
libPocoFoundation.so.94:_ZN4Poco16Base32DecoderBufD2Ev
libPocoFoundation.so.94:_ZN4Poco16Base32DecoderIOS5rdbufEv
libPocoFoundation.so.94:_ZN4Poco16Base32DecoderIOSC1ERSi
libPocoFoundation.so.94:_ZN4Poco16Base32DecoderIOSC2ERSi
libPocoFoundation.so.94:_ZN4Poco16Base32DecoderIOSD0Ev
libPocoFoundation.so.94:_ZN4Poco16Base32DecoderIOSD1Ev
libPocoFoundation.so.94:_ZN4Poco16Base32DecoderIOSD2Ev
libPocoFoundation.so.94:_ZN4Poco16Base32EncoderBuf12OUT_ENCODINGE
libPocoFoundation.so.94:_ZN4Poco16Base32EncoderBuf13writeToDeviceEc
libPocoFoundation.so.94:_ZN4Poco16Base32EncoderBuf5closeEv
libPocoFoundation.so.94:_ZN4Poco16Base32EncoderBufC1ERSob
libPocoFoundation.so.94:_ZN4Poco16Base32EncoderBufC2ERSob
libPocoFoundation.so.94:_ZN4Poco16Base32EncoderBufD0Ev
libPocoFoundation.so.94:_ZN4Poco16Base32EncoderBufD1Ev
libPocoFoundation.so.94:_ZN4Poco16Base32EncoderBufD2Ev
libPocoFoundation.so.94:_ZN4Poco16Base32EncoderIOS5closeEv
libPocoFoundation.so.94:_ZN4Poco16Base32EncoderIOS5rdbufEv
libPocoFoundation.so.94:_ZN4Poco16Base32EncoderIOSC1ERSob
libPocoFoundation.so.94:_ZN4Poco16Base32EncoderIOSC2ERSob
libPocoFoundation.so.94:_ZN4Poco16Base32EncoderIOSD0Ev
libPocoFoundation.so.94:_ZN4Poco16Base32EncoderIOSD1Ev
libPocoFoundation.so.94:_ZN4Poco16Base32EncoderIOSD2Ev
libPocoFoundation.so.94:_ZN4Poco16Base64DecoderBuf11IN_ENCODINGE
libPocoFoundation.so.94:_ZN4Poco16Base64DecoderBuf14readFromDeviceEv
libPocoFoundation.so.94:_ZN4Poco16Base64DecoderBuf15IN_ENCODING_URLE
libPocoFoundation.so.94:_ZN4Poco16Base64DecoderBuf16IN_ENCODING_INITE
libPocoFoundation.so.94:_ZN4Poco16Base64DecoderBuf20IN_ENCODING_URL_INITE
libPocoFoundation.so.94:_ZN4Poco16Base64DecoderBuf7readOneEv
libPocoFoundation.so.94:_ZN4Poco16Base64DecoderBufC1ERSii
libPocoFoundation.so.94:_ZN4Poco16Base64DecoderBufC2ERSii
libPocoFoundation.so.94:_ZN4Poco16Base64DecoderBufD0Ev
libPocoFoundation.so.94:_ZN4Poco16Base64DecoderBufD1Ev
libPocoFoundation.so.94:_ZN4Poco16Base64DecoderBufD2Ev
libPocoFoundation.so.94:_ZN4Poco16Base64DecoderIOS5rdbufEv
libPocoFoundation.so.94:_ZN4Poco16Base64DecoderIOSC1ERSii
libPocoFoundation.so.94:_ZN4Poco16Base64DecoderIOSC2ERSii
libPocoFoundation.so.94:_ZN4Poco16Base64DecoderIOSD0Ev
libPocoFoundation.so.94:_ZN4Poco16Base64DecoderIOSD1Ev
libPocoFoundation.so.94:_ZN4Poco16Base64DecoderIOSD2Ev
libPocoFoundation.so.94:_ZN4Poco16Base64EncoderBuf12OUT_ENCODINGE
libPocoFoundation.so.94:_ZN4Poco16Base64EncoderBuf13setLineLengthEi
libPocoFoundation.so.94:_ZN4Poco16Base64EncoderBuf13writeToDeviceEc
libPocoFoundation.so.94:_ZN4Poco16Base64EncoderBuf16OUT_ENCODING_URLE
libPocoFoundation.so.94:_ZN4Poco16Base64EncoderBuf5closeEv
libPocoFoundation.so.94:_ZN4Poco16Base64EncoderBufC1ERSoi
libPocoFoundation.so.94:_ZN4Poco16Base64EncoderBufC2ERSoi
libPocoFoundation.so.94:_ZN4Poco16Base64EncoderBufD0Ev
libPocoFoundation.so.94:_ZN4Poco16Base64EncoderBufD1Ev
libPocoFoundation.so.94:_ZN4Poco16Base64EncoderBufD2Ev
libPocoFoundation.so.94:_ZN4Poco16Base64EncoderIOS5closeEv
libPocoFoundation.so.94:_ZN4Poco16Base64EncoderIOS5rdbufEv
libPocoFoundation.so.94:_ZN4Poco16Base64EncoderIOSC1ERSoi
libPocoFoundation.so.94:_ZN4Poco16Base64EncoderIOSC2ERSoi
libPocoFoundation.so.94:_ZN4Poco16Base64EncoderIOSD0Ev
libPocoFoundation.so.94:_ZN4Poco16Base64EncoderIOSD1Ev
libPocoFoundation.so.94:_ZN4Poco16Base64EncoderIOSD2Ev
libPocoFoundation.so.94:_ZN4Poco16DataURIStreamIOS5rdbufEv
libPocoFoundation.so.94:_ZN4Poco16DataURIStreamIOSC1ERKNS_3URIE
libPocoFoundation.so.94:_ZN4Poco16DataURIStreamIOSC2ERKNS_3URIE
libPocoFoundation.so.94:_ZN4Poco16DataURIStreamIOSD0Ev
libPocoFoundation.so.94:_ZN4Poco16DataURIStreamIOSD1Ev
libPocoFoundation.so.94:_ZN4Poco16DataURIStreamIOSD2Ev
libPocoFoundation.so.94:_ZN4Poco16DirectoryWatcher12resumeEventsEv
libPocoFoundation.so.94:_ZN4Poco16DirectoryWatcher13suspendEventsEv
libPocoFoundation.so.94:_ZN4Poco16DirectoryWatcher3runEv
libPocoFoundation.so.94:_ZN4Poco16DirectoryWatcher4initEv
libPocoFoundation.so.94:_ZN4Poco16DirectoryWatcher4stopEv
libPocoFoundation.so.94:_ZN4Poco16DirectoryWatcherC1ERKNS_4FileEii
libPocoFoundation.so.94:_ZN4Poco16DirectoryWatcherC1ERKNSt7__cxx1112basic_stringIcSt11char_traitsIcESaIcEEEii
libPocoFoundation.so.94:_ZN4Poco16DirectoryWatcherC2ERKNS_4FileEii
libPocoFoundation.so.94:_ZN4Poco16DirectoryWatcherC2ERKNSt7__cxx1112basic_stringIcSt11char_traitsIcESaIcEEEii
libPocoFoundation.so.94:_ZN4Poco16DirectoryWatcherD0Ev
libPocoFoundation.so.94:_ZN4Poco16DirectoryWatcherD1Ev
libPocoFoundation.so.94:_ZN4Poco16DirectoryWatcherD2Ev
libPocoFoundation.so.94:_ZN4Poco16FIFOBufferStreamC1EPKcm
libPocoFoundation.so.94:_ZN4Poco16FIFOBufferStreamC1EPcm
libPocoFoundation.so.94:_ZN4Poco16FIFOBufferStreamC1ERNS_15BasicFIFOBufferIcEE
libPocoFoundation.so.94:_ZN4Poco16FIFOBufferStreamC1Em
libPocoFoundation.so.94:_ZN4Poco16FIFOBufferStreamC2EPKcm
libPocoFoundation.so.94:_ZN4Poco16FIFOBufferStreamC2EPcm
libPocoFoundation.so.94:_ZN4Poco16FIFOBufferStreamC2ERNS_15BasicFIFOBufferIcEE
libPocoFoundation.so.94:_ZN4Poco16FIFOBufferStreamC2Em
libPocoFoundation.so.94:_ZN4Poco16FIFOBufferStreamD0Ev
libPocoFoundation.so.94:_ZN4Poco16FIFOBufferStreamD1Ev
libPocoFoundation.so.94:_ZN4Poco16FIFOBufferStreamD2Ev
libPocoFoundation.so.94:_ZN4Poco16FileOutputStreamC1ERKNSt7__cxx1112basic_stringIcSt11char_traitsIcESaIcEEESt13_Ios_Openmode
libPocoFoundation.so.94:_ZN4Poco16FileOutputStreamC1Ev
libPocoFoundation.so.94:_ZN4Poco16FileOutputStreamC2ERKNSt7__cxx1112basic_stringIcSt11char_traitsIcESaIcEEESt13_Ios_Openmode
libPocoFoundation.so.94:_ZN4Poco16FileOutputStreamC2Ev
libPocoFoundation.so.94:_ZN4Poco16FileOutputStreamD0Ev
libPocoFoundation.so.94:_ZN4Poco16FileOutputStreamD1Ev
libPocoFoundation.so.94:_ZN4Poco16FileOutputStreamD2Ev
libPocoFoundation.so.94:_ZN4Poco16HexBinaryDecoderC1ERSi
libPocoFoundation.so.94:_ZN4Poco16HexBinaryDecoderC2ERSi
libPocoFoundation.so.94:_ZN4Poco16HexBinaryDecoderD0Ev
libPocoFoundation.so.94:_ZN4Poco16HexBinaryDecoderD1Ev
libPocoFoundation.so.94:_ZN4Poco16HexBinaryDecoderD2Ev
libPocoFoundation.so.94:_ZN4Poco16HexBinaryEncoderC1ERSo
libPocoFoundation.so.94:_ZN4Poco16HexBinaryEncoderC2ERSo
libPocoFoundation.so.94:_ZN4Poco16HexBinaryEncoderD0Ev
libPocoFoundation.so.94:_ZN4Poco16HexBinaryEncoderD1Ev
libPocoFoundation.so.94:_ZN4Poco16HexBinaryEncoderD2Ev
libPocoFoundation.so.94:_ZN4Poco16NullOutputStreamC1Ev
libPocoFoundation.so.94:_ZN4Poco16NullOutputStreamC2Ev
libPocoFoundation.so.94:_ZN4Poco16NullOutputStreamD0Ev
libPocoFoundation.so.94:_ZN4Poco16NullOutputStreamD1Ev
libPocoFoundation.so.94:_ZN4Poco16NullOutputStreamD2Ev
libPocoFoundation.so.94:_ZN4Poco16PatternFormatter10PROP_TIMESB5cxx11E
libPocoFoundation.so.94:_ZN4Poco16PatternFormatter11setPropertyERKNSt7__cxx1112basic_stringIcSt11char_traitsIcESaIcEEES8_
libPocoFoundation.so.94:_ZN4Poco16PatternFormatter12PROP_PATTERNB5cxx11E
libPocoFoundation.so.94:_ZN4Poco16PatternFormatter12parsePatternEv
libPocoFoundation.so.94:_ZN4Poco16PatternFormatter15getPriorityNameB5cxx11Ei
libPocoFoundation.so.94:_ZN4Poco16PatternFormatter18parsePriorityNamesEv
libPocoFoundation.so.94:_ZN4Poco16PatternFormatter19PROP_PRIORITY_NAMESB5cxx11E
libPocoFoundation.so.94:_ZN4Poco16PatternFormatter22DEFAULT_PRIORITY_NAMESB5cxx11E
libPocoFoundation.so.94:_ZN4Poco16PatternFormatter6formatERKNS_7MessageERNSt7__cxx1112basic_stringIcSt11char_traitsIcESaIcEEE
libPocoFoundation.so.94:_ZN4Poco16PatternFormatterC1ERKNSt7__cxx1112basic_stringIcSt11char_traitsIcESaIcEEE
libPocoFoundation.so.94:_ZN4Poco16PatternFormatterC1Ev
libPocoFoundation.so.94:_ZN4Poco16PatternFormatterC2ERKNSt7__cxx1112basic_stringIcSt11char_traitsIcESaIcEEE
libPocoFoundation.so.94:_ZN4Poco16PatternFormatterC2Ev
libPocoFoundation.so.94:_ZN4Poco16PatternFormatterD0Ev
libPocoFoundation.so.94:_ZN4Poco16PatternFormatterD1Ev
libPocoFoundation.so.94:_ZN4Poco16PatternFormatterD2Ev
libPocoFoundation.so.94:_ZN4Poco16PipeOutputStreamC1ERKNS_4PipeE
libPocoFoundation.so.94:_ZN4Poco16PipeOutputStreamC2ERKNS_4PipeE
libPocoFoundation.so.94:_ZN4Poco16PipeOutputStreamD0Ev
libPocoFoundation.so.94:_ZN4Poco16PipeOutputStreamD1Ev
libPocoFoundation.so.94:_ZN4Poco16PipeOutputStreamD2Ev
libPocoFoundation.so.94:_ZN4Poco16RefCountedObjectC1Ev
libPocoFoundation.so.94:_ZN4Poco16RefCountedObjectC2Ev
libPocoFoundation.so.94:_ZN4Poco16RefCountedObjectD0Ev
libPocoFoundation.so.94:_ZN4Poco16RefCountedObjectD1Ev
libPocoFoundation.so.94:_ZN4Poco16RefCountedObjectD2Ev
libPocoFoundation.so.94:_ZN4Poco16RuntimeExceptionC1ERKNSt7__cxx1112basic_stringIcSt11char_traitsIcESaIcEEERKNS_9ExceptionEi
libPocoFoundation.so.94:_ZN4Poco16RuntimeExceptionC1ERKNSt7__cxx1112basic_stringIcSt11char_traitsIcESaIcEEES8_i
libPocoFoundation.so.94:_ZN4Poco16RuntimeExceptionC1ERKNSt7__cxx1112basic_stringIcSt11char_traitsIcESaIcEEEi
libPocoFoundation.so.94:_ZN4Poco16RuntimeExceptionC1ERKS0_
libPocoFoundation.so.94:_ZN4Poco16RuntimeExceptionC1Ei
libPocoFoundation.so.94:_ZN4Poco16RuntimeExceptionC2ERKNSt7__cxx1112basic_stringIcSt11char_traitsIcESaIcEEERKNS_9ExceptionEi
libPocoFoundation.so.94:_ZN4Poco16RuntimeExceptionC2ERKNSt7__cxx1112basic_stringIcSt11char_traitsIcESaIcEEES8_i
libPocoFoundation.so.94:_ZN4Poco16RuntimeExceptionC2ERKNSt7__cxx1112basic_stringIcSt11char_traitsIcESaIcEEEi
libPocoFoundation.so.94:_ZN4Poco16RuntimeExceptionC2ERKS0_
libPocoFoundation.so.94:_ZN4Poco16RuntimeExceptionC2Ei
libPocoFoundation.so.94:_ZN4Poco16RuntimeExceptionD0Ev
libPocoFoundation.so.94:_ZN4Poco16RuntimeExceptionD1Ev
libPocoFoundation.so.94:_ZN4Poco16RuntimeExceptionD2Ev
libPocoFoundation.so.94:_ZN4Poco16RuntimeExceptionaSERKS0_
libPocoFoundation.so.94:_ZN4Poco16SharedMemoryImpl3mapEPKv
libPocoFoundation.so.94:_ZN4Poco16SharedMemoryImpl5closeEv
libPocoFoundation.so.94:_ZN4Poco16SharedMemoryImpl5unmapEv
libPocoFoundation.so.94:_ZN4Poco16SharedMemoryImplC1ERKNS_4FileENS_12SharedMemory10AccessModeEPKv
libPocoFoundation.so.94:_ZN4Poco16SharedMemoryImplC1ERKNSt7__cxx1112basic_stringIcSt11char_traitsIcESaIcEEEmNS_12SharedMemory10AccessModeEPKvb
libPocoFoundation.so.94:_ZN4Poco16SharedMemoryImplC2ERKNS_4FileENS_12SharedMemory10AccessModeEPKv
libPocoFoundation.so.94:_ZN4Poco16SharedMemoryImplC2ERKNSt7__cxx1112basic_stringIcSt11char_traitsIcESaIcEEEmNS_12SharedMemory10AccessModeEPKvb
libPocoFoundation.so.94:_ZN4Poco16SharedMemoryImplD0Ev
libPocoFoundation.so.94:_ZN4Poco16SharedMemoryImplD1Ev
libPocoFoundation.so.94:_ZN4Poco16SharedMemoryImplD2Ev
libPocoFoundation.so.94:_ZN4Poco16TaskNotificationC1EPNS_4TaskE
libPocoFoundation.so.94:_ZN4Poco16TaskNotificationC2EPNS_4TaskE
libPocoFoundation.so.94:_ZN4Poco16TaskNotificationD0Ev
libPocoFoundation.so.94:_ZN4Poco16TaskNotificationD1Ev
libPocoFoundation.so.94:_ZN4Poco16TaskNotificationD2Ev
libPocoFoundation.so.94:_ZN4Poco16TimeoutExceptionC1ERKNSt7__cxx1112basic_stringIcSt11char_traitsIcESaIcEEERKNS_9ExceptionEi
libPocoFoundation.so.94:_ZN4Poco16TimeoutExceptionC1ERKNSt7__cxx1112basic_stringIcSt11char_traitsIcESaIcEEES8_i
libPocoFoundation.so.94:_ZN4Poco16TimeoutExceptionC1ERKNSt7__cxx1112basic_stringIcSt11char_traitsIcESaIcEEEi
libPocoFoundation.so.94:_ZN4Poco16TimeoutExceptionC1ERKS0_
libPocoFoundation.so.94:_ZN4Poco16TimeoutExceptionC1Ei
libPocoFoundation.so.94:_ZN4Poco16TimeoutExceptionC2ERKNSt7__cxx1112basic_stringIcSt11char_traitsIcESaIcEEERKNS_9ExceptionEi
libPocoFoundation.so.94:_ZN4Poco16TimeoutExceptionC2ERKNSt7__cxx1112basic_stringIcSt11char_traitsIcESaIcEEES8_i
libPocoFoundation.so.94:_ZN4Poco16TimeoutExceptionC2ERKNSt7__cxx1112basic_stringIcSt11char_traitsIcESaIcEEEi
libPocoFoundation.so.94:_ZN4Poco16TimeoutExceptionC2ERKS0_
libPocoFoundation.so.94:_ZN4Poco16TimeoutExceptionC2Ei
libPocoFoundation.so.94:_ZN4Poco16TimeoutExceptionD0Ev
libPocoFoundation.so.94:_ZN4Poco16TimeoutExceptionD1Ev
libPocoFoundation.so.94:_ZN4Poco16TimeoutExceptionD2Ev
libPocoFoundation.so.94:_ZN4Poco16TimeoutExceptionaSERKS0_
libPocoFoundation.so.94:_ZN4Poco16URIStreamFactoryC1Ev
libPocoFoundation.so.94:_ZN4Poco16URIStreamFactoryC2Ev
libPocoFoundation.so.94:_ZN4Poco16URIStreamFactoryD0Ev
libPocoFoundation.so.94:_ZN4Poco16URIStreamFactoryD1Ev
libPocoFoundation.so.94:_ZN4Poco16URIStreamFactoryD2Ev
libPocoFoundation.so.94:_ZN4Poco16UnicodeConverter7convertEPKcRNSt7__cxx1112basic_stringItNS_15UTF16CharTraitsESaItEEE
libPocoFoundation.so.94:_ZN4Poco16UnicodeConverter7convertEPKcRNSt7__cxx1112basic_stringIwSt11char_traitsIwESaIwEEE
libPocoFoundation.so.94:_ZN4Poco16UnicodeConverter7convertEPKcmRNSt7__cxx1112basic_stringItNS_15UTF16CharTraitsESaItEEE
libPocoFoundation.so.94:_ZN4Poco16UnicodeConverter7convertEPKcmRNSt7__cxx1112basic_stringIwSt11char_traitsIwESaIwEEE
libPocoFoundation.so.94:_ZN4Poco16UnicodeConverter7convertEPKtRNSt7__cxx1112basic_stringIcSt11char_traitsIcESaIcEEE
libPocoFoundation.so.94:_ZN4Poco16UnicodeConverter7convertEPKtmRNSt7__cxx1112basic_stringIcSt11char_traitsIcESaIcEEE
libPocoFoundation.so.94:_ZN4Poco16UnicodeConverter7convertEPKwRNSt7__cxx1112basic_stringIcSt11char_traitsIcESaIcEEE
libPocoFoundation.so.94:_ZN4Poco16UnicodeConverter7convertEPKwmRNSt7__cxx1112basic_stringIcSt11char_traitsIcESaIcEEE
libPocoFoundation.so.94:_ZN4Poco16UnicodeConverter7convertERKNSt7__cxx1112basic_stringIcSt11char_traitsIcESaIcEEERNS2_ItNS_15UTF16CharTraitsESaItEEE
libPocoFoundation.so.94:_ZN4Poco16UnicodeConverter7convertERKNSt7__cxx1112basic_stringIcSt11char_traitsIcESaIcEEERNS2_IwS3_IwESaIwEEE
libPocoFoundation.so.94:_ZN4Poco16UnicodeConverter7convertERKNSt7__cxx1112basic_stringItNS_15UTF16CharTraitsESaItEEERNS2_IcSt11char_traitsIcESaIcEEE
libPocoFoundation.so.94:_ZN4Poco16UnicodeConverter7convertERKNSt7__cxx1112basic_stringIwSt11char_traitsIwESaIwEEERNS2_IcS3_IcESaIcEEE
libPocoFoundation.so.94:_ZN4Poco16doubleToFixedStrEPcidi
libPocoFoundation.so.94:_ZN4Poco16doubleToFixedStrERNSt7__cxx1112basic_stringIcSt11char_traitsIcESaIcEEEdiicc
libPocoFoundation.so.94:_ZN4Poco17BugcheckExceptionC1ERKNSt7__cxx1112basic_stringIcSt11char_traitsIcESaIcEEERKNS_9ExceptionEi
libPocoFoundation.so.94:_ZN4Poco17BugcheckExceptionC1ERKNSt7__cxx1112basic_stringIcSt11char_traitsIcESaIcEEES8_i
libPocoFoundation.so.94:_ZN4Poco17BugcheckExceptionC1ERKNSt7__cxx1112basic_stringIcSt11char_traitsIcESaIcEEEi
libPocoFoundation.so.94:_ZN4Poco17BugcheckExceptionC1ERKS0_
libPocoFoundation.so.94:_ZN4Poco17BugcheckExceptionC1Ei
libPocoFoundation.so.94:_ZN4Poco17BugcheckExceptionC2ERKNSt7__cxx1112basic_stringIcSt11char_traitsIcESaIcEEERKNS_9ExceptionEi
libPocoFoundation.so.94:_ZN4Poco17BugcheckExceptionC2ERKNSt7__cxx1112basic_stringIcSt11char_traitsIcESaIcEEES8_i
libPocoFoundation.so.94:_ZN4Poco17BugcheckExceptionC2ERKNSt7__cxx1112basic_stringIcSt11char_traitsIcESaIcEEEi
libPocoFoundation.so.94:_ZN4Poco17BugcheckExceptionC2ERKS0_
libPocoFoundation.so.94:_ZN4Poco17BugcheckExceptionC2Ei
libPocoFoundation.so.94:_ZN4Poco17BugcheckExceptionD0Ev
libPocoFoundation.so.94:_ZN4Poco17BugcheckExceptionD1Ev
libPocoFoundation.so.94:_ZN4Poco17BugcheckExceptionD2Ev
libPocoFoundation.so.94:_ZN4Poco17BugcheckExceptionaSERKS0_
libPocoFoundation.so.94:_ZN4Poco17CountingStreamBuf13writeToDeviceEc
libPocoFoundation.so.94:_ZN4Poco17CountingStreamBuf14readFromDeviceEv
libPocoFoundation.so.94:_ZN4Poco17CountingStreamBuf20setCurrentLineNumberEl
libPocoFoundation.so.94:_ZN4Poco17CountingStreamBuf5resetEv
libPocoFoundation.so.94:_ZN4Poco17CountingStreamBuf6addPosEl
libPocoFoundation.so.94:_ZN4Poco17CountingStreamBuf8addCharsEl
libPocoFoundation.so.94:_ZN4Poco17CountingStreamBuf8addLinesEl
libPocoFoundation.so.94:_ZN4Poco17CountingStreamBufC1ERSi
libPocoFoundation.so.94:_ZN4Poco17CountingStreamBufC1ERSo
libPocoFoundation.so.94:_ZN4Poco17CountingStreamBufC1Ev
libPocoFoundation.so.94:_ZN4Poco17CountingStreamBufC2ERSi
libPocoFoundation.so.94:_ZN4Poco17CountingStreamBufC2ERSo
libPocoFoundation.so.94:_ZN4Poco17CountingStreamBufC2Ev
libPocoFoundation.so.94:_ZN4Poco17CountingStreamBufD0Ev
libPocoFoundation.so.94:_ZN4Poco17CountingStreamBufD1Ev
libPocoFoundation.so.94:_ZN4Poco17CountingStreamBufD2Ev
libPocoFoundation.so.94:_ZN4Poco17DateTimeFormatter6appendERNSt7__cxx1112basic_stringIcSt11char_traitsIcESaIcEEERKNS_13LocalDateTimeERKS6_
libPocoFoundation.so.94:_ZN4Poco17DateTimeFormatter6appendERNSt7__cxx1112basic_stringIcSt11char_traitsIcESaIcEEERKNS_8DateTimeERKS6_i
libPocoFoundation.so.94:_ZN4Poco17DateTimeFormatter6appendERNSt7__cxx1112basic_stringIcSt11char_traitsIcESaIcEEERKNS_8TimespanERKS6_
libPocoFoundation.so.94:_ZN4Poco17DateTimeFormatter6tzdISOERNSt7__cxx1112basic_stringIcSt11char_traitsIcESaIcEEEi
libPocoFoundation.so.94:_ZN4Poco17DateTimeFormatter6tzdRFCERNSt7__cxx1112basic_stringIcSt11char_traitsIcESaIcEEEi
libPocoFoundation.so.94:_ZN4Poco17DigestInputStreamC1ERNS_12DigestEngineERSi
libPocoFoundation.so.94:_ZN4Poco17DigestInputStreamC2ERNS_12DigestEngineERSi
libPocoFoundation.so.94:_ZN4Poco17DigestInputStreamD0Ev
libPocoFoundation.so.94:_ZN4Poco17DigestInputStreamD1Ev
libPocoFoundation.so.94:_ZN4Poco17DigestInputStreamD2Ev
libPocoFoundation.so.94:_ZN4Poco17DirectoryIteratorC1ERKNS_4FileE
libPocoFoundation.so.94:_ZN4Poco17DirectoryIteratorC1ERKNS_4PathE
libPocoFoundation.so.94:_ZN4Poco17DirectoryIteratorC1ERKNSt7__cxx1112basic_stringIcSt11char_traitsIcESaIcEEE
libPocoFoundation.so.94:_ZN4Poco17DirectoryIteratorC1ERKS0_
libPocoFoundation.so.94:_ZN4Poco17DirectoryIteratorC1Ev
libPocoFoundation.so.94:_ZN4Poco17DirectoryIteratorC2ERKNS_4FileE
libPocoFoundation.so.94:_ZN4Poco17DirectoryIteratorC2ERKNS_4PathE
libPocoFoundation.so.94:_ZN4Poco17DirectoryIteratorC2ERKNSt7__cxx1112basic_stringIcSt11char_traitsIcESaIcEEE
libPocoFoundation.so.94:_ZN4Poco17DirectoryIteratorC2ERKS0_
libPocoFoundation.so.94:_ZN4Poco17DirectoryIteratorC2Ev
libPocoFoundation.so.94:_ZN4Poco17DirectoryIteratorD0Ev
libPocoFoundation.so.94:_ZN4Poco17DirectoryIteratorD1Ev
libPocoFoundation.so.94:_ZN4Poco17DirectoryIteratorD2Ev
libPocoFoundation.so.94:_ZN4Poco17DirectoryIteratoraSERKNS_4FileE
libPocoFoundation.so.94:_ZN4Poco17DirectoryIteratoraSERKNS_4PathE
libPocoFoundation.so.94:_ZN4Poco17DirectoryIteratoraSERKNSt7__cxx1112basic_stringIcSt11char_traitsIcESaIcEEE
libPocoFoundation.so.94:_ZN4Poco17DirectoryIteratoraSERKS0_
libPocoFoundation.so.94:_ZN4Poco17DirectoryIteratorppEi
libPocoFoundation.so.94:_ZN4Poco17DirectoryIteratorppEv
libPocoFoundation.so.94:_ZN4Poco17FPEnvironmentImpl10isFlagImplENS0_8FlagImplE
libPocoFoundation.so.94:_ZN4Poco17FPEnvironmentImpl12copySignImplEee
libPocoFoundation.so.94:_ZN4Poco17FPEnvironmentImpl14clearFlagsImplEv
libPocoFoundation.so.94:_ZN4Poco17FPEnvironmentImpl15keepCurrentImplEv
libPocoFoundation.so.94:_ZN4Poco17FPEnvironmentImpl19getRoundingModeImplEv
libPocoFoundation.so.94:_ZN4Poco17FPEnvironmentImpl19setRoundingModeImplENS0_16RoundingModeImplE
libPocoFoundation.so.94:_ZN4Poco17FPEnvironmentImplC1ERKS0_
libPocoFoundation.so.94:_ZN4Poco17FPEnvironmentImplC1Ev
libPocoFoundation.so.94:_ZN4Poco17FPEnvironmentImplC2ERKS0_
libPocoFoundation.so.94:_ZN4Poco17FPEnvironmentImplC2Ev
libPocoFoundation.so.94:_ZN4Poco17FPEnvironmentImplD1Ev
libPocoFoundation.so.94:_ZN4Poco17FPEnvironmentImplD2Ev
libPocoFoundation.so.94:_ZN4Poco17FPEnvironmentImplaSERKS0_
libPocoFoundation.so.94:_ZN4Poco17FileStreamFactory4openERKNS_3URIE
libPocoFoundation.so.94:_ZN4Poco17FileStreamFactory4openERKNS_4PathE
libPocoFoundation.so.94:_ZN4Poco17FileStreamFactoryC1Ev
libPocoFoundation.so.94:_ZN4Poco17FileStreamFactoryC2Ev
libPocoFoundation.so.94:_ZN4Poco17FileStreamFactoryD0Ev
libPocoFoundation.so.94:_ZN4Poco17FileStreamFactoryD1Ev
libPocoFoundation.so.94:_ZN4Poco17FileStreamFactoryD2Ev
libPocoFoundation.so.94:_ZN4Poco17FormattingChannel10setChannelENS_7AutoPtrINS_7ChannelEEE
libPocoFoundation.so.94:_ZN4Poco17FormattingChannel11setPropertyERKNSt7__cxx1112basic_stringIcSt11char_traitsIcESaIcEEES8_
libPocoFoundation.so.94:_ZN4Poco17FormattingChannel12setFormatterENS_7AutoPtrINS_9FormatterEEE
libPocoFoundation.so.94:_ZN4Poco17FormattingChannel3logERKNS_7MessageE
libPocoFoundation.so.94:_ZN4Poco17FormattingChannel4openEv
libPocoFoundation.so.94:_ZN4Poco17FormattingChannel5closeEv
libPocoFoundation.so.94:_ZN4Poco17FormattingChannelC1ENS_7AutoPtrINS_9FormatterEEE
libPocoFoundation.so.94:_ZN4Poco17FormattingChannelC1ENS_7AutoPtrINS_9FormatterEEENS1_INS_7ChannelEEE
libPocoFoundation.so.94:_ZN4Poco17FormattingChannelC1Ev
libPocoFoundation.so.94:_ZN4Poco17FormattingChannelC2ENS_7AutoPtrINS_9FormatterEEE
libPocoFoundation.so.94:_ZN4Poco17FormattingChannelC2ENS_7AutoPtrINS_9FormatterEEENS1_INS_7ChannelEEE
libPocoFoundation.so.94:_ZN4Poco17FormattingChannelC2Ev
libPocoFoundation.so.94:_ZN4Poco17FormattingChannelD0Ev
libPocoFoundation.so.94:_ZN4Poco17FormattingChannelD1Ev
libPocoFoundation.so.94:_ZN4Poco17FormattingChannelD2Ev
libPocoFoundation.so.94:_ZN4Poco17MemoryInputStreamC1EPKcl
libPocoFoundation.so.94:_ZN4Poco17MemoryInputStreamC2EPKcl
libPocoFoundation.so.94:_ZN4Poco17MemoryInputStreamD0Ev
libPocoFoundation.so.94:_ZN4Poco17MemoryInputStreamD1Ev
libPocoFoundation.so.94:_ZN4Poco17MemoryInputStreamD2Ev
libPocoFoundation.so.94:_ZN4Poco17NotFoundExceptionC1ERKNSt7__cxx1112basic_stringIcSt11char_traitsIcESaIcEEERKNS_9ExceptionEi
libPocoFoundation.so.94:_ZN4Poco17NotFoundExceptionC1ERKNSt7__cxx1112basic_stringIcSt11char_traitsIcESaIcEEES8_i
libPocoFoundation.so.94:_ZN4Poco17NotFoundExceptionC1ERKNSt7__cxx1112basic_stringIcSt11char_traitsIcESaIcEEEi
libPocoFoundation.so.94:_ZN4Poco17NotFoundExceptionC1ERKS0_
libPocoFoundation.so.94:_ZN4Poco17NotFoundExceptionC1Ei
libPocoFoundation.so.94:_ZN4Poco17NotFoundExceptionC2ERKNSt7__cxx1112basic_stringIcSt11char_traitsIcESaIcEEERKNS_9ExceptionEi
libPocoFoundation.so.94:_ZN4Poco17NotFoundExceptionC2ERKNSt7__cxx1112basic_stringIcSt11char_traitsIcESaIcEEES8_i
libPocoFoundation.so.94:_ZN4Poco17NotFoundExceptionC2ERKNSt7__cxx1112basic_stringIcSt11char_traitsIcESaIcEEEi
libPocoFoundation.so.94:_ZN4Poco17NotFoundExceptionC2ERKS0_
libPocoFoundation.so.94:_ZN4Poco17NotFoundExceptionC2Ei
libPocoFoundation.so.94:_ZN4Poco17NotFoundExceptionD0Ev
libPocoFoundation.so.94:_ZN4Poco17NotFoundExceptionD1Ev
libPocoFoundation.so.94:_ZN4Poco17NotFoundExceptionD2Ev
libPocoFoundation.so.94:_ZN4Poco17NotFoundExceptionaSERKS0_
libPocoFoundation.so.94:_ZN4Poco17NotificationQueue10dequeueOneEv
libPocoFoundation.so.94:_ZN4Poco17NotificationQueue12defaultQueueEv
libPocoFoundation.so.94:_ZN4Poco17NotificationQueue19dequeueNotificationEv
libPocoFoundation.so.94:_ZN4Poco17NotificationQueue19enqueueNotificationENS_7AutoPtrINS_12NotificationEEE
libPocoFoundation.so.94:_ZN4Poco17NotificationQueue23waitDequeueNotificationEl
libPocoFoundation.so.94:_ZN4Poco17NotificationQueue23waitDequeueNotificationEv
libPocoFoundation.so.94:_ZN4Poco17NotificationQueue25enqueueUrgentNotificationENS_7AutoPtrINS_12NotificationEEE
libPocoFoundation.so.94:_ZN4Poco17NotificationQueue5clearEv
libPocoFoundation.so.94:_ZN4Poco17NotificationQueue6removeENS_7AutoPtrINS_12NotificationEEE
libPocoFoundation.so.94:_ZN4Poco17NotificationQueue8dispatchERNS_18NotificationCenterE
libPocoFoundation.so.94:_ZN4Poco17NotificationQueue9wakeUpAllEv
libPocoFoundation.so.94:_ZN4Poco17NotificationQueueC1Ev
libPocoFoundation.so.94:_ZN4Poco17NotificationQueueC2Ev
libPocoFoundation.so.94:_ZN4Poco17NotificationQueueD1Ev
libPocoFoundation.so.94:_ZN4Poco17NotificationQueueD2Ev
libPocoFoundation.so.94:_ZN4Poco17OpenFileExceptionC1ERKNSt7__cxx1112basic_stringIcSt11char_traitsIcESaIcEEERKNS_9ExceptionEi
libPocoFoundation.so.94:_ZN4Poco17OpenFileExceptionC1ERKNSt7__cxx1112basic_stringIcSt11char_traitsIcESaIcEEES8_i
libPocoFoundation.so.94:_ZN4Poco17OpenFileExceptionC1ERKNSt7__cxx1112basic_stringIcSt11char_traitsIcESaIcEEEi
libPocoFoundation.so.94:_ZN4Poco17OpenFileExceptionC1ERKS0_
libPocoFoundation.so.94:_ZN4Poco17OpenFileExceptionC1Ei
libPocoFoundation.so.94:_ZN4Poco17OpenFileExceptionC2ERKNSt7__cxx1112basic_stringIcSt11char_traitsIcESaIcEEERKNS_9ExceptionEi
libPocoFoundation.so.94:_ZN4Poco17OpenFileExceptionC2ERKNSt7__cxx1112basic_stringIcSt11char_traitsIcESaIcEEES8_i
libPocoFoundation.so.94:_ZN4Poco17OpenFileExceptionC2ERKNSt7__cxx1112basic_stringIcSt11char_traitsIcESaIcEEEi
libPocoFoundation.so.94:_ZN4Poco17OpenFileExceptionC2ERKS0_
libPocoFoundation.so.94:_ZN4Poco17OpenFileExceptionC2Ei
libPocoFoundation.so.94:_ZN4Poco17OpenFileExceptionD0Ev
libPocoFoundation.so.94:_ZN4Poco17OpenFileExceptionD1Ev
libPocoFoundation.so.94:_ZN4Poco17OpenFileExceptionD2Ev
libPocoFoundation.so.94:_ZN4Poco17OpenFileExceptionaSERKS0_
libPocoFoundation.so.94:_ZN4Poco17ProcessHandleImplC1Ei
libPocoFoundation.so.94:_ZN4Poco17ProcessHandleImplC2Ei
libPocoFoundation.so.94:_ZN4Poco17ProcessHandleImplD0Ev
libPocoFoundation.so.94:_ZN4Poco17ProcessHandleImplD1Ev
libPocoFoundation.so.94:_ZN4Poco17ProcessHandleImplD2Ev
libPocoFoundation.so.94:_ZN4Poco17ProtocolExceptionC1ERKNSt7__cxx1112basic_stringIcSt11char_traitsIcESaIcEEERKNS_9ExceptionEi
libPocoFoundation.so.94:_ZN4Poco17ProtocolExceptionC1ERKNSt7__cxx1112basic_stringIcSt11char_traitsIcESaIcEEES8_i
libPocoFoundation.so.94:_ZN4Poco17ProtocolExceptionC1ERKNSt7__cxx1112basic_stringIcSt11char_traitsIcESaIcEEEi
libPocoFoundation.so.94:_ZN4Poco17ProtocolExceptionC1ERKS0_
libPocoFoundation.so.94:_ZN4Poco17ProtocolExceptionC1Ei
libPocoFoundation.so.94:_ZN4Poco17ProtocolExceptionC2ERKNSt7__cxx1112basic_stringIcSt11char_traitsIcESaIcEEERKNS_9ExceptionEi
libPocoFoundation.so.94:_ZN4Poco17ProtocolExceptionC2ERKNSt7__cxx1112basic_stringIcSt11char_traitsIcESaIcEEES8_i
libPocoFoundation.so.94:_ZN4Poco17ProtocolExceptionC2ERKNSt7__cxx1112basic_stringIcSt11char_traitsIcESaIcEEEi
libPocoFoundation.so.94:_ZN4Poco17ProtocolExceptionC2ERKS0_
libPocoFoundation.so.94:_ZN4Poco17ProtocolExceptionC2Ei
libPocoFoundation.so.94:_ZN4Poco17ProtocolExceptionD0Ev
libPocoFoundation.so.94:_ZN4Poco17ProtocolExceptionD1Ev
libPocoFoundation.so.94:_ZN4Poco17ProtocolExceptionD2Ev
libPocoFoundation.so.94:_ZN4Poco17ProtocolExceptionaSERKS0_
libPocoFoundation.so.94:_ZN4Poco17RandomInputStreamC1Ev
libPocoFoundation.so.94:_ZN4Poco17RandomInputStreamC2Ev
libPocoFoundation.so.94:_ZN4Poco17RandomInputStreamD0Ev
libPocoFoundation.so.94:_ZN4Poco17RandomInputStreamD1Ev
libPocoFoundation.so.94:_ZN4Poco17RandomInputStreamD2Ev
libPocoFoundation.so.94:_ZN4Poco17ReadFileExceptionC1ERKNSt7__cxx1112basic_stringIcSt11char_traitsIcESaIcEEERKNS_9ExceptionEi
libPocoFoundation.so.94:_ZN4Poco17ReadFileExceptionC1ERKNSt7__cxx1112basic_stringIcSt11char_traitsIcESaIcEEES8_i
libPocoFoundation.so.94:_ZN4Poco17ReadFileExceptionC1ERKNSt7__cxx1112basic_stringIcSt11char_traitsIcESaIcEEEi
libPocoFoundation.so.94:_ZN4Poco17ReadFileExceptionC1ERKS0_
libPocoFoundation.so.94:_ZN4Poco17ReadFileExceptionC1Ei
libPocoFoundation.so.94:_ZN4Poco17ReadFileExceptionC2ERKNSt7__cxx1112basic_stringIcSt11char_traitsIcESaIcEEERKNS_9ExceptionEi
libPocoFoundation.so.94:_ZN4Poco17ReadFileExceptionC2ERKNSt7__cxx1112basic_stringIcSt11char_traitsIcESaIcEEES8_i
libPocoFoundation.so.94:_ZN4Poco17ReadFileExceptionC2ERKNSt7__cxx1112basic_stringIcSt11char_traitsIcESaIcEEEi
libPocoFoundation.so.94:_ZN4Poco17ReadFileExceptionC2ERKS0_
libPocoFoundation.so.94:_ZN4Poco17ReadFileExceptionC2Ei
libPocoFoundation.so.94:_ZN4Poco17ReadFileExceptionD0Ev
libPocoFoundation.so.94:_ZN4Poco17ReadFileExceptionD1Ev
libPocoFoundation.so.94:_ZN4Poco17ReadFileExceptionD2Ev
libPocoFoundation.so.94:_ZN4Poco17ReadFileExceptionaSERKS0_
libPocoFoundation.so.94:_ZN4Poco17RegularExpression12matchOptionsEi
libPocoFoundation.so.94:_ZN4Poco17RegularExpression14compileOptionsEi
libPocoFoundation.so.94:_ZN4Poco17RegularExpression5matchERKNSt7__cxx1112basic_stringIcSt11char_traitsIcESaIcEEES8_i
libPocoFoundation.so.94:_ZN4Poco17RegularExpressionC1ERKNSt7__cxx1112basic_stringIcSt11char_traitsIcESaIcEEEib
libPocoFoundation.so.94:_ZN4Poco17RegularExpressionC2ERKNSt7__cxx1112basic_stringIcSt11char_traitsIcESaIcEEEib
libPocoFoundation.so.94:_ZN4Poco17RegularExpressionD1Ev
libPocoFoundation.so.94:_ZN4Poco17RegularExpressionD2Ev
libPocoFoundation.so.94:_ZN4Poco17SharedLibraryImpl10suffixImplB5cxx11Ev
libPocoFoundation.so.94:_ZN4Poco17SharedLibraryImpl10unloadImplEv
libPocoFoundation.so.94:_ZN4Poco17SharedLibraryImpl14findSymbolImplERKNSt7__cxx1112basic_stringIcSt11char_traitsIcESaIcEEE
libPocoFoundation.so.94:_ZN4Poco17SharedLibraryImpl17setSearchPathImplERKNSt7__cxx1112basic_stringIcSt11char_traitsIcESaIcEEE
libPocoFoundation.so.94:_ZN4Poco17SharedLibraryImpl6_mutexE
libPocoFoundation.so.94:_ZN4Poco17SharedLibraryImpl8loadImplERKNSt7__cxx1112basic_stringIcSt11char_traitsIcESaIcEEEi
libPocoFoundation.so.94:_ZN4Poco17SharedLibraryImplC1Ev
libPocoFoundation.so.94:_ZN4Poco17SharedLibraryImplC2Ev
libPocoFoundation.so.94:_ZN4Poco17SharedLibraryImplD1Ev
libPocoFoundation.so.94:_ZN4Poco17SharedLibraryImplD2Ev
libPocoFoundation.so.94:_ZN4Poco17SimpleFileChannel10PROP_FLUSHB5cxx11E
libPocoFoundation.so.94:_ZN4Poco17SimpleFileChannel11setPropertyERKNSt7__cxx1112basic_stringIcSt11char_traitsIcESaIcEEES8_
libPocoFoundation.so.94:_ZN4Poco17SimpleFileChannel11setRotationERKNSt7__cxx1112basic_stringIcSt11char_traitsIcESaIcEEE
libPocoFoundation.so.94:_ZN4Poco17SimpleFileChannel13PROP_ROTATIONB5cxx11E
libPocoFoundation.so.94:_ZN4Poco17SimpleFileChannel18PROP_SECONDARYPATHB5cxx11E
libPocoFoundation.so.94:_ZN4Poco17SimpleFileChannel3logERKNS_7MessageE
libPocoFoundation.so.94:_ZN4Poco17SimpleFileChannel4openEv
libPocoFoundation.so.94:_ZN4Poco17SimpleFileChannel5closeEv
libPocoFoundation.so.94:_ZN4Poco17SimpleFileChannel6rotateEv
libPocoFoundation.so.94:_ZN4Poco17SimpleFileChannel8setFlushERKNSt7__cxx1112basic_stringIcSt11char_traitsIcESaIcEEE
libPocoFoundation.so.94:_ZN4Poco17SimpleFileChannel9PROP_PATHB5cxx11E
libPocoFoundation.so.94:_ZN4Poco17SimpleFileChannelC1ERKNSt7__cxx1112basic_stringIcSt11char_traitsIcESaIcEEE
libPocoFoundation.so.94:_ZN4Poco17SimpleFileChannelC1Ev
libPocoFoundation.so.94:_ZN4Poco17SimpleFileChannelC2ERKNSt7__cxx1112basic_stringIcSt11char_traitsIcESaIcEEE
libPocoFoundation.so.94:_ZN4Poco17SimpleFileChannelC2Ev
libPocoFoundation.so.94:_ZN4Poco17SimpleFileChannelD0Ev
libPocoFoundation.so.94:_ZN4Poco17SimpleFileChannelD1Ev
libPocoFoundation.so.94:_ZN4Poco17SimpleFileChannelD2Ev
libPocoFoundation.so.94:_ZN4Poco18DeflatingStreamBuf13writeToDeviceEPKcl
libPocoFoundation.so.94:_ZN4Poco18DeflatingStreamBuf14readFromDeviceEPcl
libPocoFoundation.so.94:_ZN4Poco18DeflatingStreamBuf4syncEv
libPocoFoundation.so.94:_ZN4Poco18DeflatingStreamBuf5closeEv
libPocoFoundation.so.94:_ZN4Poco18DeflatingStreamBufC1ERSiNS0_10StreamTypeEi
libPocoFoundation.so.94:_ZN4Poco18DeflatingStreamBufC1ERSiii
libPocoFoundation.so.94:_ZN4Poco18DeflatingStreamBufC1ERSoNS0_10StreamTypeEi
libPocoFoundation.so.94:_ZN4Poco18DeflatingStreamBufC1ERSoii
libPocoFoundation.so.94:_ZN4Poco18DeflatingStreamBufC2ERSiNS0_10StreamTypeEi
libPocoFoundation.so.94:_ZN4Poco18DeflatingStreamBufC2ERSiii
libPocoFoundation.so.94:_ZN4Poco18DeflatingStreamBufC2ERSoNS0_10StreamTypeEi
libPocoFoundation.so.94:_ZN4Poco18DeflatingStreamBufC2ERSoii
libPocoFoundation.so.94:_ZN4Poco18DeflatingStreamBufD0Ev
libPocoFoundation.so.94:_ZN4Poco18DeflatingStreamBufD1Ev
libPocoFoundation.so.94:_ZN4Poco18DeflatingStreamBufD2Ev
libPocoFoundation.so.94:_ZN4Poco18DigestOutputStream5closeEv
libPocoFoundation.so.94:_ZN4Poco18DigestOutputStreamC1ERNS_12DigestEngineE
libPocoFoundation.so.94:_ZN4Poco18DigestOutputStreamC1ERNS_12DigestEngineERSo
libPocoFoundation.so.94:_ZN4Poco18DigestOutputStreamC2ERNS_12DigestEngineE
libPocoFoundation.so.94:_ZN4Poco18DigestOutputStreamC2ERNS_12DigestEngineERSo
libPocoFoundation.so.94:_ZN4Poco18DigestOutputStreamD0Ev
libPocoFoundation.so.94:_ZN4Poco18DigestOutputStreamD1Ev
libPocoFoundation.so.94:_ZN4Poco18DigestOutputStreamD2Ev
libPocoFoundation.so.94:_ZN4Poco18InflatingStreamBuf13writeToDeviceEPKcl
libPocoFoundation.so.94:_ZN4Poco18InflatingStreamBuf14readFromDeviceEPcl
libPocoFoundation.so.94:_ZN4Poco18InflatingStreamBuf4syncEv
libPocoFoundation.so.94:_ZN4Poco18InflatingStreamBuf5closeEv
libPocoFoundation.so.94:_ZN4Poco18InflatingStreamBuf5resetEv
libPocoFoundation.so.94:_ZN4Poco18InflatingStreamBufC1ERSiNS0_10StreamTypeE
libPocoFoundation.so.94:_ZN4Poco18InflatingStreamBufC1ERSii
libPocoFoundation.so.94:_ZN4Poco18InflatingStreamBufC1ERSoNS0_10StreamTypeE
libPocoFoundation.so.94:_ZN4Poco18InflatingStreamBufC1ERSoi
libPocoFoundation.so.94:_ZN4Poco18InflatingStreamBufC2ERSiNS0_10StreamTypeE
libPocoFoundation.so.94:_ZN4Poco18InflatingStreamBufC2ERSii
libPocoFoundation.so.94:_ZN4Poco18InflatingStreamBufC2ERSoNS0_10StreamTypeE
libPocoFoundation.so.94:_ZN4Poco18InflatingStreamBufC2ERSoi
libPocoFoundation.so.94:_ZN4Poco18InflatingStreamBufD0Ev
libPocoFoundation.so.94:_ZN4Poco18InflatingStreamBufD1Ev
libPocoFoundation.so.94:_ZN4Poco18InflatingStreamBufD2Ev
libPocoFoundation.so.94:_ZN4Poco18MemoryOutputStreamC1EPcl
libPocoFoundation.so.94:_ZN4Poco18MemoryOutputStreamC2EPcl
libPocoFoundation.so.94:_ZN4Poco18MemoryOutputStreamD0Ev
libPocoFoundation.so.94:_ZN4Poco18MemoryOutputStreamD1Ev
libPocoFoundation.so.94:_ZN4Poco18MemoryOutputStreamD2Ev
libPocoFoundation.so.94:_ZN4Poco18NotificationCenter11addObserverERKNS_16AbstractObserverE
libPocoFoundation.so.94:_ZN4Poco18NotificationCenter13defaultCenterEv
libPocoFoundation.so.94:_ZN4Poco18NotificationCenter14removeObserverERKNS_16AbstractObserverE
libPocoFoundation.so.94:_ZN4Poco18NotificationCenter16postNotificationENS_7AutoPtrINS_12NotificationEEE
libPocoFoundation.so.94:_ZN4Poco18NotificationCenterC1Ev
libPocoFoundation.so.94:_ZN4Poco18NotificationCenterC2Ev
libPocoFoundation.so.94:_ZN4Poco18NotificationCenterD1Ev
libPocoFoundation.so.94:_ZN4Poco18NotificationCenterD2Ev
libPocoFoundation.so.94:_ZN4Poco18NullValueExceptionC1ERKNSt7__cxx1112basic_stringIcSt11char_traitsIcESaIcEEERKNS_9ExceptionEi
libPocoFoundation.so.94:_ZN4Poco18NullValueExceptionC1ERKNSt7__cxx1112basic_stringIcSt11char_traitsIcESaIcEEES8_i
libPocoFoundation.so.94:_ZN4Poco18NullValueExceptionC1ERKNSt7__cxx1112basic_stringIcSt11char_traitsIcESaIcEEEi
libPocoFoundation.so.94:_ZN4Poco18NullValueExceptionC1ERKS0_
libPocoFoundation.so.94:_ZN4Poco18NullValueExceptionC1Ei
libPocoFoundation.so.94:_ZN4Poco18NullValueExceptionC2ERKNSt7__cxx1112basic_stringIcSt11char_traitsIcESaIcEEERKNS_9ExceptionEi
libPocoFoundation.so.94:_ZN4Poco18NullValueExceptionC2ERKNSt7__cxx1112basic_stringIcSt11char_traitsIcESaIcEEES8_i
libPocoFoundation.so.94:_ZN4Poco18NullValueExceptionC2ERKNSt7__cxx1112basic_stringIcSt11char_traitsIcESaIcEEEi
libPocoFoundation.so.94:_ZN4Poco18NullValueExceptionC2ERKS0_
libPocoFoundation.so.94:_ZN4Poco18NullValueExceptionC2Ei
libPocoFoundation.so.94:_ZN4Poco18NullValueExceptionD0Ev
libPocoFoundation.so.94:_ZN4Poco18NullValueExceptionD1Ev
libPocoFoundation.so.94:_ZN4Poco18NullValueExceptionD2Ev
libPocoFoundation.so.94:_ZN4Poco18NullValueExceptionaSERKS0_
libPocoFoundation.so.94:_ZN4Poco18PurgeByAgeStrategy5purgeERKNSt7__cxx1112basic_stringIcSt11char_traitsIcESaIcEEE
libPocoFoundation.so.94:_ZN4Poco18PurgeByAgeStrategyC1ERKNS_8TimespanE
libPocoFoundation.so.94:_ZN4Poco18PurgeByAgeStrategyC2ERKNS_8TimespanE
libPocoFoundation.so.94:_ZN4Poco18PurgeByAgeStrategyD0Ev
libPocoFoundation.so.94:_ZN4Poco18PurgeByAgeStrategyD1Ev
libPocoFoundation.so.94:_ZN4Poco18PurgeByAgeStrategyD2Ev
libPocoFoundation.so.94:_ZN4Poco18StreamConverterBuf13writeToDeviceEc
libPocoFoundation.so.94:_ZN4Poco18StreamConverterBuf14readFromDeviceEv
libPocoFoundation.so.94:_ZN4Poco18StreamConverterBufC1ERSiRKNS_12TextEncodingES4_i
libPocoFoundation.so.94:_ZN4Poco18StreamConverterBufC1ERSoRKNS_12TextEncodingES4_i
libPocoFoundation.so.94:_ZN4Poco18StreamConverterBufC2ERSiRKNS_12TextEncodingES4_i
libPocoFoundation.so.94:_ZN4Poco18StreamConverterBufC2ERSoRKNS_12TextEncodingES4_i
libPocoFoundation.so.94:_ZN4Poco18StreamConverterBufD0Ev
libPocoFoundation.so.94:_ZN4Poco18StreamConverterBufD1Ev
libPocoFoundation.so.94:_ZN4Poco18StreamConverterBufD2Ev
libPocoFoundation.so.94:_ZN4Poco18StreamConverterIOS5rdbufEv
libPocoFoundation.so.94:_ZN4Poco18StreamConverterIOSC1ERSiRKNS_12TextEncodingES4_i
libPocoFoundation.so.94:_ZN4Poco18StreamConverterIOSC1ERSoRKNS_12TextEncodingES4_i
libPocoFoundation.so.94:_ZN4Poco18StreamConverterIOSC2ERSiRKNS_12TextEncodingES4_i
libPocoFoundation.so.94:_ZN4Poco18StreamConverterIOSC2ERSoRKNS_12TextEncodingES4_i
libPocoFoundation.so.94:_ZN4Poco18StreamConverterIOSD0Ev
libPocoFoundation.so.94:_ZN4Poco18StreamConverterIOSD1Ev
libPocoFoundation.so.94:_ZN4Poco18StreamConverterIOSD2Ev
libPocoFoundation.so.94:_ZN4Poco18SynchronizedObjectC1Ev
libPocoFoundation.so.94:_ZN4Poco18SynchronizedObjectC2Ev
libPocoFoundation.so.94:_ZN4Poco18SynchronizedObjectD0Ev
libPocoFoundation.so.94:_ZN4Poco18SynchronizedObjectD1Ev
libPocoFoundation.so.94:_ZN4Poco18SynchronizedObjectD2Ev
libPocoFoundation.so.94:_ZN4Poco18TextBufferIterator4swapERS0_
libPocoFoundation.so.94:_ZN4Poco18TextBufferIteratorC1EPKc
libPocoFoundation.so.94:_ZN4Poco18TextBufferIteratorC1EPKcRKNS_12TextEncodingE
libPocoFoundation.so.94:_ZN4Poco18TextBufferIteratorC1EPKcS2_RKNS_12TextEncodingE
libPocoFoundation.so.94:_ZN4Poco18TextBufferIteratorC1EPKcmRKNS_12TextEncodingE
libPocoFoundation.so.94:_ZN4Poco18TextBufferIteratorC1ERKS0_
libPocoFoundation.so.94:_ZN4Poco18TextBufferIteratorC1Ev
libPocoFoundation.so.94:_ZN4Poco18TextBufferIteratorC2EPKc
libPocoFoundation.so.94:_ZN4Poco18TextBufferIteratorC2EPKcRKNS_12TextEncodingE
libPocoFoundation.so.94:_ZN4Poco18TextBufferIteratorC2EPKcS2_RKNS_12TextEncodingE
libPocoFoundation.so.94:_ZN4Poco18TextBufferIteratorC2EPKcmRKNS_12TextEncodingE
libPocoFoundation.so.94:_ZN4Poco18TextBufferIteratorC2ERKS0_
libPocoFoundation.so.94:_ZN4Poco18TextBufferIteratorC2Ev
libPocoFoundation.so.94:_ZN4Poco18TextBufferIteratorD1Ev
libPocoFoundation.so.94:_ZN4Poco18TextBufferIteratorD2Ev
libPocoFoundation.so.94:_ZN4Poco18TextBufferIteratoraSERKS0_
libPocoFoundation.so.94:_ZN4Poco18TextBufferIteratorppEi
libPocoFoundation.so.94:_ZN4Poco18TextBufferIteratorppEv
libPocoFoundation.so.94:_ZN4Poco18ThreadLocalStorage3getEPKv
libPocoFoundation.so.94:_ZN4Poco18ThreadLocalStorage5clearEv
libPocoFoundation.so.94:_ZN4Poco18ThreadLocalStorage7currentEv
libPocoFoundation.so.94:_ZN4Poco18ThreadLocalStorageC1Ev
libPocoFoundation.so.94:_ZN4Poco18ThreadLocalStorageC2Ev
libPocoFoundation.so.94:_ZN4Poco18ThreadLocalStorageD1Ev
libPocoFoundation.so.94:_ZN4Poco18ThreadLocalStorageD2Ev
libPocoFoundation.so.94:_ZN4Poco18URISyntaxExceptionC1ERKNSt7__cxx1112basic_stringIcSt11char_traitsIcESaIcEEERKNS_9ExceptionEi
libPocoFoundation.so.94:_ZN4Poco18URISyntaxExceptionC1ERKNSt7__cxx1112basic_stringIcSt11char_traitsIcESaIcEEES8_i
libPocoFoundation.so.94:_ZN4Poco18URISyntaxExceptionC1ERKNSt7__cxx1112basic_stringIcSt11char_traitsIcESaIcEEEi
libPocoFoundation.so.94:_ZN4Poco18URISyntaxExceptionC1ERKS0_
libPocoFoundation.so.94:_ZN4Poco18URISyntaxExceptionC1Ei
libPocoFoundation.so.94:_ZN4Poco18URISyntaxExceptionC2ERKNSt7__cxx1112basic_stringIcSt11char_traitsIcESaIcEEERKNS_9ExceptionEi
libPocoFoundation.so.94:_ZN4Poco18URISyntaxExceptionC2ERKNSt7__cxx1112basic_stringIcSt11char_traitsIcESaIcEEES8_i
libPocoFoundation.so.94:_ZN4Poco18URISyntaxExceptionC2ERKNSt7__cxx1112basic_stringIcSt11char_traitsIcESaIcEEEi
libPocoFoundation.so.94:_ZN4Poco18URISyntaxExceptionC2ERKS0_
libPocoFoundation.so.94:_ZN4Poco18URISyntaxExceptionC2Ei
libPocoFoundation.so.94:_ZN4Poco18URISyntaxExceptionD0Ev
libPocoFoundation.so.94:_ZN4Poco18URISyntaxExceptionD1Ev
libPocoFoundation.so.94:_ZN4Poco18URISyntaxExceptionD2Ev
libPocoFoundation.so.94:_ZN4Poco18URISyntaxExceptionaSERKS0_
libPocoFoundation.so.94:_ZN4Poco18UnhandledExceptionC1ERKNSt7__cxx1112basic_stringIcSt11char_traitsIcESaIcEEERKNS_9ExceptionEi
libPocoFoundation.so.94:_ZN4Poco18UnhandledExceptionC1ERKNSt7__cxx1112basic_stringIcSt11char_traitsIcESaIcEEES8_i
libPocoFoundation.so.94:_ZN4Poco18UnhandledExceptionC1ERKNSt7__cxx1112basic_stringIcSt11char_traitsIcESaIcEEEi
libPocoFoundation.so.94:_ZN4Poco18UnhandledExceptionC1ERKS0_
libPocoFoundation.so.94:_ZN4Poco18UnhandledExceptionC1Ei
libPocoFoundation.so.94:_ZN4Poco18UnhandledExceptionC2ERKNSt7__cxx1112basic_stringIcSt11char_traitsIcESaIcEEERKNS_9ExceptionEi
libPocoFoundation.so.94:_ZN4Poco18UnhandledExceptionC2ERKNSt7__cxx1112basic_stringIcSt11char_traitsIcESaIcEEES8_i
libPocoFoundation.so.94:_ZN4Poco18UnhandledExceptionC2ERKNSt7__cxx1112basic_stringIcSt11char_traitsIcESaIcEEEi
libPocoFoundation.so.94:_ZN4Poco18UnhandledExceptionC2ERKS0_
libPocoFoundation.so.94:_ZN4Poco18UnhandledExceptionC2Ei
libPocoFoundation.so.94:_ZN4Poco18UnhandledExceptionD0Ev
libPocoFoundation.so.94:_ZN4Poco18UnhandledExceptionD1Ev
libPocoFoundation.so.94:_ZN4Poco18UnhandledExceptionD2Ev
libPocoFoundation.so.94:_ZN4Poco18UnhandledExceptionaSERKS0_
libPocoFoundation.so.94:_ZN4Poco18WriteFileExceptionC1ERKNSt7__cxx1112basic_stringIcSt11char_traitsIcESaIcEEERKNS_9ExceptionEi
libPocoFoundation.so.94:_ZN4Poco18WriteFileExceptionC1ERKNSt7__cxx1112basic_stringIcSt11char_traitsIcESaIcEEES8_i
libPocoFoundation.so.94:_ZN4Poco18WriteFileExceptionC1ERKNSt7__cxx1112basic_stringIcSt11char_traitsIcESaIcEEEi
libPocoFoundation.so.94:_ZN4Poco18WriteFileExceptionC1ERKS0_
libPocoFoundation.so.94:_ZN4Poco18WriteFileExceptionC1Ei
libPocoFoundation.so.94:_ZN4Poco18WriteFileExceptionC2ERKNSt7__cxx1112basic_stringIcSt11char_traitsIcESaIcEEERKNS_9ExceptionEi
libPocoFoundation.so.94:_ZN4Poco18WriteFileExceptionC2ERKNSt7__cxx1112basic_stringIcSt11char_traitsIcESaIcEEES8_i
libPocoFoundation.so.94:_ZN4Poco18WriteFileExceptionC2ERKNSt7__cxx1112basic_stringIcSt11char_traitsIcESaIcEEEi
libPocoFoundation.so.94:_ZN4Poco18WriteFileExceptionC2ERKS0_
libPocoFoundation.so.94:_ZN4Poco18WriteFileExceptionC2Ei
libPocoFoundation.so.94:_ZN4Poco18WriteFileExceptionD0Ev
libPocoFoundation.so.94:_ZN4Poco18WriteFileExceptionD1Ev
libPocoFoundation.so.94:_ZN4Poco18WriteFileExceptionD2Ev
libPocoFoundation.so.94:_ZN4Poco18WriteFileExceptionaSERKS0_
libPocoFoundation.so.94:_ZN4Poco19ColorConsoleChannel10initColorsEv
libPocoFoundation.so.94:_ZN4Poco19ColorConsoleChannel11setPropertyERKNSt7__cxx1112basic_stringIcSt11char_traitsIcESaIcEEES8_
libPocoFoundation.so.94:_ZN4Poco19ColorConsoleChannel3CSIB5cxx11E
libPocoFoundation.so.94:_ZN4Poco19ColorConsoleChannel3logERKNS_7MessageE
libPocoFoundation.so.94:_ZN4Poco19ColorConsoleChannel6_mutexE
libPocoFoundation.so.94:_ZN4Poco19ColorConsoleChannelC1ERSo
libPocoFoundation.so.94:_ZN4Poco19ColorConsoleChannelC1Ev
libPocoFoundation.so.94:_ZN4Poco19ColorConsoleChannelC2ERSo
libPocoFoundation.so.94:_ZN4Poco19ColorConsoleChannelC2Ev
libPocoFoundation.so.94:_ZN4Poco19ColorConsoleChannelD0Ev
libPocoFoundation.so.94:_ZN4Poco19ColorConsoleChannelD1Ev
libPocoFoundation.so.94:_ZN4Poco19ColorConsoleChannelD2Ev
libPocoFoundation.so.94:_ZN4Poco19CountingInputStreamC1ERSi
libPocoFoundation.so.94:_ZN4Poco19CountingInputStreamC2ERSi
libPocoFoundation.so.94:_ZN4Poco19CountingInputStreamD0Ev
libPocoFoundation.so.94:_ZN4Poco19CountingInputStreamD1Ev
libPocoFoundation.so.94:_ZN4Poco19CountingInputStreamD2Ev
libPocoFoundation.so.94:_ZN4Poco19CreateFileExceptionC1ERKNSt7__cxx1112basic_stringIcSt11char_traitsIcESaIcEEERKNS_9ExceptionEi
libPocoFoundation.so.94:_ZN4Poco19CreateFileExceptionC1ERKNSt7__cxx1112basic_stringIcSt11char_traitsIcESaIcEEES8_i
libPocoFoundation.so.94:_ZN4Poco19CreateFileExceptionC1ERKNSt7__cxx1112basic_stringIcSt11char_traitsIcESaIcEEEi
libPocoFoundation.so.94:_ZN4Poco19CreateFileExceptionC1ERKS0_
libPocoFoundation.so.94:_ZN4Poco19CreateFileExceptionC1Ei
libPocoFoundation.so.94:_ZN4Poco19CreateFileExceptionC2ERKNSt7__cxx1112basic_stringIcSt11char_traitsIcESaIcEEERKNS_9ExceptionEi
libPocoFoundation.so.94:_ZN4Poco19CreateFileExceptionC2ERKNSt7__cxx1112basic_stringIcSt11char_traitsIcESaIcEEES8_i
libPocoFoundation.so.94:_ZN4Poco19CreateFileExceptionC2ERKNSt7__cxx1112basic_stringIcSt11char_traitsIcESaIcEEEi
libPocoFoundation.so.94:_ZN4Poco19CreateFileExceptionC2ERKS0_
libPocoFoundation.so.94:_ZN4Poco19CreateFileExceptionC2Ei
libPocoFoundation.so.94:_ZN4Poco19CreateFileExceptionD0Ev
libPocoFoundation.so.94:_ZN4Poco19CreateFileExceptionD1Ev
libPocoFoundation.so.94:_ZN4Poco19CreateFileExceptionD2Ev
libPocoFoundation.so.94:_ZN4Poco19CreateFileExceptionaSERKS0_
libPocoFoundation.so.94:_ZN4Poco19DataFormatExceptionC1ERKNSt7__cxx1112basic_stringIcSt11char_traitsIcESaIcEEERKNS_9ExceptionEi
libPocoFoundation.so.94:_ZN4Poco19DataFormatExceptionC1ERKNSt7__cxx1112basic_stringIcSt11char_traitsIcESaIcEEES8_i
libPocoFoundation.so.94:_ZN4Poco19DataFormatExceptionC1ERKNSt7__cxx1112basic_stringIcSt11char_traitsIcESaIcEEEi
libPocoFoundation.so.94:_ZN4Poco19DataFormatExceptionC1ERKS0_
libPocoFoundation.so.94:_ZN4Poco19DataFormatExceptionC1Ei
libPocoFoundation.so.94:_ZN4Poco19DataFormatExceptionC2ERKNSt7__cxx1112basic_stringIcSt11char_traitsIcESaIcEEERKNS_9ExceptionEi
libPocoFoundation.so.94:_ZN4Poco19DataFormatExceptionC2ERKNSt7__cxx1112basic_stringIcSt11char_traitsIcESaIcEEES8_i
libPocoFoundation.so.94:_ZN4Poco19DataFormatExceptionC2ERKNSt7__cxx1112basic_stringIcSt11char_traitsIcESaIcEEEi
libPocoFoundation.so.94:_ZN4Poco19DataFormatExceptionC2ERKS0_
libPocoFoundation.so.94:_ZN4Poco19DataFormatExceptionC2Ei
libPocoFoundation.so.94:_ZN4Poco19DataFormatExceptionD0Ev
libPocoFoundation.so.94:_ZN4Poco19DataFormatExceptionD1Ev
libPocoFoundation.so.94:_ZN4Poco19DataFormatExceptionD2Ev
libPocoFoundation.so.94:_ZN4Poco19DataFormatExceptionaSERKS0_
libPocoFoundation.so.94:_ZN4Poco19FIFOBufferStreamBuf13writeToDeviceEPKcl
libPocoFoundation.so.94:_ZN4Poco19FIFOBufferStreamBuf14readFromDeviceEPcl
libPocoFoundation.so.94:_ZN4Poco19FIFOBufferStreamBufC1EPKcm
libPocoFoundation.so.94:_ZN4Poco19FIFOBufferStreamBufC1EPcm
libPocoFoundation.so.94:_ZN4Poco19FIFOBufferStreamBufC1ERNS_15BasicFIFOBufferIcEE
libPocoFoundation.so.94:_ZN4Poco19FIFOBufferStreamBufC1Em
libPocoFoundation.so.94:_ZN4Poco19FIFOBufferStreamBufC1Ev
libPocoFoundation.so.94:_ZN4Poco19FIFOBufferStreamBufC2EPKcm
libPocoFoundation.so.94:_ZN4Poco19FIFOBufferStreamBufC2EPcm
libPocoFoundation.so.94:_ZN4Poco19FIFOBufferStreamBufC2ERNS_15BasicFIFOBufferIcEE
libPocoFoundation.so.94:_ZN4Poco19FIFOBufferStreamBufC2Em
libPocoFoundation.so.94:_ZN4Poco19FIFOBufferStreamBufC2Ev
libPocoFoundation.so.94:_ZN4Poco19FIFOBufferStreamBufD0Ev
libPocoFoundation.so.94:_ZN4Poco19FIFOBufferStreamBufD1Ev
libPocoFoundation.so.94:_ZN4Poco19FIFOBufferStreamBufD2Ev
libPocoFoundation.so.94:_ZN4Poco19FileExistsExceptionC1ERKNSt7__cxx1112basic_stringIcSt11char_traitsIcESaIcEEERKNS_9ExceptionEi
libPocoFoundation.so.94:_ZN4Poco19FileExistsExceptionC1ERKNSt7__cxx1112basic_stringIcSt11char_traitsIcESaIcEEES8_i
libPocoFoundation.so.94:_ZN4Poco19FileExistsExceptionC1ERKNSt7__cxx1112basic_stringIcSt11char_traitsIcESaIcEEEi
libPocoFoundation.so.94:_ZN4Poco19FileExistsExceptionC1ERKS0_
libPocoFoundation.so.94:_ZN4Poco19FileExistsExceptionC1Ei
libPocoFoundation.so.94:_ZN4Poco19FileExistsExceptionC2ERKNSt7__cxx1112basic_stringIcSt11char_traitsIcESaIcEEERKNS_9ExceptionEi
libPocoFoundation.so.94:_ZN4Poco19FileExistsExceptionC2ERKNSt7__cxx1112basic_stringIcSt11char_traitsIcESaIcEEES8_i
libPocoFoundation.so.94:_ZN4Poco19FileExistsExceptionC2ERKNSt7__cxx1112basic_stringIcSt11char_traitsIcESaIcEEEi
libPocoFoundation.so.94:_ZN4Poco19FileExistsExceptionC2ERKS0_
libPocoFoundation.so.94:_ZN4Poco19FileExistsExceptionC2Ei
libPocoFoundation.so.94:_ZN4Poco19FileExistsExceptionD0Ev
libPocoFoundation.so.94:_ZN4Poco19FileExistsExceptionD1Ev
libPocoFoundation.so.94:_ZN4Poco19FileExistsExceptionD2Ev
libPocoFoundation.so.94:_ZN4Poco19FileExistsExceptionaSERKS0_
libPocoFoundation.so.94:_ZN4Poco19HexBinaryDecoderBuf14readFromDeviceEv
libPocoFoundation.so.94:_ZN4Poco19HexBinaryDecoderBuf7readOneEv
libPocoFoundation.so.94:_ZN4Poco19HexBinaryDecoderBufC1ERSi
libPocoFoundation.so.94:_ZN4Poco19HexBinaryDecoderBufC2ERSi
libPocoFoundation.so.94:_ZN4Poco19HexBinaryDecoderBufD0Ev
libPocoFoundation.so.94:_ZN4Poco19HexBinaryDecoderBufD1Ev
libPocoFoundation.so.94:_ZN4Poco19HexBinaryDecoderBufD2Ev
libPocoFoundation.so.94:_ZN4Poco19HexBinaryDecoderIOS5rdbufEv
libPocoFoundation.so.94:_ZN4Poco19HexBinaryDecoderIOSC1ERSi
libPocoFoundation.so.94:_ZN4Poco19HexBinaryDecoderIOSC2ERSi
libPocoFoundation.so.94:_ZN4Poco19HexBinaryDecoderIOSD0Ev
libPocoFoundation.so.94:_ZN4Poco19HexBinaryDecoderIOSD1Ev
libPocoFoundation.so.94:_ZN4Poco19HexBinaryDecoderIOSD2Ev
libPocoFoundation.so.94:_ZN4Poco19HexBinaryEncoderBuf12setUppercaseEb
libPocoFoundation.so.94:_ZN4Poco19HexBinaryEncoderBuf13setLineLengthEi
libPocoFoundation.so.94:_ZN4Poco19HexBinaryEncoderBuf13writeToDeviceEc
libPocoFoundation.so.94:_ZN4Poco19HexBinaryEncoderBuf5closeEv
libPocoFoundation.so.94:_ZN4Poco19HexBinaryEncoderBufC1ERSo
libPocoFoundation.so.94:_ZN4Poco19HexBinaryEncoderBufC2ERSo
libPocoFoundation.so.94:_ZN4Poco19HexBinaryEncoderBufD0Ev
libPocoFoundation.so.94:_ZN4Poco19HexBinaryEncoderBufD1Ev
libPocoFoundation.so.94:_ZN4Poco19HexBinaryEncoderBufD2Ev
libPocoFoundation.so.94:_ZN4Poco19HexBinaryEncoderIOS5closeEv
libPocoFoundation.so.94:_ZN4Poco19HexBinaryEncoderIOS5rdbufEv
libPocoFoundation.so.94:_ZN4Poco19HexBinaryEncoderIOSC1ERSo
libPocoFoundation.so.94:_ZN4Poco19HexBinaryEncoderIOSC2ERSo
libPocoFoundation.so.94:_ZN4Poco19HexBinaryEncoderIOSD0Ev
libPocoFoundation.so.94:_ZN4Poco19HexBinaryEncoderIOSD1Ev
libPocoFoundation.so.94:_ZN4Poco19HexBinaryEncoderIOSD2Ev
libPocoFoundation.so.94:_ZN4Poco19PathSyntaxExceptionC1ERKNSt7__cxx1112basic_stringIcSt11char_traitsIcESaIcEEERKNS_9ExceptionEi
libPocoFoundation.so.94:_ZN4Poco19PathSyntaxExceptionC1ERKNSt7__cxx1112basic_stringIcSt11char_traitsIcESaIcEEES8_i
libPocoFoundation.so.94:_ZN4Poco19PathSyntaxExceptionC1ERKNSt7__cxx1112basic_stringIcSt11char_traitsIcESaIcEEEi
libPocoFoundation.so.94:_ZN4Poco19PathSyntaxExceptionC1ERKS0_
libPocoFoundation.so.94:_ZN4Poco19PathSyntaxExceptionC1Ei
libPocoFoundation.so.94:_ZN4Poco19PathSyntaxExceptionC2ERKNSt7__cxx1112basic_stringIcSt11char_traitsIcESaIcEEERKNS_9ExceptionEi
libPocoFoundation.so.94:_ZN4Poco19PathSyntaxExceptionC2ERKNSt7__cxx1112basic_stringIcSt11char_traitsIcESaIcEEES8_i
libPocoFoundation.so.94:_ZN4Poco19PathSyntaxExceptionC2ERKNSt7__cxx1112basic_stringIcSt11char_traitsIcESaIcEEEi
libPocoFoundation.so.94:_ZN4Poco19PathSyntaxExceptionC2ERKS0_
libPocoFoundation.so.94:_ZN4Poco19PathSyntaxExceptionC2Ei
libPocoFoundation.so.94:_ZN4Poco19PathSyntaxExceptionD0Ev
libPocoFoundation.so.94:_ZN4Poco19PathSyntaxExceptionD1Ev
libPocoFoundation.so.94:_ZN4Poco19PathSyntaxExceptionD2Ev
libPocoFoundation.so.94:_ZN4Poco19PathSyntaxExceptionaSERKS0_
libPocoFoundation.so.94:_ZN4Poco19Windows1250Encoding6_namesE
libPocoFoundation.so.94:_ZN4Poco19Windows1250Encoding8_charMapE
libPocoFoundation.so.94:_ZN4Poco19Windows1250EncodingC1Ev
libPocoFoundation.so.94:_ZN4Poco19Windows1250EncodingC2Ev
libPocoFoundation.so.94:_ZN4Poco19Windows1250EncodingD0Ev
libPocoFoundation.so.94:_ZN4Poco19Windows1250EncodingD1Ev
libPocoFoundation.so.94:_ZN4Poco19Windows1250EncodingD2Ev
libPocoFoundation.so.94:_ZN4Poco19Windows1251Encoding6_namesE
libPocoFoundation.so.94:_ZN4Poco19Windows1251Encoding8_charMapE
libPocoFoundation.so.94:_ZN4Poco19Windows1251EncodingC1Ev
libPocoFoundation.so.94:_ZN4Poco19Windows1251EncodingC2Ev
libPocoFoundation.so.94:_ZN4Poco19Windows1251EncodingD0Ev
libPocoFoundation.so.94:_ZN4Poco19Windows1251EncodingD1Ev
libPocoFoundation.so.94:_ZN4Poco19Windows1251EncodingD2Ev
libPocoFoundation.so.94:_ZN4Poco19Windows1252Encoding6_namesE
libPocoFoundation.so.94:_ZN4Poco19Windows1252Encoding8_charMapE
libPocoFoundation.so.94:_ZN4Poco19Windows1252EncodingC1Ev
libPocoFoundation.so.94:_ZN4Poco19Windows1252EncodingC2Ev
libPocoFoundation.so.94:_ZN4Poco19Windows1252EncodingD0Ev
libPocoFoundation.so.94:_ZN4Poco19Windows1252EncodingD1Ev
libPocoFoundation.so.94:_ZN4Poco19Windows1252EncodingD2Ev
libPocoFoundation.so.94:_ZN4Poco20ApplicationExceptionC1ERKNSt7__cxx1112basic_stringIcSt11char_traitsIcESaIcEEERKNS_9ExceptionEi
libPocoFoundation.so.94:_ZN4Poco20ApplicationExceptionC1ERKNSt7__cxx1112basic_stringIcSt11char_traitsIcESaIcEEES8_i
libPocoFoundation.so.94:_ZN4Poco20ApplicationExceptionC1ERKNSt7__cxx1112basic_stringIcSt11char_traitsIcESaIcEEEi
libPocoFoundation.so.94:_ZN4Poco20ApplicationExceptionC1ERKS0_
libPocoFoundation.so.94:_ZN4Poco20ApplicationExceptionC1Ei
libPocoFoundation.so.94:_ZN4Poco20ApplicationExceptionC2ERKNSt7__cxx1112basic_stringIcSt11char_traitsIcESaIcEEERKNS_9ExceptionEi
libPocoFoundation.so.94:_ZN4Poco20ApplicationExceptionC2ERKNSt7__cxx1112basic_stringIcSt11char_traitsIcESaIcEEES8_i
libPocoFoundation.so.94:_ZN4Poco20ApplicationExceptionC2ERKNSt7__cxx1112basic_stringIcSt11char_traitsIcESaIcEEEi
libPocoFoundation.so.94:_ZN4Poco20ApplicationExceptionC2ERKS0_
libPocoFoundation.so.94:_ZN4Poco20ApplicationExceptionC2Ei
libPocoFoundation.so.94:_ZN4Poco20ApplicationExceptionD0Ev
libPocoFoundation.so.94:_ZN4Poco20ApplicationExceptionD1Ev
libPocoFoundation.so.94:_ZN4Poco20ApplicationExceptionD2Ev
libPocoFoundation.so.94:_ZN4Poco20ApplicationExceptionaSERKS0_
libPocoFoundation.so.94:_ZN4Poco20CountingOutputStreamC1ERSo
libPocoFoundation.so.94:_ZN4Poco20CountingOutputStreamC1Ev
libPocoFoundation.so.94:_ZN4Poco20CountingOutputStreamC2ERSo
libPocoFoundation.so.94:_ZN4Poco20CountingOutputStreamC2Ev
libPocoFoundation.so.94:_ZN4Poco20CountingOutputStreamD0Ev
libPocoFoundation.so.94:_ZN4Poco20CountingOutputStreamD1Ev
libPocoFoundation.so.94:_ZN4Poco20CountingOutputStreamD2Ev
libPocoFoundation.so.94:_ZN4Poco20DataURIStreamFactory15registerFactoryEv
libPocoFoundation.so.94:_ZN4Poco20DataURIStreamFactory17unregisterFactoryEv
libPocoFoundation.so.94:_ZN4Poco20DataURIStreamFactory4openERKNS_3URIE
libPocoFoundation.so.94:_ZN4Poco20DataURIStreamFactoryC1Ev
libPocoFoundation.so.94:_ZN4Poco20DataURIStreamFactoryC2Ev
libPocoFoundation.so.94:_ZN4Poco20DataURIStreamFactoryD0Ev
libPocoFoundation.so.94:_ZN4Poco20DataURIStreamFactoryD1Ev
libPocoFoundation.so.94:_ZN4Poco20DataURIStreamFactoryD2Ev
libPocoFoundation.so.94:_ZN4Poco20DeflatingInputStreamC1ERSiNS_18DeflatingStreamBuf10StreamTypeEi
libPocoFoundation.so.94:_ZN4Poco20DeflatingInputStreamC1ERSiii
libPocoFoundation.so.94:_ZN4Poco20DeflatingInputStreamC2ERSiNS_18DeflatingStreamBuf10StreamTypeEi
libPocoFoundation.so.94:_ZN4Poco20DeflatingInputStreamC2ERSiii
libPocoFoundation.so.94:_ZN4Poco20DeflatingInputStreamD0Ev
libPocoFoundation.so.94:_ZN4Poco20DeflatingInputStreamD1Ev
libPocoFoundation.so.94:_ZN4Poco20DeflatingInputStreamD2Ev
libPocoFoundation.so.94:_ZN4Poco20InflatingInputStream5resetEv
libPocoFoundation.so.94:_ZN4Poco20InflatingInputStreamC1ERSiNS_18InflatingStreamBuf10StreamTypeE
libPocoFoundation.so.94:_ZN4Poco20InflatingInputStreamC1ERSii
libPocoFoundation.so.94:_ZN4Poco20InflatingInputStreamC2ERSiNS_18InflatingStreamBuf10StreamTypeE
libPocoFoundation.so.94:_ZN4Poco20InflatingInputStreamC2ERSii
libPocoFoundation.so.94:_ZN4Poco20InflatingInputStreamD0Ev
libPocoFoundation.so.94:_ZN4Poco20InflatingInputStreamD1Ev
libPocoFoundation.so.94:_ZN4Poco20InflatingInputStreamD2Ev
libPocoFoundation.so.94:_ZN4Poco20InputStreamConverterC1ERSiRKNS_12TextEncodingES4_i
libPocoFoundation.so.94:_ZN4Poco20InputStreamConverterC2ERSiRKNS_12TextEncodingES4_i
libPocoFoundation.so.94:_ZN4Poco20InputStreamConverterD0Ev
libPocoFoundation.so.94:_ZN4Poco20InputStreamConverterD1Ev
libPocoFoundation.so.94:_ZN4Poco20InputStreamConverterD2Ev
libPocoFoundation.so.94:_ZN4Poco20LibraryLoadExceptionC1ERKNSt7__cxx1112basic_stringIcSt11char_traitsIcESaIcEEERKNS_9ExceptionEi
libPocoFoundation.so.94:_ZN4Poco20LibraryLoadExceptionC1ERKNSt7__cxx1112basic_stringIcSt11char_traitsIcESaIcEEES8_i
libPocoFoundation.so.94:_ZN4Poco20LibraryLoadExceptionC1ERKNSt7__cxx1112basic_stringIcSt11char_traitsIcESaIcEEEi
libPocoFoundation.so.94:_ZN4Poco20LibraryLoadExceptionC1ERKS0_
libPocoFoundation.so.94:_ZN4Poco20LibraryLoadExceptionC1Ei
libPocoFoundation.so.94:_ZN4Poco20LibraryLoadExceptionC2ERKNSt7__cxx1112basic_stringIcSt11char_traitsIcESaIcEEERKNS_9ExceptionEi
libPocoFoundation.so.94:_ZN4Poco20LibraryLoadExceptionC2ERKNSt7__cxx1112basic_stringIcSt11char_traitsIcESaIcEEES8_i
libPocoFoundation.so.94:_ZN4Poco20LibraryLoadExceptionC2ERKNSt7__cxx1112basic_stringIcSt11char_traitsIcESaIcEEEi
libPocoFoundation.so.94:_ZN4Poco20LibraryLoadExceptionC2ERKS0_
libPocoFoundation.so.94:_ZN4Poco20LibraryLoadExceptionC2Ei
libPocoFoundation.so.94:_ZN4Poco20LibraryLoadExceptionD0Ev
libPocoFoundation.so.94:_ZN4Poco20LibraryLoadExceptionD1Ev
libPocoFoundation.so.94:_ZN4Poco20LibraryLoadExceptionD2Ev
libPocoFoundation.so.94:_ZN4Poco20LibraryLoadExceptionaSERKS0_
libPocoFoundation.so.94:_ZN4Poco20NullPointerExceptionC1ERKNSt7__cxx1112basic_stringIcSt11char_traitsIcESaIcEEERKNS_9ExceptionEi
libPocoFoundation.so.94:_ZN4Poco20NullPointerExceptionC1ERKNSt7__cxx1112basic_stringIcSt11char_traitsIcESaIcEEES8_i
libPocoFoundation.so.94:_ZN4Poco20NullPointerExceptionC1ERKNSt7__cxx1112basic_stringIcSt11char_traitsIcESaIcEEEi
libPocoFoundation.so.94:_ZN4Poco20NullPointerExceptionC1ERKS0_
libPocoFoundation.so.94:_ZN4Poco20NullPointerExceptionC1Ei
libPocoFoundation.so.94:_ZN4Poco20NullPointerExceptionC2ERKNSt7__cxx1112basic_stringIcSt11char_traitsIcESaIcEEERKNS_9ExceptionEi
libPocoFoundation.so.94:_ZN4Poco20NullPointerExceptionC2ERKNSt7__cxx1112basic_stringIcSt11char_traitsIcESaIcEEES8_i
libPocoFoundation.so.94:_ZN4Poco20NullPointerExceptionC2ERKNSt7__cxx1112basic_stringIcSt11char_traitsIcESaIcEEEi
libPocoFoundation.so.94:_ZN4Poco20NullPointerExceptionC2ERKS0_
libPocoFoundation.so.94:_ZN4Poco20NullPointerExceptionC2Ei
libPocoFoundation.so.94:_ZN4Poco20NullPointerExceptionD0Ev
libPocoFoundation.so.94:_ZN4Poco20NullPointerExceptionD1Ev
libPocoFoundation.so.94:_ZN4Poco20NullPointerExceptionD2Ev
libPocoFoundation.so.94:_ZN4Poco20NullPointerExceptionaSERKS0_
libPocoFoundation.so.94:_ZN4Poco20OutOfMemoryExceptionC1ERKNSt7__cxx1112basic_stringIcSt11char_traitsIcESaIcEEERKNS_9ExceptionEi
libPocoFoundation.so.94:_ZN4Poco20OutOfMemoryExceptionC1ERKNSt7__cxx1112basic_stringIcSt11char_traitsIcESaIcEEES8_i
libPocoFoundation.so.94:_ZN4Poco20OutOfMemoryExceptionC1ERKNSt7__cxx1112basic_stringIcSt11char_traitsIcESaIcEEEi
libPocoFoundation.so.94:_ZN4Poco20OutOfMemoryExceptionC1ERKS0_
libPocoFoundation.so.94:_ZN4Poco20OutOfMemoryExceptionC1Ei
libPocoFoundation.so.94:_ZN4Poco20OutOfMemoryExceptionC2ERKNSt7__cxx1112basic_stringIcSt11char_traitsIcESaIcEEERKNS_9ExceptionEi
libPocoFoundation.so.94:_ZN4Poco20OutOfMemoryExceptionC2ERKNSt7__cxx1112basic_stringIcSt11char_traitsIcESaIcEEES8_i
libPocoFoundation.so.94:_ZN4Poco20OutOfMemoryExceptionC2ERKNSt7__cxx1112basic_stringIcSt11char_traitsIcESaIcEEEi
libPocoFoundation.so.94:_ZN4Poco20OutOfMemoryExceptionC2ERKS0_
libPocoFoundation.so.94:_ZN4Poco20OutOfMemoryExceptionC2Ei
libPocoFoundation.so.94:_ZN4Poco20OutOfMemoryExceptionD0Ev
libPocoFoundation.so.94:_ZN4Poco20OutOfMemoryExceptionD1Ev
libPocoFoundation.so.94:_ZN4Poco20OutOfMemoryExceptionD2Ev
libPocoFoundation.so.94:_ZN4Poco20OutOfMemoryExceptionaSERKS0_
libPocoFoundation.so.94:_ZN4Poco20PurgeByCountStrategy5purgeERKNSt7__cxx1112basic_stringIcSt11char_traitsIcESaIcEEE
libPocoFoundation.so.94:_ZN4Poco20PurgeByCountStrategyC1Ei
libPocoFoundation.so.94:_ZN4Poco20PurgeByCountStrategyC2Ei
libPocoFoundation.so.94:_ZN4Poco20PurgeByCountStrategyD0Ev
libPocoFoundation.so.94:_ZN4Poco20PurgeByCountStrategyD1Ev
libPocoFoundation.so.94:_ZN4Poco20PurgeByCountStrategyD2Ev
libPocoFoundation.so.94:_ZN4Poco20RotateBySizeStrategy10mustRotateEPNS_7LogFileE
libPocoFoundation.so.94:_ZN4Poco20RotateBySizeStrategyC1Em
libPocoFoundation.so.94:_ZN4Poco20RotateBySizeStrategyC2Em
libPocoFoundation.so.94:_ZN4Poco20RotateBySizeStrategyD0Ev
libPocoFoundation.so.94:_ZN4Poco20RotateBySizeStrategyD1Ev
libPocoFoundation.so.94:_ZN4Poco20RotateBySizeStrategyD2Ev
libPocoFoundation.so.94:_ZN4Poco21AbstractTimerCallbackC1ERKS0_
libPocoFoundation.so.94:_ZN4Poco21AbstractTimerCallbackC1Ev
libPocoFoundation.so.94:_ZN4Poco21AbstractTimerCallbackC2ERKS0_
libPocoFoundation.so.94:_ZN4Poco21AbstractTimerCallbackC2Ev
libPocoFoundation.so.94:_ZN4Poco21AbstractTimerCallbackD0Ev
libPocoFoundation.so.94:_ZN4Poco21AbstractTimerCallbackD1Ev
libPocoFoundation.so.94:_ZN4Poco21AbstractTimerCallbackD2Ev
libPocoFoundation.so.94:_ZN4Poco21AbstractTimerCallbackaSERKS0_
libPocoFoundation.so.94:_ZN4Poco21ChildrenFirstTraverse4nextB5cxx11EPSt5stackINS_17DirectoryIteratorESt5dequeIS2_SaIS2_EEEPb
libPocoFoundation.so.94:_ZN4Poco21ChildrenFirstTraverseC1ESt8functionIFtRKSt5stackINS_17DirectoryIteratorESt5dequeIS3_SaIS3_EEEEEt
libPocoFoundation.so.94:_ZN4Poco21ChildrenFirstTraverseC2ESt8functionIFtRKSt5stackINS_17DirectoryIteratorESt5dequeIS3_SaIS3_EEEEEt
libPocoFoundation.so.94:_ZN4Poco21DeflatingOutputStream4syncEv
libPocoFoundation.so.94:_ZN4Poco21DeflatingOutputStream5closeEv
libPocoFoundation.so.94:_ZN4Poco21DeflatingOutputStreamC1ERSoNS_18DeflatingStreamBuf10StreamTypeEi
libPocoFoundation.so.94:_ZN4Poco21DeflatingOutputStreamC1ERSoii
libPocoFoundation.so.94:_ZN4Poco21DeflatingOutputStreamC2ERSoNS_18DeflatingStreamBuf10StreamTypeEi
libPocoFoundation.so.94:_ZN4Poco21DeflatingOutputStreamC2ERSoii
libPocoFoundation.so.94:_ZN4Poco21DeflatingOutputStreamD0Ev
libPocoFoundation.so.94:_ZN4Poco21DeflatingOutputStreamD1Ev
libPocoFoundation.so.94:_ZN4Poco21DeflatingOutputStreamD2Ev
libPocoFoundation.so.94:_ZN4Poco21DirectoryIteratorImpl4nextB5cxx11Ev
libPocoFoundation.so.94:_ZN4Poco21DirectoryIteratorImplC1ERKNSt7__cxx1112basic_stringIcSt11char_traitsIcESaIcEEE
libPocoFoundation.so.94:_ZN4Poco21DirectoryIteratorImplC2ERKNSt7__cxx1112basic_stringIcSt11char_traitsIcESaIcEEE
libPocoFoundation.so.94:_ZN4Poco21DirectoryIteratorImplD1Ev
libPocoFoundation.so.94:_ZN4Poco21DirectoryIteratorImplD2Ev
libPocoFoundation.so.94:_ZN4Poco21FileNotFoundExceptionC1ERKNSt7__cxx1112basic_stringIcSt11char_traitsIcESaIcEEERKNS_9ExceptionEi
libPocoFoundation.so.94:_ZN4Poco21FileNotFoundExceptionC1ERKNSt7__cxx1112basic_stringIcSt11char_traitsIcESaIcEEES8_i
libPocoFoundation.so.94:_ZN4Poco21FileNotFoundExceptionC1ERKNSt7__cxx1112basic_stringIcSt11char_traitsIcESaIcEEEi
libPocoFoundation.so.94:_ZN4Poco21FileNotFoundExceptionC1ERKS0_
libPocoFoundation.so.94:_ZN4Poco21FileNotFoundExceptionC1Ei
libPocoFoundation.so.94:_ZN4Poco21FileNotFoundExceptionC2ERKNSt7__cxx1112basic_stringIcSt11char_traitsIcESaIcEEERKNS_9ExceptionEi
libPocoFoundation.so.94:_ZN4Poco21FileNotFoundExceptionC2ERKNSt7__cxx1112basic_stringIcSt11char_traitsIcESaIcEEES8_i
libPocoFoundation.so.94:_ZN4Poco21FileNotFoundExceptionC2ERKNSt7__cxx1112basic_stringIcSt11char_traitsIcESaIcEEEi
libPocoFoundation.so.94:_ZN4Poco21FileNotFoundExceptionC2ERKS0_
libPocoFoundation.so.94:_ZN4Poco21FileNotFoundExceptionC2Ei
libPocoFoundation.so.94:_ZN4Poco21FileNotFoundExceptionD0Ev
libPocoFoundation.so.94:_ZN4Poco21FileNotFoundExceptionD1Ev
libPocoFoundation.so.94:_ZN4Poco21FileNotFoundExceptionD2Ev
libPocoFoundation.so.94:_ZN4Poco21FileNotFoundExceptionaSERKS0_
libPocoFoundation.so.94:_ZN4Poco21FileReadOnlyExceptionC1ERKNSt7__cxx1112basic_stringIcSt11char_traitsIcESaIcEEERKNS_9ExceptionEi
libPocoFoundation.so.94:_ZN4Poco21FileReadOnlyExceptionC1ERKNSt7__cxx1112basic_stringIcSt11char_traitsIcESaIcEEES8_i
libPocoFoundation.so.94:_ZN4Poco21FileReadOnlyExceptionC1ERKNSt7__cxx1112basic_stringIcSt11char_traitsIcESaIcEEEi
libPocoFoundation.so.94:_ZN4Poco21FileReadOnlyExceptionC1ERKS0_
libPocoFoundation.so.94:_ZN4Poco21FileReadOnlyExceptionC1Ei
libPocoFoundation.so.94:_ZN4Poco21FileReadOnlyExceptionC2ERKNSt7__cxx1112basic_stringIcSt11char_traitsIcESaIcEEERKNS_9ExceptionEi
libPocoFoundation.so.94:_ZN4Poco21FileReadOnlyExceptionC2ERKNSt7__cxx1112basic_stringIcSt11char_traitsIcESaIcEEES8_i
libPocoFoundation.so.94:_ZN4Poco21FileReadOnlyExceptionC2ERKNSt7__cxx1112basic_stringIcSt11char_traitsIcESaIcEEEi
libPocoFoundation.so.94:_ZN4Poco21FileReadOnlyExceptionC2ERKS0_
libPocoFoundation.so.94:_ZN4Poco21FileReadOnlyExceptionC2Ei
libPocoFoundation.so.94:_ZN4Poco21FileReadOnlyExceptionD0Ev
libPocoFoundation.so.94:_ZN4Poco21FileReadOnlyExceptionD1Ev
libPocoFoundation.so.94:_ZN4Poco21FileReadOnlyExceptionD2Ev
libPocoFoundation.so.94:_ZN4Poco21FileReadOnlyExceptionaSERKS0_
libPocoFoundation.so.94:_ZN4Poco21IllegalStateExceptionC1ERKNSt7__cxx1112basic_stringIcSt11char_traitsIcESaIcEEERKNS_9ExceptionEi
libPocoFoundation.so.94:_ZN4Poco21IllegalStateExceptionC1ERKNSt7__cxx1112basic_stringIcSt11char_traitsIcESaIcEEES8_i
libPocoFoundation.so.94:_ZN4Poco21IllegalStateExceptionC1ERKNSt7__cxx1112basic_stringIcSt11char_traitsIcESaIcEEEi
libPocoFoundation.so.94:_ZN4Poco21IllegalStateExceptionC1ERKS0_
libPocoFoundation.so.94:_ZN4Poco21IllegalStateExceptionC1Ei
libPocoFoundation.so.94:_ZN4Poco21IllegalStateExceptionC2ERKNSt7__cxx1112basic_stringIcSt11char_traitsIcESaIcEEERKNS_9ExceptionEi
libPocoFoundation.so.94:_ZN4Poco21IllegalStateExceptionC2ERKNSt7__cxx1112basic_stringIcSt11char_traitsIcESaIcEEES8_i
libPocoFoundation.so.94:_ZN4Poco21IllegalStateExceptionC2ERKNSt7__cxx1112basic_stringIcSt11char_traitsIcESaIcEEEi
libPocoFoundation.so.94:_ZN4Poco21IllegalStateExceptionC2ERKS0_
libPocoFoundation.so.94:_ZN4Poco21IllegalStateExceptionC2Ei
libPocoFoundation.so.94:_ZN4Poco21IllegalStateExceptionD0Ev
libPocoFoundation.so.94:_ZN4Poco21IllegalStateExceptionD1Ev
libPocoFoundation.so.94:_ZN4Poco21IllegalStateExceptionD2Ev
libPocoFoundation.so.94:_ZN4Poco21IllegalStateExceptionaSERKS0_
libPocoFoundation.so.94:_ZN4Poco21InflatingOutputStream5closeEv
libPocoFoundation.so.94:_ZN4Poco21InflatingOutputStreamC1ERSoNS_18InflatingStreamBuf10StreamTypeE
libPocoFoundation.so.94:_ZN4Poco21InflatingOutputStreamC1ERSoi
libPocoFoundation.so.94:_ZN4Poco21InflatingOutputStreamC2ERSoNS_18InflatingStreamBuf10StreamTypeE
libPocoFoundation.so.94:_ZN4Poco21InflatingOutputStreamC2ERSoi
libPocoFoundation.so.94:_ZN4Poco21InflatingOutputStreamD0Ev
libPocoFoundation.so.94:_ZN4Poco21InflatingOutputStreamD1Ev
libPocoFoundation.so.94:_ZN4Poco21InflatingOutputStreamD2Ev
libPocoFoundation.so.94:_ZN4Poco21NoPermissionExceptionC1ERKNSt7__cxx1112basic_stringIcSt11char_traitsIcESaIcEEERKNS_9ExceptionEi
libPocoFoundation.so.94:_ZN4Poco21NoPermissionExceptionC1ERKNSt7__cxx1112basic_stringIcSt11char_traitsIcESaIcEEES8_i
libPocoFoundation.so.94:_ZN4Poco21NoPermissionExceptionC1ERKNSt7__cxx1112basic_stringIcSt11char_traitsIcESaIcEEEi
libPocoFoundation.so.94:_ZN4Poco21NoPermissionExceptionC1ERKS0_
libPocoFoundation.so.94:_ZN4Poco21NoPermissionExceptionC1Ei
libPocoFoundation.so.94:_ZN4Poco21NoPermissionExceptionC2ERKNSt7__cxx1112basic_stringIcSt11char_traitsIcESaIcEEERKNS_9ExceptionEi
libPocoFoundation.so.94:_ZN4Poco21NoPermissionExceptionC2ERKNSt7__cxx1112basic_stringIcSt11char_traitsIcESaIcEEES8_i
libPocoFoundation.so.94:_ZN4Poco21NoPermissionExceptionC2ERKNSt7__cxx1112basic_stringIcSt11char_traitsIcESaIcEEEi
libPocoFoundation.so.94:_ZN4Poco21NoPermissionExceptionC2ERKS0_
libPocoFoundation.so.94:_ZN4Poco21NoPermissionExceptionC2Ei
libPocoFoundation.so.94:_ZN4Poco21NoPermissionExceptionD0Ev
libPocoFoundation.so.94:_ZN4Poco21NoPermissionExceptionD1Ev
libPocoFoundation.so.94:_ZN4Poco21NoPermissionExceptionD2Ev
libPocoFoundation.so.94:_ZN4Poco21NoPermissionExceptionaSERKS0_
libPocoFoundation.so.94:_ZN4Poco21OutputStreamConverterC1ERSoRKNS_12TextEncodingES4_i
libPocoFoundation.so.94:_ZN4Poco21OutputStreamConverterC2ERSoRKNS_12TextEncodingES4_i
libPocoFoundation.so.94:_ZN4Poco21OutputStreamConverterD0Ev
libPocoFoundation.so.94:_ZN4Poco21OutputStreamConverterD1Ev
libPocoFoundation.so.94:_ZN4Poco21OutputStreamConverterD2Ev
libPocoFoundation.so.94:_ZN4Poco21PathNotFoundExceptionC1ERKNSt7__cxx1112basic_stringIcSt11char_traitsIcESaIcEEERKNS_9ExceptionEi
libPocoFoundation.so.94:_ZN4Poco21PathNotFoundExceptionC1ERKNSt7__cxx1112basic_stringIcSt11char_traitsIcESaIcEEES8_i
libPocoFoundation.so.94:_ZN4Poco21PathNotFoundExceptionC1ERKNSt7__cxx1112basic_stringIcSt11char_traitsIcESaIcEEEi
libPocoFoundation.so.94:_ZN4Poco21PathNotFoundExceptionC1ERKS0_
libPocoFoundation.so.94:_ZN4Poco21PathNotFoundExceptionC1Ei
libPocoFoundation.so.94:_ZN4Poco21PathNotFoundExceptionC2ERKNSt7__cxx1112basic_stringIcSt11char_traitsIcESaIcEEERKNS_9ExceptionEi
libPocoFoundation.so.94:_ZN4Poco21PathNotFoundExceptionC2ERKNSt7__cxx1112basic_stringIcSt11char_traitsIcESaIcEEES8_i
libPocoFoundation.so.94:_ZN4Poco21PathNotFoundExceptionC2ERKNSt7__cxx1112basic_stringIcSt11char_traitsIcESaIcEEEi
libPocoFoundation.so.94:_ZN4Poco21PathNotFoundExceptionC2ERKS0_
libPocoFoundation.so.94:_ZN4Poco21PathNotFoundExceptionC2Ei
libPocoFoundation.so.94:_ZN4Poco21PathNotFoundExceptionD0Ev
libPocoFoundation.so.94:_ZN4Poco21PathNotFoundExceptionD1Ev
libPocoFoundation.so.94:_ZN4Poco21PathNotFoundExceptionD2Ev
libPocoFoundation.so.94:_ZN4Poco21PathNotFoundExceptionaSERKS0_
libPocoFoundation.so.94:_ZN4Poco21PoolOverflowExceptionC1ERKNSt7__cxx1112basic_stringIcSt11char_traitsIcESaIcEEERKNS_9ExceptionEi
libPocoFoundation.so.94:_ZN4Poco21PoolOverflowExceptionC1ERKNSt7__cxx1112basic_stringIcSt11char_traitsIcESaIcEEES8_i
libPocoFoundation.so.94:_ZN4Poco21PoolOverflowExceptionC1ERKNSt7__cxx1112basic_stringIcSt11char_traitsIcESaIcEEEi
libPocoFoundation.so.94:_ZN4Poco21PoolOverflowExceptionC1ERKS0_
libPocoFoundation.so.94:_ZN4Poco21PoolOverflowExceptionC1Ei
libPocoFoundation.so.94:_ZN4Poco21PoolOverflowExceptionC2ERKNSt7__cxx1112basic_stringIcSt11char_traitsIcESaIcEEERKNS_9ExceptionEi
libPocoFoundation.so.94:_ZN4Poco21PoolOverflowExceptionC2ERKNSt7__cxx1112basic_stringIcSt11char_traitsIcESaIcEEES8_i
libPocoFoundation.so.94:_ZN4Poco21PoolOverflowExceptionC2ERKNSt7__cxx1112basic_stringIcSt11char_traitsIcESaIcEEEi
libPocoFoundation.so.94:_ZN4Poco21PoolOverflowExceptionC2ERKS0_
libPocoFoundation.so.94:_ZN4Poco21PoolOverflowExceptionC2Ei
libPocoFoundation.so.94:_ZN4Poco21PoolOverflowExceptionD0Ev
libPocoFoundation.so.94:_ZN4Poco21PoolOverflowExceptionD1Ev
libPocoFoundation.so.94:_ZN4Poco21PoolOverflowExceptionD2Ev
libPocoFoundation.so.94:_ZN4Poco21PoolOverflowExceptionaSERKS0_
libPocoFoundation.so.94:_ZN4Poco21SiblingsFirstTraverse4nextB5cxx11EPSt5stackINS_17DirectoryIteratorESt5dequeIS2_SaIS2_EEEPb
libPocoFoundation.so.94:_ZN4Poco21SiblingsFirstTraverseC1ESt8functionIFtRKSt5stackINS_17DirectoryIteratorESt5dequeIS3_SaIS3_EEEEEt
libPocoFoundation.so.94:_ZN4Poco21SiblingsFirstTraverseC2ESt8functionIFtRKSt5stackINS_17DirectoryIteratorESt5dequeIS3_SaIS3_EEEEEt
libPocoFoundation.so.94:_ZN4Poco22InvalidAccessExceptionC1ERKNSt7__cxx1112basic_stringIcSt11char_traitsIcESaIcEEERKNS_9ExceptionEi
libPocoFoundation.so.94:_ZN4Poco22InvalidAccessExceptionC1ERKNSt7__cxx1112basic_stringIcSt11char_traitsIcESaIcEEES8_i
libPocoFoundation.so.94:_ZN4Poco22InvalidAccessExceptionC1ERKNSt7__cxx1112basic_stringIcSt11char_traitsIcESaIcEEEi
libPocoFoundation.so.94:_ZN4Poco22InvalidAccessExceptionC1ERKS0_
libPocoFoundation.so.94:_ZN4Poco22InvalidAccessExceptionC1Ei
libPocoFoundation.so.94:_ZN4Poco22InvalidAccessExceptionC2ERKNSt7__cxx1112basic_stringIcSt11char_traitsIcESaIcEEERKNS_9ExceptionEi
libPocoFoundation.so.94:_ZN4Poco22InvalidAccessExceptionC2ERKNSt7__cxx1112basic_stringIcSt11char_traitsIcESaIcEEES8_i
libPocoFoundation.so.94:_ZN4Poco22InvalidAccessExceptionC2ERKNSt7__cxx1112basic_stringIcSt11char_traitsIcESaIcEEEi
libPocoFoundation.so.94:_ZN4Poco22InvalidAccessExceptionC2ERKS0_
libPocoFoundation.so.94:_ZN4Poco22InvalidAccessExceptionC2Ei
libPocoFoundation.so.94:_ZN4Poco22InvalidAccessExceptionD0Ev
libPocoFoundation.so.94:_ZN4Poco22InvalidAccessExceptionD1Ev
libPocoFoundation.so.94:_ZN4Poco22InvalidAccessExceptionD2Ev
libPocoFoundation.so.94:_ZN4Poco22InvalidAccessExceptionaSERKS0_
libPocoFoundation.so.94:_ZN4Poco22LineEndingConverterIOS10setNewLineERKNSt7__cxx1112basic_stringIcSt11char_traitsIcESaIcEEE
libPocoFoundation.so.94:_ZN4Poco22LineEndingConverterIOS5rdbufEv
libPocoFoundation.so.94:_ZN4Poco22LineEndingConverterIOSC1ERSi
libPocoFoundation.so.94:_ZN4Poco22LineEndingConverterIOSC1ERSo
libPocoFoundation.so.94:_ZN4Poco22LineEndingConverterIOSC2ERSi
libPocoFoundation.so.94:_ZN4Poco22LineEndingConverterIOSC2ERSo
libPocoFoundation.so.94:_ZN4Poco22LineEndingConverterIOSD0Ev
libPocoFoundation.so.94:_ZN4Poco22LineEndingConverterIOSD1Ev
libPocoFoundation.so.94:_ZN4Poco22LineEndingConverterIOSD2Ev
libPocoFoundation.so.94:_ZN4Poco22TaskFailedNotificationC1EPNS_4TaskERKNS_9ExceptionE
libPocoFoundation.so.94:_ZN4Poco22TaskFailedNotificationC2EPNS_4TaskERKNS_9ExceptionE
libPocoFoundation.so.94:_ZN4Poco22TaskFailedNotificationD0Ev
libPocoFoundation.so.94:_ZN4Poco22TaskFailedNotificationD1Ev
libPocoFoundation.so.94:_ZN4Poco22TaskFailedNotificationD2Ev
libPocoFoundation.so.94:_ZN4Poco22TimedNotificationQueue10dequeueOneERSt17_Rb_tree_iteratorISt4pairIKNS_5ClockENS_7AutoPtrINS_12NotificationEEEEE
libPocoFoundation.so.94:_ZN4Poco22TimedNotificationQueue19dequeueNotificationEv
libPocoFoundation.so.94:_ZN4Poco22TimedNotificationQueue19enqueueNotificationENS_7AutoPtrINS_12NotificationEEENS_5ClockE
libPocoFoundation.so.94:_ZN4Poco22TimedNotificationQueue19enqueueNotificationENS_7AutoPtrINS_12NotificationEEENS_9TimestampE
libPocoFoundation.so.94:_ZN4Poco22TimedNotificationQueue23waitDequeueNotificationEl
libPocoFoundation.so.94:_ZN4Poco22TimedNotificationQueue23waitDequeueNotificationEv
libPocoFoundation.so.94:_ZN4Poco22TimedNotificationQueue4waitEl
libPocoFoundation.so.94:_ZN4Poco22TimedNotificationQueue5clearEv
libPocoFoundation.so.94:_ZN4Poco22TimedNotificationQueueC1Ev
libPocoFoundation.so.94:_ZN4Poco22TimedNotificationQueueC2Ev
libPocoFoundation.so.94:_ZN4Poco22TimedNotificationQueueD1Ev
libPocoFoundation.so.94:_ZN4Poco22TimedNotificationQueueD2Ev
libPocoFoundation.so.94:_ZN4Poco23ArchiveByNumberStrategy7archiveEPNS_7LogFileE
libPocoFoundation.so.94:_ZN4Poco23ArchiveByNumberStrategyC1Ev
libPocoFoundation.so.94:_ZN4Poco23ArchiveByNumberStrategyC2Ev
libPocoFoundation.so.94:_ZN4Poco23ArchiveByNumberStrategyD0Ev
libPocoFoundation.so.94:_ZN4Poco23ArchiveByNumberStrategyD1Ev
libPocoFoundation.so.94:_ZN4Poco23ArchiveByNumberStrategyD2Ev
libPocoFoundation.so.94:_ZN4Poco23NestedDiagnosticContext3popEv
libPocoFoundation.so.94:_ZN4Poco23NestedDiagnosticContext4pushERKNSt7__cxx1112basic_stringIcSt11char_traitsIcESaIcEEE
libPocoFoundation.so.94:_ZN4Poco23NestedDiagnosticContext4pushERKNSt7__cxx1112basic_stringIcSt11char_traitsIcESaIcEEEiPKc
libPocoFoundation.so.94:_ZN4Poco23NestedDiagnosticContext5clearEv
libPocoFoundation.so.94:_ZN4Poco23NestedDiagnosticContext7currentEv
libPocoFoundation.so.94:_ZN4Poco23NestedDiagnosticContextC1ERKS0_
libPocoFoundation.so.94:_ZN4Poco23NestedDiagnosticContextC1Ev
libPocoFoundation.so.94:_ZN4Poco23NestedDiagnosticContextC2ERKS0_
libPocoFoundation.so.94:_ZN4Poco23NestedDiagnosticContextC2Ev
libPocoFoundation.so.94:_ZN4Poco23NestedDiagnosticContextD1Ev
libPocoFoundation.so.94:_ZN4Poco23NestedDiagnosticContextD2Ev
libPocoFoundation.so.94:_ZN4Poco23NestedDiagnosticContextaSERKS0_
libPocoFoundation.so.94:_ZN4Poco23NotImplementedExceptionC1ERKNSt7__cxx1112basic_stringIcSt11char_traitsIcESaIcEEERKNS_9ExceptionEi
libPocoFoundation.so.94:_ZN4Poco23NotImplementedExceptionC1ERKNSt7__cxx1112basic_stringIcSt11char_traitsIcESaIcEEES8_i
libPocoFoundation.so.94:_ZN4Poco23NotImplementedExceptionC1ERKNSt7__cxx1112basic_stringIcSt11char_traitsIcESaIcEEEi
libPocoFoundation.so.94:_ZN4Poco23NotImplementedExceptionC1ERKS0_
libPocoFoundation.so.94:_ZN4Poco23NotImplementedExceptionC1Ei
libPocoFoundation.so.94:_ZN4Poco23NotImplementedExceptionC2ERKNSt7__cxx1112basic_stringIcSt11char_traitsIcESaIcEEERKNS_9ExceptionEi
libPocoFoundation.so.94:_ZN4Poco23NotImplementedExceptionC2ERKNSt7__cxx1112basic_stringIcSt11char_traitsIcESaIcEEES8_i
libPocoFoundation.so.94:_ZN4Poco23NotImplementedExceptionC2ERKNSt7__cxx1112basic_stringIcSt11char_traitsIcESaIcEEEi
libPocoFoundation.so.94:_ZN4Poco23NotImplementedExceptionC2ERKS0_
libPocoFoundation.so.94:_ZN4Poco23NotImplementedExceptionC2Ei
libPocoFoundation.so.94:_ZN4Poco23NotImplementedExceptionD0Ev
libPocoFoundation.so.94:_ZN4Poco23NotImplementedExceptionD1Ev
libPocoFoundation.so.94:_ZN4Poco23NotImplementedExceptionD2Ev
libPocoFoundation.so.94:_ZN4Poco23NotImplementedExceptionaSERKS0_
libPocoFoundation.so.94:_ZN4Poco23SortedDirectoryIterator4nextEv
libPocoFoundation.so.94:_ZN4Poco23SortedDirectoryIterator4scanEv
libPocoFoundation.so.94:_ZN4Poco23SortedDirectoryIteratorC1ERKNS_17DirectoryIteratorE
libPocoFoundation.so.94:_ZN4Poco23SortedDirectoryIteratorC1ERKNS_4FileE
libPocoFoundation.so.94:_ZN4Poco23SortedDirectoryIteratorC1ERKNS_4PathE
libPocoFoundation.so.94:_ZN4Poco23SortedDirectoryIteratorC1ERKNSt7__cxx1112basic_stringIcSt11char_traitsIcESaIcEEE
libPocoFoundation.so.94:_ZN4Poco23SortedDirectoryIteratorC1Ev
libPocoFoundation.so.94:_ZN4Poco23SortedDirectoryIteratorC2ERKNS_17DirectoryIteratorE
libPocoFoundation.so.94:_ZN4Poco23SortedDirectoryIteratorC2ERKNS_4FileE
libPocoFoundation.so.94:_ZN4Poco23SortedDirectoryIteratorC2ERKNS_4PathE
libPocoFoundation.so.94:_ZN4Poco23SortedDirectoryIteratorC2ERKNSt7__cxx1112basic_stringIcSt11char_traitsIcESaIcEEE
libPocoFoundation.so.94:_ZN4Poco23SortedDirectoryIteratorC2Ev
libPocoFoundation.so.94:_ZN4Poco23SortedDirectoryIteratorD0Ev
libPocoFoundation.so.94:_ZN4Poco23SortedDirectoryIteratorD1Ev
libPocoFoundation.so.94:_ZN4Poco23SortedDirectoryIteratorD2Ev
libPocoFoundation.so.94:_ZN4Poco23SortedDirectoryIteratorppEv
libPocoFoundation.so.94:_ZN4Poco23TaskStartedNotificationC1EPNS_4TaskE
libPocoFoundation.so.94:_ZN4Poco23TaskStartedNotificationC2EPNS_4TaskE
libPocoFoundation.so.94:_ZN4Poco23TaskStartedNotificationD0Ev
libPocoFoundation.so.94:_ZN4Poco23TaskStartedNotificationD1Ev
libPocoFoundation.so.94:_ZN4Poco23TaskStartedNotificationD2Ev
libPocoFoundation.so.94:_ZN4Poco24InputLineEndingConverterC1ERSi
libPocoFoundation.so.94:_ZN4Poco24InputLineEndingConverterC1ERSiRKNSt7__cxx1112basic_stringIcSt11char_traitsIcESaIcEEE
libPocoFoundation.so.94:_ZN4Poco24InputLineEndingConverterC2ERSi
libPocoFoundation.so.94:_ZN4Poco24InputLineEndingConverterC2ERSiRKNSt7__cxx1112basic_stringIcSt11char_traitsIcESaIcEEE
libPocoFoundation.so.94:_ZN4Poco24InputLineEndingConverterD0Ev
libPocoFoundation.so.94:_ZN4Poco24InputLineEndingConverterD1Ev
libPocoFoundation.so.94:_ZN4Poco24InputLineEndingConverterD2Ev
libPocoFoundation.so.94:_ZN4Poco24InvalidArgumentExceptionC1ERKNSt7__cxx1112basic_stringIcSt11char_traitsIcESaIcEEERKNS_9ExceptionEi
libPocoFoundation.so.94:_ZN4Poco24InvalidArgumentExceptionC1ERKNSt7__cxx1112basic_stringIcSt11char_traitsIcESaIcEEES8_i
libPocoFoundation.so.94:_ZN4Poco24InvalidArgumentExceptionC1ERKNSt7__cxx1112basic_stringIcSt11char_traitsIcESaIcEEEi
libPocoFoundation.so.94:_ZN4Poco24InvalidArgumentExceptionC1ERKS0_
libPocoFoundation.so.94:_ZN4Poco24InvalidArgumentExceptionC1Ei
libPocoFoundation.so.94:_ZN4Poco24InvalidArgumentExceptionC2ERKNSt7__cxx1112basic_stringIcSt11char_traitsIcESaIcEEERKNS_9ExceptionEi
libPocoFoundation.so.94:_ZN4Poco24InvalidArgumentExceptionC2ERKNSt7__cxx1112basic_stringIcSt11char_traitsIcESaIcEEES8_i
libPocoFoundation.so.94:_ZN4Poco24InvalidArgumentExceptionC2ERKNSt7__cxx1112basic_stringIcSt11char_traitsIcESaIcEEEi
libPocoFoundation.so.94:_ZN4Poco24InvalidArgumentExceptionC2ERKS0_
libPocoFoundation.so.94:_ZN4Poco24InvalidArgumentExceptionC2Ei
libPocoFoundation.so.94:_ZN4Poco24InvalidArgumentExceptionD0Ev
libPocoFoundation.so.94:_ZN4Poco24InvalidArgumentExceptionD1Ev
libPocoFoundation.so.94:_ZN4Poco24InvalidArgumentExceptionD2Ev
libPocoFoundation.so.94:_ZN4Poco24InvalidArgumentExceptionaSERKS0_
libPocoFoundation.so.94:_ZN4Poco24RotateByIntervalStrategy10mustRotateEPNS_7LogFileE
libPocoFoundation.so.94:_ZN4Poco24RotateByIntervalStrategy11ROTATE_TEXTB5cxx11E
libPocoFoundation.so.94:_ZN4Poco24RotateByIntervalStrategyC1ERKNS_8TimespanE
libPocoFoundation.so.94:_ZN4Poco24RotateByIntervalStrategyC2ERKNS_8TimespanE
libPocoFoundation.so.94:_ZN4Poco24RotateByIntervalStrategyD0Ev
libPocoFoundation.so.94:_ZN4Poco24RotateByIntervalStrategyD1Ev
libPocoFoundation.so.94:_ZN4Poco24RotateByIntervalStrategyD2Ev
libPocoFoundation.so.94:_ZN4Poco24TaskFinishedNotificationC1EPNS_4TaskE
libPocoFoundation.so.94:_ZN4Poco24TaskFinishedNotificationC2EPNS_4TaskE
libPocoFoundation.so.94:_ZN4Poco24TaskFinishedNotificationD0Ev
libPocoFoundation.so.94:_ZN4Poco24TaskFinishedNotificationD1Ev
libPocoFoundation.so.94:_ZN4Poco24TaskFinishedNotificationD2Ev
libPocoFoundation.so.94:_ZN4Poco24TaskProgressNotificationC1EPNS_4TaskEf
libPocoFoundation.so.94:_ZN4Poco24TaskProgressNotificationC2EPNS_4TaskEf
libPocoFoundation.so.94:_ZN4Poco24TaskProgressNotificationD0Ev
libPocoFoundation.so.94:_ZN4Poco24TaskProgressNotificationD1Ev
libPocoFoundation.so.94:_ZN4Poco24TaskProgressNotificationD2Ev
libPocoFoundation.so.94:_ZN4Poco25FileAccessDeniedExceptionC1ERKNSt7__cxx1112basic_stringIcSt11char_traitsIcESaIcEEERKNS_9ExceptionEi
libPocoFoundation.so.94:_ZN4Poco25FileAccessDeniedExceptionC1ERKNSt7__cxx1112basic_stringIcSt11char_traitsIcESaIcEEES8_i
libPocoFoundation.so.94:_ZN4Poco25FileAccessDeniedExceptionC1ERKNSt7__cxx1112basic_stringIcSt11char_traitsIcESaIcEEEi
libPocoFoundation.so.94:_ZN4Poco25FileAccessDeniedExceptionC1ERKS0_
libPocoFoundation.so.94:_ZN4Poco25FileAccessDeniedExceptionC1Ei
libPocoFoundation.so.94:_ZN4Poco25FileAccessDeniedExceptionC2ERKNSt7__cxx1112basic_stringIcSt11char_traitsIcESaIcEEERKNS_9ExceptionEi
libPocoFoundation.so.94:_ZN4Poco25FileAccessDeniedExceptionC2ERKNSt7__cxx1112basic_stringIcSt11char_traitsIcESaIcEEES8_i
libPocoFoundation.so.94:_ZN4Poco25FileAccessDeniedExceptionC2ERKNSt7__cxx1112basic_stringIcSt11char_traitsIcESaIcEEEi
libPocoFoundation.so.94:_ZN4Poco25FileAccessDeniedExceptionC2ERKS0_
libPocoFoundation.so.94:_ZN4Poco25FileAccessDeniedExceptionC2Ei
libPocoFoundation.so.94:_ZN4Poco25FileAccessDeniedExceptionD0Ev
libPocoFoundation.so.94:_ZN4Poco25FileAccessDeniedExceptionD1Ev
libPocoFoundation.so.94:_ZN4Poco25FileAccessDeniedExceptionD2Ev
libPocoFoundation.so.94:_ZN4Poco25FileAccessDeniedExceptionaSERKS0_
libPocoFoundation.so.94:_ZN4Poco25OutputLineEndingConverterC1ERSo
libPocoFoundation.so.94:_ZN4Poco25OutputLineEndingConverterC1ERSoRKNSt7__cxx1112basic_stringIcSt11char_traitsIcESaIcEEE
libPocoFoundation.so.94:_ZN4Poco25OutputLineEndingConverterC2ERSo
libPocoFoundation.so.94:_ZN4Poco25OutputLineEndingConverterC2ERSoRKNSt7__cxx1112basic_stringIcSt11char_traitsIcESaIcEEE
libPocoFoundation.so.94:_ZN4Poco25OutputLineEndingConverterD0Ev
libPocoFoundation.so.94:_ZN4Poco25OutputLineEndingConverterD1Ev
libPocoFoundation.so.94:_ZN4Poco25OutputLineEndingConverterD2Ev
libPocoFoundation.so.94:_ZN4Poco25PriorityNotificationQueue10dequeueOneEv
libPocoFoundation.so.94:_ZN4Poco25PriorityNotificationQueue12defaultQueueEv
libPocoFoundation.so.94:_ZN4Poco25PriorityNotificationQueue19dequeueNotificationEv
libPocoFoundation.so.94:_ZN4Poco25PriorityNotificationQueue19enqueueNotificationENS_7AutoPtrINS_12NotificationEEEi
libPocoFoundation.so.94:_ZN4Poco25PriorityNotificationQueue23waitDequeueNotificationEl
libPocoFoundation.so.94:_ZN4Poco25PriorityNotificationQueue23waitDequeueNotificationEv
libPocoFoundation.so.94:_ZN4Poco25PriorityNotificationQueue5clearEv
libPocoFoundation.so.94:_ZN4Poco25PriorityNotificationQueue8dispatchERNS_18NotificationCenterE
libPocoFoundation.so.94:_ZN4Poco25PriorityNotificationQueue9wakeUpAllEv
libPocoFoundation.so.94:_ZN4Poco25PriorityNotificationQueueC1Ev
libPocoFoundation.so.94:_ZN4Poco25PriorityNotificationQueueC2Ev
libPocoFoundation.so.94:_ZN4Poco25PriorityNotificationQueueD1Ev
libPocoFoundation.so.94:_ZN4Poco25PriorityNotificationQueueD2Ev
libPocoFoundation.so.94:_ZN4Poco25TaskCancelledNotificationC1EPNS_4TaskE
libPocoFoundation.so.94:_ZN4Poco25TaskCancelledNotificationC2EPNS_4TaskE
libPocoFoundation.so.94:_ZN4Poco25TaskCancelledNotificationD0Ev
libPocoFoundation.so.94:_ZN4Poco25TaskCancelledNotificationD1Ev
libPocoFoundation.so.94:_ZN4Poco25TaskCancelledNotificationD2Ev
libPocoFoundation.so.94:_ZN4Poco25UnknownURISchemeExceptionC1ERKNSt7__cxx1112basic_stringIcSt11char_traitsIcESaIcEEERKNS_9ExceptionEi
libPocoFoundation.so.94:_ZN4Poco25UnknownURISchemeExceptionC1ERKNSt7__cxx1112basic_stringIcSt11char_traitsIcESaIcEEES8_i
libPocoFoundation.so.94:_ZN4Poco25UnknownURISchemeExceptionC1ERKNSt7__cxx1112basic_stringIcSt11char_traitsIcESaIcEEEi
libPocoFoundation.so.94:_ZN4Poco25UnknownURISchemeExceptionC1ERKS0_
libPocoFoundation.so.94:_ZN4Poco25UnknownURISchemeExceptionC1Ei
libPocoFoundation.so.94:_ZN4Poco25UnknownURISchemeExceptionC2ERKNSt7__cxx1112basic_stringIcSt11char_traitsIcESaIcEEERKNS_9ExceptionEi
libPocoFoundation.so.94:_ZN4Poco25UnknownURISchemeExceptionC2ERKNSt7__cxx1112basic_stringIcSt11char_traitsIcESaIcEEES8_i
libPocoFoundation.so.94:_ZN4Poco25UnknownURISchemeExceptionC2ERKNSt7__cxx1112basic_stringIcSt11char_traitsIcESaIcEEEi
libPocoFoundation.so.94:_ZN4Poco25UnknownURISchemeExceptionC2ERKS0_
libPocoFoundation.so.94:_ZN4Poco25UnknownURISchemeExceptionC2Ei
libPocoFoundation.so.94:_ZN4Poco25UnknownURISchemeExceptionD0Ev
libPocoFoundation.so.94:_ZN4Poco25UnknownURISchemeExceptionD1Ev
libPocoFoundation.so.94:_ZN4Poco25UnknownURISchemeExceptionD2Ev
libPocoFoundation.so.94:_ZN4Poco25UnknownURISchemeExceptionaSERKS0_
libPocoFoundation.so.94:_ZN4Poco26CircularReferenceExceptionC1ERKNSt7__cxx1112basic_stringIcSt11char_traitsIcESaIcEEERKNS_9ExceptionEi
libPocoFoundation.so.94:_ZN4Poco26CircularReferenceExceptionC1ERKNSt7__cxx1112basic_stringIcSt11char_traitsIcESaIcEEES8_i
libPocoFoundation.so.94:_ZN4Poco26CircularReferenceExceptionC1ERKNSt7__cxx1112basic_stringIcSt11char_traitsIcESaIcEEEi
libPocoFoundation.so.94:_ZN4Poco26CircularReferenceExceptionC1ERKS0_
libPocoFoundation.so.94:_ZN4Poco26CircularReferenceExceptionC1Ei
libPocoFoundation.so.94:_ZN4Poco26CircularReferenceExceptionC2ERKNSt7__cxx1112basic_stringIcSt11char_traitsIcESaIcEEERKNS_9ExceptionEi
libPocoFoundation.so.94:_ZN4Poco26CircularReferenceExceptionC2ERKNSt7__cxx1112basic_stringIcSt11char_traitsIcESaIcEEES8_i
libPocoFoundation.so.94:_ZN4Poco26CircularReferenceExceptionC2ERKNSt7__cxx1112basic_stringIcSt11char_traitsIcESaIcEEEi
libPocoFoundation.so.94:_ZN4Poco26CircularReferenceExceptionC2ERKS0_
libPocoFoundation.so.94:_ZN4Poco26CircularReferenceExceptionC2Ei
libPocoFoundation.so.94:_ZN4Poco26CircularReferenceExceptionD0Ev
libPocoFoundation.so.94:_ZN4Poco26CircularReferenceExceptionD1Ev
libPocoFoundation.so.94:_ZN4Poco26CircularReferenceExceptionD2Ev
libPocoFoundation.so.94:_ZN4Poco26CircularReferenceExceptionaSERKS0_
libPocoFoundation.so.94:_ZN4Poco26DirectoryNotEmptyExceptionC1ERKNSt7__cxx1112basic_stringIcSt11char_traitsIcESaIcEEERKNS_9ExceptionEi
libPocoFoundation.so.94:_ZN4Poco26DirectoryNotEmptyExceptionC1ERKNSt7__cxx1112basic_stringIcSt11char_traitsIcESaIcEEES8_i
libPocoFoundation.so.94:_ZN4Poco26DirectoryNotEmptyExceptionC1ERKNSt7__cxx1112basic_stringIcSt11char_traitsIcESaIcEEEi
libPocoFoundation.so.94:_ZN4Poco26DirectoryNotEmptyExceptionC1ERKS0_
libPocoFoundation.so.94:_ZN4Poco26DirectoryNotEmptyExceptionC1Ei
libPocoFoundation.so.94:_ZN4Poco26DirectoryNotEmptyExceptionC2ERKNSt7__cxx1112basic_stringIcSt11char_traitsIcESaIcEEERKNS_9ExceptionEi
libPocoFoundation.so.94:_ZN4Poco26DirectoryNotEmptyExceptionC2ERKNSt7__cxx1112basic_stringIcSt11char_traitsIcESaIcEEES8_i
libPocoFoundation.so.94:_ZN4Poco26DirectoryNotEmptyExceptionC2ERKNSt7__cxx1112basic_stringIcSt11char_traitsIcESaIcEEEi
libPocoFoundation.so.94:_ZN4Poco26DirectoryNotEmptyExceptionC2ERKS0_
libPocoFoundation.so.94:_ZN4Poco26DirectoryNotEmptyExceptionC2Ei
libPocoFoundation.so.94:_ZN4Poco26DirectoryNotEmptyExceptionD0Ev
libPocoFoundation.so.94:_ZN4Poco26DirectoryNotEmptyExceptionD1Ev
libPocoFoundation.so.94:_ZN4Poco26DirectoryNotEmptyExceptionD2Ev
libPocoFoundation.so.94:_ZN4Poco26DirectoryNotEmptyExceptionaSERKS0_
libPocoFoundation.so.94:_ZN4Poco26NoThreadAvailableExceptionC1ERKNSt7__cxx1112basic_stringIcSt11char_traitsIcESaIcEEERKNS_9ExceptionEi
libPocoFoundation.so.94:_ZN4Poco26NoThreadAvailableExceptionC1ERKNSt7__cxx1112basic_stringIcSt11char_traitsIcESaIcEEES8_i
libPocoFoundation.so.94:_ZN4Poco26NoThreadAvailableExceptionC1ERKNSt7__cxx1112basic_stringIcSt11char_traitsIcESaIcEEEi
libPocoFoundation.so.94:_ZN4Poco26NoThreadAvailableExceptionC1ERKS0_
libPocoFoundation.so.94:_ZN4Poco26NoThreadAvailableExceptionC1Ei
libPocoFoundation.so.94:_ZN4Poco26NoThreadAvailableExceptionC2ERKNSt7__cxx1112basic_stringIcSt11char_traitsIcESaIcEEERKNS_9ExceptionEi
libPocoFoundation.so.94:_ZN4Poco26NoThreadAvailableExceptionC2ERKNSt7__cxx1112basic_stringIcSt11char_traitsIcESaIcEEES8_i
libPocoFoundation.so.94:_ZN4Poco26NoThreadAvailableExceptionC2ERKNSt7__cxx1112basic_stringIcSt11char_traitsIcESaIcEEEi
libPocoFoundation.so.94:_ZN4Poco26NoThreadAvailableExceptionC2ERKS0_
libPocoFoundation.so.94:_ZN4Poco26NoThreadAvailableExceptionC2Ei
libPocoFoundation.so.94:_ZN4Poco26NoThreadAvailableExceptionD0Ev
libPocoFoundation.so.94:_ZN4Poco26NoThreadAvailableExceptionD1Ev
libPocoFoundation.so.94:_ZN4Poco26NoThreadAvailableExceptionD2Ev
libPocoFoundation.so.94:_ZN4Poco26NoThreadAvailableExceptionaSERKS0_
libPocoFoundation.so.94:_ZN4Poco26RegularExpressionExceptionC1ERKNSt7__cxx1112basic_stringIcSt11char_traitsIcESaIcEEERKNS_9ExceptionEi
libPocoFoundation.so.94:_ZN4Poco26RegularExpressionExceptionC1ERKNSt7__cxx1112basic_stringIcSt11char_traitsIcESaIcEEES8_i
libPocoFoundation.so.94:_ZN4Poco26RegularExpressionExceptionC1ERKNSt7__cxx1112basic_stringIcSt11char_traitsIcESaIcEEEi
libPocoFoundation.so.94:_ZN4Poco26RegularExpressionExceptionC1ERKS0_
libPocoFoundation.so.94:_ZN4Poco26RegularExpressionExceptionC1Ei
libPocoFoundation.so.94:_ZN4Poco26RegularExpressionExceptionC2ERKNSt7__cxx1112basic_stringIcSt11char_traitsIcESaIcEEERKNS_9ExceptionEi
libPocoFoundation.so.94:_ZN4Poco26RegularExpressionExceptionC2ERKNSt7__cxx1112basic_stringIcSt11char_traitsIcESaIcEEES8_i
libPocoFoundation.so.94:_ZN4Poco26RegularExpressionExceptionC2ERKNSt7__cxx1112basic_stringIcSt11char_traitsIcESaIcEEEi
libPocoFoundation.so.94:_ZN4Poco26RegularExpressionExceptionC2ERKS0_
libPocoFoundation.so.94:_ZN4Poco26RegularExpressionExceptionC2Ei
libPocoFoundation.so.94:_ZN4Poco26RegularExpressionExceptionD0Ev
libPocoFoundation.so.94:_ZN4Poco26RegularExpressionExceptionD1Ev
libPocoFoundation.so.94:_ZN4Poco26RegularExpressionExceptionD2Ev
libPocoFoundation.so.94:_ZN4Poco26RegularExpressionExceptionaSERKS0_
libPocoFoundation.so.94:_ZN4Poco27AssertionViolationExceptionC1ERKNSt7__cxx1112basic_stringIcSt11char_traitsIcESaIcEEERKNS_9ExceptionEi
libPocoFoundation.so.94:_ZN4Poco27AssertionViolationExceptionC1ERKNSt7__cxx1112basic_stringIcSt11char_traitsIcESaIcEEES8_i
libPocoFoundation.so.94:_ZN4Poco27AssertionViolationExceptionC1ERKNSt7__cxx1112basic_stringIcSt11char_traitsIcESaIcEEEi
libPocoFoundation.so.94:_ZN4Poco27AssertionViolationExceptionC1ERKS0_
libPocoFoundation.so.94:_ZN4Poco27AssertionViolationExceptionC1Ei
libPocoFoundation.so.94:_ZN4Poco27AssertionViolationExceptionC2ERKNSt7__cxx1112basic_stringIcSt11char_traitsIcESaIcEEERKNS_9ExceptionEi
libPocoFoundation.so.94:_ZN4Poco27AssertionViolationExceptionC2ERKNSt7__cxx1112basic_stringIcSt11char_traitsIcESaIcEEES8_i
libPocoFoundation.so.94:_ZN4Poco27AssertionViolationExceptionC2ERKNSt7__cxx1112basic_stringIcSt11char_traitsIcESaIcEEEi
libPocoFoundation.so.94:_ZN4Poco27AssertionViolationExceptionC2ERKS0_
libPocoFoundation.so.94:_ZN4Poco27AssertionViolationExceptionC2Ei
libPocoFoundation.so.94:_ZN4Poco27AssertionViolationExceptionD0Ev
libPocoFoundation.so.94:_ZN4Poco27AssertionViolationExceptionD1Ev
libPocoFoundation.so.94:_ZN4Poco27AssertionViolationExceptionD2Ev
libPocoFoundation.so.94:_ZN4Poco27AssertionViolationExceptionaSERKS0_
libPocoFoundation.so.94:_ZN4Poco28LineEndingConverterStreamBuf10setNewLineERKNSt7__cxx1112basic_stringIcSt11char_traitsIcESaIcEEE
libPocoFoundation.so.94:_ZN4Poco28LineEndingConverterStreamBuf13writeToDeviceEc
libPocoFoundation.so.94:_ZN4Poco28LineEndingConverterStreamBuf14readFromDeviceEv
libPocoFoundation.so.94:_ZN4Poco28LineEndingConverterStreamBufC1ERSi
libPocoFoundation.so.94:_ZN4Poco28LineEndingConverterStreamBufC1ERSo
libPocoFoundation.so.94:_ZN4Poco28LineEndingConverterStreamBufC2ERSi
libPocoFoundation.so.94:_ZN4Poco28LineEndingConverterStreamBufC2ERSo
libPocoFoundation.so.94:_ZN4Poco28LineEndingConverterStreamBufD0Ev
libPocoFoundation.so.94:_ZN4Poco28LineEndingConverterStreamBufD1Ev
libPocoFoundation.so.94:_ZN4Poco28LineEndingConverterStreamBufD2Ev
libPocoFoundation.so.94:_ZN4Poco28TooManyURIRedirectsExceptionC1ERKNSt7__cxx1112basic_stringIcSt11char_traitsIcESaIcEEERKNS_9ExceptionEi
libPocoFoundation.so.94:_ZN4Poco28TooManyURIRedirectsExceptionC1ERKNSt7__cxx1112basic_stringIcSt11char_traitsIcESaIcEEES8_i
libPocoFoundation.so.94:_ZN4Poco28TooManyURIRedirectsExceptionC1ERKNSt7__cxx1112basic_stringIcSt11char_traitsIcESaIcEEEi
libPocoFoundation.so.94:_ZN4Poco28TooManyURIRedirectsExceptionC1ERKS0_
libPocoFoundation.so.94:_ZN4Poco28TooManyURIRedirectsExceptionC1Ei
libPocoFoundation.so.94:_ZN4Poco28TooManyURIRedirectsExceptionC2ERKNSt7__cxx1112basic_stringIcSt11char_traitsIcESaIcEEERKNS_9ExceptionEi
libPocoFoundation.so.94:_ZN4Poco28TooManyURIRedirectsExceptionC2ERKNSt7__cxx1112basic_stringIcSt11char_traitsIcESaIcEEES8_i
libPocoFoundation.so.94:_ZN4Poco28TooManyURIRedirectsExceptionC2ERKNSt7__cxx1112basic_stringIcSt11char_traitsIcESaIcEEEi
libPocoFoundation.so.94:_ZN4Poco28TooManyURIRedirectsExceptionC2ERKS0_
libPocoFoundation.so.94:_ZN4Poco28TooManyURIRedirectsExceptionC2Ei
libPocoFoundation.so.94:_ZN4Poco28TooManyURIRedirectsExceptionD0Ev
libPocoFoundation.so.94:_ZN4Poco28TooManyURIRedirectsExceptionD1Ev
libPocoFoundation.so.94:_ZN4Poco28TooManyURIRedirectsExceptionD2Ev
libPocoFoundation.so.94:_ZN4Poco28TooManyURIRedirectsExceptionaSERKS0_
libPocoFoundation.so.94:_ZN4Poco29LibraryAlreadyLoadedExceptionC1ERKNSt7__cxx1112basic_stringIcSt11char_traitsIcESaIcEEERKNS_9ExceptionEi
libPocoFoundation.so.94:_ZN4Poco29LibraryAlreadyLoadedExceptionC1ERKNSt7__cxx1112basic_stringIcSt11char_traitsIcESaIcEEES8_i
libPocoFoundation.so.94:_ZN4Poco29LibraryAlreadyLoadedExceptionC1ERKNSt7__cxx1112basic_stringIcSt11char_traitsIcESaIcEEEi
libPocoFoundation.so.94:_ZN4Poco29LibraryAlreadyLoadedExceptionC1ERKS0_
libPocoFoundation.so.94:_ZN4Poco29LibraryAlreadyLoadedExceptionC1Ei
libPocoFoundation.so.94:_ZN4Poco29LibraryAlreadyLoadedExceptionC2ERKNSt7__cxx1112basic_stringIcSt11char_traitsIcESaIcEEERKNS_9ExceptionEi
libPocoFoundation.so.94:_ZN4Poco29LibraryAlreadyLoadedExceptionC2ERKNSt7__cxx1112basic_stringIcSt11char_traitsIcESaIcEEES8_i
libPocoFoundation.so.94:_ZN4Poco29LibraryAlreadyLoadedExceptionC2ERKNSt7__cxx1112basic_stringIcSt11char_traitsIcESaIcEEEi
libPocoFoundation.so.94:_ZN4Poco29LibraryAlreadyLoadedExceptionC2ERKS0_
libPocoFoundation.so.94:_ZN4Poco29LibraryAlreadyLoadedExceptionC2Ei
libPocoFoundation.so.94:_ZN4Poco29LibraryAlreadyLoadedExceptionD0Ev
libPocoFoundation.so.94:_ZN4Poco29LibraryAlreadyLoadedExceptionD1Ev
libPocoFoundation.so.94:_ZN4Poco29LibraryAlreadyLoadedExceptionD2Ev
libPocoFoundation.so.94:_ZN4Poco29LibraryAlreadyLoadedExceptionaSERKS0_
libPocoFoundation.so.94:_ZN4Poco29PropertyNotSupportedExceptionC1ERKNSt7__cxx1112basic_stringIcSt11char_traitsIcESaIcEEERKNS_9ExceptionEi
libPocoFoundation.so.94:_ZN4Poco29PropertyNotSupportedExceptionC1ERKNSt7__cxx1112basic_stringIcSt11char_traitsIcESaIcEEES8_i
libPocoFoundation.so.94:_ZN4Poco29PropertyNotSupportedExceptionC1ERKNSt7__cxx1112basic_stringIcSt11char_traitsIcESaIcEEEi
libPocoFoundation.so.94:_ZN4Poco29PropertyNotSupportedExceptionC1ERKS0_
libPocoFoundation.so.94:_ZN4Poco29PropertyNotSupportedExceptionC1Ei
libPocoFoundation.so.94:_ZN4Poco29PropertyNotSupportedExceptionC2ERKNSt7__cxx1112basic_stringIcSt11char_traitsIcESaIcEEERKNS_9ExceptionEi
libPocoFoundation.so.94:_ZN4Poco29PropertyNotSupportedExceptionC2ERKNSt7__cxx1112basic_stringIcSt11char_traitsIcESaIcEEES8_i
libPocoFoundation.so.94:_ZN4Poco29PropertyNotSupportedExceptionC2ERKNSt7__cxx1112basic_stringIcSt11char_traitsIcESaIcEEEi
libPocoFoundation.so.94:_ZN4Poco29PropertyNotSupportedExceptionC2ERKS0_
libPocoFoundation.so.94:_ZN4Poco29PropertyNotSupportedExceptionC2Ei
libPocoFoundation.so.94:_ZN4Poco29PropertyNotSupportedExceptionD0Ev
libPocoFoundation.so.94:_ZN4Poco29PropertyNotSupportedExceptionD1Ev
libPocoFoundation.so.94:_ZN4Poco29PropertyNotSupportedExceptionD2Ev
libPocoFoundation.so.94:_ZN4Poco29PropertyNotSupportedExceptionaSERKS0_
libPocoFoundation.so.94:_ZN4Poco3URI10parseQueryERN9__gnu_cxx17__normal_iteratorIPKcNSt7__cxx1112basic_stringIcSt11char_traitsIcESaIcEEEEERKSB_
libPocoFoundation.so.94:_ZN4Poco3URI10setPathEtcERKNSt7__cxx1112basic_stringIcSt11char_traitsIcESaIcEEE
libPocoFoundation.so.94:_ZN4Poco3URI11setFragmentERKNSt7__cxx1112basic_stringIcSt11char_traitsIcESaIcEEE
libPocoFoundation.so.94:_ZN4Poco3URI11setRawQueryERKNSt7__cxx1112basic_stringIcSt11char_traitsIcESaIcEEE
libPocoFoundation.so.94:_ZN4Poco3URI11setUserInfoERKNSt7__cxx1112basic_stringIcSt11char_traitsIcESaIcEEE
libPocoFoundation.so.94:_ZN4Poco3URI12parsePathEtcERN9__gnu_cxx17__normal_iteratorIPKcNSt7__cxx1112basic_stringIcSt11char_traitsIcESaIcEEEEERKSB_
libPocoFoundation.so.94:_ZN4Poco3URI12setAuthorityERKNSt7__cxx1112basic_stringIcSt11char_traitsIcESaIcEEE
libPocoFoundation.so.94:_ZN4Poco3URI13RESERVED_PATHB5cxx11E
libPocoFoundation.so.94:_ZN4Poco3URI13parseFragmentERN9__gnu_cxx17__normal_iteratorIPKcNSt7__cxx1112basic_stringIcSt11char_traitsIcESaIcEEEEERKSB_
libPocoFoundation.so.94:_ZN4Poco3URI14RESERVED_QUERYB5cxx11E
libPocoFoundation.so.94:_ZN4Poco3URI14parseAuthorityERN9__gnu_cxx17__normal_iteratorIPKcNSt7__cxx1112basic_stringIcSt11char_traitsIcESaIcEEEEERKSB_
libPocoFoundation.so.94:_ZN4Poco3URI14setRawFragmentERKNSt7__cxx1112basic_stringIcSt11char_traitsIcESaIcEEE
libPocoFoundation.so.94:_ZN4Poco3URI15getPathSegmentsERKNSt7__cxx1112basic_stringIcSt11char_traitsIcESaIcEEERSt6vectorIS6_SaIS6_EE
libPocoFoundation.so.94:_ZN4Poco3URI16parseHostAndPortERN9__gnu_cxx17__normal_iteratorIPKcNSt7__cxx1112basic_stringIcSt11char_traitsIcESaIcEEEEERKSB_
libPocoFoundation.so.94:_ZN4Poco3URI17RESERVED_FRAGMENTB5cxx11E
libPocoFoundation.so.94:_ZN4Poco3URI17addQueryParameterERKNSt7__cxx1112basic_stringIcSt11char_traitsIcESaIcEEES8_
libPocoFoundation.so.94:_ZN4Poco3URI17removeDotSegmentsEb
libPocoFoundation.so.94:_ZN4Poco3URI18setQueryParametersERKSt6vectorISt4pairINSt7__cxx1112basic_stringIcSt11char_traitsIcESaIcEEES8_ESaIS9_EE
libPocoFoundation.so.94:_ZN4Poco3URI20RESERVED_QUERY_PARAMB5cxx11E
libPocoFoundation.so.94:_ZN4Poco3URI4swapERS0_
libPocoFoundation.so.94:_ZN4Poco3URI5clearEv
libPocoFoundation.so.94:_ZN4Poco3URI5parseERKNSt7__cxx1112basic_stringIcSt11char_traitsIcESaIcEEE
libPocoFoundation.so.94:_ZN4Poco3URI6decodeERKNSt7__cxx1112basic_stringIcSt11char_traitsIcESaIcEEERS6_b
libPocoFoundation.so.94:_ZN4Poco3URI6encodeERKNSt7__cxx1112basic_stringIcSt11char_traitsIcESaIcEEES8_RS6_
libPocoFoundation.so.94:_ZN4Poco3URI7ILLEGALB5cxx11E
libPocoFoundation.so.94:_ZN4Poco3URI7resolveERKNSt7__cxx1112basic_stringIcSt11char_traitsIcESaIcEEE
libPocoFoundation.so.94:_ZN4Poco3URI7resolveERKS0_
libPocoFoundation.so.94:_ZN4Poco3URI7setHostERKNSt7__cxx1112basic_stringIcSt11char_traitsIcESaIcEEE
libPocoFoundation.so.94:_ZN4Poco3URI7setPathERKNSt7__cxx1112basic_stringIcSt11char_traitsIcESaIcEEE
libPocoFoundation.so.94:_ZN4Poco3URI7setPortEt
libPocoFoundation.so.94:_ZN4Poco3URI8setQueryERKNSt7__cxx1112basic_stringIcSt11char_traitsIcESaIcEEE
libPocoFoundation.so.94:_ZN4Poco3URI9buildPathERKSt6vectorINSt7__cxx1112basic_stringIcSt11char_traitsIcESaIcEEESaIS7_EEbb
libPocoFoundation.so.94:_ZN4Poco3URI9mergePathERKNSt7__cxx1112basic_stringIcSt11char_traitsIcESaIcEEE
libPocoFoundation.so.94:_ZN4Poco3URI9normalizeEv
libPocoFoundation.so.94:_ZN4Poco3URI9parsePathERN9__gnu_cxx17__normal_iteratorIPKcNSt7__cxx1112basic_stringIcSt11char_traitsIcESaIcEEEEERKSB_
libPocoFoundation.so.94:_ZN4Poco3URI9setSchemeERKNSt7__cxx1112basic_stringIcSt11char_traitsIcESaIcEEE
libPocoFoundation.so.94:_ZN4Poco3URIC1EOS0_
libPocoFoundation.so.94:_ZN4Poco3URIC1EPKc
libPocoFoundation.so.94:_ZN4Poco3URIC1ERKNS_4PathE
libPocoFoundation.so.94:_ZN4Poco3URIC1ERKNSt7__cxx1112basic_stringIcSt11char_traitsIcESaIcEEE
libPocoFoundation.so.94:_ZN4Poco3URIC1ERKNSt7__cxx1112basic_stringIcSt11char_traitsIcESaIcEEES8_
libPocoFoundation.so.94:_ZN4Poco3URIC1ERKNSt7__cxx1112basic_stringIcSt11char_traitsIcESaIcEEES8_S8_
libPocoFoundation.so.94:_ZN4Poco3URIC1ERKNSt7__cxx1112basic_stringIcSt11char_traitsIcESaIcEEES8_S8_S8_
libPocoFoundation.so.94:_ZN4Poco3URIC1ERKNSt7__cxx1112basic_stringIcSt11char_traitsIcESaIcEEES8_S8_S8_S8_
libPocoFoundation.so.94:_ZN4Poco3URIC1ERKS0_
libPocoFoundation.so.94:_ZN4Poco3URIC1ERKS0_RKNSt7__cxx1112basic_stringIcSt11char_traitsIcESaIcEEE
libPocoFoundation.so.94:_ZN4Poco3URIC1Ev
libPocoFoundation.so.94:_ZN4Poco3URIC2EOS0_
libPocoFoundation.so.94:_ZN4Poco3URIC2EPKc
libPocoFoundation.so.94:_ZN4Poco3URIC2ERKNS_4PathE
libPocoFoundation.so.94:_ZN4Poco3URIC2ERKNSt7__cxx1112basic_stringIcSt11char_traitsIcESaIcEEE
libPocoFoundation.so.94:_ZN4Poco3URIC2ERKNSt7__cxx1112basic_stringIcSt11char_traitsIcESaIcEEES8_
libPocoFoundation.so.94:_ZN4Poco3URIC2ERKNSt7__cxx1112basic_stringIcSt11char_traitsIcESaIcEEES8_S8_
libPocoFoundation.so.94:_ZN4Poco3URIC2ERKNSt7__cxx1112basic_stringIcSt11char_traitsIcESaIcEEES8_S8_S8_
libPocoFoundation.so.94:_ZN4Poco3URIC2ERKNSt7__cxx1112basic_stringIcSt11char_traitsIcESaIcEEES8_S8_S8_S8_
libPocoFoundation.so.94:_ZN4Poco3URIC2ERKS0_
libPocoFoundation.so.94:_ZN4Poco3URIC2ERKS0_RKNSt7__cxx1112basic_stringIcSt11char_traitsIcESaIcEEE
libPocoFoundation.so.94:_ZN4Poco3URIC2Ev
libPocoFoundation.so.94:_ZN4Poco3URID1Ev
libPocoFoundation.so.94:_ZN4Poco3URID2Ev
libPocoFoundation.so.94:_ZN4Poco3URIaSEOS0_
libPocoFoundation.so.94:_ZN4Poco3URIaSEPKc
libPocoFoundation.so.94:_ZN4Poco3URIaSERKNSt7__cxx1112basic_stringIcSt11char_traitsIcESaIcEEE
libPocoFoundation.so.94:_ZN4Poco3URIaSERKS0_
libPocoFoundation.so.94:_ZN4Poco4File10createFileEv
libPocoFoundation.so.94:_ZN4Poco4File11setReadOnlyEb
libPocoFoundation.so.94:_ZN4Poco4File12setWriteableEb
libPocoFoundation.so.94:_ZN4Poco4File13setExecutableEb
libPocoFoundation.so.94:_ZN4Poco4File15createDirectoryEv
libPocoFoundation.so.94:_ZN4Poco4File15handleLastErrorERKNSt7__cxx1112basic_stringIcSt11char_traitsIcESaIcEEE
libPocoFoundation.so.94:_ZN4Poco4File15setLastModifiedERKNS_9TimestampE
libPocoFoundation.so.94:_ZN4Poco4File17createDirectoriesEv
libPocoFoundation.so.94:_ZN4Poco4File4swapERS0_
libPocoFoundation.so.94:_ZN4Poco4File6moveToERKNSt7__cxx1112basic_stringIcSt11char_traitsIcESaIcEEEi
libPocoFoundation.so.94:_ZN4Poco4File6removeEb
libPocoFoundation.so.94:_ZN4Poco4File7setSizeEm
libPocoFoundation.so.94:_ZN4Poco4File8renameToERKNSt7__cxx1112basic_stringIcSt11char_traitsIcESaIcEEEi
libPocoFoundation.so.94:_ZN4Poco4FileC1EPKc
libPocoFoundation.so.94:_ZN4Poco4FileC1ERKNS_4PathE
libPocoFoundation.so.94:_ZN4Poco4FileC1ERKNSt7__cxx1112basic_stringIcSt11char_traitsIcESaIcEEE
libPocoFoundation.so.94:_ZN4Poco4FileC1ERKS0_
libPocoFoundation.so.94:_ZN4Poco4FileC1Ev
libPocoFoundation.so.94:_ZN4Poco4FileC2EPKc
libPocoFoundation.so.94:_ZN4Poco4FileC2ERKNS_4PathE
libPocoFoundation.so.94:_ZN4Poco4FileC2ERKNSt7__cxx1112basic_stringIcSt11char_traitsIcESaIcEEE
libPocoFoundation.so.94:_ZN4Poco4FileC2ERKS0_
libPocoFoundation.so.94:_ZN4Poco4FileC2Ev
libPocoFoundation.so.94:_ZN4Poco4FileD0Ev
libPocoFoundation.so.94:_ZN4Poco4FileD1Ev
libPocoFoundation.so.94:_ZN4Poco4FileD2Ev
libPocoFoundation.so.94:_ZN4Poco4FileaSEPKc
libPocoFoundation.so.94:_ZN4Poco4FileaSERKNS_4PathE
libPocoFoundation.so.94:_ZN4Poco4FileaSERKNSt7__cxx1112basic_stringIcSt11char_traitsIcESaIcEEE
libPocoFoundation.so.94:_ZN4Poco4FileaSERKS0_
libPocoFoundation.so.94:_ZN4Poco4Glob11isDirectoryERKNS_4PathEb
libPocoFoundation.so.94:_ZN4Poco4Glob18matchAfterAsteriskENS_12TextIteratorERKS1_S1_S3_
libPocoFoundation.so.94:_ZN4Poco4Glob4globEPKcRSt3setINSt7__cxx1112basic_stringIcSt11char_traitsIcESaIcEEESt4lessIS9_ESaIS9_EEi
libPocoFoundation.so.94:_ZN4Poco4Glob4globERKNS_4PathERSt3setINSt7__cxx1112basic_stringIcSt11char_traitsIcESaIcEEESt4lessISA_ESaISA_EEi
libPocoFoundation.so.94:_ZN4Poco4Glob4globERKNS_4PathES3_RSt3setINSt7__cxx1112basic_stringIcSt11char_traitsIcESaIcEEESt4lessISA_ESaISA_EEi
libPocoFoundation.so.94:_ZN4Poco4Glob4globERKNSt7__cxx1112basic_stringIcSt11char_traitsIcESaIcEEERSt3setIS6_St4lessIS6_ESaIS6_EEi
libPocoFoundation.so.94:_ZN4Poco4Glob5matchERKNSt7__cxx1112basic_stringIcSt11char_traitsIcESaIcEEE
libPocoFoundation.so.94:_ZN4Poco4Glob5matchERNS_12TextIteratorERKS1_S2_S4_
libPocoFoundation.so.94:_ZN4Poco4Glob7collectERKNS_4PathES3_S3_RKNSt7__cxx1112basic_stringIcSt11char_traitsIcESaIcEEERSt3setIS9_St4lessIS9_ESaIS9_EEi
libPocoFoundation.so.94:_ZN4Poco4Glob8matchSetERNS_12TextIteratorERKS1_i
libPocoFoundation.so.94:_ZN4Poco4GlobC1ERKNSt7__cxx1112basic_stringIcSt11char_traitsIcESaIcEEEi
libPocoFoundation.so.94:_ZN4Poco4GlobC2ERKNSt7__cxx1112basic_stringIcSt11char_traitsIcESaIcEEEi
libPocoFoundation.so.94:_ZN4Poco4GlobD1Ev
libPocoFoundation.so.94:_ZN4Poco4GlobD2Ev
libPocoFoundation.so.94:_ZN4Poco4Path10configHomeB5cxx11Ev
libPocoFoundation.so.94:_ZN4Poco4Path10makeParentEv
libPocoFoundation.so.94:_ZN4Poco4Path10parseGuessERKNSt7__cxx1112basic_stringIcSt11char_traitsIcESaIcEEE
libPocoFoundation.so.94:_ZN4Poco4Path11setBaseNameERKNSt7__cxx1112basic_stringIcSt11char_traitsIcESaIcEEE
libPocoFoundation.so.94:_ZN4Poco4Path11setFileNameERKNSt7__cxx1112basic_stringIcSt11char_traitsIcESaIcEEE
libPocoFoundation.so.94:_ZN4Poco4Path12makeAbsoluteERKS0_
libPocoFoundation.so.94:_ZN4Poco4Path12makeAbsoluteEv
libPocoFoundation.so.94:_ZN4Poco4Path12parseWindowsERKNSt7__cxx1112basic_stringIcSt11char_traitsIcESaIcEEE
libPocoFoundation.so.94:_ZN4Poco4Path12popDirectoryEv
libPocoFoundation.so.94:_ZN4Poco4Path12setExtensionERKNSt7__cxx1112basic_stringIcSt11char_traitsIcESaIcEEE
libPocoFoundation.so.94:_ZN4Poco4Path13makeDirectoryEv
libPocoFoundation.so.94:_ZN4Poco4Path13pushDirectoryERKNSt7__cxx1112basic_stringIcSt11char_traitsIcESaIcEEE
libPocoFoundation.so.94:_ZN4Poco4Path14parseDirectoryERKNSt7__cxx1112basic_stringIcSt11char_traitsIcESaIcEEE
libPocoFoundation.so.94:_ZN4Poco4Path14parseDirectoryERKNSt7__cxx1112basic_stringIcSt11char_traitsIcESaIcEEENS0_5StyleE
libPocoFoundation.so.94:_ZN4Poco4Path17popFrontDirectoryEv
libPocoFoundation.so.94:_ZN4Poco4Path4findEN9__gnu_cxx17__normal_iteratorIPKNSt7__cxx1112basic_stringIcSt11char_traitsIcESaIcEEESt6vectorIS8_SaIS8_EEEESE_RS9_RS0_
libPocoFoundation.so.94:_ZN4Poco4Path4findERKNSt7__cxx1112basic_stringIcSt11char_traitsIcESaIcEEES8_RS0_
libPocoFoundation.so.94:_ZN4Poco4Path4homeB5cxx11Ev
libPocoFoundation.so.94:_ZN4Poco4Path4nullB5cxx11Ev
libPocoFoundation.so.94:_ZN4Poco4Path4swapERS0_
libPocoFoundation.so.94:_ZN4Poco4Path4tempB5cxx11Ev
libPocoFoundation.so.94:_ZN4Poco4Path5clearEv
libPocoFoundation.so.94:_ZN4Poco4Path6appendERKS0_
libPocoFoundation.so.94:_ZN4Poco4Path6assignEPKc
libPocoFoundation.so.94:_ZN4Poco4Path6assignERKNSt7__cxx1112basic_stringIcSt11char_traitsIcESaIcEEE
libPocoFoundation.so.94:_ZN4Poco4Path6assignERKNSt7__cxx1112basic_stringIcSt11char_traitsIcESaIcEEENS0_5StyleE
libPocoFoundation.so.94:_ZN4Poco4Path6assignERKS0_
libPocoFoundation.so.94:_ZN4Poco4Path6configB5cxx11Ev
libPocoFoundation.so.94:_ZN4Poco4Path6expandERKNSt7__cxx1112basic_stringIcSt11char_traitsIcESaIcEEE
libPocoFoundation.so.94:_ZN4Poco4Path7currentB5cxx11Ev
libPocoFoundation.so.94:_ZN4Poco4Path7resolveERKS0_
libPocoFoundation.so.94:_ZN4Poco4Path7setNodeERKNSt7__cxx1112basic_stringIcSt11char_traitsIcESaIcEEE
libPocoFoundation.so.94:_ZN4Poco4Path8dataHomeB5cxx11Ev
libPocoFoundation.so.94:_ZN4Poco4Path8makeFileEv
libPocoFoundation.so.94:_ZN4Poco4Path8parseVMSERKNSt7__cxx1112basic_stringIcSt11char_traitsIcESaIcEEE
libPocoFoundation.so.94:_ZN4Poco4Path8tempHomeB5cxx11Ev
libPocoFoundation.so.94:_ZN4Poco4Path8tryParseERKNSt7__cxx1112basic_stringIcSt11char_traitsIcESaIcEEE
libPocoFoundation.so.94:_ZN4Poco4Path8tryParseERKNSt7__cxx1112basic_stringIcSt11char_traitsIcESaIcEEENS0_5StyleE
libPocoFoundation.so.94:_ZN4Poco4Path9cacheHomeB5cxx11Ev
libPocoFoundation.so.94:_ZN4Poco4Path9listRootsERSt6vectorINSt7__cxx1112basic_stringIcSt11char_traitsIcESaIcEEESaIS7_EE
libPocoFoundation.so.94:_ZN4Poco4Path9parseUnixERKNSt7__cxx1112basic_stringIcSt11char_traitsIcESaIcEEE
libPocoFoundation.so.94:_ZN4Poco4Path9setDeviceERKNSt7__cxx1112basic_stringIcSt11char_traitsIcESaIcEEE
libPocoFoundation.so.94:_ZN4Poco4Path9transcodeERKNSt7__cxx1112basic_stringIcSt11char_traitsIcESaIcEEE
libPocoFoundation.so.94:_ZN4Poco4PathC1EOS0_
libPocoFoundation.so.94:_ZN4Poco4PathC1EPKc
libPocoFoundation.so.94:_ZN4Poco4PathC1EPKcNS0_5StyleE
libPocoFoundation.so.94:_ZN4Poco4PathC1ERKNSt7__cxx1112basic_stringIcSt11char_traitsIcESaIcEEE
libPocoFoundation.so.94:_ZN4Poco4PathC1ERKNSt7__cxx1112basic_stringIcSt11char_traitsIcESaIcEEENS0_5StyleE
libPocoFoundation.so.94:_ZN4Poco4PathC1ERKS0_
libPocoFoundation.so.94:_ZN4Poco4PathC1ERKS0_PKc
libPocoFoundation.so.94:_ZN4Poco4PathC1ERKS0_RKNSt7__cxx1112basic_stringIcSt11char_traitsIcESaIcEEE
libPocoFoundation.so.94:_ZN4Poco4PathC1ERKS0_S2_
libPocoFoundation.so.94:_ZN4Poco4PathC1Eb
libPocoFoundation.so.94:_ZN4Poco4PathC1Ev
libPocoFoundation.so.94:_ZN4Poco4PathC2EOS0_
libPocoFoundation.so.94:_ZN4Poco4PathC2EPKc
libPocoFoundation.so.94:_ZN4Poco4PathC2EPKcNS0_5StyleE
libPocoFoundation.so.94:_ZN4Poco4PathC2ERKNSt7__cxx1112basic_stringIcSt11char_traitsIcESaIcEEE
libPocoFoundation.so.94:_ZN4Poco4PathC2ERKNSt7__cxx1112basic_stringIcSt11char_traitsIcESaIcEEENS0_5StyleE
libPocoFoundation.so.94:_ZN4Poco4PathC2ERKS0_
libPocoFoundation.so.94:_ZN4Poco4PathC2ERKS0_PKc
libPocoFoundation.so.94:_ZN4Poco4PathC2ERKS0_RKNSt7__cxx1112basic_stringIcSt11char_traitsIcESaIcEEE
libPocoFoundation.so.94:_ZN4Poco4PathC2ERKS0_S2_
libPocoFoundation.so.94:_ZN4Poco4PathC2Eb
libPocoFoundation.so.94:_ZN4Poco4PathC2Ev
libPocoFoundation.so.94:_ZN4Poco4PathD1Ev
libPocoFoundation.so.94:_ZN4Poco4PathD2Ev
libPocoFoundation.so.94:_ZN4Poco4PathaSEOS0_
libPocoFoundation.so.94:_ZN4Poco4PathaSEPKc
libPocoFoundation.so.94:_ZN4Poco4PathaSERKNSt7__cxx1112basic_stringIcSt11char_traitsIcESaIcEEE
libPocoFoundation.so.94:_ZN4Poco4PathaSERKS0_
libPocoFoundation.so.94:_ZN4Poco4Pipe5closeENS0_9CloseModeE
libPocoFoundation.so.94:_ZN4Poco4PipeC1ERKS0_
libPocoFoundation.so.94:_ZN4Poco4PipeC1Ev
libPocoFoundation.so.94:_ZN4Poco4PipeC2ERKS0_
libPocoFoundation.so.94:_ZN4Poco4PipeC2Ev
libPocoFoundation.so.94:_ZN4Poco4PipeD1Ev
libPocoFoundation.so.94:_ZN4Poco4PipeD2Ev
libPocoFoundation.so.94:_ZN4Poco4PipeaSERKS0_
libPocoFoundation.so.94:_ZN4Poco4Task11setProgressEf
libPocoFoundation.so.94:_ZN4Poco4Task16postNotificationEPNS_12NotificationE
libPocoFoundation.so.94:_ZN4Poco4Task3runEv
libPocoFoundation.so.94:_ZN4Poco4Task5resetEv
libPocoFoundation.so.94:_ZN4Poco4Task5sleepEl
libPocoFoundation.so.94:_ZN4Poco4Task5yieldEv
libPocoFoundation.so.94:_ZN4Poco4Task6cancelEv
libPocoFoundation.so.94:_ZN4Poco4Task8setOwnerEPNS_11TaskManagerE
libPocoFoundation.so.94:_ZN4Poco4Task8setStateENS0_9TaskStateE
libPocoFoundation.so.94:_ZN4Poco4TaskC1ERKNSt7__cxx1112basic_stringIcSt11char_traitsIcESaIcEEE
libPocoFoundation.so.94:_ZN4Poco4TaskC2ERKNSt7__cxx1112basic_stringIcSt11char_traitsIcESaIcEEE
libPocoFoundation.so.94:_ZN4Poco4TaskD0Ev
libPocoFoundation.so.94:_ZN4Poco4TaskD1Ev
libPocoFoundation.so.94:_ZN4Poco4TaskD2Ev
libPocoFoundation.so.94:_ZN4Poco4UTF814toLowerInPlaceERNSt7__cxx1112basic_stringIcSt11char_traitsIcESaIcEEE
libPocoFoundation.so.94:_ZN4Poco4UTF814toUpperInPlaceERNSt7__cxx1112basic_stringIcSt11char_traitsIcESaIcEEE
libPocoFoundation.so.94:_ZN4Poco4UTF86escapeERKN9__gnu_cxx17__normal_iteratorIPKcNSt7__cxx1112basic_stringIcSt11char_traitsIcESaIcEEEEESD_b
libPocoFoundation.so.94:_ZN4Poco4UTF86escapeERKNSt7__cxx1112basic_stringIcSt11char_traitsIcESaIcEEEb
libPocoFoundation.so.94:_ZN4Poco4UTF87toLowerERKNSt7__cxx1112basic_stringIcSt11char_traitsIcESaIcEEE
libPocoFoundation.so.94:_ZN4Poco4UTF87toUpperERKNSt7__cxx1112basic_stringIcSt11char_traitsIcESaIcEEE
libPocoFoundation.so.94:_ZN4Poco4UTF88icompareERKNSt7__cxx1112basic_stringIcSt11char_traitsIcESaIcEEEPKc
libPocoFoundation.so.94:_ZN4Poco4UTF88icompareERKNSt7__cxx1112basic_stringIcSt11char_traitsIcESaIcEEES8_
libPocoFoundation.so.94:_ZN4Poco4UTF88icompareERKNSt7__cxx1112basic_stringIcSt11char_traitsIcESaIcEEEmPKc
libPocoFoundation.so.94:_ZN4Poco4UTF88icompareERKNSt7__cxx1112basic_stringIcSt11char_traitsIcESaIcEEEmS8_
libPocoFoundation.so.94:_ZN4Poco4UTF88icompareERKNSt7__cxx1112basic_stringIcSt11char_traitsIcESaIcEEEmS8_m
libPocoFoundation.so.94:_ZN4Poco4UTF88icompareERKNSt7__cxx1112basic_stringIcSt11char_traitsIcESaIcEEEmmN9__gnu_cxx17__normal_iteratorIPKcS6_EESD_
libPocoFoundation.so.94:_ZN4Poco4UTF88icompareERKNSt7__cxx1112basic_stringIcSt11char_traitsIcESaIcEEEmmPKc
libPocoFoundation.so.94:_ZN4Poco4UTF88icompareERKNSt7__cxx1112basic_stringIcSt11char_traitsIcESaIcEEEmmS8_
libPocoFoundation.so.94:_ZN4Poco4UTF88icompareERKNSt7__cxx1112basic_stringIcSt11char_traitsIcESaIcEEEmmS8_m
libPocoFoundation.so.94:_ZN4Poco4UTF88icompareERKNSt7__cxx1112basic_stringIcSt11char_traitsIcESaIcEEEmmS8_mm
libPocoFoundation.so.94:_ZN4Poco4UTF88unescapeERKN9__gnu_cxx17__normal_iteratorIPKcNSt7__cxx1112basic_stringIcSt11char_traitsIcESaIcEEEEESD_
libPocoFoundation.so.94:_ZN4Poco4UTF88unescapeERKNSt7__cxx1112basic_stringIcSt11char_traitsIcESaIcEEE
libPocoFoundation.so.94:_ZN4Poco4UTF89removeBOMERNSt7__cxx1112basic_stringIcSt11char_traitsIcESaIcEEE
libPocoFoundation.so.94:_ZN4Poco4UUID11fromNetworkEv
libPocoFoundation.so.94:_ZN4Poco4UUID3dnsEv
libPocoFoundation.so.94:_ZN4Poco4UUID3oidEv
libPocoFoundation.so.94:_ZN4Poco4UUID3uriEv
libPocoFoundation.so.94:_ZN4Poco4UUID4nullEv
libPocoFoundation.so.94:_ZN4Poco4UUID4swapERS0_
libPocoFoundation.so.94:_ZN4Poco4UUID4x500Ev
libPocoFoundation.so.94:_ZN4Poco4UUID5parseERKNSt7__cxx1112basic_stringIcSt11char_traitsIcESaIcEEE
libPocoFoundation.so.94:_ZN4Poco4UUID6nibbleEc
libPocoFoundation.so.94:_ZN4Poco4UUID8copyFromEPKc
libPocoFoundation.so.94:_ZN4Poco4UUID8tryParseERKNSt7__cxx1112basic_stringIcSt11char_traitsIcESaIcEEE
libPocoFoundation.so.94:_ZN4Poco4UUID9appendHexERNSt7__cxx1112basic_stringIcSt11char_traitsIcESaIcEEEh
libPocoFoundation.so.94:_ZN4Poco4UUID9appendHexERNSt7__cxx1112basic_stringIcSt11char_traitsIcESaIcEEEj
libPocoFoundation.so.94:_ZN4Poco4UUID9appendHexERNSt7__cxx1112basic_stringIcSt11char_traitsIcESaIcEEEt
libPocoFoundation.so.94:_ZN4Poco4UUID9toNetworkEv
libPocoFoundation.so.94:_ZN4Poco4UUIDC1EPKc
libPocoFoundation.so.94:_ZN4Poco4UUIDC1EPKcNS0_7VersionE
libPocoFoundation.so.94:_ZN4Poco4UUIDC1ERKNSt7__cxx1112basic_stringIcSt11char_traitsIcESaIcEEE
libPocoFoundation.so.94:_ZN4Poco4UUIDC1ERKS0_
libPocoFoundation.so.94:_ZN4Poco4UUIDC1EjjjtPh
libPocoFoundation.so.94:_ZN4Poco4UUIDC1Ev
libPocoFoundation.so.94:_ZN4Poco4UUIDC2EPKc
libPocoFoundation.so.94:_ZN4Poco4UUIDC2EPKcNS0_7VersionE
libPocoFoundation.so.94:_ZN4Poco4UUIDC2ERKNSt7__cxx1112basic_stringIcSt11char_traitsIcESaIcEEE
libPocoFoundation.so.94:_ZN4Poco4UUIDC2ERKS0_
libPocoFoundation.so.94:_ZN4Poco4UUIDC2EjjjtPh
libPocoFoundation.so.94:_ZN4Poco4UUIDC2Ev
libPocoFoundation.so.94:_ZN4Poco4UUIDD1Ev
libPocoFoundation.so.94:_ZN4Poco4UUIDD2Ev
libPocoFoundation.so.94:_ZN4Poco4UUIDaSERKS0_
libPocoFoundation.so.94:_ZN4Poco4VoidC1ERKS0_
libPocoFoundation.so.94:_ZN4Poco4VoidC1Ev
libPocoFoundation.so.94:_ZN4Poco4VoidC2ERKS0_
libPocoFoundation.so.94:_ZN4Poco4VoidC2Ev
libPocoFoundation.so.94:_ZN4Poco4VoidD1Ev
libPocoFoundation.so.94:_ZN4Poco4VoidD2Ev
libPocoFoundation.so.94:_ZN4Poco4VoidaSERKS0_
libPocoFoundation.so.94:_ZN4Poco4hashERKNSt7__cxx1112basic_stringIcSt11char_traitsIcESaIcEEE
libPocoFoundation.so.94:_ZN4Poco5Ascii20CHARACTER_PROPERTIESE
libPocoFoundation.so.94:_ZN4Poco5Clock12CLOCKVAL_MAXE
libPocoFoundation.so.94:_ZN4Poco5Clock12CLOCKVAL_MINE
libPocoFoundation.so.94:_ZN4Poco5Clock4swapERS0_
libPocoFoundation.so.94:_ZN4Poco5Clock6updateEv
libPocoFoundation.so.94:_ZN4Poco5Clock8accuracyEv
libPocoFoundation.so.94:_ZN4Poco5Clock9monotonicEv
libPocoFoundation.so.94:_ZN4Poco5ClockC1ERKS0_
libPocoFoundation.so.94:_ZN4Poco5ClockC1El
libPocoFoundation.so.94:_ZN4Poco5ClockC1Ev
libPocoFoundation.so.94:_ZN4Poco5ClockC2ERKS0_
libPocoFoundation.so.94:_ZN4Poco5ClockC2El
libPocoFoundation.so.94:_ZN4Poco5ClockC2Ev
libPocoFoundation.so.94:_ZN4Poco5ClockD1Ev
libPocoFoundation.so.94:_ZN4Poco5ClockD2Ev
libPocoFoundation.so.94:_ZN4Poco5ClockaSERKS0_
libPocoFoundation.so.94:_ZN4Poco5ClockaSEl
libPocoFoundation.so.94:_ZN4Poco5Error10getMessageB5cxx11Ei
libPocoFoundation.so.94:_ZN4Poco5Error4lastEv
libPocoFoundation.so.94:_ZN4Poco5EventC1ENS0_9EventTypeE
libPocoFoundation.so.94:_ZN4Poco5EventC1Eb
libPocoFoundation.so.94:_ZN4Poco5EventC2ENS0_9EventTypeE
libPocoFoundation.so.94:_ZN4Poco5EventC2Eb
libPocoFoundation.so.94:_ZN4Poco5EventD1Ev
libPocoFoundation.so.94:_ZN4Poco5EventD2Ev
libPocoFoundation.so.94:_ZN4Poco5MutexC1Ev
libPocoFoundation.so.94:_ZN4Poco5MutexC2Ev
libPocoFoundation.so.94:_ZN4Poco5MutexD1Ev
libPocoFoundation.so.94:_ZN4Poco5MutexD2Ev
libPocoFoundation.so.94:_ZN4Poco5Timer16setStartIntervalEl
libPocoFoundation.so.94:_ZN4Poco5Timer19setPeriodicIntervalEl
libPocoFoundation.so.94:_ZN4Poco5Timer3runEv
libPocoFoundation.so.94:_ZN4Poco5Timer4stopEv
libPocoFoundation.so.94:_ZN4Poco5Timer5startERKNS_21AbstractTimerCallbackE
libPocoFoundation.so.94:_ZN4Poco5Timer5startERKNS_21AbstractTimerCallbackENS_6Thread8PriorityE
libPocoFoundation.so.94:_ZN4Poco5Timer5startERKNS_21AbstractTimerCallbackENS_6Thread8PriorityERNS_10ThreadPoolE
libPocoFoundation.so.94:_ZN4Poco5Timer5startERKNS_21AbstractTimerCallbackERNS_10ThreadPoolE
libPocoFoundation.so.94:_ZN4Poco5Timer7restartEl
libPocoFoundation.so.94:_ZN4Poco5Timer7restartEv
libPocoFoundation.so.94:_ZN4Poco5TimerC1Ell
libPocoFoundation.so.94:_ZN4Poco5TimerC2Ell
libPocoFoundation.so.94:_ZN4Poco5TimerD0Ev
libPocoFoundation.so.94:_ZN4Poco5TimerD1Ev
libPocoFoundation.so.94:_ZN4Poco5TimerD2Ev
libPocoFoundation.so.94:_ZN4Poco5Token5startEcRSi
libPocoFoundation.so.94:_ZN4Poco5Token6finishERSi
libPocoFoundation.so.94:_ZN4Poco5TokenC1Ev
libPocoFoundation.so.94:_ZN4Poco5TokenC2Ev
libPocoFoundation.so.94:_ZN4Poco5TokenD0Ev
libPocoFoundation.so.94:_ZN4Poco5TokenD1Ev
libPocoFoundation.so.94:_ZN4Poco5TokenD2Ev
libPocoFoundation.so.94:_ZN4Poco6LogIOS5rdbufEv
libPocoFoundation.so.94:_ZN4Poco6LogIOSC1ERNS_6LoggerENS_7Message8PriorityEm
libPocoFoundation.so.94:_ZN4Poco6LogIOSC2ERNS_6LoggerENS_7Message8PriorityEm
libPocoFoundation.so.94:_ZN4Poco6LogIOSD0Ev
libPocoFoundation.so.94:_ZN4Poco6LogIOSD1Ev
libPocoFoundation.so.94:_ZN4Poco6LogIOSD2Ev
libPocoFoundation.so.94:_ZN4Poco6Logger10formatDumpERNSt7__cxx1112basic_stringIcSt11char_traitsIcESaIcEEEPKvm
libPocoFoundation.so.94:_ZN4Poco6Logger10parseLevelERKNSt7__cxx1112basic_stringIcSt11char_traitsIcESaIcEEE
libPocoFoundation.so.94:_ZN4Poco6Logger10setChannelENS_7AutoPtrINS_7ChannelEEE
libPocoFoundation.so.94:_ZN4Poco6Logger10setChannelERKNSt7__cxx1112basic_stringIcSt11char_traitsIcESaIcEEENS_7AutoPtrINS_7ChannelEEE
libPocoFoundation.so.94:_ZN4Poco6Logger11_pLoggerMapB5cxx11E
libPocoFoundation.so.94:_ZN4Poco6Logger11setPropertyERKNSt7__cxx1112basic_stringIcSt11char_traitsIcESaIcEEES8_
libPocoFoundation.so.94:_ZN4Poco6Logger11setPropertyERKNSt7__cxx1112basic_stringIcSt11char_traitsIcESaIcEEES8_S8_
libPocoFoundation.so.94:_ZN4Poco6Logger3addENS_7AutoPtrIS0_EE
libPocoFoundation.so.94:_ZN4Poco6Logger3getERKNSt7__cxx1112basic_stringIcSt11char_traitsIcESaIcEEE
libPocoFoundation.so.94:_ZN4Poco6Logger3hasERKNSt7__cxx1112basic_stringIcSt11char_traitsIcESaIcEEE
libPocoFoundation.so.94:_ZN4Poco6Logger3logERKNS_7MessageE
libPocoFoundation.so.94:_ZN4Poco6Logger3logERKNS_9ExceptionE
libPocoFoundation.so.94:_ZN4Poco6Logger3logERKNS_9ExceptionEPKci
libPocoFoundation.so.94:_ZN4Poco6Logger4ROOTB5cxx11E
libPocoFoundation.so.94:_ZN4Poco6Logger4dumpERKNSt7__cxx1112basic_stringIcSt11char_traitsIcESaIcEEEPKvmNS_7Message8PriorityE
libPocoFoundation.so.94:_ZN4Poco6Logger4findERKNSt7__cxx1112basic_stringIcSt11char_traitsIcESaIcEEE
libPocoFoundation.so.94:_ZN4Poco6Logger4rootEv
libPocoFoundation.so.94:_ZN4Poco6Logger5namesERSt6vectorINSt7__cxx1112basic_stringIcSt11char_traitsIcESaIcEEESaIS7_EE
libPocoFoundation.so.94:_ZN4Poco6Logger6createERKNSt7__cxx1112basic_stringIcSt11char_traitsIcESaIcEEENS_7AutoPtrINS_7ChannelEEEi
libPocoFoundation.so.94:_ZN4Poco6Logger6formatERKNSt7__cxx1112basic_stringIcSt11char_traitsIcESaIcEEES8_
libPocoFoundation.so.94:_ZN4Poco6Logger6formatERKNSt7__cxx1112basic_stringIcSt11char_traitsIcESaIcEEES8_S8_
libPocoFoundation.so.94:_ZN4Poco6Logger6formatERKNSt7__cxx1112basic_stringIcSt11char_traitsIcESaIcEEES8_S8_S8_
libPocoFoundation.so.94:_ZN4Poco6Logger6formatERKNSt7__cxx1112basic_stringIcSt11char_traitsIcESaIcEEES8_S8_S8_S8_
libPocoFoundation.so.94:_ZN4Poco6Logger6formatERKNSt7__cxx1112basic_stringIcSt11char_traitsIcESaIcEEEiPS6_
libPocoFoundation.so.94:_ZN4Poco6Logger6parentERKNSt7__cxx1112basic_stringIcSt11char_traitsIcESaIcEEE
libPocoFoundation.so.94:_ZN4Poco6Logger7_mapMtxE
libPocoFoundation.so.94:_ZN4Poco6Logger7destroyERKNSt7__cxx1112basic_stringIcSt11char_traitsIcESaIcEEE
libPocoFoundation.so.94:_ZN4Poco6Logger8setLevelERKNSt7__cxx1112basic_stringIcSt11char_traitsIcESaIcEEE
libPocoFoundation.so.94:_ZN4Poco6Logger8setLevelERKNSt7__cxx1112basic_stringIcSt11char_traitsIcESaIcEEEi
libPocoFoundation.so.94:_ZN4Poco6Logger8setLevelEi
libPocoFoundation.so.94:_ZN4Poco6Logger8shutdownEv
libPocoFoundation.so.94:_ZN4Poco6Logger9unsafeGetERKNSt7__cxx1112basic_stringIcSt11char_traitsIcESaIcEEE
libPocoFoundation.so.94:_ZN4Poco6LoggerC1ERKNSt7__cxx1112basic_stringIcSt11char_traitsIcESaIcEEENS_7AutoPtrINS_7ChannelEEEi
libPocoFoundation.so.94:_ZN4Poco6LoggerC2ERKNSt7__cxx1112basic_stringIcSt11char_traitsIcESaIcEEENS_7AutoPtrINS_7ChannelEEEi
libPocoFoundation.so.94:_ZN4Poco6LoggerD0Ev
libPocoFoundation.so.94:_ZN4Poco6LoggerD1Ev
libPocoFoundation.so.94:_ZN4Poco6LoggerD2Ev
libPocoFoundation.so.94:_ZN4Poco6RWLockC1Ev
libPocoFoundation.so.94:_ZN4Poco6RWLockC2Ev
libPocoFoundation.so.94:_ZN4Poco6RWLockD1Ev
libPocoFoundation.so.94:_ZN4Poco6RWLockD2Ev
libPocoFoundation.so.94:_ZN4Poco6Random4nextEv
libPocoFoundation.so.94:_ZN4Poco6Random4seedEj
libPocoFoundation.so.94:_ZN4Poco6Random4seedEv
libPocoFoundation.so.94:_ZN4Poco6Random9initStateEjPci
libPocoFoundation.so.94:_ZN4Poco6RandomC1Ei
libPocoFoundation.so.94:_ZN4Poco6RandomC2Ei
libPocoFoundation.so.94:_ZN4Poco6RandomD1Ev
libPocoFoundation.so.94:_ZN4Poco6RandomD2Ev
libPocoFoundation.so.94:_ZN4Poco6TeeIOS5rdbufEv
libPocoFoundation.so.94:_ZN4Poco6TeeIOS9addStreamERSo
libPocoFoundation.so.94:_ZN4Poco6TeeIOSC1ERSi
libPocoFoundation.so.94:_ZN4Poco6TeeIOSC1ERSo
libPocoFoundation.so.94:_ZN4Poco6TeeIOSC1Ev
libPocoFoundation.so.94:_ZN4Poco6TeeIOSC2ERSi
libPocoFoundation.so.94:_ZN4Poco6TeeIOSC2ERSo
libPocoFoundation.so.94:_ZN4Poco6TeeIOSC2Ev
libPocoFoundation.so.94:_ZN4Poco6TeeIOSD0Ev
libPocoFoundation.so.94:_ZN4Poco6TeeIOSD1Ev
libPocoFoundation.so.94:_ZN4Poco6TeeIOSD2Ev
libPocoFoundation.so.94:_ZN4Poco6Thread11setPriorityENS0_8PriorityE
libPocoFoundation.so.94:_ZN4Poco6Thread3tlsEv
libPocoFoundation.so.94:_ZN4Poco6Thread4joinEl
libPocoFoundation.so.94:_ZN4Poco6Thread4joinEv
libPocoFoundation.so.94:_ZN4Poco6Thread5startENS_9SharedPtrINS_8RunnableENS_16ReferenceCounterENS_13ReleasePolicyIS2_EEEE
libPocoFoundation.so.94:_ZN4Poco6Thread5startEPFvPvES1_
libPocoFoundation.so.94:_ZN4Poco6Thread5startERNS_8RunnableE
libPocoFoundation.so.94:_ZN4Poco6Thread6wakeUpEv
libPocoFoundation.so.94:_ZN4Poco6Thread7setNameERKNSt7__cxx1112basic_stringIcSt11char_traitsIcESaIcEEE
libPocoFoundation.so.94:_ZN4Poco6Thread7tryJoinEl
libPocoFoundation.so.94:_ZN4Poco6Thread8clearTLSEv
libPocoFoundation.so.94:_ZN4Poco6Thread8makeNameB5cxx11Ev
libPocoFoundation.so.94:_ZN4Poco6Thread8trySleepEl
libPocoFoundation.so.94:_ZN4Poco6Thread8uniqueIdEv
libPocoFoundation.so.94:_ZN4Poco6ThreadC1ERKNSt7__cxx1112basic_stringIcSt11char_traitsIcESaIcEEE
libPocoFoundation.so.94:_ZN4Poco6ThreadC1Ev
libPocoFoundation.so.94:_ZN4Poco6ThreadC2ERKNSt7__cxx1112basic_stringIcSt11char_traitsIcESaIcEEE
libPocoFoundation.so.94:_ZN4Poco6ThreadC2Ev
libPocoFoundation.so.94:_ZN4Poco6ThreadD1Ev
libPocoFoundation.so.94:_ZN4Poco6ThreadD2Ev
libPocoFoundation.so.94:_ZN4Poco6formatERKNSt7__cxx1112basic_stringIcSt11char_traitsIcESaIcEEERKNS_3AnyE
libPocoFoundation.so.94:_ZN4Poco6formatERNSt7__cxx1112basic_stringIcSt11char_traitsIcESaIcEEEPKcRKSt6vectorINS_3AnyESaISA_EE
libPocoFoundation.so.94:_ZN4Poco6formatERNSt7__cxx1112basic_stringIcSt11char_traitsIcESaIcEEERKS5_RKSt6vectorINS_3AnyESaISA_EE
libPocoFoundation.so.94:_ZN4Poco6toJSONERKNSt7__cxx1112basic_stringIcSt11char_traitsIcESaIcEEERSob
libPocoFoundation.so.94:_ZN4Poco6toJSONERKNSt7__cxx1112basic_stringIcSt11char_traitsIcESaIcEEERSoi
libPocoFoundation.so.94:_ZN4Poco6toJSONERKNSt7__cxx1112basic_stringIcSt11char_traitsIcESaIcEEEb
libPocoFoundation.so.94:_ZN4Poco6toJSONERKNSt7__cxx1112basic_stringIcSt11char_traitsIcESaIcEEEi
libPocoFoundation.so.94:_ZN4Poco7Channel11setPropertyERKNSt7__cxx1112basic_stringIcSt11char_traitsIcESaIcEEES8_
libPocoFoundation.so.94:_ZN4Poco7Channel4openEv
libPocoFoundation.so.94:_ZN4Poco7Channel5closeEv
libPocoFoundation.so.94:_ZN4Poco7ChannelC1Ev
libPocoFoundation.so.94:_ZN4Poco7ChannelC2Ev
libPocoFoundation.so.94:_ZN4Poco7ChannelD0Ev
libPocoFoundation.so.94:_ZN4Poco7ChannelD1Ev
libPocoFoundation.so.94:_ZN4Poco7ChannelD2Ev
libPocoFoundation.so.94:_ZN4Poco7Dynamic11VarIterator12POSITION_ENDE
libPocoFoundation.so.94:_ZN4Poco7Dynamic11VarIterator4swapERS1_
libPocoFoundation.so.94:_ZN4Poco7Dynamic11VarIteratorC1EOS1_
libPocoFoundation.so.94:_ZN4Poco7Dynamic11VarIteratorC1EPNS0_3VarEb
libPocoFoundation.so.94:_ZN4Poco7Dynamic11VarIteratorC1ERKS1_
libPocoFoundation.so.94:_ZN4Poco7Dynamic11VarIteratorC2EOS1_
libPocoFoundation.so.94:_ZN4Poco7Dynamic11VarIteratorC2EPNS0_3VarEb
libPocoFoundation.so.94:_ZN4Poco7Dynamic11VarIteratorC2ERKS1_
libPocoFoundation.so.94:_ZN4Poco7Dynamic11VarIteratorD1Ev
libPocoFoundation.so.94:_ZN4Poco7Dynamic11VarIteratorD2Ev
libPocoFoundation.so.94:_ZN4Poco7Dynamic11VarIteratoraSEOS1_
libPocoFoundation.so.94:_ZN4Poco7Dynamic11VarIteratoraSERKS1_
libPocoFoundation.so.94:_ZN4Poco7Dynamic3Var10parseArrayERKNSt7__cxx1112basic_stringIcSt11char_traitsIcESaIcEEERm
libPocoFoundation.so.94:_ZN4Poco7Dynamic3Var11parseObjectERKNSt7__cxx1112basic_stringIcSt11char_traitsIcESaIcEEERm
libPocoFoundation.so.94:_ZN4Poco7Dynamic3Var11parseStringERKNSt7__cxx1112basic_stringIcSt11char_traitsIcESaIcEEERm
libPocoFoundation.so.94:_ZN4Poco7Dynamic3Var14skipWhiteSpaceERKNSt7__cxx1112basic_stringIcSt11char_traitsIcESaIcEEERm
libPocoFoundation.so.94:_ZN4Poco7Dynamic3Var15parseJSONStringERKNSt7__cxx1112basic_stringIcSt11char_traitsIcESaIcEEERm
libPocoFoundation.so.94:_ZN4Poco7Dynamic3Var2atEm
libPocoFoundation.so.94:_ZN4Poco7Dynamic3Var5clearEv
libPocoFoundation.so.94:_ZN4Poco7Dynamic3Var5emptyEv
libPocoFoundation.so.94:_ZN4Poco7Dynamic3Var5getAtERKNSt7__cxx1112basic_stringIcSt11char_traitsIcESaIcEEE
libPocoFoundation.so.94:_ZN4Poco7Dynamic3Var5getAtEm
libPocoFoundation.so.94:_ZN4Poco7Dynamic3Var5parseERKNSt7__cxx1112basic_stringIcSt11char_traitsIcESaIcEEE
libPocoFoundation.so.94:_ZN4Poco7Dynamic3Var5parseERKNSt7__cxx1112basic_stringIcSt11char_traitsIcESaIcEEERm
libPocoFoundation.so.94:_ZN4Poco7Dynamic3Var8toStringB5cxx11ERKS1_
libPocoFoundation.so.94:_ZN4Poco7Dynamic3VarC1EPKc
libPocoFoundation.so.94:_ZN4Poco7Dynamic3VarC1ERKS1_
libPocoFoundation.so.94:_ZN4Poco7Dynamic3VarC1Ev
libPocoFoundation.so.94:_ZN4Poco7Dynamic3VarC2EPKc
libPocoFoundation.so.94:_ZN4Poco7Dynamic3VarC2ERKS1_
libPocoFoundation.so.94:_ZN4Poco7Dynamic3VarC2Ev
libPocoFoundation.so.94:_ZN4Poco7Dynamic3VarD1Ev
libPocoFoundation.so.94:_ZN4Poco7Dynamic3VarD2Ev
libPocoFoundation.so.94:_ZN4Poco7Dynamic3VaraSERKS1_
libPocoFoundation.so.94:_ZN4Poco7Dynamic3VardVERKS1_
libPocoFoundation.so.94:_ZN4Poco7Dynamic3VarmIERKS1_
libPocoFoundation.so.94:_ZN4Poco7Dynamic3VarmLERKS1_
libPocoFoundation.so.94:_ZN4Poco7Dynamic3VarmmEi
libPocoFoundation.so.94:_ZN4Poco7Dynamic3VarmmEv
libPocoFoundation.so.94:_ZN4Poco7Dynamic3VarpLERKS1_
libPocoFoundation.so.94:_ZN4Poco7Dynamic3VarppEi
libPocoFoundation.so.94:_ZN4Poco7Dynamic3VarppEv
libPocoFoundation.so.94:_ZN4Poco7Dynamic4Impl12isJSONStringERKNS0_3VarE
libPocoFoundation.so.94:_ZN4Poco7Dynamic4Impl13appendJSONKeyERNSt7__cxx1112basic_stringIcSt11char_traitsIcESaIcEEERKNS0_3VarE
libPocoFoundation.so.94:_ZN4Poco7Dynamic4Impl15appendJSONValueERNSt7__cxx1112basic_stringIcSt11char_traitsIcESaIcEEERKNS0_3VarE
libPocoFoundation.so.94:_ZN4Poco7Dynamic4Impl16appendJSONStringERNSt7__cxx1112basic_stringIcSt11char_traitsIcESaIcEEERKNS0_3VarE
libPocoFoundation.so.94:_ZN4Poco7Dynamic4Impl6escapeERNSt7__cxx1112basic_stringIcSt11char_traitsIcESaIcEEERKS7_
libPocoFoundation.so.94:_ZN4Poco7Dynamic9VarHolderC1Ev
libPocoFoundation.so.94:_ZN4Poco7Dynamic9VarHolderC2Ev
libPocoFoundation.so.94:_ZN4Poco7Dynamic9VarHolderD0Ev
libPocoFoundation.so.94:_ZN4Poco7Dynamic9VarHolderD1Ev
libPocoFoundation.so.94:_ZN4Poco7Dynamic9VarHolderD2Ev
libPocoFoundation.so.94:_ZN4Poco7FIFOIOS5closeEv
libPocoFoundation.so.94:_ZN4Poco7FIFOIOS5rdbufEv
libPocoFoundation.so.94:_ZN4Poco7FIFOIOSC1EPKcm
libPocoFoundation.so.94:_ZN4Poco7FIFOIOSC1EPcm
libPocoFoundation.so.94:_ZN4Poco7FIFOIOSC1ERNS_15BasicFIFOBufferIcEE
libPocoFoundation.so.94:_ZN4Poco7FIFOIOSC1Em
libPocoFoundation.so.94:_ZN4Poco7FIFOIOSC2EPKcm
libPocoFoundation.so.94:_ZN4Poco7FIFOIOSC2EPcm
libPocoFoundation.so.94:_ZN4Poco7FIFOIOSC2ERNS_15BasicFIFOBufferIcEE
libPocoFoundation.so.94:_ZN4Poco7FIFOIOSC2Em
libPocoFoundation.so.94:_ZN4Poco7FIFOIOSD0Ev
libPocoFoundation.so.94:_ZN4Poco7FIFOIOSD1Ev
libPocoFoundation.so.94:_ZN4Poco7FIFOIOSD2Ev
libPocoFoundation.so.94:_ZN4Poco7FileIOS4openERKNSt7__cxx1112basic_stringIcSt11char_traitsIcESaIcEEESt13_Ios_Openmode
libPocoFoundation.so.94:_ZN4Poco7FileIOS5closeEv
libPocoFoundation.so.94:_ZN4Poco7FileIOS5rdbufEv
libPocoFoundation.so.94:_ZN4Poco7FileIOSC1ESt13_Ios_Openmode
libPocoFoundation.so.94:_ZN4Poco7FileIOSC2ESt13_Ios_Openmode
libPocoFoundation.so.94:_ZN4Poco7FileIOSD0Ev
libPocoFoundation.so.94:_ZN4Poco7FileIOSD1Ev
libPocoFoundation.so.94:_ZN4Poco7FileIOSD2Ev
libPocoFoundation.so.94:_ZN4Poco7LogFileC1ERKNSt7__cxx1112basic_stringIcSt11char_traitsIcESaIcEEE
libPocoFoundation.so.94:_ZN4Poco7LogFileC2ERKNSt7__cxx1112basic_stringIcSt11char_traitsIcESaIcEEE
libPocoFoundation.so.94:_ZN4Poco7LogFileD1Ev
libPocoFoundation.so.94:_ZN4Poco7LogFileD2Ev
libPocoFoundation.so.94:_ZN4Poco7Message11setPriorityENS0_8PriorityE
libPocoFoundation.so.94:_ZN4Poco7Message13setSourceFileEPKc
libPocoFoundation.so.94:_ZN4Poco7Message13setSourceLineEi
libPocoFoundation.so.94:_ZN4Poco7Message3setERKNSt7__cxx1112basic_stringIcSt11char_traitsIcESaIcEEES8_
libPocoFoundation.so.94:_ZN4Poco7Message4initEv
libPocoFoundation.so.94:_ZN4Poco7Message4swapERS0_
libPocoFoundation.so.94:_ZN4Poco7Message6setPidEl
libPocoFoundation.so.94:_ZN4Poco7Message6setTidEl
libPocoFoundation.so.94:_ZN4Poco7Message7setTextERKNSt7__cxx1112basic_stringIcSt11char_traitsIcESaIcEEE
libPocoFoundation.so.94:_ZN4Poco7Message7setTimeERKNS_9TimestampE
libPocoFoundation.so.94:_ZN4Poco7Message9setSourceERKNSt7__cxx1112basic_stringIcSt11char_traitsIcESaIcEEE
libPocoFoundation.so.94:_ZN4Poco7Message9setThreadERKNSt7__cxx1112basic_stringIcSt11char_traitsIcESaIcEEE
libPocoFoundation.so.94:_ZN4Poco7MessageC1EOS0_
libPocoFoundation.so.94:_ZN4Poco7MessageC1ERKNSt7__cxx1112basic_stringIcSt11char_traitsIcESaIcEEES8_NS0_8PriorityE
libPocoFoundation.so.94:_ZN4Poco7MessageC1ERKNSt7__cxx1112basic_stringIcSt11char_traitsIcESaIcEEES8_NS0_8PriorityEPKci
libPocoFoundation.so.94:_ZN4Poco7MessageC1ERKS0_
libPocoFoundation.so.94:_ZN4Poco7MessageC1ERKS0_RKNSt7__cxx1112basic_stringIcSt11char_traitsIcESaIcEEE
libPocoFoundation.so.94:_ZN4Poco7MessageC1Ev
libPocoFoundation.so.94:_ZN4Poco7MessageC2EOS0_
libPocoFoundation.so.94:_ZN4Poco7MessageC2ERKNSt7__cxx1112basic_stringIcSt11char_traitsIcESaIcEEES8_NS0_8PriorityE
libPocoFoundation.so.94:_ZN4Poco7MessageC2ERKNSt7__cxx1112basic_stringIcSt11char_traitsIcESaIcEEES8_NS0_8PriorityEPKci
libPocoFoundation.so.94:_ZN4Poco7MessageC2ERKS0_
libPocoFoundation.so.94:_ZN4Poco7MessageC2ERKS0_RKNSt7__cxx1112basic_stringIcSt11char_traitsIcESaIcEEE
libPocoFoundation.so.94:_ZN4Poco7MessageC2Ev
libPocoFoundation.so.94:_ZN4Poco7MessageD1Ev
libPocoFoundation.so.94:_ZN4Poco7MessageD2Ev
libPocoFoundation.so.94:_ZN4Poco7MessageaSEOS0_
libPocoFoundation.so.94:_ZN4Poco7MessageaSERKS0_
libPocoFoundation.so.94:_ZN4Poco7MessageixERKNSt7__cxx1112basic_stringIcSt11char_traitsIcESaIcEEE
libPocoFoundation.so.94:_ZN4Poco7NullIOSC1Ev
libPocoFoundation.so.94:_ZN4Poco7NullIOSC2Ev
libPocoFoundation.so.94:_ZN4Poco7NullIOSD0Ev
libPocoFoundation.so.94:_ZN4Poco7NullIOSD1Ev
libPocoFoundation.so.94:_ZN4Poco7NullIOSD2Ev
libPocoFoundation.so.94:_ZN4Poco7PipeIOS5closeEv
libPocoFoundation.so.94:_ZN4Poco7PipeIOS5rdbufEv
libPocoFoundation.so.94:_ZN4Poco7PipeIOSC1ERKNS_4PipeESt13_Ios_Openmode
libPocoFoundation.so.94:_ZN4Poco7PipeIOSC2ERKNS_4PipeESt13_Ios_Openmode
libPocoFoundation.so.94:_ZN4Poco7PipeIOSD0Ev
libPocoFoundation.so.94:_ZN4Poco7PipeIOSD1Ev
libPocoFoundation.so.94:_ZN4Poco7PipeIOSD2Ev
libPocoFoundation.so.94:_ZN4Poco7Process18requestTerminationEi
libPocoFoundation.so.94:_ZN4Poco7Process4killERNS_13ProcessHandleE
libPocoFoundation.so.94:_ZN4Poco7Process4killEi
libPocoFoundation.so.94:_ZN4Poco7Process4waitERKNS_13ProcessHandleE
libPocoFoundation.so.94:_ZN4Poco7Process6launchERKNSt7__cxx1112basic_stringIcSt11char_traitsIcESaIcEEERKSt6vectorIS6_SaIS6_EE
libPocoFoundation.so.94:_ZN4Poco7Process6launchERKNSt7__cxx1112basic_stringIcSt11char_traitsIcESaIcEEERKSt6vectorIS6_SaIS6_EEPNS_4PipeESF_SF_
libPocoFoundation.so.94:_ZN4Poco7Process6launchERKNSt7__cxx1112basic_stringIcSt11char_traitsIcESaIcEEERKSt6vectorIS6_SaIS6_EEPNS_4PipeESF_SF_RKSt3mapIS6_S6_St4lessIS6_ESaISt4pairIS7_S6_EEE
libPocoFoundation.so.94:_ZN4Poco7Process6launchERKNSt7__cxx1112basic_stringIcSt11char_traitsIcESaIcEEERKSt6vectorIS6_SaIS6_EES8_
libPocoFoundation.so.94:_ZN4Poco7Process6launchERKNSt7__cxx1112basic_stringIcSt11char_traitsIcESaIcEEERKSt6vectorIS6_SaIS6_EES8_PNS_4PipeESF_SF_
libPocoFoundation.so.94:_ZN4Poco7Process6launchERKNSt7__cxx1112basic_stringIcSt11char_traitsIcESaIcEEERKSt6vectorIS6_SaIS6_EES8_PNS_4PipeESF_SF_RKSt3mapIS6_S6_St4lessIS6_ESaISt4pairIS7_S6_EEE
libPocoFoundation.so.94:_ZN4Poco7Process7tryWaitERKNS_13ProcessHandleE
libPocoFoundation.so.94:_ZN4Poco7Process9isRunningERKNS_13ProcessHandleE
libPocoFoundation.so.94:_ZN4Poco7Process9isRunningEi
libPocoFoundation.so.94:_ZN4Poco7Unicode10propertiesEiRNS0_19CharacterPropertiesE
libPocoFoundation.so.94:_ZN4Poco7Unicode7toLowerEi
libPocoFoundation.so.94:_ZN4Poco7Unicode7toUpperEi
libPocoFoundation.so.94:_ZN4Poco8Bugcheck10unexpectedEPKci
libPocoFoundation.so.94:_ZN4Poco8Bugcheck11nullPointerEPKcS2_i
libPocoFoundation.so.94:_ZN4Poco8Bugcheck4whatB5cxx11EPKcS2_iS2_
libPocoFoundation.so.94:_ZN4Poco8Bugcheck8bugcheckEPKcS2_i
libPocoFoundation.so.94:_ZN4Poco8Bugcheck8bugcheckEPKci
libPocoFoundation.so.94:_ZN4Poco8Bugcheck8debuggerEPKcS2_i
libPocoFoundation.so.94:_ZN4Poco8Bugcheck8debuggerEPKci
libPocoFoundation.so.94:_ZN4Poco8Bugcheck9assertionEPKcS2_iS2_
libPocoFoundation.so.94:_ZN4Poco8Checksum6updateEPKcj
libPocoFoundation.so.94:_ZN4Poco8ChecksumC1ENS0_4TypeE
libPocoFoundation.so.94:_ZN4Poco8ChecksumC1Ev
libPocoFoundation.so.94:_ZN4Poco8ChecksumC2ENS0_4TypeE
libPocoFoundation.so.94:_ZN4Poco8ChecksumC2Ev
libPocoFoundation.so.94:_ZN4Poco8ChecksumD1Ev
libPocoFoundation.so.94:_ZN4Poco8ChecksumD2Ev
libPocoFoundation.so.94:_ZN4Poco8DateTime10checkLimitERsS1_s
libPocoFoundation.so.94:_ZN4Poco8DateTime11daysOfMonthEii
libPocoFoundation.so.94:_ZN4Poco8DateTime11toJulianDayEiiiiiiii
libPocoFoundation.so.94:_ZN4Poco8DateTime14computeDaytimeEv
libPocoFoundation.so.94:_ZN4Poco8DateTime16computeGregorianEd
libPocoFoundation.so.94:_ZN4Poco8DateTime4swapERS0_
libPocoFoundation.so.94:_ZN4Poco8DateTime6assignEiiiiiiii
libPocoFoundation.so.94:_ZN4Poco8DateTime7isValidEiiiiiiii
libPocoFoundation.so.94:_ZN4Poco8DateTime7makeUTCEi
libPocoFoundation.so.94:_ZN4Poco8DateTime9makeLocalEi
libPocoFoundation.so.94:_ZN4Poco8DateTime9normalizeEv
libPocoFoundation.so.94:_ZN4Poco8DateTimeC1ERK2tm
libPocoFoundation.so.94:_ZN4Poco8DateTimeC1ERKNS_9TimestampE
libPocoFoundation.so.94:_ZN4Poco8DateTimeC1ERKS0_
libPocoFoundation.so.94:_ZN4Poco8DateTimeC1Ed
libPocoFoundation.so.94:_ZN4Poco8DateTimeC1Eiiiiiiii
libPocoFoundation.so.94:_ZN4Poco8DateTimeC1Ell
libPocoFoundation.so.94:_ZN4Poco8DateTimeC1Ev
libPocoFoundation.so.94:_ZN4Poco8DateTimeC2ERK2tm
libPocoFoundation.so.94:_ZN4Poco8DateTimeC2ERKNS_9TimestampE
libPocoFoundation.so.94:_ZN4Poco8DateTimeC2ERKS0_
libPocoFoundation.so.94:_ZN4Poco8DateTimeC2Ed
libPocoFoundation.so.94:_ZN4Poco8DateTimeC2Eiiiiiiii
libPocoFoundation.so.94:_ZN4Poco8DateTimeC2Ell
libPocoFoundation.so.94:_ZN4Poco8DateTimeC2Ev
libPocoFoundation.so.94:_ZN4Poco8DateTimeD1Ev
libPocoFoundation.so.94:_ZN4Poco8DateTimeD2Ev
libPocoFoundation.so.94:_ZN4Poco8DateTimeaSERKNS_9TimestampE
libPocoFoundation.so.94:_ZN4Poco8DateTimeaSERKS0_
libPocoFoundation.so.94:_ZN4Poco8DateTimeaSEd
libPocoFoundation.so.94:_ZN4Poco8DateTimemIERKNS_8TimespanE
libPocoFoundation.so.94:_ZN4Poco8DateTimepLERKNS_8TimespanE
libPocoFoundation.so.94:_ZN4Poco8Debugger11isAvailableEv
libPocoFoundation.so.94:_ZN4Poco8Debugger5enterEPKci
libPocoFoundation.so.94:_ZN4Poco8Debugger5enterERKNSt7__cxx1112basic_stringIcSt11char_traitsIcESaIcEEE
libPocoFoundation.so.94:_ZN4Poco8Debugger5enterERKNSt7__cxx1112basic_stringIcSt11char_traitsIcESaIcEEEPKci
libPocoFoundation.so.94:_ZN4Poco8Debugger5enterEv
libPocoFoundation.so.94:_ZN4Poco8Debugger7messageERKNSt7__cxx1112basic_stringIcSt11char_traitsIcESaIcEEE
libPocoFoundation.so.94:_ZN4Poco8Debugger7messageERKNSt7__cxx1112basic_stringIcSt11char_traitsIcESaIcEEEPKci
libPocoFoundation.so.94:_ZN4Poco8EOFTokenC1Ev
libPocoFoundation.so.94:_ZN4Poco8EOFTokenC2Ev
libPocoFoundation.so.94:_ZN4Poco8EOFTokenD0Ev
libPocoFoundation.so.94:_ZN4Poco8EOFTokenD1Ev
libPocoFoundation.so.94:_ZN4Poco8EOFTokenD2Ev
libPocoFoundation.so.94:_ZN4Poco8FileImpl10removeImplEv
libPocoFoundation.so.94:_ZN4Poco8FileImpl11setPathImplERKNSt7__cxx1112basic_stringIcSt11char_traitsIcESaIcEEE
libPocoFoundation.so.94:_ZN4Poco8FileImpl11setSizeImplEm
libPocoFoundation.so.94:_ZN4Poco8FileImpl12renameToImplERKNSt7__cxx1112basic_stringIcSt11char_traitsIcESaIcEEEi
libPocoFoundation.so.94:_ZN4Poco8FileImpl14createFileImplEv
libPocoFoundation.so.94:_ZN4Poco8FileImpl16setWriteableImplEb
libPocoFoundation.so.94:_ZN4Poco8FileImpl17setExecutableImplEb
libPocoFoundation.so.94:_ZN4Poco8FileImpl19createDirectoryImplEv
libPocoFoundation.so.94:_ZN4Poco8FileImpl19handleLastErrorImplERKNSt7__cxx1112basic_stringIcSt11char_traitsIcESaIcEEE
libPocoFoundation.so.94:_ZN4Poco8FileImpl19handleLastErrorImplEiRKNSt7__cxx1112basic_stringIcSt11char_traitsIcESaIcEEE
libPocoFoundation.so.94:_ZN4Poco8FileImpl19setLastModifiedImplERKNS_9TimestampE
libPocoFoundation.so.94:_ZN4Poco8FileImpl8swapImplERS0_
libPocoFoundation.so.94:_ZN4Poco8FileImplC1ERKNSt7__cxx1112basic_stringIcSt11char_traitsIcESaIcEEE
libPocoFoundation.so.94:_ZN4Poco8FileImplC1Ev
libPocoFoundation.so.94:_ZN4Poco8FileImplC2ERKNSt7__cxx1112basic_stringIcSt11char_traitsIcESaIcEEE
libPocoFoundation.so.94:_ZN4Poco8FileImplC2Ev
libPocoFoundation.so.94:_ZN4Poco8FileImplD0Ev
libPocoFoundation.so.94:_ZN4Poco8FileImplD1Ev
libPocoFoundation.so.94:_ZN4Poco8FileImplD2Ev
libPocoFoundation.so.94:_ZN4Poco8PathImpl10configImplB5cxx11Ev
libPocoFoundation.so.94:_ZN4Poco8PathImpl10expandImplERKNSt7__cxx1112basic_stringIcSt11char_traitsIcESaIcEEE
libPocoFoundation.so.94:_ZN4Poco8PathImpl11currentImplB5cxx11Ev
libPocoFoundation.so.94:_ZN4Poco8PathImpl12dataHomeImplB5cxx11Ev
libPocoFoundation.so.94:_ZN4Poco8PathImpl12tempHomeImplB5cxx11Ev
libPocoFoundation.so.94:_ZN4Poco8PathImpl13cacheHomeImplB5cxx11Ev
libPocoFoundation.so.94:_ZN4Poco8PathImpl13listRootsImplERSt6vectorINSt7__cxx1112basic_stringIcSt11char_traitsIcESaIcEEESaIS7_EE
libPocoFoundation.so.94:_ZN4Poco8PathImpl14configHomeImplB5cxx11Ev
libPocoFoundation.so.94:_ZN4Poco8PathImpl8homeImplB5cxx11Ev
libPocoFoundation.so.94:_ZN4Poco8PathImpl8nullImplB5cxx11Ev
libPocoFoundation.so.94:_ZN4Poco8PathImpl8tempImplB5cxx11Ev
libPocoFoundation.so.94:_ZN4Poco8PipeImpl10closeWriteEv
libPocoFoundation.so.94:_ZN4Poco8PipeImpl10writeBytesEPKvi
libPocoFoundation.so.94:_ZN4Poco8PipeImpl9closeReadEv
libPocoFoundation.so.94:_ZN4Poco8PipeImpl9readBytesEPvi
libPocoFoundation.so.94:_ZN4Poco8PipeImplC1Ev
libPocoFoundation.so.94:_ZN4Poco8PipeImplC2Ev
libPocoFoundation.so.94:_ZN4Poco8PipeImplD0Ev
libPocoFoundation.so.94:_ZN4Poco8PipeImplD1Ev
libPocoFoundation.so.94:_ZN4Poco8PipeImplD2Ev
libPocoFoundation.so.94:_ZN4Poco8RunnableC1Ev
libPocoFoundation.so.94:_ZN4Poco8RunnableC2Ev
libPocoFoundation.so.94:_ZN4Poco8RunnableD0Ev
libPocoFoundation.so.94:_ZN4Poco8RunnableD1Ev
libPocoFoundation.so.94:_ZN4Poco8RunnableD2Ev
libPocoFoundation.so.94:_ZN4Poco8Timespan12MILLISECONDSE
libPocoFoundation.so.94:_ZN4Poco8Timespan4DAYSE
libPocoFoundation.so.94:_ZN4Poco8Timespan4swapERS0_
libPocoFoundation.so.94:_ZN4Poco8Timespan5HOURSE
libPocoFoundation.so.94:_ZN4Poco8Timespan6assignEiiiii
libPocoFoundation.so.94:_ZN4Poco8Timespan6assignEll
libPocoFoundation.so.94:_ZN4Poco8Timespan7MINUTESE
libPocoFoundation.so.94:_ZN4Poco8Timespan7SECONDSE
libPocoFoundation.so.94:_ZN4Poco8TimespanC1ERKS0_
libPocoFoundation.so.94:_ZN4Poco8TimespanC1Eiiiii
libPocoFoundation.so.94:_ZN4Poco8TimespanC1El
libPocoFoundation.so.94:_ZN4Poco8TimespanC1Ell
libPocoFoundation.so.94:_ZN4Poco8TimespanC1Ev
libPocoFoundation.so.94:_ZN4Poco8TimespanC2ERKS0_
libPocoFoundation.so.94:_ZN4Poco8TimespanC2Eiiiii
libPocoFoundation.so.94:_ZN4Poco8TimespanC2El
libPocoFoundation.so.94:_ZN4Poco8TimespanC2Ell
libPocoFoundation.so.94:_ZN4Poco8TimespanC2Ev
libPocoFoundation.so.94:_ZN4Poco8TimespanaSERKS0_
libPocoFoundation.so.94:_ZN4Poco8TimespanaSEl
libPocoFoundation.so.94:_ZN4Poco8TimespanmIERKS0_
libPocoFoundation.so.94:_ZN4Poco8TimespanmIEl
libPocoFoundation.so.94:_ZN4Poco8TimespanpLERKS0_
libPocoFoundation.so.94:_ZN4Poco8TimespanpLEl
libPocoFoundation.so.94:_ZN4Poco8Timezone12standardNameB5cxx11Ev
libPocoFoundation.so.94:_ZN4Poco8Timezone3dstERKNS_9TimestampE
libPocoFoundation.so.94:_ZN4Poco8Timezone3dstEv
libPocoFoundation.so.94:_ZN4Poco8Timezone3tzdEv
libPocoFoundation.so.94:_ZN4Poco8Timezone4nameB5cxx11Ev
libPocoFoundation.so.94:_ZN4Poco8Timezone5isDstERKNS_9TimestampE
libPocoFoundation.so.94:_ZN4Poco8Timezone7dstNameB5cxx11Ev
libPocoFoundation.so.94:_ZN4Poco8Timezone9utcOffsetEv
libPocoFoundation.so.94:_ZN4Poco9Condition6signalEv
libPocoFoundation.so.94:_ZN4Poco9Condition7dequeueERNS_5EventE
libPocoFoundation.so.94:_ZN4Poco9Condition7dequeueEv
libPocoFoundation.so.94:_ZN4Poco9Condition7enqueueERNS_5EventE
libPocoFoundation.so.94:_ZN4Poco9Condition9broadcastEv
libPocoFoundation.so.94:_ZN4Poco9ConditionC1Ev
libPocoFoundation.so.94:_ZN4Poco9ConditionC2Ev
libPocoFoundation.so.94:_ZN4Poco9ConditionD1Ev
libPocoFoundation.so.94:_ZN4Poco9ConditionD2Ev
libPocoFoundation.so.94:_ZN4Poco9DigestBuf11BUFFER_SIZEE
libPocoFoundation.so.94:_ZN4Poco9DigestBuf13writeToDeviceEPKcl
libPocoFoundation.so.94:_ZN4Poco9DigestBuf14readFromDeviceEPcl
libPocoFoundation.so.94:_ZN4Poco9DigestBuf5closeEv
libPocoFoundation.so.94:_ZN4Poco9DigestBufC1ERNS_12DigestEngineE
libPocoFoundation.so.94:_ZN4Poco9DigestBufC1ERNS_12DigestEngineERSi
libPocoFoundation.so.94:_ZN4Poco9DigestBufC1ERNS_12DigestEngineERSo
libPocoFoundation.so.94:_ZN4Poco9DigestBufC2ERNS_12DigestEngineE
libPocoFoundation.so.94:_ZN4Poco9DigestBufC2ERNS_12DigestEngineERSi
libPocoFoundation.so.94:_ZN4Poco9DigestBufC2ERNS_12DigestEngineERSo
libPocoFoundation.so.94:_ZN4Poco9DigestBufD0Ev
libPocoFoundation.so.94:_ZN4Poco9DigestBufD1Ev
libPocoFoundation.so.94:_ZN4Poco9DigestBufD2Ev
libPocoFoundation.so.94:_ZN4Poco9DigestIOS5rdbufEv
libPocoFoundation.so.94:_ZN4Poco9DigestIOSC1ERNS_12DigestEngineE
libPocoFoundation.so.94:_ZN4Poco9DigestIOSC1ERNS_12DigestEngineERSi
libPocoFoundation.so.94:_ZN4Poco9DigestIOSC1ERNS_12DigestEngineERSo
libPocoFoundation.so.94:_ZN4Poco9DigestIOSC2ERNS_12DigestEngineE
libPocoFoundation.so.94:_ZN4Poco9DigestIOSC2ERNS_12DigestEngineERSi
libPocoFoundation.so.94:_ZN4Poco9DigestIOSC2ERNS_12DigestEngineERSo
libPocoFoundation.so.94:_ZN4Poco9DigestIOSD0Ev
libPocoFoundation.so.94:_ZN4Poco9DigestIOSD1Ev
libPocoFoundation.so.94:_ZN4Poco9DigestIOSD2Ev
libPocoFoundation.so.94:_ZN4Poco9EventArgsC1Ev
libPocoFoundation.so.94:_ZN4Poco9EventArgsC2Ev
libPocoFoundation.so.94:_ZN4Poco9EventArgsD0Ev
libPocoFoundation.so.94:_ZN4Poco9EventArgsD1Ev
libPocoFoundation.so.94:_ZN4Poco9EventArgsD2Ev
libPocoFoundation.so.94:_ZN4Poco9EventImpl8waitImplEl
libPocoFoundation.so.94:_ZN4Poco9EventImpl8waitImplEv
libPocoFoundation.so.94:_ZN4Poco9EventImplC1Eb
libPocoFoundation.so.94:_ZN4Poco9EventImplC2Eb
libPocoFoundation.so.94:_ZN4Poco9EventImplD1Ev
libPocoFoundation.so.94:_ZN4Poco9EventImplD2Ev
libPocoFoundation.so.94:_ZN4Poco9Exception15extendedMessageERKNSt7__cxx1112basic_stringIcSt11char_traitsIcESaIcEEE
libPocoFoundation.so.94:_ZN4Poco9ExceptionC1ERKNSt7__cxx1112basic_stringIcSt11char_traitsIcESaIcEEERKS0_i
libPocoFoundation.so.94:_ZN4Poco9ExceptionC1ERKNSt7__cxx1112basic_stringIcSt11char_traitsIcESaIcEEES8_i
libPocoFoundation.so.94:_ZN4Poco9ExceptionC1ERKNSt7__cxx1112basic_stringIcSt11char_traitsIcESaIcEEEi
libPocoFoundation.so.94:_ZN4Poco9ExceptionC1ERKS0_
libPocoFoundation.so.94:_ZN4Poco9ExceptionC1Ei
libPocoFoundation.so.94:_ZN4Poco9ExceptionC2ERKNSt7__cxx1112basic_stringIcSt11char_traitsIcESaIcEEERKS0_i
libPocoFoundation.so.94:_ZN4Poco9ExceptionC2ERKNSt7__cxx1112basic_stringIcSt11char_traitsIcESaIcEEES8_i
libPocoFoundation.so.94:_ZN4Poco9ExceptionC2ERKNSt7__cxx1112basic_stringIcSt11char_traitsIcESaIcEEEi
libPocoFoundation.so.94:_ZN4Poco9ExceptionC2ERKS0_
libPocoFoundation.so.94:_ZN4Poco9ExceptionC2Ei
libPocoFoundation.so.94:_ZN4Poco9ExceptionD0Ev
libPocoFoundation.so.94:_ZN4Poco9ExceptionD1Ev
libPocoFoundation.so.94:_ZN4Poco9ExceptionD2Ev
libPocoFoundation.so.94:_ZN4Poco9ExceptionaSERKS0_
libPocoFoundation.so.94:_ZN4Poco9FastMutexC1Ev
libPocoFoundation.so.94:_ZN4Poco9FastMutexC2Ev
libPocoFoundation.so.94:_ZN4Poco9FastMutexD1Ev
libPocoFoundation.so.94:_ZN4Poco9FastMutexD2Ev
libPocoFoundation.so.94:_ZN4Poco9Formatter11setPropertyERKNSt7__cxx1112basic_stringIcSt11char_traitsIcESaIcEEES8_
libPocoFoundation.so.94:_ZN4Poco9FormatterC1Ev
libPocoFoundation.so.94:_ZN4Poco9FormatterC2Ev
libPocoFoundation.so.94:_ZN4Poco9FormatterD0Ev
libPocoFoundation.so.94:_ZN4Poco9FormatterD1Ev
libPocoFoundation.so.94:_ZN4Poco9FormatterD2Ev
libPocoFoundation.so.94:_ZN4Poco9LogStream11informationERKNSt7__cxx1112basic_stringIcSt11char_traitsIcESaIcEEE
libPocoFoundation.so.94:_ZN4Poco9LogStream11informationEv
libPocoFoundation.so.94:_ZN4Poco9LogStream5debugERKNSt7__cxx1112basic_stringIcSt11char_traitsIcESaIcEEE
libPocoFoundation.so.94:_ZN4Poco9LogStream5debugEv
libPocoFoundation.so.94:_ZN4Poco9LogStream5errorERKNSt7__cxx1112basic_stringIcSt11char_traitsIcESaIcEEE
libPocoFoundation.so.94:_ZN4Poco9LogStream5errorEv
libPocoFoundation.so.94:_ZN4Poco9LogStream5fatalERKNSt7__cxx1112basic_stringIcSt11char_traitsIcESaIcEEE
libPocoFoundation.so.94:_ZN4Poco9LogStream5fatalEv
libPocoFoundation.so.94:_ZN4Poco9LogStream5traceERKNSt7__cxx1112basic_stringIcSt11char_traitsIcESaIcEEE
libPocoFoundation.so.94:_ZN4Poco9LogStream5traceEv
libPocoFoundation.so.94:_ZN4Poco9LogStream6noticeERKNSt7__cxx1112basic_stringIcSt11char_traitsIcESaIcEEE
libPocoFoundation.so.94:_ZN4Poco9LogStream6noticeEv
libPocoFoundation.so.94:_ZN4Poco9LogStream7warningERKNSt7__cxx1112basic_stringIcSt11char_traitsIcESaIcEEE
libPocoFoundation.so.94:_ZN4Poco9LogStream7warningEv
libPocoFoundation.so.94:_ZN4Poco9LogStream8criticalERKNSt7__cxx1112basic_stringIcSt11char_traitsIcESaIcEEE
libPocoFoundation.so.94:_ZN4Poco9LogStream8criticalEv
libPocoFoundation.so.94:_ZN4Poco9LogStream8priorityENS_7Message8PriorityE
libPocoFoundation.so.94:_ZN4Poco9LogStreamC1ERKNSt7__cxx1112basic_stringIcSt11char_traitsIcESaIcEEENS_7Message8PriorityEm
libPocoFoundation.so.94:_ZN4Poco9LogStreamC1ERNS_6LoggerENS_7Message8PriorityEm
libPocoFoundation.so.94:_ZN4Poco9LogStreamC2ERKNSt7__cxx1112basic_stringIcSt11char_traitsIcESaIcEEENS_7Message8PriorityEm
libPocoFoundation.so.94:_ZN4Poco9LogStreamC2ERNS_6LoggerENS_7Message8PriorityEm
libPocoFoundation.so.94:_ZN4Poco9LogStreamD0Ev
libPocoFoundation.so.94:_ZN4Poco9LogStreamD1Ev
libPocoFoundation.so.94:_ZN4Poco9LogStreamD2Ev
libPocoFoundation.so.94:_ZN4Poco9MD4Engine10updateImplEPKvm
libPocoFoundation.so.94:_ZN4Poco9MD4Engine5resetEv
libPocoFoundation.so.94:_ZN4Poco9MD4Engine6decodeEPjPKhm
libPocoFoundation.so.94:_ZN4Poco9MD4Engine6digestEv
libPocoFoundation.so.94:_ZN4Poco9MD4Engine6encodeEPhPKjm
libPocoFoundation.so.94:_ZN4Poco9MD4Engine9transformEPjPKh
libPocoFoundation.so.94:_ZN4Poco9MD4EngineC1Ev
libPocoFoundation.so.94:_ZN4Poco9MD4EngineC2Ev
libPocoFoundation.so.94:_ZN4Poco9MD4EngineD0Ev
libPocoFoundation.so.94:_ZN4Poco9MD4EngineD1Ev
libPocoFoundation.so.94:_ZN4Poco9MD4EngineD2Ev
libPocoFoundation.so.94:_ZN4Poco9MD5Engine10updateImplEPKvm
libPocoFoundation.so.94:_ZN4Poco9MD5Engine5resetEv
libPocoFoundation.so.94:_ZN4Poco9MD5Engine6decodeEPjPKhm
libPocoFoundation.so.94:_ZN4Poco9MD5Engine6digestEv
libPocoFoundation.so.94:_ZN4Poco9MD5Engine6encodeEPhPKjm
libPocoFoundation.so.94:_ZN4Poco9MD5Engine9transformEPjPKh
libPocoFoundation.so.94:_ZN4Poco9MD5EngineC1Ev
libPocoFoundation.so.94:_ZN4Poco9MD5EngineC2Ev
libPocoFoundation.so.94:_ZN4Poco9MD5EngineD0Ev
libPocoFoundation.so.94:_ZN4Poco9MD5EngineD1Ev
libPocoFoundation.so.94:_ZN4Poco9MD5EngineD2Ev
libPocoFoundation.so.94:_ZN4Poco9MemoryIOSC1EPcl
libPocoFoundation.so.94:_ZN4Poco9MemoryIOSC2EPcl
libPocoFoundation.so.94:_ZN4Poco9MemoryIOSD0Ev
libPocoFoundation.so.94:_ZN4Poco9MemoryIOSD1Ev
libPocoFoundation.so.94:_ZN4Poco9MemoryIOSD2Ev
libPocoFoundation.so.94:_ZN4Poco9MutexImpl11tryLockImplEl
libPocoFoundation.so.94:_ZN4Poco9MutexImplC1Eb
libPocoFoundation.so.94:_ZN4Poco9MutexImplC1Ev
libPocoFoundation.so.94:_ZN4Poco9MutexImplC2Eb
libPocoFoundation.so.94:_ZN4Poco9MutexImplC2Ev
libPocoFoundation.so.94:_ZN4Poco9MutexImplD1Ev
libPocoFoundation.so.94:_ZN4Poco9MutexImplD2Ev
libPocoFoundation.so.94:_ZN4Poco9RandomBuf14readFromDeviceEPcl
libPocoFoundation.so.94:_ZN4Poco9RandomBufC1Ev
libPocoFoundation.so.94:_ZN4Poco9RandomBufC2Ev
libPocoFoundation.so.94:_ZN4Poco9RandomBufD0Ev
libPocoFoundation.so.94:_ZN4Poco9RandomBufD1Ev
libPocoFoundation.so.94:_ZN4Poco9RandomBufD2Ev
libPocoFoundation.so.94:_ZN4Poco9RandomIOS5rdbufEv
libPocoFoundation.so.94:_ZN4Poco9RandomIOSC1Ev
libPocoFoundation.so.94:_ZN4Poco9RandomIOSC2Ev
libPocoFoundation.so.94:_ZN4Poco9RandomIOSD0Ev
libPocoFoundation.so.94:_ZN4Poco9RandomIOSD1Ev
libPocoFoundation.so.94:_ZN4Poco9RandomIOSD2Ev
libPocoFoundation.so.94:_ZN4Poco9SemaphoreC1Ei
libPocoFoundation.so.94:_ZN4Poco9SemaphoreC1Eii
libPocoFoundation.so.94:_ZN4Poco9SemaphoreC2Ei
libPocoFoundation.so.94:_ZN4Poco9SemaphoreC2Eii
libPocoFoundation.so.94:_ZN4Poco9SemaphoreD1Ev
libPocoFoundation.so.94:_ZN4Poco9SemaphoreD2Ev
libPocoFoundation.so.94:_ZN4Poco9Stopwatch5resetEv
libPocoFoundation.so.94:_ZN4Poco9Stopwatch7restartEv
libPocoFoundation.so.94:_ZN4Poco9StopwatchC1Ev
libPocoFoundation.so.94:_ZN4Poco9StopwatchC2Ev
libPocoFoundation.so.94:_ZN4Poco9StopwatchD1Ev
libPocoFoundation.so.94:_ZN4Poco9StopwatchD2Ev
libPocoFoundation.so.94:_ZN4Poco9Timestamp11TIMEVAL_MAXE
libPocoFoundation.so.94:_ZN4Poco9Timestamp11TIMEVAL_MINE
libPocoFoundation.so.94:_ZN4Poco9Timestamp11fromUtcTimeEl
libPocoFoundation.so.94:_ZN4Poco9Timestamp13fromEpochTimeEl
libPocoFoundation.so.94:_ZN4Poco9Timestamp4swapERS0_
libPocoFoundation.so.94:_ZN4Poco9Timestamp6updateEv
libPocoFoundation.so.94:_ZN4Poco9TimestampC1ERKS0_
libPocoFoundation.so.94:_ZN4Poco9TimestampC1El
libPocoFoundation.so.94:_ZN4Poco9TimestampC1Ev
libPocoFoundation.so.94:_ZN4Poco9TimestampC2ERKS0_
libPocoFoundation.so.94:_ZN4Poco9TimestampC2El
libPocoFoundation.so.94:_ZN4Poco9TimestampC2Ev
libPocoFoundation.so.94:_ZN4Poco9TimestampD1Ev
libPocoFoundation.so.94:_ZN4Poco9TimestampD2Ev
libPocoFoundation.so.94:_ZN4Poco9TimestampaSERKS0_
libPocoFoundation.so.94:_ZN4Poco9TimestampaSEl
libPocoFoundation.so.94:_ZN4Poco9TimestampmIERKNS_8TimespanE
libPocoFoundation.so.94:_ZN4Poco9TimestamppLERKNS_8TimespanE
libPocoFoundation.so.94:_ZNK22poco_double_conversion23DoubleToStringConverter11ToPrecisionEdiPNS_13StringBuilderE
libPocoFoundation.so.94:_ZNK22poco_double_conversion23DoubleToStringConverter13ToExponentialEdiPNS_13StringBuilderE
libPocoFoundation.so.94:_ZNK22poco_double_conversion23DoubleToStringConverter19HandleSpecialValuesEdPNS_13StringBuilderE
libPocoFoundation.so.94:_ZNK22poco_double_conversion23DoubleToStringConverter20ToShortestIeeeNumberEdPNS_13StringBuilderENS0_8DtoaModeE
libPocoFoundation.so.94:_ZNK22poco_double_conversion23DoubleToStringConverter27CreateDecimalRepresentationEPKciiiPNS_13StringBuilderE
libPocoFoundation.so.94:_ZNK22poco_double_conversion23DoubleToStringConverter31CreateExponentialRepresentationEPKciiPNS_13StringBuilderE
libPocoFoundation.so.94:_ZNK22poco_double_conversion23DoubleToStringConverter7ToFixedEdiPNS_13StringBuilderE
libPocoFoundation.so.94:_ZNK22poco_double_conversion23StringToDoubleConverter13StringToFloatEPKciPi
libPocoFoundation.so.94:_ZNK22poco_double_conversion23StringToDoubleConverter13StringToFloatEPKtiPi
libPocoFoundation.so.94:_ZNK22poco_double_conversion23StringToDoubleConverter14StringToDoubleEPKciPi
libPocoFoundation.so.94:_ZNK22poco_double_conversion23StringToDoubleConverter14StringToDoubleEPKtiPi
libPocoFoundation.so.94:_ZNK22poco_double_conversion23StringToDoubleConverter8StringToIdEET_PKciPi
libPocoFoundation.so.94:_ZNK22poco_double_conversion23StringToDoubleConverter8StringToIdEET_PKtiPi
libPocoFoundation.so.94:_ZNK22poco_double_conversion23StringToDoubleConverter8StringToIfEET_PKciPi
libPocoFoundation.so.94:_ZNK22poco_double_conversion23StringToDoubleConverter8StringToIfEET_PKtiPi
libPocoFoundation.so.94:_ZNK22poco_double_conversion6Bignum11BigitOrZeroEi
libPocoFoundation.so.94:_ZNK22poco_double_conversion6Bignum11ToHexStringEPci
libPocoFoundation.so.94:_ZNK22poco_double_conversion6Bignum8RawBigitEi
libPocoFoundation.so.94:_ZNK4Poco10SHA1Engine12digestLengthEv
libPocoFoundation.so.94:_ZNK4Poco10SHA2Engine12digestLengthEv
libPocoFoundation.so.94:_ZNK4Poco10ThreadPool4usedEv
libPocoFoundation.so.94:_ZNK4Poco10ThreadPool8capacityEv
libPocoFoundation.so.94:_ZNK4Poco10ThreadPool9allocatedEv
libPocoFoundation.so.94:_ZNK4Poco10ThreadPool9availableEv
libPocoFoundation.so.94:_ZNK4Poco11FileChannel11getPropertyERKNSt7__cxx1112basic_stringIcSt11char_traitsIcESaIcEEE
libPocoFoundation.so.94:_ZNK4Poco11FileChannel12creationDateEv
libPocoFoundation.so.94:_ZNK4Poco11FileChannel12extractDigitERKNSt7__cxx1112basic_stringIcSt11char_traitsIcESaIcEEEPN9__gnu_cxx17__normal_iteratorIPKcS6_EE
libPocoFoundation.so.94:_ZNK4Poco11FileChannel13extractFactorERKNSt7__cxx1112basic_stringIcSt11char_traitsIcESaIcEEEN9__gnu_cxx17__normal_iteratorIPKcS6_EE
libPocoFoundation.so.94:_ZNK4Poco11FileChannel4pathB5cxx11Ev
libPocoFoundation.so.94:_ZNK4Poco11FileChannel4sizeEv
libPocoFoundation.so.94:_ZNK4Poco11IOException4nameEv
libPocoFoundation.so.94:_ZNK4Poco11IOException5cloneEv
libPocoFoundation.so.94:_ZNK4Poco11IOException7rethrowEv
libPocoFoundation.so.94:_ZNK4Poco11IOException9classNameEv
libPocoFoundation.so.94:_ZNK4Poco11LogFileImpl16creationDateImplEv
libPocoFoundation.so.94:_ZNK4Poco11LogFileImpl8pathImplB5cxx11Ev
libPocoFoundation.so.94:_ZNK4Poco11LogFileImpl8sizeImplEv
libPocoFoundation.so.94:_ZNK4Poco11TaskManager8taskListB5cxx11Ev
libPocoFoundation.so.94:_ZNK4Poco12AsyncChannel10getChannelEv
libPocoFoundation.so.94:_ZNK4Poco12InvalidToken10tokenClassEv
libPocoFoundation.so.94:_ZNK4Poco12Notification4nameB5cxx11Ev
libPocoFoundation.so.94:_ZNK4Poco12SharedMemory3endEv
libPocoFoundation.so.94:_ZNK4Poco12SharedMemory5beginEv
libPocoFoundation.so.94:_ZNK4Poco12TextEncoding12queryConvertEPKhi
libPocoFoundation.so.94:_ZNK4Poco12TextEncoding14sequenceLengthEPKhi
libPocoFoundation.so.94:_ZNK4Poco12TextEncoding7convertEPKh
libPocoFoundation.so.94:_ZNK4Poco12TextEncoding7convertEiPhi
libPocoFoundation.so.94:_ZNK4Poco12TextIteratordeEv
libPocoFoundation.so.94:_ZNK4Poco12UTF8Encoding12characterMapEv
libPocoFoundation.so.94:_ZNK4Poco12UTF8Encoding12queryConvertEPKhi
libPocoFoundation.so.94:_ZNK4Poco12UTF8Encoding13canonicalNameEv
libPocoFoundation.so.94:_ZNK4Poco12UTF8Encoding14sequenceLengthEPKhi
libPocoFoundation.so.94:_ZNK4Poco12UTF8Encoding3isAERKNSt7__cxx1112basic_stringIcSt11char_traitsIcESaIcEEE
libPocoFoundation.so.94:_ZNK4Poco12UTF8Encoding7convertEPKh
libPocoFoundation.so.94:_ZNK4Poco12UTF8Encoding7convertEiPhi
libPocoFoundation.so.94:_ZNK4Poco13ASCIIEncoding12characterMapEv
libPocoFoundation.so.94:_ZNK4Poco13ASCIIEncoding12queryConvertEPKhi
libPocoFoundation.so.94:_ZNK4Poco13ASCIIEncoding13canonicalNameEv
libPocoFoundation.so.94:_ZNK4Poco13ASCIIEncoding14sequenceLengthEPKhi
libPocoFoundation.so.94:_ZNK4Poco13ASCIIEncoding3isAERKNSt7__cxx1112basic_stringIcSt11char_traitsIcESaIcEEE
libPocoFoundation.so.94:_ZNK4Poco13ASCIIEncoding7convertEPKh
libPocoFoundation.so.94:_ZNK4Poco13ASCIIEncoding7convertEiPhi
libPocoFoundation.so.94:_ZNK4Poco13DataException4nameEv
libPocoFoundation.so.94:_ZNK4Poco13DataException5cloneEv
libPocoFoundation.so.94:_ZNK4Poco13DataException7rethrowEv
libPocoFoundation.so.94:_ZNK4Poco13DataException9classNameEv
libPocoFoundation.so.94:_ZNK4Poco13FileException4nameEv
libPocoFoundation.so.94:_ZNK4Poco13FileException5cloneEv
libPocoFoundation.so.94:_ZNK4Poco13FileException7rethrowEv
libPocoFoundation.so.94:_ZNK4Poco13FileException9classNameEv
libPocoFoundation.so.94:_ZNK4Poco13HashStatistic8toStringB5cxx11Ev
libPocoFoundation.so.94:_ZNK4Poco13LocalDateTime3utcEv
libPocoFoundation.so.94:_ZNK4Poco13LocalDateTime9dstOffsetERi
libPocoFoundation.so.94:_ZNK4Poco13LocalDateTimeeqERKS0_
libPocoFoundation.so.94:_ZNK4Poco13LocalDateTimegeERKS0_
libPocoFoundation.so.94:_ZNK4Poco13LocalDateTimegtERKS0_
libPocoFoundation.so.94:_ZNK4Poco13LocalDateTimeleERKS0_
libPocoFoundation.so.94:_ZNK4Poco13LocalDateTimeltERKS0_
libPocoFoundation.so.94:_ZNK4Poco13LocalDateTimemiERKNS_8TimespanE
libPocoFoundation.so.94:_ZNK4Poco13LocalDateTimemiERKS0_
libPocoFoundation.so.94:_ZNK4Poco13LocalDateTimeneERKS0_
libPocoFoundation.so.94:_ZNK4Poco13LocalDateTimeplERKNS_8TimespanE
libPocoFoundation.so.94:_ZNK4Poco13ProcessHandle2idEv
libPocoFoundation.so.94:_ZNK4Poco13ProcessHandle4waitEv
libPocoFoundation.so.94:_ZNK4Poco13ProcessHandle7tryWaitEv
libPocoFoundation.so.94:_ZNK4Poco13SharedLibrary7getPathB5cxx11Ev
libPocoFoundation.so.94:_ZNK4Poco13SharedLibrary8isLoadedEv
libPocoFoundation.so.94:_ZNK4Poco13SyslogChannel11getPropertyERKNSt7__cxx1112basic_stringIcSt11char_traitsIcESaIcEEE
libPocoFoundation.so.94:_ZNK4Poco13UTF16Encoding12characterMapEv
libPocoFoundation.so.94:_ZNK4Poco13UTF16Encoding12getByteOrderEv
libPocoFoundation.so.94:_ZNK4Poco13UTF16Encoding12queryConvertEPKhi
libPocoFoundation.so.94:_ZNK4Poco13UTF16Encoding13canonicalNameEv
libPocoFoundation.so.94:_ZNK4Poco13UTF16Encoding14sequenceLengthEPKhi
libPocoFoundation.so.94:_ZNK4Poco13UTF16Encoding3isAERKNSt7__cxx1112basic_stringIcSt11char_traitsIcESaIcEEE
libPocoFoundation.so.94:_ZNK4Poco13UTF16Encoding7convertEPKh
libPocoFoundation.so.94:_ZNK4Poco13UTF16Encoding7convertEiPhi
libPocoFoundation.so.94:_ZNK4Poco13UTF32Encoding12characterMapEv
libPocoFoundation.so.94:_ZNK4Poco13UTF32Encoding12getByteOrderEv
libPocoFoundation.so.94:_ZNK4Poco13UTF32Encoding12queryConvertEPKhi
libPocoFoundation.so.94:_ZNK4Poco13UTF32Encoding13canonicalNameEv
libPocoFoundation.so.94:_ZNK4Poco13UTF32Encoding14sequenceLengthEPKhi
libPocoFoundation.so.94:_ZNK4Poco13UTF32Encoding3isAERKNSt7__cxx1112basic_stringIcSt11char_traitsIcESaIcEEE
libPocoFoundation.so.94:_ZNK4Poco13UTF32Encoding7convertEPKh
libPocoFoundation.so.94:_ZNK4Poco13UTF32Encoding7convertEiPhi
libPocoFoundation.so.94:_ZNK4Poco14Latin1Encoding12characterMapEv
libPocoFoundation.so.94:_ZNK4Poco14Latin1Encoding12queryConvertEPKhi
libPocoFoundation.so.94:_ZNK4Poco14Latin1Encoding13canonicalNameEv
libPocoFoundation.so.94:_ZNK4Poco14Latin1Encoding14sequenceLengthEPKhi
libPocoFoundation.so.94:_ZNK4Poco14Latin1Encoding3isAERKNSt7__cxx1112basic_stringIcSt11char_traitsIcESaIcEEE
libPocoFoundation.so.94:_ZNK4Poco14Latin1Encoding7convertEPKh
libPocoFoundation.so.94:_ZNK4Poco14Latin1Encoding7convertEiPhi
libPocoFoundation.so.94:_ZNK4Poco14Latin2Encoding12characterMapEv
libPocoFoundation.so.94:_ZNK4Poco14Latin2Encoding12queryConvertEPKhi
libPocoFoundation.so.94:_ZNK4Poco14Latin2Encoding13canonicalNameEv
libPocoFoundation.so.94:_ZNK4Poco14Latin2Encoding14sequenceLengthEPKhi
libPocoFoundation.so.94:_ZNK4Poco14Latin2Encoding3isAERKNSt7__cxx1112basic_stringIcSt11char_traitsIcESaIcEEE
libPocoFoundation.so.94:_ZNK4Poco14Latin2Encoding7convertEPKh
libPocoFoundation.so.94:_ZNK4Poco14Latin2Encoding7convertEiPhi
libPocoFoundation.so.94:_ZNK4Poco14Latin9Encoding12characterMapEv
libPocoFoundation.so.94:_ZNK4Poco14Latin9Encoding12queryConvertEPKhi
libPocoFoundation.so.94:_ZNK4Poco14Latin9Encoding13canonicalNameEv
libPocoFoundation.so.94:_ZNK4Poco14Latin9Encoding14sequenceLengthEPKhi
libPocoFoundation.so.94:_ZNK4Poco14Latin9Encoding3isAERKNSt7__cxx1112basic_stringIcSt11char_traitsIcESaIcEEE
libPocoFoundation.so.94:_ZNK4Poco14Latin9Encoding7convertEPKh
libPocoFoundation.so.94:_ZNK4Poco14Latin9Encoding7convertEiPhi
libPocoFoundation.so.94:_ZNK4Poco14LoggingFactory13createChannelERKNSt7__cxx1112basic_stringIcSt11char_traitsIcESaIcEEE
libPocoFoundation.so.94:_ZNK4Poco14LoggingFactory15createFormatterERKNSt7__cxx1112basic_stringIcSt11char_traitsIcESaIcEEE
libPocoFoundation.so.94:_ZNK4Poco14LogicException4nameEv
libPocoFoundation.so.94:_ZNK4Poco14LogicException5cloneEv
libPocoFoundation.so.94:_ZNK4Poco14LogicException7rethrowEv
libPocoFoundation.so.94:_ZNK4Poco14LogicException9classNameEv
libPocoFoundation.so.94:_ZNK4Poco14RangeException4nameEv
libPocoFoundation.so.94:_ZNK4Poco14RangeException5cloneEv
libPocoFoundation.so.94:_ZNK4Poco14RangeException7rethrowEv
libPocoFoundation.so.94:_ZNK4Poco14RangeException9classNameEv
libPocoFoundation.so.94:_ZNK4Poco15ExistsException4nameEv
libPocoFoundation.so.94:_ZNK4Poco15ExistsException5cloneEv
libPocoFoundation.so.94:_ZNK4Poco15ExistsException7rethrowEv
libPocoFoundation.so.94:_ZNK4Poco15ExistsException9classNameEv
libPocoFoundation.so.94:_ZNK4Poco15LoggingRegistry14channelForNameERKNSt7__cxx1112basic_stringIcSt11char_traitsIcESaIcEEE
libPocoFoundation.so.94:_ZNK4Poco15LoggingRegistry16formatterForNameERKNSt7__cxx1112basic_stringIcSt11char_traitsIcESaIcEEE
libPocoFoundation.so.94:_ZNK4Poco15SignalException4nameEv
libPocoFoundation.so.94:_ZNK4Poco15SignalException5cloneEv
libPocoFoundation.so.94:_ZNK4Poco15SignalException7rethrowEv
libPocoFoundation.so.94:_ZNK4Poco15SignalException9classNameEv
libPocoFoundation.so.94:_ZNK4Poco15SplitterChannel5countEv
libPocoFoundation.so.94:_ZNK4Poco15StringTokenizer3hasERKNSt7__cxx1112basic_stringIcSt11char_traitsIcESaIcEEE
libPocoFoundation.so.94:_ZNK4Poco15StringTokenizer4findERKNSt7__cxx1112basic_stringIcSt11char_traitsIcESaIcEEEm
libPocoFoundation.so.94:_ZNK4Poco15StringTokenizer5countERKNSt7__cxx1112basic_stringIcSt11char_traitsIcESaIcEEE
libPocoFoundation.so.94:_ZNK4Poco15SyntaxException4nameEv
libPocoFoundation.so.94:_ZNK4Poco15SyntaxException5cloneEv
libPocoFoundation.so.94:_ZNK4Poco15SyntaxException7rethrowEv
libPocoFoundation.so.94:_ZNK4Poco15SyntaxException9classNameEv
libPocoFoundation.so.94:_ZNK4Poco15SystemException4nameEv
libPocoFoundation.so.94:_ZNK4Poco15SystemException5cloneEv
libPocoFoundation.so.94:_ZNK4Poco15SystemException7rethrowEv
libPocoFoundation.so.94:_ZNK4Poco15SystemException9classNameEv
libPocoFoundation.so.94:_ZNK4Poco15URIStreamOpener4openERKNS_3URIE
libPocoFoundation.so.94:_ZNK4Poco15URIStreamOpener4openERKNSt7__cxx1112basic_stringIcSt11char_traitsIcESaIcEEE
libPocoFoundation.so.94:_ZNK4Poco15URIStreamOpener4openERKNSt7__cxx1112basic_stringIcSt11char_traitsIcESaIcEEES8_
libPocoFoundation.so.94:_ZNK4Poco15URIStreamOpener7openURIERKNSt7__cxx1112basic_stringIcSt11char_traitsIcESaIcEEERKNS_3URIE
libPocoFoundation.so.94:_ZNK4Poco15URIStreamOpener8openFileERKNS_4PathE
libPocoFoundation.so.94:_ZNK4Poco15WhitespaceToken10tokenClassEv
libPocoFoundation.so.94:_ZNK4Poco16BadCastException4nameEv
libPocoFoundation.so.94:_ZNK4Poco16BadCastException5cloneEv
libPocoFoundation.so.94:_ZNK4Poco16BadCastException7rethrowEv
libPocoFoundation.so.94:_ZNK4Poco16BadCastException9classNameEv
libPocoFoundation.so.94:_ZNK4Poco16Base64EncoderBuf13getLineLengthEv
libPocoFoundation.so.94:_ZNK4Poco16DirectoryWatcher18supportsMoveEventsEv
libPocoFoundation.so.94:_ZNK4Poco16PatternFormatter11getPropertyERKNSt7__cxx1112basic_stringIcSt11char_traitsIcESaIcEEE
libPocoFoundation.so.94:_ZNK4Poco16RuntimeException4nameEv
libPocoFoundation.so.94:_ZNK4Poco16RuntimeException5cloneEv
libPocoFoundation.so.94:_ZNK4Poco16RuntimeException7rethrowEv
libPocoFoundation.so.94:_ZNK4Poco16RuntimeException9classNameEv
libPocoFoundation.so.94:_ZNK4Poco16TimeoutException4nameEv
libPocoFoundation.so.94:_ZNK4Poco16TimeoutException5cloneEv
libPocoFoundation.so.94:_ZNK4Poco16TimeoutException7rethrowEv
libPocoFoundation.so.94:_ZNK4Poco16TimeoutException9classNameEv
libPocoFoundation.so.94:_ZNK4Poco17BugcheckException4nameEv
libPocoFoundation.so.94:_ZNK4Poco17BugcheckException5cloneEv
libPocoFoundation.so.94:_ZNK4Poco17BugcheckException7rethrowEv
libPocoFoundation.so.94:_ZNK4Poco17BugcheckException9classNameEv
libPocoFoundation.so.94:_ZNK4Poco17FormattingChannel10getChannelEv
libPocoFoundation.so.94:_ZNK4Poco17FormattingChannel12getFormatterEv
libPocoFoundation.so.94:_ZNK4Poco17NotFoundException4nameEv
libPocoFoundation.so.94:_ZNK4Poco17NotFoundException5cloneEv
libPocoFoundation.so.94:_ZNK4Poco17NotFoundException7rethrowEv
libPocoFoundation.so.94:_ZNK4Poco17NotFoundException9classNameEv
libPocoFoundation.so.94:_ZNK4Poco17NotificationQueue14hasIdleThreadsEv
libPocoFoundation.so.94:_ZNK4Poco17NotificationQueue4sizeEv
libPocoFoundation.so.94:_ZNK4Poco17NotificationQueue5emptyEv
libPocoFoundation.so.94:_ZNK4Poco17OpenFileException4nameEv
libPocoFoundation.so.94:_ZNK4Poco17OpenFileException5cloneEv
libPocoFoundation.so.94:_ZNK4Poco17OpenFileException7rethrowEv
libPocoFoundation.so.94:_ZNK4Poco17OpenFileException9classNameEv
libPocoFoundation.so.94:_ZNK4Poco17ProcessHandleImpl2idEv
libPocoFoundation.so.94:_ZNK4Poco17ProcessHandleImpl4waitEv
libPocoFoundation.so.94:_ZNK4Poco17ProcessHandleImpl7tryWaitEv
libPocoFoundation.so.94:_ZNK4Poco17ProtocolException4nameEv
libPocoFoundation.so.94:_ZNK4Poco17ProtocolException5cloneEv
libPocoFoundation.so.94:_ZNK4Poco17ProtocolException7rethrowEv
libPocoFoundation.so.94:_ZNK4Poco17ProtocolException9classNameEv
libPocoFoundation.so.94:_ZNK4Poco17ReadFileException4nameEv
libPocoFoundation.so.94:_ZNK4Poco17ReadFileException5cloneEv
libPocoFoundation.so.94:_ZNK4Poco17ReadFileException7rethrowEv
libPocoFoundation.so.94:_ZNK4Poco17ReadFileException9classNameEv
libPocoFoundation.so.94:_ZNK4Poco17RegularExpression5matchERKNSt7__cxx1112basic_stringIcSt11char_traitsIcESaIcEEEm
libPocoFoundation.so.94:_ZNK4Poco17RegularExpression5matchERKNSt7__cxx1112basic_stringIcSt11char_traitsIcESaIcEEEmRNS0_5MatchEi
libPocoFoundation.so.94:_ZNK4Poco17RegularExpression5matchERKNSt7__cxx1112basic_stringIcSt11char_traitsIcESaIcEEEmRSt6vectorINS0_5MatchESaISA_EEi
libPocoFoundation.so.94:_ZNK4Poco17RegularExpression5matchERKNSt7__cxx1112basic_stringIcSt11char_traitsIcESaIcEEEmi
libPocoFoundation.so.94:_ZNK4Poco17RegularExpression5splitERKNSt7__cxx1112basic_stringIcSt11char_traitsIcESaIcEEEmRSt6vectorIS6_SaIS6_EEi
libPocoFoundation.so.94:_ZNK4Poco17RegularExpression5substERNSt7__cxx1112basic_stringIcSt11char_traitsIcESaIcEEEmRKS6_i
libPocoFoundation.so.94:_ZNK4Poco17RegularExpression7extractERKNSt7__cxx1112basic_stringIcSt11char_traitsIcESaIcEEERS6_i
libPocoFoundation.so.94:_ZNK4Poco17RegularExpression7extractERKNSt7__cxx1112basic_stringIcSt11char_traitsIcESaIcEEEmRS6_i
libPocoFoundation.so.94:_ZNK4Poco17RegularExpression8substOneERNSt7__cxx1112basic_stringIcSt11char_traitsIcESaIcEEEmRKS6_i
libPocoFoundation.so.94:_ZNK4Poco17SharedLibraryImpl11getPathImplB5cxx11Ev
libPocoFoundation.so.94:_ZNK4Poco17SharedLibraryImpl12isLoadedImplEv
libPocoFoundation.so.94:_ZNK4Poco17SimpleFileChannel11getPropertyERKNSt7__cxx1112basic_stringIcSt11char_traitsIcESaIcEEE
libPocoFoundation.so.94:_ZNK4Poco17SimpleFileChannel12creationDateEv
libPocoFoundation.so.94:_ZNK4Poco17SimpleFileChannel13secondaryPathB5cxx11Ev
libPocoFoundation.so.94:_ZNK4Poco17SimpleFileChannel4pathB5cxx11Ev
libPocoFoundation.so.94:_ZNK4Poco17SimpleFileChannel4sizeEv
libPocoFoundation.so.94:_ZNK4Poco18NotificationCenter11hasObserverERKNS_16AbstractObserverE
libPocoFoundation.so.94:_ZNK4Poco18NotificationCenter12hasObserversEv
libPocoFoundation.so.94:_ZNK4Poco18NotificationCenter14countObserversEv
libPocoFoundation.so.94:_ZNK4Poco18NullValueException4nameEv
libPocoFoundation.so.94:_ZNK4Poco18NullValueException5cloneEv
libPocoFoundation.so.94:_ZNK4Poco18NullValueException7rethrowEv
libPocoFoundation.so.94:_ZNK4Poco18NullValueException9classNameEv
libPocoFoundation.so.94:_ZNK4Poco18StreamConverterBuf6errorsEv
libPocoFoundation.so.94:_ZNK4Poco18StreamConverterIOS6errorsEv
libPocoFoundation.so.94:_ZNK4Poco18TextBufferIteratordeEv
libPocoFoundation.so.94:_ZNK4Poco18URISyntaxException4nameEv
libPocoFoundation.so.94:_ZNK4Poco18URISyntaxException5cloneEv
libPocoFoundation.so.94:_ZNK4Poco18URISyntaxException7rethrowEv
libPocoFoundation.so.94:_ZNK4Poco18URISyntaxException9classNameEv
libPocoFoundation.so.94:_ZNK4Poco18UnhandledException4nameEv
libPocoFoundation.so.94:_ZNK4Poco18UnhandledException5cloneEv
libPocoFoundation.so.94:_ZNK4Poco18UnhandledException7rethrowEv
libPocoFoundation.so.94:_ZNK4Poco18UnhandledException9classNameEv
libPocoFoundation.so.94:_ZNK4Poco18WriteFileException4nameEv
libPocoFoundation.so.94:_ZNK4Poco18WriteFileException5cloneEv
libPocoFoundation.so.94:_ZNK4Poco18WriteFileException7rethrowEv
libPocoFoundation.so.94:_ZNK4Poco18WriteFileException9classNameEv
libPocoFoundation.so.94:_ZNK4Poco19ColorConsoleChannel10parseColorERKNSt7__cxx1112basic_stringIcSt11char_traitsIcESaIcEEE
libPocoFoundation.so.94:_ZNK4Poco19ColorConsoleChannel11formatColorB5cxx11ENS0_5ColorE
libPocoFoundation.so.94:_ZNK4Poco19ColorConsoleChannel11getPropertyERKNSt7__cxx1112basic_stringIcSt11char_traitsIcESaIcEEE
libPocoFoundation.so.94:_ZNK4Poco19CreateFileException4nameEv
libPocoFoundation.so.94:_ZNK4Poco19CreateFileException5cloneEv
libPocoFoundation.so.94:_ZNK4Poco19CreateFileException7rethrowEv
libPocoFoundation.so.94:_ZNK4Poco19CreateFileException9classNameEv
libPocoFoundation.so.94:_ZNK4Poco19DataFormatException4nameEv
libPocoFoundation.so.94:_ZNK4Poco19DataFormatException5cloneEv
libPocoFoundation.so.94:_ZNK4Poco19DataFormatException7rethrowEv
libPocoFoundation.so.94:_ZNK4Poco19DataFormatException9classNameEv
libPocoFoundation.so.94:_ZNK4Poco19FileExistsException4nameEv
libPocoFoundation.so.94:_ZNK4Poco19FileExistsException5cloneEv
libPocoFoundation.so.94:_ZNK4Poco19FileExistsException7rethrowEv
libPocoFoundation.so.94:_ZNK4Poco19FileExistsException9classNameEv
libPocoFoundation.so.94:_ZNK4Poco19HexBinaryEncoderBuf13getLineLengthEv
libPocoFoundation.so.94:_ZNK4Poco19PathSyntaxException4nameEv
libPocoFoundation.so.94:_ZNK4Poco19PathSyntaxException5cloneEv
libPocoFoundation.so.94:_ZNK4Poco19PathSyntaxException7rethrowEv
libPocoFoundation.so.94:_ZNK4Poco19PathSyntaxException9classNameEv
libPocoFoundation.so.94:_ZNK4Poco19Windows1250Encoding12characterMapEv
libPocoFoundation.so.94:_ZNK4Poco19Windows1250Encoding12queryConvertEPKhi
libPocoFoundation.so.94:_ZNK4Poco19Windows1250Encoding13canonicalNameEv
libPocoFoundation.so.94:_ZNK4Poco19Windows1250Encoding14sequenceLengthEPKhi
libPocoFoundation.so.94:_ZNK4Poco19Windows1250Encoding3isAERKNSt7__cxx1112basic_stringIcSt11char_traitsIcESaIcEEE
libPocoFoundation.so.94:_ZNK4Poco19Windows1250Encoding7convertEPKh
libPocoFoundation.so.94:_ZNK4Poco19Windows1250Encoding7convertEiPhi
libPocoFoundation.so.94:_ZNK4Poco19Windows1251Encoding12characterMapEv
libPocoFoundation.so.94:_ZNK4Poco19Windows1251Encoding12queryConvertEPKhi
libPocoFoundation.so.94:_ZNK4Poco19Windows1251Encoding13canonicalNameEv
libPocoFoundation.so.94:_ZNK4Poco19Windows1251Encoding14sequenceLengthEPKhi
libPocoFoundation.so.94:_ZNK4Poco19Windows1251Encoding3isAERKNSt7__cxx1112basic_stringIcSt11char_traitsIcESaIcEEE
libPocoFoundation.so.94:_ZNK4Poco19Windows1251Encoding7convertEPKh
libPocoFoundation.so.94:_ZNK4Poco19Windows1251Encoding7convertEiPhi
libPocoFoundation.so.94:_ZNK4Poco19Windows1252Encoding12characterMapEv
libPocoFoundation.so.94:_ZNK4Poco19Windows1252Encoding12queryConvertEPKhi
libPocoFoundation.so.94:_ZNK4Poco19Windows1252Encoding13canonicalNameEv
libPocoFoundation.so.94:_ZNK4Poco19Windows1252Encoding14sequenceLengthEPKhi
libPocoFoundation.so.94:_ZNK4Poco19Windows1252Encoding3isAERKNSt7__cxx1112basic_stringIcSt11char_traitsIcESaIcEEE
libPocoFoundation.so.94:_ZNK4Poco19Windows1252Encoding7convertEPKh
libPocoFoundation.so.94:_ZNK4Poco19Windows1252Encoding7convertEiPhi
libPocoFoundation.so.94:_ZNK4Poco20ApplicationException4nameEv
libPocoFoundation.so.94:_ZNK4Poco20ApplicationException5cloneEv
libPocoFoundation.so.94:_ZNK4Poco20ApplicationException7rethrowEv
libPocoFoundation.so.94:_ZNK4Poco20ApplicationException9classNameEv
libPocoFoundation.so.94:_ZNK4Poco20LibraryLoadException4nameEv
libPocoFoundation.so.94:_ZNK4Poco20LibraryLoadException5cloneEv
libPocoFoundation.so.94:_ZNK4Poco20LibraryLoadException7rethrowEv
libPocoFoundation.so.94:_ZNK4Poco20LibraryLoadException9classNameEv
libPocoFoundation.so.94:_ZNK4Poco20NullPointerException4nameEv
libPocoFoundation.so.94:_ZNK4Poco20NullPointerException5cloneEv
libPocoFoundation.so.94:_ZNK4Poco20NullPointerException7rethrowEv
libPocoFoundation.so.94:_ZNK4Poco20NullPointerException9classNameEv
libPocoFoundation.so.94:_ZNK4Poco20OutOfMemoryException4nameEv
libPocoFoundation.so.94:_ZNK4Poco20OutOfMemoryException5cloneEv
libPocoFoundation.so.94:_ZNK4Poco20OutOfMemoryException7rethrowEv
libPocoFoundation.so.94:_ZNK4Poco20OutOfMemoryException9classNameEv
libPocoFoundation.so.94:_ZNK4Poco21DirectoryIteratorImpl3getB5cxx11Ev
libPocoFoundation.so.94:_ZNK4Poco21FileNotFoundException4nameEv
libPocoFoundation.so.94:_ZNK4Poco21FileNotFoundException5cloneEv
libPocoFoundation.so.94:_ZNK4Poco21FileNotFoundException7rethrowEv
libPocoFoundation.so.94:_ZNK4Poco21FileNotFoundException9classNameEv
libPocoFoundation.so.94:_ZNK4Poco21FileReadOnlyException4nameEv
libPocoFoundation.so.94:_ZNK4Poco21FileReadOnlyException5cloneEv
libPocoFoundation.so.94:_ZNK4Poco21FileReadOnlyException7rethrowEv
libPocoFoundation.so.94:_ZNK4Poco21FileReadOnlyException9classNameEv
libPocoFoundation.so.94:_ZNK4Poco21IllegalStateException4nameEv
libPocoFoundation.so.94:_ZNK4Poco21IllegalStateException5cloneEv
libPocoFoundation.so.94:_ZNK4Poco21IllegalStateException7rethrowEv
libPocoFoundation.so.94:_ZNK4Poco21IllegalStateException9classNameEv
libPocoFoundation.so.94:_ZNK4Poco21NoPermissionException4nameEv
libPocoFoundation.so.94:_ZNK4Poco21NoPermissionException5cloneEv
libPocoFoundation.so.94:_ZNK4Poco21NoPermissionException7rethrowEv
libPocoFoundation.so.94:_ZNK4Poco21NoPermissionException9classNameEv
libPocoFoundation.so.94:_ZNK4Poco21PathNotFoundException4nameEv
libPocoFoundation.so.94:_ZNK4Poco21PathNotFoundException5cloneEv
libPocoFoundation.so.94:_ZNK4Poco21PathNotFoundException7rethrowEv
libPocoFoundation.so.94:_ZNK4Poco21PathNotFoundException9classNameEv
libPocoFoundation.so.94:_ZNK4Poco21PoolOverflowException4nameEv
libPocoFoundation.so.94:_ZNK4Poco21PoolOverflowException5cloneEv
libPocoFoundation.so.94:_ZNK4Poco21PoolOverflowException7rethrowEv
libPocoFoundation.so.94:_ZNK4Poco21PoolOverflowException9classNameEv
libPocoFoundation.so.94:_ZNK4Poco22InvalidAccessException4nameEv
libPocoFoundation.so.94:_ZNK4Poco22InvalidAccessException5cloneEv
libPocoFoundation.so.94:_ZNK4Poco22InvalidAccessException7rethrowEv
libPocoFoundation.so.94:_ZNK4Poco22InvalidAccessException9classNameEv
libPocoFoundation.so.94:_ZNK4Poco22LineEndingConverterIOS10getNewLineB5cxx11Ev
libPocoFoundation.so.94:_ZNK4Poco22TimedNotificationQueue4sizeEv
libPocoFoundation.so.94:_ZNK4Poco22TimedNotificationQueue5emptyEv
libPocoFoundation.so.94:_ZNK4Poco23NestedDiagnosticContext4dumpERSo
libPocoFoundation.so.94:_ZNK4Poco23NestedDiagnosticContext4dumpERSoRKNSt7__cxx1112basic_stringIcSt11char_traitsIcESaIcEEE
libPocoFoundation.so.94:_ZNK4Poco23NestedDiagnosticContext5depthEv
libPocoFoundation.so.94:_ZNK4Poco23NestedDiagnosticContext8toStringB5cxx11Ev
libPocoFoundation.so.94:_ZNK4Poco23NotImplementedException4nameEv
libPocoFoundation.so.94:_ZNK4Poco23NotImplementedException5cloneEv
libPocoFoundation.so.94:_ZNK4Poco23NotImplementedException7rethrowEv
libPocoFoundation.so.94:_ZNK4Poco23NotImplementedException9classNameEv
libPocoFoundation.so.94:_ZNK4Poco24InvalidArgumentException4nameEv
libPocoFoundation.so.94:_ZNK4Poco24InvalidArgumentException5cloneEv
libPocoFoundation.so.94:_ZNK4Poco24InvalidArgumentException7rethrowEv
libPocoFoundation.so.94:_ZNK4Poco24InvalidArgumentException9classNameEv
libPocoFoundation.so.94:_ZNK4Poco25FileAccessDeniedException4nameEv
libPocoFoundation.so.94:_ZNK4Poco25FileAccessDeniedException5cloneEv
libPocoFoundation.so.94:_ZNK4Poco25FileAccessDeniedException7rethrowEv
libPocoFoundation.so.94:_ZNK4Poco25FileAccessDeniedException9classNameEv
libPocoFoundation.so.94:_ZNK4Poco25PriorityNotificationQueue14hasIdleThreadsEv
libPocoFoundation.so.94:_ZNK4Poco25PriorityNotificationQueue4sizeEv
libPocoFoundation.so.94:_ZNK4Poco25PriorityNotificationQueue5emptyEv
libPocoFoundation.so.94:_ZNK4Poco25UnknownURISchemeException4nameEv
libPocoFoundation.so.94:_ZNK4Poco25UnknownURISchemeException5cloneEv
libPocoFoundation.so.94:_ZNK4Poco25UnknownURISchemeException7rethrowEv
libPocoFoundation.so.94:_ZNK4Poco25UnknownURISchemeException9classNameEv
libPocoFoundation.so.94:_ZNK4Poco26CircularReferenceException4nameEv
libPocoFoundation.so.94:_ZNK4Poco26CircularReferenceException5cloneEv
libPocoFoundation.so.94:_ZNK4Poco26CircularReferenceException7rethrowEv
libPocoFoundation.so.94:_ZNK4Poco26CircularReferenceException9classNameEv
libPocoFoundation.so.94:_ZNK4Poco26DirectoryNotEmptyException4nameEv
libPocoFoundation.so.94:_ZNK4Poco26DirectoryNotEmptyException5cloneEv
libPocoFoundation.so.94:_ZNK4Poco26DirectoryNotEmptyException7rethrowEv
libPocoFoundation.so.94:_ZNK4Poco26DirectoryNotEmptyException9classNameEv
libPocoFoundation.so.94:_ZNK4Poco26NoThreadAvailableException4nameEv
libPocoFoundation.so.94:_ZNK4Poco26NoThreadAvailableException5cloneEv
libPocoFoundation.so.94:_ZNK4Poco26NoThreadAvailableException7rethrowEv
libPocoFoundation.so.94:_ZNK4Poco26NoThreadAvailableException9classNameEv
libPocoFoundation.so.94:_ZNK4Poco26RegularExpressionException4nameEv
libPocoFoundation.so.94:_ZNK4Poco26RegularExpressionException5cloneEv
libPocoFoundation.so.94:_ZNK4Poco26RegularExpressionException7rethrowEv
libPocoFoundation.so.94:_ZNK4Poco26RegularExpressionException9classNameEv
libPocoFoundation.so.94:_ZNK4Poco27AssertionViolationException4nameEv
libPocoFoundation.so.94:_ZNK4Poco27AssertionViolationException5cloneEv
libPocoFoundation.so.94:_ZNK4Poco27AssertionViolationException7rethrowEv
libPocoFoundation.so.94:_ZNK4Poco27AssertionViolationException9classNameEv
libPocoFoundation.so.94:_ZNK4Poco28LineEndingConverterStreamBuf10getNewLineB5cxx11Ev
libPocoFoundation.so.94:_ZNK4Poco28TooManyURIRedirectsException4nameEv
libPocoFoundation.so.94:_ZNK4Poco28TooManyURIRedirectsException5cloneEv
libPocoFoundation.so.94:_ZNK4Poco28TooManyURIRedirectsException7rethrowEv
libPocoFoundation.so.94:_ZNK4Poco28TooManyURIRedirectsException9classNameEv
libPocoFoundation.so.94:_ZNK4Poco29LibraryAlreadyLoadedException4nameEv
libPocoFoundation.so.94:_ZNK4Poco29LibraryAlreadyLoadedException5cloneEv
libPocoFoundation.so.94:_ZNK4Poco29LibraryAlreadyLoadedException7rethrowEv
libPocoFoundation.so.94:_ZNK4Poco29LibraryAlreadyLoadedException9classNameEv
libPocoFoundation.so.94:_ZNK4Poco29PropertyNotSupportedException4nameEv
libPocoFoundation.so.94:_ZNK4Poco29PropertyNotSupportedException5cloneEv
libPocoFoundation.so.94:_ZNK4Poco29PropertyNotSupportedException7rethrowEv
libPocoFoundation.so.94:_ZNK4Poco29PropertyNotSupportedException9classNameEv
libPocoFoundation.so.94:_ZNK4Poco3URI10getPathEtcB5cxx11Ev
libPocoFoundation.so.94:_ZNK4Poco3URI10isRelativeEv
libPocoFoundation.so.94:_ZNK4Poco3URI11getFragmentB5cxx11Ev
libPocoFoundation.so.94:_ZNK4Poco3URI12getAuthorityB5cxx11Ev
libPocoFoundation.so.94:_ZNK4Poco3URI15getPathAndQueryB5cxx11Ev
libPocoFoundation.so.94:_ZNK4Poco3URI15getPathSegmentsERSt6vectorINSt7__cxx1112basic_stringIcSt11char_traitsIcESaIcEEESaIS7_EE
libPocoFoundation.so.94:_ZNK4Poco3URI15isWellKnownPortEv
libPocoFoundation.so.94:_ZNK4Poco3URI16getWellKnownPortEv
libPocoFoundation.so.94:_ZNK4Poco3URI18getQueryParametersB5cxx11Eb
libPocoFoundation.so.94:_ZNK4Poco3URI5emptyEv
libPocoFoundation.so.94:_ZNK4Poco3URI6equalsERKS0_
libPocoFoundation.so.94:_ZNK4Poco3URI7getPortEv
libPocoFoundation.so.94:_ZNK4Poco3URI8getQueryB5cxx11Ev
libPocoFoundation.so.94:_ZNK4Poco3URI8toStringB5cxx11Ev
libPocoFoundation.so.94:_ZNK4Poco3URIeqERKNSt7__cxx1112basic_stringIcSt11char_traitsIcESaIcEEE
libPocoFoundation.so.94:_ZNK4Poco3URIeqERKS0_
libPocoFoundation.so.94:_ZNK4Poco3URIneERKNSt7__cxx1112basic_stringIcSt11char_traitsIcESaIcEEE
libPocoFoundation.so.94:_ZNK4Poco3URIneERKS0_
libPocoFoundation.so.94:_ZNK4Poco4File10canExecuteEv
libPocoFoundation.so.94:_ZNK4Poco4File10totalSpaceEv
libPocoFoundation.so.94:_ZNK4Poco4File11isDirectoryEv
libPocoFoundation.so.94:_ZNK4Poco4File11usableSpaceEv
libPocoFoundation.so.94:_ZNK4Poco4File13copyDirectoryERKNSt7__cxx1112basic_stringIcSt11char_traitsIcESaIcEEEi
libPocoFoundation.so.94:_ZNK4Poco4File15getLastModifiedEv
libPocoFoundation.so.94:_ZNK4Poco4File4listERSt6vectorINSt7__cxx1112basic_stringIcSt11char_traitsIcESaIcEEESaIS7_EE
libPocoFoundation.so.94:_ZNK4Poco4File4listERSt6vectorIS0_SaIS0_EE
libPocoFoundation.so.94:_ZNK4Poco4File6copyToERKNSt7__cxx1112basic_stringIcSt11char_traitsIcESaIcEEEi
libPocoFoundation.so.94:_ZNK4Poco4File6existsEv
libPocoFoundation.so.94:_ZNK4Poco4File6isFileEv
libPocoFoundation.so.94:_ZNK4Poco4File6isLinkEv
libPocoFoundation.so.94:_ZNK4Poco4File6linkToERKNSt7__cxx1112basic_stringIcSt11char_traitsIcESaIcEEENS0_8LinkTypeE
libPocoFoundation.so.94:_ZNK4Poco4File7canReadEv
libPocoFoundation.so.94:_ZNK4Poco4File7createdEv
libPocoFoundation.so.94:_ZNK4Poco4File7getSizeEv
libPocoFoundation.so.94:_ZNK4Poco4File8canWriteEv
libPocoFoundation.so.94:_ZNK4Poco4File8isDeviceEv
libPocoFoundation.so.94:_ZNK4Poco4File8isHiddenEv
libPocoFoundation.so.94:_ZNK4Poco4File9freeSpaceEv
libPocoFoundation.so.94:_ZNK4Poco4Path11getBaseNameB5cxx11Ev
libPocoFoundation.so.94:_ZNK4Poco4Path12buildWindowsB5cxx11Ev
libPocoFoundation.so.94:_ZNK4Poco4Path12getExtensionB5cxx11Ev
libPocoFoundation.so.94:_ZNK4Poco4Path6parentEv
libPocoFoundation.so.94:_ZNK4Poco4Path8absoluteERKS0_
libPocoFoundation.so.94:_ZNK4Poco4Path8absoluteEv
libPocoFoundation.so.94:_ZNK4Poco4Path8buildVMSB5cxx11Ev
libPocoFoundation.so.94:_ZNK4Poco4Path8toStringB5cxx11ENS0_5StyleE
libPocoFoundation.so.94:_ZNK4Poco4Path8toStringB5cxx11Ev
libPocoFoundation.so.94:_ZNK4Poco4Path9buildUnixB5cxx11Ev
libPocoFoundation.so.94:_ZNK4Poco4Path9directoryB5cxx11Ei
libPocoFoundation.so.94:_ZNK4Poco4PathixB5cxx11Ei
libPocoFoundation.so.94:_ZNK4Poco4UUID6copyToEPc
libPocoFoundation.so.94:_ZNK4Poco4UUID7compareERKS0_
libPocoFoundation.so.94:_ZNK4Poco4UUID7variantEv
libPocoFoundation.so.94:_ZNK4Poco4UUID8toStringB5cxx11Ev
libPocoFoundation.so.94:_ZNK4Poco5Timer16getStartIntervalEv
libPocoFoundation.so.94:_ZNK4Poco5Timer19getPeriodicIntervalEv
libPocoFoundation.so.94:_ZNK4Poco5Timer7skippedEv
libPocoFoundation.so.94:_ZNK4Poco5Token10tokenClassEv
libPocoFoundation.so.94:_ZNK4Poco5Token11asInteger64Ev
libPocoFoundation.so.94:_ZNK4Poco5Token17asUnsignedIntegerEv
libPocoFoundation.so.94:_ZNK4Poco5Token19asUnsignedInteger64Ev
libPocoFoundation.so.94:_ZNK4Poco5Token6asCharEv
libPocoFoundation.so.94:_ZNK4Poco5Token7asFloatEv
libPocoFoundation.so.94:_ZNK4Poco5Token8asStringB5cxx11Ev
libPocoFoundation.so.94:_ZNK4Poco5Token9asIntegerEv
libPocoFoundation.so.94:_ZNK4Poco6Logger10getChannelEv
libPocoFoundation.so.94:_ZNK4Poco6Thread11getPriorityEv
libPocoFoundation.so.94:_ZNK4Poco7Channel11getPropertyERKNSt7__cxx1112basic_stringIcSt11char_traitsIcESaIcEEE
libPocoFoundation.so.94:_ZNK4Poco7Dynamic11VarIterator11setPositionEm
libPocoFoundation.so.94:_ZNK4Poco7Dynamic11VarIterator9decrementEv
libPocoFoundation.so.94:_ZNK4Poco7Dynamic11VarIterator9incrementEv
libPocoFoundation.so.94:_ZNK4Poco7Dynamic11VarIteratordeEv
libPocoFoundation.so.94:_ZNK4Poco7Dynamic11VarIteratormiEm
libPocoFoundation.so.94:_ZNK4Poco7Dynamic11VarIteratormmEi
libPocoFoundation.so.94:_ZNK4Poco7Dynamic11VarIteratormmEv
libPocoFoundation.so.94:_ZNK4Poco7Dynamic11VarIteratorplEm
libPocoFoundation.so.94:_ZNK4Poco7Dynamic11VarIteratorppEi
libPocoFoundation.so.94:_ZNK4Poco7Dynamic11VarIteratorppEv
libPocoFoundation.so.94:_ZNK4Poco7Dynamic11VarIteratorptEv
libPocoFoundation.so.94:_ZNK4Poco7Dynamic3VaraaERKS1_
libPocoFoundation.so.94:_ZNK4Poco7Dynamic3VardvERKS1_
libPocoFoundation.so.94:_ZNK4Poco7Dynamic3VareqEPKc
libPocoFoundation.so.94:_ZNK4Poco7Dynamic3VareqERKS1_
libPocoFoundation.so.94:_ZNK4Poco7Dynamic3VargeERKS1_
libPocoFoundation.so.94:_ZNK4Poco7Dynamic3VargtERKS1_
libPocoFoundation.so.94:_ZNK4Poco7Dynamic3VarleERKS1_
libPocoFoundation.so.94:_ZNK4Poco7Dynamic3VarltERKS1_
libPocoFoundation.so.94:_ZNK4Poco7Dynamic3VarmiERKS1_
libPocoFoundation.so.94:_ZNK4Poco7Dynamic3VarmlERKS1_
libPocoFoundation.so.94:_ZNK4Poco7Dynamic3VarneEPKc
libPocoFoundation.so.94:_ZNK4Poco7Dynamic3VarneERKS1_
libPocoFoundation.so.94:_ZNK4Poco7Dynamic3VarooERKS1_
libPocoFoundation.so.94:_ZNK4Poco7Dynamic3VarplERKS1_
libPocoFoundation.so.94:_ZNK4Poco7Message3getERKNSt7__cxx1112basic_stringIcSt11char_traitsIcESaIcEEE
libPocoFoundation.so.94:_ZNK4Poco7Message3getERKNSt7__cxx1112basic_stringIcSt11char_traitsIcESaIcEEES8_
libPocoFoundation.so.94:_ZNK4Poco7Message3hasERKNSt7__cxx1112basic_stringIcSt11char_traitsIcESaIcEEE
libPocoFoundation.so.94:_ZNK4Poco7Message6getAllB5cxx11Ev
libPocoFoundation.so.94:_ZNK4Poco7MessageixERKNSt7__cxx1112basic_stringIcSt11char_traitsIcESaIcEEE
libPocoFoundation.so.94:_ZNK4Poco8DateTime4weekEi
libPocoFoundation.so.94:_ZNK4Poco8DateTime6makeTMEv
libPocoFoundation.so.94:_ZNK4Poco8DateTime9dayOfWeekEv
libPocoFoundation.so.94:_ZNK4Poco8DateTime9dayOfYearEv
libPocoFoundation.so.94:_ZNK4Poco8DateTime9julianDayEv
libPocoFoundation.so.94:_ZNK4Poco8DateTimemiERKNS_8TimespanE
libPocoFoundation.so.94:_ZNK4Poco8DateTimemiERKS0_
libPocoFoundation.so.94:_ZNK4Poco8DateTimeplERKNS_8TimespanE
libPocoFoundation.so.94:_ZNK4Poco8EOFToken10tokenClassEv
libPocoFoundation.so.94:_ZNK4Poco8FileImpl10copyToImplERKNSt7__cxx1112basic_stringIcSt11char_traitsIcESaIcEEEi
libPocoFoundation.so.94:_ZNK4Poco8FileImpl10existsImplEv
libPocoFoundation.so.94:_ZNK4Poco8FileImpl10isFileImplEv
libPocoFoundation.so.94:_ZNK4Poco8FileImpl10isLinkImplEv
libPocoFoundation.so.94:_ZNK4Poco8FileImpl10linkToImplERKNSt7__cxx1112basic_stringIcSt11char_traitsIcESaIcEEEi
libPocoFoundation.so.94:_ZNK4Poco8FileImpl11canReadImplEv
libPocoFoundation.so.94:_ZNK4Poco8FileImpl11createdImplEv
libPocoFoundation.so.94:_ZNK4Poco8FileImpl11getSizeImplEv
libPocoFoundation.so.94:_ZNK4Poco8FileImpl12canWriteImplEv
libPocoFoundation.so.94:_ZNK4Poco8FileImpl12isDeviceImplEv
libPocoFoundation.so.94:_ZNK4Poco8FileImpl12isHiddenImplEv
libPocoFoundation.so.94:_ZNK4Poco8FileImpl13freeSpaceImplEv
libPocoFoundation.so.94:_ZNK4Poco8FileImpl14canExecuteImplEv
libPocoFoundation.so.94:_ZNK4Poco8FileImpl14totalSpaceImplEv
libPocoFoundation.so.94:_ZNK4Poco8FileImpl15isDirectoryImplEv
libPocoFoundation.so.94:_ZNK4Poco8FileImpl15usableSpaceImplEv
libPocoFoundation.so.94:_ZNK4Poco8FileImpl19getLastModifiedImplEv
libPocoFoundation.so.94:_ZNK4Poco8PipeImpl10readHandleEv
libPocoFoundation.so.94:_ZNK4Poco8PipeImpl11writeHandleEv
libPocoFoundation.so.94:_ZNK4Poco8TimespanmiERKS0_
libPocoFoundation.so.94:_ZNK4Poco8TimespanmiEl
libPocoFoundation.so.94:_ZNK4Poco8TimespanplERKS0_
libPocoFoundation.so.94:_ZNK4Poco8TimespanplEl
libPocoFoundation.so.94:_ZNK4Poco9Exception11displayTextB5cxx11Ev
libPocoFoundation.so.94:_ZNK4Poco9Exception4nameEv
libPocoFoundation.so.94:_ZNK4Poco9Exception4whatEv
libPocoFoundation.so.94:_ZNK4Poco9Exception5cloneEv
libPocoFoundation.so.94:_ZNK4Poco9Exception7rethrowEv
libPocoFoundation.so.94:_ZNK4Poco9Exception9classNameEv
libPocoFoundation.so.94:_ZNK4Poco9Formatter11getPropertyERKNSt7__cxx1112basic_stringIcSt11char_traitsIcESaIcEEE
libPocoFoundation.so.94:_ZNK4Poco9MD4Engine12digestLengthEv
libPocoFoundation.so.94:_ZNK4Poco9MD5Engine12digestLengthEv
libPocoFoundation.so.94:_ZNK4Poco9Stopwatch7elapsedEv
libPocoFoundation.so.94:_ZNK4Poco9TimestampmiERKNS_8TimespanE
libPocoFoundation.so.94:_ZNK4Poco9TimestampplERKNS_8TimespanE
libPocoFoundation.so.94:_ZThn104_N4Poco13Base32DecoderD0Ev
libPocoFoundation.so.94:_ZThn104_N4Poco13Base32DecoderD1Ev
libPocoFoundation.so.94:_ZThn104_N4Poco13Base32EncoderD0Ev
libPocoFoundation.so.94:_ZThn104_N4Poco13Base32EncoderD1Ev
libPocoFoundation.so.94:_ZThn104_N4Poco15PipeInputStreamD0Ev
libPocoFoundation.so.94:_ZThn104_N4Poco15PipeInputStreamD1Ev
libPocoFoundation.so.94:_ZThn104_N4Poco16HexBinaryEncoderD0Ev
libPocoFoundation.so.94:_ZThn104_N4Poco16HexBinaryEncoderD1Ev
libPocoFoundation.so.94:_ZThn104_N4Poco16PipeOutputStreamD0Ev
libPocoFoundation.so.94:_ZThn104_N4Poco16PipeOutputStreamD1Ev
libPocoFoundation.so.94:_ZThn112_N4Poco13Base64DecoderD0Ev
libPocoFoundation.so.94:_ZThn112_N4Poco13Base64DecoderD1Ev
libPocoFoundation.so.94:_ZThn112_N4Poco14TeeInputStreamD0Ev
libPocoFoundation.so.94:_ZThn112_N4Poco14TeeInputStreamD1Ev
libPocoFoundation.so.94:_ZThn112_N4Poco15TeeOutputStreamD0Ev
libPocoFoundation.so.94:_ZThn112_N4Poco15TeeOutputStreamD1Ev
libPocoFoundation.so.94:_ZThn120_N4Poco13Base64EncoderD0Ev
libPocoFoundation.so.94:_ZThn120_N4Poco13Base64EncoderD1Ev
libPocoFoundation.so.94:_ZThn120_N4Poco16FIFOBufferStreamD0Ev
libPocoFoundation.so.94:_ZThn120_N4Poco16FIFOBufferStreamD1Ev
libPocoFoundation.so.94:_ZThn120_N4Poco17DigestInputStreamD0Ev
libPocoFoundation.so.94:_ZThn120_N4Poco17DigestInputStreamD1Ev
libPocoFoundation.so.94:_ZThn120_N4Poco18DigestOutputStreamD0Ev
libPocoFoundation.so.94:_ZThn120_N4Poco18DigestOutputStreamD1Ev
libPocoFoundation.so.94:_ZThn120_N4Poco19CountingInputStreamD0Ev
libPocoFoundation.so.94:_ZThn120_N4Poco19CountingInputStreamD1Ev
libPocoFoundation.so.94:_ZThn120_N4Poco20CountingOutputStreamD0Ev
libPocoFoundation.so.94:_ZThn120_N4Poco20CountingOutputStreamD1Ev
libPocoFoundation.so.94:_ZThn128_N4Poco9LogStreamD0Ev
libPocoFoundation.so.94:_ZThn128_N4Poco9LogStreamD1Ev
libPocoFoundation.so.94:_ZThn136_N4Poco16FIFOBufferStreamD0Ev
libPocoFoundation.so.94:_ZThn136_N4Poco16FIFOBufferStreamD1Ev
libPocoFoundation.so.94:_ZThn136_N4Poco20InputStreamConverterD0Ev
libPocoFoundation.so.94:_ZThn136_N4Poco20InputStreamConverterD1Ev
libPocoFoundation.so.94:_ZThn136_N4Poco21OutputStreamConverterD0Ev
libPocoFoundation.so.94:_ZThn136_N4Poco21OutputStreamConverterD1Ev
libPocoFoundation.so.94:_ZThn144_N4Poco24InputLineEndingConverterD0Ev
libPocoFoundation.so.94:_ZThn144_N4Poco24InputLineEndingConverterD1Ev
libPocoFoundation.so.94:_ZThn144_N4Poco25OutputLineEndingConverterD0Ev
libPocoFoundation.so.94:_ZThn144_N4Poco25OutputLineEndingConverterD1Ev
libPocoFoundation.so.94:_ZThn160_N4Poco10FileStreamD0Ev
libPocoFoundation.so.94:_ZThn160_N4Poco10FileStreamD1Ev
libPocoFoundation.so.94:_ZThn160_N4Poco15FileInputStreamD0Ev
libPocoFoundation.so.94:_ZThn160_N4Poco15FileInputStreamD1Ev
libPocoFoundation.so.94:_ZThn160_N4Poco16FileOutputStreamD0Ev
libPocoFoundation.so.94:_ZThn160_N4Poco16FileOutputStreamD1Ev
libPocoFoundation.so.94:_ZThn16_N4Poco20DeflatingInputStreamD0Ev
libPocoFoundation.so.94:_ZThn16_N4Poco20DeflatingInputStreamD1Ev
libPocoFoundation.so.94:_ZThn16_N4Poco20InflatingInputStreamD0Ev
libPocoFoundation.so.94:_ZThn16_N4Poco20InflatingInputStreamD1Ev
libPocoFoundation.so.94:_ZThn176_N4Poco10FileStreamD0Ev
libPocoFoundation.so.94:_ZThn176_N4Poco10FileStreamD1Ev
libPocoFoundation.so.94:_ZThn24_N4Poco12AsyncChannel3runEv
libPocoFoundation.so.94:_ZThn24_N4Poco12AsyncChannelD0Ev
libPocoFoundation.so.94:_ZThn24_N4Poco12AsyncChannelD1Ev
libPocoFoundation.so.94:_ZThn64_N4Poco13DataURIStreamD0Ev
libPocoFoundation.so.94:_ZThn64_N4Poco13DataURIStreamD1Ev
libPocoFoundation.so.94:_ZThn80_N4Poco15NullInputStreamD0Ev
libPocoFoundation.so.94:_ZThn80_N4Poco15NullInputStreamD1Ev
libPocoFoundation.so.94:_ZThn80_N4Poco16NullOutputStreamD0Ev
libPocoFoundation.so.94:_ZThn80_N4Poco16NullOutputStreamD1Ev
libPocoFoundation.so.94:_ZThn88_N4Poco16HexBinaryDecoderD0Ev
libPocoFoundation.so.94:_ZThn88_N4Poco16HexBinaryDecoderD1Ev
libPocoFoundation.so.94:_ZThn88_N4Poco17MemoryInputStreamD0Ev
libPocoFoundation.so.94:_ZThn88_N4Poco17MemoryInputStreamD1Ev
libPocoFoundation.so.94:_ZThn88_N4Poco18MemoryOutputStreamD0Ev
libPocoFoundation.so.94:_ZThn88_N4Poco18MemoryOutputStreamD1Ev
libPocoFoundation.so.94:_ZThn8_N4Poco11FileChannelD0Ev
libPocoFoundation.so.94:_ZThn8_N4Poco11FileChannelD1Ev
libPocoFoundation.so.94:_ZThn8_N4Poco11NullChannelD0Ev
libPocoFoundation.so.94:_ZThn8_N4Poco11NullChannelD1Ev
libPocoFoundation.so.94:_ZThn8_N4Poco12AsyncChannelD0Ev
libPocoFoundation.so.94:_ZThn8_N4Poco12AsyncChannelD1Ev
libPocoFoundation.so.94:_ZThn8_N4Poco12EventChannelD0Ev
libPocoFoundation.so.94:_ZThn8_N4Poco12EventChannelD1Ev
libPocoFoundation.so.94:_ZThn8_N4Poco13StreamChannelD0Ev
libPocoFoundation.so.94:_ZThn8_N4Poco13StreamChannelD1Ev
libPocoFoundation.so.94:_ZThn8_N4Poco13SyslogChannelD0Ev
libPocoFoundation.so.94:_ZThn8_N4Poco13SyslogChannelD1Ev
libPocoFoundation.so.94:_ZThn8_N4Poco14ConsoleChannelD0Ev
libPocoFoundation.so.94:_ZThn8_N4Poco14ConsoleChannelD1Ev
libPocoFoundation.so.94:_ZThn8_N4Poco15SplitterChannelD0Ev
libPocoFoundation.so.94:_ZThn8_N4Poco15SplitterChannelD1Ev
libPocoFoundation.so.94:_ZThn8_N4Poco16PatternFormatterD0Ev
libPocoFoundation.so.94:_ZThn8_N4Poco16PatternFormatterD1Ev
libPocoFoundation.so.94:_ZThn8_N4Poco17FormattingChannelD0Ev
libPocoFoundation.so.94:_ZThn8_N4Poco17FormattingChannelD1Ev
libPocoFoundation.so.94:_ZThn8_N4Poco17SimpleFileChannelD0Ev
libPocoFoundation.so.94:_ZThn8_N4Poco17SimpleFileChannelD1Ev
libPocoFoundation.so.94:_ZThn8_N4Poco19ColorConsoleChannelD0Ev
libPocoFoundation.so.94:_ZThn8_N4Poco19ColorConsoleChannelD1Ev
libPocoFoundation.so.94:_ZThn8_N4Poco21DeflatingOutputStreamD0Ev
libPocoFoundation.so.94:_ZThn8_N4Poco21DeflatingOutputStreamD1Ev
libPocoFoundation.so.94:_ZThn8_N4Poco21InflatingOutputStreamD0Ev
libPocoFoundation.so.94:_ZThn8_N4Poco21InflatingOutputStreamD1Ev
libPocoFoundation.so.94:_ZThn8_N4Poco4TaskD0Ev
libPocoFoundation.so.94:_ZThn8_N4Poco4TaskD1Ev
libPocoFoundation.so.94:_ZThn8_N4Poco6LoggerD0Ev
libPocoFoundation.so.94:_ZThn8_N4Poco6LoggerD1Ev
libPocoFoundation.so.94:_ZThn8_N4Poco7ChannelD0Ev
libPocoFoundation.so.94:_ZThn8_N4Poco7ChannelD1Ev
libPocoFoundation.so.94:_ZThn8_N4Poco9FormatterD0Ev
libPocoFoundation.so.94:_ZThn8_N4Poco9FormatterD1Ev
libPocoFoundation.so.94:_ZThn96_N4Poco17RandomInputStreamD0Ev
libPocoFoundation.so.94:_ZThn96_N4Poco17RandomInputStreamD1Ev
libPocoFoundation.so.94:_ZTv0_n24_N4Poco10FileStreamD0Ev
libPocoFoundation.so.94:_ZTv0_n24_N4Poco10FileStreamD1Ev
libPocoFoundation.so.94:_ZTv0_n24_N4Poco11CountingIOSD0Ev
libPocoFoundation.so.94:_ZTv0_n24_N4Poco11CountingIOSD1Ev
libPocoFoundation.so.94:_ZTv0_n24_N4Poco12DeflatingIOSD0Ev
libPocoFoundation.so.94:_ZTv0_n24_N4Poco12DeflatingIOSD1Ev
libPocoFoundation.so.94:_ZTv0_n24_N4Poco12InflatingIOSD0Ev
libPocoFoundation.so.94:_ZTv0_n24_N4Poco12InflatingIOSD1Ev
libPocoFoundation.so.94:_ZTv0_n24_N4Poco13Base32DecoderD0Ev
libPocoFoundation.so.94:_ZTv0_n24_N4Poco13Base32DecoderD1Ev
libPocoFoundation.so.94:_ZTv0_n24_N4Poco13Base32EncoderD0Ev
libPocoFoundation.so.94:_ZTv0_n24_N4Poco13Base32EncoderD1Ev
libPocoFoundation.so.94:_ZTv0_n24_N4Poco13Base64DecoderD0Ev
libPocoFoundation.so.94:_ZTv0_n24_N4Poco13Base64DecoderD1Ev
libPocoFoundation.so.94:_ZTv0_n24_N4Poco13Base64EncoderD0Ev
libPocoFoundation.so.94:_ZTv0_n24_N4Poco13Base64EncoderD1Ev
libPocoFoundation.so.94:_ZTv0_n24_N4Poco13DataURIStreamD0Ev
libPocoFoundation.so.94:_ZTv0_n24_N4Poco13DataURIStreamD1Ev
libPocoFoundation.so.94:_ZTv0_n24_N4Poco14TeeInputStreamD0Ev
libPocoFoundation.so.94:_ZTv0_n24_N4Poco14TeeInputStreamD1Ev
libPocoFoundation.so.94:_ZTv0_n24_N4Poco15FileInputStreamD0Ev
libPocoFoundation.so.94:_ZTv0_n24_N4Poco15FileInputStreamD1Ev
libPocoFoundation.so.94:_ZTv0_n24_N4Poco15NullInputStreamD0Ev
libPocoFoundation.so.94:_ZTv0_n24_N4Poco15NullInputStreamD1Ev
libPocoFoundation.so.94:_ZTv0_n24_N4Poco15PipeInputStreamD0Ev
libPocoFoundation.so.94:_ZTv0_n24_N4Poco15PipeInputStreamD1Ev
libPocoFoundation.so.94:_ZTv0_n24_N4Poco15TeeOutputStreamD0Ev
libPocoFoundation.so.94:_ZTv0_n24_N4Poco15TeeOutputStreamD1Ev
libPocoFoundation.so.94:_ZTv0_n24_N4Poco16Base32DecoderIOSD0Ev
libPocoFoundation.so.94:_ZTv0_n24_N4Poco16Base32DecoderIOSD1Ev
libPocoFoundation.so.94:_ZTv0_n24_N4Poco16Base32EncoderIOSD0Ev
libPocoFoundation.so.94:_ZTv0_n24_N4Poco16Base32EncoderIOSD1Ev
libPocoFoundation.so.94:_ZTv0_n24_N4Poco16Base64DecoderIOSD0Ev
libPocoFoundation.so.94:_ZTv0_n24_N4Poco16Base64DecoderIOSD1Ev
libPocoFoundation.so.94:_ZTv0_n24_N4Poco16Base64EncoderIOSD0Ev
libPocoFoundation.so.94:_ZTv0_n24_N4Poco16Base64EncoderIOSD1Ev
libPocoFoundation.so.94:_ZTv0_n24_N4Poco16DataURIStreamIOSD0Ev
libPocoFoundation.so.94:_ZTv0_n24_N4Poco16DataURIStreamIOSD1Ev
libPocoFoundation.so.94:_ZTv0_n24_N4Poco16FIFOBufferStreamD0Ev
libPocoFoundation.so.94:_ZTv0_n24_N4Poco16FIFOBufferStreamD1Ev
libPocoFoundation.so.94:_ZTv0_n24_N4Poco16FileOutputStreamD0Ev
libPocoFoundation.so.94:_ZTv0_n24_N4Poco16FileOutputStreamD1Ev
libPocoFoundation.so.94:_ZTv0_n24_N4Poco16HexBinaryDecoderD0Ev
libPocoFoundation.so.94:_ZTv0_n24_N4Poco16HexBinaryDecoderD1Ev
libPocoFoundation.so.94:_ZTv0_n24_N4Poco16HexBinaryEncoderD0Ev
libPocoFoundation.so.94:_ZTv0_n24_N4Poco16HexBinaryEncoderD1Ev
libPocoFoundation.so.94:_ZTv0_n24_N4Poco16NullOutputStreamD0Ev
libPocoFoundation.so.94:_ZTv0_n24_N4Poco16NullOutputStreamD1Ev
libPocoFoundation.so.94:_ZTv0_n24_N4Poco16PipeOutputStreamD0Ev
libPocoFoundation.so.94:_ZTv0_n24_N4Poco16PipeOutputStreamD1Ev
libPocoFoundation.so.94:_ZTv0_n24_N4Poco17DigestInputStreamD0Ev
libPocoFoundation.so.94:_ZTv0_n24_N4Poco17DigestInputStreamD1Ev
libPocoFoundation.so.94:_ZTv0_n24_N4Poco17MemoryInputStreamD0Ev
libPocoFoundation.so.94:_ZTv0_n24_N4Poco17MemoryInputStreamD1Ev
libPocoFoundation.so.94:_ZTv0_n24_N4Poco17RandomInputStreamD0Ev
libPocoFoundation.so.94:_ZTv0_n24_N4Poco17RandomInputStreamD1Ev
libPocoFoundation.so.94:_ZTv0_n24_N4Poco18DigestOutputStreamD0Ev
libPocoFoundation.so.94:_ZTv0_n24_N4Poco18DigestOutputStreamD1Ev
libPocoFoundation.so.94:_ZTv0_n24_N4Poco18MemoryOutputStreamD0Ev
libPocoFoundation.so.94:_ZTv0_n24_N4Poco18MemoryOutputStreamD1Ev
libPocoFoundation.so.94:_ZTv0_n24_N4Poco18StreamConverterIOSD0Ev
libPocoFoundation.so.94:_ZTv0_n24_N4Poco18StreamConverterIOSD1Ev
libPocoFoundation.so.94:_ZTv0_n24_N4Poco19CountingInputStreamD0Ev
libPocoFoundation.so.94:_ZTv0_n24_N4Poco19CountingInputStreamD1Ev
libPocoFoundation.so.94:_ZTv0_n24_N4Poco19HexBinaryDecoderIOSD0Ev
libPocoFoundation.so.94:_ZTv0_n24_N4Poco19HexBinaryDecoderIOSD1Ev
libPocoFoundation.so.94:_ZTv0_n24_N4Poco19HexBinaryEncoderIOSD0Ev
libPocoFoundation.so.94:_ZTv0_n24_N4Poco19HexBinaryEncoderIOSD1Ev
libPocoFoundation.so.94:_ZTv0_n24_N4Poco20CountingOutputStreamD0Ev
libPocoFoundation.so.94:_ZTv0_n24_N4Poco20CountingOutputStreamD1Ev
libPocoFoundation.so.94:_ZTv0_n24_N4Poco20DeflatingInputStreamD0Ev
libPocoFoundation.so.94:_ZTv0_n24_N4Poco20DeflatingInputStreamD1Ev
libPocoFoundation.so.94:_ZTv0_n24_N4Poco20InflatingInputStreamD0Ev
libPocoFoundation.so.94:_ZTv0_n24_N4Poco20InflatingInputStreamD1Ev
libPocoFoundation.so.94:_ZTv0_n24_N4Poco20InputStreamConverterD0Ev
libPocoFoundation.so.94:_ZTv0_n24_N4Poco20InputStreamConverterD1Ev
libPocoFoundation.so.94:_ZTv0_n24_N4Poco21DeflatingOutputStreamD0Ev
libPocoFoundation.so.94:_ZTv0_n24_N4Poco21DeflatingOutputStreamD1Ev
libPocoFoundation.so.94:_ZTv0_n24_N4Poco21InflatingOutputStreamD0Ev
libPocoFoundation.so.94:_ZTv0_n24_N4Poco21InflatingOutputStreamD1Ev
libPocoFoundation.so.94:_ZTv0_n24_N4Poco21OutputStreamConverterD0Ev
libPocoFoundation.so.94:_ZTv0_n24_N4Poco21OutputStreamConverterD1Ev
libPocoFoundation.so.94:_ZTv0_n24_N4Poco22LineEndingConverterIOSD0Ev
libPocoFoundation.so.94:_ZTv0_n24_N4Poco22LineEndingConverterIOSD1Ev
libPocoFoundation.so.94:_ZTv0_n24_N4Poco24InputLineEndingConverterD0Ev
libPocoFoundation.so.94:_ZTv0_n24_N4Poco24InputLineEndingConverterD1Ev
libPocoFoundation.so.94:_ZTv0_n24_N4Poco25OutputLineEndingConverterD0Ev
libPocoFoundation.so.94:_ZTv0_n24_N4Poco25OutputLineEndingConverterD1Ev
libPocoFoundation.so.94:_ZTv0_n24_N4Poco6LogIOSD0Ev
libPocoFoundation.so.94:_ZTv0_n24_N4Poco6LogIOSD1Ev
libPocoFoundation.so.94:_ZTv0_n24_N4Poco6TeeIOSD0Ev
libPocoFoundation.so.94:_ZTv0_n24_N4Poco6TeeIOSD1Ev
libPocoFoundation.so.94:_ZTv0_n24_N4Poco7FIFOIOSD0Ev
libPocoFoundation.so.94:_ZTv0_n24_N4Poco7FIFOIOSD1Ev
libPocoFoundation.so.94:_ZTv0_n24_N4Poco7FileIOSD0Ev
libPocoFoundation.so.94:_ZTv0_n24_N4Poco7FileIOSD1Ev
libPocoFoundation.so.94:_ZTv0_n24_N4Poco7NullIOSD0Ev
libPocoFoundation.so.94:_ZTv0_n24_N4Poco7NullIOSD1Ev
libPocoFoundation.so.94:_ZTv0_n24_N4Poco7PipeIOSD0Ev
libPocoFoundation.so.94:_ZTv0_n24_N4Poco7PipeIOSD1Ev
libPocoFoundation.so.94:_ZTv0_n24_N4Poco9DigestIOSD0Ev
libPocoFoundation.so.94:_ZTv0_n24_N4Poco9DigestIOSD1Ev
libPocoFoundation.so.94:_ZTv0_n24_N4Poco9LogStreamD0Ev
libPocoFoundation.so.94:_ZTv0_n24_N4Poco9LogStreamD1Ev
libPocoFoundation.so.94:_ZTv0_n24_N4Poco9MemoryIOSD0Ev
libPocoFoundation.so.94:_ZTv0_n24_N4Poco9MemoryIOSD1Ev
libPocoFoundation.so.94:_ZTv0_n24_N4Poco9RandomIOSD0Ev
libPocoFoundation.so.94:_ZTv0_n24_N4Poco9RandomIOSD1Ev
libPocoFoundation.so.94:_pcre2_OP_lengths_8
libPocoFoundation.so.94:_pcre2_callout_end_delims_8
libPocoFoundation.so.94:_pcre2_callout_start_delims_8
libPocoFoundation.so.94:_pcre2_hspace_list_8
libPocoFoundation.so.94:_pcre2_ucd_boolprop_sets_8
libPocoFoundation.so.94:_pcre2_ucd_caseless_sets_8
libPocoFoundation.so.94:_pcre2_ucd_digit_sets_8
libPocoFoundation.so.94:_pcre2_ucd_records_8
libPocoFoundation.so.94:_pcre2_ucd_script_sets_8
libPocoFoundation.so.94:_pcre2_ucd_stage1_8
libPocoFoundation.so.94:_pcre2_ucd_stage2_8
libPocoFoundation.so.94:_pcre2_ucp_gbtable_8
libPocoFoundation.so.94:_pcre2_ucp_gentype_8
libPocoFoundation.so.94:_pcre2_unicode_version_8
libPocoFoundation.so.94:_pcre2_utf8_table1
libPocoFoundation.so.94:_pcre2_utf8_table1_size
libPocoFoundation.so.94:_pcre2_utf8_table2
libPocoFoundation.so.94:_pcre2_utf8_table3
libPocoFoundation.so.94:_pcre2_utf8_table4
libPocoFoundation.so.94:_pcre2_utt_8
libPocoFoundation.so.94:_pcre2_utt_names_8
libPocoFoundation.so.94:_pcre2_utt_size_8
libPocoFoundation.so.94:_pcre2_vspace_list_8
libPocoJSON.so.94:_ZN4Poco4JSON10ParserImpl10checkErrorEv
libPocoJSON.so.94:_ZN4Poco4JSON10ParserImpl11handleArrayEv
libPocoJSON.so.94:_ZN4Poco4JSON10ParserImpl12handleObjectEv
libPocoJSON.so.94:_ZN4Poco4JSON10ParserImpl13stripCommentsERNSt7__cxx1112basic_stringIcSt11char_traitsIcESaIcEEE
libPocoJSON.so.94:_ZN4Poco4JSON10ParserImpl6handleERKNSt7__cxx1112basic_stringIcSt11char_traitsIcESaIcEEE
libPocoJSON.so.94:_ZN4Poco4JSON10ParserImpl6handleERSi
libPocoJSON.so.94:_ZN4Poco4JSON10ParserImpl6handleEv
libPocoJSON.so.94:_ZN4Poco4JSON10ParserImpl9parseImplERKNSt7__cxx1112basic_stringIcSt11char_traitsIcESaIcEEE
libPocoJSON.so.94:_ZN4Poco4JSON10ParserImpl9parseImplERSi
libPocoJSON.so.94:_ZN4Poco4JSON10ParserImplC1ERKNS_9SharedPtrINS0_7HandlerENS_16ReferenceCounterENS_13ReleasePolicyIS3_EEEE
libPocoJSON.so.94:_ZN4Poco4JSON10ParserImplC2ERKNS_9SharedPtrINS0_7HandlerENS_16ReferenceCounterENS_13ReleasePolicyIS3_EEEE
libPocoJSON.so.94:_ZN4Poco4JSON10ParserImplD0Ev
libPocoJSON.so.94:_ZN4Poco4JSON10ParserImplD1Ev
libPocoJSON.so.94:_ZN4Poco4JSON10ParserImplD2Ev
libPocoJSON.so.94:_ZN4Poco4JSON11Stringifier12formatStringERKNSt7__cxx1112basic_stringIcSt11char_traitsIcESaIcEEERSoi
libPocoJSON.so.94:_ZN4Poco4JSON11Stringifier9stringifyERKNS_7Dynamic3VarERSojii
libPocoJSON.so.94:_ZN4Poco4JSON12ParseHandler10startArrayEv
libPocoJSON.so.94:_ZN4Poco4JSON12ParseHandler11startObjectEv
libPocoJSON.so.94:_ZN4Poco4JSON12ParseHandler3keyERKNSt7__cxx1112basic_stringIcSt11char_traitsIcESaIcEEE
libPocoJSON.so.94:_ZN4Poco4JSON12ParseHandler5resetEv
libPocoJSON.so.94:_ZN4Poco4JSON12ParseHandler8endArrayEv
libPocoJSON.so.94:_ZN4Poco4JSON12ParseHandler8setValueERKNS_7Dynamic3VarE
libPocoJSON.so.94:_ZN4Poco4JSON12ParseHandler9endObjectEv
libPocoJSON.so.94:_ZN4Poco4JSON12ParseHandlerC1Eb
libPocoJSON.so.94:_ZN4Poco4JSON12ParseHandlerC2Eb
libPocoJSON.so.94:_ZN4Poco4JSON12ParseHandlerD0Ev
libPocoJSON.so.94:_ZN4Poco4JSON12ParseHandlerD1Ev
libPocoJSON.so.94:_ZN4Poco4JSON12ParseHandlerD2Ev
libPocoJSON.so.94:_ZN4Poco4JSON12PrintHandler10arrayValueEv
libPocoJSON.so.94:_ZN4Poco4JSON12PrintHandler10startArrayEv
libPocoJSON.so.94:_ZN4Poco4JSON12PrintHandler11startObjectEv
libPocoJSON.so.94:_ZN4Poco4JSON12PrintHandler3keyERKNSt7__cxx1112basic_stringIcSt11char_traitsIcESaIcEEE
libPocoJSON.so.94:_ZN4Poco4JSON12PrintHandler4nullEv
libPocoJSON.so.94:_ZN4Poco4JSON12PrintHandler5commaEv
libPocoJSON.so.94:_ZN4Poco4JSON12PrintHandler5resetEv
libPocoJSON.so.94:_ZN4Poco4JSON12PrintHandler5valueERKNSt7__cxx1112basic_stringIcSt11char_traitsIcESaIcEEE
libPocoJSON.so.94:_ZN4Poco4JSON12PrintHandler5valueEb
libPocoJSON.so.94:_ZN4Poco4JSON12PrintHandler5valueEd
libPocoJSON.so.94:_ZN4Poco4JSON12PrintHandler5valueEi
libPocoJSON.so.94:_ZN4Poco4JSON12PrintHandler5valueEj
libPocoJSON.so.94:_ZN4Poco4JSON12PrintHandler5valueEl
libPocoJSON.so.94:_ZN4Poco4JSON12PrintHandler5valueEm
libPocoJSON.so.94:_ZN4Poco4JSON12PrintHandler6indentEv
libPocoJSON.so.94:_ZN4Poco4JSON12PrintHandler8endArrayEv
libPocoJSON.so.94:_ZN4Poco4JSON12PrintHandler9endObjectEv
libPocoJSON.so.94:_ZN4Poco4JSON12PrintHandlerC1ERSoji
libPocoJSON.so.94:_ZN4Poco4JSON12PrintHandlerC1Eji
libPocoJSON.so.94:_ZN4Poco4JSON12PrintHandlerC2ERSoji
libPocoJSON.so.94:_ZN4Poco4JSON12PrintHandlerC2Eji
libPocoJSON.so.94:_ZN4Poco4JSON12PrintHandlerD0Ev
libPocoJSON.so.94:_ZN4Poco4JSON12PrintHandlerD1Ev
libPocoJSON.so.94:_ZN4Poco4JSON12PrintHandlerD2Ev
libPocoJSON.so.94:_ZN4Poco4JSON13JSONExceptionC1ERKNSt7__cxx1112basic_stringIcSt11char_traitsIcESaIcEEERKNS_9ExceptionEi
libPocoJSON.so.94:_ZN4Poco4JSON13JSONExceptionC1ERKNSt7__cxx1112basic_stringIcSt11char_traitsIcESaIcEEES9_i
libPocoJSON.so.94:_ZN4Poco4JSON13JSONExceptionC1ERKNSt7__cxx1112basic_stringIcSt11char_traitsIcESaIcEEEi
libPocoJSON.so.94:_ZN4Poco4JSON13JSONExceptionC1ERKS1_
libPocoJSON.so.94:_ZN4Poco4JSON13JSONExceptionC1Ei
libPocoJSON.so.94:_ZN4Poco4JSON13JSONExceptionC2ERKNSt7__cxx1112basic_stringIcSt11char_traitsIcESaIcEEERKNS_9ExceptionEi
libPocoJSON.so.94:_ZN4Poco4JSON13JSONExceptionC2ERKNSt7__cxx1112basic_stringIcSt11char_traitsIcESaIcEEES9_i
libPocoJSON.so.94:_ZN4Poco4JSON13JSONExceptionC2ERKNSt7__cxx1112basic_stringIcSt11char_traitsIcESaIcEEEi
libPocoJSON.so.94:_ZN4Poco4JSON13JSONExceptionC2ERKS1_
libPocoJSON.so.94:_ZN4Poco4JSON13JSONExceptionC2Ei
libPocoJSON.so.94:_ZN4Poco4JSON13JSONExceptionD0Ev
libPocoJSON.so.94:_ZN4Poco4JSON13JSONExceptionD1Ev
libPocoJSON.so.94:_ZN4Poco4JSON13JSONExceptionD2Ev
libPocoJSON.so.94:_ZN4Poco4JSON13JSONExceptionaSERKS1_
libPocoJSON.so.94:_ZN4Poco4JSON13TemplateCache10_pInstanceE
libPocoJSON.so.94:_ZN4Poco4JSON13TemplateCache11getTemplateERKNS_4PathE
libPocoJSON.so.94:_ZN4Poco4JSON13TemplateCache5setupEv
libPocoJSON.so.94:_ZN4Poco4JSON13TemplateCacheC1Ev
libPocoJSON.so.94:_ZN4Poco4JSON13TemplateCacheC2Ev
libPocoJSON.so.94:_ZN4Poco4JSON13TemplateCacheD0Ev
libPocoJSON.so.94:_ZN4Poco4JSON13TemplateCacheD1Ev
libPocoJSON.so.94:_ZN4Poco4JSON13TemplateCacheD2Ev
libPocoJSON.so.94:_ZN4Poco4JSON21JSONTemplateExceptionC1ERKNSt7__cxx1112basic_stringIcSt11char_traitsIcESaIcEEERKNS_9ExceptionEi
libPocoJSON.so.94:_ZN4Poco4JSON21JSONTemplateExceptionC1ERKNSt7__cxx1112basic_stringIcSt11char_traitsIcESaIcEEES9_i
libPocoJSON.so.94:_ZN4Poco4JSON21JSONTemplateExceptionC1ERKNSt7__cxx1112basic_stringIcSt11char_traitsIcESaIcEEEi
libPocoJSON.so.94:_ZN4Poco4JSON21JSONTemplateExceptionC1ERKS1_
libPocoJSON.so.94:_ZN4Poco4JSON21JSONTemplateExceptionC1Ei
libPocoJSON.so.94:_ZN4Poco4JSON21JSONTemplateExceptionC2ERKNSt7__cxx1112basic_stringIcSt11char_traitsIcESaIcEEERKNS_9ExceptionEi
libPocoJSON.so.94:_ZN4Poco4JSON21JSONTemplateExceptionC2ERKNSt7__cxx1112basic_stringIcSt11char_traitsIcESaIcEEES9_i
libPocoJSON.so.94:_ZN4Poco4JSON21JSONTemplateExceptionC2ERKNSt7__cxx1112basic_stringIcSt11char_traitsIcESaIcEEEi
libPocoJSON.so.94:_ZN4Poco4JSON21JSONTemplateExceptionC2ERKS1_
libPocoJSON.so.94:_ZN4Poco4JSON21JSONTemplateExceptionC2Ei
libPocoJSON.so.94:_ZN4Poco4JSON21JSONTemplateExceptionD0Ev
libPocoJSON.so.94:_ZN4Poco4JSON21JSONTemplateExceptionD1Ev
libPocoJSON.so.94:_ZN4Poco4JSON21JSONTemplateExceptionD2Ev
libPocoJSON.so.94:_ZN4Poco4JSON21JSONTemplateExceptionaSERKS1_
libPocoJSON.so.94:_ZN4Poco4JSON5Array5clearEv
libPocoJSON.so.94:_ZN4Poco4JSON5Array9makeArrayERKNS_9SharedPtrIS1_NS_16ReferenceCounterENS_13ReleasePolicyIS1_EEEE
libPocoJSON.so.94:_ZN4Poco4JSON5ArrayC1EOS1_
libPocoJSON.so.94:_ZN4Poco4JSON5ArrayC1ERKS1_
libPocoJSON.so.94:_ZN4Poco4JSON5ArrayC1Ei
libPocoJSON.so.94:_ZN4Poco4JSON5ArrayC2EOS1_
libPocoJSON.so.94:_ZN4Poco4JSON5ArrayC2ERKS1_
libPocoJSON.so.94:_ZN4Poco4JSON5ArrayC2Ei
libPocoJSON.so.94:_ZN4Poco4JSON5ArrayD1Ev
libPocoJSON.so.94:_ZN4Poco4JSON5ArrayD2Ev
libPocoJSON.so.94:_ZN4Poco4JSON5ArrayaSEOS1_
libPocoJSON.so.94:_ZN4Poco4JSON5ArrayaSERKS1_
libPocoJSON.so.94:_ZN4Poco4JSON5QueryC1ERKNS_7Dynamic3VarE
libPocoJSON.so.94:_ZN4Poco4JSON5QueryC2ERKNS_7Dynamic3VarE
libPocoJSON.so.94:_ZN4Poco4JSON5QueryD0Ev
libPocoJSON.so.94:_ZN4Poco4JSON5QueryD1Ev
libPocoJSON.so.94:_ZN4Poco4JSON5QueryD2Ev
libPocoJSON.so.94:_ZN4Poco4JSON6Object10makeStructB5cxx11ERKNS_9SharedPtrIS1_NS_16ReferenceCounterENS_13ReleasePolicyIS1_EEEE
libPocoJSON.so.94:_ZN4Poco4JSON6Object17makeOrderedStructB5cxx11ERKNS_9SharedPtrIS1_NS_16ReferenceCounterENS_13ReleasePolicyIS1_EEEE
libPocoJSON.so.94:_ZN4Poco4JSON6Object3setERKNSt7__cxx1112basic_stringIcSt11char_traitsIcESaIcEEERKNS_7Dynamic3VarE
libPocoJSON.so.94:_ZN4Poco4JSON6Object5clearEv
libPocoJSON.so.94:_ZN4Poco4JSON6Object8syncKeysERKSt5dequeISt23_Rb_tree_const_iteratorISt4pairIKNSt7__cxx1112basic_stringIcSt11char_traitsIcESaIcEEENS_7Dynamic3VarEEESaISF_EE
libPocoJSON.so.94:_ZN4Poco4JSON6ObjectC1EOS1_
libPocoJSON.so.94:_ZN4Poco4JSON6ObjectC1ERKS1_
libPocoJSON.so.94:_ZN4Poco4JSON6ObjectC1Ei
libPocoJSON.so.94:_ZN4Poco4JSON6ObjectC2EOS1_
libPocoJSON.so.94:_ZN4Poco4JSON6ObjectC2ERKS1_
libPocoJSON.so.94:_ZN4Poco4JSON6ObjectC2Ei
libPocoJSON.so.94:_ZN4Poco4JSON6ObjectD1Ev
libPocoJSON.so.94:_ZN4Poco4JSON6ObjectD2Ev
libPocoJSON.so.94:_ZN4Poco4JSON6ObjectaSEOS1_
libPocoJSON.so.94:_ZN4Poco4JSON6ObjectaSERKS1_
libPocoJSON.so.94:_ZN4Poco4JSON6Parser10setHandlerERKNS_9SharedPtrINS0_7HandlerENS_16ReferenceCounterENS_13ReleasePolicyIS3_EEEE
libPocoJSON.so.94:_ZN4Poco4JSON6ParserC1ERKNS_9SharedPtrINS0_7HandlerENS_16ReferenceCounterENS_13ReleasePolicyIS3_EEEE
libPocoJSON.so.94:_ZN4Poco4JSON6ParserC2ERKNS_9SharedPtrINS0_7HandlerENS_16ReferenceCounterENS_13ReleasePolicyIS3_EEEE
libPocoJSON.so.94:_ZN4Poco4JSON6ParserD0Ev
libPocoJSON.so.94:_ZN4Poco4JSON6ParserD1Ev
libPocoJSON.so.94:_ZN4Poco4JSON6ParserD2Ev
libPocoJSON.so.94:_ZN4Poco4JSON7HandlerC1Ev
libPocoJSON.so.94:_ZN4Poco4JSON7HandlerC2Ev
libPocoJSON.so.94:_ZN4Poco4JSON7HandlerD0Ev
libPocoJSON.so.94:_ZN4Poco4JSON7HandlerD1Ev
libPocoJSON.so.94:_ZN4Poco4JSON7HandlerD2Ev
libPocoJSON.so.94:_ZN4Poco4JSON8Template10readStringB5cxx11ERSi
libPocoJSON.so.94:_ZN4Poco4JSON8Template14readWhiteSpaceERSi
libPocoJSON.so.94:_ZN4Poco4JSON8Template19readTemplateCommandB5cxx11ERSi
libPocoJSON.so.94:_ZN4Poco4JSON8Template5parseERSi
libPocoJSON.so.94:_ZN4Poco4JSON8Template5parseEv
libPocoJSON.so.94:_ZN4Poco4JSON8Template8readTextB5cxx11ERSi
libPocoJSON.so.94:_ZN4Poco4JSON8Template8readWordB5cxx11ERSi
libPocoJSON.so.94:_ZN4Poco4JSON8Template9readQueryB5cxx11ERSi
libPocoJSON.so.94:_ZN4Poco4JSON8TemplateC1ERKNS_4PathE
libPocoJSON.so.94:_ZN4Poco4JSON8TemplateC1Ev
libPocoJSON.so.94:_ZN4Poco4JSON8TemplateC2ERKNS_4PathE
libPocoJSON.so.94:_ZN4Poco4JSON8TemplateC2Ev
libPocoJSON.so.94:_ZN4Poco4JSON8TemplateD0Ev
libPocoJSON.so.94:_ZN4Poco4JSON8TemplateD1Ev
libPocoJSON.so.94:_ZN4Poco4JSON8TemplateD2Ev
libPocoJSON.so.94:_ZNK4Poco4JSON12PrintHandler7endLineEv
libPocoJSON.so.94:_ZNK4Poco4JSON12PrintHandler9printFlatEv
libPocoJSON.so.94:_ZNK4Poco4JSON13JSONException4nameEv
libPocoJSON.so.94:_ZNK4Poco4JSON13JSONException5cloneEv
libPocoJSON.so.94:_ZNK4Poco4JSON13JSONException7rethrowEv
libPocoJSON.so.94:_ZNK4Poco4JSON13JSONException9classNameEv
libPocoJSON.so.94:_ZNK4Poco4JSON13TemplateCache11resolvePathERKNS_4PathE
libPocoJSON.so.94:_ZNK4Poco4JSON21JSONTemplateException4nameEv
libPocoJSON.so.94:_ZNK4Poco4JSON21JSONTemplateException5cloneEv
libPocoJSON.so.94:_ZNK4Poco4JSON21JSONTemplateException7rethrowEv
libPocoJSON.so.94:_ZNK4Poco4JSON21JSONTemplateException9classNameEv
libPocoJSON.so.94:_ZNK4Poco4JSON5Array13resetDynArrayEv
libPocoJSON.so.94:_ZNK4Poco4JSON5Array3getEj
libPocoJSON.so.94:_ZNK4Poco4JSON5Array6isNullEj
libPocoJSON.so.94:_ZNK4Poco4JSON5Array8getArrayEj
libPocoJSON.so.94:_ZNK4Poco4JSON5Array8isObjectERKNS_7Dynamic3VarE
libPocoJSON.so.94:_ZNK4Poco4JSON5Array8isObjectERN9__gnu_cxx17__normal_iteratorIPKNS_7Dynamic3VarESt6vectorIS5_SaIS5_EEEE
libPocoJSON.so.94:_ZNK4Poco4JSON5Array8isObjectEj
libPocoJSON.so.94:_ZNK4Poco4JSON5Array9getObjectEj
libPocoJSON.so.94:_ZNK4Poco4JSON5Array9stringifyERSoji
libPocoJSON.so.94:_ZNK4Poco4JSON5ArraycvRKSt6vectorINS_7Dynamic3VarESaIS4_EEEv
libPocoJSON.so.94:_ZNK4Poco4JSON5Query10findObjectERKNSt7__cxx1112basic_stringIcSt11char_traitsIcESaIcEEE
libPocoJSON.so.94:_ZNK4Poco4JSON5Query10findObjectERKNSt7__cxx1112basic_stringIcSt11char_traitsIcESaIcEEERNS0_6ObjectE
libPocoJSON.so.94:_ZNK4Poco4JSON5Query4findERKNSt7__cxx1112basic_stringIcSt11char_traitsIcESaIcEEE
libPocoJSON.so.94:_ZNK4Poco4JSON5Query9findArrayERKNSt7__cxx1112basic_stringIcSt11char_traitsIcESaIcEEE
libPocoJSON.so.94:_ZNK4Poco4JSON5Query9findArrayERKNSt7__cxx1112basic_stringIcSt11char_traitsIcESaIcEEERNS0_5ArrayE
libPocoJSON.so.94:_ZNK4Poco4JSON6Object3getERKNSt7__cxx1112basic_stringIcSt11char_traitsIcESaIcEEE
libPocoJSON.so.94:_ZNK4Poco4JSON6Object6getKeyERSt15_Deque_iteratorISt23_Rb_tree_const_iteratorISt4pairIKNSt7__cxx1112basic_stringIcSt11char_traitsIcESaIcEEENS_7Dynamic3VarEEERKSF_PSG_E
libPocoJSON.so.94:_ZNK4Poco4JSON6Object8getArrayERKNSt7__cxx1112basic_stringIcSt11char_traitsIcESaIcEEE
libPocoJSON.so.94:_ZNK4Poco4JSON6Object8getNamesB5cxx11Ev
libPocoJSON.so.94:_ZNK4Poco4JSON6Object8getNamesERSt6vectorINSt7__cxx1112basic_stringIcSt11char_traitsIcESaIcEEESaIS8_EE
libPocoJSON.so.94:_ZNK4Poco4JSON6Object9getObjectERKNSt7__cxx1112basic_stringIcSt11char_traitsIcESaIcEEE
libPocoJSON.so.94:_ZNK4Poco4JSON6Object9stringifyERSoji
libPocoJSON.so.94:_ZNK4Poco4JSON6ObjectcvRKNS_7Dynamic6StructINSt7__cxx1112basic_stringIcSt11char_traitsIcESaIcEEEN3tsl11ordered_mapIS9_NS2_3VarESt4hashIS9_ESt8equal_toIS9_ESaISt4pairIS9_SC_EESt5dequeISI_SJ_EEENSA_11ordered_setIS9_SE_SG_SaIS9_ESK_IS9_SO_EEEEEEv
libPocoJSON.so.94:_ZNK4Poco4JSON6ObjectcvRKNS_7Dynamic6StructINSt7__cxx1112basic_stringIcSt11char_traitsIcESaIcEEESt3mapIS9_NS2_3VarESt4lessIS9_ESaISt4pairIKS9_SB_EEESt3setIS9_SD_SaIS9_EEEEEv
libPocoJSON.so.94:_ZNK4Poco4JSON7Handler5asVarEv
libPocoJSON.so.94:_ZNK4Poco4JSON7Handler8asStructB5cxx11Ev
libPocoJSON.so.94:_ZNK4Poco4JSON8Template6renderERKNS_7Dynamic3VarERSo
libPocoJSON.so.94:json_close
libPocoJSON.so.94:json_get_context
libPocoJSON.so.94:json_get_depth
libPocoJSON.so.94:json_get_error
libPocoJSON.so.94:json_get_lineno
libPocoJSON.so.94:json_get_number
libPocoJSON.so.94:json_get_position
libPocoJSON.so.94:json_get_string
libPocoJSON.so.94:json_isspace
libPocoJSON.so.94:json_next
libPocoJSON.so.94:json_open_buffer
libPocoJSON.so.94:json_open_stream
libPocoJSON.so.94:json_open_string
libPocoJSON.so.94:json_open_user
libPocoJSON.so.94:json_peek
libPocoJSON.so.94:json_reset
libPocoJSON.so.94:json_set_allocator
libPocoJSON.so.94:json_set_streaming
libPocoJSON.so.94:json_skip
libPocoJSON.so.94:json_skip_until
libPocoJSON.so.94:json_source_get
libPocoJSON.so.94:json_source_peek
libPocoJWT.so.94:_ZN4Poco3JWT10Serializer11deserializeERKNSt7__cxx1112basic_stringIcSt11char_traitsIcESaIcEEE
libPocoJWT.so.94:_ZN4Poco3JWT10Serializer11deserializeERSi
libPocoJWT.so.94:_ZN4Poco3JWT10Serializer5splitERKNSt7__cxx1112basic_stringIcSt11char_traitsIcESaIcEEE
libPocoJWT.so.94:_ZN4Poco3JWT10Serializer9serializeB5cxx11ERKNS_4JSON6ObjectE
libPocoJWT.so.94:_ZN4Poco3JWT10Serializer9serializeERKNS_4JSON6ObjectERSo
libPocoJWT.so.94:_ZN4Poco3JWT12JWTExceptionC1ERKNSt7__cxx1112basic_stringIcSt11char_traitsIcESaIcEEERKNS_9ExceptionEi
libPocoJWT.so.94:_ZN4Poco3JWT12JWTExceptionC1ERKNSt7__cxx1112basic_stringIcSt11char_traitsIcESaIcEEES9_i
libPocoJWT.so.94:_ZN4Poco3JWT12JWTExceptionC1ERKNSt7__cxx1112basic_stringIcSt11char_traitsIcESaIcEEEi
libPocoJWT.so.94:_ZN4Poco3JWT12JWTExceptionC1ERKS1_
libPocoJWT.so.94:_ZN4Poco3JWT12JWTExceptionC1Ei
libPocoJWT.so.94:_ZN4Poco3JWT12JWTExceptionC2ERKNSt7__cxx1112basic_stringIcSt11char_traitsIcESaIcEEERKNS_9ExceptionEi
libPocoJWT.so.94:_ZN4Poco3JWT12JWTExceptionC2ERKNSt7__cxx1112basic_stringIcSt11char_traitsIcESaIcEEES9_i
libPocoJWT.so.94:_ZN4Poco3JWT12JWTExceptionC2ERKNSt7__cxx1112basic_stringIcSt11char_traitsIcESaIcEEEi
libPocoJWT.so.94:_ZN4Poco3JWT12JWTExceptionC2ERKS1_
libPocoJWT.so.94:_ZN4Poco3JWT12JWTExceptionC2Ei
libPocoJWT.so.94:_ZN4Poco3JWT12JWTExceptionD0Ev
libPocoJWT.so.94:_ZN4Poco3JWT12JWTExceptionD1Ev
libPocoJWT.so.94:_ZN4Poco3JWT12JWTExceptionD2Ev
libPocoJWT.so.94:_ZN4Poco3JWT12JWTExceptionaSERKS1_
libPocoJWT.so.94:_ZN4Poco3JWT14ParseExceptionC1ERKNSt7__cxx1112basic_stringIcSt11char_traitsIcESaIcEEERKNS_9ExceptionEi
libPocoJWT.so.94:_ZN4Poco3JWT14ParseExceptionC1ERKNSt7__cxx1112basic_stringIcSt11char_traitsIcESaIcEEES9_i
libPocoJWT.so.94:_ZN4Poco3JWT14ParseExceptionC1ERKNSt7__cxx1112basic_stringIcSt11char_traitsIcESaIcEEEi
libPocoJWT.so.94:_ZN4Poco3JWT14ParseExceptionC1ERKS1_
libPocoJWT.so.94:_ZN4Poco3JWT14ParseExceptionC1Ei
libPocoJWT.so.94:_ZN4Poco3JWT14ParseExceptionC2ERKNSt7__cxx1112basic_stringIcSt11char_traitsIcESaIcEEERKNS_9ExceptionEi
libPocoJWT.so.94:_ZN4Poco3JWT14ParseExceptionC2ERKNSt7__cxx1112basic_stringIcSt11char_traitsIcESaIcEEES9_i
libPocoJWT.so.94:_ZN4Poco3JWT14ParseExceptionC2ERKNSt7__cxx1112basic_stringIcSt11char_traitsIcESaIcEEEi
libPocoJWT.so.94:_ZN4Poco3JWT14ParseExceptionC2ERKS1_
libPocoJWT.so.94:_ZN4Poco3JWT14ParseExceptionC2Ei
libPocoJWT.so.94:_ZN4Poco3JWT14ParseExceptionD0Ev
libPocoJWT.so.94:_ZN4Poco3JWT14ParseExceptionD1Ev
libPocoJWT.so.94:_ZN4Poco3JWT14ParseExceptionD2Ev
libPocoJWT.so.94:_ZN4Poco3JWT14ParseExceptionaSERKS1_
libPocoJWT.so.94:_ZN4Poco3JWT18SignatureExceptionC1ERKNSt7__cxx1112basic_stringIcSt11char_traitsIcESaIcEEERKNS_9ExceptionEi
libPocoJWT.so.94:_ZN4Poco3JWT18SignatureExceptionC1ERKNSt7__cxx1112basic_stringIcSt11char_traitsIcESaIcEEES9_i
libPocoJWT.so.94:_ZN4Poco3JWT18SignatureExceptionC1ERKNSt7__cxx1112basic_stringIcSt11char_traitsIcESaIcEEEi
libPocoJWT.so.94:_ZN4Poco3JWT18SignatureExceptionC1ERKS1_
libPocoJWT.so.94:_ZN4Poco3JWT18SignatureExceptionC1Ei
libPocoJWT.so.94:_ZN4Poco3JWT18SignatureExceptionC2ERKNSt7__cxx1112basic_stringIcSt11char_traitsIcESaIcEEERKNS_9ExceptionEi
libPocoJWT.so.94:_ZN4Poco3JWT18SignatureExceptionC2ERKNSt7__cxx1112basic_stringIcSt11char_traitsIcESaIcEEES9_i
libPocoJWT.so.94:_ZN4Poco3JWT18SignatureExceptionC2ERKNSt7__cxx1112basic_stringIcSt11char_traitsIcESaIcEEEi
libPocoJWT.so.94:_ZN4Poco3JWT18SignatureExceptionC2ERKS1_
libPocoJWT.so.94:_ZN4Poco3JWT18SignatureExceptionC2Ei
libPocoJWT.so.94:_ZN4Poco3JWT18SignatureExceptionD0Ev
libPocoJWT.so.94:_ZN4Poco3JWT18SignatureExceptionD1Ev
libPocoJWT.so.94:_ZN4Poco3JWT18SignatureExceptionD2Ev
libPocoJWT.so.94:_ZN4Poco3JWT18SignatureExceptionaSERKS1_
libPocoJWT.so.94:_ZN4Poco3JWT27UnallowedAlgorithmExceptionC1ERKNSt7__cxx1112basic_stringIcSt11char_traitsIcESaIcEEERKNS_9ExceptionEi
libPocoJWT.so.94:_ZN4Poco3JWT27UnallowedAlgorithmExceptionC1ERKNSt7__cxx1112basic_stringIcSt11char_traitsIcESaIcEEES9_i
libPocoJWT.so.94:_ZN4Poco3JWT27UnallowedAlgorithmExceptionC1ERKNSt7__cxx1112basic_stringIcSt11char_traitsIcESaIcEEEi
libPocoJWT.so.94:_ZN4Poco3JWT27UnallowedAlgorithmExceptionC1ERKS1_
libPocoJWT.so.94:_ZN4Poco3JWT27UnallowedAlgorithmExceptionC1Ei
libPocoJWT.so.94:_ZN4Poco3JWT27UnallowedAlgorithmExceptionC2ERKNSt7__cxx1112basic_stringIcSt11char_traitsIcESaIcEEERKNS_9ExceptionEi
libPocoJWT.so.94:_ZN4Poco3JWT27UnallowedAlgorithmExceptionC2ERKNSt7__cxx1112basic_stringIcSt11char_traitsIcESaIcEEES9_i
libPocoJWT.so.94:_ZN4Poco3JWT27UnallowedAlgorithmExceptionC2ERKNSt7__cxx1112basic_stringIcSt11char_traitsIcESaIcEEEi
libPocoJWT.so.94:_ZN4Poco3JWT27UnallowedAlgorithmExceptionC2ERKS1_
libPocoJWT.so.94:_ZN4Poco3JWT27UnallowedAlgorithmExceptionC2Ei
libPocoJWT.so.94:_ZN4Poco3JWT27UnallowedAlgorithmExceptionD0Ev
libPocoJWT.so.94:_ZN4Poco3JWT27UnallowedAlgorithmExceptionD1Ev
libPocoJWT.so.94:_ZN4Poco3JWT27UnallowedAlgorithmExceptionD2Ev
libPocoJWT.so.94:_ZN4Poco3JWT27UnallowedAlgorithmExceptionaSERKS1_
libPocoJWT.so.94:_ZN4Poco3JWT28SignatureGenerationExceptionC1ERKNSt7__cxx1112basic_stringIcSt11char_traitsIcESaIcEEERKNS_9ExceptionEi
libPocoJWT.so.94:_ZN4Poco3JWT28SignatureGenerationExceptionC1ERKNSt7__cxx1112basic_stringIcSt11char_traitsIcESaIcEEES9_i
libPocoJWT.so.94:_ZN4Poco3JWT28SignatureGenerationExceptionC1ERKNSt7__cxx1112basic_stringIcSt11char_traitsIcESaIcEEEi
libPocoJWT.so.94:_ZN4Poco3JWT28SignatureGenerationExceptionC1ERKS1_
libPocoJWT.so.94:_ZN4Poco3JWT28SignatureGenerationExceptionC1Ei
libPocoJWT.so.94:_ZN4Poco3JWT28SignatureGenerationExceptionC2ERKNSt7__cxx1112basic_stringIcSt11char_traitsIcESaIcEEERKNS_9ExceptionEi
libPocoJWT.so.94:_ZN4Poco3JWT28SignatureGenerationExceptionC2ERKNSt7__cxx1112basic_stringIcSt11char_traitsIcESaIcEEES9_i
libPocoJWT.so.94:_ZN4Poco3JWT28SignatureGenerationExceptionC2ERKNSt7__cxx1112basic_stringIcSt11char_traitsIcESaIcEEEi
libPocoJWT.so.94:_ZN4Poco3JWT28SignatureGenerationExceptionC2ERKS1_
libPocoJWT.so.94:_ZN4Poco3JWT28SignatureGenerationExceptionC2Ei
libPocoJWT.so.94:_ZN4Poco3JWT28SignatureGenerationExceptionD0Ev
libPocoJWT.so.94:_ZN4Poco3JWT28SignatureGenerationExceptionD1Ev
libPocoJWT.so.94:_ZN4Poco3JWT28SignatureGenerationExceptionD2Ev
libPocoJWT.so.94:_ZN4Poco3JWT28SignatureGenerationExceptionaSERKS1_
libPocoJWT.so.94:_ZN4Poco3JWT29UnsupportedAlgorithmExceptionC1ERKNSt7__cxx1112basic_stringIcSt11char_traitsIcESaIcEEERKNS_9ExceptionEi
libPocoJWT.so.94:_ZN4Poco3JWT29UnsupportedAlgorithmExceptionC1ERKNSt7__cxx1112basic_stringIcSt11char_traitsIcESaIcEEES9_i
libPocoJWT.so.94:_ZN4Poco3JWT29UnsupportedAlgorithmExceptionC1ERKNSt7__cxx1112basic_stringIcSt11char_traitsIcESaIcEEEi
libPocoJWT.so.94:_ZN4Poco3JWT29UnsupportedAlgorithmExceptionC1ERKS1_
libPocoJWT.so.94:_ZN4Poco3JWT29UnsupportedAlgorithmExceptionC1Ei
libPocoJWT.so.94:_ZN4Poco3JWT29UnsupportedAlgorithmExceptionC2ERKNSt7__cxx1112basic_stringIcSt11char_traitsIcESaIcEEERKNS_9ExceptionEi
libPocoJWT.so.94:_ZN4Poco3JWT29UnsupportedAlgorithmExceptionC2ERKNSt7__cxx1112basic_stringIcSt11char_traitsIcESaIcEEES9_i
libPocoJWT.so.94:_ZN4Poco3JWT29UnsupportedAlgorithmExceptionC2ERKNSt7__cxx1112basic_stringIcSt11char_traitsIcESaIcEEEi
libPocoJWT.so.94:_ZN4Poco3JWT29UnsupportedAlgorithmExceptionC2ERKS1_
libPocoJWT.so.94:_ZN4Poco3JWT29UnsupportedAlgorithmExceptionC2Ei
libPocoJWT.so.94:_ZN4Poco3JWT29UnsupportedAlgorithmExceptionD0Ev
libPocoJWT.so.94:_ZN4Poco3JWT29UnsupportedAlgorithmExceptionD1Ev
libPocoJWT.so.94:_ZN4Poco3JWT29UnsupportedAlgorithmExceptionD2Ev
libPocoJWT.so.94:_ZN4Poco3JWT29UnsupportedAlgorithmExceptionaSERKS1_
libPocoJWT.so.94:_ZN4Poco3JWT30SignatureVerificationExceptionC1ERKNSt7__cxx1112basic_stringIcSt11char_traitsIcESaIcEEERKNS_9ExceptionEi
libPocoJWT.so.94:_ZN4Poco3JWT30SignatureVerificationExceptionC1ERKNSt7__cxx1112basic_stringIcSt11char_traitsIcESaIcEEES9_i
libPocoJWT.so.94:_ZN4Poco3JWT30SignatureVerificationExceptionC1ERKNSt7__cxx1112basic_stringIcSt11char_traitsIcESaIcEEEi
libPocoJWT.so.94:_ZN4Poco3JWT30SignatureVerificationExceptionC1ERKS1_
libPocoJWT.so.94:_ZN4Poco3JWT30SignatureVerificationExceptionC1Ei
libPocoJWT.so.94:_ZN4Poco3JWT30SignatureVerificationExceptionC2ERKNSt7__cxx1112basic_stringIcSt11char_traitsIcESaIcEEERKNS_9ExceptionEi
libPocoJWT.so.94:_ZN4Poco3JWT30SignatureVerificationExceptionC2ERKNSt7__cxx1112basic_stringIcSt11char_traitsIcESaIcEEES9_i
libPocoJWT.so.94:_ZN4Poco3JWT30SignatureVerificationExceptionC2ERKNSt7__cxx1112basic_stringIcSt11char_traitsIcESaIcEEEi
libPocoJWT.so.94:_ZN4Poco3JWT30SignatureVerificationExceptionC2ERKS1_
libPocoJWT.so.94:_ZN4Poco3JWT30SignatureVerificationExceptionC2Ei
libPocoJWT.so.94:_ZN4Poco3JWT30SignatureVerificationExceptionD0Ev
libPocoJWT.so.94:_ZN4Poco3JWT30SignatureVerificationExceptionD1Ev
libPocoJWT.so.94:_ZN4Poco3JWT30SignatureVerificationExceptionD2Ev
libPocoJWT.so.94:_ZN4Poco3JWT30SignatureVerificationExceptionaSERKS1_
libPocoJWT.so.94:_ZN4Poco3JWT5Token10CLAIM_TYPEB5cxx11E
libPocoJWT.so.94:_ZN4Poco3JWT5Token11setAudienceERKSt6vectorINSt7__cxx1112basic_stringIcSt11char_traitsIcESaIcEEESaIS8_EE
libPocoJWT.so.94:_ZN4Poco3JWT5Token12CLAIM_ISSUERB5cxx11E
libPocoJWT.so.94:_ZN4Poco3JWT5Token12CLAIM_JWT_IDB5cxx11E
libPocoJWT.so.94:_ZN4Poco3JWT5Token12setTimestampERKNSt7__cxx1112basic_stringIcSt11char_traitsIcESaIcEEERKNS_9TimestampE
libPocoJWT.so.94:_ZN4Poco3JWT5Token13CLAIM_SUBJECTB5cxx11E
libPocoJWT.so.94:_ZN4Poco3JWT5Token14CLAIM_AUDIENCEB5cxx11E
libPocoJWT.so.94:_ZN4Poco3JWT5Token15CLAIM_ALGORITHMB5cxx11E
libPocoJWT.so.94:_ZN4Poco3JWT5Token15CLAIM_ISSUED_ATB5cxx11E
libPocoJWT.so.94:_ZN4Poco3JWT5Token16CLAIM_EXPIRATIONB5cxx11E
libPocoJWT.so.94:_ZN4Poco3JWT5Token16CLAIM_NOT_BEFOREB5cxx11E
libPocoJWT.so.94:_ZN4Poco3JWT5Token18CLAIM_CONTENT_TYPEB5cxx11E
libPocoJWT.so.94:_ZN4Poco3JWT5Token4signERKNSt7__cxx1112basic_stringIcSt11char_traitsIcESaIcEEE
libPocoJWT.so.94:_ZN4Poco3JWT5Token5EMPTYB5cxx11E
libPocoJWT.so.94:_ZN4Poco3JWT5Token6assignERKNSt7__cxx1112basic_stringIcSt11char_traitsIcESaIcEEES9_S9_
libPocoJWT.so.94:_ZN4Poco3JWT5TokenC1EOS1_
libPocoJWT.so.94:_ZN4Poco3JWT5TokenC1ERKNSt7__cxx1112basic_stringIcSt11char_traitsIcESaIcEEE
libPocoJWT.so.94:_ZN4Poco3JWT5TokenC1ERKNSt7__cxx1112basic_stringIcSt11char_traitsIcESaIcEEES9_S9_
libPocoJWT.so.94:_ZN4Poco3JWT5TokenC1ERKS1_
libPocoJWT.so.94:_ZN4Poco3JWT5TokenC1Ev
libPocoJWT.so.94:_ZN4Poco3JWT5TokenC2EOS1_
libPocoJWT.so.94:_ZN4Poco3JWT5TokenC2ERKNSt7__cxx1112basic_stringIcSt11char_traitsIcESaIcEEE
libPocoJWT.so.94:_ZN4Poco3JWT5TokenC2ERKNSt7__cxx1112basic_stringIcSt11char_traitsIcESaIcEEES9_S9_
libPocoJWT.so.94:_ZN4Poco3JWT5TokenC2ERKS1_
libPocoJWT.so.94:_ZN4Poco3JWT5TokenC2Ev
libPocoJWT.so.94:_ZN4Poco3JWT5TokenD1Ev
libPocoJWT.so.94:_ZN4Poco3JWT5TokenD2Ev
libPocoJWT.so.94:_ZN4Poco3JWT5TokenaSEOS1_
libPocoJWT.so.94:_ZN4Poco3JWT5TokenaSERKNSt7__cxx1112basic_stringIcSt11char_traitsIcESaIcEEE
libPocoJWT.so.94:_ZN4Poco3JWT5TokenaSERKS1_
libPocoJWT.so.94:_ZN4Poco3JWT6Signer10ALGO_ES256B5cxx11E
libPocoJWT.so.94:_ZN4Poco3JWT6Signer10ALGO_ES384B5cxx11E
libPocoJWT.so.94:_ZN4Poco3JWT6Signer10ALGO_ES512B5cxx11E
libPocoJWT.so.94:_ZN4Poco3JWT6Signer10ALGO_HS256B5cxx11E
libPocoJWT.so.94:_ZN4Poco3JWT6Signer10ALGO_HS384B5cxx11E
libPocoJWT.so.94:_ZN4Poco3JWT6Signer10ALGO_HS512B5cxx11E
libPocoJWT.so.94:_ZN4Poco3JWT6Signer10ALGO_RS256B5cxx11E
libPocoJWT.so.94:_ZN4Poco3JWT6Signer10ALGO_RS384B5cxx11E
libPocoJWT.so.94:_ZN4Poco3JWT6Signer10ALGO_RS512B5cxx11E
libPocoJWT.so.94:_ZN4Poco3JWT6Signer10setHMACKeyERKNSt7__cxx1112basic_stringIcSt11char_traitsIcESaIcEEE
libPocoJWT.so.94:_ZN4Poco3JWT6Signer12addAlgorithmERKNSt7__cxx1112basic_stringIcSt11char_traitsIcESaIcEEE
libPocoJWT.so.94:_ZN4Poco3JWT6Signer13setAlgorithmsERKSt3setINSt7__cxx1112basic_stringIcSt11char_traitsIcESaIcEEESt4lessIS8_ESaIS8_EE
libPocoJWT.so.94:_ZN4Poco3JWT6Signer16addAllAlgorithmsEv
libPocoJWT.so.94:_ZN4Poco3JWT6Signer6decodeERKNSt7__cxx1112basic_stringIcSt11char_traitsIcESaIcEEE
libPocoJWT.so.94:_ZN4Poco3JWT6Signer6encodeB5cxx11ERKSt6vectorIhSaIhEE
libPocoJWT.so.94:_ZN4Poco3JWT6Signer8setECKeyERKNS_9SharedPtrINS_6Crypto5ECKeyENS_16ReferenceCounterENS_13ReleasePolicyIS4_EEEE
libPocoJWT.so.94:_ZN4Poco3JWT6Signer9ALGO_NONEB5cxx11E
libPocoJWT.so.94:_ZN4Poco3JWT6Signer9setRSAKeyERKNS_9SharedPtrINS_6Crypto6RSAKeyENS_16ReferenceCounterENS_13ReleasePolicyIS4_EEEE
libPocoJWT.so.94:_ZN4Poco3JWT6SignerC1ERKNS_9SharedPtrINS_6Crypto5ECKeyENS_16ReferenceCounterENS_13ReleasePolicyIS4_EEEE
libPocoJWT.so.94:_ZN4Poco3JWT6SignerC1ERKNS_9SharedPtrINS_6Crypto6RSAKeyENS_16ReferenceCounterENS_13ReleasePolicyIS4_EEEE
libPocoJWT.so.94:_ZN4Poco3JWT6SignerC1ERKNSt7__cxx1112basic_stringIcSt11char_traitsIcESaIcEEE
libPocoJWT.so.94:_ZN4Poco3JWT6SignerC1Ev
libPocoJWT.so.94:_ZN4Poco3JWT6SignerC2ERKNS_9SharedPtrINS_6Crypto5ECKeyENS_16ReferenceCounterENS_13ReleasePolicyIS4_EEEE
libPocoJWT.so.94:_ZN4Poco3JWT6SignerC2ERKNS_9SharedPtrINS_6Crypto6RSAKeyENS_16ReferenceCounterENS_13ReleasePolicyIS4_EEEE
libPocoJWT.so.94:_ZN4Poco3JWT6SignerC2ERKNSt7__cxx1112basic_stringIcSt11char_traitsIcESaIcEEE
libPocoJWT.so.94:_ZN4Poco3JWT6SignerC2Ev
libPocoJWT.so.94:_ZN4Poco3JWT6SignerD1Ev
libPocoJWT.so.94:_ZN4Poco3JWT6SignerD2Ev
libPocoJWT.so.94:_ZN4Poco3JWT9Algorithm6SHA256B5cxx11E
libPocoJWT.so.94:_ZN4Poco3JWT9Algorithm6SHA384B5cxx11E
libPocoJWT.so.94:_ZN4Poco3JWT9Algorithm6SHA512B5cxx11E
libPocoJWT.so.94:_ZN4Poco3JWT9AlgorithmC1Ev
libPocoJWT.so.94:_ZN4Poco3JWT9AlgorithmC2Ev
libPocoJWT.so.94:_ZN4Poco3JWT9AlgorithmD0Ev
libPocoJWT.so.94:_ZN4Poco3JWT9AlgorithmD1Ev
libPocoJWT.so.94:_ZN4Poco3JWT9AlgorithmD2Ev
libPocoJWT.so.94:_ZNK4Poco3JWT12JWTException4nameEv
libPocoJWT.so.94:_ZNK4Poco3JWT12JWTException5cloneEv
libPocoJWT.so.94:_ZNK4Poco3JWT12JWTException7rethrowEv
libPocoJWT.so.94:_ZNK4Poco3JWT12JWTException9classNameEv
libPocoJWT.so.94:_ZNK4Poco3JWT14ParseException4nameEv
libPocoJWT.so.94:_ZNK4Poco3JWT14ParseException5cloneEv
libPocoJWT.so.94:_ZNK4Poco3JWT14ParseException7rethrowEv
libPocoJWT.so.94:_ZNK4Poco3JWT14ParseException9classNameEv
libPocoJWT.so.94:_ZNK4Poco3JWT18SignatureException4nameEv
libPocoJWT.so.94:_ZNK4Poco3JWT18SignatureException5cloneEv
libPocoJWT.so.94:_ZNK4Poco3JWT18SignatureException7rethrowEv
libPocoJWT.so.94:_ZNK4Poco3JWT18SignatureException9classNameEv
libPocoJWT.so.94:_ZNK4Poco3JWT27UnallowedAlgorithmException4nameEv
libPocoJWT.so.94:_ZNK4Poco3JWT27UnallowedAlgorithmException5cloneEv
libPocoJWT.so.94:_ZNK4Poco3JWT27UnallowedAlgorithmException7rethrowEv
libPocoJWT.so.94:_ZNK4Poco3JWT27UnallowedAlgorithmException9classNameEv
libPocoJWT.so.94:_ZNK4Poco3JWT28SignatureGenerationException4nameEv
libPocoJWT.so.94:_ZNK4Poco3JWT28SignatureGenerationException5cloneEv
libPocoJWT.so.94:_ZNK4Poco3JWT28SignatureGenerationException7rethrowEv
libPocoJWT.so.94:_ZNK4Poco3JWT28SignatureGenerationException9classNameEv
libPocoJWT.so.94:_ZNK4Poco3JWT29UnsupportedAlgorithmException4nameEv
libPocoJWT.so.94:_ZNK4Poco3JWT29UnsupportedAlgorithmException5cloneEv
libPocoJWT.so.94:_ZNK4Poco3JWT29UnsupportedAlgorithmException7rethrowEv
libPocoJWT.so.94:_ZNK4Poco3JWT29UnsupportedAlgorithmException9classNameEv
libPocoJWT.so.94:_ZNK4Poco3JWT30SignatureVerificationException4nameEv
libPocoJWT.so.94:_ZNK4Poco3JWT30SignatureVerificationException5cloneEv
libPocoJWT.so.94:_ZNK4Poco3JWT30SignatureVerificationException7rethrowEv
libPocoJWT.so.94:_ZNK4Poco3JWT30SignatureVerificationException9classNameEv
libPocoJWT.so.94:_ZNK4Poco3JWT5Token11getAudienceB5cxx11Ev
libPocoJWT.so.94:_ZNK4Poco3JWT5Token12getTimestampERKNSt7__cxx1112basic_stringIcSt11char_traitsIcESaIcEEE
libPocoJWT.so.94:_ZNK4Poco3JWT5Token8toStringB5cxx11Ev
libPocoJWT.so.94:_ZNK4Poco3JWT6Signer4signERNS0_5TokenERKNSt7__cxx1112basic_stringIcSt11char_traitsIcESaIcEEE
libPocoJWT.so.94:_ZNK4Poco3JWT6Signer6verifyERKNSt7__cxx1112basic_stringIcSt11char_traitsIcESaIcEEE
libPocoJWT.so.94:_ZNK4Poco3JWT6Signer9tryVerifyERKNSt7__cxx1112basic_stringIcSt11char_traitsIcESaIcEEERNS0_5TokenE
libPocoMongoDB.so.94:_ZN4Poco7MongoDB10Connection10disconnectEv
libPocoMongoDB.so.94:_ZN4Poco7MongoDB10Connection11sendRequestERNS0_14RequestMessageE
libPocoMongoDB.so.94:_ZN4Poco7MongoDB10Connection11sendRequestERNS0_14RequestMessageERNS0_15ResponseMessageE
libPocoMongoDB.so.94:_ZN4Poco7MongoDB10Connection13SocketFactory12createSocketERKNSt7__cxx1112basic_stringIcSt11char_traitsIcESaIcEEEiNS_8TimespanEb
libPocoMongoDB.so.94:_ZN4Poco7MongoDB10Connection13SocketFactoryC1Ev
libPocoMongoDB.so.94:_ZN4Poco7MongoDB10Connection13SocketFactoryC2Ev
libPocoMongoDB.so.94:_ZN4Poco7MongoDB10Connection13SocketFactoryD0Ev
libPocoMongoDB.so.94:_ZN4Poco7MongoDB10Connection13SocketFactoryD1Ev
libPocoMongoDB.so.94:_ZN4Poco7MongoDB10Connection13SocketFactoryD2Ev
libPocoMongoDB.so.94:_ZN4Poco7MongoDB10Connection7connectERKNS_3Net12StreamSocketE
libPocoMongoDB.so.94:_ZN4Poco7MongoDB10Connection7connectERKNS_3Net13SocketAddressE
libPocoMongoDB.so.94:_ZN4Poco7MongoDB10Connection7connectERKNSt7__cxx1112basic_stringIcSt11char_traitsIcESaIcEEE
libPocoMongoDB.so.94:_ZN4Poco7MongoDB10Connection7connectERKNSt7__cxx1112basic_stringIcSt11char_traitsIcESaIcEEERNS1_13SocketFactoryE
libPocoMongoDB.so.94:_ZN4Poco7MongoDB10Connection7connectERKNSt7__cxx1112basic_stringIcSt11char_traitsIcESaIcEEEi
libPocoMongoDB.so.94:_ZN4Poco7MongoDB10Connection7connectEv
libPocoMongoDB.so.94:_ZN4Poco7MongoDB10ConnectionC1ERKNS_3Net12StreamSocketE
libPocoMongoDB.so.94:_ZN4Poco7MongoDB10ConnectionC1ERKNS_3Net13SocketAddressE
libPocoMongoDB.so.94:_ZN4Poco7MongoDB10ConnectionC1ERKNSt7__cxx1112basic_stringIcSt11char_traitsIcESaIcEEE
libPocoMongoDB.so.94:_ZN4Poco7MongoDB10ConnectionC1ERKNSt7__cxx1112basic_stringIcSt11char_traitsIcESaIcEEERNS1_13SocketFactoryE
libPocoMongoDB.so.94:_ZN4Poco7MongoDB10ConnectionC1ERKNSt7__cxx1112basic_stringIcSt11char_traitsIcESaIcEEEi
libPocoMongoDB.so.94:_ZN4Poco7MongoDB10ConnectionC1Ev
libPocoMongoDB.so.94:_ZN4Poco7MongoDB10ConnectionC2ERKNS_3Net12StreamSocketE
libPocoMongoDB.so.94:_ZN4Poco7MongoDB10ConnectionC2ERKNS_3Net13SocketAddressE
libPocoMongoDB.so.94:_ZN4Poco7MongoDB10ConnectionC2ERKNSt7__cxx1112basic_stringIcSt11char_traitsIcESaIcEEE
libPocoMongoDB.so.94:_ZN4Poco7MongoDB10ConnectionC2ERKNSt7__cxx1112basic_stringIcSt11char_traitsIcESaIcEEERNS1_13SocketFactoryE
libPocoMongoDB.so.94:_ZN4Poco7MongoDB10ConnectionC2ERKNSt7__cxx1112basic_stringIcSt11char_traitsIcESaIcEEEi
libPocoMongoDB.so.94:_ZN4Poco7MongoDB10ConnectionC2Ev
libPocoMongoDB.so.94:_ZN4Poco7MongoDB10ConnectionD0Ev
libPocoMongoDB.so.94:_ZN4Poco7MongoDB10ConnectionD1Ev
libPocoMongoDB.so.94:_ZN4Poco7MongoDB10ConnectionD2Ev
libPocoMongoDB.so.94:_ZN4Poco7MongoDB10ReplicaSet10findMasterEv
libPocoMongoDB.so.94:_ZN4Poco7MongoDB10ReplicaSet8isMasterERKNS_3Net13SocketAddressE
libPocoMongoDB.so.94:_ZN4Poco7MongoDB10ReplicaSetC1ERKSt6vectorINS_3Net13SocketAddressESaIS4_EE
libPocoMongoDB.so.94:_ZN4Poco7MongoDB10ReplicaSetC2ERKSt6vectorINS_3Net13SocketAddressESaIS4_EE
libPocoMongoDB.so.94:_ZN4Poco7MongoDB10ReplicaSetD0Ev
