libOSMesa.so.8:OSMesaColorClamp
libOSMesa.so.8:OSMesaCreateContext
libOSMesa.so.8:OSMesaCreateContextAttribs
libOSMesa.so.8:OSMesaCreateContextExt
libOSMesa.so.8:OSMesaDestroyContext
libOSMesa.so.8:OSMesaGetColorBuffer
libOSMesa.so.8:OSMesaGetCurrentContext
libOSMesa.so.8:OSMesaGetDepthBuffer
libOSMesa.so.8:OSMesaGetIntegerv
libOSMesa.so.8:OSMesaGetProcAddress
libOSMesa.so.8:OSMesaMakeCurrent
libOSMesa.so.8:OSMesaPixelStore
libOSMesa.so.8:OSMesaPostprocess
libOSMesa.so.8:glAccum
libOSMesa.so.8:glActiveShaderProgram
libOSMesa.so.8:glActiveTexture
libOSMesa.so.8:glActiveTextureARB
libOSMesa.so.8:glAlphaFunc
libOSMesa.so.8:glAlphaFuncx
libOSMesa.so.8:glAreTexturesResident
libOSMesa.so.8:glArrayElement
libOSMesa.so.8:glArrayElementEXT
libOSMesa.so.8:glAttachObjectARB
libOSMesa.so.8:glAttachShader
libOSMesa.so.8:glBegin
libOSMesa.so.8:glBeginConditionalRender
libOSMesa.so.8:glBeginConditionalRenderNV
libOSMesa.so.8:glBeginQuery
libOSMesa.so.8:glBeginQueryARB
libOSMesa.so.8:glBeginQueryIndexed
libOSMesa.so.8:glBeginTransformFeedback
libOSMesa.so.8:glBindAttribLocation
libOSMesa.so.8:glBindAttribLocationARB
libOSMesa.so.8:glBindBuffer
libOSMesa.so.8:glBindBufferARB
libOSMesa.so.8:glBindBufferBase
libOSMesa.so.8:glBindBufferRange
libOSMesa.so.8:glBindBuffersBase
libOSMesa.so.8:glBindBuffersRange
libOSMesa.so.8:glBindFragDataLocation
libOSMesa.so.8:glBindFragDataLocationEXT
libOSMesa.so.8:glBindFragDataLocationIndexed
libOSMesa.so.8:glBindFramebuffer
libOSMesa.so.8:glBindFramebufferEXT
libOSMesa.so.8:glBindImageTexture
libOSMesa.so.8:glBindImageTextures
libOSMesa.so.8:glBindProgramARB
libOSMesa.so.8:glBindProgramPipeline
libOSMesa.so.8:glBindRenderbuffer
libOSMesa.so.8:glBindRenderbufferEXT
libOSMesa.so.8:glBindSampler
libOSMesa.so.8:glBindSamplers
libOSMesa.so.8:glBindTexture
libOSMesa.so.8:glBindTextureEXT
libOSMesa.so.8:glBindTextures
libOSMesa.so.8:glBindTransformFeedback
libOSMesa.so.8:glBindVertexArray
libOSMesa.so.8:glBindVertexBuffer
libOSMesa.so.8:glBindVertexBuffers
libOSMesa.so.8:glBitmap
libOSMesa.so.8:glBlendBarrier
libOSMesa.so.8:glBlendColor
libOSMesa.so.8:glBlendColorEXT
libOSMesa.so.8:glBlendEquation
libOSMesa.so.8:glBlendEquationEXT
libOSMesa.so.8:glBlendEquationSeparate
libOSMesa.so.8:glBlendEquationSeparatei
libOSMesa.so.8:glBlendEquationSeparateiARB
libOSMesa.so.8:glBlendEquationi
libOSMesa.so.8:glBlendEquationiARB
libOSMesa.so.8:glBlendFunc
libOSMesa.so.8:glBlendFuncSeparate
libOSMesa.so.8:glBlendFuncSeparateEXT
libOSMesa.so.8:glBlendFuncSeparatei
libOSMesa.so.8:glBlendFuncSeparateiARB
libOSMesa.so.8:glBlendFunci
libOSMesa.so.8:glBlendFunciARB
libOSMesa.so.8:glBlitFramebuffer
libOSMesa.so.8:glBufferData
libOSMesa.so.8:glBufferDataARB
libOSMesa.so.8:glBufferStorage
libOSMesa.so.8:glBufferSubData
libOSMesa.so.8:glBufferSubDataARB
libOSMesa.so.8:glCallList
libOSMesa.so.8:glCallLists
libOSMesa.so.8:glCheckFramebufferStatus
libOSMesa.so.8:glCheckFramebufferStatusEXT
libOSMesa.so.8:glClampColor
libOSMesa.so.8:glClampColorARB
libOSMesa.so.8:glClear
libOSMesa.so.8:glClearAccum
libOSMesa.so.8:glClearBufferData
libOSMesa.so.8:glClearBufferSubData
libOSMesa.so.8:glClearBufferfi
libOSMesa.so.8:glClearBufferfv
libOSMesa.so.8:glClearBufferiv
libOSMesa.so.8:glClearBufferuiv
libOSMesa.so.8:glClearColor
libOSMesa.so.8:glClearColorIiEXT
libOSMesa.so.8:glClearColorIuiEXT
libOSMesa.so.8:glClearColorx
libOSMesa.so.8:glClearDepth
libOSMesa.so.8:glClearDepthf
libOSMesa.so.8:glClearDepthx
libOSMesa.so.8:glClearIndex
libOSMesa.so.8:glClearStencil
libOSMesa.so.8:glClearTexImage
libOSMesa.so.8:glClearTexSubImage
libOSMesa.so.8:glClientActiveTexture
libOSMesa.so.8:glClientActiveTextureARB
libOSMesa.so.8:glClientWaitSync
libOSMesa.so.8:glClipPlane
libOSMesa.so.8:glClipPlanef
libOSMesa.so.8:glClipPlanex
libOSMesa.so.8:glColor3b
libOSMesa.so.8:glColor3bv
libOSMesa.so.8:glColor3d
libOSMesa.so.8:glColor3dv
libOSMesa.so.8:glColor3f
libOSMesa.so.8:glColor3fv
libOSMesa.so.8:glColor3i
libOSMesa.so.8:glColor3iv
libOSMesa.so.8:glColor3s
libOSMesa.so.8:glColor3sv
libOSMesa.so.8:glColor3ub
libOSMesa.so.8:glColor3ubv
libOSMesa.so.8:glColor3ui
libOSMesa.so.8:glColor3uiv
libOSMesa.so.8:glColor3us
libOSMesa.so.8:glColor3usv
libOSMesa.so.8:glColor4b
libOSMesa.so.8:glColor4bv
libOSMesa.so.8:glColor4d
libOSMesa.so.8:glColor4dv
libOSMesa.so.8:glColor4f
libOSMesa.so.8:glColor4fv
libOSMesa.so.8:glColor4i
libOSMesa.so.8:glColor4iv
libOSMesa.so.8:glColor4s
libOSMesa.so.8:glColor4sv
libOSMesa.so.8:glColor4ub
libOSMesa.so.8:glColor4ubv
libOSMesa.so.8:glColor4ui
libOSMesa.so.8:glColor4uiv
libOSMesa.so.8:glColor4us
libOSMesa.so.8:glColor4usv
libOSMesa.so.8:glColor4x
libOSMesa.so.8:glColorMask
libOSMesa.so.8:glColorMaskIndexedEXT
libOSMesa.so.8:glColorMaski
libOSMesa.so.8:glColorMaterial
libOSMesa.so.8:glColorP3ui
libOSMesa.so.8:glColorP3uiv
libOSMesa.so.8:glColorP4ui
libOSMesa.so.8:glColorP4uiv
libOSMesa.so.8:glColorPointer
libOSMesa.so.8:glColorPointerEXT
libOSMesa.so.8:glColorSubTable
libOSMesa.so.8:glColorTable
libOSMesa.so.8:glColorTableParameterfv
libOSMesa.so.8:glColorTableParameteriv
libOSMesa.so.8:glCompileShader
libOSMesa.so.8:glCompileShaderARB
libOSMesa.so.8:glCompressedTexImage1D
libOSMesa.so.8:glCompressedTexImage1DARB
libOSMesa.so.8:glCompressedTexImage2D
libOSMesa.so.8:glCompressedTexImage2DARB
libOSMesa.so.8:glCompressedTexImage3D
libOSMesa.so.8:glCompressedTexImage3DARB
libOSMesa.so.8:glCompressedTexSubImage1D
libOSMesa.so.8:glCompressedTexSubImage1DARB
libOSMesa.so.8:glCompressedTexSubImage2D
libOSMesa.so.8:glCompressedTexSubImage2DARB
libOSMesa.so.8:glCompressedTexSubImage3D
libOSMesa.so.8:glCompressedTexSubImage3DARB
libOSMesa.so.8:glConvolutionFilter1D
libOSMesa.so.8:glConvolutionFilter2D
libOSMesa.so.8:glConvolutionParameterf
libOSMesa.so.8:glConvolutionParameterfv
libOSMesa.so.8:glConvolutionParameteri
libOSMesa.so.8:glConvolutionParameteriv
libOSMesa.so.8:glCopyBufferSubData
libOSMesa.so.8:glCopyColorSubTable
libOSMesa.so.8:glCopyColorTable
libOSMesa.so.8:glCopyConvolutionFilter1D
libOSMesa.so.8:glCopyConvolutionFilter2D
libOSMesa.so.8:glCopyImageSubData
libOSMesa.so.8:glCopyPixels
libOSMesa.so.8:glCopyTexImage1D
libOSMesa.so.8:glCopyTexImage2D
libOSMesa.so.8:glCopyTexSubImage1D
libOSMesa.so.8:glCopyTexSubImage2D
libOSMesa.so.8:glCopyTexSubImage3D
libOSMesa.so.8:glCopyTexSubImage3DEXT
libOSMesa.so.8:glCreateProgram
libOSMesa.so.8:glCreateProgramObjectARB
libOSMesa.so.8:glCreateShader
libOSMesa.so.8:glCreateShaderObjectARB
libOSMesa.so.8:glCreateShaderProgramv
libOSMesa.so.8:glCullFace
libOSMesa.so.8:glDebugMessageCallback
libOSMesa.so.8:glDebugMessageCallbackARB
libOSMesa.so.8:glDebugMessageControl
libOSMesa.so.8:glDebugMessageControlARB
libOSMesa.so.8:glDebugMessageInsert
libOSMesa.so.8:glDebugMessageInsertARB
libOSMesa.so.8:glDeleteBuffers
libOSMesa.so.8:glDeleteBuffersARB
libOSMesa.so.8:glDeleteFramebuffers
libOSMesa.so.8:glDeleteFramebuffersEXT
libOSMesa.so.8:glDeleteLists
libOSMesa.so.8:glDeleteObjectARB
libOSMesa.so.8:glDeleteProgram
libOSMesa.so.8:glDeleteProgramPipelines
libOSMesa.so.8:glDeleteProgramsARB
libOSMesa.so.8:glDeleteQueries
libOSMesa.so.8:glDeleteQueriesARB
libOSMesa.so.8:glDeleteRenderbuffers
libOSMesa.so.8:glDeleteRenderbuffersEXT
libOSMesa.so.8:glDeleteSamplers
libOSMesa.so.8:glDeleteShader
libOSMesa.so.8:glDeleteSync
libOSMesa.so.8:glDeleteTextures
libOSMesa.so.8:glDeleteTransformFeedbacks
libOSMesa.so.8:glDeleteVertexArrays
libOSMesa.so.8:glDepthFunc
libOSMesa.so.8:glDepthMask
libOSMesa.so.8:glDepthRange
libOSMesa.so.8:glDepthRangeArrayv
libOSMesa.so.8:glDepthRangeIndexed
libOSMesa.so.8:glDepthRangef
libOSMesa.so.8:glDepthRangex
libOSMesa.so.8:glDetachObjectARB
libOSMesa.so.8:glDetachShader
libOSMesa.so.8:glDisable
libOSMesa.so.8:glDisableClientState
libOSMesa.so.8:glDisableIndexedEXT
libOSMesa.so.8:glDisableVertexAttribArray
libOSMesa.so.8:glDisableVertexAttribArrayARB
libOSMesa.so.8:glDisablei
libOSMesa.so.8:glDispatchCompute
libOSMesa.so.8:glDispatchComputeIndirect
libOSMesa.so.8:glDrawArrays
libOSMesa.so.8:glDrawArraysEXT
libOSMesa.so.8:glDrawArraysIndirect
libOSMesa.so.8:glDrawArraysInstanced
libOSMesa.so.8:glDrawArraysInstancedARB
libOSMesa.so.8:glDrawArraysInstancedBaseInstance
libOSMesa.so.8:glDrawArraysInstancedEXT
libOSMesa.so.8:glDrawBuffer
libOSMesa.so.8:glDrawBuffers
libOSMesa.so.8:glDrawBuffersARB
libOSMesa.so.8:glDrawBuffersATI
libOSMesa.so.8:glDrawElements
libOSMesa.so.8:glDrawElementsBaseVertex
libOSMesa.so.8:glDrawElementsIndirect
libOSMesa.so.8:glDrawElementsInstanced
libOSMesa.so.8:glDrawElementsInstancedARB
libOSMesa.so.8:glDrawElementsInstancedBaseInstance
libOSMesa.so.8:glDrawElementsInstancedBaseVertex
libOSMesa.so.8:glDrawElementsInstancedBaseVertexBaseInstance
libOSMesa.so.8:glDrawElementsInstancedEXT
libOSMesa.so.8:glDrawPixels
libOSMesa.so.8:glDrawRangeElements
libOSMesa.so.8:glDrawRangeElementsBaseVertex
libOSMesa.so.8:glDrawRangeElementsEXT
libOSMesa.so.8:glDrawTransformFeedback
libOSMesa.so.8:glDrawTransformFeedbackInstanced
libOSMesa.so.8:glDrawTransformFeedbackStream
libOSMesa.so.8:glDrawTransformFeedbackStreamInstanced
libOSMesa.so.8:glEdgeFlag
libOSMesa.so.8:glEdgeFlagPointer
libOSMesa.so.8:glEdgeFlagPointerEXT
libOSMesa.so.8:glEdgeFlagv
libOSMesa.so.8:glEnable
libOSMesa.so.8:glEnableClientState
libOSMesa.so.8:glEnableIndexedEXT
libOSMesa.so.8:glEnableVertexAttribArray
libOSMesa.so.8:glEnableVertexAttribArrayARB
libOSMesa.so.8:glEnablei
libOSMesa.so.8:glEnd
libOSMesa.so.8:glEndConditionalRender
libOSMesa.so.8:glEndConditionalRenderNV
libOSMesa.so.8:glEndList
libOSMesa.so.8:glEndQuery
libOSMesa.so.8:glEndQueryARB
libOSMesa.so.8:glEndQueryIndexed
libOSMesa.so.8:glEndTransformFeedback
libOSMesa.so.8:glEvalCoord1d
libOSMesa.so.8:glEvalCoord1dv
libOSMesa.so.8:glEvalCoord1f
libOSMesa.so.8:glEvalCoord1fv
libOSMesa.so.8:glEvalCoord2d
libOSMesa.so.8:glEvalCoord2dv
libOSMesa.so.8:glEvalCoord2f
libOSMesa.so.8:glEvalCoord2fv
libOSMesa.so.8:glEvalMesh1
libOSMesa.so.8:glEvalMesh2
libOSMesa.so.8:glEvalPoint1
libOSMesa.so.8:glEvalPoint2
libOSMesa.so.8:glFeedbackBuffer
libOSMesa.so.8:glFenceSync
libOSMesa.so.8:glFinish
libOSMesa.so.8:glFlush
libOSMesa.so.8:glFlushMappedBufferRange
libOSMesa.so.8:glFogCoordPointer
libOSMesa.so.8:glFogCoordPointerEXT
libOSMesa.so.8:glFogCoordd
libOSMesa.so.8:glFogCoorddEXT
libOSMesa.so.8:glFogCoorddv
libOSMesa.so.8:glFogCoorddvEXT
libOSMesa.so.8:glFogCoordf
libOSMesa.so.8:glFogCoordfEXT
libOSMesa.so.8:glFogCoordfv
libOSMesa.so.8:glFogCoordfvEXT
libOSMesa.so.8:glFogf
libOSMesa.so.8:glFogfv
libOSMesa.so.8:glFogi
libOSMesa.so.8:glFogiv
libOSMesa.so.8:glFogx
libOSMesa.so.8:glFogxv
libOSMesa.so.8:glFramebufferParameteri
libOSMesa.so.8:glFramebufferRenderbuffer
libOSMesa.so.8:glFramebufferRenderbufferEXT
libOSMesa.so.8:glFramebufferTexture
libOSMesa.so.8:glFramebufferTexture1D
libOSMesa.so.8:glFramebufferTexture1DEXT
libOSMesa.so.8:glFramebufferTexture2D
libOSMesa.so.8:glFramebufferTexture2DEXT
libOSMesa.so.8:glFramebufferTexture3D
libOSMesa.so.8:glFramebufferTexture3DEXT
libOSMesa.so.8:glFramebufferTextureLayer
libOSMesa.so.8:glFramebufferTextureLayerEXT
libOSMesa.so.8:glFrontFace
libOSMesa.so.8:glFrustum
libOSMesa.so.8:glFrustumf
libOSMesa.so.8:glFrustumx
libOSMesa.so.8:glGenBuffers
libOSMesa.so.8:glGenBuffersARB
libOSMesa.so.8:glGenFramebuffers
libOSMesa.so.8:glGenFramebuffersEXT
libOSMesa.so.8:glGenLists
libOSMesa.so.8:glGenProgramPipelines
libOSMesa.so.8:glGenProgramsARB
libOSMesa.so.8:glGenQueries
libOSMesa.so.8:glGenQueriesARB
libOSMesa.so.8:glGenRenderbuffers
libOSMesa.so.8:glGenRenderbuffersEXT
libOSMesa.so.8:glGenSamplers
libOSMesa.so.8:glGenTextures
libOSMesa.so.8:glGenTransformFeedbacks
libOSMesa.so.8:glGenVertexArrays
libOSMesa.so.8:glGenerateMipmap
libOSMesa.so.8:glGenerateMipmapEXT
libOSMesa.so.8:glGetActiveAtomicCounterBufferiv
libOSMesa.so.8:glGetActiveAttrib
libOSMesa.so.8:glGetActiveAttribARB
libOSMesa.so.8:glGetActiveUniform
libOSMesa.so.8:glGetActiveUniformARB
libOSMesa.so.8:glGetActiveUniformBlockName
libOSMesa.so.8:glGetActiveUniformBlockiv
libOSMesa.so.8:glGetActiveUniformName
libOSMesa.so.8:glGetActiveUniformsiv
libOSMesa.so.8:glGetAttachedObjectsARB
libOSMesa.so.8:glGetAttachedShaders
libOSMesa.so.8:glGetAttribLocation
libOSMesa.so.8:glGetAttribLocationARB
libOSMesa.so.8:glGetBooleanIndexedvEXT
libOSMesa.so.8:glGetBooleani_v
libOSMesa.so.8:glGetBooleanv
libOSMesa.so.8:glGetBufferParameteri64v
libOSMesa.so.8:glGetBufferParameteriv
libOSMesa.so.8:glGetBufferParameterivARB
libOSMesa.so.8:glGetBufferPointerv
libOSMesa.so.8:glGetBufferPointervARB
libOSMesa.so.8:glGetBufferSubData
libOSMesa.so.8:glGetBufferSubDataARB
libOSMesa.so.8:glGetClipPlane
libOSMesa.so.8:glGetClipPlanef
libOSMesa.so.8:glGetClipPlanex
libOSMesa.so.8:glGetColorTable
libOSMesa.so.8:glGetColorTableParameterfv
libOSMesa.so.8:glGetColorTableParameteriv
libOSMesa.so.8:glGetCompressedTexImage
libOSMesa.so.8:glGetCompressedTexImageARB
libOSMesa.so.8:glGetConvolutionFilter
libOSMesa.so.8:glGetConvolutionParameterfv
libOSMesa.so.8:glGetConvolutionParameteriv
libOSMesa.so.8:glGetDebugMessageLog
libOSMesa.so.8:glGetDebugMessageLogARB
libOSMesa.so.8:glGetDoublei_v
libOSMesa.so.8:glGetDoublev
libOSMesa.so.8:glGetError
libOSMesa.so.8:glGetFixedv
libOSMesa.so.8:glGetFloati_v
libOSMesa.so.8:glGetFloatv
libOSMesa.so.8:glGetFragDataIndex
libOSMesa.so.8:glGetFragDataLocation
libOSMesa.so.8:glGetFragDataLocationEXT
libOSMesa.so.8:glGetFramebufferAttachmentParameteriv
libOSMesa.so.8:glGetFramebufferAttachmentParameterivEXT
libOSMesa.so.8:glGetFramebufferParameteriv
libOSMesa.so.8:glGetGraphicsResetStatus
libOSMesa.so.8:glGetGraphicsResetStatusARB
libOSMesa.so.8:glGetHandleARB
libOSMesa.so.8:glGetHistogram
libOSMesa.so.8:glGetHistogramParameterfv
libOSMesa.so.8:glGetHistogramParameteriv
libOSMesa.so.8:glGetInfoLogARB
libOSMesa.so.8:glGetInteger64i_v
libOSMesa.so.8:glGetInteger64v
libOSMesa.so.8:glGetIntegerIndexedvEXT
libOSMesa.so.8:glGetIntegeri_v
libOSMesa.so.8:glGetIntegerv
libOSMesa.so.8:glGetLightfv
libOSMesa.so.8:glGetLightiv
libOSMesa.so.8:glGetLightxv
libOSMesa.so.8:glGetMapdv
libOSMesa.so.8:glGetMapfv
libOSMesa.so.8:glGetMapiv
libOSMesa.so.8:glGetMaterialfv
libOSMesa.so.8:glGetMaterialiv
libOSMesa.so.8:glGetMaterialxv
libOSMesa.so.8:glGetMinmax
libOSMesa.so.8:glGetMinmaxParameterfv
libOSMesa.so.8:glGetMinmaxParameteriv
libOSMesa.so.8:glGetMultisamplefv
libOSMesa.so.8:glGetObjectLabel
libOSMesa.so.8:glGetObjectParameterfvARB
libOSMesa.so.8:glGetObjectParameterivARB
libOSMesa.so.8:glGetObjectPtrLabel
libOSMesa.so.8:glGetPixelMapfv
libOSMesa.so.8:glGetPixelMapuiv
libOSMesa.so.8:glGetPixelMapusv
libOSMesa.so.8:glGetPointerv
libOSMesa.so.8:glGetPointervEXT
libOSMesa.so.8:glGetPolygonStipple
libOSMesa.so.8:glGetProgramBinary
libOSMesa.so.8:glGetProgramEnvParameterdvARB
libOSMesa.so.8:glGetProgramEnvParameterfvARB
libOSMesa.so.8:glGetProgramInfoLog
libOSMesa.so.8:glGetProgramInterfaceiv
libOSMesa.so.8:glGetProgramLocalParameterdvARB
libOSMesa.so.8:glGetProgramLocalParameterfvARB
libOSMesa.so.8:glGetProgramPipelineInfoLog
libOSMesa.so.8:glGetProgramPipelineiv
libOSMesa.so.8:glGetProgramResourceIndex
libOSMesa.so.8:glGetProgramResourceLocation
libOSMesa.so.8:glGetProgramResourceName
libOSMesa.so.8:glGetProgramResourceiv
libOSMesa.so.8:glGetProgramStringARB
libOSMesa.so.8:glGetProgramiv
libOSMesa.so.8:glGetProgramivARB
libOSMesa.so.8:glGetQueryIndexediv
libOSMesa.so.8:glGetQueryObjectiv
libOSMesa.so.8:glGetQueryObjectivARB
libOSMesa.so.8:glGetQueryObjectuiv
libOSMesa.so.8:glGetQueryObjectuivARB
libOSMesa.so.8:glGetQueryiv
libOSMesa.so.8:glGetQueryivARB
libOSMesa.so.8:glGetRenderbufferParameteriv
libOSMesa.so.8:glGetRenderbufferParameterivEXT
libOSMesa.so.8:glGetSamplerParameterIiv
libOSMesa.so.8:glGetSamplerParameterIuiv
libOSMesa.so.8:glGetSamplerParameterfv
libOSMesa.so.8:glGetSamplerParameteriv
libOSMesa.so.8:glGetSeparableFilter
libOSMesa.so.8:glGetShaderInfoLog
libOSMesa.so.8:glGetShaderPrecisionFormat
libOSMesa.so.8:glGetShaderSource
libOSMesa.so.8:glGetShaderSourceARB
libOSMesa.so.8:glGetShaderiv
libOSMesa.so.8:glGetString
libOSMesa.so.8:glGetStringi
libOSMesa.so.8:glGetSynciv
libOSMesa.so.8:glGetTexEnvfv
libOSMesa.so.8:glGetTexEnviv
libOSMesa.so.8:glGetTexEnvxv
libOSMesa.so.8:glGetTexGendv
libOSMesa.so.8:glGetTexGenfv
libOSMesa.so.8:glGetTexGeniv
libOSMesa.so.8:glGetTexImage
libOSMesa.so.8:glGetTexLevelParameterfv
libOSMesa.so.8:glGetTexLevelParameteriv
libOSMesa.so.8:glGetTexParameterIiv
libOSMesa.so.8:glGetTexParameterIivEXT
libOSMesa.so.8:glGetTexParameterIuiv
libOSMesa.so.8:glGetTexParameterIuivEXT
libOSMesa.so.8:glGetTexParameterfv
libOSMesa.so.8:glGetTexParameteriv
libOSMesa.so.8:glGetTexParameterxv
libOSMesa.so.8:glGetTransformFeedbackVarying
libOSMesa.so.8:glGetUniformBlockIndex
libOSMesa.so.8:glGetUniformIndices
libOSMesa.so.8:glGetUniformLocation
libOSMesa.so.8:glGetUniformLocationARB
libOSMesa.so.8:glGetUniformfv
libOSMesa.so.8:glGetUniformfvARB
libOSMesa.so.8:glGetUniformiv
libOSMesa.so.8:glGetUniformivARB
libOSMesa.so.8:glGetUniformuiv
libOSMesa.so.8:glGetUniformuivEXT
libOSMesa.so.8:glGetVertexAttribIiv
libOSMesa.so.8:glGetVertexAttribIivEXT
libOSMesa.so.8:glGetVertexAttribIuiv
libOSMesa.so.8:glGetVertexAttribIuivEXT
libOSMesa.so.8:glGetVertexAttribPointerv
libOSMesa.so.8:glGetVertexAttribPointervARB
libOSMesa.so.8:glGetVertexAttribdv
libOSMesa.so.8:glGetVertexAttribdvARB
libOSMesa.so.8:glGetVertexAttribfv
libOSMesa.so.8:glGetVertexAttribfvARB
libOSMesa.so.8:glGetVertexAttribiv
libOSMesa.so.8:glGetVertexAttribivARB
libOSMesa.so.8:glGetnColorTableARB
libOSMesa.so.8:glGetnCompressedTexImageARB
libOSMesa.so.8:glGetnConvolutionFilterARB
libOSMesa.so.8:glGetnHistogramARB
libOSMesa.so.8:glGetnMapdvARB
libOSMesa.so.8:glGetnMapfvARB
libOSMesa.so.8:glGetnMapivARB
libOSMesa.so.8:glGetnMinmaxARB
libOSMesa.so.8:glGetnPixelMapfvARB
libOSMesa.so.8:glGetnPixelMapuivARB
libOSMesa.so.8:glGetnPixelMapusvARB
libOSMesa.so.8:glGetnPolygonStippleARB
libOSMesa.so.8:glGetnSeparableFilterARB
libOSMesa.so.8:glGetnTexImageARB
libOSMesa.so.8:glGetnUniformdvARB
libOSMesa.so.8:glGetnUniformfv
libOSMesa.so.8:glGetnUniformfvARB
libOSMesa.so.8:glGetnUniformiv
libOSMesa.so.8:glGetnUniformivARB
libOSMesa.so.8:glGetnUniformuiv
libOSMesa.so.8:glGetnUniformuivARB
libOSMesa.so.8:glHint
libOSMesa.so.8:glHistogram
libOSMesa.so.8:glIndexMask
libOSMesa.so.8:glIndexPointer
libOSMesa.so.8:glIndexPointerEXT
libOSMesa.so.8:glIndexd
libOSMesa.so.8:glIndexdv
libOSMesa.so.8:glIndexf
libOSMesa.so.8:glIndexfv
libOSMesa.so.8:glIndexi
libOSMesa.so.8:glIndexiv
libOSMesa.so.8:glIndexs
libOSMesa.so.8:glIndexsv
libOSMesa.so.8:glIndexub
libOSMesa.so.8:glIndexubv
libOSMesa.so.8:glInitNames
libOSMesa.so.8:glInterleavedArrays
libOSMesa.so.8:glInvalidateBufferData
libOSMesa.so.8:glInvalidateBufferSubData
libOSMesa.so.8:glInvalidateFramebuffer
libOSMesa.so.8:glInvalidateSubFramebuffer
libOSMesa.so.8:glInvalidateTexImage
libOSMesa.so.8:glInvalidateTexSubImage
libOSMesa.so.8:glIsBuffer
libOSMesa.so.8:glIsBufferARB
libOSMesa.so.8:glIsEnabled
libOSMesa.so.8:glIsEnabledIndexedEXT
libOSMesa.so.8:glIsEnabledi
libOSMesa.so.8:glIsFramebuffer
libOSMesa.so.8:glIsFramebufferEXT
libOSMesa.so.8:glIsList
libOSMesa.so.8:glIsProgram
libOSMesa.so.8:glIsProgramARB
libOSMesa.so.8:glIsProgramPipeline
libOSMesa.so.8:glIsQuery
libOSMesa.so.8:glIsQueryARB
libOSMesa.so.8:glIsRenderbuffer
libOSMesa.so.8:glIsRenderbufferEXT
libOSMesa.so.8:glIsSampler
libOSMesa.so.8:glIsShader
libOSMesa.so.8:glIsSync
libOSMesa.so.8:glIsTexture
libOSMesa.so.8:glIsTransformFeedback
libOSMesa.so.8:glIsVertexArray
libOSMesa.so.8:glLightModelf
libOSMesa.so.8:glLightModelfv
libOSMesa.so.8:glLightModeli
libOSMesa.so.8:glLightModeliv
libOSMesa.so.8:glLightModelx
libOSMesa.so.8:glLightModelxv
libOSMesa.so.8:glLightf
libOSMesa.so.8:glLightfv
libOSMesa.so.8:glLighti
libOSMesa.so.8:glLightiv
libOSMesa.so.8:glLightx
libOSMesa.so.8:glLightxv
libOSMesa.so.8:glLineStipple
libOSMesa.so.8:glLineWidth
libOSMesa.so.8:glLineWidthx
libOSMesa.so.8:glLinkProgram
libOSMesa.so.8:glLinkProgramARB
libOSMesa.so.8:glListBase
libOSMesa.so.8:glLoadIdentity
libOSMesa.so.8:glLoadMatrixd
libOSMesa.so.8:glLoadMatrixf
libOSMesa.so.8:glLoadMatrixx
libOSMesa.so.8:glLoadName
libOSMesa.so.8:glLoadTransposeMatrixd
libOSMesa.so.8:glLoadTransposeMatrixdARB
libOSMesa.so.8:glLoadTransposeMatrixf
libOSMesa.so.8:glLoadTransposeMatrixfARB
libOSMesa.so.8:glLockArraysEXT
libOSMesa.so.8:glLogicOp
libOSMesa.so.8:glMap1d
libOSMesa.so.8:glMap1f
libOSMesa.so.8:glMap2d
libOSMesa.so.8:glMap2f
libOSMesa.so.8:glMapBuffer
libOSMesa.so.8:glMapBufferARB
libOSMesa.so.8:glMapBufferRange
libOSMesa.so.8:glMapGrid1d
libOSMesa.so.8:glMapGrid1f
libOSMesa.so.8:glMapGrid2d
libOSMesa.so.8:glMapGrid2f
libOSMesa.so.8:glMaterialf
libOSMesa.so.8:glMaterialfv
libOSMesa.so.8:glMateriali
libOSMesa.so.8:glMaterialiv
libOSMesa.so.8:glMaterialx
libOSMesa.so.8:glMaterialxv
libOSMesa.so.8:glMatrixMode
libOSMesa.so.8:glMemoryBarrier
libOSMesa.so.8:glMemoryBarrierByRegion
libOSMesa.so.8:glMinSampleShading
libOSMesa.so.8:glMinSampleShadingARB
libOSMesa.so.8:glMinmax
libOSMesa.so.8:glMultMatrixd
libOSMesa.so.8:glMultMatrixf
libOSMesa.so.8:glMultMatrixx
libOSMesa.so.8:glMultTransposeMatrixd
libOSMesa.so.8:glMultTransposeMatrixdARB
libOSMesa.so.8:glMultTransposeMatrixf
libOSMesa.so.8:glMultTransposeMatrixfARB
libOSMesa.so.8:glMultiDrawArrays
libOSMesa.so.8:glMultiDrawArraysEXT
libOSMesa.so.8:glMultiDrawArraysIndirect
libOSMesa.so.8:glMultiDrawElements
libOSMesa.so.8:glMultiDrawElementsBaseVertex
libOSMesa.so.8:glMultiDrawElementsEXT
libOSMesa.so.8:glMultiDrawElementsIndirect
libOSMesa.so.8:glMultiTexCoord1d
libOSMesa.so.8:glMultiTexCoord1dARB
libOSMesa.so.8:glMultiTexCoord1dv
libOSMesa.so.8:glMultiTexCoord1dvARB
libOSMesa.so.8:glMultiTexCoord1f
libOSMesa.so.8:glMultiTexCoord1fARB
libOSMesa.so.8:glMultiTexCoord1fv
libOSMesa.so.8:glMultiTexCoord1fvARB
libOSMesa.so.8:glMultiTexCoord1i
libOSMesa.so.8:glMultiTexCoord1iARB
libOSMesa.so.8:glMultiTexCoord1iv
libOSMesa.so.8:glMultiTexCoord1ivARB
libOSMesa.so.8:glMultiTexCoord1s
libOSMesa.so.8:glMultiTexCoord1sARB
libOSMesa.so.8:glMultiTexCoord1sv
libOSMesa.so.8:glMultiTexCoord1svARB
libOSMesa.so.8:glMultiTexCoord2d
libOSMesa.so.8:glMultiTexCoord2dARB
libOSMesa.so.8:glMultiTexCoord2dv
libOSMesa.so.8:glMultiTexCoord2dvARB
libOSMesa.so.8:glMultiTexCoord2f
libOSMesa.so.8:glMultiTexCoord2fARB
libOSMesa.so.8:glMultiTexCoord2fv
libOSMesa.so.8:glMultiTexCoord2fvARB
libOSMesa.so.8:glMultiTexCoord2i
libOSMesa.so.8:glMultiTexCoord2iARB
libOSMesa.so.8:glMultiTexCoord2iv
libOSMesa.so.8:glMultiTexCoord2ivARB
libOSMesa.so.8:glMultiTexCoord2s
libOSMesa.so.8:glMultiTexCoord2sARB
libOSMesa.so.8:glMultiTexCoord2sv
libOSMesa.so.8:glMultiTexCoord2svARB
libOSMesa.so.8:glMultiTexCoord3d
libOSMesa.so.8:glMultiTexCoord3dARB
libOSMesa.so.8:glMultiTexCoord3dv
libOSMesa.so.8:glMultiTexCoord3dvARB
libOSMesa.so.8:glMultiTexCoord3f
libOSMesa.so.8:glMultiTexCoord3fARB
libOSMesa.so.8:glMultiTexCoord3fv
libOSMesa.so.8:glMultiTexCoord3fvARB
libOSMesa.so.8:glMultiTexCoord3i
libOSMesa.so.8:glMultiTexCoord3iARB
libOSMesa.so.8:glMultiTexCoord3iv
libOSMesa.so.8:glMultiTexCoord3ivARB
libOSMesa.so.8:glMultiTexCoord3s
libOSMesa.so.8:glMultiTexCoord3sARB
libOSMesa.so.8:glMultiTexCoord3sv
libOSMesa.so.8:glMultiTexCoord3svARB
libOSMesa.so.8:glMultiTexCoord4d
libOSMesa.so.8:glMultiTexCoord4dARB
libOSMesa.so.8:glMultiTexCoord4dv
libOSMesa.so.8:glMultiTexCoord4dvARB
libOSMesa.so.8:glMultiTexCoord4f
libOSMesa.so.8:glMultiTexCoord4fARB
libOSMesa.so.8:glMultiTexCoord4fv
libOSMesa.so.8:glMultiTexCoord4fvARB
libOSMesa.so.8:glMultiTexCoord4i
libOSMesa.so.8:glMultiTexCoord4iARB
libOSMesa.so.8:glMultiTexCoord4iv
libOSMesa.so.8:glMultiTexCoord4ivARB
libOSMesa.so.8:glMultiTexCoord4s
libOSMesa.so.8:glMultiTexCoord4sARB
libOSMesa.so.8:glMultiTexCoord4sv
libOSMesa.so.8:glMultiTexCoord4svARB
libOSMesa.so.8:glMultiTexCoord4x
libOSMesa.so.8:glMultiTexCoordP1ui
libOSMesa.so.8:glMultiTexCoordP1uiv
libOSMesa.so.8:glMultiTexCoordP2ui
libOSMesa.so.8:glMultiTexCoordP2uiv
libOSMesa.so.8:glMultiTexCoordP3ui
libOSMesa.so.8:glMultiTexCoordP3uiv
libOSMesa.so.8:glMultiTexCoordP4ui
libOSMesa.so.8:glMultiTexCoordP4uiv
libOSMesa.so.8:glNewList
libOSMesa.so.8:glNormal3b
libOSMesa.so.8:glNormal3bv
libOSMesa.so.8:glNormal3d
libOSMesa.so.8:glNormal3dv
libOSMesa.so.8:glNormal3f
libOSMesa.so.8:glNormal3fv
libOSMesa.so.8:glNormal3i
libOSMesa.so.8:glNormal3iv
libOSMesa.so.8:glNormal3s
libOSMesa.so.8:glNormal3sv
libOSMesa.so.8:glNormal3x
libOSMesa.so.8:glNormalP3ui
libOSMesa.so.8:glNormalP3uiv
libOSMesa.so.8:glNormalPointer
libOSMesa.so.8:glNormalPointerEXT
libOSMesa.so.8:glObjectLabel
libOSMesa.so.8:glObjectPtrLabel
libOSMesa.so.8:glOrtho
libOSMesa.so.8:glOrthof
libOSMesa.so.8:glOrthox
libOSMesa.so.8:glPassThrough
libOSMesa.so.8:glPatchParameteri
libOSMesa.so.8:glPauseTransformFeedback
libOSMesa.so.8:glPixelMapfv
libOSMesa.so.8:glPixelMapuiv
libOSMesa.so.8:glPixelMapusv
libOSMesa.so.8:glPixelStoref
libOSMesa.so.8:glPixelStorei
libOSMesa.so.8:glPixelTransferf
libOSMesa.so.8:glPixelTransferi
libOSMesa.so.8:glPixelZoom
libOSMesa.so.8:glPointParameterf
libOSMesa.so.8:glPointParameterfARB
libOSMesa.so.8:glPointParameterfEXT
libOSMesa.so.8:glPointParameterfv
libOSMesa.so.8:glPointParameterfvARB
libOSMesa.so.8:glPointParameterfvEXT
libOSMesa.so.8:glPointParameteri
libOSMesa.so.8:glPointParameteriv
libOSMesa.so.8:glPointParameterx
libOSMesa.so.8:glPointParameterxv
libOSMesa.so.8:glPointSize
libOSMesa.so.8:glPointSizePointerOES
libOSMesa.so.8:glPointSizex
libOSMesa.so.8:glPolygonMode
libOSMesa.so.8:glPolygonOffset
libOSMesa.so.8:glPolygonOffsetx
libOSMesa.so.8:glPolygonStipple
libOSMesa.so.8:glPopAttrib
libOSMesa.so.8:glPopClientAttrib
libOSMesa.so.8:glPopDebugGroup
libOSMesa.so.8:glPopMatrix
libOSMesa.so.8:glPopName
libOSMesa.so.8:glPrimitiveBoundingBox
libOSMesa.so.8:glPrimitiveRestartIndex
libOSMesa.so.8:glPrimitiveRestartIndexNV
libOSMesa.so.8:glPrimitiveRestartNV
libOSMesa.so.8:glPrioritizeTextures
libOSMesa.so.8:glPrioritizeTexturesEXT
libOSMesa.so.8:glProgramBinary
libOSMesa.so.8:glProgramEnvParameter4dARB
libOSMesa.so.8:glProgramEnvParameter4dvARB
libOSMesa.so.8:glProgramEnvParameter4fARB
libOSMesa.so.8:glProgramEnvParameter4fvARB
libOSMesa.so.8:glProgramLocalParameter4dARB
libOSMesa.so.8:glProgramLocalParameter4dvARB
libOSMesa.so.8:glProgramLocalParameter4fARB
libOSMesa.so.8:glProgramLocalParameter4fvARB
libOSMesa.so.8:glProgramParameteri
libOSMesa.so.8:glProgramStringARB
libOSMesa.so.8:glProgramUniform1f
libOSMesa.so.8:glProgramUniform1fv
libOSMesa.so.8:glProgramUniform1i
libOSMesa.so.8:glProgramUniform1iv
libOSMesa.so.8:glProgramUniform1ui
libOSMesa.so.8:glProgramUniform1uiv
libOSMesa.so.8:glProgramUniform2f
libOSMesa.so.8:glProgramUniform2fv
libOSMesa.so.8:glProgramUniform2i
libOSMesa.so.8:glProgramUniform2iv
libOSMesa.so.8:glProgramUniform2ui
libOSMesa.so.8:glProgramUniform2uiv
libOSMesa.so.8:glProgramUniform3f
libOSMesa.so.8:glProgramUniform3fv
libOSMesa.so.8:glProgramUniform3i
libOSMesa.so.8:glProgramUniform3iv
libOSMesa.so.8:glProgramUniform3ui
libOSMesa.so.8:glProgramUniform3uiv
libOSMesa.so.8:glProgramUniform4f
libOSMesa.so.8:glProgramUniform4fv
libOSMesa.so.8:glProgramUniform4i
libOSMesa.so.8:glProgramUniform4iv
libOSMesa.so.8:glProgramUniform4ui
libOSMesa.so.8:glProgramUniform4uiv
libOSMesa.so.8:glProgramUniformMatrix2fv
libOSMesa.so.8:glProgramUniformMatrix2x3fv
libOSMesa.so.8:glProgramUniformMatrix2x4fv
libOSMesa.so.8:glProgramUniformMatrix3fv
libOSMesa.so.8:glProgramUniformMatrix3x2fv
libOSMesa.so.8:glProgramUniformMatrix3x4fv
libOSMesa.so.8:glProgramUniformMatrix4fv
libOSMesa.so.8:glProgramUniformMatrix4x2fv
libOSMesa.so.8:glProgramUniformMatrix4x3fv
libOSMesa.so.8:glProvokingVertex
libOSMesa.so.8:glProvokingVertexEXT
libOSMesa.so.8:glPushAttrib
libOSMesa.so.8:glPushClientAttrib
libOSMesa.so.8:glPushDebugGroup
libOSMesa.so.8:glPushMatrix
libOSMesa.so.8:glPushName
libOSMesa.so.8:glRasterPos2d
libOSMesa.so.8:glRasterPos2dv
libOSMesa.so.8:glRasterPos2f
libOSMesa.so.8:glRasterPos2fv
libOSMesa.so.8:glRasterPos2i
libOSMesa.so.8:glRasterPos2iv
libOSMesa.so.8:glRasterPos2s
libOSMesa.so.8:glRasterPos2sv
libOSMesa.so.8:glRasterPos3d
libOSMesa.so.8:glRasterPos3dv
libOSMesa.so.8:glRasterPos3f
libOSMesa.so.8:glRasterPos3fv
libOSMesa.so.8:glRasterPos3i
libOSMesa.so.8:glRasterPos3iv
libOSMesa.so.8:glRasterPos3s
libOSMesa.so.8:glRasterPos3sv
libOSMesa.so.8:glRasterPos4d
libOSMesa.so.8:glRasterPos4dv
libOSMesa.so.8:glRasterPos4f
libOSMesa.so.8:glRasterPos4fv
libOSMesa.so.8:glRasterPos4i
libOSMesa.so.8:glRasterPos4iv
libOSMesa.so.8:glRasterPos4s
libOSMesa.so.8:glRasterPos4sv
libOSMesa.so.8:glReadBuffer
libOSMesa.so.8:glReadPixels
libOSMesa.so.8:glReadnPixels
libOSMesa.so.8:glReadnPixelsARB
libOSMesa.so.8:glRectd
libOSMesa.so.8:glRectdv
libOSMesa.so.8:glRectf
libOSMesa.so.8:glRectfv
libOSMesa.so.8:glRecti
libOSMesa.so.8:glRectiv
libOSMesa.so.8:glRects
libOSMesa.so.8:glRectsv
libOSMesa.so.8:glReleaseShaderCompiler
libOSMesa.so.8:glRenderMode
libOSMesa.so.8:glRenderbufferStorage
libOSMesa.so.8:glRenderbufferStorageEXT
libOSMesa.so.8:glRenderbufferStorageMultisample
libOSMesa.so.8:glRenderbufferStorageMultisampleEXT
libOSMesa.so.8:glResetHistogram
libOSMesa.so.8:glResetMinmax
libOSMesa.so.8:glResumeTransformFeedback
libOSMesa.so.8:glRotated
libOSMesa.so.8:glRotatef
libOSMesa.so.8:glRotatex
libOSMesa.so.8:glSampleCoverage
libOSMesa.so.8:glSampleCoverageARB
libOSMesa.so.8:glSampleCoveragex
libOSMesa.so.8:glSampleMaski
libOSMesa.so.8:glSamplerParameterIiv
libOSMesa.so.8:glSamplerParameterIuiv
libOSMesa.so.8:glSamplerParameterf
libOSMesa.so.8:glSamplerParameterfv
libOSMesa.so.8:glSamplerParameteri
libOSMesa.so.8:glSamplerParameteriv
libOSMesa.so.8:glScaled
libOSMesa.so.8:glScalef
libOSMesa.so.8:glScalex
libOSMesa.so.8:glScissor
libOSMesa.so.8:glScissorArrayv
libOSMesa.so.8:glScissorIndexed
libOSMesa.so.8:glScissorIndexedv
libOSMesa.so.8:glSecondaryColor3b
libOSMesa.so.8:glSecondaryColor3bEXT
libOSMesa.so.8:glSecondaryColor3bv
libOSMesa.so.8:glSecondaryColor3bvEXT
libOSMesa.so.8:glSecondaryColor3d
libOSMesa.so.8:glSecondaryColor3dEXT
libOSMesa.so.8:glSecondaryColor3dv
libOSMesa.so.8:glSecondaryColor3dvEXT
libOSMesa.so.8:glSecondaryColor3f
libOSMesa.so.8:glSecondaryColor3fEXT
libOSMesa.so.8:glSecondaryColor3fv
libOSMesa.so.8:glSecondaryColor3fvEXT
libOSMesa.so.8:glSecondaryColor3i
libOSMesa.so.8:glSecondaryColor3iEXT
libOSMesa.so.8:glSecondaryColor3iv
libOSMesa.so.8:glSecondaryColor3ivEXT
libOSMesa.so.8:glSecondaryColor3s
libOSMesa.so.8:glSecondaryColor3sEXT
libOSMesa.so.8:glSecondaryColor3sv
libOSMesa.so.8:glSecondaryColor3svEXT
libOSMesa.so.8:glSecondaryColor3ub
libOSMesa.so.8:glSecondaryColor3ubEXT
libOSMesa.so.8:glSecondaryColor3ubv
libOSMesa.so.8:glSecondaryColor3ubvEXT
libOSMesa.so.8:glSecondaryColor3ui
libOSMesa.so.8:glSecondaryColor3uiEXT
libOSMesa.so.8:glSecondaryColor3uiv
libOSMesa.so.8:glSecondaryColor3uivEXT
libOSMesa.so.8:glSecondaryColor3us
libOSMesa.so.8:glSecondaryColor3usEXT
libOSMesa.so.8:glSecondaryColor3usv
libOSMesa.so.8:glSecondaryColor3usvEXT
libOSMesa.so.8:glSecondaryColorP3ui
libOSMesa.so.8:glSecondaryColorP3uiv
libOSMesa.so.8:glSecondaryColorPointer
libOSMesa.so.8:glSecondaryColorPointerEXT
libOSMesa.so.8:glSelectBuffer
libOSMesa.so.8:glSeparableFilter2D
libOSMesa.so.8:glShadeModel
libOSMesa.so.8:glShaderBinary
libOSMesa.so.8:glShaderSource
libOSMesa.so.8:glShaderSourceARB
libOSMesa.so.8:glStencilFunc
libOSMesa.so.8:glStencilFuncSeparate
libOSMesa.so.8:glStencilMask
libOSMesa.so.8:glStencilMaskSeparate
libOSMesa.so.8:glStencilOp
libOSMesa.so.8:glStencilOpSeparate
libOSMesa.so.8:glTexBuffer
libOSMesa.so.8:glTexBufferARB
libOSMesa.so.8:glTexBufferRange
libOSMesa.so.8:glTexCoord1d
libOSMesa.so.8:glTexCoord1dv
libOSMesa.so.8:glTexCoord1f
libOSMesa.so.8:glTexCoord1fv
libOSMesa.so.8:glTexCoord1i
libOSMesa.so.8:glTexCoord1iv
libOSMesa.so.8:glTexCoord1s
libOSMesa.so.8:glTexCoord1sv
libOSMesa.so.8:glTexCoord2d
libOSMesa.so.8:glTexCoord2dv
libOSMesa.so.8:glTexCoord2f
libOSMesa.so.8:glTexCoord2fv
libOSMesa.so.8:glTexCoord2i
libOSMesa.so.8:glTexCoord2iv
libOSMesa.so.8:glTexCoord2s
libOSMesa.so.8:glTexCoord2sv
libOSMesa.so.8:glTexCoord3d
libOSMesa.so.8:glTexCoord3dv
libOSMesa.so.8:glTexCoord3f
libOSMesa.so.8:glTexCoord3fv
libOSMesa.so.8:glTexCoord3i
libOSMesa.so.8:glTexCoord3iv
libOSMesa.so.8:glTexCoord3s
libOSMesa.so.8:glTexCoord3sv
libOSMesa.so.8:glTexCoord4d
libOSMesa.so.8:glTexCoord4dv
libOSMesa.so.8:glTexCoord4f
libOSMesa.so.8:glTexCoord4fv
libOSMesa.so.8:glTexCoord4i
libOSMesa.so.8:glTexCoord4iv
libOSMesa.so.8:glTexCoord4s
libOSMesa.so.8:glTexCoord4sv
libOSMesa.so.8:glTexCoordP1ui
libOSMesa.so.8:glTexCoordP1uiv
libOSMesa.so.8:glTexCoordP2ui
libOSMesa.so.8:glTexCoordP2uiv
libOSMesa.so.8:glTexCoordP3ui
libOSMesa.so.8:glTexCoordP3uiv
libOSMesa.so.8:glTexCoordP4ui
libOSMesa.so.8:glTexCoordP4uiv
libOSMesa.so.8:glTexCoordPointer
libOSMesa.so.8:glTexCoordPointerEXT
libOSMesa.so.8:glTexEnvf
libOSMesa.so.8:glTexEnvfv
libOSMesa.so.8:glTexEnvi
libOSMesa.so.8:glTexEnviv
libOSMesa.so.8:glTexEnvx
libOSMesa.so.8:glTexEnvxv
libOSMesa.so.8:glTexGend
libOSMesa.so.8:glTexGendv
libOSMesa.so.8:glTexGenf
libOSMesa.so.8:glTexGenfv
libOSMesa.so.8:glTexGeni
libOSMesa.so.8:glTexGeniv
libOSMesa.so.8:glTexImage1D
libOSMesa.so.8:glTexImage2D
libOSMesa.so.8:glTexImage2DMultisample
libOSMesa.so.8:glTexImage3D
libOSMesa.so.8:glTexImage3DEXT
libOSMesa.so.8:glTexImage3DMultisample
libOSMesa.so.8:glTexParameterIiv
libOSMesa.so.8:glTexParameterIivEXT
libOSMesa.so.8:glTexParameterIuiv
libOSMesa.so.8:glTexParameterIuivEXT
libOSMesa.so.8:glTexParameterf
libOSMesa.so.8:glTexParameterfv
libOSMesa.so.8:glTexParameteri
libOSMesa.so.8:glTexParameteriv
libOSMesa.so.8:glTexParameterx
libOSMesa.so.8:glTexParameterxv
libOSMesa.so.8:glTexStorage1D
libOSMesa.so.8:glTexStorage2D
libOSMesa.so.8:glTexStorage2DMultisample
libOSMesa.so.8:glTexStorage3D
libOSMesa.so.8:glTexStorage3DMultisample
libOSMesa.so.8:glTexSubImage1D
libOSMesa.so.8:glTexSubImage2D
libOSMesa.so.8:glTexSubImage3D
libOSMesa.so.8:glTexSubImage3DEXT
libOSMesa.so.8:glTextureBarrierNV
libOSMesa.so.8:glTextureStorage1DEXT
libOSMesa.so.8:glTextureStorage2DEXT
libOSMesa.so.8:glTextureStorage3DEXT
libOSMesa.so.8:glTextureView
libOSMesa.so.8:glTransformFeedbackVaryings
libOSMesa.so.8:glTranslated
libOSMesa.so.8:glTranslatef
libOSMesa.so.8:glTranslatex
libOSMesa.so.8:glUniform1f
libOSMesa.so.8:glUniform1fARB
libOSMesa.so.8:glUniform1fv
libOSMesa.so.8:glUniform1fvARB
libOSMesa.so.8:glUniform1i
libOSMesa.so.8:glUniform1iARB
libOSMesa.so.8:glUniform1iv
libOSMesa.so.8:glUniform1ivARB
libOSMesa.so.8:glUniform1ui
libOSMesa.so.8:glUniform1uiEXT
libOSMesa.so.8:glUniform1uiv
libOSMesa.so.8:glUniform1uivEXT
libOSMesa.so.8:glUniform2f
libOSMesa.so.8:glUniform2fARB
libOSMesa.so.8:glUniform2fv
libOSMesa.so.8:glUniform2fvARB
libOSMesa.so.8:glUniform2i
libOSMesa.so.8:glUniform2iARB
libOSMesa.so.8:glUniform2iv
libOSMesa.so.8:glUniform2ivARB
libOSMesa.so.8:glUniform2ui
libOSMesa.so.8:glUniform2uiEXT
libOSMesa.so.8:glUniform2uiv
libOSMesa.so.8:glUniform2uivEXT
libOSMesa.so.8:glUniform3f
libOSMesa.so.8:glUniform3fARB
libOSMesa.so.8:glUniform3fv
libOSMesa.so.8:glUniform3fvARB
libOSMesa.so.8:glUniform3i
libOSMesa.so.8:glUniform3iARB
libOSMesa.so.8:glUniform3iv
libOSMesa.so.8:glUniform3ivARB
libOSMesa.so.8:glUniform3ui
libOSMesa.so.8:glUniform3uiEXT
libOSMesa.so.8:glUniform3uiv
libOSMesa.so.8:glUniform3uivEXT
libOSMesa.so.8:glUniform4f
libOSMesa.so.8:glUniform4fARB
libOSMesa.so.8:glUniform4fv
libOSMesa.so.8:glUniform4fvARB
libOSMesa.so.8:glUniform4i
libOSMesa.so.8:glUniform4iARB
libOSMesa.so.8:glUniform4iv
libOSMesa.so.8:glUniform4ivARB
libOSMesa.so.8:glUniform4ui
libOSMesa.so.8:glUniform4uiEXT
libOSMesa.so.8:glUniform4uiv
libOSMesa.so.8:glUniform4uivEXT
libOSMesa.so.8:glUniformBlockBinding
libOSMesa.so.8:glUniformMatrix2fv
libOSMesa.so.8:glUniformMatrix2fvARB
libOSMesa.so.8:glUniformMatrix2x3fv
libOSMesa.so.8:glUniformMatrix2x4fv
libOSMesa.so.8:glUniformMatrix3fv
libOSMesa.so.8:glUniformMatrix3fvARB
libOSMesa.so.8:glUniformMatrix3x2fv
libOSMesa.so.8:glUniformMatrix3x4fv
libOSMesa.so.8:glUniformMatrix4fv
libOSMesa.so.8:glUniformMatrix4fvARB
libOSMesa.so.8:glUniformMatrix4x2fv
libOSMesa.so.8:glUniformMatrix4x3fv
libOSMesa.so.8:glUnlockArraysEXT
libOSMesa.so.8:glUnmapBuffer
libOSMesa.so.8:glUnmapBufferARB
libOSMesa.so.8:glUseProgram
libOSMesa.so.8:glUseProgramObjectARB
libOSMesa.so.8:glUseProgramStages
libOSMesa.so.8:glValidateProgram
libOSMesa.so.8:glValidateProgramARB
libOSMesa.so.8:glValidateProgramPipeline
libOSMesa.so.8:glVertex2d
libOSMesa.so.8:glVertex2dv
libOSMesa.so.8:glVertex2f
libOSMesa.so.8:glVertex2fv
libOSMesa.so.8:glVertex2i
libOSMesa.so.8:glVertex2iv
libOSMesa.so.8:glVertex2s
libOSMesa.so.8:glVertex2sv
libOSMesa.so.8:glVertex3d
libOSMesa.so.8:glVertex3dv
libOSMesa.so.8:glVertex3f
libOSMesa.so.8:glVertex3fv
libOSMesa.so.8:glVertex3i
libOSMesa.so.8:glVertex3iv
libOSMesa.so.8:glVertex3s
libOSMesa.so.8:glVertex3sv
libOSMesa.so.8:glVertex4d
libOSMesa.so.8:glVertex4dv
libOSMesa.so.8:glVertex4f
libOSMesa.so.8:glVertex4fv
libOSMesa.so.8:glVertex4i
libOSMesa.so.8:glVertex4iv
libOSMesa.so.8:glVertex4s
libOSMesa.so.8:glVertex4sv
libOSMesa.so.8:glVertexAttrib1d
libOSMesa.so.8:glVertexAttrib1dARB
libOSMesa.so.8:glVertexAttrib1dv
libOSMesa.so.8:glVertexAttrib1dvARB
libOSMesa.so.8:glVertexAttrib1f
libOSMesa.so.8:glVertexAttrib1fARB
libOSMesa.so.8:glVertexAttrib1fv
libOSMesa.so.8:glVertexAttrib1fvARB
libOSMesa.so.8:glVertexAttrib1s
libOSMesa.so.8:glVertexAttrib1sARB
libOSMesa.so.8:glVertexAttrib1sv
libOSMesa.so.8:glVertexAttrib1svARB
libOSMesa.so.8:glVertexAttrib2d
libOSMesa.so.8:glVertexAttrib2dARB
libOSMesa.so.8:glVertexAttrib2dv
libOSMesa.so.8:glVertexAttrib2dvARB
libOSMesa.so.8:glVertexAttrib2f
libOSMesa.so.8:glVertexAttrib2fARB
libOSMesa.so.8:glVertexAttrib2fv
libOSMesa.so.8:glVertexAttrib2fvARB
libOSMesa.so.8:glVertexAttrib2s
libOSMesa.so.8:glVertexAttrib2sARB
libOSMesa.so.8:glVertexAttrib2sv
libOSMesa.so.8:glVertexAttrib2svARB
libOSMesa.so.8:glVertexAttrib3d
libOSMesa.so.8:glVertexAttrib3dARB
libOSMesa.so.8:glVertexAttrib3dv
libOSMesa.so.8:glVertexAttrib3dvARB
libOSMesa.so.8:glVertexAttrib3f
libOSMesa.so.8:glVertexAttrib3fARB
libOSMesa.so.8:glVertexAttrib3fv
libOSMesa.so.8:glVertexAttrib3fvARB
libOSMesa.so.8:glVertexAttrib3s
libOSMesa.so.8:glVertexAttrib3sARB
libOSMesa.so.8:glVertexAttrib3sv
libOSMesa.so.8:glVertexAttrib3svARB
libOSMesa.so.8:glVertexAttrib4Nbv
libOSMesa.so.8:glVertexAttrib4NbvARB
libOSMesa.so.8:glVertexAttrib4Niv
libOSMesa.so.8:glVertexAttrib4NivARB
libOSMesa.so.8:glVertexAttrib4Nsv
libOSMesa.so.8:glVertexAttrib4NsvARB
libOSMesa.so.8:glVertexAttrib4Nub
libOSMesa.so.8:glVertexAttrib4NubARB
libOSMesa.so.8:glVertexAttrib4Nubv
libOSMesa.so.8:glVertexAttrib4NubvARB
libOSMesa.so.8:glVertexAttrib4Nuiv
libOSMesa.so.8:glVertexAttrib4NuivARB
libOSMesa.so.8:glVertexAttrib4Nusv
libOSMesa.so.8:glVertexAttrib4NusvARB
libOSMesa.so.8:glVertexAttrib4bv
libOSMesa.so.8:glVertexAttrib4bvARB
libOSMesa.so.8:glVertexAttrib4d
libOSMesa.so.8:glVertexAttrib4dARB
libOSMesa.so.8:glVertexAttrib4dv
libOSMesa.so.8:glVertexAttrib4dvARB
libOSMesa.so.8:glVertexAttrib4f
libOSMesa.so.8:glVertexAttrib4fARB
libOSMesa.so.8:glVertexAttrib4fv
libOSMesa.so.8:glVertexAttrib4fvARB
libOSMesa.so.8:glVertexAttrib4iv
libOSMesa.so.8:glVertexAttrib4ivARB
libOSMesa.so.8:glVertexAttrib4s
libOSMesa.so.8:glVertexAttrib4sARB
libOSMesa.so.8:glVertexAttrib4sv
libOSMesa.so.8:glVertexAttrib4svARB
libOSMesa.so.8:glVertexAttrib4ubv
libOSMesa.so.8:glVertexAttrib4ubvARB
libOSMesa.so.8:glVertexAttrib4uiv
libOSMesa.so.8:glVertexAttrib4uivARB
libOSMesa.so.8:glVertexAttrib4usv
libOSMesa.so.8:glVertexAttrib4usvARB
libOSMesa.so.8:glVertexAttribBinding
libOSMesa.so.8:glVertexAttribDivisor
libOSMesa.so.8:glVertexAttribDivisorARB
libOSMesa.so.8:glVertexAttribFormat
libOSMesa.so.8:glVertexAttribI1i
libOSMesa.so.8:glVertexAttribI1iEXT
libOSMesa.so.8:glVertexAttribI1iv
libOSMesa.so.8:glVertexAttribI1ivEXT
libOSMesa.so.8:glVertexAttribI1ui
libOSMesa.so.8:glVertexAttribI1uiEXT
libOSMesa.so.8:glVertexAttribI1uiv
libOSMesa.so.8:glVertexAttribI1uivEXT
libOSMesa.so.8:glVertexAttribI2i
libOSMesa.so.8:glVertexAttribI2iEXT
libOSMesa.so.8:glVertexAttribI2iv
libOSMesa.so.8:glVertexAttribI2ivEXT
libOSMesa.so.8:glVertexAttribI2ui
libOSMesa.so.8:glVertexAttribI2uiEXT
libOSMesa.so.8:glVertexAttribI2uiv
libOSMesa.so.8:glVertexAttribI2uivEXT
libOSMesa.so.8:glVertexAttribI3i
libOSMesa.so.8:glVertexAttribI3iEXT
libOSMesa.so.8:glVertexAttribI3iv
libOSMesa.so.8:glVertexAttribI3ivEXT
libOSMesa.so.8:glVertexAttribI3ui
libOSMesa.so.8:glVertexAttribI3uiEXT
libOSMesa.so.8:glVertexAttribI3uiv
libOSMesa.so.8:glVertexAttribI3uivEXT
libOSMesa.so.8:glVertexAttribI4bv
libOSMesa.so.8:glVertexAttribI4bvEXT
libOSMesa.so.8:glVertexAttribI4i
libOSMesa.so.8:glVertexAttribI4iEXT
libOSMesa.so.8:glVertexAttribI4iv
libOSMesa.so.8:glVertexAttribI4ivEXT
libOSMesa.so.8:glVertexAttribI4sv
libOSMesa.so.8:glVertexAttribI4svEXT
libOSMesa.so.8:glVertexAttribI4ubv
libOSMesa.so.8:glVertexAttribI4ubvEXT
libOSMesa.so.8:glVertexAttribI4ui
libOSMesa.so.8:glVertexAttribI4uiEXT
libOSMesa.so.8:glVertexAttribI4uiv
libOSMesa.so.8:glVertexAttribI4uivEXT
libOSMesa.so.8:glVertexAttribI4usv
libOSMesa.so.8:glVertexAttribI4usvEXT
libOSMesa.so.8:glVertexAttribIFormat
libOSMesa.so.8:glVertexAttribIPointer
libOSMesa.so.8:glVertexAttribIPointerEXT
libOSMesa.so.8:glVertexAttribLFormat
libOSMesa.so.8:glVertexAttribP1ui
libOSMesa.so.8:glVertexAttribP1uiv
libOSMesa.so.8:glVertexAttribP2ui
libOSMesa.so.8:glVertexAttribP2uiv
libOSMesa.so.8:glVertexAttribP3ui
libOSMesa.so.8:glVertexAttribP3uiv
libOSMesa.so.8:glVertexAttribP4ui
libOSMesa.so.8:glVertexAttribP4uiv
libOSMesa.so.8:glVertexAttribPointer
libOSMesa.so.8:glVertexAttribPointerARB
libOSMesa.so.8:glVertexBindingDivisor
libOSMesa.so.8:glVertexP2ui
libOSMesa.so.8:glVertexP2uiv
libOSMesa.so.8:glVertexP3ui
libOSMesa.so.8:glVertexP3uiv
libOSMesa.so.8:glVertexP4ui
libOSMesa.so.8:glVertexP4uiv
libOSMesa.so.8:glVertexPointer
libOSMesa.so.8:glVertexPointerEXT
libOSMesa.so.8:glViewport
libOSMesa.so.8:glViewportArrayv
libOSMesa.so.8:glViewportIndexedf
libOSMesa.so.8:glViewportIndexedfv
libOSMesa.so.8:glWaitSync
libOSMesa.so.8:glWindowPos2d
libOSMesa.so.8:glWindowPos2dARB
libOSMesa.so.8:glWindowPos2dv
libOSMesa.so.8:glWindowPos2dvARB
libOSMesa.so.8:glWindowPos2f
libOSMesa.so.8:glWindowPos2fARB
libOSMesa.so.8:glWindowPos2fv
libOSMesa.so.8:glWindowPos2fvARB
libOSMesa.so.8:glWindowPos2i
libOSMesa.so.8:glWindowPos2iARB
libOSMesa.so.8:glWindowPos2iv
libOSMesa.so.8:glWindowPos2ivARB
libOSMesa.so.8:glWindowPos2s
libOSMesa.so.8:glWindowPos2sARB
libOSMesa.so.8:glWindowPos2sv
libOSMesa.so.8:glWindowPos2svARB
libOSMesa.so.8:glWindowPos3d
libOSMesa.so.8:glWindowPos3dARB
libOSMesa.so.8:glWindowPos3dv
libOSMesa.so.8:glWindowPos3dvARB
libOSMesa.so.8:glWindowPos3f
libOSMesa.so.8:glWindowPos3fARB
libOSMesa.so.8:glWindowPos3fv
libOSMesa.so.8:glWindowPos3fvARB
libOSMesa.so.8:glWindowPos3i
libOSMesa.so.8:glWindowPos3iARB
libOSMesa.so.8:glWindowPos3iv
libOSMesa.so.8:glWindowPos3ivARB
libOSMesa.so.8:glWindowPos3s
libOSMesa.so.8:glWindowPos3sARB
libOSMesa.so.8:glWindowPos3sv
libOSMesa.so.8:glWindowPos3svARB
libgbm.so.1:gbm_bo_create
libgbm.so.1:gbm_bo_create_with_modifiers
libgbm.so.1:gbm_bo_destroy
libgbm.so.1:gbm_bo_get_device
libgbm.so.1:gbm_bo_get_fd
libgbm.so.1:gbm_bo_get_format
libgbm.so.1:gbm_bo_get_handle
libgbm.so.1:gbm_bo_get_handle_for_plane
libgbm.so.1:gbm_bo_get_height
libgbm.so.1:gbm_bo_get_modifier
libgbm.so.1:gbm_bo_get_offset
libgbm.so.1:gbm_bo_get_plane_count
libgbm.so.1:gbm_bo_get_stride
libgbm.so.1:gbm_bo_get_stride_for_plane
libgbm.so.1:gbm_bo_get_user_data
libgbm.so.1:gbm_bo_get_width
libgbm.so.1:gbm_bo_import
libgbm.so.1:gbm_bo_map
libgbm.so.1:gbm_bo_set_user_data
libgbm.so.1:gbm_bo_unmap
libgbm.so.1:gbm_bo_write
libgbm.so.1:gbm_create_device
libgbm.so.1:gbm_device_destroy
libgbm.so.1:gbm_device_get_backend_name
libgbm.so.1:gbm_device_get_fd
libgbm.so.1:gbm_device_is_format_supported
libgbm.so.1:gbm_surface_create
libgbm.so.1:gbm_surface_create_with_modifiers
libgbm.so.1:gbm_surface_destroy
libgbm.so.1:gbm_surface_has_free_buffers
libgbm.so.1:gbm_surface_lock_front_buffer
libgbm.so.1:gbm_surface_release_buffer
libglapi.so.0:_glapi_add_dispatch
libglapi.so.0:_glapi_check_multithread
libglapi.so.0:_glapi_get_context
libglapi.so.0:_glapi_get_dispatch
libglapi.so.0:_glapi_get_dispatch_table_size
libglapi.so.0:_glapi_get_proc_address
libglapi.so.0:_glapi_get_proc_name
libglapi.so.0:_glapi_get_proc_offset
libglapi.so.0:_glapi_new_nop_table
libglapi.so.0:_glapi_noop_enable_warnings
libglapi.so.0:_glapi_set_context
libglapi.so.0:_glapi_set_dispatch
libglapi.so.0:_glapi_set_nop_handler
libglapi.so.0:_glapi_set_warning_func
libglapi.so.0:_glthread_GetID
libswrAVX.so.0:SwrGetInterface
libswrAVX2.so.0:SwrGetInterface
libvulkan_intel.so:_Z12setup_imm_dfRKN3brw10fs_builderEd
libvulkan_intel.so:_Z17brw_abs_immediate12brw_reg_typeP7brw_reg
libvulkan_intel.so:_Z17brw_math_function6opcode
libvulkan_intel.so:_Z18brw_texture_offsetPijPj
libvulkan_intel.so:_Z20brw_barycentric_mode16glsl_interp_mode16nir_intrinsic_op
libvulkan_intel.so:_Z20brw_instruction_namePK15gen_device_info6opcode
libvulkan_intel.so:_Z20brw_negate_immediate12brw_reg_typeP7brw_reg
libvulkan_intel.so:_Z20opt_predicated_breakP14backend_shader
libvulkan_intel.so:_Z22brw_saturate_immediate12brw_reg_typeP7brw_reg
libvulkan_intel.so:_Z22brw_type_for_base_typePK9glsl_type
libvulkan_intel.so:_Z27dead_control_flow_eliminateP14backend_shader
libvulkan_intel.so:_Z30brw_conditional_for_comparisonj
libvulkan_intel.so:_Z34shuffle_64bit_data_for_32bit_writeRKN3brw10fs_builderERK6fs_regS5_j
libvulkan_intel.so:_Z39shuffle_32bit_load_result_to_64bit_dataRKN3brw10fs_builderERK6fs_regS5_j
libvulkan_intel.so:_ZN10fs_visitor10interp_regEii
libvulkan_intel.so:_ZN10fs_visitor10lower_packEv
libvulkan_intel.so:_ZN10fs_visitor11assign_regsEbb
libvulkan_intel.so:_ZN10fs_visitor11get_nir_srcERK7nir_src
libvulkan_intel.so:_ZN10fs_visitor11nir_emit_ifEP6nir_if
libvulkan_intel.so:_ZN10fs_visitor12emit_barrierEv
libvulkan_intel.so:_ZN10fs_visitor12emit_percompERKN3brw10fs_builderERK7fs_instj
libvulkan_intel.so:_ZN10fs_visitor12get_nir_destERK8nir_dest
libvulkan_intel.so:_ZN10fs_visitor12lower_minmaxEv
libvulkan_intel.so:_ZN10fs_visitor12nir_emit_aluERKN3brw10fs_builderEP13nir_alu_instr
libvulkan_intel.so:_ZN10fs_visitor13emit_dummy_fsEv
libvulkan_intel.so:_ZN10fs_visitor13emit_nir_codeEv
libvulkan_intel.so:_ZN10fs_visitor13get_pull_locsERK6fs_regPjS3_
libvulkan_intel.so:_ZN10fs_visitor13get_timestampERKN3brw10fs_builderE
libvulkan_intel.so:_ZN10fs_visitor13nir_emit_implEP17nir_function_impl
libvulkan_intel.so:_ZN10fs_visitor13nir_emit_jumpERKN3brw10fs_builderEP14nir_jump_instr
libvulkan_intel.so:_ZN10fs_visitor13nir_emit_loopEP8nir_loop
libvulkan_intel.so:_ZN10fs_visitor13opt_algebraicEv
libvulkan_intel.so:_ZN10fs_visitor13opt_cse_localEP8bblock_t
libvulkan_intel.so:_ZN10fs_visitor14compute_to_mrfEv
libvulkan_intel.so:_ZN10fs_visitor14emit_fb_writesEv
libvulkan_intel.so:_ZN10fs_visitor14emit_gs_vertexERK7nir_srcj
libvulkan_intel.so:_ZN10fs_visitor14emit_mcs_fetchERK6fs_regjS2_
libvulkan_intel.so:_ZN10fs_visitor14nir_emit_blockEP9nir_block
libvulkan_intel.so:_ZN10fs_visitor14nir_emit_instrEP9nir_instr
libvulkan_intel.so:_ZN10fs_visitor15DEP_RESOLVE_MOVERKN3brw10fs_builderEi
libvulkan_intel.so:_ZN10fs_visitor15SHADER_TIME_ADDERKN3brw10fs_builderEi6fs_reg
libvulkan_intel.so:_ZN10fs_visitor15emit_alpha_testEv
libvulkan_intel.so:_ZN10fs_visitor15emit_urb_writesERK6fs_reg
libvulkan_intel.so:_ZN10fs_visitor15get_nir_src_immERK7nir_src
libvulkan_intel.so:_ZN10fs_visitor15import_uniformsEPS_
libvulkan_intel.so:_ZN10fs_visitor15opt_sampler_eotEv
libvulkan_intel.so:_ZN10fs_visitor16assign_urb_setupEv
libvulkan_intel.so:_ZN10fs_visitor16choose_spill_regEP8ra_graph
libvulkan_intel.so:_ZN10fs_visitor16dump_instructionEP19backend_instruction
libvulkan_intel.so:_ZN10fs_visitor16dump_instructionEP19backend_instructionP8_IO_FILE
libvulkan_intel.so:_ZN10fs_visitor16lower_simd_widthEv
libvulkan_intel.so:_ZN10fs_visitor16nir_emit_cf_listEP9exec_list
libvulkan_intel.so:_ZN10fs_visitor16nir_emit_textureERKN3brw10fs_builderEP13nir_tex_instr
libvulkan_intel.so:_ZN10fs_visitor16opt_peephole_selEv
libvulkan_intel.so:_ZN10fs_visitor16opt_zero_samplesEv
libvulkan_intel.so:_ZN10fs_visitor16setup_cs_payloadEv
libvulkan_intel.so:_ZN10fs_visitor16setup_gs_payloadEv
libvulkan_intel.so:_ZN10fs_visitor16setup_vs_payloadEv
libvulkan_intel.so:_ZN10fs_visitor17assign_curb_setupEv
libvulkan_intel.so:_ZN10fs_visitor17dump_instructionsEPKc
libvulkan_intel.so:_ZN10fs_visitor17dump_instructionsEv
libvulkan_intel.so:_ZN10fs_visitor17emit_cs_terminateEv
libvulkan_intel.so:_ZN10fs_visitor17emit_discard_jumpEv
libvulkan_intel.so:_ZN10fs_visitor17lower_conversionsEv
libvulkan_intel.so:_ZN10fs_visitor17nir_setup_outputsEv
libvulkan_intel.so:_ZN10fs_visitor17register_coalesceEv
libvulkan_intel.so:_ZN10fs_visitor18allocate_registersEb
libvulkan_intel.so:_ZN10fs_visitor18emit_gs_input_loadERK6fs_regRK7nir_srcjS5_jj
libvulkan_intel.so:_ZN10fs_visitor18emit_gs_thread_endEv
libvulkan_intel.so:_ZN10fs_visitor18implied_mrf_writesEP7fs_inst
libvulkan_intel.so:_ZN10fs_visitor18lower_load_payloadEv
libvulkan_intel.so:_ZN10fs_visitor18nir_emit_intrinsicERKN3brw10fs_builderEP19nir_intrinsic_instr
libvulkan_intel.so:_ZN10fs_visitor18nir_setup_uniformsEv
libvulkan_intel.so:_ZN10fs_visitor18split_virtual_grfsEv
libvulkan_intel.so:_ZN10fs_visitor19assign_gs_urb_setupEv
libvulkan_intel.so:_ZN10fs_visitor19assign_regs_trivialEv
libvulkan_intel.so:_ZN10fs_visitor19assign_vs_urb_setupEv
libvulkan_intel.so:_ZN10fs_visitor19calculate_urb_setupEv
libvulkan_intel.so:_ZN10fs_visitor19dead_code_eliminateEv
libvulkan_intel.so:_ZN10fs_visitor19emit_gen6_gather_waEh6fs_reg
libvulkan_intel.so:_ZN10fs_visitor19emit_sampleid_setupEv
libvulkan_intel.so:_ZN10fs_visitor19get_indirect_offsetEP19nir_intrinsic_instr
libvulkan_intel.so:_ZN10fs_visitor19get_nir_image_derefEPK13nir_deref_var
libvulkan_intel.so:_ZN10fs_visitor19lower_logical_sendsEv
libvulkan_intel.so:_ZN10fs_visitor19nir_emit_load_constERKN3brw10fs_builderEP20nir_load_const_instr
libvulkan_intel.so:_ZN10fs_visitor20assign_tes_urb_setupEv
libvulkan_intel.so:_ZN10fs_visitor20compact_virtual_grfsEv
libvulkan_intel.so:_ZN10fs_visitor20emit_repclear_shaderEv
libvulkan_intel.so:_ZN10fs_visitor20emit_samplepos_setupEv
libvulkan_intel.so:_ZN10fs_visitor20emit_shader_time_endEv
libvulkan_intel.so:_ZN10fs_visitor20emit_single_fb_writeERKN3brw10fs_builderE6fs_regS4_S4_j
libvulkan_intel.so:_ZN10fs_visitor20fixup_3src_null_destEv
libvulkan_intel.so:_ZN10fs_visitor20limit_dispatch_widthEjPKc
libvulkan_intel.so:_ZN10fs_visitor20lower_constant_loadsEv
libvulkan_intel.so:_ZN10fs_visitor20nir_emit_ssbo_atomicERKN3brw10fs_builderEiP19nir_intrinsic_instr
libvulkan_intel.so:_ZN10fs_visitor20opt_cmod_propagationEv
libvulkan_intel.so:_ZN10fs_visitor20opt_copy_propagationEv
libvulkan_intel.so:_ZN10fs_visitor20run_tcs_single_patchEv
libvulkan_intel.so:_ZN10fs_visitor21compute_clip_distanceEPA4_f
libvulkan_intel.so:_ZN10fs_visitor21emit_gs_end_primitiveERK7nir_src
libvulkan_intel.so:_ZN10fs_visitor21nir_emit_cs_intrinsicERKN3brw10fs_builderEP19nir_intrinsic_instr
libvulkan_intel.so:_ZN10fs_visitor21nir_emit_fs_intrinsicERKN3brw10fs_builderEP19nir_intrinsic_instr
libvulkan_intel.so:_ZN10fs_visitor21nir_emit_gs_intrinsicERKN3brw10fs_builderEP19nir_intrinsic_instr
libvulkan_intel.so:_ZN10fs_visitor21nir_emit_vs_intrinsicERKN3brw10fs_builderEP19nir_intrinsic_instr
libvulkan_intel.so:_ZN10fs_visitor21opt_combine_constantsEv
libvulkan_intel.so:_ZN10fs_visitor21opt_register_renamingEv
libvulkan_intel.so:_ZN10fs_visitor21schedule_instructionsE26instruction_scheduler_mode
libvulkan_intel.so:_ZN10fs_visitor21setup_fs_payload_gen4Ev
libvulkan_intel.so:_ZN10fs_visitor21setup_fs_payload_gen6Ev
libvulkan_intel.so:_ZN10fs_visitor22emit_shader_time_beginEv
libvulkan_intel.so:_ZN10fs_visitor22nir_emit_shared_atomicERKN3brw10fs_builderEiP19nir_intrinsic_instr
libvulkan_intel.so:_ZN10fs_visitor22nir_emit_system_valuesEv
libvulkan_intel.so:_ZN10fs_visitor22nir_emit_tcs_intrinsicERKN3brw10fs_builderEP19nir_intrinsic_instr
libvulkan_intel.so:_ZN10fs_visitor22nir_emit_tes_intrinsicERKN3brw10fs_builderEP19nir_intrinsic_instr
libvulkan_intel.so:_ZN10fs_visitor22virtual_grf_interferesEii
libvulkan_intel.so:_ZN10fs_visitor23compute_sample_positionE6fs_regS0_
libvulkan_intel.so:_ZN10fs_visitor23emit_samplemaskin_setupEv
libvulkan_intel.so:_ZN10fs_visitor24calculate_live_intervalsEv
libvulkan_intel.so:_ZN10fs_visitor24calculate_payload_rangesEiPi
libvulkan_intel.so:_ZN10fs_visitor24opt_saturate_propagationEv
libvulkan_intel.so:_ZN10fs_visitor24resolve_source_modifiersERK6fs_reg
libvulkan_intel.so:_ZN10fs_visitor25assign_constant_locationsEv
libvulkan_intel.so:_ZN10fs_visitor25emit_gs_control_data_bitsERK6fs_reg
libvulkan_intel.so:_ZN10fs_visitor25emit_non_coherent_fb_readERKN3brw10fs_builderERK6fs_regj
libvulkan_intel.so:_ZN10fs_visitor25invalidate_live_intervalsEv
libvulkan_intel.so:_ZN10fs_visitor25optimize_extract_to_floatEP13nir_alu_instrRK6fs_reg
libvulkan_intel.so:_ZN10fs_visitor26VARYING_PULL_CONSTANT_LOADERKN3brw10fs_builderERK6fs_regS6_S6_j
libvulkan_intel.so:_ZN10fs_visitor26opt_copy_propagation_localEPvP8bblock_tP9exec_list
libvulkan_intel.so:_ZN10fs_visitor26setup_payload_interferenceEP8ra_graphii
libvulkan_intel.so:_ZN10fs_visitor27calculate_register_pressureEv
libvulkan_intel.so:_ZN10fs_visitor27eliminate_find_live_channelEv
libvulkan_intel.so:_ZN10fs_visitor27emit_cs_work_group_id_setupEv
libvulkan_intel.so:_ZN10fs_visitor27opt_redundant_discard_jumpsEv
libvulkan_intel.so:_ZN10fs_visitor27remove_duplicate_mrf_writesEv
libvulkan_intel.so:_ZN10fs_visitor28emit_fragcoord_interpolationE6fs_reg
libvulkan_intel.so:_ZN10fs_visitor28lower_integer_multiplicationEv
libvulkan_intel.so:_ZN10fs_visitor28optimize_frontfacing_ternaryEP13nir_alu_instrRK6fs_reg
libvulkan_intel.so:_ZN10fs_visitor29emit_interpolation_setup_gen4Ev
libvulkan_intel.so:_ZN10fs_visitor29emit_interpolation_setup_gen6Ev
libvulkan_intel.so:_ZN10fs_visitor30emit_frontfacing_interpolationEv
libvulkan_intel.so:_ZN10fs_visitor30get_instruction_generating_regEP7fs_instS1_RK6fs_reg
libvulkan_intel.so:_ZN10fs_visitor30setup_uniform_clipplane_valuesEPA4_f
libvulkan_intel.so:_ZN10fs_visitor31convert_attr_sources_to_hw_regsEP7fs_inst
libvulkan_intel.so:_ZN10fs_visitor31opt_drop_redundant_mov_to_flagsEv
libvulkan_intel.so:_ZN10fs_visitor31set_gs_stream_control_data_bitsERK6fs_regj
libvulkan_intel.so:_ZN10fs_visitor33assign_tcs_single_patch_urb_setupEv
libvulkan_intel.so:_ZN10fs_visitor33lower_uniform_pull_constant_loadsEv
libvulkan_intel.so:_ZN10fs_visitor39insert_gen4_send_dependency_workaroundsEv
libvulkan_intel.so:_ZN10fs_visitor43insert_gen4_pre_send_dependency_workaroundsEP8bblock_tP7fs_inst
libvulkan_intel.so:_ZN10fs_visitor44insert_gen4_post_send_dependency_workaroundsEP8bblock_tP7fs_inst
libvulkan_intel.so:_ZN10fs_visitor4failEPKcz
libvulkan_intel.so:_ZN10fs_visitor4initEv
libvulkan_intel.so:_ZN10fs_visitor4vgrfEPK9glsl_type
libvulkan_intel.so:_ZN10fs_visitor5vfailEPKcP13__va_list_tag
libvulkan_intel.so:_ZN10fs_visitor6run_csEv
libvulkan_intel.so:_ZN10fs_visitor6run_fsEbb
libvulkan_intel.so:_ZN10fs_visitor6run_gsEv
libvulkan_intel.so:_ZN10fs_visitor6run_vsEPA4_f
libvulkan_intel.so:_ZN10fs_visitor7opt_cseEv
libvulkan_intel.so:_ZN10fs_visitor7run_tesEv
libvulkan_intel.so:_ZN10fs_visitor8optimizeEv
libvulkan_intel.so:_ZN10fs_visitor8validateEv
libvulkan_intel.so:_ZN10fs_visitor9spill_regEi
libvulkan_intel.so:_ZN10fs_visitorC1EPK12brw_compilerPvS3_P14brw_gs_compileP16brw_gs_prog_dataPK10nir_shaderi
libvulkan_intel.so:_ZN10fs_visitorC1EPK12brw_compilerPvS3_PKvP19brw_stage_prog_dataP10gl_programPK10nir_shaderjiPK11brw_vue_map
libvulkan_intel.so:_ZN10fs_visitorC2EPK12brw_compilerPvS3_P14brw_gs_compileP16brw_gs_prog_dataPK10nir_shaderi
libvulkan_intel.so:_ZN10fs_visitorC2EPK12brw_compilerPvS3_PKvP19brw_stage_prog_dataP10gl_programPK10nir_shaderjiPK11brw_vue_map
libvulkan_intel.so:_ZN10fs_visitorD1Ev
libvulkan_intel.so:_ZN10fs_visitorD2Ev
libvulkan_intel.so:_ZN12fs_generator12enable_debugEPKc
libvulkan_intel.so:_ZN12fs_generator12generate_ddxE6opcode7brw_regS1_
libvulkan_intel.so:_ZN12fs_generator12generate_ddyE6opcode7brw_regS1_
libvulkan_intel.so:_ZN12fs_generator12generate_texEP7fs_inst7brw_regS2_S2_S2_
libvulkan_intel.so:_ZN12fs_generator12get_assemblyEPj
libvulkan_intel.so:_ZN12fs_generator13fire_fb_writeEP7fs_inst7brw_regS2_j
libvulkan_intel.so:_ZN12fs_generator13generate_codeEPK5cfg_ti
libvulkan_intel.so:_ZN12fs_generator16generate_barrierEP7fs_inst7brw_reg
libvulkan_intel.so:_ZN12fs_generator16generate_fb_readEP7fs_inst7brw_regS2_
libvulkan_intel.so:_ZN12fs_generator16generate_linterpEP7fs_inst7brw_regPS2_
libvulkan_intel.so:_ZN12fs_generator17generate_fb_writeEP7fs_inst7brw_reg
libvulkan_intel.so:_ZN12fs_generator17generate_urb_readEP7fs_inst7brw_regS2_
libvulkan_intel.so:_ZN12fs_generator18generate_urb_writeEP7fs_inst7brw_reg
libvulkan_intel.so:_ZN12fs_generator21generate_cs_terminateEP7fs_inst7brw_reg
libvulkan_intel.so:_ZN12fs_generator21generate_discard_jumpEP7fs_inst
libvulkan_intel.so:_ZN12fs_generator21generate_mov_indirectEP7fs_inst7brw_regS2_S2_
libvulkan_intel.so:_ZN12fs_generator21generate_scratch_readEP7fs_inst7brw_reg
libvulkan_intel.so:_ZN12fs_generator22generate_scratch_writeEP7fs_inst7brw_reg
libvulkan_intel.so:_ZN12fs_generator22generate_set_sample_idEP7fs_inst7brw_regS2_S2_
libvulkan_intel.so:_ZN12fs_generator24generate_get_buffer_sizeEP7fs_inst7brw_regS2_S2_
libvulkan_intel.so:_ZN12fs_generator24generate_shader_time_addEP7fs_inst7brw_regS2_S2_
libvulkan_intel.so:_ZN12fs_generator26generate_scratch_read_gen7EP7fs_inst7brw_reg
libvulkan_intel.so:_ZN12fs_generator29generate_pack_half_2x16_splitEP7fs_inst7brw_regS2_S2_
libvulkan_intel.so:_ZN12fs_generator30generate_mov_dispatch_to_flagsEP7fs_inst
libvulkan_intel.so:_ZN12fs_generator31generate_unpack_half_2x16_splitEP7fs_inst7brw_regS2_
libvulkan_intel.so:_ZN12fs_generator32patch_discard_jumps_to_fb_writesEv
libvulkan_intel.so:_ZN12fs_generator33generate_pixel_interpolator_queryEP7fs_inst7brw_regS2_S2_j
libvulkan_intel.so:_ZN12fs_generator35generate_uniform_pull_constant_loadEP7fs_inst7brw_regS2_S2_
libvulkan_intel.so:_ZN12fs_generator40generate_uniform_pull_constant_load_gen7EP7fs_inst7brw_regS2_S2_
libvulkan_intel.so:_ZN12fs_generator40generate_varying_pull_constant_load_gen4EP7fs_inst7brw_regS2_
libvulkan_intel.so:_ZN12fs_generator40generate_varying_pull_constant_load_gen7EP7fs_inst7brw_regS2_S2_
libvulkan_intel.so:_ZN12fs_generatorC1EPK12brw_compilerPvS3_PKvP19brw_stage_prog_datajb15gl_shader_stage
libvulkan_intel.so:_ZN12fs_generatorC2EPK12brw_compilerPvS3_PKvP19brw_stage_prog_datajb15gl_shader_stage
libvulkan_intel.so:_ZN12fs_generatorD1Ev
libvulkan_intel.so:_ZN12fs_generatorD2Ev
libvulkan_intel.so:_ZN13schedule_node16set_latency_gen4Ev
libvulkan_intel.so:_ZN13schedule_node16set_latency_gen7Eb
libvulkan_intel.so:_ZN13schedule_nodeC1EP19backend_instructionP21instruction_scheduler
libvulkan_intel.so:_ZN13schedule_nodeC2EP19backend_instructionP21instruction_scheduler
libvulkan_intel.so:_ZN14backend_shader13calculate_cfgEv
libvulkan_intel.so:_ZN14backend_shader17dump_instructionsEPKc
libvulkan_intel.so:_ZN14backend_shader17dump_instructionsEv
libvulkan_intel.so:_ZN14backend_shaderC1EPK12brw_compilerPvS3_PK10nir_shaderP19brw_stage_prog_data
libvulkan_intel.so:_ZN14backend_shaderC2EPK12brw_compilerPvS3_PK10nir_shaderP19brw_stage_prog_data
libvulkan_intel.so:_ZN19backend_instruction12insert_afterEP8bblock_tPS_
libvulkan_intel.so:_ZN19backend_instruction13insert_beforeEP8bblock_tP9exec_list
libvulkan_intel.so:_ZN19backend_instruction13insert_beforeEP8bblock_tPS_
libvulkan_intel.so:_ZN19backend_instruction6removeEP8bblock_t
libvulkan_intel.so:_ZN21instruction_scheduler13compute_exitsEv
libvulkan_intel.so:_ZN21instruction_scheduler14compute_delaysEv
libvulkan_intel.so:_ZN21instruction_scheduler16add_barrier_depsEP13schedule_node
libvulkan_intel.so:_ZN21instruction_scheduler20add_insts_from_blockEP8bblock_t
libvulkan_intel.so:_ZN21instruction_scheduler21schedule_instructionsEP8bblock_t
libvulkan_intel.so:_ZN21instruction_scheduler3runEP5cfg_t
libvulkan_intel.so:_ZN21instruction_scheduler7add_depEP13schedule_nodeS1_
libvulkan_intel.so:_ZN21instruction_scheduler7add_depEP13schedule_nodeS1_i
libvulkan_intel.so:_ZN24fs_instruction_scheduler10issue_timeEP19backend_instruction
libvulkan_intel.so:_ZN24fs_instruction_scheduler13is_compressedEP7fs_inst
libvulkan_intel.so:_ZN24fs_instruction_scheduler14calculate_depsEv
libvulkan_intel.so:_ZN24fs_instruction_scheduler14setup_livenessEP5cfg_t
libvulkan_intel.so:_ZN24fs_instruction_scheduler21count_reads_remainingEP19backend_instruction
libvulkan_intel.so:_ZN24fs_instruction_scheduler24update_register_pressureEP19backend_instruction
libvulkan_intel.so:_ZN24fs_instruction_scheduler29get_register_pressure_benefitEP19backend_instruction
libvulkan_intel.so:_ZN24fs_instruction_scheduler30choose_instruction_to_scheduleEv
libvulkan_intel.so:_ZN24fs_instruction_schedulerC1EP10fs_visitoriii26instruction_scheduler_mode
libvulkan_intel.so:_ZN24fs_instruction_schedulerC2EP10fs_visitoriii26instruction_scheduler_mode
libvulkan_intel.so:_ZN26vec4_instruction_scheduler10issue_timeEP19backend_instruction
libvulkan_intel.so:_ZN26vec4_instruction_scheduler14calculate_depsEv
libvulkan_intel.so:_ZN26vec4_instruction_scheduler14setup_livenessEP5cfg_t
libvulkan_intel.so:_ZN26vec4_instruction_scheduler21count_reads_remainingEP19backend_instruction
libvulkan_intel.so:_ZN26vec4_instruction_scheduler24update_register_pressureEP19backend_instruction
libvulkan_intel.so:_ZN26vec4_instruction_scheduler29get_register_pressure_benefitEP19backend_instruction
libvulkan_intel.so:_ZN26vec4_instruction_scheduler30choose_instruction_to_scheduleEv
libvulkan_intel.so:_ZN26vec4_instruction_schedulerC1EPN3brw12vec4_visitorEi
libvulkan_intel.so:_ZN26vec4_instruction_schedulerC2EPN3brw12vec4_visitorEi
libvulkan_intel.so:_ZN3brw12image_access15emit_image_loadERKNS_10fs_builderERK6fs_regS6_jjj
libvulkan_intel.so:_ZN3brw12image_access16emit_image_storeERKNS_10fs_builderERK6fs_regS6_S6_jjj
libvulkan_intel.so:_ZN3brw12image_access17emit_image_atomicERKNS_10fs_builderERK6fs_regS6_S6_S6_jjjj
libvulkan_intel.so:_ZN3brw12vec4_visitor11emit_beforeEP8bblock_tPNS_16vec4_instructionES4_
libvulkan_intel.so:_ZN3brw12vec4_visitor11emit_minmaxE19brw_conditional_modNS_7dst_regENS_7src_regES3_
libvulkan_intel.so:_ZN3brw12vec4_visitor11emit_vertexEv
libvulkan_intel.so:_ZN3brw12vec4_visitor11get_nir_srcERK7nir_src12brw_reg_typej
libvulkan_intel.so:_ZN3brw12vec4_visitor11get_nir_srcERK7nir_src12nir_alu_typej
libvulkan_intel.so:_ZN3brw12vec4_visitor11get_nir_srcERK7nir_srcj
libvulkan_intel.so:_ZN3brw12vec4_visitor11nir_emit_ifEP6nir_if
libvulkan_intel.so:_ZN3brw12vec4_visitor12SCRATCH_READERKNS_7dst_regERKNS_7src_regE
libvulkan_intel.so:_ZN3brw12vec4_visitor12emit_textureE17ir_texture_opcodeNS_7dst_regEPK9glsl_typeNS_7src_regEiS6_S6_S6_S6_jS6_S6_jS6_S6_
libvulkan_intel.so:_ZN3brw12vec4_visitor12get_nir_destERK8nir_dest
libvulkan_intel.so:_ZN3brw12vec4_visitor12get_nir_destERK8nir_dest12brw_reg_type
libvulkan_intel.so:_ZN3brw12vec4_visitor12get_nir_destERK8nir_dest12nir_alu_type
libvulkan_intel.so:_ZN3brw12vec4_visitor12lower_minmaxEv
libvulkan_intel.so:_ZN3brw12vec4_visitor12nir_emit_aluEP13nir_alu_instr
libvulkan_intel.so:_ZN3brw12vec4_visitor12reg_allocateEv
libvulkan_intel.so:_ZN3brw12vec4_visitor12scalarize_dfEv
libvulkan_intel.so:_ZN3brw12vec4_visitor13SCRATCH_WRITEERKNS_7dst_regERKNS_7src_regES6_
libvulkan_intel.so:_ZN3brw12vec4_visitor13emit_nir_codeEv
libvulkan_intel.so:_ZN3brw12vec4_visitor13emit_urb_slotENS_7dst_regEi
libvulkan_intel.so:_ZN3brw12vec4_visitor13get_timestampEv
libvulkan_intel.so:_ZN3brw12vec4_visitor13nir_emit_implEP17nir_function_impl
libvulkan_intel.so:_ZN3brw12vec4_visitor13nir_emit_jumpEP14nir_jump_instr
libvulkan_intel.so:_ZN3brw12vec4_visitor13nir_emit_loopEP8nir_loop
libvulkan_intel.so:_ZN3brw12vec4_visitor13opt_algebraicEv
libvulkan_intel.so:_ZN3brw12vec4_visitor13opt_cse_localEP8bblock_t
libvulkan_intel.so:_ZN3brw12vec4_visitor14emit_mcs_fetchEPK9glsl_typeNS_7src_regES4_
libvulkan_intel.so:_ZN3brw12vec4_visitor14gs_emit_vertexEi
libvulkan_intel.so:_ZN3brw12vec4_visitor14nir_emit_blockEP9nir_block
libvulkan_intel.so:_ZN3brw12vec4_visitor14nir_emit_instrEP9nir_instr
libvulkan_intel.so:_ZN3brw12vec4_visitor14nir_emit_undefEP19nir_ssa_undef_instr
libvulkan_intel.so:_ZN3brw12vec4_visitor14setup_uniformsEi
libvulkan_intel.so:_ZN3brw12vec4_visitor15emit_uniformizeERKNS_7src_regE
libvulkan_intel.so:_ZN3brw12vec4_visitor15is_high_samplerENS_7src_regE
libvulkan_intel.so:_ZN3brw12vec4_visitor16choose_spill_regEP8ra_graph
libvulkan_intel.so:_ZN3brw12vec4_visitor16dump_instructionEP19backend_instruction
libvulkan_intel.so:_ZN3brw12vec4_visitor16dump_instructionEP19backend_instructionP8_IO_FILE
libvulkan_intel.so:_ZN3brw12vec4_visitor16fix_3src_operandERKNS_7src_regE
libvulkan_intel.so:_ZN3brw12vec4_visitor16fix_math_operandERKNS_7src_regE
libvulkan_intel.so:_ZN3brw12vec4_visitor16gs_end_primitiveEv
libvulkan_intel.so:_ZN3brw12vec4_visitor16lower_simd_widthEv
libvulkan_intel.so:_ZN3brw12vec4_visitor16nir_emit_cf_listEP9exec_list
libvulkan_intel.so:_ZN3brw12vec4_visitor16nir_emit_textureEP13nir_tex_instr
libvulkan_intel.so:_ZN3brw12vec4_visitor16opt_vector_floatEv
libvulkan_intel.so:_ZN3brw12vec4_visitor17emit_scratch_readEP8bblock_tPNS_16vec4_instructionENS_7dst_regENS_7src_regEi
libvulkan_intel.so:_ZN3brw12vec4_visitor17resolve_ud_negateEPNS_7src_regE
libvulkan_intel.so:_ZN3brw12vec4_visitor18convert_to_hw_regsEv
libvulkan_intel.so:_ZN3brw12vec4_visitor18emit_scratch_writeEP8bblock_tPNS_16vec4_instructionEi
libvulkan_intel.so:_ZN3brw12vec4_visitor18get_scratch_offsetEP8bblock_tPNS_16vec4_instructionEPNS_7src_regEi
libvulkan_intel.so:_ZN3brw12vec4_visitor18implied_mrf_writesEPNS_16vec4_instructionE
libvulkan_intel.so:_ZN3brw12vec4_visitor18is_dep_ctrl_unsafeEPKNS_16vec4_instructionE
libvulkan_intel.so:_ZN3brw12vec4_visitor18nir_emit_intrinsicEP19nir_intrinsic_instr
libvulkan_intel.so:_ZN3brw12vec4_visitor18nir_setup_uniformsEv
libvulkan_intel.so:_ZN3brw12vec4_visitor18opt_reduce_swizzleEv
libvulkan_intel.so:_ZN3brw12vec4_visitor18optimize_predicateEP13nir_alu_instrP13brw_predicate
libvulkan_intel.so:_ZN3brw12vec4_visitor18shuffle_64bit_dataENS_7dst_regENS_7src_regEbP8bblock_tPNS_16vec4_instructionE
libvulkan_intel.so:_ZN3brw12vec4_visitor18split_virtual_grfsEv
libvulkan_intel.so:_ZN3brw12vec4_visitor19dead_code_eliminateEv
libvulkan_intel.so:_ZN3brw12vec4_visitor19emit_gen6_gather_waEhNS_7dst_regE
libvulkan_intel.so:_ZN3brw12vec4_visitor19emit_pack_half_2x16ENS_7dst_regENS_7src_regE
libvulkan_intel.so:_ZN3brw12vec4_visitor19emit_pack_snorm_4x8ERKNS_7dst_regERKNS_7src_regE
libvulkan_intel.so:_ZN3brw12vec4_visitor19emit_pack_unorm_4x8ERKNS_7dst_regERKNS_7src_regE
libvulkan_intel.so:_ZN3brw12vec4_visitor19emit_psiz_and_flagsENS_7dst_regE
libvulkan_intel.so:_ZN3brw12vec4_visitor19get_indirect_offsetEP19nir_intrinsic_instr
libvulkan_intel.so:_ZN3brw12vec4_visitor19nir_emit_load_constEP20nir_load_const_instr
libvulkan_intel.so:_ZN3brw12vec4_visitor20emit_ndc_computationEv
libvulkan_intel.so:_ZN3brw12vec4_visitor20emit_resolve_reladdrEPiP8bblock_tPNS_16vec4_instructionENS_7src_regE
libvulkan_intel.so:_ZN3brw12vec4_visitor20emit_shader_time_endEv
libvulkan_intel.so:_ZN3brw12vec4_visitor20evaluate_spill_costsEPfPb
libvulkan_intel.so:_ZN3brw12vec4_visitor20nir_emit_ssbo_atomicEiP19nir_intrinsic_instr
libvulkan_intel.so:_ZN3brw12vec4_visitor20opt_cmod_propagationEv
libvulkan_intel.so:_ZN3brw12vec4_visitor20opt_copy_propagationEb
libvulkan_intel.so:_ZN3brw12vec4_visitor20reg_allocate_trivialEv
libvulkan_intel.so:_ZN3brw12vec4_visitor21apply_logical_swizzleEP7brw_regPNS_16vec4_instructionEi
libvulkan_intel.so:_ZN3brw12vec4_visitor21emit_generic_urb_slotENS_7dst_regEii
libvulkan_intel.so:_ZN3brw12vec4_visitor21emit_unpack_half_2x16ENS_7dst_regENS_7src_regE
libvulkan_intel.so:_ZN3brw12vec4_visitor21emit_unpack_snorm_4x8ERKNS_7dst_regENS_7src_regE
libvulkan_intel.so:_ZN3brw12vec4_visitor21emit_unpack_unorm_4x8ERKNS_7dst_regENS_7src_regE
libvulkan_intel.so:_ZN3brw12vec4_visitor21opt_register_coalesceEv
libvulkan_intel.so:_ZN3brw12vec4_visitor22emit_shader_time_beginEv
libvulkan_intel.so:_ZN3brw12vec4_visitor22emit_shader_time_writeEiNS_7src_regE
libvulkan_intel.so:_ZN3brw12vec4_visitor22pack_uniform_registersEv
libvulkan_intel.so:_ZN3brw12vec4_visitor22virtual_grf_interferesEii
libvulkan_intel.so:_ZN3brw12vec4_visitor23emit_pull_constant_loadEP8bblock_tPNS_16vec4_instructionENS_7dst_regENS_7src_regEiS6_
libvulkan_intel.so:_ZN3brw12vec4_visitor23split_uniform_registersEv
libvulkan_intel.so:_ZN3brw12vec4_visitor24calculate_live_intervalsEv
libvulkan_intel.so:_ZN3brw12vec4_visitor24resolve_source_modifiersERKNS_7src_regE
libvulkan_intel.so:_ZN3brw12vec4_visitor25emit_conversion_to_doubleENS_7dst_regENS_7src_regEb
libvulkan_intel.so:_ZN3brw12vec4_visitor25invalidate_live_intervalsEv
libvulkan_intel.so:_ZN3brw12vec4_visitor25is_supported_64bit_regionEPNS_16vec4_instructionEj
libvulkan_intel.so:_ZN3brw12vec4_visitor25opt_schedule_instructionsEv
libvulkan_intel.so:_ZN3brw12vec4_visitor26lower_64bit_mad_to_mul_addEv
libvulkan_intel.so:_ZN3brw12vec4_visitor26opt_set_dependency_controlEv
libvulkan_intel.so:_ZN3brw12vec4_visitor26setup_payload_interferenceEP8ra_graphii
libvulkan_intel.so:_ZN3brw12vec4_visitor27eliminate_find_live_channelEv
libvulkan_intel.so:_ZN3brw12vec4_visitor27emit_conversion_from_doubleENS_7dst_regENS_7src_regEb
libvulkan_intel.so:_ZN3brw12vec4_visitor27emit_pull_constant_load_regENS_7dst_regENS_7src_regES2_P8bblock_tPNS_16vec4_instructionE
libvulkan_intel.so:_ZN3brw12vec4_visitor2IFE13brw_predicate
libvulkan_intel.so:_ZN3brw12vec4_visitor2IFENS_7src_regES1_19brw_conditional_mod
libvulkan_intel.so:_ZN3brw12vec4_visitor2ORERKNS_7dst_regERKNS_7src_regES6_
libvulkan_intel.so:_ZN3brw12vec4_visitor32move_grf_array_access_to_scratchEv
libvulkan_intel.so:_ZN3brw12vec4_visitor37move_push_constants_to_pull_constantsEv
libvulkan_intel.so:_ZN3brw12vec4_visitor3ADDERKNS_7dst_regERKNS_7src_regES6_
libvulkan_intel.so:_ZN3brw12vec4_visitor3ANDERKNS_7dst_regERKNS_7src_regES6_
libvulkan_intel.so:_ZN3brw12vec4_visitor3ASRERKNS_7dst_regERKNS_7src_regES6_
libvulkan_intel.so:_ZN3brw12vec4_visitor3BFEERKNS_7dst_regERKNS_7src_regES6_S6_
libvulkan_intel.so:_ZN3brw12vec4_visitor3CMPENS_7dst_regENS_7src_regES2_19brw_conditional_mod
libvulkan_intel.so:_ZN3brw12vec4_visitor3DIMERKNS_7dst_regERKNS_7src_regE
libvulkan_intel.so:_ZN3brw12vec4_visitor3DP3ERKNS_7dst_regERKNS_7src_regES6_
libvulkan_intel.so:_ZN3brw12vec4_visitor3DP4ERKNS_7dst_regERKNS_7src_regES6_
libvulkan_intel.so:_ZN3brw12vec4_visitor3DPHERKNS_7dst_regERKNS_7src_regES6_
libvulkan_intel.so:_ZN3brw12vec4_visitor3FBHERKNS_7dst_regERKNS_7src_regE
libvulkan_intel.so:_ZN3brw12vec4_visitor3FBLERKNS_7dst_regERKNS_7src_regE
libvulkan_intel.so:_ZN3brw12vec4_visitor3FRCERKNS_7dst_regERKNS_7src_regE
libvulkan_intel.so:_ZN3brw12vec4_visitor3LRPERKNS_7dst_regERKNS_7src_regES6_S6_
libvulkan_intel.so:_ZN3brw12vec4_visitor3MACERKNS_7dst_regERKNS_7src_regES6_
libvulkan_intel.so:_ZN3brw12vec4_visitor3MADERKNS_7dst_regERKNS_7src_regES6_S6_
libvulkan_intel.so:_ZN3brw12vec4_visitor3MOVERKNS_7dst_regERKNS_7src_regE
libvulkan_intel.so:_ZN3brw12vec4_visitor3MULERKNS_7dst_regERKNS_7src_regES6_
libvulkan_intel.so:_ZN3brw12vec4_visitor3NOTERKNS_7dst_regERKNS_7src_regE
libvulkan_intel.so:_ZN3brw12vec4_visitor3SHLERKNS_7dst_regERKNS_7src_regES6_
libvulkan_intel.so:_ZN3brw12vec4_visitor3SHRERKNS_7dst_regERKNS_7src_regES6_
libvulkan_intel.so:_ZN3brw12vec4_visitor3XORERKNS_7dst_regERKNS_7src_regES6_
libvulkan_intel.so:_ZN3brw12vec4_visitor3runEv
libvulkan_intel.so:_ZN3brw12vec4_visitor43move_uniform_array_access_to_pull_constantsEv
libvulkan_intel.so:_ZN3brw12vec4_visitor4ADDCERKNS_7dst_regERKNS_7src_regES6_
libvulkan_intel.so:_ZN3brw12vec4_visitor4BFI1ERKNS_7dst_regERKNS_7src_regES6_
libvulkan_intel.so:_ZN3brw12vec4_visitor4BFI2ERKNS_7dst_regERKNS_7src_regES6_S6_
libvulkan_intel.so:_ZN3brw12vec4_visitor4CBITERKNS_7dst_regERKNS_7src_regE
libvulkan_intel.so:_ZN3brw12vec4_visitor4MACHERKNS_7dst_regERKNS_7src_regES6_
libvulkan_intel.so:_ZN3brw12vec4_visitor4RNDDERKNS_7dst_regERKNS_7src_regE
libvulkan_intel.so:_ZN3brw12vec4_visitor4RNDEERKNS_7dst_regERKNS_7src_regE
libvulkan_intel.so:_ZN3brw12vec4_visitor4RNDZERKNS_7dst_regERKNS_7src_regE
libvulkan_intel.so:_ZN3brw12vec4_visitor4SUBBERKNS_7dst_regERKNS_7src_regES6_
libvulkan_intel.so:_ZN3brw12vec4_visitor4emitE6opcode
libvulkan_intel.so:_ZN3brw12vec4_visitor4emitE6opcodeRKNS_7dst_regE
libvulkan_intel.so:_ZN3brw12vec4_visitor4emitE6opcodeRKNS_7dst_regERKNS_7src_regE
libvulkan_intel.so:_ZN3brw12vec4_visitor4emitE6opcodeRKNS_7dst_regERKNS_7src_regES7_
libvulkan_intel.so:_ZN3brw12vec4_visitor4emitE6opcodeRKNS_7dst_regERKNS_7src_regES7_S7_
libvulkan_intel.so:_ZN3brw12vec4_visitor4emitEPNS_16vec4_instructionE
libvulkan_intel.so:_ZN3brw12vec4_visitor4failEPKcz
libvulkan_intel.so:_ZN3brw12vec4_visitor5BFREVERKNS_7dst_regERKNS_7src_regE
libvulkan_intel.so:_ZN3brw12vec4_visitor7F16TO32ERKNS_7dst_regERKNS_7src_regE
libvulkan_intel.so:_ZN3brw12vec4_visitor7F32TO16ERKNS_7dst_regERKNS_7src_regE
libvulkan_intel.so:_ZN3brw12vec4_visitor7opt_cseEv
libvulkan_intel.so:_ZN3brw12vec4_visitor8emit_lrpERKNS_7dst_regERKNS_7src_regES6_S6_
libvulkan_intel.so:_ZN3brw12vec4_visitor9emit_mathE6opcodeRKNS_7dst_regERKNS_7src_regES7_
libvulkan_intel.so:_ZN3brw12vec4_visitor9spill_regEi
libvulkan_intel.so:_ZN3brw12vec4_visitorC1EPK12brw_compilerPvPK25brw_sampler_prog_key_dataP17brw_vue_prog_dataPK10nir_shaderS4_bi
libvulkan_intel.so:_ZN3brw12vec4_visitorC2EPK12brw_compilerPvPK25brw_sampler_prog_key_dataP17brw_vue_prog_dataPK10nir_shaderS4_bi
libvulkan_intel.so:_ZN3brw12vec4_visitorD0Ev
libvulkan_intel.so:_ZN3brw12vec4_visitorD1Ev
libvulkan_intel.so:_ZN3brw12vec4_visitorD2Ev
libvulkan_intel.so:_ZN3brw14surface_access15emit_typed_readERKNS_10fs_builderERK6fs_regS6_jj
libvulkan_intel.so:_ZN3brw14surface_access15emit_typed_readERKNS_12vec4_builderERKNS_7src_regES6_jj
libvulkan_intel.so:_ZN3brw14surface_access16emit_typed_writeERKNS_10fs_builderERK6fs_regS6_S6_jj
libvulkan_intel.so:_ZN3brw14surface_access16emit_typed_writeERKNS_12vec4_builderERKNS_7src_regES6_S6_jj
libvulkan_intel.so:_ZN3brw14surface_access17emit_typed_atomicERKNS_10fs_builderERK6fs_regS6_S6_S6_jjj13brw_predicate
libvulkan_intel.so:_ZN3brw14surface_access17emit_typed_atomicERKNS_12vec4_builderERKNS_7src_regES6_S6_S6_jjj13brw_predicate
libvulkan_intel.so:_ZN3brw14surface_access17emit_untyped_readERKNS_10fs_builderERK6fs_regS6_jj13brw_predicate
libvulkan_intel.so:_ZN3brw14surface_access17emit_untyped_readERKNS_12vec4_builderERKNS_7src_regES6_jj13brw_predicate
libvulkan_intel.so:_ZN3brw14surface_access18emit_untyped_writeERKNS_10fs_builderERK6fs_regS6_S6_jj13brw_predicate
libvulkan_intel.so:_ZN3brw14surface_access18emit_untyped_writeERKNS_12vec4_builderERKNS_7src_regES6_S6_jj13brw_predicate
libvulkan_intel.so:_ZN3brw14surface_access19emit_untyped_atomicERKNS_10fs_builderERK6fs_regS6_S6_S6_jjj13brw_predicate
libvulkan_intel.so:_ZN3brw14surface_access19emit_untyped_atomicERKNS_12vec4_builderERKNS_7src_regES6_S6_S6_jjj13brw_predicate
libvulkan_intel.so:_ZN3brw15gen6_gs_visitor11emit_prologEv
libvulkan_intel.so:_ZN3brw15gen6_gs_visitor11xfb_programEjj
libvulkan_intel.so:_ZN3brw15gen6_gs_visitor13setup_payloadEv
libvulkan_intel.so:_ZN3brw15gen6_gs_visitor14gs_emit_vertexEi
libvulkan_intel.so:_ZN3brw15gen6_gs_visitor15emit_thread_endEv
libvulkan_intel.so:_ZN3brw15gen6_gs_visitor16gs_end_primitiveEv
libvulkan_intel.so:_ZN3brw15gen6_gs_visitor21emit_urb_write_headerEi
libvulkan_intel.so:_ZN3brw15gen6_gs_visitor21emit_urb_write_opcodeEbiii
libvulkan_intel.so:_ZN3brw15gen6_gs_visitor36get_vertex_output_offset_for_varyingEii
libvulkan_intel.so:_ZN3brw15gen6_gs_visitor9xfb_setupEv
libvulkan_intel.so:_ZN3brw15gen6_gs_visitor9xfb_writeEv
libvulkan_intel.so:_ZN3brw15vec4_gs_visitor11emit_prologEv
libvulkan_intel.so:_ZN3brw15vec4_gs_visitor13setup_payloadEv
libvulkan_intel.so:_ZN3brw15vec4_gs_visitor14gs_emit_vertexEi
libvulkan_intel.so:_ZN3brw15vec4_gs_visitor15emit_thread_endEv
libvulkan_intel.so:_ZN3brw15vec4_gs_visitor16gs_end_primitiveEv
libvulkan_intel.so:_ZN3brw15vec4_gs_visitor16nir_setup_inputsEv
libvulkan_intel.so:_ZN3brw15vec4_gs_visitor18nir_emit_intrinsicEP19nir_intrinsic_instr
libvulkan_intel.so:_ZN3brw15vec4_gs_visitor20setup_varying_inputsEii
libvulkan_intel.so:_ZN3brw15vec4_gs_visitor21emit_urb_write_headerEi
libvulkan_intel.so:_ZN3brw15vec4_gs_visitor21emit_urb_write_opcodeEb
libvulkan_intel.so:_ZN3brw15vec4_gs_visitor22emit_control_data_bitsEv
libvulkan_intel.so:_ZN3brw15vec4_gs_visitor28set_stream_control_data_bitsEj
libvulkan_intel.so:_ZN3brw15vec4_gs_visitorC1EPK12brw_compilerPvP14brw_gs_compileP16brw_gs_prog_dataPK10nir_shaderS4_bi
libvulkan_intel.so:_ZN3brw15vec4_gs_visitorC2EPK12brw_compilerPvP14brw_gs_compileP16brw_gs_prog_dataPK10nir_shaderS4_bi
libvulkan_intel.so:_ZN3brw15vec4_vs_visitor11emit_prologEv
libvulkan_intel.so:_ZN3brw15vec4_vs_visitor13emit_urb_slotENS_7dst_regEi
libvulkan_intel.so:_ZN3brw15vec4_vs_visitor13setup_payloadEv
libvulkan_intel.so:_ZN3brw15vec4_vs_visitor15emit_thread_endEv
libvulkan_intel.so:_ZN3brw15vec4_vs_visitor16setup_attributesEi
libvulkan_intel.so:_ZN3brw15vec4_vs_visitor19emit_clip_distancesENS_7dst_regEi
libvulkan_intel.so:_ZN3brw15vec4_vs_visitor21emit_urb_write_headerEi
libvulkan_intel.so:_ZN3brw15vec4_vs_visitor21emit_urb_write_opcodeEb
libvulkan_intel.so:_ZN3brw15vec4_vs_visitor30setup_uniform_clipplane_valuesEv
libvulkan_intel.so:_ZN3brw15vec4_vs_visitorC1EPK12brw_compilerPvPK15brw_vs_prog_keyP16brw_vs_prog_dataPK10nir_shaderPA4_fS4_ib
libvulkan_intel.so:_ZN3brw15vec4_vs_visitorC2EPK12brw_compilerPvPK15brw_vs_prog_keyP16brw_vs_prog_dataPK10nir_shaderPA4_fS4_ib
libvulkan_intel.so:_ZN3brw16vec4_instruction13can_reswizzleEPK15gen_device_infoiii
libvulkan_intel.so:_ZN3brw16vec4_instruction16can_do_writemaskEPK15gen_device_info
libvulkan_intel.so:_ZN3brw16vec4_instruction16is_send_from_grfEv
libvulkan_intel.so:_ZN3brw16vec4_instruction18can_do_source_modsEPK15gen_device_info
libvulkan_intel.so:_ZN3brw16vec4_instruction9reswizzleEii
libvulkan_intel.so:_ZN3brw16vec4_instructionC1E6opcodeRKNS_7dst_regERKNS_7src_regES7_S7_
libvulkan_intel.so:_ZN3brw16vec4_instructionC2E6opcodeRKNS_7dst_regERKNS_7src_regES7_S7_
libvulkan_intel.so:_ZN3brw16vec4_tcs_visitor11emit_prologEv
libvulkan_intel.so:_ZN3brw16vec4_tcs_visitor13setup_payloadEv
libvulkan_intel.so:_ZN3brw16vec4_tcs_visitor14emit_urb_writeERKNS_7src_regEjjS3_
libvulkan_intel.so:_ZN3brw16vec4_tcs_visitor15emit_thread_endEv
libvulkan_intel.so:_ZN3brw16vec4_tcs_visitor18nir_emit_intrinsicEP19nir_intrinsic_instr
libvulkan_intel.so:_ZN3brw16vec4_tcs_visitor19emit_input_urb_readERKNS_7dst_regERKNS_7src_regEjjS6_
libvulkan_intel.so:_ZN3brw16vec4_tcs_visitor20emit_output_urb_readERKNS_7dst_regEjjRKNS_7src_regE
libvulkan_intel.so:_ZN3brw16vec4_tcs_visitorC1EPK12brw_compilerPvPK16brw_tcs_prog_keyP17brw_tcs_prog_dataPK10nir_shaderS4_iPK11brw_vue_map
libvulkan_intel.so:_ZN3brw16vec4_tcs_visitorC2EPK12brw_compilerPvPK16brw_tcs_prog_keyP17brw_tcs_prog_dataPK10nir_shaderS4_iPK11brw_vue_map
libvulkan_intel.so:_ZN3brw16vec4_tes_visitor11emit_prologEv
libvulkan_intel.so:_ZN3brw16vec4_tes_visitor13setup_payloadEv
libvulkan_intel.so:_ZN3brw16vec4_tes_visitor15emit_thread_endEv
libvulkan_intel.so:_ZN3brw16vec4_tes_visitor18nir_emit_intrinsicEP19nir_intrinsic_instr
libvulkan_intel.so:_ZN3brw16vec4_tes_visitor21emit_urb_write_headerEi
libvulkan_intel.so:_ZN3brw16vec4_tes_visitor21emit_urb_write_opcodeEb
libvulkan_intel.so:_ZN3brw16vec4_tes_visitorC1EPK12brw_compilerPvPK16brw_tes_prog_keyP17brw_tes_prog_dataPK10nir_shaderS4_i
libvulkan_intel.so:_ZN3brw16vec4_tes_visitorC2EPK12brw_compilerPvPK16brw_tes_prog_keyP17brw_tes_prog_dataPK10nir_shaderS4_i
libvulkan_intel.so:_ZN3brw17fs_live_variables13setup_def_useEv
libvulkan_intel.so:_ZN3brw17fs_live_variables14setup_one_readEPNS_10block_dataEP7fs_instiRK6fs_reg
libvulkan_intel.so:_ZN3brw17fs_live_variables14vars_interfereEii
libvulkan_intel.so:_ZN3brw17fs_live_variables15setup_one_writeEPNS_10block_dataEP7fs_instiRK6fs_reg
libvulkan_intel.so:_ZN3brw17fs_live_variables17compute_start_endEv
libvulkan_intel.so:_ZN3brw17fs_live_variables22compute_live_variablesEv
libvulkan_intel.so:_ZN3brw17fs_live_variablesC1EP10fs_visitorPK5cfg_t
libvulkan_intel.so:_ZN3brw17fs_live_variablesC2EP10fs_visitorPK5cfg_t
libvulkan_intel.so:_ZN3brw17fs_live_variablesD1Ev
libvulkan_intel.so:_ZN3brw17fs_live_variablesD2Ev
libvulkan_intel.so:_ZN3brw19vec4_live_variables13setup_def_useEv
libvulkan_intel.so:_ZN3brw19vec4_live_variables22compute_live_variablesEv
libvulkan_intel.so:_ZN3brw19vec4_live_variablesC1ERKNS_16simple_allocatorEP5cfg_t
libvulkan_intel.so:_ZN3brw19vec4_live_variablesC2ERKNS_16simple_allocatorEP5cfg_t
libvulkan_intel.so:_ZN3brw19vec4_live_variablesD1Ev
libvulkan_intel.so:_ZN3brw19vec4_live_variablesD2Ev
libvulkan_intel.so:_ZN3brw26glsl_type_for_nir_alu_typeE12nir_alu_typej
libvulkan_intel.so:_ZN3brw31ir_texture_opcode_for_nir_texopE9nir_texop
libvulkan_intel.so:_ZN3brw7dst_reg4initEv
libvulkan_intel.so:_ZN3brw7dst_regC1E12brw_reg_filei
libvulkan_intel.so:_ZN3brw7dst_regC1E12brw_reg_filei12brw_reg_typej
libvulkan_intel.so:_ZN3brw7dst_regC1E12brw_reg_fileiPK9glsl_typej
libvulkan_intel.so:_ZN3brw7dst_regC1E7brw_reg
libvulkan_intel.so:_ZN3brw7dst_regC1EPNS_12vec4_visitorEPK9glsl_type
libvulkan_intel.so:_ZN3brw7dst_regC1ERKNS_7src_regE
libvulkan_intel.so:_ZN3brw7dst_regC1Ev
libvulkan_intel.so:_ZN3brw7dst_regC2E12brw_reg_filei
libvulkan_intel.so:_ZN3brw7dst_regC2E12brw_reg_filei12brw_reg_typej
libvulkan_intel.so:_ZN3brw7dst_regC2E12brw_reg_fileiPK9glsl_typej
libvulkan_intel.so:_ZN3brw7dst_regC2E7brw_reg
libvulkan_intel.so:_ZN3brw7dst_regC2EPNS_12vec4_visitorEPK9glsl_type
libvulkan_intel.so:_ZN3brw7dst_regC2ERKNS_7src_regE
libvulkan_intel.so:_ZN3brw7dst_regC2Ev
libvulkan_intel.so:_ZN3brw7src_reg4initEv
libvulkan_intel.so:_ZN3brw7src_regC1E12brw_reg_fileiPK9glsl_type
libvulkan_intel.so:_ZN3brw7src_regC1E7brw_reg
libvulkan_intel.so:_ZN3brw7src_regC1EPNS_12vec4_visitorEPK9glsl_type
libvulkan_intel.so:_ZN3brw7src_regC1EPNS_12vec4_visitorEPK9glsl_typei
libvulkan_intel.so:_ZN3brw7src_regC1ERKNS_7dst_regE
libvulkan_intel.so:_ZN3brw7src_regC1Ev
libvulkan_intel.so:_ZN3brw7src_regC2E12brw_reg_fileiPK9glsl_type
libvulkan_intel.so:_ZN3brw7src_regC2E7brw_reg
libvulkan_intel.so:_ZN3brw7src_regC2EPNS_12vec4_visitorEPK9glsl_type
libvulkan_intel.so:_ZN3brw7src_regC2EPNS_12vec4_visitorEPK9glsl_typei
libvulkan_intel.so:_ZN3brw7src_regC2ERKNS_7dst_regE
libvulkan_intel.so:_ZN3brw7src_regC2Ev
libvulkan_intel.so:_ZN5cfg_t12dump_domtreeEv
libvulkan_intel.so:_ZN5cfg_t12remove_blockEP8bblock_t
libvulkan_intel.so:_ZN5cfg_t14calculate_idomEv
libvulkan_intel.so:_ZN5cfg_t14set_next_blockEPP8bblock_tS1_i
libvulkan_intel.so:_ZN5cfg_t16make_block_arrayEv
libvulkan_intel.so:_ZN5cfg_t4dumpEP14backend_shader
libvulkan_intel.so:_ZN5cfg_t8dump_cfgEv
libvulkan_intel.so:_ZN5cfg_t9intersectEP8bblock_tS1_
libvulkan_intel.so:_ZN5cfg_t9new_blockEv
libvulkan_intel.so:_ZN5cfg_tC1EP9exec_list
libvulkan_intel.so:_ZN5cfg_tC2EP9exec_list
libvulkan_intel.so:_ZN5cfg_tD1Ev
libvulkan_intel.so:_ZN5cfg_tD2Ev
libvulkan_intel.so:_ZN6fs_reg4initEv
libvulkan_intel.so:_ZN6fs_regC1E12brw_reg_filei
libvulkan_intel.so:_ZN6fs_regC1E12brw_reg_filei12brw_reg_type
libvulkan_intel.so:_ZN6fs_regC1E7brw_reg
libvulkan_intel.so:_ZN6fs_regC1Ev
libvulkan_intel.so:_ZN6fs_regC2E12brw_reg_filei
libvulkan_intel.so:_ZN6fs_regC2E12brw_reg_filei12brw_reg_type
libvulkan_intel.so:_ZN6fs_regC2E7brw_reg
libvulkan_intel.so:_ZN6fs_regC2Ev
libvulkan_intel.so:_ZN7fs_inst14resize_sourcesEh
libvulkan_intel.so:_ZN7fs_inst18can_do_source_modsEPK15gen_device_info
libvulkan_intel.so:_ZN7fs_inst4initE6opcodehRK6fs_regPS2_j
libvulkan_intel.so:_ZN7fs_instC1E6opcodeh
libvulkan_intel.so:_ZN7fs_instC1E6opcodehRK6fs_reg
libvulkan_intel.so:_ZN7fs_instC1E6opcodehRK6fs_regPS2_j
libvulkan_intel.so:_ZN7fs_instC1E6opcodehRK6fs_regS3_
libvulkan_intel.so:_ZN7fs_instC1E6opcodehRK6fs_regS3_S3_
libvulkan_intel.so:_ZN7fs_instC1E6opcodehRK6fs_regS3_S3_S3_
libvulkan_intel.so:_ZN7fs_instC1ERKS_
libvulkan_intel.so:_ZN7fs_instC1Ev
libvulkan_intel.so:_ZN7fs_instC2E6opcodeh
libvulkan_intel.so:_ZN7fs_instC2E6opcodehRK6fs_reg
libvulkan_intel.so:_ZN7fs_instC2E6opcodehRK6fs_regPS2_j
libvulkan_intel.so:_ZN7fs_instC2E6opcodehRK6fs_regS3_
libvulkan_intel.so:_ZN7fs_instC2E6opcodehRK6fs_regS3_S3_
libvulkan_intel.so:_ZN7fs_instC2E6opcodehRK6fs_regS3_S3_S3_
libvulkan_intel.so:_ZN7fs_instC2ERKS_
libvulkan_intel.so:_ZN7fs_instC2Ev
libvulkan_intel.so:_ZN7fs_instD1Ev
libvulkan_intel.so:_ZN7fs_instD2Ev
libvulkan_intel.so:_ZN8bblock_t12combine_withEPS_
libvulkan_intel.so:_ZN8bblock_t13add_successorEPvPS_
libvulkan_intel.so:_ZN8bblock_tC1EP5cfg_t
libvulkan_intel.so:_ZN8bblock_tC2EP5cfg_t
libvulkan_intel.so:_ZNK11backend_reg14is_accumulatorEv
libvulkan_intel.so:_ZNK11backend_reg15is_negative_oneEv
libvulkan_intel.so:_ZNK11backend_reg6equalsERKS_
libvulkan_intel.so:_ZNK11backend_reg6is_oneEv
libvulkan_intel.so:_ZNK11backend_reg7is_nullEv
libvulkan_intel.so:_ZNK11backend_reg7is_zeroEv
libvulkan_intel.so:_ZNK19backend_instruction11can_do_cmodEv
libvulkan_intel.so:_ZNK19backend_instruction11is_volatileEv
libvulkan_intel.so:_ZNK19backend_instruction14is_commutativeEv
libvulkan_intel.so:_ZNK19backend_instruction15can_do_saturateEv
libvulkan_intel.so:_ZNK19backend_instruction15is_control_flowEv
libvulkan_intel.so:_ZNK19backend_instruction16has_side_effectsEv
libvulkan_intel.so:_ZNK19backend_instruction18can_do_source_modsEv
libvulkan_intel.so:_ZNK19backend_instruction28reads_accumulator_implicitlyEv
libvulkan_intel.so:_ZNK19backend_instruction29writes_accumulator_implicitlyEPK15gen_device_info
libvulkan_intel.so:_ZNK19backend_instruction6is_texEv
libvulkan_intel.so:_ZNK19backend_instruction7is_3srcEPK15gen_device_info
libvulkan_intel.so:_ZNK19backend_instruction7is_mathEv
libvulkan_intel.so:_ZNK3brw12vec4_visitor13var_range_endEjj
libvulkan_intel.so:_ZNK3brw12vec4_visitor15var_range_startEjj
libvulkan_intel.so:_ZNK3brw16vec4_instruction16can_change_typesEv
libvulkan_intel.so:_ZNK3brw16vec4_instruction33has_source_and_destination_hazardEv
libvulkan_intel.so:_ZNK3brw16vec4_instruction9size_readEj
libvulkan_intel.so:_ZNK3brw7dst_reg6equalsERKS0_
libvulkan_intel.so:_ZNK3brw7src_reg6equalsERKS0_
libvulkan_intel.so:_ZNK6fs_reg13is_contiguousEv
libvulkan_intel.so:_ZNK6fs_reg14component_sizeEj
libvulkan_intel.so:_ZNK6fs_reg6equalsERKS_
libvulkan_intel.so:_ZNK7fs_inst10flags_readEPK15gen_device_info
libvulkan_intel.so:_ZNK7fs_inst13flags_writtenEv
libvulkan_intel.so:_ZNK7fs_inst15components_readEj
libvulkan_intel.so:_ZNK7fs_inst15is_copy_payloadERKN3brw16simple_allocatorE
libvulkan_intel.so:_ZNK7fs_inst16can_change_typesEv
libvulkan_intel.so:_ZNK7fs_inst16has_side_effectsEv
libvulkan_intel.so:_ZNK7fs_inst16is_partial_writeEv
libvulkan_intel.so:_ZNK7fs_inst16is_send_from_grfEv
libvulkan_intel.so:_ZNK7fs_inst33has_source_and_destination_hazardEv
libvulkan_intel.so:_ZNK7fs_inst6equalsEPS_
libvulkan_intel.so:_ZNK7fs_inst9size_readEi
libvulkan_intel.so:_ZNK8bblock_t15is_successor_ofEPKS_
libvulkan_intel.so:_ZNK8bblock_t16can_combine_withEPKS_
libvulkan_intel.so:_ZNK8bblock_t17is_predecessor_ofEPKS_
libvulkan_intel.so:_ZNK8bblock_t4dumpEP14backend_shader
libvulkan_intel.so:brw_compile_cs
libvulkan_intel.so:brw_compile_fs
libvulkan_intel.so:brw_compile_gs
libvulkan_intel.so:brw_compile_tcs
libvulkan_intel.so:brw_compile_tes
libvulkan_intel.so:brw_compile_vs
libvulkan_intel.so:brw_fs_alloc_reg_sets
libvulkan_intel.so:brw_vec4_alloc_reg_set
libvulkan_intel.so:brw_vec4_generate_assembly
libvulkan_intel.so:get_atomic_counter_op
libvulkan_intel.so:type_size_dvec4
libvulkan_intel.so:type_size_scalar
libvulkan_intel.so:type_size_vec4
libvulkan_intel.so:vk_icdGetInstanceProcAddr
libvulkan_intel.so:vk_icdNegotiateLoaderICDInterfaceVersion
libvulkan_radeon.so:vk_icdGetInstanceProcAddr
libvulkan_radeon.so:vk_icdNegotiateLoaderICDInterfaceVersion
libwayland-egl.so.1:wl_egl_window_create
libwayland-egl.so.1:wl_egl_window_destroy
libwayland-egl.so.1:wl_egl_window_get_attached_size
libwayland-egl.so.1:wl_egl_window_resize
libxatracker.so.2:xa_composite_allocation
libxatracker.so.2:xa_composite_check_accelerated
libxatracker.so.2:xa_composite_done
libxatracker.so.2:xa_composite_prepare
libxatracker.so.2:xa_composite_rect
libxatracker.so.2:xa_context_create
libxatracker.so.2:xa_context_default
libxatracker.so.2:xa_context_destroy
libxatracker.so.2:xa_context_flush
libxatracker.so.2:xa_copy
libxatracker.so.2:xa_copy_done
libxatracker.so.2:xa_copy_prepare
libxatracker.so.2:xa_fence_destroy
libxatracker.so.2:xa_fence_get
libxatracker.so.2:xa_fence_wait
libxatracker.so.2:xa_format_check_supported
libxatracker.so.2:xa_solid
libxatracker.so.2:xa_solid_done
libxatracker.so.2:xa_solid_prepare
libxatracker.so.2:xa_surface_create
libxatracker.so.2:xa_surface_dma
libxatracker.so.2:xa_surface_format
libxatracker.so.2:xa_surface_from_handle
libxatracker.so.2:xa_surface_from_handle2
libxatracker.so.2:xa_surface_handle
libxatracker.so.2:xa_surface_map
libxatracker.so.2:xa_surface_redefine
libxatracker.so.2:xa_surface_ref
libxatracker.so.2:xa_surface_unmap
libxatracker.so.2:xa_surface_unref
libxatracker.so.2:xa_tracker_create
libxatracker.so.2:xa_tracker_destroy
libxatracker.so.2:xa_tracker_version
libxatracker.so.2:xa_yuv_planar_blit
