bsatool:_IO_stdin_used
bsatool:_Z12parseOptionsiPPcR9Arguments
bsatool:_Z7getHashRKNSt7__cxx1112basic_stringIcSt11char_traitsIcESaIcEEE
bsatool:_ZN3Bsa17CompressedBSAFile10FileRecordC1Ev
bsatool:_ZN3Bsa17CompressedBSAFile10FileRecordC2Ev
bsatool:_ZN3Bsa17CompressedBSAFile10readHeaderEv
bsatool:_ZN3Bsa17CompressedBSAFile11getBZStringERNSt7__cxx1112basic_stringIcSt11char_traitsIcESaIcEEERSi
bsatool:_ZN3Bsa17CompressedBSAFile12generateHashENSt7__cxx1112basic_stringIcSt11char_traitsIcESaIcEEES6_
bsatool:_ZN3Bsa17CompressedBSAFile13detectVersionERKNSt7__cxx1112basic_stringIcSt11char_traitsIcESaIcEEE
bsatool:_ZN3Bsa17CompressedBSAFile14sInvalidOffsetE
bsatool:_ZN3Bsa17CompressedBSAFile15sCompressedFlagE
bsatool:_ZN3Bsa17CompressedBSAFile36convertCompressedSizesToUncompressedEv
bsatool:_ZN3Bsa17CompressedBSAFile7addFileERKNSt7__cxx1112basic_stringIcSt11char_traitsIcESaIcEEERSi
bsatool:_ZN3Bsa17CompressedBSAFile7getFileEPKNS_7BSAFile10FileStructE
bsatool:_ZN3Bsa17CompressedBSAFile7getFileEPKc
bsatool:_ZN3Bsa17CompressedBSAFile7getFileERKNS0_10FileRecordE
bsatool:_ZN3Bsa17CompressedBSAFileC1Ev
bsatool:_ZN3Bsa17CompressedBSAFileC2Ev
bsatool:_ZN3Bsa17CompressedBSAFileD0Ev
bsatool:_ZN3Bsa17CompressedBSAFileD1Ev
bsatool:_ZN3Bsa17CompressedBSAFileD2Ev
bsatool:_ZN3Bsa7BSAFile10readHeaderEv
bsatool:_ZN3Bsa7BSAFile11writeHeaderEv
bsatool:_ZN3Bsa7BSAFile4failERKNSt7__cxx1112basic_stringIcSt11char_traitsIcESaIcEEE
bsatool:_ZN3Bsa7BSAFile4openERKNSt7__cxx1112basic_stringIcSt11char_traitsIcESaIcEEE
bsatool:_ZN3Bsa7BSAFile5closeEv
bsatool:_ZN3Bsa7BSAFile7addFileERKNSt7__cxx1112basic_stringIcSt11char_traitsIcESaIcEEERSi
bsatool:_ZN3Bsa7BSAFile7getFileEPKNS0_10FileStructE
bsatool:_ZN5Files24ConstrainedFileStreamBuf7seekoffElSt12_Ios_SeekdirSt13_Ios_Openmode
bsatool:_ZN5Files24ConstrainedFileStreamBuf7seekposESt4fposI11__mbstate_tESt13_Ios_Openmode
bsatool:_ZN5Files24ConstrainedFileStreamBuf9underflowEv
bsatool:_ZN5Files24ConstrainedFileStreamBufC1ERKNSt7__cxx1112basic_stringIcSt11char_traitsIcESaIcEEEmm
bsatool:_ZN5Files24ConstrainedFileStreamBufC2ERKNSt7__cxx1112basic_stringIcSt11char_traitsIcESaIcEEEmm
bsatool:_ZN5Files25openConstrainedFileStreamERKNSt7__cxx1112basic_stringIcSt11char_traitsIcESaIcEEEmm
bsatool:_ZN5boost9function1IvRKNSt7__cxx1112basic_stringIcSt11char_traitsIcESaIcEEEE5dummy7nonnullEv
bsatool:_ZN5boost9function1IvRKSt6vectorINSt7__cxx1112basic_stringIcSt11char_traitsIcESaIcEEESaIS7_EEE5dummy7nonnullEv
bsatool:_ZN8Platform4File4openEPKc
bsatool:_ZN8Platform4File4readENS0_6HandleEPvm
bsatool:_ZN8Platform4File4seekENS0_6HandleEmNS0_8SeekTypeE
bsatool:_ZN8Platform4File4sizeENS0_6HandleE
bsatool:_ZN8Platform4File4tellENS0_6HandleE
bsatool:_ZN8Platform4File5closeENS0_6HandleE
bsatool:_ZNK3Bsa17CompressedBSAFile10FileRecord12isCompressedEb
bsatool:_ZNK3Bsa17CompressedBSAFile10FileRecord29getSizeWithoutCompressionFlagEv
bsatool:_ZNK3Bsa17CompressedBSAFile10FileRecord7isValidEv
bsatool:_ZNK3Bsa17CompressedBSAFile13getFileRecordERKNSt7__cxx1112basic_stringIcSt11char_traitsIcESaIcEEE
bsatool:_ZTIN3Bsa17CompressedBSAFileE
bsatool:_ZTIN3Bsa7BSAFileE
bsatool:_ZTIN5Files24ConstrainedFileStreamBufE
bsatool:_ZTIN5Files6MemBufE
bsatool:_ZTIN5boost10wrapexceptINS_12bad_any_castEEE
bsatool:_ZTIN5boost10wrapexceptINS_15program_options20invalid_option_valueEEE
bsatool:_ZTIN5boost10wrapexceptINS_17bad_function_callEEE
bsatool:_ZTIN5boost10wrapexceptINSt8ios_base7failureB5cxx11EEE
bsatool:_ZTIN5boost10wrapexceptISt11logic_errorEE
bsatool:_ZTIN5boost12bad_any_castE
bsatool:_ZTIN5boost12noncopyable_10base_tokenE
bsatool:_ZTIN5boost12noncopyable_11noncopyableE
bsatool:_ZTIN5boost15program_options16typed_value_baseE
bsatool:_ZTIN5boost15program_options16validation_errorE
bsatool:_ZTIN5boost15program_options20invalid_option_valueE
bsatool:_ZTIN5boost16bad_lexical_castE
bsatool:_ZTIN5boost16exception_detail10clone_baseE
bsatool:_ZTIN5boost17bad_function_callE
bsatool:_ZTIN5boost3any11placeholderE
bsatool:_ZTIN5boost4anys6detail11placeholderE
bsatool:_ZTIN5boost6detail15sp_counted_baseE
bsatool:_ZTIN5boost6system14error_categoryE
bsatool:_ZTIN5boost6system6detail21system_error_categoryE
bsatool:_ZTIN5boost6system6detail22generic_error_categoryE
bsatool:_ZTIN5boost6system6detail22interop_error_categoryE
bsatool:_ZTIN5boost9exceptionE
bsatool:_ZTIN5boost9iostreams14access_controlINS0_6detail12chain_clientINS0_5chainINS0_5inputEcSt11char_traitsIcESaIcEEEEENS0_7public_ENS2_4pub_ISA_EEEE
bsatool:_ZTIN5boost9iostreams16symmetric_filterINS0_6detail22zlib_decompressor_implISaIcEEES4_EE
bsatool:_ZTIN5boost9iostreams17basic_null_deviceIcNS0_5inputEEE
bsatool:_ZTIN5boost9iostreams23basic_zlib_decompressorISaIcEEE
bsatool:_ZTIN5boost9iostreams6detail12chain_clientINS0_5chainINS0_5inputEcSt11char_traitsIcESaIcEEEEE
bsatool:_ZTIN5boost9iostreams6detail12mode_adapterINS0_5inputESiEE
bsatool:_ZTIN5boost9iostreams6detail16linked_streambufIcSt11char_traitsIcEEE
bsatool:_ZTIN5boost9iostreams6detail18indirect_streambufINS0_17basic_null_deviceIcNS0_5inputEEESt11char_traitsIcESaIcES4_EE
bsatool:_ZTIN5boost9iostreams6detail18indirect_streambufINS0_23basic_zlib_decompressorISaIcEEESt11char_traitsIcES4_NS0_5inputEEE
bsatool:_ZTIN5boost9iostreams6detail18indirect_streambufINS1_12mode_adapterINS0_5inputESiEESt11char_traitsIcESaIcES4_EE
bsatool:_ZTIN5boost9iostreams6detail4pub_INS1_12chain_clientINS0_5chainINS0_5inputEcSt11char_traitsIcESaIcEEEEEEE
bsatool:_ZTIN5boost9iostreams6detail8chainbufINS0_5chainINS0_5inputEcSt11char_traitsIcESaIcEEES4_NS0_7public_EEE
bsatool:_ZTINSt7__cxx1112basic_stringIcSt11char_traitsIcESaIcEEE
bsatool:_ZTISt12_Vector_baseINSt7__cxx1112basic_stringIcSt11char_traitsIcESaIcEEESaIS5_EE
bsatool:_ZTISt12_Vector_baseIcSaIcEE
bsatool:_ZTISt6vectorINSt7__cxx1112basic_stringIcSt11char_traitsIcESaIcEEESaIS5_EE
bsatool:_ZTISt6vectorIcSaIcEE
bsatool:_ZTSN3Bsa17CompressedBSAFileE
bsatool:_ZTSN3Bsa17MemoryInputStreamE
bsatool:_ZTSN3Bsa7BSAFileE
bsatool:_ZTSN5Files16StreamWithBufferIN3Bsa17MemoryInputStreamEEE
bsatool:_ZTSN5Files16StreamWithBufferINS_24ConstrainedFileStreamBufEEE
bsatool:_ZTSN5Files24ConstrainedFileStreamBufE
bsatool:_ZTSN5Files6MemBufE
bsatool:_ZTSN5boost10filesystem13basic_fstreamIcSt11char_traitsIcEEE
bsatool:_ZTSN5boost10filesystem14basic_ifstreamIcSt11char_traitsIcEEE
bsatool:_ZTSN5boost10filesystem14basic_ofstreamIcSt11char_traitsIcEEE
bsatool:_ZTSN5boost10wrapexceptINS_12bad_any_castEEE
bsatool:_ZTSN5boost10wrapexceptINS_15program_options20invalid_option_valueEEE
bsatool:_ZTSN5boost10wrapexceptINS_17bad_function_callEEE
bsatool:_ZTSN5boost10wrapexceptINSt8ios_base7failureB5cxx11EEE
bsatool:_ZTSN5boost10wrapexceptISt11logic_errorEE
bsatool:_ZTSN5boost12bad_any_castE
bsatool:_ZTSN5boost12noncopyable_10base_tokenE
bsatool:_ZTSN5boost12noncopyable_11noncopyableE
bsatool:_ZTSN5boost15program_options11typed_valueINSt7__cxx1112basic_stringIcSt11char_traitsIcESaIcEEEcEE
bsatool:_ZTSN5boost15program_options11typed_valueISt6vectorINSt7__cxx1112basic_stringIcSt11char_traitsIcESaIcEEESaIS8_EEcEE
bsatool:_ZTSN5boost15program_options16typed_value_baseE
bsatool:_ZTSN5boost15program_options16validation_errorE
bsatool:_ZTSN5boost15program_options20invalid_option_valueE
bsatool:_ZTSN5boost15program_options5errorE
bsatool:_ZTSN5boost16bad_lexical_castE
bsatool:_ZTSN5boost16exception_detail10clone_baseE
bsatool:_ZTSN5boost17bad_function_callE
bsatool:_ZTSN5boost3any11placeholderE
bsatool:_ZTSN5boost3any6holderISt6vectorINSt7__cxx1112basic_stringIcSt11char_traitsIcESaIcEEESaIS8_EEEE
bsatool:_ZTSN5boost4anys6detail11placeholderE
bsatool:_ZTSN5boost6detail15sp_counted_baseE
bsatool:_ZTSN5boost6detail17sp_counted_impl_pINS_9iostreams16symmetric_filterINS2_6detail22zlib_decompressor_implISaIcEEES6_E4implEEE
bsatool:_ZTSN5boost6detail17sp_counted_impl_pINS_9iostreams6detail10chain_baseINS2_5chainINS2_5inputEcSt11char_traitsIcESaIcEEEcS8_S9_S6_E10chain_implEEE
bsatool:_ZTSN5boost6system14error_categoryE
bsatool:_ZTSN5boost6system6detail21system_error_categoryE
bsatool:_ZTSN5boost6system6detail22generic_error_categoryE
bsatool:_ZTSN5boost6system6detail22interop_error_categoryE
bsatool:_ZTSN5boost9exceptionE
bsatool:_ZTSN5boost9iostreams13stream_bufferINS0_17basic_null_deviceIcNS0_5inputEEESt11char_traitsIcESaIcES3_EE
bsatool:_ZTSN5boost9iostreams13stream_bufferINS0_23basic_zlib_decompressorISaIcEEESt11char_traitsIcES3_NS0_5inputEEE
bsatool:_ZTSN5boost9iostreams13stream_bufferINS0_6detail12mode_adapterINS0_5inputESiEESt11char_traitsIcESaIcES4_EE
bsatool:_ZTSN5boost9iostreams14access_controlINS0_6detail12chain_clientINS0_5chainINS0_5inputEcSt11char_traitsIcESaIcEEEEENS0_7public_ENS2_4pub_ISA_EEEE
bsatool:_ZTSN5boost9iostreams16symmetric_filterINS0_6detail22zlib_decompressor_implISaIcEEES4_EE
bsatool:_ZTSN5boost9iostreams17basic_null_deviceIcNS0_5inputEEE
bsatool:_ZTSN5boost9iostreams19filtering_streambufINS0_5inputEcSt11char_traitsIcESaIcENS0_7public_EEE
bsatool:_ZTSN5boost9iostreams23basic_zlib_decompressorISaIcEEE
bsatool:_ZTSN5boost9iostreams6detail12chain_clientINS0_5chainINS0_5inputEcSt11char_traitsIcESaIcEEEEE
bsatool:_ZTSN5boost9iostreams6detail12mode_adapterINS0_5inputESiEE
bsatool:_ZTSN5boost9iostreams6detail16linked_streambufIcSt11char_traitsIcEEE
bsatool:_ZTSN5boost9iostreams6detail18indirect_streambufINS0_17basic_null_deviceIcNS0_5inputEEESt11char_traitsIcESaIcES4_EE
bsatool:_ZTSN5boost9iostreams6detail18indirect_streambufINS0_23basic_zlib_decompressorISaIcEEESt11char_traitsIcES4_NS0_5inputEEE
bsatool:_ZTSN5boost9iostreams6detail18indirect_streambufINS1_12mode_adapterINS0_5inputESiEESt11char_traitsIcESaIcES4_EE
bsatool:_ZTSN5boost9iostreams6detail4pub_INS1_12chain_clientINS0_5chainINS0_5inputEcSt11char_traitsIcESaIcEEEEEEE
bsatool:_ZTSN5boost9iostreams6detail8chainbufINS0_5chainINS0_5inputEcSt11char_traitsIcESaIcEEES4_NS0_7public_EEE
bsatool:_ZTSNSt7__cxx1112basic_stringIcSt11char_traitsIcESaIcEEE
bsatool:_ZTSSt12_Vector_baseINSt7__cxx1112basic_stringIcSt11char_traitsIcESaIcEEESaIS5_EE
bsatool:_ZTSSt12_Vector_baseIcSaIcEE
bsatool:_ZTSSt6vectorINSt7__cxx1112basic_stringIcSt11char_traitsIcESaIcEEESaIS5_EE
bsatool:_ZTSSt6vectorIcSaIcEE
bsatool:_ZTVN3Bsa17CompressedBSAFileE
bsatool:_ZTVN3Bsa7BSAFileE
bsatool:_ZTVN5Files24ConstrainedFileStreamBufE
bsatool:_ZTVN5boost6system14error_categoryE
bsatool:_ZTVN5boost6system6detail21system_error_categoryE
bsatool:_ZTVN5boost6system6detail22generic_error_categoryE
bsatool:_ZTVN5boost6system6detail22interop_error_categoryE
bsatool:__bss_start
bsatool:__data_start
bsatool:_edata
bsatool:_end
bsatool:_start
bsatool:main
esmtool:_IO_stdin_used
esmtool:_Z10lightFlagsB5cxx11i
esmtool:_Z10skillLabelB5cxx11i
esmtool:_Z10spellFlagsB5cxx11i
esmtool:_Z11aiTypeLabelB5cxx11i
esmtool:_Z11recordFlagsB5cxx11j
esmtool:_Z11schoolLabelB5cxx11i
esmtool:_Z11weaponFlagsB5cxx11i
esmtool:_Z12ruleFunctionB5cxx11i
esmtool:_Z13bodyPartFlagsB5cxx11i
esmtool:_Z13bodyPartLabelB5cxx11i
esmtool:_Z13creatureFlagsB5cxx11i
esmtool:_Z13itemListFlagsB5cxx11i
esmtool:_Z13meshPartLabelB5cxx11i
esmtool:_Z13meshTypeLabelB5cxx11i
esmtool:_Z14armorTypeLabelB5cxx11i
esmtool:_Z14attributeLabelB5cxx11i
esmtool:_Z14containerFlagsB5cxx11i
esmtool:_Z14rangeTypeLabelB5cxx11i
esmtool:_Z14soundTypeLabelB5cxx11i
esmtool:_Z14spellTypeLabelB5cxx11i
esmtool:_Z15dialogTypeLabelB5cxx11i
esmtool:_Z15weaponTypeLabelB5cxx11i
esmtool:_Z16enchantTypeLabelB5cxx11i
esmtool:_Z16enchantmentFlagsB5cxx11i
esmtool:_Z16magicEffectFlagsB5cxx11i
esmtool:_Z16magicEffectLabelB5cxx11i
esmtool:_Z16questStatusLabelB5cxx11i
esmtool:_Z17clothingTypeLabelB5cxx11i
esmtool:_Z17creatureListFlagsB5cxx11i
esmtool:_Z17creatureTypeLabelB5cxx11i
esmtool:_Z18apparatusTypeLabelB5cxx11i
esmtool:_Z19specializationLabelB5cxx11i
esmtool:_Z8npcFlagsB5cxx11i
esmtool:_Z9cellFlagsB5cxx11i
esmtool:_Z9landFlagsB5cxx11i
esmtool:_Z9raceFlagsB5cxx11i
esmtool:_ZN3ESM10EffectList3addERNS_9ESMReaderE
esmtool:_ZN3ESM10EffectList4loadERNS_9ESMReaderE
esmtool:_ZN3ESM10Ingredient4loadERNS_9ESMReaderERb
esmtool:_ZN3ESM10Ingredient5blankEv
esmtool:_ZN3ESM10readFormatERSi
esmtool:_ZN3ESM11Enchantment4loadERNS_9ESMReaderERb
esmtool:_ZN3ESM11Enchantment5blankEv
esmtool:_ZN3ESM11GameSetting4loadERNS_9ESMReaderERb
esmtool:_ZN3ESM11GameSetting5blankEv
esmtool:_ZN3ESM11LandTexture4loadERNS_9ESMReaderERb
esmtool:_ZN3ESM11LandTexture5blankEv
esmtool:_ZN3ESM11MagicEffect16effectIdToStringB5cxx11Es
esmtool:_ZN3ESM11MagicEffect16effectStringToIdESt17basic_string_viewIcSt11char_traitsIcEE
esmtool:_ZN3ESM11MagicEffect17getWeaknessEffectEs
esmtool:_ZN3ESM11MagicEffect19getResistanceEffectEs
esmtool:_ZN3ESM11MagicEffect4loadERNS_9ESMReaderERb
esmtool:_ZN3ESM11MagicEffect5blankEv
esmtool:_ZN3ESM11MagicEffect6sNamesB5cxx11E
esmtool:_ZN3ESM11MagicEffect9indexToIdB5cxx11Ei
esmtool:_ZN3ESM11StartScript4loadERNS_9ESMReaderERb
esmtool:_ZN3ESM11StartScript5blankEv
esmtool:_ZN3ESM11parseFormatESt17basic_string_viewIcSt11char_traitsIcEE
esmtool:_ZN3ESM12ReadersCache3getEm
esmtool:_ZN3ESM12ReadersCache8BusyItemC1ERS0_St14_List_iteratorINS0_4ItemEE
esmtool:_ZN3ESM12ReadersCache8BusyItemC2ERS0_St14_List_iteratorINS0_4ItemEE
esmtool:_ZN3ESM12ReadersCache8BusyItemD1Ev
esmtool:_ZN3ESM12ReadersCache8BusyItemD2Ev
esmtool:_ZN3ESM12ReadersCacheC1Em
esmtool:_ZN3ESM12ReadersCacheC2Em
esmtool:_ZN3ESM13AIPackageList3addERNS_9ESMReaderE
esmtool:_ZN3ESM13InventoryList3addERNS_9ESMReaderE
esmtool:_ZN3ESM13Miscellaneous4loadERNS_9ESMReaderERb
esmtool:_ZN3ESM13Miscellaneous5blankEv
esmtool:_ZN3ESM14SoundGenerator4loadERNS_9ESMReaderERb
esmtool:_ZN3ESM14SoundGenerator5blankEv
esmtool:_ZN3ESM15skipLoadCellRefERNS_9ESMReaderEb
esmtool:_ZN3ESM16LevelledListBase4loadERNS_9ESMReaderENS_11FixedStringILm4EEERb
esmtool:_ZN3ESM16LevelledListBase5blankEv
esmtool:_ZN3ESM17PartReferenceList3addERNS_9ESMReaderE
esmtool:_ZN3ESM17PartReferenceList4loadERNS_9ESMReaderE
esmtool:_ZN3ESM19readESMVariantValueERNS_9ESMReaderENS_7Variant6FormatENS_7VarTypeERNSt7__cxx1112basic_stringIcSt11char_traitsIcESaIcEEE
esmtool:_ZN3ESM19readESMVariantValueERNS_9ESMReaderENS_7Variant6FormatENS_7VarTypeERf
esmtool:_ZN3ESM19readESMVariantValueERNS_9ESMReaderENS_7Variant6FormatENS_7VarTypeERi
esmtool:_ZN3ESM20transposeTextureDataEPKtPt
esmtool:_ZN3ESM20writeESMVariantValueERNS_9ESMWriterENS_7Variant6FormatENS_7VarTypeERKNSt7__cxx1112basic_stringIcSt11char_traitsIcESaIcEEE
esmtool:_ZN3ESM20writeESMVariantValueERNS_9ESMWriterENS_7Variant6FormatENS_7VarTypeEf
esmtool:_ZN3ESM20writeESMVariantValueERNS_9ESMWriterENS_7Variant6FormatENS_7VarTypeEi
esmtool:_ZN3ESM3NPC4loadERNS_9ESMReaderERb
esmtool:_ZN3ESM3NPC5blankEv
esmtool:_ZN3ESM3NPC9blankNpdtEv
esmtool:_ZN3ESM3NPC9setIsMaleEb
esmtool:_ZN3ESM4Book4loadERNS_9ESMReaderERb
esmtool:_ZN3ESM4Book5blankEv
esmtool:_ZN3ESM4Cell10getNextRefERNS_9ESMReaderERNS_7CellRefERb
esmtool:_ZN3ESM4Cell10getNextRefERNS_9ESMReaderERNS_7CellRefERbRNS_12MovedCellRefES5_NS0_14GetNextRefModeE
esmtool:_ZN3ESM4Cell11getNextMVRFERNS_9ESMReaderERNS_12MovedCellRefE
esmtool:_ZN3ESM4Cell15loadNameAndDataERNS_9ESMReaderERb
esmtool:_ZN3ESM4Cell4loadERNS_9ESMReaderERbb
esmtool:_ZN3ESM4Cell5blankEv
esmtool:_ZN3ESM4Cell8loadCellERNS_9ESMReaderEb
esmtool:_ZN3ESM4Cell8postLoadERNS_9ESMReaderE
esmtool:_ZN3ESM4Door4loadERNS_9ESMReaderERb
esmtool:_ZN3ESM4Door5blankEv
esmtool:_ZN3ESM4Land11getLandDataEv
esmtool:_ZN3ESM4Land3addEi
esmtool:_ZN3ESM4Land4loadERNS_9ESMReaderERb
esmtool:_ZN3ESM4Land4swapERS0_
esmtool:_ZN3ESM4Land5blankEv
esmtool:_ZN3ESM4Land6removeEi
esmtool:_ZN3ESM4LandC1ERKS0_
esmtool:_ZN3ESM4LandC1Ev
esmtool:_ZN3ESM4LandC2ERKS0_
esmtool:_ZN3ESM4LandC2Ev
esmtool:_ZN3ESM4LandD1Ev
esmtool:_ZN3ESM4LandD2Ev
esmtool:_ZN3ESM4LandaSERKS0_
esmtool:_ZN3ESM4Race4loadERNS_9ESMReaderERb
esmtool:_ZN3ESM4Race5blankEv
esmtool:_ZN3ESM5Armor4loadERNS_9ESMReaderERb
esmtool:_ZN3ESM5Armor5blankEv
esmtool:_ZN3ESM5Class10CLDTstruct8getSkillEib
esmtool:_ZN3ESM5Class18sSpecializationIdsE
esmtool:_ZN3ESM5Class22sGmstSpecializationIdsE
esmtool:_ZN3ESM5Class4loadERNS_9ESMReaderERb
esmtool:_ZN3ESM5Class5blankEv
esmtool:_ZN3ESM5Light4loadERNS_9ESMReaderERb
esmtool:_ZN3ESM5Light5blankEv
esmtool:_ZN3ESM5Probe4loadERNS_9ESMReaderERb
esmtool:_ZN3ESM5Probe5blankEv
esmtool:_ZN3ESM5Skill10sIconNamesB5cxx11E
esmtool:_ZN3ESM5Skill11sSkillNamesB5cxx11E
esmtool:_ZN3ESM5Skill13sSkillNameIdsB5cxx11E
esmtool:_ZN3ESM5Skill4loadERNS_9ESMReaderERb
esmtool:_ZN3ESM5Skill5blankEv
esmtool:_ZN3ESM5Skill9indexToIdB5cxx11Ei
esmtool:_ZN3ESM5Skill9sSkillIdsE
esmtool:_ZN3ESM5Sound4loadERNS_9ESMReaderERb
esmtool:_ZN3ESM5Sound5blankEv
esmtool:_ZN3ESM5Spell4loadERNS_9ESMReaderERb
esmtool:_ZN3ESM5Spell5blankEv
esmtool:_ZN3ESM6AIData5blankEv
esmtool:_ZN3ESM6CellId18sDefaultWorldspaceB5cxx11E
esmtool:_ZN3ESM6CellId4loadERNS_9ESMReaderE
esmtool:_ZN3ESM6Global4loadERNS_9ESMReaderERb
esmtool:_ZN3ESM6Global5blankEv
esmtool:_ZN3ESM6Header4loadERNS_9ESMReaderE
esmtool:_ZN3ESM6Header4saveERNS_9ESMWriterE
esmtool:_ZN3ESM6Header5blankEv
esmtool:_ZN3ESM6Potion4loadERNS_9ESMReaderERb
esmtool:_ZN3ESM6Potion5blankEv
esmtool:_ZN3ESM6Reader13getStringImplERNSt7__cxx1112basic_stringIcSt11char_traitsIcESaIcEEEmRSiPKN6ToUTF820StatelessUtf8EncoderEb
esmtool:_ZN3ESM6Reader9getReaderERKNSt7__cxx1112basic_stringIcSt11char_traitsIcESaIcEEE
esmtool:_ZN3ESM6RefNum4loadERNS_9ESMReaderEbNS_11FixedStringILm4EEE
esmtool:_ZN3ESM6Region4loadERNS_9ESMReaderERb
esmtool:_ZN3ESM6Region5blankEv
esmtool:_ZN3ESM6Repair4loadERNS_9ESMReaderERb
esmtool:_ZN3ESM6Repair5blankEv
esmtool:_ZN3ESM6Script4loadERNS_9ESMReaderERb
esmtool:_ZN3ESM6Script5blankEv
esmtool:_ZN3ESM6Script8loadSCVRERNS_9ESMReaderE
esmtool:_ZN3ESM6Static4loadERNS_9ESMReaderERb
esmtool:_ZN3ESM6Static5blankEv
esmtool:_ZN3ESM6Weapon4loadERNS_9ESMReaderERb
esmtool:_ZN3ESM6Weapon5blankEv
esmtool:_ZN3ESM7CellRef4loadERNS_9ESMReaderERbb
esmtool:_ZN3ESM7CellRef5blankEv
esmtool:_ZN3ESM7CellRef6loadIdERNS_9ESMReaderEb
esmtool:_ZN3ESM7CellRef8loadDataERNS_9ESMReaderERb
esmtool:_ZN3ESM7Faction10FADTstruct8getSkillEib
esmtool:_ZN3ESM7Faction4loadERNS_9ESMReaderERb
esmtool:_ZN3ESM7Faction5blankEv
esmtool:_ZN3ESM7Variant10setIntegerEi
esmtool:_ZN3ESM7Variant4readERNS_9ESMReaderENS0_6FormatE
esmtool:_ZN3ESM7Variant7setTypeENS_7VarTypeE
esmtool:_ZN3ESM7Variant8setFloatEf
esmtool:_ZN3ESM7Variant9setStringEONSt7__cxx1112basic_stringIcSt11char_traitsIcESaIcEEE
esmtool:_ZN3ESM7Variant9setStringERKNSt7__cxx1112basic_stringIcSt11char_traitsIcESaIcEEE
esmtool:_ZN3ESM8BodyPart4loadERNS_9ESMReaderERb
esmtool:_ZN3ESM8BodyPart5blankEv
esmtool:_ZN3ESM8Clothing4loadERNS_9ESMReaderERb
esmtool:_ZN3ESM8Clothing5blankEv
esmtool:_ZN3ESM8Creature4loadERNS_9ESMReaderERb
esmtool:_ZN3ESM8Creature5blankEv
esmtool:_ZN3ESM8DialInfo4loadERNS_9ESMReaderERb
esmtool:_ZN3ESM8DialInfo5blankEv
esmtool:_ZN3ESM8Dialogue17clearDeletedInfosEv
esmtool:_ZN3ESM8Dialogue4loadERNS_9ESMReaderERb
esmtool:_ZN3ESM8Dialogue5blankEv
esmtool:_ZN3ESM8Dialogue6loadIdERNS_9ESMReaderE
esmtool:_ZN3ESM8Dialogue8loadDataERNS_9ESMReaderERb
esmtool:_ZN3ESM8Dialogue8readInfoERNS_9ESMReaderEb
esmtool:_ZN3ESM8Lockpick4loadERNS_9ESMReaderERb
esmtool:_ZN3ESM8Lockpick5blankEv
esmtool:_ZN3ESM8Pathgrid4loadERNS_9ESMReaderERb
esmtool:_ZN3ESM8Pathgrid5PointC1EPKf
esmtool:_ZN3ESM8Pathgrid5PointC1Ev
esmtool:_ZN3ESM8Pathgrid5PointC2EPKf
esmtool:_ZN3ESM8Pathgrid5PointC2Ev
esmtool:_ZN3ESM8Pathgrid5PointaSEPKf
esmtool:_ZN3ESM8Pathgrid5blankEv
esmtool:_ZN3ESM9Activator4loadERNS_9ESMReaderERb
esmtool:_ZN3ESM9Activator5blankEv
esmtool:_ZN3ESM9Apparatus4loadERNS_9ESMReaderERb
esmtool:_ZN3ESM9Apparatus5blankEv
esmtool:_ZN3ESM9BirthSign4loadERNS_9ESMReaderERb
esmtool:_ZN3ESM9BirthSign5blankEv
esmtool:_ZN3ESM9Container4loadERNS_9ESMReaderERb
esmtool:_ZN3ESM9Container5blankEv
esmtool:_ZN3ESM9ESMReader10getContextEv
esmtool:_ZN3ESM9ESMReader10getHNExactEPviNS_11FixedStringILm4EEE
esmtool:_ZN3ESM9ESMReader10getHStringB5cxx11Ev
esmtool:_ZN3ESM9ESMReader10getRecNameEv
esmtool:_ZN3ESM9ESMReader10getSubNameEv
esmtool:_ZN3ESM9ESMReader10skipRecordEv
esmtool:_ZN3ESM9ESMReader11getHNStringB5cxx11ENS_11FixedStringILm4EEE
esmtool:_ZN3ESM9ESMReader11peekNextSubENS_11FixedStringILm4EEE
esmtool:_ZN3ESM9ESMReader11skipHStringEv
esmtool:_ZN3ESM9ESMReader12getHNOStringB5cxx11ENS_11FixedStringILm4EEE
esmtool:_ZN3ESM9ESMReader12getRecHeaderERj
esmtool:_ZN3ESM9ESMReader12getSubHeaderEv
esmtool:_ZN3ESM9ESMReader12getSubNameIsENS_11FixedStringILm4EEE
esmtool:_ZN3ESM9ESMReader12skipHSubSizeEi
esmtool:_ZN3ESM9ESMReader13getStringViewEm
esmtool:_ZN3ESM9ESMReader13skipHNOStringENS_11FixedStringILm4EEE
esmtool:_ZN3ESM9ESMReader13skipHSubUntilENS_11FixedStringILm4EEE
esmtool:_ZN3ESM9ESMReader14restoreContextERKNS_11ESM_ContextE
esmtool:_ZN3ESM9ESMReader23getMaybeFixedStringSizeB5cxx11Em
esmtool:_ZN3ESM9ESMReader24resolveParentFileIndicesERNS_12ReadersCacheE
esmtool:_ZN3ESM9ESMReader4failERKNSt7__cxx1112basic_stringIcSt11char_traitsIcESaIcEEE
esmtool:_ZN3ESM9ESMReader4openEOSt10unique_ptrISiSt14default_deleteISiEERKNSt7__cxx1112basic_stringIcSt11char_traitsIcESaIcEEE
esmtool:_ZN3ESM9ESMReader4openERKNSt7__cxx1112basic_stringIcSt11char_traitsIcESaIcEEE
esmtool:_ZN3ESM9ESMReader5closeEv
esmtool:_ZN3ESM9ESMReader7openRawEOSt10unique_ptrISiSt14default_deleteISiEESt17basic_string_viewIcSt11char_traitsIcEE
esmtool:_ZN3ESM9ESMReader7openRawESt17basic_string_viewIcSt11char_traitsIcEE
esmtool:_ZN3ESM9ESMReader8clearCtxEv
esmtool:_ZN3ESM9ESMReader8skipHSubEv
esmtool:_ZN3ESM9ESMReader9getHExactEPvi
esmtool:_ZN3ESM9ESMReader9getStringB5cxx11Ei
esmtool:_ZN3ESM9ESMReader9isNextSubENS_11FixedStringILm4EEE
esmtool:_ZN3ESM9ESMReaderC1Ev
esmtool:_ZN3ESM9ESMReaderC2Ev
esmtool:_ZN3ESM9ESMWriter10setEncoderEPN6ToUTF811Utf8EncoderE
esmtool:_ZN3ESM9ESMWriter10setVersionEj
esmtool:_ZN3ESM9ESMWriter11clearMasterEv
esmtool:_ZN3ESM9ESMWriter11startRecordENS_11FixedStringILm4EEEj
esmtool:_ZN3ESM9ESMWriter11startRecordEjj
esmtool:_ZN3ESM9ESMWriter12writeHStringERKNSt7__cxx1112basic_stringIcSt11char_traitsIcESaIcEEE
esmtool:_ZN3ESM9ESMWriter13writeHCStringERKNSt7__cxx1112basic_stringIcSt11char_traitsIcESaIcEEE
esmtool:_ZN3ESM9ESMWriter13writeHNStringENS_11FixedStringILm4EEERKNSt7__cxx1112basic_stringIcSt11char_traitsIcESaIcEEE
esmtool:_ZN3ESM9ESMWriter13writeHNStringENS_11FixedStringILm4EEERKNSt7__cxx1112basic_stringIcSt11char_traitsIcESaIcEEEm
esmtool:_ZN3ESM9ESMWriter14setDescriptionERKNSt7__cxx1112basic_stringIcSt11char_traitsIcESaIcEEE
esmtool:_ZN3ESM9ESMWriter14setRecordCountEi
esmtool:_ZN3ESM9ESMWriter14startSubRecordENS_11FixedStringILm4EEE
esmtool:_ZN3ESM9ESMWriter20writeFixedSizeStringERKNSt7__cxx1112basic_stringIcSt11char_traitsIcESaIcEEEi
esmtool:_ZN3ESM9ESMWriter4saveERSo
esmtool:_ZN3ESM9ESMWriter5closeEv
esmtool:_ZN3ESM9ESMWriter5writeEPKcm
esmtool:_ZN3ESM9ESMWriter7setTypeEi
esmtool:_ZN3ESM9ESMWriter9addMasterERKNSt7__cxx1112basic_stringIcSt11char_traitsIcESaIcEEEm
esmtool:_ZN3ESM9ESMWriter9endRecordENS_11FixedStringILm4EEE
esmtool:_ZN3ESM9ESMWriter9endRecordEj
esmtool:_ZN3ESM9ESMWriter9setAuthorERKNSt7__cxx1112basic_stringIcSt11char_traitsIcESaIcEEE
esmtool:_ZN3ESM9ESMWriter9setFormatEi
esmtool:_ZN3ESM9ESMWriter9writeNameENS_11FixedStringILm4EEE
esmtool:_ZN3ESM9ESMWriterC1Ev
esmtool:_ZN3ESM9ESMWriterC2Ev
esmtool:_ZN3ESM9SpellList3addERNS_9ESMReaderE
esmtool:_ZN3ESM9Transport3addERNS_9ESMReaderE
esmtool:_ZN3ESM9printNameB5cxx11Ej
esmtool:_ZN3ESMeqERKNS_11GameSettingES2_
esmtool:_ZN3ESMeqERKNS_12MovedCellRefERKNS_6RefNumE
esmtool:_ZN3ESMeqERKNS_6CellIdES2_
esmtool:_ZN3ESMeqERKNS_6GlobalES2_
esmtool:_ZN3ESMeqERKNS_7CellRefERKNS_6RefNumE
esmtool:_ZN3ESMlsERSoRKNS_7VariantE
esmtool:_ZN3ESMltERKNS_6CellIdES2_
esmtool:_ZN3ESMneERKNS_6CellIdES2_
esmtool:_ZN3LogC1EN5Debug5LevelE
esmtool:_ZN3LogC2EN5Debug5LevelE
esmtool:_ZN3LogD1Ev
esmtool:_ZN3LogD2Ev
esmtool:_ZN4ESM410Ammunition4loadERNS_6ReaderE
esmtool:_ZN4ESM410AnimObject4loadERNS_6ReaderE
esmtool:_ZN4ESM410ArmorAddon4loadERNS_6ReaderE
esmtool:_ZN4ESM410DefaultObj4loadERNS_6ReaderE
esmtool:_ZN4ESM410DialogInfo4loadERNS_6ReaderE
esmtool:_ZN4ESM410FormIdList4loadERNS_6ReaderE
esmtool:_ZN4ESM410IdleMarker4loadERNS_6ReaderE
esmtool:_ZN4ESM410Ingredient4loadERNS_6ReaderE
esmtool:_ZN4ESM410Navigation10IslandInfo4loadERNS_6ReaderE
esmtool:_ZN4ESM410Navigation11NavMeshInfo4loadERNS_6ReaderE
esmtool:_ZN4ESM410Navigation4loadERNS_6ReaderE
esmtool:_ZN4ESM410SigilStone4loadERNS_6ReaderE
esmtool:_ZN4ESM410TextureSet4loadERNS_6ReaderE
esmtool:_ZN4ESM411LandTexture4loadERNS_6ReaderE
esmtool:_ZN4ESM411LevelledNpc4loadERNS_6ReaderE
esmtool:_ZN4ESM412BodyPartData4loadERNS_6ReaderE
esmtool:_ZN4ESM412BodyPartData8BodyPart5clearEv
esmtool:_ZN4ESM412LevelledItem4loadERNS_6ReaderE
esmtool:_ZN4ESM413AcousticSpace4loadERNS_6ReaderE
esmtool:_ZN4ESM413ActorCreature4loadERNS_6ReaderE
esmtool:_ZN4ESM413MovableStatic4loadERNS_6ReaderE
esmtool:_ZN4ESM413PlacedGrenade4loadERNS_6ReaderE
esmtool:_ZN4ESM413ReaderContextC1Ev
esmtool:_ZN4ESM413ReaderContextC2Ev
esmtool:_ZN4ESM414ActorCharacter4loadERNS_6ReaderE
esmtool:_ZN4ESM414GlobalVariable4loadERNS_6ReaderE
esmtool:_ZN4ESM414PlaceableWater4loadERNS_6ReaderE
esmtool:_ZN4ESM414SoundReference4loadERNS_6ReaderE
esmtool:_ZN4ESM414formIdToStringB5cxx11Ej
esmtool:_ZN4ESM414formIdToStringEjRNSt7__cxx1112basic_stringIcSt11char_traitsIcESaIcEEE
esmtool:_ZN4ESM414stringToFormIdERKNSt7__cxx1112basic_stringIcSt11char_traitsIcESaIcEEE
esmtool:_ZN4ESM416LevelledCreature4loadERNS_6ReaderE
esmtool:_ZN4ESM416LightingTemplate4loadERNS_6ReaderE
esmtool:_ZN4ESM416StaticCollection4loadERNS_6ReaderE
esmtool:_ZN4ESM416TalkingActivator4loadERNS_6ReaderE
esmtool:_ZN4ESM423MediaLocationController4loadERNS_6ReaderE
esmtool:_ZN4ESM43Key4loadERNS_6ReaderE
esmtool:_ZN4ESM43Npc4loadERNS_6ReaderE
esmtool:_ZN4ESM44Book4loadERNS_6ReaderE
esmtool:_ZN4ESM44Cell4loadERNS_6ReaderE
esmtool:_ZN4ESM44Cell5blankEv
esmtool:_ZN4ESM44Door4loadERNS_6ReaderE
esmtool:_ZN4ESM44Eyes4loadERNS_6ReaderE
esmtool:_ZN4ESM44Hair4loadERNS_6ReaderE
esmtool:_ZN4ESM44Land4loadERNS_6ReaderE
esmtool:_ZN4ESM44Note4loadERNS_6ReaderE
esmtool:_ZN4ESM44Race4loadERNS_6ReaderE
esmtool:_ZN4ESM44Road4loadERNS_6ReaderE
esmtool:_ZN4ESM44Tree4loadERNS_6ReaderE
esmtool:_ZN4ESM45Armor4loadERNS_6ReaderE
esmtool:_ZN4ESM45Class4loadERNS_6ReaderE
esmtool:_ZN4ESM45Flora4loadERNS_6ReaderE
esmtool:_ZN4ESM45Grass4loadERNS_6ReaderE
esmtool:_ZN4ESM45Light4loadERNS_6ReaderE
esmtool:_ZN4ESM45Music4loadERNS_6ReaderE
esmtool:_ZN4ESM45Quest4loadERNS_6ReaderE
esmtool:_ZN4ESM45Sound4loadERNS_6ReaderE
esmtool:_ZN4ESM45World4loadERNS_6ReaderE
esmtool:_ZN4ESM46Colour4loadERNS_6ReaderE
esmtool:_ZN4ESM46Header4loadERNS_6ReaderE
esmtool:_ZN4ESM46Outfit4loadERNS_6ReaderE
esmtool:_ZN4ESM46Potion4loadERNS_6ReaderE
esmtool:_ZN4ESM46Reader10enterGroupEv
esmtool:_ZN4ESM46Reader10getContextEv
esmtool:_ZN4ESM46Reader12adjustFormIdERj
esmtool:_ZN4ESM46Reader13getRecordDataEb
esmtool:_ZN4ESM46Reader13skipGroupDataEv
esmtool:_ZN4ESM46Reader14exitGroupCheckEv
esmtool:_ZN4ESM46Reader14restoreContextERKNS_13ReaderContextE
esmtool:_ZN4ESM46Reader14skipRecordDataEv
esmtool:_ZN4ESM46Reader15getRecordHeaderEv
esmtool:_ZN4ESM46Reader16adjustGRUPFormIdEv
esmtool:_ZN4ESM46Reader16setRecHeaderSizeEm
esmtool:_ZN4ESM46Reader16updateModIndicesERKSt6vectorINSt7__cxx1112basic_stringIcSt11char_traitsIcESaIcEEESaIS7_EE
esmtool:_ZN4ESM46Reader17buildLStringIndexERKNSt7__cxx1112basic_stringIcSt11char_traitsIcESaIcEEENS0_19LocalizedStringTypeE
esmtool:_ZN4ESM46Reader17buildLStringIndexEv
esmtool:_ZN4ESM46Reader17skipSubRecordDataEj
esmtool:_ZN4ESM46Reader17skipSubRecordDataEv
esmtool:_ZN4ESM46Reader18getLocalizedStringERNSt7__cxx1112basic_stringIcSt11char_traitsIcESaIcEEE
esmtool:_ZN4ESM46Reader18getSubRecordHeaderEv
esmtool:_ZN4ESM46Reader22getLocalizedStringImplEjRNSt7__cxx1112basic_stringIcSt11char_traitsIcESaIcEEE
esmtool:_ZN4ESM46Reader4failERKNSt7__cxx1112basic_stringIcSt11char_traitsIcESaIcEEE
esmtool:_ZN4ESM46Reader4openEOSt10unique_ptrISiSt14default_deleteISiEERKNSt7__cxx1112basic_stringIcSt11char_traitsIcESaIcEEE
esmtool:_ZN4ESM46Reader4openERKNSt7__cxx1112basic_stringIcSt11char_traitsIcESaIcEEE
esmtool:_ZN4ESM46Reader5closeEv
esmtool:_ZN4ESM46Reader7openRawEOSt10unique_ptrISiSt14default_deleteISiEERKNSt7__cxx1112basic_stringIcSt11char_traitsIcESaIcEEE
esmtool:_ZN4ESM46Reader7openRawERKNSt7__cxx1112basic_stringIcSt11char_traitsIcESaIcEEE
esmtool:_ZN4ESM46Reader9getFormIdERj
esmtool:_ZN4ESM46Reader9skipGroupEv
esmtool:_ZN4ESM46ReaderC1EOSt10unique_ptrISiSt14default_deleteISiEERKNSt7__cxx1112basic_stringIcSt11char_traitsIcESaIcEEE
esmtool:_ZN4ESM46ReaderC2EOSt10unique_ptrISiSt14default_deleteISiEERKNSt7__cxx1112basic_stringIcSt11char_traitsIcESaIcEEE
esmtool:_ZN4ESM46ReaderD0Ev
esmtool:_ZN4ESM46ReaderD1Ev
esmtool:_ZN4ESM46ReaderD2Ev
esmtool:_ZN4ESM46Region4loadERNS_6ReaderE
esmtool:_ZN4ESM46Region5blankEv
esmtool:_ZN4ESM46Script4loadERNS_6ReaderE
esmtool:_ZN4ESM46Scroll4loadERNS_6ReaderE
esmtool:_ZN4ESM46Static4loadERNS_6ReaderE
esmtool:_ZN4ESM46Weapon4loadERNS_6ReaderE
esmtool:_ZN4ESM47ItemMod4loadERNS_6ReaderE
esmtool:_ZN4ESM47NavMesh10NVNMstruct4loadERNS_6ReaderE
esmtool:_ZN4ESM47NavMesh4loadERNS_6ReaderE
esmtool:_ZN4ESM47NavMesh5blankEv
esmtool:_ZN4ESM47SoulGem4loadERNS_6ReaderE
esmtool:_ZN4ESM48Clothing4loadERNS_6ReaderE
esmtool:_ZN4ESM48Creature4loadERNS_6ReaderE
esmtool:_ZN4ESM48Dialogue4loadERNS_6ReaderE
esmtool:_ZN4ESM48HeadPart4loadERNS_6ReaderE
esmtool:_ZN4ESM48Material4loadERNS_6ReaderE
esmtool:_ZN4ESM48MediaSet4loadERNS_6ReaderE
esmtool:_ZN4ESM48MiscItem4loadERNS_6ReaderE
esmtool:_ZN4ESM48Pathgrid4loadERNS_6ReaderE
esmtool:_ZN4ESM48SubSpace4loadERNS_6ReaderE
esmtool:_ZN4ESM48Terminal4loadERNS_6ReaderE
esmtool:_ZN4ESM48isFormIdERKNSt7__cxx1112basic_stringIcSt11char_traitsIcESaIcEEEPj
esmtool:_ZN4ESM49AIPackage4loadERNS_6ReaderE
esmtool:_ZN4ESM49Activator4loadERNS_6ReaderE
esmtool:_ZN4ESM49Apparatus4loadERNS_6ReaderE
esmtool:_ZN4ESM49Container4loadERNS_6ReaderE
esmtool:_ZN4ESM49Furniture4loadERNS_6ReaderE
esmtool:_ZN4ESM49Reference4loadERNS_6ReaderE
esmtool:_ZN4ESM49Reference5blankEv
esmtool:_ZN5Debug17CurrentDebugLevelE
esmtool:_ZN5Files24ConstrainedFileStreamBuf7seekoffElSt12_Ios_SeekdirSt13_Ios_Openmode
esmtool:_ZN5Files24ConstrainedFileStreamBuf7seekposESt4fposI11__mbstate_tESt13_Ios_Openmode
esmtool:_ZN5Files24ConstrainedFileStreamBuf9underflowEv
esmtool:_ZN5Files24ConstrainedFileStreamBufC1ERKNSt7__cxx1112basic_stringIcSt11char_traitsIcESaIcEEEmm
esmtool:_ZN5Files24ConstrainedFileStreamBufC2ERKNSt7__cxx1112basic_stringIcSt11char_traitsIcESaIcEEEmm
esmtool:_ZN5Files25openBinaryInputFileStreamERKNSt7__cxx1112basic_stringIcSt11char_traitsIcESaIcEEE
esmtool:_ZN5Files25openConstrainedFileStreamERKNSt7__cxx1112basic_stringIcSt11char_traitsIcESaIcEEEmm
esmtool:_ZN5boost9function1IvRKNSt7__cxx1112basic_stringIcSt11char_traitsIcESaIcEEEE5dummy7nonnullEv
esmtool:_ZN5boost9function1IvRKSt6vectorINSt7__cxx1112basic_stringIcSt11char_traitsIcESaIcEEESaIS7_EEE5dummy7nonnullEv
esmtool:_ZN6ToUTF811Utf8Encoder12getLegacyEncESt17basic_string_viewIcSt11char_traitsIcEE
esmtool:_ZN6ToUTF811Utf8Encoder7getUtf8ESt17basic_string_viewIcSt11char_traitsIcEE
esmtool:_ZN6ToUTF811Utf8EncoderC1ENS_8FromTypeE
esmtool:_ZN6ToUTF811Utf8EncoderC2ENS_8FromTypeE
esmtool:_ZN6ToUTF817calculateEncodingESt17basic_string_viewIcSt11char_traitsIcEE
esmtool:_ZN6ToUTF820StatelessUtf8EncoderC1ENS_8FromTypeE
esmtool:_ZN6ToUTF820StatelessUtf8EncoderC2ENS_8FromTypeE
esmtool:_ZN6ToUTF820encodingUsingMessageB5cxx11ESt17basic_string_viewIcSt11char_traitsIcEE
esmtool:_ZN7EsmTool10RecordBase6createEN3ESM11FixedStringILm4EEE
esmtool:_ZN7EsmTool6RecordIN3ESM10IngredientEE5printEv
esmtool:_ZN7EsmTool6RecordIN3ESM11EnchantmentEE5printEv
esmtool:_ZN7EsmTool6RecordIN3ESM11GameSettingEE5printEv
esmtool:_ZN7EsmTool6RecordIN3ESM11ItemLevListEE5printEv
esmtool:_ZN7EsmTool6RecordIN3ESM11LandTextureEE5printEv
esmtool:_ZN7EsmTool6RecordIN3ESM11MagicEffectEE5printEv
esmtool:_ZN7EsmTool6RecordIN3ESM11StartScriptEE5printEv
esmtool:_ZN7EsmTool6RecordIN3ESM13MiscellaneousEE5printEv
esmtool:_ZN7EsmTool6RecordIN3ESM14SoundGeneratorEE5printEv
esmtool:_ZN7EsmTool6RecordIN3ESM15CreatureLevListEE5printEv
esmtool:_ZN7EsmTool6RecordIN3ESM3NPCEE5printEv
esmtool:_ZN7EsmTool6RecordIN3ESM4BookEE5printEv
esmtool:_ZN7EsmTool6RecordIN3ESM4CellEE5printEv
esmtool:_ZN7EsmTool6RecordIN3ESM4DoorEE5printEv
esmtool:_ZN7EsmTool6RecordIN3ESM4LandEE5printEv
esmtool:_ZN7EsmTool6RecordIN3ESM4RaceEE5printEv
esmtool:_ZN7EsmTool6RecordIN3ESM5ArmorEE5printEv
esmtool:_ZN7EsmTool6RecordIN3ESM5ClassEE5printEv
esmtool:_ZN7EsmTool6RecordIN3ESM5LightEE5printEv
esmtool:_ZN7EsmTool6RecordIN3ESM5ProbeEE5printEv
esmtool:_ZN7EsmTool6RecordIN3ESM5SkillEE5printEv
esmtool:_ZN7EsmTool6RecordIN3ESM5SoundEE5printEv
esmtool:_ZN7EsmTool6RecordIN3ESM5SpellEE5printEv
esmtool:_ZN7EsmTool6RecordIN3ESM6GlobalEE5printEv
esmtool:_ZN7EsmTool6RecordIN3ESM6PotionEE5printEv
esmtool:_ZN7EsmTool6RecordIN3ESM6RegionEE5printEv
esmtool:_ZN7EsmTool6RecordIN3ESM6RepairEE5printEv
esmtool:_ZN7EsmTool6RecordIN3ESM6ScriptEE5printEv
esmtool:_ZN7EsmTool6RecordIN3ESM6StaticEE5printEv
esmtool:_ZN7EsmTool6RecordIN3ESM6WeaponEE5printEv
esmtool:_ZN7EsmTool6RecordIN3ESM7FactionEE5printEv
esmtool:_ZN7EsmTool6RecordIN3ESM8BodyPartEE5printEv
esmtool:_ZN7EsmTool6RecordIN3ESM8ClothingEE5printEv
esmtool:_ZN7EsmTool6RecordIN3ESM8CreatureEE5printEv
esmtool:_ZN7EsmTool6RecordIN3ESM8DialInfoEE5printEv
esmtool:_ZN7EsmTool6RecordIN3ESM8DialogueEE5printEv
esmtool:_ZN7EsmTool6RecordIN3ESM8LockpickEE5printEv
esmtool:_ZN7EsmTool6RecordIN3ESM8PathgridEE5printEv
esmtool:_ZN7EsmTool6RecordIN3ESM9ActivatorEE5printEv
esmtool:_ZN7EsmTool6RecordIN3ESM9ApparatusEE5printEv
esmtool:_ZN7EsmTool6RecordIN3ESM9BirthSignEE5printEv
esmtool:_ZN7EsmTool6RecordIN3ESM9ContainerEE5printEv
esmtool:_ZN7EsmTool8loadTes4ERKNS_9ArgumentsEOSt10unique_ptrIN5boost10filesystem14basic_ifstreamIcSt11char_traitsIcEEESt14default_deleteIS9_EE
esmtool:_ZN8Platform4File4openEPKc
esmtool:_ZN8Platform4File4readENS0_6HandleEPvm
esmtool:_ZN8Platform4File4seekENS0_6HandleEmNS0_8SeekTypeE
esmtool:_ZN8Platform4File4sizeENS0_6HandleE
esmtool:_ZN8Platform4File4tellENS0_6HandleE
esmtool:_ZN8Platform4File5closeENS0_6HandleE
esmtool:_ZNK3ESM10EffectList4saveERNS_9ESMWriterE
esmtool:_ZNK3ESM10Ingredient4saveERNS_9ESMWriterEb
esmtool:_ZNK3ESM11Enchantment4saveERNS_9ESMWriterEb
esmtool:_ZNK3ESM11GameSetting4saveERNS_9ESMWriterEb
esmtool:_ZNK3ESM11LandTexture4saveERNS_9ESMWriterEb
esmtool:_ZNK3ESM11MagicEffect23getMagnitudeDisplayTypeEv
esmtool:_ZNK3ESM11MagicEffect4saveERNS_9ESMWriterEb
esmtool:_ZNK3ESM11StartScript4saveERNS_9ESMWriterEb
esmtool:_ZNK3ESM13AIPackageList4saveERNS_9ESMWriterE
esmtool:_ZNK3ESM13InventoryList4saveERNS_9ESMWriterE
esmtool:_ZNK3ESM13Miscellaneous4saveERNS_9ESMWriterEb
esmtool:_ZNK3ESM14SoundGenerator4saveERNS_9ESMWriterEb
esmtool:_ZNK3ESM16LevelledListBase4saveERNS_9ESMWriterENS_11FixedStringILm4EEEb
esmtool:_ZNK3ESM17PartReferenceList4saveERNS_9ESMWriterE
esmtool:_ZNK3ESM3NPC12getTransportEv
esmtool:_ZNK3ESM3NPC14getFactionRankEv
esmtool:_ZNK3ESM3NPC4saveERNS_9ESMWriterEb
esmtool:_ZNK3ESM3NPC6isMaleEv
esmtool:_ZNK3ESM4Book4saveERNS_9ESMWriterEb
esmtool:_ZNK3ESM4Cell14getDescriptionB5cxx11Ev
esmtool:_ZNK3ESM4Cell14saveTempMarkerERNS_9ESMWriterEi
esmtool:_ZNK3ESM4Cell4saveERNS_9ESMWriterEb
esmtool:_ZNK3ESM4Cell7restoreERNS_9ESMReaderEi
esmtool:_ZNK3ESM4Cell9getCellIdEv
esmtool:_ZNK3ESM4Door4saveERNS_9ESMWriterEb
esmtool:_ZNK3ESM4Land10unloadDataEv
esmtool:_ZNK3ESM4Land11getLandDataEi
esmtool:_ZNK3ESM4Land11getLandDataEv
esmtool:_ZNK3ESM4Land12isDataLoadedEi
esmtool:_ZNK3ESM4Land4saveERNS_9ESMWriterEb
esmtool:_ZNK3ESM4Land8condLoadERNS_9ESMReaderEiRiiPvj
esmtool:_ZNK3ESM4Land8loadDataEiPNS0_8LandDataE
esmtool:_ZNK3ESM4Race10MaleFemale8getValueEb
esmtool:_ZNK3ESM4Race11MaleFemaleF8getValueEb
esmtool:_ZNK3ESM4Race4saveERNS_9ESMWriterEb
esmtool:_ZNK3ESM5Armor4saveERNS_9ESMWriterEb
esmtool:_ZNK3ESM5Class10CLDTstruct8getSkillEib
esmtool:_ZNK3ESM5Class4saveERNS_9ESMWriterEb
esmtool:_ZNK3ESM5Light4saveERNS_9ESMWriterEb
esmtool:_ZNK3ESM5Probe4saveERNS_9ESMWriterEb
esmtool:_ZNK3ESM5Skill4saveERNS_9ESMWriterEb
esmtool:_ZNK3ESM5Sound4saveERNS_9ESMWriterEb
esmtool:_ZNK3ESM5Spell4saveERNS_9ESMWriterEb
esmtool:_ZNK3ESM6CellId4saveERNS_9ESMWriterE
esmtool:_ZNK3ESM6Global4saveERNS_9ESMWriterEb
esmtool:_ZNK3ESM6Potion4saveERNS_9ESMWriterEb
esmtool:_ZNK3ESM6RefNum4saveERNS_9ESMWriterEbNS_11FixedStringILm4EEE
esmtool:_ZNK3ESM6Region4saveERNS_9ESMWriterEb
esmtool:_ZNK3ESM6Repair4saveERNS_9ESMWriterEb
esmtool:_ZNK3ESM6Script4saveERNS_9ESMWriterEb
esmtool:_ZNK3ESM6Static4saveERNS_9ESMWriterEb
esmtool:_ZNK3ESM6Weapon4saveERNS_9ESMWriterEb
esmtool:_ZNK3ESM7CellRef4saveERNS_9ESMWriterEbbb
esmtool:_ZNK3ESM7Faction10FADTstruct8getSkillEib
esmtool:_ZNK3ESM7Faction4saveERNS_9ESMWriterEb
esmtool:_ZNK3ESM7Variant10getIntegerEv
esmtool:_ZNK3ESM7Variant5writeERNS_9ESMWriterENS0_6FormatE
esmtool:_ZNK3ESM7Variant5writeERSo
esmtool:_ZNK3ESM7Variant8getFloatEv
esmtool:_ZNK3ESM7Variant9getStringB5cxx11Ev
esmtool:_ZNK3ESM8BodyPart4saveERNS_9ESMWriterEb
esmtool:_ZNK3ESM8Clothing4saveERNS_9ESMWriterEb
esmtool:_ZNK3ESM8Creature12getTransportEv
esmtool:_ZNK3ESM8Creature4saveERNS_9ESMWriterEb
esmtool:_ZNK3ESM8DialInfo4saveERNS_9ESMWriterEb
esmtool:_ZNK3ESM8Dialogue4saveERNS_9ESMWriterEb
esmtool:_ZNK3ESM8Lockpick4saveERNS_9ESMWriterEb
esmtool:_ZNK3ESM8Pathgrid4saveERNS_9ESMWriterEb
esmtool:_ZNK3ESM9Activator4saveERNS_9ESMWriterEb
esmtool:_ZNK3ESM9Apparatus4saveERNS_9ESMWriterEb
esmtool:_ZNK3ESM9BirthSign4saveERNS_9ESMWriterEb
esmtool:_ZNK3ESM9Container4saveERNS_9ESMWriterEb
esmtool:_ZNK3ESM9ESMWriter10getVersionEv
esmtool:_ZNK3ESM9SpellList4saveERNS_9ESMWriterE
esmtool:_ZNK3ESM9SpellList6existsERKNSt7__cxx1112basic_stringIcSt11char_traitsIcESaIcEEE
esmtool:_ZNK3ESM9Transport4saveERNS_9ESMWriterE
esmtool:_ZNK4ESM412LevelledItem10chanceNoneEv
esmtool:_ZNK4ESM412LevelledItem19calcEachItemInCountEv
esmtool:_ZNK4ESM412LevelledItem24calcAllLvlLessThanPlayerEv
esmtool:_ZNK4ESM412LevelledItem6useAllEv
esmtool:_ZNK4ESM416LevelledCreature10chanceNoneEv
esmtool:_ZNK4ESM416LevelledCreature19calcEachItemInCountEv
esmtool:_ZNK4ESM416LevelledCreature24calcAllLvlLessThanPlayerEv
esmtool:_ZNK4ESM46Reader12currCellGridEv
esmtool:_ZNK4ESM46Reader3grpEm
esmtool:_ZNK6ToUTF820StatelessUtf8Encoder12getLegacyEncESt17basic_string_viewIcSt11char_traitsIcEENS_22BufferAllocationPolicyERNSt7__cxx1112basic_stringIcS3_SaIcEEE
esmtool:_ZNK6ToUTF820StatelessUtf8Encoder7getUtf8ESt17basic_string_viewIcSt11char_traitsIcEENS_22BufferAllocationPolicyERNSt7__cxx1112basic_stringIcS3_SaIcEEE
esmtool:_ZNK7EsmTool6RecordIN3ESM11MagicEffectEE5getIdB5cxx11Ev
esmtool:_ZNK7EsmTool6RecordIN3ESM4CellEE5getIdB5cxx11Ev
esmtool:_ZNK7EsmTool6RecordIN3ESM4LandEE5getIdB5cxx11Ev
esmtool:_ZNK7EsmTool6RecordIN3ESM5SkillEE5getIdB5cxx11Ev
esmtool:_ZNK7EsmTool6RecordIN3ESM8PathgridEE5getIdB5cxx11Ev
esmtool:_ZSt19piecewise_construct
esmtool:_ZTIN3ESM6ReaderE
esmtool:_ZTIN4ESM44LandE
esmtool:_ZTIN4ESM46ReaderE
esmtool:_ZTIN4ESM48SubSpaceE
esmtool:_ZTIN5Files24ConstrainedFileStreamBufE
esmtool:_ZTIN5Files6MemBufE
esmtool:_ZTIN5boost10wrapexceptINS_12bad_any_castEEE
esmtool:_ZTIN5boost10wrapexceptINS_15program_options20invalid_option_valueEEE
esmtool:_ZTIN5boost10wrapexceptINS_17bad_function_callEEE
esmtool:_ZTIN5boost10wrapexceptINSt8ios_base7failureB5cxx11EEE
esmtool:_ZTIN5boost10wrapexceptISt11logic_errorEE
esmtool:_ZTIN5boost12bad_any_castE
esmtool:_ZTIN5boost12noncopyable_10base_tokenE
esmtool:_ZTIN5boost12noncopyable_11noncopyableE
esmtool:_ZTIN5boost15program_options16typed_value_baseE
esmtool:_ZTIN5boost15program_options16validation_errorE
esmtool:_ZTIN5boost15program_options20invalid_option_valueE
esmtool:_ZTIN5boost16bad_lexical_castE
esmtool:_ZTIN5boost16exception_detail10clone_baseE
esmtool:_ZTIN5boost17bad_function_callE
esmtool:_ZTIN5boost3any11placeholderE
esmtool:_ZTIN5boost4anys6detail11placeholderE
esmtool:_ZTIN5boost6detail15sp_counted_baseE
esmtool:_ZTIN5boost6system14error_categoryE
esmtool:_ZTIN5boost6system6detail21system_error_categoryE
esmtool:_ZTIN5boost6system6detail22generic_error_categoryE
esmtool:_ZTIN5boost6system6detail22interop_error_categoryE
esmtool:_ZTIN5boost9exceptionE
esmtool:_ZTIN5boost9iostreams14access_controlINS0_6detail12chain_clientINS0_5chainINS0_5inputEcSt11char_traitsIcESaIcEEEEENS0_7public_ENS2_4pub_ISA_EEEE
esmtool:_ZTIN5boost9iostreams16symmetric_filterINS0_6detail22zlib_decompressor_implISaIcEEES4_EE
esmtool:_ZTIN5boost9iostreams17basic_null_deviceIcNS0_5inputEEE
esmtool:_ZTIN5boost9iostreams23basic_zlib_decompressorISaIcEEE
esmtool:_ZTIN5boost9iostreams6detail12chain_clientINS0_5chainINS0_5inputEcSt11char_traitsIcESaIcEEEEE
esmtool:_ZTIN5boost9iostreams6detail12mode_adapterINS0_5inputESiEE
esmtool:_ZTIN5boost9iostreams6detail16linked_streambufIcSt11char_traitsIcEEE
esmtool:_ZTIN5boost9iostreams6detail18indirect_streambufINS0_17basic_null_deviceIcNS0_5inputEEESt11char_traitsIcESaIcES4_EE
esmtool:_ZTIN5boost9iostreams6detail18indirect_streambufINS0_23basic_zlib_decompressorISaIcEEESt11char_traitsIcES4_NS0_5inputEEE
esmtool:_ZTIN5boost9iostreams6detail18indirect_streambufINS1_12mode_adapterINS0_5inputESiEESt11char_traitsIcESaIcES4_EE
esmtool:_ZTIN5boost9iostreams6detail4pub_INS1_12chain_clientINS0_5chainINS0_5inputEcSt11char_traitsIcESaIcEEEEEEE
esmtool:_ZTIN5boost9iostreams6detail8chainbufINS0_5chainINS0_5inputEcSt11char_traitsIcESaIcEEES4_NS0_7public_EEE
esmtool:_ZTIN7EsmTool10RecordBaseE
esmtool:_ZTINSt7__cxx1112basic_stringIcSt11char_traitsIcESaIcEEE
esmtool:_ZTISt12_Vector_baseINSt7__cxx1112basic_stringIcSt11char_traitsIcESaIcEEESaIS5_EE
esmtool:_ZTISt12_Vector_baseIcSaIcEE
esmtool:_ZTISt18bad_variant_access
esmtool:_ZTISt6vectorINSt7__cxx1112basic_stringIcSt11char_traitsIcESaIcEEESaIS5_EE
esmtool:_ZTISt6vectorIcSaIcEE
esmtool:_ZTSN3Bsa17MemoryInputStreamE
esmtool:_ZTSN3ESM6ReaderE
esmtool:_ZTSN4ESM44LandE
esmtool:_ZTSN4ESM46ReaderE
esmtool:_ZTSN4ESM48SubSpaceE
esmtool:_ZTSN5Files16StreamWithBufferIN3Bsa17MemoryInputStreamEEE
esmtool:_ZTSN5Files16StreamWithBufferINS_24ConstrainedFileStreamBufEEE
esmtool:_ZTSN5Files24ConstrainedFileStreamBufE
esmtool:_ZTSN5Files6MemBufE
esmtool:_ZTSN5boost10filesystem13basic_fstreamIcSt11char_traitsIcEEE
esmtool:_ZTSN5boost10filesystem14basic_ifstreamIcSt11char_traitsIcEEE
esmtool:_ZTSN5boost10wrapexceptINS_12bad_any_castEEE
esmtool:_ZTSN5boost10wrapexceptINS_15program_options20invalid_option_valueEEE
esmtool:_ZTSN5boost10wrapexceptINS_17bad_function_callEEE
esmtool:_ZTSN5boost10wrapexceptINSt8ios_base7failureB5cxx11EEE
esmtool:_ZTSN5boost10wrapexceptISt11logic_errorEE
esmtool:_ZTSN5boost12bad_any_castE
esmtool:_ZTSN5boost12noncopyable_10base_tokenE
esmtool:_ZTSN5boost12noncopyable_11noncopyableE
esmtool:_ZTSN5boost15program_options11typed_valueINSt7__cxx1112basic_stringIcSt11char_traitsIcESaIcEEEcEE
esmtool:_ZTSN5boost15program_options11typed_valueISt6vectorINSt7__cxx1112basic_stringIcSt11char_traitsIcESaIcEEESaIS8_EEcEE
esmtool:_ZTSN5boost15program_options16typed_value_baseE
esmtool:_ZTSN5boost15program_options16validation_errorE
esmtool:_ZTSN5boost15program_options20invalid_option_valueE
esmtool:_ZTSN5boost15program_options5errorE
esmtool:_ZTSN5boost16bad_lexical_castE
esmtool:_ZTSN5boost16exception_detail10clone_baseE
esmtool:_ZTSN5boost17bad_function_callE
esmtool:_ZTSN5boost3any11placeholderE
esmtool:_ZTSN5boost3any6holderINSt7__cxx1112basic_stringIcSt11char_traitsIcESaIcEEEEE
esmtool:_ZTSN5boost3any6holderISt6vectorINSt7__cxx1112basic_stringIcSt11char_traitsIcESaIcEEESaIS8_EEEE
esmtool:_ZTSN5boost4anys6detail11placeholderE
esmtool:_ZTSN5boost6detail15sp_counted_baseE
esmtool:_ZTSN5boost6detail17sp_counted_impl_pINS_9iostreams16symmetric_filterINS2_6detail22zlib_decompressor_implISaIcEEES6_E4implEEE
esmtool:_ZTSN5boost6detail17sp_counted_impl_pINS_9iostreams6detail10chain_baseINS2_5chainINS2_5inputEcSt11char_traitsIcESaIcEEEcS8_S9_S6_E10chain_implEEE
esmtool:_ZTSN5boost6system14error_categoryE
esmtool:_ZTSN5boost6system6detail21system_error_categoryE
esmtool:_ZTSN5boost6system6detail22generic_error_categoryE
esmtool:_ZTSN5boost6system6detail22interop_error_categoryE
esmtool:_ZTSN5boost9exceptionE
esmtool:_ZTSN5boost9iostreams13stream_bufferINS0_17basic_null_deviceIcNS0_5inputEEESt11char_traitsIcESaIcES3_EE
esmtool:_ZTSN5boost9iostreams13stream_bufferINS0_23basic_zlib_decompressorISaIcEEESt11char_traitsIcES3_NS0_5inputEEE
esmtool:_ZTSN5boost9iostreams13stream_bufferINS0_6detail12mode_adapterINS0_5inputESiEESt11char_traitsIcESaIcES4_EE
esmtool:_ZTSN5boost9iostreams14access_controlINS0_6detail12chain_clientINS0_5chainINS0_5inputEcSt11char_traitsIcESaIcEEEEENS0_7public_ENS2_4pub_ISA_EEEE
esmtool:_ZTSN5boost9iostreams16symmetric_filterINS0_6detail22zlib_decompressor_implISaIcEEES4_EE
esmtool:_ZTSN5boost9iostreams17basic_null_deviceIcNS0_5inputEEE
esmtool:_ZTSN5boost9iostreams19filtering_streambufINS0_5inputEcSt11char_traitsIcESaIcENS0_7public_EEE
esmtool:_ZTSN5boost9iostreams23basic_zlib_decompressorISaIcEEE
esmtool:_ZTSN5boost9iostreams6detail12chain_clientINS0_5chainINS0_5inputEcSt11char_traitsIcESaIcEEEEE
esmtool:_ZTSN5boost9iostreams6detail12mode_adapterINS0_5inputESiEE
esmtool:_ZTSN5boost9iostreams6detail16linked_streambufIcSt11char_traitsIcEEE
esmtool:_ZTSN5boost9iostreams6detail18indirect_streambufINS0_17basic_null_deviceIcNS0_5inputEEESt11char_traitsIcESaIcES4_EE
esmtool:_ZTSN5boost9iostreams6detail18indirect_streambufINS0_23basic_zlib_decompressorISaIcEEESt11char_traitsIcES4_NS0_5inputEEE
esmtool:_ZTSN5boost9iostreams6detail18indirect_streambufINS1_12mode_adapterINS0_5inputESiEESt11char_traitsIcESaIcES4_EE
esmtool:_ZTSN5boost9iostreams6detail4pub_INS1_12chain_clientINS0_5chainINS0_5inputEcSt11char_traitsIcESaIcEEEEEEE
esmtool:_ZTSN5boost9iostreams6detail8chainbufINS0_5chainINS0_5inputEcSt11char_traitsIcESaIcEEES4_NS0_7public_EEE
esmtool:_ZTSN7EsmTool10RecordBaseE
esmtool:_ZTSN7EsmTool6RecordIN3ESM10IngredientEEE
esmtool:_ZTSN7EsmTool6RecordIN3ESM11EnchantmentEEE
esmtool:_ZTSN7EsmTool6RecordIN3ESM11GameSettingEEE
esmtool:_ZTSN7EsmTool6RecordIN3ESM11ItemLevListEEE
esmtool:_ZTSN7EsmTool6RecordIN3ESM11LandTextureEEE
esmtool:_ZTSN7EsmTool6RecordIN3ESM11MagicEffectEEE
esmtool:_ZTSN7EsmTool6RecordIN3ESM11StartScriptEEE
esmtool:_ZTSN7EsmTool6RecordIN3ESM13MiscellaneousEEE
esmtool:_ZTSN7EsmTool6RecordIN3ESM14SoundGeneratorEEE
esmtool:_ZTSN7EsmTool6RecordIN3ESM15CreatureLevListEEE
esmtool:_ZTSN7EsmTool6RecordIN3ESM3NPCEEE
esmtool:_ZTSN7EsmTool6RecordIN3ESM4BookEEE
esmtool:_ZTSN7EsmTool6RecordIN3ESM4CellEEE
esmtool:_ZTSN7EsmTool6RecordIN3ESM4DoorEEE
esmtool:_ZTSN7EsmTool6RecordIN3ESM4LandEEE
esmtool:_ZTSN7EsmTool6RecordIN3ESM4RaceEEE
esmtool:_ZTSN7EsmTool6RecordIN3ESM5ArmorEEE
esmtool:_ZTSN7EsmTool6RecordIN3ESM5ClassEEE
esmtool:_ZTSN7EsmTool6RecordIN3ESM5LightEEE
esmtool:_ZTSN7EsmTool6RecordIN3ESM5ProbeEEE
esmtool:_ZTSN7EsmTool6RecordIN3ESM5SkillEEE
esmtool:_ZTSN7EsmTool6RecordIN3ESM5SoundEEE
esmtool:_ZTSN7EsmTool6RecordIN3ESM5SpellEEE
esmtool:_ZTSN7EsmTool6RecordIN3ESM6GlobalEEE
esmtool:_ZTSN7EsmTool6RecordIN3ESM6PotionEEE
esmtool:_ZTSN7EsmTool6RecordIN3ESM6RegionEEE
esmtool:_ZTSN7EsmTool6RecordIN3ESM6RepairEEE
esmtool:_ZTSN7EsmTool6RecordIN3ESM6ScriptEEE
esmtool:_ZTSN7EsmTool6RecordIN3ESM6StaticEEE
esmtool:_ZTSN7EsmTool6RecordIN3ESM6WeaponEEE
esmtool:_ZTSN7EsmTool6RecordIN3ESM7FactionEEE
esmtool:_ZTSN7EsmTool6RecordIN3ESM8BodyPartEEE
esmtool:_ZTSN7EsmTool6RecordIN3ESM8ClothingEEE
esmtool:_ZTSN7EsmTool6RecordIN3ESM8CreatureEEE
esmtool:_ZTSN7EsmTool6RecordIN3ESM8DialInfoEEE
esmtool:_ZTSN7EsmTool6RecordIN3ESM8DialogueEEE
esmtool:_ZTSN7EsmTool6RecordIN3ESM8LockpickEEE
esmtool:_ZTSN7EsmTool6RecordIN3ESM8PathgridEEE
esmtool:_ZTSN7EsmTool6RecordIN3ESM9ActivatorEEE
esmtool:_ZTSN7EsmTool6RecordIN3ESM9ApparatusEEE
esmtool:_ZTSN7EsmTool6RecordIN3ESM9BirthSignEEE
esmtool:_ZTSN7EsmTool6RecordIN3ESM9ContainerEEE
esmtool:_ZTSNSt7__cxx1112basic_stringIcSt11char_traitsIcESaIcEEE
esmtool:_ZTSSt12_Vector_baseINSt7__cxx1112basic_stringIcSt11char_traitsIcESaIcEEESaIS5_EE
esmtool:_ZTSSt12_Vector_baseIcSaIcEE
esmtool:_ZTSSt18bad_variant_access
esmtool:_ZTSSt6vectorINSt7__cxx1112basic_stringIcSt11char_traitsIcESaIcEEESaIS5_EE
esmtool:_ZTSSt6vectorIcSaIcEE
esmtool:_ZTVN4ESM44LandE
esmtool:_ZTVN4ESM46ReaderE
esmtool:_ZTVN4ESM48SubSpaceE
esmtool:_ZTVN5Files24ConstrainedFileStreamBufE
esmtool:_ZTVN5boost6system14error_categoryE
esmtool:_ZTVN5boost6system6detail21system_error_categoryE
esmtool:_ZTVN5boost6system6detail22generic_error_categoryE
esmtool:_ZTVN5boost6system6detail22interop_error_categoryE
esmtool:__bss_start
esmtool:__data_start
esmtool:_edata
esmtool:_end
esmtool:_start
esmtool:main
niftest:_IO_stdin_used
niftest:_Z12hasExtensionNSt7__cxx1112basic_stringIcSt11char_traitsIcESaIcEEES4_
niftest:_Z12parseOptionsiPPcRSt6vectorINSt7__cxx1112basic_stringIcSt11char_traitsIcESaIcEEESaIS7_EE
niftest:_Z19MurmurHash3_x64_128PKviPKmPv
niftest:_Z5isBSARKNSt7__cxx1112basic_stringIcSt11char_traitsIcESaIcEEE
niftest:_Z5isNIFRKNSt7__cxx1112basic_stringIcSt11char_traitsIcESaIcEEE
niftest:_Z7getHashRKNSt7__cxx1112basic_stringIcSt11char_traitsIcESaIcEEE
niftest:_Z7readVFSOSt10unique_ptrIN3VFS7ArchiveESt14default_deleteIS1_EENSt7__cxx1112basic_stringIcSt11char_traitsIcESaIcEEE
niftest:_ZGVZN3Nif14Transformation11getIdentityEvE8identity
niftest:_ZN3Bsa17CompressedBSAFile10FileRecordC1Ev
niftest:_ZN3Bsa17CompressedBSAFile10FileRecordC2Ev
niftest:_ZN3Bsa17CompressedBSAFile10readHeaderEv
niftest:_ZN3Bsa17CompressedBSAFile11getBZStringERNSt7__cxx1112basic_stringIcSt11char_traitsIcESaIcEEERSi
niftest:_ZN3Bsa17CompressedBSAFile12generateHashENSt7__cxx1112basic_stringIcSt11char_traitsIcESaIcEEES6_
niftest:_ZN3Bsa17CompressedBSAFile13detectVersionERKNSt7__cxx1112basic_stringIcSt11char_traitsIcESaIcEEE
niftest:_ZN3Bsa17CompressedBSAFile14sInvalidOffsetE
niftest:_ZN3Bsa17CompressedBSAFile15sCompressedFlagE
niftest:_ZN3Bsa17CompressedBSAFile36convertCompressedSizesToUncompressedEv
niftest:_ZN3Bsa17CompressedBSAFile7addFileERKNSt7__cxx1112basic_stringIcSt11char_traitsIcESaIcEEERSi
niftest:_ZN3Bsa17CompressedBSAFile7getFileEPKNS_7BSAFile10FileStructE
niftest:_ZN3Bsa17CompressedBSAFile7getFileEPKc
niftest:_ZN3Bsa17CompressedBSAFile7getFileERKNS0_10FileRecordE
niftest:_ZN3Bsa17CompressedBSAFileC1Ev
niftest:_ZN3Bsa17CompressedBSAFileC2Ev
niftest:_ZN3Bsa17CompressedBSAFileD0Ev
niftest:_ZN3Bsa17CompressedBSAFileD1Ev
niftest:_ZN3Bsa17CompressedBSAFileD2Ev
niftest:_ZN3Bsa7BSAFile10readHeaderEv
niftest:_ZN3Bsa7BSAFile11writeHeaderEv
niftest:_ZN3Bsa7BSAFile4failERKNSt7__cxx1112basic_stringIcSt11char_traitsIcESaIcEEE
niftest:_ZN3Bsa7BSAFile4openERKNSt7__cxx1112basic_stringIcSt11char_traitsIcESaIcEEE
niftest:_ZN3Bsa7BSAFile5closeEv
niftest:_ZN3Bsa7BSAFile7addFileERKNSt7__cxx1112basic_stringIcSt11char_traitsIcESaIcEEERSi
niftest:_ZN3Bsa7BSAFile7getFileEPKNS0_10FileStructE
niftest:_ZN3LogC1EN5Debug5LevelE
niftest:_ZN3LogC2EN5Debug5LevelE
niftest:_ZN3LogD1Ev
niftest:_ZN3LogD2Ev
niftest:_ZN3Nif10Controller4postEPNS_7NIFFileE
niftest:_ZN3Nif10Controller4readEPNS_9NIFStreamE
niftest:_ZN3Nif10NiBoolData4readEPNS_9NIFStreamE
niftest:_ZN3Nif10NiGeometry12MaterialData4readEPNS_9NIFStreamE
niftest:_ZN3Nif10NiGeometry4postEPNS_7NIFFileE
niftest:_ZN3Nif10NiGeometry4readEPNS_9NIFStreamE
niftest:_ZN3Nif10NiSkinData4postEPNS_7NIFFileE
niftest:_ZN3Nif10NiSkinData4readEPNS_9NIFStreamE
niftest:_ZN3Nif11HavokFilter4readEPNS_9NIFStreamE
niftest:_ZN3Nif11NiColorData4readEPNS_9NIFStreamE
niftest:_ZN3Nif11NiExtraData4readEPNS_9NIFStreamE
niftest:_ZN3Nif11NiFloatData4readEPNS_9NIFStreamE
niftest:_ZN3Nif11NiLinesData4readEPNS_9NIFStreamE
niftest:_ZN3Nif11NiMorphData4readEPNS_9NIFStreamE
niftest:_ZN3Nif11NiPixelData4postEPNS_7NIFFileE
niftest:_ZN3Nif11NiPixelData4readEPNS_9NIFStreamE
niftest:_ZN3Nif11NiSpotLight4readEPNS_9NIFStreamE
niftest:_ZN3Nif11bhkBoxShape4readEPNS_9NIFStreamE
niftest:_ZN3Nif11hkpMoppCode4readEPNS_9NIFStreamE
niftest:_ZN3Nif12NiPointLight4readEPNS_9NIFStreamE
niftest:_ZN3Nif12NiSwitchNode4readEPNS_9NIFStreamE
niftest:_ZN3Nif12TriangleData4readEPNS_9NIFStreamE
niftest:_ZN3Nif12bhkListShape4readEPNS_9NIFStreamE
niftest:_ZN3Nif12bhkRigidBody4readEPNS_9NIFStreamE
niftest:_ZN3Nif13BSLODTriShape4readEPNS_9NIFStreamE
niftest:_ZN3Nif13HavokMaterial4readEPNS_9NIFStreamE
niftest:_ZN3Nif13NiFogProperty4readEPNS_9NIFStreamE
niftest:_ZN3Nif13hkSubPartData4readEPNS_9NIFStreamE
niftest:_ZN3Nif14NiGeometryData4readEPNS_9NIFStreamE
niftest:_ZN3Nif14NiKeyframeData4readEPNS_9NIFStreamE
niftest:_ZN3Nif14NiSkinInstance4postEPNS_7NIFFileE
niftest:_ZN3Nif14NiSkinInstance4readEPNS_9NIFStreamE
niftest:_ZN3Nif14NiTriShapeData4readEPNS_9NIFStreamE
niftest:_ZN3Nif14NiUVController4postEPNS_7NIFFileE
niftest:_ZN3Nif14NiUVController4readEPNS_9NIFStreamE
niftest:_ZN3Nif14bhkBvTreeShape4postEPNS_7NIFFileE
niftest:_ZN3Nif14bhkBvTreeShape4readEPNS_9NIFStreamE
niftest:_ZN3Nif14bhkConvexShape4readEPNS_9NIFStreamE
niftest:_ZN3Nif14bhkEntityCInfo4readEPNS_9NIFStreamE
niftest:_ZN3Nif14bhkWorldObject4postEPNS_7NIFFileE
niftest:_ZN3Nif14bhkWorldObject4readEPNS_9NIFStreamE
niftest:_ZN3Nif15NiDynamicEffect4readEPNS_9NIFStreamE
niftest:_ZN3Nif15NiParticlesData4readEPNS_9NIFStreamE
niftest:_ZN3Nif15NiSkinPartition4readEPNS_9NIFStreamE
niftest:_ZN3Nif15NiSkinPartition9Partition4readEPNS_9NIFStreamE
niftest:_ZN3Nif15NiSourceTexture4postEPNS_7NIFFileE
niftest:_ZN3Nif15NiSourceTexture4readEPNS_9NIFStreamE
niftest:_ZN3Nif15NiStringPalette4readEPNS_9NIFStreamE
niftest:_ZN3Nif15NiTextureEffect4postEPNS_7NIFFileE
niftest:_ZN3Nif15NiTextureEffect4readEPNS_9NIFStreamE
niftest:_ZN3Nif15NiTriStripsData4readEPNS_9NIFStreamE
niftest:_ZN3Nif15NiVisController4postEPNS_7NIFFileE
niftest:_ZN3Nif15NiVisController4readEPNS_9NIFStreamE
niftest:_ZN3Nif15S_AlphaProperty4readEPNS_9NIFStreamE
niftest:_ZN3Nif16BSShaderProperty4readEPNS_9NIFStreamE
niftest:_ZN3Nif16NiBoundingVolume4readEPNS_9NIFStreamE
niftest:_ZN3Nif16NiFlipController4postEPNS_7NIFFileE
niftest:_ZN3Nif16NiFlipController4readEPNS_9NIFStreamE
niftest:_ZN3Nif16NiFloatExtraData4readEPNS_9NIFStreamE
niftest:_ZN3Nif16NiPathController4postEPNS_7NIFFileE
niftest:_ZN3Nif16NiPathController4readEPNS_9NIFStreamE
niftest:_ZN3Nif16NiPlanarCollider4readEPNS_9NIFStreamE
niftest:_ZN3Nif16NiSortAdjustNode4postEPNS_7NIFFileE
niftest:_ZN3Nif16NiSortAdjustNode4readEPNS_9NIFStreamE
niftest:_ZN3Nif17BSFurnitureMarker17FurniturePosition4readEPNS_9NIFStreamE
niftest:_ZN3Nif17BSFurnitureMarker23LegacyFurniturePosition4readEPNS_9NIFStreamE
niftest:_ZN3Nif17BSFurnitureMarker4readEPNS_9NIFStreamE
niftest:_ZN3Nif17NiBinaryExtraData4readEPNS_9NIFStreamE
niftest:_ZN3Nif17NiFloatsExtraData4readEPNS_9NIFStreamE
niftest:_ZN3Nif17NiStringExtraData4readEPNS_9NIFStreamE
niftest:_ZN3Nif17NiVectorExtraData4readEPNS_9NIFStreamE
niftest:_ZN3Nif17S_StencilProperty4readEPNS_9NIFStreamE
niftest:_ZN3Nif17bhkRigidBodyCInfo4readEPNS_9NIFStreamE
niftest:_ZN3Nif17bhkSphereRepShape4readEPNS_9NIFStreamE
niftest:_ZN3Nif18BSShaderTextureSet4readEPNS_9NIFStreamE
niftest:_ZN3Nif18NiBoolInterpolator4postEPNS_7NIFFileE
niftest:_ZN3Nif18NiBoolInterpolator4readEPNS_9NIFStreamE
niftest:_ZN3Nif18NiBooleanExtraData4readEPNS_9NIFStreamE
niftest:_ZN3Nif18NiFltAnimationNode4readEPNS_9NIFStreamE
niftest:_ZN3Nif18NiIntegerExtraData4readEPNS_9NIFStreamE
niftest:_ZN3Nif18NiLookAtController4postEPNS_7NIFFileE
niftest:_ZN3Nif18NiLookAtController4readEPNS_9NIFStreamE
niftest:_ZN3Nif18NiParticleCollider4readEPNS_9NIFStreamE
niftest:_ZN3Nif18NiParticleGrowFade4readEPNS_9NIFStreamE
niftest:_ZN3Nif18NiParticleModifier4postEPNS_7NIFFileE
niftest:_ZN3Nif18NiParticleModifier4readEPNS_9NIFStreamE
niftest:_ZN3Nif18NiParticleRotation4readEPNS_9NIFStreamE
niftest:_ZN3Nif18NiTextKeyExtraData4readEPNS_9NIFStreamE
niftest:_ZN3Nif18S_MaterialProperty4readEPNS_9NIFStreamE
niftest:_ZN3Nif18bhkBlendController4readEPNS_9NIFStreamE
niftest:_ZN3Nif18bhkCollisionObject4readEPNS_9NIFStreamE
niftest:_ZN3Nif18bhkMoppBvTreeShape4readEPNS_9NIFStreamE
niftest:_ZN3Nif19NiColorInterpolator4postEPNS_7NIFFileE
niftest:_ZN3Nif19NiColorInterpolator4readEPNS_9NIFStreamE
niftest:_ZN3Nif19NiControllerManager4readEPNS_9NIFStreamE
niftest:_ZN3Nif19NiFloatInterpolator4postEPNS_7NIFFileE
niftest:_ZN3Nif19NiFloatInterpolator4readEPNS_9NIFStreamE
niftest:_ZN3Nif19NiIntegersExtraData4readEPNS_9NIFStreamE
niftest:_ZN3Nif19NiSphericalCollider4readEPNS_9NIFStreamE
niftest:_ZN3Nif19NiTexturingProperty4postEPNS_7NIFFileE
niftest:_ZN3Nif19NiTexturingProperty4readEPNS_9NIFStreamE
niftest:_ZN3Nif19NiTexturingProperty7Texture4postEPNS_7NIFFileE
niftest:_ZN3Nif19NiTexturingProperty7Texture4readEPNS_9NIFStreamE
niftest:_ZN3Nif19bhkNiTriStripsShape4postEPNS_7NIFFileE
niftest:_ZN3Nif19bhkNiTriStripsShape4readEPNS_9NIFStreamE
niftest:_ZN3Nif19bhkWorldObjectCInfo4readEPNS_9NIFStreamE
niftest:_ZN3Nif20NiKeyframeController4postEPNS_7NIFFileE
niftest:_ZN3Nif20NiKeyframeController4readEPNS_9NIFStreamE
niftest:_ZN3Nif20NiPoint3Interpolator4postEPNS_7NIFFileE
niftest:_ZN3Nif20NiPoint3Interpolator4readEPNS_9NIFStreamE
niftest:_ZN3Nif21S_VertexColorProperty4readEPNS_9NIFStreamE
niftest:_ZN3Nif22NiVertWeightsExtraData4readEPNS_9NIFStreamE
niftest:_ZN3Nif22bhkConvexVerticesShape4readEPNS_9NIFStreamE
niftest:_ZN3Nif23BSDismemberSkinInstance4readEPNS_9NIFStreamE
niftest:_ZN3Nif23NiFloatInterpController4postEPNS_7NIFFileE
niftest:_ZN3Nif23NiFloatInterpController4readEPNS_9NIFStreamE
niftest:_ZN3Nif23NiGeomMorpherController4postEPNS_7NIFFileE
niftest:_ZN3Nif23NiGeomMorpherController4readEPNS_9NIFStreamE
niftest:_ZN3Nif23NiParticleColorModifier4postEPNS_7NIFFileE
niftest:_ZN3Nif23NiParticleColorModifier4readEPNS_9NIFStreamE
niftest:_ZN3Nif23NiRotatingParticlesData4readEPNS_9NIFStreamE
niftest:_ZN3Nif23NiTransformInterpolator4postEPNS_7NIFFileE
niftest:_ZN3Nif23NiTransformInterpolator4readEPNS_9NIFStreamE
niftest:_ZN3Nif23hkPackedNiTriStripsData4readEPNS_9NIFStreamE
niftest:_ZN3Nif24BSLightingShaderProperty4postEPNS_7NIFFileE
niftest:_ZN3Nif24BSLightingShaderProperty4readEPNS_9NIFStreamE
niftest:_ZN3Nif24BSShaderLightingProperty4readEPNS_9NIFStreamE
niftest:_ZN3Nif24bhkWorldObjCInfoProperty4readEPNS_9NIFStreamE
niftest:_ZN3Nif25NiMaterialColorController4postEPNS_7NIFFileE
niftest:_ZN3Nif25NiMaterialColorController4readEPNS_9NIFStreamE
niftest:_ZN3Nif25bhkPackedNiTriStripsShape4postEPNS_7NIFFileE
niftest:_ZN3Nif25bhkPackedNiTriStripsShape4readEPNS_9NIFStreamE
niftest:_ZN3Nif26BSShaderNoLightingProperty4readEPNS_9NIFStreamE
niftest:_ZN3Nif26BSShaderPPLightingProperty4postEPNS_7NIFFileE
niftest:_ZN3Nif26BSShaderPPLightingProperty4readEPNS_9NIFStreamE
niftest:_ZN3Nif26NiParticleSystemController4postEPNS_7NIFFileE
niftest:_ZN3Nif26NiParticleSystemController4readEPNS_9NIFStreamE
niftest:_ZN3Nif4Node4postEPNS_7NIFFileE
niftest:_ZN3Nif4Node4readEPNS_9NIFStreamE
niftest:_ZN3Nif4Node7setBoneEv
niftest:_ZN3Nif5Extra4readEPNS_9NIFStreamE
niftest:_ZN3Nif5Named4postEPNS_7NIFFileE
niftest:_ZN3Nif5Named4readEPNS_9NIFStreamE
niftest:_ZN3Nif6NiNode4postEPNS_7NIFFileE
niftest:_ZN3Nif6NiNode4readEPNS_9NIFStreamE
niftest:_ZN3Nif7BSBound4readEPNS_9NIFStreamE
niftest:_ZN3Nif7NIFFile12printVersionB5cxx11Ej
niftest:_ZN3Nif7NIFFile14setUseSkinningEb
niftest:_ZN3Nif7NIFFile21sLoadUnsupportedFilesE
niftest:_ZN3Nif7NIFFile23setLoadUnsupportedFilesEb
niftest:_ZN3Nif7NIFFile5parseEOSt10unique_ptrISiSt14default_deleteISiEE
niftest:_ZN3Nif7NIFFileC1EOSt10unique_ptrISiSt14default_deleteISiEERKNSt7__cxx1112basic_stringIcSt11char_traitsIcESaIcEEE
niftest:_ZN3Nif7NIFFileC2EOSt10unique_ptrISiSt14default_deleteISiEERKNSt7__cxx1112basic_stringIcSt11char_traitsIcESaIcEEE
niftest:_ZN3Nif7NiLight4readEPNS_9NIFStreamE
niftest:_ZN3Nif8NiCamera4readEPNS_9NIFStreamE
niftest:_ZN3Nif8NiCamera6Camera4readEPNS_9NIFStreamE
niftest:_ZN3Nif8NiUVData4readEPNS_9NIFStreamE
niftest:_ZN3Nif9NIFStream10getBooleanEv
niftest:_ZN3Nif9NIFStream13getQuaternionEv
niftest:_ZN3Nif9NIFStream8getTrafoEv
niftest:_ZN3Nif9NIFStream9getStringB5cxx11Ev
niftest:_ZN3Nif9NiGravity4readEPNS_9NIFStreamE
niftest:_ZN3Nif9NiLODNode4readEPNS_9NIFStreamE
niftest:_ZN3Nif9NiPalette4readEPNS_9NIFStreamE
niftest:_ZN3Nif9NiPosData4readEPNS_9NIFStreamE
niftest:_ZN3Nif9NiVisData4readEPNS_9NIFStreamE
niftest:_ZN3Nif9bhkEntity4readEPNS_9NIFStreamE
niftest:_ZN3VFS10BsaArchive13listResourcesERSt3mapINSt7__cxx1112basic_stringIcSt11char_traitsIcESaIcEEEPNS_4FileESt4lessIS7_ESaISt4pairIKS7_S9_EEEPFccE
niftest:_ZN3VFS10BsaArchiveC1ERKNSt7__cxx1112basic_stringIcSt11char_traitsIcESaIcEEE
niftest:_ZN3VFS10BsaArchiveC1Ev
niftest:_ZN3VFS10BsaArchiveC2ERKNSt7__cxx1112basic_stringIcSt11char_traitsIcESaIcEEE
niftest:_ZN3VFS10BsaArchiveC2Ev
niftest:_ZN3VFS10BsaArchiveD0Ev
niftest:_ZN3VFS10BsaArchiveD1Ev
niftest:_ZN3VFS10BsaArchiveD2Ev
niftest:_ZN3VFS14BsaArchiveFile4openEv
niftest:_ZN3VFS14BsaArchiveFileC1EPKN3Bsa7BSAFile10FileStructEPS2_
niftest:_ZN3VFS14BsaArchiveFileC2EPKN3Bsa7BSAFile10FileStructEPS2_
niftest:_ZN3VFS17FileSystemArchive13listResourcesERSt3mapINSt7__cxx1112basic_stringIcSt11char_traitsIcESaIcEEEPNS_4FileESt4lessIS7_ESaISt4pairIKS7_S9_EEEPFccE
niftest:_ZN3VFS17FileSystemArchiveC1ERKNSt7__cxx1112basic_stringIcSt11char_traitsIcESaIcEEE
niftest:_ZN3VFS17FileSystemArchiveC2ERKNSt7__cxx1112basic_stringIcSt11char_traitsIcESaIcEEE
niftest:_ZN3VFS20CompressedBsaArchive13listResourcesERSt3mapINSt7__cxx1112basic_stringIcSt11char_traitsIcESaIcEEEPNS_4FileESt4lessIS7_ESaISt4pairIKS7_S9_EEEPFccE
niftest:_ZN3VFS20CompressedBsaArchiveC1ERKNSt7__cxx1112basic_stringIcSt11char_traitsIcESaIcEEE
niftest:_ZN3VFS20CompressedBsaArchiveC2ERKNSt7__cxx1112basic_stringIcSt11char_traitsIcESaIcEEE
niftest:_ZN3VFS21FileSystemArchiveFile4openEv
niftest:_ZN3VFS21FileSystemArchiveFileC1ERKNSt7__cxx1112basic_stringIcSt11char_traitsIcESaIcEEE
niftest:_ZN3VFS21FileSystemArchiveFileC2ERKNSt7__cxx1112basic_stringIcSt11char_traitsIcESaIcEEE
niftest:_ZN3VFS24CompressedBsaArchiveFile4openEv
niftest:_ZN3VFS24CompressedBsaArchiveFileC1EPKN3Bsa7BSAFile10FileStructEPNS1_17CompressedBSAFileE
niftest:_ZN3VFS24CompressedBsaArchiveFileC2EPKN3Bsa7BSAFile10FileStructEPNS1_17CompressedBSAFileE
niftest:_ZN3VFS7Manager10addArchiveEOSt10unique_ptrINS_7ArchiveESt14default_deleteIS2_EE
niftest:_ZN3VFS7Manager10buildIndexEv
niftest:_ZN3VFS7Manager5resetEv
niftest:_ZN3VFS7ManagerC1Eb
niftest:_ZN3VFS7ManagerC2Eb
niftest:_ZN3VFS7ManagerD1Ev
niftest:_ZN3VFS7ManagerD2Ev
niftest:_ZN5Debug17CurrentDebugLevelE
niftest:_ZN5Files24ConstrainedFileStreamBuf7seekoffElSt12_Ios_SeekdirSt13_Ios_Openmode
niftest:_ZN5Files24ConstrainedFileStreamBuf7seekposESt4fposI11__mbstate_tESt13_Ios_Openmode
niftest:_ZN5Files24ConstrainedFileStreamBuf9underflowEv
niftest:_ZN5Files24ConstrainedFileStreamBufC1ERKNSt7__cxx1112basic_stringIcSt11char_traitsIcESaIcEEEmm
niftest:_ZN5Files24ConstrainedFileStreamBufC2ERKNSt7__cxx1112basic_stringIcSt11char_traitsIcESaIcEEEmm
niftest:_ZN5Files25openConstrainedFileStreamERKNSt7__cxx1112basic_stringIcSt11char_traitsIcESaIcEEEmm
niftest:_ZN5Files7getHashERKNSt7__cxx1112basic_stringIcSt11char_traitsIcESaIcEEERSi
niftest:_ZN5boost9function1IvRKSt6vectorINSt7__cxx1112basic_stringIcSt11char_traitsIcESaIcEEESaIS7_EEE5dummy7nonnullEv
niftest:_ZN8Platform4File4openEPKc
niftest:_ZN8Platform4File4readENS0_6HandleEPvm
niftest:_ZN8Platform4File4seekENS0_6HandleEmNS0_8SeekTypeE
niftest:_ZN8Platform4File4sizeENS0_6HandleE
niftest:_ZN8Platform4File4tellENS0_6HandleE
niftest:_ZN8Platform4File5closeENS0_6HandleE
niftest:_ZNK3Bsa17CompressedBSAFile10FileRecord12isCompressedEb
niftest:_ZNK3Bsa17CompressedBSAFile10FileRecord29getSizeWithoutCompressionFlagEv
niftest:_ZNK3Bsa17CompressedBSAFile10FileRecord7isValidEv
niftest:_ZNK3Bsa17CompressedBSAFile13getFileRecordERKNSt7__cxx1112basic_stringIcSt11char_traitsIcESaIcEEE
niftest:_ZNK3Nif7NIFFile14getUseSkinningEv
niftest:_ZNK3Nif7NIFFile4failERKNSt7__cxx1112basic_stringIcSt11char_traitsIcESaIcEEE
niftest:_ZNK3Nif7NIFFile4warnERKNSt7__cxx1112basic_stringIcSt11char_traitsIcESaIcEEE
niftest:_ZNK3Nif7NIFFile9getStringB5cxx11Ej
niftest:_ZNK3Nif9NIFStream10getVersionEv
niftest:_ZNK3Nif9NIFStream14getBethVersionEv
niftest:_ZNK3Nif9NIFStream14getUserVersionEv
niftest:_ZNK3VFS10BsaArchive14getDescriptionB5cxx11Ev
niftest:_ZNK3VFS10BsaArchive8containsERKNSt7__cxx1112basic_stringIcSt11char_traitsIcESaIcEEEPFccE
niftest:_ZNK3VFS17FileSystemArchive14getDescriptionB5cxx11Ev
niftest:_ZNK3VFS17FileSystemArchive8containsERKNSt7__cxx1112basic_stringIcSt11char_traitsIcESaIcEEEPFccE
niftest:_ZNK3VFS20CompressedBsaArchive14getDescriptionB5cxx11Ev
niftest:_ZNK3VFS20CompressedBsaArchive8containsERKNSt7__cxx1112basic_stringIcSt11char_traitsIcESaIcEEEPFccE
niftest:_ZNK3VFS7Manager10getArchiveB5cxx11ESt17basic_string_viewIcSt11char_traitsIcEE
niftest:_ZNK3VFS7Manager13getNormalizedERKNSt7__cxx1112basic_stringIcSt11char_traitsIcESaIcEEE
niftest:_ZNK3VFS7Manager17normalizeFilenameB5cxx11ESt17basic_string_viewIcSt11char_traitsIcEE
niftest:_ZNK3VFS7Manager19getAbsoluteFileNameB5cxx11ESt17basic_string_viewIcSt11char_traitsIcEE
niftest:_ZNK3VFS7Manager29getRecursiveDirectoryIteratorESt17basic_string_viewIcSt11char_traitsIcEE
niftest:_ZNK3VFS7Manager3getESt17basic_string_viewIcSt11char_traitsIcEE
niftest:_ZNK3VFS7Manager6existsESt17basic_string_viewIcSt11char_traitsIcEE
niftest:_ZSt19piecewise_construct
niftest:_ZTIN3Bsa17CompressedBSAFileE
niftest:_ZTIN3Bsa7BSAFileE
niftest:_ZTIN3Nif10ControllerE
niftest:_ZTIN3Nif10NiBoolDataE
niftest:_ZTIN3Nif10NiGeometryE
niftest:_ZTIN3Nif10NiSkinDataE
niftest:_ZTIN3Nif10NiTriShapeE
niftest:_ZTIN3Nif11NiColorDataE
niftest:_ZTIN3Nif11NiExtraDataE
niftest:_ZTIN3Nif11NiFloatDataE
niftest:_ZTIN3Nif11NiLinesDataE
niftest:_ZTIN3Nif11NiMorphDataE
niftest:_ZTIN3Nif11NiPixelDataE
niftest:_ZTIN3Nif11NiSpotLightE
niftest:_ZTIN3Nif11StructPropTINS_15S_AlphaPropertyEEE
niftest:_ZTIN3Nif11StructPropTINS_21S_VertexColorPropertyEEE
niftest:_ZTIN3Nif11bhkBoxShapeE
niftest:_ZTIN3Nif12InterpolatorE
niftest:_ZTIN3Nif12NiPointLightE
niftest:_ZTIN3Nif12NiSwitchNodeE
niftest:_ZTIN3Nif12bhkListShapeE
niftest:_ZTIN3Nif12bhkRefObjectE
niftest:_ZTIN3Nif12bhkRigidBodyE
niftest:_ZTIN3Nif13BSLODTriShapeE
niftest:_ZTIN3Nif13NiAccumulatorE
niftest:_ZTIN3Nif13NiFogPropertyE
niftest:_ZTIN3Nif14NiGeometryDataE
niftest:_ZTIN3Nif14NiKeyframeDataE
niftest:_ZTIN3Nif14NiSkinInstanceE
niftest:_ZTIN3Nif14NiTriShapeDataE
niftest:_ZTIN3Nif14NiUVControllerE
niftest:_ZTIN3Nif14bhkBvTreeShapeE
niftest:_ZTIN3Nif14bhkConvexShapeE
niftest:_ZTIN3Nif14bhkWorldObjectE
niftest:_ZTIN3Nif15NiAlphaPropertyE
niftest:_ZTIN3Nif15NiDynamicEffectE
niftest:_ZTIN3Nif15NiParticlesDataE
niftest:_ZTIN3Nif15NiShadePropertyE
niftest:_ZTIN3Nif15NiSkinPartitionE
niftest:_ZTIN3Nif15NiSourceTextureE
niftest:_ZTIN3Nif15NiStringPaletteE
niftest:_ZTIN3Nif15NiTextureEffectE
niftest:_ZTIN3Nif15NiTriStripsDataE
niftest:_ZTIN3Nif15NiVisControllerE
niftest:_ZTIN3Nif15bhkSerializableE
niftest:_ZTIN3Nif16BSShaderPropertyE
niftest:_ZTIN3Nif16NiFlipControllerE
niftest:_ZTIN3Nif16NiFloatExtraDataE
niftest:_ZTIN3Nif16NiPathControllerE
niftest:_ZTIN3Nif16NiPlanarColliderE
niftest:_ZTIN3Nif16NiSortAdjustNodeE
niftest:_ZTIN3Nif17BSFurnitureMarkerE
niftest:_ZTIN3Nif17NiBinaryExtraDataE
niftest:_ZTIN3Nif17NiCollisionObjectE
niftest:_ZTIN3Nif17NiFloatsExtraDataE
niftest:_ZTIN3Nif17NiStringExtraDataE
niftest:_ZTIN3Nif17NiVectorExtraDataE
niftest:_ZTIN3Nif17bhkSphereRepShapeE
niftest:_ZTIN3Nif18BSShaderTextureSetE
niftest:_ZTIN3Nif18NiBoolInterpolatorE
niftest:_ZTIN3Nif18NiBooleanExtraDataE
niftest:_ZTIN3Nif18NiFltAnimationNodeE
niftest:_ZTIN3Nif18NiIntegerExtraDataE
niftest:_ZTIN3Nif18NiLookAtControllerE
niftest:_ZTIN3Nif18NiParticleColliderE
niftest:_ZTIN3Nif18NiParticleGrowFadeE
niftest:_ZTIN3Nif18NiParticleModifierE
niftest:_ZTIN3Nif18NiParticleRotationE
niftest:_ZTIN3Nif18NiTextKeyExtraDataE
niftest:_ZTIN3Nif18bhkBlendControllerE
niftest:_ZTIN3Nif18bhkCollisionObjectE
niftest:_ZTIN3Nif18bhkMoppBvTreeShapeE
niftest:_ZTIN3Nif18bhkShapeCollectionE
niftest:_ZTIN3Nif19NiColorInterpolatorE
niftest:_ZTIN3Nif19NiControllerManagerE
niftest:_ZTIN3Nif19NiFloatInterpolatorE
niftest:_ZTIN3Nif19NiIntegersExtraDataE
niftest:_ZTIN3Nif19NiSphericalColliderE
niftest:_ZTIN3Nif19NiTexturingPropertyE
niftest:_ZTIN3Nif19bhkNiTriStripsShapeE
niftest:_ZTIN3Nif20NiClusterAccumulatorE
niftest:_ZTIN3Nif20NiKeyframeControllerE
niftest:_ZTIN3Nif20NiPoint3InterpolatorE
niftest:_ZTIN3Nif22NiVertWeightsExtraDataE
niftest:_ZTIN3Nif22bhkConvexVerticesShapeE
niftest:_ZTIN3Nif23BSDismemberSkinInstanceE
niftest:_ZTIN3Nif23NiFloatInterpControllerE
niftest:_ZTIN3Nif23NiGeomMorpherControllerE
niftest:_ZTIN3Nif23NiParticleColorModifierE
niftest:_ZTIN3Nif23NiRotatingParticlesDataE
niftest:_ZTIN3Nif23NiTransformInterpolatorE
niftest:_ZTIN3Nif23hkPackedNiTriStripsDataE
niftest:_ZTIN3Nif24BSLightingShaderPropertyE
niftest:_ZTIN3Nif24BSShaderLightingPropertyE
niftest:_ZTIN3Nif25NiMaterialColorControllerE
niftest:_ZTIN3Nif25bhkPackedNiTriStripsShapeE
niftest:_ZTIN3Nif26BSShaderNoLightingPropertyE
niftest:_ZTIN3Nif26BSShaderPPLightingPropertyE
niftest:_ZTIN3Nif26NiParticleSystemControllerE
niftest:_ZTIN3Nif4FileE
niftest:_ZTIN3Nif4NodeE
niftest:_ZTIN3Nif5ExtraE
niftest:_ZTIN3Nif5NamedE
niftest:_ZTIN3Nif6NiNodeE
niftest:_ZTIN3Nif6RecordE
niftest:_ZTIN3Nif7BSBoundE
niftest:_ZTIN3Nif7NIFFileE
niftest:_ZTIN3Nif7NiLightE
niftest:_ZTIN3Nif8NiCameraE
niftest:_ZTIN3Nif8NiUVDataE
niftest:_ZTIN3Nif8PropertyE
niftest:_ZTIN3Nif8bhkShapeE
niftest:_ZTIN3Nif9NiGravityE
niftest:_ZTIN3Nif9NiLODNodeE
niftest:_ZTIN3Nif9NiPaletteE
niftest:_ZTIN3Nif9NiPosDataE
niftest:_ZTIN3Nif9NiVisDataE
niftest:_ZTIN3Nif9bhkEntityE
niftest:_ZTIN3VFS10BsaArchiveE
niftest:_ZTIN3VFS14BsaArchiveFileE
niftest:_ZTIN3VFS17FileSystemArchiveE
niftest:_ZTIN3VFS20CompressedBsaArchiveE
niftest:_ZTIN3VFS21FileSystemArchiveFileE
niftest:_ZTIN3VFS24CompressedBsaArchiveFileE
niftest:_ZTIN3VFS4FileE
niftest:_ZTIN3VFS7ArchiveE
niftest:_ZTIN5Files24ConstrainedFileStreamBufE
niftest:_ZTIN5Files6MemBufE
niftest:_ZTIN5boost10wrapexceptINS_12bad_any_castEEE
niftest:_ZTIN5boost10wrapexceptINS_15program_options20invalid_option_valueEEE
niftest:_ZTIN5boost10wrapexceptINS_17bad_function_callEEE
niftest:_ZTIN5boost10wrapexceptINSt8ios_base7failureB5cxx11EEE
niftest:_ZTIN5boost10wrapexceptISt11logic_errorEE
niftest:_ZTIN5boost12bad_any_castE
niftest:_ZTIN5boost12noncopyable_10base_tokenE
niftest:_ZTIN5boost12noncopyable_11noncopyableE
niftest:_ZTIN5boost15program_options16typed_value_baseE
niftest:_ZTIN5boost15program_options16validation_errorE
niftest:_ZTIN5boost15program_options20invalid_option_valueE
niftest:_ZTIN5boost16bad_lexical_castE
niftest:_ZTIN5boost16exception_detail10clone_baseE
niftest:_ZTIN5boost17bad_function_callE
niftest:_ZTIN5boost3any11placeholderE
niftest:_ZTIN5boost4anys6detail11placeholderE
niftest:_ZTIN5boost6detail15sp_counted_baseE
niftest:_ZTIN5boost6system14error_categoryE
niftest:_ZTIN5boost6system6detail21system_error_categoryE
niftest:_ZTIN5boost6system6detail22generic_error_categoryE
niftest:_ZTIN5boost6system6detail22interop_error_categoryE
niftest:_ZTIN5boost9exceptionE
niftest:_ZTIN5boost9iostreams14access_controlINS0_6detail12chain_clientINS0_5chainINS0_5inputEcSt11char_traitsIcESaIcEEEEENS0_7public_ENS2_4pub_ISA_EEEE
niftest:_ZTIN5boost9iostreams16symmetric_filterINS0_6detail22zlib_decompressor_implISaIcEEES4_EE
niftest:_ZTIN5boost9iostreams17basic_null_deviceIcNS0_5inputEEE
niftest:_ZTIN5boost9iostreams23basic_zlib_decompressorISaIcEEE
niftest:_ZTIN5boost9iostreams6detail12chain_clientINS0_5chainINS0_5inputEcSt11char_traitsIcESaIcEEEEE
niftest:_ZTIN5boost9iostreams6detail12mode_adapterINS0_5inputESiEE
niftest:_ZTIN5boost9iostreams6detail16linked_streambufIcSt11char_traitsIcEEE
niftest:_ZTIN5boost9iostreams6detail18indirect_streambufINS0_17basic_null_deviceIcNS0_5inputEEESt11char_traitsIcESaIcES4_EE
niftest:_ZTIN5boost9iostreams6detail18indirect_streambufINS0_23basic_zlib_decompressorISaIcEEESt11char_traitsIcES4_NS0_5inputEEE
niftest:_ZTIN5boost9iostreams6detail18indirect_streambufINS1_12mode_adapterINS0_5inputESiEESt11char_traitsIcESaIcES4_EE
niftest:_ZTIN5boost9iostreams6detail4pub_INS1_12chain_clientINS0_5chainINS0_5inputEcSt11char_traitsIcESaIcEEEEEEE
niftest:_ZTIN5boost9iostreams6detail8chainbufINS0_5chainINS0_5inputEcSt11char_traitsIcESaIcEEES4_NS0_7public_EEE
niftest:_ZTISt11_Mutex_baseILN9__gnu_cxx12_Lock_policyE2EE
niftest:_ZTISt12_Vector_baseINSt7__cxx1112basic_stringIcSt11char_traitsIcESaIcEEESaIS5_EE
niftest:_ZTISt12_Vector_baseIcSaIcEE
niftest:_ZTISt16_Sp_counted_baseILN9__gnu_cxx12_Lock_policyE2EE
niftest:_ZTISt6vectorINSt7__cxx1112basic_stringIcSt11char_traitsIcESaIcEEESaIS5_EE
niftest:_ZTISt6vectorIcSaIcEE
niftest:_ZTSN3Bsa17CompressedBSAFileE
niftest:_ZTSN3Bsa17MemoryInputStreamE
niftest:_ZTSN3Bsa7BSAFileE
niftest:_ZTSN3Nif10ControllerE
niftest:_ZTSN3Nif10NiBoolDataE
niftest:_ZTSN3Nif10NiGeometryE
niftest:_ZTSN3Nif10NiSkinDataE
niftest:_ZTSN3Nif10NiTriShapeE
niftest:_ZTSN3Nif11NiColorDataE
niftest:_ZTSN3Nif11NiExtraDataE
niftest:_ZTSN3Nif11NiFloatDataE
niftest:_ZTSN3Nif11NiLinesDataE
niftest:_ZTSN3Nif11NiMorphDataE
niftest:_ZTSN3Nif11NiParticlesE
niftest:_ZTSN3Nif11NiPixelDataE
niftest:_ZTSN3Nif11NiSpotLightE
niftest:_ZTSN3Nif11NiTriStripsE
niftest:_ZTSN3Nif11StructPropTINS_15S_AlphaPropertyEEE
niftest:_ZTSN3Nif11StructPropTINS_21S_VertexColorPropertyEEE
niftest:_ZTSN3Nif11bhkBoxShapeE
niftest:_ZTSN3Nif12InterpolatorE
niftest:_ZTSN3Nif12NiPointLightE
niftest:_ZTSN3Nif12NiSwitchNodeE
niftest:_ZTSN3Nif12bhkListShapeE
niftest:_ZTSN3Nif12bhkRefObjectE
niftest:_ZTSN3Nif12bhkRigidBodyE
niftest:_ZTSN3Nif13BSLODTriShapeE
niftest:_ZTSN3Nif13NiAccumulatorE
niftest:_ZTSN3Nif13NiFogPropertyE
niftest:_ZTSN3Nif14NiGeometryDataE
niftest:_ZTSN3Nif14NiKeyframeDataE
niftest:_ZTSN3Nif14NiSkinInstanceE
niftest:_ZTSN3Nif14NiTriShapeDataE
niftest:_ZTSN3Nif14NiUVControllerE
niftest:_ZTSN3Nif14bhkBvTreeShapeE
niftest:_ZTSN3Nif14bhkConvexShapeE
niftest:_ZTSN3Nif14bhkWorldObjectE
niftest:_ZTSN3Nif15NiAlphaPropertyE
niftest:_ZTSN3Nif15NiDynamicEffectE
niftest:_ZTSN3Nif15NiParticlesDataE
niftest:_ZTSN3Nif15NiShadePropertyE
niftest:_ZTSN3Nif15NiSkinPartitionE
niftest:_ZTSN3Nif15NiSourceTextureE
niftest:_ZTSN3Nif15NiStringPaletteE
niftest:_ZTSN3Nif15NiTextureEffectE
niftest:_ZTSN3Nif15NiTriStripsDataE
niftest:_ZTSN3Nif15NiVisControllerE
niftest:_ZTSN3Nif15bhkSerializableE
niftest:_ZTSN3Nif16BSShaderPropertyE
niftest:_ZTSN3Nif16NiDitherPropertyE
niftest:_ZTSN3Nif16NiFlipControllerE
niftest:_ZTSN3Nif16NiFloatExtraDataE
niftest:_ZTSN3Nif16NiPathControllerE
niftest:_ZTSN3Nif16NiPlanarColliderE
niftest:_ZTSN3Nif16NiRollControllerE
niftest:_ZTSN3Nif16NiSortAdjustNodeE
niftest:_ZTSN3Nif17BSFurnitureMarkerE
niftest:_ZTSN3Nif17NiAlphaControllerE
niftest:_ZTSN3Nif17NiBinaryExtraDataE
niftest:_ZTSN3Nif17NiCollisionObjectE
niftest:_ZTSN3Nif17NiFloatsExtraDataE
niftest:_ZTSN3Nif17NiStencilPropertyE
niftest:_ZTSN3Nif17NiStringExtraDataE
niftest:_ZTSN3Nif17NiVectorExtraDataE
niftest:_ZTSN3Nif17NiZBufferPropertyE
niftest:_ZTSN3Nif17bhkSphereRepShapeE
niftest:_ZTSN3Nif18BSShaderTextureSetE
niftest:_ZTSN3Nif18NiAlphaAccumulatorE
niftest:_ZTSN3Nif18NiBoolInterpolatorE
niftest:_ZTSN3Nif18NiBooleanExtraDataE
niftest:_ZTSN3Nif18NiFltAnimationNodeE
niftest:_ZTSN3Nif18NiIntegerExtraDataE
niftest:_ZTSN3Nif18NiLookAtControllerE
niftest:_ZTSN3Nif18NiMaterialPropertyE
niftest:_ZTSN3Nif18NiParticleColliderE
niftest:_ZTSN3Nif18NiParticleGrowFadeE
niftest:_ZTSN3Nif18NiParticleModifierE
niftest:_ZTSN3Nif18NiParticleRotationE
niftest:_ZTSN3Nif18NiSpecularPropertyE
niftest:_ZTSN3Nif18NiTextKeyExtraDataE
niftest:_ZTSN3Nif18bhkBlendControllerE
niftest:_ZTSN3Nif18bhkCollisionObjectE
niftest:_ZTSN3Nif18bhkMoppBvTreeShapeE
niftest:_ZTSN3Nif18bhkShapeCollectionE
niftest:_ZTSN3Nif19NiColorInterpolatorE
niftest:_ZTSN3Nif19NiControllerManagerE
niftest:_ZTSN3Nif19NiFloatInterpolatorE
niftest:_ZTSN3Nif19NiIntegersExtraDataE
niftest:_ZTSN3Nif19NiSphericalColliderE
niftest:_ZTSN3Nif19NiTexturingPropertyE
niftest:_ZTSN3Nif19NiWireframePropertyE
niftest:_ZTSN3Nif19bhkNiTriStripsShapeE
niftest:_ZTSN3Nif20NiClusterAccumulatorE
niftest:_ZTSN3Nif20NiKeyframeControllerE
niftest:_ZTSN3Nif20NiPoint3InterpolatorE
niftest:_ZTSN3Nif21NiVertexColorPropertyE
niftest:_ZTSN3Nif22NiVertWeightsExtraDataE
niftest:_ZTSN3Nif22bhkConvexVerticesShapeE
niftest:_ZTSN3Nif23BSDismemberSkinInstanceE
niftest:_ZTSN3Nif23NiFloatInterpControllerE
niftest:_ZTSN3Nif23NiGeomMorpherControllerE
niftest:_ZTSN3Nif23NiParticleColorModifierE
niftest:_ZTSN3Nif23NiRotatingParticlesDataE
niftest:_ZTSN3Nif23NiTransformInterpolatorE
niftest:_ZTSN3Nif23hkPackedNiTriStripsDataE
niftest:_ZTSN3Nif24BSLightingShaderPropertyE
niftest:_ZTSN3Nif24BSShaderLightingPropertyE
niftest:_ZTSN3Nif25NiMaterialColorControllerE
niftest:_ZTSN3Nif25bhkPackedNiTriStripsShapeE
niftest:_ZTSN3Nif26BSShaderNoLightingPropertyE
niftest:_ZTSN3Nif26BSShaderPPLightingPropertyE
niftest:_ZTSN3Nif26NiParticleSystemControllerE
niftest:_ZTSN3Nif4FileE
niftest:_ZTSN3Nif4NodeE
niftest:_ZTSN3Nif5ExtraE
niftest:_ZTSN3Nif5NamedE
niftest:_ZTSN3Nif6NiNodeE
niftest:_ZTSN3Nif6RecordE
niftest:_ZTSN3Nif7BSBoundE
niftest:_ZTSN3Nif7NIFFileE
niftest:_ZTSN3Nif7NiLightE
niftest:_ZTSN3Nif7NiLinesE
niftest:_ZTSN3Nif8NiCameraE
niftest:_ZTSN3Nif8NiUVDataE
niftest:_ZTSN3Nif8PropertyE
niftest:_ZTSN3Nif8bhkShapeE
niftest:_ZTSN3Nif9NiGravityE
niftest:_ZTSN3Nif9NiLODNodeE
niftest:_ZTSN3Nif9NiPaletteE
niftest:_ZTSN3Nif9NiPosDataE
niftest:_ZTSN3Nif9NiVisDataE
niftest:_ZTSN3Nif9bhkEntityE
niftest:_ZTSN3VFS10BsaArchiveE
niftest:_ZTSN3VFS14BsaArchiveFileE
niftest:_ZTSN3VFS17FileSystemArchiveE
niftest:_ZTSN3VFS20CompressedBsaArchiveE
niftest:_ZTSN3VFS21FileSystemArchiveFileE
niftest:_ZTSN3VFS24CompressedBsaArchiveFileE
niftest:_ZTSN3VFS4FileE
niftest:_ZTSN3VFS7ArchiveE
niftest:_ZTSN5Files16StreamWithBufferIN3Bsa17MemoryInputStreamEEE
niftest:_ZTSN5Files16StreamWithBufferINS_24ConstrainedFileStreamBufEEE
niftest:_ZTSN5Files24ConstrainedFileStreamBufE
niftest:_ZTSN5Files6MemBufE
niftest:_ZTSN5boost10filesystem13basic_fstreamIcSt11char_traitsIcEEE
niftest:_ZTSN5boost10filesystem14basic_ifstreamIcSt11char_traitsIcEEE
niftest:_ZTSN5boost10wrapexceptINS_12bad_any_castEEE
niftest:_ZTSN5boost10wrapexceptINS_15program_options20invalid_option_valueEEE
niftest:_ZTSN5boost10wrapexceptINS_17bad_function_callEEE
niftest:_ZTSN5boost10wrapexceptINSt8ios_base7failureB5cxx11EEE
niftest:_ZTSN5boost10wrapexceptISt11logic_errorEE
niftest:_ZTSN5boost12bad_any_castE
niftest:_ZTSN5boost12noncopyable_10base_tokenE
niftest:_ZTSN5boost12noncopyable_11noncopyableE
niftest:_ZTSN5boost15program_options11typed_valueISt6vectorINSt7__cxx1112basic_stringIcSt11char_traitsIcESaIcEEESaIS8_EEcEE
niftest:_ZTSN5boost15program_options16typed_value_baseE
niftest:_ZTSN5boost15program_options16validation_errorE
niftest:_ZTSN5boost15program_options20invalid_option_valueE
niftest:_ZTSN5boost15program_options5errorE
niftest:_ZTSN5boost16bad_lexical_castE
niftest:_ZTSN5boost16exception_detail10clone_baseE
niftest:_ZTSN5boost17bad_function_callE
niftest:_ZTSN5boost3any11placeholderE
niftest:_ZTSN5boost3any6holderISt6vectorINSt7__cxx1112basic_stringIcSt11char_traitsIcESaIcEEESaIS8_EEEE
niftest:_ZTSN5boost4anys6detail11placeholderE
niftest:_ZTSN5boost6detail15sp_counted_baseE
niftest:_ZTSN5boost6detail17sp_counted_impl_pINS_9iostreams16symmetric_filterINS2_6detail22zlib_decompressor_implISaIcEEES6_E4implEEE
niftest:_ZTSN5boost6detail17sp_counted_impl_pINS_9iostreams6detail10chain_baseINS2_5chainINS2_5inputEcSt11char_traitsIcESaIcEEEcS8_S9_S6_E10chain_implEEE
niftest:_ZTSN5boost6system14error_categoryE
niftest:_ZTSN5boost6system6detail21system_error_categoryE
niftest:_ZTSN5boost6system6detail22generic_error_categoryE
niftest:_ZTSN5boost6system6detail22interop_error_categoryE
niftest:_ZTSN5boost9exceptionE
niftest:_ZTSN5boost9iostreams13stream_bufferINS0_17basic_null_deviceIcNS0_5inputEEESt11char_traitsIcESaIcES3_EE
niftest:_ZTSN5boost9iostreams13stream_bufferINS0_23basic_zlib_decompressorISaIcEEESt11char_traitsIcES3_NS0_5inputEEE
niftest:_ZTSN5boost9iostreams13stream_bufferINS0_6detail12mode_adapterINS0_5inputESiEESt11char_traitsIcESaIcES4_EE
niftest:_ZTSN5boost9iostreams14access_controlINS0_6detail12chain_clientINS0_5chainINS0_5inputEcSt11char_traitsIcESaIcEEEEENS0_7public_ENS2_4pub_ISA_EEEE
niftest:_ZTSN5boost9iostreams16symmetric_filterINS0_6detail22zlib_decompressor_implISaIcEEES4_EE
niftest:_ZTSN5boost9iostreams17basic_null_deviceIcNS0_5inputEEE
niftest:_ZTSN5boost9iostreams19filtering_streambufINS0_5inputEcSt11char_traitsIcESaIcENS0_7public_EEE
niftest:_ZTSN5boost9iostreams23basic_zlib_decompressorISaIcEEE
niftest:_ZTSN5boost9iostreams6detail12chain_clientINS0_5chainINS0_5inputEcSt11char_traitsIcESaIcEEEEE
niftest:_ZTSN5boost9iostreams6detail12mode_adapterINS0_5inputESiEE
niftest:_ZTSN5boost9iostreams6detail16linked_streambufIcSt11char_traitsIcEEE
niftest:_ZTSN5boost9iostreams6detail18indirect_streambufINS0_17basic_null_deviceIcNS0_5inputEEESt11char_traitsIcESaIcES4_EE
niftest:_ZTSN5boost9iostreams6detail18indirect_streambufINS0_23basic_zlib_decompressorISaIcEEESt11char_traitsIcES4_NS0_5inputEEE
niftest:_ZTSN5boost9iostreams6detail18indirect_streambufINS1_12mode_adapterINS0_5inputESiEESt11char_traitsIcESaIcES4_EE
niftest:_ZTSN5boost9iostreams6detail4pub_INS1_12chain_clientINS0_5chainINS0_5inputEcSt11char_traitsIcESaIcEEEEEEE
niftest:_ZTSN5boost9iostreams6detail8chainbufINS0_5chainINS0_5inputEcSt11char_traitsIcESaIcEEES4_NS0_7public_EEE
niftest:_ZTSNSt7__cxx1112basic_stringIcSt11char_traitsIcESaIcEEE
niftest:_ZTSSt11_Mutex_baseILN9__gnu_cxx12_Lock_policyE2EE
niftest:_ZTSSt12_Vector_baseINSt7__cxx1112basic_stringIcSt11char_traitsIcESaIcEEESaIS5_EE
niftest:_ZTSSt12_Vector_baseIcSaIcEE
niftest:_ZTSSt16_Sp_counted_baseILN9__gnu_cxx12_Lock_policyE2EE
niftest:_ZTSSt19_Sp_make_shared_tag
niftest:_ZTSSt23_Sp_counted_ptr_inplaceIN3Nif7KeyMapTIN3osg4QuatEXadL_ZNS0_9NIFStream13getQuaternionEvEEEESaIvELN9__gnu_cxx12_Lock_policyE2EE
niftest:_ZTSSt23_Sp_counted_ptr_inplaceIN3Nif7KeyMapTIN3osg5Vec3fEXadL_ZNS0_9NIFStream10getVector3EvEEEESaIvELN9__gnu_cxx12_Lock_policyE2EE
niftest:_ZTSSt23_Sp_counted_ptr_inplaceIN3Nif7KeyMapTIN3osg5Vec4fEXadL_ZNS0_9NIFStream10getVector4EvEEEESaIvELN9__gnu_cxx12_Lock_policyE2EE
niftest:_ZTSSt23_Sp_counted_ptr_inplaceIN3Nif7KeyMapTIcXadL_ZNS0_9NIFStream7getCharEvEEEESaIvELN9__gnu_cxx12_Lock_policyE2EE
niftest:_ZTSSt23_Sp_counted_ptr_inplaceIN3Nif7KeyMapTIfXadL_ZNS0_9NIFStream8getFloatEvEEEESaIvELN9__gnu_cxx12_Lock_policyE2EE
niftest:_ZTSSt6vectorINSt7__cxx1112basic_stringIcSt11char_traitsIcESaIcEEESaIS5_EE
niftest:_ZTSSt6vectorIcSaIcEE
niftest:_ZTVN3Bsa17CompressedBSAFileE
niftest:_ZTVN3Bsa7BSAFileE
niftest:_ZTVN3Nif10ControllerE
niftest:_ZTVN3Nif10NiBoolDataE
niftest:_ZTVN3Nif10NiGeometryE
niftest:_ZTVN3Nif10NiSkinDataE
niftest:_ZTVN3Nif11NiColorDataE
niftest:_ZTVN3Nif11NiExtraDataE
niftest:_ZTVN3Nif11NiFloatDataE
niftest:_ZTVN3Nif11NiLinesDataE
niftest:_ZTVN3Nif11NiMorphDataE
niftest:_ZTVN3Nif11NiPixelDataE
niftest:_ZTVN3Nif11NiSpotLightE
niftest:_ZTVN3Nif11bhkBoxShapeE
niftest:_ZTVN3Nif12NiPointLightE
niftest:_ZTVN3Nif12NiSwitchNodeE
niftest:_ZTVN3Nif12bhkListShapeE
niftest:_ZTVN3Nif12bhkRigidBodyE
niftest:_ZTVN3Nif13BSLODTriShapeE
niftest:_ZTVN3Nif13NiFogPropertyE
niftest:_ZTVN3Nif14NiGeometryDataE
niftest:_ZTVN3Nif14NiKeyframeDataE
niftest:_ZTVN3Nif14NiSkinInstanceE
niftest:_ZTVN3Nif14NiTriShapeDataE
niftest:_ZTVN3Nif14NiUVControllerE
niftest:_ZTVN3Nif14bhkBvTreeShapeE
niftest:_ZTVN3Nif14bhkConvexShapeE
niftest:_ZTVN3Nif14bhkWorldObjectE
niftest:_ZTVN3Nif15NiDynamicEffectE
niftest:_ZTVN3Nif15NiParticlesDataE
niftest:_ZTVN3Nif15NiSkinPartitionE
niftest:_ZTVN3Nif15NiSourceTextureE
niftest:_ZTVN3Nif15NiStringPaletteE
niftest:_ZTVN3Nif15NiTextureEffectE
niftest:_ZTVN3Nif15NiTriStripsDataE
niftest:_ZTVN3Nif15NiVisControllerE
niftest:_ZTVN3Nif16BSShaderPropertyE
niftest:_ZTVN3Nif16NiFlipControllerE
niftest:_ZTVN3Nif16NiFloatExtraDataE
niftest:_ZTVN3Nif16NiPathControllerE
niftest:_ZTVN3Nif16NiPlanarColliderE
niftest:_ZTVN3Nif16NiSortAdjustNodeE
niftest:_ZTVN3Nif17BSFurnitureMarkerE
niftest:_ZTVN3Nif17NiBinaryExtraDataE
niftest:_ZTVN3Nif17NiFloatsExtraDataE
niftest:_ZTVN3Nif17NiStringExtraDataE
niftest:_ZTVN3Nif17NiVectorExtraDataE
niftest:_ZTVN3Nif17bhkSphereRepShapeE
niftest:_ZTVN3Nif18BSShaderTextureSetE
niftest:_ZTVN3Nif18NiBoolInterpolatorE
niftest:_ZTVN3Nif18NiBooleanExtraDataE
niftest:_ZTVN3Nif18NiFltAnimationNodeE
niftest:_ZTVN3Nif18NiIntegerExtraDataE
niftest:_ZTVN3Nif18NiLookAtControllerE
niftest:_ZTVN3Nif18NiParticleColliderE
niftest:_ZTVN3Nif18NiParticleGrowFadeE
niftest:_ZTVN3Nif18NiParticleModifierE
niftest:_ZTVN3Nif18NiParticleRotationE
niftest:_ZTVN3Nif18NiTextKeyExtraDataE
niftest:_ZTVN3Nif18bhkBlendControllerE
niftest:_ZTVN3Nif18bhkCollisionObjectE
niftest:_ZTVN3Nif18bhkMoppBvTreeShapeE
niftest:_ZTVN3Nif19NiColorInterpolatorE
niftest:_ZTVN3Nif19NiControllerManagerE
niftest:_ZTVN3Nif19NiFloatInterpolatorE
niftest:_ZTVN3Nif19NiIntegersExtraDataE
niftest:_ZTVN3Nif19NiSphericalColliderE
niftest:_ZTVN3Nif19NiTexturingPropertyE
niftest:_ZTVN3Nif19bhkNiTriStripsShapeE
niftest:_ZTVN3Nif20NiKeyframeControllerE
niftest:_ZTVN3Nif20NiPoint3InterpolatorE
niftest:_ZTVN3Nif22NiVertWeightsExtraDataE
niftest:_ZTVN3Nif22bhkConvexVerticesShapeE
niftest:_ZTVN3Nif23BSDismemberSkinInstanceE
niftest:_ZTVN3Nif23NiFloatInterpControllerE
niftest:_ZTVN3Nif23NiGeomMorpherControllerE
niftest:_ZTVN3Nif23NiParticleColorModifierE
niftest:_ZTVN3Nif23NiRotatingParticlesDataE
niftest:_ZTVN3Nif23NiTransformInterpolatorE
niftest:_ZTVN3Nif23hkPackedNiTriStripsDataE
niftest:_ZTVN3Nif24BSLightingShaderPropertyE
niftest:_ZTVN3Nif24BSShaderLightingPropertyE
niftest:_ZTVN3Nif25NiMaterialColorControllerE
niftest:_ZTVN3Nif25bhkPackedNiTriStripsShapeE
niftest:_ZTVN3Nif26BSShaderNoLightingPropertyE
niftest:_ZTVN3Nif26BSShaderPPLightingPropertyE
niftest:_ZTVN3Nif26NiParticleSystemControllerE
niftest:_ZTVN3Nif4NodeE
niftest:_ZTVN3Nif5ExtraE
niftest:_ZTVN3Nif5NamedE
niftest:_ZTVN3Nif6NiNodeE
niftest:_ZTVN3Nif7BSBoundE
niftest:_ZTVN3Nif7NIFFileE
niftest:_ZTVN3Nif7NiLightE
niftest:_ZTVN3Nif8NiCameraE
niftest:_ZTVN3Nif8NiUVDataE
niftest:_ZTVN3Nif9NiGravityE
niftest:_ZTVN3Nif9NiLODNodeE
niftest:_ZTVN3Nif9NiPaletteE
niftest:_ZTVN3Nif9NiPosDataE
niftest:_ZTVN3Nif9NiVisDataE
niftest:_ZTVN3Nif9bhkEntityE
niftest:_ZTVN3VFS10BsaArchiveE
niftest:_ZTVN3VFS14BsaArchiveFileE
niftest:_ZTVN3VFS17FileSystemArchiveE
niftest:_ZTVN3VFS20CompressedBsaArchiveE
niftest:_ZTVN3VFS21FileSystemArchiveFileE
niftest:_ZTVN3VFS24CompressedBsaArchiveFileE
niftest:_ZTVN5Files24ConstrainedFileStreamBufE
niftest:_ZTVN5boost6system14error_categoryE
niftest:_ZTVN5boost6system6detail21system_error_categoryE
niftest:_ZTVN5boost6system6detail22generic_error_categoryE
niftest:_ZTVN5boost6system6detail22interop_error_categoryE
niftest:_ZZN3Nif14Transformation11getIdentityEvE8identity
niftest:_ZZNSt19_Sp_make_shared_tag5_S_tiEvE5__tag
niftest:__bss_start
niftest:__data_start
niftest:_edata
niftest:_end
niftest:_start
niftest:main
openmw:_IO_stdin_used
openmw:_Z11scaleDamagefRKN7MWWorld3PtrES2_
openmw:_Z12getRawStderrv
openmw:_Z12getRawStdoutv
openmw:_Z12parseOptionsiPPcRN3OMW6EngineERN5Files20ConfigurationManagerE
openmw:_Z12setupLoggingRKNSt7__cxx1112basic_stringIcSt11char_traitsIcESaIcEEESt17basic_string_viewIcS2_E
openmw:_Z14runApplicationiPPc
openmw:_Z15changeExtensionRNSt7__cxx1112basic_stringIcSt11char_traitsIcESaIcEEESt17basic_string_viewIcS2_E
openmw:_Z15wrapApplicationPFiiPPcEiS0_St17basic_string_viewIcSt11char_traitsIcEE
openmw:_Z18getLockedRawStderrv
openmw:_Z19MurmurHash3_x64_128PKviPKmPv
openmw:_Z19crashCatcherInstalliPPcRKNSt7__cxx1112basic_stringIcSt11char_traitsIcESaIcEEE
openmw:_Z27crashCatcherInstallHandlersiPPciPiPKcPFiS_S_E
openmw:_Z7getHashRKNSt7__cxx1112basic_stringIcSt11char_traitsIcESaIcEEE
openmw:_ZGVN2fx9Technique4sExtB5cxx11E
openmw:_ZGVN2fx9Technique7sSubdirB5cxx11E
openmw:_ZGVZN11btMatrix3x311getIdentityEvE14identityMatrix
openmw:_ZGVZN11btTransform11getIdentityEvE17identityTransform
openmw:_ZGVZN12btQuaternion11getIdentityEvE12identityQuat
openmw:_ZGVZN15DetourNavigator21RecastGlobalAllocator13tempAllocatorEvE5value
openmw:_ZGVZN15DetourNavigator21RecastGlobalAllocator8instanceEvE5value
openmw:_ZGVZN2fx12StateUpdater19getStructDefinitionB5cxx11EvE10definition
openmw:_ZGVZN2fx7Widgets10EditNumberIfN3osg5Vec2fEE16getClassTypeNameB5cxx11EvE4type
openmw:_ZGVZN2fx7Widgets10EditNumberIfN3osg5Vec3fEE16getClassTypeNameB5cxx11EvE4type
openmw:_ZGVZN2fx7Widgets10EditNumberIfN3osg5Vec4fEE16getClassTypeNameB5cxx11EvE4type
openmw:_ZGVZN2fx7Widgets10EditNumberIffE16getClassTypeNameB5cxx11EvE4type
openmw:_ZGVZN2fx7Widgets10EditNumberIiiE16getClassTypeNameB5cxx11EvE4type
openmw:_ZGVZN2fx7Widgets11UniformBase16getClassTypeNameB5cxx11EvE4type
openmw:_ZGVZN2fx7Widgets13EditNumberInt16getClassTypeNameB5cxx11EvE4type
openmw:_ZGVZN2fx7Widgets15EditNumberFloat16getClassTypeNameB5cxx11EvE4type
openmw:_ZGVZN2fx7Widgets16EditNumberFloat216getClassTypeNameB5cxx11EvE4type
openmw:_ZGVZN2fx7Widgets16EditNumberFloat316getClassTypeNameB5cxx11EvE4type
openmw:_ZGVZN2fx7Widgets16EditNumberFloat416getClassTypeNameB5cxx11EvE4type
openmw:_ZGVZN2fx7Widgets8EditBool16getClassTypeNameB5cxx11EvE4type
openmw:_ZGVZN3Gui11FontWrapperIN5MyGUI6ButtonEE11getFontSizeB5cxx11EvE8fontSize
openmw:_ZGVZN3Gui11FontWrapperIN5MyGUI7EditBoxEE11getFontSizeB5cxx11EvE8fontSize
openmw:_ZGVZN3Gui11FontWrapperIN5MyGUI7TextBoxEE11getFontSizeB5cxx11EvE8fontSize
openmw:_ZGVZN3Gui11FontWrapperIN5MyGUI8ComboBoxEE11getFontSizeB5cxx11EvE8fontSize
openmw:_ZGVZN3Gui11ImageButton16getClassTypeNameB5cxx11EvE4type
openmw:_ZGVZN3Gui13WindowCaption16getClassTypeNameB5cxx11EvE4type
openmw:_ZGVZN3Gui14NumericEditBox16getClassTypeNameB5cxx11EvE4type
openmw:_ZGVZN3Gui15AutoSizedButton16getClassTypeNameB5cxx11EvE4type
openmw:_ZGVZN3Gui16AutoSizedEditBox16getClassTypeNameB5cxx11EvE4type
openmw:_ZGVZN3Gui16AutoSizedTextBox16getClassTypeNameB5cxx11EvE4type
openmw:_ZGVZN3Gui17SharedStateButton16getClassTypeNameB5cxx11EvE4type
openmw:_ZGVZN3Gui4HBox16getClassTypeNameB5cxx11EvE4type
openmw:_ZGVZN3Gui4VBox16getClassTypeNameB5cxx11EvE4type
openmw:_ZGVZN3Gui6Button16getClassTypeNameB5cxx11EvE4type
openmw:_ZGVZN3Gui6MWList16getClassTypeNameB5cxx11EvE4type
openmw:_ZGVZN3Gui6Spacer16getClassTypeNameB5cxx11EvE4type
openmw:_ZGVZN3Gui7EditBox16getClassTypeNameB5cxx11EvE4type
openmw:_ZGVZN3Gui7TextBox16getClassTypeNameB5cxx11EvE4type
openmw:_ZGVZN3Gui8ComboBox16getClassTypeNameB5cxx11EvE4type
openmw:_ZGVZN3Nif14Transformation11getIdentityEvE8identity
openmw:_ZGVZN3sol15usertype_traitsI10SDL_KeysymE14qualified_nameB5cxx11EvE3q_n
openmw:_ZGVZN3sol15usertype_traitsI10SDL_KeysymE14user_metatableB5cxx11EvE3u_m
openmw:_ZGVZN3sol15usertype_traitsI10SDL_KeysymE8gc_tableB5cxx11EvE3g_t
openmw:_ZGVZN3sol15usertype_traitsI10SDL_KeysymE9metatableB5cxx11EvE1m
openmw:_ZGVZN3sol15usertype_traitsIK10SDL_KeysymE9metatableB5cxx11EvE1m
openmw:_ZGVZN3sol15usertype_traitsIKN11MWMechanics9AiPackageEE9metatableB5cxx11EvE1m
openmw:_ZGVZN3sol15usertype_traitsIKN3ESM10IngredientEE9metatableB5cxx11EvE1m
openmw:_ZGVZN3sol15usertype_traitsIKN3ESM13MiscellaneousEE9metatableB5cxx11EvE1m
openmw:_ZGVZN3sol15usertype_traitsIKN3ESM3NPCEE9metatableB5cxx11EvE1m
openmw:_ZGVZN3sol15usertype_traitsIKN3ESM4BookEE9metatableB5cxx11EvE1m
openmw:_ZGVZN3sol15usertype_traitsIKN3ESM4DoorEE9metatableB5cxx11EvE1m
openmw:_ZGVZN3sol15usertype_traitsIKN3ESM5ProbeEE9metatableB5cxx11EvE1m
openmw:_ZGVZN3sol15usertype_traitsIKN3ESM6PotionEE9metatableB5cxx11EvE1m
openmw:_ZGVZN3sol15usertype_traitsIKN3ESM6RepairEE9metatableB5cxx11EvE1m
openmw:_ZGVZN3sol15usertype_traitsIKN3ESM6WeaponEE9metatableB5cxx11EvE1m
openmw:_ZGVZN3sol15usertype_traitsIKN3ESM8CreatureEE9metatableB5cxx11EvE1m
openmw:_ZGVZN3sol15usertype_traitsIKN3ESM8LockpickEE9metatableB5cxx11EvE1m
openmw:_ZGVZN3sol15usertype_traitsIKN3ESM9ActivatorEE9metatableB5cxx11EvE1m
openmw:_ZGVZN3sol15usertype_traitsIKN3ESM9ApparatusEE9metatableB5cxx11EvE1m
openmw:_ZGVZN3sol15usertype_traitsIKN3ESM9ContainerEE9metatableB5cxx11EvE1m
openmw:_ZGVZN3sol15usertype_traitsIKN3osg5Vec2fEE9metatableB5cxx11EvE1m
openmw:_ZGVZN3sol15usertype_traitsIKN3osg5Vec3fEE9metatableB5cxx11EvE1m
openmw:_ZGVZN3sol15usertype_traitsIKN3osg5Vec4fEE9metatableB5cxx11EvE1m
openmw:_ZGVZN3sol15usertype_traitsIKN4Misc5ColorEE9metatableB5cxx11EvE1m
openmw:_ZGVZN3sol15usertype_traitsIKN5LuaUi5LayerEE9metatableB5cxx11EvE1m
openmw:_ZGVZN3sol15usertype_traitsIKN5LuaUi7ElementEE9metatableB5cxx11EvE1m
openmw:_ZGVZN3sol15usertype_traitsIKN5MWLua10ObjectListINS1_7GObjectEEEE9metatableB5cxx11EvE1m
openmw:_ZGVZN3sol15usertype_traitsIKN5MWLua10ObjectListINS1_7LObjectEEEE9metatableB5cxx11EvE1m
openmw:_ZGVZN3sol15usertype_traitsIKN5MWLua11DynamicStatEE9metatableB5cxx11EvE1m
openmw:_ZGVZN3sol15usertype_traitsIKN5MWLua12LocalScripts10SelfObjectEE9metatableB5cxx11EvE1m
openmw:_ZGVZN3sol15usertype_traitsIKN5MWLua13AttributeStatEE9metatableB5cxx11EvE1m
openmw:_ZGVZN3sol15usertype_traitsIKN5MWLua5GCellEE9metatableB5cxx11EvE1m
openmw:_ZGVZN3sol15usertype_traitsIKN5MWLua5LCellEE9metatableB5cxx11EvE1m
openmw:_ZGVZN3sol15usertype_traitsIKN5MWLua6ShaderEE9metatableB5cxx11EvE1m
openmw:_ZGVZN3sol15usertype_traitsIKN5MWLua7GObjectEE9metatableB5cxx11EvE1m
openmw:_ZGVZN3sol15usertype_traitsIKN5MWLua7LObjectEE9metatableB5cxx11EvE1m
openmw:_ZGVZN3sol15usertype_traitsIKN5MWLua9InventoryINS1_7GObjectEEEE9metatableB5cxx11EvE1m
openmw:_ZGVZN3sol15usertype_traitsIKN5MWLua9InventoryINS1_7LObjectEEEE9metatableB5cxx11EvE1m
openmw:_ZGVZN3sol15usertype_traitsIKN5MWLua9LevelStatEE9metatableB5cxx11EvE1m
openmw:_ZGVZN3sol15usertype_traitsIKN5MWLua9SkillStatEE9metatableB5cxx11EvE1m
openmw:_ZGVZN3sol15usertype_traitsIKN6MWBase10LuaManager13ActorControlsEE9metatableB5cxx11EvE1m
openmw:_ZGVZN3sol15usertype_traitsIKN7LuaUtil10LuaStorage11SectionViewEE9metatableB5cxx11EvE1m
openmw:_ZGVZN3sol15usertype_traitsIKN7LuaUtil10TransformMEE9metatableB5cxx11EvE1m
openmw:_ZGVZN3sol15usertype_traitsIKN7LuaUtil10TransformQEE9metatableB5cxx11EvE1m
openmw:_ZGVZN3sol15usertype_traitsIKN7LuaUtil11L10nManager7ContextEE9metatableB5cxx11EvE1m
openmw:_ZGVZN3sol15usertype_traitsIKN7LuaUtil14AsyncPackageIdEE9metatableB5cxx11EvE1m
openmw:_ZGVZN3sol15usertype_traitsIKN7SDLUtil10TouchEventEE9metatableB5cxx11EvE1m
openmw:_ZGVZN3sol15usertype_traitsIKN9MWPhysics16RayCastingResultEE9metatableB5cxx11EvE1m
openmw:_ZGVZN3sol15usertype_traitsIMN3osg5Vec2fEKFfvEE17user_gc_metatableB5cxx11EvE5u_g_m
openmw:_ZGVZN3sol15usertype_traitsIMN3osg5Vec3fEKFfvEE17user_gc_metatableB5cxx11EvE5u_g_m
openmw:_ZGVZN3sol15usertype_traitsIMN3osg5Vec4fEKFfvEE17user_gc_metatableB5cxx11EvE5u_g_m
openmw:_ZGVZN3sol15usertype_traitsIMN5MWLua6ObjectEKFNSt7__cxx1112basic_stringIcSt11char_traitsIcESaIcEEEvEE17user_gc_metatableEvE5u_g_m
openmw:_ZGVZN3sol15usertype_traitsIMN7LuaUtil11L10nManager7ContextEFNSt7__cxx1112basic_stringIcSt11char_traitsIcESaIcEEESt17basic_string_viewIcS7_ERKNS_12basic_objectINS_15basic_referenceILb0EEEEEEE17user_gc_metatableEvE5u_g_m
openmw:_ZGVZN3sol15usertype_traitsIN11MWMechanics9AiPackageEE14qualified_nameB5cxx11EvE3q_n
openmw:_ZGVZN3sol15usertype_traitsIN11MWMechanics9AiPackageEE14user_metatableB5cxx11EvE3u_m
openmw:_ZGVZN3sol15usertype_traitsIN11MWMechanics9AiPackageEE8gc_tableB5cxx11EvE3g_t
openmw:_ZGVZN3sol15usertype_traitsIN11MWMechanics9AiPackageEE9metatableB5cxx11EvE1m
openmw:_ZGVZN3sol15usertype_traitsIN3ESM10IngredientEE14qualified_nameB5cxx11EvE3q_n
openmw:_ZGVZN3sol15usertype_traitsIN3ESM10IngredientEE14user_metatableB5cxx11EvE3u_m
openmw:_ZGVZN3sol15usertype_traitsIN3ESM10IngredientEE8gc_tableB5cxx11EvE3g_t
openmw:_ZGVZN3sol15usertype_traitsIN3ESM10IngredientEE9metatableB5cxx11EvE1m
openmw:_ZGVZN3sol15usertype_traitsIN3ESM13MiscellaneousEE14qualified_nameB5cxx11EvE3q_n
openmw:_ZGVZN3sol15usertype_traitsIN3ESM13MiscellaneousEE14user_metatableB5cxx11EvE3u_m
openmw:_ZGVZN3sol15usertype_traitsIN3ESM13MiscellaneousEE8gc_tableB5cxx11EvE3g_t
openmw:_ZGVZN3sol15usertype_traitsIN3ESM13MiscellaneousEE9metatableB5cxx11EvE1m
openmw:_ZGVZN3sol15usertype_traitsIN3ESM3NPCEE14qualified_nameB5cxx11EvE3q_n
openmw:_ZGVZN3sol15usertype_traitsIN3ESM3NPCEE14user_metatableB5cxx11EvE3u_m
openmw:_ZGVZN3sol15usertype_traitsIN3ESM3NPCEE8gc_tableB5cxx11EvE3g_t
openmw:_ZGVZN3sol15usertype_traitsIN3ESM3NPCEE9metatableB5cxx11EvE1m
openmw:_ZGVZN3sol15usertype_traitsIN3ESM4BookEE14qualified_nameB5cxx11EvE3q_n
openmw:_ZGVZN3sol15usertype_traitsIN3ESM4BookEE14user_metatableB5cxx11EvE3u_m
openmw:_ZGVZN3sol15usertype_traitsIN3ESM4BookEE8gc_tableB5cxx11EvE3g_t
openmw:_ZGVZN3sol15usertype_traitsIN3ESM4BookEE9metatableB5cxx11EvE1m
openmw:_ZGVZN3sol15usertype_traitsIN3ESM4DoorEE14qualified_nameB5cxx11EvE3q_n
openmw:_ZGVZN3sol15usertype_traitsIN3ESM4DoorEE14user_metatableB5cxx11EvE3u_m
openmw:_ZGVZN3sol15usertype_traitsIN3ESM4DoorEE8gc_tableB5cxx11EvE3g_t
openmw:_ZGVZN3sol15usertype_traitsIN3ESM4DoorEE9metatableB5cxx11EvE1m
openmw:_ZGVZN3sol15usertype_traitsIN3ESM5ProbeEE14qualified_nameB5cxx11EvE3q_n
openmw:_ZGVZN3sol15usertype_traitsIN3ESM5ProbeEE14user_metatableB5cxx11EvE3u_m
openmw:_ZGVZN3sol15usertype_traitsIN3ESM5ProbeEE8gc_tableB5cxx11EvE3g_t
openmw:_ZGVZN3sol15usertype_traitsIN3ESM5ProbeEE9metatableB5cxx11EvE1m
openmw:_ZGVZN3sol15usertype_traitsIN3ESM6PotionEE14qualified_nameB5cxx11EvE3q_n
openmw:_ZGVZN3sol15usertype_traitsIN3ESM6PotionEE14user_metatableB5cxx11EvE3u_m
openmw:_ZGVZN3sol15usertype_traitsIN3ESM6PotionEE8gc_tableB5cxx11EvE3g_t
openmw:_ZGVZN3sol15usertype_traitsIN3ESM6PotionEE9metatableB5cxx11EvE1m
openmw:_ZGVZN3sol15usertype_traitsIN3ESM6RefNumEE14qualified_nameB5cxx11EvE3q_n
openmw:_ZGVZN3sol15usertype_traitsIN3ESM6RefNumEE9metatableB5cxx11EvE1m
openmw:_ZGVZN3sol15usertype_traitsIN3ESM6RepairEE14qualified_nameB5cxx11EvE3q_n
openmw:_ZGVZN3sol15usertype_traitsIN3ESM6RepairEE14user_metatableB5cxx11EvE3u_m
openmw:_ZGVZN3sol15usertype_traitsIN3ESM6RepairEE8gc_tableB5cxx11EvE3g_t
openmw:_ZGVZN3sol15usertype_traitsIN3ESM6RepairEE9metatableB5cxx11EvE1m
openmw:_ZGVZN3sol15usertype_traitsIN3ESM6WeaponEE14qualified_nameB5cxx11EvE3q_n
openmw:_ZGVZN3sol15usertype_traitsIN3ESM6WeaponEE14user_metatableB5cxx11EvE3u_m
openmw:_ZGVZN3sol15usertype_traitsIN3ESM6WeaponEE8gc_tableB5cxx11EvE3g_t
openmw:_ZGVZN3sol15usertype_traitsIN3ESM6WeaponEE9metatableB5cxx11EvE1m
openmw:_ZGVZN3sol15usertype_traitsIN3ESM8CreatureEE14qualified_nameB5cxx11EvE3q_n
openmw:_ZGVZN3sol15usertype_traitsIN3ESM8CreatureEE14user_metatableB5cxx11EvE3u_m
openmw:_ZGVZN3sol15usertype_traitsIN3ESM8CreatureEE8gc_tableB5cxx11EvE3g_t
openmw:_ZGVZN3sol15usertype_traitsIN3ESM8CreatureEE9metatableB5cxx11EvE1m
openmw:_ZGVZN3sol15usertype_traitsIN3ESM8LockpickEE14qualified_nameB5cxx11EvE3q_n
openmw:_ZGVZN3sol15usertype_traitsIN3ESM8LockpickEE14user_metatableB5cxx11EvE3u_m
openmw:_ZGVZN3sol15usertype_traitsIN3ESM8LockpickEE8gc_tableB5cxx11EvE3g_t
openmw:_ZGVZN3sol15usertype_traitsIN3ESM8LockpickEE9metatableB5cxx11EvE1m
openmw:_ZGVZN3sol15usertype_traitsIN3ESM9ActivatorEE14qualified_nameB5cxx11EvE3q_n
openmw:_ZGVZN3sol15usertype_traitsIN3ESM9ActivatorEE14user_metatableB5cxx11EvE3u_m
openmw:_ZGVZN3sol15usertype_traitsIN3ESM9ActivatorEE8gc_tableB5cxx11EvE3g_t
openmw:_ZGVZN3sol15usertype_traitsIN3ESM9ActivatorEE9metatableB5cxx11EvE1m
openmw:_ZGVZN3sol15usertype_traitsIN3ESM9ApparatusEE14qualified_nameB5cxx11EvE3q_n
openmw:_ZGVZN3sol15usertype_traitsIN3ESM9ApparatusEE14user_metatableB5cxx11EvE3u_m
openmw:_ZGVZN3sol15usertype_traitsIN3ESM9ApparatusEE8gc_tableB5cxx11EvE3g_t
openmw:_ZGVZN3sol15usertype_traitsIN3ESM9ApparatusEE9metatableB5cxx11EvE1m
openmw:_ZGVZN3sol15usertype_traitsIN3ESM9ContainerEE14qualified_nameB5cxx11EvE3q_n
openmw:_ZGVZN3sol15usertype_traitsIN3ESM9ContainerEE14user_metatableB5cxx11EvE3u_m
openmw:_ZGVZN3sol15usertype_traitsIN3ESM9ContainerEE8gc_tableB5cxx11EvE3g_t
openmw:_ZGVZN3sol15usertype_traitsIN3ESM9ContainerEE9metatableB5cxx11EvE1m
openmw:_ZGVZN3sol15usertype_traitsIN3osg5Vec2fEE14qualified_nameB5cxx11EvE3q_n
openmw:_ZGVZN3sol15usertype_traitsIN3osg5Vec2fEE14user_metatableB5cxx11EvE3u_m
openmw:_ZGVZN3sol15usertype_traitsIN3osg5Vec2fEE8gc_tableB5cxx11EvE3g_t
openmw:_ZGVZN3sol15usertype_traitsIN3osg5Vec2fEE9metatableB5cxx11EvE1m
openmw:_ZGVZN3sol15usertype_traitsIN3osg5Vec3fEE14qualified_nameB5cxx11EvE3q_n
openmw:_ZGVZN3sol15usertype_traitsIN3osg5Vec3fEE14user_metatableB5cxx11EvE3u_m
openmw:_ZGVZN3sol15usertype_traitsIN3osg5Vec3fEE8gc_tableB5cxx11EvE3g_t
openmw:_ZGVZN3sol15usertype_traitsIN3osg5Vec3fEE9metatableB5cxx11EvE1m
openmw:_ZGVZN3sol15usertype_traitsIN3osg5Vec4fEE14qualified_nameB5cxx11EvE3q_n
openmw:_ZGVZN3sol15usertype_traitsIN3osg5Vec4fEE14user_metatableB5cxx11EvE3u_m
openmw:_ZGVZN3sol15usertype_traitsIN3osg5Vec4fEE8gc_tableB5cxx11EvE3g_t
openmw:_ZGVZN3sol15usertype_traitsIN3osg5Vec4fEE9metatableB5cxx11EvE1m
openmw:_ZGVZN3sol15usertype_traitsIN4Misc5ColorEE14qualified_nameB5cxx11EvE3q_n
openmw:_ZGVZN3sol15usertype_traitsIN4Misc5ColorEE14user_metatableB5cxx11EvE3u_m
openmw:_ZGVZN3sol15usertype_traitsIN4Misc5ColorEE8gc_tableB5cxx11EvE3g_t
openmw:_ZGVZN3sol15usertype_traitsIN4Misc5ColorEE9metatableB5cxx11EvE1m
openmw:_ZGVZN3sol15usertype_traitsIN5LuaUi11TextureDataEE14qualified_nameB5cxx11EvE3q_n
openmw:_ZGVZN3sol15usertype_traitsIN5LuaUi11TextureDataEE9metatableB5cxx11EvE1m
openmw:_ZGVZN3sol15usertype_traitsIN5LuaUi5LayerEE14qualified_nameB5cxx11EvE3q_n
openmw:_ZGVZN3sol15usertype_traitsIN5LuaUi5LayerEE14user_metatableB5cxx11EvE3u_m
openmw:_ZGVZN3sol15usertype_traitsIN5LuaUi5LayerEE8gc_tableB5cxx11EvE3g_t
openmw:_ZGVZN3sol15usertype_traitsIN5LuaUi5LayerEE9metatableB5cxx11EvE1m
openmw:_ZGVZN3sol15usertype_traitsIN5LuaUi7ElementEE14qualified_nameB5cxx11EvE3q_n
openmw:_ZGVZN3sol15usertype_traitsIN5LuaUi7ElementEE14user_metatableB5cxx11EvE3u_m
openmw:_ZGVZN3sol15usertype_traitsIN5LuaUi7ElementEE8gc_tableB5cxx11EvE3g_t
openmw:_ZGVZN3sol15usertype_traitsIN5LuaUi7ElementEE9metatableB5cxx11EvE1m
openmw:_ZGVZN3sol15usertype_traitsIN5MWLua10ObjectListINS1_7GObjectEEEE14qualified_nameB5cxx11EvE3q_n
openmw:_ZGVZN3sol15usertype_traitsIN5MWLua10ObjectListINS1_7GObjectEEEE14user_metatableB5cxx11EvE3u_m
openmw:_ZGVZN3sol15usertype_traitsIN5MWLua10ObjectListINS1_7GObjectEEEE8gc_tableB5cxx11EvE3g_t
openmw:_ZGVZN3sol15usertype_traitsIN5MWLua10ObjectListINS1_7GObjectEEEE9metatableB5cxx11EvE1m
openmw:_ZGVZN3sol15usertype_traitsIN5MWLua10ObjectListINS1_7LObjectEEEE14qualified_nameB5cxx11EvE3q_n
openmw:_ZGVZN3sol15usertype_traitsIN5MWLua10ObjectListINS1_7LObjectEEEE14user_metatableB5cxx11EvE3u_m
openmw:_ZGVZN3sol15usertype_traitsIN5MWLua10ObjectListINS1_7LObjectEEEE8gc_tableB5cxx11EvE3g_t
openmw:_ZGVZN3sol15usertype_traitsIN5MWLua10ObjectListINS1_7LObjectEEEE9metatableB5cxx11EvE1m
openmw:_ZGVZN3sol15usertype_traitsIN5MWLua11DynamicStatEE14qualified_nameB5cxx11EvE3q_n
openmw:_ZGVZN3sol15usertype_traitsIN5MWLua11DynamicStatEE14user_metatableB5cxx11EvE3u_m
openmw:_ZGVZN3sol15usertype_traitsIN5MWLua11DynamicStatEE8gc_tableB5cxx11EvE3g_t
openmw:_ZGVZN3sol15usertype_traitsIN5MWLua11DynamicStatEE9metatableB5cxx11EvE1m
openmw:_ZGVZN3sol15usertype_traitsIN5MWLua12LocalScripts10SelfObjectEE14qualified_nameB5cxx11EvE3q_n
openmw:_ZGVZN3sol15usertype_traitsIN5MWLua12LocalScripts10SelfObjectEE14user_metatableB5cxx11EvE3u_m
openmw:_ZGVZN3sol15usertype_traitsIN5MWLua12LocalScripts10SelfObjectEE8gc_tableB5cxx11EvE3g_t
openmw:_ZGVZN3sol15usertype_traitsIN5MWLua12LocalScripts10SelfObjectEE9metatableB5cxx11EvE1m
openmw:_ZGVZN3sol15usertype_traitsIN5MWLua13AttributeStatEE14qualified_nameB5cxx11EvE3q_n
openmw:_ZGVZN3sol15usertype_traitsIN5MWLua13AttributeStatEE14user_metatableB5cxx11EvE3u_m
openmw:_ZGVZN3sol15usertype_traitsIN5MWLua13AttributeStatEE8gc_tableB5cxx11EvE3g_t
openmw:_ZGVZN3sol15usertype_traitsIN5MWLua13AttributeStatEE9metatableB5cxx11EvE1m
openmw:_ZGVZN3sol15usertype_traitsIN5MWLua5GCellEE14qualified_nameB5cxx11EvE3q_n
openmw:_ZGVZN3sol15usertype_traitsIN5MWLua5GCellEE14user_metatableB5cxx11EvE3u_m
openmw:_ZGVZN3sol15usertype_traitsIN5MWLua5GCellEE8gc_tableB5cxx11EvE3g_t
openmw:_ZGVZN3sol15usertype_traitsIN5MWLua5GCellEE9metatableB5cxx11EvE1m
openmw:_ZGVZN3sol15usertype_traitsIN5MWLua5LCellEE14qualified_nameB5cxx11EvE3q_n
openmw:_ZGVZN3sol15usertype_traitsIN5MWLua5LCellEE14user_metatableB5cxx11EvE3u_m
openmw:_ZGVZN3sol15usertype_traitsIN5MWLua5LCellEE8gc_tableB5cxx11EvE3g_t
openmw:_ZGVZN3sol15usertype_traitsIN5MWLua5LCellEE9metatableB5cxx11EvE1m
openmw:_ZGVZN3sol15usertype_traitsIN5MWLua6ObjectEE14qualified_nameB5cxx11EvE3q_n
openmw:_ZGVZN3sol15usertype_traitsIN5MWLua6ObjectEE8gc_tableB5cxx11EvE3g_t
openmw:_ZGVZN3sol15usertype_traitsIN5MWLua6ObjectEE9metatableB5cxx11EvE1m
openmw:_ZGVZN3sol15usertype_traitsIN5MWLua6ShaderEE14qualified_nameB5cxx11EvE3q_n
openmw:_ZGVZN3sol15usertype_traitsIN5MWLua6ShaderEE14user_metatableB5cxx11EvE3u_m
openmw:_ZGVZN3sol15usertype_traitsIN5MWLua6ShaderEE8gc_tableB5cxx11EvE3g_t
openmw:_ZGVZN3sol15usertype_traitsIN5MWLua6ShaderEE9metatableB5cxx11EvE1m
openmw:_ZGVZN3sol15usertype_traitsIN5MWLua7GObjectEE14qualified_nameB5cxx11EvE3q_n
openmw:_ZGVZN3sol15usertype_traitsIN5MWLua7GObjectEE14user_metatableB5cxx11EvE3u_m
openmw:_ZGVZN3sol15usertype_traitsIN5MWLua7GObjectEE8gc_tableB5cxx11EvE3g_t
openmw:_ZGVZN3sol15usertype_traitsIN5MWLua7GObjectEE9metatableB5cxx11EvE1m
openmw:_ZGVZN3sol15usertype_traitsIN5MWLua7LObjectEE14qualified_nameB5cxx11EvE3q_n
openmw:_ZGVZN3sol15usertype_traitsIN5MWLua7LObjectEE14user_metatableB5cxx11EvE3u_m
openmw:_ZGVZN3sol15usertype_traitsIN5MWLua7LObjectEE8gc_tableB5cxx11EvE3g_t
openmw:_ZGVZN3sol15usertype_traitsIN5MWLua7LObjectEE9metatableB5cxx11EvE1m
openmw:_ZGVZN3sol15usertype_traitsIN5MWLua9InventoryINS1_7GObjectEEEE14qualified_nameB5cxx11EvE3q_n
openmw:_ZGVZN3sol15usertype_traitsIN5MWLua9InventoryINS1_7GObjectEEEE14user_metatableB5cxx11EvE3u_m
openmw:_ZGVZN3sol15usertype_traitsIN5MWLua9InventoryINS1_7GObjectEEEE8gc_tableB5cxx11EvE3g_t
openmw:_ZGVZN3sol15usertype_traitsIN5MWLua9InventoryINS1_7GObjectEEEE9metatableB5cxx11EvE1m
openmw:_ZGVZN3sol15usertype_traitsIN5MWLua9InventoryINS1_7LObjectEEEE14qualified_nameB5cxx11EvE3q_n
openmw:_ZGVZN3sol15usertype_traitsIN5MWLua9InventoryINS1_7LObjectEEEE14user_metatableB5cxx11EvE3u_m
openmw:_ZGVZN3sol15usertype_traitsIN5MWLua9InventoryINS1_7LObjectEEEE8gc_tableB5cxx11EvE3g_t
openmw:_ZGVZN3sol15usertype_traitsIN5MWLua9InventoryINS1_7LObjectEEEE9metatableB5cxx11EvE1m
openmw:_ZGVZN3sol15usertype_traitsIN5MWLua9LevelStatEE14qualified_nameB5cxx11EvE3q_n
openmw:_ZGVZN3sol15usertype_traitsIN5MWLua9LevelStatEE14user_metatableB5cxx11EvE3u_m
openmw:_ZGVZN3sol15usertype_traitsIN5MWLua9LevelStatEE8gc_tableB5cxx11EvE3g_t
openmw:_ZGVZN3sol15usertype_traitsIN5MWLua9LevelStatEE9metatableB5cxx11EvE1m
openmw:_ZGVZN3sol15usertype_traitsIN5MWLua9SkillStatEE14qualified_nameB5cxx11EvE3q_n
openmw:_ZGVZN3sol15usertype_traitsIN5MWLua9SkillStatEE14user_metatableB5cxx11EvE3u_m
openmw:_ZGVZN3sol15usertype_traitsIN5MWLua9SkillStatEE8gc_tableB5cxx11EvE3g_t
openmw:_ZGVZN3sol15usertype_traitsIN5MWLua9SkillStatEE9metatableB5cxx11EvE1m
openmw:_ZGVZN3sol15usertype_traitsIN6MWBase10LuaManager13ActorControlsEE14qualified_nameB5cxx11EvE3q_n
openmw:_ZGVZN3sol15usertype_traitsIN6MWBase10LuaManager13ActorControlsEE14user_metatableB5cxx11EvE3u_m
openmw:_ZGVZN3sol15usertype_traitsIN6MWBase10LuaManager13ActorControlsEE8gc_tableB5cxx11EvE3g_t
openmw:_ZGVZN3sol15usertype_traitsIN6MWBase10LuaManager13ActorControlsEE9metatableB5cxx11EvE1m
openmw:_ZGVZN3sol15usertype_traitsIN7LuaUtil10LuaStorage11SectionViewEE14qualified_nameB5cxx11EvE3q_n
openmw:_ZGVZN3sol15usertype_traitsIN7LuaUtil10LuaStorage11SectionViewEE14user_metatableB5cxx11EvE3u_m
openmw:_ZGVZN3sol15usertype_traitsIN7LuaUtil10LuaStorage11SectionViewEE8gc_tableB5cxx11EvE3g_t
openmw:_ZGVZN3sol15usertype_traitsIN7LuaUtil10LuaStorage11SectionViewEE9metatableB5cxx11EvE1m
openmw:_ZGVZN3sol15usertype_traitsIN7LuaUtil10TransformMEE14qualified_nameB5cxx11EvE3q_n
openmw:_ZGVZN3sol15usertype_traitsIN7LuaUtil10TransformMEE14user_metatableB5cxx11EvE3u_m
openmw:_ZGVZN3sol15usertype_traitsIN7LuaUtil10TransformMEE8gc_tableB5cxx11EvE3g_t
openmw:_ZGVZN3sol15usertype_traitsIN7LuaUtil10TransformMEE9metatableB5cxx11EvE1m
openmw:_ZGVZN3sol15usertype_traitsIN7LuaUtil10TransformQEE14qualified_nameB5cxx11EvE3q_n
openmw:_ZGVZN3sol15usertype_traitsIN7LuaUtil10TransformQEE14user_metatableB5cxx11EvE3u_m
openmw:_ZGVZN3sol15usertype_traitsIN7LuaUtil10TransformQEE8gc_tableB5cxx11EvE3g_t
openmw:_ZGVZN3sol15usertype_traitsIN7LuaUtil10TransformQEE9metatableB5cxx11EvE1m
openmw:_ZGVZN3sol15usertype_traitsIN7LuaUtil11L10nManager7ContextEE14qualified_nameB5cxx11EvE3q_n
openmw:_ZGVZN3sol15usertype_traitsIN7LuaUtil11L10nManager7ContextEE14user_metatableB5cxx11EvE3u_m
openmw:_ZGVZN3sol15usertype_traitsIN7LuaUtil11L10nManager7ContextEE8gc_tableB5cxx11EvE3g_t
openmw:_ZGVZN3sol15usertype_traitsIN7LuaUtil11L10nManager7ContextEE9metatableB5cxx11EvE1m
openmw:_ZGVZN3sol15usertype_traitsIN7LuaUtil13TimerCallbackEE14qualified_nameB5cxx11EvE3q_n
openmw:_ZGVZN3sol15usertype_traitsIN7LuaUtil13TimerCallbackEE9metatableB5cxx11EvE1m
openmw:_ZGVZN3sol15usertype_traitsIN7LuaUtil14AsyncPackageIdEE14qualified_nameB5cxx11EvE3q_n
openmw:_ZGVZN3sol15usertype_traitsIN7LuaUtil14AsyncPackageIdEE14user_metatableB5cxx11EvE3u_m
openmw:_ZGVZN3sol15usertype_traitsIN7LuaUtil14AsyncPackageIdEE8gc_tableB5cxx11EvE3g_t
openmw:_ZGVZN3sol15usertype_traitsIN7LuaUtil14AsyncPackageIdEE9metatableB5cxx11EvE1m
openmw:_ZGVZN3sol15usertype_traitsIN7LuaUtil16ScriptsContainer8ScriptIdEE14qualified_nameB5cxx11EvE3q_n
openmw:_ZGVZN3sol15usertype_traitsIN7LuaUtil16ScriptsContainer8ScriptIdEE9metatableB5cxx11EvE1m
openmw:_ZGVZN3sol15usertype_traitsIN7SDLUtil10TouchEventEE14qualified_nameB5cxx11EvE3q_n
openmw:_ZGVZN3sol15usertype_traitsIN7SDLUtil10TouchEventEE14user_metatableB5cxx11EvE3u_m
openmw:_ZGVZN3sol15usertype_traitsIN7SDLUtil10TouchEventEE8gc_tableB5cxx11EvE3g_t
openmw:_ZGVZN3sol15usertype_traitsIN7SDLUtil10TouchEventEE9metatableB5cxx11EvE1m
openmw:_ZGVZN3sol15usertype_traitsIN9MWPhysics16RayCastingResultEE14qualified_nameB5cxx11EvE3q_n
openmw:_ZGVZN3sol15usertype_traitsIN9MWPhysics16RayCastingResultEE14user_metatableB5cxx11EvE3u_m
openmw:_ZGVZN3sol15usertype_traitsIN9MWPhysics16RayCastingResultEE8gc_tableB5cxx11EvE3g_t
openmw:_ZGVZN3sol15usertype_traitsIN9MWPhysics16RayCastingResultEE9metatableB5cxx11EvE1m
openmw:_ZGVZN3sol15usertype_traitsINS_14as_container_tI10SDL_KeysymEEE9metatableB5cxx11EvE1m
openmw:_ZGVZN3sol15usertype_traitsINS_14as_container_tIN11MWMechanics9AiPackageEEEE9metatableB5cxx11EvE1m
openmw:_ZGVZN3sol15usertype_traitsINS_14as_container_tIN3ESM10IngredientEEEE9metatableB5cxx11EvE1m
openmw:_ZGVZN3sol15usertype_traitsINS_14as_container_tIN3ESM13MiscellaneousEEEE9metatableB5cxx11EvE1m
openmw:_ZGVZN3sol15usertype_traitsINS_14as_container_tIN3ESM3NPCEEEE9metatableB5cxx11EvE1m
openmw:_ZGVZN3sol15usertype_traitsINS_14as_container_tIN3ESM4BookEEEE9metatableB5cxx11EvE1m
openmw:_ZGVZN3sol15usertype_traitsINS_14as_container_tIN3ESM4DoorEEEE9metatableB5cxx11EvE1m
openmw:_ZGVZN3sol15usertype_traitsINS_14as_container_tIN3ESM5ProbeEEEE9metatableB5cxx11EvE1m
openmw:_ZGVZN3sol15usertype_traitsINS_14as_container_tIN3ESM6PotionEEEE9metatableB5cxx11EvE1m
openmw:_ZGVZN3sol15usertype_traitsINS_14as_container_tIN3ESM6RefNumEEEE9metatableB5cxx11EvE1m
openmw:_ZGVZN3sol15usertype_traitsINS_14as_container_tIN3ESM6RepairEEEE9metatableB5cxx11EvE1m
openmw:_ZGVZN3sol15usertype_traitsINS_14as_container_tIN3ESM6WeaponEEEE9metatableB5cxx11EvE1m
openmw:_ZGVZN3sol15usertype_traitsINS_14as_container_tIN3ESM8CreatureEEEE9metatableB5cxx11EvE1m
openmw:_ZGVZN3sol15usertype_traitsINS_14as_container_tIN3ESM8LockpickEEEE9metatableB5cxx11EvE1m
openmw:_ZGVZN3sol15usertype_traitsINS_14as_container_tIN3ESM9ActivatorEEEE9metatableB5cxx11EvE1m
openmw:_ZGVZN3sol15usertype_traitsINS_14as_container_tIN3ESM9ApparatusEEEE9metatableB5cxx11EvE1m
openmw:_ZGVZN3sol15usertype_traitsINS_14as_container_tIN3ESM9ContainerEEEE9metatableB5cxx11EvE1m
openmw:_ZGVZN3sol15usertype_traitsINS_14as_container_tIN3osg5Vec2fEEEE9metatableB5cxx11EvE1m
openmw:_ZGVZN3sol15usertype_traitsINS_14as_container_tIN3osg5Vec3fEEEE9metatableB5cxx11EvE1m
openmw:_ZGVZN3sol15usertype_traitsINS_14as_container_tIN3osg5Vec4fEEEE9metatableB5cxx11EvE1m
openmw:_ZGVZN3sol15usertype_traitsINS_14as_container_tIN4Misc5ColorEEEE9metatableB5cxx11EvE1m
openmw:_ZGVZN3sol15usertype_traitsINS_14as_container_tIN5LuaUi11TextureDataEEEE9metatableB5cxx11EvE1m
openmw:_ZGVZN3sol15usertype_traitsINS_14as_container_tIN5LuaUi5LayerEEEE9metatableB5cxx11EvE1m
openmw:_ZGVZN3sol15usertype_traitsINS_14as_container_tIN5LuaUi7ElementEEEE9metatableB5cxx11EvE1m
openmw:_ZGVZN3sol15usertype_traitsINS_14as_container_tIN5MWLua10ObjectListINS2_7GObjectEEEEEE9metatableB5cxx11EvE1m
openmw:_ZGVZN3sol15usertype_traitsINS_14as_container_tIN5MWLua10ObjectListINS2_7LObjectEEEEEE9metatableB5cxx11EvE1m
openmw:_ZGVZN3sol15usertype_traitsINS_14as_container_tIN5MWLua11DynamicStatEEEE9metatableB5cxx11EvE1m
openmw:_ZGVZN3sol15usertype_traitsINS_14as_container_tIN5MWLua12LocalScripts10SelfObjectEEEE9metatableB5cxx11EvE1m
openmw:_ZGVZN3sol15usertype_traitsINS_14as_container_tIN5MWLua13AttributeStatEEEE9metatableB5cxx11EvE1m
openmw:_ZGVZN3sol15usertype_traitsINS_14as_container_tIN5MWLua5GCellEEEE9metatableB5cxx11EvE1m
openmw:_ZGVZN3sol15usertype_traitsINS_14as_container_tIN5MWLua5LCellEEEE9metatableB5cxx11EvE1m
openmw:_ZGVZN3sol15usertype_traitsINS_14as_container_tIN5MWLua6ObjectEEEE9metatableB5cxx11EvE1m
openmw:_ZGVZN3sol15usertype_traitsINS_14as_container_tIN5MWLua6ShaderEEEE9metatableB5cxx11EvE1m
openmw:_ZGVZN3sol15usertype_traitsINS_14as_container_tIN5MWLua7GObjectEEEE9metatableB5cxx11EvE1m
openmw:_ZGVZN3sol15usertype_traitsINS_14as_container_tIN5MWLua7LObjectEEEE9metatableB5cxx11EvE1m
openmw:_ZGVZN3sol15usertype_traitsINS_14as_container_tIN5MWLua9InventoryINS2_7GObjectEEEEEE9metatableB5cxx11EvE1m
openmw:_ZGVZN3sol15usertype_traitsINS_14as_container_tIN5MWLua9InventoryINS2_7LObjectEEEEEE9metatableB5cxx11EvE1m
openmw:_ZGVZN3sol15usertype_traitsINS_14as_container_tIN5MWLua9LevelStatEEEE9metatableB5cxx11EvE1m
openmw:_ZGVZN3sol15usertype_traitsINS_14as_container_tIN5MWLua9SkillStatEEEE9metatableB5cxx11EvE1m
openmw:_ZGVZN3sol15usertype_traitsINS_14as_container_tIN6MWBase10LuaManager13ActorControlsEEEE9metatableB5cxx11EvE1m
openmw:_ZGVZN3sol15usertype_traitsINS_14as_container_tIN7LuaUtil10LuaStorage11SectionViewEEEE9metatableB5cxx11EvE1m
openmw:_ZGVZN3sol15usertype_traitsINS_14as_container_tIN7LuaUtil10TransformMEEEE9metatableB5cxx11EvE1m
openmw:_ZGVZN3sol15usertype_traitsINS_14as_container_tIN7LuaUtil10TransformQEEEE9metatableB5cxx11EvE1m
openmw:_ZGVZN3sol15usertype_traitsINS_14as_container_tIN7LuaUtil11L10nManager7ContextEEEE9metatableB5cxx11EvE1m
openmw:_ZGVZN3sol15usertype_traitsINS_14as_container_tIN7LuaUtil13TimerCallbackEEEE9metatableB5cxx11EvE1m
openmw:_ZGVZN3sol15usertype_traitsINS_14as_container_tIN7LuaUtil14AsyncPackageIdEEEE9metatableB5cxx11EvE1m
openmw:_ZGVZN3sol15usertype_traitsINS_14as_container_tIN7LuaUtil16ScriptsContainer8ScriptIdEEEE9metatableB5cxx11EvE1m
openmw:_ZGVZN3sol15usertype_traitsINS_14as_container_tIN7SDLUtil10TouchEventEEEE9metatableB5cxx11EvE1m
openmw:_ZGVZN3sol15usertype_traitsINS_14as_container_tIN9MWPhysics16RayCastingResultEEEE9metatableB5cxx11EvE1m
openmw:_ZGVZN3sol15usertype_traitsINS_14as_container_tINS_9base_listIJEEEEEE9metatableB5cxx11EvE1m
openmw:_ZGVZN3sol15usertype_traitsINS_14as_container_tINS_9base_listIJN5MWLua6ObjectEEEEEEE9metatableB5cxx11EvE1m
openmw:_ZGVZN3sol15usertype_traitsINS_14as_container_tINS_9base_listIJN5MWLua7LObjectENS3_6ObjectEEEEEEE9metatableB5cxx11EvE1m
openmw:_ZGVZN3sol15usertype_traitsINS_14as_container_tISt6vectorIN3osg5Vec3fESaIS4_EEEEE9metatableB5cxx11EvE1m
openmw:_ZGVZN3sol15usertype_traitsINS_14as_container_tIZN5MWLua14getArraySetterIN3osg5Vec2fEEEDaRKNS2_7ContextEEUlRKNS2_6ShaderERKNSt7__cxx1112basic_stringIcSt11char_traitsIcESaIcEEERKNS_16basic_table_coreILb0ENS_15basic_referenceILb0EEEEEE_EEE9metatableB5cxx11EvE1m
openmw:_ZGVZN3sol15usertype_traitsINS_14as_container_tIZN5MWLua14getArraySetterIN3osg5Vec3fEEEDaRKNS2_7ContextEEUlRKNS2_6ShaderERKNSt7__cxx1112basic_stringIcSt11char_traitsIcESaIcEEERKNS_16basic_table_coreILb0ENS_15basic_referenceILb0EEEEEE_EEE9metatableB5cxx11EvE1m
openmw:_ZGVZN3sol15usertype_traitsINS_14as_container_tIZN5MWLua14getArraySetterIN3osg5Vec4fEEEDaRKNS2_7ContextEEUlRKNS2_6ShaderERKNSt7__cxx1112basic_stringIcSt11char_traitsIcESaIcEEERKNS_16basic_table_coreILb0ENS_15basic_referenceILb0EEEEEE_EEE9metatableB5cxx11EvE1m
openmw:_ZGVZN3sol15usertype_traitsINS_14as_container_tIZN5MWLua14getArraySetterIfEEDaRKNS2_7ContextEEUlRKNS2_6ShaderERKNSt7__cxx1112basic_stringIcSt11char_traitsIcESaIcEEERKNS_16basic_table_coreILb0ENS_15basic_referenceILb0EEEEEE_EEE9metatableB5cxx11EvE1m
openmw:_ZGVZN3sol15usertype_traitsINS_14as_container_tIZN5MWLua14getArraySetterIiEEDaRKNS2_7ContextEEUlRKNS2_6ShaderERKNSt7__cxx1112basic_stringIcSt11char_traitsIcESaIcEEERKNS_16basic_table_coreILb0ENS_15basic_referenceILb0EEEEEE_EEE9metatableB5cxx11EvE1m
openmw:_ZGVZN3sol15usertype_traitsINS_14as_container_tIZN5MWLua9getSetterIN3osg5Vec2fEEEDaRKNS2_7ContextEEUlRKNS2_6ShaderERKNSt7__cxx1112basic_stringIcSt11char_traitsIcESaIcEEERKS5_E_EEE9metatableB5cxx11EvE1m
openmw:_ZGVZN3sol15usertype_traitsINS_14as_container_tIZN5MWLua9getSetterIN3osg5Vec3fEEEDaRKNS2_7ContextEEUlRKNS2_6ShaderERKNSt7__cxx1112basic_stringIcSt11char_traitsIcESaIcEEERKS5_E_EEE9metatableB5cxx11EvE1m
openmw:_ZGVZN3sol15usertype_traitsINS_14as_container_tIZN5MWLua9getSetterIN3osg5Vec4fEEEDaRKNS2_7ContextEEUlRKNS2_6ShaderERKNSt7__cxx1112basic_stringIcSt11char_traitsIcESaIcEEERKS5_E_EEE9metatableB5cxx11EvE1m
openmw:_ZGVZN3sol15usertype_traitsINS_14as_container_tIZN5MWLua9getSetterIbEEDaRKNS2_7ContextEEUlRKNS2_6ShaderERKNSt7__cxx1112basic_stringIcSt11char_traitsIcESaIcEEERKbE_EEE9metatableB5cxx11EvE1m
openmw:_ZGVZN3sol15usertype_traitsINS_14as_container_tIZN5MWLua9getSetterIfEEDaRKNS2_7ContextEEUlRKNS2_6ShaderERKNSt7__cxx1112basic_stringIcSt11char_traitsIcESaIcEEERKfE_EEE9metatableB5cxx11EvE1m
openmw:_ZGVZN3sol15usertype_traitsINS_14as_container_tIZN5MWLua9getSetterIiEEDaRKNS2_7ContextEEUlRKNS2_6ShaderERKNSt7__cxx1112basic_stringIcSt11char_traitsIcESaIcEEERKiE_EEE9metatableB5cxx11EvE1m
openmw:_ZGVZN3sol15usertype_traitsINS_16container_detail26usertype_container_defaultISt6vectorIN3osg5Vec3fESaIS5_EEvE4iterEE17user_gc_metatableB5cxx11EvE5u_g_m
openmw:_ZGVZN3sol15usertype_traitsINS_1d1uI10SDL_KeysymEEE9metatableB5cxx11EvE1m
openmw:_ZGVZN3sol15usertype_traitsINS_1d1uIN11MWMechanics9AiPackageEEEE9metatableB5cxx11EvE1m
openmw:_ZGVZN3sol15usertype_traitsINS_1d1uIN3ESM10IngredientEEEE9metatableB5cxx11EvE1m
openmw:_ZGVZN3sol15usertype_traitsINS_1d1uIN3ESM13MiscellaneousEEEE9metatableB5cxx11EvE1m
openmw:_ZGVZN3sol15usertype_traitsINS_1d1uIN3ESM3NPCEEEE9metatableB5cxx11EvE1m
openmw:_ZGVZN3sol15usertype_traitsINS_1d1uIN3ESM4BookEEEE9metatableB5cxx11EvE1m
openmw:_ZGVZN3sol15usertype_traitsINS_1d1uIN3ESM4DoorEEEE9metatableB5cxx11EvE1m
openmw:_ZGVZN3sol15usertype_traitsINS_1d1uIN3ESM5ProbeEEEE9metatableB5cxx11EvE1m
openmw:_ZGVZN3sol15usertype_traitsINS_1d1uIN3ESM6PotionEEEE9metatableB5cxx11EvE1m
openmw:_ZGVZN3sol15usertype_traitsINS_1d1uIN3ESM6RefNumEEEE9metatableB5cxx11EvE1m
openmw:_ZGVZN3sol15usertype_traitsINS_1d1uIN3ESM6RepairEEEE9metatableB5cxx11EvE1m
openmw:_ZGVZN3sol15usertype_traitsINS_1d1uIN3ESM6WeaponEEEE9metatableB5cxx11EvE1m
openmw:_ZGVZN3sol15usertype_traitsINS_1d1uIN3ESM8CreatureEEEE9metatableB5cxx11EvE1m
openmw:_ZGVZN3sol15usertype_traitsINS_1d1uIN3ESM8LockpickEEEE9metatableB5cxx11EvE1m
openmw:_ZGVZN3sol15usertype_traitsINS_1d1uIN3ESM9ActivatorEEEE9metatableB5cxx11EvE1m
openmw:_ZGVZN3sol15usertype_traitsINS_1d1uIN3ESM9ApparatusEEEE9metatableB5cxx11EvE1m
openmw:_ZGVZN3sol15usertype_traitsINS_1d1uIN3ESM9ContainerEEEE9metatableB5cxx11EvE1m
openmw:_ZGVZN3sol15usertype_traitsINS_1d1uIN3osg5Vec2fEEEE9metatableB5cxx11EvE1m
openmw:_ZGVZN3sol15usertype_traitsINS_1d1uIN3osg5Vec3fEEEE9metatableB5cxx11EvE1m
openmw:_ZGVZN3sol15usertype_traitsINS_1d1uIN3osg5Vec4fEEEE9metatableB5cxx11EvE1m
openmw:_ZGVZN3sol15usertype_traitsINS_1d1uIN4Misc5ColorEEEE9metatableB5cxx11EvE1m
openmw:_ZGVZN3sol15usertype_traitsINS_1d1uIN5LuaUi11TextureDataEEEE9metatableB5cxx11EvE1m
openmw:_ZGVZN3sol15usertype_traitsINS_1d1uIN5LuaUi5LayerEEEE9metatableB5cxx11EvE1m
openmw:_ZGVZN3sol15usertype_traitsINS_1d1uIN5LuaUi7ElementEEEE9metatableB5cxx11EvE1m
openmw:_ZGVZN3sol15usertype_traitsINS_1d1uIN5MWLua10ObjectListINS3_7GObjectEEEEEE9metatableB5cxx11EvE1m
openmw:_ZGVZN3sol15usertype_traitsINS_1d1uIN5MWLua10ObjectListINS3_7LObjectEEEEEE9metatableB5cxx11EvE1m
openmw:_ZGVZN3sol15usertype_traitsINS_1d1uIN5MWLua11DynamicStatEEEE9metatableB5cxx11EvE1m
openmw:_ZGVZN3sol15usertype_traitsINS_1d1uIN5MWLua12LocalScripts10SelfObjectEEEE9metatableB5cxx11EvE1m
openmw:_ZGVZN3sol15usertype_traitsINS_1d1uIN5MWLua13AttributeStatEEEE9metatableB5cxx11EvE1m
openmw:_ZGVZN3sol15usertype_traitsINS_1d1uIN5MWLua5GCellEEEE9metatableB5cxx11EvE1m
openmw:_ZGVZN3sol15usertype_traitsINS_1d1uIN5MWLua5LCellEEEE9metatableB5cxx11EvE1m
openmw:_ZGVZN3sol15usertype_traitsINS_1d1uIN5MWLua6ObjectEEEE9metatableB5cxx11EvE1m
openmw:_ZGVZN3sol15usertype_traitsINS_1d1uIN5MWLua6ShaderEEEE9metatableB5cxx11EvE1m
openmw:_ZGVZN3sol15usertype_traitsINS_1d1uIN5MWLua7GObjectEEEE9metatableB5cxx11EvE1m
openmw:_ZGVZN3sol15usertype_traitsINS_1d1uIN5MWLua7LObjectEEEE9metatableB5cxx11EvE1m
openmw:_ZGVZN3sol15usertype_traitsINS_1d1uIN5MWLua9InventoryINS3_7GObjectEEEEEE9metatableB5cxx11EvE1m
openmw:_ZGVZN3sol15usertype_traitsINS_1d1uIN5MWLua9InventoryINS3_7LObjectEEEEEE9metatableB5cxx11EvE1m
openmw:_ZGVZN3sol15usertype_traitsINS_1d1uIN5MWLua9LevelStatEEEE9metatableB5cxx11EvE1m
openmw:_ZGVZN3sol15usertype_traitsINS_1d1uIN5MWLua9SkillStatEEEE9metatableB5cxx11EvE1m
openmw:_ZGVZN3sol15usertype_traitsINS_1d1uIN6MWBase10LuaManager13ActorControlsEEEE9metatableB5cxx11EvE1m
openmw:_ZGVZN3sol15usertype_traitsINS_1d1uIN7LuaUtil10LuaStorage11SectionViewEEEE9metatableB5cxx11EvE1m
openmw:_ZGVZN3sol15usertype_traitsINS_1d1uIN7LuaUtil10TransformMEEEE9metatableB5cxx11EvE1m
openmw:_ZGVZN3sol15usertype_traitsINS_1d1uIN7LuaUtil10TransformQEEEE9metatableB5cxx11EvE1m
openmw:_ZGVZN3sol15usertype_traitsINS_1d1uIN7LuaUtil11L10nManager7ContextEEEE9metatableB5cxx11EvE1m
openmw:_ZGVZN3sol15usertype_traitsINS_1d1uIN7LuaUtil13TimerCallbackEEEE9metatableB5cxx11EvE1m
openmw:_ZGVZN3sol15usertype_traitsINS_1d1uIN7LuaUtil14AsyncPackageIdEEEE9metatableB5cxx11EvE1m
openmw:_ZGVZN3sol15usertype_traitsINS_1d1uIN7LuaUtil16ScriptsContainer8ScriptIdEEEE9metatableB5cxx11EvE1m
openmw:_ZGVZN3sol15usertype_traitsINS_1d1uIN7SDLUtil10TouchEventEEEE9metatableB5cxx11EvE1m
openmw:_ZGVZN3sol15usertype_traitsINS_1d1uIN9MWPhysics16RayCastingResultEEEE9metatableB5cxx11EvE1m
openmw:_ZGVZN3sol15usertype_traitsINS_1d1uINS_9base_listIJEEEEEE9metatableB5cxx11EvE1m
openmw:_ZGVZN3sol15usertype_traitsINS_1d1uINS_9base_listIJN5MWLua6ObjectEEEEEEE9metatableB5cxx11EvE1m
openmw:_ZGVZN3sol15usertype_traitsINS_1d1uINS_9base_listIJN5MWLua7LObjectENS4_6ObjectEEEEEEE9metatableB5cxx11EvE1m
openmw:_ZGVZN3sol15usertype_traitsINS_1d1uISt6vectorIN3osg5Vec3fESaIS5_EEEEE9metatableB5cxx11EvE1m
openmw:_ZGVZN3sol15usertype_traitsINS_1d1uIZN5MWLua14getArraySetterIN3osg5Vec2fEEEDaRKNS3_7ContextEEUlRKNS3_6ShaderERKNSt7__cxx1112basic_stringIcSt11char_traitsIcESaIcEEERKNS_16basic_table_coreILb0ENS_15basic_referenceILb0EEEEEE_EEE9metatableB5cxx11EvE1m
openmw:_ZGVZN3sol15usertype_traitsINS_1d1uIZN5MWLua14getArraySetterIN3osg5Vec3fEEEDaRKNS3_7ContextEEUlRKNS3_6ShaderERKNSt7__cxx1112basic_stringIcSt11char_traitsIcESaIcEEERKNS_16basic_table_coreILb0ENS_15basic_referenceILb0EEEEEE_EEE9metatableB5cxx11EvE1m
openmw:_ZGVZN3sol15usertype_traitsINS_1d1uIZN5MWLua14getArraySetterIN3osg5Vec4fEEEDaRKNS3_7ContextEEUlRKNS3_6ShaderERKNSt7__cxx1112basic_stringIcSt11char_traitsIcESaIcEEERKNS_16basic_table_coreILb0ENS_15basic_referenceILb0EEEEEE_EEE9metatableB5cxx11EvE1m
openmw:_ZGVZN3sol15usertype_traitsINS_1d1uIZN5MWLua14getArraySetterIfEEDaRKNS3_7ContextEEUlRKNS3_6ShaderERKNSt7__cxx1112basic_stringIcSt11char_traitsIcESaIcEEERKNS_16basic_table_coreILb0ENS_15basic_referenceILb0EEEEEE_EEE9metatableB5cxx11EvE1m
openmw:_ZGVZN3sol15usertype_traitsINS_1d1uIZN5MWLua14getArraySetterIiEEDaRKNS3_7ContextEEUlRKNS3_6ShaderERKNSt7__cxx1112basic_stringIcSt11char_traitsIcESaIcEEERKNS_16basic_table_coreILb0ENS_15basic_referenceILb0EEEEEE_EEE9metatableB5cxx11EvE1m
openmw:_ZGVZN3sol15usertype_traitsINS_1d1uIZN5MWLua9getSetterIN3osg5Vec2fEEEDaRKNS3_7ContextEEUlRKNS3_6ShaderERKNSt7__cxx1112basic_stringIcSt11char_traitsIcESaIcEEERKS6_E_EEE9metatableB5cxx11EvE1m
openmw:_ZGVZN3sol15usertype_traitsINS_1d1uIZN5MWLua9getSetterIN3osg5Vec3fEEEDaRKNS3_7ContextEEUlRKNS3_6ShaderERKNSt7__cxx1112basic_stringIcSt11char_traitsIcESaIcEEERKS6_E_EEE9metatableB5cxx11EvE1m
openmw:_ZGVZN3sol15usertype_traitsINS_1d1uIZN5MWLua9getSetterIN3osg5Vec4fEEEDaRKNS3_7ContextEEUlRKNS3_6ShaderERKNSt7__cxx1112basic_stringIcSt11char_traitsIcESaIcEEERKS6_E_EEE9metatableB5cxx11EvE1m
openmw:_ZGVZN3sol15usertype_traitsINS_1d1uIZN5MWLua9getSetterIbEEDaRKNS3_7ContextEEUlRKNS3_6ShaderERKNSt7__cxx1112basic_stringIcSt11char_traitsIcESaIcEEERKbE_EEE9metatableB5cxx11EvE1m
openmw:_ZGVZN3sol15usertype_traitsINS_1d1uIZN5MWLua9getSetterIfEEDaRKNS3_7ContextEEUlRKNS3_6ShaderERKNSt7__cxx1112basic_stringIcSt11char_traitsIcESaIcEEERKfE_EEE9metatableB5cxx11EvE1m
openmw:_ZGVZN3sol15usertype_traitsINS_1d1uIZN5MWLua9getSetterIiEEDaRKNS3_7ContextEEUlRKNS3_6ShaderERKNSt7__cxx1112basic_stringIcSt11char_traitsIcESaIcEEERKiE_EEE9metatableB5cxx11EvE1m
openmw:_ZGVZN3sol15usertype_traitsINS_8u_detail16usertype_storageI10SDL_KeysymEEE17user_gc_metatableB5cxx11EvE5u_g_m
openmw:_ZGVZN3sol15usertype_traitsINS_8u_detail16usertype_storageIN11MWMechanics9AiPackageEEEE17user_gc_metatableB5cxx11EvE5u_g_m
openmw:_ZGVZN3sol15usertype_traitsINS_8u_detail16usertype_storageIN3ESM10IngredientEEEE17user_gc_metatableB5cxx11EvE5u_g_m
openmw:_ZGVZN3sol15usertype_traitsINS_8u_detail16usertype_storageIN3ESM13MiscellaneousEEEE17user_gc_metatableB5cxx11EvE5u_g_m
openmw:_ZGVZN3sol15usertype_traitsINS_8u_detail16usertype_storageIN3ESM3NPCEEEE17user_gc_metatableB5cxx11EvE5u_g_m
openmw:_ZGVZN3sol15usertype_traitsINS_8u_detail16usertype_storageIN3ESM4BookEEEE17user_gc_metatableB5cxx11EvE5u_g_m
openmw:_ZGVZN3sol15usertype_traitsINS_8u_detail16usertype_storageIN3ESM4DoorEEEE17user_gc_metatableB5cxx11EvE5u_g_m
openmw:_ZGVZN3sol15usertype_traitsINS_8u_detail16usertype_storageIN3ESM5ProbeEEEE17user_gc_metatableB5cxx11EvE5u_g_m
openmw:_ZGVZN3sol15usertype_traitsINS_8u_detail16usertype_storageIN3ESM6PotionEEEE17user_gc_metatableB5cxx11EvE5u_g_m
openmw:_ZGVZN3sol15usertype_traitsINS_8u_detail16usertype_storageIN3ESM6RepairEEEE17user_gc_metatableB5cxx11EvE5u_g_m
openmw:_ZGVZN3sol15usertype_traitsINS_8u_detail16usertype_storageIN3ESM6WeaponEEEE17user_gc_metatableB5cxx11EvE5u_g_m
openmw:_ZGVZN3sol15usertype_traitsINS_8u_detail16usertype_storageIN3ESM8CreatureEEEE17user_gc_metatableB5cxx11EvE5u_g_m
openmw:_ZGVZN3sol15usertype_traitsINS_8u_detail16usertype_storageIN3ESM8LockpickEEEE17user_gc_metatableB5cxx11EvE5u_g_m
openmw:_ZGVZN3sol15usertype_traitsINS_8u_detail16usertype_storageIN3ESM9ActivatorEEEE17user_gc_metatableB5cxx11EvE5u_g_m
openmw:_ZGVZN3sol15usertype_traitsINS_8u_detail16usertype_storageIN3ESM9ApparatusEEEE17user_gc_metatableB5cxx11EvE5u_g_m
openmw:_ZGVZN3sol15usertype_traitsINS_8u_detail16usertype_storageIN3ESM9ContainerEEEE17user_gc_metatableB5cxx11EvE5u_g_m
openmw:_ZGVZN3sol15usertype_traitsINS_8u_detail16usertype_storageIN3osg5Vec2fEEEE17user_gc_metatableB5cxx11EvE5u_g_m
openmw:_ZGVZN3sol15usertype_traitsINS_8u_detail16usertype_storageIN3osg5Vec3fEEEE17user_gc_metatableB5cxx11EvE5u_g_m
openmw:_ZGVZN3sol15usertype_traitsINS_8u_detail16usertype_storageIN3osg5Vec4fEEEE17user_gc_metatableB5cxx11EvE5u_g_m
openmw:_ZGVZN3sol15usertype_traitsINS_8u_detail16usertype_storageIN4Misc5ColorEEEE17user_gc_metatableB5cxx11EvE5u_g_m
openmw:_ZGVZN3sol15usertype_traitsINS_8u_detail16usertype_storageIN5LuaUi5LayerEEEE17user_gc_metatableB5cxx11EvE5u_g_m
openmw:_ZGVZN3sol15usertype_traitsINS_8u_detail16usertype_storageIN5LuaUi7ElementEEEE17user_gc_metatableB5cxx11EvE5u_g_m
openmw:_ZGVZN3sol15usertype_traitsINS_8u_detail16usertype_storageIN5MWLua10ObjectListINS3_7GObjectEEEEEE17user_gc_metatableB5cxx11EvE5u_g_m
openmw:_ZGVZN3sol15usertype_traitsINS_8u_detail16usertype_storageIN5MWLua10ObjectListINS3_7LObjectEEEEEE17user_gc_metatableB5cxx11EvE5u_g_m
openmw:_ZGVZN3sol15usertype_traitsINS_8u_detail16usertype_storageIN5MWLua11DynamicStatEEEE17user_gc_metatableB5cxx11EvE5u_g_m
openmw:_ZGVZN3sol15usertype_traitsINS_8u_detail16usertype_storageIN5MWLua12LocalScripts10SelfObjectEEEE17user_gc_metatableB5cxx11EvE5u_g_m
openmw:_ZGVZN3sol15usertype_traitsINS_8u_detail16usertype_storageIN5MWLua13AttributeStatEEEE17user_gc_metatableB5cxx11EvE5u_g_m
openmw:_ZGVZN3sol15usertype_traitsINS_8u_detail16usertype_storageIN5MWLua5GCellEEEE17user_gc_metatableB5cxx11EvE5u_g_m
openmw:_ZGVZN3sol15usertype_traitsINS_8u_detail16usertype_storageIN5MWLua5LCellEEEE17user_gc_metatableB5cxx11EvE5u_g_m
openmw:_ZGVZN3sol15usertype_traitsINS_8u_detail16usertype_storageIN5MWLua6ShaderEEEE17user_gc_metatableB5cxx11EvE5u_g_m
openmw:_ZGVZN3sol15usertype_traitsINS_8u_detail16usertype_storageIN5MWLua7GObjectEEEE17user_gc_metatableB5cxx11EvE5u_g_m
openmw:_ZGVZN3sol15usertype_traitsINS_8u_detail16usertype_storageIN5MWLua7LObjectEEEE17user_gc_metatableB5cxx11EvE5u_g_m
openmw:_ZGVZN3sol15usertype_traitsINS_8u_detail16usertype_storageIN5MWLua9InventoryINS3_7GObjectEEEEEE17user_gc_metatableB5cxx11EvE5u_g_m
openmw:_ZGVZN3sol15usertype_traitsINS_8u_detail16usertype_storageIN5MWLua9InventoryINS3_7LObjectEEEEEE17user_gc_metatableB5cxx11EvE5u_g_m
openmw:_ZGVZN3sol15usertype_traitsINS_8u_detail16usertype_storageIN5MWLua9LevelStatEEEE17user_gc_metatableB5cxx11EvE5u_g_m
openmw:_ZGVZN3sol15usertype_traitsINS_8u_detail16usertype_storageIN5MWLua9SkillStatEEEE17user_gc_metatableB5cxx11EvE5u_g_m
openmw:_ZGVZN3sol15usertype_traitsINS_8u_detail16usertype_storageIN6MWBase10LuaManager13ActorControlsEEEE17user_gc_metatableB5cxx11EvE5u_g_m
openmw:_ZGVZN3sol15usertype_traitsINS_8u_detail16usertype_storageIN7LuaUtil10LuaStorage11SectionViewEEEE17user_gc_metatableB5cxx11EvE5u_g_m
openmw:_ZGVZN3sol15usertype_traitsINS_8u_detail16usertype_storageIN7LuaUtil10TransformMEEEE17user_gc_metatableB5cxx11EvE5u_g_m
openmw:_ZGVZN3sol15usertype_traitsINS_8u_detail16usertype_storageIN7LuaUtil10TransformQEEEE17user_gc_metatableB5cxx11EvE5u_g_m
openmw:_ZGVZN3sol15usertype_traitsINS_8u_detail16usertype_storageIN7LuaUtil11L10nManager7ContextEEEE17user_gc_metatableB5cxx11EvE5u_g_m
openmw:_ZGVZN3sol15usertype_traitsINS_8u_detail16usertype_storageIN7LuaUtil14AsyncPackageIdEEEE17user_gc_metatableB5cxx11EvE5u_g_m
openmw:_ZGVZN3sol15usertype_traitsINS_8u_detail16usertype_storageIN7SDLUtil10TouchEventEEEE17user_gc_metatableB5cxx11EvE5u_g_m
openmw:_ZGVZN3sol15usertype_traitsINS_8u_detail16usertype_storageIN9MWPhysics16RayCastingResultEEEE17user_gc_metatableB5cxx11EvE5u_g_m
openmw:_ZGVZN3sol15usertype_traitsINS_9base_listIJEEEE14qualified_nameB5cxx11EvE3q_n
openmw:_ZGVZN3sol15usertype_traitsINS_9base_listIJEEEE9metatableB5cxx11EvE1m
openmw:_ZGVZN3sol15usertype_traitsINS_9base_listIJN5MWLua6ObjectEEEEE14qualified_nameB5cxx11EvE3q_n
openmw:_ZGVZN3sol15usertype_traitsINS_9base_listIJN5MWLua6ObjectEEEEE9metatableB5cxx11EvE1m
openmw:_ZGVZN3sol15usertype_traitsINS_9base_listIJN5MWLua7LObjectENS2_6ObjectEEEEE14qualified_nameB5cxx11EvE3q_n
openmw:_ZGVZN3sol15usertype_traitsINS_9base_listIJN5MWLua7LObjectENS2_6ObjectEEEEE9metatableB5cxx11EvE1m
openmw:_ZGVZN3sol15usertype_traitsIP10SDL_KeysymE9metatableB5cxx11EvE1m
openmw:_ZGVZN3sol15usertype_traitsIPK10SDL_KeysymE9metatableB5cxx11EvE1m
openmw:_ZGVZN3sol15usertype_traitsIPKN11MWMechanics9AiPackageEE9metatableB5cxx11EvE1m
openmw:_ZGVZN3sol15usertype_traitsIPKN3ESM10IngredientEE9metatableB5cxx11EvE1m
openmw:_ZGVZN3sol15usertype_traitsIPKN3ESM13MiscellaneousEE9metatableB5cxx11EvE1m
openmw:_ZGVZN3sol15usertype_traitsIPKN3ESM3NPCEE9metatableB5cxx11EvE1m
openmw:_ZGVZN3sol15usertype_traitsIPKN3ESM4BookEE9metatableB5cxx11EvE1m
openmw:_ZGVZN3sol15usertype_traitsIPKN3ESM4DoorEE9metatableB5cxx11EvE1m
openmw:_ZGVZN3sol15usertype_traitsIPKN3ESM5ProbeEE9metatableB5cxx11EvE1m
openmw:_ZGVZN3sol15usertype_traitsIPKN3ESM6PotionEE9metatableB5cxx11EvE1m
openmw:_ZGVZN3sol15usertype_traitsIPKN3ESM6RepairEE9metatableB5cxx11EvE1m
openmw:_ZGVZN3sol15usertype_traitsIPKN3ESM6WeaponEE9metatableB5cxx11EvE1m
openmw:_ZGVZN3sol15usertype_traitsIPKN3ESM8CreatureEE9metatableB5cxx11EvE1m
openmw:_ZGVZN3sol15usertype_traitsIPKN3ESM8LockpickEE9metatableB5cxx11EvE1m
openmw:_ZGVZN3sol15usertype_traitsIPKN3ESM9ActivatorEE9metatableB5cxx11EvE1m
openmw:_ZGVZN3sol15usertype_traitsIPKN3ESM9ApparatusEE9metatableB5cxx11EvE1m
openmw:_ZGVZN3sol15usertype_traitsIPKN3ESM9ContainerEE9metatableB5cxx11EvE1m
openmw:_ZGVZN3sol15usertype_traitsIPKN3osg5Vec2fEE9metatableB5cxx11EvE1m
openmw:_ZGVZN3sol15usertype_traitsIPKN3osg5Vec3fEE9metatableB5cxx11EvE1m
openmw:_ZGVZN3sol15usertype_traitsIPKN3osg5Vec4fEE9metatableB5cxx11EvE1m
openmw:_ZGVZN3sol15usertype_traitsIPKN4Misc5ColorEE9metatableB5cxx11EvE1m
openmw:_ZGVZN3sol15usertype_traitsIPKN5LuaUi5LayerEE9metatableB5cxx11EvE1m
openmw:_ZGVZN3sol15usertype_traitsIPKN5LuaUi7ElementEE9metatableB5cxx11EvE1m
openmw:_ZGVZN3sol15usertype_traitsIPKN5MWLua10ObjectListINS1_7GObjectEEEE9metatableB5cxx11EvE1m
openmw:_ZGVZN3sol15usertype_traitsIPKN5MWLua10ObjectListINS1_7LObjectEEEE9metatableB5cxx11EvE1m
openmw:_ZGVZN3sol15usertype_traitsIPKN5MWLua11DynamicStatEE9metatableB5cxx11EvE1m
openmw:_ZGVZN3sol15usertype_traitsIPKN5MWLua12LocalScripts10SelfObjectEE9metatableB5cxx11EvE1m
openmw:_ZGVZN3sol15usertype_traitsIPKN5MWLua13AttributeStatEE9metatableB5cxx11EvE1m
openmw:_ZGVZN3sol15usertype_traitsIPKN5MWLua5GCellEE9metatableB5cxx11EvE1m
openmw:_ZGVZN3sol15usertype_traitsIPKN5MWLua5LCellEE9metatableB5cxx11EvE1m
openmw:_ZGVZN3sol15usertype_traitsIPKN5MWLua6ShaderEE9metatableB5cxx11EvE1m
openmw:_ZGVZN3sol15usertype_traitsIPKN5MWLua7GObjectEE9metatableB5cxx11EvE1m
openmw:_ZGVZN3sol15usertype_traitsIPKN5MWLua7LObjectEE9metatableB5cxx11EvE1m
openmw:_ZGVZN3sol15usertype_traitsIPKN5MWLua9InventoryINS1_7GObjectEEEE9metatableB5cxx11EvE1m
openmw:_ZGVZN3sol15usertype_traitsIPKN5MWLua9InventoryINS1_7LObjectEEEE9metatableB5cxx11EvE1m
openmw:_ZGVZN3sol15usertype_traitsIPKN5MWLua9LevelStatEE9metatableB5cxx11EvE1m
openmw:_ZGVZN3sol15usertype_traitsIPKN5MWLua9SkillStatEE9metatableB5cxx11EvE1m
openmw:_ZGVZN3sol15usertype_traitsIPKN6MWBase10LuaManager13ActorControlsEE9metatableB5cxx11EvE1m
openmw:_ZGVZN3sol15usertype_traitsIPKN7LuaUtil10LuaStorage11SectionViewEE9metatableB5cxx11EvE1m
openmw:_ZGVZN3sol15usertype_traitsIPKN7LuaUtil10TransformMEE9metatableB5cxx11EvE1m
openmw:_ZGVZN3sol15usertype_traitsIPKN7LuaUtil10TransformQEE9metatableB5cxx11EvE1m
openmw:_ZGVZN3sol15usertype_traitsIPKN7LuaUtil11L10nManager7ContextEE9metatableB5cxx11EvE1m
openmw:_ZGVZN3sol15usertype_traitsIPKN7LuaUtil14AsyncPackageIdEE9metatableB5cxx11EvE1m
openmw:_ZGVZN3sol15usertype_traitsIPKN7SDLUtil10TouchEventEE9metatableB5cxx11EvE1m
openmw:_ZGVZN3sol15usertype_traitsIPKN9MWPhysics16RayCastingResultEE9metatableB5cxx11EvE1m
openmw:_ZGVZN3sol15usertype_traitsIPN11MWMechanics9AiPackageEE9metatableB5cxx11EvE1m
openmw:_ZGVZN3sol15usertype_traitsIPN3ESM10IngredientEE9metatableB5cxx11EvE1m
openmw:_ZGVZN3sol15usertype_traitsIPN3ESM13MiscellaneousEE9metatableB5cxx11EvE1m
openmw:_ZGVZN3sol15usertype_traitsIPN3ESM3NPCEE9metatableB5cxx11EvE1m
openmw:_ZGVZN3sol15usertype_traitsIPN3ESM4BookEE9metatableB5cxx11EvE1m
openmw:_ZGVZN3sol15usertype_traitsIPN3ESM4DoorEE9metatableB5cxx11EvE1m
openmw:_ZGVZN3sol15usertype_traitsIPN3ESM5ProbeEE9metatableB5cxx11EvE1m
openmw:_ZGVZN3sol15usertype_traitsIPN3ESM6PotionEE9metatableB5cxx11EvE1m
openmw:_ZGVZN3sol15usertype_traitsIPN3ESM6RefNumEE9metatableB5cxx11EvE1m
openmw:_ZGVZN3sol15usertype_traitsIPN3ESM6RepairEE9metatableB5cxx11EvE1m
openmw:_ZGVZN3sol15usertype_traitsIPN3ESM6WeaponEE9metatableB5cxx11EvE1m
openmw:_ZGVZN3sol15usertype_traitsIPN3ESM8CreatureEE9metatableB5cxx11EvE1m
openmw:_ZGVZN3sol15usertype_traitsIPN3ESM8LockpickEE9metatableB5cxx11EvE1m
openmw:_ZGVZN3sol15usertype_traitsIPN3ESM9ActivatorEE9metatableB5cxx11EvE1m
openmw:_ZGVZN3sol15usertype_traitsIPN3ESM9ApparatusEE9metatableB5cxx11EvE1m
openmw:_ZGVZN3sol15usertype_traitsIPN3ESM9ContainerEE9metatableB5cxx11EvE1m
openmw:_ZGVZN3sol15usertype_traitsIPN3osg5Vec2fEE9metatableB5cxx11EvE1m
openmw:_ZGVZN3sol15usertype_traitsIPN3osg5Vec3fEE9metatableB5cxx11EvE1m
openmw:_ZGVZN3sol15usertype_traitsIPN3osg5Vec4fEE9metatableB5cxx11EvE1m
openmw:_ZGVZN3sol15usertype_traitsIPN4Misc5ColorEE9metatableB5cxx11EvE1m
openmw:_ZGVZN3sol15usertype_traitsIPN5LuaUi11TextureDataEE9metatableB5cxx11EvE1m
openmw:_ZGVZN3sol15usertype_traitsIPN5LuaUi5LayerEE9metatableB5cxx11EvE1m
openmw:_ZGVZN3sol15usertype_traitsIPN5LuaUi7ElementEE9metatableB5cxx11EvE1m
openmw:_ZGVZN3sol15usertype_traitsIPN5MWLua10ObjectListINS1_7GObjectEEEE9metatableB5cxx11EvE1m
openmw:_ZGVZN3sol15usertype_traitsIPN5MWLua10ObjectListINS1_7LObjectEEEE9metatableB5cxx11EvE1m
openmw:_ZGVZN3sol15usertype_traitsIPN5MWLua11DynamicStatEE9metatableB5cxx11EvE1m
openmw:_ZGVZN3sol15usertype_traitsIPN5MWLua12LocalScripts10SelfObjectEE9metatableB5cxx11EvE1m
openmw:_ZGVZN3sol15usertype_traitsIPN5MWLua13AttributeStatEE9metatableB5cxx11EvE1m
openmw:_ZGVZN3sol15usertype_traitsIPN5MWLua5GCellEE9metatableB5cxx11EvE1m
openmw:_ZGVZN3sol15usertype_traitsIPN5MWLua5LCellEE9metatableB5cxx11EvE1m
openmw:_ZGVZN3sol15usertype_traitsIPN5MWLua6ObjectEE9metatableB5cxx11EvE1m
openmw:_ZGVZN3sol15usertype_traitsIPN5MWLua6ShaderEE9metatableB5cxx11EvE1m
openmw:_ZGVZN3sol15usertype_traitsIPN5MWLua7GObjectEE9metatableB5cxx11EvE1m
openmw:_ZGVZN3sol15usertype_traitsIPN5MWLua7LObjectEE9metatableB5cxx11EvE1m
openmw:_ZGVZN3sol15usertype_traitsIPN5MWLua9InventoryINS1_7GObjectEEEE9metatableB5cxx11EvE1m
openmw:_ZGVZN3sol15usertype_traitsIPN5MWLua9InventoryINS1_7LObjectEEEE9metatableB5cxx11EvE1m
openmw:_ZGVZN3sol15usertype_traitsIPN5MWLua9LevelStatEE9metatableB5cxx11EvE1m
openmw:_ZGVZN3sol15usertype_traitsIPN5MWLua9SkillStatEE9metatableB5cxx11EvE1m
openmw:_ZGVZN3sol15usertype_traitsIPN6MWBase10LuaManager13ActorControlsEE9metatableB5cxx11EvE1m
openmw:_ZGVZN3sol15usertype_traitsIPN7LuaUtil10LuaStorage11SectionViewEE9metatableB5cxx11EvE1m
openmw:_ZGVZN3sol15usertype_traitsIPN7LuaUtil10TransformMEE9metatableB5cxx11EvE1m
openmw:_ZGVZN3sol15usertype_traitsIPN7LuaUtil10TransformQEE9metatableB5cxx11EvE1m
openmw:_ZGVZN3sol15usertype_traitsIPN7LuaUtil11L10nManager7ContextEE9metatableB5cxx11EvE1m
openmw:_ZGVZN3sol15usertype_traitsIPN7LuaUtil13TimerCallbackEE9metatableB5cxx11EvE1m
openmw:_ZGVZN3sol15usertype_traitsIPN7LuaUtil14AsyncPackageIdEE9metatableB5cxx11EvE1m
openmw:_ZGVZN3sol15usertype_traitsIPN7LuaUtil16ScriptsContainer8ScriptIdEE9metatableB5cxx11EvE1m
openmw:_ZGVZN3sol15usertype_traitsIPN7SDLUtil10TouchEventEE9metatableB5cxx11EvE1m
openmw:_ZGVZN3sol15usertype_traitsIPN9MWPhysics16RayCastingResultEE9metatableB5cxx11EvE1m
openmw:_ZGVZN3sol15usertype_traitsIPNS_9base_listIJEEEE9metatableB5cxx11EvE1m
openmw:_ZGVZN3sol15usertype_traitsIPNS_9base_listIJN5MWLua6ObjectEEEEE9metatableB5cxx11EvE1m
openmw:_ZGVZN3sol15usertype_traitsIPNS_9base_listIJN5MWLua7LObjectENS2_6ObjectEEEEE9metatableB5cxx11EvE1m
openmw:_ZGVZN3sol15usertype_traitsIPSt6vectorIN3osg5Vec3fESaIS3_EEE9metatableB5cxx11EvE1m
openmw:_ZGVZN3sol15usertype_traitsIPZN5MWLua14getArraySetterIN3osg5Vec2fEEEDaRKNS1_7ContextEEUlRKNS1_6ShaderERKNSt7__cxx1112basic_stringIcSt11char_traitsIcESaIcEEERKNS_16basic_table_coreILb0ENS_15basic_referenceILb0EEEEEE_E9metatableB5cxx11EvE1m
openmw:_ZGVZN3sol15usertype_traitsIPZN5MWLua14getArraySetterIN3osg5Vec3fEEEDaRKNS1_7ContextEEUlRKNS1_6ShaderERKNSt7__cxx1112basic_stringIcSt11char_traitsIcESaIcEEERKNS_16basic_table_coreILb0ENS_15basic_referenceILb0EEEEEE_E9metatableB5cxx11EvE1m
openmw:_ZGVZN3sol15usertype_traitsIPZN5MWLua14getArraySetterIN3osg5Vec4fEEEDaRKNS1_7ContextEEUlRKNS1_6ShaderERKNSt7__cxx1112basic_stringIcSt11char_traitsIcESaIcEEERKNS_16basic_table_coreILb0ENS_15basic_referenceILb0EEEEEE_E9metatableB5cxx11EvE1m
openmw:_ZGVZN3sol15usertype_traitsIPZN5MWLua14getArraySetterIfEEDaRKNS1_7ContextEEUlRKNS1_6ShaderERKNSt7__cxx1112basic_stringIcSt11char_traitsIcESaIcEEERKNS_16basic_table_coreILb0ENS_15basic_referenceILb0EEEEEE_E9metatableB5cxx11EvE1m
openmw:_ZGVZN3sol15usertype_traitsIPZN5MWLua14getArraySetterIiEEDaRKNS1_7ContextEEUlRKNS1_6ShaderERKNSt7__cxx1112basic_stringIcSt11char_traitsIcESaIcEEERKNS_16basic_table_coreILb0ENS_15basic_referenceILb0EEEEEE_E9metatableB5cxx11EvE1m
openmw:_ZGVZN3sol15usertype_traitsIPZN5MWLua9getSetterIN3osg5Vec2fEEEDaRKNS1_7ContextEEUlRKNS1_6ShaderERKNSt7__cxx1112basic_stringIcSt11char_traitsIcESaIcEEERKS4_E_E9metatableB5cxx11EvE1m
openmw:_ZGVZN3sol15usertype_traitsIPZN5MWLua9getSetterIN3osg5Vec3fEEEDaRKNS1_7ContextEEUlRKNS1_6ShaderERKNSt7__cxx1112basic_stringIcSt11char_traitsIcESaIcEEERKS4_E_E9metatableB5cxx11EvE1m
openmw:_ZGVZN3sol15usertype_traitsIPZN5MWLua9getSetterIN3osg5Vec4fEEEDaRKNS1_7ContextEEUlRKNS1_6ShaderERKNSt7__cxx1112basic_stringIcSt11char_traitsIcESaIcEEERKS4_E_E9metatableB5cxx11EvE1m
openmw:_ZGVZN3sol15usertype_traitsIPZN5MWLua9getSetterIbEEDaRKNS1_7ContextEEUlRKNS1_6ShaderERKNSt7__cxx1112basic_stringIcSt11char_traitsIcESaIcEEERKbE_E9metatableB5cxx11EvE1m
openmw:_ZGVZN3sol15usertype_traitsIPZN5MWLua9getSetterIfEEDaRKNS1_7ContextEEUlRKNS1_6ShaderERKNSt7__cxx1112basic_stringIcSt11char_traitsIcESaIcEEERKfE_E9metatableB5cxx11EvE1m
openmw:_ZGVZN3sol15usertype_traitsIPZN5MWLua9getSetterIiEEDaRKNS1_7ContextEEUlRKNS1_6ShaderERKNSt7__cxx1112basic_stringIcSt11char_traitsIcESaIcEEERKiE_E9metatableB5cxx11EvE1m
openmw:_ZGVZN3sol15usertype_traitsIPbE9metatableB5cxx11EvE1m
openmw:_ZGVZN3sol15usertype_traitsISt10shared_ptrIN5LuaUi7ElementEEE14qualified_nameB5cxx11EvE3q_n
openmw:_ZGVZN3sol15usertype_traitsISt10shared_ptrIvEE14qualified_nameB5cxx11EvE3q_n
openmw:_ZGVZN3sol15usertype_traitsISt6vectorIN3osg5Vec3fESaIS3_EEE14qualified_nameB5cxx11EvE3q_n
openmw:_ZGVZN3sol15usertype_traitsISt6vectorIN3osg5Vec3fESaIS3_EEE9metatableB5cxx11EvE1m
openmw:_ZGVZN3sol15usertype_traitsIZN5MWLua14getArraySetterIN3osg5Vec2fEEEDaRKNS1_7ContextEEUlRKNS1_6ShaderERKNSt7__cxx1112basic_stringIcSt11char_traitsIcESaIcEEERKNS_16basic_table_coreILb0ENS_15basic_referenceILb0EEEEEE_E14qualified_nameB5cxx11EvE3q_n
openmw:_ZGVZN3sol15usertype_traitsIZN5MWLua14getArraySetterIN3osg5Vec2fEEEDaRKNS1_7ContextEEUlRKNS1_6ShaderERKNSt7__cxx1112basic_stringIcSt11char_traitsIcESaIcEEERKNS_16basic_table_coreILb0ENS_15basic_referenceILb0EEEEEE_E9metatableB5cxx11EvE1m
openmw:_ZGVZN3sol15usertype_traitsIZN5MWLua14getArraySetterIN3osg5Vec3fEEEDaRKNS1_7ContextEEUlRKNS1_6ShaderERKNSt7__cxx1112basic_stringIcSt11char_traitsIcESaIcEEERKNS_16basic_table_coreILb0ENS_15basic_referenceILb0EEEEEE_E14qualified_nameB5cxx11EvE3q_n
openmw:_ZGVZN3sol15usertype_traitsIZN5MWLua14getArraySetterIN3osg5Vec3fEEEDaRKNS1_7ContextEEUlRKNS1_6ShaderERKNSt7__cxx1112basic_stringIcSt11char_traitsIcESaIcEEERKNS_16basic_table_coreILb0ENS_15basic_referenceILb0EEEEEE_E9metatableB5cxx11EvE1m
openmw:_ZGVZN3sol15usertype_traitsIZN5MWLua14getArraySetterIN3osg5Vec4fEEEDaRKNS1_7ContextEEUlRKNS1_6ShaderERKNSt7__cxx1112basic_stringIcSt11char_traitsIcESaIcEEERKNS_16basic_table_coreILb0ENS_15basic_referenceILb0EEEEEE_E14qualified_nameB5cxx11EvE3q_n
openmw:_ZGVZN3sol15usertype_traitsIZN5MWLua14getArraySetterIN3osg5Vec4fEEEDaRKNS1_7ContextEEUlRKNS1_6ShaderERKNSt7__cxx1112basic_stringIcSt11char_traitsIcESaIcEEERKNS_16basic_table_coreILb0ENS_15basic_referenceILb0EEEEEE_E9metatableB5cxx11EvE1m
openmw:_ZGVZN3sol15usertype_traitsIZN5MWLua14getArraySetterIfEEDaRKNS1_7ContextEEUlRKNS1_6ShaderERKNSt7__cxx1112basic_stringIcSt11char_traitsIcESaIcEEERKNS_16basic_table_coreILb0ENS_15basic_referenceILb0EEEEEE_E14qualified_nameB5cxx11EvE3q_n
openmw:_ZGVZN3sol15usertype_traitsIZN5MWLua14getArraySetterIfEEDaRKNS1_7ContextEEUlRKNS1_6ShaderERKNSt7__cxx1112basic_stringIcSt11char_traitsIcESaIcEEERKNS_16basic_table_coreILb0ENS_15basic_referenceILb0EEEEEE_E9metatableB5cxx11EvE1m
openmw:_ZGVZN3sol15usertype_traitsIZN5MWLua14getArraySetterIiEEDaRKNS1_7ContextEEUlRKNS1_6ShaderERKNSt7__cxx1112basic_stringIcSt11char_traitsIcESaIcEEERKNS_16basic_table_coreILb0ENS_15basic_referenceILb0EEEEEE_E14qualified_nameB5cxx11EvE3q_n
openmw:_ZGVZN3sol15usertype_traitsIZN5MWLua14getArraySetterIiEEDaRKNS1_7ContextEEUlRKNS1_6ShaderERKNSt7__cxx1112basic_stringIcSt11char_traitsIcESaIcEEERKNS_16basic_table_coreILb0ENS_15basic_referenceILb0EEEEEE_E9metatableB5cxx11EvE1m
openmw:_ZGVZN3sol15usertype_traitsIZN5MWLua9getSetterIN3osg5Vec2fEEEDaRKNS1_7ContextEEUlRKNS1_6ShaderERKNSt7__cxx1112basic_stringIcSt11char_traitsIcESaIcEEERKS4_E_E14qualified_nameB5cxx11EvE3q_n
openmw:_ZGVZN3sol15usertype_traitsIZN5MWLua9getSetterIN3osg5Vec2fEEEDaRKNS1_7ContextEEUlRKNS1_6ShaderERKNSt7__cxx1112basic_stringIcSt11char_traitsIcESaIcEEERKS4_E_E9metatableB5cxx11EvE1m
openmw:_ZGVZN3sol15usertype_traitsIZN5MWLua9getSetterIN3osg5Vec3fEEEDaRKNS1_7ContextEEUlRKNS1_6ShaderERKNSt7__cxx1112basic_stringIcSt11char_traitsIcESaIcEEERKS4_E_E14qualified_nameB5cxx11EvE3q_n
openmw:_ZGVZN3sol15usertype_traitsIZN5MWLua9getSetterIN3osg5Vec3fEEEDaRKNS1_7ContextEEUlRKNS1_6ShaderERKNSt7__cxx1112basic_stringIcSt11char_traitsIcESaIcEEERKS4_E_E9metatableB5cxx11EvE1m
openmw:_ZGVZN3sol15usertype_traitsIZN5MWLua9getSetterIN3osg5Vec4fEEEDaRKNS1_7ContextEEUlRKNS1_6ShaderERKNSt7__cxx1112basic_stringIcSt11char_traitsIcESaIcEEERKS4_E_E14qualified_nameB5cxx11EvE3q_n
openmw:_ZGVZN3sol15usertype_traitsIZN5MWLua9getSetterIN3osg5Vec4fEEEDaRKNS1_7ContextEEUlRKNS1_6ShaderERKNSt7__cxx1112basic_stringIcSt11char_traitsIcESaIcEEERKS4_E_E9metatableB5cxx11EvE1m
openmw:_ZGVZN3sol15usertype_traitsIZN5MWLua9getSetterIbEEDaRKNS1_7ContextEEUlRKNS1_6ShaderERKNSt7__cxx1112basic_stringIcSt11char_traitsIcESaIcEEERKbE_E14qualified_nameB5cxx11EvE3q_n
openmw:_ZGVZN3sol15usertype_traitsIZN5MWLua9getSetterIbEEDaRKNS1_7ContextEEUlRKNS1_6ShaderERKNSt7__cxx1112basic_stringIcSt11char_traitsIcESaIcEEERKbE_E9metatableB5cxx11EvE1m
openmw:_ZGVZN3sol15usertype_traitsIZN5MWLua9getSetterIfEEDaRKNS1_7ContextEEUlRKNS1_6ShaderERKNSt7__cxx1112basic_stringIcSt11char_traitsIcESaIcEEERKfE_E14qualified_nameB5cxx11EvE3q_n
openmw:_ZGVZN3sol15usertype_traitsIZN5MWLua9getSetterIfEEDaRKNS1_7ContextEEUlRKNS1_6ShaderERKNSt7__cxx1112basic_stringIcSt11char_traitsIcESaIcEEERKfE_E9metatableB5cxx11EvE1m
openmw:_ZGVZN3sol15usertype_traitsIZN5MWLua9getSetterIiEEDaRKNS1_7ContextEEUlRKNS1_6ShaderERKNSt7__cxx1112basic_stringIcSt11char_traitsIcESaIcEEERKiE_E14qualified_nameB5cxx11EvE3q_n
openmw:_ZGVZN3sol15usertype_traitsIZN5MWLua9getSetterIiEEDaRKNS1_7ContextEEUlRKNS1_6ShaderERKNSt7__cxx1112basic_stringIcSt11char_traitsIcESaIcEEERKiE_E9metatableB5cxx11EvE1m
openmw:_ZGVZN3sol16container_detail10u_c_launchISt6vectorIN3osg5Vec3fESaIS4_EEE15real_index_callEP9lua_StateE5calls
openmw:_ZGVZN3sol19meta_function_namesB5cxx11EvE5names
openmw:_ZGVZN3sol5stack12stack_detail15metatable_setupISt6vectorIN3osg5Vec3fESaIS5_EELb0EEclEvE7metakey
openmw:_ZGVZN3sol5stack19unqualified_checkerINS_14basic_functionINS_15basic_referenceILb0EEELb0EEELNS_4typeE6EvE5checkIPDoFiP9lua_StateiS6_S6_PKcEEEbSA_iOT_RNS0_6recordEE7callkeyB5cxx11
openmw:_ZGVZN3sol5stack19unqualified_checkerINS_14basic_functionINS_15basic_referenceILb0EEELb0EEELNS_4typeE6EvE5checkIRNS_16argument_handlerINS_5typesIJvRKNS_17basic_environmentIS4_EERKS5_EEEEEEEbP9lua_StateiOT_RNS0_6recordEE7callkeyB5cxx11
openmw:_ZGVZN3sol5stack19unqualified_checkerINS_14basic_functionINS_15basic_referenceILb0EEELb0EEELNS_4typeE6EvE5checkIRNS_16argument_handlerINS_5typesIJvRN5MWLua12LocalScripts10SelfObjectES5_EEEEEEEbP9lua_StateiOT_RNS0_6recordEE7callkeyB5cxx11
openmw:_ZGVZN3sol5stack19unqualified_checkerINS_14basic_functionINS_15basic_referenceILb0EEELb0EEELNS_4typeE6EvE5checkIRNS_19constructor_handlerEEEbP9lua_StateiOT_RNS0_6recordEE7callkeyB5cxx11
openmw:_ZGVZN3sol5stack19unqualified_checkerINS_14basic_functionINS_15stack_referenceELb1EEELNS_4typeE6EvE5checkIRNS_19constructor_handlerEEEbP9lua_StateiOT_RNS0_6recordEE7callkeyB5cxx11
openmw:_ZGVZN3sol5stack19unqualified_checkerINS_24basic_protected_functionINS_15basic_referenceILb0EEELb0ES4_EELNS_4typeE6EvE5checkIRNS_19constructor_handlerEEEbP9lua_StateiOT_RNS0_6recordEE7callkeyB5cxx11
openmw:_ZGVZN3sol5stack19unqualified_checkerINS_24basic_protected_functionINS_15basic_referenceILb1EEELb0ENS3_ILb0EEEEELNS_4typeE6EvE5checkIRNS_16argument_handlerINS_5typesIJN7LuaUtil13TimerCallbackERKNSC_14AsyncPackageIdESt17basic_string_viewIcSt11char_traitsIcEES6_EEEEEEEbP9lua_StateiOT_RNS0_6recordEE7callkeyB5cxx11
openmw:_ZGVZN3sol5stack19unqualified_checkerINS_24basic_protected_functionINS_15basic_referenceILb1EEELb0ENS3_ILb0EEEEELNS_4typeE6EvE5checkIRNS_16argument_handlerINS_5typesIJNS_16basic_table_coreILb0ES5_EERKN7LuaUtil14AsyncPackageIdES6_EEEEEEEbP9lua_StateiOT_RNS0_6recordEE7callkeyB5cxx11
openmw:_ZGVZN3sol5stack19unqualified_checkerINS_24basic_protected_functionINS_15basic_referenceILb1EEELb0ENS3_ILb0EEEEELNS_4typeE6EvE5checkIRNS_16argument_handlerINS_5typesIJvRKN7LuaUtil14AsyncPackageIdEdS6_EEEEEEEbP9lua_StateiOT_RNS0_6recordEE7callkeyB5cxx11
openmw:_ZGVZN3sol5stack19unqualified_checkerINS_24basic_protected_functionINS_15basic_referenceILb1EEELb0ENS3_ILb0EEEEELNS_4typeE6EvE5checkIRNS_19constructor_handlerEEEbP9lua_StateiOT_RNS0_6recordEE7callkeyB5cxx11
openmw:_ZGVZN3sol6detail18default_chunk_nameB5cxx11EvE4name
openmw:_ZGVZN3sol6detail8demangleI10SDL_KeysymEERKNSt7__cxx1112basic_stringIcSt11char_traitsIcESaIcEEEvE1dB5cxx11
openmw:_ZGVZN3sol6detail8demangleI12SDL_ScancodeEERKNSt7__cxx1112basic_stringIcSt11char_traitsIcESaIcEEEvE1dB5cxx11
openmw:_ZGVZN3sol6detail8demangleIK10SDL_KeysymEERKNSt7__cxx1112basic_stringIcSt11char_traitsIcESaIcEEEvE1dB5cxx11
openmw:_ZGVZN3sol6detail8demangleIKN11MWMechanics9AiPackageEEERKNSt7__cxx1112basic_stringIcSt11char_traitsIcESaIcEEEvE1dB5cxx11
openmw:_ZGVZN3sol6detail8demangleIKN3ESM10IngredientEEERKNSt7__cxx1112basic_stringIcSt11char_traitsIcESaIcEEEvE1dB5cxx11
openmw:_ZGVZN3sol6detail8demangleIKN3ESM13MiscellaneousEEERKNSt7__cxx1112basic_stringIcSt11char_traitsIcESaIcEEEvE1dB5cxx11
openmw:_ZGVZN3sol6detail8demangleIKN3ESM3NPCEEERKNSt7__cxx1112basic_stringIcSt11char_traitsIcESaIcEEEvE1dB5cxx11
openmw:_ZGVZN3sol6detail8demangleIKN3ESM4BookEEERKNSt7__cxx1112basic_stringIcSt11char_traitsIcESaIcEEEvE1dB5cxx11
openmw:_ZGVZN3sol6detail8demangleIKN3ESM4DoorEEERKNSt7__cxx1112basic_stringIcSt11char_traitsIcESaIcEEEvE1dB5cxx11
openmw:_ZGVZN3sol6detail8demangleIKN3ESM5ProbeEEERKNSt7__cxx1112basic_stringIcSt11char_traitsIcESaIcEEEvE1dB5cxx11
openmw:_ZGVZN3sol6detail8demangleIKN3ESM6PotionEEERKNSt7__cxx1112basic_stringIcSt11char_traitsIcESaIcEEEvE1dB5cxx11
openmw:_ZGVZN3sol6detail8demangleIKN3ESM6RepairEEERKNSt7__cxx1112basic_stringIcSt11char_traitsIcESaIcEEEvE1dB5cxx11
openmw:_ZGVZN3sol6detail8demangleIKN3ESM6WeaponEEERKNSt7__cxx1112basic_stringIcSt11char_traitsIcESaIcEEEvE1dB5cxx11
openmw:_ZGVZN3sol6detail8demangleIKN3ESM8CreatureEEERKNSt7__cxx1112basic_stringIcSt11char_traitsIcESaIcEEEvE1dB5cxx11
openmw:_ZGVZN3sol6detail8demangleIKN3ESM8LockpickEEERKNSt7__cxx1112basic_stringIcSt11char_traitsIcESaIcEEEvE1dB5cxx11
openmw:_ZGVZN3sol6detail8demangleIKN3ESM9ActivatorEEERKNSt7__cxx1112basic_stringIcSt11char_traitsIcESaIcEEEvE1dB5cxx11
openmw:_ZGVZN3sol6detail8demangleIKN3ESM9ApparatusEEERKNSt7__cxx1112basic_stringIcSt11char_traitsIcESaIcEEEvE1dB5cxx11
openmw:_ZGVZN3sol6detail8demangleIKN3ESM9ContainerEEERKNSt7__cxx1112basic_stringIcSt11char_traitsIcESaIcEEEvE1dB5cxx11
openmw:_ZGVZN3sol6detail8demangleIKN3osg5Vec2fEEERKNSt7__cxx1112basic_stringIcSt11char_traitsIcESaIcEEEvE1dB5cxx11
openmw:_ZGVZN3sol6detail8demangleIKN3osg5Vec3fEEERKNSt7__cxx1112basic_stringIcSt11char_traitsIcESaIcEEEvE1dB5cxx11
openmw:_ZGVZN3sol6detail8demangleIKN3osg5Vec4fEEERKNSt7__cxx1112basic_stringIcSt11char_traitsIcESaIcEEEvE1dB5cxx11
openmw:_ZGVZN3sol6detail8demangleIKN4Misc5ColorEEERKNSt7__cxx1112basic_stringIcSt11char_traitsIcESaIcEEEvE1dB5cxx11
openmw:_ZGVZN3sol6detail8demangleIKN5LuaUi5LayerEEERKNSt7__cxx1112basic_stringIcSt11char_traitsIcESaIcEEEvE1dB5cxx11
openmw:_ZGVZN3sol6detail8demangleIKN5LuaUi7ElementEEERKNSt7__cxx1112basic_stringIcSt11char_traitsIcESaIcEEEvE1dB5cxx11
openmw:_ZGVZN3sol6detail8demangleIKN5MWLua10ObjectListINS2_7GObjectEEEEERKNSt7__cxx1112basic_stringIcSt11char_traitsIcESaIcEEEvE1dB5cxx11
openmw:_ZGVZN3sol6detail8demangleIKN5MWLua10ObjectListINS2_7LObjectEEEEERKNSt7__cxx1112basic_stringIcSt11char_traitsIcESaIcEEEvE1dB5cxx11
openmw:_ZGVZN3sol6detail8demangleIKN5MWLua11DynamicStatEEERKNSt7__cxx1112basic_stringIcSt11char_traitsIcESaIcEEEvE1dB5cxx11
openmw:_ZGVZN3sol6detail8demangleIKN5MWLua12LocalScripts10SelfObjectEEERKNSt7__cxx1112basic_stringIcSt11char_traitsIcESaIcEEEvE1dB5cxx11
openmw:_ZGVZN3sol6detail8demangleIKN5MWLua13AttributeStatEEERKNSt7__cxx1112basic_stringIcSt11char_traitsIcESaIcEEEvE1dB5cxx11
openmw:_ZGVZN3sol6detail8demangleIKN5MWLua5GCellEEERKNSt7__cxx1112basic_stringIcSt11char_traitsIcESaIcEEEvE1dB5cxx11
openmw:_ZGVZN3sol6detail8demangleIKN5MWLua5LCellEEERKNSt7__cxx1112basic_stringIcSt11char_traitsIcESaIcEEEvE1dB5cxx11
openmw:_ZGVZN3sol6detail8demangleIKN5MWLua6ShaderEEERKNSt7__cxx1112basic_stringIcSt11char_traitsIcESaIcEEEvE1dB5cxx11
openmw:_ZGVZN3sol6detail8demangleIKN5MWLua7GObjectEEERKNSt7__cxx1112basic_stringIcSt11char_traitsIcESaIcEEEvE1dB5cxx11
openmw:_ZGVZN3sol6detail8demangleIKN5MWLua7LObjectEEERKNSt7__cxx1112basic_stringIcSt11char_traitsIcESaIcEEEvE1dB5cxx11
openmw:_ZGVZN3sol6detail8demangleIKN5MWLua9InventoryINS2_7GObjectEEEEERKNSt7__cxx1112basic_stringIcSt11char_traitsIcESaIcEEEvE1dB5cxx11
openmw:_ZGVZN3sol6detail8demangleIKN5MWLua9InventoryINS2_7LObjectEEEEERKNSt7__cxx1112basic_stringIcSt11char_traitsIcESaIcEEEvE1dB5cxx11
openmw:_ZGVZN3sol6detail8demangleIKN5MWLua9LevelStatEEERKNSt7__cxx1112basic_stringIcSt11char_traitsIcESaIcEEEvE1dB5cxx11
openmw:_ZGVZN3sol6detail8demangleIKN5MWLua9SkillStatEEERKNSt7__cxx1112basic_stringIcSt11char_traitsIcESaIcEEEvE1dB5cxx11
openmw:_ZGVZN3sol6detail8demangleIKN6MWBase10LuaManager13ActorControlsEEERKNSt7__cxx1112basic_stringIcSt11char_traitsIcESaIcEEEvE1dB5cxx11
openmw:_ZGVZN3sol6detail8demangleIKN7LuaUtil10LuaStorage11SectionViewEEERKNSt7__cxx1112basic_stringIcSt11char_traitsIcESaIcEEEvE1dB5cxx11
openmw:_ZGVZN3sol6detail8demangleIKN7LuaUtil10TransformMEEERKNSt7__cxx1112basic_stringIcSt11char_traitsIcESaIcEEEvE1dB5cxx11
openmw:_ZGVZN3sol6detail8demangleIKN7LuaUtil10TransformQEEERKNSt7__cxx1112basic_stringIcSt11char_traitsIcESaIcEEEvE1dB5cxx11
openmw:_ZGVZN3sol6detail8demangleIKN7LuaUtil11L10nManager7ContextEEERKNSt7__cxx1112basic_stringIcSt11char_traitsIcESaIcEEEvE1dB5cxx11
openmw:_ZGVZN3sol6detail8demangleIKN7LuaUtil14AsyncPackageIdEEERKNSt7__cxx1112basic_stringIcSt11char_traitsIcESaIcEEEvE1dB5cxx11
openmw:_ZGVZN3sol6detail8demangleIKN7SDLUtil10TouchEventEEERKNSt7__cxx1112basic_stringIcSt11char_traitsIcESaIcEEEvE1dB5cxx11
openmw:_ZGVZN3sol6detail8demangleIKN9MWPhysics16RayCastingResultEEERKNSt7__cxx1112basic_stringIcSt11char_traitsIcESaIcEEEvE1dB5cxx11
openmw:_ZGVZN3sol6detail8demangleIMN3osg5Vec2fEKFfvEEERKNSt7__cxx1112basic_stringIcSt11char_traitsIcESaIcEEEvE1dB5cxx11
openmw:_ZGVZN3sol6detail8demangleIMN3osg5Vec3fEKFfvEEERKNSt7__cxx1112basic_stringIcSt11char_traitsIcESaIcEEEvE1dB5cxx11
openmw:_ZGVZN3sol6detail8demangleIMN3osg5Vec4fEKFfvEEERKNSt7__cxx1112basic_stringIcSt11char_traitsIcESaIcEEEvE1dB5cxx11
openmw:_ZGVZN3sol6detail8demangleIMN5MWLua6ObjectEKFNSt7__cxx1112basic_stringIcSt11char_traitsIcESaIcEEEvEEERKS9_vE1dB5cxx11
openmw:_ZGVZN3sol6detail8demangleIMN7LuaUtil11L10nManager7ContextEFNSt7__cxx1112basic_stringIcSt11char_traitsIcESaIcEEESt17basic_string_viewIcS8_ERKNS_12basic_objectINS_15basic_referenceILb0EEEEEEEERKSA_vE1dB5cxx11
openmw:_ZGVZN3sol6detail8demangleIN11MWMechanics9AiPackageEEERKNSt7__cxx1112basic_stringIcSt11char_traitsIcESaIcEEEvE1dB5cxx11
openmw:_ZGVZN3sol6detail8demangleIN11MWMechanics9DrawStateEEERKNSt7__cxx1112basic_stringIcSt11char_traitsIcESaIcEEEvE1dB5cxx11
openmw:_ZGVZN3sol6detail8demangleIN3ESM10IngredientEEERKNSt7__cxx1112basic_stringIcSt11char_traitsIcESaIcEEEvE1dB5cxx11
openmw:_ZGVZN3sol6detail8demangleIN3ESM13MiscellaneousEEERKNSt7__cxx1112basic_stringIcSt11char_traitsIcESaIcEEEvE1dB5cxx11
openmw:_ZGVZN3sol6detail8demangleIN3ESM3NPCEEERKNSt7__cxx1112basic_stringIcSt11char_traitsIcESaIcEEEvE1dB5cxx11
openmw:_ZGVZN3sol6detail8demangleIN3ESM4BookEEERKNSt7__cxx1112basic_stringIcSt11char_traitsIcESaIcEEEvE1dB5cxx11
openmw:_ZGVZN3sol6detail8demangleIN3ESM4DoorEEERKNSt7__cxx1112basic_stringIcSt11char_traitsIcESaIcEEEvE1dB5cxx11
openmw:_ZGVZN3sol6detail8demangleIN3ESM5ProbeEEERKNSt7__cxx1112basic_stringIcSt11char_traitsIcESaIcEEEvE1dB5cxx11
openmw:_ZGVZN3sol6detail8demangleIN3ESM6PotionEEERKNSt7__cxx1112basic_stringIcSt11char_traitsIcESaIcEEEvE1dB5cxx11
openmw:_ZGVZN3sol6detail8demangleIN3ESM6RefNumEEERKNSt7__cxx1112basic_stringIcSt11char_traitsIcESaIcEEEvE1dB5cxx11
openmw:_ZGVZN3sol6detail8demangleIN3ESM6RepairEEERKNSt7__cxx1112basic_stringIcSt11char_traitsIcESaIcEEEvE1dB5cxx11
openmw:_ZGVZN3sol6detail8demangleIN3ESM6WeaponEEERKNSt7__cxx1112basic_stringIcSt11char_traitsIcESaIcEEEvE1dB5cxx11
openmw:_ZGVZN3sol6detail8demangleIN3ESM8CreatureEEERKNSt7__cxx1112basic_stringIcSt11char_traitsIcESaIcEEEvE1dB5cxx11
openmw:_ZGVZN3sol6detail8demangleIN3ESM8LockpickEEERKNSt7__cxx1112basic_stringIcSt11char_traitsIcESaIcEEEvE1dB5cxx11
openmw:_ZGVZN3sol6detail8demangleIN3ESM9ActivatorEEERKNSt7__cxx1112basic_stringIcSt11char_traitsIcESaIcEEEvE1dB5cxx11
openmw:_ZGVZN3sol6detail8demangleIN3ESM9ApparatusEEERKNSt7__cxx1112basic_stringIcSt11char_traitsIcESaIcEEEvE1dB5cxx11
openmw:_ZGVZN3sol6detail8demangleIN3ESM9ContainerEEERKNSt7__cxx1112basic_stringIcSt11char_traitsIcESaIcEEEvE1dB5cxx11
openmw:_ZGVZN3sol6detail8demangleIN3osg5Vec2fEEERKNSt7__cxx1112basic_stringIcSt11char_traitsIcESaIcEEEvE1dB5cxx11
openmw:_ZGVZN3sol6detail8demangleIN3osg5Vec3fEEERKNSt7__cxx1112basic_stringIcSt11char_traitsIcESaIcEEEvE1dB5cxx11
openmw:_ZGVZN3sol6detail8demangleIN3osg5Vec4fEEERKNSt7__cxx1112basic_stringIcSt11char_traitsIcESaIcEEEvE1dB5cxx11
openmw:_ZGVZN3sol6detail8demangleIN4Misc5ColorEEERKNSt7__cxx1112basic_stringIcSt11char_traitsIcESaIcEEEvE1dB5cxx11
openmw:_ZGVZN3sol6detail8demangleIN5LuaUi11TextureDataEEERKNSt7__cxx1112basic_stringIcSt11char_traitsIcESaIcEEEvE1dB5cxx11
openmw:_ZGVZN3sol6detail8demangleIN5LuaUi5LayerEEERKNSt7__cxx1112basic_stringIcSt11char_traitsIcESaIcEEEvE1dB5cxx11
openmw:_ZGVZN3sol6detail8demangleIN5LuaUi7ElementEEERKNSt7__cxx1112basic_stringIcSt11char_traitsIcESaIcEEEvE1dB5cxx11
openmw:_ZGVZN3sol6detail8demangleIN5MWLua10ObjectListINS2_7GObjectEEEEERKNSt7__cxx1112basic_stringIcSt11char_traitsIcESaIcEEEvE1dB5cxx11
openmw:_ZGVZN3sol6detail8demangleIN5MWLua10ObjectListINS2_7LObjectEEEEERKNSt7__cxx1112basic_stringIcSt11char_traitsIcESaIcEEEvE1dB5cxx11
openmw:_ZGVZN3sol6detail8demangleIN5MWLua11DynamicStatEEERKNSt7__cxx1112basic_stringIcSt11char_traitsIcESaIcEEEvE1dB5cxx11
openmw:_ZGVZN3sol6detail8demangleIN5MWLua12LocalScripts10SelfObjectEEERKNSt7__cxx1112basic_stringIcSt11char_traitsIcESaIcEEEvE1dB5cxx11
openmw:_ZGVZN3sol6detail8demangleIN5MWLua13AttributeStatEEERKNSt7__cxx1112basic_stringIcSt11char_traitsIcESaIcEEEvE1dB5cxx11
openmw:_ZGVZN3sol6detail8demangleIN5MWLua5GCellEEERKNSt7__cxx1112basic_stringIcSt11char_traitsIcESaIcEEEvE1dB5cxx11
openmw:_ZGVZN3sol6detail8demangleIN5MWLua5LCellEEERKNSt7__cxx1112basic_stringIcSt11char_traitsIcESaIcEEEvE1dB5cxx11
openmw:_ZGVZN3sol6detail8demangleIN5MWLua6ObjectEEERKNSt7__cxx1112basic_stringIcSt11char_traitsIcESaIcEEEvE1dB5cxx11
openmw:_ZGVZN3sol6detail8demangleIN5MWLua6ShaderEEERKNSt7__cxx1112basic_stringIcSt11char_traitsIcESaIcEEEvE1dB5cxx11
openmw:_ZGVZN3sol6detail8demangleIN5MWLua7GObjectEEERKNSt7__cxx1112basic_stringIcSt11char_traitsIcESaIcEEEvE1dB5cxx11
openmw:_ZGVZN3sol6detail8demangleIN5MWLua7LObjectEEERKNSt7__cxx1112basic_stringIcSt11char_traitsIcESaIcEEEvE1dB5cxx11
openmw:_ZGVZN3sol6detail8demangleIN5MWLua9InventoryINS2_7GObjectEEEEERKNSt7__cxx1112basic_stringIcSt11char_traitsIcESaIcEEEvE1dB5cxx11
openmw:_ZGVZN3sol6detail8demangleIN5MWLua9InventoryINS2_7LObjectEEEEERKNSt7__cxx1112basic_stringIcSt11char_traitsIcESaIcEEEvE1dB5cxx11
openmw:_ZGVZN3sol6detail8demangleIN5MWLua9LevelStatEEERKNSt7__cxx1112basic_stringIcSt11char_traitsIcESaIcEEEvE1dB5cxx11
openmw:_ZGVZN3sol6detail8demangleIN5MWLua9SkillStatEEERKNSt7__cxx1112basic_stringIcSt11char_traitsIcESaIcEEEvE1dB5cxx11
openmw:_ZGVZN3sol6detail8demangleIN6MWBase10LuaManager13ActorControlsEEERKNSt7__cxx1112basic_stringIcSt11char_traitsIcESaIcEEEvE1dB5cxx11
openmw:_ZGVZN3sol6detail8demangleIN7LuaUtil10LuaStorage11SectionViewEEERKNSt7__cxx1112basic_stringIcSt11char_traitsIcESaIcEEEvE1dB5cxx11
openmw:_ZGVZN3sol6detail8demangleIN7LuaUtil10TransformMEEERKNSt7__cxx1112basic_stringIcSt11char_traitsIcESaIcEEEvE1dB5cxx11
openmw:_ZGVZN3sol6detail8demangleIN7LuaUtil10TransformQEEERKNSt7__cxx1112basic_stringIcSt11char_traitsIcESaIcEEEvE1dB5cxx11
openmw:_ZGVZN3sol6detail8demangleIN7LuaUtil11L10nManager7ContextEEERKNSt7__cxx1112basic_stringIcSt11char_traitsIcESaIcEEEvE1dB5cxx11
openmw:_ZGVZN3sol6detail8demangleIN7LuaUtil13TimerCallbackEEERKNSt7__cxx1112basic_stringIcSt11char_traitsIcESaIcEEEvE1dB5cxx11
openmw:_ZGVZN3sol6detail8demangleIN7LuaUtil14AsyncPackageIdEEERKNSt7__cxx1112basic_stringIcSt11char_traitsIcESaIcEEEvE1dB5cxx11
openmw:_ZGVZN3sol6detail8demangleIN7LuaUtil16ScriptsContainer8ScriptIdEEERKNSt7__cxx1112basic_stringIcSt11char_traitsIcESaIcEEEvE1dB5cxx11
openmw:_ZGVZN3sol6detail8demangleIN7SDLUtil10TouchEventEEERKNSt7__cxx1112basic_stringIcSt11char_traitsIcESaIcEEEvE1dB5cxx11
openmw:_ZGVZN3sol6detail8demangleIN8MWRender10RenderModeEEERKNSt7__cxx1112basic_stringIcSt11char_traitsIcESaIcEEEvE1dB5cxx11
openmw:_ZGVZN3sol6detail8demangleIN8MWRender11NavMeshModeEEERKNSt7__cxx1112basic_stringIcSt11char_traitsIcESaIcEEEvE1dB5cxx11
openmw:_ZGVZN3sol6detail8demangleIN9MWPhysics16RayCastingResultEEERKNSt7__cxx1112basic_stringIcSt11char_traitsIcESaIcEEEvE1dB5cxx11
openmw:_ZGVZN3sol6detail8demangleINS_10this_stateEEERKNSt7__cxx1112basic_stringIcSt11char_traitsIcESaIcEEEvE1dB5cxx11
openmw:_ZGVZN3sol6detail8demangleINS_11table_proxyIRNS_16basic_table_coreILb0ENS_15basic_referenceILb0EEEEESt5tupleIJjEEEEEERKNSt7__cxx1112basic_stringIcSt11char_traitsIcESaIcEEEvE1dB5cxx11
openmw:_ZGVZN3sol6detail8demangleINS_12basic_objectINS_15basic_referenceILb0EEEEEEERKNSt7__cxx1112basic_stringIcSt11char_traitsIcESaIcEEEvE1dB5cxx11
openmw:_ZGVZN3sol6detail8demangleINS_12basic_objectINS_15basic_referenceILb1EEEEEEERKNSt7__cxx1112basic_stringIcSt11char_traitsIcESaIcEEEvE1dB5cxx11
openmw:_ZGVZN3sol6detail8demangleINS_13variadic_argsEEERKNSt7__cxx1112basic_stringIcSt11char_traitsIcESaIcEEEvE1dB5cxx11
openmw:_ZGVZN3sol6detail8demangleINS_14as_container_tI10SDL_KeysymEEEERKNSt7__cxx1112basic_stringIcSt11char_traitsIcESaIcEEEvE1dB5cxx11
openmw:_ZGVZN3sol6detail8demangleINS_14as_container_tIN11MWMechanics9AiPackageEEEEERKNSt7__cxx1112basic_stringIcSt11char_traitsIcESaIcEEEvE1dB5cxx11
openmw:_ZGVZN3sol6detail8demangleINS_14as_container_tIN3ESM10IngredientEEEEERKNSt7__cxx1112basic_stringIcSt11char_traitsIcESaIcEEEvE1dB5cxx11
openmw:_ZGVZN3sol6detail8demangleINS_14as_container_tIN3ESM13MiscellaneousEEEEERKNSt7__cxx1112basic_stringIcSt11char_traitsIcESaIcEEEvE1dB5cxx11
openmw:_ZGVZN3sol6detail8demangleINS_14as_container_tIN3ESM3NPCEEEEERKNSt7__cxx1112basic_stringIcSt11char_traitsIcESaIcEEEvE1dB5cxx11
openmw:_ZGVZN3sol6detail8demangleINS_14as_container_tIN3ESM4BookEEEEERKNSt7__cxx1112basic_stringIcSt11char_traitsIcESaIcEEEvE1dB5cxx11
openmw:_ZGVZN3sol6detail8demangleINS_14as_container_tIN3ESM4DoorEEEEERKNSt7__cxx1112basic_stringIcSt11char_traitsIcESaIcEEEvE1dB5cxx11
openmw:_ZGVZN3sol6detail8demangleINS_14as_container_tIN3ESM5ProbeEEEEERKNSt7__cxx1112basic_stringIcSt11char_traitsIcESaIcEEEvE1dB5cxx11
openmw:_ZGVZN3sol6detail8demangleINS_14as_container_tIN3ESM6PotionEEEEERKNSt7__cxx1112basic_stringIcSt11char_traitsIcESaIcEEEvE1dB5cxx11
openmw:_ZGVZN3sol6detail8demangleINS_14as_container_tIN3ESM6RefNumEEEEERKNSt7__cxx1112basic_stringIcSt11char_traitsIcESaIcEEEvE1dB5cxx11
openmw:_ZGVZN3sol6detail8demangleINS_14as_container_tIN3ESM6RepairEEEEERKNSt7__cxx1112basic_stringIcSt11char_traitsIcESaIcEEEvE1dB5cxx11
openmw:_ZGVZN3sol6detail8demangleINS_14as_container_tIN3ESM6WeaponEEEEERKNSt7__cxx1112basic_stringIcSt11char_traitsIcESaIcEEEvE1dB5cxx11
openmw:_ZGVZN3sol6detail8demangleINS_14as_container_tIN3ESM8CreatureEEEEERKNSt7__cxx1112basic_stringIcSt11char_traitsIcESaIcEEEvE1dB5cxx11
openmw:_ZGVZN3sol6detail8demangleINS_14as_container_tIN3ESM8LockpickEEEEERKNSt7__cxx1112basic_stringIcSt11char_traitsIcESaIcEEEvE1dB5cxx11
openmw:_ZGVZN3sol6detail8demangleINS_14as_container_tIN3ESM9ActivatorEEEEERKNSt7__cxx1112basic_stringIcSt11char_traitsIcESaIcEEEvE1dB5cxx11
openmw:_ZGVZN3sol6detail8demangleINS_14as_container_tIN3ESM9ApparatusEEEEERKNSt7__cxx1112basic_stringIcSt11char_traitsIcESaIcEEEvE1dB5cxx11
openmw:_ZGVZN3sol6detail8demangleINS_14as_container_tIN3ESM9ContainerEEEEERKNSt7__cxx1112basic_stringIcSt11char_traitsIcESaIcEEEvE1dB5cxx11
openmw:_ZGVZN3sol6detail8demangleINS_14as_container_tIN3osg5Vec2fEEEEERKNSt7__cxx1112basic_stringIcSt11char_traitsIcESaIcEEEvE1dB5cxx11
openmw:_ZGVZN3sol6detail8demangleINS_14as_container_tIN3osg5Vec3fEEEEERKNSt7__cxx1112basic_stringIcSt11char_traitsIcESaIcEEEvE1dB5cxx11
openmw:_ZGVZN3sol6detail8demangleINS_14as_container_tIN3osg5Vec4fEEEEERKNSt7__cxx1112basic_stringIcSt11char_traitsIcESaIcEEEvE1dB5cxx11
openmw:_ZGVZN3sol6detail8demangleINS_14as_container_tIN4Misc5ColorEEEEERKNSt7__cxx1112basic_stringIcSt11char_traitsIcESaIcEEEvE1dB5cxx11
openmw:_ZGVZN3sol6detail8demangleINS_14as_container_tIN5LuaUi11TextureDataEEEEERKNSt7__cxx1112basic_stringIcSt11char_traitsIcESaIcEEEvE1dB5cxx11
openmw:_ZGVZN3sol6detail8demangleINS_14as_container_tIN5LuaUi5LayerEEEEERKNSt7__cxx1112basic_stringIcSt11char_traitsIcESaIcEEEvE1dB5cxx11
openmw:_ZGVZN3sol6detail8demangleINS_14as_container_tIN5LuaUi7ElementEEEEERKNSt7__cxx1112basic_stringIcSt11char_traitsIcESaIcEEEvE1dB5cxx11
openmw:_ZGVZN3sol6detail8demangleINS_14as_container_tIN5MWLua10ObjectListINS3_7GObjectEEEEEEERKNSt7__cxx1112basic_stringIcSt11char_traitsIcESaIcEEEvE1dB5cxx11
openmw:_ZGVZN3sol6detail8demangleINS_14as_container_tIN5MWLua10ObjectListINS3_7LObjectEEEEEEERKNSt7__cxx1112basic_stringIcSt11char_traitsIcESaIcEEEvE1dB5cxx11
openmw:_ZGVZN3sol6detail8demangleINS_14as_container_tIN5MWLua11DynamicStatEEEEERKNSt7__cxx1112basic_stringIcSt11char_traitsIcESaIcEEEvE1dB5cxx11
openmw:_ZGVZN3sol6detail8demangleINS_14as_container_tIN5MWLua12LocalScripts10SelfObjectEEEEERKNSt7__cxx1112basic_stringIcSt11char_traitsIcESaIcEEEvE1dB5cxx11
openmw:_ZGVZN3sol6detail8demangleINS_14as_container_tIN5MWLua13AttributeStatEEEEERKNSt7__cxx1112basic_stringIcSt11char_traitsIcESaIcEEEvE1dB5cxx11
openmw:_ZGVZN3sol6detail8demangleINS_14as_container_tIN5MWLua5GCellEEEEERKNSt7__cxx1112basic_stringIcSt11char_traitsIcESaIcEEEvE1dB5cxx11
openmw:_ZGVZN3sol6detail8demangleINS_14as_container_tIN5MWLua5LCellEEEEERKNSt7__cxx1112basic_stringIcSt11char_traitsIcESaIcEEEvE1dB5cxx11
openmw:_ZGVZN3sol6detail8demangleINS_14as_container_tIN5MWLua6ObjectEEEEERKNSt7__cxx1112basic_stringIcSt11char_traitsIcESaIcEEEvE1dB5cxx11
openmw:_ZGVZN3sol6detail8demangleINS_14as_container_tIN5MWLua6ShaderEEEEERKNSt7__cxx1112basic_stringIcSt11char_traitsIcESaIcEEEvE1dB5cxx11
openmw:_ZGVZN3sol6detail8demangleINS_14as_container_tIN5MWLua7GObjectEEEEERKNSt7__cxx1112basic_stringIcSt11char_traitsIcESaIcEEEvE1dB5cxx11
openmw:_ZGVZN3sol6detail8demangleINS_14as_container_tIN5MWLua7LObjectEEEEERKNSt7__cxx1112basic_stringIcSt11char_traitsIcESaIcEEEvE1dB5cxx11
openmw:_ZGVZN3sol6detail8demangleINS_14as_container_tIN5MWLua9InventoryINS3_7GObjectEEEEEEERKNSt7__cxx1112basic_stringIcSt11char_traitsIcESaIcEEEvE1dB5cxx11
openmw:_ZGVZN3sol6detail8demangleINS_14as_container_tIN5MWLua9InventoryINS3_7LObjectEEEEEEERKNSt7__cxx1112basic_stringIcSt11char_traitsIcESaIcEEEvE1dB5cxx11
openmw:_ZGVZN3sol6detail8demangleINS_14as_container_tIN5MWLua9LevelStatEEEEERKNSt7__cxx1112basic_stringIcSt11char_traitsIcESaIcEEEvE1dB5cxx11
openmw:_ZGVZN3sol6detail8demangleINS_14as_container_tIN5MWLua9SkillStatEEEEERKNSt7__cxx1112basic_stringIcSt11char_traitsIcESaIcEEEvE1dB5cxx11
openmw:_ZGVZN3sol6detail8demangleINS_14as_container_tIN6MWBase10LuaManager13ActorControlsEEEEERKNSt7__cxx1112basic_stringIcSt11char_traitsIcESaIcEEEvE1dB5cxx11
openmw:_ZGVZN3sol6detail8demangleINS_14as_container_tIN7LuaUtil10LuaStorage11SectionViewEEEEERKNSt7__cxx1112basic_stringIcSt11char_traitsIcESaIcEEEvE1dB5cxx11
openmw:_ZGVZN3sol6detail8demangleINS_14as_container_tIN7LuaUtil10TransformMEEEEERKNSt7__cxx1112basic_stringIcSt11char_traitsIcESaIcEEEvE1dB5cxx11
openmw:_ZGVZN3sol6detail8demangleINS_14as_container_tIN7LuaUtil10TransformQEEEEERKNSt7__cxx1112basic_stringIcSt11char_traitsIcESaIcEEEvE1dB5cxx11
openmw:_ZGVZN3sol6detail8demangleINS_14as_container_tIN7LuaUtil11L10nManager7ContextEEEEERKNSt7__cxx1112basic_stringIcSt11char_traitsIcESaIcEEEvE1dB5cxx11
openmw:_ZGVZN3sol6detail8demangleINS_14as_container_tIN7LuaUtil13TimerCallbackEEEEERKNSt7__cxx1112basic_stringIcSt11char_traitsIcESaIcEEEvE1dB5cxx11
openmw:_ZGVZN3sol6detail8demangleINS_14as_container_tIN7LuaUtil14AsyncPackageIdEEEEERKNSt7__cxx1112basic_stringIcSt11char_traitsIcESaIcEEEvE1dB5cxx11
openmw:_ZGVZN3sol6detail8demangleINS_14as_container_tIN7LuaUtil16ScriptsContainer8ScriptIdEEEEERKNSt7__cxx1112basic_stringIcSt11char_traitsIcESaIcEEEvE1dB5cxx11
openmw:_ZGVZN3sol6detail8demangleINS_14as_container_tIN7SDLUtil10TouchEventEEEEERKNSt7__cxx1112basic_stringIcSt11char_traitsIcESaIcEEEvE1dB5cxx11
openmw:_ZGVZN3sol6detail8demangleINS_14as_container_tIN9MWPhysics16RayCastingResultEEEEERKNSt7__cxx1112basic_stringIcSt11char_traitsIcESaIcEEEvE1dB5cxx11
openmw:_ZGVZN3sol6detail8demangleINS_14as_container_tINS_9base_listIJEEEEEEERKNSt7__cxx1112basic_stringIcSt11char_traitsIcESaIcEEEvE1dB5cxx11
openmw:_ZGVZN3sol6detail8demangleINS_14as_container_tINS_9base_listIJN5MWLua6ObjectEEEEEEEERKNSt7__cxx1112basic_stringIcSt11char_traitsIcESaIcEEEvE1dB5cxx11
openmw:_ZGVZN3sol6detail8demangleINS_14as_container_tINS_9base_listIJN5MWLua7LObjectENS4_6ObjectEEEEEEEERKNSt7__cxx1112basic_stringIcSt11char_traitsIcESaIcEEEvE1dB5cxx11
openmw:_ZGVZN3sol6detail8demangleINS_14as_container_tISt6vectorIN3osg5Vec3fESaIS5_EEEEEERKNSt7__cxx1112basic_stringIcSt11char_traitsIcESaIcEEEvE1dB5cxx11
openmw:_ZGVZN3sol6detail8demangleINS_14as_container_tIZN5MWLua14getArraySetterIN3osg5Vec2fEEEDaRKNS3_7ContextEEUlRKNS3_6ShaderERKNSt7__cxx1112basic_stringIcSt11char_traitsIcESaIcEEERKNS_16basic_table_coreILb0ENS_15basic_referenceILb0EEEEEE_EEEESK_vE1dB5cxx11
openmw:_ZGVZN3sol6detail8demangleINS_14as_container_tIZN5MWLua14getArraySetterIN3osg5Vec3fEEEDaRKNS3_7ContextEEUlRKNS3_6ShaderERKNSt7__cxx1112basic_stringIcSt11char_traitsIcESaIcEEERKNS_16basic_table_coreILb0ENS_15basic_referenceILb0EEEEEE_EEEESK_vE1dB5cxx11
openmw:_ZGVZN3sol6detail8demangleINS_14as_container_tIZN5MWLua14getArraySetterIN3osg5Vec4fEEEDaRKNS3_7ContextEEUlRKNS3_6ShaderERKNSt7__cxx1112basic_stringIcSt11char_traitsIcESaIcEEERKNS_16basic_table_coreILb0ENS_15basic_referenceILb0EEEEEE_EEEESK_vE1dB5cxx11
openmw:_ZGVZN3sol6detail8demangleINS_14as_container_tIZN5MWLua14getArraySetterIfEEDaRKNS3_7ContextEEUlRKNS3_6ShaderERKNSt7__cxx1112basic_stringIcSt11char_traitsIcESaIcEEERKNS_16basic_table_coreILb0ENS_15basic_referenceILb0EEEEEE_EEEESI_vE1dB5cxx11
openmw:_ZGVZN3sol6detail8demangleINS_14as_container_tIZN5MWLua14getArraySetterIiEEDaRKNS3_7ContextEEUlRKNS3_6ShaderERKNSt7__cxx1112basic_stringIcSt11char_traitsIcESaIcEEERKNS_16basic_table_coreILb0ENS_15basic_referenceILb0EEEEEE_EEEESI_vE1dB5cxx11
openmw:_ZGVZN3sol6detail8demangleINS_14as_container_tIZN5MWLua9getSetterIN3osg5Vec2fEEEDaRKNS3_7ContextEEUlRKNS3_6ShaderERKNSt7__cxx1112basic_stringIcSt11char_traitsIcESaIcEEERKS6_E_EEEESK_vE1dB5cxx11
openmw:_ZGVZN3sol6detail8demangleINS_14as_container_tIZN5MWLua9getSetterIN3osg5Vec3fEEEDaRKNS3_7ContextEEUlRKNS3_6ShaderERKNSt7__cxx1112basic_stringIcSt11char_traitsIcESaIcEEERKS6_E_EEEESK_vE1dB5cxx11
openmw:_ZGVZN3sol6detail8demangleINS_14as_container_tIZN5MWLua9getSetterIN3osg5Vec4fEEEDaRKNS3_7ContextEEUlRKNS3_6ShaderERKNSt7__cxx1112basic_stringIcSt11char_traitsIcESaIcEEERKS6_E_EEEESK_vE1dB5cxx11
openmw:_ZGVZN3sol6detail8demangleINS_14as_container_tIZN5MWLua9getSetterIbEEDaRKNS3_7ContextEEUlRKNS3_6ShaderERKNSt7__cxx1112basic_stringIcSt11char_traitsIcESaIcEEERKbE_EEEESI_vE1dB5cxx11
openmw:_ZGVZN3sol6detail8demangleINS_14as_container_tIZN5MWLua9getSetterIfEEDaRKNS3_7ContextEEUlRKNS3_6ShaderERKNSt7__cxx1112basic_stringIcSt11char_traitsIcESaIcEEERKfE_EEEESI_vE1dB5cxx11
openmw:_ZGVZN3sol6detail8demangleINS_14as_container_tIZN5MWLua9getSetterIiEEDaRKNS3_7ContextEEUlRKNS3_6ShaderERKNSt7__cxx1112basic_stringIcSt11char_traitsIcESaIcEEERKiE_EEEESI_vE1dB5cxx11
openmw:_ZGVZN3sol6detail8demangleINS_14as_container_tIbEEEERKNSt7__cxx1112basic_stringIcSt11char_traitsIcESaIcEEEvE1dB5cxx11
openmw:_ZGVZN3sol6detail8demangleINS_14basic_functionINS_15basic_referenceILb0EEELb0EEEEERKNSt7__cxx1112basic_stringIcSt11char_traitsIcESaIcEEEvE1dB5cxx11
openmw:_ZGVZN3sol6detail8demangleINS_16basic_table_coreILb0ENS_15basic_referenceILb0EEEEEEERKNSt7__cxx1112basic_stringIcSt11char_traitsIcESaIcEEEvE1dB5cxx11
openmw:_ZGVZN3sol6detail8demangleINS_16container_detail26usertype_container_defaultISt6vectorIN3osg5Vec3fESaIS6_EEvE4iterEEERKNSt7__cxx1112basic_stringIcSt11char_traitsIcESaIcEEEvE1dB5cxx11
openmw:_ZGVZN3sol6detail8demangleINS_1d1uI10SDL_KeysymEEEERKNSt7__cxx1112basic_stringIcSt11char_traitsIcESaIcEEEvE1dB5cxx11
openmw:_ZGVZN3sol6detail8demangleINS_1d1uIN11MWMechanics9AiPackageEEEEERKNSt7__cxx1112basic_stringIcSt11char_traitsIcESaIcEEEvE1dB5cxx11
openmw:_ZGVZN3sol6detail8demangleINS_1d1uIN3ESM10IngredientEEEEERKNSt7__cxx1112basic_stringIcSt11char_traitsIcESaIcEEEvE1dB5cxx11
openmw:_ZGVZN3sol6detail8demangleINS_1d1uIN3ESM13MiscellaneousEEEEERKNSt7__cxx1112basic_stringIcSt11char_traitsIcESaIcEEEvE1dB5cxx11
openmw:_ZGVZN3sol6detail8demangleINS_1d1uIN3ESM3NPCEEEEERKNSt7__cxx1112basic_stringIcSt11char_traitsIcESaIcEEEvE1dB5cxx11
openmw:_ZGVZN3sol6detail8demangleINS_1d1uIN3ESM4BookEEEEERKNSt7__cxx1112basic_stringIcSt11char_traitsIcESaIcEEEvE1dB5cxx11
openmw:_ZGVZN3sol6detail8demangleINS_1d1uIN3ESM4DoorEEEEERKNSt7__cxx1112basic_stringIcSt11char_traitsIcESaIcEEEvE1dB5cxx11
openmw:_ZGVZN3sol6detail8demangleINS_1d1uIN3ESM5ProbeEEEEERKNSt7__cxx1112basic_stringIcSt11char_traitsIcESaIcEEEvE1dB5cxx11
openmw:_ZGVZN3sol6detail8demangleINS_1d1uIN3ESM6PotionEEEEERKNSt7__cxx1112basic_stringIcSt11char_traitsIcESaIcEEEvE1dB5cxx11
openmw:_ZGVZN3sol6detail8demangleINS_1d1uIN3ESM6RefNumEEEEERKNSt7__cxx1112basic_stringIcSt11char_traitsIcESaIcEEEvE1dB5cxx11
openmw:_ZGVZN3sol6detail8demangleINS_1d1uIN3ESM6RepairEEEEERKNSt7__cxx1112basic_stringIcSt11char_traitsIcESaIcEEEvE1dB5cxx11
openmw:_ZGVZN3sol6detail8demangleINS_1d1uIN3ESM6WeaponEEEEERKNSt7__cxx1112basic_stringIcSt11char_traitsIcESaIcEEEvE1dB5cxx11
openmw:_ZGVZN3sol6detail8demangleINS_1d1uIN3ESM8CreatureEEEEERKNSt7__cxx1112basic_stringIcSt11char_traitsIcESaIcEEEvE1dB5cxx11
openmw:_ZGVZN3sol6detail8demangleINS_1d1uIN3ESM8LockpickEEEEERKNSt7__cxx1112basic_stringIcSt11char_traitsIcESaIcEEEvE1dB5cxx11
openmw:_ZGVZN3sol6detail8demangleINS_1d1uIN3ESM9ActivatorEEEEERKNSt7__cxx1112basic_stringIcSt11char_traitsIcESaIcEEEvE1dB5cxx11
openmw:_ZGVZN3sol6detail8demangleINS_1d1uIN3ESM9ApparatusEEEEERKNSt7__cxx1112basic_stringIcSt11char_traitsIcESaIcEEEvE1dB5cxx11
openmw:_ZGVZN3sol6detail8demangleINS_1d1uIN3ESM9ContainerEEEEERKNSt7__cxx1112basic_stringIcSt11char_traitsIcESaIcEEEvE1dB5cxx11
openmw:_ZGVZN3sol6detail8demangleINS_1d1uIN3osg5Vec2fEEEEERKNSt7__cxx1112basic_stringIcSt11char_traitsIcESaIcEEEvE1dB5cxx11
openmw:_ZGVZN3sol6detail8demangleINS_1d1uIN3osg5Vec3fEEEEERKNSt7__cxx1112basic_stringIcSt11char_traitsIcESaIcEEEvE1dB5cxx11
openmw:_ZGVZN3sol6detail8demangleINS_1d1uIN3osg5Vec4fEEEEERKNSt7__cxx1112basic_stringIcSt11char_traitsIcESaIcEEEvE1dB5cxx11
openmw:_ZGVZN3sol6detail8demangleINS_1d1uIN4Misc5ColorEEEEERKNSt7__cxx1112basic_stringIcSt11char_traitsIcESaIcEEEvE1dB5cxx11
openmw:_ZGVZN3sol6detail8demangleINS_1d1uIN5LuaUi11TextureDataEEEEERKNSt7__cxx1112basic_stringIcSt11char_traitsIcESaIcEEEvE1dB5cxx11
openmw:_ZGVZN3sol6detail8demangleINS_1d1uIN5LuaUi5LayerEEEEERKNSt7__cxx1112basic_stringIcSt11char_traitsIcESaIcEEEvE1dB5cxx11
openmw:_ZGVZN3sol6detail8demangleINS_1d1uIN5LuaUi7ElementEEEEERKNSt7__cxx1112basic_stringIcSt11char_traitsIcESaIcEEEvE1dB5cxx11
openmw:_ZGVZN3sol6detail8demangleINS_1d1uIN5MWLua10ObjectListINS4_7GObjectEEEEEEERKNSt7__cxx1112basic_stringIcSt11char_traitsIcESaIcEEEvE1dB5cxx11
openmw:_ZGVZN3sol6detail8demangleINS_1d1uIN5MWLua10ObjectListINS4_7LObjectEEEEEEERKNSt7__cxx1112basic_stringIcSt11char_traitsIcESaIcEEEvE1dB5cxx11
openmw:_ZGVZN3sol6detail8demangleINS_1d1uIN5MWLua11DynamicStatEEEEERKNSt7__cxx1112basic_stringIcSt11char_traitsIcESaIcEEEvE1dB5cxx11
openmw:_ZGVZN3sol6detail8demangleINS_1d1uIN5MWLua12LocalScripts10SelfObjectEEEEERKNSt7__cxx1112basic_stringIcSt11char_traitsIcESaIcEEEvE1dB5cxx11
openmw:_ZGVZN3sol6detail8demangleINS_1d1uIN5MWLua13AttributeStatEEEEERKNSt7__cxx1112basic_stringIcSt11char_traitsIcESaIcEEEvE1dB5cxx11
openmw:_ZGVZN3sol6detail8demangleINS_1d1uIN5MWLua5GCellEEEEERKNSt7__cxx1112basic_stringIcSt11char_traitsIcESaIcEEEvE1dB5cxx11
openmw:_ZGVZN3sol6detail8demangleINS_1d1uIN5MWLua5LCellEEEEERKNSt7__cxx1112basic_stringIcSt11char_traitsIcESaIcEEEvE1dB5cxx11
openmw:_ZGVZN3sol6detail8demangleINS_1d1uIN5MWLua6ObjectEEEEERKNSt7__cxx1112basic_stringIcSt11char_traitsIcESaIcEEEvE1dB5cxx11
openmw:_ZGVZN3sol6detail8demangleINS_1d1uIN5MWLua6ShaderEEEEERKNSt7__cxx1112basic_stringIcSt11char_traitsIcESaIcEEEvE1dB5cxx11
openmw:_ZGVZN3sol6detail8demangleINS_1d1uIN5MWLua7GObjectEEEEERKNSt7__cxx1112basic_stringIcSt11char_traitsIcESaIcEEEvE1dB5cxx11
openmw:_ZGVZN3sol6detail8demangleINS_1d1uIN5MWLua7LObjectEEEEERKNSt7__cxx1112basic_stringIcSt11char_traitsIcESaIcEEEvE1dB5cxx11
openmw:_ZGVZN3sol6detail8demangleINS_1d1uIN5MWLua9InventoryINS4_7GObjectEEEEEEERKNSt7__cxx1112basic_stringIcSt11char_traitsIcESaIcEEEvE1dB5cxx11
openmw:_ZGVZN3sol6detail8demangleINS_1d1uIN5MWLua9InventoryINS4_7LObjectEEEEEEERKNSt7__cxx1112basic_stringIcSt11char_traitsIcESaIcEEEvE1dB5cxx11
openmw:_ZGVZN3sol6detail8demangleINS_1d1uIN5MWLua9LevelStatEEEEERKNSt7__cxx1112basic_stringIcSt11char_traitsIcESaIcEEEvE1dB5cxx11
openmw:_ZGVZN3sol6detail8demangleINS_1d1uIN5MWLua9SkillStatEEEEERKNSt7__cxx1112basic_stringIcSt11char_traitsIcESaIcEEEvE1dB5cxx11
openmw:_ZGVZN3sol6detail8demangleINS_1d1uIN6MWBase10LuaManager13ActorControlsEEEEERKNSt7__cxx1112basic_stringIcSt11char_traitsIcESaIcEEEvE1dB5cxx11
openmw:_ZGVZN3sol6detail8demangleINS_1d1uIN7LuaUtil10LuaStorage11SectionViewEEEEERKNSt7__cxx1112basic_stringIcSt11char_traitsIcESaIcEEEvE1dB5cxx11
openmw:_ZGVZN3sol6detail8demangleINS_1d1uIN7LuaUtil10TransformMEEEEERKNSt7__cxx1112basic_stringIcSt11char_traitsIcESaIcEEEvE1dB5cxx11
openmw:_ZGVZN3sol6detail8demangleINS_1d1uIN7LuaUtil10TransformQEEEEERKNSt7__cxx1112basic_stringIcSt11char_traitsIcESaIcEEEvE1dB5cxx11
openmw:_ZGVZN3sol6detail8demangleINS_1d1uIN7LuaUtil11L10nManager7ContextEEEEERKNSt7__cxx1112basic_stringIcSt11char_traitsIcESaIcEEEvE1dB5cxx11
openmw:_ZGVZN3sol6detail8demangleINS_1d1uIN7LuaUtil13TimerCallbackEEEEERKNSt7__cxx1112basic_stringIcSt11char_traitsIcESaIcEEEvE1dB5cxx11
openmw:_ZGVZN3sol6detail8demangleINS_1d1uIN7LuaUtil14AsyncPackageIdEEEEERKNSt7__cxx1112basic_stringIcSt11char_traitsIcESaIcEEEvE1dB5cxx11
openmw:_ZGVZN3sol6detail8demangleINS_1d1uIN7LuaUtil16ScriptsContainer8ScriptIdEEEEERKNSt7__cxx1112basic_stringIcSt11char_traitsIcESaIcEEEvE1dB5cxx11
openmw:_ZGVZN3sol6detail8demangleINS_1d1uIN7SDLUtil10TouchEventEEEEERKNSt7__cxx1112basic_stringIcSt11char_traitsIcESaIcEEEvE1dB5cxx11
openmw:_ZGVZN3sol6detail8demangleINS_1d1uIN9MWPhysics16RayCastingResultEEEEERKNSt7__cxx1112basic_stringIcSt11char_traitsIcESaIcEEEvE1dB5cxx11
openmw:_ZGVZN3sol6detail8demangleINS_1d1uINS_9base_listIJEEEEEEERKNSt7__cxx1112basic_stringIcSt11char_traitsIcESaIcEEEvE1dB5cxx11
openmw:_ZGVZN3sol6detail8demangleINS_1d1uINS_9base_listIJN5MWLua6ObjectEEEEEEEERKNSt7__cxx1112basic_stringIcSt11char_traitsIcESaIcEEEvE1dB5cxx11
openmw:_ZGVZN3sol6detail8demangleINS_1d1uINS_9base_listIJN5MWLua7LObjectENS5_6ObjectEEEEEEEERKNSt7__cxx1112basic_stringIcSt11char_traitsIcESaIcEEEvE1dB5cxx11
openmw:_ZGVZN3sol6detail8demangleINS_1d1uISt6vectorIN3osg5Vec3fESaIS6_EEEEEERKNSt7__cxx1112basic_stringIcSt11char_traitsIcESaIcEEEvE1dB5cxx11
openmw:_ZGVZN3sol6detail8demangleINS_1d1uIZN5MWLua14getArraySetterIN3osg5Vec2fEEEDaRKNS4_7ContextEEUlRKNS4_6ShaderERKNSt7__cxx1112basic_stringIcSt11char_traitsIcESaIcEEERKNS_16basic_table_coreILb0ENS_15basic_referenceILb0EEEEEE_EEEESL_vE1dB5cxx11
openmw:_ZGVZN3sol6detail8demangleINS_1d1uIZN5MWLua14getArraySetterIN3osg5Vec3fEEEDaRKNS4_7ContextEEUlRKNS4_6ShaderERKNSt7__cxx1112basic_stringIcSt11char_traitsIcESaIcEEERKNS_16basic_table_coreILb0ENS_15basic_referenceILb0EEEEEE_EEEESL_vE1dB5cxx11
openmw:_ZGVZN3sol6detail8demangleINS_1d1uIZN5MWLua14getArraySetterIN3osg5Vec4fEEEDaRKNS4_7ContextEEUlRKNS4_6ShaderERKNSt7__cxx1112basic_stringIcSt11char_traitsIcESaIcEEERKNS_16basic_table_coreILb0ENS_15basic_referenceILb0EEEEEE_EEEESL_vE1dB5cxx11
openmw:_ZGVZN3sol6detail8demangleINS_1d1uIZN5MWLua14getArraySetterIfEEDaRKNS4_7ContextEEUlRKNS4_6ShaderERKNSt7__cxx1112basic_stringIcSt11char_traitsIcESaIcEEERKNS_16basic_table_coreILb0ENS_15basic_referenceILb0EEEEEE_EEEESJ_vE1dB5cxx11
openmw:_ZGVZN3sol6detail8demangleINS_1d1uIZN5MWLua14getArraySetterIiEEDaRKNS4_7ContextEEUlRKNS4_6ShaderERKNSt7__cxx1112basic_stringIcSt11char_traitsIcESaIcEEERKNS_16basic_table_coreILb0ENS_15basic_referenceILb0EEEEEE_EEEESJ_vE1dB5cxx11
openmw:_ZGVZN3sol6detail8demangleINS_1d1uIZN5MWLua9getSetterIN3osg5Vec2fEEEDaRKNS4_7ContextEEUlRKNS4_6ShaderERKNSt7__cxx1112basic_stringIcSt11char_traitsIcESaIcEEERKS7_E_EEEESL_vE1dB5cxx11
openmw:_ZGVZN3sol6detail8demangleINS_1d1uIZN5MWLua9getSetterIN3osg5Vec3fEEEDaRKNS4_7ContextEEUlRKNS4_6ShaderERKNSt7__cxx1112basic_stringIcSt11char_traitsIcESaIcEEERKS7_E_EEEESL_vE1dB5cxx11
openmw:_ZGVZN3sol6detail8demangleINS_1d1uIZN5MWLua9getSetterIN3osg5Vec4fEEEDaRKNS4_7ContextEEUlRKNS4_6ShaderERKNSt7__cxx1112basic_stringIcSt11char_traitsIcESaIcEEERKS7_E_EEEESL_vE1dB5cxx11
openmw:_ZGVZN3sol6detail8demangleINS_1d1uIZN5MWLua9getSetterIbEEDaRKNS4_7ContextEEUlRKNS4_6ShaderERKNSt7__cxx1112basic_stringIcSt11char_traitsIcESaIcEEERKbE_EEEESJ_vE1dB5cxx11
openmw:_ZGVZN3sol6detail8demangleINS_1d1uIZN5MWLua9getSetterIfEEDaRKNS4_7ContextEEUlRKNS4_6ShaderERKNSt7__cxx1112basic_stringIcSt11char_traitsIcESaIcEEERKfE_EEEESJ_vE1dB5cxx11
openmw:_ZGVZN3sol6detail8demangleINS_1d1uIZN5MWLua9getSetterIiEEDaRKNS4_7ContextEEUlRKNS4_6ShaderERKNSt7__cxx1112basic_stringIcSt11char_traitsIcESaIcEEERKiE_EEEESJ_vE1dB5cxx11
openmw:_ZGVZN3sol6detail8demangleINS_24basic_protected_functionINS_15basic_referenceILb1EEELb0ENS3_ILb0EEEEEEERKNSt7__cxx1112basic_stringIcSt11char_traitsIcESaIcEEEvE1dB5cxx11
openmw:_ZGVZN3sol6detail8demangleINS_8optionalIN3osg5Vec3fEEEEERKNSt7__cxx1112basic_stringIcSt11char_traitsIcESaIcEEEvE1dB5cxx11
openmw:_ZGVZN3sol6detail8demangleINS_8optionalIN5MWLua5GCellEEEEERKNSt7__cxx1112basic_stringIcSt11char_traitsIcESaIcEEEvE1dB5cxx11
openmw:_ZGVZN3sol6detail8demangleINS_8optionalIN5MWLua5LCellEEEEERKNSt7__cxx1112basic_stringIcSt11char_traitsIcESaIcEEEvE1dB5cxx11
openmw:_ZGVZN3sol6detail8demangleINS_8optionalIN5MWLua7LObjectEEEEERKNSt7__cxx1112basic_stringIcSt11char_traitsIcESaIcEEEvE1dB5cxx11
openmw:_ZGVZN3sol6detail8demangleINS_8optionalINS_16basic_table_coreILb0ENS_15basic_referenceILb0EEEEEEEEERKNSt7__cxx1112basic_stringIcSt11char_traitsIcESaIcEEEvE1dB5cxx11
openmw:_ZGVZN3sol6detail8demangleINS_8optionalINSt7__cxx1112basic_stringIcSt11char_traitsIcESaIcEEEEEEERKS8_vE1dB5cxx11
openmw:_ZGVZN3sol6detail8demangleINS_8optionalISt10shared_ptrIN11MWMechanics9AiPackageEEEEEERKNSt7__cxx1112basic_stringIcSt11char_traitsIcESaIcEEEvE1dB5cxx11
openmw:_ZGVZN3sol6detail8demangleINS_8optionalISt5tupleIJmN5LuaUi5LayerEEEEEEERKNSt7__cxx1112basic_stringIcSt11char_traitsIcESaIcEEEvE1dB5cxx11
openmw:_ZGVZN3sol6detail8demangleINS_8optionalIbEEEERKNSt7__cxx1112basic_stringIcSt11char_traitsIcESaIcEEEvE1dB5cxx11
openmw:_ZGVZN3sol6detail8demangleINS_8optionalIiEEEERKNSt7__cxx1112basic_stringIcSt11char_traitsIcESaIcEEEvE1dB5cxx11
openmw:_ZGVZN3sol6detail8demangleINS_8optionalImEEEERKNSt7__cxx1112basic_stringIcSt11char_traitsIcESaIcEEEvE1dB5cxx11
openmw:_ZGVZN3sol6detail8demangleINS_8u_detail16usertype_storageI10SDL_KeysymEEEERKNSt7__cxx1112basic_stringIcSt11char_traitsIcESaIcEEEvE1dB5cxx11
openmw:_ZGVZN3sol6detail8demangleINS_8u_detail16usertype_storageIN11MWMechanics9AiPackageEEEEERKNSt7__cxx1112basic_stringIcSt11char_traitsIcESaIcEEEvE1dB5cxx11
openmw:_ZGVZN3sol6detail8demangleINS_8u_detail16usertype_storageIN3ESM10IngredientEEEEERKNSt7__cxx1112basic_stringIcSt11char_traitsIcESaIcEEEvE1dB5cxx11
openmw:_ZGVZN3sol6detail8demangleINS_8u_detail16usertype_storageIN3ESM13MiscellaneousEEEEERKNSt7__cxx1112basic_stringIcSt11char_traitsIcESaIcEEEvE1dB5cxx11
openmw:_ZGVZN3sol6detail8demangleINS_8u_detail16usertype_storageIN3ESM3NPCEEEEERKNSt7__cxx1112basic_stringIcSt11char_traitsIcESaIcEEEvE1dB5cxx11
openmw:_ZGVZN3sol6detail8demangleINS_8u_detail16usertype_storageIN3ESM4BookEEEEERKNSt7__cxx1112basic_stringIcSt11char_traitsIcESaIcEEEvE1dB5cxx11
openmw:_ZGVZN3sol6detail8demangleINS_8u_detail16usertype_storageIN3ESM4DoorEEEEERKNSt7__cxx1112basic_stringIcSt11char_traitsIcESaIcEEEvE1dB5cxx11
openmw:_ZGVZN3sol6detail8demangleINS_8u_detail16usertype_storageIN3ESM5ProbeEEEEERKNSt7__cxx1112basic_stringIcSt11char_traitsIcESaIcEEEvE1dB5cxx11
openmw:_ZGVZN3sol6detail8demangleINS_8u_detail16usertype_storageIN3ESM6PotionEEEEERKNSt7__cxx1112basic_stringIcSt11char_traitsIcESaIcEEEvE1dB5cxx11
openmw:_ZGVZN3sol6detail8demangleINS_8u_detail16usertype_storageIN3ESM6RepairEEEEERKNSt7__cxx1112basic_stringIcSt11char_traitsIcESaIcEEEvE1dB5cxx11
openmw:_ZGVZN3sol6detail8demangleINS_8u_detail16usertype_storageIN3ESM6WeaponEEEEERKNSt7__cxx1112basic_stringIcSt11char_traitsIcESaIcEEEvE1dB5cxx11
openmw:_ZGVZN3sol6detail8demangleINS_8u_detail16usertype_storageIN3ESM8CreatureEEEEERKNSt7__cxx1112basic_stringIcSt11char_traitsIcESaIcEEEvE1dB5cxx11
openmw:_ZGVZN3sol6detail8demangleINS_8u_detail16usertype_storageIN3ESM8LockpickEEEEERKNSt7__cxx1112basic_stringIcSt11char_traitsIcESaIcEEEvE1dB5cxx11
openmw:_ZGVZN3sol6detail8demangleINS_8u_detail16usertype_storageIN3ESM9ActivatorEEEEERKNSt7__cxx1112basic_stringIcSt11char_traitsIcESaIcEEEvE1dB5cxx11
openmw:_ZGVZN3sol6detail8demangleINS_8u_detail16usertype_storageIN3ESM9ApparatusEEEEERKNSt7__cxx1112basic_stringIcSt11char_traitsIcESaIcEEEvE1dB5cxx11
openmw:_ZGVZN3sol6detail8demangleINS_8u_detail16usertype_storageIN3ESM9ContainerEEEEERKNSt7__cxx1112basic_stringIcSt11char_traitsIcESaIcEEEvE1dB5cxx11
openmw:_ZGVZN3sol6detail8demangleINS_8u_detail16usertype_storageIN3osg5Vec2fEEEEERKNSt7__cxx1112basic_stringIcSt11char_traitsIcESaIcEEEvE1dB5cxx11
openmw:_ZGVZN3sol6detail8demangleINS_8u_detail16usertype_storageIN3osg5Vec3fEEEEERKNSt7__cxx1112basic_stringIcSt11char_traitsIcESaIcEEEvE1dB5cxx11
openmw:_ZGVZN3sol6detail8demangleINS_8u_detail16usertype_storageIN3osg5Vec4fEEEEERKNSt7__cxx1112basic_stringIcSt11char_traitsIcESaIcEEEvE1dB5cxx11
openmw:_ZGVZN3sol6detail8demangleINS_8u_detail16usertype_storageIN4Misc5ColorEEEEERKNSt7__cxx1112basic_stringIcSt11char_traitsIcESaIcEEEvE1dB5cxx11
openmw:_ZGVZN3sol6detail8demangleINS_8u_detail16usertype_storageIN5LuaUi5LayerEEEEERKNSt7__cxx1112basic_stringIcSt11char_traitsIcESaIcEEEvE1dB5cxx11
openmw:_ZGVZN3sol6detail8demangleINS_8u_detail16usertype_storageIN5LuaUi7ElementEEEEERKNSt7__cxx1112basic_stringIcSt11char_traitsIcESaIcEEEvE1dB5cxx11
openmw:_ZGVZN3sol6detail8demangleINS_8u_detail16usertype_storageIN5MWLua10ObjectListINS4_7GObjectEEEEEEERKNSt7__cxx1112basic_stringIcSt11char_traitsIcESaIcEEEvE1dB5cxx11
openmw:_ZGVZN3sol6detail8demangleINS_8u_detail16usertype_storageIN5MWLua10ObjectListINS4_7LObjectEEEEEEERKNSt7__cxx1112basic_stringIcSt11char_traitsIcESaIcEEEvE1dB5cxx11
openmw:_ZGVZN3sol6detail8demangleINS_8u_detail16usertype_storageIN5MWLua11DynamicStatEEEEERKNSt7__cxx1112basic_stringIcSt11char_traitsIcESaIcEEEvE1dB5cxx11
openmw:_ZGVZN3sol6detail8demangleINS_8u_detail16usertype_storageIN5MWLua12LocalScripts10SelfObjectEEEEERKNSt7__cxx1112basic_stringIcSt11char_traitsIcESaIcEEEvE1dB5cxx11
openmw:_ZGVZN3sol6detail8demangleINS_8u_detail16usertype_storageIN5MWLua13AttributeStatEEEEERKNSt7__cxx1112basic_stringIcSt11char_traitsIcESaIcEEEvE1dB5cxx11
openmw:_ZGVZN3sol6detail8demangleINS_8u_detail16usertype_storageIN5MWLua5GCellEEEEERKNSt7__cxx1112basic_stringIcSt11char_traitsIcESaIcEEEvE1dB5cxx11
openmw:_ZGVZN3sol6detail8demangleINS_8u_detail16usertype_storageIN5MWLua5LCellEEEEERKNSt7__cxx1112basic_stringIcSt11char_traitsIcESaIcEEEvE1dB5cxx11
openmw:_ZGVZN3sol6detail8demangleINS_8u_detail16usertype_storageIN5MWLua6ShaderEEEEERKNSt7__cxx1112basic_stringIcSt11char_traitsIcESaIcEEEvE1dB5cxx11
openmw:_ZGVZN3sol6detail8demangleINS_8u_detail16usertype_storageIN5MWLua7GObjectEEEEERKNSt7__cxx1112basic_stringIcSt11char_traitsIcESaIcEEEvE1dB5cxx11
openmw:_ZGVZN3sol6detail8demangleINS_8u_detail16usertype_storageIN5MWLua7LObjectEEEEERKNSt7__cxx1112basic_stringIcSt11char_traitsIcESaIcEEEvE1dB5cxx11
openmw:_ZGVZN3sol6detail8demangleINS_8u_detail16usertype_storageIN5MWLua9InventoryINS4_7GObjectEEEEEEERKNSt7__cxx1112basic_stringIcSt11char_traitsIcESaIcEEEvE1dB5cxx11
openmw:_ZGVZN3sol6detail8demangleINS_8u_detail16usertype_storageIN5MWLua9InventoryINS4_7LObjectEEEEEEERKNSt7__cxx1112basic_stringIcSt11char_traitsIcESaIcEEEvE1dB5cxx11
openmw:_ZGVZN3sol6detail8demangleINS_8u_detail16usertype_storageIN5MWLua9LevelStatEEEEERKNSt7__cxx1112basic_stringIcSt11char_traitsIcESaIcEEEvE1dB5cxx11
openmw:_ZGVZN3sol6detail8demangleINS_8u_detail16usertype_storageIN5MWLua9SkillStatEEEEERKNSt7__cxx1112basic_stringIcSt11char_traitsIcESaIcEEEvE1dB5cxx11
openmw:_ZGVZN3sol6detail8demangleINS_8u_detail16usertype_storageIN6MWBase10LuaManager13ActorControlsEEEEERKNSt7__cxx1112basic_stringIcSt11char_traitsIcESaIcEEEvE1dB5cxx11
openmw:_ZGVZN3sol6detail8demangleINS_8u_detail16usertype_storageIN7LuaUtil10LuaStorage11SectionViewEEEEERKNSt7__cxx1112basic_stringIcSt11char_traitsIcESaIcEEEvE1dB5cxx11
openmw:_ZGVZN3sol6detail8demangleINS_8u_detail16usertype_storageIN7LuaUtil10TransformMEEEEERKNSt7__cxx1112basic_stringIcSt11char_traitsIcESaIcEEEvE1dB5cxx11
openmw:_ZGVZN3sol6detail8demangleINS_8u_detail16usertype_storageIN7LuaUtil10TransformQEEEEERKNSt7__cxx1112basic_stringIcSt11char_traitsIcESaIcEEEvE1dB5cxx11
openmw:_ZGVZN3sol6detail8demangleINS_8u_detail16usertype_storageIN7LuaUtil11L10nManager7ContextEEEEERKNSt7__cxx1112basic_stringIcSt11char_traitsIcESaIcEEEvE1dB5cxx11
openmw:_ZGVZN3sol6detail8demangleINS_8u_detail16usertype_storageIN7LuaUtil14AsyncPackageIdEEEEERKNSt7__cxx1112basic_stringIcSt11char_traitsIcESaIcEEEvE1dB5cxx11
openmw:_ZGVZN3sol6detail8demangleINS_8u_detail16usertype_storageIN7SDLUtil10TouchEventEEEEERKNSt7__cxx1112basic_stringIcSt11char_traitsIcESaIcEEEvE1dB5cxx11
openmw:_ZGVZN3sol6detail8demangleINS_8u_detail16usertype_storageIN9MWPhysics16RayCastingResultEEEEERKNSt7__cxx1112basic_stringIcSt11char_traitsIcESaIcEEEvE1dB5cxx11
openmw:_ZGVZN3sol6detail8demangleINS_9base_listIJEEEEERKNSt7__cxx1112basic_stringIcSt11char_traitsIcESaIcEEEvE1dB5cxx11
openmw:_ZGVZN3sol6detail8demangleINS_9base_listIJN5MWLua6ObjectEEEEEERKNSt7__cxx1112basic_stringIcSt11char_traitsIcESaIcEEEvE1dB5cxx11
openmw:_ZGVZN3sol6detail8demangleINS_9base_listIJN5MWLua7LObjectENS3_6ObjectEEEEEERKNSt7__cxx1112basic_stringIcSt11char_traitsIcESaIcEEEvE1dB5cxx11
openmw:_ZGVZN3sol6detail8demangleINSt7__cxx1112basic_stringIcSt11char_traitsIcESaIcEEEEERKS7_vE1dB5cxx11
openmw:_ZGVZN3sol6detail8demangleIP10SDL_KeysymEERKNSt7__cxx1112basic_stringIcSt11char_traitsIcESaIcEEEvE1dB5cxx11
openmw:_ZGVZN3sol6detail8demangleIPK10SDL_KeysymEERKNSt7__cxx1112basic_stringIcSt11char_traitsIcESaIcEEEvE1dB5cxx11
openmw:_ZGVZN3sol6detail8demangleIPKN11MWMechanics9AiPackageEEERKNSt7__cxx1112basic_stringIcSt11char_traitsIcESaIcEEEvE1dB5cxx11
openmw:_ZGVZN3sol6detail8demangleIPKN3ESM10IngredientEEERKNSt7__cxx1112basic_stringIcSt11char_traitsIcESaIcEEEvE1dB5cxx11
openmw:_ZGVZN3sol6detail8demangleIPKN3ESM13MiscellaneousEEERKNSt7__cxx1112basic_stringIcSt11char_traitsIcESaIcEEEvE1dB5cxx11
openmw:_ZGVZN3sol6detail8demangleIPKN3ESM3NPCEEERKNSt7__cxx1112basic_stringIcSt11char_traitsIcESaIcEEEvE1dB5cxx11
openmw:_ZGVZN3sol6detail8demangleIPKN3ESM4BookEEERKNSt7__cxx1112basic_stringIcSt11char_traitsIcESaIcEEEvE1dB5cxx11
openmw:_ZGVZN3sol6detail8demangleIPKN3ESM4DoorEEERKNSt7__cxx1112basic_stringIcSt11char_traitsIcESaIcEEEvE1dB5cxx11
openmw:_ZGVZN3sol6detail8demangleIPKN3ESM5ProbeEEERKNSt7__cxx1112basic_stringIcSt11char_traitsIcESaIcEEEvE1dB5cxx11
openmw:_ZGVZN3sol6detail8demangleIPKN3ESM6PotionEEERKNSt7__cxx1112basic_stringIcSt11char_traitsIcESaIcEEEvE1dB5cxx11
openmw:_ZGVZN3sol6detail8demangleIPKN3ESM6RepairEEERKNSt7__cxx1112basic_stringIcSt11char_traitsIcESaIcEEEvE1dB5cxx11
openmw:_ZGVZN3sol6detail8demangleIPKN3ESM6WeaponEEERKNSt7__cxx1112basic_stringIcSt11char_traitsIcESaIcEEEvE1dB5cxx11
openmw:_ZGVZN3sol6detail8demangleIPKN3ESM8CreatureEEERKNSt7__cxx1112basic_stringIcSt11char_traitsIcESaIcEEEvE1dB5cxx11
openmw:_ZGVZN3sol6detail8demangleIPKN3ESM8LockpickEEERKNSt7__cxx1112basic_stringIcSt11char_traitsIcESaIcEEEvE1dB5cxx11
openmw:_ZGVZN3sol6detail8demangleIPKN3ESM9ActivatorEEERKNSt7__cxx1112basic_stringIcSt11char_traitsIcESaIcEEEvE1dB5cxx11
openmw:_ZGVZN3sol6detail8demangleIPKN3ESM9ApparatusEEERKNSt7__cxx1112basic_stringIcSt11char_traitsIcESaIcEEEvE1dB5cxx11
openmw:_ZGVZN3sol6detail8demangleIPKN3ESM9ContainerEEERKNSt7__cxx1112basic_stringIcSt11char_traitsIcESaIcEEEvE1dB5cxx11
openmw:_ZGVZN3sol6detail8demangleIPKN3osg5Vec2fEEERKNSt7__cxx1112basic_stringIcSt11char_traitsIcESaIcEEEvE1dB5cxx11
openmw:_ZGVZN3sol6detail8demangleIPKN3osg5Vec3fEEERKNSt7__cxx1112basic_stringIcSt11char_traitsIcESaIcEEEvE1dB5cxx11
openmw:_ZGVZN3sol6detail8demangleIPKN3osg5Vec4fEEERKNSt7__cxx1112basic_stringIcSt11char_traitsIcESaIcEEEvE1dB5cxx11
openmw:_ZGVZN3sol6detail8demangleIPKN4Misc5ColorEEERKNSt7__cxx1112basic_stringIcSt11char_traitsIcESaIcEEEvE1dB5cxx11
openmw:_ZGVZN3sol6detail8demangleIPKN5LuaUi5LayerEEERKNSt7__cxx1112basic_stringIcSt11char_traitsIcESaIcEEEvE1dB5cxx11
openmw:_ZGVZN3sol6detail8demangleIPKN5LuaUi7ElementEEERKNSt7__cxx1112basic_stringIcSt11char_traitsIcESaIcEEEvE1dB5cxx11
openmw:_ZGVZN3sol6detail8demangleIPKN5MWLua10ObjectListINS2_7GObjectEEEEERKNSt7__cxx1112basic_stringIcSt11char_traitsIcESaIcEEEvE1dB5cxx11
openmw:_ZGVZN3sol6detail8demangleIPKN5MWLua10ObjectListINS2_7LObjectEEEEERKNSt7__cxx1112basic_stringIcSt11char_traitsIcESaIcEEEvE1dB5cxx11
openmw:_ZGVZN3sol6detail8demangleIPKN5MWLua11DynamicStatEEERKNSt7__cxx1112basic_stringIcSt11char_traitsIcESaIcEEEvE1dB5cxx11
openmw:_ZGVZN3sol6detail8demangleIPKN5MWLua12LocalScripts10SelfObjectEEERKNSt7__cxx1112basic_stringIcSt11char_traitsIcESaIcEEEvE1dB5cxx11
openmw:_ZGVZN3sol6detail8demangleIPKN5MWLua13AttributeStatEEERKNSt7__cxx1112basic_stringIcSt11char_traitsIcESaIcEEEvE1dB5cxx11
openmw:_ZGVZN3sol6detail8demangleIPKN5MWLua5GCellEEERKNSt7__cxx1112basic_stringIcSt11char_traitsIcESaIcEEEvE1dB5cxx11
openmw:_ZGVZN3sol6detail8demangleIPKN5MWLua5LCellEEERKNSt7__cxx1112basic_stringIcSt11char_traitsIcESaIcEEEvE1dB5cxx11
openmw:_ZGVZN3sol6detail8demangleIPKN5MWLua6ShaderEEERKNSt7__cxx1112basic_stringIcSt11char_traitsIcESaIcEEEvE1dB5cxx11
openmw:_ZGVZN3sol6detail8demangleIPKN5MWLua7GObjectEEERKNSt7__cxx1112basic_stringIcSt11char_traitsIcESaIcEEEvE1dB5cxx11
openmw:_ZGVZN3sol6detail8demangleIPKN5MWLua7LObjectEEERKNSt7__cxx1112basic_stringIcSt11char_traitsIcESaIcEEEvE1dB5cxx11
openmw:_ZGVZN3sol6detail8demangleIPKN5MWLua9InventoryINS2_7GObjectEEEEERKNSt7__cxx1112basic_stringIcSt11char_traitsIcESaIcEEEvE1dB5cxx11
openmw:_ZGVZN3sol6detail8demangleIPKN5MWLua9InventoryINS2_7LObjectEEEEERKNSt7__cxx1112basic_stringIcSt11char_traitsIcESaIcEEEvE1dB5cxx11
openmw:_ZGVZN3sol6detail8demangleIPKN5MWLua9LevelStatEEERKNSt7__cxx1112basic_stringIcSt11char_traitsIcESaIcEEEvE1dB5cxx11
openmw:_ZGVZN3sol6detail8demangleIPKN5MWLua9SkillStatEEERKNSt7__cxx1112basic_stringIcSt11char_traitsIcESaIcEEEvE1dB5cxx11
openmw:_ZGVZN3sol6detail8demangleIPKN6MWBase10LuaManager13ActorControlsEEERKNSt7__cxx1112basic_stringIcSt11char_traitsIcESaIcEEEvE1dB5cxx11
openmw:_ZGVZN3sol6detail8demangleIPKN7LuaUtil10LuaStorage11SectionViewEEERKNSt7__cxx1112basic_stringIcSt11char_traitsIcESaIcEEEvE1dB5cxx11
openmw:_ZGVZN3sol6detail8demangleIPKN7LuaUtil10TransformMEEERKNSt7__cxx1112basic_stringIcSt11char_traitsIcESaIcEEEvE1dB5cxx11
openmw:_ZGVZN3sol6detail8demangleIPKN7LuaUtil10TransformQEEERKNSt7__cxx1112basic_stringIcSt11char_traitsIcESaIcEEEvE1dB5cxx11
openmw:_ZGVZN3sol6detail8demangleIPKN7LuaUtil11L10nManager7ContextEEERKNSt7__cxx1112basic_stringIcSt11char_traitsIcESaIcEEEvE1dB5cxx11
openmw:_ZGVZN3sol6detail8demangleIPKN7LuaUtil14AsyncPackageIdEEERKNSt7__cxx1112basic_stringIcSt11char_traitsIcESaIcEEEvE1dB5cxx11
openmw:_ZGVZN3sol6detail8demangleIPKN7SDLUtil10TouchEventEEERKNSt7__cxx1112basic_stringIcSt11char_traitsIcESaIcEEEvE1dB5cxx11
openmw:_ZGVZN3sol6detail8demangleIPKN9MWPhysics16RayCastingResultEEERKNSt7__cxx1112basic_stringIcSt11char_traitsIcESaIcEEEvE1dB5cxx11
openmw:_ZGVZN3sol6detail8demangleIPKcEERKNSt7__cxx1112basic_stringIcSt11char_traitsIcESaIcEEEvE1dB5cxx11
openmw:_ZGVZN3sol6detail8demangleIPN11MWMechanics9AiPackageEEERKNSt7__cxx1112basic_stringIcSt11char_traitsIcESaIcEEEvE1dB5cxx11
openmw:_ZGVZN3sol6detail8demangleIPN3ESM10IngredientEEERKNSt7__cxx1112basic_stringIcSt11char_traitsIcESaIcEEEvE1dB5cxx11
openmw:_ZGVZN3sol6detail8demangleIPN3ESM13MiscellaneousEEERKNSt7__cxx1112basic_stringIcSt11char_traitsIcESaIcEEEvE1dB5cxx11
openmw:_ZGVZN3sol6detail8demangleIPN3ESM3NPCEEERKNSt7__cxx1112basic_stringIcSt11char_traitsIcESaIcEEEvE1dB5cxx11
openmw:_ZGVZN3sol6detail8demangleIPN3ESM4BookEEERKNSt7__cxx1112basic_stringIcSt11char_traitsIcESaIcEEEvE1dB5cxx11
openmw:_ZGVZN3sol6detail8demangleIPN3ESM4DoorEEERKNSt7__cxx1112basic_stringIcSt11char_traitsIcESaIcEEEvE1dB5cxx11
openmw:_ZGVZN3sol6detail8demangleIPN3ESM5ProbeEEERKNSt7__cxx1112basic_stringIcSt11char_traitsIcESaIcEEEvE1dB5cxx11
openmw:_ZGVZN3sol6detail8demangleIPN3ESM6PotionEEERKNSt7__cxx1112basic_stringIcSt11char_traitsIcESaIcEEEvE1dB5cxx11
openmw:_ZGVZN3sol6detail8demangleIPN3ESM6RefNumEEERKNSt7__cxx1112basic_stringIcSt11char_traitsIcESaIcEEEvE1dB5cxx11
openmw:_ZGVZN3sol6detail8demangleIPN3ESM6RepairEEERKNSt7__cxx1112basic_stringIcSt11char_traitsIcESaIcEEEvE1dB5cxx11
openmw:_ZGVZN3sol6detail8demangleIPN3ESM6WeaponEEERKNSt7__cxx1112basic_stringIcSt11char_traitsIcESaIcEEEvE1dB5cxx11
openmw:_ZGVZN3sol6detail8demangleIPN3ESM8CreatureEEERKNSt7__cxx1112basic_stringIcSt11char_traitsIcESaIcEEEvE1dB5cxx11
openmw:_ZGVZN3sol6detail8demangleIPN3ESM8LockpickEEERKNSt7__cxx1112basic_stringIcSt11char_traitsIcESaIcEEEvE1dB5cxx11
openmw:_ZGVZN3sol6detail8demangleIPN3ESM9ActivatorEEERKNSt7__cxx1112basic_stringIcSt11char_traitsIcESaIcEEEvE1dB5cxx11
openmw:_ZGVZN3sol6detail8demangleIPN3ESM9ApparatusEEERKNSt7__cxx1112basic_stringIcSt11char_traitsIcESaIcEEEvE1dB5cxx11
openmw:_ZGVZN3sol6detail8demangleIPN3ESM9ContainerEEERKNSt7__cxx1112basic_stringIcSt11char_traitsIcESaIcEEEvE1dB5cxx11
openmw:_ZGVZN3sol6detail8demangleIPN3osg5Vec2fEEERKNSt7__cxx1112basic_stringIcSt11char_traitsIcESaIcEEEvE1dB5cxx11
openmw:_ZGVZN3sol6detail8demangleIPN3osg5Vec3fEEERKNSt7__cxx1112basic_stringIcSt11char_traitsIcESaIcEEEvE1dB5cxx11
openmw:_ZGVZN3sol6detail8demangleIPN3osg5Vec4fEEERKNSt7__cxx1112basic_stringIcSt11char_traitsIcESaIcEEEvE1dB5cxx11
openmw:_ZGVZN3sol6detail8demangleIPN4Misc5ColorEEERKNSt7__cxx1112basic_stringIcSt11char_traitsIcESaIcEEEvE1dB5cxx11
openmw:_ZGVZN3sol6detail8demangleIPN5LuaUi11TextureDataEEERKNSt7__cxx1112basic_stringIcSt11char_traitsIcESaIcEEEvE1dB5cxx11
openmw:_ZGVZN3sol6detail8demangleIPN5LuaUi5LayerEEERKNSt7__cxx1112basic_stringIcSt11char_traitsIcESaIcEEEvE1dB5cxx11
openmw:_ZGVZN3sol6detail8demangleIPN5LuaUi7ElementEEERKNSt7__cxx1112basic_stringIcSt11char_traitsIcESaIcEEEvE1dB5cxx11
openmw:_ZGVZN3sol6detail8demangleIPN5MWLua10ObjectListINS2_7GObjectEEEEERKNSt7__cxx1112basic_stringIcSt11char_traitsIcESaIcEEEvE1dB5cxx11
openmw:_ZGVZN3sol6detail8demangleIPN5MWLua10ObjectListINS2_7LObjectEEEEERKNSt7__cxx1112basic_stringIcSt11char_traitsIcESaIcEEEvE1dB5cxx11
openmw:_ZGVZN3sol6detail8demangleIPN5MWLua11DynamicStatEEERKNSt7__cxx1112basic_stringIcSt11char_traitsIcESaIcEEEvE1dB5cxx11
openmw:_ZGVZN3sol6detail8demangleIPN5MWLua12LocalScripts10SelfObjectEEERKNSt7__cxx1112basic_stringIcSt11char_traitsIcESaIcEEEvE1dB5cxx11
openmw:_ZGVZN3sol6detail8demangleIPN5MWLua13AttributeStatEEERKNSt7__cxx1112basic_stringIcSt11char_traitsIcESaIcEEEvE1dB5cxx11
openmw:_ZGVZN3sol6detail8demangleIPN5MWLua5GCellEEERKNSt7__cxx1112basic_stringIcSt11char_traitsIcESaIcEEEvE1dB5cxx11
openmw:_ZGVZN3sol6detail8demangleIPN5MWLua5LCellEEERKNSt7__cxx1112basic_stringIcSt11char_traitsIcESaIcEEEvE1dB5cxx11
openmw:_ZGVZN3sol6detail8demangleIPN5MWLua6ObjectEEERKNSt7__cxx1112basic_stringIcSt11char_traitsIcESaIcEEEvE1dB5cxx11
openmw:_ZGVZN3sol6detail8demangleIPN5MWLua6ShaderEEERKNSt7__cxx1112basic_stringIcSt11char_traitsIcESaIcEEEvE1dB5cxx11
openmw:_ZGVZN3sol6detail8demangleIPN5MWLua7GObjectEEERKNSt7__cxx1112basic_stringIcSt11char_traitsIcESaIcEEEvE1dB5cxx11
openmw:_ZGVZN3sol6detail8demangleIPN5MWLua7LObjectEEERKNSt7__cxx1112basic_stringIcSt11char_traitsIcESaIcEEEvE1dB5cxx11
openmw:_ZGVZN3sol6detail8demangleIPN5MWLua9InventoryINS2_7GObjectEEEEERKNSt7__cxx1112basic_stringIcSt11char_traitsIcESaIcEEEvE1dB5cxx11
openmw:_ZGVZN3sol6detail8demangleIPN5MWLua9InventoryINS2_7LObjectEEEEERKNSt7__cxx1112basic_stringIcSt11char_traitsIcESaIcEEEvE1dB5cxx11
openmw:_ZGVZN3sol6detail8demangleIPN5MWLua9LevelStatEEERKNSt7__cxx1112basic_stringIcSt11char_traitsIcESaIcEEEvE1dB5cxx11
openmw:_ZGVZN3sol6detail8demangleIPN5MWLua9SkillStatEEERKNSt7__cxx1112basic_stringIcSt11char_traitsIcESaIcEEEvE1dB5cxx11
openmw:_ZGVZN3sol6detail8demangleIPN6MWBase10LuaManager13ActorControlsEEERKNSt7__cxx1112basic_stringIcSt11char_traitsIcESaIcEEEvE1dB5cxx11
openmw:_ZGVZN3sol6detail8demangleIPN7LuaUtil10LuaStorage11SectionViewEEERKNSt7__cxx1112basic_stringIcSt11char_traitsIcESaIcEEEvE1dB5cxx11
openmw:_ZGVZN3sol6detail8demangleIPN7LuaUtil10TransformMEEERKNSt7__cxx1112basic_stringIcSt11char_traitsIcESaIcEEEvE1dB5cxx11
openmw:_ZGVZN3sol6detail8demangleIPN7LuaUtil10TransformQEEERKNSt7__cxx1112basic_stringIcSt11char_traitsIcESaIcEEEvE1dB5cxx11
openmw:_ZGVZN3sol6detail8demangleIPN7LuaUtil11L10nManager7ContextEEERKNSt7__cxx1112basic_stringIcSt11char_traitsIcESaIcEEEvE1dB5cxx11
openmw:_ZGVZN3sol6detail8demangleIPN7LuaUtil13TimerCallbackEEERKNSt7__cxx1112basic_stringIcSt11char_traitsIcESaIcEEEvE1dB5cxx11
openmw:_ZGVZN3sol6detail8demangleIPN7LuaUtil14AsyncPackageIdEEERKNSt7__cxx1112basic_stringIcSt11char_traitsIcESaIcEEEvE1dB5cxx11
openmw:_ZGVZN3sol6detail8demangleIPN7LuaUtil16ScriptsContainer8ScriptIdEEERKNSt7__cxx1112basic_stringIcSt11char_traitsIcESaIcEEEvE1dB5cxx11
openmw:_ZGVZN3sol6detail8demangleIPN7SDLUtil10TouchEventEEERKNSt7__cxx1112basic_stringIcSt11char_traitsIcESaIcEEEvE1dB5cxx11
openmw:_ZGVZN3sol6detail8demangleIPN9MWPhysics16RayCastingResultEEERKNSt7__cxx1112basic_stringIcSt11char_traitsIcESaIcEEEvE1dB5cxx11
openmw:_ZGVZN3sol6detail8demangleIPNS_9base_listIJEEEEERKNSt7__cxx1112basic_stringIcSt11char_traitsIcESaIcEEEvE1dB5cxx11
openmw:_ZGVZN3sol6detail8demangleIPNS_9base_listIJN5MWLua6ObjectEEEEEERKNSt7__cxx1112basic_stringIcSt11char_traitsIcESaIcEEEvE1dB5cxx11
openmw:_ZGVZN3sol6detail8demangleIPNS_9base_listIJN5MWLua7LObjectENS3_6ObjectEEEEEERKNSt7__cxx1112basic_stringIcSt11char_traitsIcESaIcEEEvE1dB5cxx11
openmw:_ZGVZN3sol6detail8demangleIPSt6vectorIN3osg5Vec3fESaIS4_EEEERKNSt7__cxx1112basic_stringIcSt11char_traitsIcESaIcEEEvE1dB5cxx11
openmw:_ZGVZN3sol6detail8demangleIPZN5MWLua14getArraySetterIN3osg5Vec2fEEEDaRKNS2_7ContextEEUlRKNS2_6ShaderERKNSt7__cxx1112basic_stringIcSt11char_traitsIcESaIcEEERKNS_16basic_table_coreILb0ENS_15basic_referenceILb0EEEEEE_EESJ_vE1dB5cxx11
openmw:_ZGVZN3sol6detail8demangleIPZN5MWLua14getArraySetterIN3osg5Vec3fEEEDaRKNS2_7ContextEEUlRKNS2_6ShaderERKNSt7__cxx1112basic_stringIcSt11char_traitsIcESaIcEEERKNS_16basic_table_coreILb0ENS_15basic_referenceILb0EEEEEE_EESJ_vE1dB5cxx11
openmw:_ZGVZN3sol6detail8demangleIPZN5MWLua14getArraySetterIN3osg5Vec4fEEEDaRKNS2_7ContextEEUlRKNS2_6ShaderERKNSt7__cxx1112basic_stringIcSt11char_traitsIcESaIcEEERKNS_16basic_table_coreILb0ENS_15basic_referenceILb0EEEEEE_EESJ_vE1dB5cxx11
openmw:_ZGVZN3sol6detail8demangleIPZN5MWLua14getArraySetterIfEEDaRKNS2_7ContextEEUlRKNS2_6ShaderERKNSt7__cxx1112basic_stringIcSt11char_traitsIcESaIcEEERKNS_16basic_table_coreILb0ENS_15basic_referenceILb0EEEEEE_EESH_vE1dB5cxx11
openmw:_ZGVZN3sol6detail8demangleIPZN5MWLua14getArraySetterIiEEDaRKNS2_7ContextEEUlRKNS2_6ShaderERKNSt7__cxx1112basic_stringIcSt11char_traitsIcESaIcEEERKNS_16basic_table_coreILb0ENS_15basic_referenceILb0EEEEEE_EESH_vE1dB5cxx11
openmw:_ZGVZN3sol6detail8demangleIPZN5MWLua9getSetterIN3osg5Vec2fEEEDaRKNS2_7ContextEEUlRKNS2_6ShaderERKNSt7__cxx1112basic_stringIcSt11char_traitsIcESaIcEEERKS5_E_EESJ_vE1dB5cxx11
openmw:_ZGVZN3sol6detail8demangleIPZN5MWLua9getSetterIN3osg5Vec3fEEEDaRKNS2_7ContextEEUlRKNS2_6ShaderERKNSt7__cxx1112basic_stringIcSt11char_traitsIcESaIcEEERKS5_E_EESJ_vE1dB5cxx11
openmw:_ZGVZN3sol6detail8demangleIPZN5MWLua9getSetterIN3osg5Vec4fEEEDaRKNS2_7ContextEEUlRKNS2_6ShaderERKNSt7__cxx1112basic_stringIcSt11char_traitsIcESaIcEEERKS5_E_EESJ_vE1dB5cxx11
openmw:_ZGVZN3sol6detail8demangleIPZN5MWLua9getSetterIbEEDaRKNS2_7ContextEEUlRKNS2_6ShaderERKNSt7__cxx1112basic_stringIcSt11char_traitsIcESaIcEEERKbE_EESH_vE1dB5cxx11
openmw:_ZGVZN3sol6detail8demangleIPZN5MWLua9getSetterIfEEDaRKNS2_7ContextEEUlRKNS2_6ShaderERKNSt7__cxx1112basic_stringIcSt11char_traitsIcESaIcEEERKfE_EESH_vE1dB5cxx11
openmw:_ZGVZN3sol6detail8demangleIPZN5MWLua9getSetterIiEEDaRKNS2_7ContextEEUlRKNS2_6ShaderERKNSt7__cxx1112basic_stringIcSt11char_traitsIcESaIcEEERKiE_EESH_vE1dB5cxx11
openmw:_ZGVZN3sol6detail8demangleIPbEERKNSt7__cxx1112basic_stringIcSt11char_traitsIcESaIcEEEvE1dB5cxx11
openmw:_ZGVZN3sol6detail8demangleIRK10SDL_KeysymEERKNSt7__cxx1112basic_stringIcSt11char_traitsIcESaIcEEEvE1dB5cxx11
openmw:_ZGVZN3sol6detail8demangleIRKN11MWMechanics9AiPackageEEERKNSt7__cxx1112basic_stringIcSt11char_traitsIcESaIcEEEvE1dB5cxx11
openmw:_ZGVZN3sol6detail8demangleIRKN3ESM10IngredientEEERKNSt7__cxx1112basic_stringIcSt11char_traitsIcESaIcEEEvE1dB5cxx11
openmw:_ZGVZN3sol6detail8demangleIRKN3ESM13MiscellaneousEEERKNSt7__cxx1112basic_stringIcSt11char_traitsIcESaIcEEEvE1dB5cxx11
openmw:_ZGVZN3sol6detail8demangleIRKN3ESM3NPCEEERKNSt7__cxx1112basic_stringIcSt11char_traitsIcESaIcEEEvE1dB5cxx11
openmw:_ZGVZN3sol6detail8demangleIRKN3ESM4BookEEERKNSt7__cxx1112basic_stringIcSt11char_traitsIcESaIcEEEvE1dB5cxx11
openmw:_ZGVZN3sol6detail8demangleIRKN3ESM4DoorEEERKNSt7__cxx1112basic_stringIcSt11char_traitsIcESaIcEEEvE1dB5cxx11
openmw:_ZGVZN3sol6detail8demangleIRKN3ESM5ProbeEEERKNSt7__cxx1112basic_stringIcSt11char_traitsIcESaIcEEEvE1dB5cxx11
openmw:_ZGVZN3sol6detail8demangleIRKN3ESM6PotionEEERKNSt7__cxx1112basic_stringIcSt11char_traitsIcESaIcEEEvE1dB5cxx11
openmw:_ZGVZN3sol6detail8demangleIRKN3ESM6RepairEEERKNSt7__cxx1112basic_stringIcSt11char_traitsIcESaIcEEEvE1dB5cxx11
openmw:_ZGVZN3sol6detail8demangleIRKN3ESM6WeaponEEERKNSt7__cxx1112basic_stringIcSt11char_traitsIcESaIcEEEvE1dB5cxx11
openmw:_ZGVZN3sol6detail8demangleIRKN3ESM8CreatureEEERKNSt7__cxx1112basic_stringIcSt11char_traitsIcESaIcEEEvE1dB5cxx11
openmw:_ZGVZN3sol6detail8demangleIRKN3ESM8LockpickEEERKNSt7__cxx1112basic_stringIcSt11char_traitsIcESaIcEEEvE1dB5cxx11
openmw:_ZGVZN3sol6detail8demangleIRKN3ESM9ActivatorEEERKNSt7__cxx1112basic_stringIcSt11char_traitsIcESaIcEEEvE1dB5cxx11
openmw:_ZGVZN3sol6detail8demangleIRKN3ESM9ApparatusEEERKNSt7__cxx1112basic_stringIcSt11char_traitsIcESaIcEEEvE1dB5cxx11
openmw:_ZGVZN3sol6detail8demangleIRKN3ESM9ContainerEEERKNSt7__cxx1112basic_stringIcSt11char_traitsIcESaIcEEEvE1dB5cxx11
openmw:_ZGVZN3sol6detail8demangleIRKN3osg5Vec2fEEERKNSt7__cxx1112basic_stringIcSt11char_traitsIcESaIcEEEvE1dB5cxx11
openmw:_ZGVZN3sol6detail8demangleIRKN3osg5Vec3fEEERKNSt7__cxx1112basic_stringIcSt11char_traitsIcESaIcEEEvE1dB5cxx11
openmw:_ZGVZN3sol6detail8demangleIRKN3osg5Vec4fEEERKNSt7__cxx1112basic_stringIcSt11char_traitsIcESaIcEEEvE1dB5cxx11
openmw:_ZGVZN3sol6detail8demangleIRKN4Misc5ColorEEERKNSt7__cxx1112basic_stringIcSt11char_traitsIcESaIcEEEvE1dB5cxx11
openmw:_ZGVZN3sol6detail8demangleIRKN5MWLua10ObjectListINS2_7GObjectEEEEERKNSt7__cxx1112basic_stringIcSt11char_traitsIcESaIcEEEvE1dB5cxx11
openmw:_ZGVZN3sol6detail8demangleIRKN5MWLua10ObjectListINS2_7LObjectEEEEERKNSt7__cxx1112basic_stringIcSt11char_traitsIcESaIcEEEvE1dB5cxx11
openmw:_ZGVZN3sol6detail8demangleIRKN5MWLua11DynamicStatEEERKNSt7__cxx1112basic_stringIcSt11char_traitsIcESaIcEEEvE1dB5cxx11
openmw:_ZGVZN3sol6detail8demangleIRKN5MWLua12LocalScripts10SelfObjectEEERKNSt7__cxx1112basic_stringIcSt11char_traitsIcESaIcEEEvE1dB5cxx11
openmw:_ZGVZN3sol6detail8demangleIRKN5MWLua13AttributeStatEEERKNSt7__cxx1112basic_stringIcSt11char_traitsIcESaIcEEEvE1dB5cxx11
openmw:_ZGVZN3sol6detail8demangleIRKN5MWLua5GCellEEERKNSt7__cxx1112basic_stringIcSt11char_traitsIcESaIcEEEvE1dB5cxx11
openmw:_ZGVZN3sol6detail8demangleIRKN5MWLua5LCellEEERKNSt7__cxx1112basic_stringIcSt11char_traitsIcESaIcEEEvE1dB5cxx11
openmw:_ZGVZN3sol6detail8demangleIRKN5MWLua6ObjectEEERKNSt7__cxx1112basic_stringIcSt11char_traitsIcESaIcEEEvE1dB5cxx11
openmw:_ZGVZN3sol6detail8demangleIRKN5MWLua6ShaderEEERKNSt7__cxx1112basic_stringIcSt11char_traitsIcESaIcEEEvE1dB5cxx11
openmw:_ZGVZN3sol6detail8demangleIRKN5MWLua7GObjectEEERKNSt7__cxx1112basic_stringIcSt11char_traitsIcESaIcEEEvE1dB5cxx11
openmw:_ZGVZN3sol6detail8demangleIRKN5MWLua7LObjectEEERKNSt7__cxx1112basic_stringIcSt11char_traitsIcESaIcEEEvE1dB5cxx11
openmw:_ZGVZN3sol6detail8demangleIRKN5MWLua9InventoryINS2_7GObjectEEEEERKNSt7__cxx1112basic_stringIcSt11char_traitsIcESaIcEEEvE1dB5cxx11
openmw:_ZGVZN3sol6detail8demangleIRKN5MWLua9InventoryINS2_7LObjectEEEEERKNSt7__cxx1112basic_stringIcSt11char_traitsIcESaIcEEEvE1dB5cxx11
openmw:_ZGVZN3sol6detail8demangleIRKN5MWLua9LevelStatEEERKNSt7__cxx1112basic_stringIcSt11char_traitsIcESaIcEEEvE1dB5cxx11
openmw:_ZGVZN3sol6detail8demangleIRKN5MWLua9SkillStatEEERKNSt7__cxx1112basic_stringIcSt11char_traitsIcESaIcEEEvE1dB5cxx11
openmw:_ZGVZN3sol6detail8demangleIRKN6MWBase10LuaManager13ActorControlsEEERKNSt7__cxx1112basic_stringIcSt11char_traitsIcESaIcEEEvE1dB5cxx11
openmw:_ZGVZN3sol6detail8demangleIRKN7LuaUtil10LuaStorage11SectionViewEEERKNSt7__cxx1112basic_stringIcSt11char_traitsIcESaIcEEEvE1dB5cxx11
openmw:_ZGVZN3sol6detail8demangleIRKN7LuaUtil10TransformMEEERKNSt7__cxx1112basic_stringIcSt11char_traitsIcESaIcEEEvE1dB5cxx11
openmw:_ZGVZN3sol6detail8demangleIRKN7LuaUtil10TransformQEEERKNSt7__cxx1112basic_stringIcSt11char_traitsIcESaIcEEEvE1dB5cxx11
openmw:_ZGVZN3sol6detail8demangleIRKN7LuaUtil13TimerCallbackEEERKNSt7__cxx1112basic_stringIcSt11char_traitsIcESaIcEEEvE1dB5cxx11
openmw:_ZGVZN3sol6detail8demangleIRKN7LuaUtil14AsyncPackageIdEEERKNSt7__cxx1112basic_stringIcSt11char_traitsIcESaIcEEEvE1dB5cxx11
openmw:_ZGVZN3sol6detail8demangleIRKN7SDLUtil10TouchEventEEERKNSt7__cxx1112basic_stringIcSt11char_traitsIcESaIcEEEvE1dB5cxx11
openmw:_ZGVZN3sol6detail8demangleIRKN9MWPhysics16RayCastingResultEEERKNSt7__cxx1112basic_stringIcSt11char_traitsIcESaIcEEEvE1dB5cxx11
openmw:_ZGVZN3sol6detail8demangleIRKNS_12basic_objectINS_15basic_referenceILb0EEEEEEERKNSt7__cxx1112basic_stringIcSt11char_traitsIcESaIcEEEvE1dB5cxx11
openmw:_ZGVZN3sol6detail8demangleIRKNS_14basic_functionINS_15basic_referenceILb0EEELb0EEEEERKNSt7__cxx1112basic_stringIcSt11char_traitsIcESaIcEEEvE1dB5cxx11
openmw:_ZGVZN3sol6detail8demangleIRKNS_16basic_table_coreILb0ENS_15basic_referenceILb0EEEEEEERKNSt7__cxx1112basic_stringIcSt11char_traitsIcESaIcEEEvE1dB5cxx11
openmw:_ZGVZN3sol6detail8demangleIRKNS_17basic_environmentINS_15basic_referenceILb0EEEEEEERKNSt7__cxx1112basic_stringIcSt11char_traitsIcESaIcEEEvE1dB5cxx11
openmw:_ZGVZN3sol6detail8demangleIRKNS_8optionalIN3osg5Vec3fEEEEERKNSt7__cxx1112basic_stringIcSt11char_traitsIcESaIcEEEvE1dB5cxx11
openmw:_ZGVZN3sol6detail8demangleIRKNS_8optionalINS_16basic_table_coreILb0ENS_15basic_referenceILb0EEEEEEEEERKNSt7__cxx1112basic_stringIcSt11char_traitsIcESaIcEEEvE1dB5cxx11
openmw:_ZGVZN3sol6detail8demangleIRKNSt7__cxx1112basic_stringIcSt11char_traitsIcESaIcEEEEES9_vE1dB5cxx11
openmw:_ZGVZN3sol6detail8demangleIRKSt10shared_ptrIN5LuaUi7ElementEEEERKNSt7__cxx1112basic_stringIcSt11char_traitsIcESaIcEEEvE1dB5cxx11
openmw:_ZGVZN3sol6detail8demangleIRKbEERKNSt7__cxx1112basic_stringIcSt11char_traitsIcESaIcEEEvE1dB5cxx11
openmw:_ZGVZN3sol6detail8demangleIRKfEERKNSt7__cxx1112basic_stringIcSt11char_traitsIcESaIcEEEvE1dB5cxx11
openmw:_ZGVZN3sol6detail8demangleIRKiEERKNSt7__cxx1112basic_stringIcSt11char_traitsIcESaIcEEEvE1dB5cxx11
openmw:_ZGVZN3sol6detail8demangleIRN5LuaUi5LayerEEERKNSt7__cxx1112basic_stringIcSt11char_traitsIcESaIcEEEvE1dB5cxx11
openmw:_ZGVZN3sol6detail8demangleIRN5LuaUi7ElementEEERKNSt7__cxx1112basic_stringIcSt11char_traitsIcESaIcEEEvE1dB5cxx11
openmw:_ZGVZN3sol6detail8demangleIRN5MWLua12LocalScripts10SelfObjectEEERKNSt7__cxx1112basic_stringIcSt11char_traitsIcESaIcEEEvE1dB5cxx11
openmw:_ZGVZN3sol6detail8demangleIRN5MWLua6ShaderEEERKNSt7__cxx1112basic_stringIcSt11char_traitsIcESaIcEEEvE1dB5cxx11
openmw:_ZGVZN3sol6detail8demangleIRN6MWBase10LuaManager13ActorControlsEEERKNSt7__cxx1112basic_stringIcSt11char_traitsIcESaIcEEEvE1dB5cxx11
openmw:_ZGVZN3sol6detail8demangleISt10shared_ptrIN5LuaUi11TextureDataEEEERKNSt7__cxx1112basic_stringIcSt11char_traitsIcESaIcEEEvE1dB5cxx11
openmw:_ZGVZN3sol6detail8demangleISt10shared_ptrIN5LuaUi7ElementEEEERKNSt7__cxx1112basic_stringIcSt11char_traitsIcESaIcEEEvE1dB5cxx11
openmw:_ZGVZN3sol6detail8demangleISt10shared_ptrIvEEERKNSt7__cxx1112basic_stringIcSt11char_traitsIcESaIcEEEvE1dB5cxx11
openmw:_ZGVZN3sol6detail8demangleISt17basic_string_viewIcSt11char_traitsIcEEEERKNSt7__cxx1112basic_stringIcS4_SaIcEEEvE1dB5cxx11
openmw:_ZGVZN3sol6detail8demangleISt5tupleIJN15DetourNavigator6StatusESt6vectorIN3osg5Vec3fESaIS7_EEEEEERKNSt7__cxx1112basic_stringIcSt11char_traitsIcESaIcEEEvE1dB5cxx11
openmw:_ZGVZN3sol6detail8demangleISt5tupleIJN3osg5Vec2fEfEEEERKNSt7__cxx1112basic_stringIcSt11char_traitsIcESaIcEEEvE1dB5cxx11
openmw:_ZGVZN3sol6detail8demangleISt5tupleIJN3osg5Vec3fEfEEEERKNSt7__cxx1112basic_stringIcSt11char_traitsIcESaIcEEEvE1dB5cxx11
openmw:_ZGVZN3sol6detail8demangleISt5tupleIJN3osg5Vec4fEfEEEERKNSt7__cxx1112basic_stringIcSt11char_traitsIcESaIcEEEvE1dB5cxx11
openmw:_ZGVZN3sol6detail8demangleISt6vectorIN3osg5Vec3fESaIS4_EEEERKNSt7__cxx1112basic_stringIcSt11char_traitsIcESaIcEEEvE1dB5cxx11
openmw:_ZGVZN3sol6detail8demangleISt8optionalIN3osg5Vec3fEEEERKNSt7__cxx1112basic_stringIcSt11char_traitsIcESaIcEEEvE1dB5cxx11
openmw:_ZGVZN3sol6detail8demangleISt8optionalIN5MWLua11DynamicStatEEEERKNSt7__cxx1112basic_stringIcSt11char_traitsIcESaIcEEEvE1dB5cxx11
openmw:_ZGVZN3sol6detail8demangleISt8optionalIN5MWLua13AttributeStatEEEERKNSt7__cxx1112basic_stringIcSt11char_traitsIcESaIcEEEvE1dB5cxx11
openmw:_ZGVZN3sol6detail8demangleISt8optionalIN5MWLua9LevelStatEEEERKNSt7__cxx1112basic_stringIcSt11char_traitsIcESaIcEEEvE1dB5cxx11
openmw:_ZGVZN3sol6detail8demangleISt8optionalIN5MWLua9SkillStatEEEERKNSt7__cxx1112basic_stringIcSt11char_traitsIcESaIcEEEvE1dB5cxx11
openmw:_ZGVZN3sol6detail8demangleIZN5MWLua14getArraySetterIN3osg5Vec2fEEEDaRKNS2_7ContextEEUlRKNS2_6ShaderERKNSt7__cxx1112basic_stringIcSt11char_traitsIcESaIcEEERKNS_16basic_table_coreILb0ENS_15basic_referenceILb0EEEEEE_EESJ_vE1dB5cxx11
openmw:_ZGVZN3sol6detail8demangleIZN5MWLua14getArraySetterIN3osg5Vec3fEEEDaRKNS2_7ContextEEUlRKNS2_6ShaderERKNSt7__cxx1112basic_stringIcSt11char_traitsIcESaIcEEERKNS_16basic_table_coreILb0ENS_15basic_referenceILb0EEEEEE_EESJ_vE1dB5cxx11
openmw:_ZGVZN3sol6detail8demangleIZN5MWLua14getArraySetterIN3osg5Vec4fEEEDaRKNS2_7ContextEEUlRKNS2_6ShaderERKNSt7__cxx1112basic_stringIcSt11char_traitsIcESaIcEEERKNS_16basic_table_coreILb0ENS_15basic_referenceILb0EEEEEE_EESJ_vE1dB5cxx11
openmw:_ZGVZN3sol6detail8demangleIZN5MWLua14getArraySetterIfEEDaRKNS2_7ContextEEUlRKNS2_6ShaderERKNSt7__cxx1112basic_stringIcSt11char_traitsIcESaIcEEERKNS_16basic_table_coreILb0ENS_15basic_referenceILb0EEEEEE_EESH_vE1dB5cxx11
openmw:_ZGVZN3sol6detail8demangleIZN5MWLua14getArraySetterIiEEDaRKNS2_7ContextEEUlRKNS2_6ShaderERKNSt7__cxx1112basic_stringIcSt11char_traitsIcESaIcEEERKNS_16basic_table_coreILb0ENS_15basic_referenceILb0EEEEEE_EESH_vE1dB5cxx11
openmw:_ZGVZN3sol6detail8demangleIZN5MWLua9getSetterIN3osg5Vec2fEEEDaRKNS2_7ContextEEUlRKNS2_6ShaderERKNSt7__cxx1112basic_stringIcSt11char_traitsIcESaIcEEERKS5_E_EESJ_vE1dB5cxx11
openmw:_ZGVZN3sol6detail8demangleIZN5MWLua9getSetterIN3osg5Vec3fEEEDaRKNS2_7ContextEEUlRKNS2_6ShaderERKNSt7__cxx1112basic_stringIcSt11char_traitsIcESaIcEEERKS5_E_EESJ_vE1dB5cxx11
openmw:_ZGVZN3sol6detail8demangleIZN5MWLua9getSetterIN3osg5Vec4fEEEDaRKNS2_7ContextEEUlRKNS2_6ShaderERKNSt7__cxx1112basic_stringIcSt11char_traitsIcESaIcEEERKS5_E_EESJ_vE1dB5cxx11
openmw:_ZGVZN3sol6detail8demangleIZN5MWLua9getSetterIbEEDaRKNS2_7ContextEEUlRKNS2_6ShaderERKNSt7__cxx1112basic_stringIcSt11char_traitsIcESaIcEEERKbE_EESH_vE1dB5cxx11
openmw:_ZGVZN3sol6detail8demangleIZN5MWLua9getSetterIfEEDaRKNS2_7ContextEEUlRKNS2_6ShaderERKNSt7__cxx1112basic_stringIcSt11char_traitsIcESaIcEEERKfE_EESH_vE1dB5cxx11
openmw:_ZGVZN3sol6detail8demangleIZN5MWLua9getSetterIiEEDaRKNS2_7ContextEEUlRKNS2_6ShaderERKNSt7__cxx1112basic_stringIcSt11char_traitsIcESaIcEEERKiE_EESH_vE1dB5cxx11
openmw:_ZGVZN3sol6detail8demangleIbEERKNSt7__cxx1112basic_stringIcSt11char_traitsIcESaIcEEEvE1dB5cxx11
openmw:_ZGVZN3sol6detail8demangleIdEERKNSt7__cxx1112basic_stringIcSt11char_traitsIcESaIcEEEvE1dB5cxx11
openmw:_ZGVZN3sol6detail8demangleIfEERKNSt7__cxx1112basic_stringIcSt11char_traitsIcESaIcEEEvE1dB5cxx11
openmw:_ZGVZN3sol6detail8demangleIiEERKNSt7__cxx1112basic_stringIcSt11char_traitsIcESaIcEEEvE1dB5cxx11
openmw:_ZGVZN3sol6detail8demangleIjEERKNSt7__cxx1112basic_stringIcSt11char_traitsIcESaIcEEEvE1dB5cxx11
openmw:_ZGVZN3sol6detail8demangleImEERKNSt7__cxx1112basic_stringIcSt11char_traitsIcESaIcEEEvE1dB5cxx11
openmw:_ZGVZN3sol6detail8demangleIvEERKNSt7__cxx1112basic_stringIcSt11char_traitsIcESaIcEEEvE1dB5cxx11
openmw:_ZGVZN3sol9to_stringB5cxx11ENS_9load_modeEE5names
openmw:_ZGVZN5LuaUi10LuaAdapter16getClassTypeNameB5cxx11EvE4type
openmw:_ZGVZN5LuaUi11LuaTextEdit16getClassTypeNameB5cxx11EvE4type
openmw:_ZGVZN5LuaUi11LuaTileRect16getClassTypeNameB5cxx11EvE4type
openmw:_ZGVZN5LuaUi12LuaContainer16getClassTypeNameB5cxx11EvE4type
openmw:_ZGVZN5LuaUi7LuaFlex16getClassTypeNameB5cxx11EvE4type
openmw:_ZGVZN5LuaUi7LuaText16getClassTypeNameB5cxx11EvE4type
openmw:_ZGVZN5LuaUi8LuaImage16getClassTypeNameB5cxx11EvE4type
openmw:_ZGVZN5LuaUi9LuaWidget16getClassTypeNameB5cxx11EvE4type
openmw:_ZGVZN5LuaUi9LuaWindow16getClassTypeNameB5cxx11EvE4type
openmw:_ZGVZN5MWGui10ItemWidget16getClassTypeNameB5cxx11EvE4type
openmw:_ZGVZN5MWGui11Controllers21ControllerFollowMouse16getClassTypeNameB5cxx11EvE4type
openmw:_ZGVZN5MWGui11PageDisplay16getClassTypeNameB5cxx11EvE4type
openmw:_ZGVZN5MWGui11SpellWidget16getClassTypeNameB5cxx11EvE4type
openmw:_ZGVZN5MWGui11VideoWidget16getClassTypeNameB5cxx11EvE4type
openmw:_ZGVZN5MWGui12BookPageImpl16getClassTypeNameB5cxx11EvE4type
openmw:_ZGVZN5MWGui14ItemChargeView16getClassTypeNameB5cxx11EvE4type
openmw:_ZGVZN5MWGui15BackgroundImage16getClassTypeNameB5cxx11EvE4type
openmw:_ZGVZN5MWGui16PostProcessorHud11ListWrapper16getClassTypeNameB5cxx11EvE4type
openmw:_ZGVZN5MWGui21AutoSizedResourceSkin16getClassTypeNameB5cxx11EvE4type
openmw:_ZGVZN5MWGui26ResourceImageSetPointerFix16getClassTypeNameB5cxx11EvE4type
openmw:_ZGVZN5MWGui6Window16getClassTypeNameB5cxx11EvE4type
openmw:_ZGVZN5MWGui7Widgets11MWAttribute16getClassTypeNameB5cxx11EvE4type
openmw:_ZGVZN5MWGui7Widgets12MWEffectList16getClassTypeNameB5cxx11EvE4type
openmw:_ZGVZN5MWGui7Widgets13MWDynamicStat16getClassTypeNameB5cxx11EvE4type
openmw:_ZGVZN5MWGui7Widgets13MWSpellEffect16getClassTypeNameB5cxx11EvE4type
openmw:_ZGVZN5MWGui7Widgets7MWSkill16getClassTypeNameB5cxx11EvE4type
openmw:_ZGVZN5MWGui7Widgets7MWSpell16getClassTypeNameB5cxx11EvE4type
openmw:_ZGVZN5MWGui8BookPage16getClassTypeNameB5cxx11EvE4type
openmw:_ZGVZN5MWGui8ItemView16getClassTypeNameB5cxx11EvE4type
openmw:_ZGVZN5MWGui9GlyphInfoC4EPN5MyGUI5IFontEjE10fontHeight
openmw:_ZGVZN5MWGui9SpellView16getClassTypeNameB5cxx11EvE4type
openmw:_ZGVZN5MyGUI10ISubWidget16getClassTypeNameB5cxx11EvE4type
openmw:_ZGVZN5MyGUI10ScrollView16getClassTypeNameB5cxx11EvE4type
openmw:_ZGVZN5MyGUI10TabControl16getClassTypeNameB5cxx11EvE4type
openmw:_ZGVZN5MyGUI11ProgressBar16getClassTypeNameB5cxx11EvE4type
openmw:_ZGVZN5MyGUI12RotatingSkin16getClassTypeNameB5cxx11EvE4type
openmw:_ZGVZN5MyGUI14ControllerItem16getClassTypeNameB5cxx11EvE4type
openmw:_ZGVZN5MyGUI16ResourceImageSet16getClassTypeNameB5cxx11EvE4type
openmw:_ZGVZN5MyGUI21ControllerRepeatClick16getClassTypeNameB5cxx11EvE4type
openmw:_ZGVZN5MyGUI6Button16getClassTypeNameB5cxx11EvE4type
openmw:_ZGVZN5MyGUI6Widget16getClassTypeNameB5cxx11EvE4type
openmw:_ZGVZN5MyGUI6Window16getClassTypeNameB5cxx11EvE4type
openmw:_ZGVZN5MyGUI7EditBox16getClassTypeNameB5cxx11EvE4type
openmw:_ZGVZN5MyGUI7ListBox16getClassTypeNameB5cxx11EvE4type
openmw:_ZGVZN5MyGUI7TextBox16getClassTypeNameB5cxx11EvE4type
openmw:_ZGVZN5MyGUI8ComboBox16getClassTypeNameB5cxx11EvE4type
openmw:_ZGVZN5MyGUI8EditText16getClassTypeNameB5cxx11EvE4type
openmw:_ZGVZN5MyGUI8ImageBox16getClassTypeNameB5cxx11EvE4type
openmw:_ZGVZN5MyGUI9IResource16getClassTypeNameB5cxx11EvE4type
openmw:_ZGVZN5MyGUI9ScrollBar16getClassTypeNameB5cxx11EvE4type
openmw:_ZGVZN5boost15program_options10validators17get_single_stringIcEERKNSt7__cxx1112basic_stringIT_St11char_traitsIS5_ESaIS5_EEERKSt6vectorIS9_SaIS9_EEbE5emptyB5cxx11
openmw:_ZGVZN6NifOsg10LoaderImpl10handleNodeEPKN3Nif4NodeEPKNS1_6ParentEPN3osg5GroupEPN8Resource12ImageManagerESt6vectorIjSaIjEEibbbPN9SceneUtil10TextKeyMapEPNS8_4NodeEE10markerNameB5cxx11
openmw:_ZGVZN6NifOsg10LoaderImpl10handleNodeEPKN3Nif4NodeEPKNS1_6ParentEPN3osg5GroupEPN8Resource12ImageManagerESt6vectorIjSaIjEEibbbPN9SceneUtil10TextKeyMapEPNS8_4NodeEE10shadowNameB5cxx11
openmw:_ZGVZN6NifOsg10LoaderImpl10handleNodeEPKN3Nif4NodeEPKNS1_6ParentEPN3osg5GroupEPN8Resource12ImageManagerESt6vectorIjSaIjEEibbbPN9SceneUtil10TextKeyMapEPNS8_4NodeEE11shadowName2B5cxx11
openmw:_ZGVZN6NifOsg10LoaderImpl14shareAttributeIN3osg11PolygonModeEEEPT_RKNS2_7ref_ptrIS4_EEE6sCache
openmw:_ZGVZN6NifOsg10LoaderImpl14shareAttributeIN3osg5DepthEEEPT_RKNS2_7ref_ptrIS4_EEE6sCache
openmw:_ZGVZN6NifOsg10LoaderImpl14shareAttributeIN3osg7StencilEEEPT_RKNS2_7ref_ptrIS4_EEE6sCache
openmw:_ZGVZN6NifOsg10LoaderImpl14shareAttributeIN3osg8MaterialEEEPT_RKNS2_7ref_ptrIS4_EEE6sCache
openmw:_ZGVZN6NifOsg10LoaderImpl14shareAttributeIN3osg9AlphaFuncEEEPT_RKNS2_7ref_ptrIS4_EEE6sCache
openmw:_ZGVZN6NifOsg10LoaderImpl14shareAttributeIN3osg9BlendFuncEEEPT_RKNS2_7ref_ptrIS4_EEE6sCache
openmw:_ZGVZN6NifOsg10LoaderImpl14shareAttributeIN3osg9FrontFaceEEEPT_RKNS2_7ref_ptrIS4_EEE6sCache
openmw:_ZGVZN7MWWorld14WeatherManager10addWeatherERKNSt7__cxx1112basic_stringIcSt11char_traitsIcESaIcEEEffS8_E15fStromWindSpeed
openmw:_ZGVZN7MWWorld15RegisteredClassIN7MWClass10IngredientENS_5ClassEE12registerSelfEvE8instance
openmw:_ZGVZN7MWWorld15RegisteredClassIN7MWClass11ItemLevListENS_5ClassEE12registerSelfEvE8instance
openmw:_ZGVZN7MWWorld15RegisteredClassIN7MWClass13MiscellaneousENS_5ClassEE12registerSelfEvE8instance
openmw:_ZGVZN7MWWorld15RegisteredClassIN7MWClass15CreatureLevListENS_5ClassEE12registerSelfEvE8instance
openmw:_ZGVZN7MWWorld15RegisteredClassIN7MWClass3NpcENS1_5ActorEE12registerSelfEvE8instance
openmw:_ZGVZN7MWWorld15RegisteredClassIN7MWClass4BookENS_5ClassEE12registerSelfEvE8instance
openmw:_ZGVZN7MWWorld15RegisteredClassIN7MWClass4DoorENS_5ClassEE12registerSelfEvE8instance
openmw:_ZGVZN7MWWorld15RegisteredClassIN7MWClass5ArmorENS_5ClassEE12registerSelfEvE8instance
openmw:_ZGVZN7MWWorld15RegisteredClassIN7MWClass5LightENS_5ClassEE12registerSelfEvE8instance
openmw:_ZGVZN7MWWorld15RegisteredClassIN7MWClass5ProbeENS_5ClassEE12registerSelfEvE8instance
openmw:_ZGVZN7MWWorld15RegisteredClassIN7MWClass6PotionENS_5ClassEE12registerSelfEvE8instance
openmw:_ZGVZN7MWWorld15RegisteredClassIN7MWClass6RepairENS_5ClassEE12registerSelfEvE8instance
openmw:_ZGVZN7MWWorld15RegisteredClassIN7MWClass6StaticENS_5ClassEE12registerSelfEvE8instance
openmw:_ZGVZN7MWWorld15RegisteredClassIN7MWClass6WeaponENS_5ClassEE12registerSelfEvE8instance
openmw:_ZGVZN7MWWorld15RegisteredClassIN7MWClass8BodyPartENS_5ClassEE12registerSelfEvE8instance
openmw:_ZGVZN7MWWorld15RegisteredClassIN7MWClass8ClothingENS_5ClassEE12registerSelfEvE8instance
openmw:_ZGVZN7MWWorld15RegisteredClassIN7MWClass8CreatureENS1_5ActorEE12registerSelfEvE8instance
openmw:_ZGVZN7MWWorld15RegisteredClassIN7MWClass8LockpickENS_5ClassEE12registerSelfEvE8instance
openmw:_ZGVZN7MWWorld15RegisteredClassIN7MWClass9ActivatorENS_5ClassEE12registerSelfEvE8instance
openmw:_ZGVZN7MWWorld15RegisteredClassIN7MWClass9ApparatusENS_5ClassEE12registerSelfEvE8instance
openmw:_ZGVZN7MWWorld15RegisteredClassIN7MWClass9ContainerENS_5ClassEE12registerSelfEvE8instance
openmw:_ZGVZN8MWRender25SharedUniformStateUpdater5applyEPN3osg8StateSetEPNS1_11NodeVisitorEE21mSkyBlendingStartCoef
openmw:_ZGVZN8Settings13ShaderManager3getEvE8instance
openmw:_ZGVZN8osgMyGUI12ScalingLayer16getClassTypeNameB5cxx11EvE4type
openmw:_ZGVZN8osgMyGUI13AdditiveLayer16getClassTypeNameB5cxx11EvE4type
openmw:_ZGVZNK5MyGUI5Align13getValueNamesB5cxx11EvE9map_names
openmw:_ZGVZNK8MWRender18DepthClampCallback18drawImplementationERN3osg10RenderInfoEPKNS1_8DrawableEE9supported
openmw:_ZGVZNK8Resource19CanOptimizeCallback14isReservedNameERKNSt7__cxx1112basic_stringIcSt11char_traitsIcESaIcEEEE13reservedNamesB5cxx11
openmw:_ZGVZNKSt8__detail11_AnyMatcherINSt7__cxx1112regex_traitsIcEELb0ELb0ELb0EEclEcE5__nul
openmw:_ZGVZNKSt8__detail11_AnyMatcherINSt7__cxx1112regex_traitsIcEELb0ELb0ELb1EEclEcE5__nul
openmw:_ZGVZNKSt8__detail11_AnyMatcherINSt7__cxx1112regex_traitsIcEELb0ELb1ELb0EEclEcE5__nul
openmw:_ZGVZNKSt8__detail11_AnyMatcherINSt7__cxx1112regex_traitsIcEELb0ELb1ELb1EEclEcE5__nul
openmw:_ZN10ESMTerrain10LandObjectC1EPKN3ESM4LandEi
openmw:_ZN10ESMTerrain10LandObjectC1ERKS0_RKN3osg6CopyOpE
openmw:_ZN10ESMTerrain10LandObjectC1Ev
openmw:_ZN10ESMTerrain10LandObjectC2EPKN3ESM4LandEi
openmw:_ZN10ESMTerrain10LandObjectC2ERKS0_RKN3osg6CopyOpE
openmw:_ZN10ESMTerrain10LandObjectC2Ev
openmw:_ZN10ESMTerrain10LandObjectD0Ev
openmw:_ZN10ESMTerrain10LandObjectD1Ev
openmw:_ZN10ESMTerrain10LandObjectD2Ev
openmw:_ZN10ESMTerrain7Storage11getHeightAtERKN3osg5Vec3fE
openmw:_ZN10ESMTerrain7Storage12getBlendmapsEfRKN3osg5Vec2fERSt6vectorINS1_7ref_ptrINS1_5ImageEEESaIS8_EERS5_IN7Terrain9LayerInfoESaISD_EE
openmw:_ZN10ESMTerrain7Storage12getLayerInfoERKNSt7__cxx1112basic_stringIcSt11char_traitsIcESaIcEEE
openmw:_ZN10ESMTerrain7Storage14getTextureNameB5cxx11ESt4pairIssE
openmw:_ZN10ESMTerrain7Storage15getCellVerticesEv
openmw:_ZN10ESMTerrain7Storage16getBlendmapScaleEf
openmw:_ZN10ESMTerrain7Storage16getCellWorldSizeEv
openmw:_ZN10ESMTerrain7Storage16getMinMaxHeightsEfRKN3osg5Vec2fERfS5_
openmw:_ZN10ESMTerrain7Storage17fillVertexBuffersEifRKN3osg5Vec2fENS1_7ref_ptrINS1_13TemplateArrayINS1_5Vec3fELNS1_5Array4TypeE28ELi3ELi5126EEEEESB_NS5_INS6_INS1_6Vec4ubELS9_20ELi4ELi5121EEEEE
openmw:_ZN10ESMTerrain7StorageC1EPKN3VFS7ManagerERKNSt7__cxx1112basic_stringIcSt11char_traitsIcESaIcEEESC_bSC_b
openmw:_ZN10ESMTerrain7StorageC2EPKN3VFS7ManagerERKNSt7__cxx1112basic_stringIcSt11char_traitsIcESaIcEEESC_bSC_b
openmw:_ZN10MWDialogue10ScriptTest10compileAllEPKN8Compiler10ExtensionsEi
openmw:_ZN10MWDialogue12JournalEntry11idFromIndexERKNSt7__cxx1112basic_stringIcSt11char_traitsIcESaIcEEEi
openmw:_ZN10MWDialogue12JournalEntry13makeFromQuestERKNSt7__cxx1112basic_stringIcSt11char_traitsIcESaIcEEEi
openmw:_ZN10MWDialogue12JournalEntryC1ERKN3ESM12JournalEntryE
openmw:_ZN10MWDialogue12JournalEntryC1ERKNSt7__cxx1112basic_stringIcSt11char_traitsIcESaIcEEES8_RKN7MWWorld3PtrE
openmw:_ZN10MWDialogue12JournalEntryC2ERKN3ESM12JournalEntryE
openmw:_ZN10MWDialogue12JournalEntryC2ERKNSt7__cxx1112basic_stringIcSt11char_traitsIcESaIcEEES8_RKN7MWWorld3PtrE
openmw:_ZN10MWDialogue13KeywordSearchINSt7__cxx1112basic_stringIcSt11char_traitsIcESaIcEEEiE11sortMatchesERKNS7_5MatchESA_
openmw:_ZN10MWDialogue13KeywordSearchINSt7__cxx1112basic_stringIcSt11char_traitsIcESaIcEEElE11sortMatchesERKNS7_5MatchESA_
openmw:_ZN10MWDialogue13SelectWrapperC1ERKN3ESM8DialInfo12SelectStructE
openmw:_ZN10MWDialogue13SelectWrapperC2ERKN3ESM8DialInfo12SelectStructE
openmw:_ZN10MWDialogue15DialogueManager10readRecordERN3ESM9ESMReaderEj
openmw:_ZN10MWDialogue15DialogueManager12executeTopicERKNSt7__cxx1112basic_stringIcSt11char_traitsIcESaIcEEEPN6MWBase15DialogueManager16ResponseCallbackE
openmw:_ZN10MWDialogue15DialogueManager13executeScriptERKNSt7__cxx1112basic_stringIcSt11char_traitsIcESaIcEEERKN7MWWorld3PtrE
openmw:_ZN10MWDialogue15DialogueManager13startDialogueERKN7MWWorld3PtrEPN6MWBase15DialogueManager16ResponseCallbackE
openmw:_ZN10MWDialogue15DialogueManager13updateGlobalsEv
openmw:_ZN10MWDialogue15DialogueManager14searchDialogueERKNSt7__cxx1112basic_stringIcSt11char_traitsIcESaIcEEE
openmw:_ZN10MWDialogue15DialogueManager15goodbyeSelectedEv
openmw:_ZN10MWDialogue15DialogueManager15keywordSelectedERKNSt7__cxx1112basic_stringIcSt11char_traitsIcESaIcEEEPN6MWBase15DialogueManager16ResponseCallbackE
openmw:_ZN10MWDialogue15DialogueManager16questionAnsweredEiPN6MWBase15DialogueManager16ResponseCallbackE
openmw:_ZN10MWDialogue15DialogueManager17addTopicsFromTextERKNSt7__cxx1112basic_stringIcSt11char_traitsIcESaIcEEE
openmw:_ZN10MWDialogue15DialogueManager18getAvailableTopicsB5cxx11Ev
openmw:_ZN10MWDialogue15DialogueManager18modFactionReactionESt17basic_string_viewIcSt11char_traitsIcEES4_i
openmw:_ZN10MWDialogue15DialogueManager18setFactionReactionESt17basic_string_viewIcSt11char_traitsIcEES4_i
openmw:_ZN10MWDialogue15DialogueManager19checkServiceRefusedEPN6MWBase15DialogueManager16ResponseCallbackENS2_11ServiceTypeE
openmw:_ZN10MWDialogue15DialogueManager21parseTopicIdsFromTextERKNSt7__cxx1112basic_stringIcSt11char_traitsIcESaIcEEE
openmw:_ZN10MWDialogue15DialogueManager22updateActorKnownTopicsEv
openmw:_ZN10MWDialogue15DialogueManager25updateOriginalDispositionEv
openmw:_ZN10MWDialogue15DialogueManager28applyBarterDispositionChangeEi
openmw:_ZN10MWDialogue15DialogueManager3sayERKN7MWWorld3PtrERKNSt7__cxx1112basic_stringIcSt11char_traitsIcESaIcEEE
openmw:_ZN10MWDialogue15DialogueManager5clearEv
openmw:_ZN10MWDialogue15DialogueManager7compileERKNSt7__cxx1112basic_stringIcSt11char_traitsIcESaIcEEERSt6vectorIjSaIjEERKN7MWWorld3PtrE
openmw:_ZN10MWDialogue15DialogueManager7goodbyeEv
openmw:_ZN10MWDialogue15DialogueManager8addTopicESt17basic_string_viewIcSt11char_traitsIcEE
openmw:_ZN10MWDialogue15DialogueManager8persuadeEiPN6MWBase15DialogueManager16ResponseCallbackE
openmw:_ZN10MWDialogue15DialogueManager9addChoiceESt17basic_string_viewIcSt11char_traitsIcEEi
openmw:_ZN10MWDialogue15DialogueManagerC1ERKN8Compiler10ExtensionsERN11Translation7StorageE
openmw:_ZN10MWDialogue15DialogueManagerC2ERKN8Compiler10ExtensionsERN11Translation7StorageE
openmw:_ZN10MWDialogue15HyperTextParser14parseHyperTextERKNSt7__cxx1112basic_stringIcSt11char_traitsIcESaIcEEE
openmw:_ZN10MWDialogue15HyperTextParser16tokenizeKeywordsERKNSt7__cxx1112basic_stringIcSt11char_traitsIcESaIcEEERSt6vectorINS0_5TokenESaISA_EE
openmw:_ZN10MWDialogue15HyperTextParser21removePseudoAsterisksERNSt7__cxx1112basic_stringIcSt11char_traitsIcESaIcEEE
openmw:_ZN10MWDialogue19StampedJournalEntry13makeFromQuestERKNSt7__cxx1112basic_stringIcSt11char_traitsIcESaIcEEEiRKN7MWWorld3PtrE
openmw:_ZN10MWDialogue19StampedJournalEntryC1ERKN3ESM12JournalEntryE
openmw:_ZN10MWDialogue19StampedJournalEntryC1ERKNSt7__cxx1112basic_stringIcSt11char_traitsIcESaIcEEES8_iiiRKN7MWWorld3PtrE
openmw:_ZN10MWDialogue19StampedJournalEntryC1Ev
openmw:_ZN10MWDialogue19StampedJournalEntryC2ERKN3ESM12JournalEntryE
openmw:_ZN10MWDialogue19StampedJournalEntryC2ERKNSt7__cxx1112basic_stringIcSt11char_traitsIcESaIcEEES8_iiiRKN7MWWorld3PtrE
openmw:_ZN10MWDialogue19StampedJournalEntryC2Ev
openmw:_ZN10MWDialogue5EntryC1ERKN3ESM12JournalEntryE
openmw:_ZN10MWDialogue5EntryC1ERKNSt7__cxx1112basic_stringIcSt11char_traitsIcESaIcEEES8_RKN7MWWorld3PtrE
openmw:_ZN10MWDialogue5EntryC2ERKN3ESM12JournalEntryE
openmw:_ZN10MWDialogue5EntryC2ERKNSt7__cxx1112basic_stringIcSt11char_traitsIcESaIcEEES8_RKN7MWWorld3PtrE
openmw:_ZN10MWDialogue5Quest11setFinishedEb
openmw:_ZN10MWDialogue5Quest8addEntryERKNS_12JournalEntryE
openmw:_ZN10MWDialogue5Quest8setIndexEi
openmw:_ZN10MWDialogue5QuestC1ERKN3ESM10QuestStateE
openmw:_ZN10MWDialogue5QuestC1ERKNSt7__cxx1112basic_stringIcSt11char_traitsIcESaIcEEE
openmw:_ZN10MWDialogue5QuestC1Ev
openmw:_ZN10MWDialogue5QuestC2ERKN3ESM10QuestStateE
openmw:_ZN10MWDialogue5QuestC2ERKNSt7__cxx1112basic_stringIcSt11char_traitsIcESaIcEEE
openmw:_ZN10MWDialogue5QuestC2Ev
openmw:_ZN10MWDialogue5Topic11insertEntryERKN3ESM12JournalEntryE
openmw:_ZN10MWDialogue5Topic23removeLastAddedResponseERKNSt7__cxx1112basic_stringIcSt11char_traitsIcESaIcEEE
openmw:_ZN10MWDialogue5Topic8addEntryERKNS_12JournalEntryE
openmw:_ZN10MWDialogue5TopicC1ERKNSt7__cxx1112basic_stringIcSt11char_traitsIcESaIcEEE
openmw:_ZN10MWDialogue5TopicC1Ev
openmw:_ZN10MWDialogue5TopicC2ERKNSt7__cxx1112basic_stringIcSt11char_traitsIcESaIcEEE
openmw:_ZN10MWDialogue5TopicC2Ev
openmw:_ZN10MWDialogue5TopicD0Ev
openmw:_ZN10MWDialogue5TopicD1Ev
openmw:_ZN10MWDialogue5TopicD2Ev
openmw:_ZN10MWDialogue6FilterC1ERKN7MWWorld3PtrEib
openmw:_ZN10MWDialogue6FilterC2ERKN7MWWorld3PtrEib
openmw:_ZN10MWDialogue7Journal10readRecordERN3ESM9ESMReaderEj
openmw:_ZN10MWDialogue7Journal15setJournalIndexERKNSt7__cxx1112basic_stringIcSt11char_traitsIcESaIcEEEi
openmw:_ZN10MWDialogue7Journal28removeLastAddedTopicResponseERKNSt7__cxx1112basic_stringIcSt11char_traitsIcESaIcEEES8_
openmw:_ZN10MWDialogue7Journal5clearEv
openmw:_ZN10MWDialogue7Journal8addEntryERKNSt7__cxx1112basic_stringIcSt11char_traitsIcESaIcEEEiRKN7MWWorld3PtrE
openmw:_ZN10MWDialogue7Journal8addTopicERKNSt7__cxx1112basic_stringIcSt11char_traitsIcESaIcEEES8_RKN7MWWorld3PtrE
openmw:_ZN10MWDialogue7Journal8getQuestERKNSt7__cxx1112basic_stringIcSt11char_traitsIcESaIcEEE
openmw:_ZN10MWDialogue7Journal8getTopicERKNSt7__cxx1112basic_stringIcSt11char_traitsIcESaIcEEE
openmw:_ZN10MWDialogue7JournalC1Ev
openmw:_ZN10MWDialogue7JournalC2Ev
openmw:_ZN11Interpreter11Interpreter3endEv
openmw:_ZN11Interpreter11Interpreter3runEPKjiRNS_7ContextE
openmw:_ZN11Interpreter11Interpreter5beginEv
openmw:_ZN11Interpreter11Interpreter7executeEj
openmw:_ZN11Interpreter11InterpreterC1Ev
openmw:_ZN11Interpreter11InterpreterC2Ev
openmw:_ZN11Interpreter14fixDefinesBookERKNSt7__cxx1112basic_stringIcSt11char_traitsIcESaIcEEERNS_7ContextE
openmw:_ZN11Interpreter14installOpcodesERNS_11InterpreterE
openmw:_ZN11Interpreter16fixDefinesDialogERKNSt7__cxx1112basic_stringIcSt11char_traitsIcESaIcEEERNS_7ContextE
openmw:_ZN11Interpreter16fixDefinesMsgBoxERKNSt7__cxx1112basic_stringIcSt11char_traitsIcESaIcEEERNS_7ContextE
openmw:_ZN11Interpreter5checkERKNSt7__cxx1112basic_stringIcSt11char_traitsIcESaIcEEES7_PjS8_
openmw:_ZN11Interpreter7Runtime10getContextEv
openmw:_ZN11Interpreter7Runtime3popEv
openmw:_ZN11Interpreter7Runtime4pushERKNS_4DataE
openmw:_ZN11Interpreter7Runtime4pushEf
openmw:_ZN11Interpreter7Runtime4pushEi
openmw:_ZN11Interpreter7Runtime5clearEv
openmw:_ZN11Interpreter7Runtime5setPCEi
openmw:_ZN11Interpreter7Runtime9configureEPKjiRNS_7ContextE
openmw:_ZN11Interpreter7RuntimeC1Ev
openmw:_ZN11Interpreter7RuntimeC2Ev
openmw:_ZN11Interpreter7RuntimeixEi
openmw:_ZN11Interpreter7globalsB5cxx11E
openmw:_ZN11Interpreter9longerStrERKNSt7__cxx1112basic_stringIcSt11char_traitsIcESaIcEEES7_
openmw:_ZN11MWMechanics10AiActivate7executeERKN7MWWorld3PtrERNS_19CharacterControllerERNS_19DerivedClassStorageINS_15AiTemporaryBaseEEEf
openmw:_ZN11MWMechanics10AiActivateC1EPKN3ESM10AiSequence10AiActivateE
openmw:_ZN11MWMechanics10AiActivateC1ESt17basic_string_viewIcSt11char_traitsIcEEb
openmw:_ZN11MWMechanics10AiActivateC2EPKN3ESM10AiSequence10AiActivateE
openmw:_ZN11MWMechanics10AiActivateC2ESt17basic_string_viewIcSt11char_traitsIcEEb
openmw:_ZN11MWMechanics10AiSequence10stopCombatERKSt6vectorIN7MWWorld3PtrESaIS3_EE
openmw:_ZN11MWMechanics10AiSequence10stopCombatEv
openmw:_ZN11MWMechanics10AiSequence11fastForwardERKN7MWWorld3PtrE
openmw:_ZN11MWMechanics10AiSequence11stopPursuitEv
openmw:_ZN11MWMechanics10AiSequence14onPackageAddedERKNS_9AiPackageE
openmw:_ZN11MWMechanics10AiSequence16onPackageRemovedERKNS_9AiPackageE
openmw:_ZN11MWMechanics10AiSequence18removePackagesByIdENS_15AiPackageTypeIdE
openmw:_ZN11MWMechanics10AiSequence4copyERKS0_
openmw:_ZN11MWMechanics10AiSequence4fillERKN3ESM13AIPackageListE
openmw:_ZN11MWMechanics10AiSequence5clearEv
openmw:_ZN11MWMechanics10AiSequence5eraseEN9__gnu_cxx17__normal_iteratorIPSt10shared_ptrINS_9AiPackageEESt6vectorIS5_SaIS5_EEEE
openmw:_ZN11MWMechanics10AiSequence5stackERKNS_9AiPackageERKN7MWWorld3PtrEb
openmw:_ZN11MWMechanics10AiSequence7executeERKN7MWWorld3PtrERNS_19CharacterControllerEfb
openmw:_ZN11MWMechanics10AiSequence9readStateERKN3ESM10AiSequence10AiSequenceE
openmw:_ZN11MWMechanics10AiSequenceC1ERKS0_
openmw:_ZN11MWMechanics10AiSequenceC1Ev
openmw:_ZN11MWMechanics10AiSequenceC2ERKS0_
openmw:_ZN11MWMechanics10AiSequenceC2Ev
openmw:_ZN11MWMechanics10AiSequenceD0Ev
openmw:_ZN11MWMechanics10AiSequenceD1Ev
openmw:_ZN11MWMechanics10AiSequenceD2Ev
openmw:_ZN11MWMechanics10AiSequenceaSERKS0_
openmw:_ZN11MWMechanics10Enchanting10setOldItemERKN7MWWorld3PtrE
openmw:_ZN11MWMechanics10Enchanting10setSoulGemERKN7MWWorld3PtrE
openmw:_ZN11MWMechanics10Enchanting12setEnchanterERKN7MWWorld3PtrE
openmw:_ZN11MWMechanics10Enchanting13nextCastStyleEv
openmw:_ZN11MWMechanics10Enchanting14setNewItemNameERKNSt7__cxx1112basic_stringIcSt11char_traitsIcESaIcEEE
openmw:_ZN11MWMechanics10Enchanting17setSelfEnchantingEb
openmw:_ZN11MWMechanics10Enchanting6createEv
openmw:_ZN11MWMechanics10Enchanting9setEffectERKN3ESM10EffectListE
openmw:_ZN11MWMechanics10EnchantingC1Ev
openmw:_ZN11MWMechanics10EnchantingC2Ev
openmw:_ZN11MWMechanics10PathFinder16buildLimitedPathERKN7MWWorld8ConstPtrERKN3osg5Vec3fES8_PKNS1_9CellStoreERKNS_13PathgridGraphERKN15DetourNavigator11AgentBoundsEtRKNSF_9AreaCostsEfNS_8PathTypeE
openmw:_ZN11MWMechanics10PathFinder17buildStraightPathERKN3osg5Vec3fE
openmw:_ZN11MWMechanics10PathFinder18buildPathByNavMeshERKN7MWWorld8ConstPtrERKN3osg5Vec3fES8_RKN15DetourNavigator11AgentBoundsEtRKNS9_9AreaCostsEfNS_8PathTypeE
openmw:_ZN11MWMechanics10PathFinder19buildPathByPathgridERKN3osg5Vec3fES4_PKN7MWWorld9CellStoreERKNS_13PathgridGraphE
openmw:_ZN11MWMechanics10PathFinder23buildPathByPathgridImplERKN3osg5Vec3fES4_RKNS_13PathgridGraphESt20back_insert_iteratorISt5dequeIS2_SaIS2_EEE
openmw:_ZN11MWMechanics10PathFinder24buildPathByNavigatorImplERKN7MWWorld8ConstPtrERKN3osg5Vec3fES8_RKN15DetourNavigator11AgentBoundsEtRKNS9_9AreaCostsEfNS_8PathTypeESt20back_insert_iteratorISt5dequeIS6_SaIS6_EEE
openmw:_ZN11MWMechanics10PathFinder29buildPathByNavMeshToNextPointERKN7MWWorld8ConstPtrERKN15DetourNavigator11AgentBoundsEtRKNS5_9AreaCostsE
openmw:_ZN11MWMechanics10PathFinder6updateERKN3osg5Vec3fEffbbRKN15DetourNavigator11AgentBoundsEt
openmw:_ZN11MWMechanics10PathFinder9buildPathERKN7MWWorld8ConstPtrERKN3osg5Vec3fES8_PKNS1_9CellStoreERKNS_13PathgridGraphERKN15DetourNavigator11AgentBoundsEtRKNSF_9AreaCostsEfNS_8PathTypeE
openmw:_ZN11MWMechanics10Pickpocket11getDetectedEf
openmw:_ZN11MWMechanics10Pickpocket17getChanceModifierERKN7MWWorld3PtrEf
openmw:_ZN11MWMechanics10Pickpocket4pickERKN7MWWorld3PtrEi
openmw:_ZN11MWMechanics10Pickpocket6finishEv
openmw:_ZN11MWMechanics10PickpocketC1ERKN7MWWorld3PtrES4_
openmw:_ZN11MWMechanics10PickpocketC2ERKN7MWWorld3PtrES4_
openmw:_ZN11MWMechanics10SkillValue11setProgressEf
openmw:_ZN11MWMechanics10SkillValue9readStateERKN3ESM9StatStateIfEE
openmw:_ZN11MWMechanics10SkillValueC1Ev
openmw:_ZN11MWMechanics10SkillValueC2Ev
openmw:_ZN11MWMechanics10rateEffectERKN3ESM10ENAMstructERKN7MWWorld3PtrES7_
openmw:_ZN11MWMechanics10ratePotionERKN7MWWorld3PtrES3_
openmw:_ZN11MWMechanics10rateWeaponERKN7MWWorld3PtrES3_S3_iff
openmw:_ZN11MWMechanics10smoothTurnERKN7MWWorld3PtrEfif
openmw:_ZN11MWMechanics11ActionSpell7prepareERKN7MWWorld3PtrE
openmw:_ZN11MWMechanics11AiAvoidDoor15adjustDirectionEv
openmw:_ZN11MWMechanics11AiAvoidDoor7executeERKN7MWWorld3PtrERNS_19CharacterControllerERNS_19DerivedClassStorageINS_15AiTemporaryBaseEEEf
openmw:_ZN11MWMechanics11AiAvoidDoorC1ERKN7MWWorld8ConstPtrE
openmw:_ZN11MWMechanics11AiAvoidDoorC2ERKN7MWWorld8ConstPtrE
openmw:_ZN11MWMechanics11DynamicStatIfE10setCurrentERKfbb
openmw:_ZN11MWMechanics11DynamicStatIfE11setModifierEf
openmw:_ZN11MWMechanics11DynamicStatIfE7setBaseERKf
openmw:_ZN11MWMechanics11DynamicStatIfE9readStateERKN3ESM9StatStateIfEE
openmw:_ZN11MWMechanics11DynamicStatIfEC1ERKNS_4StatIfEEf
openmw:_ZN11MWMechanics11DynamicStatIfEC1Ef
openmw:_ZN11MWMechanics11DynamicStatIfEC1Efff
openmw:_ZN11MWMechanics11DynamicStatIfEC1Ev
openmw:_ZN11MWMechanics11DynamicStatIfEC2ERKNS_4StatIfEEf
openmw:_ZN11MWMechanics11DynamicStatIfEC2Ef
openmw:_ZN11MWMechanics11DynamicStatIfEC2Efff
openmw:_ZN11MWMechanics11DynamicStatIfEC2Ev
openmw:_ZN11MWMechanics11DynamicStatIiE10setCurrentERKibb
openmw:_ZN11MWMechanics11DynamicStatIiE11setModifierEi
openmw:_ZN11MWMechanics11DynamicStatIiE7setBaseERKi
openmw:_ZN11MWMechanics11DynamicStatIiE9readStateERKN3ESM9StatStateIiEE
openmw:_ZN11MWMechanics11DynamicStatIiEC1ERKNS_4StatIiEEi
openmw:_ZN11MWMechanics11DynamicStatIiEC1Ei
openmw:_ZN11MWMechanics11DynamicStatIiEC1Eiii
openmw:_ZN11MWMechanics11DynamicStatIiEC1Ev
openmw:_ZN11MWMechanics11DynamicStatIiEC2ERKNS_4StatIiEEi
openmw:_ZN11MWMechanics11DynamicStatIiEC2Ei
openmw:_ZN11MWMechanics11DynamicStatIiEC2Eiii
openmw:_ZN11MWMechanics11DynamicStatIiEC2Ev
openmw:_ZN11MWMechanics11EffectParam10modifyBaseEi
openmw:_ZN11MWMechanics11EffectParam11setModifierEf
openmw:_ZN11MWMechanics11EffectParam7setBaseEi
openmw:_ZN11MWMechanics11EffectParamC1Ev
openmw:_ZN11MWMechanics11EffectParamC2Ev
openmw:_ZN11MWMechanics11EffectParammIERKS0_
openmw:_ZN11MWMechanics11EffectParampLERKS0_
openmw:_ZN11MWMechanics11playEffectsERKN7MWWorld3PtrERKN3ESM11MagicEffectEb
openmw:_ZN11MWMechanics11rateEffectsERKN3ESM10EffectListERKN7MWWorld3PtrES7_
openmw:_ZN11MWMechanics12ActionPotion7prepareERKN7MWWorld3PtrE
openmw:_ZN11MWMechanics12ActionWeapon7prepareERKN7MWWorld3PtrE
openmw:_ZN11MWMechanics12ActiveSpells11addToSpellsERKN7MWWorld3PtrERKNS0_17ActiveSpellParamsE
openmw:_ZN11MWMechanics12ActiveSpells11applyPurgesERKN7MWWorld3PtrEPSt14_List_iteratorINS0_17ActiveSpellParamsEEPN9__gnu_cxx17__normal_iteratorIPN3ESM12ActiveEffectESt6vectorISC_SaISC_EEEE
openmw:_ZN11MWMechanics12ActiveSpells11purgeEffectERKN7MWWorld3PtrEs
openmw:_ZN11MWMechanics12ActiveSpells11unloadActorERKN7MWWorld3PtrE
openmw:_ZN11MWMechanics12ActiveSpells13removeEffectsERKN7MWWorld3PtrESt17basic_string_viewIcSt11char_traitsIcEE
openmw:_ZN11MWMechanics12ActiveSpells14IterationGuardC1ERS0_
openmw:_ZN11MWMechanics12ActiveSpells14IterationGuardC2ERS0_
openmw:_ZN11MWMechanics12ActiveSpells14IterationGuardD1Ev
openmw:_ZN11MWMechanics12ActiveSpells14IterationGuardD2Ev
openmw:_ZN11MWMechanics12ActiveSpells14skipWorseningsEd
openmw:_ZN11MWMechanics12ActiveSpells17ActiveSpellParams15resetWorseningsEv
openmw:_ZN11MWMechanics12ActiveSpells17ActiveSpellParams6worsenEv
openmw:_ZN11MWMechanics12ActiveSpells17ActiveSpellParamsC1EPKN3ESM5SpellERKN7MWWorld3PtrEb
openmw:_ZN11MWMechanics12ActiveSpells17ActiveSpellParamsC1ERKN3ESM12ActiveSpells17ActiveSpellParamsE
openmw:_ZN11MWMechanics12ActiveSpells17ActiveSpellParamsC1ERKN7MWWorld8ConstPtrEPKN3ESM11EnchantmentEiRKNS2_3PtrE
openmw:_ZN11MWMechanics12ActiveSpells17ActiveSpellParamsC1ERKNS_9CastSpellERKN7MWWorld3PtrE
openmw:_ZN11MWMechanics12ActiveSpells17ActiveSpellParamsC1ERKS1_RKN7MWWorld3PtrE
openmw:_ZN11MWMechanics12ActiveSpells17ActiveSpellParamsC2EPKN3ESM5SpellERKN7MWWorld3PtrEb
openmw:_ZN11MWMechanics12ActiveSpells17ActiveSpellParamsC2ERKN3ESM12ActiveSpells17ActiveSpellParamsE
openmw:_ZN11MWMechanics12ActiveSpells17ActiveSpellParamsC2ERKN7MWWorld8ConstPtrEPKN3ESM11EnchantmentEiRKNS2_3PtrE
openmw:_ZN11MWMechanics12ActiveSpells17ActiveSpellParamsC2ERKNS_9CastSpellERKN7MWWorld3PtrE
openmw:_ZN11MWMechanics12ActiveSpells17ActiveSpellParamsC2ERKS1_RKN7MWWorld3PtrE
openmw:_ZN11MWMechanics12ActiveSpells5clearERKN7MWWorld3PtrE
openmw:_ZN11MWMechanics12ActiveSpells5purgeERKN7MWWorld3PtrEi
openmw:_ZN11MWMechanics12ActiveSpells5purgeESt8functionIFbRKNS0_17ActiveSpellParamsEEERKN7MWWorld3PtrE
openmw:_ZN11MWMechanics12ActiveSpells5purgeESt8functionIFbRKNS0_17ActiveSpellParamsERKN3ESM12ActiveEffectEEERKN7MWWorld3PtrE
openmw:_ZN11MWMechanics12ActiveSpells6updateERKN7MWWorld3PtrEf
openmw:_ZN11MWMechanics12ActiveSpells8addSpellEPKN3ESM5SpellERKN7MWWorld3PtrE
openmw:_ZN11MWMechanics12ActiveSpells8addSpellERKNS0_17ActiveSpellParamsE
openmw:_ZN11MWMechanics12ActiveSpells9readStateERKN3ESM12ActiveSpellsE
openmw:_ZN11MWMechanics12ActiveSpellsC1Ev
openmw:_ZN11MWMechanics12ActiveSpellsC2Ev
openmw:_ZN11MWMechanics12MagicEffects10modifyBaseERKNS_9EffectKeyEi
openmw:_ZN11MWMechanics12MagicEffects12setModifiersERKS0_
openmw:_ZN11MWMechanics12MagicEffects3addERKNS_9EffectKeyERKNS_11EffectParamE
openmw:_ZN11MWMechanics12MagicEffects4diffERKS0_S2_
openmw:_ZN11MWMechanics12MagicEffects6removeERKNS_9EffectKeyE
openmw:_ZN11MWMechanics12MagicEffects9readStateERKN3ESM12MagicEffectsE
openmw:_ZN11MWMechanics12getHitChanceERKN7MWWorld3PtrES3_i
openmw:_ZN11MWMechanics12rechargeItemERKN7MWWorld3PtrES3_
openmw:_ZN11MWMechanics12rechargeItemERKN7MWWorld3PtrEff
openmw:_ZN11MWMechanics13CreatureStats10getActorIdEv
openmw:_ZN11MWMechanics13CreatureStats10notifyDiedEv
openmw:_ZN11MWMechanics13CreatureStats10setAlarmedEb
openmw:_ZN11MWMechanics13CreatureStats10setDynamicEiRKNS_11DynamicStatIfEE
openmw:_ZN11MWMechanics13CreatureStats10setFatigueERKNS_11DynamicStatIfEE
openmw:_ZN11MWMechanics13CreatureStats10setMagickaERKNS_11DynamicStatIfEE
openmw:_ZN11MWMechanics13CreatureStats11friendlyHitEv
openmw:_ZN11MWMechanics13CreatureStats11setAttackedEb
openmw:_ZN11MWMechanics13CreatureStats11setGoldPoolEi
openmw:_ZN11MWMechanics13CreatureStats12clearHasDiedEv
openmw:_ZN11MWMechanics13CreatureStats12notifyMurderEv
openmw:_ZN11MWMechanics13CreatureStats12setAiSettingENS_9AiSettingENS_4StatIiEE
openmw:_ZN11MWMechanics13CreatureStats12setAiSettingENS_9AiSettingEi
openmw:_ZN11MWMechanics13CreatureStats12setAttributeEiRKNS_14AttributeValueE
openmw:_ZN11MWMechanics13CreatureStats12setAttributeEif
openmw:_ZN11MWMechanics13CreatureStats12setDrawStateENS_9DrawStateE
openmw:_ZN11MWMechanics13CreatureStats13getAiSequenceEv
openmw:_ZN11MWMechanics13CreatureStats14setHitRecoveryEb
openmw:_ZN11MWMechanics13CreatureStats14setKnockedDownEb
openmw:_ZN11MWMechanics13CreatureStats14talkedToPlayerEv
openmw:_ZN11MWMechanics13CreatureStats15addToFallHeightEf
openmw:_ZN11MWMechanics13CreatureStats15getActiveSpellsEv
openmw:_ZN11MWMechanics13CreatureStats15getMagicEffectsEv
openmw:_ZN11MWMechanics13CreatureStats15setMovementFlagENS0_4FlagEb
openmw:_ZN11MWMechanics13CreatureStats16setLastHitObjectERKNSt7__cxx1112basic_stringIcSt11char_traitsIcESaIcEEE
openmw:_ZN11MWMechanics13CreatureStats17setDeathAnimationEa
openmw:_ZN11MWMechanics13CreatureStats18clearLastHitObjectEv
openmw:_ZN11MWMechanics13CreatureStats18modifyMagicEffectsERKNS_12MagicEffectsE
openmw:_ZN11MWMechanics13CreatureStats18readActorIdCounterERN3ESM9ESMReaderE
openmw:_ZN11MWMechanics13CreatureStats18recalculateMagickaEv
openmw:_ZN11MWMechanics13CreatureStats18setLastRestockTimeEN7MWWorld9TimeStampE
openmw:_ZN11MWMechanics13CreatureStats19writeActorIdCounterERN3ESM9ESMWriterE
openmw:_ZN11MWMechanics13CreatureStats20clearHasBeenMurderedEv
openmw:_ZN11MWMechanics13CreatureStats20setHitAttemptActorIdEi
openmw:_ZN11MWMechanics13CreatureStats22getSummonedCreatureMapEv
openmw:_ZN11MWMechanics13CreatureStats22setKnockedDownOneFrameEb
openmw:_ZN11MWMechanics13CreatureStats23setLastHitAttemptObjectERKNSt7__cxx1112basic_stringIcSt11char_traitsIcESaIcEEE
openmw:_ZN11MWMechanics13CreatureStats25clearLastHitAttemptObjectEv
openmw:_ZN11MWMechanics13CreatureStats25setDeathAnimationFinishedEb
openmw:_ZN11MWMechanics13CreatureStats26setKnockedDownOverOneFrameEb
openmw:_ZN11MWMechanics13CreatureStats28getSummonedCreatureGraveyardEv
openmw:_ZN11MWMechanics13CreatureStats4landEb
openmw:_ZN11MWMechanics13CreatureStats7cleanupEv
openmw:_ZN11MWMechanics13CreatureStats8sActorIdE
openmw:_ZN11MWMechanics13CreatureStats8setBlockEb
openmw:_ZN11MWMechanics13CreatureStats8setLevelEi
openmw:_ZN11MWMechanics13CreatureStats9getSpellsEv
openmw:_ZN11MWMechanics13CreatureStats9readStateERKN3ESM13CreatureStatsE
openmw:_ZN11MWMechanics13CreatureStats9resurrectEv
openmw:_ZN11MWMechanics13CreatureStats9setHealthERKNS_11DynamicStatIfEE
openmw:_ZN11MWMechanics13CreatureStatsC1Ev
openmw:_ZN11MWMechanics13CreatureStatsC2Ev
openmw:_ZN11MWMechanics13ObstacleCheck15evadeDirectionsE
openmw:_ZN11MWMechanics13ObstacleCheck22chooseEvasionDirectionEv
openmw:_ZN11MWMechanics13ObstacleCheck5clearEv
openmw:_ZN11MWMechanics13ObstacleCheck6updateERKN7MWWorld3PtrERKN3osg5Vec3fEf
openmw:_ZN11MWMechanics13ObstacleCheckC1Ev
openmw:_ZN11MWMechanics13ObstacleCheckC2Ev
openmw:_ZN11MWMechanics13PathgridGraph20buildConnectedPointsEv
openmw:_ZN11MWMechanics13PathgridGraph22recursiveStrongConnectEi
openmw:_ZN11MWMechanics13PathgridGraph4loadEPKN7MWWorld9CellStoreE
openmw:_ZN11MWMechanics13PathgridGraphC1EPKN7MWWorld9CellStoreE
openmw:_ZN11MWMechanics13PathgridGraphC2EPKN7MWWorld9CellStoreE
openmw:_ZN11MWMechanics13calcSpellCostERKN3ESM5SpellE
openmw:_ZN11MWMechanics13getNearbyDoorERKN7MWWorld3PtrEf
openmw:_ZN11MWMechanics13getRangeTypesERKN3ESM10EffectListE
openmw:_ZN11MWMechanics13getWeaponTypeEi
openmw:_ZN11MWMechanics13projectileHitERKN7MWWorld3PtrES3_S1_S3_RKN3osg5Vec3fEf
openmw:_ZN11MWMechanics13rateMagicItemERKN7MWWorld3PtrES3_S3_
openmw:_ZN11MWMechanics13updateSummonsERKN7MWWorld3PtrEb
openmw:_ZN11MWMechanics14AttributeValue11setModifierEf
openmw:_ZN11MWMechanics14AttributeValue6damageEf
openmw:_ZN11MWMechanics14AttributeValue7restoreEf
openmw:_ZN11MWMechanics14AttributeValue7setBaseEfb
openmw:_ZN11MWMechanics14AttributeValue9readStateERKN3ESM9StatStateIfEE
openmw:_ZN11MWMechanics14AttributeValueC1Ev
openmw:_ZN11MWMechanics14AttributeValueC2Ev
openmw:_ZN11MWMechanics14attrSkillCheckEPKN3ESM5SpellEPKiS5_
openmw:_ZN11MWMechanics14calcEffectCostERKN3ESM10ENAMstructEPKNS0_11MagicEffectENS_16EffectCostMethodE
openmw:_ZN11MWMechanics14getSpellSchoolEPKN3ESM5SpellERKN7MWWorld3PtrE
openmw:_ZN11MWMechanics14getSpellSchoolERKNSt7__cxx1112basic_stringIcSt11char_traitsIcESaIcEEERKN7MWWorld3PtrE
openmw:_ZN11MWMechanics14isNormalWeaponERKN7MWWorld3PtrE
openmw:_ZN11MWMechanics14summonCreatureEiRKN7MWWorld3PtrE
openmw:_ZN11MWMechanics15AiCombatStorage10stopAttackEv
openmw:_ZN11MWMechanics15AiCombatStorage11stopFleeingEv
openmw:_ZN11MWMechanics15AiCombatStorage12startFleeingEv
openmw:_ZN11MWMechanics15AiCombatStorage12updateAttackERKN7MWWorld3PtrERNS_19CharacterControllerE
openmw:_ZN11MWMechanics15AiCombatStorage14stopCombatMoveEv
openmw:_ZN11MWMechanics15AiCombatStorage15startCombatMoveEbffRKN7MWWorld3PtrES4_
openmw:_ZN11MWMechanics15AiCombatStorage16updateCombatMoveEf
openmw:_ZN11MWMechanics15AiCombatStorage18startAttackIfReadyERKN7MWWorld3PtrERNS_19CharacterControllerEPKN3ESM6WeaponEb
openmw:_ZN11MWMechanics15AiCombatStorage9isFleeingEv
openmw:_ZN11MWMechanics15AiCombatStorageC1Ev
openmw:_ZN11MWMechanics15AiCombatStorageC2Ev
openmw:_ZN11MWMechanics15AiWanderStorageC1Ev
openmw:_ZN11MWMechanics15AiWanderStorageC2Ev
openmw:_ZN11MWMechanics15checkWayIsClearERKN3osg5Vec3fES3_f
openmw:_ZN11MWMechanics15getActiveWeaponERKN7MWWorld3PtrEPi
openmw:_ZN11MWMechanics15getPathDistanceERKN7MWWorld3PtrERKN3osg5Vec3fES7_
openmw:_ZN11MWMechanics15hasWaterWalkingERKN7MWWorld3PtrE
openmw:_ZN11MWMechanics15proximityToDoorERKN7MWWorld3PtrEf
openmw:_ZN11MWMechanics15vanillaRateFleeERKN7MWWorld3PtrES3_
openmw:_ZN11MWMechanics16AiInternalTravelC1EPKN3ESM10AiSequence8AiTravelE
openmw:_ZN11MWMechanics16AiInternalTravelC1Efff
openmw:_ZN11MWMechanics16AiInternalTravelC2EPKN3ESM10AiSequence8AiTravelE
openmw:_ZN11MWMechanics16AiInternalTravelC2Efff
openmw:_ZN11MWMechanics16MechanicsManager10isAIActiveEv
openmw:_ZN11MWMechanics16MechanicsManager10isSneakingERKN7MWWorld3PtrE
openmw:_ZN11MWMechanics16MechanicsManager10notifyDiedERKN7MWWorld3PtrE
openmw:_ZN11MWMechanics16MechanicsManager10readRecordERN3ESM9ESMReaderEj
openmw:_ZN11MWMechanics16MechanicsManager10sleepInBedERKN7MWWorld3PtrES4_
openmw:_ZN11MWMechanics16MechanicsManager10stopCombatERKN7MWWorld3PtrE
openmw:_ZN11MWMechanics16MechanicsManager10updateCellERKN7MWWorld3PtrES4_
openmw:_ZN11MWMechanics16MechanicsManager11actorKilledERKN7MWWorld3PtrES4_
openmw:_ZN11MWMechanics16MechanicsManager11buildPlayerEv
openmw:_ZN11MWMechanics16MechanicsManager11commitCrimeERKN7MWWorld3PtrES4_N6MWBase16MechanicsManager11OffenseTypeERKNSt7__cxx1112basic_stringIcSt11char_traitsIcESaIcEEEib
openmw:_ZN11MWMechanics16MechanicsManager11isBoundItemERKN7MWWorld3PtrE
openmw:_ZN11MWMechanics16MechanicsManager11reportCrimeERKN7MWWorld3PtrES4_N6MWBase16MechanicsManager11OffenseTypeERKNSt7__cxx1112basic_stringIcSt11char_traitsIcESaIcEEEi
openmw:_ZN11MWMechanics16MechanicsManager11setWerewolfERKN7MWWorld3PtrEb
openmw:_ZN11MWMechanics16MechanicsManager11startCombatERKN7MWWorld3PtrES4_
openmw:_ZN11MWMechanics16MechanicsManager12isAggressiveERKN7MWWorld3PtrES4_
openmw:_ZN11MWMechanics16MechanicsManager12playerLoadedEv
openmw:_ZN11MWMechanics16MechanicsManager13actorAttackedERKN7MWWorld3PtrES4_
openmw:_ZN11MWMechanics16MechanicsManager13setPlayerNameERKNSt7__cxx1112basic_stringIcSt11char_traitsIcESaIcEEE
openmw:_ZN11MWMechanics16MechanicsManager13setPlayerRaceERKNSt7__cxx1112basic_stringIcSt11char_traitsIcESaIcEEEbS8_S8_
openmw:_ZN11MWMechanics16MechanicsManager13skipAnimationERKN7MWWorld3PtrE
openmw:_ZN11MWMechanics16MechanicsManager14awarenessCheckERKN7MWWorld3PtrES4_
openmw:_ZN11MWMechanics16MechanicsManager14canReportCrimeERKN7MWWorld3PtrES4_RSt3setIS2_St4lessIS2_ESaIS2_EE
openmw:_ZN11MWMechanics16MechanicsManager14getBarterOfferERKN7MWWorld3PtrEib
openmw:_ZN11MWMechanics16MechanicsManager14isAllowedToUseERKN7MWWorld3PtrES4_RS2_
openmw:_ZN11MWMechanics16MechanicsManager14setPlayerClassERKN3ESM5ClassE
openmw:_ZN11MWMechanics16MechanicsManager14setPlayerClassERKNSt7__cxx1112basic_stringIcSt11char_traitsIcESaIcEEE
openmw:_ZN11MWMechanics16MechanicsManager15isActorDetectedERKN7MWWorld3PtrES4_
openmw:_ZN11MWMechanics16MechanicsManager15unlockAttemptedERKN7MWWorld3PtrES4_
openmw:_ZN11MWMechanics16MechanicsManager16forceStateUpdateERKN7MWWorld3PtrE
openmw:_ZN11MWMechanics16MechanicsManager16getActorsInRangeERKN3osg5Vec3fEfRSt6vectorIN7MWWorld3PtrESaIS7_EE
openmw:_ZN11MWMechanics16MechanicsManager16getEnemiesNearbyERKN7MWWorld3PtrE
openmw:_ZN11MWMechanics16MechanicsManager16isItemStolenFromERKNSt7__cxx1112basic_stringIcSt11char_traitsIcESaIcEEERKN7MWWorld3PtrE
openmw:_ZN11MWMechanics16MechanicsManager17getActorsFightingERKN7MWWorld3PtrE
openmw:_ZN11MWMechanics16MechanicsManager17getObjectsInRangeERKN3osg5Vec3fEfRSt6vectorIN7MWWorld3PtrESaIS7_EE
openmw:_ZN11MWMechanics16MechanicsManager17isAnyActorInRangeERKN3osg5Vec3fEf
openmw:_ZN11MWMechanics16MechanicsManager17isAttackPreparingERKN7MWWorld3PtrE
openmw:_ZN11MWMechanics16MechanicsManager18getActorsFollowingERKN7MWWorld3PtrE
openmw:_ZN11MWMechanics16MechanicsManager18getActorsFollowingERKN7MWWorld3PtrERSt3setIS2_St4lessIS2_ESaIS2_EE
openmw:_ZN11MWMechanics16MechanicsManager18playAnimationGroupERKN7MWWorld3PtrERKNSt7__cxx1112basic_stringIcSt11char_traitsIcESaIcEEEiib
openmw:_ZN11MWMechanics16MechanicsManager18setPlayerBirthsignERKNSt7__cxx1112basic_stringIcSt11char_traitsIcESaIcEEE
openmw:_ZN11MWMechanics16MechanicsManager18updateMagicEffectsERKN7MWWorld3PtrE
openmw:_ZN11MWMechanics16MechanicsManager19getActorsSidingWithERKN7MWWorld3PtrE
openmw:_ZN11MWMechanics16MechanicsManager19getActorsSidingWithERKN7MWWorld3PtrERSt3setIS2_St4lessIS2_ESaIS2_EE
openmw:_ZN11MWMechanics16MechanicsManager19getStolenItemOwnersERKNSt7__cxx1112basic_stringIcSt11char_traitsIcESaIcEEE
openmw:_ZN11MWMechanics16MechanicsManager19restoreDynamicStatsERKN7MWWorld3PtrEdb
openmw:_ZN11MWMechanics16MechanicsManager21canCommitCrimeAgainstERKN7MWWorld3PtrES4_
openmw:_ZN11MWMechanics16MechanicsManager21checkAnimationPlayingERKN7MWWorld3PtrERKNSt7__cxx1112basic_stringIcSt11char_traitsIcESaIcEEE
openmw:_ZN11MWMechanics16MechanicsManager21confiscateStolenItemsERKN7MWWorld3PtrES4_
openmw:_ZN11MWMechanics16MechanicsManager21getDerivedDispositionERKN7MWWorld3PtrEb
openmw:_ZN11MWMechanics16MechanicsManager22persistAnimationStatesEv
openmw:_ZN11MWMechanics16MechanicsManager22processChangedSettingsERKSt3setISt4pairINSt7__cxx1112basic_stringIcSt11char_traitsIcESaIcEEES8_ESt4lessIS9_ESaIS9_EE
openmw:_ZN11MWMechanics16MechanicsManager23applyWerewolfAcrobaticsERKN7MWWorld3PtrE
openmw:_ZN11MWMechanics16MechanicsManager23cleanupSummonedCreatureERKN7MWWorld3PtrEi
openmw:_ZN11MWMechanics16MechanicsManager25getActorsFollowingByIndexERKN7MWWorld3PtrE
openmw:_ZN11MWMechanics16MechanicsManager25getActorsFollowingIndicesERKN7MWWorld3PtrE
openmw:_ZN11MWMechanics16MechanicsManager27confiscateStolenItemToOwnerERKN7MWWorld3PtrES4_S4_i
openmw:_ZN11MWMechanics16MechanicsManager30getPersuasionDispositionChangeERKN7MWWorld3PtrEN6MWBase16MechanicsManager14PersuasionTypeERbRiS9_
openmw:_ZN11MWMechanics16MechanicsManager3addERKN7MWWorld3PtrE
openmw:_ZN11MWMechanics16MechanicsManager4dropEPKN7MWWorld9CellStoreE
openmw:_ZN11MWMechanics16MechanicsManager4restEdb
openmw:_ZN11MWMechanics16MechanicsManager5clearEv
openmw:_ZN11MWMechanics16MechanicsManager6onOpenERKN7MWWorld3PtrE
openmw:_ZN11MWMechanics16MechanicsManager6removeERKN7MWWorld3PtrEb
openmw:_ZN11MWMechanics16MechanicsManager6updateEfb
openmw:_ZN11MWMechanics16MechanicsManager7onCloseERKN7MWWorld3PtrE
openmw:_ZN11MWMechanics16MechanicsManager8toggleAIEv
openmw:_ZN11MWMechanics16MechanicsManager9castSpellERKN7MWWorld3PtrERKNSt7__cxx1112basic_stringIcSt11char_traitsIcESaIcEEEb
openmw:_ZN11MWMechanics16MechanicsManager9isRunningERKN7MWWorld3PtrE
openmw:_ZN11MWMechanics16MechanicsManager9itemTakenERKN7MWWorld3PtrES4_S4_ib
openmw:_ZN11MWMechanics16MechanicsManager9resurrectERKN7MWWorld3PtrE
openmw:_ZN11MWMechanics16MechanicsManagerC1Ev
openmw:_ZN11MWMechanics16MechanicsManagerC2Ev
openmw:_ZN11MWMechanics16applyFatigueLossERKN7MWWorld3PtrES3_f
openmw:_ZN11MWMechanics16applyMagicEffectERKN7MWWorld3PtrES3_RKNS_12ActiveSpells17ActiveSpellParamsERN3ESM12ActiveEffectERbSB_SB_
openmw:_ZN11MWMechanics16applyMagicEffectERKN7MWWorld3PtrES3_RNS_12ActiveSpells17ActiveSpellParamsERN3ESM12ActiveEffectEf
openmw:_ZN11MWMechanics16blockMeleeAttackERKN7MWWorld3PtrES3_S3_ff
openmw:_ZN11MWMechanics16getAggroDistanceERKN7MWWorld3PtrERKN3osg5Vec3fES7_
openmw:_ZN11MWMechanics16isPlayerInCombatEv
openmw:_ZN11MWMechanics16makeFleeDecisionERKN7MWWorld3PtrES3_f
openmw:_ZN11MWMechanics16vanillaRateSpellEPKN3ESM5SpellERKN7MWWorld3PtrES7_
openmw:_ZN11MWMechanics17autoCalcNpcSpellsB5cxx11EPKiS1_PKN3ESM4RaceE
openmw:_ZN11MWMechanics17calcWeakestSchoolEPKN3ESM5SpellEPKiRiRf
openmw:_ZN11MWMechanics17isSummoningEffectEi
openmw:_ZN11MWMechanics17prepareNextActionERKN7MWWorld3PtrES3_
openmw:_ZN11MWMechanics17purgeSummonEffectERKN7MWWorld3PtrERKSt4pairIiiE
openmw:_ZN11MWMechanics17removeMagicEffectERKN7MWWorld3PtrERNS_12ActiveSpells17ActiveSpellParamsERKN3ESM12ActiveEffectE
openmw:_ZN11MWMechanics18adjustWeaponDamageERfRKN7MWWorld3PtrES4_
openmw:_ZN11MWMechanics18calcAutoCastChanceEPKN3ESM5SpellEPKiS5_i
openmw:_ZN11MWMechanics18resistNormalWeaponERKN7MWWorld3PtrES3_S3_Rf
openmw:_ZN11MWMechanics18shouldRemoveEffectERKN7MWWorld3PtrERKN3ESM12ActiveEffectE
openmw:_ZN11MWMechanics18spellSchoolToSkillEi
openmw:_ZN11MWMechanics18suggestCombatRangeEi
openmw:_ZN11MWMechanics19ActionEnchantedItem7prepareERKN7MWWorld3PtrE
openmw:_ZN11MWMechanics19CharacterController13handleTextKeyESt17basic_string_viewIcSt11char_traitsIcEESt23_Rb_tree_const_iteratorISt4pairIKfNSt7__cxx1112basic_stringIcS3_SaIcEEEEERKN9SceneUtil10TextKeyMapE
openmw:_ZN11MWMechanics19CharacterController14clearAnimQueueEb
openmw:_ZN11MWMechanics19CharacterController15playRandomDeathEf
openmw:_ZN11MWMechanics19CharacterController15setAIAttackTypeESt17basic_string_viewIcSt11char_traitsIcEE
openmw:_ZN11MWMechanics19CharacterController15updateAnimQueueEv
openmw:_ZN11MWMechanics19CharacterController16forceStateUpdateEv
openmw:_ZN11MWMechanics19CharacterController16refreshIdleAnimsENS_14CharacterStateEb
openmw:_ZN11MWMechanics19CharacterController16refreshJumpAnimsENS_12JumpingStateEb
openmw:_ZN11MWMechanics19CharacterController17updateWeaponStateENS_14CharacterStateE
openmw:_ZN11MWMechanics19CharacterController18setHeadTrackTargetERKN7MWWorld8ConstPtrE
openmw:_ZN11MWMechanics19CharacterController18updateHeadTrackingEf
openmw:_ZN11MWMechanics19CharacterController19getRandomAttackTypeEv
openmw:_ZN11MWMechanics19CharacterController19refreshCurrentAnimsENS_14CharacterStateES1_NS_12JumpingStateEb
openmw:_ZN11MWMechanics19CharacterController20refreshMovementAnimsENS_14CharacterStateEb
openmw:_ZN11MWMechanics19CharacterController20resetCurrentHitStateEv
openmw:_ZN11MWMechanics19CharacterController21refreshHitRecoilAnimsEv
openmw:_ZN11MWMechanics19CharacterController21resetCurrentIdleStateEv
openmw:_ZN11MWMechanics19CharacterController21resetCurrentJumpStateEv
openmw:_ZN11MWMechanics19CharacterController22resetCurrentDeathStateEv
openmw:_ZN11MWMechanics19CharacterController23isRandomAttackAnimationESt17basic_string_viewIcSt11char_traitsIcEE
openmw:_ZN11MWMechanics19CharacterController23resetCurrentWeaponStateEv
openmw:_ZN11MWMechanics19CharacterController23unpersistAnimationStateEv
openmw:_ZN11MWMechanics19CharacterController25resetCurrentMovementStateEv
openmw:_ZN11MWMechanics19CharacterController4killEv
openmw:_ZN11MWMechanics19CharacterController6updateEf
openmw:_ZN11MWMechanics19CharacterController8skipAnimEv
openmw:_ZN11MWMechanics19CharacterController9castSpellERKNSt7__cxx1112basic_stringIcSt11char_traitsIcESaIcEEEb
openmw:_ZN11MWMechanics19CharacterController9playDeathEfNS_14CharacterStateE
openmw:_ZN11MWMechanics19CharacterController9playGroupERKNSt7__cxx1112basic_stringIcSt11char_traitsIcESaIcEEEiib
openmw:_ZN11MWMechanics19CharacterController9resurrectEv
openmw:_ZN11MWMechanics19CharacterController9updatePtrERKN7MWWorld3PtrE
openmw:_ZN11MWMechanics19CharacterControllerC1ERKN7MWWorld3PtrEPN8MWRender9AnimationE
openmw:_ZN11MWMechanics19CharacterControllerC2ERKN7MWWorld3PtrEPN8MWRender9AnimationE
openmw:_ZN11MWMechanics19CharacterControllerD0Ev
openmw:_ZN11MWMechanics19CharacterControllerD1Ev
openmw:_ZN11MWMechanics19CharacterControllerD2Ev
openmw:_ZN11MWMechanics19canActorMoveByZAxisERKN7MWWorld3PtrE
openmw:_ZN11MWMechanics19getBestActionRatingERKN7MWWorld3PtrES3_
openmw:_ZN11MWMechanics19getEffectMultiplierEsRKN7MWWorld3PtrES3_PKN3ESM5SpellEPKNS_12MagicEffectsE
openmw:_ZN11MWMechanics19getEffectResistanceEsRKN7MWWorld3PtrES3_PKN3ESM5SpellEPKNS_12MagicEffectsE
openmw:_ZN11MWMechanics19getHandToHandDamageERKN7MWWorld3PtrES3_RfRbf
openmw:_ZN11MWMechanics19getSummonedCreatureB5cxx11Ei
openmw:_ZN11MWMechanics19spellIncreasesSkillEPKN3ESM5SpellE
openmw:_ZN11MWMechanics19spellIncreasesSkillERKNSt7__cxx1112basic_stringIcSt11char_traitsIcESaIcEEE
openmw:_ZN11MWMechanics20autoCalcPlayerSpellsB5cxx11EPKiS1_PKN3ESM4RaceE
openmw:_ZN11MWMechanics20getFightDistanceBiasERKN7MWWorld3PtrES3_
openmw:_ZN11MWMechanics20getMaxAttackDistanceERKN7MWWorld3PtrE
openmw:_ZN11MWMechanics20onMagicEffectRemovedERKN7MWWorld3PtrERNS_12ActiveSpells17ActiveSpellParamsERKN3ESM12ActiveEffectE
openmw:_ZN11MWMechanics21applyElementalShieldsERKN7MWWorld3PtrES3_
openmw:_ZN11MWMechanics21getSpellSuccessChanceEPKN3ESM5SpellERKN7MWWorld3PtrEPibb
openmw:_ZN11MWMechanics21getSpellSuccessChanceERKNSt7__cxx1112basic_stringIcSt11char_traitsIcESaIcEEERKN7MWWorld3PtrEPibb
openmw:_ZN11MWMechanics21reduceWeaponConditionEfbRN7MWWorld3PtrERKS1_
openmw:_ZN11MWMechanics23applyWerewolfDamageMultERKN7MWWorld3PtrES3_Rf
openmw:_ZN11MWMechanics23isTargetMagicallyHiddenERKN7MWWorld3PtrE
openmw:_ZN11MWMechanics24applyOnStrikeEnchantmentERKN7MWWorld3PtrES3_S3_RKN3osg5Vec3fEb
openmw:_ZN11MWMechanics24vanillaRateWeaponAndAmmoERKN7MWWorld3PtrES3_S3_S3_
openmw:_ZN11MWMechanics26calcSpellBaseSuccessChanceEPKN3ESM5SpellERKN7MWWorld3PtrEPi
openmw:_ZN11MWMechanics26isAreaOccupiedByOtherActorERKN7MWWorld8ConstPtrERKN3osg5Vec3fEbPSt6vectorINS0_3PtrESaIS9_EE
openmw:_ZN11MWMechanics27getDistanceMinusHalfExtentsERKN7MWWorld3PtrES3_b
openmw:_ZN11MWMechanics28getEffectResistanceAttributeEsPKNS_12MagicEffectsE
openmw:_ZN11MWMechanics31getEffectiveEnchantmentCastCostEfRKN7MWWorld3PtrE
openmw:_ZN11MWMechanics4StatIfE11setModifierERKf
openmw:_ZN11MWMechanics4StatIfE7setBaseERKf
openmw:_ZN11MWMechanics4StatIfE9readStateERKN3ESM9StatStateIfEE
openmw:_ZN11MWMechanics4StatIfEC1Eff
openmw:_ZN11MWMechanics4StatIfEC1Ev
openmw:_ZN11MWMechanics4StatIfEC2Eff
openmw:_ZN11MWMechanics4StatIfEC2Ev
openmw:_ZN11MWMechanics4StatIiE11setModifierERKi
openmw:_ZN11MWMechanics4StatIiE7setBaseERKi
openmw:_ZN11MWMechanics4StatIiE9readStateERKN3ESM9StatStateIiEE
openmw:_ZN11MWMechanics4StatIiEC1Eii
openmw:_ZN11MWMechanics4StatIiEC1Ev
openmw:_ZN11MWMechanics4StatIiEC2Eii
openmw:_ZN11MWMechanics4StatIiEC2Ev
openmw:_ZN11MWMechanics5zTurnERKN7MWWorld3PtrEff
openmw:_ZN11MWMechanics6Actors10dropActorsEPKN7MWWorld9CellStoreERKNS1_3PtrE
openmw:_ZN11MWMechanics6Actors10notifyDiedERKN7MWWorld3PtrE
openmw:_ZN11MWMechanics6Actors10readRecordERN3ESM9ESMReaderEj
openmw:_ZN11MWMechanics6Actors11removeActorERKN7MWWorld3PtrEb
openmw:_ZN11MWMechanics6Actors14killDeadActorsEv
openmw:_ZN11MWMechanics6Actors14updateSneakingEPNS_19CharacterControllerEf
openmw:_ZN11MWMechanics6Actors17updateCombatMusicEv
openmw:_ZN11MWMechanics6Actors19updateGreetingStateERKN7MWWorld3PtrERNS_5ActorEb
openmw:_ZN11MWMechanics6Actors21updateProcessingRangeEv
openmw:_ZN11MWMechanics6Actors5clearEv
openmw:_ZN11MWMechanics6Actors6updateEfb
openmw:_ZN11MWMechanics6Actors8addActorERKN7MWWorld3PtrEb
openmw:_ZN11MWMechanics6ActorsC1Ev
openmw:_ZN11MWMechanics6ActorsC2Ev
openmw:_ZN11MWMechanics6AiCast7executeERKN7MWWorld3PtrERNS_19CharacterControllerERNS_19DerivedClassStorageINS_15AiTemporaryBaseEEEf
openmw:_ZN11MWMechanics6AiCastC1ERKNSt7__cxx1112basic_stringIcSt11char_traitsIcESaIcEEES8_b
openmw:_ZN11MWMechanics6AiCastC2ERKNSt7__cxx1112basic_stringIcSt11char_traitsIcESaIcEEES8_b
openmw:_ZN11MWMechanics6AiFace7executeERKN7MWWorld3PtrERNS_19CharacterControllerERNS_19DerivedClassStorageINS_15AiTemporaryBaseEEEf
openmw:_ZN11MWMechanics6AiFaceC1Eff
openmw:_ZN11MWMechanics6AiFaceC2Eff
openmw:_ZN11MWMechanics6Repair6repairERKN7MWWorld3PtrE
openmw:_ZN11MWMechanics6Spells11purgeCursesEv
openmw:_ZN11MWMechanics6Spells11removeSpellEPKN3ESM5SpellE
openmw:_ZN11MWMechanics6Spells15removeAllSpellsEv
openmw:_ZN11MWMechanics6Spells16addAllToInstanceERKSt6vectorINSt7__cxx1112basic_stringIcSt11char_traitsIcESaIcEEESaIS7_EE
openmw:_ZN11MWMechanics6Spells16hasCorprusEffectEPKN3ESM5SpellE
openmw:_ZN11MWMechanics6Spells16setSelectedSpellERKNSt7__cxx1112basic_stringIcSt11char_traitsIcESaIcEEE
openmw:_ZN11MWMechanics6Spells18purgeBlightDiseaseEv
openmw:_ZN11MWMechanics6Spells18purgeCommonDiseaseEv
openmw:_ZN11MWMechanics6Spells19purgeCorprusDiseaseEv
openmw:_ZN11MWMechanics6Spells3addEPKN3ESM5SpellE
openmw:_ZN11MWMechanics6Spells3addERKNSt7__cxx1112basic_stringIcSt11char_traitsIcESaIcEEE
openmw:_ZN11MWMechanics6Spells5clearEb
openmw:_ZN11MWMechanics6Spells5purgeERKPFbPKN3ESM5SpellEE
openmw:_ZN11MWMechanics6Spells6removeERKNSt7__cxx1112basic_stringIcSt11char_traitsIcESaIcEEE
openmw:_ZN11MWMechanics6Spells8addSpellEPKN3ESM5SpellE
openmw:_ZN11MWMechanics6Spells8usePowerEPKN3ESM5SpellE
openmw:_ZN11MWMechanics6Spells9readStateERKN3ESM10SpellStateEPNS_13CreatureStatsE
openmw:_ZN11MWMechanics6Spells9setSpellsERKNSt7__cxx1112basic_stringIcSt11char_traitsIcESaIcEEE
openmw:_ZN11MWMechanics6SpellsC1EOS0_
openmw:_ZN11MWMechanics6SpellsC1ERKS0_
openmw:_ZN11MWMechanics6SpellsC1Ev
openmw:_ZN11MWMechanics6SpellsC2EOS0_
openmw:_ZN11MWMechanics6SpellsC2ERKS0_
openmw:_ZN11MWMechanics6SpellsC2Ev
openmw:_ZN11MWMechanics6SpellsD1Ev
openmw:_ZN11MWMechanics6SpellsD2Ev
openmw:_ZN11MWMechanics7Alchemy11knownEffectEjRKN7MWWorld3PtrE
openmw:_ZN11MWMechanics7Alchemy12createSingleEv
openmw:_ZN11MWMechanics7Alchemy12setAlchemistERKN7MWWorld3PtrE
openmw:_ZN11MWMechanics7Alchemy13addIngredientERKN7MWWorld3PtrE
openmw:_ZN11MWMechanics7Alchemy13increaseSkillEv
openmw:_ZN11MWMechanics7Alchemy13setPotionNameERKNSt7__cxx1112basic_stringIcSt11char_traitsIcESaIcEEE
openmw:_ZN11MWMechanics7Alchemy13updateEffectsEv
openmw:_ZN11MWMechanics7Alchemy16removeIngredientEi
openmw:_ZN11MWMechanics7Alchemy17removeIngredientsEv
openmw:_ZN11MWMechanics7Alchemy17suggestPotionNameB5cxx11Ev
openmw:_ZN11MWMechanics7Alchemy18effectsDescriptionB5cxx11ERKN7MWWorld8ConstPtrEi
openmw:_ZN11MWMechanics7Alchemy5clearEv
openmw:_ZN11MWMechanics7Alchemy6createERKNSt7__cxx1112basic_stringIcSt11char_traitsIcESaIcEEERi
openmw:_ZN11MWMechanics7Alchemy9addPotionERKNSt7__cxx1112basic_stringIcSt11char_traitsIcESaIcEEE
openmw:_ZN11MWMechanics7AlchemyC1Ev
openmw:_ZN11MWMechanics7AlchemyC2Ev
openmw:_ZN11MWMechanics7Objects11dropObjectsEPKN7MWWorld9CellStoreE
openmw:_ZN11MWMechanics7Objects12removeObjectERKN7MWWorld3PtrE
openmw:_ZN11MWMechanics7Objects12updateObjectERKN7MWWorld3PtrES4_
openmw:_ZN11MWMechanics7Objects13skipAnimationERKN7MWWorld3PtrE
openmw:_ZN11MWMechanics7Objects18playAnimationGroupERKN7MWWorld3PtrERKNSt7__cxx1112basic_stringIcSt11char_traitsIcESaIcEEEiib
openmw:_ZN11MWMechanics7Objects22persistAnimationStatesEv
openmw:_ZN11MWMechanics7Objects6onOpenERKN7MWWorld3PtrE
openmw:_ZN11MWMechanics7Objects6updateEfb
openmw:_ZN11MWMechanics7Objects7onCloseERKN7MWWorld3PtrE
openmw:_ZN11MWMechanics7Objects9addObjectERKN7MWWorld3PtrE
openmw:_ZN11MWMechanics7Trading6haggleERKN7MWWorld3PtrES4_ii
openmw:_ZN11MWMechanics7TradingC1Ev
openmw:_ZN11MWMechanics7TradingC2Ev
openmw:_ZN11MWMechanics8AiCombat13updateFleeingERKN7MWWorld3PtrES4_fRNS_15AiCombatStorageE
openmw:_ZN11MWMechanics8AiCombat17rotateActorOnAxisERKN7MWWorld3PtrEiRNS_8MovementERNS_15AiCombatStorageE
openmw:_ZN11MWMechanics8AiCombat20updateActorsMovementERKN7MWWorld3PtrEfRNS_15AiCombatStorageE
openmw:_ZN11MWMechanics8AiCombat4initEv
openmw:_ZN11MWMechanics8AiCombat6attackERKN7MWWorld3PtrES4_RNS_15AiCombatStorageERNS_19CharacterControllerE
openmw:_ZN11MWMechanics8AiCombat7executeERKN7MWWorld3PtrERNS_19CharacterControllerERNS_19DerivedClassStorageINS_15AiTemporaryBaseEEEf
openmw:_ZN11MWMechanics8AiCombat9updateLOSERKN7MWWorld3PtrES4_fRNS_15AiCombatStorageE
openmw:_ZN11MWMechanics8AiCombatC1EPKN3ESM10AiSequence8AiCombatE
openmw:_ZN11MWMechanics8AiCombatC1ERKN7MWWorld3PtrE
openmw:_ZN11MWMechanics8AiCombatC2EPKN3ESM10AiSequence8AiCombatE
openmw:_ZN11MWMechanics8AiCombatC2ERKN7MWWorld3PtrE
openmw:_ZN11MWMechanics8AiEscort11fastForwardERKN7MWWorld3PtrERNS_19DerivedClassStorageINS_15AiTemporaryBaseEEE
openmw:_ZN11MWMechanics8AiEscort7executeERKN7MWWorld3PtrERNS_19CharacterControllerERNS_19DerivedClassStorageINS_15AiTemporaryBaseEEEf
openmw:_ZN11MWMechanics8AiEscortC1EPKN3ESM10AiSequence8AiEscortE
openmw:_ZN11MWMechanics8AiEscortC1ESt17basic_string_viewIcSt11char_traitsIcEES4_ifffb
openmw:_ZN11MWMechanics8AiEscortC1ESt17basic_string_viewIcSt11char_traitsIcEEifffb
openmw:_ZN11MWMechanics8AiEscortC2EPKN3ESM10AiSequence8AiEscortE
openmw:_ZN11MWMechanics8AiEscortC2ESt17basic_string_viewIcSt11char_traitsIcEES4_ifffb
openmw:_ZN11MWMechanics8AiEscortC2ESt17basic_string_viewIcSt11char_traitsIcEEifffb
openmw:_ZN11MWMechanics8AiFollow11fastForwardERKN7MWWorld3PtrERNS_19DerivedClassStorageINS_15AiTemporaryBaseEEE
openmw:_ZN11MWMechanics8AiFollow16getFollowedActorB5cxx11Ev
openmw:_ZN11MWMechanics8AiFollow19mFollowIndexCounterE
openmw:_ZN11MWMechanics8AiFollow7executeERKN7MWWorld3PtrERNS_19CharacterControllerERNS_19DerivedClassStorageINS_15AiTemporaryBaseEEEf
openmw:_ZN11MWMechanics8AiFollowC1EPKN3ESM10AiSequence8AiFollowE
openmw:_ZN11MWMechanics8AiFollowC1ERKN7MWWorld3PtrEb
openmw:_ZN11MWMechanics8AiFollowC1ESt17basic_string_viewIcSt11char_traitsIcEES4_ffffb
openmw:_ZN11MWMechanics8AiFollowC1ESt17basic_string_viewIcSt11char_traitsIcEEffffb
openmw:_ZN11MWMechanics8AiFollowC2EPKN3ESM10AiSequence8AiFollowE
openmw:_ZN11MWMechanics8AiFollowC2ERKN7MWWorld3PtrEb
openmw:_ZN11MWMechanics8AiFollowC2ESt17basic_string_viewIcSt11char_traitsIcEES4_ffffb
openmw:_ZN11MWMechanics8AiFollowC2ESt17basic_string_viewIcSt11char_traitsIcEEffffb
openmw:_ZN11MWMechanics8AiPursue7executeERKN7MWWorld3PtrERNS_19CharacterControllerERNS_19DerivedClassStorageINS_15AiTemporaryBaseEEEf
openmw:_ZN11MWMechanics8AiPursueC1EPKN3ESM10AiSequence8AiPursueE
openmw:_ZN11MWMechanics8AiPursueC1ERKN7MWWorld3PtrE
openmw:_ZN11MWMechanics8AiPursueC2EPKN3ESM10AiSequence8AiPursueE
openmw:_ZN11MWMechanics8AiPursueC2ERKN7MWWorld3PtrE
openmw:_ZN11MWMechanics8AiTravel11fastForwardERKN7MWWorld3PtrERNS_19DerivedClassStorageINS_15AiTemporaryBaseEEE
openmw:_ZN11MWMechanics8AiTravel7executeERKN7MWWorld3PtrERNS_19CharacterControllerERNS_19DerivedClassStorageINS_15AiTemporaryBaseEEEf
openmw:_ZN11MWMechanics8AiTravelC1EPKN3ESM10AiSequence8AiTravelE
openmw:_ZN11MWMechanics8AiTravelC1EfffPNS_16AiInternalTravelE
openmw:_ZN11MWMechanics8AiTravelC1Efffb
openmw:_ZN11MWMechanics8AiTravelC1EfffbPS0_
openmw:_ZN11MWMechanics8AiTravelC2EPKN3ESM10AiSequence8AiTravelE
openmw:_ZN11MWMechanics8AiTravelC2EfffPNS_16AiInternalTravelE
openmw:_ZN11MWMechanics8AiTravelC2Efffb
openmw:_ZN11MWMechanics8AiTravelC2EfffbPS0_
openmw:_ZN11MWMechanics8AiWander11fastForwardERKN7MWWorld3PtrERNS_19DerivedClassStorageINS_15AiTemporaryBaseEEE
openmw:_ZN11MWMechanics8AiWander11stopWalkingERKN7MWWorld3PtrE
openmw:_ZN11MWMechanics8AiWander14evadeObstaclesERKN7MWWorld3PtrERNS_15AiWanderStorageE
openmw:_ZN11MWMechanics8AiWander15getAllowedNodesERKN7MWWorld3PtrEPKN3ESM4CellERNS_15AiWanderStorageE
openmw:_ZN11MWMechanics8AiWander15wanderNearStartERKN7MWWorld3PtrERNS_15AiWanderStorageEi
openmw:_ZN11MWMechanics8AiWander16trimAllowedNodesERSt6vectorIN3ESM8Pathgrid5PointESaIS4_EERKNS_10PathFinderE
openmw:_ZN11MWMechanics8AiWander18ToWorldCoordinatesERN3ESM8Pathgrid5PointEPKNS1_4CellE
openmw:_ZN11MWMechanics8AiWander19reactionTimeActionsERKN7MWWorld3PtrERNS_15AiWanderStorageERN3ESM8PositionE
openmw:_ZN11MWMechanics8AiWander20destinationIsAtWaterERKN7MWWorld3PtrERKN3osg5Vec3fE
openmw:_ZN11MWMechanics8AiWander20getNeighbouringNodesEN3ESM8Pathgrid5PointEPKN7MWWorld9CellStoreERSt6vectorIS3_SaIS3_EE
openmw:_ZN11MWMechanics8AiWander21completeManualWalkingERKN7MWWorld3PtrERNS_15AiWanderStorageE
openmw:_ZN11MWMechanics8AiWander22sIdleSelectToGroupNameB5cxx11E
openmw:_ZN11MWMechanics8AiWander22setPathToAnAllowedNodeERKN7MWWorld3PtrERNS_15AiWanderStorageERKN3ESM8PositionE
openmw:_ZN11MWMechanics8AiWander25doPerFrameActionsForStateERKN7MWWorld3PtrEfRNS_15AiWanderStorageE
openmw:_ZN11MWMechanics8AiWander26onIdleStatePerFrameActionsERKN7MWWorld3PtrEfRNS_15AiWanderStorageE
openmw:_ZN11MWMechanics8AiWander27AddNonPathGridAllowedPointsEN3osg5Vec3fEPKN3ESM8PathgridEiRNS_15AiWanderStorageE
openmw:_ZN11MWMechanics8AiWander29AddPointBetweenPathGridPointsERKN3ESM8Pathgrid5PointES5_RNS_15AiWanderStorageE
openmw:_ZN11MWMechanics8AiWander29onWalkingStatePerFrameActionsERKN7MWWorld3PtrEfRNS_15AiWanderStorageE
openmw:_ZN11MWMechanics8AiWander34SetCurrentNodeToClosestAllowedNodeERKN3osg5Vec3fERNS_15AiWanderStorageE
openmw:_ZN11MWMechanics8AiWander34onChooseActionStatePerFrameActionsERKN7MWWorld3PtrERNS_15AiWanderStorageE
openmw:_ZN11MWMechanics8AiWander7executeERKN7MWWorld3PtrERNS_19CharacterControllerERNS_19DerivedClassStorageINS_15AiTemporaryBaseEEEf
openmw:_ZN11MWMechanics8AiWander8playIdleERKN7MWWorld3PtrEt
openmw:_ZN11MWMechanics8AiWander9checkIdleERKN7MWWorld3PtrEt
openmw:_ZN11MWMechanics8AiWanderC1EPKN3ESM10AiSequence8AiWanderE
openmw:_ZN11MWMechanics8AiWanderC1EiiiRKSt6vectorIhSaIhEEb
openmw:_ZN11MWMechanics8AiWanderC2EPKN3ESM10AiSequence8AiWanderE
openmw:_ZN11MWMechanics8AiWanderC2EiiiRKSt6vectorIhSaIhEEb
openmw:_ZN11MWMechanics8NpcStats10flagAsUsedERKNSt7__cxx1112basic_stringIcSt11char_traitsIcESaIcEEE
openmw:_ZN11MWMechanics8NpcStats10setCrimeIdEi
openmw:_ZN11MWMechanics8NpcStats11joinFactionERKNSt7__cxx1112basic_stringIcSt11char_traitsIcESaIcEEE
openmw:_ZN11MWMechanics8NpcStats11setWerewolfEb
openmw:_ZN11MWMechanics8NpcStats12updateHealthEv
openmw:_ZN11MWMechanics8NpcStats13clearExpelledERKNSt7__cxx1112basic_stringIcSt11char_traitsIcESaIcEEE
openmw:_ZN11MWMechanics8NpcStats13increaseSkillEiRKN3ESM5ClassEbb
openmw:_ZN11MWMechanics8NpcStats13setReputationEi
openmw:_ZN11MWMechanics8NpcStats15addWerewolfKillEv
openmw:_ZN11MWMechanics8NpcStats18setBaseDispositionEi
openmw:_ZN11MWMechanics8NpcStats20setFactionReputationERKNSt7__cxx1112basic_stringIcSt11char_traitsIcESaIcEEEi
openmw:_ZN11MWMechanics8NpcStats22setTimeToStartDrowningEf
openmw:_ZN11MWMechanics8NpcStats6expellERKNSt7__cxx1112basic_stringIcSt11char_traitsIcESaIcEEE
openmw:_ZN11MWMechanics8NpcStats7levelUpEv
openmw:_ZN11MWMechanics8NpcStats8getSkillEi
openmw:_ZN11MWMechanics8NpcStats8setSkillEiRKNS_10SkillValueE
openmw:_ZN11MWMechanics8NpcStats8useSkillEiRKN3ESM5ClassEif
openmw:_ZN11MWMechanics8NpcStats9lowerRankERKNSt7__cxx1112basic_stringIcSt11char_traitsIcESaIcEEE
openmw:_ZN11MWMechanics8NpcStats9raiseRankERKNSt7__cxx1112basic_stringIcSt11char_traitsIcESaIcEEE
openmw:_ZN11MWMechanics8NpcStats9readStateERKN3ESM13CreatureStatsE
openmw:_ZN11MWMechanics8NpcStats9readStateERKN3ESM8NpcStatsE
openmw:_ZN11MWMechanics8NpcStats9setBountyEi
openmw:_ZN11MWMechanics8NpcStatsC1Ev
openmw:_ZN11MWMechanics8NpcStatsC2Ev
openmw:_ZN11MWMechanics8Security8pickLockERKN7MWWorld3PtrES4_RNSt7__cxx1112basic_stringIcSt11char_traitsIcESaIcEEESB_
openmw:_ZN11MWMechanics8Security9probeTrapERKN7MWWorld3PtrES4_RNSt7__cxx1112basic_stringIcSt11char_traitsIcESaIcEEESB_
openmw:_ZN11MWMechanics8SecurityC1ERKN7MWWorld3PtrE
openmw:_ZN11MWMechanics8SecurityC2ERKN7MWWorld3PtrE
openmw:_ZN11MWMechanics8canFightERKN7MWWorld3PtrES3_
openmw:_ZN11MWMechanics8rateAmmoERKN7MWWorld3PtrES3_RS1_i
openmw:_ZN11MWMechanics8rateAmmoERKN7MWWorld3PtrES3_i
openmw:_ZN11MWMechanics9AiBreathe7executeERKN7MWWorld3PtrERNS_19CharacterControllerERNS_19DerivedClassStorageINS_15AiTemporaryBaseEEEf
openmw:_ZN11MWMechanics9AiPackage12shortcutPathERKN3osg5Vec3fES4_RKN7MWWorld3PtrEPbb
openmw:_ZN11MWMechanics9AiPackage14evadeObstaclesERKN7MWWorld3PtrE
openmw:_ZN11MWMechanics9AiPackage16getPathGridGraphEPKN7MWWorld9CellStoreE
openmw:_ZN11MWMechanics9AiPackage18isNearInactiveCellEN3osg5Vec3fE
openmw:_ZN11MWMechanics9AiPackage23checkWayIsClearForActorERKN3osg5Vec3fES4_RKN7MWWorld3PtrE
openmw:_ZN11MWMechanics9AiPackage27isReachableRotatingOnTheRunERKN7MWWorld3PtrERKN3osg5Vec3fE
openmw:_ZN11MWMechanics9AiPackage5resetEv
openmw:_ZN11MWMechanics9AiPackage6pathToERKN7MWWorld3PtrERKN3osg5Vec3fEfffNS_8PathTypeE
openmw:_ZN11MWMechanics9AiPackage9openDoorsERKN7MWWorld3PtrE
openmw:_ZN11MWMechanics9AiPackageC1ENS_15AiPackageTypeIdERKNS0_7OptionsE
openmw:_ZN11MWMechanics9AiPackageC2ENS_15AiPackageTypeIdERKNS0_7OptionsE
openmw:_ZN11MWMechanics9CastSpell15launchMagicBoltEv
openmw:_ZN11MWMechanics9CastSpell23playSpellCastingEffectsERKNSt7__cxx1112basic_stringIcSt11char_traitsIcESaIcEEEb
openmw:_ZN11MWMechanics9CastSpell23playSpellCastingEffectsERKSt6vectorIN3ESM10ENAMstructESaIS3_EE
openmw:_ZN11MWMechanics9CastSpell4castEPKN3ESM10IngredientE
openmw:_ZN11MWMechanics9CastSpell4castEPKN3ESM5SpellE
openmw:_ZN11MWMechanics9CastSpell4castEPKN3ESM6PotionE
openmw:_ZN11MWMechanics9CastSpell4castERKN7MWWorld3PtrEib
openmw:_ZN11MWMechanics9CastSpell4castERKNSt7__cxx1112basic_stringIcSt11char_traitsIcESaIcEEE
openmw:_ZN11MWMechanics9CastSpell7inflictERKN7MWWorld3PtrES4_RKN3ESM10EffectListENS5_9RangeTypeEb
openmw:_ZN11MWMechanics9CastSpellC1ERKN7MWWorld3PtrES4_bb
openmw:_ZN11MWMechanics9CastSpellC2ERKN7MWWorld3PtrES4_bb
openmw:_ZN11MWMechanics9EffectKeyC1ERKN3ESM10ENAMstructE
openmw:_ZN11MWMechanics9EffectKeyC1Ev
openmw:_ZN11MWMechanics9EffectKeyC2ERKN3ESM10ENAMstructE
openmw:_ZN11MWMechanics9EffectKeyC2Ev
openmw:_ZN11MWMechanics9SpellList11addListenerEPNS_6SpellsE
openmw:_ZN11MWMechanics9SpellList14removeListenerEPNS_6SpellsE
openmw:_ZN11MWMechanics9SpellList14updateListenerEPNS_6SpellsES2_
openmw:_ZN11MWMechanics9SpellList14withBaseRecordERKSt8functionIFbRSt6vectorINSt7__cxx1112basic_stringIcSt11char_traitsIcESaIcEEESaIS8_EEEE
openmw:_ZN11MWMechanics9SpellList3addEPKN3ESM5SpellE
openmw:_ZN11MWMechanics9SpellList5clearEv
openmw:_ZN11MWMechanics9SpellList6removeEPKN3ESM5SpellE
openmw:_ZN11MWMechanics9SpellList8getSpellERKNSt7__cxx1112basic_stringIcSt11char_traitsIcESaIcEEE
openmw:_ZN11MWMechanics9SpellList9removeAllERKSt6vectorINSt7__cxx1112basic_stringIcSt11char_traitsIcESaIcEEESaIS7_EE
openmw:_ZN11MWMechanics9SpellListC1ERKNSt7__cxx1112basic_stringIcSt11char_traitsIcESaIcEEEi
openmw:_ZN11MWMechanics9SpellListC2ERKNSt7__cxx1112basic_stringIcSt11char_traitsIcESaIcEEEi
openmw:_ZN11MWMechanics9getPlayerEv
openmw:_ZN11MWMechanics9rateSpellEPKN3ESM5SpellERKN7MWWorld3PtrES7_
openmw:_ZN11MWMechanicsltERKNS_9EffectKeyES2_
openmw:_ZN11Translation7Storage10setEncoderEPN6ToUTF811Utf8EncoderE
openmw:_ZN11Translation7Storage18loadDataFromStreamERSt3mapINSt7__cxx1112basic_stringIcSt11char_traitsIcESaIcEEES7_St4lessIS7_ESaISt4pairIKS7_S7_EEERSi
openmw:_ZN11Translation7Storage19loadTranslationDataERKN5Files11CollectionsERKNSt7__cxx1112basic_stringIcSt11char_traitsIcESaIcEEE
openmw:_ZN11Translation7Storage8loadDataERSt3mapINSt7__cxx1112basic_stringIcSt11char_traitsIcESaIcEEES7_St4lessIS7_ESaISt4pairIKS7_S7_EEERSB_SG_RKN5Files11CollectionsE
openmw:_ZN11Translation7StorageC1Ev
openmw:_ZN11Translation7StorageC2Ev
openmw:_ZN15DetourNavigator10DbJobQueue3popEv
openmw:_ZN15DetourNavigator10DbJobQueue4pushESt14_List_iteratorINS_3JobEE
openmw:_ZN15DetourNavigator10DbJobQueue4stopEv
openmw:_ZN15DetourNavigator10DbJobQueue6updateEN3osg5Vec2iEi
openmw:_ZN15DetourNavigator10RecastMeshC1EmmNS_4MeshESt6vectorINS_9CellWaterESaIS3_EES2_INS_11HeightfieldESaIS6_EES2_INS_15FlatHeightfieldESaIS9_EES2_INS_10MeshSourceESaISC_EE
openmw:_ZN15DetourNavigator10RecastMeshC2EmmNS_4MeshESt6vectorINS_9CellWaterESaIS3_EES2_INS_11HeightfieldESaIS6_EES2_INS_15FlatHeightfieldESaIS9_EES2_INS_10MeshSourceESaISC_EE
openmw:_ZN15DetourNavigator11deserializeERKSt6vectorISt4byteSaIS1_EERNS_19PreparedNavMeshDataE
openmw:_ZN15DetourNavigator11reportStatsERKNS_17NavMeshTilesCache5StatsEjRN3osg5StatsE
openmw:_ZN15DetourNavigator11reportStatsERKNS_19AsyncNavMeshUpdater5StatsEjRN3osg5StatsE
openmw:_ZN15DetourNavigator11writeToFileERK9dtNavMeshRKNSt7__cxx1112basic_stringIcSt11char_traitsIcESaIcEEESA_
openmw:_ZN15DetourNavigator11writeToFileERKNS_10RecastMeshERKNSt7__cxx1112basic_stringIcSt11char_traitsIcESaIcEEESA_RKNS_14RecastSettingsE
openmw:_ZN15DetourNavigator12copyPolyMeshERK10rcPolyMeshRS0_
openmw:_ZN15DetourNavigator13NavigatorImpl11addPathgridERKN3ESM4CellERKNS1_8PathgridE
openmw:_ZN15DetourNavigator13NavigatorImpl11removeAgentERKNS_11AgentBoundsE
openmw:_ZN15DetourNavigator13NavigatorImpl11removeWaterERKN3osg5Vec2iE
openmw:_ZN15DetourNavigator13NavigatorImpl12removeObjectENS_8ObjectIdE
openmw:_ZN15DetourNavigator13NavigatorImpl12updateBoundsERKN3osg5Vec3fE
openmw:_ZN15DetourNavigator13NavigatorImpl12updateObjectENS_8ObjectIdERKNS_10DoorShapesERK11btTransform
openmw:_ZN15DetourNavigator13NavigatorImpl12updateObjectENS_8ObjectIdERKNS_12ObjectShapesERK11btTransform
openmw:_ZN15DetourNavigator13NavigatorImpl13setWorldspaceESt17basic_string_viewIcSt11char_traitsIcEE
openmw:_ZN15DetourNavigator13NavigatorImpl14addHeightfieldERKN3osg5Vec2iEiRKSt7variantIJNS_16HeightfieldPlaneENS_18HeightfieldSurfaceEEE
openmw:_ZN15DetourNavigator13NavigatorImpl14removePathgridERKN3ESM8PathgridE
openmw:_ZN15DetourNavigator13NavigatorImpl17removeHeightfieldERKN3osg5Vec2iE
openmw:_ZN15DetourNavigator13NavigatorImpl17setUpdatesEnabledEb
openmw:_ZN15DetourNavigator13NavigatorImpl18updateAvoidShapeIdENS_8ObjectIdES1_
openmw:_ZN15DetourNavigator13NavigatorImpl18updateWaterShapeIdENS_8ObjectIdES1_
openmw:_ZN15DetourNavigator13NavigatorImpl20updatePlayerPositionERKN3osg5Vec3fE
openmw:_ZN15DetourNavigator13NavigatorImpl21removeUnusedNavMeshesEv
openmw:_ZN15DetourNavigator13NavigatorImpl4waitERN7Loading8ListenerENS_17WaitConditionTypeE
openmw:_ZN15DetourNavigator13NavigatorImpl6updateERKN3osg5Vec3fE
openmw:_ZN15DetourNavigator13NavigatorImpl8addAgentERKNS_11AgentBoundsE
openmw:_ZN15DetourNavigator13NavigatorImpl8addWaterERKN3osg5Vec2iEif
openmw:_ZN15DetourNavigator13NavigatorImpl8updateIdENS_8ObjectIdES1_RSt13unordered_mapIS1_S1_St4hashIS1_ESt8equal_toIS1_ESaISt4pairIKS1_S1_EEE
openmw:_ZN15DetourNavigator13NavigatorImpl9addObjectENS_8ObjectIdERKNS_10DoorShapesERK11btTransform
openmw:_ZN15DetourNavigator13NavigatorImpl9addObjectENS_8ObjectIdERKNS_12ObjectShapesERK11btTransform
openmw:_ZN15DetourNavigator13NavigatorImplC1ERKNS_8SettingsEOSt10unique_ptrINS_9NavMeshDbESt14default_deleteIS5_EE
openmw:_ZN15DetourNavigator13NavigatorImplC2ERKNS_8SettingsEOSt10unique_ptrINS_9NavMeshDbESt14default_deleteIS5_EE
openmw:_ZN15DetourNavigator13fixupCorridorERSt6vectorIjSaIjEEmRKS2_
openmw:_ZN15DetourNavigator13makeNavigatorERKNS_8SettingsERKNSt7__cxx1112basic_stringIcSt11char_traitsIcESaIcEEE
openmw:_ZN15DetourNavigator14NavMeshManager11removeWaterERKN3osg5Vec2iE
openmw:_ZN15DetourNavigator14NavMeshManager12removeObjectENS_8ObjectIdE
openmw:_ZN15DetourNavigator14NavMeshManager12updateBoundsERKN3osg5Vec3fE
openmw:_ZN15DetourNavigator14NavMeshManager12updateObjectENS_8ObjectIdERKNS_14CollisionShapeERK11btTransformNS_8AreaTypeE
openmw:_ZN15DetourNavigator14NavMeshManager13setWorldspaceESt17basic_string_viewIcSt11char_traitsIcEE
openmw:_ZN15DetourNavigator14NavMeshManager14addChangedTileERKN3osg5Vec2iENS_10ChangeTypeE
openmw:_ZN15DetourNavigator14NavMeshManager14addHeightfieldERKN3osg5Vec2iEiRKSt7variantIJNS_16HeightfieldPlaneENS_18HeightfieldSurfaceEEE
openmw:_ZN15DetourNavigator14NavMeshManager15addChangedTilesERK16btCollisionShapeRK11btTransformNS_10ChangeTypeE
openmw:_ZN15DetourNavigator14NavMeshManager15addChangedTilesEiRK9btVector3NS_10ChangeTypeE
openmw:_ZN15DetourNavigator14NavMeshManager17removeHeightfieldERKN3osg5Vec2iE
openmw:_ZN15DetourNavigator14NavMeshManager20addOffMeshConnectionENS_8ObjectIdERKN3osg5Vec3fES5_NS_8AreaTypeE
openmw:_ZN15DetourNavigator14NavMeshManager24removeOffMeshConnectionsENS_8ObjectIdE
openmw:_ZN15DetourNavigator14NavMeshManager4waitERN7Loading8ListenerENS_17WaitConditionTypeE
openmw:_ZN15DetourNavigator14NavMeshManager5resetERKNS_11AgentBoundsE
openmw:_ZN15DetourNavigator14NavMeshManager6updateERKN3osg5Vec3fERKNS_11AgentBoundsE
openmw:_ZN15DetourNavigator14NavMeshManager8addAgentERKNS_11AgentBoundsE
openmw:_ZN15DetourNavigator14NavMeshManager8addWaterERKN3osg5Vec2iEif
openmw:_ZN15DetourNavigator14NavMeshManager9addObjectENS_8ObjectIdERKNS_14CollisionShapeERK11btTransformNS_8AreaTypeE
openmw:_ZN15DetourNavigator14NavMeshManagerC1ERKNS_8SettingsEOSt10unique_ptrINS_9NavMeshDbESt14default_deleteIS5_EE
openmw:_ZN15DetourNavigator14NavMeshManagerC2ERKNS_8SettingsEOSt10unique_ptrINS_9NavMeshDbESt14default_deleteIS5_EE
openmw:_ZN15DetourNavigator14fixupShortcutsEPjmRK14dtNavMeshQuery
openmw:_ZN15DetourNavigator14getSteerTargetERK14dtNavMeshQueryRKN3osg5Vec3fES6_fPKjm
openmw:_ZN15DetourNavigator15findNearestPolyERK14dtNavMeshQueryRK13dtQueryFilterRKN3osg5Vec3fES9_
openmw:_ZN15DetourNavigator15getIntersectionERKNS_19TilesPositionsRangeES2_
openmw:_ZN15DetourNavigator15permRecastAllocER10rcPolyMesh
openmw:_ZN15DetourNavigator15permRecastAllocER16rcPolyMeshDetail
openmw:_ZN15DetourNavigator15permRecastAllocEm
openmw:_ZN15DetourNavigator16NavMeshCacheItem10removeTileERKN3osg5Vec2iE
openmw:_ZN15DetourNavigator16NavMeshCacheItem10updateTileERKN3osg5Vec2iEONS_17NavMeshTilesCache5ValueEONS_11NavMeshDataE
openmw:_ZN15DetourNavigator16NavMeshCacheItem11markAsEmptyERKN3osg5Vec2iE
openmw:_ZN15DetourNavigator16RecastMeshObjectC1ERKNS_14CollisionShapeERK11btTransformNS_8AreaTypeE
openmw:_ZN15DetourNavigator16RecastMeshObjectC2ERKNS_14CollisionShapeERK11btTransformNS_8AreaTypeE
openmw:_ZN15DetourNavigator16makeEmptyNavMeshERKNS_8SettingsE
openmw:_ZN15DetourNavigator17NavMeshTilesCache11releaseItemESt14_List_iteratorINS0_4ItemEE
openmw:_ZN15DetourNavigator17NavMeshTilesCache17acquireItemUnsafeESt14_List_iteratorINS0_4ItemEE
openmw:_ZN15DetourNavigator17NavMeshTilesCache23removeLeastRecentlyUsedEv
openmw:_ZN15DetourNavigator17NavMeshTilesCache3getERKNS_11AgentBoundsERKN3osg5Vec2iERKNS_10RecastMeshE
openmw:_ZN15DetourNavigator17NavMeshTilesCache3setERKNS_11AgentBoundsERKN3osg5Vec2iERKNS_10RecastMeshEOSt10unique_ptrINS_19PreparedNavMeshDataESt14default_deleteISC_EE
openmw:_ZN15DetourNavigator17NavMeshTilesCacheC1Em
openmw:_ZN15DetourNavigator17NavMeshTilesCacheC2Em
openmw:_ZN15DetourNavigator17RecastMeshBuilder14addHeightfieldERKN3osg5Vec2iEiPKfmff
openmw:_ZN15DetourNavigator17RecastMeshBuilder14addHeightfieldERKN3osg5Vec2iEif
openmw:_ZN15DetourNavigator17RecastMeshBuilder8addWaterERKN3osg5Vec2iERKNS_5WaterE
openmw:_ZN15DetourNavigator17RecastMeshBuilder9addObjectERK10btBoxShapeRK11btTransformNS_8AreaTypeE
openmw:_ZN15DetourNavigator17RecastMeshBuilder9addObjectERK14btConcaveShapeRK11btTransformNS_8AreaTypeE
openmw:_ZN15DetourNavigator17RecastMeshBuilder9addObjectERK14btConcaveShapeRK11btTransformO18btTriangleCallback
openmw:_ZN15DetourNavigator17RecastMeshBuilder9addObjectERK15btCompoundShapeRK11btTransformNS_8AreaTypeE
openmw:_ZN15DetourNavigator17RecastMeshBuilder9addObjectERK16btCollisionShapeRK11btTransformNS_8AreaTypeEN3osg7ref_ptrIKN8Resource11BulletShapeEEERKNS_15ObjectTransformE
openmw:_ZN15DetourNavigator17RecastMeshBuilder9addObjectERK25btHeightfieldTerrainShapeRK11btTransformNS_8AreaTypeE
openmw:_ZN15DetourNavigator17RecastMeshBuilder9addObjectERK25btHeightfieldTerrainShapeRK11btTransformO18btTriangleCallback
openmw:_ZN15DetourNavigator17RecastMeshBuilderC1ERKNS_10TileBoundsE
openmw:_ZN15DetourNavigator17RecastMeshBuilderC2ERKNS_10TileBoundsE
openmw:_ZN15DetourNavigator17RecastMeshManager11removeWaterERKN3osg5Vec2iE
openmw:_ZN15DetourNavigator17RecastMeshManager12removeObjectENS_8ObjectIdE
openmw:_ZN15DetourNavigator17RecastMeshManager12updateObjectENS_8ObjectIdERK11btTransformNS_8AreaTypeE
openmw:_ZN15DetourNavigator17RecastMeshManager14addHeightfieldERKN3osg5Vec2iEiRKSt7variantIJNS_16HeightfieldPlaneENS_18HeightfieldSurfaceEEE
openmw:_ZN15DetourNavigator17RecastMeshManager17removeHeightfieldERKN3osg5Vec2iE
openmw:_ZN15DetourNavigator17RecastMeshManager19reportNavMeshChangeERKNS_7VersionES3_
openmw:_ZN15DetourNavigator17RecastMeshManager8addWaterERKN3osg5Vec2iEif
openmw:_ZN15DetourNavigator17RecastMeshManager9addObjectENS_8ObjectIdERKNS_14CollisionShapeERK11btTransformNS_8AreaTypeE
openmw:_ZN15DetourNavigator17RecastMeshManagerC1ERKNS_10TileBoundsEm
openmw:_ZN15DetourNavigator17RecastMeshManagerC2ERKNS_10TileBoundsEm
openmw:_ZN15DetourNavigator17makeNavigatorStubEv
openmw:_ZN15DetourNavigator17resolveMeshSourceERNS_9NavMeshDbERKNS_10MeshSourceE
openmw:_ZN15DetourNavigator17resolveMeshSourceERNS_9NavMeshDbERKNS_10MeshSourceERN4Misc13StrongTypedefIlNS_10ShapeIdTagEEE
openmw:_ZN15DetourNavigator18copyPolyMeshDetailERK16rcPolyMeshDetailRS0_
openmw:_ZN15DetourNavigator18freePolyMeshDetailER16rcPolyMeshDetail
openmw:_ZN15DetourNavigator19AsyncNavMeshUpdater10enqueueJobESt14_List_iteratorINS_3JobEE
openmw:_ZN15DetourNavigator19AsyncNavMeshUpdater10getNextJobEv
openmw:_ZN15DetourNavigator19AsyncNavMeshUpdater10processJobERNS_3JobE
openmw:_ZN15DetourNavigator19AsyncNavMeshUpdater10unlockTileERKNS_11AgentBoundsERKN3osg5Vec2iE
openmw:_ZN15DetourNavigator19AsyncNavMeshUpdater18cleanupLastUpdatesEv
openmw:_ZN15DetourNavigator19AsyncNavMeshUpdater20waitUntilAllJobsDoneEv
openmw:_ZN15DetourNavigator19AsyncNavMeshUpdater35waitUntilJobsDoneForNotPresentTilesEmRmRN7Loading8ListenerE
openmw:_ZN15DetourNavigator19AsyncNavMeshUpdater4postERKNS_11AgentBoundsERKSt10shared_ptrIN4Misc12ScopeGuardedINS_16NavMeshCacheItemEEEERKN3osg5Vec2iESt17basic_string_viewIcSt11char_traitsIcEERKSt3mapISD_NS_10ChangeTypeESt4lessISD_ESaISt4pairISE_SL_EEE
openmw:_ZN15DetourNavigator19AsyncNavMeshUpdater4stopEv
openmw:_ZN15DetourNavigator19AsyncNavMeshUpdater4waitERN7Loading8ListenerENS_17WaitConditionTypeE
openmw:_ZN15DetourNavigator19AsyncNavMeshUpdater6repostESt14_List_iteratorINS_3JobEE
openmw:_ZN15DetourNavigator19AsyncNavMeshUpdater7processEv
openmw:_ZN15DetourNavigator19AsyncNavMeshUpdater8lockTileERKNS_11AgentBoundsERKN3osg5Vec2iE
openmw:_ZN15DetourNavigator19AsyncNavMeshUpdater9removeJobESt14_List_iteratorINS_3JobEE
openmw:_ZN15DetourNavigator19AsyncNavMeshUpdaterC1ERKNS_8SettingsERNS_27TileCachedRecastMeshManagerERNS_25OffMeshConnectionsManagerEOSt10unique_ptrINS_9NavMeshDbESt14default_deleteIS9_EE
openmw:_ZN15DetourNavigator19AsyncNavMeshUpdaterC2ERKNS_8SettingsERNS_27TileCachedRecastMeshManagerERNS_25OffMeshConnectionsManagerEOSt10unique_ptrINS_9NavMeshDbESt14default_deleteIS9_EE
openmw:_ZN15DetourNavigator19AsyncNavMeshUpdaterD1Ev
openmw:_ZN15DetourNavigator19AsyncNavMeshUpdaterD2Ev
openmw:_ZN15DetourNavigator19PreparedNavMeshDataC1ERKS0_
openmw:_ZN15DetourNavigator19PreparedNavMeshDataC1Ev
openmw:_ZN15DetourNavigator19PreparedNavMeshDataC2ERKS0_
openmw:_ZN15DetourNavigator19PreparedNavMeshDataC2Ev
openmw:_ZN15DetourNavigator19PreparedNavMeshDataD1Ev
openmw:_ZN15DetourNavigator19PreparedNavMeshDataD2Ev
openmw:_ZN15DetourNavigator19makeNavMeshTileDataERKNS_19PreparedNavMeshDataERKSt6vectorINS_17OffMeshConnectionESaIS4_EERKNS_11AgentBoundsERKN3osg5Vec2iERKNS_14RecastSettingsE
openmw:_ZN15DetourNavigator20toCollisionShapeTypeEi
openmw:_ZN15DetourNavigator21ChildRecastMeshObject6updateERK11btTransformNS_8AreaTypeE
openmw:_ZN15DetourNavigator21ChildRecastMeshObjectC1ERK16btCollisionShapeRK11btTransformNS_8AreaTypeE
openmw:_ZN15DetourNavigator21ChildRecastMeshObjectC2ERK16btCollisionShapeRK11btTransformNS_8AreaTypeE
openmw:_ZN15DetourNavigator21RecastGlobalAllocator4freeEPv
openmw:_ZN15DetourNavigator21RecastGlobalAllocator5allocEm11rcAllocHint
openmw:_ZN15DetourNavigator22asNavMeshTileConstViewEPKh
openmw:_ZN15DetourNavigator22asNavMeshTileConstViewERK10dtMeshTile
openmw:_ZN15DetourNavigator22prepareNavMeshTileDataERKNS_10RecastMeshERKN3osg5Vec2iERKNS_11AgentBoundsERKNS_14RecastSettingsE
openmw:_ZN15DetourNavigator23CachedRecastMeshManager11removeWaterERKN3osg5Vec2iE
openmw:_ZN15DetourNavigator23CachedRecastMeshManager12removeObjectENS_8ObjectIdE
openmw:_ZN15DetourNavigator23CachedRecastMeshManager12updateObjectENS_8ObjectIdERK11btTransformNS_8AreaTypeE
openmw:_ZN15DetourNavigator23CachedRecastMeshManager14addHeightfieldERKN3osg5Vec2iEiRKSt7variantIJNS_16HeightfieldPlaneENS_18HeightfieldSurfaceEEE
openmw:_ZN15DetourNavigator23CachedRecastMeshManager17removeHeightfieldERKN3osg5Vec2iE
openmw:_ZN15DetourNavigator23CachedRecastMeshManager19reportNavMeshChangeERKNS_7VersionES3_
openmw:_ZN15DetourNavigator23CachedRecastMeshManager7getMeshEv
openmw:_ZN15DetourNavigator23CachedRecastMeshManager8addWaterERKN3osg5Vec2iEif
openmw:_ZN15DetourNavigator23CachedRecastMeshManager9addObjectENS_8ObjectIdERKNS_14CollisionShapeERK11btTransformNS_8AreaTypeE
openmw:_ZN15DetourNavigator23CachedRecastMeshManagerC1ERKNS_10TileBoundsEm
openmw:_ZN15DetourNavigator23CachedRecastMeshManagerC2ERKNS_10TileBoundsEm
openmw:_ZN15DetourNavigator23makeTilesPositionsRangeERK16btCollisionShapeRK11btTransformRKNS_10TileBoundsERKNS_14RecastSettingsE
openmw:_ZN15DetourNavigator23makeTilesPositionsRangeERK16btCollisionShapeRK11btTransformRKNS_14RecastSettingsE
openmw:_ZN15DetourNavigator23makeTilesPositionsRangeERKN3osg5Vec2fES3_RKNS_14RecastSettingsE
openmw:_ZN15DetourNavigator23makeTilesPositionsRangeEiRK9btVector3RKNS_14RecastSettingsE
openmw:_ZN15DetourNavigator25OffMeshConnectionsManager3addENS_8ObjectIdERKNS_17OffMeshConnectionE
openmw:_ZN15DetourNavigator25OffMeshConnectionsManager6removeENS_8ObjectIdE
openmw:_ZN15DetourNavigator25OffMeshConnectionsManagerC1ERKNS_14RecastSettingsE
openmw:_ZN15DetourNavigator25OffMeshConnectionsManagerC2ERKNS_14RecastSettingsE
openmw:_ZN15DetourNavigator27OscillatingRecastMeshObject6updateERK11btTransformNS_8AreaTypeEmRKNS_10TileBoundsE
openmw:_ZN15DetourNavigator27OscillatingRecastMeshObjectC1EONS_16RecastMeshObjectEm
openmw:_ZN15DetourNavigator27OscillatingRecastMeshObjectC1ERKNS_16RecastMeshObjectEm
openmw:_ZN15DetourNavigator27OscillatingRecastMeshObjectC2EONS_16RecastMeshObjectEm
openmw:_ZN15DetourNavigator27OscillatingRecastMeshObjectC2ERKNS_16RecastMeshObjectEm
openmw:_ZN15DetourNavigator27TileCachedRecastMeshManager10removeTileENS_8ObjectIdERKN3osg5Vec2iERSt3mapIS3_St10shared_ptrINS_23CachedRecastMeshManagerEESt4lessIS3_ESaISt4pairIS4_S9_EEE
openmw:_ZN15DetourNavigator27TileCachedRecastMeshManager10updateTileENS_8ObjectIdERK11btTransformNS_8AreaTypeERKN3osg5Vec2iERSt3mapIS7_St10shared_ptrINS_23CachedRecastMeshManagerEESt4lessIS7_ESaISt4pairIS8_SD_EEE
openmw:_ZN15DetourNavigator27TileCachedRecastMeshManager11removeWaterERKN3osg5Vec2iE
openmw:_ZN15DetourNavigator27TileCachedRecastMeshManager12removeObjectENS_8ObjectIdE
openmw:_ZN15DetourNavigator27TileCachedRecastMeshManager13setWorldspaceESt17basic_string_viewIcSt11char_traitsIcEE
openmw:_ZN15DetourNavigator27TileCachedRecastMeshManager14addHeightfieldERKN3osg5Vec2iEiRKSt7variantIJNS_16HeightfieldPlaneENS_18HeightfieldSurfaceEEE
openmw:_ZN15DetourNavigator27TileCachedRecastMeshManager17removeHeightfieldERKN3osg5Vec2iE
openmw:_ZN15DetourNavigator27TileCachedRecastMeshManager7addTileENS_8ObjectIdERKNS_14CollisionShapeERK11btTransformNS_8AreaTypeERKN3osg5Vec2iERSt3mapISA_St10shared_ptrINS_23CachedRecastMeshManagerEESt4lessISA_ESaISt4pairISB_SG_EEE
openmw:_ZN15DetourNavigator27TileCachedRecastMeshManager8addWaterERKN3osg5Vec2iEif
openmw:_ZN15DetourNavigator27TileCachedRecastMeshManager9setBoundsERKNS_10TileBoundsE
openmw:_ZN15DetourNavigator27TileCachedRecastMeshManagerC1ERKNS_14RecastSettingsE
openmw:_ZN15DetourNavigator27TileCachedRecastMeshManagerC2ERKNS_14RecastSettingsE
openmw:_ZN15DetourNavigator27findRandomPointAroundCircleERK9dtNavMeshRKN3osg5Vec3fES6_ftRKNS_14DetourSettingsEPFfvE
openmw:_ZN15DetourNavigator27findRandomPointAroundCircleERKNS_9NavigatorERKNS_11AgentBoundsERKN3osg5Vec3fEftPFfvE
openmw:_ZN15DetourNavigator31makeSettingsFromSettingsManagerEv
openmw:_ZN15DetourNavigator37makeDetourSettingsFromSettingsManagerEv
openmw:_ZN15DetourNavigator37makeRecastSettingsFromSettingsManagerEv
openmw:_ZN15DetourNavigator3JobC1ERKNS_11AgentBoundsESt8weak_ptrIN4Misc12ScopeGuardedINS_16NavMeshCacheItemEEEESt17basic_string_viewIcSt11char_traitsIcEERKN3osg5Vec2iENS_10ChangeTypeEiNSt6chrono10time_pointINSJ_3_V212steady_clockENSJ_8durationIlSt5ratioILl1ELl1000000000EEEEEE
openmw:_ZN15DetourNavigator3JobC2ERKNS_11AgentBoundsESt8weak_ptrIN4Misc12ScopeGuardedINS_16NavMeshCacheItemEEEESt17basic_string_viewIcSt11char_traitsIcEERKN3osg5Vec2iENS_10ChangeTypeEiNSt6chrono10time_pointINSJ_3_V212steady_clockENSJ_8durationIlSt5ratioILl1ELl1000000000EEEEEE
openmw:_ZN15DetourNavigator4MeshC1EOSt6vectorIiSaIiEEOS1_IfSaIfEEOS1_INS_8AreaTypeESaIS8_EE
openmw:_ZN15DetourNavigator4MeshC2EOSt6vectorIiSaIiEEOS1_IfSaIfEEOS1_INS_8AreaTypeESaIS8_EE
openmw:_ZN15DetourNavigator7getTileERK9dtNavMeshRKN3osg5Vec2iE
openmw:_ZN15DetourNavigator7raycastERK9dtNavMeshRKN3osg5Vec3fES6_S6_tRKNS_14DetourSettingsE
openmw:_ZN15DetourNavigator7raycastERKNS_9NavigatorERKNS_11AgentBoundsERKN3osg5Vec3fES9_t
openmw:_ZN15DetourNavigator8DbWorker10enqueueJobESt14_List_iteratorINS_3JobEE
openmw:_ZN15DetourNavigator8DbWorker4stopEv
openmw:_ZN15DetourNavigator8DbWorkerC1ERNS_19AsyncNavMeshUpdaterEOSt10unique_ptrINS_9NavMeshDbESt14default_deleteIS4_EEN4Misc13StrongTypedefIlNS_14TileVersionTagEEERKNS_14RecastSettingsEb
openmw:_ZN15DetourNavigator8DbWorkerC2ERNS_19AsyncNavMeshUpdaterEOSt10unique_ptrINS_9NavMeshDbESt14default_deleteIS4_EEN4Misc13StrongTypedefIlNS_14TileVersionTagEEERKNS_14RecastSettingsEb
openmw:_ZN15DetourNavigator8DbWorkerD1Ev
openmw:_ZN15DetourNavigator8DbWorkerD2Ev
openmw:_ZN15DetourNavigator8makeMeshEOSt6vectorINS_18RecastMeshTriangleESaIS1_EERKN3osg5Vec3fE
openmw:_ZN15DetourNavigator8makeMeshERKNS_11HeightfieldE
openmw:_ZN15DetourNavigator9DbQueries10InsertTile4bindER7sqlite3R12sqlite3_stmtN4Misc13StrongTypedefIlNS_10TiledIdTagEEESt17basic_string_viewIcSt11char_traitsIcEERKN3osg5Vec2iENS7_IlNS_14TileVersionTagEEERKSt6vectorISt4byteSaISL_EESP_
openmw:_ZN15DetourNavigator9DbQueries10InsertTile4textEv
openmw:_ZN15DetourNavigator9DbQueries10UpdateTile4bindER7sqlite3R12sqlite3_stmtN4Misc13StrongTypedefIlNS_10TiledIdTagEEENS7_IlNS_14TileVersionTagEEERKSt6vectorISt4byteSaISD_EE
openmw:_ZN15DetourNavigator9DbQueries10UpdateTile4textEv
openmw:_ZN15DetourNavigator9DbQueries11FindShapeId4bindER7sqlite3R12sqlite3_stmtSt17basic_string_viewIcSt11char_traitsIcEENS_9ShapeTypeERKN7Sqlite39ConstBlobE
openmw:_ZN15DetourNavigator9DbQueries11FindShapeId4textEv
openmw:_ZN15DetourNavigator9DbQueries11GetTileData4bindER7sqlite3R12sqlite3_stmtSt17basic_string_viewIcSt11char_traitsIcEERKN3osg5Vec2iERKSt6vectorISt4byteSaISF_EE
openmw:_ZN15DetourNavigator9DbQueries11GetTileData4textEv
openmw:_ZN15DetourNavigator9DbQueries11InsertShape4bindER7sqlite3R12sqlite3_stmtN4Misc13StrongTypedefIlNS_10ShapeIdTagEEESt17basic_string_viewIcSt11char_traitsIcEENS_9ShapeTypeERKN7Sqlite39ConstBlobE
openmw:_ZN15DetourNavigator9DbQueries11InsertShape4textEv
openmw:_ZN15DetourNavigator9DbQueries12GetMaxTileId4textEv
openmw:_ZN15DetourNavigator9DbQueries13DeleteTilesAt4bindER7sqlite3R12sqlite3_stmtSt17basic_string_viewIcSt11char_traitsIcEERKN3osg5Vec2iE
openmw:_ZN15DetourNavigator9DbQueries13DeleteTilesAt4textEv
openmw:_ZN15DetourNavigator9DbQueries13GetMaxShapeId4textEv
openmw:_ZN15DetourNavigator9DbQueries19DeleteTilesAtExcept4bindER7sqlite3R12sqlite3_stmtSt17basic_string_viewIcSt11char_traitsIcEERKN3osg5Vec2iEN4Misc13StrongTypedefIlNS_10TiledIdTagEEE
openmw:_ZN15DetourNavigator9DbQueries19DeleteTilesAtExcept4textEv
openmw:_ZN15DetourNavigator9DbQueries23DeleteTilesOutsideRange4bindER7sqlite3R12sqlite3_stmtSt17basic_string_viewIcSt11char_traitsIcEERKNS_19TilesPositionsRangeE
openmw:_ZN15DetourNavigator9DbQueries23DeleteTilesOutsideRange4textEv
openmw:_ZN15DetourNavigator9DbQueries6Vacuum4textEv
openmw:_ZN15DetourNavigator9DbQueries8FindTile4bindER7sqlite3R12sqlite3_stmtSt17basic_string_viewIcSt11char_traitsIcEERKN3osg5Vec2iERKSt6vectorISt4byteSaISF_EE
openmw:_ZN15DetourNavigator9DbQueries8FindTile4textEv
openmw:_ZN15DetourNavigator9NavMeshDb10insertTileEN4Misc13StrongTypedefIlNS_10TiledIdTagEEESt17basic_string_viewIcSt11char_traitsIcEERKN3osg5Vec2iENS2_IlNS_14TileVersionTagEEERKSt6vectorISt4byteSaISG_EESK_
openmw:_ZN15DetourNavigator9NavMeshDb10updateTileEN4Misc13StrongTypedefIlNS_10TiledIdTagEEENS2_IlNS_14TileVersionTagEEERKSt6vectorISt4byteSaIS8_EE
openmw:_ZN15DetourNavigator9NavMeshDb11findShapeIdESt17basic_string_viewIcSt11char_traitsIcEENS_9ShapeTypeERKN7Sqlite39ConstBlobE
openmw:_ZN15DetourNavigator9NavMeshDb11getTileDataESt17basic_string_viewIcSt11char_traitsIcEERKN3osg5Vec2iERKSt6vectorISt4byteSaISA_EE
openmw:_ZN15DetourNavigator9NavMeshDb11insertShapeEN4Misc13StrongTypedefIlNS_10ShapeIdTagEEESt17basic_string_viewIcSt11char_traitsIcEENS_9ShapeTypeERKN7Sqlite39ConstBlobE
openmw:_ZN15DetourNavigator9NavMeshDb12getMaxTileIdEv
openmw:_ZN15DetourNavigator9NavMeshDb13deleteTilesAtESt17basic_string_viewIcSt11char_traitsIcEERKN3osg5Vec2iE
openmw:_ZN15DetourNavigator9NavMeshDb13getMaxShapeIdEv
openmw:_ZN15DetourNavigator9NavMeshDb16startTransactionEN7Sqlite315TransactionModeE
openmw:_ZN15DetourNavigator9NavMeshDb19deleteTilesAtExceptESt17basic_string_viewIcSt11char_traitsIcEERKN3osg5Vec2iEN4Misc13StrongTypedefIlNS_10TiledIdTagEEE
openmw:_ZN15DetourNavigator9NavMeshDb23deleteTilesOutsideRangeESt17basic_string_viewIcSt11char_traitsIcEERKNS_19TilesPositionsRangeE
openmw:_ZN15DetourNavigator9NavMeshDb6vacuumEv
openmw:_ZN15DetourNavigator9NavMeshDb8findTileESt17basic_string_viewIcSt11char_traitsIcEERKN3osg5Vec2iERKSt6vectorISt4byteSaISA_EE
openmw:_ZN15DetourNavigator9NavMeshDbC1ESt17basic_string_viewIcSt11char_traitsIcEEm
openmw:_ZN15DetourNavigator9NavMeshDbC2ESt17basic_string_viewIcSt11char_traitsIcEEm
openmw:_ZN15DetourNavigator9serializeERKNS_14RecastSettingsERKNS_11AgentBoundsERKNS_10RecastMeshERKSt6vectorINS_19DbRefGeometryObjectESaISA_EE
openmw:_ZN15DetourNavigator9serializeERKNS_19PreparedNavMeshDataE
openmw:_ZN15DetourNavigatoreqERKNS_19PreparedNavMeshDataES2_
openmw:_ZN15DetourNavigatoreqERKNS_20NavMeshTileConstViewES2_
openmw:_ZN15DetourNavigatorlsERSoNS_10ChangeTypeE
openmw:_ZN15DetourNavigatorlsERSoNS_18CollisionShapeTypeE
openmw:_ZN15DetourNavigatorlsERSoNS_19UpdateNavMeshStatusE
openmw:_ZN15DetourNavigatorlsERSoNS_4FlagE
openmw:_ZN15DetourNavigatorlsERSoNS_6StatusE
openmw:_ZN15DetourNavigatorlsERSoNS_8AreaTypeE
openmw:_ZN15DetourNavigatorlsERSoNS_9JobStatusE
openmw:_ZN15DetourNavigatorlsERSoNS_9ShapeTypeE
openmw:_ZN15DetourNavigatorlsERSoRKNS_10TileBoundsE
openmw:_ZN15DetourNavigatorlsERSoRKNS_10WriteFlagsE
openmw:_ZN15DetourNavigatorlsERSoRKNS_11AgentBoundsE
openmw:_ZN15DetourNavigatorlsERSoRKNS_11HeightfieldE
openmw:_ZN15DetourNavigatorlsERSoRKNS_13WriteDtStatusE
openmw:_ZN15DetourNavigatorlsERSoRKNS_15FlatHeightfieldE
openmw:_ZN15DetourNavigatorlsERSoRKNS_5WaterE
openmw:_ZN15DetourNavigatorlsERSoRKNS_9CellWaterE
openmw:_ZN2fx12StateUpdater11setDefaultsEPN3osg8StateSetE
openmw:_ZN2fx12StateUpdater5applyEPN3osg8StateSetEPNS1_11NodeVisitorE
openmw:_ZN2fx12StateUpdaterC1Eb
openmw:_ZN2fx12StateUpdaterC2Eb
openmw:_ZN2fx4Pass13getPassHeaderB5cxx11ERNS_9TechniqueESt17basic_string_viewIcSt11char_traitsIcEEb
openmw:_ZN2fx4Pass5dirtyEv
openmw:_ZN2fx4Pass7compileERNS_9TechniqueESt17basic_string_viewIcSt11char_traitsIcEE
openmw:_ZN2fx4PassC1ENS0_4TypeENS0_5OrderEb
openmw:_ZN2fx4PassC2ENS0_4TypeENS0_5OrderEb
openmw:_ZN2fx5Lexer5Lexer10scanNumberEv
openmw:_ZN2fx5Lexer5Lexer11scanLiteralEv
openmw:_ZN2fx5Lexer5Lexer17scanStringLiteralEv
openmw:_ZN2fx5Lexer5Lexer4dropEv
openmw:_ZN2fx5Lexer5Lexer4headEv
openmw:_ZN2fx5Lexer5Lexer4jumpEv
openmw:_ZN2fx5Lexer5Lexer4nextEv
openmw:_ZN2fx5Lexer5Lexer4peekEv
openmw:_ZN2fx5Lexer5Lexer5errorERKNSt7__cxx1112basic_stringIcSt11char_traitsIcESaIcEEE
openmw:_ZN2fx5Lexer5Lexer7advanceEv
openmw:_ZN2fx5Lexer5Lexer8peekCharEc
openmw:_ZN2fx5Lexer5Lexer9scanTokenEv
openmw:_ZN2fx5Lexer5LexerC1ESt17basic_string_viewIcSt11char_traitsIcEE
openmw:_ZN2fx5Lexer5LexerC2ESt17basic_string_viewIcSt11char_traitsIcEE
openmw:_ZN2fx7Widgets10EditNumberIfN3osg5Vec2fEE16notifyMouseWheelEPN5MyGUI6WidgetEi
openmw:_ZN2fx7Widgets10EditNumberIfN3osg5Vec2fEE19notifyButtonClickedEPN5MyGUI6WidgetE
openmw:_ZN2fx7Widgets10EditNumberIfN3osg5Vec2fEE24notifyMouseButtonDraggedEPN5MyGUI6WidgetEiiNS5_11MouseButtonE
openmw:_ZN2fx7Widgets10EditNumberIfN3osg5Vec2fEE24notifyMouseButtonPressedEPN5MyGUI6WidgetEiiNS5_11MouseButtonE
openmw:_ZN2fx7Widgets10EditNumberIfN3osg5Vec3fEE16notifyMouseWheelEPN5MyGUI6WidgetEi
openmw:_ZN2fx7Widgets10EditNumberIfN3osg5Vec3fEE19notifyButtonClickedEPN5MyGUI6WidgetE
openmw:_ZN2fx7Widgets10EditNumberIfN3osg5Vec3fEE24notifyMouseButtonDraggedEPN5MyGUI6WidgetEiiNS5_11MouseButtonE
openmw:_ZN2fx7Widgets10EditNumberIfN3osg5Vec3fEE24notifyMouseButtonPressedEPN5MyGUI6WidgetEiiNS5_11MouseButtonE
openmw:_ZN2fx7Widgets10EditNumberIfN3osg5Vec4fEE16notifyMouseWheelEPN5MyGUI6WidgetEi
openmw:_ZN2fx7Widgets10EditNumberIfN3osg5Vec4fEE19notifyButtonClickedEPN5MyGUI6WidgetE
openmw:_ZN2fx7Widgets10EditNumberIfN3osg5Vec4fEE24notifyMouseButtonDraggedEPN5MyGUI6WidgetEiiNS5_11MouseButtonE
openmw:_ZN2fx7Widgets10EditNumberIfN3osg5Vec4fEE24notifyMouseButtonPressedEPN5MyGUI6WidgetEiiNS5_11MouseButtonE
openmw:_ZN2fx7Widgets10EditNumberIffE16notifyMouseWheelEPN5MyGUI6WidgetEi
openmw:_ZN2fx7Widgets10EditNumberIffE19notifyButtonClickedEPN5MyGUI6WidgetE
openmw:_ZN2fx7Widgets10EditNumberIffE24notifyMouseButtonDraggedEPN5MyGUI6WidgetEiiNS3_11MouseButtonE
openmw:_ZN2fx7Widgets10EditNumberIffE24notifyMouseButtonPressedEPN5MyGUI6WidgetEiiNS3_11MouseButtonE
openmw:_ZN2fx7Widgets10EditNumberIiiE16notifyMouseWheelEPN5MyGUI6WidgetEi
openmw:_ZN2fx7Widgets10EditNumberIiiE19notifyButtonClickedEPN5MyGUI6WidgetE
openmw:_ZN2fx7Widgets10EditNumberIiiE24notifyMouseButtonDraggedEPN5MyGUI6WidgetEiiNS3_11MouseButtonE
openmw:_ZN2fx7Widgets10EditNumberIiiE24notifyMouseButtonPressedEPN5MyGUI6WidgetEiiNS3_11MouseButtonE
openmw:_ZN2fx7Widgets11UniformBase18initialiseOverrideEv
openmw:_ZN2fx7Widgets11UniformBase18notifyResetClickedEPN5MyGUI6WidgetE
openmw:_ZN2fx7Widgets11UniformBase4initERKSt10shared_ptrINS_5Types11UniformBaseEE
openmw:_ZN2fx7Widgets11UniformBase7addItemEPNS0_8EditBaseE
openmw:_ZN2fx7Widgets11UniformBase9toDefaultEv
openmw:_ZN2fx7Widgets8EditBool18initialiseOverrideEv
openmw:_ZN2fx7Widgets8EditBool19setValueFromUniformEv
openmw:_ZN2fx7Widgets8EditBool22notifyMouseButtonClickEPN5MyGUI6WidgetE
openmw:_ZN2fx7Widgets8EditBool8setValueEb
openmw:_ZN2fx7Widgets8EditBool9toDefaultEv
openmw:_ZN2fx9Technique10parseFlagsEv
openmw:_ZN2fx9Technique10parseFloatEv
openmw:_ZN2fx9Technique11findUniformERKNSt7__cxx1112basic_stringIcSt11char_traitsIcESaIcEEE
openmw:_ZN2fx9Technique11parseStringEv
openmw:_ZN2fx9Technique12parseIntegerEv
openmw:_ZN2fx9Technique13parseBlockImpINS_5Lexer10Sampler_1DEEEvv
openmw:_ZN2fx9Technique13parseBlockImpINS_5Lexer10Sampler_2DEEEvv
openmw:_ZN2fx9Technique13parseBlockImpINS_5Lexer10Sampler_3DEEEvv
openmw:_ZN2fx9Technique13parseBlockImpINS_5Lexer11Uniform_IntEEEvv
openmw:_ZN2fx9Technique13parseBlockImpINS_5Lexer12Uniform_BoolEEEvv
openmw:_ZN2fx9Technique13parseBlockImpINS_5Lexer12Uniform_Vec2EEEvv
openmw:_ZN2fx9Technique13parseBlockImpINS_5Lexer12Uniform_Vec3EEEvv
openmw:_ZN2fx9Technique13parseBlockImpINS_5Lexer12Uniform_Vec4EEEvv
openmw:_ZN2fx9Technique13parseBlockImpINS_5Lexer13Render_TargetEEEvv
openmw:_ZN2fx9Technique13parseBlockImpINS_5Lexer13Uniform_FloatEEEvv
openmw:_ZN2fx9Technique13parseBlockImpINS_5Lexer6SharedEEEvv
openmw:_ZN2fx9Technique13parseBlockImpINS_5Lexer6VertexEEEvv
openmw:_ZN2fx9Technique13parseBlockImpINS_5Lexer7ComputeEEEvv
openmw:_ZN2fx9Technique13parseBlockImpINS_5Lexer8FragmentEEEvv
openmw:_ZN2fx9Technique13parseBlockImpINS_5Lexer9TechniqueEEEvv
openmw:_ZN2fx9Technique13parseWrapModeEv
openmw:_ZN2fx9Technique15parseFilterModeEv
openmw:_ZN2fx9Technique15parseSourceTypeEv
openmw:_ZN2fx9Technique16parseBlockHeaderEv
openmw:_ZN2fx9Technique16parseCompressionEv
openmw:_ZN2fx9Technique17parseSourceFormatEv
openmw:_ZN2fx9Technique18parseBlendEquationEv
openmw:_ZN2fx9Technique18parseBlendFuncModeEv
openmw:_ZN2fx9Technique19parseInternalFormatEv
openmw:_ZN2fx9Technique23setLastModificationTimeEl
openmw:_ZN2fx9Technique25getBlockWithLineDirectiveB5cxx11Ev
openmw:_ZN2fx9Technique4sExtB5cxx11E
openmw:_ZN2fx9Technique5clearEv
openmw:_ZN2fx9Technique5errorERKNSt7__cxx1112basic_stringIcSt11char_traitsIcESaIcEEE
openmw:_ZN2fx9Technique5parseEONSt7__cxx1112basic_stringIcSt11char_traitsIcESaIcEEE
openmw:_ZN2fx9Technique7compileEv
openmw:_ZN2fx9Technique7sSubdirB5cxx11E
openmw:_ZN2fx9Technique9parseBoolEv
openmw:_ZN2fx9TechniqueC1ERKN3VFS7ManagerERN8Resource12ImageManagerERKNSt7__cxx1112basic_stringIcSt11char_traitsIcESaIcEEEiibb
openmw:_ZN2fx9TechniqueC2ERKN3VFS7ManagerERN8Resource12ImageManagerERKNSt7__cxx1112basic_stringIcSt11char_traitsIcESaIcEEEiibb
openmw:_ZN3Bsa17CompressedBSAFile10FileRecordC1Ev
openmw:_ZN3Bsa17CompressedBSAFile10FileRecordC2Ev
openmw:_ZN3Bsa17CompressedBSAFile10readHeaderEv
openmw:_ZN3Bsa17CompressedBSAFile11getBZStringERNSt7__cxx1112basic_stringIcSt11char_traitsIcESaIcEEERSi
openmw:_ZN3Bsa17CompressedBSAFile12generateHashENSt7__cxx1112basic_stringIcSt11char_traitsIcESaIcEEES6_
openmw:_ZN3Bsa17CompressedBSAFile13detectVersionERKNSt7__cxx1112basic_stringIcSt11char_traitsIcESaIcEEE
openmw:_ZN3Bsa17CompressedBSAFile14sInvalidOffsetE
openmw:_ZN3Bsa17CompressedBSAFile15sCompressedFlagE
openmw:_ZN3Bsa17CompressedBSAFile36convertCompressedSizesToUncompressedEv
openmw:_ZN3Bsa17CompressedBSAFile7addFileERKNSt7__cxx1112basic_stringIcSt11char_traitsIcESaIcEEERSi
openmw:_ZN3Bsa17CompressedBSAFile7getFileEPKNS_7BSAFile10FileStructE
openmw:_ZN3Bsa17CompressedBSAFile7getFileEPKc
openmw:_ZN3Bsa17CompressedBSAFile7getFileERKNS0_10FileRecordE
openmw:_ZN3Bsa17CompressedBSAFileC1Ev
openmw:_ZN3Bsa17CompressedBSAFileC2Ev
openmw:_ZN3Bsa17CompressedBSAFileD0Ev
openmw:_ZN3Bsa17CompressedBSAFileD1Ev
openmw:_ZN3Bsa17CompressedBSAFileD2Ev
openmw:_ZN3Bsa7BSAFile10readHeaderEv
openmw:_ZN3Bsa7BSAFile11writeHeaderEv
openmw:_ZN3Bsa7BSAFile4failERKNSt7__cxx1112basic_stringIcSt11char_traitsIcESaIcEEE
openmw:_ZN3Bsa7BSAFile4openERKNSt7__cxx1112basic_stringIcSt11char_traitsIcESaIcEEE
openmw:_ZN3Bsa7BSAFile5closeEv
openmw:_ZN3Bsa7BSAFile7addFileERKNSt7__cxx1112basic_stringIcSt11char_traitsIcESaIcEEERSi
openmw:_ZN3Bsa7BSAFile7getFileEPKNS0_10FileStructE
openmw:_ZN3ESM10AiSequence10AiActivate4loadERNS_9ESMReaderE
openmw:_ZN3ESM10AiSequence10AiSequence4loadERNS_9ESMReaderE
openmw:_ZN3ESM10AiSequence8AiCombat4loadERNS_9ESMReaderE
openmw:_ZN3ESM10AiSequence8AiEscort4loadERNS_9ESMReaderE
openmw:_ZN3ESM10AiSequence8AiFollow4loadERNS_9ESMReaderE
openmw:_ZN3ESM10AiSequence8AiPursue4loadERNS_9ESMReaderE
openmw:_ZN3ESM10AiSequence8AiTravel4loadERNS_9ESMReaderE
openmw:_ZN3ESM10AiSequence8AiWander4loadERNS_9ESMReaderE
openmw:_ZN3ESM10EffectList3addERNS_9ESMReaderE
openmw:_ZN3ESM10EffectList4loadERNS_9ESMReaderE
openmw:_ZN3ESM10Ingredient4loadERNS_9ESMReaderERb
openmw:_ZN3ESM10Ingredient5blankEv
openmw:_ZN3ESM10Ingredient9sRecordIdE
openmw:_ZN3ESM10LuaScripts4loadERNS_9ESMReaderE
openmw:_ZN3ESM10QuestState4loadERNS_9ESMReaderE
openmw:_ZN3ESM10SpellState4loadERNS_9ESMReaderE
openmw:_ZN3ESM11Enchantment4loadERNS_9ESMReaderERb
openmw:_ZN3ESM11Enchantment5blankEv
openmw:_ZN3ESM11GameSetting4loadERNS_9ESMReaderERb
openmw:_ZN3ESM11GameSetting5blankEv
openmw:_ZN3ESM11ItemLevList9sRecordIdE
openmw:_ZN3ESM11LandTexture4loadERNS_9ESMReaderERb
openmw:_ZN3ESM11LandTexture5blankEv
openmw:_ZN3ESM11MagicEffect16effectIdToStringB5cxx11Es
openmw:_ZN3ESM11MagicEffect16effectStringToIdESt17basic_string_viewIcSt11char_traitsIcEE
openmw:_ZN3ESM11MagicEffect17getWeaknessEffectEs
openmw:_ZN3ESM11MagicEffect19getResistanceEffectEs
openmw:_ZN3ESM11MagicEffect4loadERNS_9ESMReaderERb
openmw:_ZN3ESM11MagicEffect5blankEv
openmw:_ZN3ESM11MagicEffect6sNamesB5cxx11E
openmw:_ZN3ESM11MagicEffect9indexToIdB5cxx11Ei
openmw:_ZN3ESM11ObjectState10asNpcStateEv
openmw:_ZN3ESM11ObjectState11asDoorStateEv
openmw:_ZN3ESM11ObjectState15asCreatureStateEv
openmw:_ZN3ESM11ObjectState16asContainerStateEv
openmw:_ZN3ESM11ObjectState22asCreatureLevListStateEv
openmw:_ZN3ESM11ObjectState4loadERNS_9ESMReaderE
openmw:_ZN3ESM11ObjectState5blankEv
openmw:_ZN3ESM11ObjectStateD0Ev
openmw:_ZN3ESM11ObjectStateD1Ev
openmw:_ZN3ESM11ObjectStateD2Ev
openmw:_ZN3ESM11StartScript4loadERNS_9ESMReaderERb
openmw:_ZN3ESM11StartScript5blankEv
openmw:_ZN3ESM11StolenItems4loadERNS_9ESMReaderE
openmw:_ZN3ESM12ActiveSpells4loadERNS_9ESMReaderE
openmw:_ZN3ESM12CustomMarker4loadERNS_9ESMReaderE
openmw:_ZN3ESM12GlobalScript4loadERNS_9ESMReaderE
openmw:_ZN3ESM12JournalEntry4loadERNS_9ESMReaderE
openmw:_ZN3ESM12MagicEffects4loadERNS_9ESMReaderE
openmw:_ZN3ESM12ReadersCache3getEm
openmw:_ZN3ESM12ReadersCache8BusyItemC1ERS0_St14_List_iteratorINS0_4ItemEE
openmw:_ZN3ESM12ReadersCache8BusyItemC2ERS0_St14_List_iteratorINS0_4ItemEE
openmw:_ZN3ESM12ReadersCache8BusyItemD1Ev
openmw:_ZN3ESM12ReadersCache8BusyItemD2Ev
openmw:_ZN3ESM12ReadersCacheC1Em
openmw:_ZN3ESM12ReadersCacheC2Em
openmw:_ZN3ESM12WeatherState4loadERNS_9ESMReaderE
openmw:_ZN3ESM13AIPackageList3addERNS_9ESMReaderE
openmw:_ZN3ESM13ControlsState4loadERNS_9ESMReaderE
openmw:_ZN3ESM13ControlsStateC1Ev
openmw:_ZN3ESM13ControlsStateC2Ev
openmw:_ZN3ESM13CreatureState4loadERNS_9ESMReaderE
openmw:_ZN3ESM13CreatureState5blankEv
openmw:_ZN3ESM13CreatureStats4loadERNS_9ESMReaderE
openmw:_ZN3ESM13CreatureStats5blankEv
openmw:_ZN3ESM13DialogueState4loadERNS_9ESMReaderE
openmw:_ZN3ESM13InventoryList3addERNS_9ESMReaderE
openmw:_ZN3ESM13LuaScriptsCfg13adjustRefNumsERKNS_9ESMReaderE
openmw:_ZN3ESM13LuaScriptsCfg4loadERNS_9ESMReaderE
openmw:_ZN3ESM13Miscellaneous4loadERNS_9ESMReaderERb
openmw:_ZN3ESM13Miscellaneous5blankEv
openmw:_ZN3ESM13Miscellaneous9sRecordIdE
openmw:_ZN3ESM14AnimationState4loadERNS_9ESMReaderE
openmw:_ZN3ESM14ContainerState4loadERNS_9ESMReaderE
openmw:_ZN3ESM14InventoryState4loadERNS_9ESMReaderE
openmw:_ZN3ESM14MagicBoltState4loadERNS_9ESMReaderE
openmw:_ZN3ESM14SoundGenerator4loadERNS_9ESMReaderERb
openmw:_ZN3ESM14SoundGenerator5blankEv
openmw:_ZN3ESM15CreatureLevList9sRecordIdE
openmw:_ZN3ESM15ProjectileState4loadERNS_9ESMReaderE
openmw:_ZN3ESM15skipLoadCellRefERNS_9ESMReaderEb
openmw:_ZN3ESM16LevelledListBase4loadERNS_9ESMReaderENS_11FixedStringILm4EEERb
openmw:_ZN3ESM16LevelledListBase5blankEv
openmw:_ZN3ESM17PartReferenceList3addERNS_9ESMReaderE
openmw:_ZN3ESM17PartReferenceList4loadERNS_9ESMReaderE
openmw:_ZN3ESM17loadLuaBinaryDataB5cxx11ERNS_9ESMReaderE
openmw:_ZN3ESM17saveLuaBinaryDataERNS_9ESMWriterERKNSt7__cxx1112basic_stringIcSt11char_traitsIcESaIcEEE
openmw:_ZN3ESM19BaseProjectileState4loadERNS_9ESMReaderE
openmw:_ZN3ESM19readESMVariantValueERNS_9ESMReaderENS_7Variant6FormatENS_7VarTypeERNSt7__cxx1112basic_stringIcSt11char_traitsIcESaIcEEE
openmw:_ZN3ESM19readESMVariantValueERNS_9ESMReaderENS_7Variant6FormatENS_7VarTypeERf
openmw:_ZN3ESM19readESMVariantValueERNS_9ESMReaderENS_7Variant6FormatENS_7VarTypeERi
openmw:_ZN3ESM20CreatureLevListState4loadERNS_9ESMReaderE
openmw:_ZN3ESM20transposeTextureDataEPKtPt
openmw:_ZN3ESM20writeESMVariantValueERNS_9ESMWriterENS_7Variant6FormatENS_7VarTypeERKNSt7__cxx1112basic_stringIcSt11char_traitsIcESaIcEEE
openmw:_ZN3ESM20writeESMVariantValueERNS_9ESMWriterENS_7Variant6FormatENS_7VarTypeEf
openmw:_ZN3ESM20writeESMVariantValueERNS_9ESMWriterENS_7Variant6FormatENS_7VarTypeEi
openmw:_ZN3ESM3NPC4loadERNS_9ESMReaderERb
openmw:_ZN3ESM3NPC5blankEv
openmw:_ZN3ESM3NPC9blankNpdtEv
openmw:_ZN3ESM3NPC9sRecordIdE
openmw:_ZN3ESM3NPC9setIsMaleEb
openmw:_ZN3ESM4Book4loadERNS_9ESMReaderERb
openmw:_ZN3ESM4Book5blankEv
openmw:_ZN3ESM4Book9sRecordIdE
openmw:_ZN3ESM4Cell10getNextRefERNS_9ESMReaderERNS_7CellRefERb
openmw:_ZN3ESM4Cell10getNextRefERNS_9ESMReaderERNS_7CellRefERbRNS_12MovedCellRefES5_NS0_14GetNextRefModeE
openmw:_ZN3ESM4Cell11getNextMVRFERNS_9ESMReaderERNS_12MovedCellRefE
openmw:_ZN3ESM4Cell15loadNameAndDataERNS_9ESMReaderERb
openmw:_ZN3ESM4Cell4loadERNS_9ESMReaderERbb
openmw:_ZN3ESM4Cell5blankEv
openmw:_ZN3ESM4Cell8loadCellERNS_9ESMReaderEb
openmw:_ZN3ESM4Cell8postLoadERNS_9ESMReaderE
openmw:_ZN3ESM4Door4loadERNS_9ESMReaderERb
openmw:_ZN3ESM4Door5blankEv
openmw:_ZN3ESM4Door9sRecordIdE
openmw:_ZN3ESM4Land11getLandDataEv
openmw:_ZN3ESM4Land3addEi
openmw:_ZN3ESM4Land4loadERNS_9ESMReaderERb
openmw:_ZN3ESM4Land4swapERS0_
openmw:_ZN3ESM4Land5blankEv
openmw:_ZN3ESM4Land6removeEi
openmw:_ZN3ESM4LandC1ERKS0_
openmw:_ZN3ESM4LandC1Ev
openmw:_ZN3ESM4LandC2ERKS0_
openmw:_ZN3ESM4LandC2Ev
openmw:_ZN3ESM4LandD1Ev
openmw:_ZN3ESM4LandD2Ev
openmw:_ZN3ESM4LandaSERKS0_
openmw:_ZN3ESM4Race4loadERNS_9ESMReaderERb
openmw:_ZN3ESM4Race5blankEv
openmw:_ZN3ESM5Armor4loadERNS_9ESMReaderERb
openmw:_ZN3ESM5Armor5blankEv
openmw:_ZN3ESM5Armor9sRecordIdE
openmw:_ZN3ESM5Class10CLDTstruct8getSkillEib
openmw:_ZN3ESM5Class18sSpecializationIdsE
openmw:_ZN3ESM5Class22sGmstSpecializationIdsE
openmw:_ZN3ESM5Class4loadERNS_9ESMReaderERb
openmw:_ZN3ESM5Class5blankEv
openmw:_ZN3ESM5Light4loadERNS_9ESMReaderERb
openmw:_ZN3ESM5Light5blankEv
openmw:_ZN3ESM5Light9sRecordIdE
openmw:_ZN3ESM5Probe4loadERNS_9ESMReaderERb
openmw:_ZN3ESM5Probe5blankEv
openmw:_ZN3ESM5Probe9sRecordIdE
openmw:_ZN3ESM5Skill10sIconNamesB5cxx11E
openmw:_ZN3ESM5Skill11sSkillNamesB5cxx11E
openmw:_ZN3ESM5Skill13sSkillNameIdsB5cxx11E
openmw:_ZN3ESM5Skill4loadERNS_9ESMReaderERb
openmw:_ZN3ESM5Skill5blankEv
openmw:_ZN3ESM5Skill9indexToIdB5cxx11Ei
openmw:_ZN3ESM5Skill9sSkillIdsE
openmw:_ZN3ESM5Sound4loadERNS_9ESMReaderERb
openmw:_ZN3ESM5Sound5blankEv
openmw:_ZN3ESM5Spell4loadERNS_9ESMReaderERb
openmw:_ZN3ESM5Spell5blankEv
openmw:_ZN3ESM6AIData5blankEv
openmw:_ZN3ESM6CellId18sDefaultWorldspaceB5cxx11E
openmw:_ZN3ESM6CellId4loadERNS_9ESMReaderE
openmw:_ZN3ESM6Global4loadERNS_9ESMReaderERb
openmw:_ZN3ESM6Global5blankEv
openmw:_ZN3ESM6Header4loadERNS_9ESMReaderE
openmw:_ZN3ESM6Header4saveERNS_9ESMWriterE
openmw:_ZN3ESM6Header5blankEv
openmw:_ZN3ESM6Locals4loadERNS_9ESMReaderE
openmw:_ZN3ESM6Player4loadERNS_9ESMReaderE
openmw:_ZN3ESM6Potion4loadERNS_9ESMReaderERb
openmw:_ZN3ESM6Potion5blankEv
openmw:_ZN3ESM6Potion9sRecordIdE
openmw:_ZN3ESM6RefNum4loadERNS_9ESMReaderEbNS_11FixedStringILm4EEE
openmw:_ZN3ESM6Region4loadERNS_9ESMReaderERb
openmw:_ZN3ESM6Region5blankEv
openmw:_ZN3ESM6Repair4loadERNS_9ESMReaderERb
openmw:_ZN3ESM6Repair5blankEv
openmw:_ZN3ESM6Repair9sRecordIdE
openmw:_ZN3ESM6Script4loadERNS_9ESMReaderERb
openmw:_ZN3ESM6Script5blankEv
openmw:_ZN3ESM6Script8loadSCVRERNS_9ESMReaderE
openmw:_ZN3ESM6Static4loadERNS_9ESMReaderERb
openmw:_ZN3ESM6Static5blankEv
openmw:_ZN3ESM6Static9sRecordIdE
openmw:_ZN3ESM6Weapon4loadERNS_9ESMReaderERb
openmw:_ZN3ESM6Weapon5blankEv
openmw:_ZN3ESM6Weapon9sRecordIdE
openmw:_ZN3ESM7CellRef4loadERNS_9ESMReaderERbb
openmw:_ZN3ESM7CellRef5blankEv
openmw:_ZN3ESM7CellRef6loadIdERNS_9ESMReaderEb
openmw:_ZN3ESM7CellRef8loadDataERNS_9ESMReaderERb
openmw:_ZN3ESM7Faction10FADTstruct8getSkillEib
openmw:_ZN3ESM7Faction4loadERNS_9ESMReaderERb
openmw:_ZN3ESM7Faction5blankEv
openmw:_ZN3ESM7Variant10setIntegerEi
openmw:_ZN3ESM7Variant4readERNS_9ESMReaderENS0_6FormatE
openmw:_ZN3ESM7Variant7setTypeENS_7VarTypeE
openmw:_ZN3ESM7Variant8setFloatEf
openmw:_ZN3ESM7Variant9setStringEONSt7__cxx1112basic_stringIcSt11char_traitsIcESaIcEEE
openmw:_ZN3ESM7Variant9setStringERKNSt7__cxx1112basic_stringIcSt11char_traitsIcESaIcEEE
openmw:_ZN3ESM8BodyPart4loadERNS_9ESMReaderERb
openmw:_ZN3ESM8BodyPart5blankEv
openmw:_ZN3ESM8BodyPart9sRecordIdE
openmw:_ZN3ESM8Clothing4loadERNS_9ESMReaderERb
openmw:_ZN3ESM8Clothing5blankEv
openmw:_ZN3ESM8Clothing9sRecordIdE
openmw:_ZN3ESM8Creature4loadERNS_9ESMReaderERb
openmw:_ZN3ESM8Creature5blankEv
openmw:_ZN3ESM8Creature9sRecordIdE
openmw:_ZN3ESM8DialInfo4loadERNS_9ESMReaderERb
openmw:_ZN3ESM8DialInfo5blankEv
openmw:_ZN3ESM8Dialogue17clearDeletedInfosEv
openmw:_ZN3ESM8Dialogue4loadERNS_9ESMReaderERb
openmw:_ZN3ESM8Dialogue5blankEv
openmw:_ZN3ESM8Dialogue6loadIdERNS_9ESMReaderE
openmw:_ZN3ESM8Dialogue8loadDataERNS_9ESMReaderERb
openmw:_ZN3ESM8Dialogue8readInfoERNS_9ESMReaderEb
openmw:_ZN3ESM8FogState4loadERNS_9ESMReaderE
openmw:_ZN3ESM8Lockpick4loadERNS_9ESMReaderERb
openmw:_ZN3ESM8Lockpick5blankEv
openmw:_ZN3ESM8Lockpick9sRecordIdE
openmw:_ZN3ESM8NpcState4loadERNS_9ESMReaderE
openmw:_ZN3ESM8NpcState5blankEv
openmw:_ZN3ESM8NpcStats4loadERNS_9ESMReaderE
openmw:_ZN3ESM8NpcStats5blankEv
openmw:_ZN3ESM8NpcStats7FactionC1Ev
openmw:_ZN3ESM8NpcStats7FactionC2Ev
openmw:_ZN3ESM8Pathgrid4loadERNS_9ESMReaderERb
openmw:_ZN3ESM8Pathgrid5PointC1EPKf
openmw:_ZN3ESM8Pathgrid5PointC1Ev
openmw:_ZN3ESM8Pathgrid5PointC2EPKf
openmw:_ZN3ESM8Pathgrid5PointC2Ev
openmw:_ZN3ESM8Pathgrid5PointaSEPKf
openmw:_ZN3ESM8Pathgrid5blankEv
openmw:_ZN3ESM9Activator4loadERNS_9ESMReaderERb
openmw:_ZN3ESM9Activator5blankEv
openmw:_ZN3ESM9Activator9sRecordIdE
openmw:_ZN3ESM9Apparatus4loadERNS_9ESMReaderERb
openmw:_ZN3ESM9Apparatus5blankEv
openmw:_ZN3ESM9Apparatus9sRecordIdE
openmw:_ZN3ESM9Attribute13sAttributeIdsE
openmw:_ZN3ESM9Attribute15sAttributeIconsB5cxx11E
openmw:_ZN3ESM9Attribute15sAttributeNamesB5cxx11E
openmw:_ZN3ESM9Attribute17sGmstAttributeIdsB5cxx11E
openmw:_ZN3ESM9Attribute21sGmstAttributeDescIdsB5cxx11E
openmw:_ZN3ESM9BirthSign4loadERNS_9ESMReaderERb
openmw:_ZN3ESM9BirthSign5blankEv
openmw:_ZN3ESM9CellState4loadERNS_9ESMReaderE
openmw:_ZN3ESM9Container4loadERNS_9ESMReaderERb
openmw:_ZN3ESM9Container5blankEv
openmw:_ZN3ESM9Container9sRecordIdE
openmw:_ZN3ESM9DoorState4loadERNS_9ESMReaderE
openmw:_ZN3ESM9ESMReader10getContextEv
openmw:_ZN3ESM9ESMReader10getHNExactEPviNS_11FixedStringILm4EEE
openmw:_ZN3ESM9ESMReader10getHStringB5cxx11Ev
openmw:_ZN3ESM9ESMReader10getRecNameEv
openmw:_ZN3ESM9ESMReader10getSubNameEv
openmw:_ZN3ESM9ESMReader10skipRecordEv
openmw:_ZN3ESM9ESMReader11getHNStringB5cxx11ENS_11FixedStringILm4EEE
openmw:_ZN3ESM9ESMReader11peekNextSubENS_11FixedStringILm4EEE
openmw:_ZN3ESM9ESMReader11skipHStringEv
openmw:_ZN3ESM9ESMReader12getHNOStringB5cxx11ENS_11FixedStringILm4EEE
openmw:_ZN3ESM9ESMReader12getRecHeaderERj
openmw:_ZN3ESM9ESMReader12getSubHeaderEv
openmw:_ZN3ESM9ESMReader12getSubNameIsENS_11FixedStringILm4EEE
openmw:_ZN3ESM9ESMReader12skipHSubSizeEi
openmw:_ZN3ESM9ESMReader13getStringViewEm
openmw:_ZN3ESM9ESMReader13skipHNOStringENS_11FixedStringILm4EEE
openmw:_ZN3ESM9ESMReader13skipHSubUntilENS_11FixedStringILm4EEE
openmw:_ZN3ESM9ESMReader14restoreContextERKNS_11ESM_ContextE
openmw:_ZN3ESM9ESMReader23getMaybeFixedStringSizeB5cxx11Em
openmw:_ZN3ESM9ESMReader24resolveParentFileIndicesERNS_12ReadersCacheE
openmw:_ZN3ESM9ESMReader4failERKNSt7__cxx1112basic_stringIcSt11char_traitsIcESaIcEEE
openmw:_ZN3ESM9ESMReader4openEOSt10unique_ptrISiSt14default_deleteISiEERKNSt7__cxx1112basic_stringIcSt11char_traitsIcESaIcEEE
openmw:_ZN3ESM9ESMReader4openERKNSt7__cxx1112basic_stringIcSt11char_traitsIcESaIcEEE
openmw:_ZN3ESM9ESMReader5closeEv
openmw:_ZN3ESM9ESMReader7openRawEOSt10unique_ptrISiSt14default_deleteISiEESt17basic_string_viewIcSt11char_traitsIcEE
openmw:_ZN3ESM9ESMReader7openRawESt17basic_string_viewIcSt11char_traitsIcEE
openmw:_ZN3ESM9ESMReader8clearCtxEv
openmw:_ZN3ESM9ESMReader8skipHSubEv
openmw:_ZN3ESM9ESMReader9getHExactEPvi
openmw:_ZN3ESM9ESMReader9getStringB5cxx11Ei
openmw:_ZN3ESM9ESMReader9isNextSubENS_11FixedStringILm4EEE
openmw:_ZN3ESM9ESMReaderC1Ev
openmw:_ZN3ESM9ESMReaderC2Ev
openmw:_ZN3ESM9ESMWriter10setEncoderEPN6ToUTF811Utf8EncoderE
openmw:_ZN3ESM9ESMWriter10setVersionEj
openmw:_ZN3ESM9ESMWriter11clearMasterEv
openmw:_ZN3ESM9ESMWriter11startRecordENS_11FixedStringILm4EEEj
openmw:_ZN3ESM9ESMWriter11startRecordEjj
openmw:_ZN3ESM9ESMWriter12writeHStringERKNSt7__cxx1112basic_stringIcSt11char_traitsIcESaIcEEE
openmw:_ZN3ESM9ESMWriter13writeHCStringERKNSt7__cxx1112basic_stringIcSt11char_traitsIcESaIcEEE
openmw:_ZN3ESM9ESMWriter13writeHNStringENS_11FixedStringILm4EEERKNSt7__cxx1112basic_stringIcSt11char_traitsIcESaIcEEE
openmw:_ZN3ESM9ESMWriter13writeHNStringENS_11FixedStringILm4EEERKNSt7__cxx1112basic_stringIcSt11char_traitsIcESaIcEEEm
openmw:_ZN3ESM9ESMWriter14setDescriptionERKNSt7__cxx1112basic_stringIcSt11char_traitsIcESaIcEEE
openmw:_ZN3ESM9ESMWriter14setRecordCountEi
openmw:_ZN3ESM9ESMWriter14startSubRecordENS_11FixedStringILm4EEE
openmw:_ZN3ESM9ESMWriter20writeFixedSizeStringERKNSt7__cxx1112basic_stringIcSt11char_traitsIcESaIcEEEi
openmw:_ZN3ESM9ESMWriter4saveERSo
openmw:_ZN3ESM9ESMWriter5closeEv
openmw:_ZN3ESM9ESMWriter5writeEPKcm
openmw:_ZN3ESM9ESMWriter7setTypeEi
openmw:_ZN3ESM9ESMWriter9addMasterERKNSt7__cxx1112basic_stringIcSt11char_traitsIcESaIcEEEm
openmw:_ZN3ESM9ESMWriter9endRecordENS_11FixedStringILm4EEE
openmw:_ZN3ESM9ESMWriter9endRecordEj
openmw:_ZN3ESM9ESMWriter9setAuthorERKNSt7__cxx1112basic_stringIcSt11char_traitsIcESaIcEEE
openmw:_ZN3ESM9ESMWriter9setFormatEi
openmw:_ZN3ESM9ESMWriter9writeNameENS_11FixedStringILm4EEE
openmw:_ZN3ESM9ESMWriterC1Ev
openmw:_ZN3ESM9ESMWriterC2Ev
openmw:_ZN3ESM9GlobalMap4loadERNS_9ESMReaderE
openmw:_ZN3ESM9QuickKeys4loadERNS_9ESMReaderE
openmw:_ZN3ESM9SavedGame14sCurrentFormatE
openmw:_ZN3ESM9SavedGame4loadERNS_9ESMReaderE
openmw:_ZN3ESM9SpellList3addERNS_9ESMReaderE
openmw:_ZN3ESM9StatStateIfE4loadERNS_9ESMReaderEb
openmw:_ZN3ESM9StatStateIfEC1Ev
openmw:_ZN3ESM9StatStateIfEC2Ev
openmw:_ZN3ESM9StatStateIiE4loadERNS_9ESMReaderEb
openmw:_ZN3ESM9StatStateIiEC1Ev
openmw:_ZN3ESM9StatStateIiEC2Ev
openmw:_ZN3ESM9Transport3addERNS_9ESMReaderE
openmw:_ZN3ESMeqERKNS_11GameSettingES2_
openmw:_ZN3ESMeqERKNS_12MovedCellRefERKNS_6RefNumE
openmw:_ZN3ESMeqERKNS_6CellIdES2_
openmw:_ZN3ESMeqERKNS_6GlobalES2_
openmw:_ZN3ESMeqERKNS_7CellRefERKNS_6RefNumE
openmw:_ZN3ESMlsERSoRKNS_7VariantE
openmw:_ZN3ESMltERKNS_6CellIdES2_
openmw:_ZN3ESMneERKNS_6CellIdES2_
openmw:_ZN3Gui10FontLoader13getFontHeightEv
openmw:_ZN3Gui10FontLoader14getFontForFaceERKNSt7__cxx1112basic_stringIcSt11char_traitsIcESaIcEEE
openmw:_ZN3Gui10FontLoader14loadBitmapFontERKNSt7__cxx1112basic_stringIcSt11char_traitsIcESaIcEEES8_
openmw:_ZN3Gui10FontLoader16loadTrueTypeFontERKNSt7__cxx1112basic_stringIcSt11char_traitsIcESaIcEEES8_
openmw:_ZN3Gui10FontLoader18overrideLineHeightEPN5MyGUI3xml7ElementERKNSt7__cxx1112basic_stringIcSt11char_traitsIcESaIcEEENS1_7VersionE
openmw:_ZN3Gui10FontLoader8loadFontERKNSt7__cxx1112basic_stringIcSt11char_traitsIcESaIcEEES8_
openmw:_ZN3Gui10FontLoader9loadFontsEv
openmw:_ZN3Gui10FontLoaderC1EN6ToUTF88FromTypeEPKN3VFS7ManagerEf
openmw:_ZN3Gui10FontLoaderC2EN6ToUTF88FromTypeEPKN3VFS7ManagerEf
openmw:_ZN3Gui10replaceTagERKN5MyGUI7UStringERS1_
openmw:_ZN3Gui11ImageButton11updateImageEv
openmw:_ZN3Gui11ImageButton13onKeySetFocusEPN5MyGUI6WidgetE
openmw:_ZN3Gui11ImageButton14onKeyLostFocusEPN5MyGUI6WidgetE
openmw:_ZN3Gui11ImageButton14setTextureRectEN5MyGUI5types6TCoordIiEE
openmw:_ZN3Gui11ImageButton15onMouseSetFocusEPN5MyGUI6WidgetE
openmw:_ZN3Gui11ImageButton16getRequestedSizeEv
openmw:_ZN3Gui11ImageButton16onMouseLostFocusEPN5MyGUI6WidgetE
openmw:_ZN3Gui11ImageButton19setPropertyOverrideERKNSt7__cxx1112basic_stringIcSt11char_traitsIcESaIcEEES8_
openmw:_ZN3Gui11ImageButton20onMouseButtonPressedEiiN5MyGUI11MouseButtonE
openmw:_ZN3Gui11ImageButton20sDefaultNeedKeyFocusE
openmw:_ZN3Gui11ImageButton21onMouseButtonReleasedEiiN5MyGUI11MouseButtonE
openmw:_ZN3Gui11ImageButton22setDefaultNeedKeyFocusEb
openmw:_ZN3Gui11ImageButton8setImageERKNSt7__cxx1112basic_stringIcSt11char_traitsIcESaIcEEE
openmw:_ZN3Gui11ImageButtonC1Ev
openmw:_ZN3Gui11ImageButtonC2Ev
openmw:_ZN3Gui13WindowCaption10setCaptionERKN5MyGUI7UStringE
openmw:_ZN3Gui13WindowCaption18initialiseOverrideEv
openmw:_ZN3Gui13WindowCaption5alignEv
openmw:_ZN3Gui13WindowCaption7setSizeERKN5MyGUI5types5TSizeIiEE
openmw:_ZN3Gui13WindowCaption8setCoordERKN5MyGUI5types6TCoordIiEE
openmw:_ZN3Gui13WindowCaptionC1Ev
openmw:_ZN3Gui13WindowCaptionC2Ev
openmw:_ZN3Gui14NumericEditBox11setMaxValueEi
openmw:_ZN3Gui14NumericEditBox11setMinValueEi
openmw:_ZN3Gui14NumericEditBox14onKeyLostFocusEPN5MyGUI6WidgetE
openmw:_ZN3Gui14NumericEditBox16onEditTextChangeEPN5MyGUI7EditBoxE
openmw:_ZN3Gui14NumericEditBox16shutdownOverrideEv
openmw:_ZN3Gui14NumericEditBox18initialiseOverrideEv
openmw:_ZN3Gui14NumericEditBox18onKeyButtonPressedEN5MyGUI7KeyCodeEj
openmw:_ZN3Gui14NumericEditBox8getValueEv
openmw:_ZN3Gui14NumericEditBox8setValueEi
openmw:_ZN3Gui15AutoSizedButton10setCaptionERKN5MyGUI7UStringE
openmw:_ZN3Gui15AutoSizedButton16getRequestedSizeEv
openmw:_ZN3Gui15AutoSizedButton19setPropertyOverrideERKNSt7__cxx1112basic_stringIcSt11char_traitsIcESaIcEEES8_
openmw:_ZN3Gui15AutoSizedWidget16notifySizeChangeEPN5MyGUI6WidgetE
openmw:_ZN3Gui16AutoSizedEditBox10setCaptionERKN5MyGUI7UStringE
openmw:_ZN3Gui16AutoSizedEditBox16getRequestedSizeEv
openmw:_ZN3Gui16AutoSizedEditBox18initialiseOverrideEv
openmw:_ZN3Gui16AutoSizedEditBox19setPropertyOverrideERKNSt7__cxx1112basic_stringIcSt11char_traitsIcESaIcEEES8_
openmw:_ZN3Gui16AutoSizedEditBox8getWidthEv
openmw:_ZN3Gui16AutoSizedTextBox10setCaptionERKN5MyGUI7UStringE
openmw:_ZN3Gui16AutoSizedTextBox16getRequestedSizeEv
openmw:_ZN3Gui16AutoSizedTextBox19setPropertyOverrideERKNSt7__cxx1112basic_stringIcSt11char_traitsIcESaIcEEES8_
openmw:_ZN3Gui17SharedStateButton14shareStateWithERKSt6vectorIPS0_SaIS2_EE
openmw:_ZN3Gui17SharedStateButton15onMouseSetFocusEPN5MyGUI6WidgetE
openmw:_ZN3Gui17SharedStateButton16baseUpdateEnableEv
openmw:_ZN3Gui17SharedStateButton16onMouseLostFocusEPN5MyGUI6WidgetE
openmw:_ZN3Gui17SharedStateButton16setStateSelectedEb
openmw:_ZN3Gui17SharedStateButton16shutdownOverrideEv
openmw:_ZN3Gui17SharedStateButton17createButtonGroupESt6vectorIPS0_SaIS2_EE
openmw:_ZN3Gui17SharedStateButton17updateButtonStateEv
openmw:_ZN3Gui17SharedStateButton20onMouseButtonPressedEiiN5MyGUI11MouseButtonE
openmw:_ZN3Gui17SharedStateButton21onMouseButtonReleasedEiiN5MyGUI11MouseButtonE
openmw:_ZN3Gui17SharedStateButton9_setStateERKNSt7__cxx1112basic_stringIcSt11char_traitsIcESaIcEEE
openmw:_ZN3Gui17SharedStateButtonC1Ev
openmw:_ZN3Gui17SharedStateButtonC2Ev
openmw:_ZN3Gui18registerAllWidgetsEv
openmw:_ZN3Gui3Box16_setPropertyImplERKNSt7__cxx1112basic_stringIcSt11char_traitsIcESaIcEEES8_
openmw:_ZN3Gui3Box25notifyChildrenSizeChangedEv
openmw:_ZN3Gui3BoxC1Ev
openmw:_ZN3Gui3BoxC2Ev
openmw:_ZN3Gui4HBox15onWidgetCreatedEPN5MyGUI6WidgetE
openmw:_ZN3Gui4HBox16getRequestedSizeEv
openmw:_ZN3Gui4HBox18initialiseOverrideEv
openmw:_ZN3Gui4HBox19setPropertyOverrideERKNSt7__cxx1112basic_stringIcSt11char_traitsIcESaIcEEES8_
openmw:_ZN3Gui4HBox5alignEv
openmw:_ZN3Gui4HBox7setSizeERKN5MyGUI5types5TSizeIiEE
openmw:_ZN3Gui4HBox8setCoordERKN5MyGUI5types6TCoordIiEE
openmw:_ZN3Gui4VBox15onWidgetCreatedEPN5MyGUI6WidgetE
openmw:_ZN3Gui4VBox16getRequestedSizeEv
openmw:_ZN3Gui4VBox18initialiseOverrideEv
openmw:_ZN3Gui4VBox19setPropertyOverrideERKNSt7__cxx1112basic_stringIcSt11char_traitsIcESaIcEEES8_
openmw:_ZN3Gui4VBox5alignEv
openmw:_ZN3Gui4VBox7setSizeERKN5MyGUI5types5TSizeIiEE
openmw:_ZN3Gui4VBox8setCoordERKN5MyGUI5types6TCoordIiEE
openmw:_ZN3Gui6MWList10adjustSizeEv
openmw:_ZN3Gui6MWList10removeItemERKNSt7__cxx1112basic_stringIcSt11char_traitsIcESaIcEEE
openmw:_ZN3Gui6MWList11scrollToTopEv
openmw:_ZN3Gui6MWList12addSeparatorEv
openmw:_ZN3Gui6MWList12getItemCountEv
openmw:_ZN3Gui6MWList13getItemNameAtB5cxx11Ej
openmw:_ZN3Gui6MWList13getItemWidgetERKNSt7__cxx1112basic_stringIcSt11char_traitsIcESaIcEEE
openmw:_ZN3Gui6MWList14onItemSelectedEPN5MyGUI6WidgetE
openmw:_ZN3Gui6MWList17onMouseWheelMovedEPN5MyGUI6WidgetEi
openmw:_ZN3Gui6MWList18initialiseOverrideEv
openmw:_ZN3Gui6MWList19setPropertyOverrideERKNSt7__cxx1112basic_stringIcSt11char_traitsIcESaIcEEES8_
openmw:_ZN3Gui6MWList5clearEv
openmw:_ZN3Gui6MWList6redrawEb
openmw:_ZN3Gui6MWList7addItemERKNSt7__cxx1112basic_stringIcSt11char_traitsIcESaIcEEE
openmw:_ZN3Gui6MWListC1Ev
openmw:_ZN3Gui6MWListC2Ev
openmw:_ZN3Gui6SpacerC1Ev
openmw:_ZN3Gui6SpacerC2Ev
openmw:_ZN3Gui8ComboBox19setPropertyOverrideERKNSt7__cxx1112basic_stringIcSt11char_traitsIcESaIcEEES8_
openmw:_ZN3ICS18InputControlSystem10keyPressedERK17SDL_KeyboardEvent
openmw:_ZN3ICS18InputControlSystem10mouseMovedERK20SDL_MouseMotionEvent
openmw:_ZN3ICS18InputControlSystem11findControlENSt7__cxx1112basic_stringIcSt11char_traitsIcESaIcEEE
openmw:_ZN3ICS18InputControlSystem11keyReleasedERK17SDL_KeyboardEvent
openmw:_ZN3ICS18InputControlSystem12mousePressedERK20SDL_MouseButtonEventh
openmw:_ZN3ICS18InputControlSystem13addKeyBindingEPNS_7ControlE12SDL_ScancodeNS1_24ControlChangingDirectionE
openmw:_ZN3ICS18InputControlSystem13buttonPressedEiRK25SDL_ControllerButtonEvent
openmw:_ZN3ICS18InputControlSystem13getKeyBindingEPNS_7ControlENS1_24ControlChangingDirectionE
openmw:_ZN3ICS18InputControlSystem13mouseReleasedERK20SDL_MouseButtonEventh
openmw:_ZN3ICS18InputControlSystem14buttonReleasedEiRK25SDL_ControllerButtonEvent
openmw:_ZN3ICS18InputControlSystem14loadKeyBindersEP12TiXmlElement
openmw:_ZN3ICS18InputControlSystem15controllerAddedEiRK25SDL_ControllerDeviceEvent
openmw:_ZN3ICS18InputControlSystem15getBaseFileNameB5cxx11Ev
openmw:_ZN3ICS18InputControlSystem15getChannelValueEi
openmw:_ZN3ICS18InputControlSystem15getControlValueEi
openmw:_ZN3ICS18InputControlSystem15mouseWheelMovedERK19SDL_MouseWheelEvent
openmw:_ZN3ICS18InputControlSystem16removeKeyBindingE12SDL_Scancode
openmw:_ZN3ICS18InputControlSystem16scancodeToStringB5cxx11E12SDL_Scancode
openmw:_ZN3ICS18InputControlSystem17adjustMouseRegionEtt
openmw:_ZN3ICS18InputControlSystem17controllerRemovedERK25SDL_ControllerDeviceEvent
openmw:_ZN3ICS18InputControlSystem19addMouseAxisBindingEPNS_7ControlENS0_9NamedAxisENS1_24ControlChangingDirectionE
openmw:_ZN3ICS18InputControlSystem19getMouseAxisBindingEPNS_7ControlENS1_24ControlChangingDirectionE
openmw:_ZN3ICS18InputControlSystem20addMouseAxisBinding_EPNS_7ControlEiNS1_24ControlChangingDirectionE
openmw:_ZN3ICS18InputControlSystem20addMouseWheelBindingEPNS_7ControlENS0_15MouseWheelClickENS1_24ControlChangingDirectionE
openmw:_ZN3ICS18InputControlSystem20getMouseWheelBindingEPNS_7ControlENS1_24ControlChangingDirectionE
openmw:_ZN3ICS18InputControlSystem20loadMouseAxisBindersEP12TiXmlElement
openmw:_ZN3ICS18InputControlSystem21addMouseButtonBindingEPNS_7ControlEjNS1_24ControlChangingDirectionE
openmw:_ZN3ICS18InputControlSystem21detectingBindingStateEv
openmw:_ZN3ICS18InputControlSystem21getMouseButtonBindingEPNS_7ControlENS1_24ControlChangingDirectionE
openmw:_ZN3ICS18InputControlSystem21loadMouseWheelBindersEP12TiXmlElement
openmw:_ZN3ICS18InputControlSystem22addJoystickAxisBindingEPNS_7ControlEiiNS1_24ControlChangingDirectionE
openmw:_ZN3ICS18InputControlSystem22getJoystickAxisBindingEPNS_7ControlEiNS1_24ControlChangingDirectionE
openmw:_ZN3ICS18InputControlSystem22loadMouseButtonBindersEP12TiXmlElement
openmw:_ZN3ICS18InputControlSystem22removeMouseAxisBindingENS0_9NamedAxisE
openmw:_ZN3ICS18InputControlSystem23loadJoystickAxisBindersEP12TiXmlElement
openmw:_ZN3ICS18InputControlSystem23removeMouseAxisBinding_Ei
openmw:_ZN3ICS18InputControlSystem23removeMouseWheelBindingENS0_15MouseWheelClickE
openmw:_ZN3ICS18InputControlSystem24addJoystickButtonBindingEPNS_7ControlEijNS1_24ControlChangingDirectionE
openmw:_ZN3ICS18InputControlSystem24getJoystickButtonBindingEPNS_7ControlEiNS1_24ControlChangingDirectionE
openmw:_ZN3ICS18InputControlSystem24removeMouseButtonBindingEj
openmw:_ZN3ICS18InputControlSystem25loadJoystickButtonBindersEP12TiXmlElement
openmw:_ZN3ICS18InputControlSystem25removeJoystickAxisBindingEii
openmw:_ZN3ICS18InputControlSystem27cancelDetectingBindingStateEv
openmw:_ZN3ICS18InputControlSystem27enableDetectingBindingStateEPNS_7ControlENS1_24ControlChangingDirectionE
openmw:_ZN3ICS18InputControlSystem27removeJoystickButtonBindingEij
openmw:_ZN3ICS18InputControlSystem4saveENSt7__cxx1112basic_stringIcSt11char_traitsIcESaIcEEE
openmw:_ZN3ICS18InputControlSystem6updateEf
openmw:_ZN3ICS18InputControlSystem9axisMovedEiRK23SDL_ControllerAxisEvent
openmw:_ZN3ICS18InputControlSystemC1ENSt7__cxx1112basic_stringIcSt11char_traitsIcESaIcEEEbPNS_24DetectingBindingListenerEPNS_21InputControlSystemLogEm
openmw:_ZN3ICS18InputControlSystemC2ENSt7__cxx1112basic_stringIcSt11char_traitsIcESaIcEEEbPNS_24DetectingBindingListenerEPNS_21InputControlSystemLogEm
openmw:_ZN3ICS18InputControlSystemD1Ev
openmw:_ZN3ICS18InputControlSystemD2Ev
openmw:_ZN3ICS24DetectingBindingListener18keyBindingDetectedEPNS_18InputControlSystemEPNS_7ControlE12SDL_ScancodeNS3_24ControlChangingDirectionE
openmw:_ZN3ICS24DetectingBindingListener24mouseAxisBindingDetectedEPNS_18InputControlSystemEPNS_7ControlENS1_9NamedAxisENS3_24ControlChangingDirectionE
openmw:_ZN3ICS24DetectingBindingListener25mouseWheelBindingDetectedEPNS_18InputControlSystemEPNS_7ControlENS1_15MouseWheelClickENS3_24ControlChangingDirectionE
openmw:_ZN3ICS24DetectingBindingListener26mouseButtonBindingDetectedEPNS_18InputControlSystemEPNS_7ControlEjNS3_24ControlChangingDirectionE
openmw:_ZN3ICS24DetectingBindingListener27joystickAxisBindingDetectedEPNS_18InputControlSystemEiPNS_7ControlEiNS3_24ControlChangingDirectionE
openmw:_ZN3ICS24DetectingBindingListener29joystickButtonBindingDetectedEPNS_18InputControlSystemEiPNS_7ControlEjNS3_24ControlChangingDirectionE
openmw:_ZN3ICS7Channel10addControlEPNS_7ControlENS0_16ChannelDirectionEf
openmw:_ZN3ICS7Channel10setEnabledEb
openmw:_ZN3ICS7Channel15notifyListenersEf
openmw:_ZN3ICS7Channel17addBezierIntervalEfffffff
openmw:_ZN3ICS7Channel17setBezierFunctionEffff
openmw:_ZN3ICS7Channel25getAttachedControlBindingEPNS_7ControlE
openmw:_ZN3ICS7Channel6updateEv
openmw:_ZN3ICS7Channel8getValueEv
openmw:_ZN3ICS7Channel8setValueEf
openmw:_ZN3ICS7ChannelC1Eifffff
openmw:_ZN3ICS7ChannelC2Eifffff
openmw:_ZN3ICS7Control13attachChannelEPNS_7ChannelENS1_16ChannelDirectionEf
openmw:_ZN3ICS7Control14updateChannelsEv
openmw:_ZN3ICS7Control15notifyListenersEf
openmw:_ZN3ICS7Control20setChangingDirectionENS0_24ControlChangingDirectionE
openmw:_ZN3ICS7Control6updateEf
openmw:_ZN3ICS7Control8setValueEf
openmw:_ZN3ICS7ControlC1ERKNSt7__cxx1112basic_stringIcSt11char_traitsIcESaIcEEEbbfffb
openmw:_ZN3ICS7ControlC2ERKNSt7__cxx1112basic_stringIcSt11char_traitsIcESaIcEEEbbfffb
openmw:_ZN3ICS7ControlD1Ev
openmw:_ZN3ICS7ControlD2Ev
openmw:_ZN3ICS7ICS_MAXE
openmw:_ZN3LogC1EN5Debug5LevelE
openmw:_ZN3LogC2EN5Debug5LevelE
openmw:_ZN3LogD1Ev
openmw:_ZN3LogD2Ev
openmw:_ZN3Nif10Controller4postEPNS_7NIFFileE
openmw:_ZN3Nif10Controller4readEPNS_9NIFStreamE
openmw:_ZN3Nif10NiBoolData4readEPNS_9NIFStreamE
openmw:_ZN3Nif10NiGeometry12MaterialData4readEPNS_9NIFStreamE
openmw:_ZN3Nif10NiGeometry4postEPNS_7NIFFileE
openmw:_ZN3Nif10NiGeometry4readEPNS_9NIFStreamE
openmw:_ZN3Nif10NiSkinData4postEPNS_7NIFFileE
openmw:_ZN3Nif10NiSkinData4readEPNS_9NIFStreamE
openmw:_ZN3Nif11HavokFilter4readEPNS_9NIFStreamE
openmw:_ZN3Nif11NiColorData4readEPNS_9NIFStreamE
openmw:_ZN3Nif11NiExtraData4readEPNS_9NIFStreamE
openmw:_ZN3Nif11NiFloatData4readEPNS_9NIFStreamE
openmw:_ZN3Nif11NiLinesData4readEPNS_9NIFStreamE
openmw:_ZN3Nif11NiMorphData4readEPNS_9NIFStreamE
openmw:_ZN3Nif11NiPixelData4postEPNS_7NIFFileE
openmw:_ZN3Nif11NiPixelData4readEPNS_9NIFStreamE
openmw:_ZN3Nif11NiSpotLight4readEPNS_9NIFStreamE
openmw:_ZN3Nif11bhkBoxShape4readEPNS_9NIFStreamE
openmw:_ZN3Nif11hkpMoppCode4readEPNS_9NIFStreamE
openmw:_ZN3Nif12NiPointLight4readEPNS_9NIFStreamE
openmw:_ZN3Nif12NiSwitchNode4readEPNS_9NIFStreamE
openmw:_ZN3Nif12TriangleData4readEPNS_9NIFStreamE
openmw:_ZN3Nif12bhkListShape4readEPNS_9NIFStreamE
openmw:_ZN3Nif12bhkRigidBody4readEPNS_9NIFStreamE
openmw:_ZN3Nif13BSLODTriShape4readEPNS_9NIFStreamE
openmw:_ZN3Nif13HavokMaterial4readEPNS_9NIFStreamE
openmw:_ZN3Nif13NiFogProperty4readEPNS_9NIFStreamE
openmw:_ZN3Nif13hkSubPartData4readEPNS_9NIFStreamE
openmw:_ZN3Nif14NiGeometryData4readEPNS_9NIFStreamE
openmw:_ZN3Nif14NiKeyframeData4readEPNS_9NIFStreamE
openmw:_ZN3Nif14NiSkinInstance4postEPNS_7NIFFileE
openmw:_ZN3Nif14NiSkinInstance4readEPNS_9NIFStreamE
openmw:_ZN3Nif14NiTriShapeData4readEPNS_9NIFStreamE
openmw:_ZN3Nif14NiUVController4postEPNS_7NIFFileE
openmw:_ZN3Nif14NiUVController4readEPNS_9NIFStreamE
openmw:_ZN3Nif14bhkBvTreeShape4postEPNS_7NIFFileE
openmw:_ZN3Nif14bhkBvTreeShape4readEPNS_9NIFStreamE
openmw:_ZN3Nif14bhkConvexShape4readEPNS_9NIFStreamE
openmw:_ZN3Nif14bhkEntityCInfo4readEPNS_9NIFStreamE
openmw:_ZN3Nif14bhkWorldObject4postEPNS_7NIFFileE
openmw:_ZN3Nif14bhkWorldObject4readEPNS_9NIFStreamE
openmw:_ZN3Nif15NiDynamicEffect4readEPNS_9NIFStreamE
openmw:_ZN3Nif15NiParticlesData4readEPNS_9NIFStreamE
openmw:_ZN3Nif15NiSkinPartition4readEPNS_9NIFStreamE
openmw:_ZN3Nif15NiSkinPartition9Partition4readEPNS_9NIFStreamE
openmw:_ZN3Nif15NiSourceTexture4postEPNS_7NIFFileE
openmw:_ZN3Nif15NiSourceTexture4readEPNS_9NIFStreamE
openmw:_ZN3Nif15NiStringPalette4readEPNS_9NIFStreamE
openmw:_ZN3Nif15NiTextureEffect4postEPNS_7NIFFileE
openmw:_ZN3Nif15NiTextureEffect4readEPNS_9NIFStreamE
openmw:_ZN3Nif15NiTriStripsData4readEPNS_9NIFStreamE
openmw:_ZN3Nif15NiVisController4postEPNS_7NIFFileE
openmw:_ZN3Nif15NiVisController4readEPNS_9NIFStreamE
openmw:_ZN3Nif15S_AlphaProperty4readEPNS_9NIFStreamE
openmw:_ZN3Nif16BSShaderProperty4readEPNS_9NIFStreamE
openmw:_ZN3Nif16NiBoundingVolume4readEPNS_9NIFStreamE
openmw:_ZN3Nif16NiFlipController4postEPNS_7NIFFileE
openmw:_ZN3Nif16NiFlipController4readEPNS_9NIFStreamE
openmw:_ZN3Nif16NiFloatExtraData4readEPNS_9NIFStreamE
openmw:_ZN3Nif16NiPathController4postEPNS_7NIFFileE
openmw:_ZN3Nif16NiPathController4readEPNS_9NIFStreamE
openmw:_ZN3Nif16NiPlanarCollider4readEPNS_9NIFStreamE
openmw:_ZN3Nif16NiSortAdjustNode4postEPNS_7NIFFileE
openmw:_ZN3Nif16NiSortAdjustNode4readEPNS_9NIFStreamE
openmw:_ZN3Nif17BSFurnitureMarker17FurniturePosition4readEPNS_9NIFStreamE
openmw:_ZN3Nif17BSFurnitureMarker23LegacyFurniturePosition4readEPNS_9NIFStreamE
openmw:_ZN3Nif17BSFurnitureMarker4readEPNS_9NIFStreamE
openmw:_ZN3Nif17NiBinaryExtraData4readEPNS_9NIFStreamE
openmw:_ZN3Nif17NiFloatsExtraData4readEPNS_9NIFStreamE
openmw:_ZN3Nif17NiStringExtraData4readEPNS_9NIFStreamE
openmw:_ZN3Nif17NiVectorExtraData4readEPNS_9NIFStreamE
openmw:_ZN3Nif17S_StencilProperty4readEPNS_9NIFStreamE
openmw:_ZN3Nif17bhkRigidBodyCInfo4readEPNS_9NIFStreamE
openmw:_ZN3Nif17bhkSphereRepShape4readEPNS_9NIFStreamE
openmw:_ZN3Nif18BSShaderTextureSet4readEPNS_9NIFStreamE
openmw:_ZN3Nif18NiBoolInterpolator4postEPNS_7NIFFileE
openmw:_ZN3Nif18NiBoolInterpolator4readEPNS_9NIFStreamE
openmw:_ZN3Nif18NiBooleanExtraData4readEPNS_9NIFStreamE
openmw:_ZN3Nif18NiFltAnimationNode4readEPNS_9NIFStreamE
openmw:_ZN3Nif18NiIntegerExtraData4readEPNS_9NIFStreamE
openmw:_ZN3Nif18NiLookAtController4postEPNS_7NIFFileE
openmw:_ZN3Nif18NiLookAtController4readEPNS_9NIFStreamE
openmw:_ZN3Nif18NiParticleCollider4readEPNS_9NIFStreamE
openmw:_ZN3Nif18NiParticleGrowFade4readEPNS_9NIFStreamE
openmw:_ZN3Nif18NiParticleModifier4postEPNS_7NIFFileE
openmw:_ZN3Nif18NiParticleModifier4readEPNS_9NIFStreamE
openmw:_ZN3Nif18NiParticleRotation4readEPNS_9NIFStreamE
openmw:_ZN3Nif18NiTextKeyExtraData4readEPNS_9NIFStreamE
openmw:_ZN3Nif18S_MaterialProperty4readEPNS_9NIFStreamE
openmw:_ZN3Nif18bhkBlendController4readEPNS_9NIFStreamE
openmw:_ZN3Nif18bhkCollisionObject4readEPNS_9NIFStreamE
openmw:_ZN3Nif18bhkMoppBvTreeShape4readEPNS_9NIFStreamE
openmw:_ZN3Nif19NiColorInterpolator4postEPNS_7NIFFileE
openmw:_ZN3Nif19NiColorInterpolator4readEPNS_9NIFStreamE
openmw:_ZN3Nif19NiControllerManager4readEPNS_9NIFStreamE
openmw:_ZN3Nif19NiFloatInterpolator4postEPNS_7NIFFileE
openmw:_ZN3Nif19NiFloatInterpolator4readEPNS_9NIFStreamE
openmw:_ZN3Nif19NiIntegersExtraData4readEPNS_9NIFStreamE
openmw:_ZN3Nif19NiSphericalCollider4readEPNS_9NIFStreamE
openmw:_ZN3Nif19NiTexturingProperty4postEPNS_7NIFFileE
openmw:_ZN3Nif19NiTexturingProperty4readEPNS_9NIFStreamE
openmw:_ZN3Nif19NiTexturingProperty7Texture4postEPNS_7NIFFileE
openmw:_ZN3Nif19NiTexturingProperty7Texture4readEPNS_9NIFStreamE
openmw:_ZN3Nif19bhkNiTriStripsShape4postEPNS_7NIFFileE
openmw:_ZN3Nif19bhkNiTriStripsShape4readEPNS_9NIFStreamE
openmw:_ZN3Nif19bhkWorldObjectCInfo4readEPNS_9NIFStreamE
openmw:_ZN3Nif20NiKeyframeController4postEPNS_7NIFFileE
openmw:_ZN3Nif20NiKeyframeController4readEPNS_9NIFStreamE
openmw:_ZN3Nif20NiPoint3Interpolator4postEPNS_7NIFFileE
openmw:_ZN3Nif20NiPoint3Interpolator4readEPNS_9NIFStreamE
openmw:_ZN3Nif21S_VertexColorProperty4readEPNS_9NIFStreamE
openmw:_ZN3Nif22NiVertWeightsExtraData4readEPNS_9NIFStreamE
openmw:_ZN3Nif22bhkConvexVerticesShape4readEPNS_9NIFStreamE
openmw:_ZN3Nif23BSDismemberSkinInstance4readEPNS_9NIFStreamE
openmw:_ZN3Nif23NiFloatInterpController4postEPNS_7NIFFileE
openmw:_ZN3Nif23NiFloatInterpController4readEPNS_9NIFStreamE
openmw:_ZN3Nif23NiGeomMorpherController4postEPNS_7NIFFileE
openmw:_ZN3Nif23NiGeomMorpherController4readEPNS_9NIFStreamE
openmw:_ZN3Nif23NiParticleColorModifier4postEPNS_7NIFFileE
openmw:_ZN3Nif23NiParticleColorModifier4readEPNS_9NIFStreamE
openmw:_ZN3Nif23NiRotatingParticlesData4readEPNS_9NIFStreamE
openmw:_ZN3Nif23NiTransformInterpolator4postEPNS_7NIFFileE
openmw:_ZN3Nif23NiTransformInterpolator4readEPNS_9NIFStreamE
openmw:_ZN3Nif23hkPackedNiTriStripsData4readEPNS_9NIFStreamE
openmw:_ZN3Nif24BSLightingShaderProperty4postEPNS_7NIFFileE
openmw:_ZN3Nif24BSLightingShaderProperty4readEPNS_9NIFStreamE
openmw:_ZN3Nif24BSShaderLightingProperty4readEPNS_9NIFStreamE
openmw:_ZN3Nif24bhkWorldObjCInfoProperty4readEPNS_9NIFStreamE
openmw:_ZN3Nif25NiMaterialColorController4postEPNS_7NIFFileE
openmw:_ZN3Nif25NiMaterialColorController4readEPNS_9NIFStreamE
openmw:_ZN3Nif25bhkPackedNiTriStripsShape4postEPNS_7NIFFileE
openmw:_ZN3Nif25bhkPackedNiTriStripsShape4readEPNS_9NIFStreamE
openmw:_ZN3Nif26BSShaderNoLightingProperty4readEPNS_9NIFStreamE
openmw:_ZN3Nif26BSShaderPPLightingProperty4postEPNS_7NIFFileE
openmw:_ZN3Nif26BSShaderPPLightingProperty4readEPNS_9NIFStreamE
openmw:_ZN3Nif26NiParticleSystemController4postEPNS_7NIFFileE
openmw:_ZN3Nif26NiParticleSystemController4readEPNS_9NIFStreamE
openmw:_ZN3Nif4Node4postEPNS_7NIFFileE
openmw:_ZN3Nif4Node4readEPNS_9NIFStreamE
openmw:_ZN3Nif4Node7setBoneEv
openmw:_ZN3Nif5Extra4readEPNS_9NIFStreamE
openmw:_ZN3Nif5Named4postEPNS_7NIFFileE
openmw:_ZN3Nif5Named4readEPNS_9NIFStreamE
openmw:_ZN3Nif6NiNode4postEPNS_7NIFFileE
openmw:_ZN3Nif6NiNode4readEPNS_9NIFStreamE
openmw:_ZN3Nif7BSBound4readEPNS_9NIFStreamE
openmw:_ZN3Nif7NIFFile12printVersionB5cxx11Ej
openmw:_ZN3Nif7NIFFile14setUseSkinningEb
openmw:_ZN3Nif7NIFFile21sLoadUnsupportedFilesE
openmw:_ZN3Nif7NIFFile23setLoadUnsupportedFilesEb
openmw:_ZN3Nif7NIFFile5parseEOSt10unique_ptrISiSt14default_deleteISiEE
openmw:_ZN3Nif7NIFFileC1EOSt10unique_ptrISiSt14default_deleteISiEERKNSt7__cxx1112basic_stringIcSt11char_traitsIcESaIcEEE
openmw:_ZN3Nif7NIFFileC2EOSt10unique_ptrISiSt14default_deleteISiEERKNSt7__cxx1112basic_stringIcSt11char_traitsIcESaIcEEE
openmw:_ZN3Nif7NiLight4readEPNS_9NIFStreamE
openmw:_ZN3Nif8NiCamera4readEPNS_9NIFStreamE
openmw:_ZN3Nif8NiCamera6Camera4readEPNS_9NIFStreamE
openmw:_ZN3Nif8NiUVData4readEPNS_9NIFStreamE
openmw:_ZN3Nif9NIFStream10getBooleanEv
openmw:_ZN3Nif9NIFStream13getQuaternionEv
openmw:_ZN3Nif9NIFStream8getTrafoEv
openmw:_ZN3Nif9NIFStream9getStringB5cxx11Ev
openmw:_ZN3Nif9NiGravity4readEPNS_9NIFStreamE
openmw:_ZN3Nif9NiLODNode4readEPNS_9NIFStreamE
openmw:_ZN3Nif9NiPalette4readEPNS_9NIFStreamE
openmw:_ZN3Nif9NiPosData4readEPNS_9NIFStreamE
openmw:_ZN3Nif9NiVisData4readEPNS_9NIFStreamE
openmw:_ZN3Nif9bhkEntity4readEPNS_9NIFStreamE
openmw:_ZN3OMW6Engine10addArchiveERKNSt7__cxx1112basic_stringIcSt11char_traitsIcESaIcEEE
openmw:_ZN3OMW6Engine11setDataDirsERKSt6vectorIN5boost10filesystem4pathESaIS4_EE
openmw:_ZN3OMW6Engine11setEncodingERKN6ToUTF88FromTypeE
openmw:_ZN3OMW6Engine11setSkipMenuEbb
openmw:_ZN3OMW6Engine12createWindowEv
openmw:_ZN3OMW6Engine13prepareEngineEv
openmw:_ZN3OMW6Engine13setCompileAllEb
openmw:_ZN3OMW6Engine13setRandomSeedEj
openmw:_ZN3OMW6Engine13setSoundUsageEb
openmw:_ZN3OMW6Engine13setWindowIconEv
openmw:_ZN3OMW6Engine14addContentFileERKNSt7__cxx1112basic_stringIcSt11char_traitsIcESaIcEEE
openmw:_ZN3OMW6Engine14enableFSStrictEb
openmw:_ZN3OMW6Engine14setResourceDirERKN5boost10filesystem4pathE
openmw:_ZN3OMW6Engine15setSaveGameFileERKNSt7__cxx1112basic_stringIcSt11char_traitsIcESaIcEEE
openmw:_ZN3OMW6Engine15setWarningsModeEi
openmw:_ZN3OMW6Engine16setStartupScriptERKNSt7__cxx1112basic_stringIcSt11char_traitsIcESaIcEEE
openmw:_ZN3OMW6Engine18addGroundcoverFileERKNSt7__cxx1112basic_stringIcSt11char_traitsIcESaIcEEE
openmw:_ZN3OMW6Engine18setScriptBlacklistERKSt6vectorINSt7__cxx1112basic_stringIcSt11char_traitsIcESaIcEEESaIS7_EE
openmw:_ZN3OMW6Engine19executeLocalScriptsEv
openmw:_ZN3OMW6Engine20setScriptConsoleModeEb
openmw:_ZN3OMW6Engine21setCompileAllDialogueEb
openmw:_ZN3OMW6Engine21setScriptBlacklistUseEb
openmw:_ZN3OMW6Engine29setActivationDistanceOverrideEi
openmw:_ZN3OMW6Engine2goEv
openmw:_ZN3OMW6Engine5frameEf
openmw:_ZN3OMW6Engine7setCellERKNSt7__cxx1112basic_stringIcSt11char_traitsIcESaIcEEE
openmw:_ZN3OMW6EngineC1ERN5Files20ConfigurationManagerE
openmw:_ZN3OMW6EngineC2ERN5Files20ConfigurationManagerE
openmw:_ZN3OMW6EngineD0Ev
openmw:_ZN3OMW6EngineD1Ev
openmw:_ZN3OMW6EngineD2Ev
openmw:_ZN3VFS10BsaArchive13listResourcesERSt3mapINSt7__cxx1112basic_stringIcSt11char_traitsIcESaIcEEEPNS_4FileESt4lessIS7_ESaISt4pairIKS7_S9_EEEPFccE
openmw:_ZN3VFS10BsaArchiveC1ERKNSt7__cxx1112basic_stringIcSt11char_traitsIcESaIcEEE
openmw:_ZN3VFS10BsaArchiveC1Ev
openmw:_ZN3VFS10BsaArchiveC2ERKNSt7__cxx1112basic_stringIcSt11char_traitsIcESaIcEEE
openmw:_ZN3VFS10BsaArchiveC2Ev
openmw:_ZN3VFS10BsaArchiveD0Ev
openmw:_ZN3VFS10BsaArchiveD1Ev
openmw:_ZN3VFS10BsaArchiveD2Ev
openmw:_ZN3VFS14BsaArchiveFile4openEv
openmw:_ZN3VFS14BsaArchiveFileC1EPKN3Bsa7BSAFile10FileStructEPS2_
openmw:_ZN3VFS14BsaArchiveFileC2EPKN3Bsa7BSAFile10FileStructEPS2_
openmw:_ZN3VFS16registerArchivesEPNS_7ManagerERKN5Files11CollectionsERKSt6vectorINSt7__cxx1112basic_stringIcSt11char_traitsIcESaIcEEESaISC_EEb
openmw:_ZN3VFS17FileSystemArchive13listResourcesERSt3mapINSt7__cxx1112basic_stringIcSt11char_traitsIcESaIcEEEPNS_4FileESt4lessIS7_ESaISt4pairIKS7_S9_EEEPFccE
openmw:_ZN3VFS17FileSystemArchiveC1ERKNSt7__cxx1112basic_stringIcSt11char_traitsIcESaIcEEE
openmw:_ZN3VFS17FileSystemArchiveC2ERKNSt7__cxx1112basic_stringIcSt11char_traitsIcESaIcEEE
openmw:_ZN3VFS20CompressedBsaArchive13listResourcesERSt3mapINSt7__cxx1112basic_stringIcSt11char_traitsIcESaIcEEEPNS_4FileESt4lessIS7_ESaISt4pairIKS7_S9_EEEPFccE
openmw:_ZN3VFS20CompressedBsaArchiveC1ERKNSt7__cxx1112basic_stringIcSt11char_traitsIcESaIcEEE
openmw:_ZN3VFS20CompressedBsaArchiveC2ERKNSt7__cxx1112basic_stringIcSt11char_traitsIcESaIcEEE
openmw:_ZN3VFS21FileSystemArchiveFile4openEv
openmw:_ZN3VFS21FileSystemArchiveFileC1ERKNSt7__cxx1112basic_stringIcSt11char_traitsIcESaIcEEE
openmw:_ZN3VFS21FileSystemArchiveFileC2ERKNSt7__cxx1112basic_stringIcSt11char_traitsIcESaIcEEE
openmw:_ZN3VFS24CompressedBsaArchiveFile4openEv
openmw:_ZN3VFS24CompressedBsaArchiveFileC1EPKN3Bsa7BSAFile10FileStructEPNS1_17CompressedBSAFileE
openmw:_ZN3VFS24CompressedBsaArchiveFileC2EPKN3Bsa7BSAFile10FileStructEPNS1_17CompressedBSAFileE
openmw:_ZN3VFS7Manager10addArchiveEOSt10unique_ptrINS_7ArchiveESt14default_deleteIS2_EE
openmw:_ZN3VFS7Manager10buildIndexEv
openmw:_ZN3VFS7Manager5resetEv
openmw:_ZN3VFS7ManagerC1Eb
openmw:_ZN3VFS7ManagerC2Eb
openmw:_ZN3VFS7ManagerD1Ev
openmw:_ZN3VFS7ManagerD2Ev
openmw:_ZN3sol11weak_deriveI10SDL_KeysymE5valueE
openmw:_ZN3sol11weak_deriveIN11MWMechanics9AiPackageEE5valueE
openmw:_ZN3sol11weak_deriveIN3ESM10IngredientEE5valueE
openmw:_ZN3sol11weak_deriveIN3ESM13MiscellaneousEE5valueE
openmw:_ZN3sol11weak_deriveIN3ESM3NPCEE5valueE
openmw:_ZN3sol11weak_deriveIN3ESM4BookEE5valueE
openmw:_ZN3sol11weak_deriveIN3ESM4DoorEE5valueE
openmw:_ZN3sol11weak_deriveIN3ESM5ProbeEE5valueE
openmw:_ZN3sol11weak_deriveIN3ESM6PotionEE5valueE
openmw:_ZN3sol11weak_deriveIN3ESM6RefNumEE5valueE
openmw:_ZN3sol11weak_deriveIN3ESM6RepairEE5valueE
openmw:_ZN3sol11weak_deriveIN3ESM6WeaponEE5valueE
openmw:_ZN3sol11weak_deriveIN3ESM8CreatureEE5valueE
openmw:_ZN3sol11weak_deriveIN3ESM8LockpickEE5valueE
openmw:_ZN3sol11weak_deriveIN3ESM9ActivatorEE5valueE
openmw:_ZN3sol11weak_deriveIN3ESM9ApparatusEE5valueE
openmw:_ZN3sol11weak_deriveIN3ESM9ContainerEE5valueE
openmw:_ZN3sol11weak_deriveIN3osg5Vec2fEE5valueE
openmw:_ZN3sol11weak_deriveIN3osg5Vec3fEE5valueE
openmw:_ZN3sol11weak_deriveIN3osg5Vec4fEE5valueE
openmw:_ZN3sol11weak_deriveIN4Misc5ColorEE5valueE
openmw:_ZN3sol11weak_deriveIN5LuaUi11TextureDataEE5valueE
openmw:_ZN3sol11weak_deriveIN5LuaUi5LayerEE5valueE
openmw:_ZN3sol11weak_deriveIN5LuaUi7ElementEE5valueE
openmw:_ZN3sol11weak_deriveIN5MWLua10ObjectListINS1_7GObjectEEEE5valueE
openmw:_ZN3sol11weak_deriveIN5MWLua10ObjectListINS1_7LObjectEEEE5valueE
openmw:_ZN3sol11weak_deriveIN5MWLua11DynamicStatEE5valueE
openmw:_ZN3sol11weak_deriveIN5MWLua12LocalScripts10SelfObjectEE5valueE
openmw:_ZN3sol11weak_deriveIN5MWLua13AttributeStatEE5valueE
openmw:_ZN3sol11weak_deriveIN5MWLua5GCellEE5valueE
openmw:_ZN3sol11weak_deriveIN5MWLua5LCellEE5valueE
openmw:_ZN3sol11weak_deriveIN5MWLua6ObjectEE5valueE
openmw:_ZN3sol11weak_deriveIN5MWLua6ShaderEE5valueE
openmw:_ZN3sol11weak_deriveIN5MWLua7GObjectEE5valueE
openmw:_ZN3sol11weak_deriveIN5MWLua7LObjectEE5valueE
openmw:_ZN3sol11weak_deriveIN5MWLua9InventoryINS1_7GObjectEEEE5valueE
openmw:_ZN3sol11weak_deriveIN5MWLua9InventoryINS1_7LObjectEEEE5valueE
openmw:_ZN3sol11weak_deriveIN5MWLua9LevelStatEE5valueE
openmw:_ZN3sol11weak_deriveIN5MWLua9SkillStatEE5valueE
openmw:_ZN3sol11weak_deriveIN6MWBase10LuaManager13ActorControlsEE5valueE
openmw:_ZN3sol11weak_deriveIN7LuaUtil10LuaStorage11SectionViewEE5valueE
openmw:_ZN3sol11weak_deriveIN7LuaUtil10TransformMEE5valueE
openmw:_ZN3sol11weak_deriveIN7LuaUtil10TransformQEE5valueE
openmw:_ZN3sol11weak_deriveIN7LuaUtil11L10nManager7ContextEE5valueE
openmw:_ZN3sol11weak_deriveIN7LuaUtil13TimerCallbackEE5valueE
openmw:_ZN3sol11weak_deriveIN7LuaUtil14AsyncPackageIdEE5valueE
openmw:_ZN3sol11weak_deriveIN7LuaUtil16ScriptsContainer8ScriptIdEE5valueE
openmw:_ZN3sol11weak_deriveIN7SDLUtil10TouchEventEE5valueE
openmw:_ZN3sol11weak_deriveIN9MWPhysics16RayCastingResultEE5valueE
openmw:_ZN3sol11weak_deriveINS_9base_listIJEEEE5valueE
openmw:_ZN3sol11weak_deriveINS_9base_listIJN5MWLua6ObjectEEEEE5valueE
openmw:_ZN3sol11weak_deriveINS_9base_listIJN5MWLua7LObjectENS2_6ObjectEEEEE5valueE
openmw:_ZN3sol11weak_deriveISt6vectorIN3osg5Vec3fESaIS3_EEE5valueE
openmw:_ZN3sol11weak_deriveIZN5MWLua14getArraySetterIN3osg5Vec2fEEEDaRKNS1_7ContextEEUlRKNS1_6ShaderERKNSt7__cxx1112basic_stringIcSt11char_traitsIcESaIcEEERKNS_16basic_table_coreILb0ENS_15basic_referenceILb0EEEEEE_E5valueE
openmw:_ZN3sol11weak_deriveIZN5MWLua14getArraySetterIN3osg5Vec3fEEEDaRKNS1_7ContextEEUlRKNS1_6ShaderERKNSt7__cxx1112basic_stringIcSt11char_traitsIcESaIcEEERKNS_16basic_table_coreILb0ENS_15basic_referenceILb0EEEEEE_E5valueE
openmw:_ZN3sol11weak_deriveIZN5MWLua14getArraySetterIN3osg5Vec4fEEEDaRKNS1_7ContextEEUlRKNS1_6ShaderERKNSt7__cxx1112basic_stringIcSt11char_traitsIcESaIcEEERKNS_16basic_table_coreILb0ENS_15basic_referenceILb0EEEEEE_E5valueE
openmw:_ZN3sol11weak_deriveIZN5MWLua14getArraySetterIfEEDaRKNS1_7ContextEEUlRKNS1_6ShaderERKNSt7__cxx1112basic_stringIcSt11char_traitsIcESaIcEEERKNS_16basic_table_coreILb0ENS_15basic_referenceILb0EEEEEE_E5valueE
openmw:_ZN3sol11weak_deriveIZN5MWLua14getArraySetterIiEEDaRKNS1_7ContextEEUlRKNS1_6ShaderERKNSt7__cxx1112basic_stringIcSt11char_traitsIcESaIcEEERKNS_16basic_table_coreILb0ENS_15basic_referenceILb0EEEEEE_E5valueE
openmw:_ZN3sol11weak_deriveIZN5MWLua9getSetterIN3osg5Vec2fEEEDaRKNS1_7ContextEEUlRKNS1_6ShaderERKNSt7__cxx1112basic_stringIcSt11char_traitsIcESaIcEEERKS4_E_E5valueE
openmw:_ZN3sol11weak_deriveIZN5MWLua9getSetterIN3osg5Vec3fEEEDaRKNS1_7ContextEEUlRKNS1_6ShaderERKNSt7__cxx1112basic_stringIcSt11char_traitsIcESaIcEEERKS4_E_E5valueE
openmw:_ZN3sol11weak_deriveIZN5MWLua9getSetterIN3osg5Vec4fEEEDaRKNS1_7ContextEEUlRKNS1_6ShaderERKNSt7__cxx1112basic_stringIcSt11char_traitsIcESaIcEEERKS4_E_E5valueE
openmw:_ZN3sol11weak_deriveIZN5MWLua9getSetterIbEEDaRKNS1_7ContextEEUlRKNS1_6ShaderERKNSt7__cxx1112basic_stringIcSt11char_traitsIcESaIcEEERKbE_E5valueE
openmw:_ZN3sol11weak_deriveIZN5MWLua9getSetterIfEEDaRKNS1_7ContextEEUlRKNS1_6ShaderERKNSt7__cxx1112basic_stringIcSt11char_traitsIcESaIcEEERKfE_E5valueE
openmw:_ZN3sol11weak_deriveIZN5MWLua9getSetterIiEEDaRKNS1_7ContextEEUlRKNS1_6ShaderERKNSt7__cxx1112basic_stringIcSt11char_traitsIcESaIcEEERKiE_E5valueE
openmw:_ZN3sol12no_metatableE
openmw:_ZN3sol13metatable_keyE
openmw:_ZN3sol15function_detail18call_wrapper_entryIMZN5MWLua14getArraySetterIN3osg5Vec2fEEEDaRKNS2_7ContextEEUlRKNS2_6ShaderERKNSt7__cxx1112basic_stringIcSt11char_traitsIcESaIcEEERKNS_16basic_table_coreILb0ENS_15basic_referenceILb0EEEEEE_KFvSB_SJ_SP_EXadL_ZZNS3_IS5_EEDaS8_ENKSQ_clESB_SJ_SP_EEEEiP9lua_State
openmw:_ZN3sol15function_detail18call_wrapper_entryIMZN5MWLua14getArraySetterIN3osg5Vec3fEEEDaRKNS2_7ContextEEUlRKNS2_6ShaderERKNSt7__cxx1112basic_stringIcSt11char_traitsIcESaIcEEERKNS_16basic_table_coreILb0ENS_15basic_referenceILb0EEEEEE_KFvSB_SJ_SP_EXadL_ZZNS3_IS5_EEDaS8_ENKSQ_clESB_SJ_SP_EEEEiP9lua_State
openmw:_ZN3sol15function_detail18call_wrapper_entryIMZN5MWLua14getArraySetterIN3osg5Vec4fEEEDaRKNS2_7ContextEEUlRKNS2_6ShaderERKNSt7__cxx1112basic_stringIcSt11char_traitsIcESaIcEEERKNS_16basic_table_coreILb0ENS_15basic_referenceILb0EEEEEE_KFvSB_SJ_SP_EXadL_ZZNS3_IS5_EEDaS8_ENKSQ_clESB_SJ_SP_EEEEiP9lua_State
openmw:_ZN3sol15function_detail18call_wrapper_entryIMZN5MWLua14getArraySetterIfEEDaRKNS2_7ContextEEUlRKNS2_6ShaderERKNSt7__cxx1112basic_stringIcSt11char_traitsIcESaIcEEERKNS_16basic_table_coreILb0ENS_15basic_referenceILb0EEEEEE_KFvS9_SH_SN_EXadL_ZZNS3_IfEEDaS6_ENKSO_clES9_SH_SN_EEEEiP9lua_State
openmw:_ZN3sol15function_detail18call_wrapper_entryIMZN5MWLua14getArraySetterIiEEDaRKNS2_7ContextEEUlRKNS2_6ShaderERKNSt7__cxx1112basic_stringIcSt11char_traitsIcESaIcEEERKNS_16basic_table_coreILb0ENS_15basic_referenceILb0EEEEEE_KFvS9_SH_SN_EXadL_ZZNS3_IiEEDaS6_ENKSO_clES9_SH_SN_EEEEiP9lua_State
openmw:_ZN3sol15function_detail18call_wrapper_entryIMZN5MWLua9getSetterIN3osg5Vec2fEEEDaRKNS2_7ContextEEUlRKNS2_6ShaderERKNSt7__cxx1112basic_stringIcSt11char_traitsIcESaIcEEERKS5_E_KFvSB_SJ_SL_EXadL_ZZNS3_IS5_EEDaS8_ENKSM_clESB_SJ_SL_EEEEiP9lua_State
openmw:_ZN3sol15function_detail18call_wrapper_entryIMZN5MWLua9getSetterIN3osg5Vec3fEEEDaRKNS2_7ContextEEUlRKNS2_6ShaderERKNSt7__cxx1112basic_stringIcSt11char_traitsIcESaIcEEERKS5_E_KFvSB_SJ_SL_EXadL_ZZNS3_IS5_EEDaS8_ENKSM_clESB_SJ_SL_EEEEiP9lua_State
openmw:_ZN3sol15function_detail18call_wrapper_entryIMZN5MWLua9getSetterIN3osg5Vec4fEEEDaRKNS2_7ContextEEUlRKNS2_6ShaderERKNSt7__cxx1112basic_stringIcSt11char_traitsIcESaIcEEERKS5_E_KFvSB_SJ_SL_EXadL_ZZNS3_IS5_EEDaS8_ENKSM_clESB_SJ_SL_EEEEiP9lua_State
openmw:_ZN3sol15function_detail18call_wrapper_entryIMZN5MWLua9getSetterIbEEDaRKNS2_7ContextEEUlRKNS2_6ShaderERKNSt7__cxx1112basic_stringIcSt11char_traitsIcESaIcEEERKbE_KFvS9_SH_SJ_EXadL_ZZNS3_IbEEDaS6_ENKSK_clES9_SH_SJ_EEEEiP9lua_State
openmw:_ZN3sol15function_detail18call_wrapper_entryIMZN5MWLua9getSetterIfEEDaRKNS2_7ContextEEUlRKNS2_6ShaderERKNSt7__cxx1112basic_stringIcSt11char_traitsIcESaIcEEERKfE_KFvS9_SH_SJ_EXadL_ZZNS3_IfEEDaS6_ENKSK_clES9_SH_SJ_EEEEiP9lua_State
openmw:_ZN3sol15function_detail18call_wrapper_entryIMZN5MWLua9getSetterIiEEDaRKNS2_7ContextEEUlRKNS2_6ShaderERKNSt7__cxx1112basic_stringIcSt11char_traitsIcESaIcEEERKiE_KFvS9_SH_SJ_EXadL_ZZNS3_IiEEDaS6_ENKSK_clES9_SH_SJ_EEEEiP9lua_State
openmw:_ZN3sol15function_detail21upvalue_free_functionIPFN11MWMechanics9DrawStateERKN5MWLua6ObjectEEE4callILb0ELb0EEEiP9lua_State
openmw:_ZN3sol15function_detail21upvalue_free_functionIPFN11MWMechanics9DrawStateERKN5MWLua6ObjectEEE9real_callEP9lua_State
openmw:_ZN3sol15function_detail21upvalue_free_functionIPFN3osg5Vec2fES3_fEE4callILb0ELb1EEEiP9lua_State
openmw:_ZN3sol15function_detail21upvalue_free_functionIPFN3osg5Vec2fEffEE4callILb0ELb0EEEiP9lua_State
openmw:_ZN3sol15function_detail21upvalue_free_functionIPFN3osg5Vec2fEffEE9real_callEP9lua_State
openmw:_ZN3sol15function_detail21upvalue_free_functionIPFN3osg5Vec2fEvEE4callILb0ELb0EEEiP9lua_State
openmw:_ZN3sol15function_detail21upvalue_free_functionIPFN3osg5Vec2fEvEE9real_callEP9lua_State
openmw:_ZN3sol15function_detail21upvalue_free_functionIPFN3osg5Vec3fERKN5MWLua6ObjectEEE4callILb0ELb0EEEiP9lua_State
openmw:_ZN3sol15function_detail21upvalue_free_functionIPFN3osg5Vec3fERKN5MWLua6ObjectEEE9real_callEP9lua_State
openmw:_ZN3sol15function_detail21upvalue_free_functionIPFN3osg5Vec3fEfffEE4callILb0ELb0EEEiP9lua_State
openmw:_ZN3sol15function_detail21upvalue_free_functionIPFN3osg5Vec3fEfffEE9real_callEP9lua_State
openmw:_ZN3sol15function_detail21upvalue_free_functionIPFN3osg5Vec4fEffffEE4callILb0ELb0EEEiP9lua_State
openmw:_ZN3sol15function_detail21upvalue_free_functionIPFN3osg5Vec4fEffffEE9real_callEP9lua_State
openmw:_ZN3sol15function_detail21upvalue_free_functionIPFN4Misc5ColorESt17basic_string_viewIcSt11char_traitsIcEEEE4callILb0ELb0EEEiP9lua_State
openmw:_ZN3sol15function_detail21upvalue_free_functionIPFN4Misc5ColorESt17basic_string_viewIcSt11char_traitsIcEEEE9real_callEP9lua_State
openmw:_ZN3sol15function_detail21upvalue_free_functionIPFN4Misc5ColorEfffEE4callILb0ELb0EEEiP9lua_State
openmw:_ZN3sol15function_detail21upvalue_free_functionIPFN4Misc5ColorEfffEE9real_callEP9lua_State
openmw:_ZN3sol15function_detail21upvalue_free_functionIPFN4Misc5ColorEffffEE4callILb0ELb0EEEiP9lua_State
openmw:_ZN3sol15function_detail21upvalue_free_functionIPFN4Misc5ColorEffffEE9real_callEP9lua_State
openmw:_ZN3sol15function_detail21upvalue_free_functionIPFN5LuaUi5LayerEmEE4callILb0ELb0EEEiP9lua_State
openmw:_ZN3sol15function_detail21upvalue_free_functionIPFN5LuaUi5LayerEmEE9real_callEP9lua_State
openmw:_ZN3sol15function_detail21upvalue_free_functionIPFN5MWLua6ShaderERKNSt7__cxx1112basic_stringIcSt11char_traitsIcESaIcEEEEE4callILb0ELb0EEEiP9lua_State
openmw:_ZN3sol15function_detail21upvalue_free_functionIPFN5MWLua6ShaderERKNSt7__cxx1112basic_stringIcSt11char_traitsIcESaIcEEEEE9real_callEP9lua_State
openmw:_ZN3sol15function_detail21upvalue_free_functionIPFN7LuaUtil10TransformQEfEE4callILb0ELb0EEEiP9lua_State
openmw:_ZN3sol15function_detail21upvalue_free_functionIPFN7LuaUtil10TransformQEfEE9real_callEP9lua_State
openmw:_ZN3sol15function_detail21upvalue_free_functionIPFN7LuaUtil10TransformQEfRKN3osg5Vec3fEEE4callILb0ELb0EEEiP9lua_State
openmw:_ZN3sol15function_detail21upvalue_free_functionIPFN7LuaUtil10TransformQEfRKN3osg5Vec3fEEE9real_callEP9lua_State
openmw:_ZN3sol15function_detail21upvalue_free_functionIPFN9MWPhysics16RayCastingResultERKN3osg5Vec3fES7_NS_8optionalINS_16basic_table_coreILb0ENS_15basic_referenceILb0EEEEEEEEE4callILb0ELb0EEEiP9lua_State
openmw:_ZN3sol15function_detail21upvalue_free_functionIPFN9MWPhysics16RayCastingResultERKN3osg5Vec3fES7_NS_8optionalINS_16basic_table_coreILb0ENS_15basic_referenceILb0EEEEEEEEE9real_callEP9lua_State
openmw:_ZN3sol15function_detail21upvalue_free_functionIPFNS_12basic_objectINS_15basic_referenceILb0EEEEERKNS_16basic_table_coreILb0ES4_EENS_13variadic_argsEEE4callILb0ELb0EEEiP9lua_State
openmw:_ZN3sol15function_detail21upvalue_free_functionIPFNS_12basic_objectINS_15basic_referenceILb0EEEEERKNS_16basic_table_coreILb0ES4_EENS_13variadic_argsEEE9real_callEP9lua_State
openmw:_ZN3sol15function_detail21upvalue_free_functionIPFNS_14basic_functionINS_15basic_referenceILb0EEELb0EEERKNSt7__cxx1112basic_stringIcSt11char_traitsIcESaIcEEERKNS_16basic_table_coreILb0ES4_EENS_10this_stateEEE4callILb0ELb0EEEiP9lua_State
openmw:_ZN3sol15function_detail21upvalue_free_functionIPFNS_14basic_functionINS_15basic_referenceILb0EEELb0EEERKNSt7__cxx1112basic_stringIcSt11char_traitsIcESaIcEEERKNS_16basic_table_coreILb0ES4_EENS_10this_stateEEE9real_callEP9lua_State
openmw:_ZN3sol15function_detail21upvalue_free_functionIPFNS_16basic_table_coreILb0ENS_15basic_referenceILb0EEEEERKS5_EE4callILb0ELb0EEEiP9lua_State
openmw:_ZN3sol15function_detail21upvalue_free_functionIPFNS_16basic_table_coreILb0ENS_15basic_referenceILb0EEEEERKS5_EE9real_callEP9lua_State
openmw:_ZN3sol15function_detail21upvalue_free_functionIPFNS_8optionalImEESt17basic_string_viewIcSt11char_traitsIcEEEE4callILb0ELb0EEEiP9lua_State
openmw:_ZN3sol15function_detail21upvalue_free_functionIPFNS_8optionalImEESt17basic_string_viewIcSt11char_traitsIcEEEE9real_callEP9lua_State
openmw:_ZN3sol15function_detail21upvalue_free_functionIPFPKc12SDL_ScancodeEE4callILb0ELb0EEEiP9lua_State
openmw:_ZN3sol15function_detail21upvalue_free_functionIPFPKc12SDL_ScancodeEE9real_callEP9lua_State
openmw:_ZN3sol15function_detail21upvalue_free_functionIPFPKcvEE4callILb0ELb0EEEiP9lua_State
openmw:_ZN3sol15function_detail21upvalue_free_functionIPFPKcvEE9real_callEP9lua_State
openmw:_ZN3sol15function_detail21upvalue_free_functionIPFSt5tupleIJN15DetourNavigator6StatusESt6vectorIN3osg5Vec3fESaIS7_EEEERKS7_SC_RKNS_8optionalINS_16basic_table_coreILb0ENS_15basic_referenceILb0EEEEEEEEE4callILb0ELb0EEEiP9lua_State
openmw:_ZN3sol15function_detail21upvalue_free_functionIPFSt5tupleIJN15DetourNavigator6StatusESt6vectorIN3osg5Vec3fESaIS7_EEEERKS7_SC_RKNS_8optionalINS_16basic_table_coreILb0ENS_15basic_referenceILb0EEEEEEEEE9real_callEP9lua_State
openmw:_ZN3sol15function_detail21upvalue_free_functionIPFSt8optionalIN3osg5Vec3fEERKS4_S7_RKNS_8optionalINS_16basic_table_coreILb0ENS_15basic_referenceILb0EEEEEEEEE4callILb0ELb0EEEiP9lua_State
openmw:_ZN3sol15function_detail21upvalue_free_functionIPFSt8optionalIN3osg5Vec3fEERKS4_S7_RKNS_8optionalINS_16basic_table_coreILb0ENS_15basic_referenceILb0EEEEEEEEE9real_callEP9lua_State
openmw:_ZN3sol15function_detail21upvalue_free_functionIPFSt8optionalIN3osg5Vec3fEERKS4_fRKNS_8optionalINS_16basic_table_coreILb0ENS_15basic_referenceILb0EEEEEEEEE4callILb0ELb0EEEiP9lua_State
openmw:_ZN3sol15function_detail21upvalue_free_functionIPFSt8optionalIN3osg5Vec3fEERKS4_fRKNS_8optionalINS_16basic_table_coreILb0ENS_15basic_referenceILb0EEEEEEEEE9real_callEP9lua_State
openmw:_ZN3sol15function_detail21upvalue_free_functionIPFb12SDL_ScancodeEE4callILb0ELb0EEEiP9lua_State
openmw:_ZN3sol15function_detail21upvalue_free_functionIPFb12SDL_ScancodeEE9real_callEP9lua_State
openmw:_ZN3sol15function_detail21upvalue_free_functionIPFbRKN5MWLua6ObjectEEE4callILb0ELb0EEEiP9lua_State
openmw:_ZN3sol15function_detail21upvalue_free_functionIPFbRKN5MWLua6ObjectEEE9real_callEP9lua_State
openmw:_ZN3sol15function_detail21upvalue_free_functionIPFbRKN5MWLua6ObjectES5_EE4callILb0ELb0EEEiP9lua_State
openmw:_ZN3sol15function_detail21upvalue_free_functionIPFbRKN5MWLua6ObjectES5_EE9real_callEP9lua_State
openmw:_ZN3sol15function_detail21upvalue_free_functionIPFbRKN5MWLua7LObjectEEE4callILb0ELb0EEEiP9lua_State
openmw:_ZN3sol15function_detail21upvalue_free_functionIPFbRKN5MWLua7LObjectEEE9real_callEP9lua_State
openmw:_ZN3sol15function_detail21upvalue_free_functionIPFbiEE4callILb0ELb0EEEiP9lua_State
openmw:_ZN3sol15function_detail21upvalue_free_functionIPFbiEE9real_callEP9lua_State
openmw:_ZN3sol15function_detail21upvalue_free_functionIPFbvEE4callILb0ELb0EEEiP9lua_State
openmw:_ZN3sol15function_detail21upvalue_free_functionIPFbvEE9real_callEP9lua_State
openmw:_ZN3sol15function_detail21upvalue_free_functionIPFddEE4callILb0ELb0EEEiP9lua_State
openmw:_ZN3sol15function_detail21upvalue_free_functionIPFddEE9real_callEP9lua_State
openmw:_ZN3sol15function_detail21upvalue_free_functionIPFdvEE4callILb0ELb0EEEiP9lua_State
openmw:_ZN3sol15function_detail21upvalue_free_functionIPFdvEE9real_callEP9lua_State
openmw:_ZN3sol15function_detail21upvalue_free_functionIPFfRKN5MWLua6ObjectEEE4callILb0ELb0EEEiP9lua_State
openmw:_ZN3sol15function_detail21upvalue_free_functionIPFfRKN5MWLua6ObjectEEE9real_callEP9lua_State
openmw:_ZN3sol15function_detail21upvalue_free_functionIPFffffEE4callILb0ELb0EEEiP9lua_State
openmw:_ZN3sol15function_detail21upvalue_free_functionIPFffffEE9real_callEP9lua_State
openmw:_ZN3sol15function_detail21upvalue_free_functionIPFfvEE4callILb0ELb0EEEiP9lua_State
openmw:_ZN3sol15function_detail21upvalue_free_functionIPFfvEE9real_callEP9lua_State
openmw:_ZN3sol15function_detail21upvalue_free_functionIPFjjEE4callILb0ELb0EEEiP9lua_State
openmw:_ZN3sol15function_detail21upvalue_free_functionIPFjjEE9real_callEP9lua_State
openmw:_ZN3sol15function_detail21upvalue_free_functionIPFjjNS_13variadic_argsEEE4callILb0ELb0EEEiP9lua_State
openmw:_ZN3sol15function_detail21upvalue_free_functionIPFjjNS_13variadic_argsEEE9real_callEP9lua_State
openmw:_ZN3sol15function_detail21upvalue_free_functionIPFmvEE4callILb0ELb0EEEiP9lua_State
openmw:_ZN3sol15function_detail21upvalue_free_functionIPFmvEE9real_callEP9lua_State
openmw:_ZN3sol15function_detail21upvalue_free_functionIPFvRKNS_16basic_table_coreILb0ENS_15basic_referenceILb0EEEEEEE4callILb0ELb0EEEiP9lua_State
openmw:_ZN3sol15function_detail21upvalue_free_functionIPFvRKNS_16basic_table_coreILb0ENS_15basic_referenceILb0EEEEEEE9real_callEP9lua_State
openmw:_ZN3sol15function_detail21upvalue_free_functionIPFvRKNS_17basic_environmentINS_15basic_referenceILb0EEEEERKNS_14basic_functionIS4_Lb0EEEEE4callILb0ELb0EEEiP9lua_State
openmw:_ZN3sol15function_detail21upvalue_free_functionIPFvRKNS_17basic_environmentINS_15basic_referenceILb0EEEEERKNS_14basic_functionIS4_Lb0EEEEE9real_callEP9lua_State
openmw:_ZN3sol15function_detail21upvalue_free_functionIPFvSt17basic_string_viewIcSt11char_traitsIcEEEE4callILb0ELb0EEEiP9lua_State
openmw:_ZN3sol15function_detail21upvalue_free_functionIPFvSt17basic_string_viewIcSt11char_traitsIcEEEE9real_callEP9lua_State
openmw:_ZN3sol15function_detail21upvalue_free_functionIPFvvEE4callILb0ELb0EEEiP9lua_State
openmw:_ZN3sol15function_detail21upvalue_free_functionIPFvvEE9real_callEP9lua_State
openmw:_ZN3sol15function_detail28upvalue_this_member_functionIN3osg5Vec2fEMS3_KFfvEE4callILb0ELb0EEEiP9lua_State
openmw:_ZN3sol15function_detail28upvalue_this_member_functionIN3osg5Vec2fEMS3_KFfvEE9real_callEP9lua_State
openmw:_ZN3sol15function_detail28upvalue_this_member_functionIN3osg5Vec3fEMS3_KFfvEE4callILb0ELb0EEEiP9lua_State
openmw:_ZN3sol15function_detail28upvalue_this_member_functionIN3osg5Vec3fEMS3_KFfvEE9real_callEP9lua_State
openmw:_ZN3sol15function_detail28upvalue_this_member_functionIN3osg5Vec4fEMS3_KFfvEE4callILb0ELb0EEEiP9lua_State
openmw:_ZN3sol15function_detail28upvalue_this_member_functionIN3osg5Vec4fEMS3_KFfvEE9real_callEP9lua_State
openmw:_ZN3sol15function_detail28upvalue_this_member_functionIN5MWLua6ObjectEMS3_KFNSt7__cxx1112basic_stringIcSt11char_traitsIcESaIcEEEvEE4callILb0ELb0EEEiP9lua_State
openmw:_ZN3sol15function_detail28upvalue_this_member_functionIN5MWLua6ObjectEMS3_KFNSt7__cxx1112basic_stringIcSt11char_traitsIcESaIcEEEvEE9real_callEP9lua_State
openmw:_ZN3sol15function_detail28upvalue_this_member_functionIN7LuaUtil11L10nManager7ContextEMS4_FNSt7__cxx1112basic_stringIcSt11char_traitsIcESaIcEEESt17basic_string_viewIcS8_ERKNS_12basic_objectINS_15basic_referenceILb0EEEEEEE4callILb0ELb0EEEiP9lua_State
openmw:_ZN3sol15function_detail28upvalue_this_member_functionIN7LuaUtil11L10nManager7ContextEMS4_FNSt7__cxx1112basic_stringIcSt11char_traitsIcESaIcEEESt17basic_string_viewIcS8_ERKNS_12basic_objectINS_15basic_referenceILb0EEEEEEE9real_callEP9lua_State
openmw:_ZN3sol16container_detail10u_c_launchINS_14as_container_tI10SDL_KeysymEEE10pairs_callEP9lua_State
openmw:_ZN3sol16container_detail10u_c_launchINS_14as_container_tI10SDL_KeysymEEE15real_pairs_callEP9lua_State
openmw:_ZN3sol16container_detail10u_c_launchINS_14as_container_tIN11MWMechanics9AiPackageEEEE10pairs_callEP9lua_State
openmw:_ZN3sol16container_detail10u_c_launchINS_14as_container_tIN11MWMechanics9AiPackageEEEE15real_pairs_callEP9lua_State
openmw:_ZN3sol16container_detail10u_c_launchINS_14as_container_tIN3ESM6RefNumEEEE10pairs_callEP9lua_State
openmw:_ZN3sol16container_detail10u_c_launchINS_14as_container_tIN3ESM6RefNumEEEE15real_pairs_callEP9lua_State
openmw:_ZN3sol16container_detail10u_c_launchINS_14as_container_tIN3osg5Vec2fEEEE10pairs_callEP9lua_State
openmw:_ZN3sol16container_detail10u_c_launchINS_14as_container_tIN3osg5Vec2fEEEE15real_pairs_callEP9lua_State
openmw:_ZN3sol16container_detail10u_c_launchINS_14as_container_tIN3osg5Vec3fEEEE10pairs_callEP9lua_State
openmw:_ZN3sol16container_detail10u_c_launchINS_14as_container_tIN3osg5Vec3fEEEE15real_pairs_callEP9lua_State
openmw:_ZN3sol16container_detail10u_c_launchINS_14as_container_tIN4Misc5ColorEEEE10pairs_callEP9lua_State
openmw:_ZN3sol16container_detail10u_c_launchINS_14as_container_tIN4Misc5ColorEEEE15real_pairs_callEP9lua_State
openmw:_ZN3sol16container_detail10u_c_launchINS_14as_container_tIN5LuaUi11TextureDataEEEE10pairs_callEP9lua_State
openmw:_ZN3sol16container_detail10u_c_launchINS_14as_container_tIN5LuaUi11TextureDataEEEE15real_pairs_callEP9lua_State
openmw:_ZN3sol16container_detail10u_c_launchINS_14as_container_tIN5LuaUi5LayerEEEE10pairs_callEP9lua_State
openmw:_ZN3sol16container_detail10u_c_launchINS_14as_container_tIN5LuaUi5LayerEEEE15real_pairs_callEP9lua_State
openmw:_ZN3sol16container_detail10u_c_launchINS_14as_container_tIN5LuaUi7ElementEEEE10pairs_callEP9lua_State
openmw:_ZN3sol16container_detail10u_c_launchINS_14as_container_tIN5LuaUi7ElementEEEE15real_pairs_callEP9lua_State
openmw:_ZN3sol16container_detail10u_c_launchINS_14as_container_tIN5MWLua10ObjectListINS3_7GObjectEEEEEE10pairs_callEP9lua_State
openmw:_ZN3sol16container_detail10u_c_launchINS_14as_container_tIN5MWLua10ObjectListINS3_7GObjectEEEEEE15real_pairs_callEP9lua_State
openmw:_ZN3sol16container_detail10u_c_launchINS_14as_container_tIN5MWLua5GCellEEEE10pairs_callEP9lua_State
openmw:_ZN3sol16container_detail10u_c_launchINS_14as_container_tIN5MWLua5GCellEEEE15real_pairs_callEP9lua_State
openmw:_ZN3sol16container_detail10u_c_launchINS_14as_container_tIN5MWLua5LCellEEEE10pairs_callEP9lua_State
openmw:_ZN3sol16container_detail10u_c_launchINS_14as_container_tIN5MWLua5LCellEEEE15real_pairs_callEP9lua_State
openmw:_ZN3sol16container_detail10u_c_launchINS_14as_container_tIN5MWLua7GObjectEEEE10pairs_callEP9lua_State
openmw:_ZN3sol16container_detail10u_c_launchINS_14as_container_tIN5MWLua7GObjectEEEE15real_pairs_callEP9lua_State
openmw:_ZN3sol16container_detail10u_c_launchINS_14as_container_tIN5MWLua7LObjectEEEE10pairs_callEP9lua_State
openmw:_ZN3sol16container_detail10u_c_launchINS_14as_container_tIN5MWLua7LObjectEEEE15real_pairs_callEP9lua_State
openmw:_ZN3sol16container_detail10u_c_launchINS_14as_container_tIN5MWLua9InventoryINS3_7GObjectEEEEEE10pairs_callEP9lua_State
openmw:_ZN3sol16container_detail10u_c_launchINS_14as_container_tIN5MWLua9InventoryINS3_7GObjectEEEEEE15real_pairs_callEP9lua_State
openmw:_ZN3sol16container_detail10u_c_launchINS_14as_container_tIN5MWLua9InventoryINS3_7LObjectEEEEEE10pairs_callEP9lua_State
openmw:_ZN3sol16container_detail10u_c_launchINS_14as_container_tIN5MWLua9InventoryINS3_7LObjectEEEEEE15real_pairs_callEP9lua_State
openmw:_ZN3sol16container_detail10u_c_launchINS_14as_container_tIN7LuaUtil10TransformMEEEE10pairs_callEP9lua_State
openmw:_ZN3sol16container_detail10u_c_launchINS_14as_container_tIN7LuaUtil10TransformMEEEE15real_pairs_callEP9lua_State
openmw:_ZN3sol16container_detail10u_c_launchINS_14as_container_tIN7LuaUtil13TimerCallbackEEEE10pairs_callEP9lua_State
openmw:_ZN3sol16container_detail10u_c_launchINS_14as_container_tIN7LuaUtil13TimerCallbackEEEE15real_pairs_callEP9lua_State
openmw:_ZN3sol16container_detail10u_c_launchINS_14as_container_tIN7LuaUtil16ScriptsContainer8ScriptIdEEEE10pairs_callEP9lua_State
openmw:_ZN3sol16container_detail10u_c_launchINS_14as_container_tIN7LuaUtil16ScriptsContainer8ScriptIdEEEE15real_pairs_callEP9lua_State
openmw:_ZN3sol16container_detail10u_c_launchINS_14as_container_tIN7SDLUtil10TouchEventEEEE10pairs_callEP9lua_State
openmw:_ZN3sol16container_detail10u_c_launchINS_14as_container_tIN7SDLUtil10TouchEventEEEE15real_pairs_callEP9lua_State
openmw:_ZN3sol16container_detail10u_c_launchINS_14as_container_tINS_9base_listIJEEEEEE10pairs_callEP9lua_State
openmw:_ZN3sol16container_detail10u_c_launchINS_14as_container_tINS_9base_listIJEEEEEE15real_pairs_callEP9lua_State
openmw:_ZN3sol16container_detail10u_c_launchINS_14as_container_tINS_9base_listIJN5MWLua6ObjectEEEEEEE10pairs_callEP9lua_State
openmw:_ZN3sol16container_detail10u_c_launchINS_14as_container_tINS_9base_listIJN5MWLua6ObjectEEEEEEE15real_pairs_callEP9lua_State
openmw:_ZN3sol16container_detail10u_c_launchINS_14as_container_tINS_9base_listIJN5MWLua7LObjectENS4_6ObjectEEEEEEE10pairs_callEP9lua_State
openmw:_ZN3sol16container_detail10u_c_launchINS_14as_container_tINS_9base_listIJN5MWLua7LObjectENS4_6ObjectEEEEEEE15real_pairs_callEP9lua_State
openmw:_ZN3sol16container_detail10u_c_launchINS_14as_container_tIZN5MWLua14getArraySetterIN3osg5Vec2fEEEDaRKNS3_7ContextEEUlRKNS3_6ShaderERKNSt7__cxx1112basic_stringIcSt11char_traitsIcESaIcEEERKNS_16basic_table_coreILb0ENS_15basic_referenceILb0EEEEEE_EEE10pairs_callEP9lua_State
openmw:_ZN3sol16container_detail10u_c_launchINS_14as_container_tIZN5MWLua14getArraySetterIN3osg5Vec2fEEEDaRKNS3_7ContextEEUlRKNS3_6ShaderERKNSt7__cxx1112basic_stringIcSt11char_traitsIcESaIcEEERKNS_16basic_table_coreILb0ENS_15basic_referenceILb0EEEEEE_EEE15real_pairs_callEP9lua_State
openmw:_ZN3sol16container_detail10u_c_launchINS_14as_container_tIZN5MWLua14getArraySetterIN3osg5Vec3fEEEDaRKNS3_7ContextEEUlRKNS3_6ShaderERKNSt7__cxx1112basic_stringIcSt11char_traitsIcESaIcEEERKNS_16basic_table_coreILb0ENS_15basic_referenceILb0EEEEEE_EEE10pairs_callEP9lua_State
openmw:_ZN3sol16container_detail10u_c_launchINS_14as_container_tIZN5MWLua14getArraySetterIN3osg5Vec3fEEEDaRKNS3_7ContextEEUlRKNS3_6ShaderERKNSt7__cxx1112basic_stringIcSt11char_traitsIcESaIcEEERKNS_16basic_table_coreILb0ENS_15basic_referenceILb0EEEEEE_EEE15real_pairs_callEP9lua_State
openmw:_ZN3sol16container_detail10u_c_launchINS_14as_container_tIZN5MWLua14getArraySetterIN3osg5Vec4fEEEDaRKNS3_7ContextEEUlRKNS3_6ShaderERKNSt7__cxx1112basic_stringIcSt11char_traitsIcESaIcEEERKNS_16basic_table_coreILb0ENS_15basic_referenceILb0EEEEEE_EEE10pairs_callEP9lua_State
openmw:_ZN3sol16container_detail10u_c_launchINS_14as_container_tIZN5MWLua14getArraySetterIN3osg5Vec4fEEEDaRKNS3_7ContextEEUlRKNS3_6ShaderERKNSt7__cxx1112basic_stringIcSt11char_traitsIcESaIcEEERKNS_16basic_table_coreILb0ENS_15basic_referenceILb0EEEEEE_EEE15real_pairs_callEP9lua_State
openmw:_ZN3sol16container_detail10u_c_launchINS_14as_container_tIZN5MWLua14getArraySetterIfEEDaRKNS3_7ContextEEUlRKNS3_6ShaderERKNSt7__cxx1112basic_stringIcSt11char_traitsIcESaIcEEERKNS_16basic_table_coreILb0ENS_15basic_referenceILb0EEEEEE_EEE10pairs_callEP9lua_State
openmw:_ZN3sol16container_detail10u_c_launchINS_14as_container_tIZN5MWLua14getArraySetterIfEEDaRKNS3_7ContextEEUlRKNS3_6ShaderERKNSt7__cxx1112basic_stringIcSt11char_traitsIcESaIcEEERKNS_16basic_table_coreILb0ENS_15basic_referenceILb0EEEEEE_EEE15real_pairs_callEP9lua_State
openmw:_ZN3sol16container_detail10u_c_launchINS_14as_container_tIZN5MWLua14getArraySetterIiEEDaRKNS3_7ContextEEUlRKNS3_6ShaderERKNSt7__cxx1112basic_stringIcSt11char_traitsIcESaIcEEERKNS_16basic_table_coreILb0ENS_15basic_referenceILb0EEEEEE_EEE10pairs_callEP9lua_State
openmw:_ZN3sol16container_detail10u_c_launchINS_14as_container_tIZN5MWLua14getArraySetterIiEEDaRKNS3_7ContextEEUlRKNS3_6ShaderERKNSt7__cxx1112basic_stringIcSt11char_traitsIcESaIcEEERKNS_16basic_table_coreILb0ENS_15basic_referenceILb0EEEEEE_EEE15real_pairs_callEP9lua_State
openmw:_ZN3sol16container_detail10u_c_launchINS_14as_container_tIZN5MWLua9getSetterIN3osg5Vec2fEEEDaRKNS3_7ContextEEUlRKNS3_6ShaderERKNSt7__cxx1112basic_stringIcSt11char_traitsIcESaIcEEERKS6_E_EEE10pairs_callEP9lua_State
openmw:_ZN3sol16container_detail10u_c_launchINS_14as_container_tIZN5MWLua9getSetterIN3osg5Vec2fEEEDaRKNS3_7ContextEEUlRKNS3_6ShaderERKNSt7__cxx1112basic_stringIcSt11char_traitsIcESaIcEEERKS6_E_EEE15real_pairs_callEP9lua_State
openmw:_ZN3sol16container_detail10u_c_launchINS_14as_container_tIZN5MWLua9getSetterIN3osg5Vec3fEEEDaRKNS3_7ContextEEUlRKNS3_6ShaderERKNSt7__cxx1112basic_stringIcSt11char_traitsIcESaIcEEERKS6_E_EEE10pairs_callEP9lua_State
openmw:_ZN3sol16container_detail10u_c_launchINS_14as_container_tIZN5MWLua9getSetterIN3osg5Vec3fEEEDaRKNS3_7ContextEEUlRKNS3_6ShaderERKNSt7__cxx1112basic_stringIcSt11char_traitsIcESaIcEEERKS6_E_EEE15real_pairs_callEP9lua_State
openmw:_ZN3sol16container_detail10u_c_launchINS_14as_container_tIZN5MWLua9getSetterIN3osg5Vec4fEEEDaRKNS3_7ContextEEUlRKNS3_6ShaderERKNSt7__cxx1112basic_stringIcSt11char_traitsIcESaIcEEERKS6_E_EEE10pairs_callEP9lua_State
openmw:_ZN3sol16container_detail10u_c_launchINS_14as_container_tIZN5MWLua9getSetterIN3osg5Vec4fEEEDaRKNS3_7ContextEEUlRKNS3_6ShaderERKNSt7__cxx1112basic_stringIcSt11char_traitsIcESaIcEEERKS6_E_EEE15real_pairs_callEP9lua_State
openmw:_ZN3sol16container_detail10u_c_launchINS_14as_container_tIZN5MWLua9getSetterIbEEDaRKNS3_7ContextEEUlRKNS3_6ShaderERKNSt7__cxx1112basic_stringIcSt11char_traitsIcESaIcEEERKbE_EEE10pairs_callEP9lua_State
openmw:_ZN3sol16container_detail10u_c_launchINS_14as_container_tIZN5MWLua9getSetterIbEEDaRKNS3_7ContextEEUlRKNS3_6ShaderERKNSt7__cxx1112basic_stringIcSt11char_traitsIcESaIcEEERKbE_EEE15real_pairs_callEP9lua_State
openmw:_ZN3sol16container_detail10u_c_launchINS_14as_container_tIZN5MWLua9getSetterIfEEDaRKNS3_7ContextEEUlRKNS3_6ShaderERKNSt7__cxx1112basic_stringIcSt11char_traitsIcESaIcEEERKfE_EEE10pairs_callEP9lua_State
openmw:_ZN3sol16container_detail10u_c_launchINS_14as_container_tIZN5MWLua9getSetterIfEEDaRKNS3_7ContextEEUlRKNS3_6ShaderERKNSt7__cxx1112basic_stringIcSt11char_traitsIcESaIcEEERKfE_EEE15real_pairs_callEP9lua_State
openmw:_ZN3sol16container_detail10u_c_launchINS_14as_container_tIZN5MWLua9getSetterIiEEDaRKNS3_7ContextEEUlRKNS3_6ShaderERKNSt7__cxx1112basic_stringIcSt11char_traitsIcESaIcEEERKiE_EEE10pairs_callEP9lua_State
openmw:_ZN3sol16container_detail10u_c_launchINS_14as_container_tIZN5MWLua9getSetterIiEEDaRKNS3_7ContextEEUlRKNS3_6ShaderERKNSt7__cxx1112basic_stringIcSt11char_traitsIcESaIcEEERKiE_EEE15real_pairs_callEP9lua_State
openmw:_ZN3sol16container_detail10u_c_launchINS_14as_container_tIbEEE10pairs_callEP9lua_State
openmw:_ZN3sol16container_detail10u_c_launchINS_14as_container_tIbEEE15real_pairs_callEP9lua_State
openmw:_ZN3sol16container_detail10u_c_launchISt6vectorIN3osg5Vec3fESaIS4_EEE10clear_callEP9lua_State
openmw:_ZN3sol16container_detail10u_c_launchISt6vectorIN3osg5Vec3fESaIS4_EEE10empty_callEP9lua_State
openmw:_ZN3sol16container_detail10u_c_launchISt6vectorIN3osg5Vec3fESaIS4_EEE10erase_callEP9lua_State
openmw:_ZN3sol16container_detail10u_c_launchISt6vectorIN3osg5Vec3fESaIS4_EEE10index_callEP9lua_State
openmw:_ZN3sol16container_detail10u_c_launchISt6vectorIN3osg5Vec3fESaIS4_EEE10pairs_callEP9lua_State
openmw:_ZN3sol16container_detail10u_c_launchISt6vectorIN3osg5Vec3fESaIS4_EEE11insert_callEP9lua_State
openmw:_ZN3sol16container_detail10u_c_launchISt6vectorIN3osg5Vec3fESaIS4_EEE11ipairs_callEP9lua_State
openmw:_ZN3sol16container_detail10u_c_launchISt6vectorIN3osg5Vec3fESaIS4_EEE11length_callEP9lua_State
openmw:_ZN3sol16container_detail10u_c_launchISt6vectorIN3osg5Vec3fESaIS4_EEE12real_at_callEP9lua_State
openmw:_ZN3sol16container_detail10u_c_launchISt6vectorIN3osg5Vec3fESaIS4_EEE13index_of_callEP9lua_State
openmw:_ZN3sol16container_detail10u_c_launchISt6vectorIN3osg5Vec3fESaIS4_EEE13real_add_callEP9lua_State
openmw:_ZN3sol16container_detail10u_c_launchISt6vectorIN3osg5Vec3fESaIS4_EEE13real_get_callEP9lua_State
openmw:_ZN3sol16container_detail10u_c_launchISt6vectorIN3osg5Vec3fESaIS4_EEE13real_set_callEP9lua_State
openmw:_ZN3sol16container_detail10u_c_launchISt6vectorIN3osg5Vec3fESaIS4_EEE14new_index_callEP9lua_State
openmw:_ZN3sol16container_detail10u_c_launchISt6vectorIN3osg5Vec3fESaIS4_EEE14real_find_callEP9lua_State
openmw:_ZN3sol16container_detail10u_c_launchISt6vectorIN3osg5Vec3fESaIS4_EEE14real_next_callEP9lua_State
openmw:_ZN3sol16container_detail10u_c_launchISt6vectorIN3osg5Vec3fESaIS4_EEE15real_clear_callEP9lua_State
openmw:_ZN3sol16container_detail10u_c_launchISt6vectorIN3osg5Vec3fESaIS4_EEE15real_empty_callEP9lua_State
openmw:_ZN3sol16container_detail10u_c_launchISt6vectorIN3osg5Vec3fESaIS4_EEE15real_erase_callEP9lua_State
openmw:_ZN3sol16container_detail10u_c_launchISt6vectorIN3osg5Vec3fESaIS4_EEE15real_index_callEP9lua_State
openmw:_ZN3sol16container_detail10u_c_launchISt6vectorIN3osg5Vec3fESaIS4_EEE15real_pairs_callEP9lua_State
openmw:_ZN3sol16container_detail10u_c_launchISt6vectorIN3osg5Vec3fESaIS4_EEE16real_insert_callEP9lua_State
openmw:_ZN3sol16container_detail10u_c_launchISt6vectorIN3osg5Vec3fESaIS4_EEE16real_ipairs_callEP9lua_State
openmw:_ZN3sol16container_detail10u_c_launchISt6vectorIN3osg5Vec3fESaIS4_EEE16real_length_callEP9lua_State
openmw:_ZN3sol16container_detail10u_c_launchISt6vectorIN3osg5Vec3fESaIS4_EEE18real_index_of_callEP9lua_State
openmw:_ZN3sol16container_detail10u_c_launchISt6vectorIN3osg5Vec3fESaIS4_EEE19real_new_index_callEP9lua_State
openmw:_ZN3sol16container_detail10u_c_launchISt6vectorIN3osg5Vec3fESaIS4_EEE7at_callEP9lua_State
openmw:_ZN3sol16container_detail10u_c_launchISt6vectorIN3osg5Vec3fESaIS4_EEE8add_callEP9lua_State
openmw:_ZN3sol16container_detail10u_c_launchISt6vectorIN3osg5Vec3fESaIS4_EEE8get_callEP9lua_State
openmw:_ZN3sol16container_detail10u_c_launchISt6vectorIN3osg5Vec3fESaIS4_EEE8set_callEP9lua_State
openmw:_ZN3sol16container_detail10u_c_launchISt6vectorIN3osg5Vec3fESaIS4_EEE9find_callEP9lua_State
openmw:_ZN3sol16container_detail10u_c_launchISt6vectorIN3osg5Vec3fESaIS4_EEE9next_callEP9lua_State
openmw:_ZN3sol16container_detail26usertype_container_defaultISt6vectorIN3osg5Vec3fESaIS4_EEvE9next_iterILb0EEEiP9lua_State
openmw:_ZN3sol16container_detail26usertype_container_defaultISt6vectorIN3osg5Vec3fESaIS4_EEvE9next_iterILb1EEEiP9lua_State
openmw:_ZN3sol16default_at_panicEP9lua_State
openmw:_ZN3sol19dump_panic_on_errorEP9lua_StateiPFiS1_PKvmPvES4_b
openmw:_ZN3sol24basic_insert_dump_writerINS_14basic_bytecodeISaISt4byteEEEEEiP9lua_StatePKvmPv
openmw:_ZN3sol5stack12stack_detail24set_undefined_methods_onI10SDL_KeysymEEvNS_15stack_referenceE
openmw:_ZN3sol5stack12stack_detail24set_undefined_methods_onIN3ESM10IngredientEEEvNS_15stack_referenceE
openmw:_ZN3sol5stack12stack_detail24set_undefined_methods_onIN3ESM13MiscellaneousEEEvNS_15stack_referenceE
openmw:_ZN3sol5stack12stack_detail24set_undefined_methods_onIN3ESM3NPCEEEvNS_15stack_referenceE
openmw:_ZN3sol5stack12stack_detail24set_undefined_methods_onIN3ESM4BookEEEvNS_15stack_referenceE
openmw:_ZN3sol5stack12stack_detail24set_undefined_methods_onIN3ESM4DoorEEEvNS_15stack_referenceE
openmw:_ZN3sol5stack12stack_detail24set_undefined_methods_onIN3ESM5ProbeEEEvNS_15stack_referenceE
openmw:_ZN3sol5stack12stack_detail24set_undefined_methods_onIN3ESM6PotionEEEvNS_15stack_referenceE
openmw:_ZN3sol5stack12stack_detail24set_undefined_methods_onIN3ESM6RefNumEEEvNS_15stack_referenceE
openmw:_ZN3sol5stack12stack_detail24set_undefined_methods_onIN3ESM6RepairEEEvNS_15stack_referenceE
openmw:_ZN3sol5stack12stack_detail24set_undefined_methods_onIN3ESM6WeaponEEEvNS_15stack_referenceE
openmw:_ZN3sol5stack12stack_detail24set_undefined_methods_onIN3ESM8CreatureEEEvNS_15stack_referenceE
openmw:_ZN3sol5stack12stack_detail24set_undefined_methods_onIN3ESM8LockpickEEEvNS_15stack_referenceE
openmw:_ZN3sol5stack12stack_detail24set_undefined_methods_onIN3ESM9ActivatorEEEvNS_15stack_referenceE
openmw:_ZN3sol5stack12stack_detail24set_undefined_methods_onIN3ESM9ApparatusEEEvNS_15stack_referenceE
openmw:_ZN3sol5stack12stack_detail24set_undefined_methods_onIN3ESM9ContainerEEEvNS_15stack_referenceE
openmw:_ZN3sol5stack12stack_detail24set_undefined_methods_onIN3osg5Vec2fEEEvNS_15stack_referenceE
openmw:_ZN3sol5stack12stack_detail24set_undefined_methods_onIN3osg5Vec3fEEEvNS_15stack_referenceE
openmw:_ZN3sol5stack12stack_detail24set_undefined_methods_onIN3osg5Vec4fEEEvNS_15stack_referenceE
openmw:_ZN3sol5stack12stack_detail24set_undefined_methods_onIN4Misc5ColorEEEvNS_15stack_referenceE
openmw:_ZN3sol5stack12stack_detail24set_undefined_methods_onIN5LuaUi5LayerEEEvNS_15stack_referenceE
openmw:_ZN3sol5stack12stack_detail24set_undefined_methods_onIN5MWLua10ObjectListINS3_7GObjectEEEEEvNS_15stack_referenceE
openmw:_ZN3sol5stack12stack_detail24set_undefined_methods_onIN5MWLua10ObjectListINS3_7LObjectEEEEEvNS_15stack_referenceE
openmw:_ZN3sol5stack12stack_detail24set_undefined_methods_onIN5MWLua11DynamicStatEEEvNS_15stack_referenceE
openmw:_ZN3sol5stack12stack_detail24set_undefined_methods_onIN5MWLua13AttributeStatEEEvNS_15stack_referenceE
openmw:_ZN3sol5stack12stack_detail24set_undefined_methods_onIN5MWLua5GCellEEEvNS_15stack_referenceE
openmw:_ZN3sol5stack12stack_detail24set_undefined_methods_onIN5MWLua5LCellEEEvNS_15stack_referenceE
openmw:_ZN3sol5stack12stack_detail24set_undefined_methods_onIN5MWLua6ShaderEEEvNS_15stack_referenceE
openmw:_ZN3sol5stack12stack_detail24set_undefined_methods_onIN5MWLua7GObjectEEEvNS_15stack_referenceE
openmw:_ZN3sol5stack12stack_detail24set_undefined_methods_onIN5MWLua7LObjectEEEvNS_15stack_referenceE
openmw:_ZN3sol5stack12stack_detail24set_undefined_methods_onIN5MWLua9InventoryINS3_7GObjectEEEEEvNS_15stack_referenceE
openmw:_ZN3sol5stack12stack_detail24set_undefined_methods_onIN5MWLua9InventoryINS3_7LObjectEEEEEvNS_15stack_referenceE
openmw:_ZN3sol5stack12stack_detail24set_undefined_methods_onIN5MWLua9LevelStatEEEvNS_15stack_referenceE
openmw:_ZN3sol5stack12stack_detail24set_undefined_methods_onIN5MWLua9SkillStatEEEvNS_15stack_referenceE
openmw:_ZN3sol5stack12stack_detail24set_undefined_methods_onIN6MWBase10LuaManager13ActorControlsEEEvNS_15stack_referenceE
openmw:_ZN3sol5stack12stack_detail24set_undefined_methods_onIN7LuaUtil10LuaStorage11SectionViewEEEvNS_15stack_referenceE
openmw:_ZN3sol5stack12stack_detail24set_undefined_methods_onIN7LuaUtil10TransformMEEEvNS_15stack_referenceE
openmw:_ZN3sol5stack12stack_detail24set_undefined_methods_onIN7LuaUtil10TransformQEEEvNS_15stack_referenceE
openmw:_ZN3sol5stack12stack_detail24set_undefined_methods_onIN7LuaUtil11L10nManager7ContextEEEvNS_15stack_referenceE
openmw:_ZN3sol5stack12stack_detail24set_undefined_methods_onIN7LuaUtil13TimerCallbackEEEvNS_15stack_referenceE
openmw:_ZN3sol5stack12stack_detail24set_undefined_methods_onIN7LuaUtil14AsyncPackageIdEEEvNS_15stack_referenceE
openmw:_ZN3sol5stack12stack_detail24set_undefined_methods_onIN7LuaUtil16ScriptsContainer8ScriptIdEEEvNS_15stack_referenceE
openmw:_ZN3sol5stack12stack_detail24set_undefined_methods_onIN7SDLUtil10TouchEventEEEvNS_15stack_referenceE
openmw:_ZN3sol5stack12stack_detail24set_undefined_methods_onIN9MWPhysics16RayCastingResultEEEvNS_15stack_referenceE
openmw:_ZN3sol5stack12stack_detail24set_undefined_methods_onINS_9base_listIJEEEEEvNS_15stack_referenceE
openmw:_ZN3sol5stack12stack_detail24set_undefined_methods_onINS_9base_listIJN5MWLua6ObjectEEEEEEvNS_15stack_referenceE
openmw:_ZN3sol5stack12stack_detail24set_undefined_methods_onINS_9base_listIJN5MWLua7LObjectENS4_6ObjectEEEEEEvNS_15stack_referenceE
openmw:_ZN3sol5stack12stack_detail24set_undefined_methods_onIPN3ESM10IngredientEEEvNS_15stack_referenceE
openmw:_ZN3sol5stack12stack_detail24set_undefined_methods_onIPN3ESM13MiscellaneousEEEvNS_15stack_referenceE
openmw:_ZN3sol5stack12stack_detail24set_undefined_methods_onIPN3ESM3NPCEEEvNS_15stack_referenceE
openmw:_ZN3sol5stack12stack_detail24set_undefined_methods_onIPN3ESM4BookEEEvNS_15stack_referenceE
openmw:_ZN3sol5stack12stack_detail24set_undefined_methods_onIPN3ESM4DoorEEEvNS_15stack_referenceE
openmw:_ZN3sol5stack12stack_detail24set_undefined_methods_onIPN3ESM5ProbeEEEvNS_15stack_referenceE
openmw:_ZN3sol5stack12stack_detail24set_undefined_methods_onIPN3ESM6PotionEEEvNS_15stack_referenceE
openmw:_ZN3sol5stack12stack_detail24set_undefined_methods_onIPN3ESM6RepairEEEvNS_15stack_referenceE
openmw:_ZN3sol5stack12stack_detail24set_undefined_methods_onIPN3ESM6WeaponEEEvNS_15stack_referenceE
openmw:_ZN3sol5stack12stack_detail24set_undefined_methods_onIPN3ESM8CreatureEEEvNS_15stack_referenceE
openmw:_ZN3sol5stack12stack_detail24set_undefined_methods_onIPN3ESM8LockpickEEEvNS_15stack_referenceE
openmw:_ZN3sol5stack12stack_detail24set_undefined_methods_onIPN3ESM9ActivatorEEEvNS_15stack_referenceE
openmw:_ZN3sol5stack12stack_detail24set_undefined_methods_onIPN3ESM9ApparatusEEEvNS_15stack_referenceE
openmw:_ZN3sol5stack12stack_detail24set_undefined_methods_onIPN3ESM9ContainerEEEvNS_15stack_referenceE
openmw:_ZN3sol5stack12stack_detail24set_undefined_methods_onIPN3osg5Vec3fEEEvNS_15stack_referenceE
openmw:_ZN3sol5stack12stack_detail24set_undefined_methods_onIPN5MWLua12LocalScripts10SelfObjectEEEvNS_15stack_referenceE
openmw:_ZN3sol5stack12stack_detail24set_undefined_methods_onIPN6MWBase10LuaManager13ActorControlsEEEvNS_15stack_referenceE
openmw:_ZN3sol5stack12stack_detail24set_undefined_methods_onIPbEEvNS_15stack_referenceE
openmw:_ZN3sol5stack12stack_detail24set_undefined_methods_onIZN5MWLua14getArraySetterIN3osg5Vec2fEEEDaRKNS3_7ContextEEUlRKNS3_6ShaderERKNSt7__cxx1112basic_stringIcSt11char_traitsIcESaIcEEERKNS_16basic_table_coreILb0ENS_15basic_referenceILb0EEEEEE_EEvNS_15stack_referenceE
openmw:_ZN3sol5stack12stack_detail24set_undefined_methods_onIZN5MWLua14getArraySetterIN3osg5Vec3fEEEDaRKNS3_7ContextEEUlRKNS3_6ShaderERKNSt7__cxx1112basic_stringIcSt11char_traitsIcESaIcEEERKNS_16basic_table_coreILb0ENS_15basic_referenceILb0EEEEEE_EEvNS_15stack_referenceE
openmw:_ZN3sol5stack12stack_detail24set_undefined_methods_onIZN5MWLua14getArraySetterIN3osg5Vec4fEEEDaRKNS3_7ContextEEUlRKNS3_6ShaderERKNSt7__cxx1112basic_stringIcSt11char_traitsIcESaIcEEERKNS_16basic_table_coreILb0ENS_15basic_referenceILb0EEEEEE_EEvNS_15stack_referenceE
openmw:_ZN3sol5stack12stack_detail24set_undefined_methods_onIZN5MWLua14getArraySetterIfEEDaRKNS3_7ContextEEUlRKNS3_6ShaderERKNSt7__cxx1112basic_stringIcSt11char_traitsIcESaIcEEERKNS_16basic_table_coreILb0ENS_15basic_referenceILb0EEEEEE_EEvNS_15stack_referenceE
openmw:_ZN3sol5stack12stack_detail24set_undefined_methods_onIZN5MWLua14getArraySetterIiEEDaRKNS3_7ContextEEUlRKNS3_6ShaderERKNSt7__cxx1112basic_stringIcSt11char_traitsIcESaIcEEERKNS_16basic_table_coreILb0ENS_15basic_referenceILb0EEEEEE_EEvNS_15stack_referenceE
openmw:_ZN3sol5stack12stack_detail24set_undefined_methods_onIZN5MWLua9getSetterIN3osg5Vec2fEEEDaRKNS3_7ContextEEUlRKNS3_6ShaderERKNSt7__cxx1112basic_stringIcSt11char_traitsIcESaIcEEERKS6_E_EEvNS_15stack_referenceE
openmw:_ZN3sol5stack12stack_detail24set_undefined_methods_onIZN5MWLua9getSetterIN3osg5Vec3fEEEDaRKNS3_7ContextEEUlRKNS3_6ShaderERKNSt7__cxx1112basic_stringIcSt11char_traitsIcESaIcEEERKS6_E_EEvNS_15stack_referenceE
openmw:_ZN3sol5stack12stack_detail24set_undefined_methods_onIZN5MWLua9getSetterIN3osg5Vec4fEEEDaRKNS3_7ContextEEUlRKNS3_6ShaderERKNSt7__cxx1112basic_stringIcSt11char_traitsIcESaIcEEERKS6_E_EEvNS_15stack_referenceE
openmw:_ZN3sol5stack12stack_detail24set_undefined_methods_onIZN5MWLua9getSetterIbEEDaRKNS3_7ContextEEUlRKNS3_6ShaderERKNSt7__cxx1112basic_stringIcSt11char_traitsIcESaIcEEERKbE_EEvNS_15stack_referenceE
openmw:_ZN3sol5stack12stack_detail24set_undefined_methods_onIZN5MWLua9getSetterIfEEDaRKNS3_7ContextEEUlRKNS3_6ShaderERKNSt7__cxx1112basic_stringIcSt11char_traitsIcESaIcEEERKfE_EEvNS_15stack_referenceE
openmw:_ZN3sol5stack12stack_detail24set_undefined_methods_onIZN5MWLua9getSetterIiEEDaRKNS3_7ContextEEUlRKNS3_6ShaderERKNSt7__cxx1112basic_stringIcSt11char_traitsIcESaIcEEERKiE_EEvNS_15stack_referenceE
openmw:_ZN3sol6c_callIMZN5MWLua14getArraySetterIN3osg5Vec2fEEEDaRKNS1_7ContextEEUlRKNS1_6ShaderERKNSt7__cxx1112basic_stringIcSt11char_traitsIcESaIcEEERKNS_16basic_table_coreILb0ENS_15basic_referenceILb0EEEEEE_KFvSA_SI_SO_EXadL_ZZNS2_IS4_EEDaS7_ENKSP_clESA_SI_SO_EEEEiP9lua_State
openmw:_ZN3sol6c_callIMZN5MWLua14getArraySetterIN3osg5Vec3fEEEDaRKNS1_7ContextEEUlRKNS1_6ShaderERKNSt7__cxx1112basic_stringIcSt11char_traitsIcESaIcEEERKNS_16basic_table_coreILb0ENS_15basic_referenceILb0EEEEEE_KFvSA_SI_SO_EXadL_ZZNS2_IS4_EEDaS7_ENKSP_clESA_SI_SO_EEEEiP9lua_State
openmw:_ZN3sol6c_callIMZN5MWLua14getArraySetterIN3osg5Vec4fEEEDaRKNS1_7ContextEEUlRKNS1_6ShaderERKNSt7__cxx1112basic_stringIcSt11char_traitsIcESaIcEEERKNS_16basic_table_coreILb0ENS_15basic_referenceILb0EEEEEE_KFvSA_SI_SO_EXadL_ZZNS2_IS4_EEDaS7_ENKSP_clESA_SI_SO_EEEEiP9lua_State
openmw:_ZN3sol6c_callIMZN5MWLua14getArraySetterIfEEDaRKNS1_7ContextEEUlRKNS1_6ShaderERKNSt7__cxx1112basic_stringIcSt11char_traitsIcESaIcEEERKNS_16basic_table_coreILb0ENS_15basic_referenceILb0EEEEEE_KFvS8_SG_SM_EXadL_ZZNS2_IfEEDaS5_ENKSN_clES8_SG_SM_EEEEiP9lua_State
openmw:_ZN3sol6c_callIMZN5MWLua14getArraySetterIiEEDaRKNS1_7ContextEEUlRKNS1_6ShaderERKNSt7__cxx1112basic_stringIcSt11char_traitsIcESaIcEEERKNS_16basic_table_coreILb0ENS_15basic_referenceILb0EEEEEE_KFvS8_SG_SM_EXadL_ZZNS2_IiEEDaS5_ENKSN_clES8_SG_SM_EEEEiP9lua_State
openmw:_ZN3sol6c_callIMZN5MWLua9getSetterIN3osg5Vec2fEEEDaRKNS1_7ContextEEUlRKNS1_6ShaderERKNSt7__cxx1112basic_stringIcSt11char_traitsIcESaIcEEERKS4_E_KFvSA_SI_SK_EXadL_ZZNS2_IS4_EEDaS7_ENKSL_clESA_SI_SK_EEEEiP9lua_State
openmw:_ZN3sol6c_callIMZN5MWLua9getSetterIN3osg5Vec3fEEEDaRKNS1_7ContextEEUlRKNS1_6ShaderERKNSt7__cxx1112basic_stringIcSt11char_traitsIcESaIcEEERKS4_E_KFvSA_SI_SK_EXadL_ZZNS2_IS4_EEDaS7_ENKSL_clESA_SI_SK_EEEEiP9lua_State
openmw:_ZN3sol6c_callIMZN5MWLua9getSetterIN3osg5Vec4fEEEDaRKNS1_7ContextEEUlRKNS1_6ShaderERKNSt7__cxx1112basic_stringIcSt11char_traitsIcESaIcEEERKS4_E_KFvSA_SI_SK_EXadL_ZZNS2_IS4_EEDaS7_ENKSL_clESA_SI_SK_EEEEiP9lua_State
openmw:_ZN3sol6c_callIMZN5MWLua9getSetterIbEEDaRKNS1_7ContextEEUlRKNS1_6ShaderERKNSt7__cxx1112basic_stringIcSt11char_traitsIcESaIcEEERKbE_KFvS8_SG_SI_EXadL_ZZNS2_IbEEDaS5_ENKSJ_clES8_SG_SI_EEEEiP9lua_State
openmw:_ZN3sol6c_callIMZN5MWLua9getSetterIfEEDaRKNS1_7ContextEEUlRKNS1_6ShaderERKNSt7__cxx1112basic_stringIcSt11char_traitsIcESaIcEEERKfE_KFvS8_SG_SI_EXadL_ZZNS2_IfEEDaS5_ENKSJ_clES8_SG_SI_EEEEiP9lua_State
openmw:_ZN3sol6c_callIMZN5MWLua9getSetterIiEEDaRKNS1_7ContextEEUlRKNS1_6ShaderERKNSt7__cxx1112basic_stringIcSt11char_traitsIcESaIcEEERKiE_KFvS8_SG_SI_EXadL_ZZNS2_IiEEDaS5_ENKSJ_clES8_SG_SI_EEEEiP9lua_State
openmw:_ZN3sol6c_callIPFiP9lua_StateEXadL_ZNS_31default_traceback_error_handlerES2_EEEEiS2_
openmw:_ZN3sol6detail11inheritanceI10SDL_KeysymE10type_checkERKSt17basic_string_viewIcSt11char_traitsIcEE
openmw:_ZN3sol6detail11inheritanceI10SDL_KeysymE9type_castEPvRKSt17basic_string_viewIcSt11char_traitsIcEE
openmw:_ZN3sol6detail11inheritanceIN11MWMechanics9AiPackageEE10type_checkERKSt17basic_string_viewIcSt11char_traitsIcEE
openmw:_ZN3sol6detail11inheritanceIN11MWMechanics9AiPackageEE16type_unique_castISt10shared_ptrIS3_EEEiPvS8_RKSt17basic_string_viewIcSt11char_traitsIcEESE_
openmw:_ZN3sol6detail11inheritanceIN11MWMechanics9AiPackageEE9type_castEPvRKSt17basic_string_viewIcSt11char_traitsIcEE
openmw:_ZN3sol6detail11inheritanceIN3ESM10IngredientEE10type_checkERKSt17basic_string_viewIcSt11char_traitsIcEE
openmw:_ZN3sol6detail11inheritanceIN3ESM10IngredientEE9type_castEPvRKSt17basic_string_viewIcSt11char_traitsIcEE
openmw:_ZN3sol6detail11inheritanceIN3ESM13MiscellaneousEE10type_checkERKSt17basic_string_viewIcSt11char_traitsIcEE
openmw:_ZN3sol6detail11inheritanceIN3ESM13MiscellaneousEE9type_castEPvRKSt17basic_string_viewIcSt11char_traitsIcEE
openmw:_ZN3sol6detail11inheritanceIN3ESM3NPCEE10type_checkERKSt17basic_string_viewIcSt11char_traitsIcEE
openmw:_ZN3sol6detail11inheritanceIN3ESM3NPCEE9type_castEPvRKSt17basic_string_viewIcSt11char_traitsIcEE
openmw:_ZN3sol6detail11inheritanceIN3ESM4BookEE10type_checkERKSt17basic_string_viewIcSt11char_traitsIcEE
openmw:_ZN3sol6detail11inheritanceIN3ESM4BookEE9type_castEPvRKSt17basic_string_viewIcSt11char_traitsIcEE
openmw:_ZN3sol6detail11inheritanceIN3ESM4DoorEE10type_checkERKSt17basic_string_viewIcSt11char_traitsIcEE
openmw:_ZN3sol6detail11inheritanceIN3ESM4DoorEE9type_castEPvRKSt17basic_string_viewIcSt11char_traitsIcEE
openmw:_ZN3sol6detail11inheritanceIN3ESM5ProbeEE10type_checkERKSt17basic_string_viewIcSt11char_traitsIcEE
openmw:_ZN3sol6detail11inheritanceIN3ESM5ProbeEE9type_castEPvRKSt17basic_string_viewIcSt11char_traitsIcEE
openmw:_ZN3sol6detail11inheritanceIN3ESM6PotionEE10type_checkERKSt17basic_string_viewIcSt11char_traitsIcEE
openmw:_ZN3sol6detail11inheritanceIN3ESM6PotionEE9type_castEPvRKSt17basic_string_viewIcSt11char_traitsIcEE
openmw:_ZN3sol6detail11inheritanceIN3ESM6RepairEE10type_checkERKSt17basic_string_viewIcSt11char_traitsIcEE
openmw:_ZN3sol6detail11inheritanceIN3ESM6RepairEE9type_castEPvRKSt17basic_string_viewIcSt11char_traitsIcEE
openmw:_ZN3sol6detail11inheritanceIN3ESM6WeaponEE10type_checkERKSt17basic_string_viewIcSt11char_traitsIcEE
openmw:_ZN3sol6detail11inheritanceIN3ESM6WeaponEE9type_castEPvRKSt17basic_string_viewIcSt11char_traitsIcEE
openmw:_ZN3sol6detail11inheritanceIN3ESM8CreatureEE10type_checkERKSt17basic_string_viewIcSt11char_traitsIcEE
openmw:_ZN3sol6detail11inheritanceIN3ESM8CreatureEE9type_castEPvRKSt17basic_string_viewIcSt11char_traitsIcEE
openmw:_ZN3sol6detail11inheritanceIN3ESM8LockpickEE10type_checkERKSt17basic_string_viewIcSt11char_traitsIcEE
openmw:_ZN3sol6detail11inheritanceIN3ESM8LockpickEE9type_castEPvRKSt17basic_string_viewIcSt11char_traitsIcEE
openmw:_ZN3sol6detail11inheritanceIN3ESM9ActivatorEE10type_checkERKSt17basic_string_viewIcSt11char_traitsIcEE
openmw:_ZN3sol6detail11inheritanceIN3ESM9ActivatorEE9type_castEPvRKSt17basic_string_viewIcSt11char_traitsIcEE
openmw:_ZN3sol6detail11inheritanceIN3ESM9ApparatusEE10type_checkERKSt17basic_string_viewIcSt11char_traitsIcEE
openmw:_ZN3sol6detail11inheritanceIN3ESM9ApparatusEE9type_castEPvRKSt17basic_string_viewIcSt11char_traitsIcEE
openmw:_ZN3sol6detail11inheritanceIN3ESM9ContainerEE10type_checkERKSt17basic_string_viewIcSt11char_traitsIcEE
openmw:_ZN3sol6detail11inheritanceIN3ESM9ContainerEE9type_castEPvRKSt17basic_string_viewIcSt11char_traitsIcEE
openmw:_ZN3sol6detail11inheritanceIN3osg5Vec2fEE10type_checkERKSt17basic_string_viewIcSt11char_traitsIcEE
openmw:_ZN3sol6detail11inheritanceIN3osg5Vec2fEE9type_castEPvRKSt17basic_string_viewIcSt11char_traitsIcEE
openmw:_ZN3sol6detail11inheritanceIN3osg5Vec3fEE10type_checkERKSt17basic_string_viewIcSt11char_traitsIcEE
openmw:_ZN3sol6detail11inheritanceIN3osg5Vec3fEE9type_castEPvRKSt17basic_string_viewIcSt11char_traitsIcEE
openmw:_ZN3sol6detail11inheritanceIN3osg5Vec4fEE10type_checkERKSt17basic_string_viewIcSt11char_traitsIcEE
openmw:_ZN3sol6detail11inheritanceIN3osg5Vec4fEE9type_castEPvRKSt17basic_string_viewIcSt11char_traitsIcEE
openmw:_ZN3sol6detail11inheritanceIN4Misc5ColorEE10type_checkERKSt17basic_string_viewIcSt11char_traitsIcEE
openmw:_ZN3sol6detail11inheritanceIN4Misc5ColorEE9type_castEPvRKSt17basic_string_viewIcSt11char_traitsIcEE
openmw:_ZN3sol6detail11inheritanceIN5LuaUi11TextureDataEE16type_unique_castISt10shared_ptrIS3_EEEiPvS8_RKSt17basic_string_viewIcSt11char_traitsIcEESE_
openmw:_ZN3sol6detail11inheritanceIN5LuaUi5LayerEE10type_checkERKSt17basic_string_viewIcSt11char_traitsIcEE
openmw:_ZN3sol6detail11inheritanceIN5LuaUi5LayerEE9type_castEPvRKSt17basic_string_viewIcSt11char_traitsIcEE
openmw:_ZN3sol6detail11inheritanceIN5LuaUi7ElementEE10type_checkERKSt17basic_string_viewIcSt11char_traitsIcEE
openmw:_ZN3sol6detail11inheritanceIN5LuaUi7ElementEE16type_unique_castISt10shared_ptrIS3_EEEiPvS8_RKSt17basic_string_viewIcSt11char_traitsIcEESE_
openmw:_ZN3sol6detail11inheritanceIN5LuaUi7ElementEE9type_castEPvRKSt17basic_string_viewIcSt11char_traitsIcEE
openmw:_ZN3sol6detail11inheritanceIN5MWLua10ObjectListINS2_7GObjectEEEE10type_checkERKSt17basic_string_viewIcSt11char_traitsIcEE
openmw:_ZN3sol6detail11inheritanceIN5MWLua10ObjectListINS2_7GObjectEEEE9type_castEPvRKSt17basic_string_viewIcSt11char_traitsIcEE
openmw:_ZN3sol6detail11inheritanceIN5MWLua10ObjectListINS2_7LObjectEEEE10type_checkERKSt17basic_string_viewIcSt11char_traitsIcEE
openmw:_ZN3sol6detail11inheritanceIN5MWLua10ObjectListINS2_7LObjectEEEE9type_castEPvRKSt17basic_string_viewIcSt11char_traitsIcEE
openmw:_ZN3sol6detail11inheritanceIN5MWLua11DynamicStatEE10type_checkERKSt17basic_string_viewIcSt11char_traitsIcEE
openmw:_ZN3sol6detail11inheritanceIN5MWLua11DynamicStatEE9type_castEPvRKSt17basic_string_viewIcSt11char_traitsIcEE
openmw:_ZN3sol6detail11inheritanceIN5MWLua12LocalScripts10SelfObjectEE10type_checkERKSt17basic_string_viewIcSt11char_traitsIcEE
openmw:_ZN3sol6detail11inheritanceIN5MWLua12LocalScripts10SelfObjectEE14type_cast_withIJNS2_7LObjectENS2_6ObjectEEEEPvS9_RKSt17basic_string_viewIcSt11char_traitsIcEE
openmw:_ZN3sol6detail11inheritanceIN5MWLua12LocalScripts10SelfObjectEE15type_check_withIJNS2_7LObjectENS2_6ObjectEEEEbRKSt17basic_string_viewIcSt11char_traitsIcEE
openmw:_ZN3sol6detail11inheritanceIN5MWLua12LocalScripts10SelfObjectEE9type_castEPvRKSt17basic_string_viewIcSt11char_traitsIcEE
openmw:_ZN3sol6detail11inheritanceIN5MWLua13AttributeStatEE10type_checkERKSt17basic_string_viewIcSt11char_traitsIcEE
openmw:_ZN3sol6detail11inheritanceIN5MWLua13AttributeStatEE9type_castEPvRKSt17basic_string_viewIcSt11char_traitsIcEE
openmw:_ZN3sol6detail11inheritanceIN5MWLua5GCellEE10type_checkERKSt17basic_string_viewIcSt11char_traitsIcEE
openmw:_ZN3sol6detail11inheritanceIN5MWLua5GCellEE9type_castEPvRKSt17basic_string_viewIcSt11char_traitsIcEE
openmw:_ZN3sol6detail11inheritanceIN5MWLua5LCellEE10type_checkERKSt17basic_string_viewIcSt11char_traitsIcEE
openmw:_ZN3sol6detail11inheritanceIN5MWLua5LCellEE9type_castEPvRKSt17basic_string_viewIcSt11char_traitsIcEE
openmw:_ZN3sol6detail11inheritanceIN5MWLua6ShaderEE10type_checkERKSt17basic_string_viewIcSt11char_traitsIcEE
openmw:_ZN3sol6detail11inheritanceIN5MWLua6ShaderEE9type_castEPvRKSt17basic_string_viewIcSt11char_traitsIcEE
openmw:_ZN3sol6detail11inheritanceIN5MWLua7GObjectEE10type_checkERKSt17basic_string_viewIcSt11char_traitsIcEE
openmw:_ZN3sol6detail11inheritanceIN5MWLua7GObjectEE14type_cast_withIJNS2_6ObjectEEEEPvS7_RKSt17basic_string_viewIcSt11char_traitsIcEE
openmw:_ZN3sol6detail11inheritanceIN5MWLua7GObjectEE15type_check_withIJNS2_6ObjectEEEEbRKSt17basic_string_viewIcSt11char_traitsIcEE
openmw:_ZN3sol6detail11inheritanceIN5MWLua7GObjectEE9type_castEPvRKSt17basic_string_viewIcSt11char_traitsIcEE
openmw:_ZN3sol6detail11inheritanceIN5MWLua7LObjectEE10type_checkERKSt17basic_string_viewIcSt11char_traitsIcEE
openmw:_ZN3sol6detail11inheritanceIN5MWLua7LObjectEE14type_cast_withIJNS2_6ObjectEEEEPvS7_RKSt17basic_string_viewIcSt11char_traitsIcEE
openmw:_ZN3sol6detail11inheritanceIN5MWLua7LObjectEE15type_check_withIJNS2_6ObjectEEEEbRKSt17basic_string_viewIcSt11char_traitsIcEE
openmw:_ZN3sol6detail11inheritanceIN5MWLua7LObjectEE9type_castEPvRKSt17basic_string_viewIcSt11char_traitsIcEE
openmw:_ZN3sol6detail11inheritanceIN5MWLua9InventoryINS2_7GObjectEEEE10type_checkERKSt17basic_string_viewIcSt11char_traitsIcEE
openmw:_ZN3sol6detail11inheritanceIN5MWLua9InventoryINS2_7GObjectEEEE9type_castEPvRKSt17basic_string_viewIcSt11char_traitsIcEE
openmw:_ZN3sol6detail11inheritanceIN5MWLua9InventoryINS2_7LObjectEEEE10type_checkERKSt17basic_string_viewIcSt11char_traitsIcEE
openmw:_ZN3sol6detail11inheritanceIN5MWLua9InventoryINS2_7LObjectEEEE9type_castEPvRKSt17basic_string_viewIcSt11char_traitsIcEE
openmw:_ZN3sol6detail11inheritanceIN5MWLua9LevelStatEE10type_checkERKSt17basic_string_viewIcSt11char_traitsIcEE
openmw:_ZN3sol6detail11inheritanceIN5MWLua9LevelStatEE9type_castEPvRKSt17basic_string_viewIcSt11char_traitsIcEE
openmw:_ZN3sol6detail11inheritanceIN5MWLua9SkillStatEE10type_checkERKSt17basic_string_viewIcSt11char_traitsIcEE
openmw:_ZN3sol6detail11inheritanceIN5MWLua9SkillStatEE9type_castEPvRKSt17basic_string_viewIcSt11char_traitsIcEE
openmw:_ZN3sol6detail11inheritanceIN6MWBase10LuaManager13ActorControlsEE10type_checkERKSt17basic_string_viewIcSt11char_traitsIcEE
openmw:_ZN3sol6detail11inheritanceIN6MWBase10LuaManager13ActorControlsEE9type_castEPvRKSt17basic_string_viewIcSt11char_traitsIcEE
openmw:_ZN3sol6detail11inheritanceIN7LuaUtil10LuaStorage11SectionViewEE10type_checkERKSt17basic_string_viewIcSt11char_traitsIcEE
openmw:_ZN3sol6detail11inheritanceIN7LuaUtil10LuaStorage11SectionViewEE9type_castEPvRKSt17basic_string_viewIcSt11char_traitsIcEE
openmw:_ZN3sol6detail11inheritanceIN7LuaUtil10TransformMEE10type_checkERKSt17basic_string_viewIcSt11char_traitsIcEE
openmw:_ZN3sol6detail11inheritanceIN7LuaUtil10TransformMEE9type_castEPvRKSt17basic_string_viewIcSt11char_traitsIcEE
openmw:_ZN3sol6detail11inheritanceIN7LuaUtil10TransformQEE10type_checkERKSt17basic_string_viewIcSt11char_traitsIcEE
openmw:_ZN3sol6detail11inheritanceIN7LuaUtil10TransformQEE9type_castEPvRKSt17basic_string_viewIcSt11char_traitsIcEE
openmw:_ZN3sol6detail11inheritanceIN7LuaUtil11L10nManager7ContextEE10type_checkERKSt17basic_string_viewIcSt11char_traitsIcEE
openmw:_ZN3sol6detail11inheritanceIN7LuaUtil11L10nManager7ContextEE9type_castEPvRKSt17basic_string_viewIcSt11char_traitsIcEE
openmw:_ZN3sol6detail11inheritanceIN7LuaUtil14AsyncPackageIdEE10type_checkERKSt17basic_string_viewIcSt11char_traitsIcEE
openmw:_ZN3sol6detail11inheritanceIN7LuaUtil14AsyncPackageIdEE9type_castEPvRKSt17basic_string_viewIcSt11char_traitsIcEE
openmw:_ZN3sol6detail11inheritanceIN7SDLUtil10TouchEventEE10type_checkERKSt17basic_string_viewIcSt11char_traitsIcEE
openmw:_ZN3sol6detail11inheritanceIN7SDLUtil10TouchEventEE9type_castEPvRKSt17basic_string_viewIcSt11char_traitsIcEE
openmw:_ZN3sol6detail11inheritanceIN9MWPhysics16RayCastingResultEE10type_checkERKSt17basic_string_viewIcSt11char_traitsIcEE
openmw:_ZN3sol6detail11inheritanceIN9MWPhysics16RayCastingResultEE9type_castEPvRKSt17basic_string_viewIcSt11char_traitsIcEE
openmw:_ZN3sol6detail12c_trampolineEP9lua_StatePFiS2_E
openmw:_ZN3sol6detail12default_sizeIN5LuaUi5LayerEEEiP9lua_State
openmw:_ZN3sol6detail14unique_destroyI10SDL_KeysymEEiP9lua_State
openmw:_ZN3sol6detail14unique_destroyIN11MWMechanics9AiPackageEEEiP9lua_State
openmw:_ZN3sol6detail14unique_destroyIN3ESM10IngredientEEEiP9lua_State
openmw:_ZN3sol6detail14unique_destroyIN3ESM13MiscellaneousEEEiP9lua_State
openmw:_ZN3sol6detail14unique_destroyIN3ESM3NPCEEEiP9lua_State
openmw:_ZN3sol6detail14unique_destroyIN3ESM4BookEEEiP9lua_State
openmw:_ZN3sol6detail14unique_destroyIN3ESM4DoorEEEiP9lua_State
openmw:_ZN3sol6detail14unique_destroyIN3ESM5ProbeEEEiP9lua_State
openmw:_ZN3sol6detail14unique_destroyIN3ESM6PotionEEEiP9lua_State
openmw:_ZN3sol6detail14unique_destroyIN3ESM6RepairEEEiP9lua_State
openmw:_ZN3sol6detail14unique_destroyIN3ESM6WeaponEEEiP9lua_State
openmw:_ZN3sol6detail14unique_destroyIN3ESM8CreatureEEEiP9lua_State
openmw:_ZN3sol6detail14unique_destroyIN3ESM8LockpickEEEiP9lua_State
openmw:_ZN3sol6detail14unique_destroyIN3ESM9ActivatorEEEiP9lua_State
openmw:_ZN3sol6detail14unique_destroyIN3ESM9ApparatusEEEiP9lua_State
openmw:_ZN3sol6detail14unique_destroyIN3ESM9ContainerEEEiP9lua_State
openmw:_ZN3sol6detail14unique_destroyIN3osg5Vec2fEEEiP9lua_State
openmw:_ZN3sol6detail14unique_destroyIN3osg5Vec3fEEEiP9lua_State
openmw:_ZN3sol6detail14unique_destroyIN3osg5Vec4fEEEiP9lua_State
openmw:_ZN3sol6detail14unique_destroyIN4Misc5ColorEEEiP9lua_State
openmw:_ZN3sol6detail14unique_destroyIN5LuaUi5LayerEEEiP9lua_State
openmw:_ZN3sol6detail14unique_destroyIN5LuaUi7ElementEEEiP9lua_State
openmw:_ZN3sol6detail14unique_destroyIN5MWLua10ObjectListINS2_7GObjectEEEEEiP9lua_State
openmw:_ZN3sol6detail14unique_destroyIN5MWLua10ObjectListINS2_7LObjectEEEEEiP9lua_State
openmw:_ZN3sol6detail14unique_destroyIN5MWLua11DynamicStatEEEiP9lua_State
openmw:_ZN3sol6detail14unique_destroyIN5MWLua12LocalScripts10SelfObjectEEEiP9lua_State
openmw:_ZN3sol6detail14unique_destroyIN5MWLua13AttributeStatEEEiP9lua_State
openmw:_ZN3sol6detail14unique_destroyIN5MWLua5GCellEEEiP9lua_State
openmw:_ZN3sol6detail14unique_destroyIN5MWLua5LCellEEEiP9lua_State
openmw:_ZN3sol6detail14unique_destroyIN5MWLua6ShaderEEEiP9lua_State
openmw:_ZN3sol6detail14unique_destroyIN5MWLua7GObjectEEEiP9lua_State
openmw:_ZN3sol6detail14unique_destroyIN5MWLua7LObjectEEEiP9lua_State
openmw:_ZN3sol6detail14unique_destroyIN5MWLua9InventoryINS2_7GObjectEEEEEiP9lua_State
openmw:_ZN3sol6detail14unique_destroyIN5MWLua9InventoryINS2_7LObjectEEEEEiP9lua_State
openmw:_ZN3sol6detail14unique_destroyIN5MWLua9LevelStatEEEiP9lua_State
openmw:_ZN3sol6detail14unique_destroyIN5MWLua9SkillStatEEEiP9lua_State
openmw:_ZN3sol6detail14unique_destroyIN6MWBase10LuaManager13ActorControlsEEEiP9lua_State
openmw:_ZN3sol6detail14unique_destroyIN7LuaUtil10LuaStorage11SectionViewEEEiP9lua_State
openmw:_ZN3sol6detail14unique_destroyIN7LuaUtil10TransformMEEEiP9lua_State
openmw:_ZN3sol6detail14unique_destroyIN7LuaUtil10TransformQEEEiP9lua_State
openmw:_ZN3sol6detail14unique_destroyIN7LuaUtil11L10nManager7ContextEEEiP9lua_State
openmw:_ZN3sol6detail14unique_destroyIN7LuaUtil14AsyncPackageIdEEEiP9lua_State
openmw:_ZN3sol6detail14unique_destroyIN7SDLUtil10TouchEventEEEiP9lua_State
openmw:_ZN3sol6detail14unique_destroyIN9MWPhysics16RayCastingResultEEEiP9lua_State
openmw:_ZN3sol6detail14unique_destroyISt10shared_ptrIN11MWMechanics9AiPackageEEEEiP9lua_State
openmw:_ZN3sol6detail14unique_destroyISt10shared_ptrIN5LuaUi11TextureDataEEEEiP9lua_State
openmw:_ZN3sol6detail14unique_destroyISt10shared_ptrIN5LuaUi7ElementEEEEiP9lua_State
openmw:_ZN3sol6detail17default_to_stringIbEEiP9lua_State
openmw:_ZN3sol6detail17static_trampolineIXadL_ZNS0_17default_to_stringIbEEiP9lua_StateEEEEiS4_
openmw:_ZN3sol6detail18user_alloc_destroyIMN3osg5Vec2fEKFfvEEEiP9lua_State
openmw:_ZN3sol6detail18user_alloc_destroyIMN3osg5Vec3fEKFfvEEEiP9lua_State
openmw:_ZN3sol6detail18user_alloc_destroyIMN3osg5Vec4fEKFfvEEEiP9lua_State
openmw:_ZN3sol6detail18user_alloc_destroyIMN5MWLua6ObjectEKFNSt7__cxx1112basic_stringIcSt11char_traitsIcESaIcEEEvEEEiP9lua_State
openmw:_ZN3sol6detail18user_alloc_destroyIMN7LuaUtil11L10nManager7ContextEFNSt7__cxx1112basic_stringIcSt11char_traitsIcESaIcEEESt17basic_string_viewIcS8_ERKNS_12basic_objectINS_15basic_referenceILb0EEEEEEEEiP9lua_State
openmw:_ZN3sol6detail18user_alloc_destroyINS_16container_detail26usertype_container_defaultISt6vectorIN3osg5Vec3fESaIS6_EEvE4iterEEEiP9lua_State
openmw:_ZN3sol6detail22usertype_alloc_destroyI10SDL_KeysymEEiP9lua_State
openmw:_ZN3sol6detail22usertype_alloc_destroyIN11MWMechanics9AiPackageEEEiP9lua_State
openmw:_ZN3sol6detail22usertype_alloc_destroyIN3ESM10IngredientEEEiP9lua_State
openmw:_ZN3sol6detail22usertype_alloc_destroyIN3ESM13MiscellaneousEEEiP9lua_State
openmw:_ZN3sol6detail22usertype_alloc_destroyIN3ESM3NPCEEEiP9lua_State
openmw:_ZN3sol6detail22usertype_alloc_destroyIN3ESM4BookEEEiP9lua_State
openmw:_ZN3sol6detail22usertype_alloc_destroyIN3ESM4DoorEEEiP9lua_State
openmw:_ZN3sol6detail22usertype_alloc_destroyIN3ESM5ProbeEEEiP9lua_State
openmw:_ZN3sol6detail22usertype_alloc_destroyIN3ESM6PotionEEEiP9lua_State
openmw:_ZN3sol6detail22usertype_alloc_destroyIN3ESM6RefNumEEEiP9lua_State
openmw:_ZN3sol6detail22usertype_alloc_destroyIN3ESM6RepairEEEiP9lua_State
openmw:_ZN3sol6detail22usertype_alloc_destroyIN3ESM6WeaponEEEiP9lua_State
openmw:_ZN3sol6detail22usertype_alloc_destroyIN3ESM8CreatureEEEiP9lua_State
openmw:_ZN3sol6detail22usertype_alloc_destroyIN3ESM8LockpickEEEiP9lua_State
openmw:_ZN3sol6detail22usertype_alloc_destroyIN3ESM9ActivatorEEEiP9lua_State
openmw:_ZN3sol6detail22usertype_alloc_destroyIN3ESM9ApparatusEEEiP9lua_State
openmw:_ZN3sol6detail22usertype_alloc_destroyIN3ESM9ContainerEEEiP9lua_State
openmw:_ZN3sol6detail22usertype_alloc_destroyIN3osg5Vec2fEEEiP9lua_State
openmw:_ZN3sol6detail22usertype_alloc_destroyIN3osg5Vec3fEEEiP9lua_State
openmw:_ZN3sol6detail22usertype_alloc_destroyIN3osg5Vec4fEEEiP9lua_State
openmw:_ZN3sol6detail22usertype_alloc_destroyIN4Misc5ColorEEEiP9lua_State
openmw:_ZN3sol6detail22usertype_alloc_destroyIN5LuaUi5LayerEEEiP9lua_State
openmw:_ZN3sol6detail22usertype_alloc_destroyIN5LuaUi7ElementEEEiP9lua_State
openmw:_ZN3sol6detail22usertype_alloc_destroyIN5MWLua10ObjectListINS2_7GObjectEEEEEiP9lua_State
openmw:_ZN3sol6detail22usertype_alloc_destroyIN5MWLua10ObjectListINS2_7LObjectEEEEEiP9lua_State
openmw:_ZN3sol6detail22usertype_alloc_destroyIN5MWLua11DynamicStatEEEiP9lua_State
openmw:_ZN3sol6detail22usertype_alloc_destroyIN5MWLua12LocalScripts10SelfObjectEEEiP9lua_State
openmw:_ZN3sol6detail22usertype_alloc_destroyIN5MWLua13AttributeStatEEEiP9lua_State
openmw:_ZN3sol6detail22usertype_alloc_destroyIN5MWLua5GCellEEEiP9lua_State
openmw:_ZN3sol6detail22usertype_alloc_destroyIN5MWLua5LCellEEEiP9lua_State
openmw:_ZN3sol6detail22usertype_alloc_destroyIN5MWLua6ShaderEEEiP9lua_State
openmw:_ZN3sol6detail22usertype_alloc_destroyIN5MWLua7GObjectEEEiP9lua_State
openmw:_ZN3sol6detail22usertype_alloc_destroyIN5MWLua7LObjectEEEiP9lua_State
openmw:_ZN3sol6detail22usertype_alloc_destroyIN5MWLua9InventoryINS2_7GObjectEEEEEiP9lua_State
openmw:_ZN3sol6detail22usertype_alloc_destroyIN5MWLua9InventoryINS2_7LObjectEEEEEiP9lua_State
openmw:_ZN3sol6detail22usertype_alloc_destroyIN5MWLua9LevelStatEEEiP9lua_State
openmw:_ZN3sol6detail22usertype_alloc_destroyIN5MWLua9SkillStatEEEiP9lua_State
openmw:_ZN3sol6detail22usertype_alloc_destroyIN6MWBase10LuaManager13ActorControlsEEEiP9lua_State
openmw:_ZN3sol6detail22usertype_alloc_destroyIN7LuaUtil10LuaStorage11SectionViewEEEiP9lua_State
openmw:_ZN3sol6detail22usertype_alloc_destroyIN7LuaUtil10TransformMEEEiP9lua_State
openmw:_ZN3sol6detail22usertype_alloc_destroyIN7LuaUtil10TransformQEEEiP9lua_State
openmw:_ZN3sol6detail22usertype_alloc_destroyIN7LuaUtil11L10nManager7ContextEEEiP9lua_State
openmw:_ZN3sol6detail22usertype_alloc_destroyIN7LuaUtil13TimerCallbackEEEiP9lua_State
openmw:_ZN3sol6detail22usertype_alloc_destroyIN7LuaUtil14AsyncPackageIdEEEiP9lua_State
openmw:_ZN3sol6detail22usertype_alloc_destroyIN7LuaUtil16ScriptsContainer8ScriptIdEEEiP9lua_State
openmw:_ZN3sol6detail22usertype_alloc_destroyIN7SDLUtil10TouchEventEEEiP9lua_State
openmw:_ZN3sol6detail22usertype_alloc_destroyIN9MWPhysics16RayCastingResultEEEiP9lua_State
openmw:_ZN3sol6detail22usertype_alloc_destroyINS_9base_listIJEEEEEiP9lua_State
openmw:_ZN3sol6detail22usertype_alloc_destroyINS_9base_listIJN5MWLua6ObjectEEEEEEiP9lua_State
openmw:_ZN3sol6detail22usertype_alloc_destroyINS_9base_listIJN5MWLua7LObjectENS3_6ObjectEEEEEEiP9lua_State
openmw:_ZN3sol6detail22usertype_alloc_destroyISt6vectorIN3osg5Vec3fESaIS4_EEEEiP9lua_State
openmw:_ZN3sol6detail22usertype_alloc_destroyIZN5MWLua14getArraySetterIN3osg5Vec2fEEEDaRKNS2_7ContextEEUlRKNS2_6ShaderERKNSt7__cxx1112basic_stringIcSt11char_traitsIcESaIcEEERKNS_16basic_table_coreILb0ENS_15basic_referenceILb0EEEEEE_EEiP9lua_State
openmw:_ZN3sol6detail22usertype_alloc_destroyIZN5MWLua14getArraySetterIN3osg5Vec3fEEEDaRKNS2_7ContextEEUlRKNS2_6ShaderERKNSt7__cxx1112basic_stringIcSt11char_traitsIcESaIcEEERKNS_16basic_table_coreILb0ENS_15basic_referenceILb0EEEEEE_EEiP9lua_State
openmw:_ZN3sol6detail22usertype_alloc_destroyIZN5MWLua14getArraySetterIN3osg5Vec4fEEEDaRKNS2_7ContextEEUlRKNS2_6ShaderERKNSt7__cxx1112basic_stringIcSt11char_traitsIcESaIcEEERKNS_16basic_table_coreILb0ENS_15basic_referenceILb0EEEEEE_EEiP9lua_State
openmw:_ZN3sol6detail22usertype_alloc_destroyIZN5MWLua14getArraySetterIfEEDaRKNS2_7ContextEEUlRKNS2_6ShaderERKNSt7__cxx1112basic_stringIcSt11char_traitsIcESaIcEEERKNS_16basic_table_coreILb0ENS_15basic_referenceILb0EEEEEE_EEiP9lua_State
openmw:_ZN3sol6detail22usertype_alloc_destroyIZN5MWLua14getArraySetterIiEEDaRKNS2_7ContextEEUlRKNS2_6ShaderERKNSt7__cxx1112basic_stringIcSt11char_traitsIcESaIcEEERKNS_16basic_table_coreILb0ENS_15basic_referenceILb0EEEEEE_EEiP9lua_State
openmw:_ZN3sol6detail22usertype_alloc_destroyIZN5MWLua9getSetterIN3osg5Vec2fEEEDaRKNS2_7ContextEEUlRKNS2_6ShaderERKNSt7__cxx1112basic_stringIcSt11char_traitsIcESaIcEEERKS5_E_EEiP9lua_State
openmw:_ZN3sol6detail22usertype_alloc_destroyIZN5MWLua9getSetterIN3osg5Vec3fEEEDaRKNS2_7ContextEEUlRKNS2_6ShaderERKNSt7__cxx1112basic_stringIcSt11char_traitsIcESaIcEEERKS5_E_EEiP9lua_State
openmw:_ZN3sol6detail22usertype_alloc_destroyIZN5MWLua9getSetterIN3osg5Vec4fEEEDaRKNS2_7ContextEEUlRKNS2_6ShaderERKNSt7__cxx1112basic_stringIcSt11char_traitsIcESaIcEEERKS5_E_EEiP9lua_State
openmw:_ZN3sol6detail22usertype_alloc_destroyIZN5MWLua9getSetterIbEEDaRKNS2_7ContextEEUlRKNS2_6ShaderERKNSt7__cxx1112basic_stringIcSt11char_traitsIcESaIcEEERKbE_EEiP9lua_State
openmw:_ZN3sol6detail22usertype_alloc_destroyIZN5MWLua9getSetterIfEEDaRKNS2_7ContextEEUlRKNS2_6ShaderERKNSt7__cxx1112basic_stringIcSt11char_traitsIcESaIcEEERKfE_EEiP9lua_State
openmw:_ZN3sol6detail22usertype_alloc_destroyIZN5MWLua9getSetterIiEEDaRKNS2_7ContextEEUlRKNS2_6ShaderERKNSt7__cxx1112basic_stringIcSt11char_traitsIcESaIcEEERKiE_EEiP9lua_State
openmw:_ZN3sol6detail24comparsion_operator_wrapI10SDL_KeysymNS0_7no_compEEEiP9lua_State
openmw:_ZN3sol6detail24comparsion_operator_wrapIN11MWMechanics9AiPackageENS0_7no_compEEEiP9lua_State
openmw:_ZN3sol6detail24comparsion_operator_wrapIN3ESM6RefNumESt4lessIvEEEiP9lua_State
openmw:_ZN3sol6detail24comparsion_operator_wrapIN3ESM6RefNumESt8equal_toIvEEEiP9lua_State
openmw:_ZN3sol6detail24comparsion_operator_wrapIN3osg5Vec2fESt4lessIvEEEiP9lua_State
openmw:_ZN3sol6detail24comparsion_operator_wrapIN3osg5Vec2fESt8equal_toIvEEEiP9lua_State
openmw:_ZN3sol6detail24comparsion_operator_wrapIN3osg5Vec3fESt4lessIvEEEiP9lua_State
openmw:_ZN3sol6detail24comparsion_operator_wrapIN3osg5Vec3fESt8equal_toIvEEEiP9lua_State
openmw:_ZN3sol6detail24comparsion_operator_wrapIN4Misc5ColorESt8equal_toIvEEEiP9lua_State
openmw:_ZN3sol6detail24comparsion_operator_wrapIN5LuaUi11TextureDataENS0_7no_compEEEiP9lua_State
openmw:_ZN3sol6detail24comparsion_operator_wrapIN5LuaUi5LayerENS0_7no_compEEEiP9lua_State
openmw:_ZN3sol6detail24comparsion_operator_wrapIN5LuaUi7ElementENS0_7no_compEEEiP9lua_State
openmw:_ZN3sol6detail24comparsion_operator_wrapIN5MWLua10ObjectListINS2_7GObjectEEENS0_7no_compEEEiP9lua_State
openmw:_ZN3sol6detail24comparsion_operator_wrapIN5MWLua5GCellENS0_7no_compEEEiP9lua_State
openmw:_ZN3sol6detail24comparsion_operator_wrapIN5MWLua5LCellENS0_7no_compEEEiP9lua_State
openmw:_ZN3sol6detail24comparsion_operator_wrapIN5MWLua7GObjectENS0_7no_compEEEiP9lua_State
openmw:_ZN3sol6detail24comparsion_operator_wrapIN5MWLua7LObjectENS0_7no_compEEEiP9lua_State
openmw:_ZN3sol6detail24comparsion_operator_wrapIN5MWLua9InventoryINS2_7GObjectEEENS0_7no_compEEEiP9lua_State
openmw:_ZN3sol6detail24comparsion_operator_wrapIN5MWLua9InventoryINS2_7LObjectEEENS0_7no_compEEEiP9lua_State
openmw:_ZN3sol6detail24comparsion_operator_wrapIN7LuaUtil10TransformMENS0_7no_compEEEiP9lua_State
openmw:_ZN3sol6detail24comparsion_operator_wrapIN7LuaUtil13TimerCallbackENS0_7no_compEEEiP9lua_State
openmw:_ZN3sol6detail24comparsion_operator_wrapIN7LuaUtil16ScriptsContainer8ScriptIdENS0_7no_compEEEiP9lua_State
openmw:_ZN3sol6detail24comparsion_operator_wrapIN7SDLUtil10TouchEventENS0_7no_compEEEiP9lua_State
openmw:_ZN3sol6detail24comparsion_operator_wrapINS_9base_listIJEEENS0_7no_compEEEiP9lua_State
openmw:_ZN3sol6detail24comparsion_operator_wrapINS_9base_listIJN5MWLua6ObjectEEEENS0_7no_compEEEiP9lua_State
openmw:_ZN3sol6detail24comparsion_operator_wrapINS_9base_listIJN5MWLua7LObjectENS3_6ObjectEEEENS0_7no_compEEEiP9lua_State
openmw:_ZN3sol6detail24comparsion_operator_wrapIZN5MWLua14getArraySetterIN3osg5Vec2fEEEDaRKNS2_7ContextEEUlRKNS2_6ShaderERKNSt7__cxx1112basic_stringIcSt11char_traitsIcESaIcEEERKNS_16basic_table_coreILb0ENS_15basic_referenceILb0EEEEEE_NS0_7no_compEEEiP9lua_State
openmw:_ZN3sol6detail24comparsion_operator_wrapIZN5MWLua14getArraySetterIN3osg5Vec3fEEEDaRKNS2_7ContextEEUlRKNS2_6ShaderERKNSt7__cxx1112basic_stringIcSt11char_traitsIcESaIcEEERKNS_16basic_table_coreILb0ENS_15basic_referenceILb0EEEEEE_NS0_7no_compEEEiP9lua_State
openmw:_ZN3sol6detail24comparsion_operator_wrapIZN5MWLua14getArraySetterIN3osg5Vec4fEEEDaRKNS2_7ContextEEUlRKNS2_6ShaderERKNSt7__cxx1112basic_stringIcSt11char_traitsIcESaIcEEERKNS_16basic_table_coreILb0ENS_15basic_referenceILb0EEEEEE_NS0_7no_compEEEiP9lua_State
openmw:_ZN3sol6detail24comparsion_operator_wrapIZN5MWLua14getArraySetterIfEEDaRKNS2_7ContextEEUlRKNS2_6ShaderERKNSt7__cxx1112basic_stringIcSt11char_traitsIcESaIcEEERKNS_16basic_table_coreILb0ENS_15basic_referenceILb0EEEEEE_NS0_7no_compEEEiP9lua_State
openmw:_ZN3sol6detail24comparsion_operator_wrapIZN5MWLua14getArraySetterIiEEDaRKNS2_7ContextEEUlRKNS2_6ShaderERKNSt7__cxx1112basic_stringIcSt11char_traitsIcESaIcEEERKNS_16basic_table_coreILb0ENS_15basic_referenceILb0EEEEEE_NS0_7no_compEEEiP9lua_State
openmw:_ZN3sol6detail24comparsion_operator_wrapIZN5MWLua9getSetterIN3osg5Vec2fEEEDaRKNS2_7ContextEEUlRKNS2_6ShaderERKNSt7__cxx1112basic_stringIcSt11char_traitsIcESaIcEEERKS5_E_NS0_7no_compEEEiP9lua_State
openmw:_ZN3sol6detail24comparsion_operator_wrapIZN5MWLua9getSetterIN3osg5Vec3fEEEDaRKNS2_7ContextEEUlRKNS2_6ShaderERKNSt7__cxx1112basic_stringIcSt11char_traitsIcESaIcEEERKS5_E_NS0_7no_compEEEiP9lua_State
openmw:_ZN3sol6detail24comparsion_operator_wrapIZN5MWLua9getSetterIN3osg5Vec4fEEEDaRKNS2_7ContextEEUlRKNS2_6ShaderERKNSt7__cxx1112basic_stringIcSt11char_traitsIcESaIcEEERKS5_E_NS0_7no_compEEEiP9lua_State
openmw:_ZN3sol6detail24comparsion_operator_wrapIZN5MWLua9getSetterIbEEDaRKNS2_7ContextEEUlRKNS2_6ShaderERKNSt7__cxx1112basic_stringIcSt11char_traitsIcESaIcEEERKbE_NS0_7no_compEEEiP9lua_State
openmw:_ZN3sol6detail24comparsion_operator_wrapIZN5MWLua9getSetterIfEEDaRKNS2_7ContextEEUlRKNS2_6ShaderERKNSt7__cxx1112basic_stringIcSt11char_traitsIcESaIcEEERKfE_NS0_7no_compEEEiP9lua_State
openmw:_ZN3sol6detail24comparsion_operator_wrapIZN5MWLua9getSetterIiEEDaRKNS2_7ContextEEUlRKNS2_6ShaderERKNSt7__cxx1112basic_stringIcSt11char_traitsIcESaIcEEERKiE_NS0_7no_compEEEiP9lua_State
openmw:_ZN3sol6detail24comparsion_operator_wrapIbSt10less_equalIvEEEiP9lua_State
openmw:_ZN3sol6detail24comparsion_operator_wrapIbSt4lessIvEEEiP9lua_State
openmw:_ZN3sol6detail24comparsion_operator_wrapIbSt8equal_toIvEEEiP9lua_State
openmw:_ZN3sol6detail25default_exception_handlerEP9lua_StateNS_8optionalIRKSt9exceptionEESt17basic_string_viewIcSt11char_traitsIcEE
openmw:_ZN3sol6detail29usertype_unique_alloc_destroyIN11MWMechanics9AiPackageESt10shared_ptrIS3_EEEvPv
openmw:_ZN3sol6detail29usertype_unique_alloc_destroyIN5LuaUi11TextureDataESt10shared_ptrIS3_EEEvPv
openmw:_ZN3sol6detail29usertype_unique_alloc_destroyIN5LuaUi7ElementESt10shared_ptrIS3_EEEvPv
openmw:_ZN3sol6detail8is_checkI10SDL_KeysymEEiP9lua_State
openmw:_ZN3sol6detail8is_checkIN11MWMechanics9AiPackageEEEiP9lua_State
openmw:_ZN3sol6detail8is_checkIN3ESM10IngredientEEEiP9lua_State
openmw:_ZN3sol6detail8is_checkIN3ESM13MiscellaneousEEEiP9lua_State
openmw:_ZN3sol6detail8is_checkIN3ESM3NPCEEEiP9lua_State
openmw:_ZN3sol6detail8is_checkIN3ESM4BookEEEiP9lua_State
openmw:_ZN3sol6detail8is_checkIN3ESM4DoorEEEiP9lua_State
openmw:_ZN3sol6detail8is_checkIN3ESM5ProbeEEEiP9lua_State
openmw:_ZN3sol6detail8is_checkIN3ESM6PotionEEEiP9lua_State
openmw:_ZN3sol6detail8is_checkIN3ESM6RefNumEEEiP9lua_State
openmw:_ZN3sol6detail8is_checkIN3ESM6RepairEEEiP9lua_State
openmw:_ZN3sol6detail8is_checkIN3ESM6WeaponEEEiP9lua_State
openmw:_ZN3sol6detail8is_checkIN3ESM8CreatureEEEiP9lua_State
openmw:_ZN3sol6detail8is_checkIN3ESM8LockpickEEEiP9lua_State
openmw:_ZN3sol6detail8is_checkIN3ESM9ActivatorEEEiP9lua_State
openmw:_ZN3sol6detail8is_checkIN3ESM9ApparatusEEEiP9lua_State
openmw:_ZN3sol6detail8is_checkIN3ESM9ContainerEEEiP9lua_State
openmw:_ZN3sol6detail8is_checkIN3osg5Vec2fEEEiP9lua_State
openmw:_ZN3sol6detail8is_checkIN3osg5Vec3fEEEiP9lua_State
openmw:_ZN3sol6detail8is_checkIN3osg5Vec4fEEEiP9lua_State
openmw:_ZN3sol6detail8is_checkIN4Misc5ColorEEEiP9lua_State
openmw:_ZN3sol6detail8is_checkIN5LuaUi5LayerEEEiP9lua_State
openmw:_ZN3sol6detail8is_checkIN5LuaUi7ElementEEEiP9lua_State
openmw:_ZN3sol6detail8is_checkIN5MWLua10ObjectListINS2_7GObjectEEEEEiP9lua_State
openmw:_ZN3sol6detail8is_checkIN5MWLua10ObjectListINS2_7LObjectEEEEEiP9lua_State
openmw:_ZN3sol6detail8is_checkIN5MWLua11DynamicStatEEEiP9lua_State
openmw:_ZN3sol6detail8is_checkIN5MWLua12LocalScripts10SelfObjectEEEiP9lua_State
openmw:_ZN3sol6detail8is_checkIN5MWLua13AttributeStatEEEiP9lua_State
openmw:_ZN3sol6detail8is_checkIN5MWLua5GCellEEEiP9lua_State
openmw:_ZN3sol6detail8is_checkIN5MWLua5LCellEEEiP9lua_State
openmw:_ZN3sol6detail8is_checkIN5MWLua6ShaderEEEiP9lua_State
openmw:_ZN3sol6detail8is_checkIN5MWLua7GObjectEEEiP9lua_State
openmw:_ZN3sol6detail8is_checkIN5MWLua7LObjectEEEiP9lua_State
openmw:_ZN3sol6detail8is_checkIN5MWLua9InventoryINS2_7GObjectEEEEEiP9lua_State
openmw:_ZN3sol6detail8is_checkIN5MWLua9InventoryINS2_7LObjectEEEEEiP9lua_State
openmw:_ZN3sol6detail8is_checkIN5MWLua9LevelStatEEEiP9lua_State
openmw:_ZN3sol6detail8is_checkIN5MWLua9SkillStatEEEiP9lua_State
openmw:_ZN3sol6detail8is_checkIN6MWBase10LuaManager13ActorControlsEEEiP9lua_State
openmw:_ZN3sol6detail8is_checkIN7LuaUtil10LuaStorage11SectionViewEEEiP9lua_State
openmw:_ZN3sol6detail8is_checkIN7LuaUtil10TransformMEEEiP9lua_State
openmw:_ZN3sol6detail8is_checkIN7LuaUtil10TransformQEEEiP9lua_State
openmw:_ZN3sol6detail8is_checkIN7LuaUtil11L10nManager7ContextEEEiP9lua_State
openmw:_ZN3sol6detail8is_checkIN7LuaUtil13TimerCallbackEEEiP9lua_State
openmw:_ZN3sol6detail8is_checkIN7LuaUtil14AsyncPackageIdEEEiP9lua_State
openmw:_ZN3sol6detail8is_checkIN7LuaUtil16ScriptsContainer8ScriptIdEEEiP9lua_State
openmw:_ZN3sol6detail8is_checkIN7SDLUtil10TouchEventEEEiP9lua_State
openmw:_ZN3sol6detail8is_checkIN9MWPhysics16RayCastingResultEEEiP9lua_State
openmw:_ZN3sol6detail8is_checkINS_9base_listIJEEEEEiP9lua_State
openmw:_ZN3sol6detail8is_checkINS_9base_listIJN5MWLua6ObjectEEEEEEiP9lua_State
openmw:_ZN3sol6detail8is_checkINS_9base_listIJN5MWLua7LObjectENS3_6ObjectEEEEEEiP9lua_State
openmw:_ZN3sol6detail8is_checkIZN5MWLua14getArraySetterIN3osg5Vec2fEEEDaRKNS2_7ContextEEUlRKNS2_6ShaderERKNSt7__cxx1112basic_stringIcSt11char_traitsIcESaIcEEERKNS_16basic_table_coreILb0ENS_15basic_referenceILb0EEEEEE_EEiP9lua_State
openmw:_ZN3sol6detail8is_checkIZN5MWLua14getArraySetterIN3osg5Vec3fEEEDaRKNS2_7ContextEEUlRKNS2_6ShaderERKNSt7__cxx1112basic_stringIcSt11char_traitsIcESaIcEEERKNS_16basic_table_coreILb0ENS_15basic_referenceILb0EEEEEE_EEiP9lua_State
openmw:_ZN3sol6detail8is_checkIZN5MWLua14getArraySetterIN3osg5Vec4fEEEDaRKNS2_7ContextEEUlRKNS2_6ShaderERKNSt7__cxx1112basic_stringIcSt11char_traitsIcESaIcEEERKNS_16basic_table_coreILb0ENS_15basic_referenceILb0EEEEEE_EEiP9lua_State
openmw:_ZN3sol6detail8is_checkIZN5MWLua14getArraySetterIfEEDaRKNS2_7ContextEEUlRKNS2_6ShaderERKNSt7__cxx1112basic_stringIcSt11char_traitsIcESaIcEEERKNS_16basic_table_coreILb0ENS_15basic_referenceILb0EEEEEE_EEiP9lua_State
openmw:_ZN3sol6detail8is_checkIZN5MWLua14getArraySetterIiEEDaRKNS2_7ContextEEUlRKNS2_6ShaderERKNSt7__cxx1112basic_stringIcSt11char_traitsIcESaIcEEERKNS_16basic_table_coreILb0ENS_15basic_referenceILb0EEEEEE_EEiP9lua_State
openmw:_ZN3sol6detail8is_checkIZN5MWLua9getSetterIN3osg5Vec2fEEEDaRKNS2_7ContextEEUlRKNS2_6ShaderERKNSt7__cxx1112basic_stringIcSt11char_traitsIcESaIcEEERKS5_E_EEiP9lua_State
openmw:_ZN3sol6detail8is_checkIZN5MWLua9getSetterIN3osg5Vec3fEEEDaRKNS2_7ContextEEUlRKNS2_6ShaderERKNSt7__cxx1112basic_stringIcSt11char_traitsIcESaIcEEERKS5_E_EEiP9lua_State
openmw:_ZN3sol6detail8is_checkIZN5MWLua9getSetterIN3osg5Vec4fEEEDaRKNS2_7ContextEEUlRKNS2_6ShaderERKNSt7__cxx1112basic_stringIcSt11char_traitsIcESaIcEEERKS5_E_EEiP9lua_State
openmw:_ZN3sol6detail8is_checkIZN5MWLua9getSetterIbEEDaRKNS2_7ContextEEUlRKNS2_6ShaderERKNSt7__cxx1112basic_stringIcSt11char_traitsIcESaIcEEERKbE_EEiP9lua_State
openmw:_ZN3sol6detail8is_checkIZN5MWLua9getSetterIfEEDaRKNS2_7ContextEEUlRKNS2_6ShaderERKNSt7__cxx1112basic_stringIcSt11char_traitsIcESaIcEEERKfE_EEiP9lua_State
openmw:_ZN3sol6detail8is_checkIZN5MWLua9getSetterIiEEDaRKNS2_7ContextEEUlRKNS2_6ShaderERKNSt7__cxx1112basic_stringIcSt11char_traitsIcESaIcEEERKiE_EEiP9lua_State
openmw:_ZN3sol6detail8is_checkIbEEiP9lua_State
openmw:_ZN3sol7lua_nilE
openmw:_ZN3sol8no_panicEP9lua_StateiNS_4typeES2_PKc
openmw:_ZN3sol8u_detail16usertype_storageI10SDL_KeysymE10index_callILb0EEEiP9lua_State
openmw:_ZN3sol8u_detail16usertype_storageI10SDL_KeysymE10index_callILb1EEEiP9lua_State
openmw:_ZN3sol8u_detail16usertype_storageI10SDL_KeysymE11index_call_ILb0ELb0EEEiP9lua_State
openmw:_ZN3sol8u_detail16usertype_storageI10SDL_KeysymE11index_call_ILb0ELb1EEEiP9lua_State
openmw:_ZN3sol8u_detail16usertype_storageI10SDL_KeysymE11index_call_ILb1ELb0EEEiP9lua_State
openmw:_ZN3sol8u_detail16usertype_storageI10SDL_KeysymE11index_call_ILb1ELb1EEEiP9lua_State
openmw:_ZN3sol8u_detail16usertype_storageI10SDL_KeysymE15meta_index_callILb0EEEiP9lua_State
openmw:_ZN3sol8u_detail16usertype_storageI10SDL_KeysymE15meta_index_callILb1EEEiP9lua_State
openmw:_ZN3sol8u_detail16usertype_storageIN11MWMechanics9AiPackageEE10index_callILb0EEEiP9lua_State
openmw:_ZN3sol8u_detail16usertype_storageIN11MWMechanics9AiPackageEE10index_callILb1EEEiP9lua_State
openmw:_ZN3sol8u_detail16usertype_storageIN11MWMechanics9AiPackageEE11index_call_ILb0ELb0EEEiP9lua_State
openmw:_ZN3sol8u_detail16usertype_storageIN11MWMechanics9AiPackageEE11index_call_ILb0ELb1EEEiP9lua_State
openmw:_ZN3sol8u_detail16usertype_storageIN11MWMechanics9AiPackageEE11index_call_ILb1ELb0EEEiP9lua_State
openmw:_ZN3sol8u_detail16usertype_storageIN11MWMechanics9AiPackageEE11index_call_ILb1ELb1EEEiP9lua_State
openmw:_ZN3sol8u_detail16usertype_storageIN11MWMechanics9AiPackageEE15meta_index_callILb0EEEiP9lua_State
openmw:_ZN3sol8u_detail16usertype_storageIN11MWMechanics9AiPackageEE15meta_index_callILb1EEEiP9lua_State
openmw:_ZN3sol8u_detail16usertype_storageIN3ESM10IngredientEE10index_callILb0EEEiP9lua_State
openmw:_ZN3sol8u_detail16usertype_storageIN3ESM10IngredientEE10index_callILb1EEEiP9lua_State
openmw:_ZN3sol8u_detail16usertype_storageIN3ESM10IngredientEE11index_call_ILb0ELb0EEEiP9lua_State
openmw:_ZN3sol8u_detail16usertype_storageIN3ESM10IngredientEE11index_call_ILb0ELb1EEEiP9lua_State
openmw:_ZN3sol8u_detail16usertype_storageIN3ESM10IngredientEE11index_call_ILb1ELb0EEEiP9lua_State
openmw:_ZN3sol8u_detail16usertype_storageIN3ESM10IngredientEE11index_call_ILb1ELb1EEEiP9lua_State
openmw:_ZN3sol8u_detail16usertype_storageIN3ESM10IngredientEE15meta_index_callILb0EEEiP9lua_State
openmw:_ZN3sol8u_detail16usertype_storageIN3ESM10IngredientEE15meta_index_callILb1EEEiP9lua_State
openmw:_ZN3sol8u_detail16usertype_storageIN3ESM13MiscellaneousEE10index_callILb0EEEiP9lua_State
openmw:_ZN3sol8u_detail16usertype_storageIN3ESM13MiscellaneousEE10index_callILb1EEEiP9lua_State
openmw:_ZN3sol8u_detail16usertype_storageIN3ESM13MiscellaneousEE11index_call_ILb0ELb0EEEiP9lua_State
openmw:_ZN3sol8u_detail16usertype_storageIN3ESM13MiscellaneousEE11index_call_ILb0ELb1EEEiP9lua_State
openmw:_ZN3sol8u_detail16usertype_storageIN3ESM13MiscellaneousEE11index_call_ILb1ELb0EEEiP9lua_State
openmw:_ZN3sol8u_detail16usertype_storageIN3ESM13MiscellaneousEE11index_call_ILb1ELb1EEEiP9lua_State
openmw:_ZN3sol8u_detail16usertype_storageIN3ESM13MiscellaneousEE15meta_index_callILb0EEEiP9lua_State
openmw:_ZN3sol8u_detail16usertype_storageIN3ESM13MiscellaneousEE15meta_index_callILb1EEEiP9lua_State
openmw:_ZN3sol8u_detail16usertype_storageIN3ESM3NPCEE10index_callILb0EEEiP9lua_State
openmw:_ZN3sol8u_detail16usertype_storageIN3ESM3NPCEE10index_callILb1EEEiP9lua_State
openmw:_ZN3sol8u_detail16usertype_storageIN3ESM3NPCEE11index_call_ILb0ELb0EEEiP9lua_State
openmw:_ZN3sol8u_detail16usertype_storageIN3ESM3NPCEE11index_call_ILb0ELb1EEEiP9lua_State
openmw:_ZN3sol8u_detail16usertype_storageIN3ESM3NPCEE11index_call_ILb1ELb0EEEiP9lua_State
openmw:_ZN3sol8u_detail16usertype_storageIN3ESM3NPCEE11index_call_ILb1ELb1EEEiP9lua_State
openmw:_ZN3sol8u_detail16usertype_storageIN3ESM3NPCEE15meta_index_callILb0EEEiP9lua_State
openmw:_ZN3sol8u_detail16usertype_storageIN3ESM3NPCEE15meta_index_callILb1EEEiP9lua_State
openmw:_ZN3sol8u_detail16usertype_storageIN3ESM4BookEE10index_callILb0EEEiP9lua_State
openmw:_ZN3sol8u_detail16usertype_storageIN3ESM4BookEE10index_callILb1EEEiP9lua_State
openmw:_ZN3sol8u_detail16usertype_storageIN3ESM4BookEE11index_call_ILb0ELb0EEEiP9lua_State
openmw:_ZN3sol8u_detail16usertype_storageIN3ESM4BookEE11index_call_ILb0ELb1EEEiP9lua_State
openmw:_ZN3sol8u_detail16usertype_storageIN3ESM4BookEE11index_call_ILb1ELb0EEEiP9lua_State
openmw:_ZN3sol8u_detail16usertype_storageIN3ESM4BookEE11index_call_ILb1ELb1EEEiP9lua_State
openmw:_ZN3sol8u_detail16usertype_storageIN3ESM4BookEE15meta_index_callILb0EEEiP9lua_State
openmw:_ZN3sol8u_detail16usertype_storageIN3ESM4BookEE15meta_index_callILb1EEEiP9lua_State
openmw:_ZN3sol8u_detail16usertype_storageIN3ESM4DoorEE10index_callILb0EEEiP9lua_State
openmw:_ZN3sol8u_detail16usertype_storageIN3ESM4DoorEE10index_callILb1EEEiP9lua_State
openmw:_ZN3sol8u_detail16usertype_storageIN3ESM4DoorEE11index_call_ILb0ELb0EEEiP9lua_State
openmw:_ZN3sol8u_detail16usertype_storageIN3ESM4DoorEE11index_call_ILb0ELb1EEEiP9lua_State
openmw:_ZN3sol8u_detail16usertype_storageIN3ESM4DoorEE11index_call_ILb1ELb0EEEiP9lua_State
openmw:_ZN3sol8u_detail16usertype_storageIN3ESM4DoorEE11index_call_ILb1ELb1EEEiP9lua_State
openmw:_ZN3sol8u_detail16usertype_storageIN3ESM4DoorEE15meta_index_callILb0EEEiP9lua_State
openmw:_ZN3sol8u_detail16usertype_storageIN3ESM4DoorEE15meta_index_callILb1EEEiP9lua_State
openmw:_ZN3sol8u_detail16usertype_storageIN3ESM5ProbeEE10index_callILb0EEEiP9lua_State
openmw:_ZN3sol8u_detail16usertype_storageIN3ESM5ProbeEE10index_callILb1EEEiP9lua_State
openmw:_ZN3sol8u_detail16usertype_storageIN3ESM5ProbeEE11index_call_ILb0ELb0EEEiP9lua_State
openmw:_ZN3sol8u_detail16usertype_storageIN3ESM5ProbeEE11index_call_ILb0ELb1EEEiP9lua_State
openmw:_ZN3sol8u_detail16usertype_storageIN3ESM5ProbeEE11index_call_ILb1ELb0EEEiP9lua_State
openmw:_ZN3sol8u_detail16usertype_storageIN3ESM5ProbeEE11index_call_ILb1ELb1EEEiP9lua_State
openmw:_ZN3sol8u_detail16usertype_storageIN3ESM5ProbeEE15meta_index_callILb0EEEiP9lua_State
openmw:_ZN3sol8u_detail16usertype_storageIN3ESM5ProbeEE15meta_index_callILb1EEEiP9lua_State
openmw:_ZN3sol8u_detail16usertype_storageIN3ESM6PotionEE10index_callILb0EEEiP9lua_State
openmw:_ZN3sol8u_detail16usertype_storageIN3ESM6PotionEE10index_callILb1EEEiP9lua_State
openmw:_ZN3sol8u_detail16usertype_storageIN3ESM6PotionEE11index_call_ILb0ELb0EEEiP9lua_State
openmw:_ZN3sol8u_detail16usertype_storageIN3ESM6PotionEE11index_call_ILb0ELb1EEEiP9lua_State
openmw:_ZN3sol8u_detail16usertype_storageIN3ESM6PotionEE11index_call_ILb1ELb0EEEiP9lua_State
openmw:_ZN3sol8u_detail16usertype_storageIN3ESM6PotionEE11index_call_ILb1ELb1EEEiP9lua_State
openmw:_ZN3sol8u_detail16usertype_storageIN3ESM6PotionEE15meta_index_callILb0EEEiP9lua_State
openmw:_ZN3sol8u_detail16usertype_storageIN3ESM6PotionEE15meta_index_callILb1EEEiP9lua_State
openmw:_ZN3sol8u_detail16usertype_storageIN3ESM6RepairEE10index_callILb0EEEiP9lua_State
openmw:_ZN3sol8u_detail16usertype_storageIN3ESM6RepairEE10index_callILb1EEEiP9lua_State
openmw:_ZN3sol8u_detail16usertype_storageIN3ESM6RepairEE11index_call_ILb0ELb0EEEiP9lua_State
openmw:_ZN3sol8u_detail16usertype_storageIN3ESM6RepairEE11index_call_ILb0ELb1EEEiP9lua_State
openmw:_ZN3sol8u_detail16usertype_storageIN3ESM6RepairEE11index_call_ILb1ELb0EEEiP9lua_State
openmw:_ZN3sol8u_detail16usertype_storageIN3ESM6RepairEE11index_call_ILb1ELb1EEEiP9lua_State
openmw:_ZN3sol8u_detail16usertype_storageIN3ESM6RepairEE15meta_index_callILb0EEEiP9lua_State
openmw:_ZN3sol8u_detail16usertype_storageIN3ESM6RepairEE15meta_index_callILb1EEEiP9lua_State
openmw:_ZN3sol8u_detail16usertype_storageIN3ESM6WeaponEE10index_callILb0EEEiP9lua_State
openmw:_ZN3sol8u_detail16usertype_storageIN3ESM6WeaponEE10index_callILb1EEEiP9lua_State
openmw:_ZN3sol8u_detail16usertype_storageIN3ESM6WeaponEE11index_call_ILb0ELb0EEEiP9lua_State
openmw:_ZN3sol8u_detail16usertype_storageIN3ESM6WeaponEE11index_call_ILb0ELb1EEEiP9lua_State
openmw:_ZN3sol8u_detail16usertype_storageIN3ESM6WeaponEE11index_call_ILb1ELb0EEEiP9lua_State
openmw:_ZN3sol8u_detail16usertype_storageIN3ESM6WeaponEE11index_call_ILb1ELb1EEEiP9lua_State
openmw:_ZN3sol8u_detail16usertype_storageIN3ESM6WeaponEE15meta_index_callILb0EEEiP9lua_State
openmw:_ZN3sol8u_detail16usertype_storageIN3ESM6WeaponEE15meta_index_callILb1EEEiP9lua_State
openmw:_ZN3sol8u_detail16usertype_storageIN3ESM8CreatureEE10index_callILb0EEEiP9lua_State
openmw:_ZN3sol8u_detail16usertype_storageIN3ESM8CreatureEE10index_callILb1EEEiP9lua_State
openmw:_ZN3sol8u_detail16usertype_storageIN3ESM8CreatureEE11index_call_ILb0ELb0EEEiP9lua_State
openmw:_ZN3sol8u_detail16usertype_storageIN3ESM8CreatureEE11index_call_ILb0ELb1EEEiP9lua_State
openmw:_ZN3sol8u_detail16usertype_storageIN3ESM8CreatureEE11index_call_ILb1ELb0EEEiP9lua_State
openmw:_ZN3sol8u_detail16usertype_storageIN3ESM8CreatureEE11index_call_ILb1ELb1EEEiP9lua_State
openmw:_ZN3sol8u_detail16usertype_storageIN3ESM8CreatureEE15meta_index_callILb0EEEiP9lua_State
openmw:_ZN3sol8u_detail16usertype_storageIN3ESM8CreatureEE15meta_index_callILb1EEEiP9lua_State
openmw:_ZN3sol8u_detail16usertype_storageIN3ESM8LockpickEE10index_callILb0EEEiP9lua_State
openmw:_ZN3sol8u_detail16usertype_storageIN3ESM8LockpickEE10index_callILb1EEEiP9lua_State
openmw:_ZN3sol8u_detail16usertype_storageIN3ESM8LockpickEE11index_call_ILb0ELb0EEEiP9lua_State
openmw:_ZN3sol8u_detail16usertype_storageIN3ESM8LockpickEE11index_call_ILb0ELb1EEEiP9lua_State
openmw:_ZN3sol8u_detail16usertype_storageIN3ESM8LockpickEE11index_call_ILb1ELb0EEEiP9lua_State
openmw:_ZN3sol8u_detail16usertype_storageIN3ESM8LockpickEE11index_call_ILb1ELb1EEEiP9lua_State
openmw:_ZN3sol8u_detail16usertype_storageIN3ESM8LockpickEE15meta_index_callILb0EEEiP9lua_State
openmw:_ZN3sol8u_detail16usertype_storageIN3ESM8LockpickEE15meta_index_callILb1EEEiP9lua_State
openmw:_ZN3sol8u_detail16usertype_storageIN3ESM9ActivatorEE10index_callILb0EEEiP9lua_State
openmw:_ZN3sol8u_detail16usertype_storageIN3ESM9ActivatorEE10index_callILb1EEEiP9lua_State
openmw:_ZN3sol8u_detail16usertype_storageIN3ESM9ActivatorEE11index_call_ILb0ELb0EEEiP9lua_State
openmw:_ZN3sol8u_detail16usertype_storageIN3ESM9ActivatorEE11index_call_ILb0ELb1EEEiP9lua_State
openmw:_ZN3sol8u_detail16usertype_storageIN3ESM9ActivatorEE11index_call_ILb1ELb0EEEiP9lua_State
openmw:_ZN3sol8u_detail16usertype_storageIN3ESM9ActivatorEE11index_call_ILb1ELb1EEEiP9lua_State
openmw:_ZN3sol8u_detail16usertype_storageIN3ESM9ActivatorEE15meta_index_callILb0EEEiP9lua_State
openmw:_ZN3sol8u_detail16usertype_storageIN3ESM9ActivatorEE15meta_index_callILb1EEEiP9lua_State
openmw:_ZN3sol8u_detail16usertype_storageIN3ESM9ApparatusEE10index_callILb0EEEiP9lua_State
openmw:_ZN3sol8u_detail16usertype_storageIN3ESM9ApparatusEE10index_callILb1EEEiP9lua_State
openmw:_ZN3sol8u_detail16usertype_storageIN3ESM9ApparatusEE11index_call_ILb0ELb0EEEiP9lua_State
openmw:_ZN3sol8u_detail16usertype_storageIN3ESM9ApparatusEE11index_call_ILb0ELb1EEEiP9lua_State
openmw:_ZN3sol8u_detail16usertype_storageIN3ESM9ApparatusEE11index_call_ILb1ELb0EEEiP9lua_State
openmw:_ZN3sol8u_detail16usertype_storageIN3ESM9ApparatusEE11index_call_ILb1ELb1EEEiP9lua_State
openmw:_ZN3sol8u_detail16usertype_storageIN3ESM9ApparatusEE15meta_index_callILb0EEEiP9lua_State
openmw:_ZN3sol8u_detail16usertype_storageIN3ESM9ApparatusEE15meta_index_callILb1EEEiP9lua_State
openmw:_ZN3sol8u_detail16usertype_storageIN3ESM9ContainerEE10index_callILb0EEEiP9lua_State
openmw:_ZN3sol8u_detail16usertype_storageIN3ESM9ContainerEE10index_callILb1EEEiP9lua_State
openmw:_ZN3sol8u_detail16usertype_storageIN3ESM9ContainerEE11index_call_ILb0ELb0EEEiP9lua_State
openmw:_ZN3sol8u_detail16usertype_storageIN3ESM9ContainerEE11index_call_ILb0ELb1EEEiP9lua_State
openmw:_ZN3sol8u_detail16usertype_storageIN3ESM9ContainerEE11index_call_ILb1ELb0EEEiP9lua_State
openmw:_ZN3sol8u_detail16usertype_storageIN3ESM9ContainerEE11index_call_ILb1ELb1EEEiP9lua_State
openmw:_ZN3sol8u_detail16usertype_storageIN3ESM9ContainerEE15meta_index_callILb0EEEiP9lua_State
openmw:_ZN3sol8u_detail16usertype_storageIN3ESM9ContainerEE15meta_index_callILb1EEEiP9lua_State
openmw:_ZN3sol8u_detail16usertype_storageIN3osg5Vec2fEE10index_callILb0EEEiP9lua_State
openmw:_ZN3sol8u_detail16usertype_storageIN3osg5Vec2fEE10index_callILb1EEEiP9lua_State
openmw:_ZN3sol8u_detail16usertype_storageIN3osg5Vec2fEE11index_call_ILb0ELb0EEEiP9lua_State
openmw:_ZN3sol8u_detail16usertype_storageIN3osg5Vec2fEE11index_call_ILb0ELb1EEEiP9lua_State
openmw:_ZN3sol8u_detail16usertype_storageIN3osg5Vec2fEE11index_call_ILb1ELb0EEEiP9lua_State
openmw:_ZN3sol8u_detail16usertype_storageIN3osg5Vec2fEE11index_call_ILb1ELb1EEEiP9lua_State
openmw:_ZN3sol8u_detail16usertype_storageIN3osg5Vec2fEE15meta_index_callILb0EEEiP9lua_State
openmw:_ZN3sol8u_detail16usertype_storageIN3osg5Vec2fEE15meta_index_callILb1EEEiP9lua_State
openmw:_ZN3sol8u_detail16usertype_storageIN3osg5Vec3fEE10index_callILb0EEEiP9lua_State
openmw:_ZN3sol8u_detail16usertype_storageIN3osg5Vec3fEE10index_callILb1EEEiP9lua_State
openmw:_ZN3sol8u_detail16usertype_storageIN3osg5Vec3fEE11index_call_ILb0ELb0EEEiP9lua_State
openmw:_ZN3sol8u_detail16usertype_storageIN3osg5Vec3fEE11index_call_ILb0ELb1EEEiP9lua_State
openmw:_ZN3sol8u_detail16usertype_storageIN3osg5Vec3fEE11index_call_ILb1ELb0EEEiP9lua_State
openmw:_ZN3sol8u_detail16usertype_storageIN3osg5Vec3fEE11index_call_ILb1ELb1EEEiP9lua_State
openmw:_ZN3sol8u_detail16usertype_storageIN3osg5Vec3fEE15meta_index_callILb0EEEiP9lua_State
openmw:_ZN3sol8u_detail16usertype_storageIN3osg5Vec3fEE15meta_index_callILb1EEEiP9lua_State
openmw:_ZN3sol8u_detail16usertype_storageIN3osg5Vec4fEE10index_callILb0EEEiP9lua_State
openmw:_ZN3sol8u_detail16usertype_storageIN3osg5Vec4fEE10index_callILb1EEEiP9lua_State
openmw:_ZN3sol8u_detail16usertype_storageIN3osg5Vec4fEE11index_call_ILb0ELb0EEEiP9lua_State
openmw:_ZN3sol8u_detail16usertype_storageIN3osg5Vec4fEE11index_call_ILb0ELb1EEEiP9lua_State
openmw:_ZN3sol8u_detail16usertype_storageIN3osg5Vec4fEE11index_call_ILb1ELb0EEEiP9lua_State
openmw:_ZN3sol8u_detail16usertype_storageIN3osg5Vec4fEE11index_call_ILb1ELb1EEEiP9lua_State
openmw:_ZN3sol8u_detail16usertype_storageIN3osg5Vec4fEE15meta_index_callILb0EEEiP9lua_State
openmw:_ZN3sol8u_detail16usertype_storageIN3osg5Vec4fEE15meta_index_callILb1EEEiP9lua_State
openmw:_ZN3sol8u_detail16usertype_storageIN4Misc5ColorEE10index_callILb0EEEiP9lua_State
openmw:_ZN3sol8u_detail16usertype_storageIN4Misc5ColorEE10index_callILb1EEEiP9lua_State
openmw:_ZN3sol8u_detail16usertype_storageIN4Misc5ColorEE11index_call_ILb0ELb0EEEiP9lua_State
openmw:_ZN3sol8u_detail16usertype_storageIN4Misc5ColorEE11index_call_ILb0ELb1EEEiP9lua_State
openmw:_ZN3sol8u_detail16usertype_storageIN4Misc5ColorEE11index_call_ILb1ELb0EEEiP9lua_State
openmw:_ZN3sol8u_detail16usertype_storageIN4Misc5ColorEE11index_call_ILb1ELb1EEEiP9lua_State
openmw:_ZN3sol8u_detail16usertype_storageIN4Misc5ColorEE15meta_index_callILb0EEEiP9lua_State
openmw:_ZN3sol8u_detail16usertype_storageIN4Misc5ColorEE15meta_index_callILb1EEEiP9lua_State
openmw:_ZN3sol8u_detail16usertype_storageIN5LuaUi5LayerEE10index_callILb0EEEiP9lua_State
openmw:_ZN3sol8u_detail16usertype_storageIN5LuaUi5LayerEE10index_callILb1EEEiP9lua_State
openmw:_ZN3sol8u_detail16usertype_storageIN5LuaUi5LayerEE11index_call_ILb0ELb0EEEiP9lua_State
openmw:_ZN3sol8u_detail16usertype_storageIN5LuaUi5LayerEE11index_call_ILb0ELb1EEEiP9lua_State
openmw:_ZN3sol8u_detail16usertype_storageIN5LuaUi5LayerEE11index_call_ILb1ELb0EEEiP9lua_State
openmw:_ZN3sol8u_detail16usertype_storageIN5LuaUi5LayerEE11index_call_ILb1ELb1EEEiP9lua_State
openmw:_ZN3sol8u_detail16usertype_storageIN5LuaUi5LayerEE15meta_index_callILb0EEEiP9lua_State
openmw:_ZN3sol8u_detail16usertype_storageIN5LuaUi5LayerEE15meta_index_callILb1EEEiP9lua_State
openmw:_ZN3sol8u_detail16usertype_storageIN5LuaUi7ElementEE10index_callILb0EEEiP9lua_State
openmw:_ZN3sol8u_detail16usertype_storageIN5LuaUi7ElementEE10index_callILb1EEEiP9lua_State
openmw:_ZN3sol8u_detail16usertype_storageIN5LuaUi7ElementEE11index_call_ILb0ELb0EEEiP9lua_State
openmw:_ZN3sol8u_detail16usertype_storageIN5LuaUi7ElementEE11index_call_ILb0ELb1EEEiP9lua_State
openmw:_ZN3sol8u_detail16usertype_storageIN5LuaUi7ElementEE11index_call_ILb1ELb0EEEiP9lua_State
openmw:_ZN3sol8u_detail16usertype_storageIN5LuaUi7ElementEE11index_call_ILb1ELb1EEEiP9lua_State
openmw:_ZN3sol8u_detail16usertype_storageIN5LuaUi7ElementEE15meta_index_callILb0EEEiP9lua_State
openmw:_ZN3sol8u_detail16usertype_storageIN5LuaUi7ElementEE15meta_index_callILb1EEEiP9lua_State
openmw:_ZN3sol8u_detail16usertype_storageIN5MWLua10ObjectListINS2_7GObjectEEEE10index_callILb0EEEiP9lua_State
openmw:_ZN3sol8u_detail16usertype_storageIN5MWLua10ObjectListINS2_7GObjectEEEE10index_callILb1EEEiP9lua_State
openmw:_ZN3sol8u_detail16usertype_storageIN5MWLua10ObjectListINS2_7GObjectEEEE11index_call_ILb0ELb0EEEiP9lua_State
openmw:_ZN3sol8u_detail16usertype_storageIN5MWLua10ObjectListINS2_7GObjectEEEE11index_call_ILb0ELb1EEEiP9lua_State
openmw:_ZN3sol8u_detail16usertype_storageIN5MWLua10ObjectListINS2_7GObjectEEEE11index_call_ILb1ELb0EEEiP9lua_State
openmw:_ZN3sol8u_detail16usertype_storageIN5MWLua10ObjectListINS2_7GObjectEEEE11index_call_ILb1ELb1EEEiP9lua_State
openmw:_ZN3sol8u_detail16usertype_storageIN5MWLua10ObjectListINS2_7GObjectEEEE15meta_index_callILb0EEEiP9lua_State
openmw:_ZN3sol8u_detail16usertype_storageIN5MWLua10ObjectListINS2_7GObjectEEEE15meta_index_callILb1EEEiP9lua_State
openmw:_ZN3sol8u_detail16usertype_storageIN5MWLua10ObjectListINS2_7LObjectEEEE10index_callILb0EEEiP9lua_State
openmw:_ZN3sol8u_detail16usertype_storageIN5MWLua10ObjectListINS2_7LObjectEEEE10index_callILb1EEEiP9lua_State
openmw:_ZN3sol8u_detail16usertype_storageIN5MWLua10ObjectListINS2_7LObjectEEEE11index_call_ILb0ELb0EEEiP9lua_State
openmw:_ZN3sol8u_detail16usertype_storageIN5MWLua10ObjectListINS2_7LObjectEEEE11index_call_ILb0ELb1EEEiP9lua_State
openmw:_ZN3sol8u_detail16usertype_storageIN5MWLua10ObjectListINS2_7LObjectEEEE11index_call_ILb1ELb0EEEiP9lua_State
openmw:_ZN3sol8u_detail16usertype_storageIN5MWLua10ObjectListINS2_7LObjectEEEE11index_call_ILb1ELb1EEEiP9lua_State
openmw:_ZN3sol8u_detail16usertype_storageIN5MWLua10ObjectListINS2_7LObjectEEEE15meta_index_callILb0EEEiP9lua_State
openmw:_ZN3sol8u_detail16usertype_storageIN5MWLua10ObjectListINS2_7LObjectEEEE15meta_index_callILb1EEEiP9lua_State
openmw:_ZN3sol8u_detail16usertype_storageIN5MWLua11DynamicStatEE10index_callILb0EEEiP9lua_State
openmw:_ZN3sol8u_detail16usertype_storageIN5MWLua11DynamicStatEE10index_callILb1EEEiP9lua_State
openmw:_ZN3sol8u_detail16usertype_storageIN5MWLua11DynamicStatEE11index_call_ILb0ELb0EEEiP9lua_State
openmw:_ZN3sol8u_detail16usertype_storageIN5MWLua11DynamicStatEE11index_call_ILb0ELb1EEEiP9lua_State
openmw:_ZN3sol8u_detail16usertype_storageIN5MWLua11DynamicStatEE11index_call_ILb1ELb0EEEiP9lua_State
openmw:_ZN3sol8u_detail16usertype_storageIN5MWLua11DynamicStatEE11index_call_ILb1ELb1EEEiP9lua_State
openmw:_ZN3sol8u_detail16usertype_storageIN5MWLua11DynamicStatEE15meta_index_callILb0EEEiP9lua_State
openmw:_ZN3sol8u_detail16usertype_storageIN5MWLua11DynamicStatEE15meta_index_callILb1EEEiP9lua_State
openmw:_ZN3sol8u_detail16usertype_storageIN5MWLua12LocalScripts10SelfObjectEE10index_callILb0EEEiP9lua_State
openmw:_ZN3sol8u_detail16usertype_storageIN5MWLua12LocalScripts10SelfObjectEE10index_callILb1EEEiP9lua_State
openmw:_ZN3sol8u_detail16usertype_storageIN5MWLua12LocalScripts10SelfObjectEE11index_call_ILb0ELb0EEEiP9lua_State
openmw:_ZN3sol8u_detail16usertype_storageIN5MWLua12LocalScripts10SelfObjectEE11index_call_ILb0ELb1EEEiP9lua_State
openmw:_ZN3sol8u_detail16usertype_storageIN5MWLua12LocalScripts10SelfObjectEE11index_call_ILb1ELb0EEEiP9lua_State
openmw:_ZN3sol8u_detail16usertype_storageIN5MWLua12LocalScripts10SelfObjectEE11index_call_ILb1ELb1EEEiP9lua_State
openmw:_ZN3sol8u_detail16usertype_storageIN5MWLua12LocalScripts10SelfObjectEE15meta_index_callILb0EEEiP9lua_State
openmw:_ZN3sol8u_detail16usertype_storageIN5MWLua12LocalScripts10SelfObjectEE15meta_index_callILb1EEEiP9lua_State
openmw:_ZN3sol8u_detail16usertype_storageIN5MWLua12LocalScripts10SelfObjectEE21index_call_with_basesILb0EJNS2_7LObjectENS2_6ObjectEEEEiP9lua_State
openmw:_ZN3sol8u_detail16usertype_storageIN5MWLua12LocalScripts10SelfObjectEE21index_call_with_basesILb1EJNS2_7LObjectENS2_6ObjectEEEEiP9lua_State
openmw:_ZN3sol8u_detail16usertype_storageIN5MWLua12LocalScripts10SelfObjectEE22index_call_with_bases_ILb0ELb0EJNS2_7LObjectENS2_6ObjectEEEEiP9lua_State
openmw:_ZN3sol8u_detail16usertype_storageIN5MWLua12LocalScripts10SelfObjectEE22index_call_with_bases_ILb0ELb1EJNS2_7LObjectENS2_6ObjectEEEEiP9lua_State
openmw:_ZN3sol8u_detail16usertype_storageIN5MWLua12LocalScripts10SelfObjectEE22index_call_with_bases_ILb1ELb0EJNS2_7LObjectENS2_6ObjectEEEEiP9lua_State
openmw:_ZN3sol8u_detail16usertype_storageIN5MWLua12LocalScripts10SelfObjectEE22index_call_with_bases_ILb1ELb1EJNS2_7LObjectENS2_6ObjectEEEEiP9lua_State
openmw:_ZN3sol8u_detail16usertype_storageIN5MWLua12LocalScripts10SelfObjectEE26meta_index_call_with_basesILb0EJNS2_7LObjectENS2_6ObjectEEEEiP9lua_State
openmw:_ZN3sol8u_detail16usertype_storageIN5MWLua12LocalScripts10SelfObjectEE26meta_index_call_with_basesILb1EJNS2_7LObjectENS2_6ObjectEEEEiP9lua_State
openmw:_ZN3sol8u_detail16usertype_storageIN5MWLua13AttributeStatEE10index_callILb0EEEiP9lua_State
openmw:_ZN3sol8u_detail16usertype_storageIN5MWLua13AttributeStatEE10index_callILb1EEEiP9lua_State
openmw:_ZN3sol8u_detail16usertype_storageIN5MWLua13AttributeStatEE11index_call_ILb0ELb0EEEiP9lua_State
openmw:_ZN3sol8u_detail16usertype_storageIN5MWLua13AttributeStatEE11index_call_ILb0ELb1EEEiP9lua_State
openmw:_ZN3sol8u_detail16usertype_storageIN5MWLua13AttributeStatEE11index_call_ILb1ELb0EEEiP9lua_State
openmw:_ZN3sol8u_detail16usertype_storageIN5MWLua13AttributeStatEE11index_call_ILb1ELb1EEEiP9lua_State
openmw:_ZN3sol8u_detail16usertype_storageIN5MWLua13AttributeStatEE15meta_index_callILb0EEEiP9lua_State
openmw:_ZN3sol8u_detail16usertype_storageIN5MWLua13AttributeStatEE15meta_index_callILb1EEEiP9lua_State
openmw:_ZN3sol8u_detail16usertype_storageIN5MWLua5GCellEE10index_callILb0EEEiP9lua_State
openmw:_ZN3sol8u_detail16usertype_storageIN5MWLua5GCellEE10index_callILb1EEEiP9lua_State
openmw:_ZN3sol8u_detail16usertype_storageIN5MWLua5GCellEE11index_call_ILb0ELb0EEEiP9lua_State
openmw:_ZN3sol8u_detail16usertype_storageIN5MWLua5GCellEE11index_call_ILb0ELb1EEEiP9lua_State
openmw:_ZN3sol8u_detail16usertype_storageIN5MWLua5GCellEE11index_call_ILb1ELb0EEEiP9lua_State
openmw:_ZN3sol8u_detail16usertype_storageIN5MWLua5GCellEE11index_call_ILb1ELb1EEEiP9lua_State
openmw:_ZN3sol8u_detail16usertype_storageIN5MWLua5GCellEE15meta_index_callILb0EEEiP9lua_State
openmw:_ZN3sol8u_detail16usertype_storageIN5MWLua5GCellEE15meta_index_callILb1EEEiP9lua_State
openmw:_ZN3sol8u_detail16usertype_storageIN5MWLua5LCellEE10index_callILb0EEEiP9lua_State
openmw:_ZN3sol8u_detail16usertype_storageIN5MWLua5LCellEE10index_callILb1EEEiP9lua_State
openmw:_ZN3sol8u_detail16usertype_storageIN5MWLua5LCellEE11index_call_ILb0ELb0EEEiP9lua_State
openmw:_ZN3sol8u_detail16usertype_storageIN5MWLua5LCellEE11index_call_ILb0ELb1EEEiP9lua_State
openmw:_ZN3sol8u_detail16usertype_storageIN5MWLua5LCellEE11index_call_ILb1ELb0EEEiP9lua_State
openmw:_ZN3sol8u_detail16usertype_storageIN5MWLua5LCellEE11index_call_ILb1ELb1EEEiP9lua_State
openmw:_ZN3sol8u_detail16usertype_storageIN5MWLua5LCellEE15meta_index_callILb0EEEiP9lua_State
openmw:_ZN3sol8u_detail16usertype_storageIN5MWLua5LCellEE15meta_index_callILb1EEEiP9lua_State
openmw:_ZN3sol8u_detail16usertype_storageIN5MWLua6ShaderEE10index_callILb0EEEiP9lua_State
openmw:_ZN3sol8u_detail16usertype_storageIN5MWLua6ShaderEE10index_callILb1EEEiP9lua_State
openmw:_ZN3sol8u_detail16usertype_storageIN5MWLua6ShaderEE11index_call_ILb0ELb0EEEiP9lua_State
openmw:_ZN3sol8u_detail16usertype_storageIN5MWLua6ShaderEE11index_call_ILb0ELb1EEEiP9lua_State
openmw:_ZN3sol8u_detail16usertype_storageIN5MWLua6ShaderEE11index_call_ILb1ELb0EEEiP9lua_State
openmw:_ZN3sol8u_detail16usertype_storageIN5MWLua6ShaderEE11index_call_ILb1ELb1EEEiP9lua_State
openmw:_ZN3sol8u_detail16usertype_storageIN5MWLua6ShaderEE15meta_index_callILb0EEEiP9lua_State
openmw:_ZN3sol8u_detail16usertype_storageIN5MWLua6ShaderEE15meta_index_callILb1EEEiP9lua_State
openmw:_ZN3sol8u_detail16usertype_storageIN5MWLua7GObjectEE10index_callILb0EEEiP9lua_State
openmw:_ZN3sol8u_detail16usertype_storageIN5MWLua7GObjectEE10index_callILb1EEEiP9lua_State
openmw:_ZN3sol8u_detail16usertype_storageIN5MWLua7GObjectEE11index_call_ILb0ELb0EEEiP9lua_State
openmw:_ZN3sol8u_detail16usertype_storageIN5MWLua7GObjectEE11index_call_ILb0ELb1EEEiP9lua_State
openmw:_ZN3sol8u_detail16usertype_storageIN5MWLua7GObjectEE11index_call_ILb1ELb0EEEiP9lua_State
openmw:_ZN3sol8u_detail16usertype_storageIN5MWLua7GObjectEE11index_call_ILb1ELb1EEEiP9lua_State
openmw:_ZN3sol8u_detail16usertype_storageIN5MWLua7GObjectEE15meta_index_callILb0EEEiP9lua_State
openmw:_ZN3sol8u_detail16usertype_storageIN5MWLua7GObjectEE15meta_index_callILb1EEEiP9lua_State
openmw:_ZN3sol8u_detail16usertype_storageIN5MWLua7GObjectEE21index_call_with_basesILb0EJNS2_6ObjectEEEEiP9lua_State
openmw:_ZN3sol8u_detail16usertype_storageIN5MWLua7GObjectEE21index_call_with_basesILb1EJNS2_6ObjectEEEEiP9lua_State
openmw:_ZN3sol8u_detail16usertype_storageIN5MWLua7GObjectEE22index_call_with_bases_ILb0ELb0EJNS2_6ObjectEEEEiP9lua_State
openmw:_ZN3sol8u_detail16usertype_storageIN5MWLua7GObjectEE22index_call_with_bases_ILb0ELb1EJNS2_6ObjectEEEEiP9lua_State
openmw:_ZN3sol8u_detail16usertype_storageIN5MWLua7GObjectEE22index_call_with_bases_ILb1ELb0EJNS2_6ObjectEEEEiP9lua_State
openmw:_ZN3sol8u_detail16usertype_storageIN5MWLua7GObjectEE22index_call_with_bases_ILb1ELb1EJNS2_6ObjectEEEEiP9lua_State
openmw:_ZN3sol8u_detail16usertype_storageIN5MWLua7GObjectEE26meta_index_call_with_basesILb0EJNS2_6ObjectEEEEiP9lua_State
openmw:_ZN3sol8u_detail16usertype_storageIN5MWLua7GObjectEE26meta_index_call_with_basesILb1EJNS2_6ObjectEEEEiP9lua_State
openmw:_ZN3sol8u_detail16usertype_storageIN5MWLua7LObjectEE10index_callILb0EEEiP9lua_State
openmw:_ZN3sol8u_detail16usertype_storageIN5MWLua7LObjectEE10index_callILb1EEEiP9lua_State
openmw:_ZN3sol8u_detail16usertype_storageIN5MWLua7LObjectEE11index_call_ILb0ELb0EEEiP9lua_State
openmw:_ZN3sol8u_detail16usertype_storageIN5MWLua7LObjectEE11index_call_ILb0ELb1EEEiP9lua_State
openmw:_ZN3sol8u_detail16usertype_storageIN5MWLua7LObjectEE11index_call_ILb1ELb0EEEiP9lua_State
openmw:_ZN3sol8u_detail16usertype_storageIN5MWLua7LObjectEE11index_call_ILb1ELb1EEEiP9lua_State
openmw:_ZN3sol8u_detail16usertype_storageIN5MWLua7LObjectEE15meta_index_callILb0EEEiP9lua_State
openmw:_ZN3sol8u_detail16usertype_storageIN5MWLua7LObjectEE15meta_index_callILb1EEEiP9lua_State
openmw:_ZN3sol8u_detail16usertype_storageIN5MWLua7LObjectEE21index_call_with_basesILb0EJNS2_6ObjectEEEEiP9lua_State
openmw:_ZN3sol8u_detail16usertype_storageIN5MWLua7LObjectEE21index_call_with_basesILb1EJNS2_6ObjectEEEEiP9lua_State
openmw:_ZN3sol8u_detail16usertype_storageIN5MWLua7LObjectEE22index_call_with_bases_ILb0ELb0EJNS2_6ObjectEEEEiP9lua_State
openmw:_ZN3sol8u_detail16usertype_storageIN5MWLua7LObjectEE22index_call_with_bases_ILb0ELb1EJNS2_6ObjectEEEEiP9lua_State
openmw:_ZN3sol8u_detail16usertype_storageIN5MWLua7LObjectEE22index_call_with_bases_ILb1ELb0EJNS2_6ObjectEEEEiP9lua_State
openmw:_ZN3sol8u_detail16usertype_storageIN5MWLua7LObjectEE22index_call_with_bases_ILb1ELb1EJNS2_6ObjectEEEEiP9lua_State
openmw:_ZN3sol8u_detail16usertype_storageIN5MWLua7LObjectEE26meta_index_call_with_basesILb0EJNS2_6ObjectEEEEiP9lua_State
openmw:_ZN3sol8u_detail16usertype_storageIN5MWLua7LObjectEE26meta_index_call_with_basesILb1EJNS2_6ObjectEEEEiP9lua_State
openmw:_ZN3sol8u_detail16usertype_storageIN5MWLua9InventoryINS2_7GObjectEEEE10index_callILb0EEEiP9lua_State
openmw:_ZN3sol8u_detail16usertype_storageIN5MWLua9InventoryINS2_7GObjectEEEE10index_callILb1EEEiP9lua_State
openmw:_ZN3sol8u_detail16usertype_storageIN5MWLua9InventoryINS2_7GObjectEEEE11index_call_ILb0ELb0EEEiP9lua_State
openmw:_ZN3sol8u_detail16usertype_storageIN5MWLua9InventoryINS2_7GObjectEEEE11index_call_ILb0ELb1EEEiP9lua_State
openmw:_ZN3sol8u_detail16usertype_storageIN5MWLua9InventoryINS2_7GObjectEEEE11index_call_ILb1ELb0EEEiP9lua_State
openmw:_ZN3sol8u_detail16usertype_storageIN5MWLua9InventoryINS2_7GObjectEEEE11index_call_ILb1ELb1EEEiP9lua_State
openmw:_ZN3sol8u_detail16usertype_storageIN5MWLua9InventoryINS2_7GObjectEEEE15meta_index_callILb0EEEiP9lua_State
openmw:_ZN3sol8u_detail16usertype_storageIN5MWLua9InventoryINS2_7GObjectEEEE15meta_index_callILb1EEEiP9lua_State
openmw:_ZN3sol8u_detail16usertype_storageIN5MWLua9InventoryINS2_7LObjectEEEE10index_callILb0EEEiP9lua_State
openmw:_ZN3sol8u_detail16usertype_storageIN5MWLua9InventoryINS2_7LObjectEEEE10index_callILb1EEEiP9lua_State
openmw:_ZN3sol8u_detail16usertype_storageIN5MWLua9InventoryINS2_7LObjectEEEE11index_call_ILb0ELb0EEEiP9lua_State
openmw:_ZN3sol8u_detail16usertype_storageIN5MWLua9InventoryINS2_7LObjectEEEE11index_call_ILb0ELb1EEEiP9lua_State
openmw:_ZN3sol8u_detail16usertype_storageIN5MWLua9InventoryINS2_7LObjectEEEE11index_call_ILb1ELb0EEEiP9lua_State
openmw:_ZN3sol8u_detail16usertype_storageIN5MWLua9InventoryINS2_7LObjectEEEE11index_call_ILb1ELb1EEEiP9lua_State
openmw:_ZN3sol8u_detail16usertype_storageIN5MWLua9InventoryINS2_7LObjectEEEE15meta_index_callILb0EEEiP9lua_State
openmw:_ZN3sol8u_detail16usertype_storageIN5MWLua9InventoryINS2_7LObjectEEEE15meta_index_callILb1EEEiP9lua_State
openmw:_ZN3sol8u_detail16usertype_storageIN5MWLua9LevelStatEE10index_callILb0EEEiP9lua_State
openmw:_ZN3sol8u_detail16usertype_storageIN5MWLua9LevelStatEE10index_callILb1EEEiP9lua_State
openmw:_ZN3sol8u_detail16usertype_storageIN5MWLua9LevelStatEE11index_call_ILb0ELb0EEEiP9lua_State
openmw:_ZN3sol8u_detail16usertype_storageIN5MWLua9LevelStatEE11index_call_ILb0ELb1EEEiP9lua_State
openmw:_ZN3sol8u_detail16usertype_storageIN5MWLua9LevelStatEE11index_call_ILb1ELb0EEEiP9lua_State
openmw:_ZN3sol8u_detail16usertype_storageIN5MWLua9LevelStatEE11index_call_ILb1ELb1EEEiP9lua_State
openmw:_ZN3sol8u_detail16usertype_storageIN5MWLua9LevelStatEE15meta_index_callILb0EEEiP9lua_State
openmw:_ZN3sol8u_detail16usertype_storageIN5MWLua9LevelStatEE15meta_index_callILb1EEEiP9lua_State
openmw:_ZN3sol8u_detail16usertype_storageIN5MWLua9SkillStatEE10index_callILb0EEEiP9lua_State
openmw:_ZN3sol8u_detail16usertype_storageIN5MWLua9SkillStatEE10index_callILb1EEEiP9lua_State
openmw:_ZN3sol8u_detail16usertype_storageIN5MWLua9SkillStatEE11index_call_ILb0ELb0EEEiP9lua_State
openmw:_ZN3sol8u_detail16usertype_storageIN5MWLua9SkillStatEE11index_call_ILb0ELb1EEEiP9lua_State
openmw:_ZN3sol8u_detail16usertype_storageIN5MWLua9SkillStatEE11index_call_ILb1ELb0EEEiP9lua_State
openmw:_ZN3sol8u_detail16usertype_storageIN5MWLua9SkillStatEE11index_call_ILb1ELb1EEEiP9lua_State
openmw:_ZN3sol8u_detail16usertype_storageIN5MWLua9SkillStatEE15meta_index_callILb0EEEiP9lua_State
openmw:_ZN3sol8u_detail16usertype_storageIN5MWLua9SkillStatEE15meta_index_callILb1EEEiP9lua_State
openmw:_ZN3sol8u_detail16usertype_storageIN6MWBase10LuaManager13ActorControlsEE10index_callILb0EEEiP9lua_State
openmw:_ZN3sol8u_detail16usertype_storageIN6MWBase10LuaManager13ActorControlsEE10index_callILb1EEEiP9lua_State
openmw:_ZN3sol8u_detail16usertype_storageIN6MWBase10LuaManager13ActorControlsEE11index_call_ILb0ELb0EEEiP9lua_State
openmw:_ZN3sol8u_detail16usertype_storageIN6MWBase10LuaManager13ActorControlsEE11index_call_ILb0ELb1EEEiP9lua_State
openmw:_ZN3sol8u_detail16usertype_storageIN6MWBase10LuaManager13ActorControlsEE11index_call_ILb1ELb0EEEiP9lua_State
openmw:_ZN3sol8u_detail16usertype_storageIN6MWBase10LuaManager13ActorControlsEE11index_call_ILb1ELb1EEEiP9lua_State
openmw:_ZN3sol8u_detail16usertype_storageIN6MWBase10LuaManager13ActorControlsEE15meta_index_callILb0EEEiP9lua_State
openmw:_ZN3sol8u_detail16usertype_storageIN6MWBase10LuaManager13ActorControlsEE15meta_index_callILb1EEEiP9lua_State
openmw:_ZN3sol8u_detail16usertype_storageIN7LuaUtil10LuaStorage11SectionViewEE10index_callILb0EEEiP9lua_State
openmw:_ZN3sol8u_detail16usertype_storageIN7LuaUtil10LuaStorage11SectionViewEE10index_callILb1EEEiP9lua_State
openmw:_ZN3sol8u_detail16usertype_storageIN7LuaUtil10LuaStorage11SectionViewEE11index_call_ILb0ELb0EEEiP9lua_State
openmw:_ZN3sol8u_detail16usertype_storageIN7LuaUtil10LuaStorage11SectionViewEE11index_call_ILb0ELb1EEEiP9lua_State
openmw:_ZN3sol8u_detail16usertype_storageIN7LuaUtil10LuaStorage11SectionViewEE11index_call_ILb1ELb0EEEiP9lua_State
openmw:_ZN3sol8u_detail16usertype_storageIN7LuaUtil10LuaStorage11SectionViewEE11index_call_ILb1ELb1EEEiP9lua_State
openmw:_ZN3sol8u_detail16usertype_storageIN7LuaUtil10LuaStorage11SectionViewEE15meta_index_callILb0EEEiP9lua_State
openmw:_ZN3sol8u_detail16usertype_storageIN7LuaUtil10LuaStorage11SectionViewEE15meta_index_callILb1EEEiP9lua_State
openmw:_ZN3sol8u_detail16usertype_storageIN7LuaUtil10TransformMEE10index_callILb0EEEiP9lua_State
openmw:_ZN3sol8u_detail16usertype_storageIN7LuaUtil10TransformMEE10index_callILb1EEEiP9lua_State
openmw:_ZN3sol8u_detail16usertype_storageIN7LuaUtil10TransformMEE11index_call_ILb0ELb0EEEiP9lua_State
openmw:_ZN3sol8u_detail16usertype_storageIN7LuaUtil10TransformMEE11index_call_ILb0ELb1EEEiP9lua_State
openmw:_ZN3sol8u_detail16usertype_storageIN7LuaUtil10TransformMEE11index_call_ILb1ELb0EEEiP9lua_State
openmw:_ZN3sol8u_detail16usertype_storageIN7LuaUtil10TransformMEE11index_call_ILb1ELb1EEEiP9lua_State
openmw:_ZN3sol8u_detail16usertype_storageIN7LuaUtil10TransformMEE15meta_index_callILb0EEEiP9lua_State
openmw:_ZN3sol8u_detail16usertype_storageIN7LuaUtil10TransformMEE15meta_index_callILb1EEEiP9lua_State
openmw:_ZN3sol8u_detail16usertype_storageIN7LuaUtil10TransformQEE10index_callILb0EEEiP9lua_State
openmw:_ZN3sol8u_detail16usertype_storageIN7LuaUtil10TransformQEE10index_callILb1EEEiP9lua_State
openmw:_ZN3sol8u_detail16usertype_storageIN7LuaUtil10TransformQEE11index_call_ILb0ELb0EEEiP9lua_State
openmw:_ZN3sol8u_detail16usertype_storageIN7LuaUtil10TransformQEE11index_call_ILb0ELb1EEEiP9lua_State
openmw:_ZN3sol8u_detail16usertype_storageIN7LuaUtil10TransformQEE11index_call_ILb1ELb0EEEiP9lua_State
openmw:_ZN3sol8u_detail16usertype_storageIN7LuaUtil10TransformQEE11index_call_ILb1ELb1EEEiP9lua_State
openmw:_ZN3sol8u_detail16usertype_storageIN7LuaUtil10TransformQEE15meta_index_callILb0EEEiP9lua_State
openmw:_ZN3sol8u_detail16usertype_storageIN7LuaUtil10TransformQEE15meta_index_callILb1EEEiP9lua_State
openmw:_ZN3sol8u_detail16usertype_storageIN7LuaUtil11L10nManager7ContextEE10index_callILb0EEEiP9lua_State
openmw:_ZN3sol8u_detail16usertype_storageIN7LuaUtil11L10nManager7ContextEE10index_callILb1EEEiP9lua_State
openmw:_ZN3sol8u_detail16usertype_storageIN7LuaUtil11L10nManager7ContextEE11index_call_ILb0ELb0EEEiP9lua_State
openmw:_ZN3sol8u_detail16usertype_storageIN7LuaUtil11L10nManager7ContextEE11index_call_ILb0ELb1EEEiP9lua_State
openmw:_ZN3sol8u_detail16usertype_storageIN7LuaUtil11L10nManager7ContextEE11index_call_ILb1ELb0EEEiP9lua_State
openmw:_ZN3sol8u_detail16usertype_storageIN7LuaUtil11L10nManager7ContextEE11index_call_ILb1ELb1EEEiP9lua_State
openmw:_ZN3sol8u_detail16usertype_storageIN7LuaUtil11L10nManager7ContextEE15meta_index_callILb0EEEiP9lua_State
openmw:_ZN3sol8u_detail16usertype_storageIN7LuaUtil11L10nManager7ContextEE15meta_index_callILb1EEEiP9lua_State
openmw:_ZN3sol8u_detail16usertype_storageIN7LuaUtil14AsyncPackageIdEE10index_callILb0EEEiP9lua_State
openmw:_ZN3sol8u_detail16usertype_storageIN7LuaUtil14AsyncPackageIdEE10index_callILb1EEEiP9lua_State
openmw:_ZN3sol8u_detail16usertype_storageIN7LuaUtil14AsyncPackageIdEE11index_call_ILb0ELb0EEEiP9lua_State
openmw:_ZN3sol8u_detail16usertype_storageIN7LuaUtil14AsyncPackageIdEE11index_call_ILb0ELb1EEEiP9lua_State
openmw:_ZN3sol8u_detail16usertype_storageIN7LuaUtil14AsyncPackageIdEE11index_call_ILb1ELb0EEEiP9lua_State
openmw:_ZN3sol8u_detail16usertype_storageIN7LuaUtil14AsyncPackageIdEE11index_call_ILb1ELb1EEEiP9lua_State
openmw:_ZN3sol8u_detail16usertype_storageIN7LuaUtil14AsyncPackageIdEE15meta_index_callILb0EEEiP9lua_State
openmw:_ZN3sol8u_detail16usertype_storageIN7LuaUtil14AsyncPackageIdEE15meta_index_callILb1EEEiP9lua_State
openmw:_ZN3sol8u_detail16usertype_storageIN7SDLUtil10TouchEventEE10index_callILb0EEEiP9lua_State
openmw:_ZN3sol8u_detail16usertype_storageIN7SDLUtil10TouchEventEE10index_callILb1EEEiP9lua_State
openmw:_ZN3sol8u_detail16usertype_storageIN7SDLUtil10TouchEventEE11index_call_ILb0ELb0EEEiP9lua_State
openmw:_ZN3sol8u_detail16usertype_storageIN7SDLUtil10TouchEventEE11index_call_ILb0ELb1EEEiP9lua_State
openmw:_ZN3sol8u_detail16usertype_storageIN7SDLUtil10TouchEventEE11index_call_ILb1ELb0EEEiP9lua_State
openmw:_ZN3sol8u_detail16usertype_storageIN7SDLUtil10TouchEventEE11index_call_ILb1ELb1EEEiP9lua_State
openmw:_ZN3sol8u_detail16usertype_storageIN7SDLUtil10TouchEventEE15meta_index_callILb0EEEiP9lua_State
openmw:_ZN3sol8u_detail16usertype_storageIN7SDLUtil10TouchEventEE15meta_index_callILb1EEEiP9lua_State
openmw:_ZN3sol8u_detail16usertype_storageIN9MWPhysics16RayCastingResultEE10index_callILb0EEEiP9lua_State
openmw:_ZN3sol8u_detail16usertype_storageIN9MWPhysics16RayCastingResultEE10index_callILb1EEEiP9lua_State
openmw:_ZN3sol8u_detail16usertype_storageIN9MWPhysics16RayCastingResultEE11index_call_ILb0ELb0EEEiP9lua_State
openmw:_ZN3sol8u_detail16usertype_storageIN9MWPhysics16RayCastingResultEE11index_call_ILb0ELb1EEEiP9lua_State
openmw:_ZN3sol8u_detail16usertype_storageIN9MWPhysics16RayCastingResultEE11index_call_ILb1ELb0EEEiP9lua_State
openmw:_ZN3sol8u_detail16usertype_storageIN9MWPhysics16RayCastingResultEE11index_call_ILb1ELb1EEEiP9lua_State
openmw:_ZN3sol8u_detail16usertype_storageIN9MWPhysics16RayCastingResultEE15meta_index_callILb0EEEiP9lua_State
openmw:_ZN3sol8u_detail16usertype_storageIN9MWPhysics16RayCastingResultEE15meta_index_callILb1EEEiP9lua_State
openmw:_ZN3sol8u_detail16usertype_storageIvE10index_callILb0EEEiP9lua_State
openmw:_ZN3sol8u_detail16usertype_storageIvE10index_callILb1EEEiP9lua_State
openmw:_ZN3sol8u_detail16usertype_storageIvE11index_call_ILb0ELb0EEEiP9lua_State
openmw:_ZN3sol8u_detail16usertype_storageIvE11index_call_ILb0ELb1EEEiP9lua_State
openmw:_ZN3sol8u_detail16usertype_storageIvE11index_call_ILb1ELb0EEEiP9lua_State
openmw:_ZN3sol8u_detail16usertype_storageIvE11index_call_ILb1ELb1EEEiP9lua_State
openmw:_ZN3sol8u_detail16usertype_storageIvE15meta_index_callILb0EEEiP9lua_State
openmw:_ZN3sol8u_detail16usertype_storageIvE15meta_index_callILb1EEEiP9lua_State
openmw:_ZN3sol8u_detail17index_target_failEP9lua_StatePv
openmw:_ZN3sol8u_detail21new_index_target_failEP9lua_StatePv
openmw:_ZN3sol8u_detail21usertype_storage_base15change_indexingEP9lua_StateNS0_17submetatable_typeEPvRNS_25stateless_stack_referenceEPFiS3_ES9_S9_S9_
openmw:_ZN3sol8u_detail21usertype_storage_base20new_index_target_setEP9lua_StatePv
openmw:_ZN3sol8u_detail24destroy_usertype_storageI10SDL_KeysymEEiP9lua_State
openmw:_ZN3sol8u_detail24destroy_usertype_storageIN11MWMechanics9AiPackageEEEiP9lua_State
openmw:_ZN3sol8u_detail24destroy_usertype_storageIN3ESM10IngredientEEEiP9lua_State
openmw:_ZN3sol8u_detail24destroy_usertype_storageIN3ESM13MiscellaneousEEEiP9lua_State
openmw:_ZN3sol8u_detail24destroy_usertype_storageIN3ESM3NPCEEEiP9lua_State
openmw:_ZN3sol8u_detail24destroy_usertype_storageIN3ESM4BookEEEiP9lua_State
openmw:_ZN3sol8u_detail24destroy_usertype_storageIN3ESM4DoorEEEiP9lua_State
openmw:_ZN3sol8u_detail24destroy_usertype_storageIN3ESM5ProbeEEEiP9lua_State
openmw:_ZN3sol8u_detail24destroy_usertype_storageIN3ESM6PotionEEEiP9lua_State
openmw:_ZN3sol8u_detail24destroy_usertype_storageIN3ESM6RepairEEEiP9lua_State
openmw:_ZN3sol8u_detail24destroy_usertype_storageIN3ESM6WeaponEEEiP9lua_State
openmw:_ZN3sol8u_detail24destroy_usertype_storageIN3ESM8CreatureEEEiP9lua_State
openmw:_ZN3sol8u_detail24destroy_usertype_storageIN3ESM8LockpickEEEiP9lua_State
openmw:_ZN3sol8u_detail24destroy_usertype_storageIN3ESM9ActivatorEEEiP9lua_State
openmw:_ZN3sol8u_detail24destroy_usertype_storageIN3ESM9ApparatusEEEiP9lua_State
openmw:_ZN3sol8u_detail24destroy_usertype_storageIN3ESM9ContainerEEEiP9lua_State
openmw:_ZN3sol8u_detail24destroy_usertype_storageIN3osg5Vec2fEEEiP9lua_State
openmw:_ZN3sol8u_detail24destroy_usertype_storageIN3osg5Vec3fEEEiP9lua_State
openmw:_ZN3sol8u_detail24destroy_usertype_storageIN3osg5Vec4fEEEiP9lua_State
openmw:_ZN3sol8u_detail24destroy_usertype_storageIN4Misc5ColorEEEiP9lua_State
openmw:_ZN3sol8u_detail24destroy_usertype_storageIN5LuaUi5LayerEEEiP9lua_State
openmw:_ZN3sol8u_detail24destroy_usertype_storageIN5LuaUi7ElementEEEiP9lua_State
openmw:_ZN3sol8u_detail24destroy_usertype_storageIN5MWLua10ObjectListINS2_7GObjectEEEEEiP9lua_State
openmw:_ZN3sol8u_detail24destroy_usertype_storageIN5MWLua10ObjectListINS2_7LObjectEEEEEiP9lua_State
openmw:_ZN3sol8u_detail24destroy_usertype_storageIN5MWLua11DynamicStatEEEiP9lua_State
openmw:_ZN3sol8u_detail24destroy_usertype_storageIN5MWLua12LocalScripts10SelfObjectEEEiP9lua_State
openmw:_ZN3sol8u_detail24destroy_usertype_storageIN5MWLua13AttributeStatEEEiP9lua_State
openmw:_ZN3sol8u_detail24destroy_usertype_storageIN5MWLua5GCellEEEiP9lua_State
openmw:_ZN3sol8u_detail24destroy_usertype_storageIN5MWLua5LCellEEEiP9lua_State
openmw:_ZN3sol8u_detail24destroy_usertype_storageIN5MWLua6ShaderEEEiP9lua_State
openmw:_ZN3sol8u_detail24destroy_usertype_storageIN5MWLua7GObjectEEEiP9lua_State
openmw:_ZN3sol8u_detail24destroy_usertype_storageIN5MWLua7LObjectEEEiP9lua_State
openmw:_ZN3sol8u_detail24destroy_usertype_storageIN5MWLua9InventoryINS2_7GObjectEEEEEiP9lua_State
openmw:_ZN3sol8u_detail24destroy_usertype_storageIN5MWLua9InventoryINS2_7LObjectEEEEEiP9lua_State
openmw:_ZN3sol8u_detail24destroy_usertype_storageIN5MWLua9LevelStatEEEiP9lua_State
openmw:_ZN3sol8u_detail24destroy_usertype_storageIN5MWLua9SkillStatEEEiP9lua_State
openmw:_ZN3sol8u_detail24destroy_usertype_storageIN6MWBase10LuaManager13ActorControlsEEEiP9lua_State
openmw:_ZN3sol8u_detail24destroy_usertype_storageIN7LuaUtil10LuaStorage11SectionViewEEEiP9lua_State
openmw:_ZN3sol8u_detail24destroy_usertype_storageIN7LuaUtil10TransformMEEEiP9lua_State
openmw:_ZN3sol8u_detail24destroy_usertype_storageIN7LuaUtil10TransformQEEEiP9lua_State
openmw:_ZN3sol8u_detail24destroy_usertype_storageIN7LuaUtil11L10nManager7ContextEEEiP9lua_State
openmw:_ZN3sol8u_detail24destroy_usertype_storageIN7LuaUtil14AsyncPackageIdEEEiP9lua_State
openmw:_ZN3sol8u_detail24destroy_usertype_storageIN7SDLUtil10TouchEventEEEiP9lua_State
openmw:_ZN3sol8u_detail24destroy_usertype_storageIN9MWPhysics16RayCastingResultEEEiP9lua_State
openmw:_ZN3sol8u_detail7bindingINS_13meta_functionEMN5MWLua6ObjectEKFNSt7__cxx1112basic_stringIcSt11char_traitsIcESaIcEEEvENS3_7GObjectEE10call_with_ILb0ELb0EEEiP9lua_StatePv
openmw:_ZN3sol8u_detail7bindingINS_13meta_functionEMN5MWLua6ObjectEKFNSt7__cxx1112basic_stringIcSt11char_traitsIcESaIcEEEvENS3_7GObjectEE10call_with_ILb1ELb0EEEiP9lua_StatePv
openmw:_ZN3sol8u_detail7bindingINS_13meta_functionEMN5MWLua6ObjectEKFNSt7__cxx1112basic_stringIcSt11char_traitsIcESaIcEEEvENS3_7GObjectEE16index_call_with_ILb0ELb0EEEiP9lua_StatePv
openmw:_ZN3sol8u_detail7bindingINS_13meta_functionEMN5MWLua6ObjectEKFNSt7__cxx1112basic_stringIcSt11char_traitsIcESaIcEEEvENS3_7GObjectEE16index_call_with_ILb1ELb0EEEiP9lua_StatePv
openmw:_ZN3sol8u_detail7bindingINS_13meta_functionEMN5MWLua6ObjectEKFNSt7__cxx1112basic_stringIcSt11char_traitsIcESaIcEEEvENS3_7GObjectEE4callILb0ELb0EEEiP9lua_State
openmw:_ZN3sol8u_detail7bindingINS_13meta_functionEMN5MWLua6ObjectEKFNSt7__cxx1112basic_stringIcSt11char_traitsIcESaIcEEEvENS3_7GObjectEE4callILb1ELb0EEEiP9lua_State
openmw:_ZN3sol8u_detail7bindingINS_13meta_functionEMN5MWLua6ObjectEKFNSt7__cxx1112basic_stringIcSt11char_traitsIcESaIcEEEvENS3_7GObjectEE5call_ILb0ELb0EEEiP9lua_State
openmw:_ZN3sol8u_detail7bindingINS_13meta_functionEMN5MWLua6ObjectEKFNSt7__cxx1112basic_stringIcSt11char_traitsIcESaIcEEEvENS3_7GObjectEE5call_ILb1ELb0EEEiP9lua_State
openmw:_ZN3sol8u_detail7bindingINS_13meta_functionEMN5MWLua6ObjectEKFNSt7__cxx1112basic_stringIcSt11char_traitsIcESaIcEEEvENS3_7LObjectEE10call_with_ILb0ELb0EEEiP9lua_StatePv
openmw:_ZN3sol8u_detail7bindingINS_13meta_functionEMN5MWLua6ObjectEKFNSt7__cxx1112basic_stringIcSt11char_traitsIcESaIcEEEvENS3_7LObjectEE10call_with_ILb1ELb0EEEiP9lua_StatePv
openmw:_ZN3sol8u_detail7bindingINS_13meta_functionEMN5MWLua6ObjectEKFNSt7__cxx1112basic_stringIcSt11char_traitsIcESaIcEEEvENS3_7LObjectEE16index_call_with_ILb0ELb0EEEiP9lua_StatePv
openmw:_ZN3sol8u_detail7bindingINS_13meta_functionEMN5MWLua6ObjectEKFNSt7__cxx1112basic_stringIcSt11char_traitsIcESaIcEEEvENS3_7LObjectEE16index_call_with_ILb1ELb0EEEiP9lua_StatePv
openmw:_ZN3sol8u_detail7bindingINS_13meta_functionEMN5MWLua6ObjectEKFNSt7__cxx1112basic_stringIcSt11char_traitsIcESaIcEEEvENS3_7LObjectEE4callILb0ELb0EEEiP9lua_State
openmw:_ZN3sol8u_detail7bindingINS_13meta_functionEMN5MWLua6ObjectEKFNSt7__cxx1112basic_stringIcSt11char_traitsIcESaIcEEEvENS3_7LObjectEE4callILb1ELb0EEEiP9lua_State
openmw:_ZN3sol8u_detail7bindingINS_13meta_functionEMN5MWLua6ObjectEKFNSt7__cxx1112basic_stringIcSt11char_traitsIcESaIcEEEvENS3_7LObjectEE5call_ILb0ELb0EEEiP9lua_State
openmw:_ZN3sol8u_detail7bindingINS_13meta_functionEMN5MWLua6ObjectEKFNSt7__cxx1112basic_stringIcSt11char_traitsIcESaIcEEEvENS3_7LObjectEE5call_ILb1ELb0EEEiP9lua_State
openmw:_ZN3sol8u_detail7bindingINS_13meta_functionEMN7LuaUtil11L10nManager7ContextEFNSt7__cxx1112basic_stringIcSt11char_traitsIcESaIcEEESt17basic_string_viewIcS9_ERKNS_12basic_objectINS_15basic_referenceILb0EEEEEES5_E10call_with_ILb0ELb0EEEiP9lua_StatePv
openmw:_ZN3sol8u_detail7bindingINS_13meta_functionEMN7LuaUtil11L10nManager7ContextEFNSt7__cxx1112basic_stringIcSt11char_traitsIcESaIcEEESt17basic_string_viewIcS9_ERKNS_12basic_objectINS_15basic_referenceILb0EEEEEES5_E10call_with_ILb1ELb0EEEiP9lua_StatePv
openmw:_ZN3sol8u_detail7bindingINS_13meta_functionEMN7LuaUtil11L10nManager7ContextEFNSt7__cxx1112basic_stringIcSt11char_traitsIcESaIcEEESt17basic_string_viewIcS9_ERKNS_12basic_objectINS_15basic_referenceILb0EEEEEES5_E16index_call_with_ILb0ELb0EEEiP9lua_StatePv
openmw:_ZN3sol8u_detail7bindingINS_13meta_functionEMN7LuaUtil11L10nManager7ContextEFNSt7__cxx1112basic_stringIcSt11char_traitsIcESaIcEEESt17basic_string_viewIcS9_ERKNS_12basic_objectINS_15basic_referenceILb0EEEEEES5_E16index_call_with_ILb1ELb0EEEiP9lua_StatePv
openmw:_ZN3sol8u_detail7bindingINS_13meta_functionEMN7LuaUtil11L10nManager7ContextEFNSt7__cxx1112basic_stringIcSt11char_traitsIcESaIcEEESt17basic_string_viewIcS9_ERKNS_12basic_objectINS_15basic_referenceILb0EEEEEES5_E4callILb0ELb0EEEiP9lua_State
openmw:_ZN3sol8u_detail7bindingINS_13meta_functionEMN7LuaUtil11L10nManager7ContextEFNSt7__cxx1112basic_stringIcSt11char_traitsIcESaIcEEESt17basic_string_viewIcS9_ERKNS_12basic_objectINS_15basic_referenceILb0EEEEEES5_E4callILb1ELb0EEEiP9lua_State
openmw:_ZN3sol8u_detail7bindingINS_13meta_functionEMN7LuaUtil11L10nManager7ContextEFNSt7__cxx1112basic_stringIcSt11char_traitsIcESaIcEEESt17basic_string_viewIcS9_ERKNS_12basic_objectINS_15basic_referenceILb0EEEEEES5_E5call_ILb0ELb0EEEiP9lua_State
openmw:_ZN3sol8u_detail7bindingINS_13meta_functionEMN7LuaUtil11L10nManager7ContextEFNSt7__cxx1112basic_stringIcSt11char_traitsIcESaIcEEESt17basic_string_viewIcS9_ERKNS_12basic_objectINS_15basic_referenceILb0EEEEEES5_E5call_ILb1ELb0EEEiP9lua_State
openmw:_ZN3sol8u_detail7bindingINS_13meta_functionENS_14basic_functionINS_15basic_referenceILb0EEELb0EEEN5MWLua10ObjectListINS7_7GObjectEEEE10call_with_ILb0ELb1EEEiP9lua_StatePv
openmw:_ZN3sol8u_detail7bindingINS_13meta_functionENS_14basic_functionINS_15basic_referenceILb0EEELb0EEEN5MWLua10ObjectListINS7_7GObjectEEEE10call_with_ILb1ELb1EEEiP9lua_StatePv
openmw:_ZN3sol8u_detail7bindingINS_13meta_functionENS_14basic_functionINS_15basic_referenceILb0EEELb0EEEN5MWLua10ObjectListINS7_7GObjectEEEE16index_call_with_ILb0ELb1EEEiP9lua_StatePv
openmw:_ZN3sol8u_detail7bindingINS_13meta_functionENS_14basic_functionINS_15basic_referenceILb0EEELb0EEEN5MWLua10ObjectListINS7_7GObjectEEEE16index_call_with_ILb1ELb1EEEiP9lua_StatePv
openmw:_ZN3sol8u_detail7bindingINS_13meta_functionENS_14basic_functionINS_15basic_referenceILb0EEELb0EEEN5MWLua10ObjectListINS7_7LObjectEEEE10call_with_ILb0ELb1EEEiP9lua_StatePv
openmw:_ZN3sol8u_detail7bindingINS_13meta_functionENS_14basic_functionINS_15basic_referenceILb0EEELb0EEEN5MWLua10ObjectListINS7_7LObjectEEEE10call_with_ILb1ELb1EEEiP9lua_StatePv
openmw:_ZN3sol8u_detail7bindingINS_13meta_functionENS_14basic_functionINS_15basic_referenceILb0EEELb0EEEN5MWLua10ObjectListINS7_7LObjectEEEE16index_call_with_ILb0ELb1EEEiP9lua_StatePv
openmw:_ZN3sol8u_detail7bindingINS_13meta_functionENS_14basic_functionINS_15basic_referenceILb0EEELb0EEEN5MWLua10ObjectListINS7_7LObjectEEEE16index_call_with_ILb1ELb1EEEiP9lua_StatePv
openmw:_ZN3sol8u_detail7bindingINS_13meta_functionENS_16constructor_listIJF10SDL_KeysymvEEEES4_E10call_with_ILb0ELb0EEEiP9lua_StatePv
openmw:_ZN3sol8u_detail7bindingINS_13meta_functionENS_16constructor_listIJF10SDL_KeysymvEEEES4_E10call_with_ILb1ELb0EEEiP9lua_StatePv
openmw:_ZN3sol8u_detail7bindingINS_13meta_functionENS_16constructor_listIJF10SDL_KeysymvEEEES4_E16index_call_with_ILb0ELb0EEEiP9lua_StatePv
openmw:_ZN3sol8u_detail7bindingINS_13meta_functionENS_16constructor_listIJF10SDL_KeysymvEEEES4_E16index_call_with_ILb1ELb0EEEiP9lua_StatePv
openmw:_ZN3sol8u_detail7bindingINS_13meta_functionENS_16constructor_listIJF10SDL_KeysymvEEEES4_E4callILb0ELb0EEEiP9lua_State
openmw:_ZN3sol8u_detail7bindingINS_13meta_functionENS_16constructor_listIJF10SDL_KeysymvEEEES4_E4callILb1ELb0EEEiP9lua_State
openmw:_ZN3sol8u_detail7bindingINS_13meta_functionENS_16constructor_listIJF10SDL_KeysymvEEEES4_E5call_ILb0ELb0EEEiP9lua_State
openmw:_ZN3sol8u_detail7bindingINS_13meta_functionENS_16constructor_listIJF10SDL_KeysymvEEEES4_E5call_ILb1ELb0EEEiP9lua_State
openmw:_ZN3sol8u_detail7bindingINS_13meta_functionENS_16constructor_listIJFN3ESM10IngredientEvEEEES5_E10call_with_ILb0ELb0EEEiP9lua_StatePv
openmw:_ZN3sol8u_detail7bindingINS_13meta_functionENS_16constructor_listIJFN3ESM10IngredientEvEEEES5_E10call_with_ILb1ELb0EEEiP9lua_StatePv
openmw:_ZN3sol8u_detail7bindingINS_13meta_functionENS_16constructor_listIJFN3ESM10IngredientEvEEEES5_E16index_call_with_ILb0ELb0EEEiP9lua_StatePv
openmw:_ZN3sol8u_detail7bindingINS_13meta_functionENS_16constructor_listIJFN3ESM10IngredientEvEEEES5_E16index_call_with_ILb1ELb0EEEiP9lua_StatePv
openmw:_ZN3sol8u_detail7bindingINS_13meta_functionENS_16constructor_listIJFN3ESM10IngredientEvEEEES5_E4callILb0ELb0EEEiP9lua_State
openmw:_ZN3sol8u_detail7bindingINS_13meta_functionENS_16constructor_listIJFN3ESM10IngredientEvEEEES5_E4callILb1ELb0EEEiP9lua_State
openmw:_ZN3sol8u_detail7bindingINS_13meta_functionENS_16constructor_listIJFN3ESM10IngredientEvEEEES5_E5call_ILb0ELb0EEEiP9lua_State
openmw:_ZN3sol8u_detail7bindingINS_13meta_functionENS_16constructor_listIJFN3ESM10IngredientEvEEEES5_E5call_ILb1ELb0EEEiP9lua_State
openmw:_ZN3sol8u_detail7bindingINS_13meta_functionENS_16constructor_listIJFN3ESM13MiscellaneousEvEEEES5_E10call_with_ILb0ELb0EEEiP9lua_StatePv
openmw:_ZN3sol8u_detail7bindingINS_13meta_functionENS_16constructor_listIJFN3ESM13MiscellaneousEvEEEES5_E10call_with_ILb1ELb0EEEiP9lua_StatePv
openmw:_ZN3sol8u_detail7bindingINS_13meta_functionENS_16constructor_listIJFN3ESM13MiscellaneousEvEEEES5_E16index_call_with_ILb0ELb0EEEiP9lua_StatePv
openmw:_ZN3sol8u_detail7bindingINS_13meta_functionENS_16constructor_listIJFN3ESM13MiscellaneousEvEEEES5_E16index_call_with_ILb1ELb0EEEiP9lua_StatePv
openmw:_ZN3sol8u_detail7bindingINS_13meta_functionENS_16constructor_listIJFN3ESM13MiscellaneousEvEEEES5_E4callILb0ELb0EEEiP9lua_State
openmw:_ZN3sol8u_detail7bindingINS_13meta_functionENS_16constructor_listIJFN3ESM13MiscellaneousEvEEEES5_E4callILb1ELb0EEEiP9lua_State
openmw:_ZN3sol8u_detail7bindingINS_13meta_functionENS_16constructor_listIJFN3ESM13MiscellaneousEvEEEES5_E5call_ILb0ELb0EEEiP9lua_State
openmw:_ZN3sol8u_detail7bindingINS_13meta_functionENS_16constructor_listIJFN3ESM13MiscellaneousEvEEEES5_E5call_ILb1ELb0EEEiP9lua_State
openmw:_ZN3sol8u_detail7bindingINS_13meta_functionENS_16constructor_listIJFN3ESM3NPCEvEEEES5_E10call_with_ILb0ELb0EEEiP9lua_StatePv
openmw:_ZN3sol8u_detail7bindingINS_13meta_functionENS_16constructor_listIJFN3ESM3NPCEvEEEES5_E10call_with_ILb1ELb0EEEiP9lua_StatePv
openmw:_ZN3sol8u_detail7bindingINS_13meta_functionENS_16constructor_listIJFN3ESM3NPCEvEEEES5_E16index_call_with_ILb0ELb0EEEiP9lua_StatePv
openmw:_ZN3sol8u_detail7bindingINS_13meta_functionENS_16constructor_listIJFN3ESM3NPCEvEEEES5_E16index_call_with_ILb1ELb0EEEiP9lua_StatePv
openmw:_ZN3sol8u_detail7bindingINS_13meta_functionENS_16constructor_listIJFN3ESM3NPCEvEEEES5_E4callILb0ELb0EEEiP9lua_State
openmw:_ZN3sol8u_detail7bindingINS_13meta_functionENS_16constructor_listIJFN3ESM3NPCEvEEEES5_E4callILb1ELb0EEEiP9lua_State
openmw:_ZN3sol8u_detail7bindingINS_13meta_functionENS_16constructor_listIJFN3ESM3NPCEvEEEES5_E5call_ILb0ELb0EEEiP9lua_State
openmw:_ZN3sol8u_detail7bindingINS_13meta_functionENS_16constructor_listIJFN3ESM3NPCEvEEEES5_E5call_ILb1ELb0EEEiP9lua_State
openmw:_ZN3sol8u_detail7bindingINS_13meta_functionENS_16constructor_listIJFN3ESM4BookEvEEEES5_E10call_with_ILb0ELb0EEEiP9lua_StatePv
openmw:_ZN3sol8u_detail7bindingINS_13meta_functionENS_16constructor_listIJFN3ESM4BookEvEEEES5_E10call_with_ILb1ELb0EEEiP9lua_StatePv
openmw:_ZN3sol8u_detail7bindingINS_13meta_functionENS_16constructor_listIJFN3ESM4BookEvEEEES5_E16index_call_with_ILb0ELb0EEEiP9lua_StatePv
openmw:_ZN3sol8u_detail7bindingINS_13meta_functionENS_16constructor_listIJFN3ESM4BookEvEEEES5_E16index_call_with_ILb1ELb0EEEiP9lua_StatePv
openmw:_ZN3sol8u_detail7bindingINS_13meta_functionENS_16constructor_listIJFN3ESM4BookEvEEEES5_E4callILb0ELb0EEEiP9lua_State
openmw:_ZN3sol8u_detail7bindingINS_13meta_functionENS_16constructor_listIJFN3ESM4BookEvEEEES5_E4callILb1ELb0EEEiP9lua_State
openmw:_ZN3sol8u_detail7bindingINS_13meta_functionENS_16constructor_listIJFN3ESM4BookEvEEEES5_E5call_ILb0ELb0EEEiP9lua_State
openmw:_ZN3sol8u_detail7bindingINS_13meta_functionENS_16constructor_listIJFN3ESM4BookEvEEEES5_E5call_ILb1ELb0EEEiP9lua_State
openmw:_ZN3sol8u_detail7bindingINS_13meta_functionENS_16constructor_listIJFN3ESM4DoorEvEEEES5_E10call_with_ILb0ELb0EEEiP9lua_StatePv
openmw:_ZN3sol8u_detail7bindingINS_13meta_functionENS_16constructor_listIJFN3ESM4DoorEvEEEES5_E10call_with_ILb1ELb0EEEiP9lua_StatePv
openmw:_ZN3sol8u_detail7bindingINS_13meta_functionENS_16constructor_listIJFN3ESM4DoorEvEEEES5_E16index_call_with_ILb0ELb0EEEiP9lua_StatePv
openmw:_ZN3sol8u_detail7bindingINS_13meta_functionENS_16constructor_listIJFN3ESM4DoorEvEEEES5_E16index_call_with_ILb1ELb0EEEiP9lua_StatePv
openmw:_ZN3sol8u_detail7bindingINS_13meta_functionENS_16constructor_listIJFN3ESM4DoorEvEEEES5_E4callILb0ELb0EEEiP9lua_State
openmw:_ZN3sol8u_detail7bindingINS_13meta_functionENS_16constructor_listIJFN3ESM4DoorEvEEEES5_E4callILb1ELb0EEEiP9lua_State
openmw:_ZN3sol8u_detail7bindingINS_13meta_functionENS_16constructor_listIJFN3ESM4DoorEvEEEES5_E5call_ILb0ELb0EEEiP9lua_State
openmw:_ZN3sol8u_detail7bindingINS_13meta_functionENS_16constructor_listIJFN3ESM4DoorEvEEEES5_E5call_ILb1ELb0EEEiP9lua_State
openmw:_ZN3sol8u_detail7bindingINS_13meta_functionENS_16constructor_listIJFN3ESM5ProbeEvEEEES5_E10call_with_ILb0ELb0EEEiP9lua_StatePv
openmw:_ZN3sol8u_detail7bindingINS_13meta_functionENS_16constructor_listIJFN3ESM5ProbeEvEEEES5_E10call_with_ILb1ELb0EEEiP9lua_StatePv
openmw:_ZN3sol8u_detail7bindingINS_13meta_functionENS_16constructor_listIJFN3ESM5ProbeEvEEEES5_E16index_call_with_ILb0ELb0EEEiP9lua_StatePv
openmw:_ZN3sol8u_detail7bindingINS_13meta_functionENS_16constructor_listIJFN3ESM5ProbeEvEEEES5_E16index_call_with_ILb1ELb0EEEiP9lua_StatePv
openmw:_ZN3sol8u_detail7bindingINS_13meta_functionENS_16constructor_listIJFN3ESM5ProbeEvEEEES5_E4callILb0ELb0EEEiP9lua_State
openmw:_ZN3sol8u_detail7bindingINS_13meta_functionENS_16constructor_listIJFN3ESM5ProbeEvEEEES5_E4callILb1ELb0EEEiP9lua_State
openmw:_ZN3sol8u_detail7bindingINS_13meta_functionENS_16constructor_listIJFN3ESM5ProbeEvEEEES5_E5call_ILb0ELb0EEEiP9lua_State
openmw:_ZN3sol8u_detail7bindingINS_13meta_functionENS_16constructor_listIJFN3ESM5ProbeEvEEEES5_E5call_ILb1ELb0EEEiP9lua_State
openmw:_ZN3sol8u_detail7bindingINS_13meta_functionENS_16constructor_listIJFN3ESM6PotionEvEEEES5_E10call_with_ILb0ELb0EEEiP9lua_StatePv
openmw:_ZN3sol8u_detail7bindingINS_13meta_functionENS_16constructor_listIJFN3ESM6PotionEvEEEES5_E10call_with_ILb1ELb0EEEiP9lua_StatePv
openmw:_ZN3sol8u_detail7bindingINS_13meta_functionENS_16constructor_listIJFN3ESM6PotionEvEEEES5_E16index_call_with_ILb0ELb0EEEiP9lua_StatePv
openmw:_ZN3sol8u_detail7bindingINS_13meta_functionENS_16constructor_listIJFN3ESM6PotionEvEEEES5_E16index_call_with_ILb1ELb0EEEiP9lua_StatePv
openmw:_ZN3sol8u_detail7bindingINS_13meta_functionENS_16constructor_listIJFN3ESM6PotionEvEEEES5_E4callILb0ELb0EEEiP9lua_State
openmw:_ZN3sol8u_detail7bindingINS_13meta_functionENS_16constructor_listIJFN3ESM6PotionEvEEEES5_E4callILb1ELb0EEEiP9lua_State
openmw:_ZN3sol8u_detail7bindingINS_13meta_functionENS_16constructor_listIJFN3ESM6PotionEvEEEES5_E5call_ILb0ELb0EEEiP9lua_State
openmw:_ZN3sol8u_detail7bindingINS_13meta_functionENS_16constructor_listIJFN3ESM6PotionEvEEEES5_E5call_ILb1ELb0EEEiP9lua_State
openmw:_ZN3sol8u_detail7bindingINS_13meta_functionENS_16constructor_listIJFN3ESM6RepairEvEEEES5_E10call_with_ILb0ELb0EEEiP9lua_StatePv
openmw:_ZN3sol8u_detail7bindingINS_13meta_functionENS_16constructor_listIJFN3ESM6RepairEvEEEES5_E10call_with_ILb1ELb0EEEiP9lua_StatePv
openmw:_ZN3sol8u_detail7bindingINS_13meta_functionENS_16constructor_listIJFN3ESM6RepairEvEEEES5_E16index_call_with_ILb0ELb0EEEiP9lua_StatePv
openmw:_ZN3sol8u_detail7bindingINS_13meta_functionENS_16constructor_listIJFN3ESM6RepairEvEEEES5_E16index_call_with_ILb1ELb0EEEiP9lua_StatePv
openmw:_ZN3sol8u_detail7bindingINS_13meta_functionENS_16constructor_listIJFN3ESM6RepairEvEEEES5_E4callILb0ELb0EEEiP9lua_State
openmw:_ZN3sol8u_detail7bindingINS_13meta_functionENS_16constructor_listIJFN3ESM6RepairEvEEEES5_E4callILb1ELb0EEEiP9lua_State
openmw:_ZN3sol8u_detail7bindingINS_13meta_functionENS_16constructor_listIJFN3ESM6RepairEvEEEES5_E5call_ILb0ELb0EEEiP9lua_State
openmw:_ZN3sol8u_detail7bindingINS_13meta_functionENS_16constructor_listIJFN3ESM6RepairEvEEEES5_E5call_ILb1ELb0EEEiP9lua_State
openmw:_ZN3sol8u_detail7bindingINS_13meta_functionENS_16constructor_listIJFN3ESM6WeaponEvEEEES5_E10call_with_ILb0ELb0EEEiP9lua_StatePv
openmw:_ZN3sol8u_detail7bindingINS_13meta_functionENS_16constructor_listIJFN3ESM6WeaponEvEEEES5_E10call_with_ILb1ELb0EEEiP9lua_StatePv
openmw:_ZN3sol8u_detail7bindingINS_13meta_functionENS_16constructor_listIJFN3ESM6WeaponEvEEEES5_E16index_call_with_ILb0ELb0EEEiP9lua_StatePv
openmw:_ZN3sol8u_detail7bindingINS_13meta_functionENS_16constructor_listIJFN3ESM6WeaponEvEEEES5_E16index_call_with_ILb1ELb0EEEiP9lua_StatePv
openmw:_ZN3sol8u_detail7bindingINS_13meta_functionENS_16constructor_listIJFN3ESM6WeaponEvEEEES5_E4callILb0ELb0EEEiP9lua_State
openmw:_ZN3sol8u_detail7bindingINS_13meta_functionENS_16constructor_listIJFN3ESM6WeaponEvEEEES5_E4callILb1ELb0EEEiP9lua_State
openmw:_ZN3sol8u_detail7bindingINS_13meta_functionENS_16constructor_listIJFN3ESM6WeaponEvEEEES5_E5call_ILb0ELb0EEEiP9lua_State
openmw:_ZN3sol8u_detail7bindingINS_13meta_functionENS_16constructor_listIJFN3ESM6WeaponEvEEEES5_E5call_ILb1ELb0EEEiP9lua_State
openmw:_ZN3sol8u_detail7bindingINS_13meta_functionENS_16constructor_listIJFN3ESM8CreatureEvEEEES5_E10call_with_ILb0ELb0EEEiP9lua_StatePv
openmw:_ZN3sol8u_detail7bindingINS_13meta_functionENS_16constructor_listIJFN3ESM8CreatureEvEEEES5_E10call_with_ILb1ELb0EEEiP9lua_StatePv
openmw:_ZN3sol8u_detail7bindingINS_13meta_functionENS_16constructor_listIJFN3ESM8CreatureEvEEEES5_E16index_call_with_ILb0ELb0EEEiP9lua_StatePv
openmw:_ZN3sol8u_detail7bindingINS_13meta_functionENS_16constructor_listIJFN3ESM8CreatureEvEEEES5_E16index_call_with_ILb1ELb0EEEiP9lua_StatePv
openmw:_ZN3sol8u_detail7bindingINS_13meta_functionENS_16constructor_listIJFN3ESM8CreatureEvEEEES5_E4callILb0ELb0EEEiP9lua_State
openmw:_ZN3sol8u_detail7bindingINS_13meta_functionENS_16constructor_listIJFN3ESM8CreatureEvEEEES5_E4callILb1ELb0EEEiP9lua_State
openmw:_ZN3sol8u_detail7bindingINS_13meta_functionENS_16constructor_listIJFN3ESM8CreatureEvEEEES5_E5call_ILb0ELb0EEEiP9lua_State
openmw:_ZN3sol8u_detail7bindingINS_13meta_functionENS_16constructor_listIJFN3ESM8CreatureEvEEEES5_E5call_ILb1ELb0EEEiP9lua_State
openmw:_ZN3sol8u_detail7bindingINS_13meta_functionENS_16constructor_listIJFN3ESM8LockpickEvEEEES5_E10call_with_ILb0ELb0EEEiP9lua_StatePv
openmw:_ZN3sol8u_detail7bindingINS_13meta_functionENS_16constructor_listIJFN3ESM8LockpickEvEEEES5_E10call_with_ILb1ELb0EEEiP9lua_StatePv
openmw:_ZN3sol8u_detail7bindingINS_13meta_functionENS_16constructor_listIJFN3ESM8LockpickEvEEEES5_E16index_call_with_ILb0ELb0EEEiP9lua_StatePv
openmw:_ZN3sol8u_detail7bindingINS_13meta_functionENS_16constructor_listIJFN3ESM8LockpickEvEEEES5_E16index_call_with_ILb1ELb0EEEiP9lua_StatePv
openmw:_ZN3sol8u_detail7bindingINS_13meta_functionENS_16constructor_listIJFN3ESM8LockpickEvEEEES5_E4callILb0ELb0EEEiP9lua_State
openmw:_ZN3sol8u_detail7bindingINS_13meta_functionENS_16constructor_listIJFN3ESM8LockpickEvEEEES5_E4callILb1ELb0EEEiP9lua_State
openmw:_ZN3sol8u_detail7bindingINS_13meta_functionENS_16constructor_listIJFN3ESM8LockpickEvEEEES5_E5call_ILb0ELb0EEEiP9lua_State
openmw:_ZN3sol8u_detail7bindingINS_13meta_functionENS_16constructor_listIJFN3ESM8LockpickEvEEEES5_E5call_ILb1ELb0EEEiP9lua_State
openmw:_ZN3sol8u_detail7bindingINS_13meta_functionENS_16constructor_listIJFN3ESM9ActivatorEvEEEES5_E10call_with_ILb0ELb0EEEiP9lua_StatePv
openmw:_ZN3sol8u_detail7bindingINS_13meta_functionENS_16constructor_listIJFN3ESM9ActivatorEvEEEES5_E10call_with_ILb1ELb0EEEiP9lua_StatePv
openmw:_ZN3sol8u_detail7bindingINS_13meta_functionENS_16constructor_listIJFN3ESM9ActivatorEvEEEES5_E16index_call_with_ILb0ELb0EEEiP9lua_StatePv
openmw:_ZN3sol8u_detail7bindingINS_13meta_functionENS_16constructor_listIJFN3ESM9ActivatorEvEEEES5_E16index_call_with_ILb1ELb0EEEiP9lua_StatePv
openmw:_ZN3sol8u_detail7bindingINS_13meta_functionENS_16constructor_listIJFN3ESM9ActivatorEvEEEES5_E4callILb0ELb0EEEiP9lua_State
openmw:_ZN3sol8u_detail7bindingINS_13meta_functionENS_16constructor_listIJFN3ESM9ActivatorEvEEEES5_E4callILb1ELb0EEEiP9lua_State
openmw:_ZN3sol8u_detail7bindingINS_13meta_functionENS_16constructor_listIJFN3ESM9ActivatorEvEEEES5_E5call_ILb0ELb0EEEiP9lua_State
openmw:_ZN3sol8u_detail7bindingINS_13meta_functionENS_16constructor_listIJFN3ESM9ActivatorEvEEEES5_E5call_ILb1ELb0EEEiP9lua_State
openmw:_ZN3sol8u_detail7bindingINS_13meta_functionENS_16constructor_listIJFN3ESM9ApparatusEvEEEES5_E10call_with_ILb0ELb0EEEiP9lua_StatePv
openmw:_ZN3sol8u_detail7bindingINS_13meta_functionENS_16constructor_listIJFN3ESM9ApparatusEvEEEES5_E10call_with_ILb1ELb0EEEiP9lua_StatePv
openmw:_ZN3sol8u_detail7bindingINS_13meta_functionENS_16constructor_listIJFN3ESM9ApparatusEvEEEES5_E16index_call_with_ILb0ELb0EEEiP9lua_StatePv
openmw:_ZN3sol8u_detail7bindingINS_13meta_functionENS_16constructor_listIJFN3ESM9ApparatusEvEEEES5_E16index_call_with_ILb1ELb0EEEiP9lua_StatePv
openmw:_ZN3sol8u_detail7bindingINS_13meta_functionENS_16constructor_listIJFN3ESM9ApparatusEvEEEES5_E4callILb0ELb0EEEiP9lua_State
openmw:_ZN3sol8u_detail7bindingINS_13meta_functionENS_16constructor_listIJFN3ESM9ApparatusEvEEEES5_E4callILb1ELb0EEEiP9lua_State
openmw:_ZN3sol8u_detail7bindingINS_13meta_functionENS_16constructor_listIJFN3ESM9ApparatusEvEEEES5_E5call_ILb0ELb0EEEiP9lua_State
openmw:_ZN3sol8u_detail7bindingINS_13meta_functionENS_16constructor_listIJFN3ESM9ApparatusEvEEEES5_E5call_ILb1ELb0EEEiP9lua_State
openmw:_ZN3sol8u_detail7bindingINS_13meta_functionENS_16constructor_listIJFN3ESM9ContainerEvEEEES5_E10call_with_ILb0ELb0EEEiP9lua_StatePv
openmw:_ZN3sol8u_detail7bindingINS_13meta_functionENS_16constructor_listIJFN3ESM9ContainerEvEEEES5_E10call_with_ILb1ELb0EEEiP9lua_StatePv
openmw:_ZN3sol8u_detail7bindingINS_13meta_functionENS_16constructor_listIJFN3ESM9ContainerEvEEEES5_E16index_call_with_ILb0ELb0EEEiP9lua_StatePv
openmw:_ZN3sol8u_detail7bindingINS_13meta_functionENS_16constructor_listIJFN3ESM9ContainerEvEEEES5_E16index_call_with_ILb1ELb0EEEiP9lua_StatePv
openmw:_ZN3sol8u_detail7bindingINS_13meta_functionENS_16constructor_listIJFN3ESM9ContainerEvEEEES5_E4callILb0ELb0EEEiP9lua_State
openmw:_ZN3sol8u_detail7bindingINS_13meta_functionENS_16constructor_listIJFN3ESM9ContainerEvEEEES5_E4callILb1ELb0EEEiP9lua_State
openmw:_ZN3sol8u_detail7bindingINS_13meta_functionENS_16constructor_listIJFN3ESM9ContainerEvEEEES5_E5call_ILb0ELb0EEEiP9lua_State
openmw:_ZN3sol8u_detail7bindingINS_13meta_functionENS_16constructor_listIJFN3ESM9ContainerEvEEEES5_E5call_ILb1ELb0EEEiP9lua_State
openmw:_ZN3sol8u_detail7bindingINS_13meta_functionENS_16constructor_listIJFN3osg5Vec2fEvEEEES5_E10call_with_ILb0ELb0EEEiP9lua_StatePv
openmw:_ZN3sol8u_detail7bindingINS_13meta_functionENS_16constructor_listIJFN3osg5Vec2fEvEEEES5_E10call_with_ILb1ELb0EEEiP9lua_StatePv
openmw:_ZN3sol8u_detail7bindingINS_13meta_functionENS_16constructor_listIJFN3osg5Vec2fEvEEEES5_E16index_call_with_ILb0ELb0EEEiP9lua_StatePv
openmw:_ZN3sol8u_detail7bindingINS_13meta_functionENS_16constructor_listIJFN3osg5Vec2fEvEEEES5_E16index_call_with_ILb1ELb0EEEiP9lua_StatePv
openmw:_ZN3sol8u_detail7bindingINS_13meta_functionENS_16constructor_listIJFN3osg5Vec2fEvEEEES5_E4callILb0ELb0EEEiP9lua_State
openmw:_ZN3sol8u_detail7bindingINS_13meta_functionENS_16constructor_listIJFN3osg5Vec2fEvEEEES5_E4callILb1ELb0EEEiP9lua_State
openmw:_ZN3sol8u_detail7bindingINS_13meta_functionENS_16constructor_listIJFN3osg5Vec2fEvEEEES5_E5call_ILb0ELb0EEEiP9lua_State
openmw:_ZN3sol8u_detail7bindingINS_13meta_functionENS_16constructor_listIJFN3osg5Vec2fEvEEEES5_E5call_ILb1ELb0EEEiP9lua_State
openmw:_ZN3sol8u_detail7bindingINS_13meta_functionENS_16constructor_listIJFN3osg5Vec3fEvEEEES5_E10call_with_ILb0ELb0EEEiP9lua_StatePv
openmw:_ZN3sol8u_detail7bindingINS_13meta_functionENS_16constructor_listIJFN3osg5Vec3fEvEEEES5_E10call_with_ILb1ELb0EEEiP9lua_StatePv
openmw:_ZN3sol8u_detail7bindingINS_13meta_functionENS_16constructor_listIJFN3osg5Vec3fEvEEEES5_E16index_call_with_ILb0ELb0EEEiP9lua_StatePv
openmw:_ZN3sol8u_detail7bindingINS_13meta_functionENS_16constructor_listIJFN3osg5Vec3fEvEEEES5_E16index_call_with_ILb1ELb0EEEiP9lua_StatePv
