libmediainfo.so.0:JNI_OnLoad
libmediainfo.so.0:MD5Final
libmediainfo.so.0:MD5Init
libmediainfo.so.0:MD5Transform
libmediainfo.so.0:MD5Update
libmediainfo.so.0:MediaInfoA_Close
libmediainfo.so.0:MediaInfoA_Count_Get
libmediainfo.so.0:MediaInfoA_Delete
libmediainfo.so.0:MediaInfoA_Get
libmediainfo.so.0:MediaInfoA_GetI
libmediainfo.so.0:MediaInfoA_Inform
libmediainfo.so.0:MediaInfoA_New
libmediainfo.so.0:MediaInfoA_New_Quick
libmediainfo.so.0:MediaInfoA_Open
libmediainfo.so.0:MediaInfoA_Open_Buffer
libmediainfo.so.0:MediaInfoA_Open_Buffer_Continue
libmediainfo.so.0:MediaInfoA_Open_Buffer_Continue_GoTo_Get
libmediainfo.so.0:MediaInfoA_Open_Buffer_Finalize
libmediainfo.so.0:MediaInfoA_Open_Buffer_Init
libmediainfo.so.0:MediaInfoA_Open_NextPacket
libmediainfo.so.0:MediaInfoA_Option
libmediainfo.so.0:MediaInfoA_Output_Buffer_Get
libmediainfo.so.0:MediaInfoA_Output_Buffer_GetI
libmediainfo.so.0:MediaInfoA_Save
libmediainfo.so.0:MediaInfoA_Set
libmediainfo.so.0:MediaInfoA_SetI
libmediainfo.so.0:MediaInfoA_State_Get
libmediainfo.so.0:MediaInfoListA_Close
libmediainfo.so.0:MediaInfoListA_Count_Get
libmediainfo.so.0:MediaInfoListA_Count_Get_Files
libmediainfo.so.0:MediaInfoListA_Delete
libmediainfo.so.0:MediaInfoListA_Get
libmediainfo.so.0:MediaInfoListA_GetI
libmediainfo.so.0:MediaInfoListA_Inform
libmediainfo.so.0:MediaInfoListA_New
libmediainfo.so.0:MediaInfoListA_New_Quick
libmediainfo.so.0:MediaInfoListA_Open
libmediainfo.so.0:MediaInfoListA_Open_Buffer
libmediainfo.so.0:MediaInfoListA_Option
libmediainfo.so.0:MediaInfoListA_Save
libmediainfo.so.0:MediaInfoListA_Set
libmediainfo.so.0:MediaInfoListA_SetI
libmediainfo.so.0:MediaInfoListA_State_Get
libmediainfo.so.0:MediaInfoList_Close
libmediainfo.so.0:MediaInfoList_Count_Get
libmediainfo.so.0:MediaInfoList_Count_Get_Files
libmediainfo.so.0:MediaInfoList_Delete
libmediainfo.so.0:MediaInfoList_Get
libmediainfo.so.0:MediaInfoList_GetI
libmediainfo.so.0:MediaInfoList_Inform
libmediainfo.so.0:MediaInfoList_New
libmediainfo.so.0:MediaInfoList_New_Quick
libmediainfo.so.0:MediaInfoList_Open
libmediainfo.so.0:MediaInfoList_Open_Buffer
libmediainfo.so.0:MediaInfoList_Option
libmediainfo.so.0:MediaInfoList_Save
libmediainfo.so.0:MediaInfoList_Set
libmediainfo.so.0:MediaInfoList_SetI
libmediainfo.so.0:MediaInfoList_State_Get
libmediainfo.so.0:MediaInfo_Close
libmediainfo.so.0:MediaInfo_Count_Get
libmediainfo.so.0:MediaInfo_Delete
libmediainfo.so.0:MediaInfo_Get
libmediainfo.so.0:MediaInfo_GetI
libmediainfo.so.0:MediaInfo_Info_Version
libmediainfo.so.0:MediaInfo_Inform
libmediainfo.so.0:MediaInfo_New
libmediainfo.so.0:MediaInfo_New_Quick
libmediainfo.so.0:MediaInfo_Open
libmediainfo.so.0:MediaInfo_Open_Buffer
libmediainfo.so.0:MediaInfo_Open_Buffer_Continue
libmediainfo.so.0:MediaInfo_Open_Buffer_Continue_GoTo_Get
libmediainfo.so.0:MediaInfo_Open_Buffer_Finalize
libmediainfo.so.0:MediaInfo_Open_Buffer_Init
libmediainfo.so.0:MediaInfo_Open_NextPacket
libmediainfo.so.0:MediaInfo_Option
libmediainfo.so.0:MediaInfo_Output_Buffer_Get
libmediainfo.so.0:MediaInfo_Output_Buffer_GetI
libmediainfo.so.0:MediaInfo_Save
libmediainfo.so.0:MediaInfo_Set
libmediainfo.so.0:MediaInfo_SetI
libmediainfo.so.0:MediaInfo_State_Get
libmediainfo.so.0:_ZN12MediaInfoLib10AvsV_levelEh
libmediainfo.so.0:_ZN12MediaInfoLib10CRC16_InitEPtt
libmediainfo.so.0:_ZN12MediaInfoLib10File_Adpcm20Read_Buffer_ContinueEv
libmediainfo.so.0:_ZN12MediaInfoLib10File_Bzip216FileHeader_BeginEv
libmediainfo.so.0:_ZN12MediaInfoLib10File_Bzip220Read_Buffer_ContinueEv
libmediainfo.so.0:_ZN12MediaInfoLib10File_DcpAm12MergeFromPklERSt6vectorINS_11File_DcpPkl6streamESaIS3_EE
libmediainfo.so.0:_ZN12MediaInfoLib10File_DcpAm14Streams_FinishEv
libmediainfo.so.0:_ZN12MediaInfoLib10File_DcpAm16FileHeader_BeginEv
libmediainfo.so.0:_ZN12MediaInfoLib10File_DcpAmC1Ev
libmediainfo.so.0:_ZN12MediaInfoLib10File_DcpAmC2Ev
libmediainfo.so.0:_ZN12MediaInfoLib10File_Dirac10Data_ParseEv
libmediainfo.so.0:_ZN12MediaInfoLib10File_Dirac11SynchronizeEv
libmediainfo.so.0:_ZN12MediaInfoLib10File_Dirac12Header_ParseEv
libmediainfo.so.0:_ZN12MediaInfoLib10File_Dirac12Padding_dataEv
libmediainfo.so.0:_ZN12MediaInfoLib10File_Dirac12Streams_FillEv
libmediainfo.so.0:_ZN12MediaInfoLib10File_Dirac12Synched_InitEv
libmediainfo.so.0:_ZN12MediaInfoLib10File_Dirac12Synched_TestEv
libmediainfo.so.0:_ZN12MediaInfoLib10File_Dirac14Auxiliary_dataEv
libmediainfo.so.0:_ZN12MediaInfoLib10File_Dirac14Streams_FinishEv
libmediainfo.so.0:_ZN12MediaInfoLib10File_Dirac15End_of_SequenceEv
libmediainfo.so.0:_ZN12MediaInfoLib10File_Dirac15Sequence_headerEv
libmediainfo.so.0:_ZN12MediaInfoLib10File_Dirac21Reference_Picture_LowEv
libmediainfo.so.0:_ZN12MediaInfoLib10File_Dirac23Intra_Reference_PictureEv
libmediainfo.so.0:_ZN12MediaInfoLib10File_Dirac25Header_Parser_QuickSearchEv
libmediainfo.so.0:_ZN12MediaInfoLib10File_Dirac25Inter_Reference_Picture_1Ev
libmediainfo.so.0:_ZN12MediaInfoLib10File_Dirac25Inter_Reference_Picture_2Ev
libmediainfo.so.0:_ZN12MediaInfoLib10File_Dirac26Intra_Reference_Picture_NoEv
libmediainfo.so.0:_ZN12MediaInfoLib10File_Dirac27Intra_Non_Reference_PictureEv
libmediainfo.so.0:_ZN12MediaInfoLib10File_Dirac29Inter_Non_Reference_Picture_1Ev
libmediainfo.so.0:_ZN12MediaInfoLib10File_Dirac29Inter_Non_Reference_Picture_2Ev
libmediainfo.so.0:_ZN12MediaInfoLib10File_Dirac30Intra_Non_Reference_Picture_NoEv
libmediainfo.so.0:_ZN12MediaInfoLib10File_Dirac31Intra_Non_Reference_Picture_LowEv
libmediainfo.so.0:_ZN12MediaInfoLib10File_Dirac7pictureEv
libmediainfo.so.0:_ZN12MediaInfoLib10File_Dirac8ReservedEv
libmediainfo.so.0:_ZN12MediaInfoLib10File_DiracC1Ev
libmediainfo.so.0:_ZN12MediaInfoLib10File_DiracC2Ev
libmediainfo.so.0:_ZN12MediaInfoLib10File_DvDif10Data_ParseEv
libmediainfo.so.0:_ZN12MediaInfoLib10File_DvDif11SynchronizeEv
libmediainfo.so.0:_ZN12MediaInfoLib10File_DvDif12Header_ParseEv
libmediainfo.so.0:_ZN12MediaInfoLib10File_DvDif12Streams_FillEv
libmediainfo.so.0:_ZN12MediaInfoLib10File_DvDif12Subcode_SsybEh
libmediainfo.so.0:_ZN12MediaInfoLib10File_DvDif12Synched_InitEv
libmediainfo.so.0:_ZN12MediaInfoLib10File_DvDif12Synched_TestEv
libmediainfo.so.0:_ZN12MediaInfoLib10File_DvDif12audio_sourceEv
libmediainfo.so.0:_ZN12MediaInfoLib10File_DvDif12binary_groupEv
libmediainfo.so.0:_ZN12MediaInfoLib10File_DvDif12video_sourceEv
libmediainfo.so.0:_ZN12MediaInfoLib10File_DvDif13audio_recdateEv
libmediainfo.so.0:_ZN12MediaInfoLib10File_DvDif13audio_rectimeEv
libmediainfo.so.0:_ZN12MediaInfoLib10File_DvDif13video_recdateEv
libmediainfo.so.0:_ZN12MediaInfoLib10File_DvDif13video_rectimeEv
libmediainfo.so.0:_ZN12MediaInfoLib10File_DvDif14Streams_FinishEv
libmediainfo.so.0:_ZN12MediaInfoLib10File_DvDif15closed_captionsEv
libmediainfo.so.0:_ZN12MediaInfoLib10File_DvDif16FileHeader_BeginEv
libmediainfo.so.0:_ZN12MediaInfoLib10File_DvDif16Read_Buffer_SeekEmyy
libmediainfo.so.0:_ZN12MediaInfoLib10File_DvDif17consumer_camera_1Ev
libmediainfo.so.0:_ZN12MediaInfoLib10File_DvDif17consumer_camera_2Ev
libmediainfo.so.0:_ZN12MediaInfoLib10File_DvDif18Synched_Test_ResetEv
libmediainfo.so.0:_ZN12MediaInfoLib10File_DvDif19Errors_Stats_UpdateEv
libmediainfo.so.0:_ZN12MediaInfoLib10File_DvDif19audio_sourcecontrolEv
libmediainfo.so.0:_ZN12MediaInfoLib10File_DvDif19video_sourcecontrolEv
libmediainfo.so.0:_ZN12MediaInfoLib10File_DvDif20Read_Buffer_ContinueEv
libmediainfo.so.0:_ZN12MediaInfoLib10File_DvDif21Read_Buffer_UnsynchedEv
libmediainfo.so.0:_ZN12MediaInfoLib10File_DvDif27Errors_Stats_Update_FinnishEv
libmediainfo.so.0:_ZN12MediaInfoLib10File_DvDif31Demux_UnpacketizeContainer_TestEv
libmediainfo.so.0:_ZN12MediaInfoLib10File_DvDif4VAUXEv
libmediainfo.so.0:_ZN12MediaInfoLib10File_DvDif5AudioEv
libmediainfo.so.0:_ZN12MediaInfoLib10File_DvDif5VideoEv
libmediainfo.so.0:_ZN12MediaInfoLib10File_DvDif6HeaderEv
libmediainfo.so.0:_ZN12MediaInfoLib10File_DvDif7ElementEv
libmediainfo.so.0:_ZN12MediaInfoLib10File_DvDif7SubcodeEv
libmediainfo.so.0:_ZN12MediaInfoLib10File_DvDif7recdateEb
libmediainfo.so.0:_ZN12MediaInfoLib10File_DvDif7rectimeEb
libmediainfo.so.0:_ZN12MediaInfoLib10File_DvDif8timecodeEv
libmediainfo.so.0:_ZN12MediaInfoLib10File_DvDifC1Ev
libmediainfo.so.0:_ZN12MediaInfoLib10File_DvDifC2Ev
libmediainfo.so.0:_ZN12MediaInfoLib10File_DvDifD0Ev
libmediainfo.so.0:_ZN12MediaInfoLib10File_DvDifD1Ev
libmediainfo.so.0:_ZN12MediaInfoLib10File_DvDifD2Ev
libmediainfo.so.0:_ZN12MediaInfoLib10File_Fraps12Streams_FillEv
libmediainfo.so.0:_ZN12MediaInfoLib10File_Fraps20Read_Buffer_ContinueEv
libmediainfo.so.0:_ZN12MediaInfoLib10File_Fraps8Version0Ev
libmediainfo.so.0:_ZN12MediaInfoLib10File_Fraps8Version1Ev
libmediainfo.so.0:_ZN12MediaInfoLib10File_Fraps8Version2Ev
libmediainfo.so.0:_ZN12MediaInfoLib10File_FrapsC1Ev
libmediainfo.so.0:_ZN12MediaInfoLib10File_FrapsC2Ev
libmediainfo.so.0:_ZN12MediaInfoLib10File_Id3v210Data_ParseEv
libmediainfo.so.0:_ZN12MediaInfoLib10File_Id3v212Header_ParseEv
libmediainfo.so.0:_ZN12MediaInfoLib10File_Id3v212Streams_FillEv
libmediainfo.so.0:_ZN12MediaInfoLib10File_Id3v214Normalize_DateERN6ZenLib6ZtringE
libmediainfo.so.0:_ZN12MediaInfoLib10File_Id3v216FileHeader_ParseEv
libmediainfo.so.0:_ZN12MediaInfoLib10File_Id3v223Static_Synchronize_TagsEPKhmmRb
libmediainfo.so.0:_ZN12MediaInfoLib10File_Id3v24APICEv
libmediainfo.so.0:_ZN12MediaInfoLib10File_Id3v24COMMEv
libmediainfo.so.0:_ZN12MediaInfoLib10File_Id3v24PRIVEv
libmediainfo.so.0:_ZN12MediaInfoLib10File_Id3v24RGADEv
libmediainfo.so.0:_ZN12MediaInfoLib10File_Id3v24SYLTEv
libmediainfo.so.0:_ZN12MediaInfoLib10File_Id3v24TXXXEv
libmediainfo.so.0:_ZN12MediaInfoLib10File_Id3v24T__XEv
libmediainfo.so.0:_ZN12MediaInfoLib10File_Id3v24T___Ev
libmediainfo.so.0:_ZN12MediaInfoLib10File_Id3v24USLTEv
libmediainfo.so.0:_ZN12MediaInfoLib10File_Id3v24WXXXEv
libmediainfo.so.0:_ZN12MediaInfoLib10File_Id3v24W__XEv
libmediainfo.so.0:_ZN12MediaInfoLib10File_Id3v24W___Ev
libmediainfo.so.0:_ZN12MediaInfoLib10File_Id3v29Fill_NameEv
libmediainfo.so.0:_ZN12MediaInfoLib10File_Id3v2C1Ev
libmediainfo.so.0:_ZN12MediaInfoLib10File_Id3v2C2Ev
libmediainfo.so.0:_ZN12MediaInfoLib10File_MiXml16FileHeader_BeginEv
libmediainfo.so.0:_ZN12MediaInfoLib10File_MiXmlC1Ev
libmediainfo.so.0:_ZN12MediaInfoLib10File_MiXmlC2Ev
libmediainfo.so.0:_ZN12MediaInfoLib10File_Mpeg410Data_ParseEv
libmediainfo.so.0:_ZN12MediaInfoLib10File_Mpeg411DescriptorsEv
libmediainfo.so.0:_ZN12MediaInfoLib10File_Mpeg412Header_BeginEv
libmediainfo.so.0:_ZN12MediaInfoLib10File_Mpeg412Header_ParseEv
libmediainfo.so.0:_ZN12MediaInfoLib10File_Mpeg412Language_GetEt
libmediainfo.so.0:_ZN12MediaInfoLib10File_Mpeg412Metadata_GetERNSt7__cxx1112basic_stringIcSt11char_traitsIcESaIcEEERKS6_
libmediainfo.so.0:_ZN12MediaInfoLib10File_Mpeg412Metadata_GetERNSt7__cxx1112basic_stringIcSt11char_traitsIcESaIcEEEy
libmediainfo.so.0:_ZN12MediaInfoLib10File_Mpeg413moov_meta_xmlEv
libmediainfo.so.0:_ZN12MediaInfoLib10File_Mpeg413moov_udta_ptvEv
libmediainfo.so.0:_ZN12MediaInfoLib10File_Mpeg414Skip_NulStringEPKc
libmediainfo.so.0:_ZN12MediaInfoLib10File_Mpeg414Streams_AcceptEv
libmediainfo.so.0:_ZN12MediaInfoLib10File_Mpeg414Streams_FinishEv
libmediainfo.so.0:_ZN12MediaInfoLib10File_Mpeg414meta_grpl_xxxxEv
libmediainfo.so.0:_ZN12MediaInfoLib10File_Mpeg414meta_iinf_infeEv
libmediainfo.so.0:_ZN12MediaInfoLib10File_Mpeg414meta_iprp_ipcoEv
libmediainfo.so.0:_ZN12MediaInfoLib10File_Mpeg414meta_iprp_ipmaEv
libmediainfo.so.0:_ZN12MediaInfoLib10File_Mpeg414meta_iref_xxxxEv
libmediainfo.so.0:_ZN12MediaInfoLib10File_Mpeg414moof_traf_sdtpEv
libmediainfo.so.0:_ZN12MediaInfoLib10File_Mpeg414moof_traf_tfhdEv
libmediainfo.so.0:_ZN12MediaInfoLib10File_Mpeg414moof_traf_trunEv
libmediainfo.so.0:_ZN12MediaInfoLib10File_Mpeg414moov_cmov_cmvdEv
libmediainfo.so.0:_ZN12MediaInfoLib10File_Mpeg414moov_cmov_dcomEv
libmediainfo.so.0:_ZN12MediaInfoLib10File_Mpeg414moov_meta_bxmlEv
libmediainfo.so.0:_ZN12MediaInfoLib10File_Mpeg414moov_meta_hdlrEv
libmediainfo.so.0:_ZN12MediaInfoLib10File_Mpeg414moov_meta_ilstEv
libmediainfo.so.0:_ZN12MediaInfoLib10File_Mpeg414moov_meta_keysEv
libmediainfo.so.0:_ZN12MediaInfoLib10File_Mpeg414moov_mvex_mehdEv
libmediainfo.so.0:_ZN12MediaInfoLib10File_Mpeg414moov_mvex_trexEv
libmediainfo.so.0:_ZN12MediaInfoLib10File_Mpeg414moov_trak_edtsEv
libmediainfo.so.0:_ZN12MediaInfoLib10File_Mpeg414moov_trak_loadEv
libmediainfo.so.0:_ZN12MediaInfoLib10File_Mpeg414moov_trak_mdiaEv
libmediainfo.so.0:_ZN12MediaInfoLib10File_Mpeg414moov_trak_taptEv
libmediainfo.so.0:_ZN12MediaInfoLib10File_Mpeg414moov_trak_tkhdEv
libmediainfo.so.0:_ZN12MediaInfoLib10File_Mpeg414moov_trak_trefEv
libmediainfo.so.0:_ZN12MediaInfoLib10File_Mpeg414moov_trak_txasEv
libmediainfo.so.0:_ZN12MediaInfoLib10File_Mpeg414moov_trak_udtaEv
libmediainfo.so.0:_ZN12MediaInfoLib10File_Mpeg414moov_udta_AllFEv
libmediainfo.so.0:_ZN12MediaInfoLib10File_Mpeg414moov_udta_DcMDEv
libmediainfo.so.0:_ZN12MediaInfoLib10File_Mpeg414moov_udta_FIELEv
libmediainfo.so.0:_ZN12MediaInfoLib10File_Mpeg414moov_udta_FXTCEv
libmediainfo.so.0:_ZN12MediaInfoLib10File_Mpeg414moov_udta_ID32Ev
libmediainfo.so.0:_ZN12MediaInfoLib10File_Mpeg414moov_udta_LOOPEv
libmediainfo.so.0:_ZN12MediaInfoLib10File_Mpeg414moov_udta_MCPSEv
libmediainfo.so.0:_ZN12MediaInfoLib10File_Mpeg414moov_udta_Sel0Ev
libmediainfo.so.0:_ZN12MediaInfoLib10File_Mpeg414moov_udta_WLOCEv
libmediainfo.so.0:_ZN12MediaInfoLib10File_Mpeg414moov_udta_XMP_Ev
libmediainfo.so.0:_ZN12MediaInfoLib10File_Mpeg414moov_udta_chplEv
libmediainfo.so.0:_ZN12MediaInfoLib10File_Mpeg414moov_udta_clsfEv
libmediainfo.so.0:_ZN12MediaInfoLib10File_Mpeg414moov_udta_dateEv
libmediainfo.so.0:_ZN12MediaInfoLib10File_Mpeg414moov_udta_hinfEv
libmediainfo.so.0:_ZN12MediaInfoLib10File_Mpeg414moov_udta_hinvEv
libmediainfo.so.0:_ZN12MediaInfoLib10File_Mpeg414moov_udta_hntiEv
libmediainfo.so.0:_ZN12MediaInfoLib10File_Mpeg414moov_udta_kywdEv
libmediainfo.so.0:_ZN12MediaInfoLib10File_Mpeg414moov_udta_lociEv
libmediainfo.so.0:_ZN12MediaInfoLib10File_Mpeg414moov_udta_metaEv
libmediainfo.so.0:_ZN12MediaInfoLib10File_Mpeg414moov_udta_ndrmEv
libmediainfo.so.0:_ZN12MediaInfoLib10File_Mpeg414moov_udta_nsavEv
libmediainfo.so.0:_ZN12MediaInfoLib10File_Mpeg414moov_udta_rtngEv
libmediainfo.so.0:_ZN12MediaInfoLib10File_Mpeg414moov_udta_tagsEv
libmediainfo.so.0:_ZN12MediaInfoLib10File_Mpeg414moov_udta_xxxxEv
libmediainfo.so.0:_ZN12MediaInfoLib10File_Mpeg414moov_udta_yrrcEv
libmediainfo.so.0:_ZN12MediaInfoLib10File_Mpeg415BookMark_NeededEv
libmediainfo.so.0:_ZN12MediaInfoLib10File_Mpeg415mdat_StreamJumpEv
libmediainfo.so.0:_ZN12MediaInfoLib10File_Mpeg416Read_Buffer_InitEv
libmediainfo.so.0:_ZN12MediaInfoLib10File_Mpeg416Read_Buffer_SeekEmyy
libmediainfo.so.0:_ZN12MediaInfoLib10File_Mpeg418IsParsing_mdat_SetEv
libmediainfo.so.0:_ZN12MediaInfoLib10File_Mpeg418TimeCode_AssociateEj
libmediainfo.so.0:_ZN12MediaInfoLib10File_Mpeg418moov_udta_hnti_rtpEv
libmediainfo.so.0:_ZN12MediaInfoLib10File_Mpeg419TimeCodeTrack_CheckERNS0_6streamEmj
libmediainfo.so.0:_ZN12MediaInfoLib10File_Mpeg419meta_iprp_ipco_auxCEv
libmediainfo.so.0:_ZN12MediaInfoLib10File_Mpeg419meta_iprp_ipco_av1CEv
libmediainfo.so.0:_ZN12MediaInfoLib10File_Mpeg419meta_iprp_ipco_avcCEv
libmediainfo.so.0:_ZN12MediaInfoLib10File_Mpeg419meta_iprp_ipco_clapEv
libmediainfo.so.0:_ZN12MediaInfoLib10File_Mpeg419meta_iprp_ipco_clliEv
libmediainfo.so.0:_ZN12MediaInfoLib10File_Mpeg419meta_iprp_ipco_colrEv
libmediainfo.so.0:_ZN12MediaInfoLib10File_Mpeg419meta_iprp_ipco_hvcCEv
libmediainfo.so.0:_ZN12MediaInfoLib10File_Mpeg419meta_iprp_ipco_imirEv
libmediainfo.so.0:_ZN12MediaInfoLib10File_Mpeg419meta_iprp_ipco_irotEv
libmediainfo.so.0:_ZN12MediaInfoLib10File_Mpeg419meta_iprp_ipco_ispeEv
libmediainfo.so.0:_ZN12MediaInfoLib10File_Mpeg419meta_iprp_ipco_lselEv
libmediainfo.so.0:_ZN12MediaInfoLib10File_Mpeg419meta_iprp_ipco_mdcvEv
libmediainfo.so.0:_ZN12MediaInfoLib10File_Mpeg419meta_iprp_ipco_paspEv
libmediainfo.so.0:_ZN12MediaInfoLib10File_Mpeg419meta_iprp_ipco_pixiEv
libmediainfo.so.0:_ZN12MediaInfoLib10File_Mpeg419meta_iprp_ipco_rlocEv
libmediainfo.so.0:_ZN12MediaInfoLib10File_Mpeg419moov_cmov_cmvd_zlibEv
libmediainfo.so.0:_ZN12MediaInfoLib10File_Mpeg419moov_meta_ilst_xxxxEv
libmediainfo.so.0:_ZN12MediaInfoLib10File_Mpeg419moov_meta_keys_mdtaEv
libmediainfo.so.0:_ZN12MediaInfoLib10File_Mpeg419moov_trak_edts_elstEv
libmediainfo.so.0:_ZN12MediaInfoLib10File_Mpeg419moov_trak_mdia_hdlrEv
libmediainfo.so.0:_ZN12MediaInfoLib10File_Mpeg419moov_trak_mdia_imapEv
libmediainfo.so.0:_ZN12MediaInfoLib10File_Mpeg419moov_trak_mdia_mdhdEv
libmediainfo.so.0:_ZN12MediaInfoLib10File_Mpeg419moov_trak_mdia_minfEv
libmediainfo.so.0:_ZN12MediaInfoLib10File_Mpeg419moov_trak_tapt_clefEv
libmediainfo.so.0:_ZN12MediaInfoLib10File_Mpeg419moov_trak_tapt_enofEv
libmediainfo.so.0:_ZN12MediaInfoLib10File_Mpeg419moov_trak_tapt_profEv
libmediainfo.so.0:_ZN12MediaInfoLib10File_Mpeg419moov_trak_tref_chapEv
libmediainfo.so.0:_ZN12MediaInfoLib10File_Mpeg419moov_trak_tref_clcpEv
libmediainfo.so.0:_ZN12MediaInfoLib10File_Mpeg419moov_trak_tref_dpndEv
libmediainfo.so.0:_ZN12MediaInfoLib10File_Mpeg419moov_trak_tref_fallEv
libmediainfo.so.0:_ZN12MediaInfoLib10File_Mpeg419moov_trak_tref_folwEv
libmediainfo.so.0:_ZN12MediaInfoLib10File_Mpeg419moov_trak_tref_forcEv
libmediainfo.so.0:_ZN12MediaInfoLib10File_Mpeg419moov_trak_tref_hintEv
libmediainfo.so.0:_ZN12MediaInfoLib10File_Mpeg419moov_trak_tref_ipirEv
libmediainfo.so.0:_ZN12MediaInfoLib10File_Mpeg419moov_trak_tref_mpodEv
libmediainfo.so.0:_ZN12MediaInfoLib10File_Mpeg419moov_trak_tref_scptEv
libmediainfo.so.0:_ZN12MediaInfoLib10File_Mpeg419moov_trak_tref_ssrcEv
libmediainfo.so.0:_ZN12MediaInfoLib10File_Mpeg419moov_trak_tref_syncEv
libmediainfo.so.0:_ZN12MediaInfoLib10File_Mpeg419moov_trak_tref_thmbEv
libmediainfo.so.0:_ZN12MediaInfoLib10File_Mpeg419moov_trak_tref_tmcdEv
libmediainfo.so.0:_ZN12MediaInfoLib10File_Mpeg419moov_trak_tref_vdepEv
libmediainfo.so.0:_ZN12MediaInfoLib10File_Mpeg419moov_trak_udta_xxxxEv
libmediainfo.so.0:_ZN12MediaInfoLib10File_Mpeg419moov_udta_DcMD_CmboEv
libmediainfo.so.0:_ZN12MediaInfoLib10File_Mpeg419moov_udta_DcMD_DcMEEv
libmediainfo.so.0:_ZN12MediaInfoLib10File_Mpeg419moov_udta_meta_hdlrEv
libmediainfo.so.0:_ZN12MediaInfoLib10File_Mpeg419moov_udta_meta_ilstEv
libmediainfo.so.0:_ZN12MediaInfoLib10File_Mpeg419moov_udta_meta_keysEv
libmediainfo.so.0:_ZN12MediaInfoLib10File_Mpeg419moov_udta_meta_uuidEv
libmediainfo.so.0:_ZN12MediaInfoLib10File_Mpeg419moov_udta_tags_metaEv
libmediainfo.so.0:_ZN12MediaInfoLib10File_Mpeg419moov_udta_tags_tsegEv
libmediainfo.so.0:_ZN12MediaInfoLib10File_Mpeg421Read_Buffer_UnsynchedEv
libmediainfo.so.0:_ZN12MediaInfoLib10File_Mpeg424moov_meta_ilst_xxxx_dataEv
libmediainfo.so.0:_ZN12MediaInfoLib10File_Mpeg424moov_meta_ilst_xxxx_meanEv
libmediainfo.so.0:_ZN12MediaInfoLib10File_Mpeg424moov_meta_ilst_xxxx_nameEv
libmediainfo.so.0:_ZN12MediaInfoLib10File_Mpeg424moov_trak_mdia_imap_seanEv
libmediainfo.so.0:_ZN12MediaInfoLib10File_Mpeg424moov_trak_mdia_minf_codeEv
libmediainfo.so.0:_ZN12MediaInfoLib10File_Mpeg424moov_trak_mdia_minf_dinfEv
libmediainfo.so.0:_ZN12MediaInfoLib10File_Mpeg424moov_trak_mdia_minf_gmhdEv
libmediainfo.so.0:_ZN12MediaInfoLib10File_Mpeg424moov_trak_mdia_minf_hdlrEv
libmediainfo.so.0:_ZN12MediaInfoLib10File_Mpeg424moov_trak_mdia_minf_hintEv
libmediainfo.so.0:_ZN12MediaInfoLib10File_Mpeg424moov_trak_mdia_minf_hmhdEv
libmediainfo.so.0:_ZN12MediaInfoLib10File_Mpeg424moov_trak_mdia_minf_nmhdEv
libmediainfo.so.0:_ZN12MediaInfoLib10File_Mpeg424moov_trak_mdia_minf_smhdEv
libmediainfo.so.0:_ZN12MediaInfoLib10File_Mpeg424moov_trak_mdia_minf_stblEv
libmediainfo.so.0:_ZN12MediaInfoLib10File_Mpeg424moov_trak_mdia_minf_sthdEv
libmediainfo.so.0:_ZN12MediaInfoLib10File_Mpeg424moov_trak_mdia_minf_vmhdEv
libmediainfo.so.0:_ZN12MediaInfoLib10File_Mpeg424moov_udta_DcMD_DcME_KeywEv
libmediainfo.so.0:_ZN12MediaInfoLib10File_Mpeg424moov_udta_DcMD_DcME_MtmdEv
libmediainfo.so.0:_ZN12MediaInfoLib10File_Mpeg424moov_udta_DcMD_DcME_RateEv
libmediainfo.so.0:_ZN12MediaInfoLib10File_Mpeg424moov_udta_meta_ilst_xxxxEv
libmediainfo.so.0:_ZN12MediaInfoLib10File_Mpeg424moov_udta_meta_keys_mdtaEv
libmediainfo.so.0:_ZN12MediaInfoLib10File_Mpeg424moov_udta_tags_tseg_tshdEv
libmediainfo.so.0:_ZN12MediaInfoLib10File_Mpeg428AddCodecConfigurationBoxInfoEv
libmediainfo.so.0:_ZN12MediaInfoLib10File_Mpeg429moov_trak_mdia_imap_sean___inEv
libmediainfo.so.0:_ZN12MediaInfoLib10File_Mpeg429moov_trak_mdia_minf_code_seanEv
libmediainfo.so.0:_ZN12MediaInfoLib10File_Mpeg429moov_trak_mdia_minf_dinf_drefEv
libmediainfo.so.0:_ZN12MediaInfoLib10File_Mpeg429moov_trak_mdia_minf_dinf_url_Ev
libmediainfo.so.0:_ZN12MediaInfoLib10File_Mpeg429moov_trak_mdia_minf_dinf_urn_Ev
libmediainfo.so.0:_ZN12MediaInfoLib10File_Mpeg429moov_trak_mdia_minf_gmhd_gminEv
libmediainfo.so.0:_ZN12MediaInfoLib10File_Mpeg429moov_trak_mdia_minf_gmhd_tcmiEv
libmediainfo.so.0:_ZN12MediaInfoLib10File_Mpeg429moov_trak_mdia_minf_gmhd_tmcdEv
libmediainfo.so.0:_ZN12MediaInfoLib10File_Mpeg429moov_trak_mdia_minf_stbl_co64Ev
libmediainfo.so.0:_ZN12MediaInfoLib10File_Mpeg429moov_trak_mdia_minf_stbl_cslgEv
libmediainfo.so.0:_ZN12MediaInfoLib10File_Mpeg429moov_trak_mdia_minf_stbl_cttsEv
libmediainfo.so.0:_ZN12MediaInfoLib10File_Mpeg429moov_trak_mdia_minf_stbl_sdtpEv
libmediainfo.so.0:_ZN12MediaInfoLib10File_Mpeg429moov_trak_mdia_minf_stbl_stcoEv
libmediainfo.so.0:_ZN12MediaInfoLib10File_Mpeg429moov_trak_mdia_minf_stbl_stdpEv
libmediainfo.so.0:_ZN12MediaInfoLib10File_Mpeg429moov_trak_mdia_minf_stbl_stpsEv
libmediainfo.so.0:_ZN12MediaInfoLib10File_Mpeg429moov_trak_mdia_minf_stbl_stscEv
libmediainfo.so.0:_ZN12MediaInfoLib10File_Mpeg429moov_trak_mdia_minf_stbl_stsdEv
libmediainfo.so.0:_ZN12MediaInfoLib10File_Mpeg429moov_trak_mdia_minf_stbl_stshEv
libmediainfo.so.0:_ZN12MediaInfoLib10File_Mpeg429moov_trak_mdia_minf_stbl_stssEv
libmediainfo.so.0:_ZN12MediaInfoLib10File_Mpeg429moov_trak_mdia_minf_stbl_stszEv
libmediainfo.so.0:_ZN12MediaInfoLib10File_Mpeg429moov_trak_mdia_minf_stbl_sttsEv
libmediainfo.so.0:_ZN12MediaInfoLib10File_Mpeg429moov_udta_meta_ilst_xxxx_dataEv
libmediainfo.so.0:_ZN12MediaInfoLib10File_Mpeg429moov_udta_meta_ilst_xxxx_meanEv
libmediainfo.so.0:_ZN12MediaInfoLib10File_Mpeg429moov_udta_meta_ilst_xxxx_nameEv
libmediainfo.so.0:_ZN12MediaInfoLib10File_Mpeg430Streams_Finish_CommercialNamesEv
libmediainfo.so.0:_ZN12MediaInfoLib10File_Mpeg434moov_trak_mdia_imap_sean___in___tyEv
libmediainfo.so.0:_ZN12MediaInfoLib10File_Mpeg434moov_trak_mdia_imap_sean___in_dtstEv
libmediainfo.so.0:_ZN12MediaInfoLib10File_Mpeg434moov_trak_mdia_imap_sean___in_obidEv
libmediainfo.so.0:_ZN12MediaInfoLib10File_Mpeg434moov_trak_mdia_minf_code_sean_RU_AEv
libmediainfo.so.0:_ZN12MediaInfoLib10File_Mpeg434moov_trak_mdia_minf_dinf_dref_alisEv
libmediainfo.so.0:_ZN12MediaInfoLib10File_Mpeg434moov_trak_mdia_minf_dinf_dref_rsrcEv
libmediainfo.so.0:_ZN12MediaInfoLib10File_Mpeg434moov_trak_mdia_minf_gmhd_tmcd_tcmiEv
libmediainfo.so.0:_ZN12MediaInfoLib10File_Mpeg434moov_trak_mdia_minf_stbl_stsd_stppEv
libmediainfo.so.0:_ZN12MediaInfoLib10File_Mpeg434moov_trak_mdia_minf_stbl_stsd_textEv
libmediainfo.so.0:_ZN12MediaInfoLib10File_Mpeg434moov_trak_mdia_minf_stbl_stsd_tmcdEv
libmediainfo.so.0:_ZN12MediaInfoLib10File_Mpeg434moov_trak_mdia_minf_stbl_stsd_tx3gEv
libmediainfo.so.0:_ZN12MediaInfoLib10File_Mpeg434moov_trak_mdia_minf_stbl_stsd_xxxxEv
libmediainfo.so.0:_ZN12MediaInfoLib10File_Mpeg438moov_trak_mdia_minf_stbl_stsd_xxxxTextEv
libmediainfo.so.0:_ZN12MediaInfoLib10File_Mpeg439moov_trak_mdia_minf_stbl_stsd_tmcd_nameEv
libmediainfo.so.0:_ZN12MediaInfoLib10File_Mpeg439moov_trak_mdia_minf_stbl_stsd_tx3g_ftabEv
libmediainfo.so.0:_ZN12MediaInfoLib10File_Mpeg439moov_trak_mdia_minf_stbl_stsd_xxxxSoundEv
libmediainfo.so.0:_ZN12MediaInfoLib10File_Mpeg439moov_trak_mdia_minf_stbl_stsd_xxxxVideoEv
libmediainfo.so.0:_ZN12MediaInfoLib10File_Mpeg439moov_trak_mdia_minf_stbl_stsd_xxxx_AALPEv
libmediainfo.so.0:_ZN12MediaInfoLib10File_Mpeg439moov_trak_mdia_minf_stbl_stsd_xxxx_ACLREv
libmediainfo.so.0:_ZN12MediaInfoLib10File_Mpeg439moov_trak_mdia_minf_stbl_stsd_xxxx_AORDEv
libmediainfo.so.0:_ZN12MediaInfoLib10File_Mpeg439moov_trak_mdia_minf_stbl_stsd_xxxx_APRGEv
libmediainfo.so.0:_ZN12MediaInfoLib10File_Mpeg439moov_trak_mdia_minf_stbl_stsd_xxxx_ARESEv
libmediainfo.so.0:_ZN12MediaInfoLib10File_Mpeg439moov_trak_mdia_minf_stbl_stsd_xxxx_SA3DEv
libmediainfo.so.0:_ZN12MediaInfoLib10File_Mpeg439moov_trak_mdia_minf_stbl_stsd_xxxx_alacEv
libmediainfo.so.0:_ZN12MediaInfoLib10File_Mpeg439moov_trak_mdia_minf_stbl_stsd_xxxx_av1CEv
libmediainfo.so.0:_ZN12MediaInfoLib10File_Mpeg439moov_trak_mdia_minf_stbl_stsd_xxxx_avcCEv
libmediainfo.so.0:_ZN12MediaInfoLib10File_Mpeg439moov_trak_mdia_minf_stbl_stsd_xxxx_avcEEv
libmediainfo.so.0:_ZN12MediaInfoLib10File_Mpeg439moov_trak_mdia_minf_stbl_stsd_xxxx_bitrEv
libmediainfo.so.0:_ZN12MediaInfoLib10File_Mpeg439moov_trak_mdia_minf_stbl_stsd_xxxx_btrtEv
libmediainfo.so.0:_ZN12MediaInfoLib10File_Mpeg439moov_trak_mdia_minf_stbl_stsd_xxxx_ccstEv
libmediainfo.so.0:_ZN12MediaInfoLib10File_Mpeg439moov_trak_mdia_minf_stbl_stsd_xxxx_chanEv
libmediainfo.so.0:_ZN12MediaInfoLib10File_Mpeg439moov_trak_mdia_minf_stbl_stsd_xxxx_clapEv
libmediainfo.so.0:_ZN12MediaInfoLib10File_Mpeg439moov_trak_mdia_minf_stbl_stsd_xxxx_clliEv
libmediainfo.so.0:_ZN12MediaInfoLib10File_Mpeg439moov_trak_mdia_minf_stbl_stsd_xxxx_colrEv
libmediainfo.so.0:_ZN12MediaInfoLib10File_Mpeg439moov_trak_mdia_minf_stbl_stsd_xxxx_d263Ev
libmediainfo.so.0:_ZN12MediaInfoLib10File_Mpeg439moov_trak_mdia_minf_stbl_stsd_xxxx_dac3Ev
libmediainfo.so.0:_ZN12MediaInfoLib10File_Mpeg439moov_trak_mdia_minf_stbl_stsd_xxxx_dac4Ev
libmediainfo.so.0:_ZN12MediaInfoLib10File_Mpeg439moov_trak_mdia_minf_stbl_stsd_xxxx_damrEv
libmediainfo.so.0:_ZN12MediaInfoLib10File_Mpeg439moov_trak_mdia_minf_stbl_stsd_xxxx_ddtsEv
libmediainfo.so.0:_ZN12MediaInfoLib10File_Mpeg439moov_trak_mdia_minf_stbl_stsd_xxxx_dec3Ev
libmediainfo.so.0:_ZN12MediaInfoLib10File_Mpeg439moov_trak_mdia_minf_stbl_stsd_xxxx_dmlpEv
libmediainfo.so.0:_ZN12MediaInfoLib10File_Mpeg439moov_trak_mdia_minf_stbl_stsd_xxxx_dvc1Ev
libmediainfo.so.0:_ZN12MediaInfoLib10File_Mpeg439moov_trak_mdia_minf_stbl_stsd_xxxx_dvcCEv
libmediainfo.so.0:_ZN12MediaInfoLib10File_Mpeg439moov_trak_mdia_minf_stbl_stsd_xxxx_esdsEv
libmediainfo.so.0:_ZN12MediaInfoLib10File_Mpeg439moov_trak_mdia_minf_stbl_stsd_xxxx_fielEv
libmediainfo.so.0:_ZN12MediaInfoLib10File_Mpeg439moov_trak_mdia_minf_stbl_stsd_xxxx_glblEv
libmediainfo.so.0:_ZN12MediaInfoLib10File_Mpeg439moov_trak_mdia_minf_stbl_stsd_xxxx_hvcCEv
libmediainfo.so.0:_ZN12MediaInfoLib10File_Mpeg439moov_trak_mdia_minf_stbl_stsd_xxxx_hvcEEv
libmediainfo.so.0:_ZN12MediaInfoLib10File_Mpeg439moov_trak_mdia_minf_stbl_stsd_xxxx_idfmEv
libmediainfo.so.0:_ZN12MediaInfoLib10File_Mpeg439moov_trak_mdia_minf_stbl_stsd_xxxx_mdcvEv
libmediainfo.so.0:_ZN12MediaInfoLib10File_Mpeg439moov_trak_mdia_minf_stbl_stsd_xxxx_mhaCEv
libmediainfo.so.0:_ZN12MediaInfoLib10File_Mpeg439moov_trak_mdia_minf_stbl_stsd_xxxx_paspEv
libmediainfo.so.0:_ZN12MediaInfoLib10File_Mpeg439moov_trak_mdia_minf_stbl_stsd_xxxx_sinfEv
libmediainfo.so.0:_ZN12MediaInfoLib10File_Mpeg439moov_trak_mdia_minf_stbl_stsd_xxxx_waveEv
libmediainfo.so.0:_ZN12MediaInfoLib10File_Mpeg440moov_trak_mdia_minf_stbl_stsd_xxxxStreamEv
libmediainfo.so.0:_ZN12MediaInfoLib10File_Mpeg444moov_trak_mdia_minf_stbl_stsd_xxxx_colr_nclcEbb
libmediainfo.so.0:_ZN12MediaInfoLib10File_Mpeg444moov_trak_mdia_minf_stbl_stsd_xxxx_colr_profEv
libmediainfo.so.0:_ZN12MediaInfoLib10File_Mpeg444moov_trak_mdia_minf_stbl_stsd_xxxx_sinf_frmaEv
libmediainfo.so.0:_ZN12MediaInfoLib10File_Mpeg444moov_trak_mdia_minf_stbl_stsd_xxxx_sinf_imifEv
libmediainfo.so.0:_ZN12MediaInfoLib10File_Mpeg444moov_trak_mdia_minf_stbl_stsd_xxxx_sinf_schiEv
libmediainfo.so.0:_ZN12MediaInfoLib10File_Mpeg444moov_trak_mdia_minf_stbl_stsd_xxxx_sinf_schmEv
libmediainfo.so.0:_ZN12MediaInfoLib10File_Mpeg444moov_trak_mdia_minf_stbl_stsd_xxxx_wave_acbfEv
libmediainfo.so.0:_ZN12MediaInfoLib10File_Mpeg444moov_trak_mdia_minf_stbl_stsd_xxxx_wave_endaEv
libmediainfo.so.0:_ZN12MediaInfoLib10File_Mpeg444moov_trak_mdia_minf_stbl_stsd_xxxx_wave_frmaEv
libmediainfo.so.0:_ZN12MediaInfoLib10File_Mpeg444moov_trak_mdia_minf_stbl_stsd_xxxx_wave_samrEv
libmediainfo.so.0:_ZN12MediaInfoLib10File_Mpeg444moov_trak_mdia_minf_stbl_stsd_xxxx_wave_srcqEv
libmediainfo.so.0:_ZN12MediaInfoLib10File_Mpeg444moov_trak_mdia_minf_stbl_stsd_xxxx_wave_xxxxEv
libmediainfo.so.0:_ZN12MediaInfoLib10File_Mpeg44IsQtEv
libmediainfo.so.0:_ZN12MediaInfoLib10File_Mpeg44PICTEv
libmediainfo.so.0:_ZN12MediaInfoLib10File_Mpeg44RDAOEv
libmediainfo.so.0:_ZN12MediaInfoLib10File_Mpeg44RDASEv
libmediainfo.so.0:_ZN12MediaInfoLib10File_Mpeg44RDVOEv
libmediainfo.so.0:_ZN12MediaInfoLib10File_Mpeg44RDVSEv
libmediainfo.so.0:_ZN12MediaInfoLib10File_Mpeg44RED1Ev
libmediainfo.so.0:_ZN12MediaInfoLib10File_Mpeg44REDAEv
libmediainfo.so.0:_ZN12MediaInfoLib10File_Mpeg44REDVEv
libmediainfo.so.0:_ZN12MediaInfoLib10File_Mpeg44REOBEv
libmediainfo.so.0:_ZN12MediaInfoLib10File_Mpeg44blocEv
libmediainfo.so.0:_ZN12MediaInfoLib10File_Mpeg44cdatEv
libmediainfo.so.0:_ZN12MediaInfoLib10File_Mpeg44freeEv
libmediainfo.so.0:_ZN12MediaInfoLib10File_Mpeg44ftypEv
libmediainfo.so.0:_ZN12MediaInfoLib10File_Mpeg44idatEv
libmediainfo.so.0:_ZN12MediaInfoLib10File_Mpeg44idscEv
libmediainfo.so.0:_ZN12MediaInfoLib10File_Mpeg44jp2cEv
libmediainfo.so.0:_ZN12MediaInfoLib10File_Mpeg44jp2hEv
libmediainfo.so.0:_ZN12MediaInfoLib10File_Mpeg44mdatEv
libmediainfo.so.0:_ZN12MediaInfoLib10File_Mpeg44metaEv
libmediainfo.so.0:_ZN12MediaInfoLib10File_Mpeg44mfraEv
libmediainfo.so.0:_ZN12MediaInfoLib10File_Mpeg44moofEv
libmediainfo.so.0:_ZN12MediaInfoLib10File_Mpeg44moovEv
libmediainfo.so.0:_ZN12MediaInfoLib10File_Mpeg44pckgEv
libmediainfo.so.0:_ZN12MediaInfoLib10File_Mpeg44pdinEv
libmediainfo.so.0:_ZN12MediaInfoLib10File_Mpeg44pnotEv
libmediainfo.so.0:_ZN12MediaInfoLib10File_Mpeg44skipEv
libmediainfo.so.0:_ZN12MediaInfoLib10File_Mpeg44wideEv
libmediainfo.so.0:_ZN12MediaInfoLib10File_Mpeg46stream10SplitAudioERS1_j
libmediainfo.so.0:_ZN12MediaInfoLib10File_Mpeg46stream36moov_trak_mdia_minf_stbl_stts_CommonEjjjj
libmediainfo.so.0:_ZN12MediaInfoLib10File_Mpeg49jp2h_colrEv
libmediainfo.so.0:_ZN12MediaInfoLib10File_Mpeg49jp2h_ihdrEv
libmediainfo.so.0:_ZN12MediaInfoLib10File_Mpeg49mdat_xxxxEv
libmediainfo.so.0:_ZN12MediaInfoLib10File_Mpeg49meta_grplEv
libmediainfo.so.0:_ZN12MediaInfoLib10File_Mpeg49meta_idatEv
libmediainfo.so.0:_ZN12MediaInfoLib10File_Mpeg49meta_iinfEv
libmediainfo.so.0:_ZN12MediaInfoLib10File_Mpeg49meta_ilocEv
libmediainfo.so.0:_ZN12MediaInfoLib10File_Mpeg49meta_iprpEv
libmediainfo.so.0:_ZN12MediaInfoLib10File_Mpeg49meta_irefEv
libmediainfo.so.0:_ZN12MediaInfoLib10File_Mpeg49meta_pitmEv
libmediainfo.so.0:_ZN12MediaInfoLib10File_Mpeg49mfra_mfroEv
libmediainfo.so.0:_ZN12MediaInfoLib10File_Mpeg49mfra_tfraEv
libmediainfo.so.0:_ZN12MediaInfoLib10File_Mpeg49moof_mfhdEv
libmediainfo.so.0:_ZN12MediaInfoLib10File_Mpeg49moof_trafEv
libmediainfo.so.0:_ZN12MediaInfoLib10File_Mpeg49moov_ainfEv
libmediainfo.so.0:_ZN12MediaInfoLib10File_Mpeg49moov_cmovEv
libmediainfo.so.0:_ZN12MediaInfoLib10File_Mpeg49moov_ctabEv
libmediainfo.so.0:_ZN12MediaInfoLib10File_Mpeg49moov_iodsEv
libmediainfo.so.0:_ZN12MediaInfoLib10File_Mpeg49moov_metaEv
libmediainfo.so.0:_ZN12MediaInfoLib10File_Mpeg49moov_mvexEv
libmediainfo.so.0:_ZN12MediaInfoLib10File_Mpeg49moov_mvhdEv
libmediainfo.so.0:_ZN12MediaInfoLib10File_Mpeg49moov_trakEv
libmediainfo.so.0:_ZN12MediaInfoLib10File_Mpeg49moov_udtaEv
libmediainfo.so.0:_ZN12MediaInfoLib10File_Mpeg4C1Ev
libmediainfo.so.0:_ZN12MediaInfoLib10File_Mpeg4C2Ev
libmediainfo.so.0:_ZN12MediaInfoLib10File_Mpeg4D0Ev
libmediainfo.so.0:_ZN12MediaInfoLib10File_Mpeg4D1Ev
libmediainfo.so.0:_ZN12MediaInfoLib10File_Mpeg4D2Ev
libmediainfo.so.0:_ZN12MediaInfoLib10File_Mpega10Data_ParseEv
libmediainfo.so.0:_ZN12MediaInfoLib10File_Mpega11Header_VBRIEv
libmediainfo.so.0:_ZN12MediaInfoLib10File_Mpega11Header_XingEv
libmediainfo.so.0:_ZN12MediaInfoLib10File_Mpega11SynchronizeEv
libmediainfo.so.0:_ZN12MediaInfoLib10File_Mpega12Header_ParseEv
libmediainfo.so.0:_ZN12MediaInfoLib10File_Mpega12Streams_FillEv
libmediainfo.so.0:_ZN12MediaInfoLib10File_Mpega12Synched_TestEv
libmediainfo.so.0:_ZN12MediaInfoLib10File_Mpega14Streams_FinishEv
libmediainfo.so.0:_ZN12MediaInfoLib10File_Mpega15Data_Parse_FillEv
libmediainfo.so.0:_ZN12MediaInfoLib10File_Mpega15Header_EncodersEv
libmediainfo.so.0:_ZN12MediaInfoLib10File_Mpega16FileHeader_BeginEv
libmediainfo.so.0:_ZN12MediaInfoLib10File_Mpega17audio_data_Layer3Ev
libmediainfo.so.0:_ZN12MediaInfoLib10File_Mpega20Header_Encoders_LameEv
libmediainfo.so.0:_ZN12MediaInfoLib10File_Mpega21Encoded_Library_GuessEv
libmediainfo.so.0:_ZN12MediaInfoLib10File_Mpega31Demux_UnpacketizeContainer_TestEv
libmediainfo.so.0:_ZN12MediaInfoLib10File_MpegaC1Ev
libmediainfo.so.0:_ZN12MediaInfoLib10File_MpegaC2Ev
libmediainfo.so.0:_ZN12MediaInfoLib10File_Mpegv10Data_ParseEv
libmediainfo.so.0:_ZN12MediaInfoLib10File_Mpegv10Detect_EOFEv
libmediainfo.so.0:_ZN12MediaInfoLib10File_Mpegv11group_startEv
libmediainfo.so.0:_ZN12MediaInfoLib10File_Mpegv11slice_startEv
libmediainfo.so.0:_ZN12MediaInfoLib10File_Mpegv12Header_ParseEv
libmediainfo.so.0:_ZN12MediaInfoLib10File_Mpegv12Streams_FillEv
libmediainfo.so.0:_ZN12MediaInfoLib10File_Mpegv12Synched_InitEv
libmediainfo.so.0:_ZN12MediaInfoLib10File_Mpegv12Synched_TestEv
libmediainfo.so.0:_ZN12MediaInfoLib10File_Mpegv12sequence_endEv
libmediainfo.so.0:_ZN12MediaInfoLib10File_Mpegv13picture_startEv
libmediainfo.so.0:_ZN12MediaInfoLib10File_Mpegv14Streams_AcceptEv
libmediainfo.so.0:_ZN12MediaInfoLib10File_Mpegv14Streams_FinishEv
libmediainfo.so.0:_ZN12MediaInfoLib10File_Mpegv14Streams_UpdateEv
libmediainfo.so.0:_ZN12MediaInfoLib10File_Mpegv14sequence_errorEv
libmediainfo.so.0:_ZN12MediaInfoLib10File_Mpegv15extension_startEv
libmediainfo.so.0:_ZN12MediaInfoLib10File_Mpegv15sequence_headerEv
libmediainfo.so.0:_ZN12MediaInfoLib10File_Mpegv15user_data_startEv
libmediainfo.so.0:_ZN12MediaInfoLib10File_Mpegv17user_data_start_3Ev
libmediainfo.so.0:_ZN12MediaInfoLib10File_Mpegv18user_data_start_CCEv
libmediainfo.so.0:_ZN12MediaInfoLib10File_Mpegv20user_data_start_DTG1Ev
libmediainfo.so.0:_ZN12MediaInfoLib10File_Mpegv20user_data_start_GA94Ev
libmediainfo.so.0:_ZN12MediaInfoLib10File_Mpegv21Read_Buffer_UnsynchedEv
libmediainfo.so.0:_ZN12MediaInfoLib10File_Mpegv22slice_start_macroblockEv
libmediainfo.so.0:_ZN12MediaInfoLib10File_Mpegv23Header_Parser_Fill_SizeEv
libmediainfo.so.0:_ZN12MediaInfoLib10File_Mpegv23user_data_start_GA94_03Ev
libmediainfo.so.0:_ZN12MediaInfoLib10File_Mpegv23user_data_start_GA94_06Ev
libmediainfo.so.0:_ZN12MediaInfoLib10File_Mpegv24temporal_reference_AdaptEv
libmediainfo.so.0:_ZN12MediaInfoLib10File_Mpegv25Header_Parser_QuickSearchEv
libmediainfo.so.0:_ZN12MediaInfoLib10File_Mpegv28slice_start_macroblock_blockEh
libmediainfo.so.0:_ZN12MediaInfoLib10File_Mpegv31Demux_UnpacketizeContainer_TestEv
libmediainfo.so.0:_ZN12MediaInfoLib10File_Mpegv37slice_start_macroblock_motion_vectorsEb
libmediainfo.so.0:_ZN12MediaInfoLib10File_Mpegv42slice_start_macroblock_coded_block_patternEv
libmediainfo.so.0:_ZN12MediaInfoLib10File_Mpegv51slice_start_macroblock_motion_vectors_motion_vectorEbb
libmediainfo.so.0:_ZN12MediaInfoLib10File_MpegvC1Ev
libmediainfo.so.0:_ZN12MediaInfoLib10File_MpegvC2Ev
libmediainfo.so.0:_ZN12MediaInfoLib10File_MpegvD0Ev
libmediainfo.so.0:_ZN12MediaInfoLib10File_MpegvD1Ev
libmediainfo.so.0:_ZN12MediaInfoLib10File_MpegvD2Ev
libmediainfo.so.0:_ZN12MediaInfoLib10File_Other20Read_Buffer_ContinueEv
libmediainfo.so.0:_ZN12MediaInfoLib10File_Speex10Data_ParseEv
libmediainfo.so.0:_ZN12MediaInfoLib10File_Speex12Header_ParseEv
libmediainfo.so.0:_ZN12MediaInfoLib10File_Speex14IdentificationEv
libmediainfo.so.0:_ZN12MediaInfoLib10File_Speex7CommentEv
libmediainfo.so.0:_ZN12MediaInfoLib10File_SpeexC1Ev
libmediainfo.so.0:_ZN12MediaInfoLib10File_SpeexC2Ev
libmediainfo.so.0:_ZN12MediaInfoLib10File__Base12Language_SetEv
libmediainfo.so.0:_ZN12MediaInfoLib10File__Base3GetENS_8stream_tEmRKN6ZenLib6ZtringENS_6info_tES6_
libmediainfo.so.0:_ZN12MediaInfoLib10File__Base3GetENS_8stream_tEmmNS_6info_tE
libmediainfo.so.0:_ZN12MediaInfoLib10File__Base3SetENS_8stream_tEmRKN6ZenLib6ZtringES5_S5_
libmediainfo.so.0:_ZN12MediaInfoLib10File__Base3SetENS_8stream_tEmmRKN6ZenLib6ZtringES5_
libmediainfo.so.0:_ZN12MediaInfoLib10File__Base4InitEPNS_26MediaInfo_Config_MediaInfoEPNSt7__cxx1112basic_stringIcSt11char_traitsIcESaIcEEEPSt6vectorISA_IN6ZenLib10ZtringListESaISC_EESaISE_EEPSA_ISA_INSB_14ZtringListListESaISI_EESaISK_EE
libmediainfo.so.0:_ZN12MediaInfoLib10File__Base5ClearEv
libmediainfo.so.0:_ZN12MediaInfoLib10File__BaseC1Ev
libmediainfo.so.0:_ZN12MediaInfoLib10File__BaseC2Ev
libmediainfo.so.0:_ZN12MediaInfoLib10File__BaseD0Ev
libmediainfo.so.0:_ZN12MediaInfoLib10File__BaseD1Ev
libmediainfo.so.0:_ZN12MediaInfoLib10File__BaseD2Ev
libmediainfo.so.0:_ZN12MediaInfoLib10MatchQNameEPKN8tinyxml210XMLElementEPKcS5_
libmediainfo.so.0:_ZN12MediaInfoLib10Mpeg4_chanEt
libmediainfo.so.0:_ZN12MediaInfoLib10Mpeg7_TypeERNS_18MediaInfo_InternalE
libmediainfo.so.0:_ZN12MediaInfoLib10Mz_MachineEt
libmediainfo.so.0:_ZN12MediaInfoLib10RangeCoder12ResizeBufferEm
libmediainfo.so.0:_ZN12MediaInfoLib10RangeCoder12get_symbol_sEPh
libmediainfo.so.0:_ZN12MediaInfoLib10RangeCoder12get_symbol_uEPh
libmediainfo.so.0:_ZN12MediaInfoLib10RangeCoder13ForceUnderrunEv
libmediainfo.so.0:_ZN12MediaInfoLib10RangeCoder22AssignStateTransitionsEPKh
libmediainfo.so.0:_ZN12MediaInfoLib10RangeCoder7get_racEPh
libmediainfo.so.0:_ZN12MediaInfoLib10RangeCoder8UnderrunEv
libmediainfo.so.0:_ZN12MediaInfoLib10RangeCoder9BytesUsedEv
libmediainfo.so.0:_ZN12MediaInfoLib10RangeCoderC1EPKhmS2_
libmediainfo.so.0:_ZN12MediaInfoLib10RangeCoderC2EPKhmS2_
libmediainfo.so.0:_ZN12MediaInfoLib10XML_EncodeERKN6ZenLib6ZtringE
libmediainfo.so.0:_ZN12MediaInfoLib10XML_EncodeERKNSt7__cxx1112basic_stringIcSt11char_traitsIcESaIcEEE
libmediainfo.so.0:_ZN12MediaInfoLib11Elf_machineEt
libmediainfo.so.0:_ZN12MediaInfoLib11Export_Fims9TransformERNS_18MediaInfo_InternalENS0_7versionE
libmediainfo.so.0:_ZN12MediaInfoLib11Export_FimsC1Ev
libmediainfo.so.0:_ZN12MediaInfoLib11Export_FimsC2Ev
libmediainfo.so.0:_ZN12MediaInfoLib11Export_FimsD1Ev
libmediainfo.so.0:_ZN12MediaInfoLib11Export_FimsD2Ev
libmediainfo.so.0:_ZN12MediaInfoLib11Export_Niso9TransformERNS_18MediaInfo_InternalEN6ZenLib6ZtringES4_
libmediainfo.so.0:_ZN12MediaInfoLib11Export_NisoC1Ev
libmediainfo.so.0:_ZN12MediaInfoLib11Export_NisoC2Ev
libmediainfo.so.0:_ZN12MediaInfoLib11Export_NisoD1Ev
libmediainfo.so.0:_ZN12MediaInfoLib11Export_NisoD2Ev
libmediainfo.so.0:_ZN12MediaInfoLib11File_ApeTag10Data_ParseEv
libmediainfo.so.0:_ZN12MediaInfoLib11File_ApeTag12HeaderFooterEv
libmediainfo.so.0:_ZN12MediaInfoLib11File_ApeTag12Header_BeginEv
libmediainfo.so.0:_ZN12MediaInfoLib11File_ApeTag12Header_ParseEv
libmediainfo.so.0:_ZN12MediaInfoLib11File_ApeTag16FileHeader_ParseEv
libmediainfo.so.0:_ZN12MediaInfoLib11File_DcpCpl11MergeFromAmERSt6vectorINS_11File_DcpPkl6streamESaIS3_EE
libmediainfo.so.0:_ZN12MediaInfoLib11File_DcpCpl16FileHeader_BeginEv
libmediainfo.so.0:_ZN12MediaInfoLib11File_DcpCplC1Ev
libmediainfo.so.0:_ZN12MediaInfoLib11File_DcpCplC2Ev
libmediainfo.so.0:_ZN12MediaInfoLib11File_DcpPkl11MergeFromAmERSt6vectorINS0_6streamESaIS2_EE
libmediainfo.so.0:_ZN12MediaInfoLib11File_DcpPkl14Streams_FinishEv
libmediainfo.so.0:_ZN12MediaInfoLib11File_DcpPkl16FileHeader_BeginEv
libmediainfo.so.0:_ZN12MediaInfoLib11File_DcpPkl16Read_Buffer_SeekEmyy
libmediainfo.so.0:_ZN12MediaInfoLib11File_DcpPklC1Ev
libmediainfo.so.0:_ZN12MediaInfoLib11File_DcpPklC2Ev
libmediainfo.so.0:_ZN12MediaInfoLib11File_DolbyE10Data_ParseEv
libmediainfo.so.0:_ZN12MediaInfoLib11File_DolbyE10guard_bandEv
libmediainfo.so.0:_ZN12MediaInfoLib11File_DolbyE11SynchronizeEv
libmediainfo.so.0:_ZN12MediaInfoLib11File_DolbyE11mgi_payloadEv
libmediainfo.so.0:_ZN12MediaInfoLib11File_DolbyE11object_dataEhh
libmediainfo.so.0:_ZN12MediaInfoLib11File_DolbyE12Header_ParseEv
libmediainfo.so.0:_ZN12MediaInfoLib11File_DolbyE12Streams_FillEv
libmediainfo.so.0:_ZN12MediaInfoLib11File_DolbyE12Synched_TestEv
libmediainfo.so.0:_ZN12MediaInfoLib11File_DolbyE12sync_segmentEv
libmediainfo.so.0:_ZN12MediaInfoLib11File_DolbyE13audio_segmentEv
libmediainfo.so.0:_ZN12MediaInfoLib11File_DolbyE13meter_segmentEv
libmediainfo.so.0:_ZN12MediaInfoLib11File_DolbyE13oa_element_mdEb
libmediainfo.so.0:_ZN12MediaInfoLib11File_DolbyE14Streams_FinishEv
libmediainfo.so.0:_ZN12MediaInfoLib11File_DolbyE14evo_protectionEv
libmediainfo.so.0:_ZN12MediaInfoLib11File_DolbyE14md_update_infoERh
libmediainfo.so.0:_ZN12MediaInfoLib11File_DolbyE14object_elementEv
libmediainfo.so.0:_ZN12MediaInfoLib11File_DolbyE16Descramble_20bitEjt
libmediainfo.so.0:_ZN12MediaInfoLib11File_DolbyE16Streams_Fill_ED2Ev
libmediainfo.so.0:_ZN12MediaInfoLib11File_DolbyE16metadata_segmentEv
libmediainfo.so.0:_ZN12MediaInfoLib11File_DolbyE17block_update_infoEv
libmediainfo.so.0:_ZN12MediaInfoLib11File_DolbyE17object_basic_infoEhh
libmediainfo.so.0:_ZN12MediaInfoLib11File_DolbyE17object_info_blockEhh
libmediainfo.so.0:_ZN12MediaInfoLib11File_DolbyE18evo_payload_configEv
libmediainfo.so.0:_ZN12MediaInfoLib11File_DolbyE18object_render_infoEhh
libmediainfo.so.0:_ZN12MediaInfoLib11File_DolbyE18program_assignmentEv
libmediainfo.so.0:_ZN12MediaInfoLib11File_DolbyE21Read_Buffer_UnsynchedEv
libmediainfo.so.0:_ZN12MediaInfoLib11File_DolbyE23Streams_Fill_PerProgramEv
libmediainfo.so.0:_ZN12MediaInfoLib11File_DolbyE23ac3_metadata_subsegmentEb
libmediainfo.so.0:_ZN12MediaInfoLib11File_DolbyE23audio_extension_segmentEv
libmediainfo.so.0:_ZN12MediaInfoLib11File_DolbyE26metadata_extension_segmentEv
libmediainfo.so.0:_ZN12MediaInfoLib11File_DolbyE29object_audio_metadata_payloadEv
libmediainfo.so.0:_ZN12MediaInfoLib11File_DolbyE43intelligent_loudness_evolution_data_segmentEv
libmediainfo.so.0:_ZN12MediaInfoLib11File_DolbyE6Get_V4EhRjPKc
libmediainfo.so.0:_ZN12MediaInfoLib11File_DolbyE6Get_V4EhhRjPKc
libmediainfo.so.0:_ZN12MediaInfoLib11File_DolbyE7Skip_V4EhPKc
libmediainfo.so.0:_ZN12MediaInfoLib11File_DolbyE9evo_frameEv
libmediainfo.so.0:_ZN12MediaInfoLib11File_DolbyEC1Ev
libmediainfo.so.0:_ZN12MediaInfoLib11File_DolbyEC2Ev
libmediainfo.so.0:_ZN12MediaInfoLib11File_Dsdiff10Data_ParseEv
libmediainfo.so.0:_ZN12MediaInfoLib11File_Dsdiff12Header_ParseEv
libmediainfo.so.0:_ZN12MediaInfoLib11File_Dsdiff14DSD__DIIN_DIAREv
libmediainfo.so.0:_ZN12MediaInfoLib11File_Dsdiff14DSD__DIIN_DITIEv
libmediainfo.so.0:_ZN12MediaInfoLib11File_Dsdiff14DSD__DIIN_EMIDEv
libmediainfo.so.0:_ZN12MediaInfoLib11File_Dsdiff14DSD__DIIN_MARKEv
libmediainfo.so.0:_ZN12MediaInfoLib11File_Dsdiff14DSD__DST__DSTCEv
libmediainfo.so.0:_ZN12MediaInfoLib11File_Dsdiff14DSD__DST__DSTFEv
libmediainfo.so.0:_ZN12MediaInfoLib11File_Dsdiff14DSD__DST__FRTEEv
libmediainfo.so.0:_ZN12MediaInfoLib11File_Dsdiff14DSD__PROP_ABSSEv
libmediainfo.so.0:_ZN12MediaInfoLib11File_Dsdiff14DSD__PROP_CHNLEv
libmediainfo.so.0:_ZN12MediaInfoLib11File_Dsdiff14DSD__PROP_CMPREv
libmediainfo.so.0:_ZN12MediaInfoLib11File_Dsdiff14DSD__PROP_FS__Ev
libmediainfo.so.0:_ZN12MediaInfoLib11File_Dsdiff14DSD__PROP_LSCOEv
libmediainfo.so.0:_ZN12MediaInfoLib11File_Dsdiff14Streams_AcceptEv
libmediainfo.so.0:_ZN12MediaInfoLib11File_Dsdiff14Streams_FinishEv
libmediainfo.so.0:_ZN12MediaInfoLib11File_Dsdiff16FileHeader_BeginEv
libmediainfo.so.0:_ZN12MediaInfoLib11File_Dsdiff4DSD_Ev
libmediainfo.so.0:_ZN12MediaInfoLib11File_Dsdiff9DSD__COMTEv
libmediainfo.so.0:_ZN12MediaInfoLib11File_Dsdiff9DSD__DIINEv
libmediainfo.so.0:_ZN12MediaInfoLib11File_Dsdiff9DSD__DSD_Ev
libmediainfo.so.0:_ZN12MediaInfoLib11File_Dsdiff9DSD__DSTIEv
libmediainfo.so.0:_ZN12MediaInfoLib11File_Dsdiff9DSD__DST_Ev
libmediainfo.so.0:_ZN12MediaInfoLib11File_Dsdiff9DSD__FVEREv
libmediainfo.so.0:_ZN12MediaInfoLib11File_Dsdiff9DSD__ID3_Ev
libmediainfo.so.0:_ZN12MediaInfoLib11File_Dsdiff9DSD__PROPEv
libmediainfo.so.0:_ZN12MediaInfoLib11File_DsdiffC1Ev
libmediainfo.so.0:_ZN12MediaInfoLib11File_DsdiffC2Ev
libmediainfo.so.0:_ZN12MediaInfoLib11File_Eia60810HasChangedEv
libmediainfo.so.0:_ZN12MediaInfoLib11File_Eia60810Special_10Eh
libmediainfo.so.0:_ZN12MediaInfoLib11File_Eia60810Special_11Eh
libmediainfo.so.0:_ZN12MediaInfoLib11File_Eia60810Special_12Eh
libmediainfo.so.0:_ZN12MediaInfoLib11File_Eia60810Special_13Eh
libmediainfo.so.0:_ZN12MediaInfoLib11File_Eia60810Special_14Eh
libmediainfo.so.0:_ZN12MediaInfoLib11File_Eia60810Special_17Eh
libmediainfo.so.0:_ZN12MediaInfoLib11File_Eia60811XDS_ChannelEv
libmediainfo.so.0:_ZN12MediaInfoLib11File_Eia60811XDS_CurrentEv
libmediainfo.so.0:_ZN12MediaInfoLib11File_Eia60812Streams_FillEv
libmediainfo.so.0:_ZN12MediaInfoLib11File_Eia60814Character_FillEw
libmediainfo.so.0:_ZN12MediaInfoLib11File_Eia60814Streams_FinishEv
libmediainfo.so.0:_ZN12MediaInfoLib11File_Eia60816Read_Buffer_InitEv
libmediainfo.so.0:_ZN12MediaInfoLib11File_Eia60817XDS_PublicServiceEv
libmediainfo.so.0:_ZN12MediaInfoLib11File_Eia60819PreambleAddressCodeEhh
libmediainfo.so.0:_ZN12MediaInfoLib11File_Eia60820Read_Buffer_ContinueEv
libmediainfo.so.0:_ZN12MediaInfoLib11File_Eia60821Read_Buffer_UnsynchedEv
libmediainfo.so.0:_ZN12MediaInfoLib11File_Eia60823XDS_Channel_NetworkNameEv
libmediainfo.so.0:_ZN12MediaInfoLib11File_Eia60823XDS_Current_ProgramNameEv
libmediainfo.so.0:_ZN12MediaInfoLib11File_Eia60824Read_Buffer_AfterParsingEv
libmediainfo.so.0:_ZN12MediaInfoLib11File_Eia60827XDS_Current_ContentAdvisoryEv
libmediainfo.so.0:_ZN12MediaInfoLib11File_Eia6083XDSEhh
libmediainfo.so.0:_ZN12MediaInfoLib11File_Eia6083XDSEv
libmediainfo.so.0:_ZN12MediaInfoLib11File_Eia60840XDS_PublicService_NationalWeatherServiceEv
libmediainfo.so.0:_ZN12MediaInfoLib11File_Eia60846XDS_Current_CopyAndRedistributionControlPacketEv
libmediainfo.so.0:_ZN12MediaInfoLib11File_Eia6087IllegalEhh
libmediainfo.so.0:_ZN12MediaInfoLib11File_Eia6087SpecialEhh
libmediainfo.so.0:_ZN12MediaInfoLib11File_Eia6088StandardEh
libmediainfo.so.0:_ZN12MediaInfoLib11File_Eia608C1Ev
libmediainfo.so.0:_ZN12MediaInfoLib11File_Eia608C2Ev
libmediainfo.so.0:_ZN12MediaInfoLib11File_Eia608D0Ev
libmediainfo.so.0:_ZN12MediaInfoLib11File_Eia608D1Ev
libmediainfo.so.0:_ZN12MediaInfoLib11File_Eia608D2Ev
libmediainfo.so.0:_ZN12MediaInfoLib11File_Eia70810Data_ParseEv
libmediainfo.so.0:_ZN12MediaInfoLib11File_Eia70810HasChangedEv
libmediainfo.so.0:_ZN12MediaInfoLib11File_Eia70811SynchronizeEv
libmediainfo.so.0:_ZN12MediaInfoLib11File_Eia70812Header_ParseEv
libmediainfo.so.0:_ZN12MediaInfoLib11File_Eia70812Streams_FillEv
libmediainfo.so.0:_ZN12MediaInfoLib11File_Eia70812Synched_TestEv
libmediainfo.so.0:_ZN12MediaInfoLib11File_Eia70814Character_FillEw
libmediainfo.so.0:_ZN12MediaInfoLib11File_Eia70814Streams_FinishEv
libmediainfo.so.0:_ZN12MediaInfoLib11File_Eia70816Read_Buffer_InitEv
libmediainfo.so.0:_ZN12MediaInfoLib11File_Eia70817Window_HasChangedEv
libmediainfo.so.0:_ZN12MediaInfoLib11File_Eia70820Read_Buffer_ContinueEv
libmediainfo.so.0:_ZN12MediaInfoLib11File_Eia70821Read_Buffer_UnsynchedEv
libmediainfo.so.0:_ZN12MediaInfoLib11File_Eia7082BSEv
libmediainfo.so.0:_ZN12MediaInfoLib11File_Eia7082CREv
libmediainfo.so.0:_ZN12MediaInfoLib11File_Eia7082FFEv
libmediainfo.so.0:_ZN12MediaInfoLib11File_Eia7083CLWEv
libmediainfo.so.0:_ZN12MediaInfoLib11File_Eia7083CWxEh
libmediainfo.so.0:_ZN12MediaInfoLib11File_Eia7083DFxEh
libmediainfo.so.0:_ZN12MediaInfoLib11File_Eia7083DLCEv
libmediainfo.so.0:_ZN12MediaInfoLib11File_Eia7083DLWEv
libmediainfo.so.0:_ZN12MediaInfoLib11File_Eia7083DLYEv
libmediainfo.so.0:_ZN12MediaInfoLib11File_Eia7083DSWEv
libmediainfo.so.0:_ZN12MediaInfoLib11File_Eia7083ETXEv
libmediainfo.so.0:_ZN12MediaInfoLib11File_Eia7083HCREv
libmediainfo.so.0:_ZN12MediaInfoLib11File_Eia7083HDWEv
libmediainfo.so.0:_ZN12MediaInfoLib11File_Eia7083NULEv
libmediainfo.so.0:_ZN12MediaInfoLib11File_Eia7083RSTEv
libmediainfo.so.0:_ZN12MediaInfoLib11File_Eia7083SPAEv
libmediainfo.so.0:_ZN12MediaInfoLib11File_Eia7083SPCEv
libmediainfo.so.0:_ZN12MediaInfoLib11File_Eia7083SPLEv
libmediainfo.so.0:_ZN12MediaInfoLib11File_Eia7083SWAEv
libmediainfo.so.0:_ZN12MediaInfoLib11File_Eia7083TGWEv
libmediainfo.so.0:_ZN12MediaInfoLib11File_Eia7087IllegalEhhhhhhh
libmediainfo.so.0:_ZN12MediaInfoLib11File_Eia7087ServiceEv
libmediainfo.so.0:_ZN12MediaInfoLib11File_Eia708C1Ev
libmediainfo.so.0:_ZN12MediaInfoLib11File_Eia708C2Ev
libmediainfo.so.0:_ZN12MediaInfoLib11File_Eia708D0Ev
libmediainfo.so.0:_ZN12MediaInfoLib11File_Eia708D1Ev
libmediainfo.so.0:_ZN12MediaInfoLib11File_Eia708D2Ev
libmediainfo.so.0:_ZN12MediaInfoLib11File_HdsF4m16FileHeader_BeginEv
libmediainfo.so.0:_ZN12MediaInfoLib11File_HdsF4mC1Ev
libmediainfo.so.0:_ZN12MediaInfoLib11File_HdsF4mC2Ev
libmediainfo.so.0:_ZN12MediaInfoLib11File_Module16FileHeader_BeginEv
libmediainfo.so.0:_ZN12MediaInfoLib11File_Module20Read_Buffer_ContinueEv
libmediainfo.so.0:_ZN12MediaInfoLib11File_MpcSv810Data_ParseEv
libmediainfo.so.0:_ZN12MediaInfoLib11File_MpcSv812Header_BeginEv
libmediainfo.so.0:_ZN12MediaInfoLib11File_MpcSv812Header_ParseEv
libmediainfo.so.0:_ZN12MediaInfoLib11File_MpcSv816FileHeader_BeginEv
libmediainfo.so.0:_ZN12MediaInfoLib11File_MpcSv816FileHeader_ParseEv
libmediainfo.so.0:_ZN12MediaInfoLib11File_MpcSv82APEv
libmediainfo.so.0:_ZN12MediaInfoLib11File_MpcSv82EIEv
libmediainfo.so.0:_ZN12MediaInfoLib11File_MpcSv82RGEv
libmediainfo.so.0:_ZN12MediaInfoLib11File_MpcSv82SHEv
libmediainfo.so.0:_ZN12MediaInfoLib11File_MpcSv82SOEv
libmediainfo.so.0:_ZN12MediaInfoLib11File_MpcSv8C1Ev
libmediainfo.so.0:_ZN12MediaInfoLib11File_MpcSv8C2Ev
libmediainfo.so.0:_ZN12MediaInfoLib11File_Mpeg4v10Data_ParseEv
libmediainfo.so.0:_ZN12MediaInfoLib11File_Mpeg4v11slice_startEv
libmediainfo.so.0:_ZN12MediaInfoLib11File_Mpeg4v12Header_ParseEv
libmediainfo.so.0:_ZN12MediaInfoLib11File_Mpeg4v12Streams_FillEv
libmediainfo.so.0:_ZN12MediaInfoLib11File_Mpeg4v12Synched_InitEv
libmediainfo.so.0:_ZN12MediaInfoLib11File_Mpeg4v12Synched_TestEv
libmediainfo.so.0:_ZN12MediaInfoLib11File_Mpeg4v12fgs_bp_startEv
libmediainfo.so.0:_ZN12MediaInfoLib11File_Mpeg4v13fgs_vop_startEv
libmediainfo.so.0:_ZN12MediaInfoLib11File_Mpeg4v14Streams_FinishEv
libmediainfo.so.0:_ZN12MediaInfoLib11File_Mpeg4v14stuffing_startEv
libmediainfo.so.0:_ZN12MediaInfoLib11File_Mpeg4v15extension_startEv
libmediainfo.so.0:_ZN12MediaInfoLib11File_Mpeg4v15user_data_startEv
libmediainfo.so.0:_ZN12MediaInfoLib11File_Mpeg4v16fba_object_startEv
libmediainfo.so.0:_ZN12MediaInfoLib11File_Mpeg4v17mesh_object_startEv
libmediainfo.so.0:_ZN12MediaInfoLib11File_Mpeg4v18group_of_vop_startEv
libmediainfo.so.0:_ZN12MediaInfoLib11File_Mpeg4v18texture_tile_startEv
libmediainfo.so.0:_ZN12MediaInfoLib11File_Mpeg4v18video_object_startEv
libmediainfo.so.0:_ZN12MediaInfoLib11File_Mpeg4v19user_data_start_SNCEv
libmediainfo.so.0:_ZN12MediaInfoLib11File_Mpeg4v19video_session_errorEv
libmediainfo.so.0:_ZN12MediaInfoLib11File_Mpeg4v19visual_object_startEv
libmediainfo.so.0:_ZN12MediaInfoLib11File_Mpeg4v21Read_Buffer_UnsynchedEv
libmediainfo.so.0:_ZN12MediaInfoLib11File_Mpeg4v22fba_object_plane_startEv
libmediainfo.so.0:_ZN12MediaInfoLib11File_Mpeg4v23Header_Parser_Fill_SizeEv
libmediainfo.so.0:_ZN12MediaInfoLib11File_Mpeg4v23mesh_object_plane_startEv
libmediainfo.so.0:_ZN12MediaInfoLib11File_Mpeg4v23texture_snr_layer_startEv
libmediainfo.so.0:_ZN12MediaInfoLib11File_Mpeg4v24video_object_layer_startEv
libmediainfo.so.0:_ZN12MediaInfoLib11File_Mpeg4v25Header_Parser_QuickSearchEv
libmediainfo.so.0:_ZN12MediaInfoLib11File_Mpeg4v25texture_shape_layer_startEv
libmediainfo.so.0:_ZN12MediaInfoLib11File_Mpeg4v26still_texture_object_startEv
libmediainfo.so.0:_ZN12MediaInfoLib11File_Mpeg4v26visual_object_sequence_endEv
libmediainfo.so.0:_ZN12MediaInfoLib11File_Mpeg4v27texture_spatial_layer_startEv
libmediainfo.so.0:_ZN12MediaInfoLib11File_Mpeg4v28visual_object_sequence_startEv
libmediainfo.so.0:_ZN12MediaInfoLib11File_Mpeg4v31Demux_UnpacketizeContainer_TestEv
libmediainfo.so.0:_ZN12MediaInfoLib11File_Mpeg4v7OnlyVOPEv
libmediainfo.so.0:_ZN12MediaInfoLib11File_Mpeg4v8reservedEv
libmediainfo.so.0:_ZN12MediaInfoLib11File_Mpeg4v9vop_startEv
libmediainfo.so.0:_ZN12MediaInfoLib11File_Mpeg4vC1Ev
libmediainfo.so.0:_ZN12MediaInfoLib11File_Mpeg4vC2Ev
libmediainfo.so.0:_ZN12MediaInfoLib11File_MpegPs10Data_ParseEv
libmediainfo.so.0:_ZN12MediaInfoLib11File_MpegPs10pack_startEv
libmediainfo.so.0:_ZN12MediaInfoLib11File_MpegPs11SynchronizeEv
libmediainfo.so.0:_ZN12MediaInfoLib11File_MpegPs12Bitrate_CalcEv
libmediainfo.so.0:_ZN12MediaInfoLib11File_MpegPs12Header_ParseEv
libmediainfo.so.0:_ZN12MediaInfoLib11File_MpegPs12MergeGeneralEPNS_13File__AnalyzeENS_7generalE
libmediainfo.so.0:_ZN12MediaInfoLib11File_MpegPs12Streams_FillEv
libmediainfo.so.0:_ZN12MediaInfoLib11File_MpegPs12Synched_InitEv
libmediainfo.so.0:_ZN12MediaInfoLib11File_MpegPs12Synched_TestEv
libmediainfo.so.0:_ZN12MediaInfoLib11File_MpegPs12audio_streamEv
libmediainfo.so.0:_ZN12MediaInfoLib11File_MpegPs12video_streamEv
libmediainfo.so.0:_ZN12MediaInfoLib11File_MpegPs14Streams_FinishEv
libmediainfo.so.0:_ZN12MediaInfoLib11File_MpegPs14Streams_UpdateEv
libmediainfo.so.0:_ZN12MediaInfoLib11File_MpegPs14padding_streamEv
libmediainfo.so.0:_ZN12MediaInfoLib11File_MpegPs15BookMark_NeededEv
libmediainfo.so.0:_ZN12MediaInfoLib11File_MpegPs16ChooseParser_AACEv
libmediainfo.so.0:_ZN12MediaInfoLib11File_MpegPs16ChooseParser_AC3Ev
libmediainfo.so.0:_ZN12MediaInfoLib11File_MpegPs16ChooseParser_AC4Ev
libmediainfo.so.0:_ZN12MediaInfoLib11File_MpegPs16ChooseParser_AvcEv
libmediainfo.so.0:_ZN12MediaInfoLib11File_MpegPs16ChooseParser_DTSEv
libmediainfo.so.0:_ZN12MediaInfoLib11File_MpegPs16ChooseParser_PCMEv
libmediainfo.so.0:_ZN12MediaInfoLib11File_MpegPs16ChooseParser_PGSEv
libmediainfo.so.0:_ZN12MediaInfoLib11File_MpegPs16ChooseParser_PS2Ev
libmediainfo.so.0:_ZN12MediaInfoLib11File_MpegPs16ChooseParser_RLEEv
libmediainfo.so.0:_ZN12MediaInfoLib11File_MpegPs16ChooseParser_VC1Ev
libmediainfo.so.0:_ZN12MediaInfoLib11File_MpegPs16MPEG_program_endEv
libmediainfo.so.0:_ZN12MediaInfoLib11File_MpegPs16Read_Buffer_InitEv
libmediainfo.so.0:_ZN12MediaInfoLib11File_MpegPs16Read_Buffer_SeekEmyy
libmediainfo.so.0:_ZN12MediaInfoLib11File_MpegPs16extension_streamEv
libmediainfo.so.0:_ZN12MediaInfoLib11File_MpegPs16private_stream_1Ev
libmediainfo.so.0:_ZN12MediaInfoLib11File_MpegPs16private_stream_2Ev
libmediainfo.so.0:_ZN12MediaInfoLib11File_MpegPs16xxx_stream_ParseERNS0_9ps_streamERh
libmediainfo.so.0:_ZN12MediaInfoLib11File_MpegPs17ChooseParser_AdtsEv
libmediainfo.so.0:_ZN12MediaInfoLib11File_MpegPs17ChooseParser_HevcEv
libmediainfo.so.0:_ZN12MediaInfoLib11File_MpegPs17ChooseParser_LatmEv
libmediainfo.so.0:_ZN12MediaInfoLib11File_MpegPs17ChooseParser_NULLEv
libmediainfo.so.0:_ZN12MediaInfoLib11File_MpegPs17ChooseParser_SDDSEv
libmediainfo.so.0:_ZN12MediaInfoLib11File_MpegPs17Output_Buffer_GetERKNSt7__cxx1112basic_stringIwSt11char_traitsIwESaIwEEE
libmediainfo.so.0:_ZN12MediaInfoLib11File_MpegPs17Output_Buffer_GetEm
libmediainfo.so.0:_ZN12MediaInfoLib11File_MpegPs18ChooseParser_DiracEv
libmediainfo.so.0:_ZN12MediaInfoLib11File_MpegPs18ChooseParser_MpegaEv
libmediainfo.so.0:_ZN12MediaInfoLib11File_MpegPs18ChooseParser_MpegvEv
libmediainfo.so.0:_ZN12MediaInfoLib11File_MpegPs18program_stream_mapEv
libmediainfo.so.0:_ZN12MediaInfoLib11File_MpegPs19ChooseParser_Mpeg4vEv
libmediainfo.so.0:_ZN12MediaInfoLib11File_MpegPs19system_header_startEv
libmediainfo.so.0:_ZN12MediaInfoLib11File_MpegPs20Read_Buffer_ContinueEv
libmediainfo.so.0:_ZN12MediaInfoLib11File_MpegPs20SL_packetized_streamEv
libmediainfo.so.0:_ZN12MediaInfoLib11File_MpegPs21ChooseParser_Mpegh3daEv
libmediainfo.so.0:_ZN12MediaInfoLib11File_MpegPs21ChooseParser_TeletextEv
libmediainfo.so.0:_ZN12MediaInfoLib11File_MpegPs21Read_Buffer_UnsynchedEv
libmediainfo.so.0:_ZN12MediaInfoLib11File_MpegPs22Header_Parse_Fill_SizeEv
libmediainfo.so.0:_ZN12MediaInfoLib11File_MpegPs22Streams_Fill_PerStreamEmRNS0_9ps_streamENS0_12kindofstreamE
libmediainfo.so.0:_ZN12MediaInfoLib11File_MpegPs23Header_Parse_PES_packetEh
libmediainfo.so.0:_ZN12MediaInfoLib11File_MpegPs24ChooseParser_DvbSubtitleEv
libmediainfo.so.0:_ZN12MediaInfoLib11File_MpegPs24ChooseParser_SmpteSt0302Ev
libmediainfo.so.0:_ZN12MediaInfoLib11File_MpegPs24Read_Buffer_AfterParsingEv
libmediainfo.so.0:_ZN12MediaInfoLib11File_MpegPs24Streams_Finish_PerStreamEmRNS0_9ps_streamENS0_12kindofstreamE
libmediainfo.so.0:_ZN12MediaInfoLib11File_MpegPs24private_stream_2_TSHV_A0Ev
libmediainfo.so.0:_ZN12MediaInfoLib11File_MpegPs24private_stream_2_TSHV_A1Ev
libmediainfo.so.0:_ZN12MediaInfoLib11File_MpegPs25Header_Parser_QuickSearchEv
libmediainfo.so.0:_ZN12MediaInfoLib11File_MpegPs26ChooseParser_AribStdB24B37Eb
libmediainfo.so.0:_ZN12MediaInfoLib11File_MpegPs29Header_Parse_PES_packet_MPEG1Eh
libmediainfo.so.0:_ZN12MediaInfoLib11File_MpegPs29Header_Parse_PES_packet_MPEG2Eh
libmediainfo.so.0:_ZN12MediaInfoLib11File_MpegPs29private_stream_1_ChooseParserEv
libmediainfo.so.0:_ZN12MediaInfoLib11File_MpegPs30Streams_Fill_PerStream_PerKindEmRNS0_9ps_streamENS0_12kindofstreamEm
libmediainfo.so.0:_ZN12MediaInfoLib11File_MpegPs30private_stream_1_Choose_DVD_IDEv
libmediainfo.so.0:_ZN12MediaInfoLib11File_MpegPs30private_stream_1_Element_Info1Ev
libmediainfo.so.0:_ZN12MediaInfoLib11File_MpegPs32extension_stream_ChooseExtensionEv
libmediainfo.so.0:_ZN12MediaInfoLib11File_MpegPs32private_stream_1_ChooseExtensionEv
libmediainfo.so.0:_ZN12MediaInfoLib11File_MpegPsC1Ev
libmediainfo.so.0:_ZN12MediaInfoLib11File_MpegPsC2Ev
libmediainfo.so.0:_ZN12MediaInfoLib11File_MpegPsD0Ev
libmediainfo.so.0:_ZN12MediaInfoLib11File_MpegPsD1Ev
libmediainfo.so.0:_ZN12MediaInfoLib11File_MpegPsD2Ev
libmediainfo.so.0:_ZN12MediaInfoLib11File_MpegTs10Data_ParseEv
libmediainfo.so.0:_ZN12MediaInfoLib11File_MpegTs11SetAllToPESEv
libmediainfo.so.0:_ZN12MediaInfoLib11File_MpegTs11SynchronizeEv
libmediainfo.so.0:_ZN12MediaInfoLib11File_MpegTs12Header_ParseEv
libmediainfo.so.0:_ZN12MediaInfoLib11File_MpegTs12MergeGeneralEPNS_15complete_stream6streamENS_7generalE
libmediainfo.so.0:_ZN12MediaInfoLib11File_MpegTs12Streams_FillEv
libmediainfo.so.0:_ZN12MediaInfoLib11File_MpegTs12Synched_InitEv
libmediainfo.so.0:_ZN12MediaInfoLib11File_MpegTs12Synched_TestEv
libmediainfo.so.0:_ZN12MediaInfoLib11File_MpegTs13Option_ManageEv
libmediainfo.so.0:_ZN12MediaInfoLib11File_MpegTs14Streams_AcceptEv
libmediainfo.so.0:_ZN12MediaInfoLib11File_MpegTs14Streams_FinishEv
libmediainfo.so.0:_ZN12MediaInfoLib11File_MpegTs14Streams_UpdateEv
libmediainfo.so.0:_ZN12MediaInfoLib11File_MpegTs16FileHeader_BeginEv
libmediainfo.so.0:_ZN12MediaInfoLib11File_MpegTs16PES_Parse_FinishEv
libmediainfo.so.0:_ZN12MediaInfoLib11File_MpegTs16Read_Buffer_SeekEmyy
libmediainfo.so.0:_ZN12MediaInfoLib11File_MpegTs17Output_Buffer_GetERKNSt7__cxx1112basic_stringIwSt11char_traitsIwESaIwEEE
libmediainfo.so.0:_ZN12MediaInfoLib11File_MpegTs17Output_Buffer_GetEm
libmediainfo.so.0:_ZN12MediaInfoLib11File_MpegTs18Streams_Update_EPGEv
libmediainfo.so.0:_ZN12MediaInfoLib11File_MpegTs19File__Duplicate_SetERKN6ZenLib6ZtringE
libmediainfo.so.0:_ZN12MediaInfoLib11File_MpegTs19Header_Parse_EventsEv
libmediainfo.so.0:_ZN12MediaInfoLib11File_MpegTs20Read_Buffer_ContinueEv
libmediainfo.so.0:_ZN12MediaInfoLib11File_MpegTs21File__Duplicate_WriteEv
libmediainfo.so.0:_ZN12MediaInfoLib11File_MpegTs21Read_Buffer_UnsynchedEv
libmediainfo.so.0:_ZN12MediaInfoLib11File_MpegTs22transport_private_dataEh
libmediainfo.so.0:_ZN12MediaInfoLib11File_MpegTs23Streams_Update_ProgramsEv
libmediainfo.so.0:_ZN12MediaInfoLib11File_MpegTs24Read_Buffer_AfterParsingEv
libmediainfo.so.0:_ZN12MediaInfoLib11File_MpegTs27Streams_Update_Duration_EndEv
libmediainfo.so.0:_ZN12MediaInfoLib11File_MpegTs28Header_Parse_AdaptationFieldEv
libmediainfo.so.0:_ZN12MediaInfoLib11File_MpegTs28Header_Parse_Events_DurationEy
libmediainfo.so.0:_ZN12MediaInfoLib11File_MpegTs29Streams_Update_EPG_PerProgramESt17_Rb_tree_iteratorISt4pairIKtNS_15complete_stream16transport_stream7programEEE
libmediainfo.so.0:_ZN12MediaInfoLib11File_MpegTs30File__Duplicate_Streams_FinishEv
libmediainfo.so.0:_ZN12MediaInfoLib11File_MpegTs30Streams_Update_Duration_UpdateEv
libmediainfo.so.0:_ZN12MediaInfoLib11File_MpegTs33Streams_Update_Programs_PerStreamEm
libmediainfo.so.0:_ZN12MediaInfoLib11File_MpegTs35Header_Parse_Events_Duration_HelperERyb
libmediainfo.so.0:_ZN12MediaInfoLib11File_MpegTs3PESEv
libmediainfo.so.0:_ZN12MediaInfoLib11File_MpegTs3PSIEv
libmediainfo.so.0:_ZN12MediaInfoLib11File_MpegTsC1Ev
libmediainfo.so.0:_ZN12MediaInfoLib11File_MpegTsC2Ev
libmediainfo.so.0:_ZN12MediaInfoLib11File_MpegTsD0Ev
libmediainfo.so.0:_ZN12MediaInfoLib11File_MpegTsD1Ev
libmediainfo.so.0:_ZN12MediaInfoLib11File_MpegTsD2Ev
libmediainfo.so.0:_ZN12MediaInfoLib11File_OpenMG12Streams_FillEv
libmediainfo.so.0:_ZN12MediaInfoLib11File_OpenMG16FileHeader_BeginEv
libmediainfo.so.0:_ZN12MediaInfoLib11File_OpenMG16FileHeader_ParseEv
libmediainfo.so.0:_ZN12MediaInfoLib11File_OpenMG20Read_Buffer_ContinueEv
libmediainfo.so.0:_ZN12MediaInfoLib11File_OpenMGC1Ev
libmediainfo.so.0:_ZN12MediaInfoLib11File_OpenMGC2Ev
libmediainfo.so.0:_ZN12MediaInfoLib11File_ProRes12Streams_FillEv
libmediainfo.so.0:_ZN12MediaInfoLib11File_ProRes20Read_Buffer_ContinueEv
libmediainfo.so.0:_ZN12MediaInfoLib11File_ProResC1Ev
libmediainfo.so.0:_ZN12MediaInfoLib11File_ProResC2Ev
libmediainfo.so.0:_ZN12MediaInfoLib11File_Scte2014Streams_FinishEv
libmediainfo.so.0:_ZN12MediaInfoLib11File_Scte2014Streams_UpdateEv
libmediainfo.so.0:_ZN12MediaInfoLib11File_Scte2016Read_Buffer_InitEv
libmediainfo.so.0:_ZN12MediaInfoLib11File_Scte2020Read_Buffer_ContinueEv
libmediainfo.so.0:_ZN12MediaInfoLib11File_Scte2021Read_Buffer_UnsynchedEv
libmediainfo.so.0:_ZN12MediaInfoLib11File_Scte2024Streams_Update_PerStreamEm
libmediainfo.so.0:_ZN12MediaInfoLib11File_Scte20C1Ev
libmediainfo.so.0:_ZN12MediaInfoLib11File_Scte20C2Ev
libmediainfo.so.0:_ZN12MediaInfoLib11File_Scte20D0Ev
libmediainfo.so.0:_ZN12MediaInfoLib11File_Scte20D1Ev
libmediainfo.so.0:_ZN12MediaInfoLib11File_Scte20D2Ev
libmediainfo.so.0:_ZN12MediaInfoLib11File_SubRip16FileHeader_BeginEv
libmediainfo.so.0:_ZN12MediaInfoLib11File_SubRip16Read_Buffer_SeekEmyy
libmediainfo.so.0:_ZN12MediaInfoLib11File_SubRip20Read_Buffer_ContinueEv
libmediainfo.so.0:_ZN12MediaInfoLib11File_SubRipC1Ev
libmediainfo.so.0:_ZN12MediaInfoLib11File_SubRipC2Ev
libmediainfo.so.0:_ZN12MediaInfoLib11File_Theora10Data_ParseEv
libmediainfo.so.0:_ZN12MediaInfoLib11File_Theora12Header_ParseEv
libmediainfo.so.0:_ZN12MediaInfoLib11File_Theora14IdentificationEv
libmediainfo.so.0:_ZN12MediaInfoLib11File_Theora5SetupEv
libmediainfo.so.0:_ZN12MediaInfoLib11File_TwinVQ10Data_ParseEv
libmediainfo.so.0:_ZN12MediaInfoLib11File_TwinVQ12Header_ParseEv
libmediainfo.so.0:_ZN12MediaInfoLib11File_TwinVQ16FileHeader_BeginEv
libmediainfo.so.0:_ZN12MediaInfoLib11File_TwinVQ16FileHeader_ParseEv
libmediainfo.so.0:_ZN12MediaInfoLib11File_TwinVQ4COMMEv
libmediainfo.so.0:_ZN12MediaInfoLib11File_TwinVQ4DATAEv
libmediainfo.so.0:_ZN12MediaInfoLib11File_TwinVQ4DSIZEv
libmediainfo.so.0:_ZN12MediaInfoLib11File_TwinVQ9_____charEPKc
libmediainfo.so.0:_ZN12MediaInfoLib11File_TwinVQ9_____charEv
libmediainfo.so.0:_ZN12MediaInfoLib11File_Vorbis10Data_ParseEv
libmediainfo.so.0:_ZN12MediaInfoLib11File_Vorbis12Header_ParseEv
libmediainfo.so.0:_ZN12MediaInfoLib11File_Vorbis14IdentificationEv
libmediainfo.so.0:_ZN12MediaInfoLib11File_Vorbis5SetupEv
libmediainfo.so.0:_ZN12MediaInfoLib11HashWrapper10Hex2StringB5cxx11EPKhm
libmediainfo.so.0:_ZN12MediaInfoLib11HashWrapper4InitERKSt6bitsetILm6EE
libmediainfo.so.0:_ZN12MediaInfoLib11HashWrapper4NameB5cxx11ENS0_12HashFunctionE
libmediainfo.so.0:_ZN12MediaInfoLib11HashWrapper6UpdateEPKhm
libmediainfo.so.0:_ZN12MediaInfoLib11HashWrapper8GenerateB5cxx11ENS0_12HashFunctionE
libmediainfo.so.0:_ZN12MediaInfoLib11HashWrapperD1Ev
libmediainfo.so.0:_ZN12MediaInfoLib11HashWrapperD2Ev
libmediainfo.so.0:_ZN12MediaInfoLib11JSON_EncodeERKNSt7__cxx1112basic_stringIcSt11char_traitsIcESaIcEEE
libmediainfo.so.0:_ZN12MediaInfoLib11Jpeg_AddDecERNSt7__cxx1112basic_stringIcSt11char_traitsIcESaIcEEEh
libmediainfo.so.0:_ZN12MediaInfoLib11Reader_File11Format_TestEPNS_18MediaInfo_InternalENSt7__cxx1112basic_stringIwSt11char_traitsIwESaIwEEE
libmediainfo.so.0:_ZN12MediaInfoLib11Reader_File21Format_Test_PerParserEPNS_18MediaInfo_InternalERKNSt7__cxx1112basic_stringIwSt11char_traitsIwESaIwEEE
libmediainfo.so.0:_ZN12MediaInfoLib11Reader_File26Format_Test_PerParser_SeekEPNS_18MediaInfo_InternalEmyy
libmediainfo.so.0:_ZN12MediaInfoLib11Reader_File30Format_Test_PerParser_ContinueEPNS_18MediaInfo_InternalE
libmediainfo.so.0:_ZN12MediaInfoLib11Reader_FileD0Ev
libmediainfo.so.0:_ZN12MediaInfoLib11Reader_FileD1Ev
libmediainfo.so.0:_ZN12MediaInfoLib11Reader_FileD2Ev
libmediainfo.so.0:_ZN12MediaInfoLib11bits_neededEm
libmediainfo.so.0:_ZN12MediaInfoLib12Av1_obu_typeEh
libmediainfo.so.0:_ZN12MediaInfoLib12AvsV_profileEh
libmediainfo.so.0:_ZN12MediaInfoLib12Export_Mpeg79TransformERNS_18MediaInfo_InternalE
libmediainfo.so.0:_ZN12MediaInfoLib12Export_Mpeg7C1Ev
libmediainfo.so.0:_ZN12MediaInfoLib12Export_Mpeg7C2Ev
libmediainfo.so.0:_ZN12MediaInfoLib12Export_Mpeg7D1Ev
libmediainfo.so.0:_ZN12MediaInfoLib12Export_Mpeg7D2Ev
libmediainfo.so.0:_ZN12MediaInfoLib12File_ArriRaw14Streams_AcceptEv
libmediainfo.so.0:_ZN12MediaInfoLib12File_ArriRaw16FileHeader_BeginEv
libmediainfo.so.0:_ZN12MediaInfoLib12File_ArriRaw20Read_Buffer_ContinueEv
libmediainfo.so.0:_ZN12MediaInfoLib12File_ArriRaw21Read_Buffer_UnsynchedEv
libmediainfo.so.0:_ZN12MediaInfoLib12File_ArriRawC1Ev
libmediainfo.so.0:_ZN12MediaInfoLib12File_ArriRawC2Ev
libmediainfo.so.0:_ZN12MediaInfoLib12File_Canopus12Streams_FillEv
libmediainfo.so.0:_ZN12MediaInfoLib12File_Canopus20Read_Buffer_ContinueEv
libmediainfo.so.0:_ZN12MediaInfoLib12File_CanopusC1Ev
libmediainfo.so.0:_ZN12MediaInfoLib12File_CanopusC2Ev
libmediainfo.so.0:_ZN12MediaInfoLib12File_DashMpd16FileHeader_BeginEv
libmediainfo.so.0:_ZN12MediaInfoLib12File_DashMpdC1Ev
libmediainfo.so.0:_ZN12MediaInfoLib12File_DashMpdC2Ev
libmediainfo.so.0:_ZN12MediaInfoLib12File_HuffYuv11FrameHeaderEv
libmediainfo.so.0:_ZN12MediaInfoLib12File_HuffYuv14Streams_AcceptEv
libmediainfo.so.0:_ZN12MediaInfoLib12File_HuffYuv20Read_Buffer_ContinueEv
libmediainfo.so.0:_ZN12MediaInfoLib12File_HuffYuv21Read_Buffer_OutOfBandEv
libmediainfo.so.0:_ZN12MediaInfoLib12File_HuffYuvC1Ev
libmediainfo.so.0:_ZN12MediaInfoLib12File_HuffYuvC2Ev
libmediainfo.so.0:_ZN12MediaInfoLib12File_Iso966016FileHeader_BeginEv
libmediainfo.so.0:_ZN12MediaInfoLib12File_Iso966020Read_Buffer_ContinueEv
libmediainfo.so.0:_ZN12MediaInfoLib12File_Iso966025Primary_Volume_DescriptorEv
libmediainfo.so.0:_ZN12MediaInfoLib12File_Lyrics320Read_Buffer_ContinueEv
libmediainfo.so.0:_ZN12MediaInfoLib12File_Lyrics3C1Ev
libmediainfo.so.0:_ZN12MediaInfoLib12File_Lyrics3C2Ev
libmediainfo.so.0:_ZN12MediaInfoLib12File_P2_Clip15FillContentDateEPN8tinyxml210XMLElementEPKcNS_7generalE
libmediainfo.so.0:_ZN12MediaInfoLib12File_P2_Clip16FileHeader_BeginEv
libmediainfo.so.0:_ZN12MediaInfoLib12File_P2_ClipC1Ev
libmediainfo.so.0:_ZN12MediaInfoLib12File_P2_ClipC2Ev
libmediainfo.so.0:_ZN12MediaInfoLib12File_Pcm_Vob12Streams_FillEv
libmediainfo.so.0:_ZN12MediaInfoLib12File_Pcm_Vob20Read_Buffer_ContinueEv
libmediainfo.so.0:_ZN12MediaInfoLib12File_Pcm_VobC1Ev
libmediainfo.so.0:_ZN12MediaInfoLib12File_Pcm_VobC2Ev
libmediainfo.so.0:_ZN12MediaInfoLib12File_Unknown16Read_Buffer_InitEv
libmediainfo.so.0:_ZN12MediaInfoLib12File_Unknown20Read_Buffer_ContinueEv
libmediainfo.so.0:_ZN12MediaInfoLib13Ac3_EMDF_TestERKN6ZenLib14BitStream_FastE
libmediainfo.so.0:_ZN12MediaInfoLib13Angles2StringB5cxx11ENS_6anglesE
libmediainfo.so.0:_ZN12MediaInfoLib13Avc_MaxDpbMbsEh
libmediainfo.so.0:_ZN12MediaInfoLib13Export_PBCore9TransformERNS_18MediaInfo_InternalE
libmediainfo.so.0:_ZN12MediaInfoLib13Export_PBCoreC1Ev
libmediainfo.so.0:_ZN12MediaInfoLib13Export_PBCoreC2Ev
libmediainfo.so.0:_ZN12MediaInfoLib13Export_PBCoreD1Ev
libmediainfo.so.0:_ZN12MediaInfoLib13Export_PBCoreD2Ev
libmediainfo.so.0:_ZN12MediaInfoLib13File_CineForm12Streams_FillEv
libmediainfo.so.0:_ZN12MediaInfoLib13File_CineForm20Read_Buffer_ContinueEv
libmediainfo.so.0:_ZN12MediaInfoLib13File_CineFormC1Ev
libmediainfo.so.0:_ZN12MediaInfoLib13File_CineFormC2Ev
libmediainfo.so.0:_ZN12MediaInfoLib13File_Lagarith12Streams_FillEv
libmediainfo.so.0:_ZN12MediaInfoLib13File_Lagarith20Read_Buffer_ContinueEv
libmediainfo.so.0:_ZN12MediaInfoLib13File_LagarithC1Ev
libmediainfo.so.0:_ZN12MediaInfoLib13File_LagarithC2Ev
libmediainfo.so.0:_ZN12MediaInfoLib13File_Mpeg_Psi10Data_ParseEv
libmediainfo.so.0:_ZN12MediaInfoLib13File_Mpeg_Psi11DescriptorsEv
libmediainfo.so.0:_ZN12MediaInfoLib13File_Mpeg_Psi11Table_FC_00Ev
libmediainfo.so.0:_ZN12MediaInfoLib13File_Mpeg_Psi11Table_FC_04Ev
libmediainfo.so.0:_ZN12MediaInfoLib13File_Mpeg_Psi11Table_FC_05Ev
libmediainfo.so.0:_ZN12MediaInfoLib13File_Mpeg_Psi11Table_FC_06Ev
libmediainfo.so.0:_ZN12MediaInfoLib13File_Mpeg_Psi11Table_FC_07Ev
libmediainfo.so.0:_ZN12MediaInfoLib13File_Mpeg_Psi12Header_BeginEv
libmediainfo.so.0:_ZN12MediaInfoLib13File_Mpeg_Psi12Header_ParseEv
libmediainfo.so.0:_ZN12MediaInfoLib13File_Mpeg_Psi14Table_reservedEv
libmediainfo.so.0:_ZN12MediaInfoLib13File_Mpeg_Psi15Table_forbiddenEv
libmediainfo.so.0:_ZN12MediaInfoLib13File_Mpeg_Psi16FileHeader_ParseEv
libmediainfo.so.0:_ZN12MediaInfoLib13File_Mpeg_Psi16Table_iso13818_6Ev
libmediainfo.so.0:_ZN12MediaInfoLib13File_Mpeg_Psi18Table_user_privateEv
libmediainfo.so.0:_ZN12MediaInfoLib13File_Mpeg_Psi18program_stream_mapEv
libmediainfo.so.0:_ZN12MediaInfoLib13File_Mpeg_Psi21elementary_PID_RemoveEv
libmediainfo.so.0:_ZN12MediaInfoLib13File_Mpeg_Psi21elementary_PID_UpdateEt
libmediainfo.so.0:_ZN12MediaInfoLib13File_Mpeg_Psi21program_number_RemoveEv
libmediainfo.so.0:_ZN12MediaInfoLib13File_Mpeg_Psi21program_number_UpdateEv
libmediainfo.so.0:_ZN12MediaInfoLib13File_Mpeg_Psi23Table_FC_05_splice_timeEv
libmediainfo.so.0:_ZN12MediaInfoLib13File_Mpeg_Psi26Table_FC_05_break_durationEv
libmediainfo.so.0:_ZN12MediaInfoLib13File_Mpeg_Psi29SCTE_multilingual_text_stringEhRN6ZenLib6ZtringEPKc
libmediainfo.so.0:_ZN12MediaInfoLib13File_Mpeg_Psi30ATSC_multiple_string_structureERN6ZenLib6ZtringEPKc
libmediainfo.so.0:_ZN12MediaInfoLib13File_Mpeg_Psi8Table_00Ev
libmediainfo.so.0:_ZN12MediaInfoLib13File_Mpeg_Psi8Table_01Ev
libmediainfo.so.0:_ZN12MediaInfoLib13File_Mpeg_Psi8Table_02Ev
libmediainfo.so.0:_ZN12MediaInfoLib13File_Mpeg_Psi8Table_03Ev
libmediainfo.so.0:_ZN12MediaInfoLib13File_Mpeg_Psi8Table_40Ev
libmediainfo.so.0:_ZN12MediaInfoLib13File_Mpeg_Psi8Table_42Ev
libmediainfo.so.0:_ZN12MediaInfoLib13File_Mpeg_Psi8Table_46Ev
libmediainfo.so.0:_ZN12MediaInfoLib13File_Mpeg_Psi8Table_4EEv
libmediainfo.so.0:_ZN12MediaInfoLib13File_Mpeg_Psi8Table_4FEv
libmediainfo.so.0:_ZN12MediaInfoLib13File_Mpeg_Psi8Table_5FEv
libmediainfo.so.0:_ZN12MediaInfoLib13File_Mpeg_Psi8Table_6FEv
libmediainfo.so.0:_ZN12MediaInfoLib13File_Mpeg_Psi8Table_70Ev
libmediainfo.so.0:_ZN12MediaInfoLib13File_Mpeg_Psi8Table_73Ev
libmediainfo.so.0:_ZN12MediaInfoLib13File_Mpeg_Psi8Table_7FEv
libmediainfo.so.0:_ZN12MediaInfoLib13File_Mpeg_Psi8Table_C0Ev
libmediainfo.so.0:_ZN12MediaInfoLib13File_Mpeg_Psi8Table_C1Ev
libmediainfo.so.0:_ZN12MediaInfoLib13File_Mpeg_Psi8Table_C7Ev
libmediainfo.so.0:_ZN12MediaInfoLib13File_Mpeg_Psi8Table_C9Ev
libmediainfo.so.0:_ZN12MediaInfoLib13File_Mpeg_Psi8Table_CAEv
libmediainfo.so.0:_ZN12MediaInfoLib13File_Mpeg_Psi8Table_CBEv
libmediainfo.so.0:_ZN12MediaInfoLib13File_Mpeg_Psi8Table_CCEv
libmediainfo.so.0:_ZN12MediaInfoLib13File_Mpeg_Psi8Table_CDEv
libmediainfo.so.0:_ZN12MediaInfoLib13File_Mpeg_Psi8Table_D6Ev
libmediainfo.so.0:_ZN12MediaInfoLib13File_Mpeg_Psi8Table_FCEv
libmediainfo.so.0:_ZN12MediaInfoLib13File_Mpeg_PsiC1Ev
libmediainfo.so.0:_ZN12MediaInfoLib13File_Mpeg_PsiC2Ev
libmediainfo.so.0:_ZN12MediaInfoLib13File_Mpeg_PsiD0Ev
libmediainfo.so.0:_ZN12MediaInfoLib13File_Mpeg_PsiD1Ev
libmediainfo.so.0:_ZN12MediaInfoLib13File_Mpeg_PsiD2Ev
libmediainfo.so.0:_ZN12MediaInfoLib13File_Mpegh3da10BufferInfoEv
libmediainfo.so.0:_ZN12MediaInfoLib13File_Mpegh3da10Data_ParseEv
libmediainfo.so.0:_ZN12MediaInfoLib13File_Mpegh3da12Header_ParseEv
libmediainfo.so.0:_ZN12MediaInfoLib13File_Mpegh3da12Streams_FillEv
libmediainfo.so.0:_ZN12MediaInfoLib13File_Mpegh3da13downmixConfigEv
libmediainfo.so.0:_ZN12MediaInfoLib13File_Mpegh3da13mpegh3daFrameEv
libmediainfo.so.0:_ZN12MediaInfoLib13File_Mpegh3da14Streams_FinishEv
libmediainfo.so.0:_ZN12MediaInfoLib13File_Mpegh3da14mpegh3daConfigEv
libmediainfo.so.0:_ZN12MediaInfoLib13File_Mpegh3da15SpeakerConfig3dERNS0_14speaker_layoutE
libmediainfo.so.0:_ZN12MediaInfoLib13File_Mpegh3da15mae_ContentDataEv
libmediainfo.so.0:_ZN12MediaInfoLib13File_Mpegh3da15mae_DescriptionENS0_11MaeDataTypeE
libmediainfo.so.0:_ZN12MediaInfoLib13File_Mpegh3da15num_objects_GetEv
libmediainfo.so.0:_ZN12MediaInfoLib13File_Mpegh3da17FrameworkConfig3dEv
libmediainfo.so.0:_ZN12MediaInfoLib13File_Mpegh3da17mae_CompositePairEv
libmediainfo.so.0:_ZN12MediaInfoLib13File_Mpegh3da18mae_AudioSceneInfoEv
libmediainfo.so.0:_ZN12MediaInfoLib13File_Mpegh3da18mpegh3daCoreConfigEv
libmediainfo.so.0:_ZN12MediaInfoLib13File_Mpegh3da19audioTruncationInfoEv
libmediainfo.so.0:_ZN12MediaInfoLib13File_Mpegh3da19mae_GroupDefinitionEh
libmediainfo.so.0:_ZN12MediaInfoLib13File_Mpegh3da20ObjectMetadataConfigEv
libmediainfo.so.0:_ZN12MediaInfoLib13File_Mpegh3da20Read_Buffer_ContinueEv
libmediainfo.so.0:_ZN12MediaInfoLib13File_Mpegh3da20SAOC3DSpecificConfigEv
libmediainfo.so.0:_ZN12MediaInfoLib13File_Mpegh3da20SAOC3DgetNumChannelsENS0_14speaker_layoutE
libmediainfo.so.0:_ZN12MediaInfoLib13File_Mpegh3da20mpegh3daUniDrcConfigEv
libmediainfo.so.0:_ZN12MediaInfoLib13File_Mpegh3da21HoaRenderingMatrixSetEv
libmediainfo.so.0:_ZN12MediaInfoLib13File_Mpegh3da21mpegh3daDecoderConfigEv
libmediainfo.so.0:_ZN12MediaInfoLib13File_Mpegh3da22SignalGroupInformationEv
libmediainfo.so.0:_ZN12MediaInfoLib13File_Mpegh3da23mpegh3daConfigExtensionEv
libmediainfo.so.0:_ZN12MediaInfoLib13File_Mpegh3da23mpegh3daLoudnessInfoSetEv
libmediainfo.so.0:_ZN12MediaInfoLib13File_Mpegh3da24mae_DrcUserInterfaceInfoEt
libmediainfo.so.0:_ZN12MediaInfoLib13File_Mpegh3da24mpegh3daExtElementConfigEv
libmediainfo.so.0:_ZN12MediaInfoLib13File_Mpegh3da25CompatibleProfileLevelSetEv
libmediainfo.so.0:_ZN12MediaInfoLib13File_Mpegh3da25mae_GroupPresetDefinitionEh
libmediainfo.so.0:_ZN12MediaInfoLib13File_Mpegh3da25mae_SwitchGroupDefinitionEh
libmediainfo.so.0:_ZN12MediaInfoLib13File_Mpegh3da26Streams_Fill_ChannelLayoutERKNSt7__cxx1112basic_stringIcSt11char_traitsIcESaIcEEERKNS0_14speaker_layoutEh
libmediainfo.so.0:_ZN12MediaInfoLib13File_Mpegh3da26mpegh3daSpeakerDescriptionERNS_12speaker_infoEb
libmediainfo.so.0:_ZN12MediaInfoLib13File_Mpegh3da28EnhancedObjectMetadataConfigEv
libmediainfo.so.0:_ZN12MediaInfoLib13File_Mpegh3da28mae_LoudnessCompensationDataEhh
libmediainfo.so.0:_ZN12MediaInfoLib13File_Mpegh3da28mae_ProductionScreenSizeDataEv
libmediainfo.so.0:_ZN12MediaInfoLib13File_Mpegh3da29mpegh3daFlexibleSpeakerConfigERNS0_14speaker_layoutE
libmediainfo.so.0:_ZN12MediaInfoLib13File_Mpegh3da32mpegh3daChannelPairElementConfigEh
libmediainfo.so.0:_ZN12MediaInfoLib13File_Mpegh3da34mae_GroupPresetDefinitionExtensionEh
libmediainfo.so.0:_ZN12MediaInfoLib13File_Mpegh3da34mpegh3daSingleChannelElementConfigEh
libmediainfo.so.0:_ZN12MediaInfoLib13File_Mpegh3da37mae_ProductionScreenSizeDataExtensionEv
libmediainfo.so.0:_ZN12MediaInfoLib13File_Mpegh3da4SyncEv
libmediainfo.so.0:_ZN12MediaInfoLib13File_Mpegh3da4mhaCEv
libmediainfo.so.0:_ZN12MediaInfoLib13File_Mpegh3da5Crc16Ev
libmediainfo.so.0:_ZN12MediaInfoLib13File_Mpegh3da6MarkerEv
libmediainfo.so.0:_ZN12MediaInfoLib13File_Mpegh3da8mae_DataEhh
libmediainfo.so.0:_ZN12MediaInfoLib13File_Mpegh3da9ICGConfigEv
libmediainfo.so.0:_ZN12MediaInfoLib13File_Mpegh3da9MCTConfigEv
libmediainfo.so.0:_ZN12MediaInfoLib13File_Mpegh3da9TccConfigEv
libmediainfo.so.0:_ZN12MediaInfoLib13File_Mpegh3daC1Ev
libmediainfo.so.0:_ZN12MediaInfoLib13File_Mpegh3daC2Ev
libmediainfo.so.0:_ZN12MediaInfoLib13File_Pcm_M2ts12Streams_FillEv
libmediainfo.so.0:_ZN12MediaInfoLib13File_Pcm_M2ts20Read_Buffer_ContinueEv
libmediainfo.so.0:_ZN12MediaInfoLib13File_Pcm_M2tsC1Ev
libmediainfo.so.0:_ZN12MediaInfoLib13File_Pcm_M2tsC2Ev
libmediainfo.so.0:_ZN12MediaInfoLib13File_Ps2Audio20Read_Buffer_ContinueEv
libmediainfo.so.0:_ZN12MediaInfoLib13File_Ps2Audio4SSbdEv
libmediainfo.so.0:_ZN12MediaInfoLib13File_Ps2Audio4SShdEv
libmediainfo.so.0:_ZN12MediaInfoLib13File_Teletext10Data_ParseEv
libmediainfo.so.0:_ZN12MediaInfoLib13File_Teletext10HasChangedEv
libmediainfo.so.0:_ZN12MediaInfoLib13File_Teletext11SynchronizeEv
libmediainfo.so.0:_ZN12MediaInfoLib13File_Teletext12Header_ParseEv
libmediainfo.so.0:_ZN12MediaInfoLib13File_Teletext12Streams_FillEv
libmediainfo.so.0:_ZN12MediaInfoLib13File_Teletext12Synched_InitEv
libmediainfo.so.0:_ZN12MediaInfoLib13File_Teletext12Synched_TestEv
libmediainfo.so.0:_ZN12MediaInfoLib13File_Teletext14Streams_FinishEv
libmediainfo.so.0:_ZN12MediaInfoLib13File_Teletext20Read_Buffer_ContinueEv
libmediainfo.so.0:_ZN12MediaInfoLib13File_Teletext21Read_Buffer_UnsynchedEv
libmediainfo.so.0:_ZN12MediaInfoLib13File_TeletextC1Ev
libmediainfo.so.0:_ZN12MediaInfoLib13File_TeletextC2Ev
libmediainfo.so.0:_ZN12MediaInfoLib13File_TeletextD0Ev
libmediainfo.so.0:_ZN12MediaInfoLib13File_TeletextD1Ev
libmediainfo.so.0:_ZN12MediaInfoLib13File_TeletextD2Ev
libmediainfo.so.0:_ZN12MediaInfoLib13File__Analyze10Fill_FlushEv
libmediainfo.so.0:_ZN12MediaInfoLib13File__Analyze10Get_StringEyRNSt7__cxx1112basic_stringIcSt11char_traitsIcESaIcEEEPKc
libmediainfo.so.0:_ZN12MediaInfoLib13File__Analyze10Get_UTF16BEyRN6ZenLib6ZtringEPKc
libmediainfo.so.0:_ZN12MediaInfoLib13File__Analyze10Get_UTF16LEyRN6ZenLib6ZtringEPKc
libmediainfo.so.0:_ZN12MediaInfoLib13File__Analyze10Peek_LocalEyRN6ZenLib6ZtringE
libmediainfo.so.0:_ZN12MediaInfoLib13File__Analyze10Skip_FlagsEyPKc
libmediainfo.so.0:_ZN12MediaInfoLib13File__Analyze10Skip_FlagsEymPKc
libmediainfo.so.0:_ZN12MediaInfoLib13File__Analyze10Skip_LocalEyPKc
libmediainfo.so.0:_ZN12MediaInfoLib13File__Analyze11BS_Begin_LEEv
libmediainfo.so.0:_ZN12MediaInfoLib13File__Analyze11Data_AcceptEPKc
libmediainfo.so.0:_ZN12MediaInfoLib13File__Analyze11Data_FinishEPKc
libmediainfo.so.0:_ZN12MediaInfoLib13File__Analyze11Data_ManageEv
libmediainfo.so.0:_ZN12MediaInfoLib13File__Analyze11Data_RejectEPKc
libmediainfo.so.0:_ZN12MediaInfoLib13File__Analyze11Element_EndERKN6ZenLib6ZtringE
libmediainfo.so.0:_ZN12MediaInfoLib13File__Analyze11ForceFinishEPKc
libmediainfo.so.0:_ZN12MediaInfoLib13File__Analyze11ForceFinishEPS0_
libmediainfo.so.0:_ZN12MediaInfoLib13File__Analyze11GoToFromEndEyPKc
libmediainfo.so.0:_ZN12MediaInfoLib13File__Analyze11Param_ErrorEPKc
libmediainfo.so.0:_ZN12MediaInfoLib13File__Analyze11Peek_StringEyRNSt7__cxx1112basic_stringIcSt11char_traitsIcESaIcEEE
libmediainfo.so.0:_ZN12MediaInfoLib13File__Analyze11Skip_StringEyPKc
libmediainfo.so.0:_ZN12MediaInfoLib13File__Analyze11Skip_UTF16BEyPKc
libmediainfo.so.0:_ZN12MediaInfoLib13File__Analyze11Skip_UTF16LEyPKc
libmediainfo.so.0:_ZN12MediaInfoLib13File__Analyze11YesNo_YesNoENS_8stream_tEmm
libmediainfo.so.0:_ZN12MediaInfoLib13File__Analyze12BookMark_GetEv
libmediainfo.so.0:_ZN12MediaInfoLib13File__Analyze12BookMark_SetEm
libmediainfo.so.0:_ZN12MediaInfoLib13File__Analyze12Buffer_ClearEv
libmediainfo.so.0:_ZN12MediaInfoLib13File__Analyze12Buffer_ParseEv
libmediainfo.so.0:_ZN12MediaInfoLib13File__Analyze12CodecID_FillERKN6ZenLib6ZtringENS_8stream_tEmNS_20infocodecid_format_tES5_
libmediainfo.so.0:_ZN12MediaInfoLib13File__Analyze12Element_IsOKEv
libmediainfo.so.0:_ZN12MediaInfoLib13File__Analyze12Element_NameERKN6ZenLib6ZtringE
libmediainfo.so.0:_ZN12MediaInfoLib13File__Analyze12Element_ShowEv
libmediainfo.so.0:_ZN12MediaInfoLib13File__Analyze12Fill_MeasureENS_8stream_tEmPKcRKN6ZenLib6ZtringES7_b
libmediainfo.so.0:_ZN12MediaInfoLib13File__Analyze12Get_MacRomanEyRN6ZenLib6ZtringEPKc
libmediainfo.so.0:_ZN12MediaInfoLib13File__Analyze12Header_ParseEv
libmediainfo.so.0:_ZN12MediaInfoLib13File__Analyze12Kilo_Kilo123ENS_8stream_tEmm
libmediainfo.so.0:_ZN12MediaInfoLib13File__Analyze12NextCode_AddEy
libmediainfo.so.0:_ZN12MediaInfoLib13File__Analyze12Stream_EraseENS_8stream_tEm
libmediainfo.so.0:_ZN12MediaInfoLib13File__Analyze13Details_ClearEv
libmediainfo.so.0:_ZN12MediaInfoLib13File__Analyze13Element_BeginEPKc
libmediainfo.so.0:_ZN12MediaInfoLib13File__Analyze13Element_BeginERKN6ZenLib6ZtringE
libmediainfo.so.0:_ZN12MediaInfoLib13File__Analyze13Element_BeginEv
libmediainfo.so.0:_ZN12MediaInfoLib13File__Analyze13Element_ErrorEPKc
libmediainfo.so.0:_ZN12MediaInfoLib13File__Analyze13Event_PrepareEP23MediaInfo_Event_Generic
libmediainfo.so.0:_ZN12MediaInfoLib13File__Analyze13Header_ManageEv
libmediainfo.so.0:_ZN12MediaInfoLib13File__Analyze13NextCode_TestEv
libmediainfo.so.0:_ZN12MediaInfoLib13File__Analyze13TestDirectoryEv
libmediainfo.so.0:_ZN12MediaInfoLib13File__Analyze13Trusted_IsNotEPKc
libmediainfo.so.0:_ZN12MediaInfoLib13File__Analyze14Element_ParserEPKc
libmediainfo.so.0:_ZN12MediaInfoLib13File__Analyze14Fill_ParameterENS_8stream_tENS_7genericE
libmediainfo.so.0:_ZN12MediaInfoLib13File__Analyze14Get_ISO_6937_2EyRN6ZenLib6ZtringEPKc
libmediainfo.so.0:_ZN12MediaInfoLib13File__Analyze14Get_ISO_8859_1EyRN6ZenLib6ZtringEPKc
libmediainfo.so.0:_ZN12MediaInfoLib13File__Analyze14Get_ISO_8859_2EyRN6ZenLib6ZtringEPKc
libmediainfo.so.0:_ZN12MediaInfoLib13File__Analyze14Get_ISO_8859_5EyRN6ZenLib6ZtringEPKc
libmediainfo.so.0:_ZN12MediaInfoLib13File__Analyze14Get_Trace_NodeEm
libmediainfo.so.0:_ZN12MediaInfoLib13File__Analyze14Get_VL_PrepareERNS0_8vlc_fastE
libmediainfo.so.0:_ZN12MediaInfoLib13File__Analyze14NextCode_ClearEv
libmediainfo.so.0:_ZN12MediaInfoLib13File__Analyze14Retrieve_ConstENS_8stream_tEmPKcNS_6info_tE
libmediainfo.so.0:_ZN12MediaInfoLib13File__Analyze14Retrieve_ConstENS_8stream_tEmmNS_6info_tE
libmediainfo.so.0:_ZN12MediaInfoLib13File__Analyze14Stream_PrepareENS_8stream_tEm
libmediainfo.so.0:_ZN12MediaInfoLib13File__Analyze14Synchro_ManageEv
libmediainfo.so.0:_ZN12MediaInfoLib13File__Analyze14Value_Value123ENS_8stream_tEmm
libmediainfo.so.0:_ZN12MediaInfoLib13File__Analyze15Element_PrepareEy
libmediainfo.so.0:_ZN12MediaInfoLib13File__Analyze15Fill_SetOptionsENS_8stream_tEmPKcS3_
libmediainfo.so.0:_ZN12MediaInfoLib13File__Analyze15Skip_ISO_6937_2EyPKc
libmediainfo.so.0:_ZN12MediaInfoLib13File__Analyze16Data_GoToFromEndEyPKc
libmediainfo.so.0:_ZN12MediaInfoLib13File__Analyze16Element_Code_GetEm
libmediainfo.so.0:_ZN12MediaInfoLib13File__Analyze16Element_Show_AddEPS0_
libmediainfo.so.0:_ZN12MediaInfoLib13File__Analyze16Element_Show_GetEv
libmediainfo.so.0:_ZN12MediaInfoLib13File__Analyze16Header_Fill_CodeEy
libmediainfo.so.0:_ZN12MediaInfoLib13File__Analyze16Header_Fill_CodeEyRKN6ZenLib6ZtringE
libmediainfo.so.0:_ZN12MediaInfoLib13File__Analyze16Header_Fill_SizeEy
libmediainfo.so.0:_ZN12MediaInfoLib13File__Analyze16Open_Buffer_InitEPS0_
libmediainfo.so.0:_ZN12MediaInfoLib13File__Analyze16Open_Buffer_InitEPS0_y
libmediainfo.so.0:_ZN12MediaInfoLib13File__Analyze16Open_Buffer_InitEy
libmediainfo.so.0:_ZN12MediaInfoLib13File__Analyze16Open_Buffer_SeekEmyy
libmediainfo.so.0:_ZN12MediaInfoLib13File__Analyze16Read_Buffer_SeekEmyy
libmediainfo.so.0:_ZN12MediaInfoLib13File__Analyze17Element_DoNotShowEv
libmediainfo.so.0:_ZN12MediaInfoLib13File__Analyze17FileHeader_ManageEv
libmediainfo.so.0:_ZN12MediaInfoLib13File__Analyze18Element_DoNotTrustEPKc
libmediainfo.so.0:_ZN12MediaInfoLib13File__Analyze18Open_Buffer_UpdateEv
libmediainfo.so.0:_ZN12MediaInfoLib13File__Analyze19Element_ThisIsAListEv
libmediainfo.so.0:_ZN12MediaInfoLib13File__Analyze19Mark_0_NoTrustErrorEv
libmediainfo.so.0:_ZN12MediaInfoLib13File__Analyze19Mark_1_NoTrustErrorEv
libmediainfo.so.0:_ZN12MediaInfoLib13File__Analyze19Open_Buffer_UnsynchEv
libmediainfo.so.0:_ZN12MediaInfoLib13File__Analyze19Synchro_Manage_TestEv
libmediainfo.so.0:_ZN12MediaInfoLib13File__Analyze19Trace_Layers_UpdateEm
libmediainfo.so.0:_ZN12MediaInfoLib13File__Analyze20Duration_Duration123ENS_8stream_tEmm
libmediainfo.so.0:_ZN12MediaInfoLib13File__Analyze20FileHeader_Begin_XMLERN8tinyxml211XMLDocumentE
libmediainfo.so.0:_ZN12MediaInfoLib13File__Analyze20FileSize_FileSize123ENS_8stream_tEmm
libmediainfo.so.0:_ZN12MediaInfoLib13File__Analyze20Open_Buffer_ContinueEPKhm
libmediainfo.so.0:_ZN12MediaInfoLib13File__Analyze20Open_Buffer_ContinueEPS0_PKhmbd
libmediainfo.so.0:_ZN12MediaInfoLib13File__Analyze20Open_Buffer_FinalizeEPS0_
libmediainfo.so.0:_ZN12MediaInfoLib13File__Analyze20Open_Buffer_FinalizeEb
libmediainfo.so.0:_ZN12MediaInfoLib13File__Analyze20Synchronize_0x000001Ev
libmediainfo.so.0:_ZN12MediaInfoLib13File__Analyze21Element_IsNotFinishedEv
libmediainfo.so.0:_ZN12MediaInfoLib13File__Analyze21Element_Show_ChildrenEv
libmediainfo.so.0:_ZN12MediaInfoLib13File__Analyze21Element_TotalSize_GetEm
libmediainfo.so.0:_ZN12MediaInfoLib13File__Analyze21Open_Buffer_OutOfBandEPS0_m
libmediainfo.so.0:_ZN12MediaInfoLib13File__Analyze21PixelAspectRatio_FillERKN6ZenLib6ZtringENS_8stream_tEmmmmm
libmediainfo.so.0:_ZN12MediaInfoLib13File__Analyze21Streams_Finish_GlobalEv
libmediainfo.so.0:_ZN12MediaInfoLib13File__Analyze22Audio_BitRate_RoundingEmNS_5audioE
libmediainfo.so.0:_ZN12MediaInfoLib13File__Analyze22Element_IsComplete_GetEv
libmediainfo.so.0:_ZN12MediaInfoLib13File__Analyze22Trace_Details_HandlingEPS0_
libmediainfo.so.0:_ZN12MediaInfoLib13File__Analyze22Video_BitRate_RoundingEmNS_5videoE
libmediainfo.so.0:_ZN12MediaInfoLib13File__Analyze23DisplayAspectRatio_FillERKN6ZenLib6ZtringENS_8stream_tEmmmmm
libmediainfo.so.0:_ZN12MediaInfoLib13File__Analyze23Element_WaitForMoreDataEv
libmediainfo.so.0:_ZN12MediaInfoLib13File__Analyze23TestContinuousFileNamesEmN6ZenLib6ZtringEb
libmediainfo.so.0:_ZN12MediaInfoLib13File__Analyze24Element_End_Common_FlushEv
libmediainfo.so.0:_ZN12MediaInfoLib13File__Analyze24Open_Buffer_Position_SetEy
libmediainfo.so.0:_ZN12MediaInfoLib13File__Analyze24Video_FrameRate_RoundingEmNS_5videoE
libmediainfo.so.0:_ZN12MediaInfoLib13File__Analyze25FileHeader_Begin_0x000001Ev
libmediainfo.so.0:_ZN12MediaInfoLib13File__Analyze25Open_Buffer_Continue_LoopEv
libmediainfo.so.0:_ZN12MediaInfoLib13File__Analyze25Streams_Finish_StreamOnlyENS_8stream_tEm
libmediainfo.so.0:_ZN12MediaInfoLib13File__Analyze25Streams_Finish_StreamOnlyEv
libmediainfo.so.0:_ZN12MediaInfoLib13File__Analyze26Element_DoNotShow_ChildrenEv
libmediainfo.so.0:_ZN12MediaInfoLib13File__Analyze27Element_Children_IfNoErrorsEv
libmediainfo.so.0:_ZN12MediaInfoLib13File__Analyze27Streams_Finish_InterStreamsEv
libmediainfo.so.0:_ZN12MediaInfoLib13File__Analyze28Element_IsWaitingForMoreDataEv
libmediainfo.so.0:_ZN12MediaInfoLib13File__Analyze28Streams_Finish_HumanReadableEv
libmediainfo.so.0:_ZN12MediaInfoLib13File__Analyze30Streams_Finish_StreamOnly_MenuEm
libmediainfo.so.0:_ZN12MediaInfoLib13File__Analyze30Streams_Finish_StreamOnly_TextEm
libmediainfo.so.0:_ZN12MediaInfoLib13File__Analyze31Get_MasteringDisplayColorVolumeERN6ZenLib6ZtringES3_
libmediainfo.so.0:_ZN12MediaInfoLib13File__Analyze31Get_MasteringDisplayColorVolumeERN6ZenLib6ZtringES3_RNS0_23mastering_metadata_2086E
libmediainfo.so.0:_ZN12MediaInfoLib13File__Analyze31Streams_Finish_StreamOnly_AudioEm
libmediainfo.so.0:_ZN12MediaInfoLib13File__Analyze31Streams_Finish_StreamOnly_ImageEm
libmediainfo.so.0:_ZN12MediaInfoLib13File__Analyze31Streams_Finish_StreamOnly_OtherEm
libmediainfo.so.0:_ZN12MediaInfoLib13File__Analyze31Streams_Finish_StreamOnly_VideoEm
libmediainfo.so.0:_ZN12MediaInfoLib13File__Analyze32Demux_UnpacketizeContainer_DemuxEb
libmediainfo.so.0:_ZN12MediaInfoLib13File__Analyze32Element_End_Common_Flush_DetailsEv
libmediainfo.so.0:_ZN12MediaInfoLib13File__Analyze32Read_Buffer_Seek_OneFramePerFileEmyy
libmediainfo.so.0:_ZN12MediaInfoLib13File__Analyze33Streams_Finish_StreamOnly_GeneralEm
libmediainfo.so.0:_ZN12MediaInfoLib13File__Analyze34Element_Remove_Children_IfNoErrorsEv
libmediainfo.so.0:_ZN12MediaInfoLib13File__Analyze34Open_Buffer_CheckFileModificationsEv
libmediainfo.so.0:_ZN12MediaInfoLib13File__Analyze37Read_Buffer_Unsynched_OneFramePerFileEv
libmediainfo.so.0:_ZN12MediaInfoLib13File__Analyze38Demux_UnpacketizeContainer_Demux_ClearEv
libmediainfo.so.0:_ZN12MediaInfoLib13File__Analyze38Element_Set_Remove_Children_IfNoErrorsEv
libmediainfo.so.0:_ZN12MediaInfoLib13File__Analyze38Streams_Finish_HumanReadable_PerStreamENS_8stream_tEmm
libmediainfo.so.0:_ZN12MediaInfoLib13File__Analyze47Demux_UnpacketizeContainer_Test_OneFramePerFileEv
libmediainfo.so.0:_ZN12MediaInfoLib13File__Analyze4FillENS_8stream_tEmPKcRKN6ZenLib6ZtringEb
libmediainfo.so.0:_ZN12MediaInfoLib13File__Analyze4FillENS_8stream_tEmPKcRN6ZenLib10ZtringListES6_b
libmediainfo.so.0:_ZN12MediaInfoLib13File__Analyze4FillENS_8stream_tEmmRKN6ZenLib6ZtringEb
libmediainfo.so.0:_ZN12MediaInfoLib13File__Analyze4FillENS_8stream_tEmmdhb
libmediainfo.so.0:_ZN12MediaInfoLib13File__Analyze4FillEPKc
libmediainfo.so.0:_ZN12MediaInfoLib13File__Analyze4FillEPS0_
libmediainfo.so.0:_ZN12MediaInfoLib13File__Analyze4GoToEyPKc
libmediainfo.so.0:_ZN12MediaInfoLib13File__Analyze4InfoERKNSt7__cxx1112basic_stringIcSt11char_traitsIcESaIcEEEm
libmediainfo.so.0:_ZN12MediaInfoLib13File__Analyze4TagsEv
libmediainfo.so.0:_ZN12MediaInfoLib13File__Analyze4dvcCEbPSt3mapINSt7__cxx1112basic_stringIcSt11char_traitsIcESaIcEEEN6ZenLib6ZtringESt4lessIS7_ESaISt4pairIKS7_S9_EEE
libmediainfo.so.0:_ZN12MediaInfoLib13File__Analyze5ClearENS_8stream_tE
libmediainfo.so.0:_ZN12MediaInfoLib13File__Analyze5ClearENS_8stream_tEm
libmediainfo.so.0:_ZN12MediaInfoLib13File__Analyze5ClearENS_8stream_tEmPKc
libmediainfo.so.0:_ZN12MediaInfoLib13File__Analyze5ClearENS_8stream_tEmm
libmediainfo.so.0:_ZN12MediaInfoLib13File__Analyze5DemuxEPKhmNS0_11contenttypeES2_m
libmediainfo.so.0:_ZN12MediaInfoLib13File__Analyze5MergeERNS_18MediaInfo_InternalENS_8stream_tEmmb
libmediainfo.so.0:_ZN12MediaInfoLib13File__Analyze5MergeERNS_18MediaInfo_InternalEb
libmediainfo.so.0:_ZN12MediaInfoLib13File__Analyze5MergeERS0_NS_8stream_tEmmb
libmediainfo.so.0:_ZN12MediaInfoLib13File__Analyze5MergeERS0_b
libmediainfo.so.0:_ZN12MediaInfoLib13File__Analyze6AcceptEPKc
libmediainfo.so.0:_ZN12MediaInfoLib13File__Analyze6AcceptEPS0_
libmediainfo.so.0:_ZN12MediaInfoLib13File__Analyze6BS_EndEv
libmediainfo.so.0:_ZN12MediaInfoLib13File__Analyze6FinishEPKc
libmediainfo.so.0:_ZN12MediaInfoLib13File__Analyze6FinishEPS0_
libmediainfo.so.0:_ZN12MediaInfoLib13File__Analyze6Get_B1ERhPKc
libmediainfo.so.0:_ZN12MediaInfoLib13File__Analyze6Get_B2ERtPKc
libmediainfo.so.0:_ZN12MediaInfoLib13File__Analyze6Get_B3ERjPKc
libmediainfo.so.0:_ZN12MediaInfoLib13File__Analyze6Get_B4ERjPKc
libmediainfo.so.0:_ZN12MediaInfoLib13File__Analyze6Get_B5ERyPKc
libmediainfo.so.0:_ZN12MediaInfoLib13File__Analyze6Get_B6ERyPKc
libmediainfo.so.0:_ZN12MediaInfoLib13File__Analyze6Get_B7ERyPKc
libmediainfo.so.0:_ZN12MediaInfoLib13File__Analyze6Get_B8ERyPKc
libmediainfo.so.0:_ZN12MediaInfoLib13File__Analyze6Get_BSEhRjPKc
libmediainfo.so.0:_ZN12MediaInfoLib13File__Analyze6Get_BTEmRjPKc
libmediainfo.so.0:_ZN12MediaInfoLib13File__Analyze6Get_C1ERhPKc
libmediainfo.so.0:_ZN12MediaInfoLib13File__Analyze6Get_C2ERtPKc
libmediainfo.so.0:_ZN12MediaInfoLib13File__Analyze6Get_C3ERjPKc
libmediainfo.so.0:_ZN12MediaInfoLib13File__Analyze6Get_C4ERjPKc
libmediainfo.so.0:_ZN12MediaInfoLib13File__Analyze6Get_C5ERyPKc
libmediainfo.so.0:_ZN12MediaInfoLib13File__Analyze6Get_C6ERyPKc
libmediainfo.so.0:_ZN12MediaInfoLib13File__Analyze6Get_C7ERyPKc
libmediainfo.so.0:_ZN12MediaInfoLib13File__Analyze6Get_C8ERyPKc
libmediainfo.so.0:_ZN12MediaInfoLib13File__Analyze6Get_D1ERhPKc
libmediainfo.so.0:_ZN12MediaInfoLib13File__Analyze6Get_D2ERtPKc
libmediainfo.so.0:_ZN12MediaInfoLib13File__Analyze6Get_D3ERjPKc
libmediainfo.so.0:_ZN12MediaInfoLib13File__Analyze6Get_D4ERjPKc
libmediainfo.so.0:_ZN12MediaInfoLib13File__Analyze6Get_D5ERyPKc
libmediainfo.so.0:_ZN12MediaInfoLib13File__Analyze6Get_D6ERyPKc
libmediainfo.so.0:_ZN12MediaInfoLib13File__Analyze6Get_D7ERyPKc
libmediainfo.so.0:_ZN12MediaInfoLib13File__Analyze6Get_D8ERyPKc
libmediainfo.so.0:_ZN12MediaInfoLib13File__Analyze6Get_EBERyPKc
libmediainfo.so.0:_ZN12MediaInfoLib13File__Analyze6Get_ESERxPKc
libmediainfo.so.0:_ZN12MediaInfoLib13File__Analyze6Get_L1ERhPKc
libmediainfo.so.0:_ZN12MediaInfoLib13File__Analyze6Get_L2ERtPKc
libmediainfo.so.0:_ZN12MediaInfoLib13File__Analyze6Get_L3ERjPKc
libmediainfo.so.0:_ZN12MediaInfoLib13File__Analyze6Get_L4ERjPKc
libmediainfo.so.0:_ZN12MediaInfoLib13File__Analyze6Get_L5ERyPKc
libmediainfo.so.0:_ZN12MediaInfoLib13File__Analyze6Get_L6ERyPKc
libmediainfo.so.0:_ZN12MediaInfoLib13File__Analyze6Get_L7ERyPKc
libmediainfo.so.0:_ZN12MediaInfoLib13File__Analyze6Get_L8ERyPKc
libmediainfo.so.0:_ZN12MediaInfoLib13File__Analyze6Get_S1EhRhPKc
libmediainfo.so.0:_ZN12MediaInfoLib13File__Analyze6Get_S2EhRtPKc
libmediainfo.so.0:_ZN12MediaInfoLib13File__Analyze6Get_S3EhRjPKc
libmediainfo.so.0:_ZN12MediaInfoLib13File__Analyze6Get_S4EhRjPKc
libmediainfo.so.0:_ZN12MediaInfoLib13File__Analyze6Get_S5EhRyPKc
libmediainfo.so.0:_ZN12MediaInfoLib13File__Analyze6Get_S6EhRyPKc
libmediainfo.so.0:_ZN12MediaInfoLib13File__Analyze6Get_S7EhRyPKc
libmediainfo.so.0:_ZN12MediaInfoLib13File__Analyze6Get_S8EhRyPKc
libmediainfo.so.0:_ZN12MediaInfoLib13File__Analyze6Get_SBERbPKc
libmediainfo.so.0:_ZN12MediaInfoLib13File__Analyze6Get_SEERiPKc
libmediainfo.so.0:_ZN12MediaInfoLib13File__Analyze6Get_SIERiPKc
libmediainfo.so.0:_ZN12MediaInfoLib13File__Analyze6Get_T1EmRhPKc
libmediainfo.so.0:_ZN12MediaInfoLib13File__Analyze6Get_T2EmRtPKc
libmediainfo.so.0:_ZN12MediaInfoLib13File__Analyze6Get_T4EmRjPKc
libmediainfo.so.0:_ZN12MediaInfoLib13File__Analyze6Get_T8EmRyPKc
libmediainfo.so.0:_ZN12MediaInfoLib13File__Analyze6Get_TBERbPKc
libmediainfo.so.0:_ZN12MediaInfoLib13File__Analyze6Get_UEERjPKc
libmediainfo.so.0:_ZN12MediaInfoLib13File__Analyze6Get_UIERjPKc
libmediainfo.so.0:_ZN12MediaInfoLib13File__Analyze6Get_VLEPKNS0_3vlcERmPKc
libmediainfo.so.0:_ZN12MediaInfoLib13File__Analyze6Get_VLERNS0_8vlc_fastERmPKc
libmediainfo.so.0:_ZN12MediaInfoLib13File__Analyze6Get_VSERyPKc
libmediainfo.so.0:_ZN12MediaInfoLib13File__Analyze6Mark_0Ev
libmediainfo.so.0:_ZN12MediaInfoLib13File__Analyze6Mark_1Ev
libmediainfo.so.0:_ZN12MediaInfoLib13File__Analyze6RejectEPKc
libmediainfo.so.0:_ZN12MediaInfoLib13File__Analyze6RejectEPS0_
libmediainfo.so.0:_ZN12MediaInfoLib13File__Analyze6TS_AddExNS0_7ts_typeE
libmediainfo.so.0:_ZN12MediaInfoLib13File__Analyze6TS_SetEPS0_NS0_7ts_typeE
libmediainfo.so.0:_ZN12MediaInfoLib13File__Analyze6TS_SetExNS0_7ts_typeE
libmediainfo.so.0:_ZN12MediaInfoLib13File__Analyze6UpdateEPKc
libmediainfo.so.0:_ZN12MediaInfoLib13File__Analyze6UpdateEPS0_
libmediainfo.so.0:_ZN12MediaInfoLib13File__Analyze7DecodedEPKhm
libmediainfo.so.0:_ZN12MediaInfoLib13File__Analyze7FixFileEyPKhm
libmediainfo.so.0:_ZN12MediaInfoLib13File__Analyze7Get_B16ERN6ZenLib7uint128EPKc
libmediainfo.so.0:_ZN12MediaInfoLib13File__Analyze7Get_BF2ERfPKc
libmediainfo.so.0:_ZN12MediaInfoLib13File__Analyze7Get_BF4ERfPKc
libmediainfo.so.0:_ZN12MediaInfoLib13File__Analyze7Get_BF8ERdPKc
libmediainfo.so.0:_ZN12MediaInfoLib13File__Analyze7Get_D16ERN6ZenLib7uint128EPKc
libmediainfo.so.0:_ZN12MediaInfoLib13File__Analyze7Get_DF4ERfPKc
libmediainfo.so.0:_ZN12MediaInfoLib13File__Analyze7Get_DF8ERdPKc
libmediainfo.so.0:_ZN12MediaInfoLib13File__Analyze7Get_L16ERN6ZenLib7uint128EPKc
libmediainfo.so.0:_ZN12MediaInfoLib13File__Analyze7Get_LF4ERfPKc
libmediainfo.so.0:_ZN12MediaInfoLib13File__Analyze7Get_LF8ERdPKc
libmediainfo.so.0:_ZN12MediaInfoLib13File__Analyze7Peek_B1ERh
libmediainfo.so.0:_ZN12MediaInfoLib13File__Analyze7Peek_B2ERt
libmediainfo.so.0:_ZN12MediaInfoLib13File__Analyze7Peek_B3ERj
libmediainfo.so.0:_ZN12MediaInfoLib13File__Analyze7Peek_B4ERj
libmediainfo.so.0:_ZN12MediaInfoLib13File__Analyze7Peek_B5ERy
libmediainfo.so.0:_ZN12MediaInfoLib13File__Analyze7Peek_B6ERy
libmediainfo.so.0:_ZN12MediaInfoLib13File__Analyze7Peek_B7ERy
libmediainfo.so.0:_ZN12MediaInfoLib13File__Analyze7Peek_B8ERy
libmediainfo.so.0:_ZN12MediaInfoLib13File__Analyze7Peek_BSEhRj
libmediainfo.so.0:_ZN12MediaInfoLib13File__Analyze7Peek_BTEmRj
libmediainfo.so.0:_ZN12MediaInfoLib13File__Analyze7Peek_D1ERh
libmediainfo.so.0:_ZN12MediaInfoLib13File__Analyze7Peek_D2ERt
libmediainfo.so.0:_ZN12MediaInfoLib13File__Analyze7Peek_D3ERj
libmediainfo.so.0:_ZN12MediaInfoLib13File__Analyze7Peek_D4ERj
libmediainfo.so.0:_ZN12MediaInfoLib13File__Analyze7Peek_D5ERy
libmediainfo.so.0:_ZN12MediaInfoLib13File__Analyze7Peek_D6ERy
libmediainfo.so.0:_ZN12MediaInfoLib13File__Analyze7Peek_D7ERy
libmediainfo.so.0:_ZN12MediaInfoLib13File__Analyze7Peek_D8ERy
libmediainfo.so.0:_ZN12MediaInfoLib13File__Analyze7Peek_L1ERh
libmediainfo.so.0:_ZN12MediaInfoLib13File__Analyze7Peek_L2ERt
libmediainfo.so.0:_ZN12MediaInfoLib13File__Analyze7Peek_L3ERj
libmediainfo.so.0:_ZN12MediaInfoLib13File__Analyze7Peek_L4ERj
libmediainfo.so.0:_ZN12MediaInfoLib13File__Analyze7Peek_L5ERy
libmediainfo.so.0:_ZN12MediaInfoLib13File__Analyze7Peek_L6ERy
libmediainfo.so.0:_ZN12MediaInfoLib13File__Analyze7Peek_L7ERy
libmediainfo.so.0:_ZN12MediaInfoLib13File__Analyze7Peek_L8ERy
libmediainfo.so.0:_ZN12MediaInfoLib13File__Analyze7Peek_S1EhRh
libmediainfo.so.0:_ZN12MediaInfoLib13File__Analyze7Peek_S2EhRt
libmediainfo.so.0:_ZN12MediaInfoLib13File__Analyze7Peek_S3EhRj
libmediainfo.so.0:_ZN12MediaInfoLib13File__Analyze7Peek_S4EhRj
libmediainfo.so.0:_ZN12MediaInfoLib13File__Analyze7Peek_S5EhRy
libmediainfo.so.0:_ZN12MediaInfoLib13File__Analyze7Peek_S6EhRy
libmediainfo.so.0:_ZN12MediaInfoLib13File__Analyze7Peek_S7EhRy
libmediainfo.so.0:_ZN12MediaInfoLib13File__Analyze7Peek_S8EhRy
libmediainfo.so.0:_ZN12MediaInfoLib13File__Analyze7Peek_SBERb
libmediainfo.so.0:_ZN12MediaInfoLib13File__Analyze7Peek_T1EmRh
libmediainfo.so.0:_ZN12MediaInfoLib13File__Analyze7Peek_T2EmRt
libmediainfo.so.0:_ZN12MediaInfoLib13File__Analyze7Peek_T4EmRj
libmediainfo.so.0:_ZN12MediaInfoLib13File__Analyze7Peek_T8EmRy
libmediainfo.so.0:_ZN12MediaInfoLib13File__Analyze7Peek_TBERb
libmediainfo.so.0:_ZN12MediaInfoLib13File__Analyze7Skip_B1EPKc
libmediainfo.so.0:_ZN12MediaInfoLib13File__Analyze7Skip_B2EPKc
libmediainfo.so.0:_ZN12MediaInfoLib13File__Analyze7Skip_B3EPKc
libmediainfo.so.0:_ZN12MediaInfoLib13File__Analyze7Skip_B4EPKc
libmediainfo.so.0:_ZN12MediaInfoLib13File__Analyze7Skip_B5EPKc
libmediainfo.so.0:_ZN12MediaInfoLib13File__Analyze7Skip_B6EPKc
libmediainfo.so.0:_ZN12MediaInfoLib13File__Analyze7Skip_B7EPKc
libmediainfo.so.0:_ZN12MediaInfoLib13File__Analyze7Skip_B8EPKc
libmediainfo.so.0:_ZN12MediaInfoLib13File__Analyze7Skip_BSEmPKc
libmediainfo.so.0:_ZN12MediaInfoLib13File__Analyze7Skip_BTEmPKc
libmediainfo.so.0:_ZN12MediaInfoLib13File__Analyze7Skip_C1EPKc
libmediainfo.so.0:_ZN12MediaInfoLib13File__Analyze7Skip_C2EPKc
libmediainfo.so.0:_ZN12MediaInfoLib13File__Analyze7Skip_C3EPKc
libmediainfo.so.0:_ZN12MediaInfoLib13File__Analyze7Skip_C4EPKc
libmediainfo.so.0:_ZN12MediaInfoLib13File__Analyze7Skip_C5EPKc
libmediainfo.so.0:_ZN12MediaInfoLib13File__Analyze7Skip_C6EPKc
libmediainfo.so.0:_ZN12MediaInfoLib13File__Analyze7Skip_C7EPKc
libmediainfo.so.0:_ZN12MediaInfoLib13File__Analyze7Skip_C8EPKc
libmediainfo.so.0:_ZN12MediaInfoLib13File__Analyze7Skip_D1EPKc
libmediainfo.so.0:_ZN12MediaInfoLib13File__Analyze7Skip_D2EPKc
libmediainfo.so.0:_ZN12MediaInfoLib13File__Analyze7Skip_D3EPKc
libmediainfo.so.0:_ZN12MediaInfoLib13File__Analyze7Skip_D4EPKc
libmediainfo.so.0:_ZN12MediaInfoLib13File__Analyze7Skip_D5EPKc
libmediainfo.so.0:_ZN12MediaInfoLib13File__Analyze7Skip_D6EPKc
libmediainfo.so.0:_ZN12MediaInfoLib13File__Analyze7Skip_D7EPKc
libmediainfo.so.0:_ZN12MediaInfoLib13File__Analyze7Skip_D8EPKc
libmediainfo.so.0:_ZN12MediaInfoLib13File__Analyze7Skip_L1EPKc
libmediainfo.so.0:_ZN12MediaInfoLib13File__Analyze7Skip_L2EPKc
libmediainfo.so.0:_ZN12MediaInfoLib13File__Analyze7Skip_L3EPKc
libmediainfo.so.0:_ZN12MediaInfoLib13File__Analyze7Skip_L4EPKc
libmediainfo.so.0:_ZN12MediaInfoLib13File__Analyze7Skip_L5EPKc
libmediainfo.so.0:_ZN12MediaInfoLib13File__Analyze7Skip_L6EPKc
libmediainfo.so.0:_ZN12MediaInfoLib13File__Analyze7Skip_L7EPKc
libmediainfo.so.0:_ZN12MediaInfoLib13File__Analyze7Skip_L8EPKc
libmediainfo.so.0:_ZN12MediaInfoLib13File__Analyze7Skip_PAEPKc
libmediainfo.so.0:_ZN12MediaInfoLib13File__Analyze7Skip_S1EhPKc
libmediainfo.so.0:_ZN12MediaInfoLib13File__Analyze7Skip_S2EhPKc
libmediainfo.so.0:_ZN12MediaInfoLib13File__Analyze7Skip_S3EhPKc
libmediainfo.so.0:_ZN12MediaInfoLib13File__Analyze7Skip_S4EhPKc
libmediainfo.so.0:_ZN12MediaInfoLib13File__Analyze7Skip_S5EhPKc
libmediainfo.so.0:_ZN12MediaInfoLib13File__Analyze7Skip_S6EhPKc
libmediainfo.so.0:_ZN12MediaInfoLib13File__Analyze7Skip_S7EhPKc
libmediainfo.so.0:_ZN12MediaInfoLib13File__Analyze7Skip_S8EhPKc
libmediainfo.so.0:_ZN12MediaInfoLib13File__Analyze7Skip_SBEPKc
libmediainfo.so.0:_ZN12MediaInfoLib13File__Analyze7Skip_SEEPKc
libmediainfo.so.0:_ZN12MediaInfoLib13File__Analyze7Skip_SIEPKc
libmediainfo.so.0:_ZN12MediaInfoLib13File__Analyze7Skip_T1EmPKc
libmediainfo.so.0:_ZN12MediaInfoLib13File__Analyze7Skip_T2EmPKc
libmediainfo.so.0:_ZN12MediaInfoLib13File__Analyze7Skip_T4EmPKc
libmediainfo.so.0:_ZN12MediaInfoLib13File__Analyze7Skip_T8EmPKc
libmediainfo.so.0:_ZN12MediaInfoLib13File__Analyze7Skip_TBEPKc
libmediainfo.so.0:_ZN12MediaInfoLib13File__Analyze7Skip_UEEPKc
libmediainfo.so.0:_ZN12MediaInfoLib13File__Analyze7Skip_UIEPKc
libmediainfo.so.0:_ZN12MediaInfoLib13File__Analyze7Skip_VLEPKNS0_3vlcEPKc
libmediainfo.so.0:_ZN12MediaInfoLib13File__Analyze7Skip_VSEPKc
libmediainfo.so.0:_ZN12MediaInfoLib13File__Analyze7Skip_XXEyPKc
libmediainfo.so.0:_ZN12MediaInfoLib13File__Analyze8BS_BeginEv
libmediainfo.so.0:_ZN12MediaInfoLib13File__Analyze8Fill_DupENS_8stream_tEmPKcRKN6ZenLib6ZtringEb
libmediainfo.so.0:_ZN12MediaInfoLib13File__Analyze8Get_BF10ERePKc
libmediainfo.so.0:_ZN12MediaInfoLib13File__Analyze8Get_BFP4EhRfPKc
libmediainfo.so.0:_ZN12MediaInfoLib13File__Analyze8Get_GUIDERN6ZenLib7uint128EPKc
libmediainfo.so.0:_ZN12MediaInfoLib13File__Analyze8Get_UTF8EyRN6ZenLib6ZtringEPKc
libmediainfo.so.0:_ZN12MediaInfoLib13File__Analyze8Get_UUIDERN6ZenLib7uint128EPKc
libmediainfo.so.0:_ZN12MediaInfoLib13File__Analyze8Peek_B16ERN6ZenLib7uint128E
libmediainfo.so.0:_ZN12MediaInfoLib13File__Analyze8RetrieveENS_8stream_tEmPKcNS_6info_tE
libmediainfo.so.0:_ZN12MediaInfoLib13File__Analyze8RetrieveENS_8stream_tEmmNS_6info_tE
libmediainfo.so.0:_ZN12MediaInfoLib13File__Analyze8Skip_B16EPKc
libmediainfo.so.0:_ZN12MediaInfoLib13File__Analyze8Skip_BF4EPKc
libmediainfo.so.0:_ZN12MediaInfoLib13File__Analyze8Skip_D16EPKc
libmediainfo.so.0:_ZN12MediaInfoLib13File__Analyze8Skip_L16EPKc
libmediainfo.so.0:_ZN12MediaInfoLib13File__Analyze8TS_AjustEx
libmediainfo.so.0:_ZN12MediaInfoLib13File__Analyze8TS_ClearENS0_7ts_typeE
libmediainfo.so.0:_ZN12MediaInfoLib13File__Analyze9BS_End_LEEv
libmediainfo.so.0:_ZN12MediaInfoLib13File__Analyze9Data_GoToEyPKc
libmediainfo.so.0:_ZN12MediaInfoLib13File__Analyze9Data_InfoERKN6ZenLib6ZtringE
libmediainfo.so.0:_ZN12MediaInfoLib13File__Analyze9Get_FlagsEyRhPKc
libmediainfo.so.0:_ZN12MediaInfoLib13File__Analyze9Get_FlagsEymRbPKc
libmediainfo.so.0:_ZN12MediaInfoLib13File__Analyze9Get_LocalEyRN6ZenLib6ZtringEPKc
libmediainfo.so.0:_ZN12MediaInfoLib13File__Analyze9Get_UTF16EyRN6ZenLib6ZtringEPKc
libmediainfo.so.0:_ZN12MediaInfoLib13File__Analyze9Skip_BFP4EhPKc
libmediainfo.so.0:_ZN12MediaInfoLib13File__Analyze9Skip_GUIDEPKc
libmediainfo.so.0:_ZN12MediaInfoLib13File__Analyze9Skip_HexaEhPKc
libmediainfo.so.0:_ZN12MediaInfoLib13File__Analyze9Skip_UTF8EyPKc
libmediainfo.so.0:_ZN12MediaInfoLib13File__Analyze9Skip_UUIDEPKc
libmediainfo.so.0:_ZN12MediaInfoLib13File__AnalyzeC1Ev
libmediainfo.so.0:_ZN12MediaInfoLib13File__AnalyzeC2Ev
libmediainfo.so.0:_ZN12MediaInfoLib13File__AnalyzeD0Ev
libmediainfo.so.0:_ZN12MediaInfoLib13File__AnalyzeD1Ev
libmediainfo.so.0:_ZN12MediaInfoLib13File__AnalyzeD2Ev
libmediainfo.so.0:_ZN12MediaInfoLib13Gxf_FrameRateEj
libmediainfo.so.0:_ZN12MediaInfoLib13HighestFormatENS_8stream_tEmRKN6ZenLib10ZtringListERb
libmediainfo.so.0:_ZN12MediaInfoLib13Jpeg2000_RsizB5cxx11Et
libmediainfo.so.0:_ZN12MediaInfoLib13MediaInfoList13Option_StaticERKNSt7__cxx1112basic_stringIwSt11char_traitsIwESaIwEEES8_
libmediainfo.so.0:_ZN12MediaInfoLib13MediaInfoList16Open_Buffer_InitEyy
libmediainfo.so.0:_ZN12MediaInfoLib13MediaInfoList20Open_Buffer_ContinueEmPKhm
libmediainfo.so.0:_ZN12MediaInfoLib13MediaInfoList20Open_Buffer_FinalizeEm
libmediainfo.so.0:_ZN12MediaInfoLib13MediaInfoList29Open_Buffer_Continue_GoTo_GetEm
libmediainfo.so.0:_ZN12MediaInfoLib13MediaInfoList3GetB5cxx11EmNS_8stream_tEmmNS_6info_tE
libmediainfo.so.0:_ZN12MediaInfoLib13MediaInfoList3GetEmNS_8stream_tEmRKNSt7__cxx1112basic_stringIwSt11char_traitsIwESaIwEEENS_6info_tESA_
libmediainfo.so.0:_ZN12MediaInfoLib13MediaInfoList3SetERKNSt7__cxx1112basic_stringIwSt11char_traitsIwESaIwEEEmNS_8stream_tEmS8_S8_
libmediainfo.so.0:_ZN12MediaInfoLib13MediaInfoList3SetERKNSt7__cxx1112basic_stringIwSt11char_traitsIwESaIwEEEmNS_8stream_tEmmS8_
libmediainfo.so.0:_ZN12MediaInfoLib13MediaInfoList4OpenERKNSt7__cxx1112basic_stringIwSt11char_traitsIwESaIwEEENS_13fileoptions_tE
libmediainfo.so.0:_ZN12MediaInfoLib13MediaInfoList4SaveEm
libmediainfo.so.0:_ZN12MediaInfoLib13MediaInfoList5CloseEm
libmediainfo.so.0:_ZN12MediaInfoLib13MediaInfoList6InformB5cxx11Emm
libmediainfo.so.0:_ZN12MediaInfoLib13MediaInfoList6OptionERKNSt7__cxx1112basic_stringIwSt11char_traitsIwESaIwEEES8_
libmediainfo.so.0:_ZN12MediaInfoLib13MediaInfoList9Count_GetEmNS_8stream_tEm
libmediainfo.so.0:_ZN12MediaInfoLib13MediaInfoList9Count_GetEv
libmediainfo.so.0:_ZN12MediaInfoLib13MediaInfoList9State_GetEv
libmediainfo.so.0:_ZN12MediaInfoLib13MediaInfoListC1Em
libmediainfo.so.0:_ZN12MediaInfoLib13MediaInfoListC2Em
libmediainfo.so.0:_ZN12MediaInfoLib13MediaInfoListD1Ev
libmediainfo.so.0:_ZN12MediaInfoLib13MediaInfoListD2Ev
libmediainfo.so.0:_ZN12MediaInfoLib13PercentDecodeERKNSt7__cxx1112basic_stringIcSt11char_traitsIcESaIcEEE
libmediainfo.so.0:_ZN12MediaInfoLib13PercentEncodeERKNSt7__cxx1112basic_stringIcSt11char_traitsIcESaIcEEE
libmediainfo.so.0:_ZN12MediaInfoLib13Reader_libmms11Format_TestEPNS_18MediaInfo_InternalENSt7__cxx1112basic_stringIwSt11char_traitsIwESaIwEEE
libmediainfo.so.0:_ZN12MediaInfoLib13Value_IsEmptyEPKPKcm
libmediainfo.so.0:_ZN12MediaInfoLib14Aac_k0_ComputeEhh
libmediainfo.so.0:_ZN12MediaInfoLib14Aac_k2_ComputeEhhh
libmediainfo.so.0:_ZN12MediaInfoLib14CRC_16_ComputeEPKhmhh
libmediainfo.so.0:_ZN12MediaInfoLib14Export_EbuCore9TransformERNS_18MediaInfo_InternalENS0_7versionENS0_25acquisitiondataoutputmodeENS0_6formatEN6ZenLib6ZtringES7_
libmediainfo.so.0:_ZN12MediaInfoLib14Export_EbuCoreC1Ev
libmediainfo.so.0:_ZN12MediaInfoLib14Export_EbuCoreC2Ev
libmediainfo.so.0:_ZN12MediaInfoLib14Export_EbuCoreD1Ev
libmediainfo.so.0:_ZN12MediaInfoLib14Export_EbuCoreD2Ev
libmediainfo.so.0:_ZN12MediaInfoLib14Export_PBCore29TransformERNS_18MediaInfo_InternalENS0_7versionE
libmediainfo.so.0:_ZN12MediaInfoLib14Export_PBCore2C1Ev
libmediainfo.so.0:_ZN12MediaInfoLib14Export_PBCore2C2Ev
libmediainfo.so.0:_ZN12MediaInfoLib14Export_PBCore2D1Ev
libmediainfo.so.0:_ZN12MediaInfoLib14Export_PBCore2D2Ev
libmediainfo.so.0:_ZN12MediaInfoLib14File_Ancillary10Data_ParseEv
libmediainfo.so.0:_ZN12MediaInfoLib14File_Ancillary11SynchronizeEv
libmediainfo.so.0:_ZN12MediaInfoLib14File_Ancillary12Header_ParseEv
libmediainfo.so.0:_ZN12MediaInfoLib14File_Ancillary12Synched_TestEv
libmediainfo.so.0:_ZN12MediaInfoLib14File_Ancillary14Streams_FinishEv
libmediainfo.so.0:_ZN12MediaInfoLib14File_Ancillary14TestAndPrepareEPKNSt7__cxx1112basic_stringIcSt11char_traitsIcESaIcEEE
libmediainfo.so.0:_ZN12MediaInfoLib14File_Ancillary16SetDefaultFormatEv
libmediainfo.so.0:_ZN12MediaInfoLib14File_Ancillary20Read_Buffer_ContinueEv
libmediainfo.so.0:_ZN12MediaInfoLib14File_Ancillary21Read_Buffer_UnsynchedEv
libmediainfo.so.0:_ZN12MediaInfoLib14File_Ancillary24Read_Buffer_AfterParsingEv
libmediainfo.so.0:_ZN12MediaInfoLib14File_AncillaryC1Ev
libmediainfo.so.0:_ZN12MediaInfoLib14File_AncillaryC2Ev
libmediainfo.so.0:_ZN12MediaInfoLib14File_AncillaryD0Ev
libmediainfo.so.0:_ZN12MediaInfoLib14File_AncillaryD1Ev
libmediainfo.so.0:_ZN12MediaInfoLib14File_AncillaryD2Ev
libmediainfo.so.0:_ZN12MediaInfoLib14File_Lyrics3v210Data_ParseEv
libmediainfo.so.0:_ZN12MediaInfoLib14File_Lyrics3v212Header_ParseEv
libmediainfo.so.0:_ZN12MediaInfoLib14File_Lyrics3v216FileHeader_ParseEv
libmediainfo.so.0:_ZN12MediaInfoLib14File_Lyrics3v23EALEv
libmediainfo.so.0:_ZN12MediaInfoLib14File_Lyrics3v23EAREv
libmediainfo.so.0:_ZN12MediaInfoLib14File_Lyrics3v23ETTEv
libmediainfo.so.0:_ZN12MediaInfoLib14File_Lyrics3v23INDEv
libmediainfo.so.0:_ZN12MediaInfoLib14File_Lyrics3v23INFEv
libmediainfo.so.0:_ZN12MediaInfoLib14File_Lyrics3v23LYREv
libmediainfo.so.0:_ZN12MediaInfoLib14File_Lyrics3v26FooterEv
libmediainfo.so.0:_ZN12MediaInfoLib14File_Lyrics3v2C1Ev
libmediainfo.so.0:_ZN12MediaInfoLib14File_Lyrics3v2C2Ev
libmediainfo.so.0:_ZN12MediaInfoLib14File_OtherText20Read_Buffer_ContinueEv
libmediainfo.so.0:_ZN12MediaInfoLib14File_TimedText10Data_ParseEv
libmediainfo.so.0:_ZN12MediaInfoLib14File_TimedText12Header_ParseEv
libmediainfo.so.0:_ZN12MediaInfoLib14File_TimedTextC1Ev
libmediainfo.so.0:_ZN12MediaInfoLib14File_TimedTextC2Ev
libmediainfo.so.0:_ZN12MediaInfoLib14File_VorbisCom10Data_ParseEv
libmediainfo.so.0:_ZN12MediaInfoLib14File_VorbisCom12Header_ParseEv
libmediainfo.so.0:_ZN12MediaInfoLib14File_VorbisCom12Streams_FillEv
libmediainfo.so.0:_ZN12MediaInfoLib14File_VorbisCom16FileHeader_ParseEv
libmediainfo.so.0:_ZN12MediaInfoLib14File_VorbisComC1Ev
libmediainfo.so.0:_ZN12MediaInfoLib14File_VorbisComC2Ev
libmediainfo.so.0:_ZN12MediaInfoLib14Hevc_tier_flagEb
libmediainfo.so.0:_ZN12MediaInfoLib14ICC_ColorSpaceB5cxx11Ej
libmediainfo.so.0:_ZN12MediaInfoLib14Jpeg_WithLevelENSt7__cxx1112basic_stringIcSt11char_traitsIcESaIcEEEhb
libmediainfo.so.0:_ZN12MediaInfoLib14Reader_libcurl11Format_TestEPNS_18MediaInfo_InternalENSt7__cxx1112basic_stringIwSt11char_traitsIwESaIwEEE
libmediainfo.so.0:_ZN12MediaInfoLib14Reader_libcurl21Format_Test_PerParserEPNS_18MediaInfo_InternalERKNSt7__cxx1112basic_stringIwSt11char_traitsIwESaIwEEE
libmediainfo.so.0:_ZN12MediaInfoLib14Reader_libcurl26Format_Test_PerParser_SeekEPNS_18MediaInfo_InternalEmyy
libmediainfo.so.0:_ZN12MediaInfoLib14Reader_libcurl30Format_Test_PerParser_ContinueEPNS_18MediaInfo_InternalE
libmediainfo.so.0:_ZN12MediaInfoLib14Reader_libcurl4LoadEN6ZenLib6ZtringE
libmediainfo.so.0:_ZN12MediaInfoLib14Reader_libcurl8Curl_LogEi
libmediainfo.so.0:_ZN12MediaInfoLib14Reader_libcurl8Curl_LogEiRKN6ZenLib6ZtringE
libmediainfo.so.0:_ZN12MediaInfoLib14Reader_libcurlC1Ev
libmediainfo.so.0:_ZN12MediaInfoLib14Reader_libcurlC2Ev
libmediainfo.so.0:_ZN12MediaInfoLib14Reader_libcurlD0Ev
libmediainfo.so.0:_ZN12MediaInfoLib14Reader_libcurlD1Ev
libmediainfo.so.0:_ZN12MediaInfoLib14Reader_libcurlD2Ev
libmediainfo.so.0:_ZN12MediaInfoLib14ToAngle3DigitsB5cxx11Ei
libmediainfo.so.0:_ZN12MediaInfoLib15Amazon_AWS_SignERNSt7__cxx1112basic_stringIwSt11char_traitsIwESaIwEEERP10curl_slistRKNS_4Http3UrlERKNS1_IcS2_IcESaIcEEESI_RKN6ZenLib10ZtringListE
libmediainfo.so.0:_ZN12MediaInfoLib15Av1_seq_profileEh
libmediainfo.so.0:_ZN12MediaInfoLib15Avc_profile_idcEh
libmediainfo.so.0:_ZN12MediaInfoLib15File_AfdBarData12Streams_FillEv
libmediainfo.so.0:_ZN12MediaInfoLib15File_AfdBarData20Read_Buffer_ContinueEv
libmediainfo.so.0:_ZN12MediaInfoLib15File_AfdBarData8afd_dataEv
libmediainfo.so.0:_ZN12MediaInfoLib15File_AfdBarData8bar_dataEv
libmediainfo.so.0:_ZN12MediaInfoLib15File_AfdBarDataC1Ev
libmediainfo.so.0:_ZN12MediaInfoLib15File_AfdBarDataC2Ev
libmediainfo.so.0:_ZN12MediaInfoLib15File_Xdcam_Clip16FileHeader_BeginEv
libmediainfo.so.0:_ZN12MediaInfoLib15File__Duplicate19File__Duplicate_GetEv
libmediainfo.so.0:_ZN12MediaInfoLib15File__Duplicate26File__Duplicate_HasChangedEv
libmediainfo.so.0:_ZN12MediaInfoLib15File__DuplicateC1Ev
libmediainfo.so.0:_ZN12MediaInfoLib15File__DuplicateC2Ev
libmediainfo.so.0:_ZN12MediaInfoLib15File__DuplicateD0Ev
libmediainfo.so.0:_ZN12MediaInfoLib15File__DuplicateD1Ev
libmediainfo.so.0:_ZN12MediaInfoLib15File__DuplicateD2Ev
libmediainfo.so.0:_ZN12MediaInfoLib15Fims_XML_EncodeERKN6ZenLib6ZtringE
libmediainfo.so.0:_ZN12MediaInfoLib15Rar_HEADER_TYPEEh
libmediainfo.so.0:_ZN12MediaInfoLib15element_details12Element_Node10Print_TreeERNS1_11print_strucE
libmediainfo.so.0:_ZN12MediaInfoLib15element_details12Element_Node14Print_Tree_CatERNS1_11print_strucE
libmediainfo.so.0:_ZN12MediaInfoLib15element_details12Element_Node15Print_Micro_XmlERNS1_11print_strucE
libmediainfo.so.0:_ZN12MediaInfoLib15element_details12Element_Node15TakeChilrenFromERS1_
libmediainfo.so.0:_ZN12MediaInfoLib15element_details12Element_Node4InitEv
libmediainfo.so.0:_ZN12MediaInfoLib15element_details12Element_Node5PrintENS_16MediaInfo_Config12trace_FormatERNSt7__cxx1112basic_stringIcSt11char_traitsIcESaIcEEERKS9_y
libmediainfo.so.0:_ZN12MediaInfoLib15element_details12Element_Node9Add_ChildEPS1_
libmediainfo.so.0:_ZN12MediaInfoLib15element_details12Element_Node9Print_XmlERNS1_11print_strucE
libmediainfo.so.0:_ZN12MediaInfoLib15element_details12Element_NodeC1ERKS1_
libmediainfo.so.0:_ZN12MediaInfoLib15element_details12Element_NodeC1Ev
libmediainfo.so.0:_ZN12MediaInfoLib15element_details12Element_NodeC2ERKS1_
libmediainfo.so.0:_ZN12MediaInfoLib15element_details12Element_NodeC2Ev
libmediainfo.so.0:_ZN12MediaInfoLib15element_details12Element_NodeD1Ev
libmediainfo.so.0:_ZN12MediaInfoLib15element_details12Element_NodeD2Ev
libmediainfo.so.0:_ZN12MediaInfoLib15element_details17Element_Node_Data34get_hexa_from_deci_limited_by_bitsERNSt7__cxx1112basic_stringIcSt11char_traitsIcESaIcEEEhh
libmediainfo.so.0:_ZN12MediaInfoLib15element_details17Element_Node_Data5clearEv
libmediainfo.so.0:_ZN12MediaInfoLib15element_details17Element_Node_DataaSEN6ZenLib7uint128E
libmediainfo.so.0:_ZN12MediaInfoLib15element_details17Element_Node_DataaSEPKc
libmediainfo.so.0:_ZN12MediaInfoLib15element_details17Element_Node_DataaSERKN6ZenLib6ZtringE
libmediainfo.so.0:_ZN12MediaInfoLib15element_details17Element_Node_DataaSERKNSt7__cxx1112basic_stringIcSt11char_traitsIcESaIcEEE
libmediainfo.so.0:_ZN12MediaInfoLib15element_details17Element_Node_DataaSERKS1_
libmediainfo.so.0:_ZN12MediaInfoLib15element_details17Element_Node_DataaSEa
libmediainfo.so.0:_ZN12MediaInfoLib15element_details17Element_Node_DataaSEb
libmediainfo.so.0:_ZN12MediaInfoLib15element_details17Element_Node_DataaSEd
libmediainfo.so.0:_ZN12MediaInfoLib15element_details17Element_Node_DataaSEe
libmediainfo.so.0:_ZN12MediaInfoLib15element_details17Element_Node_DataaSEf
libmediainfo.so.0:_ZN12MediaInfoLib15element_details17Element_Node_DataaSEh
libmediainfo.so.0:_ZN12MediaInfoLib15element_details17Element_Node_DataaSEi
libmediainfo.so.0:_ZN12MediaInfoLib15element_details17Element_Node_DataaSEj
libmediainfo.so.0:_ZN12MediaInfoLib15element_details17Element_Node_DataaSEs
libmediainfo.so.0:_ZN12MediaInfoLib15element_details17Element_Node_DataaSEt
libmediainfo.so.0:_ZN12MediaInfoLib15element_details17Element_Node_DataaSEx
libmediainfo.so.0:_ZN12MediaInfoLib15element_details17Element_Node_DataaSEy
libmediainfo.so.0:_ZN12MediaInfoLib15element_details17Element_Node_DataeqERKNSt7__cxx1112basic_stringIcSt11char_traitsIcESaIcEEE
libmediainfo.so.0:_ZN12MediaInfoLib15uint128toStringB5cxx11EN6ZenLib7uint128Ei
libmediainfo.so.0:_ZN12MediaInfoLib16Aac_Channels_GetEh
libmediainfo.so.0:_ZN12MediaInfoLib16Au_sample_formatEj
libmediainfo.so.0:_ZN12MediaInfoLib16DPX_DateTime2IsoERKNSt7__cxx1112basic_stringIcSt11char_traitsIcESaIcEEE
libmediainfo.so.0:_ZN12MediaInfoLib16Dirac_frame_rateEj
libmediainfo.so.0:_ZN12MediaInfoLib16EbuCore_DurationEx
libmediainfo.so.0:_ZN12MediaInfoLib16ExternalMetadataERKN6ZenLib6ZtringES3_S3_RKNS0_10ZtringListES3_PNS_4NodeES8_
libmediainfo.so.0:_ZN12MediaInfoLib16File_DvbSubtitle10Data_ParseEv
libmediainfo.so.0:_ZN12MediaInfoLib16File_DvbSubtitle11SynchronizeEv
libmediainfo.so.0:_ZN12MediaInfoLib16File_DvbSubtitle12Header_ParseEv
libmediainfo.so.0:_ZN12MediaInfoLib16File_DvbSubtitle12Streams_FillEv
libmediainfo.so.0:_ZN12MediaInfoLib16File_DvbSubtitle12Synched_TestEv
libmediainfo.so.0:_ZN12MediaInfoLib16File_DvbSubtitle12private_dataEv
libmediainfo.so.0:_ZN12MediaInfoLib16File_DvbSubtitle14Streams_FinishEv
libmediainfo.so.0:_ZN12MediaInfoLib16File_DvbSubtitle19object_data_segmentEv
libmediainfo.so.0:_ZN12MediaInfoLib16File_DvbSubtitle21Read_Buffer_UnsynchedEv
libmediainfo.so.0:_ZN12MediaInfoLib16File_DvbSubtitle23CLUT_definition_segmentEv
libmediainfo.so.0:_ZN12MediaInfoLib16File_DvbSubtitle23reserved_for_future_useEv
libmediainfo.so.0:_ZN12MediaInfoLib16File_DvbSubtitle24page_composition_segmentEv
libmediainfo.so.0:_ZN12MediaInfoLib16File_DvbSubtitle26display_definition_segmentEv
libmediainfo.so.0:_ZN12MediaInfoLib16File_DvbSubtitle26end_of_display_set_segmentEv
libmediainfo.so.0:_ZN12MediaInfoLib16File_DvbSubtitle26region_composition_segmentEv
libmediainfo.so.0:_ZN12MediaInfoLib16File_DvbSubtitle28end_of_PES_data_field_markerEv
libmediainfo.so.0:_ZN12MediaInfoLib16File_DvbSubtitle31Demux_UnpacketizeContainer_TestEv
libmediainfo.so.0:_ZN12MediaInfoLib16File_DvbSubtitleC1Ev
libmediainfo.so.0:_ZN12MediaInfoLib16File_DvbSubtitleC2Ev
libmediainfo.so.0:_ZN12MediaInfoLib16File_DvbSubtitleD0Ev
libmediainfo.so.0:_ZN12MediaInfoLib16File_DvbSubtitleD1Ev
libmediainfo.so.0:_ZN12MediaInfoLib16File_DvbSubtitleD2Ev
libmediainfo.so.0:_ZN12MediaInfoLib16File_SmpteSt030212Streams_FillEv
libmediainfo.so.0:_ZN12MediaInfoLib16File_SmpteSt030214Streams_AcceptEv
libmediainfo.so.0:_ZN12MediaInfoLib16File_SmpteSt030214Streams_FinishEv
libmediainfo.so.0:_ZN12MediaInfoLib16File_SmpteSt030220Read_Buffer_ContinueEv
libmediainfo.so.0:_ZN12MediaInfoLib16File_SmpteSt0302C1Ev
libmediainfo.so.0:_ZN12MediaInfoLib16File_SmpteSt0302C2Ev
libmediainfo.so.0:_ZN12MediaInfoLib16File_SmpteSt0302D0Ev
libmediainfo.so.0:_ZN12MediaInfoLib16File_SmpteSt0302D1Ev
libmediainfo.so.0:_ZN12MediaInfoLib16File_SmpteSt0302D2Ev
libmediainfo.so.0:_ZN12MediaInfoLib16File_SmpteSt033112Streams_FillEv
libmediainfo.so.0:_ZN12MediaInfoLib16File_SmpteSt033120Read_Buffer_ContinueEv
libmediainfo.so.0:_ZN12MediaInfoLib16File_SmpteSt0331C1Ev
libmediainfo.so.0:_ZN12MediaInfoLib16File_SmpteSt0331C2Ev
libmediainfo.so.0:_ZN12MediaInfoLib16File_SmpteSt033710Data_ParseEv
libmediainfo.so.0:_ZN12MediaInfoLib16File_SmpteSt033711SynchronizeEv
libmediainfo.so.0:_ZN12MediaInfoLib16File_SmpteSt033712Header_ParseEv
libmediainfo.so.0:_ZN12MediaInfoLib16File_SmpteSt033712Streams_FillEv
libmediainfo.so.0:_ZN12MediaInfoLib16File_SmpteSt033712Synched_InitEv
libmediainfo.so.0:_ZN12MediaInfoLib16File_SmpteSt033712Synched_TestEv
libmediainfo.so.0:_ZN12MediaInfoLib16File_SmpteSt033714Streams_AcceptEv
libmediainfo.so.0:_ZN12MediaInfoLib16File_SmpteSt033714Streams_FinishEv
libmediainfo.so.0:_ZN12MediaInfoLib16File_SmpteSt033716Read_Buffer_SeekEmyy
libmediainfo.so.0:_ZN12MediaInfoLib16File_SmpteSt033721Read_Buffer_UnsynchedEv
libmediainfo.so.0:_ZN12MediaInfoLib16File_SmpteSt0337C1Ev
libmediainfo.so.0:_ZN12MediaInfoLib16File_SmpteSt0337C2Ev
libmediainfo.so.0:_ZN12MediaInfoLib16File_SmpteSt0337D0Ev
libmediainfo.so.0:_ZN12MediaInfoLib16File_SmpteSt0337D1Ev
libmediainfo.so.0:_ZN12MediaInfoLib16File_SmpteSt0337D2Ev
libmediainfo.so.0:_ZN12MediaInfoLib16Hevc_profile_idcEj
libmediainfo.so.0:_ZN12MediaInfoLib16MediaInfo_Config10Compat_GetEv
libmediainfo.so.0:_ZN12MediaInfoLib16MediaInfo_Config10Compat_SetEy
libmediainfo.so.0:_ZN12MediaInfoLib16MediaInfo_Config10Event_SendEPKhm
libmediainfo.so.0:_ZN12MediaInfoLib16MediaInfo_Config10Event_SendEPKhmRKN6ZenLib6ZtringE
libmediainfo.so.0:_ZN12MediaInfoLib16MediaInfo_Config10Format_GetERKN6ZenLib6ZtringENS_12infoformat_tE
libmediainfo.so.0:_ZN12MediaInfoLib16MediaInfo_Config10Format_GetEv
libmediainfo.so.0:_ZN12MediaInfoLib16MediaInfo_Config10Inform_GetERKN6ZenLib6ZtringE
libmediainfo.so.0:_ZN12MediaInfoLib16MediaInfo_Config10Inform_GetEv
libmediainfo.so.0:_ZN12MediaInfoLib16MediaInfo_Config10Inform_SetERKN6ZenLib14ZtringListListE
libmediainfo.so.0:_ZN12MediaInfoLib16MediaInfo_Config10Legacy_GetEv
libmediainfo.so.0:_ZN12MediaInfoLib16MediaInfo_Config10Legacy_SetEb
libmediainfo.so.0:_ZN12MediaInfoLib16MediaInfo_Config11CodecID_GetENS_8stream_tENS_20infocodecid_format_tERKN6ZenLib6ZtringENS_13infocodecid_tE
libmediainfo.so.0:_ZN12MediaInfoLib16MediaInfo_Config11Iso639_FindERKN6ZenLib6ZtringE
libmediainfo.so.0:_ZN12MediaInfoLib16MediaInfo_Config11Library_GetENS_20infolibrary_format_tERKN6ZenLib6ZtringENS_13infolibrary_tE
libmediainfo.so.0:_ZN12MediaInfoLib16MediaInfo_Config11Version_GetEv
libmediainfo.so.0:_ZN12MediaInfoLib16MediaInfo_Config11Version_SetERKN6ZenLib6ZtringE
libmediainfo.so.0:_ZN12MediaInfoLib16MediaInfo_Config12Complete_GetEv
libmediainfo.so.0:_ZN12MediaInfoLib16MediaInfo_Config12Complete_SetEm
libmediainfo.so.0:_ZN12MediaInfoLib16MediaInfo_Config12Internet_GetEv
libmediainfo.so.0:_ZN12MediaInfoLib16MediaInfo_Config12Internet_SetEm
libmediainfo.so.0:_ZN12MediaInfoLib16MediaInfo_Config12Iso639_1_GetERKN6ZenLib6ZtringE
libmediainfo.so.0:_ZN12MediaInfoLib16MediaInfo_Config12Iso639_2_GetERKN6ZenLib6ZtringE
libmediainfo.so.0:_ZN12MediaInfoLib16MediaInfo_Config12Language_GetERKN6ZenLib6ZtringE
libmediainfo.so.0:_ZN12MediaInfoLib16MediaInfo_Config12Language_GetERKN6ZenLib6ZtringES4_b
libmediainfo.so.0:_ZN12MediaInfoLib16MediaInfo_Config12Language_GetEv
libmediainfo.so.0:_ZN12MediaInfoLib16MediaInfo_Config12Language_SetENS_8stream_tE
libmediainfo.so.0:_ZN12MediaInfoLib16MediaInfo_Config12Language_SetERKN6ZenLib14ZtringListListE
libmediainfo.so.0:_ZN12MediaInfoLib16MediaInfo_Config12TryToFix_GetEv
libmediainfo.so.0:_ZN12MediaInfoLib16MediaInfo_Config12TryToFix_SetEb
libmediainfo.so.0:_ZN12MediaInfoLib16MediaInfo_Config13CanHandleUrlsEv
libmediainfo.so.0:_ZN12MediaInfoLib16MediaInfo_Config13ShowFiles_SetERKN6ZenLib14ZtringListListE
libmediainfo.so.0:_ZN12MediaInfoLib16MediaInfo_Config13StreamMax_GetEv
libmediainfo.so.0:_ZN12MediaInfoLib16MediaInfo_Config13StreamMax_SetERKN6ZenLib14ZtringListListE
libmediainfo.so.0:_ZN12MediaInfoLib16MediaInfo_Config13URLEncode_GetEv
libmediainfo.so.0:_ZN12MediaInfoLib16MediaInfo_Config13URLEncode_SetENS0_9urlencodeE
libmediainfo.so.0:_ZN12MediaInfoLib16MediaInfo_Config13Verbosity_GetEv
libmediainfo.so.0:_ZN12MediaInfoLib16MediaInfo_Config13Verbosity_SetEf
libmediainfo.so.0:_ZN12MediaInfoLib16MediaInfo_Config14Cover_Data_GetEv
libmediainfo.so.0:_ZN12MediaInfoLib16MediaInfo_Config14Cover_Data_SetERKN6ZenLib6ZtringE
libmediainfo.so.0:_ZN12MediaInfoLib16MediaInfo_Config14ParseSpeed_GetEv
libmediainfo.so.0:_ZN12MediaInfoLib16MediaInfo_Config14ParseSpeed_SetEf
libmediainfo.so.0:_ZN12MediaInfoLib16MediaInfo_Config15BlockMethod_GetEv
libmediainfo.so.0:_ZN12MediaInfoLib16MediaInfo_Config15BlockMethod_SetEm
libmediainfo.so.0:_ZN12MediaInfoLib16MediaInfo_Config15Info_Codecs_GetEv
libmediainfo.so.0:_ZN12MediaInfoLib16MediaInfo_Config15ReadByHuman_GetEv
libmediainfo.so.0:_ZN12MediaInfoLib16MediaInfo_Config15ReadByHuman_SetEb
libmediainfo.so.0:_ZN12MediaInfoLib16MediaInfo_Config15Trace_Level_GetEv
libmediainfo.so.0:_ZN12MediaInfoLib16MediaInfo_Config15Trace_Level_SetERKN6ZenLib14ZtringListListE
libmediainfo.so.0:_ZN12MediaInfoLib16MediaInfo_Config16DecimalPoint_GetEv
libmediainfo.so.0:_ZN12MediaInfoLib16MediaInfo_Config16DecimalPoint_SetERKN6ZenLib6ZtringE
libmediainfo.so.0:_ZN12MediaInfoLib16MediaInfo_Config16Iso639_TranslateEN6ZenLib6ZtringE
libmediainfo.so.0:_ZN12MediaInfoLib16MediaInfo_Config16MAXML_Fields_GetERKN6ZenLib6ZtringE
libmediainfo.so.0:_ZN12MediaInfoLib16MediaInfo_Config16TagSeparator_GetEv
libmediainfo.so.0:_ZN12MediaInfoLib16MediaInfo_Config16TagSeparator_SetERKN6ZenLib6ZtringE
libmediainfo.so.0:_ZN12MediaInfoLib16MediaInfo_Config16Trace_Format_GetEv
libmediainfo.so.0:_ZN12MediaInfoLib16MediaInfo_Config16Trace_Format_SetENS0_12trace_FormatE
libmediainfo.so.0:_ZN12MediaInfoLib16MediaInfo_Config16Trace_Layers_GetEv
libmediainfo.so.0:_ZN12MediaInfoLib16MediaInfo_Config17CustomMapping_GetERKN6ZenLib6ZtringES4_
libmediainfo.so.0:_ZN12MediaInfoLib16MediaInfo_Config17CustomMapping_SetERKN6ZenLib6ZtringE
libmediainfo.so.0:_ZN12MediaInfoLib16MediaInfo_Config17HideShowParameterERKN6ZenLib6ZtringEw
libmediainfo.so.0:_ZN12MediaInfoLib16MediaInfo_Config17LineSeparator_GetEv
libmediainfo.so.0:_ZN12MediaInfoLib16MediaInfo_Config17LineSeparator_SetERKN6ZenLib6ZtringE
libmediainfo.so.0:_ZN12MediaInfoLib16MediaInfo_Config18Inform_Replace_SetERKN6ZenLib14ZtringListListE
libmediainfo.so.0:_ZN12MediaInfoLib16MediaInfo_Config18MultipleValues_GetEv
libmediainfo.so.0:_ZN12MediaInfoLib16MediaInfo_Config18MultipleValues_SetEm
libmediainfo.so.0:_ZN12MediaInfoLib16MediaInfo_Config18SkipBinaryData_GetEv
libmediainfo.so.0:_ZN12MediaInfoLib16MediaInfo_Config18SkipBinaryData_SetEb
libmediainfo.so.0:_ZN12MediaInfoLib16MediaInfo_Config18SubFile_Config_GetEv
libmediainfo.so.0:_ZN12MediaInfoLib16MediaInfo_Config18ThousandsPoint_GetEv
libmediainfo.so.0:_ZN12MediaInfoLib16MediaInfo_Config18ThousandsPoint_SetERKN6ZenLib6ZtringE
libmediainfo.so.0:_ZN12MediaInfoLib16MediaInfo_Config19ColumnSeparator_GetEv
libmediainfo.so.0:_ZN12MediaInfoLib16MediaInfo_Config19ColumnSeparator_SetERKN6ZenLib6ZtringE
libmediainfo.so.0:_ZN12MediaInfoLib16MediaInfo_Config19Info_Parameters_GetEb
libmediainfo.so.0:_ZN12MediaInfoLib16MediaInfo_Config19Inform_Compress_GetEv
libmediainfo.so.0:_ZN12MediaInfoLib16MediaInfo_Config19Inform_Compress_SetERKN6ZenLib6ZtringE
libmediainfo.so.0:_ZN12MediaInfoLib16MediaInfo_Config20ExternalMetadata_GetEv
libmediainfo.so.0:_ZN12MediaInfoLib16MediaInfo_Config20ExternalMetadata_SetEN6ZenLib6ZtringE
libmediainfo.so.0:_ZN12MediaInfoLib16MediaInfo_Config20Input_Compressed_GetEv
libmediainfo.so.0:_ZN12MediaInfoLib16MediaInfo_Config20Input_Compressed_SetERKN6ZenLib6ZtringE
libmediainfo.so.0:_ZN12MediaInfoLib16MediaInfo_Config21Language_Set_InternalENS_8stream_tE
libmediainfo.so.0:_ZN12MediaInfoLib16MediaInfo_Config21MAXML_StreamKinds_GetEv
libmediainfo.so.0:_ZN12MediaInfoLib16MediaInfo_Config21ShowFiles_Nothing_GetEv
libmediainfo.so.0:_ZN12MediaInfoLib16MediaInfo_Config21Trace_Modificator_GetERKN6ZenLib6ZtringE
libmediainfo.so.0:_ZN12MediaInfoLib16MediaInfo_Config21Trace_Modificator_SetERKN6ZenLib10ZtringListE
libmediainfo.so.0:_ZN12MediaInfoLib16MediaInfo_Config22Info_OutputFormats_GetENS_11basicformatE
libmediainfo.so.0:_ZN12MediaInfoLib16MediaInfo_Config22Inform_Replace_Get_AllEv
libmediainfo.so.0:_ZN12MediaInfoLib16MediaInfo_Config22Language_Get_TranslateERKN6ZenLib6ZtringES4_
libmediainfo.so.0:_ZN12MediaInfoLib16MediaInfo_Config22ShowFiles_TextOnly_GetEv
libmediainfo.so.0:_ZN12MediaInfoLib16MediaInfo_Config22Ssh_IgnoreSecurity_GetEv
libmediainfo.so.0:_ZN12MediaInfoLib16MediaInfo_Config22Ssh_IgnoreSecurity_SetEb
libmediainfo.so.0:_ZN12MediaInfoLib16MediaInfo_Config22Ssl_IgnoreSecurity_GetEv
libmediainfo.so.0:_ZN12MediaInfoLib16MediaInfo_Config22Ssl_IgnoreSecurity_SetEb
libmediainfo.so.0:_ZN12MediaInfoLib16MediaInfo_Config23CustomMapping_IsPresentERKN6ZenLib6ZtringES4_
libmediainfo.so.0:_ZN12MediaInfoLib16MediaInfo_Config23LegacyStreamDisplay_GetEv
libmediainfo.so.0:_ZN12MediaInfoLib16MediaInfo_Config23LegacyStreamDisplay_SetEb
libmediainfo.so.0:_ZN12MediaInfoLib16MediaInfo_Config23ShowFiles_AudioOnly_GetEv
libmediainfo.so.0:_ZN12MediaInfoLib16MediaInfo_Config23ShowFiles_VideoOnly_GetEv
libmediainfo.so.0:_ZN12MediaInfoLib16MediaInfo_Config24Format_Profile_Split_GetEv
libmediainfo.so.0:_ZN12MediaInfoLib16MediaInfo_Config24Format_Profile_Split_SetEb
libmediainfo.so.0:_ZN12MediaInfoLib16MediaInfo_Config24MpegTs_MaximumOffset_GetEv
libmediainfo.so.0:_ZN12MediaInfoLib16MediaInfo_Config24MpegTs_MaximumOffset_SetEy
libmediainfo.so.0:_ZN12MediaInfoLib16MediaInfo_Config24ShowFiles_VideoAudio_GetEv
libmediainfo.so.0:_ZN12MediaInfoLib16MediaInfo_Config24Ssl_PrivateKeyFormat_GetEv
libmediainfo.so.0:_ZN12MediaInfoLib16MediaInfo_Config24Ssl_PrivateKeyFormat_SetERKN6ZenLib6ZtringE
libmediainfo.so.0:_ZN12MediaInfoLib16MediaInfo_Config25CarriageReturnReplace_GetEv
libmediainfo.so.0:_ZN12MediaInfoLib16MediaInfo_Config25CarriageReturnReplace_SetERKN6ZenLib6ZtringE
libmediainfo.so.0:_ZN12MediaInfoLib16MediaInfo_Config25Ssh_PublicKeyFileName_GetEv
libmediainfo.so.0:_ZN12MediaInfoLib16MediaInfo_Config25Ssh_PublicKeyFileName_SetERKN6ZenLib6ZtringE
libmediainfo.so.0:_ZN12MediaInfoLib16MediaInfo_Config25Ssl_CertificateFormat_GetEv
libmediainfo.so.0:_ZN12MediaInfoLib16MediaInfo_Config25Ssl_CertificateFormat_SetERKN6ZenLib6ZtringE
libmediainfo.so.0:_ZN12MediaInfoLib16MediaInfo_Config26Event_CallBackFunction_GetEv
libmediainfo.so.0:_ZN12MediaInfoLib16MediaInfo_Config26Event_CallBackFunction_SetERKN6ZenLib6ZtringE
libmediainfo.so.0:_ZN12MediaInfoLib16MediaInfo_Config26ExternalMetaDataConfig_GetEv
libmediainfo.so.0:_ZN12MediaInfoLib16MediaInfo_Config26ExternalMetaDataConfig_SetEN6ZenLib6ZtringE
libmediainfo.so.0:_ZN12MediaInfoLib16MediaInfo_Config26Ssh_KnownHostsFileName_GetEv
libmediainfo.so.0:_ZN12MediaInfoLib16MediaInfo_Config26Ssh_KnownHostsFileName_SetERKN6ZenLib6ZtringE
libmediainfo.so.0:_ZN12MediaInfoLib16MediaInfo_Config26Ssh_PrivateKeyFileName_GetEv
libmediainfo.so.0:_ZN12MediaInfoLib16MediaInfo_Config26Ssh_PrivateKeyFileName_SetERKN6ZenLib6ZtringE
libmediainfo.so.0:_ZN12MediaInfoLib16MediaInfo_Config26Ssl_PrivateKeyFileName_GetEv
libmediainfo.so.0:_ZN12MediaInfoLib16MediaInfo_Config26Ssl_PrivateKeyFileName_SetERKN6ZenLib6ZtringE
libmediainfo.so.0:_ZN12MediaInfoLib16MediaInfo_Config27Ssl_CertificateFileName_GetEv
libmediainfo.so.0:_ZN12MediaInfoLib16MediaInfo_Config27Ssl_CertificateFileName_SetERKN6ZenLib6ZtringE
libmediainfo.so.0:_ZN12MediaInfoLib16MediaInfo_Config28Event_CallBackFunction_IsSetEv
libmediainfo.so.0:_ZN12MediaInfoLib16MediaInfo_Config28ParseOnlyKnownExtensions_GetEv
libmediainfo.so.0:_ZN12MediaInfoLib16MediaInfo_Config28ParseOnlyKnownExtensions_SetERKN6ZenLib6ZtringE
libmediainfo.so.0:_ZN12MediaInfoLib16MediaInfo_Config29AcquisitionDataOutputMode_GetEv
libmediainfo.so.0:_ZN12MediaInfoLib16MediaInfo_Config29AcquisitionDataOutputMode_SetEm
libmediainfo.so.0:_ZN12MediaInfoLib16MediaInfo_Config29MpegTs_ForceStreamDisplay_GetEv
libmediainfo.so.0:_ZN12MediaInfoLib16MediaInfo_Config29MpegTs_ForceStreamDisplay_SetEb
libmediainfo.so.0:_ZN12MediaInfoLib16MediaInfo_Config29MpegTs_VbrDetection_Delta_GetEv
libmediainfo.so.0:_ZN12MediaInfoLib16MediaInfo_Config29MpegTs_VbrDetection_Delta_SetEd
libmediainfo.so.0:_ZN12MediaInfoLib16MediaInfo_Config30InitDataNotRepeated_GiveUp_GetEv
libmediainfo.so.0:_ZN12MediaInfoLib16MediaInfo_Config30InitDataNotRepeated_GiveUp_SetEb
libmediainfo.so.0:_ZN12MediaInfoLib16MediaInfo_Config30MpegTs_MaximumScanDuration_GetEv
libmediainfo.so.0:_ZN12MediaInfoLib16MediaInfo_Config30MpegTs_MaximumScanDuration_SetEy
libmediainfo.so.0:_ZN12MediaInfoLib16MediaInfo_Config30MpegTs_VbrDetection_GiveUp_GetEv
libmediainfo.so.0:_ZN12MediaInfoLib16MediaInfo_Config30MpegTs_VbrDetection_GiveUp_SetEb
libmediainfo.so.0:_ZN12MediaInfoLib16MediaInfo_Config30ParseOnlyKnownExtensions_IsSetEv
libmediainfo.so.0:_ZN12MediaInfoLib16MediaInfo_Config31VariableGopDetection_GiveUp_GetEv
libmediainfo.so.0:_ZN12MediaInfoLib16MediaInfo_Config31VariableGopDetection_GiveUp_SetEb
libmediainfo.so.0:_ZN12MediaInfoLib16MediaInfo_Config32Ssl_CertificateAuthorityPath_GetEv
libmediainfo.so.0:_ZN12MediaInfoLib16MediaInfo_Config32Ssl_CertificateAuthorityPath_SetERKN6ZenLib6ZtringE
libmediainfo.so.0:_ZN12MediaInfoLib16MediaInfo_Config33FormatDetection_MaximumOffset_GetEv
libmediainfo.so.0:_ZN12MediaInfoLib16MediaInfo_Config33FormatDetection_MaximumOffset_SetEy
libmediainfo.so.0:_ZN12MediaInfoLib16MediaInfo_Config33MpegTs_ForceTextStreamDisplay_GetEv
libmediainfo.so.0:_ZN12MediaInfoLib16MediaInfo_Config33MpegTs_ForceTextStreamDisplay_SetEb
libmediainfo.so.0:_ZN12MediaInfoLib16MediaInfo_Config34InitDataNotRepeated_Occurences_GetEv
libmediainfo.so.0:_ZN12MediaInfoLib16MediaInfo_Config34InitDataNotRepeated_Occurences_SetEy
libmediainfo.so.0:_ZN12MediaInfoLib16MediaInfo_Config34MpegTs_VbrDetection_Occurences_GetEv
libmediainfo.so.0:_ZN12MediaInfoLib16MediaInfo_Config34MpegTs_VbrDetection_Occurences_SetEy
libmediainfo.so.0:_ZN12MediaInfoLib16MediaInfo_Config35VariableGopDetection_Occurences_GetEv
libmediainfo.so.0:_ZN12MediaInfoLib16MediaInfo_Config35VariableGopDetection_Occurences_SetEy
libmediainfo.so.0:_ZN12MediaInfoLib16MediaInfo_Config36ParseOnlyKnownExtensions_GetList_SetEv
libmediainfo.so.0:_ZN12MediaInfoLib16MediaInfo_Config36Ssl_CertificateAuthorityFileName_GetEv
libmediainfo.so.0:_ZN12MediaInfoLib16MediaInfo_Config36Ssl_CertificateAuthorityFileName_SetERKN6ZenLib6ZtringE
libmediainfo.so.0:_ZN12MediaInfoLib16MediaInfo_Config39ParseOnlyKnownExtensions_GetList_StringEv
libmediainfo.so.0:_ZN12MediaInfoLib16MediaInfo_Config41Ssl_CertificateRevocationListFileName_GetEv
libmediainfo.so.0:_ZN12MediaInfoLib16MediaInfo_Config41Ssl_CertificateRevocationListFileName_SetERKN6ZenLib6ZtringE
libmediainfo.so.0:_ZN12MediaInfoLib16MediaInfo_Config41Trace_TimeSection_OnlyFirstOccurrence_GetEv
libmediainfo.so.0:_ZN12MediaInfoLib16MediaInfo_Config41Trace_TimeSection_OnlyFirstOccurrence_SetEb
libmediainfo.so.0:_ZN12MediaInfoLib16MediaInfo_Config4InitEb
libmediainfo.so.0:_ZN12MediaInfoLib16MediaInfo_Config6OptionERKNSt7__cxx1112basic_stringIwSt11char_traitsIwESaIwEEES8_
libmediainfo.so.0:_ZN12MediaInfoLib16MediaInfo_Config8Info_GetENS_8stream_tE
libmediainfo.so.0:_ZN12MediaInfoLib16MediaInfo_Config8Info_GetENS_8stream_tERKN6ZenLib6ZtringENS_6info_tE
libmediainfo.so.0:_ZN12MediaInfoLib16MediaInfo_Config8Info_GetENS_8stream_tEmNS_6info_tE
libmediainfo.so.0:_ZN12MediaInfoLib16MediaInfo_Config8Log_SendEhhjRKN6ZenLib6ZtringE
libmediainfo.so.0:_ZN12MediaInfoLib16MediaInfo_Config9Codec_GetERKN6ZenLib6ZtringENS_11infocodec_tE
libmediainfo.so.0:_ZN12MediaInfoLib16MediaInfo_Config9Codec_GetERKN6ZenLib6ZtringENS_11infocodec_tENS_8stream_tE
libmediainfo.so.0:_ZN12MediaInfoLib16MediaInfo_Config9Demux_GetEv
libmediainfo.so.0:_ZN12MediaInfoLib16MediaInfo_Config9Demux_SetEh
libmediainfo.so.0:_ZN12MediaInfoLib16MediaInfo_Config9Https_GetEv
libmediainfo.so.0:_ZN12MediaInfoLib16MediaInfo_Config9Https_SetEb
libmediainfo.so.0:_ZN12MediaInfoLib16MediaInfo_Config9Quote_GetEv
libmediainfo.so.0:_ZN12MediaInfoLib16MediaInfo_Config9Quote_SetERKN6ZenLib6ZtringE
libmediainfo.so.0:_ZN12MediaInfoLib16PBCore_MediaTypeERNS_18MediaInfo_InternalE
libmediainfo.so.0:_ZN12MediaInfoLib16PBCore_TransformEPNS_4NodeERNS_18MediaInfo_InternalENS_8stream_tEm
libmediainfo.so.0:_ZN12MediaInfoLib16PropertyList_keyERKNSt7__cxx1112basic_stringIcSt11char_traitsIcESaIcEEE
libmediainfo.so.0:_ZN12MediaInfoLib16Reader_Directory11Format_TestEPNS_18MediaInfo_InternalENSt7__cxx1112basic_stringIwSt11char_traitsIwESaIwEEE
libmediainfo.so.0:_ZN12MediaInfoLib16Reader_Directory14P2_Format_TestEPNS_18MediaInfo_InternalERKNSt7__cxx1112basic_stringIwSt11char_traitsIwESaIwEEE
libmediainfo.so.0:_ZN12MediaInfoLib16Reader_Directory16Bdmv_Format_TestEPNS_18MediaInfo_InternalERKNSt7__cxx1112basic_stringIwSt11char_traitsIwESaIwEEE
libmediainfo.so.0:_ZN12MediaInfoLib16Reader_Directory17Directory_CleanupERN6ZenLib10ZtringListE
libmediainfo.so.0:_ZN12MediaInfoLib16Reader_Directory17Xdcam_Format_TestEPNS_18MediaInfo_InternalERKNSt7__cxx1112basic_stringIwSt11char_traitsIwESaIwEEE
libmediainfo.so.0:_ZN12MediaInfoLib16Reader_Directory20P2_Directory_CleanupERN6ZenLib10ZtringListE
libmediainfo.so.0:_ZN12MediaInfoLib16Reader_Directory22Bdmv_Directory_CleanupERN6ZenLib10ZtringListE
libmediainfo.so.0:_ZN12MediaInfoLib16Reader_Directory23Xdcam_Directory_CleanupERN6ZenLib10ZtringListE
libmediainfo.so.0:_ZN12MediaInfoLib16To_JSON_ElementsB5cxx11ERNS_4NodeERKib
libmediainfo.so.0:_ZN12MediaInfoLib16Transform_HeaderEv
libmediainfo.so.0:_ZN12MediaInfoLib16template_generic30AdaptationSet_Attributes_ParseEPN8tinyxml210XMLElementE
libmediainfo.so.0:_ZN12MediaInfoLib16template_generic31Representation_Attributes_ParseEPN8tinyxml210XMLElementE
libmediainfo.so.0:_ZN12MediaInfoLib16template_generic32SegmentTemplate_Attributes_ParseEPN8tinyxml210XMLElementE
libmediainfo.so.0:_ZN12MediaInfoLib16template_generic32SegmentTimeline_Attributes_ParseEPN8tinyxml210XMLElementE
libmediainfo.so.0:_ZN12MediaInfoLib16template_generic6DecodeEv
libmediainfo.so.0:_ZN12MediaInfoLib17AC3_FrameSize_GetEhh
libmediainfo.so.0:_ZN12MediaInfoLib17AC3_HD_StreamTypeEh
libmediainfo.so.0:_ZN12MediaInfoLib17Ac3_variable_bitsERN6ZenLib14BitStream_FastEh
libmediainfo.so.0:_ZN12MediaInfoLib17Amazon_AWS_ManageERNS_4Http3UrlEPNS_14Reader_libcurl9curl_dataERKN6ZenLib10ZtringListE
libmediainfo.so.0:_ZN12MediaInfoLib17File_Gxf_TimeCode12Streams_FillEv
libmediainfo.so.0:_ZN12MediaInfoLib17File_Gxf_TimeCode20Read_Buffer_ContinueEv
libmediainfo.so.0:_ZN12MediaInfoLib17File_Gxf_TimeCodeC1Ev
libmediainfo.so.0:_ZN12MediaInfoLib17File_Gxf_TimeCodeC2Ev
libmediainfo.so.0:_ZN12MediaInfoLib17File_Gxf_TimeCodeD0Ev
libmediainfo.so.0:_ZN12MediaInfoLib17File_Gxf_TimeCodeD1Ev
libmediainfo.so.0:_ZN12MediaInfoLib17File_Gxf_TimeCodeD2Ev
libmediainfo.so.0:_ZN12MediaInfoLib17File_PropertyList16FileHeader_BeginEv
libmediainfo.so.0:_ZN12MediaInfoLib17File_SequenceInfo16FileHeader_BeginEv
libmediainfo.so.0:_ZN12MediaInfoLib17File_SequenceInfoC1Ev
libmediainfo.so.0:_ZN12MediaInfoLib17File_SequenceInfoC2Ev
libmediainfo.so.0:_ZN12MediaInfoLib17File__Tags_Helper11GoToFromEndEyPKc
libmediainfo.so.0:_ZN12MediaInfoLib17File__Tags_Helper11SynchronizeERbm
libmediainfo.so.0:_ZN12MediaInfoLib17File__Tags_Helper12Streams_FillEv
libmediainfo.so.0:_ZN12MediaInfoLib17File__Tags_Helper12Synched_TestEv
libmediainfo.so.0:_ZN12MediaInfoLib17File__Tags_Helper14Stream_PrepareENS_8stream_tE
libmediainfo.so.0:_ZN12MediaInfoLib17File__Tags_Helper14Streams_FinishEv
libmediainfo.so.0:_ZN12MediaInfoLib17File__Tags_Helper20Read_Buffer_ContinueEv
libmediainfo.so.0:_ZN12MediaInfoLib17File__Tags_Helper25DetectBeginOfEndTags_TestEv
libmediainfo.so.0:_ZN12MediaInfoLib17File__Tags_Helper4GoToEyPKc
libmediainfo.so.0:_ZN12MediaInfoLib17File__Tags_Helper6AcceptEPKc
libmediainfo.so.0:_ZN12MediaInfoLib17File__Tags_Helper6FinishEPKc
libmediainfo.so.0:_ZN12MediaInfoLib17File__Tags_Helper6RejectEPKc
libmediainfo.so.0:_ZN12MediaInfoLib17File__Tags_HelperC1Ev
libmediainfo.so.0:_ZN12MediaInfoLib17File__Tags_HelperC2Ev
libmediainfo.so.0:_ZN12MediaInfoLib17File__Tags_HelperD1Ev
libmediainfo.so.0:_ZN12MediaInfoLib17File__Tags_HelperD2Ev
libmediainfo.so.0:_ZN12MediaInfoLib17Id3v2_PictureTypeEh
libmediainfo.so.0:_ZN12MediaInfoLib17Mpeg4_chan_LayoutEt
libmediainfo.so.0:_ZN12MediaInfoLib17Mpeg_Psi_table_idEh
libmediainfo.so.0:_ZN12MediaInfoLib17PBCore2_MediaTypeERNS_18MediaInfo_InternalE
libmediainfo.so.0:_ZN12MediaInfoLib17PBCore2_TransformEPNS_4NodeERNS_18MediaInfo_InternalENS_8stream_tEm
libmediainfo.so.0:_ZN12MediaInfoLib17Ttml_str2timecodeEPKc
libmediainfo.so.0:_ZN12MediaInfoLib18Aac_Format_ProfileEh
libmediainfo.so.0:_ZN12MediaInfoLib18Ape_Codec_SettingsEt
libmediainfo.so.0:_ZN12MediaInfoLib18Content_MustEncodeERKN6ZenLib6ZtringE
libmediainfo.so.0:_ZN12MediaInfoLib18DPX_DateTime_ValidERKNSt7__cxx1112basic_stringIcSt11char_traitsIcESaIcEEE
libmediainfo.so.0:_ZN12MediaInfoLib18EbuCore_WithFactorEPNS_4NodeERKNSt7__cxx1112basic_stringIcSt11char_traitsIcESaIcEEERKN6ZenLib6ZtringESD_SD_
libmediainfo.so.0:_ZN12MediaInfoLib18File_AribStdB24B3710Data_ParseEv
libmediainfo.so.0:_ZN12MediaInfoLib18File_AribStdB24B3712DefaultMacroEv
libmediainfo.so.0:_ZN12MediaInfoLib18File_AribStdB24B3712Header_ParseEv
libmediainfo.so.0:_ZN12MediaInfoLib18File_AribStdB24B3712Streams_FillEv
libmediainfo.so.0:_ZN12MediaInfoLib18File_AribStdB24B3712control_codeEv
libmediainfo.so.0:_ZN12MediaInfoLib18File_AribStdB24B3714Streams_FinishEv
libmediainfo.so.0:_ZN12MediaInfoLib18File_AribStdB24B3714data_unit_dataEy
libmediainfo.so.0:_ZN12MediaInfoLib18File_AribStdB24B3717caption_statementEv
libmediainfo.so.0:_ZN12MediaInfoLib18File_AribStdB24B3718caption_managementEv
libmediainfo.so.0:_ZN12MediaInfoLib18File_AribStdB24B3720Read_Buffer_ContinueEv
libmediainfo.so.0:_ZN12MediaInfoLib18File_AribStdB24B3721Read_Buffer_UnsynchedEv
libmediainfo.so.0:_ZN12MediaInfoLib18File_AribStdB24B372CSEv
libmediainfo.so.0:_ZN12MediaInfoLib18File_AribStdB24B372RSEv
libmediainfo.so.0:_ZN12MediaInfoLib18File_AribStdB24B372USEv
libmediainfo.so.0:_ZN12MediaInfoLib18File_AribStdB24B373APBEv
libmediainfo.so.0:_ZN12MediaInfoLib18File_AribStdB24B373APDEv
libmediainfo.so.0:_ZN12MediaInfoLib18File_AribStdB24B373APFEv
libmediainfo.so.0:_ZN12MediaInfoLib18File_AribStdB24B373APREv
libmediainfo.so.0:_ZN12MediaInfoLib18File_AribStdB24B373APSEv
libmediainfo.so.0:_ZN12MediaInfoLib18File_AribStdB24B373APUEv
libmediainfo.so.0:_ZN12MediaInfoLib18File_AribStdB24B373AddERKN6ZenLib6ZtringE
libmediainfo.so.0:_ZN12MediaInfoLib18File_AribStdB24B373AddEw
libmediainfo.so.0:_ZN12MediaInfoLib18File_AribStdB24B373BELEv
libmediainfo.so.0:_ZN12MediaInfoLib18File_AribStdB24B373CANEv
libmediainfo.so.0:_ZN12MediaInfoLib18File_AribStdB24B373CDCEv
libmediainfo.so.0:_ZN12MediaInfoLib18File_AribStdB24B373COLEv
libmediainfo.so.0:_ZN12MediaInfoLib18File_AribStdB24B373CSIEv
libmediainfo.so.0:_ZN12MediaInfoLib18File_AribStdB24B373ESCEv
libmediainfo.so.0:_ZN12MediaInfoLib18File_AribStdB24B373FLCEv
libmediainfo.so.0:_ZN12MediaInfoLib18File_AribStdB24B373HLCEv
libmediainfo.so.0:_ZN12MediaInfoLib18File_AribStdB24B373JISEhh
libmediainfo.so.0:_ZN12MediaInfoLib18File_AribStdB24B373LS0Ev
libmediainfo.so.0:_ZN12MediaInfoLib18File_AribStdB24B373LS1Ev
libmediainfo.so.0:_ZN12MediaInfoLib18File_AribStdB24B373NULEv
libmediainfo.so.0:_ZN12MediaInfoLib18File_AribStdB24B373POLEv
libmediainfo.so.0:_ZN12MediaInfoLib18File_AribStdB24B373RPCEv
libmediainfo.so.0:_ZN12MediaInfoLib18File_AribStdB24B373SPLEv
libmediainfo.so.0:_ZN12MediaInfoLib18File_AribStdB24B373SS2Ev
libmediainfo.so.0:_ZN12MediaInfoLib18File_AribStdB24B373SS3Ev
libmediainfo.so.0:_ZN12MediaInfoLib18File_AribStdB24B373STLEv
libmediainfo.so.0:_ZN12MediaInfoLib18File_AribStdB24B373SZXEv
libmediainfo.so.0:_ZN12MediaInfoLib18File_AribStdB24B373WMMEv
libmediainfo.so.0:_ZN12MediaInfoLib18File_AribStdB24B373xxFEv
libmediainfo.so.0:_ZN12MediaInfoLib18File_AribStdB24B373xxZEv
libmediainfo.so.0:_ZN12MediaInfoLib18File_AribStdB24B374PAPFEv
libmediainfo.so.0:_ZN12MediaInfoLib18File_AribStdB24B374TIMEEv
libmediainfo.so.0:_ZN12MediaInfoLib18File_AribStdB24B375MACROEv
libmediainfo.so.0:_ZN12MediaInfoLib18File_AribStdB24B379CharacterEthhh
libmediainfo.so.0:_ZN12MediaInfoLib18File_AribStdB24B37C1Ev
libmediainfo.so.0:_ZN12MediaInfoLib18File_AribStdB24B37C2Ev
libmediainfo.so.0:_ZN12MediaInfoLib18File_AribStdB24B37D0Ev
libmediainfo.so.0:_ZN12MediaInfoLib18File_AribStdB24B37D1Ev
libmediainfo.so.0:_ZN12MediaInfoLib18File_AribStdB24B37D2Ev
libmediainfo.so.0:_ZN12MediaInfoLib18MediaInfo_Internal11CreateDummyERKNSt7__cxx1112basic_stringIwSt11char_traitsIwESaIwEEE
libmediainfo.so.0:_ZN12MediaInfoLib18MediaInfo_Internal11ListFormatsERKNSt7__cxx1112basic_stringIwSt11char_traitsIwESaIwEEE
libmediainfo.so.0:_ZN12MediaInfoLib18MediaInfo_Internal13ConvertRetourERN6ZenLib6ZtringE
libmediainfo.so.0:_ZN12MediaInfoLib18MediaInfo_Internal13Event_PrepareEP23MediaInfo_Event_Generic
libmediainfo.so.0:_ZN12MediaInfoLib18MediaInfo_Internal15Open_NextPacketEv
libmediainfo.so.0:_ZN12MediaInfoLib18MediaInfo_Internal15Xml_Name_EscapeERKN6ZenLib6ZtringE
libmediainfo.so.0:_ZN12MediaInfoLib18MediaInfo_Internal16Open_Buffer_InitEyRKNSt7__cxx1112basic_stringIwSt11char_traitsIwESaIwEEE
libmediainfo.so.0:_ZN12MediaInfoLib18MediaInfo_Internal16Open_Buffer_InitEyy
libmediainfo.so.0:_ZN12MediaInfoLib18MediaInfo_Internal16Open_Buffer_SeekEmyy
libmediainfo.so.0:_ZN12MediaInfoLib18MediaInfo_Internal17LibraryIsModifiedEv
libmediainfo.so.0:_ZN12MediaInfoLib18MediaInfo_Internal17Output_Buffer_GetERKNSt7__cxx1112basic_stringIwSt11char_traitsIwESaIwEEE
libmediainfo.so.0:_ZN12MediaInfoLib18MediaInfo_Internal17Output_Buffer_GetEm
libmediainfo.so.0:_ZN12MediaInfoLib18MediaInfo_Internal18Xml_Content_EscapeERKN6ZenLib6ZtringERm
libmediainfo.so.0:_ZN12MediaInfoLib18MediaInfo_Internal19Open_Buffer_UnsynchEv
libmediainfo.so.0:_ZN12MediaInfoLib18MediaInfo_Internal19SelectFromExtensionERKNSt7__cxx1112basic_stringIwSt11char_traitsIwESaIwEEE
libmediainfo.so.0:_ZN12MediaInfoLib18MediaInfo_Internal20Open_Buffer_ContinueEPKhm
libmediainfo.so.0:_ZN12MediaInfoLib18MediaInfo_Internal20Open_Buffer_FinalizeEv
libmediainfo.so.0:_ZN12MediaInfoLib18MediaInfo_Internal23TestContinuousFileNamesEv
libmediainfo.so.0:_ZN12MediaInfoLib18MediaInfo_Internal24Content_Encode_ModifyingERN6ZenLib6ZtringERm
libmediainfo.so.0:_ZN12MediaInfoLib18MediaInfo_Internal24Open_Buffer_Position_SetEy
libmediainfo.so.0:_ZN12MediaInfoLib18MediaInfo_Internal28Xml_Content_Escape_ModifyingERN6ZenLib6ZtringERm
libmediainfo.so.0:_ZN12MediaInfoLib18MediaInfo_Internal29Open_Buffer_Continue_GoTo_GetEv
libmediainfo.so.0:_ZN12MediaInfoLib18MediaInfo_Internal34Open_Buffer_CheckFileModificationsEv
libmediainfo.so.0:_ZN12MediaInfoLib18MediaInfo_Internal3GetENS_8stream_tEmRKNSt7__cxx1112basic_stringIwSt11char_traitsIwESaIwEEENS_6info_tESA_
libmediainfo.so.0:_ZN12MediaInfoLib18MediaInfo_Internal3GetENS_8stream_tEmmNS_6info_tE
libmediainfo.so.0:_ZN12MediaInfoLib18MediaInfo_Internal3SetERKNSt7__cxx1112basic_stringIwSt11char_traitsIwESaIwEEENS_8stream_tEmS8_S8_
libmediainfo.so.0:_ZN12MediaInfoLib18MediaInfo_Internal3SetERKNSt7__cxx1112basic_stringIwSt11char_traitsIwESaIwEEENS_8stream_tEmmS8_
libmediainfo.so.0:_ZN12MediaInfoLib18MediaInfo_Internal4OpenEPKhmS2_my
libmediainfo.so.0:_ZN12MediaInfoLib18MediaInfo_Internal4OpenERKNSt7__cxx1112basic_stringIwSt11char_traitsIwESaIwEEE
libmediainfo.so.0:_ZN12MediaInfoLib18MediaInfo_Internal5CloseEv
libmediainfo.so.0:_ZN12MediaInfoLib18MediaInfo_Internal5EntryEv
libmediainfo.so.0:_ZN12MediaInfoLib18MediaInfo_Internal6InformENS_8stream_tEmb
libmediainfo.so.0:_ZN12MediaInfoLib18MediaInfo_Internal6InformEPS0_
libmediainfo.so.0:_ZN12MediaInfoLib18MediaInfo_Internal6InformERSt6vectorIPS0_SaIS2_EE
libmediainfo.so.0:_ZN12MediaInfoLib18MediaInfo_Internal6InformEv
libmediainfo.so.0:_ZN12MediaInfoLib18MediaInfo_Internal6OptionERKNSt7__cxx1112basic_stringIwSt11char_traitsIwESaIwEEES8_
libmediainfo.so.0:_ZN12MediaInfoLib18MediaInfo_Internal7TraiterERN6ZenLib6ZtringE
libmediainfo.so.0:_ZN12MediaInfoLib18MediaInfo_Internal9Count_GetENS_8stream_tEm
libmediainfo.so.0:_ZN12MediaInfoLib18MediaInfo_Internal9State_GetEv
libmediainfo.so.0:_ZN12MediaInfoLib18MediaInfo_InternalC1Ev
libmediainfo.so.0:_ZN12MediaInfoLib18MediaInfo_InternalC2Ev
libmediainfo.so.0:_ZN12MediaInfoLib18MediaInfo_InternalD0Ev
libmediainfo.so.0:_ZN12MediaInfoLib18MediaInfo_InternalD1Ev
libmediainfo.so.0:_ZN12MediaInfoLib18MediaInfo_InternalD2Ev
libmediainfo.so.0:_ZN12MediaInfoLib18Rar_version_numberEh
libmediainfo.so.0:_ZN12MediaInfoLib18To_JSON_AttributesB5cxx11ERNS_4NodeERKib
libmediainfo.so.0:_ZN12MediaInfoLib19AC3_HD_SamplingRateEh
libmediainfo.so.0:_ZN12MediaInfoLib19AC3_TrueHD_ChannelsEt
libmediainfo.so.0:_ZN12MediaInfoLib19Aac_audioObjectTypeEh
libmediainfo.so.0:_ZN12MediaInfoLib19AnglesToChannelNameENS_6anglesE
libmediainfo.so.0:_ZN12MediaInfoLib19Ape_SamplesPerFrameEtt
libmediainfo.so.0:_ZN12MediaInfoLib19DetectPercentEncodeERKNSt7__cxx1112basic_stringIcSt11char_traitsIcESaIcEEEb
libmediainfo.so.0:_ZN12MediaInfoLib19Dirac_chroma_formatEj
libmediainfo.so.0:_ZN12MediaInfoLib19File_DtvccTransport12CreateStreamEh
libmediainfo.so.0:_ZN12MediaInfoLib19File_DtvccTransport14Streams_FinishEv
libmediainfo.so.0:_ZN12MediaInfoLib19File_DtvccTransport14Streams_UpdateEv
libmediainfo.so.0:_ZN12MediaInfoLib19File_DtvccTransport16Read_Buffer_InitEv
libmediainfo.so.0:_ZN12MediaInfoLib19File_DtvccTransport20Read_Buffer_ContinueEv
libmediainfo.so.0:_ZN12MediaInfoLib19File_DtvccTransport21Read_Buffer_UnsynchedEv
libmediainfo.so.0:_ZN12MediaInfoLib19File_DtvccTransport24Streams_Update_PerStreamEm
libmediainfo.so.0:_ZN12MediaInfoLib19File_DtvccTransportC1Ev
libmediainfo.so.0:_ZN12MediaInfoLib19File_DtvccTransportC2Ev
libmediainfo.so.0:_ZN12MediaInfoLib19File_DtvccTransportD0Ev
libmediainfo.so.0:_ZN12MediaInfoLib19File_DtvccTransportD1Ev
libmediainfo.so.0:_ZN12MediaInfoLib19File_DtvccTransportD2Ev
libmediainfo.so.0:_ZN12MediaInfoLib19File_ExtendedModule16FileHeader_BeginEv
libmediainfo.so.0:_ZN12MediaInfoLib19File_ExtendedModule20Read_Buffer_ContinueEv
libmediainfo.so.0:_ZN12MediaInfoLib19File_ImpulseTracker16FileHeader_BeginEv
libmediainfo.so.0:_ZN12MediaInfoLib19File_ImpulseTracker20Read_Buffer_ContinueEv
libmediainfo.so.0:_ZN12MediaInfoLib19File_Mpeg4_TimeCode12Streams_FillEv
libmediainfo.so.0:_ZN12MediaInfoLib19File_Mpeg4_TimeCode16Read_Buffer_InitEv
libmediainfo.so.0:_ZN12MediaInfoLib19File_Mpeg4_TimeCode20Read_Buffer_ContinueEv
libmediainfo.so.0:_ZN12MediaInfoLib19File_Mpeg4_TimeCodeC1Ev
libmediainfo.so.0:_ZN12MediaInfoLib19File_Mpeg4_TimeCodeC2Ev
libmediainfo.so.0:_ZN12MediaInfoLib19File_Ogg_SubElement10Data_ParseEv
libmediainfo.so.0:_ZN12MediaInfoLib19File_Ogg_SubElement12Header_BeginEv
libmediainfo.so.0:_ZN12MediaInfoLib19File_Ogg_SubElement12Header_ParseEv
libmediainfo.so.0:_ZN12MediaInfoLib19File_Ogg_SubElement12Streams_FillEv
libmediainfo.so.0:_ZN12MediaInfoLib19File_Ogg_SubElement14IdentificationEv
libmediainfo.so.0:_ZN12MediaInfoLib19File_Ogg_SubElement14Streams_FinishEv
libmediainfo.so.0:_ZN12MediaInfoLib19File_Ogg_SubElement16FileHeader_ParseEv
libmediainfo.so.0:_ZN12MediaInfoLib19File_Ogg_SubElement18Identification_JNGEv
libmediainfo.so.0:_ZN12MediaInfoLib19File_Ogg_SubElement18Identification_MNGEv
libmediainfo.so.0:_ZN12MediaInfoLib19File_Ogg_SubElement18Identification_PCMEv
libmediainfo.so.0:_ZN12MediaInfoLib19File_Ogg_SubElement18Identification_PNGEv
libmediainfo.so.0:_ZN12MediaInfoLib19File_Ogg_SubElement19Identification_BBCDEv
libmediainfo.so.0:_ZN12MediaInfoLib19File_Ogg_SubElement19Identification_CELTEv
libmediainfo.so.0:_ZN12MediaInfoLib19File_Ogg_SubElement19Identification_CMMLEv
libmediainfo.so.0:_ZN12MediaInfoLib19File_Ogg_SubElement19Identification_FLACEv
libmediainfo.so.0:_ZN12MediaInfoLib19File_Ogg_SubElement19Identification_fLaCEv
libmediainfo.so.0:_ZN12MediaInfoLib19File_Ogg_SubElement19Identification_kateEv
libmediainfo.so.0:_ZN12MediaInfoLib19File_Ogg_SubElement19Identification_textEv
libmediainfo.so.0:_ZN12MediaInfoLib19File_Ogg_SubElement20Identification_SpeexEv
libmediainfo.so.0:_ZN12MediaInfoLib19File_Ogg_SubElement20Identification_audioEv
libmediainfo.so.0:_ZN12MediaInfoLib19File_Ogg_SubElement20Identification_videoEv
libmediainfo.so.0:_ZN12MediaInfoLib19File_Ogg_SubElement21Identification_theoraEv
libmediainfo.so.0:_ZN12MediaInfoLib19File_Ogg_SubElement21Identification_vorbisEv
libmediainfo.so.0:_ZN12MediaInfoLib19File_Ogg_SubElement22Identification_OggMIDIEv
libmediainfo.so.0:_ZN12MediaInfoLib19File_Ogg_SubElement22Identification_fisboneEv
libmediainfo.so.0:_ZN12MediaInfoLib19File_Ogg_SubElement22Identification_fisheadEv
libmediainfo.so.0:_ZN12MediaInfoLib19File_Ogg_SubElement23Identification_KW_DIRACEv
libmediainfo.so.0:_ZN12MediaInfoLib19File_Ogg_SubElement23Identification_OpusHeadEv
libmediainfo.so.0:_ZN12MediaInfoLib19File_Ogg_SubElement23Identification_YUV4MPEGEv
libmediainfo.so.0:_ZN12MediaInfoLib19File_Ogg_SubElement7CommentEv
libmediainfo.so.0:_ZN12MediaInfoLib19File_Ogg_SubElement7DefaultEv
libmediainfo.so.0:_ZN12MediaInfoLib19File_Ogg_SubElementC1Ev
libmediainfo.so.0:_ZN12MediaInfoLib19File_Ogg_SubElementC2Ev
libmediainfo.so.0:_ZN12MediaInfoLib19File_Ogg_SubElementD0Ev
libmediainfo.so.0:_ZN12MediaInfoLib19File_Ogg_SubElementD1Ev
libmediainfo.so.0:_ZN12MediaInfoLib19File_Ogg_SubElementD2Ev
libmediainfo.so.0:_ZN12MediaInfoLib19File_ScreamTracker316FileHeader_BeginEv
libmediainfo.so.0:_ZN12MediaInfoLib19File_ScreamTracker320Read_Buffer_ContinueEv
libmediainfo.so.0:_ZN12MediaInfoLib19File__HasReferences19ReferenceFiles_SeekEmyy
libmediainfo.so.0:_ZN12MediaInfoLib19File__HasReferences21ReferenceFiles_AcceptEPNS_13File__AnalyzeEPNS_26MediaInfo_Config_MediaInfoE
libmediainfo.so.0:_ZN12MediaInfoLib19File__HasReferences21ReferenceFiles_FinishEv
libmediainfo.so.0:_ZN12MediaInfoLib19File__HasReferencesC1Ev
libmediainfo.so.0:_ZN12MediaInfoLib19File__HasReferencesC2Ev
libmediainfo.so.0:_ZN12MediaInfoLib19File__HasReferencesD1Ev
libmediainfo.so.0:_ZN12MediaInfoLib19File__HasReferencesD2Ev
libmediainfo.so.0:_ZN12MediaInfoLib19Fims_Transform_TextERN6ZenLib6ZtringERNS_18MediaInfo_InternalEm
libmediainfo.so.0:_ZN12MediaInfoLib19Mpeg7_AudioEmphasisERNS_18MediaInfo_InternalEm
libmediainfo.so.0:_ZN12MediaInfoLib19Mpeg7_MediaDurationERNS_18MediaInfo_InternalE
libmediainfo.so.0:_ZN12MediaInfoLib19Mpeg7_SystemCS_NameEjRNS_18MediaInfo_InternalEm
libmediainfo.so.0:_ZN12MediaInfoLib19ShowSource_IsInListENS_5videoE
libmediainfo.so.0:_ZN12MediaInfoLib19SubRip_str2timecodeEPKc
libmediainfo.so.0:_ZN12MediaInfoLib20AC3_chanmap_ChannelsEt
libmediainfo.so.0:_ZN12MediaInfoLib20Amazon_AWS_GetRegionERKNSt7__cxx1112basic_stringIcSt11char_traitsIcESaIcEEES7_RKNS_4Http3UrlEPvRKN6ZenLib10ZtringListE
libmediainfo.so.0:_ZN12MediaInfoLib20File_ChannelGrouping12Streams_FillEv
libmediainfo.so.0:_ZN12MediaInfoLib20File_ChannelGrouping14Streams_FinishEv
libmediainfo.so.0:_ZN12MediaInfoLib20File_ChannelGrouping16Read_Buffer_InitEv
libmediainfo.so.0:_ZN12MediaInfoLib20File_ChannelGrouping20Read_Buffer_ContinueEv
libmediainfo.so.0:_ZN12MediaInfoLib20File_ChannelGrouping21Read_Buffer_UnsynchedEv
libmediainfo.so.0:_ZN12MediaInfoLib20File_ChannelGroupingC1Ev
libmediainfo.so.0:_ZN12MediaInfoLib20File_ChannelGroupingC2Ev
libmediainfo.so.0:_ZN12MediaInfoLib20File_ChannelGroupingD0Ev
libmediainfo.so.0:_ZN12MediaInfoLib20File_ChannelGroupingD1Ev
libmediainfo.so.0:_ZN12MediaInfoLib20File_ChannelGroupingD2Ev
libmediainfo.so.0:_ZN12MediaInfoLib20Fims_Transform_AudioERN6ZenLib6ZtringERNS_18MediaInfo_InternalEmNS_11Export_Fims7versionE
libmediainfo.so.0:_ZN12MediaInfoLib20Fims_Transform_VideoERN6ZenLib6ZtringERNS_18MediaInfo_InternalEmNS_11Export_Fims7versionE
libmediainfo.so.0:_ZN12MediaInfoLib20Mpeg4v_Profile_LevelEj
libmediainfo.so.0:_ZN12MediaInfoLib20Mpeg7_ContentCS_NameEjRNS_18MediaInfo_InternalEm
libmediainfo.so.0:_ZN12MediaInfoLib20Mpeg7_MediaTimePointERNS_18MediaInfo_InternalE
libmediainfo.so.0:_ZN12MediaInfoLib20Mpegh3da_Profile_GetB5cxx11Eh
libmediainfo.so.0:_ZN12MediaInfoLib21BigEndian2float16lensEPKc
libmediainfo.so.0:_ZN12MediaInfoLib21Dirac_source_samplingEj
libmediainfo.so.0:_ZN12MediaInfoLib21File_ChannelSplitting12Streams_FillEv
libmediainfo.so.0:_ZN12MediaInfoLib21File_ChannelSplitting14Streams_FinishEv
libmediainfo.so.0:_ZN12MediaInfoLib21File_ChannelSplitting16Read_Buffer_InitEv
libmediainfo.so.0:_ZN12MediaInfoLib21File_ChannelSplitting20Read_Buffer_ContinueEv
libmediainfo.so.0:_ZN12MediaInfoLib21File_ChannelSplitting21Read_Buffer_UnsynchedEv
libmediainfo.so.0:_ZN12MediaInfoLib21File_ChannelSplitting26Read_Buffer_Continue_ParseEv
libmediainfo.so.0:_ZN12MediaInfoLib21File_ChannelSplittingC1Ev
libmediainfo.so.0:_ZN12MediaInfoLib21File_ChannelSplittingC2Ev
libmediainfo.so.0:_ZN12MediaInfoLib21File_ChannelSplittingD0Ev
libmediainfo.so.0:_ZN12MediaInfoLib21File_ChannelSplittingD1Ev
libmediainfo.so.0:_ZN12MediaInfoLib21File_ChannelSplittingD2Ev
libmediainfo.so.0:_ZN12MediaInfoLib21File_Mpeg_Descriptors10Data_ParseEv
libmediainfo.so.0:_ZN12MediaInfoLib21File_Mpeg_Descriptors12Get_DVB_TextEyRN6ZenLib6ZtringEPKc
libmediainfo.so.0:_ZN12MediaInfoLib21File_Mpeg_Descriptors12Header_ParseEv
libmediainfo.so.0:_ZN12MediaInfoLib21File_Mpeg_Descriptors12TimeHHMM_BCDEt
libmediainfo.so.0:_ZN12MediaInfoLib21File_Mpeg_Descriptors13Descriptor_02Ev
libmediainfo.so.0:_ZN12MediaInfoLib21File_Mpeg_Descriptors13Descriptor_03Ev
libmediainfo.so.0:_ZN12MediaInfoLib21File_Mpeg_Descriptors13Descriptor_05Ev
libmediainfo.so.0:_ZN12MediaInfoLib21File_Mpeg_Descriptors13Descriptor_06Ev
libmediainfo.so.0:_ZN12MediaInfoLib21File_Mpeg_Descriptors13Descriptor_07Ev
libmediainfo.so.0:_ZN12MediaInfoLib21File_Mpeg_Descriptors13Descriptor_08Ev
libmediainfo.so.0:_ZN12MediaInfoLib21File_Mpeg_Descriptors13Descriptor_09Ev
libmediainfo.so.0:_ZN12MediaInfoLib21File_Mpeg_Descriptors13Descriptor_0AEv
libmediainfo.so.0:_ZN12MediaInfoLib21File_Mpeg_Descriptors13Descriptor_0BEv
libmediainfo.so.0:_ZN12MediaInfoLib21File_Mpeg_Descriptors13Descriptor_0DEv
libmediainfo.so.0:_ZN12MediaInfoLib21File_Mpeg_Descriptors13Descriptor_0EEv
libmediainfo.so.0:_ZN12MediaInfoLib21File_Mpeg_Descriptors13Descriptor_0FEv
libmediainfo.so.0:_ZN12MediaInfoLib21File_Mpeg_Descriptors13Descriptor_10Ev
libmediainfo.so.0:_ZN12MediaInfoLib21File_Mpeg_Descriptors13Descriptor_11Ev
libmediainfo.so.0:_ZN12MediaInfoLib21File_Mpeg_Descriptors13Descriptor_1CEv
libmediainfo.so.0:_ZN12MediaInfoLib21File_Mpeg_Descriptors13Descriptor_1DEv
libmediainfo.so.0:_ZN12MediaInfoLib21File_Mpeg_Descriptors13Descriptor_1FEv
libmediainfo.so.0:_ZN12MediaInfoLib21File_Mpeg_Descriptors13Descriptor_28Ev
libmediainfo.so.0:_ZN12MediaInfoLib21File_Mpeg_Descriptors13Descriptor_2AEv
libmediainfo.so.0:_ZN12MediaInfoLib21File_Mpeg_Descriptors13Descriptor_2FEv
libmediainfo.so.0:_ZN12MediaInfoLib21File_Mpeg_Descriptors13Descriptor_38Ev
libmediainfo.so.0:_ZN12MediaInfoLib21File_Mpeg_Descriptors13Descriptor_3FEv
libmediainfo.so.0:_ZN12MediaInfoLib21File_Mpeg_Descriptors13Descriptor_40Ev
libmediainfo.so.0:_ZN12MediaInfoLib21File_Mpeg_Descriptors13Descriptor_41Ev
libmediainfo.so.0:_ZN12MediaInfoLib21File_Mpeg_Descriptors13Descriptor_43Ev
libmediainfo.so.0:_ZN12MediaInfoLib21File_Mpeg_Descriptors13Descriptor_48Ev
libmediainfo.so.0:_ZN12MediaInfoLib21File_Mpeg_Descriptors13Descriptor_4AEv
libmediainfo.so.0:_ZN12MediaInfoLib21File_Mpeg_Descriptors13Descriptor_4DEv
libmediainfo.so.0:_ZN12MediaInfoLib21File_Mpeg_Descriptors13Descriptor_50Ev
libmediainfo.so.0:_ZN12MediaInfoLib21File_Mpeg_Descriptors13Descriptor_52Ev
libmediainfo.so.0:_ZN12MediaInfoLib21File_Mpeg_Descriptors13Descriptor_54Ev
libmediainfo.so.0:_ZN12MediaInfoLib21File_Mpeg_Descriptors13Descriptor_55Ev
libmediainfo.so.0:_ZN12MediaInfoLib21File_Mpeg_Descriptors13Descriptor_56Ev
libmediainfo.so.0:_ZN12MediaInfoLib21File_Mpeg_Descriptors13Descriptor_58Ev
libmediainfo.so.0:_ZN12MediaInfoLib21File_Mpeg_Descriptors13Descriptor_59Ev
libmediainfo.so.0:_ZN12MediaInfoLib21File_Mpeg_Descriptors13Descriptor_5AEv
libmediainfo.so.0:_ZN12MediaInfoLib21File_Mpeg_Descriptors13Descriptor_5DEv
libmediainfo.so.0:_ZN12MediaInfoLib21File_Mpeg_Descriptors13Descriptor_5FEv
libmediainfo.so.0:_ZN12MediaInfoLib21File_Mpeg_Descriptors13Descriptor_63Ev
libmediainfo.so.0:_ZN12MediaInfoLib21File_Mpeg_Descriptors13Descriptor_66Ev
libmediainfo.so.0:_ZN12MediaInfoLib21File_Mpeg_Descriptors13Descriptor_6AEv
libmediainfo.so.0:_ZN12MediaInfoLib21File_Mpeg_Descriptors13Descriptor_7AEv
libmediainfo.so.0:_ZN12MediaInfoLib21File_Mpeg_Descriptors13Descriptor_7BEv
libmediainfo.so.0:_ZN12MediaInfoLib21File_Mpeg_Descriptors13Descriptor_7CEv
libmediainfo.so.0:_ZN12MediaInfoLib21File_Mpeg_Descriptors13Descriptor_7FEv
libmediainfo.so.0:_ZN12MediaInfoLib21File_Mpeg_Descriptors13Descriptor_81Ev
libmediainfo.so.0:_ZN12MediaInfoLib21File_Mpeg_Descriptors13Descriptor_86Ev
libmediainfo.so.0:_ZN12MediaInfoLib21File_Mpeg_Descriptors13Descriptor_87Ev
libmediainfo.so.0:_ZN12MediaInfoLib21File_Mpeg_Descriptors13Descriptor_A0Ev
libmediainfo.so.0:_ZN12MediaInfoLib21File_Mpeg_Descriptors13Descriptor_A1Ev
libmediainfo.so.0:_ZN12MediaInfoLib21File_Mpeg_Descriptors13Descriptor_A3Ev
libmediainfo.so.0:_ZN12MediaInfoLib21File_Mpeg_Descriptors13Descriptor_AAEv
libmediainfo.so.0:_ZN12MediaInfoLib21File_Mpeg_Descriptors13Descriptor_B0Ev
libmediainfo.so.0:_ZN12MediaInfoLib21File_Mpeg_Descriptors13Descriptor_C1Ev
libmediainfo.so.0:_ZN12MediaInfoLib21File_Mpeg_Descriptors13Descriptor_C8Ev
libmediainfo.so.0:_ZN12MediaInfoLib21File_Mpeg_Descriptors13Descriptor_DEEv
libmediainfo.so.0:_ZN12MediaInfoLib21File_Mpeg_Descriptors13Descriptor_E9Ev
libmediainfo.so.0:_ZN12MediaInfoLib21File_Mpeg_Descriptors13Descriptor_FCEv
libmediainfo.so.0:_ZN12MediaInfoLib21File_Mpeg_Descriptors13Descriptor_FDEv
libmediainfo.so.0:_ZN12MediaInfoLib21File_Mpeg_Descriptors16Descriptor_3F_03Ev
libmediainfo.so.0:_ZN12MediaInfoLib21File_Mpeg_Descriptors16Descriptor_3F_08Ev
libmediainfo.so.0:_ZN12MediaInfoLib21File_Mpeg_Descriptors16Descriptor_7F_06Ev
libmediainfo.so.0:_ZN12MediaInfoLib21File_Mpeg_Descriptors16Descriptor_7F_0FEv
libmediainfo.so.0:_ZN12MediaInfoLib21File_Mpeg_Descriptors16Descriptor_7F_15Ev
libmediainfo.so.0:_ZN12MediaInfoLib21File_Mpeg_Descriptors16Descriptor_7F_19Ev
libmediainfo.so.0:_ZN12MediaInfoLib21File_Mpeg_Descriptors16FileHeader_ParseEv
libmediainfo.so.0:_ZN12MediaInfoLib21File_Mpeg_Descriptors18Frequency_DVB__BCDEj
libmediainfo.so.0:_ZN12MediaInfoLib21File_Mpeg_Descriptors24OrbitalPosition_DVB__BCDEj
libmediainfo.so.0:_ZN12MediaInfoLib21File_Mpeg_Descriptors30ATSC_multiple_string_structureERN6ZenLib6ZtringEPKc
libmediainfo.so.0:_ZN12MediaInfoLib21File_Mpeg_Descriptors7CUEI_00Ev
libmediainfo.so.0:_ZN12MediaInfoLib21File_Mpeg_Descriptors7CUEI_01Ev
libmediainfo.so.0:_ZN12MediaInfoLib21File_Mpeg_Descriptors7CUEI_02Ev
libmediainfo.so.0:_ZN12MediaInfoLib21File_Mpeg_DescriptorsC1Ev
libmediainfo.so.0:_ZN12MediaInfoLib21File_Mpeg_DescriptorsC2Ev
libmediainfo.so.0:_ZN12MediaInfoLib21File__Duplicate__BaseC1Ev
libmediainfo.so.0:_ZN12MediaInfoLib21File__Duplicate__BaseC2Ev
libmediainfo.so.0:_ZN12MediaInfoLib21File__MultipleParsing10Parser_GetEv
libmediainfo.so.0:_ZN12MediaInfoLib21File__MultipleParsing14Streams_FinishEv
libmediainfo.so.0:_ZN12MediaInfoLib21File__MultipleParsing16Read_Buffer_InitEv
libmediainfo.so.0:_ZN12MediaInfoLib21File__MultipleParsing20Read_Buffer_ContinueEv
libmediainfo.so.0:_ZN12MediaInfoLib21File__MultipleParsing21Read_Buffer_UnsynchedEv
libmediainfo.so.0:_ZN12MediaInfoLib21File__MultipleParsingC1Ev
libmediainfo.so.0:_ZN12MediaInfoLib21File__MultipleParsingC2Ev
libmediainfo.so.0:_ZN12MediaInfoLib21File__MultipleParsingD0Ev
libmediainfo.so.0:_ZN12MediaInfoLib21File__MultipleParsingD1Ev
libmediainfo.so.0:_ZN12MediaInfoLib21File__MultipleParsingD2Ev
libmediainfo.so.0:_ZN12MediaInfoLib21MediaInfo_Config_MenuERN6ZenLib14ZtringListListE
libmediainfo.so.0:_ZN12MediaInfoLib21MediaInfo_Config_TextERN6ZenLib14ZtringListListE
libmediainfo.so.0:_ZN12MediaInfoLib21Mk_Video_Colour_RangeEh
libmediainfo.so.0:_ZN12MediaInfoLib21Mpeg7_SystemCS_termIDERNS_18MediaInfo_InternalEm
libmediainfo.so.0:_ZN12MediaInfoLib21Mpeg7_Transform_AudioEPNS_4NodeERNS_18MediaInfo_InternalEm
libmediainfo.so.0:_ZN12MediaInfoLib21Pcm_VOB_ChannelLayoutEh
libmediainfo.so.0:_ZN12MediaInfoLib22Aac_Channels_GetStringB5cxx11Eh
libmediainfo.so.0:_ZN12MediaInfoLib22EbuCore_Transform_TextEPNS_4NodeERNS_18MediaInfo_InternalEm
libmediainfo.so.0:_ZN12MediaInfoLib22File_Mpeg4_Descriptors10Data_ParseEv
libmediainfo.so.0:_ZN12MediaInfoLib22File_Mpeg4_Descriptors12Header_ParseEv
libmediainfo.so.0:_ZN12MediaInfoLib22File_Mpeg4_Descriptors13Descriptor_01Ev
libmediainfo.so.0:_ZN12MediaInfoLib22File_Mpeg4_Descriptors13Descriptor_03Ev
libmediainfo.so.0:_ZN12MediaInfoLib22File_Mpeg4_Descriptors13Descriptor_04Ev
libmediainfo.so.0:_ZN12MediaInfoLib22File_Mpeg4_Descriptors13Descriptor_05Ev
libmediainfo.so.0:_ZN12MediaInfoLib22File_Mpeg4_Descriptors13Descriptor_06Ev
libmediainfo.so.0:_ZN12MediaInfoLib22File_Mpeg4_Descriptors13Descriptor_09Ev
libmediainfo.so.0:_ZN12MediaInfoLib22File_Mpeg4_Descriptors13Descriptor_0EEv
libmediainfo.so.0:_ZN12MediaInfoLib22File_Mpeg4_Descriptors13Descriptor_0FEv
libmediainfo.so.0:_ZN12MediaInfoLib22File_Mpeg4_Descriptors13Descriptor_10Ev
libmediainfo.so.0:_ZN12MediaInfoLib22File_Mpeg4_Descriptors13Descriptor_11Ev
libmediainfo.so.0:_ZN12MediaInfoLib22File_Mpeg4_DescriptorsC1Ev
libmediainfo.so.0:_ZN12MediaInfoLib22File_Mpeg4_DescriptorsC2Ev
libmediainfo.so.0:_ZN12MediaInfoLib22File_Mpeg4_DescriptorsD0Ev
libmediainfo.so.0:_ZN12MediaInfoLib22File_Mpeg4_DescriptorsD1Ev
libmediainfo.so.0:_ZN12MediaInfoLib22File_Mpeg4_DescriptorsD2Ev
libmediainfo.so.0:_ZN12MediaInfoLib22File__Duplicate_MpegTs10Manage_PATEPKhm
libmediainfo.so.0:_ZN12MediaInfoLib22File__Duplicate_MpegTs10Manage_PMTEPKhm
libmediainfo.so.0:_ZN12MediaInfoLib22File__Duplicate_MpegTs11Parsing_EndERSt3mapItNS0_6bufferESt4lessItESaISt4pairIKtS2_EEE
libmediainfo.so.0:_ZN12MediaInfoLib22File__Duplicate_MpegTs13Parsing_BeginEPKhmRSt3mapItNS0_6bufferESt4lessItESaISt4pairIKtS4_EEE
libmediainfo.so.0:_ZN12MediaInfoLib22File__Duplicate_MpegTs17Output_Buffer_GetEPPh
libmediainfo.so.0:_ZN12MediaInfoLib22File__Duplicate_MpegTs30Internal_Remove_Wanted_ProgramEtb
libmediainfo.so.0:_ZN12MediaInfoLib22File__Duplicate_MpegTs5WriteEtPKhm
libmediainfo.so.0:_ZN12MediaInfoLib22File__Duplicate_MpegTs9ConfigureERKN6ZenLib6ZtringEb
libmediainfo.so.0:_ZN12MediaInfoLib22File__Duplicate_MpegTsC1ERKN6ZenLib6ZtringE
libmediainfo.so.0:_ZN12MediaInfoLib22File__Duplicate_MpegTsC2ERKN6ZenLib6ZtringE
libmediainfo.so.0:_ZN12MediaInfoLib22MediaInfoList_Internal13Option_StaticERKNSt7__cxx1112basic_stringIwSt11char_traitsIwESaIwEEES8_
libmediainfo.so.0:_ZN12MediaInfoLib22MediaInfoList_Internal16Open_Buffer_InitEyy
libmediainfo.so.0:_ZN12MediaInfoLib22MediaInfoList_Internal20Open_Buffer_ContinueEmPKhm
libmediainfo.so.0:_ZN12MediaInfoLib22MediaInfoList_Internal20Open_Buffer_FinalizeEm
libmediainfo.so.0:_ZN12MediaInfoLib22MediaInfoList_Internal29Open_Buffer_Continue_GoTo_GetEm
libmediainfo.so.0:_ZN12MediaInfoLib22MediaInfoList_Internal3GetB5cxx11EmNS_8stream_tEmmNS_6info_tE
libmediainfo.so.0:_ZN12MediaInfoLib22MediaInfoList_Internal3GetEmNS_8stream_tEmRKNSt7__cxx1112basic_stringIwSt11char_traitsIwESaIwEEENS_6info_tESA_
libmediainfo.so.0:_ZN12MediaInfoLib22MediaInfoList_Internal3SetERKNSt7__cxx1112basic_stringIwSt11char_traitsIwESaIwEEEmNS_8stream_tEmS8_S8_
libmediainfo.so.0:_ZN12MediaInfoLib22MediaInfoList_Internal3SetERKNSt7__cxx1112basic_stringIwSt11char_traitsIwESaIwEEEmNS_8stream_tEmmS8_
libmediainfo.so.0:_ZN12MediaInfoLib22MediaInfoList_Internal4OpenERKNSt7__cxx1112basic_stringIwSt11char_traitsIwESaIwEEENS_13fileoptions_tE
libmediainfo.so.0:_ZN12MediaInfoLib22MediaInfoList_Internal4SaveEm
libmediainfo.so.0:_ZN12MediaInfoLib22MediaInfoList_Internal5CloseEm
libmediainfo.so.0:_ZN12MediaInfoLib22MediaInfoList_Internal5EntryEv
libmediainfo.so.0:_ZN12MediaInfoLib22MediaInfoList_Internal6InformB5cxx11Emm
libmediainfo.so.0:_ZN12MediaInfoLib22MediaInfoList_Internal6OptionERKNSt7__cxx1112basic_stringIwSt11char_traitsIwESaIwEEES8_
libmediainfo.so.0:_ZN12MediaInfoLib22MediaInfoList_Internal9Count_GetEmNS_8stream_tEm
libmediainfo.so.0:_ZN12MediaInfoLib22MediaInfoList_Internal9Count_GetEv
libmediainfo.so.0:_ZN12MediaInfoLib22MediaInfoList_Internal9State_GetEv
libmediainfo.so.0:_ZN12MediaInfoLib22MediaInfoList_InternalC1Em
libmediainfo.so.0:_ZN12MediaInfoLib22MediaInfoList_InternalC2Em
libmediainfo.so.0:_ZN12MediaInfoLib22MediaInfoList_InternalD0Ev
libmediainfo.so.0:_ZN12MediaInfoLib22MediaInfoList_InternalD1Ev
libmediainfo.so.0:_ZN12MediaInfoLib22MediaInfoList_InternalD2Ev
libmediainfo.so.0:_ZN12MediaInfoLib22MediaInfo_Config_AudioERN6ZenLib14ZtringListListE
libmediainfo.so.0:_ZN12MediaInfoLib22MediaInfo_Config_CodecERN6ZenLib7InfoMapE
libmediainfo.so.0:_ZN12MediaInfoLib22MediaInfo_Config_ImageERN6ZenLib14ZtringListListE
libmediainfo.so.0:_ZN12MediaInfoLib22MediaInfo_Config_OtherERN6ZenLib14ZtringListListE
libmediainfo.so.0:_ZN12MediaInfoLib22MediaInfo_Config_VideoERN6ZenLib14ZtringListListE
libmediainfo.so.0:_ZN12MediaInfoLib22Mpeg7_ContentCS_termIDERNS_18MediaInfo_InternalEm
libmediainfo.so.0:_ZN12MediaInfoLib22Mpeg7_StripExtraValuesEN6ZenLib6ZtringE
libmediainfo.so.0:_ZN12MediaInfoLib22Mpeg7_Transform_VisualEPNS_4NodeERNS_18MediaInfo_InternalEm
libmediainfo.so.0:_ZN12MediaInfoLib22Mpegv_colour_primariesEh
libmediainfo.so.0:_ZN12MediaInfoLib22Xml_Name_Escape_0_7_78ERKN6ZenLib6ZtringE
libmediainfo.so.0:_ZN12MediaInfoLib23Angles2KnownChannelNameB5cxx11ERNS_6anglesE
libmediainfo.so.0:_ZN12MediaInfoLib23Dirac_base_video_formatEj
libmediainfo.so.0:_ZN12MediaInfoLib23Dirac_base_video_formatEjRjS0_S0_S0_S0_S0_S0_S0_RfS1_
libmediainfo.so.0:_ZN12MediaInfoLib23EbuCore_Transform_AudioEPNS_4NodeERNS_18MediaInfo_InternalEmNS_14Export_EbuCore7versionE
libmediainfo.so.0:_ZN12MediaInfoLib23EbuCore_Transform_VideoEPNS_4NodeERNS_18MediaInfo_InternalEmNS_14Export_EbuCore7versionE
libmediainfo.so.0:_ZN12MediaInfoLib23File__Duplicate__Writer17Output_Buffer_GetEPPh
libmediainfo.so.0:_ZN12MediaInfoLib23File__Duplicate__Writer17Output_Buffer_GetEv
libmediainfo.so.0:_ZN12MediaInfoLib23File__Duplicate__Writer5WriteEPKhm
libmediainfo.so.0:_ZN12MediaInfoLib23File__Duplicate__Writer9ConfigureERKN6ZenLib6ZtringE
libmediainfo.so.0:_ZN12MediaInfoLib23File__Duplicate__WriterC1Ev
libmediainfo.so.0:_ZN12MediaInfoLib23File__Duplicate__WriterC2Ev
libmediainfo.so.0:_ZN12MediaInfoLib23File__Duplicate__WriterD1Ev
libmediainfo.so.0:_ZN12MediaInfoLib23File__Duplicate__WriterD2Ev
libmediainfo.so.0:_ZN12MediaInfoLib23Fims_Transform_MetadataERN6ZenLib6ZtringERNS_18MediaInfo_InternalEmb
libmediainfo.so.0:_ZN12MediaInfoLib23Fims_Transform_TimeCodeERN6ZenLib6ZtringERNS_18MediaInfo_InternalEmb
libmediainfo.so.0:_ZN12MediaInfoLib23MediaInfo_Config_FormatERN6ZenLib7InfoMapE
libmediainfo.so.0:_ZN12MediaInfoLib23Mpeg7_FileFormatCS_NameEjRNS_18MediaInfo_InternalEm
libmediainfo.so.0:_ZN12MediaInfoLib24ComputeSamplingFrequencyEPNS_4NodeERN6ZenLib6ZtringE
libmediainfo.so.0:_ZN12MediaInfoLib24Dirac_pixel_aspect_ratioEj
libmediainfo.so.0:_ZN12MediaInfoLib24File_DolbyVisionMetadata16FileHeader_BeginEv
libmediainfo.so.0:_ZN12MediaInfoLib24File_DolbyVisionMetadataC1Ev
libmediainfo.so.0:_ZN12MediaInfoLib24File_DolbyVisionMetadataC2Ev
libmediainfo.so.0:_ZN12MediaInfoLib24MediaInfo_Config_GeneralERN6ZenLib14ZtringListListE
libmediainfo.so.0:_ZN12MediaInfoLib24MediaInfo_Config_GenericERN6ZenLib14ZtringListListE
libmediainfo.so.0:_ZN12MediaInfoLib24MediaInfo_Config_SummaryERN6ZenLib14ZtringListListE
libmediainfo.so.0:_ZN12MediaInfoLib24Mpeg7_Visual_colorDomainERNS_18MediaInfo_InternalEm
libmediainfo.so.0:_ZN12MediaInfoLib24Reader_libcurl_HomeIsSetEv
libmediainfo.so.0:_ZN12MediaInfoLib24mgi_bitstream_val_to_Q15Eih
libmediainfo.so.0:_ZN12MediaInfoLib25AC3_chanmap_ChannelLayoutEtRKN6ZenLib6ZtringE
libmediainfo.so.0:_ZN12MediaInfoLib25Aac_ChannelMode_GetStringB5cxx11EPKNS_17Aac_OutputChannelEm
libmediainfo.so.0:_ZN12MediaInfoLib25Aac_ChannelMode_GetStringB5cxx11ERKSt6vectorINS_17Aac_OutputChannelESaIS1_EE
libmediainfo.so.0:_ZN12MediaInfoLib25Aac_ChannelMode_GetStringB5cxx11Ehb
libmediainfo.so.0:_ZN12MediaInfoLib25ChannelLayout_2018_RenameENS_8stream_tERKN6ZenLib6ZtringES4_S4_Rb
libmediainfo.so.0:_ZN12MediaInfoLib25ChannelLayout_2018_RenameENS_8stream_tEmRN6ZenLib10ZtringListERKNS1_6ZtringERb
libmediainfo.so.0:_ZN12MediaInfoLib25ChannelLayout_2018_RenameERKN6ZenLib6ZtringES3_
libmediainfo.so.0:_ZN12MediaInfoLib25Dirac_picture_coding_modeEj
libmediainfo.so.0:_ZN12MediaInfoLib25MediaInfo_Config_Iso639_1ERN6ZenLib7InfoMapE
libmediainfo.so.0:_ZN12MediaInfoLib25MediaInfo_Config_Iso639_2ERN6ZenLib7InfoMapE
libmediainfo.so.0:_ZN12MediaInfoLib25Mpeg7_FileFormatCS_termIDERNS_18MediaInfo_InternalEm
libmediainfo.so.0:_ZN12MediaInfoLib25Mpeg_Psi_stream_type_InfoEhj
libmediainfo.so.0:_ZN12MediaInfoLib25Mpegv_matrix_coefficientsEh
libmediainfo.so.0:_ZN12MediaInfoLib25Pcm_VOB_ChannelsPositionsEh
libmediainfo.so.0:_ZN12MediaInfoLib26Avc_user_data_GA94_cc_typeEh
libmediainfo.so.0:_ZN12MediaInfoLib26BigEndian2float16correctedEPKc
libmediainfo.so.0:_ZN12MediaInfoLib26DTS_HD_SpeakerActivityMaskB5cxx11Etbb
libmediainfo.so.0:_ZN12MediaInfoLib26DolbyE_Channels_PerProgramEhh
libmediainfo.so.0:_ZN12MediaInfoLib26EbuCore_Transform_MetadataEPNS_4NodeERNS_18MediaInfo_InternalEmb
libmediainfo.so.0:_ZN12MediaInfoLib26EbuCore_Transform_TimeCodeEPNS_4NodeERNS_18MediaInfo_InternalEmb
libmediainfo.so.0:_ZN12MediaInfoLib26ExtensibleWave_ChannelMaskB5cxx11Ej
libmediainfo.so.0:_ZN12MediaInfoLib26File__ReferenceFilesHelper11AddSequenceEPNS_8sequenceE
libmediainfo.so.0:_ZN12MediaInfoLib26File__ReferenceFilesHelper12List_ComputeEv
libmediainfo.so.0:_ZN12MediaInfoLib26File__ReferenceFilesHelper13SubFile_StartEv
libmediainfo.so.0:_ZN12MediaInfoLib26File__ReferenceFilesHelper14ParseReferenceEv
libmediainfo.so.0:_ZN12MediaInfoLib26File__ReferenceFilesHelper14Stream_PrepareENS_8stream_tEm
libmediainfo.so.0:_ZN12MediaInfoLib26File__ReferenceFilesHelper14UpdateFileNameERKN6ZenLib6ZtringES4_
libmediainfo.so.0:_ZN12MediaInfoLib26File__ReferenceFilesHelper15DetectSameReelsERSt6vectorImSaImEE
libmediainfo.so.0:_ZN12MediaInfoLib26File__ReferenceFilesHelper15ParseReferencesEv
libmediainfo.so.0:_ZN12MediaInfoLib26File__ReferenceFilesHelper16FileSize_ComputeEv
libmediainfo.so.0:_ZN12MediaInfoLib26File__ReferenceFilesHelper19ParseReference_InitEv
libmediainfo.so.0:_ZN12MediaInfoLib26File__ReferenceFilesHelper21Read_Buffer_UnsynchedEv
libmediainfo.so.0:_ZN12MediaInfoLib26File__ReferenceFilesHelper23ParseReference_FinalizeEv
libmediainfo.so.0:_ZN12MediaInfoLib26File__ReferenceFilesHelper32UpdateMetaDataFromSourceEncodingERKNSt7__cxx1112basic_stringIcSt11char_traitsIcESaIcEEES8_S8_
libmediainfo.so.0:_ZN12MediaInfoLib26File__ReferenceFilesHelper33CountOfReferences_ForReadSize_RunEv
libmediainfo.so.0:_ZN12MediaInfoLib26File__ReferenceFilesHelper33ParseReference_Finalize_PerStreamEv
libmediainfo.so.0:_ZN12MediaInfoLib26File__ReferenceFilesHelper4SeekEmyy
libmediainfo.so.0:_ZN12MediaInfoLib26File__ReferenceFilesHelper9MI_CreateEv
libmediainfo.so.0:_ZN12MediaInfoLib26File__ReferenceFilesHelperC1EPNS_13File__AnalyzeEPNS_26MediaInfo_Config_MediaInfoE
libmediainfo.so.0:_ZN12MediaInfoLib26File__ReferenceFilesHelperC2EPNS_13File__AnalyzeEPNS_26MediaInfo_Config_MediaInfoE
libmediainfo.so.0:_ZN12MediaInfoLib26File__ReferenceFilesHelperD1Ev
libmediainfo.so.0:_ZN12MediaInfoLib26File__ReferenceFilesHelperD2Ev
libmediainfo.so.0:_ZN12MediaInfoLib26MediaInfo_Config_MediaInfo10Event_SendEPNS_13File__AnalyzeEPKhmRKN6ZenLib6ZtringE
libmediainfo.so.0:_ZN12MediaInfoLib26MediaInfo_Config_MediaInfo12File_Md5_GetEv
libmediainfo.so.0:_ZN12MediaInfoLib26MediaInfo_Config_MediaInfo12File_Md5_SetEb
libmediainfo.so.0:_ZN12MediaInfoLib26MediaInfo_Config_MediaInfo12TryToFix_GetEv
libmediainfo.so.0:_ZN12MediaInfoLib26MediaInfo_Config_MediaInfo12TryToFix_SetEb
libmediainfo.so.0:_ZN12MediaInfoLib26MediaInfo_Config_MediaInfo13File_Curl_GetERKN6ZenLib6ZtringE
libmediainfo.so.0:_ZN12MediaInfoLib26MediaInfo_Config_MediaInfo13File_Curl_SetERKN6ZenLib6ZtringE
libmediainfo.so.0:_ZN12MediaInfoLib26MediaInfo_Config_MediaInfo13File_Curl_SetERKN6ZenLib6ZtringES4_
libmediainfo.so.0:_ZN12MediaInfoLib26MediaInfo_Config_MediaInfo13File_Hash_GetEv
libmediainfo.so.0:_ZN12MediaInfoLib26MediaInfo_Config_MediaInfo13File_Hash_SetESt6bitsetILm6EE
libmediainfo.so.0:_ZN12MediaInfoLib26MediaInfo_Config_MediaInfo14Demux_Rate_GetEv
libmediainfo.so.0:_ZN12MediaInfoLib26MediaInfo_Config_MediaInfo14Demux_Rate_SetEd
libmediainfo.so.0:_ZN12MediaInfoLib26MediaInfo_Config_MediaInfo14Event_AcceptedEPNS_13File__AnalyzeE
libmediainfo.so.0:_ZN12MediaInfoLib26MediaInfo_Config_MediaInfo14File_IsSub_GetEv
libmediainfo.so.0:_ZN12MediaInfoLib26MediaInfo_Config_MediaInfo14File_IsSub_SetEb
libmediainfo.so.0:_ZN12MediaInfoLib26MediaInfo_Config_MediaInfo14NextPacket_GetEv
libmediainfo.so.0:_ZN12MediaInfoLib26MediaInfo_Config_MediaInfo14NextPacket_SetEb
libmediainfo.so.0:_ZN12MediaInfoLib26MediaInfo_Config_MediaInfo15File_Filter_GetEt
libmediainfo.so.0:_ZN12MediaInfoLib26MediaInfo_Config_MediaInfo15File_Filter_GetEv
libmediainfo.so.0:_ZN12MediaInfoLib26MediaInfo_Config_MediaInfo15File_Filter_SetEy
libmediainfo.so.0:_ZN12MediaInfoLib26MediaInfo_Config_MediaInfo15SubFile_IDs_GetEv
libmediainfo.so.0:_ZN12MediaInfoLib26MediaInfo_Config_MediaInfo15SubFile_IDs_SetEN6ZenLib6ZtringE
libmediainfo.so.0:_ZN12MediaInfoLib26MediaInfo_Config_MediaInfo17File_FileName_GetEv
libmediainfo.so.0:_ZN12MediaInfoLib26MediaInfo_Config_MediaInfo17File_FileName_SetERKN6ZenLib6ZtringE
libmediainfo.so.0:_ZN12MediaInfoLib26MediaInfo_Config_MediaInfo17File_KeepInfo_GetEv
libmediainfo.so.0:_ZN12MediaInfoLib26MediaInfo_Config_MediaInfo17File_KeepInfo_SetEb
libmediainfo.so.0:_ZN12MediaInfoLib26MediaInfo_Config_MediaInfo18Demux_FirstDts_GetEv
libmediainfo.so.0:_ZN12MediaInfoLib26MediaInfo_Config_MediaInfo18Demux_FirstDts_SetEy
libmediainfo.so.0:_ZN12MediaInfoLib26MediaInfo_Config_MediaInfo18Demux_ForceIds_GetEv
libmediainfo.so.0:_ZN12MediaInfoLib26MediaInfo_Config_MediaInfo18Demux_ForceIds_SetEb
libmediainfo.so.0:_ZN12MediaInfoLib26MediaInfo_Config_MediaInfo18Demux_InitData_GetEv
libmediainfo.so.0:_ZN12MediaInfoLib26MediaInfo_Config_MediaInfo18Demux_InitData_SetEh
libmediainfo.so.0:_ZN12MediaInfoLib26MediaInfo_Config_MediaInfo18Encryption_Key_GetB5cxx11Ev
libmediainfo.so.0:_ZN12MediaInfoLib26MediaInfo_Config_MediaInfo18Encryption_Key_SetEPKhm
libmediainfo.so.0:_ZN12MediaInfoLib26MediaInfo_Config_MediaInfo18Encryption_Key_SetERKN6ZenLib6ZtringE
libmediainfo.so.0:_ZN12MediaInfoLib26MediaInfo_Config_MediaInfo18File_Duplicate_GetEm
libmediainfo.so.0:_ZN12MediaInfoLib26MediaInfo_Config_MediaInfo18File_Duplicate_SetERKN6ZenLib6ZtringE
libmediainfo.so.0:_ZN12MediaInfoLib26MediaInfo_Config_MediaInfo18SubFile_Config_GetEv
libmediainfo.so.0:_ZN12MediaInfoLib26MediaInfo_Config_MediaInfo19Encryption_Mode_GetEv
libmediainfo.so.0:_ZN12MediaInfoLib26MediaInfo_Config_MediaInfo19Encryption_Mode_SetENS_15encryption_modeE
libmediainfo.so.0:_ZN12MediaInfoLib26MediaInfo_Config_MediaInfo19Encryption_Mode_SetERKN6ZenLib6ZtringE
libmediainfo.so.0:_ZN12MediaInfoLib26MediaInfo_Config_MediaInfo19Event_SubFile_StartERKN6ZenLib6ZtringE
libmediainfo.so.0:_ZN12MediaInfoLib26MediaInfo_Config_MediaInfo19File_ExpandSubs_GetEv
libmediainfo.so.0:_ZN12MediaInfoLib26MediaInfo_Config_MediaInfo19File_ExpandSubs_SetEb
libmediainfo.so.0:_ZN12MediaInfoLib26MediaInfo_Config_MediaInfo19File_IsSeekable_GetEv
libmediainfo.so.0:_ZN12MediaInfoLib26MediaInfo_Config_MediaInfo19File_IsSeekable_SetEb
libmediainfo.so.0:_ZN12MediaInfoLib26MediaInfo_Config_MediaInfo19File_ParseSpeed_GetEv
libmediainfo.so.0:_ZN12MediaInfoLib26MediaInfo_Config_MediaInfo19File_ParseSpeed_SetEfb
libmediainfo.so.0:_ZN12MediaInfoLib26MediaInfo_Config_MediaInfo19File_TimeToLive_GetEv
libmediainfo.so.0:_ZN12MediaInfoLib26MediaInfo_Config_MediaInfo19File_TimeToLive_SetEd
libmediainfo.so.0:_ZN12MediaInfoLib26MediaInfo_Config_MediaInfo20Encryption_Mode_GetSB5cxx11Ev
libmediainfo.so.0:_ZN12MediaInfoLib26MediaInfo_Config_MediaInfo20File_ForceParser_GetEv
libmediainfo.so.0:_ZN12MediaInfoLib26MediaInfo_Config_MediaInfo20File_ForceParser_SetERKN6ZenLib6ZtringE
libmediainfo.so.0:_ZN12MediaInfoLib26MediaInfo_Config_MediaInfo20File_ID_OnlyRoot_GetEv
libmediainfo.so.0:_ZN12MediaInfoLib26MediaInfo_Config_MediaInfo20File_ID_OnlyRoot_SetEb
libmediainfo.so.0:_ZN12MediaInfoLib26MediaInfo_Config_MediaInfo20File_Partial_End_GetEv
libmediainfo.so.0:_ZN12MediaInfoLib26MediaInfo_Config_MediaInfo20File_Partial_End_SetERKN6ZenLib6ZtringE
libmediainfo.so.0:_ZN12MediaInfoLib26MediaInfo_Config_MediaInfo20File_Source_List_GetEv
libmediainfo.so.0:_ZN12MediaInfoLib26MediaInfo_Config_MediaInfo20File_Source_List_SetEb
libmediainfo.so.0:_ZN12MediaInfoLib26MediaInfo_Config_MediaInfo20SubFile_StreamID_GetEv
libmediainfo.so.0:_ZN12MediaInfoLib26MediaInfo_Config_MediaInfo20SubFile_StreamID_SetEy
libmediainfo.so.0:_ZN12MediaInfoLib26MediaInfo_Config_MediaInfo21Demux_Unpacketize_GetEv
libmediainfo.so.0:_ZN12MediaInfoLib26MediaInfo_Config_MediaInfo21Demux_Unpacketize_SetEb
libmediainfo.so.0:_ZN12MediaInfoLib26MediaInfo_Config_MediaInfo21Encryption_Format_GetEv
libmediainfo.so.0:_ZN12MediaInfoLib26MediaInfo_Config_MediaInfo21Encryption_Format_SetENS_17encryption_formatE
libmediainfo.so.0:_ZN12MediaInfoLib26MediaInfo_Config_MediaInfo21Encryption_Format_SetERKN6ZenLib6ZtringE
libmediainfo.so.0:_ZN12MediaInfoLib26MediaInfo_Config_MediaInfo21Encryption_Method_GetEv
libmediainfo.so.0:_ZN12MediaInfoLib26MediaInfo_Config_MediaInfo21Encryption_Method_SetENS_17encryption_methodE
libmediainfo.so.0:_ZN12MediaInfoLib26MediaInfo_Config_MediaInfo21Encryption_Method_SetERKN6ZenLib6ZtringE
libmediainfo.so.0:_ZN12MediaInfoLib26MediaInfo_Config_MediaInfo21Event_SubFile_MissingERKN6ZenLib6ZtringE
libmediainfo.so.0:_ZN12MediaInfoLib26MediaInfo_Config_MediaInfo21File_Filter_Audio_GetEv
libmediainfo.so.0:_ZN12MediaInfoLib26MediaInfo_Config_MediaInfo21File_Filter_Audio_SetEb
libmediainfo.so.0:_ZN12MediaInfoLib26MediaInfo_Config_MediaInfo21File_IsReferenced_GetEv
libmediainfo.so.0:_ZN12MediaInfoLib26MediaInfo_Config_MediaInfo21File_IsReferenced_SetEb
libmediainfo.so.0:_ZN12MediaInfoLib26MediaInfo_Config_MediaInfo22Encryption_Format_GetSB5cxx11Ev
libmediainfo.so.0:_ZN12MediaInfoLib26MediaInfo_Config_MediaInfo22Encryption_Method_GetSB5cxx11Ev
libmediainfo.so.0:_ZN12MediaInfoLib26MediaInfo_Config_MediaInfo22Encryption_Padding_GetEv
libmediainfo.so.0:_ZN12MediaInfoLib26MediaInfo_Config_MediaInfo22Encryption_Padding_SetENS_18encryption_paddingE
libmediainfo.so.0:_ZN12MediaInfoLib26MediaInfo_Config_MediaInfo22Encryption_Padding_SetERKN6ZenLib6ZtringE
libmediainfo.so.0:_ZN12MediaInfoLib26MediaInfo_Config_MediaInfo22File_Ac3_IgnoreCrc_GetEv
libmediainfo.so.0:_ZN12MediaInfoLib26MediaInfo_Config_MediaInfo22File_Ac3_IgnoreCrc_SetEb
libmediainfo.so.0:_ZN12MediaInfoLib26MediaInfo_Config_MediaInfo22File_ChannelLayout_GetEv
libmediainfo.so.0:_ZN12MediaInfoLib26MediaInfo_Config_MediaInfo22File_ChannelLayout_SetEb
libmediainfo.so.0:_ZN12MediaInfoLib26MediaInfo_Config_MediaInfo22File_ExpandSubs_UpdateEPPv
libmediainfo.so.0:_ZN12MediaInfoLib26MediaInfo_Config_MediaInfo22File_Filter_HasChangedEv
libmediainfo.so.0:_ZN12MediaInfoLib26MediaInfo_Config_MediaInfo22File_HighestFormat_GetEv
libmediainfo.so.0:_ZN12MediaInfoLib26MediaInfo_Config_MediaInfo22File_HighestFormat_SetEb
libmediainfo.so.0:_ZN12MediaInfoLib26MediaInfo_Config_MediaInfo22File_Partial_Begin_GetEv
libmediainfo.so.0:_ZN12MediaInfoLib26MediaInfo_Config_MediaInfo22File_Partial_Begin_SetERKN6ZenLib6ZtringE
libmediainfo.so.0:_ZN12MediaInfoLib26MediaInfo_Config_MediaInfo22File_TestDirectory_GetEv
libmediainfo.so.0:_ZN12MediaInfoLib26MediaInfo_Config_MediaInfo22File_TestDirectory_SetEb
libmediainfo.so.0:_ZN12MediaInfoLib26MediaInfo_Config_MediaInfo23Encryption_Padding_GetSB5cxx11Ev
libmediainfo.so.0:_ZN12MediaInfoLib26MediaInfo_Config_MediaInfo23File_DvDif_Analysis_GetEv
libmediainfo.so.0:_ZN12MediaInfoLib26MediaInfo_Config_MediaInfo23File_DvDif_Analysis_SetEb
libmediainfo.so.0:_ZN12MediaInfoLib26MediaInfo_Config_MediaInfo23File_FileNameFormat_GetEv
libmediainfo.so.0:_ZN12MediaInfoLib26MediaInfo_Config_MediaInfo23File_FileNameFormat_SetERKN6ZenLib6ZtringE
libmediainfo.so.0:_ZN12MediaInfoLib26MediaInfo_Config_MediaInfo23File_Mxf_ParseIndex_GetEv
libmediainfo.so.0:_ZN12MediaInfoLib26MediaInfo_Config_MediaInfo23File_Mxf_ParseIndex_SetEb
libmediainfo.so.0:_ZN12MediaInfoLib26MediaInfo_Config_MediaInfo24File_DefaultTimeCode_GetB5cxx11Ev
libmediainfo.so.0:_ZN12MediaInfoLib26MediaInfo_Config_MediaInfo24File_DefaultTimeCode_SetENSt7__cxx1112basic_stringIcSt11char_traitsIcESaIcEEE
libmediainfo.so.0:_ZN12MediaInfoLib26MediaInfo_Config_MediaInfo24File_MpegTs_RealTime_GetEv
libmediainfo.so.0:_ZN12MediaInfoLib26MediaInfo_Config_MediaInfo24File_MpegTs_RealTime_SetEb
libmediainfo.so.0:_ZN12MediaInfoLib26MediaInfo_Config_MediaInfo24File_StopAfterFilled_GetEv
libmediainfo.so.0:_ZN12MediaInfoLib26MediaInfo_Config_MediaInfo24File_StopAfterFilled_SetEb
libmediainfo.so.0:_ZN12MediaInfoLib26MediaInfo_Config_MediaInfo25File_Buffer_Read_Size_GetEv
libmediainfo.so.0:_ZN12MediaInfoLib26MediaInfo_Config_MediaInfo25File_Buffer_Read_Size_SetEm
libmediainfo.so.0:_ZN12MediaInfoLib26MediaInfo_Config_MediaInfo25File_DefaultFrameRate_GetEv
libmediainfo.so.0:_ZN12MediaInfoLib26MediaInfo_Config_MediaInfo25File_DefaultFrameRate_SetEd
libmediainfo.so.0:_ZN12MediaInfoLib26MediaInfo_Config_MediaInfo25File_Demux_Interleave_GetEv
libmediainfo.so.0:_ZN12MediaInfoLib26MediaInfo_Config_MediaInfo25File_Demux_Interleave_SetEb
libmediainfo.so.0:_ZN12MediaInfoLib26MediaInfo_Config_MediaInfo25File_MergeBitRateInfo_GetEv
libmediainfo.so.0:_ZN12MediaInfoLib26MediaInfo_Config_MediaInfo25File_MergeBitRateInfo_SetEb
libmediainfo.so.0:_ZN12MediaInfoLib26MediaInfo_Config_MediaInfo25File_MpegTs_ForceMenu_GetEv
libmediainfo.so.0:_ZN12MediaInfoLib26MediaInfo_Config_MediaInfo25File_MpegTs_ForceMenu_SetEb
libmediainfo.so.0:_ZN12MediaInfoLib26MediaInfo_Config_MediaInfo26Demux_FirstFrameNumber_GetEv
libmediainfo.so.0:_ZN12MediaInfoLib26MediaInfo_Config_MediaInfo26Demux_FirstFrameNumber_SetEy
libmediainfo.so.0:_ZN12MediaInfoLib26MediaInfo_Config_MediaInfo26Demux_PCM_20bitTo16bit_GetEv
libmediainfo.so.0:_ZN12MediaInfoLib26MediaInfo_Config_MediaInfo26Demux_PCM_20bitTo16bit_SetEb
libmediainfo.so.0:_ZN12MediaInfoLib26MediaInfo_Config_MediaInfo26Demux_PCM_20bitTo24bit_GetEv
libmediainfo.so.0:_ZN12MediaInfoLib26MediaInfo_Config_MediaInfo26Demux_PCM_20bitTo24bit_SetEb
libmediainfo.so.0:_ZN12MediaInfoLib26MediaInfo_Config_MediaInfo26Demux_SplitAudioBlocks_GetEv
libmediainfo.so.0:_ZN12MediaInfoLib26MediaInfo_Config_MediaInfo26Demux_SplitAudioBlocks_SetEb
libmediainfo.so.0:_ZN12MediaInfoLib26MediaInfo_Config_MediaInfo26Event_CallBackFunction_GetEv
libmediainfo.so.0:_ZN12MediaInfoLib26MediaInfo_Config_MediaInfo26Event_CallBackFunction_SetERKN6ZenLib6ZtringE
libmediainfo.so.0:_ZN12MediaInfoLib26MediaInfo_Config_MediaInfo26File_CheckSideCarFiles_GetEv
libmediainfo.so.0:_ZN12MediaInfoLib26MediaInfo_Config_MediaInfo26File_CheckSideCarFiles_SetEb
libmediainfo.so.0:_ZN12MediaInfoLib26MediaInfo_Config_MediaInfo26File_GrowingFile_Delay_GetEv
libmediainfo.so.0:_ZN12MediaInfoLib26MediaInfo_Config_MediaInfo26File_GrowingFile_Delay_SetEd
libmediainfo.so.0:_ZN12MediaInfoLib26MediaInfo_Config_MediaInfo26File_GrowingFile_Force_GetEv
libmediainfo.so.0:_ZN12MediaInfoLib26MediaInfo_Config_MediaInfo26File_GrowingFile_Force_SetEb
libmediainfo.so.0:_ZN12MediaInfoLib26MediaInfo_Config_MediaInfo26File_Macroblocks_Parse_GetEv
libmediainfo.so.0:_ZN12MediaInfoLib26MediaInfo_Config_MediaInfo26File_Macroblocks_Parse_SetEb
libmediainfo.so.0:_ZN12MediaInfoLib26MediaInfo_Config_MediaInfo26ParseUndecodableFrames_GetEv
libmediainfo.so.0:_ZN12MediaInfoLib26MediaInfo_Config_MediaInfo26ParseUndecodableFrames_SetEb
libmediainfo.so.0:_ZN12MediaInfoLib26MediaInfo_Config_MediaInfo27File_ForceParser_Config_GetEv
libmediainfo.so.0:_ZN12MediaInfoLib26MediaInfo_Config_MediaInfo27File_ForceParser_Config_SetERKN6ZenLib6ZtringE
libmediainfo.so.0:_ZN12MediaInfoLib26MediaInfo_Config_MediaInfo27File_Mmsh_Describe_Only_GetEv
libmediainfo.so.0:_ZN12MediaInfoLib26MediaInfo_Config_MediaInfo27File_Mmsh_Describe_Only_SetEb
libmediainfo.so.0:_ZN12MediaInfoLib26MediaInfo_Config_MediaInfo28Event_CallBackFunction_IsSetEv
libmediainfo.so.0:_ZN12MediaInfoLib26MediaInfo_Config_MediaInfo28File_IsDetectingDuration_GetEv
libmediainfo.so.0:_ZN12MediaInfoLib26MediaInfo_Config_MediaInfo28File_IsDetectingDuration_SetEb
libmediainfo.so.0:_ZN12MediaInfoLib26MediaInfo_Config_MediaInfo30Event_SubFile_Missing_AbsoluteERKN6ZenLib6ZtringE
libmediainfo.so.0:_ZN12MediaInfoLib26MediaInfo_Config_MediaInfo31File_Audio_MergeMonoStreams_GetEv
libmediainfo.so.0:_ZN12MediaInfoLib26MediaInfo_Config_MediaInfo31File_Audio_MergeMonoStreams_SetEb
libmediainfo.so.0:_ZN12MediaInfoLib26MediaInfo_Config_MediaInfo31File_Bdmv_ParseTargetedFile_GetEv
libmediainfo.so.0:_ZN12MediaInfoLib26MediaInfo_Config_MediaInfo31File_Bdmv_ParseTargetedFile_SetEb
libmediainfo.so.0:_ZN12MediaInfoLib26MediaInfo_Config_MediaInfo31File_Duplicate_Get_AlwaysNeededEm
libmediainfo.so.0:_ZN12MediaInfoLib26MediaInfo_Config_MediaInfo31File_IgnoreSequenceFileSize_GetEv
libmediainfo.so.0:_ZN12MediaInfoLib26MediaInfo_Config_MediaInfo31File_IgnoreSequenceFileSize_SetEb
libmediainfo.so.0:_ZN12MediaInfoLib26MediaInfo_Config_MediaInfo31File_RiskyBitRateEstimation_GetEv
libmediainfo.so.0:_ZN12MediaInfoLib26MediaInfo_Config_MediaInfo31File_RiskyBitRateEstimation_SetEb
libmediainfo.so.0:_ZN12MediaInfoLib26MediaInfo_Config_MediaInfo32File_SequenceFilesSkipFrames_GetEv
libmediainfo.so.0:_ZN12MediaInfoLib26MediaInfo_Config_MediaInfo32File_SequenceFilesSkipFrames_SetEy
libmediainfo.so.0:_ZN12MediaInfoLib26MediaInfo_Config_MediaInfo32File_TestContinuousFileNames_GetEv
libmediainfo.so.0:_ZN12MediaInfoLib26MediaInfo_Config_MediaInfo32File_TestContinuousFileNames_SetEb
libmediainfo.so.0:_ZN12MediaInfoLib26MediaInfo_Config_MediaInfo33File_Buffer_Size_Hint_Pointer_GetEv
libmediainfo.so.0:_ZN12MediaInfoLib26MediaInfo_Config_MediaInfo33File_Buffer_Size_Hint_Pointer_SetEPm
libmediainfo.so.0:_ZN12MediaInfoLib26MediaInfo_Config_MediaInfo33File_IgnoreSequenceFilesCount_GetEv
libmediainfo.so.0:_ZN12MediaInfoLib26MediaInfo_Config_MediaInfo33File_IgnoreSequenceFilesCount_SetEb
libmediainfo.so.0:_ZN12MediaInfoLib26MediaInfo_Config_MediaInfo33File_MpegTs_stream_type_Trust_GetEv
libmediainfo.so.0:_ZN12MediaInfoLib26MediaInfo_Config_MediaInfo33File_MpegTs_stream_type_Trust_SetEb
libmediainfo.so.0:_ZN12MediaInfoLib26MediaInfo_Config_MediaInfo33File_StopSubStreamAfterFilled_GetEv
libmediainfo.so.0:_ZN12MediaInfoLib26MediaInfo_Config_MediaInfo33File_StopSubStreamAfterFilled_SetEb
libmediainfo.so.0:_ZN12MediaInfoLib26MediaInfo_Config_MediaInfo34File_Eia608_DisplayEmptyStream_GetEv
libmediainfo.so.0:_ZN12MediaInfoLib26MediaInfo_Config_MediaInfo34File_Eia608_DisplayEmptyStream_SetEb
libmediainfo.so.0:_ZN12MediaInfoLib26MediaInfo_Config_MediaInfo34File_Eia708_DisplayEmptyStream_GetEv
libmediainfo.so.0:_ZN12MediaInfoLib26MediaInfo_Config_MediaInfo34File_Eia708_DisplayEmptyStream_SetEb
libmediainfo.so.0:_ZN12MediaInfoLib26MediaInfo_Config_MediaInfo34File__Duplicate_Memory_Indexes_GetERKN6ZenLib6ZtringE
libmediainfo.so.0:_ZN12MediaInfoLib26MediaInfo_Config_MediaInfo35Encryption_InitializationVector_GetB5cxx11Ev
libmediainfo.so.0:_ZN12MediaInfoLib26MediaInfo_Config_MediaInfo35Encryption_InitializationVector_SetERKN6ZenLib6ZtringE
libmediainfo.so.0:_ZN12MediaInfoLib26MediaInfo_Config_MediaInfo36File__Duplicate_Memory_Indexes_EraseERKN6ZenLib6ZtringE
libmediainfo.so.0:_ZN12MediaInfoLib26MediaInfo_Config_MediaInfo38File_DvDif_IgnoreTransmittingFlags_GetEv
libmediainfo.so.0:_ZN12MediaInfoLib26MediaInfo_Config_MediaInfo38File_DvDif_IgnoreTransmittingFlags_SetEb
libmediainfo.so.0:_ZN12MediaInfoLib26MediaInfo_Config_MediaInfo40File_Mxf_TimeCodeFromMaterialPackage_GetEv
libmediainfo.so.0:_ZN12MediaInfoLib26MediaInfo_Config_MediaInfo40File_Mxf_TimeCodeFromMaterialPackage_SetEb
libmediainfo.so.0:_ZN12MediaInfoLib26MediaInfo_Config_MediaInfo42File_DvDif_DisableAudioIfIsInContainer_GetEv
libmediainfo.so.0:_ZN12MediaInfoLib26MediaInfo_Config_MediaInfo42File_DvDif_DisableAudioIfIsInContainer_SetEb
libmediainfo.so.0:_ZN12MediaInfoLib26MediaInfo_Config_MediaInfo46Demux_Hevc_Transcode_Iso14496_15_to_AnnexB_GetEv
libmediainfo.so.0:_ZN12MediaInfoLib26MediaInfo_Config_MediaInfo46Demux_Hevc_Transcode_Iso14496_15_to_AnnexB_SetEb
libmediainfo.so.0:_ZN12MediaInfoLib26MediaInfo_Config_MediaInfo46File_MpegTs_Atsc_transport_stream_id_Trust_GetEv
libmediainfo.so.0:_ZN12MediaInfoLib26MediaInfo_Config_MediaInfo46File_MpegTs_Atsc_transport_stream_id_Trust_SetEb
libmediainfo.so.0:_ZN12MediaInfoLib26MediaInfo_Config_MediaInfo50Demux_Avc_Transcode_Iso14496_15_to_Iso14496_10_GetEv
libmediainfo.so.0:_ZN12MediaInfoLib26MediaInfo_Config_MediaInfo50Demux_Avc_Transcode_Iso14496_15_to_Iso14496_10_SetEb
libmediainfo.so.0:_ZN12MediaInfoLib26MediaInfo_Config_MediaInfo50File_Demux_Unpacketize_StreamLayoutChange_Skip_GetEv
libmediainfo.so.0:_ZN12MediaInfoLib26MediaInfo_Config_MediaInfo50File_Demux_Unpacketize_StreamLayoutChange_Skip_SetEb
libmediainfo.so.0:_ZN12MediaInfoLib26MediaInfo_Config_MediaInfo6OptionERKNSt7__cxx1112basic_stringIwSt11char_traitsIwESaIwEEES8_
libmediainfo.so.0:_ZN12MediaInfoLib26MediaInfo_Config_MediaInfo9State_GetEv
libmediainfo.so.0:_ZN12MediaInfoLib26MediaInfo_Config_MediaInfo9State_SetEf
libmediainfo.so.0:_ZN12MediaInfoLib26MediaInfo_Config_MediaInfoC1Ev
libmediainfo.so.0:_ZN12MediaInfoLib26MediaInfo_Config_MediaInfoC2Ev
libmediainfo.so.0:_ZN12MediaInfoLib26MediaInfo_Config_MediaInfoD1Ev
libmediainfo.so.0:_ZN12MediaInfoLib26MediaInfo_Config_MediaInfoD2Ev
libmediainfo.so.0:_ZN12MediaInfoLib26Mpeg_Psi_stream_type_CodecEhj
libmediainfo.so.0:_ZN12MediaInfoLib26Pcm_VOB_ChannelsPositions2Eh
libmediainfo.so.0:_ZN12MediaInfoLib26libcurl_WriteData_CallBackEPvmmS0_
libmediainfo.so.0:_ZN12MediaInfoLib26mgi_bitstream_pos_ToAnglesEiii
libmediainfo.so.0:_ZN12MediaInfoLib26mgi_bitstream_pos_z_to_Q15Ebh
libmediainfo.so.0:_ZN12MediaInfoLib27Aac_ChannelLayout_GetStringB5cxx11EPKNS_17Aac_OutputChannelEm
libmediainfo.so.0:_ZN12MediaInfoLib27Aac_ChannelLayout_GetStringB5cxx11ERKSt6vectorINS_17Aac_OutputChannelESaIS1_EE
libmediainfo.so.0:_ZN12MediaInfoLib27Aac_ChannelLayout_GetStringB5cxx11Ehb
libmediainfo.so.0:_ZN12MediaInfoLib27DTS_HD_SpeakerActivityMask2B5cxx11Etbb
libmediainfo.so.0:_ZN12MediaInfoLib27Dirac_source_sampling_CodecEj
libmediainfo.so.0:_ZN12MediaInfoLib27ExtensibleWave_ChannelMask2B5cxx11Ej
libmediainfo.so.0:_ZN12MediaInfoLib27MediaInfo_Config_PerPackage10Event_SendEPNS_13File__AnalyzeEPKhmRKN6ZenLib6ZtringE
libmediainfo.so.0:_ZN12MediaInfoLib27MediaInfo_Config_PerPackage11IsClosedGOPEPNS_13File__AnalyzeE
libmediainfo.so.0:_ZN12MediaInfoLib27MediaInfo_Config_PerPackage17FrameForAlignmentEPNS_13File__AnalyzeEb
libmediainfo.so.0:_ZN12MediaInfoLib27MediaInfo_Config_PerPackage26Event_CallBackFunction_GetEv
libmediainfo.so.0:_ZN12MediaInfoLib27MediaInfo_Config_PerPackage26Event_CallBackFunction_SetERKN6ZenLib6ZtringE
libmediainfo.so.0:_ZN12MediaInfoLib27MediaInfo_Config_PerPackage28Event_CallBackFunction_IsSetEv
libmediainfo.so.0:_ZN12MediaInfoLib27MediaInfo_Config_PerPackage6OptionERKNSt7__cxx1112basic_stringIwSt11char_traitsIwESaIwEEES8_
libmediainfo.so.0:_ZN12MediaInfoLib27MediaInfo_Config_PerPackage7UnsynchEv
libmediainfo.so.0:_ZN12MediaInfoLib27MediaInfo_Config_PerPackageC1Ev
libmediainfo.so.0:_ZN12MediaInfoLib27MediaInfo_Config_PerPackageC2Ev
libmediainfo.so.0:_ZN12MediaInfoLib27MediaInfo_Config_PerPackageD1Ev
libmediainfo.so.0:_ZN12MediaInfoLib27MediaInfo_Config_PerPackageD2Ev
libmediainfo.so.0:_ZN12MediaInfoLib27Mpeg_Descriptors_audio_typeEh
libmediainfo.so.0:_ZN12MediaInfoLib27Mpeg_Descriptors_codepage_1Eh
libmediainfo.so.0:_ZN12MediaInfoLib27Mpeg_Psi_stream_type_FormatEhj
libmediainfo.so.0:_ZN12MediaInfoLib27VideoCompressionCodeCS_NameEjRNS_18MediaInfo_InternalEm
libmediainfo.so.0:_ZN12MediaInfoLib28AC3_chanmap_ChannelPositionsEt
libmediainfo.so.0:_ZN12MediaInfoLib28Add_TechnicalAttributeStringEPNS_4NodeEN6ZenLib6ZtringENSt7__cxx1112basic_stringIcSt11char_traitsIcESaIcEEENS_14Export_EbuCore7versionE
libmediainfo.so.0:_ZN12MediaInfoLib28Duration_Milliseconds2StringEy
libmediainfo.so.0:_ZN12MediaInfoLib28Mpeg_Descriptors_stream_KindEhj
libmediainfo.so.0:_ZN12MediaInfoLib29AC3_TrueHD_Channels_PositionsB5cxx11Etb
libmediainfo.so.0:_ZN12MediaInfoLib29Add_TechnicalAttributeBooleanEPNS_4NodeEN6ZenLib6ZtringENSt7__cxx1112basic_stringIcSt11char_traitsIcESaIcEEENS_14Export_EbuCore7versionE
libmediainfo.so.0:_ZN12MediaInfoLib29Add_TechnicalAttributeIntegerEPNS_4NodeEN6ZenLib6ZtringENSt7__cxx1112basic_stringIcSt11char_traitsIcESaIcEEENS_14Export_EbuCore7versionEPKc
libmediainfo.so.0:_ZN12MediaInfoLib29MediaInfo_Config_Library_DivXERN6ZenLib7InfoMapE
libmediainfo.so.0:_ZN12MediaInfoLib29MediaInfo_Config_Library_XviDERN6ZenLib7InfoMapE
libmediainfo.so.0:_ZN12MediaInfoLib29Mpeg_Descriptors_CA_system_IDEt
libmediainfo.so.0:_ZN12MediaInfoLib29Mpeg_Descriptors_linkage_typeEh
libmediainfo.so.0:_ZN12MediaInfoLib29Mpeg_Descriptors_stream_CodecEhj
libmediainfo.so.0:_ZN12MediaInfoLib29Reader_libcurl_ExpandFileNameERKN6ZenLib6ZtringE
libmediainfo.so.0:_ZN12MediaInfoLib29Xml_Content_Escape_MustEscapeERKN6ZenLib6ZtringE
libmediainfo.so.0:_ZN12MediaInfoLib30AC3_TrueHD_Channels_Positions2Etb
libmediainfo.so.0:_ZN12MediaInfoLib30Mpeg7_AudioCodingFormatCS_NameEjRNS_18MediaInfo_InternalEm
libmediainfo.so.0:_ZN12MediaInfoLib30Mpeg7_AudioPresentationCS_NameEjRNS_18MediaInfo_InternalEm
libmediainfo.so.0:_ZN12MediaInfoLib30Mpeg_Descriptors_stream_FormatEhj
libmediainfo.so.0:_ZN12MediaInfoLib30Mpeg_Descriptors_teletext_typeEh
libmediainfo.so.0:_ZN12MediaInfoLib30Mpegv_transfer_characteristicsEh
libmediainfo.so.0:_ZN12MediaInfoLib31DolbyE_ChannelLayout_PerProgramEhh
libmediainfo.so.0:_ZN12MediaInfoLib31Mpeg_Descriptors_alignment_typeEh
libmediainfo.so.0:_ZN12MediaInfoLib31Mpeg_Descriptors_component_typeEhh
libmediainfo.so.0:_ZN12MediaInfoLib31Mpeg_Descriptors_stream_contentEh
libmediainfo.so.0:_ZN12MediaInfoLib31Mpeg_Psi_stream_type_StreamKindEjj
libmediainfo.so.0:_ZN12MediaInfoLib32File__ReferenceFilesHelper_Algo1EPKNS_8sequenceES2_
libmediainfo.so.0:_ZN12MediaInfoLib32File__ReferenceFilesHelper_Algo2EPKNS_8sequenceES2_
libmediainfo.so.0:_ZN12MediaInfoLib32File__ReferenceFilesHelper_Algo3EPKNS_8sequenceES2_
libmediainfo.so.0:_ZN12MediaInfoLib32Fims_AudioCompressionCodeCS_NameEjRNS_18MediaInfo_InternalEm
libmediainfo.so.0:_ZN12MediaInfoLib32MediaInfo_Config_DefaultLanguageERN6ZenLib11TranslationE
libmediainfo.so.0:_ZN12MediaInfoLib32Mpeg7_AudioCodingFormatCS_termIDERNS_18MediaInfo_InternalEm
libmediainfo.so.0:_ZN12MediaInfoLib32Mpeg7_AudioPresentationCS_termIDERNS_18MediaInfo_InternalEm
libmediainfo.so.0:_ZN12MediaInfoLib33AC3_TrueHD_Channels_ChannelLayoutB5cxx11Etb
libmediainfo.so.0:_ZN12MediaInfoLib33Mpeg7_VisualCodingFormatCS_termIDERNS_18MediaInfo_InternalEm
libmediainfo.so.0:_ZN12MediaInfoLib33Mpeg_Descriptors_dvb_service_typeEh
libmediainfo.so.0:_ZN12MediaInfoLib34Aac_ChannelConfiguration_GetStringB5cxx11Eh
libmediainfo.so.0:_ZN12MediaInfoLib34DolbyE_ChannelPositions_PerProgramEhh
libmediainfo.so.0:_ZN12MediaInfoLib34Dv_consumer_camera_1_white_balanceEh
libmediainfo.so.0:_ZN12MediaInfoLib34Fims_AudioCompressionCodeCS_termIDERNS_18MediaInfo_InternalEm
libmediainfo.so.0:_ZN12MediaInfoLib34Fims_VideoCompressionCodeCS_termIDERNS_18MediaInfo_InternalEm
libmediainfo.so.0:_ZN12MediaInfoLib34MediaInfo_Config_CodecID_Text_RiffERN6ZenLib7InfoMapE
libmediainfo.so.0:_ZN12MediaInfoLib34MediaInfo_Config_Library_VorbisComERN6ZenLib7InfoMapE
libmediainfo.so.0:_ZN12MediaInfoLib34Mpeg_Descriptors_component_type_O1Eh
libmediainfo.so.0:_ZN12MediaInfoLib34Mpeg_Descriptors_component_type_O2Eh
libmediainfo.so.0:_ZN12MediaInfoLib34Mpeg_Descriptors_component_type_O3Eh
libmediainfo.so.0:_ZN12MediaInfoLib34Mpeg_Descriptors_component_type_O4Eh
libmediainfo.so.0:_ZN12MediaInfoLib34Mpeg_Descriptors_component_type_O5Eh
libmediainfo.so.0:_ZN12MediaInfoLib34Mpeg_Descriptors_component_type_O6Eh
libmediainfo.so.0:_ZN12MediaInfoLib34Mpeg_Descriptors_component_type_O7Eh
libmediainfo.so.0:_ZN12MediaInfoLib34Mpegv_profile_and_level_indicationEh
libmediainfo.so.0:_ZN12MediaInfoLib34default_target_device_config_ValueB5cxx11Ej
libmediainfo.so.0:_ZN12MediaInfoLib35Aac_ChannelConfiguration2_GetStringB5cxx11Eh
libmediainfo.so.0:_ZN12MediaInfoLib35Aac_OutputChannelPosition_GetStringB5cxx11Eh
libmediainfo.so.0:_ZN12MediaInfoLib35DolbyE_ChannelPositions2_PerProgramEhh
libmediainfo.so.0:_ZN12MediaInfoLib35EbuCore_AudioCompressionCodeCS_NameEjRNS_18MediaInfo_InternalEm
libmediainfo.so.0:_ZN12MediaInfoLib35File_Mpeg4_PcmSampleSizeFromCodecIDEj
libmediainfo.so.0:_ZN12MediaInfoLib35MediaInfo_Config_CodecID_Audio_RealERN6ZenLib7InfoMapE
libmediainfo.so.0:_ZN12MediaInfoLib35MediaInfo_Config_CodecID_Audio_RiffERN6ZenLib7InfoMapE
libmediainfo.so.0:_ZN12MediaInfoLib35MediaInfo_Config_CodecID_Text_Mpeg4ERN6ZenLib7InfoMapE
libmediainfo.so.0:_ZN12MediaInfoLib35MediaInfo_Config_CodecID_Video_RealERN6ZenLib7InfoMapE
libmediainfo.so.0:_ZN12MediaInfoLib35MediaInfo_Config_CodecID_Video_RiffERN6ZenLib7InfoMapE
libmediainfo.so.0:_ZN12MediaInfoLib35Mpeg7_FileFormatCS_termID_MediaInfoERNS_18MediaInfo_InternalE
libmediainfo.so.0:_ZN12MediaInfoLib35Mpeg_Descriptors_teletext_type_moreEh
libmediainfo.so.0:_ZN12MediaInfoLib36BedChannelConfiguration_ChannelCountEj
libmediainfo.so.0:_ZN12MediaInfoLib36File__Analyze_Encoded_Library_StringERKN6ZenLib6ZtringES3_S3_S3_S3_
libmediainfo.so.0:_ZN12MediaInfoLib36MediaInfo_Config_CodecID_Audio_Mpeg4ERN6ZenLib7InfoMapE
libmediainfo.so.0:_ZN12MediaInfoLib36MediaInfo_Config_CodecID_Other_Mpeg4ERN6ZenLib7InfoMapE
libmediainfo.so.0:_ZN12MediaInfoLib36MediaInfo_Config_CodecID_Video_Mpeg4ERN6ZenLib7InfoMapE
libmediainfo.so.0:_ZN12MediaInfoLib36Mpeg_Descriptors_original_network_idEt
libmediainfo.so.0:_ZN12MediaInfoLib36Mpegv_matrix_coefficients_ColorSpaceEh
libmediainfo.so.0:_ZN12MediaInfoLib37EbuCore_AudioCompressionCodeCS_termIDERNS_18MediaInfo_InternalEm
libmediainfo.so.0:_ZN12MediaInfoLib37EbuCore_Transform_AcquisitionMetadataEPNS_4NodeERNS_18MediaInfo_InternalEmNS_14Export_EbuCore7versionENS4_25acquisitiondataoutputmodeE
libmediainfo.so.0:_ZN12MediaInfoLib37EbuCore_VideoCompressionCodeCS_termIDERNS_18MediaInfo_InternalEm
libmediainfo.so.0:_ZN12MediaInfoLib38MediaInfo_Config_CodecID_General_Mpeg4ERN6ZenLib7InfoMapE
libmediainfo.so.0:_ZN12MediaInfoLib38MediaInfo_Config_CodecID_Text_MatroskaERN6ZenLib7InfoMapE
libmediainfo.so.0:_ZN12MediaInfoLib38Reader_libcurl_FileNameWithoutPasswordERKN6ZenLib6ZtringE
libmediainfo.so.0:_ZN12MediaInfoLib39Add_TechnicalAttributeString_IfNotEmptyERNS_18MediaInfo_InternalENS_8stream_tEmPKcPNS_4NodeENSt7__cxx1112basic_stringIcSt11char_traitsIcESaIcEEENS_14Export_EbuCore7versionE
libmediainfo.so.0:_ZN12MediaInfoLib39Add_TechnicalAttributeString_IfNotEmptyERNS_18MediaInfo_InternalENS_8stream_tEmmPNS_4NodeENSt7__cxx1112basic_stringIcSt11char_traitsIcESaIcEEENS_14Export_EbuCore7versionE
libmediainfo.so.0:_ZN12MediaInfoLib39MediaInfo_Config_CodecID_Audio_MatroskaERN6ZenLib7InfoMapE
libmediainfo.so.0:_ZN12MediaInfoLib39MediaInfo_Config_CodecID_Video_MatroskaERN6ZenLib7InfoMapE
libmediainfo.so.0:_ZN12MediaInfoLib39Mpeg_Descriptors_content_nibble_level_1Eh
libmediainfo.so.0:_ZN12MediaInfoLib39Mpeg_Descriptors_content_nibble_level_2Ehh
libmediainfo.so.0:_ZN12MediaInfoLib3gcdExx
libmediainfo.so.0:_ZN12MediaInfoLib40AC3_bed_channel_assignment_mask_2_nonstdEt
libmediainfo.so.0:_ZN12MediaInfoLib40Add_TechnicalAttributeBoolean_IfNotEmptyERNS_18MediaInfo_InternalENS_8stream_tEmPKcPNS_4NodeENSt7__cxx1112basic_stringIcSt11char_traitsIcESaIcEEENS_14Export_EbuCore7versionE
libmediainfo.so.0:_ZN12MediaInfoLib40Add_TechnicalAttributeBoolean_IfNotEmptyERNS_18MediaInfo_InternalENS_8stream_tEmmPNS_4NodeENSt7__cxx1112basic_stringIcSt11char_traitsIcESaIcEEENS_14Export_EbuCore7versionE
libmediainfo.so.0:_ZN12MediaInfoLib40Add_TechnicalAttributeInteger_IfNotEmptyERNS_18MediaInfo_InternalENS_8stream_tEmPKcPNS_4NodeENSt7__cxx1112basic_stringIcSt11char_traitsIcESaIcEEENS_14Export_EbuCore7versionES4_
libmediainfo.so.0:_ZN12MediaInfoLib40Add_TechnicalAttributeInteger_IfNotEmptyERNS_18MediaInfo_InternalENS_8stream_tEmmPNS_4NodeENSt7__cxx1112basic_stringIcSt11char_traitsIcESaIcEEENS_14Export_EbuCore7versionEPKc
libmediainfo.so.0:_ZN12MediaInfoLib40DTS_HD_SpeakerActivityMask_ChannelLayoutB5cxx11Etbb
libmediainfo.so.0:_ZN12MediaInfoLib40ExtensibleWave_ChannelMask_ChannelLayoutB5cxx11Ej
libmediainfo.so.0:_ZN12MediaInfoLib40MediaInfo_Config_Library_MainConcept_AvcERN6ZenLib7InfoMapE
libmediainfo.so.0:_ZN12MediaInfoLib41EbuCore_Transform_AcquisitionMetadata_RunEPNS_4NodeERNS_4lineEdbb
libmediainfo.so.0:_ZN12MediaInfoLib41Mpeg_Descriptors_editorial_classificationEh
libmediainfo.so.0:_ZN12MediaInfoLib42EbuCore_Transform_AcquisitionMetadata_UnitEPNS_4NodeERKN6ZenLib6ZtringE
libmediainfo.so.0:_ZN12MediaInfoLib42EbuCore_Transform_AcquisitionMetadata_UnitEPNS_4NodeERKN6ZenLib6ZtringERKNS2_10ZtringListE
libmediainfo.so.0:_ZN12MediaInfoLib42EbuCore_Transform_AcquisitionMetadata_UnitEPNS_4NodeERKN6ZenLib6ZtringES5_
libmediainfo.so.0:_ZN12MediaInfoLib42MasteringDisplayColorVolume_Values_ComputeEPt
libmediainfo.so.0:_ZN12MediaInfoLib42Mpeg7_AudioCodingFormatCS_termID_MediaInfoERNS_18MediaInfo_InternalEm
libmediainfo.so.0:_ZN12MediaInfoLib42Mpeg_Descriptors_content_nibble_level_2_01Eh
libmediainfo.so.0:_ZN12MediaInfoLib42Mpeg_Descriptors_content_nibble_level_2_02Eh
libmediainfo.so.0:_ZN12MediaInfoLib42Mpeg_Descriptors_content_nibble_level_2_03Eh
libmediainfo.so.0:_ZN12MediaInfoLib42Mpeg_Descriptors_content_nibble_level_2_04Eh
libmediainfo.so.0:_ZN12MediaInfoLib42Mpeg_Descriptors_content_nibble_level_2_05Eh
libmediainfo.so.0:_ZN12MediaInfoLib42Mpeg_Descriptors_content_nibble_level_2_06Eh
libmediainfo.so.0:_ZN12MediaInfoLib42Mpeg_Descriptors_content_nibble_level_2_07Eh
libmediainfo.so.0:_ZN12MediaInfoLib42Mpeg_Descriptors_content_nibble_level_2_08Eh
libmediainfo.so.0:_ZN12MediaInfoLib42Mpeg_Descriptors_content_nibble_level_2_09Eh
libmediainfo.so.0:_ZN12MediaInfoLib42Mpeg_Descriptors_content_nibble_level_2_0AEh
libmediainfo.so.0:_ZN12MediaInfoLib42Mpeg_Descriptors_content_nibble_level_2_0BEh
libmediainfo.so.0:_ZN12MediaInfoLib43File__ReferenceFilesHelper_InfoFromFileNameERSt6vectorIPNS_8sequenceESaIS2_EE
libmediainfo.so.0:_ZN12MediaInfoLib43Mpeg7_VisualCodingFormatCS_termID_MediaInfoERNS_18MediaInfo_InternalEm
libmediainfo.so.0:_ZN12MediaInfoLib44EbuCore_Transform_AcquisitionMetadata_CommonEPNS_4NodeERNS_4lineERmmd
libmediainfo.so.0:_ZN12MediaInfoLib44libcurl_WriteData_CallBack_Amazon_AWS_RegionEPvmmS0_
libmediainfo.so.0:_ZN12MediaInfoLib47Mpeg_Descriptors_MPEG_4_audio_profile_and_levelEh
libmediainfo.so.0:_ZN12MediaInfoLib48Aac_AudioSpecificConfig_sampling_frequency_indexEx
libmediainfo.so.0:_ZN12MediaInfoLib51EbuCore_Transform_AcquisitionMetadata_Segment_BeginEPNS_4NodeERNS_4lineEmmRydb
libmediainfo.so.0:_ZN12MediaInfoLib52AC3_nonstd_bed_channel_assignment_mask_ChannelLayoutEj
libmediainfo.so.0:_ZN12MediaInfoLib53EbuCore_Transform_AcquisitionMetadata_Parameter_BeginEPNS_4NodeERNS_4lineE
libmediainfo.so.0:_ZN12MediaInfoLib54EbuCore_Transform_AcquisitionMetadata_parameterSegmentEPNS_4NodeERSt6vectorINS_4lineESaIS3_EERS2_ImSaImEEd
libmediainfo.so.0:_ZN12MediaInfoLib54EbuCore_Transform_AcquisitionMetadata_segmentParameterEPNS_4NodeERSt6vectorINS_4lineESaIS3_EERS2_ImSaImEES9_d
libmediainfo.so.0:_ZN12MediaInfoLib54Mpeg_Descriptors_registration_format_identifier_FormatEj
libmediainfo.so.0:_ZN12MediaInfoLib55EbuCore_Transform_AcquisitionMetadata_PerFrame_MultipleEPNS_4NodeERSt6vectorINS_4lineESaIS3_EES2_ImSaImEEdy
libmediainfo.so.0:_ZN12MediaInfoLib58Mpeg_Descriptors_registration_format_identifier_StreamKindEj
libmediainfo.so.0:_ZN12MediaInfoLib5Slice13contexts_initEjPjS1_
libmediainfo.so.0:_ZN12MediaInfoLib5Slice14contexts_cleanEv
libmediainfo.so.0:_ZN12MediaInfoLib5ValueB5cxx11EPKPKcm
libmediainfo.so.0:_ZN12MediaInfoLib5ValueB5cxx11EPKfmm
libmediainfo.so.0:_ZN12MediaInfoLib6To_XMLB5cxx11ERNS_4NodeERKibb
libmediainfo.so.0:_ZN12MediaInfoLib71EbuCore_Transform_AcquisitionMetadata_ParameterThenSegment_PerParameterEPNS_4NodeERNS_4lineERmmRyd
libmediainfo.so.0:_ZN12MediaInfoLib71EbuCore_Transform_AcquisitionMetadata_SegmentThenParameter_PerParameterEPNS_4NodeERNS_4lineERmmd
libmediainfo.so.0:_ZN12MediaInfoLib7File_7z16FileHeader_BeginEv
libmediainfo.so.0:_ZN12MediaInfoLib7File_7z20Read_Buffer_ContinueEv
libmediainfo.so.0:_ZN12MediaInfoLib7File_Au16FileHeader_BeginEv
libmediainfo.so.0:_ZN12MediaInfoLib7File_Au16FileHeader_ParseEv
libmediainfo.so.0:_ZN12MediaInfoLib7File_La14Streams_FinishEv
libmediainfo.so.0:_ZN12MediaInfoLib7File_La16FileHeader_BeginEv
libmediainfo.so.0:_ZN12MediaInfoLib7File_La16FileHeader_ParseEv
libmediainfo.so.0:_ZN12MediaInfoLib7File_LaC1Ev
libmediainfo.so.0:_ZN12MediaInfoLib7File_LaC2Ev
libmediainfo.so.0:_ZN12MediaInfoLib7File_Mk10Data_ParseEv
libmediainfo.so.0:_ZN12MediaInfoLib7File_Mk10Float_InfoEv
libmediainfo.so.0:_ZN12MediaInfoLib7File_Mk10String_GetEv
libmediainfo.so.0:_ZN12MediaInfoLib7File_Mk11CRC32_CheckEv
libmediainfo.so.0:_ZN12MediaInfoLib7File_Mk11String_InfoEv
libmediainfo.so.0:_ZN12MediaInfoLib7File_Mk11SynchronizeEv
libmediainfo.so.0:_ZN12MediaInfoLib7File_Mk12Audio_ManageEv
libmediainfo.so.0:_ZN12MediaInfoLib7File_Mk12Ebml_DocTypeEv
libmediainfo.so.0:_ZN12MediaInfoLib7File_Mk12Header_BeginEv
libmediainfo.so.0:_ZN12MediaInfoLib7File_Mk12Header_ParseEv
libmediainfo.so.0:_ZN12MediaInfoLib7File_Mk12Segment_CuesEv
libmediainfo.so.0:_ZN12MediaInfoLib7File_Mk12Segment_InfoEv
libmediainfo.so.0:_ZN12MediaInfoLib7File_Mk12Segment_TagsEv
libmediainfo.so.0:_ZN12MediaInfoLib7File_Mk12UInteger_GetEv
libmediainfo.so.0:_ZN12MediaInfoLib7File_Mk13UInteger_InfoEv
libmediainfo.so.0:_ZN12MediaInfoLib7File_Mk14CodecID_ManageEv
libmediainfo.so.0:_ZN12MediaInfoLib7File_Mk14RawcookedBlockEv
libmediainfo.so.0:_ZN12MediaInfoLib7File_Mk14RawcookedTrackEv
libmediainfo.so.0:_ZN12MediaInfoLib7File_Mk14Segment_TracksEv
libmediainfo.so.0:_ZN12MediaInfoLib7File_Mk14Streams_FinishEv
libmediainfo.so.0:_ZN12MediaInfoLib7File_Mk14UInteger16_GetEv
libmediainfo.so.0:_ZN12MediaInfoLib7File_Mk15Segment_ClusterEv
libmediainfo.so.0:_ZN12MediaInfoLib7File_Mk16Ebml_ReadVersionEv
libmediainfo.so.0:_ZN12MediaInfoLib7File_Mk16RawcookedSegmentEv
libmediainfo.so.0:_ZN12MediaInfoLib7File_Mk16Read_Buffer_SeekEmyy
libmediainfo.so.0:_ZN12MediaInfoLib7File_Mk16Segment_SeekHeadEv
libmediainfo.so.0:_ZN12MediaInfoLib7File_Mk16Segment_Tags_TagEv
libmediainfo.so.0:_ZN12MediaInfoLib7File_Mk18Ebml_MaxSizeLengthEv
libmediainfo.so.0:_ZN12MediaInfoLib7File_Mk18Rawcooked_FileNameEbb
libmediainfo.so.0:_ZN12MediaInfoLib7File_Mk18Rawcooked_FileNameEv
libmediainfo.so.0:_ZN12MediaInfoLib7File_Mk18Segment_Info_TitleEv
libmediainfo.so.0:_ZN12MediaInfoLib7File_Mk19CRC32_Check_In_NodeERKNSt7__cxx1112basic_stringIcSt11char_traitsIcESaIcEEES8_PNS_15element_details12Element_NodeE
libmediainfo.so.0:_ZN12MediaInfoLib7File_Mk19CodecPrivate_ManageEv
libmediainfo.so.0:_ZN12MediaInfoLib7File_Mk19Ebml_DocTypeVersionEv
libmediainfo.so.0:_ZN12MediaInfoLib7File_Mk19Rawcooked_AfterDataEbb
libmediainfo.so.0:_ZN12MediaInfoLib7File_Mk19Rawcooked_AfterDataEv
libmediainfo.so.0:_ZN12MediaInfoLib7File_Mk20Rawcooked_BeforeDataEbb
libmediainfo.so.0:_ZN12MediaInfoLib7File_Mk20Rawcooked_BeforeDataEv
libmediainfo.so.0:_ZN12MediaInfoLib7File_Mk20Read_Buffer_ContinueEv
libmediainfo.so.0:_ZN12MediaInfoLib7File_Mk20Segment_Info_DateUTCEv
libmediainfo.so.0:_ZN12MediaInfoLib7File_Mk21Read_Buffer_UnsynchedEv
libmediainfo.so.0:_ZN12MediaInfoLib7File_Mk21Segment_Cues_CuePointEv
libmediainfo.so.0:_ZN12MediaInfoLib7File_Mk21Segment_Info_DurationEv
libmediainfo.so.0:_ZN12MediaInfoLib7File_Mk21Segment_SeekHead_SeekEv
libmediainfo.so.0:_ZN12MediaInfoLib7File_Mk21TestMultipleInstancesEPm
libmediainfo.so.0:_ZN12MediaInfoLib7File_Mk22Segment_Info_MuxingAppEv
libmediainfo.so.0:_ZN12MediaInfoLib7File_Mk23Ebml_DocTypeReadVersionEv
libmediainfo.so.0:_ZN12MediaInfoLib7File_Mk23RawcookedBlock_FileHashEv
libmediainfo.so.0:_ZN12MediaInfoLib7File_Mk23Segment_Info_SegmentUIDEv
libmediainfo.so.0:_ZN12MediaInfoLib7File_Mk23Segment_Info_WritingAppEv
libmediainfo.so.0:_ZN12MediaInfoLib7File_Mk24Rawcooked_Compressed_EndEPNS0_14rawcookedtrack4maskEb
libmediainfo.so.0:_ZN12MediaInfoLib7File_Mk24Segment_Cluster_TimecodeEv
libmediainfo.so.0:_ZN12MediaInfoLib7File_Mk25Segment_Tracks_TrackEntryEv
libmediainfo.so.0:_ZN12MediaInfoLib7File_Mk26Rawcooked_Compressed_StartEPNS0_14rawcookedtrack4maskEb
libmediainfo.so.0:_ZN12MediaInfoLib7File_Mk26Segment_Cluster_BlockGroupEv
libmediainfo.so.0:_ZN12MediaInfoLib7File_Mk26Segment_Info_TimecodeScaleEv
libmediainfo.so.0:_ZN12MediaInfoLib7File_Mk27Segment_Cluster_SimpleBlockEv
libmediainfo.so.0:_ZN12MediaInfoLib7File_Mk28RawcookedSegment_LibraryNameEv
libmediainfo.so.0:_ZN12MediaInfoLib7File_Mk28Segment_SeekHead_Seek_SeekIDEv
libmediainfo.so.0:_ZN12MediaInfoLib7File_Mk29Segment_Chapters_EditionEntryEv
libmediainfo.so.0:_ZN12MediaInfoLib7File_Mk30Segment_Tracks_TrackEntry_NameEv
libmediainfo.so.0:_ZN12MediaInfoLib7File_Mk31RawcookedSegment_LibraryVersionEv
libmediainfo.so.0:_ZN12MediaInfoLib7File_Mk31Segment_Tracks_TrackEntry_AudioEv
libmediainfo.so.0:_ZN12MediaInfoLib7File_Mk31Segment_Tracks_TrackEntry_VideoEv
libmediainfo.so.0:_ZN12MediaInfoLib7File_Mk32Segment_Attachments_AttachedFileEv
libmediainfo.so.0:_ZN12MediaInfoLib7File_Mk32Segment_Cluster_BlockGroup_BlockEv
libmediainfo.so.0:_ZN12MediaInfoLib7File_Mk33Segment_Tracks_TrackEntry_CodecIDEv
libmediainfo.so.0:_ZN12MediaInfoLib7File_Mk34Segment_SeekHead_Seek_SeekPositionEv
libmediainfo.so.0:_ZN12MediaInfoLib7File_Mk34Segment_Tags_Tag_SimpleTag_TagNameEv
libmediainfo.so.0:_ZN12MediaInfoLib7File_Mk34Segment_Tracks_TrackEntry_LanguageEv
libmediainfo.so.0:_ZN12MediaInfoLib7File_Mk34Segment_Tracks_TrackEntry_TrackUIDEv
libmediainfo.so.0:_ZN12MediaInfoLib7File_Mk35Segment_Tracks_TrackEntry_TrackTypeEv
libmediainfo.so.0:_ZN12MediaInfoLib7File_Mk36Segment_Tags_Tag_SimpleTag_TagStringEv
libmediainfo.so.0:_ZN12MediaInfoLib7File_Mk36Segment_Tags_Tag_Targets_TagTrackUIDEv
libmediainfo.so.0:_ZN12MediaInfoLib7File_Mk36Segment_Tracks_TrackEntry_FlagForcedEv
libmediainfo.so.0:_ZN12MediaInfoLib7File_Mk37Segment_Cluster_BlockGroup_Block_LaceEv
libmediainfo.so.0:_ZN12MediaInfoLib7File_Mk37Segment_Tracks_TrackEntry_FlagDefaultEv
libmediainfo.so.0:_ZN12MediaInfoLib7File_Mk37Segment_Tracks_TrackEntry_TrackNumberEv
libmediainfo.so.0:_ZN12MediaInfoLib7File_Mk38Segment_Tags_Tag_SimpleTag_TagLanguageEv
libmediainfo.so.0:_ZN12MediaInfoLib7File_Mk38Segment_Tracks_TrackEntry_CodecPrivateEv
libmediainfo.so.0:_ZN12MediaInfoLib7File_Mk40Segment_Cluster_BlockGroup_BlockDurationEv
libmediainfo.so.0:_ZN12MediaInfoLib7File_Mk40Segment_Tracks_TrackEntry_Audio_BitDepthEv
libmediainfo.so.0:_ZN12MediaInfoLib7File_Mk40Segment_Tracks_TrackEntry_Audio_ChannelsEv
libmediainfo.so.0:_ZN12MediaInfoLib7File_Mk41Segment_Attachments_AttachedFile_FileDataEv
libmediainfo.so.0:_ZN12MediaInfoLib7File_Mk41Segment_Attachments_AttachedFile_FileNameEv
libmediainfo.so.0:_ZN12MediaInfoLib7File_Mk41Segment_Chapters_EditionEntry_ChapterAtomEv
libmediainfo.so.0:_ZN12MediaInfoLib7File_Mk41Segment_Tracks_TrackEntry_DefaultDurationEv
libmediainfo.so.0:_ZN12MediaInfoLib7File_Mk41Segment_Tracks_TrackEntry_Video_FrameRateEv
libmediainfo.so.0:_ZN12MediaInfoLib7File_Mk42Segment_Tracks_TrackEntry_Video_FieldOrderEv
libmediainfo.so.0:_ZN12MediaInfoLib7File_Mk42Segment_Tracks_TrackEntry_Video_PixelWidthEv
libmediainfo.so.0:_ZN12MediaInfoLib7File_Mk42Segment_Tracks_TrackEntry_Video_StereoModeEv
libmediainfo.so.0:_ZN12MediaInfoLib7File_Mk43Segment_Tracks_TrackEntry_CodecPrivate_audsEv
libmediainfo.so.0:_ZN12MediaInfoLib7File_Mk43Segment_Tracks_TrackEntry_CodecPrivate_vidsEv
libmediainfo.so.0:_ZN12MediaInfoLib7File_Mk43Segment_Tracks_TrackEntry_Video_PixelHeightEv
libmediainfo.so.0:_ZN12MediaInfoLib7File_Mk44Segment_Tracks_TrackEntry_Video_Colour_RangeEv
libmediainfo.so.0:_ZN12MediaInfoLib7File_Mk44Segment_Tracks_TrackEntry_Video_DisplayWidthEv
libmediainfo.so.0:_ZN12MediaInfoLib7File_Mk44Segment_Tracks_TrackEntry_Video_PixelCropTopEv
libmediainfo.so.0:_ZN12MediaInfoLib7File_Mk45Segment_Attachments_AttachedFile_FileMimeTypeEv
libmediainfo.so.0:_ZN12MediaInfoLib7File_Mk45Segment_Tracks_TrackEntry_CodecPrivate__ParseEv
libmediainfo.so.0:_ZN12MediaInfoLib7File_Mk45Segment_Tracks_TrackEntry_Video_Colour_MaxCLLEv
libmediainfo.so.0:_ZN12MediaInfoLib7File_Mk45Segment_Tracks_TrackEntry_Video_DisplayHeightEv
libmediainfo.so.0:_ZN12MediaInfoLib7File_Mk45Segment_Tracks_TrackEntry_Video_OldStereoModeEv
libmediainfo.so.0:_ZN12MediaInfoLib7File_Mk45Segment_Tracks_TrackEntry_Video_PixelCropLeftEv
libmediainfo.so.0:_ZN12MediaInfoLib7File_Mk46Segment_Tracks_TrackEntry_Video_Colour_MaxFALLEv
libmediainfo.so.0:_ZN12MediaInfoLib7File_Mk46Segment_Tracks_TrackEntry_Video_PixelCropRightEv
libmediainfo.so.0:_ZN12MediaInfoLib7File_Mk47Segment_Tracks_TrackEntry_Video_PixelCropBottomEv
libmediainfo.so.0:_ZN12MediaInfoLib7File_Mk48Segment_Attachments_AttachedFile_FileDescriptionEv
libmediainfo.so.0:_ZN12MediaInfoLib7File_Mk48Segment_Tracks_TrackEntry_Video_Colour_PrimariesEv
libmediainfo.so.0:_ZN12MediaInfoLib7File_Mk49Segment_Tracks_TrackEntry_Audio_SamplingFrequencyEv
libmediainfo.so.0:_ZN12MediaInfoLib7File_Mk4VoidEv
libmediainfo.so.0:_ZN12MediaInfoLib7File_Mk4ZeroEv
libmediainfo.so.0:_ZN12MediaInfoLib7File_Mk53Segment_Tracks_TrackEntry_Video_Colour_BitsPerChannelEv
libmediainfo.so.0:_ZN12MediaInfoLib7File_Mk55Segment_Tracks_TrackEntry_Audio_OutputSamplingFrequencyEv
libmediainfo.so.0:_ZN12MediaInfoLib7File_Mk56Segment_Chapters_EditionEntry_ChapterAtom_ChapterDisplayEv
libmediainfo.so.0:_ZN12MediaInfoLib7File_Mk57Segment_Tracks_TrackEntry_Video_Colour_MatrixCoefficientsEv
libmediainfo.so.0:_ZN12MediaInfoLib7File_Mk58Segment_Chapters_EditionEntry_ChapterAtom_ChapterTimeStartEv
libmediainfo.so.0:_ZN12MediaInfoLib7File_Mk58Segment_Tracks_TrackEntry_CodecPrivate_auds_ExtensibleWaveEt
libmediainfo.so.0:_ZN12MediaInfoLib7File_Mk5CRC32Ev
libmediainfo.so.0:_ZN12MediaInfoLib7File_Mk61Segment_Tracks_TrackEntry_BlockAdditionMapping_BlockAddIDTypeEv
libmediainfo.so.0:_ZN12MediaInfoLib7File_Mk62Segment_Tracks_TrackEntry_Video_Colour_TransferCharacteristicsEv
libmediainfo.so.0:_ZN12MediaInfoLib7File_Mk64Segment_Tracks_TrackEntry_Video_Colour_MasteringMetadata_PrimaryEh
libmediainfo.so.0:_ZN12MediaInfoLib7File_Mk66Segment_Tracks_TrackEntry_BlockAdditionMapping_BlockAddIDExtraDataEv
libmediainfo.so.0:_ZN12MediaInfoLib7File_Mk66Segment_Tracks_TrackEntry_Video_Colour_MasteringMetadata_LuminanceEh
libmediainfo.so.0:_ZN12MediaInfoLib7File_Mk67Segment_Chapters_EditionEntry_ChapterAtom_ChapterDisplay_ChapStringEv
libmediainfo.so.0:_ZN12MediaInfoLib7File_Mk69Segment_Chapters_EditionEntry_ChapterAtom_ChapterDisplay_ChapLanguageEv
libmediainfo.so.0:_ZN12MediaInfoLib7File_Mk6JumpToEy
libmediainfo.so.0:_ZN12MediaInfoLib7File_Mk77Segment_Tracks_TrackEntry_ContentEncodings_ContentEncoding_ContentCompressionEv
libmediainfo.so.0:_ZN12MediaInfoLib7File_Mk7SegmentEv
libmediainfo.so.0:_ZN12MediaInfoLib7File_Mk8UTF8_GetEv
libmediainfo.so.0:_ZN12MediaInfoLib7File_Mk93Segment_Tracks_TrackEntry_ContentEncodings_ContentEncoding_ContentCompression_ContentCompAlgoEv
libmediainfo.so.0:_ZN12MediaInfoLib7File_Mk97Segment_Tracks_TrackEntry_ContentEncodings_ContentEncoding_ContentCompression_ContentCompSettingsEv
libmediainfo.so.0:_ZN12MediaInfoLib7File_Mk9Float_GetEv
libmediainfo.so.0:_ZN12MediaInfoLib7File_Mk9UTF8_InfoEv
libmediainfo.so.0:_ZN12MediaInfoLib7File_MkC1Ev
libmediainfo.so.0:_ZN12MediaInfoLib7File_MkC2Ev
libmediainfo.so.0:_ZN12MediaInfoLib7File_MkD0Ev
libmediainfo.so.0:_ZN12MediaInfoLib7File_MkD1Ev
libmediainfo.so.0:_ZN12MediaInfoLib7File_MkD2Ev
libmediainfo.so.0:_ZN12MediaInfoLib7File_Mz16FileHeader_BeginEv
libmediainfo.so.0:_ZN12MediaInfoLib7File_Mz20Read_Buffer_ContinueEv
libmediainfo.so.0:_ZN12MediaInfoLib7File_Rm10Data_ParseEv
libmediainfo.so.0:_ZN12MediaInfoLib7File_Rm12Header_ParseEv
libmediainfo.so.0:_ZN12MediaInfoLib7File_Rm13MDPR_fileinfoEv
libmediainfo.so.0:_ZN12MediaInfoLib7File_Rm13RJMD_propertyENSt7__cxx1112basic_stringIcSt11char_traitsIcESaIcEEE
libmediainfo.so.0:_ZN12MediaInfoLib7File_Rm14MDPR_realaudioEv
libmediainfo.so.0:_ZN12MediaInfoLib7File_Rm14MDPR_realvideoEv
libmediainfo.so.0:_ZN12MediaInfoLib7File_Rm16FileHeader_BeginEv
libmediainfo.so.0:_ZN12MediaInfoLib7File_Rm3RMFEv
libmediainfo.so.0:_ZN12MediaInfoLib7File_Rm3TAGEv
libmediainfo.so.0:_ZN12MediaInfoLib7File_Rm4CONTEv
libmediainfo.so.0:_ZN12MediaInfoLib7File_Rm4DATAEv
libmediainfo.so.0:_ZN12MediaInfoLib7File_Rm4INDXEv
libmediainfo.so.0:_ZN12MediaInfoLib7File_Rm4MDPREv
libmediainfo.so.0:_ZN12MediaInfoLib7File_Rm4PROPEv
libmediainfo.so.0:_ZN12MediaInfoLib7File_Rm4RJMDEv
libmediainfo.so.0:_ZN12MediaInfoLib7File_Rm4RMJEEv
libmediainfo.so.0:_ZN12MediaInfoLib7File_Rm4RMMDEv
libmediainfo.so.0:_ZN12MediaInfoLib7File_RmC1Ev
libmediainfo.so.0:_ZN12MediaInfoLib7File_RmC2Ev
libmediainfo.so.0:_ZN12MediaInfoLib7File_Wm10Data_ParseEv
libmediainfo.so.0:_ZN12MediaInfoLib7File_Wm10MediaIndexEv
libmediainfo.so.0:_ZN12MediaInfoLib7File_Wm11Data_PacketEv
libmediainfo.so.0:_ZN12MediaInfoLib7File_Wm11SimpleIndexEv
libmediainfo.so.0:_ZN12MediaInfoLib7File_Wm12Header_ParseEv
libmediainfo.so.0:_ZN12MediaInfoLib7File_Wm13Header_MarkerEv
libmediainfo.so.0:_ZN12MediaInfoLib7File_Wm13TimecodeIndexEv
libmediainfo.so.0:_ZN12MediaInfoLib7File_Wm14Header_PaddingEv
libmediainfo.so.0:_ZN12MediaInfoLib7File_Wm14Streams_FinishEv
libmediainfo.so.0:_ZN12MediaInfoLib7File_Wm16Header_CodecListEv
libmediainfo.so.0:_ZN12MediaInfoLib7File_Wm20Header_ScriptCommandEv
libmediainfo.so.0:_ZN12MediaInfoLib7File_Wm20Header_StreamBitRateEv
libmediainfo.so.0:_ZN12MediaInfoLib7File_Wm21Header_FilePropertiesEv
libmediainfo.so.0:_ZN12MediaInfoLib7File_Wm22Header_ContentBrandingEv
libmediainfo.so.0:_ZN12MediaInfoLib7File_Wm22Header_ErrorCorrectionEv
libmediainfo.so.0:_ZN12MediaInfoLib7File_Wm22Header_HeaderExtensionEv
libmediainfo.so.0:_ZN12MediaInfoLib7File_Wm23Header_DigitalSignatureEv
libmediainfo.so.0:_ZN12MediaInfoLib7File_Wm23Header_StreamPropertiesEv
libmediainfo.so.0:_ZN12MediaInfoLib7File_Wm24Header_ContentEncryptionEv
libmediainfo.so.0:_ZN12MediaInfoLib7File_Wm25Header_ContentDescriptionEv
libmediainfo.so.0:_ZN12MediaInfoLib7File_Wm26Data_Packet_ReplicatedDataEj
libmediainfo.so.0:_ZN12MediaInfoLib7File_Wm28Header_StreamProperties_JFIFEv
libmediainfo.so.0:_ZN12MediaInfoLib7File_Wm29Header_BitRateMutualExclusionEv
libmediainfo.so.0:_ZN12MediaInfoLib7File_Wm29Header_StreamProperties_AudioEv
libmediainfo.so.0:_ZN12MediaInfoLib7File_Wm29Header_StreamProperties_VideoEv
libmediainfo.so.0:_ZN12MediaInfoLib7File_Wm30Header_StreamProperties_BinaryEv
libmediainfo.so.0:_ZN12MediaInfoLib7File_Wm31Header_HeaderExtension_MetadataEv
libmediainfo.so.0:_ZN12MediaInfoLib7File_Wm32Header_ExtendedContentEncryptionEv
libmediainfo.so.0:_ZN12MediaInfoLib7File_Wm33Header_ExtendedContentDescriptionEv
libmediainfo.so.0:_ZN12MediaInfoLib7File_Wm33Header_StreamProperties_Audio_AMREv
libmediainfo.so.0:_ZN12MediaInfoLib7File_Wm33Header_StreamProperties_Audio_WMAEv
libmediainfo.so.0:_ZN12MediaInfoLib7File_Wm35Header_HeaderExtension_LanguageListEv
libmediainfo.so.0:_ZN12MediaInfoLib7File_Wm36Data_Packet_ReplicatedData_TimeStampEv
libmediainfo.so.0:_ZN12MediaInfoLib7File_Wm36Header_HeaderExtension_CompatibilityEv
libmediainfo.so.0:_ZN12MediaInfoLib7File_Wm38Header_HeaderExtension_IndexParametersEv
libmediainfo.so.0:_ZN12MediaInfoLib7File_Wm38Header_HeaderExtension_MetadataLibraryEv
libmediainfo.so.0:_ZN12MediaInfoLib7File_Wm38Header_StreamProperties_DegradableJPEGEv
libmediainfo.so.0:_ZN12MediaInfoLib7File_Wm39Header_HeaderExtension_BandwidthSharingEv
libmediainfo.so.0:_ZN12MediaInfoLib7File_Wm39Header_HeaderExtension_IndexPlaceholderEv
libmediainfo.so.0:_ZN12MediaInfoLib7File_Wm43Header_HeaderExtension_GroupMutualExclusionEv
libmediainfo.so.0:_ZN12MediaInfoLib7File_Wm43Header_HeaderExtension_MediaIndexParametersEv
libmediainfo.so.0:_ZN12MediaInfoLib7File_Wm43Header_HeaderExtension_StreamPrioritizationEv
libmediainfo.so.0:_ZN12MediaInfoLib7File_Wm46Header_HeaderExtension_AdvancedMutualExclusionEv
libmediainfo.so.0:_ZN12MediaInfoLib7File_Wm46Header_HeaderExtension_TimecodeIndexParametersEv
libmediainfo.so.0:_ZN12MediaInfoLib7File_Wm47Header_HeaderExtension_ExtendedStreamPropertiesEv
libmediainfo.so.0:_ZN12MediaInfoLib7File_Wm48Header_HeaderExtension_AdvancedContentEncryptionEv
libmediainfo.so.0:_ZN12MediaInfoLib7File_Wm4DataEv
libmediainfo.so.0:_ZN12MediaInfoLib7File_Wm53Header_ExtendedContentDescription_ASFLeakyBucketPairsEt
libmediainfo.so.0:_ZN12MediaInfoLib7File_Wm5IndexEv
libmediainfo.so.0:_ZN12MediaInfoLib7File_Wm6HeaderEv
libmediainfo.so.0:_ZN12MediaInfoLib7File_WmC1Ev
libmediainfo.so.0:_ZN12MediaInfoLib7File_WmC2Ev
libmediainfo.so.0:_ZN12MediaInfoLib7ICC_TagB5cxx11Ej
libmediainfo.so.0:_ZN12MediaInfoLib7To_JSONB5cxx11ERNS_4NodeERKibb
libmediainfo.so.0:_ZN12MediaInfoLib8Date_MJDEt
libmediainfo.so.0:_ZN12MediaInfoLib8Elf_typeEt
libmediainfo.so.0:_ZN12MediaInfoLib8File_Aac10CelpHeaderEv
libmediainfo.so.0:_ZN12MediaInfoLib8File_Aac10Data_ParseEv
libmediainfo.so.0:_ZN12MediaInfoLib8File_Aac10HILNconfigEv
libmediainfo.so.0:_ZN12MediaInfoLib8File_Aac10HVXCconfigEv
libmediainfo.so.0:_ZN12MediaInfoLib8File_Aac10PARAconfigEv
libmediainfo.so.0:_ZN12MediaInfoLib8File_Aac10PayloadMuxEv
libmediainfo.so.0:_ZN12MediaInfoLib8File_Aac10adts_frameEv
libmediainfo.so.0:_ZN12MediaInfoLib8File_Aac10hcod_2stepEhPah
libmediainfo.so.0:_ZN12MediaInfoLib8File_Aac10pulse_dataEv
libmediainfo.so.0:_ZN12MediaInfoLib8File_Aac10sbr_headerEv
libmediainfo.so.0:_ZN12MediaInfoLib8File_Aac11SynchronizeEv
libmediainfo.so.0:_ZN12MediaInfoLib8File_Aac11adif_headerEv
libmediainfo.so.0:_ZN12MediaInfoLib8File_Aac11hcod_binaryEhPah
libmediainfo.so.0:_ZN12MediaInfoLib8File_Aac12ErHVXCconfigEv
libmediainfo.so.0:_ZN12MediaInfoLib8File_Aac12Header_BeginEv
libmediainfo.so.0:_ZN12MediaInfoLib8File_Aac12Header_ParseEv
libmediainfo.so.0:_ZN12MediaInfoLib8File_Aac12LatmGetValueEv
libmediainfo.so.0:_ZN12MediaInfoLib8File_Aac12Streams_FillEv
libmediainfo.so.0:_ZN12MediaInfoLib8File_Aac12Synched_TestEv
libmediainfo.so.0:_ZN12MediaInfoLib8File_Aac12fill_elementEh
libmediainfo.so.0:_ZN12MediaInfoLib8File_Aac12is_intensityEmm
libmediainfo.so.0:_ZN12MediaInfoLib8File_Aac12sbr_envelopeEbb
libmediainfo.so.0:_ZN12MediaInfoLib8File_Aac12sbr_huff_decERKPA2_KaPKc
libmediainfo.so.0:_ZN12MediaInfoLib8File_Aac12section_dataEv
libmediainfo.so.0:_ZN12MediaInfoLib8File_Aac13ld_sbr_headerEv
libmediainfo.so.0:_ZN12MediaInfoLib8File_Aac13spectral_dataEv
libmediainfo.so.0:_ZN12MediaInfoLib8File_Aac14HILNenexConfigEv
libmediainfo.so.0:_ZN12MediaInfoLib8File_Aac14Streams_AcceptEv
libmediainfo.so.0:_ZN12MediaInfoLib8File_Aac14Streams_FinishEv
libmediainfo.so.0:_ZN12MediaInfoLib8File_Aac14Streams_UpdateEv
libmediainfo.so.0:_ZN12MediaInfoLib8File_Aac14raw_data_blockEv
libmediainfo.so.0:_ZN12MediaInfoLib8File_Aac15AudioMuxElementEv
libmediainfo.so.0:_ZN12MediaInfoLib8File_Aac15Data_Parse_ADTSEv
libmediainfo.so.0:_ZN12MediaInfoLib8File_Aac15Data_Parse_LATMEv
libmediainfo.so.0:_ZN12MediaInfoLib8File_Aac15StreamMuxConfigEv
libmediainfo.so.0:_ZN12MediaInfoLib8File_Aac16ER_SC_CelpHeaderEv
libmediainfo.so.0:_ZN12MediaInfoLib8File_Aac16FileHeader_BeginEv
libmediainfo.so.0:_ZN12MediaInfoLib8File_Aac16FileHeader_ParseEv
libmediainfo.so.0:_ZN12MediaInfoLib8File_Aac16FillInfosHEAACv2ERKN6ZenLib6ZtringE
libmediainfo.so.0:_ZN12MediaInfoLib8File_Aac16GASpecificConfigEv
libmediainfo.so.0:_ZN12MediaInfoLib8File_Aac16Synchronize_ADTSEv
libmediainfo.so.0:_ZN12MediaInfoLib8File_Aac16Synchronize_LATMEv
libmediainfo.so.0:_ZN12MediaInfoLib8File_Aac17ALSSpecificConfigEv
libmediainfo.so.0:_ZN12MediaInfoLib8File_Aac17DSTSpecificConfigEv
libmediainfo.so.0:_ZN12MediaInfoLib8File_Aac17ELDSpecificConfigEv
libmediainfo.so.0:_ZN12MediaInfoLib8File_Aac17Header_Begin_ADTSEv
libmediainfo.so.0:_ZN12MediaInfoLib8File_Aac17Header_Begin_LATMEv
libmediainfo.so.0:_ZN12MediaInfoLib8File_Aac17Header_Parse_ADTSEv
libmediainfo.so.0:_ZN12MediaInfoLib8File_Aac17Header_Parse_LATMEv
libmediainfo.so.0:_ZN12MediaInfoLib8File_Aac17PayloadLengthInfoEv
libmediainfo.so.0:_ZN12MediaInfoLib8File_Aac17SLSSpecificConfigEv
libmediainfo.so.0:_ZN12MediaInfoLib8File_Aac17SSCSpecificConfigEv
libmediainfo.so.0:_ZN12MediaInfoLib8File_Aac17Synched_Test_ADTSEv
libmediainfo.so.0:_ZN12MediaInfoLib8File_Aac17Synched_Test_LATMEv
libmediainfo.so.0:_ZN12MediaInfoLib8File_Aac17TTSSpecificConfigEv
libmediainfo.so.0:_ZN12MediaInfoLib8File_Aac17adts_fixed_headerEv
libmediainfo.so.0:_ZN12MediaInfoLib8File_Aac17extension_payloadEmh
libmediainfo.so.0:_ZN12MediaInfoLib8File_Aac17gain_control_dataEv
libmediainfo.so.0:_ZN12MediaInfoLib8File_Aac17scale_factor_dataEv
libmediainfo.so.0:_ZN12MediaInfoLib8File_Aac18CelpSpecificConfigEv
libmediainfo.so.0:_ZN12MediaInfoLib8File_Aac18GetAudioObjectTypeERhPKc
libmediainfo.so.0:_ZN12MediaInfoLib8File_Aac18HvxcSpecificConfigEv
libmediainfo.so.0:_ZN12MediaInfoLib8File_Aac18dynamic_range_infoEv
libmediainfo.so.0:_ZN12MediaInfoLib8File_Aac18sac_extension_dataEm
libmediainfo.so.0:_ZN12MediaInfoLib8File_Aac18sbr_extension_dataEmhb
libmediainfo.so.0:_ZN12MediaInfoLib8File_Aac19AudioSpecificConfigEm
libmediainfo.so.0:_ZN12MediaInfoLib8File_Aac19data_stream_elementEv
libmediainfo.so.0:_ZN12MediaInfoLib8File_Aac19lfe_channel_elementEv
libmediainfo.so.0:_ZN12MediaInfoLib8File_Aac20Read_Buffer_ContinueEv
libmediainfo.so.0:_ZN12MediaInfoLib8File_Aac20adts_variable_headerEv
libmediainfo.so.0:_ZN12MediaInfoLib8File_Aac20channel_pair_elementEv
libmediainfo.so.0:_ZN12MediaInfoLib8File_Aac21FileHeader_Parse_ADIFEv
libmediainfo.so.0:_ZN12MediaInfoLib8File_Aac21sbr_sinusoidal_codingEb
libmediainfo.so.0:_ZN12MediaInfoLib8File_Aac22program_config_elementEv
libmediainfo.so.0:_ZN12MediaInfoLib8File_Aac22single_channel_elementEv
libmediainfo.so.0:_ZN12MediaInfoLib8File_Aac23MPEG_1_2_SpecificConfigEv
libmediainfo.so.0:_ZN12MediaInfoLib8File_Aac24ParametricSpecificConfigEv
libmediainfo.so.0:_ZN12MediaInfoLib8File_Aac24coupling_channel_elementEv
libmediainfo.so.0:_ZN12MediaInfoLib8File_Aac24sbr_channel_pair_elementEv
libmediainfo.so.0:_ZN12MediaInfoLib8File_Aac25individual_channel_streamEbb
libmediainfo.so.0:_ZN12MediaInfoLib8File_Aac26sbr_single_channel_elementEv
libmediainfo.so.0:_ZN12MediaInfoLib8File_Aac29AudioSpecificConfig_OutOfBandExhbbbb
libmediainfo.so.0:_ZN12MediaInfoLib8File_Aac29ErrorProtectionSpecificConfigEv
libmediainfo.so.0:_ZN12MediaInfoLib8File_Aac31Demux_UnpacketizeContainer_TestEv
libmediainfo.so.0:_ZN12MediaInfoLib8File_Aac32ErrorResilientCelpSpecificConfigEv
libmediainfo.so.0:_ZN12MediaInfoLib8File_Aac32ErrorResilientHvxcSpecificConfigEv
libmediainfo.so.0:_ZN12MediaInfoLib8File_Aac35Read_Buffer_Continue_raw_data_blockEv
libmediainfo.so.0:_ZN12MediaInfoLib8File_Aac36Demux_UnpacketizeContainer_Test_ADTSEv
libmediainfo.so.0:_ZN12MediaInfoLib8File_Aac36Demux_UnpacketizeContainer_Test_LATMEv
libmediainfo.so.0:_ZN12MediaInfoLib8File_Aac40Read_Buffer_Continue_AudioSpecificConfigEv
libmediainfo.so.0:_ZN12MediaInfoLib8File_Aac4hcodEhPKc
libmediainfo.so.0:_ZN12MediaInfoLib8File_Aac7hcod_sfEPKc
libmediainfo.so.0:_ZN12MediaInfoLib8File_Aac7ps_dataEm
libmediainfo.so.0:_ZN12MediaInfoLib8File_Aac8ics_infoEv
libmediainfo.so.0:_ZN12MediaInfoLib8File_Aac8is_noiseEmm
libmediainfo.so.0:_ZN12MediaInfoLib8File_Aac8ltp_dataEv
libmediainfo.so.0:_ZN12MediaInfoLib8File_Aac8sbr_dataEh
libmediainfo.so.0:_ZN12MediaInfoLib8File_Aac8sbr_dtdfEb
libmediainfo.so.0:_ZN12MediaInfoLib8File_Aac8sbr_gridEb
libmediainfo.so.0:_ZN12MediaInfoLib8File_Aac8sbr_invfEb
libmediainfo.so.0:_ZN12MediaInfoLib8File_Aac8tns_dataEv
libmediainfo.so.0:_ZN12MediaInfoLib8File_Aac9sbr_noiseEbb
libmediainfo.so.0:_ZN12MediaInfoLib8File_AacC1Ev
libmediainfo.so.0:_ZN12MediaInfoLib8File_AacC2Ev
libmediainfo.so.0:_ZN12MediaInfoLib8File_AacD0Ev
libmediainfo.so.0:_ZN12MediaInfoLib8File_AacD1Ev
libmediainfo.so.0:_ZN12MediaInfoLib8File_AacD2Ev
libmediainfo.so.0:_ZN12MediaInfoLib8File_Aaf10Data_ParseEv
libmediainfo.so.0:_ZN12MediaInfoLib8File_Aaf10IsConcreteEv
libmediainfo.so.0:_ZN12MediaInfoLib8File_Aaf10IsOptionalEv
libmediainfo.so.0:_ZN12MediaInfoLib8File_Aaf10PropertiesEv
libmediainfo.so.0:_ZN12MediaInfoLib8File_Aaf11ParentClassEv
libmediainfo.so.0:_ZN12MediaInfoLib8File_Aaf12Header_ParseEv
libmediainfo.so.0:_ZN12MediaInfoLib8File_Aaf13StreamElementEv
libmediainfo.so.0:_ZN12MediaInfoLib8File_Aaf14IdentificationEv
libmediainfo.so.0:_ZN12MediaInfoLib8File_Aaf14MetaDefinitionEv
libmediainfo.so.0:_ZN12MediaInfoLib8File_Aaf14MetaDictionaryEv
libmediainfo.so.0:_ZN12MediaInfoLib8File_Aaf14NetworkLocatorEv
libmediainfo.so.0:_ZN12MediaInfoLib8File_Aaf15Directory_EntryEv
libmediainfo.so.0:_ZN12MediaInfoLib8File_Aaf15TypeDefinitionsEv
libmediainfo.so.0:_ZN12MediaInfoLib8File_Aaf16ClassDefinitionsEv
libmediainfo.so.0:_ZN12MediaInfoLib8File_Aaf16FileHeader_BeginEv
libmediainfo.so.0:_ZN12MediaInfoLib8File_Aaf18IsUniqueIdentifierEv
libmediainfo.so.0:_ZN12MediaInfoLib8File_Aaf19LocalIdentificationEv
libmediainfo.so.0:_ZN12MediaInfoLib8File_Aaf19StreamElement_ParseEv
libmediainfo.so.0:_ZN12MediaInfoLib8File_Aaf20Read_Buffer_ContinueEv
libmediainfo.so.0:_ZN12MediaInfoLib8File_Aaf3FatEv
libmediainfo.so.0:_ZN12MediaInfoLib8File_Aaf4NameEv
libmediainfo.so.0:_ZN12MediaInfoLib8File_Aaf4SizeEv
libmediainfo.so.0:_ZN12MediaInfoLib8File_Aaf4TypeEv
libmediainfo.so.0:_ZN12MediaInfoLib8File_Aaf6HeaderEv
libmediainfo.so.0:_ZN12MediaInfoLib8File_Aaf6LockedEv
libmediainfo.so.0:_ZN12MediaInfoLib8File_Aaf7MiniFatEv
libmediainfo.so.0:_ZN12MediaInfoLib8File_Aaf9DirectoryEv
libmediainfo.so.0:_ZN12MediaInfoLib8File_AafC1Ev
libmediainfo.so.0:_ZN12MediaInfoLib8File_AafC2Ev
libmediainfo.so.0:_ZN12MediaInfoLib8File_AafD0Ev
libmediainfo.so.0:_ZN12MediaInfoLib8File_AafD1Ev
libmediainfo.so.0:_ZN12MediaInfoLib8File_AafD2Ev
libmediainfo.so.0:_ZN12MediaInfoLib8File_Ac310Core_FrameEv
libmediainfo.so.0:_ZN12MediaInfoLib8File_Ac310Data_ParseEv
libmediainfo.so.0:_ZN12MediaInfoLib8File_Ac310joc_headerEv
libmediainfo.so.0:_ZN12MediaInfoLib8File_Ac311CRC_ComputeEm
libmediainfo.so.0:_ZN12MediaInfoLib8File_Ac311HD_Size_GetEv
libmediainfo.so.0:_ZN12MediaInfoLib8File_Ac311SynchronizeEv
libmediainfo.so.0:_ZN12MediaInfoLib8File_Ac312Header_ParseEv
libmediainfo.so.0:_ZN12MediaInfoLib8File_Ac312Streams_FillEv
libmediainfo.so.0:_ZN12MediaInfoLib8File_Ac312Synched_InitEv
libmediainfo.so.0:_ZN12MediaInfoLib8File_Ac312Synched_TestEv
libmediainfo.so.0:_ZN12MediaInfoLib8File_Ac312joc_ext_dataEv
libmediainfo.so.0:_ZN12MediaInfoLib8File_Ac313Core_Size_GetEv
libmediainfo.so.0:_ZN12MediaInfoLib8File_Ac314HD_format_infoEv
libmediainfo.so.0:_ZN12MediaInfoLib8File_Ac314Streams_FinishEv
libmediainfo.so.0:_ZN12MediaInfoLib8File_Ac314emdf_containerEv
libmediainfo.so.0:_ZN12MediaInfoLib8File_Ac315emdf_protectionEv
libmediainfo.so.0:_ZN12MediaInfoLib8File_Ac316FileHeader_BeginEv
libmediainfo.so.0:_ZN12MediaInfoLib8File_Ac316Read_Buffer_SeekEmyy
libmediainfo.so.0:_ZN12MediaInfoLib8File_Ac318program_assignmentEv
libmediainfo.so.0:_ZN12MediaInfoLib8File_Ac319emdf_payload_configEv
libmediainfo.so.0:_ZN12MediaInfoLib8File_Ac319joc_data_point_infoEv
libmediainfo.so.0:_ZN12MediaInfoLib8File_Ac320FrameSynchPoint_TestEv
libmediainfo.so.0:_ZN12MediaInfoLib8File_Ac320Read_Buffer_ContinueEv
libmediainfo.so.0:_ZN12MediaInfoLib8File_Ac321Read_Buffer_OutOfBandEv
libmediainfo.so.0:_ZN12MediaInfoLib8File_Ac321Read_Buffer_UnsynchedEv
libmediainfo.so.0:_ZN12MediaInfoLib8File_Ac329object_audio_metadata_payloadEv
libmediainfo.so.0:_ZN12MediaInfoLib8File_Ac32HDEv
libmediainfo.so.0:_ZN12MediaInfoLib8File_Ac331Demux_UnpacketizeContainer_TestEv
libmediainfo.so.0:_ZN12MediaInfoLib8File_Ac33jocEv
libmediainfo.so.0:_ZN12MediaInfoLib8File_Ac34CoreEv
libmediainfo.so.0:_ZN12MediaInfoLib8File_Ac34dac3Ev
libmediainfo.so.0:_ZN12MediaInfoLib8File_Ac34dec3Ev
libmediainfo.so.0:_ZN12MediaInfoLib8File_Ac34dmlpEv
libmediainfo.so.0:_ZN12MediaInfoLib8File_Ac34emdfEv
libmediainfo.so.0:_ZN12MediaInfoLib8File_Ac36Get_V4EhRjPKc
libmediainfo.so.0:_ZN12MediaInfoLib8File_Ac37Skip_V4EhPKc
libmediainfo.so.0:_ZN12MediaInfoLib8File_Ac38joc_dataEv
libmediainfo.so.0:_ZN12MediaInfoLib8File_Ac38joc_infoEv
libmediainfo.so.0:_ZN12MediaInfoLib8File_Ac39TimeStampEv
libmediainfo.so.0:_ZN12MediaInfoLib8File_Ac39emdf_syncEv
libmediainfo.so.0:_ZN12MediaInfoLib8File_Ac3C1Ev
libmediainfo.so.0:_ZN12MediaInfoLib8File_Ac3C2Ev
libmediainfo.so.0:_ZN12MediaInfoLib8File_Ac3D0Ev
libmediainfo.so.0:_ZN12MediaInfoLib8File_Ac3D1Ev
libmediainfo.so.0:_ZN12MediaInfoLib8File_Ac3D2Ev
libmediainfo.so.0:_ZN12MediaInfoLib8File_Ac410Data_ParseEv
libmediainfo.so.0:_ZN12MediaInfoLib8File_Ac410drc_configERNS0_8drc_infoE
libmediainfo.so.0:_ZN12MediaInfoLib8File_Ac411CRC_ComputeEm
libmediainfo.so.0:_ZN12MediaInfoLib8File_Ac411SynchronizeEv
libmediainfo.so.0:_ZN12MediaInfoLib8File_Ac412Header_ParseEv
libmediainfo.so.0:_ZN12MediaInfoLib8File_Ac412Streams_FillEv
libmediainfo.so.0:_ZN12MediaInfoLib8File_Ac412Synched_InitEv
libmediainfo.so.0:_ZN12MediaInfoLib8File_Ac412Synched_TestEv
libmediainfo.so.0:_ZN12MediaInfoLib8File_Ac412content_typeERNS0_12content_infoE
libmediainfo.so.0:_ZN12MediaInfoLib8File_Ac413ac4_substreamEm
libmediainfo.so.0:_ZN12MediaInfoLib8File_Ac413raw_ac4_frameEv
libmediainfo.so.0:_ZN12MediaInfoLib8File_Ac413tool_b4_to_b2Ev
libmediainfo.so.0:_ZN12MediaInfoLib8File_Ac413tool_t4_to_t2Ev
libmediainfo.so.0:_ZN12MediaInfoLib8File_Ac414Huffman_DecodeERKPA2_KaPKc
libmediainfo.so.0:_ZN12MediaInfoLib8File_Ac414Streams_FinishEv
libmediainfo.so.0:_ZN12MediaInfoLib8File_Ac414basic_metadataERNS0_13loudness_infoERNS0_13preprocessingEhb
libmediainfo.so.0:_ZN12MediaInfoLib8File_Ac414tool_t2_to_f_sEv
libmediainfo.so.0:_ZN12MediaInfoLib8File_Ac414tool_t4_to_f_sEv
libmediainfo.so.0:_ZN12MediaInfoLib8File_Ac415ac4_bitrate_dsiEv
libmediainfo.so.0:_ZN12MediaInfoLib8File_Ac415ac4_toc_ComputeERSt6vectorINS0_12presentationESaIS2_EERS1_INS0_5groupESaIS6_EEb
libmediainfo.so.0:_ZN12MediaInfoLib8File_Ac415cdmx_parametersEhh
libmediainfo.so.0:_ZN12MediaInfoLib8File_Ac415custom_dmx_dataERNS0_3dmxEhhbhb
libmediainfo.so.0:_ZN12MediaInfoLib8File_Ac415emdf_protectionEv
libmediainfo.so.0:_ZN12MediaInfoLib8File_Ac415tool_scr_to_c_lEv
libmediainfo.so.0:_ZN12MediaInfoLib8File_Ac416alternative_infoEv
libmediainfo.so.0:_ZN12MediaInfoLib8File_Ac416oamd_common_dataEv
libmediainfo.so.0:_ZN12MediaInfoLib8File_Ac416tool_t2_to_f_s_bEv
libmediainfo.so.0:_ZN12MediaInfoLib8File_Ac416tool_t4_to_f_s_bEv
libmediainfo.so.0:_ZN12MediaInfoLib8File_Ac417ac4_sgi_specifierERNS0_12presentationE
libmediainfo.so.0:_ZN12MediaInfoLib8File_Ac417extended_metadataERNS0_15audio_substreamEbhb
libmediainfo.so.0:_ZN12MediaInfoLib8File_Ac418ac4_substream_infoERNS0_12presentationE
libmediainfo.so.0:_ZN12MediaInfoLib8File_Ac418dialog_enhancementERNS0_7de_infoEhb
libmediainfo.so.0:_ZN12MediaInfoLib8File_Ac419oamd_substream_infoERNS0_15group_substreamEb
libmediainfo.so.0:_ZN12MediaInfoLib8File_Ac420Read_Buffer_ContinueEv
libmediainfo.so.0:_ZN12MediaInfoLib8File_Ac421Read_Buffer_UnsynchedEv
libmediainfo.so.0:_ZN12MediaInfoLib8File_Ac421ac4_presentation_infoERNS0_12presentationE
libmediainfo.so.0:_ZN12MediaInfoLib8File_Ac421drc_compression_curveERNS0_24drc_decoder_config_curveE
libmediainfo.so.0:_ZN12MediaInfoLib8File_Ac421further_loudness_infoERNS0_13loudness_infoEbb
libmediainfo.so.0:_ZN12MediaInfoLib8File_Ac421substream_index_tableEv
libmediainfo.so.0:_ZN12MediaInfoLib8File_Ac422ac4_substream_info_objERNS0_15group_substreamEb
libmediainfo.so.0:_ZN12MediaInfoLib8File_Ac422bed_dyn_obj_assignmentERNS0_15group_substreamEh
libmediainfo.so.0:_ZN12MediaInfoLib8File_Ac423ac4_presentation_v1_dsiERNS0_12presentationE
libmediainfo.so.0:_ZN12MediaInfoLib8File_Ac423ac4_substream_group_dsiERNS0_12presentationE
libmediainfo.so.0:_ZN12MediaInfoLib8File_Ac423ac4_substream_info_ajocERNS0_15group_substreamEb
libmediainfo.so.0:_ZN12MediaInfoLib8File_Ac423ac4_substream_info_chanERNS0_15group_substreamEmb
libmediainfo.so.0:_ZN12MediaInfoLib8File_Ac423dialog_enhancement_dataERNS0_7de_infoEbb
libmediainfo.so.0:_ZN12MediaInfoLib8File_Ac423drc_decoder_mode_configERNS0_18drc_decoder_configE
libmediainfo.so.0:_ZN12MediaInfoLib8File_Ac424ac4_presentation_v1_infoERNS0_12presentationE
libmediainfo.so.0:_ZN12MediaInfoLib8File_Ac424ac4_substream_group_infoERNS0_5groupE
libmediainfo.so.0:_ZN12MediaInfoLib8File_Ac424frame_rate_multiply_infoEv
libmediainfo.so.0:_ZN12MediaInfoLib8File_Ac424raw_ac4_frame_substreamsEv
libmediainfo.so.0:_ZN12MediaInfoLib8File_Ac425dialog_enhancement_configERNS0_7de_infoE
libmediainfo.so.0:_ZN12MediaInfoLib8File_Ac425frame_rate_fractions_infoERNS0_12presentationE
libmediainfo.so.0:_ZN12MediaInfoLib8File_Ac426ac4_hsf_ext_substream_infoERNS0_15group_substreamEb
libmediainfo.so.0:_ZN12MediaInfoLib8File_Ac426ac4_presentation_substreamEmm
libmediainfo.so.0:_ZN12MediaInfoLib8File_Ac428emdf_payloads_substream_infoERNS0_22presentation_substreamE
libmediainfo.so.0:_ZN12MediaInfoLib8File_Ac428presentation_config_ext_infoERNS0_12presentationE
libmediainfo.so.0:_ZN12MediaInfoLib8File_Ac431ac4_presentation_substream_infoERNS0_12presentationE
libmediainfo.so.0:_ZN12MediaInfoLib8File_Ac44dac4Ev
libmediainfo.so.0:_ZN12MediaInfoLib8File_Ac46Get_V4EPKNS_13variable_sizeERhPKc
libmediainfo.so.0:_ZN12MediaInfoLib8File_Ac46Get_V4EhRjPKc
libmediainfo.so.0:_ZN12MediaInfoLib8File_Ac46Get_V4EhhhRjPKc
libmediainfo.so.0:_ZN12MediaInfoLib8File_Ac46Get_V4EhhhhRjPKc
libmediainfo.so.0:_ZN12MediaInfoLib8File_Ac46Get_VBERhPKc
libmediainfo.so.0:_ZN12MediaInfoLib8File_Ac47Skip_V4EhPKc
libmediainfo.so.0:_ZN12MediaInfoLib8File_Ac47Skip_V4EhhhPKc
libmediainfo.so.0:_ZN12MediaInfoLib8File_Ac47Skip_VBEPKc
libmediainfo.so.0:_ZN12MediaInfoLib8File_Ac47ac4_tocEv
libmediainfo.so.0:_ZN12MediaInfoLib8File_Ac48SupersetEhh
libmediainfo.so.0:_ZN12MediaInfoLib8File_Ac48drc_dataERNS0_8drc_infoE
libmediainfo.so.0:_ZN12MediaInfoLib8File_Ac48metadataERNS0_15audio_substreamEm
libmediainfo.so.0:_ZN12MediaInfoLib8File_Ac49drc_frameERNS0_8drc_infoEb
libmediainfo.so.0:_ZN12MediaInfoLib8File_Ac49drc_gainsERNS0_18drc_decoder_configE
libmediainfo.so.0:_ZN12MediaInfoLib8File_Ac49emdf_infoERNS0_22presentation_substreamE
libmediainfo.so.0:_ZN12MediaInfoLib8File_Ac49loud_corrEhhb
libmediainfo.so.0:_ZN12MediaInfoLib8File_Ac4C1Ev
libmediainfo.so.0:_ZN12MediaInfoLib8File_Ac4C2Ev
libmediainfo.so.0:_ZN12MediaInfoLib8File_Ac4D0Ev
libmediainfo.so.0:_ZN12MediaInfoLib8File_Ac4D1Ev
libmediainfo.so.0:_ZN12MediaInfoLib8File_Ac4D2Ev
libmediainfo.so.0:_ZN12MediaInfoLib8File_Ace16FileHeader_BeginEv
libmediainfo.so.0:_ZN12MediaInfoLib8File_Ace20Read_Buffer_ContinueEv
libmediainfo.so.0:_ZN12MediaInfoLib8File_Aic10Data_ParseEv
libmediainfo.so.0:_ZN12MediaInfoLib8File_Aic12Header_ParseEv
libmediainfo.so.0:_ZN12MediaInfoLib8File_Aic12Streams_FillEv
libmediainfo.so.0:_ZN12MediaInfoLib8File_Als14Streams_FinishEv
libmediainfo.so.0:_ZN12MediaInfoLib8File_Als16FileHeader_BeginEv
libmediainfo.so.0:_ZN12MediaInfoLib8File_Als16FileHeader_ParseEv
libmediainfo.so.0:_ZN12MediaInfoLib8File_AlsC1Ev
libmediainfo.so.0:_ZN12MediaInfoLib8File_AlsC2Ev
libmediainfo.so.0:_ZN12MediaInfoLib8File_Amr10Data_ParseEv
libmediainfo.so.0:_ZN12MediaInfoLib8File_Amr12Header_ParseEv
libmediainfo.so.0:_ZN12MediaInfoLib8File_Amr12Streams_FillEv
libmediainfo.so.0:_ZN12MediaInfoLib8File_Amr14Streams_FinishEv
libmediainfo.so.0:_ZN12MediaInfoLib8File_Amr16FileHeader_BeginEv
libmediainfo.so.0:_ZN12MediaInfoLib8File_Amr16FileHeader_ParseEv
libmediainfo.so.0:_ZN12MediaInfoLib8File_AmrC1Ev
libmediainfo.so.0:_ZN12MediaInfoLib8File_AmrC2Ev
libmediainfo.so.0:_ZN12MediaInfoLib8File_Amv20Read_Buffer_ContinueEv
libmediainfo.so.0:_ZN12MediaInfoLib8File_Ape14Streams_FinishEv
libmediainfo.so.0:_ZN12MediaInfoLib8File_Ape16FileHeader_BeginEv
libmediainfo.so.0:_ZN12MediaInfoLib8File_Ape16FileHeader_ParseEv
libmediainfo.so.0:_ZN12MediaInfoLib8File_ApeC1Ev
libmediainfo.so.0:_ZN12MediaInfoLib8File_ApeC2Ev
libmediainfo.so.0:_ZN12MediaInfoLib8File_Av110Data_ParseEv
libmediainfo.so.0:_ZN12MediaInfoLib8File_Av110GOP_DetectENSt7__cxx1112basic_stringIcSt11char_traitsIcESaIcEEE
libmediainfo.so.0:_ZN12MediaInfoLib8File_Av110tile_groupEv
libmediainfo.so.0:_ZN12MediaInfoLib8File_Av112Header_ParseEv
libmediainfo.so.0:_ZN12MediaInfoLib8File_Av112Streams_FillEv
libmediainfo.so.0:_ZN12MediaInfoLib8File_Av112frame_headerEv
libmediainfo.so.0:_ZN12MediaInfoLib8File_Av114Streams_AcceptEv
libmediainfo.so.0:_ZN12MediaInfoLib8File_Av114Streams_FinishEv
libmediainfo.so.0:_ZN12MediaInfoLib8File_Av115sequence_headerEv
libmediainfo.so.0:_ZN12MediaInfoLib8File_Av116metadata_hdr_cllEv
libmediainfo.so.0:_ZN12MediaInfoLib8File_Av117metadata_hdr_mdcvEv
libmediainfo.so.0:_ZN12MediaInfoLib8File_Av118temporal_delimiterEv
libmediainfo.so.0:_ZN12MediaInfoLib8File_Av121Read_Buffer_OutOfBandEv
libmediainfo.so.0:_ZN12MediaInfoLib8File_Av17paddingEv
libmediainfo.so.0:_ZN12MediaInfoLib8File_Av18metadataEv
libmediainfo.so.0:_ZN12MediaInfoLib8File_Av1C1Ev
libmediainfo.so.0:_ZN12MediaInfoLib8File_Av1C2Ev
libmediainfo.so.0:_ZN12MediaInfoLib8File_Av1D0Ev
libmediainfo.so.0:_ZN12MediaInfoLib8File_Av1D1Ev
libmediainfo.so.0:_ZN12MediaInfoLib8File_Av1D2Ev
libmediainfo.so.0:_ZN12MediaInfoLib8File_Avc10Data_ParseEv
libmediainfo.so.0:_ZN12MediaInfoLib8File_Avc10GOP_DetectENSt7__cxx1112basic_stringIcSt11char_traitsIcESaIcEEE
libmediainfo.so.0:_ZN12MediaInfoLib8File_Avc10slice_dataEb
libmediainfo.so.0:_ZN12MediaInfoLib8File_Avc11SynchronizeEv
libmediainfo.so.0:_ZN12MediaInfoLib8File_Avc11filler_dataEv
libmediainfo.so.0:_ZN12MediaInfoLib8File_Avc11sei_messageERj
libmediainfo.so.0:_ZN12MediaInfoLib8File_Avc12Header_ParseEv
libmediainfo.so.0:_ZN12MediaInfoLib8File_Avc12Streams_FillEN9__gnu_cxx17__normal_iteratorIPPNS0_24seq_parameter_set_structESt6vectorIS4_SaIS4_EEEE
libmediainfo.so.0:_ZN12MediaInfoLib8File_Avc12Streams_FillEv
libmediainfo.so.0:_ZN12MediaInfoLib8File_Avc12Synched_InitEv
libmediainfo.so.0:_ZN12MediaInfoLib8File_Avc12Synched_TestEv
libmediainfo.so.0:_ZN12MediaInfoLib8File_Avc12scaling_listEj
libmediainfo.so.0:_ZN12MediaInfoLib8File_Avc12slice_headerEv
libmediainfo.so.0:_ZN12MediaInfoLib8File_Avc13Option_ManageEv
libmediainfo.so.0:_ZN12MediaInfoLib8File_Avc14Streams_FinishEv
libmediainfo.so.0:_ZN12MediaInfoLib8File_Avc14hrd_parametersERPNS0_24seq_parameter_set_struct21vui_parameters_struct3xxlE
libmediainfo.so.0:_ZN12MediaInfoLib8File_Avc14vui_parametersERPNS0_24seq_parameter_set_struct21vui_parameters_structE
libmediainfo.so.0:_ZN12MediaInfoLib8File_Avc15prefix_nal_unitEb
libmediainfo.so.0:_ZN12MediaInfoLib8File_Avc16FileHeader_BeginEv
libmediainfo.so.0:_ZN12MediaInfoLib8File_Avc16ScanOrder_DetectENSt7__cxx1112basic_stringIcSt11char_traitsIcESaIcEEE
libmediainfo.so.0:_ZN12MediaInfoLib8File_Avc17Output_Buffer_GetERKNSt7__cxx1112basic_stringIwSt11char_traitsIwESaIwEEE
libmediainfo.so.0:_ZN12MediaInfoLib8File_Avc17Output_Buffer_GetEm
libmediainfo.so.0:_ZN12MediaInfoLib8File_Avc17consumer_camera_1Ev
libmediainfo.so.0:_ZN12MediaInfoLib8File_Avc17consumer_camera_2Ev
libmediainfo.so.0:_ZN12MediaInfoLib8File_Avc17pic_parameter_setEv
libmediainfo.so.0:_ZN12MediaInfoLib8File_Avc17pred_weight_tableEjjh
libmediainfo.so.0:_ZN12MediaInfoLib8File_Avc17seq_parameter_setEv
libmediainfo.so.0:_ZN12MediaInfoLib8File_Avc19Clean_Seq_ParameterEv
libmediainfo.so.0:_ZN12MediaInfoLib8File_Avc19Data_Parse_Iso14496Ev
libmediainfo.so.0:_ZN12MediaInfoLib8File_Avc19File__Duplicate_SetERKN6ZenLib6ZtringE
libmediainfo.so.0:_ZN12MediaInfoLib8File_Avc19Streams_Fill_subsetEN9__gnu_cxx17__normal_iteratorIPPNS0_24seq_parameter_set_structESt6vectorIS4_SaIS4_EEEE
libmediainfo.so.0:_ZN12MediaInfoLib8File_Avc19dec_ref_pic_markingERSt6vectorIhSaIhEE
libmediainfo.so.0:_ZN12MediaInfoLib8File_Avc21Clean_Temp_ReferencesEv
libmediainfo.so.0:_ZN12MediaInfoLib8File_Avc21File__Duplicate_WriteEyj
libmediainfo.so.0:_ZN12MediaInfoLib8File_Avc21Read_Buffer_UnsynchedEv
libmediainfo.so.0:_ZN12MediaInfoLib8File_Avc21access_unit_delimiterEv
libmediainfo.so.0:_ZN12MediaInfoLib8File_Avc21slice_layer_extensionEb
libmediainfo.so.0:_ZN12MediaInfoLib8File_Avc22AVC_Intra_Headers_DataEj
libmediainfo.so.0:_ZN12MediaInfoLib8File_Avc22sei_message_pic_timingEjj
libmediainfo.so.0:_ZN12MediaInfoLib8File_Avc22seq_parameter_set_dataERj
libmediainfo.so.0:_ZN12MediaInfoLib8File_Avc23Header_Parser_Fill_SizeEv
libmediainfo.so.0:_ZN12MediaInfoLib8File_Avc23sei_message_light_levelEv
libmediainfo.so.0:_ZN12MediaInfoLib8File_Avc23sei_message_mainconceptEj
libmediainfo.so.0:_ZN12MediaInfoLib8File_Avc24subset_seq_parameter_setEv
libmediainfo.so.0:_ZN12MediaInfoLib8File_Avc25Header_Parser_QuickSearchEv
libmediainfo.so.0:_ZN12MediaInfoLib8File_Avc25ref_pic_list_modificationEjb
libmediainfo.so.0:_ZN12MediaInfoLib8File_Avc26AVC_Intra_CodecID_FromMetaEjjjjj
libmediainfo.so.0:_ZN12MediaInfoLib8File_Avc26sei_message_recovery_pointEv
libmediainfo.so.0:_ZN12MediaInfoLib8File_Avc26seq_parameter_set_data_AddERSt6vectorIPNS0_24seq_parameter_set_structESaIS3_EEjS3_
libmediainfo.so.0:_ZN12MediaInfoLib8File_Avc28mvc_vui_parameters_extensionEv
libmediainfo.so.0:_ZN12MediaInfoLib8File_Avc28sei_message_buffering_periodERj
libmediainfo.so.0:_ZN12MediaInfoLib8File_Avc28svc_vui_parameters_extensionEv
libmediainfo.so.0:_ZN12MediaInfoLib8File_Avc29nal_unit_header_mvc_extensionEv
libmediainfo.so.0:_ZN12MediaInfoLib8File_Avc29nal_unit_header_svc_extensionEv
libmediainfo.so.0:_ZN12MediaInfoLib8File_Avc31Demux_UnpacketizeContainer_TestEv
libmediainfo.so.0:_ZN12MediaInfoLib8File_Avc31seq_parameter_set_mvc_extensionEPNS0_24seq_parameter_set_structE
libmediainfo.so.0:_ZN12MediaInfoLib8File_Avc31seq_parameter_set_svc_extensionEv
libmediainfo.so.0:_ZN12MediaInfoLib8File_Avc32sei_message_buffering_period_xxlEPNS0_24seq_parameter_set_struct21vui_parameters_struct3xxlE
libmediainfo.so.0:_ZN12MediaInfoLib8File_Avc34sei_message_user_data_unregisteredEj
libmediainfo.so.0:_ZN12MediaInfoLib8File_Avc36slice_layer_without_partitioning_IDREv
libmediainfo.so.0:_ZN12MediaInfoLib8File_Avc39sei_message_user_data_unregistered_x264Ej
libmediainfo.so.0:_ZN12MediaInfoLib8File_Avc3seiEv
libmediainfo.so.0:_ZN12MediaInfoLib8File_Avc40sei_alternative_transfer_characteristicsEv
libmediainfo.so.0:_ZN12MediaInfoLib8File_Avc40slice_layer_without_partitioning_non_IDREv
libmediainfo.so.0:_ZN12MediaInfoLib8File_Avc41sei_message_user_data_unregistered_blurayEj
libmediainfo.so.0:_ZN12MediaInfoLib8File_Avc42sei_message_user_data_registered_itu_t_t35Ev
libmediainfo.so.0:_ZN12MediaInfoLib8File_Avc43sei_message_mastering_display_colour_volumeEv
libmediainfo.so.0:_ZN12MediaInfoLib8File_Avc46sei_message_user_data_unregistered_bluray_MDPMEj
libmediainfo.so.0:_ZN12MediaInfoLib8File_Avc47sei_message_user_data_registered_itu_t_t35_DTG1Ev
libmediainfo.so.0:_ZN12MediaInfoLib8File_Avc47sei_message_user_data_registered_itu_t_t35_GA94Ev
libmediainfo.so.0:_ZN12MediaInfoLib8File_Avc50sei_message_user_data_registered_itu_t_t35_GA94_03Ev
libmediainfo.so.0:_ZN12MediaInfoLib8File_Avc50sei_message_user_data_registered_itu_t_t35_GA94_06Ev
libmediainfo.so.0:_ZN12MediaInfoLib8File_Avc58sei_message_user_data_registered_itu_t_t35_GA94_03_DelayedEj
libmediainfo.so.0:_ZN12MediaInfoLib8File_Avc7SPS_PPSEv
libmediainfo.so.0:_ZN12MediaInfoLib8File_AvcC1Ev
libmediainfo.so.0:_ZN12MediaInfoLib8File_AvcC2Ev
libmediainfo.so.0:_ZN12MediaInfoLib8File_AvcD0Ev
libmediainfo.so.0:_ZN12MediaInfoLib8File_AvcD1Ev
libmediainfo.so.0:_ZN12MediaInfoLib8File_AvcD2Ev
libmediainfo.so.0:_ZN12MediaInfoLib8File_Bmp16BitmapCoreHeaderEh
libmediainfo.so.0:_ZN12MediaInfoLib8File_Bmp16BitmapInfoHeaderEh
libmediainfo.so.0:_ZN12MediaInfoLib8File_Bmp16FileHeader_BeginEv
libmediainfo.so.0:_ZN12MediaInfoLib8File_Bmp20Read_Buffer_ContinueEv
libmediainfo.so.0:_ZN12MediaInfoLib8File_Bpg16FileHeader_BeginEv
libmediainfo.so.0:_ZN12MediaInfoLib8File_Bpg20Read_Buffer_ContinueEv
libmediainfo.so.0:_ZN12MediaInfoLib8File_Caf10Data_ParseEv
libmediainfo.so.0:_ZN12MediaInfoLib8File_Caf12Header_ParseEv
libmediainfo.so.0:_ZN12MediaInfoLib8File_Caf16FileHeader_BeginEv
libmediainfo.so.0:_ZN12MediaInfoLib8File_Caf16FileHeader_ParseEv
libmediainfo.so.0:_ZN12MediaInfoLib8File_Caf4dataEv
libmediainfo.so.0:_ZN12MediaInfoLib8File_Caf4descEv
libmediainfo.so.0:_ZN12MediaInfoLib8File_Caf4freeEv
libmediainfo.so.0:_ZN12MediaInfoLib8File_Caf4infoEv
libmediainfo.so.0:_ZN12MediaInfoLib8File_Caf4kukiEv
libmediainfo.so.0:_ZN12MediaInfoLib8File_Caf4paktEv
libmediainfo.so.0:_ZN12MediaInfoLib8File_Caf4uuidEv
libmediainfo.so.0:_ZN12MediaInfoLib8File_CafC1Ev
libmediainfo.so.0:_ZN12MediaInfoLib8File_CafC2Ev
libmediainfo.so.0:_ZN12MediaInfoLib8File_Cdp10Data_ParseEv
libmediainfo.so.0:_ZN12MediaInfoLib8File_Cdp10cdp_footerEv
libmediainfo.so.0:_ZN12MediaInfoLib8File_Cdp10cdp_headerEv
libmediainfo.so.0:_ZN12MediaInfoLib8File_Cdp11SynchronizeEv
libmediainfo.so.0:_ZN12MediaInfoLib8File_Cdp12CreateStreamEh
libmediainfo.so.0:_ZN12MediaInfoLib8File_Cdp12Header_ParseEv
libmediainfo.so.0:_ZN12MediaInfoLib8File_Cdp12Synched_TestEv
libmediainfo.so.0:_ZN12MediaInfoLib8File_Cdp14Streams_AcceptEv
libmediainfo.so.0:_ZN12MediaInfoLib8File_Cdp14Streams_FinishEv
libmediainfo.so.0:_ZN12MediaInfoLib8File_Cdp14Streams_UpdateEv
libmediainfo.so.0:_ZN12MediaInfoLib8File_Cdp14ccdata_sectionEv
libmediainfo.so.0:_ZN12MediaInfoLib8File_Cdp14future_sectionEv
libmediainfo.so.0:_ZN12MediaInfoLib8File_Cdp17ccsvcinfo_sectionEv
libmediainfo.so.0:_ZN12MediaInfoLib8File_Cdp17time_code_sectionEv
libmediainfo.so.0:_ZN12MediaInfoLib8File_Cdp20Read_Buffer_ContinueEv
libmediainfo.so.0:_ZN12MediaInfoLib8File_Cdp21Read_Buffer_UnsynchedEv
libmediainfo.so.0:_ZN12MediaInfoLib8File_Cdp24Streams_Update_PerStreamEm
libmediainfo.so.0:_ZN12MediaInfoLib8File_CdpC1Ev
libmediainfo.so.0:_ZN12MediaInfoLib8File_CdpC2Ev
libmediainfo.so.0:_ZN12MediaInfoLib8File_CdpD0Ev
libmediainfo.so.0:_ZN12MediaInfoLib8File_CdpD1Ev
libmediainfo.so.0:_ZN12MediaInfoLib8File_CdpD2Ev
libmediainfo.so.0:_ZN12MediaInfoLib8File_Dds14Streams_AcceptEv
libmediainfo.so.0:_ZN12MediaInfoLib8File_Dds16FileHeader_BeginEv
libmediainfo.so.0:_ZN12MediaInfoLib8File_Dds16FileHeader_ParseEv
libmediainfo.so.0:_ZN12MediaInfoLib8File_Dds20Read_Buffer_ContinueEv
libmediainfo.so.0:_ZN12MediaInfoLib8File_Dds21Read_Buffer_UnsynchedEv
libmediainfo.so.0:_ZN12MediaInfoLib8File_DdsC1Ev
libmediainfo.so.0:_ZN12MediaInfoLib8File_DdsC2Ev
libmediainfo.so.0:_ZN12MediaInfoLib8File_Dpg16FileHeader_BeginEv
libmediainfo.so.0:_ZN12MediaInfoLib8File_Dpg16FileHeader_ParseEv
libmediainfo.so.0:_ZN12MediaInfoLib8File_Dpg20Read_Buffer_ContinueEv
libmediainfo.so.0:_ZN12MediaInfoLib8File_Dpg21Read_Buffer_UnsynchedEv
libmediainfo.so.0:_ZN12MediaInfoLib8File_DpgC1Ev
libmediainfo.so.0:_ZN12MediaInfoLib8File_DpgC2Ev
libmediainfo.so.0:_ZN12MediaInfoLib8File_DpgD0Ev
libmediainfo.so.0:_ZN12MediaInfoLib8File_DpgD1Ev
libmediainfo.so.0:_ZN12MediaInfoLib8File_DpgD2Ev
libmediainfo.so.0:_ZN12MediaInfoLib8File_Dpx10Data_ParseEv
libmediainfo.so.0:_ZN12MediaInfoLib8File_Dpx12Header_ParseEv
libmediainfo.so.0:_ZN12MediaInfoLib8File_Dpx14Streams_AcceptEv
libmediainfo.so.0:_ZN12MediaInfoLib8File_Dpx16FileHeader_BeginEv
libmediainfo.so.0:_ZN12MediaInfoLib8File_Dpx21UserDefinedHeader_DpxEv
libmediainfo.so.0:_ZN12MediaInfoLib8File_Dpx24GenericSectionHeader_DpxEv
libmediainfo.so.0:_ZN12MediaInfoLib8File_Dpx24UserDefinedHeader_CineonEv
libmediainfo.so.0:_ZN12MediaInfoLib8File_Dpx26IndustrySpecificHeader_DpxEv
libmediainfo.so.0:_ZN12MediaInfoLib8File_Dpx27GenericSectionHeader_CineonEv
libmediainfo.so.0:_ZN12MediaInfoLib8File_Dpx29IndustrySpecificHeader_CineonEv
libmediainfo.so.0:_ZN12MediaInfoLib8File_Dpx37GenericSectionHeader_Dpx_ImageElementEv
libmediainfo.so.0:_ZN12MediaInfoLib8File_Dpx40GenericSectionHeader_Cineon_ImageElementEv
libmediainfo.so.0:_ZN12MediaInfoLib8File_Dpx6Get_X2ERtPKc
libmediainfo.so.0:_ZN12MediaInfoLib8File_Dpx6Get_X4ERjPKc
libmediainfo.so.0:_ZN12MediaInfoLib8File_Dpx7Get_XF4ERfPKc
libmediainfo.so.0:_ZN12MediaInfoLib8File_Dpx7PaddingEv
libmediainfo.so.0:_ZN12MediaInfoLib8File_Dpx9Get_ASCIIEmRNSt7__cxx1112basic_stringIcSt11char_traitsIcESaIcEEEPKc
libmediainfo.so.0:_ZN12MediaInfoLib8File_Dpx9ImageDataEv
libmediainfo.so.0:_ZN12MediaInfoLib8File_DpxC1Ev
libmediainfo.so.0:_ZN12MediaInfoLib8File_DpxC2Ev
libmediainfo.so.0:_ZN12MediaInfoLib8File_Dsf10Data_ParseEv
libmediainfo.so.0:_ZN12MediaInfoLib8File_Dsf12Header_ParseEv
libmediainfo.so.0:_ZN12MediaInfoLib8File_Dsf12Synched_TestEv
libmediainfo.so.0:_ZN12MediaInfoLib8File_Dsf14Streams_AcceptEv
libmediainfo.so.0:_ZN12MediaInfoLib8File_Dsf14Streams_FinishEv
libmediainfo.so.0:_ZN12MediaInfoLib8File_Dsf16FileHeader_BeginEv
libmediainfo.so.0:_ZN12MediaInfoLib8File_Dsf4DSD_Ev
libmediainfo.so.0:_ZN12MediaInfoLib8File_Dsf4dataEv
libmediainfo.so.0:_ZN12MediaInfoLib8File_Dsf4fmt_Ev
libmediainfo.so.0:_ZN12MediaInfoLib8File_DsfC1Ev
libmediainfo.so.0:_ZN12MediaInfoLib8File_DsfC2Ev
libmediainfo.so.0:_ZN12MediaInfoLib8File_Dts10Data_ParseEv
libmediainfo.so.0:_ZN12MediaInfoLib8File_Dts11BitRate_GetEb
libmediainfo.so.0:_ZN12MediaInfoLib8File_Dts11SynchronizeEv
libmediainfo.so.0:_ZN12MediaInfoLib8File_Dts12Header_ParseEv
libmediainfo.so.0:_ZN12MediaInfoLib8File_Dts12Streams_FillEv
libmediainfo.so.0:_ZN12MediaInfoLib8File_Dts12Synched_TestEv
libmediainfo.so.0:_ZN12MediaInfoLib8File_Dts14Streams_FinishEv
libmediainfo.so.0:_ZN12MediaInfoLib8File_Dts16FileHeader_BeginEv
libmediainfo.so.0:_ZN12MediaInfoLib8File_Dts17Streams_Fill_CoreEv
libmediainfo.so.0:_ZN12MediaInfoLib8File_Dts20FrameSynchPoint_TestEv
libmediainfo.so.0:_ZN12MediaInfoLib8File_Dts20Streams_Fill_Core_ESEv
libmediainfo.so.0:_ZN12MediaInfoLib8File_Dts21Read_Buffer_UnsynchedEv
libmediainfo.so.0:_ZN12MediaInfoLib8File_Dts22Streams_Fill_ExtensionEv
libmediainfo.so.0:_ZN12MediaInfoLib8File_Dts2HDEv
libmediainfo.so.0:_ZN12MediaInfoLib8File_Dts31Demux_UnpacketizeContainer_TestEv
libmediainfo.so.0:_ZN12MediaInfoLib8File_Dts4CoreEv
libmediainfo.so.0:_ZN12MediaInfoLib8File_Dts6HD_XBREy
libmediainfo.so.0:_ZN12MediaInfoLib8File_Dts6HD_XChEy
libmediainfo.so.0:_ZN12MediaInfoLib8File_Dts6HD_XLLEy
libmediainfo.so.0:_ZN12MediaInfoLib8File_Dts6HD_XSAEy
libmediainfo.so.0:_ZN12MediaInfoLib8File_Dts7HD_X96kEy
libmediainfo.so.0:_ZN12MediaInfoLib8File_Dts7HD_XXChEy
libmediainfo.so.0:_ZN12MediaInfoLib8File_Dts8Core_XChEy
libmediainfo.so.0:_ZN12MediaInfoLib8File_Dts9Core_X96kEy
libmediainfo.so.0:_ZN12MediaInfoLib8File_Dts9Core_XXChEy
libmediainfo.so.0:_ZN12MediaInfoLib8File_DtsC1Ev
libmediainfo.so.0:_ZN12MediaInfoLib8File_DtsC2Ev
libmediainfo.so.0:_ZN12MediaInfoLib8File_Dxw16FileHeader_BeginEv
libmediainfo.so.0:_ZN12MediaInfoLib8File_DxwC1Ev
libmediainfo.so.0:_ZN12MediaInfoLib8File_DxwC2Ev
libmediainfo.so.0:_ZN12MediaInfoLib8File_Elf16FileHeader_BeginEv
libmediainfo.so.0:_ZN12MediaInfoLib8File_Elf20Read_Buffer_ContinueEv
libmediainfo.so.0:_ZN12MediaInfoLib8File_Exr10Data_ParseEv
libmediainfo.so.0:_ZN12MediaInfoLib8File_Exr10dataWindowEv
libmediainfo.so.0:_ZN12MediaInfoLib8File_Exr11compressionEv
libmediainfo.so.0:_ZN12MediaInfoLib8File_Exr12Header_BeginEv
libmediainfo.so.0:_ZN12MediaInfoLib8File_Exr12Header_ParseEv
libmediainfo.so.0:_ZN12MediaInfoLib8File_Exr13displayWindowEv
libmediainfo.so.0:_ZN12MediaInfoLib8File_Exr14Streams_AcceptEv
libmediainfo.so.0:_ZN12MediaInfoLib8File_Exr16FileHeader_BeginEv
libmediainfo.so.0:_ZN12MediaInfoLib8File_Exr16FileHeader_ParseEv
libmediainfo.so.0:_ZN12MediaInfoLib8File_Exr16pixelAspectRatioEv
libmediainfo.so.0:_ZN12MediaInfoLib8File_Exr8channelsEv
libmediainfo.so.0:_ZN12MediaInfoLib8File_Exr8commentsEv
libmediainfo.so.0:_ZN12MediaInfoLib8File_Exr9ImageDataEv
libmediainfo.so.0:_ZN12MediaInfoLib8File_ExrC1Ev
libmediainfo.so.0:_ZN12MediaInfoLib8File_ExrC2Ev
libmediainfo.so.0:_ZN12MediaInfoLib8File_Flv10Data_ParseEv
libmediainfo.so.0:_ZN12MediaInfoLib8File_Flv10audio_MPEGEv
libmediainfo.so.0:_ZN12MediaInfoLib8File_Flv10video_H263Ev
libmediainfo.so.0:_ZN12MediaInfoLib8File_Flv10video_HEVCEv
libmediainfo.so.0:_ZN12MediaInfoLib8File_Flv11SynchronizeEv
libmediainfo.so.0:_ZN12MediaInfoLib8File_Flv12Header_ParseEv
libmediainfo.so.0:_ZN12MediaInfoLib8File_Flv12Streams_FillEv
libmediainfo.so.0:_ZN12MediaInfoLib8File_Flv12Synched_TestEv
libmediainfo.so.0:_ZN12MediaInfoLib8File_Flv14Streams_FinishEv
libmediainfo.so.0:_ZN12MediaInfoLib8File_Flv16FileHeader_BeginEv
libmediainfo.so.0:_ZN12MediaInfoLib8File_Flv16FileHeader_ParseEv
libmediainfo.so.0:_ZN12MediaInfoLib8File_Flv17video_ScreenVideoEh
libmediainfo.so.0:_ZN12MediaInfoLib8File_Flv20meta_SCRIPTDATAVALUEERKNSt7__cxx1112basic_stringIcSt11char_traitsIcESaIcEEE
libmediainfo.so.0:_ZN12MediaInfoLib8File_Flv21Read_Buffer_UnsynchedEv
libmediainfo.so.0:_ZN12MediaInfoLib8File_Flv21meta_SCRIPTDATAOBJECTEv
libmediainfo.so.0:_ZN12MediaInfoLib8File_Flv23meta_SCRIPTDATAVARIABLEEv
libmediainfo.so.0:_ZN12MediaInfoLib8File_Flv24Streams_Finish_PerStreamENS_8stream_tE
libmediainfo.so.0:_ZN12MediaInfoLib8File_Flv2RmEv
libmediainfo.so.0:_ZN12MediaInfoLib8File_Flv4metaEv
libmediainfo.so.0:_ZN12MediaInfoLib8File_Flv5audioEv
libmediainfo.so.0:_ZN12MediaInfoLib8File_Flv5videoEv
libmediainfo.so.0:_ZN12MediaInfoLib8File_Flv9audio_AACEv
libmediainfo.so.0:_ZN12MediaInfoLib8File_Flv9video_AVCEv
libmediainfo.so.0:_ZN12MediaInfoLib8File_Flv9video_VP6Eb
libmediainfo.so.0:_ZN12MediaInfoLib8File_FlvC1Ev
libmediainfo.so.0:_ZN12MediaInfoLib8File_FlvC2Ev
libmediainfo.so.0:_ZN12MediaInfoLib8File_Gif16FileHeader_BeginEv
libmediainfo.so.0:_ZN12MediaInfoLib8File_Gif20Read_Buffer_ContinueEv
libmediainfo.so.0:_ZN12MediaInfoLib8File_Gxf10Data_ParseEv
libmediainfo.so.0:_ZN12MediaInfoLib8File_Gxf10Detect_EOFEv
libmediainfo.so.0:_ZN12MediaInfoLib8File_Gxf11SynchronizeEv
libmediainfo.so.0:_ZN12MediaInfoLib8File_Gxf11TryToFinishEv
libmediainfo.so.0:_ZN12MediaInfoLib8File_Gxf12Header_BeginEv
libmediainfo.so.0:_ZN12MediaInfoLib8File_Gxf12Header_ParseEv
libmediainfo.so.0:_ZN12MediaInfoLib8File_Gxf12Synched_TestEv
libmediainfo.so.0:_ZN12MediaInfoLib8File_Gxf13end_of_streamEv
libmediainfo.so.0:_ZN12MediaInfoLib8File_Gxf14Streams_FinishEv
libmediainfo.so.0:_ZN12MediaInfoLib8File_Gxf16Read_Buffer_SeekEmyy
libmediainfo.so.0:_ZN12MediaInfoLib8File_Gxf19field_locator_tableEv
libmediainfo.so.0:_ZN12MediaInfoLib8File_Gxf21Read_Buffer_UnsynchedEv
libmediainfo.so.0:_ZN12MediaInfoLib8File_Gxf24Read_Buffer_AfterParsingEv
libmediainfo.so.0:_ZN12MediaInfoLib8File_Gxf24Streams_Finish_PerStreamEmRNS0_6streamE
libmediainfo.so.0:_ZN12MediaInfoLib8File_Gxf28ChooseParser_ChannelGroupingEh
libmediainfo.so.0:_ZN12MediaInfoLib8File_Gxf3mapEv
libmediainfo.so.0:_ZN12MediaInfoLib8File_Gxf5mediaEv
libmediainfo.so.0:_ZN12MediaInfoLib8File_Gxf8UMF_fileEv
libmediainfo.so.0:_ZN12MediaInfoLib8File_GxfC1Ev
libmediainfo.so.0:_ZN12MediaInfoLib8File_GxfC2Ev
libmediainfo.so.0:_ZN12MediaInfoLib8File_GxfD0Ev
libmediainfo.so.0:_ZN12MediaInfoLib8File_GxfD1Ev
libmediainfo.so.0:_ZN12MediaInfoLib8File_GxfD2Ev
libmediainfo.so.0:_ZN12MediaInfoLib8File_Hls16FileHeader_BeginEv
libmediainfo.so.0:_ZN12MediaInfoLib8File_HlsC1Ev
libmediainfo.so.0:_ZN12MediaInfoLib8File_HlsC2Ev
libmediainfo.so.0:_ZN12MediaInfoLib8File_Ibi10Data_ParseEv
libmediainfo.so.0:_ZN12MediaInfoLib8File_Ibi10InformDataEv
libmediainfo.so.0:_ZN12MediaInfoLib8File_Ibi10SourceInfoEv
libmediainfo.so.0:_ZN12MediaInfoLib8File_Ibi10Stream_DtsEv
libmediainfo.so.0:_ZN12MediaInfoLib8File_Ibi12Ebml_DocTypeEv
libmediainfo.so.0:_ZN12MediaInfoLib8File_Ibi12Ebml_VersionEv
libmediainfo.so.0:_ZN12MediaInfoLib8File_Ibi12Header_ParseEv
libmediainfo.so.0:_ZN12MediaInfoLib8File_Ibi12UInteger_GetEv
libmediainfo.so.0:_ZN12MediaInfoLib8File_Ibi13Stream_HeaderEv
libmediainfo.so.0:_ZN12MediaInfoLib8File_Ibi13UInteger_InfoEv
libmediainfo.so.0:_ZN12MediaInfoLib8File_Ibi14Streams_AcceptEv
libmediainfo.so.0:_ZN12MediaInfoLib8File_Ibi14UInteger16_GetEv
libmediainfo.so.0:_ZN12MediaInfoLib8File_Ibi15CompressedIndexEv
libmediainfo.so.0:_ZN12MediaInfoLib8File_Ibi16Ebml_MaxIDLengthEv
libmediainfo.so.0:_ZN12MediaInfoLib8File_Ibi16Ebml_ReadVersionEv
libmediainfo.so.0:_ZN12MediaInfoLib8File_Ibi17Stream_ByteOffsetEv
libmediainfo.so.0:_ZN12MediaInfoLib8File_Ibi18Ebml_MaxSizeLengthEv
libmediainfo.so.0:_ZN12MediaInfoLib8File_Ibi18Stream_FrameNumberEv
libmediainfo.so.0:_ZN12MediaInfoLib8File_Ibi18WritingApplicationEv
libmediainfo.so.0:_ZN12MediaInfoLib8File_Ibi19Ebml_DocTypeVersionEv
libmediainfo.so.0:_ZN12MediaInfoLib8File_Ibi21SourceInfo_SourceSizeEv
libmediainfo.so.0:_ZN12MediaInfoLib8File_Ibi23Ebml_DocTypeReadVersionEv
libmediainfo.so.0:_ZN12MediaInfoLib8File_Ibi23WritingApplication_NameEv
libmediainfo.so.0:_ZN12MediaInfoLib8File_Ibi26WritingApplication_VersionEv
libmediainfo.so.0:_ZN12MediaInfoLib8File_Ibi28SourceInfo_IndexCreationDateEv
libmediainfo.so.0:_ZN12MediaInfoLib8File_Ibi33SourceInfo_SourceModificationDateEv
libmediainfo.so.0:_ZN12MediaInfoLib8File_Ibi4EbmlEv
libmediainfo.so.0:_ZN12MediaInfoLib8File_Ibi4VoidEv
libmediainfo.so.0:_ZN12MediaInfoLib8File_Ibi4ZeroEv
libmediainfo.so.0:_ZN12MediaInfoLib8File_Ibi5CRC32Ev
libmediainfo.so.0:_ZN12MediaInfoLib8File_Ibi6StreamEv
libmediainfo.so.0:_ZN12MediaInfoLib8File_IbiC1Ev
libmediainfo.so.0:_ZN12MediaInfoLib8File_IbiC2Ev
libmediainfo.so.0:_ZN12MediaInfoLib8File_IbiD0Ev
libmediainfo.so.0:_ZN12MediaInfoLib8File_IbiD1Ev
libmediainfo.so.0:_ZN12MediaInfoLib8File_IbiD2Ev
libmediainfo.so.0:_ZN12MediaInfoLib8File_Ico10Data_ParseEv
libmediainfo.so.0:_ZN12MediaInfoLib8File_Ico12Header_ParseEv
libmediainfo.so.0:_ZN12MediaInfoLib8File_Ico12Streams_FillEv
libmediainfo.so.0:_ZN12MediaInfoLib8File_Ico16FileHeader_BeginEv
libmediainfo.so.0:_ZN12MediaInfoLib8File_Ico16FileHeader_ParseEv
libmediainfo.so.0:_ZN12MediaInfoLib8File_IcoC1Ev
libmediainfo.so.0:_ZN12MediaInfoLib8File_IcoC2Ev
libmediainfo.so.0:_ZN12MediaInfoLib8File_Id320Read_Buffer_ContinueEv
libmediainfo.so.0:_ZN12MediaInfoLib8File_Ism14Streams_AcceptEv
libmediainfo.so.0:_ZN12MediaInfoLib8File_Ism16FileHeader_BeginEv
libmediainfo.so.0:_ZN12MediaInfoLib8File_IsmC1Ev
libmediainfo.so.0:_ZN12MediaInfoLib8File_IsmC2Ev
libmediainfo.so.0:_ZN12MediaInfoLib8File_Ivf16FileHeader_BeginEv
libmediainfo.so.0:_ZN12MediaInfoLib8File_Ivf16FileHeader_ParseEv
libmediainfo.so.0:_ZN12MediaInfoLib8File_Lxf10Data_ParseEv
libmediainfo.so.0:_ZN12MediaInfoLib8File_Lxf11Header_InfoEv
libmediainfo.so.0:_ZN12MediaInfoLib8File_Lxf11Header_MetaEv
libmediainfo.so.0:_ZN12MediaInfoLib8File_Lxf11SynchronizeEv
libmediainfo.so.0:_ZN12MediaInfoLib8File_Lxf12Audio_StreamEm
libmediainfo.so.0:_ZN12MediaInfoLib8File_Lxf12Header_BeginEv
libmediainfo.so.0:_ZN12MediaInfoLib8File_Lxf12Header_ParseEv
libmediainfo.so.0:_ZN12MediaInfoLib8File_Lxf12Streams_FillEv
libmediainfo.so.0:_ZN12MediaInfoLib8File_Lxf12Synched_TestEv
libmediainfo.so.0:_ZN12MediaInfoLib8File_Lxf12Video_StreamEm
libmediainfo.so.0:_ZN12MediaInfoLib8File_Lxf14Streams_FinishEv
libmediainfo.so.0:_ZN12MediaInfoLib8File_Lxf14Video_Stream_1Ev
libmediainfo.so.0:_ZN12MediaInfoLib8File_Lxf14Video_Stream_2Ev
libmediainfo.so.0:_ZN12MediaInfoLib8File_Lxf16FileHeader_BeginEv
libmediainfo.so.0:_ZN12MediaInfoLib8File_Lxf16Read_Buffer_SeekEmyy
libmediainfo.so.0:_ZN12MediaInfoLib8File_Lxf20Read_Buffer_ContinueEv
libmediainfo.so.0:_ZN12MediaInfoLib8File_Lxf21Read_Buffer_UnsynchedEv
libmediainfo.so.0:_ZN12MediaInfoLib8File_Lxf22Streams_Fill_PerStreamEPNS_13File__AnalyzeENS_8stream_tEmh
libmediainfo.so.0:_ZN12MediaInfoLib8File_Lxf5AudioEv
libmediainfo.so.0:_ZN12MediaInfoLib8File_Lxf5VideoEv
libmediainfo.so.0:_ZN12MediaInfoLib8File_Lxf6HeaderEv
libmediainfo.so.0:_ZN12MediaInfoLib8File_LxfC1Ev
libmediainfo.so.0:_ZN12MediaInfoLib8File_LxfC2Ev
libmediainfo.so.0:_ZN12MediaInfoLib8File_LxfD0Ev
libmediainfo.so.0:_ZN12MediaInfoLib8File_LxfD1Ev
libmediainfo.so.0:_ZN12MediaInfoLib8File_LxfD2Ev
libmediainfo.so.0:_ZN12MediaInfoLib8File_Mpc16FileHeader_BeginEv
libmediainfo.so.0:_ZN12MediaInfoLib8File_Mpc16FileHeader_ParseEv
libmediainfo.so.0:_ZN12MediaInfoLib8File_MpcC1Ev
libmediainfo.so.0:_ZN12MediaInfoLib8File_MpcC2Ev
libmediainfo.so.0:_ZN12MediaInfoLib8File_Mxf10Data_ParseEv
libmediainfo.so.0:_ZN12MediaInfoLib8File_Mxf10EventTrackEv
libmediainfo.so.0:_ZN12MediaInfoLib8File_Mxf10MCAEpisodeEv
libmediainfo.so.0:_ZN12MediaInfoLib8File_Mxf10MCATagNameEv
libmediainfo.so.0:_ZN12MediaInfoLib8File_Mxf10ResourceIDEv
libmediainfo.so.0:_ZN12MediaInfoLib8File_Mxf10SourceClipEv
libmediainfo.so.0:_ZN12MediaInfoLib8File_Mxf11StaticTrackEv
libmediainfo.so.0:_ZN12MediaInfoLib8File_Mxf11SynchronizeEv
libmediainfo.so.0:_ZN12MediaInfoLib8File_Mxf11TextLocatorEv
libmediainfo.so.0:_ZN12MediaInfoLib8File_Mxf11UCSEncodingEv
libmediainfo.so.0:_ZN12MediaInfoLib8File_Mxf12ChooseParserERKSt17_Rb_tree_iteratorISt4pairIKjNS0_7essenceEEERKS1_IS2_IKN6ZenLib7uint128ENS0_10descriptorEEE
libmediainfo.so.0:_ZN12MediaInfoLib8File_Mxf12DMSourceClipEv
libmediainfo.so.0:_ZN12MediaInfoLib8File_Mxf12GenericTrackEv
libmediainfo.so.0:_ZN12MediaInfoLib8File_Mxf12Get_RationalERd
libmediainfo.so.0:_ZN12MediaInfoLib8File_Mxf12Header_BeginEv
libmediainfo.so.0:_ZN12MediaInfoLib8File_Mxf12Header_ParseEv
libmediainfo.so.0:_ZN12MediaInfoLib8File_Mxf12MCAChannelIDEv
libmediainfo.so.0:_ZN12MediaInfoLib8File_Mxf12MCATagSymbolEv
libmediainfo.so.0:_ZN12MediaInfoLib8File_Mxf12NamespaceURIEv
libmediainfo.so.0:_ZN12MediaInfoLib8File_Mxf12Streams_FillEv
libmediainfo.so.0:_ZN12MediaInfoLib8File_Mxf12Synched_TestEv
libmediainfo.so.0:_ZN12MediaInfoLib8File_Mxf12Track_OriginEv
libmediainfo.so.0:_ZN12MediaInfoLib8File_Mxf13AS11_AAF_CoreEv
libmediainfo.so.0:_ZN12MediaInfoLib8File_Mxf13AS11_UKDPP_3DEv
libmediainfo.so.0:_ZN12MediaInfoLib8File_Mxf13Get_TimestampERN6ZenLib6ZtringE
libmediainfo.so.0:_ZN12MediaInfoLib8File_Mxf13Info_RationalEv
libmediainfo.so.0:_ZN12MediaInfoLib8File_Mxf13Locators_TestEv
libmediainfo.so.0:_ZN12MediaInfoLib8File_Mxf13Skip_RationalEv
libmediainfo.so.0:_ZN12MediaInfoLib8File_Mxf13SourcePackageEv
libmediainfo.so.0:_ZN12MediaInfoLib8File_Mxf13SystemScheme1Ev
libmediainfo.so.0:_ZN12MediaInfoLib8File_Mxf13TimelineTrackEv
libmediainfo.so.0:_ZN12MediaInfoLib8File_Mxf14AS11_AAF_UKDPPEv
libmediainfo.so.0:_ZN12MediaInfoLib8File_Mxf14ContentStorageEv
libmediainfo.so.0:_ZN12MediaInfoLib8File_Mxf14DetectDurationEv
libmediainfo.so.0:_ZN12MediaInfoLib8File_Mxf14FileDescriptorEv
libmediainfo.so.0:_ZN12MediaInfoLib8File_Mxf14GenericPackageEv
libmediainfo.so.0:_ZN12MediaInfoLib8File_Mxf14IdentificationEv
libmediainfo.so.0:_ZN12MediaInfoLib8File_Mxf14Info_TimestampEv
libmediainfo.so.0:_ZN12MediaInfoLib8File_Mxf14NetworkLocatorEv
libmediainfo.so.0:_ZN12MediaInfoLib8File_Mxf14Skip_TimestampEv
libmediainfo.so.0:_ZN12MediaInfoLib8File_Mxf14Streams_AcceptEv
libmediainfo.so.0:_ZN12MediaInfoLib8File_Mxf14Streams_FinishEv
libmediainfo.so.0:_ZN12MediaInfoLib8File_Mxf14SubDescriptorsEv
libmediainfo.so.0:_ZN12MediaInfoLib8File_Mxf14Track_EditRateEv
libmediainfo.so.0:_ZN12MediaInfoLib8File_Mxf15BookMark_NeededEv
libmediainfo.so.0:_ZN12MediaInfoLib8File_Mxf15ChooseParser_DVERKSt17_Rb_tree_iteratorISt4pairIKjNS0_7essenceEEERKS1_IS2_IKN6ZenLib7uint128ENS0_10descriptorEEE
libmediainfo.so.0:_ZN12MediaInfoLib8File_Mxf15Descriptor_FillEPKcRKN6ZenLib6ZtringE
libmediainfo.so.0:_ZN12MediaInfoLib8File_Mxf15MCATitleVersionEv
libmediainfo.so.0:_ZN12MediaInfoLib8File_Mxf15MaterialPackageEv
libmediainfo.so.0:_ZN12MediaInfoLib8File_Mxf15Preface_VersionEv
libmediainfo.so.0:_ZN12MediaInfoLib8File_Mxf15RandomIndexPackEv
libmediainfo.so.0:_ZN12MediaInfoLib8File_Mxf15XmlDocumentTextEv
libmediainfo.so.0:_ZN12MediaInfoLib8File_Mxf16AS11_UKDPP_GenreEv
libmediainfo.so.0:_ZN12MediaInfoLib8File_Mxf16AVCSubDescriptorEv
libmediainfo.so.0:_ZN12MediaInfoLib8File_Mxf16ChooseParser_AacERKSt17_Rb_tree_iteratorISt4pairIKjNS0_7essenceEEERKS1_IS2_IKN6ZenLib7uint128ENS0_10descriptorEEE
libmediainfo.so.0:_ZN12MediaInfoLib8File_Mxf16ChooseParser_Ac3ERKSt17_Rb_tree_iteratorISt4pairIKjNS0_7essenceEEERKS1_IS2_IKN6ZenLib7uint128ENS0_10descriptorEEE
libmediainfo.so.0:_ZN12MediaInfoLib8File_Mxf16ChooseParser_AvcERKSt17_Rb_tree_iteratorISt4pairIKjNS0_7essenceEEERKS1_IS2_IKN6ZenLib7uint128ENS0_10descriptorEEE
libmediainfo.so.0:_ZN12MediaInfoLib8File_Mxf16ChooseParser_PcmERKSt17_Rb_tree_iteratorISt4pairIKjNS0_7essenceEEERKS1_IS2_IKN6ZenLib7uint128ENS0_10descriptorEEE
libmediainfo.so.0:_ZN12MediaInfoLib8File_Mxf16ChooseParser_RawERKSt17_Rb_tree_iteratorISt4pairIKjNS0_7essenceEEERKS1_IS2_IKN6ZenLib7uint128ENS0_10descriptorEEE
libmediainfo.so.0:_ZN12MediaInfoLib8File_Mxf16ChooseParser_Vc3ERKSt17_Rb_tree_iteratorISt4pairIKjNS0_7essenceEEERKS1_IS2_IKN6ZenLib7uint128ENS0_10descriptorEEE
libmediainfo.so.0:_ZN12MediaInfoLib8File_Mxf16FileHeader_BeginEv
libmediainfo.so.0:_ZN12MediaInfoLib8File_Mxf16LensUnitMetadataEv
libmediainfo.so.0:_ZN12MediaInfoLib8File_Mxf16Locators_CleanUpEv
libmediainfo.so.0:_ZN12MediaInfoLib8File_Mxf16MCAPartitionKindEv
libmediainfo.so.0:_ZN12MediaInfoLib8File_Mxf16Read_Buffer_InitEv
libmediainfo.so.0:_ZN12MediaInfoLib8File_Mxf16Read_Buffer_SeekEmyy
libmediainfo.so.0:_ZN12MediaInfoLib8File_Mxf17AES3PCMDescriptorEv
libmediainfo.so.0:_ZN12MediaInfoLib8File_Mxf17AS11_UKDPP_3DTypeEv
libmediainfo.so.0:_ZN12MediaInfoLib8File_Mxf17ChooseParser_AlawERKSt17_Rb_tree_iteratorISt4pairIKjNS0_7essenceEEERKS1_IS2_IKN6ZenLib7uint128ENS0_10descriptorEEE
libmediainfo.so.0:_ZN12MediaInfoLib8File_Mxf17ChooseParser_RV24ERKSt17_Rb_tree_iteratorISt4pairIKjNS0_7essenceEEERKS1_IS2_IKN6ZenLib7uint128ENS0_10descriptorEEE
libmediainfo.so.0:_ZN12MediaInfoLib8File_Mxf17ChooseParser__AafERKSt17_Rb_tree_iteratorISt4pairIKjNS0_7essenceEEERKS1_IS2_IKN6ZenLib7uint128ENS0_10descriptorEEE
libmediainfo.so.0:_ZN12MediaInfoLib8File_Mxf17GenericDescriptorEv
libmediainfo.so.0:_ZN12MediaInfoLib8File_Mxf17IndexTableSegmentEv
libmediainfo.so.0:_ZN12MediaInfoLib8File_Mxf17InterchangeObjectEv
libmediainfo.so.0:_ZN12MediaInfoLib8File_Mxf17PartitionMetadataEv
libmediainfo.so.0:_ZN12MediaInfoLib8File_Mxf17Preface_DMSchemesEv
libmediainfo.so.0:_ZN12MediaInfoLib8File_Mxf17TerminatingFillerEv
libmediainfo.so.0:_ZN12MediaInfoLib8File_Mxf17TimecodeComponentEv
libmediainfo.so.0:_ZN12MediaInfoLib8File_Mxf18AS11_Core_ShimNameEv
libmediainfo.so.0:_ZN12MediaInfoLib8File_Mxf18AS11_UKDPP_FpaPassEv
libmediainfo.so.0:_ZN12MediaInfoLib8File_Mxf18CameraUnitMetadataEv
libmediainfo.so.0:_ZN12MediaInfoLib8File_Mxf18ChooseParser_MpegaERKSt17_Rb_tree_iteratorISt4pairIKjNS0_7essenceEEERKS1_IS2_IKN6ZenLib7uint128ENS0_10descriptorEEE
libmediainfo.so.0:_ZN12MediaInfoLib8File_Mxf18ChooseParser_MpegvERKSt17_Rb_tree_iteratorISt4pairIKjNS0_7essenceEEERKS1_IS2_IKN6ZenLib7uint128ENS0_10descriptorEEE
libmediainfo.so.0:_ZN12MediaInfoLib8File_Mxf18ChooseParser__AvidERKSt17_Rb_tree_iteratorISt4pairIKjNS0_7essenceEEERKS1_IS2_IKN6ZenLib7uint128ENS0_10descriptorEEE
libmediainfo.so.0:_ZN12MediaInfoLib8File_Mxf18ChooseParser__SonyERKSt17_Rb_tree_iteratorISt4pairIKjNS0_7essenceEEERKS1_IS2_IKN6ZenLib7uint128ENS0_10descriptorEEE
libmediainfo.so.0:_ZN12MediaInfoLib8File_Mxf18DMSegment_DurationEv
libmediainfo.so.0:_ZN12MediaInfoLib8File_Mxf18DMSegment_TrackIDsEv
libmediainfo.so.0:_ZN12MediaInfoLib8File_Mxf18MCAPartitionNumberEv
libmediainfo.so.0:_ZN12MediaInfoLib8File_Mxf18MCATitleSubVersionEv
libmediainfo.so.0:_ZN12MediaInfoLib8File_Mxf18MultipleDescriptorEv
libmediainfo.so.0:_ZN12MediaInfoLib8File_Mxf19AS11_UKDPP_SynopsisEv
libmediainfo.so.0:_ZN12MediaInfoLib8File_Mxf19AVCDescriptor_LevelEv
libmediainfo.so.0:_ZN12MediaInfoLib8File_Mxf19Application05_09_01Ev
libmediainfo.so.0:_ZN12MediaInfoLib8File_Mxf19ChooseParser_Mpeg4vERKSt17_Rb_tree_iteratorISt4pairIKjNS0_7essenceEEERKS1_IS2_IKN6ZenLib7uint128ENS0_10descriptorEEE
libmediainfo.so.0:_ZN12MediaInfoLib8File_Mxf19ChooseParser_ProResERKSt17_Rb_tree_iteratorISt4pairIKjNS0_7essenceEEERKS1_IS2_IKN6ZenLib7uint128ENS0_10descriptorEEE
libmediainfo.so.0:_ZN12MediaInfoLib8File_Mxf19ChooseParser__DolbyERKSt17_Rb_tree_iteratorISt4pairIKjNS0_7essenceEEERKS1_IS2_IKN6ZenLib7uint128ENS0_10descriptorEEE
libmediainfo.so.0:_ZN12MediaInfoLib8File_Mxf19ColorLevels_ComputeESt17_Rb_tree_iteratorISt4pairIKN6ZenLib7uint128ENS0_10descriptorEEEbj
libmediainfo.so.0:_ZN12MediaInfoLib8File_Mxf19Dolby_SourceTrackIDEv
libmediainfo.so.0:_ZN12MediaInfoLib8File_Mxf19GenericPackage_NameEv
libmediainfo.so.0:_ZN12MediaInfoLib8File_Mxf19MCAAudioContentKindEv
libmediainfo.so.0:_ZN12MediaInfoLib8File_Mxf19MCAAudioElementKindEv
libmediainfo.so.0:_ZN12MediaInfoLib8File_Mxf19MpegAudioDescriptorEv
libmediainfo.so.0:_ZN12MediaInfoLib8File_Mxf19NextRandomIndexPackEv
libmediainfo.so.0:_ZN12MediaInfoLib8File_Mxf19Omneon_010201010100Ev
libmediainfo.so.0:_ZN12MediaInfoLib8File_Mxf19Omneon_010201020100Ev
libmediainfo.so.0:_ZN12MediaInfoLib8File_Mxf19PackageMarkerObjectEv
libmediainfo.so.0:_ZN12MediaInfoLib8File_Mxf19StructuralComponentEv
libmediainfo.so.0:_ZN12MediaInfoLib8File_Mxf19Subsampling_ComputeESt17_Rb_tree_iteratorISt4pairIKN6ZenLib7uint128ENS0_10descriptorEEE
libmediainfo.so.0:_ZN12MediaInfoLib8File_Mxf19TimedTextDescriptorEv
libmediainfo.so.0:_ZN12MediaInfoLib8File_Mxf19WaveAudioDescriptorEv
libmediainfo.so.0:_ZN12MediaInfoLib8File_Mxf20AncPacketsDescriptorEv
libmediainfo.so.0:_ZN12MediaInfoLib8File_Mxf20ChooseParser__Aaf_14ERKSt17_Rb_tree_iteratorISt4pairIKjNS0_7essenceEEERKS1_IS2_IKN6ZenLib7uint128ENS0_10descriptorEEE
libmediainfo.so.0:_ZN12MediaInfoLib8File_Mxf20Dolby_DataDefinitionEv
libmediainfo.so.0:_ZN12MediaInfoLib8File_Mxf20EssenceContainerDataEv
libmediainfo.so.0:_ZN12MediaInfoLib8File_Mxf20FileDescriptor_CodecEv
libmediainfo.so.0:_ZN12MediaInfoLib8File_Mxf20GenericTrack_TrackIDEv
libmediainfo.so.0:_ZN12MediaInfoLib8File_Mxf20Info_UL_01xx01_ItemsEv
libmediainfo.so.0:_ZN12MediaInfoLib8File_Mxf20MCALabelDictionaryIDEv
libmediainfo.so.0:_ZN12MediaInfoLib8File_Mxf20MPEG2VideoDescriptorEv
libmediainfo.so.0:_ZN12MediaInfoLib8File_Mxf20Read_Buffer_ContinueEv
libmediainfo.so.0:_ZN12MediaInfoLib8File_Mxf20SDTI_DataMetadataSetEv
libmediainfo.so.0:_ZN12MediaInfoLib8File_Mxf20Streams_Finish_TrackEN6ZenLib7uint128E
libmediainfo.so.0:_ZN12MediaInfoLib8File_Mxf20VbiPacketsDescriptorEv
libmediainfo.so.0:_ZN12MediaInfoLib8File_Mxf21AS11_AAF_SegmentationEv
libmediainfo.so.0:_ZN12MediaInfoLib8File_Mxf21AS11_Core_SeriesTitleEv
libmediainfo.so.0:_ZN12MediaInfoLib8File_Mxf21AS11_Core_ShimVersionEv
libmediainfo.so.0:_ZN12MediaInfoLib8File_Mxf21AS11_UKDPP_FpaVersionEv
libmediainfo.so.0:_ZN12MediaInfoLib8File_Mxf21AS11_UKDPP_OriginatorEv
libmediainfo.so.0:_ZN12MediaInfoLib8File_Mxf21AVCDescriptor_ProfileEv
libmediainfo.so.0:_ZN12MediaInfoLib8File_Mxf21CDCIEssenceDescriptorEv
libmediainfo.so.0:_ZN12MediaInfoLib8File_Mxf21ChooseParser_Jpeg2000ERKSt17_Rb_tree_iteratorISt4pairIKjNS0_7essenceEEERKS1_IS2_IKN6ZenLib7uint128ENS0_10descriptorEEE
libmediainfo.so.0:_ZN12MediaInfoLib8File_Mxf21DMSegment_DMFrameworkEv
libmediainfo.so.0:_ZN12MediaInfoLib8File_Mxf21GenericPackage_TracksEv
libmediainfo.so.0:_ZN12MediaInfoLib8File_Mxf21GenericTrack_SequenceEv
libmediainfo.so.0:_ZN12MediaInfoLib8File_Mxf21Info_UL_02xx01_GroupsEv
libmediainfo.so.0:_ZN12MediaInfoLib8File_Mxf21Info_UL_040101_ValuesEv
libmediainfo.so.0:_ZN12MediaInfoLib8File_Mxf21MCALabelSubDescriptorEv
libmediainfo.so.0:_ZN12MediaInfoLib8File_Mxf21RGBAEssenceDescriptorEv
libmediainfo.so.0:_ZN12MediaInfoLib8File_Mxf21Read_Buffer_UnsynchedEv
libmediainfo.so.0:_ZN12MediaInfoLib8File_Mxf21SDTI_SoundMetadataSetEv
libmediainfo.so.0:_ZN12MediaInfoLib8File_Mxf21SoundfieldGroupLinkIDEv
libmediainfo.so.0:_ZN12MediaInfoLib8File_Mxf22AS11_Segment_PartTotalEv
libmediainfo.so.0:_ZN12MediaInfoLib8File_Mxf22AS11_UKDPP_DistributorEv
libmediainfo.so.0:_ZN12MediaInfoLib8File_Mxf22AS11_UKDPP_LineUpStartEv
libmediainfo.so.0:_ZN12MediaInfoLib8File_Mxf22ChooseParser_TimedTextERKSt17_Rb_tree_iteratorISt4pairIKjNS0_7essenceEEERKS1_IS2_IKN6ZenLib7uint128ENS0_10descriptorEEE
libmediainfo.so.0:_ZN12MediaInfoLib8File_Mxf22Dolby_SimplePayloadSIDEv
libmediainfo.so.0:_ZN12MediaInfoLib8File_Mxf22EventTrack_EventOriginEv
libmediainfo.so.0:_ZN12MediaInfoLib8File_Mxf22GenericStreamPartitionEv
libmediainfo.so.0:_ZN12MediaInfoLib8File_Mxf22GenericTrack_TrackNameEv
libmediainfo.so.0:_ZN12MediaInfoLib8File_Mxf22IndexTableSegment_8002Ev
libmediainfo.so.0:_ZN12MediaInfoLib8File_Mxf22Preface_ContentStorageEv
libmediainfo.so.0:_ZN12MediaInfoLib8File_Mxf22Preface_PrimaryPackageEv
libmediainfo.so.0:_ZN12MediaInfoLib8File_Mxf22Streams_Finish_EssenceEjN6ZenLib7uint128E
libmediainfo.so.0:_ZN12MediaInfoLib8File_Mxf22Streams_Finish_LocatorEN6ZenLib7uint128ES2_
libmediainfo.so.0:_ZN12MediaInfoLib8File_Mxf22Streams_Finish_PackageEN6ZenLib7uint128E
libmediainfo.so.0:_ZN12MediaInfoLib8File_Mxf22Streams_Finish_PrefaceEN6ZenLib7uint128E
libmediainfo.so.0:_ZN12MediaInfoLib8File_Mxf23AS11_Segment_PartNumberEv
libmediainfo.so.0:_ZN12MediaInfoLib8File_Mxf23AS11_UKDPP_ContactEmailEv
libmediainfo.so.0:_ZN12MediaInfoLib8File_Mxf23AS11_UKDPP_PictureRatioEv
libmediainfo.so.0:_ZN12MediaInfoLib8File_Mxf23AS11_UKDPP_SignLanguageEv
libmediainfo.so.0:_ZN12MediaInfoLib8File_Mxf23ApplicationPlugInObjectEv
libmediainfo.so.0:_ZN12MediaInfoLib8File_Mxf23ContentStorage_PackagesEv
libmediainfo.so.0:_ZN12MediaInfoLib8File_Mxf23Identification_PlatformEv
libmediainfo.so.0:_ZN12MediaInfoLib8File_Mxf23Preface_IdentificationsEv
libmediainfo.so.0:_ZN12MediaInfoLib8File_Mxf23SDTI_ControlMetadataSetEv
libmediainfo.so.0:_ZN12MediaInfoLib8File_Mxf23SDTI_PackageMetadataSetEv
libmediainfo.so.0:_ZN12MediaInfoLib8File_Mxf23SDTI_PictureMetadataSetEv
libmediainfo.so.0:_ZN12MediaInfoLib8File_Mxf23SDTI_SystemMetadataPackEv
libmediainfo.so.0:_ZN12MediaInfoLib8File_Mxf23TextLocator_LocatorNameEv
libmediainfo.so.0:_ZN12MediaInfoLib8File_Mxf24AS11_Core_ProgrammeTitleEv
libmediainfo.so.0:_ZN12MediaInfoLib8File_Mxf24AS11_UKDPP_AudioCommentsEv
libmediainfo.so.0:_ZN12MediaInfoLib8File_Mxf24AS11_UKDPP_CopyrightYearEv
libmediainfo.so.0:_ZN12MediaInfoLib8File_Mxf24AS11_UKDPP_VideoCommentsEv
libmediainfo.so.0:_ZN12MediaInfoLib8File_Mxf24ChooseParser_SmpteSt0331ERKSt17_Rb_tree_iteratorISt4pairIKjNS0_7essenceEEERKS1_IS2_IKN6ZenLib7uint128ENS0_10descriptorEEE
libmediainfo.so.0:_ZN12MediaInfoLib8File_Mxf24ChooseParser_SmpteSt0337ERKSt17_Rb_tree_iteratorISt4pairIKjNS0_7essenceEEERKS1_IS2_IKN6ZenLib7uint128ENS0_10descriptorEEE
libmediainfo.so.0:_ZN12MediaInfoLib8File_Mxf24EventTrack_EventEditRateEv
libmediainfo.so.0:_ZN12MediaInfoLib8File_Mxf24GenericTrack_TrackNumberEv
libmediainfo.so.0:_ZN12MediaInfoLib8File_Mxf24Mpeg4VisualSubDescriptorEv
libmediainfo.so.0:_ZN12MediaInfoLib8File_Mxf24NetworkLocator_URLStringEv
libmediainfo.so.0:_ZN12MediaInfoLib8File_Mxf24Omneon_010201010100_8001Ev
libmediainfo.so.0:_ZN12MediaInfoLib8File_Mxf24Omneon_010201010100_8003Ev
libmediainfo.so.0:_ZN12MediaInfoLib8File_Mxf24Omneon_010201020100_8002Ev
libmediainfo.so.0:_ZN12MediaInfoLib8File_Mxf24Omneon_010201020100_8003Ev
libmediainfo.so.0:_ZN12MediaInfoLib8File_Mxf24Omneon_010201020100_8004Ev
libmediainfo.so.0:_ZN12MediaInfoLib8File_Mxf24Omneon_010201020100_8005Ev
libmediainfo.so.0:_ZN12MediaInfoLib8File_Mxf24Omneon_010201020100_8006Ev
libmediainfo.so.0:_ZN12MediaInfoLib8File_Mxf24Preface_LastModifiedDateEv
libmediainfo.so.0:_ZN12MediaInfoLib8File_Mxf24RFC5646AudioLanguageCodeEv
libmediainfo.so.0:_ZN12MediaInfoLib8File_Mxf24Read_Buffer_AfterParsingEv
libmediainfo.so.0:_ZN12MediaInfoLib8File_Mxf24SourceClip_SourceTrackIDEv
libmediainfo.so.0:_ZN12MediaInfoLib8File_Mxf24SourceClip_StartPositionEv
libmediainfo.so.0:_ZN12MediaInfoLib8File_Mxf24SourcePackage_DescriptorEv
libmediainfo.so.0:_ZN12MediaInfoLib8File_Mxf24Streams_Finish_ComponentEN6ZenLib7uint128Edjx
libmediainfo.so.0:_ZN12MediaInfoLib8File_Mxf24SystemScheme1_FrameCountEv
libmediainfo.so.0:_ZN12MediaInfoLib8File_Mxf24SystemScheme1_SampleRateEv
libmediainfo.so.0:_ZN12MediaInfoLib8File_Mxf25AS11_UKDPP_CompletionDateEv
libmediainfo.so.0:_ZN12MediaInfoLib8File_Mxf25AS11_UKDPP_SigningPresentEv
libmediainfo.so.0:_ZN12MediaInfoLib8File_Mxf25ChooseParser__Aaf_CP_DataERKSt17_Rb_tree_iteratorISt4pairIKjNS0_7essenceEEERKS1_IS2_IKN6ZenLib7uint128ENS0_10descriptorEEE
libmediainfo.so.0:_ZN12MediaInfoLib8File_Mxf25ChooseParser__Aaf_GC_DataERKSt17_Rb_tree_iteratorISt4pairIKjNS0_7essenceEEERKS1_IS2_IKN6ZenLib7uint128ENS0_10descriptorEEE
libmediainfo.so.0:_ZN12MediaInfoLib8File_Mxf25ChooseParser__FromEssenceERKSt17_Rb_tree_iteratorISt4pairIKjNS0_7essenceEEERKS1_IS2_IKN6ZenLib7uint128ENS0_10descriptorEEE
libmediainfo.so.0:_ZN12MediaInfoLib8File_Mxf25FileDescriptor_SampleRateEv
libmediainfo.so.0:_ZN12MediaInfoLib8File_Mxf25GenericPackage_PackageUIDEv
libmediainfo.so.0:_ZN12MediaInfoLib8File_Mxf25Identification_ProductUIDEv
libmediainfo.so.0:_ZN12MediaInfoLib8File_Mxf25IndexTableSegment_BodySIDEv
libmediainfo.so.0:_ZN12MediaInfoLib8File_Mxf25MasteringDisplayPrimariesEv
libmediainfo.so.0:_ZN12MediaInfoLib8File_Mxf25OpenCompleteBodyPartitionEv
libmediainfo.so.0:_ZN12MediaInfoLib8File_Mxf25Preface_EssenceContainersEv
libmediainfo.so.0:_ZN12MediaInfoLib8File_Mxf25Streams_Finish_DescriptorEN6ZenLib7uint128ES2_
libmediainfo.so.0:_ZN12MediaInfoLib8File_Mxf25SystemScheme1_ClipIDArrayEv
libmediainfo.so.0:_ZN12MediaInfoLib8File_Mxf26AES3PCMDescriptor_EmphasisEv
libmediainfo.so.0:_ZN12MediaInfoLib8File_Mxf26AS11_Core_AudioTrackLayoutEv
libmediainfo.so.0:_ZN12MediaInfoLib8File_Mxf26AS11_UKDPP_FpaManufacturerEv
libmediainfo.so.0:_ZN12MediaInfoLib8File_Mxf26AS11_UKDPP_IdentClockStartEv
libmediainfo.so.0:_ZN12MediaInfoLib8File_Mxf26AS11_UKDPP_OtherIdentifierEv
libmediainfo.so.0:_ZN12MediaInfoLib8File_Mxf26ChooseParser__Aaf_CP_SoundERKSt17_Rb_tree_iteratorISt4pairIKjNS0_7essenceEEERKS1_IS2_IKN6ZenLib7uint128ENS0_10descriptorEEE
libmediainfo.so.0:_ZN12MediaInfoLib8File_Mxf26ChooseParser__Aaf_GC_SoundERKSt17_Rb_tree_iteratorISt4pairIKjNS0_7essenceEEERKS1_IS2_IKN6ZenLib7uint128ENS0_10descriptorEEE
libmediainfo.so.0:_ZN12MediaInfoLib8File_Mxf26ChooseParser__Avid_PictureERKSt17_Rb_tree_iteratorISt4pairIKjNS0_7essenceEEERKS1_IS2_IKN6ZenLib7uint128ENS0_10descriptorEEE
libmediainfo.so.0:_ZN12MediaInfoLib8File_Mxf26ChooseParser__Sony_PictureERKSt17_Rb_tree_iteratorISt4pairIKjNS0_7essenceEEERKS1_IS2_IKN6ZenLib7uint128ENS0_10descriptorEEE
libmediainfo.so.0:_ZN12MediaInfoLib8File_Mxf26GenericDescriptor_LocatorsEv
libmediainfo.so.0:_ZN12MediaInfoLib8File_Mxf26Identification_CompanyNameEv
libmediainfo.so.0:_ZN12MediaInfoLib8File_Mxf26Identification_ProductNameEv
libmediainfo.so.0:_ZN12MediaInfoLib8File_Mxf26IndexTableSegment_IndexSIDEv
libmediainfo.so.0:_ZN12MediaInfoLib8File_Mxf26Preface_ObjectModelVersionEv
libmediainfo.so.0:_ZN12MediaInfoLib8File_Mxf26Preface_OperationalPatternEv
libmediainfo.so.0:_ZN12MediaInfoLib8File_Mxf26SourceClip_SourcePackageIDEv
libmediainfo.so.0:_ZN12MediaInfoLib8File_Mxf26WaveAudioDescriptor_AvgBpsEv
libmediainfo.so.0:_ZN12MediaInfoLib8File_Mxf27AS11_UKDPP_OpenCaptionsTypeEv
libmediainfo.so.0:_ZN12MediaInfoLib8File_Mxf27AS11_UKDPP_ProductPlacementEv
libmediainfo.so.0:_ZN12MediaInfoLib8File_Mxf27AS11_UKDPP_ProductionNumberEv
libmediainfo.so.0:_ZN12MediaInfoLib8File_Mxf27AS11_UKDPP_ProgrammeHasTextEv
libmediainfo.so.0:_ZN12MediaInfoLib8File_Mxf27AVCDescriptor_DecodingDelayEv
libmediainfo.so.0:_ZN12MediaInfoLib8File_Mxf27ApplicationReferencedObjectEv
libmediainfo.so.0:_ZN12MediaInfoLib8File_Mxf27ClosedCompleteBodyPartitionEv
libmediainfo.so.0:_ZN12MediaInfoLib8File_Mxf27Dolby_PHDRImageMetadataItemEv
libmediainfo.so.0:_ZN12MediaInfoLib8File_Mxf27GenerationInterchangeObjectEv
libmediainfo.so.0:_ZN12MediaInfoLib8File_Mxf27MPEG2VideoDescriptor_MaxGOPEv
libmediainfo.so.0:_ZN12MediaInfoLib8File_Mxf27MpegAudioDescriptor_BitRateEv
libmediainfo.so.0:_ZN12MediaInfoLib8File_Mxf27OpenCompleteFooterPartitionEv
libmediainfo.so.0:_ZN12MediaInfoLib8File_Mxf27OpenCompleteHeaderPartitionEv
libmediainfo.so.0:_ZN12MediaInfoLib8File_Mxf27OpenIncompleteBodyPartitionEv
libmediainfo.so.0:_ZN12MediaInfoLib8File_Mxf27SystemScheme1_TimeCodeArrayEv
libmediainfo.so.0:_ZN12MediaInfoLib8File_Mxf27TimecodeComponent_DropFrameEv
libmediainfo.so.0:_ZN12MediaInfoLib8File_Mxf28AS11_Core_ClosedCaptionsTypeEv
libmediainfo.so.0:_ZN12MediaInfoLib8File_Mxf28AS11_Core_EpisodeTitleNumberEv
libmediainfo.so.0:_ZN12MediaInfoLib8File_Mxf28AVCDescriptor_AverageBitRateEv
libmediainfo.so.0:_ZN12MediaInfoLib8File_Mxf28AVCDescriptor_MaximumBitRateEv
libmediainfo.so.0:_ZN12MediaInfoLib8File_Mxf28ChooseParser_ChannelGroupingERKSt17_Rb_tree_iteratorISt4pairIKjNS0_7essenceEEERKS1_IS2_IKN6ZenLib7uint128ENS0_10descriptorEEE
libmediainfo.so.0:_ZN12MediaInfoLib8File_Mxf28ChooseParser__Aaf_CP_PictureERKSt17_Rb_tree_iteratorISt4pairIKjNS0_7essenceEEERKS1_IS2_IKN6ZenLib7uint128ENS0_10descriptorEEE
libmediainfo.so.0:_ZN12MediaInfoLib8File_Mxf28ChooseParser__Aaf_GC_PictureERKSt17_Rb_tree_iteratorISt4pairIKjNS0_7essenceEEERKS1_IS2_IKN6ZenLib7uint128ENS0_10descriptorEEE
libmediainfo.so.0:_ZN12MediaInfoLib8File_Mxf28EssenceContainerData_BodySIDEv
libmediainfo.so.0:_ZN12MediaInfoLib8File_Mxf28FileDescriptor_LinkedTrackIDEv
libmediainfo.so.0:_ZN12MediaInfoLib8File_Mxf28GenericDataEssenceDescriptorEv
libmediainfo.so.0:_ZN12MediaInfoLib8File_Mxf28Identification_VersionStringEv
libmediainfo.so.0:_ZN12MediaInfoLib8File_Mxf28IndexTableSegment_SliceCountEv
libmediainfo.so.0:_ZN12MediaInfoLib8File_Mxf28JPEG2000PictureSubDescriptorEv
libmediainfo.so.0:_ZN12MediaInfoLib8File_Mxf28LensUnitMetadata_IrisFNumberEv
libmediainfo.so.0:_ZN12MediaInfoLib8File_Mxf28LensUnitMetadata_IrisTNumberEv
libmediainfo.so.0:_ZN12MediaInfoLib8File_Mxf28MPEG2VideoDescriptor_BitRateEv
libmediainfo.so.0:_ZN12MediaInfoLib8File_Mxf28Streams_Finish_Track_ForAS11EN6ZenLib7uint128E
libmediainfo.so.0:_ZN12MediaInfoLib8File_Mxf28StructuralComponent_DurationEv
libmediainfo.so.0:_ZN12MediaInfoLib8File_Mxf29AES3PCMDescriptor_AuxBitsModeEv
libmediainfo.so.0:_ZN12MediaInfoLib8File_Mxf29AS11_UKDPP_TotalNumberOfPartsEv
libmediainfo.so.0:_ZN12MediaInfoLib8File_Mxf29ChooseParser_ChannelSplittingERKSt17_Rb_tree_iteratorISt4pairIKjNS0_7essenceEEERKS1_IS2_IKN6ZenLib7uint128ENS0_10descriptorEEE
libmediainfo.so.0:_ZN12MediaInfoLib8File_Mxf29ChooseParser__Aaf_GC_CompoundERKSt17_Rb_tree_iteratorISt4pairIKjNS0_7essenceEEERKS1_IS2_IKN6ZenLib7uint128ENS0_10descriptorEEE
libmediainfo.so.0:_ZN12MediaInfoLib8File_Mxf29ClosedCompleteFooterPartitionEv
libmediainfo.so.0:_ZN12MediaInfoLib8File_Mxf29ClosedCompleteHeaderPartitionEv
libmediainfo.so.0:_ZN12MediaInfoLib8File_Mxf29ClosedIncompleteBodyPartitionEv
libmediainfo.so.0:_ZN12MediaInfoLib8File_Mxf29EssenceContainerData_IndexSIDEv
libmediainfo.so.0:_ZN12MediaInfoLib8File_Mxf29GenericSoundEssenceDescriptorEv
libmediainfo.so.0:_ZN12MediaInfoLib8File_Mxf29GroupOfSoundfieldGroupsLinkIDEv
libmediainfo.so.0:_ZN12MediaInfoLib8File_Mxf29Identification_ProductVersionEv
libmediainfo.so.0:_ZN12MediaInfoLib8File_Mxf29Identification_ToolkitVersionEv
libmediainfo.so.0:_ZN12MediaInfoLib8File_Mxf29InterchangeObject_InstanceUIDEv
libmediainfo.so.0:_ZN12MediaInfoLib8File_Mxf29LensUnitMetadata_MacroSettingEv
libmediainfo.so.0:_ZN12MediaInfoLib8File_Mxf29MPEG2VideoDescriptor_LowDelayEv
libmediainfo.so.0:_ZN12MediaInfoLib8File_Mxf29OpenIncompleteFooterPartitionEv
libmediainfo.so.0:_ZN12MediaInfoLib8File_Mxf29OpenIncompleteHeaderPartitionEv
libmediainfo.so.0:_ZN12MediaInfoLib8File_Mxf29PrimaryExtendedSpokenLanguageEv
libmediainfo.so.0:_ZN12MediaInfoLib8File_Mxf29RGBAEssenceDescriptor_PaletteEv
libmediainfo.so.0:_ZN12MediaInfoLib8File_Mxf29Sequence_StructuralComponentsEv
libmediainfo.so.0:_ZN12MediaInfoLib8File_Mxf29Streams_Finish_ContentStorageEN6ZenLib7uint128E
libmediainfo.so.0:_ZN12MediaInfoLib8File_Mxf29Streams_Finish_Essence_FillIDEjN6ZenLib7uint128E
libmediainfo.so.0:_ZN12MediaInfoLib8File_Mxf29Streams_Finish_IdentificationEN6ZenLib7uint128E
libmediainfo.so.0:_ZN12MediaInfoLib8File_Mxf29SystemScheme1_VideoIndexArrayEv
libmediainfo.so.0:_ZN12MediaInfoLib8File_Mxf30AES3PCMDescriptor_UserDataModeEv
libmediainfo.so.0:_ZN12MediaInfoLib8File_Mxf30AS11_Core_PrimaryAudioLanguageEv
libmediainfo.so.0:_ZN12MediaInfoLib8File_Mxf30AS11_UKDPP_OpenCaptionsPresentEv
libmediainfo.so.0:_ZN12MediaInfoLib8File_Mxf30AS11_UKDPP_OtherIdentifierTypeEv
libmediainfo.so.0:_ZN12MediaInfoLib8File_Mxf30AVCDescriptor_MaximumRefFramesEv
libmediainfo.so.0:_ZN12MediaInfoLib8File_Mxf30AudioChannelLabelSubDescriptorEv
libmediainfo.so.0:_ZN12MediaInfoLib8File_Mxf30CameraUnitMetadata_ASC_CDL_V12Ev
libmediainfo.so.0:_ZN12MediaInfoLib8File_Mxf30CameraUnitMetadata_ColorMatrixEv
libmediainfo.so.0:_ZN12MediaInfoLib8File_Mxf30CameraUnitMetadata_GammaForCDLEv
libmediainfo.so.0:_ZN12MediaInfoLib8File_Mxf30MPEG2VideoDescriptor_ClosedGOPEv
libmediainfo.so.0:_ZN12MediaInfoLib8File_Mxf30OriginalExtendedSpokenLanguageEv
libmediainfo.so.0:_ZN12MediaInfoLib8File_Mxf30Streams_Finish_CommercialNamesEv
libmediainfo.so.0:_ZN12MediaInfoLib8File_Mxf30Streams_Finish_Package_ForAS11EN6ZenLib7uint128E
libmediainfo.so.0:_ZN12MediaInfoLib8File_Mxf30TimedTextResourceSubDescriptorEv
libmediainfo.so.0:_ZN12MediaInfoLib8File_Mxf30UserDefinedAcquisitionMetadataEv
libmediainfo.so.0:_ZN12MediaInfoLib8File_Mxf30WaveAudioDescriptor_BlockAlignEv
libmediainfo.so.0:_ZN12MediaInfoLib8File_Mxf30WaveAudioDescriptor_PeakFramesEv
libmediainfo.so.0:_ZN12MediaInfoLib8File_Mxf31AES3PCMDescriptor_FixedUserDataEv
libmediainfo.so.0:_ZN12MediaInfoLib8File_Mxf31AS11_Core_ClosedCaptionsPresentEv
libmediainfo.so.0:_ZN12MediaInfoLib8File_Mxf31AS11_UKDPP_AudioDescriptionTypeEv
libmediainfo.so.0:_ZN12MediaInfoLib8File_Mxf31AS11_UKDPP_OpenCaptionsLanguageEv
libmediainfo.so.0:_ZN12MediaInfoLib8File_Mxf31AVCDescriptor_ProfileConstraintEv
libmediainfo.so.0:_ZN12MediaInfoLib8File_Mxf31CameraUnitMetadata_WhiteBalanceEv
libmediainfo.so.0:_ZN12MediaInfoLib8File_Mxf31ClosedIncompleteFooterPartitionEv
libmediainfo.so.0:_ZN12MediaInfoLib8File_Mxf31ClosedIncompleteHeaderPartitionEv
libmediainfo.so.0:_ZN12MediaInfoLib8File_Mxf31FileDescriptor_EssenceContainerEv
libmediainfo.so.0:_ZN12MediaInfoLib8File_Mxf31GenericPictureEssenceDescriptorEv
libmediainfo.so.0:_ZN12MediaInfoLib8File_Mxf31Identification_ModificationDateEv
libmediainfo.so.0:_ZN12MediaInfoLib8File_Mxf31IndexTableSegment_IndexDurationEv
libmediainfo.so.0:_ZN12MediaInfoLib8File_Mxf31IndexTableSegment_IndexEditRateEv
libmediainfo.so.0:_ZN12MediaInfoLib8File_Mxf31IndexTableSegment_PosTableCountEv
libmediainfo.so.0:_ZN12MediaInfoLib8File_Mxf31LensUnitMetadata_LensAttributesEv
libmediainfo.so.0:_ZN12MediaInfoLib8File_Mxf31SecondaryExtendedSpokenLanguageEv
libmediainfo.so.0:_ZN12MediaInfoLib8File_Mxf31TimecodeComponent_StartTimecodeEv
libmediainfo.so.0:_ZN12MediaInfoLib8File_Mxf32AS11_Core_ClosedCaptionsLanguageEv
libmediainfo.so.0:_ZN12MediaInfoLib8File_Mxf32AS11_UKDPP_AudioLoudnessStandardEv
libmediainfo.so.0:_ZN12MediaInfoLib8File_Mxf32AS11_UKDPP_ProgrammeTextLanguageEv
libmediainfo.so.0:_ZN12MediaInfoLib8File_Mxf32AS11_UKDPP_TertiaryAudioLanguageEv
libmediainfo.so.0:_ZN12MediaInfoLib8File_Mxf32AS11_UKDPP_TextlessElementsExistEv
libmediainfo.so.0:_ZN12MediaInfoLib8File_Mxf32CDCIEssenceDescriptor_ColorRangeEv
libmediainfo.so.0:_ZN12MediaInfoLib8File_Mxf32FileDescriptor_ContainerDurationEv
libmediainfo.so.0:_ZN12MediaInfoLib8File_Mxf32Identification_ThisGenerationUIDEv
libmediainfo.so.0:_ZN12MediaInfoLib8File_Mxf32MasteringDisplayMaximumLuminanceEv
libmediainfo.so.0:_ZN12MediaInfoLib8File_Mxf32MasteringDisplayMinimumLuminanceEv
libmediainfo.so.0:_ZN12MediaInfoLib8File_Mxf32StereoscopicPictureSubDescriptorEv
libmediainfo.so.0:_ZN12MediaInfoLib8File_Mxf32Streams_Finish_Component_ForAS11EN6ZenLib7uint128Edjx
libmediainfo.so.0:_ZN12MediaInfoLib8File_Mxf32Streams_Finish_Track_ForTimeCodeEN6ZenLib7uint128Eb
libmediainfo.so.0:_ZN12MediaInfoLib8File_Mxf32SystemScheme1_EssenceTrackNumberEv
libmediainfo.so.0:_ZN12MediaInfoLib8File_Mxf32WaveAudioDescriptor_PeakChannelsEv
libmediainfo.so.0:_ZN12MediaInfoLib8File_Mxf33AS11_UKDPP_ContactTelephoneNumberEv
libmediainfo.so.0:_ZN12MediaInfoLib8File_Mxf33AS11_UKDPP_SecondaryAudioLanguageEv
libmediainfo.so.0:_ZN12MediaInfoLib8File_Mxf33AS11_UKDPP_TotalProgrammeDurationEv
libmediainfo.so.0:_ZN12MediaInfoLib8File_Mxf33CDCIEssenceDescriptor_ColorSitingEv
libmediainfo.so.0:_ZN12MediaInfoLib8File_Mxf33CDCIEssenceDescriptor_PaddingBitsEv
libmediainfo.so.0:_ZN12MediaInfoLib8File_Mxf33CameraUnitMetadata_ISOSensitivityEv
libmediainfo.so.0:_ZN12MediaInfoLib8File_Mxf33ChooseParser_DolbyVisionFrameDataERKSt17_Rb_tree_iteratorISt4pairIKjNS0_7essenceEEERKS1_IS2_IKN6ZenLib7uint128ENS0_10descriptorEEE
libmediainfo.so.0:_ZN12MediaInfoLib8File_Mxf33ContainerConstraintsSubDescriptorEv
libmediainfo.so.0:_ZN12MediaInfoLib8File_Mxf33IndexTableSegment_DeltaEntryArrayEv
libmediainfo.so.0:_ZN12MediaInfoLib8File_Mxf33IndexTableSegment_IndexEntryArrayEv
libmediainfo.so.0:_ZN12MediaInfoLib8File_Mxf33JPEG2000PictureSubDescriptor_CsizEv
libmediainfo.so.0:_ZN12MediaInfoLib8File_Mxf33JPEG2000PictureSubDescriptor_RsizEv
libmediainfo.so.0:_ZN12MediaInfoLib8File_Mxf33JPEG2000PictureSubDescriptor_XsizEv
libmediainfo.so.0:_ZN12MediaInfoLib8File_Mxf33JPEG2000PictureSubDescriptor_YsizEv
libmediainfo.so.0:_ZN12MediaInfoLib8File_Mxf33LensUnitMetadata_IrisRingPositionEv
libmediainfo.so.0:_ZN12MediaInfoLib8File_Mxf33LensUnitMetadata_ZoomRingPositionEv
libmediainfo.so.0:_ZN12MediaInfoLib8File_Mxf33MPEG2VideoDescriptor_IdenticalGOPEv
libmediainfo.so.0:_ZN12MediaInfoLib8File_Mxf33RGBAEssenceDescriptor_AlphaMaxRefEv
libmediainfo.so.0:_ZN12MediaInfoLib8File_Mxf33RGBAEssenceDescriptor_AlphaMinRefEv
libmediainfo.so.0:_ZN12MediaInfoLib8File_Mxf33RGBAEssenceDescriptor_PixelLayoutEv
libmediainfo.so.0:_ZN12MediaInfoLib8File_Mxf33SoundfieldGroupLabelSubDescriptorEv
libmediainfo.so.0:_ZN12MediaInfoLib8File_Mxf33SystemScheme1_ExtendedClipIDArrayEv
libmediainfo.so.0:_ZN12MediaInfoLib8File_Mxf33SystemScheme1_KLVMetadataSequenceEv
libmediainfo.so.0:_ZN12MediaInfoLib8File_Mxf34AES3PCMDescriptor_BlockStartOffsetEv
libmediainfo.so.0:_ZN12MediaInfoLib8File_Mxf34AS11_UKDPP_AudioDescriptionPresentEv
libmediainfo.so.0:_ZN12MediaInfoLib8File_Mxf34CameraUnitMetadata_CameraKneePointEv
libmediainfo.so.0:_ZN12MediaInfoLib8File_Mxf34CameraUnitMetadata_CameraKneeSlopeEv
libmediainfo.so.0:_ZN12MediaInfoLib8File_Mxf34ChooseParser__FromEssenceContainerERKSt17_Rb_tree_iteratorISt4pairIKjNS0_7essenceEEERKS1_IS2_IKN6ZenLib7uint128ENS0_10descriptorEEE
libmediainfo.so.0:_ZN12MediaInfoLib8File_Mxf34GenericPackage_PackageCreationDateEv
libmediainfo.so.0:_ZN12MediaInfoLib8File_Mxf34GenericPackage_PackageModifiedDateEv
libmediainfo.so.0:_ZN12MediaInfoLib8File_Mxf34JPEG2000PictureSubDescriptor_XOsizEv
libmediainfo.so.0:_ZN12MediaInfoLib8File_Mxf34JPEG2000PictureSubDescriptor_XTsizEv
libmediainfo.so.0:_ZN12MediaInfoLib8File_Mxf34JPEG2000PictureSubDescriptor_YOsizEv
libmediainfo.so.0:_ZN12MediaInfoLib8File_Mxf34JPEG2000PictureSubDescriptor_YTsizEv
libmediainfo.so.0:_ZN12MediaInfoLib8File_Mxf34LensUnitMetadata_FocusRingPositionEv
libmediainfo.so.0:_ZN12MediaInfoLib8File_Mxf34MPEG2VideoDescriptor_BPictureCountEv
libmediainfo.so.0:_ZN12MediaInfoLib8File_Mxf34MultipleDescriptor_FileDescriptorsEv
libmediainfo.so.0:_ZN12MediaInfoLib8File_Mxf34Read_Buffer_CheckFileModificationsEv
libmediainfo.so.0:_ZN12MediaInfoLib8File_Mxf34Streams_Finish_Package_ForTimeCodeEN6ZenLib7uint128E
libmediainfo.so.0:_ZN12MediaInfoLib8File_Mxf34Streams_Finish_Preface_ForTimeCodeEN6ZenLib7uint128E
libmediainfo.so.0:_ZN12MediaInfoLib8File_Mxf34StructuralComponent_DataDefinitionEv
libmediainfo.so.0:_ZN12MediaInfoLib8File_Mxf34WaveAudioDescriptor_SequenceOffsetEv
libmediainfo.so.0:_ZN12MediaInfoLib8File_Mxf35AES3PCMDescriptor_ChannelStatusModeEv
libmediainfo.so.0:_ZN12MediaInfoLib8File_Mxf35CDCIEssenceDescriptor_BlackRefLevelEv
libmediainfo.so.0:_ZN12MediaInfoLib8File_Mxf35CDCIEssenceDescriptor_WhiteReflevelEv
libmediainfo.so.0:_ZN12MediaInfoLib8File_Mxf35CameraUnitMetadata_AutoExposureModeEv
libmediainfo.so.0:_ZN12MediaInfoLib8File_Mxf35CameraUnitMetadata_CameraAttributesEv
libmediainfo.so.0:_ZN12MediaInfoLib8File_Mxf35CameraUnitMetadata_CaptureFrameRateEv
libmediainfo.so.0:_ZN12MediaInfoLib8File_Mxf35ContentStorage_EssenceContainerDataEv
libmediainfo.so.0:_ZN12MediaInfoLib8File_Mxf35IndexTableSegment_EditUnitByteCountEv
libmediainfo.so.0:_ZN12MediaInfoLib8File_Mxf35JPEG2000PictureSubDescriptor_XTOsizEv
libmediainfo.so.0:_ZN12MediaInfoLib8File_Mxf35JPEG2000PictureSubDescriptor_YTOsizEv
libmediainfo.so.0:_ZN12MediaInfoLib8File_Mxf35MPEG2VideoDescriptor_SingleSequenceEv
libmediainfo.so.0:_ZN12MediaInfoLib8File_Mxf35RGBAEssenceDescriptor_PaletteLayoutEv
libmediainfo.so.0:_ZN12MediaInfoLib8File_Mxf36CDCIEssenceDescriptor_ComponentDepthEv
libmediainfo.so.0:_ZN12MediaInfoLib8File_Mxf36CameraUnitMetadata_ShutterSpeed_TimeEv
libmediainfo.so.0:_ZN12MediaInfoLib8File_Mxf36Dolby_PHDRMetadataTrackSubDescriptorEv
libmediainfo.so.0:_ZN12MediaInfoLib8File_Mxf36GenericSoundEssenceDescriptor_LockedEv
libmediainfo.so.0:_ZN12MediaInfoLib8File_Mxf36IndexTableSegment_IndexStartPositionEv
libmediainfo.so.0:_ZN12MediaInfoLib8File_Mxf36MPEG2VideoDescriptor_ConstantBFramesEv
libmediainfo.so.0:_ZN12MediaInfoLib8File_Mxf36MPEG2VideoDescriptor_ProfileAndLevelEv
libmediainfo.so.0:_ZN12MediaInfoLib8File_Mxf36Streams_Finish_Component_ForTimeCodeEN6ZenLib7uint128EdjxbRKNS1_6ZtringE
libmediainfo.so.0:_ZN12MediaInfoLib8File_Mxf36WaveAudioDescriptor_PeakEnvelopeDataEv
libmediainfo.so.0:_ZN12MediaInfoLib8File_Mxf37AVCDescriptor_PictureParameterSetFlagEv
libmediainfo.so.0:_ZN12MediaInfoLib8File_Mxf37CameraUnitMetadata_ShutterSpeed_AngleEv
libmediainfo.so.0:_ZN12MediaInfoLib8File_Mxf37EssenceContainerData_LinkedPackageUIDEv
libmediainfo.so.0:_ZN12MediaInfoLib8File_Mxf37MPEG2VideoDescriptor_CodedContentTypeEv
libmediainfo.so.0:_ZN12MediaInfoLib8File_Mxf37Mpeg4VisualDescriptor_ProfileAndLevelEv
libmediainfo.so.0:_ZN12MediaInfoLib8File_Mxf37RGBAEssenceDescriptor_ComponentMaxRefEv
libmediainfo.so.0:_ZN12MediaInfoLib8File_Mxf37RGBAEssenceDescriptor_ComponentMinRefEv
libmediainfo.so.0:_ZN12MediaInfoLib8File_Mxf37Streams_Finish_ContentStorage_ForAS11EN6ZenLib7uint128E
libmediainfo.so.0:_ZN12MediaInfoLib8File_Mxf37SystemScheme1_EssenceTrackNumberBatchEv
libmediainfo.so.0:_ZN12MediaInfoLib8File_Mxf37TimecodeComponent_RoundedTimecodeBaseEv
libmediainfo.so.0:_ZN12MediaInfoLib8File_Mxf37WaveAudioDescriptor_ChannelAssignmentEv
libmediainfo.so.0:_ZN12MediaInfoLib8File_Mxf38AVCDescriptor_SequenceParameterSetFlagEv
libmediainfo.so.0:_ZN12MediaInfoLib8File_Mxf38CDCIEssenceDescriptor_AlphaSampleDepthEv
libmediainfo.so.0:_ZN12MediaInfoLib8File_Mxf38GenericSoundEssenceDescriptor_DialNormEv
libmediainfo.so.0:_ZN12MediaInfoLib8File_Mxf38MasteringDisplayWhitePointChromaticityEv
libmediainfo.so.0:_ZN12MediaInfoLib8File_Mxf38SystemScheme1_ContentPackageIndexArrayEv
libmediainfo.so.0:_ZN12MediaInfoLib8File_Mxf38WaveAudioDescriptor_PeakEnvelopeFormatEv
libmediainfo.so.0:_ZN12MediaInfoLib8File_Mxf38WaveAudioDescriptor_PointsPerPeakValueEv
libmediainfo.so.0:_ZN12MediaInfoLib8File_Mxf39CDCIEssenceDescriptor_ReversedByteOrderEv
libmediainfo.so.0:_ZN12MediaInfoLib8File_Mxf39CameraUnitMetadata_AutoWhiteBalanceModeEv
libmediainfo.so.0:_ZN12MediaInfoLib8File_Mxf39CameraUnitMetadata_CameraSettingFileURIEv
libmediainfo.so.0:_ZN12MediaInfoLib8File_Mxf39CameraUnitMetadata_CaptureGammaEquationEv
libmediainfo.so.0:_ZN12MediaInfoLib8File_Mxf39RGBAEssenceDescriptor_ScanningDirectionEv
libmediainfo.so.0:_ZN12MediaInfoLib8File_Mxf39SecondaryOriginalExtendedSpokenLanguageEv
libmediainfo.so.0:_ZN12MediaInfoLib8File_Mxf39WaveAudioDescriptor_PeakEnvelopeVersionEv
libmediainfo.so.0:_ZN12MediaInfoLib8File_Mxf39WaveAudioDescriptor_PeakOfPeaksPositionEv
libmediainfo.so.0:_ZN12MediaInfoLib8File_Mxf40AES3PCMDescriptor_FixedChannelStatusDataEv
libmediainfo.so.0:_ZN12MediaInfoLib8File_Mxf40UserDefinedAcquisitionMetadata_Sony_E101Ev
libmediainfo.so.0:_ZN12MediaInfoLib8File_Mxf40UserDefinedAcquisitionMetadata_Sony_E102Ev
libmediainfo.so.0:_ZN12MediaInfoLib8File_Mxf40UserDefinedAcquisitionMetadata_Sony_E103Ev
libmediainfo.so.0:_ZN12MediaInfoLib8File_Mxf40UserDefinedAcquisitionMetadata_Sony_E104Ev
libmediainfo.so.0:_ZN12MediaInfoLib8File_Mxf40UserDefinedAcquisitionMetadata_Sony_E105Ev
libmediainfo.so.0:_ZN12MediaInfoLib8File_Mxf40UserDefinedAcquisitionMetadata_Sony_E106Ev
libmediainfo.so.0:_ZN12MediaInfoLib8File_Mxf40UserDefinedAcquisitionMetadata_Sony_E107Ev
libmediainfo.so.0:_ZN12MediaInfoLib8File_Mxf40UserDefinedAcquisitionMetadata_Sony_E109Ev
libmediainfo.so.0:_ZN12MediaInfoLib8File_Mxf40UserDefinedAcquisitionMetadata_Sony_E10BEv
libmediainfo.so.0:_ZN12MediaInfoLib8File_Mxf40UserDefinedAcquisitionMetadata_Sony_E201Ev
libmediainfo.so.0:_ZN12MediaInfoLib8File_Mxf40UserDefinedAcquisitionMetadata_Sony_E202Ev
libmediainfo.so.0:_ZN12MediaInfoLib8File_Mxf40UserDefinedAcquisitionMetadata_Sony_E203Ev
libmediainfo.so.0:_ZN12MediaInfoLib8File_Mxf41CDCIEssenceDescriptor_VerticalSubsamplingEv
libmediainfo.so.0:_ZN12MediaInfoLib8File_Mxf41CameraUnitMetadata_CameraMasterBlackLevelEv
libmediainfo.so.0:_ZN12MediaInfoLib8File_Mxf41CameraUnitMetadata_ImageSensorReadoutModeEv
libmediainfo.so.0:_ZN12MediaInfoLib8File_Mxf41GenerationInterchangeObject_GenerationUIDEv
libmediainfo.so.0:_ZN12MediaInfoLib8File_Mxf41GroupOfSoundfieldGroupsLabelSubDescriptorEv
libmediainfo.so.0:_ZN12MediaInfoLib8File_Mxf41Streams_Finish_ContentStorage_ForTimeCodeEN6ZenLib7uint128E
libmediainfo.so.0:_ZN12MediaInfoLib8File_Mxf41WaveAudioDescriptor_PeakEnvelopeBlockSizeEv
libmediainfo.so.0:_ZN12MediaInfoLib8File_Mxf41WaveAudioDescriptor_PeakEnvelopeTimestampEv
libmediainfo.so.0:_ZN12MediaInfoLib8File_Mxf42GenericSoundEssenceDescriptor_ChannelCountEv
libmediainfo.so.0:_ZN12MediaInfoLib8File_Mxf42LensUnitMetadata_LensZoomActualFocalLengthEv
libmediainfo.so.0:_ZN12MediaInfoLib8File_Mxf43CDCIEssenceDescriptor_HorizontalSubsamplingEv
libmediainfo.so.0:_ZN12MediaInfoLib8File_Mxf43GenericPictureEssenceDescriptor_AspectRatioEv
libmediainfo.so.0:_ZN12MediaInfoLib8File_Mxf43GenericPictureEssenceDescriptor_FrameLayoutEv
libmediainfo.so.0:_ZN12MediaInfoLib8File_Mxf43GenericPictureEssenceDescriptor_StoredWidthEv
libmediainfo.so.0:_ZN12MediaInfoLib8File_Mxf43GenericSoundEssenceDescriptor_AudioRefLevelEv
libmediainfo.so.0:_ZN12MediaInfoLib8File_Mxf44CameraUnitMetadata_ExposureIndexofPhotoMeterEv
libmediainfo.so.0:_ZN12MediaInfoLib8File_Mxf44GenericPictureEssenceDescriptor_DisplayWidthEv
libmediainfo.so.0:_ZN12MediaInfoLib8File_Mxf44GenericPictureEssenceDescriptor_SampledWidthEv
libmediainfo.so.0:_ZN12MediaInfoLib8File_Mxf44GenericPictureEssenceDescriptor_StoredHeightEv
libmediainfo.so.0:_ZN12MediaInfoLib8File_Mxf44GenericPictureEssenceDescriptor_VideoLineMapEv
libmediainfo.so.0:_ZN12MediaInfoLib8File_Mxf44LensUnitMetadata_FocusPositionFromImagePlaneEv
libmediainfo.so.0:_ZN12MediaInfoLib8File_Mxf45CameraUnitMetadata_CameraMasterGainAdjustmentEv
libmediainfo.so.0:_ZN12MediaInfoLib8File_Mxf45GenericPictureEssenceDescriptor_DisplayHeightEv
libmediainfo.so.0:_ZN12MediaInfoLib8File_Mxf45GenericPictureEssenceDescriptor_SampledHeightEv
libmediainfo.so.0:_ZN12MediaInfoLib8File_Mxf45LensUnitMetadata_OpticalExtenderMagnificationEv
libmediainfo.so.0:_ZN12MediaInfoLib8File_Mxf46CameraUnitMetadata_AutoFocusSensingAreaSettingEv
libmediainfo.so.0:_ZN12MediaInfoLib8File_Mxf46CameraUnitMetadata_CameraLuminanceDynamicRangeEv
libmediainfo.so.0:_ZN12MediaInfoLib8File_Mxf46GenericDataEssenceDescriptor_DataEssenceCodingEv
libmediainfo.so.0:_ZN12MediaInfoLib8File_Mxf46GenericPictureEssenceDescriptor_ColorPrimariesEv
libmediainfo.so.0:_ZN12MediaInfoLib8File_Mxf46GenericPictureEssenceDescriptor_DisplayXOffsetEv
libmediainfo.so.0:_ZN12MediaInfoLib8File_Mxf46GenericPictureEssenceDescriptor_DisplayYOffsetEv
libmediainfo.so.0:_ZN12MediaInfoLib8File_Mxf46GenericPictureEssenceDescriptor_FieldDominanceEv
libmediainfo.so.0:_ZN12MediaInfoLib8File_Mxf46GenericPictureEssenceDescriptor_ImageEndOffsetEv
libmediainfo.so.0:_ZN12MediaInfoLib8File_Mxf46GenericPictureEssenceDescriptor_SampledXOffsetEv
libmediainfo.so.0:_ZN12MediaInfoLib8File_Mxf46GenericPictureEssenceDescriptor_SampledYOffsetEv
libmediainfo.so.0:_ZN12MediaInfoLib8File_Mxf46GenericPictureEssenceDescriptor_SignalStandardEv
libmediainfo.so.0:_ZN12MediaInfoLib8File_Mxf46GenericPictureEssenceDescriptor_StoredF2OffsetEv
libmediainfo.so.0:_ZN12MediaInfoLib8File_Mxf46GenericSoundEssenceDescriptor_QuantizationBitsEv
libmediainfo.so.0:_ZN12MediaInfoLib8File_Mxf47GenericPictureEssenceDescriptor_CodingEquationsEv
libmediainfo.so.0:_ZN12MediaInfoLib8File_Mxf47GenericPictureEssenceDescriptor_DisplayF2OffsetEv
libmediainfo.so.0:_ZN12MediaInfoLib8File_Mxf47GenericSoundEssenceDescriptor_AudioSamplingRateEv
libmediainfo.so.0:_ZN12MediaInfoLib8File_Mxf47JPEG2000PictureSubDescriptor_CodingStyleDefaultEv
libmediainfo.so.0:_ZN12MediaInfoLib8File_Mxf48GenericPictureEssenceDescriptor_ImageStartOffsetEv
libmediainfo.so.0:_ZN12MediaInfoLib8File_Mxf48JPEG2000PictureSubDescriptor_QuantizationDefaultEv
libmediainfo.so.0:_ZN12MediaInfoLib8File_Mxf48UserDefinedAcquisitionMetadata_UdamSetIdentifierEv
libmediainfo.so.0:_ZN12MediaInfoLib8File_Mxf49GenericPictureEssenceDescriptor_AlphaTransparencyEv
libmediainfo.so.0:_ZN12MediaInfoLib8File_Mxf49LensUnitMetadata_FocusPositionFromFrontLensVertexEv
libmediainfo.so.0:_ZN12MediaInfoLib8File_Mxf50CameraUnitMetadata_ElectricalExtenderMagnificationEv
libmediainfo.so.0:_ZN12MediaInfoLib8File_Mxf50LensUnitMetadata_LensZoom35mmStillCameraEquivalentEv
libmediainfo.so.0:_ZN12MediaInfoLib8File_Mxf51CameraUnitMetadata_NeutralDensityFilterWheelSettingEv
libmediainfo.so.0:_ZN12MediaInfoLib8File_Mxf51JPEG2000PictureSubDescriptor_PictureComponentSizingEv
libmediainfo.so.0:_ZN12MediaInfoLib8File_Mxf52CameraUnitMetadata_ColorCorrectionFilterWheelSettingEv
libmediainfo.so.0:_ZN12MediaInfoLib8File_Mxf52GenericPictureEssenceDescriptor_ImageAlignmentOffsetEv
libmediainfo.so.0:_ZN12MediaInfoLib8File_Mxf52GenericPictureEssenceDescriptor_PictureEssenceCodingEv
libmediainfo.so.0:_ZN12MediaInfoLib8File_Mxf53CameraUnitMetadata_ImageSensorDimensionEffectiveWidthEv
libmediainfo.so.0:_ZN12MediaInfoLib8File_Mxf53GenericSoundEssenceDescriptor_SoundEssenceCompressionEv
libmediainfo.so.0:_ZN12MediaInfoLib8File_Mxf54CameraUnitMetadata_ImageSensorDimensionEffectiveHeightEv
libmediainfo.so.0:_ZN12MediaInfoLib8File_Mxf54GenericPictureEssenceDescriptor_ActiveFormatDescriptorEv
libmediainfo.so.0:_ZN12MediaInfoLib8File_Mxf54GenericPictureEssenceDescriptor_TransferCharacteristicEv
libmediainfo.so.0:_ZN12MediaInfoLib8File_Mxf55GenericSoundEssenceDescriptor_ElectroSpatialFormulationEv
libmediainfo.so.0:_ZN12MediaInfoLib8File_Mxf6FillerEv
libmediainfo.so.0:_ZN12MediaInfoLib8File_Mxf6Get_ULERN6ZenLib7uint128EPKcPFS5_S2_E
libmediainfo.so.0:_ZN12MediaInfoLib8File_Mxf6PrimerEv
libmediainfo.so.0:_ZN12MediaInfoLib8File_Mxf6VectorEj
libmediainfo.so.0:_ZN12MediaInfoLib8File_Mxf7Get_BERERyPKc
libmediainfo.so.0:_ZN12MediaInfoLib8File_Mxf7PrefaceEv
libmediainfo.so.0:_ZN12MediaInfoLib8File_Mxf7Skip_ULEPKc
libmediainfo.so.0:_ZN12MediaInfoLib8File_Mxf8DMFillerEv
libmediainfo.so.0:_ZN12MediaInfoLib8File_Mxf8Get_UMIDERNS0_7int256uEPKc
libmediainfo.so.0:_ZN12MediaInfoLib8File_Mxf8MCATitleEv
libmediainfo.so.0:_ZN12MediaInfoLib8File_Mxf8SequenceEv
libmediainfo.so.0:_ZN12MediaInfoLib8File_Mxf9DMScheme1Ev
libmediainfo.so.0:_ZN12MediaInfoLib8File_Mxf9DMSegmentEv
libmediainfo.so.0:_ZN12MediaInfoLib8File_Mxf9MCALinkIDEv
libmediainfo.so.0:_ZN12MediaInfoLib8File_Mxf9Skip_UMIDEv
libmediainfo.so.0:_ZN12MediaInfoLib8File_MxfC1Ev
libmediainfo.so.0:_ZN12MediaInfoLib8File_MxfC2Ev
libmediainfo.so.0:_ZN12MediaInfoLib8File_MxfD0Ev
libmediainfo.so.0:_ZN12MediaInfoLib8File_MxfD1Ev
libmediainfo.so.0:_ZN12MediaInfoLib8File_MxfD2Ev
libmediainfo.so.0:_ZN12MediaInfoLib8File_N1910Data_ParseEv
libmediainfo.so.0:_ZN12MediaInfoLib8File_N1912Header_ParseEv
libmediainfo.so.0:_ZN12MediaInfoLib8File_N1916FileHeader_BeginEv
libmediainfo.so.0:_ZN12MediaInfoLib8File_N1916FileHeader_ParseEv
libmediainfo.so.0:_ZN12MediaInfoLib8File_N1916Read_Buffer_SeekEmyy
libmediainfo.so.0:_ZN12MediaInfoLib8File_N19C1Ev
libmediainfo.so.0:_ZN12MediaInfoLib8File_N19C2Ev
libmediainfo.so.0:_ZN12MediaInfoLib8File_N19D0Ev
libmediainfo.so.0:_ZN12MediaInfoLib8File_N19D1Ev
libmediainfo.so.0:_ZN12MediaInfoLib8File_N19D2Ev
libmediainfo.so.0:_ZN12MediaInfoLib8File_Nut10Data_ParseEv
libmediainfo.so.0:_ZN12MediaInfoLib8File_Nut12Header_ParseEv
libmediainfo.so.0:_ZN12MediaInfoLib8File_Nut16FileHeader_ParseEv
libmediainfo.so.0:_ZN12MediaInfoLib8File_Nut4infoEv
libmediainfo.so.0:_ZN12MediaInfoLib8File_Nut4mainEv
libmediainfo.so.0:_ZN12MediaInfoLib8File_Nut5indexEv
libmediainfo.so.0:_ZN12MediaInfoLib8File_Nut6streamEv
libmediainfo.so.0:_ZN12MediaInfoLib8File_Nut9syncpointEv
libmediainfo.so.0:_ZN12MediaInfoLib8File_Ogg10Data_ParseEv
libmediainfo.so.0:_ZN12MediaInfoLib8File_Ogg11SynchronizeEv
libmediainfo.so.0:_ZN12MediaInfoLib8File_Ogg12Header_ParseEv
libmediainfo.so.0:_ZN12MediaInfoLib8File_Ogg12Streams_FillEv
libmediainfo.so.0:_ZN12MediaInfoLib8File_Ogg12Synched_TestEv
libmediainfo.so.0:_ZN12MediaInfoLib8File_Ogg14Streams_FinishEv
libmediainfo.so.0:_ZN12MediaInfoLib8File_Ogg16FileHeader_BeginEv
libmediainfo.so.0:_ZN12MediaInfoLib8File_OggC1Ev
libmediainfo.so.0:_ZN12MediaInfoLib8File_OggC2Ev
libmediainfo.so.0:_ZN12MediaInfoLib8File_Pcm10Data_ParseEv
libmediainfo.so.0:_ZN12MediaInfoLib8File_Pcm12Header_ParseEv
libmediainfo.so.0:_ZN12MediaInfoLib8File_Pcm12Streams_FillEv
libmediainfo.so.0:_ZN12MediaInfoLib8File_Pcm14Streams_FinishEv
libmediainfo.so.0:_ZN12MediaInfoLib8File_Pcm16FileHeader_BeginEv
libmediainfo.so.0:_ZN12MediaInfoLib8File_Pcm20Read_Buffer_ContinueEv
libmediainfo.so.0:_ZN12MediaInfoLib8File_PcmC1Ev
libmediainfo.so.0:_ZN12MediaInfoLib8File_PcmC2Ev
libmediainfo.so.0:_ZN12MediaInfoLib8File_Pcx16FileHeader_BeginEv
libmediainfo.so.0:_ZN12MediaInfoLib8File_Pcx20Read_Buffer_ContinueEv
libmediainfo.so.0:_ZN12MediaInfoLib8File_Pdf10Data_ParseEv
libmediainfo.so.0:_ZN12MediaInfoLib8File_Pdf10SizeOfLineEv
libmediainfo.so.0:_ZN12MediaInfoLib8File_Pdf11Object_InfoEv
libmediainfo.so.0:_ZN12MediaInfoLib8File_Pdf11Object_RootEv
libmediainfo.so.0:_ZN12MediaInfoLib8File_Pdf12Header_BeginEv
libmediainfo.so.0:_ZN12MediaInfoLib8File_Pdf12Header_ParseEv
libmediainfo.so.0:_ZN12MediaInfoLib8File_Pdf14Streams_AcceptEv
libmediainfo.so.0:_ZN12MediaInfoLib8File_Pdf15Object_MetadataEv
libmediainfo.so.0:_ZN12MediaInfoLib8File_Pdf16FileHeader_BeginEv
libmediainfo.so.0:_ZN12MediaInfoLib8File_Pdf16FileHeader_ParseEv
libmediainfo.so.0:_ZN12MediaInfoLib8File_Pdf20Read_Buffer_ContinueEv
libmediainfo.so.0:_ZN12MediaInfoLib8File_Pdf3eofEv
libmediainfo.so.0:_ZN12MediaInfoLib8File_Pdf4xrefEv
libmediainfo.so.0:_ZN12MediaInfoLib8File_Pdf7trailerEv
libmediainfo.so.0:_ZN12MediaInfoLib8File_Pdf8Get_NextERNSt7__cxx1112basic_stringIcSt11char_traitsIcESaIcEEERN6ZenLib6ZtringE
libmediainfo.so.0:_ZN12MediaInfoLib8File_Pdf9startxrefEv
libmediainfo.so.0:_ZN12MediaInfoLib8File_PdfC1Ev
libmediainfo.so.0:_ZN12MediaInfoLib8File_PdfC2Ev
libmediainfo.so.0:_ZN12MediaInfoLib8File_Pgs12Streams_FillEv
libmediainfo.so.0:_ZN12MediaInfoLib8File_Pgs20Read_Buffer_ContinueEv
libmediainfo.so.0:_ZN12MediaInfoLib8File_Pmp16FileHeader_BeginEv
libmediainfo.so.0:_ZN12MediaInfoLib8File_Pmp16FileHeader_ParseEv
libmediainfo.so.0:_ZN12MediaInfoLib8File_Png10Data_ParseEv
libmediainfo.so.0:_ZN12MediaInfoLib8File_Png12Header_ParseEv
libmediainfo.so.0:_ZN12MediaInfoLib8File_Png14Streams_AcceptEv
libmediainfo.so.0:_ZN12MediaInfoLib8File_Png16FileHeader_BeginEv
libmediainfo.so.0:_ZN12MediaInfoLib8File_Png21Read_Buffer_UnsynchedEv
libmediainfo.so.0:_ZN12MediaInfoLib8File_Png4IENDEv
libmediainfo.so.0:_ZN12MediaInfoLib8File_Png4IHDREv
libmediainfo.so.0:_ZN12MediaInfoLib8File_Png9SignatureEv
libmediainfo.so.0:_ZN12MediaInfoLib8File_PngC1Ev
libmediainfo.so.0:_ZN12MediaInfoLib8File_PngC2Ev
libmediainfo.so.0:_ZN12MediaInfoLib8File_Psd16FileHeader_BeginEv
libmediainfo.so.0:_ZN12MediaInfoLib8File_Psd20Read_Buffer_ContinueEv
libmediainfo.so.0:_ZN12MediaInfoLib8File_Ptx16FileHeader_BeginEv
libmediainfo.so.0:_ZN12MediaInfoLib8File_Ptx20Read_Buffer_ContinueEv
libmediainfo.so.0:_ZN12MediaInfoLib8File_Ptx21Is_FileName_ExceptionERKN6ZenLib6ZtringE
libmediainfo.so.0:_ZN12MediaInfoLib8File_PtxC1Ev
libmediainfo.so.0:_ZN12MediaInfoLib8File_PtxC2Ev
libmediainfo.so.0:_ZN12MediaInfoLib8File_Rar10Data_ParseEv
libmediainfo.so.0:_ZN12MediaInfoLib8File_Rar12Header_BeginEv
libmediainfo.so.0:_ZN12MediaInfoLib8File_Rar12Header_ParseEv
libmediainfo.so.0:_ZN12MediaInfoLib8File_Rar16FileHeader_BeginEv
libmediainfo.so.0:_ZN12MediaInfoLib8File_Rar18Header_Parse_FlagsEv
libmediainfo.so.0:_ZN12MediaInfoLib8File_Rar20Header_Parse_ContentEv
libmediainfo.so.0:_ZN12MediaInfoLib8File_Rar21Header_Parse_Flags_73Ev
libmediainfo.so.0:_ZN12MediaInfoLib8File_Rar21Header_Parse_Flags_74Ev
libmediainfo.so.0:_ZN12MediaInfoLib8File_Rar21Header_Parse_Flags_XXEv
libmediainfo.so.0:_ZN12MediaInfoLib8File_Rar23Header_Parse_Content_73Ev
libmediainfo.so.0:_ZN12MediaInfoLib8File_Rar23Header_Parse_Content_74Ev
libmediainfo.so.0:_ZN12MediaInfoLib8File_Rar23Header_Parse_Content_XXEv
libmediainfo.so.0:_ZN12MediaInfoLib8File_RarC1Ev
libmediainfo.so.0:_ZN12MediaInfoLib8File_RarC2Ev
libmediainfo.so.0:_ZN12MediaInfoLib8File_Rle12Streams_FillEv
libmediainfo.so.0:_ZN12MediaInfoLib8File_Rle20Read_Buffer_ContinueEv
libmediainfo.so.0:_ZN12MediaInfoLib8File_RleC1Ev
libmediainfo.so.0:_ZN12MediaInfoLib8File_RleC2Ev
libmediainfo.so.0:_ZN12MediaInfoLib8File_Scc10Data_ParseEv
libmediainfo.so.0:_ZN12MediaInfoLib8File_Scc12Header_ParseEv
libmediainfo.so.0:_ZN12MediaInfoLib8File_Scc14Streams_FinishEv
libmediainfo.so.0:_ZN12MediaInfoLib8File_Scc16FileHeader_BeginEv
libmediainfo.so.0:_ZN12MediaInfoLib8File_Scc16FileHeader_ParseEv
libmediainfo.so.0:_ZN12MediaInfoLib8File_Scc16Read_Buffer_SeekEmyy
libmediainfo.so.0:_ZN12MediaInfoLib8File_Scc21Read_Buffer_UnsynchedEv
libmediainfo.so.0:_ZN12MediaInfoLib8File_Scc24Read_Buffer_AfterParsingEv
libmediainfo.so.0:_ZN12MediaInfoLib8File_SccC1Ev
libmediainfo.so.0:_ZN12MediaInfoLib8File_SccC2Ev
libmediainfo.so.0:_ZN12MediaInfoLib8File_SccD0Ev
libmediainfo.so.0:_ZN12MediaInfoLib8File_SccD1Ev
libmediainfo.so.0:_ZN12MediaInfoLib8File_SccD2Ev
libmediainfo.so.0:_ZN12MediaInfoLib8File_Sdp10Data_ParseEv
libmediainfo.so.0:_ZN12MediaInfoLib8File_Sdp11SynchronizeEv
libmediainfo.so.0:_ZN12MediaInfoLib8File_Sdp12Header_ParseEv
libmediainfo.so.0:_ZN12MediaInfoLib8File_Sdp12Streams_FillEv
libmediainfo.so.0:_ZN12MediaInfoLib8File_Sdp12Synched_TestEv
libmediainfo.so.0:_ZN12MediaInfoLib8File_Sdp14Streams_FinishEv
libmediainfo.so.0:_ZN12MediaInfoLib8File_Sdp21Read_Buffer_UnsynchedEv
libmediainfo.so.0:_ZN12MediaInfoLib8File_SdpC1Ev
libmediainfo.so.0:_ZN12MediaInfoLib8File_SdpC2Ev
libmediainfo.so.0:_ZN12MediaInfoLib8File_SdpD0Ev
libmediainfo.so.0:_ZN12MediaInfoLib8File_SdpD1Ev
libmediainfo.so.0:_ZN12MediaInfoLib8File_SdpD2Ev
libmediainfo.so.0:_ZN12MediaInfoLib8File_Skm10Data_ParseEv
libmediainfo.so.0:_ZN12MediaInfoLib8File_Skm12Header_ParseEv
libmediainfo.so.0:_ZN12MediaInfoLib8File_Skm12Synched_TestEv
libmediainfo.so.0:_ZN12MediaInfoLib8File_Skm14Streams_FinishEv
libmediainfo.so.0:_ZN12MediaInfoLib8File_Skm16FileHeader_BeginEv
libmediainfo.so.0:_ZN12MediaInfoLib8File_Skm16FileHeader_ParseEv
libmediainfo.so.0:_ZN12MediaInfoLib8File_Skm22Header_Parse_Fill_SizeEv
libmediainfo.so.0:_ZN12MediaInfoLib8File_SkmC1Ev
libmediainfo.so.0:_ZN12MediaInfoLib8File_SkmC2Ev
libmediainfo.so.0:_ZN12MediaInfoLib8File_Swf10Data_ParseEv
libmediainfo.so.0:_ZN12MediaInfoLib8File_Swf10DecompressEv
libmediainfo.so.0:_ZN12MediaInfoLib8File_Swf11DefineSoundEv
libmediainfo.so.0:_ZN12MediaInfoLib8File_Swf12DefineSpriteEv
libmediainfo.so.0:_ZN12MediaInfoLib8File_Swf12Header_ParseEv
libmediainfo.so.0:_ZN12MediaInfoLib8File_Swf15SoundStreamHeadEv
libmediainfo.so.0:_ZN12MediaInfoLib8File_Swf16FileHeader_BeginEv
libmediainfo.so.0:_ZN12MediaInfoLib8File_Swf16FileHeader_ParseEv
libmediainfo.so.0:_ZN12MediaInfoLib8File_Swf17DefineVideoStreamEv
libmediainfo.so.0:_ZN12MediaInfoLib8File_SwfC1Ev
libmediainfo.so.0:_ZN12MediaInfoLib8File_SwfC2Ev
libmediainfo.so.0:_ZN12MediaInfoLib8File_Tak10Data_ParseEv
libmediainfo.so.0:_ZN12MediaInfoLib8File_Tak10STREAMINFOEv
libmediainfo.so.0:_ZN12MediaInfoLib8File_Tak11ENCODERINFOEv
libmediainfo.so.0:_ZN12MediaInfoLib8File_Tak12Header_ParseEv
libmediainfo.so.0:_ZN12MediaInfoLib8File_Tak12WAVEMETADATAEv
libmediainfo.so.0:_ZN12MediaInfoLib8File_Tak13ENDOFMETADATAEv
libmediainfo.so.0:_ZN12MediaInfoLib8File_Tak16FileHeader_BeginEv
libmediainfo.so.0:_ZN12MediaInfoLib8File_Tak16FileHeader_ParseEv
libmediainfo.so.0:_ZN12MediaInfoLib8File_Tak9SEEKTABLEEv
libmediainfo.so.0:_ZN12MediaInfoLib8File_TakC1Ev
libmediainfo.so.0:_ZN12MediaInfoLib8File_TakC2Ev
libmediainfo.so.0:_ZN12MediaInfoLib8File_Tar20Read_Buffer_ContinueEv
libmediainfo.so.0:_ZN12MediaInfoLib8File_Tga12Streams_FillEv
libmediainfo.so.0:_ZN12MediaInfoLib8File_Tga15Tga_File_FooterEv
libmediainfo.so.0:_ZN12MediaInfoLib8File_Tga15Tga_File_HeaderEv
libmediainfo.so.0:_ZN12MediaInfoLib8File_Tga16FileHeader_BeginEv
libmediainfo.so.0:_ZN12MediaInfoLib8File_Tga20Image_Color_Map_DataEv
libmediainfo.so.0:_ZN12MediaInfoLib8File_Tga20Read_Buffer_ContinueEv
libmediainfo.so.0:_ZN12MediaInfoLib8File_TgaC1Ev
libmediainfo.so.0:_ZN12MediaInfoLib8File_TgaC2Ev
libmediainfo.so.0:_ZN12MediaInfoLib8File_Tta14Streams_FinishEv
libmediainfo.so.0:_ZN12MediaInfoLib8File_Tta16FileHeader_BeginEv
libmediainfo.so.0:_ZN12MediaInfoLib8File_Tta16FileHeader_ParseEv
libmediainfo.so.0:_ZN12MediaInfoLib8File_TtaC1Ev
libmediainfo.so.0:_ZN12MediaInfoLib8File_TtaC2Ev
libmediainfo.so.0:_ZN12MediaInfoLib8File_Umf16FileHeader_BeginEv
libmediainfo.so.0:_ZN12MediaInfoLib8File_Umf20Read_Buffer_ContinueEv
libmediainfo.so.0:_ZN12MediaInfoLib8File_UmfC1Ev
libmediainfo.so.0:_ZN12MediaInfoLib8File_UmfC2Ev
libmediainfo.so.0:_ZN12MediaInfoLib8File_Vbi14Streams_FinishEv
libmediainfo.so.0:_ZN12MediaInfoLib8File_Vbi20Read_Buffer_ContinueEv
libmediainfo.so.0:_ZN12MediaInfoLib8File_Vbi21Read_Buffer_UnsynchedEv
libmediainfo.so.0:_ZN12MediaInfoLib8File_VbiC1Ev
libmediainfo.so.0:_ZN12MediaInfoLib8File_VbiC2Ev
libmediainfo.so.0:_ZN12MediaInfoLib8File_VbiD0Ev
libmediainfo.so.0:_ZN12MediaInfoLib8File_VbiD1Ev
libmediainfo.so.0:_ZN12MediaInfoLib8File_VbiD2Ev
libmediainfo.so.0:_ZN12MediaInfoLib8File_Vc110Data_ParseEv
libmediainfo.so.0:_ZN12MediaInfoLib8File_Vc111FrameHeaderEv
libmediainfo.so.0:_ZN12MediaInfoLib8File_Vc112Header_ParseEv
libmediainfo.so.0:_ZN12MediaInfoLib8File_Vc112Streams_FillEv
libmediainfo.so.0:_ZN12MediaInfoLib8File_Vc112Synched_InitEv
libmediainfo.so.0:_ZN12MediaInfoLib8File_Vc112Synched_TestEv
libmediainfo.so.0:_ZN12MediaInfoLib8File_Vc113EndOfSequenceEv
libmediainfo.so.0:_ZN12MediaInfoLib8File_Vc114SequenceHeaderEv
libmediainfo.so.0:_ZN12MediaInfoLib8File_Vc114Streams_AcceptEv
libmediainfo.so.0:_ZN12MediaInfoLib8File_Vc114Streams_FinishEv
libmediainfo.so.0:_ZN12MediaInfoLib8File_Vc116EntryPointHeaderEv
libmediainfo.so.0:_ZN12MediaInfoLib8File_Vc116FileHeader_BeginEv
libmediainfo.so.0:_ZN12MediaInfoLib8File_Vc116UserDefinedFieldEv
libmediainfo.so.0:_ZN12MediaInfoLib8File_Vc116UserDefinedSliceEv
libmediainfo.so.0:_ZN12MediaInfoLib8File_Vc121Read_Buffer_UnsynchedEv
libmediainfo.so.0:_ZN12MediaInfoLib8File_Vc122UserDefinedFrameHeaderEv
libmediainfo.so.0:_ZN12MediaInfoLib8File_Vc123Header_Parser_Fill_SizeEv
libmediainfo.so.0:_ZN12MediaInfoLib8File_Vc125Header_Parser_QuickSearchEv
libmediainfo.so.0:_ZN12MediaInfoLib8File_Vc125UserDefinedSequenceHeaderEv
libmediainfo.so.0:_ZN12MediaInfoLib8File_Vc127UserDefinedEntryPointHeaderEv
libmediainfo.so.0:_ZN12MediaInfoLib8File_Vc131Demux_UnpacketizeContainer_TestEv
libmediainfo.so.0:_ZN12MediaInfoLib8File_Vc15FieldEv
libmediainfo.so.0:_ZN12MediaInfoLib8File_Vc15SliceEv
libmediainfo.so.0:_ZN12MediaInfoLib8File_Vc1C1Ev
libmediainfo.so.0:_ZN12MediaInfoLib8File_Vc1C2Ev
libmediainfo.so.0:_ZN12MediaInfoLib8File_Vc1D0Ev
libmediainfo.so.0:_ZN12MediaInfoLib8File_Vc1D1Ev
libmediainfo.so.0:_ZN12MediaInfoLib8File_Vc1D2Ev
libmediainfo.so.0:_ZN12MediaInfoLib8File_Vc310Data_ParseEv
libmediainfo.so.0:_ZN12MediaInfoLib8File_Vc310UserData_8Ev
libmediainfo.so.0:_ZN12MediaInfoLib8File_Vc312HeaderPrefixEv
libmediainfo.so.0:_ZN12MediaInfoLib8File_Vc312Header_BeginEv
libmediainfo.so.0:_ZN12MediaInfoLib8File_Vc312Header_ParseEv
libmediainfo.so.0:_ZN12MediaInfoLib8File_Vc312Streams_FillEv
libmediainfo.so.0:_ZN12MediaInfoLib8File_Vc313CompressionIDEv
libmediainfo.so.0:_ZN12MediaInfoLib8File_Vc313ImageGeometryEv
libmediainfo.so.0:_ZN12MediaInfoLib8File_Vc314CodingControlAEv
libmediainfo.so.0:_ZN12MediaInfoLib8File_Vc314CodingControlBEv
libmediainfo.so.0:_ZN12MediaInfoLib8File_Vc314Streams_FinishEv
libmediainfo.so.0:_ZN12MediaInfoLib8File_Vc321MacroblockScanIndicesEv
libmediainfo.so.0:_ZN12MediaInfoLib8File_Vc321Read_Buffer_UnsynchedEv
libmediainfo.so.0:_ZN12MediaInfoLib8File_Vc331Demux_UnpacketizeContainer_TestEv
libmediainfo.so.0:_ZN12MediaInfoLib8File_Vc38TimeCodeEv
libmediainfo.so.0:_ZN12MediaInfoLib8File_Vc38UserDataEv
libmediainfo.so.0:_ZN12MediaInfoLib8File_Vc3C1Ev
libmediainfo.so.0:_ZN12MediaInfoLib8File_Vc3C2Ev
libmediainfo.so.0:_ZN12MediaInfoLib8File_Vc3D0Ev
libmediainfo.so.0:_ZN12MediaInfoLib8File_Vc3D1Ev
libmediainfo.so.0:_ZN12MediaInfoLib8File_Vc3D2Ev
libmediainfo.so.0:_ZN12MediaInfoLib8File_Vp812Streams_FillEv
libmediainfo.so.0:_ZN12MediaInfoLib8File_Vp814Streams_AcceptEv
libmediainfo.so.0:_ZN12MediaInfoLib8File_Vp814Streams_FinishEv
libmediainfo.so.0:_ZN12MediaInfoLib8File_Vp814Streams_UpdateEv
libmediainfo.so.0:_ZN12MediaInfoLib8File_Vp820Read_Buffer_ContinueEv
libmediainfo.so.0:_ZN12MediaInfoLib8File_Vp8C1Ev
libmediainfo.so.0:_ZN12MediaInfoLib8File_Vp8C2Ev
libmediainfo.so.0:_ZN12MediaInfoLib8File_Vp8D0Ev
libmediainfo.so.0:_ZN12MediaInfoLib8File_Vp8D1Ev
libmediainfo.so.0:_ZN12MediaInfoLib8File_Vp8D2Ev
libmediainfo.so.0:_ZN12MediaInfoLib8File_Wtv14Streams_AcceptEv
libmediainfo.so.0:_ZN12MediaInfoLib8File_Wtv16FileHeader_BeginEv
libmediainfo.so.0:_ZN12MediaInfoLib8File_Wtv16FileHeader_ParseEv
libmediainfo.so.0:_ZN12MediaInfoLib8File_WtvC1Ev
libmediainfo.so.0:_ZN12MediaInfoLib8File_WtvC2Ev
libmediainfo.so.0:_ZN12MediaInfoLib8File_Xmp16FileHeader_BeginEv
libmediainfo.so.0:_ZN12MediaInfoLib8File_Y4m12Streams_FillEv
libmediainfo.so.0:_ZN12MediaInfoLib8File_Y4m14Streams_AcceptEv
libmediainfo.so.0:_ZN12MediaInfoLib8File_Y4m16FileHeader_BeginEv
libmediainfo.so.0:_ZN12MediaInfoLib8File_Y4m16FileHeader_ParseEv
libmediainfo.so.0:_ZN12MediaInfoLib8File_Y4mC1Ev
libmediainfo.so.0:_ZN12MediaInfoLib8File_Y4mC2Ev
libmediainfo.so.0:_ZN12MediaInfoLib8File_Y4mD0Ev
libmediainfo.so.0:_ZN12MediaInfoLib8File_Y4mD1Ev
libmediainfo.so.0:_ZN12MediaInfoLib8File_Y4mD2Ev
libmediainfo.so.0:_ZN12MediaInfoLib8File_Zip10local_fileEv
libmediainfo.so.0:_ZN12MediaInfoLib8File_Zip15data_descriptorEv
libmediainfo.so.0:_ZN12MediaInfoLib8File_Zip16FileHeader_BeginEv
libmediainfo.so.0:_ZN12MediaInfoLib8File_Zip17central_directoryEv
libmediainfo.so.0:_ZN12MediaInfoLib8File_Zip17digital_signatureEv
libmediainfo.so.0:_ZN12MediaInfoLib8File_Zip17local_file_headerEv
libmediainfo.so.0:_ZN12MediaInfoLib8File_Zip20Read_Buffer_ContinueEv
libmediainfo.so.0:_ZN12MediaInfoLib8File_Zip24end_of_central_directoryEv
libmediainfo.so.0:_ZN12MediaInfoLib8File_Zip25archive_extra_data_recordEv
libmediainfo.so.0:_ZN12MediaInfoLib8File_Zip37Zip64_end_of_central_directory_recordEv
libmediainfo.so.0:_ZN12MediaInfoLib8File_Zip38Zip64_end_of_central_directory_locatorEv
libmediainfo.so.0:_ZN12MediaInfoLib8File_Zip9file_dataEv
libmediainfo.so.0:_ZN12MediaInfoLib8TimeCode14ToMillisecondsEv
libmediainfo.so.0:_ZN12MediaInfoLib8TimeCode7PlusOneEv
libmediainfo.so.0:_ZN12MediaInfoLib8TimeCode8MinusOneEv
libmediainfo.so.0:_ZN12MediaInfoLib8TimeCode8ToFramesEv
libmediainfo.so.0:_ZN12MediaInfoLib8TimeCode8ToStringB5cxx11Ev
libmediainfo.so.0:_ZN12MediaInfoLib8TimeCodeC1Ehhhhhbbb
libmediainfo.so.0:_ZN12MediaInfoLib8TimeCodeC1Ev
libmediainfo.so.0:_ZN12MediaInfoLib8TimeCodeC1Exhbbb
libmediainfo.so.0:_ZN12MediaInfoLib8TimeCodeC2Ehhhhhbbb
libmediainfo.so.0:_ZN12MediaInfoLib8TimeCodeC2Ev
libmediainfo.so.0:_ZN12MediaInfoLib8TimeCodeC2Exhbbb
libmediainfo.so.0:_ZN12MediaInfoLib8Time_BCDEj
libmediainfo.so.0:_ZN12MediaInfoLib8resource14UpdateFileNameERKN6ZenLib6ZtringES4_
libmediainfo.so.0:_ZN12MediaInfoLib8resource32UpdateMetaDataFromSourceEncodingERKNSt7__cxx1112basic_stringIcSt11char_traitsIcESaIcEEES8_S8_
libmediainfo.so.0:_ZN12MediaInfoLib8resourceC1Ev
libmediainfo.so.0:_ZN12MediaInfoLib8resourceC2Ev
libmediainfo.so.0:_ZN12MediaInfoLib8resourceD1Ev
libmediainfo.so.0:_ZN12MediaInfoLib8resourceD2Ev
libmediainfo.so.0:_ZN12MediaInfoLib8sequence11AddFileNameERKN6ZenLib6ZtringEm
libmediainfo.so.0:_ZN12MediaInfoLib8sequence11AddResourceEPNS_8resourceEm
libmediainfo.so.0:_ZN12MediaInfoLib8sequence13FrameRate_SetEd
libmediainfo.so.0:_ZN12MediaInfoLib8sequence14UpdateFileNameERKN6ZenLib6ZtringES4_
libmediainfo.so.0:_ZN12MediaInfoLib8sequence32UpdateMetaDataFromSourceEncodingERKNSt7__cxx1112basic_stringIcSt11char_traitsIcESaIcEEES8_S8_
libmediainfo.so.0:_ZN12MediaInfoLib8sequenceC1Ev
libmediainfo.so.0:_ZN12MediaInfoLib8sequenceC2Ev
libmediainfo.so.0:_ZN12MediaInfoLib8sequenceD1Ev
libmediainfo.so.0:_ZN12MediaInfoLib8sequenceD2Ev
libmediainfo.so.0:_ZN12MediaInfoLib9Au_FormatEj
libmediainfo.so.0:_ZN12MediaInfoLib9Elf_osabiEh
libmediainfo.so.0:_ZN12MediaInfoLib9File_AvsV10Data_ParseEv
libmediainfo.so.0:_ZN12MediaInfoLib9File_AvsV10video_editEv
libmediainfo.so.0:_ZN12MediaInfoLib9File_AvsV12Header_ParseEv
libmediainfo.so.0:_ZN12MediaInfoLib9File_AvsV12Streams_FillEv
libmediainfo.so.0:_ZN12MediaInfoLib9File_AvsV12Synched_InitEv
libmediainfo.so.0:_ZN12MediaInfoLib9File_AvsV12Synched_TestEv
libmediainfo.so.0:_ZN12MediaInfoLib9File_AvsV13picture_startEv
libmediainfo.so.0:_ZN12MediaInfoLib9File_AvsV14Streams_FinishEv
libmediainfo.so.0:_ZN12MediaInfoLib9File_AvsV15extension_startEv
libmediainfo.so.0:_ZN12MediaInfoLib9File_AvsV15user_data_startEv
libmediainfo.so.0:_ZN12MediaInfoLib9File_AvsV18video_sequence_endEv
libmediainfo.so.0:_ZN12MediaInfoLib9File_AvsV20video_sequence_startEv
libmediainfo.so.0:_ZN12MediaInfoLib9File_AvsV23Header_Parser_Fill_SizeEv
libmediainfo.so.0:_ZN12MediaInfoLib9File_AvsV25Header_Parser_QuickSearchEv
libmediainfo.so.0:_ZN12MediaInfoLib9File_AvsV5sliceEv
libmediainfo.so.0:_ZN12MediaInfoLib9File_AvsV8reservedEv
libmediainfo.so.0:_ZN12MediaInfoLib9File_AvsVC1Ev
libmediainfo.so.0:_ZN12MediaInfoLib9File_AvsVC2Ev
libmediainfo.so.0:_ZN12MediaInfoLib9File_Bdmv12Indx_IndexesEv
libmediainfo.so.0:_ZN12MediaInfoLib9File_Bdmv13Mpls_PlayListEv
libmediainfo.so.0:_ZN12MediaInfoLib9File_Bdmv16Clpi_ProgramInfoEv
libmediainfo.so.0:_ZN12MediaInfoLib9File_Bdmv16FileHeader_BeginEv
libmediainfo.so.0:_ZN12MediaInfoLib9File_Bdmv16Indx_AppInfoBDMVEv
libmediainfo.so.0:_ZN12MediaInfoLib9File_Bdmv17Mobj_MovieObjectsEv
libmediainfo.so.0:_ZN12MediaInfoLib9File_Bdmv18Clpi_ExtensionDataEv
libmediainfo.so.0:_ZN12MediaInfoLib9File_Bdmv18Indx_ExtensionDataEv
libmediainfo.so.0:_ZN12MediaInfoLib9File_Bdmv18Indx_Indexes_IndexEh
libmediainfo.so.0:_ZN12MediaInfoLib9File_Bdmv18Mobj_ExtensionDataEv
libmediainfo.so.0:_ZN12MediaInfoLib9File_Bdmv18Mpls_ExtensionDataEv
libmediainfo.so.0:_ZN12MediaInfoLib9File_Bdmv18Mpls_PlayListMarksEv
libmediainfo.so.0:_ZN12MediaInfoLib9File_Bdmv20Mpls_AppInfoPlayListEv
libmediainfo.so.0:_ZN12MediaInfoLib9File_Bdmv20Read_Buffer_ContinueEv
libmediainfo.so.0:_ZN12MediaInfoLib9File_Bdmv21StreamCodingInfo_TextEv
libmediainfo.so.0:_ZN12MediaInfoLib9File_Bdmv22Mpls_PlayList_PlayItemEv
libmediainfo.so.0:_ZN12MediaInfoLib9File_Bdmv22StreamCodingInfo_AudioEv
libmediainfo.so.0:_ZN12MediaInfoLib9File_Bdmv22StreamCodingInfo_VideoEv
libmediainfo.so.0:_ZN12MediaInfoLib9File_Bdmv23Indx_ExtensionData_IDEXEv
libmediainfo.so.0:_ZN12MediaInfoLib9File_Bdmv25Mpls_PlayList_SubPlayItemEht
libmediainfo.so.0:_ZN12MediaInfoLib9File_Bdmv32Mpls_PlayList_PlayItem_STN_tableEv
libmediainfo.so.0:_ZN12MediaInfoLib9File_Bdmv34Mpls_ExtensionData_SubPath_entriesEv
libmediainfo.so.0:_ZN12MediaInfoLib9File_Bdmv37Mpls_PlayList_PlayItem_STN_table_TextEv
libmediainfo.so.0:_ZN12MediaInfoLib9File_Bdmv38Indx_ExtensionData_IDEX_UIAppInfoAVCHDEv
libmediainfo.so.0:_ZN12MediaInfoLib9File_Bdmv38Mpls_PlayList_PlayItem_STN_table_AudioEv
libmediainfo.so.0:_ZN12MediaInfoLib9File_Bdmv38Mpls_PlayList_PlayItem_STN_table_VideoEv
libmediainfo.so.0:_ZN12MediaInfoLib9File_Bdmv40Indx_ExtensionData_IDEX_TableOfPlayListsEv
libmediainfo.so.0:_ZN12MediaInfoLib9File_Bdmv41Indx_ExtensionData_IDEX_MakersPrivateDataEv
libmediainfo.so.0:_ZN12MediaInfoLib9File_Bdmv4BDMVEv
libmediainfo.so.0:_ZN12MediaInfoLib9File_Cdxa10Data_ParseEv
libmediainfo.so.0:_ZN12MediaInfoLib9File_Cdxa11SynchronizeEv
libmediainfo.so.0:_ZN12MediaInfoLib9File_Cdxa12Header_ParseEv
libmediainfo.so.0:_ZN12MediaInfoLib9File_Cdxa12Synched_TestEv
libmediainfo.so.0:_ZN12MediaInfoLib9File_Cdxa14Streams_FinishEv
libmediainfo.so.0:_ZN12MediaInfoLib9File_Cdxa16FileHeader_BeginEv
libmediainfo.so.0:_ZN12MediaInfoLib9File_Cdxa16FileHeader_ParseEv
libmediainfo.so.0:_ZN12MediaInfoLib9File_CdxaC1Ev
libmediainfo.so.0:_ZN12MediaInfoLib9File_CdxaC2Ev
libmediainfo.so.0:_ZN12MediaInfoLib9File_CdxaD0Ev
libmediainfo.so.0:_ZN12MediaInfoLib9File_CdxaD1Ev
libmediainfo.so.0:_ZN12MediaInfoLib9File_CdxaD2Ev
libmediainfo.so.0:_ZN12MediaInfoLib9File_Celt10Data_ParseEv
libmediainfo.so.0:_ZN12MediaInfoLib9File_Celt12Header_ParseEv
libmediainfo.so.0:_ZN12MediaInfoLib9File_Celt14IdentificationEv
libmediainfo.so.0:_ZN12MediaInfoLib9File_Celt7CommentEv
libmediainfo.so.0:_ZN12MediaInfoLib9File_CeltC1Ev
libmediainfo.so.0:_ZN12MediaInfoLib9File_CeltC2Ev
libmediainfo.so.0:_ZN12MediaInfoLib9File_Cmml10Data_ParseEv
libmediainfo.so.0:_ZN12MediaInfoLib9File_Cmml12Header_ParseEv
libmediainfo.so.0:_ZN12MediaInfoLib9File_Cmml13ConfigurationEv
libmediainfo.so.0:_ZN12MediaInfoLib9File_Cmml14IdentificationEv
libmediainfo.so.0:_ZN12MediaInfoLib9File_Dvdv10Data_ParseEv
libmediainfo.so.0:_ZN12MediaInfoLib9File_Dvdv10VMGM_C_ADTEv
libmediainfo.so.0:_ZN12MediaInfoLib9File_Dvdv10VTSM_C_ADTEv
libmediainfo.so.0:_ZN12MediaInfoLib9File_Dvdv10VTS_TMAPTIEv
libmediainfo.so.0:_ZN12MediaInfoLib9File_Dvdv12Get_DurationERyRKN6ZenLib6ZtringE
libmediainfo.so.0:_ZN12MediaInfoLib9File_Dvdv12Header_ParseEv
libmediainfo.so.0:_ZN12MediaInfoLib9File_Dvdv12MultiChannelEv
libmediainfo.so.0:_ZN12MediaInfoLib9File_Dvdv12VMGM_PGCI_UTEv
libmediainfo.so.0:_ZN12MediaInfoLib9File_Dvdv12VMG_PTL_MAITEv
libmediainfo.so.0:_ZN12MediaInfoLib9File_Dvdv12VMG_TXTDT_MGEv
libmediainfo.so.0:_ZN12MediaInfoLib9File_Dvdv12VMG_VTS_ATRTEv
libmediainfo.so.0:_ZN12MediaInfoLib9File_Dvdv12VTSM_PGCI_UTEv
libmediainfo.so.0:_ZN12MediaInfoLib9File_Dvdv12VTS_PTT_SRPTEv
libmediainfo.so.0:_ZN12MediaInfoLib9File_Dvdv14Streams_FinishEv
libmediainfo.so.0:_ZN12MediaInfoLib9File_Dvdv14VTS_VOBU_ADMAPEv
libmediainfo.so.0:_ZN12MediaInfoLib9File_Dvdv15VMGM_VOBU_ADMAPEv
libmediainfo.so.0:_ZN12MediaInfoLib9File_Dvdv15VTSM_VOBU_ADMAPEv
libmediainfo.so.0:_ZN12MediaInfoLib9File_Dvdv16FileHeader_ParseEv
libmediainfo.so.0:_ZN12MediaInfoLib9File_Dvdv3PGCEyb
libmediainfo.so.0:_ZN12MediaInfoLib9File_Dvdv3VMGEv
libmediainfo.so.0:_ZN12MediaInfoLib9File_Dvdv3VTSEv
libmediainfo.so.0:_ZN12MediaInfoLib9File_Dvdv4TextEv
libmediainfo.so.0:_ZN12MediaInfoLib9File_Dvdv5AudioEv
libmediainfo.so.0:_ZN12MediaInfoLib9File_Dvdv5VideoEv
libmediainfo.so.0:_ZN12MediaInfoLib9File_Dvdv7TT_SRPTEv
libmediainfo.so.0:_ZN12MediaInfoLib9File_Dvdv8Time_ADTEj
libmediainfo.so.0:_ZN12MediaInfoLib9File_Dvdv8VTS_PGCIEv
libmediainfo.so.0:_ZN12MediaInfoLib9File_Dvdv9VTS_C_ADTEv
libmediainfo.so.0:_ZN12MediaInfoLib9File_DvdvC1Ev
libmediainfo.so.0:_ZN12MediaInfoLib9File_DvdvC2Ev
libmediainfo.so.0:_ZN12MediaInfoLib9File_Ffv110ParametersEv
libmediainfo.so.0:_ZN12MediaInfoLib9File_Ffv110Skip_FrameEv
libmediainfo.so.0:_ZN12MediaInfoLib9File_Ffv111SliceHeaderERA32_h
libmediainfo.so.0:_ZN12MediaInfoLib9File_Ffv112SliceContentERA32_h
libmediainfo.so.0:_ZN12MediaInfoLib9File_Ffv114Streams_AcceptEv
libmediainfo.so.0:_ZN12MediaInfoLib9File_Ffv117QuantizationTableEm
libmediainfo.so.0:_ZN12MediaInfoLib9File_Ffv118golomb_rice_decodeEi
libmediainfo.so.0:_ZN12MediaInfoLib9File_Ffv118plane_states_cleanEPPPh
libmediainfo.so.0:_ZN12MediaInfoLib9File_Ffv120Read_Buffer_ContinueEv
libmediainfo.so.0:_ZN12MediaInfoLib9File_Ffv121Read_Buffer_OutOfBandEv
libmediainfo.so.0:_ZN12MediaInfoLib9File_Ffv126copy_plane_states_to_sliceEh
libmediainfo.so.0:_ZN12MediaInfoLib9File_Ffv127QuantizationTablePerContextEmmRi
libmediainfo.so.0:_ZN12MediaInfoLib9File_Ffv132get_symbol_with_bias_correlationEPNS_5Slice7ContextE
libmediainfo.so.0:_ZN12MediaInfoLib9File_Ffv13rgbEv
libmediainfo.so.0:_ZN12MediaInfoLib9File_Ffv14lineEiPPi
libmediainfo.so.0:_ZN12MediaInfoLib9File_Ffv15planeEj
libmediainfo.so.0:_ZN12MediaInfoLib9File_Ffv16Get_RBERA32_hRbPKc
libmediainfo.so.0:_ZN12MediaInfoLib9File_Ffv16Get_RSERA32_hRiPKc
libmediainfo.so.0:_ZN12MediaInfoLib9File_Ffv16Get_RSERPhRiPKc
libmediainfo.so.0:_ZN12MediaInfoLib9File_Ffv16Get_RUERA32_hRjPKc
libmediainfo.so.0:_ZN12MediaInfoLib9File_Ffv17Skip_RCERA32_hPKc
libmediainfo.so.0:_ZN12MediaInfoLib9File_Ffv17Skip_RSERA32_hPKc
libmediainfo.so.0:_ZN12MediaInfoLib9File_Ffv17Skip_RUERA32_hPKc
libmediainfo.so.0:_ZN12MediaInfoLib9File_Ffv18pixel_GREi
libmediainfo.so.0:_ZN12MediaInfoLib9File_Ffv18pixel_RCEi
libmediainfo.so.0:_ZN12MediaInfoLib9File_Ffv1C1Ev
libmediainfo.so.0:_ZN12MediaInfoLib9File_Ffv1C2Ev
libmediainfo.so.0:_ZN12MediaInfoLib9File_Ffv1D0Ev
libmediainfo.so.0:_ZN12MediaInfoLib9File_Ffv1D1Ev
libmediainfo.so.0:_ZN12MediaInfoLib9File_Ffv1D2Ev
libmediainfo.so.0:_ZN12MediaInfoLib9File_Flac10Data_ParseEv
libmediainfo.so.0:_ZN12MediaInfoLib9File_Flac10STREAMINFOEv
libmediainfo.so.0:_ZN12MediaInfoLib9File_Flac11APPLICATIONEv
libmediainfo.so.0:_ZN12MediaInfoLib9File_Flac12Header_ParseEv
libmediainfo.so.0:_ZN12MediaInfoLib9File_Flac14VORBIS_COMMENTEv
libmediainfo.so.0:_ZN12MediaInfoLib9File_Flac16FileHeader_BeginEv
libmediainfo.so.0:_ZN12MediaInfoLib9File_Flac16FileHeader_ParseEv
libmediainfo.so.0:_ZN12MediaInfoLib9File_Flac7PICTUREEv
libmediainfo.so.0:_ZN12MediaInfoLib9File_FlacC1Ev
libmediainfo.so.0:_ZN12MediaInfoLib9File_FlacC2Ev
libmediainfo.so.0:_ZN12MediaInfoLib9File_Flic16FileHeader_ParseEv
libmediainfo.so.0:_ZN12MediaInfoLib9File_Gzip16FileHeader_BeginEv
libmediainfo.so.0:_ZN12MediaInfoLib9File_Gzip20Read_Buffer_ContinueEv
libmediainfo.so.0:_ZN12MediaInfoLib9File_H26310Data_ParseEv
libmediainfo.so.0:_ZN12MediaInfoLib9File_H26311SynchronizeEv
libmediainfo.so.0:_ZN12MediaInfoLib9File_H26312Header_ParseEv
libmediainfo.so.0:_ZN12MediaInfoLib9File_H26312Streams_FillEv
libmediainfo.so.0:_ZN12MediaInfoLib9File_H26312Synched_InitEv
libmediainfo.so.0:_ZN12MediaInfoLib9File_H26312Synched_TestEv
libmediainfo.so.0:_ZN12MediaInfoLib9File_H26314Streams_AcceptEv
libmediainfo.so.0:_ZN12MediaInfoLib9File_H26314Streams_FinishEv
libmediainfo.so.0:_ZN12MediaInfoLib9File_H26314Streams_UpdateEv
libmediainfo.so.0:_ZN12MediaInfoLib9File_H26321Read_Buffer_UnsynchedEv
libmediainfo.so.0:_ZN12MediaInfoLib9File_H26323Header_Parser_Fill_SizeEv
libmediainfo.so.0:_ZN12MediaInfoLib9File_H263C1Ev
libmediainfo.so.0:_ZN12MediaInfoLib9File_H263C2Ev
libmediainfo.so.0:_ZN12MediaInfoLib9File_H263D0Ev
libmediainfo.so.0:_ZN12MediaInfoLib9File_H263D1Ev
libmediainfo.so.0:_ZN12MediaInfoLib9File_H263D2Ev
libmediainfo.so.0:_ZN12MediaInfoLib9File_Hevc10Data_ParseEv
libmediainfo.so.0:_ZN12MediaInfoLib9File_Hevc10end_of_seqEv
libmediainfo.so.0:_ZN12MediaInfoLib9File_Hevc11SynchronizeEv
libmediainfo.so.0:_ZN12MediaInfoLib9File_Hevc11VPS_SPS_PPSEv
libmediainfo.so.0:_ZN12MediaInfoLib9File_Hevc11filler_dataEv
libmediainfo.so.0:_ZN12MediaInfoLib9File_Hevc11sei_messageERj
libmediainfo.so.0:_ZN12MediaInfoLib9File_Hevc12Header_ParseEv
libmediainfo.so.0:_ZN12MediaInfoLib9File_Hevc12Streams_FillEN9__gnu_cxx17__normal_iteratorIPPNS0_24seq_parameter_set_structESt6vectorIS4_SaIS4_EEEE
libmediainfo.so.0:_ZN12MediaInfoLib9File_Hevc12Streams_FillEv
libmediainfo.so.0:_ZN12MediaInfoLib9File_Hevc12Synched_InitEv
libmediainfo.so.0:_ZN12MediaInfoLib9File_Hevc12Synched_TestEv
libmediainfo.so.0:_ZN12MediaInfoLib9File_Hevc14Streams_FinishEv
libmediainfo.so.0:_ZN12MediaInfoLib9File_Hevc14hrd_parametersEbhRPNS0_24seq_parameter_set_struct21vui_parameters_struct10xxl_commonERPNS2_3xxlES8_
libmediainfo.so.0:_ZN12MediaInfoLib9File_Hevc14vui_parametersEN9__gnu_cxx17__normal_iteratorIPPNS0_26video_parameter_set_structESt6vectorIS4_SaIS4_EEEERPNS0_24seq_parameter_set_struct21vui_parameters_structE
libmediainfo.so.0:_ZN12MediaInfoLib9File_Hevc16FileHeader_BeginEv
libmediainfo.so.0:_ZN12MediaInfoLib9File_Hevc16end_of_bitstreamEv
libmediainfo.so.0:_ZN12MediaInfoLib9File_Hevc17pic_parameter_setEv
libmediainfo.so.0:_ZN12MediaInfoLib9File_Hevc17scaling_list_dataEv
libmediainfo.so.0:_ZN12MediaInfoLib9File_Hevc17seq_parameter_setEv
libmediainfo.so.0:_ZN12MediaInfoLib9File_Hevc18profile_tier_levelEh
libmediainfo.so.0:_ZN12MediaInfoLib9File_Hevc18rbsp_trailing_bitsEv
libmediainfo.so.0:_ZN12MediaInfoLib9File_Hevc19Clean_Seq_ParameterEv
libmediainfo.so.0:_ZN12MediaInfoLib9File_Hevc19slice_segment_layerEv
libmediainfo.so.0:_ZN12MediaInfoLib9File_Hevc19video_parameter_setEv
libmediainfo.so.0:_ZN12MediaInfoLib9File_Hevc20slice_segment_headerEv
libmediainfo.so.0:_ZN12MediaInfoLib9File_Hevc21Read_Buffer_UnsynchedEv
libmediainfo.so.0:_ZN12MediaInfoLib9File_Hevc21access_unit_delimiterEv
libmediainfo.so.0:_ZN12MediaInfoLib9File_Hevc22sei_message_pic_timingERjj
libmediainfo.so.0:_ZN12MediaInfoLib9File_Hevc23Header_Parser_Fill_SizeEv
libmediainfo.so.0:_ZN12MediaInfoLib9File_Hevc23sei_message_light_levelEv
libmediainfo.so.0:_ZN12MediaInfoLib9File_Hevc23short_term_ref_pic_setsEh
libmediainfo.so.0:_ZN12MediaInfoLib9File_Hevc24VPS_SPS_PPS_FromMatroskaEv
libmediainfo.so.0:_ZN12MediaInfoLib9File_Hevc24sub_layer_hrd_parametersEPNS0_24seq_parameter_set_struct21vui_parameters_struct10xxl_commonEhhjRPNS2_3xxlE
libmediainfo.so.0:_ZN12MediaInfoLib9File_Hevc25Header_Parser_QuickSearchEv
libmediainfo.so.0:_ZN12MediaInfoLib9File_Hevc26sei_message_recovery_pointEv
libmediainfo.so.0:_ZN12MediaInfoLib9File_Hevc28sei_message_buffering_periodERjj
libmediainfo.so.0:_ZN12MediaInfoLib9File_Hevc31Demux_UnpacketizeContainer_TestEv
libmediainfo.so.0:_ZN12MediaInfoLib9File_Hevc32sei_message_buffering_period_xxlEPNS0_24seq_parameter_set_struct21vui_parameters_struct10xxl_commonEbPNS2_3xxlE
libmediainfo.so.0:_ZN12MediaInfoLib9File_Hevc32sei_message_decoded_picture_hashEj
libmediainfo.so.0:_ZN12MediaInfoLib9File_Hevc33sei_message_active_parameter_setsEv
libmediainfo.so.0:_ZN12MediaInfoLib9File_Hevc34sei_message_user_data_unregisteredEj
libmediainfo.so.0:_ZN12MediaInfoLib9File_Hevc39sei_message_user_data_unregistered_x265Ej
libmediainfo.so.0:_ZN12MediaInfoLib9File_Hevc3seiEv
libmediainfo.so.0:_ZN12MediaInfoLib9File_Hevc40sei_alternative_transfer_characteristicsEv
libmediainfo.so.0:_ZN12MediaInfoLib9File_Hevc40sei_message_user_data_unregistered_AtemeEj
libmediainfo.so.0:_ZN12MediaInfoLib9File_Hevc42sei_message_user_data_registered_itu_t_t35Ev
libmediainfo.so.0:_ZN12MediaInfoLib9File_Hevc43sei_message_mastering_display_colour_volumeEv
libmediainfo.so.0:_ZN12MediaInfoLib9File_Hevc45sei_message_user_data_registered_itu_t_t35_B5Ev
libmediainfo.so.0:_ZN12MediaInfoLib9File_Hevc50sei_message_user_data_registered_itu_t_t35_B5_003AEv
libmediainfo.so.0:_ZN12MediaInfoLib9File_Hevc50sei_message_user_data_registered_itu_t_t35_B5_003CEv
libmediainfo.so.0:_ZN12MediaInfoLib9File_Hevc53sei_message_user_data_registered_itu_t_t35_B5_003A_00Ev
libmediainfo.so.0:_ZN12MediaInfoLib9File_Hevc53sei_message_user_data_registered_itu_t_t35_B5_003A_02Ev
libmediainfo.so.0:_ZN12MediaInfoLib9File_Hevc55sei_message_user_data_registered_itu_t_t35_B5_003C_0001Ev
libmediainfo.so.0:_ZN12MediaInfoLib9File_Hevc58sei_message_user_data_registered_itu_t_t35_B5_003C_0001_04Ev
libmediainfo.so.0:_ZN12MediaInfoLib9File_Hevc8EndOfxPSEPKcS2_
libmediainfo.so.0:_ZN12MediaInfoLib9File_HevcC1Ev
libmediainfo.so.0:_ZN12MediaInfoLib9File_HevcC2Ev
libmediainfo.so.0:_ZN12MediaInfoLib9File_HevcD0Ev
libmediainfo.so.0:_ZN12MediaInfoLib9File_HevcD1Ev
libmediainfo.so.0:_ZN12MediaInfoLib9File_HevcD2Ev
libmediainfo.so.0:_ZN12MediaInfoLib9File_Jpeg10Data_ParseEv
libmediainfo.so.0:_ZN12MediaInfoLib9File_Jpeg11APPE_Adobe0Ev
libmediainfo.so.0:_ZN12MediaInfoLib9File_Jpeg11SynchronizeEv
libmediainfo.so.0:_ZN12MediaInfoLib9File_Jpeg12APP0_JFFF_1BEv
libmediainfo.so.0:_ZN12MediaInfoLib9File_Jpeg12APP0_JFFF_3BEv
libmediainfo.so.0:_ZN12MediaInfoLib9File_Jpeg12Header_ParseEv
libmediainfo.so.0:_ZN12MediaInfoLib9File_Jpeg12Synched_InitEv
libmediainfo.so.0:_ZN12MediaInfoLib9File_Jpeg12Synched_TestEv
libmediainfo.so.0:_ZN12MediaInfoLib9File_Jpeg14APP0_JFFF_JPEGEv
libmediainfo.so.0:_ZN12MediaInfoLib9File_Jpeg14Streams_AcceptEv
libmediainfo.so.0:_ZN12MediaInfoLib9File_Jpeg14Streams_FinishEv
libmediainfo.so.0:_ZN12MediaInfoLib9File_Jpeg16APP2_ICC_PROFILEEv
libmediainfo.so.0:_ZN12MediaInfoLib9File_Jpeg16FileHeader_BeginEv
libmediainfo.so.0:_ZN12MediaInfoLib9File_Jpeg20Read_Buffer_ContinueEv
libmediainfo.so.0:_ZN12MediaInfoLib9File_Jpeg21Read_Buffer_UnsynchedEv
libmediainfo.so.0:_ZN12MediaInfoLib9File_Jpeg23Header_Parser_Fill_SizeEv
libmediainfo.so.0:_ZN12MediaInfoLib9File_Jpeg26APP2_ICC_PROFILE_XYZNumberEv
libmediainfo.so.0:_ZN12MediaInfoLib9File_Jpeg31Demux_UnpacketizeContainer_TestEv
libmediainfo.so.0:_ZN12MediaInfoLib9File_Jpeg33APP2_ICC_PROFILE_s15Fixed16NumberEPKc
libmediainfo.so.0:_ZN12MediaInfoLib9File_Jpeg3CODEv
libmediainfo.so.0:_ZN12MediaInfoLib9File_Jpeg3QCDEv
libmediainfo.so.0:_ZN12MediaInfoLib9File_Jpeg3SIZEv
libmediainfo.so.0:_ZN12MediaInfoLib9File_Jpeg3SODEv
libmediainfo.so.0:_ZN12MediaInfoLib9File_Jpeg3SOSEv
libmediainfo.so.0:_ZN12MediaInfoLib9File_Jpeg4APP0Ev
libmediainfo.so.0:_ZN12MediaInfoLib9File_Jpeg4APP1Ev
libmediainfo.so.0:_ZN12MediaInfoLib9File_Jpeg4APP2Ev
libmediainfo.so.0:_ZN12MediaInfoLib9File_Jpeg4APPEEv
libmediainfo.so.0:_ZN12MediaInfoLib9File_Jpeg4SOF_Ev
libmediainfo.so.0:_ZN12MediaInfoLib9File_Jpeg9APP0_AVI1Ev
libmediainfo.so.0:_ZN12MediaInfoLib9File_Jpeg9APP0_JFFFEv
libmediainfo.so.0:_ZN12MediaInfoLib9File_Jpeg9APP0_JFIFEv
libmediainfo.so.0:_ZN12MediaInfoLib9File_Jpeg9APP1_EXIFEv
libmediainfo.so.0:_ZN12MediaInfoLib9File_JpegC1Ev
libmediainfo.so.0:_ZN12MediaInfoLib9File_JpegC2Ev
libmediainfo.so.0:_ZN12MediaInfoLib9File_Kate10Data_ParseEv
libmediainfo.so.0:_ZN12MediaInfoLib9File_Kate14IdentificationEv
libmediainfo.so.0:_ZN12MediaInfoLib9File_Midi20Read_Buffer_ContinueEv
libmediainfo.so.0:_ZN12MediaInfoLib9File_Opus10Data_ParseEv
libmediainfo.so.0:_ZN12MediaInfoLib9File_Opus12Header_ParseEv
libmediainfo.so.0:_ZN12MediaInfoLib9File_Opus14IdentificationEv
libmediainfo.so.0:_ZN12MediaInfoLib9File_Opus6StreamEv
libmediainfo.so.0:_ZN12MediaInfoLib9File_OpusC1Ev
libmediainfo.so.0:_ZN12MediaInfoLib9File_OpusC2Ev
libmediainfo.so.0:_ZN12MediaInfoLib9File_Riff10Data_ParseEv
libmediainfo.so.0:_ZN12MediaInfoLib9File_Riff10Parser_PcmERNS0_6streamEtttjc
libmediainfo.so.0:_ZN12MediaInfoLib9File_Riff12Header_BeginEv
libmediainfo.so.0:_ZN12MediaInfoLib9File_Riff12Header_ParseEv
libmediainfo.so.0:_ZN12MediaInfoLib9File_Riff13TimeCode_FillERKN6ZenLib6ZtringES4_
libmediainfo.so.0:_ZN12MediaInfoLib9File_Riff14AVIX_movi_rec_Ev
libmediainfo.so.0:_ZN12MediaInfoLib9File_Riff14AVIX_movi_xxxxEv
libmediainfo.so.0:_ZN12MediaInfoLib9File_Riff14AVI__INFO_IID3Ev
libmediainfo.so.0:_ZN12MediaInfoLib9File_Riff14AVI__INFO_ILYCEv
libmediainfo.so.0:_ZN12MediaInfoLib9File_Riff14AVI__INFO_IMP3Ev
libmediainfo.so.0:_ZN12MediaInfoLib9File_Riff14AVI__INFO_JUNKEv
libmediainfo.so.0:_ZN12MediaInfoLib9File_Riff14AVI__INFO_xxxxEv
libmediainfo.so.0:_ZN12MediaInfoLib9File_Riff14AVI__Tdat_rn_AEv
libmediainfo.so.0:_ZN12MediaInfoLib9File_Riff14AVI__Tdat_rn_OEv
libmediainfo.so.0:_ZN12MediaInfoLib9File_Riff14AVI__Tdat_tc_AEv
libmediainfo.so.0:_ZN12MediaInfoLib9File_Riff14AVI__Tdat_tc_OEv
libmediainfo.so.0:_ZN12MediaInfoLib9File_Riff14AVI__exif_xxxxEv
libmediainfo.so.0:_ZN12MediaInfoLib9File_Riff14AVI__goog_GDATEv
libmediainfo.so.0:_ZN12MediaInfoLib9File_Riff14AVI__hdlr_JUNKEv
libmediainfo.so.0:_ZN12MediaInfoLib9File_Riff14AVI__hdlr_ON2hEv
libmediainfo.so.0:_ZN12MediaInfoLib9File_Riff14AVI__hdlr_avihEv
libmediainfo.so.0:_ZN12MediaInfoLib9File_Riff14AVI__hdlr_odmlEv
libmediainfo.so.0:_ZN12MediaInfoLib9File_Riff14AVI__hdlr_strlEv
libmediainfo.so.0:_ZN12MediaInfoLib9File_Riff14AVI__hdlr_xxxxEv
libmediainfo.so.0:_ZN12MediaInfoLib9File_Riff14AVI__movi_rec_Ev
libmediainfo.so.0:_ZN12MediaInfoLib9File_Riff14AVI__movi_xxxxEv
libmediainfo.so.0:_ZN12MediaInfoLib9File_Riff14Streams_FinishEv
libmediainfo.so.0:_ZN12MediaInfoLib9File_Riff14WAVE_adtl_lablEv
libmediainfo.so.0:_ZN12MediaInfoLib9File_Riff14WAVE_adtl_ltxtEv
libmediainfo.so.0:_ZN12MediaInfoLib9File_Riff14WAVE_adtl_noteEv
libmediainfo.so.0:_ZN12MediaInfoLib9File_Riff14rcrd_fld__anc_Ev
libmediainfo.so.0:_ZN12MediaInfoLib9File_Riff14rcrd_fld__finfEv
libmediainfo.so.0:_ZN12MediaInfoLib9File_Riff15BookMark_NeededEv
libmediainfo.so.0:_ZN12MediaInfoLib9File_Riff16Read_Buffer_InitEv
libmediainfo.so.0:_ZN12MediaInfoLib9File_Riff16Read_Buffer_SeekEmyy
libmediainfo.so.0:_ZN12MediaInfoLib9File_Riff18AIFF_SSND_ContinueEv
libmediainfo.so.0:_ZN12MediaInfoLib9File_Riff18RMP3_data_ContinueEv
libmediainfo.so.0:_ZN12MediaInfoLib9File_Riff18WAVE_data_ContinueEv
libmediainfo.so.0:_ZN12MediaInfoLib9File_Riff19AVIX_movi_rec__xxxxEv
libmediainfo.so.0:_ZN12MediaInfoLib9File_Riff19AVI__hdlr_odml_dmlhEv
libmediainfo.so.0:_ZN12MediaInfoLib9File_Riff19AVI__hdlr_strl_JUNKEv
libmediainfo.so.0:_ZN12MediaInfoLib9File_Riff19AVI__hdlr_strl_indxEv
libmediainfo.so.0:_ZN12MediaInfoLib9File_Riff19AVI__hdlr_strl_strdEv
libmediainfo.so.0:_ZN12MediaInfoLib9File_Riff19AVI__hdlr_strl_strfEv
libmediainfo.so.0:_ZN12MediaInfoLib9File_Riff19AVI__hdlr_strl_strhEv
libmediainfo.so.0:_ZN12MediaInfoLib9File_Riff19AVI__hdlr_strl_strnEv
libmediainfo.so.0:_ZN12MediaInfoLib9File_Riff19AVI__hdlr_strl_vprpEv
libmediainfo.so.0:_ZN12MediaInfoLib9File_Riff19AVI__movi_rec__xxxxEv
libmediainfo.so.0:_ZN12MediaInfoLib9File_Riff19AVI__movi_xxxx___dcEv
libmediainfo.so.0:_ZN12MediaInfoLib9File_Riff19AVI__movi_xxxx___txEv
libmediainfo.so.0:_ZN12MediaInfoLib9File_Riff19AVI__movi_xxxx___wbEv
libmediainfo.so.0:_ZN12MediaInfoLib9File_Riff19rcrd_fld__anc__pos_Ev
libmediainfo.so.0:_ZN12MediaInfoLib9File_Riff19rcrd_fld__anc__pyldEv
libmediainfo.so.0:_ZN12MediaInfoLib9File_Riff20AVI__movi_StreamJumpEv
libmediainfo.so.0:_ZN12MediaInfoLib9File_Riff20Open_Buffer_Init_AllEv
libmediainfo.so.0:_ZN12MediaInfoLib9File_Riff20Read_Buffer_ContinueEv
libmediainfo.so.0:_ZN12MediaInfoLib9File_Riff21Read_Buffer_UnsynchedEv
libmediainfo.so.0:_ZN12MediaInfoLib9File_Riff24AVI__hdlr_strl_strf_audsEv
libmediainfo.so.0:_ZN12MediaInfoLib9File_Riff24AVI__hdlr_strl_strf_iavsEv
libmediainfo.so.0:_ZN12MediaInfoLib9File_Riff24AVI__hdlr_strl_strf_midsEv
libmediainfo.so.0:_ZN12MediaInfoLib9File_Riff24AVI__hdlr_strl_strf_txtsEv
libmediainfo.so.0:_ZN12MediaInfoLib9File_Riff24AVI__hdlr_strl_strf_vidsEv
libmediainfo.so.0:_ZN12MediaInfoLib9File_Riff28AVI__hdlr_strl_strf_auds_AacEv
libmediainfo.so.0:_ZN12MediaInfoLib9File_Riff28AVI__hdlr_strl_strf_vids_AvcEv
libmediainfo.so.0:_ZN12MediaInfoLib9File_Riff29AVI__hdlr_strl_strf_vids_Ffv1Ev
libmediainfo.so.0:_ZN12MediaInfoLib9File_Riff30AVI__hdlr_strl_indx_FieldIndexEjj
libmediainfo.so.0:_ZN12MediaInfoLib9File_Riff30AVI__hdlr_strl_indx_SuperIndexEjj
libmediainfo.so.0:_ZN12MediaInfoLib9File_Riff30AVI__hdlr_strl_strf_auds_MpegaEv
libmediainfo.so.0:_ZN12MediaInfoLib9File_Riff31AVI__hdlr_strl_strf_auds_VorbisEv
libmediainfo.so.0:_ZN12MediaInfoLib9File_Riff32AVI__hdlr_strl_strf_auds_Vorbis2Ev
libmediainfo.so.0:_ZN12MediaInfoLib9File_Riff32AVI__hdlr_strl_strf_vids_HuffYUVEtj
libmediainfo.so.0:_ZN12MediaInfoLib9File_Riff33AVI__hdlr_strl_indx_StandardIndexEjj
libmediainfo.so.0:_ZN12MediaInfoLib9File_Riff39AVI__hdlr_strl_strf_auds_ExtensibleWaveEt
libmediainfo.so.0:_ZN12MediaInfoLib9File_Riff4AIFCEv
libmediainfo.so.0:_ZN12MediaInfoLib9File_Riff4AIFFEv
libmediainfo.so.0:_ZN12MediaInfoLib9File_Riff4AVIXEv
libmediainfo.so.0:_ZN12MediaInfoLib9File_Riff4AVI_Ev
libmediainfo.so.0:_ZN12MediaInfoLib9File_Riff4CADPEv
libmediainfo.so.0:_ZN12MediaInfoLib9File_Riff4CDDAEv
libmediainfo.so.0:_ZN12MediaInfoLib9File_Riff4CMJPEv
libmediainfo.so.0:_ZN12MediaInfoLib9File_Riff4CMP4Ev
libmediainfo.so.0:_ZN12MediaInfoLib9File_Riff4IDVXEv
libmediainfo.so.0:_ZN12MediaInfoLib9File_Riff4INDXEv
libmediainfo.so.0:_ZN12MediaInfoLib9File_Riff4JUNKEv
libmediainfo.so.0:_ZN12MediaInfoLib9File_Riff4MThdEv
libmediainfo.so.0:_ZN12MediaInfoLib9File_Riff4MTrkEv
libmediainfo.so.0:_ZN12MediaInfoLib9File_Riff4PAL_Ev
libmediainfo.so.0:_ZN12MediaInfoLib9File_Riff4QLCMEv
libmediainfo.so.0:_ZN12MediaInfoLib9File_Riff4RDIBEv
libmediainfo.so.0:_ZN12MediaInfoLib9File_Riff4RMIDEv
libmediainfo.so.0:_ZN12MediaInfoLib9File_Riff4RMMPEv
libmediainfo.so.0:_ZN12MediaInfoLib9File_Riff4RMP3Ev
libmediainfo.so.0:_ZN12MediaInfoLib9File_Riff4SMV0Ev
libmediainfo.so.0:_ZN12MediaInfoLib9File_Riff4W3DIEv
libmediainfo.so.0:_ZN12MediaInfoLib9File_Riff4WAVEEv
libmediainfo.so.0:_ZN12MediaInfoLib9File_Riff4menuEv
libmediainfo.so.0:_ZN12MediaInfoLib9File_Riff4rcrdEv
libmediainfo.so.0:_ZN12MediaInfoLib9File_Riff4waveEv
libmediainfo.so.0:_ZN12MediaInfoLib9File_Riff9AIFC_COMMEv
libmediainfo.so.0:_ZN12MediaInfoLib9File_Riff9AIFC_COMTEv
libmediainfo.so.0:_ZN12MediaInfoLib9File_Riff9AIFC_FVEREv
libmediainfo.so.0:_ZN12MediaInfoLib9File_Riff9AIFC_SSNDEv
libmediainfo.so.0:_ZN12MediaInfoLib9File_Riff9AIFC_xxxxEv
libmediainfo.so.0:_ZN12MediaInfoLib9File_Riff9AIFF_COMMEv
libmediainfo.so.0:_ZN12MediaInfoLib9File_Riff9AIFF_COMTEv
libmediainfo.so.0:_ZN12MediaInfoLib9File_Riff9AIFF_SSNDEv
libmediainfo.so.0:_ZN12MediaInfoLib9File_Riff9AIFF_xxxxEv
libmediainfo.so.0:_ZN12MediaInfoLib9File_Riff9AVIX_idx1Ev
libmediainfo.so.0:_ZN12MediaInfoLib9File_Riff9AVIX_moviEv
libmediainfo.so.0:_ZN12MediaInfoLib9File_Riff9AVI__Cr8rEv
libmediainfo.so.0:_ZN12MediaInfoLib9File_Riff9AVI__GMETEv
libmediainfo.so.0:_ZN12MediaInfoLib9File_Riff9AVI__INFOEv
libmediainfo.so.0:_ZN12MediaInfoLib9File_Riff9AVI__JUNKEv
libmediainfo.so.0:_ZN12MediaInfoLib9File_Riff9AVI__MD5_Ev
libmediainfo.so.0:_ZN12MediaInfoLib9File_Riff9AVI__PrmAEv
libmediainfo.so.0:_ZN12MediaInfoLib9File_Riff9AVI__TdatEv
libmediainfo.so.0:_ZN12MediaInfoLib9File_Riff9AVI__csetEv
libmediainfo.so.0:_ZN12MediaInfoLib9File_Riff9AVI__exifEv
libmediainfo.so.0:_ZN12MediaInfoLib9File_Riff9AVI__googEv
libmediainfo.so.0:_ZN12MediaInfoLib9File_Riff9AVI__hdlrEv
libmediainfo.so.0:_ZN12MediaInfoLib9File_Riff9AVI__idx1Ev
libmediainfo.so.0:_ZN12MediaInfoLib9File_Riff9AVI__moviEv
libmediainfo.so.0:_ZN12MediaInfoLib9File_Riff9AVI__xxxxEv
libmediainfo.so.0:_ZN12MediaInfoLib9File_Riff9CDDA_fmt_Ev
libmediainfo.so.0:_ZN12MediaInfoLib9File_Riff9INDX_xxxxEv
libmediainfo.so.0:_ZN12MediaInfoLib9File_Riff9QLCM_fmt_Ev
libmediainfo.so.0:_ZN12MediaInfoLib9File_Riff9RMP3_dataEv
libmediainfo.so.0:_ZN12MediaInfoLib9File_Riff9SMV0_xxxxEv
libmediainfo.so.0:_ZN12MediaInfoLib9File_Riff9WAVE_ID3_Ev
libmediainfo.so.0:_ZN12MediaInfoLib9File_Riff9WAVE__pmxEv
libmediainfo.so.0:_ZN12MediaInfoLib9File_Riff9WAVE_aXMLEv
libmediainfo.so.0:_ZN12MediaInfoLib9File_Riff9WAVE_adtlEv
libmediainfo.so.0:_ZN12MediaInfoLib9File_Riff9WAVE_bextEv
libmediainfo.so.0:_ZN12MediaInfoLib9File_Riff9WAVE_cue_Ev
libmediainfo.so.0:_ZN12MediaInfoLib9File_Riff9WAVE_dataEv
libmediainfo.so.0:_ZN12MediaInfoLib9File_Riff9WAVE_ds64Ev
libmediainfo.so.0:_ZN12MediaInfoLib9File_Riff9WAVE_factEv
libmediainfo.so.0:_ZN12MediaInfoLib9File_Riff9WAVE_fmt_Ev
libmediainfo.so.0:_ZN12MediaInfoLib9File_Riff9WAVE_iXMLEv
libmediainfo.so.0:_ZN12MediaInfoLib9File_Riff9WAVE_mextEv
libmediainfo.so.0:_ZN12MediaInfoLib9File_Riff9rcrd_descEv
libmediainfo.so.0:_ZN12MediaInfoLib9File_Riff9rcrd_fld_Ev
libmediainfo.so.0:_ZN12MediaInfoLib9File_RiffC1Ev
libmediainfo.so.0:_ZN12MediaInfoLib9File_RiffC2Ev
libmediainfo.so.0:_ZN12MediaInfoLib9File_RiffD0Ev
libmediainfo.so.0:_ZN12MediaInfoLib9File_RiffD1Ev
libmediainfo.so.0:_ZN12MediaInfoLib9File_RiffD2Ev
libmediainfo.so.0:_ZN12MediaInfoLib9File_Rkau14Streams_FinishEv
libmediainfo.so.0:_ZN12MediaInfoLib9File_Rkau16FileHeader_BeginEv
libmediainfo.so.0:_ZN12MediaInfoLib9File_Rkau16FileHeader_ParseEv
libmediainfo.so.0:_ZN12MediaInfoLib9File_RkauC1Ev
libmediainfo.so.0:_ZN12MediaInfoLib9File_RkauC2Ev
libmediainfo.so.0:_ZN12MediaInfoLib9File_Tiff10Data_ParseEv
libmediainfo.so.0:_ZN12MediaInfoLib9File_Tiff12Header_ParseEv
libmediainfo.so.0:_ZN12MediaInfoLib9File_Tiff13GoTo_IfNeededEy
libmediainfo.so.0:_ZN12MediaInfoLib9File_Tiff14Read_DirectoryEv
libmediainfo.so.0:_ZN12MediaInfoLib9File_Tiff15Data_Parse_FillEv
libmediainfo.so.0:_ZN12MediaInfoLib9File_Tiff15GetValueOffsetuERNS0_7ifditemE
libmediainfo.so.0:_ZN12MediaInfoLib9File_Tiff16FileHeader_BeginEv
libmediainfo.so.0:_ZN12MediaInfoLib9File_Tiff16FileHeader_ParseEv
libmediainfo.so.0:_ZN12MediaInfoLib9File_Tiff6Get_X2ERtPKc
libmediainfo.so.0:_ZN12MediaInfoLib9File_Tiff6Get_X4ERjPKc
libmediainfo.so.0:_ZN12MediaInfoLib9File_TiffC1Ev
libmediainfo.so.0:_ZN12MediaInfoLib9File_TiffC2Ev
libmediainfo.so.0:_ZN12MediaInfoLib9File_Ttml14Streams_AcceptEv
libmediainfo.so.0:_ZN12MediaInfoLib9File_Ttml16FileHeader_BeginEv
libmediainfo.so.0:_ZN12MediaInfoLib9File_Ttml16Read_Buffer_SeekEmyy
libmediainfo.so.0:_ZN12MediaInfoLib9File_Ttml20Read_Buffer_ContinueEv
libmediainfo.so.0:_ZN12MediaInfoLib9File_Ttml21Read_Buffer_UnsynchedEv
libmediainfo.so.0:_ZN12MediaInfoLib9File_TtmlC1Ev
libmediainfo.so.0:_ZN12MediaInfoLib9File_TtmlC2Ev
libmediainfo.so.0:_ZN12MediaInfoLib9File_Usac10UsacConfigEv
libmediainfo.so.0:_ZN12MediaInfoLib9File_Usac12Mps212ConfigEh
libmediainfo.so.0:_ZN12MediaInfoLib9File_Usac12escapedValueERjhhhPKc
libmediainfo.so.0:_ZN12MediaInfoLib9File_Usac12loudnessInfoEbb
libmediainfo.so.0:_ZN12MediaInfoLib9File_Usac12uniDrcConfigEv
libmediainfo.so.0:_ZN12MediaInfoLib9File_Usac13Fill_LoudnessEPKcb
libmediainfo.so.0:_ZN12MediaInfoLib9File_Usac13SbrDlftHeaderEv
libmediainfo.so.0:_ZN12MediaInfoLib9File_Usac13channelLayoutEv
libmediainfo.so.0:_ZN12MediaInfoLib9File_Usac14UsacCoreConfigEv
libmediainfo.so.0:_ZN12MediaInfoLib9File_Usac15loudnessInfoSetEb
libmediainfo.so.0:_ZN12MediaInfoLib9File_Usac17UsacDecoderConfigEh
libmediainfo.so.0:_ZN12MediaInfoLib9File_Usac19UsacConfigExtensionEv
libmediainfo.so.0:_ZN12MediaInfoLib9File_Usac19downmixInstructionsEb
libmediainfo.so.0:_ZN12MediaInfoLib9File_Usac20UsacExtElementConfigEv
libmediainfo.so.0:_ZN12MediaInfoLib9File_Usac20UsacLfeElementConfigEv
libmediainfo.so.0:_ZN12MediaInfoLib9File_Usac20drcCoefficientsBasicEv
libmediainfo.so.0:_ZN12MediaInfoLib9File_Usac20drcInstructionsBasicEv
libmediainfo.so.0:_ZN12MediaInfoLib9File_Usac21drcCoefficientsUniDrcEb
libmediainfo.so.0:_ZN12MediaInfoLib9File_Usac21drcInstructionsUniDrcEbb
libmediainfo.so.0:_ZN12MediaInfoLib9File_Usac21uniDrcConfigExtensionEv
libmediainfo.so.0:_ZN12MediaInfoLib9File_Usac24loudnessInfoSetExtensionEv
libmediainfo.so.0:_ZN12MediaInfoLib9File_Usac28UsacChannelPairElementConfigEh
libmediainfo.so.0:_ZN12MediaInfoLib9File_Usac30UsacSingleChannelElementConfigEh
libmediainfo.so.0:_ZN12MediaInfoLib9File_Usac8Fill_DRCEPKc
libmediainfo.so.0:_ZN12MediaInfoLib9File_Usac8streamIdEv
libmediainfo.so.0:_ZN12MediaInfoLib9File_Usac9SbrConfigEv
libmediainfo.so.0:_ZN12MediaInfoLib9File_UsacC1Ev
libmediainfo.so.0:_ZN12MediaInfoLib9File_UsacC2Ev
libmediainfo.so.0:_ZN12MediaInfoLib9File_UsacD0Ev
libmediainfo.so.0:_ZN12MediaInfoLib9File_UsacD1Ev
libmediainfo.so.0:_ZN12MediaInfoLib9File_UsacD2Ev
libmediainfo.so.0:_ZN12MediaInfoLib9File_Wvpk10Data_ParseEv
libmediainfo.so.0:_ZN12MediaInfoLib9File_Wvpk11SynchronizeEv
libmediainfo.so.0:_ZN12MediaInfoLib9File_Wvpk12Header_ParseEv
libmediainfo.so.0:_ZN12MediaInfoLib9File_Wvpk12Synched_TestEv
libmediainfo.so.0:_ZN12MediaInfoLib9File_Wvpk14Streams_FinishEv
libmediainfo.so.0:_ZN12MediaInfoLib9File_Wvpk15Data_Parse_FillEv
libmediainfo.so.0:_ZN12MediaInfoLib9File_Wvpk16FileHeader_BeginEv
libmediainfo.so.0:_ZN12MediaInfoLib9File_Wvpk20Read_Buffer_ContinueEv
libmediainfo.so.0:_ZN12MediaInfoLib9File_Wvpk5id_07Ev
libmediainfo.so.0:_ZN12MediaInfoLib9File_Wvpk5id_0DEv
libmediainfo.so.0:_ZN12MediaInfoLib9File_Wvpk5id_25Ev
libmediainfo.so.0:_ZN12MediaInfoLib9File_WvpkC1Ev
libmediainfo.so.0:_ZN12MediaInfoLib9File_WvpkC2Ev
libmediainfo.so.0:_ZN12MediaInfoLib9LocalNameEPKN8tinyxml210XMLElementE
libmediainfo.so.0:_ZN12MediaInfoLib9LocalNameEPKN8tinyxml210XMLElementERPKc
libmediainfo.so.0:_ZN12MediaInfoLib9MediaInfo13Option_StaticERKNSt7__cxx1112basic_stringIwSt11char_traitsIwESaIwEEES8_
libmediainfo.so.0:_ZN12MediaInfoLib9MediaInfo15Open_NextPacketEv
libmediainfo.so.0:_ZN12MediaInfoLib9MediaInfo16Open_Buffer_InitEyy
libmediainfo.so.0:_ZN12MediaInfoLib9MediaInfo17Output_Buffer_GetERKNSt7__cxx1112basic_stringIwSt11char_traitsIwESaIwEEE
libmediainfo.so.0:_ZN12MediaInfoLib9MediaInfo17Output_Buffer_GetEm
libmediainfo.so.0:_ZN12MediaInfoLib9MediaInfo20Open_Buffer_ContinueEPKhm
libmediainfo.so.0:_ZN12MediaInfoLib9MediaInfo20Open_Buffer_FinalizeEv
libmediainfo.so.0:_ZN12MediaInfoLib9MediaInfo29Open_Buffer_Continue_GoTo_GetEv
libmediainfo.so.0:_ZN12MediaInfoLib9MediaInfo3GetB5cxx11ENS_8stream_tEmmNS_6info_tE
libmediainfo.so.0:_ZN12MediaInfoLib9MediaInfo3GetENS_8stream_tEmRKNSt7__cxx1112basic_stringIwSt11char_traitsIwESaIwEEENS_6info_tESA_
libmediainfo.so.0:_ZN12MediaInfoLib9MediaInfo3SetERKNSt7__cxx1112basic_stringIwSt11char_traitsIwESaIwEEENS_8stream_tEmS8_S8_
libmediainfo.so.0:_ZN12MediaInfoLib9MediaInfo3SetERKNSt7__cxx1112basic_stringIwSt11char_traitsIwESaIwEEENS_8stream_tEmmS8_
libmediainfo.so.0:_ZN12MediaInfoLib9MediaInfo4OpenEPKhmS2_my
libmediainfo.so.0:_ZN12MediaInfoLib9MediaInfo4OpenERKNSt7__cxx1112basic_stringIwSt11char_traitsIwESaIwEEE
libmediainfo.so.0:_ZN12MediaInfoLib9MediaInfo4SaveEv
libmediainfo.so.0:_ZN12MediaInfoLib9MediaInfo5CloseEv
libmediainfo.so.0:_ZN12MediaInfoLib9MediaInfo6InformB5cxx11Em
libmediainfo.so.0:_ZN12MediaInfoLib9MediaInfo6OptionERKNSt7__cxx1112basic_stringIwSt11char_traitsIwESaIwEEES8_
libmediainfo.so.0:_ZN12MediaInfoLib9MediaInfo9Count_GetENS_8stream_tEm
libmediainfo.so.0:_ZN12MediaInfoLib9MediaInfo9State_GetEv
libmediainfo.so.0:_ZN12MediaInfoLib9MediaInfoC1Ev
libmediainfo.so.0:_ZN12MediaInfoLib9MediaInfoC2Ev
libmediainfo.so.0:_ZN12MediaInfoLib9MediaInfoD1Ev
libmediainfo.so.0:_ZN12MediaInfoLib9MediaInfoD2Ev
libmediainfo.so.0:_ZN12MediaInfoLib9Parse_XMLERKN6ZenLib10ZtringListERKNS0_6ZtringEPKN8tinyxml27XMLNodeEPNS_4NodeEPSC_S6_RNS0_14ZtringListListE
libmediainfo.so.0:_ZN12MediaInfoLibeqERKNS_12speaker_infoES2_
libmediainfo.so.0:_ZN12MediaInfoLiblsERSoPNS_15element_details17Element_Node_InfoE
libmediainfo.so.0:_ZN12MediaInfoLiblsERSoRKNS_15element_details17Element_Node_DataE
libmediainfo.so.0:_ZNK12MediaInfoLib10File__Base9Count_GetENS_8stream_tEm
libmediainfo.so.0:_ZNK12MediaInfoLib16MediaInfo_Config12Info_Url_GetEv
libmediainfo.so.0:_ZNK12MediaInfoLib16MediaInfo_Config13Info_Tags_GetEv
libmediainfo.so.0:_ZNK12MediaInfoLib16MediaInfo_Config15EmptyString_GetEv
libmediainfo.so.0:_ZNK12MediaInfoLib16MediaInfo_Config16Info_Version_GetEv
libmediainfo.so.0:_ZNK12MediaInfoLib16MediaInfo_Config23EmptyStringListList_GetEv
libmediainfo.so.0:_ZNK12MediaInfoLib22File__Duplicate_MpegTs9Is_WantedEtt
libmediainfo.so.0:aes_cbc_decrypt
libmediainfo.so.0:aes_cbc_encrypt
libmediainfo.so.0:aes_cfb_decrypt
libmediainfo.so.0:aes_cfb_encrypt
libmediainfo.so.0:aes_ctr_crypt
libmediainfo.so.0:aes_decrypt
libmediainfo.so.0:aes_decrypt_key
libmediainfo.so.0:aes_decrypt_key128
libmediainfo.so.0:aes_decrypt_key192
libmediainfo.so.0:aes_decrypt_key256
libmediainfo.so.0:aes_ecb_decrypt
libmediainfo.so.0:aes_ecb_encrypt
libmediainfo.so.0:aes_encrypt
libmediainfo.so.0:aes_encrypt_key
libmediainfo.so.0:aes_encrypt_key128
libmediainfo.so.0:aes_encrypt_key192
libmediainfo.so.0:aes_encrypt_key256
libmediainfo.so.0:aes_init
libmediainfo.so.0:aes_mode_reset
libmediainfo.so.0:aes_ofb_crypt
libmediainfo.so.0:aes_test_alignment_detection
libmediainfo.so.0:byteReverse
libmediainfo.so.0:hmac_sha
libmediainfo.so.0:hmac_sha_begin
libmediainfo.so.0:hmac_sha_data
libmediainfo.so.0:hmac_sha_end
libmediainfo.so.0:hmac_sha_key
libmediainfo.so.0:sha1
libmediainfo.so.0:sha1_begin
libmediainfo.so.0:sha1_compile
libmediainfo.so.0:sha1_end
libmediainfo.so.0:sha1_hash
libmediainfo.so.0:sha2
libmediainfo.so.0:sha224
libmediainfo.so.0:sha224_begin
libmediainfo.so.0:sha224_end
libmediainfo.so.0:sha256
libmediainfo.so.0:sha256_begin
libmediainfo.so.0:sha256_compile
libmediainfo.so.0:sha256_end
libmediainfo.so.0:sha256_hash
libmediainfo.so.0:sha2_begin
libmediainfo.so.0:sha2_end
libmediainfo.so.0:sha2_hash
libmediainfo.so.0:sha384
libmediainfo.so.0:sha384_begin
libmediainfo.so.0:sha384_end
libmediainfo.so.0:sha512
libmediainfo.so.0:sha512_begin
libmediainfo.so.0:sha512_compile
libmediainfo.so.0:sha512_end
libmediainfo.so.0:sha512_hash
