AcceleratedAlgorithms.so:pv_plugin_instance
AcceleratedAlgorithms.so:pv_plugin_instance_AcceleratedAlgorithms
AnalyzeNIfTIReaderWriter.so:pv_plugin_instance
AnalyzeNIfTIReaderWriter.so:pv_plugin_instance_AnalyzeNIfTIReaderWriter
AnalyzeNIfTIReaderWriter.so:vtkAnalyzeNIfTIIOCS_Initialize
ArrowGlyph.so:pv_plugin_instance
ArrowGlyph.so:pv_plugin_instance_ArrowGlyph
ArrowGlyph.so:vtkArrowGlyphFilterCS_Initialize
BagPlotViewsAndFilters.so:pv_plugin_instance
BagPlotViewsAndFilters.so:pv_plugin_instance_BagPlotViewsAndFilters
BagPlotViewsAndFilters.so:vtkBagPlotViewsAndFiltersBagPlotCS_Initialize
BivariateRepresentations.so:pv_plugin_instance
BivariateRepresentations.so:pv_plugin_instance_BivariateRepresentations
BivariateRepresentations.so:qt_plugin_instance
BivariateRepresentations.so:qt_plugin_query_metadata_v2
BivariateRepresentations.so:vtkBivariateRepresentationsCS_Initialize
CFSReader.so:pv_plugin_instance
CFSReader.so:pv_plugin_instance_CFSReader
CFSReader.so:vtkCFSReaderCS_Initialize
ContourLabelPlugin.so:pv_plugin_instance
ContourLabelPlugin.so:pv_plugin_instance_ContourLabelPlugin
ContourLabelPlugin.so:vtkContourLabelPluginCS_Initialize
Datamine.so:pv_plugin_instance
Datamine.so:pv_plugin_instance_Datamine
Datamine.so:vtkDatamineReadersCS_Initialize
DigitalRockPhysics.so:pv_plugin_instance
DigitalRockPhysics.so:pv_plugin_instance_DigitalRockPhysics
DigitalRockPhysics.so:vtkDigitalRocksFiltersCS_Initialize
DigitalSignalProcessing.so:pv_plugin_instance
DigitalSignalProcessing.so:pv_plugin_instance_DigitalSignalProcessing
DigitalSignalProcessing.so:vtkDSPFiltersPluginCS_Initialize
EmbossingRepresentations.so:pv_plugin_instance
EmbossingRepresentations.so:pv_plugin_instance_EmbossingRepresentations
EmbossingRepresentations.so:qt_plugin_instance
EmbossingRepresentations.so:qt_plugin_query_metadata_v2
EmbossingRepresentations.so:vtkEmbossingRepresentationsCS_Initialize
EnSightGoldCombinedReader.so:pv_plugin_instance
EnSightGoldCombinedReader.so:pv_plugin_instance_EnSightGoldCombinedReader
ExplicitStructuredGrid.so:pv_plugin_instance
ExplicitStructuredGrid.so:pv_plugin_instance_ExplicitStructuredGrid
ExplicitStructuredGrid.so:vtkExplicitStructuredGridCS_Initialize
FlipBookPlugin.so:pv_plugin_instance
FlipBookPlugin.so:pv_plugin_instance_FlipBookPlugin
FlipBookPlugin.so:qt_plugin_instance
FlipBookPlugin.so:qt_plugin_query_metadata_v2
GMVReader.so:pv_plugin_instance
GMVReader.so:pv_plugin_instance_GMVReader
GMVReader.so:vtkGMVReaderCS_Initialize
GenericIOReader.so:pv_plugin_instance
GenericIOReader.so:pv_plugin_instance_GenericIOReader
GenericIOReader.so:vtkGenericIOReaderCS_Initialize
GeodesicMeasurement.so:pv_plugin_instance
GeodesicMeasurement.so:pv_plugin_instance_GeodesicMeasurement
GeodesicMeasurement.so:vtkGeodesicMeasurementFiltersCS_Initialize
HyperTreeGridADR.so:pv_plugin_instance
HyperTreeGridADR.so:pv_plugin_instance_HyperTreeGridADR
HyperTreeGridADR.so:vtkFiltersHyperTreeGridADRCS_Initialize
LagrangianParticleTracker.so:pv_plugin_instance
LagrangianParticleTracker.so:pv_plugin_instance_LagrangianParticleTracker
LagrangianParticleTracker.so:qt_plugin_instance
LagrangianParticleTracker.so:qt_plugin_query_metadata_v2
LagrangianParticleTracker.so:vtkLagrangianParticleTrackerCS_Initialize
LegacyExodusReader.so:pv_plugin_instance
LegacyExodusReader.so:pv_plugin_instance_LegacyExodusReader
LegacyExodusWriter.so:pv_plugin_instance
LegacyExodusWriter.so:pv_plugin_instance_LegacyExodusWriter
LegacyGhostCellsGenerator.so:LegacyGhostCellsGeneratorFiltersCS_Initialize
LegacyGhostCellsGenerator.so:LegacyGhostCellsGeneratorParallelCS_Initialize
LegacyGhostCellsGenerator.so:pv_plugin_instance
LegacyGhostCellsGenerator.so:pv_plugin_instance_LegacyGhostCellsGenerator
Moments.so:pv_plugin_instance
Moments.so:pv_plugin_instance_Moments
Moments.so:vtkMomentFiltersCS_Initialize
MooseXfemClip.so:pv_plugin_instance
MooseXfemClip.so:pv_plugin_instance_MooseXfemClip
MooseXfemClip.so:vtkMooseXfemClipCS_Initialize
NodeEditor.so:pv_plugin_instance
NodeEditor.so:pv_plugin_instance_NodeEditor
NodeEditor.so:qt_plugin_instance
NodeEditor.so:qt_plugin_query_metadata_v2
NonOrthogonalSource.so:pv_plugin_instance
NonOrthogonalSource.so:pv_plugin_instance_NonOrthogonalSource
NonOrthogonalSource.so:qt_plugin_instance
NonOrthogonalSource.so:qt_plugin_query_metadata_v2
NonOrthogonalSource.so:vtkNonOrthogonalSourcesCS_Initialize
PanoramicProjectionView.so:pv_plugin_instance
PanoramicProjectionView.so:pv_plugin_instance_PanoramicProjectionView
PanoramicProjectionView.so:vtkPanoramicProjectionViewsCS_Initialize
ParametricSurfaces.so:pv_plugin_instance
ParametricSurfaces.so:pv_plugin_instance_ParametricSurfaces
Prism.so:pv_plugin_instance
Prism.so:pv_plugin_instance_Prism
Prism.so:qt_plugin_instance
Prism.so:qt_plugin_query_metadata_v2
Prism.so:vtkPrismFiltersCS_Initialize
Prism.so:vtkPrismReadersCS_Initialize
Prism.so:vtkPrismServerManagerCS_Initialize
Prism.so:vtkPrismViewsCS_Initialize
SLACTools.so:pv_plugin_instance
SLACTools.so:pv_plugin_instance_SLACTools
SLACTools.so:qt_plugin_instance
SLACTools.so:qt_plugin_query_metadata_v2
SLACTools.so:vtkSLACFiltersCS_Initialize
SaveStateAndScreenshot.so:pv_plugin_instance
SaveStateAndScreenshot.so:pv_plugin_instance_SaveStateAndScreenshot
SaveStateAndScreenshot.so:qt_plugin_instance
SaveStateAndScreenshot.so:qt_plugin_query_metadata_v2
StereoCursorView.so:StereoCursorViewsCS_Initialize
StereoCursorView.so:pv_plugin_instance
StereoCursorView.so:pv_plugin_instance_StereoCursorView
StreamLinesRepresentation.so:pv_plugin_instance
StreamLinesRepresentation.so:pv_plugin_instance_StreamLinesRepresentation
StreamLinesRepresentation.so:qt_plugin_instance
StreamLinesRepresentation.so:qt_plugin_query_metadata_v2
StreamLinesRepresentation.so:vtkStreamLinesCS_Initialize
StreamingParticles.so:pv_plugin_instance
StreamingParticles.so:pv_plugin_instance_StreamingParticles
StreamingParticles.so:vtkStreamingParticlesCS_Initialize
ThickenLayeredCells.so:pv_plugin_instance
ThickenLayeredCells.so:pv_plugin_instance_ThickenLayeredCells
ThickenLayeredCells.so:vtkThickenLayeredCellsFiltersCS_Initialize
VTKmFilters.so:pv_plugin_instance
VTKmFilters.so:pv_plugin_instance_VTKmFilters
XArrayCFReader.so:pv_plugin_instance
XArrayCFReader.so:pv_plugin_instance_XArrayCFReader
libLegacyGhostCellsGeneratorFilters.so:_ZN38vtkUnstructuredGridGhostCellsGenerator11RequestDataEP14vtkInformationPP20vtkInformationVectorS3_
libLegacyGhostCellsGeneratorFilters.so:_ZN38vtkUnstructuredGridGhostCellsGenerator19RequestUpdateExtentEP14vtkInformationPP20vtkInformationVectorS3_
libLegacyGhostCellsGeneratorFilters.so:_ZN38vtkUnstructuredGridGhostCellsGenerator3NewEv
libLegacyGhostCellsGeneratorFilters.so:_ZN38vtkUnstructuredGridGhostCellsGenerator9PrintSelfERSo9vtkIndent
libLegacyGhostCellsGeneratorFilters.so:_ZN38vtkUnstructuredGridGhostCellsGeneratorC1Ev
libLegacyGhostCellsGeneratorFilters.so:_ZN38vtkUnstructuredGridGhostCellsGeneratorC2Ev
libLegacyGhostCellsGeneratorFilters.so:_ZN38vtkUnstructuredGridGhostCellsGeneratorD0Ev
libLegacyGhostCellsGeneratorFilters.so:_ZN38vtkUnstructuredGridGhostCellsGeneratorD1Ev
libLegacyGhostCellsGeneratorFilters.so:_ZN38vtkUnstructuredGridGhostCellsGeneratorD2Ev
libLegacyGhostCellsGeneratorFilters.so:_ZTI38vtkUnstructuredGridGhostCellsGenerator
libLegacyGhostCellsGeneratorFilters.so:_ZTS38vtkUnstructuredGridGhostCellsGenerator
libLegacyGhostCellsGeneratorFilters.so:_ZTV38vtkUnstructuredGridGhostCellsGenerator
libLegacyGhostCellsGeneratorParallel.so:_Z52LegacyGhostCellsGeneratorParallel_AutoInit_Constructv
libLegacyGhostCellsGeneratorParallel.so:_ZN39vtkPUnstructuredGridGhostCellsGenerator11RequestDataEP14vtkInformationPP20vtkInformationVectorS3_
libLegacyGhostCellsGeneratorParallel.so:_ZN39vtkPUnstructuredGridGhostCellsGenerator13AddGhostLayerEii
libLegacyGhostCellsGeneratorParallel.so:_ZN39vtkPUnstructuredGridGhostCellsGenerator13SetControllerEP25vtkMultiProcessController
libLegacyGhostCellsGeneratorParallel.so:_ZN39vtkPUnstructuredGridGhostCellsGenerator14FindGhostCellsEv
libLegacyGhostCellsGeneratorParallel.so:_ZN39vtkPUnstructuredGridGhostCellsGenerator16AddGlobalCellIdsEv
libLegacyGhostCellsGeneratorParallel.so:_ZN39vtkPUnstructuredGridGhostCellsGenerator18GetFirstGhostLayerEiP19vtkUnstructuredGrid
libLegacyGhostCellsGeneratorParallel.so:_ZN39vtkPUnstructuredGridGhostCellsGenerator19ComputeSharedPointsEv
libLegacyGhostCellsGeneratorParallel.so:_ZN39vtkPUnstructuredGridGhostCellsGenerator19RemoveGlobalCellIdsEv
libLegacyGhostCellsGeneratorParallel.so:_ZN39vtkPUnstructuredGridGhostCellsGenerator24ExtractAndSendGhostCellsEP23vtkUnstructuredGridBase
libLegacyGhostCellsGeneratorParallel.so:_ZN39vtkPUnstructuredGridGhostCellsGenerator25ReceiveAndMergeGhostCellsEiiP23vtkUnstructuredGridBaseP19vtkUnstructuredGrid
libLegacyGhostCellsGeneratorParallel.so:_ZN39vtkPUnstructuredGridGhostCellsGenerator35ExchangeBoundsAndDetermineNeighborsERSt6vectorIdSaIdEE
libLegacyGhostCellsGeneratorParallel.so:_ZN39vtkPUnstructuredGridGhostCellsGenerator38ExtractAndReduceSurfacePointsShareDataERSt6vectorIdSaIdEE
libLegacyGhostCellsGeneratorParallel.so:_ZN39vtkPUnstructuredGridGhostCellsGenerator3NewEv
libLegacyGhostCellsGeneratorParallel.so:_ZN39vtkPUnstructuredGridGhostCellsGenerator9PrintSelfERSo9vtkIndent
libLegacyGhostCellsGeneratorParallel.so:_ZN39vtkPUnstructuredGridGhostCellsGeneratorC1Ev
libLegacyGhostCellsGeneratorParallel.so:_ZN39vtkPUnstructuredGridGhostCellsGeneratorC2Ev
libLegacyGhostCellsGeneratorParallel.so:_ZN39vtkPUnstructuredGridGhostCellsGeneratorD0Ev
libLegacyGhostCellsGeneratorParallel.so:_ZN39vtkPUnstructuredGridGhostCellsGeneratorD1Ev
libLegacyGhostCellsGeneratorParallel.so:_ZN39vtkPUnstructuredGridGhostCellsGeneratorD2Ev
libLegacyGhostCellsGeneratorParallel.so:_ZN46LegacyGhostCellsGeneratorParallelObjectFactory19GetVTKSourceVersionEv
libLegacyGhostCellsGeneratorParallel.so:_ZN46LegacyGhostCellsGeneratorParallelObjectFactory3NewEv
libLegacyGhostCellsGeneratorParallel.so:_ZN46LegacyGhostCellsGeneratorParallelObjectFactory9PrintSelfERSo9vtkIndent
libLegacyGhostCellsGeneratorParallel.so:_ZN46LegacyGhostCellsGeneratorParallelObjectFactoryC1Ev
libLegacyGhostCellsGeneratorParallel.so:_ZN46LegacyGhostCellsGeneratorParallelObjectFactoryC2Ev
libLegacyGhostCellsGeneratorParallel.so:_ZTI39vtkPUnstructuredGridGhostCellsGenerator
libLegacyGhostCellsGeneratorParallel.so:_ZTI46LegacyGhostCellsGeneratorParallelObjectFactory
libLegacyGhostCellsGeneratorParallel.so:_ZTS39vtkPUnstructuredGridGhostCellsGenerator
libLegacyGhostCellsGeneratorParallel.so:_ZTS46LegacyGhostCellsGeneratorParallelObjectFactory
libLegacyGhostCellsGeneratorParallel.so:_ZTV39vtkPUnstructuredGridGhostCellsGenerator
libLegacyGhostCellsGeneratorParallel.so:_ZTV46LegacyGhostCellsGeneratorParallelObjectFactory
libStereoCursorViews.so:_ZN21vtkPVStereoCursorView13SetCursorSizeEi
libStereoCursorViews.so:_ZN21vtkPVStereoCursorView14SetCursorShapeEi
libStereoCursorViews.so:_ZN21vtkPVStereoCursorView15SetupInteractorEP25vtkRenderWindowInteractor
libStereoCursorViews.so:_ZN21vtkPVStereoCursorView3NewEv
libStereoCursorViews.so:_ZN21vtkPVStereoCursorView9PrintSelfERSo9vtkIndent
libStereoCursorViews.so:_ZN21vtkPVStereoCursorViewC1Ev
libStereoCursorViews.so:_ZN21vtkPVStereoCursorViewC2Ev
libStereoCursorViews.so:_ZTI21vtkPVStereoCursorView
libStereoCursorViews.so:_ZTS21vtkPVStereoCursorView
libStereoCursorViews.so:_ZTV21vtkPVStereoCursorView
libpqApplicationComponents.so.1:_Z27pqApplicationComponentsInitv
libpqApplicationComponents.so.1:_ZN10pqReaction11qt_metacallEN11QMetaObject4CallEiPPv
libpqApplicationComponents.so.1:_ZN10pqReaction11qt_metacastEPKc
libpqApplicationComponents.so.1:_ZN10pqReaction16staticMetaObjectE
libpqApplicationComponents.so.1:_ZN10pqReaction23updateMasterEnableStateEb
libpqApplicationComponents.so.1:_ZN10pqReactionC1EP7QActionN2Qt14ConnectionTypeE
libpqApplicationComponents.so.1:_ZN10pqReactionC2EP7QActionN2Qt14ConnectionTypeE
libpqApplicationComponents.so.1:_ZN10pqReactionD0Ev
libpqApplicationComponents.so.1:_ZN10pqReactionD1Ev
libpqApplicationComponents.so.1:_ZN10pqReactionD2Ev
libpqApplicationComponents.so.1:_ZN11pqStatusBar11qt_metacallEN11QMetaObject4CallEiPPv
libpqApplicationComponents.so.1:_ZN11pqStatusBar11qt_metacastEPKc
libpqApplicationComponents.so.1:_ZN11pqStatusBar13handleMessageERK7QStringi
libpqApplicationComponents.so.1:_ZN11pqStatusBar16staticMetaObjectE
libpqApplicationComponents.so.1:_ZN11pqStatusBar20updateErrorIndicatorEv
libpqApplicationComponents.so.1:_ZN11pqStatusBar22resetMessageIndicatorsEv
libpqApplicationComponents.so.1:_ZN11pqStatusBar22updateServerConfigInfoEv
libpqApplicationComponents.so.1:_ZN11pqStatusBar22updateWarningIndicatorEv
libpqApplicationComponents.so.1:_ZN11pqStatusBar23messageIndicatorPressedEv
libpqApplicationComponents.so.1:_ZN11pqStatusBar23updateMemoryProgressBarEv
libpqApplicationComponents.so.1:_ZN11pqStatusBarC1EP7QWidget
libpqApplicationComponents.so.1:_ZN11pqStatusBarC2EP7QWidget
libpqApplicationComponents.so.1:_ZN11pqStatusBarD0Ev
libpqApplicationComponents.so.1:_ZN11pqStatusBarD1Ev
libpqApplicationComponents.so.1:_ZN11pqStatusBarD2Ev
libpqApplicationComponents.so.1:_ZN12pqVCRToolbar11constructorEv
libpqApplicationComponents.so.1:_ZN12pqVCRToolbar11qt_metacallEN11QMetaObject4CallEiPPv
libpqApplicationComponents.so.1:_ZN12pqVCRToolbar11qt_metacastEPKc
libpqApplicationComponents.so.1:_ZN12pqVCRToolbar13setTimeRangesEdd
libpqApplicationComponents.so.1:_ZN12pqVCRToolbar16staticMetaObjectE
libpqApplicationComponents.so.1:_ZN12pqVCRToolbar9onPlayingEbb
libpqApplicationComponents.so.1:_ZN12pqVCRToolbarD0Ev
libpqApplicationComponents.so.1:_ZN12pqVCRToolbarD1Ev
libpqApplicationComponents.so.1:_ZN12pqVCRToolbarD2Ev
libpqApplicationComponents.so.1:_ZN13pqAxesToolbar11constructorEv
libpqApplicationComponents.so.1:_ZN13pqAxesToolbar11qt_metacallEN11QMetaObject4CallEiPPv
libpqApplicationComponents.so.1:_ZN13pqAxesToolbar11qt_metacastEPKc
libpqApplicationComponents.so.1:_ZN13pqAxesToolbar14showCenterAxesEb
libpqApplicationComponents.so.1:_ZN13pqAxesToolbar16staticMetaObjectE
libpqApplicationComponents.so.1:_ZN13pqAxesToolbar18updateEnabledStateEv
libpqApplicationComponents.so.1:_ZN13pqAxesToolbar19showOrientationAxesEb
libpqApplicationComponents.so.1:_ZN13pqAxesToolbar20pickCenterOfRotationEii
libpqApplicationComponents.so.1:_ZN13pqAxesToolbar42resetCenterOfRotationToCenterOfCurrentDataEv
libpqApplicationComponents.so.1:_ZN13pqAxesToolbar7setViewEP6pqView
libpqApplicationComponents.so.1:_ZN13pqAxesToolbarD0Ev
libpqApplicationComponents.so.1:_ZN13pqAxesToolbarD1Ev
libpqApplicationComponents.so.1:_ZN13pqAxesToolbarD2Ev
libpqApplicationComponents.so.1:_ZN14pqColorToolbar11constructorEv
libpqApplicationComponents.so.1:_ZN14pqColorToolbar11qt_metacallEN11QMetaObject4CallEiPPv
libpqApplicationComponents.so.1:_ZN14pqColorToolbar11qt_metacastEPKc
libpqApplicationComponents.so.1:_ZN14pqColorToolbar16staticMetaObjectE
libpqApplicationComponents.so.1:_ZN14pqCopyReaction11qt_metacallEN11QMetaObject4CallEiPPv
libpqApplicationComponents.so.1:_ZN14pqCopyReaction11qt_metacastEPKc
libpqApplicationComponents.so.1:_ZN14pqCopyReaction12copyPipelineEv
libpqApplicationComponents.so.1:_ZN14pqCopyReaction13SelectionRootE
libpqApplicationComponents.so.1:_ZN14pqCopyReaction13pastePipelineEv
libpqApplicationComponents.so.1:_ZN14pqCopyReaction14pipelineCopiedEv
libpqApplicationComponents.so.1:_ZN14pqCopyReaction15FilterSelectionE
libpqApplicationComponents.so.1:_ZN14pqCopyReaction16canPastePipelineEv
libpqApplicationComponents.so.1:_ZN14pqCopyReaction16staticMetaObjectE
libpqApplicationComponents.so.1:_ZN14pqCopyReaction17updateEnableStateEv
libpqApplicationComponents.so.1:_ZN14pqCopyReaction21CopyPipelineContainerE
libpqApplicationComponents.so.1:_ZN14pqCopyReaction22PastePipelineContainerE
libpqApplicationComponents.so.1:_ZN14pqCopyReaction23getSelectedPipelineRootEv
libpqApplicationComponents.so.1:_ZN14pqCopyReaction24SelectedProxyConnectionsE
libpqApplicationComponents.so.1:_ZN14pqCopyReaction4copyEP10vtkSMProxyS1_
libpqApplicationComponents.so.1:_ZN14pqCopyReaction4copyEv
libpqApplicationComponents.so.1:_ZN14pqCopyReaction5pasteEv
libpqApplicationComponents.so.1:_ZN14pqCopyReactionC1EP7QActionbb
libpqApplicationComponents.so.1:_ZN14pqCopyReactionC2EP7QActionbb
libpqApplicationComponents.so.1:_ZN14pqCopyReactionD0Ev
libpqApplicationComponents.so.1:_ZN14pqCopyReactionD1Ev
libpqApplicationComponents.so.1:_ZN14pqCopyReactionD2Ev
libpqApplicationComponents.so.1:_ZN14pqHelpReaction11qt_metacallEN11QMetaObject4CallEiPPv
libpqApplicationComponents.so.1:_ZN14pqHelpReaction11qt_metacastEPKc
libpqApplicationComponents.so.1:_ZN14pqHelpReaction13showProxyHelpERK7QStringS2_
libpqApplicationComponents.so.1:_ZN14pqHelpReaction16staticMetaObjectE
libpqApplicationComponents.so.1:_ZN14pqHelpReaction8showHelpERK7QString
libpqApplicationComponents.so.1:_ZN14pqHelpReaction8showHelpEv
libpqApplicationComponents.so.1:_ZN14pqHelpReactionC1EP7QAction
libpqApplicationComponents.so.1:_ZN14pqHelpReactionC2EP7QAction
libpqApplicationComponents.so.1:_ZN14pqLightToolbar11constructorEv
libpqApplicationComponents.so.1:_ZN14pqLightToolbar11qt_metacallEN11QMetaObject4CallEiPPv
libpqApplicationComponents.so.1:_ZN14pqLightToolbar11qt_metacastEPKc
libpqApplicationComponents.so.1:_ZN14pqLightToolbar14toggleLightKitEv
libpqApplicationComponents.so.1:_ZN14pqLightToolbar16staticMetaObjectE
libpqApplicationComponents.so.1:_ZN14pqLightToolbar7setViewEP6pqView
libpqApplicationComponents.so.1:_ZN14pqLightToolbarC1EP7QWidget
libpqApplicationComponents.so.1:_ZN14pqLightToolbarC1ERK7QStringP7QWidget
libpqApplicationComponents.so.1:_ZN14pqLightToolbarC2EP7QWidget
libpqApplicationComponents.so.1:_ZN14pqLightToolbarC2ERK7QStringP7QWidget
libpqApplicationComponents.so.1:_ZN14pqLightToolbarD0Ev
libpqApplicationComponents.so.1:_ZN14pqLightToolbarD1Ev
libpqApplicationComponents.so.1:_ZN14pqLightToolbarD2Ev
libpqApplicationComponents.so.1:_ZN14pqTimelineView11qt_metacallEN11QMetaObject4CallEiPPv
libpqApplicationComponents.so.1:_ZN14pqTimelineView11qt_metacastEPKc
libpqApplicationComponents.so.1:_ZN14pqTimelineView13timelineModelEv
libpqApplicationComponents.so.1:_ZN14pqTimelineView15updateTimelinesEv
libpqApplicationComponents.so.1:_ZN14pqTimelineView16createRowWidgetsERK5QListI11QModelIndexE
libpqApplicationComponents.so.1:_ZN14pqTimelineView16staticMetaObjectE
libpqApplicationComponents.so.1:_ZN14pqTimelineView17newTrackRequestedERK22pqAnimatedPropertyInfo
libpqApplicationComponents.so.1:_ZN14pqTimelineView18editTrackRequestedERK7QString
libpqApplicationComponents.so.1:_ZN14pqTimelineView20deleteTrackRequestedERK7QString
libpqApplicationComponents.so.1:_ZN14pqTimelineView22validateTrackRequestedERK22pqAnimatedPropertyInfo
libpqApplicationComponents.so.1:_ZN14pqTimelineView25enableTrackCreationWidgetEb
libpqApplicationComponents.so.1:_ZN14pqTimelineView26resetStartEndTimeRequestedEv
libpqApplicationComponents.so.1:_ZN14pqTimelineView27validateTrackCreationWidgetEv
libpqApplicationComponents.so.1:_ZN14pqTimelineViewC1EP7QWidget
libpqApplicationComponents.so.1:_ZN14pqTimelineViewC2EP7QWidget
libpqApplicationComponents.so.1:_ZN14pqTimelineViewD0Ev
libpqApplicationComponents.so.1:_ZN14pqTimelineViewD1Ev
libpqApplicationComponents.so.1:_ZN14pqTimelineViewD2Ev
libpqApplicationComponents.so.1:_ZN15pqApplyBehavior10onModifiedEv
libpqApplicationComponents.so.1:_ZN15pqApplyBehavior11onResetDoneEv
libpqApplicationComponents.so.1:_ZN15pqApplyBehavior11qt_metacallEN11QMetaObject4CallEiPPv
libpqApplicationComponents.so.1:_ZN15pqApplyBehavior11qt_metacastEPKc
libpqApplicationComponents.so.1:_ZN15pqApplyBehavior12triggerApplyEv
libpqApplicationComponents.so.1:_ZN15pqApplyBehavior13registerPanelEP17pqPropertiesPanel
libpqApplicationComponents.so.1:_ZN15pqApplyBehavior15unregisterPanelEP17pqPropertiesPanel
libpqApplicationComponents.so.1:_ZN15pqApplyBehavior16staticMetaObjectE
libpqApplicationComponents.so.1:_ZN15pqApplyBehavior19hideInputIfRequiredEP16pqPipelineFilterP6pqView
libpqApplicationComponents.so.1:_ZN15pqApplyBehavior7appliedEP17pqPropertiesPanel
libpqApplicationComponents.so.1:_ZN15pqApplyBehavior7appliedEP17pqPropertiesPanelP7pqProxy
libpqApplicationComponents.so.1:_ZN15pqApplyBehavior8showDataEP16pqPipelineSourceP6pqView
libpqApplicationComponents.so.1:_ZN15pqApplyBehavior9onAppliedEP7pqProxy
libpqApplicationComponents.so.1:_ZN15pqApplyBehavior9onAppliedEv
libpqApplicationComponents.so.1:_ZN15pqApplyBehaviorC1EP7QObject
libpqApplicationComponents.so.1:_ZN15pqApplyBehaviorC2EP7QObject
libpqApplicationComponents.so.1:_ZN15pqApplyBehaviorD0Ev
libpqApplicationComponents.so.1:_ZN15pqApplyBehaviorD1Ev
libpqApplicationComponents.so.1:_ZN15pqApplyBehaviorD2Ev
libpqApplicationComponents.so.1:_ZN15pqCameraToolbar11constructorEv
libpqApplicationComponents.so.1:_ZN15pqCameraToolbar11qt_metacallEN11QMetaObject4CallEiPPv
libpqApplicationComponents.so.1:_ZN15pqCameraToolbar11qt_metacastEPKc
libpqApplicationComponents.so.1:_ZN15pqCameraToolbar15onSourceChangedEP16pqPipelineSource
libpqApplicationComponents.so.1:_ZN15pqCameraToolbar16staticMetaObjectE
libpqApplicationComponents.so.1:_ZN15pqCameraToolbar18updateEnabledStateEv
libpqApplicationComponents.so.1:_ZN15pqCameraToolbar23onRepresentationChangedEP20pqDataRepresentation
libpqApplicationComponents.so.1:_ZN15pqMacroReaction11createMacroEv
libpqApplicationComponents.so.1:_ZN15pqMacroReaction11qt_metacallEN11QMetaObject4CallEiPPv
libpqApplicationComponents.so.1:_ZN15pqMacroReaction11qt_metacastEPKc
libpqApplicationComponents.so.1:_ZN15pqMacroReaction16staticMetaObjectE
libpqApplicationComponents.so.1:_ZN15pqMacroReaction6enableEb
libpqApplicationComponents.so.1:_ZN15pqMacroReactionC1EP7QAction
libpqApplicationComponents.so.1:_ZN15pqMacroReactionC2EP7QAction
libpqApplicationComponents.so.1:_ZN15pqProxyCategory11addCategoryEPS_
libpqApplicationComponents.so.1:_ZN15pqProxyCategory11addCategoryERK7QStringP15vtkPVXMLElement
libpqApplicationComponents.so.1:_ZN15pqProxyCategory11qt_metacallEN11QMetaObject4CallEiPPv
libpqApplicationComponents.so.1:_ZN15pqProxyCategory11qt_metacastEPKc
libpqApplicationComponents.so.1:_ZN15pqProxyCategory11removeProxyERK7QString
libpqApplicationComponents.so.1:_ZN15pqProxyCategory11updateLabelERK7QString
libpqApplicationComponents.so.1:_ZN15pqProxyCategory12convertToXMLEPS_P15vtkPVXMLElement
libpqApplicationComponents.so.1:_ZN15pqProxyCategory12loadSettingsERK7QString
libpqApplicationComponents.so.1:_ZN15pqProxyCategory13writeSettingsERK7QString
libpqApplicationComponents.so.1:_ZN15pqProxyCategory14copyAttributesEPS_
libpqApplicationComponents.so.1:_ZN15pqProxyCategory14getRootProxiesEv
libpqApplicationComponents.so.1:_ZN15pqProxyCategory14removeCategoryERK7QString
libpqApplicationComponents.so.1:_ZN15pqProxyCategory15findSubCategoryERK7QString
libpqApplicationComponents.so.1:_ZN15pqProxyCategory16convertLegacyXMLEP15vtkPVXMLElement
libpqApplicationComponents.so.1:_ZN15pqProxyCategory16getSubCategoriesEv
libpqApplicationComponents.so.1:_ZN15pqProxyCategory16parseXMLHintsTagERK7QStringS2_P15vtkPVXMLElement
libpqApplicationComponents.so.1:_ZN15pqProxyCategory16setShowInToolbarEb
libpqApplicationComponents.so.1:_ZN15pqProxyCategory16staticMetaObjectE
libpqApplicationComponents.so.1:_ZN15pqProxyCategory17cleanDeletedProxyEP7QObject
libpqApplicationComponents.so.1:_ZN15pqProxyCategory19getProxiesRecursiveEv
libpqApplicationComponents.so.1:_ZN15pqProxyCategory19hasProxiesRecursiveEv
libpqApplicationComponents.so.1:_ZN15pqProxyCategory22makeUniqueCategoryNameERK7QString
libpqApplicationComponents.so.1:_ZN15pqProxyCategory23makeUniqueCategoryLabelERK7QString
libpqApplicationComponents.so.1:_ZN15pqProxyCategory25getSubCategoriesRecursiveEv
libpqApplicationComponents.so.1:_ZN15pqProxyCategory26getOrderedRootProxiesNamesEv
libpqApplicationComponents.so.1:_ZN15pqProxyCategory27getCategoriesAlphabeticallyEv
libpqApplicationComponents.so.1:_ZN15pqProxyCategory5clearEv
libpqApplicationComponents.so.1:_ZN15pqProxyCategory5labelEv
libpqApplicationComponents.so.1:_ZN15pqProxyCategory6renameERK7QString
libpqApplicationComponents.so.1:_ZN15pqProxyCategory7isEmptyEv
libpqApplicationComponents.so.1:_ZN15pqProxyCategory8addProxyEP11pqProxyInfo
libpqApplicationComponents.so.1:_ZN15pqProxyCategory8deepCopyEPS_
libpqApplicationComponents.so.1:_ZN15pqProxyCategory8hasProxyERK7QString
libpqApplicationComponents.so.1:_ZN15pqProxyCategory8parseXMLEP15vtkPVXMLElement
libpqApplicationComponents.so.1:_ZN15pqProxyCategory8parseXMLEPS_P15vtkPVXMLElement
libpqApplicationComponents.so.1:_ZN15pqProxyCategory9findProxyERK7QStringb
libpqApplicationComponents.so.1:_ZN15pqProxyCategoryC1EPS_
libpqApplicationComponents.so.1:_ZN15pqProxyCategoryC1EPS_RK7QStringS3_
libpqApplicationComponents.so.1:_ZN15pqProxyCategoryC2EPS_
libpqApplicationComponents.so.1:_ZN15pqProxyCategoryC2EPS_RK7QStringS3_
libpqApplicationComponents.so.1:_ZN15pqProxyCategoryD0Ev
libpqApplicationComponents.so.1:_ZN15pqProxyCategoryD1Ev
libpqApplicationComponents.so.1:_ZN15pqProxyCategoryD2Ev
libpqApplicationComponents.so.1:_ZN15pqTimelineModel11qt_metacallEN11QMetaObject4CallEiPPv
libpqApplicationComponents.so.1:_ZN15pqTimelineModel11qt_metacastEPKc
libpqApplicationComponents.so.1:_ZN15pqTimelineModel12isRowEnabledEN15pqTimelineTrack9TrackTypeERK7QString
libpqApplicationComponents.so.1:_ZN15pqTimelineModel13setRowEnabledEN15pqTimelineTrack9TrackTypeEbRK7QString
libpqApplicationComponents.so.1:_ZN15pqTimelineModel13uncheckedRowsEN15pqTimelineTrack9TrackTypeE
libpqApplicationComponents.so.1:_ZN15pqTimelineModel14setRowsEnabledEN15pqTimelineTrack9TrackTypeEb
libpqApplicationComponents.so.1:_ZN15pqTimelineModel16staticMetaObjectE
libpqApplicationComponents.so.1:_ZN15pqTimelineModel18sourceStateChangedEv
libpqApplicationComponents.so.1:_ZN15pqTimelineModel21animationStateChangedEv
libpqApplicationComponents.so.1:_ZN15pqTimelineModel4rowsEN15pqTimelineTrack9TrackTypeE
libpqApplicationComponents.so.1:_ZN15pqTimelineModel7setDataERK11QModelIndexRK8QVarianti
libpqApplicationComponents.so.1:_ZN15pqTimelineModel9clearRowsEN15pqTimelineTrack9TrackTypeE
libpqApplicationComponents.so.1:_ZN15pqTimelineModel9createRowEN15pqTimelineTrack9TrackTypeERK7QString4QMapIi8QVariantE
libpqApplicationComponents.so.1:_ZN15pqTimelineModel9deleteRowEN15pqTimelineTrack9TrackTypeERK7QString
libpqApplicationComponents.so.1:_ZN15pqTimelineModel9toggleRowEN15pqTimelineTrack9TrackTypeERK7QString
libpqApplicationComponents.so.1:_ZN15pqTimelineModelC1EP7QObject
libpqApplicationComponents.so.1:_ZN15pqTimelineModelC2EP7QObject
libpqApplicationComponents.so.1:_ZN15pqTimelineModelD0Ev
libpqApplicationComponents.so.1:_ZN15pqTimelineModelD1Ev
libpqApplicationComponents.so.1:_ZN15pqTimelineModelD2Ev
libpqApplicationComponents.so.1:_ZN15pqTraceReaction11onTriggeredEv
libpqApplicationComponents.so.1:_ZN15pqTraceReaction11qt_metacallEN11QMetaObject4CallEiPPv
libpqApplicationComponents.so.1:_ZN15pqTraceReaction11qt_metacastEPKc
libpqApplicationComponents.so.1:_ZN15pqTraceReaction11updateTraceEv
libpqApplicationComponents.so.1:_ZN15pqTraceReaction16staticMetaObjectE
libpqApplicationComponents.so.1:_ZN15pqTraceReaction4stopEv
libpqApplicationComponents.so.1:_ZN15pqTraceReaction5startEv
libpqApplicationComponents.so.1:_ZN15pqTraceReaction9editTraceERK7QStringb
libpqApplicationComponents.so.1:_ZN15pqTraceReactionC1EP7QAction7QStringS2_
libpqApplicationComponents.so.1:_ZN15pqTraceReactionC2EP7QAction7QStringS2_
libpqApplicationComponents.so.1:_ZN15pqTraceReactionD0Ev
libpqApplicationComponents.so.1:_ZN15pqTraceReactionD1Ev
libpqApplicationComponents.so.1:_ZN15pqTraceReactionD2Ev
libpqApplicationComponents.so.1:_ZN15pqWelcomeDialog11qt_metacallEN11QMetaObject4CallEiPPv
libpqApplicationComponents.so.1:_ZN15pqWelcomeDialog11qt_metacastEPKc
libpqApplicationComponents.so.1:_ZN15pqWelcomeDialog16staticMetaObjectE
libpqApplicationComponents.so.1:_ZN15pqWelcomeDialog28onDoNotShowAgainStateChangedEN2Qt10CheckStateE
libpqApplicationComponents.so.1:_ZN15pqWelcomeDialog28onGettingStartedGuideClickedEv
libpqApplicationComponents.so.1:_ZN15pqWelcomeDialog30onExampleVisualizationsClickedEv
libpqApplicationComponents.so.1:_ZN15pqWelcomeDialogC1EP7QWidget
libpqApplicationComponents.so.1:_ZN15pqWelcomeDialogC2EP7QWidget
libpqApplicationComponents.so.1:_ZN15pqWelcomeDialogD0Ev
libpqApplicationComponents.so.1:_ZN15pqWelcomeDialogD1Ev
libpqApplicationComponents.so.1:_ZN15pqWelcomeDialogD2Ev
libpqApplicationComponents.so.1:_ZN16pqCameraReaction10zoomToDataEb
libpqApplicationComponents.so.1:_ZN16pqCameraReaction11onTriggeredEv
libpqApplicationComponents.so.1:_ZN16pqCameraReaction11qt_metacallEN11QMetaObject4CallEiPPv
libpqApplicationComponents.so.1:_ZN16pqCameraReaction11qt_metacastEPKc
libpqApplicationComponents.so.1:_ZN16pqCameraReaction11resetCameraEb
libpqApplicationComponents.so.1:_ZN16pqCameraReaction12rotateCameraEd
libpqApplicationComponents.so.1:_ZN16pqCameraReaction14resetDirectionEdddddd
libpqApplicationComponents.so.1:_ZN16pqCameraReaction14resetNegativeXEv
libpqApplicationComponents.so.1:_ZN16pqCameraReaction14resetNegativeYEv
libpqApplicationComponents.so.1:_ZN16pqCameraReaction14resetNegativeZEv
libpqApplicationComponents.so.1:_ZN16pqCameraReaction14resetPositiveXEv
libpqApplicationComponents.so.1:_ZN16pqCameraReaction14resetPositiveYEv
libpqApplicationComponents.so.1:_ZN16pqCameraReaction14resetPositiveZEv
libpqApplicationComponents.so.1:_ZN16pqCameraReaction16staticMetaObjectE
libpqApplicationComponents.so.1:_ZN16pqCameraReaction17updateEnableStateEv
libpqApplicationComponents.so.1:_ZN16pqCameraReaction18applyIsometricViewEv
libpqApplicationComponents.so.1:_ZN16pqCameraReactionC1EP7QActionNS_4ModeE
libpqApplicationComponents.so.1:_ZN16pqCameraReactionC2EP7QActionNS_4ModeE
libpqApplicationComponents.so.1:_ZN16pqColorMapEditor11qt_metacallEN11QMetaObject4CallEiPPv
libpqApplicationComponents.so.1:_ZN16pqColorMapEditor11qt_metacastEPKc
libpqApplicationComponents.so.1:_ZN16pqColorMapEditor11renderViewsEv
libpqApplicationComponents.so.1:_ZN16pqColorMapEditor11updatePanelEv
libpqApplicationComponents.so.1:_ZN16pqColorMapEditor12updateActiveEb
libpqApplicationComponents.so.1:_ZN16pqColorMapEditor13saveAsDefaultEv
libpqApplicationComponents.so.1:_ZN16pqColorMapEditor13setAutoUpdateEb
libpqApplicationComponents.so.1:_ZN16pqColorMapEditor14updateIfNeededEv
libpqApplicationComponents.so.1:_ZN16pqColorMapEditor15restoreDefaultsEv
libpqApplicationComponents.so.1:_ZN16pqColorMapEditor16staticMetaObjectE
libpqApplicationComponents.so.1:_ZN16pqColorMapEditor17setRepresentationEP20pqDataRepresentationb
libpqApplicationComponents.so.1:_ZN16pqColorMapEditor18saveAsArrayDefaultEv
libpqApplicationComponents.so.1:_ZN16pqColorMapEditor22updateScalarBarButtonsEv
libpqApplicationComponents.so.1:_ZN16pqColorMapEditor25setColorTransferFunctionsESt6vectorIP10vtkSMProxySaIS2_EE
libpqApplicationComponents.so.1:_ZN16pqColorMapEditor25setSelectedPropertiesTypeEi
libpqApplicationComponents.so.1:_ZN16pqColorMapEditor31updateColorArraySelectorWidgetsEv
libpqApplicationComponents.so.1:_ZN16pqColorMapEditor32updateColor2ArraySelectorWidgetsEv
libpqApplicationComponents.so.1:_ZN16pqColorMapEditor33updateOpacityArraySelectorWidgetsEv
libpqApplicationComponents.so.1:_ZN16pqColorMapEditorC1EP7QWidget
libpqApplicationComponents.so.1:_ZN16pqColorMapEditorC2EP7QWidget
libpqApplicationComponents.so.1:_ZN16pqColorMapEditorD0Ev
libpqApplicationComponents.so.1:_ZN16pqColorMapEditorD1Ev
libpqApplicationComponents.so.1:_ZN16pqColorMapEditorD2Ev
libpqApplicationComponents.so.1:_ZN16pqDeleteReaction10deleteTreeEv
libpqApplicationComponents.so.1:_ZN16pqDeleteReaction11onTriggeredEv
libpqApplicationComponents.so.1:_ZN16pqDeleteReaction11qt_metacallEN11QMetaObject4CallEiPPv
libpqApplicationComponents.so.1:_ZN16pqDeleteReaction11qt_metacastEPKc
libpqApplicationComponents.so.1:_ZN16pqDeleteReaction12deleteSourceEP7pqProxy
libpqApplicationComponents.so.1:_ZN16pqDeleteReaction13aboutToDeleteEP7pqProxy
libpqApplicationComponents.so.1:_ZN16pqDeleteReaction13canDeleteTreeEv
libpqApplicationComponents.so.1:_ZN16pqDeleteReaction13deleteSourcesERK4QSetIP7pqProxyE
libpqApplicationComponents.so.1:_ZN16pqDeleteReaction14deleteSelectedEv
libpqApplicationComponents.so.1:_ZN16pqDeleteReaction16staticMetaObjectE
libpqApplicationComponents.so.1:_ZN16pqDeleteReaction17canDeleteSelectedEv
libpqApplicationComponents.so.1:_ZN16pqDeleteReaction17updateEnableStateEv
libpqApplicationComponents.so.1:_ZN16pqDeleteReaction9deleteAllEv
libpqApplicationComponents.so.1:_ZN16pqDeleteReactionC1EP7QActionNS_11DeleteModesE
libpqApplicationComponents.so.1:_ZN16pqDeleteReactionC2EP7QActionNS_11DeleteModesE
libpqApplicationComponents.so.1:_ZN16pqExportReaction11qt_metacallEN11QMetaObject4CallEiPPv
libpqApplicationComponents.so.1:_ZN16pqExportReaction11qt_metacastEPKc
libpqApplicationComponents.so.1:_ZN16pqExportReaction16exportActiveViewEv
libpqApplicationComponents.so.1:_ZN16pqExportReaction16staticMetaObjectE
libpqApplicationComponents.so.1:_ZN16pqExportReaction17updateEnableStateEv
libpqApplicationComponents.so.1:_ZN16pqExportReactionC1EP7QAction
libpqApplicationComponents.so.1:_ZN16pqExportReactionC2EP7QAction
libpqApplicationComponents.so.1:_ZN16pqFindDataWidget11qt_metacallEN11QMetaObject4CallEiPPv
libpqApplicationComponents.so.1:_ZN16pqFindDataWidget11qt_metacastEPKc
libpqApplicationComponents.so.1:_ZN16pqFindDataWidget13aboutToRemoveEP16pqPipelineSource
libpqApplicationComponents.so.1:_ZN16pqFindDataWidget16staticMetaObjectE
libpqApplicationComponents.so.1:_ZN16pqFindDataWidget22handleSelectionChangedEP12pqOutputPort
libpqApplicationComponents.so.1:_ZN16pqFindDataWidget9setServerEP8pqServer
libpqApplicationComponents.so.1:_ZN16pqFindDataWidgetC1EP7QWidget
libpqApplicationComponents.so.1:_ZN16pqFindDataWidgetC2EP7QWidget
libpqApplicationComponents.so.1:_ZN16pqFindDataWidgetD0Ev
libpqApplicationComponents.so.1:_ZN16pqFindDataWidgetD1Ev
libpqApplicationComponents.so.1:_ZN16pqFindDataWidgetD2Ev
libpqApplicationComponents.so.1:_ZN16pqImportReaction11qt_metacallEN11QMetaObject4CallEiPPv
libpqApplicationComponents.so.1:_ZN16pqImportReaction11qt_metacastEPKc
libpqApplicationComponents.so.1:_ZN16pqImportReaction16staticMetaObjectE
libpqApplicationComponents.so.1:_ZN16pqImportReaction17updateEnableStateEv
libpqApplicationComponents.so.1:_ZN16pqImportReaction6importEv
libpqApplicationComponents.so.1:_ZN16pqImportReactionC1EP7QAction
libpqApplicationComponents.so.1:_ZN16pqImportReactionC2EP7QAction
libpqApplicationComponents.so.1:_ZN16pqTimelineWidget11addCueTrackEP14pqAnimationCue
libpqApplicationComponents.so.1:_ZN16pqTimelineWidget11qt_metacallEN11QMetaObject4CallEiPPv
libpqApplicationComponents.so.1:_ZN16pqTimelineWidget11qt_metacastEPKc
libpqApplicationComponents.so.1:_ZN16pqTimelineWidget12onNewSessionEv
libpqApplicationComponents.so.1:_ZN16pqTimelineWidget14removeCueTrackEP14pqAnimationCue
libpqApplicationComponents.so.1:_ZN16pqTimelineWidget14updateCueCacheERK7QStringS2_P10vtkSMProxy
libpqApplicationComponents.so.1:_ZN16pqTimelineWidget15setAdvancedModeEb
libpqApplicationComponents.so.1:_ZN16pqTimelineWidget16staticMetaObjectE
libpqApplicationComponents.so.1:_ZN16pqTimelineWidget19recreateTimeSourcesEv
libpqApplicationComponents.so.1:_ZN16pqTimelineWidget19updateCueTracksDataEv
libpqApplicationComponents.so.1:_ZN16pqTimelineWidget20renameTrackFromProxyEP24pqServerManagerModelItem
libpqApplicationComponents.so.1:_ZN16pqTimelineWidget20updateCueTracksStateEv
libpqApplicationComponents.so.1:_ZN16pqTimelineWidget24updateTimeTrackFromSceneEv
libpqApplicationComponents.so.1:_ZN16pqTimelineWidget25updateSourceTimeFromProxyEP24pqServerManagerModelItem
libpqApplicationComponents.so.1:_ZN16pqTimelineWidget29updateSceneFromEnabledSourcesEv
libpqApplicationComponents.so.1:_ZN16pqTimelineWidget32updateSceneFromEnabledAnimationsEv
libpqApplicationComponents.so.1:_ZN16pqTimelineWidgetC1EP7QWidget
libpqApplicationComponents.so.1:_ZN16pqTimelineWidgetC2EP7QWidget
libpqApplicationComponents.so.1:_ZN16pqTimelineWidgetD0Ev
libpqApplicationComponents.so.1:_ZN16pqTimelineWidgetD1Ev
libpqApplicationComponents.so.1:_ZN16pqTimelineWidgetD2Ev
libpqApplicationComponents.so.1:_ZN17pqColorTableModel11insertPointEm
libpqApplicationComponents.so.1:_ZN17pqColorTableModel11qt_metacallEN11QMetaObject4CallEiPPv
libpqApplicationComponents.so.1:_ZN17pqColorTableModel11qt_metacastEPKc
libpqApplicationComponents.so.1:_ZN17pqColorTableModel11updatePointERK11QModelIndex
libpqApplicationComponents.so.1:_ZN17pqColorTableModel16staticMetaObjectE
libpqApplicationComponents.so.1:_ZN17pqColorTableModel20controlPointsChangedEv
libpqApplicationComponents.so.1:_ZN17pqColorTableModel7setDataERK11QModelIndexRK8QVarianti
libpqApplicationComponents.so.1:_ZN17pqColorTableModel9setPointsERKSt6vectorI9vtkVectorIdLi6EESaIS2_EE
libpqApplicationComponents.so.1:_ZN17pqColorTableModelC1EP26pqColorOpacityEditorWidgetP7QObject
libpqApplicationComponents.so.1:_ZN17pqColorTableModelC2EP26pqColorOpacityEditorWidgetP7QObject
libpqApplicationComponents.so.1:_ZN17pqColorTableModelD0Ev
libpqApplicationComponents.so.1:_ZN17pqColorTableModelD1Ev
libpqApplicationComponents.so.1:_ZN17pqColorTableModelD2Ev
libpqApplicationComponents.so.1:_ZN17pqSelectionEditor11qt_metacallEN11QMetaObject4CallEiPPv
libpqApplicationComponents.so.1:_ZN17pqSelectionEditor11qt_metacastEPKc
libpqApplicationComponents.so.1:_ZN17pqSelectionEditor16staticMetaObjectE
libpqApplicationComponents.so.1:_ZN17pqSelectionEditor18onSelectionChangedEP12pqOutputPort
libpqApplicationComponents.so.1:_ZN17pqSelectionEditor19onActiveViewChangedEP6pqView
libpqApplicationComponents.so.1:_ZN17pqSelectionEditor19onExpressionChangedERK7QString
libpqApplicationComponents.so.1:_ZN17pqSelectionEditor19onVisibilityChangedEP16pqPipelineSourceP20pqDataRepresentation
libpqApplicationComponents.so.1:_ZN17pqSelectionEditor19removeAllSelectionsEi
libpqApplicationComponents.so.1:_ZN17pqSelectionEditor20onAddActiveSelectionEv
libpqApplicationComponents.so.1:_ZN17pqSelectionEditor21onAboutToRemoveSourceEP16pqPipelineSource
libpqApplicationComponents.so.1:_ZN17pqSelectionEditor21onActiveServerChangedEP8pqServer
libpqApplicationComponents.so.1:_ZN17pqSelectionEditor21onActiveSourceChangedEP16pqPipelineSource
libpqApplicationComponents.so.1:_ZN17pqSelectionEditor21onRemoveAllSelectionsEv
libpqApplicationComponents.so.1:_ZN17pqSelectionEditor23onTableSelectionChangedERK14QItemSelectionS2_
libpqApplicationComponents.so.1:_ZN17pqSelectionEditor24hideInteractiveSelectionEv
libpqApplicationComponents.so.1:_ZN17pqSelectionEditor24showInteractiveSelectionEj
libpqApplicationComponents.so.1:_ZN17pqSelectionEditor25clearInteractiveSelectionEv
libpqApplicationComponents.so.1:_ZN17pqSelectionEditor25onRemoveSelectedSelectionEv
libpqApplicationComponents.so.1:_ZN17pqSelectionEditor28onActivateCombinedSelectionsEv
libpqApplicationComponents.so.1:_ZN17pqSelectionEditorC1EP7QWidget
libpqApplicationComponents.so.1:_ZN17pqSelectionEditorC2EP7QWidget
libpqApplicationComponents.so.1:_ZN17pqSelectionEditorD0Ev
libpqApplicationComponents.so.1:_ZN17pqSelectionEditorD1Ev
libpqApplicationComponents.so.1:_ZN17pqSelectionEditorD2Ev
libpqApplicationComponents.so.1:_ZN17pqTestingReaction10recordTestERK7QString
libpqApplicationComponents.so.1:_ZN17pqTestingReaction10recordTestEv
libpqApplicationComponents.so.1:_ZN17pqTestingReaction11qt_metacallEN11QMetaObject4CallEiPPv
libpqApplicationComponents.so.1:_ZN17pqTestingReaction11qt_metacastEPKc
libpqApplicationComponents.so.1:_ZN17pqTestingReaction12lockViewSizeEb
libpqApplicationComponents.so.1:_ZN17pqTestingReaction16staticMetaObjectE
libpqApplicationComponents.so.1:_ZN17pqTestingReaction18lockViewSizeCustomEv
libpqApplicationComponents.so.1:_ZN17pqTestingReaction8playTestERK7QString
libpqApplicationComponents.so.1:_ZN17pqTestingReaction8playTestEv
libpqApplicationComponents.so.1:_ZN17pqTestingReactionC1EP7QActionNS_4ModeEN2Qt14ConnectionTypeE
libpqApplicationComponents.so.1:_ZN17pqTestingReactionC2EP7QActionNS_4ModeEN2Qt14ConnectionTypeE
libpqApplicationComponents.so.1:_ZN17pqTimelinePainter10paintLabelEP8QPainterRK20QStyleOptionViewItemP13QStandardItemdRK7QString
libpqApplicationComponents.so.1:_ZN17pqTimelinePainter11isTimeTrackEP13QStandardItem
libpqApplicationComponents.so.1:_ZN17pqTimelinePainter11qt_metacallEN11QMetaObject4CallEiPPv
libpqApplicationComponents.so.1:_ZN17pqTimelinePainter11qt_metacastEPKc
libpqApplicationComponents.so.1:_ZN17pqTimelinePainter13getSourceTimeEP13QStandardItem
libpqApplicationComponents.so.1:_ZN17pqTimelinePainter13paintTimeMarkEP8QPainterRK20QStyleOptionViewItemd
libpqApplicationComponents.so.1:_ZN17pqTimelinePainter13paintTimelineEP8QPainterRK20QStyleOptionViewItemP13QStandardItembS4_
libpqApplicationComponents.so.1:_ZN17pqTimelinePainter14paintTimeTrackEP8QPainterRK20QStyleOptionViewItemP13QStandardItem
libpqApplicationComponents.so.1:_ZN17pqTimelinePainter15getEndLabelRectEv
libpqApplicationComponents.so.1:_ZN17pqTimelinePainter15paintBackgroundEP8QPainterRK20QStyleOptionViewItemb
libpqApplicationComponents.so.1:_ZN17pqTimelinePainter15setSceneEndTimeEd
libpqApplicationComponents.so.1:_ZN17pqTimelinePainter15setSceneLockEndEb
libpqApplicationComponents.so.1:_ZN17pqTimelinePainter16displayTimeRangeEv
libpqApplicationComponents.so.1:_ZN17pqTimelinePainter16isAnimationTrackEP13QStandardItem
libpqApplicationComponents.so.1:_ZN17pqTimelinePainter16paintSourceTrackEP8QPainterRK20QStyleOptionViewItemP13QStandardItem
libpqApplicationComponents.so.1:_ZN17pqTimelinePainter16positionFromTimeEd
libpqApplicationComponents.so.1:_ZN17pqTimelinePainter16positionFromTimeEdRK20QStyleOptionViewItem
libpqApplicationComponents.so.1:_ZN17pqTimelinePainter16staticMetaObjectE
libpqApplicationComponents.so.1:_ZN17pqTimelinePainter16timeFromPositionEd
libpqApplicationComponents.so.1:_ZN17pqTimelinePainter16timeFromPositionEdRK20QStyleOptionViewItem
libpqApplicationComponents.so.1:_ZN17pqTimelinePainter17getStartLabelRectEv
libpqApplicationComponents.so.1:_ZN17pqTimelinePainter17hasStartEndLabelsEv
libpqApplicationComponents.so.1:_ZN17pqTimelinePainter17setSceneLockStartEb
libpqApplicationComponents.so.1:_ZN17pqTimelinePainter17setSceneStartTimeEd
libpqApplicationComponents.so.1:_ZN17pqTimelinePainter19getSceneCurrentTimeEv
libpqApplicationComponents.so.1:_ZN17pqTimelinePainter19paintAnimationTrackEP8QPainterRK20QStyleOptionViewItemP13QStandardItem
libpqApplicationComponents.so.1:_ZN17pqTimelinePainter19setDisplayTimeRangeEdd
libpqApplicationComponents.so.1:_ZN17pqTimelinePainter19setSceneCurrentTimeEd
libpqApplicationComponents.so.1:_ZN17pqTimelinePainter21indexTimeFromPositionEdRK20QStyleOptionViewItemRK11QModelIndex
libpqApplicationComponents.so.1:_ZN17pqTimelinePainter21paintSceneCurrentTimeEP8QPainterRK20QStyleOptionViewItem
libpqApplicationComponents.so.1:_ZN17pqTimelinePainter23paintSourcePipelineTimeEP8QPainterRK20QStyleOptionViewItemP13QStandardItem
libpqApplicationComponents.so.1:_ZN17pqTimelinePainter5paintEP8QPainterRK11QModelIndexRK20QStyleOptionViewItem
libpqApplicationComponents.so.1:_ZN17pqTimelinePainter8getLabelEP13QStandardItemi
libpqApplicationComponents.so.1:_ZN17pqTimelinePainter8getTimesEP13QStandardItem
libpqApplicationComponents.so.1:_ZN17pqTimelinePainter9paintTickEP8QPainterRK20QStyleOptionViewItemP13QStandardItemdbS4_RK7QString
libpqApplicationComponents.so.1:_ZN17pqTimelinePainterC1EP7QObject
libpqApplicationComponents.so.1:_ZN17pqTimelinePainterC2EP7QObject
libpqApplicationComponents.so.1:_ZN17pqTimelinePainterD0Ev
libpqApplicationComponents.so.1:_ZN17pqTimelinePainterD1Ev
libpqApplicationComponents.so.1:_ZN17pqTimelinePainterD2Ev
libpqApplicationComponents.so.1:_ZN17pqViewMenuManager10updateMenuEv
libpqApplicationComponents.so.1:_ZN17pqViewMenuManager11qt_metacallEN11QMetaObject4CallEiPPv
libpqApplicationComponents.so.1:_ZN17pqViewMenuManager11qt_metacastEPKc
libpqApplicationComponents.so.1:_ZN17pqViewMenuManager16staticMetaObjectE
libpqApplicationComponents.so.1:_ZN17pqViewMenuManager9buildMenuEv
libpqApplicationComponents.so.1:_ZN17pqViewMenuManagerC1EP11QMainWindowP5QMenu
libpqApplicationComponents.so.1:_ZN17pqViewMenuManagerC2EP11QMainWindowP5QMenu
libpqApplicationComponents.so.1:_ZN18pqAutoSaveBehavior11qt_metacallEN11QMetaObject4CallEiPPv
libpqApplicationComponents.so.1:_ZN18pqAutoSaveBehavior11qt_metacastEPKc
libpqApplicationComponents.so.1:_ZN18pqAutoSaveBehavior12getStatePathEb
libpqApplicationComponents.so.1:_ZN18pqAutoSaveBehavior14getStateFormatEv
libpqApplicationComponents.so.1:_ZN18pqAutoSaveBehavior15getBakStatePathEv
libpqApplicationComponents.so.1:_ZN18pqAutoSaveBehavior16clearConnectionsEv
libpqApplicationComponents.so.1:_ZN18pqAutoSaveBehavior16getLastStatePathEv
libpqApplicationComponents.so.1:_ZN18pqAutoSaveBehavior16staticMetaObjectE
libpqApplicationComponents.so.1:_ZN18pqAutoSaveBehavior17getStateDirectoryEv
libpqApplicationComponents.so.1:_ZN18pqAutoSaveBehavior17updateConnectionsEv
libpqApplicationComponents.so.1:_ZN18pqAutoSaveBehavior18setAutoSaveSettingEb
libpqApplicationComponents.so.1:_ZN18pqAutoSaveBehavior22autoSaveSettingEnabledEv
libpqApplicationComponents.so.1:_ZN18pqAutoSaveBehavior9saveStateEv
libpqApplicationComponents.so.1:_ZN18pqAutoSaveBehaviorC1EP7QObject
libpqApplicationComponents.so.1:_ZN18pqAutoSaveBehaviorC2EP7QObject
libpqApplicationComponents.so.1:_ZN18pqAutoSaveBehaviorD0Ev
libpqApplicationComponents.so.1:_ZN18pqAutoSaveBehaviorD1Ev
libpqApplicationComponents.so.1:_ZN18pqAutoSaveBehaviorD2Ev
libpqApplicationComponents.so.1:_ZN18pqBlockContextMenu11qt_metacallEN11QMetaObject4CallEiPPv
libpqApplicationComponents.so.1:_ZN18pqBlockContextMenu11qt_metacastEPKc
libpqApplicationComponents.so.1:_ZN18pqBlockContextMenu16staticMetaObjectE
libpqApplicationComponents.so.1:_ZN18pqBlockContextMenuC1EP7QObject
libpqApplicationComponents.so.1:_ZN18pqBlockContextMenuC2EP7QObject
libpqApplicationComponents.so.1:_ZN18pqBlockContextMenuD0Ev
libpqApplicationComponents.so.1:_ZN18pqBlockContextMenuD1Ev
libpqApplicationComponents.so.1:_ZN18pqBlockContextMenuD2Ev
libpqApplicationComponents.so.1:_ZN18pqEditMacrosDialog10deleteItemERK11QModelIndex
libpqApplicationComponents.so.1:_ZN18pqEditMacrosDialog11deleteItemsERK5QListI11QModelIndexE
libpqApplicationComponents.so.1:_ZN18pqEditMacrosDialog11qt_metacallEN11QMetaObject4CallEiPPv
libpqApplicationComponents.so.1:_ZN18pqEditMacrosDialog11qt_metacastEPKc
libpqApplicationComponents.so.1:_ZN18pqEditMacrosDialog12onAddPressedEv
libpqApplicationComponents.so.1:_ZN18pqEditMacrosDialog12treeHasItemsEv
libpqApplicationComponents.so.1:_ZN18pqEditMacrosDialog13onEditPressedEv
libpqApplicationComponents.so.1:_ZN18pqEditMacrosDialog13updateUIStateEv
libpqApplicationComponents.so.1:_ZN18pqEditMacrosDialog14getNearestItemERK11QModelIndex
libpqApplicationComponents.so.1:_ZN18pqEditMacrosDialog15getSelectedItemEv
libpqApplicationComponents.so.1:_ZN18pqEditMacrosDialog15onRemovePressedEv
libpqApplicationComponents.so.1:_ZN18pqEditMacrosDialog16onSetIconPressedEv
libpqApplicationComponents.so.1:_ZN18pqEditMacrosDialog16staticMetaObjectE
libpqApplicationComponents.so.1:_ZN18pqEditMacrosDialog18onRemoveAllPressedEv
libpqApplicationComponents.so.1:_ZN18pqEditMacrosDialog19onSearchTextChangedERK7QString
libpqApplicationComponents.so.1:_ZN18pqEditMacrosDialog20treeHasSelectedItemsEv
libpqApplicationComponents.so.1:_ZN18pqEditMacrosDialogC1EP7QWidget
libpqApplicationComponents.so.1:_ZN18pqEditMacrosDialogC2EP7QWidget
libpqApplicationComponents.so.1:_ZN18pqEditMacrosDialogD0Ev
libpqApplicationComponents.so.1:_ZN18pqEditMacrosDialogD1Ev
libpqApplicationComponents.so.1:_ZN18pqEditMacrosDialogD2Ev
libpqApplicationComponents.so.1:_ZN18pqLoadDataReaction10loadedDataEP16pqPipelineSource
libpqApplicationComponents.so.1:_ZN18pqLoadDataReaction11qt_metacallEN11QMetaObject4CallEiPPv
libpqApplicationComponents.so.1:_ZN18pqLoadDataReaction11qt_metacastEPKc
libpqApplicationComponents.so.1:_ZN18pqLoadDataReaction16staticMetaObjectE
libpqApplicationComponents.so.1:_ZN18pqLoadDataReaction17updateEnableStateEv
libpqApplicationComponents.so.1:_ZN18pqLoadDataReaction19DetermineFileReaderERK7QStringP8pqServerP18vtkSMReaderFactoryRSt4pairIS0_S0_E
libpqApplicationComponents.so.1:_ZN18pqLoadDataReaction19TestFileReadabilityERK7QStringP8pqServerP18vtkSMReaderFactory
libpqApplicationComponents.so.1:_ZN18pqLoadDataReaction19addReaderToDefaultsERK7QStringP8pqServerP18vtkSMReaderFactoryS2_
libpqApplicationComponents.so.1:_ZN18pqLoadDataReaction20loadFilesForAllTypesE5QListIS0_I7QStringEEP8pqServerP18vtkSMReaderFactory
libpqApplicationComponents.so.1:_ZN18pqLoadDataReaction26loadFilesForSupportedTypesE5QListIS0_I7QStringEE
libpqApplicationComponents.so.1:_ZN18pqLoadDataReaction8LoadFileERK5QListI7QStringEP8pqServerRKSt4pairIS1_S1_E
libpqApplicationComponents.so.1:_ZN18pqLoadDataReaction8loadDataERK4QSetISt4pairI7QStringS2_EEb
libpqApplicationComponents.so.1:_ZN18pqLoadDataReaction8loadDataERK5QListI7QStringERKS1_S6_P8pqServer
libpqApplicationComponents.so.1:_ZN18pqLoadDataReaction8loadDataERK5QListIS0_I7QStringEERKS1_S7_P8pqServer
libpqApplicationComponents.so.1:_ZN18pqLoadDataReaction8loadDataEb
libpqApplicationComponents.so.1:_ZN18pqLoadDataReactionC1EP7QAction
libpqApplicationComponents.so.1:_ZN18pqLoadDataReactionC2EP7QAction
libpqApplicationComponents.so.1:_ZN18pqSaveDataReaction11dataUpdatedEP16pqPipelineSource
libpqApplicationComponents.so.1:_ZN18pqSaveDataReaction11qt_metacallEN11QMetaObject4CallEiPPv
libpqApplicationComponents.so.1:_ZN18pqSaveDataReaction11qt_metacastEPKc
libpqApplicationComponents.so.1:_ZN18pqSaveDataReaction14saveActiveDataERK7QStringS2_
libpqApplicationComponents.so.1:_ZN18pqSaveDataReaction14saveActiveDataEv
libpqApplicationComponents.so.1:_ZN18pqSaveDataReaction16defaultExtensionEP20vtkPVDataInformation
libpqApplicationComponents.so.1:_ZN18pqSaveDataReaction16staticMetaObjectE
libpqApplicationComponents.so.1:_ZN18pqSaveDataReaction17updateEnableStateEv
libpqApplicationComponents.so.1:_ZN18pqSaveDataReaction19setDefaultExtensionEP20vtkPVDataInformationRK7QString
libpqApplicationComponents.so.1:_ZN18pqSaveDataReactionC1EP7QAction
libpqApplicationComponents.so.1:_ZN18pqSaveDataReactionC2EP7QAction
libpqApplicationComponents.so.1:_ZN18pqTimerLogReaction11qt_metacallEN11QMetaObject4CallEiPPv
libpqApplicationComponents.so.1:_ZN18pqTimerLogReaction11qt_metacastEPKc
libpqApplicationComponents.so.1:_ZN18pqTimerLogReaction12showTimerLogEv
libpqApplicationComponents.so.1:_ZN18pqTimerLogReaction16staticMetaObjectE
libpqApplicationComponents.so.1:_ZN18pqUndoRedoBehavior11qt_metacallEN11QMetaObject4CallEiPPv
libpqApplicationComponents.so.1:_ZN18pqUndoRedoBehavior11qt_metacastEPKc
libpqApplicationComponents.so.1:_ZN18pqUndoRedoBehavior16staticMetaObjectE
libpqApplicationComponents.so.1:_ZN18pqUndoRedoBehaviorC1EP7QObject
libpqApplicationComponents.so.1:_ZN18pqUndoRedoBehaviorC2EP7QObject
libpqApplicationComponents.so.1:_ZN18pqUndoRedoReaction11qt_metacallEN11QMetaObject4CallEiPPv
libpqApplicationComponents.so.1:_ZN18pqUndoRedoReaction11qt_metacastEPKc
libpqApplicationComponents.so.1:_ZN18pqUndoRedoReaction12setUndoStackEP11pqUndoStack
libpqApplicationComponents.so.1:_ZN18pqUndoRedoReaction16staticMetaObjectE
libpqApplicationComponents.so.1:_ZN18pqUndoRedoReaction4redoEv
libpqApplicationComponents.so.1:_ZN18pqUndoRedoReaction4undoEv
libpqApplicationComponents.so.1:_ZN18pqUndoRedoReaction5clearEv
libpqApplicationComponents.so.1:_ZN18pqUndoRedoReaction6enableEb
libpqApplicationComponents.so.1:_ZN18pqUndoRedoReaction8setLabelERK7QString
libpqApplicationComponents.so.1:_ZN18pqUndoRedoReactionC1EP7QActionb
libpqApplicationComponents.so.1:_ZN18pqUndoRedoReactionC2EP7QActionb
libpqApplicationComponents.so.1:_ZN19pqAutoApplyReaction11qt_metacallEN11QMetaObject4CallEiPPv
libpqApplicationComponents.so.1:_ZN19pqAutoApplyReaction11qt_metacastEPKc
libpqApplicationComponents.so.1:_ZN19pqAutoApplyReaction11updateStateEv
libpqApplicationComponents.so.1:_ZN19pqAutoApplyReaction12setAutoApplyEb
libpqApplicationComponents.so.1:_ZN19pqAutoApplyReaction16staticMetaObjectE
libpqApplicationComponents.so.1:_ZN19pqAutoApplyReaction17checkStateChangedEb
libpqApplicationComponents.so.1:_ZN19pqAutoApplyReaction9autoApplyEv
libpqApplicationComponents.so.1:_ZN19pqAutoApplyReactionC1EP7QAction
libpqApplicationComponents.so.1:_ZN19pqAutoApplyReactionC2EP7QAction
libpqApplicationComponents.so.1:_ZN19pqBoxPropertyWidget11placeWidgetEv
libpqApplicationComponents.so.1:_ZN19pqBoxPropertyWidget11qt_metacallEN11QMetaObject4CallEiPPv
libpqApplicationComponents.so.1:_ZN19pqBoxPropertyWidget11qt_metacastEPKc
libpqApplicationComponents.so.1:_ZN19pqBoxPropertyWidget12onTabChangedEi
libpqApplicationComponents.so.1:_ZN19pqBoxPropertyWidget16matrixTextEditedEv
libpqApplicationComponents.so.1:_ZN19pqBoxPropertyWidget16staticMetaObjectE
libpqApplicationComponents.so.1:_ZN19pqBoxPropertyWidget21onSMPropertiesChangedEv
libpqApplicationComponents.so.1:_ZN19pqBoxPropertyWidget28fillMatrixTextFromPropertiesEv
libpqApplicationComponents.so.1:_ZN19pqBoxPropertyWidget5applyEv
libpqApplicationComponents.so.1:_ZN19pqBoxPropertyWidgetC1EP10vtkSMProxyP18vtkSMPropertyGroupP7QWidgetb
libpqApplicationComponents.so.1:_ZN19pqBoxPropertyWidgetC2EP10vtkSMProxyP18vtkSMPropertyGroupP7QWidgetb
libpqApplicationComponents.so.1:_ZN19pqBoxPropertyWidgetD0Ev
libpqApplicationComponents.so.1:_ZN19pqBoxPropertyWidgetD1Ev
libpqApplicationComponents.so.1:_ZN19pqBoxPropertyWidgetD2Ev
libpqApplicationComponents.so.1:_ZN19pqCheckableProperty11qt_metacallEN11QMetaObject4CallEiPPv
libpqApplicationComponents.so.1:_ZN19pqCheckableProperty11qt_metacastEPKc
libpqApplicationComponents.so.1:_ZN19pqCheckableProperty12updateWidgetEb
libpqApplicationComponents.so.1:_ZN19pqCheckableProperty16staticMetaObjectE
libpqApplicationComponents.so.1:_ZN19pqCheckableProperty17setEnableCheckboxEb
libpqApplicationComponents.so.1:_ZN19pqCheckableProperty18setPanelVisibilityEPKc
libpqApplicationComponents.so.1:_ZN19pqCheckableProperty5applyEv
libpqApplicationComponents.so.1:_ZN19pqCheckableProperty5resetEv
libpqApplicationComponents.so.1:_ZN19pqCheckableProperty6selectEv
libpqApplicationComponents.so.1:_ZN19pqCheckableProperty7setViewEP6pqView
libpqApplicationComponents.so.1:_ZN19pqCheckableProperty8deselectEv
libpqApplicationComponents.so.1:_ZN19pqCheckablePropertyC1EP10vtkSMProxyP18vtkSMPropertyGroupP7QWidget
libpqApplicationComponents.so.1:_ZN19pqCheckablePropertyC2EP10vtkSMProxyP18vtkSMPropertyGroupP7QWidget
libpqApplicationComponents.so.1:_ZN19pqCheckablePropertyD0Ev
libpqApplicationComponents.so.1:_ZN19pqCheckablePropertyD1Ev
libpqApplicationComponents.so.1:_ZN19pqCheckablePropertyD2Ev
libpqApplicationComponents.so.1:_ZN19pqDataQueryReaction11qt_metacallEN11QMetaObject4CallEiPPv
libpqApplicationComponents.so.1:_ZN19pqDataQueryReaction11qt_metacastEPKc
libpqApplicationComponents.so.1:_ZN19pqDataQueryReaction14showQueryPanelEv
libpqApplicationComponents.so.1:_ZN19pqDataQueryReaction16staticMetaObjectE
libpqApplicationComponents.so.1:_ZN19pqDataQueryReactionC1EP7QAction
libpqApplicationComponents.so.1:_ZN19pqDataQueryReactionC2EP7QAction
libpqApplicationComponents.so.1:_ZN19pqDataQueryReactionD0Ev
libpqApplicationComponents.so.1:_ZN19pqDataQueryReactionD1Ev
libpqApplicationComponents.so.1:_ZN19pqDataQueryReactionD2Ev
libpqApplicationComponents.so.1:_ZN19pqDefaultMainWindow11qt_metacallEN11QMetaObject4CallEiPPv
libpqApplicationComponents.so.1:_ZN19pqDefaultMainWindow11qt_metacastEPKc
libpqApplicationComponents.so.1:_ZN19pqDefaultMainWindow16staticMetaObjectE
libpqApplicationComponents.so.1:_ZN19pqDefaultMainWindowC1EP7QWidget6QFlagsIN2Qt10WindowTypeEE
libpqApplicationComponents.so.1:_ZN19pqDefaultMainWindowC2EP7QWidget6QFlagsIN2Qt10WindowTypeEE
libpqApplicationComponents.so.1:_ZN19pqDefaultMainWindowD0Ev
libpqApplicationComponents.so.1:_ZN19pqDefaultMainWindowD1Ev
libpqApplicationComponents.so.1:_ZN19pqDefaultMainWindowD2Ev
libpqApplicationComponents.so.1:_ZN19pqLoadStateReaction11qt_metacallEN11QMetaObject4CallEiPPv
libpqApplicationComponents.so.1:_ZN19pqLoadStateReaction11qt_metacastEPKc
libpqApplicationComponents.so.1:_ZN19pqLoadStateReaction12activateViewEv
libpqApplicationComponents.so.1:_ZN19pqLoadStateReaction16staticMetaObjectE
libpqApplicationComponents.so.1:_ZN19pqLoadStateReaction17updateEnableStateEv
libpqApplicationComponents.so.1:_ZN19pqLoadStateReaction28pngStatefileValidityCallbackE5QListI7QStringEjRS1_
libpqApplicationComponents.so.1:_ZN19pqLoadStateReaction9loadStateERK7QStringbP8pqServerj
libpqApplicationComponents.so.1:_ZN19pqLoadStateReaction9loadStateEv
libpqApplicationComponents.so.1:_ZN19pqLoadStateReactionC1EP7QAction
libpqApplicationComponents.so.1:_ZN19pqLoadStateReactionC2EP7QAction
libpqApplicationComponents.so.1:_ZN19pqLogViewerReaction11qt_metacallEN11QMetaObject4CallEiPPv
libpqApplicationComponents.so.1:_ZN19pqLogViewerReaction11qt_metacastEPKc
libpqApplicationComponents.so.1:_ZN19pqLogViewerReaction13showLogViewerEv
libpqApplicationComponents.so.1:_ZN19pqLogViewerReaction16staticMetaObjectE
libpqApplicationComponents.so.1:_ZN19pqPVApplicationCore11eventFilterEP7QObjectP6QEvent
libpqApplicationComponents.so.1:_ZN19pqPVApplicationCore11qt_metacallEN11QMetaObject4CallEiPPv
libpqApplicationComponents.so.1:_ZN19pqPVApplicationCore11qt_metacastEPKc
libpqApplicationComponents.so.1:_ZN19pqPVApplicationCore11quickLaunchEv
libpqApplicationComponents.so.1:_ZN19pqPVApplicationCore11startSearchEv
libpqApplicationComponents.so.1:_ZN19pqPVApplicationCore11testUtilityEv
libpqApplicationComponents.so.1:_ZN19pqPVApplicationCore12triggerApplyEv
libpqApplicationComponents.so.1:_ZN19pqPVApplicationCore13applyPipelineEv
libpqApplicationComponents.so.1:_ZN19pqPVApplicationCore16staticMetaObjectE
libpqApplicationComponents.so.1:_ZN19pqPVApplicationCore22aboutToShowQuickLaunchEv
libpqApplicationComponents.so.1:_ZN19pqPVApplicationCore22registerForQuicklaunchEP7QWidget
libpqApplicationComponents.so.1:_ZN19pqPVApplicationCore23loadStateFromPythonFileERK7QStringP8pqServerj
libpqApplicationComponents.so.1:_ZN19pqPVApplicationCore28instantiateLiveSourceManagerEv
libpqApplicationComponents.so.1:_ZN19pqPVApplicationCoreC1ERiPPcP13vtkCLIOptionsbP7QObject
libpqApplicationComponents.so.1:_ZN19pqPVApplicationCoreC2ERiPPcP13vtkCLIOptionsbP7QObject
libpqApplicationComponents.so.1:_ZN19pqPVApplicationCoreD0Ev
libpqApplicationComponents.so.1:_ZN19pqPVApplicationCoreD1Ev
libpqApplicationComponents.so.1:_ZN19pqPVApplicationCoreD2Ev
libpqApplicationComponents.so.1:_ZN19pqParaViewBehaviors11qt_metacallEN11QMetaObject4CallEiPPv
libpqApplicationComponents.so.1:_ZN19pqParaViewBehaviors11qt_metacastEPKc
libpqApplicationComponents.so.1:_ZN19pqParaViewBehaviors13ApplyBehaviorE
libpqApplicationComponents.so.1:_ZN19pqParaViewBehaviors16AutoSaveBehaviorE
libpqApplicationComponents.so.1:_ZN19pqParaViewBehaviors16BlockContentMenuE
libpqApplicationComponents.so.1:_ZN19pqParaViewBehaviors16UndoRedoBehaviorE
libpqApplicationComponents.so.1:_ZN19pqParaViewBehaviors16staticMetaObjectE
libpqApplicationComponents.so.1:_ZN19pqParaViewBehaviors18LiveSourceBehaviorE
libpqApplicationComponents.so.1:_ZN19pqParaViewBehaviors18LockPanelsBehaviorE
libpqApplicationComponents.so.1:_ZN19pqParaViewBehaviors19DefaultViewBehaviorE
libpqApplicationComponents.so.1:_ZN19pqParaViewBehaviors20DataTimeStepBehaviorE
libpqApplicationComponents.so.1:_ZN19pqParaViewBehaviors20QuickLaunchShortcutsE
libpqApplicationComponents.so.1:_ZN19pqParaViewBehaviors20UsageLoggingBehaviorE
libpqApplicationComponents.so.1:_ZN19pqParaViewBehaviors21CollaborationBehaviorE
libpqApplicationComponents.so.1:_ZN19pqParaViewBehaviors21CrashRecoveryBehaviorE
libpqApplicationComponents.so.1:_ZN19pqParaViewBehaviors21ObjectPickingBehaviorE
libpqApplicationComponents.so.1:_ZN19pqParaViewBehaviors21PluginToolBarBehaviorE
libpqApplicationComponents.so.1:_ZN19pqParaViewBehaviors21ViewStreamingBehaviorE
libpqApplicationComponents.so.1:_ZN19pqParaViewBehaviors22CustomShortcutBehaviorE
libpqApplicationComponents.so.1:_ZN19pqParaViewBehaviors22PluginSettingsBehaviorE
libpqApplicationComponents.so.1:_ZN19pqParaViewBehaviors23AlwaysConnectedBehaviorE
libpqApplicationComponents.so.1:_ZN19pqParaViewBehaviors23MainWindowEventBehaviorE
libpqApplicationComponents.so.1:_ZN19pqParaViewBehaviors23StandardPropertyWidgetsE
libpqApplicationComponents.so.1:_ZN19pqParaViewBehaviors23WheelNeedsFocusBehaviorE
libpqApplicationComponents.so.1:_ZN19pqParaViewBehaviors24PythonShellResetBehaviorE
libpqApplicationComponents.so.1:_ZN19pqParaViewBehaviors24StandardViewFrameActionsE
libpqApplicationComponents.so.1:_ZN19pqParaViewBehaviors25AutoLoadPluginXMLBehaviorE
libpqApplicationComponents.so.1:_ZN19pqParaViewBehaviors25PluginActionGroupBehaviorE
libpqApplicationComponents.so.1:_ZN19pqParaViewBehaviors25PluginDockWidgetsBehaviorE
libpqApplicationComponents.so.1:_ZN19pqParaViewBehaviors26CommandLineOptionsBehaviorE
libpqApplicationComponents.so.1:_ZN19pqParaViewBehaviors27PipelineContextMenuBehaviorE
libpqApplicationComponents.so.1:_ZN19pqParaViewBehaviors28VerifyRequiredPluginBehaviorE
libpqApplicationComponents.so.1:_ZN19pqParaViewBehaviors29SpreadSheetVisibilityBehaviorE
libpqApplicationComponents.so.1:_ZN19pqParaViewBehaviors33PersistentMainWindowStateBehaviorE
libpqApplicationComponents.so.1:_ZN19pqParaViewBehaviors33PropertyPanelVisibilitiesBehaviorE
libpqApplicationComponents.so.1:_ZN19pqParaViewBehaviors34StandardRecentlyUsedResourceLoaderE
libpqApplicationComponents.so.1:_ZN19pqParaViewBehaviorsC1EP11QMainWindowP7QObject
libpqApplicationComponents.so.1:_ZN19pqParaViewBehaviorsC2EP11QMainWindowP7QObject
libpqApplicationComponents.so.1:_ZN19pqParaViewBehaviorsD0Ev
libpqApplicationComponents.so.1:_ZN19pqParaViewBehaviorsD1Ev
libpqApplicationComponents.so.1:_ZN19pqParaViewBehaviorsD2Ev
libpqApplicationComponents.so.1:_ZN19pqSaveStateReaction11qt_metacallEN11QMetaObject4CallEiPPv
libpqApplicationComponents.so.1:_ZN19pqSaveStateReaction11qt_metacastEPKc
libpqApplicationComponents.so.1:_ZN19pqSaveStateReaction15savePythonStateERK7QStringP10vtkSMProxyj
libpqApplicationComponents.so.1:_ZN19pqSaveStateReaction15savePythonStateERK7QStringj
libpqApplicationComponents.so.1:_ZN19pqSaveStateReaction16staticMetaObjectE
libpqApplicationComponents.so.1:_ZN19pqSaveStateReaction17updateEnableStateEv
libpqApplicationComponents.so.1:_ZN19pqSaveStateReaction24createPythonStateOptionsEb
libpqApplicationComponents.so.1:_ZN19pqSaveStateReaction9saveStateEP8pqServer
libpqApplicationComponents.so.1:_ZN19pqSaveStateReaction9saveStateERK7QStringj
libpqApplicationComponents.so.1:_ZN19pqSaveStateReaction9saveStateEv
libpqApplicationComponents.so.1:_ZN19pqSaveStateReactionC1EP7QAction
libpqApplicationComponents.so.1:_ZN19pqSaveStateReactionC2EP7QAction
libpqApplicationComponents.so.1:_ZN19pqSelectionReaction11qt_metacallEN11QMetaObject4CallEiPPv
libpqApplicationComponents.so.1:_ZN19pqSelectionReaction11qt_metacastEPKc
libpqApplicationComponents.so.1:_ZN19pqSelectionReaction16staticMetaObjectE
libpqApplicationComponents.so.1:_ZN19pqSelectionReaction20getSelectionModifierEv
libpqApplicationComponents.so.1:_ZN19pqSelectionReaction25disableSelectionModifiersEb
libpqApplicationComponents.so.1:_ZN19pqSelectionReaction25uncheckSelectionModifiersEv
libpqApplicationComponents.so.1:_ZN19pqSelectionReactionC1EP7QActionP12QActionGroup
libpqApplicationComponents.so.1:_ZN19pqSelectionReactionC2EP7QActionP12QActionGroup
libpqApplicationComponents.so.1:_ZN19pqTimeManagerWidget11qt_metacallEN11QMetaObject4CallEiPPv
libpqApplicationComponents.so.1:_ZN19pqTimeManagerWidget11qt_metacastEPKc
libpqApplicationComponents.so.1:_ZN19pqTimeManagerWidget14setActiveSceneEP16pqAnimationScene
libpqApplicationComponents.so.1:_ZN19pqTimeManagerWidget16staticMetaObjectE
libpqApplicationComponents.so.1:_ZN19pqTimeManagerWidget17onSettingsChangedEv
libpqApplicationComponents.so.1:_ZN19pqTimeManagerWidget23updateWidgetsVisibilityEv
libpqApplicationComponents.so.1:_ZN19pqTimeManagerWidgetC1EP7QWidget
libpqApplicationComponents.so.1:_ZN19pqTimeManagerWidgetC2EP7QWidget
libpqApplicationComponents.so.1:_ZN19pqTimeManagerWidgetD0Ev
libpqApplicationComponents.so.1:_ZN19pqTimeManagerWidgetD1Ev
libpqApplicationComponents.so.1:_ZN19pqTimeManagerWidgetD2Ev
libpqApplicationComponents.so.1:_ZN20pqCameraLinkReaction11qt_metacallEN11QMetaObject4CallEiPPv
libpqApplicationComponents.so.1:_ZN20pqCameraLinkReaction11qt_metacastEPKc
libpqApplicationComponents.so.1:_ZN20pqCameraLinkReaction13addCameraLinkEv
libpqApplicationComponents.so.1:_ZN20pqCameraLinkReaction16staticMetaObjectE
libpqApplicationComponents.so.1:_ZN20pqCameraLinkReaction17updateEnableStateEv
libpqApplicationComponents.so.1:_ZN20pqCameraLinkReactionC1EP7QAction
libpqApplicationComponents.so.1:_ZN20pqCameraLinkReactionC2EP7QAction
libpqApplicationComponents.so.1:_ZN20pqConePropertyWidget11placeWidgetEv
libpqApplicationComponents.so.1:_ZN20pqConePropertyWidget11qt_metacallEN11QMetaObject4CallEiPPv
libpqApplicationComponents.so.1:_ZN20pqConePropertyWidget11qt_metacastEPKc
libpqApplicationComponents.so.1:_ZN20pqConePropertyWidget11resetBoundsEv
libpqApplicationComponents.so.1:_ZN20pqConePropertyWidget12updateWidgetEb
libpqApplicationComponents.so.1:_ZN20pqConePropertyWidget13useCameraAxisEv
libpqApplicationComponents.so.1:_ZN20pqConePropertyWidget16staticMetaObjectE
libpqApplicationComponents.so.1:_ZN20pqConePropertyWidget17resetCameraToAxisEv
libpqApplicationComponents.so.1:_ZN20pqConePropertyWidget7setAxisERK11vtkVector3d
libpqApplicationComponents.so.1:_ZN20pqConePropertyWidget8useXAxisEv
libpqApplicationComponents.so.1:_ZN20pqConePropertyWidget8useYAxisEv
libpqApplicationComponents.so.1:_ZN20pqConePropertyWidget8useZAxisEv
libpqApplicationComponents.so.1:_ZN20pqConePropertyWidgetC1EP10vtkSMProxyP18vtkSMPropertyGroupP7QWidget
libpqApplicationComponents.so.1:_ZN20pqConePropertyWidgetC2EP10vtkSMProxyP18vtkSMPropertyGroupP7QWidget
libpqApplicationComponents.so.1:_ZN20pqDefaultContextMenu11qt_metacallEN11QMetaObject4CallEiPPv
libpqApplicationComponents.so.1:_ZN20pqDefaultContextMenu11qt_metacastEPKc
libpqApplicationComponents.so.1:_ZN20pqDefaultContextMenu15reprTypeChangedEP7QAction
libpqApplicationComponents.so.1:_ZN20pqDefaultContextMenu16staticMetaObjectE
libpqApplicationComponents.so.1:_ZN20pqDefaultContextMenu18colorMenuTriggeredEP7QAction
libpqApplicationComponents.so.1:_ZN20pqDefaultContextMenu4hideEv
libpqApplicationComponents.so.1:_ZN20pqDefaultContextMenuC1EP7QObject
libpqApplicationComponents.so.1:_ZN20pqDefaultContextMenuC2EP7QObject
libpqApplicationComponents.so.1:_ZN20pqDefaultContextMenuD0Ev
libpqApplicationComponents.so.1:_ZN20pqDefaultContextMenuD1Ev
libpqApplicationComponents.so.1:_ZN20pqDefaultContextMenuD2Ev
libpqApplicationComponents.so.1:_ZN20pqEditCameraReaction10editCameraEP6pqView
libpqApplicationComponents.so.1:_ZN20pqEditCameraReaction11onTriggeredEv
libpqApplicationComponents.so.1:_ZN20pqEditCameraReaction11qt_metacallEN11QMetaObject4CallEiPPv
libpqApplicationComponents.so.1:_ZN20pqEditCameraReaction11qt_metacastEPKc
libpqApplicationComponents.so.1:_ZN20pqEditCameraReaction16staticMetaObjectE
libpqApplicationComponents.so.1:_ZN20pqEditCameraReaction17updateEnableStateEv
libpqApplicationComponents.so.1:_ZN20pqEditCameraReactionC1EP7QActionP6pqView
libpqApplicationComponents.so.1:_ZN20pqEditCameraReactionC2EP7QActionP6pqView
libpqApplicationComponents.so.1:_ZN20pqEditMacrosReaction11onTriggeredEv
libpqApplicationComponents.so.1:_ZN20pqEditMacrosReaction11qt_metacallEN11QMetaObject4CallEiPPv
libpqApplicationComponents.so.1:_ZN20pqEditMacrosReaction11qt_metacastEPKc
libpqApplicationComponents.so.1:_ZN20pqEditMacrosReaction15configureMacrosEv
libpqApplicationComponents.so.1:_ZN20pqEditMacrosReaction16staticMetaObjectE
libpqApplicationComponents.so.1:_ZN20pqEditMacrosReaction6DialogE
libpqApplicationComponents.so.1:_ZN20pqEditMacrosReactionC1EP7QAction
libpqApplicationComponents.so.1:_ZN20pqEditMacrosReactionC2EP7QAction
libpqApplicationComponents.so.1:_ZN20pqFontPropertyWidget11qt_metacallEN11QMetaObject4CallEiPPv
libpqApplicationComponents.so.1:_ZN20pqFontPropertyWidget11qt_metacastEPKc
libpqApplicationComponents.so.1:_ZN20pqFontPropertyWidget16staticMetaObjectE
libpqApplicationComponents.so.1:_ZN20pqFontPropertyWidget19onFontFamilyChangedEv
libpqApplicationComponents.so.1:_ZN20pqFontPropertyWidget20UpdateToolButtonIconER7QStringP11QToolButton
libpqApplicationComponents.so.1:_ZN20pqFontPropertyWidget24setVerticalJustificationER7QString
libpqApplicationComponents.so.1:_ZN20pqFontPropertyWidget26setHorizontalJustificationER7QString
libpqApplicationComponents.so.1:_ZN20pqFontPropertyWidget28verticalJustificationChangedER7QString
libpqApplicationComponents.so.1:_ZN20pqFontPropertyWidget30horizontalJustificationChangedER7QString
libpqApplicationComponents.so.1:_ZN20pqFontPropertyWidget31changeVerticalJustificationIconEP7QAction
libpqApplicationComponents.so.1:_ZN20pqFontPropertyWidget32setupVerticalJustificationButtonEv
libpqApplicationComponents.so.1:_ZN20pqFontPropertyWidget33changeHorizontalJustificationIconEP7QAction
libpqApplicationComponents.so.1:_ZN20pqFontPropertyWidget34setupHorizontalJustificationButtonEv
libpqApplicationComponents.so.1:_ZN20pqFontPropertyWidgetC1EP10vtkSMProxyP18vtkSMPropertyGroupP7QWidget
libpqApplicationComponents.so.1:_ZN20pqFontPropertyWidgetC2EP10vtkSMProxyP18vtkSMPropertyGroupP7QWidget
libpqApplicationComponents.so.1:_ZN20pqFontPropertyWidgetD0Ev
libpqApplicationComponents.so.1:_ZN20pqFontPropertyWidgetD1Ev
libpqApplicationComponents.so.1:_ZN20pqFontPropertyWidgetD2Ev
libpqApplicationComponents.so.1:_ZN20pqLinePropertyWidget10pickNormalEdddddd
libpqApplicationComponents.so.1:_ZN20pqLinePropertyWidget10pickPoint1Eddd
libpqApplicationComponents.so.1:_ZN20pqLinePropertyWidget10pickPoint2Eddd
libpqApplicationComponents.so.1:_ZN20pqLinePropertyWidget11placeWidgetEv
libpqApplicationComponents.so.1:_ZN20pqLinePropertyWidget11qt_metacallEN11QMetaObject4CallEiPPv
libpqApplicationComponents.so.1:_ZN20pqLinePropertyWidget11qt_metacastEPKc
libpqApplicationComponents.so.1:_ZN20pqLinePropertyWidget12setLineColorERK6QColor
libpqApplicationComponents.so.1:_ZN20pqLinePropertyWidget14centerOnBoundsEv
libpqApplicationComponents.so.1:_ZN20pqLinePropertyWidget16staticMetaObjectE
libpqApplicationComponents.so.1:_ZN20pqLinePropertyWidget17updateLengthLabelEv
libpqApplicationComponents.so.1:_ZN20pqLinePropertyWidget4pickEddd
libpqApplicationComponents.so.1:_ZN20pqLinePropertyWidget6flipP2Ev
libpqApplicationComponents.so.1:_ZN20pqLinePropertyWidget7useAxisEi
libpqApplicationComponents.so.1:_ZN20pqLinePropertyWidgetC1EP10vtkSMProxyP18vtkSMPropertyGroupP7QWidget
libpqApplicationComponents.so.1:_ZN20pqLinePropertyWidgetC2EP10vtkSMProxyP18vtkSMPropertyGroupP7QWidget
libpqApplicationComponents.so.1:_ZN20pqLinePropertyWidgetD0Ev
libpqApplicationComponents.so.1:_ZN20pqLinePropertyWidgetD1Ev
libpqApplicationComponents.so.1:_ZN20pqLinePropertyWidgetD2Ev
libpqApplicationComponents.so.1:_ZN20pqListPropertyWidget11qt_metacallEN11QMetaObject4CallEiPPv
libpqApplicationComponents.so.1:_ZN20pqListPropertyWidget11qt_metacastEPKc
libpqApplicationComponents.so.1:_ZN20pqListPropertyWidget12valueChangedEv
libpqApplicationComponents.so.1:_ZN20pqListPropertyWidget16staticMetaObjectE
libpqApplicationComponents.so.1:_ZN20pqListPropertyWidget8setValueERK5QListI8QVariantE
libpqApplicationComponents.so.1:_ZN20pqListPropertyWidgetC1EP10vtkSMProxyP13vtkSMPropertyP7QWidget
libpqApplicationComponents.so.1:_ZN20pqListPropertyWidgetC2EP10vtkSMProxyP13vtkSMPropertyP7QWidget
libpqApplicationComponents.so.1:_ZN20pqListPropertyWidgetD0Ev
libpqApplicationComponents.so.1:_ZN20pqListPropertyWidgetD1Ev
libpqApplicationComponents.so.1:_ZN20pqListPropertyWidgetD2Ev
libpqApplicationComponents.so.1:_ZN20pqLiveSourceBehavior11qt_metacallEN11QMetaObject4CallEiPPv
libpqApplicationComponents.so.1:_ZN20pqLiveSourceBehavior11qt_metacastEPKc
libpqApplicationComponents.so.1:_ZN20pqLiveSourceBehavior16staticMetaObjectE
libpqApplicationComponents.so.1:_ZN20pqLiveSourceBehaviorC1EP7QObject
libpqApplicationComponents.so.1:_ZN20pqLiveSourceBehaviorC2EP7QObject
libpqApplicationComponents.so.1:_ZN20pqLiveSourceBehaviorD0Ev
libpqApplicationComponents.so.1:_ZN20pqLiveSourceBehaviorD1Ev
libpqApplicationComponents.so.1:_ZN20pqLiveSourceBehaviorD2Ev
libpqApplicationComponents.so.1:_ZN20pqLockPanelsBehavior10lockPanelsEb
libpqApplicationComponents.so.1:_ZN20pqLockPanelsBehavior11qt_metacallEN11QMetaObject4CallEiPPv
libpqApplicationComponents.so.1:_ZN20pqLockPanelsBehavior11qt_metacastEPKc
libpqApplicationComponents.so.1:_ZN20pqLockPanelsBehavior16staticMetaObjectE
libpqApplicationComponents.so.1:_ZN20pqLockPanelsBehavior16toggleLockPanelsEv
libpqApplicationComponents.so.1:_ZN20pqLockPanelsBehavior22generalSettingsChangedEv
libpqApplicationComponents.so.1:_ZN20pqLockPanelsBehaviorC1EP7QObject
libpqApplicationComponents.so.1:_ZN20pqLockPanelsBehaviorC2EP7QObject
libpqApplicationComponents.so.1:_ZN20pqLockPanelsBehaviorD0Ev
libpqApplicationComponents.so.1:_ZN20pqLockPanelsBehaviorD1Ev
libpqApplicationComponents.so.1:_ZN20pqLockPanelsBehaviorD2Ev
libpqApplicationComponents.so.1:_ZN20pqLockPanelsReaction11qt_metacallEN11QMetaObject4CallEiPPv
libpqApplicationComponents.so.1:_ZN20pqLockPanelsReaction11qt_metacastEPKc
libpqApplicationComponents.so.1:_ZN20pqLockPanelsReaction15actionTriggeredEv
libpqApplicationComponents.so.1:_ZN20pqLockPanelsReaction16staticMetaObjectE
libpqApplicationComponents.so.1:_ZN20pqLockPanelsReactionC1EP7QAction
libpqApplicationComponents.so.1:_ZN20pqLockPanelsReactionC2EP7QAction
libpqApplicationComponents.so.1:_ZN20pqLockPanelsReactionD0Ev
libpqApplicationComponents.so.1:_ZN20pqLockPanelsReactionD1Ev
libpqApplicationComponents.so.1:_ZN20pqLockPanelsReactionD2Ev
libpqApplicationComponents.so.1:_ZN20pqMasterOnlyReaction11qt_metacallEN11QMetaObject4CallEiPPv
libpqApplicationComponents.so.1:_ZN20pqMasterOnlyReaction11qt_metacastEPKc
libpqApplicationComponents.so.1:_ZN20pqMasterOnlyReaction16staticMetaObjectE
libpqApplicationComponents.so.1:_ZN20pqMasterOnlyReaction17updateEnableStateEv
libpqApplicationComponents.so.1:_ZN20pqMasterOnlyReactionC1EP7QAction
libpqApplicationComponents.so.1:_ZN20pqMasterOnlyReactionC1EP7QActionN2Qt14ConnectionTypeE
libpqApplicationComponents.so.1:_ZN20pqMasterOnlyReactionC2EP7QAction
libpqApplicationComponents.so.1:_ZN20pqMasterOnlyReactionC2EP7QActionN2Qt14ConnectionTypeE
libpqApplicationComponents.so.1:_ZN20pqPointPickingHelper10pickNormalEdddddd
libpqApplicationComponents.so.1:_ZN20pqPointPickingHelper11qt_metacallEN11QMetaObject4CallEiPPv
libpqApplicationComponents.so.1:_ZN20pqPointPickingHelper11qt_metacastEPKc
libpqApplicationComponents.so.1:_ZN20pqPointPickingHelper16staticMetaObjectE
libpqApplicationComponents.so.1:_ZN20pqPointPickingHelper4pickEddd
libpqApplicationComponents.so.1:_ZN20pqPointPickingHelper7setViewEP6pqView
libpqApplicationComponents.so.1:_ZN20pqPointPickingHelper9pickPointEv
libpqApplicationComponents.so.1:_ZN20pqPointPickingHelperC1ERK12QKeySequencebP16pqPropertyWidgetNS_10PickOptionEb
libpqApplicationComponents.so.1:_ZN20pqPointPickingHelperC2ERK12QKeySequencebP16pqPropertyWidgetNS_10PickOptionEb
libpqApplicationComponents.so.1:_ZN20pqPointPickingHelperD0Ev
libpqApplicationComponents.so.1:_ZN20pqPointPickingHelperD1Ev
libpqApplicationComponents.so.1:_ZN20pqPointPickingHelperD2Ev
libpqApplicationComponents.so.1:_ZN20pqPreviewMenuManager10findActionEii
libpqApplicationComponents.so.1:_ZN20pqPreviewMenuManager11aboutToShowEv
libpqApplicationComponents.so.1:_ZN20pqPreviewMenuManager11qt_metacallEN11QMetaObject4CallEiPPv
libpqApplicationComponents.so.1:_ZN20pqPreviewMenuManager11qt_metacastEPKc
libpqApplicationComponents.so.1:_ZN20pqPreviewMenuManager14lockResolutionEb
libpqApplicationComponents.so.1:_ZN20pqPreviewMenuManager14lockResolutionEii
libpqApplicationComponents.so.1:_ZN20pqPreviewMenuManager14lockResolutionEiiP7QAction
libpqApplicationComponents.so.1:_ZN20pqPreviewMenuManager16staticMetaObjectE
libpqApplicationComponents.so.1:_ZN20pqPreviewMenuManager18updateEnabledStateEv
libpqApplicationComponents.so.1:_ZN20pqPreviewMenuManager19updateCustomActionsEv
libpqApplicationComponents.so.1:_ZN20pqPreviewMenuManager23prependCustomResolutionEiiRK7QString
libpqApplicationComponents.so.1:_ZN20pqPreviewMenuManager4initERK5QListI7QStringEP5QMenu
libpqApplicationComponents.so.1:_ZN20pqPreviewMenuManager6unlockEv
libpqApplicationComponents.so.1:_ZN20pqPreviewMenuManager9addCustomEv
libpqApplicationComponents.so.1:_ZN20pqPreviewMenuManagerC1EP5QMenu
libpqApplicationComponents.so.1:_ZN20pqPreviewMenuManagerC1ERK5QListI7QStringEP5QMenu
libpqApplicationComponents.so.1:_ZN20pqPreviewMenuManagerC2EP5QMenu
libpqApplicationComponents.so.1:_ZN20pqPreviewMenuManagerC2ERK5QListI7QStringEP5QMenu
libpqApplicationComponents.so.1:_ZN20pqPreviewMenuManagerD0Ev
libpqApplicationComponents.so.1:_ZN20pqPreviewMenuManagerD1Ev
libpqApplicationComponents.so.1:_ZN20pqPreviewMenuManagerD2Ev
libpqApplicationComponents.so.1:_ZN20pqSearchItemReaction11onTriggeredEv
libpqApplicationComponents.so.1:_ZN20pqSearchItemReaction11qt_metacallEN11QMetaObject4CallEiPPv
libpqApplicationComponents.so.1:_ZN20pqSearchItemReaction11qt_metacastEPKc
libpqApplicationComponents.so.1:_ZN20pqSearchItemReaction16staticMetaObjectE
libpqApplicationComponents.so.1:_ZN20pqSearchItemReaction17updateEnableStateEv
libpqApplicationComponents.so.1:_ZN20pqSearchItemReactionC1EP7QAction
libpqApplicationComponents.so.1:_ZN20pqSearchItemReactionC2EP7QAction
libpqApplicationComponents.so.1:_ZN20pqTextLocationWidget11qt_metacallEN11QMetaObject4CallEiPPv
libpqApplicationComponents.so.1:_ZN20pqTextLocationWidget11qt_metacastEPKc
libpqApplicationComponents.so.1:_ZN20pqTextLocationWidget16staticMetaObjectE
libpqApplicationComponents.so.1:_ZN20pqTextLocationWidget17setWindowLocationER7QString
libpqApplicationComponents.so.1:_ZN20pqTextLocationWidget21windowLocationChangedER7QString
libpqApplicationComponents.so.1:_ZN20pqTextLocationWidget26radioButtonLocationClickedEv
libpqApplicationComponents.so.1:_ZN20pqTextLocationWidget26radioButtonPositionClickedEv
libpqApplicationComponents.so.1:_ZN20pqTextLocationWidget8updateUIEv
libpqApplicationComponents.so.1:_ZN20pqTextLocationWidgetC1EP10vtkSMProxyP18vtkSMPropertyGroupP7QWidget
libpqApplicationComponents.so.1:_ZN20pqTextLocationWidgetC2EP10vtkSMProxyP18vtkSMPropertyGroupP7QWidget
libpqApplicationComponents.so.1:_ZN20pqTextLocationWidgetD0Ev
libpqApplicationComponents.so.1:_ZN20pqTextLocationWidgetD1Ev
libpqApplicationComponents.so.1:_ZN20pqTextLocationWidgetD2Ev
libpqApplicationComponents.so.1:_ZN21pqAboutDialogReaction11qt_metacallEN11QMetaObject4CallEiPPv
libpqApplicationComponents.so.1:_ZN21pqAboutDialogReaction11qt_metacastEPKc
libpqApplicationComponents.so.1:_ZN21pqAboutDialogReaction15showAboutDialogEv
libpqApplicationComponents.so.1:_ZN21pqAboutDialogReaction16staticMetaObjectE
libpqApplicationComponents.so.1:_ZN21pqAboutDialogReactionC1EP7QAction
libpqApplicationComponents.so.1:_ZN21pqAboutDialogReactionC2EP7QAction
libpqApplicationComponents.so.1:_ZN21pqAnglePropertyWidget11placeWidgetEv
libpqApplicationComponents.so.1:_ZN21pqAnglePropertyWidget11qt_metacallEN11QMetaObject4CallEiPPv
libpqApplicationComponents.so.1:_ZN21pqAnglePropertyWidget11qt_metacastEPKc
libpqApplicationComponents.so.1:_ZN21pqAnglePropertyWidget12updateLabelsEv
libpqApplicationComponents.so.1:_ZN21pqAnglePropertyWidget13pointsChangedEv
libpqApplicationComponents.so.1:_ZN21pqAnglePropertyWidget16staticMetaObjectE
libpqApplicationComponents.so.1:_ZN21pqAnglePropertyWidget9setPointsERK5QListI8QVariantE
libpqApplicationComponents.so.1:_ZN21pqAnglePropertyWidgetC1EP10vtkSMProxyP18vtkSMPropertyGroupP7QWidget
libpqApplicationComponents.so.1:_ZN21pqAnglePropertyWidgetC2EP10vtkSMProxyP18vtkSMPropertyGroupP7QWidget
libpqApplicationComponents.so.1:_ZN21pqAnglePropertyWidgetD0Ev
libpqApplicationComponents.so.1:_ZN21pqAnglePropertyWidgetD1Ev
libpqApplicationComponents.so.1:_ZN21pqAnglePropertyWidgetD2Ev
libpqApplicationComponents.so.1:_ZN21pqDefaultViewBehavior11qt_metacallEN11QMetaObject4CallEiPPv
libpqApplicationComponents.so.1:_ZN21pqDefaultViewBehavior11qt_metacastEPKc
libpqApplicationComponents.so.1:_ZN21pqDefaultViewBehavior12showWarningsEv
libpqApplicationComponents.so.1:_ZN21pqDefaultViewBehavior16onServerCreationEP8pqServer
libpqApplicationComponents.so.1:_ZN21pqDefaultViewBehavior16staticMetaObjectE
libpqApplicationComponents.so.1:_ZN21pqDefaultViewBehavior19finalTimeoutWarningEv
libpqApplicationComponents.so.1:_ZN21pqDefaultViewBehavior24fiveMinuteTimeoutWarningEv
libpqApplicationComponents.so.1:_ZN21pqDefaultViewBehaviorC1EP7QObject
libpqApplicationComponents.so.1:_ZN21pqDefaultViewBehaviorC2EP7QObject
libpqApplicationComponents.so.1:_ZN21pqFiltersMenuReaction11qt_metacallEN11QMetaObject4CallEiPPv
libpqApplicationComponents.so.1:_ZN21pqFiltersMenuReaction11qt_metacastEPKc
libpqApplicationComponents.so.1:_ZN21pqFiltersMenuReaction12createFilterERK7QStringS2_
libpqApplicationComponents.so.1:_ZN21pqFiltersMenuReaction16staticMetaObjectE
libpqApplicationComponents.so.1:_ZN21pqFiltersMenuReaction17updateEnableStateEb
libpqApplicationComponents.so.1:_ZN21pqFiltersMenuReaction19setEnableStateDirtyEv
libpqApplicationComponents.so.1:_ZN21pqFiltersMenuReactionC1EP23pqProxyGroupMenuManagerb
libpqApplicationComponents.so.1:_ZN21pqFiltersMenuReactionC2EP23pqProxyGroupMenuManagerb
libpqApplicationComponents.so.1:_ZN21pqLightPropertyWidget11qt_metacallEN11QMetaObject4CallEiPPv
libpqApplicationComponents.so.1:_ZN21pqLightPropertyWidget11qt_metacastEPKc
libpqApplicationComponents.so.1:_ZN21pqLightPropertyWidget16staticMetaObjectE
libpqApplicationComponents.so.1:_ZN21pqLightPropertyWidget21updateVisibilityStateEv
libpqApplicationComponents.so.1:_ZN21pqLightPropertyWidgetC1EP10vtkSMProxyP18vtkSMPropertyGroupP7QWidget
libpqApplicationComponents.so.1:_ZN21pqLightPropertyWidgetC2EP10vtkSMProxyP18vtkSMPropertyGroupP7QWidget
libpqApplicationComponents.so.1:_ZN21pqLightPropertyWidgetD0Ev
libpqApplicationComponents.so.1:_ZN21pqLightPropertyWidgetD1Ev
libpqApplicationComponents.so.1:_ZN21pqLightPropertyWidgetD2Ev
libpqApplicationComponents.so.1:_ZN21pqLoadPaletteReaction11qt_metacallEN11QMetaObject4CallEiPPv
libpqApplicationComponents.so.1:_ZN21pqLoadPaletteReaction11qt_metacastEPKc
libpqApplicationComponents.so.1:_ZN21pqLoadPaletteReaction12populateMenuEv
libpqApplicationComponents.so.1:_ZN21pqLoadPaletteReaction15actionTriggeredEP7QAction
libpqApplicationComponents.so.1:_ZN21pqLoadPaletteReaction16staticMetaObjectE
libpqApplicationComponents.so.1:_ZN21pqLoadPaletteReaction17updateEnableStateEv
libpqApplicationComponents.so.1:_ZN21pqLoadPaletteReactionC1EP7QAction
libpqApplicationComponents.so.1:_ZN21pqLoadPaletteReactionC2EP7QAction
libpqApplicationComponents.so.1:_ZN21pqLoadPaletteReactionD0Ev
libpqApplicationComponents.so.1:_ZN21pqLoadPaletteReactionD1Ev
libpqApplicationComponents.so.1:_ZN21pqLoadPaletteReactionD2Ev
libpqApplicationComponents.so.1:_ZN21pqMainControlsToolbar11constructorEv
libpqApplicationComponents.so.1:_ZN21pqMainControlsToolbar11qt_metacallEN11QMetaObject4CallEiPPv
libpqApplicationComponents.so.1:_ZN21pqMainControlsToolbar11qt_metacastEPKc
libpqApplicationComponents.so.1:_ZN21pqMainControlsToolbar16staticMetaObjectE
libpqApplicationComponents.so.1:_ZN21pqManageLinksReaction11manageLinksEv
libpqApplicationComponents.so.1:_ZN21pqManageLinksReaction11qt_metacallEN11QMetaObject4CallEiPPv
libpqApplicationComponents.so.1:_ZN21pqManageLinksReaction11qt_metacastEPKc
libpqApplicationComponents.so.1:_ZN21pqManageLinksReaction16staticMetaObjectE
libpqApplicationComponents.so.1:_ZN21pqReloadFilesReaction11qt_metacallEN11QMetaObject4CallEiPPv
libpqApplicationComponents.so.1:_ZN21pqReloadFilesReaction11qt_metacastEPKc
libpqApplicationComponents.so.1:_ZN21pqReloadFilesReaction13reloadSourcesEv
libpqApplicationComponents.so.1:_ZN21pqReloadFilesReaction16staticMetaObjectE
libpqApplicationComponents.so.1:_ZN21pqReloadFilesReaction17updateEnableStateEv
libpqApplicationComponents.so.1:_ZN21pqReloadFilesReaction6reloadEP16vtkSMSourceProxy
libpqApplicationComponents.so.1:_ZN21pqReloadFilesReaction6reloadEv
libpqApplicationComponents.so.1:_ZN21pqReloadFilesReactionC1EP7QActionNS_11ReloadModesE
libpqApplicationComponents.so.1:_ZN21pqReloadFilesReactionC2EP7QActionNS_11ReloadModesE
libpqApplicationComponents.so.1:_ZN21pqReloadFilesReactionD0Ev
libpqApplicationComponents.so.1:_ZN21pqReloadFilesReactionD1Ev
libpqApplicationComponents.so.1:_ZN21pqReloadFilesReactionD2Ev
libpqApplicationComponents.so.1:_ZN21pqRenameProxyReaction11onTriggeredEv
libpqApplicationComponents.so.1:_ZN21pqRenameProxyReaction11qt_metacallEN11QMetaObject4CallEiPPv
libpqApplicationComponents.so.1:_ZN21pqRenameProxyReaction11qt_metacastEPKc
libpqApplicationComponents.so.1:_ZN21pqRenameProxyReaction16staticMetaObjectE
libpqApplicationComponents.so.1:_ZN21pqRenameProxyReaction17updateEnableStateEv
libpqApplicationComponents.so.1:_ZN21pqRenameProxyReactionC1EP7QActionP7QWidget
libpqApplicationComponents.so.1:_ZN21pqRenameProxyReactionC1EP7QActionP7pqProxyP7QWidget
libpqApplicationComponents.so.1:_ZN21pqRenameProxyReactionC2EP7QActionP7QWidget
libpqApplicationComponents.so.1:_ZN21pqRenameProxyReactionC2EP7QActionP7pqProxyP7QWidget
libpqApplicationComponents.so.1:_ZN21pqShowHideAllReaction11qt_metacallEN11QMetaObject4CallEiPPv
libpqApplicationComponents.so.1:_ZN21pqShowHideAllReaction11qt_metacastEPKc
libpqApplicationComponents.so.1:_ZN21pqShowHideAllReaction16staticMetaObjectE
libpqApplicationComponents.so.1:_ZN21pqShowHideAllReaction3actENS_10ActionTypeE
libpqApplicationComponents.so.1:_ZN21pqShowHideAllReactionC1EP7QActionNS_10ActionTypeE
libpqApplicationComponents.so.1:_ZN21pqShowHideAllReactionC2EP7QActionNS_10ActionTypeE
libpqApplicationComponents.so.1:_ZN21pqShowWidgetDecorator11qt_metacallEN11QMetaObject4CallEiPPv
libpqApplicationComponents.so.1:_ZN21pqShowWidgetDecorator11qt_metacastEPKc
libpqApplicationComponents.so.1:_ZN21pqShowWidgetDecorator16staticMetaObjectE
libpqApplicationComponents.so.1:_ZN21pqShowWidgetDecoratorC1EP15vtkPVXMLElementP16pqPropertyWidget
libpqApplicationComponents.so.1:_ZN21pqShowWidgetDecoratorC2EP15vtkPVXMLElementP16pqPropertyWidget
libpqApplicationComponents.so.1:_ZN21pqSourcesMenuReaction11qt_metacallEN11QMetaObject4CallEiPPv
libpqApplicationComponents.so.1:_ZN21pqSourcesMenuReaction11qt_metacastEPKc
libpqApplicationComponents.so.1:_ZN21pqSourcesMenuReaction12createSourceERK7QStringS2_
libpqApplicationComponents.so.1:_ZN21pqSourcesMenuReaction12warnOnCreateERK7QStringS2_P8pqServer
libpqApplicationComponents.so.1:_ZN21pqSourcesMenuReaction16staticMetaObjectE
libpqApplicationComponents.so.1:_ZN21pqSourcesMenuReaction17updateEnableStateEb
libpqApplicationComponents.so.1:_ZN21pqSourcesMenuReaction17updateEnableStateEv
libpqApplicationComponents.so.1:_ZN21pqSourcesMenuReactionC1EP23pqProxyGroupMenuManager
libpqApplicationComponents.so.1:_ZN21pqSourcesMenuReactionC2EP23pqProxyGroupMenuManager
libpqApplicationComponents.so.1:_ZN22pqAnimationTimeToolbar11constructorEv
libpqApplicationComponents.so.1:_ZN22pqAnimationTimeToolbar11qt_metacallEN11QMetaObject4CallEiPPv
libpqApplicationComponents.so.1:_ZN22pqAnimationTimeToolbar11qt_metacastEPKc
libpqApplicationComponents.so.1:_ZN22pqAnimationTimeToolbar16staticMetaObjectE
libpqApplicationComponents.so.1:_ZN22pqAnimationTimeToolbar17setAnimationSceneEP16pqAnimationScene
libpqApplicationComponents.so.1:_ZN22pqAnimationTimeToolbar17updateTimeDisplayEv
libpqApplicationComponents.so.1:_ZN22pqDataTimeStepBehavior11qt_metacallEN11QMetaObject4CallEiPPv
libpqApplicationComponents.so.1:_ZN22pqDataTimeStepBehavior11qt_metacastEPKc
libpqApplicationComponents.so.1:_ZN22pqDataTimeStepBehavior15onReaderCreatedEP16pqPipelineSource
libpqApplicationComponents.so.1:_ZN22pqDataTimeStepBehavior16staticMetaObjectE
libpqApplicationComponents.so.1:_ZN22pqDataTimeStepBehaviorC1EP7QObject
libpqApplicationComponents.so.1:_ZN22pqDataTimeStepBehaviorC2EP7QObject
libpqApplicationComponents.so.1:_ZN22pqEditColorMapReaction11onTriggeredEv
libpqApplicationComponents.so.1:_ZN22pqEditColorMapReaction11qt_metacallEN11QMetaObject4CallEiPPv
libpqApplicationComponents.so.1:_ZN22pqEditColorMapReaction11qt_metacastEPKc
libpqApplicationComponents.so.1:_ZN22pqEditColorMapReaction12editColorMapEP24pqPipelineRepresentation
libpqApplicationComponents.so.1:_ZN22pqEditColorMapReaction16staticMetaObjectE
libpqApplicationComponents.so.1:_ZN22pqEditColorMapReaction17setRepresentationEP20pqDataRepresentationi
libpqApplicationComponents.so.1:_ZN22pqEditColorMapReaction17updateEnableStateEv
libpqApplicationComponents.so.1:_ZN22pqEditColorMapReaction23setActiveRepresentationEv
libpqApplicationComponents.so.1:_ZN22pqEditColorMapReactionC1EP7QActionb
libpqApplicationComponents.so.1:_ZN22pqEditColorMapReactionC2EP7QActionb
libpqApplicationComponents.so.1:_ZN22pqEditColorMapReactionD0Ev
libpqApplicationComponents.so.1:_ZN22pqEditColorMapReactionD1Ev
libpqApplicationComponents.so.1:_ZN22pqEditColorMapReactionD2Ev
libpqApplicationComponents.so.1:_ZN22pqHandlePropertyWidget11placeWidgetEv
libpqApplicationComponents.so.1:_ZN22pqHandlePropertyWidget11qt_metacallEN11QMetaObject4CallEiPPv
libpqApplicationComponents.so.1:_ZN22pqHandlePropertyWidget11qt_metacastEPKc
libpqApplicationComponents.so.1:_ZN22pqHandlePropertyWidget14centerOnBoundsEv
libpqApplicationComponents.so.1:_ZN22pqHandlePropertyWidget16selectionChangedEv
libpqApplicationComponents.so.1:_ZN22pqHandlePropertyWidget16setWorldPositionEddd
libpqApplicationComponents.so.1:_ZN22pqHandlePropertyWidget16staticMetaObjectE
libpqApplicationComponents.so.1:_ZN22pqHandlePropertyWidgetC1EP10vtkSMProxyP18vtkSMPropertyGroupP7QWidget
libpqApplicationComponents.so.1:_ZN22pqHandlePropertyWidgetC2EP10vtkSMProxyP18vtkSMPropertyGroupP7QWidget
libpqApplicationComponents.so.1:_ZN22pqHandlePropertyWidgetD0Ev
libpqApplicationComponents.so.1:_ZN22pqHandlePropertyWidgetD1Ev
libpqApplicationComponents.so.1:_ZN22pqHandlePropertyWidgetD2Ev
libpqApplicationComponents.so.1:_ZN22pqParaViewMenuBuilders13buildEditMenuER5QMenuP17pqPropertiesPanel
libpqApplicationComponents.so.1:_ZN22pqParaViewMenuBuilders13buildFileMenuER5QMenu
libpqApplicationComponents.so.1:_ZN22pqParaViewMenuBuilders13buildHelpMenuER5QMenu
libpqApplicationComponents.so.1:_ZN22pqParaViewMenuBuilders13buildToolbarsER11QMainWindow
libpqApplicationComponents.so.1:_ZN22pqParaViewMenuBuilders13buildViewMenuER5QMenuR11QMainWindow
libpqApplicationComponents.so.1:_ZN22pqParaViewMenuBuilders14buildToolsMenuER5QMenu
libpqApplicationComponents.so.1:_ZN22pqParaViewMenuBuilders15buildMacrosMenuER5QMenu
libpqApplicationComponents.so.1:_ZN22pqParaViewMenuBuilders16buildFiltersMenuER5QMenuP11QMainWindowbb
libpqApplicationComponents.so.1:_ZN22pqParaViewMenuBuilders16buildSourcesMenuER5QMenuP11QMainWindow
libpqApplicationComponents.so.1:_ZN22pqParaViewMenuBuilders17buildCatalystMenuER5QMenu
libpqApplicationComponents.so.1:_ZN22pqParaViewMenuBuilders19buildExtractorsMenuER5QMenuP11QMainWindowbb
libpqApplicationComponents.so.1:_ZN22pqParaViewMenuBuilders31buildPipelineBrowserContextMenuER5QMenuP11QMainWindow
libpqApplicationComponents.so.1:_ZN22pqProxyActionListModel11qt_metacallEN11QMetaObject4CallEiPPv
libpqApplicationComponents.so.1:_ZN22pqProxyActionListModel11qt_metacastEPKc
libpqApplicationComponents.so.1:_ZN22pqProxyActionListModel16staticMetaObjectE
libpqApplicationComponents.so.1:_ZN22pqProxyActionListModelC1ERK5QListIP7QActionEP7QObject
libpqApplicationComponents.so.1:_ZN22pqProxyActionListModelC2ERK5QListIP7QActionEP7QObject
libpqApplicationComponents.so.1:_ZN22pqProxyActionListModelD0Ev
libpqApplicationComponents.so.1:_ZN22pqProxyActionListModelD1Ev
libpqApplicationComponents.so.1:_ZN22pqProxyActionListModelD2Ev
libpqApplicationComponents.so.1:_ZN22pqSaveExtractsReaction11qt_metacallEN11QMetaObject4CallEiPPv
libpqApplicationComponents.so.1:_ZN22pqSaveExtractsReaction11qt_metacastEPKc
libpqApplicationComponents.so.1:_ZN22pqSaveExtractsReaction16generateExtractsEv
libpqApplicationComponents.so.1:_ZN22pqSaveExtractsReaction16staticMetaObjectE
libpqApplicationComponents.so.1:_ZN22pqSaveExtractsReactionC1EP7QAction
libpqApplicationComponents.so.1:_ZN22pqSaveExtractsReactionC2EP7QAction
libpqApplicationComponents.so.1:_ZN22pqSaveExtractsReactionD0Ev
libpqApplicationComponents.so.1:_ZN22pqSaveExtractsReactionD1Ev
libpqApplicationComponents.so.1:_ZN22pqSaveExtractsReactionD2Ev
libpqApplicationComponents.so.1:_ZN22pqSessionTypeDecorator11qt_metacallEN11QMetaObject4CallEiPPv
libpqApplicationComponents.so.1:_ZN22pqSessionTypeDecorator11qt_metacastEPKc
libpqApplicationComponents.so.1:_ZN22pqSessionTypeDecorator16staticMetaObjectE
libpqApplicationComponents.so.1:_ZN22pqSessionTypeDecoratorC1EP15vtkPVXMLElementP16pqPropertyWidget
libpqApplicationComponents.so.1:_ZN22pqSessionTypeDecoratorC2EP15vtkPVXMLElementP16pqPropertyWidget
libpqApplicationComponents.so.1:_ZN22pqSessionTypeDecoratorD0Ev
libpqApplicationComponents.so.1:_ZN22pqSessionTypeDecoratorD1Ev
libpqApplicationComponents.so.1:_ZN22pqSessionTypeDecoratorD2Ev
libpqApplicationComponents.so.1:_ZN22pqSpherePropertyWidget11placeWidgetEv
libpqApplicationComponents.so.1:_ZN22pqSpherePropertyWidget11qt_metacallEN11QMetaObject4CallEiPPv
libpqApplicationComponents.so.1:_ZN22pqSpherePropertyWidget11qt_metacastEPKc
libpqApplicationComponents.so.1:_ZN22pqSpherePropertyWidget14centerOnBoundsEv
libpqApplicationComponents.so.1:_ZN22pqSpherePropertyWidget16staticMetaObjectE
libpqApplicationComponents.so.1:_ZN22pqSpherePropertyWidget9setCenterEddd
libpqApplicationComponents.so.1:_ZN22pqSpherePropertyWidgetC1EP10vtkSMProxyP18vtkSMPropertyGroupP7QWidget
libpqApplicationComponents.so.1:_ZN22pqSpherePropertyWidgetC2EP10vtkSMProxyP18vtkSMPropertyGroupP7QWidget
libpqApplicationComponents.so.1:_ZN22pqSpherePropertyWidgetD0Ev
libpqApplicationComponents.so.1:_ZN22pqSpherePropertyWidgetD1Ev
libpqApplicationComponents.so.1:_ZN22pqSpherePropertyWidgetD2Ev
libpqApplicationComponents.so.1:_ZN22pqSplinePropertyWidget11placeWidgetEv
libpqApplicationComponents.so.1:_ZN22pqSplinePropertyWidget11qt_metacallEN11QMetaObject4CallEiPPv
libpqApplicationComponents.so.1:_ZN22pqSplinePropertyWidget11qt_metacastEPKc
libpqApplicationComponents.so.1:_ZN22pqSplinePropertyWidget12setLineColorERK6QColor
libpqApplicationComponents.so.1:_ZN22pqSplinePropertyWidget13pointsChangedEv
libpqApplicationComponents.so.1:_ZN22pqSplinePropertyWidget13setCurrentRowEi
libpqApplicationComponents.so.1:_ZN22pqSplinePropertyWidget16staticMetaObjectE
libpqApplicationComponents.so.1:_ZN22pqSplinePropertyWidget17currentRowChangedEv
libpqApplicationComponents.so.1:_ZN22pqSplinePropertyWidget9setPointsERK5QListI8QVariantE
libpqApplicationComponents.so.1:_ZN22pqSplinePropertyWidgetC1EP10vtkSMProxyP18vtkSMPropertyGroupNS_9ModeTypesEP7QWidget
libpqApplicationComponents.so.1:_ZN22pqSplinePropertyWidgetC2EP10vtkSMProxyP18vtkSMPropertyGroupNS_9ModeTypesEP7QWidget
libpqApplicationComponents.so.1:_ZN22pqSplinePropertyWidgetD0Ev
libpqApplicationComponents.so.1:_ZN22pqSplinePropertyWidgetD1Ev
libpqApplicationComponents.so.1:_ZN22pqSplinePropertyWidgetD2Ev
libpqApplicationComponents.so.1:_ZN22pqTimelineItemDelegate11editorEventEP6QEventP18QAbstractItemModelRK20QStyleOptionViewItemRK11QModelIndex
libpqApplicationComponents.so.1:_ZN22pqTimelineItemDelegate11eventFilterEP7QObjectP6QEvent
libpqApplicationComponents.so.1:_ZN22pqTimelineItemDelegate11qt_metacallEN11QMetaObject4CallEiPPv
libpqApplicationComponents.so.1:_ZN22pqTimelineItemDelegate11qt_metacastEPKc
libpqApplicationComponents.so.1:_ZN22pqTimelineItemDelegate12needsRepaintEv
libpqApplicationComponents.so.1:_ZN22pqTimelineItemDelegate16staticMetaObjectE
libpqApplicationComponents.so.1:_ZN22pqTimelineItemDelegate20updateSceneTimeRangeEv
libpqApplicationComponents.so.1:_ZN22pqTimelineItemDelegate25setActiveSceneConnectionsEP16pqAnimationScene
libpqApplicationComponents.so.1:_ZN22pqTimelineItemDelegateC1EP7QObjectP7QWidget
libpqApplicationComponents.so.1:_ZN22pqTimelineItemDelegateC2EP7QObjectP7QWidget
libpqApplicationComponents.so.1:_ZN22pqTimelineItemDelegateD0Ev
libpqApplicationComponents.so.1:_ZN22pqTimelineItemDelegateD1Ev
libpqApplicationComponents.so.1:_ZN22pqTimelineItemDelegateD2Ev
libpqApplicationComponents.so.1:_ZN22pqUsageLoggingBehavior10substituteERK7QString
libpqApplicationComponents.so.1:_ZN22pqUsageLoggingBehavior11qt_metacallEN11QMetaObject4CallEiPPv
libpqApplicationComponents.so.1:_ZN22pqUsageLoggingBehavior11qt_metacastEPKc
libpqApplicationComponents.so.1:_ZN22pqUsageLoggingBehavior14ConfigFileNameE
libpqApplicationComponents.so.1:_ZN22pqUsageLoggingBehavior16staticMetaObjectE
libpqApplicationComponents.so.1:_ZN22pqUsageLoggingBehavior17setConfigFileNameERK7QString
libpqApplicationComponents.so.1:_ZN22pqUsageLoggingBehavior8logUsageERK11QJsonObject
libpqApplicationComponents.so.1:_ZN22pqUsageLoggingBehaviorC1EP7QObject
libpqApplicationComponents.so.1:_ZN22pqUsageLoggingBehaviorC2EP7QObject
libpqApplicationComponents.so.1:_ZN22pqUsageLoggingBehaviorD0Ev
libpqApplicationComponents.so.1:_ZN22pqUsageLoggingBehaviorD1Ev
libpqApplicationComponents.so.1:_ZN22pqUsageLoggingBehaviorD2Ev
libpqApplicationComponents.so.1:_ZN23pqAnnulusPropertyWidget11placeWidgetEv
libpqApplicationComponents.so.1:_ZN23pqAnnulusPropertyWidget11qt_metacallEN11QMetaObject4CallEiPPv
libpqApplicationComponents.so.1:_ZN23pqAnnulusPropertyWidget11qt_metacastEPKc
libpqApplicationComponents.so.1:_ZN23pqAnnulusPropertyWidget11resetBoundsEv
libpqApplicationComponents.so.1:_ZN23pqAnnulusPropertyWidget12updateWidgetEb
libpqApplicationComponents.so.1:_ZN23pqAnnulusPropertyWidget13useCameraAxisEv
libpqApplicationComponents.so.1:_ZN23pqAnnulusPropertyWidget16staticMetaObjectE
libpqApplicationComponents.so.1:_ZN23pqAnnulusPropertyWidget17resetCameraToAxisEv
libpqApplicationComponents.so.1:_ZN23pqAnnulusPropertyWidget7setAxisERK11vtkVector3d
libpqApplicationComponents.so.1:_ZN23pqAnnulusPropertyWidget8useXAxisEv
libpqApplicationComponents.so.1:_ZN23pqAnnulusPropertyWidget8useYAxisEv
libpqApplicationComponents.so.1:_ZN23pqAnnulusPropertyWidget8useZAxisEv
libpqApplicationComponents.so.1:_ZN23pqAnnulusPropertyWidgetC1EP10vtkSMProxyP18vtkSMPropertyGroupP7QWidget
libpqApplicationComponents.so.1:_ZN23pqAnnulusPropertyWidgetC2EP10vtkSMProxyP18vtkSMPropertyGroupP7QWidget
libpqApplicationComponents.so.1:_ZN23pqCollaborationBehavior11qt_metacallEN11QMetaObject4CallEiPPv
libpqApplicationComponents.so.1:_ZN23pqCollaborationBehavior11qt_metacastEPKc
libpqApplicationComponents.so.1:_ZN23pqCollaborationBehavior16staticMetaObjectE
libpqApplicationComponents.so.1:_ZN23pqCollaborationBehaviorC1EP7QObject
libpqApplicationComponents.so.1:_ZN23pqCollaborationBehaviorC2EP7QObject
libpqApplicationComponents.so.1:_ZN23pqCrashRecoveryBehavior11qt_metacallEN11QMetaObject4CallEiPPv
libpqApplicationComponents.so.1:_ZN23pqCrashRecoveryBehavior11qt_metacastEPKc
libpqApplicationComponents.so.1:_ZN23pqCrashRecoveryBehavior13onServerAddedEP8pqServer
libpqApplicationComponents.so.1:_ZN23pqCrashRecoveryBehavior16staticMetaObjectE
libpqApplicationComponents.so.1:_ZN23pqCrashRecoveryBehavior17saveRecoveryStateEv
libpqApplicationComponents.so.1:_ZN23pqCrashRecoveryBehavior18onServerDisconnectEv
libpqApplicationComponents.so.1:_ZN23pqCrashRecoveryBehavior24delayedSaveRecoveryStateEv
libpqApplicationComponents.so.1:_ZN23pqCrashRecoveryBehaviorC1EP7QObject
libpqApplicationComponents.so.1:_ZN23pqCrashRecoveryBehaviorC2EP7QObject
libpqApplicationComponents.so.1:_ZN23pqCrashRecoveryBehaviorD0Ev
libpqApplicationComponents.so.1:_ZN23pqCrashRecoveryBehaviorD1Ev
libpqApplicationComponents.so.1:_ZN23pqCrashRecoveryBehaviorD2Ev
libpqApplicationComponents.so.1:_ZN23pqEditScalarBarReaction11onTriggeredEv
libpqApplicationComponents.so.1:_ZN23pqEditScalarBarReaction11qt_metacallEN11QMetaObject4CallEiPPv
libpqApplicationComponents.so.1:_ZN23pqEditScalarBarReaction11qt_metacastEPKc
libpqApplicationComponents.so.1:_ZN23pqEditScalarBarReaction13editScalarBarEv
libpqApplicationComponents.so.1:_ZN23pqEditScalarBarReaction16staticMetaObjectE
libpqApplicationComponents.so.1:_ZN23pqEditScalarBarReaction17setRepresentationEP20pqDataRepresentationi
libpqApplicationComponents.so.1:_ZN23pqEditScalarBarReaction17updateEnableStateEv
libpqApplicationComponents.so.1:_ZN23pqEditScalarBarReaction30setScalarBarVisibilityReactionEP29pqScalarBarVisibilityReaction
libpqApplicationComponents.so.1:_ZN23pqEditScalarBarReaction40createDefaultScalarBarVisibilityReactionEb
libpqApplicationComponents.so.1:_ZN23pqEditScalarBarReactionC1EP7QActionb
libpqApplicationComponents.so.1:_ZN23pqEditScalarBarReactionC2EP7QActionb
libpqApplicationComponents.so.1:_ZN23pqEditScalarBarReactionD0Ev
libpqApplicationComponents.so.1:_ZN23pqEditScalarBarReactionD1Ev
libpqApplicationComponents.so.1:_ZN23pqEditScalarBarReactionD2Ev
libpqApplicationComponents.so.1:_ZN23pqEnableWidgetDecorator11qt_metacallEN11QMetaObject4CallEiPPv
libpqApplicationComponents.so.1:_ZN23pqEnableWidgetDecorator11qt_metacastEPKc
libpqApplicationComponents.so.1:_ZN23pqEnableWidgetDecorator16staticMetaObjectE
libpqApplicationComponents.so.1:_ZN23pqEnableWidgetDecoratorC1EP15vtkPVXMLElementP16pqPropertyWidget
libpqApplicationComponents.so.1:_ZN23pqEnableWidgetDecoratorC2EP15vtkPVXMLElementP16pqPropertyWidget
libpqApplicationComponents.so.1:_ZN23pqFrustumPropertyWidget11placeWidgetEv
libpqApplicationComponents.so.1:_ZN23pqFrustumPropertyWidget11qt_metacallEN11QMetaObject4CallEiPPv
libpqApplicationComponents.so.1:_ZN23pqFrustumPropertyWidget11qt_metacastEPKc
libpqApplicationComponents.so.1:_ZN23pqFrustumPropertyWidget11resetBoundsEv
libpqApplicationComponents.so.1:_ZN23pqFrustumPropertyWidget14setOrientationERK11vtkVector3d
libpqApplicationComponents.so.1:_ZN23pqFrustumPropertyWidget16staticMetaObjectE
libpqApplicationComponents.so.1:_ZN23pqFrustumPropertyWidgetC1EP10vtkSMProxyP18vtkSMPropertyGroupP7QWidget
libpqApplicationComponents.so.1:_ZN23pqFrustumPropertyWidgetC2EP10vtkSMProxyP18vtkSMPropertyGroupP7QWidget
libpqApplicationComponents.so.1:_ZN23pqImageCompressorWidget11qt_metacallEN11QMetaObject4CallEiPPv
libpqApplicationComponents.so.1:_ZN23pqImageCompressorWidget11qt_metacastEPKc
libpqApplicationComponents.so.1:_ZN23pqImageCompressorWidget16staticMetaObjectE
libpqApplicationComponents.so.1:_ZN23pqImageCompressorWidget19currentIndexChangedEi
libpqApplicationComponents.so.1:_ZN23pqImageCompressorWidget19setCompressorConfigERK7QString
libpqApplicationComponents.so.1:_ZN23pqImageCompressorWidget23compressorConfigChangedEv
libpqApplicationComponents.so.1:_ZN23pqImageCompressorWidget23setConfigurationDefaultEi
libpqApplicationComponents.so.1:_ZN23pqImageCompressorWidgetC1EP10vtkSMProxyP13vtkSMPropertyP7QWidget
libpqApplicationComponents.so.1:_ZN23pqImageCompressorWidgetC2EP10vtkSMProxyP13vtkSMPropertyP7QWidget
libpqApplicationComponents.so.1:_ZN23pqImageCompressorWidgetD0Ev
libpqApplicationComponents.so.1:_ZN23pqImageCompressorWidgetD1Ev
libpqApplicationComponents.so.1:_ZN23pqImageCompressorWidgetD2Ev
libpqApplicationComponents.so.1:_ZN23pqLanguageChooserWidget11qt_metacallEN11QMetaObject4CallEiPPv
libpqApplicationComponents.so.1:_ZN23pqLanguageChooserWidget11qt_metacastEPKc
libpqApplicationComponents.so.1:_ZN23pqLanguageChooserWidget12valueChangedEv
libpqApplicationComponents.so.1:_ZN23pqLanguageChooserWidget16staticMetaObjectE
libpqApplicationComponents.so.1:_ZN23pqLanguageChooserWidget8setValueER7QString
libpqApplicationComponents.so.1:_ZN23pqLanguageChooserWidgetC1EP10vtkSMProxyP13vtkSMPropertyP7QWidget
libpqApplicationComponents.so.1:_ZN23pqLanguageChooserWidgetC2EP10vtkSMProxyP13vtkSMPropertyP7QWidget
libpqApplicationComponents.so.1:_ZN23pqLanguageChooserWidgetD0Ev
libpqApplicationComponents.so.1:_ZN23pqLanguageChooserWidgetD1Ev
libpqApplicationComponents.so.1:_ZN23pqLanguageChooserWidgetD2Ev
libpqApplicationComponents.so.1:_ZN23pqLinkSelectionReaction11qt_metacallEN11QMetaObject4CallEiPPv
libpqApplicationComponents.so.1:_ZN23pqLinkSelectionReaction11qt_metacastEPKc
libpqApplicationComponents.so.1:_ZN23pqLinkSelectionReaction13linkSelectionEv
libpqApplicationComponents.so.1:_ZN23pqLinkSelectionReaction16staticMetaObjectE
libpqApplicationComponents.so.1:_ZN23pqLinkSelectionReaction17updateEnableStateEv
libpqApplicationComponents.so.1:_ZN23pqLinkSelectionReactionC1EP7QAction
libpqApplicationComponents.so.1:_ZN23pqLinkSelectionReactionC2EP7QAction
libpqApplicationComponents.so.1:_ZN23pqLoadMaterialsReaction11qt_metacallEN11QMetaObject4CallEiPPv
libpqApplicationComponents.so.1:_ZN23pqLoadMaterialsReaction11qt_metacastEPKc
libpqApplicationComponents.so.1:_ZN23pqLoadMaterialsReaction13loadMaterialsERK7QStringP8pqServer
libpqApplicationComponents.so.1:_ZN23pqLoadMaterialsReaction13loadMaterialsEv
libpqApplicationComponents.so.1:_ZN23pqLoadMaterialsReaction16staticMetaObjectE
libpqApplicationComponents.so.1:_ZN23pqLoadMaterialsReactionC1EP7QAction
libpqApplicationComponents.so.1:_ZN23pqLoadMaterialsReactionC2EP7QAction
libpqApplicationComponents.so.1:_ZN23pqLoadMaterialsReactionD0Ev
libpqApplicationComponents.so.1:_ZN23pqLoadMaterialsReactionD1Ev
libpqApplicationComponents.so.1:_ZN23pqLoadMaterialsReactionD2Ev
libpqApplicationComponents.so.1:_ZN23pqManagePluginsReaction11qt_metacallEN11QMetaObject4CallEiPPv
libpqApplicationComponents.so.1:_ZN23pqManagePluginsReaction11qt_metacastEPKc
libpqApplicationComponents.so.1:_ZN23pqManagePluginsReaction13managePluginsEv
libpqApplicationComponents.so.1:_ZN23pqManagePluginsReaction16staticMetaObjectE
libpqApplicationComponents.so.1:_ZN23pqObjectPickingBehavior11eventFilterEP7QObjectP6QEvent
libpqApplicationComponents.so.1:_ZN23pqObjectPickingBehavior11onViewAddedEP6pqView
libpqApplicationComponents.so.1:_ZN23pqObjectPickingBehavior11qt_metacallEN11QMetaObject4CallEiPPv
libpqApplicationComponents.so.1:_ZN23pqObjectPickingBehavior11qt_metacastEPKc
libpqApplicationComponents.so.1:_ZN23pqObjectPickingBehavior16staticMetaObjectE
libpqApplicationComponents.so.1:_ZN23pqObjectPickingBehaviorC1EP7QObject
libpqApplicationComponents.so.1:_ZN23pqObjectPickingBehaviorC2EP7QObject
libpqApplicationComponents.so.1:_ZN23pqObjectPickingBehaviorD0Ev
libpqApplicationComponents.so.1:_ZN23pqObjectPickingBehaviorD1Ev
libpqApplicationComponents.so.1:_ZN23pqObjectPickingBehaviorD2Ev
libpqApplicationComponents.so.1:_ZN23pqPluginToolBarBehavior11qt_metacallEN11QMetaObject4CallEiPPv
libpqApplicationComponents.so.1:_ZN23pqPluginToolBarBehavior11qt_metacastEPKc
libpqApplicationComponents.so.1:_ZN23pqPluginToolBarBehavior16staticMetaObjectE
libpqApplicationComponents.so.1:_ZN23pqPluginToolBarBehavior18addPluginInterfaceEP7QObject
libpqApplicationComponents.so.1:_ZN23pqPluginToolBarBehaviorC1EP11QMainWindow
libpqApplicationComponents.so.1:_ZN23pqPluginToolBarBehaviorC2EP11QMainWindow
libpqApplicationComponents.so.1:_ZN23pqPluginToolBarBehaviorD0Ev
libpqApplicationComponents.so.1:_ZN23pqPluginToolBarBehaviorD1Ev
libpqApplicationComponents.so.1:_ZN23pqPluginToolBarBehaviorD2Ev
libpqApplicationComponents.so.1:_ZN23pqProxyGroupMenuManager11isFavoritesEP15pqProxyCategory
libpqApplicationComponents.so.1:_ZN23pqProxyGroupMenuManager11qt_metacallEN11QMetaObject4CallEiPPv
libpqApplicationComponents.so.1:_ZN23pqProxyGroupMenuManager11qt_metacastEPKc
libpqApplicationComponents.so.1:_ZN23pqProxyGroupMenuManager11quickLaunchEv
libpqApplicationComponents.so.1:_ZN23pqProxyGroupMenuManager11removeProxyERK7QStringS2_
libpqApplicationComponents.so.1:_ZN23pqProxyGroupMenuManager12createActionEP11pqProxyInfo
libpqApplicationComponents.so.1:_ZN23pqProxyGroupMenuManager12populateMenuEv
libpqApplicationComponents.so.1:_ZN23pqProxyGroupMenuManager13categoryLabelERK7QString
libpqApplicationComponents.so.1:_ZN23pqProxyGroupMenuManager13menuPopulatedEv
libpqApplicationComponents.so.1:_ZN23pqProxyGroupMenuManager14getToolbarNameEP15pqProxyCategory
libpqApplicationComponents.so.1:_ZN23pqProxyGroupMenuManager15categoryActionsEP15pqProxyCategory
libpqApplicationComponents.so.1:_ZN23pqProxyGroupMenuManager15categoryActionsERK7QString
libpqApplicationComponents.so.1:_ZN23pqProxyGroupMenuManager15getMenuCategoryEv
libpqApplicationComponents.so.1:_ZN23pqProxyGroupMenuManager15updateMenuStyleEv
libpqApplicationComponents.so.1:_ZN23pqProxyGroupMenuManager16getFavoritesMenuEv
libpqApplicationComponents.so.1:_ZN23pqProxyGroupMenuManager16populateMiscMenuEv
libpqApplicationComponents.so.1:_ZN23pqProxyGroupMenuManager16staticMetaObjectE
libpqApplicationComponents.so.1:_ZN23pqProxyGroupMenuManager16updateActionIconEP11pqProxyInfo
libpqApplicationComponents.so.1:_ZN23pqProxyGroupMenuManager17actionsInToolbarsEv
libpqApplicationComponents.so.1:_ZN23pqProxyGroupMenuManager17categoriesUpdatedEv
libpqApplicationComponents.so.1:_ZN23pqProxyGroupMenuManager17loadConfigurationEP15vtkPVXMLElement
libpqApplicationComponents.so.1:_ZN23pqProxyGroupMenuManager18switchActiveServerEv
libpqApplicationComponents.so.1:_ZN23pqProxyGroupMenuManager18updateActionsStyleEv
libpqApplicationComponents.so.1:_ZN23pqProxyGroupMenuManager20clearCategoriesMenusEv
libpqApplicationComponents.so.1:_ZN23pqProxyGroupMenuManager20getFavoritesCategoryEv
libpqApplicationComponents.so.1:_ZN23pqProxyGroupMenuManager20loadCategorySettingsEv
libpqApplicationComponents.so.1:_ZN23pqProxyGroupMenuManager20populateCategoryMenuEP5QMenuP15pqProxyCategory
libpqApplicationComponents.so.1:_ZN23pqProxyGroupMenuManager21loadRecentlyUsedItemsEv
libpqApplicationComponents.so.1:_ZN23pqProxyGroupMenuManager21lookForNewDefinitionsEv
libpqApplicationComponents.so.1:_ZN23pqProxyGroupMenuManager21saveRecentlyUsedItemsEv
libpqApplicationComponents.so.1:_ZN23pqProxyGroupMenuManager22getApplicationCategoryEv
libpqApplicationComponents.so.1:_ZN23pqProxyGroupMenuManager23populateCategoriesMenusEv
libpqApplicationComponents.so.1:_ZN23pqProxyGroupMenuManager23writeCategoryToSettingsEv
libpqApplicationComponents.so.1:_ZN23pqProxyGroupMenuManager24populateAlphabeticalMenuEv
libpqApplicationComponents.so.1:_ZN23pqProxyGroupMenuManager24populateRecentlyUsedMenuEv
libpqApplicationComponents.so.1:_ZN23pqProxyGroupMenuManager26createAddToFavoritesActionEv
libpqApplicationComponents.so.1:_ZN23pqProxyGroupMenuManager26populateSubCategoriesMenusEP5QMenuP15pqProxyCategory
libpqApplicationComponents.so.1:_ZN23pqProxyGroupMenuManager32addProxyDefinitionUpdateListenerERK7QString
libpqApplicationComponents.so.1:_ZN23pqProxyGroupMenuManager33addProxyDefinitionUpdateObserversEv
libpqApplicationComponents.so.1:_ZN23pqProxyGroupMenuManager35removeProxyDefinitionUpdateListenerERK7QString
libpqApplicationComponents.so.1:_ZN23pqProxyGroupMenuManager36removeProxyDefinitionUpdateObserversEv
libpqApplicationComponents.so.1:_ZN23pqProxyGroupMenuManager8addProxyERK7QStringS2_
libpqApplicationComponents.so.1:_ZN23pqProxyGroupMenuManager9clearMenuEv
libpqApplicationComponents.so.1:_ZN23pqProxyGroupMenuManager9getActionEP11pqProxyInfo
libpqApplicationComponents.so.1:_ZN23pqProxyGroupMenuManager9getActionERK7QStringS2_
libpqApplicationComponents.so.1:_ZN23pqProxyGroupMenuManager9triggeredERK7QStringS2_
libpqApplicationComponents.so.1:_ZN23pqProxyGroupMenuManager9triggeredEv
libpqApplicationComponents.so.1:_ZN23pqProxyGroupMenuManagerC1EP5QMenuRK7QStringbb
libpqApplicationComponents.so.1:_ZN23pqProxyGroupMenuManagerC2EP5QMenuRK7QStringbb
libpqApplicationComponents.so.1:_ZN23pqProxyGroupMenuManagerD0Ev
libpqApplicationComponents.so.1:_ZN23pqProxyGroupMenuManagerD1Ev
libpqApplicationComponents.so.1:_ZN23pqProxyGroupMenuManagerD2Ev
libpqApplicationComponents.so.1:_ZN23pqRepresentationToolbar11constructorEv
libpqApplicationComponents.so.1:_ZN23pqRepresentationToolbar11qt_metacallEN11QMetaObject4CallEiPPv
libpqApplicationComponents.so.1:_ZN23pqRepresentationToolbar11qt_metacastEPKc
libpqApplicationComponents.so.1:_ZN23pqRepresentationToolbar16staticMetaObjectE
libpqApplicationComponents.so.1:_ZN23pqSaveAnimationReaction11qt_metacallEN11QMetaObject4CallEiPPv
libpqApplicationComponents.so.1:_ZN23pqSaveAnimationReaction11qt_metacastEPKc
libpqApplicationComponents.so.1:_ZN23pqSaveAnimationReaction13saveAnimationEv
libpqApplicationComponents.so.1:_ZN23pqSaveAnimationReaction16staticMetaObjectE
libpqApplicationComponents.so.1:_ZN23pqSaveAnimationReaction17updateEnableStateEv
libpqApplicationComponents.so.1:_ZN23pqSaveAnimationReactionC1EP7QAction
libpqApplicationComponents.so.1:_ZN23pqSaveAnimationReactionC2EP7QAction
libpqApplicationComponents.so.1:_ZN23pqServerConnectReaction11qt_metacallEN11QMetaObject4CallEiPPv
libpqApplicationComponents.so.1:_ZN23pqServerConnectReaction11qt_metacastEPKc
libpqApplicationComponents.so.1:_ZN23pqServerConnectReaction15connectToServerERK16pqServerResourceb
libpqApplicationComponents.so.1:_ZN23pqServerConnectReaction15connectToServerEv
libpqApplicationComponents.so.1:_ZN23pqServerConnectReaction16staticMetaObjectE
libpqApplicationComponents.so.1:_ZN23pqServerConnectReaction17updateEnableStateEv
libpqApplicationComponents.so.1:_ZN23pqServerConnectReaction26connectToServerWithWarningEv
libpqApplicationComponents.so.1:_ZN23pqServerConnectReaction33connectToServerUsingConfigurationERK21pqServerConfigurationb
libpqApplicationComponents.so.1:_ZN23pqServerConnectReaction37connectToServerUsingConfigurationNameEPKcb
libpqApplicationComponents.so.1:_ZN23pqServerConnectReactionC1EP7QAction
libpqApplicationComponents.so.1:_ZN23pqServerConnectReactionC2EP7QAction
libpqApplicationComponents.so.1:_ZN23pqViewStreamingBehavior11onViewAddedEP6pqView
libpqApplicationComponents.so.1:_ZN23pqViewStreamingBehavior11qt_metacallEN11QMetaObject4CallEiPPv
libpqApplicationComponents.so.1:_ZN23pqViewStreamingBehavior11qt_metacastEPKc
libpqApplicationComponents.so.1:_ZN23pqViewStreamingBehavior13onViewUpdatedEP9vtkObjectmPv
libpqApplicationComponents.so.1:_ZN23pqViewStreamingBehavior15stopAutoUpdatesEv
libpqApplicationComponents.so.1:_ZN23pqViewStreamingBehavior16staticMetaObjectE
libpqApplicationComponents.so.1:_ZN23pqViewStreamingBehavior17resumeAutoUpdatesEv
libpqApplicationComponents.so.1:_ZN23pqViewStreamingBehavior19triggerSingleUpdateEv
libpqApplicationComponents.so.1:_ZN23pqViewStreamingBehavior21onEndInteractionEventEv
libpqApplicationComponents.so.1:_ZN23pqViewStreamingBehavior23onStartInteractionEventEv
libpqApplicationComponents.so.1:_ZN23pqViewStreamingBehavior9onTimeoutEv
libpqApplicationComponents.so.1:_ZN23pqViewStreamingBehaviorC1EP7QObject
libpqApplicationComponents.so.1:_ZN23pqViewStreamingBehaviorC2EP7QObject
libpqApplicationComponents.so.1:_ZN23pqViewStreamingBehaviorD0Ev
libpqApplicationComponents.so.1:_ZN23pqViewStreamingBehaviorD1Ev
libpqApplicationComponents.so.1:_ZN23pqViewStreamingBehaviorD2Ev
libpqApplicationComponents.so.1:_ZN24pqAddToFavoritesReaction11qt_metacallEN11QMetaObject4CallEiPPv
libpqApplicationComponents.so.1:_ZN24pqAddToFavoritesReaction11qt_metacastEPKc
libpqApplicationComponents.so.1:_ZN24pqAddToFavoritesReaction16staticMetaObjectE
libpqApplicationComponents.so.1:_ZN24pqAddToFavoritesReaction17updateEnableStateEv
libpqApplicationComponents.so.1:_ZN24pqAddToFavoritesReaction26addActiveSourceToFavoritesEv
libpqApplicationComponents.so.1:_ZN24pqAddToFavoritesReactionC1EP7QActionP23pqProxyGroupMenuManager
libpqApplicationComponents.so.1:_ZN24pqAddToFavoritesReactionC2EP7QActionP23pqProxyGroupMenuManager
libpqApplicationComponents.so.1:_ZN24pqAddToFavoritesReactionD0Ev
libpqApplicationComponents.so.1:_ZN24pqAddToFavoritesReactionD1Ev
libpqApplicationComponents.so.1:_ZN24pqAddToFavoritesReactionD2Ev
libpqApplicationComponents.so.1:_ZN24pqAnimatedExportReaction11qt_metacallEN11QMetaObject4CallEiPPv
libpqApplicationComponents.so.1:_ZN24pqAnimatedExportReaction11qt_metacastEPKc
libpqApplicationComponents.so.1:_ZN24pqAnimatedExportReaction16staticMetaObjectE
libpqApplicationComponents.so.1:_ZN24pqAnimatedExportReaction17updateEnableStateEv
libpqApplicationComponents.so.1:_ZN24pqAnimatedExportReaction6ExportERK7QString
libpqApplicationComponents.so.1:_ZN24pqAnimatedExportReaction6ExportEv
libpqApplicationComponents.so.1:_ZN24pqAnimatedExportReactionC1EP7QAction
libpqApplicationComponents.so.1:_ZN24pqAnimatedExportReactionC2EP7QAction
libpqApplicationComponents.so.1:_ZN24pqBackgroundEditorWidget11changeColorEPKc
libpqApplicationComponents.so.1:_ZN24pqBackgroundEditorWidget11qt_metacallEN11QMetaObject4CallEiPPv
libpqApplicationComponents.so.1:_ZN24pqBackgroundEditorWidget11qt_metacastEPKc
libpqApplicationComponents.so.1:_ZN24pqBackgroundEditorWidget16staticMetaObjectE
libpqApplicationComponents.so.1:_ZN24pqBackgroundEditorWidget18setImageBackgroundEb
libpqApplicationComponents.so.1:_ZN24pqBackgroundEditorWidget19setSkyboxBackgroundEb
libpqApplicationComponents.so.1:_ZN24pqBackgroundEditorWidget21setGradientBackgroundEb
libpqApplicationComponents.so.1:_ZN24pqBackgroundEditorWidget22imageBackgroundChangedEv
libpqApplicationComponents.so.1:_ZN24pqBackgroundEditorWidget22setEnvironmentLightingEb
libpqApplicationComponents.so.1:_ZN24pqBackgroundEditorWidget23skyboxBackgroundChangedEv
libpqApplicationComponents.so.1:_ZN24pqBackgroundEditorWidget25gradientBackgroundChangedEv
libpqApplicationComponents.so.1:_ZN24pqBackgroundEditorWidget26clickedRestoreDefaultColorEv
libpqApplicationComponents.so.1:_ZN24pqBackgroundEditorWidget26environmentLightingChangedEv
libpqApplicationComponents.so.1:_ZN24pqBackgroundEditorWidget27clickedRestoreDefaultColor2Ev
libpqApplicationComponents.so.1:_ZN24pqBackgroundEditorWidget27fireGradientAndImageChangedEii
libpqApplicationComponents.so.1:_ZN24pqBackgroundEditorWidget33currentIndexChangedBackgroundTypeEi
libpqApplicationComponents.so.1:_ZN24pqBackgroundEditorWidgetC1EP10vtkSMProxyP18vtkSMPropertyGroupP7QWidgetb
libpqApplicationComponents.so.1:_ZN24pqBackgroundEditorWidgetC2EP10vtkSMProxyP18vtkSMPropertyGroupP7QWidgetb
libpqApplicationComponents.so.1:_ZN24pqBackgroundEditorWidgetD0Ev
libpqApplicationComponents.so.1:_ZN24pqBackgroundEditorWidgetD1Ev
libpqApplicationComponents.so.1:_ZN24pqBackgroundEditorWidgetD2Ev
libpqApplicationComponents.so.1:_ZN24pqCameraUndoRedoReaction11onTriggeredEv
libpqApplicationComponents.so.1:_ZN24pqCameraUndoRedoReaction11qt_metacallEN11QMetaObject4CallEiPPv
libpqApplicationComponents.so.1:_ZN24pqCameraUndoRedoReaction11qt_metacastEPKc
libpqApplicationComponents.so.1:_ZN24pqCameraUndoRedoReaction13setActiveViewEP6pqView
libpqApplicationComponents.so.1:_ZN24pqCameraUndoRedoReaction16staticMetaObjectE
libpqApplicationComponents.so.1:_ZN24pqCameraUndoRedoReaction4redoEP6pqView
libpqApplicationComponents.so.1:_ZN24pqCameraUndoRedoReaction4undoEP6pqView
libpqApplicationComponents.so.1:_ZN24pqCameraUndoRedoReactionC1EP7QActionbP6pqView
libpqApplicationComponents.so.1:_ZN24pqCameraUndoRedoReactionC2EP7QActionbP6pqView
libpqApplicationComponents.so.1:_ZN24pqCatalystExportReaction11qt_metacallEN11QMetaObject4CallEiPPv
libpqApplicationComponents.so.1:_ZN24pqCatalystExportReaction11qt_metacastEPKc
libpqApplicationComponents.so.1:_ZN24pqCatalystExportReaction12exportScriptERK7QStringj
libpqApplicationComponents.so.1:_ZN24pqCatalystExportReaction12exportScriptEv
libpqApplicationComponents.so.1:_ZN24pqCatalystExportReaction16staticMetaObjectE
libpqApplicationComponents.so.1:_ZN24pqCatalystExportReactionC1EP7QAction
libpqApplicationComponents.so.1:_ZN24pqCatalystExportReactionC2EP7QAction
libpqApplicationComponents.so.1:_ZN24pqCatalystExportReactionD0Ev
libpqApplicationComponents.so.1:_ZN24pqCatalystExportReactionD1Ev
libpqApplicationComponents.so.1:_ZN24pqCatalystExportReactionD2Ev
libpqApplicationComponents.so.1:_ZN24pqChangeFileNameReaction11qt_metacallEN11QMetaObject4CallEiPPv
libpqApplicationComponents.so.1:_ZN24pqChangeFileNameReaction11qt_metacastEPKc
libpqApplicationComponents.so.1:_ZN24pqChangeFileNameReaction14changeFileNameEv
libpqApplicationComponents.so.1:_ZN24pqChangeFileNameReaction16staticMetaObjectE
libpqApplicationComponents.so.1:_ZN24pqChangeFileNameReaction17updateEnableStateEv
libpqApplicationComponents.so.1:_ZN24pqChangeFileNameReactionC1EP7QAction
libpqApplicationComponents.so.1:_ZN24pqChangeFileNameReactionC2EP7QAction
libpqApplicationComponents.so.1:_ZN24pqChartSelectionReaction11qt_metacallEN11QMetaObject4CallEiPPv
libpqApplicationComponents.so.1:_ZN24pqChartSelectionReaction11qt_metacastEPKc
libpqApplicationComponents.so.1:_ZN24pqChartSelectionReaction13stopSelectionEv
libpqApplicationComponents.so.1:_ZN24pqChartSelectionReaction14startSelectionEP13pqContextViewii
libpqApplicationComponents.so.1:_ZN24pqChartSelectionReaction16modifiersChangedEv
libpqApplicationComponents.so.1:_ZN24pqChartSelectionReaction16staticMetaObjectE
libpqApplicationComponents.so.1:_ZN24pqChartSelectionReaction17updateEnableStateEv
libpqApplicationComponents.so.1:_ZN24pqChartSelectionReaction20getSelectionModifierEv
libpqApplicationComponents.so.1:_ZN24pqChartSelectionReaction9triggeredEb
libpqApplicationComponents.so.1:_ZN24pqChartSelectionReactionC1EP7QActionP13pqContextViewP12QActionGroup
libpqApplicationComponents.so.1:_ZN24pqChartSelectionReactionC2EP7QActionP13pqContextViewP12QActionGroup
libpqApplicationComponents.so.1:_ZN24pqColorAnnotationsWidget11applyPresetEPKc
libpqApplicationComponents.so.1:_ZN24pqColorAnnotationsWidget11pqInternals17updateAnnotationsEP16vtkAbstractArrayb
libpqApplicationComponents.so.1:_ZN24pqColorAnnotationsWidget11qt_metacallEN11QMetaObject4CallEiPPv
libpqApplicationComponents.so.1:_ZN24pqColorAnnotationsWidget11qt_metacastEPKc
libpqApplicationComponents.so.1:_ZN24pqColorAnnotationsWidget12choosePresetEPKc
libpqApplicationComponents.so.1:_ZN24pqColorAnnotationsWidget12currentIndexEv
libpqApplicationComponents.so.1:_ZN24pqColorAnnotationsWidget12saveAsPresetEPKcbb
libpqApplicationComponents.so.1:_ZN24pqColorAnnotationsWidget13addAnnotationEv
libpqApplicationComponents.so.1:_ZN24pqColorAnnotationsWidget13enablePresetsEb
libpqApplicationComponents.so.1:_ZN24pqColorAnnotationsWidget13onDataChangedERK11QModelIndexS2_
libpqApplicationComponents.so.1:_ZN24pqColorAnnotationsWidget13presetChangedERK7QString
libpqApplicationComponents.so.1:_ZN24pqColorAnnotationsWidget14setAnnotationsERK5QListI8QVariantE
libpqApplicationComponents.so.1:_ZN24pqColorAnnotationsWidget15editPastLastRowEv
libpqApplicationComponents.so.1:_ZN24pqColorAnnotationsWidget15onDoubleClickedERK11QModelIndex
libpqApplicationComponents.so.1:_ZN24pqColorAnnotationsWidget15onPresetAppliedERK7QString
libpqApplicationComponents.so.1:_ZN24pqColorAnnotationsWidget15saveAsNewPresetEv
libpqApplicationComponents.so.1:_ZN24pqColorAnnotationsWidget15selectedIndexesEv
libpqApplicationComponents.so.1:_ZN24pqColorAnnotationsWidget15setVisibilitiesERK5QListI8QVariantE
libpqApplicationComponents.so.1:_ZN24pqColorAnnotationsWidget16removeAnnotationEv
libpqApplicationComponents.so.1:_ZN24pqColorAnnotationsWidget16selectionChangedERK14QItemSelectionS2_
libpqApplicationComponents.so.1:_ZN24pqColorAnnotationsWidget16setIndexedColorsERK5QListI8QVariantE
libpqApplicationComponents.so.1:_ZN24pqColorAnnotationsWidget16staticMetaObjectE
libpqApplicationComponents.so.1:_ZN24pqColorAnnotationsWidget17currentPresetNameEv
libpqApplicationComponents.so.1:_ZN24pqColorAnnotationsWidget17setOpacityMappingERK8QVariant
libpqApplicationComponents.so.1:_ZN24pqColorAnnotationsWidget18annotationsChangedEv
libpqApplicationComponents.so.1:_ZN24pqColorAnnotationsWidget18setSupportsReorderEb
libpqApplicationComponents.so.1:_ZN24pqColorAnnotationsWidget19selectedAnnotationsEv
libpqApplicationComponents.so.1:_ZN24pqColorAnnotationsWidget19setAnnotationsModelEP18pqAnnotationsModel
libpqApplicationComponents.so.1:_ZN24pqColorAnnotationsWidget19setColumnVisibilityEN18pqAnnotationsModel11ColumnRolesEb
libpqApplicationComponents.so.1:_ZN24pqColorAnnotationsWidget19setIndexedOpacitiesERK5QListI8QVariantE
libpqApplicationComponents.so.1:_ZN24pqColorAnnotationsWidget19setLookupTableProxyEP10vtkSMProxy
libpqApplicationComponents.so.1:_ZN24pqColorAnnotationsWidget19visibilitiesChangedEv
libpqApplicationComponents.so.1:_ZN24pqColorAnnotationsWidget20addActiveAnnotationsEb
libpqApplicationComponents.so.1:_ZN24pqColorAnnotationsWidget20addActiveAnnotationsEbb
libpqApplicationComponents.so.1:_ZN24pqColorAnnotationsWidget20addActiveAnnotationsEv
libpqApplicationComponents.so.1:_ZN24pqColorAnnotationsWidget20allowsRegexpMatchingEb
libpqApplicationComponents.so.1:_ZN24pqColorAnnotationsWidget20indexedColorsChangedEv
libpqApplicationComponents.so.1:_ZN24pqColorAnnotationsWidget20removeAllAnnotationsEv
libpqApplicationComponents.so.1:_ZN24pqColorAnnotationsWidget20setCurrentPresetNameEPKc
libpqApplicationComponents.so.1:_ZN24pqColorAnnotationsWidget21onHeaderDoubleClickedEi
libpqApplicationComponents.so.1:_ZN24pqColorAnnotationsWidget21opacityMappingChangedEv
libpqApplicationComponents.so.1:_ZN24pqColorAnnotationsWidget21presetLoadAnnotationsEv
libpqApplicationComponents.so.1:_ZN24pqColorAnnotationsWidget22currentAnnotationValueEv
libpqApplicationComponents.so.1:_ZN24pqColorAnnotationsWidget22setSelectedAnnotationsERK5QListI7QStringE
libpqApplicationComponents.so.1:_ZN24pqColorAnnotationsWidget22supportsOpacityMappingEb
libpqApplicationComponents.so.1:_ZN24pqColorAnnotationsWidget23allowsUserDefinedValuesEb
libpqApplicationComponents.so.1:_ZN24pqColorAnnotationsWidget23execGlobalOpacityDialogEv
libpqApplicationComponents.so.1:_ZN24pqColorAnnotationsWidget23indexedOpacitiesChangedEv
libpqApplicationComponents.so.1:_ZN24pqColorAnnotationsWidget23presetRegularExpressionEv
libpqApplicationComponents.so.1:_ZN24pqColorAnnotationsWidget24updateOpacityColumnStateEv
libpqApplicationComponents.so.1:_ZN24pqColorAnnotationsWidget25indexedLookupStateUpdatedEb
libpqApplicationComponents.so.1:_ZN24pqColorAnnotationsWidget38addActiveAnnotationsFromVisibleSourcesEb
libpqApplicationComponents.so.1:_ZN24pqColorAnnotationsWidget38addActiveAnnotationsFromVisibleSourcesEv
libpqApplicationComponents.so.1:_ZN24pqColorAnnotationsWidget4sortEiN2Qt9SortOrderE
libpqApplicationComponents.so.1:_ZN24pqColorAnnotationsWidgetC1EP7QWidget
libpqApplicationComponents.so.1:_ZN24pqColorAnnotationsWidgetC2EP7QWidget
libpqApplicationComponents.so.1:_ZN24pqColorAnnotationsWidgetD0Ev
libpqApplicationComponents.so.1:_ZN24pqColorAnnotationsWidgetD1Ev
libpqApplicationComponents.so.1:_ZN24pqColorAnnotationsWidgetD2Ev
libpqApplicationComponents.so.1:_ZN24pqCustomShortcutBehavior11qt_metacallEN11QMetaObject4CallEiPPv
libpqApplicationComponents.so.1:_ZN24pqCustomShortcutBehavior11qt_metacastEPKc
libpqApplicationComponents.so.1:_ZN24pqCustomShortcutBehavior16staticMetaObjectE
libpqApplicationComponents.so.1:_ZN24pqCustomShortcutBehavior21loadMenuItemShortcutsEv
libpqApplicationComponents.so.1:_ZN24pqCustomShortcutBehaviorC1EP11QMainWindow
libpqApplicationComponents.so.1:_ZN24pqCustomShortcutBehaviorC2EP11QMainWindow
libpqApplicationComponents.so.1:_ZN24pqCylinderPropertyWidget11placeWidgetEv
libpqApplicationComponents.so.1:_ZN24pqCylinderPropertyWidget11qt_metacallEN11QMetaObject4CallEiPPv
libpqApplicationComponents.so.1:_ZN24pqCylinderPropertyWidget11qt_metacastEPKc
libpqApplicationComponents.so.1:_ZN24pqCylinderPropertyWidget11resetBoundsEv
libpqApplicationComponents.so.1:_ZN24pqCylinderPropertyWidget12updateWidgetEb
libpqApplicationComponents.so.1:_ZN24pqCylinderPropertyWidget13useCameraAxisEv
libpqApplicationComponents.so.1:_ZN24pqCylinderPropertyWidget16staticMetaObjectE
libpqApplicationComponents.so.1:_ZN24pqCylinderPropertyWidget17resetCameraToAxisEv
libpqApplicationComponents.so.1:_ZN24pqCylinderPropertyWidget7setAxisEddd
libpqApplicationComponents.so.1:_ZN24pqCylinderPropertyWidgetC1EP10vtkSMProxyP18vtkSMPropertyGroupP7QWidget
libpqApplicationComponents.so.1:_ZN24pqCylinderPropertyWidgetC2EP10vtkSMProxyP18vtkSMPropertyGroupP7QWidget
libpqApplicationComponents.so.1:_ZN24pqCylinderPropertyWidgetD0Ev
libpqApplicationComponents.so.1:_ZN24pqCylinderPropertyWidgetD1Ev
libpqApplicationComponents.so.1:_ZN24pqCylinderPropertyWidgetD2Ev
libpqApplicationComponents.so.1:_ZN24pqEqualizeLayoutReaction11onTriggeredEv
libpqApplicationComponents.so.1:_ZN24pqEqualizeLayoutReaction11qt_metacallEN11QMetaObject4CallEiPPv
libpqApplicationComponents.so.1:_ZN24pqEqualizeLayoutReaction11qt_metacastEPKc
libpqApplicationComponents.so.1:_ZN24pqEqualizeLayoutReaction16staticMetaObjectE
libpqApplicationComponents.so.1:_ZN24pqEqualizeLayoutReactionC1ENS_11OrientationEP7QAction
libpqApplicationComponents.so.1:_ZN24pqEqualizeLayoutReactionC2ENS_11OrientationEP7QAction
libpqApplicationComponents.so.1:_ZN24pqExtractorsMenuReaction11qt_metacallEN11QMetaObject4CallEiPPv
libpqApplicationComponents.so.1:_ZN24pqExtractorsMenuReaction11qt_metacastEPKc
libpqApplicationComponents.so.1:_ZN24pqExtractorsMenuReaction16staticMetaObjectE
libpqApplicationComponents.so.1:_ZN24pqExtractorsMenuReaction17updateEnableStateEb
libpqApplicationComponents.so.1:_ZN24pqExtractorsMenuReactionC1EP23pqProxyGroupMenuManagerb
libpqApplicationComponents.so.1:_ZN24pqExtractorsMenuReactionC2EP23pqProxyGroupMenuManagerb
libpqApplicationComponents.so.1:_ZN24pqExtractorsMenuReactionD0Ev
libpqApplicationComponents.so.1:_ZN24pqExtractorsMenuReactionD1Ev
libpqApplicationComponents.so.1:_ZN24pqExtractorsMenuReactionD2Ev
libpqApplicationComponents.so.1:_ZN24pqFileListPropertyWidget11qt_metacallEN11QMetaObject4CallEiPPv
libpqApplicationComponents.so.1:_ZN24pqFileListPropertyWidget11qt_metacastEPKc
libpqApplicationComponents.so.1:_ZN24pqFileListPropertyWidget12setFileNamesERK5QListI7QStringE
libpqApplicationComponents.so.1:_ZN24pqFileListPropertyWidget16fileNamesChangedEv
libpqApplicationComponents.so.1:_ZN24pqFileListPropertyWidget16staticMetaObjectE
libpqApplicationComponents.so.1:_ZN24pqFileListPropertyWidgetC1EP10vtkSMProxyP13vtkSMPropertyP7QWidget
libpqApplicationComponents.so.1:_ZN24pqFileListPropertyWidgetC2EP10vtkSMProxyP13vtkSMPropertyP7QWidget
libpqApplicationComponents.so.1:_ZN24pqFileListPropertyWidgetD0Ev
libpqApplicationComponents.so.1:_ZN24pqFileListPropertyWidgetD1Ev
libpqApplicationComponents.so.1:_ZN24pqFileListPropertyWidgetD2Ev
libpqApplicationComponents.so.1:_ZN24pqFileNamePropertyWidget11qt_metacallEN11QMetaObject4CallEiPPv
libpqApplicationComponents.so.1:_ZN24pqFileNamePropertyWidget11qt_metacastEPKc
libpqApplicationComponents.so.1:_ZN24pqFileNamePropertyWidget14clearHighlightEv
libpqApplicationComponents.so.1:_ZN24pqFileNamePropertyWidget16staticMetaObjectE
libpqApplicationComponents.so.1:_ZN24pqFileNamePropertyWidget18resetButtonClickedEv
libpqApplicationComponents.so.1:_ZN24pqFileNamePropertyWidget20highlightResetButtonEv
libpqApplicationComponents.so.1:_ZN24pqFileNamePropertyWidgetC1EP10vtkSMProxyP13vtkSMPropertyP7QWidget
libpqApplicationComponents.so.1:_ZN24pqFileNamePropertyWidgetC2EP10vtkSMProxyP13vtkSMPropertyP7QWidget
libpqApplicationComponents.so.1:_ZN24pqFileNamePropertyWidgetD0Ev
libpqApplicationComponents.so.1:_ZN24pqFileNamePropertyWidgetD1Ev
libpqApplicationComponents.so.1:_ZN24pqFileNamePropertyWidgetD2Ev
libpqApplicationComponents.so.1:_ZN24pqInputDataTypeDecorator11qt_metacallEN11QMetaObject4CallEiPPv
libpqApplicationComponents.so.1:_ZN24pqInputDataTypeDecorator11qt_metacastEPKc
libpqApplicationComponents.so.1:_ZN24pqInputDataTypeDecorator16staticMetaObjectE
libpqApplicationComponents.so.1:_ZN24pqInputDataTypeDecoratorC1EP15vtkPVXMLElementP16pqPropertyWidget
libpqApplicationComponents.so.1:_ZN24pqInputDataTypeDecoratorC2EP15vtkPVXMLElementP16pqPropertyWidget
libpqApplicationComponents.so.1:_ZN24pqInputDataTypeDecoratorD0Ev
libpqApplicationComponents.so.1:_ZN24pqInputDataTypeDecoratorD1Ev
libpqApplicationComponents.so.1:_ZN24pqInputDataTypeDecoratorD2Ev
libpqApplicationComponents.so.1:_ZN24pqMetaDataPropertyWidget11qt_metacallEN11QMetaObject4CallEiPPv
libpqApplicationComponents.so.1:_ZN24pqMetaDataPropertyWidget11qt_metacastEPKc
libpqApplicationComponents.so.1:_ZN24pqMetaDataPropertyWidget14updateMetadataEP9vtkObjectmPv
libpqApplicationComponents.so.1:_ZN24pqMetaDataPropertyWidget16staticMetaObjectE
libpqApplicationComponents.so.1:_ZN24pqMetaDataPropertyWidgetC1EP10vtkSMProxyP18vtkSMPropertyGroupP7QWidget
libpqApplicationComponents.so.1:_ZN24pqMetaDataPropertyWidgetC2EP10vtkSMProxyP18vtkSMPropertyGroupP7QWidget
libpqApplicationComponents.so.1:_ZN24pqMetaDataPropertyWidgetD0Ev
libpqApplicationComponents.so.1:_ZN24pqMetaDataPropertyWidgetD1Ev
libpqApplicationComponents.so.1:_ZN24pqMetaDataPropertyWidgetD2Ev
libpqApplicationComponents.so.1:_ZN24pqPluginSettingsBehavior11qt_metacallEN11QMetaObject4CallEiPPv
libpqApplicationComponents.so.1:_ZN24pqPluginSettingsBehavior11qt_metacastEPKc
libpqApplicationComponents.so.1:_ZN24pqPluginSettingsBehavior14updateSettingsEv
libpqApplicationComponents.so.1:_ZN24pqPluginSettingsBehavior16staticMetaObjectE
libpqApplicationComponents.so.1:_ZN24pqPluginSettingsBehaviorC1EP7QObject
libpqApplicationComponents.so.1:_ZN24pqPluginSettingsBehaviorC2EP7QObject
libpqApplicationComponents.so.1:_ZN24pqSaveScreenshotReaction11qt_metacallEN11QMetaObject4CallEiPPv
libpqApplicationComponents.so.1:_ZN24pqSaveScreenshotReaction11qt_metacastEPKc
libpqApplicationComponents.so.1:_ZN24pqSaveScreenshotReaction14promptFileNameEP24vtkSMSaveScreenshotProxyRK7QStringRj
libpqApplicationComponents.so.1:_ZN24pqSaveScreenshotReaction14saveScreenshotERK7QStringRK5QSizeib
libpqApplicationComponents.so.1:_ZN24pqSaveScreenshotReaction14saveScreenshotEb
libpqApplicationComponents.so.1:_ZN24pqSaveScreenshotReaction14takeScreenshotERK5QSizeb
libpqApplicationComponents.so.1:_ZN24pqSaveScreenshotReaction16staticMetaObjectE
libpqApplicationComponents.so.1:_ZN24pqSaveScreenshotReaction17updateEnableStateEv
libpqApplicationComponents.so.1:_ZN24pqSaveScreenshotReaction25copyScreenshotToClipboardERK5QSizeb
libpqApplicationComponents.so.1:_ZN24pqSaveScreenshotReactionC1EP7QActionb
libpqApplicationComponents.so.1:_ZN24pqSaveScreenshotReactionC2EP7QActionb
libpqApplicationComponents.so.1:_ZN24pqTemporalExportReaction11onTriggeredEv
libpqApplicationComponents.so.1:_ZN24pqTemporalExportReaction11qt_metacallEN11QMetaObject4CallEiPPv
libpqApplicationComponents.so.1:_ZN24pqTemporalExportReaction11qt_metacastEPKc
libpqApplicationComponents.so.1:_ZN24pqTemporalExportReaction16staticMetaObjectE
libpqApplicationComponents.so.1:_ZN24pqTemporalExportReactionC1EP7QAction
libpqApplicationComponents.so.1:_ZN24pqTemporalExportReactionC2EP7QAction
libpqApplicationComponents.so.1:_ZN24pqTemporalExportReactionD0Ev
libpqApplicationComponents.so.1:_ZN24pqTemporalExportReactionD1Ev
libpqApplicationComponents.so.1:_ZN24pqTemporalExportReactionD2Ev
libpqApplicationComponents.so.1:_ZN24pqViewTypePropertyWidget11qt_metacallEN11QMetaObject4CallEiPPv
libpqApplicationComponents.so.1:_ZN24pqViewTypePropertyWidget11qt_metacastEPKc
libpqApplicationComponents.so.1:_ZN24pqViewTypePropertyWidget12valueChangedEv
libpqApplicationComponents.so.1:_ZN24pqViewTypePropertyWidget16staticMetaObjectE
libpqApplicationComponents.so.1:_ZN24pqViewTypePropertyWidget8setValueERK7QString
libpqApplicationComponents.so.1:_ZN24pqViewTypePropertyWidgetC1EP10vtkSMProxyP13vtkSMPropertyP7QWidget
libpqApplicationComponents.so.1:_ZN24pqViewTypePropertyWidgetC2EP10vtkSMProxyP13vtkSMPropertyP7QWidget
libpqApplicationComponents.so.1:_ZN24pqViewTypePropertyWidgetD0Ev
libpqApplicationComponents.so.1:_ZN24pqViewTypePropertyWidgetD1Ev
libpqApplicationComponents.so.1:_ZN24pqViewTypePropertyWidgetD2Ev
libpqApplicationComponents.so.1:_ZN25pqAlwaysConnectedBehavior11qt_metacallEN11QMetaObject4CallEiPPv
libpqApplicationComponents.so.1:_ZN25pqAlwaysConnectedBehavior11qt_metacastEPKc
libpqApplicationComponents.so.1:_ZN25pqAlwaysConnectedBehavior11serverCheckEv
libpqApplicationComponents.so.1:_ZN25pqAlwaysConnectedBehavior16staticMetaObjectE
libpqApplicationComponents.so.1:_ZN25pqAlwaysConnectedBehaviorC1EP7QObject
libpqApplicationComponents.so.1:_ZN25pqAlwaysConnectedBehaviorC2EP7QObject
libpqApplicationComponents.so.1:_ZN25pqAlwaysConnectedBehaviorD0Ev
libpqApplicationComponents.so.1:_ZN25pqAlwaysConnectedBehaviorD1Ev
libpqApplicationComponents.so.1:_ZN25pqAlwaysConnectedBehaviorD2Ev
libpqApplicationComponents.so.1:_ZN25pqAnimationShortcutWidget10updateMenuEv
libpqApplicationComponents.so.1:_ZN25pqAnimationShortcutWidget11onTriggeredEP7QAction
libpqApplicationComponents.so.1:_ZN25pqAnimationShortcutWidget11qt_metacallEN11QMetaObject4CallEiPPv
libpqApplicationComponents.so.1:_ZN25pqAnimationShortcutWidget11qt_metacastEPKc
libpqApplicationComponents.so.1:_ZN25pqAnimationShortcutWidget16staticMetaObjectE
libpqApplicationComponents.so.1:_ZN25pqAnimationShortcutWidget8setSceneEP16pqAnimationScene
libpqApplicationComponents.so.1:_ZN25pqAnimationShortcutWidgetC1EP7QWidgetP10vtkSMProxyP13vtkSMProperty
libpqApplicationComponents.so.1:_ZN25pqAnimationShortcutWidgetC2EP7QWidgetP10vtkSMProxyP13vtkSMProperty
libpqApplicationComponents.so.1:_ZN25pqAnimationShortcutWidgetD0Ev
libpqApplicationComponents.so.1:_ZN25pqAnimationShortcutWidgetD1Ev
libpqApplicationComponents.so.1:_ZN25pqAnimationShortcutWidgetD2Ev
libpqApplicationComponents.so.1:_ZN25pqApplyPropertiesReaction11onTriggeredEv
libpqApplicationComponents.so.1:_ZN25pqApplyPropertiesReaction17updateEnableStateEv
libpqApplicationComponents.so.1:_ZN25pqApplyPropertiesReactionC1EP17pqPropertiesPanelP7QActionb
libpqApplicationComponents.so.1:_ZN25pqApplyPropertiesReactionC2EP17pqPropertiesPanelP7QActionb
libpqApplicationComponents.so.1:_ZN25pqCameraManipulatorWidget11qt_metacallEN11QMetaObject4CallEiPPv
libpqApplicationComponents.so.1:_ZN25pqCameraManipulatorWidget11qt_metacastEPKc
libpqApplicationComponents.so.1:_ZN25pqCameraManipulatorWidget16staticMetaObjectE
libpqApplicationComponents.so.1:_ZN25pqCameraManipulatorWidget19setManipulatorTypesERK5QListI8QVariantE
libpqApplicationComponents.so.1:_ZN25pqCameraManipulatorWidget23manipulatorTypesChangedEv
libpqApplicationComponents.so.1:_ZN25pqCameraManipulatorWidgetC1EP10vtkSMProxyP13vtkSMPropertyP7QWidget
libpqApplicationComponents.so.1:_ZN25pqCameraManipulatorWidgetC2EP10vtkSMProxyP13vtkSMPropertyP7QWidget
libpqApplicationComponents.so.1:_ZN25pqCameraManipulatorWidgetD0Ev
libpqApplicationComponents.so.1:_ZN25pqCameraManipulatorWidgetD1Ev
libpqApplicationComponents.so.1:_ZN25pqCameraManipulatorWidgetD2Ev
libpqApplicationComponents.so.1:_ZN25pqCatalystConnectReaction10disconnectEv
libpqApplicationComponents.so.1:_ZN25pqCatalystConnectReaction11onTriggeredEv
libpqApplicationComponents.so.1:_ZN25pqCatalystConnectReaction11qt_metacallEN11QMetaObject4CallEiPPv
libpqApplicationComponents.so.1:_ZN25pqCatalystConnectReaction11qt_metacastEPKc
libpqApplicationComponents.so.1:_ZN25pqCatalystConnectReaction16staticMetaObjectE
libpqApplicationComponents.so.1:_ZN25pqCatalystConnectReaction17updateEnableStateEv
libpqApplicationComponents.so.1:_ZN25pqCatalystConnectReaction7connectEv
libpqApplicationComponents.so.1:_ZN25pqCatalystConnectReactionC1EP7QAction
libpqApplicationComponents.so.1:_ZN25pqCatalystConnectReactionC2EP7QAction
libpqApplicationComponents.so.1:_ZN25pqCatalystConnectReactionD0Ev
libpqApplicationComponents.so.1:_ZN25pqCatalystConnectReactionD1Ev
libpqApplicationComponents.so.1:_ZN25pqCatalystConnectReactionD2Ev
libpqApplicationComponents.so.1:_ZN25pqCustomViewpointsToolbar11constructorEv
libpqApplicationComponents.so.1:_ZN25pqCustomViewpointsToolbar11qt_metacallEN11QMetaObject4CallEiPPv
libpqApplicationComponents.so.1:_ZN25pqCustomViewpointsToolbar11qt_metacastEPKc
libpqApplicationComponents.so.1:_ZN25pqCustomViewpointsToolbar16staticMetaObjectE
libpqApplicationComponents.so.1:_ZN25pqCustomViewpointsToolbar18updateEnabledStateEv
libpqApplicationComponents.so.1:_ZN25pqCustomViewpointsToolbar20applyCustomViewpointEv
libpqApplicationComponents.so.1:_ZN25pqCustomViewpointsToolbar21deleteCustomViewpointEv
libpqApplicationComponents.so.1:_ZN25pqCustomViewpointsToolbar21setToCurrentViewpointEv
libpqApplicationComponents.so.1:_ZN25pqCustomViewpointsToolbar25configureCustomViewpointsEv
libpqApplicationComponents.so.1:_ZN25pqCustomViewpointsToolbar28updateCustomViewpointActionsEv
libpqApplicationComponents.so.1:_ZN25pqCustomViewpointsToolbar37addCurrentViewpointToCustomViewpointsEv
libpqApplicationComponents.so.1:_ZN25pqDesktopServicesReaction11qt_metacallEN11QMetaObject4CallEiPPv
libpqApplicationComponents.so.1:_ZN25pqDesktopServicesReaction11qt_metacastEPKc
libpqApplicationComponents.so.1:_ZN25pqDesktopServicesReaction16staticMetaObjectE
libpqApplicationComponents.so.1:_ZN25pqDesktopServicesReaction7openUrlERK4QUrl
libpqApplicationComponents.so.1:_ZN25pqDesktopServicesReactionC1ERK4QUrlP7QAction
libpqApplicationComponents.so.1:_ZN25pqDesktopServicesReactionC2ERK4QUrlP7QAction
libpqApplicationComponents.so.1:_ZN25pqDesktopServicesReactionD0Ev
libpqApplicationComponents.so.1:_ZN25pqDesktopServicesReactionD1Ev
libpqApplicationComponents.so.1:_ZN25pqDesktopServicesReactionD2Ev
libpqApplicationComponents.so.1:_ZN25pqEqualizerPropertyWidget11placeWidgetEv
libpqApplicationComponents.so.1:_ZN25pqEqualizerPropertyWidget11qt_metacallEN11QMetaObject4CallEiPPv
libpqApplicationComponents.so.1:_ZN25pqEqualizerPropertyWidget11qt_metacastEPKc
libpqApplicationComponents.so.1:_ZN25pqEqualizerPropertyWidget13loadEqualizerEv
libpqApplicationComponents.so.1:_ZN25pqEqualizerPropertyWidget13saveEqualizerEv
libpqApplicationComponents.so.1:_ZN25pqEqualizerPropertyWidget14resetEqualizerEv
libpqApplicationComponents.so.1:_ZN25pqEqualizerPropertyWidget14updatePositionEv
libpqApplicationComponents.so.1:_ZN25pqEqualizerPropertyWidget16staticMetaObjectE
libpqApplicationComponents.so.1:_ZN25pqEqualizerPropertyWidgetC1EP10vtkSMProxyP18vtkSMPropertyGroupP7QWidget
libpqApplicationComponents.so.1:_ZN25pqEqualizerPropertyWidgetC2EP10vtkSMProxyP18vtkSMPropertyGroupP7QWidget
libpqApplicationComponents.so.1:_ZN25pqEqualizerPropertyWidgetD0Ev
libpqApplicationComponents.so.1:_ZN25pqEqualizerPropertyWidgetD1Ev
libpqApplicationComponents.so.1:_ZN25pqEqualizerPropertyWidgetD2Ev
libpqApplicationComponents.so.1:_ZN25pqFourLinesPropertyWidget11placeWidgetEv
libpqApplicationComponents.so.1:_ZN25pqFourLinesPropertyWidget11qt_metacallEN11QMetaObject4CallEiPPv
libpqApplicationComponents.so.1:_ZN25pqFourLinesPropertyWidget11qt_metacastEPKc
libpqApplicationComponents.so.1:_ZN25pqFourLinesPropertyWidget12setLineColorERK6QColor
libpqApplicationComponents.so.1:_ZN25pqFourLinesPropertyWidget12switchPointsEi
libpqApplicationComponents.so.1:_ZN25pqFourLinesPropertyWidget16staticMetaObjectE
libpqApplicationComponents.so.1:_ZN25pqFourLinesPropertyWidget17updateLengthLabelEP6QLabeli
libpqApplicationComponents.so.1:_ZN25pqFourLinesPropertyWidget18updateLengthLabelsEv
libpqApplicationComponents.so.1:_ZN25pqFourLinesPropertyWidgetC1EP10vtkSMProxyP18vtkSMPropertyGroupP7QWidget
libpqApplicationComponents.so.1:_ZN25pqFourLinesPropertyWidgetC2EP10vtkSMProxyP18vtkSMPropertyGroupP7QWidget
libpqApplicationComponents.so.1:_ZN25pqFourLinesPropertyWidgetD0Ev
libpqApplicationComponents.so.1:_ZN25pqFourLinesPropertyWidgetD1Ev
libpqApplicationComponents.so.1:_ZN25pqFourLinesPropertyWidgetD2Ev
libpqApplicationComponents.so.1:_ZN25pqMainWindowEventBehavior11onDragEnterEP15QDragEnterEvent
libpqApplicationComponents.so.1:_ZN25pqMainWindowEventBehavior11qt_metacallEN11QMetaObject4CallEiPPv
libpqApplicationComponents.so.1:_ZN25pqMainWindowEventBehavior11qt_metacastEPKc
libpqApplicationComponents.so.1:_ZN25pqMainWindowEventBehavior16staticMetaObjectE
libpqApplicationComponents.so.1:_ZN25pqMainWindowEventBehavior6onDropEP10QDropEvent
libpqApplicationComponents.so.1:_ZN25pqMainWindowEventBehavior6onShowEP10QShowEvent
libpqApplicationComponents.so.1:_ZN25pqMainWindowEventBehavior7onCloseEP11QCloseEvent
libpqApplicationComponents.so.1:_ZN25pqMainWindowEventBehaviorC1EP7QObject
libpqApplicationComponents.so.1:_ZN25pqMainWindowEventBehaviorC2EP7QObject
libpqApplicationComponents.so.1:_ZN25pqMainWindowEventBehaviorD0Ev
libpqApplicationComponents.so.1:_ZN25pqMainWindowEventBehaviorD1Ev
libpqApplicationComponents.so.1:_ZN25pqMainWindowEventBehaviorD2Ev
libpqApplicationComponents.so.1:_ZN26pqCatalystContinueReaction11qt_metacallEN11QMetaObject4CallEiPPv
libpqApplicationComponents.so.1:_ZN26pqCatalystContinueReaction11qt_metacastEPKc
libpqApplicationComponents.so.1:_ZN26pqCatalystContinueReaction16staticMetaObjectE
libpqApplicationComponents.so.1:_ZN26pqCategoryToolbarsBehavior11qt_metacallEN11QMetaObject4CallEiPPv
libpqApplicationComponents.so.1:_ZN26pqCategoryToolbarsBehavior11qt_metacastEPKc
libpqApplicationComponents.so.1:_ZN26pqCategoryToolbarsBehavior14updateToolbarsEv
libpqApplicationComponents.so.1:_ZN26pqCategoryToolbarsBehavior16staticMetaObjectE
libpqApplicationComponents.so.1:_ZN26pqCategoryToolbarsBehaviorC1EP23pqProxyGroupMenuManagerP11QMainWindow
libpqApplicationComponents.so.1:_ZN26pqCategoryToolbarsBehaviorC2EP23pqProxyGroupMenuManagerP11QMainWindow
libpqApplicationComponents.so.1:_ZN26pqCategoryToolbarsBehaviorD0Ev
libpqApplicationComponents.so.1:_ZN26pqCategoryToolbarsBehaviorD1Ev
libpqApplicationComponents.so.1:_ZN26pqCategoryToolbarsBehaviorD2Ev
libpqApplicationComponents.so.1:_ZN26pqColorOpacityEditorWidget11qt_metacallEN11QMetaObject4CallEiPPv
libpqApplicationComponents.so.1:_ZN26pqColorOpacityEditorWidget11qt_metacastEPKc
libpqApplicationComponents.so.1:_ZN26pqColorOpacityEditorWidget12choosePresetEPKc
libpqApplicationComponents.so.1:_ZN26pqColorOpacityEditorWidget12saveAsPresetEv
libpqApplicationComponents.so.1:_ZN26pqColorOpacityEditorWidget12updateWidgetEb
libpqApplicationComponents.so.1:_ZN26pqColorOpacityEditorWidget13presetAppliedEv
libpqApplicationComponents.so.1:_ZN26pqColorOpacityEditorWidget13setXrgbPointsERK5QListI8QVariantE
libpqApplicationComponents.so.1:_ZN26pqColorOpacityEditorWidget13setXvmsPointsERK5QListI8QVariantE
libpqApplicationComponents.so.1:_ZN26pqColorOpacityEditorWidget14setUseLogScaleEb
libpqApplicationComponents.so.1:_ZN26pqColorOpacityEditorWidget15show2DHistogramEb
libpqApplicationComponents.so.1:_ZN26pqColorOpacityEditorWidget16resetRangeToDataEv
libpqApplicationComponents.so.1:_ZN26pqColorOpacityEditorWidget16staticMetaObjectE
libpqApplicationComponents.so.1:_ZN26pqColorOpacityEditorWidget17currentDataEditedEv
libpqApplicationComponents.so.1:_ZN26pqColorOpacityEditorWidget17transfer2DChangedEv
libpqApplicationComponents.so.1:_ZN26pqColorOpacityEditorWidget17updateCurrentDataEv
libpqApplicationComponents.so.1:_ZN26pqColorOpacityEditorWidget17xrgbPointsChangedEv
libpqApplicationComponents.so.1:_ZN26pqColorOpacityEditorWidget17xvmsPointsChangedEv
libpqApplicationComponents.so.1:_ZN26pqColorOpacityEditorWidget18resetRangeToCustomEv
libpqApplicationComponents.so.1:_ZN26pqColorOpacityEditorWidget18setTransfer2DBoxesERK5QListI8QVariantE
libpqApplicationComponents.so.1:_ZN26pqColorOpacityEditorWidget18useLogScaleChangedEv
libpqApplicationComponents.so.1:_ZN26pqColorOpacityEditorWidget18useLogScaleClickedEb
libpqApplicationComponents.so.1:_ZN26pqColorOpacityEditorWidget19chooseBoxColorAlphaEv
libpqApplicationComponents.so.1:_ZN26pqColorOpacityEditorWidget19colorCurrentChangedEx
libpqApplicationComponents.so.1:_ZN26pqColorOpacityEditorWidget19realShow2DHistogramEv
libpqApplicationComponents.so.1:_ZN26pqColorOpacityEditorWidget20computeDataHistogramEv
libpqApplicationComponents.so.1:_ZN26pqColorOpacityEditorWidget20setHistogramOutdatedEv
libpqApplicationComponents.so.1:_ZN26pqColorOpacityEditorWidget20setShowDataHistogramEb
libpqApplicationComponents.so.1:_ZN26pqColorOpacityEditorWidget21opacityCurrentChangedEx
libpqApplicationComponents.so.1:_ZN26pqColorOpacityEditorWidget21realShowDataHistogramEv
libpqApplicationComponents.so.1:_ZN26pqColorOpacityEditorWidget21resetColorMapComboBoxEv
libpqApplicationComponents.so.1:_ZN26pqColorOpacityEditorWidget21setUseLogScaleOpacityEb
libpqApplicationComponents.so.1:_ZN26pqColorOpacityEditorWidget22transfer2DBoxesChangedEv
libpqApplicationComponents.so.1:_ZN26pqColorOpacityEditorWidget23initializeOpacityEditorEP20vtkPiecewiseFunction
libpqApplicationComponents.so.1:_ZN26pqColorOpacityEditorWidget23invertTransferFunctionsEv
libpqApplicationComponents.so.1:_ZN26pqColorOpacityEditorWidget23opacityFunctionModifiedEv
libpqApplicationComponents.so.1:_ZN26pqColorOpacityEditorWidget23resetRangeToVisibleDataEv
libpqApplicationComponents.so.1:_ZN26pqColorOpacityEditorWidget24resetRangeToDataOverTimeEv
libpqApplicationComponents.so.1:_ZN26pqColorOpacityEditorWidget24showDataHistogramChangedEv
libpqApplicationComponents.so.1:_ZN26pqColorOpacityEditorWidget24showDataHistogramClickedEb
libpqApplicationComponents.so.1:_ZN26pqColorOpacityEditorWidget24updateDefaultPresetsListEv
libpqApplicationComponents.so.1:_ZN26pqColorOpacityEditorWidget25prepareRangeForLogScalingEv
libpqApplicationComponents.so.1:_ZN26pqColorOpacityEditorWidget25useLogScaleOpacityChangedEv
libpqApplicationComponents.so.1:_ZN26pqColorOpacityEditorWidget25useLogScaleOpacityClickedEb
libpqApplicationComponents.so.1:_ZN26pqColorOpacityEditorWidget26initializeTransfer2DEditorEP23vtkPVTransferFunction2D
libpqApplicationComponents.so.1:_ZN26pqColorOpacityEditorWidget26onRangeHandlesRangeChangedEdd
libpqApplicationComponents.so.1:_ZN26pqColorOpacityEditorWidget26setTransferFunction2DProxyE15vtkSmartPointerI10vtkSMProxyE
libpqApplicationComponents.so.1:_ZN26pqColorOpacityEditorWidget27representationOrViewChangedEv
libpqApplicationComponents.so.1:_ZN26pqColorOpacityEditorWidget28setDataHistogramNumberOfBinsEi
libpqApplicationComponents.so.1:_ZN26pqColorOpacityEditorWidget29multiComponentsMappingChangedEP9vtkObjectmPvS2_
libpqApplicationComponents.so.1:_ZN26pqColorOpacityEditorWidget29observeRepresentationModifiedEP10vtkSMProxyP20vtkPiecewiseFunction
libpqApplicationComponents.so.1:_ZN26pqColorOpacityEditorWidget29setScalarOpacityFunctionProxyE15vtkSmartPointerI10vtkSMProxyE
libpqApplicationComponents.so.1:_ZN26pqColorOpacityEditorWidget29updateTransferFunction2DProxyEv
libpqApplicationComponents.so.1:_ZN26pqColorOpacityEditorWidget30transferFunction2DProxyChangedEv
libpqApplicationComponents.so.1:_ZN26pqColorOpacityEditorWidget30updateDataHistogramEnableStateEv
libpqApplicationComponents.so.1:_ZN26pqColorOpacityEditorWidget31dataHistogramNumberOfBinsEditedEi
libpqApplicationComponents.so.1:_ZN26pqColorOpacityEditorWidget31dataHistogramNumberOfBinsEditedEv
libpqApplicationComponents.so.1:_ZN26pqColorOpacityEditorWidget33scalarOpacityFunctionProxyChangedEv
libpqApplicationComponents.so.1:_ZN26pqColorOpacityEditorWidget36setAutomaticDataHistogramComputationEb
libpqApplicationComponents.so.1:_ZN26pqColorOpacityEditorWidget40automaticDataHistogramComputationChangedEv
libpqApplicationComponents.so.1:_ZN26pqColorOpacityEditorWidget40automaticDataHistogramComputationClickedEb
libpqApplicationComponents.so.1:_ZN26pqColorOpacityEditorWidget41setUseOpacityControlPointsFreehandDrawingEb
libpqApplicationComponents.so.1:_ZN26pqColorOpacityEditorWidget45useOpacityControlPointsFreehandDrawingChangedEv
libpqApplicationComponents.so.1:_ZN26pqColorOpacityEditorWidget45useOpacityControlPointsFreehandDrawingClickedEb
libpqApplicationComponents.so.1:_ZN26pqColorOpacityEditorWidgetC1EP10vtkSMProxyP18vtkSMPropertyGroupP7QWidget
libpqApplicationComponents.so.1:_ZN26pqColorOpacityEditorWidgetC2EP10vtkSMProxyP18vtkSMPropertyGroupP7QWidget
libpqApplicationComponents.so.1:_ZN26pqColorOpacityEditorWidgetD0Ev
libpqApplicationComponents.so.1:_ZN26pqColorOpacityEditorWidgetD1Ev
libpqApplicationComponents.so.1:_ZN26pqColorOpacityEditorWidgetD2Ev
libpqApplicationComponents.so.1:_ZN26pqIgnoreSourceTimeReaction11qt_metacallEN11QMetaObject4CallEiPPv
libpqApplicationComponents.so.1:_ZN26pqIgnoreSourceTimeReaction11qt_metacastEPKc
libpqApplicationComponents.so.1:_ZN26pqIgnoreSourceTimeReaction16ignoreSourceTimeEP16pqPipelineSourceb
libpqApplicationComponents.so.1:_ZN26pqIgnoreSourceTimeReaction16ignoreSourceTimeEb
libpqApplicationComponents.so.1:_ZN26pqIgnoreSourceTimeReaction16staticMetaObjectE
libpqApplicationComponents.so.1:_ZN26pqIgnoreSourceTimeReaction17updateEnableStateEv
libpqApplicationComponents.so.1:_ZN26pqIgnoreSourceTimeReactionC1EP7QAction
libpqApplicationComponents.so.1:_ZN26pqIgnoreSourceTimeReactionC2EP7QAction
libpqApplicationComponents.so.1:_ZN26pqPropertyCollectionWidget11qt_metacallEN11QMetaObject4CallEiPPv
libpqApplicationComponents.so.1:_ZN26pqPropertyCollectionWidget11qt_metacastEPKc
libpqApplicationComponents.so.1:_ZN26pqPropertyCollectionWidget14widgetModifiedEv
libpqApplicationComponents.so.1:_ZN26pqPropertyCollectionWidget15propertyChangedEPKc
libpqApplicationComponents.so.1:_ZN26pqPropertyCollectionWidget16staticMetaObjectE
libpqApplicationComponents.so.1:_ZN26pqPropertyCollectionWidget16updatePropertiesEv
libpqApplicationComponents.so.1:_ZN26pqPropertyCollectionWidget5eventEP6QEvent
libpqApplicationComponents.so.1:_ZN26pqPropertyCollectionWidgetC1EP10vtkSMProxyP18vtkSMPropertyGroupP7QWidget
libpqApplicationComponents.so.1:_ZN26pqPropertyCollectionWidgetC2EP10vtkSMProxyP18vtkSMPropertyGroupP7QWidget
libpqApplicationComponents.so.1:_ZN26pqPropertyCollectionWidgetD0Ev
libpqApplicationComponents.so.1:_ZN26pqPropertyCollectionWidgetD1Ev
libpqApplicationComponents.so.1:_ZN26pqPropertyCollectionWidgetD2Ev
libpqApplicationComponents.so.1:_ZN26pqServerDisconnectReaction11onTriggeredEv
libpqApplicationComponents.so.1:_ZN26pqServerDisconnectReaction11qt_metacallEN11QMetaObject4CallEiPPv
libpqApplicationComponents.so.1:_ZN26pqServerDisconnectReaction11qt_metacastEPKc
libpqApplicationComponents.so.1:_ZN26pqServerDisconnectReaction11updateStateEv
libpqApplicationComponents.so.1:_ZN26pqServerDisconnectReaction16staticMetaObjectE
libpqApplicationComponents.so.1:_ZN26pqServerDisconnectReaction20disconnectFromServerEv
libpqApplicationComponents.so.1:_ZN26pqServerDisconnectReaction31disconnectFromServerWithWarningEv
libpqApplicationComponents.so.1:_ZN26pqServerDisconnectReactionC1EP7QAction
libpqApplicationComponents.so.1:_ZN26pqServerDisconnectReactionC2EP7QAction
libpqApplicationComponents.so.1:_ZN26pqSpreadSheetViewDecorator10uiModifiedEv
libpqApplicationComponents.so.1:_ZN26pqSpreadSheetViewDecorator11eventFilterEP7QObjectP6QEvent
libpqApplicationComponents.so.1:_ZN26pqSpreadSheetViewDecorator11qt_metacallEN11QMetaObject4CallEiPPv
libpqApplicationComponents.so.1:_ZN26pqSpreadSheetViewDecorator11qt_metacastEPKc
libpqApplicationComponents.so.1:_ZN26pqSpreadSheetViewDecorator12setPrecisionEi
libpqApplicationComponents.so.1:_ZN26pqSpreadSheetViewDecorator15copyToClipboardEv
libpqApplicationComponents.so.1:_ZN26pqSpreadSheetViewDecorator16setShowFieldDataEb
libpqApplicationComponents.so.1:_ZN26pqSpreadSheetViewDecorator16staticMetaObjectE
libpqApplicationComponents.so.1:_ZN26pqSpreadSheetViewDecorator19currentIndexChangedEP12pqOutputPort
libpqApplicationComponents.so.1:_ZN26pqSpreadSheetViewDecorator19setFieldAssociationEi
libpqApplicationComponents.so.1:_ZN26pqSpreadSheetViewDecorator22setAllowChangeOfSourceEb
libpqApplicationComponents.so.1:_ZN26pqSpreadSheetViewDecorator22setFixedRepresentationEb
libpqApplicationComponents.so.1:_ZN26pqSpreadSheetViewDecorator23displayPrecisionChangedEi
libpqApplicationComponents.so.1:_ZN26pqSpreadSheetViewDecorator24onCurrentAttributeChangeEi
libpqApplicationComponents.so.1:_ZN26pqSpreadSheetViewDecorator25toggleFixedRepresentationEb
libpqApplicationComponents.so.1:_ZN26pqSpreadSheetViewDecorator27setGenerateCellConnectivityEb
libpqApplicationComponents.so.1:_ZN26pqSpreadSheetViewDecorator27setShowSelectedElementsOnlyEb
libpqApplicationComponents.so.1:_ZN26pqSpreadSheetViewDecorator7showingEP20pqDataRepresentation
libpqApplicationComponents.so.1:_ZN26pqSpreadSheetViewDecoratorC1EP17pqSpreadSheetView
libpqApplicationComponents.so.1:_ZN26pqSpreadSheetViewDecoratorC2EP17pqSpreadSheetView
libpqApplicationComponents.so.1:_ZN26pqSpreadSheetViewDecoratorD0Ev
libpqApplicationComponents.so.1:_ZN26pqSpreadSheetViewDecoratorD1Ev
libpqApplicationComponents.so.1:_ZN26pqSpreadSheetViewDecoratorD2Ev
libpqApplicationComponents.so.1:_ZN27pqAutoLoadPluginXMLBehavior11qt_metacallEN11QMetaObject4CallEiPPv
libpqApplicationComponents.so.1:_ZN27pqAutoLoadPluginXMLBehavior11qt_metacastEPKc
libpqApplicationComponents.so.1:_ZN27pqAutoLoadPluginXMLBehavior15updateResourcesEv
libpqApplicationComponents.so.1:_ZN27pqAutoLoadPluginXMLBehavior16staticMetaObjectE
libpqApplicationComponents.so.1:_ZN27pqAutoLoadPluginXMLBehaviorC1EP7QObject
libpqApplicationComponents.so.1:_ZN27pqAutoLoadPluginXMLBehaviorC2EP7QObject
libpqApplicationComponents.so.1:_ZN27pqChooseColorPresetReaction11onTriggeredEv
libpqApplicationComponents.so.1:_ZN27pqChooseColorPresetReaction11qt_metacallEN11QMetaObject4CallEiPPv
libpqApplicationComponents.so.1:_ZN27pqChooseColorPresetReaction11qt_metacastEPKc
libpqApplicationComponents.so.1:_ZN27pqChooseColorPresetReaction12PresetDialogE
libpqApplicationComponents.so.1:_ZN27pqChooseColorPresetReaction12choosePresetEPKc
libpqApplicationComponents.so.1:_ZN27pqChooseColorPresetReaction13presetAppliedERK7QString
libpqApplicationComponents.so.1:_ZN27pqChooseColorPresetReaction15loadAnnotationsEv
libpqApplicationComponents.so.1:_ZN27pqChooseColorPresetReaction16staticMetaObjectE
libpqApplicationComponents.so.1:_ZN27pqChooseColorPresetReaction17regularExpressionEv
libpqApplicationComponents.so.1:_ZN27pqChooseColorPresetReaction17setRepresentationEP20pqDataRepresentationi
libpqApplicationComponents.so.1:_ZN27pqChooseColorPresetReaction17updateEnableStateEv
libpqApplicationComponents.so.1:_ZN27pqChooseColorPresetReaction18applyCurrentPresetEv
libpqApplicationComponents.so.1:_ZN27pqChooseColorPresetReaction20setTransferFunctionsESt6vectorIP10vtkSMProxySaIS2_EE
libpqApplicationComponents.so.1:_ZN27pqChooseColorPresetReaction22updateTransferFunctionEv
libpqApplicationComponents.so.1:_ZN27pqChooseColorPresetReaction23setActiveRepresentationEv
libpqApplicationComponents.so.1:_ZN27pqChooseColorPresetReactionC1EP7QActionb
libpqApplicationComponents.so.1:_ZN27pqChooseColorPresetReactionC2EP7QActionb
libpqApplicationComponents.so.1:_ZN27pqChooseColorPresetReactionD0Ev
libpqApplicationComponents.so.1:_ZN27pqChooseColorPresetReactionD1Ev
libpqApplicationComponents.so.1:_ZN27pqChooseColorPresetReactionD2Ev
libpqApplicationComponents.so.1:_ZN27pqColorEditorPropertyWidget11qt_metacallEN11QMetaObject4CallEiPPv
libpqApplicationComponents.so.1:_ZN27pqColorEditorPropertyWidget11qt_metacastEPKc
libpqApplicationComponents.so.1:_ZN27pqColorEditorPropertyWidget16staticMetaObjectE
libpqApplicationComponents.so.1:_ZN27pqColorEditorPropertyWidget17updateEnableStateEv
libpqApplicationComponents.so.1:_ZN27pqColorEditorPropertyWidget27updateBlockBasedEnableStateEv
libpqApplicationComponents.so.1:_ZN27pqColorEditorPropertyWidgetC1EP10vtkSMProxyP7QWidgeti
libpqApplicationComponents.so.1:_ZN27pqColorEditorPropertyWidgetC2EP10vtkSMProxyP7QWidgeti
libpqApplicationComponents.so.1:_ZN27pqColorEditorPropertyWidgetD0Ev
libpqApplicationComponents.so.1:_ZN27pqColorEditorPropertyWidgetD1Ev
libpqApplicationComponents.so.1:_ZN27pqColorEditorPropertyWidgetD2Ev
libpqApplicationComponents.so.1:_ZN27pqConfigureCategoriesDialog10createItemEP15QTreeWidgetItemRK7QStringS1_
libpqApplicationComponents.so.1:_ZN27pqConfigureCategoriesDialog10deleteItemEP15QTreeWidgetItem
libpqApplicationComponents.so.1:_ZN27pqConfigureCategoriesDialog10onAcceptedEv
libpqApplicationComponents.so.1:_ZN27pqConfigureCategoriesDialog11eventFilterEP7QObjectP6QEvent
libpqApplicationComponents.so.1:_ZN27pqConfigureCategoriesDialog11qt_metacallEN11QMetaObject4CallEiPPv
libpqApplicationComponents.so.1:_ZN27pqConfigureCategoriesDialog11qt_metacastEPKc
libpqApplicationComponents.so.1:_ZN27pqConfigureCategoriesDialog12onAddPressedEv
libpqApplicationComponents.so.1:_ZN27pqConfigureCategoriesDialog12populateTreeEP15QTreeWidgetItem
libpqApplicationComponents.so.1:_ZN27pqConfigureCategoriesDialog13getSourceItemEP10QDropEvent
libpqApplicationComponents.so.1:_ZN27pqConfigureCategoriesDialog13keyPressEventEP9QKeyEvent
libpqApplicationComponents.so.1:_ZN27pqConfigureCategoriesDialog13onItemChangedEP15QTreeWidgetItemi
libpqApplicationComponents.so.1:_ZN27pqConfigureCategoriesDialog13updateUIStateEv
libpqApplicationComponents.so.1:_ZN27pqConfigureCategoriesDialog14createCategoryERK7QStringP15QTreeWidgetItemS4_
libpqApplicationComponents.so.1:_ZN27pqConfigureCategoriesDialog14getNearestItemEP15QTreeWidgetItem
libpqApplicationComponents.so.1:_ZN27pqConfigureCategoriesDialog15createProxyItemEP15QTreeWidgetItemP11pqProxyInfoS1_
libpqApplicationComponents.so.1:_ZN27pqConfigureCategoriesDialog15getSelectedItemEv
libpqApplicationComponents.so.1:_ZN27pqConfigureCategoriesDialog15onRemovePressedEv
libpqApplicationComponents.so.1:_ZN27pqConfigureCategoriesDialog16onSetIconPressedEv
libpqApplicationComponents.so.1:_ZN27pqConfigureCategoriesDialog16staticMetaObjectE
libpqApplicationComponents.so.1:_ZN27pqConfigureCategoriesDialog17createNewCategoryEv
libpqApplicationComponents.so.1:_ZN27pqConfigureCategoriesDialog17deleteCustomItemsE5QListIP15QTreeWidgetItemE
libpqApplicationComponents.so.1:_ZN27pqConfigureCategoriesDialog18createCategoryItemEP15QTreeWidgetItemP15pqProxyCategoryS1_
libpqApplicationComponents.so.1:_ZN27pqConfigureCategoriesDialog18getDestinationItemEP10QDropEvent
libpqApplicationComponents.so.1:_ZN27pqConfigureCategoriesDialog18sourceIsCustomTreeEP10QDropEvent
libpqApplicationComponents.so.1:_ZN27pqConfigureCategoriesDialog18updateToolbarStateEv
libpqApplicationComponents.so.1:_ZN27pqConfigureCategoriesDialog19insertProxyFromItemEP15QTreeWidgetItemS1_S1_
libpqApplicationComponents.so.1:_ZN27pqConfigureCategoriesDialog19onSearchTextChangedERK7QString
libpqApplicationComponents.so.1:_ZN27pqConfigureCategoriesDialog20getSelectedProxyItemEv
libpqApplicationComponents.so.1:_ZN27pqConfigureCategoriesDialog22customTreeHasSelectionEv
libpqApplicationComponents.so.1:_ZN27pqConfigureCategoriesDialog22insertCategoryFromItemEP15QTreeWidgetItemS1_S1_
libpqApplicationComponents.so.1:_ZN27pqConfigureCategoriesDialog23getSelectedCategoryItemEv
libpqApplicationComponents.so.1:_ZN27pqConfigureCategoriesDialog24getDestinationParentItemEP10QDropEvent
libpqApplicationComponents.so.1:_ZN27pqConfigureCategoriesDialog27applicationTreeHasSelectionEv
libpqApplicationComponents.so.1:_ZN27pqConfigureCategoriesDialog28populateAvailableProxiesTreeEv
libpqApplicationComponents.so.1:_ZN27pqConfigureCategoriesDialog28resetToApplicationCategoriesEv
libpqApplicationComponents.so.1:_ZN27pqConfigureCategoriesDialog29populateCurrentCategoriesTreeEv
libpqApplicationComponents.so.1:_ZN27pqConfigureCategoriesDialogC1EP23pqProxyGroupMenuManagerP7QWidget
libpqApplicationComponents.so.1:_ZN27pqConfigureCategoriesDialogC2EP23pqProxyGroupMenuManagerP7QWidget
libpqApplicationComponents.so.1:_ZN27pqConfigureCategoriesDialogD0Ev
libpqApplicationComponents.so.1:_ZN27pqConfigureCategoriesDialogD1Ev
libpqApplicationComponents.so.1:_ZN27pqConfigureCategoriesDialogD2Ev
libpqApplicationComponents.so.1:_ZN27pqInteractivePropertyWidget11qt_metacallEN11QMetaObject4CallEiPPv
libpqApplicationComponents.so.1:_ZN27pqInteractivePropertyWidget11qt_metacastEPKc
libpqApplicationComponents.so.1:_ZN27pqInteractivePropertyWidget16staticMetaObjectE
libpqApplicationComponents.so.1:_ZN27pqInteractivePropertyWidgetC2EPKcS1_P10vtkSMProxyP18vtkSMPropertyGroupP7QWidget
libpqApplicationComponents.so.1:_ZN27pqInteractivePropertyWidgetD0Ev
libpqApplicationComponents.so.1:_ZN27pqInteractivePropertyWidgetD1Ev
libpqApplicationComponents.so.1:_ZN27pqInteractivePropertyWidgetD2Ev
libpqApplicationComponents.so.1:_ZN27pqManageExpressionsReaction11qt_metacallEN11QMetaObject4CallEiPPv
libpqApplicationComponents.so.1:_ZN27pqManageExpressionsReaction11qt_metacastEPKc
libpqApplicationComponents.so.1:_ZN27pqManageExpressionsReaction16staticMetaObjectE
libpqApplicationComponents.so.1:_ZN27pqManageExpressionsReaction17manageExpressionsEv
libpqApplicationComponents.so.1:_ZN27pqManageExpressionsReactionC1EP7QAction
libpqApplicationComponents.so.1:_ZN27pqManageExpressionsReactionC2EP7QAction
libpqApplicationComponents.so.1:_ZN27pqPluginActionGroupBehavior11qt_metacallEN11QMetaObject4CallEiPPv
libpqApplicationComponents.so.1:_ZN27pqPluginActionGroupBehavior11qt_metacastEPKc
libpqApplicationComponents.so.1:_ZN27pqPluginActionGroupBehavior16staticMetaObjectE
libpqApplicationComponents.so.1:_ZN27pqPluginActionGroupBehavior18addPluginInterfaceEP7QObject
libpqApplicationComponents.so.1:_ZN27pqPluginActionGroupBehaviorC1EP11QMainWindow
libpqApplicationComponents.so.1:_ZN27pqPluginActionGroupBehaviorC2EP11QMainWindow
libpqApplicationComponents.so.1:_ZN27pqPluginDockWidgetsBehavior11qt_metacallEN11QMetaObject4CallEiPPv
libpqApplicationComponents.so.1:_ZN27pqPluginDockWidgetsBehavior11qt_metacastEPKc
libpqApplicationComponents.so.1:_ZN27pqPluginDockWidgetsBehavior16staticMetaObjectE
libpqApplicationComponents.so.1:_ZN27pqPluginDockWidgetsBehavior18addPluginInterfaceEP7QObject
libpqApplicationComponents.so.1:_ZN27pqPluginDockWidgetsBehaviorC1EP11QMainWindow
libpqApplicationComponents.so.1:_ZN27pqPluginDockWidgetsBehaviorC2EP11QMainWindow
libpqApplicationComponents.so.1:_ZN27pqQuickLaunchDialogExtended11currentListEv
libpqApplicationComponents.so.1:_ZN27pqQuickLaunchDialogExtended11makeCurrentEP9QListViewi
libpqApplicationComponents.so.1:_ZN27pqQuickLaunchDialogExtended11qt_metacallEN11QMetaObject4CallEiPPv
libpqApplicationComponents.so.1:_ZN27pqQuickLaunchDialogExtended11qt_metacastEPKc
libpqApplicationComponents.so.1:_ZN27pqQuickLaunchDialogExtended11toggleFocusEv
libpqApplicationComponents.so.1:_ZN27pqQuickLaunchDialogExtended13showProxyHelpEv
libpqApplicationComponents.so.1:_ZN27pqQuickLaunchDialogExtended14applyRequestedEv
libpqApplicationComponents.so.1:_ZN27pqQuickLaunchDialogExtended14currentChangedERK11QModelIndexP21QSortFilterProxyModel
libpqApplicationComponents.so.1:_ZN27pqQuickLaunchDialogExtended14requestChangedERK7QString
libpqApplicationComponents.so.1:_ZN27pqQuickLaunchDialogExtended16staticMetaObjectE
libpqApplicationComponents.so.1:_ZN27pqQuickLaunchDialogExtended17handleTextChangedEi
libpqApplicationComponents.so.1:_ZN27pqQuickLaunchDialogExtended18createCurrentProxyEb
libpqApplicationComponents.so.1:_ZN27pqQuickLaunchDialogExtended30createCurrentProxyWithoutApplyEv
libpqApplicationComponents.so.1:_ZN27pqQuickLaunchDialogExtended4moveEi
libpqApplicationComponents.so.1:_ZN27pqQuickLaunchDialogExtended6cancelEv
libpqApplicationComponents.so.1:_ZN27pqQuickLaunchDialogExtendedC1EP7QWidgetRK5QListIP7QActionE
libpqApplicationComponents.so.1:_ZN27pqQuickLaunchDialogExtendedC2EP7QWidgetRK5QListIP7QActionE
libpqApplicationComponents.so.1:_ZN27pqQuickLaunchDialogExtendedD0Ev
libpqApplicationComponents.so.1:_ZN27pqQuickLaunchDialogExtendedD1Ev
libpqApplicationComponents.so.1:_ZN27pqQuickLaunchDialogExtendedD2Ev
libpqApplicationComponents.so.1:_ZN27pqToggleInteractionViewMode11onTriggeredEv
libpqApplicationComponents.so.1:_ZN27pqToggleInteractionViewMode11qt_metacallEN11QMetaObject4CallEiPPv
libpqApplicationComponents.so.1:_ZN27pqToggleInteractionViewMode11qt_metacastEPKc
libpqApplicationComponents.so.1:_ZN27pqToggleInteractionViewMode16staticMetaObjectE
libpqApplicationComponents.so.1:_ZN27pqToggleInteractionViewMode22updateInteractionLabelEi
libpqApplicationComponents.so.1:_ZN27pqToggleInteractionViewModeC1EP7QActionP6pqView
libpqApplicationComponents.so.1:_ZN27pqToggleInteractionViewModeC2EP7QActionP6pqView
libpqApplicationComponents.so.1:_ZN28pqAnimationShortcutDecorator11qt_metacallEN11QMetaObject4CallEiPPv
libpqApplicationComponents.so.1:_ZN28pqAnimationShortcutDecorator11qt_metacastEPKc
libpqApplicationComponents.so.1:_ZN28pqAnimationShortcutDecorator16staticMetaObjectE
libpqApplicationComponents.so.1:_ZN28pqAnimationShortcutDecorator22generalSettingsChangedEv
libpqApplicationComponents.so.1:_ZN28pqAnimationShortcutDecorator6acceptEP16pqPropertyWidget
libpqApplicationComponents.so.1:_ZN28pqAnimationShortcutDecoratorC1EP16pqPropertyWidget
libpqApplicationComponents.so.1:_ZN28pqAnimationShortcutDecoratorC2EP16pqPropertyWidget
libpqApplicationComponents.so.1:_ZN28pqAnimationShortcutDecoratorD0Ev
libpqApplicationComponents.so.1:_ZN28pqAnimationShortcutDecoratorD1Ev
libpqApplicationComponents.so.1:_ZN28pqAnimationShortcutDecoratorD2Ev
libpqApplicationComponents.so.1:_ZN28pqCTHArraySelectionDecorator11qt_metacallEN11QMetaObject4CallEiPPv
libpqApplicationComponents.so.1:_ZN28pqCTHArraySelectionDecorator11qt_metacastEPKc
libpqApplicationComponents.so.1:_ZN28pqCTHArraySelectionDecorator15updateSelectionEv
libpqApplicationComponents.so.1:_ZN28pqCTHArraySelectionDecorator16staticMetaObjectE
libpqApplicationComponents.so.1:_ZN28pqCTHArraySelectionDecoratorC1EP15vtkPVXMLElementP16pqPropertyWidget
libpqApplicationComponents.so.1:_ZN28pqCTHArraySelectionDecoratorC2EP15vtkPVXMLElementP16pqPropertyWidget
libpqApplicationComponents.so.1:_ZN28pqCTHArraySelectionDecoratorD0Ev
libpqApplicationComponents.so.1:_ZN28pqCTHArraySelectionDecoratorD1Ev
libpqApplicationComponents.so.1:_ZN28pqCTHArraySelectionDecoratorD2Ev
libpqApplicationComponents.so.1:_ZN28pqColorPaletteSelectorWidget11loadPaletteEi
libpqApplicationComponents.so.1:_ZN28pqColorPaletteSelectorWidget11qt_metacallEN11QMetaObject4CallEiPPv
libpqApplicationComponents.so.1:_ZN28pqColorPaletteSelectorWidget11qt_metacastEPKc
libpqApplicationComponents.so.1:_ZN28pqColorPaletteSelectorWidget14setPaletteNameERK7QString
libpqApplicationComponents.so.1:_ZN28pqColorPaletteSelectorWidget16staticMetaObjectE
libpqApplicationComponents.so.1:_ZN28pqColorPaletteSelectorWidget18paletteNameChangedEv
libpqApplicationComponents.so.1:_ZN28pqColorPaletteSelectorWidgetC1EP10vtkSMProxyP13vtkSMPropertyP7QWidget
libpqApplicationComponents.so.1:_ZN28pqColorPaletteSelectorWidgetC2EP10vtkSMProxyP13vtkSMPropertyP7QWidget
libpqApplicationComponents.so.1:_ZN28pqColorPaletteSelectorWidgetD0Ev
libpqApplicationComponents.so.1:_ZN28pqColorPaletteSelectorWidgetD1Ev
libpqApplicationComponents.so.1:_ZN28pqColorPaletteSelectorWidgetD2Ev
libpqApplicationComponents.so.1:_ZN28pqCommandLineOptionsBehavior11processDataEv
libpqApplicationComponents.so.1:_ZN28pqCommandLineOptionsBehavior11processLiveEv
libpqApplicationComponents.so.1:_ZN28pqCommandLineOptionsBehavior11qt_metacallEN11QMetaObject4CallEiPPv
libpqApplicationComponents.so.1:_ZN28pqCommandLineOptionsBehavior11qt_metacastEPKc
libpqApplicationComponents.so.1:_ZN28pqCommandLineOptionsBehavior12processStateEv
libpqApplicationComponents.so.1:_ZN28pqCommandLineOptionsBehavior12processTestsEv
libpqApplicationComponents.so.1:_ZN28pqCommandLineOptionsBehavior13processScriptEv
libpqApplicationComponents.so.1:_ZN28pqCommandLineOptionsBehavior14processPluginsEv
libpqApplicationComponents.so.1:_ZN28pqCommandLineOptionsBehavior16resetApplicationEv
libpqApplicationComponents.so.1:_ZN28pqCommandLineOptionsBehavior16staticMetaObjectE
libpqApplicationComponents.so.1:_ZN28pqCommandLineOptionsBehavior23processServerConnectionEv
libpqApplicationComponents.so.1:_ZN28pqCommandLineOptionsBehavior25processCommandLineOptionsEv
libpqApplicationComponents.so.1:_ZN28pqCommandLineOptionsBehaviorC1EP7QObject
libpqApplicationComponents.so.1:_ZN28pqCommandLineOptionsBehaviorC2EP7QObject
libpqApplicationComponents.so.1:_ZN28pqCreateCustomFilterReaction11qt_metacallEN11QMetaObject4CallEiPPv
libpqApplicationComponents.so.1:_ZN28pqCreateCustomFilterReaction11qt_metacastEPKc
libpqApplicationComponents.so.1:_ZN28pqCreateCustomFilterReaction16staticMetaObjectE
libpqApplicationComponents.so.1:_ZN28pqCreateCustomFilterReaction17updateEnableStateEv
libpqApplicationComponents.so.1:_ZN28pqCreateCustomFilterReaction18createCustomFilterEv
libpqApplicationComponents.so.1:_ZN28pqCreateCustomFilterReactionC1EP7QAction
libpqApplicationComponents.so.1:_ZN28pqCreateCustomFilterReactionC2EP7QAction
libpqApplicationComponents.so.1:_ZN28pqCustomViewpointsController10setToolbarEP25pqCustomViewpointsToolbar
libpqApplicationComponents.so.1:_ZN28pqCustomViewpointsController11qt_metacallEN11QMetaObject4CallEiPPv
libpqApplicationComponents.so.1:_ZN28pqCustomViewpointsController11qt_metacastEPKc
libpqApplicationComponents.so.1:_ZN28pqCustomViewpointsController16staticMetaObjectE
libpqApplicationComponents.so.1:_ZN28pqCustomizeShortcutsReaction11qt_metacallEN11QMetaObject4CallEiPPv
libpqApplicationComponents.so.1:_ZN28pqCustomizeShortcutsReaction11qt_metacastEPKc
libpqApplicationComponents.so.1:_ZN28pqCustomizeShortcutsReaction16staticMetaObjectE
libpqApplicationComponents.so.1:_ZN28pqCustomizeShortcutsReaction28showCustomizeShortcutsDialogEv
libpqApplicationComponents.so.1:_ZN28pqCustomizeShortcutsReactionC1EP7QAction
libpqApplicationComponents.so.1:_ZN28pqCustomizeShortcutsReactionC2EP7QAction
libpqApplicationComponents.so.1:_ZN28pqDataAssemblyPropertyWidget11qt_metacallEN11QMetaObject4CallEiPPv
libpqApplicationComponents.so.1:_ZN28pqDataAssemblyPropertyWidget11qt_metacastEPKc
libpqApplicationComponents.so.1:_ZN28pqDataAssemblyPropertyWidget12setSelectorsERK5QListI7QStringE
libpqApplicationComponents.so.1:_ZN28pqDataAssemblyPropertyWidget12setSelectorsERK5QListI8QVariantE
libpqApplicationComponents.so.1:_ZN28pqDataAssemblyPropertyWidget12updateWidgetEb
libpqApplicationComponents.so.1:_ZN28pqDataAssemblyPropertyWidget16selectorsChangedEv
libpqApplicationComponents.so.1:_ZN28pqDataAssemblyPropertyWidget16staticMetaObjectE
libpqApplicationComponents.so.1:_ZN28pqDataAssemblyPropertyWidget18updateDataAssemblyEP9vtkObject
libpqApplicationComponents.so.1:_ZN28pqDataAssemblyPropertyWidget19setCompositeIndicesERK5QListI8QVariantE
libpqApplicationComponents.so.1:_ZN28pqDataAssemblyPropertyWidget20assemblyTreeModifiedEi
libpqApplicationComponents.so.1:_ZN28pqDataAssemblyPropertyWidget22selectorsTableModifiedEv
libpqApplicationComponents.so.1:_ZN28pqDataAssemblyPropertyWidgetC1EP10vtkSMProxyP13vtkSMPropertyP7QWidget
libpqApplicationComponents.so.1:_ZN28pqDataAssemblyPropertyWidgetC1EP10vtkSMProxyP18vtkSMPropertyGroupP7QWidget
libpqApplicationComponents.so.1:_ZN28pqDataAssemblyPropertyWidgetC2EP10vtkSMProxyP13vtkSMPropertyP7QWidget
libpqApplicationComponents.so.1:_ZN28pqDataAssemblyPropertyWidgetC2EP10vtkSMProxyP18vtkSMPropertyGroupP7QWidget
libpqApplicationComponents.so.1:_ZN28pqDataAssemblyPropertyWidgetD0Ev
libpqApplicationComponents.so.1:_ZN28pqDataAssemblyPropertyWidgetD1Ev
libpqApplicationComponents.so.1:_ZN28pqDataAssemblyPropertyWidgetD2Ev
libpqApplicationComponents.so.1:_ZN28pqPythonScriptEditorReaction11qt_metacallEN11QMetaObject4CallEiPPv
libpqApplicationComponents.so.1:_ZN28pqPythonScriptEditorReaction11qt_metacastEPKc
libpqApplicationComponents.so.1:_ZN28pqPythonScriptEditorReaction16staticMetaObjectE
libpqApplicationComponents.so.1:_ZN28pqRescaleScalarRangeReaction11onTriggeredEv
libpqApplicationComponents.so.1:_ZN28pqRescaleScalarRangeReaction11qt_metacallEN11QMetaObject4CallEiPPv
libpqApplicationComponents.so.1:_ZN28pqRescaleScalarRangeReaction11qt_metacastEPKc
libpqApplicationComponents.so.1:_ZN28pqRescaleScalarRangeReaction13onServerAddedEP8pqServer
libpqApplicationComponents.so.1:_ZN28pqRescaleScalarRangeReaction16staticMetaObjectE
libpqApplicationComponents.so.1:_ZN28pqRescaleScalarRangeReaction17setRepresentationEP20pqDataRepresentationi
libpqApplicationComponents.so.1:_ZN28pqRescaleScalarRangeReaction17updateEnableStateEv
libpqApplicationComponents.so.1:_ZN28pqRescaleScalarRangeReaction21onAboutToRemoveServerEP8pqServer
libpqApplicationComponents.so.1:_ZN28pqRescaleScalarRangeReaction23setActiveRepresentationEv
libpqApplicationComponents.so.1:_ZN28pqRescaleScalarRangeReaction24rescaleScalarRangeToDataEP24pqPipelineRepresentationi
libpqApplicationComponents.so.1:_ZN28pqRescaleScalarRangeReaction26rescaleScalarRangeToCustomEP24pqPipelineRepresentationi
libpqApplicationComponents.so.1:_ZN28pqRescaleScalarRangeReaction26rescaleScalarRangeToCustomESt6vectorIP10vtkSMProxySaIS2_EEbi
libpqApplicationComponents.so.1:_ZN28pqRescaleScalarRangeReaction27rescaleScalarRangeToVisibleEP24pqPipelineRepresentation
libpqApplicationComponents.so.1:_ZN28pqRescaleScalarRangeReaction32rescaleScalarRangeToDataOverTimeEP24pqPipelineRepresentationi
libpqApplicationComponents.so.1:_ZN28pqRescaleScalarRangeReactionC1EP7QActionbNS_5ModesE
libpqApplicationComponents.so.1:_ZN28pqRescaleScalarRangeReactionC2EP7QActionbNS_5ModesE
libpqApplicationComponents.so.1:_ZN28pqRescaleScalarRangeReactionD0Ev
libpqApplicationComponents.so.1:_ZN28pqRescaleScalarRangeReactionD1Ev
libpqApplicationComponents.so.1:_ZN28pqRescaleScalarRangeReactionD2Ev
libpqApplicationComponents.so.1:_ZN28pqSeriesEditorPropertyWidget11qt_metacallEN11QMetaObject4CallEiPPv
libpqApplicationComponents.so.1:_ZN28pqSeriesEditorPropertyWidget11qt_metacastEPKc
libpqApplicationComponents.so.1:_ZN28pqSeriesEditorPropertyWidget14domainModifiedEP9vtkObject
libpqApplicationComponents.so.1:_ZN28pqSeriesEditorPropertyWidget14setPresetColorERK5QListI8QVariantE
libpqApplicationComponents.so.1:_ZN28pqSeriesEditorPropertyWidget14setPresetLabelERK5QListI8QVariantE
libpqApplicationComponents.so.1:_ZN28pqSeriesEditorPropertyWidget14setSeriesColorERK5QListI8QVariantE
libpqApplicationComponents.so.1:_ZN28pqSeriesEditorPropertyWidget14setSeriesLabelERK5QListI8QVariantE
libpqApplicationComponents.so.1:_ZN28pqSeriesEditorPropertyWidget15onPresetChangedERK7QString
libpqApplicationComponents.so.1:_ZN28pqSeriesEditorPropertyWidget16setSeriesOpacityERK5QListI8QVariantE
libpqApplicationComponents.so.1:_ZN28pqSeriesEditorPropertyWidget16staticMetaObjectE
libpqApplicationComponents.so.1:_ZN28pqSeriesEditorPropertyWidget18presetColorChangedEv
libpqApplicationComponents.so.1:_ZN28pqSeriesEditorPropertyWidget18presetLabelChangedEv
libpqApplicationComponents.so.1:_ZN28pqSeriesEditorPropertyWidget18seriesColorChangedEv
libpqApplicationComponents.so.1:_ZN28pqSeriesEditorPropertyWidget18seriesLabelChangedEv
libpqApplicationComponents.so.1:_ZN28pqSeriesEditorPropertyWidget18setSeriesLineStyleERK5QListI8QVariantE
libpqApplicationComponents.so.1:_ZN28pqSeriesEditorPropertyWidget19setSeriesMarkerSizeERK5QListI8QVariantE
libpqApplicationComponents.so.1:_ZN28pqSeriesEditorPropertyWidget19setSeriesPlotCornerERK5QListI8QVariantE
libpqApplicationComponents.so.1:_ZN28pqSeriesEditorPropertyWidget19setSeriesVisibilityERK5QListI8QVariantE
libpqApplicationComponents.so.1:_ZN28pqSeriesEditorPropertyWidget20seriesOpacityChangedEv
libpqApplicationComponents.so.1:_ZN28pqSeriesEditorPropertyWidget20setSeriesMarkerStyleERK5QListI8QVariantE
libpqApplicationComponents.so.1:_ZN28pqSeriesEditorPropertyWidget21savePropertiesWidgetsEv
libpqApplicationComponents.so.1:_ZN28pqSeriesEditorPropertyWidget22seriesLineStyleChangedEv
libpqApplicationComponents.so.1:_ZN28pqSeriesEditorPropertyWidget22setSeriesLineThicknessERK5QListI8QVariantE
libpqApplicationComponents.so.1:_ZN28pqSeriesEditorPropertyWidget23seriesMarkerSizeChangedEv
libpqApplicationComponents.so.1:_ZN28pqSeriesEditorPropertyWidget23seriesPlotCornerChangedEv
libpqApplicationComponents.so.1:_ZN28pqSeriesEditorPropertyWidget23seriesVisibilityChangedEv
libpqApplicationComponents.so.1:_ZN28pqSeriesEditorPropertyWidget24refreshPropertiesWidgetsEv
libpqApplicationComponents.so.1:_ZN28pqSeriesEditorPropertyWidget24seriesMarkerStyleChangedEv
libpqApplicationComponents.so.1:_ZN28pqSeriesEditorPropertyWidget26seriesLineThicknessChangedEv
libpqApplicationComponents.so.1:_ZN28pqSeriesEditorPropertyWidgetC1EP10vtkSMProxyP18vtkSMPropertyGroupP7QWidget
libpqApplicationComponents.so.1:_ZN28pqSeriesEditorPropertyWidgetC2EP10vtkSMProxyP18vtkSMPropertyGroupP7QWidget
libpqApplicationComponents.so.1:_ZN28pqSeriesEditorPropertyWidgetD0Ev
libpqApplicationComponents.so.1:_ZN28pqSeriesEditorPropertyWidgetD1Ev
libpqApplicationComponents.so.1:_ZN28pqSeriesEditorPropertyWidgetD2Ev
libpqApplicationComponents.so.1:_ZN28pqSetMainWindowTitleReaction11qt_metacallEN11QMetaObject4CallEiPPv
libpqApplicationComponents.so.1:_ZN28pqSetMainWindowTitleReaction11qt_metacastEPKc
libpqApplicationComponents.so.1:_ZN28pqSetMainWindowTitleReaction16staticMetaObjectE
libpqApplicationComponents.so.1:_ZN28pqSetMainWindowTitleReaction28showSetMainWindowTitleDialogEv
libpqApplicationComponents.so.1:_ZN28pqSetMainWindowTitleReactionC1EP7QAction
libpqApplicationComponents.so.1:_ZN28pqSetMainWindowTitleReactionC2EP7QAction
libpqApplicationComponents.so.1:_ZN28pqSetMainWindowTitleReactionD0Ev
libpqApplicationComponents.so.1:_ZN28pqSetMainWindowTitleReactionD1Ev
libpqApplicationComponents.so.1:_ZN28pqSetMainWindowTitleReactionD2Ev
libpqApplicationComponents.so.1:_ZN29pqApplicationSettingsReaction11qt_metacallEN11QMetaObject4CallEiPPv
libpqApplicationComponents.so.1:_ZN29pqApplicationSettingsReaction11qt_metacastEPKc
libpqApplicationComponents.so.1:_ZN29pqApplicationSettingsReaction16staticMetaObjectE
libpqApplicationComponents.so.1:_ZN29pqApplicationSettingsReaction29showApplicationSettingsDialogERK7QString
libpqApplicationComponents.so.1:_ZN29pqApplicationSettingsReaction6DialogE
libpqApplicationComponents.so.1:_ZN29pqApplicationSettingsReactionC1EP7QAction
libpqApplicationComponents.so.1:_ZN29pqApplicationSettingsReactionC2EP7QAction
libpqApplicationComponents.so.1:_ZN29pqApplicationSettingsReactionD0Ev
libpqApplicationComponents.so.1:_ZN29pqApplicationSettingsReactionD1Ev
libpqApplicationComponents.so.1:_ZN29pqApplicationSettingsReactionD2Ev
libpqApplicationComponents.so.1:_ZN29pqBoolPropertyWidgetDecorator11qt_metacallEN11QMetaObject4CallEiPPv
libpqApplicationComponents.so.1:_ZN29pqBoolPropertyWidgetDecorator11qt_metacastEPKc
libpqApplicationComponents.so.1:_ZN29pqBoolPropertyWidgetDecorator16staticMetaObjectE
libpqApplicationComponents.so.1:_ZN29pqBoolPropertyWidgetDecorator19boolPropertyChangedEv
libpqApplicationComponents.so.1:_ZN29pqBoolPropertyWidgetDecoratorC1EP15vtkPVXMLElementP16pqPropertyWidget
libpqApplicationComponents.so.1:_ZN29pqBoolPropertyWidgetDecoratorC2EP15vtkPVXMLElementP16pqPropertyWidget
libpqApplicationComponents.so.1:_ZN29pqChangePipelineInputReaction11changeInputEv
libpqApplicationComponents.so.1:_ZN29pqChangePipelineInputReaction11qt_metacallEN11QMetaObject4CallEiPPv
libpqApplicationComponents.so.1:_ZN29pqChangePipelineInputReaction11qt_metacastEPKc
libpqApplicationComponents.so.1:_ZN29pqChangePipelineInputReaction16staticMetaObjectE
libpqApplicationComponents.so.1:_ZN29pqChangePipelineInputReaction17updateEnableStateEv
libpqApplicationComponents.so.1:_ZN29pqChangePipelineInputReactionC1EP7QAction
libpqApplicationComponents.so.1:_ZN29pqChangePipelineInputReactionC2EP7QAction
libpqApplicationComponents.so.1:_ZN29pqColorSelectorPropertyWidget11qt_metacallEN11QMetaObject4CallEiPPv
libpqApplicationComponents.so.1:_ZN29pqColorSelectorPropertyWidget11qt_metacastEPKc
libpqApplicationComponents.so.1:_ZN29pqColorSelectorPropertyWidget16staticMetaObjectE
libpqApplicationComponents.so.1:_ZN29pqColorSelectorPropertyWidgetC1EP10vtkSMProxyP13vtkSMPropertybP7QWidget
libpqApplicationComponents.so.1:_ZN29pqColorSelectorPropertyWidgetC2EP10vtkSMProxyP13vtkSMPropertybP7QWidget
libpqApplicationComponents.so.1:_ZN29pqColorSelectorPropertyWidgetD0Ev
libpqApplicationComponents.so.1:_ZN29pqColorSelectorPropertyWidgetD1Ev
libpqApplicationComponents.so.1:_ZN29pqColorSelectorPropertyWidgetD2Ev
libpqApplicationComponents.so.1:_ZN29pqCommandButtonPropertyWidget11qt_metacallEN11QMetaObject4CallEiPPv
libpqApplicationComponents.so.1:_ZN29pqCommandButtonPropertyWidget11qt_metacastEPKc
libpqApplicationComponents.so.1:_ZN29pqCommandButtonPropertyWidget13buttonClickedEv
libpqApplicationComponents.so.1:_ZN29pqCommandButtonPropertyWidget16staticMetaObjectE
libpqApplicationComponents.so.1:_ZN29pqCommandButtonPropertyWidgetC1EP10vtkSMProxyP13vtkSMPropertyP7QWidget
libpqApplicationComponents.so.1:_ZN29pqCommandButtonPropertyWidgetC2EP10vtkSMProxyP13vtkSMPropertyP7QWidget
libpqApplicationComponents.so.1:_ZN29pqCommandButtonPropertyWidgetD0Ev
libpqApplicationComponents.so.1:_ZN29pqCommandButtonPropertyWidgetD1Ev
libpqApplicationComponents.so.1:_ZN29pqCommandButtonPropertyWidgetD2Ev
libpqApplicationComponents.so.1:_ZN29pqConfigureCategoriesReaction11qt_metacallEN11QMetaObject4CallEiPPv
libpqApplicationComponents.so.1:_ZN29pqConfigureCategoriesReaction11qt_metacastEPKc
libpqApplicationComponents.so.1:_ZN29pqConfigureCategoriesReaction16staticMetaObjectE
libpqApplicationComponents.so.1:_ZN29pqConfigureCategoriesReaction19configureCategoriesEP23pqProxyGroupMenuManager
libpqApplicationComponents.so.1:_ZN29pqExampleVisualizationsDialog11qt_metacallEN11QMetaObject4CallEiPPv
libpqApplicationComponents.so.1:_ZN29pqExampleVisualizationsDialog11qt_metacastEPKc
libpqApplicationComponents.so.1:_ZN29pqExampleVisualizationsDialog15onButtonPressedEv
libpqApplicationComponents.so.1:_ZN29pqExampleVisualizationsDialog16staticMetaObjectE
libpqApplicationComponents.so.1:_ZN29pqExampleVisualizationsDialogC1EP7QWidget
libpqApplicationComponents.so.1:_ZN29pqExampleVisualizationsDialogC2EP7QWidget
libpqApplicationComponents.so.1:_ZN29pqExampleVisualizationsDialogD0Ev
libpqApplicationComponents.so.1:_ZN29pqExampleVisualizationsDialogD1Ev
libpqApplicationComponents.so.1:_ZN29pqExampleVisualizationsDialogD2Ev
libpqApplicationComponents.so.1:_ZN29pqImplicitPlanePropertyWidget11placeWidgetEv
libpqApplicationComponents.so.1:_ZN29pqImplicitPlanePropertyWidget11qt_metacallEN11QMetaObject4CallEiPPv
libpqApplicationComponents.so.1:_ZN29pqImplicitPlanePropertyWidget11qt_metacastEPKc
libpqApplicationComponents.so.1:_ZN29pqImplicitPlanePropertyWidget12setDrawPlaneEb
libpqApplicationComponents.so.1:_ZN29pqImplicitPlanePropertyWidget15useCameraNormalEv
libpqApplicationComponents.so.1:_ZN29pqImplicitPlanePropertyWidget16staticMetaObjectE
libpqApplicationComponents.so.1:_ZN29pqImplicitPlanePropertyWidget17resetToDataBoundsEv
libpqApplicationComponents.so.1:_ZN29pqImplicitPlanePropertyWidget19resetCameraToNormalEv
libpqApplicationComponents.so.1:_ZN29pqImplicitPlanePropertyWidget5applyEv
libpqApplicationComponents.so.1:_ZN29pqImplicitPlanePropertyWidget5resetEv
libpqApplicationComponents.so.1:_ZN29pqImplicitPlanePropertyWidget9setNormalEddd
libpqApplicationComponents.so.1:_ZN29pqImplicitPlanePropertyWidget9setOriginEddd
libpqApplicationComponents.so.1:_ZN29pqImplicitPlanePropertyWidgetC1EP10vtkSMProxyP18vtkSMPropertyGroupP7QWidget
libpqApplicationComponents.so.1:_ZN29pqImplicitPlanePropertyWidgetC2EP10vtkSMProxyP18vtkSMPropertyGroupP7QWidget
libpqApplicationComponents.so.1:_ZN29pqImplicitPlanePropertyWidgetD0Ev
libpqApplicationComponents.so.1:_ZN29pqImplicitPlanePropertyWidgetD1Ev
libpqApplicationComponents.so.1:_ZN29pqImplicitPlanePropertyWidgetD2Ev
libpqApplicationComponents.so.1:_ZN29pqInteractiveProperty2DWidget11qt_metacallEN11QMetaObject4CallEiPPv
libpqApplicationComponents.so.1:_ZN29pqInteractiveProperty2DWidget11qt_metacastEPKc
libpqApplicationComponents.so.1:_ZN29pqInteractiveProperty2DWidget16staticMetaObjectE
libpqApplicationComponents.so.1:_ZN29pqInteractiveProperty2DWidgetC2EPKcS1_P10vtkSMProxyP18vtkSMPropertyGroupP7QWidget
libpqApplicationComponents.so.1:_ZN29pqInteractiveProperty2DWidgetD0Ev
libpqApplicationComponents.so.1:_ZN29pqInteractiveProperty2DWidgetD1Ev
libpqApplicationComponents.so.1:_ZN29pqInteractiveProperty2DWidgetD2Ev
libpqApplicationComponents.so.1:_ZN29pqManageCustomFiltersReaction11qt_metacallEN11QMetaObject4CallEiPPv
libpqApplicationComponents.so.1:_ZN29pqManageCustomFiltersReaction11qt_metacastEPKc
libpqApplicationComponents.so.1:_ZN29pqManageCustomFiltersReaction16staticMetaObjectE
libpqApplicationComponents.so.1:_ZN29pqManageCustomFiltersReaction19manageCustomFiltersEv
libpqApplicationComponents.so.1:_ZN29pqManageCustomFiltersReactionC1EP7QAction
libpqApplicationComponents.so.1:_ZN29pqManageCustomFiltersReactionC2EP7QAction
libpqApplicationComponents.so.1:_ZN29pqPipelineContextMenuBehavior11eventFilterEP7QObjectP6QEvent
libpqApplicationComponents.so.1:_ZN29pqPipelineContextMenuBehavior11onViewAddedEP6pqView
libpqApplicationComponents.so.1:_ZN29pqPipelineContextMenuBehavior11qt_metacallEN11QMetaObject4CallEiPPv
libpqApplicationComponents.so.1:_ZN29pqPipelineContextMenuBehavior11qt_metacastEPKc
libpqApplicationComponents.so.1:_ZN29pqPipelineContextMenuBehavior16staticMetaObjectE
libpqApplicationComponents.so.1:_ZN29pqPipelineContextMenuBehavior9buildMenuEP20pqDataRepresentationji
libpqApplicationComponents.so.1:_ZN29pqPipelineContextMenuBehaviorC1EP7QObject
libpqApplicationComponents.so.1:_ZN29pqPipelineContextMenuBehaviorC2EP7QObject
libpqApplicationComponents.so.1:_ZN29pqPipelineContextMenuBehaviorD0Ev
libpqApplicationComponents.so.1:_ZN29pqPipelineContextMenuBehaviorD1Ev
libpqApplicationComponents.so.1:_ZN29pqPipelineContextMenuBehaviorD2Ev
libpqApplicationComponents.so.1:_ZN29pqPluginDocumentationBehavior11qt_metacallEN11QMetaObject4CallEiPPv
libpqApplicationComponents.so.1:_ZN29pqPluginDocumentationBehavior11qt_metacastEPKc
libpqApplicationComponents.so.1:_ZN29pqPluginDocumentationBehavior12updatePluginEP11vtkPVPlugin
libpqApplicationComponents.so.1:_ZN29pqPluginDocumentationBehavior13updatePluginsEv
libpqApplicationComponents.so.1:_ZN29pqPluginDocumentationBehavior16staticMetaObjectE
libpqApplicationComponents.so.1:_ZN29pqPluginDocumentationBehavior17refreshHelpEngineEv
libpqApplicationComponents.so.1:_ZN29pqPluginDocumentationBehaviorC1EP11QHelpEngine
libpqApplicationComponents.so.1:_ZN29pqPluginDocumentationBehaviorC2EP11QHelpEngine
libpqApplicationComponents.so.1:_ZN29pqPluginDocumentationBehaviorD0Ev
libpqApplicationComponents.so.1:_ZN29pqPluginDocumentationBehaviorD1Ev
libpqApplicationComponents.so.1:_ZN29pqPluginDocumentationBehaviorD2Ev
libpqApplicationComponents.so.1:_ZN29pqRenderViewSelectionReaction11onMouseMoveEv
libpqApplicationComponents.so.1:_ZN29pqRenderViewSelectionReaction11onMouseStopEv
libpqApplicationComponents.so.1:_ZN29pqRenderViewSelectionReaction11qt_metacallEN11QMetaObject4CallEiPPv
libpqApplicationComponents.so.1:_ZN29pqRenderViewSelectionReaction11qt_metacastEPKc
libpqApplicationComponents.so.1:_ZN29pqRenderViewSelectionReaction12endSelectionEv
libpqApplicationComponents.so.1:_ZN29pqRenderViewSelectionReaction12isCompatibleENS_13SelectionModeE
libpqApplicationComponents.so.1:_ZN29pqRenderViewSelectionReaction12preSelectionEv
libpqApplicationComponents.so.1:_ZN29pqRenderViewSelectionReaction13UpdateTooltipEv
libpqApplicationComponents.so.1:_ZN29pqRenderViewSelectionReaction13onWheelRotateEv
libpqApplicationComponents.so.1:_ZN29pqRenderViewSelectionReaction14ActiveReactionE
libpqApplicationComponents.so.1:_ZN29pqRenderViewSelectionReaction14beginSelectionEv
libpqApplicationComponents.so.1:_ZN29pqRenderViewSelectionReaction15actionTriggeredEb
libpqApplicationComponents.so.1:_ZN29pqRenderViewSelectionReaction16cleanupObserversEv
libpqApplicationComponents.so.1:_ZN29pqRenderViewSelectionReaction16fastPreSelectionEv
libpqApplicationComponents.so.1:_ZN29pqRenderViewSelectionReaction16selectionChangedEP9vtkObjectmPv
libpqApplicationComponents.so.1:_ZN29pqRenderViewSelectionReaction16staticMetaObjectE
libpqApplicationComponents.so.1:_ZN29pqRenderViewSelectionReaction17selectedCustomBoxEPKi
libpqApplicationComponents.so.1:_ZN29pqRenderViewSelectionReaction17selectedCustomBoxEiiii
libpqApplicationComponents.so.1:_ZN29pqRenderViewSelectionReaction17setRepresentationEP20pqDataRepresentation
libpqApplicationComponents.so.1:_ZN29pqRenderViewSelectionReaction17updateEnableStateEv
libpqApplicationComponents.so.1:_ZN29pqRenderViewSelectionReaction19clearSelectionCacheEv
libpqApplicationComponents.so.1:_ZN29pqRenderViewSelectionReaction19onLeftButtonReleaseEv
libpqApplicationComponents.so.1:_ZN29pqRenderViewSelectionReaction20getSelectionModifierEv
libpqApplicationComponents.so.1:_ZN29pqRenderViewSelectionReaction20onRightButtonPressedEv
libpqApplicationComponents.so.1:_ZN29pqRenderViewSelectionReaction20onRightButtonReleaseEv
libpqApplicationComponents.so.1:_ZN29pqRenderViewSelectionReaction21selectedCustomPolygonEP11vtkIntArray
libpqApplicationComponents.so.1:_ZN29pqRenderViewSelectionReaction7setViewEP6pqView
libpqApplicationComponents.so.1:_ZN29pqRenderViewSelectionReactionC1EP7QActionP12pqRenderViewNS_13SelectionModeEP12QActionGroup
libpqApplicationComponents.so.1:_ZN29pqRenderViewSelectionReactionC2EP7QActionP12pqRenderViewNS_13SelectionModeEP12QActionGroup
libpqApplicationComponents.so.1:_ZN29pqRenderViewSelectionReactionD0Ev
libpqApplicationComponents.so.1:_ZN29pqRenderViewSelectionReactionD1Ev
libpqApplicationComponents.so.1:_ZN29pqRenderViewSelectionReactionD2Ev
libpqApplicationComponents.so.1:_ZN29pqScalarBarVisibilityReaction11qt_metacallEN11QMetaObject4CallEiPPv
libpqApplicationComponents.so.1:_ZN29pqScalarBarVisibilityReaction11qt_metacastEPKc
libpqApplicationComponents.so.1:_ZN29pqScalarBarVisibilityReaction16staticMetaObjectE
libpqApplicationComponents.so.1:_ZN29pqScalarBarVisibilityReaction17setRepresentationEP20pqDataRepresentationi
libpqApplicationComponents.so.1:_ZN29pqScalarBarVisibilityReaction17updateEnableStateEv
libpqApplicationComponents.so.1:_ZN29pqScalarBarVisibilityReaction22setScalarBarVisibilityEb
libpqApplicationComponents.so.1:_ZN29pqScalarBarVisibilityReaction23setActiveRepresentationEv
libpqApplicationComponents.so.1:_ZN29pqScalarBarVisibilityReactionC1EP7QActionb
libpqApplicationComponents.so.1:_ZN29pqScalarBarVisibilityReactionC2EP7QActionb
libpqApplicationComponents.so.1:_ZN29pqScalarBarVisibilityReactionD0Ev
libpqApplicationComponents.so.1:_ZN29pqScalarBarVisibilityReactionD1Ev
libpqApplicationComponents.so.1:_ZN29pqScalarBarVisibilityReactionD2Ev
libpqApplicationComponents.so.1:_ZN29pqSelectionListPropertyWidget11qt_metacallEN11QMetaObject4CallEiPPv
libpqApplicationComponents.so.1:_ZN29pqSelectionListPropertyWidget11qt_metacastEPKc
libpqApplicationComponents.so.1:_ZN29pqSelectionListPropertyWidget13labelsChangedEv
libpqApplicationComponents.so.1:_ZN29pqSelectionListPropertyWidget16staticMetaObjectE
libpqApplicationComponents.so.1:_ZN29pqSelectionListPropertyWidget17populateRowLabelsE15vtkSmartPointerI10vtkSMProxyE
libpqApplicationComponents.so.1:_ZN29pqSelectionListPropertyWidget9setLabelsERK5QListI8QVariantE
libpqApplicationComponents.so.1:_ZN29pqSelectionListPropertyWidgetC1EP10vtkSMProxyP18vtkSMPropertyGroupP7QWidget
libpqApplicationComponents.so.1:_ZN29pqSelectionListPropertyWidgetC2EP10vtkSMProxyP18vtkSMPropertyGroupP7QWidget
libpqApplicationComponents.so.1:_ZN29pqSelectionListPropertyWidgetD0Ev
libpqApplicationComponents.so.1:_ZN29pqSelectionListPropertyWidgetD1Ev
libpqApplicationComponents.so.1:_ZN29pqSelectionListPropertyWidgetD2Ev
libpqApplicationComponents.so.1:_ZN29pqStreamingTestingEventPlayer11qt_metacallEN11QMetaObject4CallEiPPv
libpqApplicationComponents.so.1:_ZN29pqStreamingTestingEventPlayer11qt_metacastEPKc
libpqApplicationComponents.so.1:_ZN29pqStreamingTestingEventPlayer16staticMetaObjectE
libpqApplicationComponents.so.1:_ZN29pqStreamingTestingEventPlayer21viewStreamingBehaviorEv
libpqApplicationComponents.so.1:_ZN29pqStreamingTestingEventPlayer24setViewStreamingBehaviorEP23pqViewStreamingBehavior
libpqApplicationComponents.so.1:_ZN29pqStreamingTestingEventPlayer9playEventEP7QObjectRK7QStringS4_Rb
libpqApplicationComponents.so.1:_ZN29pqUseSeparateColorMapReaction11onTriggeredEv
libpqApplicationComponents.so.1:_ZN29pqUseSeparateColorMapReaction11qt_metacallEN11QMetaObject4CallEiPPv
libpqApplicationComponents.so.1:_ZN29pqUseSeparateColorMapReaction11qt_metacastEPKc
libpqApplicationComponents.so.1:_ZN29pqUseSeparateColorMapReaction16staticMetaObjectE
libpqApplicationComponents.so.1:_ZN29pqUseSeparateColorMapReaction17setRepresentationEP20pqDataRepresentationi
libpqApplicationComponents.so.1:_ZN29pqUseSeparateColorMapReaction17updateEnableStateEv
libpqApplicationComponents.so.1:_ZN29pqUseSeparateColorMapReaction23setActiveRepresentationEv
libpqApplicationComponents.so.1:_ZN29pqUseSeparateColorMapReaction32querySelectedUseSeparateColorMapEv
libpqApplicationComponents.so.1:_ZN29pqUseSeparateColorMapReactionC1EP7QActionP20pqDisplayColorWidgetb
libpqApplicationComponents.so.1:_ZN29pqUseSeparateColorMapReactionC2EP7QActionP20pqDisplayColorWidgetb
libpqApplicationComponents.so.1:_ZN29pqUseSeparateColorMapReactionD0Ev
libpqApplicationComponents.so.1:_ZN29pqUseSeparateColorMapReactionD1Ev
libpqApplicationComponents.so.1:_ZN29pqUseSeparateColorMapReactionD2Ev
libpqApplicationComponents.so.1:_ZN30pqResetDefaultSettingsReaction11qt_metacallEN11QMetaObject4CallEiPPv
libpqApplicationComponents.so.1:_ZN30pqResetDefaultSettingsReaction11qt_metacastEPKc
libpqApplicationComponents.so.1:_ZN30pqResetDefaultSettingsReaction13clearSettingsEv
libpqApplicationComponents.so.1:_ZN30pqResetDefaultSettingsReaction14backupSettingsEv
libpqApplicationComponents.so.1:_ZN30pqResetDefaultSettingsReaction16staticMetaObjectE
libpqApplicationComponents.so.1:_ZN30pqResetDefaultSettingsReaction22resetSettingsToDefaultEv
libpqApplicationComponents.so.1:_ZN30pqResetDefaultSettingsReactionC1EP7QAction
libpqApplicationComponents.so.1:_ZN30pqResetDefaultSettingsReactionC2EP7QAction
libpqApplicationComponents.so.1:_ZN30pqResetDefaultSettingsReactionD0Ev
libpqApplicationComponents.so.1:_ZN30pqResetDefaultSettingsReactionD1Ev
libpqApplicationComponents.so.1:_ZN30pqResetDefaultSettingsReactionD2Ev
libpqApplicationComponents.so.1:_ZN30pqSelectionQueryPropertyWidget11qt_metacallEN11QMetaObject4CallEiPPv
libpqApplicationComponents.so.1:_ZN30pqSelectionQueryPropertyWidget11qt_metacastEPKc
libpqApplicationComponents.so.1:_ZN30pqSelectionQueryPropertyWidget12queryChangedEv
libpqApplicationComponents.so.1:_ZN30pqSelectionQueryPropertyWidget13pqQueryWidget13populateTermsEP13vtkSMProperty
libpqApplicationComponents.so.1:_ZN30pqSelectionQueryPropertyWidget13pqQueryWidget13populateValueEv
libpqApplicationComponents.so.1:_ZN30pqSelectionQueryPropertyWidget13pqQueryWidget17populateOperatorsEi
libpqApplicationComponents.so.1:_ZN30pqSelectionQueryPropertyWidget13pqValueWidget8modifiedEv
libpqApplicationComponents.so.1:_ZN30pqSelectionQueryPropertyWidget13pqValueWidgetC1EPNS_13pqQueryWidgetE
libpqApplicationComponents.so.1:_ZN30pqSelectionQueryPropertyWidget13pqValueWidgetC2EPNS_13pqQueryWidgetE
libpqApplicationComponents.so.1:_ZN30pqSelectionQueryPropertyWidget16staticMetaObjectE
libpqApplicationComponents.so.1:_ZN30pqSelectionQueryPropertyWidget8setQueryERK7QString
libpqApplicationComponents.so.1:_ZN30pqSelectionQueryPropertyWidgetC1EP10vtkSMProxyP13vtkSMPropertyP7QWidget
libpqApplicationComponents.so.1:_ZN30pqSelectionQueryPropertyWidgetC2EP10vtkSMProxyP13vtkSMPropertyP7QWidget
libpqApplicationComponents.so.1:_ZN30pqSelectionQueryPropertyWidgetD0Ev
libpqApplicationComponents.so.1:_ZN30pqSelectionQueryPropertyWidgetD1Ev
libpqApplicationComponents.so.1:_ZN30pqSelectionQueryPropertyWidgetD2Ev
libpqApplicationComponents.so.1:_ZN30pqVerifyRequiredPluginBehavior11qt_metacallEN11QMetaObject4CallEiPPv
libpqApplicationComponents.so.1:_ZN30pqVerifyRequiredPluginBehavior11qt_metacastEPKc
libpqApplicationComponents.so.1:_ZN30pqVerifyRequiredPluginBehavior16staticMetaObjectE
libpqApplicationComponents.so.1:_ZN30pqVerifyRequiredPluginBehavior24requiredPluginsNotLoadedEv
libpqApplicationComponents.so.1:_ZN30pqVerifyRequiredPluginBehaviorC1EP7QObject
libpqApplicationComponents.so.1:_ZN30pqVerifyRequiredPluginBehaviorC2EP7QObject
libpqApplicationComponents.so.1:_ZN30pqViewResolutionPropertyWidget11applyPresetEv
libpqApplicationComponents.so.1:_ZN30pqViewResolutionPropertyWidget11applyRecentEv
libpqApplicationComponents.so.1:_ZN30pqViewResolutionPropertyWidget11qt_metacallEN11QMetaObject4CallEiPPv
libpqApplicationComponents.so.1:_ZN30pqViewResolutionPropertyWidget11qt_metacastEPKc
libpqApplicationComponents.so.1:_ZN30pqViewResolutionPropertyWidget14clearHighlightEv
libpqApplicationComponents.so.1:_ZN30pqViewResolutionPropertyWidget15widthTextEditedERK7QString
libpqApplicationComponents.so.1:_ZN30pqViewResolutionPropertyWidget16heightTextEditedERK7QString
libpqApplicationComponents.so.1:_ZN30pqViewResolutionPropertyWidget16staticMetaObjectE
libpqApplicationComponents.so.1:_ZN30pqViewResolutionPropertyWidget18resetButtonClickedEv
libpqApplicationComponents.so.1:_ZN30pqViewResolutionPropertyWidget20highlightResetButtonEv
libpqApplicationComponents.so.1:_ZN30pqViewResolutionPropertyWidget22lockAspectRatioToggledEb
libpqApplicationComponents.so.1:_ZN30pqViewResolutionPropertyWidget5applyEv
libpqApplicationComponents.so.1:_ZN30pqViewResolutionPropertyWidget5resetEv
libpqApplicationComponents.so.1:_ZN30pqViewResolutionPropertyWidget5scaleEd
libpqApplicationComponents.so.1:_ZN30pqViewResolutionPropertyWidgetC1EP10vtkSMProxyP13vtkSMPropertyP7QWidget
libpqApplicationComponents.so.1:_ZN30pqViewResolutionPropertyWidgetC2EP10vtkSMProxyP13vtkSMPropertyP7QWidget
libpqApplicationComponents.so.1:_ZN30pqViewResolutionPropertyWidgetD0Ev
libpqApplicationComponents.so.1:_ZN30pqViewResolutionPropertyWidgetD1Ev
libpqApplicationComponents.so.1:_ZN30pqViewResolutionPropertyWidgetD2Ev
libpqApplicationComponents.so.1:_ZN30pqYoungsMaterialPropertyWidget11currentItemEv
libpqApplicationComponents.so.1:_ZN30pqYoungsMaterialPropertyWidget11qt_metacallEN11QMetaObject4CallEiPPv
libpqApplicationComponents.so.1:_ZN30pqYoungsMaterialPropertyWidget11qt_metacastEPKc
libpqApplicationComponents.so.1:_ZN30pqYoungsMaterialPropertyWidget15setNormalArraysERK5QListI8QVariantE
libpqApplicationComponents.so.1:_ZN30pqYoungsMaterialPropertyWidget16staticMetaObjectE
libpqApplicationComponents.so.1:_ZN30pqYoungsMaterialPropertyWidget16updateComboBoxesEv
libpqApplicationComponents.so.1:_ZN30pqYoungsMaterialPropertyWidget17setOrderingArraysERK5QListI8QVariantE
libpqApplicationComponents.so.1:_ZN30pqYoungsMaterialPropertyWidget19normalArraysChangedEv
libpqApplicationComponents.so.1:_ZN30pqYoungsMaterialPropertyWidget21onNormalArraysChangedEv
libpqApplicationComponents.so.1:_ZN30pqYoungsMaterialPropertyWidget21orderingArraysChangedEv
libpqApplicationComponents.so.1:_ZN30pqYoungsMaterialPropertyWidget23onOrderingArraysChangedEv
libpqApplicationComponents.so.1:_ZN30pqYoungsMaterialPropertyWidgetC1EP10vtkSMProxyP18vtkSMPropertyGroupP7QWidget
libpqApplicationComponents.so.1:_ZN30pqYoungsMaterialPropertyWidgetC2EP10vtkSMProxyP18vtkSMPropertyGroupP7QWidget
libpqApplicationComponents.so.1:_ZN30pqYoungsMaterialPropertyWidgetD0Ev
libpqApplicationComponents.so.1:_ZN30pqYoungsMaterialPropertyWidgetD1Ev
libpqApplicationComponents.so.1:_ZN30pqYoungsMaterialPropertyWidgetD2Ev
libpqApplicationComponents.so.1:_ZN31pqCatalystSetBreakpointReaction11onTriggeredEv
libpqApplicationComponents.so.1:_ZN31pqCatalystSetBreakpointReaction11qt_metacallEN11QMetaObject4CallEiPPv
libpqApplicationComponents.so.1:_ZN31pqCatalystSetBreakpointReaction11qt_metacastEPKc
libpqApplicationComponents.so.1:_ZN31pqCatalystSetBreakpointReaction16staticMetaObjectE
libpqApplicationComponents.so.1:_ZN31pqCatalystSetBreakpointReaction17updateEnableStateEv
libpqApplicationComponents.so.1:_ZN31pqCatalystSetBreakpointReactionC1EP7QAction
libpqApplicationComponents.so.1:_ZN31pqCatalystSetBreakpointReactionC2EP7QAction
libpqApplicationComponents.so.1:_ZN31pqCoordinateFramePropertyWidget11placeWidgetEv
libpqApplicationComponents.so.1:_ZN31pqCoordinateFramePropertyWidget11qt_metacallEN11QMetaObject4CallEiPPv
libpqApplicationComponents.so.1:_ZN31pqCoordinateFramePropertyWidget11qt_metacastEPKc
libpqApplicationComponents.so.1:_ZN31pqCoordinateFramePropertyWidget11setUserAxisEi
libpqApplicationComponents.so.1:_ZN31pqCoordinateFramePropertyWidget12setDirectionEddd
libpqApplicationComponents.so.1:_ZN31pqCoordinateFramePropertyWidget12setUserXAxisEv
libpqApplicationComponents.so.1:_ZN31pqCoordinateFramePropertyWidget12setUserYAxisEv
libpqApplicationComponents.so.1:_ZN31pqCoordinateFramePropertyWidget12setUserZAxisEv
libpqApplicationComponents.so.1:_ZN31pqCoordinateFramePropertyWidget13setLockedAxisEi
libpqApplicationComponents.so.1:_ZN31pqCoordinateFramePropertyWidget15resetToWorldXYZEv
libpqApplicationComponents.so.1:_ZN31pqCoordinateFramePropertyWidget15useCameraNormalEv
libpqApplicationComponents.so.1:_ZN31pqCoordinateFramePropertyWidget16staticMetaObjectE
libpqApplicationComponents.so.1:_ZN31pqCoordinateFramePropertyWidget17resetToDataBoundsEv
libpqApplicationComponents.so.1:_ZN31pqCoordinateFramePropertyWidget19resetCameraToNormalEv
libpqApplicationComponents.so.1:_ZN31pqCoordinateFramePropertyWidget23lockedAxisChangedByUserEi
libpqApplicationComponents.so.1:_ZN31pqCoordinateFramePropertyWidget27currentIndexChangedLockAxisEi
libpqApplicationComponents.so.1:_ZN31pqCoordinateFramePropertyWidget9setNormalEddd
libpqApplicationComponents.so.1:_ZN31pqCoordinateFramePropertyWidget9setOriginEddd
libpqApplicationComponents.so.1:_ZN31pqCoordinateFramePropertyWidgetC1EP10vtkSMProxyP18vtkSMPropertyGroupP7QWidget
libpqApplicationComponents.so.1:_ZN31pqCoordinateFramePropertyWidgetC2EP10vtkSMProxyP18vtkSMPropertyGroupP7QWidget
libpqApplicationComponents.so.1:_ZN31pqCoordinateFramePropertyWidgetD0Ev
libpqApplicationComponents.so.1:_ZN31pqCoordinateFramePropertyWidgetD1Ev
libpqApplicationComponents.so.1:_ZN31pqCoordinateFramePropertyWidgetD2Ev
libpqApplicationComponents.so.1:_ZN31pqModelTransformSupportBehavior11qt_metacallEN11QMetaObject4CallEiPPv
libpqApplicationComponents.so.1:_ZN31pqModelTransformSupportBehavior11qt_metacastEPKc
libpqApplicationComponents.so.1:_ZN31pqModelTransformSupportBehavior11viewUpdatedEv
libpqApplicationComponents.so.1:_ZN31pqModelTransformSupportBehavior13getAxisTitlesB5cxx11EP16vtkSMSourceProxyiPb
libpqApplicationComponents.so.1:_ZN31pqModelTransformSupportBehavior16staticMetaObjectE
libpqApplicationComponents.so.1:_ZN31pqModelTransformSupportBehavior20enableModelTransformEP6pqViewP16vtkSMSourceProxy
libpqApplicationComponents.so.1:_ZN31pqModelTransformSupportBehavior21disableModelTransformEP6pqView
libpqApplicationComponents.so.1:_ZN31pqModelTransformSupportBehavior22getChangeOfBasisMatrixEP16vtkSMSourceProxyiPb
libpqApplicationComponents.so.1:_ZN31pqModelTransformSupportBehavior32getBoundingBoxInModelCoordinatesEP16vtkSMSourceProxyiPb
libpqApplicationComponents.so.1:_ZN31pqModelTransformSupportBehavior9viewAddedEP6pqView
libpqApplicationComponents.so.1:_ZN31pqModelTransformSupportBehaviorC1EP7QObject
libpqApplicationComponents.so.1:_ZN31pqModelTransformSupportBehaviorC2EP7QObject
libpqApplicationComponents.so.1:_ZN31pqModelTransformSupportBehaviorD0Ev
libpqApplicationComponents.so.1:_ZN31pqModelTransformSupportBehaviorD1Ev
libpqApplicationComponents.so.1:_ZN31pqModelTransformSupportBehaviorD2Ev
libpqApplicationComponents.so.1:_ZN31pqPauseLiveSourcePropertyWidget11qt_metacallEN11QMetaObject4CallEiPPv
libpqApplicationComponents.so.1:_ZN31pqPauseLiveSourcePropertyWidget11qt_metacastEPKc
libpqApplicationComponents.so.1:_ZN31pqPauseLiveSourcePropertyWidget16staticMetaObjectE
libpqApplicationComponents.so.1:_ZN31pqPauseLiveSourcePropertyWidget9onClickedEb
libpqApplicationComponents.so.1:_ZN31pqPauseLiveSourcePropertyWidgetC1EP10vtkSMProxyP13vtkSMPropertyP7QWidget
libpqApplicationComponents.so.1:_ZN31pqPauseLiveSourcePropertyWidgetC2EP10vtkSMProxyP13vtkSMPropertyP7QWidget
libpqApplicationComponents.so.1:_ZN31pqPauseLiveSourcePropertyWidgetD0Ev
libpqApplicationComponents.so.1:_ZN31pqPauseLiveSourcePropertyWidgetD1Ev
libpqApplicationComponents.so.1:_ZN31pqPauseLiveSourcePropertyWidgetD2Ev
libpqApplicationComponents.so.1:_ZN31pqSaveAnimationGeometryReaction11qt_metacallEN11QMetaObject4CallEiPPv
libpqApplicationComponents.so.1:_ZN31pqSaveAnimationGeometryReaction11qt_metacastEPKc
libpqApplicationComponents.so.1:_ZN31pqSaveAnimationGeometryReaction16staticMetaObjectE
libpqApplicationComponents.so.1:_ZN31pqSaveAnimationGeometryReaction17updateEnableStateEv
libpqApplicationComponents.so.1:_ZN31pqSaveAnimationGeometryReaction21saveAnimationGeometryERK7QString
libpqApplicationComponents.so.1:_ZN31pqSaveAnimationGeometryReaction21saveAnimationGeometryEv
libpqApplicationComponents.so.1:_ZN31pqSaveAnimationGeometryReactionC1EP7QAction
libpqApplicationComponents.so.1:_ZN31pqSaveAnimationGeometryReactionC2EP7QAction
libpqApplicationComponents.so.1:_ZN31pqSpreadSheetVisibilityBehavior11qt_metacallEN11QMetaObject4CallEiPPv
libpqApplicationComponents.so.1:_ZN31pqSpreadSheetVisibilityBehavior11qt_metacastEPKc
libpqApplicationComponents.so.1:_ZN31pqSpreadSheetVisibilityBehavior16showActiveSourceEP6pqView
libpqApplicationComponents.so.1:_ZN31pqSpreadSheetVisibilityBehavior16staticMetaObjectE
libpqApplicationComponents.so.1:_ZN31pqSpreadSheetVisibilityBehaviorC1EP7QObject
libpqApplicationComponents.so.1:_ZN31pqSpreadSheetVisibilityBehaviorC2EP7QObject
libpqApplicationComponents.so.1:_ZN31pqUse2DTransferFunctionReaction11qt_metacallEN11QMetaObject4CallEiPPv
libpqApplicationComponents.so.1:_ZN31pqUse2DTransferFunctionReaction11qt_metacastEPKc
libpqApplicationComponents.so.1:_ZN31pqUse2DTransferFunctionReaction16staticMetaObjectE
libpqApplicationComponents.so.1:_ZN31pqUse2DTransferFunctionReaction17setRepresentationEP20pqDataRepresentation
libpqApplicationComponents.so.1:_ZN31pqUse2DTransferFunctionReaction17updateEnableStateEv
libpqApplicationComponents.so.1:_ZN31pqUse2DTransferFunctionReaction23setActiveRepresentationEv
libpqApplicationComponents.so.1:_ZN31pqUse2DTransferFunctionReactionC1EP7QActionb
libpqApplicationComponents.so.1:_ZN31pqUse2DTransferFunctionReactionC2EP7QActionb
libpqApplicationComponents.so.1:_ZN31pqUse2DTransferFunctionReactionD0Ev
libpqApplicationComponents.so.1:_ZN31pqUse2DTransferFunctionReactionD1Ev
libpqApplicationComponents.so.1:_ZN31pqUse2DTransferFunctionReactionD2Ev
libpqApplicationComponents.so.1:_ZN32pqColorAnnotationsPropertyWidget11qt_metacallEN11QMetaObject4CallEiPPv
libpqApplicationComponents.so.1:_ZN32pqColorAnnotationsPropertyWidget11qt_metacastEPKc
libpqApplicationComponents.so.1:_ZN32pqColorAnnotationsPropertyWidget14setAnnotationsERK5QListI8QVariantE
libpqApplicationComponents.so.1:_ZN32pqColorAnnotationsPropertyWidget16setIndexedColorsERK5QListI8QVariantE
libpqApplicationComponents.so.1:_ZN32pqColorAnnotationsPropertyWidget16staticMetaObjectE
libpqApplicationComponents.so.1:_ZN32pqColorAnnotationsPropertyWidget17setOpacityMappingERK8QVariant
libpqApplicationComponents.so.1:_ZN32pqColorAnnotationsPropertyWidget18annotationsChangedEv
libpqApplicationComponents.so.1:_ZN32pqColorAnnotationsPropertyWidget19setIndexedOpacitiesERK5QListI8QVariantE
libpqApplicationComponents.so.1:_ZN32pqColorAnnotationsPropertyWidget20indexedColorsChangedEv
libpqApplicationComponents.so.1:_ZN32pqColorAnnotationsPropertyWidget21opacityMappingChangedEv
libpqApplicationComponents.so.1:_ZN32pqColorAnnotationsPropertyWidget23indexedOpacitiesChangedEv
libpqApplicationComponents.so.1:_ZN32pqColorAnnotationsPropertyWidget24updateIndexedLookupStateEv
libpqApplicationComponents.so.1:_ZN32pqColorAnnotationsPropertyWidgetC1EP10vtkSMProxyP18vtkSMPropertyGroupP7QWidget
libpqApplicationComponents.so.1:_ZN32pqColorAnnotationsPropertyWidgetC2EP10vtkSMProxyP18vtkSMPropertyGroupP7QWidget
libpqApplicationComponents.so.1:_ZN32pqColorAnnotationsPropertyWidgetD0Ev
libpqApplicationComponents.so.1:_ZN32pqColorAnnotationsPropertyWidgetD1Ev
libpqApplicationComponents.so.1:_ZN32pqColorAnnotationsPropertyWidgetD2Ev
libpqApplicationComponents.so.1:_ZN32pqGenericPropertyWidgetDecorator11qt_metacallEN11QMetaObject4CallEiPPv
libpqApplicationComponents.so.1:_ZN32pqGenericPropertyWidgetDecorator11qt_metacastEPKc
libpqApplicationComponents.so.1:_ZN32pqGenericPropertyWidgetDecorator16staticMetaObjectE
libpqApplicationComponents.so.1:_ZN32pqGenericPropertyWidgetDecoratorC1EP15vtkPVXMLElementP16pqPropertyWidget
libpqApplicationComponents.so.1:_ZN32pqGenericPropertyWidgetDecoratorC2EP15vtkPVXMLElementP16pqPropertyWidget
libpqApplicationComponents.so.1:_ZN32pqGenericPropertyWidgetDecoratorD0Ev
libpqApplicationComponents.so.1:_ZN32pqGenericPropertyWidgetDecoratorD1Ev
libpqApplicationComponents.so.1:_ZN32pqGenericPropertyWidgetDecoratorD2Ev
libpqApplicationComponents.so.1:_ZN32pqGlyphScaleFactorPropertyWidget11qt_metacallEN11QMetaObject4CallEiPPv
libpqApplicationComponents.so.1:_ZN32pqGlyphScaleFactorPropertyWidget11qt_metacastEPKc
libpqApplicationComponents.so.1:_ZN32pqGlyphScaleFactorPropertyWidget16staticMetaObjectE
libpqApplicationComponents.so.1:_ZN32pqGlyphScaleFactorPropertyWidget18resetButtonClickedEv
libpqApplicationComponents.so.1:_ZN32pqGlyphScaleFactorPropertyWidgetC1EP10vtkSMProxyP13vtkSMPropertyP7QWidget
libpqApplicationComponents.so.1:_ZN32pqGlyphScaleFactorPropertyWidgetC2EP10vtkSMProxyP13vtkSMPropertyP7QWidget
libpqApplicationComponents.so.1:_ZN32pqGlyphScaleFactorPropertyWidgetD0Ev
libpqApplicationComponents.so.1:_ZN32pqGlyphScaleFactorPropertyWidgetD1Ev
libpqApplicationComponents.so.1:_ZN32pqGlyphScaleFactorPropertyWidgetD2Ev
libpqApplicationComponents.so.1:_ZN33pqCatalystPauseSimulationReaction11qt_metacallEN11QMetaObject4CallEiPPv
libpqApplicationComponents.so.1:_ZN33pqCatalystPauseSimulationReaction11qt_metacastEPKc
libpqApplicationComponents.so.1:_ZN33pqCatalystPauseSimulationReaction16staticMetaObjectE
libpqApplicationComponents.so.1:_ZN33pqCatalystPauseSimulationReaction17updateEnableStateENS_4TypeE
libpqApplicationComponents.so.1:_ZN33pqCatalystPauseSimulationReaction18setPauseSimulationEb
libpqApplicationComponents.so.1:_ZN33pqCatalystPauseSimulationReactionC1EP7QAction
libpqApplicationComponents.so.1:_ZN33pqCatalystPauseSimulationReactionC2EP7QAction
libpqApplicationComponents.so.1:_ZN33pqDoubleRangeSliderPropertyWidget11qt_metacallEN11QMetaObject4CallEiPPv
libpqApplicationComponents.so.1:_ZN33pqDoubleRangeSliderPropertyWidget11qt_metacastEPKc
libpqApplicationComponents.so.1:_ZN33pqDoubleRangeSliderPropertyWidget12lowerChangedEd
libpqApplicationComponents.so.1:_ZN33pqDoubleRangeSliderPropertyWidget12resetClickedEv
libpqApplicationComponents.so.1:_ZN33pqDoubleRangeSliderPropertyWidget12upperChangedEd
libpqApplicationComponents.so.1:_ZN33pqDoubleRangeSliderPropertyWidget16staticMetaObjectE
libpqApplicationComponents.so.1:_ZN33pqDoubleRangeSliderPropertyWidget20highlightResetButtonEb
libpqApplicationComponents.so.1:_ZN33pqDoubleRangeSliderPropertyWidget5applyEv
libpqApplicationComponents.so.1:_ZN33pqDoubleRangeSliderPropertyWidget5resetEv
libpqApplicationComponents.so.1:_ZN33pqDoubleRangeSliderPropertyWidgetC1EP10vtkSMProxyP13vtkSMPropertyP7QWidget
libpqApplicationComponents.so.1:_ZN33pqDoubleRangeSliderPropertyWidgetC2EP10vtkSMProxyP13vtkSMPropertyP7QWidget
libpqApplicationComponents.so.1:_ZN33pqDoubleRangeSliderPropertyWidgetD0Ev
libpqApplicationComponents.so.1:_ZN33pqDoubleRangeSliderPropertyWidgetD1Ev
libpqApplicationComponents.so.1:_ZN33pqDoubleRangeSliderPropertyWidgetD2Ev
libpqApplicationComponents.so.1:_ZN33pqLoadRestoreWindowLayoutReaction11onTriggeredEv
libpqApplicationComponents.so.1:_ZN33pqLoadRestoreWindowLayoutReaction11qt_metacallEN11QMetaObject4CallEiPPv
libpqApplicationComponents.so.1:_ZN33pqLoadRestoreWindowLayoutReaction11qt_metacastEPKc
libpqApplicationComponents.so.1:_ZN33pqLoadRestoreWindowLayoutReaction16staticMetaObjectE
libpqApplicationComponents.so.1:_ZN33pqLoadRestoreWindowLayoutReactionC1EbP7QAction
libpqApplicationComponents.so.1:_ZN33pqLoadRestoreWindowLayoutReactionC2EbP7QAction
libpqApplicationComponents.so.1:_ZN33pqLoadRestoreWindowLayoutReactionD0Ev
libpqApplicationComponents.so.1:_ZN33pqLoadRestoreWindowLayoutReactionD1Ev
libpqApplicationComponents.so.1:_ZN33pqLoadRestoreWindowLayoutReactionD2Ev
libpqApplicationComponents.so.1:_ZN33pqStandardPropertyWidgetInterface11qt_metacallEN11QMetaObject4CallEiPPv
libpqApplicationComponents.so.1:_ZN33pqStandardPropertyWidgetInterface11qt_metacastEPKc
libpqApplicationComponents.so.1:_ZN33pqStandardPropertyWidgetInterface16staticMetaObjectE
libpqApplicationComponents.so.1:_ZN33pqStandardPropertyWidgetInterface21createWidgetDecoratorERK7QStringP15vtkPVXMLElementP16pqPropertyWidget
libpqApplicationComponents.so.1:_ZN33pqStandardPropertyWidgetInterface23createWidgetForPropertyEP10vtkSMProxyP13vtkSMPropertyP7QWidget
libpqApplicationComponents.so.1:_ZN33pqStandardPropertyWidgetInterface28createWidgetForPropertyGroupEP10vtkSMProxyP18vtkSMPropertyGroupP7QWidget
libpqApplicationComponents.so.1:_ZN33pqStandardPropertyWidgetInterface29createDefaultWidgetDecoratorsEP16pqPropertyWidget
libpqApplicationComponents.so.1:_ZN33pqStandardPropertyWidgetInterfaceC1EP7QObject
libpqApplicationComponents.so.1:_ZN33pqStandardPropertyWidgetInterfaceC2EP7QObject
libpqApplicationComponents.so.1:_ZN33pqStandardPropertyWidgetInterfaceD0Ev
libpqApplicationComponents.so.1:_ZN33pqStandardPropertyWidgetInterfaceD1Ev
libpqApplicationComponents.so.1:_ZN33pqStandardPropertyWidgetInterfaceD2Ev
libpqApplicationComponents.so.1:_ZN33pqUseSeparateOpacityArrayReaction11qt_metacallEN11QMetaObject4CallEiPPv
libpqApplicationComponents.so.1:_ZN33pqUseSeparateOpacityArrayReaction11qt_metacastEPKc
libpqApplicationComponents.so.1:_ZN33pqUseSeparateOpacityArrayReaction16staticMetaObjectE
libpqApplicationComponents.so.1:_ZN33pqUseSeparateOpacityArrayReaction17setRepresentationEP20pqDataRepresentation
libpqApplicationComponents.so.1:_ZN33pqUseSeparateOpacityArrayReaction17updateEnableStateEv
libpqApplicationComponents.so.1:_ZN33pqUseSeparateOpacityArrayReaction23setActiveRepresentationEv
libpqApplicationComponents.so.1:_ZN33pqUseSeparateOpacityArrayReactionC1EP7QActionb
libpqApplicationComponents.so.1:_ZN33pqUseSeparateOpacityArrayReactionC2EP7QActionb
libpqApplicationComponents.so.1:_ZN33pqUseSeparateOpacityArrayReactionD0Ev
libpqApplicationComponents.so.1:_ZN33pqUseSeparateOpacityArrayReactionD1Ev
libpqApplicationComponents.so.1:_ZN33pqUseSeparateOpacityArrayReactionD2Ev
libpqApplicationComponents.so.1:_ZN34pqCatalystRemoveBreakpointReaction11onTriggeredEv
libpqApplicationComponents.so.1:_ZN34pqCatalystRemoveBreakpointReaction11qt_metacallEN11QMetaObject4CallEiPPv
libpqApplicationComponents.so.1:_ZN34pqCatalystRemoveBreakpointReaction11qt_metacastEPKc
libpqApplicationComponents.so.1:_ZN34pqCatalystRemoveBreakpointReaction16staticMetaObjectE
libpqApplicationComponents.so.1:_ZN34pqCatalystRemoveBreakpointReaction17updateEnableStateEv
libpqApplicationComponents.so.1:_ZN34pqCatalystRemoveBreakpointReactionC1EP7QAction
libpqApplicationComponents.so.1:_ZN34pqCatalystRemoveBreakpointReactionC2EP7QAction
libpqApplicationComponents.so.1:_ZN35pqCustomViewpointsDefaultController11qt_metacallEN11QMetaObject4CallEiPPv
libpqApplicationComponents.so.1:_ZN35pqCustomViewpointsDefaultController11qt_metacastEPKc
libpqApplicationComponents.so.1:_ZN35pqCustomViewpointsDefaultController16staticMetaObjectE
libpqApplicationComponents.so.1:_ZN35pqCustomViewpointsDefaultController20applyCustomViewpointEi
libpqApplicationComponents.so.1:_ZN35pqCustomViewpointsDefaultController21deleteCustomViewpointEi
libpqApplicationComponents.so.1:_ZN35pqCustomViewpointsDefaultController21setToCurrentViewpointEi
libpqApplicationComponents.so.1:_ZN35pqCustomViewpointsDefaultController25configureCustomViewpointsEv
libpqApplicationComponents.so.1:_ZN35pqCustomViewpointsDefaultController26getCustomViewpointToolTipsEv
libpqApplicationComponents.so.1:_ZN35pqCustomViewpointsDefaultController37addCurrentViewpointToCustomViewpointsEv
libpqApplicationComponents.so.1:_ZN35pqCustomViewpointsDefaultControllerC1EP7QObject
libpqApplicationComponents.so.1:_ZN35pqCustomViewpointsDefaultControllerC2EP7QObject
libpqApplicationComponents.so.1:_ZN35pqInteractivePropertyWidgetAbstract10selectPortEi
libpqApplicationComponents.so.1:_ZN35pqInteractivePropertyWidgetAbstract11interactionEv
libpqApplicationComponents.so.1:_ZN35pqInteractivePropertyWidgetAbstract11qt_metacallEN11QMetaObject4CallEiPPv
libpqApplicationComponents.so.1:_ZN35pqInteractivePropertyWidgetAbstract11qt_metacastEPKc
libpqApplicationComponents.so.1:_ZN35pqInteractivePropertyWidgetAbstract13setDataSourceEP10vtkSMProxy
libpqApplicationComponents.so.1:_ZN35pqInteractivePropertyWidgetAbstract14endInteractionEv
libpqApplicationComponents.so.1:_ZN35pqInteractivePropertyWidgetAbstract15handleUserEventEP9vtkObjectmPv
libpqApplicationComponents.so.1:_ZN35pqInteractivePropertyWidgetAbstract16setWidgetVisibleEb
libpqApplicationComponents.so.1:_ZN35pqInteractivePropertyWidgetAbstract16setupConnectionsEP41vtkSMNewWidgetRepresentationProxyAbstractP18vtkSMPropertyGroupP10vtkSMProxy
libpqApplicationComponents.so.1:_ZN35pqInteractivePropertyWidgetAbstract16startInteractionEv
libpqApplicationComponents.so.1:_ZN35pqInteractivePropertyWidgetAbstract16staticMetaObjectE
libpqApplicationComponents.so.1:_ZN35pqInteractivePropertyWidgetAbstract17setupUserObserverEP10vtkSMProxy
libpqApplicationComponents.so.1:_ZN35pqInteractivePropertyWidgetAbstract22updateWidgetVisibilityEv
libpqApplicationComponents.so.1:_ZN35pqInteractivePropertyWidgetAbstract23widgetVisibilityToggledEb
libpqApplicationComponents.so.1:_ZN35pqInteractivePropertyWidgetAbstract23widgetVisibilityUpdatedEb
libpqApplicationComponents.so.1:_ZN35pqInteractivePropertyWidgetAbstract5resetEv
libpqApplicationComponents.so.1:_ZN35pqInteractivePropertyWidgetAbstract6renderEv
libpqApplicationComponents.so.1:_ZN35pqInteractivePropertyWidgetAbstract6selectEv
libpqApplicationComponents.so.1:_ZN35pqInteractivePropertyWidgetAbstract7setViewEP6pqView
libpqApplicationComponents.so.1:_ZN35pqInteractivePropertyWidgetAbstract8deselectEv
libpqApplicationComponents.so.1:_ZN35pqInteractivePropertyWidgetAbstract9hideEventEP10QHideEvent
libpqApplicationComponents.so.1:_ZN35pqInteractivePropertyWidgetAbstract9showEventEP10QShowEvent
libpqApplicationComponents.so.1:_ZN35pqInteractivePropertyWidgetAbstractC2EPKcS1_P10vtkSMProxyP18vtkSMPropertyGroupP7QWidget
libpqApplicationComponents.so.1:_ZN35pqInteractivePropertyWidgetAbstractD0Ev
libpqApplicationComponents.so.1:_ZN35pqInteractivePropertyWidgetAbstractD1Ev
libpqApplicationComponents.so.1:_ZN35pqInteractivePropertyWidgetAbstractD2Ev
libpqApplicationComponents.so.1:_ZN35pqPersistentMainWindowStateBehavior11qt_metacallEN11QMetaObject4CallEiPPv
libpqApplicationComponents.so.1:_ZN35pqPersistentMainWindowStateBehavior11qt_metacastEPKc
libpqApplicationComponents.so.1:_ZN35pqPersistentMainWindowStateBehavior12restoreStateEP11QMainWindow
libpqApplicationComponents.so.1:_ZN35pqPersistentMainWindowStateBehavior12restoreStateEv
libpqApplicationComponents.so.1:_ZN35pqPersistentMainWindowStateBehavior16staticMetaObjectE
libpqApplicationComponents.so.1:_ZN35pqPersistentMainWindowStateBehavior9saveStateEP11QMainWindow
libpqApplicationComponents.so.1:_ZN35pqPersistentMainWindowStateBehavior9saveStateEv
libpqApplicationComponents.so.1:_ZN35pqPersistentMainWindowStateBehaviorC1EP11QMainWindow
libpqApplicationComponents.so.1:_ZN35pqPersistentMainWindowStateBehaviorC2EP11QMainWindow
libpqApplicationComponents.so.1:_ZN35pqPersistentMainWindowStateBehaviorD0Ev
libpqApplicationComponents.so.1:_ZN35pqPersistentMainWindowStateBehaviorD1Ev
libpqApplicationComponents.so.1:_ZN35pqPersistentMainWindowStateBehaviorD2Ev
libpqApplicationComponents.so.1:_ZN36pqOMETransferFunctionsPropertyWidget10pwfChangedEP24pqTransferFunctionWidget
libpqApplicationComponents.so.1:_ZN36pqOMETransferFunctionsPropertyWidget10stcChangedEP24pqTransferFunctionWidget
libpqApplicationComponents.so.1:_ZN36pqOMETransferFunctionsPropertyWidget11qt_metacallEN11QMetaObject4CallEiPPv
libpqApplicationComponents.so.1:_ZN36pqOMETransferFunctionsPropertyWidget11qt_metacastEPKc
libpqApplicationComponents.so.1:_ZN36pqOMETransferFunctionsPropertyWidget13setXrgbPointsEiRK5QListI8QVariantE
libpqApplicationComponents.so.1:_ZN36pqOMETransferFunctionsPropertyWidget13setXvmsPointsEiRK5QListI8QVariantE
libpqApplicationComponents.so.1:_ZN36pqOMETransferFunctionsPropertyWidget16staticMetaObjectE
libpqApplicationComponents.so.1:_ZN36pqOMETransferFunctionsPropertyWidget17xrgbPointsChangedEv
libpqApplicationComponents.so.1:_ZN36pqOMETransferFunctionsPropertyWidget17xvmsPointsChangedEv
libpqApplicationComponents.so.1:_ZN36pqOMETransferFunctionsPropertyWidget26channelVisibilitiesChangedEv
libpqApplicationComponents.so.1:_ZN36pqOMETransferFunctionsPropertyWidget5eventEP6QEvent
libpqApplicationComponents.so.1:_ZN36pqOMETransferFunctionsPropertyWidgetC1EP10vtkSMProxyP18vtkSMPropertyGroupP7QWidget
libpqApplicationComponents.so.1:_ZN36pqOMETransferFunctionsPropertyWidgetC2EP10vtkSMProxyP18vtkSMPropertyGroupP7QWidget
libpqApplicationComponents.so.1:_ZN36pqOMETransferFunctionsPropertyWidgetD0Ev
libpqApplicationComponents.so.1:_ZN36pqOMETransferFunctionsPropertyWidgetD1Ev
libpqApplicationComponents.so.1:_ZN36pqOMETransferFunctionsPropertyWidgetD2Ev
libpqApplicationComponents.so.1:_ZN37pqExampleVisualizationsDialogReaction11qt_metacallEN11QMetaObject4CallEiPPv
libpqApplicationComponents.so.1:_ZN37pqExampleVisualizationsDialogReaction11qt_metacastEPKc
libpqApplicationComponents.so.1:_ZN37pqExampleVisualizationsDialogReaction16staticMetaObjectE
libpqApplicationComponents.so.1:_ZN37pqExampleVisualizationsDialogReaction31showExampleVisualizationsDialogEv
libpqApplicationComponents.so.1:_ZN37pqExampleVisualizationsDialogReactionC1EP7QAction
libpqApplicationComponents.so.1:_ZN37pqExampleVisualizationsDialogReactionC2EP7QAction
libpqApplicationComponents.so.1:_ZN37pqExampleVisualizationsDialogReactionD0Ev
libpqApplicationComponents.so.1:_ZN37pqExampleVisualizationsDialogReactionD1Ev
libpqApplicationComponents.so.1:_ZN37pqExampleVisualizationsDialogReactionD2Ev
libpqApplicationComponents.so.1:_ZN38pqTransferFunctionWidgetPropertyDialog11qt_metacallEN11QMetaObject4CallEiPPv
libpqApplicationComponents.so.1:_ZN38pqTransferFunctionWidgetPropertyDialog11qt_metacastEPKc
libpqApplicationComponents.so.1:_ZN38pqTransferFunctionWidgetPropertyDialog16staticMetaObjectE
libpqApplicationComponents.so.1:_ZN38pqTransferFunctionWidgetPropertyDialogC1ERK7QStringP20vtkPiecewiseFunctionP7QWidgetS6_
libpqApplicationComponents.so.1:_ZN38pqTransferFunctionWidgetPropertyDialogC2ERK7QStringP20vtkPiecewiseFunctionP7QWidgetS6_
libpqApplicationComponents.so.1:_ZN38pqTransferFunctionWidgetPropertyDialogD0Ev
libpqApplicationComponents.so.1:_ZN38pqTransferFunctionWidgetPropertyDialogD1Ev
libpqApplicationComponents.so.1:_ZN38pqTransferFunctionWidgetPropertyDialogD2Ev
libpqApplicationComponents.so.1:_ZN38pqTransferFunctionWidgetPropertyWidget11qt_metacallEN11QMetaObject4CallEiPPv
libpqApplicationComponents.so.1:_ZN38pqTransferFunctionWidgetPropertyWidget11qt_metacastEPKc
libpqApplicationComponents.so.1:_ZN38pqTransferFunctionWidgetPropertyWidget11updateRangeEv
libpqApplicationComponents.so.1:_ZN38pqTransferFunctionWidgetPropertyWidget13domainChangedEv
libpqApplicationComponents.so.1:_ZN38pqTransferFunctionWidgetPropertyWidget13onRangeEditedEv
libpqApplicationComponents.so.1:_ZN38pqTransferFunctionWidgetPropertyWidget16staticMetaObjectE
libpqApplicationComponents.so.1:_ZN38pqTransferFunctionWidgetPropertyWidget17editButtonClickedEv
libpqApplicationComponents.so.1:_ZN38pqTransferFunctionWidgetPropertyWidget25resetRangeToDomainDefaultEv
libpqApplicationComponents.so.1:_ZN38pqTransferFunctionWidgetPropertyWidget28propagateProxyPointsPropertyEv
libpqApplicationComponents.so.1:_ZN38pqTransferFunctionWidgetPropertyWidgetC1EP10vtkSMProxyP13vtkSMPropertyP7QWidget
libpqApplicationComponents.so.1:_ZN38pqTransferFunctionWidgetPropertyWidgetC2EP10vtkSMProxyP13vtkSMPropertyP7QWidget
libpqApplicationComponents.so.1:_ZN38pqTransferFunctionWidgetPropertyWidgetD0Ev
libpqApplicationComponents.so.1:_ZN38pqTransferFunctionWidgetPropertyWidgetD1Ev
libpqApplicationComponents.so.1:_ZN38pqTransferFunctionWidgetPropertyWidgetD2Ev
libpqApplicationComponents.so.1:_ZN40pqStandardViewFrameActionsImplementation11qt_metacallEN11QMetaObject4CallEiPPv
libpqApplicationComponents.so.1:_ZN40pqStandardViewFrameActionsImplementation11qt_metacastEPKc
libpqApplicationComponents.so.1:_ZN40pqStandardViewFrameActionsImplementation12addSeparatorEP11pqViewFrameP6pqView
libpqApplicationComponents.so.1:_ZN40pqStandardViewFrameActionsImplementation12escTriggeredEv
libpqApplicationComponents.so.1:_ZN40pqStandardViewFrameActionsImplementation14frameConnectedEP11pqViewFrameP6pqView
libpqApplicationComponents.so.1:_ZN40pqStandardViewFrameActionsImplementation15isButtonVisibleERKNSt7__cxx1112basic_stringIcSt11char_traitsIcESaIcEEEP6pqView
libpqApplicationComponents.so.1:_ZN40pqStandardViewFrameActionsImplementation15setupEmptyFrameEP7QWidget
libpqApplicationComponents.so.1:_ZN40pqStandardViewFrameActionsImplementation16handleCreateViewERKNS_8ViewTypeE
libpqApplicationComponents.so.1:_ZN40pqStandardViewFrameActionsImplementation16staticMetaObjectE
libpqApplicationComponents.so.1:_ZN40pqStandardViewFrameActionsImplementation17addGenericActionsEP11pqViewFrameP6pqView
libpqApplicationComponents.so.1:_ZN40pqStandardViewFrameActionsImplementation18ViewTypeComparatorERKNS_8ViewTypeES2_
libpqApplicationComponents.so.1:_ZN40pqStandardViewFrameActionsImplementation18availableViewTypesEv
libpqApplicationComponents.so.1:_ZN40pqStandardViewFrameActionsImplementation20addRenderViewActionsEP11pqViewFrameP12pqRenderView
libpqApplicationComponents.so.1:_ZN40pqStandardViewFrameActionsImplementation20captureViewTriggeredEv
libpqApplicationComponents.so.1:_ZN40pqStandardViewFrameActionsImplementation21addContextViewActionsEP11pqViewFrameP13pqContextView
libpqApplicationComponents.so.1:_ZN40pqStandardViewFrameActionsImplementation21selectBlocksTriggeredEv
libpqApplicationComponents.so.1:_ZN40pqStandardViewFrameActionsImplementation22aboutToShowConvertMenuEv
libpqApplicationComponents.so.1:_ZN40pqStandardViewFrameActionsImplementation22manageGroupExclusivityEP7QAction
libpqApplicationComponents.so.1:_ZN40pqStandardViewFrameActionsImplementation23escapeableActionToggledEb
libpqApplicationComponents.so.1:_ZN40pqStandardViewFrameActionsImplementation25addSpreadSheetViewActionsEP11pqViewFrameP17pqSpreadSheetView
libpqApplicationComponents.so.1:_ZN40pqStandardViewFrameActionsImplementation27addSelectionModifierActionsEP11pqViewFrameP6pqView
libpqApplicationComponents.so.1:_ZN40pqStandardViewFrameActionsImplementation27interactiveSelectionToggledEb
libpqApplicationComponents.so.1:_ZN40pqStandardViewFrameActionsImplementation27selectFrustumCellsTriggeredEv
libpqApplicationComponents.so.1:_ZN40pqStandardViewFrameActionsImplementation27selectSurfaceCellsTriggeredEv
libpqApplicationComponents.so.1:_ZN40pqStandardViewFrameActionsImplementation28selectFrustumPointsTriggeredEv
libpqApplicationComponents.so.1:_ZN40pqStandardViewFrameActionsImplementation28selectSurfacePointsTriggeredEv
libpqApplicationComponents.so.1:_ZN40pqStandardViewFrameActionsImplementation7invokedEP11pqViewFrameRKNS_8ViewTypeERK7QString
libpqApplicationComponents.so.1:_ZN40pqStandardViewFrameActionsImplementationC1EP7QObject
libpqApplicationComponents.so.1:_ZN40pqStandardViewFrameActionsImplementationC2EP7QObject
libpqApplicationComponents.so.1:_ZN40pqStandardViewFrameActionsImplementationD0Ev
libpqApplicationComponents.so.1:_ZN40pqStandardViewFrameActionsImplementationD1Ev
libpqApplicationComponents.so.1:_ZN40pqStandardViewFrameActionsImplementationD2Ev
libpqApplicationComponents.so.1:_ZN41pqDisplaySizedImplicitPlanePropertyWidget11placeWidgetEv
libpqApplicationComponents.so.1:_ZN41pqDisplaySizedImplicitPlanePropertyWidget11qt_metacallEN11QMetaObject4CallEiPPv
libpqApplicationComponents.so.1:_ZN41pqDisplaySizedImplicitPlanePropertyWidget11qt_metacastEPKc
libpqApplicationComponents.so.1:_ZN41pqDisplaySizedImplicitPlanePropertyWidget12setDrawPlaneEb
libpqApplicationComponents.so.1:_ZN41pqDisplaySizedImplicitPlanePropertyWidget15resetRadiusSizeEv
libpqApplicationComponents.so.1:_ZN41pqDisplaySizedImplicitPlanePropertyWidget15useCameraNormalEv
libpqApplicationComponents.so.1:_ZN41pqDisplaySizedImplicitPlanePropertyWidget16staticMetaObjectE
libpqApplicationComponents.so.1:_ZN41pqDisplaySizedImplicitPlanePropertyWidget17resetToDataBoundsEv
libpqApplicationComponents.so.1:_ZN41pqDisplaySizedImplicitPlanePropertyWidget19resetCameraToNormalEv
libpqApplicationComponents.so.1:_ZN41pqDisplaySizedImplicitPlanePropertyWidget34setDrawOutlineAndIntersectionEdgesEb
libpqApplicationComponents.so.1:_ZN41pqDisplaySizedImplicitPlanePropertyWidget5applyEv
libpqApplicationComponents.so.1:_ZN41pqDisplaySizedImplicitPlanePropertyWidget5resetEv
libpqApplicationComponents.so.1:_ZN41pqDisplaySizedImplicitPlanePropertyWidget9setNormalEddd
libpqApplicationComponents.so.1:_ZN41pqDisplaySizedImplicitPlanePropertyWidget9setOriginEddd
libpqApplicationComponents.so.1:_ZN41pqDisplaySizedImplicitPlanePropertyWidgetC1EP10vtkSMProxyP18vtkSMPropertyGroupP7QWidget
libpqApplicationComponents.so.1:_ZN41pqDisplaySizedImplicitPlanePropertyWidgetC2EP10vtkSMProxyP18vtkSMPropertyGroupP7QWidget
libpqApplicationComponents.so.1:_ZN41pqDisplaySizedImplicitPlanePropertyWidgetD0Ev
libpqApplicationComponents.so.1:_ZN41pqDisplaySizedImplicitPlanePropertyWidgetD1Ev
libpqApplicationComponents.so.1:_ZN41pqDisplaySizedImplicitPlanePropertyWidgetD2Ev
libpqApplicationComponents.so.1:_ZN50pqStandardRecentlyUsedResourceLoaderImplementation11qt_metacallEN11QMetaObject4CallEiPPv
libpqApplicationComponents.so.1:_ZN50pqStandardRecentlyUsedResourceLoaderImplementation11qt_metacastEPKc
libpqApplicationComponents.so.1:_ZN50pqStandardRecentlyUsedResourceLoaderImplementation16staticMetaObjectE
libpqApplicationComponents.so.1:_ZN50pqStandardRecentlyUsedResourceLoaderImplementation29addDataFilesToRecentResourcesEP8pqServerRK5QListI7QStringERKS3_S8_
libpqApplicationComponents.so.1:_ZN50pqStandardRecentlyUsedResourceLoaderImplementation29addStateFileToRecentResourcesEP8pqServerRK7QStringj
libpqApplicationComponents.so.1:_ZN50pqStandardRecentlyUsedResourceLoaderImplementation4iconERK16pqServerResource
libpqApplicationComponents.so.1:_ZN50pqStandardRecentlyUsedResourceLoaderImplementation4loadERK16pqServerResourceP8pqServer
libpqApplicationComponents.so.1:_ZN50pqStandardRecentlyUsedResourceLoaderImplementation5labelERK16pqServerResource
libpqApplicationComponents.so.1:_ZN50pqStandardRecentlyUsedResourceLoaderImplementation7canLoadERK16pqServerResource
libpqApplicationComponents.so.1:_ZN50pqStandardRecentlyUsedResourceLoaderImplementation8loadDataERK16pqServerResourceP8pqServer
libpqApplicationComponents.so.1:_ZN50pqStandardRecentlyUsedResourceLoaderImplementation9loadStateERK16pqServerResourceP8pqServerj
libpqApplicationComponents.so.1:_ZN50pqStandardRecentlyUsedResourceLoaderImplementationC1EP7QObject
libpqApplicationComponents.so.1:_ZN50pqStandardRecentlyUsedResourceLoaderImplementationC2EP7QObject
libpqApplicationComponents.so.1:_ZN50pqStandardRecentlyUsedResourceLoaderImplementationD0Ev
libpqApplicationComponents.so.1:_ZN50pqStandardRecentlyUsedResourceLoaderImplementationD1Ev
libpqApplicationComponents.so.1:_ZN50pqStandardRecentlyUsedResourceLoaderImplementationD2Ev
libpqApplicationComponents.so.1:_ZNK10pqReaction10metaObjectEv
libpqApplicationComponents.so.1:_ZNK11pqStatusBar10metaObjectEv
libpqApplicationComponents.so.1:_ZNK12pqVCRToolbar10metaObjectEv
libpqApplicationComponents.so.1:_ZNK13pqAxesToolbar10metaObjectEv
libpqApplicationComponents.so.1:_ZNK14pqColorToolbar10metaObjectEv
libpqApplicationComponents.so.1:_ZNK14pqCopyReaction10metaObjectEv
libpqApplicationComponents.so.1:_ZNK14pqHelpReaction10metaObjectEv
libpqApplicationComponents.so.1:_ZNK14pqLightToolbar10metaObjectEv
libpqApplicationComponents.so.1:_ZNK14pqTimelineView10metaObjectEv
libpqApplicationComponents.so.1:_ZNK15pqApplyBehavior10metaObjectEv
libpqApplicationComponents.so.1:_ZNK15pqCameraToolbar10metaObjectEv
libpqApplicationComponents.so.1:_ZNK15pqMacroReaction10metaObjectEv
libpqApplicationComponents.so.1:_ZNK15pqProxyCategory10metaObjectEv
libpqApplicationComponents.so.1:_ZNK15pqTimelineModel10metaObjectEv
libpqApplicationComponents.so.1:_ZNK15pqTraceReaction10metaObjectEv
libpqApplicationComponents.so.1:_ZNK15pqWelcomeDialog10metaObjectEv
libpqApplicationComponents.so.1:_ZNK16pqCameraReaction10metaObjectEv
libpqApplicationComponents.so.1:_ZNK16pqColorMapEditor10metaObjectEv
libpqApplicationComponents.so.1:_ZNK16pqDeleteReaction10metaObjectEv
libpqApplicationComponents.so.1:_ZNK16pqExportReaction10metaObjectEv
libpqApplicationComponents.so.1:_ZNK16pqFindDataWidget10metaObjectEv
libpqApplicationComponents.so.1:_ZNK16pqFindDataWidget11pqInternals12plotOverTimeEv
libpqApplicationComponents.so.1:_ZNK16pqFindDataWidget11pqInternals6freezeEv
libpqApplicationComponents.so.1:_ZNK16pqFindDataWidget11pqInternals7extractEv
libpqApplicationComponents.so.1:_ZNK16pqFindDataWidget11pqInternals8findDataEv
libpqApplicationComponents.so.1:_ZNK16pqFindDataWidget6serverEv
libpqApplicationComponents.so.1:_ZNK16pqImportReaction10metaObjectEv
libpqApplicationComponents.so.1:_ZNK16pqTimelineWidget10metaObjectEv
libpqApplicationComponents.so.1:_ZNK17pqColorTableModel10headerDataEiN2Qt11OrientationEi
libpqApplicationComponents.so.1:_ZNK17pqColorTableModel10metaObjectEv
libpqApplicationComponents.so.1:_ZNK17pqColorTableModel11columnCountERK11QModelIndex
libpqApplicationComponents.so.1:_ZNK17pqColorTableModel4dataERK11QModelIndexi
libpqApplicationComponents.so.1:_ZNK17pqColorTableModel5flagsERK11QModelIndex
libpqApplicationComponents.so.1:_ZNK17pqColorTableModel6pointsEv
libpqApplicationComponents.so.1:_ZNK17pqColorTableModel8rowCountERK11QModelIndex
libpqApplicationComponents.so.1:_ZNK17pqSelectionEditor10metaObjectEv
libpqApplicationComponents.so.1:_ZNK17pqTestingReaction10metaObjectEv
libpqApplicationComponents.so.1:_ZNK17pqTimelinePainter10metaObjectEv
libpqApplicationComponents.so.1:_ZNK17pqViewMenuManager10metaObjectEv
libpqApplicationComponents.so.1:_ZNK18pqAutoSaveBehavior10metaObjectEv
libpqApplicationComponents.so.1:_ZNK18pqBlockContextMenu10metaObjectEv
libpqApplicationComponents.so.1:_ZNK18pqBlockContextMenu11contextMenuEP5QMenuP6pqViewRK6QPointP16pqRepresentationRK5QListI7QStringE
libpqApplicationComponents.so.1:_ZNK18pqEditMacrosDialog10metaObjectEv
libpqApplicationComponents.so.1:_ZNK18pqLoadDataReaction10metaObjectEv
libpqApplicationComponents.so.1:_ZNK18pqSaveDataReaction10metaObjectEv
libpqApplicationComponents.so.1:_ZNK18pqTimerLogReaction10metaObjectEv
libpqApplicationComponents.so.1:_ZNK18pqUndoRedoBehavior10metaObjectEv
libpqApplicationComponents.so.1:_ZNK18pqUndoRedoReaction10metaObjectEv
libpqApplicationComponents.so.1:_ZNK19pqAutoApplyReaction10metaObjectEv
libpqApplicationComponents.so.1:_ZNK19pqBoxPropertyWidget10metaObjectEv
libpqApplicationComponents.so.1:_ZNK19pqCheckableProperty10metaObjectEv
libpqApplicationComponents.so.1:_ZNK19pqCheckableProperty14enableCheckboxEv
libpqApplicationComponents.so.1:_ZNK19pqCheckableProperty15isSingleRowItemEv
libpqApplicationComponents.so.1:_ZNK19pqDataQueryReaction10metaObjectEv
libpqApplicationComponents.so.1:_ZNK19pqDefaultMainWindow10metaObjectEv
libpqApplicationComponents.so.1:_ZNK19pqLoadStateReaction10metaObjectEv
libpqApplicationComponents.so.1:_ZNK19pqLogViewerReaction10metaObjectEv
libpqApplicationComponents.so.1:_ZNK19pqPVApplicationCore10metaObjectEv
libpqApplicationComponents.so.1:_ZNK19pqPVApplicationCore13pythonManagerEv
libpqApplicationComponents.so.1:_ZNK19pqPVApplicationCore16animationManagerEv
libpqApplicationComponents.so.1:_ZNK19pqPVApplicationCore16selectionManagerEv
libpqApplicationComponents.so.1:_ZNK19pqPVApplicationCore17liveSourceManagerEv
libpqApplicationComponents.so.1:_ZNK19pqParaViewBehaviors10metaObjectEv
libpqApplicationComponents.so.1:_ZNK19pqSaveStateReaction10metaObjectEv
libpqApplicationComponents.so.1:_ZNK19pqSelectionReaction10metaObjectEv
libpqApplicationComponents.so.1:_ZNK19pqTimeManagerWidget10metaObjectEv
libpqApplicationComponents.so.1:_ZNK20pqCameraLinkReaction10metaObjectEv
libpqApplicationComponents.so.1:_ZNK20pqConePropertyWidget10metaObjectEv
libpqApplicationComponents.so.1:_ZNK20pqDefaultContextMenu10metaObjectEv
libpqApplicationComponents.so.1:_ZNK20pqDefaultContextMenu11contextMenuEP5QMenuP6pqViewRK6QPointP16pqRepresentationRK5QListIjE
libpqApplicationComponents.so.1:_ZNK20pqDefaultContextMenu13showAllBlocksEv
libpqApplicationComponents.so.1:_ZNK20pqDefaultContextMenu20buildColorFieldsMenuEP24pqPipelineRepresentationP5QMenu
libpqApplicationComponents.so.1:_ZNK20pqEditCameraReaction10metaObjectEv
libpqApplicationComponents.so.1:_ZNK20pqEditMacrosReaction10metaObjectEv
libpqApplicationComponents.so.1:_ZNK20pqFontPropertyWidget10metaObjectEv
libpqApplicationComponents.so.1:_ZNK20pqFontPropertyWidget21VerticalJustificationEv
libpqApplicationComponents.so.1:_ZNK20pqFontPropertyWidget23HorizontalJustificationEv
libpqApplicationComponents.so.1:_ZNK20pqLinePropertyWidget10metaObjectEv
libpqApplicationComponents.so.1:_ZNK20pqLinePropertyWidget15referenceBoundsEv
libpqApplicationComponents.so.1:_ZNK20pqListPropertyWidget10metaObjectEv
libpqApplicationComponents.so.1:_ZNK20pqListPropertyWidget5valueEv
libpqApplicationComponents.so.1:_ZNK20pqLiveSourceBehavior10metaObjectEv
libpqApplicationComponents.so.1:_ZNK20pqLockPanelsBehavior10metaObjectEv
libpqApplicationComponents.so.1:_ZNK20pqLockPanelsReaction10metaObjectEv
libpqApplicationComponents.so.1:_ZNK20pqMasterOnlyReaction10metaObjectEv
libpqApplicationComponents.so.1:_ZNK20pqPointPickingHelper10metaObjectEv
libpqApplicationComponents.so.1:_ZNK20pqPreviewMenuManager10metaObjectEv
libpqApplicationComponents.so.1:_ZNK20pqPreviewMenuManager10parentMenuEv
libpqApplicationComponents.so.1:_ZNK20pqSearchItemReaction10metaObjectEv
libpqApplicationComponents.so.1:_ZNK20pqTextLocationWidget10metaObjectEv
libpqApplicationComponents.so.1:_ZNK20pqTextLocationWidget14windowLocationEv
libpqApplicationComponents.so.1:_ZNK21pqAboutDialogReaction10metaObjectEv
libpqApplicationComponents.so.1:_ZNK21pqAnglePropertyWidget10metaObjectEv
libpqApplicationComponents.so.1:_ZNK21pqAnglePropertyWidget6pointsEv
libpqApplicationComponents.so.1:_ZNK21pqDefaultViewBehavior10metaObjectEv
libpqApplicationComponents.so.1:_ZNK21pqFiltersMenuReaction10metaObjectEv
libpqApplicationComponents.so.1:_ZNK21pqLightPropertyWidget10metaObjectEv
libpqApplicationComponents.so.1:_ZNK21pqLoadPaletteReaction10metaObjectEv
libpqApplicationComponents.so.1:_ZNK21pqMainControlsToolbar10metaObjectEv
libpqApplicationComponents.so.1:_ZNK21pqManageLinksReaction10metaObjectEv
libpqApplicationComponents.so.1:_ZNK21pqReloadFilesReaction10metaObjectEv
libpqApplicationComponents.so.1:_ZNK21pqRenameProxyReaction10metaObjectEv
libpqApplicationComponents.so.1:_ZNK21pqShowHideAllReaction10metaObjectEv
libpqApplicationComponents.so.1:_ZNK21pqShowWidgetDecorator10metaObjectEv
libpqApplicationComponents.so.1:_ZNK21pqSourcesMenuReaction10metaObjectEv
libpqApplicationComponents.so.1:_ZNK22pqAnimationTimeToolbar10metaObjectEv
libpqApplicationComponents.so.1:_ZNK22pqAnimationTimeToolbar19animationTimeWidgetEv
libpqApplicationComponents.so.1:_ZNK22pqDataTimeStepBehavior10metaObjectEv
libpqApplicationComponents.so.1:_ZNK22pqEditColorMapReaction10metaObjectEv
libpqApplicationComponents.so.1:_ZNK22pqHandlePropertyWidget10metaObjectEv
libpqApplicationComponents.so.1:_ZNK22pqProxyActionListModel10headerDataEiN2Qt11OrientationEi
libpqApplicationComponents.so.1:_ZNK22pqProxyActionListModel10metaObjectEv
libpqApplicationComponents.so.1:_ZNK22pqProxyActionListModel4dataERK11QModelIndexi
libpqApplicationComponents.so.1:_ZNK22pqProxyActionListModel8rowCountERK11QModelIndex
libpqApplicationComponents.so.1:_ZNK22pqSaveExtractsReaction10metaObjectEv
libpqApplicationComponents.so.1:_ZNK22pqSessionTypeDecorator10metaObjectEv
libpqApplicationComponents.so.1:_ZNK22pqSessionTypeDecorator12enableWidgetEv
libpqApplicationComponents.so.1:_ZNK22pqSessionTypeDecorator13canShowWidgetEb
libpqApplicationComponents.so.1:_ZNK22pqSpherePropertyWidget10metaObjectEv
libpqApplicationComponents.so.1:_ZNK22pqSplinePropertyWidget10currentRowEv
libpqApplicationComponents.so.1:_ZNK22pqSplinePropertyWidget10metaObjectEv
libpqApplicationComponents.so.1:_ZNK22pqSplinePropertyWidget6pointsEv
libpqApplicationComponents.so.1:_ZNK22pqTimelineItemDelegate10metaObjectEv
libpqApplicationComponents.so.1:_ZNK22pqTimelineItemDelegate5paintEP8QPainterRK20QStyleOptionViewItemRK11QModelIndex
libpqApplicationComponents.so.1:_ZNK22pqTimelineItemDelegate8sizeHintERK20QStyleOptionViewItemRK11QModelIndex
libpqApplicationComponents.so.1:_ZNK22pqUsageLoggingBehavior10metaObjectEv
libpqApplicationComponents.so.1:_ZNK22pqUsageLoggingBehavior17configurationFileEv
libpqApplicationComponents.so.1:_ZNK23pqAnnulusPropertyWidget10metaObjectEv
libpqApplicationComponents.so.1:_ZNK23pqCollaborationBehavior10metaObjectEv
libpqApplicationComponents.so.1:_ZNK23pqCrashRecoveryBehavior10metaObjectEv
libpqApplicationComponents.so.1:_ZNK23pqEditScalarBarReaction10metaObjectEv
libpqApplicationComponents.so.1:_ZNK23pqEnableWidgetDecorator10metaObjectEv
libpqApplicationComponents.so.1:_ZNK23pqFrustumPropertyWidget10metaObjectEv
libpqApplicationComponents.so.1:_ZNK23pqImageCompressorWidget10metaObjectEv
libpqApplicationComponents.so.1:_ZNK23pqImageCompressorWidget16compressorConfigEv
libpqApplicationComponents.so.1:_ZNK23pqLanguageChooserWidget10metaObjectEv
libpqApplicationComponents.so.1:_ZNK23pqLanguageChooserWidget5valueEv
libpqApplicationComponents.so.1:_ZNK23pqLinkSelectionReaction10metaObjectEv
libpqApplicationComponents.so.1:_ZNK23pqLoadMaterialsReaction10metaObjectEv
libpqApplicationComponents.so.1:_ZNK23pqManagePluginsReaction10metaObjectEv
libpqApplicationComponents.so.1:_ZNK23pqObjectPickingBehavior10metaObjectEv
libpqApplicationComponents.so.1:_ZNK23pqPluginToolBarBehavior10metaObjectEv
libpqApplicationComponents.so.1:_ZNK23pqProxyGroupMenuManager10metaObjectEv
libpqApplicationComponents.so.1:_ZNK23pqProxyGroupMenuManager19widgetActionsHolderEv
libpqApplicationComponents.so.1:_ZNK23pqProxyGroupMenuManager20getToolbarCategoriesEv
libpqApplicationComponents.so.1:_ZNK23pqProxyGroupMenuManager7actionsEv
libpqApplicationComponents.so.1:_ZNK23pqRepresentationToolbar10metaObjectEv
libpqApplicationComponents.so.1:_ZNK23pqSaveAnimationReaction10metaObjectEv
libpqApplicationComponents.so.1:_ZNK23pqServerConnectReaction10metaObjectEv
libpqApplicationComponents.so.1:_ZNK23pqViewStreamingBehavior10metaObjectEv
libpqApplicationComponents.so.1:_ZNK24pqAddToFavoritesReaction10metaObjectEv
libpqApplicationComponents.so.1:_ZNK24pqAnimatedExportReaction10metaObjectEv
libpqApplicationComponents.so.1:_ZNK24pqBackgroundEditorWidget10metaObjectEv
libpqApplicationComponents.so.1:_ZNK24pqBackgroundEditorWidget15imageBackgroundEv
libpqApplicationComponents.so.1:_ZNK24pqBackgroundEditorWidget16skyboxBackgroundEv
libpqApplicationComponents.so.1:_ZNK24pqBackgroundEditorWidget18gradientBackgroundEv
libpqApplicationComponents.so.1:_ZNK24pqBackgroundEditorWidget19environmentLightingEv
libpqApplicationComponents.so.1:_ZNK24pqCameraUndoRedoReaction10metaObjectEv
libpqApplicationComponents.so.1:_ZNK24pqCatalystExportReaction10metaObjectEv
libpqApplicationComponents.so.1:_ZNK24pqChangeFileNameReaction10metaObjectEv
libpqApplicationComponents.so.1:_ZNK24pqChartSelectionReaction10metaObjectEv
libpqApplicationComponents.so.1:_ZNK24pqColorAnnotationsWidget10metaObjectEv
libpqApplicationComponents.so.1:_ZNK24pqColorAnnotationsWidget11annotationsEv
libpqApplicationComponents.so.1:_ZNK24pqColorAnnotationsWidget12visibilitiesEv
libpqApplicationComponents.so.1:_ZNK24pqColorAnnotationsWidget13indexedColorsEv
libpqApplicationComponents.so.1:_ZNK24pqColorAnnotationsWidget14opacityMappingEv
libpqApplicationComponents.so.1:_ZNK24pqColorAnnotationsWidget16indexedOpacitiesEv
libpqApplicationComponents.so.1:_ZNK24pqCustomShortcutBehavior10metaObjectEv
libpqApplicationComponents.so.1:_ZNK24pqCylinderPropertyWidget10metaObjectEv
libpqApplicationComponents.so.1:_ZNK24pqEqualizeLayoutReaction10metaObjectEv
libpqApplicationComponents.so.1:_ZNK24pqExtractorsMenuReaction10metaObjectEv
libpqApplicationComponents.so.1:_ZNK24pqExtractorsMenuReaction15createExtractorERK7QStringS2_
libpqApplicationComponents.so.1:_ZNK24pqFileListPropertyWidget10metaObjectEv
libpqApplicationComponents.so.1:_ZNK24pqFileListPropertyWidget9fileNamesEv
libpqApplicationComponents.so.1:_ZNK24pqFileNamePropertyWidget10metaObjectEv
libpqApplicationComponents.so.1:_ZNK24pqInputDataTypeDecorator10metaObjectEv
libpqApplicationComponents.so.1:_ZNK24pqInputDataTypeDecorator12enableWidgetEv
libpqApplicationComponents.so.1:_ZNK24pqInputDataTypeDecorator13canShowWidgetEb
libpqApplicationComponents.so.1:_ZNK24pqMetaDataPropertyWidget10metaObjectEv
libpqApplicationComponents.so.1:_ZNK24pqPluginSettingsBehavior10metaObjectEv
libpqApplicationComponents.so.1:_ZNK24pqSaveScreenshotReaction10metaObjectEv
libpqApplicationComponents.so.1:_ZNK24pqTemporalExportReaction10metaObjectEv
libpqApplicationComponents.so.1:_ZNK24pqViewTypePropertyWidget10metaObjectEv
libpqApplicationComponents.so.1:_ZNK24pqViewTypePropertyWidget5valueEv
libpqApplicationComponents.so.1:_ZNK25pqAlwaysConnectedBehavior10metaObjectEv
libpqApplicationComponents.so.1:_ZNK25pqAnimationShortcutWidget10metaObjectEv
libpqApplicationComponents.so.1:_ZNK25pqCameraManipulatorWidget10metaObjectEv
libpqApplicationComponents.so.1:_ZNK25pqCameraManipulatorWidget16manipulatorTypesEv
libpqApplicationComponents.so.1:_ZNK25pqCatalystConnectReaction10metaObjectEv
libpqApplicationComponents.so.1:_ZNK25pqCustomViewpointsToolbar10metaObjectEv
libpqApplicationComponents.so.1:_ZNK25pqDesktopServicesReaction10metaObjectEv
libpqApplicationComponents.so.1:_ZNK25pqEqualizerPropertyWidget10metaObjectEv
libpqApplicationComponents.so.1:_ZNK25pqFourLinesPropertyWidget10metaObjectEv
libpqApplicationComponents.so.1:_ZNK25pqMainWindowEventBehavior10metaObjectEv
libpqApplicationComponents.so.1:_ZNK26pqCatalystContinueReaction10metaObjectEv
libpqApplicationComponents.so.1:_ZNK26pqCategoryToolbarsBehavior10metaObjectEv
libpqApplicationComponents.so.1:_ZNK26pqColorOpacityEditorWidget10metaObjectEv
libpqApplicationComponents.so.1:_ZNK26pqColorOpacityEditorWidget10xrgbPointsEv
libpqApplicationComponents.so.1:_ZNK26pqColorOpacityEditorWidget10xvmsPointsEv
libpqApplicationComponents.so.1:_ZNK26pqColorOpacityEditorWidget11useLogScaleEv
libpqApplicationComponents.so.1:_ZNK26pqColorOpacityEditorWidget15transfer2DBoxesEv
libpqApplicationComponents.so.1:_ZNK26pqColorOpacityEditorWidget17showDataHistogramEv
libpqApplicationComponents.so.1:_ZNK26pqColorOpacityEditorWidget18useLogScaleOpacityEv
libpqApplicationComponents.so.1:_ZNK26pqColorOpacityEditorWidget23transferFunction2DProxyEv
libpqApplicationComponents.so.1:_ZNK26pqColorOpacityEditorWidget23using2DTransferFunctionEv
libpqApplicationComponents.so.1:_ZNK26pqColorOpacityEditorWidget25dataHistogramNumberOfBinsEv
libpqApplicationComponents.so.1:_ZNK26pqColorOpacityEditorWidget26scalarOpacityFunctionProxyEv
libpqApplicationComponents.so.1:_ZNK26pqColorOpacityEditorWidget33automaticDataHistogramComputationEv
libpqApplicationComponents.so.1:_ZNK26pqColorOpacityEditorWidget38useOpacityControlPointsFreehandDrawingEv
libpqApplicationComponents.so.1:_ZNK26pqIgnoreSourceTimeReaction10metaObjectEv
libpqApplicationComponents.so.1:_ZNK26pqPropertyCollectionWidget10metaObjectEv
libpqApplicationComponents.so.1:_ZNK26pqServerDisconnectReaction10metaObjectEv
libpqApplicationComponents.so.1:_ZNK26pqSpreadSheetViewDecorator10metaObjectEv
libpqApplicationComponents.so.1:_ZNK26pqSpreadSheetViewDecorator13showFieldDataEv
libpqApplicationComponents.so.1:_ZNK26pqSpreadSheetViewDecorator16fieldAssociationEv
libpqApplicationComponents.so.1:_ZNK26pqSpreadSheetViewDecorator19allowChangeOfSourceEv
libpqApplicationComponents.so.1:_ZNK26pqSpreadSheetViewDecorator24generateCellConnectivityEv
libpqApplicationComponents.so.1:_ZNK26pqSpreadSheetViewDecorator24showSelectedElementsOnlyEv
libpqApplicationComponents.so.1:_ZNK27pqAutoLoadPluginXMLBehavior10metaObjectEv
libpqApplicationComponents.so.1:_ZNK27pqChooseColorPresetReaction10metaObjectEv
libpqApplicationComponents.so.1:_ZNK27pqColorEditorPropertyWidget10metaObjectEv
libpqApplicationComponents.so.1:_ZNK27pqConfigureCategoriesDialog10metaObjectEv
libpqApplicationComponents.so.1:_ZNK27pqInteractivePropertyWidget10metaObjectEv
libpqApplicationComponents.so.1:_ZNK27pqManageExpressionsReaction10metaObjectEv
libpqApplicationComponents.so.1:_ZNK27pqPluginActionGroupBehavior10metaObjectEv
libpqApplicationComponents.so.1:_ZNK27pqPluginDockWidgetsBehavior10metaObjectEv
libpqApplicationComponents.so.1:_ZNK27pqQuickLaunchDialogExtended10metaObjectEv
libpqApplicationComponents.so.1:_ZNK27pqToggleInteractionViewMode10metaObjectEv
libpqApplicationComponents.so.1:_ZNK28pqAnimationShortcutDecorator10metaObjectEv
libpqApplicationComponents.so.1:_ZNK28pqCTHArraySelectionDecorator10metaObjectEv
libpqApplicationComponents.so.1:_ZNK28pqColorPaletteSelectorWidget10metaObjectEv
libpqApplicationComponents.so.1:_ZNK28pqColorPaletteSelectorWidget11paletteNameEv
libpqApplicationComponents.so.1:_ZNK28pqCommandLineOptionsBehavior10metaObjectEv
libpqApplicationComponents.so.1:_ZNK28pqCreateCustomFilterReaction10metaObjectEv
libpqApplicationComponents.so.1:_ZNK28pqCustomViewpointsController10metaObjectEv
libpqApplicationComponents.so.1:_ZNK28pqCustomizeShortcutsReaction10metaObjectEv
libpqApplicationComponents.so.1:_ZNK28pqDataAssemblyPropertyWidget10metaObjectEv
libpqApplicationComponents.so.1:_ZNK28pqDataAssemblyPropertyWidget22selectorsAsVariantListEv
libpqApplicationComponents.so.1:_ZNK28pqDataAssemblyPropertyWidget29compositeIndicesAsVariantListEv
libpqApplicationComponents.so.1:_ZNK28pqDataAssemblyPropertyWidget9selectorsEv
libpqApplicationComponents.so.1:_ZNK28pqPythonScriptEditorReaction10metaObjectEv
libpqApplicationComponents.so.1:_ZNK28pqRescaleScalarRangeReaction10metaObjectEv
libpqApplicationComponents.so.1:_ZNK28pqSeriesEditorPropertyWidget10metaObjectEv
libpqApplicationComponents.so.1:_ZNK28pqSeriesEditorPropertyWidget11presetColorEv
libpqApplicationComponents.so.1:_ZNK28pqSeriesEditorPropertyWidget11presetLabelEv
libpqApplicationComponents.so.1:_ZNK28pqSeriesEditorPropertyWidget11seriesColorEv
libpqApplicationComponents.so.1:_ZNK28pqSeriesEditorPropertyWidget11seriesLabelEv
libpqApplicationComponents.so.1:_ZNK28pqSeriesEditorPropertyWidget13seriesOpacityEv
libpqApplicationComponents.so.1:_ZNK28pqSeriesEditorPropertyWidget15seriesLineStyleEv
libpqApplicationComponents.so.1:_ZNK28pqSeriesEditorPropertyWidget16seriesMarkerSizeEv
libpqApplicationComponents.so.1:_ZNK28pqSeriesEditorPropertyWidget16seriesPlotCornerEv
libpqApplicationComponents.so.1:_ZNK28pqSeriesEditorPropertyWidget16seriesVisibilityEv
libpqApplicationComponents.so.1:_ZNK28pqSeriesEditorPropertyWidget17seriesMarkerStyleEv
libpqApplicationComponents.so.1:_ZNK28pqSeriesEditorPropertyWidget19seriesLineThicknessEv
libpqApplicationComponents.so.1:_ZNK28pqSetMainWindowTitleReaction10metaObjectEv
libpqApplicationComponents.so.1:_ZNK29pqApplicationSettingsReaction10metaObjectEv
libpqApplicationComponents.so.1:_ZNK29pqBoolPropertyWidgetDecorator10metaObjectEv
libpqApplicationComponents.so.1:_ZNK29pqBoolPropertyWidgetDecorator14isBoolPropertyEv
libpqApplicationComponents.so.1:_ZNK29pqChangePipelineInputReaction10metaObjectEv
libpqApplicationComponents.so.1:_ZNK29pqColorSelectorPropertyWidget10metaObjectEv
libpqApplicationComponents.so.1:_ZNK29pqCommandButtonPropertyWidget10metaObjectEv
libpqApplicationComponents.so.1:_ZNK29pqConfigureCategoriesReaction10metaObjectEv
libpqApplicationComponents.so.1:_ZNK29pqExampleVisualizationsDialog10metaObjectEv
libpqApplicationComponents.so.1:_ZNK29pqImplicitPlanePropertyWidget10metaObjectEv
libpqApplicationComponents.so.1:_ZNK29pqInteractiveProperty2DWidget10metaObjectEv
libpqApplicationComponents.so.1:_ZNK29pqManageCustomFiltersReaction10metaObjectEv
libpqApplicationComponents.so.1:_ZNK29pqPipelineContextMenuBehavior10metaObjectEv
libpqApplicationComponents.so.1:_ZNK29pqPluginDocumentationBehavior10metaObjectEv
libpqApplicationComponents.so.1:_ZNK29pqRenderViewSelectionReaction10metaObjectEv
libpqApplicationComponents.so.1:_ZNK29pqScalarBarVisibilityReaction10metaObjectEv
libpqApplicationComponents.so.1:_ZNK29pqScalarBarVisibilityReaction14representationEv
libpqApplicationComponents.so.1:_ZNK29pqScalarBarVisibilityReaction16scalarBarProxiesEv
libpqApplicationComponents.so.1:_ZNK29pqSelectionListPropertyWidget10metaObjectEv
libpqApplicationComponents.so.1:_ZNK29pqSelectionListPropertyWidget6labelsEv
libpqApplicationComponents.so.1:_ZNK29pqStreamingTestingEventPlayer10metaObjectEv
libpqApplicationComponents.so.1:_ZNK29pqUseSeparateColorMapReaction10metaObjectEv
libpqApplicationComponents.so.1:_ZNK29pqUseSeparateColorMapReaction14representationEv
libpqApplicationComponents.so.1:_ZNK30pqResetDefaultSettingsReaction10metaObjectEv
libpqApplicationComponents.so.1:_ZNK30pqSelectionQueryPropertyWidget10metaObjectEv
libpqApplicationComponents.so.1:_ZNK30pqSelectionQueryPropertyWidget5queryEv
libpqApplicationComponents.so.1:_ZNK30pqVerifyRequiredPluginBehavior10metaObjectEv
libpqApplicationComponents.so.1:_ZNK30pqViewResolutionPropertyWidget10metaObjectEv
libpqApplicationComponents.so.1:_ZNK30pqYoungsMaterialPropertyWidget10metaObjectEv
libpqApplicationComponents.so.1:_ZNK30pqYoungsMaterialPropertyWidget12normalArraysEv
libpqApplicationComponents.so.1:_ZNK30pqYoungsMaterialPropertyWidget14orderingArraysEv
libpqApplicationComponents.so.1:_ZNK31pqCatalystSetBreakpointReaction10metaObjectEv
libpqApplicationComponents.so.1:_ZNK31pqCoordinateFramePropertyWidget10metaObjectEv
libpqApplicationComponents.so.1:_ZNK31pqCoordinateFramePropertyWidget13getLockedAxisEv
libpqApplicationComponents.so.1:_ZNK31pqModelTransformSupportBehavior10metaObjectEv
libpqApplicationComponents.so.1:_ZNK31pqPauseLiveSourcePropertyWidget10metaObjectEv
libpqApplicationComponents.so.1:_ZNK31pqSaveAnimationGeometryReaction10metaObjectEv
libpqApplicationComponents.so.1:_ZNK31pqSpreadSheetVisibilityBehavior10metaObjectEv
libpqApplicationComponents.so.1:_ZNK31pqUse2DTransferFunctionReaction10metaObjectEv
libpqApplicationComponents.so.1:_ZNK31pqUse2DTransferFunctionReaction14representationEv
libpqApplicationComponents.so.1:_ZNK32pqColorAnnotationsPropertyWidget10metaObjectEv
libpqApplicationComponents.so.1:_ZNK32pqColorAnnotationsPropertyWidget11annotationsEv
libpqApplicationComponents.so.1:_ZNK32pqColorAnnotationsPropertyWidget13indexedColorsEv
libpqApplicationComponents.so.1:_ZNK32pqColorAnnotationsPropertyWidget14opacityMappingEv
libpqApplicationComponents.so.1:_ZNK32pqColorAnnotationsPropertyWidget16indexedOpacitiesEv
libpqApplicationComponents.so.1:_ZNK32pqGenericPropertyWidgetDecorator10metaObjectEv
libpqApplicationComponents.so.1:_ZNK32pqGenericPropertyWidgetDecorator12enableWidgetEv
libpqApplicationComponents.so.1:_ZNK32pqGenericPropertyWidgetDecorator13canShowWidgetEb
libpqApplicationComponents.so.1:_ZNK32pqGlyphScaleFactorPropertyWidget10metaObjectEv
libpqApplicationComponents.so.1:_ZNK33pqCatalystPauseSimulationReaction10metaObjectEv
libpqApplicationComponents.so.1:_ZNK33pqDoubleRangeSliderPropertyWidget10metaObjectEv
libpqApplicationComponents.so.1:_ZNK33pqLoadRestoreWindowLayoutReaction10metaObjectEv
libpqApplicationComponents.so.1:_ZNK33pqStandardPropertyWidgetInterface10metaObjectEv
libpqApplicationComponents.so.1:_ZNK33pqUseSeparateOpacityArrayReaction10metaObjectEv
libpqApplicationComponents.so.1:_ZNK33pqUseSeparateOpacityArrayReaction14representationEv
libpqApplicationComponents.so.1:_ZNK34pqCatalystRemoveBreakpointReaction10metaObjectEv
libpqApplicationComponents.so.1:_ZNK35pqCustomViewpointsDefaultController10metaObjectEv
libpqApplicationComponents.so.1:_ZNK35pqInteractivePropertyWidgetAbstract10dataBoundsEb
libpqApplicationComponents.so.1:_ZNK35pqInteractivePropertyWidgetAbstract10dataSourceEv
libpqApplicationComponents.so.1:_ZNK35pqInteractivePropertyWidgetAbstract10metaObjectEv
libpqApplicationComponents.so.1:_ZNK35pqInteractivePropertyWidgetAbstract13propertyGroupEv
libpqApplicationComponents.so.1:_ZNK35pqInteractivePropertyWidgetAbstract15isWidgetVisibleEv
libpqApplicationComponents.so.1:_ZNK35pqPersistentMainWindowStateBehavior10metaObjectEv
libpqApplicationComponents.so.1:_ZNK36pqOMETransferFunctionsPropertyWidget10metaObjectEv
libpqApplicationComponents.so.1:_ZNK37pqExampleVisualizationsDialogReaction10metaObjectEv
libpqApplicationComponents.so.1:_ZNK38pqTransferFunctionWidgetPropertyDialog10metaObjectEv
libpqApplicationComponents.so.1:_ZNK38pqTransferFunctionWidgetPropertyWidget10metaObjectEv
libpqApplicationComponents.so.1:_ZNK40pqStandardViewFrameActionsImplementation10metaObjectEv
libpqApplicationComponents.so.1:_ZNK41pqDisplaySizedImplicitPlanePropertyWidget10metaObjectEv
libpqApplicationComponents.so.1:_ZNK50pqStandardRecentlyUsedResourceLoaderImplementation10metaObjectEv
libpqApplicationComponents.so.1:_ZTI10pqReaction
libpqApplicationComponents.so.1:_ZTI11pqStatusBar
libpqApplicationComponents.so.1:_ZTI12pqVCRToolbar
libpqApplicationComponents.so.1:_ZTI13pqAxesToolbar
libpqApplicationComponents.so.1:_ZTI14pqColorToolbar
libpqApplicationComponents.so.1:_ZTI14pqCopyReaction
libpqApplicationComponents.so.1:_ZTI14pqHelpReaction
libpqApplicationComponents.so.1:_ZTI14pqLightToolbar
libpqApplicationComponents.so.1:_ZTI14pqTimelineView
libpqApplicationComponents.so.1:_ZTI15pqApplyBehavior
libpqApplicationComponents.so.1:_ZTI15pqCameraToolbar
libpqApplicationComponents.so.1:_ZTI15pqMacroReaction
libpqApplicationComponents.so.1:_ZTI15pqProxyCategory
libpqApplicationComponents.so.1:_ZTI15pqTimelineModel
libpqApplicationComponents.so.1:_ZTI15pqTraceReaction
libpqApplicationComponents.so.1:_ZTI15pqWelcomeDialog
libpqApplicationComponents.so.1:_ZTI16pqCameraReaction
libpqApplicationComponents.so.1:_ZTI16pqColorMapEditor
libpqApplicationComponents.so.1:_ZTI16pqDeleteReaction
libpqApplicationComponents.so.1:_ZTI16pqExportReaction
libpqApplicationComponents.so.1:_ZTI16pqFindDataWidget
libpqApplicationComponents.so.1:_ZTI16pqImportReaction
libpqApplicationComponents.so.1:_ZTI16pqTimelineWidget
libpqApplicationComponents.so.1:_ZTI17pqColorTableModel
libpqApplicationComponents.so.1:_ZTI17pqSelectionEditor
libpqApplicationComponents.so.1:_ZTI17pqTestingReaction
libpqApplicationComponents.so.1:_ZTI17pqTimelinePainter
libpqApplicationComponents.so.1:_ZTI17pqViewMenuManager
libpqApplicationComponents.so.1:_ZTI18pqAutoSaveBehavior
libpqApplicationComponents.so.1:_ZTI18pqBlockContextMenu
libpqApplicationComponents.so.1:_ZTI18pqEditMacrosDialog
libpqApplicationComponents.so.1:_ZTI18pqLoadDataReaction
libpqApplicationComponents.so.1:_ZTI18pqSaveDataReaction
libpqApplicationComponents.so.1:_ZTI18pqTimerLogReaction
libpqApplicationComponents.so.1:_ZTI18pqUndoRedoBehavior
libpqApplicationComponents.so.1:_ZTI18pqUndoRedoReaction
libpqApplicationComponents.so.1:_ZTI19pqAutoApplyReaction
libpqApplicationComponents.so.1:_ZTI19pqBoxPropertyWidget
libpqApplicationComponents.so.1:_ZTI19pqCheckableProperty
libpqApplicationComponents.so.1:_ZTI19pqDataQueryReaction
libpqApplicationComponents.so.1:_ZTI19pqDefaultMainWindow
libpqApplicationComponents.so.1:_ZTI19pqLoadStateReaction
libpqApplicationComponents.so.1:_ZTI19pqLogViewerReaction
libpqApplicationComponents.so.1:_ZTI19pqPVApplicationCore
libpqApplicationComponents.so.1:_ZTI19pqParaViewBehaviors
libpqApplicationComponents.so.1:_ZTI19pqSaveStateReaction
libpqApplicationComponents.so.1:_ZTI19pqSelectionReaction
libpqApplicationComponents.so.1:_ZTI19pqTimeManagerWidget
libpqApplicationComponents.so.1:_ZTI20pqCameraLinkReaction
libpqApplicationComponents.so.1:_ZTI20pqConePropertyWidget
libpqApplicationComponents.so.1:_ZTI20pqDefaultContextMenu
libpqApplicationComponents.so.1:_ZTI20pqEditCameraReaction
libpqApplicationComponents.so.1:_ZTI20pqEditMacrosReaction
libpqApplicationComponents.so.1:_ZTI20pqFontPropertyWidget
libpqApplicationComponents.so.1:_ZTI20pqLinePropertyWidget
libpqApplicationComponents.so.1:_ZTI20pqListPropertyWidget
libpqApplicationComponents.so.1:_ZTI20pqLiveSourceBehavior
libpqApplicationComponents.so.1:_ZTI20pqLockPanelsBehavior
libpqApplicationComponents.so.1:_ZTI20pqLockPanelsReaction
libpqApplicationComponents.so.1:_ZTI20pqMasterOnlyReaction
libpqApplicationComponents.so.1:_ZTI20pqPointPickingHelper
libpqApplicationComponents.so.1:_ZTI20pqPreviewMenuManager
libpqApplicationComponents.so.1:_ZTI20pqSearchItemReaction
libpqApplicationComponents.so.1:_ZTI20pqTextLocationWidget
libpqApplicationComponents.so.1:_ZTI21pqAboutDialogReaction
libpqApplicationComponents.so.1:_ZTI21pqAnglePropertyWidget
libpqApplicationComponents.so.1:_ZTI21pqDefaultViewBehavior
libpqApplicationComponents.so.1:_ZTI21pqFiltersMenuReaction
libpqApplicationComponents.so.1:_ZTI21pqLightPropertyWidget
libpqApplicationComponents.so.1:_ZTI21pqLoadPaletteReaction
libpqApplicationComponents.so.1:_ZTI21pqMainControlsToolbar
libpqApplicationComponents.so.1:_ZTI21pqManageLinksReaction
libpqApplicationComponents.so.1:_ZTI21pqReloadFilesReaction
libpqApplicationComponents.so.1:_ZTI21pqRenameProxyReaction
libpqApplicationComponents.so.1:_ZTI21pqShowHideAllReaction
libpqApplicationComponents.so.1:_ZTI21pqShowWidgetDecorator
libpqApplicationComponents.so.1:_ZTI21pqSourcesMenuReaction
libpqApplicationComponents.so.1:_ZTI22pqAnimationTimeToolbar
libpqApplicationComponents.so.1:_ZTI22pqDataTimeStepBehavior
libpqApplicationComponents.so.1:_ZTI22pqEditColorMapReaction
libpqApplicationComponents.so.1:_ZTI22pqHandlePropertyWidget
libpqApplicationComponents.so.1:_ZTI22pqProxyActionListModel
libpqApplicationComponents.so.1:_ZTI22pqSaveExtractsReaction
libpqApplicationComponents.so.1:_ZTI22pqSessionTypeDecorator
libpqApplicationComponents.so.1:_ZTI22pqSpherePropertyWidget
libpqApplicationComponents.so.1:_ZTI22pqSplinePropertyWidget
libpqApplicationComponents.so.1:_ZTI22pqTimelineItemDelegate
libpqApplicationComponents.so.1:_ZTI22pqUsageLoggingBehavior
libpqApplicationComponents.so.1:_ZTI23pqAnnulusPropertyWidget
libpqApplicationComponents.so.1:_ZTI23pqCollaborationBehavior
libpqApplicationComponents.so.1:_ZTI23pqCrashRecoveryBehavior
libpqApplicationComponents.so.1:_ZTI23pqEditScalarBarReaction
libpqApplicationComponents.so.1:_ZTI23pqEnableWidgetDecorator
libpqApplicationComponents.so.1:_ZTI23pqFrustumPropertyWidget
libpqApplicationComponents.so.1:_ZTI23pqImageCompressorWidget
libpqApplicationComponents.so.1:_ZTI23pqLanguageChooserWidget
libpqApplicationComponents.so.1:_ZTI23pqLinkSelectionReaction
libpqApplicationComponents.so.1:_ZTI23pqLoadMaterialsReaction
libpqApplicationComponents.so.1:_ZTI23pqManagePluginsReaction
libpqApplicationComponents.so.1:_ZTI23pqObjectPickingBehavior
libpqApplicationComponents.so.1:_ZTI23pqPluginToolBarBehavior
libpqApplicationComponents.so.1:_ZTI23pqProxyGroupMenuManager
libpqApplicationComponents.so.1:_ZTI23pqRepresentationToolbar
libpqApplicationComponents.so.1:_ZTI23pqSaveAnimationReaction
libpqApplicationComponents.so.1:_ZTI23pqServerConnectReaction
libpqApplicationComponents.so.1:_ZTI23pqViewStreamingBehavior
libpqApplicationComponents.so.1:_ZTI24pqAddToFavoritesReaction
libpqApplicationComponents.so.1:_ZTI24pqAnimatedExportReaction
libpqApplicationComponents.so.1:_ZTI24pqBackgroundEditorWidget
libpqApplicationComponents.so.1:_ZTI24pqCameraUndoRedoReaction
libpqApplicationComponents.so.1:_ZTI24pqCatalystExportReaction
libpqApplicationComponents.so.1:_ZTI24pqChangeFileNameReaction
libpqApplicationComponents.so.1:_ZTI24pqChartSelectionReaction
libpqApplicationComponents.so.1:_ZTI24pqColorAnnotationsWidget
libpqApplicationComponents.so.1:_ZTI24pqCustomShortcutBehavior
libpqApplicationComponents.so.1:_ZTI24pqCylinderPropertyWidget
libpqApplicationComponents.so.1:_ZTI24pqEqualizeLayoutReaction
libpqApplicationComponents.so.1:_ZTI24pqExtractorsMenuReaction
libpqApplicationComponents.so.1:_ZTI24pqFileListPropertyWidget
libpqApplicationComponents.so.1:_ZTI24pqFileNamePropertyWidget
libpqApplicationComponents.so.1:_ZTI24pqInputDataTypeDecorator
libpqApplicationComponents.so.1:_ZTI24pqMetaDataPropertyWidget
libpqApplicationComponents.so.1:_ZTI24pqPluginSettingsBehavior
libpqApplicationComponents.so.1:_ZTI24pqSaveScreenshotReaction
libpqApplicationComponents.so.1:_ZTI24pqTemporalExportReaction
libpqApplicationComponents.so.1:_ZTI24pqViewTypePropertyWidget
libpqApplicationComponents.so.1:_ZTI25pqAlwaysConnectedBehavior
libpqApplicationComponents.so.1:_ZTI25pqAnimationShortcutWidget
libpqApplicationComponents.so.1:_ZTI25pqApplyPropertiesReaction
libpqApplicationComponents.so.1:_ZTI25pqCameraManipulatorWidget
libpqApplicationComponents.so.1:_ZTI25pqCatalystConnectReaction
libpqApplicationComponents.so.1:_ZTI25pqCustomViewpointsToolbar
libpqApplicationComponents.so.1:_ZTI25pqDesktopServicesReaction
libpqApplicationComponents.so.1:_ZTI25pqEqualizerPropertyWidget
libpqApplicationComponents.so.1:_ZTI25pqFourLinesPropertyWidget
libpqApplicationComponents.so.1:_ZTI25pqMainWindowEventBehavior
libpqApplicationComponents.so.1:_ZTI26pqCatalystContinueReaction
libpqApplicationComponents.so.1:_ZTI26pqCategoryToolbarsBehavior
libpqApplicationComponents.so.1:_ZTI26pqColorOpacityEditorWidget
libpqApplicationComponents.so.1:_ZTI26pqIgnoreSourceTimeReaction
libpqApplicationComponents.so.1:_ZTI26pqPropertyCollectionWidget
libpqApplicationComponents.so.1:_ZTI26pqServerDisconnectReaction
libpqApplicationComponents.so.1:_ZTI26pqSpreadSheetViewDecorator
libpqApplicationComponents.so.1:_ZTI27pqAutoLoadPluginXMLBehavior
libpqApplicationComponents.so.1:_ZTI27pqChooseColorPresetReaction
libpqApplicationComponents.so.1:_ZTI27pqColorEditorPropertyWidget
libpqApplicationComponents.so.1:_ZTI27pqConfigureCategoriesDialog
libpqApplicationComponents.so.1:_ZTI27pqInteractivePropertyWidget
libpqApplicationComponents.so.1:_ZTI27pqManageExpressionsReaction
libpqApplicationComponents.so.1:_ZTI27pqPluginActionGroupBehavior
libpqApplicationComponents.so.1:_ZTI27pqPluginDockWidgetsBehavior
libpqApplicationComponents.so.1:_ZTI27pqQuickLaunchDialogExtended
libpqApplicationComponents.so.1:_ZTI27pqToggleInteractionViewMode
libpqApplicationComponents.so.1:_ZTI28pqAnimationShortcutDecorator
libpqApplicationComponents.so.1:_ZTI28pqCTHArraySelectionDecorator
libpqApplicationComponents.so.1:_ZTI28pqColorPaletteSelectorWidget
libpqApplicationComponents.so.1:_ZTI28pqCommandLineOptionsBehavior
libpqApplicationComponents.so.1:_ZTI28pqCreateCustomFilterReaction
libpqApplicationComponents.so.1:_ZTI28pqCustomViewpointsController
libpqApplicationComponents.so.1:_ZTI28pqCustomizeShortcutsReaction
libpqApplicationComponents.so.1:_ZTI28pqDataAssemblyPropertyWidget
libpqApplicationComponents.so.1:_ZTI28pqPythonScriptEditorReaction
libpqApplicationComponents.so.1:_ZTI28pqRescaleScalarRangeReaction
libpqApplicationComponents.so.1:_ZTI28pqSeriesEditorPropertyWidget
libpqApplicationComponents.so.1:_ZTI28pqSetMainWindowTitleReaction
libpqApplicationComponents.so.1:_ZTI29pqApplicationSettingsReaction
libpqApplicationComponents.so.1:_ZTI29pqBoolPropertyWidgetDecorator
libpqApplicationComponents.so.1:_ZTI29pqChangePipelineInputReaction
libpqApplicationComponents.so.1:_ZTI29pqColorSelectorPropertyWidget
libpqApplicationComponents.so.1:_ZTI29pqCommandButtonPropertyWidget
libpqApplicationComponents.so.1:_ZTI29pqConfigureCategoriesReaction
libpqApplicationComponents.so.1:_ZTI29pqExampleVisualizationsDialog
libpqApplicationComponents.so.1:_ZTI29pqImplicitPlanePropertyWidget
libpqApplicationComponents.so.1:_ZTI29pqInteractiveProperty2DWidget
libpqApplicationComponents.so.1:_ZTI29pqManageCustomFiltersReaction
libpqApplicationComponents.so.1:_ZTI29pqPipelineContextMenuBehavior
libpqApplicationComponents.so.1:_ZTI29pqPluginDocumentationBehavior
libpqApplicationComponents.so.1:_ZTI29pqRenderViewSelectionReaction
libpqApplicationComponents.so.1:_ZTI29pqScalarBarVisibilityReaction
libpqApplicationComponents.so.1:_ZTI29pqSelectionListPropertyWidget
libpqApplicationComponents.so.1:_ZTI29pqStreamingTestingEventPlayer
libpqApplicationComponents.so.1:_ZTI29pqUseSeparateColorMapReaction
libpqApplicationComponents.so.1:_ZTI30pqResetDefaultSettingsReaction
libpqApplicationComponents.so.1:_ZTI30pqSelectionQueryPropertyWidget
libpqApplicationComponents.so.1:_ZTI30pqVerifyRequiredPluginBehavior
libpqApplicationComponents.so.1:_ZTI30pqViewResolutionPropertyWidget
libpqApplicationComponents.so.1:_ZTI30pqYoungsMaterialPropertyWidget
libpqApplicationComponents.so.1:_ZTI31pqCatalystSetBreakpointReaction
libpqApplicationComponents.so.1:_ZTI31pqCoordinateFramePropertyWidget
libpqApplicationComponents.so.1:_ZTI31pqModelTransformSupportBehavior
libpqApplicationComponents.so.1:_ZTI31pqPauseLiveSourcePropertyWidget
libpqApplicationComponents.so.1:_ZTI31pqSaveAnimationGeometryReaction
libpqApplicationComponents.so.1:_ZTI31pqSpreadSheetVisibilityBehavior
libpqApplicationComponents.so.1:_ZTI31pqUse2DTransferFunctionReaction
libpqApplicationComponents.so.1:_ZTI32pqColorAnnotationsPropertyWidget
libpqApplicationComponents.so.1:_ZTI32pqGenericPropertyWidgetDecorator
libpqApplicationComponents.so.1:_ZTI32pqGlyphScaleFactorPropertyWidget
libpqApplicationComponents.so.1:_ZTI33pqCatalystPauseSimulationReaction
libpqApplicationComponents.so.1:_ZTI33pqDoubleRangeSliderPropertyWidget
libpqApplicationComponents.so.1:_ZTI33pqLoadRestoreWindowLayoutReaction
libpqApplicationComponents.so.1:_ZTI33pqStandardPropertyWidgetInterface
libpqApplicationComponents.so.1:_ZTI33pqUseSeparateOpacityArrayReaction
libpqApplicationComponents.so.1:_ZTI34pqCatalystRemoveBreakpointReaction
libpqApplicationComponents.so.1:_ZTI35pqCustomViewpointsDefaultController
libpqApplicationComponents.so.1:_ZTI35pqInteractivePropertyWidgetAbstract
libpqApplicationComponents.so.1:_ZTI35pqPersistentMainWindowStateBehavior
libpqApplicationComponents.so.1:_ZTI36pqOMETransferFunctionsPropertyWidget
libpqApplicationComponents.so.1:_ZTI37pqExampleVisualizationsDialogReaction
libpqApplicationComponents.so.1:_ZTI38pqTransferFunctionWidgetPropertyDialog
libpqApplicationComponents.so.1:_ZTI38pqTransferFunctionWidgetPropertyWidget
libpqApplicationComponents.so.1:_ZTI40pqStandardViewFrameActionsImplementation
libpqApplicationComponents.so.1:_ZTI41pqDisplaySizedImplicitPlanePropertyWidget
libpqApplicationComponents.so.1:_ZTI50pqStandardRecentlyUsedResourceLoaderImplementation
libpqApplicationComponents.so.1:_ZTS10pqReaction
libpqApplicationComponents.so.1:_ZTS11pqStatusBar
libpqApplicationComponents.so.1:_ZTS12pqVCRToolbar
libpqApplicationComponents.so.1:_ZTS13pqAxesToolbar
libpqApplicationComponents.so.1:_ZTS14pqColorToolbar
libpqApplicationComponents.so.1:_ZTS14pqCopyReaction
libpqApplicationComponents.so.1:_ZTS14pqHelpReaction
libpqApplicationComponents.so.1:_ZTS14pqLightToolbar
libpqApplicationComponents.so.1:_ZTS14pqTimelineView
libpqApplicationComponents.so.1:_ZTS15pqApplyBehavior
libpqApplicationComponents.so.1:_ZTS15pqCameraToolbar
libpqApplicationComponents.so.1:_ZTS15pqMacroReaction
libpqApplicationComponents.so.1:_ZTS15pqProxyCategory
libpqApplicationComponents.so.1:_ZTS15pqTimelineModel
libpqApplicationComponents.so.1:_ZTS15pqTraceReaction
libpqApplicationComponents.so.1:_ZTS15pqWelcomeDialog
libpqApplicationComponents.so.1:_ZTS16pqCameraReaction
libpqApplicationComponents.so.1:_ZTS16pqColorMapEditor
libpqApplicationComponents.so.1:_ZTS16pqDeleteReaction
libpqApplicationComponents.so.1:_ZTS16pqExportReaction
libpqApplicationComponents.so.1:_ZTS16pqFindDataWidget
libpqApplicationComponents.so.1:_ZTS16pqImportReaction
libpqApplicationComponents.so.1:_ZTS16pqTimelineWidget
libpqApplicationComponents.so.1:_ZTS17pqColorTableModel
libpqApplicationComponents.so.1:_ZTS17pqSelectionEditor
libpqApplicationComponents.so.1:_ZTS17pqTestingReaction
libpqApplicationComponents.so.1:_ZTS17pqTimelinePainter
libpqApplicationComponents.so.1:_ZTS17pqViewMenuManager
libpqApplicationComponents.so.1:_ZTS18pqAutoSaveBehavior
libpqApplicationComponents.so.1:_ZTS18pqBlockContextMenu
libpqApplicationComponents.so.1:_ZTS18pqEditMacrosDialog
libpqApplicationComponents.so.1:_ZTS18pqLoadDataReaction
libpqApplicationComponents.so.1:_ZTS18pqSaveDataReaction
libpqApplicationComponents.so.1:_ZTS18pqTimerLogReaction
libpqApplicationComponents.so.1:_ZTS18pqUndoRedoBehavior
libpqApplicationComponents.so.1:_ZTS18pqUndoRedoReaction
libpqApplicationComponents.so.1:_ZTS19pqAutoApplyReaction
libpqApplicationComponents.so.1:_ZTS19pqBoxPropertyWidget
libpqApplicationComponents.so.1:_ZTS19pqCheckableProperty
libpqApplicationComponents.so.1:_ZTS19pqDataQueryReaction
libpqApplicationComponents.so.1:_ZTS19pqDefaultMainWindow
libpqApplicationComponents.so.1:_ZTS19pqLoadStateReaction
libpqApplicationComponents.so.1:_ZTS19pqLogViewerReaction
libpqApplicationComponents.so.1:_ZTS19pqPVApplicationCore
libpqApplicationComponents.so.1:_ZTS19pqParaViewBehaviors
libpqApplicationComponents.so.1:_ZTS19pqSaveStateReaction
libpqApplicationComponents.so.1:_ZTS19pqSelectionReaction
libpqApplicationComponents.so.1:_ZTS19pqTimeManagerWidget
libpqApplicationComponents.so.1:_ZTS20pqCameraLinkReaction
libpqApplicationComponents.so.1:_ZTS20pqConePropertyWidget
libpqApplicationComponents.so.1:_ZTS20pqDefaultContextMenu
libpqApplicationComponents.so.1:_ZTS20pqEditCameraReaction
libpqApplicationComponents.so.1:_ZTS20pqEditMacrosReaction
libpqApplicationComponents.so.1:_ZTS20pqFontPropertyWidget
libpqApplicationComponents.so.1:_ZTS20pqLinePropertyWidget
libpqApplicationComponents.so.1:_ZTS20pqListPropertyWidget
libpqApplicationComponents.so.1:_ZTS20pqLiveSourceBehavior
libpqApplicationComponents.so.1:_ZTS20pqLockPanelsBehavior
libpqApplicationComponents.so.1:_ZTS20pqLockPanelsReaction
libpqApplicationComponents.so.1:_ZTS20pqMasterOnlyReaction
libpqApplicationComponents.so.1:_ZTS20pqPointPickingHelper
libpqApplicationComponents.so.1:_ZTS20pqPreviewMenuManager
libpqApplicationComponents.so.1:_ZTS20pqSearchItemReaction
libpqApplicationComponents.so.1:_ZTS20pqTextLocationWidget
libpqApplicationComponents.so.1:_ZTS21pqAboutDialogReaction
libpqApplicationComponents.so.1:_ZTS21pqAnglePropertyWidget
libpqApplicationComponents.so.1:_ZTS21pqDefaultViewBehavior
libpqApplicationComponents.so.1:_ZTS21pqFiltersMenuReaction
libpqApplicationComponents.so.1:_ZTS21pqLightPropertyWidget
libpqApplicationComponents.so.1:_ZTS21pqLoadPaletteReaction
libpqApplicationComponents.so.1:_ZTS21pqMainControlsToolbar
libpqApplicationComponents.so.1:_ZTS21pqManageLinksReaction
libpqApplicationComponents.so.1:_ZTS21pqReloadFilesReaction
libpqApplicationComponents.so.1:_ZTS21pqRenameProxyReaction
libpqApplicationComponents.so.1:_ZTS21pqShowHideAllReaction
libpqApplicationComponents.so.1:_ZTS21pqShowWidgetDecorator
libpqApplicationComponents.so.1:_ZTS21pqSourcesMenuReaction
libpqApplicationComponents.so.1:_ZTS22pqAnimationTimeToolbar
libpqApplicationComponents.so.1:_ZTS22pqDataTimeStepBehavior
libpqApplicationComponents.so.1:_ZTS22pqEditColorMapReaction
libpqApplicationComponents.so.1:_ZTS22pqHandlePropertyWidget
libpqApplicationComponents.so.1:_ZTS22pqProxyActionListModel
libpqApplicationComponents.so.1:_ZTS22pqSaveExtractsReaction
libpqApplicationComponents.so.1:_ZTS22pqSessionTypeDecorator
libpqApplicationComponents.so.1:_ZTS22pqSpherePropertyWidget
libpqApplicationComponents.so.1:_ZTS22pqSplinePropertyWidget
libpqApplicationComponents.so.1:_ZTS22pqTimelineItemDelegate
libpqApplicationComponents.so.1:_ZTS22pqUsageLoggingBehavior
libpqApplicationComponents.so.1:_ZTS23pqAnnulusPropertyWidget
libpqApplicationComponents.so.1:_ZTS23pqCollaborationBehavior
libpqApplicationComponents.so.1:_ZTS23pqCrashRecoveryBehavior
libpqApplicationComponents.so.1:_ZTS23pqEditScalarBarReaction
libpqApplicationComponents.so.1:_ZTS23pqEnableWidgetDecorator
libpqApplicationComponents.so.1:_ZTS23pqFrustumPropertyWidget
libpqApplicationComponents.so.1:_ZTS23pqImageCompressorWidget
libpqApplicationComponents.so.1:_ZTS23pqLanguageChooserWidget
libpqApplicationComponents.so.1:_ZTS23pqLinkSelectionReaction
libpqApplicationComponents.so.1:_ZTS23pqLoadMaterialsReaction
libpqApplicationComponents.so.1:_ZTS23pqManagePluginsReaction
libpqApplicationComponents.so.1:_ZTS23pqObjectPickingBehavior
libpqApplicationComponents.so.1:_ZTS23pqPluginToolBarBehavior
libpqApplicationComponents.so.1:_ZTS23pqProxyGroupMenuManager
libpqApplicationComponents.so.1:_ZTS23pqRepresentationToolbar
libpqApplicationComponents.so.1:_ZTS23pqSaveAnimationReaction
libpqApplicationComponents.so.1:_ZTS23pqServerConnectReaction
libpqApplicationComponents.so.1:_ZTS23pqViewStreamingBehavior
libpqApplicationComponents.so.1:_ZTS24pqAddToFavoritesReaction
libpqApplicationComponents.so.1:_ZTS24pqAnimatedExportReaction
libpqApplicationComponents.so.1:_ZTS24pqBackgroundEditorWidget
libpqApplicationComponents.so.1:_ZTS24pqCameraUndoRedoReaction
libpqApplicationComponents.so.1:_ZTS24pqCatalystExportReaction
libpqApplicationComponents.so.1:_ZTS24pqChangeFileNameReaction
libpqApplicationComponents.so.1:_ZTS24pqChartSelectionReaction
libpqApplicationComponents.so.1:_ZTS24pqColorAnnotationsWidget
libpqApplicationComponents.so.1:_ZTS24pqCustomShortcutBehavior
libpqApplicationComponents.so.1:_ZTS24pqCylinderPropertyWidget
libpqApplicationComponents.so.1:_ZTS24pqEqualizeLayoutReaction
libpqApplicationComponents.so.1:_ZTS24pqExtractorsMenuReaction
libpqApplicationComponents.so.1:_ZTS24pqFileListPropertyWidget
libpqApplicationComponents.so.1:_ZTS24pqFileNamePropertyWidget
libpqApplicationComponents.so.1:_ZTS24pqInputDataTypeDecorator
libpqApplicationComponents.so.1:_ZTS24pqMetaDataPropertyWidget
libpqApplicationComponents.so.1:_ZTS24pqPluginSettingsBehavior
libpqApplicationComponents.so.1:_ZTS24pqSaveScreenshotReaction
libpqApplicationComponents.so.1:_ZTS24pqTemporalExportReaction
libpqApplicationComponents.so.1:_ZTS24pqViewTypePropertyWidget
libpqApplicationComponents.so.1:_ZTS25pqAlwaysConnectedBehavior
libpqApplicationComponents.so.1:_ZTS25pqAnimationShortcutWidget
libpqApplicationComponents.so.1:_ZTS25pqApplyPropertiesReaction
libpqApplicationComponents.so.1:_ZTS25pqCameraManipulatorWidget
libpqApplicationComponents.so.1:_ZTS25pqCatalystConnectReaction
libpqApplicationComponents.so.1:_ZTS25pqCustomViewpointsToolbar
libpqApplicationComponents.so.1:_ZTS25pqDesktopServicesReaction
libpqApplicationComponents.so.1:_ZTS25pqEqualizerPropertyWidget
libpqApplicationComponents.so.1:_ZTS25pqFourLinesPropertyWidget
libpqApplicationComponents.so.1:_ZTS25pqMainWindowEventBehavior
libpqApplicationComponents.so.1:_ZTS26pqCatalystContinueReaction
libpqApplicationComponents.so.1:_ZTS26pqCategoryToolbarsBehavior
libpqApplicationComponents.so.1:_ZTS26pqColorOpacityEditorWidget
libpqApplicationComponents.so.1:_ZTS26pqIgnoreSourceTimeReaction
libpqApplicationComponents.so.1:_ZTS26pqPropertyCollectionWidget
libpqApplicationComponents.so.1:_ZTS26pqServerDisconnectReaction
libpqApplicationComponents.so.1:_ZTS26pqSpreadSheetViewDecorator
libpqApplicationComponents.so.1:_ZTS27pqAutoLoadPluginXMLBehavior
libpqApplicationComponents.so.1:_ZTS27pqChooseColorPresetReaction
libpqApplicationComponents.so.1:_ZTS27pqColorEditorPropertyWidget
libpqApplicationComponents.so.1:_ZTS27pqConfigureCategoriesDialog
libpqApplicationComponents.so.1:_ZTS27pqInteractivePropertyWidget
libpqApplicationComponents.so.1:_ZTS27pqManageExpressionsReaction
libpqApplicationComponents.so.1:_ZTS27pqPluginActionGroupBehavior
libpqApplicationComponents.so.1:_ZTS27pqPluginDockWidgetsBehavior
libpqApplicationComponents.so.1:_ZTS27pqQuickLaunchDialogExtended
libpqApplicationComponents.so.1:_ZTS27pqToggleInteractionViewMode
libpqApplicationComponents.so.1:_ZTS28pqAnimationShortcutDecorator
libpqApplicationComponents.so.1:_ZTS28pqCTHArraySelectionDecorator
libpqApplicationComponents.so.1:_ZTS28pqColorPaletteSelectorWidget
libpqApplicationComponents.so.1:_ZTS28pqCommandLineOptionsBehavior
libpqApplicationComponents.so.1:_ZTS28pqCreateCustomFilterReaction
libpqApplicationComponents.so.1:_ZTS28pqCustomViewpointsController
libpqApplicationComponents.so.1:_ZTS28pqCustomizeShortcutsReaction
libpqApplicationComponents.so.1:_ZTS28pqDataAssemblyPropertyWidget
libpqApplicationComponents.so.1:_ZTS28pqPythonScriptEditorReaction
libpqApplicationComponents.so.1:_ZTS28pqRescaleScalarRangeReaction
libpqApplicationComponents.so.1:_ZTS28pqSeriesEditorPropertyWidget
libpqApplicationComponents.so.1:_ZTS28pqSetMainWindowTitleReaction
libpqApplicationComponents.so.1:_ZTS29pqApplicationSettingsReaction
libpqApplicationComponents.so.1:_ZTS29pqBoolPropertyWidgetDecorator
libpqApplicationComponents.so.1:_ZTS29pqChangePipelineInputReaction
libpqApplicationComponents.so.1:_ZTS29pqColorSelectorPropertyWidget
libpqApplicationComponents.so.1:_ZTS29pqCommandButtonPropertyWidget
libpqApplicationComponents.so.1:_ZTS29pqConfigureCategoriesReaction
libpqApplicationComponents.so.1:_ZTS29pqExampleVisualizationsDialog
libpqApplicationComponents.so.1:_ZTS29pqImplicitPlanePropertyWidget
libpqApplicationComponents.so.1:_ZTS29pqInteractiveProperty2DWidget
libpqApplicationComponents.so.1:_ZTS29pqManageCustomFiltersReaction
libpqApplicationComponents.so.1:_ZTS29pqPipelineContextMenuBehavior
libpqApplicationComponents.so.1:_ZTS29pqPluginDocumentationBehavior
libpqApplicationComponents.so.1:_ZTS29pqRenderViewSelectionReaction
libpqApplicationComponents.so.1:_ZTS29pqScalarBarVisibilityReaction
libpqApplicationComponents.so.1:_ZTS29pqSelectionListPropertyWidget
libpqApplicationComponents.so.1:_ZTS29pqStreamingTestingEventPlayer
libpqApplicationComponents.so.1:_ZTS29pqUseSeparateColorMapReaction
libpqApplicationComponents.so.1:_ZTS30pqResetDefaultSettingsReaction
libpqApplicationComponents.so.1:_ZTS30pqSelectionQueryPropertyWidget
libpqApplicationComponents.so.1:_ZTS30pqVerifyRequiredPluginBehavior
libpqApplicationComponents.so.1:_ZTS30pqViewResolutionPropertyWidget
libpqApplicationComponents.so.1:_ZTS30pqYoungsMaterialPropertyWidget
libpqApplicationComponents.so.1:_ZTS31pqCatalystSetBreakpointReaction
libpqApplicationComponents.so.1:_ZTS31pqCoordinateFramePropertyWidget
libpqApplicationComponents.so.1:_ZTS31pqModelTransformSupportBehavior
libpqApplicationComponents.so.1:_ZTS31pqPauseLiveSourcePropertyWidget
libpqApplicationComponents.so.1:_ZTS31pqSaveAnimationGeometryReaction
libpqApplicationComponents.so.1:_ZTS31pqSpreadSheetVisibilityBehavior
libpqApplicationComponents.so.1:_ZTS31pqUse2DTransferFunctionReaction
libpqApplicationComponents.so.1:_ZTS32pqColorAnnotationsPropertyWidget
libpqApplicationComponents.so.1:_ZTS32pqGenericPropertyWidgetDecorator
libpqApplicationComponents.so.1:_ZTS32pqGlyphScaleFactorPropertyWidget
libpqApplicationComponents.so.1:_ZTS33pqCatalystPauseSimulationReaction
libpqApplicationComponents.so.1:_ZTS33pqDoubleRangeSliderPropertyWidget
libpqApplicationComponents.so.1:_ZTS33pqLoadRestoreWindowLayoutReaction
libpqApplicationComponents.so.1:_ZTS33pqStandardPropertyWidgetInterface
libpqApplicationComponents.so.1:_ZTS33pqUseSeparateOpacityArrayReaction
libpqApplicationComponents.so.1:_ZTS34pqCatalystRemoveBreakpointReaction
libpqApplicationComponents.so.1:_ZTS35pqCustomViewpointsDefaultController
libpqApplicationComponents.so.1:_ZTS35pqInteractivePropertyWidgetAbstract
libpqApplicationComponents.so.1:_ZTS35pqPersistentMainWindowStateBehavior
libpqApplicationComponents.so.1:_ZTS36pqOMETransferFunctionsPropertyWidget
libpqApplicationComponents.so.1:_ZTS37pqExampleVisualizationsDialogReaction
libpqApplicationComponents.so.1:_ZTS38pqTransferFunctionWidgetPropertyDialog
libpqApplicationComponents.so.1:_ZTS38pqTransferFunctionWidgetPropertyWidget
libpqApplicationComponents.so.1:_ZTS40pqStandardViewFrameActionsImplementation
libpqApplicationComponents.so.1:_ZTS41pqDisplaySizedImplicitPlanePropertyWidget
libpqApplicationComponents.so.1:_ZTS50pqStandardRecentlyUsedResourceLoaderImplementation
libpqApplicationComponents.so.1:_ZTV10pqReaction
libpqApplicationComponents.so.1:_ZTV11pqStatusBar
libpqApplicationComponents.so.1:_ZTV12pqVCRToolbar
libpqApplicationComponents.so.1:_ZTV13pqAxesToolbar
libpqApplicationComponents.so.1:_ZTV14pqColorToolbar
libpqApplicationComponents.so.1:_ZTV14pqCopyReaction
libpqApplicationComponents.so.1:_ZTV14pqHelpReaction
libpqApplicationComponents.so.1:_ZTV14pqLightToolbar
libpqApplicationComponents.so.1:_ZTV14pqTimelineView
libpqApplicationComponents.so.1:_ZTV15pqApplyBehavior
libpqApplicationComponents.so.1:_ZTV15pqCameraToolbar
libpqApplicationComponents.so.1:_ZTV15pqMacroReaction
libpqApplicationComponents.so.1:_ZTV15pqProxyCategory
libpqApplicationComponents.so.1:_ZTV15pqTimelineModel
libpqApplicationComponents.so.1:_ZTV15pqTraceReaction
libpqApplicationComponents.so.1:_ZTV15pqWelcomeDialog
libpqApplicationComponents.so.1:_ZTV16pqCameraReaction
libpqApplicationComponents.so.1:_ZTV16pqColorMapEditor
libpqApplicationComponents.so.1:_ZTV16pqDeleteReaction
libpqApplicationComponents.so.1:_ZTV16pqExportReaction
libpqApplicationComponents.so.1:_ZTV16pqFindDataWidget
libpqApplicationComponents.so.1:_ZTV16pqImportReaction
libpqApplicationComponents.so.1:_ZTV16pqTimelineWidget
libpqApplicationComponents.so.1:_ZTV17pqColorTableModel
libpqApplicationComponents.so.1:_ZTV17pqSelectionEditor
libpqApplicationComponents.so.1:_ZTV17pqTestingReaction
libpqApplicationComponents.so.1:_ZTV17pqTimelinePainter
libpqApplicationComponents.so.1:_ZTV17pqViewMenuManager
libpqApplicationComponents.so.1:_ZTV18pqAutoSaveBehavior
libpqApplicationComponents.so.1:_ZTV18pqBlockContextMenu
libpqApplicationComponents.so.1:_ZTV18pqEditMacrosDialog
libpqApplicationComponents.so.1:_ZTV18pqLoadDataReaction
libpqApplicationComponents.so.1:_ZTV18pqSaveDataReaction
libpqApplicationComponents.so.1:_ZTV18pqTimerLogReaction
libpqApplicationComponents.so.1:_ZTV18pqUndoRedoBehavior
libpqApplicationComponents.so.1:_ZTV18pqUndoRedoReaction
libpqApplicationComponents.so.1:_ZTV19pqAutoApplyReaction
libpqApplicationComponents.so.1:_ZTV19pqBoxPropertyWidget
libpqApplicationComponents.so.1:_ZTV19pqCheckableProperty
libpqApplicationComponents.so.1:_ZTV19pqDataQueryReaction
libpqApplicationComponents.so.1:_ZTV19pqDefaultMainWindow
libpqApplicationComponents.so.1:_ZTV19pqLoadStateReaction
libpqApplicationComponents.so.1:_ZTV19pqLogViewerReaction
libpqApplicationComponents.so.1:_ZTV19pqPVApplicationCore
libpqApplicationComponents.so.1:_ZTV19pqParaViewBehaviors
libpqApplicationComponents.so.1:_ZTV19pqSaveStateReaction
libpqApplicationComponents.so.1:_ZTV19pqSelectionReaction
libpqApplicationComponents.so.1:_ZTV19pqTimeManagerWidget
libpqApplicationComponents.so.1:_ZTV20pqCameraLinkReaction
libpqApplicationComponents.so.1:_ZTV20pqConePropertyWidget
libpqApplicationComponents.so.1:_ZTV20pqDefaultContextMenu
libpqApplicationComponents.so.1:_ZTV20pqEditCameraReaction
libpqApplicationComponents.so.1:_ZTV20pqEditMacrosReaction
libpqApplicationComponents.so.1:_ZTV20pqFontPropertyWidget
libpqApplicationComponents.so.1:_ZTV20pqLinePropertyWidget
libpqApplicationComponents.so.1:_ZTV20pqListPropertyWidget
libpqApplicationComponents.so.1:_ZTV20pqLiveSourceBehavior
libpqApplicationComponents.so.1:_ZTV20pqLockPanelsBehavior
libpqApplicationComponents.so.1:_ZTV20pqLockPanelsReaction
libpqApplicationComponents.so.1:_ZTV20pqMasterOnlyReaction
libpqApplicationComponents.so.1:_ZTV20pqPointPickingHelper
libpqApplicationComponents.so.1:_ZTV20pqPreviewMenuManager
libpqApplicationComponents.so.1:_ZTV20pqSearchItemReaction
libpqApplicationComponents.so.1:_ZTV20pqTextLocationWidget
libpqApplicationComponents.so.1:_ZTV21pqAboutDialogReaction
libpqApplicationComponents.so.1:_ZTV21pqAnglePropertyWidget
libpqApplicationComponents.so.1:_ZTV21pqDefaultViewBehavior
libpqApplicationComponents.so.1:_ZTV21pqFiltersMenuReaction
libpqApplicationComponents.so.1:_ZTV21pqLightPropertyWidget
libpqApplicationComponents.so.1:_ZTV21pqLoadPaletteReaction
libpqApplicationComponents.so.1:_ZTV21pqMainControlsToolbar
libpqApplicationComponents.so.1:_ZTV21pqManageLinksReaction
libpqApplicationComponents.so.1:_ZTV21pqReloadFilesReaction
libpqApplicationComponents.so.1:_ZTV21pqRenameProxyReaction
libpqApplicationComponents.so.1:_ZTV21pqShowHideAllReaction
libpqApplicationComponents.so.1:_ZTV21pqShowWidgetDecorator
libpqApplicationComponents.so.1:_ZTV21pqSourcesMenuReaction
libpqApplicationComponents.so.1:_ZTV22pqAnimationTimeToolbar
libpqApplicationComponents.so.1:_ZTV22pqDataTimeStepBehavior
libpqApplicationComponents.so.1:_ZTV22pqEditColorMapReaction
libpqApplicationComponents.so.1:_ZTV22pqHandlePropertyWidget
libpqApplicationComponents.so.1:_ZTV22pqProxyActionListModel
libpqApplicationComponents.so.1:_ZTV22pqSaveExtractsReaction
libpqApplicationComponents.so.1:_ZTV22pqSessionTypeDecorator
libpqApplicationComponents.so.1:_ZTV22pqSpherePropertyWidget
libpqApplicationComponents.so.1:_ZTV22pqSplinePropertyWidget
libpqApplicationComponents.so.1:_ZTV22pqTimelineItemDelegate
libpqApplicationComponents.so.1:_ZTV22pqUsageLoggingBehavior
libpqApplicationComponents.so.1:_ZTV23pqAnnulusPropertyWidget
libpqApplicationComponents.so.1:_ZTV23pqCollaborationBehavior
libpqApplicationComponents.so.1:_ZTV23pqCrashRecoveryBehavior
libpqApplicationComponents.so.1:_ZTV23pqEditScalarBarReaction
libpqApplicationComponents.so.1:_ZTV23pqEnableWidgetDecorator
libpqApplicationComponents.so.1:_ZTV23pqFrustumPropertyWidget
libpqApplicationComponents.so.1:_ZTV23pqImageCompressorWidget
libpqApplicationComponents.so.1:_ZTV23pqLanguageChooserWidget
libpqApplicationComponents.so.1:_ZTV23pqLinkSelectionReaction
libpqApplicationComponents.so.1:_ZTV23pqLoadMaterialsReaction
libpqApplicationComponents.so.1:_ZTV23pqManagePluginsReaction
libpqApplicationComponents.so.1:_ZTV23pqObjectPickingBehavior
libpqApplicationComponents.so.1:_ZTV23pqPluginToolBarBehavior
libpqApplicationComponents.so.1:_ZTV23pqProxyGroupMenuManager
libpqApplicationComponents.so.1:_ZTV23pqRepresentationToolbar
libpqApplicationComponents.so.1:_ZTV23pqSaveAnimationReaction
libpqApplicationComponents.so.1:_ZTV23pqServerConnectReaction
libpqApplicationComponents.so.1:_ZTV23pqViewStreamingBehavior
libpqApplicationComponents.so.1:_ZTV24pqAddToFavoritesReaction
libpqApplicationComponents.so.1:_ZTV24pqAnimatedExportReaction
libpqApplicationComponents.so.1:_ZTV24pqBackgroundEditorWidget
libpqApplicationComponents.so.1:_ZTV24pqCameraUndoRedoReaction
libpqApplicationComponents.so.1:_ZTV24pqCatalystExportReaction
libpqApplicationComponents.so.1:_ZTV24pqChangeFileNameReaction
libpqApplicationComponents.so.1:_ZTV24pqChartSelectionReaction
libpqApplicationComponents.so.1:_ZTV24pqColorAnnotationsWidget
libpqApplicationComponents.so.1:_ZTV24pqCustomShortcutBehavior
libpqApplicationComponents.so.1:_ZTV24pqCylinderPropertyWidget
libpqApplicationComponents.so.1:_ZTV24pqEqualizeLayoutReaction
libpqApplicationComponents.so.1:_ZTV24pqExtractorsMenuReaction
libpqApplicationComponents.so.1:_ZTV24pqFileListPropertyWidget
libpqApplicationComponents.so.1:_ZTV24pqFileNamePropertyWidget
libpqApplicationComponents.so.1:_ZTV24pqInputDataTypeDecorator
libpqApplicationComponents.so.1:_ZTV24pqMetaDataPropertyWidget
libpqApplicationComponents.so.1:_ZTV24pqPluginSettingsBehavior
libpqApplicationComponents.so.1:_ZTV24pqSaveScreenshotReaction
libpqApplicationComponents.so.1:_ZTV24pqTemporalExportReaction
libpqApplicationComponents.so.1:_ZTV24pqViewTypePropertyWidget
libpqApplicationComponents.so.1:_ZTV25pqAlwaysConnectedBehavior
libpqApplicationComponents.so.1:_ZTV25pqAnimationShortcutWidget
libpqApplicationComponents.so.1:_ZTV25pqApplyPropertiesReaction
libpqApplicationComponents.so.1:_ZTV25pqCameraManipulatorWidget
libpqApplicationComponents.so.1:_ZTV25pqCatalystConnectReaction
libpqApplicationComponents.so.1:_ZTV25pqCustomViewpointsToolbar
libpqApplicationComponents.so.1:_ZTV25pqDesktopServicesReaction
libpqApplicationComponents.so.1:_ZTV25pqEqualizerPropertyWidget
libpqApplicationComponents.so.1:_ZTV25pqFourLinesPropertyWidget
libpqApplicationComponents.so.1:_ZTV25pqMainWindowEventBehavior
libpqApplicationComponents.so.1:_ZTV26pqCatalystContinueReaction
libpqApplicationComponents.so.1:_ZTV26pqCategoryToolbarsBehavior
libpqApplicationComponents.so.1:_ZTV26pqColorOpacityEditorWidget
libpqApplicationComponents.so.1:_ZTV26pqIgnoreSourceTimeReaction
libpqApplicationComponents.so.1:_ZTV26pqPropertyCollectionWidget
libpqApplicationComponents.so.1:_ZTV26pqServerDisconnectReaction
libpqApplicationComponents.so.1:_ZTV26pqSpreadSheetViewDecorator
libpqApplicationComponents.so.1:_ZTV27pqAutoLoadPluginXMLBehavior
libpqApplicationComponents.so.1:_ZTV27pqChooseColorPresetReaction
libpqApplicationComponents.so.1:_ZTV27pqColorEditorPropertyWidget
libpqApplicationComponents.so.1:_ZTV27pqConfigureCategoriesDialog
libpqApplicationComponents.so.1:_ZTV27pqInteractivePropertyWidget
libpqApplicationComponents.so.1:_ZTV27pqManageExpressionsReaction
libpqApplicationComponents.so.1:_ZTV27pqPluginActionGroupBehavior
libpqApplicationComponents.so.1:_ZTV27pqPluginDockWidgetsBehavior
libpqApplicationComponents.so.1:_ZTV27pqQuickLaunchDialogExtended
libpqApplicationComponents.so.1:_ZTV27pqToggleInteractionViewMode
libpqApplicationComponents.so.1:_ZTV28pqAnimationShortcutDecorator
libpqApplicationComponents.so.1:_ZTV28pqCTHArraySelectionDecorator
libpqApplicationComponents.so.1:_ZTV28pqColorPaletteSelectorWidget
libpqApplicationComponents.so.1:_ZTV28pqCommandLineOptionsBehavior
libpqApplicationComponents.so.1:_ZTV28pqCreateCustomFilterReaction
libpqApplicationComponents.so.1:_ZTV28pqCustomViewpointsController
libpqApplicationComponents.so.1:_ZTV28pqCustomizeShortcutsReaction
libpqApplicationComponents.so.1:_ZTV28pqDataAssemblyPropertyWidget
libpqApplicationComponents.so.1:_ZTV28pqPythonScriptEditorReaction
libpqApplicationComponents.so.1:_ZTV28pqRescaleScalarRangeReaction
libpqApplicationComponents.so.1:_ZTV28pqSeriesEditorPropertyWidget
libpqApplicationComponents.so.1:_ZTV28pqSetMainWindowTitleReaction
libpqApplicationComponents.so.1:_ZTV29pqApplicationSettingsReaction
libpqApplicationComponents.so.1:_ZTV29pqBoolPropertyWidgetDecorator
libpqApplicationComponents.so.1:_ZTV29pqChangePipelineInputReaction
libpqApplicationComponents.so.1:_ZTV29pqColorSelectorPropertyWidget
libpqApplicationComponents.so.1:_ZTV29pqCommandButtonPropertyWidget
libpqApplicationComponents.so.1:_ZTV29pqConfigureCategoriesReaction
libpqApplicationComponents.so.1:_ZTV29pqExampleVisualizationsDialog
libpqApplicationComponents.so.1:_ZTV29pqImplicitPlanePropertyWidget
libpqApplicationComponents.so.1:_ZTV29pqInteractiveProperty2DWidget
libpqApplicationComponents.so.1:_ZTV29pqManageCustomFiltersReaction
libpqApplicationComponents.so.1:_ZTV29pqPipelineContextMenuBehavior
libpqApplicationComponents.so.1:_ZTV29pqPluginDocumentationBehavior
libpqApplicationComponents.so.1:_ZTV29pqRenderViewSelectionReaction
libpqApplicationComponents.so.1:_ZTV29pqScalarBarVisibilityReaction
libpqApplicationComponents.so.1:_ZTV29pqSelectionListPropertyWidget
libpqApplicationComponents.so.1:_ZTV29pqStreamingTestingEventPlayer
libpqApplicationComponents.so.1:_ZTV29pqUseSeparateColorMapReaction
libpqApplicationComponents.so.1:_ZTV30pqResetDefaultSettingsReaction
libpqApplicationComponents.so.1:_ZTV30pqSelectionQueryPropertyWidget
libpqApplicationComponents.so.1:_ZTV30pqVerifyRequiredPluginBehavior
libpqApplicationComponents.so.1:_ZTV30pqViewResolutionPropertyWidget
libpqApplicationComponents.so.1:_ZTV30pqYoungsMaterialPropertyWidget
libpqApplicationComponents.so.1:_ZTV31pqCatalystSetBreakpointReaction
libpqApplicationComponents.so.1:_ZTV31pqCoordinateFramePropertyWidget
libpqApplicationComponents.so.1:_ZTV31pqModelTransformSupportBehavior
libpqApplicationComponents.so.1:_ZTV31pqPauseLiveSourcePropertyWidget
libpqApplicationComponents.so.1:_ZTV31pqSaveAnimationGeometryReaction
libpqApplicationComponents.so.1:_ZTV31pqSpreadSheetVisibilityBehavior
libpqApplicationComponents.so.1:_ZTV31pqUse2DTransferFunctionReaction
libpqApplicationComponents.so.1:_ZTV32pqColorAnnotationsPropertyWidget
libpqApplicationComponents.so.1:_ZTV32pqGenericPropertyWidgetDecorator
libpqApplicationComponents.so.1:_ZTV32pqGlyphScaleFactorPropertyWidget
libpqApplicationComponents.so.1:_ZTV33pqCatalystPauseSimulationReaction
libpqApplicationComponents.so.1:_ZTV33pqDoubleRangeSliderPropertyWidget
libpqApplicationComponents.so.1:_ZTV33pqLoadRestoreWindowLayoutReaction
libpqApplicationComponents.so.1:_ZTV33pqStandardPropertyWidgetInterface
libpqApplicationComponents.so.1:_ZTV33pqUseSeparateOpacityArrayReaction
libpqApplicationComponents.so.1:_ZTV34pqCatalystRemoveBreakpointReaction
libpqApplicationComponents.so.1:_ZTV35pqCustomViewpointsDefaultController
libpqApplicationComponents.so.1:_ZTV35pqInteractivePropertyWidgetAbstract
libpqApplicationComponents.so.1:_ZTV35pqPersistentMainWindowStateBehavior
libpqApplicationComponents.so.1:_ZTV36pqOMETransferFunctionsPropertyWidget
libpqApplicationComponents.so.1:_ZTV37pqExampleVisualizationsDialogReaction
libpqApplicationComponents.so.1:_ZTV38pqTransferFunctionWidgetPropertyDialog
libpqApplicationComponents.so.1:_ZTV38pqTransferFunctionWidgetPropertyWidget
libpqApplicationComponents.so.1:_ZTV40pqStandardViewFrameActionsImplementation
libpqApplicationComponents.so.1:_ZTV41pqDisplaySizedImplicitPlanePropertyWidget
libpqApplicationComponents.so.1:_ZTV50pqStandardRecentlyUsedResourceLoaderImplementation
libpqApplicationComponents.so.1:_ZThn16_N11pqStatusBarD0Ev
libpqApplicationComponents.so.1:_ZThn16_N11pqStatusBarD1Ev
libpqApplicationComponents.so.1:_ZThn16_N12pqVCRToolbarD0Ev
libpqApplicationComponents.so.1:_ZThn16_N12pqVCRToolbarD1Ev
libpqApplicationComponents.so.1:_ZThn16_N13pqAxesToolbarD0Ev
libpqApplicationComponents.so.1:_ZThn16_N13pqAxesToolbarD1Ev
libpqApplicationComponents.so.1:_ZThn16_N14pqLightToolbarD0Ev
libpqApplicationComponents.so.1:_ZThn16_N14pqLightToolbarD1Ev
libpqApplicationComponents.so.1:_ZThn16_N14pqTimelineViewD0Ev
libpqApplicationComponents.so.1:_ZThn16_N14pqTimelineViewD1Ev
libpqApplicationComponents.so.1:_ZThn16_N15pqWelcomeDialogD0Ev
libpqApplicationComponents.so.1:_ZThn16_N15pqWelcomeDialogD1Ev
libpqApplicationComponents.so.1:_ZThn16_N16pqColorMapEditorD0Ev
libpqApplicationComponents.so.1:_ZThn16_N16pqColorMapEditorD1Ev
libpqApplicationComponents.so.1:_ZThn16_N16pqFindDataWidgetD0Ev
libpqApplicationComponents.so.1:_ZThn16_N16pqFindDataWidgetD1Ev
libpqApplicationComponents.so.1:_ZThn16_N16pqTimelineWidgetD0Ev
libpqApplicationComponents.so.1:_ZThn16_N16pqTimelineWidgetD1Ev
libpqApplicationComponents.so.1:_ZThn16_N17pqSelectionEditorD0Ev
libpqApplicationComponents.so.1:_ZThn16_N17pqSelectionEditorD1Ev
libpqApplicationComponents.so.1:_ZThn16_N18pqBlockContextMenuD0Ev
libpqApplicationComponents.so.1:_ZThn16_N18pqBlockContextMenuD1Ev
libpqApplicationComponents.so.1:_ZThn16_N18pqEditMacrosDialogD0Ev
libpqApplicationComponents.so.1:_ZThn16_N18pqEditMacrosDialogD1Ev
libpqApplicationComponents.so.1:_ZThn16_N19pqBoxPropertyWidgetD0Ev
libpqApplicationComponents.so.1:_ZThn16_N19pqBoxPropertyWidgetD1Ev
libpqApplicationComponents.so.1:_ZThn16_N19pqCheckablePropertyD0Ev
libpqApplicationComponents.so.1:_ZThn16_N19pqCheckablePropertyD1Ev
libpqApplicationComponents.so.1:_ZThn16_N19pqDefaultMainWindowD0Ev
libpqApplicationComponents.so.1:_ZThn16_N19pqDefaultMainWindowD1Ev
libpqApplicationComponents.so.1:_ZThn16_N19pqTimeManagerWidgetD0Ev
libpqApplicationComponents.so.1:_ZThn16_N19pqTimeManagerWidgetD1Ev
libpqApplicationComponents.so.1:_ZThn16_N20pqDefaultContextMenuD0Ev
libpqApplicationComponents.so.1:_ZThn16_N20pqDefaultContextMenuD1Ev
libpqApplicationComponents.so.1:_ZThn16_N20pqFontPropertyWidgetD0Ev
libpqApplicationComponents.so.1:_ZThn16_N20pqFontPropertyWidgetD1Ev
libpqApplicationComponents.so.1:_ZThn16_N20pqLinePropertyWidgetD0Ev
libpqApplicationComponents.so.1:_ZThn16_N20pqLinePropertyWidgetD1Ev
libpqApplicationComponents.so.1:_ZThn16_N20pqListPropertyWidgetD0Ev
libpqApplicationComponents.so.1:_ZThn16_N20pqListPropertyWidgetD1Ev
libpqApplicationComponents.so.1:_ZThn16_N20pqTextLocationWidgetD0Ev
libpqApplicationComponents.so.1:_ZThn16_N20pqTextLocationWidgetD1Ev
libpqApplicationComponents.so.1:_ZThn16_N21pqAnglePropertyWidgetD0Ev
libpqApplicationComponents.so.1:_ZThn16_N21pqAnglePropertyWidgetD1Ev
libpqApplicationComponents.so.1:_ZThn16_N21pqLightPropertyWidgetD0Ev
libpqApplicationComponents.so.1:_ZThn16_N21pqLightPropertyWidgetD1Ev
libpqApplicationComponents.so.1:_ZThn16_N22pqHandlePropertyWidgetD0Ev
libpqApplicationComponents.so.1:_ZThn16_N22pqHandlePropertyWidgetD1Ev
libpqApplicationComponents.so.1:_ZThn16_N22pqSpherePropertyWidgetD0Ev
libpqApplicationComponents.so.1:_ZThn16_N22pqSpherePropertyWidgetD1Ev
libpqApplicationComponents.so.1:_ZThn16_N22pqSplinePropertyWidgetD0Ev
libpqApplicationComponents.so.1:_ZThn16_N22pqSplinePropertyWidgetD1Ev
libpqApplicationComponents.so.1:_ZThn16_N23pqImageCompressorWidgetD0Ev
libpqApplicationComponents.so.1:_ZThn16_N23pqImageCompressorWidgetD1Ev
libpqApplicationComponents.so.1:_ZThn16_N23pqLanguageChooserWidgetD0Ev
libpqApplicationComponents.so.1:_ZThn16_N23pqLanguageChooserWidgetD1Ev
libpqApplicationComponents.so.1:_ZThn16_N24pqBackgroundEditorWidgetD0Ev
libpqApplicationComponents.so.1:_ZThn16_N24pqBackgroundEditorWidgetD1Ev
libpqApplicationComponents.so.1:_ZThn16_N24pqColorAnnotationsWidgetD0Ev
libpqApplicationComponents.so.1:_ZThn16_N24pqColorAnnotationsWidgetD1Ev
libpqApplicationComponents.so.1:_ZThn16_N24pqCylinderPropertyWidgetD0Ev
libpqApplicationComponents.so.1:_ZThn16_N24pqCylinderPropertyWidgetD1Ev
libpqApplicationComponents.so.1:_ZThn16_N24pqFileListPropertyWidgetD0Ev
libpqApplicationComponents.so.1:_ZThn16_N24pqFileListPropertyWidgetD1Ev
libpqApplicationComponents.so.1:_ZThn16_N24pqFileNamePropertyWidgetD0Ev
libpqApplicationComponents.so.1:_ZThn16_N24pqFileNamePropertyWidgetD1Ev
libpqApplicationComponents.so.1:_ZThn16_N24pqMetaDataPropertyWidgetD0Ev
libpqApplicationComponents.so.1:_ZThn16_N24pqMetaDataPropertyWidgetD1Ev
libpqApplicationComponents.so.1:_ZThn16_N24pqViewTypePropertyWidgetD0Ev
libpqApplicationComponents.so.1:_ZThn16_N24pqViewTypePropertyWidgetD1Ev
libpqApplicationComponents.so.1:_ZThn16_N25pqAnimationShortcutWidgetD0Ev
libpqApplicationComponents.so.1:_ZThn16_N25pqAnimationShortcutWidgetD1Ev
libpqApplicationComponents.so.1:_ZThn16_N25pqCameraManipulatorWidgetD0Ev
libpqApplicationComponents.so.1:_ZThn16_N25pqCameraManipulatorWidgetD1Ev
libpqApplicationComponents.so.1:_ZThn16_N25pqEqualizerPropertyWidgetD0Ev
libpqApplicationComponents.so.1:_ZThn16_N25pqEqualizerPropertyWidgetD1Ev
libpqApplicationComponents.so.1:_ZThn16_N25pqFourLinesPropertyWidgetD0Ev
libpqApplicationComponents.so.1:_ZThn16_N25pqFourLinesPropertyWidgetD1Ev
libpqApplicationComponents.so.1:_ZThn16_N26pqColorOpacityEditorWidgetD0Ev
libpqApplicationComponents.so.1:_ZThn16_N26pqColorOpacityEditorWidgetD1Ev
libpqApplicationComponents.so.1:_ZThn16_N26pqPropertyCollectionWidgetD0Ev
libpqApplicationComponents.so.1:_ZThn16_N26pqPropertyCollectionWidgetD1Ev
libpqApplicationComponents.so.1:_ZThn16_N27pqColorEditorPropertyWidgetD0Ev
libpqApplicationComponents.so.1:_ZThn16_N27pqColorEditorPropertyWidgetD1Ev
libpqApplicationComponents.so.1:_ZThn16_N27pqConfigureCategoriesDialogD0Ev
libpqApplicationComponents.so.1:_ZThn16_N27pqConfigureCategoriesDialogD1Ev
libpqApplicationComponents.so.1:_ZThn16_N27pqInteractivePropertyWidgetD0Ev
libpqApplicationComponents.so.1:_ZThn16_N27pqInteractivePropertyWidgetD1Ev
libpqApplicationComponents.so.1:_ZThn16_N27pqQuickLaunchDialogExtendedD0Ev
libpqApplicationComponents.so.1:_ZThn16_N27pqQuickLaunchDialogExtendedD1Ev
libpqApplicationComponents.so.1:_ZThn16_N28pqColorPaletteSelectorWidgetD0Ev
libpqApplicationComponents.so.1:_ZThn16_N28pqColorPaletteSelectorWidgetD1Ev
libpqApplicationComponents.so.1:_ZThn16_N28pqDataAssemblyPropertyWidgetD0Ev
libpqApplicationComponents.so.1:_ZThn16_N28pqDataAssemblyPropertyWidgetD1Ev
libpqApplicationComponents.so.1:_ZThn16_N28pqSeriesEditorPropertyWidgetD0Ev
libpqApplicationComponents.so.1:_ZThn16_N28pqSeriesEditorPropertyWidgetD1Ev
libpqApplicationComponents.so.1:_ZThn16_N29pqColorSelectorPropertyWidgetD0Ev
libpqApplicationComponents.so.1:_ZThn16_N29pqColorSelectorPropertyWidgetD1Ev
libpqApplicationComponents.so.1:_ZThn16_N29pqCommandButtonPropertyWidgetD0Ev
libpqApplicationComponents.so.1:_ZThn16_N29pqCommandButtonPropertyWidgetD1Ev
libpqApplicationComponents.so.1:_ZThn16_N29pqExampleVisualizationsDialogD0Ev
libpqApplicationComponents.so.1:_ZThn16_N29pqExampleVisualizationsDialogD1Ev
libpqApplicationComponents.so.1:_ZThn16_N29pqImplicitPlanePropertyWidgetD0Ev
libpqApplicationComponents.so.1:_ZThn16_N29pqImplicitPlanePropertyWidgetD1Ev
libpqApplicationComponents.so.1:_ZThn16_N29pqInteractiveProperty2DWidgetD0Ev
libpqApplicationComponents.so.1:_ZThn16_N29pqInteractiveProperty2DWidgetD1Ev
libpqApplicationComponents.so.1:_ZThn16_N29pqSelectionListPropertyWidgetD0Ev
libpqApplicationComponents.so.1:_ZThn16_N29pqSelectionListPropertyWidgetD1Ev
libpqApplicationComponents.so.1:_ZThn16_N30pqSelectionQueryPropertyWidgetD0Ev
libpqApplicationComponents.so.1:_ZThn16_N30pqSelectionQueryPropertyWidgetD1Ev
libpqApplicationComponents.so.1:_ZThn16_N30pqViewResolutionPropertyWidgetD0Ev
libpqApplicationComponents.so.1:_ZThn16_N30pqViewResolutionPropertyWidgetD1Ev
libpqApplicationComponents.so.1:_ZThn16_N30pqYoungsMaterialPropertyWidgetD0Ev
libpqApplicationComponents.so.1:_ZThn16_N30pqYoungsMaterialPropertyWidgetD1Ev
libpqApplicationComponents.so.1:_ZThn16_N31pqCoordinateFramePropertyWidgetD0Ev
libpqApplicationComponents.so.1:_ZThn16_N31pqCoordinateFramePropertyWidgetD1Ev
libpqApplicationComponents.so.1:_ZThn16_N31pqPauseLiveSourcePropertyWidgetD0Ev
libpqApplicationComponents.so.1:_ZThn16_N31pqPauseLiveSourcePropertyWidgetD1Ev
libpqApplicationComponents.so.1:_ZThn16_N32pqColorAnnotationsPropertyWidgetD0Ev
libpqApplicationComponents.so.1:_ZThn16_N32pqColorAnnotationsPropertyWidgetD1Ev
libpqApplicationComponents.so.1:_ZThn16_N32pqGlyphScaleFactorPropertyWidgetD0Ev
libpqApplicationComponents.so.1:_ZThn16_N32pqGlyphScaleFactorPropertyWidgetD1Ev
libpqApplicationComponents.so.1:_ZThn16_N33pqDoubleRangeSliderPropertyWidgetD0Ev
libpqApplicationComponents.so.1:_ZThn16_N33pqDoubleRangeSliderPropertyWidgetD1Ev
libpqApplicationComponents.so.1:_ZThn16_N33pqStandardPropertyWidgetInterface21createWidgetDecoratorERK7QStringP15vtkPVXMLElementP16pqPropertyWidget
libpqApplicationComponents.so.1:_ZThn16_N33pqStandardPropertyWidgetInterface23createWidgetForPropertyEP10vtkSMProxyP13vtkSMPropertyP7QWidget
libpqApplicationComponents.so.1:_ZThn16_N33pqStandardPropertyWidgetInterface28createWidgetForPropertyGroupEP10vtkSMProxyP18vtkSMPropertyGroupP7QWidget
libpqApplicationComponents.so.1:_ZThn16_N33pqStandardPropertyWidgetInterface29createDefaultWidgetDecoratorsEP16pqPropertyWidget
libpqApplicationComponents.so.1:_ZThn16_N33pqStandardPropertyWidgetInterfaceD0Ev
libpqApplicationComponents.so.1:_ZThn16_N33pqStandardPropertyWidgetInterfaceD1Ev
libpqApplicationComponents.so.1:_ZThn16_N35pqInteractivePropertyWidgetAbstractD0Ev
libpqApplicationComponents.so.1:_ZThn16_N35pqInteractivePropertyWidgetAbstractD1Ev
libpqApplicationComponents.so.1:_ZThn16_N36pqOMETransferFunctionsPropertyWidgetD0Ev
libpqApplicationComponents.so.1:_ZThn16_N36pqOMETransferFunctionsPropertyWidgetD1Ev
libpqApplicationComponents.so.1:_ZThn16_N38pqTransferFunctionWidgetPropertyDialogD0Ev
libpqApplicationComponents.so.1:_ZThn16_N38pqTransferFunctionWidgetPropertyDialogD1Ev
libpqApplicationComponents.so.1:_ZThn16_N38pqTransferFunctionWidgetPropertyWidgetD0Ev
libpqApplicationComponents.so.1:_ZThn16_N38pqTransferFunctionWidgetPropertyWidgetD1Ev
libpqApplicationComponents.so.1:_ZThn16_N40pqStandardViewFrameActionsImplementation14frameConnectedEP11pqViewFrameP6pqView
libpqApplicationComponents.so.1:_ZThn16_N40pqStandardViewFrameActionsImplementationD0Ev
libpqApplicationComponents.so.1:_ZThn16_N40pqStandardViewFrameActionsImplementationD1Ev
libpqApplicationComponents.so.1:_ZThn16_N41pqDisplaySizedImplicitPlanePropertyWidgetD0Ev
libpqApplicationComponents.so.1:_ZThn16_N41pqDisplaySizedImplicitPlanePropertyWidgetD1Ev
libpqApplicationComponents.so.1:_ZThn16_N50pqStandardRecentlyUsedResourceLoaderImplementation4iconERK16pqServerResource
libpqApplicationComponents.so.1:_ZThn16_N50pqStandardRecentlyUsedResourceLoaderImplementation4loadERK16pqServerResourceP8pqServer
libpqApplicationComponents.so.1:_ZThn16_N50pqStandardRecentlyUsedResourceLoaderImplementation5labelERK16pqServerResource
libpqApplicationComponents.so.1:_ZThn16_N50pqStandardRecentlyUsedResourceLoaderImplementation7canLoadERK16pqServerResource
libpqApplicationComponents.so.1:_ZThn16_N50pqStandardRecentlyUsedResourceLoaderImplementationD0Ev
libpqApplicationComponents.so.1:_ZThn16_N50pqStandardRecentlyUsedResourceLoaderImplementationD1Ev
libpqApplicationComponents.so.1:_ZThn16_NK18pqBlockContextMenu11contextMenuEP5QMenuP6pqViewRK6QPointP16pqRepresentationRK5QListI7QStringE
libpqApplicationComponents.so.1:_ZThn16_NK20pqDefaultContextMenu11contextMenuEP5QMenuP6pqViewRK6QPointP16pqRepresentationRK5QListIjE
libpqComponents.so.1:_Z16pqComponentsInitv
libpqComponents.so.1:_ZN10pqImageTip10enterEventEP11QEnterEvent
libpqComponents.so.1:_ZN10pqImageTip10paintEventEP11QPaintEvent
libpqComponents.so.1:_ZN10pqImageTip10timerEventEP11QTimerEvent
libpqComponents.so.1:_ZN10pqImageTip11eventFilterEP7QObjectP6QEvent
libpqComponents.so.1:_ZN10pqImageTip11qt_metacallEN11QMetaObject4CallEiPPv
libpqComponents.so.1:_ZN10pqImageTip11qt_metacastEPKc
libpqComponents.so.1:_ZN10pqImageTip16staticMetaObjectE
libpqComponents.so.1:_ZN10pqImageTip7showTipERK7QPixmapRK6QPoint
libpqComponents.so.1:_ZN10pqImageTipC1ERK7QPixmapP7QWidget
libpqComponents.so.1:_ZN10pqImageTipC2ERK7QPixmapP7QWidget
libpqComponents.so.1:_ZN10pqImageTipD0Ev
libpqComponents.so.1:_ZN10pqImageTipD1Ev
libpqComponents.so.1:_ZN10pqImageTipD2Ev
libpqComponents.so.1:_ZN11pqSearchBox11qt_metacallEN11QMetaObject4CallEiPPv
libpqComponents.so.1:_ZN11pqSearchBox11qt_metacastEPKc
libpqComponents.so.1:_ZN11pqSearchBox11textChangedERK7QString
libpqComponents.so.1:_ZN11pqSearchBox13keyPressEventEP9QKeyEvent
libpqComponents.so.1:_ZN11pqSearchBox13setSettingKeyERK7QString
libpqComponents.so.1:_ZN11pqSearchBox14updateSettingsEv
libpqComponents.so.1:_ZN11pqSearchBox16staticMetaObjectE
libpqComponents.so.1:_ZN11pqSearchBox17settingKeyChangedERK7QString
libpqComponents.so.1:_ZN11pqSearchBox18setPlaceholderTextERK7QString
libpqComponents.so.1:_ZN11pqSearchBox18updateFromSettingsEv
libpqComponents.so.1:_ZN11pqSearchBox23advancedSearchActivatedEb
libpqComponents.so.1:_ZN11pqSearchBox23onAdvancedButtonClickedEb
libpqComponents.so.1:_ZN11pqSearchBox23setAdvancedSearchActiveEb
libpqComponents.so.1:_ZN11pqSearchBox24setAdvancedSearchEnabledEb
libpqComponents.so.1:_ZN11pqSearchBox7setTextERK7QString
libpqComponents.so.1:_ZN11pqSearchBoxC1EP7QWidget
libpqComponents.so.1:_ZN11pqSearchBoxC1EbRK7QStringP7QWidget
libpqComponents.so.1:_ZN11pqSearchBoxC2EP7QWidget
libpqComponents.so.1:_ZN11pqSearchBoxC2EbRK7QStringP7QWidget
libpqComponents.so.1:_ZN11pqSearchBoxD0Ev
libpqComponents.so.1:_ZN11pqSearchBoxD1Ev
libpqComponents.so.1:_ZN11pqSearchBoxD2Ev
libpqComponents.so.1:_ZN11pqViewFrame10finishDragEPS_
libpqComponents.so.1:_ZN11pqViewFrame11eventFilterEP7QObjectP6QEvent
libpqComponents.so.1:_ZN11pqViewFrame11qt_metacallEN11QMetaObject4CallEiPPv
libpqComponents.so.1:_ZN11pqViewFrame11qt_metacastEPKc
libpqComponents.so.1:_ZN11pqViewFrame12createButtonEP7QAction
libpqComponents.so.1:_ZN11pqViewFrame12finishedDragEPS_
libpqComponents.so.1:_ZN11pqViewFrame13buttonClickedEv
libpqComponents.so.1:_ZN11pqViewFrame13buttonPressedEi
libpqComponents.so.1:_ZN11pqViewFrame13swapPositionsERK7QString
libpqComponents.so.1:_ZN11pqViewFrame14setBorderColorERK6QColor
libpqComponents.so.1:_ZN11pqViewFrame15actionTriggeredEP7QAction
libpqComponents.so.1:_ZN11pqViewFrame16setCentralWidgetEP7QWidgetP6pqView
libpqComponents.so.1:_ZN11pqViewFrame16staticMetaObjectE
libpqComponents.so.1:_ZN11pqViewFrame17addTitleBarActionEP7QAction
libpqComponents.so.1:_ZN11pqViewFrame17addTitleBarActionERK5QIconRK7QString
libpqComponents.so.1:_ZN11pqViewFrame17addTitleBarActionERK7QString
libpqComponents.so.1:_ZN11pqViewFrame17onViewNameChangedEP24pqServerManagerModelItem
libpqComponents.so.1:_ZN11pqViewFrame18setStandardButtonsE6QFlagsINS_14StandardButtonEE
libpqComponents.so.1:_ZN11pqViewFrame20addTitleBarSeparatorEv
libpqComponents.so.1:_ZN11pqViewFrame20contextMenuRequestedERK6QPoint
libpqComponents.so.1:_ZN11pqViewFrame21removeTitleBarActionsEv
libpqComponents.so.1:_ZN11pqViewFrame27updateComponentVisibilitiesEv
libpqComponents.so.1:_ZN11pqViewFrame4dragEv
libpqComponents.so.1:_ZN11pqViewFrame4dropEP10QDropEvent
libpqComponents.so.1:_ZN11pqViewFrame8setTitleERK7QString
libpqComponents.so.1:_ZN11pqViewFrame9dragEnterEP15QDragEnterEvent
libpqComponents.so.1:_ZN11pqViewFrameC1EP7QWidget
libpqComponents.so.1:_ZN11pqViewFrameC2EP7QWidget
libpqComponents.so.1:_ZN11pqViewFrameD0Ev
libpqComponents.so.1:_ZN11pqViewFrameD1Ev
libpqComponents.so.1:_ZN11pqViewFrameD2Ev
libpqComponents.so.1:_ZN12pqHelpWindow10goBackwardEv
libpqComponents.so.1:_ZN12pqHelpWindow11qt_metacallEN11QMetaObject4CallEiPPv
libpqComponents.so.1:_ZN12pqHelpWindow11qt_metacastEPKc
libpqComponents.so.1:_ZN12pqHelpWindow12helpWarningsERK7QString
libpqComponents.so.1:_ZN12pqHelpWindow12setNameSpaceERK7QString
libpqComponents.so.1:_ZN12pqHelpWindow12showHomePageEv
libpqComponents.so.1:_ZN12pqHelpWindow16staticMetaObjectE
libpqComponents.so.1:_ZN12pqHelpWindow19saveCurrentHomePageEv
libpqComponents.so.1:_ZN12pqHelpWindow20updateHistoryButtonsEv
libpqComponents.so.1:_ZN12pqHelpWindow6searchEv
libpqComponents.so.1:_ZN12pqHelpWindow8showPageERK4QUrl
libpqComponents.so.1:_ZN12pqHelpWindow8showPageERK7QString
libpqComponents.so.1:_ZN12pqHelpWindow9goForwardEv
libpqComponents.so.1:_ZN12pqHelpWindowC1EP11QHelpEngineP7QWidget6QFlagsIN2Qt10WindowTypeEE
libpqComponents.so.1:_ZN12pqHelpWindowC2EP11QHelpEngineP7QWidget6QFlagsIN2Qt10WindowTypeEE
libpqComponents.so.1:_ZN12pqHelpWindowD0Ev
libpqComponents.so.1:_ZN12pqHelpWindowD1Ev
libpqComponents.so.1:_ZN12pqHelpWindowD2Ev
libpqComponents.so.1:_ZN13pqAboutDialog10saveToFileEv
libpqComponents.so.1:_ZN13pqAboutDialog11qt_metacallEN11QMetaObject4CallEiPPv
libpqComponents.so.1:_ZN13pqAboutDialog11qt_metacastEPKc
libpqComponents.so.1:_ZN13pqAboutDialog12formatToTextEP11QTreeWidget
libpqComponents.so.1:_ZN13pqAboutDialog12formatToTextEv
libpqComponents.so.1:_ZN13pqAboutDialog15copyToClipboardEv
libpqComponents.so.1:_ZN13pqAboutDialog16staticMetaObjectE
libpqComponents.so.1:_ZN13pqAboutDialog20AddClientInformationEv
libpqComponents.so.1:_ZN13pqAboutDialog20AddServerInformationEP8pqServerP11QTreeWidget
libpqComponents.so.1:_ZN13pqAboutDialog20AddServerInformationEv
libpqComponents.so.1:_ZN13pqAboutDialogC1EP7QWidget
libpqComponents.so.1:_ZN13pqAboutDialogC2EP7QWidget
libpqComponents.so.1:_ZN13pqAboutDialogD0Ev
libpqComponents.so.1:_ZN13pqAboutDialogD1Ev
libpqComponents.so.1:_ZN13pqAboutDialogD2Ev
libpqComponents.so.1:_ZN13pqIconBrowser11getIconPathERK7QString
libpqComponents.so.1:_ZN13pqIconBrowser11qt_metacallEN11QMetaObject4CallEiPPv
libpqComponents.so.1:_ZN13pqIconBrowser11qt_metacastEPKc
libpqComponents.so.1:_ZN13pqIconBrowser16staticMetaObjectE
libpqComponents.so.1:_ZN13pqIconBrowser19getSelectedIconPathEv
libpqComponents.so.1:_ZN13pqIconBrowserC1EP7QWidget
libpqComponents.so.1:_ZN13pqIconBrowserC2EP7QWidget
libpqComponents.so.1:_ZN13pqIconBrowserD0Ev
libpqComponents.so.1:_ZN13pqIconBrowserD1Ev
libpqComponents.so.1:_ZN13pqIconBrowserD2Ev
libpqComponents.so.1:_ZN13pqLinksEditor11qt_metacallEN11QMetaObject4CallEiPPv
libpqComponents.so.1:_ZN13pqLinksEditor11qt_metacastEPKc
libpqComponents.so.1:_ZN13pqLinksEditor14selectedProxy1Ev
libpqComponents.so.1:_ZN13pqLinksEditor14selectedProxy2Ev
libpqComponents.so.1:_ZN13pqLinksEditor16staticMetaObjectE
libpqComponents.so.1:_ZN13pqLinksEditor17selectedProperty1Ev
libpqComponents.so.1:_ZN13pqLinksEditor17selectedProperty2Ev
libpqComponents.so.1:_ZN13pqLinksEditor18updateEnabledStateEv
libpqComponents.so.1:_ZN13pqLinksEditor18updatePropertyListEP11QListWidgetP10vtkSMProxy
libpqComponents.so.1:_ZN13pqLinksEditor20currentProxy1ChangedERK11QModelIndexS2_
libpqComponents.so.1:_ZN13pqLinksEditor20currentProxy2ChangedERK11QModelIndexS2_
libpqComponents.so.1:_ZN13pqLinksEditor21updateSelectedProxiesEv
libpqComponents.so.1:_ZN13pqLinksEditor23convertToIndicesCheckedEv
libpqComponents.so.1:_ZN13pqLinksEditor23currentProperty1ChangedEP15QListWidgetItem
libpqComponents.so.1:_ZN13pqLinksEditor23currentProperty2ChangedEP15QListWidgetItem
libpqComponents.so.1:_ZN13pqLinksEditor26interactiveViewLinkCheckedEv
libpqComponents.so.1:_ZN13pqLinksEditor27cameraWidgetViewLinkCheckedEv
libpqComponents.so.1:_ZN13pqLinksEditor8linkNameEv
libpqComponents.so.1:_ZN13pqLinksEditor8linkTypeEv
libpqComponents.so.1:_ZN13pqLinksEditorC1EP9vtkSMLinkP7QWidget
libpqComponents.so.1:_ZN13pqLinksEditorC2EP9vtkSMLinkP7QWidget
libpqComponents.so.1:_ZN13pqLinksEditorD0Ev
libpqComponents.so.1:_ZN13pqLinksEditorD1Ev
libpqComponents.so.1:_ZN13pqLinksEditorD2Ev
libpqComponents.so.1:_ZN13pqProxyAction11qt_metacallEN11QMetaObject4CallEiPPv
libpqComponents.so.1:_ZN13pqProxyAction11qt_metacastEPKc
libpqComponents.so.1:_ZN13pqProxyAction12GetProxyNameEP7QAction
libpqComponents.so.1:_ZN13pqProxyAction12GetProxyNameEv
libpqComponents.so.1:_ZN13pqProxyAction13GetProxyGroupEP7QAction
libpqComponents.so.1:_ZN13pqProxyAction13GetProxyGroupEv
libpqComponents.so.1:_ZN13pqProxyAction14GetDisplayNameEv
libpqComponents.so.1:_ZN13pqProxyAction14GetRequirementEv
libpqComponents.so.1:_ZN13pqProxyAction14getOutputPortsEv
libpqComponents.so.1:_ZN13pqProxyAction16GetDocumentationEv
libpqComponents.so.1:_ZN13pqProxyAction16staticMetaObjectE
libpqComponents.so.1:_ZN13pqProxyAction17GetProxyPrototypeEP7QAction
libpqComponents.so.1:_ZN13pqProxyAction18updateActionStatusEP7QActionbRK5QListIP12pqOutputPortE
libpqComponents.so.1:_ZN13pqProxyAction18updateActionsStateE5QListIP7QActionE
libpqComponents.so.1:_ZN13pqProxyAction21GetProxyDocumentationEP7QAction
libpqComponents.so.1:_ZN13pqProxyAction7GetIconEv
libpqComponents.so.1:_ZN13pqProxyAction9GetActionEv
libpqComponents.so.1:_ZN13pqProxyAction9IsEnabledEv
libpqComponents.so.1:_ZN13pqProxyActionC1EP7QObjectP7QAction
libpqComponents.so.1:_ZN13pqProxyActionC2EP7QObjectP7QAction
libpqComponents.so.1:_ZN13pqProxyActionD0Ev
libpqComponents.so.1:_ZN13pqProxyActionD1Ev
libpqComponents.so.1:_ZN13pqProxyActionD2Ev
libpqComponents.so.1:_ZN13pqProxyWidget11qt_metacallEN11QMetaObject4CallEiPPv
libpqComponents.so.1:_ZN13pqProxyWidget11qt_metacastEPKc
libpqComponents.so.1:_ZN13pqProxyWidget11updatePanelEv
libpqComponents.so.1:_ZN13pqProxyWidget13createWidgetsERK5QListI7QStringE
libpqComponents.so.1:_ZN13pqProxyWidget13filterWidgetsEbRK7QString
libpqComponents.so.1:_ZN13pqProxyWidget13resetPropertyEP13vtkSMPropertydb
libpqComponents.so.1:_ZN13pqProxyWidget14changeFinishedEv
libpqComponents.so.1:_ZN13pqProxyWidget15changeAvailableEv
libpqComponents.so.1:_ZN13pqProxyWidget15create3DWidgetsEv
libpqComponents.so.1:_ZN13pqProxyWidget15restartRequiredEv
libpqComponents.so.1:_ZN13pqProxyWidget15restoreDefaultsEv
libpqComponents.so.1:_ZN13pqProxyWidget15showContextMenuERK6QPointP16pqPropertyWidget
libpqComponents.so.1:_ZN13pqProxyWidget16onChangeFinishedEv
libpqComponents.so.1:_ZN13pqProxyWidget16staticMetaObjectE
libpqComponents.so.1:_ZN13pqProxyWidget17documentationTextEP10vtkSMProxyNS_17DocumentationTypeE
libpqComponents.so.1:_ZN13pqProxyWidget17documentationTextEP13vtkSMPropertyNS_17DocumentationTypeE
libpqComponents.so.1:_ZN13pqProxyWidget19newGroupLabelWidgetERK7QStringP7QWidgetRK5QListIS4_E
libpqComponents.so.1:_ZN13pqProxyWidget21createPropertyWidgetsERK5QListI7QStringE
libpqComponents.so.1:_ZN13pqProxyWidget23createWidgetForPropertyEP13vtkSMPropertyP10vtkSMProxyP7QWidget
libpqComponents.so.1:_ZN13pqProxyWidget25resetPropertyToAppDefaultEP16pqPropertyWidget
libpqComponents.so.1:_ZN13pqProxyWidget25useDocumentationForLabelsEP10vtkSMProxy
libpqComponents.so.1:_ZN13pqProxyWidget26resetPropertyToUserDefaultEP16pqPropertyWidget
libpqComponents.so.1:_ZN13pqProxyWidget26setApplyChangesImmediatelyEb
libpqComponents.so.1:_ZN13pqProxyWidget27showLinkedInteractiveWidgetEibb
libpqComponents.so.1:_ZN13pqProxyWidget29showProxyDocumentationInPanelEP10vtkSMProxy
libpqComponents.so.1:_ZN13pqProxyWidget7setViewEP6pqView
libpqComponents.so.1:_ZN13pqProxyWidget9hideEventEP10QHideEvent
libpqComponents.so.1:_ZN13pqProxyWidget9showEventEP10QShowEvent
libpqComponents.so.1:_ZN13pqProxyWidgetC1EP10vtkSMProxy
libpqComponents.so.1:_ZN13pqProxyWidgetC1EP10vtkSMProxyP7QWidget6QFlagsIN2Qt10WindowTypeEE
libpqComponents.so.1:_ZN13pqProxyWidgetC1EP10vtkSMProxyRK5QListI7QStringESt16initializer_listIS3_ES8_bP7QWidget6QFlagsIN2Qt10WindowTypeEE
libpqComponents.so.1:_ZN13pqProxyWidgetC1EP10vtkSMProxyRK5QListI7QStringEbP7QWidget6QFlagsIN2Qt10WindowTypeEE
libpqComponents.so.1:_ZN13pqProxyWidgetC1EP10vtkSMProxySt16initializer_listI7QStringES4_P7QWidget6QFlagsIN2Qt10WindowTypeEE
libpqComponents.so.1:_ZN13pqProxyWidgetC2EP10vtkSMProxy
libpqComponents.so.1:_ZN13pqProxyWidgetC2EP10vtkSMProxyP7QWidget6QFlagsIN2Qt10WindowTypeEE
libpqComponents.so.1:_ZN13pqProxyWidgetC2EP10vtkSMProxyRK5QListI7QStringESt16initializer_listIS3_ES8_bP7QWidget6QFlagsIN2Qt10WindowTypeEE
libpqComponents.so.1:_ZN13pqProxyWidgetC2EP10vtkSMProxyRK5QListI7QStringEbP7QWidget6QFlagsIN2Qt10WindowTypeEE
libpqComponents.so.1:_ZN13pqProxyWidgetC2EP10vtkSMProxySt16initializer_listI7QStringES4_P7QWidget6QFlagsIN2Qt10WindowTypeEE
libpqComponents.so.1:_ZN13pqProxyWidgetD0Ev
libpqComponents.so.1:_ZN13pqProxyWidgetD1Ev
libpqComponents.so.1:_ZN13pqProxyWidgetD2Ev
libpqComponents.so.1:_ZN13pqViewManager11qt_metacallEN11QMetaObject4CallEiPPv
libpqComponents.so.1:_ZN13pqViewManager11qt_metacastEPKc
libpqComponents.so.1:_ZN13pqViewManager16staticMetaObjectE
libpqComponents.so.1:_ZN13pqViewManagerC1EP7QWidget
libpqComponents.so.1:_ZN13pqViewManagerC2EP7QWidget
libpqComponents.so.1:_ZN13pqViewManagerD0Ev
libpqComponents.so.1:_ZN13pqViewManagerD1Ev
libpqComponents.so.1:_ZN13pqViewManagerD2Ev
libpqComponents.so.1:_ZN14pqCameraDialog11qt_metacallEN11QMetaObject4CallEiPPv
libpqComponents.so.1:_ZN14pqCameraDialog11qt_metacastEPKc
libpqComponents.so.1:_ZN14pqCameraDialog15setRenderModuleEP6pqView
libpqComponents.so.1:_ZN14pqCameraDialog16staticMetaObjectE
libpqComponents.so.1:_ZN14pqCameraDialog17applyCameraZoomInEv
libpqComponents.so.1:_ZN14pqCameraDialog18applyCameraZoomOutEv
libpqComponents.so.1:_ZN14pqCameraDialog18applyIsometricViewEv
libpqComponents.so.1:_ZN14pqCameraDialog18resetViewDirectionEdddddd
libpqComponents.so.1:_ZN14pqCameraDialog19applyCameraRollPlusEv
libpqComponents.so.1:_ZN14pqCameraDialog20applyCameraRollMinusEv
libpqComponents.so.1:_ZN14pqCameraDialog20applyCustomViewpointEiP20vtkSMRenderViewProxy
libpqComponents.so.1:_ZN14pqCameraDialog20applyCustomViewpointEv
libpqComponents.so.1:_ZN14pqCameraDialog21deleteCustomViewpointEiP20vtkSMRenderViewProxy
libpqComponents.so.1:_ZN14pqCameraDialog21setToCurrentViewpointEiP20vtkSMRenderViewProxy
libpqComponents.so.1:_ZN14pqCameraDialog22SetCameraGroupsEnabledEb
libpqComponents.so.1:_ZN14pqCameraDialog22applyCameraAzimuthPlusEv
libpqComponents.so.1:_ZN14pqCameraDialog22resetViewDirectionNegXEv
libpqComponents.so.1:_ZN14pqCameraDialog22resetViewDirectionNegYEv
libpqComponents.so.1:_ZN14pqCameraDialog22resetViewDirectionNegZEv
libpqComponents.so.1:_ZN14pqCameraDialog22resetViewDirectionPosXEv
libpqComponents.so.1:_ZN14pqCameraDialog22resetViewDirectionPosYEv
libpqComponents.so.1:_ZN14pqCameraDialog22resetViewDirectionPosZEv
libpqComponents.so.1:_ZN14pqCameraDialog23CustomViewpointToolTipsEv
libpqComponents.so.1:_ZN14pqCameraDialog23applyCameraAzimuthMinusEv
libpqComponents.so.1:_ZN14pqCameraDialog23loadCameraConfigurationEv
libpqComponents.so.1:_ZN14pqCameraDialog23saveCameraConfigurationEv
libpqComponents.so.1:_ZN14pqCameraDialog24applyCameraElevationPlusEv
libpqComponents.so.1:_ZN14pqCameraDialog25applyCameraElevationMinusEv
libpqComponents.so.1:_ZN14pqCameraDialog25configureCustomViewpointsEP7QWidgetP20vtkSMRenderViewProxy
libpqComponents.so.1:_ZN14pqCameraDialog25configureCustomViewpointsEv
libpqComponents.so.1:_ZN14pqCameraDialog28updateCustomViewpointButtonsEv
libpqComponents.so.1:_ZN14pqCameraDialog29CustomViewpointConfigurationsEv
libpqComponents.so.1:_ZN14pqCameraDialog29resetRotationCenterWithCameraEv
libpqComponents.so.1:_ZN14pqCameraDialog29setInteractiveViewLinkOpacityEd
libpqComponents.so.1:_ZN14pqCameraDialog32setInteractiveViewLinkBackgroundEb
libpqComponents.so.1:_ZN14pqCameraDialog32updateInteractiveViewLinkWidgetsEv
libpqComponents.so.1:_ZN14pqCameraDialog37addCurrentViewpointToCustomViewpointsEP20vtkSMRenderViewProxy
libpqComponents.so.1:_ZN14pqCameraDialog37addCurrentViewpointToCustomViewpointsEv
libpqComponents.so.1:_ZN14pqCameraDialog8setupGUIEv
libpqComponents.so.1:_ZN14pqCameraDialogC1EP7QWidget6QFlagsIN2Qt10WindowTypeEE
libpqComponents.so.1:_ZN14pqCameraDialogC2EP7QWidget6QFlagsIN2Qt10WindowTypeEE
libpqComponents.so.1:_ZN14pqCameraDialogD0Ev
libpqComponents.so.1:_ZN14pqCameraDialogD1Ev
libpqComponents.so.1:_ZN14pqCameraDialogD2Ev
libpqComponents.so.1:_ZN14pqColorOverlay10paintEventEP11QPaintEvent
libpqComponents.so.1:_ZN14pqColorOverlay10setOpacityEi
libpqComponents.so.1:_ZN14pqColorOverlay11qt_metacallEN11QMetaObject4CallEiPPv
libpqComponents.so.1:_ZN14pqColorOverlay11qt_metacastEPKc
libpqComponents.so.1:_ZN14pqColorOverlay16staticMetaObjectE
libpqComponents.so.1:_ZN14pqColorOverlay6setRgbE6QColor
libpqComponents.so.1:_ZN14pqColorOverlay6setRgbEiii
libpqComponents.so.1:_ZN14pqColorOverlayC1EP7QWidget
libpqComponents.so.1:_ZN14pqColorOverlayC2EP7QWidget
libpqComponents.so.1:_ZN14pqDisplayPanel11dataUpdatedEv
libpqComponents.so.1:_ZN14pqDisplayPanel11qt_metacallEN11QMetaObject4CallEiPPv
libpqComponents.so.1:_ZN14pqDisplayPanel11qt_metacastEPKc
libpqComponents.so.1:_ZN14pqDisplayPanel14updateAllViewsEv
libpqComponents.so.1:_ZN14pqDisplayPanel16staticMetaObjectE
libpqComponents.so.1:_ZN14pqDisplayPanel17getRepresentationEv
libpqComponents.so.1:_ZN14pqDisplayPanel9reloadGUIEv
libpqComponents.so.1:_ZN14pqDisplayPanelC1EP16pqRepresentationP7QWidget
libpqComponents.so.1:_ZN14pqDisplayPanelC2EP16pqRepresentationP7QWidget
libpqComponents.so.1:_ZN14pqDisplayPanelD0Ev
libpqComponents.so.1:_ZN14pqDisplayPanelD1Ev
libpqComponents.so.1:_ZN14pqDisplayPanelD2Ev
libpqComponents.so.1:_ZN14pqLightsEditor11qt_metacallEN11QMetaObject4CallEiPPv
libpqComponents.so.1:_ZN14pqLightsEditor11qt_metacastEPKc
libpqComponents.so.1:_ZN14pqLightsEditor11resetLightsEv
libpqComponents.so.1:_ZN14pqLightsEditor16staticMetaObjectE
libpqComponents.so.1:_ZN14pqLightsEditorC1EP10vtkSMProxyP18vtkSMPropertyGroupP7QWidget
libpqComponents.so.1:_ZN14pqLightsEditorC2EP10vtkSMProxyP18vtkSMPropertyGroupP7QWidget
libpqComponents.so.1:_ZN14pqLightsEditorD0Ev
libpqComponents.so.1:_ZN14pqLightsEditorD1Ev
libpqComponents.so.1:_ZN14pqLightsEditorD2Ev
libpqComponents.so.1:_ZN14pqLinksManager10removeLinkEv
libpqComponents.so.1:_ZN14pqLinksManager11qt_metacallEN11QMetaObject4CallEiPPv
libpqComponents.so.1:_ZN14pqLinksManager11qt_metacastEPKc
libpqComponents.so.1:_ZN14pqLinksManager16selectionChangedERK11QModelIndex
libpqComponents.so.1:_ZN14pqLinksManager16staticMetaObjectE
libpqComponents.so.1:_ZN14pqLinksManager7addLinkEv
libpqComponents.so.1:_ZN14pqLinksManager8editLinkEv
libpqComponents.so.1:_ZN14pqLinksManagerC1EP7QWidget
libpqComponents.so.1:_ZN14pqLinksManagerC2EP7QWidget
libpqComponents.so.1:_ZN14pqLinksManagerD0Ev
libpqComponents.so.1:_ZN14pqLinksManagerD1Ev
libpqComponents.so.1:_ZN14pqLinksManagerD2Ev
libpqComponents.so.1:_ZN14pqPluginDialog10loadPluginEP8pqServerRK7QStringb
libpqComponents.so.1:_ZN14pqPluginDialog10loadPluginEP8pqServerb
libpqComponents.so.1:_ZN14pqPluginDialog11qt_metacallEN11QMetaObject4CallEiPPv
libpqComponents.so.1:_ZN14pqPluginDialog11qt_metacastEPKc
libpqComponents.so.1:_ZN14pqPluginDialog12addInfoNodesEP15QTreeWidgetItemP23vtkPVPluginsInformationjb
libpqComponents.so.1:_ZN14pqPluginDialog12refreshLocalEv
libpqComponents.so.1:_ZN14pqPluginDialog12removePluginEP8pqServerRK7QStringb
libpqComponents.so.1:_ZN14pqPluginDialog12resizeColumnEP15QTreeWidgetItem
libpqComponents.so.1:_ZN14pqPluginDialog13getPluginInfoEP15QTreeWidgetItemRj
libpqComponents.so.1:_ZN14pqPluginDialog13getStatusTextEP23vtkPVPluginsInformationj
libpqComponents.so.1:_ZN14pqPluginDialog13refreshRemoteEv
libpqComponents.so.1:_ZN14pqPluginDialog15loadLocalPluginEv
libpqComponents.so.1:_ZN14pqPluginDialog15setupTreeWidgetEP11QTreeWidget
libpqComponents.so.1:_ZN14pqPluginDialog16loadRemotePluginEv
libpqComponents.so.1:_ZN14pqPluginDialog16staticMetaObjectE
libpqComponents.so.1:_ZN14pqPluginDialog17updateEnableStateEP11QTreeWidgetP11QPushButtonS3_
libpqComponents.so.1:_ZN14pqPluginDialog18populatePluginTreeEP11QTreeWidgetP23vtkPVPluginsInformationb
libpqComponents.so.1:_ZN14pqPluginDialog19addPluginConfigFileERK7QStringb
libpqComponents.so.1:_ZN14pqPluginDialog19addPluginConfigFileEb
libpqComponents.so.1:_ZN14pqPluginDialog19loadSelectedPluginsE5QListIP15QTreeWidgetItemEP8pqServerb
libpqComponents.so.1:_ZN14pqPluginDialog19onPluginItemChangedEP15QTreeWidgetItemi
libpqComponents.so.1:_ZN14pqPluginDialog21removeSelectedPluginsE5QListIP15QTreeWidgetItemEP8pqServerb
libpqComponents.so.1:_ZN14pqPluginDialog22onAddPluginConfigLocalEv
libpqComponents.so.1:_ZN14pqPluginDialog23onAddPluginConfigRemoteEv
libpqComponents.so.1:_ZN14pqPluginDialog23onLocalSelectionChangedEv
libpqComponents.so.1:_ZN14pqPluginDialog24onRemoteSelectionChangedEv
libpqComponents.so.1:_ZN14pqPluginDialog25onLoadSelectedLocalPluginEv
libpqComponents.so.1:_ZN14pqPluginDialog26onLoadSelectedRemotePluginEv
libpqComponents.so.1:_ZN14pqPluginDialog27onRemoveSelectedLocalPluginEv
libpqComponents.so.1:_ZN14pqPluginDialog28onRemoveSelectedRemotePluginEv
libpqComponents.so.1:_ZN14pqPluginDialog7refreshEv
libpqComponents.so.1:_ZN14pqPluginDialog9onRefreshEv
libpqComponents.so.1:_ZN14pqPluginDialogC1EP8pqServerP7QWidget
libpqComponents.so.1:_ZN14pqPluginDialogC2EP8pqServerP7QWidget
libpqComponents.so.1:_ZN14pqPluginDialogD0Ev
libpqComponents.so.1:_ZN14pqPluginDialogD1Ev
libpqComponents.so.1:_ZN14pqPluginDialogD2Ev
libpqComponents.so.1:_ZN14pqPopOutWidget11qt_metacallEN11QMetaObject4CallEiPPv
libpqComponents.so.1:_ZN14pqPopOutWidget11qt_metacastEPKc
libpqComponents.so.1:_ZN14pqPopOutWidget15setPopOutButtonEP11QPushButton
libpqComponents.so.1:_ZN14pqPopOutWidget16staticMetaObjectE
libpqComponents.so.1:_ZN14pqPopOutWidget18moveWidgetToDialogEv
libpqComponents.so.1:_ZN14pqPopOutWidget20toggleWidgetLocationEv
libpqComponents.so.1:_ZN14pqPopOutWidget22moveWidgetBackToParentEv
libpqComponents.so.1:_ZN14pqPopOutWidgetC1EP7QWidgetRK7QStringS1_
libpqComponents.so.1:_ZN14pqPopOutWidgetC2EP7QWidgetRK7QStringS1_
libpqComponents.so.1:_ZN14pqPopOutWidgetD0Ev
libpqComponents.so.1:_ZN14pqPopOutWidgetD1Ev
libpqComponents.so.1:_ZN14pqPopOutWidgetD2Ev
libpqComponents.so.1:_ZN14pqPresetDialog11applyPresetERKN4Json5ValueE
libpqComponents.so.1:_ZN14pqPresetDialog11qt_metacallEN11QMetaObject4CallEiPPv
libpqComponents.so.1:_ZN14pqPresetDialog11qt_metacastEPKc
libpqComponents.so.1:_ZN14pqPresetDialog12removePresetERK11QModelIndex
libpqComponents.so.1:_ZN14pqPresetDialog12triggerApplyERK11QModelIndex
libpqComponents.so.1:_ZN14pqPresetDialog12updateGroupsEv
libpqComponents.so.1:_ZN14pqPresetDialog13currentPresetEv
libpqComponents.so.1:_ZN14pqPresetDialog13exportPresetsEv
libpqComponents.so.1:_ZN14pqPresetDialog13importPresetsEv
libpqComponents.so.1:_ZN14pqPresetDialog15updateFilteringEv
libpqComponents.so.1:_ZN14pqPresetDialog16setCurrentPresetEPKc
libpqComponents.so.1:_ZN14pqPresetDialog16staticMetaObjectE
libpqComponents.so.1:_ZN14pqPresetDialog17regularExpressionEv
libpqComponents.so.1:_ZN14pqPresetDialog19setPresetIsAdvancedEN2Qt10CheckStateE
libpqComponents.so.1:_ZN14pqPresetDialog22updateForSelectedIndexERK11QModelIndex
libpqComponents.so.1:_ZN14pqPresetDialog25setCustomizableLoadColorsEbb
libpqComponents.so.1:_ZN14pqPresetDialog28setCustomizableLoadOpacitiesEbb
libpqComponents.so.1:_ZN14pqPresetDialog29setCustomizableUsePresetRangeEbb
libpqComponents.so.1:_ZN14pqPresetDialog30setCustomizableLoadAnnotationsEbb
libpqComponents.so.1:_ZN14pqPresetDialog30updateEnabledStateForSelectionEv
libpqComponents.so.1:_ZN14pqPresetDialog32setCustomizableAnnotationsRegexpEbb
libpqComponents.so.1:_ZN14pqPresetDialog7setModeENS_5ModesE
libpqComponents.so.1:_ZN14pqPresetDialogC1EP7QWidgetNS_5ModesE
libpqComponents.so.1:_ZN14pqPresetDialogC2EP7QWidgetNS_5ModesE
libpqComponents.so.1:_ZN14pqPresetDialogD0Ev
libpqComponents.so.1:_ZN14pqPresetDialogD1Ev
libpqComponents.so.1:_ZN14pqPresetDialogD2Ev
libpqComponents.so.1:_ZN15pqActiveObjects11dataUpdatedEv
libpqComponents.so.1:_ZN15pqActiveObjects11portChangedEP12pqOutputPort
libpqComponents.so.1:_ZN15pqActiveObjects11qt_metacallEN11QMetaObject4CallEiPPv
libpqComponents.so.1:_ZN15pqActiveObjects11qt_metacastEPKc
libpqComponents.so.1:_ZN15pqActiveObjects11serverAddedEP8pqServer
libpqComponents.so.1:_ZN15pqActiveObjects11viewChangedEP6pqView
libpqComponents.so.1:_ZN15pqActiveObjects11viewUpdatedEv
libpqComponents.so.1:_ZN15pqActiveObjects12proxyRemovedEP24pqServerManagerModelItem
libpqComponents.so.1:_ZN15pqActiveObjects12resetActivesEv
libpqComponents.so.1:_ZN15pqActiveObjects12setSelectionERK5QListIP24pqServerManagerModelItemES2_
libpqComponents.so.1:_ZN15pqActiveObjects13serverChangedEP8pqServer
libpqComponents.so.1:_ZN15pqActiveObjects13serverRemovedEP8pqServer
libpqComponents.so.1:_ZN15pqActiveObjects13setActiveViewEP6pqView
libpqComponents.so.1:_ZN15pqActiveObjects13sourceChangedEP16pqPipelineSource
libpqComponents.so.1:_ZN15pqActiveObjects14triggerSignalsEv
libpqComponents.so.1:_ZN15pqActiveObjects15setActiveServerEP8pqServer
libpqComponents.so.1:_ZN15pqActiveObjects16selectionChangedERK5QListIP24pqServerManagerModelItemE
libpqComponents.so.1:_ZN15pqActiveObjects16staticMetaObjectE
libpqComponents.so.1:_ZN15pqActiveObjects20pipelineProxyChangedEP7pqProxy
libpqComponents.so.1:_ZN15pqActiveObjects20updateRepresentationEv
libpqComponents.so.1:_ZN15pqActiveObjects20viewSelectionChangedEv
libpqComponents.so.1:_ZN15pqActiveObjects21onActiveServerChangedEv
libpqComponents.so.1:_ZN15pqActiveObjects21representationChangedEP16pqRepresentation
libpqComponents.so.1:_ZN15pqActiveObjects21representationChangedEP20pqDataRepresentation
libpqComponents.so.1:_ZN15pqActiveObjects21representationUpdatedEv
libpqComponents.so.1:_ZN15pqActiveObjects22setActivePipelineProxyEP7pqProxy
libpqComponents.so.1:_ZN15pqActiveObjects22sourceSelectionChangedEv
libpqComponents.so.1:_ZN15pqActiveObjects8instanceEv
libpqComponents.so.1:_ZN15pqActiveObjectsC1Ev
libpqComponents.so.1:_ZN15pqActiveObjectsC2Ev
libpqComponents.so.1:_ZN15pqActiveObjectsD0Ev
libpqComponents.so.1:_ZN15pqActiveObjectsD1Ev
libpqComponents.so.1:_ZN15pqActiveObjectsD2Ev
libpqComponents.so.1:_ZN15pqPipelineModel10updateDataEP24pqServerManagerModelItemNS_8ItemTypeE
libpqComponents.so.1:_ZN15pqPipelineModel11constructorEv
libpqComponents.so.1:_ZN15pqPipelineModel11qt_metacallEN11QMetaObject4CallEiPPv
libpqComponents.so.1:_ZN15pqPipelineModel11qt_metacastEPKc
libpqComponents.so.1:_ZN15pqPipelineModel12addExtractorEP11pqExtractor
libpqComponents.so.1:_ZN15pqPipelineModel12removeServerEP8pqServer
libpqComponents.so.1:_ZN15pqPipelineModel12removeSourceEP16pqPipelineSource
libpqComponents.so.1:_ZN15pqPipelineModel13addConnectionEP16pqPipelineSourceS1_i
libpqComponents.so.1:_ZN15pqPipelineModel13addConnectionEP24pqServerManagerModelItemP11pqExtractor
libpqComponents.so.1:_ZN15pqPipelineModel13setSelectableERK11QModelIndexb
libpqComponents.so.1:_ZN15pqPipelineModel15firstChildAddedERK11QModelIndex
libpqComponents.so.1:_ZN15pqPipelineModel15itemDataChangedEP23pqPipelineModelDataItem
libpqComponents.so.1:_ZN15pqPipelineModel15removeExtractorEP11pqExtractor
libpqComponents.so.1:_ZN15pqPipelineModel15setModifiedFontERK5QFont
libpqComponents.so.1:_ZN15pqPipelineModel16removeConnectionEP16pqPipelineSourceS1_i
libpqComponents.so.1:_ZN15pqPipelineModel16removeConnectionEP24pqServerManagerModelItemP11pqExtractor
libpqComponents.so.1:_ZN15pqPipelineModel16staticMetaObjectE
libpqComponents.so.1:_ZN15pqPipelineModel16updateDataServerEP8pqServer
libpqComponents.so.1:_ZN15pqPipelineModel16updateVisibilityEP16pqPipelineSourceNS_8ItemTypeE
libpqComponents.so.1:_ZN15pqPipelineModel17serverDataChangedEv
libpqComponents.so.1:_ZN15pqPipelineModel19enableFilterSessionEP10vtkSession
libpqComponents.so.1:_ZN15pqPipelineModel20disableFilterSessionEv
libpqComponents.so.1:_ZN15pqPipelineModel20setSubtreeSelectableEP23pqPipelineModelDataItemb
libpqComponents.so.1:_ZN15pqPipelineModel20setSubtreeSelectableEP24pqServerManagerModelItemb
libpqComponents.so.1:_ZN15pqPipelineModel21removeChildFromParentEP23pqPipelineModelDataItem
libpqComponents.so.1:_ZN15pqPipelineModel22childWithChildrenAddedERK11QModelIndex
libpqComponents.so.1:_ZN15pqPipelineModel23delayedUpdateVisibilityEP16pqPipelineSource
libpqComponents.so.1:_ZN15pqPipelineModel25enableFilterAnnotationKeyERK7QString
libpqComponents.so.1:_ZN15pqPipelineModel26checkAndLoadPipelinePixmapERK7QString
libpqComponents.so.1:_ZN15pqPipelineModel26disableFilterAnnotationKeyEv
libpqComponents.so.1:_ZN15pqPipelineModel27onInsituConnectionInitiatedEP8pqServer
libpqComponents.so.1:_ZN15pqPipelineModel27setAnnotationFilterMatchingEb
libpqComponents.so.1:_ZN15pqPipelineModel30delayedUpdateVisibilityTimeoutEv
libpqComponents.so.1:_ZN15pqPipelineModel7setDataERK11QModelIndexRK8QVarianti
libpqComponents.so.1:_ZN15pqPipelineModel7setViewEP6pqView
libpqComponents.so.1:_ZN15pqPipelineModel8addChildEP23pqPipelineModelDataItemS1_
libpqComponents.so.1:_ZN15pqPipelineModel9addServerEP8pqServer
libpqComponents.so.1:_ZN15pqPipelineModel9addSourceEP16pqPipelineSource
libpqComponents.so.1:_ZN15pqPipelineModelC1EP7QObject
libpqComponents.so.1:_ZN15pqPipelineModelC1ERK20pqServerManagerModelP7QObject
libpqComponents.so.1:_ZN15pqPipelineModelC1ERKS_P7QObject
libpqComponents.so.1:_ZN15pqPipelineModelC2EP7QObject
libpqComponents.so.1:_ZN15pqPipelineModelC2ERK20pqServerManagerModelP7QObject
libpqComponents.so.1:_ZN15pqPipelineModelC2ERKS_P7QObject
libpqComponents.so.1:_ZN15pqPipelineModelD0Ev
libpqComponents.so.1:_ZN15pqPipelineModelD1Ev
libpqComponents.so.1:_ZN15pqPipelineModelD2Ev
libpqComponents.so.1:_ZN15pqProxiesWidget11qt_metacallEN11QMetaObject4CallEiPPv
libpqComponents.so.1:_ZN15pqProxiesWidget11qt_metacastEPKc
libpqComponents.so.1:_ZN15pqProxiesWidget11updatePanelEv
libpqComponents.so.1:_ZN15pqProxiesWidget12updateLayoutEv
libpqComponents.so.1:_ZN15pqProxiesWidget13filterWidgetsEbRK7QString
libpqComponents.so.1:_ZN15pqProxiesWidget14changeFinishedEP10vtkSMProxy
libpqComponents.so.1:_ZN15pqProxiesWidget15changeAvailableEP10vtkSMProxy
libpqComponents.so.1:_ZN15pqProxiesWidget15restartRequiredEP10vtkSMProxy
libpqComponents.so.1:_ZN15pqProxiesWidget16setExpanderStateERK4QMapI7QStringbE
libpqComponents.so.1:_ZN15pqProxiesWidget16staticMetaObjectE
libpqComponents.so.1:_ZN15pqProxiesWidget21triggerChangeFinishedEv
libpqComponents.so.1:_ZN15pqProxiesWidget22triggerChangeAvailableEv
libpqComponents.so.1:_ZN15pqProxiesWidget22triggerRestartRequiredEv
libpqComponents.so.1:_ZN15pqProxiesWidget5clearEv
libpqComponents.so.1:_ZN15pqProxiesWidget7setViewEP6pqView
libpqComponents.so.1:_ZN15pqProxiesWidget8addProxyEP10vtkSMProxyRK7QStringRK5QListIS2_Ebb
libpqComponents.so.1:_ZN15pqProxiesWidgetC1EP7QWidget6QFlagsIN2Qt10WindowTypeEE
libpqComponents.so.1:_ZN15pqProxiesWidgetC2EP7QWidget6QFlagsIN2Qt10WindowTypeEE
libpqComponents.so.1:_ZN15pqProxiesWidgetD0Ev
libpqComponents.so.1:_ZN15pqProxiesWidgetD1Ev
libpqComponents.so.1:_ZN15pqProxiesWidgetD2Ev
libpqComponents.so.1:_ZN15pqVCRController10timeRangesEdd
libpqComponents.so.1:_ZN15pqVCRController11onBeginPlayEP9vtkObjectmPvS2_
libpqComponents.so.1:_ZN15pqVCRController11onLastFrameEv
libpqComponents.so.1:_ZN15pqVCRController11onNextFrameEv
libpqComponents.so.1:_ZN15pqVCRController11qt_metacallEN11QMetaObject4CallEiPPv
libpqComponents.so.1:_ZN15pqVCRController11qt_metacastEPKc
libpqComponents.so.1:_ZN15pqVCRController12onFirstFrameEv
libpqComponents.so.1:_ZN15pqVCRController14onPlayInternalEv
libpqComponents.so.1:_ZN15pqVCRController15onPreviousFrameEv
libpqComponents.so.1:_ZN15pqVCRController15timestepChangedEv
libpqComponents.so.1:_ZN15pqVCRController16staticMetaObjectE
libpqComponents.so.1:_ZN15pqVCRController17onReverseInternalEv
libpqComponents.so.1:_ZN15pqVCRController17setAnimationSceneEP16pqAnimationScene
libpqComponents.so.1:_ZN15pqVCRController19onTimeRangesChangedEv
libpqComponents.so.1:_ZN15pqVCRController21onLoopPropertyChangedEv
libpqComponents.so.1:_ZN15pqVCRController4loopEb
libpqComponents.so.1:_ZN15pqVCRController6onLoopEb
libpqComponents.so.1:_ZN15pqVCRController6onPlayEv
libpqComponents.so.1:_ZN15pqVCRController6onTickEv
libpqComponents.so.1:_ZN15pqVCRController7enabledEb
libpqComponents.so.1:_ZN15pqVCRController7onPauseEv
libpqComponents.so.1:_ZN15pqVCRController7playingEbb
libpqComponents.so.1:_ZN15pqVCRController9onEndPlayEP9vtkObjectmPvS2_
libpqComponents.so.1:_ZN15pqVCRController9onReverseEv
libpqComponents.so.1:_ZN15pqVCRControllerC1EP7QObject
libpqComponents.so.1:_ZN15pqVCRControllerC2EP7QObject
libpqComponents.so.1:_ZN15pqVCRControllerD0Ev
libpqComponents.so.1:_ZN15pqVCRControllerD1Ev
libpqComponents.so.1:_ZN15pqVCRControllerD2Ev
libpqComponents.so.1:_ZN16pqComboBoxDomain11qt_metacallEN11QMetaObject4CallEiPPv
libpqComponents.so.1:_ZN16pqComboBoxDomain11qt_metacastEPKc
libpqComponents.so.1:_ZN16pqComboBoxDomain12insertStringEiRK7QString
libpqComponents.so.1:_ZN16pqComboBoxDomain12removeStringERK7QString
libpqComponents.so.1:_ZN16pqComboBoxDomain13domainChangedEv
libpqComponents.so.1:_ZN16pqComboBoxDomain13markForUpdateEb
libpqComponents.so.1:_ZN16pqComboBoxDomain16removeAllStringsEv
libpqComponents.so.1:_ZN16pqComboBoxDomain16staticMetaObjectE
libpqComponents.so.1:_ZN16pqComboBoxDomain21internalDomainChangedEv
libpqComponents.so.1:_ZN16pqComboBoxDomain7getIconEi
libpqComponents.so.1:_ZN16pqComboBoxDomain9addStringERK7QString
libpqComponents.so.1:_ZN16pqComboBoxDomainC1EP9QComboBoxP13vtkSMPropertyP11vtkSMDomain
libpqComponents.so.1:_ZN16pqComboBoxDomainC2EP9QComboBoxP13vtkSMPropertyP11vtkSMDomain
libpqComponents.so.1:_ZN16pqComboBoxDomainD0Ev
libpqComponents.so.1:_ZN16pqComboBoxDomainD1Ev
libpqComponents.so.1:_ZN16pqComboBoxDomainD2Ev
libpqComponents.so.1:_ZN16pqIntRangeWidget10setMaximumEi
libpqComponents.so.1:_ZN16pqIntRangeWidget10setMinimumEi
libpqComponents.so.1:_ZN16pqIntRangeWidget11qt_metacallEN11QMetaObject4CallEiPPv
libpqComponents.so.1:_ZN16pqIntRangeWidget11qt_metacastEPKc
libpqComponents.so.1:_ZN16pqIntRangeWidget11textChangedERK7QString
libpqComponents.so.1:_ZN16pqIntRangeWidget11valueEditedEi
libpqComponents.so.1:_ZN16pqIntRangeWidget12valueChangedEi
libpqComponents.so.1:_ZN16pqIntRangeWidget13domainChangedEv
libpqComponents.so.1:_ZN16pqIntRangeWidget13sliderChangedEi
libpqComponents.so.1:_ZN16pqIntRangeWidget13sliderPressedEv
libpqComponents.so.1:_ZN16pqIntRangeWidget14sliderReleasedEv
libpqComponents.so.1:_ZN16pqIntRangeWidget15editingFinishedEv
libpqComponents.so.1:_ZN16pqIntRangeWidget15emitValueEditedEv
libpqComponents.so.1:_ZN16pqIntRangeWidget15updateValidatorEv
libpqComponents.so.1:_ZN16pqIntRangeWidget16staticMetaObjectE
libpqComponents.so.1:_ZN16pqIntRangeWidget25emitIfDeferredValueEditedEv
libpqComponents.so.1:_ZN16pqIntRangeWidget8setValueEi
libpqComponents.so.1:_ZN16pqIntRangeWidget9setDomainEP19vtkSMIntRangeDomain
libpqComponents.so.1:_ZN16pqIntRangeWidgetC1EP7QWidget
libpqComponents.so.1:_ZN16pqIntRangeWidgetC2EP7QWidget
libpqComponents.so.1:_ZN16pqIntRangeWidgetD0Ev
libpqComponents.so.1:_ZN16pqIntRangeWidgetD1Ev
libpqComponents.so.1:_ZN16pqIntRangeWidgetD2Ev
libpqComponents.so.1:_ZN16pqKeyFrameEditor11newKeyFrameEv
libpqComponents.so.1:_ZN16pqKeyFrameEditor11qt_metacallEN11QMetaObject4CallEiPPv
libpqComponents.so.1:_ZN16pqKeyFrameEditor11qt_metacastEPKc
libpqComponents.so.1:_ZN16pqKeyFrameEditor13setValuesOnlyEb
libpqComponents.so.1:_ZN16pqKeyFrameEditor13updateButtonsEv
libpqComponents.so.1:_ZN16pqKeyFrameEditor14deleteKeyFrameEv
libpqComponents.so.1:_ZN16pqKeyFrameEditor16exportTrajectoryEv
libpqComponents.so.1:_ZN16pqKeyFrameEditor16importTrajectoryEv
libpqComponents.so.1:_ZN16pqKeyFrameEditor16readKeyFrameDataEv
libpqComponents.so.1:_ZN16pqKeyFrameEditor16staticMetaObjectE
libpqComponents.so.1:_ZN16pqKeyFrameEditor16updateSplineModeEv
libpqComponents.so.1:_ZN16pqKeyFrameEditor16useCurrentCameraEP13QStandardItem
libpqComponents.so.1:_ZN16pqKeyFrameEditor17writeKeyFrameDataEv
libpqComponents.so.1:_ZN16pqKeyFrameEditor18deleteAllKeyFramesEv
libpqComponents.so.1:_ZN16pqKeyFrameEditor19updateCurrentCameraEP13QStandardItem
libpqComponents.so.1:_ZN16pqKeyFrameEditor21createOrbitalKeyFrameEv
libpqComponents.so.1:_ZN16pqKeyFrameEditor27useCurrentCameraForSelectedEv
libpqComponents.so.1:_ZN16pqKeyFrameEditor31updateCurrentCameraWithSelectedEv
libpqComponents.so.1:_ZN16pqKeyFrameEditor8modifiedEv
libpqComponents.so.1:_ZN16pqKeyFrameEditorC1EP16pqAnimationSceneP14pqAnimationCueRK7QStringP7QWidget
libpqComponents.so.1:_ZN16pqKeyFrameEditorC2EP16pqAnimationSceneP14pqAnimationCueRK7QStringP7QWidget
libpqComponents.so.1:_ZN16pqKeyFrameEditorD0Ev
libpqComponents.so.1:_ZN16pqKeyFrameEditorD1Ev
libpqComponents.so.1:_ZN16pqKeyFrameEditorD2Ev
libpqComponents.so.1:_ZN16pqLiveSourceItem11getSourceIdEv
libpqComponents.so.1:_ZN16pqLiveSourceItem11onViewAddedEP6pqView
libpqComponents.so.1:_ZN16pqLiveSourceItem11qt_metacallEN11QMetaObject4CallEiPPv
libpqComponents.so.1:_ZN16pqLiveSourceItem11qt_metacastEPKc
libpqComponents.so.1:_ZN16pqLiveSourceItem12stateChangedEb
libpqComponents.so.1:_ZN16pqLiveSourceItem13refreshSourceEv
libpqComponents.so.1:_ZN16pqLiveSourceItem16staticMetaObjectE
libpqComponents.so.1:_ZN16pqLiveSourceItem17getTimestampRangeEv
libpqComponents.so.1:_ZN16pqLiveSourceItem19endInteractionEventEv
libpqComponents.so.1:_ZN16pqLiveSourceItem19onUpdateInformationEv
libpqComponents.so.1:_ZN16pqLiveSourceItem20onInformationUpdatedEv
libpqComponents.so.1:_ZN16pqLiveSourceItem21startInteractionEventEv
libpqComponents.so.1:_ZN16pqLiveSourceItem23isEmulatedTimeAlgorithmEv
libpqComponents.so.1:_ZN16pqLiveSourceItem5pauseEv
libpqComponents.so.1:_ZN16pqLiveSourceItem6resumeEv
libpqComponents.so.1:_ZN16pqLiveSourceItem6updateEd
libpqComponents.so.1:_ZN16pqLiveSourceItem8isPausedEv
libpqComponents.so.1:_ZN16pqLiveSourceItemC1EP16pqPipelineSourceP15vtkPVXMLElementP7QObject
libpqComponents.so.1:_ZN16pqLiveSourceItemC2EP16pqPipelineSourceP15vtkPVXMLElementP7QObject
libpqComponents.so.1:_ZN16pqLiveSourceItemD0Ev
libpqComponents.so.1:_ZN16pqLiveSourceItemD1Ev
libpqComponents.so.1:_ZN16pqLiveSourceItemD2Ev
libpqComponents.so.1:_ZN16pqPresetToPixmap11qt_metacallEN11QMetaObject4CallEiPPv
libpqComponents.so.1:_ZN16pqPresetToPixmap11qt_metacastEPKc
libpqComponents.so.1:_ZN16pqPresetToPixmap16staticMetaObjectE
libpqComponents.so.1:_ZN16pqPresetToPixmapC1EP7QObject
libpqComponents.so.1:_ZN16pqPresetToPixmapC2EP7QObject
libpqComponents.so.1:_ZN16pqPresetToPixmapD0Ev
libpqComponents.so.1:_ZN16pqPresetToPixmapD1Ev
libpqComponents.so.1:_ZN16pqPresetToPixmapD2Ev
libpqComponents.so.1:_ZN16pqPropertyWidget10getTooltipEP13vtkSMProperty
libpqComponents.so.1:_ZN16pqPropertyWidget11qt_metacallEN11QMetaObject4CallEiPPv
libpqComponents.so.1:_ZN16pqPropertyWidget11qt_metacastEPKc
libpqComponents.so.1:_ZN16pqPropertyWidget11setPropertyEP13vtkSMProperty
libpqComponents.so.1:_ZN16pqPropertyWidget11setReadOnlyEb
libpqComponents.so.1:_ZN16pqPropertyWidget11viewChangedEP6pqView
libpqComponents.so.1:_ZN16pqPropertyWidget12addDecoratorEP25pqPropertyWidgetDecorator
libpqComponents.so.1:_ZN16pqPropertyWidget12setShowLabelEb
libpqComponents.so.1:_ZN16pqPropertyWidget14changeFinishedEv
libpqComponents.so.1:_ZN16pqPropertyWidget15addPropertyLinkEP7QObjectPKcS3_P10vtkSMProxyP13vtkSMPropertyi
libpqComponents.so.1:_ZN16pqPropertyWidget15addPropertyLinkEP7QObjectPKcS3_P13vtkSMPropertyi
libpqComponents.so.1:_ZN16pqPropertyWidget15changeAvailableEv
libpqComponents.so.1:_ZN16pqPropertyWidget15removeDecoratorEP25pqPropertyWidgetDecorator
libpqComponents.so.1:_ZN16pqPropertyWidget15restartRequiredEv
libpqComponents.so.1:_ZN16pqPropertyWidget16staticMetaObjectE
libpqComponents.so.1:_ZN16pqPropertyWidget17onChangeAvailableEv
libpqComponents.so.1:_ZN16pqPropertyWidget18removePropertyLinkEP7QObjectPKcS3_P10vtkSMProxyP13vtkSMPropertyi
libpqComponents.so.1:_ZN16pqPropertyWidget18removePropertyLinkEP7QObjectPKcS3_P13vtkSMPropertyi
libpqComponents.so.1:_ZN16pqPropertyWidget18setPanelVisibilityEPKc
libpqComponents.so.1:_ZN16pqPropertyWidget20parseComponentLabelsB5cxx11EP15vtkPVXMLElementj
libpqComponents.so.1:_ZN16pqPropertyWidget29hintsWidgetHeightNumberOfRowsEP15vtkPVXMLElementi
libpqComponents.so.1:_ZN16pqPropertyWidget5applyEv
libpqComponents.so.1:_ZN16pqPropertyWidget5resetEv
libpqComponents.so.1:_ZN16pqPropertyWidget7setViewEP6pqView
libpqComponents.so.1:_ZN16pqPropertyWidgetC1EP10vtkSMProxyP7QWidget
libpqComponents.so.1:_ZN16pqPropertyWidgetC2EP10vtkSMProxyP7QWidget
libpqComponents.so.1:_ZN16pqPropertyWidgetD0Ev
libpqComponents.so.1:_ZN16pqPropertyWidgetD1Ev
libpqComponents.so.1:_ZN16pqPropertyWidgetD2Ev
libpqComponents.so.1:_ZN16pqScalarSetModel11qt_metacallEN11QMetaObject4CallEiPPv
libpqComponents.so.1:_ZN16pqScalarSetModel11qt_metacastEPKc
libpqComponents.so.1:_ZN16pqScalarSetModel16setPreserveOrderEb
libpqComponents.so.1:_ZN16pqScalarSetModel16staticMetaObjectE
libpqComponents.so.1:_ZN16pqScalarSetModel5clearEv
libpqComponents.so.1:_ZN16pqScalarSetModel5eraseEd
libpqComponents.so.1:_ZN16pqScalarSetModel5eraseEi
libpqComponents.so.1:_ZN16pqScalarSetModel6insertEd
libpqComponents.so.1:_ZN16pqScalarSetModel6valuesEv
libpqComponents.so.1:_ZN16pqScalarSetModel7setDataERK11QModelIndexRK8QVarianti
libpqComponents.so.1:_ZN16pqScalarSetModel9setFormatEci
libpqComponents.so.1:_ZN16pqScalarSetModelC1Ev
libpqComponents.so.1:_ZN16pqScalarSetModelC2Ev
libpqComponents.so.1:_ZN16pqScalarSetModelD0Ev
libpqComponents.so.1:_ZN16pqScalarSetModelD1Ev
libpqComponents.so.1:_ZN16pqScalarSetModelD2Ev
libpqComponents.so.1:_ZN16pqServerLauncher11newInstanceERK21pqServerConfigurationP7QObject
libpqComponents.so.1:_ZN16pqServerLauncher11qt_metacallEN11QMetaObject4CallEiPPv
libpqComponents.so.1:_ZN16pqServerLauncher11qt_metacastEPKc
libpqComponents.so.1:_ZN16pqServerLauncher12launchServerEb
libpqComponents.so.1:_ZN16pqServerLauncher13processFailedEN8QProcess12ProcessErrorE
libpqComponents.so.1:_ZN16pqServerLauncher13promptOptionsEv
libpqComponents.so.1:_ZN16pqServerLauncher14processCommandE7QStringddPK19QProcessEnvironment
libpqComponents.so.1:_ZN16pqServerLauncher15connectToServerEb
libpqComponents.so.1:_ZN16pqServerLauncher16staticMetaObjectE
libpqComponents.so.1:_ZN16pqServerLauncher17readStandardErrorEv
libpqComponents.so.1:_ZN16pqServerLauncher18readStandardOutputEv
libpqComponents.so.1:_ZN16pqServerLauncher24handleProcessErrorOutputERK10QByteArray
libpqComponents.so.1:_ZN16pqServerLauncher25DefaultServerLauncherTypeE
libpqComponents.so.1:_ZN16pqServerLauncher25defaultServerLauncherTypeEv
libpqComponents.so.1:_ZN16pqServerLauncher26connectToPrelaunchedServerEb
libpqComponents.so.1:_ZN16pqServerLauncher27handleProcessStandardOutputERK10QByteArray
libpqComponents.so.1:_ZN16pqServerLauncher28setServerDefaultLauncherTypeEPK11QMetaObject
libpqComponents.so.1:_ZN16pqServerLauncher32launchServerForReverseConnectionEv
libpqComponents.so.1:_ZN16pqServerLauncher32updateOptionsUsingUserSelectionsEv
libpqComponents.so.1:_ZN16pqServerLauncherC1ERK21pqServerConfigurationP7QObject
libpqComponents.so.1:_ZN16pqServerLauncherC2ERK21pqServerConfigurationP7QObject
libpqComponents.so.1:_ZN16pqServerLauncherD0Ev
libpqComponents.so.1:_ZN16pqServerLauncherD1Ev
libpqComponents.so.1:_ZN16pqServerLauncherD2Ev
libpqComponents.so.1:_ZN16pqSettingsDialog10onAcceptedEv
libpqComponents.so.1:_ZN16pqSettingsDialog10onRejectedEv
libpqComponents.so.1:_ZN16pqSettingsDialog11qt_metacallEN11QMetaObject4CallEiPPv
libpqComponents.so.1:_ZN16pqSettingsDialog11qt_metacastEPKc
libpqComponents.so.1:_ZN16pqSettingsDialog13filterWidgetsEbRK7QString
libpqComponents.so.1:_ZN16pqSettingsDialog13serverRemovedEP8pqServer
libpqComponents.so.1:_ZN16pqSettingsDialog16staticMetaObjectE
libpqComponents.so.1:_ZN16pqSettingsDialog17onChangeAvailableEv
libpqComponents.so.1:_ZN16pqSettingsDialog17onTabIndexChangedEi
libpqComponents.so.1:_ZN16pqSettingsDialog18filterPanelWidgetsEv
libpqComponents.so.1:_ZN16pqSettingsDialog19ShowRestartRequiredE
libpqComponents.so.1:_ZN16pqSettingsDialog26showRestartRequiredMessageEv
libpqComponents.so.1:_ZN16pqSettingsDialog7clickedEP15QAbstractButton
libpqComponents.so.1:_ZN16pqSettingsDialog7showTabERK7QString
libpqComponents.so.1:_ZN16pqSettingsDialogC1EP7QWidget6QFlagsIN2Qt10WindowTypeEERK5QListI7QStringE
libpqComponents.so.1:_ZN16pqSettingsDialogC2EP7QWidget6QFlagsIN2Qt10WindowTypeEERK5QListI7QStringE
libpqComponents.so.1:_ZN16pqSettingsDialogD0Ev
libpqComponents.so.1:_ZN16pqSettingsDialogD1Ev
libpqComponents.so.1:_ZN16pqSettingsDialogD2Ev
libpqComponents.so.1:_ZN17pqArrayListDomain11qt_metacallEN11QMetaObject4CallEiPPv
libpqComponents.so.1:_ZN17pqArrayListDomain11qt_metacastEPKc
libpqComponents.so.1:_ZN17pqArrayListDomain13domainChangedEv
libpqComponents.so.1:_ZN17pqArrayListDomain16staticMetaObjectE
libpqComponents.so.1:_ZN17pqArrayListDomainC1EP7QWidgetRK7QStringP10vtkSMProxyP13vtkSMPropertyP11vtkSMDomain
libpqComponents.so.1:_ZN17pqArrayListDomainC2EP7QWidgetRK7QStringP10vtkSMProxyP13vtkSMPropertyP11vtkSMDomain
libpqComponents.so.1:_ZN17pqArrayListDomainD0Ev
libpqComponents.so.1:_ZN17pqArrayListDomainD1Ev
libpqComponents.so.1:_ZN17pqArrayListDomainD2Ev
libpqComponents.so.1:_ZN17pqArrayListWidget11qt_metacallEN11QMetaObject4CallEiPPv
libpqComponents.so.1:_ZN17pqArrayListWidget11qt_metacastEPKc
libpqComponents.so.1:_ZN17pqArrayListWidget11setIconTypeERK7QString
libpqComponents.so.1:_ZN17pqArrayListWidget14setHeaderLabelERK7QString
libpqComponents.so.1:_ZN17pqArrayListWidget14updatePropertyEv
libpqComponents.so.1:_ZN17pqArrayListWidget14widgetModifiedEv
libpqComponents.so.1:_ZN17pqArrayListWidget15propertyChangedERK7QString
libpqComponents.so.1:_ZN17pqArrayListWidget16staticMetaObjectE
libpqComponents.so.1:_ZN17pqArrayListWidget33setMaximumRowCountBeforeScrollingEi
libpqComponents.so.1:_ZN17pqArrayListWidget5eventEP6QEvent
libpqComponents.so.1:_ZN17pqArrayListWidgetC1EP7QWidget
libpqComponents.so.1:_ZN17pqArrayListWidgetC2EP7QWidget
libpqComponents.so.1:_ZN17pqLightsInspector10resetLightEP10vtkSMProxy
libpqComponents.so.1:_ZN17pqLightsInspector11qt_metacallEN11QMetaObject4CallEiPPv
libpqComponents.so.1:_ZN17pqLightsInspector11qt_metacastEPKc
libpqComponents.so.1:_ZN17pqLightsInspector11removeLightEP10vtkSMProxy
libpqComponents.so.1:_ZN17pqLightsInspector13setActiveViewEP6pqView
libpqComponents.so.1:_ZN17pqLightsInspector15updateAndRenderEv
libpqComponents.so.1:_ZN17pqLightsInspector16staticMetaObjectE
libpqComponents.so.1:_ZN17pqLightsInspector17syncLightToCameraEP10vtkSMProxy
libpqComponents.so.1:_ZN17pqLightsInspector6renderEv
libpqComponents.so.1:_ZN17pqLightsInspector8addLightEv
libpqComponents.so.1:_ZN17pqLightsInspectorC1EP7QWidget6QFlagsIN2Qt10WindowTypeEEb
libpqComponents.so.1:_ZN17pqLightsInspectorC2EP7QWidget6QFlagsIN2Qt10WindowTypeEEb
libpqComponents.so.1:_ZN17pqLightsInspectorD0Ev
libpqComponents.so.1:_ZN17pqLightsInspectorD1Ev
libpqComponents.so.1:_ZN17pqLightsInspectorD2Ev
libpqComponents.so.1:_ZN17pqLogViewerDialog10addLogViewEv
libpqComponents.so.1:_ZN17pqLogViewerDialog11eventFilterEP7QObjectP6QEvent
libpqComponents.so.1:_ZN17pqLogViewerDialog11qt_metacallEN11QMetaObject4CallEiPPv
libpqComponents.so.1:_ZN17pqLogViewerDialog11qt_metacastEPKc
libpqComponents.so.1:_ZN17pqLogViewerDialog12getVerbosityEi
libpqComponents.so.1:_ZN17pqLogViewerDialog12linkedScrollEd
libpqComponents.so.1:_ZN17pqLogViewerDialog13appendLogViewEP23pqSingleLogViewerWidget
libpqComponents.so.1:_ZN17pqLogViewerDialog14recordRefTimesEv
libpqComponents.so.1:_ZN17pqLogViewerDialog14updateCategoryEib
libpqComponents.so.1:_ZN17pqLogViewerDialog16staticMetaObjectE
libpqComponents.so.1:_ZN17pqLogViewerDialog16updateCategoriesEv
libpqComponents.so.1:_ZN17pqLogViewerDialog17getVerbosityIndexEN9vtkLogger9VerbosityE
libpqComponents.so.1:_ZN17pqLogViewerDialog19setProcessVerbosityEii
libpqComponents.so.1:_ZN17pqLogViewerDialog21initializeVerbositiesEP9QComboBox
libpqComponents.so.1:_ZN17pqLogViewerDialog22initializeRankComboBoxEv
libpqComponents.so.1:_ZN17pqLogViewerDialog29initializeVerbosityComboBoxesEv
libpqComponents.so.1:_ZN17pqLogViewerDialog5clearEv
libpqComponents.so.1:_ZN17pqLogViewerDialog7refreshEv
libpqComponents.so.1:_ZN17pqLogViewerDialogC1EP7QWidget
libpqComponents.so.1:_ZN17pqLogViewerDialogC2EP7QWidget
libpqComponents.so.1:_ZN17pqLogViewerDialogD0Ev
libpqComponents.so.1:_ZN17pqLogViewerDialogD1Ev
libpqComponents.so.1:_ZN17pqLogViewerDialogD2Ev
libpqComponents.so.1:_ZN17pqMultiViewWidget10makeActiveEP11pqViewFrame
libpqComponents.so.1:_ZN17pqMultiViewWidget10markActiveEP11pqViewFrame
libpqComponents.so.1:_ZN17pqMultiViewWidget10markActiveEP6pqView
libpqComponents.so.1:_ZN17pqMultiViewWidget11activeFrameEv
libpqComponents.so.1:_ZN17pqMultiViewWidget11eventFilterEP7QObjectP6QEvent
libpqComponents.so.1:_ZN17pqMultiViewWidget11qt_metacallEN11QMetaObject4CallEiPPv
libpqComponents.so.1:_ZN17pqMultiViewWidget11qt_metacastEPKc
libpqComponents.so.1:_ZN17pqMultiViewWidget11resizeEventEP12QResizeEvent
libpqComponents.so.1:_ZN17pqMultiViewWidget12lockViewSizeERK5QSize
libpqComponents.so.1:_ZN17pqMultiViewWidget12proxyRemovedEP7pqProxy
libpqComponents.so.1:_ZN17pqMultiViewWidget12togglePopoutEv
libpqComponents.so.1:_ZN17pqMultiViewWidget13swapPositionsERK7QString
libpqComponents.so.1:_ZN17pqMultiViewWidget14frameActivatedEv
libpqComponents.so.1:_ZN17pqMultiViewWidget15destroyAllViewsEv
libpqComponents.so.1:_ZN17pqMultiViewWidget15makeFrameActiveEv
libpqComponents.so.1:_ZN17pqMultiViewWidget16setLayoutManagerEP20vtkSMViewLayoutProxy
libpqComponents.so.1:_ZN17pqMultiViewWidget16staticMetaObjectE
libpqComponents.so.1:_ZN17pqMultiViewWidget21standardButtonPressedEi
libpqComponents.so.1:_ZN17pqMultiViewWidget22layoutPropertyModifiedEP9vtkObjectmPv
libpqComponents.so.1:_ZN17pqMultiViewWidget24setDecorationsVisibilityEb
libpqComponents.so.1:_ZN17pqMultiViewWidget28decorationsVisibilityChangedEb
libpqComponents.so.1:_ZN17pqMultiViewWidget5resetEv
libpqComponents.so.1:_ZN17pqMultiViewWidget6reloadEv
libpqComponents.so.1:_ZN17pqMultiViewWidget7previewERK5QSize
libpqComponents.so.1:_ZN17pqMultiViewWidget8newFrameEP10vtkSMProxy
libpqComponents.so.1:_ZN17pqMultiViewWidget9viewAddedEP6pqView
libpqComponents.so.1:_ZN17pqMultiViewWidgetC1EP7QWidget6QFlagsIN2Qt10WindowTypeEE
libpqComponents.so.1:_ZN17pqMultiViewWidgetC2EP7QWidget6QFlagsIN2Qt10WindowTypeEE
libpqComponents.so.1:_ZN17pqMultiViewWidgetD0Ev
libpqComponents.so.1:_ZN17pqMultiViewWidgetD1Ev
libpqComponents.so.1:_ZN17pqMultiViewWidgetD2Ev
libpqComponents.so.1:_ZN17pqPropertiesPanel11copyDisplayEv
libpqComponents.so.1:_ZN17pqPropertiesPanel11deleteProxyEv
libpqComponents.so.1:_ZN17pqPropertiesPanel11qt_metacallEN11QMetaObject4CallEiPPv
libpqComponents.so.1:_ZN17pqPropertiesPanel11qt_metacastEPKc
libpqComponents.so.1:_ZN17pqPropertiesPanel11updatePanelEv
libpqComponents.so.1:_ZN17pqPropertiesPanel11viewChangedEP6pqView
libpqComponents.so.1:_ZN17pqPropertiesPanel12pasteDisplayEv
libpqComponents.so.1:_ZN17pqPropertiesPanel12proxyDeletedEP7pqProxy
libpqComponents.so.1:_ZN17pqPropertiesPanel12setPanelModeEi
libpqComponents.so.1:_ZN17pqPropertiesPanel13helpRequestedERK7QStringS2_
libpqComponents.so.1:_ZN17pqPropertiesPanel14copyPropertiesEv
libpqComponents.so.1:_ZN17pqPropertiesPanel15deleteRequestedEP7pqProxy
libpqComponents.so.1:_ZN17pqPropertiesPanel15pastePropertiesEv
libpqComponents.so.1:_ZN17pqPropertiesPanel15updateViewPanelEP6pqView
libpqComponents.so.1:_ZN17pqPropertiesPanel16renderActiveViewEv
libpqComponents.so.1:_ZN17pqPropertiesPanel16setPipelineProxyEP7pqProxy
libpqComponents.so.1:_ZN17pqPropertiesPanel16staticMetaObjectE
libpqComponents.so.1:_ZN17pqPropertiesPanel17setRepresentationEP20pqDataRepresentation
libpqComponents.so.1:_ZN17pqPropertiesPanel17updateButtonStateEv
libpqComponents.so.1:_ZN17pqPropertiesPanel18updateDisplayPanelEP20pqDataRepresentation
libpqComponents.so.1:_ZN17pqPropertiesPanel18updateDisplayPanelEv
libpqComponents.so.1:_ZN17pqPropertiesPanel18viewSaveAsDefaultsEv
libpqComponents.so.1:_ZN17pqPropertiesPanel19viewRestoreDefaultsEv
libpqComponents.so.1:_ZN17pqPropertiesPanel21displaySaveAsDefaultsEv
libpqComponents.so.1:_ZN17pqPropertiesPanel21sourcePropertyChangedEb
libpqComponents.so.1:_ZN17pqPropertiesPanel21updatePropertiesPanelEP7pqProxy
libpqComponents.so.1:_ZN17pqPropertiesPanel22displayRestoreDefaultsEv
libpqComponents.so.1:_ZN17pqPropertiesPanel23applyEnableStateChangedEv
libpqComponents.so.1:_ZN17pqPropertiesPanel23updateButtonEnableStateEv
libpqComponents.so.1:_ZN17pqPropertiesPanel24propertiesSaveAsDefaultsEv
libpqComponents.so.1:_ZN17pqPropertiesPanel25propertiesRestoreDefaultsEv
libpqComponents.so.1:_ZN17pqPropertiesPanel5applyEv
libpqComponents.so.1:_ZN17pqPropertiesPanel5resetEv
libpqComponents.so.1:_ZN17pqPropertiesPanel7appliedEP7pqProxy
libpqComponents.so.1:_ZN17pqPropertiesPanel7appliedEv
libpqComponents.so.1:_ZN17pqPropertiesPanel7setViewEP6pqView
libpqComponents.so.1:_ZN17pqPropertiesPanel8canApplyEv
libpqComponents.so.1:_ZN17pqPropertiesPanel8canResetEv
libpqComponents.so.1:_ZN17pqPropertiesPanel8copyViewEv
libpqComponents.so.1:_ZN17pqPropertiesPanel8modifiedEv
libpqComponents.so.1:_ZN17pqPropertiesPanel8showHelpEv
libpqComponents.so.1:_ZN17pqPropertiesPanel9pasteViewEv
libpqComponents.so.1:_ZN17pqPropertiesPanel9resetDoneEv
libpqComponents.so.1:_ZN17pqPropertiesPanelC1EP7QWidget
libpqComponents.so.1:_ZN17pqPropertiesPanelC2EP7QWidget
libpqComponents.so.1:_ZN17pqPropertiesPanelD0Ev
libpqComponents.so.1:_ZN17pqPropertiesPanelD1Ev
libpqComponents.so.1:_ZN17pqPropertiesPanelD2Ev
libpqComponents.so.1:_ZN17pqRecentFilesMenu11qt_metacallEN11QMetaObject4CallEiPPv
libpqComponents.so.1:_ZN17pqRecentFilesMenu11qt_metacastEPKc
libpqComponents.so.1:_ZN17pqRecentFilesMenu14onOpenResourceEP7QAction
libpqComponents.so.1:_ZN17pqRecentFilesMenu14onOpenResourceERK16pqServerResource
libpqComponents.so.1:_ZN17pqRecentFilesMenu16staticMetaObjectE
libpqComponents.so.1:_ZN17pqRecentFilesMenu9buildMenuEv
libpqComponents.so.1:_ZN17pqRecentFilesMenuC1ER5QMenuP7QObject
libpqComponents.so.1:_ZN17pqRecentFilesMenuC2ER5QMenuP7QObject
libpqComponents.so.1:_ZN17pqRecentFilesMenuD0Ev
libpqComponents.so.1:_ZN17pqRecentFilesMenuD1Ev
libpqComponents.so.1:_ZN17pqRecentFilesMenuD2Ev
libpqComponents.so.1:_ZN17pqTextureComboBox11loadTextureERK7QString
libpqComponents.so.1:_ZN17pqTextureComboBox11loadTextureEv
libpqComponents.so.1:_ZN17pqTextureComboBox11qt_metacallEN11QMetaObject4CallEiPPv
libpqComponents.so.1:_ZN17pqTextureComboBox11qt_metacastEPKc
libpqComponents.so.1:_ZN17pqTextureComboBox14textureChangedEP10vtkSMProxy
libpqComponents.so.1:_ZN17pqTextureComboBox14updateTexturesEv
libpqComponents.so.1:_ZN17pqTextureComboBox15proxyRegisteredERK7QStringS2_P10vtkSMProxy
libpqComponents.so.1:_ZN17pqTextureComboBox16staticMetaObjectE
libpqComponents.so.1:_ZN17pqTextureComboBox17proxyUnRegisteredERK7QStringS2_P10vtkSMProxy
libpqComponents.so.1:_ZN17pqTextureComboBox17updateFromTextureEP10vtkSMProxy
libpqComponents.so.1:_ZN17pqTextureComboBox21onCurrentIndexChangedEi
libpqComponents.so.1:_ZN17pqTextureComboBoxC1EP21vtkSMProxyGroupDomainP7QWidget
libpqComponents.so.1:_ZN17pqTextureComboBoxC1EP21vtkSMProxyGroupDomainbP7QWidget
libpqComponents.so.1:_ZN17pqTextureComboBoxC2EP21vtkSMProxyGroupDomainP7QWidget
libpqComponents.so.1:_ZN17pqTextureComboBoxC2EP21vtkSMProxyGroupDomainbP7QWidget
libpqComponents.so.1:_ZN17pqTimerLogDisplay11qt_metacallEN11QMetaObject4CallEiPPv
libpqComponents.so.1:_ZN17pqTimerLogDisplay11qt_metacastEPKc
libpqComponents.so.1:_ZN17pqTimerLogDisplay12restoreStateEv
libpqComponents.so.1:_ZN17pqTimerLogDisplay15setBufferLengthEi
libpqComponents.so.1:_ZN17pqTimerLogDisplay16setTimeThresholdEf
libpqComponents.so.1:_ZN17pqTimerLogDisplay16staticMetaObjectE
libpqComponents.so.1:_ZN17pqTimerLogDisplay19setBufferLengthByIdEi
libpqComponents.so.1:_ZN17pqTimerLogDisplay20setTimeThresholdByIdEi
libpqComponents.so.1:_ZN17pqTimerLogDisplay4saveERK5QListI7QStringE
libpqComponents.so.1:_ZN17pqTimerLogDisplay4saveERK7QString
libpqComponents.so.1:_ZN17pqTimerLogDisplay4saveEv
libpqComponents.so.1:_ZN17pqTimerLogDisplay5clearEv
libpqComponents.so.1:_ZN17pqTimerLogDisplay7refreshEv
libpqComponents.so.1:_ZN17pqTimerLogDisplay8addToLogERK7QStringP21vtkPVTimerInformation
libpqComponents.so.1:_ZN17pqTimerLogDisplay9hideEventEP10QHideEvent
libpqComponents.so.1:_ZN17pqTimerLogDisplay9saveStateEv
libpqComponents.so.1:_ZN17pqTimerLogDisplay9setEnableEb
libpqComponents.so.1:_ZN17pqTimerLogDisplay9showEventEP10QShowEvent
libpqComponents.so.1:_ZN17pqTimerLogDisplayC1EP7QWidget
libpqComponents.so.1:_ZN17pqTimerLogDisplayC2EP7QWidget
libpqComponents.so.1:_ZN17pqTimerLogDisplayD0Ev
libpqComponents.so.1:_ZN17pqTimerLogDisplayD1Ev
libpqComponents.so.1:_ZN17pqTimerLogDisplayD2Ev
libpqComponents.so.1:_ZN18pqAnimationManager11onBeginPlayEP9vtkObjectmPvS2_
libpqComponents.so.1:_ZN18pqAnimationManager11qt_metacallEN11QMetaObject4CallEiPPv
libpqComponents.so.1:_ZN18pqAnimationManager11qt_metacastEPKc
libpqComponents.so.1:_ZN18pqAnimationManager12onProxyAddedEP7pqProxy
libpqComponents.so.1:_ZN18pqAnimationManager12saveGeometryERK7QStringP6pqView
libpqComponents.so.1:_ZN18pqAnimationManager12saveProgressERK7QStringi
libpqComponents.so.1:_ZN18pqAnimationManager14onProxyRemovedEP7pqProxy
libpqComponents.so.1:_ZN18pqAnimationManager14writeAnimationERK7QStringid
libpqComponents.so.1:_ZN18pqAnimationManager16staticMetaObjectE
libpqComponents.so.1:_ZN18pqAnimationManager18activeSceneChangedEP16pqAnimationScene
libpqComponents.so.1:_ZN18pqAnimationManager19activeServerChangedEP8pqServer
libpqComponents.so.1:_ZN18pqAnimationManager21endNonUndoableChangesEv
libpqComponents.so.1:_ZN18pqAnimationManager21onActiveServerChangedEP8pqServer
libpqComponents.so.1:_ZN18pqAnimationManager23beginNonUndoableChangesEv
libpqComponents.so.1:_ZN18pqAnimationManager6onTickEi
libpqComponents.so.1:_ZN18pqAnimationManager7endPlayEP9vtkObjectmPvS2_
libpqComponents.so.1:_ZN18pqAnimationManager9beginPlayEP9vtkObjectmPvS2_
libpqComponents.so.1:_ZN18pqAnimationManager9onEndPlayEP9vtkObjectmPvS2_
libpqComponents.so.1:_ZN18pqAnimationManagerC1EP7QObject
libpqComponents.so.1:_ZN18pqAnimationManagerC2EP7QObject
libpqComponents.so.1:_ZN18pqAnimationManagerD0Ev
libpqComponents.so.1:_ZN18pqAnimationManagerD1Ev
libpqComponents.so.1:_ZN18pqAnimationManagerD2Ev
libpqComponents.so.1:_ZN18pqBlockProxyWidget11qt_metacallEN11QMetaObject4CallEiPPv
libpqComponents.so.1:_ZN18pqBlockProxyWidget11qt_metacastEPKc
libpqComponents.so.1:_ZN18pqBlockProxyWidget16onChangeFinishedEv
libpqComponents.so.1:_ZN18pqBlockProxyWidget16staticMetaObjectE
libpqComponents.so.1:_ZN18pqBlockProxyWidgetC1EP10vtkSMProxy7QStringP7QWidget6QFlagsIN2Qt10WindowTypeEE
libpqComponents.so.1:_ZN18pqBlockProxyWidgetC2EP10vtkSMProxy7QStringP7QWidget6QFlagsIN2Qt10WindowTypeEE
libpqComponents.so.1:_ZN18pqBlockProxyWidgetD0Ev
libpqComponents.so.1:_ZN18pqBlockProxyWidgetD1Ev
libpqComponents.so.1:_ZN18pqBlockProxyWidgetD2Ev
libpqComponents.so.1:_ZN18pqCalculatorWidget11qt_metacallEN11QMetaObject4CallEiPPv
libpqComponents.so.1:_ZN18pqCalculatorWidget11qt_metacastEPKc
libpqComponents.so.1:_ZN18pqCalculatorWidget13buttonPressedERK7QString
libpqComponents.so.1:_ZN18pqCalculatorWidget13updateButtonsEv
libpqComponents.so.1:_ZN18pqCalculatorWidget14variableChosenEP7QAction
libpqComponents.so.1:_ZN18pqCalculatorWidget15updateVariablesERK7QString
libpqComponents.so.1:_ZN18pqCalculatorWidget16staticMetaObjectE
libpqComponents.so.1:_ZN18pqCalculatorWidget19updateVariableNamesEv
libpqComponents.so.1:_ZN18pqCalculatorWidgetC1EP10vtkSMProxyP13vtkSMPropertyP7QWidget
libpqComponents.so.1:_ZN18pqCalculatorWidgetC2EP10vtkSMProxyP13vtkSMPropertyP7QWidget
libpqComponents.so.1:_ZN18pqCalculatorWidgetD0Ev
libpqComponents.so.1:_ZN18pqCalculatorWidgetD1Ev
libpqComponents.so.1:_ZN18pqCalculatorWidgetD2Ev
libpqComponents.so.1:_ZN18pqOneLinerTextEdit11qt_metacallEN11QMetaObject4CallEiPPv
libpqComponents.so.1:_ZN18pqOneLinerTextEdit11qt_metacastEPKc
libpqComponents.so.1:_ZN18pqOneLinerTextEdit11resizeEventEP12QResizeEvent
libpqComponents.so.1:_ZN18pqOneLinerTextEdit12adjustToTextEv
libpqComponents.so.1:_ZN18pqOneLinerTextEdit13keyPressEventEP9QKeyEvent
libpqComponents.so.1:_ZN18pqOneLinerTextEdit16staticMetaObjectE
libpqComponents.so.1:_ZN18pqOneLinerTextEdit18insertFromMimeDataEPK9QMimeData
libpqComponents.so.1:_ZN18pqOneLinerTextEditC1EP7QWidget
libpqComponents.so.1:_ZN18pqOneLinerTextEditC2EP7QWidget
libpqComponents.so.1:_ZN18pqPluginTreeWidget11qt_metacallEN11QMetaObject4CallEiPPv
libpqComponents.so.1:_ZN18pqPluginTreeWidget11qt_metacastEPKc
libpqComponents.so.1:_ZN18pqPluginTreeWidget16staticMetaObjectE
libpqComponents.so.1:_ZN18pqSelectionAdaptor11qt_metacallEN11QMetaObject4CallEiPPv
libpqComponents.so.1:_ZN18pqSelectionAdaptor11qt_metacastEPKc
libpqComponents.so.1:_ZN18pqSelectionAdaptor16selectionChangedEv
libpqComponents.so.1:_ZN18pqSelectionAdaptor16staticMetaObjectE
libpqComponents.so.1:_ZN18pqSelectionAdaptor19currentProxyChangedEv
libpqComponents.so.1:_ZN18pqSelectionAdaptor21proxySelectionChangedEv
libpqComponents.so.1:_ZN18pqSelectionAdaptorC2EP19QItemSelectionModel
libpqComponents.so.1:_ZN18pqSelectionAdaptorD0Ev
libpqComponents.so.1:_ZN18pqSelectionAdaptorD1Ev
libpqComponents.so.1:_ZN18pqSelectionAdaptorD2Ev
libpqComponents.so.1:_ZN18pqSelectionManager11onLinkAddedEi
libpqComponents.so.1:_ZN18pqSelectionManager11qt_metacallEN11QMetaObject4CallEiPPv
libpqComponents.so.1:_ZN18pqSelectionManager11qt_metacastEPKc
libpqComponents.so.1:_ZN18pqSelectionManager13onItemRemovedEP24pqServerManagerModelItem
libpqComponents.so.1:_ZN18pqSelectionManager13onLinkRemovedEv
libpqComponents.so.1:_ZN18pqSelectionManager13onSourceAddedEP16pqPipelineSource
libpqComponents.so.1:_ZN18pqSelectionManager13onStateLoadedEv
libpqComponents.so.1:_ZN18pqSelectionManager13setActiveViewEP6pqView
libpqComponents.so.1:_ZN18pqSelectionManager14clearSelectionEP12pqOutputPort
libpqComponents.so.1:_ZN18pqSelectionManager15expandSelectionEibb
libpqComponents.so.1:_ZN18pqSelectionManager15onSourceRemovedEP16pqPipelineSource
libpqComponents.so.1:_ZN18pqSelectionManager16selectionChangedEP12pqOutputPort
libpqComponents.so.1:_ZN18pqSelectionManager16staticMetaObjectE
libpqComponents.so.1:_ZN18pqSelectionManager6selectEP12pqOutputPort
libpqComponents.so.1:_ZN18pqSelectionManagerC1EP7QObject
libpqComponents.so.1:_ZN18pqSelectionManagerC2EP7QObject
libpqComponents.so.1:_ZN18pqSelectionManagerD0Ev
libpqComponents.so.1:_ZN18pqSelectionManagerD1Ev
libpqComponents.so.1:_ZN18pqSelectionManagerD2Ev
libpqComponents.so.1:_ZN18pqToolBarInterfaceC2Ev
libpqComponents.so.1:_ZN18pqToolBarInterfaceD0Ev
libpqComponents.so.1:_ZN18pqToolBarInterfaceD1Ev
libpqComponents.so.1:_ZN18pqToolBarInterfaceD2Ev
libpqComponents.so.1:_ZN18pqUndoStackBuilder12SetUndoStackEP14vtkSMUndoStack
libpqComponents.so.1:_ZN18pqUndoStackBuilder13OnStateChangeEP12vtkSMSessionjPKN17paraview_protobuf7MessageES5_
libpqComponents.so.1:_ZN18pqUndoStackBuilder3NewEv
libpqComponents.so.1:_ZN18pqUndoStackBuilder6FilterEP12vtkSMSessionj
libpqComponents.so.1:_ZN18pqUndoStackBuilder9PrintSelfERSo9vtkIndent
libpqComponents.so.1:_ZN18pqUndoStackBuilderC1Ev
libpqComponents.so.1:_ZN18pqUndoStackBuilderC2Ev
libpqComponents.so.1:_ZN18pqUndoStackBuilderD0Ev
libpqComponents.so.1:_ZN18pqUndoStackBuilderD1Ev
libpqComponents.so.1:_ZN18pqUndoStackBuilderD2Ev
libpqComponents.so.1:_ZN19pqChangeInputDialog11qt_metacallEN11QMetaObject4CallEiPPv
libpqComponents.so.1:_ZN19pqChangeInputDialog11qt_metacastEPKc
libpqComponents.so.1:_ZN19pqChangeInputDialog16buildPortWidgetsEv
libpqComponents.so.1:_ZN19pqChangeInputDialog16inputPortToggledEb
libpqComponents.so.1:_ZN19pqChangeInputDialog16selectionChangedEv
libpqComponents.so.1:_ZN19pqChangeInputDialog16staticMetaObjectE
libpqComponents.so.1:_ZN19pqChangeInputDialogC1EP10vtkSMProxyP7QWidget
libpqComponents.so.1:_ZN19pqChangeInputDialogC2EP10vtkSMProxyP7QWidget
libpqComponents.so.1:_ZN19pqChangeInputDialogD0Ev
libpqComponents.so.1:_ZN19pqChangeInputDialogD1Ev
libpqComponents.so.1:_ZN19pqChangeInputDialogD2Ev
libpqComponents.so.1:_ZN19pqExpressionsWidget11qt_metacallEN11QMetaObject4CallEiPPv
libpqComponents.so.1:_ZN19pqExpressionsWidget11qt_metacastEPKc
libpqComponents.so.1:_ZN19pqExpressionsWidget12setupButtonsERK7QString
libpqComponents.so.1:_ZN19pqExpressionsWidget16staticMetaObjectE
libpqComponents.so.1:_ZN19pqExpressionsWidget5clearEv
libpqComponents.so.1:_ZN19pqExpressionsWidget8lineEditEv
libpqComponents.so.1:_ZN19pqExpressionsWidgetC1EP7QWidgetRK7QString
libpqComponents.so.1:_ZN19pqExpressionsWidgetC2EP7QWidgetRK7QString
libpqComponents.so.1:_ZN19pqFileChooserWidget10chooseFileEv
libpqComponents.so.1:_ZN19pqFileChooserWidget11qt_metacallEN11QMetaObject4CallEiPPv
libpqComponents.so.1:_ZN19pqFileChooserWidget11qt_metacastEPKc
libpqComponents.so.1:_ZN19pqFileChooserWidget12setExtensionERK7QString
libpqComponents.so.1:_ZN19pqFileChooserWidget12setFilenamesERK5QListI7QStringE
libpqComponents.so.1:_ZN19pqFileChooserWidget15filenameChangedERK7QString
libpqComponents.so.1:_ZN19pqFileChooserWidget16filenamesChangedERK5QListI7QStringE
libpqComponents.so.1:_ZN19pqFileChooserWidget16staticMetaObjectE
libpqComponents.so.1:_ZN19pqFileChooserWidget17setSingleFilenameERK7QString
libpqComponents.so.1:_ZN19pqFileChooserWidget20emitFilenamesChangedERK5QListI7QStringE
libpqComponents.so.1:_ZN19pqFileChooserWidget25handleFileLineEditChangedERK7QString
libpqComponents.so.1:_ZN19pqFileChooserWidget6serverEv
libpqComponents.so.1:_ZN19pqFileChooserWidget9extensionEv
libpqComponents.so.1:_ZN19pqFileChooserWidget9setServerEP8pqServer
libpqComponents.so.1:_ZN19pqFileChooserWidgetC1EP7QWidget
libpqComponents.so.1:_ZN19pqFileChooserWidgetC2EP7QWidget
libpqComponents.so.1:_ZN19pqFileChooserWidgetD0Ev
libpqComponents.so.1:_ZN19pqFileChooserWidgetD1Ev
libpqComponents.so.1:_ZN19pqFileChooserWidgetD2Ev
libpqComponents.so.1:_ZN19pqLiveInsituManager11qt_metacallEN11QMetaObject4CallEiPPv
libpqComponents.so.1:_ZN19pqLiveInsituManager11qt_metacastEPKc
libpqComponents.so.1:_ZN19pqLiveInsituManager11timeUpdatedEv
libpqComponents.so.1:_ZN19pqLiveInsituManager12INVALID_TIMEE
libpqComponents.so.1:_ZN19pqLiveInsituManager12waitTimestepEx
libpqComponents.so.1:_ZN19pqLiveInsituManager13breakpointHitEP8pqServer
libpqComponents.so.1:_ZN19pqLiveInsituManager13onDataUpdatedEP16pqPipelineSource
libpqComponents.so.1:_ZN19pqLiveInsituManager13onSourceAddedEP16pqPipelineSource
libpqComponents.so.1:_ZN19pqLiveInsituManager13setBreakpointEd
libpqComponents.so.1:_ZN19pqLiveInsituManager13setBreakpointEx
libpqComponents.so.1:_ZN19pqLiveInsituManager14isInsituServerEP8pqServer
libpqComponents.so.1:_ZN19pqLiveInsituManager14pipelineSourceEP8pqServer
libpqComponents.so.1:_ZN19pqLiveInsituManager15breakpointAddedEP8pqServer
libpqComponents.so.1:_ZN19pqLiveInsituManager15closeConnectionEv
libpqComponents.so.1:_ZN19pqLiveInsituManager15isDisplayServerEP8pqServer
libpqComponents.so.1:_ZN19pqLiveInsituManager15onBreakpointHitEP8pqServer
libpqComponents.so.1:_ZN19pqLiveInsituManager16removeBreakpointEv
libpqComponents.so.1:_ZN19pqLiveInsituManager16staticMetaObjectE
libpqComponents.so.1:_ZN19pqLiveInsituManager17INVALID_TIME_STEPE
libpqComponents.so.1:_ZN19pqLiveInsituManager17breakpointRemovedEP8pqServer
libpqComponents.so.1:_ZN19pqLiveInsituManager17managerFromInsituEP8pqServer
libpqComponents.so.1:_ZN19pqLiveInsituManager17waitBreakpointHitEv
libpqComponents.so.1:_ZN19pqLiveInsituManager18managerFromDisplayEP8pqServer
libpqComponents.so.1:_ZN19pqLiveInsituManager19connectionInitiatedEP8pqServer
libpqComponents.so.1:_ZN19pqLiveInsituManager20selectedInsituServerEv
libpqComponents.so.1:_ZN19pqLiveInsituManager22onCatalystDisconnectedEv
libpqComponents.so.1:_ZN19pqLiveInsituManager23isWriterParametersProxyEP10vtkSMProxy
libpqComponents.so.1:_ZN19pqLiveInsituManager4timeEP16pqPipelineSourcePdPx
libpqComponents.so.1:_ZN19pqLiveInsituManager7connectEP8pqServeri
libpqComponents.so.1:_ZN19pqLiveInsituManager8instanceEv
libpqComponents.so.1:_ZN19pqLiveInsituManager8isInsituEP7pqProxy
libpqComponents.so.1:_ZN19pqLiveInsituManager9linkProxyEP8pqServer
libpqComponents.so.1:_ZN19pqLiveInsituManagerC1Ev
libpqComponents.so.1:_ZN19pqLiveInsituManagerC2Ev
libpqComponents.so.1:_ZN19pqLiveSourceManager11qt_metacallEN11QMetaObject4CallEiPPv
libpqComponents.so.1:_ZN19pqLiveSourceManager11qt_metacastEPKc
libpqComponents.so.1:_ZN19pqLiveSourceManager13onSourceAddedEP16pqPipelineSource
libpqComponents.so.1:_ZN19pqLiveSourceManager14onSourceRemoveEP16pqPipelineSource
libpqComponents.so.1:_ZN19pqLiveSourceManager16staticMetaObjectE
libpqComponents.so.1:_ZN19pqLiveSourceManager17getLiveSourceItemEP10vtkSMProxy
libpqComponents.so.1:_ZN19pqLiveSourceManager17pauseEmulatedTimeEv
libpqComponents.so.1:_ZN19pqLiveSourceManager18onUpdateTimeRangesEv
libpqComponents.so.1:_ZN19pqLiveSourceManager18resumeEmulatedTimeEv
libpqComponents.so.1:_ZN19pqLiveSourceManager20isEmulatedTimePausedEv
libpqComponents.so.1:_ZN19pqLiveSourceManager22getEmulatedCurrentTimeEv
libpqComponents.so.1:_ZN19pqLiveSourceManager22setEmulatedCurrentTimeEd
libpqComponents.so.1:_ZN19pqLiveSourceManager24emulatedTimeStateChangedEb
libpqComponents.so.1:_ZN19pqLiveSourceManager26getEmulatedSpeedMultiplierEv
libpqComponents.so.1:_ZN19pqLiveSourceManager26setEmulatedSpeedMultiplierEd
libpqComponents.so.1:_ZN19pqLiveSourceManager5pauseEv
libpqComponents.so.1:_ZN19pqLiveSourceManager6resumeEv
libpqComponents.so.1:_ZN19pqLiveSourceManager8isPausedEv
libpqComponents.so.1:_ZN19pqLiveSourceManagerC1EP7QObject
libpqComponents.so.1:_ZN19pqLiveSourceManagerC2EP7QObject
libpqComponents.so.1:_ZN19pqLiveSourceManagerD0Ev
libpqComponents.so.1:_ZN19pqLiveSourceManagerD1Ev
libpqComponents.so.1:_ZN19pqLiveSourceManagerD2Ev
libpqComponents.so.1:_ZN19pqProxyWidgetDialog11qt_metacallEN11QMetaObject4CallEiPPv
libpqComponents.so.1:_ZN19pqProxyWidgetDialog11qt_metacastEPKc
libpqComponents.so.1:_ZN19pqProxyWidgetDialog13filterWidgetsEv
libpqComponents.so.1:_ZN19pqProxyWidgetDialog14setSettingsKeyERK7QString
libpqComponents.so.1:_ZN19pqProxyWidgetDialog16onSaveAsDefaultsEv
libpqComponents.so.1:_ZN19pqProxyWidgetDialog16staticMetaObjectE
libpqComponents.so.1:_ZN19pqProxyWidgetDialog17onChangeAvailableEv
libpqComponents.so.1:_ZN19pqProxyWidgetDialog17onRestoreDefaultsEv
libpqComponents.so.1:_ZN19pqProxyWidgetDialog18setEnableSearchBarEb
libpqComponents.so.1:_ZN19pqProxyWidgetDialog25setHideAdvancedPropertiesEb
libpqComponents.so.1:_ZN19pqProxyWidgetDialog26setApplyChangesImmediatelyEb
libpqComponents.so.1:_ZN19pqProxyWidgetDialog4doneEi
libpqComponents.so.1:_ZN19pqProxyWidgetDialog7onApplyEv
libpqComponents.so.1:_ZN19pqProxyWidgetDialog7onResetEv
libpqComponents.so.1:_ZN19pqProxyWidgetDialog9hideEventEP10QHideEvent
libpqComponents.so.1:_ZN19pqProxyWidgetDialog9showEventEP10QShowEvent
libpqComponents.so.1:_ZN19pqProxyWidgetDialogC1EP10vtkSMProxyP7QWidget6QFlagsIN2Qt10WindowTypeEE
libpqComponents.so.1:_ZN19pqProxyWidgetDialogC1EP10vtkSMProxyRK5QListI7QStringEP7QWidget6QFlagsIN2Qt10WindowTypeEE
libpqComponents.so.1:_ZN19pqProxyWidgetDialogC2EP10vtkSMProxyP7QWidget6QFlagsIN2Qt10WindowTypeEE
libpqComponents.so.1:_ZN19pqProxyWidgetDialogC2EP10vtkSMProxyRK5QListI7QStringEP7QWidget6QFlagsIN2Qt10WindowTypeEE
libpqComponents.so.1:_ZN19pqProxyWidgetDialogD0Ev
libpqComponents.so.1:_ZN19pqProxyWidgetDialogD1Ev
libpqComponents.so.1:_ZN19pqProxyWidgetDialogD2Ev
libpqComponents.so.1:_ZN19pqShortcutDecorator10setEnabledEbb
libpqComponents.so.1:_ZN19pqShortcutDecorator11addShortcutEP15pqModalShortcut
libpqComponents.so.1:_ZN19pqShortcutDecorator11eventFilterEP7QObjectP6QEvent
libpqComponents.so.1:_ZN19pqShortcutDecorator11qt_metacallEN11QMetaObject4CallEiPPv
libpqComponents.so.1:_ZN19pqShortcutDecorator11qt_metacastEPKc
libpqComponents.so.1:_ZN19pqShortcutDecorator16staticMetaObjectE
libpqComponents.so.1:_ZN19pqShortcutDecorator17onShortcutEnabledEv
libpqComponents.so.1:_ZN19pqShortcutDecorator18onShortcutDisabledEv
libpqComponents.so.1:_ZN19pqShortcutDecorator9markFrameEbRK6QColor
libpqComponents.so.1:_ZN19pqShortcutDecoratorC1EP15vtkPVXMLElementP16pqPropertyWidget
libpqComponents.so.1:_ZN19pqShortcutDecoratorC1EP16pqPropertyWidget
libpqComponents.so.1:_ZN19pqShortcutDecoratorC2EP15vtkPVXMLElementP16pqPropertyWidget
libpqComponents.so.1:_ZN19pqShortcutDecoratorC2EP16pqPropertyWidget
libpqComponents.so.1:_ZN19pqWidgetRangeDomain11qt_metacallEN11QMetaObject4CallEiPPv
libpqComponents.so.1:_ZN19pqWidgetRangeDomain11qt_metacastEPKc
libpqComponents.so.1:_ZN19pqWidgetRangeDomain13domainChangedEv
libpqComponents.so.1:_ZN19pqWidgetRangeDomain16staticMetaObjectE
libpqComponents.so.1:_ZN19pqWidgetRangeDomain21internalDomainChangedEv
libpqComponents.so.1:_ZN19pqWidgetRangeDomain8setRangeE8QVariantS0_
libpqComponents.so.1:_ZN19pqWidgetRangeDomainC1EP7QWidgetRK7QStringS4_P13vtkSMPropertyi
libpqComponents.so.1:_ZN19pqWidgetRangeDomainC2EP7QWidgetRK7QStringS4_P13vtkSMPropertyi
libpqComponents.so.1:_ZN19pqWidgetRangeDomainD0Ev
libpqComponents.so.1:_ZN19pqWidgetRangeDomainD1Ev
libpqComponents.so.1:_ZN19pqWidgetRangeDomainD2Ev
libpqComponents.so.1:_ZN20pqCollaborationPanel11itemChangedEP16QTableWidgetItem
libpqComponents.so.1:_ZN20pqCollaborationPanel11onNewMasterEi
libpqComponents.so.1:_ZN20pqCollaborationPanel11qt_metacallEN11QMetaObject4CallEiPPv
libpqComponents.so.1:_ZN20pqCollaborationPanel11qt_metacastEPKc
libpqComponents.so.1:_ZN20pqCollaborationPanel12onUserUpdateEv
libpqComponents.so.1:_ZN20pqCollaborationPanel13onUserMessageEv
libpqComponents.so.1:_ZN20pqCollaborationPanel15onServerChangedEv
libpqComponents.so.1:_ZN20pqCollaborationPanel15promoteToMasterEi
libpqComponents.so.1:_ZN20pqCollaborationPanel16connectIDChangedEi
libpqComponents.so.1:_ZN20pqCollaborationPanel16followUserCameraEi
libpqComponents.so.1:_ZN20pqCollaborationPanel16staticMetaObjectE
libpqComponents.so.1:_ZN20pqCollaborationPanel16writeChatMessageEP8pqServeriR7QString
libpqComponents.so.1:_ZN20pqCollaborationPanel17cellDoubleClickedEii
libpqComponents.so.1:_ZN20pqCollaborationPanel17delayUpdateCameraEPN17paraview_protobuf7MessageE
libpqComponents.so.1:_ZN20pqCollaborationPanel18onConnectIDChangedEv
libpqComponents.so.1:_ZN20pqCollaborationPanel18triggerChatMessageEP8pqServeriR7QString
libpqComponents.so.1:_ZN20pqCollaborationPanel19stopFollowingCameraEv
libpqComponents.so.1:_ZN20pqCollaborationPanel21connectViewLocalSlotsEP6pqView
libpqComponents.so.1:_ZN20pqCollaborationPanel22shareLocalMousePointerEb
libpqComponents.so.1:_ZN20pqCollaborationPanel23getCollaborationManagerEv
libpqComponents.so.1:_ZN20pqCollaborationPanel24disconnectViewLocalSlotsEP6pqView
libpqComponents.so.1:_ZN20pqCollaborationPanel25disableFurtherConnectionsEb
libpqComponents.so.1:_ZN20pqCollaborationPanel25getSMCollaborationManagerEv
libpqComponents.so.1:_ZN20pqCollaborationPanelC1EP7QWidget
libpqComponents.so.1:_ZN20pqCollaborationPanelC2EP7QWidget
libpqComponents.so.1:_ZN20pqCollaborationPanelD0Ev
libpqComponents.so.1:_ZN20pqCollaborationPanelD1Ev
libpqComponents.so.1:_ZN20pqCollaborationPanelD2Ev
libpqComponents.so.1:_ZN20pqDisplayColorWidget11qt_metacallEN11QMetaObject4CallEiPPv
libpqComponents.so.1:_ZN20pqDisplayColorWidget11qt_metacastEPKc
libpqComponents.so.1:_ZN20pqDisplayColorWidget16renderActiveViewEv
libpqComponents.so.1:_ZN20pqDisplayColorWidget16staticMetaObjectE
libpqComponents.so.1:_ZN20pqDisplayColorWidget17refreshComponentsEv
libpqComponents.so.1:_ZN20pqDisplayColorWidget17setArraySelectionERKSt4pairIi7QStringE
libpqComponents.so.1:_ZN20pqDisplayColorWidget17setRepresentationEP20pqDataRepresentationi
libpqComponents.so.1:_ZN20pqDisplayColorWidget18setComponentNumberEi
libpqComponents.so.1:_ZN20pqDisplayColorWidget19addOutOfDomainEntryEiRK7QString
libpqComponents.so.1:_ZN20pqDisplayColorWidget21arraySelectionChangedEv
libpqComponents.so.1:_ZN20pqDisplayColorWidget21setRepresentationTextERK7QString
libpqComponents.so.1:_ZN20pqDisplayColorWidget22componentNumberChangedEv
libpqComponents.so.1:_ZN20pqDisplayColorWidget22refreshColorArrayNamesEv
libpqComponents.so.1:_ZN20pqDisplayColorWidget23pruneOutOfDomainEntriesEv
libpqComponents.so.1:_ZN20pqDisplayColorWidget25hideScalarBarsIfNotNeededEP14vtkSMViewProxySt6vectorIP10vtkSMProxySaIS4_EE
libpqComponents.so.1:_ZN20pqDisplayColorWidget25queryCurrentSelectedArrayEv
libpqComponents.so.1:_ZN20pqDisplayColorWidget25representationTextChangedERK7QString
libpqComponents.so.1:_ZN20pqDisplayColorWidget25updateScalarBarVisibilityEP14vtkSMViewProxyP10vtkSMProxyi
libpqComponents.so.1:_ZN20pqDisplayColorWidget27updateColorTransferFunctionEv
libpqComponents.so.1:_ZN20pqDisplayColorWidgetC1EP7QWidget
libpqComponents.so.1:_ZN20pqDisplayColorWidgetC2EP7QWidget
libpqComponents.so.1:_ZN20pqDisplayColorWidgetD0Ev
libpqComponents.so.1:_ZN20pqDisplayColorWidgetD1Ev
libpqComponents.so.1:_ZN20pqDisplayColorWidgetD2Ev
libpqComponents.so.1:_ZN20pqExpressionsManager15storeToSettingsERK5QListINS_12pqExpressionEE
libpqComponents.so.1:_ZN20pqExpressionsManager23addExpressionToSettingsERK7QStringS2_
libpqComponents.so.1:_ZN20pqExpressionsManager26getExpressionsFromSettingsERK7QString
libpqComponents.so.1:_ZN20pqExpressionsManager26getExpressionsFromSettingsEv
libpqComponents.so.1:_ZN20pqKeyFrameTypeWidget11baseChangedERK7QString
libpqComponents.so.1:_ZN20pqKeyFrameTypeWidget11qt_metacallEN11QMetaObject4CallEiPPv
libpqComponents.so.1:_ZN20pqKeyFrameTypeWidget11qt_metacastEPKc
libpqComponents.so.1:_ZN20pqKeyFrameTypeWidget11setEndPowerERK7QString
libpqComponents.so.1:_ZN20pqKeyFrameTypeWidget11typeChangedERK7QString
libpqComponents.so.1:_ZN20pqKeyFrameTypeWidget12phaseChangedEd
libpqComponents.so.1:_ZN20pqKeyFrameTypeWidget12setFrequencyERK7QString
libpqComponents.so.1:_ZN20pqKeyFrameTypeWidget13offsetChangedERK7QString
libpqComponents.so.1:_ZN20pqKeyFrameTypeWidget13onTypeChangedEv
libpqComponents.so.1:_ZN20pqKeyFrameTypeWidget13setStartPowerERK7QString
libpqComponents.so.1:_ZN20pqKeyFrameTypeWidget15endPowerChangedERK7QString
libpqComponents.so.1:_ZN20pqKeyFrameTypeWidget16frequencyChangedERK7QString
libpqComponents.so.1:_ZN20pqKeyFrameTypeWidget16staticMetaObjectE
libpqComponents.so.1:_ZN20pqKeyFrameTypeWidget17startPowerChangedERK7QString
libpqComponents.so.1:_ZN20pqKeyFrameTypeWidget19initializeUsingJSONERKN4Json5ValueE
libpqComponents.so.1:_ZN20pqKeyFrameTypeWidget7setBaseERK7QString
libpqComponents.so.1:_ZN20pqKeyFrameTypeWidget7setTypeERK7QString
libpqComponents.so.1:_ZN20pqKeyFrameTypeWidget8setPhaseEd
libpqComponents.so.1:_ZN20pqKeyFrameTypeWidget9setOffsetERK7QString
libpqComponents.so.1:_ZN20pqKeyFrameTypeWidgetC1EP7QWidget
libpqComponents.so.1:_ZN20pqKeyFrameTypeWidgetC2EP7QWidget
libpqComponents.so.1:_ZN20pqKeyFrameTypeWidgetD0Ev
libpqComponents.so.1:_ZN20pqKeyFrameTypeWidgetD1Ev
libpqComponents.so.1:_ZN20pqKeyFrameTypeWidgetD2Ev
libpqComponents.so.1:_ZN20pqOrbitCreatorDialog11qt_metacallEN11QMetaObject4CallEiPPv
libpqComponents.so.1:_ZN20pqOrbitCreatorDialog11qt_metacastEPKc
libpqComponents.so.1:_ZN20pqOrbitCreatorDialog11resetCenterEv
libpqComponents.so.1:_ZN20pqOrbitCreatorDialog16staticMetaObjectE
libpqComponents.so.1:_ZN20pqOrbitCreatorDialog9setCenterEPd
libpqComponents.so.1:_ZN20pqOrbitCreatorDialog9setNormalEPd
libpqComponents.so.1:_ZN20pqOrbitCreatorDialog9setOriginEPd
libpqComponents.so.1:_ZN20pqOrbitCreatorDialogC1EP7QWidget
libpqComponents.so.1:_ZN20pqOrbitCreatorDialogC2EP7QWidget
libpqComponents.so.1:_ZN20pqOrbitCreatorDialogD0Ev
libpqComponents.so.1:_ZN20pqOrbitCreatorDialogD1Ev
libpqComponents.so.1:_ZN20pqOrbitCreatorDialogD2Ev
libpqComponents.so.1:_ZN20pqOutputPortComboBox11nameChangedEP24pqServerManagerModelItem
libpqComponents.so.1:_ZN20pqOutputPortComboBox11portChangedEP12pqOutputPort
libpqComponents.so.1:_ZN20pqOutputPortComboBox11qt_metacallEN11QMetaObject4CallEiPPv
libpqComponents.so.1:_ZN20pqOutputPortComboBox11qt_metacastEPKc
libpqComponents.so.1:_ZN20pqOutputPortComboBox12removeSourceEP16pqPipelineSource
libpqComponents.so.1:_ZN20pqOutputPortComboBox14addCustomEntryERK7QStringP12pqOutputPort
libpqComponents.so.1:_ZN20pqOutputPortComboBox14setCurrentPortEP12pqOutputPort
libpqComponents.so.1:_ZN20pqOutputPortComboBox16staticMetaObjectE
libpqComponents.so.1:_ZN20pqOutputPortComboBox17fillExistingPortsEv
libpqComponents.so.1:_ZN20pqOutputPortComboBox19currentIndexChangedEP12pqOutputPort
libpqComponents.so.1:_ZN20pqOutputPortComboBox21onCurrentIndexChangedEi
libpqComponents.so.1:_ZN20pqOutputPortComboBox9addSourceEP16pqPipelineSource
libpqComponents.so.1:_ZN20pqOutputPortComboBoxC1EP7QWidget
libpqComponents.so.1:_ZN20pqOutputPortComboBoxC2EP7QWidget
libpqComponents.so.1:_ZN20pqOutputPortComboBoxD0Ev
libpqComponents.so.1:_ZN20pqOutputPortComboBoxD1Ev
libpqComponents.so.1:_ZN20pqOutputPortComboBoxD2Ev
libpqComponents.so.1:_ZN20pqSelectReaderDialog11qt_metacallEN11QMetaObject4CallEiPPv
libpqComponents.so.1:_ZN20pqSelectReaderDialog11qt_metacastEPKc
libpqComponents.so.1:_ZN20pqSelectReaderDialog16staticMetaObjectE
libpqComponents.so.1:_ZN20pqSelectReaderDialogC1ERK7QStringP8pqServerP13vtkStringListP7QWidget
libpqComponents.so.1:_ZN20pqSelectReaderDialogC1ERK7QStringP8pqServerP18vtkSMReaderFactoryP7QWidget
libpqComponents.so.1:_ZN20pqSelectReaderDialogC2ERK7QStringP8pqServerP13vtkStringListP7QWidget
libpqComponents.so.1:_ZN20pqSelectReaderDialogC2ERK7QStringP8pqServerP18vtkSMReaderFactoryP7QWidget
libpqComponents.so.1:_ZN20pqSelectReaderDialogD0Ev
libpqComponents.so.1:_ZN20pqSelectReaderDialogD1Ev
libpqComponents.so.1:_ZN20pqSelectReaderDialogD2Ev
libpqComponents.so.1:_ZN20pqSignalAdaptorProxy11qt_metacallEN11QMetaObject4CallEiPPv
libpqComponents.so.1:_ZN20pqSignalAdaptorProxy11qt_metacastEPKc
libpqComponents.so.1:_ZN20pqSignalAdaptorProxy12proxyChangedERK8QVariant
libpqComponents.so.1:_ZN20pqSignalAdaptorProxy16staticMetaObjectE
libpqComponents.so.1:_ZN20pqSignalAdaptorProxy18handleProxyChangedEv
libpqComponents.so.1:_ZN20pqSignalAdaptorProxy8setProxyERK8QVariant
libpqComponents.so.1:_ZN20pqSignalAdaptorProxyC1EP7QObjectPKcS3_
libpqComponents.so.1:_ZN20pqSignalAdaptorProxyC2EP7QObjectPKcS3_
libpqComponents.so.1:_ZN21pqAnimationTimeWidget10setEndTimeEd
libpqComponents.so.1:_ZN21pqAnimationTimeWidget11dummySignalEv
libpqComponents.so.1:_ZN21pqAnimationTimeWidget11pqInternals6renderEPS_
libpqComponents.so.1:_ZN21pqAnimationTimeWidget11qt_metacallEN11QMetaObject4CallEiPPv
libpqComponents.so.1:_ZN21pqAnimationTimeWidget11qt_metacastEPKc
libpqComponents.so.1:_ZN21pqAnimationTimeWidget11setPlayModeERK7QString
libpqComponents.so.1:_ZN21pqAnimationTimeWidget12setStartTimeEd
libpqComponents.so.1:_ZN21pqAnimationTimeWidget12setTimeLabelERK7QString
libpqComponents.so.1:_ZN21pqAnimationTimeWidget14setCurrentTimeEd
libpqComponents.so.1:_ZN21pqAnimationTimeWidget15playModeChangedEv
libpqComponents.so.1:_ZN21pqAnimationTimeWidget16staticMetaObjectE
libpqComponents.so.1:_ZN21pqAnimationTimeWidget17setAnimationSceneEP16pqAnimationScene
libpqComponents.so.1:_ZN21pqAnimationTimeWidget17setNumberOfFramesEi
libpqComponents.so.1:_ZN21pqAnimationTimeWidget17setTimestepValuesERK5QListI8QVariantE
libpqComponents.so.1:_ZN21pqAnimationTimeWidget17updateCurrentTimeEd
libpqComponents.so.1:_ZN21pqAnimationTimeWidget6renderEv
libpqComponents.so.1:_ZN21pqAnimationTimeWidgetC1EP7QWidget
libpqComponents.so.1:_ZN21pqAnimationTimeWidgetC2EP7QWidget
libpqComponents.so.1:_ZN21pqAnimationTimeWidgetD0Ev
libpqComponents.so.1:_ZN21pqAnimationTimeWidgetD1Ev
libpqComponents.so.1:_ZN21pqAnimationTimeWidgetD2Ev
libpqComponents.so.1:_ZN21pqComparativeVisPanel11qt_metacallEN11QMetaObject4CallEiPPv
libpqComponents.so.1:_ZN21pqComparativeVisPanel11qt_metacastEPKc
libpqComponents.so.1:_ZN21pqComparativeVisPanel11sizeUpdatedEv
libpqComponents.so.1:_ZN21pqComparativeVisPanel12addParameterEv
libpqComponents.so.1:_ZN21pqComparativeVisPanel15removeParameterEi
libpqComponents.so.1:_ZN21pqComparativeVisPanel16staticMetaObjectE
libpqComponents.so.1:_ZN21pqComparativeVisPanel20updateParametersListEv
libpqComponents.so.1:_ZN21pqComparativeVisPanel25parameterSelectionChangedEv
libpqComponents.so.1:_ZN21pqComparativeVisPanel7findRowEP10vtkSMProxyRK7QStringi
libpqComponents.so.1:_ZN21pqComparativeVisPanel7setViewEP6pqView
libpqComponents.so.1:_ZN21pqComparativeVisPanelC1EP7QWidget
libpqComponents.so.1:_ZN21pqComparativeVisPanelC2EP7QWidget
libpqComponents.so.1:_ZN21pqComparativeVisPanelD0Ev
libpqComponents.so.1:_ZN21pqComparativeVisPanelD1Ev
libpqComponents.so.1:_ZN21pqComparativeVisPanelD2Ev
libpqComponents.so.1:_ZN21pqCustomFilterManager11importFilesERK5QListI7QStringE
libpqComponents.so.1:_ZN21pqCustomFilterManager11importFilesEv
libpqComponents.so.1:_ZN21pqCustomFilterManager11qt_metacallEN11QMetaObject4CallEiPPv
libpqComponents.so.1:_ZN21pqCustomFilterManager11qt_metacastEPKc
libpqComponents.so.1:_ZN21pqCustomFilterManager13updateButtonsERK14QItemSelectionS2_
libpqComponents.so.1:_ZN21pqCustomFilterManager14exportSelectedERK5QListI7QStringE
libpqComponents.so.1:_ZN21pqCustomFilterManager14exportSelectedEv
libpqComponents.so.1:_ZN21pqCustomFilterManager14removeSelectedEv
libpqComponents.so.1:_ZN21pqCustomFilterManager16staticMetaObjectE
libpqComponents.so.1:_ZN21pqCustomFilterManager18selectCustomFilterERK7QString
libpqComponents.so.1:_ZN21pqCustomFilterManager19getUnusedFilterNameERK7QStringS2_
libpqComponents.so.1:_ZN21pqCustomFilterManagerC1EP26pqCustomFilterManagerModelP7QWidget
libpqComponents.so.1:_ZN21pqCustomFilterManagerC2EP26pqCustomFilterManagerModelP7QWidget
libpqComponents.so.1:_ZN21pqCustomFilterManagerD0Ev
libpqComponents.so.1:_ZN21pqCustomFilterManagerD1Ev
libpqComponents.so.1:_ZN21pqCustomFilterManagerD2Ev
libpqComponents.so.1:_ZN21pqDisplayColor2Widget11qt_metacallEN11QMetaObject4CallEiPPv
libpqComponents.so.1:_ZN21pqDisplayColor2Widget11qt_metacastEPKc
libpqComponents.so.1:_ZN21pqDisplayColor2Widget15onArrayModifiedEv
libpqComponents.so.1:_ZN21pqDisplayColor2Widget16staticMetaObjectE
libpqComponents.so.1:_ZN21pqDisplayColor2Widget17setRepresentationEP20pqDataRepresentation
libpqComponents.so.1:_ZN21pqDisplayColor2WidgetC1EP7QWidget
libpqComponents.so.1:_ZN21pqDisplayColor2WidgetC2EP7QWidget
libpqComponents.so.1:_ZN21pqDisplayColor2WidgetD0Ev
libpqComponents.so.1:_ZN21pqDisplayColor2WidgetD1Ev
libpqComponents.so.1:_ZN21pqDisplayColor2WidgetD2Ev
libpqComponents.so.1:_ZN21pqDockWindowInterfaceC2Ev
libpqComponents.so.1:_ZN21pqDockWindowInterfaceD0Ev
libpqComponents.so.1:_ZN21pqDockWindowInterfaceD1Ev
libpqComponents.so.1:_ZN21pqDockWindowInterfaceD2Ev
libpqComponents.so.1:_ZN21pqFavoritesTreeWidget11qt_metacallEN11QMetaObject4CallEiPPv
libpqComponents.so.1:_ZN21pqFavoritesTreeWidget11qt_metacastEPKc
libpqComponents.so.1:_ZN21pqFavoritesTreeWidget14dragEnterEventEP15QDragEnterEvent
libpqComponents.so.1:_ZN21pqFavoritesTreeWidget16staticMetaObjectE
libpqComponents.so.1:_ZN21pqFavoritesTreeWidget9dropEventEP10QDropEvent
libpqComponents.so.1:_ZN21pqFavoritesTreeWidgetC1EP7QWidget
libpqComponents.so.1:_ZN21pqFavoritesTreeWidgetC2EP7QWidget
libpqComponents.so.1:_ZN21pqInputSelectorWidget11qt_metacallEN11QMetaObject4CallEiPPv
libpqComponents.so.1:_ZN21pqInputSelectorWidget11qt_metacastEPKc
libpqComponents.so.1:_ZN21pqInputSelectorWidget14updateComboBoxEv
libpqComponents.so.1:_ZN21pqInputSelectorWidget16setSelectedInputE15vtkSmartPointerI10vtkSMProxyE
libpqComponents.so.1:_ZN21pqInputSelectorWidget16staticMetaObjectE
libpqComponents.so.1:_ZN21pqInputSelectorWidget20selectedInputChangedEv
libpqComponents.so.1:_ZN21pqInputSelectorWidgetC1EP10vtkSMProxyP13vtkSMPropertyP7QWidget
libpqComponents.so.1:_ZN21pqInputSelectorWidgetC2EP10vtkSMProxyP13vtkSMPropertyP7QWidget
libpqComponents.so.1:_ZN21pqInputSelectorWidgetD0Ev
libpqComponents.so.1:_ZN21pqInputSelectorWidgetD1Ev
libpqComponents.so.1:_ZN21pqInputSelectorWidgetD2Ev
libpqComponents.so.1:_ZN21pqPresetGroupsManager10addToGroupERK7QStringS2_
libpqComponents.so.1:_ZN21pqPresetGroupsManager10groupNamesEv
libpqComponents.so.1:_ZN21pqPresetGroupsManager10loadGroupsERK7QString
libpqComponents.so.1:_ZN21pqPresetGroupsManager11clearGroupsEv
libpqComponents.so.1:_ZN21pqPresetGroupsManager11qt_metacallEN11QMetaObject4CallEiPPv
libpqComponents.so.1:_ZN21pqPresetGroupsManager11qt_metacastEPKc
libpqComponents.so.1:_ZN21pqPresetGroupsManager13groupsUpdatedEv
libpqComponents.so.1:_ZN21pqPresetGroupsManager13replaceGroupsERK7QString
libpqComponents.so.1:_ZN21pqPresetGroupsManager14numberOfGroupsEv
libpqComponents.so.1:_ZN21pqPresetGroupsManager14presetsInGroupERK7QString
libpqComponents.so.1:_ZN21pqPresetGroupsManager15removeFromGroupERK7QStringS2_
libpqComponents.so.1:_ZN21pqPresetGroupsManager16staticMetaObjectE
libpqComponents.so.1:_ZN21pqPresetGroupsManager17presetRankInGroupERK7QStringS2_
libpqComponents.so.1:_ZN21pqPresetGroupsManager19getPresetGroupsJsonEv
libpqComponents.so.1:_ZN21pqPresetGroupsManager19removeFromAllGroupsERK7QString
libpqComponents.so.1:_ZN21pqPresetGroupsManager20saveGroupsToSettingsEv
libpqComponents.so.1:_ZN21pqPresetGroupsManager22loadGroupsFromSettingsEv
libpqComponents.so.1:_ZN21pqPresetGroupsManager22numberOfPresetsInGroupERK7QString
libpqComponents.so.1:_ZN21pqPresetGroupsManager9groupNameEi
libpqComponents.so.1:_ZN21pqPresetGroupsManagerC1EP7QObject
libpqComponents.so.1:_ZN21pqPresetGroupsManagerC2EP7QObject
libpqComponents.so.1:_ZN21pqPresetGroupsManagerD0Ev
libpqComponents.so.1:_ZN21pqPresetGroupsManagerD1Ev
libpqComponents.so.1:_ZN21pqPresetGroupsManagerD2Ev
libpqComponents.so.1:_ZN21pqPropertyGroupWidget11qt_metacallEN11QMetaObject4CallEiPPv
libpqComponents.so.1:_ZN21pqPropertyGroupWidget11qt_metacastEPKc
libpqComponents.so.1:_ZN21pqPropertyGroupWidget15addPropertyLinkEP11QToolButtonPKci
libpqComponents.so.1:_ZN21pqPropertyGroupWidget15addPropertyLinkEP14QDoubleSpinBoxPKci
libpqComponents.so.1:_ZN21pqPropertyGroupWidget15addPropertyLinkEP20pqColorChooserButtonPKci
libpqComponents.so.1:_ZN21pqPropertyGroupWidget15addPropertyLinkEP20pqDoubleSliderWidgetPKci
libpqComponents.so.1:_ZN21pqPropertyGroupWidget15addPropertyLinkEP8QSpinBoxPKci
libpqComponents.so.1:_ZN21pqPropertyGroupWidget15addPropertyLinkEP9QCheckBoxPKci
libpqComponents.so.1:_ZN21pqPropertyGroupWidget15addPropertyLinkEP9QComboBoxPKci
libpqComponents.so.1:_ZN21pqPropertyGroupWidget15addPropertyLinkEP9QGroupBoxPKci
libpqComponents.so.1:_ZN21pqPropertyGroupWidget15addPropertyLinkEP9QLineEditPKci
libpqComponents.so.1:_ZN21pqPropertyGroupWidget16staticMetaObjectE
libpqComponents.so.1:_ZN21pqPropertyGroupWidget18setPanelVisibilityEPKc
libpqComponents.so.1:_ZN21pqPropertyGroupWidget21addStringPropertyLinkEP7QWidgetPKci
libpqComponents.so.1:_ZN21pqPropertyGroupWidget22addCheckedPropertyLinkEP7QWidgetPKci
libpqComponents.so.1:_ZN21pqPropertyGroupWidget23addIntValuePropertyLinkEP7QWidgetPKci
libpqComponents.so.1:_ZN21pqPropertyGroupWidget26addDoubleValuePropertyLinkEP7QWidgetPKci
libpqComponents.so.1:_ZN21pqPropertyGroupWidgetC1EP10vtkSMProxyP18vtkSMPropertyGroupP7QWidget
libpqComponents.so.1:_ZN21pqPropertyGroupWidgetC2EP10vtkSMProxyP18vtkSMPropertyGroupP7QWidget
libpqComponents.so.1:_ZN21pqProxyPropertyWidget11qt_metacallEN11QMetaObject4CallEiPPv
libpqComponents.so.1:_ZN21pqProxyPropertyWidget11qt_metacastEPKc
libpqComponents.so.1:_ZN21pqProxyPropertyWidget12updateWidgetEb
libpqComponents.so.1:_ZN21pqProxyPropertyWidget16staticMetaObjectE
libpqComponents.so.1:_ZN21pqProxyPropertyWidget5applyEv
libpqComponents.so.1:_ZN21pqProxyPropertyWidget5resetEv
libpqComponents.so.1:_ZN21pqProxyPropertyWidget6selectEv
libpqComponents.so.1:_ZN21pqProxyPropertyWidget8deselectEv
libpqComponents.so.1:_ZN21pqProxyPropertyWidgetC1EP13vtkSMPropertyP10vtkSMProxyP7QWidget
libpqComponents.so.1:_ZN21pqProxyPropertyWidgetC2EP13vtkSMPropertyP10vtkSMProxyP7QWidget
libpqComponents.so.1:_ZN21pqSelectionLinkDialog11qt_metacallEN11QMetaObject4CallEiPPv
libpqComponents.so.1:_ZN21pqSelectionLinkDialog11qt_metacastEPKc
libpqComponents.so.1:_ZN21pqSelectionLinkDialog16staticMetaObjectE
libpqComponents.so.1:_ZN21pqSelectionLinkDialogC1EP7QWidget6QFlagsIN2Qt10WindowTypeEE
libpqComponents.so.1:_ZN21pqSelectionLinkDialogC2EP7QWidget6QFlagsIN2Qt10WindowTypeEE
libpqComponents.so.1:_ZN21pqSelectionLinkDialogD0Ev
libpqComponents.so.1:_ZN21pqSelectionLinkDialogD1Ev
libpqComponents.so.1:_ZN21pqSelectionLinkDialogD2Ev
libpqComponents.so.1:_ZN21pqServerConnectDialog10editServerEv
libpqComponents.so.1:_ZN21pqServerConnectDialog11editSourcesEv
libpqComponents.so.1:_ZN21pqServerConnectDialog11importErrorERK7QString
libpqComponents.so.1:_ZN21pqServerConnectDialog11loadServersEv
libpqComponents.so.1:_ZN21pqServerConnectDialog11qt_metacallEN11QMetaObject4CallEiPPv
libpqComponents.so.1:_ZN21pqServerConnectDialog11qt_metacastEPKc
libpqComponents.so.1:_ZN21pqServerConnectDialog11saveServersEv
libpqComponents.so.1:_ZN21pqServerConnectDialog11serverAddedEv
libpqComponents.so.1:_ZN21pqServerConnectDialog12deleteServerEv
libpqComponents.so.1:_ZN21pqServerConnectDialog12fetchServersEv
libpqComponents.so.1:_ZN21pqServerConnectDialog12selectServerER21pqServerConfigurationP7QWidgetRK16pqServerResource
libpqComponents.so.1:_ZN21pqServerConnectDialog13goToFirstPageEv
libpqComponents.so.1:_ZN21pqServerConnectDialog13importServersEv
libpqComponents.so.1:_ZN21pqServerConnectDialog13onNameChangedEv
libpqComponents.so.1:_ZN21pqServerConnectDialog13serverDeletedEv
libpqComponents.so.1:_ZN21pqServerConnectDialog13updateButtonsEv
libpqComponents.so.1:_ZN21pqServerConnectDialog15saveSourcesListEv
libpqComponents.so.1:_ZN21pqServerConnectDialog16deleteAllServersEv
libpqComponents.so.1:_ZN21pqServerConnectDialog16onServerSelectedEv
libpqComponents.so.1:_ZN21pqServerConnectDialog16serverNameExistsERK7QString
libpqComponents.so.1:_ZN21pqServerConnectDialog16staticMetaObjectE
libpqComponents.so.1:_ZN21pqServerConnectDialog16updateServerTypeEv
libpqComponents.so.1:_ZN21pqServerConnectDialog17cancelEditSourcesEv
libpqComponents.so.1:_ZN21pqServerConnectDialog17editConfigurationERK21pqServerConfiguration
libpqComponents.so.1:_ZN21pqServerConnectDialog17editServerStartupEv
libpqComponents.so.1:_ZN21pqServerConnectDialog17updateDialogTitleEi
libpqComponents.so.1:_ZN21pqServerConnectDialog20updateConfigurationsEv
libpqComponents.so.1:_ZN21pqServerConnectDialog22authenticationRequiredEP13QNetworkReplyP14QAuthenticator
libpqComponents.so.1:_ZN21pqServerConnectDialog24acceptConfigurationPage1Ev
libpqComponents.so.1:_ZN21pqServerConnectDialog24acceptConfigurationPage2Ev
libpqComponents.so.1:_ZN21pqServerConnectDialog29importServersSelectionChangedEv
libpqComponents.so.1:_ZN21pqServerConnectDialog30updateImportableConfigurationsEv
libpqComponents.so.1:_ZN21pqServerConnectDialog7connectEv
libpqComponents.so.1:_ZN21pqServerConnectDialog9addServerEv
libpqComponents.so.1:_ZN21pqServerConnectDialogC1EP7QWidgetRK16pqServerResource
libpqComponents.so.1:_ZN21pqServerConnectDialogC2EP7QWidgetRK16pqServerResource
libpqComponents.so.1:_ZN21pqServerConnectDialogD0Ev
libpqComponents.so.1:_ZN21pqServerConnectDialogD1Ev
libpqComponents.so.1:_ZN21pqServerConnectDialogD2Ev
libpqComponents.so.1:_ZN21pqSetBreakpointDialog10onAcceptedEv
libpqComponents.so.1:_ZN21pqSetBreakpointDialog11qt_metacallEN11QMetaObject4CallEiPPv
libpqComponents.so.1:_ZN21pqSetBreakpointDialog11qt_metacastEPKc
libpqComponents.so.1:_ZN21pqSetBreakpointDialog13breakpointHitEv
libpqComponents.so.1:_ZN21pqSetBreakpointDialog13onTimeUpdatedEv
libpqComponents.so.1:_ZN21pqSetBreakpointDialog16staticMetaObjectE
libpqComponents.so.1:_ZN21pqSetBreakpointDialogC1EP7QWidget
libpqComponents.so.1:_ZN21pqSetBreakpointDialogC2EP7QWidget
libpqComponents.so.1:_ZN21pqSetBreakpointDialogD0Ev
libpqComponents.so.1:_ZN21pqSetBreakpointDialogD1Ev
libpqComponents.so.1:_ZN21pqSetBreakpointDialogD2Ev
libpqComponents.so.1:_ZN21pqTriggerOnIdleHelper11qt_metacallEN11QMetaObject4CallEiPPv
libpqComponents.so.1:_ZN21pqTriggerOnIdleHelper11qt_metacastEPKc
libpqComponents.so.1:_ZN21pqTriggerOnIdleHelper15triggerInternalEv
libpqComponents.so.1:_ZN21pqTriggerOnIdleHelper16staticMetaObjectE
libpqComponents.so.1:_ZN21pqTriggerOnIdleHelper7triggerEv
libpqComponents.so.1:_ZN21pqTriggerOnIdleHelper9setServerEP8pqServer
libpqComponents.so.1:_ZN21pqTriggerOnIdleHelper9triggeredEv
libpqComponents.so.1:_ZN21pqTriggerOnIdleHelperC1EP7QObject
libpqComponents.so.1:_ZN21pqTriggerOnIdleHelperC2EP7QObject
libpqComponents.so.1:_ZN21pqTriggerOnIdleHelperD0Ev
libpqComponents.so.1:_ZN21pqTriggerOnIdleHelperD1Ev
libpqComponents.so.1:_ZN21pqTriggerOnIdleHelperD2Ev
libpqComponents.so.1:_ZN22pqActionGroupInterfaceC2Ev
libpqComponents.so.1:_ZN22pqActionGroupInterfaceD0Ev
libpqComponents.so.1:_ZN22pqActionGroupInterfaceD1Ev
libpqComponents.so.1:_ZN22pqActionGroupInterfaceD2Ev
libpqComponents.so.1:_ZN22pqAnimationTrackEditor10showEditorEv
libpqComponents.so.1:_ZN22pqAnimationTrackEditor11qt_metacallEN11QMetaObject4CallEiPPv
libpqComponents.so.1:_ZN22pqAnimationTrackEditor11qt_metacastEPKc
libpqComponents.so.1:_ZN22pqAnimationTrackEditor16staticMetaObjectE
libpqComponents.so.1:_ZN22pqAnimationTrackEditorC1EP16pqAnimationSceneP14pqAnimationCue
libpqComponents.so.1:_ZN22pqAnimationTrackEditorC2EP16pqAnimationSceneP14pqAnimationCue
libpqComponents.so.1:_ZN22pqAnimationTrackEditorD0Ev
libpqComponents.so.1:_ZN22pqAnimationTrackEditorD1Ev
libpqComponents.so.1:_ZN22pqAnimationTrackEditorD2Ev
libpqComponents.so.1:_ZN22pqArraySelectionWidget11qt_metacallEN11QMetaObject4CallEiPPv
libpqComponents.so.1:_ZN22pqArraySelectionWidget11qt_metacastEPKc
libpqComponents.so.1:_ZN22pqArraySelectionWidget11setIconTypeERK7QStringS2_
libpqComponents.so.1:_ZN22pqArraySelectionWidget13setColumnDataEiRK7QStringO4QMapIS0_S0_E
libpqComponents.so.1:_ZN22pqArraySelectionWidget14setHeaderLabelEiRK7QString
libpqComponents.so.1:_ZN22pqArraySelectionWidget14updatePropertyERK7QStringRK8QVariant
libpqComponents.so.1:_ZN22pqArraySelectionWidget14widgetModifiedEv
libpqComponents.so.1:_ZN22pqArraySelectionWidget15propertyChangedERK7QString
libpqComponents.so.1:_ZN22pqArraySelectionWidget16staticMetaObjectE
libpqComponents.so.1:_ZN22pqArraySelectionWidget17setColumnItemDataEiiRK8QVariant
libpqComponents.so.1:_ZN22pqArraySelectionWidget24resizeSectionsEventuallyEv
libpqComponents.so.1:_ZN22pqArraySelectionWidget24resizeSectionsToContentsEv
libpqComponents.so.1:_ZN22pqArraySelectionWidget5eventEP6QEvent
libpqComponents.so.1:_ZN22pqArraySelectionWidgetC1EP7QWidget
libpqComponents.so.1:_ZN22pqArraySelectionWidgetC1EiP7QWidget
libpqComponents.so.1:_ZN22pqArraySelectionWidgetC2EP7QWidget
libpqComponents.so.1:_ZN22pqArraySelectionWidgetC2EiP7QWidget
libpqComponents.so.1:_ZN22pqArraySelectionWidgetD0Ev
libpqComponents.so.1:_ZN22pqArraySelectionWidgetD1Ev
libpqComponents.so.1:_ZN22pqArraySelectionWidgetD2Ev
libpqComponents.so.1:_ZN22pqCameraKeyFrameWidget11qt_metacallEN11QMetaObject4CallEiPPv
libpqComponents.so.1:_ZN22pqCameraKeyFrameWidget11qt_metacastEPKc
libpqComponents.so.1:_ZN22pqCameraKeyFrameWidget13applyToCameraEP9vtkCamera
libpqComponents.so.1:_ZN22pqCameraKeyFrameWidget14saveToKeyFrameEP10vtkSMProxy
libpqComponents.so.1:_ZN22pqCameraKeyFrameWidget14setFocalPointsERKSt6vectorIdSaIdEE
libpqComponents.so.1:_ZN22pqCameraKeyFrameWidget16staticMetaObjectE
libpqComponents.so.1:_ZN22pqCameraKeyFrameWidget16useCurrentCameraEv
libpqComponents.so.1:_ZN22pqCameraKeyFrameWidget17changeCurrentPageEv
libpqComponents.so.1:_ZN22pqCameraKeyFrameWidget17setPositionPointsERKSt6vectorIdSaIdEE
libpqComponents.so.1:_ZN22pqCameraKeyFrameWidget19initializeUsingJSONERKN4Json5ValueE
libpqComponents.so.1:_ZN22pqCameraKeyFrameWidget19setUsePathBasedModeEb
libpqComponents.so.1:_ZN22pqCameraKeyFrameWidget19updateCurrentCameraEv
libpqComponents.so.1:_ZN22pqCameraKeyFrameWidget21initializeUsingCameraEP9vtkCamera
libpqComponents.so.1:_ZN22pqCameraKeyFrameWidget23initializeUsingKeyFrameEP10vtkSMProxy
libpqComponents.so.1:_ZN22pqCameraKeyFrameWidget9hideEventEP10QHideEvent
libpqComponents.so.1:_ZN22pqCameraKeyFrameWidget9setViewUpEPd
libpqComponents.so.1:_ZN22pqCameraKeyFrameWidget9showEventEP10QShowEvent
libpqComponents.so.1:_ZN22pqCameraKeyFrameWidgetC1EP7QWidget
libpqComponents.so.1:_ZN22pqCameraKeyFrameWidgetC2EP7QWidget
libpqComponents.so.1:_ZN22pqCameraKeyFrameWidgetD0Ev
libpqComponents.so.1:_ZN22pqCameraKeyFrameWidgetD1Ev
libpqComponents.so.1:_ZN22pqCameraKeyFrameWidgetD2Ev
libpqComponents.so.1:_ZN22pqComparativeCueWidget11qt_metacallEN11QMetaObject4CallEiPPv
libpqComponents.so.1:_ZN22pqComparativeCueWidget11qt_metacastEPKc
libpqComponents.so.1:_ZN22pqComparativeCueWidget13onCellChangedEii
libpqComponents.so.1:_ZN22pqComparativeCueWidget13valuesChangedEv
libpqComponents.so.1:_ZN22pqComparativeCueWidget16staticMetaObjectE
libpqComponents.so.1:_ZN22pqComparativeCueWidget17mouseReleaseEventEP11QMouseEvent
libpqComponents.so.1:_ZN22pqComparativeCueWidget6setCueEP10vtkSMProxy
libpqComponents.so.1:_ZN22pqComparativeCueWidget9editRangeEv
libpqComponents.so.1:_ZN22pqComparativeCueWidget9updateGUIEv
libpqComponents.so.1:_ZN22pqComparativeCueWidgetC1EP7QWidget
libpqComponents.so.1:_ZN22pqComparativeCueWidgetC2EP7QWidget
libpqComponents.so.1:_ZN22pqComparativeCueWidgetD0Ev
libpqComponents.so.1:_ZN22pqComparativeCueWidgetD1Ev
libpqComponents.so.1:_ZN22pqComparativeCueWidgetD2Ev
libpqComponents.so.1:_ZN22pqContextMenuInterfaceC1Ev
libpqComponents.so.1:_ZN22pqContextMenuInterfaceC2Ev
libpqComponents.so.1:_ZN22pqContextMenuInterfaceD0Ev
libpqComponents.so.1:_ZN22pqContextMenuInterfaceD1Ev
libpqComponents.so.1:_ZN22pqContextMenuInterfaceD2Ev
libpqComponents.so.1:_ZN22pqDataInformationModel11dataUpdatedEP16pqPipelineSource
libpqComponents.so.1:_ZN22pqDataInformationModel11qt_metacallEN11QMetaObject4CallEiPPv
libpqComponents.so.1:_ZN22pqDataInformationModel11qt_metacastEPKc
libpqComponents.so.1:_ZN22pqDataInformationModel12removeSourceEP16pqPipelineSource
libpqComponents.so.1:_ZN22pqDataInformationModel13setActiveViewEP6pqView
libpqComponents.so.1:_ZN22pqDataInformationModel16staticMetaObjectE
libpqComponents.so.1:_ZN22pqDataInformationModel20refreshGeometrySizesEv
libpqComponents.so.1:_ZN22pqDataInformationModel7setDataERK11QModelIndexRK8QVarianti
libpqComponents.so.1:_ZN22pqDataInformationModel9addSourceEP16pqPipelineSource
libpqComponents.so.1:_ZN22pqDataInformationModelC1EP7QObject
libpqComponents.so.1:_ZN22pqDataInformationModelC2EP7QObject
libpqComponents.so.1:_ZN22pqDataInformationModelD0Ev
libpqComponents.so.1:_ZN22pqDataInformationModelD1Ev
libpqComponents.so.1:_ZN22pqDataInformationModelD2Ev
libpqComponents.so.1:_ZN22pqDisplayOpacityWidget11qt_metacallEN11QMetaObject4CallEiPPv
libpqComponents.so.1:_ZN22pqDisplayOpacityWidget11qt_metacastEPKc
libpqComponents.so.1:_ZN22pqDisplayOpacityWidget15onArrayModifiedEv
libpqComponents.so.1:_ZN22pqDisplayOpacityWidget16staticMetaObjectE
libpqComponents.so.1:_ZN22pqDisplayOpacityWidget17setRepresentationEP20pqDataRepresentation
libpqComponents.so.1:_ZN22pqDisplayOpacityWidgetC1EP7QWidget
libpqComponents.so.1:_ZN22pqDisplayOpacityWidgetC2EP7QWidget
libpqComponents.so.1:_ZN22pqDisplayOpacityWidgetD0Ev
libpqComponents.so.1:_ZN22pqDisplayOpacityWidgetD1Ev
libpqComponents.so.1:_ZN22pqDisplayOpacityWidgetD2Ev
libpqComponents.so.1:_ZN22pqIndexSelectionWidget11buildWidgetEP13vtkSMProperty
libpqComponents.so.1:_ZN22pqIndexSelectionWidget11eventFilterEP7QObjectP6QEvent
libpqComponents.so.1:_ZN22pqIndexSelectionWidget11qt_metacallEN11QMetaObject4CallEiPPv
libpqComponents.so.1:_ZN22pqIndexSelectionWidget11qt_metacastEPKc
libpqComponents.so.1:_ZN22pqIndexSelectionWidget14currentChangedERK7QString
libpqComponents.so.1:_ZN22pqIndexSelectionWidget14currentChangedEi
libpqComponents.so.1:_ZN22pqIndexSelectionWidget14currentChangedEv
libpqComponents.so.1:_ZN22pqIndexSelectionWidget14setHeaderLabelERK7QString
libpqComponents.so.1:_ZN22pqIndexSelectionWidget14updatePropertyEv
libpqComponents.so.1:_ZN22pqIndexSelectionWidget14widgetModifiedEv
libpqComponents.so.1:_ZN22pqIndexSelectionWidget15propertyChangedEv
libpqComponents.so.1:_ZN22pqIndexSelectionWidget16staticMetaObjectE
libpqComponents.so.1:_ZN22pqIndexSelectionWidget18updatePropertyImplEv
libpqComponents.so.1:_ZN22pqIndexSelectionWidget19setPushPropertyNameERK10QByteArray
libpqComponents.so.1:_ZN22pqIndexSelectionWidget6addRowERK7QStringii
libpqComponents.so.1:_ZN22pqIndexSelectionWidgetC1EP10vtkSMProxyP13vtkSMPropertyP7QWidget
libpqComponents.so.1:_ZN22pqIndexSelectionWidgetC2EP10vtkSMProxyP13vtkSMPropertyP7QWidget
libpqComponents.so.1:_ZN22pqIndexSelectionWidgetD0Ev
libpqComponents.so.1:_ZN22pqIndexSelectionWidgetD1Ev
libpqComponents.so.1:_ZN22pqIndexSelectionWidgetD2Ev
libpqComponents.so.1:_ZN22pqItemViewSearchWidget11eventFilterEP7QObjectP6QEvent
libpqComponents.so.1:_ZN22pqItemViewSearchWidget11qt_metacallEN11QMetaObject4CallEiPPv
libpqComponents.so.1:_ZN22pqItemViewSearchWidget11qt_metacastEPKc
libpqComponents.so.1:_ZN22pqItemViewSearchWidget12findPreviousEv
libpqComponents.so.1:_ZN22pqItemViewSearchWidget12updateSearchE7QString
libpqComponents.so.1:_ZN22pqItemViewSearchWidget12updateSearchEv
libpqComponents.so.1:_ZN22pqItemViewSearchWidget13keyPressEventEP9QKeyEvent
libpqComponents.so.1:_ZN22pqItemViewSearchWidget13setBaseWidgetEP7QWidget
libpqComponents.so.1:_ZN22pqItemViewSearchWidget16showSearchWidgetEv
libpqComponents.so.1:_ZN22pqItemViewSearchWidget16staticMetaObjectE
libpqComponents.so.1:_ZN22pqItemViewSearchWidget8findNextEv
libpqComponents.so.1:_ZN22pqItemViewSearchWidget9showEventEP10QShowEvent
libpqComponents.so.1:_ZN22pqItemViewSearchWidgetC1EP7QWidget
libpqComponents.so.1:_ZN22pqItemViewSearchWidgetC2EP7QWidget
libpqComponents.so.1:_ZN22pqItemViewSearchWidgetD0Ev
libpqComponents.so.1:_ZN22pqItemViewSearchWidgetD1Ev
libpqComponents.so.1:_ZN22pqItemViewSearchWidgetD2Ev
libpqComponents.so.1:_ZN22pqMemoryInspectorPanel10InitializeEv
libpqComponents.so.1:_ZN22pqMemoryInspectorPanel11ClearClientEv
libpqComponents.so.1:_ZN22pqMemoryInspectorPanel11ClearServerERSt3mapINSt7__cxx1112basic_stringIcSt11char_traitsIcESaIcEEEP8HostDataSt4lessIS6_ESaISt4pairIKS6_S8_EEERSt6vectorIP8RankDataSaISJ_EE
libpqComponents.so.1:_ZN22pqMemoryInspectorPanel11UpdateHostsERSt3mapINSt7__cxx1112basic_stringIcSt11char_traitsIcESaIcEEEP8HostDataSt4lessIS6_ESaISt4pairIKS6_S8_EEE
libpqComponents.so.1:_ZN22pqMemoryInspectorPanel11UpdateHostsEv
libpqComponents.so.1:_ZN22pqMemoryInspectorPanel11UpdateRanksEv
libpqComponents.so.1:_ZN22pqMemoryInspectorPanel11qt_metacallEN11QMetaObject4CallEiPPv
libpqComponents.so.1:_ZN22pqMemoryInspectorPanel11qt_metacastEPKc
libpqComponents.so.1:_ZN22pqMemoryInspectorPanel12ClearServersEv
libpqComponents.so.1:_ZN22pqMemoryInspectorPanel12EnableUpdateEv
libpqComponents.so.1:_ZN22pqMemoryInspectorPanel12ShowAllRanksEv
libpqComponents.so.1:_ZN22pqMemoryInspectorPanel13ConnectToViewEP6pqView
libpqComponents.so.1:_ZN22pqMemoryInspectorPanel13ShowOnlyNodesEv
libpqComponents.so.1:_ZN22pqMemoryInspectorPanel14NewGroupWidgetENSt7__cxx1112basic_stringIcSt11char_traitsIcESaIcEEES5_
libpqComponents.so.1:_ZN22pqMemoryInspectorPanel15RenderCompletedEv
libpqComponents.so.1:_ZN22pqMemoryInspectorPanel15ServerConnectedEv
libpqComponents.so.1:_ZN22pqMemoryInspectorPanel16EnableStackTraceEbi
libpqComponents.so.1:_ZN22pqMemoryInspectorPanel16staticMetaObjectE
libpqComponents.so.1:_ZN22pqMemoryInspectorPanel18ServerDisconnectedEv
libpqComponents.so.1:_ZN22pqMemoryInspectorPanel19RemoteCommandFailedEN8QProcess12ProcessErrorE
libpqComponents.so.1:_ZN22pqMemoryInspectorPanel20ExecuteRemoteCommandEv
libpqComponents.so.1:_ZN22pqMemoryInspectorPanel21ConfigViewContextMenuERK6QPoint
libpqComponents.so.1:_ZN22pqMemoryInspectorPanel21InitializeServerGroupExP28vtkPVSystemConfigInformationiP15QTreeWidgetItemNSt7__cxx1112basic_stringIcSt11char_traitsIcESaIcEEERSt3mapIS9_P8HostDataSt4lessIS9_ESaISt4pairIKS9_SC_EEERSt6vectorIP8RankDataSaISN_EERi
libpqComponents.so.1:_ZN22pqMemoryInspectorPanel24EnableStackTraceOnClientEb
libpqComponents.so.1:_ZN22pqMemoryInspectorPanel24EnableStackTraceOnServerEb
libpqComponents.so.1:_ZN22pqMemoryInspectorPanel24ShowHostPropertiesDialogEv
libpqComponents.so.1:_ZN22pqMemoryInspectorPanel28EnableStackTraceOnDataServerEb
libpqComponents.so.1:_ZN22pqMemoryInspectorPanel29AddEnableStackTraceMenuActionEiR5QMenu
libpqComponents.so.1:_ZN22pqMemoryInspectorPanel30EnableStackTraceOnRenderServerEb
libpqComponents.so.1:_ZN22pqMemoryInspectorPanel5ClearEv
libpqComponents.so.1:_ZN22pqMemoryInspectorPanel6UpdateEv
libpqComponents.so.1:_ZN22pqMemoryInspectorPanel9showEventEP10QShowEvent
libpqComponents.so.1:_ZN22pqMemoryInspectorPanelC1EP7QWidget6QFlagsIN2Qt10WindowTypeEE
libpqComponents.so.1:_ZN22pqMemoryInspectorPanelC2EP7QWidget6QFlagsIN2Qt10WindowTypeEE
libpqComponents.so.1:_ZN22pqMemoryInspectorPanelD0Ev
libpqComponents.so.1:_ZN22pqMemoryInspectorPanelD1Ev
libpqComponents.so.1:_ZN22pqMemoryInspectorPanelD2Ev
libpqComponents.so.1:_ZN22pqProxySelectionWidget11qt_metacallEN11QMetaObject4CallEiPPv
libpqComponents.so.1:_ZN22pqProxySelectionWidget11qt_metacastEPKc
libpqComponents.so.1:_ZN22pqProxySelectionWidget12updateWidgetEb
libpqComponents.so.1:_ZN22pqProxySelectionWidget14setChosenProxyEP10vtkSMProxy
libpqComponents.so.1:_ZN22pqProxySelectionWidget16staticMetaObjectE
libpqComponents.so.1:_ZN22pqProxySelectionWidget18chosenProxyChangedEv
libpqComponents.so.1:_ZN22pqProxySelectionWidget18setPanelVisibilityEPKc
libpqComponents.so.1:_ZN22pqProxySelectionWidget19currentIndexChangedEi
libpqComponents.so.1:_ZN22pqProxySelectionWidget5applyEv
libpqComponents.so.1:_ZN22pqProxySelectionWidget5resetEv
libpqComponents.so.1:_ZN22pqProxySelectionWidget6selectEv
libpqComponents.so.1:_ZN22pqProxySelectionWidget7setViewEP6pqView
libpqComponents.so.1:_ZN22pqProxySelectionWidget8deselectEv
libpqComponents.so.1:_ZN22pqProxySelectionWidgetC1EP13vtkSMPropertyP10vtkSMProxyP7QWidget
libpqComponents.so.1:_ZN22pqProxySelectionWidgetC2EP13vtkSMPropertyP10vtkSMProxyP7QWidget
libpqComponents.so.1:_ZN22pqProxySelectionWidgetD0Ev
libpqComponents.so.1:_ZN22pqProxySelectionWidgetD1Ev
libpqComponents.so.1:_ZN22pqProxySelectionWidgetD2Ev
libpqComponents.so.1:_ZN22pqSelectionInputWidget10postAcceptEv
libpqComponents.so.1:_ZN22pqSelectionInputWidget11qt_metacallEN11QMetaObject4CallEiPPv
libpqComponents.so.1:_ZN22pqSelectionInputWidget11qt_metacastEPKc
libpqComponents.so.1:_ZN22pqSelectionInputWidget12setSelectionE15vtkSmartPointerI10vtkSMProxyE
libpqComponents.so.1:_ZN22pqSelectionInputWidget12updateLabelsEv
libpqComponents.so.1:_ZN22pqSelectionInputWidget16selectionChangedE15vtkSmartPointerI10vtkSMProxyE
libpqComponents.so.1:_ZN22pqSelectionInputWidget16staticMetaObjectE
libpqComponents.so.1:_ZN22pqSelectionInputWidget19copyActiveSelectionEv
libpqComponents.so.1:_ZN22pqSelectionInputWidget24onActiveSelectionChangedEv
libpqComponents.so.1:_ZN22pqSelectionInputWidget9preAcceptEv
libpqComponents.so.1:_ZN22pqSelectionInputWidgetC1EP7QWidget
libpqComponents.so.1:_ZN22pqSelectionInputWidgetC2EP7QWidget
libpqComponents.so.1:_ZN22pqSelectionInputWidgetD0Ev
libpqComponents.so.1:_ZN22pqSelectionInputWidgetD1Ev
libpqComponents.so.1:_ZN22pqSelectionInputWidgetD2Ev
libpqComponents.so.1:_ZN23pqCommandPropertyWidget11qt_metacallEN11QMetaObject4CallEiPPv
libpqComponents.so.1:_ZN23pqCommandPropertyWidget11qt_metacastEPKc
libpqComponents.so.1:_ZN23pqCommandPropertyWidget13buttonClickedEv
libpqComponents.so.1:_ZN23pqCommandPropertyWidget16staticMetaObjectE
libpqComponents.so.1:_ZN23pqCommandPropertyWidgetC1EP13vtkSMPropertyP10vtkSMProxyP7QWidget
libpqComponents.so.1:_ZN23pqCommandPropertyWidgetC2EP13vtkSMPropertyP10vtkSMProxyP7QWidget
libpqComponents.so.1:_ZN23pqCommandPropertyWidgetD0Ev
libpqComponents.so.1:_ZN23pqCommandPropertyWidgetD1Ev
libpqComponents.so.1:_ZN23pqCommandPropertyWidgetD2Ev
libpqComponents.so.1:_ZN23pqComponentsTestUtility11CompareViewERK7QStringdS2_
libpqComponents.so.1:_ZN23pqComponentsTestUtility11qt_metacallEN11QMetaObject4CallEiPPv
libpqComponents.so.1:_ZN23pqComponentsTestUtility11qt_metacastEPKc
libpqComponents.so.1:_ZN23pqComponentsTestUtility16staticMetaObjectE
libpqComponents.so.1:_ZN23pqComponentsTestUtilityC1EP7QObject
libpqComponents.so.1:_ZN23pqComponentsTestUtilityC2EP7QObject
libpqComponents.so.1:_ZN23pqDataAssemblyTreeModel11pqInternals23updateParentCheckStatesEi
libpqComponents.so.1:_ZN23pqDataAssemblyTreeModel11pqInternals7setDataEiiRK8QVariant
libpqComponents.so.1:_ZN23pqDataAssemblyTreeModel11qt_metacallEN11QMetaObject4CallEiPPv
libpqComponents.so.1:_ZN23pqDataAssemblyTreeModel11qt_metacastEPKc
libpqComponents.so.1:_ZN23pqDataAssemblyTreeModel15fireDataChangedERK11QModelIndexRK5QListIiE
libpqComponents.so.1:_ZN23pqDataAssemblyTreeModel15setCheckedNodesERK5QListI7QStringE
libpqComponents.so.1:_ZN23pqDataAssemblyTreeModel15setDataAssemblyEP15vtkDataAssembly
libpqComponents.so.1:_ZN23pqDataAssemblyTreeModel15setRolePropertyEiNS_14RolePropertiesE
libpqComponents.so.1:_ZN23pqDataAssemblyTreeModel16modelDataChangedEi
libpqComponents.so.1:_ZN23pqDataAssemblyTreeModel16setUserCheckableEb
libpqComponents.so.1:_ZN23pqDataAssemblyTreeModel16staticMetaObjectE
libpqComponents.so.1:_ZN23pqDataAssemblyTreeModel7setDataERK11QModelIndexRK8QVarianti
libpqComponents.so.1:_ZN23pqDataAssemblyTreeModel7setDataERK5QListISt4pairI7QString8QVariantEEi
libpqComponents.so.1:_ZN23pqDataAssemblyTreeModelC1EP7QObject
libpqComponents.so.1:_ZN23pqDataAssemblyTreeModelC2EP7QObject
libpqComponents.so.1:_ZN23pqDataAssemblyTreeModelD0Ev
libpqComponents.so.1:_ZN23pqDataAssemblyTreeModelD1Ev
libpqComponents.so.1:_ZN23pqDataAssemblyTreeModelD2Ev
libpqComponents.so.1:_ZN23pqDataInformationWidget11eventFilterEP7QObjectP6QEvent
libpqComponents.so.1:_ZN23pqDataInformationWidget11qt_metacallEN11QMetaObject4CallEiPPv
libpqComponents.so.1:_ZN23pqDataInformationWidget11qt_metacastEPKc
libpqComponents.so.1:_ZN23pqDataInformationWidget16staticMetaObjectE
libpqComponents.so.1:_ZN23pqDataInformationWidget19showBodyContextMenuERK6QPoint
libpqComponents.so.1:_ZN23pqDataInformationWidget21showHeaderContextMenuERK6QPoint
libpqComponents.so.1:_ZN23pqDataInformationWidgetC1EP7QWidget
libpqComponents.so.1:_ZN23pqDataInformationWidgetC2EP7QWidget
libpqComponents.so.1:_ZN23pqDataInformationWidgetD0Ev
libpqComponents.so.1:_ZN23pqDataInformationWidgetD1Ev
libpqComponents.so.1:_ZN23pqDataInformationWidgetD2Ev
libpqComponents.so.1:_ZN23pqDisplayPanelInterfaceD0Ev
libpqComponents.so.1:_ZN23pqDisplayPanelInterfaceD1Ev
libpqComponents.so.1:_ZN23pqDisplayPanelInterfaceD2Ev
libpqComponents.so.1:_ZN23pqExpressionsTableModel10insertRowsEiiRK11QModelIndex
libpqComponents.so.1:_ZN23pqExpressionsTableModel10removeRowsEiiRK11QModelIndex
libpqComponents.so.1:_ZN23pqExpressionsTableModel11qt_metacallEN11QMetaObject4CallEiPPv
libpqComponents.so.1:_ZN23pqExpressionsTableModel11qt_metacastEPKc
libpqComponents.so.1:_ZN23pqExpressionsTableModel13setExpressionEiRK7QString
libpqComponents.so.1:_ZN23pqExpressionsTableModel14addExpressionsERK5QListIN20pqExpressionsManager12pqExpressionEE
libpqComponents.so.1:_ZN23pqExpressionsTableModel14getExpressionsERK7QString
libpqComponents.so.1:_ZN23pqExpressionsTableModel14getExpressionsEv
libpqComponents.so.1:_ZN23pqExpressionsTableModel14setExpressionsERK5QListIN20pqExpressionsManager12pqExpressionEE
libpqComponents.so.1:_ZN23pqExpressionsTableModel15expressionIndexERKN20pqExpressionsManager12pqExpressionE
libpqComponents.so.1:_ZN23pqExpressionsTableModel16addNewExpressionEv
libpqComponents.so.1:_ZN23pqExpressionsTableModel16removeExpressionEi
libpqComponents.so.1:_ZN23pqExpressionsTableModel16staticMetaObjectE
libpqComponents.so.1:_ZN23pqExpressionsTableModel17removeExpressionsERK5QListI11QModelIndexE
libpqComponents.so.1:_ZN23pqExpressionsTableModel17setExpressionNameEiRK7QString
libpqComponents.so.1:_ZN23pqExpressionsTableModel18setExpressionGroupEiRK7QString
libpqComponents.so.1:_ZN23pqExpressionsTableModel20removeAllExpressionsEv
libpqComponents.so.1:_ZN23pqExpressionsTableModel21getExpressionAsStringERK11QModelIndex
libpqComponents.so.1:_ZN23pqExpressionsTableModel7setDataERK11QModelIndexRK8QVarianti
libpqComponents.so.1:_ZN23pqExpressionsTableModel8getGroupERK11QModelIndex
libpqComponents.so.1:_ZN23pqExpressionsTableModel9getGroupsEv
libpqComponents.so.1:_ZN23pqExpressionsTableModelC1EP7QObject
libpqComponents.so.1:_ZN23pqExpressionsTableModelC2EP7QObject
libpqComponents.so.1:_ZN23pqHighlightItemDelegate11qt_metacallEN11QMetaObject4CallEiPPv
libpqComponents.so.1:_ZN23pqHighlightItemDelegate11qt_metacastEPKc
libpqComponents.so.1:_ZN23pqHighlightItemDelegate16staticMetaObjectE
libpqComponents.so.1:_ZN23pqIntMaskPropertyWidget11maskChangedEv
libpqComponents.so.1:_ZN23pqIntMaskPropertyWidget11qt_metacallEN11QMetaObject4CallEiPPv
libpqComponents.so.1:_ZN23pqIntMaskPropertyWidget11qt_metacastEPKc
libpqComponents.so.1:_ZN23pqIntMaskPropertyWidget16staticMetaObjectE
libpqComponents.so.1:_ZN23pqIntMaskPropertyWidget7setMaskEi
libpqComponents.so.1:_ZN23pqIntMaskPropertyWidgetC1EP10vtkSMProxyP13vtkSMPropertyP7QWidget
libpqComponents.so.1:_ZN23pqIntMaskPropertyWidgetC2EP10vtkSMProxyP13vtkSMPropertyP7QWidget
libpqComponents.so.1:_ZN23pqIntMaskPropertyWidgetD0Ev
libpqComponents.so.1:_ZN23pqIntMaskPropertyWidgetD1Ev
libpqComponents.so.1:_ZN23pqIntMaskPropertyWidgetD2Ev
libpqComponents.so.1:_ZN23pqKeyFrameTimeValidator11qt_metacallEN11QMetaObject4CallEiPPv
libpqComponents.so.1:_ZN23pqKeyFrameTimeValidator11qt_metacastEPKc
libpqComponents.so.1:_ZN23pqKeyFrameTimeValidator16onDomainModifiedEv
libpqComponents.so.1:_ZN23pqKeyFrameTimeValidator16staticMetaObjectE
libpqComponents.so.1:_ZN23pqKeyFrameTimeValidator17setAnimationSceneEP16pqAnimationScene
libpqComponents.so.1:_ZN23pqKeyFrameTimeValidator9setDomainEP11vtkSMDomain
libpqComponents.so.1:_ZN23pqKeyFrameTimeValidatorC1EP7QObject
libpqComponents.so.1:_ZN23pqKeyFrameTimeValidatorC2EP7QObject
libpqComponents.so.1:_ZN23pqKeyFrameTimeValidatorD0Ev
libpqComponents.so.1:_ZN23pqKeyFrameTimeValidatorD1Ev
libpqComponents.so.1:_ZN23pqKeyFrameTimeValidatorD2Ev
libpqComponents.so.1:_ZN23pqPipelineBrowserWidget11eventFilterEP7QObjectP6QEvent
libpqComponents.so.1:_ZN23pqPipelineBrowserWidget11qt_metacallEN11QMetaObject4CallEiPPv
libpqComponents.so.1:_ZN23pqPipelineBrowserWidget11qt_metacastEPKc
libpqComponents.so.1:_ZN23pqPipelineBrowserWidget13setActiveViewEP6pqView
libpqComponents.so.1:_ZN23pqPipelineBrowserWidget13setVisibilityEbP12pqOutputPort
libpqComponents.so.1:_ZN23pqPipelineBrowserWidget13setVisibilityEbRK5QListI11QModelIndexE
libpqComponents.so.1:_ZN23pqPipelineBrowserWidget13viewportEventEP6QEvent
libpqComponents.so.1:_ZN23pqPipelineBrowserWidget14configureModelEv
libpqComponents.so.1:_ZN23pqPipelineBrowserWidget16contextMenuEventEP17QContextMenuEvent
libpqComponents.so.1:_ZN23pqPipelineBrowserWidget16staticMetaObjectE
libpqComponents.so.1:_ZN23pqPipelineBrowserWidget18handleIndexClickedERK11QModelIndex
libpqComponents.so.1:_ZN23pqPipelineBrowserWidget19enableSessionFilterEP10vtkSession
libpqComponents.so.1:_ZN23pqPipelineBrowserWidget20disableSessionFilterEv
libpqComponents.so.1:_ZN23pqPipelineBrowserWidget22enableAnnotationFilterERK7QString
libpqComponents.so.1:_ZN23pqPipelineBrowserWidget22setSelectionVisibilityEb
libpqComponents.so.1:_ZN23pqPipelineBrowserWidget23disableAnnotationFilterEv
libpqComponents.so.1:_ZN23pqPipelineBrowserWidget27setAnnotationFilterMatchingEb
libpqComponents.so.1:_ZN23pqPipelineBrowserWidget31expandWithModelIndexTranslationERK11QModelIndex
libpqComponents.so.1:_ZN23pqPipelineBrowserWidget8setModelEP15pqPipelineModel
libpqComponents.so.1:_ZN23pqPipelineBrowserWidget9deleteKeyEv
libpqComponents.so.1:_ZN23pqPipelineBrowserWidgetC1EP7QWidget
libpqComponents.so.1:_ZN23pqPipelineBrowserWidgetC2EP7QWidget
libpqComponents.so.1:_ZN23pqPipelineBrowserWidgetD0Ev
libpqComponents.so.1:_ZN23pqPipelineBrowserWidgetD1Ev
libpqComponents.so.1:_ZN23pqPipelineBrowserWidgetD2Ev
libpqComponents.so.1:_ZN23pqSingleLogViewerWidget10closeEventEP11QCloseEvent
libpqComponents.so.1:_ZN23pqSingleLogViewerWidget11qt_metacallEN11QMetaObject4CallEiPPv
libpqComponents.so.1:_ZN23pqSingleLogViewerWidget11qt_metacastEPKc
libpqComponents.so.1:_ZN23pqSingleLogViewerWidget16staticMetaObjectE
libpqComponents.so.1:_ZN23pqSingleLogViewerWidget7refreshEv
libpqComponents.so.1:_ZN23pqSingleLogViewerWidgetC1EP7QWidget15vtkSmartPointerI10vtkSMProxyEi
libpqComponents.so.1:_ZN23pqSingleLogViewerWidgetC2EP7QWidget15vtkSmartPointerI10vtkSMProxyEi
libpqComponents.so.1:_ZN23pqTabbedMultiViewWidget10proxyAddedEP7pqProxy
libpqComponents.so.1:_ZN23pqTabbedMultiViewWidget11eventFilterEP7QObjectP6QEvent
libpqComponents.so.1:_ZN23pqTabbedMultiViewWidget11pqTabWidget11setReadOnlyEb
libpqComponents.so.1:_ZN23pqTabbedMultiViewWidget11pqTabWidget12setTabButtonEiN7QTabBar14ButtonPositionEP7QWidget
libpqComponents.so.1:_ZN23pqTabbedMultiViewWidget11pqTabWidget15popoutLabelTextEb
libpqComponents.so.1:_ZN23pqTabbedMultiViewWidget11pqTabWidget17popoutLabelPixmapEb
libpqComponents.so.1:_ZN23pqTabbedMultiViewWidget11pqTabWidget19setTabBarVisibilityEb
libpqComponents.so.1:_ZN23pqTabbedMultiViewWidget11pqTabWidget29createViewSelectorTabIfNeededEi
libpqComponents.so.1:_ZN23pqTabbedMultiViewWidget11pqTabWidget7previewERK5QSize
libpqComponents.so.1:_ZN23pqTabbedMultiViewWidget11pqTabWidget8addAsTabEP17pqMultiViewWidgetPS_
libpqComponents.so.1:_ZN23pqTabbedMultiViewWidget11pqTabWidgetC1EP7QWidget
libpqComponents.so.1:_ZN23pqTabbedMultiViewWidget11pqTabWidgetC2EP7QWidget
libpqComponents.so.1:_ZN23pqTabbedMultiViewWidget11pqTabWidgetD0Ev
libpqComponents.so.1:_ZN23pqTabbedMultiViewWidget11pqTabWidgetD1Ev
libpqComponents.so.1:_ZN23pqTabbedMultiViewWidget11pqTabWidgetD2Ev
libpqComponents.so.1:_ZN23pqTabbedMultiViewWidget11qt_metacallEN11QMetaObject4CallEiPPv
libpqComponents.so.1:_ZN23pqTabbedMultiViewWidget11qt_metacastEPKc
libpqComponents.so.1:_ZN23pqTabbedMultiViewWidget11setReadOnlyEb
libpqComponents.so.1:_ZN23pqTabbedMultiViewWidget12lockViewSizeERK5QSize
libpqComponents.so.1:_ZN23pqTabbedMultiViewWidget12proxyRemovedEP7pqProxy
libpqComponents.so.1:_ZN23pqTabbedMultiViewWidget13onStateLoadedEv
libpqComponents.so.1:_ZN23pqTabbedMultiViewWidget13serverRemovedEP8pqServer
libpqComponents.so.1:_ZN23pqTabbedMultiViewWidget13setCurrentTabEi
libpqComponents.so.1:_ZN23pqTabbedMultiViewWidget14viewSizeLockedEb
libpqComponents.so.1:_ZN23pqTabbedMultiViewWidget16setTabVisibilityEb
libpqComponents.so.1:_ZN23pqTabbedMultiViewWidget16staticMetaObjectE
libpqComponents.so.1:_ZN23pqTabbedMultiViewWidget16toggleFullScreenEv
libpqComponents.so.1:_ZN23pqTabbedMultiViewWidget17currentTabChangedEi
libpqComponents.so.1:_ZN23pqTabbedMultiViewWidget17fullScreenEnabledEb
libpqComponents.so.1:_ZN23pqTabbedMultiViewWidget17updateVisibleTabsEv
libpqComponents.so.1:_ZN23pqTabbedMultiViewWidget19onLayoutNameChangedEP24pqServerManagerModelItem
libpqComponents.so.1:_ZN23pqTabbedMultiViewWidget20contextMenuRequestedERK6QPoint
libpqComponents.so.1:_ZN23pqTabbedMultiViewWidget22enableAnnotationFilterERK7QString
libpqComponents.so.1:_ZN23pqTabbedMultiViewWidget22toggleWidgetDecorationEv
libpqComponents.so.1:_ZN23pqTabbedMultiViewWidget23disableAnnotationFilterEv
libpqComponents.so.1:_ZN23pqTabbedMultiViewWidget24setDecorationsVisibilityEb
libpqComponents.so.1:_ZN23pqTabbedMultiViewWidget26toggleFullScreenActiveViewEv
libpqComponents.so.1:_ZN23pqTabbedMultiViewWidget27fullScreenActiveViewEnabledEb
libpqComponents.so.1:_ZN23pqTabbedMultiViewWidget27setAnnotationFilterMatchingEb
libpqComponents.so.1:_ZN23pqTabbedMultiViewWidget5resetEv
libpqComponents.so.1:_ZN23pqTabbedMultiViewWidget7previewERK5QSize
libpqComponents.so.1:_ZN23pqTabbedMultiViewWidget8closeTabEi
libpqComponents.so.1:_ZN23pqTabbedMultiViewWidget9createTabEP20vtkSMViewLayoutProxy
libpqComponents.so.1:_ZN23pqTabbedMultiViewWidget9createTabEP8pqServer
libpqComponents.so.1:_ZN23pqTabbedMultiViewWidget9createTabEv
libpqComponents.so.1:_ZN23pqTabbedMultiViewWidgetC1EP7QWidget
libpqComponents.so.1:_ZN23pqTabbedMultiViewWidgetC2EP7QWidget
libpqComponents.so.1:_ZN23pqTabbedMultiViewWidgetD0Ev
libpqComponents.so.1:_ZN23pqTabbedMultiViewWidgetD1Ev
libpqComponents.so.1:_ZN23pqTabbedMultiViewWidgetD2Ev
libpqComponents.so.1:_ZN24pqColorPaletteLinkHelper11qt_metacallEN11QMetaObject4CallEiPPv
libpqComponents.so.1:_ZN24pqColorPaletteLinkHelper11qt_metacastEPKc
libpqComponents.so.1:_ZN24pqColorPaletteLinkHelper16staticMetaObjectE
libpqComponents.so.1:_ZN24pqColorPaletteLinkHelper23setSelectedPaletteColorERK7QString
libpqComponents.so.1:_ZN24pqColorPaletteLinkHelperC1EP32pqColorChooserButtonWithPalettesP10vtkSMProxyPKc
libpqComponents.so.1:_ZN24pqColorPaletteLinkHelperC2EP32pqColorChooserButtonWithPalettesP10vtkSMProxyPKc
libpqComponents.so.1:_ZN24pqColorPaletteLinkHelperD0Ev
libpqComponents.so.1:_ZN24pqColorPaletteLinkHelperD1Ev
libpqComponents.so.1:_ZN24pqColorPaletteLinkHelperD2Ev
libpqComponents.so.1:_ZN24pqProxyInformationWidget11qt_metacallEN11QMetaObject4CallEiPPv
libpqComponents.so.1:_ZN24pqProxyInformationWidget11qt_metacastEPKc
libpqComponents.so.1:_ZN24pqProxyInformationWidget13setOutputPortEP12pqOutputPort
libpqComponents.so.1:_ZN24pqProxyInformationWidget14updateSubsetUIEv
libpqComponents.so.1:_ZN24pqProxyInformationWidget16staticMetaObjectE
libpqComponents.so.1:_ZN24pqProxyInformationWidget8updateUIEv
libpqComponents.so.1:_ZN24pqProxyInformationWidgetC1EP7QWidget
libpqComponents.so.1:_ZN24pqProxyInformationWidgetC2EP7QWidget
libpqComponents.so.1:_ZN24pqProxyInformationWidgetD0Ev
libpqComponents.so.1:_ZN24pqProxyInformationWidgetD1Ev
libpqComponents.so.1:_ZN24pqProxyInformationWidgetD2Ev
libpqComponents.so.1:_ZN24pqTransferFunctionWidget10initializeEP18vtkScalarsToColorsbP20vtkPiecewiseFunctionb
libpqComponents.so.1:_ZN24pqTransferFunctionWidget11qt_metacallEN11QMetaObject4CallEiPPv
libpqComponents.so.1:_ZN24pqTransferFunctionWidget11qt_metacastEPKc
libpqComponents.so.1:_ZN24pqTransferFunctionWidget15setCurrentPointEx
libpqComponents.so.1:_ZN24pqTransferFunctionWidget15showUsageStatusEv
libpqComponents.so.1:_ZN24pqTransferFunctionWidget16SetLogScaleXAxisEb
libpqComponents.so.1:_ZN24pqTransferFunctionWidget16staticMetaObjectE
libpqComponents.so.1:_ZN24pqTransferFunctionWidget17setHistogramTableEP8vtkTable
libpqComponents.so.1:_ZN24pqTransferFunctionWidget18chartRangeModifiedEv
libpqComponents.so.1:_ZN24pqTransferFunctionWidget19currentPointChangedEx
libpqComponents.so.1:_ZN24pqTransferFunctionWidget21controlPointsModifiedEv
libpqComponents.so.1:_ZN24pqTransferFunctionWidget21onCurrentChangedEventEv
libpqComponents.so.1:_ZN24pqTransferFunctionWidget23onCurrentPointEditEventEv
libpqComponents.so.1:_ZN24pqTransferFunctionWidget23setCurrentPointPositionEd
libpqComponents.so.1:_ZN24pqTransferFunctionWidget24rangeHandlesRangeChangedEdd
libpqComponents.so.1:_ZN24pqTransferFunctionWidget25rangeHandlesDoubleClickedEv
libpqComponents.so.1:_ZN24pqTransferFunctionWidget26onRangeHandlesRangeChangedEv
libpqComponents.so.1:_ZN24pqTransferFunctionWidget30editColorAtCurrentControlPointEv
libpqComponents.so.1:_ZN24pqTransferFunctionWidget31SetControlPointsFreehandDrawingEb
libpqComponents.so.1:_ZN24pqTransferFunctionWidget6renderEv
libpqComponents.so.1:_ZN24pqTransferFunctionWidgetC1EP7QWidget
libpqComponents.so.1:_ZN24pqTransferFunctionWidgetC2EP7QWidget
libpqComponents.so.1:_ZN24pqTransferFunctionWidgetD0Ev
libpqComponents.so.1:_ZN24pqTransferFunctionWidgetD1Ev
libpqComponents.so.1:_ZN24pqTransferFunctionWidgetD2Ev
libpqComponents.so.1:_ZN25pqAnimatableProxyComboBox11qt_metacallEN11QMetaObject4CallEiPPv
libpqComponents.so.1:_ZN25pqAnimatableProxyComboBox11qt_metacastEPKc
libpqComponents.so.1:_ZN25pqAnimatableProxyComboBox11removeProxyERK7QString
libpqComponents.so.1:_ZN25pqAnimatableProxyComboBox13onNameChangedEP24pqServerManagerModelItem
libpqComponents.so.1:_ZN25pqAnimatableProxyComboBox13onSourceAddedEP16pqPipelineSource
libpqComponents.so.1:_ZN25pqAnimatableProxyComboBox15onSourceRemovedEP16pqPipelineSource
libpqComponents.so.1:_ZN25pqAnimatableProxyComboBox16staticMetaObjectE
libpqComponents.so.1:_ZN25pqAnimatableProxyComboBox19currentProxyChangedEP10vtkSMProxy
libpqComponents.so.1:_ZN25pqAnimatableProxyComboBox22onCurrentSourceChangedEi
libpqComponents.so.1:_ZN25pqAnimatableProxyComboBox8addProxyEiRK7QStringP10vtkSMProxy
libpqComponents.so.1:_ZN25pqAnimatableProxyComboBox9findProxyEP10vtkSMProxy
libpqComponents.so.1:_ZN25pqAnimatableProxyComboBoxC1EP7QWidget
libpqComponents.so.1:_ZN25pqAnimatableProxyComboBoxC2EP7QWidget
libpqComponents.so.1:_ZN25pqAnimatableProxyComboBoxD0Ev
libpqComponents.so.1:_ZN25pqAnimatableProxyComboBoxD1Ev
libpqComponents.so.1:_ZN25pqAnimatableProxyComboBoxD2Ev
libpqComponents.so.1:_ZN25pqAnimationProgressDialog11qt_metacallEN11QMetaObject4CallEiPPv
libpqComponents.so.1:_ZN25pqAnimationProgressDialog11qt_metacastEPKc
libpqComponents.so.1:_ZN25pqAnimationProgressDialog16staticMetaObjectE
libpqComponents.so.1:_ZN25pqAnimationProgressDialog17setAnimationSceneEP10vtkSMProxy
libpqComponents.so.1:_ZN25pqAnimationProgressDialog17setAnimationSceneEP16pqAnimationScene
libpqComponents.so.1:_ZN25pqAnimationProgressDialogC1EP7QWidget6QFlagsIN2Qt10WindowTypeEE
libpqComponents.so.1:_ZN25pqAnimationProgressDialogC1ERK7QStringS2_iiP7QWidget6QFlagsIN2Qt10WindowTypeEE
libpqComponents.so.1:_ZN25pqAnimationProgressDialogC2EP7QWidget6QFlagsIN2Qt10WindowTypeEE
libpqComponents.so.1:_ZN25pqAnimationProgressDialogC2ERK7QStringS2_iiP7QWidget6QFlagsIN2Qt10WindowTypeEE
libpqComponents.so.1:_ZN25pqAnimationProgressDialogD0Ev
libpqComponents.so.1:_ZN25pqAnimationProgressDialogD1Ev
libpqComponents.so.1:_ZN25pqAnimationProgressDialogD2Ev
libpqComponents.so.1:_ZN25pqDynamicPropertiesWidget11buildWidgetEP13vtkSMProperty
libpqComponents.so.1:_ZN25pqDynamicPropertiesWidget11eventFilterEP7QObjectP6QEvent
libpqComponents.so.1:_ZN25pqDynamicPropertiesWidget11qt_metacallEN11QMetaObject4CallEiPPv
libpqComponents.so.1:_ZN25pqDynamicPropertiesWidget11qt_metacastEPKc
libpqComponents.so.1:_ZN25pqDynamicPropertiesWidget14setHeaderLabelERK7QString
libpqComponents.so.1:_ZN25pqDynamicPropertiesWidget14updatePropertyEv
libpqComponents.so.1:_ZN25pqDynamicPropertiesWidget14widgetModifiedEv
libpqComponents.so.1:_ZN25pqDynamicPropertiesWidget15clearPropertiesEv
libpqComponents.so.1:_ZN25pqDynamicPropertiesWidget15propertyChangedEv
libpqComponents.so.1:_ZN25pqDynamicPropertiesWidget16staticMetaObjectE
libpqComponents.so.1:_ZN25pqDynamicPropertiesWidget18updatePropertyImplEv
libpqComponents.so.1:_ZN25pqDynamicPropertiesWidget19setPushPropertyNameERK10QByteArray
libpqComponents.so.1:_ZN25pqDynamicPropertiesWidget7findRowERK7QString
libpqComponents.so.1:_ZN25pqDynamicPropertiesWidgetC1EP10vtkSMProxyP13vtkSMPropertyP7QWidget
libpqComponents.so.1:_ZN25pqDynamicPropertiesWidgetC2EP10vtkSMProxyP13vtkSMPropertyP7QWidget
libpqComponents.so.1:_ZN25pqDynamicPropertiesWidgetD0Ev
libpqComponents.so.1:_ZN25pqDynamicPropertiesWidgetD1Ev
libpqComponents.so.1:_ZN25pqDynamicPropertiesWidgetD2Ev
libpqComponents.so.1:_ZN25pqExpressionChooserButton10updateMenuEv
libpqComponents.so.1:_ZN25pqExpressionChooserButton11qt_metacallEN11QMetaObject4CallEiPPv
libpqComponents.so.1:_ZN25pqExpressionChooserButton11qt_metacastEPKc
libpqComponents.so.1:_ZN25pqExpressionChooserButton16staticMetaObjectE
libpqComponents.so.1:_ZN25pqExpressionChooserButton8setGroupERK7QString
libpqComponents.so.1:_ZN25pqExpressionChooserButtonC1EP7QWidgetRK7QString
libpqComponents.so.1:_ZN25pqExpressionChooserButtonC2EP7QWidgetRK7QString
libpqComponents.so.1:_ZN25pqExpressionChooserButtonD0Ev
libpqComponents.so.1:_ZN25pqExpressionChooserButtonD1Ev
libpqComponents.so.1:_ZN25pqExpressionChooserButtonD2Ev
libpqComponents.so.1:_ZN25pqIntVectorPropertyWidget11qt_metacallEN11QMetaObject4CallEiPPv
libpqComponents.so.1:_ZN25pqIntVectorPropertyWidget11qt_metacastEPKc
libpqComponents.so.1:_ZN25pqIntVectorPropertyWidget12createWidgetEP22vtkSMIntVectorPropertyP10vtkSMProxyP7QWidget
libpqComponents.so.1:_ZN25pqIntVectorPropertyWidget16staticMetaObjectE
libpqComponents.so.1:_ZN25pqIntVectorPropertyWidgetC1EP13vtkSMPropertyP10vtkSMProxyP7QWidget
libpqComponents.so.1:_ZN25pqIntVectorPropertyWidgetC2EP13vtkSMPropertyP10vtkSMProxyP7QWidget
libpqComponents.so.1:_ZN25pqIntVectorPropertyWidgetD0Ev
libpqComponents.so.1:_ZN25pqIntVectorPropertyWidgetD1Ev
libpqComponents.so.1:_ZN25pqIntVectorPropertyWidgetD2Ev
libpqComponents.so.1:_ZN25pqPropertyWidgetDecorator11qt_metacallEN11QMetaObject4CallEiPPv
libpqComponents.so.1:_ZN25pqPropertyWidgetDecorator11qt_metacastEPKc
libpqComponents.so.1:_ZN25pqPropertyWidgetDecorator16staticMetaObjectE
libpqComponents.so.1:_ZN25pqPropertyWidgetDecorator17visibilityChangedEv
libpqComponents.so.1:_ZN25pqPropertyWidgetDecorator18enableStateChangedEv
libpqComponents.so.1:_ZN25pqPropertyWidgetDecorator6createEP15vtkPVXMLElementP16pqPropertyWidget
libpqComponents.so.1:_ZN25pqPropertyWidgetDecoratorC1EP15vtkPVXMLElementP16pqPropertyWidget
libpqComponents.so.1:_ZN25pqPropertyWidgetDecoratorC2EP15vtkPVXMLElementP16pqPropertyWidget
libpqComponents.so.1:_ZN25pqPropertyWidgetDecoratorD0Ev
libpqComponents.so.1:_ZN25pqPropertyWidgetDecoratorD1Ev
libpqComponents.so.1:_ZN25pqPropertyWidgetDecoratorD2Ev
libpqComponents.so.1:_ZN25pqPropertyWidgetInterface21createWidgetDecoratorERK7QStringP15vtkPVXMLElementP16pqPropertyWidget
libpqComponents.so.1:_ZN25pqPropertyWidgetInterface23createWidgetForPropertyEP10vtkSMProxyP13vtkSMPropertyP7QWidget
libpqComponents.so.1:_ZN25pqPropertyWidgetInterface28createWidgetForPropertyGroupEP10vtkSMProxyP18vtkSMPropertyGroupP7QWidget
libpqComponents.so.1:_ZN25pqPropertyWidgetInterface29createDefaultWidgetDecoratorsEP16pqPropertyWidget
libpqComponents.so.1:_ZN25pqPropertyWidgetInterfaceD0Ev
libpqComponents.so.1:_ZN25pqPropertyWidgetInterfaceD1Ev
libpqComponents.so.1:_ZN25pqPropertyWidgetInterfaceD2Ev
libpqComponents.so.1:_ZN25pqSignalAdaptorTreeWidget10appendItemEP15QTreeWidgetItem
libpqComponents.so.1:_ZN25pqSignalAdaptorTreeWidget10tableGrownEP15QTreeWidgetItem
libpqComponents.so.1:_ZN25pqSignalAdaptorTreeWidget11appendValueERK5QListI7QStringE
libpqComponents.so.1:_ZN25pqSignalAdaptorTreeWidget11appendValueERK5QListI8QVariantE
libpqComponents.so.1:_ZN25pqSignalAdaptorTreeWidget11qt_metacallEN11QMetaObject4CallEiPPv
libpqComponents.so.1:_ZN25pqSignalAdaptorTreeWidget11qt_metacastEPKc
libpqComponents.so.1:_ZN25pqSignalAdaptorTreeWidget13valuesChangedEv
libpqComponents.so.1:_ZN25pqSignalAdaptorTreeWidget16staticMetaObjectE
libpqComponents.so.1:_ZN25pqSignalAdaptorTreeWidget18updateSortingLinksEv
libpqComponents.so.1:_ZN25pqSignalAdaptorTreeWidget4sortEi
libpqComponents.so.1:_ZN25pqSignalAdaptorTreeWidget7newItemERK5QListI7QStringE
libpqComponents.so.1:_ZN25pqSignalAdaptorTreeWidget9growTableEv
libpqComponents.so.1:_ZN25pqSignalAdaptorTreeWidget9setValuesERK5QListI8QVariantE
libpqComponents.so.1:_ZN25pqSignalAdaptorTreeWidgetC1EP11QTreeWidgetb
libpqComponents.so.1:_ZN25pqSignalAdaptorTreeWidgetC2EP11QTreeWidgetb
libpqComponents.so.1:_ZN25pqSignalAdaptorTreeWidgetD0Ev
libpqComponents.so.1:_ZN25pqSignalAdaptorTreeWidgetD1Ev
libpqComponents.so.1:_ZN25pqSignalAdaptorTreeWidgetD2Ev
libpqComponents.so.1:_ZN26pqCustomFilterManagerModel11qt_metacallEN11QMetaObject4CallEiPPv
libpqComponents.so.1:_ZN26pqCustomFilterManagerModel11qt_metacastEPKc
libpqComponents.so.1:_ZN26pqCustomFilterManagerModel15addCustomFilterE7QString
libpqComponents.so.1:_ZN26pqCustomFilterManagerModel16staticMetaObjectE
libpqComponents.so.1:_ZN26pqCustomFilterManagerModel17customFilterAddedERK7QString
libpqComponents.so.1:_ZN26pqCustomFilterManagerModel18removeCustomFilterE7QString
libpqComponents.so.1:_ZN26pqCustomFilterManagerModel29exportCustomFiltersToSettingsEv
libpqComponents.so.1:_ZN26pqCustomFilterManagerModel31importCustomFiltersFromSettingsEv
libpqComponents.so.1:_ZN26pqCustomFilterManagerModelC1EP7QObject
libpqComponents.so.1:_ZN26pqCustomFilterManagerModelC2EP7QObject
libpqComponents.so.1:_ZN26pqCustomFilterManagerModelD0Ev
libpqComponents.so.1:_ZN26pqCustomFilterManagerModelD1Ev
libpqComponents.so.1:_ZN26pqCustomFilterManagerModelD2Ev
libpqComponents.so.1:_ZN26pqExpressionsManagerDialog11filterGroupEv
libpqComponents.so.1:_ZN26pqExpressionsManagerDialog11qt_metacallEN11QMetaObject4CallEiPPv
libpqComponents.so.1:_ZN26pqExpressionsManagerDialog11qt_metacastEPKc
libpqComponents.so.1:_ZN26pqExpressionsManagerDialog12exportToFileEv
libpqComponents.so.1:_ZN26pqExpressionsManagerDialog12onUseCurrentEv
libpqComponents.so.1:_ZN26pqExpressionsManagerDialog14importFromFileEv
libpqComponents.so.1:_ZN26pqExpressionsManagerDialog15keyReleaseEventEP9QKeyEvent
libpqComponents.so.1:_ZN26pqExpressionsManagerDialog16addNewExpressionEv
libpqComponents.so.1:_ZN26pqExpressionsManagerDialog16staticMetaObjectE
libpqComponents.so.1:_ZN26pqExpressionsManagerDialog18expressionSelectedERK7QString
libpqComponents.so.1:_ZN26pqExpressionsManagerDialog20removeAllExpressionsEv
libpqComponents.so.1:_ZN26pqExpressionsManagerDialog25removeSelectedExpressionsEv
libpqComponents.so.1:_ZN26pqExpressionsManagerDialog4saveEv
libpqComponents.so.1:_ZN26pqExpressionsManagerDialog7onCloseEv
libpqComponents.so.1:_ZN26pqExpressionsManagerDialog8updateUiEv
libpqComponents.so.1:_ZN26pqExpressionsManagerDialogC1EP7QWidgetRK7QString
libpqComponents.so.1:_ZN26pqExpressionsManagerDialogC2EP7QWidgetRK7QString
libpqComponents.so.1:_ZN26pqExpressionsManagerDialogD0Ev
libpqComponents.so.1:_ZN26pqExpressionsManagerDialogD1Ev
libpqComponents.so.1:_ZN26pqExpressionsManagerDialogD2Ev
libpqComponents.so.1:_ZN26pqLockViewSizeCustomDialog11qt_metacallEN11QMetaObject4CallEiPPv
libpqComponents.so.1:_ZN26pqLockViewSizeCustomDialog11qt_metacastEPKc
libpqComponents.so.1:_ZN26pqLockViewSizeCustomDialog16staticMetaObjectE
libpqComponents.so.1:_ZN26pqLockViewSizeCustomDialog5applyEv
libpqComponents.so.1:_ZN26pqLockViewSizeCustomDialog6acceptEv
libpqComponents.so.1:_ZN26pqLockViewSizeCustomDialog6unlockEv
libpqComponents.so.1:_ZN26pqLockViewSizeCustomDialogC1EP7QWidget6QFlagsIN2Qt10WindowTypeEE
libpqComponents.so.1:_ZN26pqLockViewSizeCustomDialogC2EP7QWidget6QFlagsIN2Qt10WindowTypeEE
libpqComponents.so.1:_ZN26pqLockViewSizeCustomDialogD0Ev
libpqComponents.so.1:_ZN26pqLockViewSizeCustomDialogD1Ev
libpqComponents.so.1:_ZN26pqLockViewSizeCustomDialogD2Ev
libpqComponents.so.1:_ZN26pqTransferFunction2DWidget10initializeEP23vtkPVTransferFunction2D
libpqComponents.so.1:_ZN26pqTransferFunction2DWidget11qt_metacallEN11QMetaObject4CallEiPPv
libpqComponents.so.1:_ZN26pqTransferFunction2DWidget11qt_metacastEPKc
libpqComponents.so.1:_ZN26pqTransferFunction2DWidget12setHistogramEP12vtkImageData
libpqComponents.so.1:_ZN26pqTransferFunction2DWidget13isInitializedEv
libpqComponents.so.1:_ZN26pqTransferFunction2DWidget15showUsageStatusEv
libpqComponents.so.1:_ZN26pqTransferFunction2DWidget16staticMetaObjectE
libpqComponents.so.1:_ZN26pqTransferFunction2DWidget24transferFunctionModifiedEv
libpqComponents.so.1:_ZN26pqTransferFunction2DWidget6renderEv
libpqComponents.so.1:_ZN26pqTransferFunction2DWidgetC1EP7QWidget
libpqComponents.so.1:_ZN26pqTransferFunction2DWidgetC2EP7QWidget
libpqComponents.so.1:_ZN26pqTransferFunction2DWidgetD0Ev
libpqComponents.so.1:_ZN26pqTransferFunction2DWidgetD1Ev
libpqComponents.so.1:_ZN26pqTransferFunction2DWidgetD2Ev
libpqComponents.so.1:_ZN27pqArrayStatusPropertyWidget11qt_metacallEN11QMetaObject4CallEiPPv
libpqComponents.so.1:_ZN27pqArrayStatusPropertyWidget11qt_metacastEPKc
libpqComponents.so.1:_ZN27pqArrayStatusPropertyWidget12updateColumnEP9vtkObject
libpqComponents.so.1:_ZN27pqArrayStatusPropertyWidget16staticMetaObjectE
libpqComponents.so.1:_ZN27pqArrayStatusPropertyWidgetC1EP10vtkSMProxyP13vtkSMPropertyP7QWidget
libpqComponents.so.1:_ZN27pqArrayStatusPropertyWidgetC1EP10vtkSMProxyP18vtkSMPropertyGroupP7QWidget
libpqComponents.so.1:_ZN27pqArrayStatusPropertyWidgetC2EP10vtkSMProxyP13vtkSMPropertyP7QWidget
libpqComponents.so.1:_ZN27pqArrayStatusPropertyWidgetC2EP10vtkSMProxyP18vtkSMPropertyGroupP7QWidget
libpqComponents.so.1:_ZN27pqArrayStatusPropertyWidgetD0Ev
libpqComponents.so.1:_ZN27pqArrayStatusPropertyWidgetD1Ev
libpqComponents.so.1:_ZN27pqArrayStatusPropertyWidgetD2Ev
libpqComponents.so.1:_ZN27pqMultiBlockInspectorWidget11pqInternals6updateEv
libpqComponents.so.1:_ZN27pqMultiBlockInspectorWidget11qt_metacallEN11QMetaObject4CallEiPPv
libpqComponents.so.1:_ZN27pqMultiBlockInspectorWidget11qt_metacastEPKc
libpqComponents.so.1:_ZN27pqMultiBlockInspectorWidget13setOutputPortEP12pqOutputPort
libpqComponents.so.1:_ZN27pqMultiBlockInspectorWidget16staticMetaObjectE
libpqComponents.so.1:_ZN27pqMultiBlockInspectorWidget17setRepresentationEP20pqDataRepresentation
libpqComponents.so.1:_ZN27pqMultiBlockInspectorWidgetC1EP7QWidget6QFlagsIN2Qt10WindowTypeEEb
libpqComponents.so.1:_ZN27pqMultiBlockInspectorWidgetC2EP7QWidget6QFlagsIN2Qt10WindowTypeEEb
libpqComponents.so.1:_ZN27pqMultiBlockInspectorWidgetD0Ev
libpqComponents.so.1:_ZN27pqMultiBlockInspectorWidgetD1Ev
libpqComponents.so.1:_ZN27pqMultiBlockInspectorWidgetD2Ev
libpqComponents.so.1:_ZN27pqProxyEditorPropertyWidget11dummySignalEv
libpqComponents.so.1:_ZN27pqProxyEditorPropertyWidget11qt_metacallEN11QMetaObject4CallEiPPv
libpqComponents.so.1:_ZN27pqProxyEditorPropertyWidget11qt_metacastEPKc
libpqComponents.so.1:_ZN27pqProxyEditorPropertyWidget13buttonClickedEv
libpqComponents.so.1:_ZN27pqProxyEditorPropertyWidget14setProxyToEditE15vtkSmartPointerI10vtkSMProxyE
libpqComponents.so.1:_ZN27pqProxyEditorPropertyWidget16staticMetaObjectE
libpqComponents.so.1:_ZN27pqProxyEditorPropertyWidgetC1EP10vtkSMProxyP13vtkSMPropertyP7QWidget
libpqComponents.so.1:_ZN27pqProxyEditorPropertyWidgetC2EP10vtkSMProxyP13vtkSMPropertyP7QWidget
libpqComponents.so.1:_ZN27pqProxyEditorPropertyWidgetD0Ev
libpqComponents.so.1:_ZN27pqProxyEditorPropertyWidgetD1Ev
libpqComponents.so.1:_ZN27pqProxyEditorPropertyWidgetD2Ev
libpqComponents.so.1:_ZN27pqSignalAdaptorKeyFrameType11qt_metacallEN11QMetaObject4CallEiPPv
libpqComponents.so.1:_ZN27pqSignalAdaptorKeyFrameType11qt_metacastEPKc
libpqComponents.so.1:_ZN27pqSignalAdaptorKeyFrameType13onTypeChangedEv
libpqComponents.so.1:_ZN27pqSignalAdaptorKeyFrameType16setKeyFrameProxyEP10vtkSMProxy
libpqComponents.so.1:_ZN27pqSignalAdaptorKeyFrameType16staticMetaObjectE
libpqComponents.so.1:_ZN27pqSignalAdaptorKeyFrameTypeC1EP20pqKeyFrameTypeWidgetP15pqPropertyLinksP6QLabel
libpqComponents.so.1:_ZN27pqSignalAdaptorKeyFrameTypeC2EP20pqKeyFrameTypeWidgetP15pqPropertyLinksP6QLabel
libpqComponents.so.1:_ZN27pqSignalAdaptorKeyFrameTypeD0Ev
libpqComponents.so.1:_ZN27pqSignalAdaptorKeyFrameTypeD1Ev
libpqComponents.so.1:_ZN27pqSignalAdaptorKeyFrameTypeD2Ev
libpqComponents.so.1:_ZN27pqViewFrameActionsInterfaceD0Ev
libpqComponents.so.1:_ZN27pqViewFrameActionsInterfaceD1Ev
libpqComponents.so.1:_ZN27pqViewFrameActionsInterfaceD2Ev
libpqComponents.so.1:_ZN28pqDoubleVectorPropertyWidget10scaleTwiceEv
libpqComponents.so.1:_ZN28pqDoubleVectorPropertyWidget11qt_metacallEN11QMetaObject4CallEiPPv
libpqComponents.so.1:_ZN28pqDoubleVectorPropertyWidget11qt_metacastEPKc
libpqComponents.so.1:_ZN28pqDoubleVectorPropertyWidget13resetToBoundsEPKd
libpqComponents.so.1:_ZN28pqDoubleVectorPropertyWidget14clearHighlightEv
libpqComponents.so.1:_ZN28pqDoubleVectorPropertyWidget16staticMetaObjectE
libpqComponents.so.1:_ZN28pqDoubleVectorPropertyWidget18resetButtonClickedEv
libpqComponents.so.1:_ZN28pqDoubleVectorPropertyWidget20highlightResetButtonEv
libpqComponents.so.1:_ZN28pqDoubleVectorPropertyWidget23resetToActiveDataBoundsEv
libpqComponents.so.1:_ZN28pqDoubleVectorPropertyWidget5applyEv
libpqComponents.so.1:_ZN28pqDoubleVectorPropertyWidget5resetEv
libpqComponents.so.1:_ZN28pqDoubleVectorPropertyWidget5scaleEd
libpqComponents.so.1:_ZN28pqDoubleVectorPropertyWidget9scaleHalfEv
libpqComponents.so.1:_ZN28pqDoubleVectorPropertyWidgetC1EP13vtkSMPropertyP10vtkSMProxyP7QWidget
libpqComponents.so.1:_ZN28pqDoubleVectorPropertyWidgetC2EP13vtkSMPropertyP10vtkSMProxyP7QWidget
libpqComponents.so.1:_ZN28pqDoubleVectorPropertyWidgetD0Ev
libpqComponents.so.1:_ZN28pqDoubleVectorPropertyWidgetD1Ev
libpqComponents.so.1:_ZN28pqDoubleVectorPropertyWidgetD2Ev
libpqComponents.so.1:_ZN28pqPipelineTimeKeyFrameEditor11qt_metacallEN11QMetaObject4CallEiPPv
libpqComponents.so.1:_ZN28pqPipelineTimeKeyFrameEditor11qt_metacastEPKc
libpqComponents.so.1:_ZN28pqPipelineTimeKeyFrameEditor11updateStateEv
libpqComponents.so.1:_ZN28pqPipelineTimeKeyFrameEditor16readKeyFrameDataEv
libpqComponents.so.1:_ZN28pqPipelineTimeKeyFrameEditor16staticMetaObjectE
libpqComponents.so.1:_ZN28pqPipelineTimeKeyFrameEditor17writeKeyFrameDataEv
libpqComponents.so.1:_ZN28pqPipelineTimeKeyFrameEditorC1EP16pqAnimationSceneP14pqAnimationCueP7QWidget
libpqComponents.so.1:_ZN28pqPipelineTimeKeyFrameEditorC2EP16pqAnimationSceneP14pqAnimationCueP7QWidget
libpqComponents.so.1:_ZN28pqPipelineTimeKeyFrameEditorD0Ev
libpqComponents.so.1:_ZN28pqPipelineTimeKeyFrameEditorD1Ev
libpqComponents.so.1:_ZN28pqPipelineTimeKeyFrameEditorD2Ev
libpqComponents.so.1:_ZN28pqShaderReplacementsComboBox11qt_metacallEN11QMetaObject4CallEiPPv
libpqComponents.so.1:_ZN28pqShaderReplacementsComboBox11qt_metacastEPKc
libpqComponents.so.1:_ZN28pqShaderReplacementsComboBox16staticMetaObjectE
libpqComponents.so.1:_ZN28pqShaderReplacementsComboBox30ShaderReplacementPathsSettingsE
libpqComponents.so.1:_ZN28pqShaderReplacementsComboBox7setPathERK7QString
libpqComponents.so.1:_ZN28pqShaderReplacementsComboBox8populateEv
libpqComponents.so.1:_ZN28pqShaderReplacementsComboBox9showPopupEv
libpqComponents.so.1:_ZN28pqShaderReplacementsComboBoxC1EP7QWidget
libpqComponents.so.1:_ZN28pqShaderReplacementsComboBoxC2EP7QWidget
libpqComponents.so.1:_ZN28pqStringVectorPropertyWidget11qt_metacallEN11QMetaObject4CallEiPPv
libpqComponents.so.1:_ZN28pqStringVectorPropertyWidget11qt_metacastEPKc
libpqComponents.so.1:_ZN28pqStringVectorPropertyWidget11setReadOnlyEb
libpqComponents.so.1:_ZN28pqStringVectorPropertyWidget12createWidgetEP25vtkSMStringVectorPropertyP10vtkSMProxyP7QWidget
libpqComponents.so.1:_ZN28pqStringVectorPropertyWidget16staticMetaObjectE
libpqComponents.so.1:_ZN28pqStringVectorPropertyWidget19showWarningOnChangeEv
libpqComponents.so.1:_ZN28pqStringVectorPropertyWidget23processFileChooserHintsEP15vtkPVXMLElementRbS2_R7QStringS2_
libpqComponents.so.1:_ZN28pqStringVectorPropertyWidget29widgetHintHasAttributeEqualToERKNSt7__cxx1112basic_stringIcSt11char_traitsIcESaIcEEES7_
libpqComponents.so.1:_ZN28pqStringVectorPropertyWidgetC1EP13vtkSMPropertyP10vtkSMProxyP7QWidget
libpqComponents.so.1:_ZN28pqStringVectorPropertyWidgetC2EP13vtkSMPropertyP10vtkSMProxyP7QWidget
libpqComponents.so.1:_ZN28pqStringVectorPropertyWidgetD0Ev
libpqComponents.so.1:_ZN28pqStringVectorPropertyWidgetD1Ev
libpqComponents.so.1:_ZN28pqStringVectorPropertyWidgetD2Ev
libpqComponents.so.1:_ZN29pqArraySelectorPropertyWidget11qt_metacallEN11QMetaObject4CallEiPPv
libpqComponents.so.1:_ZN29pqArraySelectorPropertyWidget11qt_metacastEPKc
libpqComponents.so.1:_ZN29pqArraySelectorPropertyWidget12arrayChangedEv
libpqComponents.so.1:_ZN29pqArraySelectorPropertyWidget12setArrayNameERK7QString
libpqComponents.so.1:_ZN29pqArraySelectorPropertyWidget14domainModifiedEv
libpqComponents.so.1:_ZN29pqArraySelectorPropertyWidget16staticMetaObjectE
libpqComponents.so.1:_ZN29pqArraySelectorPropertyWidget8setArrayERK5QListI8QVariantE
libpqComponents.so.1:_ZN29pqArraySelectorPropertyWidget8setArrayEiRK7QString
libpqComponents.so.1:_ZN29pqArraySelectorPropertyWidgetC1EP13vtkSMPropertyP10vtkSMProxyP7QWidget
libpqComponents.so.1:_ZN29pqArraySelectorPropertyWidgetC1EP13vtkSMPropertyP10vtkSMProxySt16initializer_listISt4pairIi7QStringEEP7QWidget
libpqComponents.so.1:_ZN29pqArraySelectorPropertyWidgetC2EP13vtkSMPropertyP10vtkSMProxyP7QWidget
libpqComponents.so.1:_ZN29pqArraySelectorPropertyWidgetC2EP13vtkSMPropertyP10vtkSMProxySt16initializer_listISt4pairIi7QStringEEP7QWidget
libpqComponents.so.1:_ZN29pqArraySelectorPropertyWidgetD0Ev
libpqComponents.so.1:_ZN29pqArraySelectorPropertyWidgetD1Ev
libpqComponents.so.1:_ZN29pqArraySelectorPropertyWidgetD2Ev
libpqComponents.so.1:_ZN29pqCustomFilterDefinitionModel11setContentsERK5QListIP24pqServerManagerModelItemE
libpqComponents.so.1:_ZN29pqCustomFilterDefinitionModelC1EP7QObject
libpqComponents.so.1:_ZN29pqCustomFilterDefinitionModelC2EP7QObject
libpqComponents.so.1:_ZN29pqCustomFilterDefinitionModelD0Ev
libpqComponents.so.1:_ZN29pqCustomFilterDefinitionModelD1Ev
libpqComponents.so.1:_ZN29pqCustomFilterDefinitionModelD2Ev
libpqComponents.so.1:_ZN29pqCustomViewpointButtonDialog11getToolTipsEv
libpqComponents.so.1:_ZN29pqCustomViewpointButtonDialog11qt_metacallEN11QMetaObject4CallEiPPv
libpqComponents.so.1:_ZN29pqCustomViewpointButtonDialog11qt_metacastEPKc
libpqComponents.so.1:_ZN29pqCustomViewpointButtonDialog11setToolTipsERK5QListI7QStringE
libpqComponents.so.1:_ZN29pqCustomViewpointButtonDialog15DEFAULT_TOOLTIPE
libpqComponents.so.1:_ZN29pqCustomViewpointButtonDialog16staticMetaObjectE
libpqComponents.so.1:_ZN29pqCustomViewpointButtonDialog17getConfigurationsEv
libpqComponents.so.1:_ZN29pqCustomViewpointButtonDialog17setConfigurationsERK5QListI7QStringE
libpqComponents.so.1:_ZN29pqCustomViewpointButtonDialog20exportConfigurationsEv
libpqComponents.so.1:_ZN29pqCustomViewpointButtonDialog20importConfigurationsEv
libpqComponents.so.1:_ZN29pqCustomViewpointButtonDialog22assignCurrentViewpointEv
libpqComponents.so.1:_ZN29pqCustomViewpointButtonDialog23MAXIMUM_NUMBER_OF_ITEMSE
libpqComponents.so.1:_ZN29pqCustomViewpointButtonDialog23MINIMUM_NUMBER_OF_ITEMSE
libpqComponents.so.1:_ZN29pqCustomViewpointButtonDialog23getCurrentConfigurationEv
libpqComponents.so.1:_ZN29pqCustomViewpointButtonDialog23setCurrentConfigurationERK7QString
libpqComponents.so.1:_ZN29pqCustomViewpointButtonDialog28setToolTipsAndConfigurationsERK5QListI7QStringES4_
libpqComponents.so.1:_ZN29pqCustomViewpointButtonDialog8clearAllEv
libpqComponents.so.1:_ZN29pqCustomViewpointButtonDialog9appendRowEv
libpqComponents.so.1:_ZN29pqCustomViewpointButtonDialog9deleteRowEv
libpqComponents.so.1:_ZN29pqCustomViewpointButtonDialogC1EP7QWidget6QFlagsIN2Qt10WindowTypeEER5QListI7QStringES9_RS7_
libpqComponents.so.1:_ZN29pqCustomViewpointButtonDialogC2EP7QWidget6QFlagsIN2Qt10WindowTypeEER5QListI7QStringES9_RS7_
libpqComponents.so.1:_ZN29pqCustomViewpointButtonDialogD0Ev
libpqComponents.so.1:_ZN29pqCustomViewpointButtonDialogD1Ev
libpqComponents.so.1:_ZN29pqCustomViewpointButtonDialogD2Ev
libpqComponents.so.1:_ZN29pqDisplayRepresentationWidget11qt_metacallEN11QMetaObject4CallEiPPv
libpqComponents.so.1:_ZN29pqDisplayRepresentationWidget11qt_metacastEPKc
libpqComponents.so.1:_ZN29pqDisplayRepresentationWidget15comboBoxChangedERK7QString
libpqComponents.so.1:_ZN29pqDisplayRepresentationWidget16staticMetaObjectE
libpqComponents.so.1:_ZN29pqDisplayRepresentationWidget17setRepresentationEP10vtkSMProxy
libpqComponents.so.1:_ZN29pqDisplayRepresentationWidget17setRepresentationEP20pqDataRepresentation
libpqComponents.so.1:_ZN29pqDisplayRepresentationWidget21setRepresentationTextERK7QString
libpqComponents.so.1:_ZN29pqDisplayRepresentationWidget25representationTextChangedERK7QString
libpqComponents.so.1:_ZN29pqDisplayRepresentationWidgetC1EP7QWidget
libpqComponents.so.1:_ZN29pqDisplayRepresentationWidgetC2EP7QWidget
libpqComponents.so.1:_ZN29pqDisplayRepresentationWidgetD0Ev
libpqComponents.so.1:_ZN29pqDisplayRepresentationWidgetD1Ev
libpqComponents.so.1:_ZN29pqDisplayRepresentationWidgetD2Ev
libpqComponents.so.1:_ZN29pqPluginTreeWidgetEventPlayer11qt_metacallEN11QMetaObject4CallEiPPv
libpqComponents.so.1:_ZN29pqPluginTreeWidgetEventPlayer11qt_metacastEPKc
libpqComponents.so.1:_ZN29pqPluginTreeWidgetEventPlayer16staticMetaObjectE
libpqComponents.so.1:_ZN29pqPluginTreeWidgetEventPlayer9playEventEP7QObjectRK7QStringS4_Rb
libpqComponents.so.1:_ZN29pqPluginTreeWidgetEventPlayerC1EP7QObject
libpqComponents.so.1:_ZN29pqPluginTreeWidgetEventPlayerC2EP7QObject
libpqComponents.so.1:_ZN29pqPluginTreeWidgetEventPlayerD0Ev
libpqComponents.so.1:_ZN29pqPluginTreeWidgetEventPlayerD1Ev
libpqComponents.so.1:_ZN29pqPluginTreeWidgetEventPlayerD2Ev
libpqComponents.so.1:_ZN29pqServerConfigurationImporter10abortFetchEv
libpqComponents.so.1:_ZN29pqServerConfigurationImporter11qt_metacallEN11QMetaObject4CallEiPPv
libpqComponents.so.1:_ZN29pqServerConfigurationImporter11qt_metacastEPKc
libpqComponents.so.1:_ZN29pqServerConfigurationImporter12clearSourcesEv
libpqComponents.so.1:_ZN29pqServerConfigurationImporter15readCurrentDataEv
libpqComponents.so.1:_ZN29pqServerConfigurationImporter16staticMetaObjectE
libpqComponents.so.1:_ZN29pqServerConfigurationImporter17incrementalUpdateEv
libpqComponents.so.1:_ZN29pqServerConfigurationImporter19abortFetchTriggeredEv
libpqComponents.so.1:_ZN29pqServerConfigurationImporter19fetchConfigurationsEv
libpqComponents.so.1:_ZN29pqServerConfigurationImporter21configurationsUpdatedEv
libpqComponents.so.1:_ZN29pqServerConfigurationImporter22authenticationRequiredEP13QNetworkReplyP14QAuthenticator
libpqComponents.so.1:_ZN29pqServerConfigurationImporter25processDownloadedContentsEv
libpqComponents.so.1:_ZN29pqServerConfigurationImporter5fetchERK4QUrl
libpqComponents.so.1:_ZN29pqServerConfigurationImporter7messageERK7QString
libpqComponents.so.1:_ZN29pqServerConfigurationImporter9addSourceERK7QStringRK4QUrlNS_10SourceModeE
libpqComponents.so.1:_ZN29pqServerConfigurationImporterC1EP7QObject
libpqComponents.so.1:_ZN29pqServerConfigurationImporterC2EP7QObject
libpqComponents.so.1:_ZN29pqServerConfigurationImporterD0Ev
libpqComponents.so.1:_ZN29pqServerConfigurationImporterD1Ev
libpqComponents.so.1:_ZN29pqServerConfigurationImporterD2Ev
libpqComponents.so.1:_ZN30pqAnimatablePropertiesComboBox11qt_metacallEN11QMetaObject4CallEiPPv
libpqComponents.so.1:_ZN30pqAnimatablePropertiesComboBox11qt_metacastEPKc
libpqComponents.so.1:_ZN30pqAnimatablePropertiesComboBox13addSMPropertyERK7QStringS2_i
libpqComponents.so.1:_ZN30pqAnimatablePropertiesComboBox16staticMetaObjectE
libpqComponents.so.1:_ZN30pqAnimatablePropertiesComboBox17buildPropertyListEv
libpqComponents.so.1:_ZN30pqAnimatablePropertiesComboBox18setCollapseVectorsEb
libpqComponents.so.1:_ZN30pqAnimatablePropertiesComboBox19setVectorSizeFilterEi
libpqComponents.so.1:_ZN30pqAnimatablePropertiesComboBox20addDisplayPropertiesEP10vtkSMProxy
libpqComponents.so.1:_ZN30pqAnimatablePropertiesComboBox21addSMPropertyInternalERK7QStringP10vtkSMProxyS2_ibj
libpqComponents.so.1:_ZN30pqAnimatablePropertiesComboBox25buildPropertyListInternalEP10vtkSMProxyRK7QString
libpqComponents.so.1:_ZN30pqAnimatablePropertiesComboBox26setSourceWithoutPropertiesEP10vtkSMProxy
libpqComponents.so.1:_ZN30pqAnimatablePropertiesComboBox9setSourceEP10vtkSMProxy
libpqComponents.so.1:_ZN30pqAnimatablePropertiesComboBoxC1EP7QWidget
libpqComponents.so.1:_ZN30pqAnimatablePropertiesComboBoxC2EP7QWidget
libpqComponents.so.1:_ZN30pqAnimatablePropertiesComboBoxD0Ev
libpqComponents.so.1:_ZN30pqAnimatablePropertiesComboBoxD1Ev
libpqComponents.so.1:_ZN30pqAnimatablePropertiesComboBoxD2Ev
libpqComponents.so.1:_ZN30pqCustomFilterDefinitionWizard11addPropertyEv
libpqComponents.so.1:_ZN30pqCustomFilterDefinitionWizard11moveInputUpEv
libpqComponents.so.1:_ZN30pqCustomFilterDefinitionWizard11qt_metacallEN11QMetaObject4CallEiPPv
libpqComponents.so.1:_ZN30pqCustomFilterDefinitionWizard11qt_metacastEPKc
libpqComponents.so.1:_ZN30pqCustomFilterDefinitionWizard11removeInputEv
libpqComponents.so.1:_ZN30pqCustomFilterDefinitionWizard12finishWizardEv
libpqComponents.so.1:_ZN30pqCustomFilterDefinitionWizard12moveOutputUpEv
libpqComponents.so.1:_ZN30pqCustomFilterDefinitionWizard12navigateBackEv
libpqComponents.so.1:_ZN30pqCustomFilterDefinitionWizard12navigateNextEv
libpqComponents.so.1:_ZN30pqCustomFilterDefinitionWizard12removeOutputEv
libpqComponents.so.1:_ZN30pqCustomFilterDefinitionWizard13moveInputDownEv
libpqComponents.so.1:_ZN30pqCustomFilterDefinitionWizard14moveOutputDownEv
libpqComponents.so.1:_ZN30pqCustomFilterDefinitionWizard14movePropertyUpEv
libpqComponents.so.1:_ZN30pqCustomFilterDefinitionWizard14removePropertyEv
libpqComponents.so.1:_ZN30pqCustomFilterDefinitionWizard15updateInputFormERK11QModelIndexS2_
libpqComponents.so.1:_ZN30pqCustomFilterDefinitionWizard16movePropertyDownEv
libpqComponents.so.1:_ZN30pqCustomFilterDefinitionWizard16staticMetaObjectE
libpqComponents.so.1:_ZN30pqCustomFilterDefinitionWizard16updateOutputFormERK11QModelIndexS2_
libpqComponents.so.1:_ZN30pqCustomFilterDefinitionWizard17addOutputInternalEP12pqOutputPortRK7QString
libpqComponents.so.1:_ZN30pqCustomFilterDefinitionWizard18clearNameOverwriteERK7QString
libpqComponents.so.1:_ZN30pqCustomFilterDefinitionWizard18createCustomFilterEv
libpqComponents.so.1:_ZN30pqCustomFilterDefinitionWizard18updateInputButtonsERK11QModelIndexS2_
libpqComponents.so.1:_ZN30pqCustomFilterDefinitionWizard18updatePropertyFormERK11QModelIndexS2_
libpqComponents.so.1:_ZN30pqCustomFilterDefinitionWizard19updateOutputButtonsERK11QModelIndexS2_
libpqComponents.so.1:_ZN30pqCustomFilterDefinitionWizard21updatePropertyButtonsERK11QModelIndexS2_
libpqComponents.so.1:_ZN30pqCustomFilterDefinitionWizard22addAutoIncludedProxiesEv
libpqComponents.so.1:_ZN30pqCustomFilterDefinitionWizard23setupDefaultInputOutputEv
libpqComponents.so.1:_ZN30pqCustomFilterDefinitionWizard24validateCustomFilterNameEv
libpqComponents.so.1:_ZN30pqCustomFilterDefinitionWizard8addInputEv
libpqComponents.so.1:_ZN30pqCustomFilterDefinitionWizard9addOutputEv
libpqComponents.so.1:_ZN30pqCustomFilterDefinitionWizardC1EP29pqCustomFilterDefinitionModelP7QWidget
libpqComponents.so.1:_ZN30pqCustomFilterDefinitionWizardC2EP29pqCustomFilterDefinitionModelP7QWidget
libpqComponents.so.1:_ZN30pqCustomFilterDefinitionWizardD0Ev
libpqComponents.so.1:_ZN30pqCustomFilterDefinitionWizardD1Ev
libpqComponents.so.1:_ZN30pqCustomFilterDefinitionWizardD2Ev
libpqComponents.so.1:_ZN30pqSpreadSheetColumnsVisibility12populateMenuEP14vtkSMViewProxyP22pqSpreadSheetViewModelP5QMenu
libpqComponents.so.1:_ZN30pqSpreadSheetColumnsVisibility18addCheckableActionEP5QMenuRK7QStringb
libpqComponents.so.1:_ZN30pqSpreadSheetColumnsVisibility19updateAllCheckStateEP9QCheckBoxRKSt6vectorIS1_SaIS1_EE
libpqComponents.so.1:_ZN31pqFindDataCurrentSelectionFrame11qt_metacallEN11QMetaObject4CallEiPPv
libpqComponents.so.1:_ZN31pqFindDataCurrentSelectionFrame11qt_metacastEPKc
libpqComponents.so.1:_ZN31pqFindDataCurrentSelectionFrame13showFieldDataEb
libpqComponents.so.1:_ZN31pqFindDataCurrentSelectionFrame15invertSelectionEb
libpqComponents.so.1:_ZN31pqFindDataCurrentSelectionFrame15updateFieldTypeEv
libpqComponents.so.1:_ZN31pqFindDataCurrentSelectionFrame16showSelectedDataEP12pqOutputPort
libpqComponents.so.1:_ZN31pqFindDataCurrentSelectionFrame16staticMetaObjectE
libpqComponents.so.1:_ZN31pqFindDataCurrentSelectionFrame17updateSpreadSheetEv
libpqComponents.so.1:_ZN31pqFindDataCurrentSelectionFrame7showingEP12pqOutputPort
libpqComponents.so.1:_ZN31pqFindDataCurrentSelectionFrameC1EP7QWidget6QFlagsIN2Qt10WindowTypeEE
libpqComponents.so.1:_ZN31pqFindDataCurrentSelectionFrameC2EP7QWidget6QFlagsIN2Qt10WindowTypeEE
libpqComponents.so.1:_ZN31pqFindDataCurrentSelectionFrameD0Ev
libpqComponents.so.1:_ZN31pqFindDataCurrentSelectionFrameD1Ev
libpqComponents.so.1:_ZN31pqFindDataCurrentSelectionFrameD2Ev
libpqComponents.so.1:_ZN31pqFindDataSelectionDisplayFrame11qt_metacallEN11QMetaObject4CallEiPPv
libpqComponents.so.1:_ZN31pqFindDataSelectionDisplayFrame11qt_metacastEPKc
libpqComponents.so.1:_ZN31pqFindDataSelectionDisplayFrame11updatePanelEv
libpqComponents.so.1:_ZN31pqFindDataSelectionDisplayFrame13onDataUpdatedEv
libpqComponents.so.1:_ZN31pqFindDataSelectionDisplayFrame15setSelectedPortEP12pqOutputPort
libpqComponents.so.1:_ZN31pqFindDataSelectionDisplayFrame16staticMetaObjectE
libpqComponents.so.1:_ZN31pqFindDataSelectionDisplayFrame28editLabelPropertiesSelectionEv
libpqComponents.so.1:_ZN31pqFindDataSelectionDisplayFrame39editLabelPropertiesInteractiveSelectionEv
libpqComponents.so.1:_ZN31pqFindDataSelectionDisplayFrame41updateInteractiveSelectionLabelPropertiesEv
libpqComponents.so.1:_ZN31pqFindDataSelectionDisplayFrame7setViewEP6pqView
libpqComponents.so.1:_ZN31pqFindDataSelectionDisplayFrameC1EP7QWidget6QFlagsIN2Qt10WindowTypeEE
libpqComponents.so.1:_ZN31pqFindDataSelectionDisplayFrameC2EP7QWidget6QFlagsIN2Qt10WindowTypeEE
libpqComponents.so.1:_ZN31pqFindDataSelectionDisplayFrameD0Ev
libpqComponents.so.1:_ZN31pqFindDataSelectionDisplayFrameD1Ev
libpqComponents.so.1:_ZN31pqFindDataSelectionDisplayFrameD2Ev
libpqComponents.so.1:_ZN31pqPipelineAnnotationFilterModel11qt_metacallEN11QMetaObject4CallEiPPv
libpqComponents.so.1:_ZN31pqPipelineAnnotationFilterModel11qt_metacastEPKc
libpqComponents.so.1:_ZN31pqPipelineAnnotationFilterModel16staticMetaObjectE
libpqComponents.so.1:_ZN31pqPipelineAnnotationFilterModel19enableSessionFilterEP10vtkSession
libpqComponents.so.1:_ZN31pqPipelineAnnotationFilterModel20disableSessionFilterEv
libpqComponents.so.1:_ZN31pqPipelineAnnotationFilterModel22enableAnnotationFilterERK7QString
libpqComponents.so.1:_ZN31pqPipelineAnnotationFilterModel23disableAnnotationFilterEv
libpqComponents.so.1:_ZN31pqPipelineAnnotationFilterModel27setAnnotationFilterMatchingEb
libpqComponents.so.1:_ZN31pqPipelineAnnotationFilterModelC1EP7QObject
libpqComponents.so.1:_ZN31pqPipelineAnnotationFilterModelC2EP7QObject
libpqComponents.so.1:_ZN31pqPipelineModelSelectionAdaptor11qt_metacallEN11QMetaObject4CallEiPPv
libpqComponents.so.1:_ZN31pqPipelineModelSelectionAdaptor11qt_metacastEPKc
libpqComponents.so.1:_ZN31pqPipelineModelSelectionAdaptor16staticMetaObjectE
libpqComponents.so.1:_ZN31pqPipelineModelSelectionAdaptorC1EP19QItemSelectionModel
libpqComponents.so.1:_ZN31pqPipelineModelSelectionAdaptorC2EP19QItemSelectionModel
libpqComponents.so.1:_ZN31pqPipelineModelSelectionAdaptorD0Ev
libpqComponents.so.1:_ZN31pqPipelineModelSelectionAdaptorD1Ev
libpqComponents.so.1:_ZN31pqPipelineModelSelectionAdaptorD2Ev
libpqComponents.so.1:_ZN31pqReaderSelectionPropertyWidget11qt_metacallEN11QMetaObject4CallEiPPv
libpqComponents.so.1:_ZN31pqReaderSelectionPropertyWidget11qt_metacastEPKc
libpqComponents.so.1:_ZN31pqReaderSelectionPropertyWidget16staticMetaObjectE
libpqComponents.so.1:_ZN31pqReaderSelectionPropertyWidget17readerListChangedEv
libpqComponents.so.1:_ZN31pqReaderSelectionPropertyWidgetC1EP10vtkSMProxyP13vtkSMPropertyP7QWidget
libpqComponents.so.1:_ZN31pqReaderSelectionPropertyWidgetC2EP10vtkSMProxyP13vtkSMPropertyP7QWidget
libpqComponents.so.1:_ZN31pqReaderSelectionPropertyWidgetD0Ev
libpqComponents.so.1:_ZN31pqReaderSelectionPropertyWidgetD1Ev
libpqComponents.so.1:_ZN31pqReaderSelectionPropertyWidgetD2Ev
libpqComponents.so.1:_ZN31pqScalarValueListPropertyWidget10setScalarsERK5QListI8QVariantE
libpqComponents.so.1:_ZN31pqScalarValueListPropertyWidget11qt_metacallEN11QMetaObject4CallEiPPv
libpqComponents.so.1:_ZN31pqScalarValueListPropertyWidget11qt_metacastEPKc
libpqComponents.so.1:_ZN31pqScalarValueListPropertyWidget13setShowLabelsEb
libpqComponents.so.1:_ZN31pqScalarValueListPropertyWidget14scalarsChangedEv
libpqComponents.so.1:_ZN31pqScalarValueListPropertyWidget14setRangeDomainEP19vtkSMIntRangeDomain
libpqComponents.so.1:_ZN31pqScalarValueListPropertyWidget14setRangeDomainEP20vtkSMTimeStepsDomain
libpqComponents.so.1:_ZN31pqScalarValueListPropertyWidget14setRangeDomainEP22vtkSMDoubleRangeDomain
libpqComponents.so.1:_ZN31pqScalarValueListPropertyWidget15editPastLastRowEv
libpqComponents.so.1:_ZN31pqScalarValueListPropertyWidget15restoreDefaultsEv
libpqComponents.so.1:_ZN31pqScalarValueListPropertyWidget15smRangeModifiedEv
libpqComponents.so.1:_ZN31pqScalarValueListPropertyWidget16staticMetaObjectE
libpqComponents.so.1:_ZN31pqScalarValueListPropertyWidget3addEv
libpqComponents.so.1:_ZN31pqScalarValueListPropertyWidget6removeEv
libpqComponents.so.1:_ZN31pqScalarValueListPropertyWidget8addRangeEv
libpqComponents.so.1:_ZN31pqScalarValueListPropertyWidget8getRangeERdS0_
libpqComponents.so.1:_ZN31pqScalarValueListPropertyWidget8getRangeERiS0_
libpqComponents.so.1:_ZN31pqScalarValueListPropertyWidget9removeAllEv
libpqComponents.so.1:_ZN31pqScalarValueListPropertyWidget9setLabelsERKSt6vectorINSt7__cxx1112basic_stringIcSt11char_traitsIcESaIcEEESaIS6_EE
libpqComponents.so.1:_ZN31pqScalarValueListPropertyWidgetC1EP13vtkSMPropertyP10vtkSMProxyP7QWidget
libpqComponents.so.1:_ZN31pqScalarValueListPropertyWidgetC2EP13vtkSMPropertyP10vtkSMProxyP7QWidget
libpqComponents.so.1:_ZN31pqScalarValueListPropertyWidgetD0Ev
libpqComponents.so.1:_ZN31pqScalarValueListPropertyWidgetD1Ev
libpqComponents.so.1:_ZN31pqScalarValueListPropertyWidgetD2Ev
libpqComponents.so.1:_ZN31pqTextureSelectorPropertyWidget11qt_metacallEN11QMetaObject4CallEiPPv
libpqComponents.so.1:_ZN31pqTextureSelectorPropertyWidget11qt_metacastEPKc
libpqComponents.so.1:_ZN31pqTextureSelectorPropertyWidget15checkAttributesEbb
libpqComponents.so.1:_ZN31pqTextureSelectorPropertyWidget16onTextureChangedEP10vtkSMProxy
libpqComponents.so.1:_ZN31pqTextureSelectorPropertyWidget16staticMetaObjectE
libpqComponents.so.1:_ZN31pqTextureSelectorPropertyWidget17onPropertyChangedEv
libpqComponents.so.1:_ZN31pqTextureSelectorPropertyWidgetC1EP10vtkSMProxyP13vtkSMPropertyP7QWidget
libpqComponents.so.1:_ZN31pqTextureSelectorPropertyWidgetC2EP10vtkSMProxyP13vtkSMPropertyP7QWidget
libpqComponents.so.1:_ZN32pqColorChooserButtonWithPalettes10updateMenuEv
libpqComponents.so.1:_ZN32pqColorChooserButtonWithPalettes11qt_metacallEN11QMetaObject4CallEiPPv
libpqComponents.so.1:_ZN32pqColorChooserButtonWithPalettes11qt_metacastEPKc
libpqComponents.so.1:_ZN32pqColorChooserButtonWithPalettes15actionTriggeredEP7QAction
libpqComponents.so.1:_ZN32pqColorChooserButtonWithPalettes16staticMetaObjectE
libpqComponents.so.1:_ZN32pqColorChooserButtonWithPalettesC1EP7QWidget
libpqComponents.so.1:_ZN32pqColorChooserButtonWithPalettesC2EP7QWidget
libpqComponents.so.1:_ZN32pqColorChooserButtonWithPalettesD0Ev
libpqComponents.so.1:_ZN32pqColorChooserButtonWithPalettesD1Ev
libpqComponents.so.1:_ZN32pqColorChooserButtonWithPalettesD2Ev
libpqComponents.so.1:_ZN32pqLiveInsituVisualizationManager10addExtractEP12pqOutputPort
libpqComponents.so.1:_ZN32pqLiveInsituVisualizationManager11qt_metacallEN11QMetaObject4CallEiPPv
libpqComponents.so.1:_ZN32pqLiveInsituVisualizationManager11qt_metacastEPKc
libpqComponents.so.1:_ZN32pqLiveInsituVisualizationManager13sourceRemovedEP16pqPipelineSource
libpqComponents.so.1:_ZN32pqLiveInsituVisualizationManager14displaySessionEP8pqServer
libpqComponents.so.1:_ZN32pqLiveInsituVisualizationManager15insituConnectedEv
libpqComponents.so.1:_ZN32pqLiveInsituVisualizationManager16staticMetaObjectE
libpqComponents.so.1:_ZN32pqLiveInsituVisualizationManager16timestepsUpdatedEv
libpqComponents.so.1:_ZN32pqLiveInsituVisualizationManager18insituDisconnectedEv
libpqComponents.so.1:_ZN32pqLiveInsituVisualizationManager21nextTimestepAvailableEv
libpqComponents.so.1:_ZN32pqLiveInsituVisualizationManagerC1EiP8pqServer
libpqComponents.so.1:_ZN32pqLiveInsituVisualizationManagerC2EiP8pqServer
libpqComponents.so.1:_ZN32pqLiveInsituVisualizationManagerD0Ev
libpqComponents.so.1:_ZN32pqLiveInsituVisualizationManagerD1Ev
libpqComponents.so.1:_ZN32pqLiveInsituVisualizationManagerD2Ev
libpqComponents.so.1:_ZN33pqItemViewSearchWidgetEventPlayer10EVENT_NAMEEv
libpqComponents.so.1:_ZN33pqItemViewSearchWidgetEventPlayer11qt_metacallEN11QMetaObject4CallEiPPv
libpqComponents.so.1:_ZN33pqItemViewSearchWidgetEventPlayer11qt_metacastEPKc
libpqComponents.so.1:_ZN33pqItemViewSearchWidgetEventPlayer16staticMetaObjectE
libpqComponents.so.1:_ZN33pqItemViewSearchWidgetEventPlayer9playEventEP7QObjectRK7QStringS4_Rb
libpqComponents.so.1:_ZN33pqItemViewSearchWidgetEventPlayerC1EP7QObject
libpqComponents.so.1:_ZN33pqItemViewSearchWidgetEventPlayerC2EP7QObject
libpqComponents.so.1:_ZN33pqItemViewSearchWidgetEventPlayerD0Ev
libpqComponents.so.1:_ZN33pqItemViewSearchWidgetEventPlayerD1Ev
libpqComponents.so.1:_ZN33pqItemViewSearchWidgetEventPlayerD2Ev
libpqComponents.so.1:_ZN33pqMultiBlockPropertiesStateWidget11qt_metacallEN11QMetaObject4CallEiPPv
libpqComponents.so.1:_ZN33pqMultiBlockPropertiesStateWidget11qt_metacastEPKc
libpqComponents.so.1:_ZN33pqMultiBlockPropertiesStateWidget11updateStateEv
libpqComponents.so.1:_ZN33pqMultiBlockPropertiesStateWidget12stateChangedEN25vtkSMColorMapEditorHelper18BlockPropertyStateE
libpqComponents.so.1:_ZN33pqMultiBlockPropertiesStateWidget13endStateResetEv
libpqComponents.so.1:_ZN33pqMultiBlockPropertiesStateWidget15startStateResetEv
libpqComponents.so.1:_ZN33pqMultiBlockPropertiesStateWidget16staticMetaObjectE
libpqComponents.so.1:_ZN33pqMultiBlockPropertiesStateWidget19onPropertiesChangedEv
libpqComponents.so.1:_ZN33pqMultiBlockPropertiesStateWidget20onResetButtonClickedEv
libpqComponents.so.1:_ZN33pqMultiBlockPropertiesStateWidget29selectedBlockSelectorsChangedEv
libpqComponents.so.1:_ZN33pqMultiBlockPropertiesStateWidget31onSelectedBlockSelectorsChangedEv
libpqComponents.so.1:_ZN33pqMultiBlockPropertiesStateWidgetC1EP10vtkSMProxyRK5QListI7QStringEiS3_P7QWidget6QFlagsIN2Qt10WindowTypeEE
libpqComponents.so.1:_ZN33pqMultiBlockPropertiesStateWidgetC2EP10vtkSMProxyRK5QListI7QStringEiS3_P7QWidget6QFlagsIN2Qt10WindowTypeEE
libpqComponents.so.1:_ZN33pqMultiBlockPropertiesStateWidgetD0Ev
libpqComponents.so.1:_ZN33pqMultiBlockPropertiesStateWidgetD1Ev
libpqComponents.so.1:_ZN33pqMultiBlockPropertiesStateWidgetD2Ev
libpqComponents.so.1:_ZN33pqPluginTreeWidgetEventTranslator10onExpandedERK11QModelIndex
libpqComponents.so.1:_ZN33pqPluginTreeWidgetEventTranslator11onCollapsedERK11QModelIndex
libpqComponents.so.1:_ZN33pqPluginTreeWidgetEventTranslator11qt_metacallEN11QMetaObject4CallEiPPv
libpqComponents.so.1:_ZN33pqPluginTreeWidgetEventTranslator11qt_metacastEPKc
libpqComponents.so.1:_ZN33pqPluginTreeWidgetEventTranslator13onItemChangedERK11QModelIndex
libpqComponents.so.1:_ZN33pqPluginTreeWidgetEventTranslator14translateEventEP7QObjectP6QEventRb
libpqComponents.so.1:_ZN33pqPluginTreeWidgetEventTranslator16getIndexAsStringERK11QModelIndex
libpqComponents.so.1:_ZN33pqPluginTreeWidgetEventTranslator16onCurrentChangedERK11QModelIndex
libpqComponents.so.1:_ZN33pqPluginTreeWidgetEventTranslator16staticMetaObjectE
libpqComponents.so.1:_ZN33pqPluginTreeWidgetEventTranslatorC1EP7QObject
libpqComponents.so.1:_ZN33pqPluginTreeWidgetEventTranslatorC2EP7QObject
libpqComponents.so.1:_ZN33pqPluginTreeWidgetEventTranslatorD0Ev
libpqComponents.so.1:_ZN33pqPluginTreeWidgetEventTranslatorD1Ev
libpqComponents.so.1:_ZN33pqPluginTreeWidgetEventTranslatorD2Ev
libpqComponents.so.1:_ZN33pqXYChartViewBoundsPropertyWidget11qt_metacallEN11QMetaObject4CallEiPPv
libpqComponents.so.1:_ZN33pqXYChartViewBoundsPropertyWidget11qt_metacastEPKc
libpqComponents.so.1:_ZN33pqXYChartViewBoundsPropertyWidget11resetBoundsEv
libpqComponents.so.1:_ZN33pqXYChartViewBoundsPropertyWidget13boundsChangedEv
libpqComponents.so.1:_ZN33pqXYChartViewBoundsPropertyWidget13connectToViewEP6pqView
libpqComponents.so.1:_ZN33pqXYChartViewBoundsPropertyWidget13onTextChangedEv
libpqComponents.so.1:_ZN33pqXYChartViewBoundsPropertyWidget16staticMetaObjectE
libpqComponents.so.1:_ZN33pqXYChartViewBoundsPropertyWidget20updateTextFromBoundsEv
libpqComponents.so.1:_ZN33pqXYChartViewBoundsPropertyWidget6boundsEv
libpqComponents.so.1:_ZN33pqXYChartViewBoundsPropertyWidget9setBoundsERK5QListI8QVariantE
libpqComponents.so.1:_ZN33pqXYChartViewBoundsPropertyWidget9showEventEP10QShowEvent
libpqComponents.so.1:_ZN33pqXYChartViewBoundsPropertyWidgetC1EP10vtkSMProxyP13vtkSMPropertyP7QWidget
libpqComponents.so.1:_ZN33pqXYChartViewBoundsPropertyWidgetC2EP10vtkSMProxyP13vtkSMPropertyP7QWidget
libpqComponents.so.1:_ZN33pqXYChartViewBoundsPropertyWidgetD0Ev
libpqComponents.so.1:_ZN33pqXYChartViewBoundsPropertyWidgetD1Ev
libpqComponents.so.1:_ZN33pqXYChartViewBoundsPropertyWidgetD2Ev
libpqComponents.so.1:_ZN34pqCompositePropertyWidgetDecorator11qt_metacallEN11QMetaObject4CallEiPPv
libpqComponents.so.1:_ZN34pqCompositePropertyWidgetDecorator11qt_metacastEPKc
libpqComponents.so.1:_ZN34pqCompositePropertyWidgetDecorator16staticMetaObjectE
libpqComponents.so.1:_ZN34pqCompositePropertyWidgetDecoratorC1EP15vtkPVXMLElementP16pqPropertyWidget
libpqComponents.so.1:_ZN34pqCompositePropertyWidgetDecoratorC2EP15vtkPVXMLElementP16pqPropertyWidget
libpqComponents.so.1:_ZN34pqCompositePropertyWidgetDecoratorD0Ev
libpqComponents.so.1:_ZN34pqCompositePropertyWidgetDecoratorD1Ev
libpqComponents.so.1:_ZN34pqCompositePropertyWidgetDecoratorD2Ev
libpqComponents.so.1:_ZN34pqMultiBlockPropertiesEditorWidget11qt_metacallEN11QMetaObject4CallEiPPv
libpqComponents.so.1:_ZN34pqMultiBlockPropertiesEditorWidget11qt_metacastEPKc
libpqComponents.so.1:_ZN34pqMultiBlockPropertiesEditorWidget16staticMetaObjectE
libpqComponents.so.1:_ZN34pqMultiBlockPropertiesEditorWidget19updateOpacityWidgetEv
libpqComponents.so.1:_ZN34pqMultiBlockPropertiesEditorWidget22updateMapScalarsWidgetEv
libpqComponents.so.1:_ZN34pqMultiBlockPropertiesEditorWidget43updateInterpolateScalarsBeforeMappingWidgetEv
libpqComponents.so.1:_ZN34pqMultiBlockPropertiesEditorWidgetC1EP10vtkSMProxyP18vtkSMPropertyGroupP7QWidget
libpqComponents.so.1:_ZN34pqMultiBlockPropertiesEditorWidgetC2EP10vtkSMProxyP18vtkSMPropertyGroupP7QWidget
libpqComponents.so.1:_ZN34pqMultiBlockPropertiesEditorWidgetD0Ev
libpqComponents.so.1:_ZN34pqMultiBlockPropertiesEditorWidgetD1Ev
libpqComponents.so.1:_ZN34pqMultiBlockPropertiesEditorWidgetD2Ev
libpqComponents.so.1:_ZN34pqRescaleScalarRangeToCustomDialog11qt_metacallEN11QMetaObject4CallEiPPv
libpqComponents.so.1:_ZN34pqRescaleScalarRangeToCustomDialog11qt_metacastEPKc
libpqComponents.so.1:_ZN34pqRescaleScalarRangeToCustomDialog15setOpacityRangeEdd
libpqComponents.so.1:_ZN34pqRescaleScalarRangeToCustomDialog16staticMetaObjectE
libpqComponents.so.1:_ZN34pqRescaleScalarRangeToCustomDialog19showOpacityControlsEb
libpqComponents.so.1:_ZN34pqRescaleScalarRangeToCustomDialog5applyEv
libpqComponents.so.1:_ZN34pqRescaleScalarRangeToCustomDialog7rescaleEv
libpqComponents.so.1:_ZN34pqRescaleScalarRangeToCustomDialog7setLockEb
libpqComponents.so.1:_ZN34pqRescaleScalarRangeToCustomDialog8setRangeEdd
libpqComponents.so.1:_ZN34pqRescaleScalarRangeToCustomDialog8validateEv
libpqComponents.so.1:_ZN34pqRescaleScalarRangeToCustomDialogC1EP7QWidget
libpqComponents.so.1:_ZN34pqRescaleScalarRangeToCustomDialogC2EP7QWidget
libpqComponents.so.1:_ZN34pqRescaleScalarRangeToCustomDialogD0Ev
libpqComponents.so.1:_ZN34pqRescaleScalarRangeToCustomDialogD1Ev
libpqComponents.so.1:_ZN34pqRescaleScalarRangeToCustomDialogD2Ev
libpqComponents.so.1:_ZN34pqSignalAdaptorSelectionTreeWidget11qt_metacallEN11QMetaObject4CallEiPPv
libpqComponents.so.1:_ZN34pqSignalAdaptorSelectionTreeWidget11qt_metacastEPKc
libpqComponents.so.1:_ZN34pqSignalAdaptorSelectionTreeWidget13domainChangedEv
libpqComponents.so.1:_ZN34pqSignalAdaptorSelectionTreeWidget13valuesChangedEv
libpqComponents.so.1:_ZN34pqSignalAdaptorSelectionTreeWidget16staticMetaObjectE
libpqComponents.so.1:_ZN34pqSignalAdaptorSelectionTreeWidget9setValuesERK5QListIS0_I8QVariantEE
libpqComponents.so.1:_ZN34pqSignalAdaptorSelectionTreeWidgetC1EP11QTreeWidgetP13vtkSMProperty
libpqComponents.so.1:_ZN34pqSignalAdaptorSelectionTreeWidgetC2EP11QTreeWidgetP13vtkSMProperty
libpqComponents.so.1:_ZN34pqSignalAdaptorSelectionTreeWidgetD0Ev
libpqComponents.so.1:_ZN34pqSignalAdaptorSelectionTreeWidgetD1Ev
libpqComponents.so.1:_ZN34pqSignalAdaptorSelectionTreeWidgetD2Ev
libpqComponents.so.1:_ZN35vtkPVColorTransferControlPointsItem13KeyPressEventERK18vtkContextKeyEvent
libpqComponents.so.1:_ZN35vtkPVColorTransferControlPointsItem21MouseDoubleClickEventERK20vtkContextMouseEvent
libpqComponents.so.1:_ZN35vtkPVColorTransferControlPointsItem3NewEv
libpqComponents.so.1:_ZN35vtkPVColorTransferControlPointsItemC1Ev
libpqComponents.so.1:_ZN35vtkPVColorTransferControlPointsItemC2Ev
libpqComponents.so.1:_ZN35vtkPVColorTransferControlPointsItemD0Ev
libpqComponents.so.1:_ZN35vtkPVColorTransferControlPointsItemD1Ev
libpqComponents.so.1:_ZN35vtkPVColorTransferControlPointsItemD2Ev
libpqComponents.so.1:_ZN37pqDisplayRepresentationPropertyWidget11qt_metacallEN11QMetaObject4CallEiPPv
libpqComponents.so.1:_ZN37pqDisplayRepresentationPropertyWidget11qt_metacastEPKc
libpqComponents.so.1:_ZN37pqDisplayRepresentationPropertyWidget16staticMetaObjectE
libpqComponents.so.1:_ZN37pqDisplayRepresentationPropertyWidgetC1EP10vtkSMProxyP7QWidget
libpqComponents.so.1:_ZN37pqDisplayRepresentationPropertyWidgetC2EP10vtkSMProxyP7QWidget
libpqComponents.so.1:_ZN37pqDisplayRepresentationPropertyWidgetD0Ev
libpqComponents.so.1:_ZN37pqDisplayRepresentationPropertyWidgetD1Ev
libpqComponents.so.1:_ZN37pqDisplayRepresentationPropertyWidgetD2Ev
libpqComponents.so.1:_ZN40pqRescaleScalarRangeToDataOverTimeDialog11qt_metacallEN11QMetaObject4CallEiPPv
libpqComponents.so.1:_ZN40pqRescaleScalarRangeToDataOverTimeDialog11qt_metacastEPKc
libpqComponents.so.1:_ZN40pqRescaleScalarRangeToDataOverTimeDialog16staticMetaObjectE
libpqComponents.so.1:_ZN40pqRescaleScalarRangeToDataOverTimeDialog5applyEv
libpqComponents.so.1:_ZN40pqRescaleScalarRangeToDataOverTimeDialog7rescaleEv
libpqComponents.so.1:_ZN40pqRescaleScalarRangeToDataOverTimeDialog7setLockEb
libpqComponents.so.1:_ZN40pqRescaleScalarRangeToDataOverTimeDialogC1EP7QWidget
libpqComponents.so.1:_ZN40pqRescaleScalarRangeToDataOverTimeDialogC2EP7QWidget
libpqComponents.so.1:_ZN40pqRescaleScalarRangeToDataOverTimeDialogD0Ev
libpqComponents.so.1:_ZN40pqRescaleScalarRangeToDataOverTimeDialogD1Ev
libpqComponents.so.1:_ZN40pqRescaleScalarRangeToDataOverTimeDialogD2Ev
libpqComponents.so.1:_ZN42pqShaderReplacementsSelectorPropertyWidget11qt_metacallEN11QMetaObject4CallEiPPv
libpqComponents.so.1:_ZN42pqShaderReplacementsSelectorPropertyWidget11qt_metacastEPKc
libpqComponents.so.1:_ZN42pqShaderReplacementsSelectorPropertyWidget11refreshViewEv
libpqComponents.so.1:_ZN42pqShaderReplacementsSelectorPropertyWidget15onPresetChangedEi
libpqComponents.so.1:_ZN42pqShaderReplacementsSelectorPropertyWidget16staticMetaObjectE
libpqComponents.so.1:_ZN42pqShaderReplacementsSelectorPropertyWidget22loadShaderReplacementsERK7QString
libpqComponents.so.1:_ZN42pqShaderReplacementsSelectorPropertyWidget24updateShaderReplacementsEv
libpqComponents.so.1:_ZN42pqShaderReplacementsSelectorPropertyWidget29textChangedAndEditingFinishedEv
libpqComponents.so.1:_ZN42pqShaderReplacementsSelectorPropertyWidget6onLoadEv
libpqComponents.so.1:_ZN42pqShaderReplacementsSelectorPropertyWidget8onDeleteEv
libpqComponents.so.1:_ZN42pqShaderReplacementsSelectorPropertyWidgetC1EP10vtkSMProxyP13vtkSMPropertyP7QWidget
libpqComponents.so.1:_ZN42pqShaderReplacementsSelectorPropertyWidgetC2EP10vtkSMProxyP13vtkSMPropertyP7QWidget
libpqComponents.so.1:_ZN42pqShaderReplacementsSelectorPropertyWidgetD0Ev
libpqComponents.so.1:_ZN42pqShaderReplacementsSelectorPropertyWidgetD1Ev
libpqComponents.so.1:_ZN42pqShaderReplacementsSelectorPropertyWidgetD2Ev
libpqComponents.so.1:_ZN7pqLabel11qt_metacallEN11QMetaObject4CallEiPPv
libpqComponents.so.1:_ZN7pqLabel11qt_metacastEPKc
libpqComponents.so.1:_ZN7pqLabel15mousePressEventEP11QMouseEvent
libpqComponents.so.1:_ZN7pqLabel16staticMetaObjectE
libpqComponents.so.1:_ZN7pqLabel7clickedEv
libpqComponents.so.1:_ZN7pqLabelC1ERK7QStringP7QWidget6QFlagsIN2Qt10WindowTypeEE
libpqComponents.so.1:_ZN7pqLabelC2ERK7QStringP7QWidget6QFlagsIN2Qt10WindowTypeEE
libpqComponents.so.1:_ZN7pqLabelD0Ev
libpqComponents.so.1:_ZN7pqLabelD1Ev
libpqComponents.so.1:_ZN7pqLabelD2Ev
libpqComponents.so.1:_ZN8pqDialog11qt_metacallEN11QMetaObject4CallEiPPv
libpqComponents.so.1:_ZN8pqDialog11qt_metacastEPKc
libpqComponents.so.1:_ZN8pqDialog16staticMetaObjectE
libpqComponents.so.1:_ZN8pqDialog4doneEi
libpqComponents.so.1:_ZN8pqDialog6acceptEv
libpqComponents.so.1:_ZN8pqDialog7endUndoEv
libpqComponents.so.1:_ZN8pqDialog9beginUndoERK7QString
libpqComponents.so.1:_ZN8pqDialogC1EP7QWidget6QFlagsIN2Qt10WindowTypeEE
libpqComponents.so.1:_ZN8pqDialogC2EP7QWidget6QFlagsIN2Qt10WindowTypeEE
libpqComponents.so.1:_ZN8pqDialogD0Ev
libpqComponents.so.1:_ZN8pqDialogD1Ev
libpqComponents.so.1:_ZN8pqDialogD2Ev
libpqComponents.so.1:_ZNK10pqImageTip10metaObjectEv
libpqComponents.so.1:_ZNK11pqSearchBox10metaObjectEv
libpqComponents.so.1:_ZNK11pqSearchBox10settingKeyEv
libpqComponents.so.1:_ZNK11pqSearchBox15placeholderTextEv
libpqComponents.so.1:_ZNK11pqSearchBox22isAdvancedSearchActiveEv
libpqComponents.so.1:_ZNK11pqSearchBox23isAdvancedSearchEnabledEv
libpqComponents.so.1:_ZNK11pqSearchBox4textEv
libpqComponents.so.1:_ZNK11pqSearchBox8settingsEv
libpqComponents.so.1:_ZNK11pqViewFrame10metaObjectEv
libpqComponents.so.1:_ZNK11pqViewFrame11contextMenuEv
libpqComponents.so.1:_ZNK11pqViewFrame13centralWidgetEv
libpqComponents.so.1:_ZNK11pqViewFrame5titleEv
libpqComponents.so.1:_ZNK12pqHelpWindow10metaObjectEv
libpqComponents.so.1:_ZNK13pqAboutDialog10metaObjectEv
libpqComponents.so.1:_ZNK13pqIconBrowser10metaObjectEv
libpqComponents.so.1:_ZNK13pqLinksEditor10metaObjectEv
libpqComponents.so.1:_ZNK13pqProxyAction10metaObjectEv
libpqComponents.so.1:_ZNK13pqProxyWidget10metaObjectEv
libpqComponents.so.1:_ZNK13pqProxyWidget13applyInternalEv
libpqComponents.so.1:_ZNK13pqProxyWidget14saveAsDefaultsEv
libpqComponents.so.1:_ZNK13pqProxyWidget28shouldPreservePropertyValuesEv
libpqComponents.so.1:_ZNK13pqProxyWidget5applyEv
libpqComponents.so.1:_ZNK13pqProxyWidget5proxyEv
libpqComponents.so.1:_ZNK13pqProxyWidget5resetEv
libpqComponents.so.1:_ZNK13pqViewManager10metaObjectEv
libpqComponents.so.1:_ZNK14pqCameraDialog10metaObjectEv
libpqComponents.so.1:_ZNK14pqColorOverlay10metaObjectEv
libpqComponents.so.1:_ZNK14pqColorOverlay3rgbEv
libpqComponents.so.1:_ZNK14pqColorOverlay7opacityEv
libpqComponents.so.1:_ZNK14pqDisplayPanel10metaObjectEv
libpqComponents.so.1:_ZNK14pqLightsEditor10metaObjectEv
libpqComponents.so.1:_ZNK14pqLinksManager10metaObjectEv
libpqComponents.so.1:_ZNK14pqPluginDialog10metaObjectEv
libpqComponents.so.1:_ZNK14pqPopOutWidget10metaObjectEv
libpqComponents.so.1:_ZNK14pqPresetDialog10loadColorsEv
libpqComponents.so.1:_ZNK14pqPresetDialog10metaObjectEv
libpqComponents.so.1:_ZNK14pqPresetDialog13loadOpacitiesEv
libpqComponents.so.1:_ZNK14pqPresetDialog14usePresetRangeEv
libpqComponents.so.1:_ZNK14pqPresetDialog15loadAnnotationsEv
libpqComponents.so.1:_ZNK15pqActiveObjects10activePortEv
libpqComponents.so.1:_ZNK15pqActiveObjects10metaObjectEv
libpqComponents.so.1:_ZNK15pqActiveObjects12activeLayoutEv
libpqComponents.so.1:_ZNK15pqActiveObjects12activeSourceEv
libpqComponents.so.1:_ZNK15pqActiveObjects12proxyManagerEv
libpqComponents.so.1:_ZNK15pqActiveObjects20activeLayoutLocationEv
libpqComponents.so.1:_ZNK15pqPipelineModel10getItemForERK11QModelIndex
libpqComponents.so.1:_ZNK15pqPipelineModel10getTypeForERK11QModelIndex
libpqComponents.so.1:_ZNK15pqPipelineModel10metaObjectEv
libpqComponents.so.1:_ZNK15pqPipelineModel11columnCountERK11QModelIndex
libpqComponents.so.1:_ZNK15pqPipelineModel11getDataItemEP24pqServerManagerModelItemP23pqPipelineModelDataItemNS_8ItemTypeE
libpqComponents.so.1:_ZNK15pqPipelineModel11getIndexForEP24pqServerManagerModelItem
libpqComponents.so.1:_ZNK15pqPipelineModel11hasChildrenERK11QModelIndex
libpqComponents.so.1:_ZNK15pqPipelineModel12getNextIndexE11QModelIndexRKS0_
libpqComponents.so.1:_ZNK15pqPipelineModel12isSelectableERK11QModelIndex
libpqComponents.so.1:_ZNK15pqPipelineModel4dataERK11QModelIndexi
libpqComponents.so.1:_ZNK15pqPipelineModel5flagsERK11QModelIndex
libpqComponents.so.1:_ZNK15pqPipelineModel5indexEiiRK11QModelIndex
libpqComponents.so.1:_ZNK15pqPipelineModel6parentERK11QModelIndex
libpqComponents.so.1:_ZNK15pqPipelineModel8getIndexEP23pqPipelineModelDataItem
libpqComponents.so.1:_ZNK15pqPipelineModel8rowCountERK11QModelIndex
libpqComponents.so.1:_ZNK15pqProxiesWidget10metaObjectEv
libpqComponents.so.1:_ZNK15pqProxiesWidget13expanderStateEv
libpqComponents.so.1:_ZNK15pqProxiesWidget5applyEv
libpqComponents.so.1:_ZNK15pqProxiesWidget5resetEv
libpqComponents.so.1:_ZNK15pqVCRController10metaObjectEv
libpqComponents.so.1:_ZNK15pqVCRController17getAnimationSceneEv
libpqComponents.so.1:_ZNK16pqComboBoxDomain10metaObjectEv
libpqComponents.so.1:_ZNK16pqComboBoxDomain11getPropertyEv
libpqComponents.so.1:_ZNK16pqComboBoxDomain14getUserStringsEv
libpqComponents.so.1:_ZNK16pqComboBoxDomain9getDomainEv
libpqComponents.so.1:_ZNK16pqIntRangeWidget10metaObjectEv
libpqComponents.so.1:_ZNK16pqIntRangeWidget5valueEv
libpqComponents.so.1:_ZNK16pqIntRangeWidget7maximumEv
libpqComponents.so.1:_ZNK16pqIntRangeWidget7minimumEv
libpqComponents.so.1:_ZNK16pqKeyFrameEditor10metaObjectEv
libpqComponents.so.1:_ZNK16pqKeyFrameEditor10valuesOnlyEv
libpqComponents.so.1:_ZNK16pqLiveSourceItem10metaObjectEv
libpqComponents.so.1:_ZNK16pqPresetToPixmap10metaObjectEv
libpqComponents.so.1:_ZNK16pqPresetToPixmap27renderColorTransferFunctionEP18vtkScalarsToColorsP20vtkPiecewiseFunctionRK5QSize
libpqComponents.so.1:_ZNK16pqPresetToPixmap34renderIndexedColorTransferFunctionEP18vtkScalarsToColorsRK5QSize
libpqComponents.so.1:_ZNK16pqPresetToPixmap6renderERKN4Json5ValueERK5QSize
libpqComponents.so.1:_ZNK16pqPropertyWidget10metaObjectEv
libpqComponents.so.1:_ZNK16pqPropertyWidget15isSingleRowItemEv
libpqComponents.so.1:_ZNK16pqPropertyWidget15panelVisibilityEv
libpqComponents.so.1:_ZNK16pqPropertyWidget4viewEv
libpqComponents.so.1:_ZNK16pqPropertyWidget5proxyEv
libpqComponents.so.1:_ZNK16pqPropertyWidget8propertyEv
libpqComponents.so.1:_ZNK16pqPropertyWidget9showLabelEv
libpqComponents.so.1:_ZNK16pqScalarSetModel10metaObjectEv
libpqComponents.so.1:_ZNK16pqScalarSetModel13preserveOrderEv
libpqComponents.so.1:_ZNK16pqScalarSetModel4dataERK11QModelIndexi
libpqComponents.so.1:_ZNK16pqScalarSetModel5flagsERK11QModelIndex
libpqComponents.so.1:_ZNK16pqScalarSetModel8rowCountERK11QModelIndex
libpqComponents.so.1:_ZNK16pqServerLauncher10metaObjectEv
libpqComponents.so.1:_ZNK16pqServerLauncher13configurationEv
libpqComponents.so.1:_ZNK16pqServerLauncher15connectedServerEv
libpqComponents.so.1:_ZNK16pqServerLauncher19isReverseConnectionEv
libpqComponents.so.1:_ZNK16pqServerLauncher7optionsEv
libpqComponents.so.1:_ZNK16pqSettingsDialog10metaObjectEv
libpqComponents.so.1:_ZNK17pqArrayListDomain10metaObjectEv
libpqComponents.so.1:_ZNK17pqArrayListWidget10metaObjectEv
libpqComponents.so.1:_ZNK17pqLightsInspector10metaObjectEv
libpqComponents.so.1:_ZNK17pqLogViewerDialog10metaObjectEv
libpqComponents.so.1:_ZNK17pqMultiViewWidget10metaObjectEv
libpqComponents.so.1:_ZNK17pqMultiViewWidget11viewProxiesEv
libpqComponents.so.1:_ZNK17pqMultiViewWidget13layoutManagerEv
libpqComponents.so.1:_ZNK17pqMultiViewWidget14isViewAssignedEP6pqView
libpqComponents.so.1:_ZNK17pqMultiViewWidget19activeFrameLocationEv
libpqComponents.so.1:_ZNK17pqMultiViewWidget21decorationsVisibilityEv
libpqComponents.so.1:_ZNK17pqPropertiesPanel10metaObjectEv
libpqComponents.so.1:_ZNK17pqPropertiesPanel4viewEv
libpqComponents.so.1:_ZNK17pqRecentFilesMenu10metaObjectEv
libpqComponents.so.1:_ZNK17pqRecentFilesMenu4openEP8pqServerRK16pqServerResource
libpqComponents.so.1:_ZNK17pqTextureComboBox10metaObjectEv
libpqComponents.so.1:_ZNK17pqTimerLogDisplay10metaObjectEv
libpqComponents.so.1:_ZNK17pqTimerLogDisplay12bufferLengthEv
libpqComponents.so.1:_ZNK17pqTimerLogDisplay13timeThresholdEv
libpqComponents.so.1:_ZNK17pqTimerLogDisplay9isEnabledEv
libpqComponents.so.1:_ZNK18pqAnimationManager10metaObjectEv
libpqComponents.so.1:_ZNK18pqAnimationManager14getActiveSceneEv
libpqComponents.so.1:_ZNK18pqAnimationManager16animationPlayingEv
libpqComponents.so.1:_ZNK18pqAnimationManager6getCueEP16pqAnimationSceneP10vtkSMProxyPKci
libpqComponents.so.1:_ZNK18pqAnimationManager8getSceneEP8pqServer
libpqComponents.so.1:_ZNK18pqBlockProxyWidget10metaObjectEv
libpqComponents.so.1:_ZNK18pqBlockProxyWidget5applyEv
libpqComponents.so.1:_ZNK18pqCalculatorWidget10metaObjectEv
libpqComponents.so.1:_ZNK18pqOneLinerTextEdit10metaObjectEv
libpqComponents.so.1:_ZNK18pqPluginTreeWidget10metaObjectEv
libpqComponents.so.1:_ZNK18pqSelectionAdaptor10metaObjectEv
libpqComponents.so.1:_ZNK18pqSelectionAdaptor11mapToSourceERK11QModelIndex
libpqComponents.so.1:_ZNK18pqSelectionAdaptor13mapFromSourceERK11QModelIndexPK18QAbstractItemModel
libpqComponents.so.1:_ZNK18pqSelectionAdaptor9getQModelEv
libpqComponents.so.1:_ZNK18pqSelectionManager10metaObjectEv
libpqComponents.so.1:_ZNK18pqSelectionManager15getSelectedPortEv
libpqComponents.so.1:_ZNK18pqSelectionManager16getSelectedPortsEv
libpqComponents.so.1:_ZNK18pqSelectionManager18hasActiveSelectionEv
libpqComponents.so.1:_ZNK18pqSelectionManager18selectedDataBoundsEv
libpqComponents.so.1:_ZNK19pqChangeInputDialog10metaObjectEv
libpqComponents.so.1:_ZNK19pqChangeInputDialog14selectedInputsEv
