libKF5Completion.so.5:_ZN15KCompletionBase12virtual_hookEiPv
libKF5Completion.so.5:_ZN15KCompletionBase16setHandleSignalsEb
libKF5Completion.so.5:_ZN15KCompletionBase17setCompletionModeEN11KCompletion14CompletionModeE
libKF5Completion.so.5:_ZN15KCompletionBase19setCompletionObjectEP11KCompletionb
libKF5Completion.so.5:_ZN9KComboBox11qt_metacallEN11QMetaObject4CallEiPPv
libKF5Completion.so.5:_ZN9KComboBox11qt_metacastEPKc
libKF5Completion.so.5:_ZN9KComboBox11setEditableEb
libKF5Completion.so.5:_ZN9KComboBox11setLineEditEP9QLineEdit
libKF5Completion.so.5:_ZN9KComboBox14makeCompletionERK7QString
libKF5Completion.so.5:_ZN9KComboBox16setCompletedTextERK7QString
libKF5Completion.so.5:_ZN9KComboBox16setCompletedTextERK7QStringb
libKF5Completion.so.5:_ZN9KComboBox16staticMetaObjectE
libKF5Completion.so.5:_ZN9KComboBox17setAutoCompletionEb
libKF5Completion.so.5:_ZN9KComboBox17setCompletedItemsERK11QStringListb
libKF5Completion.so.5:_ZN9KComboBox21setContextMenuEnabledEb
libKF5Completion.so.5:_ZN9KComboBoxC1EP7QWidget
libKF5Completion.so.5:_ZN9KComboBoxC2EP7QWidget
libKF5Completion.so.5:_ZN9KComboBoxD2Ev
libKF5Completion.so.5:_ZN9KLineEdit15setPasswordModeEb
libKF5Completion.so.5:_ZN9KLineEditC1EP7QWidget
libKF5Completion.so.5:_ZNK9KComboBox15minimumSizeHintEv
libKF5Completion.so.5:_ZTI9KComboBox
libKF5Completion.so.5:_ZThn48_N9KComboBox16setCompletedTextERK7QString
libKF5Completion.so.5:_ZThn48_N9KComboBox17setCompletedItemsERK11QStringListb
libKF5ConfigCore.so.5:_ZN11KAuthorized9authorizeERK7QString
libKF5ConfigCore.so.5:_ZN12KConfigGroup10writeEntryEPKcRK7QString6QFlagsIN11KConfigBase15WriteConfigFlagEE
libKF5ConfigCore.so.5:_ZN12KConfigGroup10writeEntryEPKcRK8QVariant6QFlagsIN11KConfigBase15WriteConfigFlagEE
libKF5ConfigCore.so.5:_ZN12KConfigGroup10writeEntryEPKcS1_6QFlagsIN11KConfigBase15WriteConfigFlagEE
libKF5ConfigCore.so.5:_ZN12KConfigGroup10writeEntryERK7QStringS2_6QFlagsIN11KConfigBase15WriteConfigFlagEE
libKF5ConfigCore.so.5:_ZN12KConfigGroup11deleteGroupE6QFlagsIN11KConfigBase15WriteConfigFlagEE
libKF5ConfigCore.so.5:_ZN12KConfigGroup4syncEv
libKF5ConfigCore.so.5:_ZN12KConfigGroupC1EP11KConfigBaseRK7QString
libKF5ConfigCore.so.5:_ZN12KConfigGroupC1ERK28QExplicitlySharedDataPointerI13KSharedConfigEPKc
libKF5ConfigCore.so.5:_ZN12KConfigGroupC1ERK28QExplicitlySharedDataPointerI13KSharedConfigERK7QString
libKF5ConfigCore.so.5:_ZN12KConfigGroupD1Ev
libKF5ConfigCore.so.5:_ZN13KSharedConfig10openConfigERK7QString6QFlagsIN7KConfig8OpenFlagEEN14QStandardPaths16StandardLocationE
libKF5ConfigCore.so.5:_ZN7KConfigC1ERK7QString6QFlagsINS_8OpenFlagEEN14QStandardPaths16StandardLocationE
libKF5ConfigCore.so.5:_ZN7KConfigD1Ev
libKF5ConfigCore.so.5:_ZNK12KConfigGroup6existsEv
libKF5ConfigCore.so.5:_ZNK12KConfigGroup7isValidEv
libKF5ConfigCore.so.5:_ZNK12KConfigGroup9readEntryEPKcRK8QVariant
libKF5ConfigCore.so.5:_ZNK12KConfigGroup9readEntryEPKcS1_
libKF5ConfigCore.so.5:_ZNK12KConfigGroup9readEntryERK7QStringPKc
libKF5ConfigCore.so.5:_ZNK12KConfigGroup9readEntryERK7QStringS2_
libKF5ConfigCore.so.5:_ZNK7KConfig8entryMapERK7QString
libKF5ConfigCore.so.5:_ZNK7KConfig9groupListEv
libKF5ConfigWidgets.so.5:_ZN12KColorScheme16adjustBackgroundER8QPaletteNS_14BackgroundRoleENS0_9ColorRoleENS_8ColorSetE28QExplicitlySharedDataPointerI13KSharedConfigE
libKF5ConfigWidgets.so.5:_ZN12KColorScheme24createApplicationPaletteERK28QExplicitlySharedDataPointerI13KSharedConfigE
libKF5ConfigWidgets.so.5:_ZN8KCModule10setButtonsE6QFlagsINS_6ButtonEE
libKF5ConfigWidgets.so.5:_ZN8KCModule11qt_metacallEN11QMetaObject4CallEiPPv
libKF5ConfigWidgets.so.5:_ZN8KCModule11qt_metacastEPKc
libKF5ConfigWidgets.so.5:_ZN8KCModule16staticMetaObjectE
libKF5ConfigWidgets.so.5:_ZN8KCModule4loadEv
libKF5ConfigWidgets.so.5:_ZN8KCModule4saveEv
libKF5ConfigWidgets.so.5:_ZN8KCModule7changedEb
libKF5ConfigWidgets.so.5:_ZN8KCModule8defaultsEv
libKF5ConfigWidgets.so.5:_ZN8KCModule9showEventEP10QShowEvent
libKF5ConfigWidgets.so.5:_ZN8KCModuleC2EP7QWidgetRK5QListI8QVariantE
libKF5ConfigWidgets.so.5:_ZN8KCModuleD2Ev
libKF5ConfigWidgets.so.5:_ZNK8KCModule9aboutDataEv
libKF5ConfigWidgets.so.5:_ZNK8KCModule9quickHelpEv
libKF5ConfigWidgets.so.5:_ZTI8KCModule
libKF5CoreAddons.so.5:_ZN13KPluginLoader6unloadEv
libKF5CoreAddons.so.5:_ZN13KPluginLoader7factoryEv
libKF5CoreAddons.so.5:_ZN13KPluginLoaderC1ERK11KPluginNameP7QObject
libKF5CoreAddons.so.5:_ZN13KPluginLoaderD1Ev
libKF5CoreAddons.so.5:_ZN14KPluginFactory11qt_metacallEN11QMetaObject4CallEiPPv
libKF5CoreAddons.so.5:_ZN14KPluginFactory11qt_metacastEPKc
libKF5CoreAddons.so.5:_ZN14KPluginFactory12createObjectEP7QObjectPKcRK11QStringList
libKF5CoreAddons.so.5:_ZN14KPluginFactory14registerPluginERK7QStringPK11QMetaObjectPFP7QObjectP7QWidgetS7_RK5QListI8QVariantEE
libKF5CoreAddons.so.5:_ZN14KPluginFactory16createPartObjectEP7QWidgetP7QObjectPKcRK11QStringList
libKF5CoreAddons.so.5:_ZN14KPluginFactory16staticMetaObjectE
libKF5CoreAddons.so.5:_ZN14KPluginFactory6createEPKcP7QWidgetP7QObjectRK5QListI8QVariantERK7QString
libKF5CoreAddons.so.5:_ZN14KPluginFactoryC2Ev
libKF5CoreAddons.so.5:_ZN14KPluginFactoryD2Ev
libKF5CoreAddons.so.5:_ZN5KUser8allUsersEj
libKF5CoreAddons.so.5:_ZN5KUserC1ENS_7UIDModeE
libKF5CoreAddons.so.5:_ZN5KUserC1ERKS_
libKF5CoreAddons.so.5:_ZN5KUserD1Ev
libKF5CoreAddons.so.5:_ZN8KProcess10setProgramERK7QStringRK11QStringList
libKF5CoreAddons.so.5:_ZN8KProcess20setOutputChannelModeENS_17OutputChannelModeE
libKF5CoreAddons.so.5:_ZN8KProcess5startEv
libKF5CoreAddons.so.5:_ZN8KProcessC1EP7QObject
libKF5CoreAddons.so.5:_ZNK13KPluginLoader11errorStringEv
libKF5CoreAddons.so.5:_ZNK13KPluginLoader8metaDataEv
libKF5CoreAddons.so.5:_ZNK5KUser6userIdEv
libKF5CoreAddons.so.5:_ZNK5KUser8propertyENS_12UserPropertyE
libKF5CoreAddons.so.5:_ZNK5KUser9loginNameEv
libKF5CoreAddons.so.5:_ZTI14KPluginFactory
libKF5DBusAddons.so.5:_ZN10KDEDModule11qt_metacallEN11QMetaObject4CallEiPPv
libKF5DBusAddons.so.5:_ZN10KDEDModule11qt_metacastEPKc
libKF5DBusAddons.so.5:_ZN10KDEDModule16moduleRegisteredERK15QDBusObjectPath
libKF5DBusAddons.so.5:_ZN10KDEDModule16staticMetaObjectE
libKF5DBusAddons.so.5:_ZN10KDEDModuleC2EP7QObject
libKF5DBusAddons.so.5:_ZN10KDEDModuleD2Ev
libKF5DBusAddons.so.5:_ZTI10KDEDModule
libKF5Declarative.so.5:_ZN12KDeclarative12KDeclarative11setupEngineEP10QQmlEngine
libKF5Declarative.so.5:_ZN12KDeclarative12KDeclarative12setupContextEv
libKF5Declarative.so.5:_ZN12KDeclarative12KDeclarative20setDeclarativeEngineEP10QQmlEngine
libKF5Declarative.so.5:_ZN12KDeclarative12KDeclarative20setTranslationDomainERK7QString
libKF5Declarative.so.5:_ZN12KDeclarative12KDeclarativeC1Ev
libKF5Declarative.so.5:_ZN12KDeclarative12KDeclarativeD1Ev
libKF5I18n.so.5:_Z6ki18ndPKcS0_
libKF5I18n.so.5:_Z7ki18ndcPKcS0_S0_
libKF5I18n.so.5:_Z8ki18ndcpPKcS0_S0_S0_
libKF5I18n.so.5:_ZN16KLocalizedStringD1Ev
libKF5I18n.so.5:_ZNK16KLocalizedString4subsERK7QStringi5QChar
libKF5I18n.so.5:_ZNK16KLocalizedString4subsEdici5QChar
libKF5I18n.so.5:_ZNK16KLocalizedString4subsEiii5QChar
libKF5I18n.so.5:_ZNK16KLocalizedString4subsEjii5QChar
libKF5I18n.so.5:_ZNK16KLocalizedString8toStringEv
libKF5KIOWidgets.so.5:_ZN13KUrlRequester11setStartDirERK4QUrl
libKF5KIOWidgets.so.5:_ZN13KUrlRequester11textChangedERK7QString
libKF5KIOWidgets.so.5:_ZN13KUrlRequester11urlSelectedERK4QUrl
libKF5KIOWidgets.so.5:_ZN13KUrlRequester16staticMetaObjectE
libKF5KIOWidgets.so.5:_ZN13KUrlRequester6setUrlERK4QUrl
libKF5KIOWidgets.so.5:_ZN13KUrlRequester7setTextERK7QString
libKF5KIOWidgets.so.5:_ZN13KUrlRequester9setFilterERK7QString
libKF5KIOWidgets.so.5:_ZN13KUrlRequesterC1EP7QWidget
libKF5KIOWidgets.so.5:_ZNK13KUrlRequester3urlEv
libKF5ModemManagerQt.so.6:_ZN12ModemManager12modemDevicesEv
libKF5ModemManagerQt.so.6:_ZN12ModemManager15findModemDeviceERK7QString
libKF5ModemManagerQt.so.6:_ZN12ModemManager3Sim7sendPinERK7QString
libKF5ModemManagerQt.so.6:_ZN12ModemManager3Sim7sendPukERK7QStringS3_
libKF5ModemManagerQt.so.6:_ZN12ModemManager5Modem16staticMetaObjectE
libKF5ModemManagerQt.so.6:_ZN12ModemManager5Modem19currentModesChangedENS_16CurrentModesTypeE
libKF5ModemManagerQt.so.6:_ZN12ModemManager5Modem20signalQualityChangedENS_17SignalQualityPairE
libKF5ModemManagerQt.so.6:_ZN12ModemManager5Modem21unlockRequiredChangedE11MMModemLock
libKF5ModemManagerQt.so.6:_ZN12ModemManager5Modem25accessTechnologiesChangedE6QFlagsI23MMModemAccessTechnologyE
libKF5ModemManagerQt.so.6:_ZN12ModemManager8Notifier10modemAddedERK7QString
libKF5ModemManagerQt.so.6:_ZN12ModemManager8Notifier12modemRemovedERK7QString
libKF5ModemManagerQt.so.6:_ZN12ModemManager8Notifier16staticMetaObjectE
libKF5ModemManagerQt.so.6:_ZN12ModemManager8notifierEv
libKF5ModemManagerQt.so.6:_ZN12ModemManager9Modem3gpp16staticMetaObjectE
libKF5ModemManagerQt.so.6:_ZN12ModemManager9ModemCdma16staticMetaObjectE
libKF5ModemManagerQt.so.6:_ZNK12ModemManager11ModemDevice12hasInterfaceENS0_13InterfaceTypeE
libKF5ModemManagerQt.so.6:_ZNK12ModemManager11ModemDevice3simEv
libKF5ModemManagerQt.so.6:_ZNK12ModemManager11ModemDevice3uniEv
libKF5ModemManagerQt.so.6:_ZNK12ModemManager11ModemDevice9interfaceENS0_13InterfaceTypeE
libKF5ModemManagerQt.so.6:_ZNK12ModemManager5Modem10powerStateEv
libKF5ModemManagerQt.so.6:_ZNK12ModemManager5Modem12manufacturerEv
libKF5ModemManagerQt.so.6:_ZNK12ModemManager5Modem13signalQualityEv
libKF5ModemManagerQt.so.6:_ZNK12ModemManager5Modem14unlockRequiredEv
libKF5ModemManagerQt.so.6:_ZNK12ModemManager5Modem18accessTechnologiesEv
libKF5ModemManagerQt.so.6:_ZNK12ModemManager5Modem3uniEv
libKF5ModemManagerQt.so.6:_ZNK12ModemManager5Modem5modelEv
libKF5ModemManagerQt.so.6:_ZNK12ModemManager5Modem6deviceEv
libKF5ModemManagerQt.so.6:_ZNK12ModemManager9Modem3gpp12operatorNameEv
libKF5ModemManagerQt.so.6:_ZNK12ModemManager9ModemCdma3nidEv
libKF5NetworkManagerQt.so.6:_ZN14NetworkManager10BondDevice16staticMetaObjectE
libKF5NetworkManagerQt.so.6:_ZN14NetworkManager10Connection16staticMetaObjectE
libKF5NetworkManagerQt.so.6:_ZN14NetworkManager10Connection6removeEv
libKF5NetworkManagerQt.so.6:_ZN14NetworkManager10Connection6updateERK4QMapI7QStringS1_IS2_8QVariantEE
libKF5NetworkManagerQt.so.6:_ZN14NetworkManager10Connection7secretsERK7QString
libKF5NetworkManagerQt.so.6:_ZN14NetworkManager10Connection7updatedEv
libKF5NetworkManagerQt.so.6:_ZN14NetworkManager10Connection8settingsEv
libKF5NetworkManagerQt.so.6:_ZN14NetworkManager10GsmSetting11setHomeOnlyEb
libKF5NetworkManagerQt.so.6:_ZN14NetworkManager10GsmSetting11setPasswordERK7QString
libKF5NetworkManagerQt.so.6:_ZN14NetworkManager10GsmSetting11setPinFlagsE6QFlagsINS_7Setting14SecretFlagTypeEE
libKF5NetworkManagerQt.so.6:_ZN14NetworkManager10GsmSetting11setUsernameERK7QString
libKF5NetworkManagerQt.so.6:_ZN14NetworkManager10GsmSetting12setNetworkIdERK7QString
libKF5NetworkManagerQt.so.6:_ZN14NetworkManager10GsmSetting16setPasswordFlagsE6QFlagsINS_7Setting14SecretFlagTypeEE
libKF5NetworkManagerQt.so.6:_ZN14NetworkManager10GsmSetting6setApnERK7QString
libKF5NetworkManagerQt.so.6:_ZN14NetworkManager10GsmSetting6setPinERK7QString
libKF5NetworkManagerQt.so.6:_ZN14NetworkManager10GsmSetting9setNumberERK7QString
libKF5NetworkManagerQt.so.6:_ZN14NetworkManager10GsmSettingC1Ev
libKF5NetworkManagerQt.so.6:_ZN14NetworkManager10GsmSettingD1Ev
libKF5NetworkManagerQt.so.6:_ZN14NetworkManager10PppSetting11setNoVjCompEb
libKF5NetworkManagerQt.so.6:_ZN14NetworkManager10PppSetting12setNoBsdCompEb
libKF5NetworkManagerQt.so.6:_ZN14NetworkManager10PppSetting12setNoDeflateEb
libKF5NetworkManagerQt.so.6:_ZN14NetworkManager10PppSetting12setRefuseEapEb
libKF5NetworkManagerQt.so.6:_ZN14NetworkManager10PppSetting12setRefusePapEb
libKF5NetworkManagerQt.so.6:_ZN14NetworkManager10PppSetting13setRefuseChapEb
libKF5NetworkManagerQt.so.6:_ZN14NetworkManager10PppSetting14setRequireMppeEb
libKF5NetworkManagerQt.so.6:_ZN14NetworkManager10PppSetting15setMppeStatefulEb
libKF5NetworkManagerQt.so.6:_ZN14NetworkManager10PppSetting15setRefuseMschapEb
libKF5NetworkManagerQt.so.6:_ZN14NetworkManager10PppSetting17setLcpEchoFailureEj
libKF5NetworkManagerQt.so.6:_ZN14NetworkManager10PppSetting17setRefuseMschapv2Eb
libKF5NetworkManagerQt.so.6:_ZN14NetworkManager10PppSetting17setRequireMppe128Eb
libKF5NetworkManagerQt.so.6:_ZN14NetworkManager10PppSetting18setLcpEchoIntervalEj
libKF5NetworkManagerQt.so.6:_ZN14NetworkManager10PppSettingC1Ev
libKF5NetworkManagerQt.so.6:_ZN14NetworkManager10PppSettingD1Ev
libKF5NetworkManagerQt.so.6:_ZN14NetworkManager10TeamDevice16staticMetaObjectE
libKF5NetworkManagerQt.so.6:_ZN14NetworkManager10VlanDevice16staticMetaObjectE
libKF5NetworkManagerQt.so.6:_ZN14NetworkManager10VpnSetting10setSecretsERK4QMapI7QStringS2_E
libKF5NetworkManagerQt.so.6:_ZN14NetworkManager10VpnSetting14setServiceTypeERK7QString
libKF5NetworkManagerQt.so.6:_ZN14NetworkManager10VpnSetting7setDataERK4QMapI7QStringS2_E
libKF5NetworkManagerQt.so.6:_ZN14NetworkManager10VpnSettingC1Ev
libKF5NetworkManagerQt.so.6:_ZN14NetworkManager10VpnSettingD1Ev
libKF5NetworkManagerQt.so.6:_ZN14NetworkManager11AccessPoint16staticMetaObjectE
libKF5NetworkManagerQt.so.6:_ZN14NetworkManager11AccessPoint21signalStrengthChangedEi
libKF5NetworkManagerQt.so.6:_ZN14NetworkManager11BondSetting10setOptionsERK4QMapI7QStringS2_E
libKF5NetworkManagerQt.so.6:_ZN14NetworkManager11BondSetting16setInterfaceNameERK7QString
libKF5NetworkManagerQt.so.6:_ZN14NetworkManager11BondSettingC1Ev
libKF5NetworkManagerQt.so.6:_ZN14NetworkManager11BondSettingD1Ev
libKF5NetworkManagerQt.so.6:_ZN14NetworkManager11CdmaSetting11setPasswordERK7QString
libKF5NetworkManagerQt.so.6:_ZN14NetworkManager11CdmaSetting11setUsernameERK7QString
libKF5NetworkManagerQt.so.6:_ZN14NetworkManager11CdmaSetting16setPasswordFlagsE6QFlagsINS_7Setting14SecretFlagTypeEE
libKF5NetworkManagerQt.so.6:_ZN14NetworkManager11CdmaSetting9setNumberERK7QString
libKF5NetworkManagerQt.so.6:_ZN14NetworkManager11CdmaSettingC1Ev
libKF5NetworkManagerQt.so.6:_ZN14NetworkManager11CdmaSettingD1Ev
libKF5NetworkManagerQt.so.6:_ZN14NetworkManager11Ipv4Setting10setMayFailEb
libKF5NetworkManagerQt.so.6:_ZN14NetworkManager11Ipv4Setting12setAddressesERK5QListINS_9IpAddressEE
libKF5NetworkManagerQt.so.6:_ZN14NetworkManager11Ipv4Setting12setDnsSearchERK11QStringList
libKF5NetworkManagerQt.so.6:_ZN14NetworkManager11Ipv4Setting13setDadTimeoutEi
libKF5NetworkManagerQt.so.6:_ZN14NetworkManager11Ipv4Setting14setRouteMetricEi
libKF5NetworkManagerQt.so.6:_ZN14NetworkManager11Ipv4Setting15setDhcpClientIdERK7QString
libKF5NetworkManagerQt.so.6:_ZN14NetworkManager11Ipv4Setting15setDhcpHostnameERK7QString
libKF5NetworkManagerQt.so.6:_ZN14NetworkManager11Ipv4Setting15setNeverDefaultEb
libKF5NetworkManagerQt.so.6:_ZN14NetworkManager11Ipv4Setting16setIgnoreAutoDnsEb
libKF5NetworkManagerQt.so.6:_ZN14NetworkManager11Ipv4Setting19setDhcpSendHostnameEb
libKF5NetworkManagerQt.so.6:_ZN14NetworkManager11Ipv4Setting19setIgnoreAutoRoutesEb
libKF5NetworkManagerQt.so.6:_ZN14NetworkManager11Ipv4Setting6setDnsERK5QListI12QHostAddressE
libKF5NetworkManagerQt.so.6:_ZN14NetworkManager11Ipv4Setting9setMethodENS0_12ConfigMethodE
libKF5NetworkManagerQt.so.6:_ZN14NetworkManager11Ipv4Setting9setRoutesERK5QListINS_7IpRouteEE
libKF5NetworkManagerQt.so.6:_ZN14NetworkManager11Ipv4SettingC1Ev
libKF5NetworkManagerQt.so.6:_ZN14NetworkManager11Ipv4SettingD1Ev
libKF5NetworkManagerQt.so.6:_ZN14NetworkManager11Ipv6Setting10setMayFailEb
libKF5NetworkManagerQt.so.6:_ZN14NetworkManager11Ipv6Setting10setPrivacyENS0_11IPv6PrivacyE
libKF5NetworkManagerQt.so.6:_ZN14NetworkManager11Ipv6Setting12setAddressesE5QListINS_9IpAddressEE
libKF5NetworkManagerQt.so.6:_ZN14NetworkManager11Ipv6Setting12setDnsSearchERK11QStringList
libKF5NetworkManagerQt.so.6:_ZN14NetworkManager11Ipv6Setting14setRouteMetricEi
libKF5NetworkManagerQt.so.6:_ZN14NetworkManager11Ipv6Setting15setNeverDefaultEb
libKF5NetworkManagerQt.so.6:_ZN14NetworkManager11Ipv6Setting16setIgnoreAutoDnsEb
libKF5NetworkManagerQt.so.6:_ZN14NetworkManager11Ipv6Setting19setIgnoreAutoRoutesEb
libKF5NetworkManagerQt.so.6:_ZN14NetworkManager11Ipv6Setting6setDnsERK5QListI12QHostAddressE
libKF5NetworkManagerQt.so.6:_ZN14NetworkManager11Ipv6Setting9setMethodENS0_12ConfigMethodE
libKF5NetworkManagerQt.so.6:_ZN14NetworkManager11Ipv6Setting9setRoutesE5QListINS_7IpRouteEE
libKF5NetworkManagerQt.so.6:_ZN14NetworkManager11Ipv6SettingC1Ev
libKF5NetworkManagerQt.so.6:_ZN14NetworkManager11Ipv6SettingD1Ev
libKF5NetworkManagerQt.so.6:_ZN14NetworkManager11ModemDevice16staticMetaObjectE
libKF5NetworkManagerQt.so.6:_ZN14NetworkManager11SecretAgent11qt_metacallEN11QMetaObject4CallEiPPv
libKF5NetworkManagerQt.so.6:_ZN14NetworkManager11SecretAgent11qt_metacastEPKc
libKF5NetworkManagerQt.so.6:_ZN14NetworkManager11SecretAgent16staticMetaObjectE
libKF5NetworkManagerQt.so.6:_ZN14NetworkManager11SecretAgentC2ERK7QString6QFlagsINS0_10CapabilityEEP7QObject
libKF5NetworkManagerQt.so.6:_ZN14NetworkManager11SecretAgentD2Ev
libKF5NetworkManagerQt.so.6:_ZN14NetworkManager11TeamSetting16setInterfaceNameERK7QString
libKF5NetworkManagerQt.so.6:_ZN14NetworkManager11TeamSetting9setConfigERK7QString
libKF5NetworkManagerQt.so.6:_ZN14NetworkManager11TeamSettingC1Ev
libKF5NetworkManagerQt.so.6:_ZN14NetworkManager11TeamSettingD1Ev
libKF5NetworkManagerQt.so.6:_ZN14NetworkManager11VlanSetting16setInterfaceNameERK7QString
libKF5NetworkManagerQt.so.6:_ZN14NetworkManager11VlanSetting5setIdEj
libKF5NetworkManagerQt.so.6:_ZN14NetworkManager11VlanSetting8setFlagsE6QFlagsINS0_4FlagEE
libKF5NetworkManagerQt.so.6:_ZN14NetworkManager11VlanSetting9setParentERK7QString
libKF5NetworkManagerQt.so.6:_ZN14NetworkManager11VlanSettingC1Ev
libKF5NetworkManagerQt.so.6:_ZN14NetworkManager11VlanSettingD1Ev
libKF5NetworkManagerQt.so.6:_ZN14NetworkManager11WiredDevice14carrierChangedEb
libKF5NetworkManagerQt.so.6:_ZN14NetworkManager11WiredDevice16staticMetaObjectE
libKF5NetworkManagerQt.so.6:_ZN14NetworkManager11findChannelEi
libKF5NetworkManagerQt.so.6:_ZN14NetworkManager12BridgeDevice16staticMetaObjectE
libKF5NetworkManagerQt.so.6:_ZN14NetworkManager12PppoeSetting10setServiceERK7QString
libKF5NetworkManagerQt.so.6:_ZN14NetworkManager12PppoeSetting11setPasswordERK7QString
libKF5NetworkManagerQt.so.6:_ZN14NetworkManager12PppoeSetting11setUsernameERK7QString
libKF5NetworkManagerQt.so.6:_ZN14NetworkManager12PppoeSetting16setPasswordFlagsE6QFlagsINS_7Setting14SecretFlagTypeEE
libKF5NetworkManagerQt.so.6:_ZN14NetworkManager12PppoeSettingC1Ev
libKF5NetworkManagerQt.so.6:_ZN14NetworkManager12PppoeSettingD1Ev
libKF5NetworkManagerQt.so.6:_ZN14NetworkManager12WiredSetting13setDuplexTypeENS0_10DuplexTypeE
libKF5NetworkManagerQt.so.6:_ZN14NetworkManager12WiredSetting13setMacAddressERK10QByteArray
libKF5NetworkManagerQt.so.6:_ZN14NetworkManager12WiredSetting16setAutoNegotiateEb
libKF5NetworkManagerQt.so.6:_ZN14NetworkManager12WiredSetting19setClonedMacAddressERK10QByteArray
libKF5NetworkManagerQt.so.6:_ZN14NetworkManager12WiredSetting6setMtuEj
libKF5NetworkManagerQt.so.6:_ZN14NetworkManager12WiredSetting8setSpeedEj
libKF5NetworkManagerQt.so.6:_ZN14NetworkManager12WiredSettingC1Ev
libKF5NetworkManagerQt.so.6:_ZN14NetworkManager12WiredSettingD1Ev
libKF5NetworkManagerQt.so.6:_ZN14NetworkManager12checkVersionEiii
libKF5NetworkManagerQt.so.6:_ZN14NetworkManager12connectivityEv
libKF5NetworkManagerQt.so.6:_ZN14NetworkManager13BridgeSetting11setPriorityEj
libKF5NetworkManagerQt.so.6:_ZN14NetworkManager13BridgeSetting12setAgingTimeEj
libKF5NetworkManagerQt.so.6:_ZN14NetworkManager13BridgeSetting12setHelloTimeEj
libKF5NetworkManagerQt.so.6:_ZN14NetworkManager13BridgeSetting15setForwardDelayEj
libKF5NetworkManagerQt.so.6:_ZN14NetworkManager13BridgeSetting16setInterfaceNameERK7QString
libKF5NetworkManagerQt.so.6:_ZN14NetworkManager13BridgeSetting6setStpEb
libKF5NetworkManagerQt.so.6:_ZN14NetworkManager13BridgeSetting9setMaxAgeEj
libKF5NetworkManagerQt.so.6:_ZN14NetworkManager13BridgeSettingC1Ev
libKF5NetworkManagerQt.so.6:_ZN14NetworkManager13BridgeSettingD1Ev
libKF5NetworkManagerQt.so.6:_ZN14NetworkManager13VpnConnection12stateChangedENS0_5StateENS0_17StateChangeReasonE
libKF5NetworkManagerQt.so.6:_ZN14NetworkManager13VpnConnection16staticMetaObjectE
libKF5NetworkManagerQt.so.6:_ZN14NetworkManager13VpnConnectionC1ERK7QStringP7QObject
libKF5NetworkManagerQt.so.6:_ZN14NetworkManager13addConnectionERK4QMapI7QStringS0_IS1_8QVariantEE
libKF5NetworkManagerQt.so.6:_ZN14NetworkManager13isWwanEnabledEv
libKF5NetworkManagerQt.so.6:_ZN14NetworkManager13wepKeyIsValidERK7QStringNS_23WirelessSecuritySetting10WepKeyTypeE
libKF5NetworkManagerQt.so.6:_ZN14NetworkManager13wpaPskIsValidERK7QString
libKF5NetworkManagerQt.so.6:_ZN14NetworkManager14OlpcMeshDevice16staticMetaObjectE
libKF5NetworkManagerQt.so.6:_ZN14NetworkManager14WirelessDevice11requestScanERK4QMapI7QString8QVariantE
libKF5NetworkManagerQt.so.6:_ZN14NetworkManager14WirelessDevice15findAccessPointERK7QString
libKF5NetworkManagerQt.so.6:_ZN14NetworkManager14WirelessDevice15networkAppearedERK7QString
libKF5NetworkManagerQt.so.6:_ZN14NetworkManager14WirelessDevice16staticMetaObjectE
libKF5NetworkManagerQt.so.6:_ZN14NetworkManager14WirelessDevice18networkDisappearedERK7QString
libKF5NetworkManagerQt.so.6:_ZN14NetworkManager14compareVersionEiii
libKF5NetworkManagerQt.so.6:_ZN14NetworkManager14findConnectionERK7QString
libKF5NetworkManagerQt.so.6:_ZN14NetworkManager14setWwanEnabledEb
libKF5NetworkManagerQt.so.6:_ZN14NetworkManager15BluetoothDevice16staticMetaObjectE
libKF5NetworkManagerQt.so.6:_ZN14NetworkManager15WirelessNetwork16staticMetaObjectE
libKF5NetworkManagerQt.so.6:_ZN14NetworkManager15WirelessNetwork21signalStrengthChangedEi
libKF5NetworkManagerQt.so.6:_ZN14NetworkManager15WirelessNetwork27referenceAccessPointChangedERK7QString
libKF5NetworkManagerQt.so.6:_ZN14NetworkManager15WirelessSetting10setChannelEj
libKF5NetworkManagerQt.so.6:_ZN14NetworkManager15WirelessSetting11setSecurityERK7QString
libKF5NetworkManagerQt.so.6:_ZN14NetworkManager15WirelessSetting13setMacAddressERK10QByteArray
libKF5NetworkManagerQt.so.6:_ZN14NetworkManager15WirelessSetting19setClonedMacAddressERK10QByteArray
libKF5NetworkManagerQt.so.6:_ZN14NetworkManager15WirelessSetting6setMtuEj
libKF5NetworkManagerQt.so.6:_ZN14NetworkManager15WirelessSetting7setBandENS0_13FrequencyBandE
libKF5NetworkManagerQt.so.6:_ZN14NetworkManager15WirelessSetting7setModeENS0_11NetworkModeE
libKF5NetworkManagerQt.so.6:_ZN14NetworkManager15WirelessSetting7setSsidERK10QByteArray
libKF5NetworkManagerQt.so.6:_ZN14NetworkManager15WirelessSetting8setBssidERK10QByteArray
libKF5NetworkManagerQt.so.6:_ZN14NetworkManager15WirelessSetting9setHiddenEb
libKF5NetworkManagerQt.so.6:_ZN14NetworkManager15WirelessSettingC1Ev
libKF5NetworkManagerQt.so.6:_ZN14NetworkManager15WirelessSettingD1Ev
libKF5NetworkManagerQt.so.6:_ZN14NetworkManager15listConnectionsEv
libKF5NetworkManagerQt.so.6:_ZN14NetworkManager16ActiveConnection12stateChangedENS0_5StateE
libKF5NetworkManagerQt.so.6:_ZN14NetworkManager16ActiveConnection15default4ChangedEb
libKF5NetworkManagerQt.so.6:_ZN14NetworkManager16ActiveConnection15default6ChangedEb
libKF5NetworkManagerQt.so.6:_ZN14NetworkManager16ActiveConnection16staticMetaObjectE
libKF5NetworkManagerQt.so.6:_ZN14NetworkManager16BluetoothSetting14setProfileTypeENS0_11ProfileTypeE
libKF5NetworkManagerQt.so.6:_ZN14NetworkManager16BluetoothSetting19setBluetoothAddressERK10QByteArray
libKF5NetworkManagerQt.so.6:_ZN14NetworkManager16BluetoothSettingC1Ev
libKF5NetworkManagerQt.so.6:_ZN14NetworkManager16BluetoothSettingD1Ev
libKF5NetworkManagerQt.so.6:_ZN14NetworkManager16DeviceStatistics14rxBytesChangedEy
libKF5NetworkManagerQt.so.6:_ZN14NetworkManager16DeviceStatistics14txBytesChangedEy
libKF5NetworkManagerQt.so.6:_ZN14NetworkManager16DeviceStatistics16setRefreshRateMsEj
libKF5NetworkManagerQt.so.6:_ZN14NetworkManager16DeviceStatistics16staticMetaObjectE
libKF5NetworkManagerQt.so.6:_ZN14NetworkManager16InfinibandDevice16staticMetaObjectE
libKF5NetworkManagerQt.so.6:_ZN14NetworkManager16SettingsNotifier15connectionAddedERK7QString
libKF5NetworkManagerQt.so.6:_ZN14NetworkManager16SettingsNotifier16staticMetaObjectE
libKF5NetworkManagerQt.so.6:_ZN14NetworkManager16SettingsNotifier17connectionRemovedERK7QString
libKF5NetworkManagerQt.so.6:_ZN14NetworkManager16WireGuardSetting13setListenPortEj
libKF5NetworkManagerQt.so.6:_ZN14NetworkManager16WireGuardSetting13setPeerRoutesEb
libKF5NetworkManagerQt.so.6:_ZN14NetworkManager16WireGuardSetting13setPrivateKeyERK7QString
libKF5NetworkManagerQt.so.6:_ZN14NetworkManager16WireGuardSetting18setPrivateKeyFlagsE6QFlagsINS_7Setting14SecretFlagTypeEE
libKF5NetworkManagerQt.so.6:_ZN14NetworkManager16WireGuardSetting6setMtuEj
libKF5NetworkManagerQt.so.6:_ZN14NetworkManager16WireGuardSetting8setPeersERK5QListI4QMapI7QString8QVariantEE
libKF5NetworkManagerQt.so.6:_ZN14NetworkManager16WireGuardSetting9setFwmarkEj
libKF5NetworkManagerQt.so.6:_ZN14NetworkManager16WireGuardSettingC1Ev
libKF5NetworkManagerQt.so.6:_ZN14NetworkManager16WireGuardSettingD1Ev
libKF5NetworkManagerQt.so.6:_ZN14NetworkManager16settingsNotifierEv
libKF5NetworkManagerQt.so.6:_ZN14NetworkManager17InfinibandSetting13setMacAddressERK10QByteArray
libKF5NetworkManagerQt.so.6:_ZN14NetworkManager17InfinibandSetting16setTransportModeENS0_13TransportModeE
libKF5NetworkManagerQt.so.6:_ZN14NetworkManager17InfinibandSetting6setMtuEj
libKF5NetworkManagerQt.so.6:_ZN14NetworkManager17InfinibandSettingC1Ev
libKF5NetworkManagerQt.so.6:_ZN14NetworkManager17InfinibandSettingD1Ev
libKF5NetworkManagerQt.so.6:_ZN14NetworkManager17activeConnectionsEv
libKF5NetworkManagerQt.so.6:_ZN14NetworkManager17checkConnectivityEv
libKF5NetworkManagerQt.so.6:_ZN14NetworkManager17isWirelessEnabledEv
libKF5NetworkManagerQt.so.6:_ZN14NetworkManager17macAddressIsValidERK7QString
libKF5NetworkManagerQt.so.6:_ZN14NetworkManager17networkInterfacesEv
libKF5NetworkManagerQt.so.6:_ZN14NetworkManager17primaryConnectionEv
libKF5NetworkManagerQt.so.6:_ZN14NetworkManager18ConnectionSettings10setMeteredENS0_7MeteredE
libKF5NetworkManagerQt.so.6:_ZN14NetworkManager18ConnectionSettings12setSlaveTypeERK7QString
libKF5NetworkManagerQt.so.6:_ZN14NetworkManager18ConnectionSettings12typeAsStringENS0_14ConnectionTypeE
libKF5NetworkManagerQt.so.6:_ZN14NetworkManager18ConnectionSettings13createNewUuidEv
libKF5NetworkManagerQt.so.6:_ZN14NetworkManager18ConnectionSettings14setAutoconnectEb
libKF5NetworkManagerQt.so.6:_ZN14NetworkManager18ConnectionSettings14setPermissionsERK5QHashI7QStringS2_E
libKF5NetworkManagerQt.so.6:_ZN14NetworkManager18ConnectionSettings14setSecondariesERK11QStringList
libKF5NetworkManagerQt.so.6:_ZN14NetworkManager18ConnectionSettings16addToPermissionsERK7QStringS3_
libKF5NetworkManagerQt.so.6:_ZN14NetworkManager18ConnectionSettings16setInterfaceNameERK7QString
libKF5NetworkManagerQt.so.6:_ZN14NetworkManager18ConnectionSettings17setConnectionTypeENS0_14ConnectionTypeE23NMBluetoothCapabilities
libKF5NetworkManagerQt.so.6:_ZN14NetworkManager18ConnectionSettings22setAutoconnectPriorityEi
libKF5NetworkManagerQt.so.6:_ZN14NetworkManager18ConnectionSettings5setIdERK7QString
libKF5NetworkManagerQt.so.6:_ZN14NetworkManager18ConnectionSettings7fromMapERK4QMapI7QStringS1_IS2_8QVariantEE
libKF5NetworkManagerQt.so.6:_ZN14NetworkManager18ConnectionSettings7setUuidERK7QString
libKF5NetworkManagerQt.so.6:_ZN14NetworkManager18ConnectionSettings7setZoneERK7QString
libKF5NetworkManagerQt.so.6:_ZN14NetworkManager18ConnectionSettings9setMasterERK7QString
libKF5NetworkManagerQt.so.6:_ZN14NetworkManager18ConnectionSettingsC1ENS0_14ConnectionTypeE23NMBluetoothCapabilities
libKF5NetworkManagerQt.so.6:_ZN14NetworkManager18ConnectionSettingsC1ERK4QMapI7QStringS1_IS2_8QVariantEE
libKF5NetworkManagerQt.so.6:_ZN14NetworkManager18ConnectionSettingsC1Ev
libKF5NetworkManagerQt.so.6:_ZN14NetworkManager18ConnectionSettingsD1Ev
libKF5NetworkManagerQt.so.6:_ZN14NetworkManager18activateConnectionERK7QStringS2_S2_
libKF5NetworkManagerQt.so.6:_ZN14NetworkManager18macAddressAsStringERK10QByteArray
libKF5NetworkManagerQt.so.6:_ZN14NetworkManager18setWirelessEnabledEb
libKF5NetworkManagerQt.so.6:_ZN14NetworkManager19isNetworkingEnabledEv
libKF5NetworkManagerQt.so.6:_ZN14NetworkManager20Security8021xSetting10setPacFileERK7QString
libKF5NetworkManagerQt.so.6:_ZN14NetworkManager20Security8021xSetting11setIdentityERK7QString
libKF5NetworkManagerQt.so.6:_ZN14NetworkManager20Security8021xSetting11setPasswordERK7QString
libKF5NetworkManagerQt.so.6:_ZN14NetworkManager20Security8021xSetting13setEapMethodsERK5QListINS0_9EapMethodEE
libKF5NetworkManagerQt.so.6:_ZN14NetworkManager20Security8021xSetting13setPrivateKeyERK10QByteArray
libKF5NetworkManagerQt.so.6:_ZN14NetworkManager20Security8021xSetting15setSubjectMatchERK7QString
libKF5NetworkManagerQt.so.6:_ZN14NetworkManager20Security8021xSetting16setCaCertificateERK10QByteArray
libKF5NetworkManagerQt.so.6:_ZN14NetworkManager20Security8021xSetting16setPasswordFlagsE6QFlagsINS_7Setting14SecretFlagTypeEE
libKF5NetworkManagerQt.so.6:_ZN14NetworkManager20Security8021xSetting19setPhase2AuthMethodENS0_10AuthMethodE
libKF5NetworkManagerQt.so.6:_ZN14NetworkManager20Security8021xSetting20setAltSubjectMatchesERK11QStringList
libKF5NetworkManagerQt.so.6:_ZN14NetworkManager20Security8021xSetting20setAnonymousIdentityERK7QString
libKF5NetworkManagerQt.so.6:_ZN14NetworkManager20Security8021xSetting20setClientCertificateERK10QByteArray
libKF5NetworkManagerQt.so.6:_ZN14NetworkManager20Security8021xSetting20setDomainSuffixMatchERK7QString
libKF5NetworkManagerQt.so.6:_ZN14NetworkManager20Security8021xSetting20setPhase1PeapVersionENS0_11PeapVersionE
libKF5NetworkManagerQt.so.6:_ZN14NetworkManager20Security8021xSetting21setPrivateKeyPasswordERK7QString
libKF5NetworkManagerQt.so.6:_ZN14NetworkManager20Security8021xSetting25setPhase1FastProvisioningENS0_16FastProvisioningE
libKF5NetworkManagerQt.so.6:_ZN14NetworkManager20Security8021xSetting26setPrivateKeyPasswordFlagsE6QFlagsINS_7Setting14SecretFlagTypeEE
libKF5NetworkManagerQt.so.6:_ZN14NetworkManager20Security8021xSettingC1Ev
libKF5NetworkManagerQt.so.6:_ZN14NetworkManager20Security8021xSettingD1Ev
libKF5NetworkManagerQt.so.6:_ZN14NetworkManager20activatingConnectionEv
libKF5NetworkManagerQt.so.6:_ZN14NetworkManager20deactivateConnectionERK7QString
libKF5NetworkManagerQt.so.6:_ZN14NetworkManager20findActiveConnectionERK7QString
libKF5NetworkManagerQt.so.6:_ZN14NetworkManager20findConnectionByUuidERK7QString
libKF5NetworkManagerQt.so.6:_ZN14NetworkManager20findNetworkInterfaceERK7QString
libKF5NetworkManagerQt.so.6:_ZN14NetworkManager20macAddressFromStringERK7QString
libKF5NetworkManagerQt.so.6:_ZN14NetworkManager20setNetworkingEnabledEb
libKF5NetworkManagerQt.so.6:_ZN14NetworkManager21isWwanHardwareEnabledEv
libKF5NetworkManagerQt.so.6:_ZN14NetworkManager21primaryConnectionTypeEv
libKF5NetworkManagerQt.so.6:_ZN14NetworkManager23WirelessSecuritySetting10setAuthAlgENS0_7AuthAlgE
libKF5NetworkManagerQt.so.6:_ZN14NetworkManager23WirelessSecuritySetting10setKeyMgmtENS0_7KeyMgmtE
libKF5NetworkManagerQt.so.6:_ZN14NetworkManager23WirelessSecuritySetting10setWepKey0E7QString
libKF5NetworkManagerQt.so.6:_ZN14NetworkManager23WirelessSecuritySetting10setWepKey1E7QString
libKF5NetworkManagerQt.so.6:_ZN14NetworkManager23WirelessSecuritySetting10setWepKey2E7QString
libKF5NetworkManagerQt.so.6:_ZN14NetworkManager23WirelessSecuritySetting10setWepKey3E7QString
libKF5NetworkManagerQt.so.6:_ZN14NetworkManager23WirelessSecuritySetting11setPairwiseERK5QListINS0_25WpaEncryptionCapabilitiesEE
libKF5NetworkManagerQt.so.6:_ZN14NetworkManager23WirelessSecuritySetting11setPskFlagsE6QFlagsINS_7Setting14SecretFlagTypeEE
libKF5NetworkManagerQt.so.6:_ZN14NetworkManager23WirelessSecuritySetting13setWepKeyTypeENS0_10WepKeyTypeE
libKF5NetworkManagerQt.so.6:_ZN14NetworkManager23WirelessSecuritySetting14setWepKeyFlagsE6QFlagsINS_7Setting14SecretFlagTypeEE
libKF5NetworkManagerQt.so.6:_ZN14NetworkManager23WirelessSecuritySetting15setLeapPasswordERK7QString
libKF5NetworkManagerQt.so.6:_ZN14NetworkManager23WirelessSecuritySetting15setLeapUsernameERK7QString
libKF5NetworkManagerQt.so.6:_ZN14NetworkManager23WirelessSecuritySetting16setWepTxKeyindexEj
libKF5NetworkManagerQt.so.6:_ZN14NetworkManager23WirelessSecuritySetting20setLeapPasswordFlagsE6QFlagsINS_7Setting14SecretFlagTypeEE
libKF5NetworkManagerQt.so.6:_ZN14NetworkManager23WirelessSecuritySetting6setPskERK7QString
libKF5NetworkManagerQt.so.6:_ZN14NetworkManager23WirelessSecuritySetting8setGroupERK5QListINS0_25WpaEncryptionCapabilitiesEE
libKF5NetworkManagerQt.so.6:_ZN14NetworkManager23WirelessSecuritySetting8setProtoERK5QListINS0_18WpaProtocolVersionEE
libKF5NetworkManagerQt.so.6:_ZN14NetworkManager23WirelessSecuritySettingC1Ev
libKF5NetworkManagerQt.so.6:_ZN14NetworkManager23WirelessSecuritySettingD1Ev
libKF5NetworkManagerQt.so.6:_ZN14NetworkManager24addAndActivateConnectionERK4QMapI7QStringS0_IS1_8QVariantEERKS1_S8_
libKF5NetworkManagerQt.so.6:_ZN14NetworkManager24findBestWirelessSecurityE6QFlagsINS_14WirelessDevice10CapabilityEEbbS0_INS_11AccessPoint10CapabilityEES0_INS4_7WpaFlagEES8_
libKF5NetworkManagerQt.so.6:_ZN14NetworkManager25addAndActivateConnection2ERK4QMapI7QStringS0_IS1_8QVariantEERKS1_S8_RKS3_
libKF5NetworkManagerQt.so.6:_ZN14NetworkManager25isWirelessHardwareEnabledEv
libKF5NetworkManagerQt.so.6:_ZN14NetworkManager33securityTypeFromConnectionSettingERK14QSharedPointerINS_18ConnectionSettingsEE
libKF5NetworkManagerQt.so.6:_ZN14NetworkManager6Device12stateChangedENS0_5StateES1_NS0_17StateChangeReasonE
libKF5NetworkManagerQt.so.6:_ZN14NetworkManager6Device16staticMetaObjectE
libKF5NetworkManagerQt.so.6:_ZN14NetworkManager6Device17ipV4ConfigChangedEv
libKF5NetworkManagerQt.so.6:_ZN14NetworkManager6Device17ipV6ConfigChangedEv
libKF5NetworkManagerQt.so.6:_ZN14NetworkManager6Device18ipInterfaceChangedEv
libKF5NetworkManagerQt.so.6:_ZN14NetworkManager6Device19disconnectInterfaceEv
libKF5NetworkManagerQt.so.6:_ZN14NetworkManager6Device20availableConnectionsEv
libKF5NetworkManagerQt.so.6:_ZN14NetworkManager6Device27availableConnectionAppearedERK7QString
libKF5NetworkManagerQt.so.6:_ZN14NetworkManager6Device30availableConnectionDisappearedERK7QString
libKF5NetworkManagerQt.so.6:_ZN14NetworkManager6statusEv
libKF5NetworkManagerQt.so.6:_ZN14NetworkManager7IpRoute9setMetricEj
libKF5NetworkManagerQt.so.6:_ZN14NetworkManager7IpRouteC1ERKS0_
libKF5NetworkManagerQt.so.6:_ZN14NetworkManager7IpRouteC1Ev
libKF5NetworkManagerQt.so.6:_ZN14NetworkManager7IpRouteD1Ev
libKF5NetworkManagerQt.so.6:_ZN14NetworkManager7Setting12typeAsStringENS0_11SettingTypeE
libKF5NetworkManagerQt.so.6:_ZN14NetworkManager7Setting14setInitializedEb
libKF5NetworkManagerQt.so.6:_ZN14NetworkManager7Setting14typeFromStringERK7QString
libKF5NetworkManagerQt.so.6:_ZN14NetworkManager7versionEv
libKF5NetworkManagerQt.so.6:_ZN14NetworkManager8IpConfigD1Ev
libKF5NetworkManagerQt.so.6:_ZN14NetworkManager8Notifier11deviceAddedERK7QString
libKF5NetworkManagerQt.so.6:_ZN14NetworkManager8Notifier13deviceRemovedERK7QString
libKF5NetworkManagerQt.so.6:_ZN14NetworkManager8Notifier13statusChangedENS_6StatusE
libKF5NetworkManagerQt.so.6:_ZN14NetworkManager8Notifier16staticMetaObjectE
libKF5NetworkManagerQt.so.6:_ZN14NetworkManager8Notifier18serviceDisappearedEv
libKF5NetworkManagerQt.so.6:_ZN14NetworkManager8Notifier18wwanEnabledChangedEb
libKF5NetworkManagerQt.so.6:_ZN14NetworkManager8Notifier19connectivityChangedENS_12ConnectivityE
libKF5NetworkManagerQt.so.6:_ZN14NetworkManager8Notifier21activeConnectionAddedERK7QString
libKF5NetworkManagerQt.so.6:_ZN14NetworkManager8Notifier22wirelessEnabledChangedEb
libKF5NetworkManagerQt.so.6:_ZN14NetworkManager8Notifier23activeConnectionRemovedERK7QString
libKF5NetworkManagerQt.so.6:_ZN14NetworkManager8Notifier24activeConnectionsChangedEv
libKF5NetworkManagerQt.so.6:_ZN14NetworkManager8Notifier24networkingEnabledChangedEb
libKF5NetworkManagerQt.so.6:_ZN14NetworkManager8Notifier24primaryConnectionChangedERK7QString
libKF5NetworkManagerQt.so.6:_ZN14NetworkManager8Notifier26wwanHardwareEnabledChangedEb
libKF5NetworkManagerQt.so.6:_ZN14NetworkManager8Notifier27activatingConnectionChangedERK7QString
libKF5NetworkManagerQt.so.6:_ZN14NetworkManager8Notifier28primaryConnectionTypeChangedENS_18ConnectionSettings14ConnectionTypeE
libKF5NetworkManagerQt.so.6:_ZN14NetworkManager8Notifier30wirelessHardwareEnabledChangedEb
libKF5NetworkManagerQt.so.6:_ZN14NetworkManager8notifierEv
libKF5NetworkManagerQt.so.6:_ZN14NetworkManager9IpAddress10setGatewayERK12QHostAddress
libKF5NetworkManagerQt.so.6:_ZN14NetworkManager9IpAddressC1ERKS0_
libKF5NetworkManagerQt.so.6:_ZN14NetworkManager9IpAddressC1Ev
libKF5NetworkManagerQt.so.6:_ZN14NetworkManager9IpAddressD1Ev
libKF5NetworkManagerQt.so.6:_ZN14NetworkManager9getAFreqsEv
libKF5NetworkManagerQt.so.6:_ZN14NetworkManager9getBFreqsEv
libKF5NetworkManagerQt.so.6:_ZN14NetworkManagerlsE6QDebugRKNS_18ConnectionSettingsE
libKF5NetworkManagerQt.so.6:_ZNK14NetworkManager10BondDevice9hwAddressEv
libKF5NetworkManagerQt.so.6:_ZNK14NetworkManager10Connection4nameEv
libKF5NetworkManagerQt.so.6:_ZNK14NetworkManager10Connection4pathEv
libKF5NetworkManagerQt.so.6:_ZNK14NetworkManager10Connection4uuidEv
libKF5NetworkManagerQt.so.6:_ZNK14NetworkManager10Connection7isValidEv
libKF5NetworkManagerQt.so.6:_ZNK14NetworkManager10GsmSetting13passwordFlagsEv
libKF5NetworkManagerQt.so.6:_ZNK14NetworkManager10GsmSetting3apnEv
libKF5NetworkManagerQt.so.6:_ZNK14NetworkManager10GsmSetting3pinEv
libKF5NetworkManagerQt.so.6:_ZNK14NetworkManager10GsmSetting5toMapEv
libKF5NetworkManagerQt.so.6:_ZNK14NetworkManager10GsmSetting6numberEv
libKF5NetworkManagerQt.so.6:_ZNK14NetworkManager10GsmSetting8homeOnlyEv
libKF5NetworkManagerQt.so.6:_ZNK14NetworkManager10GsmSetting8passwordEv
libKF5NetworkManagerQt.so.6:_ZNK14NetworkManager10GsmSetting8pinFlagsEv
libKF5NetworkManagerQt.so.6:_ZNK14NetworkManager10GsmSetting8usernameEv
libKF5NetworkManagerQt.so.6:_ZNK14NetworkManager10GsmSetting9networkIdEv
libKF5NetworkManagerQt.so.6:_ZNK14NetworkManager10PppSetting10refuseChapEv
libKF5NetworkManagerQt.so.6:_ZNK14NetworkManager10PppSetting11requireMppeEv
libKF5NetworkManagerQt.so.6:_ZNK14NetworkManager10PppSetting12mppeStatefulEv
libKF5NetworkManagerQt.so.6:_ZNK14NetworkManager10PppSetting12refuseMschapEv
libKF5NetworkManagerQt.so.6:_ZNK14NetworkManager10PppSetting14refuseMschapv2Ev
libKF5NetworkManagerQt.so.6:_ZNK14NetworkManager10PppSetting14requireMppe128Ev
libKF5NetworkManagerQt.so.6:_ZNK14NetworkManager10PppSetting15lcpEchoIntervalEv
libKF5NetworkManagerQt.so.6:_ZNK14NetworkManager10PppSetting5toMapEv
libKF5NetworkManagerQt.so.6:_ZNK14NetworkManager10PppSetting8noVjCompEv
libKF5NetworkManagerQt.so.6:_ZNK14NetworkManager10PppSetting9noBsdCompEv
libKF5NetworkManagerQt.so.6:_ZNK14NetworkManager10PppSetting9noDeflateEv
libKF5NetworkManagerQt.so.6:_ZNK14NetworkManager10PppSetting9refuseEapEv
libKF5NetworkManagerQt.so.6:_ZNK14NetworkManager10PppSetting9refusePapEv
libKF5NetworkManagerQt.so.6:_ZNK14NetworkManager10TeamDevice9hwAddressEv
libKF5NetworkManagerQt.so.6:_ZNK14NetworkManager10VlanDevice6vlanIdEv
libKF5NetworkManagerQt.so.6:_ZNK14NetworkManager10VlanDevice9hwAddressEv
libKF5NetworkManagerQt.so.6:_ZNK14NetworkManager10VpnSetting11serviceTypeEv
libKF5NetworkManagerQt.so.6:_ZNK14NetworkManager10VpnSetting4dataEv
libKF5NetworkManagerQt.so.6:_ZNK14NetworkManager10VpnSetting5toMapEv
libKF5NetworkManagerQt.so.6:_ZNK14NetworkManager10VpnSetting7secretsEv
libKF5NetworkManagerQt.so.6:_ZNK14NetworkManager11AccessPoint12capabilitiesEv
libKF5NetworkManagerQt.so.6:_ZNK14NetworkManager11AccessPoint14signalStrengthEv
libKF5NetworkManagerQt.so.6:_ZNK14NetworkManager11AccessPoint15hardwareAddressEv
libKF5NetworkManagerQt.so.6:_ZNK14NetworkManager11AccessPoint3uniEv
libKF5NetworkManagerQt.so.6:_ZNK14NetworkManager11AccessPoint4modeEv
libKF5NetworkManagerQt.so.6:_ZNK14NetworkManager11AccessPoint4ssidEv
libKF5NetworkManagerQt.so.6:_ZNK14NetworkManager11AccessPoint8rsnFlagsEv
libKF5NetworkManagerQt.so.6:_ZNK14NetworkManager11AccessPoint8wpaFlagsEv
libKF5NetworkManagerQt.so.6:_ZNK14NetworkManager11AccessPoint9frequencyEv
libKF5NetworkManagerQt.so.6:_ZNK14NetworkManager11BondSetting13interfaceNameEv
libKF5NetworkManagerQt.so.6:_ZNK14NetworkManager11BondSetting5toMapEv
libKF5NetworkManagerQt.so.6:_ZNK14NetworkManager11BondSetting7optionsEv
libKF5NetworkManagerQt.so.6:_ZNK14NetworkManager11CdmaSetting13passwordFlagsEv
libKF5NetworkManagerQt.so.6:_ZNK14NetworkManager11CdmaSetting5toMapEv
libKF5NetworkManagerQt.so.6:_ZNK14NetworkManager11CdmaSetting6numberEv
libKF5NetworkManagerQt.so.6:_ZNK14NetworkManager11CdmaSetting8passwordEv
libKF5NetworkManagerQt.so.6:_ZNK14NetworkManager11CdmaSetting8usernameEv
libKF5NetworkManagerQt.so.6:_ZNK14NetworkManager11Ipv4Setting10dadTimeoutEv
libKF5NetworkManagerQt.so.6:_ZNK14NetworkManager11Ipv4Setting11routeMetricEv
libKF5NetworkManagerQt.so.6:_ZNK14NetworkManager11Ipv4Setting12dhcpClientIdEv
libKF5NetworkManagerQt.so.6:_ZNK14NetworkManager11Ipv4Setting12dhcpHostnameEv
libKF5NetworkManagerQt.so.6:_ZNK14NetworkManager11Ipv4Setting12neverDefaultEv
libKF5NetworkManagerQt.so.6:_ZNK14NetworkManager11Ipv4Setting13ignoreAutoDnsEv
libKF5NetworkManagerQt.so.6:_ZNK14NetworkManager11Ipv4Setting16dhcpSendHostnameEv
libKF5NetworkManagerQt.so.6:_ZNK14NetworkManager11Ipv4Setting16ignoreAutoRoutesEv
libKF5NetworkManagerQt.so.6:_ZNK14NetworkManager11Ipv4Setting3dnsEv
libKF5NetworkManagerQt.so.6:_ZNK14NetworkManager11Ipv4Setting5toMapEv
libKF5NetworkManagerQt.so.6:_ZNK14NetworkManager11Ipv4Setting6methodEv
libKF5NetworkManagerQt.so.6:_ZNK14NetworkManager11Ipv4Setting6routesEv
libKF5NetworkManagerQt.so.6:_ZNK14NetworkManager11Ipv4Setting7mayFailEv
libKF5NetworkManagerQt.so.6:_ZNK14NetworkManager11Ipv4Setting9addressesEv
libKF5NetworkManagerQt.so.6:_ZNK14NetworkManager11Ipv4Setting9dnsSearchEv
libKF5NetworkManagerQt.so.6:_ZNK14NetworkManager11Ipv6Setting11routeMetricEv
libKF5NetworkManagerQt.so.6:_ZNK14NetworkManager11Ipv6Setting12neverDefaultEv
libKF5NetworkManagerQt.so.6:_ZNK14NetworkManager11Ipv6Setting13ignoreAutoDnsEv
libKF5NetworkManagerQt.so.6:_ZNK14NetworkManager11Ipv6Setting16ignoreAutoRoutesEv
libKF5NetworkManagerQt.so.6:_ZNK14NetworkManager11Ipv6Setting3dnsEv
libKF5NetworkManagerQt.so.6:_ZNK14NetworkManager11Ipv6Setting5toMapEv
libKF5NetworkManagerQt.so.6:_ZNK14NetworkManager11Ipv6Setting6methodEv
libKF5NetworkManagerQt.so.6:_ZNK14NetworkManager11Ipv6Setting6routesEv
libKF5NetworkManagerQt.so.6:_ZNK14NetworkManager11Ipv6Setting7mayFailEv
libKF5NetworkManagerQt.so.6:_ZNK14NetworkManager11Ipv6Setting7privacyEv
libKF5NetworkManagerQt.so.6:_ZNK14NetworkManager11Ipv6Setting9addressesEv
libKF5NetworkManagerQt.so.6:_ZNK14NetworkManager11Ipv6Setting9dnsSearchEv
libKF5NetworkManagerQt.so.6:_ZNK14NetworkManager11ModemDevice19currentCapabilitiesEv
libKF5NetworkManagerQt.so.6:_ZNK14NetworkManager11SecretAgent9sendErrorENS0_5ErrorERK7QStringRK12QDBusMessage
libKF5NetworkManagerQt.so.6:_ZNK14NetworkManager11TeamSetting13interfaceNameEv
libKF5NetworkManagerQt.so.6:_ZNK14NetworkManager11TeamSetting5toMapEv
libKF5NetworkManagerQt.so.6:_ZNK14NetworkManager11TeamSetting6configEv
libKF5NetworkManagerQt.so.6:_ZNK14NetworkManager11VlanSetting13interfaceNameEv
libKF5NetworkManagerQt.so.6:_ZNK14NetworkManager11VlanSetting2idEv
libKF5NetworkManagerQt.so.6:_ZNK14NetworkManager11VlanSetting5flagsEv
libKF5NetworkManagerQt.so.6:_ZNK14NetworkManager11VlanSetting5toMapEv
libKF5NetworkManagerQt.so.6:_ZNK14NetworkManager11VlanSetting6parentEv
libKF5NetworkManagerQt.so.6:_ZNK14NetworkManager11WiredDevice24permanentHardwareAddressEv
libKF5NetworkManagerQt.so.6:_ZNK14NetworkManager11WiredDevice7bitRateEv
libKF5NetworkManagerQt.so.6:_ZNK14NetworkManager11WiredDevice7carrierEv
libKF5NetworkManagerQt.so.6:_ZNK14NetworkManager12BridgeDevice9hwAddressEv
libKF5NetworkManagerQt.so.6:_ZNK14NetworkManager12PppoeSetting13passwordFlagsEv
libKF5NetworkManagerQt.so.6:_ZNK14NetworkManager12PppoeSetting5toMapEv
libKF5NetworkManagerQt.so.6:_ZNK14NetworkManager12PppoeSetting7serviceEv
libKF5NetworkManagerQt.so.6:_ZNK14NetworkManager12PppoeSetting8passwordEv
libKF5NetworkManagerQt.so.6:_ZNK14NetworkManager12PppoeSetting8usernameEv
libKF5NetworkManagerQt.so.6:_ZNK14NetworkManager12WiredSetting10duplexTypeEv
libKF5NetworkManagerQt.so.6:_ZNK14NetworkManager12WiredSetting10macAddressEv
libKF5NetworkManagerQt.so.6:_ZNK14NetworkManager12WiredSetting13autoNegotiateEv
libKF5NetworkManagerQt.so.6:_ZNK14NetworkManager12WiredSetting16clonedMacAddressEv
libKF5NetworkManagerQt.so.6:_ZNK14NetworkManager12WiredSetting3mtuEv
libKF5NetworkManagerQt.so.6:_ZNK14NetworkManager12WiredSetting5speedEv
libKF5NetworkManagerQt.so.6:_ZNK14NetworkManager12WiredSetting5toMapEv
libKF5NetworkManagerQt.so.6:_ZNK14NetworkManager13BridgeSetting12forwardDelayEv
libKF5NetworkManagerQt.so.6:_ZNK14NetworkManager13BridgeSetting13interfaceNameEv
libKF5NetworkManagerQt.so.6:_ZNK14NetworkManager13BridgeSetting3stpEv
libKF5NetworkManagerQt.so.6:_ZNK14NetworkManager13BridgeSetting5toMapEv
libKF5NetworkManagerQt.so.6:_ZNK14NetworkManager13BridgeSetting6maxAgeEv
libKF5NetworkManagerQt.so.6:_ZNK14NetworkManager13BridgeSetting8priorityEv
libKF5NetworkManagerQt.so.6:_ZNK14NetworkManager13BridgeSetting9agingTimeEv
libKF5NetworkManagerQt.so.6:_ZNK14NetworkManager13BridgeSetting9helloTimeEv
libKF5NetworkManagerQt.so.6:_ZNK14NetworkManager13VpnConnection5stateEv
libKF5NetworkManagerQt.so.6:_ZNK14NetworkManager13VpnConnection6bannerEv
libKF5NetworkManagerQt.so.6:_ZNK14NetworkManager14OlpcMeshDevice15hardwareAddressEv
libKF5NetworkManagerQt.so.6:_ZNK14NetworkManager14WirelessDevice11findNetworkERK7QString
libKF5NetworkManagerQt.so.6:_ZNK14NetworkManager14WirelessDevice12accessPointsEv
libKF5NetworkManagerQt.so.6:_ZNK14NetworkManager14WirelessDevice15hardwareAddressEv
libKF5NetworkManagerQt.so.6:_ZNK14NetworkManager14WirelessDevice15lastRequestScanEv
libKF5NetworkManagerQt.so.6:_ZNK14NetworkManager14WirelessDevice17activeAccessPointEv
libKF5NetworkManagerQt.so.6:_ZNK14NetworkManager14WirelessDevice20wirelessCapabilitiesEv
libKF5NetworkManagerQt.so.6:_ZNK14NetworkManager14WirelessDevice24permanentHardwareAddressEv
libKF5NetworkManagerQt.so.6:_ZNK14NetworkManager14WirelessDevice4modeEv
libKF5NetworkManagerQt.so.6:_ZNK14NetworkManager14WirelessDevice7bitRateEv
libKF5NetworkManagerQt.so.6:_ZNK14NetworkManager14WirelessDevice8lastScanEv
libKF5NetworkManagerQt.so.6:_ZNK14NetworkManager14WirelessDevice8networksEv
libKF5NetworkManagerQt.so.6:_ZNK14NetworkManager15BluetoothDevice15hardwareAddressEv
libKF5NetworkManagerQt.so.6:_ZNK14NetworkManager15BluetoothDevice21bluetoothCapabilitiesEv
libKF5NetworkManagerQt.so.6:_ZNK14NetworkManager15BluetoothDevice4nameEv
libKF5NetworkManagerQt.so.6:_ZNK14NetworkManager15WirelessNetwork12accessPointsEv
libKF5NetworkManagerQt.so.6:_ZNK14NetworkManager15WirelessNetwork14signalStrengthEv
libKF5NetworkManagerQt.so.6:_ZNK14NetworkManager15WirelessNetwork20referenceAccessPointEv
libKF5NetworkManagerQt.so.6:_ZNK14NetworkManager15WirelessNetwork4ssidEv
libKF5NetworkManagerQt.so.6:_ZNK14NetworkManager15WirelessNetwork6deviceEv
libKF5NetworkManagerQt.so.6:_ZNK14NetworkManager15WirelessSetting10macAddressEv
libKF5NetworkManagerQt.so.6:_ZNK14NetworkManager15WirelessSetting16clonedMacAddressEv
libKF5NetworkManagerQt.so.6:_ZNK14NetworkManager15WirelessSetting3mtuEv
libKF5NetworkManagerQt.so.6:_ZNK14NetworkManager15WirelessSetting4bandEv
libKF5NetworkManagerQt.so.6:_ZNK14NetworkManager15WirelessSetting4modeEv
libKF5NetworkManagerQt.so.6:_ZNK14NetworkManager15WirelessSetting4ssidEv
libKF5NetworkManagerQt.so.6:_ZNK14NetworkManager15WirelessSetting5bssidEv
libKF5NetworkManagerQt.so.6:_ZNK14NetworkManager15WirelessSetting5toMapEv
libKF5NetworkManagerQt.so.6:_ZNK14NetworkManager15WirelessSetting6hiddenEv
libKF5NetworkManagerQt.so.6:_ZNK14NetworkManager15WirelessSetting7channelEv
libKF5NetworkManagerQt.so.6:_ZNK14NetworkManager16ActiveConnection10connectionEv
libKF5NetworkManagerQt.so.6:_ZNK14NetworkManager16ActiveConnection14specificObjectEv
libKF5NetworkManagerQt.so.6:_ZNK14NetworkManager16ActiveConnection2idEv
libKF5NetworkManagerQt.so.6:_ZNK14NetworkManager16ActiveConnection3vpnEv
libKF5NetworkManagerQt.so.6:_ZNK14NetworkManager16ActiveConnection4pathEv
libKF5NetworkManagerQt.so.6:_ZNK14NetworkManager16ActiveConnection4typeEv
libKF5NetworkManagerQt.so.6:_ZNK14NetworkManager16ActiveConnection4uuidEv
libKF5NetworkManagerQt.so.6:_ZNK14NetworkManager16ActiveConnection5stateEv
libKF5NetworkManagerQt.so.6:_ZNK14NetworkManager16ActiveConnection7devicesEv
libKF5NetworkManagerQt.so.6:_ZNK14NetworkManager16ActiveConnection7isValidEv
libKF5NetworkManagerQt.so.6:_ZNK14NetworkManager16BluetoothSetting11profileTypeEv
libKF5NetworkManagerQt.so.6:_ZNK14NetworkManager16BluetoothSetting16bluetoothAddressEv
libKF5NetworkManagerQt.so.6:_ZNK14NetworkManager16BluetoothSetting5toMapEv
libKF5NetworkManagerQt.so.6:_ZNK14NetworkManager16DeviceStatistics7rxBytesEv
libKF5NetworkManagerQt.so.6:_ZNK14NetworkManager16DeviceStatistics7txBytesEv
libKF5NetworkManagerQt.so.6:_ZNK14NetworkManager16InfinibandDevice9hwAddressEv
libKF5NetworkManagerQt.so.6:_ZNK14NetworkManager16WireGuardSetting10listenPortEv
libKF5NetworkManagerQt.so.6:_ZNK14NetworkManager16WireGuardSetting10peerRoutesEv
libKF5NetworkManagerQt.so.6:_ZNK14NetworkManager16WireGuardSetting10privateKeyEv
libKF5NetworkManagerQt.so.6:_ZNK14NetworkManager16WireGuardSetting15privateKeyFlagsEv
libKF5NetworkManagerQt.so.6:_ZNK14NetworkManager16WireGuardSetting3mtuEv
libKF5NetworkManagerQt.so.6:_ZNK14NetworkManager16WireGuardSetting5peersEv
libKF5NetworkManagerQt.so.6:_ZNK14NetworkManager16WireGuardSetting5toMapEv
libKF5NetworkManagerQt.so.6:_ZNK14NetworkManager16WireGuardSetting6fwmarkEv
libKF5NetworkManagerQt.so.6:_ZNK14NetworkManager17InfinibandSetting10macAddressEv
libKF5NetworkManagerQt.so.6:_ZNK14NetworkManager17InfinibandSetting13transportModeEv
libKF5NetworkManagerQt.so.6:_ZNK14NetworkManager17InfinibandSetting3mtuEv
libKF5NetworkManagerQt.so.6:_ZNK14NetworkManager17InfinibandSetting5toMapEv
libKF5NetworkManagerQt.so.6:_ZNK14NetworkManager18ConnectionSettings11autoconnectEv
libKF5NetworkManagerQt.so.6:_ZNK14NetworkManager18ConnectionSettings11permissionsEv
libKF5NetworkManagerQt.so.6:_ZNK14NetworkManager18ConnectionSettings11secondariesEv
libKF5NetworkManagerQt.so.6:_ZNK14NetworkManager18ConnectionSettings14connectionTypeEv
libKF5NetworkManagerQt.so.6:_ZNK14NetworkManager18ConnectionSettings19autoconnectPriorityEv
libKF5NetworkManagerQt.so.6:_ZNK14NetworkManager18ConnectionSettings2idEv
libKF5NetworkManagerQt.so.6:_ZNK14NetworkManager18ConnectionSettings4nameEv
libKF5NetworkManagerQt.so.6:_ZNK14NetworkManager18ConnectionSettings4uuidEv
libKF5NetworkManagerQt.so.6:_ZNK14NetworkManager18ConnectionSettings4zoneEv
libKF5NetworkManagerQt.so.6:_ZNK14NetworkManager18ConnectionSettings5toMapEv
libKF5NetworkManagerQt.so.6:_ZNK14NetworkManager18ConnectionSettings6masterEv
libKF5NetworkManagerQt.so.6:_ZNK14NetworkManager18ConnectionSettings7isSlaveEv
libKF5NetworkManagerQt.so.6:_ZNK14NetworkManager18ConnectionSettings7meteredEv
libKF5NetworkManagerQt.so.6:_ZNK14NetworkManager18ConnectionSettings7settingENS_7Setting11SettingTypeE
libKF5NetworkManagerQt.so.6:_ZNK14NetworkManager18ConnectionSettings7settingERK7QString
libKF5NetworkManagerQt.so.6:_ZNK14NetworkManager18ConnectionSettings8settingsEv
libKF5NetworkManagerQt.so.6:_ZNK14NetworkManager18ConnectionSettings9slaveTypeEv
libKF5NetworkManagerQt.so.6:_ZNK14NetworkManager18ConnectionSettings9timestampEv
libKF5NetworkManagerQt.so.6:_ZNK14NetworkManager20Security8021xSetting10eapMethodsEv
libKF5NetworkManagerQt.so.6:_ZNK14NetworkManager20Security8021xSetting10privateKeyEv
libKF5NetworkManagerQt.so.6:_ZNK14NetworkManager20Security8021xSetting12subjectMatchEv
libKF5NetworkManagerQt.so.6:_ZNK14NetworkManager20Security8021xSetting13caCertificateEv
libKF5NetworkManagerQt.so.6:_ZNK14NetworkManager20Security8021xSetting13passwordFlagsEv
libKF5NetworkManagerQt.so.6:_ZNK14NetworkManager20Security8021xSetting16phase2AuthMethodEv
libKF5NetworkManagerQt.so.6:_ZNK14NetworkManager20Security8021xSetting17altSubjectMatchesEv
libKF5NetworkManagerQt.so.6:_ZNK14NetworkManager20Security8021xSetting17anonymousIdentityEv
libKF5NetworkManagerQt.so.6:_ZNK14NetworkManager20Security8021xSetting17clientCertificateEv
libKF5NetworkManagerQt.so.6:_ZNK14NetworkManager20Security8021xSetting17domainSuffixMatchEv
libKF5NetworkManagerQt.so.6:_ZNK14NetworkManager20Security8021xSetting17phase1PeapVersionEv
libKF5NetworkManagerQt.so.6:_ZNK14NetworkManager20Security8021xSetting18privateKeyPasswordEv
libKF5NetworkManagerQt.so.6:_ZNK14NetworkManager20Security8021xSetting22phase1FastProvisioningEv
libKF5NetworkManagerQt.so.6:_ZNK14NetworkManager20Security8021xSetting5toMapEv
libKF5NetworkManagerQt.so.6:_ZNK14NetworkManager20Security8021xSetting7pacFileEv
libKF5NetworkManagerQt.so.6:_ZNK14NetworkManager20Security8021xSetting8identityEv
libKF5NetworkManagerQt.so.6:_ZNK14NetworkManager20Security8021xSetting8passwordEv
libKF5NetworkManagerQt.so.6:_ZNK14NetworkManager23WirelessSecuritySetting10wepKeyTypeEv
libKF5NetworkManagerQt.so.6:_ZNK14NetworkManager23WirelessSecuritySetting11wepKeyFlagsEv
libKF5NetworkManagerQt.so.6:_ZNK14NetworkManager23WirelessSecuritySetting12leapPasswordEv
libKF5NetworkManagerQt.so.6:_ZNK14NetworkManager23WirelessSecuritySetting12leapUsernameEv
libKF5NetworkManagerQt.so.6:_ZNK14NetworkManager23WirelessSecuritySetting13wepTxKeyindexEv
libKF5NetworkManagerQt.so.6:_ZNK14NetworkManager23WirelessSecuritySetting17leapPasswordFlagsEv
libKF5NetworkManagerQt.so.6:_ZNK14NetworkManager23WirelessSecuritySetting3pskEv
libKF5NetworkManagerQt.so.6:_ZNK14NetworkManager23WirelessSecuritySetting5groupEv
libKF5NetworkManagerQt.so.6:_ZNK14NetworkManager23WirelessSecuritySetting5protoEv
libKF5NetworkManagerQt.so.6:_ZNK14NetworkManager23WirelessSecuritySetting5toMapEv
libKF5NetworkManagerQt.so.6:_ZNK14NetworkManager23WirelessSecuritySetting7authAlgEv
libKF5NetworkManagerQt.so.6:_ZNK14NetworkManager23WirelessSecuritySetting7keyMgmtEv
libKF5NetworkManagerQt.so.6:_ZNK14NetworkManager23WirelessSecuritySetting7wepKey0Ev
libKF5NetworkManagerQt.so.6:_ZNK14NetworkManager23WirelessSecuritySetting7wepKey1Ev
libKF5NetworkManagerQt.so.6:_ZNK14NetworkManager23WirelessSecuritySetting7wepKey2Ev
libKF5NetworkManagerQt.so.6:_ZNK14NetworkManager23WirelessSecuritySetting7wepKey3Ev
libKF5NetworkManagerQt.so.6:_ZNK14NetworkManager23WirelessSecuritySetting8pairwiseEv
libKF5NetworkManagerQt.so.6:_ZNK14NetworkManager23WirelessSecuritySetting8pskFlagsEv
libKF5NetworkManagerQt.so.6:_ZNK14NetworkManager6Device10ipV4ConfigEv
libKF5NetworkManagerQt.so.6:_ZNK14NetworkManager6Device10ipV6ConfigEv
libKF5NetworkManagerQt.so.6:_ZNK14NetworkManager6Device13interfaceNameEv
libKF5NetworkManagerQt.so.6:_ZNK14NetworkManager6Device15ipInterfaceNameEv
libKF5NetworkManagerQt.so.6:_ZNK14NetworkManager6Device16deviceStatisticsEv
libKF5NetworkManagerQt.so.6:_ZNK14NetworkManager6Device3udiEv
libKF5NetworkManagerQt.so.6:_ZNK14NetworkManager6Device3uniEv
libKF5NetworkManagerQt.so.6:_ZNK14NetworkManager6Device5stateEv
libKF5NetworkManagerQt.so.6:_ZNK14NetworkManager6Device7managedEv
libKF5NetworkManagerQt.so.6:_ZNK14NetworkManager6Device8isActiveEv
libKF5NetworkManagerQt.so.6:_ZNK14NetworkManager7IpRoute10setNextHopERK12QHostAddress
libKF5NetworkManagerQt.so.6:_ZNK14NetworkManager7IpRoute6metricEv
libKF5NetworkManagerQt.so.6:_ZNK14NetworkManager7IpRoute7nextHopEv
libKF5NetworkManagerQt.so.6:_ZNK14NetworkManager7Setting4typeEv
libKF5NetworkManagerQt.so.6:_ZNK14NetworkManager7Setting6isNullEv
libKF5NetworkManagerQt.so.6:_ZNK14NetworkManager8IpConfig11nameserversEv
libKF5NetworkManagerQt.so.6:_ZNK14NetworkManager8IpConfig7gatewayEv
libKF5NetworkManagerQt.so.6:_ZNK14NetworkManager8IpConfig7isValidEv
libKF5NetworkManagerQt.so.6:_ZNK14NetworkManager8IpConfig9addressesEv
libKF5NetworkManagerQt.so.6:_ZNK14NetworkManager9IpAddress7gatewayEv
libKF5NetworkManagerQt.so.6:_ZTIN14NetworkManager10VpnSettingE
libKF5NetworkManagerQt.so.6:_ZTIN14NetworkManager11Ipv4SettingE
libKF5NetworkManagerQt.so.6:_ZTIN14NetworkManager11Ipv6SettingE
libKF5NetworkManagerQt.so.6:_ZTIN14NetworkManager11SecretAgentE
libKF5NetworkManagerQt.so.6:_ZTIN14NetworkManager12WiredSettingE
libKF5NetworkManagerQt.so.6:_ZTIN14NetworkManager15WirelessSettingE
libKF5NetworkManagerQt.so.6:_ZTIN14NetworkManager16WireGuardSettingE
libKF5NetworkManagerQt.so.6:_ZTIN14NetworkManager23WirelessSecuritySettingE
libKF5NetworkManagerQt.so.6:_ZTIN14NetworkManager7SettingE
libKF5NetworkManagerQt.so.6:_ZlsR13QDBusArgumentRK4QMapI7QStringS2_E
libKF5NetworkManagerQt.so.6:_ZrsRK13QDBusArgumentR4QMapI7QStringS3_E
libKF5Notifications.so.5:_ZN13KNotification10setActionsERK11QStringList
libKF5Notifications.so.5:_ZN13KNotification11setIconNameERK7QString
libKF5Notifications.so.5:_ZN13KNotification16action1ActivatedEv
libKF5Notifications.so.5:_ZN13KNotification16setComponentNameERK7QString
libKF5Notifications.so.5:_ZN13KNotification16staticMetaObjectE
libKF5Notifications.so.5:_ZN13KNotification5closeEv
libKF5Notifications.so.5:_ZN13KNotification6closedEv
libKF5Notifications.so.5:_ZN13KNotification6updateEv
libKF5Notifications.so.5:_ZN13KNotification7setTextERK7QString
libKF5Notifications.so.5:_ZN13KNotification8setTitleERK7QString
libKF5Notifications.so.5:_ZN13KNotification9sendEventEv
libKF5Notifications.so.5:_ZN13KNotificationC1ERK7QStringRK6QFlagsINS_16NotificationFlagEEP7QObject
libKF5Service.so.5:_ZN18KServiceTypeTrader4selfEv
libKF5Service.so.5:_ZNK12KSycocaEntry4nameEv
libKF5Service.so.5:_ZNK18KServiceTypeTrader5queryERK7QStringS2_
libKF5Service.so.5:_ZNK8KService13pluginKeywordEv
libKF5Service.so.5:_ZNK8KService8propertyERK7QStringN8QVariant4TypeE
libKF5Service.so.5:_ZNK8KServicecv11KPluginNameEv
libKF5Solid.so.5:_ZN5Solid6Device10allDevicesEv
libKF5Solid.so.5:_ZN5Solid6DeviceC1ERKS0_
libKF5Solid.so.5:_ZN5Solid6DeviceD1Ev
libKF5Solid.so.5:_ZNK5Solid6Device3udiEv
libKF5Solid.so.5:_ZNK5Solid6Device6vendorEv
libKF5Solid.so.5:_ZNK5Solid6Device7productEv
libKF5Wallet.so.5:_ZN7KWallet6Wallet10openWalletERK7QStringyNS0_8OpenTypeE
libKF5Wallet.so.5:_ZN7KWallet6Wallet11LocalWalletEv
libKF5Wallet.so.5:_ZN7KWallet6Wallet12walletClosedEv
libKF5Wallet.so.5:_ZN7KWallet6Wallet12walletOpenedEb
libKF5Wallet.so.5:_ZN7KWallet6Wallet16staticMetaObjectE
libKF5Wallet.so.5:_ZN7KWallet6Wallet9isEnabledEv
libKF5WidgetsAddons.so.5:_ZN11KMessageBox11informationEP7QWidgetRK7QStringS4_S4_6QFlagsINS_6OptionEE
libKF5WidgetsAddons.so.5:_ZN11KMessageBox13questionYesNoEP7QWidgetRK7QStringS4_RK8KGuiItemS7_S4_6QFlagsINS_6OptionEE
libKF5WidgetsAddons.so.5:_ZN11KMessageBox18shouldBeShownYesNoERK7QStringRNS_10ButtonCodeE
libKF5WidgetsAddons.so.5:_ZN11KMessageBox5errorEP7QWidgetRK7QStringS4_6QFlagsINS_6OptionEE
libKF5WidgetsAddons.so.5:_ZN11KMessageBox5sorryEP7QWidgetRK7QStringS4_6QFlagsINS_6OptionEE
libKF5WidgetsAddons.so.5:_ZN12KTitleWidget7setTextERK7QStringNS_11MessageTypeE
libKF5WidgetsAddons.so.5:_ZN12KTitleWidgetC1EP7QWidget
libKF5WidgetsAddons.so.5:_ZN15KEditListWidget18setCheckAtEnteringEb
libKF5WidgetsAddons.so.5:_ZN15KEditListWidget8setItemsERK11QStringList
libKF5WidgetsAddons.so.5:_ZN15KEditListWidgetC1EP7QWidget
libKF5WidgetsAddons.so.5:_ZN16KStandardGuiItem2noEv
libKF5WidgetsAddons.so.5:_ZN16KStandardGuiItem3yesEv
libKF5WidgetsAddons.so.5:_ZN16KStandardGuiItem4saveEv
libKF5WidgetsAddons.so.5:_ZN16KStandardGuiItem6removeEv
libKF5WidgetsAddons.so.5:_ZN16KStandardGuiItem7discardEv
libKF5WidgetsAddons.so.5:_ZN19KAcceleratorManager6manageEP7QWidgetb
libKF5WidgetsAddons.so.5:_ZN8KGuiItemD1Ev
libKF5WidgetsAddons.so.5:_ZNK15KEditListWidget5itemsEv
libKF5WidgetsAddons.so.5:_ZNK15KEditListWidget8lineEditEv
libKF5WindowSystem.so.5:_ZN13KWindowSystem14activateWindowEyl
libKF5WindowSystem.so.5:_ZN13KWindowSystem17forceActiveWindowEyl
libKF5WindowSystem.so.5:_ZN13KWindowSystem8setStateEy6QFlagsIN3NET5StateEE
libQt5Core.so.5:_Z23qt_qFindChildren_helperPK7QObjectRK7QStringRK11QMetaObjectP5QListIPvE6QFlagsIN2Qt15FindChildOptionEE
libQt5Core.so.5:_Z5qHashRK7QStringj
libQt5Core.so.5:_Z7qgetenvPKc
libQt5Core.so.5:_Z7qstrcmpRK10QByteArrayPKc
libQt5Core.so.5:_ZN10QArrayData10deallocateEPS_mm
libQt5Core.so.5:_ZN10QArrayData11shared_nullE
libQt5Core.so.5:_ZN10QArrayData8allocateEmmm6QFlagsINS_16AllocationOptionEE
libQt5Core.so.5:_ZN10QByteArray10fromBase64ERKS_
libQt5Core.so.5:_ZN10QByteArray11reallocDataEj6QFlagsIN10QArrayData16AllocationOptionEE
libQt5Core.so.5:_ZN10QByteArray6appendEPKc
libQt5Core.so.5:_ZN10QByteArray6appendERKS_
libQt5Core.so.5:_ZN10QByteArray6appendEc
libQt5Core.so.5:_ZN10QByteArray6expandEi
libQt5Core.so.5:_ZN10QByteArray6resizeEi
libQt5Core.so.5:_ZN10QByteArrayC1EPKci
libQt5Core.so.5:_ZN10QByteArrayaSEPKc
libQt5Core.so.5:_ZN10QByteArrayaSERKS_
libQt5Core.so.5:_ZN11QFileDevice5closeEv
libQt5Core.so.5:_ZN11QJsonObjectD1Ev
libQt5Core.so.5:_ZN11QMetaObject10ConnectionD1Ev
libQt5Core.so.5:_ZN11QMetaObject12invokeMethodEP7QObjectPKcN2Qt14ConnectionTypeE22QGenericReturnArgument16QGenericArgumentS7_S7_S7_S7_S7_S7_S7_S7_S7_
libQt5Core.so.5:_ZN11QMetaObject14normalizedTypeEPKc
libQt5Core.so.5:_ZN11QMetaObject18connectSlotsByNameEP7QObject
libQt5Core.so.5:_ZN11QMetaObject8activateEP7QObjectPKS_iPPv
libQt5Core.so.5:_ZN11QTextStream7readAllEv
libQt5Core.so.5:_ZN11QTextStream8readLineEx
libQt5Core.so.5:_ZN11QTextStreamC1EP9QIODevice
libQt5Core.so.5:_ZN11QTextStreamD1Ev
libQt5Core.so.5:_ZN11QTextStreamlsEPKc
libQt5Core.so.5:_ZN11QTextStreamlsERK7QString
libQt5Core.so.5:_ZN11QTextStreamlsEc
libQt5Core.so.5:_ZN11QTextStreamlsEi
libQt5Core.so.5:_ZN11QTextStreamlsEj
libQt5Core.so.5:_ZN11QTextStreamlsEx
libQt5Core.so.5:_ZN12QMapDataBase10createDataEv
libQt5Core.so.5:_ZN12QMapDataBase10createNodeEiiP12QMapNodeBaseb
libQt5Core.so.5:_ZN12QMapDataBase11shared_nullE
libQt5Core.so.5:_ZN12QMapDataBase18recalcMostLeftNodeEv
libQt5Core.so.5:_ZN12QMapDataBase20freeNodeAndRebalanceEP12QMapNodeBase
libQt5Core.so.5:_ZN12QMapDataBase8freeDataEPS_
libQt5Core.so.5:_ZN12QMapDataBase8freeTreeEP12QMapNodeBasei
libQt5Core.so.5:_ZN14QStandardPaths14findExecutableERK7QStringRK11QStringList
libQt5Core.so.5:_ZN14QStandardPaths16writableLocationENS_16StandardLocationE
libQt5Core.so.5:_ZN14QStandardPaths6locateENS_16StandardLocationERK7QString6QFlagsINS_12LocateOptionEE
libQt5Core.so.5:_ZN14QWaitCondition4waitEP6QMutex14QDeadlineTimer
libQt5Core.so.5:_ZN14QWaitCondition7wakeAllEv
libQt5Core.so.5:_ZN14QWaitConditionC1Ev
libQt5Core.so.5:_ZN14QWaitConditionD1Ev
libQt5Core.so.5:_ZN15QtSharedPointer20ExternalRefCountData16setQObjectSharedEPK7QObjectb
libQt5Core.so.5:_ZN15QtSharedPointer20ExternalRefCountData18checkQObjectSharedEPK7QObject
libQt5Core.so.5:_ZN15QtSharedPointer20ExternalRefCountData9getAndRefEPK7QObject
libQt5Core.so.5:_ZN16QCoreApplication13processEventsE6QFlagsIN10QEventLoop17ProcessEventsFlagEE
libQt5Core.so.5:_ZN16QCoreApplication9translateEPKcS1_S1_i
libQt5Core.so.5:_ZN16QLoggingCategory14setFilterRulesERK7QString
libQt5Core.so.5:_ZN16QLoggingCategoryC1EPKc
libQt5Core.so.5:_ZN16QLoggingCategoryD1Ev
libQt5Core.so.5:_ZN16QRandomGenerator10_fillRangeEPvS0_
libQt5Core.so.5:_ZN18QAbstractItemModel10insertRowsEiiRK11QModelIndex
libQt5Core.so.5:_ZN18QAbstractItemModel10removeRowsEiiRK11QModelIndex
libQt5Core.so.5:_ZN18QAbstractItemModel11dataChangedERK11QModelIndexS2_RK7QVectorIiE
libQt5Core.so.5:_ZN18QAbstractItemModel11moveColumnsERK11QModelIndexiiS2_i
libQt5Core.so.5:_ZN18QAbstractItemModel11rowsRemovedERK11QModelIndexiiNS_14QPrivateSignalE
libQt5Core.so.5:_ZN18QAbstractItemModel11setItemDataERK11QModelIndexRK4QMapIi8QVariantE
libQt5Core.so.5:_ZN18QAbstractItemModel13endInsertRowsEv
libQt5Core.so.5:_ZN18QAbstractItemModel13endRemoveRowsEv
libQt5Core.so.5:_ZN18QAbstractItemModel13insertColumnsEiiRK11QModelIndex
libQt5Core.so.5:_ZN18QAbstractItemModel13removeColumnsEiiRK11QModelIndex
libQt5Core.so.5:_ZN18QAbstractItemModel13setHeaderDataEiN2Qt11OrientationERK8QVarianti
libQt5Core.so.5:_ZN18QAbstractItemModel15beginInsertRowsERK11QModelIndexii
libQt5Core.so.5:_ZN18QAbstractItemModel15beginRemoveRowsERK11QModelIndexii
libQt5Core.so.5:_ZN18QAbstractItemModel16staticMetaObjectE
libQt5Core.so.5:_ZN18QAbstractItemModel4sortEiN2Qt9SortOrderE
libQt5Core.so.5:_ZN18QAbstractItemModel6revertEv
libQt5Core.so.5:_ZN18QAbstractItemModel6submitEv
libQt5Core.so.5:_ZN18QAbstractItemModel7setDataERK11QModelIndexRK8QVarianti
libQt5Core.so.5:_ZN18QAbstractItemModel8moveRowsERK11QModelIndexiiS2_i
libQt5Core.so.5:_ZN18QAbstractItemModel9fetchMoreERK11QModelIndex
libQt5Core.so.5:_ZN18QAbstractListModel11qt_metacallEN11QMetaObject4CallEiPPv
libQt5Core.so.5:_ZN18QAbstractListModel11qt_metacastEPKc
libQt5Core.so.5:_ZN18QAbstractListModel12dropMimeDataEPK9QMimeDataN2Qt10DropActionEiiRK11QModelIndex
libQt5Core.so.5:_ZN18QAbstractListModel16staticMetaObjectE
libQt5Core.so.5:_ZN18QAbstractListModelC2EP7QObject
libQt5Core.so.5:_ZN18QAbstractListModelD2Ev
libQt5Core.so.5:_ZN18QCryptographicHash7addDataEPKci
libQt5Core.so.5:_ZN18QCryptographicHashC1ENS_9AlgorithmE
libQt5Core.so.5:_ZN18QCryptographicHashD1Ev
libQt5Core.so.5:_ZN18QRandomGenerator646globalEv
libQt5Core.so.5:_ZN18QRegularExpressionC1ERK7QString6QFlagsINS_13PatternOptionEE
libQt5Core.so.5:_ZN18QRegularExpressionD1Ev
libQt5Core.so.5:_ZN19QAbstractProxyModel11setItemDataERK11QModelIndexRK4QMapIi8QVariantE
libQt5Core.so.5:_ZN19QAbstractProxyModel13setHeaderDataEiN2Qt11OrientationERK8QVarianti
libQt5Core.so.5:_ZN19QAbstractProxyModel4sortEiN2Qt9SortOrderE
libQt5Core.so.5:_ZN19QAbstractProxyModel6revertEv
libQt5Core.so.5:_ZN19QAbstractProxyModel6submitEv
libQt5Core.so.5:_ZN19QAbstractProxyModel7setDataERK11QModelIndexRK8QVarianti
libQt5Core.so.5:_ZN19QAbstractProxyModel9fetchMoreERK11QModelIndex
libQt5Core.so.5:_ZN19QIdentityProxyModel10insertRowsEiiRK11QModelIndex
libQt5Core.so.5:_ZN19QIdentityProxyModel10removeRowsEiiRK11QModelIndex
libQt5Core.so.5:_ZN19QIdentityProxyModel11moveColumnsERK11QModelIndexiiS2_i
libQt5Core.so.5:_ZN19QIdentityProxyModel11qt_metacallEN11QMetaObject4CallEiPPv
libQt5Core.so.5:_ZN19QIdentityProxyModel11qt_metacastEPKc
libQt5Core.so.5:_ZN19QIdentityProxyModel12dropMimeDataEPK9QMimeDataN2Qt10DropActionEiiRK11QModelIndex
libQt5Core.so.5:_ZN19QIdentityProxyModel13insertColumnsEiiRK11QModelIndex
libQt5Core.so.5:_ZN19QIdentityProxyModel13removeColumnsEiiRK11QModelIndex
libQt5Core.so.5:_ZN19QIdentityProxyModel14setSourceModelEP18QAbstractItemModel
libQt5Core.so.5:_ZN19QIdentityProxyModel16staticMetaObjectE
libQt5Core.so.5:_ZN19QIdentityProxyModel8moveRowsERK11QModelIndexiiS2_i
libQt5Core.so.5:_ZN19QIdentityProxyModelC2EP7QObject
libQt5Core.so.5:_ZN19QIdentityProxyModelD2Ev
libQt5Core.so.5:_ZN19QItemSelectionModel16selectionChangedERK14QItemSelectionS2_
libQt5Core.so.5:_ZN19QItemSelectionModel16staticMetaObjectE
libQt5Core.so.5:_ZN19QProcessEnvironment17systemEnvironmentEv
libQt5Core.so.5:_ZN19QProcessEnvironmentD1Ev
libQt5Core.so.5:_ZN20QAssociativeIterable14const_iteratorD1Ev
libQt5Core.so.5:_ZN20QAssociativeIterable14const_iteratorppEv
libQt5Core.so.5:_ZN20QAssociativeIterableC1EN17QtMetaTypePrivate24QAssociativeIterableImplE
libQt5Core.so.5:_ZN21QAbstractConcatenable14appendLatin1ToEPKciP5QChar
libQt5Core.so.5:_ZN21QAbstractConcatenable16convertFromAsciiEPKciRP5QChar
libQt5Core.so.5:_ZN21QSortFilterProxyModel10insertRowsEiiRK11QModelIndex
libQt5Core.so.5:_ZN21QSortFilterProxyModel10invalidateEv
libQt5Core.so.5:_ZN21QSortFilterProxyModel10removeRowsEiiRK11QModelIndex
libQt5Core.so.5:_ZN21QSortFilterProxyModel11qt_metacallEN11QMetaObject4CallEiPPv
libQt5Core.so.5:_ZN21QSortFilterProxyModel11qt_metacastEPKc
libQt5Core.so.5:_ZN21QSortFilterProxyModel12dropMimeDataEPK9QMimeDataN2Qt10DropActionEiiRK11QModelIndex
libQt5Core.so.5:_ZN21QSortFilterProxyModel13insertColumnsEiiRK11QModelIndex
libQt5Core.so.5:_ZN21QSortFilterProxyModel13removeColumnsEiiRK11QModelIndex
libQt5Core.so.5:_ZN21QSortFilterProxyModel13setHeaderDataEiN2Qt11OrientationERK8QVarianti
libQt5Core.so.5:_ZN21QSortFilterProxyModel14setSourceModelEP18QAbstractItemModel
libQt5Core.so.5:_ZN21QSortFilterProxyModel16staticMetaObjectE
libQt5Core.so.5:_ZN21QSortFilterProxyModel18setSortLocaleAwareEb
libQt5Core.so.5:_ZN21QSortFilterProxyModel20setDynamicSortFilterEb
libQt5Core.so.5:_ZN21QSortFilterProxyModel22setSortCaseSensitivityEN2Qt15CaseSensitivityE
libQt5Core.so.5:_ZN21QSortFilterProxyModel24setFilterCaseSensitivityEN2Qt15CaseSensitivityE
libQt5Core.so.5:_ZN21QSortFilterProxyModel4sortEiN2Qt9SortOrderE
libQt5Core.so.5:_ZN21QSortFilterProxyModel7setDataERK11QModelIndexRK8QVarianti
libQt5Core.so.5:_ZN21QSortFilterProxyModel9fetchMoreERK11QModelIndex
libQt5Core.so.5:_ZN21QSortFilterProxyModelC2EP7QObject
libQt5Core.so.5:_ZN21QSortFilterProxyModelD2Ev
libQt5Core.so.5:_ZN4QDir8homePathEv
libQt5Core.so.5:_ZN4QDir9separatorEv
libQt5Core.so.5:_ZN4QDirC1ERK7QString
libQt5Core.so.5:_ZN4QDirD1Ev
libQt5Core.so.5:_ZN4QUrl13fromLocalFileERK7QString
libQt5Core.so.5:_ZN4QUrlC1ERK7QStringNS_11ParsingModeE
libQt5Core.so.5:_ZN4QUrlC1Ev
libQt5Core.so.5:_ZN4QUrlD1Ev
libQt5Core.so.5:_ZN5QFile4copyERK7QString
libQt5Core.so.5:_ZN5QFile4openE6QFlagsIN9QIODevice12OpenModeFlagEE
libQt5Core.so.5:_ZN5QFileC1ERK7QString
libQt5Core.so.5:_ZN5QFileD1Ev
libQt5Core.so.5:_ZN5QTimeC1Eiiii
libQt5Core.so.5:_ZN6QDebug9putStringEPK5QCharm
libQt5Core.so.5:_ZN6QDebugD1Ev
libQt5Core.so.5:_ZN6QMutex4lockEv
libQt5Core.so.5:_ZN6QMutex6unlockEv
libQt5Core.so.5:_ZN6QMutexD1Ev
libQt5Core.so.5:_ZN6QTimer11setIntervalEi
libQt5Core.so.5:_ZN6QTimer14singleShotImplEiN2Qt9TimerTypeEPK7QObjectPN9QtPrivate15QSlotObjectBaseE
libQt5Core.so.5:_ZN6QTimer16staticMetaObjectE
libQt5Core.so.5:_ZN6QTimer4stopEv
libQt5Core.so.5:_ZN6QTimer5startEv
libQt5Core.so.5:_ZN6QTimer7timeoutENS_14QPrivateSignalE
libQt5Core.so.5:_ZN6QTimerC1EP7QObject
libQt5Core.so.5:_ZN6QTimerD1Ev
libQt5Core.so.5:_ZN7QLocale15countryToStringENS_7CountryE
libQt5Core.so.5:_ZN7QLocaleC1ENS_8LanguageENS_7CountryE
libQt5Core.so.5:_ZN7QLocaleC1Ev
libQt5Core.so.5:_ZN7QLocaleD1Ev
libQt5Core.so.5:_ZN7QObject10childEventEP11QChildEvent
libQt5Core.so.5:_ZN7QObject10disconnectEPKS_PKcS1_S3_
libQt5Core.so.5:_ZN7QObject10timerEventEP11QTimerEvent
libQt5Core.so.5:_ZN7QObject11connectImplEPKS_PPvS1_S3_PN9QtPrivate15QSlotObjectBaseEN2Qt14ConnectionTypeEPKiPK11QMetaObject
libQt5Core.so.5:_ZN7QObject11customEventEP6QEvent
libQt5Core.so.5:_ZN7QObject11deleteLaterEv
libQt5Core.so.5:_ZN7QObject11eventFilterEPS_P6QEvent
libQt5Core.so.5:_ZN7QObject11qt_metacallEN11QMetaObject4CallEiPPv
libQt5Core.so.5:_ZN7QObject11qt_metacastEPKc
libQt5Core.so.5:_ZN7QObject11setPropertyEPKcRK8QVariant
libQt5Core.so.5:_ZN7QObject13connectNotifyERK11QMetaMethod
libQt5Core.so.5:_ZN7QObject13setObjectNameERK7QString
libQt5Core.so.5:_ZN7QObject14disconnectImplEPKS_PPvS1_S3_PK11QMetaObject
libQt5Core.so.5:_ZN7QObject16disconnectNotifyERK11QMetaMethod
libQt5Core.so.5:_ZN7QObject16staticMetaObjectE
libQt5Core.so.5:_ZN7QObject5eventEP6QEvent
libQt5Core.so.5:_ZN7QObject7connectEPKS_PKcS1_S3_N2Qt14ConnectionTypeE
libQt5Core.so.5:_ZN7QObject9destroyedEPS_
libQt5Core.so.5:_ZN7QObjectC2EPS_
libQt5Core.so.5:_ZN7QObjectD2Ev
libQt5Core.so.5:_ZN7QRegExpC1ERK7QStringN2Qt15CaseSensitivityENS_13PatternSyntaxE
libQt5Core.so.5:_ZN7QRegExpD1Ev
libQt5Core.so.5:_ZN7QString11reallocDataEjb
libQt5Core.so.5:_ZN7QString13toUtf8_helperERKS_
libQt5Core.so.5:_ZN7QString14compare_helperEPK5QChariPKciN2Qt15CaseSensitivityE
libQt5Core.so.5:_ZN7QString14toLower_helperERKS_
libQt5Core.so.5:_ZN7QString14toLower_helperERS_
libQt5Core.so.5:_ZN7QString14toUpper_helperERS_
libQt5Core.so.5:_ZN7QString14trimmed_helperERKS_
libQt5Core.so.5:_ZN7QString15fromUtf8_helperEPKci
libQt5Core.so.5:_ZN7QString15toLatin1_helperERKS_
libQt5Core.so.5:_ZN7QString16fromAscii_helperEPKci
libQt5Core.so.5:_ZN7QString17fromLatin1_helperEPKci
libQt5Core.so.5:_ZN7QString17simplified_helperERKS_
libQt5Core.so.5:_ZN7QString17simplified_helperERS_
libQt5Core.so.5:_ZN7QString18toLocal8Bit_helperEPK5QChari
libQt5Core.so.5:_ZN7QString20fromLocal8Bit_helperEPKci
libQt5Core.so.5:_ZN7QString23toLatin1_helper_inplaceERS_
libQt5Core.so.5:_ZN7QString4chopEi
libQt5Core.so.5:_ZN7QString6appendE13QLatin1String
libQt5Core.so.5:_ZN7QString6appendE5QChar
libQt5Core.so.5:_ZN7QString6appendERKS_
libQt5Core.so.5:_ZN7QString6insertEi5QChar
libQt5Core.so.5:_ZN7QString6numberEii
libQt5Core.so.5:_ZN7QString6numberEji
libQt5Core.so.5:_ZN7QString6removeE13QLatin1StringN2Qt15CaseSensitivityE
libQt5Core.so.5:_ZN7QString6removeE5QCharN2Qt15CaseSensitivityE
libQt5Core.so.5:_ZN7QString6removeERKS_N2Qt15CaseSensitivityE
libQt5Core.so.5:_ZN7QString6removeEii
libQt5Core.so.5:_ZN7QString6resizeEi
libQt5Core.so.5:_ZN7QString6setNumExi
libQt5Core.so.5:_ZN7QString7replaceE13QLatin1StringRKS_N2Qt15CaseSensitivityE
libQt5Core.so.5:_ZN7QString7replaceERK7QRegExpRKS_
libQt5Core.so.5:_ZN7QString7replaceERKS_S1_N2Qt15CaseSensitivityE
libQt5Core.so.5:_ZN7QString7replaceEiiRKS_
libQt5Core.so.5:_ZN7QString8truncateEi
libQt5Core.so.5:_ZN7QString9vasprintfEPKcP13__va_list_tag
libQt5Core.so.5:_ZN7QStringC1E5QChar
libQt5Core.so.5:_ZN7QStringC1EiN2Qt14InitializationE
libQt5Core.so.5:_ZN7QStringaSE13QLatin1String
libQt5Core.so.5:_ZN7QStringaSE5QChar
libQt5Core.so.5:_ZN7QStringaSERKS_
libQt5Core.so.5:_ZN7QThread11qt_metacallEN11QMetaObject4CallEiPPv
libQt5Core.so.5:_ZN7QThread11qt_metacastEPKc
libQt5Core.so.5:_ZN7QThread16staticMetaObjectE
libQt5Core.so.5:_ZN7QThread4waitE14QDeadlineTimer
libQt5Core.so.5:_ZN7QThread5eventEP6QEvent
libQt5Core.so.5:_ZN7QThread5startENS_8PriorityE
libQt5Core.so.5:_ZN7QThreadC2EP7QObject
libQt5Core.so.5:_ZN7QThreadD2Ev
libQt5Core.so.5:_ZN8QProcess10setProgramERK7QString
libQt5Core.so.5:_ZN8QProcess12setArgumentsERK11QStringList
libQt5Core.so.5:_ZN8QProcess13errorOccurredENS_12ProcessErrorE
libQt5Core.so.5:_ZN8QProcess14setReadChannelENS_14ProcessChannelE
libQt5Core.so.5:_ZN8QProcess14waitForStartedEi
libQt5Core.so.5:_ZN8QProcess15waitForFinishedEi
libQt5Core.so.5:_ZN8QProcess16staticMetaObjectE
libQt5Core.so.5:_ZN8QProcess21readAllStandardOutputEv
libQt5Core.so.5:_ZN8QProcess23readyReadStandardOutputENS_14QPrivateSignalE
libQt5Core.so.5:_ZN8QProcess5startE6QFlagsIN9QIODevice12OpenModeFlagEE
libQt5Core.so.5:_ZN8QProcess8finishedEiNS_10ExitStatusE
libQt5Core.so.5:_ZN8QProcessC1EP7QObject
libQt5Core.so.5:_ZN8QProcessD1Ev
libQt5Core.so.5:_ZN8QVariantC1E13QLatin1String
libQt5Core.so.5:_ZN8QVariantC1EPKc
libQt5Core.so.5:_ZN8QVariantC1ERK11QStringList
libQt5Core.so.5:_ZN8QVariantC1ERK4QMapI7QStringS_E
libQt5Core.so.5:_ZN8QVariantC1ERK7QString
libQt5Core.so.5:_ZN8QVariantC1ERK9QDateTime
libQt5Core.so.5:_ZN8QVariantC1ERKS_
libQt5Core.so.5:_ZN8QVariantC1Eb
libQt5Core.so.5:_ZN8QVariantC1Ei
libQt5Core.so.5:_ZN8QVariantC1EiPKvj
libQt5Core.so.5:_ZN8QVariantC1Ej
libQt5Core.so.5:_ZN8QVariantC1Ey
libQt5Core.so.5:_ZN8QVariantD1Ev
libQt5Core.so.5:_ZN8QVariantaSERKS_
libQt5Core.so.5:_ZN9QDateTime15currentDateTimeEv
libQt5Core.so.5:_ZN9QDateTimeC1ERKS_
libQt5Core.so.5:_ZN9QDateTimeC1Ev
libQt5Core.so.5:_ZN9QDateTimeD1Ev
libQt5Core.so.5:_ZN9QDateTimeaSERKS_
libQt5Core.so.5:_ZN9QFileInfoC1ERK7QString
libQt5Core.so.5:_ZN9QFileInfoD1Ev
libQt5Core.so.5:_ZN9QHashData11free_helperEPFvPNS_4NodeEE
libQt5Core.so.5:_ZN9QHashData11shared_nullE
libQt5Core.so.5:_ZN9QHashData12allocateNodeEi
libQt5Core.so.5:_ZN9QHashData12previousNodeEPNS_4NodeE
libQt5Core.so.5:_ZN9QHashData13detach_helperEPFvPNS_4NodeEPvEPFvS1_Eii
libQt5Core.so.5:_ZN9QHashData6rehashEi
libQt5Core.so.5:_ZN9QHashData8freeNodeEPv
libQt5Core.so.5:_ZN9QHashData8nextNodeEPNS_4NodeE
libQt5Core.so.5:_ZN9QIODevice5writeEPKc
libQt5Core.so.5:_ZN9QIODevice5writeEPKcx
libQt5Core.so.5:_ZN9QIODevice7readAllEv
libQt5Core.so.5:_ZN9QListData11detach_growEPii
libQt5Core.so.5:_ZN9QListData11shared_nullE
libQt5Core.so.5:_ZN9QListData5eraseEPPv
libQt5Core.so.5:_ZN9QListData6appendERKS_
libQt5Core.so.5:_ZN9QListData6appendEv
libQt5Core.so.5:_ZN9QListData6detachEi
libQt5Core.so.5:_ZN9QListData6removeEi
libQt5Core.so.5:_ZN9QListData7disposeEPNS_4DataE
libQt5Core.so.5:_ZN9QListData7reallocEi
libQt5Core.so.5:_ZN9QMetaType22registerNormalizedTypeERK10QByteArrayPFvPvEPFS3_S3_PKvEi6QFlagsINS_8TypeFlagEEPK11QMetaObject
libQt5Core.so.5:_ZN9QMetaType25registerConverterFunctionEPKN9QtPrivate25AbstractConverterFunctionEii
libQt5Core.so.5:_ZN9QMetaType25registerNormalizedTypedefERK10QByteArrayi
libQt5Core.so.5:_ZN9QMetaType27unregisterConverterFunctionEii
libQt5Core.so.5:_ZN9QMetaType30hasRegisteredConverterFunctionEii
libQt5Core.so.5:_ZN9QtPrivate12argToQStringE11QStringViewmPPKNS_7ArgBaseE
libQt5Core.so.5:_ZN9QtPrivate16QStringList_joinEPK11QStringListPK5QChari
libQt5Core.so.5:_ZN9QtPrivate16QStringList_joinERK11QStringList13QLatin1String
libQt5Core.so.5:_ZN9QtPrivate16QStringList_sortEP11QStringListN2Qt15CaseSensitivityE
libQt5Core.so.5:_ZN9QtPrivate20QStringList_containsEPK11QStringListRK7QStringN2Qt15CaseSensitivityE
libQt5Core.so.5:_ZN9QtPrivate28QStringList_replaceInStringsEP11QStringListRK7QStringS4_N2Qt15CaseSensitivityE
libQt5Core.so.5:_ZNK10QByteArray4leftEi
libQt5Core.so.5:_ZNK10QByteArray5splitEc
libQt5Core.so.5:_ZNK10QByteArray5toHexEv
libQt5Core.so.5:_ZNK10QByteArray6isNullEv
libQt5Core.so.5:_ZNK10QByteArray7indexOfEci
libQt5Core.so.5:_ZNK10QByteArray8toBase64Ev
libQt5Core.so.5:_ZNK10QStringRef5toIntEPbi
libQt5Core.so.5:_ZNK11QJsonObject12toVariantMapEv
libQt5Core.so.5:_ZNK11QMetaObject4castEP7QObject
libQt5Core.so.5:_ZNK11QMetaObject9classNameEv
libQt5Core.so.5:_ZNK11QObjectData17dynamicMetaObjectEv
libQt5Core.so.5:_ZNK11QTextStream5atEndEv
libQt5Core.so.5:_ZNK12QMapNodeBase12previousNodeEv
libQt5Core.so.5:_ZNK12QMapNodeBase8nextNodeEv
libQt5Core.so.5:_ZNK14QMessageLogger5debugEv
libQt5Core.so.5:_ZNK14QMessageLogger7warningEv
libQt5Core.so.5:_ZNK18QAbstractItemModel10headerDataEiN2Qt11OrientationEi
libQt5Core.so.5:_ZNK18QAbstractItemModel12canFetchMoreERK11QModelIndex
libQt5Core.so.5:_ZNK18QAbstractItemModel15canDropMimeDataEPK9QMimeDataN2Qt10DropActionEiiRK11QModelIndex
libQt5Core.so.5:_ZNK18QAbstractItemModel20supportedDragActionsEv
libQt5Core.so.5:_ZNK18QAbstractItemModel20supportedDropActionsEv
libQt5Core.so.5:_ZNK18QAbstractItemModel4spanERK11QModelIndex
libQt5Core.so.5:_ZNK18QAbstractItemModel5buddyERK11QModelIndex
libQt5Core.so.5:_ZNK18QAbstractItemModel5matchERK11QModelIndexiRK8QVarianti6QFlagsIN2Qt9MatchFlagEE
libQt5Core.so.5:_ZNK18QAbstractItemModel8itemDataERK11QModelIndex
libQt5Core.so.5:_ZNK18QAbstractItemModel8mimeDataERK5QListI11QModelIndexE
libQt5Core.so.5:_ZNK18QAbstractItemModel9mimeTypesEv
libQt5Core.so.5:_ZNK18QAbstractItemModel9roleNamesEv
libQt5Core.so.5:_ZNK18QAbstractListModel11columnCountERK11QModelIndex
libQt5Core.so.5:_ZNK18QAbstractListModel11hasChildrenERK11QModelIndex
libQt5Core.so.5:_ZNK18QAbstractListModel5flagsERK11QModelIndex
libQt5Core.so.5:_ZNK18QAbstractListModel5indexEiiRK11QModelIndex
libQt5Core.so.5:_ZNK18QAbstractListModel6parentERK11QModelIndex
libQt5Core.so.5:_ZNK18QAbstractListModel7siblingEiiRK11QModelIndex
libQt5Core.so.5:_ZNK18QCryptographicHash6resultEv
libQt5Core.so.5:_ZNK19QAbstractProxyModel11hasChildrenERK11QModelIndex
libQt5Core.so.5:_ZNK19QAbstractProxyModel11sourceModelEv
libQt5Core.so.5:_ZNK19QAbstractProxyModel12canFetchMoreERK11QModelIndex
libQt5Core.so.5:_ZNK19QAbstractProxyModel15canDropMimeDataEPK9QMimeDataN2Qt10DropActionEiiRK11QModelIndex
libQt5Core.so.5:_ZNK19QAbstractProxyModel20supportedDragActionsEv
libQt5Core.so.5:_ZNK19QAbstractProxyModel20supportedDropActionsEv
libQt5Core.so.5:_ZNK19QAbstractProxyModel4spanERK11QModelIndex
libQt5Core.so.5:_ZNK19QAbstractProxyModel5buddyERK11QModelIndex
libQt5Core.so.5:_ZNK19QAbstractProxyModel5flagsERK11QModelIndex
libQt5Core.so.5:_ZNK19QAbstractProxyModel8itemDataERK11QModelIndex
libQt5Core.so.5:_ZNK19QAbstractProxyModel8mimeDataERK5QListI11QModelIndexE
libQt5Core.so.5:_ZNK19QAbstractProxyModel9mimeTypesEv
libQt5Core.so.5:_ZNK19QIdentityProxyModel10headerDataEiN2Qt11OrientationEi
libQt5Core.so.5:_ZNK19QIdentityProxyModel11mapToSourceERK11QModelIndex
libQt5Core.so.5:_ZNK19QIdentityProxyModel13mapFromSourceERK11QModelIndex
libQt5Core.so.5:_ZNK19QIdentityProxyModel20mapSelectionToSourceERK14QItemSelection
libQt5Core.so.5:_ZNK19QIdentityProxyModel22mapSelectionFromSourceERK14QItemSelection
libQt5Core.so.5:_ZNK19QIdentityProxyModel5matchERK11QModelIndexiRK8QVarianti6QFlagsIN2Qt9MatchFlagEE
libQt5Core.so.5:_ZNK19QIdentityProxyModel6parentERK11QModelIndex
libQt5Core.so.5:_ZNK19QIdentityProxyModel7siblingEiiRK11QModelIndex
libQt5Core.so.5:_ZNK19QIdentityProxyModel8rowCountERK11QModelIndex
libQt5Core.so.5:_ZNK19QItemSelectionModel12hasSelectionEv
libQt5Core.so.5:_ZNK19QItemSelectionModel15selectedIndexesEv
libQt5Core.so.5:_ZNK19QProcessEnvironment5valueERK7QStringS2_
libQt5Core.so.5:_ZNK20QAssociativeIterable14const_iterator3keyEv
libQt5Core.so.5:_ZNK20QAssociativeIterable14const_iterator5valueEv
libQt5Core.so.5:_ZNK20QAssociativeIterable14const_iteratorneERKS0_
libQt5Core.so.5:_ZNK20QAssociativeIterable3endEv
libQt5Core.so.5:_ZNK20QAssociativeIterable5beginEv
libQt5Core.so.5:_ZNK21QSortFilterProxyModel10headerDataEiN2Qt11OrientationEi
libQt5Core.so.5:_ZNK21QSortFilterProxyModel11columnCountERK11QModelIndex
libQt5Core.so.5:_ZNK21QSortFilterProxyModel11hasChildrenERK11QModelIndex
libQt5Core.so.5:_ZNK21QSortFilterProxyModel11mapToSourceERK11QModelIndex
libQt5Core.so.5:_ZNK21QSortFilterProxyModel12canFetchMoreERK11QModelIndex
libQt5Core.so.5:_ZNK21QSortFilterProxyModel12filterRegExpEv
libQt5Core.so.5:_ZNK21QSortFilterProxyModel13mapFromSourceERK11QModelIndex
libQt5Core.so.5:_ZNK21QSortFilterProxyModel19filterAcceptsColumnEiRK11QModelIndex
libQt5Core.so.5:_ZNK21QSortFilterProxyModel20mapSelectionToSourceERK14QItemSelection
libQt5Core.so.5:_ZNK21QSortFilterProxyModel20supportedDropActionsEv
libQt5Core.so.5:_ZNK21QSortFilterProxyModel22mapSelectionFromSourceERK14QItemSelection
libQt5Core.so.5:_ZNK21QSortFilterProxyModel4dataERK11QModelIndexi
libQt5Core.so.5:_ZNK21QSortFilterProxyModel4spanERK11QModelIndex
libQt5Core.so.5:_ZNK21QSortFilterProxyModel5buddyERK11QModelIndex
libQt5Core.so.5:_ZNK21QSortFilterProxyModel5flagsERK11QModelIndex
libQt5Core.so.5:_ZNK21QSortFilterProxyModel5indexEiiRK11QModelIndex
libQt5Core.so.5:_ZNK21QSortFilterProxyModel5matchERK11QModelIndexiRK8QVarianti6QFlagsIN2Qt9MatchFlagEE
libQt5Core.so.5:_ZNK21QSortFilterProxyModel6parentERK11QModelIndex
libQt5Core.so.5:_ZNK21QSortFilterProxyModel7siblingEiiRK11QModelIndex
libQt5Core.so.5:_ZNK21QSortFilterProxyModel8mimeDataERK5QListI11QModelIndexE
libQt5Core.so.5:_ZNK21QSortFilterProxyModel8rowCountERK11QModelIndex
libQt5Core.so.5:_ZNK21QSortFilterProxyModel9mimeTypesEv
libQt5Core.so.5:_ZNK4QDir12absolutePathEv
libQt5Core.so.5:_ZNK4QDir6mkpathERK7QString
libQt5Core.so.5:_ZNK4QUrl11toLocalFileEv
libQt5Core.so.5:_ZNK4QUrl4pathE6QFlagsINS_25ComponentFormattingOptionEE
libQt5Core.so.5:_ZNK4QUrl7isEmptyEv
libQt5Core.so.5:_ZNK4QUrl7isValidEv
libQt5Core.so.5:_ZNK4QUrl8adjustedE12QUrlTwoFlagsINS_19UrlFormattingOptionENS_25ComponentFormattingOptionEE
libQt5Core.so.5:_ZNK4QUrl8toStringE12QUrlTwoFlagsINS_19UrlFormattingOptionENS_25ComponentFormattingOptionEE
libQt5Core.so.5:_ZNK5QTime4hourEv
libQt5Core.so.5:_ZNK5QTime6minuteEv
libQt5Core.so.5:_ZNK5QTime6secondEv
libQt5Core.so.5:_ZNK7QLocale11uiLanguagesEv
libQt5Core.so.5:_ZNK7QLocale17nativeCountryNameEv
libQt5Core.so.5:_ZNK7QLocale4nameEv
libQt5Core.so.5:_ZNK7QLocale7countryEv
libQt5Core.so.5:_ZNK7QLocale8toStringERK5QDateNS_10FormatTypeE
libQt5Core.so.5:_ZNK7QObject10objectNameEv
libQt5Core.so.5:_ZNK7QObject6senderEv
libQt5Core.so.5:_ZNK7QObject8propertyEPKc
libQt5Core.so.5:_ZNK7QRegExp7isEmptyEv
libQt5Core.so.5:_ZNK7QRegExp7patternEv
libQt5Core.so.5:_ZNK7QString10startsWithE13QLatin1StringN2Qt15CaseSensitivityE
libQt5Core.so.5:_ZNK7QString10startsWithE5QCharN2Qt15CaseSensitivityE
libQt5Core.so.5:_ZNK7QString10startsWithERKS_N2Qt15CaseSensitivityE
libQt5Core.so.5:_ZNK7QString13toHtmlEscapedEv
libQt5Core.so.5:_ZNK7QString18localeAwareCompareERKS_
libQt5Core.so.5:_ZNK7QString3argE13QLatin1Stringi5QChar
libQt5Core.so.5:_ZNK7QString3argERKS_i5QChar
libQt5Core.so.5:_ZNK7QString3argExii5QChar
libQt5Core.so.5:_ZNK7QString3argEyii5QChar
libQt5Core.so.5:_ZNK7QString3midEii
libQt5Core.so.5:_ZNK7QString4leftEi
libQt5Core.so.5:_ZNK7QString5rightEi
libQt5Core.so.5:_ZNK7QString5splitE5QChar6QFlagsIN2Qt18SplitBehaviorFlagsEENS2_15CaseSensitivityE
libQt5Core.so.5:_ZNK7QString5splitE5QCharNS_13SplitBehaviorEN2Qt15CaseSensitivityE
libQt5Core.so.5:_ZNK7QString5splitERK7QRegExp6QFlagsIN2Qt18SplitBehaviorFlagsEE
libQt5Core.so.5:_ZNK7QString5splitERKS_6QFlagsIN2Qt18SplitBehaviorFlagsEENS3_15CaseSensitivityE
libQt5Core.so.5:_ZNK7QString5toIntEPbi
libQt5Core.so.5:_ZNK7QString6toLongEPbi
libQt5Core.so.5:_ZNK7QString6toUIntEPbi
libQt5Core.so.5:_ZNK7QString7indexOfE13QLatin1StringiN2Qt15CaseSensitivityE
libQt5Core.so.5:_ZNK7QString7indexOfE5QChariN2Qt15CaseSensitivityE
libQt5Core.so.5:_ZNK7QString7indexOfERK7QRegExpi
libQt5Core.so.5:_ZNK7QString7indexOfERKS_iN2Qt15CaseSensitivityE
libQt5Core.so.5:_ZNK7QString7sectionERKS_ii6QFlagsINS_11SectionFlagEE
libQt5Core.so.5:_ZNK7QString8endsWithE13QLatin1StringN2Qt15CaseSensitivityE
libQt5Core.so.5:_ZNK7QString8endsWithE5QCharN2Qt15CaseSensitivityE
libQt5Core.so.5:_ZNK7QString8endsWithERKS_N2Qt15CaseSensitivityE
libQt5Core.so.5:_ZNK7QString8splitRefE5QChar6QFlagsIN2Qt18SplitBehaviorFlagsEENS2_15CaseSensitivityE
libQt5Core.so.5:_ZNK7QStringeqE13QLatin1String
libQt5Core.so.5:_ZNK8QProcess10exitStatusEv
libQt5Core.so.5:_ZNK8QVariant10canConvertEi
libQt5Core.so.5:_ZNK8QVariant10toDateTimeEv
libQt5Core.so.5:_ZNK8QVariant12toStringListEv
libQt5Core.so.5:_ZNK8QVariant3cmpERKS_
libQt5Core.so.5:_ZNK8QVariant5toIntEPb
libQt5Core.so.5:_ZNK8QVariant6isNullEv
libQt5Core.so.5:_ZNK8QVariant6toBoolEv
libQt5Core.so.5:_ZNK8QVariant6toUIntEPb
libQt5Core.so.5:_ZNK8QVariant7convertEiPv
libQt5Core.so.5:_ZNK8QVariant8toStringEv
libQt5Core.so.5:_ZNK8QVariant8userTypeEv
libQt5Core.so.5:_ZNK8QVariant9constDataEv
libQt5Core.so.5:_ZNK9QDateTime4dateEv
libQt5Core.so.5:_ZNK9QDateTime6daysToERKS_
libQt5Core.so.5:_ZNK9QDateTime6secsToERKS_
libQt5Core.so.5:_ZNK9QDateTime7isValidEv
libQt5Core.so.5:_ZNK9QDateTime7msecsToERKS_
libQt5Core.so.5:_ZNK9QDateTimeeqERKS_
libQt5Core.so.5:_ZNK9QDateTimeltERKS_
libQt5Core.so.5:_ZNK9QFileInfo10isRelativeEv
libQt5Core.so.5:_ZNK9QFileInfo16completeBaseNameEv
libQt5Core.so.5:_ZNK9QFileInfo3dirEv
libQt5Core.so.5:_ZNK9QFileInfo6suffixEv
libQt5Core.so.5:_ZNK9QFileInfo8fileNameEv
libQt5Core.so.5:_ZNK9QIODevice11errorStringEv
libQt5Core.so.5:_ZNK9QIODevice6isOpenEv
libQt5Core.so.5:_ZTI18QAbstractListModel
libQt5Core.so.5:_ZTI19QIdentityProxyModel
libQt5Core.so.5:_ZTI21QSortFilterProxyModel
libQt5Core.so.5:_ZTI7QObject
libQt5Core.so.5:_ZTI7QThread
libQt5Core.so.5:_ZeqRK7QStringS1_
libQt5Core.so.5:_Zls6QDebugRK8QVariant
libQt5Core.so.5:_ZltRK7QStringS1_
libQt5Core.so.5:qt_version_tag
libQt5DBus.so.5:_ZN12QDBusMessage12setArgumentsERK5QListI8QVariantE
libQt5DBus.so.5:_ZN12QDBusMessage16createMethodCallERK7QStringS2_S2_S2_
libQt5DBus.so.5:_ZN12QDBusMessageC1ERKS_
libQt5DBus.so.5:_ZN12QDBusMessageC1Ev
libQt5DBus.so.5:_ZN12QDBusMessageD1Ev
libQt5DBus.so.5:_ZN12QDBusMessageaSERKS_
libQt5DBus.so.5:_ZN13QDBusArgument11endMapEntryEv
libQt5DBus.so.5:_ZN13QDBusArgument13beginMapEntryEv
libQt5DBus.so.5:_ZN13QDBusArgument6endMapEv
libQt5DBus.so.5:_ZN13QDBusArgument8beginMapEii
libQt5DBus.so.5:_ZN13QDBusArgumentC1ERKS_
libQt5DBus.so.5:_ZN13QDBusArgumentC1Ev
libQt5DBus.so.5:_ZN13QDBusArgumentD1Ev
libQt5DBus.so.5:_ZN13QDBusArgumentlsERK12QDBusVariant
libQt5DBus.so.5:_ZN13QDBusArgumentlsERK15QDBusObjectPath
libQt5DBus.so.5:_ZN13QDBusArgumentlsERK7QString
libQt5DBus.so.5:_ZN13QDBusMetaType25registerMarshallOperatorsEiPFvR13QDBusArgumentPKvEPFvRKS0_PvE
libQt5DBus.so.5:_ZN14QDBusInterfaceC1ERK7QStringS2_S2_RK15QDBusConnectionP7QObject
libQt5DBus.so.5:_ZN14QDBusInterfaceD1Ev
libQt5DBus.so.5:_ZN15QDBusConnection10sessionBusEv
libQt5DBus.so.5:_ZN15QDBusConnection14registerObjectERK7QStringP7QObject6QFlagsINS_14RegisterOptionEE
libQt5DBus.so.5:_ZN15QDBusConnection15registerServiceERK7QString
libQt5DBus.so.5:_ZN15QDBusConnection7connectERK7QStringS2_S2_S2_P7QObjectPKc
libQt5DBus.so.5:_ZN15QDBusConnection9systemBusEv
libQt5DBus.so.5:_ZN15QDBusConnectionD1Ev
libQt5DBus.so.5:_ZN16QDBusPendingCall15waitForFinishedEv
libQt5DBus.so.5:_ZN16QDBusPendingCallC1ERKS_
libQt5DBus.so.5:_ZN16QDBusPendingCallC2ERKS_
libQt5DBus.so.5:_ZN16QDBusPendingCallD1Ev
libQt5DBus.so.5:_ZN21QDBusPendingReplyData12setMetaTypesEiPKi
libQt5DBus.so.5:_ZN21QDBusPendingReplyData6assignERK16QDBusPendingCall
libQt5DBus.so.5:_ZN21QDBusPendingReplyDataC2Ev
libQt5DBus.so.5:_ZN21QDBusPendingReplyDataD2Ev
libQt5DBus.so.5:_ZN22QDBusAbstractInterface6doCallEN5QDBus8CallModeERK7QStringPK8QVariantm
libQt5DBus.so.5:_ZN23QDBusPendingCallWatcher16staticMetaObjectE
libQt5DBus.so.5:_ZN23QDBusPendingCallWatcher8finishedEPS_
libQt5DBus.so.5:_ZN23QDBusPendingCallWatcherC1ERK16QDBusPendingCallP7QObject
libQt5DBus.so.5:_ZNK10QDBusError7messageEv
libQt5DBus.so.5:_ZNK12QDBusContext15setDelayedReplyEb
libQt5DBus.so.5:_ZNK12QDBusContext7messageEv
libQt5DBus.so.5:_ZNK12QDBusMessage11createReplyERK5QListI8QVariantE
libQt5DBus.so.5:_ZNK13QDBusArgument11endMapEntryEv
libQt5DBus.so.5:_ZNK13QDBusArgument13beginMapEntryEv
libQt5DBus.so.5:_ZNK13QDBusArgument5atEndEv
libQt5DBus.so.5:_ZNK13QDBusArgument6endMapEv
libQt5DBus.so.5:_ZNK13QDBusArgument8beginMapEv
libQt5DBus.so.5:_ZNK13QDBusArgumentrsER11QStringList
libQt5DBus.so.5:_ZNK13QDBusArgumentrsER12QDBusVariant
libQt5DBus.so.5:_ZNK13QDBusArgumentrsER15QDBusObjectPath
libQt5DBus.so.5:_ZNK13QDBusArgumentrsER7QString
libQt5DBus.so.5:_ZNK13QDBusArgumentrsERj
libQt5DBus.so.5:_ZNK15QDBusConnection4sendERK12QDBusMessage
libQt5DBus.so.5:_ZNK15QDBusConnection9asyncCallERK12QDBusMessagei
libQt5DBus.so.5:_ZNK15QDBusConnection9interfaceEv
libQt5DBus.so.5:_ZNK16QDBusPendingCall5errorEv
libQt5DBus.so.5:_ZNK16QDBusPendingCall7isErrorEv
libQt5DBus.so.5:_ZNK16QDBusPendingCall7isValidEv
libQt5DBus.so.5:_ZNK21QDBusPendingReplyData10argumentAtEi
libQt5DBus.so.5:_ZNK24QDBusConnectionInterface19isServiceRegisteredERK7QString
libQt5DBus.so.5:_ZrsRK13QDBusArgumentR8QVariant
libQt5Gui.so.5:_ZN10QValidator11qt_metacallEN11QMetaObject4CallEiPPv
libQt5Gui.so.5:_ZN10QValidator11qt_metacastEPKc
libQt5Gui.so.5:_ZN10QValidatorC2EP7QObject
libQt5Gui.so.5:_ZN10QValidatorD2Ev
libQt5Gui.so.5:_ZN13QIntValidator6setTopEi
libQt5Gui.so.5:_ZN13QIntValidator8setRangeEii
libQt5Gui.so.5:_ZN13QIntValidator9setBottomEi
libQt5Gui.so.5:_ZN13QIntValidatorC1EP7QObject
libQt5Gui.so.5:_ZN13QIntValidatorC1EiiP7QObject
libQt5Gui.so.5:_ZN13QStandardItemC1ERK7QString
libQt5Gui.so.5:_ZN13QStandardItemC1Ev
libQt5Gui.so.5:_ZN16QDesktopServices7openUrlERK4QUrl
libQt5Gui.so.5:_ZN16QRegExpValidatorC1ERK7QRegExpP7QObject
libQt5Gui.so.5:_ZN16QRegExpValidatorD1Ev
libQt5Gui.so.5:_ZN18QStandardItemModel10removeRowsEiiRK11QModelIndex
libQt5Gui.so.5:_ZN18QStandardItemModel11itemChangedEP13QStandardItem
libQt5Gui.so.5:_ZN18QStandardItemModel16staticMetaObjectE
libQt5Gui.so.5:_ZN18QStandardItemModel23setHorizontalHeaderItemEiP13QStandardItem
libQt5Gui.so.5:_ZN18QStandardItemModel7takeRowEi
libQt5Gui.so.5:_ZN18QStandardItemModel9appendRowERK5QListIP13QStandardItemE
libQt5Gui.so.5:_ZN18QStandardItemModelC1EiiP7QObject
libQt5Gui.so.5:_ZN18QStandardItemModelD1Ev
libQt5Gui.so.5:_ZN27QRegularExpressionValidator20setRegularExpressionERK18QRegularExpression
libQt5Gui.so.5:_ZN27QRegularExpressionValidatorC1EP7QObject
libQt5Gui.so.5:_ZN27QRegularExpressionValidatorC1ERK18QRegularExpressionP7QObject
libQt5Gui.so.5:_ZN27QRegularExpressionValidatorD1Ev
libQt5Gui.so.5:_ZN5QFont12setPointSizeEi
libQt5Gui.so.5:_ZN5QFont8setStyleENS_5StyleE
libQt5Gui.so.5:_ZN5QFont9setWeightEi
libQt5Gui.so.5:_ZN5QFontC1ERKS_
libQt5Gui.so.5:_ZN5QFontC1Ev
libQt5Gui.so.5:_ZN5QFontD1Ev
libQt5Gui.so.5:_ZN5QIcon12hasThemeIconERK7QString
libQt5Gui.so.5:_ZN5QIcon7addFileERK7QStringRK5QSizeNS_4ModeENS_5StateE
libQt5Gui.so.5:_ZN5QIcon9fromThemeERK7QString
libQt5Gui.so.5:_ZN5QIconC1Ev
libQt5Gui.so.5:_ZN5QIconD1Ev
libQt5Gui.so.5:_ZN6QColorC1EN2Qt11GlobalColorE
libQt5Gui.so.5:_ZN7QPixmapD1Ev
libQt5Gui.so.5:_ZN8QPaletteC1Ev
libQt5Gui.so.5:_ZN8QPaletteD1Ev
libQt5Gui.so.5:_ZNK10QValidator10metaObjectEv
libQt5Gui.so.5:_ZNK10QValidator5fixupER7QString
libQt5Gui.so.5:_ZNK13QStandardItem3rowEv
libQt5Gui.so.5:_ZNK13QStandardItem6columnEv
libQt5Gui.so.5:_ZNK13QTextDocument11toPlainTextEv
libQt5Gui.so.5:_ZNK16QRegExpValidator8validateER7QStringRi
libQt5Gui.so.5:_ZNK18QStandardItemModel4itemEii
libQt5Gui.so.5:_ZNK18QStandardItemModel8rowCountERK11QModelIndex
libQt5Gui.so.5:_ZNK27QRegularExpressionValidator8validateER7QStringRi
libQt5Gui.so.5:_ZNK5QIcon6pixmapERK5QSizeNS_4ModeENS_5StateE
libQt5Gui.so.5:_ZNK6QColorcv8QVariantEv
libQt5Gui.so.5:_ZNK8QPalette5brushENS_10ColorGroupENS_9ColorRoleE
libQt5Gui.so.5:_ZTI10QValidator
libQt5Network.so.5:_ZN12QHostAddress11parseSubnetERK7QString
libQt5Network.so.5:_ZN12QHostAddressC1ERK7QString
libQt5Network.so.5:_ZN12QHostAddressC1ERKS_
libQt5Network.so.5:_ZN12QHostAddressC1Ej
libQt5Network.so.5:_ZN12QHostAddressD1Ev
libQt5Network.so.5:_ZN20QNetworkAddressEntry10setNetmaskERK12QHostAddress
libQt5Network.so.5:_ZN20QNetworkAddressEntry15setPrefixLengthEi
libQt5Network.so.5:_ZN20QNetworkAddressEntry5setIpERK12QHostAddress
libQt5Network.so.5:_ZN9QHostInfo13localHostNameEv
libQt5Network.so.5:_ZNK12QHostAddress13toIPv4AddressEv
libQt5Network.so.5:_ZNK12QHostAddress13toIPv6AddressEv
libQt5Network.so.5:_ZNK12QHostAddress6isNullEv
libQt5Network.so.5:_ZNK12QHostAddress8protocolEv
libQt5Network.so.5:_ZNK12QHostAddress8toStringEv
libQt5Network.so.5:_ZNK20QNetworkAddressEntry12prefixLengthEv
libQt5Network.so.5:_ZNK20QNetworkAddressEntry2ipEv
libQt5Network.so.5:_ZNK20QNetworkAddressEntry7netmaskEv
libQt5Qml.so.5:_ZN11QQmlContext18setContextPropertyERK7QStringRK8QVariant
libQt5Qml.so.5:_ZN11QQmlPrivate11qmlregisterENS_16RegistrationTypeEPv
libQt5Qml.so.5:_ZN11QQmlPrivate30qdeclarativeelement_destructorEP7QObject
libQt5Qml.so.5:_ZN19QQmlExtensionPlugin11qt_metacallEN11QMetaObject4CallEiPPv
libQt5Qml.so.5:_ZN19QQmlExtensionPlugin11qt_metacastEPKc
libQt5Qml.so.5:_ZN19QQmlExtensionPlugin16initializeEngineEP10QQmlEnginePKc
libQt5Qml.so.5:_ZN19QQmlExtensionPlugin16staticMetaObjectE
libQt5Qml.so.5:_ZN19QQmlExtensionPluginC2EP7QObject
libQt5Qml.so.5:_ZN19QQmlExtensionPluginD2Ev
libQt5Qml.so.5:_ZTI19QQmlExtensionPlugin
libQt5Qml.so.5:_ZThn16_N19QQmlExtensionPlugin16initializeEngineEP10QQmlEnginePKc
libQt5QuickWidgets.so.5:_ZN12QQuickWidget13setClearColorERK6QColor
libQt5QuickWidgets.so.5:_ZN12QQuickWidget13setResizeModeENS_10ResizeModeE
libQt5QuickWidgets.so.5:_ZN12QQuickWidget9setSourceERK4QUrl
libQt5QuickWidgets.so.5:_ZN12QQuickWidgetC1EP7QWidget
libQt5QuickWidgets.so.5:_ZNK12QQuickWidget10rootObjectEv
libQt5QuickWidgets.so.5:_ZNK12QQuickWidget11rootContextEv
libQt5QuickWidgets.so.5:_ZNK12QQuickWidget6engineEv
libQt5Widgets.so.5:_ZN10QBoxLayout10setSpacingEi
libQt5Widgets.so.5:_ZN10QBoxLayout10setStretchEii
libQt5Widgets.so.5:_ZN10QBoxLayout9addLayoutEP7QLayouti
libQt5Widgets.so.5:_ZN10QBoxLayout9addWidgetEP7QWidgeti6QFlagsIN2Qt13AlignmentFlagEE
libQt5Widgets.so.5:_ZN10QBoxLayoutC1ENS_9DirectionEP7QWidget
libQt5Widgets.so.5:_ZN10QTabWidget10setTabTextEiRK7QString
libQt5Widgets.so.5:_ZN10QTabWidget12setElideModeEN2Qt13TextElideModeE
libQt5Widgets.so.5:_ZN10QTabWidget15setCurrentIndexEi
libQt5Widgets.so.5:_ZN10QTabWidget20setUsesScrollButtonsEb
libQt5Widgets.so.5:_ZN10QTabWidget6addTabEP7QWidgetRK7QString
libQt5Widgets.so.5:_ZN10QTabWidget9removeTabEi
libQt5Widgets.so.5:_ZN10QTabWidgetC1EP7QWidget
libQt5Widgets.so.5:_ZN10QTableView11setShowGridEb
libQt5Widgets.so.5:_ZN10QTableView12setGridStyleEN2Qt8PenStyleE
libQt5Widgets.so.5:_ZN10QTableView16staticMetaObjectE
libQt5Widgets.so.5:_ZN10QTableView9selectRowEi
libQt5Widgets.so.5:_ZN10QTableViewC1EP7QWidget
libQt5Widgets.so.5:_ZN11QFileDialog15getOpenFileNameEP7QWidgetRK7QStringS4_S4_PS2_6QFlagsINS_6OptionEE
libQt5Widgets.so.5:_ZN11QFileDialog15getSaveFileNameEP7QWidgetRK7QStringS4_S4_PS2_6QFlagsINS_6OptionEE
libQt5Widgets.so.5:_ZN11QFormLayout10setSpacingEi
libQt5Widgets.so.5:_ZN11QFormLayout17setLabelAlignmentE6QFlagsIN2Qt13AlignmentFlagEE
libQt5Widgets.so.5:_ZN11QFormLayout18setVerticalSpacingEi
libQt5Widgets.so.5:_ZN11QFormLayout20setFieldGrowthPolicyENS_17FieldGrowthPolicyE
libQt5Widgets.so.5:_ZN11QFormLayout6addRowEP7QWidget
libQt5Widgets.so.5:_ZN11QFormLayout6addRowEP7QWidgetS1_
libQt5Widgets.so.5:_ZN11QFormLayout6addRowERK7QStringP7QWidget
libQt5Widgets.so.5:_ZN11QFormLayout7setItemEiNS_8ItemRoleEP11QLayoutItem
libQt5Widgets.so.5:_ZN11QFormLayout9setLayoutEiNS_8ItemRoleEP7QLayout
libQt5Widgets.so.5:_ZN11QFormLayout9setWidgetEiNS_8ItemRoleEP7QWidget
libQt5Widgets.so.5:_ZN11QFormLayoutC1EP7QWidget
libQt5Widgets.so.5:_ZN11QGridLayout10setSpacingEi
libQt5Widgets.so.5:_ZN11QGridLayout18setVerticalSpacingEi
libQt5Widgets.so.5:_ZN11QGridLayout7addItemEP11QLayoutItemiiii6QFlagsIN2Qt13AlignmentFlagEE
libQt5Widgets.so.5:_ZN11QGridLayout9addLayoutEP7QLayoutiiii6QFlagsIN2Qt13AlignmentFlagEE
libQt5Widgets.so.5:_ZN11QGridLayout9addWidgetEP7QWidgetii6QFlagsIN2Qt13AlignmentFlagEE
libQt5Widgets.so.5:_ZN11QGridLayout9addWidgetEP7QWidgetiiii6QFlagsIN2Qt13AlignmentFlagEE
libQt5Widgets.so.5:_ZN11QGridLayoutC1EP7QWidget
libQt5Widgets.so.5:_ZN11QGridLayoutC1Ev
libQt5Widgets.so.5:_ZN11QHBoxLayoutC1EP7QWidget
libQt5Widgets.so.5:_ZN11QHBoxLayoutC1Ev
libQt5Widgets.so.5:_ZN11QHeaderView20setSectionResizeModeENS_10ResizeModeE
libQt5Widgets.so.5:_ZN11QHeaderView21setDefaultSectionSizeEi
libQt5Widgets.so.5:_ZN11QHeaderView21setStretchLastSectionEb
libQt5Widgets.so.5:_ZN11QListWidget10insertItemEiRK7QString
libQt5Widgets.so.5:_ZN11QListWidget11insertItemsEiRK11QStringList
libQt5Widgets.so.5:_ZN11QListWidget11itemClickedEP15QListWidgetItem
libQt5Widgets.so.5:_ZN11QListWidget13setCurrentRowEi
libQt5Widgets.so.5:_ZN11QListWidget14setCurrentItemEP15QListWidgetItem
libQt5Widgets.so.5:_ZN11QListWidget16staticMetaObjectE
libQt5Widgets.so.5:_ZN11QListWidget17itemDoubleClickedEP15QListWidgetItem
libQt5Widgets.so.5:_ZN11QListWidget17setSortingEnabledEb
libQt5Widgets.so.5:_ZN11QListWidget18currentItemChangedEP15QListWidgetItemS1_
libQt5Widgets.so.5:_ZN11QListWidget20itemSelectionChangedEv
libQt5Widgets.so.5:_ZN11QListWidget5clearEv
libQt5Widgets.so.5:_ZN11QListWidgetC1EP7QWidget
libQt5Widgets.so.5:_ZN11QPushButton10setDefaultEb
libQt5Widgets.so.5:_ZN11QPushButton14setAutoDefaultEb
libQt5Widgets.so.5:_ZN11QPushButton16staticMetaObjectE
libQt5Widgets.so.5:_ZN11QPushButton7setFlatEb
libQt5Widgets.so.5:_ZN11QPushButton7setMenuEP5QMenu
libQt5Widgets.so.5:_ZN11QPushButtonC1EP7QWidget
libQt5Widgets.so.5:_ZN11QScrollArea18setWidgetResizableEb
libQt5Widgets.so.5:_ZN11QScrollArea9setWidgetEP7QWidget
libQt5Widgets.so.5:_ZN11QScrollAreaC1EP7QWidget
libQt5Widgets.so.5:_ZN11QTreeWidget14setColumnCountEi
libQt5Widgets.so.5:_ZN11QTreeWidget15addTopLevelItemEP15QTreeWidgetItem
libQt5Widgets.so.5:_ZN11QTreeWidget16takeTopLevelItemEi
libQt5Widgets.so.5:_ZN11QTreeWidgetC1EP7QWidget
libQt5Widgets.so.5:_ZN11QVBoxLayoutC1EP7QWidget
libQt5Widgets.so.5:_ZN11QVBoxLayoutC1Ev
libQt5Widgets.so.5:_ZN11QWizardPage8setTitleERK7QString
libQt5Widgets.so.5:_ZN11QWizardPageC1EP7QWidget
libQt5Widgets.so.5:_ZN12QApplication7desktopEv
libQt5Widgets.so.5:_ZN12QRadioButtonC1ERK7QStringP7QWidget
libQt5Widgets.so.5:_ZN12QTextBrowser12setOpenLinksEb
libQt5Widgets.so.5:_ZN12QTextBrowserC1EP7QWidget
libQt5Widgets.so.5:_ZN13QDateTimeEdit16setDisplayFormatERK7QString
libQt5Widgets.so.5:_ZN13QDateTimeEdit7setTimeERK5QTime
libQt5Widgets.so.5:_ZN14QPlainTextEdit12setPlainTextERK7QString
libQt5Widgets.so.5:_ZN14QPlainTextEditC1EP7QWidget
libQt5Widgets.so.5:_ZN14QStackedWidget12insertWidgetEiP7QWidget
libQt5Widgets.so.5:_ZN14QStackedWidget12removeWidgetEP7QWidget
libQt5Widgets.so.5:_ZN14QStackedWidget14currentChangedEi
libQt5Widgets.so.5:_ZN14QStackedWidget15setCurrentIndexEi
libQt5Widgets.so.5:_ZN14QStackedWidget16staticMetaObjectE
libQt5Widgets.so.5:_ZN14QStackedWidget9addWidgetEP7QWidget
libQt5Widgets.so.5:_ZN14QStackedWidgetC1EP7QWidget
libQt5Widgets.so.5:_ZN15QAbstractButton10setCheckedEb
libQt5Widgets.so.5:_ZN15QAbstractButton16staticMetaObjectE
libQt5Widgets.so.5:_ZN15QAbstractButton7clickedEb
libQt5Widgets.so.5:_ZN15QAbstractButton7setIconERK5QIcon
libQt5Widgets.so.5:_ZN15QAbstractButton7setTextERK7QString
libQt5Widgets.so.5:_ZN15QAbstractButton7toggledEb
libQt5Widgets.so.5:_ZN15QListWidgetItem7setDataEiRK8QVariant
libQt5Widgets.so.5:_ZN15QListWidgetItemC1EP11QListWidgeti
libQt5Widgets.so.5:_ZN15QListWidgetItemC1ERK7QStringP11QListWidgeti
libQt5Widgets.so.5:_ZN15QTreeWidgetItem7setDataEiiRK8QVariant
libQt5Widgets.so.5:_ZN15QTreeWidgetItemC1ERK11QStringListi
libQt5Widgets.so.5:_ZN16QAbstractSpinBox12setAlignmentE6QFlagsIN2Qt13AlignmentFlagEE
libQt5Widgets.so.5:_ZN16QAbstractSpinBox19setSpecialValueTextERK7QString
libQt5Widgets.so.5:_ZN16QDialogButtonBox12removeButtonEP15QAbstractButton
libQt5Widgets.so.5:_ZN16QDialogButtonBox16staticMetaObjectE
libQt5Widgets.so.5:_ZN16QDialogButtonBox18setStandardButtonsE6QFlagsINS_14StandardButtonEE
libQt5Widgets.so.5:_ZN16QDialogButtonBox8acceptedEv
libQt5Widgets.so.5:_ZN16QDialogButtonBox8rejectedEv
libQt5Widgets.so.5:_ZN16QDialogButtonBox9addButtonENS_14StandardButtonE
libQt5Widgets.so.5:_ZN16QDialogButtonBoxC1E6QFlagsINS_14StandardButtonEEP7QWidget
libQt5Widgets.so.5:_ZN16QDialogButtonBoxC1EP7QWidget
libQt5Widgets.so.5:_ZN17QAbstractItemView15setEditTriggersE6QFlagsINS_11EditTriggerEE
libQt5Widgets.so.5:_ZN17QAbstractItemView16setSelectionModeENS_13SelectionModeE
libQt5Widgets.so.5:_ZN17QAbstractItemView16staticMetaObjectE
libQt5Widgets.so.5:_ZN17QAbstractItemView20setSelectionBehaviorENS_17SelectionBehaviorE
libQt5Widgets.so.5:_ZN17QAbstractItemView23setAlternatingRowColorsEb
libQt5Widgets.so.5:_ZN17QAbstractItemView24setItemDelegateForColumnEiP21QAbstractItemDelegate
libQt5Widgets.so.5:_ZN17QAbstractItemView4editERK11QModelIndex
libQt5Widgets.so.5:_ZN17QAbstractItemView7clickedERK11QModelIndex
libQt5Widgets.so.5:_ZN19QStyledItemDelegate11editorEventEP6QEventP18QAbstractItemModelRK20QStyleOptionViewItemRK11QModelIndex
libQt5Widgets.so.5:_ZN19QStyledItemDelegate11eventFilterEP7QObjectP6QEvent
libQt5Widgets.so.5:_ZN19QStyledItemDelegate11qt_metacallEN11QMetaObject4CallEiPPv
libQt5Widgets.so.5:_ZN19QStyledItemDelegate11qt_metacastEPKc
libQt5Widgets.so.5:_ZN19QStyledItemDelegate16staticMetaObjectE
libQt5Widgets.so.5:_ZN19QStyledItemDelegateC2EP7QObject
libQt5Widgets.so.5:_ZN19QStyledItemDelegateD2Ev
libQt5Widgets.so.5:_ZN21QAbstractItemDelegate9helpEventEP10QHelpEventP17QAbstractItemViewRK20QStyleOptionViewItemRK11QModelIndex
libQt5Widgets.so.5:_ZN5QMenu16staticMetaObjectE
libQt5Widgets.so.5:_ZN5QMenu9triggeredEP7QAction
libQt5Widgets.so.5:_ZN5QMenuC1EP7QWidget
libQt5Widgets.so.5:_ZN6QFrame12setLineWidthEi
libQt5Widgets.so.5:_ZN6QFrame13setFrameShapeENS_5ShapeE
libQt5Widgets.so.5:_ZN6QFrame14setFrameShadowENS_6ShadowE
libQt5Widgets.so.5:_ZN6QFrameC1EP7QWidget6QFlagsIN2Qt10WindowTypeEE
libQt5Widgets.so.5:_ZN6QLabel11setWordWrapEb
libQt5Widgets.so.5:_ZN6QLabel12setAlignmentE6QFlagsIN2Qt13AlignmentFlagEE
libQt5Widgets.so.5:_ZN6QLabel13setTextFormatEN2Qt10TextFormatE
libQt5Widgets.so.5:_ZN6QLabel17setScaledContentsEb
libQt5Widgets.so.5:_ZN6QLabel7setTextERK7QString
libQt5Widgets.so.5:_ZN6QLabel8setBuddyEP7QWidget
libQt5Widgets.so.5:_ZN6QLabel9setIndentEi
libQt5Widgets.so.5:_ZN6QLabel9setMarginEi
libQt5Widgets.so.5:_ZN6QLabel9setPixmapERK7QPixmap
libQt5Widgets.so.5:_ZN6QLabelC1EP7QWidget6QFlagsIN2Qt10WindowTypeEE
libQt5Widgets.so.5:_ZN6QLabelC1ERK7QStringP7QWidget6QFlagsIN2Qt10WindowTypeEE
libQt5Widgets.so.5:_ZN7QAction10setToolTipERK7QString
libQt5Widgets.so.5:_ZN7QAction10setVisibleEb
libQt5Widgets.so.5:_ZN7QAction16staticMetaObjectE
libQt5Widgets.so.5:_ZN7QAction7setDataERK8QVariant
libQt5Widgets.so.5:_ZN7QAction7setIconERK5QIcon
libQt5Widgets.so.5:_ZN7QAction9triggeredEb
libQt5Widgets.so.5:_ZN7QActionC1ERK7QStringP7QObject
libQt5Widgets.so.5:_ZN7QDialog10closeEventEP11QCloseEvent
libQt5Widgets.so.5:_ZN7QDialog10setVisibleEb
libQt5Widgets.so.5:_ZN7QDialog11eventFilterEP7QObjectP6QEvent
libQt5Widgets.so.5:_ZN7QDialog11qt_metacallEN11QMetaObject4CallEiPPv
libQt5Widgets.so.5:_ZN7QDialog11qt_metacastEPKc
libQt5Widgets.so.5:_ZN7QDialog11resizeEventEP12QResizeEvent
libQt5Widgets.so.5:_ZN7QDialog13keyPressEventEP9QKeyEvent
libQt5Widgets.so.5:_ZN7QDialog16contextMenuEventEP17QContextMenuEvent
libQt5Widgets.so.5:_ZN7QDialog16staticMetaObjectE
libQt5Widgets.so.5:_ZN7QDialog4doneEi
libQt5Widgets.so.5:_ZN7QDialog4execEv
libQt5Widgets.so.5:_ZN7QDialog4openEv
libQt5Widgets.so.5:_ZN7QDialog6acceptEv
libQt5Widgets.so.5:_ZN7QDialog6rejectEv
libQt5Widgets.so.5:_ZN7QDialog8acceptedEv
libQt5Widgets.so.5:_ZN7QDialog8finishedEi
libQt5Widgets.so.5:_ZN7QDialog8rejectedEv
libQt5Widgets.so.5:_ZN7QDialog8setModalEb
libQt5Widgets.so.5:_ZN7QDialog9showEventEP10QShowEvent
libQt5Widgets.so.5:_ZN7QDialogC1EP7QWidget6QFlagsIN2Qt10WindowTypeEE
libQt5Widgets.so.5:_ZN7QDialogC2EP7QWidget6QFlagsIN2Qt10WindowTypeEE
libQt5Widgets.so.5:_ZN7QDialogD2Ev
libQt5Widgets.so.5:_ZN7QLayout12removeWidgetEP7QWidget
libQt5Widgets.so.5:_ZN7QLayout17setSizeConstraintENS_14SizeConstraintE
libQt5Widgets.so.5:_ZN7QLayout18setContentsMarginsEiiii
libQt5Widgets.so.5:_ZN7QLayout9addWidgetEP7QWidget
libQt5Widgets.so.5:_ZN7QWidget10adjustSizeEv
libQt5Widgets.so.5:_ZN7QWidget10closeEventEP11QCloseEvent
libQt5Widgets.so.5:_ZN7QWidget10enterEventEP6QEvent
libQt5Widgets.so.5:_ZN7QWidget10leaveEventEP6QEvent
libQt5Widgets.so.5:_ZN7QWidget10paintEventEP11QPaintEvent
libQt5Widgets.so.5:_ZN7QWidget10setEnabledEb
libQt5Widgets.so.5:_ZN7QWidget10setPaletteERK8QPalette
libQt5Widgets.so.5:_ZN7QWidget10setToolTipERK7QString
libQt5Widgets.so.5:_ZN7QWidget10setVisibleEb
libQt5Widgets.so.5:_ZN7QWidget10wheelEventEP11QWheelEvent
libQt5Widgets.so.5:_ZN7QWidget11actionEventEP12QActionEvent
libQt5Widgets.so.5:_ZN7QWidget11changeEventEP6QEvent
libQt5Widgets.so.5:_ZN7QWidget11nativeEventERK10QByteArrayPvPl
libQt5Widgets.so.5:_ZN7QWidget11qt_metacallEN11QMetaObject4CallEiPPv
libQt5Widgets.so.5:_ZN7QWidget11qt_metacastEPKc
libQt5Widgets.so.5:_ZN7QWidget11resizeEventEP12QResizeEvent
libQt5Widgets.so.5:_ZN7QWidget11setDisabledEb
libQt5Widgets.so.5:_ZN7QWidget11setGeometryERK5QRect
libQt5Widgets.so.5:_ZN7QWidget11setTabOrderEPS_S0_
libQt5Widgets.so.5:_ZN7QWidget11tabletEventEP12QTabletEvent
libQt5Widgets.so.5:_ZN7QWidget12focusInEventEP11QFocusEvent
libQt5Widgets.so.5:_ZN7QWidget12setAttributeEN2Qt15WidgetAttributeEb
libQt5Widgets.so.5:_ZN7QWidget12setWhatsThisERK7QString
libQt5Widgets.so.5:_ZN7QWidget13dragMoveEventEP14QDragMoveEvent
libQt5Widgets.so.5:_ZN7QWidget13focusOutEventEP11QFocusEvent
libQt5Widgets.so.5:_ZN7QWidget13keyPressEventEP9QKeyEvent
libQt5Widgets.so.5:_ZN7QWidget13setFocusProxyEPS_
libQt5Widgets.so.5:_ZN7QWidget13setSizePolicyE11QSizePolicy
libQt5Widgets.so.5:_ZN7QWidget13setStyleSheetERK7QString
libQt5Widgets.so.5:_ZN7QWidget13setWindowIconERK5QIcon
libQt5Widgets.so.5:_ZN7QWidget14dragEnterEventEP15QDragEnterEvent
libQt5Widgets.so.5:_ZN7QWidget14dragLeaveEventEP15QDragLeaveEvent
libQt5Widgets.so.5:_ZN7QWidget14mouseMoveEventEP11QMouseEvent
libQt5Widgets.so.5:_ZN7QWidget14setMaximumSizeEii
libQt5Widgets.so.5:_ZN7QWidget14setMinimumSizeEii
libQt5Widgets.so.5:_ZN7QWidget14setWindowTitleERK7QString
libQt5Widgets.so.5:_ZN7QWidget15keyReleaseEventEP9QKeyEvent
libQt5Widgets.so.5:_ZN7QWidget15mousePressEventEP11QMouseEvent
libQt5Widgets.so.5:_ZN7QWidget15setMinimumWidthEi
libQt5Widgets.so.5:_ZN7QWidget16contextMenuEventEP17QContextMenuEvent
libQt5Widgets.so.5:_ZN7QWidget16inputMethodEventEP17QInputMethodEvent
libQt5Widgets.so.5:_ZN7QWidget16staticMetaObjectE
libQt5Widgets.so.5:_ZN7QWidget17mouseReleaseEventEP11QMouseEvent
libQt5Widgets.so.5:_ZN7QWidget17setWindowModalityEN2Qt14WindowModalityE
libQt5Widgets.so.5:_ZN7QWidget18focusNextPrevChildEb
libQt5Widgets.so.5:_ZN7QWidget18setLayoutDirectionEN2Qt15LayoutDirectionE
libQt5Widgets.so.5:_ZN7QWidget21mouseDoubleClickEventEP11QMouseEvent
libQt5Widgets.so.5:_ZN7QWidget21setAutoFillBackgroundEb
libQt5Widgets.so.5:_ZN7QWidget4hideEv
libQt5Widgets.so.5:_ZN7QWidget4moveERK6QPoint
libQt5Widgets.so.5:_ZN7QWidget4showEv
libQt5Widgets.so.5:_ZN7QWidget5closeEv
libQt5Widgets.so.5:_ZN7QWidget5eventEP6QEvent
libQt5Widgets.so.5:_ZN7QWidget5raiseEv
libQt5Widgets.so.5:_ZN7QWidget6resizeERK5QSize
libQt5Widgets.so.5:_ZN7QWidget7setFontERK5QFont
libQt5Widgets.so.5:_ZN7QWidget8setFocusEN2Qt11FocusReasonE
libQt5Widgets.so.5:_ZN7QWidget9addActionEP7QAction
libQt5Widgets.so.5:_ZN7QWidget9dropEventEP10QDropEvent
libQt5Widgets.so.5:_ZN7QWidget9hideEventEP10QHideEvent
libQt5Widgets.so.5:_ZN7QWidget9moveEventEP10QMoveEvent
libQt5Widgets.so.5:_ZN7QWidget9setHiddenEb
libQt5Widgets.so.5:_ZN7QWidget9setLayoutEP7QLayout
libQt5Widgets.so.5:_ZN7QWidget9showEventEP10QShowEvent
libQt5Widgets.so.5:_ZN7QWidgetC1EPS_6QFlagsIN2Qt10WindowTypeEE
libQt5Widgets.so.5:_ZN7QWidgetC2EPS_6QFlagsIN2Qt10WindowTypeEE
libQt5Widgets.so.5:_ZN7QWidgetD2Ev
libQt5Widgets.so.5:_ZN7QWizard10paintEventEP11QPaintEvent
libQt5Widgets.so.5:_ZN7QWizard10setOptionsE6QFlagsINS_12WizardOptionEE
libQt5Widgets.so.5:_ZN7QWizard10setVisibleEb
libQt5Widgets.so.5:_ZN7QWizard11cleanupPageEi
libQt5Widgets.so.5:_ZN7QWizard11qt_metacallEN11QMetaObject4CallEiPPv
libQt5Widgets.so.5:_ZN7QWizard11qt_metacastEPKc
libQt5Widgets.so.5:_ZN7QWizard11resizeEventEP12QResizeEvent
libQt5Widgets.so.5:_ZN7QWizard16staticMetaObjectE
libQt5Widgets.so.5:_ZN7QWizard19validateCurrentPageEv
libQt5Widgets.so.5:_ZN7QWizard4doneEi
libQt5Widgets.so.5:_ZN7QWizard5eventEP6QEvent
libQt5Widgets.so.5:_ZN7QWizard7addPageEP11QWizardPage
libQt5Widgets.so.5:_ZN7QWizardC2EP7QWidget6QFlagsIN2Qt10WindowTypeEE
libQt5Widgets.so.5:_ZN7QWizardD2Ev
libQt5Widgets.so.5:_ZN8QSpinBox10setMaximumEi
libQt5Widgets.so.5:_ZN8QSpinBox10setMinimumEi
libQt5Widgets.so.5:_ZN8QSpinBox12valueChangedEi
libQt5Widgets.so.5:_ZN8QSpinBox16staticMetaObjectE
libQt5Widgets.so.5:_ZN8QSpinBox8setValueEi
libQt5Widgets.so.5:_ZN8QSpinBox9setPrefixERK7QString
libQt5Widgets.so.5:_ZN8QSpinBox9setSuffixERK7QString
libQt5Widgets.so.5:_ZN8QSpinBoxC1EP7QWidget
libQt5Widgets.so.5:_ZN9QCheckBox11setTristateEb
libQt5Widgets.so.5:_ZN9QCheckBox12stateChangedEi
libQt5Widgets.so.5:_ZN9QCheckBox16staticMetaObjectE
libQt5Widgets.so.5:_ZN9QCheckBoxC1EP7QWidget
libQt5Widgets.so.5:_ZN9QComboBox10insertItemEiRK5QIconRK7QStringRK8QVariant
libQt5Widgets.so.5:_ZN9QComboBox10paintEventEP11QPaintEvent
libQt5Widgets.so.5:_ZN9QComboBox10removeItemEi
libQt5Widgets.so.5:_ZN9QComboBox10wheelEventEP11QWheelEvent
libQt5Widgets.so.5:_ZN9QComboBox11changeEventEP6QEvent
libQt5Widgets.so.5:_ZN9QComboBox11insertItemsEiRK11QStringList
libQt5Widgets.so.5:_ZN9QComboBox11qt_metacallEN11QMetaObject4CallEiPPv
libQt5Widgets.so.5:_ZN9QComboBox11qt_metacastEPKc
libQt5Widgets.so.5:_ZN9QComboBox11resizeEventEP12QResizeEvent
libQt5Widgets.so.5:_ZN9QComboBox11setEditTextERK7QString
libQt5Widgets.so.5:_ZN9QComboBox11setEditableEb
libQt5Widgets.so.5:_ZN9QComboBox11setItemDataEiRK8QVarianti
libQt5Widgets.so.5:_ZN9QComboBox11setItemTextEiRK7QString
libQt5Widgets.so.5:_ZN9QComboBox12focusInEventEP11QFocusEvent
libQt5Widgets.so.5:_ZN9QComboBox13focusOutEventEP11QFocusEvent
libQt5Widgets.so.5:_ZN9QComboBox13keyPressEventEP9QKeyEvent
libQt5Widgets.so.5:_ZN9QComboBox15editTextChangedERK7QString
libQt5Widgets.so.5:_ZN9QComboBox15insertSeparatorEi
libQt5Widgets.so.5:_ZN9QComboBox15keyReleaseEventEP9QKeyEvent
libQt5Widgets.so.5:_ZN9QComboBox15mousePressEventEP11QMouseEvent
libQt5Widgets.so.5:_ZN9QComboBox15setCurrentIndexEi
libQt5Widgets.so.5:_ZN9QComboBox15setInsertPolicyENS_12InsertPolicyE
libQt5Widgets.so.5:_ZN9QComboBox16contextMenuEventEP17QContextMenuEvent
libQt5Widgets.so.5:_ZN9QComboBox16inputMethodEventEP17QInputMethodEvent
libQt5Widgets.so.5:_ZN9QComboBox16staticMetaObjectE
libQt5Widgets.so.5:_ZN9QComboBox17mouseReleaseEventEP11QMouseEvent
libQt5Widgets.so.5:_ZN9QComboBox18currentTextChangedERK7QString
libQt5Widgets.so.5:_ZN9QComboBox19currentIndexChangedERK7QString
libQt5Widgets.so.5:_ZN9QComboBox19currentIndexChangedEi
libQt5Widgets.so.5:_ZN9QComboBox19setSizeAdjustPolicyENS_16SizeAdjustPolicyE
libQt5Widgets.so.5:_ZN9QComboBox5clearEv
libQt5Widgets.so.5:_ZN9QComboBox5eventEP6QEvent
libQt5Widgets.so.5:_ZN9QComboBox9activatedEi
libQt5Widgets.so.5:_ZN9QComboBox9hideEventEP10QHideEvent
libQt5Widgets.so.5:_ZN9QComboBox9hidePopupEv
libQt5Widgets.so.5:_ZN9QComboBox9showEventEP10QShowEvent
libQt5Widgets.so.5:_ZN9QComboBox9showPopupEv
libQt5Widgets.so.5:_ZN9QComboBoxC1EP7QWidget
libQt5Widgets.so.5:_ZN9QComboBoxC2EP7QWidget
libQt5Widgets.so.5:_ZN9QComboBoxD2Ev
libQt5Widgets.so.5:_ZN9QGroupBox10setCheckedEb
libQt5Widgets.so.5:_ZN9QGroupBox12setCheckableEb
libQt5Widgets.so.5:_ZN9QGroupBox16staticMetaObjectE
libQt5Widgets.so.5:_ZN9QGroupBox7setFlatEb
libQt5Widgets.so.5:_ZN9QGroupBox7toggledEb
libQt5Widgets.so.5:_ZN9QGroupBox8setTitleERK7QString
libQt5Widgets.so.5:_ZN9QGroupBoxC1EP7QWidget
libQt5Widgets.so.5:_ZN9QLineEdit10textEditedERK7QString
libQt5Widgets.so.5:_ZN9QLineEdit11setEchoModeENS_8EchoModeE
libQt5Widgets.so.5:_ZN9QLineEdit11textChangedERK7QString
libQt5Widgets.so.5:_ZN9QLineEdit12setAlignmentE6QFlagsIN2Qt13AlignmentFlagEE
libQt5Widgets.so.5:_ZN9QLineEdit12setInputMaskERK7QString
libQt5Widgets.so.5:_ZN9QLineEdit12setMaxLengthEi
libQt5Widgets.so.5:_ZN9QLineEdit12setValidatorEPK10QValidator
libQt5Widgets.so.5:_ZN9QLineEdit16staticMetaObjectE
libQt5Widgets.so.5:_ZN9QLineEdit17setCursorPositionEi
libQt5Widgets.so.5:_ZN9QLineEdit18setPlaceholderTextERK7QString
libQt5Widgets.so.5:_ZN9QLineEdit21setClearButtonEnabledEb
libQt5Widgets.so.5:_ZN9QLineEdit5clearEv
libQt5Widgets.so.5:_ZN9QLineEdit7setTextERK7QString
libQt5Widgets.so.5:_ZN9QLineEdit9addActionERK5QIconNS_14ActionPositionE
libQt5Widgets.so.5:_ZN9QLineEditC1EP7QWidget
libQt5Widgets.so.5:_ZN9QListView19setUniformItemSizesEb
libQt5Widgets.so.5:_ZN9QTextEdit17setAcceptRichTextEb
libQt5Widgets.so.5:_ZN9QTextEdit23setTextInteractionFlagsE6QFlagsIN2Qt19TextInteractionFlagEE
libQt5Widgets.so.5:_ZN9QTextEdit5clearEv
libQt5Widgets.so.5:_ZN9QTextEdit6appendERK7QString
libQt5Widgets.so.5:_ZN9QTextEdit7setTextERK7QString
libQt5Widgets.so.5:_ZN9QTimeEditC1EP7QWidget
libQt5Widgets.so.5:_ZN9QTreeView12sortByColumnEiN2Qt9SortOrderE
libQt5Widgets.so.5:_ZN9QTreeView17setSortingEnabledEb
libQt5Widgets.so.5:_ZN9QTreeView18setItemsExpandableEb
libQt5Widgets.so.5:_ZN9QTreeView18setRootIsDecoratedEb
libQt5Widgets.so.5:_ZN9QTreeView20setUniformRowHeightsEb
libQt5Widgets.so.5:_ZN9QTreeView22setAllColumnsShowFocusEb
libQt5Widgets.so.5:_ZNK10QTabWidget12currentIndexEv
libQt5Widgets.so.5:_ZNK10QTabWidget5countEv
libQt5Widgets.so.5:_ZNK10QTabWidget6widgetEi
libQt5Widgets.so.5:_ZNK10QTabWidget7indexOfEP7QWidget
libQt5Widgets.so.5:_ZNK10QTableView14verticalHeaderEv
libQt5Widgets.so.5:_ZNK10QTableView16horizontalHeaderEv
libQt5Widgets.so.5:_ZNK11QFormLayout6itemAtEiNS_8ItemRoleE
libQt5Widgets.so.5:_ZNK11QFormLayout8rowCountEv
libQt5Widgets.so.5:_ZNK11QListWidget11currentItemEv
libQt5Widgets.so.5:_ZNK11QListWidget16isSortingEnabledEv
libQt5Widgets.so.5:_ZNK11QListWidget4itemEi
libQt5Widgets.so.5:_ZNK11QListWidget5countEv
libQt5Widgets.so.5:_ZNK11QListWidget9findItemsERK7QString6QFlagsIN2Qt9MatchFlagEE
libQt5Widgets.so.5:_ZNK11QTreeWidget10headerItemEv
libQt5Widgets.so.5:_ZNK11QTreeWidget12topLevelItemEi
libQt5Widgets.so.5:_ZNK11QTreeWidget13selectedItemsEv
libQt5Widgets.so.5:_ZNK11QTreeWidget17topLevelItemCountEv
libQt5Widgets.so.5:_ZNK11QTreeWidget19indexOfTopLevelItemEP15QTreeWidgetItem
libQt5Widgets.so.5:_ZNK13QDateTimeEdit4timeEv
libQt5Widgets.so.5:_ZNK14QDesktopWidget14screenGeometryEPK7QWidget
libQt5Widgets.so.5:_ZNK14QPlainTextEdit8documentEv
libQt5Widgets.so.5:_ZNK14QStackedWidget13currentWidgetEv
libQt5Widgets.so.5:_ZNK14QStackedWidget5countEv
libQt5Widgets.so.5:_ZNK14QStackedWidget6widgetEi
libQt5Widgets.so.5:_ZNK15QAbstractButton9isCheckedEv
libQt5Widgets.so.5:_ZNK16QDialogButtonBox6buttonENS_14StandardButtonE
libQt5Widgets.so.5:_ZNK17QAbstractItemView14selectionModelEv
libQt5Widgets.so.5:_ZNK19QStyledItemDelegate11displayTextERK8QVariantRK7QLocale
libQt5Widgets.so.5:_ZNK19QStyledItemDelegate15initStyleOptionEP20QStyleOptionViewItemRK11QModelIndex
libQt5Widgets.so.5:_ZNK19QStyledItemDelegate5paintEP8QPainterRK20QStyleOptionViewItemRK11QModelIndex
libQt5Widgets.so.5:_ZNK19QStyledItemDelegate8sizeHintERK20QStyleOptionViewItemRK11QModelIndex
libQt5Widgets.so.5:_ZNK21QAbstractItemDelegate13destroyEditorEP7QWidgetRK11QModelIndex
libQt5Widgets.so.5:_ZNK21QAbstractItemDelegate13paintingRolesEv
libQt5Widgets.so.5:_ZNK7QAction4dataEv
libQt5Widgets.so.5:_ZNK7QDialog15minimumSizeHintEv
libQt5Widgets.so.5:_ZNK7QDialog8sizeHintEv
libQt5Widgets.so.5:_ZNK7QWidget10redirectedEP6QPoint
libQt5Widgets.so.5:_ZNK7QWidget10sizePolicyEv
libQt5Widgets.so.5:_ZNK7QWidget11initPainterEP8QPainter
libQt5Widgets.so.5:_ZNK7QWidget11paintEngineEv
libQt5Widgets.so.5:_ZNK7QWidget13sharedPainterEv
libQt5Widgets.so.5:_ZNK7QWidget14heightForWidthEi
libQt5Widgets.so.5:_ZNK7QWidget15minimumSizeHintEv
libQt5Widgets.so.5:_ZNK7QWidget16inputMethodQueryEN2Qt16InputMethodQueryE
libQt5Widgets.so.5:_ZNK7QWidget17hasHeightForWidthEv
libQt5Widgets.so.5:_ZNK7QWidget5styleEv
libQt5Widgets.so.5:_ZNK7QWidget5winIdEv
libQt5Widgets.so.5:_ZNK7QWidget6layoutEv
libQt5Widgets.so.5:_ZNK7QWidget6metricEN12QPaintDevice17PaintDeviceMetricE
libQt5Widgets.so.5:_ZNK7QWidget6windowEv
libQt5Widgets.so.5:_ZNK7QWidget7devTypeEv
libQt5Widgets.so.5:_ZNK7QWidget7paletteEv
libQt5Widgets.so.5:_ZNK7QWidget8sizeHintEv
libQt5Widgets.so.5:_ZNK7QWizard6nextIdEv
libQt5Widgets.so.5:_ZNK7QWizard8sizeHintEv
libQt5Widgets.so.5:_ZNK7QWizard9currentIdEv
libQt5Widgets.so.5:_ZNK8QSpinBox5valueEv
libQt5Widgets.so.5:_ZNK9QCheckBox10checkStateEv
libQt5Widgets.so.5:_ZNK9QComboBox11currentDataEi
libQt5Widgets.so.5:_ZNK9QComboBox11currentTextEv
libQt5Widgets.so.5:_ZNK9QComboBox12currentIndexEv
libQt5Widgets.so.5:_ZNK9QComboBox15minimumSizeHintEv
libQt5Widgets.so.5:_ZNK9QComboBox16inputMethodQueryEN2Qt16InputMethodQueryE
libQt5Widgets.so.5:_ZNK9QComboBox5countEv
libQt5Widgets.so.5:_ZNK9QComboBox8findDataERK8QVarianti6QFlagsIN2Qt9MatchFlagEE
libQt5Widgets.so.5:_ZNK9QComboBox8itemDataEii
libQt5Widgets.so.5:_ZNK9QComboBox8lineEditEv
libQt5Widgets.so.5:_ZNK9QComboBox8sizeHintEv
libQt5Widgets.so.5:_ZNK9QGroupBox9isCheckedEv
libQt5Widgets.so.5:_ZNK9QLineEdit11displayTextEv
libQt5Widgets.so.5:_ZNK9QLineEdit4textEv
libQt5Widgets.so.5:_ZNK9QLineEdit8echoModeEv
libQt5Widgets.so.5:_ZNK9QLineEdit9validatorEv
libQt5Widgets.so.5:_ZNK9QTreeView6headerEv
libQt5Widgets.so.5:_ZTI19QStyledItemDelegate
libQt5Widgets.so.5:_ZTI7QDialog
libQt5Widgets.so.5:_ZTI7QWidget
libQt5Widgets.so.5:_ZTI7QWizard
libQt5Widgets.so.5:_ZTI9QComboBox
libQt5Widgets.so.5:_ZTV11QSpacerItem
libQt5Widgets.so.5:_ZThn16_NK7QWidget10redirectedEP6QPoint
libQt5Widgets.so.5:_ZThn16_NK7QWidget11initPainterEP8QPainter
libQt5Widgets.so.5:_ZThn16_NK7QWidget11paintEngineEv
libQt5Widgets.so.5:_ZThn16_NK7QWidget13sharedPainterEv
libQt5Widgets.so.5:_ZThn16_NK7QWidget6metricEN12QPaintDevice17PaintDeviceMetricE
libQt5Widgets.so.5:_ZThn16_NK7QWidget7devTypeEv
libQt5Xml.so.5:_ZN11QDomElementC1Ev
libQt5Xml.so.5:_ZN11QDomElementaSERKS_
libQt5Xml.so.5:_ZN12QDomDocument10setContentEP9QIODeviceP7QStringPiS4_
libQt5Xml.so.5:_ZN12QDomDocument10setContentERK10QByteArrayP7QStringPiS5_
libQt5Xml.so.5:_ZN12QDomDocumentC1Ev
libQt5Xml.so.5:_ZN12QDomDocumentD1Ev
libQt5Xml.so.5:_ZN12QDomNodeListD1Ev
libQt5Xml.so.5:_ZN8QDomNodeC1ERKS_
libQt5Xml.so.5:_ZN8QDomNodeC1Ev
libQt5Xml.so.5:_ZN8QDomNodeD1Ev
libQt5Xml.so.5:_ZN8QDomNodeD2Ev
libQt5Xml.so.5:_ZN8QDomNodeaSERKS_
libQt5Xml.so.5:_ZNK11QDomElement4textEv
libQt5Xml.so.5:_ZNK11QDomElement7tagNameEv
libQt5Xml.so.5:_ZNK11QDomElement9attributeERK7QStringS2_
libQt5Xml.so.5:_ZNK12QDomDocument15documentElementEv
libQt5Xml.so.5:_ZNK12QDomDocument17elementsByTagNameERK7QString
libQt5Xml.so.5:_ZNK12QDomNodeList4itemEi
libQt5Xml.so.5:_ZNK8QDomNode10firstChildEv
libQt5Xml.so.5:_ZNK8QDomNode11nextSiblingEv
libQt5Xml.so.5:_ZNK8QDomNode17firstChildElementERK7QString
libQt5Xml.so.5:_ZNK8QDomNode18nextSiblingElementERK7QString
libQt5Xml.so.5:_ZNK8QDomNode6isNullEv
libQt5Xml.so.5:_ZNK8QDomNode9toElementEv
libc.so.6:__cxa_atexit
libc.so.6:__stack_chk_fail
libc.so.6:close
libc.so.6:free
libc.so.6:getuid
libc.so.6:malloc
libc.so.6:memcmp
libc.so.6:memcpy
libc.so.6:pipe2
libc.so.6:read
libc.so.6:strcmp
libc.so.6:strdup
libc.so.6:strlen
libc.so.6:write
libnm.so.0:nm_vpn_plugin_info_list_find_by_service
libnm.so.0:nm_vpn_plugin_info_list_load
libopenconnect.so.5:openconnect_check_peer_cert_hash
libopenconnect.so.5:openconnect_clear_cookie
libopenconnect.so.5:openconnect_free_cert_info
libopenconnect.so.5:openconnect_get_cookie
libopenconnect.so.5:openconnect_get_hostname
libopenconnect.so.5:openconnect_get_peer_cert_details
libopenconnect.so.5:openconnect_get_peer_cert_hash
libopenconnect.so.5:openconnect_get_port
libopenconnect.so.5:openconnect_get_urlpath
libopenconnect.so.5:openconnect_has_oath_support
libopenconnect.so.5:openconnect_has_stoken_support
libopenconnect.so.5:openconnect_has_yubioath_support
libopenconnect.so.5:openconnect_init_ssl
libopenconnect.so.5:openconnect_obtain_cookie
libopenconnect.so.5:openconnect_parse_url
libopenconnect.so.5:openconnect_passphrase_from_fsid
libopenconnect.so.5:openconnect_set_cafile
libopenconnect.so.5:openconnect_set_cancel_fd
libopenconnect.so.5:openconnect_set_client_cert
libopenconnect.so.5:openconnect_set_hostname
libopenconnect.so.5:openconnect_set_http_proxy
libopenconnect.so.5:openconnect_set_option_value
libopenconnect.so.5:openconnect_set_protocol
libopenconnect.so.5:openconnect_set_reported_os
libopenconnect.so.5:openconnect_set_token_callbacks
libopenconnect.so.5:openconnect_set_token_mode
libopenconnect.so.5:openconnect_set_urlpath
libopenconnect.so.5:openconnect_set_xmlsha1
libopenconnect.so.5:openconnect_setup_csd
libopenconnect.so.5:openconnect_vpninfo_free
libopenconnect.so.5:openconnect_vpninfo_new
libqca-qt5.so.2:_ZN3QCA10PrivateKey11fromPEMFileERK7QStringRKNS_11SecureArrayEPNS_13ConvertResultES3_
libqca-qt5.so.2:_ZN3QCA10PrivateKeyD1Ev
libqca-qt5.so.2:_ZN3QCA11InitializerC1ENS_10MemoryModeEi
libqca-qt5.so.2:_ZN3QCA11InitializerD1Ev
libqca-qt5.so.2:_ZN3QCA11SecureArrayC1ERK10QByteArray
libqca-qt5.so.2:_ZN3QCA11SecureArrayD1Ev
libqca-qt5.so.2:_ZN3QCA11isSupportedEPKcRK7QString
libqca-qt5.so.2:_ZN3QCA9KeyBundle8fromFileERK7QStringRKNS_11SecureArrayEPNS_13ConvertResultES3_
libqca-qt5.so.2:_ZN3QCA9KeyBundleD1Ev
libqca-qt5.so.2:_ZNK3QCA10PrivateKey10canDecryptEv
libqca-qt5.so.2:_ZNK3QCA9KeyBundle10privateKeyEv
libstdc++.so.6:_ZNSt7__cxx1112basic_stringIcSt11char_traitsIcESaIcEE9_M_createERmm
libstdc++.so.6:_ZSt25__throw_bad_function_callv
libstdc++.so.6:_ZTVN10__cxxabiv117__class_type_infoE
libstdc++.so.6:_ZTVN10__cxxabiv119__pointer_type_infoE
libstdc++.so.6:_ZTVN10__cxxabiv120__function_type_infoE
libstdc++.so.6:_ZTVN10__cxxabiv120__si_class_type_infoE
libstdc++.so.6:_ZdlPv
libstdc++.so.6:_ZdlPvm
libstdc++.so.6:_Znwm
libstdc++.so.6:__cxa_guard_acquire
libstdc++.so.6:__cxa_guard_release
libstdc++.so.6:__dynamic_cast
