libKF6Archive.so.6:_ZN4KZipC1ERK7QString
libKF6Archive.so.6:_ZN4KZipD1Ev
libKF6Archive.so.6:_ZN8KArchive4openE6QFlagsIN13QIODeviceBase12OpenModeFlagEE
libKF6Archive.so.6:_ZNK17KArchiveDirectory5entryERK7QString
libKF6Archive.so.6:_ZNK8KArchive9directoryEv
libKF6Completion.so.6:_ZN15KCompletionBase29setAutoDeleteCompletionObjectEb
libKF6Completion.so.6:_ZN9KComboBox11setEditableEb
libKF6Completion.so.6:_ZN9KComboBox13returnPressedERK7QString
libKF6Completion.so.6:_ZN9KComboBox16staticMetaObjectE
libKF6Completion.so.6:_ZN9KComboBox6addUrlERK4QUrl
libKF6Completion.so.6:_ZN9KComboBoxC1EP7QWidget
libKF6Completion.so.6:_ZN9KLineEditC1EP7QWidget
libKF6ConfigCore.so.6:_ZN12KConfigGroup14writePathEntryERK7QStringRK5QListIS0_E6QFlagsIN11KConfigBase15WriteConfigFlagEE
libKF6ConfigCore.so.6:_ZN12KConfigGroupC1ERK28QExplicitlySharedDataPointerI13KSharedConfigERK7QString
libKF6ConfigCore.so.6:_ZN12KConfigGroupD1Ev
libKF6ConfigCore.so.6:_ZN13KSharedConfig10openConfigERK7QString6QFlagsIN7KConfig8OpenFlagEEN14QStandardPaths16StandardLocationE
libKF6ConfigCore.so.6:_ZNK12KConfigGroup13readPathEntryEPKcRK5QListI7QStringE
libKF6ConfigCore.so.6:_ZNK12KConfigGroup13readPathEntryERK7QStringRK5QListIS0_E
libKF6ConfigCore.so.6:_ZNK12KConfigGroup9readEntryERK7QStringRK5QListIS0_E
libKF6ConfigWidgets.so.6:_ZN15KStandardAction4copyEPK7QObjectPKcPS0_
libKF6ConfigWidgets.so.6:_ZN15KStandardAction4openEPK7QObjectPKcPS0_
libKF6CoreAddons.so.6:_ZN10KAboutData13setTranslatorERK7QStringS2_
libKF6CoreAddons.so.6:_ZN10KAboutData15applicationDataEv
libKF6CoreAddons.so.6:_ZN10KAboutData16setupCommandLineEP18QCommandLineParser
libKF6CoreAddons.so.6:_ZN10KAboutData18processCommandLineEP18QCommandLineParser
libKF6CoreAddons.so.6:_ZN10KAboutData18setApplicationDataERKS_
libKF6CoreAddons.so.6:_ZN10KAboutData9addAuthorERK7QStringS2_S2_S2_RK4QUrl
libKF6CoreAddons.so.6:_ZN10KAboutDataC1ERK7QStringS2_S2_S2_N13KAboutLicense10LicenseKeyES2_S2_S2_S2_
libKF6CoreAddons.so.6:_ZN10KAboutDataD1Ev
libKF6CoreAddons.so.6:_ZN4KJob13setUiDelegateEP14KJobUiDelegate
libKF6CoreAddons.so.6:_ZN4KJob16staticMetaObjectE
libKF6CoreAddons.so.6:_ZN4KJob4killENS_13KillVerbosityE
libKF6CoreAddons.so.6:_ZN4KJob6resultEPS_NS_14QPrivateSignalE
libKF6CoreAddons.so.6:_ZN6KShell11tildeExpandERK7QString
libKF6CoreAddons.so.6:_ZN8KProcess10setProgramERK7QStringRK5QListIS0_E
libKF6CoreAddons.so.6:_ZN8KProcess12clearProgramEv
libKF6CoreAddons.so.6:_ZN8KProcess20setOutputChannelModeENS_17OutputChannelModeE
libKF6CoreAddons.so.6:_ZN8KProcess5startEv
libKF6CoreAddons.so.6:_ZN8KProcessC1EP7QObject
libKF6CoreAddons.so.6:_ZN9KDirWatch16staticMetaObjectE
libKF6CoreAddons.so.6:_ZN9KDirWatch6addDirERK7QString6QFlagsINS_9WatchModeEE
libKF6CoreAddons.so.6:_ZN9KDirWatch7createdERK7QString
libKF6CoreAddons.so.6:_ZN9KDirWatch7deletedERK7QString
libKF6CoreAddons.so.6:_ZN9KDirWatchC1EP7QObject
libKF6CoreAddons.so.6:_ZNK4KJob5errorEv
libKF6Crash.so.6:_ZN6KCrash10initializeEv
libKF6FileMetaData.so.3:_ZN13KFileMetaData12PropertyInfoC1ENS_8Property8PropertyE
libKF6FileMetaData.so.3:_ZN13KFileMetaData12PropertyInfoD1Ev
libKF6FileMetaData.so.3:_ZN13KFileMetaData19ExtractorCollectionC1Ev
libKF6FileMetaData.so.3:_ZN13KFileMetaData19ExtractorCollectionD1Ev
libKF6FileMetaData.so.3:_ZN13KFileMetaData22SimpleExtractionResultC1ERK7QStringS3_RK6QFlagsINS_16ExtractionResult4FlagEE
libKF6FileMetaData.so.3:_ZN13KFileMetaData22SimpleExtractionResultD1Ev
libKF6FileMetaData.so.3:_ZN13KFileMetaData9Extractor7extractEPNS_16ExtractionResultE
libKF6FileMetaData.so.3:_ZNK13KFileMetaData12PropertyInfo11displayNameEv
libKF6FileMetaData.so.3:_ZNK13KFileMetaData19ExtractorCollection15fetchExtractorsERK7QString
libKF6FileMetaData.so.3:_ZNK13KFileMetaData22SimpleExtractionResult10propertiesEv
libKF6I18n.so.6:_Z5ki18nPKc
libKF6I18n.so.6:_Z6ki18ncPKcS0_
libKF6I18n.so.6:_Z6ki18npPKcS0_
libKF6I18n.so.6:_Z7ki18ncpPKcS0_S0_
libKF6I18n.so.6:_ZN16KLocalizedString20setApplicationDomainERK10QByteArray
libKF6I18n.so.6:_ZN16KLocalizedStringC1EPKcS1_S1_S1_b
libKF6I18n.so.6:_ZN16KLocalizedStringC1Ev
libKF6I18n.so.6:_ZN16KLocalizedStringD1Ev
libKF6I18n.so.6:_ZNK16KLocalizedString4subsERK7QStringi5QChar
libKF6I18n.so.6:_ZNK16KLocalizedString4subsEiii5QChar
libKF6I18n.so.6:_ZNK16KLocalizedString8toStringEv
libKF6I18n.so.6:_ZNK16KLocalizedString9inContextERK7QStringS2_
libKF6KIOCore.so.6:_ZN13KFileItemListC1Ev
libKF6KIOCore.so.6:_ZN23KFileItemListPropertiesC1ERK13KFileItemList
libKF6KIOCore.so.6:_ZN23KFileItemListPropertiesD1Ev
libKF6KIOCore.so.6:_ZN3KIO11convertSizeEy
libKF6KIOCore.so.6:_ZN3KIO13listRecursiveERK4QUrl6QFlagsINS_7JobFlagEES3_INS_7ListJob8ListFlagEE
libKF6KIOCore.so.6:_ZN3KIO26createDefaultJobUiDelegateE6QFlagsIN14KJobUiDelegate4FlagEEP7QWidget
libKF6KIOCore.so.6:_ZN3KIO3Job16staticMetaObjectE
libKF6KIOCore.so.6:_ZN3KIO7ListJob16staticMetaObjectE
libKF6KIOCore.so.6:_ZN3KIO7ListJob7entriesEPNS_3JobERK5QListINS_8UDSEntryEE
libKF6KIOCore.so.6:_ZN3KIO7listDirERK4QUrl6QFlagsINS_7JobFlagEES3_INS_7ListJob8ListFlagEE
libKF6KIOCore.so.6:_ZN3KIO8UDSEntryC1EOS0_
libKF6KIOCore.so.6:_ZN3KIO8UDSEntryC1ERKS0_
libKF6KIOCore.so.6:_ZN3KIO8UDSEntryC1Ev
libKF6KIOCore.so.6:_ZN3KIO8UDSEntryD1Ev
libKF6KIOCore.so.6:_ZN3KIO8UDSEntryaSERKS0_
libKF6KIOCore.so.6:_ZN3KIOeqERKNS_8UDSEntryES2_
libKF6KIOCore.so.6:_ZN9KFileItem16staticMetaObjectE
libKF6KIOCore.so.6:_ZN9KFileItemC1EOS_
libKF6KIOCore.so.6:_ZN9KFileItemC1ERK4QUrlRK7QStringj
libKF6KIOCore.so.6:_ZN9KFileItemC1ERKN3KIO8UDSEntryERK4QUrlbb
libKF6KIOCore.so.6:_ZN9KFileItemC1ERKS_
libKF6KIOCore.so.6:_ZN9KFileItemC1Ev
libKF6KIOCore.so.6:_ZN9KFileItemD1Ev
libKF6KIOCore.so.6:_ZN9KFileItemaSEOS_
libKF6KIOCore.so.6:_ZN9KFileItemaSERKS_
libKF6KIOCore.so.6:_ZNK9KFileItem10timeStringENS_9FileTimesE
libKF6KIOCore.so.6:_ZNK9KFileItem11isLocalFileEv
libKF6KIOCore.so.6:_ZNK9KFileItem11permissionsEv
libKF6KIOCore.so.6:_ZNK9KFileItem13isRegularFileEv
libKF6KIOCore.so.6:_ZNK9KFileItem3urlEv
libKF6KIOCore.so.6:_ZNK9KFileItem4modeEv
libKF6KIOCore.so.6:_ZNK9KFileItem4nameEb
libKF6KIOCore.so.6:_ZNK9KFileItem4sizeEv
libKF6KIOCore.so.6:_ZNK9KFileItem4timeENS_9FileTimesE
libKF6KIOCore.so.6:_ZNK9KFileItem4userEv
libKF6KIOCore.so.6:_ZNK9KFileItem5groupEv
libKF6KIOCore.so.6:_ZNK9KFileItem5isDirEv
libKF6KIOCore.so.6:_ZNK9KFileItem6isLinkEv
libKF6KIOCore.so.6:_ZNK9KFileItem6isNullEv
libKF6KIOCore.so.6:_ZNK9KFileItem8iconNameEv
libKF6KIOCore.so.6:_ZNK9KFileItem8isHiddenEv
libKF6KIOCore.so.6:_ZNK9KFileItem8mimetypeEv
libKF6KIOCore.so.6:_ZNK9KFileItem9localPathEv
libKF6KIOCore.so.6:_ZNK9KFileItem9targetUrlEv
libKF6KIOCore.so.6:_ZNK9KFileItemeqERKS_
libKF6KIOCore.so.6:_ZNK9KFileItemltERKS_
libKF6KIOCore.so.6:_Zls6QDebugRK9KFileItem
libKF6KIOCore.so.6:_Zls6QDebugRKN3KIO8UDSEntryE
libKF6KIOCore.so.6:_ZlsR11QDataStreamRK9KFileItem
libKF6KIOCore.so.6:_ZlsR11QDataStreamRKN3KIO8UDSEntryE
libKF6KIOCore.so.6:_ZrsR11QDataStreamR9KFileItem
libKF6KIOCore.so.6:_ZrsR11QDataStreamRN3KIO8UDSEntryE
libKF6KIOGui.so.6:_ZN3KIO10OpenUrlJobC1ERK4QUrlP7QObject
libKF6KIOGui.so.6:_ZN3KIO22highlightInFileManagerERK5QListI4QUrlERK10QByteArray
libKF6KIOWidgets.so.6:_ZN12KUrlComboBoxC1ENS_4ModeEP7QWidget
libKF6KIOWidgets.so.6:_ZN14KUrlCompletionC1ENS_4ModeE
libKF6KIOWidgets.so.6:_ZN16KFileItemActions12addActionsToEP5QMenu6QFlagsINS_16MenuActionSourceEERK5QListIP7QActionERKS5_I7QStringE
libKF6KIOWidgets.so.6:_ZN16KFileItemActions21setItemListPropertiesERK23KFileItemListProperties
libKF6KIOWidgets.so.6:_ZN16KFileItemActions23insertOpenWithActionsToEP7QActionP5QMenuRK5QListI7QStringE
libKF6KIOWidgets.so.6:_ZN16KFileItemActionsC1EP7QObject
libKF6KIOWidgets.so.6:_ZN16KFileItemActionsD1Ev
libKF6KIOWidgets.so.6:_ZN17KPropertiesDialog10canDisplayERK13KFileItemList
libKF6KIOWidgets.so.6:_ZN17KPropertiesDialog10showDialogERK13KFileItemListP7QWidgetb
libKF6KIOWidgets.so.6:_ZN3KIO16DeleteOrTrashJobC1ERK5QListI4QUrlENS_22AskUserActionInterface12DeletionTypeENS6_16ConfirmationTypeEP7QObject
libKF6WidgetsAddons.so.6:_ZN11KMessageBox5errorEP7QWidgetRK7QStringS4_6QFlagsINS_6OptionEE
libKF6WidgetsAddons.so.6:_ZN13KDateComboBox7setDateERK5QDate
libKF6WidgetsAddons.so.6:_ZN13KDateComboBoxC1EP7QWidget
libKF6WidgetsAddons.so.6:_ZN16KStandardGuiItem4findEv
libKF6WidgetsAddons.so.6:_ZN16KStandardGuiItem4stopEv
libKF6WidgetsAddons.so.6:_ZN16KStandardGuiItem6saveAsEv
libKF6WidgetsAddons.so.6:_ZN8KGuiItem6assignEP11QPushButtonRKS_
libKF6WidgetsAddons.so.6:_ZN8KGuiItemD1Ev
libKF6WidgetsAddons.so.6:_ZNK13KDateComboBox4dateEv
libKF6XmlGui.so.6:_ZN17KActionCollection18setDefaultShortcutEP7QActionRK12QKeySequence
libKF6XmlGui.so.6:_ZN17KActionCollection19addAssociatedWidgetEP7QWidget
libKF6XmlGui.so.6:_ZN17KActionCollection19setDefaultShortcutsEP7QActionRK5QListI12QKeySequenceE
libKF6XmlGui.so.6:_ZN17KActionCollection9addActionERK7QStringP7QAction
libKF6XmlGui.so.6:_ZN17KActionCollection9addActionERK7QStringPK7QObjectPKc
libKF6XmlGui.so.6:_ZN17KActionCollectionC1EP7QObjectRK7QString
libKF6XmlGui.so.6:_ZN23KAboutApplicationDialogC1ERK10KAboutData6QFlagsINS_6OptionEEP7QWidget
libKF6XmlGui.so.6:_ZN23KAboutApplicationDialogD1Ev
libKF6XmlGui.so.6:_ZN9KHelpMenu16setShowWhatsThisEb
libKF6XmlGui.so.6:_ZN9KHelpMenu4menuEv
libKF6XmlGui.so.6:_ZN9KHelpMenuC1EP7QWidgetRK10KAboutData
libKF6XmlGui.so.6:_ZNK17KActionCollection6actionERK7QString
libQt6Core.so.6:_Z13comparesEqualRK4QUrlS1_
libQt6Core.so.6:_Z26qt_QMetaEnum_debugOperatorR6QDebugxPK11QMetaObjectPKc
libQt6Core.so.6:_Z53qRegisterNormalizedMetaType_QPairVariantInterfaceImplRK10QByteArray
libQt6Core.so.6:_ZN10QArrayData10deallocateEPS_xx
libQt6Core.so.6:_ZN10QArrayData19reallocateUnalignedEPS_PvxxNS_16AllocationOptionE
libQt6Core.so.6:_ZN10QArrayData8allocateEPPS_xxxNS_16AllocationOptionE
libQt6Core.so.6:_ZN10QByteArray11reallocDataExN10QArrayData16AllocationOptionE
libQt6Core.so.6:_ZN10QByteArray5clearEv
libQt6Core.so.6:_ZN10QByteArray6_emptyE
libQt6Core.so.6:_ZN10QByteArray6appendERKS_
libQt6Core.so.6:_ZN10QByteArray6appendEc
libQt6Core.so.6:_ZN10QByteArray6insertEx14QByteArrayView
libQt6Core.so.6:_ZN10QByteArrayC1EPKcx
libQt6Core.so.6:_ZN11QBasicMutex12lockInternalEv
libQt6Core.so.6:_ZN11QBasicMutex19unlockInternalFutexEPv
libQt6Core.so.6:_ZN11QDataStream11resetStatusEv
libQt6Core.so.6:_ZN11QDataStream9setStatusENS_6StatusE
libQt6Core.so.6:_ZN11QDataStreamlsEi
libQt6Core.so.6:_ZN11QDataStreamlsEx
libQt6Core.so.6:_ZN11QDataStreamrsERi
libQt6Core.so.6:_ZN11QDataStreamrsERx
libQt6Core.so.6:_ZN11QFileDevice5closeEv
libQt6Core.so.6:_ZN11QMetaObject10ConnectionD1Ev
libQt6Core.so.6:_ZN11QMetaObject14normalizedTypeEPKc
libQt6Core.so.6:_ZN11QMetaObject8activateEP7QObjectPKS_iPPv
libQt6Core.so.6:_ZN11QTextStream11setEncodingEN16QStringConverter8EncodingE
libQt6Core.so.6:_ZN11QTextStream8readLineEx
libQt6Core.so.6:_ZN11QTextStreamC1EP9QIODevice
libQt6Core.so.6:_ZN11QTextStreamC1ERK10QByteArray6QFlagsIN13QIODeviceBase12OpenModeFlagEE
libQt6Core.so.6:_ZN11QTextStreamD1Ev
libQt6Core.so.6:_ZN11QTextStreamlsERK7QString
libQt6Core.so.6:_ZN11QTextStreamlsEc
libQt6Core.so.6:_ZN11QThreadPool14globalInstanceEv
libQt6Core.so.6:_ZN11QThreadPool5startEP9QRunnablei
libQt6Core.so.6:_ZN13QMimeDatabaseC1Ev
libQt6Core.so.6:_ZN13QMimeDatabaseD1Ev
libQt6Core.so.6:_ZN14QStandardPaths14findExecutableERK7QStringRK5QListIS0_E
libQt6Core.so.6:_ZN16QCoreApplication13processEventsE6QFlagsIN10QEventLoop17ProcessEventsFlagEE
libQt6Core.so.6:_ZN16QDebugStateSaverC1ER6QDebug
libQt6Core.so.6:_ZN16QDebugStateSaverD1Ev
libQt6Core.so.6:_ZN16QLoggingCategoryC1EPKc9QtMsgType
libQt6Core.so.6:_ZN16QLoggingCategoryD1Ev
libQt6Core.so.6:_ZN18QAbstractItemModel10insertRowsEiiRK11QModelIndex
libQt6Core.so.6:_ZN18QAbstractItemModel10removeRowsEiiRK11QModelIndex
libQt6Core.so.6:_ZN18QAbstractItemModel11moveColumnsERK11QModelIndexiiS2_i
libQt6Core.so.6:_ZN18QAbstractItemModel11setItemDataERK11QModelIndexRK4QMapIi8QVariantE
libQt6Core.so.6:_ZN18QAbstractItemModel13clearItemDataERK11QModelIndex
libQt6Core.so.6:_ZN18QAbstractItemModel13endInsertRowsEv
libQt6Core.so.6:_ZN18QAbstractItemModel13endRemoveRowsEv
libQt6Core.so.6:_ZN18QAbstractItemModel13insertColumnsEiiRK11QModelIndex
libQt6Core.so.6:_ZN18QAbstractItemModel13removeColumnsEiiRK11QModelIndex
libQt6Core.so.6:_ZN18QAbstractItemModel13setHeaderDataEiN2Qt11OrientationERK8QVarianti
libQt6Core.so.6:_ZN18QAbstractItemModel15beginInsertRowsERK11QModelIndexii
libQt6Core.so.6:_ZN18QAbstractItemModel15beginRemoveRowsERK11QModelIndexii
libQt6Core.so.6:_ZN18QAbstractItemModel17resetInternalDataEv
libQt6Core.so.6:_ZN18QAbstractItemModel4sortEiN2Qt9SortOrderE
libQt6Core.so.6:_ZN18QAbstractItemModel6revertEv
libQt6Core.so.6:_ZN18QAbstractItemModel6submitEv
libQt6Core.so.6:_ZN18QAbstractItemModel7setDataERK11QModelIndexRK8QVarianti
libQt6Core.so.6:_ZN18QAbstractItemModel8moveRowsERK11QModelIndexiiS2_i
libQt6Core.so.6:_ZN18QAbstractItemModel9fetchMoreERK11QModelIndex
libQt6Core.so.6:_ZN18QCommandLineOptionC1ERK5QListI7QStringERKS1_S6_S6_
libQt6Core.so.6:_ZN18QCommandLineOptionD1Ev
libQt6Core.so.6:_ZN18QCommandLineParser7processERK16QCoreApplication
libQt6Core.so.6:_ZN18QCommandLineParser9addOptionERK18QCommandLineOption
libQt6Core.so.6:_ZN18QCommandLineParserC1Ev
libQt6Core.so.6:_ZN18QCommandLineParserD1Ev
libQt6Core.so.6:_ZN18QFutureWatcherBase11qt_metacallEN11QMetaObject4CallEiPPv
libQt6Core.so.6:_ZN18QFutureWatcherBase11qt_metacastEPKc
libQt6Core.so.6:_ZN18QFutureWatcherBase13connectNotifyERK11QMetaMethod
libQt6Core.so.6:_ZN18QFutureWatcherBase16disconnectNotifyERK11QMetaMethod
libQt6Core.so.6:_ZN18QFutureWatcherBase16staticMetaObjectE
libQt6Core.so.6:_ZN18QFutureWatcherBase22connectOutputInterfaceEv
libQt6Core.so.6:_ZN18QFutureWatcherBase25disconnectOutputInterfaceEb
libQt6Core.so.6:_ZN18QFutureWatcherBase5eventEP6QEvent
libQt6Core.so.6:_ZN18QFutureWatcherBase8finishedEv
libQt6Core.so.6:_ZN18QFutureWatcherBaseC2EP7QObject
libQt6Core.so.6:_ZN18QRegularExpressionC1ERK7QString6QFlagsINS_13PatternOptionEE
libQt6Core.so.6:_ZN18QRegularExpressionD1Ev
libQt6Core.so.6:_ZN19QAbstractProxyModel11setItemDataERK11QModelIndexRK4QMapIi8QVariantE
libQt6Core.so.6:_ZN19QAbstractProxyModel13clearItemDataERK11QModelIndex
libQt6Core.so.6:_ZN19QAbstractProxyModel6revertEv
libQt6Core.so.6:_ZN19QAbstractProxyModel6submitEv
libQt6Core.so.6:_ZN19QAbstractTableModel11qt_metacallEN11QMetaObject4CallEiPPv
libQt6Core.so.6:_ZN19QAbstractTableModel11qt_metacastEPKc
libQt6Core.so.6:_ZN19QAbstractTableModel12dropMimeDataEPK9QMimeDataN2Qt10DropActionEiiRK11QModelIndex
libQt6Core.so.6:_ZN19QAbstractTableModelC2EP7QObject
libQt6Core.so.6:_ZN19QAbstractTableModelD2Ev
libQt6Core.so.6:_ZN20QFutureInterfaceBase11setRunnableEP9QRunnable
libQt6Core.so.6:_ZN20QFutureInterfaceBase13reportStartedEv
libQt6Core.so.6:_ZN20QFutureInterfaceBase13setThreadPoolEP11QThreadPool
libQt6Core.so.6:_ZN20QFutureInterfaceBase13waitForResultEi
libQt6Core.so.6:_ZN20QFutureInterfaceBase14reportCanceledEv
libQt6Core.so.6:_ZN20QFutureInterfaceBase14reportFinishedEv
libQt6Core.so.6:_ZN20QFutureInterfaceBase15resultStoreBaseEv
libQt6Core.so.6:_ZN20QFutureInterfaceBase18reportResultsReadyEii
libQt6Core.so.6:_ZN20QFutureInterfaceBase4swapERS_
libQt6Core.so.6:_ZN20QFutureInterfaceBaseC2ENS_5StateE
libQt6Core.so.6:_ZN20QFutureInterfaceBaseC2ERKS_
libQt6Core.so.6:_ZN20QFutureInterfaceBaseD2Ev
libQt6Core.so.6:_ZN21QPersistentModelIndexC1ERK11QModelIndex
libQt6Core.so.6:_ZN21QPersistentModelIndexC1ERKS_
libQt6Core.so.6:_ZN21QPersistentModelIndexD1Ev
libQt6Core.so.6:_ZN21QSortFilterProxyModel10insertRowsEiiRK11QModelIndex
libQt6Core.so.6:_ZN21QSortFilterProxyModel10removeRowsEiiRK11QModelIndex
libQt6Core.so.6:_ZN21QSortFilterProxyModel11qt_metacallEN11QMetaObject4CallEiPPv
libQt6Core.so.6:_ZN21QSortFilterProxyModel11qt_metacastEPKc
libQt6Core.so.6:_ZN21QSortFilterProxyModel12dropMimeDataEPK9QMimeDataN2Qt10DropActionEiiRK11QModelIndex
libQt6Core.so.6:_ZN21QSortFilterProxyModel13insertColumnsEiiRK11QModelIndex
libQt6Core.so.6:_ZN21QSortFilterProxyModel13removeColumnsEiiRK11QModelIndex
libQt6Core.so.6:_ZN21QSortFilterProxyModel13setHeaderDataEiN2Qt11OrientationERK8QVarianti
libQt6Core.so.6:_ZN21QSortFilterProxyModel14setSourceModelEP18QAbstractItemModel
libQt6Core.so.6:_ZN21QSortFilterProxyModel16staticMetaObjectE
libQt6Core.so.6:_ZN21QSortFilterProxyModel4sortEiN2Qt9SortOrderE
libQt6Core.so.6:_ZN21QSortFilterProxyModel7setDataERK11QModelIndexRK8QVarianti
libQt6Core.so.6:_ZN21QSortFilterProxyModel9fetchMoreERK11QModelIndex
libQt6Core.so.6:_ZN21QSortFilterProxyModelC2EP7QObject
libQt6Core.so.6:_ZN21QSortFilterProxyModelD2Ev
libQt6Core.so.6:_ZN2Qt4endlER11QTextStream
libQt6Core.so.6:_ZN4QDir11currentPathEv
libQt6Core.so.6:_ZN4QDir8homePathEv
libQt6Core.so.6:_ZN4QDirC1ERK7QString
libQt6Core.so.6:_ZN4QDirD1Ev
libQt6Core.so.6:_ZN4QUrl13fromLocalFileERK7QString
libQt6Core.so.6:_ZN4QUrl13fromUserInputERK7QStringS2_6QFlagsINS_25UserInputResolutionOptionEE
libQt6Core.so.6:_ZN4QUrlC1ERKS_
libQt6Core.so.6:_ZN4QUrlC1Ev
libQt6Core.so.6:_ZN4QUrlD1Ev
libQt6Core.so.6:_ZN4QUrlaSERKS_
libQt6Core.so.6:_ZN5QDate11currentDateEv
libQt6Core.so.6:_ZN5QFile11setFileNameERK7QString
libQt6Core.so.6:_ZN5QFile4openE6QFlagsIN13QIODeviceBase12OpenModeFlagEE
libQt6Core.so.6:_ZN5QFileC1ERK7QString
libQt6Core.so.6:_ZN5QFileC1Ev
libQt6Core.so.6:_ZN5QFileD1Ev
libQt6Core.so.6:_ZN6QDebug9putStringEPK5QCharm
libQt6Core.so.6:_ZN6QDebugD1Ev
libQt6Core.so.6:_ZN7QObject10childEventEP11QChildEvent
libQt6Core.so.6:_ZN7QObject10disconnectEPKS_PKcS1_S3_
libQt6Core.so.6:_ZN7QObject10timerEventEP11QTimerEvent
libQt6Core.so.6:_ZN7QObject11connectImplEPKS_PPvS1_S3_PN9QtPrivate15QSlotObjectBaseEN2Qt14ConnectionTypeEPKiPK11QMetaObject
libQt6Core.so.6:_ZN7QObject11customEventEP6QEvent
libQt6Core.so.6:_ZN7QObject11deleteLaterEv
libQt6Core.so.6:_ZN7QObject11eventFilterEPS_P6QEvent
libQt6Core.so.6:_ZN7QObject11qt_metacallEN11QMetaObject4CallEiPPv
libQt6Core.so.6:_ZN7QObject11qt_metacastEPKc
libQt6Core.so.6:_ZN7QObject13connectNotifyERK11QMetaMethod
libQt6Core.so.6:_ZN7QObject14disconnectImplEPKS_PPvS1_S3_PK11QMetaObject
libQt6Core.so.6:_ZN7QObject15doSetObjectNameERK7QString
libQt6Core.so.6:_ZN7QObject16disconnectNotifyERK11QMetaMethod
libQt6Core.so.6:_ZN7QObject16staticMetaObjectE
libQt6Core.so.6:_ZN7QObject5eventEP6QEvent
libQt6Core.so.6:_ZN7QObjectC2EPS_
libQt6Core.so.6:_ZN7QObjectD2Ev
libQt6Core.so.6:_ZN7QString10fromLatin1E14QByteArrayView
libQt6Core.so.6:_ZN7QString13fromLocal8BitE14QByteArrayView
libQt6Core.so.6:_ZN7QString14trimmed_helperERKS_
libQt6Core.so.6:_ZN7QString14trimmed_helperERS_
libQt6Core.so.6:_ZN7QString6_emptyE
libQt6Core.so.6:_ZN7QString6numberEii
libQt6Core.so.6:_ZN7QString7replaceERK18QRegularExpressionRKS_
libQt6Core.so.6:_ZN7QString8fromUtf8E14QByteArrayView
libQt6Core.so.6:_ZN7QStringC1E5QChar
libQt6Core.so.6:_ZN7QStringC1ExN2Qt14InitializationE
libQt6Core.so.6:_ZN7QStringaSERKS_
libQt6Core.so.6:_ZN8QProcess15waitForFinishedEi
libQt6Core.so.6:_ZN8QProcess16staticMetaObjectE
libQt6Core.so.6:_ZN8QProcess21readAllStandardOutputEv
libQt6Core.so.6:_ZN8QProcess22readyReadStandardErrorENS_14QPrivateSignalE
libQt6Core.so.6:_ZN8QProcess23readyReadStandardOutputENS_14QPrivateSignalE
libQt6Core.so.6:_ZN8QProcess4killEv
libQt6Core.so.6:_ZN8QProcess8finishedEiNS_10ExitStatusE
libQt6Core.so.6:_ZN8QVariantC1ERK7QString
libQt6Core.so.6:_ZN8QVariantC1Ei
libQt6Core.so.6:_ZN8QVariantC1Ex
libQt6Core.so.6:_ZN8QVariantC1Ey
libQt6Core.so.6:_ZN8QVariantD1Ev
libQt6Core.so.6:_ZN9QDateTime17setSecsSinceEpochEx
libQt6Core.so.6:_ZN9QDateTimeC1Ev
libQt6Core.so.6:_ZN9QDateTimeD1Ev
libQt6Core.so.6:_ZN9QFileInfoC1ERK7QString
libQt6Core.so.6:_ZN9QFileInfoD1Ev
libQt6Core.so.6:_ZN9QIODevice4readEx
libQt6Core.so.6:_ZN9QMetaType14registerHelperEPKN9QtPrivate18QMetaTypeInterfaceE
libQt6Core.so.6:_ZN9QMetaType25registerConverterFunctionERKSt8functionIFbPKvPvEES_S_
libQt6Core.so.6:_ZN9QMetaType25registerNormalizedTypedefERK10QByteArrayS_
libQt6Core.so.6:_ZN9QMetaType27registerMutableViewFunctionERKSt8functionIFbPvS1_EES_S_
libQt6Core.so.6:_ZN9QMetaType27unregisterConverterFunctionES_S_
libQt6Core.so.6:_ZN9QMetaType29unregisterMutableViewFunctionES_S_
libQt6Core.so.6:_ZN9QMimeData7setUrlsERK5QListI4QUrlE
libQt6Core.so.6:_ZN9QMimeDataC1Ev
libQt6Core.so.6:_ZN9QMimeTypeC1ERKS_
libQt6Core.so.6:_ZN9QMimeTypeC1Ev
libQt6Core.so.6:_ZN9QMimeTypeD1Ev
libQt6Core.so.6:_ZN9QRunnableD2Ev
libQt6Core.so.6:_ZN9QtPrivate12argToQStringE14QAnyStringViewmPPKNS_7ArgBaseE
libQt6Core.so.6:_ZN9QtPrivate12equalStringsE11QStringView13QLatin1String
libQt6Core.so.6:_ZN9QtPrivate12equalStringsE11QStringViewS0_
libQt6Core.so.6:_ZN9QtPrivate14compareStringsE11QStringViewS0_N2Qt15CaseSensitivityE
libQt6Core.so.6:_ZN9QtPrivate15ResultStoreBase9addResultEiPKv
libQt6Core.so.6:_ZN9QtPrivate19QStringList_indexOfERK5QListI7QStringE11QStringViewxN2Qt15CaseSensitivityE
libQt6Core.so.6:_ZN9QtPrivate20QStringList_containsEPK5QListI7QStringE11QStringViewN2Qt15CaseSensitivityE
libQt6Core.so.6:_ZN9QtPrivate25QMetaTypeInterfaceWrapperI11QModelIndexE8metaTypeE
libQt6Core.so.6:_ZN9QtPrivate25QMetaTypeInterfaceWrapperI5QListI7QStringEE8metaTypeE
libQt6Core.so.6:_ZN9QtPrivate25QMetaTypeInterfaceWrapperI6QPointE8metaTypeE
libQt6Core.so.6:_ZN9QtPrivate25QMetaTypeInterfaceWrapperI7QStringE8metaTypeE
libQt6Core.so.6:_ZN9QtPrivate25QMetaTypeInterfaceWrapperIbE8metaTypeE
libQt6Core.so.6:_ZN9QtPrivate25QMetaTypeInterfaceWrapperIiE8metaTypeE
libQt6Core.so.6:_ZN9QtPrivate52hasRegisteredConverterFunctionToIterableMetaSequenceE9QMetaType
libQt6Core.so.6:_ZN9QtPrivate52hasRegisteredConverterFunctionToPairVariantInterfaceE9QMetaType
libQt6Core.so.6:_ZN9QtPrivate54hasRegisteredMutableViewFunctionToIterableMetaSequenceE9QMetaType
libQt6Core.so.6:_ZNK11QDataStream26isDeviceTransactionStartedEv
libQt6Core.so.6:_ZNK11QMetaObject9classNameEv
libQt6Core.so.6:_ZNK11QObjectData17dynamicMetaObjectEv
libQt6Core.so.6:_ZNK11QTextStream5atEndEv
libQt6Core.so.6:_ZNK13QMimeDatabase12allMimeTypesEv
libQt6Core.so.6:_ZNK13QMimeDatabase15mimeTypeForFileERK7QStringNS_9MatchModeE
libQt6Core.so.6:_ZNK14QItemSelection7indexesEv
libQt6Core.so.6:_ZNK14QMessageLogger7warningEv
libQt6Core.so.6:_ZNK18QAbstractItemModel12canFetchMoreERK11QModelIndex
libQt6Core.so.6:_ZNK18QAbstractItemModel15canDropMimeDataEPK9QMimeDataN2Qt10DropActionEiiRK11QModelIndex
libQt6Core.so.6:_ZNK18QAbstractItemModel20supportedDragActionsEv
libQt6Core.so.6:_ZNK18QAbstractItemModel4spanERK11QModelIndex
libQt6Core.so.6:_ZNK18QAbstractItemModel5buddyERK11QModelIndex
libQt6Core.so.6:_ZNK18QAbstractItemModel5matchERK11QModelIndexiRK8QVarianti6QFlagsIN2Qt9MatchFlagEE
libQt6Core.so.6:_ZNK18QAbstractItemModel8itemDataERK11QModelIndex
libQt6Core.so.6:_ZNK18QAbstractItemModel9mimeTypesEv
libQt6Core.so.6:_ZNK18QAbstractItemModel9multiDataERK11QModelIndex18QModelRoleDataSpan
libQt6Core.so.6:_ZNK18QAbstractItemModel9roleNamesEv
libQt6Core.so.6:_ZNK18QCommandLineParser19positionalArgumentsEv
libQt6Core.so.6:_ZNK18QFutureWatcherBase10metaObjectEv
libQt6Core.so.6:_ZNK19QAbstractProxyModel11sourceModelEv
libQt6Core.so.6:_ZNK19QAbstractProxyModel15canDropMimeDataEPK9QMimeDataN2Qt10DropActionEiiRK11QModelIndex
libQt6Core.so.6:_ZNK19QAbstractProxyModel20supportedDragActionsEv
libQt6Core.so.6:_ZNK19QAbstractProxyModel8itemDataERK11QModelIndex
libQt6Core.so.6:_ZNK19QAbstractProxyModel9roleNamesEv
libQt6Core.so.6:_ZNK19QAbstractTableModel10metaObjectEv
libQt6Core.so.6:_ZNK19QAbstractTableModel11hasChildrenERK11QModelIndex
libQt6Core.so.6:_ZNK19QAbstractTableModel5indexEiiRK11QModelIndex
libQt6Core.so.6:_ZNK19QAbstractTableModel6parentERK11QModelIndex
libQt6Core.so.6:_ZNK19QAbstractTableModel7siblingEiiRK11QModelIndex
libQt6Core.so.6:_ZNK19QItemSelectionModel9selectionEv
libQt6Core.so.6:_ZNK20QFutureInterfaceBase10isCanceledEv
libQt6Core.so.6:_ZNK20QFutureInterfaceBase10queryStateENS_5StateE
libQt6Core.so.6:_ZNK20QFutureInterfaceBase12hasExceptionEv
libQt6Core.so.6:_ZNK20QFutureInterfaceBase15resultStoreBaseEv
libQt6Core.so.6:_ZNK20QFutureInterfaceBase15runContinuationEv
libQt6Core.so.6:_ZNK20QFutureInterfaceBase4refTEv
libQt6Core.so.6:_ZNK20QFutureInterfaceBase5mutexEv
libQt6Core.so.6:_ZNK20QFutureInterfaceBase6derefTEv
libQt6Core.so.6:_ZNK21QPersistentModelIndex7isValidEv
libQt6Core.so.6:_ZNK21QPersistentModelIndexcv11QModelIndexEv
libQt6Core.so.6:_ZNK21QSortFilterProxyModel10headerDataEiN2Qt11OrientationEi
libQt6Core.so.6:_ZNK21QSortFilterProxyModel11columnCountERK11QModelIndex
libQt6Core.so.6:_ZNK21QSortFilterProxyModel11hasChildrenERK11QModelIndex
libQt6Core.so.6:_ZNK21QSortFilterProxyModel11mapToSourceERK11QModelIndex
libQt6Core.so.6:_ZNK21QSortFilterProxyModel12canFetchMoreERK11QModelIndex
libQt6Core.so.6:_ZNK21QSortFilterProxyModel13mapFromSourceERK11QModelIndex
libQt6Core.so.6:_ZNK21QSortFilterProxyModel16filterAcceptsRowEiRK11QModelIndex
libQt6Core.so.6:_ZNK21QSortFilterProxyModel19filterAcceptsColumnEiRK11QModelIndex
libQt6Core.so.6:_ZNK21QSortFilterProxyModel20mapSelectionToSourceERK14QItemSelection
libQt6Core.so.6:_ZNK21QSortFilterProxyModel20supportedDropActionsEv
libQt6Core.so.6:_ZNK21QSortFilterProxyModel22mapSelectionFromSourceERK14QItemSelection
libQt6Core.so.6:_ZNK21QSortFilterProxyModel4dataERK11QModelIndexi
libQt6Core.so.6:_ZNK21QSortFilterProxyModel4spanERK11QModelIndex
libQt6Core.so.6:_ZNK21QSortFilterProxyModel5buddyERK11QModelIndex
libQt6Core.so.6:_ZNK21QSortFilterProxyModel5flagsERK11QModelIndex
libQt6Core.so.6:_ZNK21QSortFilterProxyModel5indexEiiRK11QModelIndex
libQt6Core.so.6:_ZNK21QSortFilterProxyModel5matchERK11QModelIndexiRK8QVarianti6QFlagsIN2Qt9MatchFlagEE
libQt6Core.so.6:_ZNK21QSortFilterProxyModel6parentERK11QModelIndex
libQt6Core.so.6:_ZNK21QSortFilterProxyModel7siblingEiiRK11QModelIndex
libQt6Core.so.6:_ZNK21QSortFilterProxyModel8lessThanERK11QModelIndexS2_
libQt6Core.so.6:_ZNK21QSortFilterProxyModel8mimeDataERK5QListI11QModelIndexE
libQt6Core.so.6:_ZNK21QSortFilterProxyModel8rowCountERK11QModelIndex
libQt6Core.so.6:_ZNK21QSortFilterProxyModel9mimeTypesEv
libQt6Core.so.6:_ZNK4QDir16relativeFilePathERK7QString
libQt6Core.so.6:_ZNK4QDir6existsEv
libQt6Core.so.6:_ZNK4QUrl10isParentOfERKS_
libQt6Core.so.6:_ZNK4QUrl11isLocalFileEv
libQt6Core.so.6:_ZNK4QUrl11toLocalFileEv
libQt6Core.so.6:_ZNK4QUrl15toDisplayStringE12QUrlTwoFlagsINS_19UrlFormattingOptionENS_25ComponentFormattingOptionEE
libQt6Core.so.6:_ZNK4QUrl3urlE12QUrlTwoFlagsINS_19UrlFormattingOptionENS_25ComponentFormattingOptionEE
libQt6Core.so.6:_ZNK4QUrl4pathE6QFlagsINS_25ComponentFormattingOptionEE
libQt6Core.so.6:_ZNK4QUrl7isEmptyEv
libQt6Core.so.6:_ZNK4QUrl7isValidEv
libQt6Core.so.6:_ZNK4QUrl8adjustedE12QUrlTwoFlagsINS_19UrlFormattingOptionENS_25ComponentFormattingOptionEE
libQt6Core.so.6:_ZNK4QUrl8fileNameE6QFlagsINS_25ComponentFormattingOptionEE
libQt6Core.so.6:_ZNK5QDate10startOfDayEv
libQt6Core.so.6:_ZNK5QDate7addDaysEx
libQt6Core.so.6:_ZNK5QDate8addYearsEi
libQt6Core.so.6:_ZNK7QString10startsWithE13QLatin1StringN2Qt15CaseSensitivityE
libQt6Core.so.6:_ZNK7QString5splitE5QChar6QFlagsIN2Qt18SplitBehaviorFlagsEENS2_15CaseSensitivityE
libQt6Core.so.6:_ZNK7QString7indexOfERKS_xN2Qt15CaseSensitivityE
libQt6Core.so.6:_ZNK8QProcess5stateEv
libQt6Core.so.6:_ZNK8QVariant11toULongLongEPb
libQt6Core.so.6:_ZNK8QVariant8toStringEv
libQt6Core.so.6:_ZNK9QDateTime16toSecsSinceEpochEv
libQt6Core.so.6:_ZNK9QDateTime6secsToERKS_
libQt6Core.so.6:_ZNK9QFileInfo10isReadableEv
libQt6Core.so.6:_ZNK9QFileInfo10isWritableEv
libQt6Core.so.6:_ZNK9QMimeType4nameEv
libQt6Core.so.6:_ZNK9QMimeType7commentEv
libQt6Core.so.6:_ZNK9QtPrivate15ResultStoreBase10filterModeEv
libQt6Core.so.6:_ZNK9QtPrivate15ResultStoreBase23containsValidResultItemEi
libQt6Core.so.6:_ZNK9QtPrivate15ResultStoreBase5countEv
libQt6Core.so.6:_ZNK9QtPrivate15ResultStoreBase8resultAtEi
libQt6Core.so.6:_ZTI18QFutureWatcherBase
libQt6Core.so.6:_ZTI19QAbstractTableModel
libQt6Core.so.6:_ZTI20QFutureInterfaceBase
libQt6Core.so.6:_ZTI21QSortFilterProxyModel
libQt6Core.so.6:_ZTI7QObject
libQt6Core.so.6:_ZTI9QRunnable
libQt6Core.so.6:_Zls6QDebugRK4QUrl
libQt6Core.so.6:_ZlsR11QDataStreamRK7QString
libQt6Core.so.6:_ZrsR11QDataStreamR7QString
libQt6Core.so.6:qt_version_tag
libQt6Core5Compat.so.6:_ZN10QTextCodec14codecForLocaleEv
libQt6Core5Compat.so.6:_ZN7QRegExp16setPatternSyntaxENS_13PatternSyntaxE
libQt6Core5Compat.so.6:_ZN7QRegExp18setCaseSensitivityEN2Qt15CaseSensitivityE
libQt6Core5Compat.so.6:_ZN7QRegExpC1ERK7QStringN2Qt15CaseSensitivityENS_13PatternSyntaxE
libQt6Core5Compat.so.6:_ZN7QRegExpC1Ev
libQt6Core5Compat.so.6:_ZN7QRegExpD1Ev
libQt6Core5Compat.so.6:_ZNK7QRegExp10exactMatchERK7QString
libQt6Gui.so.6:_ZN10QClipboard11setMimeDataEP9QMimeDataNS_4ModeE
libQt6Gui.so.6:_ZN10QClipboard7setTextERK7QStringNS_4ModeE
libQt6Gui.so.6:_ZN12QFontMetricsC1ERK5QFont
libQt6Gui.so.6:_ZN12QFontMetricsD1Ev
libQt6Gui.so.6:_ZN12QKeySequenceC1E15QKeyCombinationS0_S0_S0_
libQt6Gui.so.6:_ZN12QKeySequenceC1ERKS_
libQt6Gui.so.6:_ZN12QKeySequenceC1Eiiii
libQt6Gui.so.6:_ZN12QKeySequenceD1Ev
libQt6Gui.so.6:_ZN15QGuiApplication12mouseButtonsEv
libQt6Gui.so.6:_ZN15QGuiApplication13setWindowIconERK5QIcon
libQt6Gui.so.6:_ZN15QGuiApplication17keyboardModifiersEv
libQt6Gui.so.6:_ZN15QGuiApplication9clipboardEv
libQt6Gui.so.6:_ZN5QIcon9fromThemeERK7QString
libQt6Gui.so.6:_ZN5QIconC1ERKS_
libQt6Gui.so.6:_ZN5QIconC1Ev
libQt6Gui.so.6:_ZN5QIconD1Ev
libQt6Gui.so.6:_ZN5QIconaSERKS_
libQt6Gui.so.6:_ZN7QAction10setEnabledEb
libQt6Gui.so.6:_ZN7QAction12setWhatsThisERK7QString
libQt6Gui.so.6:_ZN7QAction16staticMetaObjectE
libQt6Gui.so.6:_ZN7QAction7setIconERK5QIcon
libQt6Gui.so.6:_ZN7QAction7setTextERK7QString
libQt6Gui.so.6:_ZN7QAction9triggeredEb
libQt6Gui.so.6:_ZN7QActionC1EP7QObject
libQt6Gui.so.6:_ZN7QActionC1ERK5QIconRK7QStringP7QObject
libQt6Gui.so.6:_ZNK12QFontMetrics12boundingRectERK7QString
libQt6Gui.so.6:_ZNK5QIconcv8QVariantEv
libQt6Gui.so.6:_ZNK7QScreen17availableGeometryEv
libQt6Widgets.so.6:_ZN10QBoxLayout10addStretchEi
libQt6Widgets.so.6:_ZN10QBoxLayout9addLayoutEP7QLayouti
libQt6Widgets.so.6:_ZN10QBoxLayout9addWidgetEP7QWidgeti6QFlagsIN2Qt13AlignmentFlagEE
libQt6Widgets.so.6:_ZN10QStatusBar9addWidgetEP7QWidgeti
libQt6Widgets.so.6:_ZN10QStatusBarC1EP7QWidget
libQt6Widgets.so.6:_ZN10QTabWidget10paintEventEP11QPaintEvent
libQt6Widgets.so.6:_ZN10QTabWidget10tabRemovedEi
libQt6Widgets.so.6:_ZN10QTabWidget11changeEventEP6QEvent
libQt6Widgets.so.6:_ZN10QTabWidget11qt_metacallEN11QMetaObject4CallEiPPv
libQt6Widgets.so.6:_ZN10QTabWidget11qt_metacastEPKc
libQt6Widgets.so.6:_ZN10QTabWidget11resizeEventEP12QResizeEvent
libQt6Widgets.so.6:_ZN10QTabWidget11tabInsertedEi
libQt6Widgets.so.6:_ZN10QTabWidget13keyPressEventEP9QKeyEvent
libQt6Widgets.so.6:_ZN10QTabWidget16staticMetaObjectE
libQt6Widgets.so.6:_ZN10QTabWidget5eventEP6QEvent
libQt6Widgets.so.6:_ZN10QTabWidget6addTabEP7QWidgetRK7QString
libQt6Widgets.so.6:_ZN10QTabWidget9showEventEP10QShowEvent
libQt6Widgets.so.6:_ZN10QTabWidgetC2EP7QWidget
libQt6Widgets.so.6:_ZN10QTabWidgetD2Ev
libQt6Widgets.so.6:_ZN11QFileDialog13setAcceptModeENS_10AcceptModeE
libQt6Widgets.so.6:_ZN11QFileDialog18setMimeTypeFiltersERK5QListI7QStringE
libQt6Widgets.so.6:_ZN11QFileDialog20getExistingDirectoryEP7QWidgetRK7QStringS4_6QFlagsINS_6OptionEE
libQt6Widgets.so.6:_ZN11QFileDialogC1EP7QWidgetRK7QStringS4_S4_
libQt6Widgets.so.6:_ZN11QFileDialogD1Ev
libQt6Widgets.so.6:_ZN11QGridLayout13setRowStretchEii
libQt6Widgets.so.6:_ZN11QGridLayout16setColumnStretchEii
libQt6Widgets.so.6:_ZN11QGridLayout9addLayoutEP7QLayoutiiii6QFlagsIN2Qt13AlignmentFlagEE
libQt6Widgets.so.6:_ZN11QGridLayout9addWidgetEP7QWidgetii6QFlagsIN2Qt13AlignmentFlagEE
libQt6Widgets.so.6:_ZN11QGridLayout9addWidgetEP7QWidgetiiii6QFlagsIN2Qt13AlignmentFlagEE
libQt6Widgets.so.6:_ZN11QGridLayoutC1EP7QWidget
libQt6Widgets.so.6:_ZN11QHBoxLayoutC1EP7QWidget
libQt6Widgets.so.6:_ZN11QHBoxLayoutC1Ev
libQt6Widgets.so.6:_ZN11QHeaderView21setStretchLastSectionEb
libQt6Widgets.so.6:_ZN11QPushButton10setDefaultEb
libQt6Widgets.so.6:_ZN11QPushButton7setMenuEP5QMenu
libQt6Widgets.so.6:_ZN11QPushButtonC1EP7QWidget
libQt6Widgets.so.6:_ZN11QPushButtonC1ERK7QStringP7QWidget
libQt6Widgets.so.6:_ZN11QVBoxLayoutC1EP7QWidget
libQt6Widgets.so.6:_ZN11QVBoxLayoutC1Ev
libQt6Widgets.so.6:_ZN12QApplicationC1ERiPPci
libQt6Widgets.so.6:_ZN12QApplicationD1Ev
libQt6Widgets.so.6:_ZN12QButtonGroup13buttonClickedEP15QAbstractButton
libQt6Widgets.so.6:_ZN12QButtonGroup16staticMetaObjectE
libQt6Widgets.so.6:_ZN12QButtonGroup9addButtonEP15QAbstractButtoni
libQt6Widgets.so.6:_ZN12QButtonGroupC1EP7QObject
libQt6Widgets.so.6:_ZN12QRadioButtonC1EP7QWidget
libQt6Widgets.so.6:_ZN12QRadioButtonC1ERK7QStringP7QWidget
libQt6Widgets.so.6:_ZN15QAbstractButton10setCheckedEb
libQt6Widgets.so.6:_ZN15QAbstractButton16staticMetaObjectE
libQt6Widgets.so.6:_ZN15QAbstractButton7clickedEb
libQt6Widgets.so.6:_ZN15QAbstractButton7setTextERK7QString
libQt6Widgets.so.6:_ZN15QAbstractButton7toggledEb
libQt6Widgets.so.6:_ZN15QAbstractSlider8setValueEi
libQt6Widgets.so.6:_ZN16QDialogButtonBox14setOrientationEN2Qt11OrientationE
libQt6Widgets.so.6:_ZN16QDialogButtonBox9addButtonEP15QAbstractButtonNS_10ButtonRoleE
libQt6Widgets.so.6:_ZN16QDialogButtonBoxC1E6QFlagsINS_14StandardButtonEEP7QWidget
libQt6Widgets.so.6:_ZN17QAbstractItemView10commitDataEP7QWidget
libQt6Widgets.so.6:_ZN17QAbstractItemView11closeEditorEP7QWidgetN21QAbstractItemDelegate11EndEditHintE
libQt6Widgets.so.6:_ZN17QAbstractItemView11eventFilterEP7QObjectP6QEvent
libQt6Widgets.so.6:_ZN17QAbstractItemView11resizeEventEP12QResizeEvent
libQt6Widgets.so.6:_ZN17QAbstractItemView12focusInEventEP11QFocusEvent
libQt6Widgets.so.6:_ZN17QAbstractItemView13doubleClickedERK11QModelIndex
libQt6Widgets.so.6:_ZN17QAbstractItemView13focusOutEventEP11QFocusEvent
libQt6Widgets.so.6:_ZN17QAbstractItemView14dragEnterEventEP15QDragEnterEvent
libQt6Widgets.so.6:_ZN17QAbstractItemView14dragLeaveEventEP15QDragLeaveEvent
libQt6Widgets.so.6:_ZN17QAbstractItemView14setDragEnabledEb
libQt6Widgets.so.6:_ZN17QAbstractItemView15editorDestroyedEP7QObject
libQt6Widgets.so.6:_ZN17QAbstractItemView16inputMethodEventEP17QInputMethodEvent
libQt6Widgets.so.6:_ZN17QAbstractItemView16setSelectionModeENS_13SelectionModeE
libQt6Widgets.so.6:_ZN17QAbstractItemView16staticMetaObjectE
libQt6Widgets.so.6:_ZN17QAbstractItemView16updateEditorDataEv
libQt6Widgets.so.6:_ZN17QAbstractItemView18focusNextPrevChildEb
libQt6Widgets.so.6:_ZN17QAbstractItemView22updateEditorGeometriesEv
libQt6Widgets.so.6:_ZN17QAbstractItemView23verticalScrollbarActionEi
libQt6Widgets.so.6:_ZN17QAbstractItemView31horizontalScrollbarValueChangedEi
libQt6Widgets.so.6:_ZN17QAbstractItemView4editERK11QModelIndexNS_11EditTriggerEP6QEvent
libQt6Widgets.so.6:_ZN17QAbstractItemView5eventEP6QEvent
libQt6Widgets.so.6:_ZN17QAbstractItemView7clickedERK11QModelIndex
libQt6Widgets.so.6:_ZN17QAbstractItemView7pressedERK11QModelIndex
libQt6Widgets.so.6:_ZN17QAbstractItemView9dropEventEP10QDropEvent
libQt6Widgets.so.6:_ZN17QAbstractItemView9startDragE6QFlagsIN2Qt10DropActionEE
libQt6Widgets.so.6:_ZN19QAbstractScrollArea10wheelEventEP11QWheelEvent
libQt6Widgets.so.6:_ZN19QAbstractScrollArea13setupViewportEP7QWidget
libQt6Widgets.so.6:_ZN19QAbstractScrollArea16contextMenuEventEP17QContextMenuEvent
libQt6Widgets.so.6:_ZN5QMenu12addSeparatorEv
libQt6Widgets.so.6:_ZN5QMenu4execERK6QPointP7QAction
libQt6Widgets.so.6:_ZN5QMenuC1EP7QWidget
libQt6Widgets.so.6:_ZN6QFrameC1EP7QWidget6QFlagsIN2Qt10WindowTypeEE
libQt6Widgets.so.6:_ZN6QLabel12setAlignmentE6QFlagsIN2Qt13AlignmentFlagEE
libQt6Widgets.so.6:_ZN6QLabel7setTextERK7QString
libQt6Widgets.so.6:_ZN6QLabel8setBuddyEP7QWidget
libQt6Widgets.so.6:_ZN6QLabelC1EP7QWidget6QFlagsIN2Qt10WindowTypeEE
libQt6Widgets.so.6:_ZN6QLabelC1ERK7QStringP7QWidget6QFlagsIN2Qt10WindowTypeEE
libQt6Widgets.so.6:_ZN7QDialog10closeEventEP11QCloseEvent
libQt6Widgets.so.6:_ZN7QDialog10setVisibleEb
libQt6Widgets.so.6:_ZN7QDialog11eventFilterEP7QObjectP6QEvent
libQt6Widgets.so.6:_ZN7QDialog11qt_metacallEN11QMetaObject4CallEiPPv
libQt6Widgets.so.6:_ZN7QDialog11qt_metacastEPKc
libQt6Widgets.so.6:_ZN7QDialog11resizeEventEP12QResizeEvent
libQt6Widgets.so.6:_ZN7QDialog13keyPressEventEP9QKeyEvent
libQt6Widgets.so.6:_ZN7QDialog16contextMenuEventEP17QContextMenuEvent
libQt6Widgets.so.6:_ZN7QDialog16staticMetaObjectE
libQt6Widgets.so.6:_ZN7QDialog4doneEi
libQt6Widgets.so.6:_ZN7QDialog4execEv
libQt6Widgets.so.6:_ZN7QDialog4openEv
libQt6Widgets.so.6:_ZN7QDialog6acceptEv
libQt6Widgets.so.6:_ZN7QDialog6rejectEv
libQt6Widgets.so.6:_ZN7QDialog8setModalEb
libQt6Widgets.so.6:_ZN7QDialog9showEventEP10QShowEvent
libQt6Widgets.so.6:_ZN7QDialogC2EP7QWidget6QFlagsIN2Qt10WindowTypeEE
libQt6Widgets.so.6:_ZN7QDialogD2Ev
libQt6Widgets.so.6:_ZN7QWidget10closeEventEP11QCloseEvent
libQt6Widgets.so.6:_ZN7QWidget10enterEventEP11QEnterEvent
libQt6Widgets.so.6:_ZN7QWidget10leaveEventEP6QEvent
libQt6Widgets.so.6:_ZN7QWidget10paintEventEP11QPaintEvent
libQt6Widgets.so.6:_ZN7QWidget10setEnabledEb
libQt6Widgets.so.6:_ZN7QWidget10setToolTipERK7QString
libQt6Widgets.so.6:_ZN7QWidget10setVisibleEb
libQt6Widgets.so.6:_ZN7QWidget10wheelEventEP11QWheelEvent
libQt6Widgets.so.6:_ZN7QWidget11actionEventEP12QActionEvent
libQt6Widgets.so.6:_ZN7QWidget11changeEventEP6QEvent
libQt6Widgets.so.6:_ZN7QWidget11nativeEventERK10QByteArrayPvPx
libQt6Widgets.so.6:_ZN7QWidget11tabletEventEP12QTabletEvent
libQt6Widgets.so.6:_ZN7QWidget12focusInEventEP11QFocusEvent
libQt6Widgets.so.6:_ZN7QWidget12setWhatsThisERK7QString
libQt6Widgets.so.6:_ZN7QWidget13dragMoveEventEP14QDragMoveEvent
libQt6Widgets.so.6:_ZN7QWidget13focusOutEventEP11QFocusEvent
libQt6Widgets.so.6:_ZN7QWidget13setSizePolicyE11QSizePolicy
libQt6Widgets.so.6:_ZN7QWidget14dragEnterEventEP15QDragEnterEvent
libQt6Widgets.so.6:_ZN7QWidget14dragLeaveEventEP15QDragLeaveEvent
libQt6Widgets.so.6:_ZN7QWidget14mouseMoveEventEP11QMouseEvent
libQt6Widgets.so.6:_ZN7QWidget14setMinimumSizeEii
libQt6Widgets.so.6:_ZN7QWidget14setWindowTitleERK7QString
libQt6Widgets.so.6:_ZN7QWidget15keyReleaseEventEP9QKeyEvent
libQt6Widgets.so.6:_ZN7QWidget15mousePressEventEP11QMouseEvent
libQt6Widgets.so.6:_ZN7QWidget16contextMenuEventEP17QContextMenuEvent
libQt6Widgets.so.6:_ZN7QWidget16inputMethodEventEP17QInputMethodEvent
libQt6Widgets.so.6:_ZN7QWidget16staticMetaObjectE
libQt6Widgets.so.6:_ZN7QWidget17mouseReleaseEventEP11QMouseEvent
libQt6Widgets.so.6:_ZN7QWidget18focusNextPrevChildEb
libQt6Widgets.so.6:_ZN7QWidget20setContextMenuPolicyEN2Qt17ContextMenuPolicyE
libQt6Widgets.so.6:_ZN7QWidget21mouseDoubleClickEventEP11QMouseEvent
libQt6Widgets.so.6:_ZN7QWidget26customContextMenuRequestedERK6QPoint
libQt6Widgets.so.6:_ZN7QWidget5closeEv
libQt6Widgets.so.6:_ZN7QWidget5eventEP6QEvent
libQt6Widgets.so.6:_ZN7QWidget8setFocusEN2Qt11FocusReasonE
libQt6Widgets.so.6:_ZN7QWidget9addActionEP7QAction
libQt6Widgets.so.6:_ZN7QWidget9dropEventEP10QDropEvent
libQt6Widgets.so.6:_ZN7QWidget9hideEventEP10QHideEvent
libQt6Widgets.so.6:_ZN7QWidget9moveEventEP10QMoveEvent
libQt6Widgets.so.6:_ZN7QWidget9showEventEP10QShowEvent
libQt6Widgets.so.6:_ZN7QWidgetC1EPS_6QFlagsIN2Qt10WindowTypeEE
libQt6Widgets.so.6:_ZN8QSpinBox12valueChangedEi
libQt6Widgets.so.6:_ZN8QSpinBox13setSingleStepEi
libQt6Widgets.so.6:_ZN8QSpinBox16staticMetaObjectE
libQt6Widgets.so.6:_ZN8QSpinBox8setRangeEii
libQt6Widgets.so.6:_ZN8QSpinBox8setValueEi
libQt6Widgets.so.6:_ZN8QSpinBoxC1EP7QWidget
libQt6Widgets.so.6:_ZN9QCheckBoxC1ERK7QStringP7QWidget
libQt6Widgets.so.6:_ZN9QComboBox10insertItemEiRK5QIconRK7QStringRK8QVariant
libQt6Widgets.so.6:_ZN9QComboBox11insertItemsEiRK5QListI7QStringE
libQt6Widgets.so.6:_ZN9QComboBox11setItemTextEiRK7QString
libQt6Widgets.so.6:_ZN9QComboBox11setMaxCountEi
libQt6Widgets.so.6:_ZN9QComboBox15insertSeparatorEi
libQt6Widgets.so.6:_ZN9QComboBox15setCurrentIndexEi
libQt6Widgets.so.6:_ZN9QComboBox15setInsertPolicyENS_12InsertPolicyE
libQt6Widgets.so.6:_ZN9QComboBox19currentIndexChangedEi
libQt6Widgets.so.6:_ZN9QComboBox20setDuplicatesEnabledEb
libQt6Widgets.so.6:_ZN9QComboBox5clearEv
libQt6Widgets.so.6:_ZN9QComboBox9activatedEi
libQt6Widgets.so.6:_ZN9QLineEdit13returnPressedEv
libQt6Widgets.so.6:_ZN9QLineEdit16staticMetaObjectE
libQt6Widgets.so.6:_ZN9QLineEdit21setClearButtonEnabledEb
libQt6Widgets.so.6:_ZN9QLineEdit9selectAllEv
libQt6Widgets.so.6:_ZN9QTreeView10moveCursorEN17QAbstractItemView12CursorActionE6QFlagsIN2Qt16KeyboardModifierEE
libQt6Widgets.so.6:_ZN9QTreeView10paintEventEP11QPaintEvent
libQt6Widgets.so.6:_ZN9QTreeView10timerEventEP11QTimerEvent
libQt6Widgets.so.6:_ZN9QTreeView11changeEventEP6QEvent
libQt6Widgets.so.6:_ZN9QTreeView11dataChangedERK11QModelIndexS2_RK5QListIiE
libQt6Widgets.so.6:_ZN9QTreeView11qt_metacallEN11QMetaObject4CallEiPPv
libQt6Widgets.so.6:_ZN9QTreeView11qt_metacastEPKc
libQt6Widgets.so.6:_ZN9QTreeView12rowsInsertedERK11QModelIndexii
libQt6Widgets.so.6:_ZN9QTreeView12setRootIndexERK11QModelIndex
libQt6Widgets.so.6:_ZN9QTreeView12setSelectionERK5QRect6QFlagsIN19QItemSelectionModel13SelectionFlagEE
libQt6Widgets.so.6:_ZN9QTreeView12sortByColumnEiN2Qt9SortOrderE
libQt6Widgets.so.6:_ZN9QTreeView13doItemsLayoutEv
libQt6Widgets.so.6:_ZN9QTreeView13keyPressEventEP9QKeyEvent
libQt6Widgets.so.6:_ZN9QTreeView13viewportEventEP6QEvent
libQt6Widgets.so.6:_ZN9QTreeView14currentChangedERK11QModelIndexS2_
libQt6Widgets.so.6:_ZN9QTreeView14keyboardSearchERK7QString
libQt6Widgets.so.6:_ZN9QTreeView14mouseMoveEventEP11QMouseEvent
libQt6Widgets.so.6:_ZN9QTreeView15mousePressEventEP11QMouseEvent
libQt6Widgets.so.6:_ZN9QTreeView16scrollContentsByEii
libQt6Widgets.so.6:_ZN9QTreeView16selectionChangedERK14QItemSelectionS2_
libQt6Widgets.so.6:_ZN9QTreeView16staticMetaObjectE
libQt6Widgets.so.6:_ZN9QTreeView16updateGeometriesEv
libQt6Widgets.so.6:_ZN9QTreeView17mouseReleaseEventEP11QMouseEvent
libQt6Widgets.so.6:_ZN9QTreeView17setSelectionModelEP19QItemSelectionModel
libQt6Widgets.so.6:_ZN9QTreeView17setSortingEnabledEb
libQt6Widgets.so.6:_ZN9QTreeView18setRootIsDecoratedEb
libQt6Widgets.so.6:_ZN9QTreeView20rowsAboutToBeRemovedERK11QModelIndexii
libQt6Widgets.so.6:_ZN9QTreeView21mouseDoubleClickEventEP11QMouseEvent
libQt6Widgets.so.6:_ZN9QTreeView22resizeColumnToContentsEi
libQt6Widgets.so.6:_ZN9QTreeView25horizontalScrollbarActionEi
libQt6Widgets.so.6:_ZN9QTreeView29verticalScrollbarValueChangedEi
libQt6Widgets.so.6:_ZN9QTreeView5resetEv
libQt6Widgets.so.6:_ZN9QTreeView8scrollToERK11QModelIndexN17QAbstractItemView10ScrollHintE
libQt6Widgets.so.6:_ZN9QTreeView8setModelEP18QAbstractItemModel
libQt6Widgets.so.6:_ZN9QTreeView9selectAllEv
libQt6Widgets.so.6:_ZN9QTreeViewC2EP7QWidget
libQt6Widgets.so.6:_ZN9QTreeViewD2Ev
libQt6Widgets.so.6:_ZNK10QTabWidget14heightForWidthEi
libQt6Widgets.so.6:_ZNK10QTabWidget15initStyleOptionEP26QStyleOptionTabWidgetFrame
libQt6Widgets.so.6:_ZNK10QTabWidget15minimumSizeHintEv
libQt6Widgets.so.6:_ZNK10QTabWidget17hasHeightForWidthEv
libQt6Widgets.so.6:_ZNK10QTabWidget8sizeHintEv
libQt6Widgets.so.6:_ZNK11QFileDialog12selectedUrlsEv
libQt6Widgets.so.6:_ZNK11QFileDialog22selectedMimeTypeFilterEv
libQt6Widgets.so.6:_ZNK15QAbstractButton9isCheckedEv
libQt6Widgets.so.6:_ZNK15QAbstractSlider5valueEv
libQt6Widgets.so.6:_ZNK16QDialogButtonBox6buttonENS_14StandardButtonE
libQt6Widgets.so.6:_ZNK17QAbstractItemView14selectionModelEv
libQt6Widgets.so.6:_ZNK17QAbstractItemView14sizeHintForRowEi
libQt6Widgets.so.6:_ZNK17QAbstractItemView16inputMethodQueryEN2Qt16InputMethodQueryE
libQt6Widgets.so.6:_ZNK17QAbstractItemView16selectionCommandERK11QModelIndexPK6QEvent
libQt6Widgets.so.6:_ZNK17QAbstractItemView18initViewItemOptionEP20QStyleOptionViewItem
libQt6Widgets.so.6:_ZNK17QAbstractItemView20itemDelegateForIndexERK11QModelIndex
libQt6Widgets.so.6:_ZNK19QAbstractScrollArea15minimumSizeHintEv
libQt6Widgets.so.6:_ZNK19QAbstractScrollArea17verticalScrollBarEv
libQt6Widgets.so.6:_ZNK19QAbstractScrollArea19horizontalScrollBarEv
libQt6Widgets.so.6:_ZNK19QAbstractScrollArea8sizeHintEv
libQt6Widgets.so.6:_ZNK19QAbstractScrollArea8viewportEv
libQt6Widgets.so.6:_ZNK6QFrame15initStyleOptionEP17QStyleOptionFrame
libQt6Widgets.so.6:_ZNK7QDialog15minimumSizeHintEv
libQt6Widgets.so.6:_ZNK7QDialog8sizeHintEv
libQt6Widgets.so.6:_ZNK7QWidget10redirectedEP6QPoint
libQt6Widgets.so.6:_ZNK7QWidget11initPainterEP8QPainter
libQt6Widgets.so.6:_ZNK7QWidget11mapToGlobalERK6QPoint
libQt6Widgets.so.6:_ZNK7QWidget11paintEngineEv
libQt6Widgets.so.6:_ZNK7QWidget13sharedPainterEv
libQt6Widgets.so.6:_ZNK7QWidget14heightForWidthEi
libQt6Widgets.so.6:_ZNK7QWidget16inputMethodQueryEN2Qt16InputMethodQueryE
libQt6Widgets.so.6:_ZNK7QWidget17hasHeightForWidthEv
libQt6Widgets.so.6:_ZNK7QWidget5styleEv
libQt6Widgets.so.6:_ZNK7QWidget6metricEN12QPaintDevice17PaintDeviceMetricE
libQt6Widgets.so.6:_ZNK7QWidget6screenEv
libQt6Widgets.so.6:_ZNK7QWidget7devTypeEv
libQt6Widgets.so.6:_ZNK8QSpinBox5valueEv
libQt6Widgets.so.6:_ZNK9QComboBox11currentTextEv
libQt6Widgets.so.6:_ZNK9QComboBox12currentIndexEv
libQt6Widgets.so.6:_ZNK9QComboBox5countEv
libQt6Widgets.so.6:_ZNK9QComboBox8itemTextEi
libQt6Widgets.so.6:_ZNK9QComboBox8lineEditEv
libQt6Widgets.so.6:_ZNK9QLineEdit4textEv
libQt6Widgets.so.6:_ZNK9QTreeView10indexBelowERK11QModelIndex
libQt6Widgets.so.6:_ZNK9QTreeView10visualRectERK11QModelIndex
libQt6Widgets.so.6:_ZNK9QTreeView12drawBranchesEP8QPainterRK5QRectRK11QModelIndex
libQt6Widgets.so.6:_ZNK9QTreeView13isIndexHiddenERK11QModelIndex
libQt6Widgets.so.6:_ZNK9QTreeView14verticalOffsetEv
libQt6Widgets.so.6:_ZNK9QTreeView15selectedIndexesEv
libQt6Widgets.so.6:_ZNK9QTreeView16horizontalOffsetEv
libQt6Widgets.so.6:_ZNK9QTreeView16viewportSizeHintEv
libQt6Widgets.so.6:_ZNK9QTreeView17sizeHintForColumnEi
libQt6Widgets.so.6:_ZNK9QTreeView24visualRegionForSelectionERK14QItemSelection
libQt6Widgets.so.6:_ZNK9QTreeView6headerEv
libQt6Widgets.so.6:_ZNK9QTreeView7drawRowEP8QPainterRK20QStyleOptionViewItemRK11QModelIndex
libQt6Widgets.so.6:_ZNK9QTreeView7indexAtERK6QPoint
libQt6Widgets.so.6:_ZTI10QTabWidget
libQt6Widgets.so.6:_ZTI7QDialog
libQt6Widgets.so.6:_ZTI9QTreeView
libQt6Widgets.so.6:_ZThn16_NK7QWidget10redirectedEP6QPoint
libQt6Widgets.so.6:_ZThn16_NK7QWidget11initPainterEP8QPainter
libQt6Widgets.so.6:_ZThn16_NK7QWidget11paintEngineEv
libQt6Widgets.so.6:_ZThn16_NK7QWidget13sharedPainterEv
libQt6Widgets.so.6:_ZThn16_NK7QWidget6metricEN12QPaintDevice17PaintDeviceMetricE
libQt6Widgets.so.6:_ZThn16_NK7QWidget7devTypeEv
libc.so.6:__cxa_atexit
libc.so.6:__libc_start_main
libc.so.6:__stack_chk_fail
libc.so.6:memcmp
libc.so.6:memcpy
libc.so.6:memmove
libc.so.6:strcmp
libc.so.6:strlen
libc.so.6:time
libstdc++.so.6:_ZSt18_Rb_tree_incrementPSt18_Rb_tree_node_base
libstdc++.so.6:_ZTVN10__cxxabiv117__class_type_infoE
libstdc++.so.6:_ZTVN10__cxxabiv120__si_class_type_infoE
libstdc++.so.6:_ZdlPvm
libstdc++.so.6:_Znwm
libstdc++.so.6:__cxa_guard_acquire
libstdc++.so.6:__cxa_guard_release
libstdc++.so.6:__cxa_pure_virtual
