UNKNOWN:_ZN19KIdentityManagement8thatIsMeERK7QString
UNKNOWN:_ZN8Grantlee10SafeStringC1ERK7QStringNS0_6SafetyE
UNKNOWN:_ZN8Grantlee10SafeStringC1ERKS0_
UNKNOWN:_ZN8Grantlee10SafeStringC1Ev
UNKNOWN:_ZN8Grantlee10SafeStringD1Ev
UNKNOWN:_ZN8Grantlee11QtLocalizer10pushLocaleERK7QString
UNKNOWN:_ZN8Grantlee11QtLocalizer11loadCatalogERK7QStringS3_
UNKNOWN:_ZN8Grantlee11QtLocalizer13unloadCatalogERK7QString
UNKNOWN:_ZN8Grantlee11QtLocalizer9popLocaleEv
UNKNOWN:_ZN8Grantlee11QtLocalizerC2ERK7QLocale
UNKNOWN:_ZN8Grantlee11QtLocalizerD2Ev
UNKNOWN:_ZN8Grantlee12OutputStreamlsERKNS_10SafeStringE
UNKNOWN:_ZN8Grantlee19AbstractNodeFactory11qt_metacallEN11QMetaObject4CallEiPPv
UNKNOWN:_ZN8Grantlee19AbstractNodeFactory11qt_metacastEPKc
UNKNOWN:_ZN8Grantlee19AbstractNodeFactory16staticMetaObjectE
UNKNOWN:_ZN8Grantlee19AbstractNodeFactoryC2EP7QObject
UNKNOWN:_ZN8Grantlee19AbstractNodeFactoryD2Ev
UNKNOWN:_ZN8Grantlee24FileSystemTemplateLoader15setTemplateDirsERK11QStringList
UNKNOWN:_ZN8Grantlee24FileSystemTemplateLoader8setThemeERK7QString
UNKNOWN:_ZN8Grantlee24FileSystemTemplateLoaderC2E14QSharedPointerINS_17AbstractLocalizerEE
UNKNOWN:_ZN8Grantlee24FileSystemTemplateLoaderD2Ev
UNKNOWN:_ZN8Grantlee4Node11qt_metacallEN11QMetaObject4CallEiPPv
UNKNOWN:_ZN8Grantlee4Node11qt_metacastEPKc
UNKNOWN:_ZN8Grantlee4Node16staticMetaObjectE
UNKNOWN:_ZN8Grantlee4NodeC2EP7QObject
UNKNOWN:_ZN8Grantlee4NodeD2Ev
UNKNOWN:_ZN8Grantlee6Engine13addPluginPathERK7QString
UNKNOWN:_ZN8Grantlee6Engine14setPluginPathsERK11QStringList
UNKNOWN:_ZN8Grantlee6Engine17addDefaultLibraryERK7QString
UNKNOWN:_ZN8Grantlee6Engine17addTemplateLoaderE14QSharedPointerINS_22AbstractTemplateLoaderEE
UNKNOWN:_ZN8Grantlee6Engine19setSmartTrimEnabledEb
UNKNOWN:_ZN8Grantlee6EngineC1EP7QObject
UNKNOWN:_ZN8Grantlee6FilterD2Ev
UNKNOWN:_ZN8Grantlee7Context12setLocalizerE14QSharedPointerINS_17AbstractLocalizerEE
UNKNOWN:_ZN8Grantlee7Context6insertERK7QStringRK8QVariant
UNKNOWN:_ZN8Grantlee7ContextC1Ev
UNKNOWN:_ZN8Grantlee7ContextD1Ev
UNKNOWN:_ZN8Grantlee8VariableC1ERK7QString
UNKNOWN:_ZN8Grantlee8VariableD1Ev
UNKNOWN:_ZNK8Grantlee10SafeString12NestedString5splitERK5QCharN7QString13SplitBehaviorEN2Qt15CaseSensitivityE
UNKNOWN:_ZNK8Grantlee11QtLocalizer12localizeDateERK5QDateN7QLocale10FormatTypeE
UNKNOWN:_ZNK8Grantlee11QtLocalizer12localizeTimeERK5QTimeN7QLocale10FormatTypeE
UNKNOWN:_ZNK8Grantlee11QtLocalizer13currentLocaleEv
UNKNOWN:_ZNK8Grantlee11QtLocalizer14localizeNumberEd
UNKNOWN:_ZNK8Grantlee11QtLocalizer14localizeNumberEi
UNKNOWN:_ZNK8Grantlee11QtLocalizer16localizeDateTimeERK9QDateTimeN7QLocale10FormatTypeE
UNKNOWN:_ZNK8Grantlee12TemplateImpl11errorStringEv
UNKNOWN:_ZNK8Grantlee12TemplateImpl5errorEv
UNKNOWN:_ZNK8Grantlee12TemplateImpl6renderEPNS_7ContextE
UNKNOWN:_ZNK8Grantlee17AbstractLocalizer8localizeERK8QVariant
UNKNOWN:_ZNK8Grantlee19AbstractNodeFactory10smartSplitERK7QString
UNKNOWN:_ZNK8Grantlee24FileSystemTemplateLoader10loadByNameERK7QStringPKNS_6EngineE
UNKNOWN:_ZNK8Grantlee24FileSystemTemplateLoader11getMediaUriERK7QString
UNKNOWN:_ZNK8Grantlee24FileSystemTemplateLoader15canLoadTemplateERK7QString
UNKNOWN:_ZNK8Grantlee6Engine11newTemplateERK7QStringS3_
UNKNOWN:_ZNK8Grantlee6Engine11pluginPathsEv
UNKNOWN:_ZNK8Grantlee8Variable7resolveEPNS_7ContextE
UNKNOWN:_ZTIN8Grantlee11QtLocalizerE
UNKNOWN:_ZTIN8Grantlee19AbstractNodeFactoryE
UNKNOWN:_ZTIN8Grantlee24FileSystemTemplateLoaderE
UNKNOWN:_ZTIN8Grantlee4NodeE
UNKNOWN:_ZTIN8Grantlee6FilterE
libKF5CalendarCore.so.5:_ZN13KCalendarCore10AttachmentD1Ev
libKF5CalendarCore.so.5:_ZN13KCalendarCore10ICalFormat10fromStringERK14QSharedPointerINS_8CalendarEERK7QStringbS8_
libKF5CalendarCore.so.5:_ZN13KCalendarCore10ICalFormat20parseScheduleMessageERK14QSharedPointerINS_8CalendarEERK7QString
libKF5CalendarCore.so.5:_ZN13KCalendarCore10ICalFormat8toStringERK14QSharedPointerINS_8CalendarEERK7QStringb
libKF5CalendarCore.so.5:_ZN13KCalendarCore10ICalFormatC1Ev
libKF5CalendarCore.so.5:_ZN13KCalendarCore10ICalFormatD1Ev
libKF5CalendarCore.so.5:_ZN13KCalendarCore10VCalFormat10fromStringERK14QSharedPointerINS_8CalendarEERK7QStringbS8_
libKF5CalendarCore.so.5:_ZN13KCalendarCore10VCalFormatC1Ev
libKF5CalendarCore.so.5:_ZN13KCalendarCore10VCalFormatD1Ev
libKF5CalendarCore.so.5:_ZN13KCalendarCore14MemoryCalendarC1ERK9QTimeZone
libKF5CalendarCore.so.5:_ZN13KCalendarCore4Todo8setDtDueERK9QDateTimeb
libKF5CalendarCore.so.5:_ZN13KCalendarCore4TodoC1ERKS0_
libKF5CalendarCore.so.5:_ZN13KCalendarCore5Event8setDtEndERK9QDateTime
libKF5CalendarCore.so.5:_ZN13KCalendarCore5EventC1ERKS0_
libKF5CalendarCore.so.5:_ZN13KCalendarCore6PeriodC1ERKS0_
libKF5CalendarCore.so.5:_ZN13KCalendarCore6PeriodD1Ev
libKF5CalendarCore.so.5:_ZN13KCalendarCore6Person12fromFullNameERK7QString
libKF5CalendarCore.so.5:_ZN13KCalendarCore6PersonC1ERK7QStringS3_
libKF5CalendarCore.so.5:_ZN13KCalendarCore6PersonD1Ev
libKF5CalendarCore.so.5:_ZN13KCalendarCore7Visitor5visitERK14QSharedPointerINS_4TodoEE
libKF5CalendarCore.so.5:_ZN13KCalendarCore7Visitor5visitERK14QSharedPointerINS_5EventEE
libKF5CalendarCore.so.5:_ZN13KCalendarCore7Visitor5visitERK14QSharedPointerINS_7JournalEE
libKF5CalendarCore.so.5:_ZN13KCalendarCore7Visitor5visitERK14QSharedPointerINS_8FreeBusyEE
libKF5CalendarCore.so.5:_ZN13KCalendarCore7VisitorC2Ev
libKF5CalendarCore.so.5:_ZN13KCalendarCore7VisitorD2Ev
libKF5CalendarCore.so.5:_ZN13KCalendarCore8AttendeeC1ERKS0_
libKF5CalendarCore.so.5:_ZN13KCalendarCore8AttendeeC1Ev
libKF5CalendarCore.so.5:_ZN13KCalendarCore8AttendeeD1Ev
libKF5CalendarCore.so.5:_ZN13KCalendarCore8AttendeeaSERKS0_
libKF5CalendarCore.so.5:_ZN13KCalendarCore8DurationD1Ev
libKF5CalendarCore.so.5:_ZN13KCalendarCore9Incidence12setRelatedToERK7QStringNS0_7RelTypeE
libKF5CalendarCore.so.5:_ZN13KCalendarCore9Incidence15setRecurrenceIdERK9QDateTime
libKF5CalendarCore.so.5:_ZN13KCalendarCore9Incidence8recreateEv
libKF5CalendarCore.so.5:_ZNK13KCalendarCore10Attachment3uriEv
libKF5CalendarCore.so.5:_ZNK13KCalendarCore10Attachment5isUriEv
libKF5CalendarCore.so.5:_ZNK13KCalendarCore10Attachment5labelEv
libKF5CalendarCore.so.5:_ZNK13KCalendarCore10Attachment8mimeTypeEv
libKF5CalendarCore.so.5:_ZNK13KCalendarCore10Recurrence10yearMonthsEv
libKF5CalendarCore.so.5:_ZNK13KCalendarCore10Recurrence11endDateTimeEv
libKF5CalendarCore.so.5:_ZNK13KCalendarCore10Recurrence11exDateTimesEv
libKF5CalendarCore.so.5:_ZNK13KCalendarCore10Recurrence13yearPositionsEv
libKF5CalendarCore.so.5:_ZNK13KCalendarCore10Recurrence14monthPositionsEv
libKF5CalendarCore.so.5:_ZNK13KCalendarCore10Recurrence14recurrenceTypeEv
libKF5CalendarCore.so.5:_ZNK13KCalendarCore10Recurrence15getNextDateTimeERK9QDateTime
libKF5CalendarCore.so.5:_ZNK13KCalendarCore10Recurrence15timesInIntervalERK9QDateTimeS3_
libKF5CalendarCore.so.5:_ZNK13KCalendarCore10Recurrence19getPreviousDateTimeERK9QDateTime
libKF5CalendarCore.so.5:_ZNK13KCalendarCore10Recurrence4daysEv
libKF5CalendarCore.so.5:_ZNK13KCalendarCore10Recurrence7endDateEv
libKF5CalendarCore.so.5:_ZNK13KCalendarCore10Recurrence7exDatesEv
libKF5CalendarCore.so.5:_ZNK13KCalendarCore10Recurrence8durationEv
libKF5CalendarCore.so.5:_ZNK13KCalendarCore10Recurrence8recursOnERK5QDateRK9QTimeZone
libKF5CalendarCore.so.5:_ZNK13KCalendarCore10Recurrence8yearDaysEv
libKF5CalendarCore.so.5:_ZNK13KCalendarCore10Recurrence9frequencyEv
libKF5CalendarCore.so.5:_ZNK13KCalendarCore10Recurrence9monthDaysEv
libKF5CalendarCore.so.5:_ZNK13KCalendarCore10Recurrence9startDateEv
libKF5CalendarCore.so.5:_ZNK13KCalendarCore10Recurrence9yearDatesEv
libKF5CalendarCore.so.5:_ZNK13KCalendarCore13IncidenceBase10isReadOnlyEv
libKF5CalendarCore.so.5:_ZNK13KCalendarCore13IncidenceBase11hasDurationEv
libKF5CalendarCore.so.5:_ZNK13KCalendarCore13IncidenceBase13attendeeCountEv
libKF5CalendarCore.so.5:_ZNK13KCalendarCore13IncidenceBase3uidEv
libKF5CalendarCore.so.5:_ZNK13KCalendarCore13IncidenceBase3uriEv
libKF5CalendarCore.so.5:_ZNK13KCalendarCore13IncidenceBase6allDayEv
libKF5CalendarCore.so.5:_ZNK13KCalendarCore13IncidenceBase8durationEv
libKF5CalendarCore.so.5:_ZNK13KCalendarCore13IncidenceBase9attendeesEv
libKF5CalendarCore.so.5:_ZNK13KCalendarCore13IncidenceBase9organizerEv
libKF5CalendarCore.so.5:_ZNK13KCalendarCore14RecurrenceRule7WDayPos3dayEv
libKF5CalendarCore.so.5:_ZNK13KCalendarCore14RecurrenceRule7WDayPos3posEv
libKF5CalendarCore.so.5:_ZNK13KCalendarCore15ScheduleMessage5eventEv
libKF5CalendarCore.so.5:_ZNK13KCalendarCore15ScheduleMessage6methodEv
libKF5CalendarCore.so.5:_ZNK13KCalendarCore16CustomProperties14customPropertyERK10QByteArrayS3_
libKF5CalendarCore.so.5:_ZNK13KCalendarCore4Todo10hasDueDateEv
libKF5CalendarCore.so.5:_ZNK13KCalendarCore4Todo11isCompletedEv
libKF5CalendarCore.so.5:_ZNK13KCalendarCore4Todo12dtRecurrenceEv
libKF5CalendarCore.so.5:_ZNK13KCalendarCore4Todo12hasStartDateEv
libKF5CalendarCore.so.5:_ZNK13KCalendarCore4Todo15percentCompleteEv
libKF5CalendarCore.so.5:_ZNK13KCalendarCore4Todo16hasCompletedDateEv
libKF5CalendarCore.so.5:_ZNK13KCalendarCore4Todo5dtDueEb
libKF5CalendarCore.so.5:_ZNK13KCalendarCore4Todo7dtStartEb
libKF5CalendarCore.so.5:_ZNK13KCalendarCore4Todo9completedEv
libKF5CalendarCore.so.5:_ZNK13KCalendarCore5Alarm10snoozeTimeEv
libKF5CalendarCore.so.5:_ZNK13KCalendarCore5Alarm11repeatCountEv
libKF5CalendarCore.so.5:_ZNK13KCalendarCore5Alarm11startOffsetEv
libKF5CalendarCore.so.5:_ZNK13KCalendarCore5Alarm12hasEndOffsetEv
libKF5CalendarCore.so.5:_ZNK13KCalendarCore5Alarm14hasStartOffsetEv
libKF5CalendarCore.so.5:_ZNK13KCalendarCore5Alarm4timeEv
libKF5CalendarCore.so.5:_ZNK13KCalendarCore5Alarm7hasTimeEv
libKF5CalendarCore.so.5:_ZNK13KCalendarCore5Alarm9endOffsetEv
libKF5CalendarCore.so.5:_ZNK13KCalendarCore5Event10hasEndDateEv
libKF5CalendarCore.so.5:_ZNK13KCalendarCore5Event10isMultiDayERK9QTimeZone
libKF5CalendarCore.so.5:_ZNK13KCalendarCore6Period11hasDurationEv
libKF5CalendarCore.so.5:_ZNK13KCalendarCore6Period3endEv
libKF5CalendarCore.so.5:_ZNK13KCalendarCore6Period5startEv
libKF5CalendarCore.so.5:_ZNK13KCalendarCore6Period8durationEv
libKF5CalendarCore.so.5:_ZNK13KCalendarCore6Person4nameEv
libKF5CalendarCore.so.5:_ZNK13KCalendarCore6Person5emailEv
libKF5CalendarCore.so.5:_ZNK13KCalendarCore6Person7isEmptyEv
libKF5CalendarCore.so.5:_ZNK13KCalendarCore6Person8fullNameEv
libKF5CalendarCore.so.5:_ZNK13KCalendarCore8Attendee3uidEv
libKF5CalendarCore.so.5:_ZNK13KCalendarCore8Attendee4RSVPEv
libKF5CalendarCore.so.5:_ZNK13KCalendarCore8Attendee4nameEv
libKF5CalendarCore.so.5:_ZNK13KCalendarCore8Attendee4roleEv
libKF5CalendarCore.so.5:_ZNK13KCalendarCore8Attendee5emailEv
libKF5CalendarCore.so.5:_ZNK13KCalendarCore8Attendee6isNullEv
libKF5CalendarCore.so.5:_ZNK13KCalendarCore8Attendee6statusEv
libKF5CalendarCore.so.5:_ZNK13KCalendarCore8Attendee8delegateEv
libKF5CalendarCore.so.5:_ZNK13KCalendarCore8Attendee9delegatorEv
libKF5CalendarCore.so.5:_ZNK13KCalendarCore8Calendar6eventsERK5QDateRK9QTimeZoneNS_14EventSortFieldENS_13SortDirectionE
libKF5CalendarCore.so.5:_ZNK13KCalendarCore8Calendar6eventsERK5QDateS3_RK9QTimeZoneb
libKF5CalendarCore.so.5:_ZNK13KCalendarCore8Calendar8timeZoneEv
libKF5CalendarCore.so.5:_ZNK13KCalendarCore8Calendar9incidenceERK7QStringRK9QDateTime
libKF5CalendarCore.so.5:_ZNK13KCalendarCore8Calendar9relationsERK7QString
libKF5CalendarCore.so.5:_ZNK13KCalendarCore8Duration9asSecondsEv
libKF5CalendarCore.so.5:_ZNK13KCalendarCore8DurationcvbEv
libKF5CalendarCore.so.5:_ZNK13KCalendarCore8FreeBusy11busyPeriodsEv
libKF5CalendarCore.so.5:_ZNK13KCalendarCore9CalFormat9exceptionEv
libKF5CalendarCore.so.5:_ZNK13KCalendarCore9Incidence10categoriesEv
libKF5CalendarCore.so.5:_ZNK13KCalendarCore9Incidence10recurrenceEv
libKF5CalendarCore.so.5:_ZNK13KCalendarCore9Incidence11attachmentsEv
libKF5CalendarCore.so.5:_ZNK13KCalendarCore9Incidence11descriptionEv
libKF5CalendarCore.so.5:_ZNK13KCalendarCore9Incidence11richSummaryEv
libKF5CalendarCore.so.5:_ZNK13KCalendarCore9Incidence12customStatusEv
libKF5CalendarCore.so.5:_ZNK13KCalendarCore9Incidence12richLocationEv
libKF5CalendarCore.so.5:_ZNK13KCalendarCore9Incidence12schedulingIDEv
libKF5CalendarCore.so.5:_ZNK13KCalendarCore9Incidence13categoriesStrEv
libKF5CalendarCore.so.5:_ZNK13KCalendarCore9Incidence13summaryIsRichEv
libKF5CalendarCore.so.5:_ZNK13KCalendarCore9Incidence14locationIsRichEv
libKF5CalendarCore.so.5:_ZNK13KCalendarCore9Incidence15hasRecurrenceIdEv
libKF5CalendarCore.so.5:_ZNK13KCalendarCore9Incidence15richDescriptionEv
libKF5CalendarCore.so.5:_ZNK13KCalendarCore9Incidence16hasEnabledAlarmsEv
libKF5CalendarCore.so.5:_ZNK13KCalendarCore9Incidence17descriptionIsRichEv
libKF5CalendarCore.so.5:_ZNK13KCalendarCore9Incidence6alarmsEv
libKF5CalendarCore.so.5:_ZNK13KCalendarCore9Incidence6recursEv
libKF5CalendarCore.so.5:_ZNK13KCalendarCore9Incidence6statusEv
libKF5CalendarCore.so.5:_ZNK13KCalendarCore9Incidence7createdEv
libKF5CalendarCore.so.5:_ZNK13KCalendarCore9Incidence7secrecyEv
libKF5CalendarCore.so.5:_ZNK13KCalendarCore9Incidence7summaryEv
libKF5CalendarCore.so.5:_ZNK13KCalendarCore9Incidence8locationEv
libKF5CalendarCore.so.5:_ZNK13KCalendarCore9Incidence8priorityEv
libKF5CalendarCore.so.5:_ZNK13KCalendarCore9Incidence8revisionEv
libKF5CalendarCore.so.5:_ZNK13KCalendarCore9Incidence9relatedToENS0_7RelTypeE
libKF5CalendarCore.so.5:_ZTIN13KCalendarCore4TodoE
libKF5CalendarCore.so.5:_ZTIN13KCalendarCore5EventE
libKF5CalendarCore.so.5:_ZTIN13KCalendarCore7JournalE
libKF5CalendarCore.so.5:_ZTIN13KCalendarCore7VisitorE
libKF5CalendarCore.so.5:_ZTIN13KCalendarCore9IncidenceE
libKF5Codecs.so.5:_ZN13KEmailAddress26extractEmailAddressAndNameERK7QStringRS0_S3_
libKF5ConfigCore.so.5:_ZN19KConfigSkeletonItem10setToolTipERK7QString
libKF5ConfigCore.so.5:_ZN19KConfigSkeletonItem12setWhatsThisERK7QString
libKF5ConfigCore.so.5:_ZN19KConfigSkeletonItem8setLabelERK7QString
libKF5ConfigCore.so.5:_ZN19KCoreConfigSkeleton10ItemStringC1ERK7QStringS3_RS1_S3_NS0_4TypeE
libKF5ConfigCore.so.5:_ZN19KCoreConfigSkeleton11setDefaultsEv
libKF5ConfigCore.so.5:_ZN19KCoreConfigSkeleton11useDefaultsEb
libKF5ConfigCore.so.5:_ZN19KCoreConfigSkeleton12ItemDateTimeC1ERK7QStringS3_R9QDateTimeRKS4_
libKF5ConfigCore.so.5:_ZN19KCoreConfigSkeleton13usrReadConfigEv
libKF5ConfigCore.so.5:_ZN19KCoreConfigSkeleton14usrSetDefaultsEv
libKF5ConfigCore.so.5:_ZN19KCoreConfigSkeleton14usrUseDefaultsEb
libKF5ConfigCore.so.5:_ZN19KCoreConfigSkeleton14usrWriteConfigEv
libKF5ConfigCore.so.5:_ZN19KCoreConfigSkeleton15setCurrentGroupERK7QString
libKF5ConfigCore.so.5:_ZN19KCoreConfigSkeleton7addItemEP19KConfigSkeletonItemRK7QString
libKF5ConfigCore.so.5:_ZN19KCoreConfigSkeleton7usrReadEv
libKF5ConfigCore.so.5:_ZN19KCoreConfigSkeleton7usrSaveEv
libKF5ConfigCore.so.5:_ZN19KCoreConfigSkeleton8ItemBoolC1ERK7QStringS3_Rbb
libKF5ConfigCore.so.5:_ZN19KCoreConfigSkeleton8ItemPathC1ERK7QStringS3_RS1_S3_
libKF5ConfigCore.so.5:_ZN19KCoreConfigSkeletonD2Ev
libKF5ConfigCore.so.5:_ZNK19KCoreConfigSkeleton12currentGroupEv
libKF5ConfigGui.so.5:_ZN15KConfigSkeleton11qt_metacallEN11QMetaObject4CallEiPPv
libKF5ConfigGui.so.5:_ZN15KConfigSkeleton11qt_metacastEPKc
libKF5ConfigGui.so.5:_ZN15KConfigSkeletonC2ERK7QStringP7QObject
libKF5ConfigGui.so.5:_ZNK15KConfigSkeleton10metaObjectEv
libKF5ConfigGui.so.5:_ZTI15KConfigSkeleton
libKF5ConfigGui.so.5:_ZTV15KConfigSkeleton
libKF5CoreAddons.so.5:_ZN11KTextToHTML13convertToHtmlERK7QStringRK6QFlagsINS_6OptionEEii
libKF5CoreAddons.so.5:_ZN12KUrlMimeData11setMetaDataERK4QMapI7QStringS1_EP9QMimeData
libKF5I18n.so.5:_Z6ki18ndPKcS0_
libKF5I18n.so.5:_Z7ki18ndcPKcS0_S0_
libKF5I18n.so.5:_Z7ki18ndpPKcS0_S0_
libKF5I18n.so.5:_Z7kxi18ndPKcS0_
libKF5I18n.so.5:_Z8ki18ndcpPKcS0_S0_S0_
libKF5I18n.so.5:_Z8kxi18ndcPKcS0_S0_
libKF5I18n.so.5:_Z8kxi18ndpPKcS0_S0_
libKF5I18n.so.5:_Z9kxi18ndcpPKcS0_S0_S0_
libKF5I18n.so.5:_ZN16KLocalizedStringC1ERKS_
libKF5I18n.so.5:_ZN16KLocalizedStringD1Ev
libKF5I18n.so.5:_ZN16KLocalizedStringaSERKS_
libKF5I18n.so.5:_ZNK16KLocalizedString4subsE5QChariS0_
libKF5I18n.so.5:_ZNK16KLocalizedString4subsERK7QStringi5QChar
libKF5I18n.so.5:_ZNK16KLocalizedString4subsEdici5QChar
libKF5I18n.so.5:_ZNK16KLocalizedString4subsEiii5QChar
libKF5I18n.so.5:_ZNK16KLocalizedString4subsEjii5QChar
libKF5I18n.so.5:_ZNK16KLocalizedString4subsExii5QChar
libKF5I18n.so.5:_ZNK16KLocalizedString4subsEyii5QChar
libKF5I18n.so.5:_ZNK16KLocalizedString8toStringEPKc
libKF5I18n.so.5:_ZNK16KLocalizedString8toStringEv
libKF5IconThemes.so.5:_ZN11KIconLoader6globalEv
libKF5IconThemes.so.5:_ZNK11KIconLoader11currentSizeENS_5GroupE
libKF5IconThemes.so.5:_ZNK11KIconLoader8iconPathERK7QStringib
libKF5WidgetsAddons.so.5:_ZN11KMessageBox17createKMessageBoxEP7QDialogP16QDialogButtonBoxN11QMessageBox4IconERK7QStringRK11QStringListS8_Pb6QFlagsINS_6OptionEES8_
libKF5WidgetsAddons.so.5:_ZN8KGuiItem6assignEP11QPushButtonRKS_
libQt5Core.so.5:_Z21qRegisterResourceDataiPKhS0_S0_
libQt5Core.so.5:_Z23qUnregisterResourceDataiPKhS0_S0_
libQt5Core.so.5:_Z5qHashRK7QStringj
libQt5Core.so.5:_ZN10QArrayData10deallocateEPS_mm
libQt5Core.so.5:_ZN10QArrayData11shared_nullE
libQt5Core.so.5:_ZN10QArrayData8allocateEmmm6QFlagsINS_16AllocationOptionEE
libQt5Core.so.5:_ZN10QByteArray11reallocDataEj6QFlagsIN10QArrayData16AllocationOptionEE
libQt5Core.so.5:_ZN10QByteArrayC1EPKci
libQt5Core.so.5:_ZN11QFileDevice5closeEv
libQt5Core.so.5:_ZN11QMetaObject10ConnectionD1Ev
libQt5Core.so.5:_ZN11QMetaObject14normalizedTypeEPKc
libQt5Core.so.5:_ZN11QMetaObject18connectSlotsByNameEP7QObject
libQt5Core.so.5:_ZN11QTextStream7readAllEv
libQt5Core.so.5:_ZN11QTextStream8setCodecEPKc
libQt5Core.so.5:_ZN11QTextStreamC1EP9QIODevice
libQt5Core.so.5:_ZN11QTextStreamD1Ev
libQt5Core.so.5:_ZN11QTextStreamlsEPKc
libQt5Core.so.5:_ZN11QTextStreamlsERK7QString
libQt5Core.so.5:_ZN11QTextStreamlsEc
libQt5Core.so.5:_ZN11QTextStreamlsEi
libQt5Core.so.5:_ZN12QMapDataBase10createDataEv
libQt5Core.so.5:_ZN12QMapDataBase10createNodeEiiP12QMapNodeBaseb
libQt5Core.so.5:_ZN12QMapDataBase11shared_nullE
libQt5Core.so.5:_ZN12QMapDataBase18recalcMostLeftNodeEv
libQt5Core.so.5:_ZN12QMapDataBase8freeDataEPS_
libQt5Core.so.5:_ZN12QMapDataBase8freeTreeEP12QMapNodeBasei
libQt5Core.so.5:_ZN13QMimeDatabaseC1Ev
libQt5Core.so.5:_ZN13QMimeDatabaseD1Ev
libQt5Core.so.5:_ZN14QStandardPaths6locateENS_16StandardLocationERK7QString6QFlagsINS_12LocateOptionEE
libQt5Core.so.5:_ZN15QtSharedPointer20ExternalRefCountData16setQObjectSharedEPK7QObjectb
libQt5Core.so.5:_ZN15QtSharedPointer20ExternalRefCountData9getAndRefEPK7QObject
libQt5Core.so.5:_ZN16QLoggingCategoryC1EPKc9QtMsgType
libQt5Core.so.5:_ZN16QLoggingCategoryD1Ev
libQt5Core.so.5:_ZN21QAbstractConcatenable14appendLatin1ToEPKciP5QChar
libQt5Core.so.5:_ZN2Qt4endlER11QTextStream
libQt5Core.so.5:_ZN4QUrl17toPercentEncodingERK7QStringRK10QByteArrayS5_
libQt5Core.so.5:_ZN4QUrl7setPathERK7QStringNS_11ParsingModeE
libQt5Core.so.5:_ZN4QUrl9setSchemeERK7QString
libQt5Core.so.5:_ZN4QUrlC1ERKS_
libQt5Core.so.5:_ZN4QUrlC1Ev
libQt5Core.so.5:_ZN4QUrlD1Ev
libQt5Core.so.5:_ZN5QDate7setDateEiii
libQt5Core.so.5:_ZN5QDateC1Eiii
libQt5Core.so.5:_ZN5QFile11setFileNameERK7QString
libQt5Core.so.5:_ZN5QFile4openE6QFlagsIN9QIODevice12OpenModeFlagEE
libQt5Core.so.5:_ZN5QFileC1ERK7QString
libQt5Core.so.5:_ZN5QFileC1Ev
libQt5Core.so.5:_ZN5QFileD1Ev
libQt5Core.so.5:_ZN5QTimeC1Eiiii
libQt5Core.so.5:_ZN6QDebug9putStringEPK5QCharm
libQt5Core.so.5:_ZN6QDebugD1Ev
libQt5Core.so.5:_ZN7QLocale6systemEv
libQt5Core.so.5:_ZN7QLocaleC1ERK7QString
libQt5Core.so.5:_ZN7QLocaleC1Ev
libQt5Core.so.5:_ZN7QLocaleD1Ev
libQt5Core.so.5:_ZN7QObject10childEventEP11QChildEvent
libQt5Core.so.5:_ZN7QObject10timerEventEP11QTimerEvent
libQt5Core.so.5:_ZN7QObject11connectImplEPKS_PPvS1_S3_PN9QtPrivate15QSlotObjectBaseEN2Qt14ConnectionTypeEPKiPK11QMetaObject
libQt5Core.so.5:_ZN7QObject11customEventEP6QEvent
libQt5Core.so.5:_ZN7QObject11deleteLaterEv
libQt5Core.so.5:_ZN7QObject11eventFilterEPS_P6QEvent
libQt5Core.so.5:_ZN7QObject11qt_metacallEN11QMetaObject4CallEiPPv
libQt5Core.so.5:_ZN7QObject11qt_metacastEPKc
libQt5Core.so.5:_ZN7QObject13connectNotifyERK11QMetaMethod
libQt5Core.so.5:_ZN7QObject13setObjectNameERK7QString
libQt5Core.so.5:_ZN7QObject16disconnectNotifyERK11QMetaMethod
libQt5Core.so.5:_ZN7QObject16staticMetaObjectE
libQt5Core.so.5:_ZN7QObject5eventEP6QEvent
libQt5Core.so.5:_ZN7QObjectC2EPS_
libQt5Core.so.5:_ZN7QObjectD2Ev
libQt5Core.so.5:_ZN7QRegExp3capEi
libQt5Core.so.5:_ZN7QRegExpC1ERK7QStringN2Qt15CaseSensitivityENS_13PatternSyntaxE
libQt5Core.so.5:_ZN7QRegExpD1Ev
libQt5Core.so.5:_ZN7QString11reallocDataEjb
libQt5Core.so.5:_ZN7QString13toUtf8_helperERKS_
libQt5Core.so.5:_ZN7QString14trimmed_helperERKS_
libQt5Core.so.5:_ZN7QString14trimmed_helperERS_
libQt5Core.so.5:_ZN7QString15fromUtf8_helperEPKci
libQt5Core.so.5:_ZN7QString17fromLatin1_helperEPKci
libQt5Core.so.5:_ZN7QString17simplified_helperERS_
libQt5Core.so.5:_ZN7QString18toLocal8Bit_helperEPK5QChari
libQt5Core.so.5:_ZN7QString4chopEi
libQt5Core.so.5:_ZN7QString6appendE13QLatin1String
libQt5Core.so.5:_ZN7QString6appendERKS_
libQt5Core.so.5:_ZN7QString6numberEii
libQt5Core.so.5:_ZN7QString6resizeEi
libQt5Core.so.5:_ZN7QString7replaceE5QChar13QLatin1StringN2Qt15CaseSensitivityE
libQt5Core.so.5:_ZN7QString7replaceERK7QRegExpRKS_
libQt5Core.so.5:_ZN7QString7replaceERKS_13QLatin1StringN2Qt15CaseSensitivityE
libQt5Core.so.5:_ZN7QStringC1EiN2Qt14InitializationE
libQt5Core.so.5:_ZN7QStringaSE13QLatin1String
libQt5Core.so.5:_ZN7QStringaSERKS_
libQt5Core.so.5:_ZN8QVariantC1E13QLatin1String
libQt5Core.so.5:_ZN8QVariantC1ERK11QStringList
libQt5Core.so.5:_ZN8QVariantC1ERK5QDate
libQt5Core.so.5:_ZN8QVariantC1ERK5QHashI7QStringS_E
libQt5Core.so.5:_ZN8QVariantC1ERK5QListIS_E
libQt5Core.so.5:_ZN8QVariantC1ERK5QTime
libQt5Core.so.5:_ZN8QVariantC1ERK7QString
libQt5Core.so.5:_ZN8QVariantC1ERK9QDateTime
libQt5Core.so.5:_ZN8QVariantC1ERKS_
libQt5Core.so.5:_ZN8QVariantC1Eb
libQt5Core.so.5:_ZN8QVariantC1Ei
libQt5Core.so.5:_ZN8QVariantC1EiPKvj
libQt5Core.so.5:_ZN8QVariantD1Ev
libQt5Core.so.5:_ZN9QDateTime18currentDateTimeUtcEv
libQt5Core.so.5:_ZN9QDateTime7setDateERK5QDate
libQt5Core.so.5:_ZN9QDateTime7setTimeERK5QTime
libQt5Core.so.5:_ZN9QDateTimeC1ERK5QDateRK5QTimeN2Qt8TimeSpecE
libQt5Core.so.5:_ZN9QDateTimeC1ERKS_
libQt5Core.so.5:_ZN9QDateTimeC1Ev
libQt5Core.so.5:_ZN9QDateTimeD1Ev
libQt5Core.so.5:_ZN9QHashData11free_helperEPFvPNS_4NodeEE
libQt5Core.so.5:_ZN9QHashData11shared_nullE
libQt5Core.so.5:_ZN9QHashData12allocateNodeEi
libQt5Core.so.5:_ZN9QHashData13detach_helperEPFvPNS_4NodeEPvEPFvS1_Eii
libQt5Core.so.5:_ZN9QHashData6rehashEi
libQt5Core.so.5:_ZN9QListData11detach_growEPii
libQt5Core.so.5:_ZN9QListData11shared_nullE
libQt5Core.so.5:_ZN9QListData6appendERKS_
libQt5Core.so.5:_ZN9QListData6appendEv
libQt5Core.so.5:_ZN9QListData6detachEi
libQt5Core.so.5:_ZN9QListData7disposeEPNS_4DataE
libQt5Core.so.5:_ZN9QListData7prependEv
libQt5Core.so.5:_ZN9QListData7reallocEi
libQt5Core.so.5:_ZN9QMetaType22registerNormalizedTypeERK10QByteArrayPFvPvEPFS3_S3_PKvEi6QFlagsINS_8TypeFlagEEPK11QMetaObject
libQt5Core.so.5:_ZN9QMimeData7setDataERK7QStringRK10QByteArray
libQt5Core.so.5:_ZN9QMimeData7setUrlsERK5QListI4QUrlE
libQt5Core.so.5:_ZN9QMimeDataC1Ev
libQt5Core.so.5:_ZN9QMimeTypeD1Ev
libQt5Core.so.5:_ZN9QTimeZone14systemTimeZoneEv
libQt5Core.so.5:_ZN9QTimeZoneC1Ev
libQt5Core.so.5:_ZN9QTimeZoneD1Ev
libQt5Core.so.5:_ZN9QtPrivate12argToQStringE11QStringViewmPPKNS_7ArgBaseE
libQt5Core.so.5:_ZN9QtPrivate16QStringList_joinEPK11QStringListPK5QChari
libQt5Core.so.5:_ZN9QtPrivate16QStringList_joinERK11QStringList13QLatin1String
libQt5Core.so.5:_ZN9QtPrivate20QStringList_containsEPK11QStringList13QLatin1StringN2Qt15CaseSensitivityE
libQt5Core.so.5:_ZNK10QByteArray6isNullEv
libQt5Core.so.5:_ZNK10QByteArray8toBase64Ev
libQt5Core.so.5:_ZNK11QObjectData17dynamicMetaObjectEv
libQt5Core.so.5:_ZNK13QMimeDatabase15mimeTypeForNameERK7QString
libQt5Core.so.5:_ZNK14QMessageLogger5debugEv
libQt5Core.so.5:_ZNK14QMessageLogger7warningEv
libQt5Core.so.5:_ZNK14QMessageLogger8criticalEv
libQt5Core.so.5:_ZNK4QUrl3urlE12QUrlTwoFlagsINS_19UrlFormattingOptionENS_25ComponentFormattingOptionEE
libQt5Core.so.5:_ZNK4QUrl7isValidEv
libQt5Core.so.5:_ZNK5QDate11daysInMonthEv
libQt5Core.so.5:_ZNK5QDate3dayEv
libQt5Core.so.5:_ZNK5QDate4yearEv
libQt5Core.so.5:_ZNK5QDate5monthEv
libQt5Core.so.5:_ZNK5QDate6daysToERKS_
libQt5Core.so.5:_ZNK5QDate7addDaysEx
libQt5Core.so.5:_ZNK5QDate8toStringEN2Qt10DateFormatE
libQt5Core.so.5:_ZNK5QDate8toStringERK7QString
libQt5Core.so.5:_ZNK5QDate9dayOfWeekEv
libQt5Core.so.5:_ZNK5QFile6existsEv
libQt5Core.so.5:_ZNK5QTime6minuteEv
libQt5Core.so.5:_ZNK5QTime7isValidEv
libQt5Core.so.5:_ZNK7QLocale14firstDayOfWeekEv
libQt5Core.so.5:_ZNK7QLocale16toCurrencyStringEdRK7QString
libQt5Core.so.5:_ZNK7QLocale7dayNameEiNS_10FormatTypeE
libQt5Core.so.5:_ZNK7QLocale8toStringERK5QDateNS_10FormatTypeE
libQt5Core.so.5:_ZNK7QLocale8toStringERK5QTimeNS_10FormatTypeE
libQt5Core.so.5:_ZNK7QLocale8toStringERK9QDateTimeNS_10FormatTypeE
libQt5Core.so.5:_ZNK7QLocale9monthNameEiNS_10FormatTypeE
libQt5Core.so.5:_ZNK7QObject10objectNameEv
libQt5Core.so.5:_ZNK7QRegExp7indexInERK7QStringiNS_9CaretModeE
libQt5Core.so.5:_ZNK7QString10startsWithE13QLatin1StringN2Qt15CaseSensitivityE
libQt5Core.so.5:_ZNK7QString10startsWithE5QCharN2Qt15CaseSensitivityE
libQt5Core.so.5:_ZNK7QString13toHtmlEscapedEv
libQt5Core.so.5:_ZNK7QString3argERKS_i5QChar
libQt5Core.so.5:_ZNK7QString3argExii5QChar
libQt5Core.so.5:_ZNK7QString3midEii
libQt5Core.so.5:_ZNK7QString4leftEi
libQt5Core.so.5:_ZNK7QString5countE5QCharN2Qt15CaseSensitivityE
libQt5Core.so.5:_ZNK7QString5rightEi
libQt5Core.so.5:_ZNK7QString5toIntEPbi
libQt5Core.so.5:_ZNK7QString7compareE13QLatin1StringN2Qt15CaseSensitivityE
libQt5Core.so.5:_ZNK7QString7indexOfE5QChariN2Qt15CaseSensitivityE
libQt5Core.so.5:_ZNK7QString8endsWithE13QLatin1StringN2Qt15CaseSensitivityE
libQt5Core.so.5:_ZNK7QString8endsWithE5QCharN2Qt15CaseSensitivityE
libQt5Core.so.5:_ZNK7QStringeqE13QLatin1String
libQt5Core.so.5:_ZNK8QVariant10canConvertEi
libQt5Core.so.5:_ZNK8QVariant10toDateTimeEv
libQt5Core.so.5:_ZNK8QVariant10toLongLongEPb
libQt5Core.so.5:_ZNK8QVariant11toULongLongEPb
libQt5Core.so.5:_ZNK8QVariant4typeEv
libQt5Core.so.5:_ZNK8QVariant5toIntEPb
libQt5Core.so.5:_ZNK8QVariant6toCharEv
libQt5Core.so.5:_ZNK8QVariant6toDateEv
libQt5Core.so.5:_ZNK8QVariant6toTimeEv
libQt5Core.so.5:_ZNK8QVariant6toUIntEPb
libQt5Core.so.5:_ZNK8QVariant7convertEiPv
libQt5Core.so.5:_ZNK8QVariant8toDoubleEPb
libQt5Core.so.5:_ZNK8QVariant8toStringEv
libQt5Core.so.5:_ZNK8QVariant8typeNameEv
libQt5Core.so.5:_ZNK8QVariant8userTypeEv
libQt5Core.so.5:_ZNK8QVariant9constDataEv
libQt5Core.so.5:_ZNK9QDateTime10toTimeSpecEN2Qt8TimeSpecE
libQt5Core.so.5:_ZNK9QDateTime4dateEv
libQt5Core.so.5:_ZNK9QDateTime4timeEv
libQt5Core.so.5:_ZNK9QDateTime6daysToERKS_
libQt5Core.so.5:_ZNK9QDateTime6secsToERKS_
libQt5Core.so.5:_ZNK9QDateTime7addDaysEx
libQt5Core.so.5:_ZNK9QDateTime7addSecsEx
libQt5Core.so.5:_ZNK9QDateTime7isValidEv
libQt5Core.so.5:_ZNK9QDateTime8timeZoneEv
libQt5Core.so.5:_ZNK9QDateTimeeqERKS_
libQt5Core.so.5:_ZNK9QDateTimeltERKS_
libQt5Core.so.5:_ZNK9QMimeData4dataERK7QString
libQt5Core.so.5:_ZNK9QMimeType7isValidEv
libQt5Core.so.5:_ZNK9QMimeType8iconNameEv
libQt5Core.so.5:_ZNK9QTimeZone13offsetFromUtcERK9QDateTime
libQt5Core.so.5:_ZTI7QObject
libQt5Core.so.5:_ZeqRK7QStringS1_
libQt5Core.so.5:_Zls6QDebugN8QVariant4TypeE
libQt5Core.so.5:_ZltRK7QStringS1_
libQt5Core.so.5:qt_resourceFeatureZlib
libQt5Core.so.5:qt_version_tag
libQt5Gui.so.5:_ZN10QClipboard11setMimeDataEP9QMimeDataNS_4ModeE
libQt5Gui.so.5:_ZN12QKeySequenceC1Eiiii
libQt5Gui.so.5:_ZN12QKeySequenceD1Ev
libQt5Gui.so.5:_ZN15QGuiApplication15layoutDirectionEv
libQt5Gui.so.5:_ZN15QGuiApplication7paletteEv
libQt5Gui.so.5:_ZN15QGuiApplication9clipboardEv
libQt5Gui.so.5:_ZN5QDrag11setMimeDataEP9QMimeData
libQt5Gui.so.5:_ZN5QDrag9setPixmapERK7QPixmap
libQt5Gui.so.5:_ZN5QDragC1EP7QObject
libQt5Gui.so.5:_ZN5QIcon9fromThemeERK7QString
libQt5Gui.so.5:_ZN5QIconD1Ev
libQt5Gui.so.5:_ZN6QColorC1EN2Qt11GlobalColorE
libQt5Gui.so.5:_ZN7QPixmapD1Ev
libQt5Gui.so.5:_ZN8QPaletteC1Ev
libQt5Gui.so.5:_ZN8QPaletteD1Ev
libQt5Gui.so.5:_ZNK10QClipboard8mimeDataENS_4ModeE
libQt5Gui.so.5:_ZNK5QIcon6pixmapERK5QSizeNS_4ModeENS_5StateE
libQt5Gui.so.5:_ZNK6QColor4nameEv
libQt5Gui.so.5:_ZNK8QPalette5brushENS_10ColorGroupENS_9ColorRoleE
libQt5Widgets.so.5:_ZN10QBoxLayout9addLayoutEP7QLayouti
libQt5Widgets.so.5:_ZN10QBoxLayout9addWidgetEP7QWidgeti6QFlagsIN2Qt13AlignmentFlagEE
libQt5Widgets.so.5:_ZN11QGridLayout7addItemEP11QLayoutItemiiii6QFlagsIN2Qt13AlignmentFlagEE
libQt5Widgets.so.5:_ZN11QGridLayout9addWidgetEP7QWidgetiiii6QFlagsIN2Qt13AlignmentFlagEE
libQt5Widgets.so.5:_ZN11QGridLayoutC1Ev
libQt5Widgets.so.5:_ZN11QHBoxLayoutC1Ev
libQt5Widgets.so.5:_ZN11QPushButton10setDefaultEb
libQt5Widgets.so.5:_ZN11QVBoxLayoutC1EP7QWidget
libQt5Widgets.so.5:_ZN11QVBoxLayoutC1Ev
libQt5Widgets.so.5:_ZN12QStyleOption4initEPK7QWidget
libQt5Widgets.so.5:_ZN12QStyleOptionC1Eii
libQt5Widgets.so.5:_ZN12QStyleOptionD1Ev
libQt5Widgets.so.5:_ZN15QAbstractButton10setCheckedEb
libQt5Widgets.so.5:_ZN15QAbstractButton11setShortcutERK12QKeySequence
libQt5Widgets.so.5:_ZN15QAbstractButton7setTextERK7QString
libQt5Widgets.so.5:_ZN16QDialogButtonBox16staticMetaObjectE
libQt5Widgets.so.5:_ZN16QDialogButtonBox8acceptedEv
libQt5Widgets.so.5:_ZN16QDialogButtonBox8rejectedEv
libQt5Widgets.so.5:_ZN16QDialogButtonBoxC1E6QFlagsINS_14StandardButtonEEP7QWidget
libQt5Widgets.so.5:_ZN6QLabel11setWordWrapEb
libQt5Widgets.so.5:_ZN6QLabel12setAlignmentE6QFlagsIN2Qt13AlignmentFlagEE
libQt5Widgets.so.5:_ZN6QLabel7setTextERK7QString
libQt5Widgets.so.5:_ZN6QLabel9setPixmapERK7QPixmap
libQt5Widgets.so.5:_ZN6QLabelC1EP7QWidget6QFlagsIN2Qt10WindowTypeEE
libQt5Widgets.so.5:_ZN7QDialogC1EP7QWidget6QFlagsIN2Qt10WindowTypeEE
libQt5Widgets.so.5:_ZN7QWidget10closeEventEP11QCloseEvent
libQt5Widgets.so.5:_ZN7QWidget10enterEventEP6QEvent
libQt5Widgets.so.5:_ZN7QWidget10leaveEventEP6QEvent
libQt5Widgets.so.5:_ZN7QWidget10paintEventEP11QPaintEvent
libQt5Widgets.so.5:_ZN7QWidget10setToolTipERK7QString
libQt5Widgets.so.5:_ZN7QWidget10setVisibleEb
libQt5Widgets.so.5:_ZN7QWidget10wheelEventEP11QWheelEvent
libQt5Widgets.so.5:_ZN7QWidget11actionEventEP12QActionEvent
libQt5Widgets.so.5:_ZN7QWidget11changeEventEP6QEvent
libQt5Widgets.so.5:_ZN7QWidget11nativeEventERK10QByteArrayPvPl
libQt5Widgets.so.5:_ZN7QWidget11qt_metacallEN11QMetaObject4CallEiPPv
libQt5Widgets.so.5:_ZN7QWidget11qt_metacastEPKc
libQt5Widgets.so.5:_ZN7QWidget11resizeEventEP12QResizeEvent
libQt5Widgets.so.5:_ZN7QWidget11tabletEventEP12QTabletEvent
libQt5Widgets.so.5:_ZN7QWidget12focusInEventEP11QFocusEvent
libQt5Widgets.so.5:_ZN7QWidget12setWhatsThisERK7QString
libQt5Widgets.so.5:_ZN7QWidget13dragMoveEventEP14QDragMoveEvent
libQt5Widgets.so.5:_ZN7QWidget13focusOutEventEP11QFocusEvent
libQt5Widgets.so.5:_ZN7QWidget13keyPressEventEP9QKeyEvent
libQt5Widgets.so.5:_ZN7QWidget13setSizePolicyE11QSizePolicy
libQt5Widgets.so.5:_ZN7QWidget14dragEnterEventEP15QDragEnterEvent
libQt5Widgets.so.5:_ZN7QWidget14dragLeaveEventEP15QDragLeaveEvent
libQt5Widgets.so.5:_ZN7QWidget14mouseMoveEventEP11QMouseEvent
libQt5Widgets.so.5:_ZN7QWidget14setWindowTitleERK7QString
libQt5Widgets.so.5:_ZN7QWidget15keyReleaseEventEP9QKeyEvent
libQt5Widgets.so.5:_ZN7QWidget15mousePressEventEP11QMouseEvent
libQt5Widgets.so.5:_ZN7QWidget16contextMenuEventEP17QContextMenuEvent
libQt5Widgets.so.5:_ZN7QWidget16inputMethodEventEP17QInputMethodEvent
libQt5Widgets.so.5:_ZN7QWidget16staticMetaObjectE
libQt5Widgets.so.5:_ZN7QWidget17mouseReleaseEventEP11QMouseEvent
libQt5Widgets.so.5:_ZN7QWidget18focusNextPrevChildEb
libQt5Widgets.so.5:_ZN7QWidget21mouseDoubleClickEventEP11QMouseEvent
libQt5Widgets.so.5:_ZN7QWidget4hideEv
libQt5Widgets.so.5:_ZN7QWidget5eventEP6QEvent
libQt5Widgets.so.5:_ZN7QWidget6resizeERK5QSize
libQt5Widgets.so.5:_ZN7QWidget9dropEventEP10QDropEvent
libQt5Widgets.so.5:_ZN7QWidget9hideEventEP10QHideEvent
libQt5Widgets.so.5:_ZN7QWidget9moveEventEP10QMoveEvent
libQt5Widgets.so.5:_ZN7QWidget9setLayoutEP7QLayout
libQt5Widgets.so.5:_ZN7QWidget9showEventEP10QShowEvent
libQt5Widgets.so.5:_ZN7QWidgetC2EPS_6QFlagsIN2Qt10WindowTypeEE
libQt5Widgets.so.5:_ZN7QWidgetD2Ev
libQt5Widgets.so.5:_ZN9QCheckBoxC1EP7QWidget
libQt5Widgets.so.5:_ZNK15QAbstractButton9isCheckedEv
libQt5Widgets.so.5:_ZNK16QDialogButtonBox6buttonENS_14StandardButtonE
libQt5Widgets.so.5:_ZNK7QWidget10redirectedEP6QPoint
libQt5Widgets.so.5:_ZNK7QWidget10sizePolicyEv
libQt5Widgets.so.5:_ZNK7QWidget11initPainterEP8QPainter
libQt5Widgets.so.5:_ZNK7QWidget11paintEngineEv
libQt5Widgets.so.5:_ZNK7QWidget13sharedPainterEv
libQt5Widgets.so.5:_ZNK7QWidget14heightForWidthEi
libQt5Widgets.so.5:_ZNK7QWidget15minimumSizeHintEv
libQt5Widgets.so.5:_ZNK7QWidget16inputMethodQueryEN2Qt16InputMethodQueryE
libQt5Widgets.so.5:_ZNK7QWidget17hasHeightForWidthEv
libQt5Widgets.so.5:_ZNK7QWidget5styleEv
libQt5Widgets.so.5:_ZNK7QWidget6metricEN12QPaintDevice17PaintDeviceMetricE
libQt5Widgets.so.5:_ZNK7QWidget7devTypeEv
libQt5Widgets.so.5:_ZNK7QWidget8sizeHintEv
libQt5Widgets.so.5:_ZTI7QWidget
libQt5Widgets.so.5:_ZTV11QSpacerItem
libQt5Widgets.so.5:_ZThn16_NK7QWidget10redirectedEP6QPoint
libQt5Widgets.so.5:_ZThn16_NK7QWidget11initPainterEP8QPainter
libQt5Widgets.so.5:_ZThn16_NK7QWidget11paintEngineEv
libQt5Widgets.so.5:_ZThn16_NK7QWidget13sharedPainterEv
libQt5Widgets.so.5:_ZThn16_NK7QWidget6metricEN12QPaintDevice17PaintDeviceMetricE
libQt5Widgets.so.5:_ZThn16_NK7QWidget7devTypeEv
libc.so.6:__cxa_atexit
libc.so.6:__stack_chk_fail
libc.so.6:memcpy
libc.so.6:strcmp
libc.so.6:strlen
libgcc_s.so.1:_Unwind_Resume
libstdc++.so.6:_ZTVN10__cxxabiv117__class_type_infoE
libstdc++.so.6:_ZTVN10__cxxabiv120__si_class_type_infoE
libstdc++.so.6:_ZTVN10__cxxabiv121__vmi_class_type_infoE
libstdc++.so.6:_ZdlPv
libstdc++.so.6:_ZdlPvm
libstdc++.so.6:_Znwm
libstdc++.so.6:__cxa_allocate_exception
libstdc++.so.6:__cxa_free_exception
libstdc++.so.6:__cxa_guard_abort
libstdc++.so.6:__cxa_guard_acquire
libstdc++.so.6:__cxa_guard_release
libstdc++.so.6:__cxa_throw
libstdc++.so.6:__dynamic_cast
libstdc++.so.6:__gxx_personality_v0
